; Listing generated by Microsoft (R) Optimizing Compiler Version 19.28.29335.0 

	TITLE	D:\Metin2 Server Files\mainline\SRC_2014\Metin2Client\UserInterface\PythonCharacterManager.cpp
	.686P
	.XMM
	include listing.inc
	.model	flat

INCLUDELIB LIBCMT
INCLUDELIB OLDNAMES

PUBLIC	??_7?$CDynamicPoolEx@VCRotationDecorator@NEffectUpdateDecorator@@@@6B@ ; CDynamicPoolEx<NEffectUpdateDecorator::CRotationDecorator>::`vftable'
PUBLIC	??_G?$CDynamicPoolEx@VCRotationDecorator@NEffectUpdateDecorator@@@@UAEPAXI@Z ; CDynamicPoolEx<NEffectUpdateDecorator::CRotationDecorator>::`scalar deleting destructor'
PUBLIC	??_7?$CDynamicPoolEx@VCGravityDecorator@NEffectUpdateDecorator@@@@6B@ ; CDynamicPoolEx<NEffectUpdateDecorator::CGravityDecorator>::`vftable'
PUBLIC	??_G?$CDynamicPoolEx@VCGravityDecorator@NEffectUpdateDecorator@@@@UAEPAXI@Z ; CDynamicPoolEx<NEffectUpdateDecorator::CGravityDecorator>::`scalar deleting destructor'
PUBLIC	??_R4?$CDynamicPoolEx@VCHeaderDecorator@NEffectUpdateDecorator@@@@6B@ ; CDynamicPoolEx<NEffectUpdateDecorator::CHeaderDecorator>::`RTTI Complete Object Locator'
PUBLIC	??_R0?AV?$CDynamicPoolEx@VCHeaderDecorator@NEffectUpdateDecorator@@@@@8 ; CDynamicPoolEx<NEffectUpdateDecorator::CHeaderDecorator> `RTTI Type Descriptor'
PUBLIC	??_R3?$CDynamicPoolEx@VCHeaderDecorator@NEffectUpdateDecorator@@@@8 ; CDynamicPoolEx<NEffectUpdateDecorator::CHeaderDecorator>::`RTTI Class Hierarchy Descriptor'
PUBLIC	??_R2?$CDynamicPoolEx@VCHeaderDecorator@NEffectUpdateDecorator@@@@8 ; CDynamicPoolEx<NEffectUpdateDecorator::CHeaderDecorator>::`RTTI Base Class Array'
PUBLIC	??_R1A@?0A@EA@?$CDynamicPoolEx@VCHeaderDecorator@NEffectUpdateDecorator@@@@8 ; CDynamicPoolEx<NEffectUpdateDecorator::CHeaderDecorator>::`RTTI Base Class Descriptor at (0,-1,0,64)'
PUBLIC	??_R4?$CDynamicPoolEx@VCNullDecorator@NEffectUpdateDecorator@@@@6B@ ; CDynamicPoolEx<NEffectUpdateDecorator::CNullDecorator>::`RTTI Complete Object Locator'
PUBLIC	??_R0?AV?$CDynamicPoolEx@VCNullDecorator@NEffectUpdateDecorator@@@@@8 ; CDynamicPoolEx<NEffectUpdateDecorator::CNullDecorator> `RTTI Type Descriptor'
PUBLIC	??_R3?$CDynamicPoolEx@VCNullDecorator@NEffectUpdateDecorator@@@@8 ; CDynamicPoolEx<NEffectUpdateDecorator::CNullDecorator>::`RTTI Class Hierarchy Descriptor'
PUBLIC	??_R2?$CDynamicPoolEx@VCNullDecorator@NEffectUpdateDecorator@@@@8 ; CDynamicPoolEx<NEffectUpdateDecorator::CNullDecorator>::`RTTI Base Class Array'
PUBLIC	??_R1A@?0A@EA@?$CDynamicPoolEx@VCNullDecorator@NEffectUpdateDecorator@@@@8 ; CDynamicPoolEx<NEffectUpdateDecorator::CNullDecorator>::`RTTI Base Class Descriptor at (0,-1,0,64)'
PUBLIC	??_R4?$CDynamicPoolEx@VCTextureAnimationCWDecorator@NEffectUpdateDecorator@@@@6B@ ; CDynamicPoolEx<NEffectUpdateDecorator::CTextureAnimationCWDecorator>::`RTTI Complete Object Locator'
PUBLIC	??_R0?AV?$CDynamicPoolEx@VCTextureAnimationCWDecorator@NEffectUpdateDecorator@@@@@8 ; CDynamicPoolEx<NEffectUpdateDecorator::CTextureAnimationCWDecorator> `RTTI Type Descriptor'
PUBLIC	??_R3?$CDynamicPoolEx@VCTextureAnimationCWDecorator@NEffectUpdateDecorator@@@@8 ; CDynamicPoolEx<NEffectUpdateDecorator::CTextureAnimationCWDecorator>::`RTTI Class Hierarchy Descriptor'
PUBLIC	??_R2?$CDynamicPoolEx@VCTextureAnimationCWDecorator@NEffectUpdateDecorator@@@@8 ; CDynamicPoolEx<NEffectUpdateDecorator::CTextureAnimationCWDecorator>::`RTTI Base Class Array'
PUBLIC	??_R1A@?0A@EA@?$CDynamicPoolEx@VCTextureAnimationCWDecorator@NEffectUpdateDecorator@@@@8 ; CDynamicPoolEx<NEffectUpdateDecorator::CTextureAnimationCWDecorator>::`RTTI Base Class Descriptor at (0,-1,0,64)'
PUBLIC	??_R4?$CDynamicPoolEx@VCTextureAnimationCCWDecorator@NEffectUpdateDecorator@@@@6B@ ; CDynamicPoolEx<NEffectUpdateDecorator::CTextureAnimationCCWDecorator>::`RTTI Complete Object Locator'
PUBLIC	??_R0?AV?$CDynamicPoolEx@VCTextureAnimationCCWDecorator@NEffectUpdateDecorator@@@@@8 ; CDynamicPoolEx<NEffectUpdateDecorator::CTextureAnimationCCWDecorator> `RTTI Type Descriptor'
PUBLIC	??_R3?$CDynamicPoolEx@VCTextureAnimationCCWDecorator@NEffectUpdateDecorator@@@@8 ; CDynamicPoolEx<NEffectUpdateDecorator::CTextureAnimationCCWDecorator>::`RTTI Class Hierarchy Descriptor'
PUBLIC	??_R2?$CDynamicPoolEx@VCTextureAnimationCCWDecorator@NEffectUpdateDecorator@@@@8 ; CDynamicPoolEx<NEffectUpdateDecorator::CTextureAnimationCCWDecorator>::`RTTI Base Class Array'
PUBLIC	??_R1A@?0A@EA@?$CDynamicPoolEx@VCTextureAnimationCCWDecorator@NEffectUpdateDecorator@@@@8 ; CDynamicPoolEx<NEffectUpdateDecorator::CTextureAnimationCCWDecorator>::`RTTI Base Class Descriptor at (0,-1,0,64)'
PUBLIC	??_R4?$CDynamicPoolEx@VCTextureAnimationRandomDecorator@NEffectUpdateDecorator@@@@6B@ ; CDynamicPoolEx<NEffectUpdateDecorator::CTextureAnimationRandomDecorator>::`RTTI Complete Object Locator'
PUBLIC	??_R0?AV?$CDynamicPoolEx@VCTextureAnimationRandomDecorator@NEffectUpdateDecorator@@@@@8 ; CDynamicPoolEx<NEffectUpdateDecorator::CTextureAnimationRandomDecorator> `RTTI Type Descriptor'
PUBLIC	??_R3?$CDynamicPoolEx@VCTextureAnimationRandomDecorator@NEffectUpdateDecorator@@@@8 ; CDynamicPoolEx<NEffectUpdateDecorator::CTextureAnimationRandomDecorator>::`RTTI Class Hierarchy Descriptor'
PUBLIC	??_R2?$CDynamicPoolEx@VCTextureAnimationRandomDecorator@NEffectUpdateDecorator@@@@8 ; CDynamicPoolEx<NEffectUpdateDecorator::CTextureAnimationRandomDecorator>::`RTTI Base Class Array'
PUBLIC	??_R1A@?0A@EA@?$CDynamicPoolEx@VCTextureAnimationRandomDecorator@NEffectUpdateDecorator@@@@8 ; CDynamicPoolEx<NEffectUpdateDecorator::CTextureAnimationRandomDecorator>::`RTTI Base Class Descriptor at (0,-1,0,64)'
PUBLIC	??_R4?$CDynamicPoolEx@VCAirResistanceDecorator@NEffectUpdateDecorator@@@@6B@ ; CDynamicPoolEx<NEffectUpdateDecorator::CAirResistanceDecorator>::`RTTI Complete Object Locator'
PUBLIC	??_R0?AV?$CDynamicPoolEx@VCAirResistanceDecorator@NEffectUpdateDecorator@@@@@8 ; CDynamicPoolEx<NEffectUpdateDecorator::CAirResistanceDecorator> `RTTI Type Descriptor'
PUBLIC	??_R3?$CDynamicPoolEx@VCAirResistanceDecorator@NEffectUpdateDecorator@@@@8 ; CDynamicPoolEx<NEffectUpdateDecorator::CAirResistanceDecorator>::`RTTI Class Hierarchy Descriptor'
PUBLIC	??_R2?$CDynamicPoolEx@VCAirResistanceDecorator@NEffectUpdateDecorator@@@@8 ; CDynamicPoolEx<NEffectUpdateDecorator::CAirResistanceDecorator>::`RTTI Base Class Array'
PUBLIC	??_R1A@?0A@EA@?$CDynamicPoolEx@VCAirResistanceDecorator@NEffectUpdateDecorator@@@@8 ; CDynamicPoolEx<NEffectUpdateDecorator::CAirResistanceDecorator>::`RTTI Base Class Descriptor at (0,-1,0,64)'
PUBLIC	??_R4?$CDynamicPoolEx@VCGravityDecorator@NEffectUpdateDecorator@@@@6B@ ; CDynamicPoolEx<NEffectUpdateDecorator::CGravityDecorator>::`RTTI Complete Object Locator'
PUBLIC	??_R0?AV?$CDynamicPoolEx@VCGravityDecorator@NEffectUpdateDecorator@@@@@8 ; CDynamicPoolEx<NEffectUpdateDecorator::CGravityDecorator> `RTTI Type Descriptor'
PUBLIC	??_R3?$CDynamicPoolEx@VCGravityDecorator@NEffectUpdateDecorator@@@@8 ; CDynamicPoolEx<NEffectUpdateDecorator::CGravityDecorator>::`RTTI Class Hierarchy Descriptor'
PUBLIC	??_R2?$CDynamicPoolEx@VCGravityDecorator@NEffectUpdateDecorator@@@@8 ; CDynamicPoolEx<NEffectUpdateDecorator::CGravityDecorator>::`RTTI Base Class Array'
PUBLIC	??_R1A@?0A@EA@?$CDynamicPoolEx@VCGravityDecorator@NEffectUpdateDecorator@@@@8 ; CDynamicPoolEx<NEffectUpdateDecorator::CGravityDecorator>::`RTTI Base Class Descriptor at (0,-1,0,64)'
PUBLIC	??_R4?$CDynamicPoolEx@VCRotationDecorator@NEffectUpdateDecorator@@@@6B@ ; CDynamicPoolEx<NEffectUpdateDecorator::CRotationDecorator>::`RTTI Complete Object Locator'
PUBLIC	??_R0?AV?$CDynamicPoolEx@VCRotationDecorator@NEffectUpdateDecorator@@@@@8 ; CDynamicPoolEx<NEffectUpdateDecorator::CRotationDecorator> `RTTI Type Descriptor'
PUBLIC	??_R3?$CDynamicPoolEx@VCRotationDecorator@NEffectUpdateDecorator@@@@8 ; CDynamicPoolEx<NEffectUpdateDecorator::CRotationDecorator>::`RTTI Class Hierarchy Descriptor'
PUBLIC	??_R2?$CDynamicPoolEx@VCRotationDecorator@NEffectUpdateDecorator@@@@8 ; CDynamicPoolEx<NEffectUpdateDecorator::CRotationDecorator>::`RTTI Base Class Array'
PUBLIC	??_R1A@?0A@EA@?$CDynamicPoolEx@VCRotationDecorator@NEffectUpdateDecorator@@@@8 ; CDynamicPoolEx<NEffectUpdateDecorator::CRotationDecorator>::`RTTI Base Class Descriptor at (0,-1,0,64)'
PUBLIC	??_7?$CDynamicPoolEx@VCAirResistanceDecorator@NEffectUpdateDecorator@@@@6B@ ; CDynamicPoolEx<NEffectUpdateDecorator::CAirResistanceDecorator>::`vftable'
PUBLIC	??_G?$CDynamicPoolEx@VCAirResistanceDecorator@NEffectUpdateDecorator@@@@UAEPAXI@Z ; CDynamicPoolEx<NEffectUpdateDecorator::CAirResistanceDecorator>::`scalar deleting destructor'
PUBLIC	??_7?$CDynamicPoolEx@VCTextureAnimationRandomDecorator@NEffectUpdateDecorator@@@@6B@ ; CDynamicPoolEx<NEffectUpdateDecorator::CTextureAnimationRandomDecorator>::`vftable'
PUBLIC	??_G?$CDynamicPoolEx@VCTextureAnimationRandomDecorator@NEffectUpdateDecorator@@@@UAEPAXI@Z ; CDynamicPoolEx<NEffectUpdateDecorator::CTextureAnimationRandomDecorator>::`scalar deleting destructor'
PUBLIC	??_7?$CDynamicPoolEx@VCTextureAnimationCCWDecorator@NEffectUpdateDecorator@@@@6B@ ; CDynamicPoolEx<NEffectUpdateDecorator::CTextureAnimationCCWDecorator>::`vftable'
PUBLIC	??_G?$CDynamicPoolEx@VCTextureAnimationCCWDecorator@NEffectUpdateDecorator@@@@UAEPAXI@Z ; CDynamicPoolEx<NEffectUpdateDecorator::CTextureAnimationCCWDecorator>::`scalar deleting destructor'
PUBLIC	??_7?$CDynamicPoolEx@VCTextureAnimationCWDecorator@NEffectUpdateDecorator@@@@6B@ ; CDynamicPoolEx<NEffectUpdateDecorator::CTextureAnimationCWDecorator>::`vftable'
PUBLIC	??_G?$CDynamicPoolEx@VCTextureAnimationCWDecorator@NEffectUpdateDecorator@@@@UAEPAXI@Z ; CDynamicPoolEx<NEffectUpdateDecorator::CTextureAnimationCWDecorator>::`scalar deleting destructor'
PUBLIC	??_7?$CDynamicPoolEx@VCNullDecorator@NEffectUpdateDecorator@@@@6B@ ; CDynamicPoolEx<NEffectUpdateDecorator::CNullDecorator>::`vftable'
PUBLIC	??_G?$CDynamicPoolEx@VCNullDecorator@NEffectUpdateDecorator@@@@UAEPAXI@Z ; CDynamicPoolEx<NEffectUpdateDecorator::CNullDecorator>::`scalar deleting destructor'
PUBLIC	??_7?$CDynamicPoolEx@VCHeaderDecorator@NEffectUpdateDecorator@@@@6B@ ; CDynamicPoolEx<NEffectUpdateDecorator::CHeaderDecorator>::`vftable'
PUBLIC	??_G?$CDynamicPoolEx@VCHeaderDecorator@NEffectUpdateDecorator@@@@UAEPAXI@Z ; CDynamicPoolEx<NEffectUpdateDecorator::CHeaderDecorator>::`scalar deleting destructor'
PUBLIC	?CHAR_STAGE_VIEW_BOUND@@3HA			; CHAR_STAGE_VIEW_BOUND
EXTRN	??_E?$CDynamicPoolEx@VCRotationDecorator@NEffectUpdateDecorator@@@@UAEPAXI@Z:PROC ; CDynamicPoolEx<NEffectUpdateDecorator::CRotationDecorator>::`vector deleting destructor'
EXTRN	??_E?$CDynamicPoolEx@VCGravityDecorator@NEffectUpdateDecorator@@@@UAEPAXI@Z:PROC ; CDynamicPoolEx<NEffectUpdateDecorator::CGravityDecorator>::`vector deleting destructor'
EXTRN	??_E?$CDynamicPoolEx@VCAirResistanceDecorator@NEffectUpdateDecorator@@@@UAEPAXI@Z:PROC ; CDynamicPoolEx<NEffectUpdateDecorator::CAirResistanceDecorator>::`vector deleting destructor'
EXTRN	??_E?$CDynamicPoolEx@VCTextureAnimationRandomDecorator@NEffectUpdateDecorator@@@@UAEPAXI@Z:PROC ; CDynamicPoolEx<NEffectUpdateDecorator::CTextureAnimationRandomDecorator>::`vector deleting destructor'
EXTRN	??_E?$CDynamicPoolEx@VCTextureAnimationCCWDecorator@NEffectUpdateDecorator@@@@UAEPAXI@Z:PROC ; CDynamicPoolEx<NEffectUpdateDecorator::CTextureAnimationCCWDecorator>::`vector deleting destructor'
EXTRN	??_E?$CDynamicPoolEx@VCTextureAnimationCWDecorator@NEffectUpdateDecorator@@@@UAEPAXI@Z:PROC ; CDynamicPoolEx<NEffectUpdateDecorator::CTextureAnimationCWDecorator>::`vector deleting destructor'
EXTRN	??_E?$CDynamicPoolEx@VCNullDecorator@NEffectUpdateDecorator@@@@UAEPAXI@Z:PROC ; CDynamicPoolEx<NEffectUpdateDecorator::CNullDecorator>::`vector deleting destructor'
EXTRN	??_E?$CDynamicPoolEx@VCHeaderDecorator@NEffectUpdateDecorator@@@@UAEPAXI@Z:PROC ; CDynamicPoolEx<NEffectUpdateDecorator::CHeaderDecorator>::`vector deleting destructor'
EXTRN	??_7type_info@@6B@:QWORD			; type_info::`vftable'
_DATA	SEGMENT
?CHAR_STAGE_VIEW_BOUND@@3HA DD 04e20H			; CHAR_STAGE_VIEW_BOUND
_DATA	ENDS
;	COMDAT ??_7?$CDynamicPoolEx@VCHeaderDecorator@NEffectUpdateDecorator@@@@6B@
CONST	SEGMENT
??_7?$CDynamicPoolEx@VCHeaderDecorator@NEffectUpdateDecorator@@@@6B@ DD FLAT:??_R4?$CDynamicPoolEx@VCHeaderDecorator@NEffectUpdateDecorator@@@@6B@ ; CDynamicPoolEx<NEffectUpdateDecorator::CHeaderDecorator>::`vftable'
	DD	FLAT:??_E?$CDynamicPoolEx@VCHeaderDecorator@NEffectUpdateDecorator@@@@UAEPAXI@Z
CONST	ENDS
;	COMDAT ??_7?$CDynamicPoolEx@VCNullDecorator@NEffectUpdateDecorator@@@@6B@
CONST	SEGMENT
??_7?$CDynamicPoolEx@VCNullDecorator@NEffectUpdateDecorator@@@@6B@ DD FLAT:??_R4?$CDynamicPoolEx@VCNullDecorator@NEffectUpdateDecorator@@@@6B@ ; CDynamicPoolEx<NEffectUpdateDecorator::CNullDecorator>::`vftable'
	DD	FLAT:??_E?$CDynamicPoolEx@VCNullDecorator@NEffectUpdateDecorator@@@@UAEPAXI@Z
CONST	ENDS
;	COMDAT ??_7?$CDynamicPoolEx@VCTextureAnimationCWDecorator@NEffectUpdateDecorator@@@@6B@
CONST	SEGMENT
??_7?$CDynamicPoolEx@VCTextureAnimationCWDecorator@NEffectUpdateDecorator@@@@6B@ DD FLAT:??_R4?$CDynamicPoolEx@VCTextureAnimationCWDecorator@NEffectUpdateDecorator@@@@6B@ ; CDynamicPoolEx<NEffectUpdateDecorator::CTextureAnimationCWDecorator>::`vftable'
	DD	FLAT:??_E?$CDynamicPoolEx@VCTextureAnimationCWDecorator@NEffectUpdateDecorator@@@@UAEPAXI@Z
CONST	ENDS
;	COMDAT ??_7?$CDynamicPoolEx@VCTextureAnimationCCWDecorator@NEffectUpdateDecorator@@@@6B@
CONST	SEGMENT
??_7?$CDynamicPoolEx@VCTextureAnimationCCWDecorator@NEffectUpdateDecorator@@@@6B@ DD FLAT:??_R4?$CDynamicPoolEx@VCTextureAnimationCCWDecorator@NEffectUpdateDecorator@@@@6B@ ; CDynamicPoolEx<NEffectUpdateDecorator::CTextureAnimationCCWDecorator>::`vftable'
	DD	FLAT:??_E?$CDynamicPoolEx@VCTextureAnimationCCWDecorator@NEffectUpdateDecorator@@@@UAEPAXI@Z
CONST	ENDS
;	COMDAT ??_7?$CDynamicPoolEx@VCTextureAnimationRandomDecorator@NEffectUpdateDecorator@@@@6B@
CONST	SEGMENT
??_7?$CDynamicPoolEx@VCTextureAnimationRandomDecorator@NEffectUpdateDecorator@@@@6B@ DD FLAT:??_R4?$CDynamicPoolEx@VCTextureAnimationRandomDecorator@NEffectUpdateDecorator@@@@6B@ ; CDynamicPoolEx<NEffectUpdateDecorator::CTextureAnimationRandomDecorator>::`vftable'
	DD	FLAT:??_E?$CDynamicPoolEx@VCTextureAnimationRandomDecorator@NEffectUpdateDecorator@@@@UAEPAXI@Z
CONST	ENDS
;	COMDAT ??_7?$CDynamicPoolEx@VCAirResistanceDecorator@NEffectUpdateDecorator@@@@6B@
CONST	SEGMENT
??_7?$CDynamicPoolEx@VCAirResistanceDecorator@NEffectUpdateDecorator@@@@6B@ DD FLAT:??_R4?$CDynamicPoolEx@VCAirResistanceDecorator@NEffectUpdateDecorator@@@@6B@ ; CDynamicPoolEx<NEffectUpdateDecorator::CAirResistanceDecorator>::`vftable'
	DD	FLAT:??_E?$CDynamicPoolEx@VCAirResistanceDecorator@NEffectUpdateDecorator@@@@UAEPAXI@Z
CONST	ENDS
;	COMDAT ??_R1A@?0A@EA@?$CDynamicPoolEx@VCRotationDecorator@NEffectUpdateDecorator@@@@8
rdata$r	SEGMENT
??_R1A@?0A@EA@?$CDynamicPoolEx@VCRotationDecorator@NEffectUpdateDecorator@@@@8 DD FLAT:??_R0?AV?$CDynamicPoolEx@VCRotationDecorator@NEffectUpdateDecorator@@@@@8 ; CDynamicPoolEx<NEffectUpdateDecorator::CRotationDecorator>::`RTTI Base Class Descriptor at (0,-1,0,64)'
	DD	00H
	DD	00H
	DD	0ffffffffH
	DD	00H
	DD	040H
	DD	FLAT:??_R3?$CDynamicPoolEx@VCRotationDecorator@NEffectUpdateDecorator@@@@8
rdata$r	ENDS
;	COMDAT ??_R2?$CDynamicPoolEx@VCRotationDecorator@NEffectUpdateDecorator@@@@8
rdata$r	SEGMENT
??_R2?$CDynamicPoolEx@VCRotationDecorator@NEffectUpdateDecorator@@@@8 DD FLAT:??_R1A@?0A@EA@?$CDynamicPoolEx@VCRotationDecorator@NEffectUpdateDecorator@@@@8 ; CDynamicPoolEx<NEffectUpdateDecorator::CRotationDecorator>::`RTTI Base Class Array'
rdata$r	ENDS
;	COMDAT ??_R3?$CDynamicPoolEx@VCRotationDecorator@NEffectUpdateDecorator@@@@8
rdata$r	SEGMENT
??_R3?$CDynamicPoolEx@VCRotationDecorator@NEffectUpdateDecorator@@@@8 DD 00H ; CDynamicPoolEx<NEffectUpdateDecorator::CRotationDecorator>::`RTTI Class Hierarchy Descriptor'
	DD	00H
	DD	01H
	DD	FLAT:??_R2?$CDynamicPoolEx@VCRotationDecorator@NEffectUpdateDecorator@@@@8
rdata$r	ENDS
;	COMDAT ??_R0?AV?$CDynamicPoolEx@VCRotationDecorator@NEffectUpdateDecorator@@@@@8
data$rs	SEGMENT
??_R0?AV?$CDynamicPoolEx@VCRotationDecorator@NEffectUpdateDecorator@@@@@8 DD FLAT:??_7type_info@@6B@ ; CDynamicPoolEx<NEffectUpdateDecorator::CRotationDecorator> `RTTI Type Descriptor'
	DD	00H
	DB	'.?AV?$CDynamicPoolEx@VCRotationDecorator@NEffectUpdateDe'
	DB	'corator@@@@', 00H
data$rs	ENDS
;	COMDAT ??_R4?$CDynamicPoolEx@VCRotationDecorator@NEffectUpdateDecorator@@@@6B@
rdata$r	SEGMENT
??_R4?$CDynamicPoolEx@VCRotationDecorator@NEffectUpdateDecorator@@@@6B@ DD 00H ; CDynamicPoolEx<NEffectUpdateDecorator::CRotationDecorator>::`RTTI Complete Object Locator'
	DD	00H
	DD	00H
	DD	FLAT:??_R0?AV?$CDynamicPoolEx@VCRotationDecorator@NEffectUpdateDecorator@@@@@8
	DD	FLAT:??_R3?$CDynamicPoolEx@VCRotationDecorator@NEffectUpdateDecorator@@@@8
rdata$r	ENDS
;	COMDAT ??_R1A@?0A@EA@?$CDynamicPoolEx@VCGravityDecorator@NEffectUpdateDecorator@@@@8
rdata$r	SEGMENT
??_R1A@?0A@EA@?$CDynamicPoolEx@VCGravityDecorator@NEffectUpdateDecorator@@@@8 DD FLAT:??_R0?AV?$CDynamicPoolEx@VCGravityDecorator@NEffectUpdateDecorator@@@@@8 ; CDynamicPoolEx<NEffectUpdateDecorator::CGravityDecorator>::`RTTI Base Class Descriptor at (0,-1,0,64)'
	DD	00H
	DD	00H
	DD	0ffffffffH
	DD	00H
	DD	040H
	DD	FLAT:??_R3?$CDynamicPoolEx@VCGravityDecorator@NEffectUpdateDecorator@@@@8
rdata$r	ENDS
;	COMDAT ??_R2?$CDynamicPoolEx@VCGravityDecorator@NEffectUpdateDecorator@@@@8
rdata$r	SEGMENT
??_R2?$CDynamicPoolEx@VCGravityDecorator@NEffectUpdateDecorator@@@@8 DD FLAT:??_R1A@?0A@EA@?$CDynamicPoolEx@VCGravityDecorator@NEffectUpdateDecorator@@@@8 ; CDynamicPoolEx<NEffectUpdateDecorator::CGravityDecorator>::`RTTI Base Class Array'
rdata$r	ENDS
;	COMDAT ??_R3?$CDynamicPoolEx@VCGravityDecorator@NEffectUpdateDecorator@@@@8
rdata$r	SEGMENT
??_R3?$CDynamicPoolEx@VCGravityDecorator@NEffectUpdateDecorator@@@@8 DD 00H ; CDynamicPoolEx<NEffectUpdateDecorator::CGravityDecorator>::`RTTI Class Hierarchy Descriptor'
	DD	00H
	DD	01H
	DD	FLAT:??_R2?$CDynamicPoolEx@VCGravityDecorator@NEffectUpdateDecorator@@@@8
rdata$r	ENDS
;	COMDAT ??_R0?AV?$CDynamicPoolEx@VCGravityDecorator@NEffectUpdateDecorator@@@@@8
data$rs	SEGMENT
??_R0?AV?$CDynamicPoolEx@VCGravityDecorator@NEffectUpdateDecorator@@@@@8 DD FLAT:??_7type_info@@6B@ ; CDynamicPoolEx<NEffectUpdateDecorator::CGravityDecorator> `RTTI Type Descriptor'
	DD	00H
	DB	'.?AV?$CDynamicPoolEx@VCGravityDecorator@NEffectUpdateDec'
	DB	'orator@@@@', 00H
data$rs	ENDS
;	COMDAT ??_R4?$CDynamicPoolEx@VCGravityDecorator@NEffectUpdateDecorator@@@@6B@
rdata$r	SEGMENT
??_R4?$CDynamicPoolEx@VCGravityDecorator@NEffectUpdateDecorator@@@@6B@ DD 00H ; CDynamicPoolEx<NEffectUpdateDecorator::CGravityDecorator>::`RTTI Complete Object Locator'
	DD	00H
	DD	00H
	DD	FLAT:??_R0?AV?$CDynamicPoolEx@VCGravityDecorator@NEffectUpdateDecorator@@@@@8
	DD	FLAT:??_R3?$CDynamicPoolEx@VCGravityDecorator@NEffectUpdateDecorator@@@@8
rdata$r	ENDS
;	COMDAT ??_R1A@?0A@EA@?$CDynamicPoolEx@VCAirResistanceDecorator@NEffectUpdateDecorator@@@@8
rdata$r	SEGMENT
??_R1A@?0A@EA@?$CDynamicPoolEx@VCAirResistanceDecorator@NEffectUpdateDecorator@@@@8 DD FLAT:??_R0?AV?$CDynamicPoolEx@VCAirResistanceDecorator@NEffectUpdateDecorator@@@@@8 ; CDynamicPoolEx<NEffectUpdateDecorator::CAirResistanceDecorator>::`RTTI Base Class Descriptor at (0,-1,0,64)'
	DD	00H
	DD	00H
	DD	0ffffffffH
	DD	00H
	DD	040H
	DD	FLAT:??_R3?$CDynamicPoolEx@VCAirResistanceDecorator@NEffectUpdateDecorator@@@@8
rdata$r	ENDS
;	COMDAT ??_R2?$CDynamicPoolEx@VCAirResistanceDecorator@NEffectUpdateDecorator@@@@8
rdata$r	SEGMENT
??_R2?$CDynamicPoolEx@VCAirResistanceDecorator@NEffectUpdateDecorator@@@@8 DD FLAT:??_R1A@?0A@EA@?$CDynamicPoolEx@VCAirResistanceDecorator@NEffectUpdateDecorator@@@@8 ; CDynamicPoolEx<NEffectUpdateDecorator::CAirResistanceDecorator>::`RTTI Base Class Array'
rdata$r	ENDS
;	COMDAT ??_R3?$CDynamicPoolEx@VCAirResistanceDecorator@NEffectUpdateDecorator@@@@8
rdata$r	SEGMENT
??_R3?$CDynamicPoolEx@VCAirResistanceDecorator@NEffectUpdateDecorator@@@@8 DD 00H ; CDynamicPoolEx<NEffectUpdateDecorator::CAirResistanceDecorator>::`RTTI Class Hierarchy Descriptor'
	DD	00H
	DD	01H
	DD	FLAT:??_R2?$CDynamicPoolEx@VCAirResistanceDecorator@NEffectUpdateDecorator@@@@8
rdata$r	ENDS
;	COMDAT ??_R0?AV?$CDynamicPoolEx@VCAirResistanceDecorator@NEffectUpdateDecorator@@@@@8
data$rs	SEGMENT
??_R0?AV?$CDynamicPoolEx@VCAirResistanceDecorator@NEffectUpdateDecorator@@@@@8 DD FLAT:??_7type_info@@6B@ ; CDynamicPoolEx<NEffectUpdateDecorator::CAirResistanceDecorator> `RTTI Type Descriptor'
	DD	00H
	DB	'.?AV?$CDynamicPoolEx@VCAirResistanceDecorator@NEffectUpd'
	DB	'ateDecorator@@@@', 00H
data$rs	ENDS
;	COMDAT ??_R4?$CDynamicPoolEx@VCAirResistanceDecorator@NEffectUpdateDecorator@@@@6B@
rdata$r	SEGMENT
??_R4?$CDynamicPoolEx@VCAirResistanceDecorator@NEffectUpdateDecorator@@@@6B@ DD 00H ; CDynamicPoolEx<NEffectUpdateDecorator::CAirResistanceDecorator>::`RTTI Complete Object Locator'
	DD	00H
	DD	00H
	DD	FLAT:??_R0?AV?$CDynamicPoolEx@VCAirResistanceDecorator@NEffectUpdateDecorator@@@@@8
	DD	FLAT:??_R3?$CDynamicPoolEx@VCAirResistanceDecorator@NEffectUpdateDecorator@@@@8
rdata$r	ENDS
;	COMDAT ??_R1A@?0A@EA@?$CDynamicPoolEx@VCTextureAnimationRandomDecorator@NEffectUpdateDecorator@@@@8
rdata$r	SEGMENT
??_R1A@?0A@EA@?$CDynamicPoolEx@VCTextureAnimationRandomDecorator@NEffectUpdateDecorator@@@@8 DD FLAT:??_R0?AV?$CDynamicPoolEx@VCTextureAnimationRandomDecorator@NEffectUpdateDecorator@@@@@8 ; CDynamicPoolEx<NEffectUpdateDecorator::CTextureAnimationRandomDecorator>::`RTTI Base Class Descriptor at (0,-1,0,64)'
	DD	00H
	DD	00H
	DD	0ffffffffH
	DD	00H
	DD	040H
	DD	FLAT:??_R3?$CDynamicPoolEx@VCTextureAnimationRandomDecorator@NEffectUpdateDecorator@@@@8
rdata$r	ENDS
;	COMDAT ??_R2?$CDynamicPoolEx@VCTextureAnimationRandomDecorator@NEffectUpdateDecorator@@@@8
rdata$r	SEGMENT
??_R2?$CDynamicPoolEx@VCTextureAnimationRandomDecorator@NEffectUpdateDecorator@@@@8 DD FLAT:??_R1A@?0A@EA@?$CDynamicPoolEx@VCTextureAnimationRandomDecorator@NEffectUpdateDecorator@@@@8 ; CDynamicPoolEx<NEffectUpdateDecorator::CTextureAnimationRandomDecorator>::`RTTI Base Class Array'
rdata$r	ENDS
;	COMDAT ??_R3?$CDynamicPoolEx@VCTextureAnimationRandomDecorator@NEffectUpdateDecorator@@@@8
rdata$r	SEGMENT
??_R3?$CDynamicPoolEx@VCTextureAnimationRandomDecorator@NEffectUpdateDecorator@@@@8 DD 00H ; CDynamicPoolEx<NEffectUpdateDecorator::CTextureAnimationRandomDecorator>::`RTTI Class Hierarchy Descriptor'
	DD	00H
	DD	01H
	DD	FLAT:??_R2?$CDynamicPoolEx@VCTextureAnimationRandomDecorator@NEffectUpdateDecorator@@@@8
rdata$r	ENDS
;	COMDAT ??_R0?AV?$CDynamicPoolEx@VCTextureAnimationRandomDecorator@NEffectUpdateDecorator@@@@@8
data$rs	SEGMENT
??_R0?AV?$CDynamicPoolEx@VCTextureAnimationRandomDecorator@NEffectUpdateDecorator@@@@@8 DD FLAT:??_7type_info@@6B@ ; CDynamicPoolEx<NEffectUpdateDecorator::CTextureAnimationRandomDecorator> `RTTI Type Descriptor'
	DD	00H
	DB	'.?AV?$CDynamicPoolEx@VCTextureAnimationRandomDecorator@N'
	DB	'EffectUpdateDecorator@@@@', 00H
data$rs	ENDS
;	COMDAT ??_R4?$CDynamicPoolEx@VCTextureAnimationRandomDecorator@NEffectUpdateDecorator@@@@6B@
rdata$r	SEGMENT
??_R4?$CDynamicPoolEx@VCTextureAnimationRandomDecorator@NEffectUpdateDecorator@@@@6B@ DD 00H ; CDynamicPoolEx<NEffectUpdateDecorator::CTextureAnimationRandomDecorator>::`RTTI Complete Object Locator'
	DD	00H
	DD	00H
	DD	FLAT:??_R0?AV?$CDynamicPoolEx@VCTextureAnimationRandomDecorator@NEffectUpdateDecorator@@@@@8
	DD	FLAT:??_R3?$CDynamicPoolEx@VCTextureAnimationRandomDecorator@NEffectUpdateDecorator@@@@8
rdata$r	ENDS
;	COMDAT ??_R1A@?0A@EA@?$CDynamicPoolEx@VCTextureAnimationCCWDecorator@NEffectUpdateDecorator@@@@8
rdata$r	SEGMENT
??_R1A@?0A@EA@?$CDynamicPoolEx@VCTextureAnimationCCWDecorator@NEffectUpdateDecorator@@@@8 DD FLAT:??_R0?AV?$CDynamicPoolEx@VCTextureAnimationCCWDecorator@NEffectUpdateDecorator@@@@@8 ; CDynamicPoolEx<NEffectUpdateDecorator::CTextureAnimationCCWDecorator>::`RTTI Base Class Descriptor at (0,-1,0,64)'
	DD	00H
	DD	00H
	DD	0ffffffffH
	DD	00H
	DD	040H
	DD	FLAT:??_R3?$CDynamicPoolEx@VCTextureAnimationCCWDecorator@NEffectUpdateDecorator@@@@8
rdata$r	ENDS
;	COMDAT ??_R2?$CDynamicPoolEx@VCTextureAnimationCCWDecorator@NEffectUpdateDecorator@@@@8
rdata$r	SEGMENT
??_R2?$CDynamicPoolEx@VCTextureAnimationCCWDecorator@NEffectUpdateDecorator@@@@8 DD FLAT:??_R1A@?0A@EA@?$CDynamicPoolEx@VCTextureAnimationCCWDecorator@NEffectUpdateDecorator@@@@8 ; CDynamicPoolEx<NEffectUpdateDecorator::CTextureAnimationCCWDecorator>::`RTTI Base Class Array'
rdata$r	ENDS
;	COMDAT ??_R3?$CDynamicPoolEx@VCTextureAnimationCCWDecorator@NEffectUpdateDecorator@@@@8
rdata$r	SEGMENT
??_R3?$CDynamicPoolEx@VCTextureAnimationCCWDecorator@NEffectUpdateDecorator@@@@8 DD 00H ; CDynamicPoolEx<NEffectUpdateDecorator::CTextureAnimationCCWDecorator>::`RTTI Class Hierarchy Descriptor'
	DD	00H
	DD	01H
	DD	FLAT:??_R2?$CDynamicPoolEx@VCTextureAnimationCCWDecorator@NEffectUpdateDecorator@@@@8
rdata$r	ENDS
;	COMDAT ??_R0?AV?$CDynamicPoolEx@VCTextureAnimationCCWDecorator@NEffectUpdateDecorator@@@@@8
data$rs	SEGMENT
??_R0?AV?$CDynamicPoolEx@VCTextureAnimationCCWDecorator@NEffectUpdateDecorator@@@@@8 DD FLAT:??_7type_info@@6B@ ; CDynamicPoolEx<NEffectUpdateDecorator::CTextureAnimationCCWDecorator> `RTTI Type Descriptor'
	DD	00H
	DB	'.?AV?$CDynamicPoolEx@VCTextureAnimationCCWDecorator@NEff'
	DB	'ectUpdateDecorator@@@@', 00H
data$rs	ENDS
;	COMDAT ??_R4?$CDynamicPoolEx@VCTextureAnimationCCWDecorator@NEffectUpdateDecorator@@@@6B@
rdata$r	SEGMENT
??_R4?$CDynamicPoolEx@VCTextureAnimationCCWDecorator@NEffectUpdateDecorator@@@@6B@ DD 00H ; CDynamicPoolEx<NEffectUpdateDecorator::CTextureAnimationCCWDecorator>::`RTTI Complete Object Locator'
	DD	00H
	DD	00H
	DD	FLAT:??_R0?AV?$CDynamicPoolEx@VCTextureAnimationCCWDecorator@NEffectUpdateDecorator@@@@@8
	DD	FLAT:??_R3?$CDynamicPoolEx@VCTextureAnimationCCWDecorator@NEffectUpdateDecorator@@@@8
rdata$r	ENDS
;	COMDAT ??_R1A@?0A@EA@?$CDynamicPoolEx@VCTextureAnimationCWDecorator@NEffectUpdateDecorator@@@@8
rdata$r	SEGMENT
??_R1A@?0A@EA@?$CDynamicPoolEx@VCTextureAnimationCWDecorator@NEffectUpdateDecorator@@@@8 DD FLAT:??_R0?AV?$CDynamicPoolEx@VCTextureAnimationCWDecorator@NEffectUpdateDecorator@@@@@8 ; CDynamicPoolEx<NEffectUpdateDecorator::CTextureAnimationCWDecorator>::`RTTI Base Class Descriptor at (0,-1,0,64)'
	DD	00H
	DD	00H
	DD	0ffffffffH
	DD	00H
	DD	040H
	DD	FLAT:??_R3?$CDynamicPoolEx@VCTextureAnimationCWDecorator@NEffectUpdateDecorator@@@@8
rdata$r	ENDS
;	COMDAT ??_R2?$CDynamicPoolEx@VCTextureAnimationCWDecorator@NEffectUpdateDecorator@@@@8
rdata$r	SEGMENT
??_R2?$CDynamicPoolEx@VCTextureAnimationCWDecorator@NEffectUpdateDecorator@@@@8 DD FLAT:??_R1A@?0A@EA@?$CDynamicPoolEx@VCTextureAnimationCWDecorator@NEffectUpdateDecorator@@@@8 ; CDynamicPoolEx<NEffectUpdateDecorator::CTextureAnimationCWDecorator>::`RTTI Base Class Array'
rdata$r	ENDS
;	COMDAT ??_R3?$CDynamicPoolEx@VCTextureAnimationCWDecorator@NEffectUpdateDecorator@@@@8
rdata$r	SEGMENT
??_R3?$CDynamicPoolEx@VCTextureAnimationCWDecorator@NEffectUpdateDecorator@@@@8 DD 00H ; CDynamicPoolEx<NEffectUpdateDecorator::CTextureAnimationCWDecorator>::`RTTI Class Hierarchy Descriptor'
	DD	00H
	DD	01H
	DD	FLAT:??_R2?$CDynamicPoolEx@VCTextureAnimationCWDecorator@NEffectUpdateDecorator@@@@8
rdata$r	ENDS
;	COMDAT ??_R0?AV?$CDynamicPoolEx@VCTextureAnimationCWDecorator@NEffectUpdateDecorator@@@@@8
data$rs	SEGMENT
??_R0?AV?$CDynamicPoolEx@VCTextureAnimationCWDecorator@NEffectUpdateDecorator@@@@@8 DD FLAT:??_7type_info@@6B@ ; CDynamicPoolEx<NEffectUpdateDecorator::CTextureAnimationCWDecorator> `RTTI Type Descriptor'
	DD	00H
	DB	'.?AV?$CDynamicPoolEx@VCTextureAnimationCWDecorator@NEffe'
	DB	'ctUpdateDecorator@@@@', 00H
data$rs	ENDS
;	COMDAT ??_R4?$CDynamicPoolEx@VCTextureAnimationCWDecorator@NEffectUpdateDecorator@@@@6B@
rdata$r	SEGMENT
??_R4?$CDynamicPoolEx@VCTextureAnimationCWDecorator@NEffectUpdateDecorator@@@@6B@ DD 00H ; CDynamicPoolEx<NEffectUpdateDecorator::CTextureAnimationCWDecorator>::`RTTI Complete Object Locator'
	DD	00H
	DD	00H
	DD	FLAT:??_R0?AV?$CDynamicPoolEx@VCTextureAnimationCWDecorator@NEffectUpdateDecorator@@@@@8
	DD	FLAT:??_R3?$CDynamicPoolEx@VCTextureAnimationCWDecorator@NEffectUpdateDecorator@@@@8
rdata$r	ENDS
;	COMDAT ??_R1A@?0A@EA@?$CDynamicPoolEx@VCNullDecorator@NEffectUpdateDecorator@@@@8
rdata$r	SEGMENT
??_R1A@?0A@EA@?$CDynamicPoolEx@VCNullDecorator@NEffectUpdateDecorator@@@@8 DD FLAT:??_R0?AV?$CDynamicPoolEx@VCNullDecorator@NEffectUpdateDecorator@@@@@8 ; CDynamicPoolEx<NEffectUpdateDecorator::CNullDecorator>::`RTTI Base Class Descriptor at (0,-1,0,64)'
	DD	00H
	DD	00H
	DD	0ffffffffH
	DD	00H
	DD	040H
	DD	FLAT:??_R3?$CDynamicPoolEx@VCNullDecorator@NEffectUpdateDecorator@@@@8
rdata$r	ENDS
;	COMDAT ??_R2?$CDynamicPoolEx@VCNullDecorator@NEffectUpdateDecorator@@@@8
rdata$r	SEGMENT
??_R2?$CDynamicPoolEx@VCNullDecorator@NEffectUpdateDecorator@@@@8 DD FLAT:??_R1A@?0A@EA@?$CDynamicPoolEx@VCNullDecorator@NEffectUpdateDecorator@@@@8 ; CDynamicPoolEx<NEffectUpdateDecorator::CNullDecorator>::`RTTI Base Class Array'
rdata$r	ENDS
;	COMDAT ??_R3?$CDynamicPoolEx@VCNullDecorator@NEffectUpdateDecorator@@@@8
rdata$r	SEGMENT
??_R3?$CDynamicPoolEx@VCNullDecorator@NEffectUpdateDecorator@@@@8 DD 00H ; CDynamicPoolEx<NEffectUpdateDecorator::CNullDecorator>::`RTTI Class Hierarchy Descriptor'
	DD	00H
	DD	01H
	DD	FLAT:??_R2?$CDynamicPoolEx@VCNullDecorator@NEffectUpdateDecorator@@@@8
rdata$r	ENDS
;	COMDAT ??_R0?AV?$CDynamicPoolEx@VCNullDecorator@NEffectUpdateDecorator@@@@@8
data$rs	SEGMENT
??_R0?AV?$CDynamicPoolEx@VCNullDecorator@NEffectUpdateDecorator@@@@@8 DD FLAT:??_7type_info@@6B@ ; CDynamicPoolEx<NEffectUpdateDecorator::CNullDecorator> `RTTI Type Descriptor'
	DD	00H
	DB	'.?AV?$CDynamicPoolEx@VCNullDecorator@NEffectUpdateDecora'
	DB	'tor@@@@', 00H
data$rs	ENDS
;	COMDAT ??_R4?$CDynamicPoolEx@VCNullDecorator@NEffectUpdateDecorator@@@@6B@
rdata$r	SEGMENT
??_R4?$CDynamicPoolEx@VCNullDecorator@NEffectUpdateDecorator@@@@6B@ DD 00H ; CDynamicPoolEx<NEffectUpdateDecorator::CNullDecorator>::`RTTI Complete Object Locator'
	DD	00H
	DD	00H
	DD	FLAT:??_R0?AV?$CDynamicPoolEx@VCNullDecorator@NEffectUpdateDecorator@@@@@8
	DD	FLAT:??_R3?$CDynamicPoolEx@VCNullDecorator@NEffectUpdateDecorator@@@@8
rdata$r	ENDS
;	COMDAT ??_R1A@?0A@EA@?$CDynamicPoolEx@VCHeaderDecorator@NEffectUpdateDecorator@@@@8
rdata$r	SEGMENT
??_R1A@?0A@EA@?$CDynamicPoolEx@VCHeaderDecorator@NEffectUpdateDecorator@@@@8 DD FLAT:??_R0?AV?$CDynamicPoolEx@VCHeaderDecorator@NEffectUpdateDecorator@@@@@8 ; CDynamicPoolEx<NEffectUpdateDecorator::CHeaderDecorator>::`RTTI Base Class Descriptor at (0,-1,0,64)'
	DD	00H
	DD	00H
	DD	0ffffffffH
	DD	00H
	DD	040H
	DD	FLAT:??_R3?$CDynamicPoolEx@VCHeaderDecorator@NEffectUpdateDecorator@@@@8
rdata$r	ENDS
;	COMDAT ??_R2?$CDynamicPoolEx@VCHeaderDecorator@NEffectUpdateDecorator@@@@8
rdata$r	SEGMENT
??_R2?$CDynamicPoolEx@VCHeaderDecorator@NEffectUpdateDecorator@@@@8 DD FLAT:??_R1A@?0A@EA@?$CDynamicPoolEx@VCHeaderDecorator@NEffectUpdateDecorator@@@@8 ; CDynamicPoolEx<NEffectUpdateDecorator::CHeaderDecorator>::`RTTI Base Class Array'
rdata$r	ENDS
;	COMDAT ??_R3?$CDynamicPoolEx@VCHeaderDecorator@NEffectUpdateDecorator@@@@8
rdata$r	SEGMENT
??_R3?$CDynamicPoolEx@VCHeaderDecorator@NEffectUpdateDecorator@@@@8 DD 00H ; CDynamicPoolEx<NEffectUpdateDecorator::CHeaderDecorator>::`RTTI Class Hierarchy Descriptor'
	DD	00H
	DD	01H
	DD	FLAT:??_R2?$CDynamicPoolEx@VCHeaderDecorator@NEffectUpdateDecorator@@@@8
rdata$r	ENDS
;	COMDAT ??_R0?AV?$CDynamicPoolEx@VCHeaderDecorator@NEffectUpdateDecorator@@@@@8
data$rs	SEGMENT
??_R0?AV?$CDynamicPoolEx@VCHeaderDecorator@NEffectUpdateDecorator@@@@@8 DD FLAT:??_7type_info@@6B@ ; CDynamicPoolEx<NEffectUpdateDecorator::CHeaderDecorator> `RTTI Type Descriptor'
	DD	00H
	DB	'.?AV?$CDynamicPoolEx@VCHeaderDecorator@NEffectUpdateDeco'
	DB	'rator@@@@', 00H
data$rs	ENDS
;	COMDAT ??_R4?$CDynamicPoolEx@VCHeaderDecorator@NEffectUpdateDecorator@@@@6B@
rdata$r	SEGMENT
??_R4?$CDynamicPoolEx@VCHeaderDecorator@NEffectUpdateDecorator@@@@6B@ DD 00H ; CDynamicPoolEx<NEffectUpdateDecorator::CHeaderDecorator>::`RTTI Complete Object Locator'
	DD	00H
	DD	00H
	DD	FLAT:??_R0?AV?$CDynamicPoolEx@VCHeaderDecorator@NEffectUpdateDecorator@@@@@8
	DD	FLAT:??_R3?$CDynamicPoolEx@VCHeaderDecorator@NEffectUpdateDecorator@@@@8
rdata$r	ENDS
;	COMDAT ??_7?$CDynamicPoolEx@VCGravityDecorator@NEffectUpdateDecorator@@@@6B@
CONST	SEGMENT
??_7?$CDynamicPoolEx@VCGravityDecorator@NEffectUpdateDecorator@@@@6B@ DD FLAT:??_R4?$CDynamicPoolEx@VCGravityDecorator@NEffectUpdateDecorator@@@@6B@ ; CDynamicPoolEx<NEffectUpdateDecorator::CGravityDecorator>::`vftable'
	DD	FLAT:??_E?$CDynamicPoolEx@VCGravityDecorator@NEffectUpdateDecorator@@@@UAEPAXI@Z
CONST	ENDS
;	COMDAT ??_7?$CDynamicPoolEx@VCRotationDecorator@NEffectUpdateDecorator@@@@6B@
CONST	SEGMENT
??_7?$CDynamicPoolEx@VCRotationDecorator@NEffectUpdateDecorator@@@@6B@ DD FLAT:??_R4?$CDynamicPoolEx@VCRotationDecorator@NEffectUpdateDecorator@@@@6B@ ; CDynamicPoolEx<NEffectUpdateDecorator::CRotationDecorator>::`vftable'
	DD	FLAT:??_E?$CDynamicPoolEx@VCRotationDecorator@NEffectUpdateDecorator@@@@UAEPAXI@Z
CONST	ENDS
PUBLIC	??_H@YGXPAXIIP6EPAX0@Z@Z			; `vector constructor iterator'
PUBLIC	?__empty_global_delete@@YAXPAX@Z		; __empty_global_delete
PUBLIC	?__empty_global_delete@@YAXPAXI@Z		; __empty_global_delete
PUBLIC	___local_stdio_printf_options
PUBLIC	_sprintf
PUBLIC	??0exception@std@@QAE@ABV01@@Z			; std::exception::exception
PUBLIC	??1exception@std@@UAE@XZ			; std::exception::~exception
PUBLIC	?what@exception@std@@UBEPBDXZ			; std::exception::what
PUBLIC	??_Gexception@std@@UAEPAXI@Z			; std::exception::`scalar deleting destructor'
PUBLIC	??0bad_alloc@std@@QAE@ABV01@@Z			; std::bad_alloc::bad_alloc
PUBLIC	??_Gbad_alloc@std@@UAEPAXI@Z			; std::bad_alloc::`scalar deleting destructor'
PUBLIC	??0bad_array_new_length@std@@QAE@XZ		; std::bad_array_new_length::bad_array_new_length
PUBLIC	??1bad_array_new_length@std@@UAE@XZ		; std::bad_array_new_length::~bad_array_new_length
PUBLIC	??0bad_array_new_length@std@@QAE@ABV01@@Z	; std::bad_array_new_length::bad_array_new_length
PUBLIC	??_Gbad_array_new_length@std@@UAEPAXI@Z		; std::bad_array_new_length::`scalar deleting destructor'
PUBLIC	?_Throw_bad_array_new_length@std@@YAXXZ		; std::_Throw_bad_array_new_length
PUBLIC	?_Xlen_string@std@@YAXXZ			; std::_Xlen_string
PUBLIC	?append@?$basic_string@DU?$char_traits@D@std@@V?$allocator@D@2@@std@@QAEAAV12@QBD@Z ; std::basic_string<char,std::char_traits<char>,std::allocator<char> >::append
PUBLIC	?_Throw_tree_length_error@std@@YAXXZ		; std::_Throw_tree_length_error
PUBLIC	??$_Construct_in_place@PADABQAD@std@@YAXAAPADABQAD@Z ; std::_Construct_in_place<char *,char * const &>
PUBLIC	??$_Deallocate@$07$0A@@std@@YAXPAXI@Z		; std::_Deallocate<8,0>
PUBLIC	??$_Allocate@$07U_Default_allocate_traits@std@@$0A@@std@@YAPAXI@Z ; std::_Allocate<8,std::_Default_allocate_traits,0>
PUBLIC	??$_Allocate_manually_vector_aligned@U_Default_allocate_traits@std@@@std@@YAPAXI@Z ; std::_Allocate_manually_vector_aligned<std::_Default_allocate_traits>
PUBLIC	??1?$TAbstractSingleton@VIAbstractCharacterManager@@@@UAE@XZ ; TAbstractSingleton<IAbstractCharacterManager>::~TAbstractSingleton<IAbstractCharacterManager>
PUBLIC	??_G?$TAbstractSingleton@VIAbstractCharacterManager@@@@UAEPAXI@Z ; TAbstractSingleton<IAbstractCharacterManager>::`scalar deleting destructor'
PUBLIC	??1IAbstractCharacterManager@@UAE@XZ		; IAbstractCharacterManager::~IAbstractCharacterManager
PUBLIC	??_GIAbstractCharacterManager@@UAEPAXI@Z	; IAbstractCharacterManager::`scalar deleting destructor'
PUBLIC	??1IObjectManager@@UAE@XZ			; IObjectManager::~IObjectManager
PUBLIC	??_GIObjectManager@@UAEPAXI@Z			; IObjectManager::`scalar deleting destructor'
PUBLIC	??1?$CSingleton@VCPythonCharacterManager@@@@UAE@XZ ; CSingleton<CPythonCharacterManager>::~CSingleton<CPythonCharacterManager>
PUBLIC	??_G?$CSingleton@VCPythonCharacterManager@@@@UAEPAXI@Z ; CSingleton<CPythonCharacterManager>::`scalar deleting destructor'
PUBLIC	??0CPythonCharacterManager@@QAE@XZ		; CPythonCharacterManager::CPythonCharacterManager
PUBLIC	??1CPythonCharacterManager@@UAE@XZ		; CPythonCharacterManager::~CPythonCharacterManager
PUBLIC	?AdjustCollisionWithOtherObjects@CPythonCharacterManager@@UAEXPAVCActorInstance@@@Z ; CPythonCharacterManager::AdjustCollisionWithOtherObjects
PUBLIC	?EnableSortRendering@CPythonCharacterManager@@QAEX_N@Z ; CPythonCharacterManager::EnableSortRendering
PUBLIC	?IsRegisteredVID@CPythonCharacterManager@@QAE_NK@Z ; CPythonCharacterManager::IsRegisteredVID
PUBLIC	?IsAliveVID@CPythonCharacterManager@@QAE_NK@Z	; CPythonCharacterManager::IsAliveVID
PUBLIC	?IsDeadVID@CPythonCharacterManager@@QAE_NK@Z	; CPythonCharacterManager::IsDeadVID
PUBLIC	?IsCacheMode@CPythonCharacterManager@@QAE_NXZ	; CPythonCharacterManager::IsCacheMode
PUBLIC	?OLD_GetPickedInstanceVID@CPythonCharacterManager@@QAE_NPAK@Z ; CPythonCharacterManager::OLD_GetPickedInstanceVID
PUBLIC	?OLD_GetPickedInstancePtr@CPythonCharacterManager@@QAEPAVCInstanceBase@@XZ ; CPythonCharacterManager::OLD_GetPickedInstancePtr
PUBLIC	?OLD_GetPickedInstPosReference@CPythonCharacterManager@@QAEAAUD3DXVECTOR2@@XZ ; CPythonCharacterManager::OLD_GetPickedInstPosReference
PUBLIC	?FindClickableInstancePtr@CPythonCharacterManager@@QAEPAVCInstanceBase@@XZ ; CPythonCharacterManager::FindClickableInstancePtr
PUBLIC	?InsertPVPKey@CPythonCharacterManager@@QAEXKK@Z	; CPythonCharacterManager::InsertPVPKey
PUBLIC	?RemovePVPKey@CPythonCharacterManager@@QAEXKK@Z	; CPythonCharacterManager::RemovePVPKey
PUBLIC	?ChangeGVG@CPythonCharacterManager@@QAEXKK@Z	; CPythonCharacterManager::ChangeGVG
PUBLIC	?GetInfo@CPythonCharacterManager@@QAEXPAV?$basic_string@DU?$char_traits@D@std@@V?$allocator@D@2@@std@@@Z ; CPythonCharacterManager::GetInfo
PUBLIC	?ClearMainInstance@CPythonCharacterManager@@QAEXXZ ; CPythonCharacterManager::ClearMainInstance
PUBLIC	?SetMainInstance@CPythonCharacterManager@@QAE_NK@Z ; CPythonCharacterManager::SetMainInstance
PUBLIC	?GetMainInstancePtr@CPythonCharacterManager@@QAEPAVCInstanceBase@@XZ ; CPythonCharacterManager::GetMainInstancePtr
PUBLIC	?ShowPointEffect@CPythonCharacterManager@@QAEXKK@Z ; CPythonCharacterManager::ShowPointEffect
PUBLIC	?RegisterPointEffect@CPythonCharacterManager@@QAE_NKPBD@Z ; CPythonCharacterManager::RegisterPointEffect
PUBLIC	?Destroy@CPythonCharacterManager@@UAEXXZ	; CPythonCharacterManager::Destroy
PUBLIC	?DeleteAllInstances@CPythonCharacterManager@@QAEXXZ ; CPythonCharacterManager::DeleteAllInstances
PUBLIC	?Update@CPythonCharacterManager@@QAEXXZ		; CPythonCharacterManager::Update
PUBLIC	?Deform@CPythonCharacterManager@@QAEXXZ		; CPythonCharacterManager::Deform
PUBLIC	?Render@CPythonCharacterManager@@QAEXXZ		; CPythonCharacterManager::Render
PUBLIC	?RenderShadowMainInstance@CPythonCharacterManager@@QAEXXZ ; CPythonCharacterManager::RenderShadowMainInstance
PUBLIC	?RenderShadowAllInstances@CPythonCharacterManager@@QAEXXZ ; CPythonCharacterManager::RenderShadowAllInstances
PUBLIC	?RenderCollision@CPythonCharacterManager@@QAEXXZ ; CPythonCharacterManager::RenderCollision
PUBLIC	?CreateInstance@CPythonCharacterManager@@QAEPAVCInstanceBase@@ABUSCreateData@2@@Z ; CPythonCharacterManager::CreateInstance
PUBLIC	?RegisterInstance@CPythonCharacterManager@@QAEPAVCInstanceBase@@K@Z ; CPythonCharacterManager::RegisterInstance
PUBLIC	?DeleteInstance@CPythonCharacterManager@@QAEXK@Z ; CPythonCharacterManager::DeleteInstance
PUBLIC	?DeleteInstanceByFade@CPythonCharacterManager@@QAEXK@Z ; CPythonCharacterManager::DeleteInstanceByFade
PUBLIC	?DestroyAliveInstanceMap@CPythonCharacterManager@@QAEXXZ ; CPythonCharacterManager::DestroyAliveInstanceMap
PUBLIC	?DestroyDeadInstanceList@CPythonCharacterManager@@QAEXXZ ; CPythonCharacterManager::DestroyDeadInstanceList
PUBLIC	?SelectInstance@CPythonCharacterManager@@QAEXK@Z ; CPythonCharacterManager::SelectInstance
PUBLIC	?GetSelectedInstancePtr@CPythonCharacterManager@@QAEPAVCInstanceBase@@XZ ; CPythonCharacterManager::GetSelectedInstancePtr
PUBLIC	?GetInstancePtr@CPythonCharacterManager@@UAEPAVCInstanceBase@@K@Z ; CPythonCharacterManager::GetInstancePtr
PUBLIC	?GetInstancePtrByName@CPythonCharacterManager@@QAEPAVCInstanceBase@@PBD@Z ; CPythonCharacterManager::GetInstancePtrByName
PUBLIC	?PickAll@CPythonCharacterManager@@QAEHXZ	; CPythonCharacterManager::PickAll
PUBLIC	?GetCloseInstance@CPythonCharacterManager@@QAEPAVCInstanceBase@@PAV2@@Z ; CPythonCharacterManager::GetCloseInstance
PUBLIC	?RefreshAllPCTextTail@CPythonCharacterManager@@QAEXXZ ; CPythonCharacterManager::RefreshAllPCTextTail
PUBLIC	?RefreshAllGuildMark@CPythonCharacterManager@@QAEXXZ ; CPythonCharacterManager::RefreshAllGuildMark
PUBLIC	?UpdateTransform@CPythonCharacterManager@@IAEXXZ ; CPythonCharacterManager::UpdateTransform
PUBLIC	?UpdateDeleting@CPythonCharacterManager@@IAEXXZ	; CPythonCharacterManager::UpdateDeleting
PUBLIC	?__Initialize@CPythonCharacterManager@@IAEXXZ	; CPythonCharacterManager::__Initialize
PUBLIC	?__DeleteBlendOutInstance@CPythonCharacterManager@@IAEXPAVCInstanceBase@@@Z ; CPythonCharacterManager::__DeleteBlendOutInstance
PUBLIC	?__OLD_Pick@CPythonCharacterManager@@IAEXXZ	; CPythonCharacterManager::__OLD_Pick
PUBLIC	?__NEW_Pick@CPythonCharacterManager@@IAEXXZ	; CPythonCharacterManager::__NEW_Pick
PUBLIC	?__UpdateSortPickedActorList@CPythonCharacterManager@@IAEXXZ ; CPythonCharacterManager::__UpdateSortPickedActorList
PUBLIC	?__UpdatePickedActorList@CPythonCharacterManager@@IAEXXZ ; CPythonCharacterManager::__UpdatePickedActorList
PUBLIC	?__SortPickedActorList@CPythonCharacterManager@@IAEXXZ ; CPythonCharacterManager::__SortPickedActorList
PUBLIC	?__RenderSortedAliveActorList@CPythonCharacterManager@@IAEXXZ ; CPythonCharacterManager::__RenderSortedAliveActorList
PUBLIC	?__RenderSortedDeadActorList@CPythonCharacterManager@@IAEXXZ ; CPythonCharacterManager::__RenderSortedDeadActorList
PUBLIC	??1?$_Tree@V?$_Tmap_traits@KPAVCInstanceBase@@U?$less@K@std@@V?$allocator@U?$pair@$$CBKPAVCInstanceBase@@@std@@@3@$0A@@std@@@std@@QAE@XZ ; std::_Tree<std::_Tmap_traits<unsigned long,CInstanceBase *,std::less<unsigned long>,std::allocator<std::pair<unsigned long const ,CInstanceBase *> >,0> >::~_Tree<std::_Tmap_traits<unsigned long,CInstanceBase *,std::less<unsigned long>,std::allocator<std::pair<unsigned long const ,CInstanceBase *> >,0> >
PUBLIC	?_Lrotate@?$_Tree_val@U?$_Tree_simple_types@U?$pair@$$CBKPAVCInstanceBase@@@std@@@std@@@std@@QAEXPAU?$_Tree_node@U?$pair@$$CBKPAVCInstanceBase@@@std@@PAX@2@@Z ; std::_Tree_val<std::_Tree_simple_types<std::pair<unsigned long const ,CInstanceBase *> > >::_Lrotate
PUBLIC	?_Rrotate@?$_Tree_val@U?$_Tree_simple_types@U?$pair@$$CBKPAVCInstanceBase@@@std@@@std@@@std@@QAEXPAU?$_Tree_node@U?$pair@$$CBKPAVCInstanceBase@@@std@@PAX@2@@Z ; std::_Tree_val<std::_Tree_simple_types<std::pair<unsigned long const ,CInstanceBase *> > >::_Rrotate
PUBLIC	?_Extract@?$_Tree_val@U?$_Tree_simple_types@U?$pair@$$CBKPAVCInstanceBase@@@std@@@std@@@std@@QAEPAU?$_Tree_node@U?$pair@$$CBKPAVCInstanceBase@@@std@@PAX@2@V?$_Tree_unchecked_const_iterator@V?$_Tree_val@U?$_Tree_simple_types@U?$pair@$$CBKPAVCInstanceBase@@@std@@@std@@@std@@U_Iterator_base0@2@@2@@Z ; std::_Tree_val<std::_Tree_simple_types<std::pair<unsigned long const ,CInstanceBase *> > >::_Extract
PUBLIC	?_Insert_node@?$_Tree_val@U?$_Tree_simple_types@U?$pair@$$CBKPAVCInstanceBase@@@std@@@std@@@std@@QAEPAU?$_Tree_node@U?$pair@$$CBKPAVCInstanceBase@@@std@@PAX@2@U?$_Tree_id@PAU?$_Tree_node@U?$pair@$$CBKPAVCInstanceBase@@@std@@PAX@std@@@2@QAU32@@Z ; std::_Tree_val<std::_Tree_simple_types<std::pair<unsigned long const ,CInstanceBase *> > >::_Insert_node
PUBLIC	??1?$map@KPAVCInstanceBase@@U?$less@K@std@@V?$allocator@U?$pair@$$CBKPAVCInstanceBase@@@std@@@3@@std@@QAE@XZ ; std::map<unsigned long,CInstanceBase *,std::less<unsigned long>,std::allocator<std::pair<unsigned long const ,CInstanceBase *> > >::~map<unsigned long,CInstanceBase *,std::less<unsigned long>,std::allocator<std::pair<unsigned long const ,CInstanceBase *> > >
PUBLIC	?_Xlength@?$vector@PAVCInstanceBase@@V?$allocator@PAVCInstanceBase@@@std@@@std@@CAXXZ ; std::vector<CInstanceBase *,std::allocator<CInstanceBase *> >::_Xlength
PUBLIC	??E?$_Tree_unchecked_const_iterator@V?$_Tree_val@U?$_Tree_simple_types@U?$pair@$$CBKPAVCInstanceBase@@@std@@@std@@@std@@U_Iterator_base0@2@@std@@QAEAAV01@XZ ; std::_Tree_unchecked_const_iterator<std::_Tree_val<std::_Tree_simple_types<std::pair<unsigned long const ,CInstanceBase *> > >,std::_Iterator_base0>::operator++
PUBLIC	??_GCPythonCharacterManager@@UAEPAXI@Z		; CPythonCharacterManager::`scalar deleting destructor'
PUBLIC	??$_Emplace_reallocate@ABQAVCInstanceBase@@@?$vector@PAVCInstanceBase@@V?$allocator@PAVCInstanceBase@@@std@@@std@@QAEPAPAVCInstanceBase@@QAPAV2@ABQAV2@@Z ; std::vector<CInstanceBase *,std::allocator<CInstanceBase *> >::_Emplace_reallocate<CInstanceBase * const &>
PUBLIC	??$_Erase_tree@V?$allocator@U?$_Tree_node@U?$pair@$$CBKPAVCInstanceBase@@@std@@PAX@std@@@std@@@?$_Tree_val@U?$_Tree_simple_types@U?$pair@$$CBKPAVCInstanceBase@@@std@@@std@@@std@@QAEXAAV?$allocator@U?$_Tree_node@U?$pair@$$CBKPAVCInstanceBase@@@std@@PAX@std@@@1@PAU?$_Tree_node@U?$pair@$$CBKPAVCInstanceBase@@@std@@PAX@1@@Z ; std::_Tree_val<std::_Tree_simple_types<std::pair<unsigned long const ,CInstanceBase *> > >::_Erase_tree<std::allocator<std::_Tree_node<std::pair<unsigned long const ,CInstanceBase *>,void *> > >
PUBLIC	??1?$CDynamicPoolEx@VCRotationDecorator@NEffectUpdateDecorator@@@@UAE@XZ ; CDynamicPoolEx<NEffectUpdateDecorator::CRotationDecorator>::~CDynamicPoolEx<NEffectUpdateDecorator::CRotationDecorator>
PUBLIC	?Delete@?$CDynamicPoolEx@VCRotationDecorator@NEffectUpdateDecorator@@@@KAXPAVCRotationDecorator@NEffectUpdateDecorator@@@Z ; CDynamicPoolEx<NEffectUpdateDecorator::CRotationDecorator>::Delete
PUBLIC	??1?$CDynamicPoolEx@VCGravityDecorator@NEffectUpdateDecorator@@@@UAE@XZ ; CDynamicPoolEx<NEffectUpdateDecorator::CGravityDecorator>::~CDynamicPoolEx<NEffectUpdateDecorator::CGravityDecorator>
PUBLIC	?Delete@?$CDynamicPoolEx@VCGravityDecorator@NEffectUpdateDecorator@@@@KAXPAVCGravityDecorator@NEffectUpdateDecorator@@@Z ; CDynamicPoolEx<NEffectUpdateDecorator::CGravityDecorator>::Delete
PUBLIC	??1?$CDynamicPoolEx@VCAirResistanceDecorator@NEffectUpdateDecorator@@@@UAE@XZ ; CDynamicPoolEx<NEffectUpdateDecorator::CAirResistanceDecorator>::~CDynamicPoolEx<NEffectUpdateDecorator::CAirResistanceDecorator>
PUBLIC	?Delete@?$CDynamicPoolEx@VCAirResistanceDecorator@NEffectUpdateDecorator@@@@KAXPAVCAirResistanceDecorator@NEffectUpdateDecorator@@@Z ; CDynamicPoolEx<NEffectUpdateDecorator::CAirResistanceDecorator>::Delete
PUBLIC	??1?$CDynamicPoolEx@VCTextureAnimationRandomDecorator@NEffectUpdateDecorator@@@@UAE@XZ ; CDynamicPoolEx<NEffectUpdateDecorator::CTextureAnimationRandomDecorator>::~CDynamicPoolEx<NEffectUpdateDecorator::CTextureAnimationRandomDecorator>
PUBLIC	?Delete@?$CDynamicPoolEx@VCTextureAnimationRandomDecorator@NEffectUpdateDecorator@@@@KAXPAVCTextureAnimationRandomDecorator@NEffectUpdateDecorator@@@Z ; CDynamicPoolEx<NEffectUpdateDecorator::CTextureAnimationRandomDecorator>::Delete
PUBLIC	??1?$CDynamicPoolEx@VCTextureAnimationCCWDecorator@NEffectUpdateDecorator@@@@UAE@XZ ; CDynamicPoolEx<NEffectUpdateDecorator::CTextureAnimationCCWDecorator>::~CDynamicPoolEx<NEffectUpdateDecorator::CTextureAnimationCCWDecorator>
PUBLIC	?Delete@?$CDynamicPoolEx@VCTextureAnimationCCWDecorator@NEffectUpdateDecorator@@@@KAXPAVCTextureAnimationCCWDecorator@NEffectUpdateDecorator@@@Z ; CDynamicPoolEx<NEffectUpdateDecorator::CTextureAnimationCCWDecorator>::Delete
PUBLIC	??1?$CDynamicPoolEx@VCTextureAnimationCWDecorator@NEffectUpdateDecorator@@@@UAE@XZ ; CDynamicPoolEx<NEffectUpdateDecorator::CTextureAnimationCWDecorator>::~CDynamicPoolEx<NEffectUpdateDecorator::CTextureAnimationCWDecorator>
PUBLIC	?Delete@?$CDynamicPoolEx@VCTextureAnimationCWDecorator@NEffectUpdateDecorator@@@@KAXPAVCTextureAnimationCWDecorator@NEffectUpdateDecorator@@@Z ; CDynamicPoolEx<NEffectUpdateDecorator::CTextureAnimationCWDecorator>::Delete
PUBLIC	??1?$CDynamicPoolEx@VCNullDecorator@NEffectUpdateDecorator@@@@UAE@XZ ; CDynamicPoolEx<NEffectUpdateDecorator::CNullDecorator>::~CDynamicPoolEx<NEffectUpdateDecorator::CNullDecorator>
PUBLIC	?Delete@?$CDynamicPoolEx@VCNullDecorator@NEffectUpdateDecorator@@@@KAXPAVCNullDecorator@NEffectUpdateDecorator@@@Z ; CDynamicPoolEx<NEffectUpdateDecorator::CNullDecorator>::Delete
PUBLIC	??1?$CDynamicPoolEx@VCHeaderDecorator@NEffectUpdateDecorator@@@@UAE@XZ ; CDynamicPoolEx<NEffectUpdateDecorator::CHeaderDecorator>::~CDynamicPoolEx<NEffectUpdateDecorator::CHeaderDecorator>
PUBLIC	?Delete@?$CDynamicPoolEx@VCHeaderDecorator@NEffectUpdateDecorator@@@@KAXPAVCHeaderDecorator@NEffectUpdateDecorator@@@Z ; CDynamicPoolEx<NEffectUpdateDecorator::CHeaderDecorator>::Delete
PUBLIC	??$_Destroy_range@V?$allocator@PAVCInstanceBase@@@std@@@std@@YAXPAPAVCInstanceBase@@QAPAV1@AAV?$allocator@PAVCInstanceBase@@@0@@Z ; std::_Destroy_range<std::allocator<CInstanceBase *> >
PUBLIC	??$_Construct_in_place@PAU?$_List_node@PAVCInstanceBase@@PAX@std@@AAPAU12@@std@@YAXAAPAU?$_List_node@PAVCInstanceBase@@PAX@0@0@Z ; std::_Construct_in_place<std::_List_node<CInstanceBase *,void *> *,std::_List_node<CInstanceBase *,void *> * &>
PUBLIC	??$_Destroy_range@V?$allocator@PAVCHeaderDecorator@NEffectUpdateDecorator@@@std@@@std@@YAXPAPAVCHeaderDecorator@NEffectUpdateDecorator@@QAPAV12@AAV?$allocator@PAVCHeaderDecorator@NEffectUpdateDecorator@@@0@@Z ; std::_Destroy_range<std::allocator<NEffectUpdateDecorator::CHeaderDecorator *> >
PUBLIC	??$_Destroy_range@V?$allocator@PAVCNullDecorator@NEffectUpdateDecorator@@@std@@@std@@YAXPAPAVCNullDecorator@NEffectUpdateDecorator@@QAPAV12@AAV?$allocator@PAVCNullDecorator@NEffectUpdateDecorator@@@0@@Z ; std::_Destroy_range<std::allocator<NEffectUpdateDecorator::CNullDecorator *> >
PUBLIC	??$_Destroy_range@V?$allocator@PAVCTextureAnimationCWDecorator@NEffectUpdateDecorator@@@std@@@std@@YAXPAPAVCTextureAnimationCWDecorator@NEffectUpdateDecorator@@QAPAV12@AAV?$allocator@PAVCTextureAnimationCWDecorator@NEffectUpdateDecorator@@@0@@Z ; std::_Destroy_range<std::allocator<NEffectUpdateDecorator::CTextureAnimationCWDecorator *> >
PUBLIC	??$_Destroy_range@V?$allocator@PAVCTextureAnimationCCWDecorator@NEffectUpdateDecorator@@@std@@@std@@YAXPAPAVCTextureAnimationCCWDecorator@NEffectUpdateDecorator@@QAPAV12@AAV?$allocator@PAVCTextureAnimationCCWDecorator@NEffectUpdateDecorator@@@0@@Z ; std::_Destroy_range<std::allocator<NEffectUpdateDecorator::CTextureAnimationCCWDecorator *> >
PUBLIC	??$_Destroy_range@V?$allocator@PAVCTextureAnimationRandomDecorator@NEffectUpdateDecorator@@@std@@@std@@YAXPAPAVCTextureAnimationRandomDecorator@NEffectUpdateDecorator@@QAPAV12@AAV?$allocator@PAVCTextureAnimationRandomDecorator@NEffectUpdateDecorator@@@0@@Z ; std::_Destroy_range<std::allocator<NEffectUpdateDecorator::CTextureAnimationRandomDecorator *> >
PUBLIC	??$_Destroy_range@V?$allocator@PAVCAirResistanceDecorator@NEffectUpdateDecorator@@@std@@@std@@YAXPAPAVCAirResistanceDecorator@NEffectUpdateDecorator@@QAPAV12@AAV?$allocator@PAVCAirResistanceDecorator@NEffectUpdateDecorator@@@0@@Z ; std::_Destroy_range<std::allocator<NEffectUpdateDecorator::CAirResistanceDecorator *> >
PUBLIC	??$_Destroy_range@V?$allocator@PAVCGravityDecorator@NEffectUpdateDecorator@@@std@@@std@@YAXPAPAVCGravityDecorator@NEffectUpdateDecorator@@QAPAV12@AAV?$allocator@PAVCGravityDecorator@NEffectUpdateDecorator@@@0@@Z ; std::_Destroy_range<std::allocator<NEffectUpdateDecorator::CGravityDecorator *> >
PUBLIC	??$_Destroy_range@V?$allocator@PAVCRotationDecorator@NEffectUpdateDecorator@@@std@@@std@@YAXPAPAVCRotationDecorator@NEffectUpdateDecorator@@QAPAV12@AAV?$allocator@PAVCRotationDecorator@NEffectUpdateDecorator@@@0@@Z ; std::_Destroy_range<std::allocator<NEffectUpdateDecorator::CRotationDecorator *> >
PUBLIC	??$_Sort_unchecked@PAPAVCInstanceBase@@ULessCharacterInstancePtrRenderOrder@@@std@@YAXPAPAVCInstanceBase@@0HULessCharacterInstancePtrRenderOrder@@@Z ; std::_Sort_unchecked<CInstanceBase * *,LessCharacterInstancePtrRenderOrder>
PUBLIC	??$_Sort_unchecked@PAPAVCInstanceBase@@U?$_Ref_fn@UCInstanceBase_SLessCameraDistance@@@std@@@std@@YAXPAPAVCInstanceBase@@0HU?$_Ref_fn@UCInstanceBase_SLessCameraDistance@@@0@@Z ; std::_Sort_unchecked<CInstanceBase * *,std::_Ref_fn<CInstanceBase_SLessCameraDistance> >
PUBLIC	??1?$_Alloc_construct_ptr@V?$allocator@U?$_List_node@PAVCInstanceBase@@PAX@std@@@std@@@std@@QAE@XZ ; std::_Alloc_construct_ptr<std::allocator<std::_List_node<CInstanceBase *,void *> > >::~_Alloc_construct_ptr<std::allocator<std::_List_node<CInstanceBase *,void *> > >
PUBLIC	??$_Find_lower_bound@K@?$_Tree@V?$_Tmap_traits@KPAVCInstanceBase@@U?$less@K@std@@V?$allocator@U?$pair@$$CBKPAVCInstanceBase@@@std@@@3@$0A@@std@@@std@@IBE?AU?$_Tree_find_result@PAU?$_Tree_node@U?$pair@$$CBKPAVCInstanceBase@@@std@@PAX@std@@@1@ABK@Z ; std::_Tree<std::_Tmap_traits<unsigned long,CInstanceBase *,std::less<unsigned long>,std::allocator<std::pair<unsigned long const ,CInstanceBase *> >,0> >::_Find_lower_bound<unsigned long>
PUBLIC	??$_Destroy_in_place@PAU?$_List_node@PAVCInstanceBase@@PAX@std@@@std@@YAXAAPAU?$_List_node@PAVCInstanceBase@@PAX@0@@Z ; std::_Destroy_in_place<std::_List_node<CInstanceBase *,void *> *>
PUBLIC	??$_Construct_in_place@PAU?$_Tree_node@U?$pair@$$CBKPAVCInstanceBase@@@std@@PAX@std@@ABQAU12@@std@@YAXAAPAU?$_Tree_node@U?$pair@$$CBKPAVCInstanceBase@@@std@@PAX@0@ABQAU10@@Z ; std::_Construct_in_place<std::_Tree_node<std::pair<unsigned long const ,CInstanceBase *>,void *> *,std::_Tree_node<std::pair<unsigned long const ,CInstanceBase *>,void *> * const &>
PUBLIC	??$_Construct_in_place@PAU?$_List_node@PAVCInstanceBase@@PAX@std@@ABQAU12@@std@@YAXAAPAU?$_List_node@PAVCInstanceBase@@PAX@0@ABQAU10@@Z ; std::_Construct_in_place<std::_List_node<CInstanceBase *,void *> *,std::_List_node<CInstanceBase *,void *> * const &>
PUBLIC	??$_Uninitialized_move@PAPAVCInstanceBase@@V?$allocator@PAVCInstanceBase@@@std@@@std@@YAPAPAVCInstanceBase@@QAPAV1@0PAPAV1@AAV?$allocator@PAVCInstanceBase@@@0@@Z ; std::_Uninitialized_move<CInstanceBase * *,std::allocator<CInstanceBase *> >
PUBLIC	??$_Partition_by_median_guess_unchecked@PAPAVCInstanceBase@@ULessCharacterInstancePtrRenderOrder@@@std@@YA?AU?$pair@PAPAVCInstanceBase@@PAPAV1@@0@PAPAVCInstanceBase@@0ULessCharacterInstancePtrRenderOrder@@@Z ; std::_Partition_by_median_guess_unchecked<CInstanceBase * *,LessCharacterInstancePtrRenderOrder>
PUBLIC	??1?$_Alloc_construct_ptr@V?$allocator@U?$_Tree_node@U?$pair@$$CBKPAVCInstanceBase@@@std@@PAX@std@@@std@@@std@@QAE@XZ ; std::_Alloc_construct_ptr<std::allocator<std::_Tree_node<std::pair<unsigned long const ,CInstanceBase *>,void *> > >::~_Alloc_construct_ptr<std::allocator<std::_Tree_node<std::pair<unsigned long const ,CInstanceBase *>,void *> > >
PUBLIC	??$_Partition_by_median_guess_unchecked@PAPAVCInstanceBase@@U?$_Ref_fn@UCInstanceBase_SLessCameraDistance@@@std@@@std@@YA?AU?$pair@PAPAVCInstanceBase@@PAPAV1@@0@PAPAVCInstanceBase@@0U?$_Ref_fn@UCInstanceBase_SLessCameraDistance@@@0@@Z ; std::_Partition_by_median_guess_unchecked<CInstanceBase * *,std::_Ref_fn<CInstanceBase_SLessCameraDistance> >
PUBLIC	??$_Destroy_in_place@PAU?$_Tree_node@U?$pair@$$CBKPAVCInstanceBase@@@std@@PAX@std@@@std@@YAXAAPAU?$_Tree_node@U?$pair@$$CBKPAVCInstanceBase@@@std@@PAX@0@@Z ; std::_Destroy_in_place<std::_Tree_node<std::pair<unsigned long const ,CInstanceBase *>,void *> *>
PUBLIC	??$_Copy_memmove@PAPAVCInstanceBase@@PAPAV1@@std@@YAPAPAVCInstanceBase@@PAPAV1@00@Z ; std::_Copy_memmove<CInstanceBase * *,CInstanceBase * *>
PUBLIC	??$_Refancy@PAPAVCInstanceBase@@$0A@@std@@YAPAPAVCInstanceBase@@PAPAV1@@Z ; std::_Refancy<CInstanceBase * *,0>
PUBLIC	??$_Pop_heap_hole_by_index@PAPAVCInstanceBase@@PAV1@ULessCharacterInstancePtrRenderOrder@@@std@@YAXPAPAVCInstanceBase@@HH$$QAPAV1@ULessCharacterInstancePtrRenderOrder@@@Z ; std::_Pop_heap_hole_by_index<CInstanceBase * *,CInstanceBase *,LessCharacterInstancePtrRenderOrder>
PUBLIC	??$_Guess_median_unchecked@PAPAVCInstanceBase@@ULessCharacterInstancePtrRenderOrder@@@std@@YAXPAPAVCInstanceBase@@00ULessCharacterInstancePtrRenderOrder@@@Z ; std::_Guess_median_unchecked<CInstanceBase * *,LessCharacterInstancePtrRenderOrder>
PUBLIC	??$_Construct_in_place@PAU?$_Tree_node@U?$pair@$$CBKPAVCInstanceBase@@@std@@PAX@std@@AAPAU12@@std@@YAXAAPAU?$_Tree_node@U?$pair@$$CBKPAVCInstanceBase@@@std@@PAX@0@0@Z ; std::_Construct_in_place<std::_Tree_node<std::pair<unsigned long const ,CInstanceBase *>,void *> *,std::_Tree_node<std::pair<unsigned long const ,CInstanceBase *>,void *> * &>
PUBLIC	??$_Pop_heap_hole_by_index@PAPAVCInstanceBase@@PAV1@U?$_Ref_fn@UCInstanceBase_SLessCameraDistance@@@std@@@std@@YAXPAPAVCInstanceBase@@HH$$QAPAV1@U?$_Ref_fn@UCInstanceBase_SLessCameraDistance@@@0@@Z ; std::_Pop_heap_hole_by_index<CInstanceBase * *,CInstanceBase *,std::_Ref_fn<CInstanceBase_SLessCameraDistance> >
PUBLIC	??$_Copy_backward_memmove@PAPAVCInstanceBase@@PAPAV1@@std@@YAPAPAVCInstanceBase@@PAPAV1@00@Z ; std::_Copy_backward_memmove<CInstanceBase * *,CInstanceBase * *>
PUBLIC	??$_Med3_unchecked@PAPAVCInstanceBase@@U?$_Ref_fn@UCInstanceBase_SLessCameraDistance@@@std@@@std@@YAXPAPAVCInstanceBase@@00U?$_Ref_fn@UCInstanceBase_SLessCameraDistance@@@0@@Z ; std::_Med3_unchecked<CInstanceBase * *,std::_Ref_fn<CInstanceBase_SLessCameraDistance> >
PUBLIC	??_ECPythonCharacterManager@@W3AEPAXI@Z		; [thunk]:CPythonCharacterManager::`vector deleting destructor'
PUBLIC	??_ECPythonCharacterManager@@W7AEPAXI@Z		; [thunk]:CPythonCharacterManager::`vector deleting destructor'
PUBLIC	?_OptionsStorage@?1??__local_stdio_printf_options@@9@4_KA ; `__local_stdio_printf_options'::`2'::_OptionsStorage
PUBLIC	??_7exception@std@@6B@				; std::exception::`vftable'
PUBLIC	??_C@_0BC@EOODALEL@Unknown?5exception@		; `string'
PUBLIC	??_7bad_alloc@std@@6B@				; std::bad_alloc::`vftable'
PUBLIC	??_7bad_array_new_length@std@@6B@		; std::bad_array_new_length::`vftable'
PUBLIC	??_C@_0BF@KINCDENJ@bad?5array?5new?5length@	; `string'
PUBLIC	__TI3?AVbad_array_new_length@std@@
PUBLIC	__CTA3?AVbad_array_new_length@std@@
PUBLIC	??_R0?AVbad_array_new_length@std@@@8		; std::bad_array_new_length `RTTI Type Descriptor'
PUBLIC	__CT??_R0?AVbad_array_new_length@std@@@8??0bad_array_new_length@std@@QAE@ABV01@@Z12
PUBLIC	??_R0?AVbad_alloc@std@@@8			; std::bad_alloc `RTTI Type Descriptor'
PUBLIC	__CT??_R0?AVbad_alloc@std@@@8??0bad_alloc@std@@QAE@ABV01@@Z12
PUBLIC	??_R0?AVexception@std@@@8			; std::exception `RTTI Type Descriptor'
PUBLIC	__CT??_R0?AVexception@std@@@8??0exception@std@@QAE@ABV01@@Z12
PUBLIC	??_C@_0BA@JFNIOLAK@string?5too?5long@		; `string'
PUBLIC	??_C@_0BB@GCADKGJO@map?1set?5too?5long@		; `string'
PUBLIC	?ms_singleton@?$CSingleton@VCPythonGraphic@@@@0PAVCPythonGraphic@@A ; CSingleton<CPythonGraphic>::ms_singleton
PUBLIC	??_C@_0BA@FOIKENOD@vector?5too?5long@		; `string'
PUBLIC	??_R4exception@std@@6B@				; std::exception::`RTTI Complete Object Locator'
PUBLIC	??_R3exception@std@@8				; std::exception::`RTTI Class Hierarchy Descriptor'
PUBLIC	??_R2exception@std@@8				; std::exception::`RTTI Base Class Array'
PUBLIC	??_R1A@?0A@EA@exception@std@@8			; std::exception::`RTTI Base Class Descriptor at (0,-1,0,64)'
PUBLIC	??_R4bad_alloc@std@@6B@				; std::bad_alloc::`RTTI Complete Object Locator'
PUBLIC	??_R3bad_alloc@std@@8				; std::bad_alloc::`RTTI Class Hierarchy Descriptor'
PUBLIC	??_R2bad_alloc@std@@8				; std::bad_alloc::`RTTI Base Class Array'
PUBLIC	??_R1A@?0A@EA@bad_alloc@std@@8			; std::bad_alloc::`RTTI Base Class Descriptor at (0,-1,0,64)'
PUBLIC	??_R4bad_array_new_length@std@@6B@		; std::bad_array_new_length::`RTTI Complete Object Locator'
PUBLIC	??_R3bad_array_new_length@std@@8		; std::bad_array_new_length::`RTTI Class Hierarchy Descriptor'
PUBLIC	??_R2bad_array_new_length@std@@8		; std::bad_array_new_length::`RTTI Base Class Array'
PUBLIC	??_R1A@?0A@EA@bad_array_new_length@std@@8	; std::bad_array_new_length::`RTTI Base Class Descriptor at (0,-1,0,64)'
PUBLIC	?ms_singleton@?$TAbstractSingleton@VIAbstractCharacterManager@@@@0PAVIAbstractCharacterManager@@A ; TAbstractSingleton<IAbstractCharacterManager>::ms_singleton
PUBLIC	??_7?$TAbstractSingleton@VIAbstractCharacterManager@@@@6B@ ; TAbstractSingleton<IAbstractCharacterManager>::`vftable'
PUBLIC	??_7IAbstractCharacterManager@@6B@		; IAbstractCharacterManager::`vftable'
PUBLIC	?ms_kPool@?$CPooledObject@VCHeaderDecorator@NEffectUpdateDecorator@@@@1V?$CDynamicPoolEx@VCHeaderDecorator@NEffectUpdateDecorator@@@@A ; CPooledObject<NEffectUpdateDecorator::CHeaderDecorator>::ms_kPool
PUBLIC	?ms_kPool@?$CPooledObject@VCNullDecorator@NEffectUpdateDecorator@@@@1V?$CDynamicPoolEx@VCNullDecorator@NEffectUpdateDecorator@@@@A ; CPooledObject<NEffectUpdateDecorator::CNullDecorator>::ms_kPool
PUBLIC	?ms_kPool@?$CPooledObject@VCTextureAnimationCWDecorator@NEffectUpdateDecorator@@@@1V?$CDynamicPoolEx@VCTextureAnimationCWDecorator@NEffectUpdateDecorator@@@@A ; CPooledObject<NEffectUpdateDecorator::CTextureAnimationCWDecorator>::ms_kPool
PUBLIC	?ms_kPool@?$CPooledObject@VCTextureAnimationCCWDecorator@NEffectUpdateDecorator@@@@1V?$CDynamicPoolEx@VCTextureAnimationCCWDecorator@NEffectUpdateDecorator@@@@A ; CPooledObject<NEffectUpdateDecorator::CTextureAnimationCCWDecorator>::ms_kPool
PUBLIC	?ms_kPool@?$CPooledObject@VCTextureAnimationRandomDecorator@NEffectUpdateDecorator@@@@1V?$CDynamicPoolEx@VCTextureAnimationRandomDecorator@NEffectUpdateDecorator@@@@A ; CPooledObject<NEffectUpdateDecorator::CTextureAnimationRandomDecorator>::ms_kPool
PUBLIC	?ms_kPool@?$CPooledObject@VCAirResistanceDecorator@NEffectUpdateDecorator@@@@1V?$CDynamicPoolEx@VCAirResistanceDecorator@NEffectUpdateDecorator@@@@A ; CPooledObject<NEffectUpdateDecorator::CAirResistanceDecorator>::ms_kPool
PUBLIC	?ms_kPool@?$CPooledObject@VCGravityDecorator@NEffectUpdateDecorator@@@@1V?$CDynamicPoolEx@VCGravityDecorator@NEffectUpdateDecorator@@@@A ; CPooledObject<NEffectUpdateDecorator::CGravityDecorator>::ms_kPool
PUBLIC	?ms_kPool@?$CPooledObject@VCRotationDecorator@NEffectUpdateDecorator@@@@1V?$CDynamicPoolEx@VCRotationDecorator@NEffectUpdateDecorator@@@@A ; CPooledObject<NEffectUpdateDecorator::CRotationDecorator>::ms_kPool
PUBLIC	?ms_singleton@?$CSingleton@VCStateManager@@@@0PAVCStateManager@@A ; CSingleton<CStateManager>::ms_singleton
PUBLIC	?ms_singleton@?$CSingleton@VCEffectManager@@@@0PAVCEffectManager@@A ; CSingleton<CEffectManager>::ms_singleton
PUBLIC	??_7IObjectManager@@6B@				; IObjectManager::`vftable'
PUBLIC	?ms_singleton@?$CSingleton@VCPythonCharacterManager@@@@0PAVCPythonCharacterManager@@A ; CSingleton<CPythonCharacterManager>::ms_singleton
PUBLIC	??_7?$CSingleton@VCPythonCharacterManager@@@@6B@ ; CSingleton<CPythonCharacterManager>::`vftable'
PUBLIC	??_7CPythonCharacterManager@@6B?$CSingleton@VCPythonCharacterManager@@@@@ ; CPythonCharacterManager::`vftable'
PUBLIC	??_7CPythonCharacterManager@@6BIAbstractCharacterManager@@@ ; CPythonCharacterManager::`vftable'
PUBLIC	??_7CPythonCharacterManager@@6BIObjectManager@@@ ; CPythonCharacterManager::`vftable'
PUBLIC	?ms_singleton@?$CSingleton@VCPythonBackground@@@@0PAVCPythonBackground@@A ; CSingleton<CPythonBackground>::ms_singleton
PUBLIC	?ms_singleton@?$CSingleton@VCPythonNonPlayer@@@@0PAVCPythonNonPlayer@@A ; CSingleton<CPythonNonPlayer>::ms_singleton
PUBLIC	?ms_singleton@?$TAbstractSingleton@VIAbstractPlayer@@@@0PAVIAbstractPlayer@@A ; TAbstractSingleton<IAbstractPlayer>::ms_singleton
PUBLIC	?ms_singleton@?$CSingleton@VCCameraManager@@@@0PAVCCameraManager@@A ; CSingleton<CCameraManager>::ms_singleton
PUBLIC	??_C@_07DDCLDHCF@Actor?3?5@			; `string'
PUBLIC	??_C@_0BN@MCDFNGBH@Container?5?9?5Live?5?$CFd?0?5Dead?5?$CFd@ ; `string'
PUBLIC	??_C@_0EC@KAFJJKBD@CPythonCharacterManager?3?3Create@ ; `string'
PUBLIC	??_C@_0DJ@DCBIHGAA@CPythonCharacterManager?3?3Create@ ; `string'
PUBLIC	??_C@_0CH@HECKLEJN@DeleteCharacterInstance?3?5no?5vid@ ; `string'
PUBLIC	??_C@_0CH@DINFEOPA@SelectCharacterInstance?3?5no?5vid@ ; `string'
PUBLIC	??_C@_0O@NKNMEGII@list?5too?5long@		; `string'
PUBLIC	??_R4IAbstractCharacterManager@@6B@		; IAbstractCharacterManager::`RTTI Complete Object Locator'
PUBLIC	??_R0?AVIAbstractCharacterManager@@@8		; IAbstractCharacterManager `RTTI Type Descriptor'
PUBLIC	??_R3IAbstractCharacterManager@@8		; IAbstractCharacterManager::`RTTI Class Hierarchy Descriptor'
PUBLIC	??_R2IAbstractCharacterManager@@8		; IAbstractCharacterManager::`RTTI Base Class Array'
PUBLIC	??_R1A@?0A@EA@IAbstractCharacterManager@@8	; IAbstractCharacterManager::`RTTI Base Class Descriptor at (0,-1,0,64)'
PUBLIC	??_R1A@?0A@EA@?$TAbstractSingleton@VIAbstractCharacterManager@@@@8 ; TAbstractSingleton<IAbstractCharacterManager>::`RTTI Base Class Descriptor at (0,-1,0,64)'
PUBLIC	??_R0?AV?$TAbstractSingleton@VIAbstractCharacterManager@@@@@8 ; TAbstractSingleton<IAbstractCharacterManager> `RTTI Type Descriptor'
PUBLIC	??_R3?$TAbstractSingleton@VIAbstractCharacterManager@@@@8 ; TAbstractSingleton<IAbstractCharacterManager>::`RTTI Class Hierarchy Descriptor'
PUBLIC	??_R2?$TAbstractSingleton@VIAbstractCharacterManager@@@@8 ; TAbstractSingleton<IAbstractCharacterManager>::`RTTI Base Class Array'
PUBLIC	??_R4?$TAbstractSingleton@VIAbstractCharacterManager@@@@6B@ ; TAbstractSingleton<IAbstractCharacterManager>::`RTTI Complete Object Locator'
PUBLIC	??_R4IObjectManager@@6B@			; IObjectManager::`RTTI Complete Object Locator'
PUBLIC	??_R0?AVIObjectManager@@@8			; IObjectManager `RTTI Type Descriptor'
PUBLIC	??_R3IObjectManager@@8				; IObjectManager::`RTTI Class Hierarchy Descriptor'
PUBLIC	??_R2IObjectManager@@8				; IObjectManager::`RTTI Base Class Array'
PUBLIC	??_R1A@?0A@EA@IObjectManager@@8			; IObjectManager::`RTTI Base Class Descriptor at (0,-1,0,64)'
PUBLIC	??_R4CPythonCharacterManager@@6B?$CSingleton@VCPythonCharacterManager@@@@@ ; CPythonCharacterManager::`RTTI Complete Object Locator'
PUBLIC	??_R0?AVCPythonCharacterManager@@@8		; CPythonCharacterManager `RTTI Type Descriptor'
PUBLIC	??_R3CPythonCharacterManager@@8			; CPythonCharacterManager::`RTTI Class Hierarchy Descriptor'
PUBLIC	??_R2CPythonCharacterManager@@8			; CPythonCharacterManager::`RTTI Base Class Array'
PUBLIC	??_R1A@?0A@EA@CPythonCharacterManager@@8	; CPythonCharacterManager::`RTTI Base Class Descriptor at (0,-1,0,64)'
PUBLIC	??_R1A@?0A@EA@?$CSingleton@VCPythonCharacterManager@@@@8 ; CSingleton<CPythonCharacterManager>::`RTTI Base Class Descriptor at (0,-1,0,64)'
PUBLIC	??_R0?AV?$CSingleton@VCPythonCharacterManager@@@@@8 ; CSingleton<CPythonCharacterManager> `RTTI Type Descriptor'
PUBLIC	??_R3?$CSingleton@VCPythonCharacterManager@@@@8	; CSingleton<CPythonCharacterManager>::`RTTI Class Hierarchy Descriptor'
PUBLIC	??_R2?$CSingleton@VCPythonCharacterManager@@@@8	; CSingleton<CPythonCharacterManager>::`RTTI Base Class Array'
PUBLIC	??_R13?0A@EA@IAbstractCharacterManager@@8	; IAbstractCharacterManager::`RTTI Base Class Descriptor at (4,-1,0,64)'
PUBLIC	??_R13?0A@EA@?$TAbstractSingleton@VIAbstractCharacterManager@@@@8 ; TAbstractSingleton<IAbstractCharacterManager>::`RTTI Base Class Descriptor at (4,-1,0,64)'
PUBLIC	??_R17?0A@EA@IObjectManager@@8			; IObjectManager::`RTTI Base Class Descriptor at (8,-1,0,64)'
PUBLIC	??_R4CPythonCharacterManager@@6BIAbstractCharacterManager@@@ ; CPythonCharacterManager::`RTTI Complete Object Locator'
PUBLIC	??_R4CPythonCharacterManager@@6BIObjectManager@@@ ; CPythonCharacterManager::`RTTI Complete Object Locator'
PUBLIC	??_R4?$CSingleton@VCPythonCharacterManager@@@@6B@ ; CSingleton<CPythonCharacterManager>::`RTTI Complete Object Locator'
PUBLIC	__real@461c4000
PUBLIC	__xmm@80000000800000008000000080000000
EXTRN	__purecall:PROC
EXTRN	??2@YAPAXI@Z:PROC				; operator new
EXTRN	??3@YAXPAX@Z:PROC				; operator delete
EXTRN	??3@YAXPAXI@Z:PROC				; operator delete
EXTRN	_atexit:PROC
EXTRN	__Init_thread_header:PROC
EXTRN	__Init_thread_footer:PROC
EXTRN	__invalid_parameter_noinfo_noreturn:PROC
EXTRN	___stdio_common_vsprintf:PROC
EXTRN	___std_exception_copy:PROC
EXTRN	___std_exception_destroy:PROC
EXTRN	??_Eexception@std@@UAEPAXI@Z:PROC		; std::exception::`vector deleting destructor'
EXTRN	??_Ebad_alloc@std@@UAEPAXI@Z:PROC		; std::bad_alloc::`vector deleting destructor'
EXTRN	??_Ebad_array_new_length@std@@UAEPAXI@Z:PROC	; std::bad_array_new_length::`vector deleting destructor'
EXTRN	?_Xlength_error@std@@YAXPBD@Z:PROC		; std::_Xlength_error
EXTRN	?Tracef@@YAXPBDZZ:PROC				; Tracef
EXTRN	?TraceError@@YAXPBDZZ:PROC			; TraceError
EXTRN	?ProjectPosition@CScreen@@QAEXMMMPAM0@Z:PROC	; CScreen::ProjectPosition
EXTRN	?GetPosition@CGraphicObjectInstance@@QBEABUD3DXVECTOR3@@XZ:PROC ; CGraphicObjectInstance::GetPosition
EXTRN	??_E?$TAbstractSingleton@VIAbstractCharacterManager@@@@UAEPAXI@Z:PROC ; TAbstractSingleton<IAbstractCharacterManager>::`vector deleting destructor'
EXTRN	??_EIAbstractCharacterManager@@UAEPAXI@Z:PROC	; IAbstractCharacterManager::`vector deleting destructor'
EXTRN	?SetTexture@CStateManager@@QAEXKPAUIDirect3DBaseTexture8@@@Z:PROC ; CStateManager::SetTexture
EXTRN	?SetTextureStageState@CStateManager@@QAEXKW4_D3DTEXTURESTAGESTATETYPE@@K@Z:PROC ; CStateManager::SetTextureStageState
EXTRN	?RegisterEffect2@CEffectManager@@QAEHPBDPAK_N@Z:PROC ; CEffectManager::RegisterEffect2
EXTRN	??_EIObjectManager@@UAEPAXI@Z:PROC		; IObjectManager::`vector deleting destructor'
EXTRN	?IsPC@CActorInstance@@QAE_NXZ:PROC		; CActorInstance::IsPC
EXTRN	?IsNPC@CActorInstance@@QAE_NXZ:PROC		; CActorInstance::IsNPC
EXTRN	?IsEnemy@CActorInstance@@QAE_NXZ:PROC		; CActorInstance::IsEnemy
EXTRN	?TestPhysicsBlendingCollision@CActorInstance@@QAEHAAV1@@Z:PROC ; CActorInstance::TestPhysicsBlendingCollision
EXTRN	?SetBlendingPosition@CActorInstance@@QAEXABUD3DXVECTOR3@@M@Z:PROC ; CActorInstance::SetBlendingPosition
EXTRN	?GetPixelPosition@CActorInstance@@QAEXPAUD3DXVECTOR3@@@Z:PROC ; CActorInstance::GetPixelPosition
EXTRN	?DestroySystem@CInstanceBase@@SAXXZ:PROC	; CInstanceBase::DestroySystem
EXTRN	?OnSelected@CInstanceBase@@QAEXXZ:PROC		; CInstanceBase::OnSelected
EXTRN	?OnUnselected@CInstanceBase@@QAEXXZ:PROC	; CInstanceBase::OnUnselected
EXTRN	?LessRenderOrder@CInstanceBase@@QAE_NPAV1@@Z:PROC ; CInstanceBase::LessRenderOrder
EXTRN	?CalculateDistanceSq3d@CInstanceBase@@QAEMABUD3DXVECTOR3@@@Z:PROC ; CInstanceBase::CalculateDistanceSq3d
EXTRN	?DeleteBlendOut@CInstanceBase@@QAEXXZ:PROC	; CInstanceBase::DeleteBlendOut
EXTRN	?RefreshTextTail@CInstanceBase@@QAEXXZ:PROC	; CInstanceBase::RefreshTextTail
EXTRN	?Create@CInstanceBase@@QAE_NABUSCreateData@1@@Z:PROC ; CInstanceBase::Create
EXTRN	?Update@CInstanceBase@@QAEXXZ:PROC		; CInstanceBase::Update
EXTRN	?UpdateDeleting@CInstanceBase@@QAE_NXZ:PROC	; CInstanceBase::UpdateDeleting
EXTRN	?Transform@CInstanceBase@@QAEXXZ:PROC		; CInstanceBase::Transform
EXTRN	?Deform@CInstanceBase@@QAEXXZ:PROC		; CInstanceBase::Deform
EXTRN	?Render@CInstanceBase@@QAEXXZ:PROC		; CInstanceBase::Render
EXTRN	?RenderTrace@CInstanceBase@@QAEXXZ:PROC		; CInstanceBase::RenderTrace
EXTRN	?RenderToShadowMap@CInstanceBase@@QAEXXZ:PROC	; CInstanceBase::RenderToShadowMap
EXTRN	?RenderCollision@CInstanceBase@@QAEXXZ:PROC	; CInstanceBase::RenderCollision
EXTRN	?ChangeGuild@CInstanceBase@@QAEXK@Z:PROC	; CInstanceBase::ChangeGuild
EXTRN	?GetNameString@CInstanceBase@@QAEPBDXZ:PROC	; CInstanceBase::GetNameString
EXTRN	?GetVirtualID@CInstanceBase@@QAEKXZ:PROC	; CInstanceBase::GetVirtualID
EXTRN	?GetVirtualNumber@CInstanceBase@@QAEKXZ:PROC	; CInstanceBase::GetVirtualNumber
EXTRN	?GetGuildID@CInstanceBase@@QAEKXZ:PROC		; CInstanceBase::GetGuildID
EXTRN	?LevelUp@CInstanceBase@@QAEXXZ:PROC		; CInstanceBase::LevelUp
EXTRN	?SkillUp@CInstanceBase@@QAEXXZ:PROC		; CInstanceBase::SkillUp
EXTRN	?CanPickInstance@CInstanceBase@@QAE_NXZ:PROC	; CInstanceBase::CanPickInstance
EXTRN	?IsForceVisible@CInstanceBase@@QAEHXZ:PROC	; CInstanceBase::IsForceVisible
EXTRN	?IsPC@CInstanceBase@@QAEHXZ:PROC		; CInstanceBase::IsPC
EXTRN	?IsDead@CInstanceBase@@QAEHXZ:PROC		; CInstanceBase::IsDead
EXTRN	?IsPushing@CInstanceBase@@QAEHXZ:PROC		; CInstanceBase::IsPushing
EXTRN	?NEW_GetDistanceFromDestInstance@CInstanceBase@@QAEMAAV1@@Z:PROC ; CInstanceBase::NEW_GetDistanceFromDestInstance
EXTRN	?CheckAdvancing@CInstanceBase@@QAEHXZ:PROC	; CInstanceBase::CheckAdvancing
EXTRN	?IntersectDefendingSphere@CInstanceBase@@QAE_NXZ:PROC ; CInstanceBase::IntersectDefendingSphere
EXTRN	?IntersectBoundingBox@CInstanceBase@@QAE_NXZ:PROC ; CInstanceBase::IntersectBoundingBox
EXTRN	?GetDistance@CInstanceBase@@QAEMPAV1@@Z:PROC	; CInstanceBase::GetDistance
EXTRN	?GetGraphicThingInstanceRef@CInstanceBase@@QAEAAVCActorInstance@@XZ:PROC ; CInstanceBase::GetGraphicThingInstanceRef
EXTRN	?GetGraphicThingInstancePtr@CInstanceBase@@QAEPAVCActorInstance@@XZ:PROC ; CInstanceBase::GetGraphicThingInstancePtr
EXTRN	?InsertPVPKey@CInstanceBase@@SAXKK@Z:PROC	; CInstanceBase::InsertPVPKey
EXTRN	?RemovePVPKey@CInstanceBase@@SAXKK@Z:PROC	; CInstanceBase::RemovePVPKey
EXTRN	?ResetPerformanceCounter@CInstanceBase@@SAXXZ:PROC ; CInstanceBase::ResetPerformanceCounter
EXTRN	?GetInfo@CInstanceBase@@SAXPAV?$basic_string@DU?$char_traits@D@std@@V?$allocator@D@2@@std@@@Z:PROC ; CInstanceBase::GetInfo
EXTRN	?New@CInstanceBase@@SAPAV1@XZ:PROC		; CInstanceBase::New
EXTRN	?Delete@CInstanceBase@@SAXPAV1@@Z:PROC		; CInstanceBase::Delete
EXTRN	??_E?$CSingleton@VCPythonCharacterManager@@@@UAEPAXI@Z:PROC ; CSingleton<CPythonCharacterManager>::`vector deleting destructor'
EXTRN	??_ECPythonCharacterManager@@UAEPAXI@Z:PROC	; CPythonCharacterManager::`vector deleting destructor'
EXTRN	?CheckAdvancing@CPythonBackground@@QAE_NPAVCInstanceBase@@@Z:PROC ; CPythonBackground::CheckAdvancing
EXTRN	?GetEventType@CPythonNonPlayer@@QAEEK@Z:PROC	; CPythonNonPlayer::GetEventType
EXTRN	?GetCurrentCamera@CCameraManager@@QAEPAVCCamera@@XZ:PROC ; CCameraManager::GetCurrentCamera
EXTRN	@__security_check_cookie@4:PROC
EXTRN	__CxxThrowException@8:PROC
EXTRN	___CxxFrameHandler3:PROC
EXTRN	_memcpy:PROC
EXTRN	_memmove:PROC
EXTRN	_memset:PROC
EXTRN	__Init_thread_epoch:DWORD
EXTRN	?ms_ObjManager@IObjectManager@@0PAV1@A:DWORD	; IObjectManager::ms_ObjManager
EXTRN	___security_cookie:DWORD
EXTRN	__fltused:DWORD
EXTRN	__tls_array:DWORD
EXTRN	__tls_index:DWORD
;	COMDAT ?_OptionsStorage@?1??__local_stdio_printf_options@@9@4_KA
_BSS	SEGMENT
?_OptionsStorage@?1??__local_stdio_printf_options@@9@4_KA DQ 01H DUP (?) ; `__local_stdio_printf_options'::`2'::_OptionsStorage
_BSS	ENDS
;	COMDAT ?ms_singleton@?$CSingleton@VCPythonGraphic@@@@0PAVCPythonGraphic@@A
_BSS	SEGMENT
?ms_singleton@?$CSingleton@VCPythonGraphic@@@@0PAVCPythonGraphic@@A DD 01H DUP (?) ; CSingleton<CPythonGraphic>::ms_singleton
_BSS	ENDS
;	COMDAT ?ms_singleton@?$TAbstractSingleton@VIAbstractCharacterManager@@@@0PAVIAbstractCharacterManager@@A
_BSS	SEGMENT
?ms_singleton@?$TAbstractSingleton@VIAbstractCharacterManager@@@@0PAVIAbstractCharacterManager@@A DD 01H DUP (?) ; TAbstractSingleton<IAbstractCharacterManager>::ms_singleton
_BSS	ENDS
;	COMDAT ?ms_singleton@?$CSingleton@VCStateManager@@@@0PAVCStateManager@@A
_BSS	SEGMENT
?ms_singleton@?$CSingleton@VCStateManager@@@@0PAVCStateManager@@A DD 01H DUP (?) ; CSingleton<CStateManager>::ms_singleton
_BSS	ENDS
;	COMDAT ?ms_singleton@?$CSingleton@VCEffectManager@@@@0PAVCEffectManager@@A
_BSS	SEGMENT
?ms_singleton@?$CSingleton@VCEffectManager@@@@0PAVCEffectManager@@A DD 01H DUP (?) ; CSingleton<CEffectManager>::ms_singleton
_BSS	ENDS
;	COMDAT ?ms_singleton@?$CSingleton@VCPythonCharacterManager@@@@0PAVCPythonCharacterManager@@A
_BSS	SEGMENT
?ms_singleton@?$CSingleton@VCPythonCharacterManager@@@@0PAVCPythonCharacterManager@@A DD 01H DUP (?) ; CSingleton<CPythonCharacterManager>::ms_singleton
_BSS	ENDS
;	COMDAT ?ms_singleton@?$CSingleton@VCPythonBackground@@@@0PAVCPythonBackground@@A
_BSS	SEGMENT
?ms_singleton@?$CSingleton@VCPythonBackground@@@@0PAVCPythonBackground@@A DD 01H DUP (?) ; CSingleton<CPythonBackground>::ms_singleton
_BSS	ENDS
;	COMDAT ?ms_singleton@?$CSingleton@VCPythonNonPlayer@@@@0PAVCPythonNonPlayer@@A
_BSS	SEGMENT
?ms_singleton@?$CSingleton@VCPythonNonPlayer@@@@0PAVCPythonNonPlayer@@A DD 01H DUP (?) ; CSingleton<CPythonNonPlayer>::ms_singleton
_BSS	ENDS
;	COMDAT ?ms_singleton@?$TAbstractSingleton@VIAbstractPlayer@@@@0PAVIAbstractPlayer@@A
_BSS	SEGMENT
?ms_singleton@?$TAbstractSingleton@VIAbstractPlayer@@@@0PAVIAbstractPlayer@@A DD 01H DUP (?) ; TAbstractSingleton<IAbstractPlayer>::ms_singleton
_BSS	ENDS
;	COMDAT ?ms_singleton@?$CSingleton@VCCameraManager@@@@0PAVCCameraManager@@A
_BSS	SEGMENT
?ms_singleton@?$CSingleton@VCCameraManager@@@@0PAVCCameraManager@@A DD 01H DUP (?) ; CSingleton<CCameraManager>::ms_singleton
_BSS	ENDS
;	COMDAT ?s_isOldCacheMode@?1??IsCacheMode@CPythonCharacterManager@@QAE_NXZ@4_NA
_BSS	SEGMENT
?s_isOldCacheMode@?1??IsCacheMode@CPythonCharacterManager@@QAE_NXZ@4_NA DB 01H DUP (?) ; `CPythonCharacterManager::IsCacheMode'::`2'::s_isOldCacheMode
_BSS	ENDS
;	COMDAT ?s_kVct_pkInstAliveSort@?1??__RenderSortedAliveActorList@CPythonCharacterManager@@IAEXXZ@4V?$vector@PAVCInstanceBase@@V?$allocator@PAVCInstanceBase@@@std@@@std@@A
_BSS	SEGMENT
?s_kVct_pkInstAliveSort@?1??__RenderSortedAliveActorList@CPythonCharacterManager@@IAEXXZ@4V?$vector@PAVCInstanceBase@@V?$allocator@PAVCInstanceBase@@@std@@@std@@A DB 0cH DUP (?) ; `CPythonCharacterManager::__RenderSortedAliveActorList'::`2'::s_kVct_pkInstAliveSort
_BSS	ENDS
;	COMDAT ?$TSS0@?1??__RenderSortedAliveActorList@CPythonCharacterManager@@IAEXXZ@4HA
_BSS	SEGMENT
?$TSS0@?1??__RenderSortedAliveActorList@CPythonCharacterManager@@IAEXXZ@4HA DD 01H DUP (?) ; `CPythonCharacterManager::__RenderSortedAliveActorList'::`2'::$TSS0
_BSS	ENDS
;	COMDAT ?s_kVct_pkInstDeadSort@?1??__RenderSortedDeadActorList@CPythonCharacterManager@@IAEXXZ@4V?$vector@PAVCInstanceBase@@V?$allocator@PAVCInstanceBase@@@std@@@std@@A
_BSS	SEGMENT
?s_kVct_pkInstDeadSort@?1??__RenderSortedDeadActorList@CPythonCharacterManager@@IAEXXZ@4V?$vector@PAVCInstanceBase@@V?$allocator@PAVCInstanceBase@@@std@@@std@@A DB 0cH DUP (?) ; `CPythonCharacterManager::__RenderSortedDeadActorList'::`2'::s_kVct_pkInstDeadSort
_BSS	ENDS
;	COMDAT ?$TSS0@?1??__RenderSortedDeadActorList@CPythonCharacterManager@@IAEXXZ@4HA
_BSS	SEGMENT
?$TSS0@?1??__RenderSortedDeadActorList@CPythonCharacterManager@@IAEXXZ@4HA DD 01H DUP (?) ; `CPythonCharacterManager::__RenderSortedDeadActorList'::`2'::$TSS0
_BSS	ENDS
;	COMDAT CRT$XCU
CRT$XCU	SEGMENT
??ms_kPool$initializer$@?$CPooledObject@VCHeaderDecorator@NEffectUpdateDecorator@@@@1P6AXXZA@@3P6AXXZA DD FLAT:??__E?ms_kPool@?$CPooledObject@VCHeaderDecorator@NEffectUpdateDecorator@@@@1V?$CDynamicPoolEx@VCHeaderDecorator@NEffectUpdateDecorator@@@@A@@YAXXZ ; ??ms_kPool$initializer$@?$CPooledObject@VCHeaderDecorator@NEffectUpdateDecorator@@@@1P6AXXZA@@3P6AXXZA
CRT$XCU	ENDS
;	COMDAT __xmm@80000000800000008000000080000000
CONST	SEGMENT
__xmm@80000000800000008000000080000000 DB 00H, 00H, 00H, 080H, 00H, 00H, 00H
	DB	080H, 00H, 00H, 00H, 080H, 00H, 00H, 00H, 080H
CONST	ENDS
;	COMDAT __real@461c4000
CONST	SEGMENT
__real@461c4000 DD 0461c4000r			; 10000
CONST	ENDS
;	COMDAT ??_R4?$CSingleton@VCPythonCharacterManager@@@@6B@
rdata$r	SEGMENT
??_R4?$CSingleton@VCPythonCharacterManager@@@@6B@ DD 00H ; CSingleton<CPythonCharacterManager>::`RTTI Complete Object Locator'
	DD	00H
	DD	00H
	DD	FLAT:??_R0?AV?$CSingleton@VCPythonCharacterManager@@@@@8
	DD	FLAT:??_R3?$CSingleton@VCPythonCharacterManager@@@@8
rdata$r	ENDS
;	COMDAT ??_R4CPythonCharacterManager@@6BIObjectManager@@@
rdata$r	SEGMENT
??_R4CPythonCharacterManager@@6BIObjectManager@@@ DD 00H ; CPythonCharacterManager::`RTTI Complete Object Locator'
	DD	08H
	DD	00H
	DD	FLAT:??_R0?AVCPythonCharacterManager@@@8
	DD	FLAT:??_R3CPythonCharacterManager@@8
rdata$r	ENDS
;	COMDAT ??_R4CPythonCharacterManager@@6BIAbstractCharacterManager@@@
rdata$r	SEGMENT
??_R4CPythonCharacterManager@@6BIAbstractCharacterManager@@@ DD 00H ; CPythonCharacterManager::`RTTI Complete Object Locator'
	DD	04H
	DD	00H
	DD	FLAT:??_R0?AVCPythonCharacterManager@@@8
	DD	FLAT:??_R3CPythonCharacterManager@@8
rdata$r	ENDS
;	COMDAT ??_R17?0A@EA@IObjectManager@@8
rdata$r	SEGMENT
??_R17?0A@EA@IObjectManager@@8 DD FLAT:??_R0?AVIObjectManager@@@8 ; IObjectManager::`RTTI Base Class Descriptor at (8,-1,0,64)'
	DD	00H
	DD	08H
	DD	0ffffffffH
	DD	00H
	DD	040H
	DD	FLAT:??_R3IObjectManager@@8
rdata$r	ENDS
;	COMDAT ??_R13?0A@EA@?$TAbstractSingleton@VIAbstractCharacterManager@@@@8
rdata$r	SEGMENT
??_R13?0A@EA@?$TAbstractSingleton@VIAbstractCharacterManager@@@@8 DD FLAT:??_R0?AV?$TAbstractSingleton@VIAbstractCharacterManager@@@@@8 ; TAbstractSingleton<IAbstractCharacterManager>::`RTTI Base Class Descriptor at (4,-1,0,64)'
	DD	00H
	DD	04H
	DD	0ffffffffH
	DD	00H
	DD	040H
	DD	FLAT:??_R3?$TAbstractSingleton@VIAbstractCharacterManager@@@@8
rdata$r	ENDS
;	COMDAT ??_R13?0A@EA@IAbstractCharacterManager@@8
rdata$r	SEGMENT
??_R13?0A@EA@IAbstractCharacterManager@@8 DD FLAT:??_R0?AVIAbstractCharacterManager@@@8 ; IAbstractCharacterManager::`RTTI Base Class Descriptor at (4,-1,0,64)'
	DD	01H
	DD	04H
	DD	0ffffffffH
	DD	00H
	DD	040H
	DD	FLAT:??_R3IAbstractCharacterManager@@8
rdata$r	ENDS
;	COMDAT ??_R2?$CSingleton@VCPythonCharacterManager@@@@8
rdata$r	SEGMENT
??_R2?$CSingleton@VCPythonCharacterManager@@@@8 DD FLAT:??_R1A@?0A@EA@?$CSingleton@VCPythonCharacterManager@@@@8 ; CSingleton<CPythonCharacterManager>::`RTTI Base Class Array'
rdata$r	ENDS
;	COMDAT ??_R3?$CSingleton@VCPythonCharacterManager@@@@8
rdata$r	SEGMENT
??_R3?$CSingleton@VCPythonCharacterManager@@@@8 DD 00H	; CSingleton<CPythonCharacterManager>::`RTTI Class Hierarchy Descriptor'
	DD	00H
	DD	01H
	DD	FLAT:??_R2?$CSingleton@VCPythonCharacterManager@@@@8
rdata$r	ENDS
;	COMDAT ??_R0?AV?$CSingleton@VCPythonCharacterManager@@@@@8
data$rs	SEGMENT
??_R0?AV?$CSingleton@VCPythonCharacterManager@@@@@8 DD FLAT:??_7type_info@@6B@ ; CSingleton<CPythonCharacterManager> `RTTI Type Descriptor'
	DD	00H
	DB	'.?AV?$CSingleton@VCPythonCharacterManager@@@@', 00H
data$rs	ENDS
;	COMDAT ??_R1A@?0A@EA@?$CSingleton@VCPythonCharacterManager@@@@8
rdata$r	SEGMENT
??_R1A@?0A@EA@?$CSingleton@VCPythonCharacterManager@@@@8 DD FLAT:??_R0?AV?$CSingleton@VCPythonCharacterManager@@@@@8 ; CSingleton<CPythonCharacterManager>::`RTTI Base Class Descriptor at (0,-1,0,64)'
	DD	00H
	DD	00H
	DD	0ffffffffH
	DD	00H
	DD	040H
	DD	FLAT:??_R3?$CSingleton@VCPythonCharacterManager@@@@8
rdata$r	ENDS
;	COMDAT ??_R1A@?0A@EA@CPythonCharacterManager@@8
rdata$r	SEGMENT
??_R1A@?0A@EA@CPythonCharacterManager@@8 DD FLAT:??_R0?AVCPythonCharacterManager@@@8 ; CPythonCharacterManager::`RTTI Base Class Descriptor at (0,-1,0,64)'
	DD	04H
	DD	00H
	DD	0ffffffffH
	DD	00H
	DD	040H
	DD	FLAT:??_R3CPythonCharacterManager@@8
rdata$r	ENDS
;	COMDAT ??_R2CPythonCharacterManager@@8
rdata$r	SEGMENT
??_R2CPythonCharacterManager@@8 DD FLAT:??_R1A@?0A@EA@CPythonCharacterManager@@8 ; CPythonCharacterManager::`RTTI Base Class Array'
	DD	FLAT:??_R1A@?0A@EA@?$CSingleton@VCPythonCharacterManager@@@@8
	DD	FLAT:??_R13?0A@EA@IAbstractCharacterManager@@8
	DD	FLAT:??_R13?0A@EA@?$TAbstractSingleton@VIAbstractCharacterManager@@@@8
	DD	FLAT:??_R17?0A@EA@IObjectManager@@8
rdata$r	ENDS
;	COMDAT ??_R3CPythonCharacterManager@@8
rdata$r	SEGMENT
??_R3CPythonCharacterManager@@8 DD 00H			; CPythonCharacterManager::`RTTI Class Hierarchy Descriptor'
	DD	01H
	DD	05H
	DD	FLAT:??_R2CPythonCharacterManager@@8
rdata$r	ENDS
;	COMDAT ??_R0?AVCPythonCharacterManager@@@8
data$rs	SEGMENT
??_R0?AVCPythonCharacterManager@@@8 DD FLAT:??_7type_info@@6B@ ; CPythonCharacterManager `RTTI Type Descriptor'
	DD	00H
	DB	'.?AVCPythonCharacterManager@@', 00H
data$rs	ENDS
;	COMDAT ??_R4CPythonCharacterManager@@6B?$CSingleton@VCPythonCharacterManager@@@@@
rdata$r	SEGMENT
??_R4CPythonCharacterManager@@6B?$CSingleton@VCPythonCharacterManager@@@@@ DD 00H ; CPythonCharacterManager::`RTTI Complete Object Locator'
	DD	00H
	DD	00H
	DD	FLAT:??_R0?AVCPythonCharacterManager@@@8
	DD	FLAT:??_R3CPythonCharacterManager@@8
rdata$r	ENDS
;	COMDAT ??_R1A@?0A@EA@IObjectManager@@8
rdata$r	SEGMENT
??_R1A@?0A@EA@IObjectManager@@8 DD FLAT:??_R0?AVIObjectManager@@@8 ; IObjectManager::`RTTI Base Class Descriptor at (0,-1,0,64)'
	DD	00H
	DD	00H
	DD	0ffffffffH
	DD	00H
	DD	040H
	DD	FLAT:??_R3IObjectManager@@8
rdata$r	ENDS
;	COMDAT ??_R2IObjectManager@@8
rdata$r	SEGMENT
??_R2IObjectManager@@8 DD FLAT:??_R1A@?0A@EA@IObjectManager@@8 ; IObjectManager::`RTTI Base Class Array'
rdata$r	ENDS
;	COMDAT ??_R3IObjectManager@@8
rdata$r	SEGMENT
??_R3IObjectManager@@8 DD 00H				; IObjectManager::`RTTI Class Hierarchy Descriptor'
	DD	00H
	DD	01H
	DD	FLAT:??_R2IObjectManager@@8
rdata$r	ENDS
;	COMDAT ??_R0?AVIObjectManager@@@8
data$rs	SEGMENT
??_R0?AVIObjectManager@@@8 DD FLAT:??_7type_info@@6B@	; IObjectManager `RTTI Type Descriptor'
	DD	00H
	DB	'.?AVIObjectManager@@', 00H
data$rs	ENDS
;	COMDAT ??_R4IObjectManager@@6B@
rdata$r	SEGMENT
??_R4IObjectManager@@6B@ DD 00H				; IObjectManager::`RTTI Complete Object Locator'
	DD	00H
	DD	00H
	DD	FLAT:??_R0?AVIObjectManager@@@8
	DD	FLAT:??_R3IObjectManager@@8
rdata$r	ENDS
;	COMDAT ??_R4?$TAbstractSingleton@VIAbstractCharacterManager@@@@6B@
rdata$r	SEGMENT
??_R4?$TAbstractSingleton@VIAbstractCharacterManager@@@@6B@ DD 00H ; TAbstractSingleton<IAbstractCharacterManager>::`RTTI Complete Object Locator'
	DD	00H
	DD	00H
	DD	FLAT:??_R0?AV?$TAbstractSingleton@VIAbstractCharacterManager@@@@@8
	DD	FLAT:??_R3?$TAbstractSingleton@VIAbstractCharacterManager@@@@8
rdata$r	ENDS
;	COMDAT ??_R2?$TAbstractSingleton@VIAbstractCharacterManager@@@@8
rdata$r	SEGMENT
??_R2?$TAbstractSingleton@VIAbstractCharacterManager@@@@8 DD FLAT:??_R1A@?0A@EA@?$TAbstractSingleton@VIAbstractCharacterManager@@@@8 ; TAbstractSingleton<IAbstractCharacterManager>::`RTTI Base Class Array'
rdata$r	ENDS
;	COMDAT ??_R3?$TAbstractSingleton@VIAbstractCharacterManager@@@@8
rdata$r	SEGMENT
??_R3?$TAbstractSingleton@VIAbstractCharacterManager@@@@8 DD 00H ; TAbstractSingleton<IAbstractCharacterManager>::`RTTI Class Hierarchy Descriptor'
	DD	00H
	DD	01H
	DD	FLAT:??_R2?$TAbstractSingleton@VIAbstractCharacterManager@@@@8
rdata$r	ENDS
;	COMDAT ??_R0?AV?$TAbstractSingleton@VIAbstractCharacterManager@@@@@8
data$rs	SEGMENT
??_R0?AV?$TAbstractSingleton@VIAbstractCharacterManager@@@@@8 DD FLAT:??_7type_info@@6B@ ; TAbstractSingleton<IAbstractCharacterManager> `RTTI Type Descriptor'
	DD	00H
	DB	'.?AV?$TAbstractSingleton@VIAbstractCharacterManager@@@@', 00H
data$rs	ENDS
;	COMDAT ??_R1A@?0A@EA@?$TAbstractSingleton@VIAbstractCharacterManager@@@@8
rdata$r	SEGMENT
??_R1A@?0A@EA@?$TAbstractSingleton@VIAbstractCharacterManager@@@@8 DD FLAT:??_R0?AV?$TAbstractSingleton@VIAbstractCharacterManager@@@@@8 ; TAbstractSingleton<IAbstractCharacterManager>::`RTTI Base Class Descriptor at (0,-1,0,64)'
	DD	00H
	DD	00H
	DD	0ffffffffH
	DD	00H
	DD	040H
	DD	FLAT:??_R3?$TAbstractSingleton@VIAbstractCharacterManager@@@@8
rdata$r	ENDS
;	COMDAT ??_R1A@?0A@EA@IAbstractCharacterManager@@8
rdata$r	SEGMENT
??_R1A@?0A@EA@IAbstractCharacterManager@@8 DD FLAT:??_R0?AVIAbstractCharacterManager@@@8 ; IAbstractCharacterManager::`RTTI Base Class Descriptor at (0,-1,0,64)'
	DD	01H
	DD	00H
	DD	0ffffffffH
	DD	00H
	DD	040H
	DD	FLAT:??_R3IAbstractCharacterManager@@8
rdata$r	ENDS
;	COMDAT ??_R2IAbstractCharacterManager@@8
rdata$r	SEGMENT
??_R2IAbstractCharacterManager@@8 DD FLAT:??_R1A@?0A@EA@IAbstractCharacterManager@@8 ; IAbstractCharacterManager::`RTTI Base Class Array'
	DD	FLAT:??_R1A@?0A@EA@?$TAbstractSingleton@VIAbstractCharacterManager@@@@8
rdata$r	ENDS
;	COMDAT ??_R3IAbstractCharacterManager@@8
rdata$r	SEGMENT
??_R3IAbstractCharacterManager@@8 DD 00H		; IAbstractCharacterManager::`RTTI Class Hierarchy Descriptor'
	DD	00H
	DD	02H
	DD	FLAT:??_R2IAbstractCharacterManager@@8
rdata$r	ENDS
;	COMDAT ??_R0?AVIAbstractCharacterManager@@@8
data$rs	SEGMENT
??_R0?AVIAbstractCharacterManager@@@8 DD FLAT:??_7type_info@@6B@ ; IAbstractCharacterManager `RTTI Type Descriptor'
	DD	00H
	DB	'.?AVIAbstractCharacterManager@@', 00H
data$rs	ENDS
;	COMDAT ??_R4IAbstractCharacterManager@@6B@
rdata$r	SEGMENT
??_R4IAbstractCharacterManager@@6B@ DD 00H		; IAbstractCharacterManager::`RTTI Complete Object Locator'
	DD	00H
	DD	00H
	DD	FLAT:??_R0?AVIAbstractCharacterManager@@@8
	DD	FLAT:??_R3IAbstractCharacterManager@@8
rdata$r	ENDS
;	COMDAT ??_C@_0O@NKNMEGII@list?5too?5long@
CONST	SEGMENT
??_C@_0O@NKNMEGII@list?5too?5long@ DB 'list too long', 00H ; `string'
CONST	ENDS
;	COMDAT ??_C@_0CH@DINFEOPA@SelectCharacterInstance?3?5no?5vid@
CONST	SEGMENT
??_C@_0CH@DINFEOPA@SelectCharacterInstance?3?5no?5vid@ DB 'SelectCharacte'
	DB	'rInstance: no vid by %d', 0aH, 00H		; `string'
CONST	ENDS
;	COMDAT ??_C@_0CH@HECKLEJN@DeleteCharacterInstance?3?5no?5vid@
CONST	SEGMENT
??_C@_0CH@HECKLEJN@DeleteCharacterInstance?3?5no?5vid@ DB 'DeleteCharacte'
	DB	'rInstance: no vid by %d', 0aH, 00H		; `string'
CONST	ENDS
;	COMDAT ??_C@_0DJ@DCBIHGAA@CPythonCharacterManager?3?3Create@
CONST	SEGMENT
??_C@_0DJ@DCBIHGAA@CPythonCharacterManager?3?3Create@ DB 'CPythonCharacte'
	DB	'rManager::CreateInstance VID[%d] Race[%d]', 00H ; `string'
CONST	ENDS
;	COMDAT ??_C@_0EC@KAFJJKBD@CPythonCharacterManager?3?3Create@
CONST	SEGMENT
??_C@_0EC@KAFJJKBD@CPythonCharacterManager?3?3Create@ DB 'CPythonCharacte'
	DB	'rManager::CreateInstance: VID[%d] - ALREADY EXIST', 0aH, 00H ; `string'
CONST	ENDS
;	COMDAT ??_C@_0BN@MCDFNGBH@Container?5?9?5Live?5?$CFd?0?5Dead?5?$CFd@
CONST	SEGMENT
??_C@_0BN@MCDFNGBH@Container?5?9?5Live?5?$CFd?0?5Dead?5?$CFd@ DB 'Contain'
	DB	'er - Live %d, Dead %d', 00H			; `string'
CONST	ENDS
;	COMDAT ??_C@_07DDCLDHCF@Actor?3?5@
CONST	SEGMENT
??_C@_07DDCLDHCF@Actor?3?5@ DB 'Actor: ', 00H		; `string'
CONST	ENDS
;	COMDAT ??_7CPythonCharacterManager@@6BIObjectManager@@@
CONST	SEGMENT
??_7CPythonCharacterManager@@6BIObjectManager@@@ DD FLAT:??_R4CPythonCharacterManager@@6BIObjectManager@@@ ; CPythonCharacterManager::`vftable'
	DD	FLAT:??_ECPythonCharacterManager@@W7AEPAXI@Z
	DD	FLAT:?AdjustCollisionWithOtherObjects@CPythonCharacterManager@@UAEXPAVCActorInstance@@@Z
CONST	ENDS
;	COMDAT ??_7CPythonCharacterManager@@6BIAbstractCharacterManager@@@
CONST	SEGMENT
??_7CPythonCharacterManager@@6BIAbstractCharacterManager@@@ DD FLAT:??_R4CPythonCharacterManager@@6BIAbstractCharacterManager@@@ ; CPythonCharacterManager::`vftable'
	DD	FLAT:??_ECPythonCharacterManager@@W3AEPAXI@Z
	DD	FLAT:?Destroy@CPythonCharacterManager@@UAEXXZ
	DD	FLAT:?GetInstancePtr@CPythonCharacterManager@@UAEPAVCInstanceBase@@K@Z
CONST	ENDS
;	COMDAT ??_7CPythonCharacterManager@@6B?$CSingleton@VCPythonCharacterManager@@@@@
CONST	SEGMENT
??_7CPythonCharacterManager@@6B?$CSingleton@VCPythonCharacterManager@@@@@ DD FLAT:??_R4CPythonCharacterManager@@6B?$CSingleton@VCPythonCharacterManager@@@@@ ; CPythonCharacterManager::`vftable'
	DD	FLAT:??_ECPythonCharacterManager@@UAEPAXI@Z
CONST	ENDS
;	COMDAT ??_7?$CSingleton@VCPythonCharacterManager@@@@6B@
CONST	SEGMENT
??_7?$CSingleton@VCPythonCharacterManager@@@@6B@ DD FLAT:??_R4?$CSingleton@VCPythonCharacterManager@@@@6B@ ; CSingleton<CPythonCharacterManager>::`vftable'
	DD	FLAT:??_E?$CSingleton@VCPythonCharacterManager@@@@UAEPAXI@Z
CONST	ENDS
;	COMDAT ??_7IObjectManager@@6B@
CONST	SEGMENT
??_7IObjectManager@@6B@ DD FLAT:??_R4IObjectManager@@6B@ ; IObjectManager::`vftable'
	DD	FLAT:??_EIObjectManager@@UAEPAXI@Z
	DD	FLAT:__purecall
CONST	ENDS
;	COMDAT ?ms_kPool@?$CPooledObject@VCRotationDecorator@NEffectUpdateDecorator@@@@1V?$CDynamicPoolEx@VCRotationDecorator@NEffectUpdateDecorator@@@@A
_DATA	SEGMENT
?ms_kPool@?$CPooledObject@VCRotationDecorator@NEffectUpdateDecorator@@@@1V?$CDynamicPoolEx@VCRotationDecorator@NEffectUpdateDecorator@@@@A DD FLAT:??_7?$CDynamicPoolEx@VCRotationDecorator@NEffectUpdateDecorator@@@@6B@ ; CPooledObject<NEffectUpdateDecorator::CRotationDecorator>::ms_kPool
	DD	00H
	DD	00H
	DD	00H
	DD	00H
	DD	00H
	DD	00H
	DD	00H
	DD	00H
_DATA	ENDS
;	COMDAT ?ms_kPool@?$CPooledObject@VCGravityDecorator@NEffectUpdateDecorator@@@@1V?$CDynamicPoolEx@VCGravityDecorator@NEffectUpdateDecorator@@@@A
_DATA	SEGMENT
?ms_kPool@?$CPooledObject@VCGravityDecorator@NEffectUpdateDecorator@@@@1V?$CDynamicPoolEx@VCGravityDecorator@NEffectUpdateDecorator@@@@A DD FLAT:??_7?$CDynamicPoolEx@VCGravityDecorator@NEffectUpdateDecorator@@@@6B@ ; CPooledObject<NEffectUpdateDecorator::CGravityDecorator>::ms_kPool
	DD	00H
	DD	00H
	DD	00H
	DD	00H
	DD	00H
	DD	00H
	DD	00H
	DD	00H
_DATA	ENDS
;	COMDAT ?ms_kPool@?$CPooledObject@VCAirResistanceDecorator@NEffectUpdateDecorator@@@@1V?$CDynamicPoolEx@VCAirResistanceDecorator@NEffectUpdateDecorator@@@@A
_DATA	SEGMENT
?ms_kPool@?$CPooledObject@VCAirResistanceDecorator@NEffectUpdateDecorator@@@@1V?$CDynamicPoolEx@VCAirResistanceDecorator@NEffectUpdateDecorator@@@@A DD FLAT:??_7?$CDynamicPoolEx@VCAirResistanceDecorator@NEffectUpdateDecorator@@@@6B@ ; CPooledObject<NEffectUpdateDecorator::CAirResistanceDecorator>::ms_kPool
	DD	00H
	DD	00H
	DD	00H
	DD	00H
	DD	00H
	DD	00H
	DD	00H
	DD	00H
_DATA	ENDS
;	COMDAT ?ms_kPool@?$CPooledObject@VCTextureAnimationRandomDecorator@NEffectUpdateDecorator@@@@1V?$CDynamicPoolEx@VCTextureAnimationRandomDecorator@NEffectUpdateDecorator@@@@A
_DATA	SEGMENT
?ms_kPool@?$CPooledObject@VCTextureAnimationRandomDecorator@NEffectUpdateDecorator@@@@1V?$CDynamicPoolEx@VCTextureAnimationRandomDecorator@NEffectUpdateDecorator@@@@A DD FLAT:??_7?$CDynamicPoolEx@VCTextureAnimationRandomDecorator@NEffectUpdateDecorator@@@@6B@ ; CPooledObject<NEffectUpdateDecorator::CTextureAnimationRandomDecorator>::ms_kPool
	DD	00H
	DD	00H
	DD	00H
	DD	00H
	DD	00H
	DD	00H
	DD	00H
	DD	00H
_DATA	ENDS
;	COMDAT ?ms_kPool@?$CPooledObject@VCTextureAnimationCCWDecorator@NEffectUpdateDecorator@@@@1V?$CDynamicPoolEx@VCTextureAnimationCCWDecorator@NEffectUpdateDecorator@@@@A
_DATA	SEGMENT
?ms_kPool@?$CPooledObject@VCTextureAnimationCCWDecorator@NEffectUpdateDecorator@@@@1V?$CDynamicPoolEx@VCTextureAnimationCCWDecorator@NEffectUpdateDecorator@@@@A DD FLAT:??_7?$CDynamicPoolEx@VCTextureAnimationCCWDecorator@NEffectUpdateDecorator@@@@6B@ ; CPooledObject<NEffectUpdateDecorator::CTextureAnimationCCWDecorator>::ms_kPool
	DD	00H
	DD	00H
	DD	00H
	DD	00H
	DD	00H
	DD	00H
	DD	00H
	DD	00H
_DATA	ENDS
;	COMDAT ?ms_kPool@?$CPooledObject@VCTextureAnimationCWDecorator@NEffectUpdateDecorator@@@@1V?$CDynamicPoolEx@VCTextureAnimationCWDecorator@NEffectUpdateDecorator@@@@A
_DATA	SEGMENT
?ms_kPool@?$CPooledObject@VCTextureAnimationCWDecorator@NEffectUpdateDecorator@@@@1V?$CDynamicPoolEx@VCTextureAnimationCWDecorator@NEffectUpdateDecorator@@@@A DD FLAT:??_7?$CDynamicPoolEx@VCTextureAnimationCWDecorator@NEffectUpdateDecorator@@@@6B@ ; CPooledObject<NEffectUpdateDecorator::CTextureAnimationCWDecorator>::ms_kPool
	DD	00H
	DD	00H
	DD	00H
	DD	00H
	DD	00H
	DD	00H
	DD	00H
	DD	00H
_DATA	ENDS
;	COMDAT ?ms_kPool@?$CPooledObject@VCNullDecorator@NEffectUpdateDecorator@@@@1V?$CDynamicPoolEx@VCNullDecorator@NEffectUpdateDecorator@@@@A
_DATA	SEGMENT
?ms_kPool@?$CPooledObject@VCNullDecorator@NEffectUpdateDecorator@@@@1V?$CDynamicPoolEx@VCNullDecorator@NEffectUpdateDecorator@@@@A DD FLAT:??_7?$CDynamicPoolEx@VCNullDecorator@NEffectUpdateDecorator@@@@6B@ ; CPooledObject<NEffectUpdateDecorator::CNullDecorator>::ms_kPool
	DD	00H
	DD	00H
	DD	00H
	DD	00H
	DD	00H
	DD	00H
	DD	00H
	DD	00H
_DATA	ENDS
;	COMDAT ?ms_kPool@?$CPooledObject@VCHeaderDecorator@NEffectUpdateDecorator@@@@1V?$CDynamicPoolEx@VCHeaderDecorator@NEffectUpdateDecorator@@@@A
_DATA	SEGMENT
?ms_kPool@?$CPooledObject@VCHeaderDecorator@NEffectUpdateDecorator@@@@1V?$CDynamicPoolEx@VCHeaderDecorator@NEffectUpdateDecorator@@@@A DD FLAT:??_7?$CDynamicPoolEx@VCHeaderDecorator@NEffectUpdateDecorator@@@@6B@ ; CPooledObject<NEffectUpdateDecorator::CHeaderDecorator>::ms_kPool
	DD	00H
	DD	00H
	DD	00H
	DD	00H
	DD	00H
	DD	00H
	DD	00H
	DD	00H
_DATA	ENDS
;	COMDAT ??_7IAbstractCharacterManager@@6B@
CONST	SEGMENT
??_7IAbstractCharacterManager@@6B@ DD FLAT:??_R4IAbstractCharacterManager@@6B@ ; IAbstractCharacterManager::`vftable'
	DD	FLAT:??_EIAbstractCharacterManager@@UAEPAXI@Z
	DD	FLAT:__purecall
	DD	FLAT:__purecall
CONST	ENDS
;	COMDAT ??_7?$TAbstractSingleton@VIAbstractCharacterManager@@@@6B@
CONST	SEGMENT
??_7?$TAbstractSingleton@VIAbstractCharacterManager@@@@6B@ DD FLAT:??_R4?$TAbstractSingleton@VIAbstractCharacterManager@@@@6B@ ; TAbstractSingleton<IAbstractCharacterManager>::`vftable'
	DD	FLAT:??_E?$TAbstractSingleton@VIAbstractCharacterManager@@@@UAEPAXI@Z
CONST	ENDS
;	COMDAT ??_R1A@?0A@EA@bad_array_new_length@std@@8
rdata$r	SEGMENT
??_R1A@?0A@EA@bad_array_new_length@std@@8 DD FLAT:??_R0?AVbad_array_new_length@std@@@8 ; std::bad_array_new_length::`RTTI Base Class Descriptor at (0,-1,0,64)'
	DD	02H
	DD	00H
	DD	0ffffffffH
	DD	00H
	DD	040H
	DD	FLAT:??_R3bad_array_new_length@std@@8
rdata$r	ENDS
;	COMDAT ??_R2bad_array_new_length@std@@8
rdata$r	SEGMENT
??_R2bad_array_new_length@std@@8 DD FLAT:??_R1A@?0A@EA@bad_array_new_length@std@@8 ; std::bad_array_new_length::`RTTI Base Class Array'
	DD	FLAT:??_R1A@?0A@EA@bad_alloc@std@@8
	DD	FLAT:??_R1A@?0A@EA@exception@std@@8
rdata$r	ENDS
;	COMDAT ??_R3bad_array_new_length@std@@8
rdata$r	SEGMENT
??_R3bad_array_new_length@std@@8 DD 00H			; std::bad_array_new_length::`RTTI Class Hierarchy Descriptor'
	DD	00H
	DD	03H
	DD	FLAT:??_R2bad_array_new_length@std@@8
rdata$r	ENDS
;	COMDAT ??_R4bad_array_new_length@std@@6B@
rdata$r	SEGMENT
??_R4bad_array_new_length@std@@6B@ DD 00H		; std::bad_array_new_length::`RTTI Complete Object Locator'
	DD	00H
	DD	00H
	DD	FLAT:??_R0?AVbad_array_new_length@std@@@8
	DD	FLAT:??_R3bad_array_new_length@std@@8
rdata$r	ENDS
;	COMDAT ??_R1A@?0A@EA@bad_alloc@std@@8
rdata$r	SEGMENT
??_R1A@?0A@EA@bad_alloc@std@@8 DD FLAT:??_R0?AVbad_alloc@std@@@8 ; std::bad_alloc::`RTTI Base Class Descriptor at (0,-1,0,64)'
	DD	01H
	DD	00H
	DD	0ffffffffH
	DD	00H
	DD	040H
	DD	FLAT:??_R3bad_alloc@std@@8
rdata$r	ENDS
;	COMDAT ??_R2bad_alloc@std@@8
rdata$r	SEGMENT
??_R2bad_alloc@std@@8 DD FLAT:??_R1A@?0A@EA@bad_alloc@std@@8 ; std::bad_alloc::`RTTI Base Class Array'
	DD	FLAT:??_R1A@?0A@EA@exception@std@@8
rdata$r	ENDS
;	COMDAT ??_R3bad_alloc@std@@8
rdata$r	SEGMENT
??_R3bad_alloc@std@@8 DD 00H				; std::bad_alloc::`RTTI Class Hierarchy Descriptor'
	DD	00H
	DD	02H
	DD	FLAT:??_R2bad_alloc@std@@8
rdata$r	ENDS
;	COMDAT ??_R4bad_alloc@std@@6B@
rdata$r	SEGMENT
??_R4bad_alloc@std@@6B@ DD 00H				; std::bad_alloc::`RTTI Complete Object Locator'
	DD	00H
	DD	00H
	DD	FLAT:??_R0?AVbad_alloc@std@@@8
	DD	FLAT:??_R3bad_alloc@std@@8
rdata$r	ENDS
;	COMDAT ??_R1A@?0A@EA@exception@std@@8
rdata$r	SEGMENT
??_R1A@?0A@EA@exception@std@@8 DD FLAT:??_R0?AVexception@std@@@8 ; std::exception::`RTTI Base Class Descriptor at (0,-1,0,64)'
	DD	00H
	DD	00H
	DD	0ffffffffH
	DD	00H
	DD	040H
	DD	FLAT:??_R3exception@std@@8
rdata$r	ENDS
;	COMDAT ??_R2exception@std@@8
rdata$r	SEGMENT
??_R2exception@std@@8 DD FLAT:??_R1A@?0A@EA@exception@std@@8 ; std::exception::`RTTI Base Class Array'
rdata$r	ENDS
;	COMDAT ??_R3exception@std@@8
rdata$r	SEGMENT
??_R3exception@std@@8 DD 00H				; std::exception::`RTTI Class Hierarchy Descriptor'
	DD	00H
	DD	01H
	DD	FLAT:??_R2exception@std@@8
rdata$r	ENDS
;	COMDAT ??_R4exception@std@@6B@
rdata$r	SEGMENT
??_R4exception@std@@6B@ DD 00H				; std::exception::`RTTI Complete Object Locator'
	DD	00H
	DD	00H
	DD	FLAT:??_R0?AVexception@std@@@8
	DD	FLAT:??_R3exception@std@@8
rdata$r	ENDS
;	COMDAT ??_C@_0BA@FOIKENOD@vector?5too?5long@
CONST	SEGMENT
??_C@_0BA@FOIKENOD@vector?5too?5long@ DB 'vector too long', 00H ; `string'
CONST	ENDS
;	COMDAT ??_C@_0BB@GCADKGJO@map?1set?5too?5long@
CONST	SEGMENT
??_C@_0BB@GCADKGJO@map?1set?5too?5long@ DB 'map/set too long', 00H ; `string'
CONST	ENDS
;	COMDAT ??_C@_0BA@JFNIOLAK@string?5too?5long@
CONST	SEGMENT
??_C@_0BA@JFNIOLAK@string?5too?5long@ DB 'string too long', 00H ; `string'
CONST	ENDS
;	COMDAT __CT??_R0?AVexception@std@@@8??0exception@std@@QAE@ABV01@@Z12
xdata$x	SEGMENT
__CT??_R0?AVexception@std@@@8??0exception@std@@QAE@ABV01@@Z12 DD 00H
	DD	FLAT:??_R0?AVexception@std@@@8
	DD	00H
	DD	0ffffffffH
	ORG $+4
	DD	0cH
	DD	FLAT:??0exception@std@@QAE@ABV01@@Z
xdata$x	ENDS
;	COMDAT ??_R0?AVexception@std@@@8
data$r	SEGMENT
??_R0?AVexception@std@@@8 DD FLAT:??_7type_info@@6B@	; std::exception `RTTI Type Descriptor'
	DD	00H
	DB	'.?AVexception@std@@', 00H
data$r	ENDS
;	COMDAT __CT??_R0?AVbad_alloc@std@@@8??0bad_alloc@std@@QAE@ABV01@@Z12
xdata$x	SEGMENT
__CT??_R0?AVbad_alloc@std@@@8??0bad_alloc@std@@QAE@ABV01@@Z12 DD 010H
	DD	FLAT:??_R0?AVbad_alloc@std@@@8
	DD	00H
	DD	0ffffffffH
	ORG $+4
	DD	0cH
	DD	FLAT:??0bad_alloc@std@@QAE@ABV01@@Z
xdata$x	ENDS
;	COMDAT ??_R0?AVbad_alloc@std@@@8
data$r	SEGMENT
??_R0?AVbad_alloc@std@@@8 DD FLAT:??_7type_info@@6B@	; std::bad_alloc `RTTI Type Descriptor'
	DD	00H
	DB	'.?AVbad_alloc@std@@', 00H
data$r	ENDS
;	COMDAT __CT??_R0?AVbad_array_new_length@std@@@8??0bad_array_new_length@std@@QAE@ABV01@@Z12
xdata$x	SEGMENT
__CT??_R0?AVbad_array_new_length@std@@@8??0bad_array_new_length@std@@QAE@ABV01@@Z12 DD 00H
	DD	FLAT:??_R0?AVbad_array_new_length@std@@@8
	DD	00H
	DD	0ffffffffH
	ORG $+4
	DD	0cH
	DD	FLAT:??0bad_array_new_length@std@@QAE@ABV01@@Z
xdata$x	ENDS
;	COMDAT ??_R0?AVbad_array_new_length@std@@@8
data$r	SEGMENT
??_R0?AVbad_array_new_length@std@@@8 DD FLAT:??_7type_info@@6B@ ; std::bad_array_new_length `RTTI Type Descriptor'
	DD	00H
	DB	'.?AVbad_array_new_length@std@@', 00H
data$r	ENDS
;	COMDAT __CTA3?AVbad_array_new_length@std@@
xdata$x	SEGMENT
__CTA3?AVbad_array_new_length@std@@ DD 03H
	DD	FLAT:__CT??_R0?AVbad_array_new_length@std@@@8??0bad_array_new_length@std@@QAE@ABV01@@Z12
	DD	FLAT:__CT??_R0?AVbad_alloc@std@@@8??0bad_alloc@std@@QAE@ABV01@@Z12
	DD	FLAT:__CT??_R0?AVexception@std@@@8??0exception@std@@QAE@ABV01@@Z12
xdata$x	ENDS
;	COMDAT __TI3?AVbad_array_new_length@std@@
xdata$x	SEGMENT
__TI3?AVbad_array_new_length@std@@ DD 00H
	DD	FLAT:??1bad_array_new_length@std@@UAE@XZ
	DD	00H
	DD	FLAT:__CTA3?AVbad_array_new_length@std@@
xdata$x	ENDS
;	COMDAT ??_C@_0BF@KINCDENJ@bad?5array?5new?5length@
CONST	SEGMENT
??_C@_0BF@KINCDENJ@bad?5array?5new?5length@ DB 'bad array new length', 00H ; `string'
CONST	ENDS
;	COMDAT ??_7bad_array_new_length@std@@6B@
CONST	SEGMENT
??_7bad_array_new_length@std@@6B@ DD FLAT:??_R4bad_array_new_length@std@@6B@ ; std::bad_array_new_length::`vftable'
	DD	FLAT:??_Ebad_array_new_length@std@@UAEPAXI@Z
	DD	FLAT:?what@exception@std@@UBEPBDXZ
CONST	ENDS
;	COMDAT ??_7bad_alloc@std@@6B@
CONST	SEGMENT
??_7bad_alloc@std@@6B@ DD FLAT:??_R4bad_alloc@std@@6B@	; std::bad_alloc::`vftable'
	DD	FLAT:??_Ebad_alloc@std@@UAEPAXI@Z
	DD	FLAT:?what@exception@std@@UBEPBDXZ
CONST	ENDS
;	COMDAT ??_C@_0BC@EOODALEL@Unknown?5exception@
CONST	SEGMENT
??_C@_0BC@EOODALEL@Unknown?5exception@ DB 'Unknown exception', 00H ; `string'
CONST	ENDS
;	COMDAT ??_7exception@std@@6B@
CONST	SEGMENT
??_7exception@std@@6B@ DD FLAT:??_R4exception@std@@6B@	; std::exception::`vftable'
	DD	FLAT:??_Eexception@std@@UAEPAXI@Z
	DD	FLAT:?what@exception@std@@UBEPBDXZ
CONST	ENDS
;	COMDAT xdata$x
xdata$x	SEGMENT
__unwindtable$??$?0U?$pair@$$CBKPAVCInstanceBase@@@std@@@?$_Tree_temp_node@V?$allocator@U?$_Tree_node@U?$pair@$$CBKPAVCInstanceBase@@@std@@PAX@std@@@std@@@std@@QAE@AAV?$allocator@U?$_Tree_node@U?$pair@$$CBKPAVCInstanceBase@@@std@@PAX@std@@@1@PAU?$_Tree_node@U?$pair@$$CBKPAVCInstanceBase@@@std@@PAX@1@$$QAU?$pair@$$CBKPAVCInstanceBase@@@1@@Z DD 0ffffffffH
	DD	FLAT:__unwindfunclet$??$?0U?$pair@$$CBKPAVCInstanceBase@@@std@@@?$_Tree_temp_node@V?$allocator@U?$_Tree_node@U?$pair@$$CBKPAVCInstanceBase@@@std@@PAX@std@@@std@@@std@@QAE@AAV?$allocator@U?$_Tree_node@U?$pair@$$CBKPAVCInstanceBase@@@std@@PAX@std@@@1@PAU?$_Tree_node@U?$pair@$$CBKPAVCInstanceBase@@@std@@PAX@1@$$QAU?$pair@$$CBKPAVCInstanceBase@@@1@@Z$1
__ehfuncinfo$??$?0U?$pair@$$CBKPAVCInstanceBase@@@std@@@?$_Tree_temp_node@V?$allocator@U?$_Tree_node@U?$pair@$$CBKPAVCInstanceBase@@@std@@PAX@std@@@std@@@std@@QAE@AAV?$allocator@U?$_Tree_node@U?$pair@$$CBKPAVCInstanceBase@@@std@@PAX@std@@@1@PAU?$_Tree_node@U?$pair@$$CBKPAVCInstanceBase@@@std@@PAX@1@$$QAU?$pair@$$CBKPAVCInstanceBase@@@1@@Z DD 019930522H
	DD	01H
	DD	FLAT:__unwindtable$??$?0U?$pair@$$CBKPAVCInstanceBase@@@std@@@?$_Tree_temp_node@V?$allocator@U?$_Tree_node@U?$pair@$$CBKPAVCInstanceBase@@@std@@PAX@std@@@std@@@std@@QAE@AAV?$allocator@U?$_Tree_node@U?$pair@$$CBKPAVCInstanceBase@@@std@@PAX@std@@@1@PAU?$_Tree_node@U?$pair@$$CBKPAVCInstanceBase@@@std@@PAX@1@$$QAU?$pair@$$CBKPAVCInstanceBase@@@1@@Z
	DD	2 DUP(00H)
	DD	2 DUP(00H)
	DD	00H
	DD	01H
xdata$x	ENDS
;	COMDAT xdata$x
xdata$x	SEGMENT
__unwindtable$??0?$_Tree_temp_node_alloc@V?$allocator@U?$_Tree_node@U?$pair@$$CBKPAVCInstanceBase@@@std@@PAX@std@@@std@@@std@@QAE@AAV?$allocator@U?$_Tree_node@U?$pair@$$CBKPAVCInstanceBase@@@std@@PAX@std@@@1@@Z DD 0ffffffffH
	DD	FLAT:__unwindfunclet$??0?$_Tree_temp_node_alloc@V?$allocator@U?$_Tree_node@U?$pair@$$CBKPAVCInstanceBase@@@std@@PAX@std@@@std@@@std@@QAE@AAV?$allocator@U?$_Tree_node@U?$pair@$$CBKPAVCInstanceBase@@@std@@PAX@std@@@1@@Z$0
__ehfuncinfo$??0?$_Tree_temp_node_alloc@V?$allocator@U?$_Tree_node@U?$pair@$$CBKPAVCInstanceBase@@@std@@PAX@std@@@std@@@std@@QAE@AAV?$allocator@U?$_Tree_node@U?$pair@$$CBKPAVCInstanceBase@@@std@@PAX@std@@@1@@Z DD 019930522H
	DD	01H
	DD	FLAT:__unwindtable$??0?$_Tree_temp_node_alloc@V?$allocator@U?$_Tree_node@U?$pair@$$CBKPAVCInstanceBase@@@std@@PAX@std@@@std@@@std@@QAE@AAV?$allocator@U?$_Tree_node@U?$pair@$$CBKPAVCInstanceBase@@@std@@PAX@std@@@1@@Z
	DD	2 DUP(00H)
	DD	2 DUP(00H)
	DD	00H
	DD	01H
xdata$x	ENDS
;	COMDAT xdata$x
xdata$x	SEGMENT
__unwindtable$??$?0ABQAVCInstanceBase@@@?$_List_node_emplace_op2@V?$allocator@U?$_List_node@PAVCInstanceBase@@PAX@std@@@std@@@std@@QAE@AAV?$allocator@U?$_List_node@PAVCInstanceBase@@PAX@std@@@1@ABQAVCInstanceBase@@@Z DD 0ffffffffH
	DD	FLAT:__unwindfunclet$??$?0ABQAVCInstanceBase@@@?$_List_node_emplace_op2@V?$allocator@U?$_List_node@PAVCInstanceBase@@PAX@std@@@std@@@std@@QAE@AAV?$allocator@U?$_List_node@PAVCInstanceBase@@PAX@std@@@1@ABQAVCInstanceBase@@@Z$0
__ehfuncinfo$??$?0ABQAVCInstanceBase@@@?$_List_node_emplace_op2@V?$allocator@U?$_List_node@PAVCInstanceBase@@PAX@std@@@std@@@std@@QAE@AAV?$allocator@U?$_List_node@PAVCInstanceBase@@PAX@std@@@1@ABQAVCInstanceBase@@@Z DD 019930522H
	DD	01H
	DD	FLAT:__unwindtable$??$?0ABQAVCInstanceBase@@@?$_List_node_emplace_op2@V?$allocator@U?$_List_node@PAVCInstanceBase@@PAX@std@@@std@@@std@@QAE@AAV?$allocator@U?$_List_node@PAVCInstanceBase@@PAX@std@@@1@ABQAVCInstanceBase@@@Z
	DD	2 DUP(00H)
	DD	2 DUP(00H)
	DD	00H
	DD	01H
xdata$x	ENDS
;	COMDAT xdata$x
xdata$x	SEGMENT
__unwindtable$??$_Emplace@U?$pair@$$CBKPAVCInstanceBase@@@std@@@?$_Tree@V?$_Tmap_traits@KPAVCInstanceBase@@U?$less@K@std@@V?$allocator@U?$pair@$$CBKPAVCInstanceBase@@@std@@@3@$0A@@std@@@std@@IAE?AU?$pair@PAU?$_Tree_node@U?$pair@$$CBKPAVCInstanceBase@@@std@@PAX@std@@_N@1@$$QAU?$pair@$$CBKPAVCInstanceBase@@@1@@Z DD 0ffffffffH
	DD	FLAT:__unwindfunclet$??$_Emplace@U?$pair@$$CBKPAVCInstanceBase@@@std@@@?$_Tree@V?$_Tmap_traits@KPAVCInstanceBase@@U?$less@K@std@@V?$allocator@U?$pair@$$CBKPAVCInstanceBase@@@std@@@3@$0A@@std@@@std@@IAE?AU?$pair@PAU?$_Tree_node@U?$pair@$$CBKPAVCInstanceBase@@@std@@PAX@std@@_N@1@$$QAU?$pair@$$CBKPAVCInstanceBase@@@1@@Z$2
__ehfuncinfo$??$_Emplace@U?$pair@$$CBKPAVCInstanceBase@@@std@@@?$_Tree@V?$_Tmap_traits@KPAVCInstanceBase@@U?$less@K@std@@V?$allocator@U?$pair@$$CBKPAVCInstanceBase@@@std@@@3@$0A@@std@@@std@@IAE?AU?$pair@PAU?$_Tree_node@U?$pair@$$CBKPAVCInstanceBase@@@std@@PAX@std@@_N@1@$$QAU?$pair@$$CBKPAVCInstanceBase@@@1@@Z DD 019930522H
	DD	01H
	DD	FLAT:__unwindtable$??$_Emplace@U?$pair@$$CBKPAVCInstanceBase@@@std@@@?$_Tree@V?$_Tmap_traits@KPAVCInstanceBase@@U?$less@K@std@@V?$allocator@U?$pair@$$CBKPAVCInstanceBase@@@std@@@3@$0A@@std@@@std@@IAE?AU?$pair@PAU?$_Tree_node@U?$pair@$$CBKPAVCInstanceBase@@@std@@PAX@std@@_N@1@$$QAU?$pair@$$CBKPAVCInstanceBase@@@1@@Z
	DD	2 DUP(00H)
	DD	2 DUP(00H)
	DD	00H
	DD	01H
xdata$x	ENDS
;	COMDAT xdata$x
xdata$x	SEGMENT
__unwindtable$??$_Emplace@ABQAVCInstanceBase@@@?$list@PAVCInstanceBase@@V?$allocator@PAVCInstanceBase@@@std@@@std@@QAEPAU?$_List_node@PAVCInstanceBase@@PAX@1@QAU21@ABQAVCInstanceBase@@@Z DD 0ffffffffH
	DD	FLAT:__unwindfunclet$??$_Emplace@ABQAVCInstanceBase@@@?$list@PAVCInstanceBase@@V?$allocator@PAVCInstanceBase@@@std@@@std@@QAEPAU?$_List_node@PAVCInstanceBase@@PAX@1@QAU21@ABQAVCInstanceBase@@@Z$1
__ehfuncinfo$??$_Emplace@ABQAVCInstanceBase@@@?$list@PAVCInstanceBase@@V?$allocator@PAVCInstanceBase@@@std@@@std@@QAEPAU?$_List_node@PAVCInstanceBase@@PAX@1@QAU21@ABQAVCInstanceBase@@@Z DD 019930522H
	DD	01H
	DD	FLAT:__unwindtable$??$_Emplace@ABQAVCInstanceBase@@@?$list@PAVCInstanceBase@@V?$allocator@PAVCInstanceBase@@@std@@@std@@QAEPAU?$_List_node@PAVCInstanceBase@@PAX@1@QAU21@ABQAVCInstanceBase@@@Z
	DD	2 DUP(00H)
	DD	2 DUP(00H)
	DD	00H
	DD	01H
xdata$x	ENDS
;	COMDAT xdata$x
xdata$x	SEGMENT
__unwindtable$??$insert@$0A@$0A@@?$_Tree@V?$_Tmap_traits@KPAVCInstanceBase@@U?$less@K@std@@V?$allocator@U?$pair@$$CBKPAVCInstanceBase@@@std@@@3@$0A@@std@@@std@@QAE?AU?$pair@V?$_Tree_iterator@V?$_Tree_val@U?$_Tree_simple_types@U?$pair@$$CBKPAVCInstanceBase@@@std@@@std@@@std@@@std@@_N@1@$$QAU?$pair@$$CBKPAVCInstanceBase@@@1@@Z DD 0ffffffffH
	DD	FLAT:__unwindfunclet$??$insert@$0A@$0A@@?$_Tree@V?$_Tmap_traits@KPAVCInstanceBase@@U?$less@K@std@@V?$allocator@U?$pair@$$CBKPAVCInstanceBase@@@std@@@3@$0A@@std@@@std@@QAE?AU?$pair@V?$_Tree_iterator@V?$_Tree_val@U?$_Tree_simple_types@U?$pair@$$CBKPAVCInstanceBase@@@std@@@std@@@std@@@std@@_N@1@$$QAU?$pair@$$CBKPAVCInstanceBase@@@1@@Z$2
__ehfuncinfo$??$insert@$0A@$0A@@?$_Tree@V?$_Tmap_traits@KPAVCInstanceBase@@U?$less@K@std@@V?$allocator@U?$pair@$$CBKPAVCInstanceBase@@@std@@@3@$0A@@std@@@std@@QAE?AU?$pair@V?$_Tree_iterator@V?$_Tree_val@U?$_Tree_simple_types@U?$pair@$$CBKPAVCInstanceBase@@@std@@@std@@@std@@@std@@_N@1@$$QAU?$pair@$$CBKPAVCInstanceBase@@@1@@Z DD 019930522H
	DD	01H
	DD	FLAT:__unwindtable$??$insert@$0A@$0A@@?$_Tree@V?$_Tmap_traits@KPAVCInstanceBase@@U?$less@K@std@@V?$allocator@U?$pair@$$CBKPAVCInstanceBase@@@std@@@3@$0A@@std@@@std@@QAE?AU?$pair@V?$_Tree_iterator@V?$_Tree_val@U?$_Tree_simple_types@U?$pair@$$CBKPAVCInstanceBase@@@std@@@std@@@std@@@std@@_N@1@$$QAU?$pair@$$CBKPAVCInstanceBase@@@1@@Z
	DD	2 DUP(00H)
	DD	2 DUP(00H)
	DD	00H
	DD	01H
xdata$x	ENDS
;	COMDAT xdata$x
xdata$x	SEGMENT
__unwindtable$?push_back@?$list@PAVCInstanceBase@@V?$allocator@PAVCInstanceBase@@@std@@@std@@QAEXABQAVCInstanceBase@@@Z DD 0ffffffffH
	DD	FLAT:__unwindfunclet$?push_back@?$list@PAVCInstanceBase@@V?$allocator@PAVCInstanceBase@@@std@@@std@@QAEXABQAVCInstanceBase@@@Z$1
__ehfuncinfo$?push_back@?$list@PAVCInstanceBase@@V?$allocator@PAVCInstanceBase@@@std@@@std@@QAEXABQAVCInstanceBase@@@Z DD 019930522H
	DD	01H
	DD	FLAT:__unwindtable$?push_back@?$list@PAVCInstanceBase@@V?$allocator@PAVCInstanceBase@@@std@@@std@@QAEXABQAVCInstanceBase@@@Z
	DD	2 DUP(00H)
	DD	2 DUP(00H)
	DD	00H
	DD	01H
xdata$x	ENDS
;	COMDAT xdata$x
xdata$x	SEGMENT
__unwindtable$?__DeleteBlendOutInstance@CPythonCharacterManager@@IAEXPAVCInstanceBase@@@Z DD 0ffffffffH
	DD	FLAT:__unwindfunclet$?__DeleteBlendOutInstance@CPythonCharacterManager@@IAEXPAVCInstanceBase@@@Z$1
__ehfuncinfo$?__DeleteBlendOutInstance@CPythonCharacterManager@@IAEXPAVCInstanceBase@@@Z DD 019930522H
	DD	01H
	DD	FLAT:__unwindtable$?__DeleteBlendOutInstance@CPythonCharacterManager@@IAEXPAVCInstanceBase@@@Z
	DD	2 DUP(00H)
	DD	2 DUP(00H)
	DD	00H
	DD	01H
xdata$x	ENDS
;	COMDAT xdata$x
xdata$x	SEGMENT
__unwindtable$?RegisterInstance@CPythonCharacterManager@@QAEPAVCInstanceBase@@K@Z DD 0ffffffffH
	DD	FLAT:__unwindfunclet$?RegisterInstance@CPythonCharacterManager@@QAEPAVCInstanceBase@@K@Z$2
__ehfuncinfo$?RegisterInstance@CPythonCharacterManager@@QAEPAVCInstanceBase@@K@Z DD 019930522H
	DD	01H
	DD	FLAT:__unwindtable$?RegisterInstance@CPythonCharacterManager@@QAEPAVCInstanceBase@@K@Z
	DD	2 DUP(00H)
	DD	2 DUP(00H)
	DD	00H
	DD	01H
xdata$x	ENDS
;	COMDAT xdata$x
xdata$x	SEGMENT
__ehfuncinfo$??1CPythonCharacterManager@@UAE@XZ DD 019930522H
	DD	00H
	DD	00H
	DD	2 DUP(00H)
	DD	2 DUP(00H)
	DD	00H
	DD	05H
xdata$x	ENDS
;	COMDAT xdata$x
xdata$x	SEGMENT
__unwindtable$??0CPythonCharacterManager@@QAE@XZ DD 0ffffffffH
	DD	FLAT:__unwindfunclet$??0CPythonCharacterManager@@QAE@XZ$0
	DD	00H
	DD	FLAT:__unwindfunclet$??0CPythonCharacterManager@@QAE@XZ$1
	DD	01H
	DD	FLAT:__unwindfunclet$??0CPythonCharacterManager@@QAE@XZ$2
	DD	02H
	DD	FLAT:__unwindfunclet$??0CPythonCharacterManager@@QAE@XZ$3
__ehfuncinfo$??0CPythonCharacterManager@@QAE@XZ DD 019930522H
	DD	04H
	DD	FLAT:__unwindtable$??0CPythonCharacterManager@@QAE@XZ
	DD	2 DUP(00H)
	DD	2 DUP(00H)
	DD	00H
	DD	01H
xdata$x	ENDS
;	COMDAT CRT$XCU
CRT$XCU	SEGMENT
??ms_kPool$initializer$@?$CPooledObject@VCNullDecorator@NEffectUpdateDecorator@@@@1P6AXXZA@@3P6AXXZA DD FLAT:??__E?ms_kPool@?$CPooledObject@VCNullDecorator@NEffectUpdateDecorator@@@@1V?$CDynamicPoolEx@VCNullDecorator@NEffectUpdateDecorator@@@@A@@YAXXZ ; ??ms_kPool$initializer$@?$CPooledObject@VCNullDecorator@NEffectUpdateDecorator@@@@1P6AXXZA@@3P6AXXZA
CRT$XCU	ENDS
;	COMDAT CRT$XCU
CRT$XCU	SEGMENT
??ms_kPool$initializer$@?$CPooledObject@VCTextureAnimationCWDecorator@NEffectUpdateDecorator@@@@1P6AXXZA@@3P6AXXZA DD FLAT:??__E?ms_kPool@?$CPooledObject@VCTextureAnimationCWDecorator@NEffectUpdateDecorator@@@@1V?$CDynamicPoolEx@VCTextureAnimationCWDecorator@NEffectUpdateDecorator@@@@A@@YAXXZ ; ??ms_kPool$initializer$@?$CPooledObject@VCTextureAnimationCWDecorator@NEffectUpdateDecorator@@@@1P6AXXZA@@3P6AXXZA
CRT$XCU	ENDS
;	COMDAT CRT$XCU
CRT$XCU	SEGMENT
??ms_kPool$initializer$@?$CPooledObject@VCTextureAnimationCCWDecorator@NEffectUpdateDecorator@@@@1P6AXXZA@@3P6AXXZA DD FLAT:??__E?ms_kPool@?$CPooledObject@VCTextureAnimationCCWDecorator@NEffectUpdateDecorator@@@@1V?$CDynamicPoolEx@VCTextureAnimationCCWDecorator@NEffectUpdateDecorator@@@@A@@YAXXZ ; ??ms_kPool$initializer$@?$CPooledObject@VCTextureAnimationCCWDecorator@NEffectUpdateDecorator@@@@1P6AXXZA@@3P6AXXZA
CRT$XCU	ENDS
;	COMDAT CRT$XCU
CRT$XCU	SEGMENT
??ms_kPool$initializer$@?$CPooledObject@VCTextureAnimationRandomDecorator@NEffectUpdateDecorator@@@@1P6AXXZA@@3P6AXXZA DD FLAT:??__E?ms_kPool@?$CPooledObject@VCTextureAnimationRandomDecorator@NEffectUpdateDecorator@@@@1V?$CDynamicPoolEx@VCTextureAnimationRandomDecorator@NEffectUpdateDecorator@@@@A@@YAXXZ ; ??ms_kPool$initializer$@?$CPooledObject@VCTextureAnimationRandomDecorator@NEffectUpdateDecorator@@@@1P6AXXZA@@3P6AXXZA
CRT$XCU	ENDS
;	COMDAT CRT$XCU
CRT$XCU	SEGMENT
??ms_kPool$initializer$@?$CPooledObject@VCAirResistanceDecorator@NEffectUpdateDecorator@@@@1P6AXXZA@@3P6AXXZA DD FLAT:??__E?ms_kPool@?$CPooledObject@VCAirResistanceDecorator@NEffectUpdateDecorator@@@@1V?$CDynamicPoolEx@VCAirResistanceDecorator@NEffectUpdateDecorator@@@@A@@YAXXZ ; ??ms_kPool$initializer$@?$CPooledObject@VCAirResistanceDecorator@NEffectUpdateDecorator@@@@1P6AXXZA@@3P6AXXZA
CRT$XCU	ENDS
;	COMDAT CRT$XCU
CRT$XCU	SEGMENT
??ms_kPool$initializer$@?$CPooledObject@VCGravityDecorator@NEffectUpdateDecorator@@@@1P6AXXZA@@3P6AXXZA DD FLAT:??__E?ms_kPool@?$CPooledObject@VCGravityDecorator@NEffectUpdateDecorator@@@@1V?$CDynamicPoolEx@VCGravityDecorator@NEffectUpdateDecorator@@@@A@@YAXXZ ; ??ms_kPool$initializer$@?$CPooledObject@VCGravityDecorator@NEffectUpdateDecorator@@@@1P6AXXZA@@3P6AXXZA
CRT$XCU	ENDS
;	COMDAT CRT$XCU
CRT$XCU	SEGMENT
??ms_kPool$initializer$@?$CPooledObject@VCRotationDecorator@NEffectUpdateDecorator@@@@1P6AXXZA@@3P6AXXZA DD FLAT:??__E?ms_kPool@?$CPooledObject@VCRotationDecorator@NEffectUpdateDecorator@@@@1V?$CDynamicPoolEx@VCRotationDecorator@NEffectUpdateDecorator@@@@A@@YAXXZ ; ??ms_kPool$initializer$@?$CPooledObject@VCRotationDecorator@NEffectUpdateDecorator@@@@1P6AXXZA@@3P6AXXZA
CRT$XCU	ENDS
; Function compile flags: /Odsp
;	COMDAT ??_ECPythonCharacterManager@@W7AEPAXI@Z
_TEXT	SEGMENT
??_ECPythonCharacterManager@@W7AEPAXI@Z PROC		; [thunk]:CPythonCharacterManager::`vector deleting destructor', COMDAT
  00000	83 e9 08	 sub	 ecx, 8
  00003	e9 00 00 00 00	 jmp	 ??_ECPythonCharacterManager@@UAEPAXI@Z
??_ECPythonCharacterManager@@W7AEPAXI@Z ENDP		; [thunk]:CPythonCharacterManager::`vector deleting destructor'
_TEXT	ENDS
; Function compile flags: /Odsp
;	COMDAT ??_ECPythonCharacterManager@@W3AEPAXI@Z
_TEXT	SEGMENT
??_ECPythonCharacterManager@@W3AEPAXI@Z PROC		; [thunk]:CPythonCharacterManager::`vector deleting destructor', COMDAT
  00000	83 e9 04	 sub	 ecx, 4
  00003	e9 00 00 00 00	 jmp	 ??_ECPythonCharacterManager@@UAEPAXI@Z
??_ECPythonCharacterManager@@W3AEPAXI@Z ENDP		; [thunk]:CPythonCharacterManager::`vector deleting destructor'
_TEXT	ENDS
; Function compile flags: /Ogtp
; File C:\Program Files (x86)\Microsoft Visual Studio\2019\Community\VC\Tools\MSVC\14.28.29333\include\algorithm
; File C:\Program Files (x86)\Microsoft Visual Studio\2019\Community\VC\Tools\MSVC\14.28.29333\include\xutility
; File C:\Program Files (x86)\Microsoft Visual Studio\2019\Community\VC\Tools\MSVC\14.28.29333\include\algorithm
; File C:\Program Files (x86)\Microsoft Visual Studio\2019\Community\VC\Tools\MSVC\14.28.29333\include\xutility
; File C:\Program Files (x86)\Microsoft Visual Studio\2019\Community\VC\Tools\MSVC\14.28.29333\include\algorithm
; File C:\Program Files (x86)\Microsoft Visual Studio\2019\Community\VC\Tools\MSVC\14.28.29333\include\xutility
; File D:\Metin2 Server Files\mainline\SRC_2014\Metin2Client\UserInterface\PythonCharacterManager.cpp
; File C:\Program Files (x86)\Microsoft Visual Studio\2019\Community\VC\Tools\MSVC\14.28.29333\include\xutility
; File D:\Metin2 Server Files\mainline\SRC_2014\Metin2Client\UserInterface\PythonCharacterManager.cpp
; File C:\Program Files (x86)\Microsoft Visual Studio\2019\Community\VC\Tools\MSVC\14.28.29333\include\utility
; File C:\Program Files (x86)\Microsoft Visual Studio\2019\Community\VC\Tools\MSVC\14.28.29333\include\xutility
; File D:\Metin2 Server Files\mainline\SRC_2014\Metin2Client\UserInterface\PythonCharacterManager.cpp
; File C:\Program Files (x86)\Microsoft Visual Studio\2019\Community\VC\Tools\MSVC\14.28.29333\include\xutility
; File D:\Metin2 Server Files\mainline\SRC_2014\Metin2Client\UserInterface\PythonCharacterManager.cpp
; File C:\Program Files (x86)\Microsoft Visual Studio\2019\Community\VC\Tools\MSVC\14.28.29333\include\utility
; File D:\Metin2 Server Files\mainline\SRC_2014\Metin2Client\UserInterface\PythonCharacterManager.cpp
; File C:\Program Files (x86)\Microsoft Visual Studio\2019\Community\VC\Tools\MSVC\14.28.29333\include\utility
; File C:\Program Files (x86)\Microsoft Visual Studio\2019\Community\VC\Tools\MSVC\14.28.29333\include\xutility
; File C:\Program Files (x86)\Microsoft Visual Studio\2019\Community\VC\Tools\MSVC\14.28.29333\include\utility
; File C:\Program Files (x86)\Microsoft Visual Studio\2019\Community\VC\Tools\MSVC\14.28.29333\include\xutility
; File D:\Metin2 Server Files\mainline\SRC_2014\Metin2Client\UserInterface\PythonCharacterManager.cpp
; File C:\Program Files (x86)\Microsoft Visual Studio\2019\Community\VC\Tools\MSVC\14.28.29333\include\utility
; File C:\Program Files (x86)\Microsoft Visual Studio\2019\Community\VC\Tools\MSVC\14.28.29333\include\algorithm
;	COMDAT ??$_Med3_unchecked@PAPAVCInstanceBase@@U?$_Ref_fn@UCInstanceBase_SLessCameraDistance@@@std@@@std@@YAXPAPAVCInstanceBase@@00U?$_Ref_fn@UCInstanceBase_SLessCameraDistance@@@0@@Z
_TEXT	SEGMENT
_pkInstLeft$1$ = -4					; size = 4
_pkInstLeft$1$ = -4					; size = 4
_this$1$ = 8						; size = 4
_pkInstRight$1$ = 8					; size = 4
tv227 = 8						; size = 4
tv216 = 8						; size = 4
tv177 = 8						; size = 4
_pkInstRight$1$ = 8					; size = 4
__First$ = 8						; size = 4
__Tmp$1$ = 12						; size = 4
_this$1$ = 12						; size = 4
tv231 = 12						; size = 4
tv220 = 12						; size = 4
_this$1$ = 12						; size = 4
__Mid$ = 12						; size = 4
_pkInstRight$1$ = 16					; size = 4
__Last$ = 16						; size = 4
tv206 = 20						; size = 4
__Pred$ = 20						; size = 4
??$_Med3_unchecked@PAPAVCInstanceBase@@U?$_Ref_fn@UCInstanceBase_SLessCameraDistance@@@std@@@std@@YAXPAPAVCInstanceBase@@00U?$_Ref_fn@UCInstanceBase_SLessCameraDistance@@@0@@Z PROC ; std::_Med3_unchecked<CInstanceBase * *,std::_Ref_fn<CInstanceBase_SLessCameraDistance> >, COMDAT

; 7434 : _CONSTEXPR20 void _Med3_unchecked(_RanIt _First, _RanIt _Mid, _RanIt _Last, _Pr _Pred) {

  00000	55		 push	 ebp
  00001	8b ec		 mov	 ebp, esp
  00003	51		 push	 ecx
; File C:\Program Files (x86)\Microsoft Visual Studio\2019\Community\VC\Tools\MSVC\14.28.29333\include\xutility

; 203  :             return _Fn(_STD forward<_Args>(_Vals)...);

  00004	8b 4d 14	 mov	 ecx, DWORD PTR __Pred$[ebp]
; File C:\Program Files (x86)\Microsoft Visual Studio\2019\Community\VC\Tools\MSVC\14.28.29333\include\algorithm

; 7434 : _CONSTEXPR20 void _Med3_unchecked(_RanIt _First, _RanIt _Mid, _RanIt _Last, _Pr _Pred) {

  00007	53		 push	 ebx
; File C:\Program Files (x86)\Microsoft Visual Studio\2019\Community\VC\Tools\MSVC\14.28.29333\include\xutility

; 203  :             return _Fn(_STD forward<_Args>(_Vals)...);

  00008	8b 5d 08	 mov	 ebx, DWORD PTR __First$[ebp]
; File C:\Program Files (x86)\Microsoft Visual Studio\2019\Community\VC\Tools\MSVC\14.28.29333\include\algorithm

; 7434 : _CONSTEXPR20 void _Med3_unchecked(_RanIt _First, _RanIt _Mid, _RanIt _Last, _Pr _Pred) {

  0000b	56		 push	 esi
  0000c	57		 push	 edi
; File C:\Program Files (x86)\Microsoft Visual Studio\2019\Community\VC\Tools\MSVC\14.28.29333\include\xutility

; 203  :             return _Fn(_STD forward<_Args>(_Vals)...);

  0000d	8b 7d 0c	 mov	 edi, DWORD PTR __Mid$[ebp]
  00010	8b 03		 mov	 eax, DWORD PTR [ebx]
  00012	89 45 08	 mov	 DWORD PTR _pkInstRight$1$[ebp], eax
  00015	89 4d 0c	 mov	 DWORD PTR _this$1$[ebp], ecx
  00018	8b 07		 mov	 eax, DWORD PTR [edi]
; File D:\Metin2 Server Files\mainline\SRC_2014\Metin2Client\UserInterface\PythonCharacterManager.cpp

; 714  : 		int nLeftDeadPoint=pkInstLeft->IsDead();

  0001a	8b c8		 mov	 ecx, eax
; File C:\Program Files (x86)\Microsoft Visual Studio\2019\Community\VC\Tools\MSVC\14.28.29333\include\xutility

; 203  :             return _Fn(_STD forward<_Args>(_Vals)...);

  0001c	89 45 fc	 mov	 DWORD PTR _pkInstLeft$1$[ebp], eax
; File D:\Metin2 Server Files\mainline\SRC_2014\Metin2Client\UserInterface\PythonCharacterManager.cpp

; 714  : 		int nLeftDeadPoint=pkInstLeft->IsDead();

  0001f	e8 00 00 00 00	 call	 ?IsDead@CInstanceBase@@QAEHXZ ; CInstanceBase::IsDead

; 715  : 		int nRightDeadPoint=pkInstRight->IsDead();

  00024	8b 4d 08	 mov	 ecx, DWORD PTR _pkInstRight$1$[ebp]
  00027	8b f0		 mov	 esi, eax
  00029	e8 00 00 00 00	 call	 ?IsDead@CInstanceBase@@QAEHXZ ; CInstanceBase::IsDead

; 716  : 
; 717  : 		if (nLeftDeadPoint<nRightDeadPoint)

  0002e	3b f0		 cmp	 esi, eax
  00030	7c 26		 jl	 SHORT $LN37@Med3_unche

; 718  : 			return true;
; 719  : 
; 720  : 		if (pkInstLeft->CalculateDistanceSq3d(m_kPPosEye)<pkInstRight->CalculateDistanceSq3d(m_kPPosEye))

  00032	8b 75 0c	 mov	 esi, DWORD PTR _this$1$[ebp]
  00035	8b 4d fc	 mov	 ecx, DWORD PTR _pkInstLeft$1$[ebp]
  00038	56		 push	 esi
  00039	e8 00 00 00 00	 call	 ?CalculateDistanceSq3d@CInstanceBase@@QAEMABUD3DXVECTOR3@@@Z ; CInstanceBase::CalculateDistanceSq3d
  0003e	8b 4d 08	 mov	 ecx, DWORD PTR _pkInstRight$1$[ebp]
  00041	d9 5d 0c	 fstp	 DWORD PTR tv231[ebp]
  00044	56		 push	 esi
  00045	e8 00 00 00 00	 call	 ?CalculateDistanceSq3d@CInstanceBase@@QAEMABUD3DXVECTOR3@@@Z ; CInstanceBase::CalculateDistanceSq3d
  0004a	d9 5d 08	 fstp	 DWORD PTR tv227[ebp]
  0004d	f3 0f 10 45 08	 movss	 xmm0, DWORD PTR tv227[ebp]
  00052	0f 2f 45 0c	 comiss	 xmm0, DWORD PTR tv231[ebp]
  00056	76 08		 jbe	 SHORT $LN36@Med3_unche
$LN37@Med3_unche:
; File C:\Program Files (x86)\Microsoft Visual Studio\2019\Community\VC\Tools\MSVC\14.28.29333\include\utility

; 104  :     _Ty _Tmp = _STD move(_Left);

  00058	8b 0f		 mov	 ecx, DWORD PTR [edi]

; 105  :     _Left    = _STD move(_Right);

  0005a	8b 03		 mov	 eax, DWORD PTR [ebx]
  0005c	89 07		 mov	 DWORD PTR [edi], eax

; 106  :     _Right   = _STD move(_Tmp);

  0005e	89 0b		 mov	 DWORD PTR [ebx], ecx
$LN36@Med3_unche:
; File C:\Program Files (x86)\Microsoft Visual Studio\2019\Community\VC\Tools\MSVC\14.28.29333\include\xutility

; 203  :             return _Fn(_STD forward<_Args>(_Vals)...);

  00060	8b 07		 mov	 eax, DWORD PTR [edi]
  00062	8b 4d 14	 mov	 ecx, DWORD PTR __Pred$[ebp]
  00065	89 45 08	 mov	 DWORD PTR _pkInstRight$1$[ebp], eax
  00068	8b 45 10	 mov	 eax, DWORD PTR __Last$[ebp]
  0006b	89 4d 0c	 mov	 DWORD PTR _this$1$[ebp], ecx
  0006e	8b 00		 mov	 eax, DWORD PTR [eax]
; File D:\Metin2 Server Files\mainline\SRC_2014\Metin2Client\UserInterface\PythonCharacterManager.cpp

; 714  : 		int nLeftDeadPoint=pkInstLeft->IsDead();

  00070	8b c8		 mov	 ecx, eax
; File C:\Program Files (x86)\Microsoft Visual Studio\2019\Community\VC\Tools\MSVC\14.28.29333\include\xutility

; 203  :             return _Fn(_STD forward<_Args>(_Vals)...);

  00072	89 45 fc	 mov	 DWORD PTR _pkInstLeft$1$[ebp], eax
; File D:\Metin2 Server Files\mainline\SRC_2014\Metin2Client\UserInterface\PythonCharacterManager.cpp

; 714  : 		int nLeftDeadPoint=pkInstLeft->IsDead();

  00075	e8 00 00 00 00	 call	 ?IsDead@CInstanceBase@@QAEHXZ ; CInstanceBase::IsDead

; 715  : 		int nRightDeadPoint=pkInstRight->IsDead();

  0007a	8b 4d 08	 mov	 ecx, DWORD PTR _pkInstRight$1$[ebp]
  0007d	8b f0		 mov	 esi, eax
  0007f	e8 00 00 00 00	 call	 ?IsDead@CInstanceBase@@QAEHXZ ; CInstanceBase::IsDead

; 716  : 
; 717  : 		if (nLeftDeadPoint<nRightDeadPoint)

  00084	3b f0		 cmp	 esi, eax
  00086	7c 26		 jl	 SHORT $LN38@Med3_unche

; 718  : 			return true;
; 719  : 
; 720  : 		if (pkInstLeft->CalculateDistanceSq3d(m_kPPosEye)<pkInstRight->CalculateDistanceSq3d(m_kPPosEye))

  00088	8b 75 0c	 mov	 esi, DWORD PTR _this$1$[ebp]
  0008b	8b 4d fc	 mov	 ecx, DWORD PTR _pkInstLeft$1$[ebp]
  0008e	56		 push	 esi
  0008f	e8 00 00 00 00	 call	 ?CalculateDistanceSq3d@CInstanceBase@@QAEMABUD3DXVECTOR3@@@Z ; CInstanceBase::CalculateDistanceSq3d
  00094	8b 4d 08	 mov	 ecx, DWORD PTR _pkInstRight$1$[ebp]
  00097	d9 5d 0c	 fstp	 DWORD PTR tv220[ebp]
  0009a	56		 push	 esi
  0009b	e8 00 00 00 00	 call	 ?CalculateDistanceSq3d@CInstanceBase@@QAEMABUD3DXVECTOR3@@@Z ; CInstanceBase::CalculateDistanceSq3d
  000a0	d9 5d 08	 fstp	 DWORD PTR tv216[ebp]
  000a3	f3 0f 10 45 08	 movss	 xmm0, DWORD PTR tv216[ebp]
  000a8	0f 2f 45 0c	 comiss	 xmm0, DWORD PTR tv220[ebp]
  000ac	76 5c		 jbe	 SHORT $LN35@Med3_unche
$LN38@Med3_unche:
; File C:\Program Files (x86)\Microsoft Visual Studio\2019\Community\VC\Tools\MSVC\14.28.29333\include\utility

; 104  :     _Ty _Tmp = _STD move(_Left);

  000ae	8b 4d 10	 mov	 ecx, DWORD PTR __Last$[ebp]

; 105  :     _Left    = _STD move(_Right);

  000b1	8b 07		 mov	 eax, DWORD PTR [edi]
  000b3	8b 11		 mov	 edx, DWORD PTR [ecx]
  000b5	89 01		 mov	 DWORD PTR [ecx], eax
; File D:\Metin2 Server Files\mainline\SRC_2014\Metin2Client\UserInterface\PythonCharacterManager.cpp

; 714  : 		int nLeftDeadPoint=pkInstLeft->IsDead();

  000b7	8b ca		 mov	 ecx, edx
; File C:\Program Files (x86)\Microsoft Visual Studio\2019\Community\VC\Tools\MSVC\14.28.29333\include\utility

; 106  :     _Right   = _STD move(_Tmp);

  000b9	89 17		 mov	 DWORD PTR [edi], edx
; File C:\Program Files (x86)\Microsoft Visual Studio\2019\Community\VC\Tools\MSVC\14.28.29333\include\xutility

; 203  :             return _Fn(_STD forward<_Args>(_Vals)...);

  000bb	8b 03		 mov	 eax, DWORD PTR [ebx]
  000bd	89 45 10	 mov	 DWORD PTR _pkInstRight$1$[ebp], eax
  000c0	8b 45 14	 mov	 eax, DWORD PTR __Pred$[ebp]
; File C:\Program Files (x86)\Microsoft Visual Studio\2019\Community\VC\Tools\MSVC\14.28.29333\include\utility

; 104  :     _Ty _Tmp = _STD move(_Left);

  000c3	89 55 0c	 mov	 DWORD PTR __Tmp$1$[ebp], edx
; File C:\Program Files (x86)\Microsoft Visual Studio\2019\Community\VC\Tools\MSVC\14.28.29333\include\xutility

; 203  :             return _Fn(_STD forward<_Args>(_Vals)...);

  000c6	89 45 08	 mov	 DWORD PTR _this$1$[ebp], eax
; File D:\Metin2 Server Files\mainline\SRC_2014\Metin2Client\UserInterface\PythonCharacterManager.cpp

; 714  : 		int nLeftDeadPoint=pkInstLeft->IsDead();

  000c9	e8 00 00 00 00	 call	 ?IsDead@CInstanceBase@@QAEHXZ ; CInstanceBase::IsDead

; 715  : 		int nRightDeadPoint=pkInstRight->IsDead();

  000ce	8b 4d 10	 mov	 ecx, DWORD PTR _pkInstRight$1$[ebp]
  000d1	8b f0		 mov	 esi, eax
  000d3	e8 00 00 00 00	 call	 ?IsDead@CInstanceBase@@QAEHXZ ; CInstanceBase::IsDead

; 716  : 
; 717  : 		if (nLeftDeadPoint<nRightDeadPoint)

  000d8	3b f0		 cmp	 esi, eax
  000da	7c 26		 jl	 SHORT $LN39@Med3_unche

; 718  : 			return true;
; 719  : 
; 720  : 		if (pkInstLeft->CalculateDistanceSq3d(m_kPPosEye)<pkInstRight->CalculateDistanceSq3d(m_kPPosEye))

  000dc	8b 75 08	 mov	 esi, DWORD PTR _this$1$[ebp]
  000df	8b 4d 0c	 mov	 ecx, DWORD PTR __Tmp$1$[ebp]
  000e2	56		 push	 esi
  000e3	e8 00 00 00 00	 call	 ?CalculateDistanceSq3d@CInstanceBase@@QAEMABUD3DXVECTOR3@@@Z ; CInstanceBase::CalculateDistanceSq3d
  000e8	8b 4d 10	 mov	 ecx, DWORD PTR _pkInstRight$1$[ebp]
  000eb	d9 5d 08	 fstp	 DWORD PTR tv177[ebp]
  000ee	56		 push	 esi
  000ef	e8 00 00 00 00	 call	 ?CalculateDistanceSq3d@CInstanceBase@@QAEMABUD3DXVECTOR3@@@Z ; CInstanceBase::CalculateDistanceSq3d
  000f4	d9 5d 14	 fstp	 DWORD PTR tv206[ebp]
  000f7	f3 0f 10 45 14	 movss	 xmm0, DWORD PTR tv206[ebp]
  000fc	0f 2f 45 08	 comiss	 xmm0, DWORD PTR tv177[ebp]
  00100	76 08		 jbe	 SHORT $LN35@Med3_unche
$LN39@Med3_unche:
; File C:\Program Files (x86)\Microsoft Visual Studio\2019\Community\VC\Tools\MSVC\14.28.29333\include\utility

; 104  :     _Ty _Tmp = _STD move(_Left);

  00102	8b 0f		 mov	 ecx, DWORD PTR [edi]

; 105  :     _Left    = _STD move(_Right);

  00104	8b 03		 mov	 eax, DWORD PTR [ebx]
  00106	89 07		 mov	 DWORD PTR [edi], eax

; 106  :     _Right   = _STD move(_Tmp);

  00108	89 0b		 mov	 DWORD PTR [ebx], ecx
$LN35@Med3_unche:
  0010a	5f		 pop	 edi
; File C:\Program Files (x86)\Microsoft Visual Studio\2019\Community\VC\Tools\MSVC\14.28.29333\include\algorithm

; 7447 : }

  0010b	5e		 pop	 esi
  0010c	5b		 pop	 ebx
  0010d	8b e5		 mov	 esp, ebp
  0010f	5d		 pop	 ebp
  00110	c3		 ret	 0
??$_Med3_unchecked@PAPAVCInstanceBase@@U?$_Ref_fn@UCInstanceBase_SLessCameraDistance@@@std@@@std@@YAXPAPAVCInstanceBase@@00U?$_Ref_fn@UCInstanceBase_SLessCameraDistance@@@0@@Z ENDP ; std::_Med3_unchecked<CInstanceBase * *,std::_Ref_fn<CInstanceBase_SLessCameraDistance> >
_TEXT	ENDS
; Function compile flags: /Ogtp
; File C:\Program Files (x86)\Microsoft Visual Studio\2019\Community\VC\Tools\MSVC\14.28.29333\include\xutility
;	COMDAT ??$_Copy_backward_memmove@PAPAVCInstanceBase@@PAPAV1@@std@@YAPAPAVCInstanceBase@@PAPAV1@00@Z
_TEXT	SEGMENT
__First$ = 8						; size = 4
__Last$ = 12						; size = 4
__Dest$ = 16						; size = 4
??$_Copy_backward_memmove@PAPAVCInstanceBase@@PAPAV1@@std@@YAPAPAVCInstanceBase@@PAPAV1@00@Z PROC ; std::_Copy_backward_memmove<CInstanceBase * *,CInstanceBase * *>, COMDAT

; 4535 : _BidIt2 _Copy_backward_memmove(_BidIt1 _First, _BidIt1 _Last, _BidIt2 _Dest) {

  00000	55		 push	 ebp
  00001	8b ec		 mov	 ebp, esp

; 4536 :     // implement copy_backward-like function as memmove
; 4537 :     const char* const _First_ch = const_cast<const char*>(reinterpret_cast<const volatile char*>(_First));
; 4538 :     const char* const _Last_ch  = const_cast<const char*>(reinterpret_cast<const volatile char*>(_Last));
; 4539 :     char* const _Dest_ch        = const_cast<char*>(reinterpret_cast<volatile char*>(_Dest));
; 4540 :     const auto _Count           = static_cast<size_t>(_Last_ch - _First_ch);

  00003	8b 45 08	 mov	 eax, DWORD PTR __First$[ebp]
  00006	8b 4d 0c	 mov	 ecx, DWORD PTR __Last$[ebp]
  00009	2b c8		 sub	 ecx, eax

; 4541 :     return static_cast<_BidIt2>(_CSTD memmove(_Dest_ch - _Count, _First_ch, _Count));

  0000b	51		 push	 ecx
  0000c	50		 push	 eax
  0000d	8b 45 10	 mov	 eax, DWORD PTR __Dest$[ebp]
  00010	2b c1		 sub	 eax, ecx
  00012	50		 push	 eax
  00013	e8 00 00 00 00	 call	 _memmove
  00018	83 c4 0c	 add	 esp, 12			; 0000000cH

; 4542 : }

  0001b	5d		 pop	 ebp
  0001c	c3		 ret	 0
??$_Copy_backward_memmove@PAPAVCInstanceBase@@PAPAV1@@std@@YAPAPAVCInstanceBase@@PAPAV1@00@Z ENDP ; std::_Copy_backward_memmove<CInstanceBase * *,CInstanceBase * *>
_TEXT	ENDS
; Function compile flags: /Ogtp
; File C:\Program Files (x86)\Microsoft Visual Studio\2019\Community\VC\Tools\MSVC\14.28.29333\include\algorithm
; File C:\Program Files (x86)\Microsoft Visual Studio\2019\Community\VC\Tools\MSVC\14.28.29333\include\xutility
; File C:\Program Files (x86)\Microsoft Visual Studio\2019\Community\VC\Tools\MSVC\14.28.29333\include\algorithm
; File C:\Program Files (x86)\Microsoft Visual Studio\2019\Community\VC\Tools\MSVC\14.28.29333\include\xutility
; File D:\Metin2 Server Files\mainline\SRC_2014\Metin2Client\UserInterface\PythonCharacterManager.cpp
; File C:\Program Files (x86)\Microsoft Visual Studio\2019\Community\VC\Tools\MSVC\14.28.29333\include\xutility
; File D:\Metin2 Server Files\mainline\SRC_2014\Metin2Client\UserInterface\PythonCharacterManager.cpp
; File C:\Program Files (x86)\Microsoft Visual Studio\2019\Community\VC\Tools\MSVC\14.28.29333\include\algorithm
; File C:\Program Files (x86)\Microsoft Visual Studio\2019\Community\VC\Tools\MSVC\14.28.29333\include\xutility
; File C:\Program Files (x86)\Microsoft Visual Studio\2019\Community\VC\Tools\MSVC\14.28.29333\include\algorithm
; File C:\Program Files (x86)\Microsoft Visual Studio\2019\Community\VC\Tools\MSVC\14.28.29333\include\xutility
; File D:\Metin2 Server Files\mainline\SRC_2014\Metin2Client\UserInterface\PythonCharacterManager.cpp
; File C:\Program Files (x86)\Microsoft Visual Studio\2019\Community\VC\Tools\MSVC\14.28.29333\include\xutility
; File D:\Metin2 Server Files\mainline\SRC_2014\Metin2Client\UserInterface\PythonCharacterManager.cpp
; File C:\Program Files (x86)\Microsoft Visual Studio\2019\Community\VC\Tools\MSVC\14.28.29333\include\algorithm
;	COMDAT ??$_Pop_heap_hole_by_index@PAPAVCInstanceBase@@PAV1@U?$_Ref_fn@UCInstanceBase_SLessCameraDistance@@@std@@@std@@YAXPAPAVCInstanceBase@@HH$$QAPAV1@U?$_Ref_fn@UCInstanceBase_SLessCameraDistance@@@0@@Z
_TEXT	SEGMENT
__Idx$1$ = -20						; size = 4
tv422 = -20						; size = 4
__Max_sequence_non_leaf$1$ = -16			; size = 4
tv421 = -12						; size = 4
_pkInstLeft$1$ = -8					; size = 4
__Top$1$ = -4						; size = 4
_pkInstLeft$1$ = 8					; size = 4
_this$1$ = 8						; size = 4
tv448 = 8						; size = 4
tv192 = 8						; size = 4
__First$ = 8						; size = 4
_pkInstRight$1$ = 12					; size = 4
tv444 = 12						; size = 4
__Hole$ = 12						; size = 4
_pkInstRight$1$ = 16					; size = 4
tv430 = 16						; size = 4
__Bottom$ = 16						; size = 4
__Val$ = 20						; size = 4
__Pred$ = 24						; size = 4
??$_Pop_heap_hole_by_index@PAPAVCInstanceBase@@PAV1@U?$_Ref_fn@UCInstanceBase_SLessCameraDistance@@@std@@@std@@YAXPAPAVCInstanceBase@@HH$$QAPAV1@U?$_Ref_fn@UCInstanceBase_SLessCameraDistance@@@0@@Z PROC ; std::_Pop_heap_hole_by_index<CInstanceBase * *,CInstanceBase *,std::_Ref_fn<CInstanceBase_SLessCameraDistance> >, COMDAT

; 6186 :     _RanIt _First, _Iter_diff_t<_RanIt> _Hole, _Iter_diff_t<_RanIt> _Bottom, _Ty&& _Val, _Pr _Pred) {

  00000	55		 push	 ebp
  00001	8b ec		 mov	 ebp, esp
  00003	83 ec 14	 sub	 esp, 20			; 00000014H
  00006	53		 push	 ebx

; 6187 :     // percolate _Hole to _Bottom, then push _Val
; 6188 :     _STL_INTERNAL_CHECK(_Bottom > 0);
; 6189 : 
; 6190 :     using _Diff      = _Iter_diff_t<_RanIt>;
; 6191 :     const _Diff _Top = _Hole;
; 6192 :     _Diff _Idx       = _Hole;
; 6193 : 
; 6194 :     // Check whether _Idx can have a child before calculating that child's index, since
; 6195 :     // calculating the child's index can trigger integer overflows
; 6196 :     const _Diff _Max_sequence_non_leaf = (_Bottom - 1) >> 1; // shift for codegen
; 6197 :     while (_Idx < _Max_sequence_non_leaf) { // move _Hole down to larger child

  00007	8b 5d 08	 mov	 ebx, DWORD PTR __First$[ebp]
  0000a	56		 push	 esi
  0000b	8b 75 10	 mov	 esi, DWORD PTR __Bottom$[ebp]
  0000e	4e		 dec	 esi
  0000f	8b c6		 mov	 eax, esi
  00011	89 75 ec	 mov	 DWORD PTR tv422[ebp], esi
  00014	57		 push	 edi
  00015	8b 7d 0c	 mov	 edi, DWORD PTR __Hole$[ebp]
  00018	8b d7		 mov	 edx, edi
  0001a	d1 f8		 sar	 eax, 1
  0001c	8b cf		 mov	 ecx, edi
  0001e	89 55 fc	 mov	 DWORD PTR __Top$1$[ebp], edx
  00021	89 45 f0	 mov	 DWORD PTR __Max_sequence_non_leaf$1$[ebp], eax
  00024	3b f8		 cmp	 edi, eax
  00026	0f 8d 81 00 00
	00		 jge	 $LN3@Pop_heap_h
  0002c	0f 1f 40 00	 npad	 4
$LL2@Pop_heap_h:

; 6198 :         _Idx = 2 * _Idx + 2;

  00030	8d 04 09	 lea	 eax, DWORD PTR [ecx+ecx]
; File C:\Program Files (x86)\Microsoft Visual Studio\2019\Community\VC\Tools\MSVC\14.28.29333\include\xutility

; 203  :             return _Fn(_STD forward<_Args>(_Vals)...);

  00033	8b 4c 83 04	 mov	 ecx, DWORD PTR [ebx+eax*4+4]
  00037	89 4d 0c	 mov	 DWORD PTR _pkInstRight$1$[ebp], ecx
  0003a	8b 4d 18	 mov	 ecx, DWORD PTR __Pred$[ebp]
; File C:\Program Files (x86)\Microsoft Visual Studio\2019\Community\VC\Tools\MSVC\14.28.29333\include\algorithm

; 6198 :         _Idx = 2 * _Idx + 2;

  0003d	89 45 f4	 mov	 DWORD PTR tv421[ebp], eax
; File C:\Program Files (x86)\Microsoft Visual Studio\2019\Community\VC\Tools\MSVC\14.28.29333\include\xutility

; 203  :             return _Fn(_STD forward<_Args>(_Vals)...);

  00040	8b 44 83 08	 mov	 eax, DWORD PTR [ebx+eax*4+8]
  00044	89 4d 08	 mov	 DWORD PTR _this$1$[ebp], ecx
; File D:\Metin2 Server Files\mainline\SRC_2014\Metin2Client\UserInterface\PythonCharacterManager.cpp

; 714  : 		int nLeftDeadPoint=pkInstLeft->IsDead();

  00047	8b c8		 mov	 ecx, eax
; File C:\Program Files (x86)\Microsoft Visual Studio\2019\Community\VC\Tools\MSVC\14.28.29333\include\xutility

; 203  :             return _Fn(_STD forward<_Args>(_Vals)...);

  00049	89 45 f8	 mov	 DWORD PTR _pkInstLeft$1$[ebp], eax
; File D:\Metin2 Server Files\mainline\SRC_2014\Metin2Client\UserInterface\PythonCharacterManager.cpp

; 714  : 		int nLeftDeadPoint=pkInstLeft->IsDead();

  0004c	e8 00 00 00 00	 call	 ?IsDead@CInstanceBase@@QAEHXZ ; CInstanceBase::IsDead

; 715  : 		int nRightDeadPoint=pkInstRight->IsDead();

  00051	8b 4d 0c	 mov	 ecx, DWORD PTR _pkInstRight$1$[ebp]
  00054	8b f0		 mov	 esi, eax
  00056	e8 00 00 00 00	 call	 ?IsDead@CInstanceBase@@QAEHXZ ; CInstanceBase::IsDead

; 716  : 
; 717  : 		if (nLeftDeadPoint<nRightDeadPoint)

  0005b	3b f0		 cmp	 esi, eax
  0005d	7d 07		 jge	 SHORT $LN10@Pop_heap_h

; 718  : 			return true;

  0005f	b8 01 00 00 00	 mov	 eax, 1
  00064	eb 2a		 jmp	 SHORT $LN11@Pop_heap_h
$LN10@Pop_heap_h:

; 719  : 
; 720  : 		if (pkInstLeft->CalculateDistanceSq3d(m_kPPosEye)<pkInstRight->CalculateDistanceSq3d(m_kPPosEye))

  00066	8b 75 08	 mov	 esi, DWORD PTR _this$1$[ebp]
  00069	8b 4d f8	 mov	 ecx, DWORD PTR _pkInstLeft$1$[ebp]
  0006c	56		 push	 esi
  0006d	e8 00 00 00 00	 call	 ?CalculateDistanceSq3d@CInstanceBase@@QAEMABUD3DXVECTOR3@@@Z ; CInstanceBase::CalculateDistanceSq3d
  00072	8b 4d 0c	 mov	 ecx, DWORD PTR _pkInstRight$1$[ebp]
  00075	d9 5d 08	 fstp	 DWORD PTR tv448[ebp]
  00078	56		 push	 esi
  00079	e8 00 00 00 00	 call	 ?CalculateDistanceSq3d@CInstanceBase@@QAEMABUD3DXVECTOR3@@@Z ; CInstanceBase::CalculateDistanceSq3d
  0007e	d9 5d 0c	 fstp	 DWORD PTR tv444[ebp]
  00081	f3 0f 10 45 0c	 movss	 xmm0, DWORD PTR tv444[ebp]
  00086	33 c0		 xor	 eax, eax
  00088	0f 2f 45 08	 comiss	 xmm0, DWORD PTR tv448[ebp]
  0008c	0f 96 c0	 setbe	 al
  0008f	40		 inc	 eax
$LN11@Pop_heap_h:
; File C:\Program Files (x86)\Microsoft Visual Studio\2019\Community\VC\Tools\MSVC\14.28.29333\include\algorithm

; 6202 :         *(_First + _Hole) = _STD move(*(_First + _Idx));

  00090	8b 4d f4	 mov	 ecx, DWORD PTR tv421[ebp]
  00093	03 c8		 add	 ecx, eax
  00095	8b 04 8b	 mov	 eax, DWORD PTR [ebx+ecx*4]
  00098	89 04 bb	 mov	 DWORD PTR [ebx+edi*4], eax

; 6203 :         _Hole             = _Idx;

  0009b	8b f9		 mov	 edi, ecx
  0009d	8b 45 f0	 mov	 eax, DWORD PTR __Max_sequence_non_leaf$1$[ebp]
  000a0	3b c8		 cmp	 ecx, eax
  000a2	7c 8c		 jl	 SHORT $LL2@Pop_heap_h
  000a4	8b 55 fc	 mov	 edx, DWORD PTR __Top$1$[ebp]
  000a7	8b 75 ec	 mov	 esi, DWORD PTR tv422[ebp]
  000aa	89 7d 0c	 mov	 DWORD PTR __Hole$[ebp], edi
$LN3@Pop_heap_h:

; 6204 :     }
; 6205 : 
; 6206 :     if (_Idx == _Max_sequence_non_leaf && _Bottom % 2 == 0) { // only child at bottom, move _Hole down to it

  000ad	3b c8		 cmp	 ecx, eax
  000af	75 13		 jne	 SHORT $LN5@Pop_heap_h
  000b1	8b 45 10	 mov	 eax, DWORD PTR __Bottom$[ebp]
  000b4	a8 01		 test	 al, 1
  000b6	75 0c		 jne	 SHORT $LN5@Pop_heap_h

; 6207 :         *(_First + _Hole) = _STD move(*(_First + (_Bottom - 1)));

  000b8	8b 44 83 fc	 mov	 eax, DWORD PTR [ebx+eax*4-4]
  000bc	89 04 bb	 mov	 DWORD PTR [ebx+edi*4], eax

; 6208 :         _Hole             = _Bottom - 1;

  000bf	8b fe		 mov	 edi, esi
  000c1	89 7d 0c	 mov	 DWORD PTR __Hole$[ebp], edi
$LN5@Pop_heap_h:

; 6209 :     }
; 6210 : 
; 6211 :     _Push_heap_by_index(_First, _Hole, _Top, _STD forward<_Ty>(_Val), _Pred);

  000c4	8b 75 18	 mov	 esi, DWORD PTR __Pred$[ebp]

; 6077 :          _Top < _Hole && _DEBUG_LT_PRED(_Pred, *(_First + _Idx), _Val); //

  000c7	3b d7		 cmp	 edx, edi
  000c9	7d 69		 jge	 SHORT $LN34@Pop_heap_h
  000cb	0f 1f 44 00 00	 npad	 5
$LL16@Pop_heap_h:
; File C:\Program Files (x86)\Microsoft Visual Studio\2019\Community\VC\Tools\MSVC\14.28.29333\include\xutility

; 203  :             return _Fn(_STD forward<_Args>(_Vals)...);

  000d0	8b 4d 14	 mov	 ecx, DWORD PTR __Val$[ebp]
; File C:\Program Files (x86)\Microsoft Visual Studio\2019\Community\VC\Tools\MSVC\14.28.29333\include\algorithm

; 6076 :     for (_Diff _Idx = (_Hole - 1) >> 1; // shift for codegen

  000d3	8d 47 ff	 lea	 eax, DWORD PTR [edi-1]
  000d6	d1 f8		 sar	 eax, 1
  000d8	89 45 ec	 mov	 DWORD PTR __Idx$1$[ebp], eax
; File C:\Program Files (x86)\Microsoft Visual Studio\2019\Community\VC\Tools\MSVC\14.28.29333\include\xutility

; 203  :             return _Fn(_STD forward<_Args>(_Vals)...);

  000db	8b 09		 mov	 ecx, DWORD PTR [ecx]
  000dd	8b 04 83	 mov	 eax, DWORD PTR [ebx+eax*4]
  000e0	89 4d 10	 mov	 DWORD PTR _pkInstRight$1$[ebp], ecx
; File D:\Metin2 Server Files\mainline\SRC_2014\Metin2Client\UserInterface\PythonCharacterManager.cpp

; 714  : 		int nLeftDeadPoint=pkInstLeft->IsDead();

  000e3	8b c8		 mov	 ecx, eax
; File C:\Program Files (x86)\Microsoft Visual Studio\2019\Community\VC\Tools\MSVC\14.28.29333\include\xutility

; 203  :             return _Fn(_STD forward<_Args>(_Vals)...);

  000e5	89 45 08	 mov	 DWORD PTR _pkInstLeft$1$[ebp], eax
; File D:\Metin2 Server Files\mainline\SRC_2014\Metin2Client\UserInterface\PythonCharacterManager.cpp

; 714  : 		int nLeftDeadPoint=pkInstLeft->IsDead();

  000e8	e8 00 00 00 00	 call	 ?IsDead@CInstanceBase@@QAEHXZ ; CInstanceBase::IsDead

; 715  : 		int nRightDeadPoint=pkInstRight->IsDead();

  000ed	8b 4d 10	 mov	 ecx, DWORD PTR _pkInstRight$1$[ebp]
  000f0	8b f8		 mov	 edi, eax
  000f2	e8 00 00 00 00	 call	 ?IsDead@CInstanceBase@@QAEHXZ ; CInstanceBase::IsDead

; 716  : 
; 717  : 		if (nLeftDeadPoint<nRightDeadPoint)

  000f7	3b f8		 cmp	 edi, eax
  000f9	7c 23		 jl	 SHORT $LN32@Pop_heap_h

; 719  : 
; 720  : 		if (pkInstLeft->CalculateDistanceSq3d(m_kPPosEye)<pkInstRight->CalculateDistanceSq3d(m_kPPosEye))

  000fb	8b 4d 08	 mov	 ecx, DWORD PTR _pkInstLeft$1$[ebp]
  000fe	56		 push	 esi
  000ff	e8 00 00 00 00	 call	 ?CalculateDistanceSq3d@CInstanceBase@@QAEMABUD3DXVECTOR3@@@Z ; CInstanceBase::CalculateDistanceSq3d
  00104	8b 4d 10	 mov	 ecx, DWORD PTR _pkInstRight$1$[ebp]
  00107	d9 5d 08	 fstp	 DWORD PTR tv192[ebp]
  0010a	56		 push	 esi
  0010b	e8 00 00 00 00	 call	 ?CalculateDistanceSq3d@CInstanceBase@@QAEMABUD3DXVECTOR3@@@Z ; CInstanceBase::CalculateDistanceSq3d
  00110	d9 5d 10	 fstp	 DWORD PTR tv430[ebp]
  00113	f3 0f 10 45 10	 movss	 xmm0, DWORD PTR tv430[ebp]
  00118	0f 2f 45 08	 comiss	 xmm0, DWORD PTR tv192[ebp]
  0011c	76 25		 jbe	 SHORT $LN33@Pop_heap_h
$LN32@Pop_heap_h:
; File C:\Program Files (x86)\Microsoft Visual Studio\2019\Community\VC\Tools\MSVC\14.28.29333\include\algorithm

; 6080 :         *(_First + _Hole) = _STD move(*(_First + _Idx));

  0011e	8b 4d ec	 mov	 ecx, DWORD PTR __Idx$1$[ebp]
  00121	8b 7d 0c	 mov	 edi, DWORD PTR __Hole$[ebp]
  00124	8b 04 8b	 mov	 eax, DWORD PTR [ebx+ecx*4]
  00127	89 04 bb	 mov	 DWORD PTR [ebx+edi*4], eax

; 6081 :         _Hole             = _Idx;

  0012a	8b f9		 mov	 edi, ecx
  0012c	89 7d 0c	 mov	 DWORD PTR __Hole$[ebp], edi
  0012f	39 4d fc	 cmp	 DWORD PTR __Top$1$[ebp], ecx
  00132	7c 9c		 jl	 SHORT $LL16@Pop_heap_h
$LN34@Pop_heap_h:

; 6212 : }

  00134	8b 45 14	 mov	 eax, DWORD PTR __Val$[ebp]
  00137	8b 00		 mov	 eax, DWORD PTR [eax]
  00139	89 04 bb	 mov	 DWORD PTR [ebx+edi*4], eax
  0013c	5f		 pop	 edi
  0013d	5e		 pop	 esi
  0013e	5b		 pop	 ebx
  0013f	8b e5		 mov	 esp, ebp
  00141	5d		 pop	 ebp
  00142	c3		 ret	 0
$LN33@Pop_heap_h:

; 6084 :     *(_First + _Hole) = _STD forward<_Ty>(_Val); // drop _Val into final hole

  00143	8b 45 14	 mov	 eax, DWORD PTR __Val$[ebp]
  00146	8b 4d 0c	 mov	 ecx, DWORD PTR __Hole$[ebp]
  00149	5f		 pop	 edi

; 6212 : }

  0014a	5e		 pop	 esi

; 6084 :     *(_First + _Hole) = _STD forward<_Ty>(_Val); // drop _Val into final hole

  0014b	8b 00		 mov	 eax, DWORD PTR [eax]
  0014d	89 04 8b	 mov	 DWORD PTR [ebx+ecx*4], eax

; 6212 : }

  00150	5b		 pop	 ebx
  00151	8b e5		 mov	 esp, ebp
  00153	5d		 pop	 ebp
  00154	c3		 ret	 0
??$_Pop_heap_hole_by_index@PAPAVCInstanceBase@@PAV1@U?$_Ref_fn@UCInstanceBase_SLessCameraDistance@@@std@@@std@@YAXPAPAVCInstanceBase@@HH$$QAPAV1@U?$_Ref_fn@UCInstanceBase_SLessCameraDistance@@@0@@Z ENDP ; std::_Pop_heap_hole_by_index<CInstanceBase * *,CInstanceBase *,std::_Ref_fn<CInstanceBase_SLessCameraDistance> >
_TEXT	ENDS
; Function compile flags: /Ogtp
; File C:\Program Files (x86)\Microsoft Visual Studio\2019\Community\VC\Tools\MSVC\14.28.29333\include\xmemory
;	COMDAT ??$_Construct_in_place@PAU?$_Tree_node@U?$pair@$$CBKPAVCInstanceBase@@@std@@PAX@std@@AAPAU12@@std@@YAXAAPAU?$_Tree_node@U?$pair@$$CBKPAVCInstanceBase@@@std@@PAX@0@0@Z
_TEXT	SEGMENT
__Obj$ = 8						; size = 4
_<_Args_0>$ = 12					; size = 4
??$_Construct_in_place@PAU?$_Tree_node@U?$pair@$$CBKPAVCInstanceBase@@@std@@PAX@std@@AAPAU12@@std@@YAXAAPAU?$_Tree_node@U?$pair@$$CBKPAVCInstanceBase@@@std@@PAX@0@0@Z PROC ; std::_Construct_in_place<std::_Tree_node<std::pair<unsigned long const ,CInstanceBase *>,void *> *,std::_Tree_node<std::pair<unsigned long const ,CInstanceBase *>,void *> * &>, COMDAT

; 228  : void _Construct_in_place(_Ty& _Obj, _Types&&... _Args) noexcept(is_nothrow_constructible_v<_Ty, _Types...>) {

  00000	55		 push	 ebp
  00001	8b ec		 mov	 ebp, esp

; 229  :     ::new (const_cast<void*>(static_cast<const volatile void*>(_STD addressof(_Obj))))

  00003	8b 45 0c	 mov	 eax, DWORD PTR _<_Args_0>$[ebp]
  00006	8b 08		 mov	 ecx, DWORD PTR [eax]
  00008	8b 45 08	 mov	 eax, DWORD PTR __Obj$[ebp]
  0000b	89 08		 mov	 DWORD PTR [eax], ecx

; 230  :         _Ty(_STD forward<_Types>(_Args)...);
; 231  : }

  0000d	5d		 pop	 ebp
  0000e	c3		 ret	 0
??$_Construct_in_place@PAU?$_Tree_node@U?$pair@$$CBKPAVCInstanceBase@@@std@@PAX@std@@AAPAU12@@std@@YAXAAPAU?$_Tree_node@U?$pair@$$CBKPAVCInstanceBase@@@std@@PAX@0@0@Z ENDP ; std::_Construct_in_place<std::_Tree_node<std::pair<unsigned long const ,CInstanceBase *>,void *> *,std::_Tree_node<std::pair<unsigned long const ,CInstanceBase *>,void *> * &>
_TEXT	ENDS
; Function compile flags: /Ogtp
; File C:\Program Files (x86)\Microsoft Visual Studio\2019\Community\VC\Tools\MSVC\14.28.29333\include\algorithm
; File D:\Metin2 Server Files\mainline\SRC_2014\Metin2Client\UserInterface\PythonCharacterManager.cpp
; File C:\Program Files (x86)\Microsoft Visual Studio\2019\Community\VC\Tools\MSVC\14.28.29333\include\algorithm
; File D:\Metin2 Server Files\mainline\SRC_2014\Metin2Client\UserInterface\PythonCharacterManager.cpp
; File C:\Program Files (x86)\Microsoft Visual Studio\2019\Community\VC\Tools\MSVC\14.28.29333\include\algorithm
; File C:\Program Files (x86)\Microsoft Visual Studio\2019\Community\VC\Tools\MSVC\14.28.29333\include\utility
; File D:\Metin2 Server Files\mainline\SRC_2014\Metin2Client\UserInterface\PythonCharacterManager.cpp
; File C:\Program Files (x86)\Microsoft Visual Studio\2019\Community\VC\Tools\MSVC\14.28.29333\include\algorithm
; File C:\Program Files (x86)\Microsoft Visual Studio\2019\Community\VC\Tools\MSVC\14.28.29333\include\utility
; File D:\Metin2 Server Files\mainline\SRC_2014\Metin2Client\UserInterface\PythonCharacterManager.cpp
; File C:\Program Files (x86)\Microsoft Visual Studio\2019\Community\VC\Tools\MSVC\14.28.29333\include\algorithm
; File C:\Program Files (x86)\Microsoft Visual Studio\2019\Community\VC\Tools\MSVC\14.28.29333\include\utility
; File C:\Program Files (x86)\Microsoft Visual Studio\2019\Community\VC\Tools\MSVC\14.28.29333\include\algorithm
; File D:\Metin2 Server Files\mainline\SRC_2014\Metin2Client\UserInterface\PythonCharacterManager.cpp
; File C:\Program Files (x86)\Microsoft Visual Studio\2019\Community\VC\Tools\MSVC\14.28.29333\include\algorithm
; File C:\Program Files (x86)\Microsoft Visual Studio\2019\Community\VC\Tools\MSVC\14.28.29333\include\utility
; File D:\Metin2 Server Files\mainline\SRC_2014\Metin2Client\UserInterface\PythonCharacterManager.cpp
; File C:\Program Files (x86)\Microsoft Visual Studio\2019\Community\VC\Tools\MSVC\14.28.29333\include\algorithm
; File C:\Program Files (x86)\Microsoft Visual Studio\2019\Community\VC\Tools\MSVC\14.28.29333\include\utility
; File D:\Metin2 Server Files\mainline\SRC_2014\Metin2Client\UserInterface\PythonCharacterManager.cpp
; File C:\Program Files (x86)\Microsoft Visual Studio\2019\Community\VC\Tools\MSVC\14.28.29333\include\utility
; File D:\Metin2 Server Files\mainline\SRC_2014\Metin2Client\UserInterface\PythonCharacterManager.cpp
; File C:\Program Files (x86)\Microsoft Visual Studio\2019\Community\VC\Tools\MSVC\14.28.29333\include\algorithm
; File C:\Program Files (x86)\Microsoft Visual Studio\2019\Community\VC\Tools\MSVC\14.28.29333\include\utility
; File C:\Program Files (x86)\Microsoft Visual Studio\2019\Community\VC\Tools\MSVC\14.28.29333\include\algorithm
; File D:\Metin2 Server Files\mainline\SRC_2014\Metin2Client\UserInterface\PythonCharacterManager.cpp
; File C:\Program Files (x86)\Microsoft Visual Studio\2019\Community\VC\Tools\MSVC\14.28.29333\include\algorithm
; File C:\Program Files (x86)\Microsoft Visual Studio\2019\Community\VC\Tools\MSVC\14.28.29333\include\utility
; File D:\Metin2 Server Files\mainline\SRC_2014\Metin2Client\UserInterface\PythonCharacterManager.cpp
; File C:\Program Files (x86)\Microsoft Visual Studio\2019\Community\VC\Tools\MSVC\14.28.29333\include\algorithm
; File C:\Program Files (x86)\Microsoft Visual Studio\2019\Community\VC\Tools\MSVC\14.28.29333\include\utility
; File D:\Metin2 Server Files\mainline\SRC_2014\Metin2Client\UserInterface\PythonCharacterManager.cpp
; File C:\Program Files (x86)\Microsoft Visual Studio\2019\Community\VC\Tools\MSVC\14.28.29333\include\utility
; File D:\Metin2 Server Files\mainline\SRC_2014\Metin2Client\UserInterface\PythonCharacterManager.cpp
; File C:\Program Files (x86)\Microsoft Visual Studio\2019\Community\VC\Tools\MSVC\14.28.29333\include\algorithm
; File C:\Program Files (x86)\Microsoft Visual Studio\2019\Community\VC\Tools\MSVC\14.28.29333\include\utility
; File D:\Metin2 Server Files\mainline\SRC_2014\Metin2Client\UserInterface\PythonCharacterManager.cpp
; File C:\Program Files (x86)\Microsoft Visual Studio\2019\Community\VC\Tools\MSVC\14.28.29333\include\algorithm
; File C:\Program Files (x86)\Microsoft Visual Studio\2019\Community\VC\Tools\MSVC\14.28.29333\include\utility
; File D:\Metin2 Server Files\mainline\SRC_2014\Metin2Client\UserInterface\PythonCharacterManager.cpp
; File C:\Program Files (x86)\Microsoft Visual Studio\2019\Community\VC\Tools\MSVC\14.28.29333\include\algorithm
; File C:\Program Files (x86)\Microsoft Visual Studio\2019\Community\VC\Tools\MSVC\14.28.29333\include\utility
; File D:\Metin2 Server Files\mainline\SRC_2014\Metin2Client\UserInterface\PythonCharacterManager.cpp
; File C:\Program Files (x86)\Microsoft Visual Studio\2019\Community\VC\Tools\MSVC\14.28.29333\include\algorithm
; File C:\Program Files (x86)\Microsoft Visual Studio\2019\Community\VC\Tools\MSVC\14.28.29333\include\utility
; File C:\Program Files (x86)\Microsoft Visual Studio\2019\Community\VC\Tools\MSVC\14.28.29333\include\algorithm
; File D:\Metin2 Server Files\mainline\SRC_2014\Metin2Client\UserInterface\PythonCharacterManager.cpp
; File C:\Program Files (x86)\Microsoft Visual Studio\2019\Community\VC\Tools\MSVC\14.28.29333\include\algorithm
; File C:\Program Files (x86)\Microsoft Visual Studio\2019\Community\VC\Tools\MSVC\14.28.29333\include\utility
; File D:\Metin2 Server Files\mainline\SRC_2014\Metin2Client\UserInterface\PythonCharacterManager.cpp
; File C:\Program Files (x86)\Microsoft Visual Studio\2019\Community\VC\Tools\MSVC\14.28.29333\include\algorithm
; File C:\Program Files (x86)\Microsoft Visual Studio\2019\Community\VC\Tools\MSVC\14.28.29333\include\utility
; File D:\Metin2 Server Files\mainline\SRC_2014\Metin2Client\UserInterface\PythonCharacterManager.cpp
; File C:\Program Files (x86)\Microsoft Visual Studio\2019\Community\VC\Tools\MSVC\14.28.29333\include\algorithm
; File C:\Program Files (x86)\Microsoft Visual Studio\2019\Community\VC\Tools\MSVC\14.28.29333\include\utility
; File C:\Program Files (x86)\Microsoft Visual Studio\2019\Community\VC\Tools\MSVC\14.28.29333\include\algorithm
;	COMDAT ??$_Guess_median_unchecked@PAPAVCInstanceBase@@ULessCharacterInstancePtrRenderOrder@@@std@@YAXPAPAVCInstanceBase@@00ULessCharacterInstancePtrRenderOrder@@@Z
_TEXT	SEGMENT
tv492 = -8						; size = 4
__First$1$ = -4						; size = 4
tv496 = 8						; size = 4
__First$1$ = 8						; size = 4
__First$ = 8						; size = 4
__Mid$ = 12						; size = 4
__Last$ = 16						; size = 4
__Pred$ = 20						; size = 1
??$_Guess_median_unchecked@PAPAVCInstanceBase@@ULessCharacterInstancePtrRenderOrder@@@std@@YAXPAPAVCInstanceBase@@00ULessCharacterInstancePtrRenderOrder@@@Z PROC ; std::_Guess_median_unchecked<CInstanceBase * *,LessCharacterInstancePtrRenderOrder>, COMDAT

; 7450 : _CONSTEXPR20 void _Guess_median_unchecked(_RanIt _First, _RanIt _Mid, _RanIt _Last, _Pr _Pred) {

  00000	55		 push	 ebp
  00001	8b ec		 mov	 ebp, esp
  00003	83 ec 08	 sub	 esp, 8
  00006	53		 push	 ebx

; 7451 :     // sort median element to middle
; 7452 :     using _Diff        = _Iter_diff_t<_RanIt>;
; 7453 :     const _Diff _Count = _Last - _First;

  00007	8b 5d 10	 mov	 ebx, DWORD PTR __Last$[ebp]
  0000a	8b c3		 mov	 eax, ebx
  0000c	56		 push	 esi
  0000d	8b 75 08	 mov	 esi, DWORD PTR __First$[ebp]
  00010	2b c6		 sub	 eax, esi
  00012	c1 f8 02	 sar	 eax, 2
  00015	57		 push	 edi
  00016	8b 0e		 mov	 ecx, DWORD PTR [esi]

; 7454 :     if (40 < _Count) { // Tukey's ninther

  00018	51		 push	 ecx
  00019	83 f8 28	 cmp	 eax, 40			; 00000028H
  0001c	0f 8e 52 01 00
	00		 jle	 $LN2@Guess_medi

; 7455 :         const _Diff _Step     = (_Count + 1) >> 3; // +1 can't overflow because range was made inclusive in caller

  00022	40		 inc	 eax
  00023	c1 f8 03	 sar	 eax, 3

; 7457 :         _Med3_unchecked(_First, _First + _Step, _First + _Two_step, _Pred);

  00026	8d 14 c5 00 00
	00 00		 lea	 edx, DWORD PTR [eax*8]
  0002d	c1 e0 02	 shl	 eax, 2
; File D:\Metin2 Server Files\mainline\SRC_2014\Metin2Client\UserInterface\PythonCharacterManager.cpp

; 427  : 		return pkLeft->LessRenderOrder(pkRight);		

  00030	8b 0c 30	 mov	 ecx, DWORD PTR [eax+esi]
; File C:\Program Files (x86)\Microsoft Visual Studio\2019\Community\VC\Tools\MSVC\14.28.29333\include\algorithm

; 7457 :         _Med3_unchecked(_First, _First + _Step, _First + _Two_step, _Pred);

  00033	8d 3c 30	 lea	 edi, DWORD PTR [eax+esi]
  00036	89 55 f8	 mov	 DWORD PTR tv492[ebp], edx
  00039	89 45 08	 mov	 DWORD PTR tv496[ebp], eax
; File D:\Metin2 Server Files\mainline\SRC_2014\Metin2Client\UserInterface\PythonCharacterManager.cpp

; 427  : 		return pkLeft->LessRenderOrder(pkRight);		

  0003c	e8 00 00 00 00	 call	 ?LessRenderOrder@CInstanceBase@@QAE_NPAV1@@Z ; CInstanceBase::LessRenderOrder
; File C:\Program Files (x86)\Microsoft Visual Studio\2019\Community\VC\Tools\MSVC\14.28.29333\include\algorithm

; 7436 :     if (_DEBUG_LT_PRED(_Pred, *_Mid, *_First)) {

  00041	84 c0		 test	 al, al
  00043	74 08		 je	 SHORT $LN125@Guess_medi
; File C:\Program Files (x86)\Microsoft Visual Studio\2019\Community\VC\Tools\MSVC\14.28.29333\include\utility

; 104  :     _Ty _Tmp = _STD move(_Left);

  00045	8b 0f		 mov	 ecx, DWORD PTR [edi]

; 105  :     _Left    = _STD move(_Right);

  00047	8b 06		 mov	 eax, DWORD PTR [esi]
  00049	89 07		 mov	 DWORD PTR [edi], eax

; 106  :     _Right   = _STD move(_Tmp);

  0004b	89 0e		 mov	 DWORD PTR [esi], ecx
$LN125@Guess_medi:
; File D:\Metin2 Server Files\mainline\SRC_2014\Metin2Client\UserInterface\PythonCharacterManager.cpp

; 427  : 		return pkLeft->LessRenderOrder(pkRight);		

  0004d	8b 45 f8	 mov	 eax, DWORD PTR tv492[ebp]
  00050	ff 37		 push	 DWORD PTR [edi]
  00052	8b 0c 30	 mov	 ecx, DWORD PTR [eax+esi]
  00055	e8 00 00 00 00	 call	 ?LessRenderOrder@CInstanceBase@@QAE_NPAV1@@Z ; CInstanceBase::LessRenderOrder
; File C:\Program Files (x86)\Microsoft Visual Studio\2019\Community\VC\Tools\MSVC\14.28.29333\include\algorithm

; 7440 :     if (_DEBUG_LT_PRED(_Pred, *_Last, *_Mid)) { // swap middle and last, then test first again

  0005a	84 c0		 test	 al, al
  0005c	74 20		 je	 SHORT $LN27@Guess_medi
; File C:\Program Files (x86)\Microsoft Visual Studio\2019\Community\VC\Tools\MSVC\14.28.29333\include\utility

; 104  :     _Ty _Tmp = _STD move(_Left);

  0005e	8b 55 f8	 mov	 edx, DWORD PTR tv492[ebp]

; 105  :     _Left    = _STD move(_Right);

  00061	8b 07		 mov	 eax, DWORD PTR [edi]
  00063	8b 0c 32	 mov	 ecx, DWORD PTR [edx+esi]
  00066	89 04 32	 mov	 DWORD PTR [edx+esi], eax

; 106  :     _Right   = _STD move(_Tmp);

  00069	89 0f		 mov	 DWORD PTR [edi], ecx
; File D:\Metin2 Server Files\mainline\SRC_2014\Metin2Client\UserInterface\PythonCharacterManager.cpp

; 427  : 		return pkLeft->LessRenderOrder(pkRight);		

  0006b	ff 36		 push	 DWORD PTR [esi]
  0006d	e8 00 00 00 00	 call	 ?LessRenderOrder@CInstanceBase@@QAE_NPAV1@@Z ; CInstanceBase::LessRenderOrder
; File C:\Program Files (x86)\Microsoft Visual Studio\2019\Community\VC\Tools\MSVC\14.28.29333\include\algorithm

; 7443 :         if (_DEBUG_LT_PRED(_Pred, *_Mid, *_First)) {

  00072	84 c0		 test	 al, al
  00074	74 08		 je	 SHORT $LN27@Guess_medi
; File C:\Program Files (x86)\Microsoft Visual Studio\2019\Community\VC\Tools\MSVC\14.28.29333\include\utility

; 104  :     _Ty _Tmp = _STD move(_Left);

  00076	8b 0f		 mov	 ecx, DWORD PTR [edi]

; 105  :     _Left    = _STD move(_Right);

  00078	8b 06		 mov	 eax, DWORD PTR [esi]
  0007a	89 07		 mov	 DWORD PTR [edi], eax

; 106  :     _Right   = _STD move(_Tmp);

  0007c	89 0e		 mov	 DWORD PTR [esi], ecx
$LN27@Guess_medi:
; File C:\Program Files (x86)\Microsoft Visual Studio\2019\Community\VC\Tools\MSVC\14.28.29333\include\algorithm

; 7458 :         _Med3_unchecked(_Mid - _Step, _Mid, _Mid + _Step, _Pred);

  0007e	8b 75 0c	 mov	 esi, DWORD PTR __Mid$[ebp]
  00081	8b c6		 mov	 eax, esi
  00083	2b 45 08	 sub	 eax, DWORD PTR tv496[ebp]
  00086	89 45 fc	 mov	 DWORD PTR __First$1$[ebp], eax
; File D:\Metin2 Server Files\mainline\SRC_2014\Metin2Client\UserInterface\PythonCharacterManager.cpp

; 427  : 		return pkLeft->LessRenderOrder(pkRight);		

  00089	8b 0e		 mov	 ecx, DWORD PTR [esi]
  0008b	ff 30		 push	 DWORD PTR [eax]
  0008d	e8 00 00 00 00	 call	 ?LessRenderOrder@CInstanceBase@@QAE_NPAV1@@Z ; CInstanceBase::LessRenderOrder
; File C:\Program Files (x86)\Microsoft Visual Studio\2019\Community\VC\Tools\MSVC\14.28.29333\include\algorithm

; 7436 :     if (_DEBUG_LT_PRED(_Pred, *_Mid, *_First)) {

  00092	84 c0		 test	 al, al
  00094	74 0b		 je	 SHORT $LN126@Guess_medi
; File C:\Program Files (x86)\Microsoft Visual Studio\2019\Community\VC\Tools\MSVC\14.28.29333\include\utility

; 105  :     _Left    = _STD move(_Right);

  00096	8b 55 fc	 mov	 edx, DWORD PTR __First$1$[ebp]
  00099	8b 0e		 mov	 ecx, DWORD PTR [esi]
  0009b	8b 02		 mov	 eax, DWORD PTR [edx]
  0009d	89 06		 mov	 DWORD PTR [esi], eax

; 106  :     _Right   = _STD move(_Tmp);

  0009f	89 0a		 mov	 DWORD PTR [edx], ecx
$LN126@Guess_medi:
; File D:\Metin2 Server Files\mainline\SRC_2014\Metin2Client\UserInterface\PythonCharacterManager.cpp

; 427  : 		return pkLeft->LessRenderOrder(pkRight);		

  000a1	8b 45 08	 mov	 eax, DWORD PTR tv496[ebp]
  000a4	ff 36		 push	 DWORD PTR [esi]
  000a6	8b 0c 30	 mov	 ecx, DWORD PTR [eax+esi]
  000a9	e8 00 00 00 00	 call	 ?LessRenderOrder@CInstanceBase@@QAE_NPAV1@@Z ; CInstanceBase::LessRenderOrder
; File C:\Program Files (x86)\Microsoft Visual Studio\2019\Community\VC\Tools\MSVC\14.28.29333\include\algorithm

; 7440 :     if (_DEBUG_LT_PRED(_Pred, *_Last, *_Mid)) { // swap middle and last, then test first again

  000ae	84 c0		 test	 al, al
  000b0	74 26		 je	 SHORT $LN50@Guess_medi
; File C:\Program Files (x86)\Microsoft Visual Studio\2019\Community\VC\Tools\MSVC\14.28.29333\include\utility

; 104  :     _Ty _Tmp = _STD move(_Left);

  000b2	8b 55 08	 mov	 edx, DWORD PTR tv496[ebp]

; 105  :     _Left    = _STD move(_Right);

  000b5	8b 06		 mov	 eax, DWORD PTR [esi]
  000b7	8b 0c 32	 mov	 ecx, DWORD PTR [edx+esi]
  000ba	89 04 32	 mov	 DWORD PTR [edx+esi], eax
; File D:\Metin2 Server Files\mainline\SRC_2014\Metin2Client\UserInterface\PythonCharacterManager.cpp

; 427  : 		return pkLeft->LessRenderOrder(pkRight);		

  000bd	8b 45 fc	 mov	 eax, DWORD PTR __First$1$[ebp]
; File C:\Program Files (x86)\Microsoft Visual Studio\2019\Community\VC\Tools\MSVC\14.28.29333\include\utility

; 106  :     _Right   = _STD move(_Tmp);

  000c0	89 0e		 mov	 DWORD PTR [esi], ecx
; File D:\Metin2 Server Files\mainline\SRC_2014\Metin2Client\UserInterface\PythonCharacterManager.cpp

; 427  : 		return pkLeft->LessRenderOrder(pkRight);		

  000c2	ff 30		 push	 DWORD PTR [eax]
  000c4	e8 00 00 00 00	 call	 ?LessRenderOrder@CInstanceBase@@QAE_NPAV1@@Z ; CInstanceBase::LessRenderOrder
; File C:\Program Files (x86)\Microsoft Visual Studio\2019\Community\VC\Tools\MSVC\14.28.29333\include\algorithm

; 7443 :         if (_DEBUG_LT_PRED(_Pred, *_Mid, *_First)) {

  000c9	84 c0		 test	 al, al
  000cb	74 0b		 je	 SHORT $LN50@Guess_medi
; File C:\Program Files (x86)\Microsoft Visual Studio\2019\Community\VC\Tools\MSVC\14.28.29333\include\utility

; 105  :     _Left    = _STD move(_Right);

  000cd	8b 55 fc	 mov	 edx, DWORD PTR __First$1$[ebp]
  000d0	8b 0e		 mov	 ecx, DWORD PTR [esi]
  000d2	8b 02		 mov	 eax, DWORD PTR [edx]
  000d4	89 06		 mov	 DWORD PTR [esi], eax

; 106  :     _Right   = _STD move(_Tmp);

  000d6	89 0a		 mov	 DWORD PTR [edx], ecx
$LN50@Guess_medi:
; File C:\Program Files (x86)\Microsoft Visual Studio\2019\Community\VC\Tools\MSVC\14.28.29333\include\algorithm

; 7459 :         _Med3_unchecked(_Last - _Two_step, _Last - _Step, _Last, _Pred);

  000d8	8b 45 10	 mov	 eax, DWORD PTR __Last$[ebp]
  000db	2b 45 f8	 sub	 eax, DWORD PTR tv492[ebp]
  000de	2b 5d 08	 sub	 ebx, DWORD PTR tv496[ebp]
  000e1	89 45 08	 mov	 DWORD PTR __First$1$[ebp], eax
; File D:\Metin2 Server Files\mainline\SRC_2014\Metin2Client\UserInterface\PythonCharacterManager.cpp

; 427  : 		return pkLeft->LessRenderOrder(pkRight);		

  000e4	ff 30		 push	 DWORD PTR [eax]
  000e6	8b 0b		 mov	 ecx, DWORD PTR [ebx]
  000e8	e8 00 00 00 00	 call	 ?LessRenderOrder@CInstanceBase@@QAE_NPAV1@@Z ; CInstanceBase::LessRenderOrder
; File C:\Program Files (x86)\Microsoft Visual Studio\2019\Community\VC\Tools\MSVC\14.28.29333\include\algorithm

; 7436 :     if (_DEBUG_LT_PRED(_Pred, *_Mid, *_First)) {

  000ed	84 c0		 test	 al, al
  000ef	74 0b		 je	 SHORT $LN127@Guess_medi
; File C:\Program Files (x86)\Microsoft Visual Studio\2019\Community\VC\Tools\MSVC\14.28.29333\include\utility

; 105  :     _Left    = _STD move(_Right);

  000f1	8b 55 08	 mov	 edx, DWORD PTR __First$1$[ebp]
  000f4	8b 0b		 mov	 ecx, DWORD PTR [ebx]
  000f6	8b 02		 mov	 eax, DWORD PTR [edx]
  000f8	89 03		 mov	 DWORD PTR [ebx], eax

; 106  :     _Right   = _STD move(_Tmp);

  000fa	89 0a		 mov	 DWORD PTR [edx], ecx
$LN127@Guess_medi:
; File D:\Metin2 Server Files\mainline\SRC_2014\Metin2Client\UserInterface\PythonCharacterManager.cpp

; 427  : 		return pkLeft->LessRenderOrder(pkRight);		

  000fc	8b 45 10	 mov	 eax, DWORD PTR __Last$[ebp]
  000ff	ff 33		 push	 DWORD PTR [ebx]
  00101	8b 08		 mov	 ecx, DWORD PTR [eax]
  00103	e8 00 00 00 00	 call	 ?LessRenderOrder@CInstanceBase@@QAE_NPAV1@@Z ; CInstanceBase::LessRenderOrder
; File C:\Program Files (x86)\Microsoft Visual Studio\2019\Community\VC\Tools\MSVC\14.28.29333\include\algorithm

; 7440 :     if (_DEBUG_LT_PRED(_Pred, *_Last, *_Mid)) { // swap middle and last, then test first again

  00108	84 c0		 test	 al, al
  0010a	74 24		 je	 SHORT $LN73@Guess_medi
; File C:\Program Files (x86)\Microsoft Visual Studio\2019\Community\VC\Tools\MSVC\14.28.29333\include\utility

; 104  :     _Ty _Tmp = _STD move(_Left);

  0010c	8b 55 10	 mov	 edx, DWORD PTR __Last$[ebp]

; 105  :     _Left    = _STD move(_Right);

  0010f	8b 03		 mov	 eax, DWORD PTR [ebx]
  00111	8b 0a		 mov	 ecx, DWORD PTR [edx]
  00113	89 02		 mov	 DWORD PTR [edx], eax
; File D:\Metin2 Server Files\mainline\SRC_2014\Metin2Client\UserInterface\PythonCharacterManager.cpp

; 427  : 		return pkLeft->LessRenderOrder(pkRight);		

  00115	8b 45 08	 mov	 eax, DWORD PTR __First$1$[ebp]
; File C:\Program Files (x86)\Microsoft Visual Studio\2019\Community\VC\Tools\MSVC\14.28.29333\include\utility

; 106  :     _Right   = _STD move(_Tmp);

  00118	89 0b		 mov	 DWORD PTR [ebx], ecx
; File D:\Metin2 Server Files\mainline\SRC_2014\Metin2Client\UserInterface\PythonCharacterManager.cpp

; 427  : 		return pkLeft->LessRenderOrder(pkRight);		

  0011a	ff 30		 push	 DWORD PTR [eax]
  0011c	e8 00 00 00 00	 call	 ?LessRenderOrder@CInstanceBase@@QAE_NPAV1@@Z ; CInstanceBase::LessRenderOrder
; File C:\Program Files (x86)\Microsoft Visual Studio\2019\Community\VC\Tools\MSVC\14.28.29333\include\algorithm

; 7443 :         if (_DEBUG_LT_PRED(_Pred, *_Mid, *_First)) {

  00121	84 c0		 test	 al, al
  00123	74 0b		 je	 SHORT $LN73@Guess_medi
; File C:\Program Files (x86)\Microsoft Visual Studio\2019\Community\VC\Tools\MSVC\14.28.29333\include\utility

; 105  :     _Left    = _STD move(_Right);

  00125	8b 55 08	 mov	 edx, DWORD PTR __First$1$[ebp]
  00128	8b 0b		 mov	 ecx, DWORD PTR [ebx]
  0012a	8b 02		 mov	 eax, DWORD PTR [edx]
  0012c	89 03		 mov	 DWORD PTR [ebx], eax

; 106  :     _Right   = _STD move(_Tmp);

  0012e	89 0a		 mov	 DWORD PTR [edx], ecx
$LN73@Guess_medi:
; File D:\Metin2 Server Files\mainline\SRC_2014\Metin2Client\UserInterface\PythonCharacterManager.cpp

; 427  : 		return pkLeft->LessRenderOrder(pkRight);		

  00130	ff 37		 push	 DWORD PTR [edi]
  00132	8b 0e		 mov	 ecx, DWORD PTR [esi]
  00134	e8 00 00 00 00	 call	 ?LessRenderOrder@CInstanceBase@@QAE_NPAV1@@Z ; CInstanceBase::LessRenderOrder
; File C:\Program Files (x86)\Microsoft Visual Studio\2019\Community\VC\Tools\MSVC\14.28.29333\include\algorithm

; 7436 :     if (_DEBUG_LT_PRED(_Pred, *_Mid, *_First)) {

  00139	84 c0		 test	 al, al
  0013b	74 08		 je	 SHORT $LN128@Guess_medi
; File C:\Program Files (x86)\Microsoft Visual Studio\2019\Community\VC\Tools\MSVC\14.28.29333\include\utility

; 104  :     _Ty _Tmp = _STD move(_Left);

  0013d	8b 0e		 mov	 ecx, DWORD PTR [esi]

; 105  :     _Left    = _STD move(_Right);

  0013f	8b 07		 mov	 eax, DWORD PTR [edi]
  00141	89 06		 mov	 DWORD PTR [esi], eax

; 106  :     _Right   = _STD move(_Tmp);

  00143	89 0f		 mov	 DWORD PTR [edi], ecx
$LN128@Guess_medi:
; File D:\Metin2 Server Files\mainline\SRC_2014\Metin2Client\UserInterface\PythonCharacterManager.cpp

; 427  : 		return pkLeft->LessRenderOrder(pkRight);		

  00145	ff 36		 push	 DWORD PTR [esi]
  00147	8b 0b		 mov	 ecx, DWORD PTR [ebx]
  00149	e8 00 00 00 00	 call	 ?LessRenderOrder@CInstanceBase@@QAE_NPAV1@@Z ; CInstanceBase::LessRenderOrder
; File C:\Program Files (x86)\Microsoft Visual Studio\2019\Community\VC\Tools\MSVC\14.28.29333\include\algorithm

; 7440 :     if (_DEBUG_LT_PRED(_Pred, *_Last, *_Mid)) { // swap middle and last, then test first again

  0014e	84 c0		 test	 al, al
  00150	74 60		 je	 SHORT $LN119@Guess_medi
; File C:\Program Files (x86)\Microsoft Visual Studio\2019\Community\VC\Tools\MSVC\14.28.29333\include\utility

; 104  :     _Ty _Tmp = _STD move(_Left);

  00152	8b 0b		 mov	 ecx, DWORD PTR [ebx]

; 105  :     _Left    = _STD move(_Right);

  00154	8b 06		 mov	 eax, DWORD PTR [esi]
  00156	89 03		 mov	 DWORD PTR [ebx], eax

; 106  :     _Right   = _STD move(_Tmp);

  00158	89 0e		 mov	 DWORD PTR [esi], ecx
; File D:\Metin2 Server Files\mainline\SRC_2014\Metin2Client\UserInterface\PythonCharacterManager.cpp

; 427  : 		return pkLeft->LessRenderOrder(pkRight);		

  0015a	ff 37		 push	 DWORD PTR [edi]
  0015c	e8 00 00 00 00	 call	 ?LessRenderOrder@CInstanceBase@@QAE_NPAV1@@Z ; CInstanceBase::LessRenderOrder
; File C:\Program Files (x86)\Microsoft Visual Studio\2019\Community\VC\Tools\MSVC\14.28.29333\include\algorithm

; 7443 :         if (_DEBUG_LT_PRED(_Pred, *_Mid, *_First)) {

  00161	84 c0		 test	 al, al
  00163	74 4d		 je	 SHORT $LN119@Guess_medi
; File C:\Program Files (x86)\Microsoft Visual Studio\2019\Community\VC\Tools\MSVC\14.28.29333\include\utility

; 104  :     _Ty _Tmp = _STD move(_Left);

  00165	8b 0e		 mov	 ecx, DWORD PTR [esi]

; 105  :     _Left    = _STD move(_Right);

  00167	8b 07		 mov	 eax, DWORD PTR [edi]
  00169	89 06		 mov	 DWORD PTR [esi], eax

; 106  :     _Right   = _STD move(_Tmp);

  0016b	89 0f		 mov	 DWORD PTR [edi], ecx
  0016d	5f		 pop	 edi
; File C:\Program Files (x86)\Microsoft Visual Studio\2019\Community\VC\Tools\MSVC\14.28.29333\include\algorithm

; 7464 : }

  0016e	5e		 pop	 esi
  0016f	5b		 pop	 ebx
  00170	8b e5		 mov	 esp, ebp
  00172	5d		 pop	 ebp
  00173	c3		 ret	 0
$LN2@Guess_medi:

; 7436 :     if (_DEBUG_LT_PRED(_Pred, *_Mid, *_First)) {

  00174	8b 7d 0c	 mov	 edi, DWORD PTR __Mid$[ebp]
; File D:\Metin2 Server Files\mainline\SRC_2014\Metin2Client\UserInterface\PythonCharacterManager.cpp

; 427  : 		return pkLeft->LessRenderOrder(pkRight);		

  00177	8b 0f		 mov	 ecx, DWORD PTR [edi]
  00179	e8 00 00 00 00	 call	 ?LessRenderOrder@CInstanceBase@@QAE_NPAV1@@Z ; CInstanceBase::LessRenderOrder
; File C:\Program Files (x86)\Microsoft Visual Studio\2019\Community\VC\Tools\MSVC\14.28.29333\include\algorithm

; 7436 :     if (_DEBUG_LT_PRED(_Pred, *_Mid, *_First)) {

  0017e	84 c0		 test	 al, al
  00180	74 08		 je	 SHORT $LN129@Guess_medi
; File C:\Program Files (x86)\Microsoft Visual Studio\2019\Community\VC\Tools\MSVC\14.28.29333\include\utility

; 104  :     _Ty _Tmp = _STD move(_Left);

  00182	8b 0f		 mov	 ecx, DWORD PTR [edi]

; 105  :     _Left    = _STD move(_Right);

  00184	8b 06		 mov	 eax, DWORD PTR [esi]
  00186	89 07		 mov	 DWORD PTR [edi], eax

; 106  :     _Right   = _STD move(_Tmp);

  00188	89 0e		 mov	 DWORD PTR [esi], ecx
$LN129@Guess_medi:
; File D:\Metin2 Server Files\mainline\SRC_2014\Metin2Client\UserInterface\PythonCharacterManager.cpp

; 427  : 		return pkLeft->LessRenderOrder(pkRight);		

  0018a	ff 37		 push	 DWORD PTR [edi]
  0018c	8b 0b		 mov	 ecx, DWORD PTR [ebx]
  0018e	e8 00 00 00 00	 call	 ?LessRenderOrder@CInstanceBase@@QAE_NPAV1@@Z ; CInstanceBase::LessRenderOrder
; File C:\Program Files (x86)\Microsoft Visual Studio\2019\Community\VC\Tools\MSVC\14.28.29333\include\algorithm

; 7440 :     if (_DEBUG_LT_PRED(_Pred, *_Last, *_Mid)) { // swap middle and last, then test first again

  00193	84 c0		 test	 al, al
  00195	74 1b		 je	 SHORT $LN119@Guess_medi
; File C:\Program Files (x86)\Microsoft Visual Studio\2019\Community\VC\Tools\MSVC\14.28.29333\include\utility

; 104  :     _Ty _Tmp = _STD move(_Left);

  00197	8b 0b		 mov	 ecx, DWORD PTR [ebx]

; 105  :     _Left    = _STD move(_Right);

  00199	8b 07		 mov	 eax, DWORD PTR [edi]
  0019b	89 03		 mov	 DWORD PTR [ebx], eax

; 106  :     _Right   = _STD move(_Tmp);

  0019d	89 0f		 mov	 DWORD PTR [edi], ecx
; File D:\Metin2 Server Files\mainline\SRC_2014\Metin2Client\UserInterface\PythonCharacterManager.cpp

; 427  : 		return pkLeft->LessRenderOrder(pkRight);		

  0019f	ff 36		 push	 DWORD PTR [esi]
  001a1	e8 00 00 00 00	 call	 ?LessRenderOrder@CInstanceBase@@QAE_NPAV1@@Z ; CInstanceBase::LessRenderOrder
; File C:\Program Files (x86)\Microsoft Visual Studio\2019\Community\VC\Tools\MSVC\14.28.29333\include\algorithm

; 7443 :         if (_DEBUG_LT_PRED(_Pred, *_Mid, *_First)) {

  001a6	84 c0		 test	 al, al
  001a8	74 08		 je	 SHORT $LN119@Guess_medi
; File C:\Program Files (x86)\Microsoft Visual Studio\2019\Community\VC\Tools\MSVC\14.28.29333\include\utility

; 104  :     _Ty _Tmp = _STD move(_Left);

  001aa	8b 0f		 mov	 ecx, DWORD PTR [edi]

; 105  :     _Left    = _STD move(_Right);

  001ac	8b 06		 mov	 eax, DWORD PTR [esi]
  001ae	89 07		 mov	 DWORD PTR [edi], eax

; 106  :     _Right   = _STD move(_Tmp);

  001b0	89 0e		 mov	 DWORD PTR [esi], ecx
$LN119@Guess_medi:
  001b2	5f		 pop	 edi
; File C:\Program Files (x86)\Microsoft Visual Studio\2019\Community\VC\Tools\MSVC\14.28.29333\include\algorithm

; 7464 : }

  001b3	5e		 pop	 esi
  001b4	5b		 pop	 ebx
  001b5	8b e5		 mov	 esp, ebp
  001b7	5d		 pop	 ebp
  001b8	c3		 ret	 0
??$_Guess_median_unchecked@PAPAVCInstanceBase@@ULessCharacterInstancePtrRenderOrder@@@std@@YAXPAPAVCInstanceBase@@00ULessCharacterInstancePtrRenderOrder@@@Z ENDP ; std::_Guess_median_unchecked<CInstanceBase * *,LessCharacterInstancePtrRenderOrder>
_TEXT	ENDS
; Function compile flags: /Ogtp
; File C:\Program Files (x86)\Microsoft Visual Studio\2019\Community\VC\Tools\MSVC\14.28.29333\include\algorithm
; File D:\Metin2 Server Files\mainline\SRC_2014\Metin2Client\UserInterface\PythonCharacterManager.cpp
; File C:\Program Files (x86)\Microsoft Visual Studio\2019\Community\VC\Tools\MSVC\14.28.29333\include\algorithm
; File D:\Metin2 Server Files\mainline\SRC_2014\Metin2Client\UserInterface\PythonCharacterManager.cpp
; File C:\Program Files (x86)\Microsoft Visual Studio\2019\Community\VC\Tools\MSVC\14.28.29333\include\algorithm
; File D:\Metin2 Server Files\mainline\SRC_2014\Metin2Client\UserInterface\PythonCharacterManager.cpp
; File C:\Program Files (x86)\Microsoft Visual Studio\2019\Community\VC\Tools\MSVC\14.28.29333\include\algorithm
; File D:\Metin2 Server Files\mainline\SRC_2014\Metin2Client\UserInterface\PythonCharacterManager.cpp
; File C:\Program Files (x86)\Microsoft Visual Studio\2019\Community\VC\Tools\MSVC\14.28.29333\include\algorithm
;	COMDAT ??$_Pop_heap_hole_by_index@PAPAVCInstanceBase@@PAV1@ULessCharacterInstancePtrRenderOrder@@@std@@YAXPAPAVCInstanceBase@@HH$$QAPAV1@ULessCharacterInstancePtrRenderOrder@@@Z
_TEXT	SEGMENT
__Max_sequence_non_leaf$1$ = -4				; size = 4
__First$ = 8						; size = 4
__Top$1$ = 12						; size = 4
__Hole$ = 12						; size = 4
__Bottom$ = 16						; size = 4
__Val$ = 20						; size = 4
__Pred$ = 24						; size = 1
??$_Pop_heap_hole_by_index@PAPAVCInstanceBase@@PAV1@ULessCharacterInstancePtrRenderOrder@@@std@@YAXPAPAVCInstanceBase@@HH$$QAPAV1@ULessCharacterInstancePtrRenderOrder@@@Z PROC ; std::_Pop_heap_hole_by_index<CInstanceBase * *,CInstanceBase *,LessCharacterInstancePtrRenderOrder>, COMDAT

; 6186 :     _RanIt _First, _Iter_diff_t<_RanIt> _Hole, _Iter_diff_t<_RanIt> _Bottom, _Ty&& _Val, _Pr _Pred) {

  00000	55		 push	 ebp
  00001	8b ec		 mov	 ebp, esp
  00003	51		 push	 ecx

; 6187 :     // percolate _Hole to _Bottom, then push _Val
; 6188 :     _STL_INTERNAL_CHECK(_Bottom > 0);
; 6189 : 
; 6190 :     using _Diff      = _Iter_diff_t<_RanIt>;
; 6191 :     const _Diff _Top = _Hole;
; 6192 :     _Diff _Idx       = _Hole;
; 6193 : 
; 6194 :     // Check whether _Idx can have a child before calculating that child's index, since
; 6195 :     // calculating the child's index can trigger integer overflows
; 6196 :     const _Diff _Max_sequence_non_leaf = (_Bottom - 1) >> 1; // shift for codegen

  00004	8b 55 10	 mov	 edx, DWORD PTR __Bottom$[ebp]
  00007	53		 push	 ebx

; 6197 :     while (_Idx < _Max_sequence_non_leaf) { // move _Hole down to larger child

  00008	8b 5d 08	 mov	 ebx, DWORD PTR __First$[ebp]
  0000b	56		 push	 esi
  0000c	8b 75 0c	 mov	 esi, DWORD PTR __Hole$[ebp]
  0000f	8d 42 ff	 lea	 eax, DWORD PTR [edx-1]
  00012	d1 f8		 sar	 eax, 1
  00014	8b ce		 mov	 ecx, esi
  00016	89 4d 0c	 mov	 DWORD PTR __Top$1$[ebp], ecx
  00019	89 45 fc	 mov	 DWORD PTR __Max_sequence_non_leaf$1$[ebp], eax
  0001c	57		 push	 edi
  0001d	8b fe		 mov	 edi, esi
  0001f	3b f0		 cmp	 esi, eax
  00021	7d 3b		 jge	 SHORT $LN3@Pop_heap_h
  00023	0f 1f 40 00 66
	0f 1f 84 00 00
	00 00 00	 npad	 13
$LL2@Pop_heap_h:
; File D:\Metin2 Server Files\mainline\SRC_2014\Metin2Client\UserInterface\PythonCharacterManager.cpp

; 427  : 		return pkLeft->LessRenderOrder(pkRight);		

  00030	ff 74 fb 04	 push	 DWORD PTR [ebx+edi*8+4]
  00034	8b 4c fb 08	 mov	 ecx, DWORD PTR [ebx+edi*8+8]
; File C:\Program Files (x86)\Microsoft Visual Studio\2019\Community\VC\Tools\MSVC\14.28.29333\include\algorithm

; 6198 :         _Idx = 2 * _Idx + 2;

  00038	8d 3c 7d 02 00
	00 00		 lea	 edi, DWORD PTR [edi*2+2]
; File D:\Metin2 Server Files\mainline\SRC_2014\Metin2Client\UserInterface\PythonCharacterManager.cpp

; 427  : 		return pkLeft->LessRenderOrder(pkRight);		

  0003f	e8 00 00 00 00	 call	 ?LessRenderOrder@CInstanceBase@@QAE_NPAV1@@Z ; CInstanceBase::LessRenderOrder
; File C:\Program Files (x86)\Microsoft Visual Studio\2019\Community\VC\Tools\MSVC\14.28.29333\include\algorithm

; 6199 :         if (_DEBUG_LT_PRED(_Pred, *(_First + _Idx), *(_First + (_Idx - 1)))) {

  00044	84 c0		 test	 al, al
  00046	74 01		 je	 SHORT $LN4@Pop_heap_h

; 6200 :             --_Idx;

  00048	4f		 dec	 edi
$LN4@Pop_heap_h:

; 6201 :         }
; 6202 :         *(_First + _Hole) = _STD move(*(_First + _Idx));

  00049	8b 04 bb	 mov	 eax, DWORD PTR [ebx+edi*4]
  0004c	89 04 b3	 mov	 DWORD PTR [ebx+esi*4], eax

; 6203 :         _Hole             = _Idx;

  0004f	8b f7		 mov	 esi, edi
  00051	8b 45 fc	 mov	 eax, DWORD PTR __Max_sequence_non_leaf$1$[ebp]
  00054	3b f8		 cmp	 edi, eax
  00056	7c d8		 jl	 SHORT $LL2@Pop_heap_h
  00058	8b 4d 0c	 mov	 ecx, DWORD PTR __Top$1$[ebp]
  0005b	8b 55 10	 mov	 edx, DWORD PTR __Bottom$[ebp]
$LN3@Pop_heap_h:

; 6204 :     }
; 6205 : 
; 6206 :     if (_Idx == _Max_sequence_non_leaf && _Bottom % 2 == 0) { // only child at bottom, move _Hole down to it

  0005e	3b f8		 cmp	 edi, eax
  00060	75 0f		 jne	 SHORT $LN5@Pop_heap_h
  00062	f6 c2 01	 test	 dl, 1
  00065	75 0a		 jne	 SHORT $LN5@Pop_heap_h

; 6207 :         *(_First + _Hole) = _STD move(*(_First + (_Bottom - 1)));

  00067	8b 44 93 fc	 mov	 eax, DWORD PTR [ebx+edx*4-4]
  0006b	89 04 b3	 mov	 DWORD PTR [ebx+esi*4], eax

; 6208 :         _Hole             = _Bottom - 1;

  0006e	8d 72 ff	 lea	 esi, DWORD PTR [edx-1]
$LN5@Pop_heap_h:

; 6077 :          _Top < _Hole && _DEBUG_LT_PRED(_Pred, *(_First + _Idx), _Val); //

  00071	3b ce		 cmp	 ecx, esi
  00073	7d 23		 jge	 SHORT $LN24@Pop_heap_h
$LL12@Pop_heap_h:
; File D:\Metin2 Server Files\mainline\SRC_2014\Metin2Client\UserInterface\PythonCharacterManager.cpp

; 427  : 		return pkLeft->LessRenderOrder(pkRight);		

  00075	8b 45 14	 mov	 eax, DWORD PTR __Val$[ebp]
; File C:\Program Files (x86)\Microsoft Visual Studio\2019\Community\VC\Tools\MSVC\14.28.29333\include\algorithm

; 6076 :     for (_Diff _Idx = (_Hole - 1) >> 1; // shift for codegen

  00078	8d 7e ff	 lea	 edi, DWORD PTR [esi-1]
  0007b	d1 ff		 sar	 edi, 1
; File D:\Metin2 Server Files\mainline\SRC_2014\Metin2Client\UserInterface\PythonCharacterManager.cpp

; 427  : 		return pkLeft->LessRenderOrder(pkRight);		

  0007d	ff 30		 push	 DWORD PTR [eax]
  0007f	8b 0c bb	 mov	 ecx, DWORD PTR [ebx+edi*4]
  00082	e8 00 00 00 00	 call	 ?LessRenderOrder@CInstanceBase@@QAE_NPAV1@@Z ; CInstanceBase::LessRenderOrder
; File C:\Program Files (x86)\Microsoft Visual Studio\2019\Community\VC\Tools\MSVC\14.28.29333\include\algorithm

; 6077 :          _Top < _Hole && _DEBUG_LT_PRED(_Pred, *(_First + _Idx), _Val); //

  00087	84 c0		 test	 al, al
  00089	74 0d		 je	 SHORT $LN24@Pop_heap_h

; 6078 :          _Idx = (_Hole - 1) >> 1) { // shift for codegen
; 6079 :         // move _Hole up to parent
; 6080 :         *(_First + _Hole) = _STD move(*(_First + _Idx));

  0008b	8b 04 bb	 mov	 eax, DWORD PTR [ebx+edi*4]
  0008e	89 04 b3	 mov	 DWORD PTR [ebx+esi*4], eax

; 6081 :         _Hole             = _Idx;

  00091	8b f7		 mov	 esi, edi
  00093	39 7d 0c	 cmp	 DWORD PTR __Top$1$[ebp], edi
  00096	7c dd		 jl	 SHORT $LL12@Pop_heap_h
$LN24@Pop_heap_h:

; 6209 :     }
; 6210 : 
; 6211 :     _Push_heap_by_index(_First, _Hole, _Top, _STD forward<_Ty>(_Val), _Pred);
; 6212 : }

  00098	8b 45 14	 mov	 eax, DWORD PTR __Val$[ebp]
  0009b	5f		 pop	 edi
  0009c	8b 00		 mov	 eax, DWORD PTR [eax]
  0009e	89 04 b3	 mov	 DWORD PTR [ebx+esi*4], eax
  000a1	5e		 pop	 esi
  000a2	5b		 pop	 ebx
  000a3	8b e5		 mov	 esp, ebp
  000a5	5d		 pop	 ebp
  000a6	c3		 ret	 0
??$_Pop_heap_hole_by_index@PAPAVCInstanceBase@@PAV1@ULessCharacterInstancePtrRenderOrder@@@std@@YAXPAPAVCInstanceBase@@HH$$QAPAV1@ULessCharacterInstancePtrRenderOrder@@@Z ENDP ; std::_Pop_heap_hole_by_index<CInstanceBase * *,CInstanceBase *,LessCharacterInstancePtrRenderOrder>
_TEXT	ENDS
; Function compile flags: /Ogtp
; File C:\Program Files (x86)\Microsoft Visual Studio\2019\Community\VC\Tools\MSVC\14.28.29333\include\xmemory
;	COMDAT ??$_Refancy@PAPAVCInstanceBase@@$0A@@std@@YAPAPAVCInstanceBase@@PAPAV1@@Z
_TEXT	SEGMENT
__Ptr$ = 8						; size = 4
??$_Refancy@PAPAVCInstanceBase@@$0A@@std@@YAPAPAVCInstanceBase@@PAPAV1@@Z PROC ; std::_Refancy<CInstanceBase * *,0>, COMDAT

; 261  : _Pointer _Refancy(_Pointer _Ptr) noexcept {

  00000	55		 push	 ebp
  00001	8b ec		 mov	 ebp, esp

; 262  :     return _Ptr;

  00003	8b 45 08	 mov	 eax, DWORD PTR __Ptr$[ebp]

; 263  : }

  00006	5d		 pop	 ebp
  00007	c3		 ret	 0
??$_Refancy@PAPAVCInstanceBase@@$0A@@std@@YAPAPAVCInstanceBase@@PAPAV1@@Z ENDP ; std::_Refancy<CInstanceBase * *,0>
_TEXT	ENDS
; Function compile flags: /Ogtp
; File C:\Program Files (x86)\Microsoft Visual Studio\2019\Community\VC\Tools\MSVC\14.28.29333\include\xutility
;	COMDAT ??$_Copy_memmove@PAPAVCInstanceBase@@PAPAV1@@std@@YAPAPAVCInstanceBase@@PAPAV1@00@Z
_TEXT	SEGMENT
__First$ = 8						; size = 4
__Last$ = 12						; size = 4
__Dest$ = 16						; size = 4
??$_Copy_memmove@PAPAVCInstanceBase@@PAPAV1@@std@@YAPAPAVCInstanceBase@@PAPAV1@00@Z PROC ; std::_Copy_memmove<CInstanceBase * *,CInstanceBase * *>, COMDAT

; 4360 : _OutIt _Copy_memmove(_InIt _First, _InIt _Last, _OutIt _Dest) {

  00000	55		 push	 ebp
  00001	8b ec		 mov	 ebp, esp

; 4361 :     const char* const _First_ch = const_cast<const char*>(reinterpret_cast<const volatile char*>(_First));
; 4362 :     const char* const _Last_ch  = const_cast<const char*>(reinterpret_cast<const volatile char*>(_Last));
; 4363 :     char* const _Dest_ch        = const_cast<char*>(reinterpret_cast<volatile char*>(_Dest));
; 4364 :     const auto _Count           = static_cast<size_t>(_Last_ch - _First_ch);

  00003	8b 45 08	 mov	 eax, DWORD PTR __First$[ebp]
  00006	56		 push	 esi

; 4365 :     _CSTD memmove(_Dest_ch, _First_ch, _Count);

  00007	8b 75 10	 mov	 esi, DWORD PTR __Dest$[ebp]
  0000a	57		 push	 edi
  0000b	8b 7d 0c	 mov	 edi, DWORD PTR __Last$[ebp]
  0000e	2b f8		 sub	 edi, eax
  00010	57		 push	 edi
  00011	50		 push	 eax
  00012	56		 push	 esi
  00013	e8 00 00 00 00	 call	 _memmove
  00018	83 c4 0c	 add	 esp, 12			; 0000000cH

; 4366 :     return reinterpret_cast<_OutIt>(_Dest_ch + _Count);

  0001b	8d 04 37	 lea	 eax, DWORD PTR [edi+esi]
  0001e	5f		 pop	 edi
  0001f	5e		 pop	 esi

; 4367 : }

  00020	5d		 pop	 ebp
  00021	c3		 ret	 0
??$_Copy_memmove@PAPAVCInstanceBase@@PAPAV1@@std@@YAPAPAVCInstanceBase@@PAPAV1@00@Z ENDP ; std::_Copy_memmove<CInstanceBase * *,CInstanceBase * *>
_TEXT	ENDS
; Function compile flags: /Ogtp
; File C:\Program Files (x86)\Microsoft Visual Studio\2019\Community\VC\Tools\MSVC\14.28.29333\include\xmemory
;	COMDAT ??$_Destroy_in_place@PAU?$_Tree_node@U?$pair@$$CBKPAVCInstanceBase@@@std@@PAX@std@@@std@@YAXAAPAU?$_Tree_node@U?$pair@$$CBKPAVCInstanceBase@@@std@@PAX@0@@Z
_TEXT	SEGMENT
__Obj$ = 8						; size = 4
??$_Destroy_in_place@PAU?$_Tree_node@U?$pair@$$CBKPAVCInstanceBase@@@std@@PAX@std@@@std@@YAXAAPAU?$_Tree_node@U?$pair@$$CBKPAVCInstanceBase@@@std@@PAX@0@@Z PROC ; std::_Destroy_in_place<std::_Tree_node<std::pair<unsigned long const ,CInstanceBase *>,void *> *>, COMDAT

; 271  : #if _HAS_IF_CONSTEXPR
; 272  :     if constexpr (is_array_v<_Ty>) {
; 273  :         _Destroy_range(_Obj, _Obj + extent_v<_Ty>);
; 274  :     } else
; 275  : #endif // _HAS_IF_CONSTEXPR
; 276  :     {
; 277  :         _Obj.~_Ty();
; 278  :     }
; 279  : }

  00000	c2 00 00	 ret	 0
??$_Destroy_in_place@PAU?$_Tree_node@U?$pair@$$CBKPAVCInstanceBase@@@std@@PAX@std@@@std@@YAXAAPAU?$_Tree_node@U?$pair@$$CBKPAVCInstanceBase@@@std@@PAX@0@@Z ENDP ; std::_Destroy_in_place<std::_Tree_node<std::pair<unsigned long const ,CInstanceBase *>,void *> *>
_TEXT	ENDS
; Function compile flags: /Ogtp
; File C:\Program Files (x86)\Microsoft Visual Studio\2019\Community\VC\Tools\MSVC\14.28.29333\include\algorithm
; File C:\Program Files (x86)\Microsoft Visual Studio\2019\Community\VC\Tools\MSVC\14.28.29333\include\xutility
; File D:\Metin2 Server Files\mainline\SRC_2014\Metin2Client\UserInterface\PythonCharacterManager.cpp
; File C:\Program Files (x86)\Microsoft Visual Studio\2019\Community\VC\Tools\MSVC\14.28.29333\include\xutility
; File D:\Metin2 Server Files\mainline\SRC_2014\Metin2Client\UserInterface\PythonCharacterManager.cpp
; File C:\Program Files (x86)\Microsoft Visual Studio\2019\Community\VC\Tools\MSVC\14.28.29333\include\xutility
; File D:\Metin2 Server Files\mainline\SRC_2014\Metin2Client\UserInterface\PythonCharacterManager.cpp
; File C:\Program Files (x86)\Microsoft Visual Studio\2019\Community\VC\Tools\MSVC\14.28.29333\include\xutility
; File D:\Metin2 Server Files\mainline\SRC_2014\Metin2Client\UserInterface\PythonCharacterManager.cpp
; File C:\Program Files (x86)\Microsoft Visual Studio\2019\Community\VC\Tools\MSVC\14.28.29333\include\algorithm
; File C:\Program Files (x86)\Microsoft Visual Studio\2019\Community\VC\Tools\MSVC\14.28.29333\include\xutility
; File D:\Metin2 Server Files\mainline\SRC_2014\Metin2Client\UserInterface\PythonCharacterManager.cpp
; File C:\Program Files (x86)\Microsoft Visual Studio\2019\Community\VC\Tools\MSVC\14.28.29333\include\xutility
; File D:\Metin2 Server Files\mainline\SRC_2014\Metin2Client\UserInterface\PythonCharacterManager.cpp
; File C:\Program Files (x86)\Microsoft Visual Studio\2019\Community\VC\Tools\MSVC\14.28.29333\include\xutility
; File D:\Metin2 Server Files\mainline\SRC_2014\Metin2Client\UserInterface\PythonCharacterManager.cpp
; File C:\Program Files (x86)\Microsoft Visual Studio\2019\Community\VC\Tools\MSVC\14.28.29333\include\algorithm
; File D:\Metin2 Server Files\mainline\SRC_2014\Metin2Client\UserInterface\PythonCharacterManager.cpp
; File C:\Program Files (x86)\Microsoft Visual Studio\2019\Community\VC\Tools\MSVC\14.28.29333\include\algorithm
; File C:\Program Files (x86)\Microsoft Visual Studio\2019\Community\VC\Tools\MSVC\14.28.29333\include\xutility
; File D:\Metin2 Server Files\mainline\SRC_2014\Metin2Client\UserInterface\PythonCharacterManager.cpp
; File C:\Program Files (x86)\Microsoft Visual Studio\2019\Community\VC\Tools\MSVC\14.28.29333\include\xutility
; File D:\Metin2 Server Files\mainline\SRC_2014\Metin2Client\UserInterface\PythonCharacterManager.cpp
; File C:\Program Files (x86)\Microsoft Visual Studio\2019\Community\VC\Tools\MSVC\14.28.29333\include\xutility
; File D:\Metin2 Server Files\mainline\SRC_2014\Metin2Client\UserInterface\PythonCharacterManager.cpp
; File C:\Program Files (x86)\Microsoft Visual Studio\2019\Community\VC\Tools\MSVC\14.28.29333\include\xutility
; File D:\Metin2 Server Files\mainline\SRC_2014\Metin2Client\UserInterface\PythonCharacterManager.cpp
; File C:\Program Files (x86)\Microsoft Visual Studio\2019\Community\VC\Tools\MSVC\14.28.29333\include\algorithm
; File C:\Program Files (x86)\Microsoft Visual Studio\2019\Community\VC\Tools\MSVC\14.28.29333\include\utility
; File C:\Program Files (x86)\Microsoft Visual Studio\2019\Community\VC\Tools\MSVC\14.28.29333\include\algorithm
; File C:\Program Files (x86)\Microsoft Visual Studio\2019\Community\VC\Tools\MSVC\14.28.29333\include\xutility
; File D:\Metin2 Server Files\mainline\SRC_2014\Metin2Client\UserInterface\PythonCharacterManager.cpp
; File C:\Program Files (x86)\Microsoft Visual Studio\2019\Community\VC\Tools\MSVC\14.28.29333\include\xutility
; File D:\Metin2 Server Files\mainline\SRC_2014\Metin2Client\UserInterface\PythonCharacterManager.cpp
; File C:\Program Files (x86)\Microsoft Visual Studio\2019\Community\VC\Tools\MSVC\14.28.29333\include\xutility
; File D:\Metin2 Server Files\mainline\SRC_2014\Metin2Client\UserInterface\PythonCharacterManager.cpp
; File C:\Program Files (x86)\Microsoft Visual Studio\2019\Community\VC\Tools\MSVC\14.28.29333\include\xutility
; File D:\Metin2 Server Files\mainline\SRC_2014\Metin2Client\UserInterface\PythonCharacterManager.cpp
; File C:\Program Files (x86)\Microsoft Visual Studio\2019\Community\VC\Tools\MSVC\14.28.29333\include\algorithm
; File C:\Program Files (x86)\Microsoft Visual Studio\2019\Community\VC\Tools\MSVC\14.28.29333\include\utility
; File C:\Program Files (x86)\Microsoft Visual Studio\2019\Community\VC\Tools\MSVC\14.28.29333\include\algorithm
; File D:\Metin2 Server Files\mainline\SRC_2014\Metin2Client\UserInterface\PythonCharacterManager.cpp
; File C:\Program Files (x86)\Microsoft Visual Studio\2019\Community\VC\Tools\MSVC\14.28.29333\include\algorithm
; File C:\Program Files (x86)\Microsoft Visual Studio\2019\Community\VC\Tools\MSVC\14.28.29333\include\utility
; File C:\Program Files (x86)\Microsoft Visual Studio\2019\Community\VC\Tools\MSVC\14.28.29333\include\algorithm
; File C:\Program Files (x86)\Microsoft Visual Studio\2019\Community\VC\Tools\MSVC\14.28.29333\include\utility
; File C:\Program Files (x86)\Microsoft Visual Studio\2019\Community\VC\Tools\MSVC\14.28.29333\include\algorithm
; File C:\Program Files (x86)\Microsoft Visual Studio\2019\Community\VC\Tools\MSVC\14.28.29333\include\utility
; File C:\Program Files (x86)\Microsoft Visual Studio\2019\Community\VC\Tools\MSVC\14.28.29333\include\algorithm
; File C:\Program Files (x86)\Microsoft Visual Studio\2019\Community\VC\Tools\MSVC\14.28.29333\include\utility
; File C:\Program Files (x86)\Microsoft Visual Studio\2019\Community\VC\Tools\MSVC\14.28.29333\include\algorithm
; File C:\Program Files (x86)\Microsoft Visual Studio\2019\Community\VC\Tools\MSVC\14.28.29333\include\utility
; File C:\Program Files (x86)\Microsoft Visual Studio\2019\Community\VC\Tools\MSVC\14.28.29333\include\algorithm
; File C:\Program Files (x86)\Microsoft Visual Studio\2019\Community\VC\Tools\MSVC\14.28.29333\include\utility
; File C:\Program Files (x86)\Microsoft Visual Studio\2019\Community\VC\Tools\MSVC\14.28.29333\include\algorithm
; File C:\Program Files (x86)\Microsoft Visual Studio\2019\Community\VC\Tools\MSVC\14.28.29333\include\utility
; File C:\Program Files (x86)\Microsoft Visual Studio\2019\Community\VC\Tools\MSVC\14.28.29333\include\algorithm
; File C:\Program Files (x86)\Microsoft Visual Studio\2019\Community\VC\Tools\MSVC\14.28.29333\include\utility
; File C:\Program Files (x86)\Microsoft Visual Studio\2019\Community\VC\Tools\MSVC\14.28.29333\include\algorithm
; File C:\Program Files (x86)\Microsoft Visual Studio\2019\Community\VC\Tools\MSVC\14.28.29333\include\utility
; File C:\Program Files (x86)\Microsoft Visual Studio\2019\Community\VC\Tools\MSVC\14.28.29333\include\algorithm
; File C:\Program Files (x86)\Microsoft Visual Studio\2019\Community\VC\Tools\MSVC\14.28.29333\include\utility
; File C:\Program Files (x86)\Microsoft Visual Studio\2019\Community\VC\Tools\MSVC\14.28.29333\include\algorithm
;	COMDAT ??$_Partition_by_median_guess_unchecked@PAPAVCInstanceBase@@U?$_Ref_fn@UCInstanceBase_SLessCameraDistance@@@std@@@std@@YA?AU?$pair@PAPAVCInstanceBase@@PAPAV1@@0@PAPAVCInstanceBase@@0U?$_Ref_fn@UCInstanceBase_SLessCameraDistance@@@0@@Z
_TEXT	SEGMENT
_this$1$ = -24						; size = 4
_pkInstLeft$1$ = -24					; size = 4
tv710 = -24						; size = 4
tv700 = -24						; size = 4
_pkInstLeft$1$ = -20					; size = 4
_this$1$ = -20						; size = 4
_this$1$ = -20						; size = 4
_pkInstLeft$1$ = -20					; size = 4
tv732 = -20						; size = 4
tv721 = -20						; size = 4
tv714 = -20						; size = 4
tv704 = -20						; size = 4
_pkInstRight$1$ = -16					; size = 4
_pkInstRight$1$ = -16					; size = 4
_pkInstLeft$1$ = -16					; size = 4
_this$1$ = -16						; size = 4
_this$1$ = -16						; size = 4
_this$1$ = -16						; size = 4
_this$1$ = -16						; size = 4
_this$1$ = -16						; size = 4
__Last$1$ = -16						; size = 4
tv774 = -16						; size = 4
tv764 = -16						; size = 4
tv754 = -16						; size = 4
tv743 = -16						; size = 4
tv736 = -16						; size = 4
tv725 = -16						; size = 4
_pkInstRight$1$ = -12					; size = 4
_pkInstRight$1$ = -12					; size = 4
_pkInstLeft$1$ = -12					; size = 4
_pkInstLeft$1$ = -12					; size = 4
_pkInstRight$1$ = -12					; size = 4
_pkInstRight$1$ = -12					; size = 4
__Gfirst$1$ = -12					; size = 4
tv758 = -12						; size = 4
tv748 = -12						; size = 4
tv687 = -12						; size = 4
_pkInstLeft$1$ = -8					; size = 4
_pkInstLeft$1$ = -8					; size = 4
__Glast$1$ = -8						; size = 4
__Pfirst$1$ = -8					; size = 4
tv778 = -8						; size = 4
tv768 = -8						; size = 4
__Plast$1$ = -4						; size = 4
___$ReturnUdt$ = 8					; size = 4
__First$ = 12						; size = 4
__Last$ = 16						; size = 4
__Pred$ = 20						; size = 4
??$_Partition_by_median_guess_unchecked@PAPAVCInstanceBase@@U?$_Ref_fn@UCInstanceBase_SLessCameraDistance@@@std@@@std@@YA?AU?$pair@PAPAVCInstanceBase@@PAPAV1@@0@PAPAVCInstanceBase@@0U?$_Ref_fn@UCInstanceBase_SLessCameraDistance@@@0@@Z PROC ; std::_Partition_by_median_guess_unchecked<CInstanceBase * *,std::_Ref_fn<CInstanceBase_SLessCameraDistance> >, COMDAT

; 7467 : _CONSTEXPR20 pair<_RanIt, _RanIt> _Partition_by_median_guess_unchecked(_RanIt _First, _RanIt _Last, _Pr _Pred) {

  00000	55		 push	 ebp
  00001	8b ec		 mov	 ebp, esp
  00003	83 ec 18	 sub	 esp, 24			; 00000018H

; 7468 :     // partition [_First, _Last)
; 7469 :     _RanIt _Mid = _First + ((_Last - _First) >> 1); // shift for codegen

  00006	8b 4d 10	 mov	 ecx, DWORD PTR __Last$[ebp]
  00009	8b c1		 mov	 eax, ecx
  0000b	8b 55 0c	 mov	 edx, DWORD PTR __First$[ebp]

; 7470 :     _Guess_median_unchecked(_First, _Mid, _Prev_iter(_Last), _Pred);

  0000e	83 c1 fc	 add	 ecx, -4			; fffffffcH
  00011	2b c2		 sub	 eax, edx
  00013	89 4d f0	 mov	 DWORD PTR __Last$1$[ebp], ecx
  00016	c1 f8 03	 sar	 eax, 3
  00019	53		 push	 ebx
  0001a	56		 push	 esi
  0001b	8b 75 14	 mov	 esi, DWORD PTR __Pred$[ebp]
  0001e	57		 push	 edi
  0001f	8d 3c 82	 lea	 edi, DWORD PTR [edx+eax*4]

; 7453 :     const _Diff _Count = _Last - _First;

  00022	8b c1		 mov	 eax, ecx
  00024	2b c2		 sub	 eax, edx

; 7468 :     // partition [_First, _Last)
; 7469 :     _RanIt _Mid = _First + ((_Last - _First) >> 1); // shift for codegen

  00026	89 7d f8	 mov	 DWORD PTR __Pfirst$1$[ebp], edi

; 7453 :     const _Diff _Count = _Last - _First;

  00029	c1 f8 02	 sar	 eax, 2

; 7454 :     if (40 < _Count) { // Tukey's ninther

  0002c	56		 push	 esi
  0002d	83 f8 28	 cmp	 eax, 40			; 00000028H
  00030	7e 5f		 jle	 SHORT $LN35@Partition_

; 7455 :         const _Diff _Step     = (_Count + 1) >> 3; // +1 can't overflow because range was made inclusive in caller

  00032	40		 inc	 eax
  00033	c1 f8 03	 sar	 eax, 3

; 7456 :         const _Diff _Two_step = _Step << 1; // note: intentionally discards low-order bit
; 7457 :         _Med3_unchecked(_First, _First + _Step, _First + _Two_step, _Pred);

  00036	8d 0c c5 00 00
	00 00		 lea	 ecx, DWORD PTR [eax*8]
  0003d	8d 1c 85 00 00
	00 00		 lea	 ebx, DWORD PTR [eax*4]
  00044	89 4d f4	 mov	 DWORD PTR tv687[ebp], ecx
  00047	8b 45 0c	 mov	 eax, DWORD PTR __First$[ebp]
  0004a	03 d3		 add	 edx, ebx
  0004c	03 c1		 add	 eax, ecx
  0004e	50		 push	 eax
  0004f	52		 push	 edx
  00050	ff 75 0c	 push	 DWORD PTR __First$[ebp]
  00053	e8 00 00 00 00	 call	 ??$_Med3_unchecked@PAPAVCInstanceBase@@U?$_Ref_fn@UCInstanceBase_SLessCameraDistance@@@std@@@std@@YAXPAPAVCInstanceBase@@00U?$_Ref_fn@UCInstanceBase_SLessCameraDistance@@@0@@Z ; std::_Med3_unchecked<CInstanceBase * *,std::_Ref_fn<CInstanceBase_SLessCameraDistance> >

; 7458 :         _Med3_unchecked(_Mid - _Step, _Mid, _Mid + _Step, _Pred);

  00058	56		 push	 esi
  00059	8d 04 3b	 lea	 eax, DWORD PTR [ebx+edi]
  0005c	50		 push	 eax
  0005d	8b c7		 mov	 eax, edi
  0005f	2b c3		 sub	 eax, ebx
  00061	57		 push	 edi
  00062	50		 push	 eax
  00063	e8 00 00 00 00	 call	 ??$_Med3_unchecked@PAPAVCInstanceBase@@U?$_Ref_fn@UCInstanceBase_SLessCameraDistance@@@std@@@std@@YAXPAPAVCInstanceBase@@00U?$_Ref_fn@UCInstanceBase_SLessCameraDistance@@@0@@Z ; std::_Med3_unchecked<CInstanceBase * *,std::_Ref_fn<CInstanceBase_SLessCameraDistance> >

; 7459 :         _Med3_unchecked(_Last - _Two_step, _Last - _Step, _Last, _Pred);

  00068	8b 45 f0	 mov	 eax, DWORD PTR __Last$1$[ebp]
  0006b	8b f8		 mov	 edi, eax
  0006d	56		 push	 esi
  0006e	50		 push	 eax
  0006f	2b 45 f4	 sub	 eax, DWORD PTR tv687[ebp]
  00072	2b fb		 sub	 edi, ebx
  00074	57		 push	 edi
  00075	50		 push	 eax
  00076	e8 00 00 00 00	 call	 ??$_Med3_unchecked@PAPAVCInstanceBase@@U?$_Ref_fn@UCInstanceBase_SLessCameraDistance@@@std@@@std@@YAXPAPAVCInstanceBase@@00U?$_Ref_fn@UCInstanceBase_SLessCameraDistance@@@0@@Z ; std::_Med3_unchecked<CInstanceBase * *,std::_Ref_fn<CInstanceBase_SLessCameraDistance> >

; 7460 :         _Med3_unchecked(_First + _Step, _Mid, _Last - _Step, _Pred);

  0007b	8b 45 0c	 mov	 eax, DWORD PTR __First$[ebp]
  0007e	56		 push	 esi
  0007f	57		 push	 edi
  00080	8b 7d f8	 mov	 edi, DWORD PTR __Pfirst$1$[ebp]
  00083	03 c3		 add	 eax, ebx
  00085	57		 push	 edi
  00086	50		 push	 eax
  00087	e8 00 00 00 00	 call	 ??$_Med3_unchecked@PAPAVCInstanceBase@@U?$_Ref_fn@UCInstanceBase_SLessCameraDistance@@@std@@@std@@YAXPAPAVCInstanceBase@@00U?$_Ref_fn@UCInstanceBase_SLessCameraDistance@@@0@@Z ; std::_Med3_unchecked<CInstanceBase * *,std::_Ref_fn<CInstanceBase_SLessCameraDistance> >
  0008c	83 c4 40	 add	 esp, 64			; 00000040H

; 7461 :     } else {

  0008f	eb 0b		 jmp	 SHORT $LN36@Partition_
$LN35@Partition_:

; 7462 :         _Med3_unchecked(_First, _Mid, _Last, _Pred);

  00091	51		 push	 ecx
  00092	57		 push	 edi
  00093	52		 push	 edx
  00094	e8 00 00 00 00	 call	 ??$_Med3_unchecked@PAPAVCInstanceBase@@U?$_Ref_fn@UCInstanceBase_SLessCameraDistance@@@std@@@std@@YAXPAPAVCInstanceBase@@00U?$_Ref_fn@UCInstanceBase_SLessCameraDistance@@@0@@Z ; std::_Med3_unchecked<CInstanceBase * *,std::_Ref_fn<CInstanceBase_SLessCameraDistance> >
  00099	83 c4 10	 add	 esp, 16			; 00000010H
$LN36@Partition_:

; 7471 :     _RanIt _Pfirst = _Mid;
; 7472 :     _RanIt _Plast  = _Next_iter(_Pfirst);

  0009c	8d 57 04	 lea	 edx, DWORD PTR [edi+4]
  0009f	89 55 fc	 mov	 DWORD PTR __Plast$1$[ebp], edx

; 7475 :            && !_Pred(*_Pfirst, *_Prev_iter(_Pfirst))) {

  000a2	39 7d 0c	 cmp	 DWORD PTR __First$[ebp], edi
  000a5	0f 83 ac 00 00
	00		 jae	 $LN148@Partition_
  000ab	0f 1f 44 00 00	 npad	 5
$LL2@Partition_:
; File C:\Program Files (x86)\Microsoft Visual Studio\2019\Community\VC\Tools\MSVC\14.28.29333\include\xutility

; 203  :             return _Fn(_STD forward<_Args>(_Vals)...);

  000b0	8b 07		 mov	 eax, DWORD PTR [edi]
  000b2	8b 4d 14	 mov	 ecx, DWORD PTR __Pred$[ebp]
  000b5	89 45 f4	 mov	 DWORD PTR _pkInstRight$1$[ebp], eax
  000b8	8b 47 fc	 mov	 eax, DWORD PTR [edi-4]
  000bb	89 4d f0	 mov	 DWORD PTR _this$1$[ebp], ecx
; File D:\Metin2 Server Files\mainline\SRC_2014\Metin2Client\UserInterface\PythonCharacterManager.cpp

; 714  : 		int nLeftDeadPoint=pkInstLeft->IsDead();

  000be	8b c8		 mov	 ecx, eax
; File C:\Program Files (x86)\Microsoft Visual Studio\2019\Community\VC\Tools\MSVC\14.28.29333\include\xutility

; 203  :             return _Fn(_STD forward<_Args>(_Vals)...);

  000c0	89 45 f8	 mov	 DWORD PTR _pkInstLeft$1$[ebp], eax
; File D:\Metin2 Server Files\mainline\SRC_2014\Metin2Client\UserInterface\PythonCharacterManager.cpp

; 714  : 		int nLeftDeadPoint=pkInstLeft->IsDead();

  000c3	e8 00 00 00 00	 call	 ?IsDead@CInstanceBase@@QAEHXZ ; CInstanceBase::IsDead

; 715  : 		int nRightDeadPoint=pkInstRight->IsDead();

  000c8	8b 4d f4	 mov	 ecx, DWORD PTR _pkInstRight$1$[ebp]
  000cb	8b f0		 mov	 esi, eax
  000cd	e8 00 00 00 00	 call	 ?IsDead@CInstanceBase@@QAEHXZ ; CInstanceBase::IsDead

; 717  : 		if (nLeftDeadPoint<nRightDeadPoint)

  000d2	3b f0		 cmp	 esi, eax
  000d4	7c 7e		 jl	 SHORT $LN163@Partition_

; 720  : 		if (pkInstLeft->CalculateDistanceSq3d(m_kPPosEye)<pkInstRight->CalculateDistanceSq3d(m_kPPosEye))

  000d6	8b 75 f0	 mov	 esi, DWORD PTR _this$1$[ebp]
  000d9	8b 4d f8	 mov	 ecx, DWORD PTR _pkInstLeft$1$[ebp]
  000dc	56		 push	 esi
  000dd	e8 00 00 00 00	 call	 ?CalculateDistanceSq3d@CInstanceBase@@QAEMABUD3DXVECTOR3@@@Z ; CInstanceBase::CalculateDistanceSq3d
  000e2	8b 4d f4	 mov	 ecx, DWORD PTR _pkInstRight$1$[ebp]
  000e5	d9 5d f8	 fstp	 DWORD PTR tv778[ebp]
  000e8	56		 push	 esi
  000e9	e8 00 00 00 00	 call	 ?CalculateDistanceSq3d@CInstanceBase@@QAEMABUD3DXVECTOR3@@@Z ; CInstanceBase::CalculateDistanceSq3d
  000ee	d9 5d f0	 fstp	 DWORD PTR tv774[ebp]
  000f1	f3 0f 10 45 f0	 movss	 xmm0, DWORD PTR tv774[ebp]
  000f6	0f 2f 45 f8	 comiss	 xmm0, DWORD PTR tv778[ebp]
  000fa	77 58		 ja	 SHORT $LN163@Partition_
; File C:\Program Files (x86)\Microsoft Visual Studio\2019\Community\VC\Tools\MSVC\14.28.29333\include\xutility

; 203  :             return _Fn(_STD forward<_Args>(_Vals)...);

  000fc	8b 47 fc	 mov	 eax, DWORD PTR [edi-4]
  000ff	8b 4d 14	 mov	 ecx, DWORD PTR __Pred$[ebp]
  00102	89 45 f4	 mov	 DWORD PTR _pkInstRight$1$[ebp], eax
  00105	8b 07		 mov	 eax, DWORD PTR [edi]
  00107	89 4d f0	 mov	 DWORD PTR _this$1$[ebp], ecx
; File D:\Metin2 Server Files\mainline\SRC_2014\Metin2Client\UserInterface\PythonCharacterManager.cpp

; 714  : 		int nLeftDeadPoint=pkInstLeft->IsDead();

  0010a	8b c8		 mov	 ecx, eax
; File C:\Program Files (x86)\Microsoft Visual Studio\2019\Community\VC\Tools\MSVC\14.28.29333\include\xutility

; 203  :             return _Fn(_STD forward<_Args>(_Vals)...);

  0010c	89 45 f8	 mov	 DWORD PTR _pkInstLeft$1$[ebp], eax
; File D:\Metin2 Server Files\mainline\SRC_2014\Metin2Client\UserInterface\PythonCharacterManager.cpp

; 714  : 		int nLeftDeadPoint=pkInstLeft->IsDead();

  0010f	e8 00 00 00 00	 call	 ?IsDead@CInstanceBase@@QAEHXZ ; CInstanceBase::IsDead

; 715  : 		int nRightDeadPoint=pkInstRight->IsDead();

  00114	8b 4d f4	 mov	 ecx, DWORD PTR _pkInstRight$1$[ebp]
  00117	8b f0		 mov	 esi, eax
  00119	e8 00 00 00 00	 call	 ?IsDead@CInstanceBase@@QAEHXZ ; CInstanceBase::IsDead

; 717  : 		if (nLeftDeadPoint<nRightDeadPoint)

  0011e	3b f0		 cmp	 esi, eax
  00120	7c 32		 jl	 SHORT $LN163@Partition_

; 720  : 		if (pkInstLeft->CalculateDistanceSq3d(m_kPPosEye)<pkInstRight->CalculateDistanceSq3d(m_kPPosEye))

  00122	8b 75 f0	 mov	 esi, DWORD PTR _this$1$[ebp]
  00125	8b 4d f8	 mov	 ecx, DWORD PTR _pkInstLeft$1$[ebp]
  00128	56		 push	 esi
  00129	e8 00 00 00 00	 call	 ?CalculateDistanceSq3d@CInstanceBase@@QAEMABUD3DXVECTOR3@@@Z ; CInstanceBase::CalculateDistanceSq3d
  0012e	8b 4d f4	 mov	 ecx, DWORD PTR _pkInstRight$1$[ebp]
  00131	d9 5d f8	 fstp	 DWORD PTR tv768[ebp]
  00134	56		 push	 esi
  00135	e8 00 00 00 00	 call	 ?CalculateDistanceSq3d@CInstanceBase@@QAEMABUD3DXVECTOR3@@@Z ; CInstanceBase::CalculateDistanceSq3d
  0013a	d9 5d f0	 fstp	 DWORD PTR tv764[ebp]
  0013d	f3 0f 10 45 f0	 movss	 xmm0, DWORD PTR tv764[ebp]
  00142	0f 2f 45 f8	 comiss	 xmm0, DWORD PTR tv768[ebp]
  00146	77 0c		 ja	 SHORT $LN163@Partition_
; File C:\Program Files (x86)\Microsoft Visual Studio\2019\Community\VC\Tools\MSVC\14.28.29333\include\algorithm

; 7475 :            && !_Pred(*_Pfirst, *_Prev_iter(_Pfirst))) {

  00148	83 c7 fc	 add	 edi, -4			; fffffffcH
  0014b	39 7d 0c	 cmp	 DWORD PTR __First$[ebp], edi
  0014e	0f 82 5c ff ff
	ff		 jb	 $LL2@Partition_
$LN163@Partition_:
  00154	8b 55 fc	 mov	 edx, DWORD PTR __Plast$1$[ebp]
$LN148@Partition_:

; 7476 :         --_Pfirst;
; 7477 :     }
; 7478 : 
; 7479 :     while (_Plast < _Last && !_DEBUG_LT_PRED(_Pred, *_Plast, *_Pfirst) && !_Pred(*_Pfirst, *_Plast)) {

  00157	8b 45 10	 mov	 eax, DWORD PTR __Last$[ebp]
  0015a	3b d0		 cmp	 edx, eax
  0015c	0f 83 af 00 00
	00		 jae	 $LN164@Partition_
$LL4@Partition_:
; File C:\Program Files (x86)\Microsoft Visual Studio\2019\Community\VC\Tools\MSVC\14.28.29333\include\xutility

; 203  :             return _Fn(_STD forward<_Args>(_Vals)...);

  00162	8b 4d 14	 mov	 ecx, DWORD PTR __Pred$[ebp]
  00165	8b 02		 mov	 eax, DWORD PTR [edx]
  00167	8b 1f		 mov	 ebx, DWORD PTR [edi]
  00169	89 4d f0	 mov	 DWORD PTR _this$1$[ebp], ecx
; File D:\Metin2 Server Files\mainline\SRC_2014\Metin2Client\UserInterface\PythonCharacterManager.cpp

; 714  : 		int nLeftDeadPoint=pkInstLeft->IsDead();

  0016c	8b c8		 mov	 ecx, eax
; File C:\Program Files (x86)\Microsoft Visual Studio\2019\Community\VC\Tools\MSVC\14.28.29333\include\xutility

; 203  :             return _Fn(_STD forward<_Args>(_Vals)...);

  0016e	89 45 f4	 mov	 DWORD PTR _pkInstLeft$1$[ebp], eax
; File D:\Metin2 Server Files\mainline\SRC_2014\Metin2Client\UserInterface\PythonCharacterManager.cpp

; 714  : 		int nLeftDeadPoint=pkInstLeft->IsDead();

  00171	e8 00 00 00 00	 call	 ?IsDead@CInstanceBase@@QAEHXZ ; CInstanceBase::IsDead

; 715  : 		int nRightDeadPoint=pkInstRight->IsDead();

  00176	8b cb		 mov	 ecx, ebx
  00178	8b f0		 mov	 esi, eax
  0017a	e8 00 00 00 00	 call	 ?IsDead@CInstanceBase@@QAEHXZ ; CInstanceBase::IsDead

; 717  : 		if (nLeftDeadPoint<nRightDeadPoint)

  0017f	3b f0		 cmp	 esi, eax
  00181	0f 8c 84 00 00
	00		 jl	 $LN170@Partition_

; 720  : 		if (pkInstLeft->CalculateDistanceSq3d(m_kPPosEye)<pkInstRight->CalculateDistanceSq3d(m_kPPosEye))

  00187	8b 75 f0	 mov	 esi, DWORD PTR _this$1$[ebp]
  0018a	8b 4d f4	 mov	 ecx, DWORD PTR _pkInstLeft$1$[ebp]
  0018d	56		 push	 esi
  0018e	e8 00 00 00 00	 call	 ?CalculateDistanceSq3d@CInstanceBase@@QAEMABUD3DXVECTOR3@@@Z ; CInstanceBase::CalculateDistanceSq3d
  00193	d9 5d f4	 fstp	 DWORD PTR tv758[ebp]
  00196	56		 push	 esi
  00197	8b cb		 mov	 ecx, ebx
  00199	e8 00 00 00 00	 call	 ?CalculateDistanceSq3d@CInstanceBase@@QAEMABUD3DXVECTOR3@@@Z ; CInstanceBase::CalculateDistanceSq3d
  0019e	d9 5d f0	 fstp	 DWORD PTR tv754[ebp]
  001a1	f3 0f 10 45 f0	 movss	 xmm0, DWORD PTR tv754[ebp]
  001a6	0f 2f 45 f4	 comiss	 xmm0, DWORD PTR tv758[ebp]
  001aa	77 5f		 ja	 SHORT $LN170@Partition_
; File C:\Program Files (x86)\Microsoft Visual Studio\2019\Community\VC\Tools\MSVC\14.28.29333\include\xutility

; 203  :             return _Fn(_STD forward<_Args>(_Vals)...);

  001ac	8b 4d fc	 mov	 ecx, DWORD PTR __Plast$1$[ebp]
  001af	8b 07		 mov	 eax, DWORD PTR [edi]
  001b1	89 45 f4	 mov	 DWORD PTR _pkInstLeft$1$[ebp], eax
  001b4	8b 19		 mov	 ebx, DWORD PTR [ecx]
  001b6	8b 4d 14	 mov	 ecx, DWORD PTR __Pred$[ebp]
  001b9	89 4d f0	 mov	 DWORD PTR _this$1$[ebp], ecx
; File D:\Metin2 Server Files\mainline\SRC_2014\Metin2Client\UserInterface\PythonCharacterManager.cpp

; 714  : 		int nLeftDeadPoint=pkInstLeft->IsDead();

  001bc	8b c8		 mov	 ecx, eax
  001be	e8 00 00 00 00	 call	 ?IsDead@CInstanceBase@@QAEHXZ ; CInstanceBase::IsDead

; 715  : 		int nRightDeadPoint=pkInstRight->IsDead();

  001c3	8b cb		 mov	 ecx, ebx
  001c5	8b f0		 mov	 esi, eax
  001c7	e8 00 00 00 00	 call	 ?IsDead@CInstanceBase@@QAEHXZ ; CInstanceBase::IsDead

; 717  : 		if (nLeftDeadPoint<nRightDeadPoint)

  001cc	3b f0		 cmp	 esi, eax
  001ce	7c 3b		 jl	 SHORT $LN170@Partition_

; 720  : 		if (pkInstLeft->CalculateDistanceSq3d(m_kPPosEye)<pkInstRight->CalculateDistanceSq3d(m_kPPosEye))

  001d0	8b 75 f0	 mov	 esi, DWORD PTR _this$1$[ebp]
  001d3	8b 4d f4	 mov	 ecx, DWORD PTR _pkInstLeft$1$[ebp]
  001d6	56		 push	 esi
  001d7	e8 00 00 00 00	 call	 ?CalculateDistanceSq3d@CInstanceBase@@QAEMABUD3DXVECTOR3@@@Z ; CInstanceBase::CalculateDistanceSq3d
  001dc	d9 5d f4	 fstp	 DWORD PTR tv748[ebp]
  001df	56		 push	 esi
  001e0	8b cb		 mov	 ecx, ebx
  001e2	e8 00 00 00 00	 call	 ?CalculateDistanceSq3d@CInstanceBase@@QAEMABUD3DXVECTOR3@@@Z ; CInstanceBase::CalculateDistanceSq3d
  001e7	8b 55 fc	 mov	 edx, DWORD PTR __Plast$1$[ebp]
  001ea	8b 45 10	 mov	 eax, DWORD PTR __Last$[ebp]
  001ed	d9 5d f0	 fstp	 DWORD PTR tv743[ebp]
  001f0	f3 0f 10 45 f0	 movss	 xmm0, DWORD PTR tv743[ebp]
  001f5	0f 2f 45 f4	 comiss	 xmm0, DWORD PTR tv748[ebp]
  001f9	77 16		 ja	 SHORT $LN164@Partition_
; File C:\Program Files (x86)\Microsoft Visual Studio\2019\Community\VC\Tools\MSVC\14.28.29333\include\algorithm

; 7480 :         ++_Plast;

  001fb	83 c2 04	 add	 edx, 4
  001fe	89 55 fc	 mov	 DWORD PTR __Plast$1$[ebp], edx
  00201	3b d0		 cmp	 edx, eax
  00203	0f 82 59 ff ff
	ff		 jb	 $LL4@Partition_
; File D:\Metin2 Server Files\mainline\SRC_2014\Metin2Client\UserInterface\PythonCharacterManager.cpp

; 717  : 		if (nLeftDeadPoint<nRightDeadPoint)

  00209	eb 06		 jmp	 SHORT $LN164@Partition_
$LN170@Partition_:
; File C:\Program Files (x86)\Microsoft Visual Studio\2019\Community\VC\Tools\MSVC\14.28.29333\include\algorithm

; 7483 :     _RanIt _Gfirst = _Plast;

  0020b	8b 55 fc	 mov	 edx, DWORD PTR __Plast$1$[ebp]
  0020e	8b 45 10	 mov	 eax, DWORD PTR __Last$[ebp]
$LN164@Partition_:
  00211	8b da		 mov	 ebx, edx

; 7484 :     _RanIt _Glast  = _Pfirst;

  00213	8b d7		 mov	 edx, edi
$LN176@Partition_:

; 7487 :         for (; _Gfirst < _Last; ++_Gfirst) {

  00215	89 55 f8	 mov	 DWORD PTR __Glast$1$[ebp], edx
$LN175@Partition_:
  00218	89 5d f4	 mov	 DWORD PTR __Gfirst$1$[ebp], ebx
  0021b	0f 1f 44 00 00	 npad	 5
$LL6@Partition_:
  00220	3b d8		 cmp	 ebx, eax
  00222	0f 83 c1 00 00
	00		 jae	 $LN156@Partition_
$LL11@Partition_:
; File C:\Program Files (x86)\Microsoft Visual Studio\2019\Community\VC\Tools\MSVC\14.28.29333\include\xutility

; 203  :             return _Fn(_STD forward<_Args>(_Vals)...);

  00228	8b 03		 mov	 eax, DWORD PTR [ebx]
  0022a	8b 4d 14	 mov	 ecx, DWORD PTR __Pred$[ebp]
  0022d	89 45 f4	 mov	 DWORD PTR _pkInstRight$1$[ebp], eax
  00230	8b 07		 mov	 eax, DWORD PTR [edi]
  00232	89 4d f0	 mov	 DWORD PTR _this$1$[ebp], ecx
; File D:\Metin2 Server Files\mainline\SRC_2014\Metin2Client\UserInterface\PythonCharacterManager.cpp

; 714  : 		int nLeftDeadPoint=pkInstLeft->IsDead();

  00235	8b c8		 mov	 ecx, eax
; File C:\Program Files (x86)\Microsoft Visual Studio\2019\Community\VC\Tools\MSVC\14.28.29333\include\xutility

; 203  :             return _Fn(_STD forward<_Args>(_Vals)...);

  00237	89 45 ec	 mov	 DWORD PTR _pkInstLeft$1$[ebp], eax
; File D:\Metin2 Server Files\mainline\SRC_2014\Metin2Client\UserInterface\PythonCharacterManager.cpp

; 714  : 		int nLeftDeadPoint=pkInstLeft->IsDead();

  0023a	e8 00 00 00 00	 call	 ?IsDead@CInstanceBase@@QAEHXZ ; CInstanceBase::IsDead

; 715  : 		int nRightDeadPoint=pkInstRight->IsDead();

  0023f	8b 4d f4	 mov	 ecx, DWORD PTR _pkInstRight$1$[ebp]
  00242	8b f0		 mov	 esi, eax
  00244	e8 00 00 00 00	 call	 ?IsDead@CInstanceBase@@QAEHXZ ; CInstanceBase::IsDead

; 717  : 		if (nLeftDeadPoint<nRightDeadPoint)

  00249	3b f0		 cmp	 esi, eax
  0024b	0f 8c 86 00 00
	00		 jl	 $LN9@Partition_

; 720  : 		if (pkInstLeft->CalculateDistanceSq3d(m_kPPosEye)<pkInstRight->CalculateDistanceSq3d(m_kPPosEye))

  00251	8b 75 f0	 mov	 esi, DWORD PTR _this$1$[ebp]
  00254	8b 4d ec	 mov	 ecx, DWORD PTR _pkInstLeft$1$[ebp]
  00257	56		 push	 esi
  00258	e8 00 00 00 00	 call	 ?CalculateDistanceSq3d@CInstanceBase@@QAEMABUD3DXVECTOR3@@@Z ; CInstanceBase::CalculateDistanceSq3d
  0025d	8b 4d f4	 mov	 ecx, DWORD PTR _pkInstRight$1$[ebp]
  00260	d9 5d f0	 fstp	 DWORD PTR tv736[ebp]
  00263	56		 push	 esi
  00264	e8 00 00 00 00	 call	 ?CalculateDistanceSq3d@CInstanceBase@@QAEMABUD3DXVECTOR3@@@Z ; CInstanceBase::CalculateDistanceSq3d
  00269	d9 5d ec	 fstp	 DWORD PTR tv732[ebp]
  0026c	f3 0f 10 45 ec	 movss	 xmm0, DWORD PTR tv732[ebp]
  00271	0f 2f 45 f0	 comiss	 xmm0, DWORD PTR tv736[ebp]
  00275	77 60		 ja	 SHORT $LN9@Partition_
; File C:\Program Files (x86)\Microsoft Visual Studio\2019\Community\VC\Tools\MSVC\14.28.29333\include\xutility

; 203  :             return _Fn(_STD forward<_Args>(_Vals)...);

  00277	8b 07		 mov	 eax, DWORD PTR [edi]
  00279	8b 4d 14	 mov	 ecx, DWORD PTR __Pred$[ebp]
  0027c	89 45 f4	 mov	 DWORD PTR _pkInstRight$1$[ebp], eax
  0027f	8b 03		 mov	 eax, DWORD PTR [ebx]
  00281	89 4d ec	 mov	 DWORD PTR _this$1$[ebp], ecx
; File D:\Metin2 Server Files\mainline\SRC_2014\Metin2Client\UserInterface\PythonCharacterManager.cpp

; 714  : 		int nLeftDeadPoint=pkInstLeft->IsDead();

  00284	8b c8		 mov	 ecx, eax
; File C:\Program Files (x86)\Microsoft Visual Studio\2019\Community\VC\Tools\MSVC\14.28.29333\include\xutility

; 203  :             return _Fn(_STD forward<_Args>(_Vals)...);

  00286	89 45 f0	 mov	 DWORD PTR _pkInstLeft$1$[ebp], eax
; File D:\Metin2 Server Files\mainline\SRC_2014\Metin2Client\UserInterface\PythonCharacterManager.cpp

; 714  : 		int nLeftDeadPoint=pkInstLeft->IsDead();

  00289	e8 00 00 00 00	 call	 ?IsDead@CInstanceBase@@QAEHXZ ; CInstanceBase::IsDead

; 715  : 		int nRightDeadPoint=pkInstRight->IsDead();

  0028e	8b 4d f4	 mov	 ecx, DWORD PTR _pkInstRight$1$[ebp]
  00291	8b f0		 mov	 esi, eax
  00293	e8 00 00 00 00	 call	 ?IsDead@CInstanceBase@@QAEHXZ ; CInstanceBase::IsDead

; 717  : 		if (nLeftDeadPoint<nRightDeadPoint)

  00298	3b f0		 cmp	 esi, eax
  0029a	7c 47		 jl	 SHORT $LN165@Partition_

; 720  : 		if (pkInstLeft->CalculateDistanceSq3d(m_kPPosEye)<pkInstRight->CalculateDistanceSq3d(m_kPPosEye))

  0029c	8b 75 ec	 mov	 esi, DWORD PTR _this$1$[ebp]
  0029f	8b 4d f0	 mov	 ecx, DWORD PTR _pkInstLeft$1$[ebp]
  002a2	56		 push	 esi
  002a3	e8 00 00 00 00	 call	 ?CalculateDistanceSq3d@CInstanceBase@@QAEMABUD3DXVECTOR3@@@Z ; CInstanceBase::CalculateDistanceSq3d
  002a8	8b 4d f4	 mov	 ecx, DWORD PTR _pkInstRight$1$[ebp]
  002ab	d9 5d f0	 fstp	 DWORD PTR tv725[ebp]
  002ae	56		 push	 esi
  002af	e8 00 00 00 00	 call	 ?CalculateDistanceSq3d@CInstanceBase@@QAEMABUD3DXVECTOR3@@@Z ; CInstanceBase::CalculateDistanceSq3d
  002b4	d9 5d ec	 fstp	 DWORD PTR tv721[ebp]
  002b7	f3 0f 10 45 ec	 movss	 xmm0, DWORD PTR tv721[ebp]
  002bc	0f 2f 45 f0	 comiss	 xmm0, DWORD PTR tv725[ebp]
  002c0	77 21		 ja	 SHORT $LN165@Partition_
; File C:\Program Files (x86)\Microsoft Visual Studio\2019\Community\VC\Tools\MSVC\14.28.29333\include\algorithm

; 7492 :             } else if (_Plast != _Gfirst) {

  002c2	8b 55 fc	 mov	 edx, DWORD PTR __Plast$1$[ebp]
  002c5	8d 72 04	 lea	 esi, DWORD PTR [edx+4]
  002c8	89 75 fc	 mov	 DWORD PTR __Plast$1$[ebp], esi
  002cb	3b d3		 cmp	 edx, ebx
  002cd	74 08		 je	 SHORT $LN9@Partition_
; File C:\Program Files (x86)\Microsoft Visual Studio\2019\Community\VC\Tools\MSVC\14.28.29333\include\utility

; 104  :     _Ty _Tmp = _STD move(_Left);

  002cf	8b 0a		 mov	 ecx, DWORD PTR [edx]

; 105  :     _Left    = _STD move(_Right);

  002d1	8b 03		 mov	 eax, DWORD PTR [ebx]
  002d3	89 02		 mov	 DWORD PTR [edx], eax

; 106  :     _Right   = _STD move(_Tmp);

  002d5	89 0b		 mov	 DWORD PTR [ebx], ecx
$LN9@Partition_:
; File C:\Program Files (x86)\Microsoft Visual Studio\2019\Community\VC\Tools\MSVC\14.28.29333\include\algorithm

; 7487 :         for (; _Gfirst < _Last; ++_Gfirst) {

  002d7	83 c3 04	 add	 ebx, 4
  002da	3b 5d 10	 cmp	 ebx, DWORD PTR __Last$[ebp]
  002dd	0f 82 45 ff ff
	ff		 jb	 $LL11@Partition_
$LN165@Partition_:
  002e3	8b 55 f8	 mov	 edx, DWORD PTR __Glast$1$[ebp]
  002e6	89 5d f4	 mov	 DWORD PTR __Gfirst$1$[ebp], ebx
$LN156@Partition_:

; 7500 :         for (; _First < _Glast; --_Glast) {

  002e9	8b 45 0c	 mov	 eax, DWORD PTR __First$[ebp]
  002ec	3b d0		 cmp	 edx, eax
  002ee	0f 86 d0 00 00
	00		 jbe	 $LN174@Partition_
  002f4	8d 5a fc	 lea	 ebx, DWORD PTR [edx-4]
$LL14@Partition_:
; File C:\Program Files (x86)\Microsoft Visual Studio\2019\Community\VC\Tools\MSVC\14.28.29333\include\xutility

; 203  :             return _Fn(_STD forward<_Args>(_Vals)...);

  002f7	8b 07		 mov	 eax, DWORD PTR [edi]
  002f9	8b 4d 14	 mov	 ecx, DWORD PTR __Pred$[ebp]
  002fc	89 45 f0	 mov	 DWORD PTR _pkInstRight$1$[ebp], eax
  002ff	8b 03		 mov	 eax, DWORD PTR [ebx]
  00301	89 4d ec	 mov	 DWORD PTR _this$1$[ebp], ecx
; File D:\Metin2 Server Files\mainline\SRC_2014\Metin2Client\UserInterface\PythonCharacterManager.cpp

; 714  : 		int nLeftDeadPoint=pkInstLeft->IsDead();

  00304	8b c8		 mov	 ecx, eax
; File C:\Program Files (x86)\Microsoft Visual Studio\2019\Community\VC\Tools\MSVC\14.28.29333\include\xutility

; 203  :             return _Fn(_STD forward<_Args>(_Vals)...);

  00306	89 45 e8	 mov	 DWORD PTR _pkInstLeft$1$[ebp], eax
; File D:\Metin2 Server Files\mainline\SRC_2014\Metin2Client\UserInterface\PythonCharacterManager.cpp

; 714  : 		int nLeftDeadPoint=pkInstLeft->IsDead();

  00309	e8 00 00 00 00	 call	 ?IsDead@CInstanceBase@@QAEHXZ ; CInstanceBase::IsDead

; 715  : 		int nRightDeadPoint=pkInstRight->IsDead();

  0030e	8b 4d f0	 mov	 ecx, DWORD PTR _pkInstRight$1$[ebp]
  00311	8b f0		 mov	 esi, eax
  00313	e8 00 00 00 00	 call	 ?IsDead@CInstanceBase@@QAEHXZ ; CInstanceBase::IsDead

; 717  : 		if (nLeftDeadPoint<nRightDeadPoint)

  00318	3b f0		 cmp	 esi, eax
  0031a	0f 8c 80 00 00
	00		 jl	 $LN12@Partition_

; 720  : 		if (pkInstLeft->CalculateDistanceSq3d(m_kPPosEye)<pkInstRight->CalculateDistanceSq3d(m_kPPosEye))

  00320	8b 75 ec	 mov	 esi, DWORD PTR _this$1$[ebp]
  00323	8b 4d e8	 mov	 ecx, DWORD PTR _pkInstLeft$1$[ebp]
  00326	56		 push	 esi
  00327	e8 00 00 00 00	 call	 ?CalculateDistanceSq3d@CInstanceBase@@QAEMABUD3DXVECTOR3@@@Z ; CInstanceBase::CalculateDistanceSq3d
  0032c	8b 4d f0	 mov	 ecx, DWORD PTR _pkInstRight$1$[ebp]
  0032f	d9 5d ec	 fstp	 DWORD PTR tv714[ebp]
  00332	56		 push	 esi
  00333	e8 00 00 00 00	 call	 ?CalculateDistanceSq3d@CInstanceBase@@QAEMABUD3DXVECTOR3@@@Z ; CInstanceBase::CalculateDistanceSq3d
  00338	d9 5d e8	 fstp	 DWORD PTR tv710[ebp]
  0033b	f3 0f 10 45 e8	 movss	 xmm0, DWORD PTR tv710[ebp]
  00340	0f 2f 45 ec	 comiss	 xmm0, DWORD PTR tv714[ebp]
  00344	77 5a		 ja	 SHORT $LN12@Partition_
; File C:\Program Files (x86)\Microsoft Visual Studio\2019\Community\VC\Tools\MSVC\14.28.29333\include\xutility

; 203  :             return _Fn(_STD forward<_Args>(_Vals)...);

  00346	8b 03		 mov	 eax, DWORD PTR [ebx]
  00348	8b 4d 14	 mov	 ecx, DWORD PTR __Pred$[ebp]
  0034b	89 45 f0	 mov	 DWORD PTR _pkInstRight$1$[ebp], eax
  0034e	8b 07		 mov	 eax, DWORD PTR [edi]
  00350	89 4d e8	 mov	 DWORD PTR _this$1$[ebp], ecx
; File D:\Metin2 Server Files\mainline\SRC_2014\Metin2Client\UserInterface\PythonCharacterManager.cpp

; 714  : 		int nLeftDeadPoint=pkInstLeft->IsDead();

  00353	8b c8		 mov	 ecx, eax
; File C:\Program Files (x86)\Microsoft Visual Studio\2019\Community\VC\Tools\MSVC\14.28.29333\include\xutility

; 203  :             return _Fn(_STD forward<_Args>(_Vals)...);

  00355	89 45 ec	 mov	 DWORD PTR _pkInstLeft$1$[ebp], eax
; File D:\Metin2 Server Files\mainline\SRC_2014\Metin2Client\UserInterface\PythonCharacterManager.cpp

; 714  : 		int nLeftDeadPoint=pkInstLeft->IsDead();

  00358	e8 00 00 00 00	 call	 ?IsDead@CInstanceBase@@QAEHXZ ; CInstanceBase::IsDead

; 715  : 		int nRightDeadPoint=pkInstRight->IsDead();

  0035d	8b 4d f0	 mov	 ecx, DWORD PTR _pkInstRight$1$[ebp]
  00360	8b f0		 mov	 esi, eax
  00362	e8 00 00 00 00	 call	 ?IsDead@CInstanceBase@@QAEHXZ ; CInstanceBase::IsDead

; 717  : 		if (nLeftDeadPoint<nRightDeadPoint)

  00367	3b f0		 cmp	 esi, eax
  00369	7c 4e		 jl	 SHORT $LN172@Partition_

; 720  : 		if (pkInstLeft->CalculateDistanceSq3d(m_kPPosEye)<pkInstRight->CalculateDistanceSq3d(m_kPPosEye))

  0036b	8b 75 e8	 mov	 esi, DWORD PTR _this$1$[ebp]
  0036e	8b 4d ec	 mov	 ecx, DWORD PTR _pkInstLeft$1$[ebp]
  00371	56		 push	 esi
  00372	e8 00 00 00 00	 call	 ?CalculateDistanceSq3d@CInstanceBase@@QAEMABUD3DXVECTOR3@@@Z ; CInstanceBase::CalculateDistanceSq3d
  00377	8b 4d f0	 mov	 ecx, DWORD PTR _pkInstRight$1$[ebp]
  0037a	d9 5d ec	 fstp	 DWORD PTR tv704[ebp]
  0037d	56		 push	 esi
  0037e	e8 00 00 00 00	 call	 ?CalculateDistanceSq3d@CInstanceBase@@QAEMABUD3DXVECTOR3@@@Z ; CInstanceBase::CalculateDistanceSq3d
  00383	d9 5d e8	 fstp	 DWORD PTR tv700[ebp]
  00386	f3 0f 10 45 e8	 movss	 xmm0, DWORD PTR tv700[ebp]
  0038b	0f 2f 45 ec	 comiss	 xmm0, DWORD PTR tv704[ebp]
  0038f	77 28		 ja	 SHORT $LN172@Partition_
; File C:\Program Files (x86)\Microsoft Visual Studio\2019\Community\VC\Tools\MSVC\14.28.29333\include\algorithm

; 7505 :             } else if (--_Pfirst != _Prev_iter(_Glast)) {

  00391	83 ef 04	 sub	 edi, 4
  00394	3b fb		 cmp	 edi, ebx
  00396	74 08		 je	 SHORT $LN12@Partition_
; File C:\Program Files (x86)\Microsoft Visual Studio\2019\Community\VC\Tools\MSVC\14.28.29333\include\utility

; 104  :     _Ty _Tmp = _STD move(_Left);

  00398	8b 0f		 mov	 ecx, DWORD PTR [edi]

; 105  :     _Left    = _STD move(_Right);

  0039a	8b 03		 mov	 eax, DWORD PTR [ebx]
  0039c	89 07		 mov	 DWORD PTR [edi], eax

; 106  :     _Right   = _STD move(_Tmp);

  0039e	89 0b		 mov	 DWORD PTR [ebx], ecx
$LN12@Partition_:
; File C:\Program Files (x86)\Microsoft Visual Studio\2019\Community\VC\Tools\MSVC\14.28.29333\include\algorithm

; 7500 :         for (; _First < _Glast; --_Glast) {

  003a0	8b 55 f8	 mov	 edx, DWORD PTR __Glast$1$[ebp]
  003a3	83 eb 04	 sub	 ebx, 4
  003a6	8b 45 0c	 mov	 eax, DWORD PTR __First$[ebp]
  003a9	83 ea 04	 sub	 edx, 4
  003ac	89 55 f8	 mov	 DWORD PTR __Glast$1$[ebp], edx
  003af	3b c2		 cmp	 eax, edx
  003b1	0f 82 40 ff ff
	ff		 jb	 $LL14@Partition_
; File D:\Metin2 Server Files\mainline\SRC_2014\Metin2Client\UserInterface\PythonCharacterManager.cpp

; 720  : 		if (pkInstLeft->CalculateDistanceSq3d(m_kPPosEye)<pkInstRight->CalculateDistanceSq3d(m_kPPosEye))

  003b7	eb 06		 jmp	 SHORT $LN166@Partition_
$LN172@Partition_:
; File C:\Program Files (x86)\Microsoft Visual Studio\2019\Community\VC\Tools\MSVC\14.28.29333\include\algorithm

; 7510 :         if (_Glast == _First && _Gfirst == _Last) {

  003b9	8b 45 0c	 mov	 eax, DWORD PTR __First$[ebp]
  003bc	8b 55 f8	 mov	 edx, DWORD PTR __Glast$1$[ebp]
$LN166@Partition_:
  003bf	8b 5d f4	 mov	 ebx, DWORD PTR __Gfirst$1$[ebp]
  003c2	3b d0		 cmp	 edx, eax
$LN174@Partition_:
  003c4	75 33		 jne	 SHORT $LN27@Partition_
  003c6	3b 5d 10	 cmp	 ebx, DWORD PTR __Last$[ebp]
  003c9	74 79		 je	 SHORT $LN124@Partition_

; 7512 :         }
; 7513 : 
; 7514 :         if (_Glast == _First) { // no room at bottom, rotate pivot upward
; 7515 :             if (_Plast != _Gfirst) {

  003cb	8b 55 fc	 mov	 edx, DWORD PTR __Plast$1$[ebp]
  003ce	3b d3		 cmp	 edx, ebx
  003d0	74 08		 je	 SHORT $LN99@Partition_
; File C:\Program Files (x86)\Microsoft Visual Studio\2019\Community\VC\Tools\MSVC\14.28.29333\include\utility

; 104  :     _Ty _Tmp = _STD move(_Left);

  003d2	8b 0f		 mov	 ecx, DWORD PTR [edi]

; 105  :     _Left    = _STD move(_Right);

  003d4	8b 02		 mov	 eax, DWORD PTR [edx]
  003d6	89 07		 mov	 DWORD PTR [edi], eax

; 106  :     _Right   = _STD move(_Tmp);

  003d8	89 0a		 mov	 DWORD PTR [edx], ecx
$LN99@Partition_:

; 105  :     _Left    = _STD move(_Right);

  003da	8b 03		 mov	 eax, DWORD PTR [ebx]
; File C:\Program Files (x86)\Microsoft Visual Studio\2019\Community\VC\Tools\MSVC\14.28.29333\include\algorithm

; 7519 :             ++_Plast;

  003dc	83 c2 04	 add	 edx, 4
; File C:\Program Files (x86)\Microsoft Visual Studio\2019\Community\VC\Tools\MSVC\14.28.29333\include\utility

; 104  :     _Ty _Tmp = _STD move(_Left);

  003df	8b 0f		 mov	 ecx, DWORD PTR [edi]

; 105  :     _Left    = _STD move(_Right);

  003e1	89 07		 mov	 DWORD PTR [edi], eax
; File C:\Program Files (x86)\Microsoft Visual Studio\2019\Community\VC\Tools\MSVC\14.28.29333\include\algorithm

; 7521 :             ++_Pfirst;

  003e3	83 c7 04	 add	 edi, 4

; 7522 :             ++_Gfirst;

  003e6	8b 45 10	 mov	 eax, DWORD PTR __Last$[ebp]
  003e9	89 55 fc	 mov	 DWORD PTR __Plast$1$[ebp], edx
  003ec	8b 55 f8	 mov	 edx, DWORD PTR __Glast$1$[ebp]
; File C:\Program Files (x86)\Microsoft Visual Studio\2019\Community\VC\Tools\MSVC\14.28.29333\include\utility

; 106  :     _Right   = _STD move(_Tmp);

  003ef	89 0b		 mov	 DWORD PTR [ebx], ecx
; File C:\Program Files (x86)\Microsoft Visual Studio\2019\Community\VC\Tools\MSVC\14.28.29333\include\algorithm

; 7522 :             ++_Gfirst;

  003f1	83 c3 04	 add	 ebx, 4
  003f4	e9 1f fe ff ff	 jmp	 $LN175@Partition_
$LN27@Partition_:

; 7523 :         } else if (_Gfirst == _Last) { // no room at top, rotate pivot downward

  003f9	83 c2 fc	 add	 edx, -4			; fffffffcH
  003fc	89 55 f8	 mov	 DWORD PTR __Glast$1$[ebp], edx
  003ff	3b 5d 10	 cmp	 ebx, DWORD PTR __Last$[ebp]
  00402	75 2d		 jne	 SHORT $LN30@Partition_

; 7524 :             if (--_Glast != --_Pfirst) {

  00404	83 ef 04	 sub	 edi, 4
  00407	3b d7		 cmp	 edx, edi
  00409	74 0a		 je	 SHORT $LN134@Partition_
; File C:\Program Files (x86)\Microsoft Visual Studio\2019\Community\VC\Tools\MSVC\14.28.29333\include\utility

; 104  :     _Ty _Tmp = _STD move(_Left);

  0040b	8b 0a		 mov	 ecx, DWORD PTR [edx]

; 105  :     _Left    = _STD move(_Right);

  0040d	8b 07		 mov	 eax, DWORD PTR [edi]
  0040f	89 02		 mov	 DWORD PTR [edx], eax

; 106  :     _Right   = _STD move(_Tmp);

  00411	89 0f		 mov	 DWORD PTR [edi], ecx
  00413	eb 02		 jmp	 SHORT $LN107@Partition_
$LN134@Partition_:
  00415	8b 0f		 mov	 ecx, DWORD PTR [edi]
$LN107@Partition_:
; File C:\Program Files (x86)\Microsoft Visual Studio\2019\Community\VC\Tools\MSVC\14.28.29333\include\algorithm

; 7528 :             _STD iter_swap(_Pfirst, --_Plast);

  00417	8b 55 fc	 mov	 edx, DWORD PTR __Plast$1$[ebp]
  0041a	83 ea 04	 sub	 edx, 4
  0041d	89 55 fc	 mov	 DWORD PTR __Plast$1$[ebp], edx
; File C:\Program Files (x86)\Microsoft Visual Studio\2019\Community\VC\Tools\MSVC\14.28.29333\include\utility

; 105  :     _Left    = _STD move(_Right);

  00420	8b 02		 mov	 eax, DWORD PTR [edx]
  00422	89 07		 mov	 DWORD PTR [edi], eax
; File C:\Program Files (x86)\Microsoft Visual Studio\2019\Community\VC\Tools\MSVC\14.28.29333\include\algorithm

; 7529 :         } else {

  00424	8b 45 10	 mov	 eax, DWORD PTR __Last$[ebp]
; File C:\Program Files (x86)\Microsoft Visual Studio\2019\Community\VC\Tools\MSVC\14.28.29333\include\utility

; 106  :     _Right   = _STD move(_Tmp);

  00427	89 0a		 mov	 DWORD PTR [edx], ecx
; File C:\Program Files (x86)\Microsoft Visual Studio\2019\Community\VC\Tools\MSVC\14.28.29333\include\algorithm

; 7529 :         } else {

  00429	8b 55 f8	 mov	 edx, DWORD PTR __Glast$1$[ebp]
  0042c	e9 ef fd ff ff	 jmp	 $LL6@Partition_
$LN30@Partition_:
; File C:\Program Files (x86)\Microsoft Visual Studio\2019\Community\VC\Tools\MSVC\14.28.29333\include\utility

; 104  :     _Ty _Tmp = _STD move(_Left);

  00431	8b 0b		 mov	 ecx, DWORD PTR [ebx]

; 105  :     _Left    = _STD move(_Right);

  00433	8b 02		 mov	 eax, DWORD PTR [edx]
  00435	89 03		 mov	 DWORD PTR [ebx], eax
; File C:\Program Files (x86)\Microsoft Visual Studio\2019\Community\VC\Tools\MSVC\14.28.29333\include\algorithm

; 7531 :             ++_Gfirst;

  00437	83 c3 04	 add	 ebx, 4

; 7533 :     }

  0043a	8b 45 10	 mov	 eax, DWORD PTR __Last$[ebp]
; File C:\Program Files (x86)\Microsoft Visual Studio\2019\Community\VC\Tools\MSVC\14.28.29333\include\utility

; 106  :     _Right   = _STD move(_Tmp);

  0043d	89 0a		 mov	 DWORD PTR [edx], ecx
; File C:\Program Files (x86)\Microsoft Visual Studio\2019\Community\VC\Tools\MSVC\14.28.29333\include\algorithm

; 7533 :     }

  0043f	e9 d1 fd ff ff	 jmp	 $LN176@Partition_
$LN124@Partition_:
; File C:\Program Files (x86)\Microsoft Visual Studio\2019\Community\VC\Tools\MSVC\14.28.29333\include\utility

; 190  :         : first(_STD forward<_Other1>(_Val1)), second(_STD forward<_Other2>(_Val2)) {}

  00444	8b 45 08	 mov	 eax, DWORD PTR ___$ReturnUdt$[ebp]
  00447	8b 4d fc	 mov	 ecx, DWORD PTR __Plast$1$[ebp]
  0044a	89 38		 mov	 DWORD PTR [eax], edi
; File C:\Program Files (x86)\Microsoft Visual Studio\2019\Community\VC\Tools\MSVC\14.28.29333\include\algorithm

; 7511 :             return pair<_RanIt, _RanIt>(_Pfirst, _Plast);

  0044c	5f		 pop	 edi
  0044d	5e		 pop	 esi
; File C:\Program Files (x86)\Microsoft Visual Studio\2019\Community\VC\Tools\MSVC\14.28.29333\include\utility

; 190  :         : first(_STD forward<_Other1>(_Val1)), second(_STD forward<_Other2>(_Val2)) {}

  0044e	89 48 04	 mov	 DWORD PTR [eax+4], ecx
; File C:\Program Files (x86)\Microsoft Visual Studio\2019\Community\VC\Tools\MSVC\14.28.29333\include\algorithm

; 7511 :             return pair<_RanIt, _RanIt>(_Pfirst, _Plast);

  00451	5b		 pop	 ebx

; 7534 : }

  00452	8b e5		 mov	 esp, ebp
  00454	5d		 pop	 ebp
  00455	c3		 ret	 0
??$_Partition_by_median_guess_unchecked@PAPAVCInstanceBase@@U?$_Ref_fn@UCInstanceBase_SLessCameraDistance@@@std@@@std@@YA?AU?$pair@PAPAVCInstanceBase@@PAPAV1@@0@PAPAVCInstanceBase@@0U?$_Ref_fn@UCInstanceBase_SLessCameraDistance@@@0@@Z ENDP ; std::_Partition_by_median_guess_unchecked<CInstanceBase * *,std::_Ref_fn<CInstanceBase_SLessCameraDistance> >
_TEXT	ENDS
; Function compile flags: /Ogtp
; File C:\Program Files (x86)\Microsoft Visual Studio\2019\Community\VC\Tools\MSVC\14.28.29333\include\xmemory
;	COMDAT ??1?$_Alloc_construct_ptr@V?$allocator@U?$_Tree_node@U?$pair@$$CBKPAVCInstanceBase@@@std@@PAX@std@@@std@@@std@@QAE@XZ
_TEXT	SEGMENT
??1?$_Alloc_construct_ptr@V?$allocator@U?$_Tree_node@U?$pair@$$CBKPAVCInstanceBase@@@std@@PAX@std@@@std@@@std@@QAE@XZ PROC ; std::_Alloc_construct_ptr<std::allocator<std::_Tree_node<std::pair<unsigned long const ,CInstanceBase *>,void *> > >::~_Alloc_construct_ptr<std::allocator<std::_Tree_node<std::pair<unsigned long const ,CInstanceBase *>,void *> > >, COMDAT
; _this$ = ecx

; 1057 :         if (_Ptr) {

  00000	8b 41 04	 mov	 eax, DWORD PTR [ecx+4]
  00003	85 c0		 test	 eax, eax
  00005	74 0b		 je	 SHORT $LN2@Alloc_cons

; 810  :         _Deallocate<_New_alignof<_Ty>>(_Ptr, sizeof(_Ty) * _Count);

  00007	6a 18		 push	 24			; 00000018H
  00009	50		 push	 eax
  0000a	e8 00 00 00 00	 call	 ??$_Deallocate@$07$0A@@std@@YAXPAXI@Z ; std::_Deallocate<8,0>
  0000f	83 c4 08	 add	 esp, 8
$LN2@Alloc_cons:

; 1058 :             _Al.deallocate(_Ptr, 1);
; 1059 :         }
; 1060 :     }

  00012	c3		 ret	 0
??1?$_Alloc_construct_ptr@V?$allocator@U?$_Tree_node@U?$pair@$$CBKPAVCInstanceBase@@@std@@PAX@std@@@std@@@std@@QAE@XZ ENDP ; std::_Alloc_construct_ptr<std::allocator<std::_Tree_node<std::pair<unsigned long const ,CInstanceBase *>,void *> > >::~_Alloc_construct_ptr<std::allocator<std::_Tree_node<std::pair<unsigned long const ,CInstanceBase *>,void *> > >
_TEXT	ENDS
; Function compile flags: /Ogtp
; File C:\Program Files (x86)\Microsoft Visual Studio\2019\Community\VC\Tools\MSVC\14.28.29333\include\algorithm
; File D:\Metin2 Server Files\mainline\SRC_2014\Metin2Client\UserInterface\PythonCharacterManager.cpp
; File C:\Program Files (x86)\Microsoft Visual Studio\2019\Community\VC\Tools\MSVC\14.28.29333\include\algorithm
; File D:\Metin2 Server Files\mainline\SRC_2014\Metin2Client\UserInterface\PythonCharacterManager.cpp
; File C:\Program Files (x86)\Microsoft Visual Studio\2019\Community\VC\Tools\MSVC\14.28.29333\include\algorithm
; File D:\Metin2 Server Files\mainline\SRC_2014\Metin2Client\UserInterface\PythonCharacterManager.cpp
; File C:\Program Files (x86)\Microsoft Visual Studio\2019\Community\VC\Tools\MSVC\14.28.29333\include\algorithm
; File D:\Metin2 Server Files\mainline\SRC_2014\Metin2Client\UserInterface\PythonCharacterManager.cpp
; File C:\Program Files (x86)\Microsoft Visual Studio\2019\Community\VC\Tools\MSVC\14.28.29333\include\algorithm
; File D:\Metin2 Server Files\mainline\SRC_2014\Metin2Client\UserInterface\PythonCharacterManager.cpp
; File C:\Program Files (x86)\Microsoft Visual Studio\2019\Community\VC\Tools\MSVC\14.28.29333\include\algorithm
; File D:\Metin2 Server Files\mainline\SRC_2014\Metin2Client\UserInterface\PythonCharacterManager.cpp
; File C:\Program Files (x86)\Microsoft Visual Studio\2019\Community\VC\Tools\MSVC\14.28.29333\include\algorithm
; File C:\Program Files (x86)\Microsoft Visual Studio\2019\Community\VC\Tools\MSVC\14.28.29333\include\utility
; File C:\Program Files (x86)\Microsoft Visual Studio\2019\Community\VC\Tools\MSVC\14.28.29333\include\algorithm
; File D:\Metin2 Server Files\mainline\SRC_2014\Metin2Client\UserInterface\PythonCharacterManager.cpp
; File C:\Program Files (x86)\Microsoft Visual Studio\2019\Community\VC\Tools\MSVC\14.28.29333\include\algorithm
; File D:\Metin2 Server Files\mainline\SRC_2014\Metin2Client\UserInterface\PythonCharacterManager.cpp
; File C:\Program Files (x86)\Microsoft Visual Studio\2019\Community\VC\Tools\MSVC\14.28.29333\include\algorithm
; File C:\Program Files (x86)\Microsoft Visual Studio\2019\Community\VC\Tools\MSVC\14.28.29333\include\utility
; File C:\Program Files (x86)\Microsoft Visual Studio\2019\Community\VC\Tools\MSVC\14.28.29333\include\algorithm
; File C:\Program Files (x86)\Microsoft Visual Studio\2019\Community\VC\Tools\MSVC\14.28.29333\include\utility
; File C:\Program Files (x86)\Microsoft Visual Studio\2019\Community\VC\Tools\MSVC\14.28.29333\include\algorithm
; File C:\Program Files (x86)\Microsoft Visual Studio\2019\Community\VC\Tools\MSVC\14.28.29333\include\utility
; File C:\Program Files (x86)\Microsoft Visual Studio\2019\Community\VC\Tools\MSVC\14.28.29333\include\algorithm
; File C:\Program Files (x86)\Microsoft Visual Studio\2019\Community\VC\Tools\MSVC\14.28.29333\include\utility
; File C:\Program Files (x86)\Microsoft Visual Studio\2019\Community\VC\Tools\MSVC\14.28.29333\include\algorithm
; File C:\Program Files (x86)\Microsoft Visual Studio\2019\Community\VC\Tools\MSVC\14.28.29333\include\utility
; File C:\Program Files (x86)\Microsoft Visual Studio\2019\Community\VC\Tools\MSVC\14.28.29333\include\algorithm
; File C:\Program Files (x86)\Microsoft Visual Studio\2019\Community\VC\Tools\MSVC\14.28.29333\include\utility
; File C:\Program Files (x86)\Microsoft Visual Studio\2019\Community\VC\Tools\MSVC\14.28.29333\include\algorithm
; File C:\Program Files (x86)\Microsoft Visual Studio\2019\Community\VC\Tools\MSVC\14.28.29333\include\utility
; File C:\Program Files (x86)\Microsoft Visual Studio\2019\Community\VC\Tools\MSVC\14.28.29333\include\algorithm
; File C:\Program Files (x86)\Microsoft Visual Studio\2019\Community\VC\Tools\MSVC\14.28.29333\include\utility
; File C:\Program Files (x86)\Microsoft Visual Studio\2019\Community\VC\Tools\MSVC\14.28.29333\include\algorithm
; File C:\Program Files (x86)\Microsoft Visual Studio\2019\Community\VC\Tools\MSVC\14.28.29333\include\utility
; File C:\Program Files (x86)\Microsoft Visual Studio\2019\Community\VC\Tools\MSVC\14.28.29333\include\algorithm
; File C:\Program Files (x86)\Microsoft Visual Studio\2019\Community\VC\Tools\MSVC\14.28.29333\include\utility
; File C:\Program Files (x86)\Microsoft Visual Studio\2019\Community\VC\Tools\MSVC\14.28.29333\include\algorithm
; File C:\Program Files (x86)\Microsoft Visual Studio\2019\Community\VC\Tools\MSVC\14.28.29333\include\utility
; File C:\Program Files (x86)\Microsoft Visual Studio\2019\Community\VC\Tools\MSVC\14.28.29333\include\algorithm
; File C:\Program Files (x86)\Microsoft Visual Studio\2019\Community\VC\Tools\MSVC\14.28.29333\include\utility
; File C:\Program Files (x86)\Microsoft Visual Studio\2019\Community\VC\Tools\MSVC\14.28.29333\include\algorithm
; File C:\Program Files (x86)\Microsoft Visual Studio\2019\Community\VC\Tools\MSVC\14.28.29333\include\utility
; File C:\Program Files (x86)\Microsoft Visual Studio\2019\Community\VC\Tools\MSVC\14.28.29333\include\algorithm
; File C:\Program Files (x86)\Microsoft Visual Studio\2019\Community\VC\Tools\MSVC\14.28.29333\include\utility
; File C:\Program Files (x86)\Microsoft Visual Studio\2019\Community\VC\Tools\MSVC\14.28.29333\include\algorithm
;	COMDAT ??$_Partition_by_median_guess_unchecked@PAPAVCInstanceBase@@ULessCharacterInstancePtrRenderOrder@@@std@@YA?AU?$pair@PAPAVCInstanceBase@@PAPAV1@@0@PAPAVCInstanceBase@@0ULessCharacterInstancePtrRenderOrder@@@Z
_TEXT	SEGMENT
__Gfirst$1$ = -12					; size = 4
__Glast$1$ = -8						; size = 4
__Plast$1$ = -4						; size = 4
___$ReturnUdt$ = 8					; size = 4
__First$ = 12						; size = 4
__Last$ = 16						; size = 4
__Pred$ = 20						; size = 1
??$_Partition_by_median_guess_unchecked@PAPAVCInstanceBase@@ULessCharacterInstancePtrRenderOrder@@@std@@YA?AU?$pair@PAPAVCInstanceBase@@PAPAV1@@0@PAPAVCInstanceBase@@0ULessCharacterInstancePtrRenderOrder@@@Z PROC ; std::_Partition_by_median_guess_unchecked<CInstanceBase * *,LessCharacterInstancePtrRenderOrder>, COMDAT

; 7467 : _CONSTEXPR20 pair<_RanIt, _RanIt> _Partition_by_median_guess_unchecked(_RanIt _First, _RanIt _Last, _Pr _Pred) {

  00000	55		 push	 ebp
  00001	8b ec		 mov	 ebp, esp
  00003	83 ec 0c	 sub	 esp, 12			; 0000000cH

; 7468 :     // partition [_First, _Last)
; 7469 :     _RanIt _Mid = _First + ((_Last - _First) >> 1); // shift for codegen

  00006	8b 4d 0c	 mov	 ecx, DWORD PTR __First$[ebp]
  00009	53		 push	 ebx
  0000a	56		 push	 esi
  0000b	57		 push	 edi
  0000c	8b 7d 10	 mov	 edi, DWORD PTR __Last$[ebp]
  0000f	8b c7		 mov	 eax, edi

; 7470 :     _Guess_median_unchecked(_First, _Mid, _Prev_iter(_Last), _Pred);

  00011	ff 75 14	 push	 DWORD PTR __Pred$[ebp]
  00014	2b c1		 sub	 eax, ecx
  00016	c1 f8 03	 sar	 eax, 3
  00019	8d 34 81	 lea	 esi, DWORD PTR [ecx+eax*4]
  0001c	8d 47 fc	 lea	 eax, DWORD PTR [edi-4]
  0001f	50		 push	 eax
  00020	56		 push	 esi
  00021	51		 push	 ecx
  00022	e8 00 00 00 00	 call	 ??$_Guess_median_unchecked@PAPAVCInstanceBase@@ULessCharacterInstancePtrRenderOrder@@@std@@YAXPAPAVCInstanceBase@@00ULessCharacterInstancePtrRenderOrder@@@Z ; std::_Guess_median_unchecked<CInstanceBase * *,LessCharacterInstancePtrRenderOrder>
  00027	83 c4 10	 add	 esp, 16			; 00000010H

; 7471 :     _RanIt _Pfirst = _Mid;
; 7472 :     _RanIt _Plast  = _Next_iter(_Pfirst);

  0002a	8d 5e 04	 lea	 ebx, DWORD PTR [esi+4]
  0002d	89 5d fc	 mov	 DWORD PTR __Plast$1$[ebp], ebx

; 7475 :            && !_Pred(*_Pfirst, *_Prev_iter(_Pfirst))) {

  00030	39 75 0c	 cmp	 DWORD PTR __First$[ebp], esi
  00033	73 31		 jae	 SHORT $LN82@Partition_
  00035	8b 5d 0c	 mov	 ebx, DWORD PTR __First$[ebp]
  00038	0f 1f 84 00 00
	00 00 00	 npad	 8
$LL2@Partition_:
; File D:\Metin2 Server Files\mainline\SRC_2014\Metin2Client\UserInterface\PythonCharacterManager.cpp

; 427  : 		return pkLeft->LessRenderOrder(pkRight);		

  00040	ff 36		 push	 DWORD PTR [esi]
  00042	8b 4e fc	 mov	 ecx, DWORD PTR [esi-4]
  00045	e8 00 00 00 00	 call	 ?LessRenderOrder@CInstanceBase@@QAE_NPAV1@@Z ; CInstanceBase::LessRenderOrder
; File C:\Program Files (x86)\Microsoft Visual Studio\2019\Community\VC\Tools\MSVC\14.28.29333\include\algorithm

; 7475 :            && !_Pred(*_Pfirst, *_Prev_iter(_Pfirst))) {

  0004a	84 c0		 test	 al, al
  0004c	75 15		 jne	 SHORT $LN107@Partition_
; File D:\Metin2 Server Files\mainline\SRC_2014\Metin2Client\UserInterface\PythonCharacterManager.cpp

; 427  : 		return pkLeft->LessRenderOrder(pkRight);		

  0004e	ff 76 fc	 push	 DWORD PTR [esi-4]
  00051	8b 0e		 mov	 ecx, DWORD PTR [esi]
  00053	e8 00 00 00 00	 call	 ?LessRenderOrder@CInstanceBase@@QAE_NPAV1@@Z ; CInstanceBase::LessRenderOrder
; File C:\Program Files (x86)\Microsoft Visual Studio\2019\Community\VC\Tools\MSVC\14.28.29333\include\algorithm

; 7475 :            && !_Pred(*_Pfirst, *_Prev_iter(_Pfirst))) {

  00058	84 c0		 test	 al, al
  0005a	75 07		 jne	 SHORT $LN107@Partition_

; 7476 :         --_Pfirst;

  0005c	83 c6 fc	 add	 esi, -4			; fffffffcH
  0005f	3b de		 cmp	 ebx, esi
  00061	72 dd		 jb	 SHORT $LL2@Partition_
$LN107@Partition_:
  00063	8b 5d fc	 mov	 ebx, DWORD PTR __Plast$1$[ebp]
$LN82@Partition_:

; 7479 :     while (_Plast < _Last && !_DEBUG_LT_PRED(_Pred, *_Plast, *_Pfirst) && !_Pred(*_Pfirst, *_Plast)) {

  00066	3b df		 cmp	 ebx, edi
  00068	73 2a		 jae	 SHORT $LN5@Partition_
  0006a	66 0f 1f 44 00
	00		 npad	 6
$LL4@Partition_:
; File D:\Metin2 Server Files\mainline\SRC_2014\Metin2Client\UserInterface\PythonCharacterManager.cpp

; 427  : 		return pkLeft->LessRenderOrder(pkRight);		

  00070	ff 36		 push	 DWORD PTR [esi]
  00072	8b 0b		 mov	 ecx, DWORD PTR [ebx]
  00074	e8 00 00 00 00	 call	 ?LessRenderOrder@CInstanceBase@@QAE_NPAV1@@Z ; CInstanceBase::LessRenderOrder
; File C:\Program Files (x86)\Microsoft Visual Studio\2019\Community\VC\Tools\MSVC\14.28.29333\include\algorithm

; 7479 :     while (_Plast < _Last && !_DEBUG_LT_PRED(_Pred, *_Plast, *_Pfirst) && !_Pred(*_Pfirst, *_Plast)) {

  00079	84 c0		 test	 al, al
  0007b	75 14		 jne	 SHORT $LN108@Partition_
; File D:\Metin2 Server Files\mainline\SRC_2014\Metin2Client\UserInterface\PythonCharacterManager.cpp

; 427  : 		return pkLeft->LessRenderOrder(pkRight);		

  0007d	ff 33		 push	 DWORD PTR [ebx]
  0007f	8b 0e		 mov	 ecx, DWORD PTR [esi]
  00081	e8 00 00 00 00	 call	 ?LessRenderOrder@CInstanceBase@@QAE_NPAV1@@Z ; CInstanceBase::LessRenderOrder
; File C:\Program Files (x86)\Microsoft Visual Studio\2019\Community\VC\Tools\MSVC\14.28.29333\include\algorithm

; 7479 :     while (_Plast < _Last && !_DEBUG_LT_PRED(_Pred, *_Plast, *_Pfirst) && !_Pred(*_Pfirst, *_Plast)) {

  00086	84 c0		 test	 al, al
  00088	75 07		 jne	 SHORT $LN108@Partition_

; 7480 :         ++_Plast;

  0008a	83 c3 04	 add	 ebx, 4
  0008d	3b df		 cmp	 ebx, edi
  0008f	72 df		 jb	 SHORT $LL4@Partition_
$LN108@Partition_:
  00091	89 5d fc	 mov	 DWORD PTR __Plast$1$[ebp], ebx
$LN5@Partition_:

; 7481 :     }
; 7482 : 
; 7483 :     _RanIt _Gfirst = _Plast;

  00094	8b fb		 mov	 edi, ebx

; 7484 :     _RanIt _Glast  = _Pfirst;

  00096	8b d6		 mov	 edx, esi
$LN114@Partition_:

; 7487 :         for (; _Gfirst < _Last; ++_Gfirst) {

  00098	89 55 f8	 mov	 DWORD PTR __Glast$1$[ebp], edx
$LN113@Partition_:
  0009b	89 7d f4	 mov	 DWORD PTR __Gfirst$1$[ebp], edi
  0009e	66 90		 npad	 2
$LL6@Partition_:
  000a0	3b 7d 10	 cmp	 edi, DWORD PTR __Last$[ebp]
  000a3	73 3a		 jae	 SHORT $LN86@Partition_
$LL11@Partition_:
; File D:\Metin2 Server Files\mainline\SRC_2014\Metin2Client\UserInterface\PythonCharacterManager.cpp

; 427  : 		return pkLeft->LessRenderOrder(pkRight);		

  000a5	ff 37		 push	 DWORD PTR [edi]
  000a7	8b 0e		 mov	 ecx, DWORD PTR [esi]
  000a9	e8 00 00 00 00	 call	 ?LessRenderOrder@CInstanceBase@@QAE_NPAV1@@Z ; CInstanceBase::LessRenderOrder
; File C:\Program Files (x86)\Microsoft Visual Studio\2019\Community\VC\Tools\MSVC\14.28.29333\include\algorithm

; 7488 :             if (_DEBUG_LT_PRED(_Pred, *_Pfirst, *_Gfirst)) {

  000ae	84 c0		 test	 al, al
  000b0	75 1c		 jne	 SHORT $LN9@Partition_
; File D:\Metin2 Server Files\mainline\SRC_2014\Metin2Client\UserInterface\PythonCharacterManager.cpp

; 427  : 		return pkLeft->LessRenderOrder(pkRight);		

  000b2	ff 36		 push	 DWORD PTR [esi]
  000b4	8b 0f		 mov	 ecx, DWORD PTR [edi]
  000b6	e8 00 00 00 00	 call	 ?LessRenderOrder@CInstanceBase@@QAE_NPAV1@@Z ; CInstanceBase::LessRenderOrder
; File C:\Program Files (x86)\Microsoft Visual Studio\2019\Community\VC\Tools\MSVC\14.28.29333\include\algorithm

; 7490 :             } else if (_Pred(*_Gfirst, *_Pfirst)) {

  000bb	84 c0		 test	 al, al
  000bd	75 17		 jne	 SHORT $LN109@Partition_

; 7491 :                 break;
; 7492 :             } else if (_Plast != _Gfirst) {

  000bf	3b df		 cmp	 ebx, edi
  000c1	74 08		 je	 SHORT $LN19@Partition_
; File C:\Program Files (x86)\Microsoft Visual Studio\2019\Community\VC\Tools\MSVC\14.28.29333\include\utility

; 104  :     _Ty _Tmp = _STD move(_Left);

  000c3	8b 0b		 mov	 ecx, DWORD PTR [ebx]

; 105  :     _Left    = _STD move(_Right);

  000c5	8b 07		 mov	 eax, DWORD PTR [edi]
  000c7	89 03		 mov	 DWORD PTR [ebx], eax

; 106  :     _Right   = _STD move(_Tmp);

  000c9	89 0f		 mov	 DWORD PTR [edi], ecx
$LN19@Partition_:
; File C:\Program Files (x86)\Microsoft Visual Studio\2019\Community\VC\Tools\MSVC\14.28.29333\include\algorithm

; 7487 :         for (; _Gfirst < _Last; ++_Gfirst) {

  000cb	83 c3 04	 add	 ebx, 4
$LN9@Partition_:
  000ce	83 c7 04	 add	 edi, 4
  000d1	3b 7d 10	 cmp	 edi, DWORD PTR __Last$[ebp]
  000d4	72 cf		 jb	 SHORT $LL11@Partition_
$LN109@Partition_:
  000d6	8b 55 f8	 mov	 edx, DWORD PTR __Glast$1$[ebp]
  000d9	89 5d fc	 mov	 DWORD PTR __Plast$1$[ebp], ebx
  000dc	89 7d f4	 mov	 DWORD PTR __Gfirst$1$[ebp], edi
$LN86@Partition_:

; 7500 :         for (; _First < _Glast; --_Glast) {

  000df	8b 45 0c	 mov	 eax, DWORD PTR __First$[ebp]
  000e2	3b d0		 cmp	 edx, eax
  000e4	76 53		 jbe	 SHORT $LN112@Partition_
  000e6	8b 5d f8	 mov	 ebx, DWORD PTR __Glast$1$[ebp]
  000e9	8d 7b fc	 lea	 edi, DWORD PTR [ebx-4]
  000ec	0f 1f 40 00	 npad	 4
$LL14@Partition_:
; File D:\Metin2 Server Files\mainline\SRC_2014\Metin2Client\UserInterface\PythonCharacterManager.cpp

; 427  : 		return pkLeft->LessRenderOrder(pkRight);		

  000f0	ff 36		 push	 DWORD PTR [esi]
  000f2	8b 0f		 mov	 ecx, DWORD PTR [edi]
  000f4	e8 00 00 00 00	 call	 ?LessRenderOrder@CInstanceBase@@QAE_NPAV1@@Z ; CInstanceBase::LessRenderOrder
; File C:\Program Files (x86)\Microsoft Visual Studio\2019\Community\VC\Tools\MSVC\14.28.29333\include\algorithm

; 7501 :             if (_DEBUG_LT_PRED(_Pred, *_Prev_iter(_Glast), *_Pfirst)) {

  000f9	84 c0		 test	 al, al
  000fb	75 1c		 jne	 SHORT $LN12@Partition_
; File D:\Metin2 Server Files\mainline\SRC_2014\Metin2Client\UserInterface\PythonCharacterManager.cpp

; 427  : 		return pkLeft->LessRenderOrder(pkRight);		

  000fd	ff 37		 push	 DWORD PTR [edi]
  000ff	8b 0e		 mov	 ecx, DWORD PTR [esi]
  00101	e8 00 00 00 00	 call	 ?LessRenderOrder@CInstanceBase@@QAE_NPAV1@@Z ; CInstanceBase::LessRenderOrder
; File C:\Program Files (x86)\Microsoft Visual Studio\2019\Community\VC\Tools\MSVC\14.28.29333\include\algorithm

; 7503 :             } else if (_Pred(*_Pfirst, *_Prev_iter(_Glast))) {

  00106	84 c0		 test	 al, al
  00108	75 1e		 jne	 SHORT $LN111@Partition_

; 7504 :                 break;
; 7505 :             } else if (--_Pfirst != _Prev_iter(_Glast)) {

  0010a	83 ee 04	 sub	 esi, 4
  0010d	3b f7		 cmp	 esi, edi
  0010f	74 08		 je	 SHORT $LN12@Partition_
; File C:\Program Files (x86)\Microsoft Visual Studio\2019\Community\VC\Tools\MSVC\14.28.29333\include\utility

; 104  :     _Ty _Tmp = _STD move(_Left);

  00111	8b 0e		 mov	 ecx, DWORD PTR [esi]

; 105  :     _Left    = _STD move(_Right);

  00113	8b 07		 mov	 eax, DWORD PTR [edi]
  00115	89 06		 mov	 DWORD PTR [esi], eax

; 106  :     _Right   = _STD move(_Tmp);

  00117	89 0f		 mov	 DWORD PTR [edi], ecx
$LN12@Partition_:
; File C:\Program Files (x86)\Microsoft Visual Studio\2019\Community\VC\Tools\MSVC\14.28.29333\include\algorithm

; 7500 :         for (; _First < _Glast; --_Glast) {

  00119	8b 45 0c	 mov	 eax, DWORD PTR __First$[ebp]
  0011c	83 eb 04	 sub	 ebx, 4
  0011f	83 ef 04	 sub	 edi, 4
  00122	3b c3		 cmp	 eax, ebx
  00124	72 ca		 jb	 SHORT $LL14@Partition_

; 7503 :             } else if (_Pred(*_Pfirst, *_Prev_iter(_Glast))) {

  00126	eb 03		 jmp	 SHORT $LN110@Partition_
$LN111@Partition_:
  00128	8b 45 0c	 mov	 eax, DWORD PTR __First$[ebp]
$LN110@Partition_:
  0012b	8b 7d f4	 mov	 edi, DWORD PTR __Gfirst$1$[ebp]
  0012e	89 5d f8	 mov	 DWORD PTR __Glast$1$[ebp], ebx
  00131	8b 55 f8	 mov	 edx, DWORD PTR __Glast$1$[ebp]

; 7506 :                 _STD iter_swap(_Pfirst, _Prev_iter(_Glast));
; 7507 :             }
; 7508 :         }
; 7509 : 
; 7510 :         if (_Glast == _First && _Gfirst == _Last) {

  00134	3b d0		 cmp	 edx, eax
  00136	8b 5d fc	 mov	 ebx, DWORD PTR __Plast$1$[ebp]
$LN112@Partition_:
  00139	75 2a		 jne	 SHORT $LN27@Partition_
  0013b	3b 7d 10	 cmp	 edi, DWORD PTR __Last$[ebp]
  0013e	74 73		 je	 SHORT $LN88@Partition_

; 7512 :         }
; 7513 : 
; 7514 :         if (_Glast == _First) { // no room at bottom, rotate pivot upward
; 7515 :             if (_Plast != _Gfirst) {

  00140	3b df		 cmp	 ebx, edi
  00142	74 08		 je	 SHORT $LN63@Partition_
; File C:\Program Files (x86)\Microsoft Visual Studio\2019\Community\VC\Tools\MSVC\14.28.29333\include\utility

; 104  :     _Ty _Tmp = _STD move(_Left);

  00144	8b 0e		 mov	 ecx, DWORD PTR [esi]

; 105  :     _Left    = _STD move(_Right);

  00146	8b 03		 mov	 eax, DWORD PTR [ebx]
  00148	89 06		 mov	 DWORD PTR [esi], eax

; 106  :     _Right   = _STD move(_Tmp);

  0014a	89 0b		 mov	 DWORD PTR [ebx], ecx
$LN63@Partition_:

; 104  :     _Ty _Tmp = _STD move(_Left);

  0014c	8b 0e		 mov	 ecx, DWORD PTR [esi]
; File C:\Program Files (x86)\Microsoft Visual Studio\2019\Community\VC\Tools\MSVC\14.28.29333\include\algorithm

; 7519 :             ++_Plast;

  0014e	83 c3 04	 add	 ebx, 4
; File C:\Program Files (x86)\Microsoft Visual Studio\2019\Community\VC\Tools\MSVC\14.28.29333\include\utility

; 105  :     _Left    = _STD move(_Right);

  00151	8b 07		 mov	 eax, DWORD PTR [edi]
  00153	89 06		 mov	 DWORD PTR [esi], eax
; File C:\Program Files (x86)\Microsoft Visual Studio\2019\Community\VC\Tools\MSVC\14.28.29333\include\algorithm

; 7521 :             ++_Pfirst;

  00155	83 c6 04	 add	 esi, 4
; File C:\Program Files (x86)\Microsoft Visual Studio\2019\Community\VC\Tools\MSVC\14.28.29333\include\utility

; 106  :     _Right   = _STD move(_Tmp);

  00158	89 0f		 mov	 DWORD PTR [edi], ecx
; File C:\Program Files (x86)\Microsoft Visual Studio\2019\Community\VC\Tools\MSVC\14.28.29333\include\algorithm

; 7522 :             ++_Gfirst;

  0015a	83 c7 04	 add	 edi, 4
  0015d	89 5d fc	 mov	 DWORD PTR __Plast$1$[ebp], ebx
  00160	e9 36 ff ff ff	 jmp	 $LN113@Partition_
$LN27@Partition_:

; 7523 :         } else if (_Gfirst == _Last) { // no room at top, rotate pivot downward

  00165	83 c2 fc	 add	 edx, -4			; fffffffcH
  00168	89 55 f8	 mov	 DWORD PTR __Glast$1$[ebp], edx
  0016b	3b 7d 10	 cmp	 edi, DWORD PTR __Last$[ebp]
  0016e	75 33		 jne	 SHORT $LN30@Partition_

; 7524 :             if (--_Glast != --_Pfirst) {

  00170	83 ee 04	 sub	 esi, 4
  00173	3b d6		 cmp	 edx, esi
  00175	74 19		 je	 SHORT $LN98@Partition_
; File C:\Program Files (x86)\Microsoft Visual Studio\2019\Community\VC\Tools\MSVC\14.28.29333\include\utility

; 105  :     _Left    = _STD move(_Right);

  00177	8b 06		 mov	 eax, DWORD PTR [esi]
; File C:\Program Files (x86)\Microsoft Visual Studio\2019\Community\VC\Tools\MSVC\14.28.29333\include\algorithm

; 7528 :             _STD iter_swap(_Pfirst, --_Plast);

  00179	83 eb 04	 sub	 ebx, 4
; File C:\Program Files (x86)\Microsoft Visual Studio\2019\Community\VC\Tools\MSVC\14.28.29333\include\utility

; 104  :     _Ty _Tmp = _STD move(_Left);

  0017c	8b 0a		 mov	 ecx, DWORD PTR [edx]

; 105  :     _Left    = _STD move(_Right);

  0017e	89 02		 mov	 DWORD PTR [edx], eax

; 106  :     _Right   = _STD move(_Tmp);

  00180	89 0e		 mov	 DWORD PTR [esi], ecx

; 105  :     _Left    = _STD move(_Right);

  00182	8b 03		 mov	 eax, DWORD PTR [ebx]
  00184	89 06		 mov	 DWORD PTR [esi], eax
; File C:\Program Files (x86)\Microsoft Visual Studio\2019\Community\VC\Tools\MSVC\14.28.29333\include\algorithm

; 7528 :             _STD iter_swap(_Pfirst, --_Plast);

  00186	89 5d fc	 mov	 DWORD PTR __Plast$1$[ebp], ebx
; File C:\Program Files (x86)\Microsoft Visual Studio\2019\Community\VC\Tools\MSVC\14.28.29333\include\utility

; 106  :     _Right   = _STD move(_Tmp);

  00189	89 0b		 mov	 DWORD PTR [ebx], ecx
; File C:\Program Files (x86)\Microsoft Visual Studio\2019\Community\VC\Tools\MSVC\14.28.29333\include\algorithm

; 7529 :         } else {

  0018b	e9 10 ff ff ff	 jmp	 $LL6@Partition_
$LN98@Partition_:
; File C:\Program Files (x86)\Microsoft Visual Studio\2019\Community\VC\Tools\MSVC\14.28.29333\include\utility

; 106  :     _Right   = _STD move(_Tmp);

  00190	8b 0e		 mov	 ecx, DWORD PTR [esi]
; File C:\Program Files (x86)\Microsoft Visual Studio\2019\Community\VC\Tools\MSVC\14.28.29333\include\algorithm

; 7528 :             _STD iter_swap(_Pfirst, --_Plast);

  00192	83 eb 04	 sub	 ebx, 4
  00195	89 5d fc	 mov	 DWORD PTR __Plast$1$[ebp], ebx
; File C:\Program Files (x86)\Microsoft Visual Studio\2019\Community\VC\Tools\MSVC\14.28.29333\include\utility

; 105  :     _Left    = _STD move(_Right);

  00198	8b 03		 mov	 eax, DWORD PTR [ebx]
  0019a	89 06		 mov	 DWORD PTR [esi], eax

; 106  :     _Right   = _STD move(_Tmp);

  0019c	89 0b		 mov	 DWORD PTR [ebx], ecx
; File C:\Program Files (x86)\Microsoft Visual Studio\2019\Community\VC\Tools\MSVC\14.28.29333\include\algorithm

; 7529 :         } else {

  0019e	e9 fd fe ff ff	 jmp	 $LL6@Partition_
$LN30@Partition_:
; File C:\Program Files (x86)\Microsoft Visual Studio\2019\Community\VC\Tools\MSVC\14.28.29333\include\utility

; 104  :     _Ty _Tmp = _STD move(_Left);

  001a3	8b 0f		 mov	 ecx, DWORD PTR [edi]

; 105  :     _Left    = _STD move(_Right);

  001a5	8b 02		 mov	 eax, DWORD PTR [edx]
  001a7	89 07		 mov	 DWORD PTR [edi], eax
; File C:\Program Files (x86)\Microsoft Visual Studio\2019\Community\VC\Tools\MSVC\14.28.29333\include\algorithm

; 7531 :             ++_Gfirst;

  001a9	83 c7 04	 add	 edi, 4
; File C:\Program Files (x86)\Microsoft Visual Studio\2019\Community\VC\Tools\MSVC\14.28.29333\include\utility

; 106  :     _Right   = _STD move(_Tmp);

  001ac	89 0a		 mov	 DWORD PTR [edx], ecx
; File C:\Program Files (x86)\Microsoft Visual Studio\2019\Community\VC\Tools\MSVC\14.28.29333\include\algorithm

; 7533 :     }

  001ae	e9 e5 fe ff ff	 jmp	 $LN114@Partition_
$LN88@Partition_:
; File C:\Program Files (x86)\Microsoft Visual Studio\2019\Community\VC\Tools\MSVC\14.28.29333\include\utility

; 190  :         : first(_STD forward<_Other1>(_Val1)), second(_STD forward<_Other2>(_Val2)) {}

  001b3	8b 45 08	 mov	 eax, DWORD PTR ___$ReturnUdt$[ebp]
; File C:\Program Files (x86)\Microsoft Visual Studio\2019\Community\VC\Tools\MSVC\14.28.29333\include\algorithm

; 7511 :             return pair<_RanIt, _RanIt>(_Pfirst, _Plast);

  001b6	5f		 pop	 edi
; File C:\Program Files (x86)\Microsoft Visual Studio\2019\Community\VC\Tools\MSVC\14.28.29333\include\utility

; 190  :         : first(_STD forward<_Other1>(_Val1)), second(_STD forward<_Other2>(_Val2)) {}

  001b7	89 30		 mov	 DWORD PTR [eax], esi
; File C:\Program Files (x86)\Microsoft Visual Studio\2019\Community\VC\Tools\MSVC\14.28.29333\include\algorithm

; 7511 :             return pair<_RanIt, _RanIt>(_Pfirst, _Plast);

  001b9	5e		 pop	 esi
; File C:\Program Files (x86)\Microsoft Visual Studio\2019\Community\VC\Tools\MSVC\14.28.29333\include\utility

; 190  :         : first(_STD forward<_Other1>(_Val1)), second(_STD forward<_Other2>(_Val2)) {}

  001ba	89 58 04	 mov	 DWORD PTR [eax+4], ebx
; File C:\Program Files (x86)\Microsoft Visual Studio\2019\Community\VC\Tools\MSVC\14.28.29333\include\algorithm

; 7511 :             return pair<_RanIt, _RanIt>(_Pfirst, _Plast);

  001bd	5b		 pop	 ebx

; 7534 : }

  001be	8b e5		 mov	 esp, ebp
  001c0	5d		 pop	 ebp
  001c1	c3		 ret	 0
??$_Partition_by_median_guess_unchecked@PAPAVCInstanceBase@@ULessCharacterInstancePtrRenderOrder@@@std@@YA?AU?$pair@PAPAVCInstanceBase@@PAPAV1@@0@PAPAVCInstanceBase@@0ULessCharacterInstancePtrRenderOrder@@@Z ENDP ; std::_Partition_by_median_guess_unchecked<CInstanceBase * *,LessCharacterInstancePtrRenderOrder>
_TEXT	ENDS
; Function compile flags: /Ogtp
; File C:\Program Files (x86)\Microsoft Visual Studio\2019\Community\VC\Tools\MSVC\14.28.29333\include\xmemory
;	COMDAT ??$_Uninitialized_move@PAPAVCInstanceBase@@V?$allocator@PAVCInstanceBase@@@std@@@std@@YAPAPAVCInstanceBase@@QAPAV1@0PAPAV1@AAV?$allocator@PAVCInstanceBase@@@0@@Z
_TEXT	SEGMENT
__First$ = 8						; size = 4
__Last$ = 12						; size = 4
__Dest$ = 16						; size = 4
__Al$ = 20						; size = 4
??$_Uninitialized_move@PAPAVCInstanceBase@@V?$allocator@PAVCInstanceBase@@@std@@@std@@YAPAPAVCInstanceBase@@QAPAV1@0PAPAV1@AAV?$allocator@PAVCInstanceBase@@@0@@Z PROC ; std::_Uninitialized_move<CInstanceBase * *,std::allocator<CInstanceBase *> >, COMDAT

; 1685 :     const _InIt _First, const _InIt _Last, _Alloc_ptr_t<_Alloc> _Dest, _Alloc& _Al) {

  00000	55		 push	 ebp
  00001	8b ec		 mov	 ebp, esp
  00003	53		 push	 ebx

; 1686 :     // move [_First, _Last) to raw _Dest, using _Al
; 1687 :     // note: only called internally from elsewhere in the STL
; 1688 :     using _Ptrval     = typename _Alloc::value_type*;
; 1689 :     auto _UFirst      = _Get_unwrapped(_First);
; 1690 :     const auto _ULast = _Get_unwrapped(_Last);
; 1691 :     if constexpr (conjunction_v<bool_constant<_Ptr_move_cat<decltype(_UFirst), _Ptrval>::_Really_trivial>,
; 1692 :                       _Uses_default_construct<_Alloc, _Ptrval, decltype(_STD move(*_UFirst))>>) {
; 1693 :         _Copy_memmove(_UFirst, _ULast, _Unfancy(_Dest));

  00004	8b 5d 10	 mov	 ebx, DWORD PTR __Dest$[ebp]
  00007	57		 push	 edi
  00008	8b 7d 0c	 mov	 edi, DWORD PTR __Last$[ebp]
  0000b	53		 push	 ebx
  0000c	57		 push	 edi
  0000d	ff 75 08	 push	 DWORD PTR __First$[ebp]
  00010	e8 00 00 00 00	 call	 ??$_Copy_memmove@PAPAVCInstanceBase@@PAPAV1@@std@@YAPAPAVCInstanceBase@@PAPAV1@00@Z ; std::_Copy_memmove<CInstanceBase * *,CInstanceBase * *>

; 1694 :         return _Dest + (_ULast - _UFirst);

  00015	2b 7d 08	 sub	 edi, DWORD PTR __First$[ebp]
  00018	83 c4 0c	 add	 esp, 12			; 0000000cH
  0001b	c1 ff 02	 sar	 edi, 2
  0001e	8d 04 bb	 lea	 eax, DWORD PTR [ebx+edi*4]
  00021	5f		 pop	 edi
  00022	5b		 pop	 ebx

; 1695 :     } else {
; 1696 :         _Uninitialized_backout_al<_Alloc> _Backout{_Dest, _Al};
; 1697 :         for (; _UFirst != _ULast; ++_UFirst) {
; 1698 :             _Backout._Emplace_back(_STD move(*_UFirst));
; 1699 :         }
; 1700 : 
; 1701 :         return _Backout._Release();
; 1702 :     }
; 1703 : }

  00023	5d		 pop	 ebp
  00024	c3		 ret	 0
??$_Uninitialized_move@PAPAVCInstanceBase@@V?$allocator@PAVCInstanceBase@@@std@@@std@@YAPAPAVCInstanceBase@@QAPAV1@0PAPAV1@AAV?$allocator@PAVCInstanceBase@@@0@@Z ENDP ; std::_Uninitialized_move<CInstanceBase * *,std::allocator<CInstanceBase *> >
_TEXT	ENDS
; Function compile flags: /Ogtp
; File C:\Program Files (x86)\Microsoft Visual Studio\2019\Community\VC\Tools\MSVC\14.28.29333\include\xmemory
;	COMDAT ??$_Construct_in_place@PAU?$_List_node@PAVCInstanceBase@@PAX@std@@ABQAU12@@std@@YAXAAPAU?$_List_node@PAVCInstanceBase@@PAX@0@ABQAU10@@Z
_TEXT	SEGMENT
__Obj$ = 8						; size = 4
_<_Args_0>$ = 12					; size = 4
??$_Construct_in_place@PAU?$_List_node@PAVCInstanceBase@@PAX@std@@ABQAU12@@std@@YAXAAPAU?$_List_node@PAVCInstanceBase@@PAX@0@ABQAU10@@Z PROC ; std::_Construct_in_place<std::_List_node<CInstanceBase *,void *> *,std::_List_node<CInstanceBase *,void *> * const &>, COMDAT

; 228  : void _Construct_in_place(_Ty& _Obj, _Types&&... _Args) noexcept(is_nothrow_constructible_v<_Ty, _Types...>) {

  00000	55		 push	 ebp
  00001	8b ec		 mov	 ebp, esp

; 229  :     ::new (const_cast<void*>(static_cast<const volatile void*>(_STD addressof(_Obj))))

  00003	8b 45 0c	 mov	 eax, DWORD PTR _<_Args_0>$[ebp]
  00006	8b 08		 mov	 ecx, DWORD PTR [eax]
  00008	8b 45 08	 mov	 eax, DWORD PTR __Obj$[ebp]
  0000b	89 08		 mov	 DWORD PTR [eax], ecx

; 230  :         _Ty(_STD forward<_Types>(_Args)...);
; 231  : }

  0000d	5d		 pop	 ebp
  0000e	c3		 ret	 0
??$_Construct_in_place@PAU?$_List_node@PAVCInstanceBase@@PAX@std@@ABQAU12@@std@@YAXAAPAU?$_List_node@PAVCInstanceBase@@PAX@0@ABQAU10@@Z ENDP ; std::_Construct_in_place<std::_List_node<CInstanceBase *,void *> *,std::_List_node<CInstanceBase *,void *> * const &>
_TEXT	ENDS
; Function compile flags: /Ogtp
; File C:\Program Files (x86)\Microsoft Visual Studio\2019\Community\VC\Tools\MSVC\14.28.29333\include\xmemory
;	COMDAT ??$_Construct_in_place@PAU?$_Tree_node@U?$pair@$$CBKPAVCInstanceBase@@@std@@PAX@std@@ABQAU12@@std@@YAXAAPAU?$_Tree_node@U?$pair@$$CBKPAVCInstanceBase@@@std@@PAX@0@ABQAU10@@Z
_TEXT	SEGMENT
__Obj$ = 8						; size = 4
_<_Args_0>$ = 12					; size = 4
??$_Construct_in_place@PAU?$_Tree_node@U?$pair@$$CBKPAVCInstanceBase@@@std@@PAX@std@@ABQAU12@@std@@YAXAAPAU?$_Tree_node@U?$pair@$$CBKPAVCInstanceBase@@@std@@PAX@0@ABQAU10@@Z PROC ; std::_Construct_in_place<std::_Tree_node<std::pair<unsigned long const ,CInstanceBase *>,void *> *,std::_Tree_node<std::pair<unsigned long const ,CInstanceBase *>,void *> * const &>, COMDAT

; 228  : void _Construct_in_place(_Ty& _Obj, _Types&&... _Args) noexcept(is_nothrow_constructible_v<_Ty, _Types...>) {

  00000	55		 push	 ebp
  00001	8b ec		 mov	 ebp, esp

; 229  :     ::new (const_cast<void*>(static_cast<const volatile void*>(_STD addressof(_Obj))))

  00003	8b 45 0c	 mov	 eax, DWORD PTR _<_Args_0>$[ebp]
  00006	8b 08		 mov	 ecx, DWORD PTR [eax]
  00008	8b 45 08	 mov	 eax, DWORD PTR __Obj$[ebp]
  0000b	89 08		 mov	 DWORD PTR [eax], ecx

; 230  :         _Ty(_STD forward<_Types>(_Args)...);
; 231  : }

  0000d	5d		 pop	 ebp
  0000e	c3		 ret	 0
??$_Construct_in_place@PAU?$_Tree_node@U?$pair@$$CBKPAVCInstanceBase@@@std@@PAX@std@@ABQAU12@@std@@YAXAAPAU?$_Tree_node@U?$pair@$$CBKPAVCInstanceBase@@@std@@PAX@0@ABQAU10@@Z ENDP ; std::_Construct_in_place<std::_Tree_node<std::pair<unsigned long const ,CInstanceBase *>,void *> *,std::_Tree_node<std::pair<unsigned long const ,CInstanceBase *>,void *> * const &>
_TEXT	ENDS
; Function compile flags: /Ogtp
; File C:\Program Files (x86)\Microsoft Visual Studio\2019\Community\VC\Tools\MSVC\14.28.29333\include\xmemory
;	COMDAT ??$_Destroy_in_place@PAU?$_List_node@PAVCInstanceBase@@PAX@std@@@std@@YAXAAPAU?$_List_node@PAVCInstanceBase@@PAX@0@@Z
_TEXT	SEGMENT
__Obj$ = 8						; size = 4
??$_Destroy_in_place@PAU?$_List_node@PAVCInstanceBase@@PAX@std@@@std@@YAXAAPAU?$_List_node@PAVCInstanceBase@@PAX@0@@Z PROC ; std::_Destroy_in_place<std::_List_node<CInstanceBase *,void *> *>, COMDAT

; 271  : #if _HAS_IF_CONSTEXPR
; 272  :     if constexpr (is_array_v<_Ty>) {
; 273  :         _Destroy_range(_Obj, _Obj + extent_v<_Ty>);
; 274  :     } else
; 275  : #endif // _HAS_IF_CONSTEXPR
; 276  :     {
; 277  :         _Obj.~_Ty();
; 278  :     }
; 279  : }

  00000	c2 00 00	 ret	 0
??$_Destroy_in_place@PAU?$_List_node@PAVCInstanceBase@@PAX@std@@@std@@YAXAAPAU?$_List_node@PAVCInstanceBase@@PAX@0@@Z ENDP ; std::_Destroy_in_place<std::_List_node<CInstanceBase *,void *> *>
_TEXT	ENDS
; Function compile flags: /Ogtp
; File C:\Program Files (x86)\Microsoft Visual Studio\2019\Community\VC\Tools\MSVC\14.28.29333\include\xtree
; File C:\Program Files (x86)\Microsoft Visual Studio\2019\Community\VC\Tools\MSVC\14.28.29333\include\xstddef
; File C:\Program Files (x86)\Microsoft Visual Studio\2019\Community\VC\Tools\MSVC\14.28.29333\include\xtree
; File C:\Program Files (x86)\Microsoft Visual Studio\2019\Community\VC\Tools\MSVC\14.28.29333\include\xstddef
; File C:\Program Files (x86)\Microsoft Visual Studio\2019\Community\VC\Tools\MSVC\14.28.29333\include\xtree
;	COMDAT ??$_Find_lower_bound@K@?$_Tree@V?$_Tmap_traits@KPAVCInstanceBase@@U?$less@K@std@@V?$allocator@U?$pair@$$CBKPAVCInstanceBase@@@std@@@3@$0A@@std@@@std@@IBE?AU?$_Tree_find_result@PAU?$_Tree_node@U?$pair@$$CBKPAVCInstanceBase@@@std@@PAX@std@@@1@ABK@Z
_TEXT	SEGMENT
___$ReturnUdt$ = 8					; size = 4
__Keyval$ = 12						; size = 4
??$_Find_lower_bound@K@?$_Tree@V?$_Tmap_traits@KPAVCInstanceBase@@U?$less@K@std@@V?$allocator@U?$pair@$$CBKPAVCInstanceBase@@@std@@@3@$0A@@std@@@std@@IBE?AU?$_Tree_find_result@PAU?$_Tree_node@U?$pair@$$CBKPAVCInstanceBase@@@std@@PAX@std@@@1@ABK@Z PROC ; std::_Tree<std::_Tmap_traits<unsigned long,CInstanceBase *,std::less<unsigned long>,std::allocator<std::pair<unsigned long const ,CInstanceBase *> >,0> >::_Find_lower_bound<unsigned long>, COMDAT
; _this$ = ecx

; 1699 :     _Tree_find_result<_Nodeptr> _Find_lower_bound(const _Keyty& _Keyval) const {

  00000	55		 push	 ebp
  00001	8b ec		 mov	 ebp, esp

; 1700 :         const auto _Scary = _Get_scary();
; 1701 :         _Tree_find_result<_Nodeptr> _Result{{_Scary->_Myhead->_Parent, _Tree_child::_Right}, _Scary->_Myhead};

  00003	8b 09		 mov	 ecx, DWORD PTR [ecx]
  00005	8b 55 08	 mov	 edx, DWORD PTR ___$ReturnUdt$[ebp]
  00008	8b 41 04	 mov	 eax, DWORD PTR [ecx+4]
  0000b	89 02		 mov	 DWORD PTR [edx], eax
  0000d	c7 42 04 00 00
	00 00		 mov	 DWORD PTR [edx+4], 0
  00014	89 4a 08	 mov	 DWORD PTR [edx+8], ecx

; 1702 :         _Nodeptr _Trynode = _Result._Location._Parent;
; 1703 :         while (!_Trynode->_Isnil) {

  00017	80 78 0d 00	 cmp	 BYTE PTR [eax+13], 0
  0001b	75 28		 jne	 SHORT $LN12@Find_lower
; File C:\Program Files (x86)\Microsoft Visual Studio\2019\Community\VC\Tools\MSVC\14.28.29333\include\xstddef

; 127  :         return _Left < _Right;

  0001d	8b 4d 0c	 mov	 ecx, DWORD PTR __Keyval$[ebp]
  00020	56		 push	 esi
  00021	8b 31		 mov	 esi, DWORD PTR [ecx]
$LL2@Find_lower:
; File C:\Program Files (x86)\Microsoft Visual Studio\2019\Community\VC\Tools\MSVC\14.28.29333\include\xtree

; 1704 :             _Result._Location._Parent = _Trynode;

  00023	89 02		 mov	 DWORD PTR [edx], eax
; File C:\Program Files (x86)\Microsoft Visual Studio\2019\Community\VC\Tools\MSVC\14.28.29333\include\xstddef

; 127  :         return _Left < _Right;

  00025	39 70 10	 cmp	 DWORD PTR [eax+16], esi
; File C:\Program Files (x86)\Microsoft Visual Studio\2019\Community\VC\Tools\MSVC\14.28.29333\include\xtree

; 1705 :             if (_DEBUG_LT_PRED(_Getcomp(), _Traits::_Kfn(_Trynode->_Myval), _Keyval)) {

  00028	73 07		 jae	 SHORT $LN4@Find_lower

; 1706 :                 _Result._Location._Child = _Tree_child::_Right;
; 1707 :                 _Trynode                 = _Trynode->_Right;

  0002a	8b 40 08	 mov	 eax, DWORD PTR [eax+8]
  0002d	33 c9		 xor	 ecx, ecx

; 1708 :             } else {

  0002f	eb 0a		 jmp	 SHORT $LN5@Find_lower
$LN4@Find_lower:

; 1709 :                 _Result._Location._Child = _Tree_child::_Left;
; 1710 :                 _Result._Bound           = _Trynode;

  00031	89 42 08	 mov	 DWORD PTR [edx+8], eax

; 1711 :                 _Trynode                 = _Trynode->_Left;

  00034	b9 01 00 00 00	 mov	 ecx, 1
  00039	8b 00		 mov	 eax, DWORD PTR [eax]
$LN5@Find_lower:

; 1702 :         _Nodeptr _Trynode = _Result._Location._Parent;
; 1703 :         while (!_Trynode->_Isnil) {

  0003b	89 4a 04	 mov	 DWORD PTR [edx+4], ecx
  0003e	80 78 0d 00	 cmp	 BYTE PTR [eax+13], 0
  00042	74 df		 je	 SHORT $LL2@Find_lower

; 1712 :             }
; 1713 :         }
; 1714 : 
; 1715 :         return _Result;

  00044	5e		 pop	 esi
$LN12@Find_lower:

; 1716 :     }

  00045	8b c2		 mov	 eax, edx
  00047	5d		 pop	 ebp
  00048	c2 08 00	 ret	 8
??$_Find_lower_bound@K@?$_Tree@V?$_Tmap_traits@KPAVCInstanceBase@@U?$less@K@std@@V?$allocator@U?$pair@$$CBKPAVCInstanceBase@@@std@@@3@$0A@@std@@@std@@IBE?AU?$_Tree_find_result@PAU?$_Tree_node@U?$pair@$$CBKPAVCInstanceBase@@@std@@PAX@std@@@1@ABK@Z ENDP ; std::_Tree<std::_Tmap_traits<unsigned long,CInstanceBase *,std::less<unsigned long>,std::allocator<std::pair<unsigned long const ,CInstanceBase *> >,0> >::_Find_lower_bound<unsigned long>
_TEXT	ENDS
; Function compile flags: /Ogtp
; File C:\Program Files (x86)\Microsoft Visual Studio\2019\Community\VC\Tools\MSVC\14.28.29333\include\xmemory
;	COMDAT ??1?$_Alloc_construct_ptr@V?$allocator@U?$_List_node@PAVCInstanceBase@@PAX@std@@@std@@@std@@QAE@XZ
_TEXT	SEGMENT
??1?$_Alloc_construct_ptr@V?$allocator@U?$_List_node@PAVCInstanceBase@@PAX@std@@@std@@@std@@QAE@XZ PROC ; std::_Alloc_construct_ptr<std::allocator<std::_List_node<CInstanceBase *,void *> > >::~_Alloc_construct_ptr<std::allocator<std::_List_node<CInstanceBase *,void *> > >, COMDAT
; _this$ = ecx

; 1057 :         if (_Ptr) {

  00000	8b 41 04	 mov	 eax, DWORD PTR [ecx+4]
  00003	85 c0		 test	 eax, eax
  00005	74 0b		 je	 SHORT $LN2@Alloc_cons

; 810  :         _Deallocate<_New_alignof<_Ty>>(_Ptr, sizeof(_Ty) * _Count);

  00007	6a 0c		 push	 12			; 0000000cH
  00009	50		 push	 eax
  0000a	e8 00 00 00 00	 call	 ??$_Deallocate@$07$0A@@std@@YAXPAXI@Z ; std::_Deallocate<8,0>
  0000f	83 c4 08	 add	 esp, 8
$LN2@Alloc_cons:

; 1058 :             _Al.deallocate(_Ptr, 1);
; 1059 :         }
; 1060 :     }

  00012	c3		 ret	 0
??1?$_Alloc_construct_ptr@V?$allocator@U?$_List_node@PAVCInstanceBase@@PAX@std@@@std@@@std@@QAE@XZ ENDP ; std::_Alloc_construct_ptr<std::allocator<std::_List_node<CInstanceBase *,void *> > >::~_Alloc_construct_ptr<std::allocator<std::_List_node<CInstanceBase *,void *> > >
_TEXT	ENDS
; Function compile flags: /Ogtp
; File C:\Program Files (x86)\Microsoft Visual Studio\2019\Community\VC\Tools\MSVC\14.28.29333\include\algorithm
; File C:\Program Files (x86)\Microsoft Visual Studio\2019\Community\VC\Tools\MSVC\14.28.29333\include\xutility
; File C:\Program Files (x86)\Microsoft Visual Studio\2019\Community\VC\Tools\MSVC\14.28.29333\include\algorithm
; File C:\Program Files (x86)\Microsoft Visual Studio\2019\Community\VC\Tools\MSVC\14.28.29333\include\xutility
; File D:\Metin2 Server Files\mainline\SRC_2014\Metin2Client\UserInterface\PythonCharacterManager.cpp
; File C:\Program Files (x86)\Microsoft Visual Studio\2019\Community\VC\Tools\MSVC\14.28.29333\include\algorithm
; File C:\Program Files (x86)\Microsoft Visual Studio\2019\Community\VC\Tools\MSVC\14.28.29333\include\xutility
; File C:\Program Files (x86)\Microsoft Visual Studio\2019\Community\VC\Tools\MSVC\14.28.29333\include\algorithm
; File D:\Metin2 Server Files\mainline\SRC_2014\Metin2Client\UserInterface\PythonCharacterManager.cpp
; File C:\Program Files (x86)\Microsoft Visual Studio\2019\Community\VC\Tools\MSVC\14.28.29333\include\xutility
; File D:\Metin2 Server Files\mainline\SRC_2014\Metin2Client\UserInterface\PythonCharacterManager.cpp
; File C:\Program Files (x86)\Microsoft Visual Studio\2019\Community\VC\Tools\MSVC\14.28.29333\include\algorithm
; File C:\Program Files (x86)\Microsoft Visual Studio\2019\Community\VC\Tools\MSVC\14.28.29333\include\xutility
; File C:\Program Files (x86)\Microsoft Visual Studio\2019\Community\VC\Tools\MSVC\14.28.29333\include\algorithm
;	COMDAT ??$_Sort_unchecked@PAPAVCInstanceBase@@U?$_Ref_fn@UCInstanceBase_SLessCameraDistance@@@std@@@std@@YAXPAPAVCInstanceBase@@0HU?$_Ref_fn@UCInstanceBase_SLessCameraDistance@@@0@@Z
_TEXT	SEGMENT
__Mid$1 = -28						; size = 8
tv194 = -24						; size = 4
tv493 = -20						; size = 4
tv172 = -20						; size = 4
tv502 = -16						; size = 4
_pkInstRight$1$ = -16					; size = 4
_pkInstRight$1$ = -16					; size = 4
__Val$2 = -16						; size = 4
__Hole$1$ = -12						; size = 4
__Mid$1$ = -8						; size = 4
__Val$1$ = -4						; size = 4
__Bottom$1$ = 8						; size = 4
__First$ = 8						; size = 4
__Val$3 = 12						; size = 4
__Last$ = 12						; size = 4
__Ideal$ = 16						; size = 4
__Pred$ = 20						; size = 4
??$_Sort_unchecked@PAPAVCInstanceBase@@U?$_Ref_fn@UCInstanceBase_SLessCameraDistance@@@std@@@std@@YAXPAPAVCInstanceBase@@0HU?$_Ref_fn@UCInstanceBase_SLessCameraDistance@@@0@@Z PROC ; std::_Sort_unchecked<CInstanceBase * *,std::_Ref_fn<CInstanceBase_SLessCameraDistance> >, COMDAT

; 7537 : _CONSTEXPR20 void _Sort_unchecked(_RanIt _First, _RanIt _Last, _Iter_diff_t<_RanIt> _Ideal, _Pr _Pred) {

  00000	55		 push	 ebp
  00001	8b ec		 mov	 ebp, esp
  00003	83 ec 1c	 sub	 esp, 28			; 0000001cH
  00006	53		 push	 ebx

; 7538 :     // order [_First, _Last)
; 7539 :     for (;;) {
; 7540 :         if (_Last - _First <= _ISORT_MAX) { // small

  00007	8b 5d 08	 mov	 ebx, DWORD PTR __First$[ebp]
  0000a	56		 push	 esi
  0000b	57		 push	 edi
  0000c	8b 7d 0c	 mov	 edi, DWORD PTR __Last$[ebp]
  0000f	8b c7		 mov	 eax, edi
  00011	2b c3		 sub	 eax, ebx
  00013	83 e0 fc	 and	 eax, -4			; fffffffcH
  00016	3d 80 00 00 00	 cmp	 eax, 128		; 00000080H
  0001b	7e 6f		 jle	 SHORT $LN58@Sort_unche
  0001d	8b 75 10	 mov	 esi, DWORD PTR __Ideal$[ebp]
$LL2@Sort_unche:

; 7542 :             return;
; 7543 :         }
; 7544 : 
; 7545 :         if (_Ideal <= 0) { // heap sort if too many divisions

  00020	85 f6		 test	 esi, esi
  00022	0f 8e 20 01 00
	00		 jle	 $LN59@Sort_unche

; 7546 :             _Make_heap_unchecked(_First, _Last, _Pred);
; 7547 :             _Sort_heap_unchecked(_First, _Last, _Pred);
; 7548 :             return;
; 7549 :         }
; 7550 : 
; 7551 :         // divide and conquer by quicksort
; 7552 :         auto _Mid = _Partition_by_median_guess_unchecked(_First, _Last, _Pred);

  00028	ff 75 14	 push	 DWORD PTR __Pred$[ebp]
  0002b	8d 45 e4	 lea	 eax, DWORD PTR __Mid$1[ebp]
  0002e	57		 push	 edi
  0002f	53		 push	 ebx
  00030	50		 push	 eax
  00031	e8 00 00 00 00	 call	 ??$_Partition_by_median_guess_unchecked@PAPAVCInstanceBase@@U?$_Ref_fn@UCInstanceBase_SLessCameraDistance@@@std@@@std@@YA?AU?$pair@PAPAVCInstanceBase@@PAPAV1@@0@PAPAVCInstanceBase@@0U?$_Ref_fn@UCInstanceBase_SLessCameraDistance@@@0@@Z ; std::_Partition_by_median_guess_unchecked<CInstanceBase * *,std::_Ref_fn<CInstanceBase_SLessCameraDistance> >

; 7553 : 
; 7554 :         _Ideal = (_Ideal >> 1) + (_Ideal >> 2); // allow 1.5 log2(N) divisions
; 7555 : 
; 7556 :         if (_Mid.first - _First < _Last - _Mid.second) { // loop on second half

  00036	8b 55 e8	 mov	 edx, DWORD PTR __Mid$1[ebp+4]
  00039	8b c6		 mov	 eax, esi
  0003b	c1 f8 02	 sar	 eax, 2
  0003e	83 c4 10	 add	 esp, 16			; 00000010H
  00041	d1 fe		 sar	 esi, 1
  00043	8b cf		 mov	 ecx, edi
  00045	03 f0		 add	 esi, eax
  00047	2b ca		 sub	 ecx, edx
  00049	8b 45 e4	 mov	 eax, DWORD PTR __Mid$1[ebp]
  0004c	83 e1 fc	 and	 ecx, -4			; fffffffcH
  0004f	ff 75 14	 push	 DWORD PTR __Pred$[ebp]
  00052	2b c3		 sub	 eax, ebx
  00054	83 e0 fc	 and	 eax, -4			; fffffffcH
  00057	56		 push	 esi
  00058	3b c1		 cmp	 eax, ecx
  0005a	7d 12		 jge	 SHORT $LN7@Sort_unche

; 7557 :             _Sort_unchecked(_First, _Mid.first, _Ideal, _Pred);

  0005c	8b 45 e4	 mov	 eax, DWORD PTR __Mid$1[ebp]
  0005f	50		 push	 eax
  00060	53		 push	 ebx
  00061	e8 00 00 00 00	 call	 ??$_Sort_unchecked@PAPAVCInstanceBase@@U?$_Ref_fn@UCInstanceBase_SLessCameraDistance@@@std@@@std@@YAXPAPAVCInstanceBase@@0HU?$_Ref_fn@UCInstanceBase_SLessCameraDistance@@@0@@Z ; std::_Sort_unchecked<CInstanceBase * *,std::_Ref_fn<CInstanceBase_SLessCameraDistance> >

; 7558 :             _First = _Mid.second;

  00066	8b 5d e8	 mov	 ebx, DWORD PTR __Mid$1[ebp+4]
  00069	89 5d 08	 mov	 DWORD PTR __First$[ebp], ebx

; 7559 :         } else { // loop on first half

  0006c	eb 0d		 jmp	 SHORT $LN79@Sort_unche
$LN7@Sort_unche:

; 7560 :             _Sort_unchecked(_Mid.second, _Last, _Ideal, _Pred);

  0006e	57		 push	 edi
  0006f	52		 push	 edx
  00070	e8 00 00 00 00	 call	 ??$_Sort_unchecked@PAPAVCInstanceBase@@U?$_Ref_fn@UCInstanceBase_SLessCameraDistance@@@std@@@std@@YAXPAPAVCInstanceBase@@0HU?$_Ref_fn@UCInstanceBase_SLessCameraDistance@@@0@@Z ; std::_Sort_unchecked<CInstanceBase * *,std::_Ref_fn<CInstanceBase_SLessCameraDistance> >

; 7561 :             _Last = _Mid.first;

  00075	8b 7d e4	 mov	 edi, DWORD PTR __Mid$1[ebp]
  00078	89 7d 0c	 mov	 DWORD PTR __Last$[ebp], edi
$LN79@Sort_unche:

; 7538 :     // order [_First, _Last)
; 7539 :     for (;;) {
; 7540 :         if (_Last - _First <= _ISORT_MAX) { // small

  0007b	8b c7		 mov	 eax, edi
  0007d	83 c4 10	 add	 esp, 16			; 00000010H
  00080	2b c3		 sub	 eax, ebx
  00082	83 e0 fc	 and	 eax, -4			; fffffffcH
  00085	3d 80 00 00 00	 cmp	 eax, 128		; 00000080H
  0008a	7f 94		 jg	 SHORT $LL2@Sort_unche
$LN58@Sort_unche:

; 7541 :             _Insertion_sort_unchecked(_First, _Last, _Pred);

  0008c	8b 75 14	 mov	 esi, DWORD PTR __Pred$[ebp]

; 7412 :     if (_First != _Last) {

  0008f	3b df		 cmp	 ebx, edi
  00091	0f 84 62 01 00
	00		 je	 $LN44@Sort_unche

; 7413 :         for (_BidIt _Mid = _First; ++_Mid != _Last;) { // order next element

  00097	8d 43 04	 lea	 eax, DWORD PTR [ebx+4]
  0009a	89 45 f8	 mov	 DWORD PTR __Mid$1$[ebp], eax
  0009d	3b c7		 cmp	 eax, edi
  0009f	0f 84 54 01 00
	00		 je	 $LN44@Sort_unche
$LL11@Sort_unche:

; 7415 :             _Iter_value_t<_BidIt> _Val = _STD move(*_Mid);

  000a5	8b 08		 mov	 ecx, DWORD PTR [eax]
  000a7	89 45 f4	 mov	 DWORD PTR __Hole$1$[ebp], eax
; File C:\Program Files (x86)\Microsoft Visual Studio\2019\Community\VC\Tools\MSVC\14.28.29333\include\xutility

; 203  :             return _Fn(_STD forward<_Args>(_Vals)...);

  000aa	8b 03		 mov	 eax, DWORD PTR [ebx]
; File C:\Program Files (x86)\Microsoft Visual Studio\2019\Community\VC\Tools\MSVC\14.28.29333\include\algorithm

; 7415 :             _Iter_value_t<_BidIt> _Val = _STD move(*_Mid);

  000ac	89 4d fc	 mov	 DWORD PTR __Val$1$[ebp], ecx
; File C:\Program Files (x86)\Microsoft Visual Studio\2019\Community\VC\Tools\MSVC\14.28.29333\include\xutility

; 203  :             return _Fn(_STD forward<_Args>(_Vals)...);

  000af	89 45 f0	 mov	 DWORD PTR _pkInstRight$1$[ebp], eax
; File D:\Metin2 Server Files\mainline\SRC_2014\Metin2Client\UserInterface\PythonCharacterManager.cpp

; 714  : 		int nLeftDeadPoint=pkInstLeft->IsDead();

  000b2	e8 00 00 00 00	 call	 ?IsDead@CInstanceBase@@QAEHXZ ; CInstanceBase::IsDead

; 715  : 		int nRightDeadPoint=pkInstRight->IsDead();

  000b7	8b 4d f0	 mov	 ecx, DWORD PTR _pkInstRight$1$[ebp]
  000ba	8b f8		 mov	 edi, eax
  000bc	e8 00 00 00 00	 call	 ?IsDead@CInstanceBase@@QAEHXZ ; CInstanceBase::IsDead

; 716  : 
; 717  : 		if (nLeftDeadPoint<nRightDeadPoint)

  000c1	3b f8		 cmp	 edi, eax
  000c3	8b 7d fc	 mov	 edi, DWORD PTR __Val$1$[ebp]
  000c6	0f 8c 08 01 00
	00		 jl	 $LN74@Sort_unche

; 718  : 			return true;
; 719  : 
; 720  : 		if (pkInstLeft->CalculateDistanceSq3d(m_kPPosEye)<pkInstRight->CalculateDistanceSq3d(m_kPPosEye))

  000cc	56		 push	 esi
  000cd	8b cf		 mov	 ecx, edi
  000cf	e8 00 00 00 00	 call	 ?CalculateDistanceSq3d@CInstanceBase@@QAEMABUD3DXVECTOR3@@@Z ; CInstanceBase::CalculateDistanceSq3d
  000d4	8b 4d f0	 mov	 ecx, DWORD PTR _pkInstRight$1$[ebp]
  000d7	d9 5d ec	 fstp	 DWORD PTR tv172[ebp]
  000da	56		 push	 esi
  000db	e8 00 00 00 00	 call	 ?CalculateDistanceSq3d@CInstanceBase@@QAEMABUD3DXVECTOR3@@@Z ; CInstanceBase::CalculateDistanceSq3d
  000e0	d9 5d f0	 fstp	 DWORD PTR tv502[ebp]
  000e3	f3 0f 10 45 f0	 movss	 xmm0, DWORD PTR tv502[ebp]
  000e8	0f 2f 45 ec	 comiss	 xmm0, DWORD PTR tv172[ebp]
  000ec	0f 87 e2 00 00
	00		 ja	 $LN74@Sort_unche
; File C:\Program Files (x86)\Microsoft Visual Studio\2019\Community\VC\Tools\MSVC\14.28.29333\include\algorithm

; 7421 :                 for (_BidIt _Prev = _Hole; _DEBUG_LT_PRED(_Pred, _Val, *--_Prev); _Hole = _Prev) {

  000f2	8b 5d f8	 mov	 ebx, DWORD PTR __Mid$1$[ebp]
$LL16@Sort_unche:
; File C:\Program Files (x86)\Microsoft Visual Studio\2019\Community\VC\Tools\MSVC\14.28.29333\include\xutility

; 203  :             return _Fn(_STD forward<_Args>(_Vals)...);

  000f5	8b 43 fc	 mov	 eax, DWORD PTR [ebx-4]
; File C:\Program Files (x86)\Microsoft Visual Studio\2019\Community\VC\Tools\MSVC\14.28.29333\include\algorithm

; 7421 :                 for (_BidIt _Prev = _Hole; _DEBUG_LT_PRED(_Pred, _Val, *--_Prev); _Hole = _Prev) {

  000f8	83 eb 04	 sub	 ebx, 4
; File D:\Metin2 Server Files\mainline\SRC_2014\Metin2Client\UserInterface\PythonCharacterManager.cpp

; 714  : 		int nLeftDeadPoint=pkInstLeft->IsDead();

  000fb	8b cf		 mov	 ecx, edi
; File C:\Program Files (x86)\Microsoft Visual Studio\2019\Community\VC\Tools\MSVC\14.28.29333\include\xutility

; 203  :             return _Fn(_STD forward<_Args>(_Vals)...);

  000fd	89 45 f0	 mov	 DWORD PTR _pkInstRight$1$[ebp], eax
; File D:\Metin2 Server Files\mainline\SRC_2014\Metin2Client\UserInterface\PythonCharacterManager.cpp

; 714  : 		int nLeftDeadPoint=pkInstLeft->IsDead();

  00100	e8 00 00 00 00	 call	 ?IsDead@CInstanceBase@@QAEHXZ ; CInstanceBase::IsDead

; 715  : 		int nRightDeadPoint=pkInstRight->IsDead();

  00105	8b 4d f0	 mov	 ecx, DWORD PTR _pkInstRight$1$[ebp]
  00108	8b f8		 mov	 edi, eax
  0010a	e8 00 00 00 00	 call	 ?IsDead@CInstanceBase@@QAEHXZ ; CInstanceBase::IsDead

; 716  : 
; 717  : 		if (nLeftDeadPoint<nRightDeadPoint)

  0010f	3b f8		 cmp	 edi, eax
  00111	8b 7d fc	 mov	 edi, DWORD PTR __Val$1$[ebp]
  00114	7c 26		 jl	 SHORT $LN75@Sort_unche

; 718  : 			return true;
; 719  : 
; 720  : 		if (pkInstLeft->CalculateDistanceSq3d(m_kPPosEye)<pkInstRight->CalculateDistanceSq3d(m_kPPosEye))

  00116	56		 push	 esi
  00117	8b cf		 mov	 ecx, edi
  00119	e8 00 00 00 00	 call	 ?CalculateDistanceSq3d@CInstanceBase@@QAEMABUD3DXVECTOR3@@@Z ; CInstanceBase::CalculateDistanceSq3d
  0011e	8b 4d f0	 mov	 ecx, DWORD PTR _pkInstRight$1$[ebp]
  00121	d9 5d e8	 fstp	 DWORD PTR tv194[ebp]
  00124	56		 push	 esi
  00125	e8 00 00 00 00	 call	 ?CalculateDistanceSq3d@CInstanceBase@@QAEMABUD3DXVECTOR3@@@Z ; CInstanceBase::CalculateDistanceSq3d
  0012a	d9 5d ec	 fstp	 DWORD PTR tv493[ebp]
  0012d	f3 0f 10 45 ec	 movss	 xmm0, DWORD PTR tv493[ebp]
  00132	0f 2f 45 e8	 comiss	 xmm0, DWORD PTR tv194[ebp]
  00136	0f 86 8e 00 00
	00		 jbe	 $LN35@Sort_unche
$LN75@Sort_unche:
; File C:\Program Files (x86)\Microsoft Visual Studio\2019\Community\VC\Tools\MSVC\14.28.29333\include\algorithm

; 7422 :                     *_Hole = _STD move(*_Prev); // move hole down

  0013c	8b 4d f4	 mov	 ecx, DWORD PTR __Hole$1$[ebp]
  0013f	8b 03		 mov	 eax, DWORD PTR [ebx]
  00141	89 5d f4	 mov	 DWORD PTR __Hole$1$[ebp], ebx
  00144	89 01		 mov	 DWORD PTR [ecx], eax
  00146	eb ad		 jmp	 SHORT $LL16@Sort_unche
$LN59@Sort_unche:

; 6360 :     _Diff _Bottom = _Last - _First;

  00148	2b fb		 sub	 edi, ebx
  0014a	8b c7		 mov	 eax, edi
  0014c	89 7d 0c	 mov	 DWORD PTR __Last$[ebp], edi
  0014f	c1 f8 02	 sar	 eax, 2

; 6361 :     for (_Diff _Hole = _Bottom >> 1; _Hole > 0;) { // shift for codegen

  00152	8b f0		 mov	 esi, eax
  00154	89 45 08	 mov	 DWORD PTR __Bottom$1$[ebp], eax
  00157	d1 fe		 sar	 esi, 1
  00159	85 f6		 test	 esi, esi
  0015b	7e 27		 jle	 SHORT $LN39@Sort_unche
  0015d	8b f8		 mov	 edi, eax
  0015f	90		 npad	 1
$LL62@Sort_unche:

; 6362 :         // reheap top half, bottom to top
; 6363 :         --_Hole;
; 6364 :         _Iter_value_t<_RanIt> _Val = _STD move(*(_First + _Hole));
; 6365 :         _Pop_heap_hole_by_index(_First, _Hole, _Bottom, _STD move(_Val), _Pred);

  00160	ff 75 14	 push	 DWORD PTR __Pred$[ebp]
  00163	8b 44 b3 fc	 mov	 eax, DWORD PTR [ebx+esi*4-4]
  00167	4e		 dec	 esi
  00168	89 45 f0	 mov	 DWORD PTR __Val$2[ebp], eax
  0016b	8d 45 f0	 lea	 eax, DWORD PTR __Val$2[ebp]
  0016e	50		 push	 eax
  0016f	57		 push	 edi
  00170	56		 push	 esi
  00171	53		 push	 ebx
  00172	e8 00 00 00 00	 call	 ??$_Pop_heap_hole_by_index@PAPAVCInstanceBase@@PAV1@U?$_Ref_fn@UCInstanceBase_SLessCameraDistance@@@std@@@std@@YAXPAPAVCInstanceBase@@HH$$QAPAV1@U?$_Ref_fn@UCInstanceBase_SLessCameraDistance@@@0@@Z ; std::_Pop_heap_hole_by_index<CInstanceBase * *,CInstanceBase *,std::_Ref_fn<CInstanceBase_SLessCameraDistance> >
  00177	83 c4 14	 add	 esp, 20			; 00000014H
  0017a	85 f6		 test	 esi, esi
  0017c	7f e2		 jg	 SHORT $LL62@Sort_unche
  0017e	8b 7d 0c	 mov	 edi, DWORD PTR __Last$[ebp]
  00181	8b 45 08	 mov	 eax, DWORD PTR __Bottom$1$[ebp]
$LN39@Sort_unche:

; 6592 :     for (; _Last - _First >= 2; --_Last) {

  00184	83 f8 02	 cmp	 eax, 2
  00187	7c 70		 jl	 SHORT $LN44@Sort_unche
  00189	0f 1f 80 00 00
	00 00		 npad	 7
$LL45@Sort_unche:

; 6230 :         _Iter_value_t<_RanIt> _Val = _STD move(*_Last);

  00190	8b 44 3b fc	 mov	 eax, DWORD PTR [ebx+edi-4]
  00194	89 45 0c	 mov	 DWORD PTR __Val$3[ebp], eax

; 6219 :     *_Dest      = _STD move(*_First);

  00197	8b 03		 mov	 eax, DWORD PTR [ebx]
  00199	89 44 3b fc	 mov	 DWORD PTR [ebx+edi-4], eax

; 6220 :     using _Diff = _Iter_diff_t<_RanIt>;
; 6221 :     _Pop_heap_hole_by_index(

  0019d	8d 45 0c	 lea	 eax, DWORD PTR __Val$3[ebp]
  001a0	ff 75 14	 push	 DWORD PTR __Pred$[ebp]
  001a3	50		 push	 eax
  001a4	8d 47 fc	 lea	 eax, DWORD PTR [edi-4]
  001a7	c1 f8 02	 sar	 eax, 2
  001aa	50		 push	 eax
  001ab	6a 00		 push	 0
  001ad	53		 push	 ebx
  001ae	e8 00 00 00 00	 call	 ??$_Pop_heap_hole_by_index@PAPAVCInstanceBase@@PAV1@U?$_Ref_fn@UCInstanceBase_SLessCameraDistance@@@std@@@std@@YAXPAPAVCInstanceBase@@HH$$QAPAV1@U?$_Ref_fn@UCInstanceBase_SLessCameraDistance@@@0@@Z ; std::_Pop_heap_hole_by_index<CInstanceBase * *,CInstanceBase *,std::_Ref_fn<CInstanceBase_SLessCameraDistance> >

; 6592 :     for (; _Last - _First >= 2; --_Last) {

  001b3	83 ef 04	 sub	 edi, 4

; 6221 :     _Pop_heap_hole_by_index(

  001b6	83 c4 14	 add	 esp, 20			; 00000014H

; 6592 :     for (; _Last - _First >= 2; --_Last) {

  001b9	8b c7		 mov	 eax, edi
  001bb	83 e0 fc	 and	 eax, -4			; fffffffcH
  001be	83 f8 08	 cmp	 eax, 8
  001c1	7d cd		 jge	 SHORT $LL45@Sort_unche

; 7562 :         }
; 7563 :     }
; 7564 : }

  001c3	5f		 pop	 edi
  001c4	5e		 pop	 esi
  001c5	5b		 pop	 ebx
  001c6	8b e5		 mov	 esp, ebp
  001c8	5d		 pop	 ebp
  001c9	c3		 ret	 0
$LN35@Sort_unche:

; 7425 :                 *_Hole = _STD move(_Val); // insert element in hole

  001ca	8b 4d f4	 mov	 ecx, DWORD PTR __Hole$1$[ebp]
  001cd	8b 5d 08	 mov	 ebx, DWORD PTR __First$[ebp]
  001d0	89 39		 mov	 DWORD PTR [ecx], edi
  001d2	eb 13		 jmp	 SHORT $LN19@Sort_unche
$LN74@Sort_unche:
; File C:\Program Files (x86)\Microsoft Visual Studio\2019\Community\VC\Tools\MSVC\14.28.29333\include\xutility

; 4696 :             return _Copy_backward_memmove(_First, _Last, _Dest);

  001d4	8b 4d f8	 mov	 ecx, DWORD PTR __Mid$1$[ebp]
  001d7	8d 41 04	 lea	 eax, DWORD PTR [ecx+4]
  001da	50		 push	 eax
  001db	51		 push	 ecx
  001dc	53		 push	 ebx
  001dd	e8 00 00 00 00	 call	 ??$_Copy_backward_memmove@PAPAVCInstanceBase@@PAPAV1@@std@@YAPAPAVCInstanceBase@@PAPAV1@00@Z ; std::_Copy_backward_memmove<CInstanceBase * *,CInstanceBase * *>
  001e2	83 c4 0c	 add	 esp, 12			; 0000000cH
; File C:\Program Files (x86)\Microsoft Visual Studio\2019\Community\VC\Tools\MSVC\14.28.29333\include\algorithm

; 7419 :                 *_First = _STD move(_Val);

  001e5	89 3b		 mov	 DWORD PTR [ebx], edi
$LN19@Sort_unche:

; 7413 :         for (_BidIt _Mid = _First; ++_Mid != _Last;) { // order next element

  001e7	8b 45 f8	 mov	 eax, DWORD PTR __Mid$1$[ebp]
  001ea	83 c0 04	 add	 eax, 4
  001ed	89 45 f8	 mov	 DWORD PTR __Mid$1$[ebp], eax
  001f0	3b 45 0c	 cmp	 eax, DWORD PTR __Last$[ebp]
  001f3	0f 85 ac fe ff
	ff		 jne	 $LL11@Sort_unche
$LN44@Sort_unche:
  001f9	5f		 pop	 edi

; 7562 :         }
; 7563 :     }
; 7564 : }

  001fa	5e		 pop	 esi
  001fb	5b		 pop	 ebx
  001fc	8b e5		 mov	 esp, ebp
  001fe	5d		 pop	 ebp
  001ff	c3		 ret	 0
??$_Sort_unchecked@PAPAVCInstanceBase@@U?$_Ref_fn@UCInstanceBase_SLessCameraDistance@@@std@@@std@@YAXPAPAVCInstanceBase@@0HU?$_Ref_fn@UCInstanceBase_SLessCameraDistance@@@0@@Z ENDP ; std::_Sort_unchecked<CInstanceBase * *,std::_Ref_fn<CInstanceBase_SLessCameraDistance> >
_TEXT	ENDS
; Function compile flags: /Ogtp
; File C:\Program Files (x86)\Microsoft Visual Studio\2019\Community\VC\Tools\MSVC\14.28.29333\include\algorithm
; File D:\Metin2 Server Files\mainline\SRC_2014\Metin2Client\UserInterface\PythonCharacterManager.cpp
; File C:\Program Files (x86)\Microsoft Visual Studio\2019\Community\VC\Tools\MSVC\14.28.29333\include\algorithm
; File D:\Metin2 Server Files\mainline\SRC_2014\Metin2Client\UserInterface\PythonCharacterManager.cpp
; File C:\Program Files (x86)\Microsoft Visual Studio\2019\Community\VC\Tools\MSVC\14.28.29333\include\algorithm
; File C:\Program Files (x86)\Microsoft Visual Studio\2019\Community\VC\Tools\MSVC\14.28.29333\include\xutility
; File C:\Program Files (x86)\Microsoft Visual Studio\2019\Community\VC\Tools\MSVC\14.28.29333\include\algorithm
; File D:\Metin2 Server Files\mainline\SRC_2014\Metin2Client\UserInterface\PythonCharacterManager.cpp
; File C:\Program Files (x86)\Microsoft Visual Studio\2019\Community\VC\Tools\MSVC\14.28.29333\include\algorithm
; File D:\Metin2 Server Files\mainline\SRC_2014\Metin2Client\UserInterface\PythonCharacterManager.cpp
; File C:\Program Files (x86)\Microsoft Visual Studio\2019\Community\VC\Tools\MSVC\14.28.29333\include\algorithm
; File D:\Metin2 Server Files\mainline\SRC_2014\Metin2Client\UserInterface\PythonCharacterManager.cpp
; File C:\Program Files (x86)\Microsoft Visual Studio\2019\Community\VC\Tools\MSVC\14.28.29333\include\algorithm
; File D:\Metin2 Server Files\mainline\SRC_2014\Metin2Client\UserInterface\PythonCharacterManager.cpp
; File C:\Program Files (x86)\Microsoft Visual Studio\2019\Community\VC\Tools\MSVC\14.28.29333\include\algorithm
; File D:\Metin2 Server Files\mainline\SRC_2014\Metin2Client\UserInterface\PythonCharacterManager.cpp
; File C:\Program Files (x86)\Microsoft Visual Studio\2019\Community\VC\Tools\MSVC\14.28.29333\include\algorithm
; File D:\Metin2 Server Files\mainline\SRC_2014\Metin2Client\UserInterface\PythonCharacterManager.cpp
; File C:\Program Files (x86)\Microsoft Visual Studio\2019\Community\VC\Tools\MSVC\14.28.29333\include\algorithm
; File D:\Metin2 Server Files\mainline\SRC_2014\Metin2Client\UserInterface\PythonCharacterManager.cpp
; File C:\Program Files (x86)\Microsoft Visual Studio\2019\Community\VC\Tools\MSVC\14.28.29333\include\algorithm
; File D:\Metin2 Server Files\mainline\SRC_2014\Metin2Client\UserInterface\PythonCharacterManager.cpp
; File C:\Program Files (x86)\Microsoft Visual Studio\2019\Community\VC\Tools\MSVC\14.28.29333\include\algorithm
;	COMDAT ??$_Sort_unchecked@PAPAVCInstanceBase@@ULessCharacterInstancePtrRenderOrder@@@std@@YAXPAPAVCInstanceBase@@0HULessCharacterInstancePtrRenderOrder@@@Z
_TEXT	SEGMENT
__Mid$1 = -20						; size = 8
tv614 = -16						; size = 4
__Bottom$1$ = -12					; size = 4
__Mid$1$ = -12						; size = 4
__Max_sequence_non_leaf$1$ = -8				; size = 4
__Hole$1$ = -8						; size = 4
__Val$1$ = -4						; size = 4
__Val$1$ = -4						; size = 4
__Hole$1$ = 8						; size = 4
__First$ = 8						; size = 4
__Val$2 = 12						; size = 4
__Last$ = 12						; size = 4
__Ideal$ = 16						; size = 4
__Pred$ = 20						; size = 1
??$_Sort_unchecked@PAPAVCInstanceBase@@ULessCharacterInstancePtrRenderOrder@@@std@@YAXPAPAVCInstanceBase@@0HULessCharacterInstancePtrRenderOrder@@@Z PROC ; std::_Sort_unchecked<CInstanceBase * *,LessCharacterInstancePtrRenderOrder>, COMDAT

; 7537 : _CONSTEXPR20 void _Sort_unchecked(_RanIt _First, _RanIt _Last, _Iter_diff_t<_RanIt> _Ideal, _Pr _Pred) {

  00000	55		 push	 ebp
  00001	8b ec		 mov	 ebp, esp
  00003	83 ec 14	 sub	 esp, 20			; 00000014H
  00006	53		 push	 ebx
  00007	56		 push	 esi

; 7538 :     // order [_First, _Last)
; 7539 :     for (;;) {
; 7540 :         if (_Last - _First <= _ISORT_MAX) { // small

  00008	8b 75 08	 mov	 esi, DWORD PTR __First$[ebp]
  0000b	57		 push	 edi
  0000c	8b 7d 0c	 mov	 edi, DWORD PTR __Last$[ebp]
  0000f	8b c7		 mov	 eax, edi
  00011	2b c6		 sub	 eax, esi
  00013	83 e0 fc	 and	 eax, -4			; fffffffcH
  00016	3d 80 00 00 00	 cmp	 eax, 128		; 00000080H
  0001b	7e 74		 jle	 SHORT $LN67@Sort_unche
  0001d	8b 55 14	 mov	 edx, DWORD PTR __Pred$[ebp]
  00020	8b 5d 10	 mov	 ebx, DWORD PTR __Ideal$[ebp]
$LL2@Sort_unche:

; 7541 :             _Insertion_sort_unchecked(_First, _Last, _Pred);
; 7542 :             return;
; 7543 :         }
; 7544 : 
; 7545 :         if (_Ideal <= 0) { // heap sort if too many divisions

  00023	85 db		 test	 ebx, ebx
  00025	0f 8e aa 00 00
	00		 jle	 $LN68@Sort_unche

; 7546 :             _Make_heap_unchecked(_First, _Last, _Pred);
; 7547 :             _Sort_heap_unchecked(_First, _Last, _Pred);
; 7548 :             return;
; 7549 :         }
; 7550 : 
; 7551 :         // divide and conquer by quicksort
; 7552 :         auto _Mid = _Partition_by_median_guess_unchecked(_First, _Last, _Pred);

  0002b	52		 push	 edx
  0002c	57		 push	 edi
  0002d	8d 45 ec	 lea	 eax, DWORD PTR __Mid$1[ebp]
  00030	56		 push	 esi
  00031	50		 push	 eax
  00032	e8 00 00 00 00	 call	 ??$_Partition_by_median_guess_unchecked@PAPAVCInstanceBase@@ULessCharacterInstancePtrRenderOrder@@@std@@YA?AU?$pair@PAPAVCInstanceBase@@PAPAV1@@0@PAPAVCInstanceBase@@0ULessCharacterInstancePtrRenderOrder@@@Z ; std::_Partition_by_median_guess_unchecked<CInstanceBase * *,LessCharacterInstancePtrRenderOrder>

; 7553 : 
; 7554 :         _Ideal = (_Ideal >> 1) + (_Ideal >> 2); // allow 1.5 log2(N) divisions
; 7555 : 
; 7556 :         if (_Mid.first - _First < _Last - _Mid.second) { // loop on second half

  00037	8b 55 f0	 mov	 edx, DWORD PTR __Mid$1[ebp+4]
  0003a	8b c3		 mov	 eax, ebx
  0003c	c1 f8 02	 sar	 eax, 2
  0003f	8b cf		 mov	 ecx, edi
  00041	d1 fb		 sar	 ebx, 1
  00043	83 c4 10	 add	 esp, 16			; 00000010H
  00046	03 d8		 add	 ebx, eax
  00048	2b ca		 sub	 ecx, edx
  0004a	8b 45 ec	 mov	 eax, DWORD PTR __Mid$1[ebp]
  0004d	83 e1 fc	 and	 ecx, -4			; fffffffcH
  00050	2b c6		 sub	 eax, esi
  00052	83 e0 fc	 and	 eax, -4			; fffffffcH
  00055	3b c1		 cmp	 eax, ecx
  00057	8b 45 14	 mov	 eax, DWORD PTR __Pred$[ebp]
  0005a	50		 push	 eax
  0005b	53		 push	 ebx
  0005c	7d 12		 jge	 SHORT $LN7@Sort_unche

; 7557 :             _Sort_unchecked(_First, _Mid.first, _Ideal, _Pred);

  0005e	8b 45 ec	 mov	 eax, DWORD PTR __Mid$1[ebp]
  00061	50		 push	 eax
  00062	56		 push	 esi
  00063	e8 00 00 00 00	 call	 ??$_Sort_unchecked@PAPAVCInstanceBase@@ULessCharacterInstancePtrRenderOrder@@@std@@YAXPAPAVCInstanceBase@@0HULessCharacterInstancePtrRenderOrder@@@Z ; std::_Sort_unchecked<CInstanceBase * *,LessCharacterInstancePtrRenderOrder>

; 7558 :             _First = _Mid.second;

  00068	8b 75 f0	 mov	 esi, DWORD PTR __Mid$1[ebp+4]
  0006b	89 75 08	 mov	 DWORD PTR __First$[ebp], esi

; 7559 :         } else { // loop on first half

  0006e	eb 0d		 jmp	 SHORT $LN92@Sort_unche
$LN7@Sort_unche:

; 7560 :             _Sort_unchecked(_Mid.second, _Last, _Ideal, _Pred);

  00070	57		 push	 edi
  00071	52		 push	 edx
  00072	e8 00 00 00 00	 call	 ??$_Sort_unchecked@PAPAVCInstanceBase@@ULessCharacterInstancePtrRenderOrder@@@std@@YAXPAPAVCInstanceBase@@0HULessCharacterInstancePtrRenderOrder@@@Z ; std::_Sort_unchecked<CInstanceBase * *,LessCharacterInstancePtrRenderOrder>

; 7561 :             _Last = _Mid.first;

  00077	8b 7d ec	 mov	 edi, DWORD PTR __Mid$1[ebp]
  0007a	89 7d 0c	 mov	 DWORD PTR __Last$[ebp], edi
$LN92@Sort_unche:

; 7538 :     // order [_First, _Last)
; 7539 :     for (;;) {
; 7540 :         if (_Last - _First <= _ISORT_MAX) { // small

  0007d	8b 55 14	 mov	 edx, DWORD PTR __Pred$[ebp]
  00080	8b c7		 mov	 eax, edi
  00082	2b c6		 sub	 eax, esi
  00084	83 c4 10	 add	 esp, 16			; 00000010H
  00087	83 e0 fc	 and	 eax, -4			; fffffffcH
  0008a	3d 80 00 00 00	 cmp	 eax, 128		; 00000080H
  0008f	7f 92		 jg	 SHORT $LL2@Sort_unche
$LN67@Sort_unche:

; 7412 :     if (_First != _Last) {

  00091	3b f7		 cmp	 esi, edi
  00093	0f 84 91 01 00
	00		 je	 $LN51@Sort_unche

; 7413 :         for (_BidIt _Mid = _First; ++_Mid != _Last;) { // order next element

  00099	8d 5e 04	 lea	 ebx, DWORD PTR [esi+4]
  0009c	89 5d f4	 mov	 DWORD PTR __Mid$1$[ebp], ebx
  0009f	3b df		 cmp	 ebx, edi
  000a1	0f 84 83 01 00
	00		 je	 $LN51@Sort_unche
$LL11@Sort_unche:

; 7415 :             _Iter_value_t<_BidIt> _Val = _STD move(*_Mid);

  000a7	8b 3b		 mov	 edi, DWORD PTR [ebx]
; File D:\Metin2 Server Files\mainline\SRC_2014\Metin2Client\UserInterface\PythonCharacterManager.cpp

; 427  : 		return pkLeft->LessRenderOrder(pkRight);		

  000a9	8b cf		 mov	 ecx, edi
  000ab	ff 36		 push	 DWORD PTR [esi]
; File C:\Program Files (x86)\Microsoft Visual Studio\2019\Community\VC\Tools\MSVC\14.28.29333\include\algorithm

; 7414 :             _BidIt _Hole               = _Mid;

  000ad	89 5d f8	 mov	 DWORD PTR __Hole$1$[ebp], ebx

; 7415 :             _Iter_value_t<_BidIt> _Val = _STD move(*_Mid);

  000b0	89 7d fc	 mov	 DWORD PTR __Val$1$[ebp], edi
; File D:\Metin2 Server Files\mainline\SRC_2014\Metin2Client\UserInterface\PythonCharacterManager.cpp

; 427  : 		return pkLeft->LessRenderOrder(pkRight);		

  000b3	e8 00 00 00 00	 call	 ?LessRenderOrder@CInstanceBase@@QAE_NPAV1@@Z ; CInstanceBase::LessRenderOrder
; File C:\Program Files (x86)\Microsoft Visual Studio\2019\Community\VC\Tools\MSVC\14.28.29333\include\algorithm

; 7417 :             if (_DEBUG_LT_PRED(_Pred, _Val, *_First)) { // found new earliest element, move to front

  000b8	84 c0		 test	 al, al
  000ba	0f 84 1b 01 00
	00		 je	 $LN18@Sort_unche
; File C:\Program Files (x86)\Microsoft Visual Studio\2019\Community\VC\Tools\MSVC\14.28.29333\include\xutility

; 4696 :             return _Copy_backward_memmove(_First, _Last, _Dest);

  000c0	8d 43 04	 lea	 eax, DWORD PTR [ebx+4]
  000c3	50		 push	 eax
  000c4	53		 push	 ebx
  000c5	56		 push	 esi
  000c6	e8 00 00 00 00	 call	 ??$_Copy_backward_memmove@PAPAVCInstanceBase@@PAPAV1@@std@@YAPAPAVCInstanceBase@@PAPAV1@00@Z ; std::_Copy_backward_memmove<CInstanceBase * *,CInstanceBase * *>
  000cb	83 c4 0c	 add	 esp, 12			; 0000000cH
; File C:\Program Files (x86)\Microsoft Visual Studio\2019\Community\VC\Tools\MSVC\14.28.29333\include\algorithm

; 7419 :                 *_First = _STD move(_Val);

  000ce	89 3e		 mov	 DWORD PTR [esi], edi

; 7420 :             } else { // look for insertion point after first

  000d0	e9 46 01 00 00	 jmp	 $LN19@Sort_unche
$LN68@Sort_unche:

; 6360 :     _Diff _Bottom = _Last - _First;

  000d5	2b fe		 sub	 edi, esi
  000d7	8b c7		 mov	 eax, edi
  000d9	89 7d 0c	 mov	 DWORD PTR __Last$[ebp], edi
  000dc	c1 f8 02	 sar	 eax, 2

; 6361 :     for (_Diff _Hole = _Bottom >> 1; _Hole > 0;) { // shift for codegen

  000df	8b c8		 mov	 ecx, eax
  000e1	89 45 f4	 mov	 DWORD PTR __Bottom$1$[ebp], eax
  000e4	d1 f9		 sar	 ecx, 1
  000e6	85 c9		 test	 ecx, ecx
  000e8	0f 8e a7 00 00
	00		 jle	 $LN31@Sort_unche
  000ee	48		 dec	 eax
  000ef	89 45 f0	 mov	 DWORD PTR tv614[ebp], eax
  000f2	d1 f8		 sar	 eax, 1
  000f4	89 45 f8	 mov	 DWORD PTR __Max_sequence_non_leaf$1$[ebp], eax
$LL30@Sort_unche:

; 6362 :         // reheap top half, bottom to top
; 6363 :         --_Hole;
; 6364 :         _Iter_value_t<_RanIt> _Val = _STD move(*(_First + _Hole));

  000f7	8b 54 8e fc	 mov	 edx, DWORD PTR [esi+ecx*4-4]
  000fb	49		 dec	 ecx
  000fc	89 4d 08	 mov	 DWORD PTR __Hole$1$[ebp], ecx

; 6365 :         _Pop_heap_hole_by_index(_First, _Hole, _Bottom, _STD move(_Val), _Pred);

  000ff	8b d9		 mov	 ebx, ecx
  00101	89 55 fc	 mov	 DWORD PTR __Val$1$[ebp], edx

; 6192 :     _Diff _Idx       = _Hole;

  00104	8b f9		 mov	 edi, ecx

; 6193 : 
; 6194 :     // Check whether _Idx can have a child before calculating that child's index, since
; 6195 :     // calculating the child's index can trigger integer overflows
; 6196 :     const _Diff _Max_sequence_non_leaf = (_Bottom - 1) >> 1; // shift for codegen
; 6197 :     while (_Idx < _Max_sequence_non_leaf) { // move _Hole down to larger child

  00106	3b c8		 cmp	 ecx, eax
  00108	7d 34		 jge	 SHORT $LN36@Sort_unche
  0010a	66 0f 1f 44 00
	00		 npad	 6
$LL35@Sort_unche:
; File D:\Metin2 Server Files\mainline\SRC_2014\Metin2Client\UserInterface\PythonCharacterManager.cpp

; 427  : 		return pkLeft->LessRenderOrder(pkRight);		

  00110	ff 74 fe 04	 push	 DWORD PTR [esi+edi*8+4]
  00114	8b 4c fe 08	 mov	 ecx, DWORD PTR [esi+edi*8+8]
; File C:\Program Files (x86)\Microsoft Visual Studio\2019\Community\VC\Tools\MSVC\14.28.29333\include\algorithm

; 6198 :         _Idx = 2 * _Idx + 2;

  00118	8d 3c 7d 02 00
	00 00		 lea	 edi, DWORD PTR [edi*2+2]
; File D:\Metin2 Server Files\mainline\SRC_2014\Metin2Client\UserInterface\PythonCharacterManager.cpp

; 427  : 		return pkLeft->LessRenderOrder(pkRight);		

  0011f	e8 00 00 00 00	 call	 ?LessRenderOrder@CInstanceBase@@QAE_NPAV1@@Z ; CInstanceBase::LessRenderOrder
; File C:\Program Files (x86)\Microsoft Visual Studio\2019\Community\VC\Tools\MSVC\14.28.29333\include\algorithm

; 6199 :         if (_DEBUG_LT_PRED(_Pred, *(_First + _Idx), *(_First + (_Idx - 1)))) {

  00124	84 c0		 test	 al, al
  00126	74 01		 je	 SHORT $LN37@Sort_unche

; 6200 :             --_Idx;

  00128	4f		 dec	 edi
$LN37@Sort_unche:

; 6201 :         }
; 6202 :         *(_First + _Hole) = _STD move(*(_First + _Idx));

  00129	8b 04 be	 mov	 eax, DWORD PTR [esi+edi*4]
  0012c	89 04 9e	 mov	 DWORD PTR [esi+ebx*4], eax

; 6203 :         _Hole             = _Idx;

  0012f	8b df		 mov	 ebx, edi
  00131	8b 45 f8	 mov	 eax, DWORD PTR __Max_sequence_non_leaf$1$[ebp]
  00134	3b f8		 cmp	 edi, eax
  00136	7c d8		 jl	 SHORT $LL35@Sort_unche
  00138	8b 4d 08	 mov	 ecx, DWORD PTR __Hole$1$[ebp]
  0013b	8b 55 fc	 mov	 edx, DWORD PTR __Val$1$[ebp]
$LN36@Sort_unche:

; 6204 :     }
; 6205 : 
; 6206 :     if (_Idx == _Max_sequence_non_leaf && _Bottom % 2 == 0) { // only child at bottom, move _Hole down to it

  0013e	3b f8		 cmp	 edi, eax
  00140	75 11		 jne	 SHORT $LN38@Sort_unche
  00142	8b 45 f4	 mov	 eax, DWORD PTR __Bottom$1$[ebp]
  00145	a8 01		 test	 al, 1
  00147	75 0a		 jne	 SHORT $LN38@Sort_unche

; 6207 :         *(_First + _Hole) = _STD move(*(_First + (_Bottom - 1)));

  00149	8b 44 86 fc	 mov	 eax, DWORD PTR [esi+eax*4-4]
  0014d	89 04 9e	 mov	 DWORD PTR [esi+ebx*4], eax

; 6208 :         _Hole             = _Bottom - 1;

  00150	8b 5d f0	 mov	 ebx, DWORD PTR tv614[ebp]
$LN38@Sort_unche:

; 6077 :          _Top < _Hole && _DEBUG_LT_PRED(_Pred, *(_First + _Idx), _Val); //

  00153	3b cb		 cmp	 ecx, ebx
  00155	7d 24		 jge	 SHORT $LN90@Sort_unche
$LL45@Sort_unche:

; 6076 :     for (_Diff _Idx = (_Hole - 1) >> 1; // shift for codegen

  00157	8d 7b ff	 lea	 edi, DWORD PTR [ebx-1]
  0015a	d1 ff		 sar	 edi, 1
; File D:\Metin2 Server Files\mainline\SRC_2014\Metin2Client\UserInterface\PythonCharacterManager.cpp

; 427  : 		return pkLeft->LessRenderOrder(pkRight);		

  0015c	52		 push	 edx
  0015d	8b 0c be	 mov	 ecx, DWORD PTR [esi+edi*4]
  00160	e8 00 00 00 00	 call	 ?LessRenderOrder@CInstanceBase@@QAE_NPAV1@@Z ; CInstanceBase::LessRenderOrder
; File C:\Program Files (x86)\Microsoft Visual Studio\2019\Community\VC\Tools\MSVC\14.28.29333\include\algorithm

; 6077 :          _Top < _Hole && _DEBUG_LT_PRED(_Pred, *(_First + _Idx), _Val); //

  00165	8b 4d 08	 mov	 ecx, DWORD PTR __Hole$1$[ebp]
  00168	84 c0		 test	 al, al
  0016a	74 0f		 je	 SHORT $LN90@Sort_unche

; 6078 :          _Idx = (_Hole - 1) >> 1) { // shift for codegen
; 6079 :         // move _Hole up to parent
; 6080 :         *(_First + _Hole) = _STD move(*(_First + _Idx));

  0016c	8b 04 be	 mov	 eax, DWORD PTR [esi+edi*4]
  0016f	8b 55 fc	 mov	 edx, DWORD PTR __Val$1$[ebp]
  00172	89 04 9e	 mov	 DWORD PTR [esi+ebx*4], eax

; 6081 :         _Hole             = _Idx;

  00175	8b df		 mov	 ebx, edi
  00177	3b cf		 cmp	 ecx, edi
  00179	7c dc		 jl	 SHORT $LL45@Sort_unche
$LN90@Sort_unche:

; 6082 :     }
; 6083 : 
; 6084 :     *(_First + _Hole) = _STD forward<_Ty>(_Val); // drop _Val into final hole

  0017b	8b 45 fc	 mov	 eax, DWORD PTR __Val$1$[ebp]
  0017e	89 04 9e	 mov	 DWORD PTR [esi+ebx*4], eax

; 6361 :     for (_Diff _Hole = _Bottom >> 1; _Hole > 0;) { // shift for codegen

  00181	8b 45 f8	 mov	 eax, DWORD PTR __Max_sequence_non_leaf$1$[ebp]
  00184	85 c9		 test	 ecx, ecx
  00186	0f 8f 6b ff ff
	ff		 jg	 $LL30@Sort_unche
  0018c	8b 7d 0c	 mov	 edi, DWORD PTR __Last$[ebp]
  0018f	8b 55 14	 mov	 edx, DWORD PTR __Pred$[ebp]
  00192	8b 45 f4	 mov	 eax, DWORD PTR __Bottom$1$[ebp]
$LN31@Sort_unche:

; 6592 :     for (; _Last - _First >= 2; --_Last) {

  00195	83 f8 02	 cmp	 eax, 2
  00198	0f 8c 8c 00 00
	00		 jl	 $LN51@Sort_unche
  0019e	66 90		 npad	 2
$LL52@Sort_unche:

; 6230 :         _Iter_value_t<_RanIt> _Val = _STD move(*_Last);

  001a0	8b 44 3e fc	 mov	 eax, DWORD PTR [esi+edi-4]
  001a4	89 45 0c	 mov	 DWORD PTR __Val$2[ebp], eax

; 6219 :     *_Dest      = _STD move(*_First);

  001a7	8b 06		 mov	 eax, DWORD PTR [esi]
  001a9	89 44 3e fc	 mov	 DWORD PTR [esi+edi-4], eax

; 6220 :     using _Diff = _Iter_diff_t<_RanIt>;
; 6221 :     _Pop_heap_hole_by_index(

  001ad	8d 45 0c	 lea	 eax, DWORD PTR __Val$2[ebp]
  001b0	52		 push	 edx
  001b1	50		 push	 eax
  001b2	8d 47 fc	 lea	 eax, DWORD PTR [edi-4]
  001b5	c1 f8 02	 sar	 eax, 2
  001b8	50		 push	 eax
  001b9	6a 00		 push	 0
  001bb	56		 push	 esi
  001bc	e8 00 00 00 00	 call	 ??$_Pop_heap_hole_by_index@PAPAVCInstanceBase@@PAV1@ULessCharacterInstancePtrRenderOrder@@@std@@YAXPAPAVCInstanceBase@@HH$$QAPAV1@ULessCharacterInstancePtrRenderOrder@@@Z ; std::_Pop_heap_hole_by_index<CInstanceBase * *,CInstanceBase *,LessCharacterInstancePtrRenderOrder>

; 6592 :     for (; _Last - _First >= 2; --_Last) {

  001c1	8b 55 14	 mov	 edx, DWORD PTR __Pred$[ebp]
  001c4	83 ef 04	 sub	 edi, 4
  001c7	8b c7		 mov	 eax, edi

; 6221 :     _Pop_heap_hole_by_index(

  001c9	83 c4 14	 add	 esp, 20			; 00000014H

; 6592 :     for (; _Last - _First >= 2; --_Last) {

  001cc	83 e0 fc	 and	 eax, -4			; fffffffcH
  001cf	83 f8 08	 cmp	 eax, 8
  001d2	7d cc		 jge	 SHORT $LL52@Sort_unche

; 7562 :         }
; 7563 :     }
; 7564 : }

  001d4	5f		 pop	 edi
  001d5	5e		 pop	 esi
  001d6	5b		 pop	 ebx
  001d7	8b e5		 mov	 esp, ebp
  001d9	5d		 pop	 ebp
  001da	c3		 ret	 0
$LN18@Sort_unche:
; File D:\Metin2 Server Files\mainline\SRC_2014\Metin2Client\UserInterface\PythonCharacterManager.cpp

; 427  : 		return pkLeft->LessRenderOrder(pkRight);		

  001db	ff 73 fc	 push	 DWORD PTR [ebx-4]
  001de	8b 4d fc	 mov	 ecx, DWORD PTR __Val$1$[ebp]
; File C:\Program Files (x86)\Microsoft Visual Studio\2019\Community\VC\Tools\MSVC\14.28.29333\include\algorithm

; 7421 :                 for (_BidIt _Prev = _Hole; _DEBUG_LT_PRED(_Pred, _Val, *--_Prev); _Hole = _Prev) {

  001e1	8d 7b fc	 lea	 edi, DWORD PTR [ebx-4]
; File D:\Metin2 Server Files\mainline\SRC_2014\Metin2Client\UserInterface\PythonCharacterManager.cpp

; 427  : 		return pkLeft->LessRenderOrder(pkRight);		

  001e4	e8 00 00 00 00	 call	 ?LessRenderOrder@CInstanceBase@@QAE_NPAV1@@Z ; CInstanceBase::LessRenderOrder
; File C:\Program Files (x86)\Microsoft Visual Studio\2019\Community\VC\Tools\MSVC\14.28.29333\include\algorithm

; 7421 :                 for (_BidIt _Prev = _Hole; _DEBUG_LT_PRED(_Pred, _Val, *--_Prev); _Hole = _Prev) {

  001e9	84 c0		 test	 al, al
  001eb	74 26		 je	 SHORT $LN15@Sort_unche
  001ed	8b 75 fc	 mov	 esi, DWORD PTR __Val$1$[ebp]
  001f0	8b 5d f8	 mov	 ebx, DWORD PTR __Hole$1$[ebp]
$LL16@Sort_unche:

; 7422 :                     *_Hole = _STD move(*_Prev); // move hole down

  001f3	8b 07		 mov	 eax, DWORD PTR [edi]
; File D:\Metin2 Server Files\mainline\SRC_2014\Metin2Client\UserInterface\PythonCharacterManager.cpp

; 427  : 		return pkLeft->LessRenderOrder(pkRight);		

  001f5	8b ce		 mov	 ecx, esi
; File C:\Program Files (x86)\Microsoft Visual Studio\2019\Community\VC\Tools\MSVC\14.28.29333\include\algorithm

; 7422 :                     *_Hole = _STD move(*_Prev); // move hole down

  001f7	89 03		 mov	 DWORD PTR [ebx], eax
  001f9	8b df		 mov	 ebx, edi
; File D:\Metin2 Server Files\mainline\SRC_2014\Metin2Client\UserInterface\PythonCharacterManager.cpp

; 427  : 		return pkLeft->LessRenderOrder(pkRight);		

  001fb	ff 77 fc	 push	 DWORD PTR [edi-4]
; File C:\Program Files (x86)\Microsoft Visual Studio\2019\Community\VC\Tools\MSVC\14.28.29333\include\algorithm

; 7421 :                 for (_BidIt _Prev = _Hole; _DEBUG_LT_PRED(_Pred, _Val, *--_Prev); _Hole = _Prev) {

  001fe	83 ef 04	 sub	 edi, 4
; File D:\Metin2 Server Files\mainline\SRC_2014\Metin2Client\UserInterface\PythonCharacterManager.cpp

; 427  : 		return pkLeft->LessRenderOrder(pkRight);		

  00201	e8 00 00 00 00	 call	 ?LessRenderOrder@CInstanceBase@@QAE_NPAV1@@Z ; CInstanceBase::LessRenderOrder
; File C:\Program Files (x86)\Microsoft Visual Studio\2019\Community\VC\Tools\MSVC\14.28.29333\include\algorithm

; 7421 :                 for (_BidIt _Prev = _Hole; _DEBUG_LT_PRED(_Pred, _Val, *--_Prev); _Hole = _Prev) {

  00206	84 c0		 test	 al, al
  00208	75 e9		 jne	 SHORT $LL16@Sort_unche
  0020a	8b 75 08	 mov	 esi, DWORD PTR __First$[ebp]
  0020d	89 5d f8	 mov	 DWORD PTR __Hole$1$[ebp], ebx
  00210	8b 5d f4	 mov	 ebx, DWORD PTR __Mid$1$[ebp]
$LN15@Sort_unche:

; 7423 :                 }
; 7424 : 
; 7425 :                 *_Hole = _STD move(_Val); // insert element in hole

  00213	8b 4d f8	 mov	 ecx, DWORD PTR __Hole$1$[ebp]
  00216	8b 45 fc	 mov	 eax, DWORD PTR __Val$1$[ebp]
  00219	89 01		 mov	 DWORD PTR [ecx], eax
$LN19@Sort_unche:

; 7413 :         for (_BidIt _Mid = _First; ++_Mid != _Last;) { // order next element

  0021b	83 c3 04	 add	 ebx, 4
  0021e	89 5d f4	 mov	 DWORD PTR __Mid$1$[ebp], ebx
  00221	3b 5d 0c	 cmp	 ebx, DWORD PTR __Last$[ebp]
  00224	0f 85 7d fe ff
	ff		 jne	 $LL11@Sort_unche
$LN51@Sort_unche:
  0022a	5f		 pop	 edi

; 7562 :         }
; 7563 :     }
; 7564 : }

  0022b	5e		 pop	 esi
  0022c	5b		 pop	 ebx
  0022d	8b e5		 mov	 esp, ebp
  0022f	5d		 pop	 ebp
  00230	c3		 ret	 0
??$_Sort_unchecked@PAPAVCInstanceBase@@ULessCharacterInstancePtrRenderOrder@@@std@@YAXPAPAVCInstanceBase@@0HULessCharacterInstancePtrRenderOrder@@@Z ENDP ; std::_Sort_unchecked<CInstanceBase * *,LessCharacterInstancePtrRenderOrder>
_TEXT	ENDS
; Function compile flags: /Ogtp
;	COMDAT ??__F?ms_kPool@?$CPooledObject@VCRotationDecorator@NEffectUpdateDecorator@@@@1V?$CDynamicPoolEx@VCRotationDecorator@NEffectUpdateDecorator@@@@A@@YAXXZ
text$yd	SEGMENT
??__F?ms_kPool@?$CPooledObject@VCRotationDecorator@NEffectUpdateDecorator@@@@1V?$CDynamicPoolEx@VCRotationDecorator@NEffectUpdateDecorator@@@@A@@YAXXZ PROC ; `dynamic atexit destructor for 'CPooledObject<NEffectUpdateDecorator::CRotationDecorator>::ms_kPool'', COMDAT
  00000	b9 00 00 00 00	 mov	 ecx, OFFSET ?ms_kPool@?$CPooledObject@VCRotationDecorator@NEffectUpdateDecorator@@@@1V?$CDynamicPoolEx@VCRotationDecorator@NEffectUpdateDecorator@@@@A ; CPooledObject<NEffectUpdateDecorator::CRotationDecorator>::ms_kPool
  00005	e9 00 00 00 00	 jmp	 ??1?$CDynamicPoolEx@VCRotationDecorator@NEffectUpdateDecorator@@@@UAE@XZ ; CDynamicPoolEx<NEffectUpdateDecorator::CRotationDecorator>::~CDynamicPoolEx<NEffectUpdateDecorator::CRotationDecorator>
??__F?ms_kPool@?$CPooledObject@VCRotationDecorator@NEffectUpdateDecorator@@@@1V?$CDynamicPoolEx@VCRotationDecorator@NEffectUpdateDecorator@@@@A@@YAXXZ ENDP ; `dynamic atexit destructor for 'CPooledObject<NEffectUpdateDecorator::CRotationDecorator>::ms_kPool''
text$yd	ENDS
; Function compile flags: /Ogtp
; File D:\Metin2 Server Files\mainline\SRC_2014\Metin2Client\eterLib\Pool.h
;	COMDAT ??__E?ms_kPool@?$CPooledObject@VCRotationDecorator@NEffectUpdateDecorator@@@@1V?$CDynamicPoolEx@VCRotationDecorator@NEffectUpdateDecorator@@@@A@@YAXXZ
text$di	SEGMENT
??__E?ms_kPool@?$CPooledObject@VCRotationDecorator@NEffectUpdateDecorator@@@@1V?$CDynamicPoolEx@VCRotationDecorator@NEffectUpdateDecorator@@@@A@@YAXXZ PROC ; `dynamic initializer for 'CPooledObject<NEffectUpdateDecorator::CRotationDecorator>::ms_kPool'', COMDAT

; 272  : template <class T> CDynamicPoolEx<T> CPooledObject<T>::ms_kPool;

  00000	68 00 00 00 00	 push	 OFFSET ??__F?ms_kPool@?$CPooledObject@VCRotationDecorator@NEffectUpdateDecorator@@@@1V?$CDynamicPoolEx@VCRotationDecorator@NEffectUpdateDecorator@@@@A@@YAXXZ ; `dynamic atexit destructor for 'CPooledObject<NEffectUpdateDecorator::CRotationDecorator>::ms_kPool''
  00005	e8 00 00 00 00	 call	 _atexit
  0000a	59		 pop	 ecx
  0000b	c3		 ret	 0
??__E?ms_kPool@?$CPooledObject@VCRotationDecorator@NEffectUpdateDecorator@@@@1V?$CDynamicPoolEx@VCRotationDecorator@NEffectUpdateDecorator@@@@A@@YAXXZ ENDP ; `dynamic initializer for 'CPooledObject<NEffectUpdateDecorator::CRotationDecorator>::ms_kPool''
text$di	ENDS
; Function compile flags: /Ogtp
;	COMDAT ??__F?ms_kPool@?$CPooledObject@VCGravityDecorator@NEffectUpdateDecorator@@@@1V?$CDynamicPoolEx@VCGravityDecorator@NEffectUpdateDecorator@@@@A@@YAXXZ
text$yd	SEGMENT
??__F?ms_kPool@?$CPooledObject@VCGravityDecorator@NEffectUpdateDecorator@@@@1V?$CDynamicPoolEx@VCGravityDecorator@NEffectUpdateDecorator@@@@A@@YAXXZ PROC ; `dynamic atexit destructor for 'CPooledObject<NEffectUpdateDecorator::CGravityDecorator>::ms_kPool'', COMDAT
  00000	b9 00 00 00 00	 mov	 ecx, OFFSET ?ms_kPool@?$CPooledObject@VCGravityDecorator@NEffectUpdateDecorator@@@@1V?$CDynamicPoolEx@VCGravityDecorator@NEffectUpdateDecorator@@@@A ; CPooledObject<NEffectUpdateDecorator::CGravityDecorator>::ms_kPool
  00005	e9 00 00 00 00	 jmp	 ??1?$CDynamicPoolEx@VCGravityDecorator@NEffectUpdateDecorator@@@@UAE@XZ ; CDynamicPoolEx<NEffectUpdateDecorator::CGravityDecorator>::~CDynamicPoolEx<NEffectUpdateDecorator::CGravityDecorator>
??__F?ms_kPool@?$CPooledObject@VCGravityDecorator@NEffectUpdateDecorator@@@@1V?$CDynamicPoolEx@VCGravityDecorator@NEffectUpdateDecorator@@@@A@@YAXXZ ENDP ; `dynamic atexit destructor for 'CPooledObject<NEffectUpdateDecorator::CGravityDecorator>::ms_kPool''
text$yd	ENDS
; Function compile flags: /Ogtp
; File D:\Metin2 Server Files\mainline\SRC_2014\Metin2Client\eterLib\Pool.h
;	COMDAT ??__E?ms_kPool@?$CPooledObject@VCGravityDecorator@NEffectUpdateDecorator@@@@1V?$CDynamicPoolEx@VCGravityDecorator@NEffectUpdateDecorator@@@@A@@YAXXZ
text$di	SEGMENT
??__E?ms_kPool@?$CPooledObject@VCGravityDecorator@NEffectUpdateDecorator@@@@1V?$CDynamicPoolEx@VCGravityDecorator@NEffectUpdateDecorator@@@@A@@YAXXZ PROC ; `dynamic initializer for 'CPooledObject<NEffectUpdateDecorator::CGravityDecorator>::ms_kPool'', COMDAT

; 272  : template <class T> CDynamicPoolEx<T> CPooledObject<T>::ms_kPool;

  00000	68 00 00 00 00	 push	 OFFSET ??__F?ms_kPool@?$CPooledObject@VCGravityDecorator@NEffectUpdateDecorator@@@@1V?$CDynamicPoolEx@VCGravityDecorator@NEffectUpdateDecorator@@@@A@@YAXXZ ; `dynamic atexit destructor for 'CPooledObject<NEffectUpdateDecorator::CGravityDecorator>::ms_kPool''
  00005	e8 00 00 00 00	 call	 _atexit
  0000a	59		 pop	 ecx
  0000b	c3		 ret	 0
??__E?ms_kPool@?$CPooledObject@VCGravityDecorator@NEffectUpdateDecorator@@@@1V?$CDynamicPoolEx@VCGravityDecorator@NEffectUpdateDecorator@@@@A@@YAXXZ ENDP ; `dynamic initializer for 'CPooledObject<NEffectUpdateDecorator::CGravityDecorator>::ms_kPool''
text$di	ENDS
; Function compile flags: /Ogtp
;	COMDAT ??__F?ms_kPool@?$CPooledObject@VCAirResistanceDecorator@NEffectUpdateDecorator@@@@1V?$CDynamicPoolEx@VCAirResistanceDecorator@NEffectUpdateDecorator@@@@A@@YAXXZ
text$yd	SEGMENT
??__F?ms_kPool@?$CPooledObject@VCAirResistanceDecorator@NEffectUpdateDecorator@@@@1V?$CDynamicPoolEx@VCAirResistanceDecorator@NEffectUpdateDecorator@@@@A@@YAXXZ PROC ; `dynamic atexit destructor for 'CPooledObject<NEffectUpdateDecorator::CAirResistanceDecorator>::ms_kPool'', COMDAT
  00000	b9 00 00 00 00	 mov	 ecx, OFFSET ?ms_kPool@?$CPooledObject@VCAirResistanceDecorator@NEffectUpdateDecorator@@@@1V?$CDynamicPoolEx@VCAirResistanceDecorator@NEffectUpdateDecorator@@@@A ; CPooledObject<NEffectUpdateDecorator::CAirResistanceDecorator>::ms_kPool
  00005	e9 00 00 00 00	 jmp	 ??1?$CDynamicPoolEx@VCAirResistanceDecorator@NEffectUpdateDecorator@@@@UAE@XZ ; CDynamicPoolEx<NEffectUpdateDecorator::CAirResistanceDecorator>::~CDynamicPoolEx<NEffectUpdateDecorator::CAirResistanceDecorator>
??__F?ms_kPool@?$CPooledObject@VCAirResistanceDecorator@NEffectUpdateDecorator@@@@1V?$CDynamicPoolEx@VCAirResistanceDecorator@NEffectUpdateDecorator@@@@A@@YAXXZ ENDP ; `dynamic atexit destructor for 'CPooledObject<NEffectUpdateDecorator::CAirResistanceDecorator>::ms_kPool''
text$yd	ENDS
; Function compile flags: /Ogtp
; File D:\Metin2 Server Files\mainline\SRC_2014\Metin2Client\eterLib\Pool.h
;	COMDAT ??__E?ms_kPool@?$CPooledObject@VCAirResistanceDecorator@NEffectUpdateDecorator@@@@1V?$CDynamicPoolEx@VCAirResistanceDecorator@NEffectUpdateDecorator@@@@A@@YAXXZ
text$di	SEGMENT
??__E?ms_kPool@?$CPooledObject@VCAirResistanceDecorator@NEffectUpdateDecorator@@@@1V?$CDynamicPoolEx@VCAirResistanceDecorator@NEffectUpdateDecorator@@@@A@@YAXXZ PROC ; `dynamic initializer for 'CPooledObject<NEffectUpdateDecorator::CAirResistanceDecorator>::ms_kPool'', COMDAT

; 272  : template <class T> CDynamicPoolEx<T> CPooledObject<T>::ms_kPool;

  00000	68 00 00 00 00	 push	 OFFSET ??__F?ms_kPool@?$CPooledObject@VCAirResistanceDecorator@NEffectUpdateDecorator@@@@1V?$CDynamicPoolEx@VCAirResistanceDecorator@NEffectUpdateDecorator@@@@A@@YAXXZ ; `dynamic atexit destructor for 'CPooledObject<NEffectUpdateDecorator::CAirResistanceDecorator>::ms_kPool''
  00005	e8 00 00 00 00	 call	 _atexit
  0000a	59		 pop	 ecx
  0000b	c3		 ret	 0
??__E?ms_kPool@?$CPooledObject@VCAirResistanceDecorator@NEffectUpdateDecorator@@@@1V?$CDynamicPoolEx@VCAirResistanceDecorator@NEffectUpdateDecorator@@@@A@@YAXXZ ENDP ; `dynamic initializer for 'CPooledObject<NEffectUpdateDecorator::CAirResistanceDecorator>::ms_kPool''
text$di	ENDS
; Function compile flags: /Ogtp
;	COMDAT ??__F?ms_kPool@?$CPooledObject@VCTextureAnimationRandomDecorator@NEffectUpdateDecorator@@@@1V?$CDynamicPoolEx@VCTextureAnimationRandomDecorator@NEffectUpdateDecorator@@@@A@@YAXXZ
text$yd	SEGMENT
??__F?ms_kPool@?$CPooledObject@VCTextureAnimationRandomDecorator@NEffectUpdateDecorator@@@@1V?$CDynamicPoolEx@VCTextureAnimationRandomDecorator@NEffectUpdateDecorator@@@@A@@YAXXZ PROC ; `dynamic atexit destructor for 'CPooledObject<NEffectUpdateDecorator::CTextureAnimationRandomDecorator>::ms_kPool'', COMDAT
  00000	b9 00 00 00 00	 mov	 ecx, OFFSET ?ms_kPool@?$CPooledObject@VCTextureAnimationRandomDecorator@NEffectUpdateDecorator@@@@1V?$CDynamicPoolEx@VCTextureAnimationRandomDecorator@NEffectUpdateDecorator@@@@A ; CPooledObject<NEffectUpdateDecorator::CTextureAnimationRandomDecorator>::ms_kPool
  00005	e9 00 00 00 00	 jmp	 ??1?$CDynamicPoolEx@VCTextureAnimationRandomDecorator@NEffectUpdateDecorator@@@@UAE@XZ ; CDynamicPoolEx<NEffectUpdateDecorator::CTextureAnimationRandomDecorator>::~CDynamicPoolEx<NEffectUpdateDecorator::CTextureAnimationRandomDecorator>
??__F?ms_kPool@?$CPooledObject@VCTextureAnimationRandomDecorator@NEffectUpdateDecorator@@@@1V?$CDynamicPoolEx@VCTextureAnimationRandomDecorator@NEffectUpdateDecorator@@@@A@@YAXXZ ENDP ; `dynamic atexit destructor for 'CPooledObject<NEffectUpdateDecorator::CTextureAnimationRandomDecorator>::ms_kPool''
text$yd	ENDS
; Function compile flags: /Ogtp
; File D:\Metin2 Server Files\mainline\SRC_2014\Metin2Client\eterLib\Pool.h
;	COMDAT ??__E?ms_kPool@?$CPooledObject@VCTextureAnimationRandomDecorator@NEffectUpdateDecorator@@@@1V?$CDynamicPoolEx@VCTextureAnimationRandomDecorator@NEffectUpdateDecorator@@@@A@@YAXXZ
text$di	SEGMENT
??__E?ms_kPool@?$CPooledObject@VCTextureAnimationRandomDecorator@NEffectUpdateDecorator@@@@1V?$CDynamicPoolEx@VCTextureAnimationRandomDecorator@NEffectUpdateDecorator@@@@A@@YAXXZ PROC ; `dynamic initializer for 'CPooledObject<NEffectUpdateDecorator::CTextureAnimationRandomDecorator>::ms_kPool'', COMDAT

; 272  : template <class T> CDynamicPoolEx<T> CPooledObject<T>::ms_kPool;

  00000	68 00 00 00 00	 push	 OFFSET ??__F?ms_kPool@?$CPooledObject@VCTextureAnimationRandomDecorator@NEffectUpdateDecorator@@@@1V?$CDynamicPoolEx@VCTextureAnimationRandomDecorator@NEffectUpdateDecorator@@@@A@@YAXXZ ; `dynamic atexit destructor for 'CPooledObject<NEffectUpdateDecorator::CTextureAnimationRandomDecorator>::ms_kPool''
  00005	e8 00 00 00 00	 call	 _atexit
  0000a	59		 pop	 ecx
  0000b	c3		 ret	 0
??__E?ms_kPool@?$CPooledObject@VCTextureAnimationRandomDecorator@NEffectUpdateDecorator@@@@1V?$CDynamicPoolEx@VCTextureAnimationRandomDecorator@NEffectUpdateDecorator@@@@A@@YAXXZ ENDP ; `dynamic initializer for 'CPooledObject<NEffectUpdateDecorator::CTextureAnimationRandomDecorator>::ms_kPool''
text$di	ENDS
; Function compile flags: /Ogtp
;	COMDAT ??__F?ms_kPool@?$CPooledObject@VCTextureAnimationCCWDecorator@NEffectUpdateDecorator@@@@1V?$CDynamicPoolEx@VCTextureAnimationCCWDecorator@NEffectUpdateDecorator@@@@A@@YAXXZ
text$yd	SEGMENT
??__F?ms_kPool@?$CPooledObject@VCTextureAnimationCCWDecorator@NEffectUpdateDecorator@@@@1V?$CDynamicPoolEx@VCTextureAnimationCCWDecorator@NEffectUpdateDecorator@@@@A@@YAXXZ PROC ; `dynamic atexit destructor for 'CPooledObject<NEffectUpdateDecorator::CTextureAnimationCCWDecorator>::ms_kPool'', COMDAT
  00000	b9 00 00 00 00	 mov	 ecx, OFFSET ?ms_kPool@?$CPooledObject@VCTextureAnimationCCWDecorator@NEffectUpdateDecorator@@@@1V?$CDynamicPoolEx@VCTextureAnimationCCWDecorator@NEffectUpdateDecorator@@@@A ; CPooledObject<NEffectUpdateDecorator::CTextureAnimationCCWDecorator>::ms_kPool
  00005	e9 00 00 00 00	 jmp	 ??1?$CDynamicPoolEx@VCTextureAnimationCCWDecorator@NEffectUpdateDecorator@@@@UAE@XZ ; CDynamicPoolEx<NEffectUpdateDecorator::CTextureAnimationCCWDecorator>::~CDynamicPoolEx<NEffectUpdateDecorator::CTextureAnimationCCWDecorator>
??__F?ms_kPool@?$CPooledObject@VCTextureAnimationCCWDecorator@NEffectUpdateDecorator@@@@1V?$CDynamicPoolEx@VCTextureAnimationCCWDecorator@NEffectUpdateDecorator@@@@A@@YAXXZ ENDP ; `dynamic atexit destructor for 'CPooledObject<NEffectUpdateDecorator::CTextureAnimationCCWDecorator>::ms_kPool''
text$yd	ENDS
; Function compile flags: /Ogtp
; File D:\Metin2 Server Files\mainline\SRC_2014\Metin2Client\eterLib\Pool.h
;	COMDAT ??__E?ms_kPool@?$CPooledObject@VCTextureAnimationCCWDecorator@NEffectUpdateDecorator@@@@1V?$CDynamicPoolEx@VCTextureAnimationCCWDecorator@NEffectUpdateDecorator@@@@A@@YAXXZ
text$di	SEGMENT
??__E?ms_kPool@?$CPooledObject@VCTextureAnimationCCWDecorator@NEffectUpdateDecorator@@@@1V?$CDynamicPoolEx@VCTextureAnimationCCWDecorator@NEffectUpdateDecorator@@@@A@@YAXXZ PROC ; `dynamic initializer for 'CPooledObject<NEffectUpdateDecorator::CTextureAnimationCCWDecorator>::ms_kPool'', COMDAT

; 272  : template <class T> CDynamicPoolEx<T> CPooledObject<T>::ms_kPool;

  00000	68 00 00 00 00	 push	 OFFSET ??__F?ms_kPool@?$CPooledObject@VCTextureAnimationCCWDecorator@NEffectUpdateDecorator@@@@1V?$CDynamicPoolEx@VCTextureAnimationCCWDecorator@NEffectUpdateDecorator@@@@A@@YAXXZ ; `dynamic atexit destructor for 'CPooledObject<NEffectUpdateDecorator::CTextureAnimationCCWDecorator>::ms_kPool''
  00005	e8 00 00 00 00	 call	 _atexit
  0000a	59		 pop	 ecx
  0000b	c3		 ret	 0
??__E?ms_kPool@?$CPooledObject@VCTextureAnimationCCWDecorator@NEffectUpdateDecorator@@@@1V?$CDynamicPoolEx@VCTextureAnimationCCWDecorator@NEffectUpdateDecorator@@@@A@@YAXXZ ENDP ; `dynamic initializer for 'CPooledObject<NEffectUpdateDecorator::CTextureAnimationCCWDecorator>::ms_kPool''
text$di	ENDS
; Function compile flags: /Ogtp
;	COMDAT ??__F?ms_kPool@?$CPooledObject@VCTextureAnimationCWDecorator@NEffectUpdateDecorator@@@@1V?$CDynamicPoolEx@VCTextureAnimationCWDecorator@NEffectUpdateDecorator@@@@A@@YAXXZ
text$yd	SEGMENT
??__F?ms_kPool@?$CPooledObject@VCTextureAnimationCWDecorator@NEffectUpdateDecorator@@@@1V?$CDynamicPoolEx@VCTextureAnimationCWDecorator@NEffectUpdateDecorator@@@@A@@YAXXZ PROC ; `dynamic atexit destructor for 'CPooledObject<NEffectUpdateDecorator::CTextureAnimationCWDecorator>::ms_kPool'', COMDAT
  00000	b9 00 00 00 00	 mov	 ecx, OFFSET ?ms_kPool@?$CPooledObject@VCTextureAnimationCWDecorator@NEffectUpdateDecorator@@@@1V?$CDynamicPoolEx@VCTextureAnimationCWDecorator@NEffectUpdateDecorator@@@@A ; CPooledObject<NEffectUpdateDecorator::CTextureAnimationCWDecorator>::ms_kPool
  00005	e9 00 00 00 00	 jmp	 ??1?$CDynamicPoolEx@VCTextureAnimationCWDecorator@NEffectUpdateDecorator@@@@UAE@XZ ; CDynamicPoolEx<NEffectUpdateDecorator::CTextureAnimationCWDecorator>::~CDynamicPoolEx<NEffectUpdateDecorator::CTextureAnimationCWDecorator>
??__F?ms_kPool@?$CPooledObject@VCTextureAnimationCWDecorator@NEffectUpdateDecorator@@@@1V?$CDynamicPoolEx@VCTextureAnimationCWDecorator@NEffectUpdateDecorator@@@@A@@YAXXZ ENDP ; `dynamic atexit destructor for 'CPooledObject<NEffectUpdateDecorator::CTextureAnimationCWDecorator>::ms_kPool''
text$yd	ENDS
; Function compile flags: /Ogtp
; File D:\Metin2 Server Files\mainline\SRC_2014\Metin2Client\eterLib\Pool.h
;	COMDAT ??__E?ms_kPool@?$CPooledObject@VCTextureAnimationCWDecorator@NEffectUpdateDecorator@@@@1V?$CDynamicPoolEx@VCTextureAnimationCWDecorator@NEffectUpdateDecorator@@@@A@@YAXXZ
text$di	SEGMENT
??__E?ms_kPool@?$CPooledObject@VCTextureAnimationCWDecorator@NEffectUpdateDecorator@@@@1V?$CDynamicPoolEx@VCTextureAnimationCWDecorator@NEffectUpdateDecorator@@@@A@@YAXXZ PROC ; `dynamic initializer for 'CPooledObject<NEffectUpdateDecorator::CTextureAnimationCWDecorator>::ms_kPool'', COMDAT

; 272  : template <class T> CDynamicPoolEx<T> CPooledObject<T>::ms_kPool;

  00000	68 00 00 00 00	 push	 OFFSET ??__F?ms_kPool@?$CPooledObject@VCTextureAnimationCWDecorator@NEffectUpdateDecorator@@@@1V?$CDynamicPoolEx@VCTextureAnimationCWDecorator@NEffectUpdateDecorator@@@@A@@YAXXZ ; `dynamic atexit destructor for 'CPooledObject<NEffectUpdateDecorator::CTextureAnimationCWDecorator>::ms_kPool''
  00005	e8 00 00 00 00	 call	 _atexit
  0000a	59		 pop	 ecx
  0000b	c3		 ret	 0
??__E?ms_kPool@?$CPooledObject@VCTextureAnimationCWDecorator@NEffectUpdateDecorator@@@@1V?$CDynamicPoolEx@VCTextureAnimationCWDecorator@NEffectUpdateDecorator@@@@A@@YAXXZ ENDP ; `dynamic initializer for 'CPooledObject<NEffectUpdateDecorator::CTextureAnimationCWDecorator>::ms_kPool''
text$di	ENDS
; Function compile flags: /Ogtp
;	COMDAT ??__F?ms_kPool@?$CPooledObject@VCNullDecorator@NEffectUpdateDecorator@@@@1V?$CDynamicPoolEx@VCNullDecorator@NEffectUpdateDecorator@@@@A@@YAXXZ
text$yd	SEGMENT
??__F?ms_kPool@?$CPooledObject@VCNullDecorator@NEffectUpdateDecorator@@@@1V?$CDynamicPoolEx@VCNullDecorator@NEffectUpdateDecorator@@@@A@@YAXXZ PROC ; `dynamic atexit destructor for 'CPooledObject<NEffectUpdateDecorator::CNullDecorator>::ms_kPool'', COMDAT
  00000	b9 00 00 00 00	 mov	 ecx, OFFSET ?ms_kPool@?$CPooledObject@VCNullDecorator@NEffectUpdateDecorator@@@@1V?$CDynamicPoolEx@VCNullDecorator@NEffectUpdateDecorator@@@@A ; CPooledObject<NEffectUpdateDecorator::CNullDecorator>::ms_kPool
  00005	e9 00 00 00 00	 jmp	 ??1?$CDynamicPoolEx@VCNullDecorator@NEffectUpdateDecorator@@@@UAE@XZ ; CDynamicPoolEx<NEffectUpdateDecorator::CNullDecorator>::~CDynamicPoolEx<NEffectUpdateDecorator::CNullDecorator>
??__F?ms_kPool@?$CPooledObject@VCNullDecorator@NEffectUpdateDecorator@@@@1V?$CDynamicPoolEx@VCNullDecorator@NEffectUpdateDecorator@@@@A@@YAXXZ ENDP ; `dynamic atexit destructor for 'CPooledObject<NEffectUpdateDecorator::CNullDecorator>::ms_kPool''
text$yd	ENDS
; Function compile flags: /Ogtp
; File D:\Metin2 Server Files\mainline\SRC_2014\Metin2Client\eterLib\Pool.h
;	COMDAT ??__E?ms_kPool@?$CPooledObject@VCNullDecorator@NEffectUpdateDecorator@@@@1V?$CDynamicPoolEx@VCNullDecorator@NEffectUpdateDecorator@@@@A@@YAXXZ
text$di	SEGMENT
??__E?ms_kPool@?$CPooledObject@VCNullDecorator@NEffectUpdateDecorator@@@@1V?$CDynamicPoolEx@VCNullDecorator@NEffectUpdateDecorator@@@@A@@YAXXZ PROC ; `dynamic initializer for 'CPooledObject<NEffectUpdateDecorator::CNullDecorator>::ms_kPool'', COMDAT

; 272  : template <class T> CDynamicPoolEx<T> CPooledObject<T>::ms_kPool;

  00000	68 00 00 00 00	 push	 OFFSET ??__F?ms_kPool@?$CPooledObject@VCNullDecorator@NEffectUpdateDecorator@@@@1V?$CDynamicPoolEx@VCNullDecorator@NEffectUpdateDecorator@@@@A@@YAXXZ ; `dynamic atexit destructor for 'CPooledObject<NEffectUpdateDecorator::CNullDecorator>::ms_kPool''
  00005	e8 00 00 00 00	 call	 _atexit
  0000a	59		 pop	 ecx
  0000b	c3		 ret	 0
??__E?ms_kPool@?$CPooledObject@VCNullDecorator@NEffectUpdateDecorator@@@@1V?$CDynamicPoolEx@VCNullDecorator@NEffectUpdateDecorator@@@@A@@YAXXZ ENDP ; `dynamic initializer for 'CPooledObject<NEffectUpdateDecorator::CNullDecorator>::ms_kPool''
text$di	ENDS
; Function compile flags: /Ogtp
;	COMDAT ??__F?ms_kPool@?$CPooledObject@VCHeaderDecorator@NEffectUpdateDecorator@@@@1V?$CDynamicPoolEx@VCHeaderDecorator@NEffectUpdateDecorator@@@@A@@YAXXZ
text$yd	SEGMENT
??__F?ms_kPool@?$CPooledObject@VCHeaderDecorator@NEffectUpdateDecorator@@@@1V?$CDynamicPoolEx@VCHeaderDecorator@NEffectUpdateDecorator@@@@A@@YAXXZ PROC ; `dynamic atexit destructor for 'CPooledObject<NEffectUpdateDecorator::CHeaderDecorator>::ms_kPool'', COMDAT
  00000	b9 00 00 00 00	 mov	 ecx, OFFSET ?ms_kPool@?$CPooledObject@VCHeaderDecorator@NEffectUpdateDecorator@@@@1V?$CDynamicPoolEx@VCHeaderDecorator@NEffectUpdateDecorator@@@@A ; CPooledObject<NEffectUpdateDecorator::CHeaderDecorator>::ms_kPool
  00005	e9 00 00 00 00	 jmp	 ??1?$CDynamicPoolEx@VCHeaderDecorator@NEffectUpdateDecorator@@@@UAE@XZ ; CDynamicPoolEx<NEffectUpdateDecorator::CHeaderDecorator>::~CDynamicPoolEx<NEffectUpdateDecorator::CHeaderDecorator>
??__F?ms_kPool@?$CPooledObject@VCHeaderDecorator@NEffectUpdateDecorator@@@@1V?$CDynamicPoolEx@VCHeaderDecorator@NEffectUpdateDecorator@@@@A@@YAXXZ ENDP ; `dynamic atexit destructor for 'CPooledObject<NEffectUpdateDecorator::CHeaderDecorator>::ms_kPool''
text$yd	ENDS
; Function compile flags: /Ogtp
; File D:\Metin2 Server Files\mainline\SRC_2014\Metin2Client\eterLib\Pool.h
;	COMDAT ??__E?ms_kPool@?$CPooledObject@VCHeaderDecorator@NEffectUpdateDecorator@@@@1V?$CDynamicPoolEx@VCHeaderDecorator@NEffectUpdateDecorator@@@@A@@YAXXZ
text$di	SEGMENT
??__E?ms_kPool@?$CPooledObject@VCHeaderDecorator@NEffectUpdateDecorator@@@@1V?$CDynamicPoolEx@VCHeaderDecorator@NEffectUpdateDecorator@@@@A@@YAXXZ PROC ; `dynamic initializer for 'CPooledObject<NEffectUpdateDecorator::CHeaderDecorator>::ms_kPool'', COMDAT

; 272  : template <class T> CDynamicPoolEx<T> CPooledObject<T>::ms_kPool;

  00000	68 00 00 00 00	 push	 OFFSET ??__F?ms_kPool@?$CPooledObject@VCHeaderDecorator@NEffectUpdateDecorator@@@@1V?$CDynamicPoolEx@VCHeaderDecorator@NEffectUpdateDecorator@@@@A@@YAXXZ ; `dynamic atexit destructor for 'CPooledObject<NEffectUpdateDecorator::CHeaderDecorator>::ms_kPool''
  00005	e8 00 00 00 00	 call	 _atexit
  0000a	59		 pop	 ecx
  0000b	c3		 ret	 0
??__E?ms_kPool@?$CPooledObject@VCHeaderDecorator@NEffectUpdateDecorator@@@@1V?$CDynamicPoolEx@VCHeaderDecorator@NEffectUpdateDecorator@@@@A@@YAXXZ ENDP ; `dynamic initializer for 'CPooledObject<NEffectUpdateDecorator::CHeaderDecorator>::ms_kPool''
text$di	ENDS
; Function compile flags: /Ogtp
; File C:\Program Files (x86)\Microsoft Visual Studio\2019\Community\VC\Tools\MSVC\14.28.29333\include\xmemory
;	COMDAT ??$_Destroy_range@V?$allocator@PAVCRotationDecorator@NEffectUpdateDecorator@@@std@@@std@@YAXPAPAVCRotationDecorator@NEffectUpdateDecorator@@QAPAV12@AAV?$allocator@PAVCRotationDecorator@NEffectUpdateDecorator@@@0@@Z
_TEXT	SEGMENT
__First$ = 8						; size = 4
__Last$ = 12						; size = 4
__Al$ = 16						; size = 4
??$_Destroy_range@V?$allocator@PAVCRotationDecorator@NEffectUpdateDecorator@@@std@@@std@@YAXPAPAVCRotationDecorator@NEffectUpdateDecorator@@QAPAV12@AAV?$allocator@PAVCRotationDecorator@NEffectUpdateDecorator@@@0@@Z PROC ; std::_Destroy_range<std::allocator<NEffectUpdateDecorator::CRotationDecorator *> >, COMDAT

; 963  :     // note that this is an optimization for debug mode codegen; in release mode the BE removes all of this
; 964  :     using _Ty = typename _Alloc::value_type;
; 965  :     if _CONSTEXPR_IF (!conjunction_v<is_trivially_destructible<_Ty>, _Uses_default_destroy<_Alloc, _Ty*>>) {
; 966  :         for (; _First != _Last; ++_First) {
; 967  :             allocator_traits<_Alloc>::destroy(_Al, _Unfancy(_First));
; 968  :         }
; 969  :     }
; 970  : }

  00000	c2 00 00	 ret	 0
??$_Destroy_range@V?$allocator@PAVCRotationDecorator@NEffectUpdateDecorator@@@std@@@std@@YAXPAPAVCRotationDecorator@NEffectUpdateDecorator@@QAPAV12@AAV?$allocator@PAVCRotationDecorator@NEffectUpdateDecorator@@@0@@Z ENDP ; std::_Destroy_range<std::allocator<NEffectUpdateDecorator::CRotationDecorator *> >
_TEXT	ENDS
; Function compile flags: /Ogtp
; File C:\Program Files (x86)\Microsoft Visual Studio\2019\Community\VC\Tools\MSVC\14.28.29333\include\xmemory
;	COMDAT ??$_Destroy_range@V?$allocator@PAVCGravityDecorator@NEffectUpdateDecorator@@@std@@@std@@YAXPAPAVCGravityDecorator@NEffectUpdateDecorator@@QAPAV12@AAV?$allocator@PAVCGravityDecorator@NEffectUpdateDecorator@@@0@@Z
_TEXT	SEGMENT
__First$ = 8						; size = 4
__Last$ = 12						; size = 4
__Al$ = 16						; size = 4
??$_Destroy_range@V?$allocator@PAVCGravityDecorator@NEffectUpdateDecorator@@@std@@@std@@YAXPAPAVCGravityDecorator@NEffectUpdateDecorator@@QAPAV12@AAV?$allocator@PAVCGravityDecorator@NEffectUpdateDecorator@@@0@@Z PROC ; std::_Destroy_range<std::allocator<NEffectUpdateDecorator::CGravityDecorator *> >, COMDAT

; 963  :     // note that this is an optimization for debug mode codegen; in release mode the BE removes all of this
; 964  :     using _Ty = typename _Alloc::value_type;
; 965  :     if _CONSTEXPR_IF (!conjunction_v<is_trivially_destructible<_Ty>, _Uses_default_destroy<_Alloc, _Ty*>>) {
; 966  :         for (; _First != _Last; ++_First) {
; 967  :             allocator_traits<_Alloc>::destroy(_Al, _Unfancy(_First));
; 968  :         }
; 969  :     }
; 970  : }

  00000	c2 00 00	 ret	 0
??$_Destroy_range@V?$allocator@PAVCGravityDecorator@NEffectUpdateDecorator@@@std@@@std@@YAXPAPAVCGravityDecorator@NEffectUpdateDecorator@@QAPAV12@AAV?$allocator@PAVCGravityDecorator@NEffectUpdateDecorator@@@0@@Z ENDP ; std::_Destroy_range<std::allocator<NEffectUpdateDecorator::CGravityDecorator *> >
_TEXT	ENDS
; Function compile flags: /Ogtp
; File C:\Program Files (x86)\Microsoft Visual Studio\2019\Community\VC\Tools\MSVC\14.28.29333\include\xmemory
;	COMDAT ??$_Destroy_range@V?$allocator@PAVCAirResistanceDecorator@NEffectUpdateDecorator@@@std@@@std@@YAXPAPAVCAirResistanceDecorator@NEffectUpdateDecorator@@QAPAV12@AAV?$allocator@PAVCAirResistanceDecorator@NEffectUpdateDecorator@@@0@@Z
_TEXT	SEGMENT
__First$ = 8						; size = 4
__Last$ = 12						; size = 4
__Al$ = 16						; size = 4
??$_Destroy_range@V?$allocator@PAVCAirResistanceDecorator@NEffectUpdateDecorator@@@std@@@std@@YAXPAPAVCAirResistanceDecorator@NEffectUpdateDecorator@@QAPAV12@AAV?$allocator@PAVCAirResistanceDecorator@NEffectUpdateDecorator@@@0@@Z PROC ; std::_Destroy_range<std::allocator<NEffectUpdateDecorator::CAirResistanceDecorator *> >, COMDAT

; 963  :     // note that this is an optimization for debug mode codegen; in release mode the BE removes all of this
; 964  :     using _Ty = typename _Alloc::value_type;
; 965  :     if _CONSTEXPR_IF (!conjunction_v<is_trivially_destructible<_Ty>, _Uses_default_destroy<_Alloc, _Ty*>>) {
; 966  :         for (; _First != _Last; ++_First) {
; 967  :             allocator_traits<_Alloc>::destroy(_Al, _Unfancy(_First));
; 968  :         }
; 969  :     }
; 970  : }

  00000	c2 00 00	 ret	 0
??$_Destroy_range@V?$allocator@PAVCAirResistanceDecorator@NEffectUpdateDecorator@@@std@@@std@@YAXPAPAVCAirResistanceDecorator@NEffectUpdateDecorator@@QAPAV12@AAV?$allocator@PAVCAirResistanceDecorator@NEffectUpdateDecorator@@@0@@Z ENDP ; std::_Destroy_range<std::allocator<NEffectUpdateDecorator::CAirResistanceDecorator *> >
_TEXT	ENDS
; Function compile flags: /Ogtp
; File C:\Program Files (x86)\Microsoft Visual Studio\2019\Community\VC\Tools\MSVC\14.28.29333\include\xmemory
;	COMDAT ??$_Destroy_range@V?$allocator@PAVCTextureAnimationRandomDecorator@NEffectUpdateDecorator@@@std@@@std@@YAXPAPAVCTextureAnimationRandomDecorator@NEffectUpdateDecorator@@QAPAV12@AAV?$allocator@PAVCTextureAnimationRandomDecorator@NEffectUpdateDecorator@@@0@@Z
_TEXT	SEGMENT
__First$ = 8						; size = 4
__Last$ = 12						; size = 4
__Al$ = 16						; size = 4
??$_Destroy_range@V?$allocator@PAVCTextureAnimationRandomDecorator@NEffectUpdateDecorator@@@std@@@std@@YAXPAPAVCTextureAnimationRandomDecorator@NEffectUpdateDecorator@@QAPAV12@AAV?$allocator@PAVCTextureAnimationRandomDecorator@NEffectUpdateDecorator@@@0@@Z PROC ; std::_Destroy_range<std::allocator<NEffectUpdateDecorator::CTextureAnimationRandomDecorator *> >, COMDAT

; 963  :     // note that this is an optimization for debug mode codegen; in release mode the BE removes all of this
; 964  :     using _Ty = typename _Alloc::value_type;
; 965  :     if _CONSTEXPR_IF (!conjunction_v<is_trivially_destructible<_Ty>, _Uses_default_destroy<_Alloc, _Ty*>>) {
; 966  :         for (; _First != _Last; ++_First) {
; 967  :             allocator_traits<_Alloc>::destroy(_Al, _Unfancy(_First));
; 968  :         }
; 969  :     }
; 970  : }

  00000	c2 00 00	 ret	 0
??$_Destroy_range@V?$allocator@PAVCTextureAnimationRandomDecorator@NEffectUpdateDecorator@@@std@@@std@@YAXPAPAVCTextureAnimationRandomDecorator@NEffectUpdateDecorator@@QAPAV12@AAV?$allocator@PAVCTextureAnimationRandomDecorator@NEffectUpdateDecorator@@@0@@Z ENDP ; std::_Destroy_range<std::allocator<NEffectUpdateDecorator::CTextureAnimationRandomDecorator *> >
_TEXT	ENDS
; Function compile flags: /Ogtp
; File C:\Program Files (x86)\Microsoft Visual Studio\2019\Community\VC\Tools\MSVC\14.28.29333\include\xmemory
;	COMDAT ??$_Destroy_range@V?$allocator@PAVCTextureAnimationCCWDecorator@NEffectUpdateDecorator@@@std@@@std@@YAXPAPAVCTextureAnimationCCWDecorator@NEffectUpdateDecorator@@QAPAV12@AAV?$allocator@PAVCTextureAnimationCCWDecorator@NEffectUpdateDecorator@@@0@@Z
_TEXT	SEGMENT
__First$ = 8						; size = 4
__Last$ = 12						; size = 4
__Al$ = 16						; size = 4
??$_Destroy_range@V?$allocator@PAVCTextureAnimationCCWDecorator@NEffectUpdateDecorator@@@std@@@std@@YAXPAPAVCTextureAnimationCCWDecorator@NEffectUpdateDecorator@@QAPAV12@AAV?$allocator@PAVCTextureAnimationCCWDecorator@NEffectUpdateDecorator@@@0@@Z PROC ; std::_Destroy_range<std::allocator<NEffectUpdateDecorator::CTextureAnimationCCWDecorator *> >, COMDAT

; 963  :     // note that this is an optimization for debug mode codegen; in release mode the BE removes all of this
; 964  :     using _Ty = typename _Alloc::value_type;
; 965  :     if _CONSTEXPR_IF (!conjunction_v<is_trivially_destructible<_Ty>, _Uses_default_destroy<_Alloc, _Ty*>>) {
; 966  :         for (; _First != _Last; ++_First) {
; 967  :             allocator_traits<_Alloc>::destroy(_Al, _Unfancy(_First));
; 968  :         }
; 969  :     }
; 970  : }

  00000	c2 00 00	 ret	 0
??$_Destroy_range@V?$allocator@PAVCTextureAnimationCCWDecorator@NEffectUpdateDecorator@@@std@@@std@@YAXPAPAVCTextureAnimationCCWDecorator@NEffectUpdateDecorator@@QAPAV12@AAV?$allocator@PAVCTextureAnimationCCWDecorator@NEffectUpdateDecorator@@@0@@Z ENDP ; std::_Destroy_range<std::allocator<NEffectUpdateDecorator::CTextureAnimationCCWDecorator *> >
_TEXT	ENDS
; Function compile flags: /Ogtp
; File C:\Program Files (x86)\Microsoft Visual Studio\2019\Community\VC\Tools\MSVC\14.28.29333\include\xmemory
;	COMDAT ??$_Destroy_range@V?$allocator@PAVCTextureAnimationCWDecorator@NEffectUpdateDecorator@@@std@@@std@@YAXPAPAVCTextureAnimationCWDecorator@NEffectUpdateDecorator@@QAPAV12@AAV?$allocator@PAVCTextureAnimationCWDecorator@NEffectUpdateDecorator@@@0@@Z
_TEXT	SEGMENT
__First$ = 8						; size = 4
__Last$ = 12						; size = 4
__Al$ = 16						; size = 4
??$_Destroy_range@V?$allocator@PAVCTextureAnimationCWDecorator@NEffectUpdateDecorator@@@std@@@std@@YAXPAPAVCTextureAnimationCWDecorator@NEffectUpdateDecorator@@QAPAV12@AAV?$allocator@PAVCTextureAnimationCWDecorator@NEffectUpdateDecorator@@@0@@Z PROC ; std::_Destroy_range<std::allocator<NEffectUpdateDecorator::CTextureAnimationCWDecorator *> >, COMDAT

; 963  :     // note that this is an optimization for debug mode codegen; in release mode the BE removes all of this
; 964  :     using _Ty = typename _Alloc::value_type;
; 965  :     if _CONSTEXPR_IF (!conjunction_v<is_trivially_destructible<_Ty>, _Uses_default_destroy<_Alloc, _Ty*>>) {
; 966  :         for (; _First != _Last; ++_First) {
; 967  :             allocator_traits<_Alloc>::destroy(_Al, _Unfancy(_First));
; 968  :         }
; 969  :     }
; 970  : }

  00000	c2 00 00	 ret	 0
??$_Destroy_range@V?$allocator@PAVCTextureAnimationCWDecorator@NEffectUpdateDecorator@@@std@@@std@@YAXPAPAVCTextureAnimationCWDecorator@NEffectUpdateDecorator@@QAPAV12@AAV?$allocator@PAVCTextureAnimationCWDecorator@NEffectUpdateDecorator@@@0@@Z ENDP ; std::_Destroy_range<std::allocator<NEffectUpdateDecorator::CTextureAnimationCWDecorator *> >
_TEXT	ENDS
; Function compile flags: /Ogtp
; File C:\Program Files (x86)\Microsoft Visual Studio\2019\Community\VC\Tools\MSVC\14.28.29333\include\xmemory
;	COMDAT ??$_Destroy_range@V?$allocator@PAVCNullDecorator@NEffectUpdateDecorator@@@std@@@std@@YAXPAPAVCNullDecorator@NEffectUpdateDecorator@@QAPAV12@AAV?$allocator@PAVCNullDecorator@NEffectUpdateDecorator@@@0@@Z
_TEXT	SEGMENT
__First$ = 8						; size = 4
__Last$ = 12						; size = 4
__Al$ = 16						; size = 4
??$_Destroy_range@V?$allocator@PAVCNullDecorator@NEffectUpdateDecorator@@@std@@@std@@YAXPAPAVCNullDecorator@NEffectUpdateDecorator@@QAPAV12@AAV?$allocator@PAVCNullDecorator@NEffectUpdateDecorator@@@0@@Z PROC ; std::_Destroy_range<std::allocator<NEffectUpdateDecorator::CNullDecorator *> >, COMDAT

; 963  :     // note that this is an optimization for debug mode codegen; in release mode the BE removes all of this
; 964  :     using _Ty = typename _Alloc::value_type;
; 965  :     if _CONSTEXPR_IF (!conjunction_v<is_trivially_destructible<_Ty>, _Uses_default_destroy<_Alloc, _Ty*>>) {
; 966  :         for (; _First != _Last; ++_First) {
; 967  :             allocator_traits<_Alloc>::destroy(_Al, _Unfancy(_First));
; 968  :         }
; 969  :     }
; 970  : }

  00000	c2 00 00	 ret	 0
??$_Destroy_range@V?$allocator@PAVCNullDecorator@NEffectUpdateDecorator@@@std@@@std@@YAXPAPAVCNullDecorator@NEffectUpdateDecorator@@QAPAV12@AAV?$allocator@PAVCNullDecorator@NEffectUpdateDecorator@@@0@@Z ENDP ; std::_Destroy_range<std::allocator<NEffectUpdateDecorator::CNullDecorator *> >
_TEXT	ENDS
; Function compile flags: /Ogtp
; File C:\Program Files (x86)\Microsoft Visual Studio\2019\Community\VC\Tools\MSVC\14.28.29333\include\xmemory
;	COMDAT ??$_Destroy_range@V?$allocator@PAVCHeaderDecorator@NEffectUpdateDecorator@@@std@@@std@@YAXPAPAVCHeaderDecorator@NEffectUpdateDecorator@@QAPAV12@AAV?$allocator@PAVCHeaderDecorator@NEffectUpdateDecorator@@@0@@Z
_TEXT	SEGMENT
__First$ = 8						; size = 4
__Last$ = 12						; size = 4
__Al$ = 16						; size = 4
??$_Destroy_range@V?$allocator@PAVCHeaderDecorator@NEffectUpdateDecorator@@@std@@@std@@YAXPAPAVCHeaderDecorator@NEffectUpdateDecorator@@QAPAV12@AAV?$allocator@PAVCHeaderDecorator@NEffectUpdateDecorator@@@0@@Z PROC ; std::_Destroy_range<std::allocator<NEffectUpdateDecorator::CHeaderDecorator *> >, COMDAT

; 963  :     // note that this is an optimization for debug mode codegen; in release mode the BE removes all of this
; 964  :     using _Ty = typename _Alloc::value_type;
; 965  :     if _CONSTEXPR_IF (!conjunction_v<is_trivially_destructible<_Ty>, _Uses_default_destroy<_Alloc, _Ty*>>) {
; 966  :         for (; _First != _Last; ++_First) {
; 967  :             allocator_traits<_Alloc>::destroy(_Al, _Unfancy(_First));
; 968  :         }
; 969  :     }
; 970  : }

  00000	c2 00 00	 ret	 0
??$_Destroy_range@V?$allocator@PAVCHeaderDecorator@NEffectUpdateDecorator@@@std@@@std@@YAXPAPAVCHeaderDecorator@NEffectUpdateDecorator@@QAPAV12@AAV?$allocator@PAVCHeaderDecorator@NEffectUpdateDecorator@@@0@@Z ENDP ; std::_Destroy_range<std::allocator<NEffectUpdateDecorator::CHeaderDecorator *> >
_TEXT	ENDS
; Function compile flags: /Ogtp
; File C:\Program Files (x86)\Microsoft Visual Studio\2019\Community\VC\Tools\MSVC\14.28.29333\include\xmemory
;	COMDAT ??$_Construct_in_place@PAU?$_List_node@PAVCInstanceBase@@PAX@std@@AAPAU12@@std@@YAXAAPAU?$_List_node@PAVCInstanceBase@@PAX@0@0@Z
_TEXT	SEGMENT
__Obj$ = 8						; size = 4
_<_Args_0>$ = 12					; size = 4
??$_Construct_in_place@PAU?$_List_node@PAVCInstanceBase@@PAX@std@@AAPAU12@@std@@YAXAAPAU?$_List_node@PAVCInstanceBase@@PAX@0@0@Z PROC ; std::_Construct_in_place<std::_List_node<CInstanceBase *,void *> *,std::_List_node<CInstanceBase *,void *> * &>, COMDAT

; 228  : void _Construct_in_place(_Ty& _Obj, _Types&&... _Args) noexcept(is_nothrow_constructible_v<_Ty, _Types...>) {

  00000	55		 push	 ebp
  00001	8b ec		 mov	 ebp, esp

; 229  :     ::new (const_cast<void*>(static_cast<const volatile void*>(_STD addressof(_Obj))))

  00003	8b 45 0c	 mov	 eax, DWORD PTR _<_Args_0>$[ebp]
  00006	8b 08		 mov	 ecx, DWORD PTR [eax]
  00008	8b 45 08	 mov	 eax, DWORD PTR __Obj$[ebp]
  0000b	89 08		 mov	 DWORD PTR [eax], ecx

; 230  :         _Ty(_STD forward<_Types>(_Args)...);
; 231  : }

  0000d	5d		 pop	 ebp
  0000e	c3		 ret	 0
??$_Construct_in_place@PAU?$_List_node@PAVCInstanceBase@@PAX@std@@AAPAU12@@std@@YAXAAPAU?$_List_node@PAVCInstanceBase@@PAX@0@0@Z ENDP ; std::_Construct_in_place<std::_List_node<CInstanceBase *,void *> *,std::_List_node<CInstanceBase *,void *> * &>
_TEXT	ENDS
; Function compile flags: /Ogtp
; File C:\Program Files (x86)\Microsoft Visual Studio\2019\Community\VC\Tools\MSVC\14.28.29333\include\xmemory
;	COMDAT ??$_Destroy_range@V?$allocator@PAVCInstanceBase@@@std@@@std@@YAXPAPAVCInstanceBase@@QAPAV1@AAV?$allocator@PAVCInstanceBase@@@0@@Z
_TEXT	SEGMENT
__First$ = 8						; size = 4
__Last$ = 12						; size = 4
__Al$ = 16						; size = 4
??$_Destroy_range@V?$allocator@PAVCInstanceBase@@@std@@@std@@YAXPAPAVCInstanceBase@@QAPAV1@AAV?$allocator@PAVCInstanceBase@@@0@@Z PROC ; std::_Destroy_range<std::allocator<CInstanceBase *> >, COMDAT

; 963  :     // note that this is an optimization for debug mode codegen; in release mode the BE removes all of this
; 964  :     using _Ty = typename _Alloc::value_type;
; 965  :     if _CONSTEXPR_IF (!conjunction_v<is_trivially_destructible<_Ty>, _Uses_default_destroy<_Alloc, _Ty*>>) {
; 966  :         for (; _First != _Last; ++_First) {
; 967  :             allocator_traits<_Alloc>::destroy(_Al, _Unfancy(_First));
; 968  :         }
; 969  :     }
; 970  : }

  00000	c2 00 00	 ret	 0
??$_Destroy_range@V?$allocator@PAVCInstanceBase@@@std@@@std@@YAXPAPAVCInstanceBase@@QAPAV1@AAV?$allocator@PAVCInstanceBase@@@0@@Z ENDP ; std::_Destroy_range<std::allocator<CInstanceBase *> >
_TEXT	ENDS
; Function compile flags: /Ogtp
;	COMDAT ??_G?$CDynamicPoolEx@VCHeaderDecorator@NEffectUpdateDecorator@@@@UAEPAXI@Z
_TEXT	SEGMENT
___flags$ = 8						; size = 4
??_G?$CDynamicPoolEx@VCHeaderDecorator@NEffectUpdateDecorator@@@@UAEPAXI@Z PROC ; CDynamicPoolEx<NEffectUpdateDecorator::CHeaderDecorator>::`scalar deleting destructor', COMDAT
; _this$ = ecx
  00000	55		 push	 ebp
  00001	8b ec		 mov	 ebp, esp
  00003	56		 push	 esi
  00004	8b f1		 mov	 esi, ecx
  00006	e8 00 00 00 00	 call	 ??1?$CDynamicPoolEx@VCHeaderDecorator@NEffectUpdateDecorator@@@@UAE@XZ ; CDynamicPoolEx<NEffectUpdateDecorator::CHeaderDecorator>::~CDynamicPoolEx<NEffectUpdateDecorator::CHeaderDecorator>
  0000b	f6 45 08 01	 test	 BYTE PTR ___flags$[ebp], 1
  0000f	74 0b		 je	 SHORT $LN4@scalar
  00011	6a 24		 push	 36			; 00000024H
  00013	56		 push	 esi
  00014	e8 00 00 00 00	 call	 ??3@YAXPAXI@Z		; operator delete
  00019	83 c4 08	 add	 esp, 8
$LN4@scalar:
  0001c	8b c6		 mov	 eax, esi
  0001e	5e		 pop	 esi
  0001f	5d		 pop	 ebp
  00020	c2 04 00	 ret	 4
??_G?$CDynamicPoolEx@VCHeaderDecorator@NEffectUpdateDecorator@@@@UAEPAXI@Z ENDP ; CDynamicPoolEx<NEffectUpdateDecorator::CHeaderDecorator>::`scalar deleting destructor'
_TEXT	ENDS
; Function compile flags: /Ogtp
; File D:\Metin2 Server Files\mainline\SRC_2014\Metin2Client\eterLib\Pool.h
;	COMDAT ?Delete@?$CDynamicPoolEx@VCHeaderDecorator@NEffectUpdateDecorator@@@@KAXPAVCHeaderDecorator@NEffectUpdateDecorator@@@Z
_TEXT	SEGMENT
_pkData$ = 8						; size = 4
?Delete@?$CDynamicPoolEx@VCHeaderDecorator@NEffectUpdateDecorator@@@@KAXPAVCHeaderDecorator@NEffectUpdateDecorator@@@Z PROC ; CDynamicPoolEx<NEffectUpdateDecorator::CHeaderDecorator>::Delete, COMDAT

; 224  : 			::operator delete(pkData);

  00000	e9 00 00 00 00	 jmp	 ??3@YAXPAX@Z		; operator delete
?Delete@?$CDynamicPoolEx@VCHeaderDecorator@NEffectUpdateDecorator@@@@KAXPAVCHeaderDecorator@NEffectUpdateDecorator@@@Z ENDP ; CDynamicPoolEx<NEffectUpdateDecorator::CHeaderDecorator>::Delete
_TEXT	ENDS
; Function compile flags: /Ogtp
; File D:\Metin2 Server Files\mainline\SRC_2014\Metin2Client\eterLib\Pool.h
; File C:\Program Files (x86)\Microsoft Visual Studio\2019\Community\VC\Tools\MSVC\14.28.29333\include\vector
; File C:\Program Files (x86)\Microsoft Visual Studio\2019\Community\VC\Tools\MSVC\14.28.29333\include\algorithm
; File D:\Metin2 Server Files\mainline\SRC_2014\Metin2Client\eterLib\Pool.h
; File C:\Program Files (x86)\Microsoft Visual Studio\2019\Community\VC\Tools\MSVC\14.28.29333\include\algorithm
; File D:\Metin2 Server Files\mainline\SRC_2014\Metin2Client\eterLib\Pool.h
; File C:\Program Files (x86)\Microsoft Visual Studio\2019\Community\VC\Tools\MSVC\14.28.29333\include\algorithm
; File D:\Metin2 Server Files\mainline\SRC_2014\Metin2Client\eterLib\Pool.h
; File C:\Program Files (x86)\Microsoft Visual Studio\2019\Community\VC\Tools\MSVC\14.28.29333\include\vector
; File C:\Program Files (x86)\Microsoft Visual Studio\2019\Community\VC\Tools\MSVC\14.28.29333\include\xmemory
; File C:\Program Files (x86)\Microsoft Visual Studio\2019\Community\VC\Tools\MSVC\14.28.29333\include\vector
; File C:\Program Files (x86)\Microsoft Visual Studio\2019\Community\VC\Tools\MSVC\14.28.29333\include\xmemory
; File C:\Program Files (x86)\Microsoft Visual Studio\2019\Community\VC\Tools\MSVC\14.28.29333\include\vector
; File C:\Program Files (x86)\Microsoft Visual Studio\2019\Community\VC\Tools\MSVC\14.28.29333\include\xmemory
; File C:\Program Files (x86)\Microsoft Visual Studio\2019\Community\VC\Tools\MSVC\14.28.29333\include\vector
; File C:\Program Files (x86)\Microsoft Visual Studio\2019\Community\VC\Tools\MSVC\14.28.29333\include\xmemory
; File C:\Program Files (x86)\Microsoft Visual Studio\2019\Community\VC\Tools\MSVC\14.28.29333\include\vector
; File D:\Metin2 Server Files\mainline\SRC_2014\Metin2Client\eterLib\Pool.h
;	COMDAT ??1?$CDynamicPoolEx@VCHeaderDecorator@NEffectUpdateDecorator@@@@UAE@XZ
_TEXT	SEGMENT
??1?$CDynamicPoolEx@VCHeaderDecorator@NEffectUpdateDecorator@@@@UAE@XZ PROC ; CDynamicPoolEx<NEffectUpdateDecorator::CHeaderDecorator>::~CDynamicPoolEx<NEffectUpdateDecorator::CHeaderDecorator>, COMDAT
; _this$ = ecx

; 132  : 		{

  00000	53		 push	 ebx
  00001	56		 push	 esi
  00002	57		 push	 edi
  00003	8b f9		 mov	 edi, ecx
  00005	c7 07 00 00 00
	00		 mov	 DWORD PTR [edi], OFFSET ??_7?$CDynamicPoolEx@VCHeaderDecorator@NEffectUpdateDecorator@@@@6B@
; File C:\Program Files (x86)\Microsoft Visual Studio\2019\Community\VC\Tools\MSVC\14.28.29333\include\vector

; 42   :     _Vector_const_iterator(_Tptr _Parg, const _Container_base* _Pvector) noexcept : _Ptr(_Parg) {

  0000b	8b 5f 08	 mov	 ebx, DWORD PTR [edi+8]
  0000e	8b 77 04	 mov	 esi, DWORD PTR [edi+4]
; File C:\Program Files (x86)\Microsoft Visual Studio\2019\Community\VC\Tools\MSVC\14.28.29333\include\algorithm

; 307  :     for (; _UFirst != _ULast; ++_UFirst) {

  00011	3b f3		 cmp	 esi, ebx
  00013	74 14		 je	 SHORT $LN19@CDynamicPo
$LL20@CDynamicPo:
; File D:\Metin2 Server Files\mainline\SRC_2014\Metin2Client\eterLib\Pool.h

; 224  : 			::operator delete(pkData);

  00015	ff 36		 push	 DWORD PTR [esi]
  00017	e8 00 00 00 00	 call	 ??3@YAXPAX@Z		; operator delete
; File C:\Program Files (x86)\Microsoft Visual Studio\2019\Community\VC\Tools\MSVC\14.28.29333\include\algorithm

; 307  :     for (; _UFirst != _ULast; ++_UFirst) {

  0001c	83 c6 04	 add	 esi, 4
; File D:\Metin2 Server Files\mainline\SRC_2014\Metin2Client\eterLib\Pool.h

; 224  : 			::operator delete(pkData);

  0001f	83 c4 04	 add	 esp, 4
; File C:\Program Files (x86)\Microsoft Visual Studio\2019\Community\VC\Tools\MSVC\14.28.29333\include\algorithm

; 307  :     for (; _UFirst != _ULast; ++_UFirst) {

  00022	3b f3		 cmp	 esi, ebx
  00024	75 ef		 jne	 SHORT $LL20@CDynamicPo
  00026	8b 77 04	 mov	 esi, DWORD PTR [edi+4]
$LN19@CDynamicPo:
; File D:\Metin2 Server Files\mainline\SRC_2014\Metin2Client\eterLib\Pool.h

; 162  : 			m_kVct_pkFree.clear();

  00029	8b 4f 10	 mov	 ecx, DWORD PTR [edi+16]
  0002c	89 77 08	 mov	 DWORD PTR [edi+8], esi
  0002f	89 4f 14	 mov	 DWORD PTR [edi+20], ecx
; File C:\Program Files (x86)\Microsoft Visual Studio\2019\Community\VC\Tools\MSVC\14.28.29333\include\vector

; 1694 :         if (_Myfirst) { // destroy and deallocate old array

  00032	85 c9		 test	 ecx, ecx
  00034	74 27		 je	 SHORT $LN27@CDynamicPo

; 1695 :             _Destroy(_Myfirst, _Mylast);
; 1696 :             _Getal().deallocate(_Myfirst, static_cast<size_type>(_Myend - _Myfirst));

  00036	8b 47 18	 mov	 eax, DWORD PTR [edi+24]
  00039	2b c1		 sub	 eax, ecx
; File C:\Program Files (x86)\Microsoft Visual Studio\2019\Community\VC\Tools\MSVC\14.28.29333\include\xmemory

; 810  :         _Deallocate<_New_alignof<_Ty>>(_Ptr, sizeof(_Ty) * _Count);

  0003b	83 e0 fc	 and	 eax, -4			; fffffffcH
  0003e	50		 push	 eax
  0003f	51		 push	 ecx
  00040	e8 00 00 00 00	 call	 ??$_Deallocate@$07$0A@@std@@YAXPAXI@Z ; std::_Deallocate<8,0>
; File C:\Program Files (x86)\Microsoft Visual Studio\2019\Community\VC\Tools\MSVC\14.28.29333\include\vector

; 1698 :             _Myfirst = pointer();

  00045	c7 47 10 00 00
	00 00		 mov	 DWORD PTR [edi+16], 0
; File C:\Program Files (x86)\Microsoft Visual Studio\2019\Community\VC\Tools\MSVC\14.28.29333\include\xmemory

; 810  :         _Deallocate<_New_alignof<_Ty>>(_Ptr, sizeof(_Ty) * _Count);

  0004c	83 c4 08	 add	 esp, 8
; File C:\Program Files (x86)\Microsoft Visual Studio\2019\Community\VC\Tools\MSVC\14.28.29333\include\vector

; 1699 :             _Mylast  = pointer();

  0004f	c7 47 14 00 00
	00 00		 mov	 DWORD PTR [edi+20], 0

; 1700 :             _Myend   = pointer();

  00056	c7 47 18 00 00
	00 00		 mov	 DWORD PTR [edi+24], 0
$LN27@CDynamicPo:

; 1694 :         if (_Myfirst) { // destroy and deallocate old array

  0005d	8b 4f 04	 mov	 ecx, DWORD PTR [edi+4]
  00060	85 c9		 test	 ecx, ecx
  00062	74 27		 je	 SHORT $LN34@CDynamicPo

; 1695 :             _Destroy(_Myfirst, _Mylast);
; 1696 :             _Getal().deallocate(_Myfirst, static_cast<size_type>(_Myend - _Myfirst));

  00064	8b 47 0c	 mov	 eax, DWORD PTR [edi+12]
  00067	2b c1		 sub	 eax, ecx
; File C:\Program Files (x86)\Microsoft Visual Studio\2019\Community\VC\Tools\MSVC\14.28.29333\include\xmemory

; 810  :         _Deallocate<_New_alignof<_Ty>>(_Ptr, sizeof(_Ty) * _Count);

  00069	83 e0 fc	 and	 eax, -4			; fffffffcH
  0006c	50		 push	 eax
  0006d	51		 push	 ecx
  0006e	e8 00 00 00 00	 call	 ??$_Deallocate@$07$0A@@std@@YAXPAXI@Z ; std::_Deallocate<8,0>
; File C:\Program Files (x86)\Microsoft Visual Studio\2019\Community\VC\Tools\MSVC\14.28.29333\include\vector

; 1698 :             _Myfirst = pointer();

  00073	c7 47 04 00 00
	00 00		 mov	 DWORD PTR [edi+4], 0
; File C:\Program Files (x86)\Microsoft Visual Studio\2019\Community\VC\Tools\MSVC\14.28.29333\include\xmemory

; 810  :         _Deallocate<_New_alignof<_Ty>>(_Ptr, sizeof(_Ty) * _Count);

  0007a	83 c4 08	 add	 esp, 8
; File C:\Program Files (x86)\Microsoft Visual Studio\2019\Community\VC\Tools\MSVC\14.28.29333\include\vector

; 1699 :             _Mylast  = pointer();

  0007d	c7 47 08 00 00
	00 00		 mov	 DWORD PTR [edi+8], 0

; 1700 :             _Myend   = pointer();

  00084	c7 47 0c 00 00
	00 00		 mov	 DWORD PTR [edi+12], 0
$LN34@CDynamicPo:
  0008b	5f		 pop	 edi
; File D:\Metin2 Server Files\mainline\SRC_2014\Metin2Client\eterLib\Pool.h

; 142  : 		}

  0008c	5e		 pop	 esi
  0008d	5b		 pop	 ebx
  0008e	c3		 ret	 0
??1?$CDynamicPoolEx@VCHeaderDecorator@NEffectUpdateDecorator@@@@UAE@XZ ENDP ; CDynamicPoolEx<NEffectUpdateDecorator::CHeaderDecorator>::~CDynamicPoolEx<NEffectUpdateDecorator::CHeaderDecorator>
_TEXT	ENDS
; Function compile flags: /Ogtp
;	COMDAT ??_G?$CDynamicPoolEx@VCNullDecorator@NEffectUpdateDecorator@@@@UAEPAXI@Z
_TEXT	SEGMENT
___flags$ = 8						; size = 4
??_G?$CDynamicPoolEx@VCNullDecorator@NEffectUpdateDecorator@@@@UAEPAXI@Z PROC ; CDynamicPoolEx<NEffectUpdateDecorator::CNullDecorator>::`scalar deleting destructor', COMDAT
; _this$ = ecx
  00000	55		 push	 ebp
  00001	8b ec		 mov	 ebp, esp
  00003	56		 push	 esi
  00004	8b f1		 mov	 esi, ecx
  00006	e8 00 00 00 00	 call	 ??1?$CDynamicPoolEx@VCNullDecorator@NEffectUpdateDecorator@@@@UAE@XZ ; CDynamicPoolEx<NEffectUpdateDecorator::CNullDecorator>::~CDynamicPoolEx<NEffectUpdateDecorator::CNullDecorator>
  0000b	f6 45 08 01	 test	 BYTE PTR ___flags$[ebp], 1
  0000f	74 0b		 je	 SHORT $LN4@scalar
  00011	6a 24		 push	 36			; 00000024H
  00013	56		 push	 esi
  00014	e8 00 00 00 00	 call	 ??3@YAXPAXI@Z		; operator delete
  00019	83 c4 08	 add	 esp, 8
$LN4@scalar:
  0001c	8b c6		 mov	 eax, esi
  0001e	5e		 pop	 esi
  0001f	5d		 pop	 ebp
  00020	c2 04 00	 ret	 4
??_G?$CDynamicPoolEx@VCNullDecorator@NEffectUpdateDecorator@@@@UAEPAXI@Z ENDP ; CDynamicPoolEx<NEffectUpdateDecorator::CNullDecorator>::`scalar deleting destructor'
_TEXT	ENDS
; Function compile flags: /Ogtp
; File D:\Metin2 Server Files\mainline\SRC_2014\Metin2Client\eterLib\Pool.h
;	COMDAT ?Delete@?$CDynamicPoolEx@VCNullDecorator@NEffectUpdateDecorator@@@@KAXPAVCNullDecorator@NEffectUpdateDecorator@@@Z
_TEXT	SEGMENT
_pkData$ = 8						; size = 4
?Delete@?$CDynamicPoolEx@VCNullDecorator@NEffectUpdateDecorator@@@@KAXPAVCNullDecorator@NEffectUpdateDecorator@@@Z PROC ; CDynamicPoolEx<NEffectUpdateDecorator::CNullDecorator>::Delete, COMDAT

; 224  : 			::operator delete(pkData);

  00000	e9 00 00 00 00	 jmp	 ??3@YAXPAX@Z		; operator delete
?Delete@?$CDynamicPoolEx@VCNullDecorator@NEffectUpdateDecorator@@@@KAXPAVCNullDecorator@NEffectUpdateDecorator@@@Z ENDP ; CDynamicPoolEx<NEffectUpdateDecorator::CNullDecorator>::Delete
_TEXT	ENDS
; Function compile flags: /Ogtp
; File D:\Metin2 Server Files\mainline\SRC_2014\Metin2Client\eterLib\Pool.h
; File C:\Program Files (x86)\Microsoft Visual Studio\2019\Community\VC\Tools\MSVC\14.28.29333\include\vector
; File C:\Program Files (x86)\Microsoft Visual Studio\2019\Community\VC\Tools\MSVC\14.28.29333\include\algorithm
; File D:\Metin2 Server Files\mainline\SRC_2014\Metin2Client\eterLib\Pool.h
; File C:\Program Files (x86)\Microsoft Visual Studio\2019\Community\VC\Tools\MSVC\14.28.29333\include\algorithm
; File D:\Metin2 Server Files\mainline\SRC_2014\Metin2Client\eterLib\Pool.h
; File C:\Program Files (x86)\Microsoft Visual Studio\2019\Community\VC\Tools\MSVC\14.28.29333\include\algorithm
; File D:\Metin2 Server Files\mainline\SRC_2014\Metin2Client\eterLib\Pool.h
; File C:\Program Files (x86)\Microsoft Visual Studio\2019\Community\VC\Tools\MSVC\14.28.29333\include\vector
; File C:\Program Files (x86)\Microsoft Visual Studio\2019\Community\VC\Tools\MSVC\14.28.29333\include\xmemory
; File C:\Program Files (x86)\Microsoft Visual Studio\2019\Community\VC\Tools\MSVC\14.28.29333\include\vector
; File C:\Program Files (x86)\Microsoft Visual Studio\2019\Community\VC\Tools\MSVC\14.28.29333\include\xmemory
; File C:\Program Files (x86)\Microsoft Visual Studio\2019\Community\VC\Tools\MSVC\14.28.29333\include\vector
; File C:\Program Files (x86)\Microsoft Visual Studio\2019\Community\VC\Tools\MSVC\14.28.29333\include\xmemory
; File C:\Program Files (x86)\Microsoft Visual Studio\2019\Community\VC\Tools\MSVC\14.28.29333\include\vector
; File C:\Program Files (x86)\Microsoft Visual Studio\2019\Community\VC\Tools\MSVC\14.28.29333\include\xmemory
; File C:\Program Files (x86)\Microsoft Visual Studio\2019\Community\VC\Tools\MSVC\14.28.29333\include\vector
; File D:\Metin2 Server Files\mainline\SRC_2014\Metin2Client\eterLib\Pool.h
;	COMDAT ??1?$CDynamicPoolEx@VCNullDecorator@NEffectUpdateDecorator@@@@UAE@XZ
_TEXT	SEGMENT
??1?$CDynamicPoolEx@VCNullDecorator@NEffectUpdateDecorator@@@@UAE@XZ PROC ; CDynamicPoolEx<NEffectUpdateDecorator::CNullDecorator>::~CDynamicPoolEx<NEffectUpdateDecorator::CNullDecorator>, COMDAT
; _this$ = ecx

; 132  : 		{

  00000	53		 push	 ebx
  00001	56		 push	 esi
  00002	57		 push	 edi
  00003	8b f9		 mov	 edi, ecx
  00005	c7 07 00 00 00
	00		 mov	 DWORD PTR [edi], OFFSET ??_7?$CDynamicPoolEx@VCNullDecorator@NEffectUpdateDecorator@@@@6B@
; File C:\Program Files (x86)\Microsoft Visual Studio\2019\Community\VC\Tools\MSVC\14.28.29333\include\vector

; 42   :     _Vector_const_iterator(_Tptr _Parg, const _Container_base* _Pvector) noexcept : _Ptr(_Parg) {

  0000b	8b 5f 08	 mov	 ebx, DWORD PTR [edi+8]
  0000e	8b 77 04	 mov	 esi, DWORD PTR [edi+4]
; File C:\Program Files (x86)\Microsoft Visual Studio\2019\Community\VC\Tools\MSVC\14.28.29333\include\algorithm

; 307  :     for (; _UFirst != _ULast; ++_UFirst) {

  00011	3b f3		 cmp	 esi, ebx
  00013	74 14		 je	 SHORT $LN19@CDynamicPo
$LL20@CDynamicPo:
; File D:\Metin2 Server Files\mainline\SRC_2014\Metin2Client\eterLib\Pool.h

; 224  : 			::operator delete(pkData);

  00015	ff 36		 push	 DWORD PTR [esi]
  00017	e8 00 00 00 00	 call	 ??3@YAXPAX@Z		; operator delete
; File C:\Program Files (x86)\Microsoft Visual Studio\2019\Community\VC\Tools\MSVC\14.28.29333\include\algorithm

; 307  :     for (; _UFirst != _ULast; ++_UFirst) {

  0001c	83 c6 04	 add	 esi, 4
; File D:\Metin2 Server Files\mainline\SRC_2014\Metin2Client\eterLib\Pool.h

; 224  : 			::operator delete(pkData);

  0001f	83 c4 04	 add	 esp, 4
; File C:\Program Files (x86)\Microsoft Visual Studio\2019\Community\VC\Tools\MSVC\14.28.29333\include\algorithm

; 307  :     for (; _UFirst != _ULast; ++_UFirst) {

  00022	3b f3		 cmp	 esi, ebx
  00024	75 ef		 jne	 SHORT $LL20@CDynamicPo
  00026	8b 77 04	 mov	 esi, DWORD PTR [edi+4]
$LN19@CDynamicPo:
; File D:\Metin2 Server Files\mainline\SRC_2014\Metin2Client\eterLib\Pool.h

; 162  : 			m_kVct_pkFree.clear();

  00029	8b 4f 10	 mov	 ecx, DWORD PTR [edi+16]
  0002c	89 77 08	 mov	 DWORD PTR [edi+8], esi
  0002f	89 4f 14	 mov	 DWORD PTR [edi+20], ecx
; File C:\Program Files (x86)\Microsoft Visual Studio\2019\Community\VC\Tools\MSVC\14.28.29333\include\vector

; 1694 :         if (_Myfirst) { // destroy and deallocate old array

  00032	85 c9		 test	 ecx, ecx
  00034	74 27		 je	 SHORT $LN27@CDynamicPo

; 1695 :             _Destroy(_Myfirst, _Mylast);
; 1696 :             _Getal().deallocate(_Myfirst, static_cast<size_type>(_Myend - _Myfirst));

  00036	8b 47 18	 mov	 eax, DWORD PTR [edi+24]
  00039	2b c1		 sub	 eax, ecx
; File C:\Program Files (x86)\Microsoft Visual Studio\2019\Community\VC\Tools\MSVC\14.28.29333\include\xmemory

; 810  :         _Deallocate<_New_alignof<_Ty>>(_Ptr, sizeof(_Ty) * _Count);

  0003b	83 e0 fc	 and	 eax, -4			; fffffffcH
  0003e	50		 push	 eax
  0003f	51		 push	 ecx
  00040	e8 00 00 00 00	 call	 ??$_Deallocate@$07$0A@@std@@YAXPAXI@Z ; std::_Deallocate<8,0>
; File C:\Program Files (x86)\Microsoft Visual Studio\2019\Community\VC\Tools\MSVC\14.28.29333\include\vector

; 1698 :             _Myfirst = pointer();

  00045	c7 47 10 00 00
	00 00		 mov	 DWORD PTR [edi+16], 0
; File C:\Program Files (x86)\Microsoft Visual Studio\2019\Community\VC\Tools\MSVC\14.28.29333\include\xmemory

; 810  :         _Deallocate<_New_alignof<_Ty>>(_Ptr, sizeof(_Ty) * _Count);

  0004c	83 c4 08	 add	 esp, 8
; File C:\Program Files (x86)\Microsoft Visual Studio\2019\Community\VC\Tools\MSVC\14.28.29333\include\vector

; 1699 :             _Mylast  = pointer();

  0004f	c7 47 14 00 00
	00 00		 mov	 DWORD PTR [edi+20], 0

; 1700 :             _Myend   = pointer();

  00056	c7 47 18 00 00
	00 00		 mov	 DWORD PTR [edi+24], 0
$LN27@CDynamicPo:

; 1694 :         if (_Myfirst) { // destroy and deallocate old array

  0005d	8b 4f 04	 mov	 ecx, DWORD PTR [edi+4]
  00060	85 c9		 test	 ecx, ecx
  00062	74 27		 je	 SHORT $LN34@CDynamicPo

; 1695 :             _Destroy(_Myfirst, _Mylast);
; 1696 :             _Getal().deallocate(_Myfirst, static_cast<size_type>(_Myend - _Myfirst));

  00064	8b 47 0c	 mov	 eax, DWORD PTR [edi+12]
  00067	2b c1		 sub	 eax, ecx
; File C:\Program Files (x86)\Microsoft Visual Studio\2019\Community\VC\Tools\MSVC\14.28.29333\include\xmemory

; 810  :         _Deallocate<_New_alignof<_Ty>>(_Ptr, sizeof(_Ty) * _Count);

  00069	83 e0 fc	 and	 eax, -4			; fffffffcH
  0006c	50		 push	 eax
  0006d	51		 push	 ecx
  0006e	e8 00 00 00 00	 call	 ??$_Deallocate@$07$0A@@std@@YAXPAXI@Z ; std::_Deallocate<8,0>
; File C:\Program Files (x86)\Microsoft Visual Studio\2019\Community\VC\Tools\MSVC\14.28.29333\include\vector

; 1698 :             _Myfirst = pointer();

  00073	c7 47 04 00 00
	00 00		 mov	 DWORD PTR [edi+4], 0
; File C:\Program Files (x86)\Microsoft Visual Studio\2019\Community\VC\Tools\MSVC\14.28.29333\include\xmemory

; 810  :         _Deallocate<_New_alignof<_Ty>>(_Ptr, sizeof(_Ty) * _Count);

  0007a	83 c4 08	 add	 esp, 8
; File C:\Program Files (x86)\Microsoft Visual Studio\2019\Community\VC\Tools\MSVC\14.28.29333\include\vector

; 1699 :             _Mylast  = pointer();

  0007d	c7 47 08 00 00
	00 00		 mov	 DWORD PTR [edi+8], 0

; 1700 :             _Myend   = pointer();

  00084	c7 47 0c 00 00
	00 00		 mov	 DWORD PTR [edi+12], 0
$LN34@CDynamicPo:
  0008b	5f		 pop	 edi
; File D:\Metin2 Server Files\mainline\SRC_2014\Metin2Client\eterLib\Pool.h

; 142  : 		}

  0008c	5e		 pop	 esi
  0008d	5b		 pop	 ebx
  0008e	c3		 ret	 0
??1?$CDynamicPoolEx@VCNullDecorator@NEffectUpdateDecorator@@@@UAE@XZ ENDP ; CDynamicPoolEx<NEffectUpdateDecorator::CNullDecorator>::~CDynamicPoolEx<NEffectUpdateDecorator::CNullDecorator>
_TEXT	ENDS
; Function compile flags: /Ogtp
;	COMDAT ??_G?$CDynamicPoolEx@VCTextureAnimationCWDecorator@NEffectUpdateDecorator@@@@UAEPAXI@Z
_TEXT	SEGMENT
___flags$ = 8						; size = 4
??_G?$CDynamicPoolEx@VCTextureAnimationCWDecorator@NEffectUpdateDecorator@@@@UAEPAXI@Z PROC ; CDynamicPoolEx<NEffectUpdateDecorator::CTextureAnimationCWDecorator>::`scalar deleting destructor', COMDAT
; _this$ = ecx
  00000	55		 push	 ebp
  00001	8b ec		 mov	 ebp, esp
  00003	56		 push	 esi
  00004	8b f1		 mov	 esi, ecx
  00006	e8 00 00 00 00	 call	 ??1?$CDynamicPoolEx@VCTextureAnimationCWDecorator@NEffectUpdateDecorator@@@@UAE@XZ ; CDynamicPoolEx<NEffectUpdateDecorator::CTextureAnimationCWDecorator>::~CDynamicPoolEx<NEffectUpdateDecorator::CTextureAnimationCWDecorator>
  0000b	f6 45 08 01	 test	 BYTE PTR ___flags$[ebp], 1
  0000f	74 0b		 je	 SHORT $LN4@scalar
  00011	6a 24		 push	 36			; 00000024H
  00013	56		 push	 esi
  00014	e8 00 00 00 00	 call	 ??3@YAXPAXI@Z		; operator delete
  00019	83 c4 08	 add	 esp, 8
$LN4@scalar:
  0001c	8b c6		 mov	 eax, esi
  0001e	5e		 pop	 esi
  0001f	5d		 pop	 ebp
  00020	c2 04 00	 ret	 4
??_G?$CDynamicPoolEx@VCTextureAnimationCWDecorator@NEffectUpdateDecorator@@@@UAEPAXI@Z ENDP ; CDynamicPoolEx<NEffectUpdateDecorator::CTextureAnimationCWDecorator>::`scalar deleting destructor'
_TEXT	ENDS
; Function compile flags: /Ogtp
; File D:\Metin2 Server Files\mainline\SRC_2014\Metin2Client\eterLib\Pool.h
;	COMDAT ?Delete@?$CDynamicPoolEx@VCTextureAnimationCWDecorator@NEffectUpdateDecorator@@@@KAXPAVCTextureAnimationCWDecorator@NEffectUpdateDecorator@@@Z
_TEXT	SEGMENT
_pkData$ = 8						; size = 4
?Delete@?$CDynamicPoolEx@VCTextureAnimationCWDecorator@NEffectUpdateDecorator@@@@KAXPAVCTextureAnimationCWDecorator@NEffectUpdateDecorator@@@Z PROC ; CDynamicPoolEx<NEffectUpdateDecorator::CTextureAnimationCWDecorator>::Delete, COMDAT

; 224  : 			::operator delete(pkData);

  00000	e9 00 00 00 00	 jmp	 ??3@YAXPAX@Z		; operator delete
?Delete@?$CDynamicPoolEx@VCTextureAnimationCWDecorator@NEffectUpdateDecorator@@@@KAXPAVCTextureAnimationCWDecorator@NEffectUpdateDecorator@@@Z ENDP ; CDynamicPoolEx<NEffectUpdateDecorator::CTextureAnimationCWDecorator>::Delete
_TEXT	ENDS
; Function compile flags: /Ogtp
; File D:\Metin2 Server Files\mainline\SRC_2014\Metin2Client\eterLib\Pool.h
; File C:\Program Files (x86)\Microsoft Visual Studio\2019\Community\VC\Tools\MSVC\14.28.29333\include\vector
; File C:\Program Files (x86)\Microsoft Visual Studio\2019\Community\VC\Tools\MSVC\14.28.29333\include\algorithm
; File D:\Metin2 Server Files\mainline\SRC_2014\Metin2Client\eterLib\Pool.h
; File C:\Program Files (x86)\Microsoft Visual Studio\2019\Community\VC\Tools\MSVC\14.28.29333\include\algorithm
; File D:\Metin2 Server Files\mainline\SRC_2014\Metin2Client\eterLib\Pool.h
; File C:\Program Files (x86)\Microsoft Visual Studio\2019\Community\VC\Tools\MSVC\14.28.29333\include\algorithm
; File D:\Metin2 Server Files\mainline\SRC_2014\Metin2Client\eterLib\Pool.h
; File C:\Program Files (x86)\Microsoft Visual Studio\2019\Community\VC\Tools\MSVC\14.28.29333\include\vector
; File C:\Program Files (x86)\Microsoft Visual Studio\2019\Community\VC\Tools\MSVC\14.28.29333\include\xmemory
; File C:\Program Files (x86)\Microsoft Visual Studio\2019\Community\VC\Tools\MSVC\14.28.29333\include\vector
; File C:\Program Files (x86)\Microsoft Visual Studio\2019\Community\VC\Tools\MSVC\14.28.29333\include\xmemory
; File C:\Program Files (x86)\Microsoft Visual Studio\2019\Community\VC\Tools\MSVC\14.28.29333\include\vector
; File C:\Program Files (x86)\Microsoft Visual Studio\2019\Community\VC\Tools\MSVC\14.28.29333\include\xmemory
; File C:\Program Files (x86)\Microsoft Visual Studio\2019\Community\VC\Tools\MSVC\14.28.29333\include\vector
; File C:\Program Files (x86)\Microsoft Visual Studio\2019\Community\VC\Tools\MSVC\14.28.29333\include\xmemory
; File C:\Program Files (x86)\Microsoft Visual Studio\2019\Community\VC\Tools\MSVC\14.28.29333\include\vector
; File D:\Metin2 Server Files\mainline\SRC_2014\Metin2Client\eterLib\Pool.h
;	COMDAT ??1?$CDynamicPoolEx@VCTextureAnimationCWDecorator@NEffectUpdateDecorator@@@@UAE@XZ
_TEXT	SEGMENT
??1?$CDynamicPoolEx@VCTextureAnimationCWDecorator@NEffectUpdateDecorator@@@@UAE@XZ PROC ; CDynamicPoolEx<NEffectUpdateDecorator::CTextureAnimationCWDecorator>::~CDynamicPoolEx<NEffectUpdateDecorator::CTextureAnimationCWDecorator>, COMDAT
; _this$ = ecx

; 132  : 		{

  00000	53		 push	 ebx
  00001	56		 push	 esi
  00002	57		 push	 edi
  00003	8b f9		 mov	 edi, ecx
  00005	c7 07 00 00 00
	00		 mov	 DWORD PTR [edi], OFFSET ??_7?$CDynamicPoolEx@VCTextureAnimationCWDecorator@NEffectUpdateDecorator@@@@6B@
; File C:\Program Files (x86)\Microsoft Visual Studio\2019\Community\VC\Tools\MSVC\14.28.29333\include\vector

; 42   :     _Vector_const_iterator(_Tptr _Parg, const _Container_base* _Pvector) noexcept : _Ptr(_Parg) {

  0000b	8b 5f 08	 mov	 ebx, DWORD PTR [edi+8]
  0000e	8b 77 04	 mov	 esi, DWORD PTR [edi+4]
; File C:\Program Files (x86)\Microsoft Visual Studio\2019\Community\VC\Tools\MSVC\14.28.29333\include\algorithm

; 307  :     for (; _UFirst != _ULast; ++_UFirst) {

  00011	3b f3		 cmp	 esi, ebx
  00013	74 14		 je	 SHORT $LN19@CDynamicPo
$LL20@CDynamicPo:
; File D:\Metin2 Server Files\mainline\SRC_2014\Metin2Client\eterLib\Pool.h

; 224  : 			::operator delete(pkData);

  00015	ff 36		 push	 DWORD PTR [esi]
  00017	e8 00 00 00 00	 call	 ??3@YAXPAX@Z		; operator delete
; File C:\Program Files (x86)\Microsoft Visual Studio\2019\Community\VC\Tools\MSVC\14.28.29333\include\algorithm

; 307  :     for (; _UFirst != _ULast; ++_UFirst) {

  0001c	83 c6 04	 add	 esi, 4
; File D:\Metin2 Server Files\mainline\SRC_2014\Metin2Client\eterLib\Pool.h

; 224  : 			::operator delete(pkData);

  0001f	83 c4 04	 add	 esp, 4
; File C:\Program Files (x86)\Microsoft Visual Studio\2019\Community\VC\Tools\MSVC\14.28.29333\include\algorithm

; 307  :     for (; _UFirst != _ULast; ++_UFirst) {

  00022	3b f3		 cmp	 esi, ebx
  00024	75 ef		 jne	 SHORT $LL20@CDynamicPo
  00026	8b 77 04	 mov	 esi, DWORD PTR [edi+4]
$LN19@CDynamicPo:
; File D:\Metin2 Server Files\mainline\SRC_2014\Metin2Client\eterLib\Pool.h

; 162  : 			m_kVct_pkFree.clear();

  00029	8b 4f 10	 mov	 ecx, DWORD PTR [edi+16]
  0002c	89 77 08	 mov	 DWORD PTR [edi+8], esi
  0002f	89 4f 14	 mov	 DWORD PTR [edi+20], ecx
; File C:\Program Files (x86)\Microsoft Visual Studio\2019\Community\VC\Tools\MSVC\14.28.29333\include\vector

; 1694 :         if (_Myfirst) { // destroy and deallocate old array

  00032	85 c9		 test	 ecx, ecx
  00034	74 27		 je	 SHORT $LN27@CDynamicPo

; 1695 :             _Destroy(_Myfirst, _Mylast);
; 1696 :             _Getal().deallocate(_Myfirst, static_cast<size_type>(_Myend - _Myfirst));

  00036	8b 47 18	 mov	 eax, DWORD PTR [edi+24]
  00039	2b c1		 sub	 eax, ecx
; File C:\Program Files (x86)\Microsoft Visual Studio\2019\Community\VC\Tools\MSVC\14.28.29333\include\xmemory

; 810  :         _Deallocate<_New_alignof<_Ty>>(_Ptr, sizeof(_Ty) * _Count);

  0003b	83 e0 fc	 and	 eax, -4			; fffffffcH
  0003e	50		 push	 eax
  0003f	51		 push	 ecx
  00040	e8 00 00 00 00	 call	 ??$_Deallocate@$07$0A@@std@@YAXPAXI@Z ; std::_Deallocate<8,0>
; File C:\Program Files (x86)\Microsoft Visual Studio\2019\Community\VC\Tools\MSVC\14.28.29333\include\vector

; 1698 :             _Myfirst = pointer();

  00045	c7 47 10 00 00
	00 00		 mov	 DWORD PTR [edi+16], 0
; File C:\Program Files (x86)\Microsoft Visual Studio\2019\Community\VC\Tools\MSVC\14.28.29333\include\xmemory

; 810  :         _Deallocate<_New_alignof<_Ty>>(_Ptr, sizeof(_Ty) * _Count);

  0004c	83 c4 08	 add	 esp, 8
; File C:\Program Files (x86)\Microsoft Visual Studio\2019\Community\VC\Tools\MSVC\14.28.29333\include\vector

; 1699 :             _Mylast  = pointer();

  0004f	c7 47 14 00 00
	00 00		 mov	 DWORD PTR [edi+20], 0

; 1700 :             _Myend   = pointer();

  00056	c7 47 18 00 00
	00 00		 mov	 DWORD PTR [edi+24], 0
$LN27@CDynamicPo:

; 1694 :         if (_Myfirst) { // destroy and deallocate old array

  0005d	8b 4f 04	 mov	 ecx, DWORD PTR [edi+4]
  00060	85 c9		 test	 ecx, ecx
  00062	74 27		 je	 SHORT $LN34@CDynamicPo

; 1695 :             _Destroy(_Myfirst, _Mylast);
; 1696 :             _Getal().deallocate(_Myfirst, static_cast<size_type>(_Myend - _Myfirst));

  00064	8b 47 0c	 mov	 eax, DWORD PTR [edi+12]
  00067	2b c1		 sub	 eax, ecx
; File C:\Program Files (x86)\Microsoft Visual Studio\2019\Community\VC\Tools\MSVC\14.28.29333\include\xmemory

; 810  :         _Deallocate<_New_alignof<_Ty>>(_Ptr, sizeof(_Ty) * _Count);

  00069	83 e0 fc	 and	 eax, -4			; fffffffcH
  0006c	50		 push	 eax
  0006d	51		 push	 ecx
  0006e	e8 00 00 00 00	 call	 ??$_Deallocate@$07$0A@@std@@YAXPAXI@Z ; std::_Deallocate<8,0>
; File C:\Program Files (x86)\Microsoft Visual Studio\2019\Community\VC\Tools\MSVC\14.28.29333\include\vector

; 1698 :             _Myfirst = pointer();

  00073	c7 47 04 00 00
	00 00		 mov	 DWORD PTR [edi+4], 0
; File C:\Program Files (x86)\Microsoft Visual Studio\2019\Community\VC\Tools\MSVC\14.28.29333\include\xmemory

; 810  :         _Deallocate<_New_alignof<_Ty>>(_Ptr, sizeof(_Ty) * _Count);

  0007a	83 c4 08	 add	 esp, 8
; File C:\Program Files (x86)\Microsoft Visual Studio\2019\Community\VC\Tools\MSVC\14.28.29333\include\vector

; 1699 :             _Mylast  = pointer();

  0007d	c7 47 08 00 00
	00 00		 mov	 DWORD PTR [edi+8], 0

; 1700 :             _Myend   = pointer();

  00084	c7 47 0c 00 00
	00 00		 mov	 DWORD PTR [edi+12], 0
$LN34@CDynamicPo:
  0008b	5f		 pop	 edi
; File D:\Metin2 Server Files\mainline\SRC_2014\Metin2Client\eterLib\Pool.h

; 142  : 		}

  0008c	5e		 pop	 esi
  0008d	5b		 pop	 ebx
  0008e	c3		 ret	 0
??1?$CDynamicPoolEx@VCTextureAnimationCWDecorator@NEffectUpdateDecorator@@@@UAE@XZ ENDP ; CDynamicPoolEx<NEffectUpdateDecorator::CTextureAnimationCWDecorator>::~CDynamicPoolEx<NEffectUpdateDecorator::CTextureAnimationCWDecorator>
_TEXT	ENDS
; Function compile flags: /Ogtp
;	COMDAT ??_G?$CDynamicPoolEx@VCTextureAnimationCCWDecorator@NEffectUpdateDecorator@@@@UAEPAXI@Z
_TEXT	SEGMENT
___flags$ = 8						; size = 4
??_G?$CDynamicPoolEx@VCTextureAnimationCCWDecorator@NEffectUpdateDecorator@@@@UAEPAXI@Z PROC ; CDynamicPoolEx<NEffectUpdateDecorator::CTextureAnimationCCWDecorator>::`scalar deleting destructor', COMDAT
; _this$ = ecx
  00000	55		 push	 ebp
  00001	8b ec		 mov	 ebp, esp
  00003	56		 push	 esi
  00004	8b f1		 mov	 esi, ecx
  00006	e8 00 00 00 00	 call	 ??1?$CDynamicPoolEx@VCTextureAnimationCCWDecorator@NEffectUpdateDecorator@@@@UAE@XZ ; CDynamicPoolEx<NEffectUpdateDecorator::CTextureAnimationCCWDecorator>::~CDynamicPoolEx<NEffectUpdateDecorator::CTextureAnimationCCWDecorator>
  0000b	f6 45 08 01	 test	 BYTE PTR ___flags$[ebp], 1
  0000f	74 0b		 je	 SHORT $LN4@scalar
  00011	6a 24		 push	 36			; 00000024H
  00013	56		 push	 esi
  00014	e8 00 00 00 00	 call	 ??3@YAXPAXI@Z		; operator delete
  00019	83 c4 08	 add	 esp, 8
$LN4@scalar:
  0001c	8b c6		 mov	 eax, esi
  0001e	5e		 pop	 esi
  0001f	5d		 pop	 ebp
  00020	c2 04 00	 ret	 4
??_G?$CDynamicPoolEx@VCTextureAnimationCCWDecorator@NEffectUpdateDecorator@@@@UAEPAXI@Z ENDP ; CDynamicPoolEx<NEffectUpdateDecorator::CTextureAnimationCCWDecorator>::`scalar deleting destructor'
_TEXT	ENDS
; Function compile flags: /Ogtp
; File D:\Metin2 Server Files\mainline\SRC_2014\Metin2Client\eterLib\Pool.h
;	COMDAT ?Delete@?$CDynamicPoolEx@VCTextureAnimationCCWDecorator@NEffectUpdateDecorator@@@@KAXPAVCTextureAnimationCCWDecorator@NEffectUpdateDecorator@@@Z
_TEXT	SEGMENT
_pkData$ = 8						; size = 4
?Delete@?$CDynamicPoolEx@VCTextureAnimationCCWDecorator@NEffectUpdateDecorator@@@@KAXPAVCTextureAnimationCCWDecorator@NEffectUpdateDecorator@@@Z PROC ; CDynamicPoolEx<NEffectUpdateDecorator::CTextureAnimationCCWDecorator>::Delete, COMDAT

; 224  : 			::operator delete(pkData);

  00000	e9 00 00 00 00	 jmp	 ??3@YAXPAX@Z		; operator delete
?Delete@?$CDynamicPoolEx@VCTextureAnimationCCWDecorator@NEffectUpdateDecorator@@@@KAXPAVCTextureAnimationCCWDecorator@NEffectUpdateDecorator@@@Z ENDP ; CDynamicPoolEx<NEffectUpdateDecorator::CTextureAnimationCCWDecorator>::Delete
_TEXT	ENDS
; Function compile flags: /Ogtp
; File D:\Metin2 Server Files\mainline\SRC_2014\Metin2Client\eterLib\Pool.h
; File C:\Program Files (x86)\Microsoft Visual Studio\2019\Community\VC\Tools\MSVC\14.28.29333\include\vector
; File C:\Program Files (x86)\Microsoft Visual Studio\2019\Community\VC\Tools\MSVC\14.28.29333\include\algorithm
; File D:\Metin2 Server Files\mainline\SRC_2014\Metin2Client\eterLib\Pool.h
; File C:\Program Files (x86)\Microsoft Visual Studio\2019\Community\VC\Tools\MSVC\14.28.29333\include\algorithm
; File D:\Metin2 Server Files\mainline\SRC_2014\Metin2Client\eterLib\Pool.h
; File C:\Program Files (x86)\Microsoft Visual Studio\2019\Community\VC\Tools\MSVC\14.28.29333\include\algorithm
; File D:\Metin2 Server Files\mainline\SRC_2014\Metin2Client\eterLib\Pool.h
; File C:\Program Files (x86)\Microsoft Visual Studio\2019\Community\VC\Tools\MSVC\14.28.29333\include\vector
; File C:\Program Files (x86)\Microsoft Visual Studio\2019\Community\VC\Tools\MSVC\14.28.29333\include\xmemory
; File C:\Program Files (x86)\Microsoft Visual Studio\2019\Community\VC\Tools\MSVC\14.28.29333\include\vector
; File C:\Program Files (x86)\Microsoft Visual Studio\2019\Community\VC\Tools\MSVC\14.28.29333\include\xmemory
; File C:\Program Files (x86)\Microsoft Visual Studio\2019\Community\VC\Tools\MSVC\14.28.29333\include\vector
; File C:\Program Files (x86)\Microsoft Visual Studio\2019\Community\VC\Tools\MSVC\14.28.29333\include\xmemory
; File C:\Program Files (x86)\Microsoft Visual Studio\2019\Community\VC\Tools\MSVC\14.28.29333\include\vector
; File C:\Program Files (x86)\Microsoft Visual Studio\2019\Community\VC\Tools\MSVC\14.28.29333\include\xmemory
; File C:\Program Files (x86)\Microsoft Visual Studio\2019\Community\VC\Tools\MSVC\14.28.29333\include\vector
; File D:\Metin2 Server Files\mainline\SRC_2014\Metin2Client\eterLib\Pool.h
;	COMDAT ??1?$CDynamicPoolEx@VCTextureAnimationCCWDecorator@NEffectUpdateDecorator@@@@UAE@XZ
_TEXT	SEGMENT
??1?$CDynamicPoolEx@VCTextureAnimationCCWDecorator@NEffectUpdateDecorator@@@@UAE@XZ PROC ; CDynamicPoolEx<NEffectUpdateDecorator::CTextureAnimationCCWDecorator>::~CDynamicPoolEx<NEffectUpdateDecorator::CTextureAnimationCCWDecorator>, COMDAT
; _this$ = ecx

; 132  : 		{

  00000	53		 push	 ebx
  00001	56		 push	 esi
  00002	57		 push	 edi
  00003	8b f9		 mov	 edi, ecx
  00005	c7 07 00 00 00
	00		 mov	 DWORD PTR [edi], OFFSET ??_7?$CDynamicPoolEx@VCTextureAnimationCCWDecorator@NEffectUpdateDecorator@@@@6B@
; File C:\Program Files (x86)\Microsoft Visual Studio\2019\Community\VC\Tools\MSVC\14.28.29333\include\vector

; 42   :     _Vector_const_iterator(_Tptr _Parg, const _Container_base* _Pvector) noexcept : _Ptr(_Parg) {

  0000b	8b 5f 08	 mov	 ebx, DWORD PTR [edi+8]
  0000e	8b 77 04	 mov	 esi, DWORD PTR [edi+4]
; File C:\Program Files (x86)\Microsoft Visual Studio\2019\Community\VC\Tools\MSVC\14.28.29333\include\algorithm

; 307  :     for (; _UFirst != _ULast; ++_UFirst) {

  00011	3b f3		 cmp	 esi, ebx
  00013	74 14		 je	 SHORT $LN19@CDynamicPo
$LL20@CDynamicPo:
; File D:\Metin2 Server Files\mainline\SRC_2014\Metin2Client\eterLib\Pool.h

; 224  : 			::operator delete(pkData);

  00015	ff 36		 push	 DWORD PTR [esi]
  00017	e8 00 00 00 00	 call	 ??3@YAXPAX@Z		; operator delete
; File C:\Program Files (x86)\Microsoft Visual Studio\2019\Community\VC\Tools\MSVC\14.28.29333\include\algorithm

; 307  :     for (; _UFirst != _ULast; ++_UFirst) {

  0001c	83 c6 04	 add	 esi, 4
; File D:\Metin2 Server Files\mainline\SRC_2014\Metin2Client\eterLib\Pool.h

; 224  : 			::operator delete(pkData);

  0001f	83 c4 04	 add	 esp, 4
; File C:\Program Files (x86)\Microsoft Visual Studio\2019\Community\VC\Tools\MSVC\14.28.29333\include\algorithm

; 307  :     for (; _UFirst != _ULast; ++_UFirst) {

  00022	3b f3		 cmp	 esi, ebx
  00024	75 ef		 jne	 SHORT $LL20@CDynamicPo
  00026	8b 77 04	 mov	 esi, DWORD PTR [edi+4]
$LN19@CDynamicPo:
; File D:\Metin2 Server Files\mainline\SRC_2014\Metin2Client\eterLib\Pool.h

; 162  : 			m_kVct_pkFree.clear();

  00029	8b 4f 10	 mov	 ecx, DWORD PTR [edi+16]
  0002c	89 77 08	 mov	 DWORD PTR [edi+8], esi
  0002f	89 4f 14	 mov	 DWORD PTR [edi+20], ecx
; File C:\Program Files (x86)\Microsoft Visual Studio\2019\Community\VC\Tools\MSVC\14.28.29333\include\vector

; 1694 :         if (_Myfirst) { // destroy and deallocate old array

  00032	85 c9		 test	 ecx, ecx
  00034	74 27		 je	 SHORT $LN27@CDynamicPo

; 1695 :             _Destroy(_Myfirst, _Mylast);
; 1696 :             _Getal().deallocate(_Myfirst, static_cast<size_type>(_Myend - _Myfirst));

  00036	8b 47 18	 mov	 eax, DWORD PTR [edi+24]
  00039	2b c1		 sub	 eax, ecx
; File C:\Program Files (x86)\Microsoft Visual Studio\2019\Community\VC\Tools\MSVC\14.28.29333\include\xmemory

; 810  :         _Deallocate<_New_alignof<_Ty>>(_Ptr, sizeof(_Ty) * _Count);

  0003b	83 e0 fc	 and	 eax, -4			; fffffffcH
  0003e	50		 push	 eax
  0003f	51		 push	 ecx
  00040	e8 00 00 00 00	 call	 ??$_Deallocate@$07$0A@@std@@YAXPAXI@Z ; std::_Deallocate<8,0>
; File C:\Program Files (x86)\Microsoft Visual Studio\2019\Community\VC\Tools\MSVC\14.28.29333\include\vector

; 1698 :             _Myfirst = pointer();

  00045	c7 47 10 00 00
	00 00		 mov	 DWORD PTR [edi+16], 0
; File C:\Program Files (x86)\Microsoft Visual Studio\2019\Community\VC\Tools\MSVC\14.28.29333\include\xmemory

; 810  :         _Deallocate<_New_alignof<_Ty>>(_Ptr, sizeof(_Ty) * _Count);

  0004c	83 c4 08	 add	 esp, 8
; File C:\Program Files (x86)\Microsoft Visual Studio\2019\Community\VC\Tools\MSVC\14.28.29333\include\vector

; 1699 :             _Mylast  = pointer();

  0004f	c7 47 14 00 00
	00 00		 mov	 DWORD PTR [edi+20], 0

; 1700 :             _Myend   = pointer();

  00056	c7 47 18 00 00
	00 00		 mov	 DWORD PTR [edi+24], 0
$LN27@CDynamicPo:

; 1694 :         if (_Myfirst) { // destroy and deallocate old array

  0005d	8b 4f 04	 mov	 ecx, DWORD PTR [edi+4]
  00060	85 c9		 test	 ecx, ecx
  00062	74 27		 je	 SHORT $LN34@CDynamicPo

; 1695 :             _Destroy(_Myfirst, _Mylast);
; 1696 :             _Getal().deallocate(_Myfirst, static_cast<size_type>(_Myend - _Myfirst));

  00064	8b 47 0c	 mov	 eax, DWORD PTR [edi+12]
  00067	2b c1		 sub	 eax, ecx
; File C:\Program Files (x86)\Microsoft Visual Studio\2019\Community\VC\Tools\MSVC\14.28.29333\include\xmemory

; 810  :         _Deallocate<_New_alignof<_Ty>>(_Ptr, sizeof(_Ty) * _Count);

  00069	83 e0 fc	 and	 eax, -4			; fffffffcH
  0006c	50		 push	 eax
  0006d	51		 push	 ecx
  0006e	e8 00 00 00 00	 call	 ??$_Deallocate@$07$0A@@std@@YAXPAXI@Z ; std::_Deallocate<8,0>
; File C:\Program Files (x86)\Microsoft Visual Studio\2019\Community\VC\Tools\MSVC\14.28.29333\include\vector

; 1698 :             _Myfirst = pointer();

  00073	c7 47 04 00 00
	00 00		 mov	 DWORD PTR [edi+4], 0
; File C:\Program Files (x86)\Microsoft Visual Studio\2019\Community\VC\Tools\MSVC\14.28.29333\include\xmemory

; 810  :         _Deallocate<_New_alignof<_Ty>>(_Ptr, sizeof(_Ty) * _Count);

  0007a	83 c4 08	 add	 esp, 8
; File C:\Program Files (x86)\Microsoft Visual Studio\2019\Community\VC\Tools\MSVC\14.28.29333\include\vector

; 1699 :             _Mylast  = pointer();

  0007d	c7 47 08 00 00
	00 00		 mov	 DWORD PTR [edi+8], 0

; 1700 :             _Myend   = pointer();

  00084	c7 47 0c 00 00
	00 00		 mov	 DWORD PTR [edi+12], 0
$LN34@CDynamicPo:
  0008b	5f		 pop	 edi
; File D:\Metin2 Server Files\mainline\SRC_2014\Metin2Client\eterLib\Pool.h

; 142  : 		}

  0008c	5e		 pop	 esi
  0008d	5b		 pop	 ebx
  0008e	c3		 ret	 0
??1?$CDynamicPoolEx@VCTextureAnimationCCWDecorator@NEffectUpdateDecorator@@@@UAE@XZ ENDP ; CDynamicPoolEx<NEffectUpdateDecorator::CTextureAnimationCCWDecorator>::~CDynamicPoolEx<NEffectUpdateDecorator::CTextureAnimationCCWDecorator>
_TEXT	ENDS
; Function compile flags: /Ogtp
;	COMDAT ??_G?$CDynamicPoolEx@VCTextureAnimationRandomDecorator@NEffectUpdateDecorator@@@@UAEPAXI@Z
_TEXT	SEGMENT
___flags$ = 8						; size = 4
??_G?$CDynamicPoolEx@VCTextureAnimationRandomDecorator@NEffectUpdateDecorator@@@@UAEPAXI@Z PROC ; CDynamicPoolEx<NEffectUpdateDecorator::CTextureAnimationRandomDecorator>::`scalar deleting destructor', COMDAT
; _this$ = ecx
  00000	55		 push	 ebp
  00001	8b ec		 mov	 ebp, esp
  00003	56		 push	 esi
  00004	8b f1		 mov	 esi, ecx
  00006	e8 00 00 00 00	 call	 ??1?$CDynamicPoolEx@VCTextureAnimationRandomDecorator@NEffectUpdateDecorator@@@@UAE@XZ ; CDynamicPoolEx<NEffectUpdateDecorator::CTextureAnimationRandomDecorator>::~CDynamicPoolEx<NEffectUpdateDecorator::CTextureAnimationRandomDecorator>
  0000b	f6 45 08 01	 test	 BYTE PTR ___flags$[ebp], 1
  0000f	74 0b		 je	 SHORT $LN4@scalar
  00011	6a 24		 push	 36			; 00000024H
  00013	56		 push	 esi
  00014	e8 00 00 00 00	 call	 ??3@YAXPAXI@Z		; operator delete
  00019	83 c4 08	 add	 esp, 8
$LN4@scalar:
  0001c	8b c6		 mov	 eax, esi
  0001e	5e		 pop	 esi
  0001f	5d		 pop	 ebp
  00020	c2 04 00	 ret	 4
??_G?$CDynamicPoolEx@VCTextureAnimationRandomDecorator@NEffectUpdateDecorator@@@@UAEPAXI@Z ENDP ; CDynamicPoolEx<NEffectUpdateDecorator::CTextureAnimationRandomDecorator>::`scalar deleting destructor'
_TEXT	ENDS
; Function compile flags: /Ogtp
; File D:\Metin2 Server Files\mainline\SRC_2014\Metin2Client\eterLib\Pool.h
;	COMDAT ?Delete@?$CDynamicPoolEx@VCTextureAnimationRandomDecorator@NEffectUpdateDecorator@@@@KAXPAVCTextureAnimationRandomDecorator@NEffectUpdateDecorator@@@Z
_TEXT	SEGMENT
_pkData$ = 8						; size = 4
?Delete@?$CDynamicPoolEx@VCTextureAnimationRandomDecorator@NEffectUpdateDecorator@@@@KAXPAVCTextureAnimationRandomDecorator@NEffectUpdateDecorator@@@Z PROC ; CDynamicPoolEx<NEffectUpdateDecorator::CTextureAnimationRandomDecorator>::Delete, COMDAT

; 224  : 			::operator delete(pkData);

  00000	e9 00 00 00 00	 jmp	 ??3@YAXPAX@Z		; operator delete
?Delete@?$CDynamicPoolEx@VCTextureAnimationRandomDecorator@NEffectUpdateDecorator@@@@KAXPAVCTextureAnimationRandomDecorator@NEffectUpdateDecorator@@@Z ENDP ; CDynamicPoolEx<NEffectUpdateDecorator::CTextureAnimationRandomDecorator>::Delete
_TEXT	ENDS
; Function compile flags: /Ogtp
; File D:\Metin2 Server Files\mainline\SRC_2014\Metin2Client\eterLib\Pool.h
; File C:\Program Files (x86)\Microsoft Visual Studio\2019\Community\VC\Tools\MSVC\14.28.29333\include\vector
; File C:\Program Files (x86)\Microsoft Visual Studio\2019\Community\VC\Tools\MSVC\14.28.29333\include\algorithm
; File D:\Metin2 Server Files\mainline\SRC_2014\Metin2Client\eterLib\Pool.h
; File C:\Program Files (x86)\Microsoft Visual Studio\2019\Community\VC\Tools\MSVC\14.28.29333\include\algorithm
; File D:\Metin2 Server Files\mainline\SRC_2014\Metin2Client\eterLib\Pool.h
; File C:\Program Files (x86)\Microsoft Visual Studio\2019\Community\VC\Tools\MSVC\14.28.29333\include\algorithm
; File D:\Metin2 Server Files\mainline\SRC_2014\Metin2Client\eterLib\Pool.h
; File C:\Program Files (x86)\Microsoft Visual Studio\2019\Community\VC\Tools\MSVC\14.28.29333\include\vector
; File C:\Program Files (x86)\Microsoft Visual Studio\2019\Community\VC\Tools\MSVC\14.28.29333\include\xmemory
; File C:\Program Files (x86)\Microsoft Visual Studio\2019\Community\VC\Tools\MSVC\14.28.29333\include\vector
; File C:\Program Files (x86)\Microsoft Visual Studio\2019\Community\VC\Tools\MSVC\14.28.29333\include\xmemory
; File C:\Program Files (x86)\Microsoft Visual Studio\2019\Community\VC\Tools\MSVC\14.28.29333\include\vector
; File C:\Program Files (x86)\Microsoft Visual Studio\2019\Community\VC\Tools\MSVC\14.28.29333\include\xmemory
; File C:\Program Files (x86)\Microsoft Visual Studio\2019\Community\VC\Tools\MSVC\14.28.29333\include\vector
; File C:\Program Files (x86)\Microsoft Visual Studio\2019\Community\VC\Tools\MSVC\14.28.29333\include\xmemory
; File C:\Program Files (x86)\Microsoft Visual Studio\2019\Community\VC\Tools\MSVC\14.28.29333\include\vector
; File D:\Metin2 Server Files\mainline\SRC_2014\Metin2Client\eterLib\Pool.h
;	COMDAT ??1?$CDynamicPoolEx@VCTextureAnimationRandomDecorator@NEffectUpdateDecorator@@@@UAE@XZ
_TEXT	SEGMENT
??1?$CDynamicPoolEx@VCTextureAnimationRandomDecorator@NEffectUpdateDecorator@@@@UAE@XZ PROC ; CDynamicPoolEx<NEffectUpdateDecorator::CTextureAnimationRandomDecorator>::~CDynamicPoolEx<NEffectUpdateDecorator::CTextureAnimationRandomDecorator>, COMDAT
; _this$ = ecx

; 132  : 		{

  00000	53		 push	 ebx
  00001	56		 push	 esi
  00002	57		 push	 edi
  00003	8b f9		 mov	 edi, ecx
  00005	c7 07 00 00 00
	00		 mov	 DWORD PTR [edi], OFFSET ??_7?$CDynamicPoolEx@VCTextureAnimationRandomDecorator@NEffectUpdateDecorator@@@@6B@
; File C:\Program Files (x86)\Microsoft Visual Studio\2019\Community\VC\Tools\MSVC\14.28.29333\include\vector

; 42   :     _Vector_const_iterator(_Tptr _Parg, const _Container_base* _Pvector) noexcept : _Ptr(_Parg) {

  0000b	8b 5f 08	 mov	 ebx, DWORD PTR [edi+8]
  0000e	8b 77 04	 mov	 esi, DWORD PTR [edi+4]
; File C:\Program Files (x86)\Microsoft Visual Studio\2019\Community\VC\Tools\MSVC\14.28.29333\include\algorithm

; 307  :     for (; _UFirst != _ULast; ++_UFirst) {

  00011	3b f3		 cmp	 esi, ebx
  00013	74 14		 je	 SHORT $LN19@CDynamicPo
$LL20@CDynamicPo:
; File D:\Metin2 Server Files\mainline\SRC_2014\Metin2Client\eterLib\Pool.h

; 224  : 			::operator delete(pkData);

  00015	ff 36		 push	 DWORD PTR [esi]
  00017	e8 00 00 00 00	 call	 ??3@YAXPAX@Z		; operator delete
; File C:\Program Files (x86)\Microsoft Visual Studio\2019\Community\VC\Tools\MSVC\14.28.29333\include\algorithm

; 307  :     for (; _UFirst != _ULast; ++_UFirst) {

  0001c	83 c6 04	 add	 esi, 4
; File D:\Metin2 Server Files\mainline\SRC_2014\Metin2Client\eterLib\Pool.h

; 224  : 			::operator delete(pkData);

  0001f	83 c4 04	 add	 esp, 4
; File C:\Program Files (x86)\Microsoft Visual Studio\2019\Community\VC\Tools\MSVC\14.28.29333\include\algorithm

; 307  :     for (; _UFirst != _ULast; ++_UFirst) {

  00022	3b f3		 cmp	 esi, ebx
  00024	75 ef		 jne	 SHORT $LL20@CDynamicPo
  00026	8b 77 04	 mov	 esi, DWORD PTR [edi+4]
$LN19@CDynamicPo:
; File D:\Metin2 Server Files\mainline\SRC_2014\Metin2Client\eterLib\Pool.h

; 162  : 			m_kVct_pkFree.clear();

  00029	8b 4f 10	 mov	 ecx, DWORD PTR [edi+16]
  0002c	89 77 08	 mov	 DWORD PTR [edi+8], esi
  0002f	89 4f 14	 mov	 DWORD PTR [edi+20], ecx
; File C:\Program Files (x86)\Microsoft Visual Studio\2019\Community\VC\Tools\MSVC\14.28.29333\include\vector

; 1694 :         if (_Myfirst) { // destroy and deallocate old array

  00032	85 c9		 test	 ecx, ecx
  00034	74 27		 je	 SHORT $LN27@CDynamicPo

; 1695 :             _Destroy(_Myfirst, _Mylast);
; 1696 :             _Getal().deallocate(_Myfirst, static_cast<size_type>(_Myend - _Myfirst));

  00036	8b 47 18	 mov	 eax, DWORD PTR [edi+24]
  00039	2b c1		 sub	 eax, ecx
; File C:\Program Files (x86)\Microsoft Visual Studio\2019\Community\VC\Tools\MSVC\14.28.29333\include\xmemory

; 810  :         _Deallocate<_New_alignof<_Ty>>(_Ptr, sizeof(_Ty) * _Count);

  0003b	83 e0 fc	 and	 eax, -4			; fffffffcH
  0003e	50		 push	 eax
  0003f	51		 push	 ecx
  00040	e8 00 00 00 00	 call	 ??$_Deallocate@$07$0A@@std@@YAXPAXI@Z ; std::_Deallocate<8,0>
; File C:\Program Files (x86)\Microsoft Visual Studio\2019\Community\VC\Tools\MSVC\14.28.29333\include\vector

; 1698 :             _Myfirst = pointer();

  00045	c7 47 10 00 00
	00 00		 mov	 DWORD PTR [edi+16], 0
; File C:\Program Files (x86)\Microsoft Visual Studio\2019\Community\VC\Tools\MSVC\14.28.29333\include\xmemory

; 810  :         _Deallocate<_New_alignof<_Ty>>(_Ptr, sizeof(_Ty) * _Count);

  0004c	83 c4 08	 add	 esp, 8
; File C:\Program Files (x86)\Microsoft Visual Studio\2019\Community\VC\Tools\MSVC\14.28.29333\include\vector

; 1699 :             _Mylast  = pointer();

  0004f	c7 47 14 00 00
	00 00		 mov	 DWORD PTR [edi+20], 0

; 1700 :             _Myend   = pointer();

  00056	c7 47 18 00 00
	00 00		 mov	 DWORD PTR [edi+24], 0
$LN27@CDynamicPo:

; 1694 :         if (_Myfirst) { // destroy and deallocate old array

  0005d	8b 4f 04	 mov	 ecx, DWORD PTR [edi+4]
  00060	85 c9		 test	 ecx, ecx
  00062	74 27		 je	 SHORT $LN34@CDynamicPo

; 1695 :             _Destroy(_Myfirst, _Mylast);
; 1696 :             _Getal().deallocate(_Myfirst, static_cast<size_type>(_Myend - _Myfirst));

  00064	8b 47 0c	 mov	 eax, DWORD PTR [edi+12]
  00067	2b c1		 sub	 eax, ecx
; File C:\Program Files (x86)\Microsoft Visual Studio\2019\Community\VC\Tools\MSVC\14.28.29333\include\xmemory

; 810  :         _Deallocate<_New_alignof<_Ty>>(_Ptr, sizeof(_Ty) * _Count);

  00069	83 e0 fc	 and	 eax, -4			; fffffffcH
  0006c	50		 push	 eax
  0006d	51		 push	 ecx
  0006e	e8 00 00 00 00	 call	 ??$_Deallocate@$07$0A@@std@@YAXPAXI@Z ; std::_Deallocate<8,0>
; File C:\Program Files (x86)\Microsoft Visual Studio\2019\Community\VC\Tools\MSVC\14.28.29333\include\vector

; 1698 :             _Myfirst = pointer();

  00073	c7 47 04 00 00
	00 00		 mov	 DWORD PTR [edi+4], 0
; File C:\Program Files (x86)\Microsoft Visual Studio\2019\Community\VC\Tools\MSVC\14.28.29333\include\xmemory

; 810  :         _Deallocate<_New_alignof<_Ty>>(_Ptr, sizeof(_Ty) * _Count);

  0007a	83 c4 08	 add	 esp, 8
; File C:\Program Files (x86)\Microsoft Visual Studio\2019\Community\VC\Tools\MSVC\14.28.29333\include\vector

; 1699 :             _Mylast  = pointer();

  0007d	c7 47 08 00 00
	00 00		 mov	 DWORD PTR [edi+8], 0

; 1700 :             _Myend   = pointer();

  00084	c7 47 0c 00 00
	00 00		 mov	 DWORD PTR [edi+12], 0
$LN34@CDynamicPo:
  0008b	5f		 pop	 edi
; File D:\Metin2 Server Files\mainline\SRC_2014\Metin2Client\eterLib\Pool.h

; 142  : 		}

  0008c	5e		 pop	 esi
  0008d	5b		 pop	 ebx
  0008e	c3		 ret	 0
??1?$CDynamicPoolEx@VCTextureAnimationRandomDecorator@NEffectUpdateDecorator@@@@UAE@XZ ENDP ; CDynamicPoolEx<NEffectUpdateDecorator::CTextureAnimationRandomDecorator>::~CDynamicPoolEx<NEffectUpdateDecorator::CTextureAnimationRandomDecorator>
_TEXT	ENDS
; Function compile flags: /Ogtp
;	COMDAT ??_G?$CDynamicPoolEx@VCAirResistanceDecorator@NEffectUpdateDecorator@@@@UAEPAXI@Z
_TEXT	SEGMENT
___flags$ = 8						; size = 4
??_G?$CDynamicPoolEx@VCAirResistanceDecorator@NEffectUpdateDecorator@@@@UAEPAXI@Z PROC ; CDynamicPoolEx<NEffectUpdateDecorator::CAirResistanceDecorator>::`scalar deleting destructor', COMDAT
; _this$ = ecx
  00000	55		 push	 ebp
  00001	8b ec		 mov	 ebp, esp
  00003	56		 push	 esi
  00004	8b f1		 mov	 esi, ecx
  00006	e8 00 00 00 00	 call	 ??1?$CDynamicPoolEx@VCAirResistanceDecorator@NEffectUpdateDecorator@@@@UAE@XZ ; CDynamicPoolEx<NEffectUpdateDecorator::CAirResistanceDecorator>::~CDynamicPoolEx<NEffectUpdateDecorator::CAirResistanceDecorator>
  0000b	f6 45 08 01	 test	 BYTE PTR ___flags$[ebp], 1
  0000f	74 0b		 je	 SHORT $LN4@scalar
  00011	6a 24		 push	 36			; 00000024H
  00013	56		 push	 esi
  00014	e8 00 00 00 00	 call	 ??3@YAXPAXI@Z		; operator delete
  00019	83 c4 08	 add	 esp, 8
$LN4@scalar:
  0001c	8b c6		 mov	 eax, esi
  0001e	5e		 pop	 esi
  0001f	5d		 pop	 ebp
  00020	c2 04 00	 ret	 4
??_G?$CDynamicPoolEx@VCAirResistanceDecorator@NEffectUpdateDecorator@@@@UAEPAXI@Z ENDP ; CDynamicPoolEx<NEffectUpdateDecorator::CAirResistanceDecorator>::`scalar deleting destructor'
_TEXT	ENDS
; Function compile flags: /Ogtp
; File D:\Metin2 Server Files\mainline\SRC_2014\Metin2Client\eterLib\Pool.h
;	COMDAT ?Delete@?$CDynamicPoolEx@VCAirResistanceDecorator@NEffectUpdateDecorator@@@@KAXPAVCAirResistanceDecorator@NEffectUpdateDecorator@@@Z
_TEXT	SEGMENT
_pkData$ = 8						; size = 4
?Delete@?$CDynamicPoolEx@VCAirResistanceDecorator@NEffectUpdateDecorator@@@@KAXPAVCAirResistanceDecorator@NEffectUpdateDecorator@@@Z PROC ; CDynamicPoolEx<NEffectUpdateDecorator::CAirResistanceDecorator>::Delete, COMDAT

; 224  : 			::operator delete(pkData);

  00000	e9 00 00 00 00	 jmp	 ??3@YAXPAX@Z		; operator delete
?Delete@?$CDynamicPoolEx@VCAirResistanceDecorator@NEffectUpdateDecorator@@@@KAXPAVCAirResistanceDecorator@NEffectUpdateDecorator@@@Z ENDP ; CDynamicPoolEx<NEffectUpdateDecorator::CAirResistanceDecorator>::Delete
_TEXT	ENDS
; Function compile flags: /Ogtp
; File D:\Metin2 Server Files\mainline\SRC_2014\Metin2Client\eterLib\Pool.h
; File C:\Program Files (x86)\Microsoft Visual Studio\2019\Community\VC\Tools\MSVC\14.28.29333\include\vector
; File C:\Program Files (x86)\Microsoft Visual Studio\2019\Community\VC\Tools\MSVC\14.28.29333\include\algorithm
; File D:\Metin2 Server Files\mainline\SRC_2014\Metin2Client\eterLib\Pool.h
; File C:\Program Files (x86)\Microsoft Visual Studio\2019\Community\VC\Tools\MSVC\14.28.29333\include\algorithm
; File D:\Metin2 Server Files\mainline\SRC_2014\Metin2Client\eterLib\Pool.h
; File C:\Program Files (x86)\Microsoft Visual Studio\2019\Community\VC\Tools\MSVC\14.28.29333\include\algorithm
; File D:\Metin2 Server Files\mainline\SRC_2014\Metin2Client\eterLib\Pool.h
; File C:\Program Files (x86)\Microsoft Visual Studio\2019\Community\VC\Tools\MSVC\14.28.29333\include\vector
; File C:\Program Files (x86)\Microsoft Visual Studio\2019\Community\VC\Tools\MSVC\14.28.29333\include\xmemory
; File C:\Program Files (x86)\Microsoft Visual Studio\2019\Community\VC\Tools\MSVC\14.28.29333\include\vector
; File C:\Program Files (x86)\Microsoft Visual Studio\2019\Community\VC\Tools\MSVC\14.28.29333\include\xmemory
; File C:\Program Files (x86)\Microsoft Visual Studio\2019\Community\VC\Tools\MSVC\14.28.29333\include\vector
; File C:\Program Files (x86)\Microsoft Visual Studio\2019\Community\VC\Tools\MSVC\14.28.29333\include\xmemory
; File C:\Program Files (x86)\Microsoft Visual Studio\2019\Community\VC\Tools\MSVC\14.28.29333\include\vector
; File C:\Program Files (x86)\Microsoft Visual Studio\2019\Community\VC\Tools\MSVC\14.28.29333\include\xmemory
; File C:\Program Files (x86)\Microsoft Visual Studio\2019\Community\VC\Tools\MSVC\14.28.29333\include\vector
; File D:\Metin2 Server Files\mainline\SRC_2014\Metin2Client\eterLib\Pool.h
;	COMDAT ??1?$CDynamicPoolEx@VCAirResistanceDecorator@NEffectUpdateDecorator@@@@UAE@XZ
_TEXT	SEGMENT
??1?$CDynamicPoolEx@VCAirResistanceDecorator@NEffectUpdateDecorator@@@@UAE@XZ PROC ; CDynamicPoolEx<NEffectUpdateDecorator::CAirResistanceDecorator>::~CDynamicPoolEx<NEffectUpdateDecorator::CAirResistanceDecorator>, COMDAT
; _this$ = ecx

; 132  : 		{

  00000	53		 push	 ebx
  00001	56		 push	 esi
  00002	57		 push	 edi
  00003	8b f9		 mov	 edi, ecx
  00005	c7 07 00 00 00
	00		 mov	 DWORD PTR [edi], OFFSET ??_7?$CDynamicPoolEx@VCAirResistanceDecorator@NEffectUpdateDecorator@@@@6B@
; File C:\Program Files (x86)\Microsoft Visual Studio\2019\Community\VC\Tools\MSVC\14.28.29333\include\vector

; 42   :     _Vector_const_iterator(_Tptr _Parg, const _Container_base* _Pvector) noexcept : _Ptr(_Parg) {

  0000b	8b 5f 08	 mov	 ebx, DWORD PTR [edi+8]
  0000e	8b 77 04	 mov	 esi, DWORD PTR [edi+4]
; File C:\Program Files (x86)\Microsoft Visual Studio\2019\Community\VC\Tools\MSVC\14.28.29333\include\algorithm

; 307  :     for (; _UFirst != _ULast; ++_UFirst) {

  00011	3b f3		 cmp	 esi, ebx
  00013	74 14		 je	 SHORT $LN19@CDynamicPo
$LL20@CDynamicPo:
; File D:\Metin2 Server Files\mainline\SRC_2014\Metin2Client\eterLib\Pool.h

; 224  : 			::operator delete(pkData);

  00015	ff 36		 push	 DWORD PTR [esi]
  00017	e8 00 00 00 00	 call	 ??3@YAXPAX@Z		; operator delete
; File C:\Program Files (x86)\Microsoft Visual Studio\2019\Community\VC\Tools\MSVC\14.28.29333\include\algorithm

; 307  :     for (; _UFirst != _ULast; ++_UFirst) {

  0001c	83 c6 04	 add	 esi, 4
; File D:\Metin2 Server Files\mainline\SRC_2014\Metin2Client\eterLib\Pool.h

; 224  : 			::operator delete(pkData);

  0001f	83 c4 04	 add	 esp, 4
; File C:\Program Files (x86)\Microsoft Visual Studio\2019\Community\VC\Tools\MSVC\14.28.29333\include\algorithm

; 307  :     for (; _UFirst != _ULast; ++_UFirst) {

  00022	3b f3		 cmp	 esi, ebx
  00024	75 ef		 jne	 SHORT $LL20@CDynamicPo
  00026	8b 77 04	 mov	 esi, DWORD PTR [edi+4]
$LN19@CDynamicPo:
; File D:\Metin2 Server Files\mainline\SRC_2014\Metin2Client\eterLib\Pool.h

; 162  : 			m_kVct_pkFree.clear();

  00029	8b 4f 10	 mov	 ecx, DWORD PTR [edi+16]
  0002c	89 77 08	 mov	 DWORD PTR [edi+8], esi
  0002f	89 4f 14	 mov	 DWORD PTR [edi+20], ecx
; File C:\Program Files (x86)\Microsoft Visual Studio\2019\Community\VC\Tools\MSVC\14.28.29333\include\vector

; 1694 :         if (_Myfirst) { // destroy and deallocate old array

  00032	85 c9		 test	 ecx, ecx
  00034	74 27		 je	 SHORT $LN27@CDynamicPo

; 1695 :             _Destroy(_Myfirst, _Mylast);
; 1696 :             _Getal().deallocate(_Myfirst, static_cast<size_type>(_Myend - _Myfirst));

  00036	8b 47 18	 mov	 eax, DWORD PTR [edi+24]
  00039	2b c1		 sub	 eax, ecx
; File C:\Program Files (x86)\Microsoft Visual Studio\2019\Community\VC\Tools\MSVC\14.28.29333\include\xmemory

; 810  :         _Deallocate<_New_alignof<_Ty>>(_Ptr, sizeof(_Ty) * _Count);

  0003b	83 e0 fc	 and	 eax, -4			; fffffffcH
  0003e	50		 push	 eax
  0003f	51		 push	 ecx
  00040	e8 00 00 00 00	 call	 ??$_Deallocate@$07$0A@@std@@YAXPAXI@Z ; std::_Deallocate<8,0>
; File C:\Program Files (x86)\Microsoft Visual Studio\2019\Community\VC\Tools\MSVC\14.28.29333\include\vector

; 1698 :             _Myfirst = pointer();

  00045	c7 47 10 00 00
	00 00		 mov	 DWORD PTR [edi+16], 0
; File C:\Program Files (x86)\Microsoft Visual Studio\2019\Community\VC\Tools\MSVC\14.28.29333\include\xmemory

; 810  :         _Deallocate<_New_alignof<_Ty>>(_Ptr, sizeof(_Ty) * _Count);

  0004c	83 c4 08	 add	 esp, 8
; File C:\Program Files (x86)\Microsoft Visual Studio\2019\Community\VC\Tools\MSVC\14.28.29333\include\vector

; 1699 :             _Mylast  = pointer();

  0004f	c7 47 14 00 00
	00 00		 mov	 DWORD PTR [edi+20], 0

; 1700 :             _Myend   = pointer();

  00056	c7 47 18 00 00
	00 00		 mov	 DWORD PTR [edi+24], 0
$LN27@CDynamicPo:

; 1694 :         if (_Myfirst) { // destroy and deallocate old array

  0005d	8b 4f 04	 mov	 ecx, DWORD PTR [edi+4]
  00060	85 c9		 test	 ecx, ecx
  00062	74 27		 je	 SHORT $LN34@CDynamicPo

; 1695 :             _Destroy(_Myfirst, _Mylast);
; 1696 :             _Getal().deallocate(_Myfirst, static_cast<size_type>(_Myend - _Myfirst));

  00064	8b 47 0c	 mov	 eax, DWORD PTR [edi+12]
  00067	2b c1		 sub	 eax, ecx
; File C:\Program Files (x86)\Microsoft Visual Studio\2019\Community\VC\Tools\MSVC\14.28.29333\include\xmemory

; 810  :         _Deallocate<_New_alignof<_Ty>>(_Ptr, sizeof(_Ty) * _Count);

  00069	83 e0 fc	 and	 eax, -4			; fffffffcH
  0006c	50		 push	 eax
  0006d	51		 push	 ecx
  0006e	e8 00 00 00 00	 call	 ??$_Deallocate@$07$0A@@std@@YAXPAXI@Z ; std::_Deallocate<8,0>
; File C:\Program Files (x86)\Microsoft Visual Studio\2019\Community\VC\Tools\MSVC\14.28.29333\include\vector

; 1698 :             _Myfirst = pointer();

  00073	c7 47 04 00 00
	00 00		 mov	 DWORD PTR [edi+4], 0
; File C:\Program Files (x86)\Microsoft Visual Studio\2019\Community\VC\Tools\MSVC\14.28.29333\include\xmemory

; 810  :         _Deallocate<_New_alignof<_Ty>>(_Ptr, sizeof(_Ty) * _Count);

  0007a	83 c4 08	 add	 esp, 8
; File C:\Program Files (x86)\Microsoft Visual Studio\2019\Community\VC\Tools\MSVC\14.28.29333\include\vector

; 1699 :             _Mylast  = pointer();

  0007d	c7 47 08 00 00
	00 00		 mov	 DWORD PTR [edi+8], 0

; 1700 :             _Myend   = pointer();

  00084	c7 47 0c 00 00
	00 00		 mov	 DWORD PTR [edi+12], 0
$LN34@CDynamicPo:
  0008b	5f		 pop	 edi
; File D:\Metin2 Server Files\mainline\SRC_2014\Metin2Client\eterLib\Pool.h

; 142  : 		}

  0008c	5e		 pop	 esi
  0008d	5b		 pop	 ebx
  0008e	c3		 ret	 0
??1?$CDynamicPoolEx@VCAirResistanceDecorator@NEffectUpdateDecorator@@@@UAE@XZ ENDP ; CDynamicPoolEx<NEffectUpdateDecorator::CAirResistanceDecorator>::~CDynamicPoolEx<NEffectUpdateDecorator::CAirResistanceDecorator>
_TEXT	ENDS
; Function compile flags: /Ogtp
;	COMDAT ??_G?$CDynamicPoolEx@VCGravityDecorator@NEffectUpdateDecorator@@@@UAEPAXI@Z
_TEXT	SEGMENT
___flags$ = 8						; size = 4
??_G?$CDynamicPoolEx@VCGravityDecorator@NEffectUpdateDecorator@@@@UAEPAXI@Z PROC ; CDynamicPoolEx<NEffectUpdateDecorator::CGravityDecorator>::`scalar deleting destructor', COMDAT
; _this$ = ecx
  00000	55		 push	 ebp
  00001	8b ec		 mov	 ebp, esp
  00003	56		 push	 esi
  00004	8b f1		 mov	 esi, ecx
  00006	e8 00 00 00 00	 call	 ??1?$CDynamicPoolEx@VCGravityDecorator@NEffectUpdateDecorator@@@@UAE@XZ ; CDynamicPoolEx<NEffectUpdateDecorator::CGravityDecorator>::~CDynamicPoolEx<NEffectUpdateDecorator::CGravityDecorator>
  0000b	f6 45 08 01	 test	 BYTE PTR ___flags$[ebp], 1
  0000f	74 0b		 je	 SHORT $LN4@scalar
  00011	6a 24		 push	 36			; 00000024H
  00013	56		 push	 esi
  00014	e8 00 00 00 00	 call	 ??3@YAXPAXI@Z		; operator delete
  00019	83 c4 08	 add	 esp, 8
$LN4@scalar:
  0001c	8b c6		 mov	 eax, esi
  0001e	5e		 pop	 esi
  0001f	5d		 pop	 ebp
  00020	c2 04 00	 ret	 4
??_G?$CDynamicPoolEx@VCGravityDecorator@NEffectUpdateDecorator@@@@UAEPAXI@Z ENDP ; CDynamicPoolEx<NEffectUpdateDecorator::CGravityDecorator>::`scalar deleting destructor'
_TEXT	ENDS
; Function compile flags: /Ogtp
; File D:\Metin2 Server Files\mainline\SRC_2014\Metin2Client\eterLib\Pool.h
;	COMDAT ?Delete@?$CDynamicPoolEx@VCGravityDecorator@NEffectUpdateDecorator@@@@KAXPAVCGravityDecorator@NEffectUpdateDecorator@@@Z
_TEXT	SEGMENT
_pkData$ = 8						; size = 4
?Delete@?$CDynamicPoolEx@VCGravityDecorator@NEffectUpdateDecorator@@@@KAXPAVCGravityDecorator@NEffectUpdateDecorator@@@Z PROC ; CDynamicPoolEx<NEffectUpdateDecorator::CGravityDecorator>::Delete, COMDAT

; 224  : 			::operator delete(pkData);

  00000	e9 00 00 00 00	 jmp	 ??3@YAXPAX@Z		; operator delete
?Delete@?$CDynamicPoolEx@VCGravityDecorator@NEffectUpdateDecorator@@@@KAXPAVCGravityDecorator@NEffectUpdateDecorator@@@Z ENDP ; CDynamicPoolEx<NEffectUpdateDecorator::CGravityDecorator>::Delete
_TEXT	ENDS
; Function compile flags: /Ogtp
; File D:\Metin2 Server Files\mainline\SRC_2014\Metin2Client\eterLib\Pool.h
; File C:\Program Files (x86)\Microsoft Visual Studio\2019\Community\VC\Tools\MSVC\14.28.29333\include\vector
; File C:\Program Files (x86)\Microsoft Visual Studio\2019\Community\VC\Tools\MSVC\14.28.29333\include\algorithm
; File D:\Metin2 Server Files\mainline\SRC_2014\Metin2Client\eterLib\Pool.h
; File C:\Program Files (x86)\Microsoft Visual Studio\2019\Community\VC\Tools\MSVC\14.28.29333\include\algorithm
; File D:\Metin2 Server Files\mainline\SRC_2014\Metin2Client\eterLib\Pool.h
; File C:\Program Files (x86)\Microsoft Visual Studio\2019\Community\VC\Tools\MSVC\14.28.29333\include\algorithm
; File D:\Metin2 Server Files\mainline\SRC_2014\Metin2Client\eterLib\Pool.h
; File C:\Program Files (x86)\Microsoft Visual Studio\2019\Community\VC\Tools\MSVC\14.28.29333\include\vector
; File C:\Program Files (x86)\Microsoft Visual Studio\2019\Community\VC\Tools\MSVC\14.28.29333\include\xmemory
; File C:\Program Files (x86)\Microsoft Visual Studio\2019\Community\VC\Tools\MSVC\14.28.29333\include\vector
; File C:\Program Files (x86)\Microsoft Visual Studio\2019\Community\VC\Tools\MSVC\14.28.29333\include\xmemory
; File C:\Program Files (x86)\Microsoft Visual Studio\2019\Community\VC\Tools\MSVC\14.28.29333\include\vector
; File C:\Program Files (x86)\Microsoft Visual Studio\2019\Community\VC\Tools\MSVC\14.28.29333\include\xmemory
; File C:\Program Files (x86)\Microsoft Visual Studio\2019\Community\VC\Tools\MSVC\14.28.29333\include\vector
; File C:\Program Files (x86)\Microsoft Visual Studio\2019\Community\VC\Tools\MSVC\14.28.29333\include\xmemory
; File C:\Program Files (x86)\Microsoft Visual Studio\2019\Community\VC\Tools\MSVC\14.28.29333\include\vector
; File D:\Metin2 Server Files\mainline\SRC_2014\Metin2Client\eterLib\Pool.h
;	COMDAT ??1?$CDynamicPoolEx@VCGravityDecorator@NEffectUpdateDecorator@@@@UAE@XZ
_TEXT	SEGMENT
??1?$CDynamicPoolEx@VCGravityDecorator@NEffectUpdateDecorator@@@@UAE@XZ PROC ; CDynamicPoolEx<NEffectUpdateDecorator::CGravityDecorator>::~CDynamicPoolEx<NEffectUpdateDecorator::CGravityDecorator>, COMDAT
; _this$ = ecx

; 132  : 		{

  00000	53		 push	 ebx
  00001	56		 push	 esi
  00002	57		 push	 edi
  00003	8b f9		 mov	 edi, ecx
  00005	c7 07 00 00 00
	00		 mov	 DWORD PTR [edi], OFFSET ??_7?$CDynamicPoolEx@VCGravityDecorator@NEffectUpdateDecorator@@@@6B@
; File C:\Program Files (x86)\Microsoft Visual Studio\2019\Community\VC\Tools\MSVC\14.28.29333\include\vector

; 42   :     _Vector_const_iterator(_Tptr _Parg, const _Container_base* _Pvector) noexcept : _Ptr(_Parg) {

  0000b	8b 5f 08	 mov	 ebx, DWORD PTR [edi+8]
  0000e	8b 77 04	 mov	 esi, DWORD PTR [edi+4]
; File C:\Program Files (x86)\Microsoft Visual Studio\2019\Community\VC\Tools\MSVC\14.28.29333\include\algorithm

; 307  :     for (; _UFirst != _ULast; ++_UFirst) {

  00011	3b f3		 cmp	 esi, ebx
  00013	74 14		 je	 SHORT $LN19@CDynamicPo
$LL20@CDynamicPo:
; File D:\Metin2 Server Files\mainline\SRC_2014\Metin2Client\eterLib\Pool.h

; 224  : 			::operator delete(pkData);

  00015	ff 36		 push	 DWORD PTR [esi]
  00017	e8 00 00 00 00	 call	 ??3@YAXPAX@Z		; operator delete
; File C:\Program Files (x86)\Microsoft Visual Studio\2019\Community\VC\Tools\MSVC\14.28.29333\include\algorithm

; 307  :     for (; _UFirst != _ULast; ++_UFirst) {

  0001c	83 c6 04	 add	 esi, 4
; File D:\Metin2 Server Files\mainline\SRC_2014\Metin2Client\eterLib\Pool.h

; 224  : 			::operator delete(pkData);

  0001f	83 c4 04	 add	 esp, 4
; File C:\Program Files (x86)\Microsoft Visual Studio\2019\Community\VC\Tools\MSVC\14.28.29333\include\algorithm

; 307  :     for (; _UFirst != _ULast; ++_UFirst) {

  00022	3b f3		 cmp	 esi, ebx
  00024	75 ef		 jne	 SHORT $LL20@CDynamicPo
  00026	8b 77 04	 mov	 esi, DWORD PTR [edi+4]
$LN19@CDynamicPo:
; File D:\Metin2 Server Files\mainline\SRC_2014\Metin2Client\eterLib\Pool.h

; 162  : 			m_kVct_pkFree.clear();

  00029	8b 4f 10	 mov	 ecx, DWORD PTR [edi+16]
  0002c	89 77 08	 mov	 DWORD PTR [edi+8], esi
  0002f	89 4f 14	 mov	 DWORD PTR [edi+20], ecx
; File C:\Program Files (x86)\Microsoft Visual Studio\2019\Community\VC\Tools\MSVC\14.28.29333\include\vector

; 1694 :         if (_Myfirst) { // destroy and deallocate old array

  00032	85 c9		 test	 ecx, ecx
  00034	74 27		 je	 SHORT $LN27@CDynamicPo

; 1695 :             _Destroy(_Myfirst, _Mylast);
; 1696 :             _Getal().deallocate(_Myfirst, static_cast<size_type>(_Myend - _Myfirst));

  00036	8b 47 18	 mov	 eax, DWORD PTR [edi+24]
  00039	2b c1		 sub	 eax, ecx
; File C:\Program Files (x86)\Microsoft Visual Studio\2019\Community\VC\Tools\MSVC\14.28.29333\include\xmemory

; 810  :         _Deallocate<_New_alignof<_Ty>>(_Ptr, sizeof(_Ty) * _Count);

  0003b	83 e0 fc	 and	 eax, -4			; fffffffcH
  0003e	50		 push	 eax
  0003f	51		 push	 ecx
  00040	e8 00 00 00 00	 call	 ??$_Deallocate@$07$0A@@std@@YAXPAXI@Z ; std::_Deallocate<8,0>
; File C:\Program Files (x86)\Microsoft Visual Studio\2019\Community\VC\Tools\MSVC\14.28.29333\include\vector

; 1698 :             _Myfirst = pointer();

  00045	c7 47 10 00 00
	00 00		 mov	 DWORD PTR [edi+16], 0
; File C:\Program Files (x86)\Microsoft Visual Studio\2019\Community\VC\Tools\MSVC\14.28.29333\include\xmemory

; 810  :         _Deallocate<_New_alignof<_Ty>>(_Ptr, sizeof(_Ty) * _Count);

  0004c	83 c4 08	 add	 esp, 8
; File C:\Program Files (x86)\Microsoft Visual Studio\2019\Community\VC\Tools\MSVC\14.28.29333\include\vector

; 1699 :             _Mylast  = pointer();

  0004f	c7 47 14 00 00
	00 00		 mov	 DWORD PTR [edi+20], 0

; 1700 :             _Myend   = pointer();

  00056	c7 47 18 00 00
	00 00		 mov	 DWORD PTR [edi+24], 0
$LN27@CDynamicPo:

; 1694 :         if (_Myfirst) { // destroy and deallocate old array

  0005d	8b 4f 04	 mov	 ecx, DWORD PTR [edi+4]
  00060	85 c9		 test	 ecx, ecx
  00062	74 27		 je	 SHORT $LN34@CDynamicPo

; 1695 :             _Destroy(_Myfirst, _Mylast);
; 1696 :             _Getal().deallocate(_Myfirst, static_cast<size_type>(_Myend - _Myfirst));

  00064	8b 47 0c	 mov	 eax, DWORD PTR [edi+12]
  00067	2b c1		 sub	 eax, ecx
; File C:\Program Files (x86)\Microsoft Visual Studio\2019\Community\VC\Tools\MSVC\14.28.29333\include\xmemory

; 810  :         _Deallocate<_New_alignof<_Ty>>(_Ptr, sizeof(_Ty) * _Count);

  00069	83 e0 fc	 and	 eax, -4			; fffffffcH
  0006c	50		 push	 eax
  0006d	51		 push	 ecx
  0006e	e8 00 00 00 00	 call	 ??$_Deallocate@$07$0A@@std@@YAXPAXI@Z ; std::_Deallocate<8,0>
; File C:\Program Files (x86)\Microsoft Visual Studio\2019\Community\VC\Tools\MSVC\14.28.29333\include\vector

; 1698 :             _Myfirst = pointer();

  00073	c7 47 04 00 00
	00 00		 mov	 DWORD PTR [edi+4], 0
; File C:\Program Files (x86)\Microsoft Visual Studio\2019\Community\VC\Tools\MSVC\14.28.29333\include\xmemory

; 810  :         _Deallocate<_New_alignof<_Ty>>(_Ptr, sizeof(_Ty) * _Count);

  0007a	83 c4 08	 add	 esp, 8
; File C:\Program Files (x86)\Microsoft Visual Studio\2019\Community\VC\Tools\MSVC\14.28.29333\include\vector

; 1699 :             _Mylast  = pointer();

  0007d	c7 47 08 00 00
	00 00		 mov	 DWORD PTR [edi+8], 0

; 1700 :             _Myend   = pointer();

  00084	c7 47 0c 00 00
	00 00		 mov	 DWORD PTR [edi+12], 0
$LN34@CDynamicPo:
  0008b	5f		 pop	 edi
; File D:\Metin2 Server Files\mainline\SRC_2014\Metin2Client\eterLib\Pool.h

; 142  : 		}

  0008c	5e		 pop	 esi
  0008d	5b		 pop	 ebx
  0008e	c3		 ret	 0
??1?$CDynamicPoolEx@VCGravityDecorator@NEffectUpdateDecorator@@@@UAE@XZ ENDP ; CDynamicPoolEx<NEffectUpdateDecorator::CGravityDecorator>::~CDynamicPoolEx<NEffectUpdateDecorator::CGravityDecorator>
_TEXT	ENDS
; Function compile flags: /Ogtp
;	COMDAT ??_G?$CDynamicPoolEx@VCRotationDecorator@NEffectUpdateDecorator@@@@UAEPAXI@Z
_TEXT	SEGMENT
___flags$ = 8						; size = 4
??_G?$CDynamicPoolEx@VCRotationDecorator@NEffectUpdateDecorator@@@@UAEPAXI@Z PROC ; CDynamicPoolEx<NEffectUpdateDecorator::CRotationDecorator>::`scalar deleting destructor', COMDAT
; _this$ = ecx
  00000	55		 push	 ebp
  00001	8b ec		 mov	 ebp, esp
  00003	56		 push	 esi
  00004	8b f1		 mov	 esi, ecx
  00006	e8 00 00 00 00	 call	 ??1?$CDynamicPoolEx@VCRotationDecorator@NEffectUpdateDecorator@@@@UAE@XZ ; CDynamicPoolEx<NEffectUpdateDecorator::CRotationDecorator>::~CDynamicPoolEx<NEffectUpdateDecorator::CRotationDecorator>
  0000b	f6 45 08 01	 test	 BYTE PTR ___flags$[ebp], 1
  0000f	74 0b		 je	 SHORT $LN4@scalar
  00011	6a 24		 push	 36			; 00000024H
  00013	56		 push	 esi
  00014	e8 00 00 00 00	 call	 ??3@YAXPAXI@Z		; operator delete
  00019	83 c4 08	 add	 esp, 8
$LN4@scalar:
  0001c	8b c6		 mov	 eax, esi
  0001e	5e		 pop	 esi
  0001f	5d		 pop	 ebp
  00020	c2 04 00	 ret	 4
??_G?$CDynamicPoolEx@VCRotationDecorator@NEffectUpdateDecorator@@@@UAEPAXI@Z ENDP ; CDynamicPoolEx<NEffectUpdateDecorator::CRotationDecorator>::`scalar deleting destructor'
_TEXT	ENDS
; Function compile flags: /Ogtp
; File D:\Metin2 Server Files\mainline\SRC_2014\Metin2Client\eterLib\Pool.h
;	COMDAT ?Delete@?$CDynamicPoolEx@VCRotationDecorator@NEffectUpdateDecorator@@@@KAXPAVCRotationDecorator@NEffectUpdateDecorator@@@Z
_TEXT	SEGMENT
_pkData$ = 8						; size = 4
?Delete@?$CDynamicPoolEx@VCRotationDecorator@NEffectUpdateDecorator@@@@KAXPAVCRotationDecorator@NEffectUpdateDecorator@@@Z PROC ; CDynamicPoolEx<NEffectUpdateDecorator::CRotationDecorator>::Delete, COMDAT

; 224  : 			::operator delete(pkData);

  00000	e9 00 00 00 00	 jmp	 ??3@YAXPAX@Z		; operator delete
?Delete@?$CDynamicPoolEx@VCRotationDecorator@NEffectUpdateDecorator@@@@KAXPAVCRotationDecorator@NEffectUpdateDecorator@@@Z ENDP ; CDynamicPoolEx<NEffectUpdateDecorator::CRotationDecorator>::Delete
_TEXT	ENDS
; Function compile flags: /Ogtp
; File D:\Metin2 Server Files\mainline\SRC_2014\Metin2Client\eterLib\Pool.h
; File C:\Program Files (x86)\Microsoft Visual Studio\2019\Community\VC\Tools\MSVC\14.28.29333\include\vector
; File C:\Program Files (x86)\Microsoft Visual Studio\2019\Community\VC\Tools\MSVC\14.28.29333\include\algorithm
; File D:\Metin2 Server Files\mainline\SRC_2014\Metin2Client\eterLib\Pool.h
; File C:\Program Files (x86)\Microsoft Visual Studio\2019\Community\VC\Tools\MSVC\14.28.29333\include\algorithm
; File D:\Metin2 Server Files\mainline\SRC_2014\Metin2Client\eterLib\Pool.h
; File C:\Program Files (x86)\Microsoft Visual Studio\2019\Community\VC\Tools\MSVC\14.28.29333\include\algorithm
; File D:\Metin2 Server Files\mainline\SRC_2014\Metin2Client\eterLib\Pool.h
; File C:\Program Files (x86)\Microsoft Visual Studio\2019\Community\VC\Tools\MSVC\14.28.29333\include\vector
; File C:\Program Files (x86)\Microsoft Visual Studio\2019\Community\VC\Tools\MSVC\14.28.29333\include\xmemory
; File C:\Program Files (x86)\Microsoft Visual Studio\2019\Community\VC\Tools\MSVC\14.28.29333\include\vector
; File C:\Program Files (x86)\Microsoft Visual Studio\2019\Community\VC\Tools\MSVC\14.28.29333\include\xmemory
; File C:\Program Files (x86)\Microsoft Visual Studio\2019\Community\VC\Tools\MSVC\14.28.29333\include\vector
; File C:\Program Files (x86)\Microsoft Visual Studio\2019\Community\VC\Tools\MSVC\14.28.29333\include\xmemory
; File C:\Program Files (x86)\Microsoft Visual Studio\2019\Community\VC\Tools\MSVC\14.28.29333\include\vector
; File C:\Program Files (x86)\Microsoft Visual Studio\2019\Community\VC\Tools\MSVC\14.28.29333\include\xmemory
; File C:\Program Files (x86)\Microsoft Visual Studio\2019\Community\VC\Tools\MSVC\14.28.29333\include\vector
; File D:\Metin2 Server Files\mainline\SRC_2014\Metin2Client\eterLib\Pool.h
;	COMDAT ??1?$CDynamicPoolEx@VCRotationDecorator@NEffectUpdateDecorator@@@@UAE@XZ
_TEXT	SEGMENT
??1?$CDynamicPoolEx@VCRotationDecorator@NEffectUpdateDecorator@@@@UAE@XZ PROC ; CDynamicPoolEx<NEffectUpdateDecorator::CRotationDecorator>::~CDynamicPoolEx<NEffectUpdateDecorator::CRotationDecorator>, COMDAT
; _this$ = ecx

; 132  : 		{

  00000	53		 push	 ebx
  00001	56		 push	 esi
  00002	57		 push	 edi
  00003	8b f9		 mov	 edi, ecx
  00005	c7 07 00 00 00
	00		 mov	 DWORD PTR [edi], OFFSET ??_7?$CDynamicPoolEx@VCRotationDecorator@NEffectUpdateDecorator@@@@6B@
; File C:\Program Files (x86)\Microsoft Visual Studio\2019\Community\VC\Tools\MSVC\14.28.29333\include\vector

; 42   :     _Vector_const_iterator(_Tptr _Parg, const _Container_base* _Pvector) noexcept : _Ptr(_Parg) {

  0000b	8b 5f 08	 mov	 ebx, DWORD PTR [edi+8]
  0000e	8b 77 04	 mov	 esi, DWORD PTR [edi+4]
; File C:\Program Files (x86)\Microsoft Visual Studio\2019\Community\VC\Tools\MSVC\14.28.29333\include\algorithm

; 307  :     for (; _UFirst != _ULast; ++_UFirst) {

  00011	3b f3		 cmp	 esi, ebx
  00013	74 14		 je	 SHORT $LN19@CDynamicPo
$LL20@CDynamicPo:
; File D:\Metin2 Server Files\mainline\SRC_2014\Metin2Client\eterLib\Pool.h

; 224  : 			::operator delete(pkData);

  00015	ff 36		 push	 DWORD PTR [esi]
  00017	e8 00 00 00 00	 call	 ??3@YAXPAX@Z		; operator delete
; File C:\Program Files (x86)\Microsoft Visual Studio\2019\Community\VC\Tools\MSVC\14.28.29333\include\algorithm

; 307  :     for (; _UFirst != _ULast; ++_UFirst) {

  0001c	83 c6 04	 add	 esi, 4
; File D:\Metin2 Server Files\mainline\SRC_2014\Metin2Client\eterLib\Pool.h

; 224  : 			::operator delete(pkData);

  0001f	83 c4 04	 add	 esp, 4
; File C:\Program Files (x86)\Microsoft Visual Studio\2019\Community\VC\Tools\MSVC\14.28.29333\include\algorithm

; 307  :     for (; _UFirst != _ULast; ++_UFirst) {

  00022	3b f3		 cmp	 esi, ebx
  00024	75 ef		 jne	 SHORT $LL20@CDynamicPo
  00026	8b 77 04	 mov	 esi, DWORD PTR [edi+4]
$LN19@CDynamicPo:
; File D:\Metin2 Server Files\mainline\SRC_2014\Metin2Client\eterLib\Pool.h

; 162  : 			m_kVct_pkFree.clear();

  00029	8b 4f 10	 mov	 ecx, DWORD PTR [edi+16]
  0002c	89 77 08	 mov	 DWORD PTR [edi+8], esi
  0002f	89 4f 14	 mov	 DWORD PTR [edi+20], ecx
; File C:\Program Files (x86)\Microsoft Visual Studio\2019\Community\VC\Tools\MSVC\14.28.29333\include\vector

; 1694 :         if (_Myfirst) { // destroy and deallocate old array

  00032	85 c9		 test	 ecx, ecx
  00034	74 27		 je	 SHORT $LN27@CDynamicPo

; 1695 :             _Destroy(_Myfirst, _Mylast);
; 1696 :             _Getal().deallocate(_Myfirst, static_cast<size_type>(_Myend - _Myfirst));

  00036	8b 47 18	 mov	 eax, DWORD PTR [edi+24]
  00039	2b c1		 sub	 eax, ecx
; File C:\Program Files (x86)\Microsoft Visual Studio\2019\Community\VC\Tools\MSVC\14.28.29333\include\xmemory

; 810  :         _Deallocate<_New_alignof<_Ty>>(_Ptr, sizeof(_Ty) * _Count);

  0003b	83 e0 fc	 and	 eax, -4			; fffffffcH
  0003e	50		 push	 eax
  0003f	51		 push	 ecx
  00040	e8 00 00 00 00	 call	 ??$_Deallocate@$07$0A@@std@@YAXPAXI@Z ; std::_Deallocate<8,0>
; File C:\Program Files (x86)\Microsoft Visual Studio\2019\Community\VC\Tools\MSVC\14.28.29333\include\vector

; 1698 :             _Myfirst = pointer();

  00045	c7 47 10 00 00
	00 00		 mov	 DWORD PTR [edi+16], 0
; File C:\Program Files (x86)\Microsoft Visual Studio\2019\Community\VC\Tools\MSVC\14.28.29333\include\xmemory

; 810  :         _Deallocate<_New_alignof<_Ty>>(_Ptr, sizeof(_Ty) * _Count);

  0004c	83 c4 08	 add	 esp, 8
; File C:\Program Files (x86)\Microsoft Visual Studio\2019\Community\VC\Tools\MSVC\14.28.29333\include\vector

; 1699 :             _Mylast  = pointer();

  0004f	c7 47 14 00 00
	00 00		 mov	 DWORD PTR [edi+20], 0

; 1700 :             _Myend   = pointer();

  00056	c7 47 18 00 00
	00 00		 mov	 DWORD PTR [edi+24], 0
$LN27@CDynamicPo:

; 1694 :         if (_Myfirst) { // destroy and deallocate old array

  0005d	8b 4f 04	 mov	 ecx, DWORD PTR [edi+4]
  00060	85 c9		 test	 ecx, ecx
  00062	74 27		 je	 SHORT $LN34@CDynamicPo

; 1695 :             _Destroy(_Myfirst, _Mylast);
; 1696 :             _Getal().deallocate(_Myfirst, static_cast<size_type>(_Myend - _Myfirst));

  00064	8b 47 0c	 mov	 eax, DWORD PTR [edi+12]
  00067	2b c1		 sub	 eax, ecx
; File C:\Program Files (x86)\Microsoft Visual Studio\2019\Community\VC\Tools\MSVC\14.28.29333\include\xmemory

; 810  :         _Deallocate<_New_alignof<_Ty>>(_Ptr, sizeof(_Ty) * _Count);

  00069	83 e0 fc	 and	 eax, -4			; fffffffcH
  0006c	50		 push	 eax
  0006d	51		 push	 ecx
  0006e	e8 00 00 00 00	 call	 ??$_Deallocate@$07$0A@@std@@YAXPAXI@Z ; std::_Deallocate<8,0>
; File C:\Program Files (x86)\Microsoft Visual Studio\2019\Community\VC\Tools\MSVC\14.28.29333\include\vector

; 1698 :             _Myfirst = pointer();

  00073	c7 47 04 00 00
	00 00		 mov	 DWORD PTR [edi+4], 0
; File C:\Program Files (x86)\Microsoft Visual Studio\2019\Community\VC\Tools\MSVC\14.28.29333\include\xmemory

; 810  :         _Deallocate<_New_alignof<_Ty>>(_Ptr, sizeof(_Ty) * _Count);

  0007a	83 c4 08	 add	 esp, 8
; File C:\Program Files (x86)\Microsoft Visual Studio\2019\Community\VC\Tools\MSVC\14.28.29333\include\vector

; 1699 :             _Mylast  = pointer();

  0007d	c7 47 08 00 00
	00 00		 mov	 DWORD PTR [edi+8], 0

; 1700 :             _Myend   = pointer();

  00084	c7 47 0c 00 00
	00 00		 mov	 DWORD PTR [edi+12], 0
$LN34@CDynamicPo:
  0008b	5f		 pop	 edi
; File D:\Metin2 Server Files\mainline\SRC_2014\Metin2Client\eterLib\Pool.h

; 142  : 		}

  0008c	5e		 pop	 esi
  0008d	5b		 pop	 ebx
  0008e	c3		 ret	 0
??1?$CDynamicPoolEx@VCRotationDecorator@NEffectUpdateDecorator@@@@UAE@XZ ENDP ; CDynamicPoolEx<NEffectUpdateDecorator::CRotationDecorator>::~CDynamicPoolEx<NEffectUpdateDecorator::CRotationDecorator>
_TEXT	ENDS
; Function compile flags: /Ogtp
; File C:\Program Files (x86)\Microsoft Visual Studio\2019\Community\VC\Tools\MSVC\14.28.29333\include\xtree
; File C:\Program Files (x86)\Microsoft Visual Studio\2019\Community\VC\Tools\MSVC\14.28.29333\include\utility
; File C:\Program Files (x86)\Microsoft Visual Studio\2019\Community\VC\Tools\MSVC\14.28.29333\include\xmemory
; File C:\Program Files (x86)\Microsoft Visual Studio\2019\Community\VC\Tools\MSVC\14.28.29333\include\xtree
;	COMDAT ??$_Erase_tree@V?$allocator@U?$_Tree_node@U?$pair@$$CBKPAVCInstanceBase@@@std@@PAX@std@@@std@@@?$_Tree_val@U?$_Tree_simple_types@U?$pair@$$CBKPAVCInstanceBase@@@std@@@std@@@std@@QAEXAAV?$allocator@U?$_Tree_node@U?$pair@$$CBKPAVCInstanceBase@@@std@@PAX@std@@@1@PAU?$_Tree_node@U?$pair@$$CBKPAVCInstanceBase@@@std@@PAX@1@@Z
_TEXT	SEGMENT
__Al$ = 8						; size = 4
__Rootnode$ = 12					; size = 4
??$_Erase_tree@V?$allocator@U?$_Tree_node@U?$pair@$$CBKPAVCInstanceBase@@@std@@PAX@std@@@std@@@?$_Tree_val@U?$_Tree_simple_types@U?$pair@$$CBKPAVCInstanceBase@@@std@@@std@@@std@@QAEXAAV?$allocator@U?$_Tree_node@U?$pair@$$CBKPAVCInstanceBase@@@std@@PAX@std@@@1@PAU?$_Tree_node@U?$pair@$$CBKPAVCInstanceBase@@@std@@PAX@1@@Z PROC ; std::_Tree_val<std::_Tree_simple_types<std::pair<unsigned long const ,CInstanceBase *> > >::_Erase_tree<std::allocator<std::_Tree_node<std::pair<unsigned long const ,CInstanceBase *>,void *> > >, COMDAT
; _this$ = ecx

; 742  :     void _Erase_tree(_Alnode& _Al, _Nodeptr _Rootnode) noexcept {

  00000	55		 push	 ebp
  00001	8b ec		 mov	 ebp, esp
  00003	53		 push	 ebx
  00004	56		 push	 esi

; 743  :         while (!_Rootnode->_Isnil) { // free subtrees, then node

  00005	8b 75 0c	 mov	 esi, DWORD PTR __Rootnode$[ebp]
  00008	8b d9		 mov	 ebx, ecx
  0000a	80 7e 0d 00	 cmp	 BYTE PTR [esi+13], 0
  0000e	75 25		 jne	 SHORT $LN3@Erase_tree
  00010	57		 push	 edi
  00011	8b 7d 08	 mov	 edi, DWORD PTR __Al$[ebp]
$LL2@Erase_tree:

; 744  :             _Erase_tree(_Al, _Rootnode->_Right);

  00014	ff 76 08	 push	 DWORD PTR [esi+8]
  00017	8b cb		 mov	 ecx, ebx
  00019	57		 push	 edi
  0001a	e8 00 00 00 00	 call	 ??$_Erase_tree@V?$allocator@U?$_Tree_node@U?$pair@$$CBKPAVCInstanceBase@@@std@@PAX@std@@@std@@@?$_Tree_val@U?$_Tree_simple_types@U?$pair@$$CBKPAVCInstanceBase@@@std@@@std@@@std@@QAEXAAV?$allocator@U?$_Tree_node@U?$pair@$$CBKPAVCInstanceBase@@@std@@PAX@std@@@1@PAU?$_Tree_node@U?$pair@$$CBKPAVCInstanceBase@@@std@@PAX@1@@Z ; std::_Tree_val<std::_Tree_simple_types<std::pair<unsigned long const ,CInstanceBase *> > >::_Erase_tree<std::allocator<std::_Tree_node<std::pair<unsigned long const ,CInstanceBase *>,void *> > >
; File C:\Program Files (x86)\Microsoft Visual Studio\2019\Community\VC\Tools\MSVC\14.28.29333\include\utility

; 598  :     _Ty _Old_val = static_cast<_Ty&&>(_Val);

  0001f	8b c6		 mov	 eax, esi

; 599  :     _Val         = static_cast<_Other&&>(_New_val);

  00021	8b 36		 mov	 esi, DWORD PTR [esi]
; File C:\Program Files (x86)\Microsoft Visual Studio\2019\Community\VC\Tools\MSVC\14.28.29333\include\xmemory

; 696  :         _Deallocate<_New_alignof<value_type>>(_Ptr, sizeof(value_type) * _Count);

  00023	6a 18		 push	 24			; 00000018H
  00025	50		 push	 eax
  00026	e8 00 00 00 00	 call	 ??$_Deallocate@$07$0A@@std@@YAXPAXI@Z ; std::_Deallocate<8,0>
  0002b	83 c4 08	 add	 esp, 8
; File C:\Program Files (x86)\Microsoft Visual Studio\2019\Community\VC\Tools\MSVC\14.28.29333\include\xtree

; 743  :         while (!_Rootnode->_Isnil) { // free subtrees, then node

  0002e	80 7e 0d 00	 cmp	 BYTE PTR [esi+13], 0
  00032	74 e0		 je	 SHORT $LL2@Erase_tree
  00034	5f		 pop	 edi
$LN3@Erase_tree:
  00035	5e		 pop	 esi

; 745  :             _Alnode::value_type::_Freenode(_Al, _STD exchange(_Rootnode, _Rootnode->_Left));
; 746  :         }
; 747  :     }

  00036	5b		 pop	 ebx
  00037	5d		 pop	 ebp
  00038	c2 08 00	 ret	 8
??$_Erase_tree@V?$allocator@U?$_Tree_node@U?$pair@$$CBKPAVCInstanceBase@@@std@@PAX@std@@@std@@@?$_Tree_val@U?$_Tree_simple_types@U?$pair@$$CBKPAVCInstanceBase@@@std@@@std@@@std@@QAEXAAV?$allocator@U?$_Tree_node@U?$pair@$$CBKPAVCInstanceBase@@@std@@PAX@std@@@1@PAU?$_Tree_node@U?$pair@$$CBKPAVCInstanceBase@@@std@@PAX@1@@Z ENDP ; std::_Tree_val<std::_Tree_simple_types<std::pair<unsigned long const ,CInstanceBase *> > >::_Erase_tree<std::allocator<std::_Tree_node<std::pair<unsigned long const ,CInstanceBase *>,void *> > >
_TEXT	ENDS
; Function compile flags: /Ogtp
; File C:\Program Files (x86)\Microsoft Visual Studio\2019\Community\VC\Tools\MSVC\14.28.29333\include\vector
; File C:\Program Files (x86)\Microsoft Visual Studio\2019\Community\VC\Tools\MSVC\14.28.29333\include\xmemory
; File C:\Program Files (x86)\Microsoft Visual Studio\2019\Community\VC\Tools\MSVC\14.28.29333\include\vector
; File C:\Program Files (x86)\Microsoft Visual Studio\2019\Community\VC\Tools\MSVC\14.28.29333\include\xmemory
; File C:\Program Files (x86)\Microsoft Visual Studio\2019\Community\VC\Tools\MSVC\14.28.29333\include\vector
; File C:\Program Files (x86)\Microsoft Visual Studio\2019\Community\VC\Tools\MSVC\14.28.29333\include\xmemory
; File C:\Program Files (x86)\Microsoft Visual Studio\2019\Community\VC\Tools\MSVC\14.28.29333\include\vector
; File C:\Program Files (x86)\Microsoft Visual Studio\2019\Community\VC\Tools\MSVC\14.28.29333\include\xmemory
; File C:\Program Files (x86)\Microsoft Visual Studio\2019\Community\VC\Tools\MSVC\14.28.29333\include\vector
; File C:\Program Files (x86)\Microsoft Visual Studio\2019\Community\VC\Tools\MSVC\14.28.29333\include\xmemory
; File C:\Program Files (x86)\Microsoft Visual Studio\2019\Community\VC\Tools\MSVC\14.28.29333\include\vector
; File C:\Program Files (x86)\Microsoft Visual Studio\2019\Community\VC\Tools\MSVC\14.28.29333\include\xmemory
; File C:\Program Files (x86)\Microsoft Visual Studio\2019\Community\VC\Tools\MSVC\14.28.29333\include\vector
;	COMDAT ??$_Emplace_reallocate@ABQAVCInstanceBase@@@?$vector@PAVCInstanceBase@@V?$allocator@PAVCInstanceBase@@@std@@@std@@QAEPAPAVCInstanceBase@@QAPAV2@ABQAV2@@Z
_TEXT	SEGMENT
tv435 = -12						; size = 4
__Newsize$1$ = -8					; size = 4
tv434 = -4						; size = 4
__Whereptr$ = 8						; size = 4
_<_Val_0>$ = 12						; size = 4
??$_Emplace_reallocate@ABQAVCInstanceBase@@@?$vector@PAVCInstanceBase@@V?$allocator@PAVCInstanceBase@@@std@@@std@@QAEPAPAVCInstanceBase@@QAPAV2@ABQAV2@@Z PROC ; std::vector<CInstanceBase *,std::allocator<CInstanceBase *> >::_Emplace_reallocate<CInstanceBase * const &>, COMDAT
; _this$ = ecx

; 725  :     pointer _Emplace_reallocate(const pointer _Whereptr, _Valty&&... _Val) {

  00000	55		 push	 ebp
  00001	8b ec		 mov	 ebp, esp
  00003	83 ec 0c	 sub	 esp, 12			; 0000000cH
  00006	53		 push	 ebx

; 726  :         // reallocate and insert by perfectly forwarding _Val at _Whereptr
; 727  :         _Alty& _Al        = _Getal();
; 728  :         auto& _My_data    = _Mypair._Myval2;
; 729  :         pointer& _Myfirst = _My_data._Myfirst;
; 730  :         pointer& _Mylast  = _My_data._Mylast;
; 731  : 
; 732  :         _STL_INTERNAL_CHECK(_Mylast == _My_data._Myend); // check that we have no unused capacity
; 733  : 
; 734  :         const auto _Whereoff = static_cast<size_type>(_Whereptr - _Myfirst);

  00007	8b 5d 08	 mov	 ebx, DWORD PTR __Whereptr$[ebp]
  0000a	56		 push	 esi
  0000b	8b f1		 mov	 esi, ecx
  0000d	57		 push	 edi
  0000e	8b 16		 mov	 edx, DWORD PTR [esi]
  00010	2b da		 sub	 ebx, edx

; 735  :         const auto _Oldsize  = static_cast<size_type>(_Mylast - _Myfirst);

  00012	8b 46 04	 mov	 eax, DWORD PTR [esi+4]
  00015	2b c2		 sub	 eax, edx
  00017	c1 fb 02	 sar	 ebx, 2
  0001a	c1 f8 02	 sar	 eax, 2

; 736  : 
; 737  :         if (_Oldsize == max_size()) {

  0001d	3d ff ff ff 3f	 cmp	 eax, 1073741823		; 3fffffffH
  00022	0f 84 c4 00 00
	00		 je	 $LN39@Emplace_re

; 1494 :         return static_cast<size_type>(_My_data._Myend - _My_data._Myfirst);

  00028	8b 4e 08	 mov	 ecx, DWORD PTR [esi+8]

; 739  :         }
; 740  : 
; 741  :         const size_type _Newsize     = _Oldsize + 1;

  0002b	8d 78 01	 lea	 edi, DWORD PTR [eax+1]

; 1494 :         return static_cast<size_type>(_My_data._Myend - _My_data._Myfirst);

  0002e	2b ca		 sub	 ecx, edx

; 739  :         }
; 740  : 
; 741  :         const size_type _Newsize     = _Oldsize + 1;

  00030	89 7d f8	 mov	 DWORD PTR __Newsize$1$[ebp], edi

; 1494 :         return static_cast<size_type>(_My_data._Myend - _My_data._Myfirst);

  00033	c1 f9 02	 sar	 ecx, 2

; 1620 :         if (_Oldcapacity > _Max - _Oldcapacity / 2) {

  00036	b8 ff ff ff 3f	 mov	 eax, 1073741823		; 3fffffffH
  0003b	8b d1		 mov	 edx, ecx
  0003d	d1 ea		 shr	 edx, 1
  0003f	2b c2		 sub	 eax, edx
  00041	3b c8		 cmp	 ecx, eax
  00043	76 3a		 jbe	 SHORT $LN12@Emplace_re

; 1621 :             return _Max; // geometric growth would overflow

  00045	b9 ff ff ff 3f	 mov	 ecx, 1073741823		; 3fffffffH
$LN20@Emplace_re:
; File C:\Program Files (x86)\Microsoft Visual Studio\2019\Community\VC\Tools\MSVC\14.28.29333\include\xmemory

; 65   :     return _Count * _Ty_size;

  0004a	8d 04 8d 00 00
	00 00		 lea	 eax, DWORD PTR [ecx*4]

; 814  :         return static_cast<_Ty*>(_Allocate<_New_alignof<_Ty>>(_Get_size_of_n<sizeof(_Ty)>(_Count)));

  00051	50		 push	 eax

; 65   :     return _Count * _Ty_size;

  00052	89 45 f4	 mov	 DWORD PTR tv435[ebp], eax

; 814  :         return static_cast<_Ty*>(_Allocate<_New_alignof<_Ty>>(_Get_size_of_n<sizeof(_Ty)>(_Count)));

  00055	e8 00 00 00 00	 call	 ??$_Allocate@$07U_Default_allocate_traits@std@@$0A@@std@@YAPAXI@Z ; std::_Allocate<8,std::_Default_allocate_traits,0>
; File C:\Program Files (x86)\Microsoft Visual Studio\2019\Community\VC\Tools\MSVC\14.28.29333\include\vector

; 749  :         _Alty_traits::construct(_Al, _Unfancy(_Newvec + _Whereoff), _STD forward<_Valty>(_Val)...);

  0005a	8b 4d 0c	 mov	 ecx, DWORD PTR _<_Val_0>$[ebp]
; File C:\Program Files (x86)\Microsoft Visual Studio\2019\Community\VC\Tools\MSVC\14.28.29333\include\xmemory

; 814  :         return static_cast<_Ty*>(_Allocate<_New_alignof<_Ty>>(_Get_size_of_n<sizeof(_Ty)>(_Count)));

  0005d	8b f8		 mov	 edi, eax
; File C:\Program Files (x86)\Microsoft Visual Studio\2019\Community\VC\Tools\MSVC\14.28.29333\include\vector

; 749  :         _Alty_traits::construct(_Al, _Unfancy(_Newvec + _Whereoff), _STD forward<_Valty>(_Val)...);

  0005f	8d 04 9f	 lea	 eax, DWORD PTR [edi+ebx*4]
; File C:\Program Files (x86)\Microsoft Visual Studio\2019\Community\VC\Tools\MSVC\14.28.29333\include\xmemory

; 814  :         return static_cast<_Ty*>(_Allocate<_New_alignof<_Ty>>(_Get_size_of_n<sizeof(_Ty)>(_Count)));

  00062	83 c4 04	 add	 esp, 4
; File C:\Program Files (x86)\Microsoft Visual Studio\2019\Community\VC\Tools\MSVC\14.28.29333\include\vector

; 752  :         if (_Whereptr == _Mylast) { // at back, provide strong guarantee

  00065	8b 5d 08	 mov	 ebx, DWORD PTR __Whereptr$[ebp]
  00068	89 45 fc	 mov	 DWORD PTR tv434[ebp], eax
  0006b	8b 09		 mov	 ecx, DWORD PTR [ecx]
  0006d	89 08		 mov	 DWORD PTR [eax], ecx
  0006f	8b 56 04	 mov	 edx, DWORD PTR [esi+4]
  00072	8b 0e		 mov	 ecx, DWORD PTR [esi]
  00074	3b da		 cmp	 ebx, edx
  00076	75 1b		 jne	 SHORT $LN4@Emplace_re

; 753  :             _Umove_if_noexcept(_Myfirst, _Mylast, _Newvec);
; 754  :         } else { // provide basic guarantee

  00078	8b 5d fc	 mov	 ebx, DWORD PTR tv434[ebp]

; 1597 :         _Uninitialized_move(_First, _Last, _Dest, _Getal());

  0007b	8b c7		 mov	 eax, edi

; 753  :             _Umove_if_noexcept(_Myfirst, _Mylast, _Newvec);
; 754  :         } else { // provide basic guarantee

  0007d	eb 2b		 jmp	 SHORT $LN5@Emplace_re
$LN12@Emplace_re:

; 1624 :         const size_type _Geometric = _Oldcapacity + _Oldcapacity / 2;

  0007f	8d 04 0a	 lea	 eax, DWORD PTR [edx+ecx]
; File C:\Program Files (x86)\Microsoft Visual Studio\2019\Community\VC\Tools\MSVC\14.28.29333\include\xmemory

; 60   :         if (_Count > _Max_possible) {

  00082	8b cf		 mov	 ecx, edi
  00084	3b c7		 cmp	 eax, edi
  00086	0f 43 c8	 cmovae	 ecx, eax
  00089	81 f9 ff ff ff
	3f		 cmp	 ecx, 1073741823		; 3fffffffH
  0008f	77 60		 ja	 SHORT $LN40@Emplace_re
  00091	eb b7		 jmp	 SHORT $LN20@Emplace_re
$LN4@Emplace_re:
; File C:\Program Files (x86)\Microsoft Visual Studio\2019\Community\VC\Tools\MSVC\14.28.29333\include\vector

; 1592 :         return _Uninitialized_move(_First, _Last, _Dest, _Getal());

  00093	56		 push	 esi
  00094	57		 push	 edi
  00095	53		 push	 ebx
  00096	51		 push	 ecx
  00097	e8 00 00 00 00	 call	 ??$_Uninitialized_move@PAPAVCInstanceBase@@V?$allocator@PAVCInstanceBase@@@std@@@std@@YAPAPAVCInstanceBase@@QAPAV1@0PAPAV1@AAV?$allocator@PAVCInstanceBase@@@0@@Z ; std::_Uninitialized_move<CInstanceBase * *,std::allocator<CInstanceBase *> >
  0009c	8b 56 04	 mov	 edx, DWORD PTR [esi+4]
  0009f	8b cb		 mov	 ecx, ebx

; 755  :             _Umove(_Myfirst, _Whereptr, _Newvec);
; 756  :             _Constructed_first = _Newvec;
; 757  :             _Umove(_Whereptr, _Mylast, _Newvec + _Whereoff + 1);

  000a1	8b 5d fc	 mov	 ebx, DWORD PTR tv434[ebp]

; 1592 :         return _Uninitialized_move(_First, _Last, _Dest, _Getal());

  000a4	83 c4 10	 add	 esp, 16			; 00000010H

; 755  :             _Umove(_Myfirst, _Whereptr, _Newvec);
; 756  :             _Constructed_first = _Newvec;
; 757  :             _Umove(_Whereptr, _Mylast, _Newvec + _Whereoff + 1);

  000a7	8d 43 04	 lea	 eax, DWORD PTR [ebx+4]
$LN5@Emplace_re:
  000aa	56		 push	 esi
  000ab	50		 push	 eax
  000ac	52		 push	 edx
  000ad	51		 push	 ecx
  000ae	e8 00 00 00 00	 call	 ??$_Uninitialized_move@PAPAVCInstanceBase@@V?$allocator@PAVCInstanceBase@@@std@@@std@@YAPAPAVCInstanceBase@@QAPAV1@0PAPAV1@AAV?$allocator@PAVCInstanceBase@@@0@@Z ; std::_Uninitialized_move<CInstanceBase * *,std::allocator<CInstanceBase *> >

; 1676 :         if (_Myfirst) { // destroy and deallocate old array

  000b3	8b 0e		 mov	 ecx, DWORD PTR [esi]

; 755  :             _Umove(_Myfirst, _Whereptr, _Newvec);
; 756  :             _Constructed_first = _Newvec;
; 757  :             _Umove(_Whereptr, _Mylast, _Newvec + _Whereoff + 1);

  000b5	83 c4 10	 add	 esp, 16			; 00000010H

; 1676 :         if (_Myfirst) { // destroy and deallocate old array

  000b8	85 c9		 test	 ecx, ecx
  000ba	74 12		 je	 SHORT $LN33@Emplace_re

; 1677 :             _Destroy(_Myfirst, _Mylast);
; 1678 :             _Getal().deallocate(_Myfirst, static_cast<size_type>(_Myend - _Myfirst));

  000bc	8b 46 08	 mov	 eax, DWORD PTR [esi+8]
  000bf	2b c1		 sub	 eax, ecx
; File C:\Program Files (x86)\Microsoft Visual Studio\2019\Community\VC\Tools\MSVC\14.28.29333\include\xmemory

; 810  :         _Deallocate<_New_alignof<_Ty>>(_Ptr, sizeof(_Ty) * _Count);

  000c1	83 e0 fc	 and	 eax, -4			; fffffffcH
  000c4	50		 push	 eax
  000c5	51		 push	 ecx
  000c6	e8 00 00 00 00	 call	 ??$_Deallocate@$07$0A@@std@@YAXPAXI@Z ; std::_Deallocate<8,0>
  000cb	83 c4 08	 add	 esp, 8
$LN33@Emplace_re:
; File C:\Program Files (x86)\Microsoft Visual Studio\2019\Community\VC\Tools\MSVC\14.28.29333\include\vector

; 1682 :         _Mylast  = _Newvec + _Newsize;

  000ce	8b 45 f8	 mov	 eax, DWORD PTR __Newsize$1$[ebp]
  000d1	89 3e		 mov	 DWORD PTR [esi], edi
  000d3	8d 0c 87	 lea	 ecx, DWORD PTR [edi+eax*4]

; 758  :         }
; 759  :         _CATCH_ALL
; 760  :         _Destroy(_Constructed_first, _Constructed_last);
; 761  :         _Al.deallocate(_Newvec, _Newcapacity);
; 762  :         _RERAISE;
; 763  :         _CATCH_END
; 764  : 
; 765  :         _Change_array(_Newvec, _Newsize, _Newcapacity);
; 766  :         return _Newvec + _Whereoff;

  000d6	8b c3		 mov	 eax, ebx

; 1682 :         _Mylast  = _Newvec + _Newsize;

  000d8	89 4e 04	 mov	 DWORD PTR [esi+4], ecx

; 1683 :         _Myend   = _Newvec + _Newcapacity;

  000db	8b 4d f4	 mov	 ecx, DWORD PTR tv435[ebp]
  000de	03 cf		 add	 ecx, edi

; 758  :         }
; 759  :         _CATCH_ALL
; 760  :         _Destroy(_Constructed_first, _Constructed_last);
; 761  :         _Al.deallocate(_Newvec, _Newcapacity);
; 762  :         _RERAISE;
; 763  :         _CATCH_END
; 764  : 
; 765  :         _Change_array(_Newvec, _Newsize, _Newcapacity);
; 766  :         return _Newvec + _Whereoff;

  000e0	5f		 pop	 edi

; 1683 :         _Myend   = _Newvec + _Newcapacity;

  000e1	89 4e 08	 mov	 DWORD PTR [esi+8], ecx

; 758  :         }
; 759  :         _CATCH_ALL
; 760  :         _Destroy(_Constructed_first, _Constructed_last);
; 761  :         _Al.deallocate(_Newvec, _Newcapacity);
; 762  :         _RERAISE;
; 763  :         _CATCH_END
; 764  : 
; 765  :         _Change_array(_Newvec, _Newsize, _Newcapacity);
; 766  :         return _Newvec + _Whereoff;

  000e4	5e		 pop	 esi
  000e5	5b		 pop	 ebx

; 767  :     }

  000e6	8b e5		 mov	 esp, ebp
  000e8	5d		 pop	 ebp
  000e9	c2 08 00	 ret	 8
$LN39@Emplace_re:

; 738  :             _Xlength();

  000ec	e8 00 00 00 00	 call	 ?_Xlength@?$vector@PAVCInstanceBase@@V?$allocator@PAVCInstanceBase@@@std@@@std@@CAXXZ ; std::vector<CInstanceBase *,std::allocator<CInstanceBase *> >::_Xlength
$LN40@Emplace_re:
; File C:\Program Files (x86)\Microsoft Visual Studio\2019\Community\VC\Tools\MSVC\14.28.29333\include\xmemory

; 61   :             _Throw_bad_array_new_length(); // multiply overflow

  000f1	e8 00 00 00 00	 call	 ?_Throw_bad_array_new_length@std@@YAXXZ ; std::_Throw_bad_array_new_length
$LN37@Emplace_re:
  000f6	cc		 int	 3
??$_Emplace_reallocate@ABQAVCInstanceBase@@@?$vector@PAVCInstanceBase@@V?$allocator@PAVCInstanceBase@@@std@@@std@@QAEPAPAVCInstanceBase@@QAPAV2@ABQAV2@@Z ENDP ; std::vector<CInstanceBase *,std::allocator<CInstanceBase *> >::_Emplace_reallocate<CInstanceBase * const &>
_TEXT	ENDS
; Function compile flags: /Ogtp
; File C:\Program Files (x86)\Microsoft Visual Studio\2019\Community\VC\Tools\MSVC\14.28.29333\include\vector
; File C:\Program Files (x86)\Microsoft Visual Studio\2019\Community\VC\Tools\MSVC\14.28.29333\include\xmemory
; File C:\Program Files (x86)\Microsoft Visual Studio\2019\Community\VC\Tools\MSVC\14.28.29333\include\vector
;	COMDAT ??__Fs_kVct_pkInstDeadSort@?1??__RenderSortedDeadActorList@CPythonCharacterManager@@IAEXXZ@YAXXZ
text$yd	SEGMENT
??__Fs_kVct_pkInstDeadSort@?1??__RenderSortedDeadActorList@CPythonCharacterManager@@IAEXXZ@YAXXZ PROC ; `CPythonCharacterManager::__RenderSortedDeadActorList'::`2'::`dynamic atexit destructor for 's_kVct_pkInstDeadSort'', COMDAT

; 1694 :         if (_Myfirst) { // destroy and deallocate old array

  00000	8b 0d 00 00 00
	00		 mov	 ecx, DWORD PTR ?s_kVct_pkInstDeadSort@?1??__RenderSortedDeadActorList@CPythonCharacterManager@@IAEXXZ@4V?$vector@PAVCInstanceBase@@V?$allocator@PAVCInstanceBase@@@std@@@std@@A
  00006	85 c9		 test	 ecx, ecx
  00008	74 32		 je	 SHORT $LN6@dynamic

; 1695 :             _Destroy(_Myfirst, _Mylast);
; 1696 :             _Getal().deallocate(_Myfirst, static_cast<size_type>(_Myend - _Myfirst));

  0000a	a1 08 00 00 00	 mov	 eax, DWORD PTR ?s_kVct_pkInstDeadSort@?1??__RenderSortedDeadActorList@CPythonCharacterManager@@IAEXXZ@4V?$vector@PAVCInstanceBase@@V?$allocator@PAVCInstanceBase@@@std@@@std@@A+8
  0000f	2b c1		 sub	 eax, ecx
; File C:\Program Files (x86)\Microsoft Visual Studio\2019\Community\VC\Tools\MSVC\14.28.29333\include\xmemory

; 810  :         _Deallocate<_New_alignof<_Ty>>(_Ptr, sizeof(_Ty) * _Count);

  00011	83 e0 fc	 and	 eax, -4			; fffffffcH
  00014	50		 push	 eax
  00015	51		 push	 ecx
  00016	e8 00 00 00 00	 call	 ??$_Deallocate@$07$0A@@std@@YAXPAXI@Z ; std::_Deallocate<8,0>
  0001b	83 c4 08	 add	 esp, 8
; File C:\Program Files (x86)\Microsoft Visual Studio\2019\Community\VC\Tools\MSVC\14.28.29333\include\vector

; 1698 :             _Myfirst = pointer();

  0001e	c7 05 00 00 00
	00 00 00 00 00	 mov	 DWORD PTR ?s_kVct_pkInstDeadSort@?1??__RenderSortedDeadActorList@CPythonCharacterManager@@IAEXXZ@4V?$vector@PAVCInstanceBase@@V?$allocator@PAVCInstanceBase@@@std@@@std@@A, 0

; 1699 :             _Mylast  = pointer();

  00028	c7 05 04 00 00
	00 00 00 00 00	 mov	 DWORD PTR ?s_kVct_pkInstDeadSort@?1??__RenderSortedDeadActorList@CPythonCharacterManager@@IAEXXZ@4V?$vector@PAVCInstanceBase@@V?$allocator@PAVCInstanceBase@@@std@@@std@@A+4, 0

; 1700 :             _Myend   = pointer();

  00032	c7 05 08 00 00
	00 00 00 00 00	 mov	 DWORD PTR ?s_kVct_pkInstDeadSort@?1??__RenderSortedDeadActorList@CPythonCharacterManager@@IAEXXZ@4V?$vector@PAVCInstanceBase@@V?$allocator@PAVCInstanceBase@@@std@@@std@@A+8, 0
$LN6@dynamic:
  0003c	c3		 ret	 0
??__Fs_kVct_pkInstDeadSort@?1??__RenderSortedDeadActorList@CPythonCharacterManager@@IAEXXZ@YAXXZ ENDP ; `CPythonCharacterManager::__RenderSortedDeadActorList'::`2'::`dynamic atexit destructor for 's_kVct_pkInstDeadSort''
text$yd	ENDS
; Function compile flags: /Ogtp
; File C:\Program Files (x86)\Microsoft Visual Studio\2019\Community\VC\Tools\MSVC\14.28.29333\include\vector
; File C:\Program Files (x86)\Microsoft Visual Studio\2019\Community\VC\Tools\MSVC\14.28.29333\include\xmemory
; File C:\Program Files (x86)\Microsoft Visual Studio\2019\Community\VC\Tools\MSVC\14.28.29333\include\vector
;	COMDAT ??__Fs_kVct_pkInstAliveSort@?1??__RenderSortedAliveActorList@CPythonCharacterManager@@IAEXXZ@YAXXZ
text$yd	SEGMENT
??__Fs_kVct_pkInstAliveSort@?1??__RenderSortedAliveActorList@CPythonCharacterManager@@IAEXXZ@YAXXZ PROC ; `CPythonCharacterManager::__RenderSortedAliveActorList'::`2'::`dynamic atexit destructor for 's_kVct_pkInstAliveSort'', COMDAT

; 1694 :         if (_Myfirst) { // destroy and deallocate old array

  00000	8b 0d 00 00 00
	00		 mov	 ecx, DWORD PTR ?s_kVct_pkInstAliveSort@?1??__RenderSortedAliveActorList@CPythonCharacterManager@@IAEXXZ@4V?$vector@PAVCInstanceBase@@V?$allocator@PAVCInstanceBase@@@std@@@std@@A
  00006	85 c9		 test	 ecx, ecx
  00008	74 32		 je	 SHORT $LN6@dynamic

; 1695 :             _Destroy(_Myfirst, _Mylast);
; 1696 :             _Getal().deallocate(_Myfirst, static_cast<size_type>(_Myend - _Myfirst));

  0000a	a1 08 00 00 00	 mov	 eax, DWORD PTR ?s_kVct_pkInstAliveSort@?1??__RenderSortedAliveActorList@CPythonCharacterManager@@IAEXXZ@4V?$vector@PAVCInstanceBase@@V?$allocator@PAVCInstanceBase@@@std@@@std@@A+8
  0000f	2b c1		 sub	 eax, ecx
; File C:\Program Files (x86)\Microsoft Visual Studio\2019\Community\VC\Tools\MSVC\14.28.29333\include\xmemory

; 810  :         _Deallocate<_New_alignof<_Ty>>(_Ptr, sizeof(_Ty) * _Count);

  00011	83 e0 fc	 and	 eax, -4			; fffffffcH
  00014	50		 push	 eax
  00015	51		 push	 ecx
  00016	e8 00 00 00 00	 call	 ??$_Deallocate@$07$0A@@std@@YAXPAXI@Z ; std::_Deallocate<8,0>
  0001b	83 c4 08	 add	 esp, 8
; File C:\Program Files (x86)\Microsoft Visual Studio\2019\Community\VC\Tools\MSVC\14.28.29333\include\vector

; 1698 :             _Myfirst = pointer();

  0001e	c7 05 00 00 00
	00 00 00 00 00	 mov	 DWORD PTR ?s_kVct_pkInstAliveSort@?1??__RenderSortedAliveActorList@CPythonCharacterManager@@IAEXXZ@4V?$vector@PAVCInstanceBase@@V?$allocator@PAVCInstanceBase@@@std@@@std@@A, 0

; 1699 :             _Mylast  = pointer();

  00028	c7 05 04 00 00
	00 00 00 00 00	 mov	 DWORD PTR ?s_kVct_pkInstAliveSort@?1??__RenderSortedAliveActorList@CPythonCharacterManager@@IAEXXZ@4V?$vector@PAVCInstanceBase@@V?$allocator@PAVCInstanceBase@@@std@@@std@@A+4, 0

; 1700 :             _Myend   = pointer();

  00032	c7 05 08 00 00
	00 00 00 00 00	 mov	 DWORD PTR ?s_kVct_pkInstAliveSort@?1??__RenderSortedAliveActorList@CPythonCharacterManager@@IAEXXZ@4V?$vector@PAVCInstanceBase@@V?$allocator@PAVCInstanceBase@@@std@@@std@@A+8, 0
$LN6@dynamic:
  0003c	c3		 ret	 0
??__Fs_kVct_pkInstAliveSort@?1??__RenderSortedAliveActorList@CPythonCharacterManager@@IAEXXZ@YAXXZ ENDP ; `CPythonCharacterManager::__RenderSortedAliveActorList'::`2'::`dynamic atexit destructor for 's_kVct_pkInstAliveSort''
text$yd	ENDS
; Function compile flags: /Ogtp
;	COMDAT ??_GCPythonCharacterManager@@UAEPAXI@Z
_TEXT	SEGMENT
___flags$ = 8						; size = 4
??_GCPythonCharacterManager@@UAEPAXI@Z PROC		; CPythonCharacterManager::`scalar deleting destructor', COMDAT
; _this$ = ecx
  00000	55		 push	 ebp
  00001	8b ec		 mov	 ebp, esp
  00003	56		 push	 esi
  00004	8b f1		 mov	 esi, ecx
  00006	e8 00 00 00 00	 call	 ??1CPythonCharacterManager@@UAE@XZ ; CPythonCharacterManager::~CPythonCharacterManager
  0000b	f6 45 08 01	 test	 BYTE PTR ___flags$[ebp], 1
  0000f	74 0e		 je	 SHORT $LN4@scalar
  00011	68 38 04 00 00	 push	 1080			; 00000438H
  00016	56		 push	 esi
  00017	e8 00 00 00 00	 call	 ??3@YAXPAXI@Z		; operator delete
  0001c	83 c4 08	 add	 esp, 8
$LN4@scalar:
  0001f	8b c6		 mov	 eax, esi
  00021	5e		 pop	 esi
  00022	5d		 pop	 ebp
  00023	c2 04 00	 ret	 4
??_GCPythonCharacterManager@@UAEPAXI@Z ENDP		; CPythonCharacterManager::`scalar deleting destructor'
_TEXT	ENDS
; Function compile flags: /Ogtp
; File C:\Program Files (x86)\Microsoft Visual Studio\2019\Community\VC\Tools\MSVC\14.28.29333\include\xtree
;	COMDAT ??E?$_Tree_unchecked_const_iterator@V?$_Tree_val@U?$_Tree_simple_types@U?$pair@$$CBKPAVCInstanceBase@@@std@@@std@@@std@@U_Iterator_base0@2@@std@@QAEAAV01@XZ
_TEXT	SEGMENT
??E?$_Tree_unchecked_const_iterator@V?$_Tree_val@U?$_Tree_simple_types@U?$pair@$$CBKPAVCInstanceBase@@@std@@@std@@@std@@U_Iterator_base0@2@@std@@QAEAAV01@XZ PROC ; std::_Tree_unchecked_const_iterator<std::_Tree_val<std::_Tree_simple_types<std::pair<unsigned long const ,CInstanceBase *> > >,std::_Iterator_base0>::operator++, COMDAT
; _this$ = ecx

; 51   :     _Tree_unchecked_const_iterator& operator++() noexcept {

  00000	56		 push	 esi
  00001	8b f1		 mov	 esi, ecx
  00003	57		 push	 edi

; 52   :         if (_Ptr->_Right->_Isnil) { // climb looking for right subtree

  00004	8b 16		 mov	 edx, DWORD PTR [esi]
  00006	8b 7a 08	 mov	 edi, DWORD PTR [edx+8]
  00009	80 7f 0d 00	 cmp	 BYTE PTR [edi+13], 0
  0000d	74 22		 je	 SHORT $LN4@operator

; 53   :             _Nodeptr _Pnode;
; 54   :             while (!(_Pnode = _Ptr->_Parent)->_Isnil && _Ptr == _Pnode->_Right) {

  0000f	8b 42 04	 mov	 eax, DWORD PTR [edx+4]
  00012	80 78 0d 00	 cmp	 BYTE PTR [eax+13], 0
  00016	75 12		 jne	 SHORT $LN19@operator
$LL2@operator:
  00018	3b 50 08	 cmp	 edx, DWORD PTR [eax+8]
  0001b	75 0d		 jne	 SHORT $LN19@operator

; 55   :                 _Ptr = _Pnode; // ==> parent while right subtree

  0001d	89 06		 mov	 DWORD PTR [esi], eax
  0001f	8b d0		 mov	 edx, eax
  00021	8b 40 04	 mov	 eax, DWORD PTR [eax+4]
  00024	80 78 0d 00	 cmp	 BYTE PTR [eax+13], 0
  00028	74 ee		 je	 SHORT $LL2@operator
$LN19@operator:

; 56   :             }
; 57   : 
; 58   :             _Ptr = _Pnode; // ==> parent (head if end())
; 59   :         } else {
; 60   :             _Ptr = _Mytree::_Min(_Ptr->_Right); // ==> smallest of right subtree
; 61   :         }
; 62   : 
; 63   :         return *this;

  0002a	89 06		 mov	 DWORD PTR [esi], eax

; 64   :     }

  0002c	8b c6		 mov	 eax, esi
  0002e	5f		 pop	 edi
  0002f	5e		 pop	 esi
  00030	c3		 ret	 0
$LN4@operator:

; 451  :         while (!_Pnode->_Left->_Isnil) {

  00031	8b 0f		 mov	 ecx, DWORD PTR [edi]
  00033	80 79 0d 00	 cmp	 BYTE PTR [ecx+13], 0
  00037	75 13		 jne	 SHORT $LN9@operator
  00039	0f 1f 80 00 00
	00 00		 npad	 7
$LL8@operator:
  00040	8b 01		 mov	 eax, DWORD PTR [ecx]

; 452  :             _Pnode = _Pnode->_Left;

  00042	8b f9		 mov	 edi, ecx
  00044	8b c8		 mov	 ecx, eax
  00046	80 78 0d 00	 cmp	 BYTE PTR [eax+13], 0
  0004a	74 f4		 je	 SHORT $LL8@operator
$LN9@operator:

; 56   :             }
; 57   : 
; 58   :             _Ptr = _Pnode; // ==> parent (head if end())
; 59   :         } else {
; 60   :             _Ptr = _Mytree::_Min(_Ptr->_Right); // ==> smallest of right subtree
; 61   :         }
; 62   : 
; 63   :         return *this;

  0004c	89 3e		 mov	 DWORD PTR [esi], edi

; 64   :     }

  0004e	8b c6		 mov	 eax, esi
  00050	5f		 pop	 edi
  00051	5e		 pop	 esi
  00052	c3		 ret	 0
??E?$_Tree_unchecked_const_iterator@V?$_Tree_val@U?$_Tree_simple_types@U?$pair@$$CBKPAVCInstanceBase@@@std@@@std@@@std@@U_Iterator_base0@2@@std@@QAEAAV01@XZ ENDP ; std::_Tree_unchecked_const_iterator<std::_Tree_val<std::_Tree_simple_types<std::pair<unsigned long const ,CInstanceBase *> > >,std::_Iterator_base0>::operator++
_TEXT	ENDS
; Function compile flags: /Ogtp
; File C:\Program Files (x86)\Microsoft Visual Studio\2019\Community\VC\Tools\MSVC\14.28.29333\include\vector
;	COMDAT ?_Xlength@?$vector@PAVCInstanceBase@@V?$allocator@PAVCInstanceBase@@@std@@@std@@CAXXZ
_TEXT	SEGMENT
?_Xlength@?$vector@PAVCInstanceBase@@V?$allocator@PAVCInstanceBase@@@std@@@std@@CAXXZ PROC ; std::vector<CInstanceBase *,std::allocator<CInstanceBase *> >::_Xlength, COMDAT

; 1705 :         _Xlength_error("vector too long");

  00000	68 00 00 00 00	 push	 OFFSET ??_C@_0BA@FOIKENOD@vector?5too?5long@
  00005	e8 00 00 00 00	 call	 ?_Xlength_error@std@@YAXPBD@Z ; std::_Xlength_error
$LN3@Xlength:
  0000a	cc		 int	 3
?_Xlength@?$vector@PAVCInstanceBase@@V?$allocator@PAVCInstanceBase@@@std@@@std@@CAXXZ ENDP ; std::vector<CInstanceBase *,std::allocator<CInstanceBase *> >::_Xlength
_TEXT	ENDS
; Function compile flags: /Ogtp
;	COMDAT ??1?$map@KPAVCInstanceBase@@U?$less@K@std@@V?$allocator@U?$pair@$$CBKPAVCInstanceBase@@@std@@@3@@std@@QAE@XZ
_TEXT	SEGMENT
??1?$map@KPAVCInstanceBase@@U?$less@K@std@@V?$allocator@U?$pair@$$CBKPAVCInstanceBase@@@std@@@3@@std@@QAE@XZ PROC ; std::map<unsigned long,CInstanceBase *,std::less<unsigned long>,std::allocator<std::pair<unsigned long const ,CInstanceBase *> > >::~map<unsigned long,CInstanceBase *,std::less<unsigned long>,std::allocator<std::pair<unsigned long const ,CInstanceBase *> > >, COMDAT
; _this$ = ecx
  00000	e9 00 00 00 00	 jmp	 ??1?$_Tree@V?$_Tmap_traits@KPAVCInstanceBase@@U?$less@K@std@@V?$allocator@U?$pair@$$CBKPAVCInstanceBase@@@std@@@3@$0A@@std@@@std@@QAE@XZ ; std::_Tree<std::_Tmap_traits<unsigned long,CInstanceBase *,std::less<unsigned long>,std::allocator<std::pair<unsigned long const ,CInstanceBase *> >,0> >::~_Tree<std::_Tmap_traits<unsigned long,CInstanceBase *,std::less<unsigned long>,std::allocator<std::pair<unsigned long const ,CInstanceBase *> >,0> >
??1?$map@KPAVCInstanceBase@@U?$less@K@std@@V?$allocator@U?$pair@$$CBKPAVCInstanceBase@@@std@@@3@@std@@QAE@XZ ENDP ; std::map<unsigned long,CInstanceBase *,std::less<unsigned long>,std::allocator<std::pair<unsigned long const ,CInstanceBase *> > >::~map<unsigned long,CInstanceBase *,std::less<unsigned long>,std::allocator<std::pair<unsigned long const ,CInstanceBase *> > >
_TEXT	ENDS
; Function compile flags: /Ogtp
; File C:\Program Files (x86)\Microsoft Visual Studio\2019\Community\VC\Tools\MSVC\14.28.29333\include\xtree
;	COMDAT ?_Insert_node@?$_Tree_val@U?$_Tree_simple_types@U?$pair@$$CBKPAVCInstanceBase@@@std@@@std@@@std@@QAEPAU?$_Tree_node@U?$pair@$$CBKPAVCInstanceBase@@@std@@PAX@2@U?$_Tree_id@PAU?$_Tree_node@U?$pair@$$CBKPAVCInstanceBase@@@std@@PAX@std@@@2@QAU32@@Z
_TEXT	SEGMENT
__Head$1$ = -8						; size = 4
_this$1$ = -4						; size = 4
__Loc$ = 8						; size = 8
__Newnode$ = 16						; size = 4
?_Insert_node@?$_Tree_val@U?$_Tree_simple_types@U?$pair@$$CBKPAVCInstanceBase@@@std@@@std@@@std@@QAEPAU?$_Tree_node@U?$pair@$$CBKPAVCInstanceBase@@@std@@PAX@2@U?$_Tree_id@PAU?$_Tree_node@U?$pair@$$CBKPAVCInstanceBase@@@std@@PAX@std@@@2@QAU32@@Z PROC ; std::_Tree_val<std::_Tree_simple_types<std::pair<unsigned long const ,CInstanceBase *> > >::_Insert_node, COMDAT
; _this$ = ecx

; 644  :     _Nodeptr _Insert_node(const _Tree_id<_Nodeptr> _Loc, const _Nodeptr _Newnode) noexcept {

  00000	55		 push	 ebp
  00001	8b ec		 mov	 ebp, esp
  00003	83 ec 08	 sub	 esp, 8

; 645  :         ++_Mysize;
; 646  :         const auto _Head  = _Myhead;
; 647  :         _Newnode->_Parent = _Loc._Parent;

  00006	8b 55 08	 mov	 edx, DWORD PTR __Loc$[ebp]
  00009	8b c1		 mov	 eax, ecx
  0000b	89 45 fc	 mov	 DWORD PTR _this$1$[ebp], eax
  0000e	8b 08		 mov	 ecx, DWORD PTR [eax]
  00010	ff 40 04	 inc	 DWORD PTR [eax+4]
  00013	8b 45 10	 mov	 eax, DWORD PTR __Newnode$[ebp]
  00016	89 4d f8	 mov	 DWORD PTR __Head$1$[ebp], ecx
  00019	89 50 04	 mov	 DWORD PTR [eax+4], edx

; 648  :         if (_Loc._Parent == _Head) { // first node in tree, just set head values

  0001c	3b d1		 cmp	 edx, ecx
  0001e	75 12		 jne	 SHORT $LN5@Insert_nod

; 649  :             _Head->_Left     = _Newnode;

  00020	89 01		 mov	 DWORD PTR [ecx], eax

; 650  :             _Head->_Parent   = _Newnode;

  00022	89 41 04	 mov	 DWORD PTR [ecx+4], eax

; 651  :             _Head->_Right    = _Newnode;

  00025	89 41 08	 mov	 DWORD PTR [ecx+8], eax

; 652  :             _Newnode->_Color = _Black; // the root is black

  00028	c6 40 0c 01	 mov	 BYTE PTR [eax+12], 1

; 711  :     }

  0002c	8b e5		 mov	 esp, ebp
  0002e	5d		 pop	 ebp
  0002f	c2 0c 00	 ret	 12			; 0000000cH
$LN5@Insert_nod:

; 653  :             return _Newnode;
; 654  :         }
; 655  : 
; 656  :         _STL_INTERNAL_CHECK(_Loc._Child != _Tree_child::_Unused);
; 657  :         if (_Loc._Child == _Tree_child::_Right) { // add to right of _Loc._Parent

  00032	83 7d 0c 00	 cmp	 DWORD PTR __Loc$[ebp+4], 0
  00036	75 0d		 jne	 SHORT $LN6@Insert_nod

; 658  :             _STL_INTERNAL_CHECK(_Loc._Parent->_Right->_Isnil);
; 659  :             _Loc._Parent->_Right = _Newnode;

  00038	89 42 08	 mov	 DWORD PTR [edx+8], eax

; 660  :             if (_Loc._Parent == _Head->_Right) { // remember rightmost node

  0003b	3b 51 08	 cmp	 edx, DWORD PTR [ecx+8]
  0003e	75 0d		 jne	 SHORT $LN9@Insert_nod

; 661  :                 _Head->_Right = _Newnode;

  00040	89 41 08	 mov	 DWORD PTR [ecx+8], eax

; 662  :             }
; 663  :         } else { // add to left of _Loc._Parent

  00043	eb 08		 jmp	 SHORT $LN9@Insert_nod
$LN6@Insert_nod:

; 664  :             _STL_INTERNAL_CHECK(_Loc._Parent->_Left->_Isnil);
; 665  :             _Loc._Parent->_Left = _Newnode;

  00045	89 02		 mov	 DWORD PTR [edx], eax

; 666  :             if (_Loc._Parent == _Head->_Left) { // remember leftmost node

  00047	3b 11		 cmp	 edx, DWORD PTR [ecx]
  00049	75 02		 jne	 SHORT $LN9@Insert_nod

; 667  :                 _Head->_Left = _Newnode;

  0004b	89 01		 mov	 DWORD PTR [ecx], eax
$LN9@Insert_nod:

; 668  :             }
; 669  :         }
; 670  : 
; 671  :         for (_Nodeptr _Pnode = _Newnode; _Pnode->_Parent->_Color == _Red;) {

  0004d	8b d0		 mov	 edx, eax
  0004f	8b 40 04	 mov	 eax, DWORD PTR [eax+4]
  00052	80 78 0c 00	 cmp	 BYTE PTR [eax+12], 0
  00056	0f 85 99 01 00
	00		 jne	 $LN3@Insert_nod
  0005c	53		 push	 ebx
  0005d	56		 push	 esi
  0005e	57		 push	 edi
  0005f	90		 npad	 1
$LL2@Insert_nod:

; 672  :             if (_Pnode->_Parent == _Pnode->_Parent->_Parent->_Left) { // fixup red-red in left subtree

  00060	8b 4a 04	 mov	 ecx, DWORD PTR [edx+4]
  00063	8d 7a 04	 lea	 edi, DWORD PTR [edx+4]
  00066	8b 71 04	 mov	 esi, DWORD PTR [ecx+4]
  00069	8d 59 04	 lea	 ebx, DWORD PTR [ecx+4]
  0006c	8b 06		 mov	 eax, DWORD PTR [esi]
  0006e	3b c8		 cmp	 ecx, eax
  00070	0f 85 ba 00 00
	00		 jne	 $LN10@Insert_nod

; 673  :                 const auto _Parent_sibling = _Pnode->_Parent->_Parent->_Right;

  00076	8b 46 08	 mov	 eax, DWORD PTR [esi+8]

; 674  :                 if (_Parent_sibling->_Color == _Red) { // parent's sibling has two red children, blacken both

  00079	80 78 0c 00	 cmp	 BYTE PTR [eax+12], 0
  0007d	0f 84 b3 00 00
	00		 je	 $LN53@Insert_nod

; 675  :                     _Pnode->_Parent->_Color          = _Black;
; 676  :                     _Parent_sibling->_Color          = _Black;
; 677  :                     _Pnode->_Parent->_Parent->_Color = _Red;
; 678  :                     _Pnode                           = _Pnode->_Parent->_Parent;
; 679  :                 } else { // parent's sibling has red and black children
; 680  :                     if (_Pnode == _Pnode->_Parent->_Right) { // rotate right child to left

  00083	8b 71 08	 mov	 esi, DWORD PTR [ecx+8]
  00086	3b d6		 cmp	 edx, esi
  00088	75 47		 jne	 SHORT $LN51@Insert_nod

; 460  :         _Wherenode->_Right = _Pnode->_Left;

  0008a	8b 06		 mov	 eax, DWORD PTR [esi]

; 681  :                         _Pnode = _Pnode->_Parent;

  0008c	8b d1		 mov	 edx, ecx

; 460  :         _Wherenode->_Right = _Pnode->_Left;

  0008e	89 42 08	 mov	 DWORD PTR [edx+8], eax

; 461  : 
; 462  :         if (!_Pnode->_Left->_Isnil) {

  00091	8b 06		 mov	 eax, DWORD PTR [esi]
  00093	80 78 0d 00	 cmp	 BYTE PTR [eax+13], 0
  00097	75 03		 jne	 SHORT $LN20@Insert_nod

; 463  :             _Pnode->_Left->_Parent = _Wherenode;

  00099	89 50 04	 mov	 DWORD PTR [eax+4], edx
$LN20@Insert_nod:

; 464  :         }
; 465  : 
; 466  :         _Pnode->_Parent = _Wherenode->_Parent;

  0009c	8b 03		 mov	 eax, DWORD PTR [ebx]
  0009e	89 46 04	 mov	 DWORD PTR [esi+4], eax

; 467  : 
; 468  :         if (_Wherenode == _Myhead->_Parent) {

  000a1	8b 45 fc	 mov	 eax, DWORD PTR _this$1$[ebp]
  000a4	8b 00		 mov	 eax, DWORD PTR [eax]
  000a6	3b 50 04	 cmp	 edx, DWORD PTR [eax+4]
  000a9	75 0b		 jne	 SHORT $LN21@Insert_nod

; 469  :             _Myhead->_Parent = _Pnode;

  000ab	89 70 04	 mov	 DWORD PTR [eax+4], esi

; 477  :         _Wherenode->_Parent = _Pnode;

  000ae	8b fb		 mov	 edi, ebx
  000b0	89 16		 mov	 DWORD PTR [esi], edx
  000b2	89 33		 mov	 DWORD PTR [ebx], esi
  000b4	eb 1d		 jmp	 SHORT $LN49@Insert_nod
$LN21@Insert_nod:

; 470  :         } else if (_Wherenode == _Wherenode->_Parent->_Left) {

  000b6	8b 03		 mov	 eax, DWORD PTR [ebx]
  000b8	3b 10		 cmp	 edx, DWORD PTR [eax]
  000ba	75 0a		 jne	 SHORT $LN23@Insert_nod

; 471  :             _Wherenode->_Parent->_Left = _Pnode;

  000bc	89 30		 mov	 DWORD PTR [eax], esi

; 477  :         _Wherenode->_Parent = _Pnode;

  000be	8b fb		 mov	 edi, ebx
  000c0	89 16		 mov	 DWORD PTR [esi], edx
  000c2	89 33		 mov	 DWORD PTR [ebx], esi
  000c4	eb 0d		 jmp	 SHORT $LN49@Insert_nod
$LN23@Insert_nod:

; 473  :             _Wherenode->_Parent->_Right = _Pnode;

  000c6	89 70 08	 mov	 DWORD PTR [eax+8], esi

; 477  :         _Wherenode->_Parent = _Pnode;

  000c9	8b fb		 mov	 edi, ebx
  000cb	89 16		 mov	 DWORD PTR [esi], edx
  000cd	89 33		 mov	 DWORD PTR [ebx], esi
  000cf	eb 02		 jmp	 SHORT $LN49@Insert_nod
$LN51@Insert_nod:
  000d1	8b f1		 mov	 esi, ecx
$LN49@Insert_nod:

; 682  :                         _Lrotate(_Pnode);
; 683  :                     }
; 684  : 
; 685  :                     _Pnode->_Parent->_Color          = _Black; // propagate red up

  000d3	c6 46 0c 01	 mov	 BYTE PTR [esi+12], 1

; 686  :                     _Pnode->_Parent->_Parent->_Color = _Red;

  000d7	8b 07		 mov	 eax, DWORD PTR [edi]
  000d9	8b 40 04	 mov	 eax, DWORD PTR [eax+4]
  000dc	c6 40 0c 00	 mov	 BYTE PTR [eax+12], 0

; 687  :                     _Rrotate(_Pnode->_Parent->_Parent);

  000e0	8b 07		 mov	 eax, DWORD PTR [edi]
  000e2	8b 48 04	 mov	 ecx, DWORD PTR [eax+4]

; 481  :         _Nodeptr _Pnode   = _Wherenode->_Left;

  000e5	8b 31		 mov	 esi, DWORD PTR [ecx]

; 482  :         _Wherenode->_Left = _Pnode->_Right;

  000e7	8b 46 08	 mov	 eax, DWORD PTR [esi+8]
  000ea	89 01		 mov	 DWORD PTR [ecx], eax

; 483  : 
; 484  :         if (!_Pnode->_Right->_Isnil) {

  000ec	8b 46 08	 mov	 eax, DWORD PTR [esi+8]
  000ef	80 78 0d 00	 cmp	 BYTE PTR [eax+13], 0
  000f3	75 03		 jne	 SHORT $LN27@Insert_nod

; 485  :             _Pnode->_Right->_Parent = _Wherenode;

  000f5	89 48 04	 mov	 DWORD PTR [eax+4], ecx
$LN27@Insert_nod:

; 486  :         }
; 487  : 
; 488  :         _Pnode->_Parent = _Wherenode->_Parent;

  000f8	8b 41 04	 mov	 eax, DWORD PTR [ecx+4]
  000fb	89 46 04	 mov	 DWORD PTR [esi+4], eax

; 489  : 
; 490  :         if (_Wherenode == _Myhead->_Parent) {

  000fe	8b 45 fc	 mov	 eax, DWORD PTR _this$1$[ebp]
  00101	8b 00		 mov	 eax, DWORD PTR [eax]
  00103	3b 48 04	 cmp	 ecx, DWORD PTR [eax+4]
  00106	75 0b		 jne	 SHORT $LN28@Insert_nod

; 491  :             _Myhead->_Parent = _Pnode;

  00108	89 70 04	 mov	 DWORD PTR [eax+4], esi

; 496  :         }
; 497  : 
; 498  :         _Pnode->_Right      = _Wherenode;

  0010b	89 4e 08	 mov	 DWORD PTR [esi+8], ecx

; 688  :                 }
; 689  :             } else { // fixup red-red in right subtree

  0010e	e9 cc 00 00 00	 jmp	 $LN52@Insert_nod
$LN28@Insert_nod:

; 492  :         } else if (_Wherenode == _Wherenode->_Parent->_Right) {

  00113	8b 41 04	 mov	 eax, DWORD PTR [ecx+4]
  00116	3b 48 08	 cmp	 ecx, DWORD PTR [eax+8]
  00119	75 0b		 jne	 SHORT $LN30@Insert_nod

; 493  :             _Wherenode->_Parent->_Right = _Pnode;

  0011b	89 70 08	 mov	 DWORD PTR [eax+8], esi

; 496  :         }
; 497  : 
; 498  :         _Pnode->_Right      = _Wherenode;

  0011e	89 4e 08	 mov	 DWORD PTR [esi+8], ecx

; 688  :                 }
; 689  :             } else { // fixup red-red in right subtree

  00121	e9 b9 00 00 00	 jmp	 $LN52@Insert_nod
$LN30@Insert_nod:

; 495  :             _Wherenode->_Parent->_Left = _Pnode;

  00126	89 30		 mov	 DWORD PTR [eax], esi

; 496  :         }
; 497  : 
; 498  :         _Pnode->_Right      = _Wherenode;

  00128	89 4e 08	 mov	 DWORD PTR [esi+8], ecx

; 688  :                 }
; 689  :             } else { // fixup red-red in right subtree

  0012b	e9 af 00 00 00	 jmp	 $LN52@Insert_nod
$LN10@Insert_nod:

; 690  :                 const auto _Parent_sibling = _Pnode->_Parent->_Parent->_Left;
; 691  :                 if (_Parent_sibling->_Color == _Red) { // parent's sibling has two red children, blacken both

  00130	80 78 0c 00	 cmp	 BYTE PTR [eax+12], 0
  00134	75 1b		 jne	 SHORT $LN15@Insert_nod
$LN53@Insert_nod:

; 668  :             }
; 669  :         }
; 670  : 
; 671  :         for (_Nodeptr _Pnode = _Newnode; _Pnode->_Parent->_Color == _Red;) {

  00136	c6 41 0c 01	 mov	 BYTE PTR [ecx+12], 1
  0013a	c6 40 0c 01	 mov	 BYTE PTR [eax+12], 1
  0013e	8b 07		 mov	 eax, DWORD PTR [edi]
  00140	8b 40 04	 mov	 eax, DWORD PTR [eax+4]
  00143	c6 40 0c 00	 mov	 BYTE PTR [eax+12], 0
  00147	8b 07		 mov	 eax, DWORD PTR [edi]
  00149	8b 50 04	 mov	 edx, DWORD PTR [eax+4]
  0014c	e9 91 00 00 00	 jmp	 $LN46@Insert_nod
$LN15@Insert_nod:

; 692  :                     _Pnode->_Parent->_Color          = _Black;
; 693  :                     _Parent_sibling->_Color          = _Black;
; 694  :                     _Pnode->_Parent->_Parent->_Color = _Red;
; 695  :                     _Pnode                           = _Pnode->_Parent->_Parent;
; 696  :                 } else { // parent's sibling has red and black children
; 697  :                     if (_Pnode == _Pnode->_Parent->_Left) { // rotate left child to right

  00151	8b 01		 mov	 eax, DWORD PTR [ecx]
  00153	3b d0		 cmp	 edx, eax
  00155	75 3e		 jne	 SHORT $LN39@Insert_nod

; 698  :                         _Pnode = _Pnode->_Parent;

  00157	8b d1		 mov	 edx, ecx

; 481  :         _Nodeptr _Pnode   = _Wherenode->_Left;

  00159	8b c8		 mov	 ecx, eax

; 482  :         _Wherenode->_Left = _Pnode->_Right;

  0015b	8b 41 08	 mov	 eax, DWORD PTR [ecx+8]
  0015e	89 02		 mov	 DWORD PTR [edx], eax

; 483  : 
; 484  :         if (!_Pnode->_Right->_Isnil) {

  00160	8b 41 08	 mov	 eax, DWORD PTR [ecx+8]
  00163	80 78 0d 00	 cmp	 BYTE PTR [eax+13], 0
  00167	75 03		 jne	 SHORT $LN34@Insert_nod

; 485  :             _Pnode->_Right->_Parent = _Wherenode;

  00169	89 50 04	 mov	 DWORD PTR [eax+4], edx
$LN34@Insert_nod:

; 486  :         }
; 487  : 
; 488  :         _Pnode->_Parent = _Wherenode->_Parent;

  0016c	8b 03		 mov	 eax, DWORD PTR [ebx]
  0016e	89 41 04	 mov	 DWORD PTR [ecx+4], eax

; 489  : 
; 490  :         if (_Wherenode == _Myhead->_Parent) {

  00171	8b 45 fc	 mov	 eax, DWORD PTR _this$1$[ebp]
  00174	8b 00		 mov	 eax, DWORD PTR [eax]
  00176	3b 50 04	 cmp	 edx, DWORD PTR [eax+4]
  00179	75 05		 jne	 SHORT $LN35@Insert_nod

; 491  :             _Myhead->_Parent = _Pnode;

  0017b	89 48 04	 mov	 DWORD PTR [eax+4], ecx
  0017e	eb 0e		 jmp	 SHORT $LN38@Insert_nod
$LN35@Insert_nod:

; 492  :         } else if (_Wherenode == _Wherenode->_Parent->_Right) {

  00180	8b 03		 mov	 eax, DWORD PTR [ebx]
  00182	3b 50 08	 cmp	 edx, DWORD PTR [eax+8]
  00185	75 05		 jne	 SHORT $LN37@Insert_nod

; 493  :             _Wherenode->_Parent->_Right = _Pnode;

  00187	89 48 08	 mov	 DWORD PTR [eax+8], ecx

; 494  :         } else {

  0018a	eb 02		 jmp	 SHORT $LN38@Insert_nod
$LN37@Insert_nod:

; 495  :             _Wherenode->_Parent->_Left = _Pnode;

  0018c	89 08		 mov	 DWORD PTR [eax], ecx
$LN38@Insert_nod:

; 496  :         }
; 497  : 
; 498  :         _Pnode->_Right      = _Wherenode;

  0018e	89 51 08	 mov	 DWORD PTR [ecx+8], edx

; 499  :         _Wherenode->_Parent = _Pnode;

  00191	8b fb		 mov	 edi, ebx
  00193	89 0b		 mov	 DWORD PTR [ebx], ecx
$LN39@Insert_nod:

; 699  :                         _Rrotate(_Pnode);
; 700  :                     }
; 701  : 
; 702  :                     _Pnode->_Parent->_Color          = _Black; // propagate red up

  00195	c6 41 0c 01	 mov	 BYTE PTR [ecx+12], 1

; 703  :                     _Pnode->_Parent->_Parent->_Color = _Red;

  00199	8b 07		 mov	 eax, DWORD PTR [edi]
  0019b	8b 40 04	 mov	 eax, DWORD PTR [eax+4]
  0019e	c6 40 0c 00	 mov	 BYTE PTR [eax+12], 0

; 704  :                     _Lrotate(_Pnode->_Parent->_Parent);

  001a2	8b 07		 mov	 eax, DWORD PTR [edi]
  001a4	8b 48 04	 mov	 ecx, DWORD PTR [eax+4]

; 459  :         _Nodeptr _Pnode    = _Wherenode->_Right;

  001a7	8b 71 08	 mov	 esi, DWORD PTR [ecx+8]

; 460  :         _Wherenode->_Right = _Pnode->_Left;

  001aa	8b 06		 mov	 eax, DWORD PTR [esi]
  001ac	89 41 08	 mov	 DWORD PTR [ecx+8], eax

; 461  : 
; 462  :         if (!_Pnode->_Left->_Isnil) {

  001af	8b 06		 mov	 eax, DWORD PTR [esi]
  001b1	80 78 0d 00	 cmp	 BYTE PTR [eax+13], 0
  001b5	75 03		 jne	 SHORT $LN41@Insert_nod

; 463  :             _Pnode->_Left->_Parent = _Wherenode;

  001b7	89 48 04	 mov	 DWORD PTR [eax+4], ecx
$LN41@Insert_nod:

; 464  :         }
; 465  : 
; 466  :         _Pnode->_Parent = _Wherenode->_Parent;

  001ba	8b 41 04	 mov	 eax, DWORD PTR [ecx+4]
  001bd	89 46 04	 mov	 DWORD PTR [esi+4], eax

; 467  : 
; 468  :         if (_Wherenode == _Myhead->_Parent) {

  001c0	8b 45 fc	 mov	 eax, DWORD PTR _this$1$[ebp]
  001c3	8b 00		 mov	 eax, DWORD PTR [eax]
  001c5	3b 48 04	 cmp	 ecx, DWORD PTR [eax+4]
  001c8	75 05		 jne	 SHORT $LN42@Insert_nod

; 469  :             _Myhead->_Parent = _Pnode;

  001ca	89 70 04	 mov	 DWORD PTR [eax+4], esi
  001cd	eb 0e		 jmp	 SHORT $LN45@Insert_nod
$LN42@Insert_nod:

; 470  :         } else if (_Wherenode == _Wherenode->_Parent->_Left) {

  001cf	8b 41 04	 mov	 eax, DWORD PTR [ecx+4]
  001d2	3b 08		 cmp	 ecx, DWORD PTR [eax]
  001d4	75 04		 jne	 SHORT $LN44@Insert_nod

; 471  :             _Wherenode->_Parent->_Left = _Pnode;

  001d6	89 30		 mov	 DWORD PTR [eax], esi

; 472  :         } else {

  001d8	eb 03		 jmp	 SHORT $LN45@Insert_nod
$LN44@Insert_nod:

; 473  :             _Wherenode->_Parent->_Right = _Pnode;

  001da	89 70 08	 mov	 DWORD PTR [eax+8], esi
$LN45@Insert_nod:

; 474  :         }
; 475  : 
; 476  :         _Pnode->_Left       = _Wherenode;

  001dd	89 0e		 mov	 DWORD PTR [esi], ecx
$LN52@Insert_nod:

; 668  :             }
; 669  :         }
; 670  : 
; 671  :         for (_Nodeptr _Pnode = _Newnode; _Pnode->_Parent->_Color == _Red;) {

  001df	89 71 04	 mov	 DWORD PTR [ecx+4], esi
$LN46@Insert_nod:
  001e2	8b 42 04	 mov	 eax, DWORD PTR [edx+4]
  001e5	80 78 0c 00	 cmp	 BYTE PTR [eax+12], 0
  001e9	0f 84 71 fe ff
	ff		 je	 $LL2@Insert_nod
  001ef	8b 4d f8	 mov	 ecx, DWORD PTR __Head$1$[ebp]
  001f2	5f		 pop	 edi
  001f3	5e		 pop	 esi
  001f4	5b		 pop	 ebx
$LN3@Insert_nod:

; 705  :                 }
; 706  :             }
; 707  :         }
; 708  : 
; 709  :         _Head->_Parent->_Color = _Black; // root is always black

  001f5	8b 41 04	 mov	 eax, DWORD PTR [ecx+4]
  001f8	c6 40 0c 01	 mov	 BYTE PTR [eax+12], 1

; 710  :         return _Newnode;

  001fc	8b 45 10	 mov	 eax, DWORD PTR __Newnode$[ebp]

; 711  :     }

  001ff	8b e5		 mov	 esp, ebp
  00201	5d		 pop	 ebp
  00202	c2 0c 00	 ret	 12			; 0000000cH
?_Insert_node@?$_Tree_val@U?$_Tree_simple_types@U?$pair@$$CBKPAVCInstanceBase@@@std@@@std@@@std@@QAEPAU?$_Tree_node@U?$pair@$$CBKPAVCInstanceBase@@@std@@PAX@2@U?$_Tree_id@PAU?$_Tree_node@U?$pair@$$CBKPAVCInstanceBase@@@std@@PAX@std@@@2@QAU32@@Z ENDP ; std::_Tree_val<std::_Tree_simple_types<std::pair<unsigned long const ,CInstanceBase *> > >::_Insert_node
_TEXT	ENDS
; Function compile flags: /Ogtp
; File C:\Program Files (x86)\Microsoft Visual Studio\2019\Community\VC\Tools\MSVC\14.28.29333\include\xtree
; File C:\Program Files (x86)\Microsoft Visual Studio\2019\Community\VC\Tools\MSVC\14.28.29333\include\utility
; File C:\Program Files (x86)\Microsoft Visual Studio\2019\Community\VC\Tools\MSVC\14.28.29333\include\xtree
; File C:\Program Files (x86)\Microsoft Visual Studio\2019\Community\VC\Tools\MSVC\14.28.29333\include\utility
; File C:\Program Files (x86)\Microsoft Visual Studio\2019\Community\VC\Tools\MSVC\14.28.29333\include\xtree
;	COMDAT ?_Extract@?$_Tree_val@U?$_Tree_simple_types@U?$pair@$$CBKPAVCInstanceBase@@@std@@@std@@@std@@QAEPAU?$_Tree_node@U?$pair@$$CBKPAVCInstanceBase@@@std@@PAX@2@V?$_Tree_unchecked_const_iterator@V?$_Tree_val@U?$_Tree_simple_types@U?$pair@$$CBKPAVCInstanceBase@@@std@@@std@@@std@@U_Iterator_base0@2@@2@@Z
_TEXT	SEGMENT
tv1186 = -8						; size = 4
tv1182 = -8						; size = 4
tv1149 = -8						; size = 4
__Erasednode$1$ = -4					; size = 4
__Where$ = 8						; size = 4
?_Extract@?$_Tree_val@U?$_Tree_simple_types@U?$pair@$$CBKPAVCInstanceBase@@@std@@@std@@@std@@QAEPAU?$_Tree_node@U?$pair@$$CBKPAVCInstanceBase@@@std@@PAX@2@V?$_Tree_unchecked_const_iterator@V?$_Tree_val@U?$_Tree_simple_types@U?$pair@$$CBKPAVCInstanceBase@@@std@@@std@@@std@@U_Iterator_base0@2@@2@@Z PROC ; std::_Tree_val<std::_Tree_simple_types<std::pair<unsigned long const ,CInstanceBase *> > >::_Extract, COMDAT
; _this$ = ecx

; 502  :     _Nodeptr _Extract(_Unchecked_const_iterator _Where) noexcept {

  00000	55		 push	 ebp
  00001	8b ec		 mov	 ebp, esp
  00003	83 ec 08	 sub	 esp, 8

; 503  :         _Nodeptr _Erasednode = _Where._Ptr; // node to erase

  00006	8b 45 08	 mov	 eax, DWORD PTR __Where$[ebp]
  00009	53		 push	 ebx
  0000a	56		 push	 esi
  0000b	8b d9		 mov	 ebx, ecx
  0000d	89 45 fc	 mov	 DWORD PTR __Erasednode$1$[ebp], eax
  00010	57		 push	 edi

; 504  :         ++_Where; // save successor iterator for return

  00011	8d 4d 08	 lea	 ecx, DWORD PTR __Where$[ebp]
  00014	e8 00 00 00 00	 call	 ??E?$_Tree_unchecked_const_iterator@V?$_Tree_val@U?$_Tree_simple_types@U?$pair@$$CBKPAVCInstanceBase@@@std@@@std@@@std@@U_Iterator_base0@2@@std@@QAEAAV01@XZ ; std::_Tree_unchecked_const_iterator<std::_Tree_val<std::_Tree_simple_types<std::pair<unsigned long const ,CInstanceBase *> > >,std::_Iterator_base0>::operator++

; 505  : 
; 506  :         _Nodeptr _Fixnode; // the node to recolor as needed
; 507  :         _Nodeptr _Fixnodeparent; // parent of _Fixnode (which may be nil)
; 508  :         _Nodeptr _Pnode = _Erasednode;
; 509  : 
; 510  :         if (_Pnode->_Left->_Isnil) {

  00019	8b 55 fc	 mov	 edx, DWORD PTR __Erasednode$1$[ebp]
  0001c	8b 02		 mov	 eax, DWORD PTR [edx]
  0001e	8b 7a 08	 mov	 edi, DWORD PTR [edx+8]
  00021	80 78 0d 00	 cmp	 BYTE PTR [eax+13], 0
  00025	75 18		 jne	 SHORT $LN86@Extract

; 511  :             _Fixnode = _Pnode->_Right; // stitch up right subtree
; 512  :         } else if (_Pnode->_Right->_Isnil) {

  00027	80 7f 0d 00	 cmp	 BYTE PTR [edi+13], 0
  0002b	74 04		 je	 SHORT $LN7@Extract

; 513  :             _Fixnode = _Pnode->_Left; // stitch up left subtree

  0002d	8b f8		 mov	 edi, eax

; 514  :         } else { // two subtrees, must lift successor node to replace erased

  0002f	eb 0e		 jmp	 SHORT $LN86@Extract
$LN7@Extract:

; 515  :             _Pnode   = _Where._Ptr; // _Pnode is successor node

  00031	8b 4d 08	 mov	 ecx, DWORD PTR __Where$[ebp]

; 516  :             _Fixnode = _Pnode->_Right; // _Fixnode is only subtree

  00034	8b 79 08	 mov	 edi, DWORD PTR [ecx+8]
  00037	3b ca		 cmp	 ecx, edx

; 517  :         }
; 518  : 
; 519  :         if (_Pnode == _Erasednode) { // at most one subtree, relink it

  00039	0f 85 8b 00 00
	00		 jne	 $LN9@Extract
$LN86@Extract:

; 520  :             _Fixnodeparent = _Erasednode->_Parent;
; 521  :             if (!_Fixnode->_Isnil) {

  0003f	80 7f 0d 00	 cmp	 BYTE PTR [edi+13], 0
  00043	8b 72 04	 mov	 esi, DWORD PTR [edx+4]
  00046	75 03		 jne	 SHORT $LN11@Extract

; 522  :                 _Fixnode->_Parent = _Fixnodeparent; // link up

  00048	89 77 04	 mov	 DWORD PTR [edi+4], esi
$LN11@Extract:

; 523  :             }
; 524  : 
; 525  :             if (_Myhead->_Parent == _Erasednode) {

  0004b	8b 03		 mov	 eax, DWORD PTR [ebx]
  0004d	39 50 04	 cmp	 DWORD PTR [eax+4], edx
  00050	75 05		 jne	 SHORT $LN12@Extract

; 526  :                 _Myhead->_Parent = _Fixnode; // link down from root

  00052	89 78 04	 mov	 DWORD PTR [eax+4], edi
  00055	eb 0b		 jmp	 SHORT $LN15@Extract
$LN12@Extract:

; 527  :             } else if (_Fixnodeparent->_Left == _Erasednode) {

  00057	39 16		 cmp	 DWORD PTR [esi], edx
  00059	75 04		 jne	 SHORT $LN14@Extract

; 528  :                 _Fixnodeparent->_Left = _Fixnode; // link down to left

  0005b	89 3e		 mov	 DWORD PTR [esi], edi

; 529  :             } else {

  0005d	eb 03		 jmp	 SHORT $LN15@Extract
$LN14@Extract:

; 530  :                 _Fixnodeparent->_Right = _Fixnode; // link down to right

  0005f	89 7e 08	 mov	 DWORD PTR [esi+8], edi
$LN15@Extract:

; 531  :             }
; 532  : 
; 533  :             if (_Myhead->_Left == _Erasednode) {

  00062	8b 03		 mov	 eax, DWORD PTR [ebx]
  00064	39 10		 cmp	 DWORD PTR [eax], edx
  00066	75 2b		 jne	 SHORT $LN16@Extract

; 534  :                 _Myhead->_Left = _Fixnode->_Isnil ? _Fixnodeparent // smallest is parent of erased node

  00068	80 7f 0d 00	 cmp	 BYTE PTR [edi+13], 0
  0006c	74 04		 je	 SHORT $LN42@Extract
  0006e	8b d6		 mov	 edx, esi
  00070	eb 1c		 jmp	 SHORT $LN48@Extract
$LN42@Extract:

; 451  :         while (!_Pnode->_Left->_Isnil) {

  00072	8b 0f		 mov	 ecx, DWORD PTR [edi]

; 534  :                 _Myhead->_Left = _Fixnode->_Isnil ? _Fixnodeparent // smallest is parent of erased node

  00074	8b d7		 mov	 edx, edi

; 451  :         while (!_Pnode->_Left->_Isnil) {

  00076	80 79 0d 00	 cmp	 BYTE PTR [ecx+13], 0
  0007a	75 12		 jne	 SHORT $LN48@Extract
  0007c	0f 1f 40 00	 npad	 4
$LL47@Extract:
  00080	8b 01		 mov	 eax, DWORD PTR [ecx]

; 452  :             _Pnode = _Pnode->_Left;

  00082	8b d1		 mov	 edx, ecx
  00084	8b c8		 mov	 ecx, eax
  00086	80 78 0d 00	 cmp	 BYTE PTR [eax+13], 0
  0008a	74 f4		 je	 SHORT $LL47@Extract
  0008c	8b 03		 mov	 eax, DWORD PTR [ebx]
$LN48@Extract:

; 534  :                 _Myhead->_Left = _Fixnode->_Isnil ? _Fixnodeparent // smallest is parent of erased node

  0008e	89 10		 mov	 DWORD PTR [eax], edx
  00090	8b 55 fc	 mov	 edx, DWORD PTR __Erasednode$1$[ebp]
$LN16@Extract:

; 535  :                                                   : _Min(_Fixnode); // smallest in relinked subtree
; 536  :             }
; 537  : 
; 538  :             if (_Myhead->_Right == _Erasednode) {

  00093	8b 03		 mov	 eax, DWORD PTR [ebx]
  00095	39 50 08	 cmp	 DWORD PTR [eax+8], edx
  00098	75 2b		 jne	 SHORT $LN17@Extract

; 539  :                 _Myhead->_Right = _Fixnode->_Isnil ? _Fixnodeparent // largest is parent of erased node

  0009a	80 7f 0d 00	 cmp	 BYTE PTR [edi+13], 0
  0009e	74 0a		 je	 SHORT $LN44@Extract
  000a0	8b ce		 mov	 ecx, esi
  000a2	89 48 08	 mov	 DWORD PTR [eax+8], ecx

; 540  :                                                    : _Max(_Fixnode); // largest in relinked subtree
; 541  :             }
; 542  :         } else { // erased has two subtrees, _Pnode is successor to erased

  000a5	8a 52 0c	 mov	 dl, BYTE PTR [edx+12]
  000a8	eb 7c		 jmp	 SHORT $LN55@Extract
$LN44@Extract:

; 443  :         while (!_Pnode->_Right->_Isnil) {

  000aa	8b 47 08	 mov	 eax, DWORD PTR [edi+8]

; 539  :                 _Myhead->_Right = _Fixnode->_Isnil ? _Fixnodeparent // largest is parent of erased node

  000ad	8b cf		 mov	 ecx, edi

; 443  :         while (!_Pnode->_Right->_Isnil) {

  000af	80 78 0d 00	 cmp	 BYTE PTR [eax+13], 0
  000b3	75 0b		 jne	 SHORT $LN52@Extract
$LL51@Extract:

; 444  :             _Pnode = _Pnode->_Right;

  000b5	8b c8		 mov	 ecx, eax
  000b7	8b 41 08	 mov	 eax, DWORD PTR [ecx+8]
  000ba	80 78 0d 00	 cmp	 BYTE PTR [eax+13], 0
  000be	74 f5		 je	 SHORT $LL51@Extract
$LN52@Extract:
  000c0	8b 03		 mov	 eax, DWORD PTR [ebx]

; 539  :                 _Myhead->_Right = _Fixnode->_Isnil ? _Fixnodeparent // largest is parent of erased node

  000c2	89 48 08	 mov	 DWORD PTR [eax+8], ecx
$LN17@Extract:

; 540  :                                                    : _Max(_Fixnode); // largest in relinked subtree
; 541  :             }
; 542  :         } else { // erased has two subtrees, _Pnode is successor to erased

  000c5	8a 52 0c	 mov	 dl, BYTE PTR [edx+12]
  000c8	eb 5c		 jmp	 SHORT $LN55@Extract
$LN9@Extract:

; 543  :             _Erasednode->_Left->_Parent = _Pnode; // link left up

  000ca	89 48 04	 mov	 DWORD PTR [eax+4], ecx

; 544  :             _Pnode->_Left               = _Erasednode->_Left; // link successor down

  000cd	8b 02		 mov	 eax, DWORD PTR [edx]
  000cf	89 01		 mov	 DWORD PTR [ecx], eax

; 545  : 
; 546  :             if (_Pnode == _Erasednode->_Right) {

  000d1	3b 4a 08	 cmp	 ecx, DWORD PTR [edx+8]
  000d4	75 04		 jne	 SHORT $LN18@Extract

; 547  :                 _Fixnodeparent = _Pnode; // successor is next to erased

  000d6	8b f1		 mov	 esi, ecx

; 548  :             } else { // successor further down, link in place of erased

  000d8	eb 1a		 jmp	 SHORT $LN19@Extract
$LN18@Extract:

; 549  :                 _Fixnodeparent = _Pnode->_Parent; // parent is successor's
; 550  :                 if (!_Fixnode->_Isnil) {

  000da	80 7f 0d 00	 cmp	 BYTE PTR [edi+13], 0
  000de	8b 71 04	 mov	 esi, DWORD PTR [ecx+4]
  000e1	75 03		 jne	 SHORT $LN20@Extract

; 551  :                     _Fixnode->_Parent = _Fixnodeparent; // link fix up

  000e3	89 77 04	 mov	 DWORD PTR [edi+4], esi
$LN20@Extract:

; 552  :                 }
; 553  : 
; 554  :                 _Fixnodeparent->_Left        = _Fixnode; // link fix down

  000e6	89 3e		 mov	 DWORD PTR [esi], edi

; 555  :                 _Pnode->_Right               = _Erasednode->_Right; // link next down

  000e8	8b 42 08	 mov	 eax, DWORD PTR [edx+8]
  000eb	89 41 08	 mov	 DWORD PTR [ecx+8], eax

; 556  :                 _Erasednode->_Right->_Parent = _Pnode; // right up

  000ee	8b 42 08	 mov	 eax, DWORD PTR [edx+8]
  000f1	89 48 04	 mov	 DWORD PTR [eax+4], ecx
$LN19@Extract:

; 557  :             }
; 558  : 
; 559  :             if (_Myhead->_Parent == _Erasednode) {

  000f4	8b 03		 mov	 eax, DWORD PTR [ebx]
  000f6	39 50 04	 cmp	 DWORD PTR [eax+4], edx
  000f9	75 05		 jne	 SHORT $LN21@Extract

; 560  :                 _Myhead->_Parent = _Pnode; // link down from root

  000fb	89 48 04	 mov	 DWORD PTR [eax+4], ecx
  000fe	eb 0e		 jmp	 SHORT $LN24@Extract
$LN21@Extract:

; 561  :             } else if (_Erasednode->_Parent->_Left == _Erasednode) {

  00100	8b 42 04	 mov	 eax, DWORD PTR [edx+4]
  00103	39 10		 cmp	 DWORD PTR [eax], edx
  00105	75 04		 jne	 SHORT $LN23@Extract

; 562  :                 _Erasednode->_Parent->_Left = _Pnode; // link down to left

  00107	89 08		 mov	 DWORD PTR [eax], ecx

; 563  :             } else {

  00109	eb 03		 jmp	 SHORT $LN24@Extract
$LN23@Extract:

; 564  :                 _Erasednode->_Parent->_Right = _Pnode; // link down to right

  0010b	89 48 08	 mov	 DWORD PTR [eax+8], ecx
$LN24@Extract:

; 567  :             _Pnode->_Parent = _Erasednode->_Parent; // link successor up

  0010e	8b 42 04	 mov	 eax, DWORD PTR [edx+4]
; File C:\Program Files (x86)\Microsoft Visual Studio\2019\Community\VC\Tools\MSVC\14.28.29333\include\utility

; 104  :     _Ty _Tmp = _STD move(_Left);

  00111	8a 51 0c	 mov	 dl, BYTE PTR [ecx+12]
; File C:\Program Files (x86)\Microsoft Visual Studio\2019\Community\VC\Tools\MSVC\14.28.29333\include\xtree

; 567  :             _Pnode->_Parent = _Erasednode->_Parent; // link successor up

  00114	89 41 04	 mov	 DWORD PTR [ecx+4], eax
; File C:\Program Files (x86)\Microsoft Visual Studio\2019\Community\VC\Tools\MSVC\14.28.29333\include\utility

; 105  :     _Left    = _STD move(_Right);

  00117	8b 45 fc	 mov	 eax, DWORD PTR __Erasednode$1$[ebp]
  0011a	8a 40 0c	 mov	 al, BYTE PTR [eax+12]
  0011d	88 41 0c	 mov	 BYTE PTR [ecx+12], al

; 106  :     _Right   = _STD move(_Tmp);

  00120	8b 45 fc	 mov	 eax, DWORD PTR __Erasednode$1$[ebp]
  00123	88 50 0c	 mov	 BYTE PTR [eax+12], dl
$LN55@Extract:
; File C:\Program Files (x86)\Microsoft Visual Studio\2019\Community\VC\Tools\MSVC\14.28.29333\include\xtree

; 571  :         if (_Erasednode->_Color == _Black) { // erasing black link, must recolor/rebalance tree

  00126	80 fa 01	 cmp	 dl, 1
  00129	0f 85 46 01 00
	00		 jne	 $LN25@Extract

; 572  :             for (; _Fixnode != _Myhead->_Parent && _Fixnode->_Color == _Black; _Fixnodeparent = _Fixnode->_Parent) {

  0012f	8b 03		 mov	 eax, DWORD PTR [ebx]
  00131	3b 78 04	 cmp	 edi, DWORD PTR [eax+4]
  00134	0f 84 37 01 00
	00		 je	 $LN3@Extract
  0013a	66 0f 1f 44 00
	00		 npad	 6
$LL4@Extract:
  00140	80 7f 0c 01	 cmp	 BYTE PTR [edi+12], 1
  00144	89 75 f8	 mov	 DWORD PTR tv1186[ebp], esi
  00147	0f 85 24 01 00
	00		 jne	 $LN3@Extract

; 573  :                 if (_Fixnode == _Fixnodeparent->_Left) { // fixup left subtree

  0014d	8b 0e		 mov	 ecx, DWORD PTR [esi]
  0014f	3b f9		 cmp	 edi, ecx
  00151	0f 85 a2 00 00
	00		 jne	 $LN26@Extract

; 574  :                     _Pnode = _Fixnodeparent->_Right;

  00157	8b 4e 08	 mov	 ecx, DWORD PTR [esi+8]

; 575  :                     if (_Pnode->_Color == _Red) { // rotate red up from right subtree

  0015a	80 79 0c 00	 cmp	 BYTE PTR [ecx+12], 0
  0015e	75 43		 jne	 SHORT $LN87@Extract

; 576  :                         _Pnode->_Color         = _Black;

  00160	c6 41 0c 01	 mov	 BYTE PTR [ecx+12], 1

; 459  :         _Nodeptr _Pnode    = _Wherenode->_Right;

  00164	8b 4e 08	 mov	 ecx, DWORD PTR [esi+8]

; 577  :                         _Fixnodeparent->_Color = _Red;

  00167	c6 46 0c 00	 mov	 BYTE PTR [esi+12], 0

; 460  :         _Wherenode->_Right = _Pnode->_Left;

  0016b	8b 01		 mov	 eax, DWORD PTR [ecx]
  0016d	89 46 08	 mov	 DWORD PTR [esi+8], eax

; 461  : 
; 462  :         if (!_Pnode->_Left->_Isnil) {

  00170	8b 01		 mov	 eax, DWORD PTR [ecx]
  00172	80 78 0d 00	 cmp	 BYTE PTR [eax+13], 0
  00176	75 03		 jne	 SHORT $LN57@Extract

; 463  :             _Pnode->_Left->_Parent = _Wherenode;

  00178	89 70 04	 mov	 DWORD PTR [eax+4], esi
$LN57@Extract:

; 464  :         }
; 465  : 
; 466  :         _Pnode->_Parent = _Wherenode->_Parent;

  0017b	8b 46 04	 mov	 eax, DWORD PTR [esi+4]
  0017e	89 41 04	 mov	 DWORD PTR [ecx+4], eax

; 467  : 
; 468  :         if (_Wherenode == _Myhead->_Parent) {

  00181	8b 03		 mov	 eax, DWORD PTR [ebx]
  00183	3b 70 04	 cmp	 esi, DWORD PTR [eax+4]
  00186	75 05		 jne	 SHORT $LN58@Extract

; 469  :             _Myhead->_Parent = _Pnode;

  00188	89 48 04	 mov	 DWORD PTR [eax+4], ecx
  0018b	eb 0e		 jmp	 SHORT $LN61@Extract
$LN58@Extract:

; 470  :         } else if (_Wherenode == _Wherenode->_Parent->_Left) {

  0018d	8b 46 04	 mov	 eax, DWORD PTR [esi+4]
  00190	3b 30		 cmp	 esi, DWORD PTR [eax]
  00192	75 04		 jne	 SHORT $LN60@Extract

; 471  :             _Wherenode->_Parent->_Left = _Pnode;

  00194	89 08		 mov	 DWORD PTR [eax], ecx

; 472  :         } else {

  00196	eb 03		 jmp	 SHORT $LN61@Extract
$LN60@Extract:

; 473  :             _Wherenode->_Parent->_Right = _Pnode;

  00198	89 48 08	 mov	 DWORD PTR [eax+8], ecx
$LN61@Extract:

; 474  :         }
; 475  : 
; 476  :         _Pnode->_Left       = _Wherenode;

  0019b	89 31		 mov	 DWORD PTR [ecx], esi

; 477  :         _Wherenode->_Parent = _Pnode;

  0019d	89 4e 04	 mov	 DWORD PTR [esi+4], ecx

; 578  :                         _Lrotate(_Fixnodeparent);
; 579  :                         _Pnode = _Fixnodeparent->_Right;

  001a0	8b 4e 08	 mov	 ecx, DWORD PTR [esi+8]
$LN87@Extract:

; 580  :                     }
; 581  : 
; 582  :                     if (_Pnode->_Isnil) {

  001a3	80 79 0d 00	 cmp	 BYTE PTR [ecx+13], 0
  001a7	0f 85 b1 00 00
	00		 jne	 $LN2@Extract

; 583  :                         _Fixnode = _Fixnodeparent; // shouldn't happen
; 584  :                     } else if (_Pnode->_Left->_Color == _Black
; 585  :                                && _Pnode->_Right->_Color == _Black) { // redden right subtree with black children

  001ad	8b 11		 mov	 edx, DWORD PTR [ecx]
  001af	80 7a 0c 01	 cmp	 BYTE PTR [edx+12], 1
  001b3	75 0d		 jne	 SHORT $LN89@Extract
  001b5	8b 41 08	 mov	 eax, DWORD PTR [ecx+8]
  001b8	80 78 0c 01	 cmp	 BYTE PTR [eax+12], 1
  001bc	0f 84 98 00 00
	00		 je	 $LN93@Extract
$LN89@Extract:

; 586  :                         _Pnode->_Color = _Red;
; 587  :                         _Fixnode       = _Fixnodeparent;
; 588  :                     } else { // must rearrange right subtree
; 589  :                         if (_Pnode->_Right->_Color == _Black) { // rotate red up from left sub-subtree

  001c2	8b 41 08	 mov	 eax, DWORD PTR [ecx+8]
  001c5	80 78 0c 01	 cmp	 BYTE PTR [eax+12], 1
  001c9	75 13		 jne	 SHORT $LN33@Extract

; 590  :                             _Pnode->_Left->_Color = _Black;

  001cb	c6 42 0c 01	 mov	 BYTE PTR [edx+12], 1

; 591  :                             _Pnode->_Color        = _Red;

  001cf	c6 41 0c 00	 mov	 BYTE PTR [ecx+12], 0

; 592  :                             _Rrotate(_Pnode);

  001d3	51		 push	 ecx
  001d4	8b cb		 mov	 ecx, ebx
  001d6	e8 00 00 00 00	 call	 ?_Rrotate@?$_Tree_val@U?$_Tree_simple_types@U?$pair@$$CBKPAVCInstanceBase@@@std@@@std@@@std@@QAEXPAU?$_Tree_node@U?$pair@$$CBKPAVCInstanceBase@@@std@@PAX@2@@Z ; std::_Tree_val<std::_Tree_simple_types<std::pair<unsigned long const ,CInstanceBase *> > >::_Rrotate

; 593  :                             _Pnode = _Fixnodeparent->_Right;

  001db	8b 4e 08	 mov	 ecx, DWORD PTR [esi+8]
$LN33@Extract:

; 594  :                         }
; 595  : 
; 596  :                         _Pnode->_Color         = _Fixnodeparent->_Color;

  001de	8a 46 0c	 mov	 al, BYTE PTR [esi+12]
  001e1	88 41 0c	 mov	 BYTE PTR [ecx+12], al

; 597  :                         _Fixnodeparent->_Color = _Black;

  001e4	c6 46 0c 01	 mov	 BYTE PTR [esi+12], 1

; 598  :                         _Pnode->_Right->_Color = _Black;

  001e8	8b 41 08	 mov	 eax, DWORD PTR [ecx+8]

; 599  :                         _Lrotate(_Fixnodeparent);

  001eb	8b cb		 mov	 ecx, ebx
  001ed	56		 push	 esi
  001ee	c6 40 0c 01	 mov	 BYTE PTR [eax+12], 1
  001f2	e8 00 00 00 00	 call	 ?_Lrotate@?$_Tree_val@U?$_Tree_simple_types@U?$pair@$$CBKPAVCInstanceBase@@@std@@@std@@@std@@QAEXPAU?$_Tree_node@U?$pair@$$CBKPAVCInstanceBase@@@std@@PAX@2@@Z ; std::_Tree_val<std::_Tree_simple_types<std::pair<unsigned long const ,CInstanceBase *> > >::_Lrotate

; 600  :                         break; // tree now recolored/rebalanced

  001f7	eb 78		 jmp	 SHORT $LN3@Extract
$LN26@Extract:

; 601  :                     }
; 602  :                 } else { // fixup right subtree
; 603  :                     _Pnode = _Fixnodeparent->_Left;
; 604  :                     if (_Pnode->_Color == _Red) { // rotate red up from left subtree

  001f9	80 79 0c 00	 cmp	 BYTE PTR [ecx+12], 0
  001fd	75 44		 jne	 SHORT $LN88@Extract

; 605  :                         _Pnode->_Color         = _Black;

  001ff	c6 41 0c 01	 mov	 BYTE PTR [ecx+12], 1

; 481  :         _Nodeptr _Pnode   = _Wherenode->_Left;

  00203	8b 0e		 mov	 ecx, DWORD PTR [esi]

; 606  :                         _Fixnodeparent->_Color = _Red;

  00205	c6 46 0c 00	 mov	 BYTE PTR [esi+12], 0

; 482  :         _Wherenode->_Left = _Pnode->_Right;

  00209	8b 41 08	 mov	 eax, DWORD PTR [ecx+8]
  0020c	89 06		 mov	 DWORD PTR [esi], eax

; 483  : 
; 484  :         if (!_Pnode->_Right->_Isnil) {

  0020e	8b 41 08	 mov	 eax, DWORD PTR [ecx+8]
  00211	80 78 0d 00	 cmp	 BYTE PTR [eax+13], 0
  00215	75 03		 jne	 SHORT $LN64@Extract

; 485  :             _Pnode->_Right->_Parent = _Wherenode;

  00217	89 70 04	 mov	 DWORD PTR [eax+4], esi
$LN64@Extract:

; 486  :         }
; 487  : 
; 488  :         _Pnode->_Parent = _Wherenode->_Parent;

  0021a	8b 46 04	 mov	 eax, DWORD PTR [esi+4]
  0021d	89 41 04	 mov	 DWORD PTR [ecx+4], eax

; 489  : 
; 490  :         if (_Wherenode == _Myhead->_Parent) {

  00220	8b 03		 mov	 eax, DWORD PTR [ebx]
  00222	3b 70 04	 cmp	 esi, DWORD PTR [eax+4]
  00225	75 05		 jne	 SHORT $LN65@Extract

; 491  :             _Myhead->_Parent = _Pnode;

  00227	89 48 04	 mov	 DWORD PTR [eax+4], ecx
  0022a	eb 0f		 jmp	 SHORT $LN68@Extract
$LN65@Extract:

; 492  :         } else if (_Wherenode == _Wherenode->_Parent->_Right) {

  0022c	8b 46 04	 mov	 eax, DWORD PTR [esi+4]
  0022f	3b 70 08	 cmp	 esi, DWORD PTR [eax+8]
  00232	75 05		 jne	 SHORT $LN67@Extract

; 493  :             _Wherenode->_Parent->_Right = _Pnode;

  00234	89 48 08	 mov	 DWORD PTR [eax+8], ecx

; 494  :         } else {

  00237	eb 02		 jmp	 SHORT $LN68@Extract
$LN67@Extract:

; 495  :             _Wherenode->_Parent->_Left = _Pnode;

  00239	89 08		 mov	 DWORD PTR [eax], ecx
$LN68@Extract:

; 496  :         }
; 497  : 
; 498  :         _Pnode->_Right      = _Wherenode;

  0023b	89 71 08	 mov	 DWORD PTR [ecx+8], esi

; 499  :         _Wherenode->_Parent = _Pnode;

  0023e	89 4e 04	 mov	 DWORD PTR [esi+4], ecx

; 607  :                         _Rrotate(_Fixnodeparent);
; 608  :                         _Pnode = _Fixnodeparent->_Left;

  00241	8b 0e		 mov	 ecx, DWORD PTR [esi]
$LN88@Extract:

; 609  :                     }
; 610  : 
; 611  :                     if (_Pnode->_Isnil) {

  00243	80 79 0d 00	 cmp	 BYTE PTR [ecx+13], 0
  00247	75 15		 jne	 SHORT $LN2@Extract

; 612  :                         _Fixnode = _Fixnodeparent; // shouldn't happen
; 613  :                     } else if (_Pnode->_Right->_Color == _Black
; 614  :                                && _Pnode->_Left->_Color == _Black) { // redden left subtree with black children

  00249	8b 51 08	 mov	 edx, DWORD PTR [ecx+8]
  0024c	80 7a 0c 01	 cmp	 BYTE PTR [edx+12], 1
  00250	75 3a		 jne	 SHORT $LN90@Extract
  00252	8b 01		 mov	 eax, DWORD PTR [ecx]
  00254	80 78 0c 01	 cmp	 BYTE PTR [eax+12], 1
  00258	75 32		 jne	 SHORT $LN90@Extract
$LN93@Extract:

; 572  :             for (; _Fixnode != _Myhead->_Parent && _Fixnode->_Color == _Black; _Fixnodeparent = _Fixnode->_Parent) {

  0025a	c6 41 0c 00	 mov	 BYTE PTR [ecx+12], 0
$LN2@Extract:
  0025e	8b 03		 mov	 eax, DWORD PTR [ebx]
  00260	8b 4d f8	 mov	 ecx, DWORD PTR tv1186[ebp]
  00263	8b f9		 mov	 edi, ecx
  00265	8b 76 04	 mov	 esi, DWORD PTR [esi+4]
  00268	3b 48 04	 cmp	 ecx, DWORD PTR [eax+4]
  0026b	0f 85 cf fe ff
	ff		 jne	 $LL4@Extract
$LN3@Extract:

; 629  :                         break; // tree now recolored/rebalanced
; 630  :                     }
; 631  :                 }
; 632  :             }
; 633  : 
; 634  :             _Fixnode->_Color = _Black; // stopping node is black

  00271	c6 47 0c 01	 mov	 BYTE PTR [edi+12], 1
$LN25@Extract:

; 635  :         }
; 636  : 
; 637  :         if (0 < _Mysize) {

  00275	8b 4b 04	 mov	 ecx, DWORD PTR [ebx+4]
  00278	8b 45 fc	 mov	 eax, DWORD PTR __Erasednode$1$[ebp]
  0027b	85 c9		 test	 ecx, ecx
  0027d	74 04		 je	 SHORT $LN40@Extract

; 638  :             --_Mysize;

  0027f	49		 dec	 ecx
  00280	89 4b 04	 mov	 DWORD PTR [ebx+4], ecx
$LN40@Extract:

; 639  :         }
; 640  : 
; 641  :         return _Erasednode;
; 642  :     }

  00283	5f		 pop	 edi
  00284	5e		 pop	 esi
  00285	5b		 pop	 ebx
  00286	8b e5		 mov	 esp, ebp
  00288	5d		 pop	 ebp
  00289	c2 04 00	 ret	 4
$LN90@Extract:

; 615  :                         _Pnode->_Color = _Red;
; 616  :                         _Fixnode       = _Fixnodeparent;
; 617  :                     } else { // must rearrange left subtree
; 618  :                         if (_Pnode->_Left->_Color == _Black) { // rotate red up from right sub-subtree

  0028c	8b 01		 mov	 eax, DWORD PTR [ecx]
  0028e	80 78 0c 01	 cmp	 BYTE PTR [eax+12], 1
  00292	75 12		 jne	 SHORT $LN39@Extract

; 619  :                             _Pnode->_Right->_Color = _Black;

  00294	c6 42 0c 01	 mov	 BYTE PTR [edx+12], 1

; 620  :                             _Pnode->_Color         = _Red;

  00298	c6 41 0c 00	 mov	 BYTE PTR [ecx+12], 0

; 621  :                             _Lrotate(_Pnode);

  0029c	51		 push	 ecx
  0029d	8b cb		 mov	 ecx, ebx
  0029f	e8 00 00 00 00	 call	 ?_Lrotate@?$_Tree_val@U?$_Tree_simple_types@U?$pair@$$CBKPAVCInstanceBase@@@std@@@std@@@std@@QAEXPAU?$_Tree_node@U?$pair@$$CBKPAVCInstanceBase@@@std@@PAX@2@@Z ; std::_Tree_val<std::_Tree_simple_types<std::pair<unsigned long const ,CInstanceBase *> > >::_Lrotate

; 622  :                             _Pnode = _Fixnodeparent->_Left;

  002a4	8b 0e		 mov	 ecx, DWORD PTR [esi]
$LN39@Extract:

; 623  :                         }
; 624  : 
; 625  :                         _Pnode->_Color         = _Fixnodeparent->_Color;

  002a6	8a 46 0c	 mov	 al, BYTE PTR [esi+12]
  002a9	88 41 0c	 mov	 BYTE PTR [ecx+12], al

; 626  :                         _Fixnodeparent->_Color = _Black;

  002ac	c6 46 0c 01	 mov	 BYTE PTR [esi+12], 1

; 627  :                         _Pnode->_Left->_Color  = _Black;

  002b0	8b 01		 mov	 eax, DWORD PTR [ecx]

; 628  :                         _Rrotate(_Fixnodeparent);

  002b2	8b cb		 mov	 ecx, ebx
  002b4	56		 push	 esi
  002b5	c6 40 0c 01	 mov	 BYTE PTR [eax+12], 1
  002b9	e8 00 00 00 00	 call	 ?_Rrotate@?$_Tree_val@U?$_Tree_simple_types@U?$pair@$$CBKPAVCInstanceBase@@@std@@@std@@@std@@QAEXPAU?$_Tree_node@U?$pair@$$CBKPAVCInstanceBase@@@std@@PAX@2@@Z ; std::_Tree_val<std::_Tree_simple_types<std::pair<unsigned long const ,CInstanceBase *> > >::_Rrotate
  002be	eb b1		 jmp	 SHORT $LN3@Extract
?_Extract@?$_Tree_val@U?$_Tree_simple_types@U?$pair@$$CBKPAVCInstanceBase@@@std@@@std@@@std@@QAEPAU?$_Tree_node@U?$pair@$$CBKPAVCInstanceBase@@@std@@PAX@2@V?$_Tree_unchecked_const_iterator@V?$_Tree_val@U?$_Tree_simple_types@U?$pair@$$CBKPAVCInstanceBase@@@std@@@std@@@std@@U_Iterator_base0@2@@2@@Z ENDP ; std::_Tree_val<std::_Tree_simple_types<std::pair<unsigned long const ,CInstanceBase *> > >::_Extract
_TEXT	ENDS
; Function compile flags: /Ogtp
; File C:\Program Files (x86)\Microsoft Visual Studio\2019\Community\VC\Tools\MSVC\14.28.29333\include\xtree
;	COMDAT ?_Rrotate@?$_Tree_val@U?$_Tree_simple_types@U?$pair@$$CBKPAVCInstanceBase@@@std@@@std@@@std@@QAEXPAU?$_Tree_node@U?$pair@$$CBKPAVCInstanceBase@@@std@@PAX@2@@Z
_TEXT	SEGMENT
__Wherenode$ = 8					; size = 4
?_Rrotate@?$_Tree_val@U?$_Tree_simple_types@U?$pair@$$CBKPAVCInstanceBase@@@std@@@std@@@std@@QAEXPAU?$_Tree_node@U?$pair@$$CBKPAVCInstanceBase@@@std@@PAX@2@@Z PROC ; std::_Tree_val<std::_Tree_simple_types<std::pair<unsigned long const ,CInstanceBase *> > >::_Rrotate, COMDAT
; _this$ = ecx

; 480  :     void _Rrotate(_Nodeptr _Wherenode) noexcept { // promote left node to root of subtree

  00000	55		 push	 ebp
  00001	8b ec		 mov	 ebp, esp

; 481  :         _Nodeptr _Pnode   = _Wherenode->_Left;

  00003	8b 55 08	 mov	 edx, DWORD PTR __Wherenode$[ebp]
  00006	56		 push	 esi
  00007	8b 32		 mov	 esi, DWORD PTR [edx]

; 482  :         _Wherenode->_Left = _Pnode->_Right;

  00009	8b 46 08	 mov	 eax, DWORD PTR [esi+8]
  0000c	89 02		 mov	 DWORD PTR [edx], eax

; 483  : 
; 484  :         if (!_Pnode->_Right->_Isnil) {

  0000e	8b 46 08	 mov	 eax, DWORD PTR [esi+8]
  00011	80 78 0d 00	 cmp	 BYTE PTR [eax+13], 0
  00015	75 03		 jne	 SHORT $LN2@Rrotate

; 485  :             _Pnode->_Right->_Parent = _Wherenode;

  00017	89 50 04	 mov	 DWORD PTR [eax+4], edx
$LN2@Rrotate:

; 486  :         }
; 487  : 
; 488  :         _Pnode->_Parent = _Wherenode->_Parent;

  0001a	8b 42 04	 mov	 eax, DWORD PTR [edx+4]
  0001d	89 46 04	 mov	 DWORD PTR [esi+4], eax

; 489  : 
; 490  :         if (_Wherenode == _Myhead->_Parent) {

  00020	8b 01		 mov	 eax, DWORD PTR [ecx]
  00022	3b 50 04	 cmp	 edx, DWORD PTR [eax+4]
  00025	75 0e		 jne	 SHORT $LN3@Rrotate

; 491  :             _Myhead->_Parent = _Pnode;

  00027	89 70 04	 mov	 DWORD PTR [eax+4], esi

; 496  :         }
; 497  : 
; 498  :         _Pnode->_Right      = _Wherenode;
; 499  :         _Wherenode->_Parent = _Pnode;
; 500  :     }

  0002a	89 56 08	 mov	 DWORD PTR [esi+8], edx
  0002d	89 72 04	 mov	 DWORD PTR [edx+4], esi
  00030	5e		 pop	 esi
  00031	5d		 pop	 ebp
  00032	c2 04 00	 ret	 4
$LN3@Rrotate:

; 492  :         } else if (_Wherenode == _Wherenode->_Parent->_Right) {

  00035	8b 42 04	 mov	 eax, DWORD PTR [edx+4]
  00038	3b 50 08	 cmp	 edx, DWORD PTR [eax+8]
  0003b	75 0e		 jne	 SHORT $LN5@Rrotate

; 493  :             _Wherenode->_Parent->_Right = _Pnode;

  0003d	89 70 08	 mov	 DWORD PTR [eax+8], esi

; 496  :         }
; 497  : 
; 498  :         _Pnode->_Right      = _Wherenode;
; 499  :         _Wherenode->_Parent = _Pnode;
; 500  :     }

  00040	89 56 08	 mov	 DWORD PTR [esi+8], edx
  00043	89 72 04	 mov	 DWORD PTR [edx+4], esi
  00046	5e		 pop	 esi
  00047	5d		 pop	 ebp
  00048	c2 04 00	 ret	 4
$LN5@Rrotate:

; 494  :         } else {
; 495  :             _Wherenode->_Parent->_Left = _Pnode;

  0004b	89 30		 mov	 DWORD PTR [eax], esi

; 496  :         }
; 497  : 
; 498  :         _Pnode->_Right      = _Wherenode;
; 499  :         _Wherenode->_Parent = _Pnode;
; 500  :     }

  0004d	89 56 08	 mov	 DWORD PTR [esi+8], edx
  00050	89 72 04	 mov	 DWORD PTR [edx+4], esi
  00053	5e		 pop	 esi
  00054	5d		 pop	 ebp
  00055	c2 04 00	 ret	 4
?_Rrotate@?$_Tree_val@U?$_Tree_simple_types@U?$pair@$$CBKPAVCInstanceBase@@@std@@@std@@@std@@QAEXPAU?$_Tree_node@U?$pair@$$CBKPAVCInstanceBase@@@std@@PAX@2@@Z ENDP ; std::_Tree_val<std::_Tree_simple_types<std::pair<unsigned long const ,CInstanceBase *> > >::_Rrotate
_TEXT	ENDS
; Function compile flags: /Ogtp
; File C:\Program Files (x86)\Microsoft Visual Studio\2019\Community\VC\Tools\MSVC\14.28.29333\include\xtree
;	COMDAT ?_Lrotate@?$_Tree_val@U?$_Tree_simple_types@U?$pair@$$CBKPAVCInstanceBase@@@std@@@std@@@std@@QAEXPAU?$_Tree_node@U?$pair@$$CBKPAVCInstanceBase@@@std@@PAX@2@@Z
_TEXT	SEGMENT
__Wherenode$ = 8					; size = 4
?_Lrotate@?$_Tree_val@U?$_Tree_simple_types@U?$pair@$$CBKPAVCInstanceBase@@@std@@@std@@@std@@QAEXPAU?$_Tree_node@U?$pair@$$CBKPAVCInstanceBase@@@std@@PAX@2@@Z PROC ; std::_Tree_val<std::_Tree_simple_types<std::pair<unsigned long const ,CInstanceBase *> > >::_Lrotate, COMDAT
; _this$ = ecx

; 458  :     void _Lrotate(_Nodeptr _Wherenode) noexcept { // promote right node to root of subtree

  00000	55		 push	 ebp
  00001	8b ec		 mov	 ebp, esp

; 459  :         _Nodeptr _Pnode    = _Wherenode->_Right;

  00003	8b 55 08	 mov	 edx, DWORD PTR __Wherenode$[ebp]
  00006	56		 push	 esi
  00007	8b 72 08	 mov	 esi, DWORD PTR [edx+8]

; 460  :         _Wherenode->_Right = _Pnode->_Left;

  0000a	8b 06		 mov	 eax, DWORD PTR [esi]
  0000c	89 42 08	 mov	 DWORD PTR [edx+8], eax

; 461  : 
; 462  :         if (!_Pnode->_Left->_Isnil) {

  0000f	8b 06		 mov	 eax, DWORD PTR [esi]
  00011	80 78 0d 00	 cmp	 BYTE PTR [eax+13], 0
  00015	75 03		 jne	 SHORT $LN2@Lrotate

; 463  :             _Pnode->_Left->_Parent = _Wherenode;

  00017	89 50 04	 mov	 DWORD PTR [eax+4], edx
$LN2@Lrotate:

; 464  :         }
; 465  : 
; 466  :         _Pnode->_Parent = _Wherenode->_Parent;

  0001a	8b 42 04	 mov	 eax, DWORD PTR [edx+4]
  0001d	89 46 04	 mov	 DWORD PTR [esi+4], eax

; 467  : 
; 468  :         if (_Wherenode == _Myhead->_Parent) {

  00020	8b 01		 mov	 eax, DWORD PTR [ecx]
  00022	3b 50 04	 cmp	 edx, DWORD PTR [eax+4]
  00025	75 0d		 jne	 SHORT $LN3@Lrotate

; 469  :             _Myhead->_Parent = _Pnode;

  00027	89 70 04	 mov	 DWORD PTR [eax+4], esi

; 474  :         }
; 475  : 
; 476  :         _Pnode->_Left       = _Wherenode;
; 477  :         _Wherenode->_Parent = _Pnode;
; 478  :     }

  0002a	89 16		 mov	 DWORD PTR [esi], edx
  0002c	89 72 04	 mov	 DWORD PTR [edx+4], esi
  0002f	5e		 pop	 esi
  00030	5d		 pop	 ebp
  00031	c2 04 00	 ret	 4
$LN3@Lrotate:

; 470  :         } else if (_Wherenode == _Wherenode->_Parent->_Left) {

  00034	8b 42 04	 mov	 eax, DWORD PTR [edx+4]
  00037	3b 10		 cmp	 edx, DWORD PTR [eax]
  00039	75 0c		 jne	 SHORT $LN5@Lrotate

; 471  :             _Wherenode->_Parent->_Left = _Pnode;

  0003b	89 30		 mov	 DWORD PTR [eax], esi

; 474  :         }
; 475  : 
; 476  :         _Pnode->_Left       = _Wherenode;
; 477  :         _Wherenode->_Parent = _Pnode;
; 478  :     }

  0003d	89 16		 mov	 DWORD PTR [esi], edx
  0003f	89 72 04	 mov	 DWORD PTR [edx+4], esi
  00042	5e		 pop	 esi
  00043	5d		 pop	 ebp
  00044	c2 04 00	 ret	 4
$LN5@Lrotate:

; 472  :         } else {
; 473  :             _Wherenode->_Parent->_Right = _Pnode;

  00047	89 70 08	 mov	 DWORD PTR [eax+8], esi

; 474  :         }
; 475  : 
; 476  :         _Pnode->_Left       = _Wherenode;
; 477  :         _Wherenode->_Parent = _Pnode;
; 478  :     }

  0004a	89 16		 mov	 DWORD PTR [esi], edx
  0004c	89 72 04	 mov	 DWORD PTR [edx+4], esi
  0004f	5e		 pop	 esi
  00050	5d		 pop	 ebp
  00051	c2 04 00	 ret	 4
?_Lrotate@?$_Tree_val@U?$_Tree_simple_types@U?$pair@$$CBKPAVCInstanceBase@@@std@@@std@@@std@@QAEXPAU?$_Tree_node@U?$pair@$$CBKPAVCInstanceBase@@@std@@PAX@2@@Z ENDP ; std::_Tree_val<std::_Tree_simple_types<std::pair<unsigned long const ,CInstanceBase *> > >::_Lrotate
_TEXT	ENDS
; Function compile flags: /Ogtp
; File C:\Program Files (x86)\Microsoft Visual Studio\2019\Community\VC\Tools\MSVC\14.28.29333\include\xtree
; File C:\Program Files (x86)\Microsoft Visual Studio\2019\Community\VC\Tools\MSVC\14.28.29333\include\utility
; File C:\Program Files (x86)\Microsoft Visual Studio\2019\Community\VC\Tools\MSVC\14.28.29333\include\xmemory
; File C:\Program Files (x86)\Microsoft Visual Studio\2019\Community\VC\Tools\MSVC\14.28.29333\include\xtree
; File C:\Program Files (x86)\Microsoft Visual Studio\2019\Community\VC\Tools\MSVC\14.28.29333\include\xmemory
; File C:\Program Files (x86)\Microsoft Visual Studio\2019\Community\VC\Tools\MSVC\14.28.29333\include\xtree
;	COMDAT ??1?$_Tree@V?$_Tmap_traits@KPAVCInstanceBase@@U?$less@K@std@@V?$allocator@U?$pair@$$CBKPAVCInstanceBase@@@std@@@3@$0A@@std@@@std@@QAE@XZ
_TEXT	SEGMENT
??1?$_Tree@V?$_Tmap_traits@KPAVCInstanceBase@@U?$less@K@std@@V?$allocator@U?$pair@$$CBKPAVCInstanceBase@@@std@@@3@$0A@@std@@@std@@QAE@XZ PROC ; std::_Tree<std::_Tmap_traits<unsigned long,CInstanceBase *,std::less<unsigned long>,std::allocator<std::pair<unsigned long const ,CInstanceBase *> >,0> >::~_Tree<std::_Tmap_traits<unsigned long,CInstanceBase *,std::less<unsigned long>,std::allocator<std::pair<unsigned long const ,CInstanceBase *> >,0> >, COMDAT
; _this$ = ecx

; 1189 :     ~_Tree() noexcept {

  00000	56		 push	 esi
  00001	57		 push	 edi
  00002	8b f9		 mov	 edi, ecx

; 752  :         _Erase_tree(_Al, _Myhead->_Parent);

  00004	8b 07		 mov	 eax, DWORD PTR [edi]
  00006	8b 70 04	 mov	 esi, DWORD PTR [eax+4]

; 743  :         while (!_Rootnode->_Isnil) { // free subtrees, then node

  00009	80 7e 0d 00	 cmp	 BYTE PTR [esi+13], 0
  0000d	75 23		 jne	 SHORT $LN7@Tree
  0000f	90		 npad	 1
$LL6@Tree:

; 744  :             _Erase_tree(_Al, _Rootnode->_Right);

  00010	ff 76 08	 push	 DWORD PTR [esi+8]
  00013	8b cf		 mov	 ecx, edi
  00015	57		 push	 edi
  00016	e8 00 00 00 00	 call	 ??$_Erase_tree@V?$allocator@U?$_Tree_node@U?$pair@$$CBKPAVCInstanceBase@@@std@@PAX@std@@@std@@@?$_Tree_val@U?$_Tree_simple_types@U?$pair@$$CBKPAVCInstanceBase@@@std@@@std@@@std@@QAEXAAV?$allocator@U?$_Tree_node@U?$pair@$$CBKPAVCInstanceBase@@@std@@PAX@std@@@1@PAU?$_Tree_node@U?$pair@$$CBKPAVCInstanceBase@@@std@@PAX@1@@Z ; std::_Tree_val<std::_Tree_simple_types<std::pair<unsigned long const ,CInstanceBase *> > >::_Erase_tree<std::allocator<std::_Tree_node<std::pair<unsigned long const ,CInstanceBase *>,void *> > >
; File C:\Program Files (x86)\Microsoft Visual Studio\2019\Community\VC\Tools\MSVC\14.28.29333\include\utility

; 598  :     _Ty _Old_val = static_cast<_Ty&&>(_Val);

  0001b	8b c6		 mov	 eax, esi

; 599  :     _Val         = static_cast<_Other&&>(_New_val);

  0001d	8b 36		 mov	 esi, DWORD PTR [esi]
; File C:\Program Files (x86)\Microsoft Visual Studio\2019\Community\VC\Tools\MSVC\14.28.29333\include\xmemory

; 696  :         _Deallocate<_New_alignof<value_type>>(_Ptr, sizeof(value_type) * _Count);

  0001f	6a 18		 push	 24			; 00000018H
  00021	50		 push	 eax
  00022	e8 00 00 00 00	 call	 ??$_Deallocate@$07$0A@@std@@YAXPAXI@Z ; std::_Deallocate<8,0>
  00027	83 c4 08	 add	 esp, 8
; File C:\Program Files (x86)\Microsoft Visual Studio\2019\Community\VC\Tools\MSVC\14.28.29333\include\xtree

; 743  :         while (!_Rootnode->_Isnil) { // free subtrees, then node

  0002a	80 7e 0d 00	 cmp	 BYTE PTR [esi+13], 0
  0002e	74 e0		 je	 SHORT $LL6@Tree
  00030	8b 07		 mov	 eax, DWORD PTR [edi]
$LN7@Tree:
; File C:\Program Files (x86)\Microsoft Visual Studio\2019\Community\VC\Tools\MSVC\14.28.29333\include\xmemory

; 696  :         _Deallocate<_New_alignof<value_type>>(_Ptr, sizeof(value_type) * _Count);

  00032	6a 18		 push	 24			; 00000018H
  00034	50		 push	 eax
  00035	e8 00 00 00 00	 call	 ??$_Deallocate@$07$0A@@std@@YAXPAXI@Z ; std::_Deallocate<8,0>
  0003a	83 c4 08	 add	 esp, 8
  0003d	5f		 pop	 edi
  0003e	5e		 pop	 esi
; File C:\Program Files (x86)\Microsoft Visual Studio\2019\Community\VC\Tools\MSVC\14.28.29333\include\xtree

; 1196 :     }

  0003f	c3		 ret	 0
??1?$_Tree@V?$_Tmap_traits@KPAVCInstanceBase@@U?$less@K@std@@V?$allocator@U?$pair@$$CBKPAVCInstanceBase@@@std@@@3@$0A@@std@@@std@@QAE@XZ ENDP ; std::_Tree<std::_Tmap_traits<unsigned long,CInstanceBase *,std::less<unsigned long>,std::allocator<std::pair<unsigned long const ,CInstanceBase *> >,0> >::~_Tree<std::_Tmap_traits<unsigned long,CInstanceBase *,std::less<unsigned long>,std::allocator<std::pair<unsigned long const ,CInstanceBase *> >,0> >
_TEXT	ENDS
; Function compile flags: /Ogtp
; File D:\Metin2 Server Files\mainline\SRC_2014\Metin2Client\UserInterface\PythonCharacterManager.cpp
; File C:\Program Files (x86)\Microsoft Visual Studio\2019\Community\VC\Tools\MSVC\14.28.29333\include\list
; File D:\Metin2 Server Files\mainline\SRC_2014\Metin2Client\UserInterface\PythonCharacterManager.cpp
; File C:\Program Files (x86)\Microsoft Visual Studio\2019\Community\VC\Tools\MSVC\14.28.29333\include\list
; File C:\Program Files (x86)\Microsoft Visual Studio\2019\Community\VC\Tools\MSVC\14.28.29333\include\vector
; File C:\Program Files (x86)\Microsoft Visual Studio\2019\Community\VC\Tools\MSVC\14.28.29333\include\list
; File D:\Metin2 Server Files\mainline\SRC_2014\Metin2Client\UserInterface\PythonCharacterManager.cpp
; File C:\Program Files (x86)\Microsoft Visual Studio\2019\Community\VC\Tools\MSVC\14.28.29333\include\algorithm
; File D:\Metin2 Server Files\mainline\SRC_2014\Metin2Client\UserInterface\PythonCharacterManager.cpp
; File C:\Program Files (x86)\Microsoft Visual Studio\2019\Community\VC\Tools\MSVC\14.28.29333\include\algorithm
; File D:\Metin2 Server Files\mainline\SRC_2014\Metin2Client\UserInterface\PythonCharacterManager.cpp
;	COMDAT ?__RenderSortedDeadActorList@CPythonCharacterManager@@IAEXXZ
_TEXT	SEGMENT
$T1 = -4						; size = 1
?__RenderSortedDeadActorList@CPythonCharacterManager@@IAEXXZ PROC ; CPythonCharacterManager::__RenderSortedDeadActorList, COMDAT
; _this$ = ecx

; 471  : {

  00000	55		 push	 ebp
  00001	8b ec		 mov	 ebp, esp
  00003	51		 push	 ecx

; 472  : 	static std::vector<CInstanceBase*> s_kVct_pkInstDeadSort;

  00004	64 a1 00 00 00
	00		 mov	 eax, DWORD PTR fs:__tls_array
  0000a	8b 15 00 00 00
	00		 mov	 edx, DWORD PTR __tls_index
  00010	56		 push	 esi
  00011	57		 push	 edi
  00012	8b f9		 mov	 edi, ecx
  00014	8b 14 90	 mov	 edx, DWORD PTR [eax+edx*4]
  00017	a1 00 00 00 00	 mov	 eax, DWORD PTR ?$TSS0@?1??__RenderSortedDeadActorList@CPythonCharacterManager@@IAEXXZ@4HA
  0001c	3b 82 00 00 00
	00		 cmp	 eax, DWORD PTR __Init_thread_epoch[edx]
  00022	0f 8f 90 00 00
	00		 jg	 $LN96@RenderSort
$LN2@RenderSort:

; 473  : 	s_kVct_pkInstDeadSort.clear();

  00028	8b 15 00 00 00
	00		 mov	 edx, DWORD PTR ?s_kVct_pkInstDeadSort@?1??__RenderSortedDeadActorList@CPythonCharacterManager@@IAEXXZ@4V?$vector@PAVCInstanceBase@@V?$allocator@PAVCInstanceBase@@@std@@@std@@A
  0002e	8b ca		 mov	 ecx, edx
  00030	89 0d 04 00 00
	00		 mov	 DWORD PTR ?s_kVct_pkInstDeadSort@?1??__RenderSortedDeadActorList@CPythonCharacterManager@@IAEXXZ@4V?$vector@PAVCInstanceBase@@V?$allocator@PAVCInstanceBase@@@std@@@std@@A+4, ecx
; File C:\Program Files (x86)\Microsoft Visual Studio\2019\Community\VC\Tools\MSVC\14.28.29333\include\list

; 1092 :         return iterator(_Mypair._Myval2._Myhead->_Next, _STD addressof(_Mypair._Myval2));

  00036	8b 47 28	 mov	 eax, DWORD PTR [edi+40]

; 39   :     _List_unchecked_const_iterator(_Nodeptr _Pnode, const _Mylist* _Plist) noexcept : _Ptr(_Pnode) {

  00039	8b 30		 mov	 esi, DWORD PTR [eax]
  0003b	3b f0		 cmp	 esi, eax
; File D:\Metin2 Server Files\mainline\SRC_2014\Metin2Client\UserInterface\PythonCharacterManager.cpp

; 477  : 	for (i=rkLst_pkInstDead.begin(); i!=rkLst_pkInstDead.end(); ++i)

  0003d	74 40		 je	 SHORT $LN4@RenderSort
  0003f	90		 npad	 1
$LL30@RenderSort:
; File C:\Program Files (x86)\Microsoft Visual Studio\2019\Community\VC\Tools\MSVC\14.28.29333\include\list

; 152  :         return this->_Ptr->_Myval;

  00040	8d 46 08	 lea	 eax, DWORD PTR [esi+8]
; File C:\Program Files (x86)\Microsoft Visual Studio\2019\Community\VC\Tools\MSVC\14.28.29333\include\vector

; 704  :         if (_Mylast != _My_data._Myend) {

  00043	3b 0d 08 00 00
	00		 cmp	 ecx, DWORD PTR ?s_kVct_pkInstDeadSort@?1??__RenderSortedDeadActorList@CPythonCharacterManager@@IAEXXZ@4V?$vector@PAVCInstanceBase@@V?$allocator@PAVCInstanceBase@@@std@@@std@@A+8
  00049	74 15		 je	 SHORT $LN50@RenderSort

; 687  :         _Alty_traits::construct(_Getal(), _Unfancy(_Mylast), _STD forward<_Valty>(_Val)...);

  0004b	8b 00		 mov	 eax, DWORD PTR [eax]
  0004d	89 01		 mov	 DWORD PTR [ecx], eax

; 688  :         _Orphan_range(_Mylast, _Mylast);
; 689  :         _Ty& _Result = *_Mylast;
; 690  :         ++_Mylast;

  0004f	8b 0d 04 00 00
	00		 mov	 ecx, DWORD PTR ?s_kVct_pkInstDeadSort@?1??__RenderSortedDeadActorList@CPythonCharacterManager@@IAEXXZ@4V?$vector@PAVCInstanceBase@@V?$allocator@PAVCInstanceBase@@@std@@@std@@A+4
  00055	83 c1 04	 add	 ecx, 4
  00058	89 0d 04 00 00
	00		 mov	 DWORD PTR ?s_kVct_pkInstDeadSort@?1??__RenderSortedDeadActorList@CPythonCharacterManager@@IAEXXZ@4V?$vector@PAVCInstanceBase@@V?$allocator@PAVCInstanceBase@@@std@@@std@@A+4, ecx

; 705  :             return _Emplace_back_with_unused_capacity(_STD forward<_Valty>(_Val)...);

  0005e	eb 12		 jmp	 SHORT $LN3@RenderSort
$LN50@RenderSort:

; 706  :         }
; 707  : 
; 708  :         _Ty& _Result = *_Emplace_reallocate(_Mylast, _STD forward<_Valty>(_Val)...);

  00060	50		 push	 eax
  00061	51		 push	 ecx
  00062	b9 00 00 00 00	 mov	 ecx, OFFSET ?s_kVct_pkInstDeadSort@?1??__RenderSortedDeadActorList@CPythonCharacterManager@@IAEXXZ@4V?$vector@PAVCInstanceBase@@V?$allocator@PAVCInstanceBase@@@std@@@std@@A
  00067	e8 00 00 00 00	 call	 ??$_Emplace_reallocate@ABQAVCInstanceBase@@@?$vector@PAVCInstanceBase@@V?$allocator@PAVCInstanceBase@@@std@@@std@@QAEPAPAVCInstanceBase@@QAPAV2@ABQAV2@@Z ; std::vector<CInstanceBase *,std::allocator<CInstanceBase *> >::_Emplace_reallocate<CInstanceBase * const &>
  0006c	8b 0d 04 00 00
	00		 mov	 ecx, DWORD PTR ?s_kVct_pkInstDeadSort@?1??__RenderSortedDeadActorList@CPythonCharacterManager@@IAEXXZ@4V?$vector@PAVCInstanceBase@@V?$allocator@PAVCInstanceBase@@@std@@@std@@A+4
$LN3@RenderSort:
; File C:\Program Files (x86)\Microsoft Visual Studio\2019\Community\VC\Tools\MSVC\14.28.29333\include\list

; 166  :         this->_Ptr = this->_Ptr->_Next;

  00072	8b 36		 mov	 esi, DWORD PTR [esi]

; 199  :         return this->_Ptr == _Right._Ptr;

  00074	3b 77 28	 cmp	 esi, DWORD PTR [edi+40]
; File D:\Metin2 Server Files\mainline\SRC_2014\Metin2Client\UserInterface\PythonCharacterManager.cpp

; 477  : 	for (i=rkLst_pkInstDead.begin(); i!=rkLst_pkInstDead.end(); ++i)

  00077	75 c7		 jne	 SHORT $LL30@RenderSort
  00079	8b 15 00 00 00
	00		 mov	 edx, DWORD PTR ?s_kVct_pkInstDeadSort@?1??__RenderSortedDeadActorList@CPythonCharacterManager@@IAEXXZ@4V?$vector@PAVCInstanceBase@@V?$allocator@PAVCInstanceBase@@@std@@@std@@A
$LN4@RenderSort:
; File C:\Program Files (x86)\Microsoft Visual Studio\2019\Community\VC\Tools\MSVC\14.28.29333\include\algorithm

; 7571 :     _Sort_unchecked(_UFirst, _ULast, _ULast - _UFirst, _Pass_fn(_Pred));

  0007f	ff 75 fc	 push	 DWORD PTR $T1[ebp]
  00082	8b c1		 mov	 eax, ecx
  00084	2b c2		 sub	 eax, edx
  00086	c1 f8 02	 sar	 eax, 2
  00089	50		 push	 eax
  0008a	51		 push	 ecx
  0008b	52		 push	 edx
  0008c	e8 00 00 00 00	 call	 ??$_Sort_unchecked@PAPAVCInstanceBase@@ULessCharacterInstancePtrRenderOrder@@@std@@YAXPAPAVCInstanceBase@@0HULessCharacterInstancePtrRenderOrder@@@Z ; std::_Sort_unchecked<CInstanceBase * *,LessCharacterInstancePtrRenderOrder>

; 306  :     const auto _ULast = _Get_unwrapped(_Last);

  00091	8b 3d 04 00 00
	00		 mov	 edi, DWORD PTR ?s_kVct_pkInstDeadSort@?1??__RenderSortedDeadActorList@CPythonCharacterManager@@IAEXXZ@4V?$vector@PAVCInstanceBase@@V?$allocator@PAVCInstanceBase@@@std@@@std@@A+4

; 7571 :     _Sort_unchecked(_UFirst, _ULast, _ULast - _UFirst, _Pass_fn(_Pred));

  00097	83 c4 10	 add	 esp, 16			; 00000010H

; 307  :     for (; _UFirst != _ULast; ++_UFirst) {

  0009a	8b 35 00 00 00
	00		 mov	 esi, DWORD PTR ?s_kVct_pkInstDeadSort@?1??__RenderSortedDeadActorList@CPythonCharacterManager@@IAEXXZ@4V?$vector@PAVCInstanceBase@@V?$allocator@PAVCInstanceBase@@@std@@@std@@A
  000a0	3b f7		 cmp	 esi, edi
  000a2	74 0e		 je	 SHORT $LN82@RenderSort
$LL83@RenderSort:
; File D:\Metin2 Server Files\mainline\SRC_2014\Metin2Client\UserInterface\PythonCharacterManager.cpp

; 443  : 		pInstance->Render();

  000a4	8b 0e		 mov	 ecx, DWORD PTR [esi]
  000a6	e8 00 00 00 00	 call	 ?Render@CInstanceBase@@QAEXXZ ; CInstanceBase::Render
; File C:\Program Files (x86)\Microsoft Visual Studio\2019\Community\VC\Tools\MSVC\14.28.29333\include\algorithm

; 307  :     for (; _UFirst != _ULast; ++_UFirst) {

  000ab	83 c6 04	 add	 esi, 4
  000ae	3b f7		 cmp	 esi, edi
  000b0	75 f2		 jne	 SHORT $LL83@RenderSort
$LN82@RenderSort:
  000b2	5f		 pop	 edi
; File D:\Metin2 Server Files\mainline\SRC_2014\Metin2Client\UserInterface\PythonCharacterManager.cpp

; 483  : }

  000b3	5e		 pop	 esi
  000b4	8b e5		 mov	 esp, ebp
  000b6	5d		 pop	 ebp
  000b7	c3		 ret	 0
$LN96@RenderSort:

; 472  : 	static std::vector<CInstanceBase*> s_kVct_pkInstDeadSort;

  000b8	68 00 00 00 00	 push	 OFFSET ?$TSS0@?1??__RenderSortedDeadActorList@CPythonCharacterManager@@IAEXXZ@4HA
  000bd	e8 00 00 00 00	 call	 __Init_thread_header
  000c2	83 c4 04	 add	 esp, 4
  000c5	83 3d 00 00 00
	00 ff		 cmp	 DWORD PTR ?$TSS0@?1??__RenderSortedDeadActorList@CPythonCharacterManager@@IAEXXZ@4HA, -1
  000cc	0f 85 56 ff ff
	ff		 jne	 $LN2@RenderSort
  000d2	68 00 00 00 00	 push	 OFFSET ??__Fs_kVct_pkInstDeadSort@?1??__RenderSortedDeadActorList@CPythonCharacterManager@@IAEXXZ@YAXXZ ; `CPythonCharacterManager::__RenderSortedDeadActorList'::`2'::`dynamic atexit destructor for 's_kVct_pkInstDeadSort''
  000d7	e8 00 00 00 00	 call	 _atexit
  000dc	68 00 00 00 00	 push	 OFFSET ?$TSS0@?1??__RenderSortedDeadActorList@CPythonCharacterManager@@IAEXXZ@4HA
  000e1	e8 00 00 00 00	 call	 __Init_thread_footer
  000e6	83 c4 08	 add	 esp, 8
  000e9	e9 3a ff ff ff	 jmp	 $LN2@RenderSort
?__RenderSortedDeadActorList@CPythonCharacterManager@@IAEXXZ ENDP ; CPythonCharacterManager::__RenderSortedDeadActorList
_TEXT	ENDS
; Function compile flags: /Ogtp
; File D:\Metin2 Server Files\mainline\SRC_2014\Metin2Client\UserInterface\PythonCharacterManager.cpp
; File C:\Program Files (x86)\Microsoft Visual Studio\2019\Community\VC\Tools\MSVC\14.28.29333\include\xtree
; File D:\Metin2 Server Files\mainline\SRC_2014\Metin2Client\UserInterface\PythonCharacterManager.cpp
; File C:\Program Files (x86)\Microsoft Visual Studio\2019\Community\VC\Tools\MSVC\14.28.29333\include\vector
; File C:\Program Files (x86)\Microsoft Visual Studio\2019\Community\VC\Tools\MSVC\14.28.29333\include\xtree
; File D:\Metin2 Server Files\mainline\SRC_2014\Metin2Client\UserInterface\PythonCharacterManager.cpp
; File C:\Program Files (x86)\Microsoft Visual Studio\2019\Community\VC\Tools\MSVC\14.28.29333\include\algorithm
; File D:\Metin2 Server Files\mainline\SRC_2014\Metin2Client\UserInterface\PythonCharacterManager.cpp
; File C:\Program Files (x86)\Microsoft Visual Studio\2019\Community\VC\Tools\MSVC\14.28.29333\include\algorithm
; File D:\Metin2 Server Files\mainline\SRC_2014\Metin2Client\UserInterface\PythonCharacterManager.cpp
; File C:\Program Files (x86)\Microsoft Visual Studio\2019\Community\VC\Tools\MSVC\14.28.29333\include\algorithm
; File D:\Metin2 Server Files\mainline\SRC_2014\Metin2Client\UserInterface\PythonCharacterManager.cpp
;	COMDAT ?__RenderSortedAliveActorList@CPythonCharacterManager@@IAEXXZ
_TEXT	SEGMENT
$T1 = -4						; size = 1
_i$ = -4						; size = 4
?__RenderSortedAliveActorList@CPythonCharacterManager@@IAEXXZ PROC ; CPythonCharacterManager::__RenderSortedAliveActorList, COMDAT
; _this$ = ecx

; 456  : {

  00000	55		 push	 ebp
  00001	8b ec		 mov	 ebp, esp
  00003	51		 push	 ecx

; 457  : 	static std::vector<CInstanceBase*> s_kVct_pkInstAliveSort;

  00004	64 a1 00 00 00
	00		 mov	 eax, DWORD PTR fs:__tls_array
  0000a	8b 15 00 00 00
	00		 mov	 edx, DWORD PTR __tls_index
  00010	56		 push	 esi
  00011	57		 push	 edi
  00012	8b f9		 mov	 edi, ecx
  00014	8b 14 90	 mov	 edx, DWORD PTR [eax+edx*4]
  00017	a1 00 00 00 00	 mov	 eax, DWORD PTR ?$TSS0@?1??__RenderSortedAliveActorList@CPythonCharacterManager@@IAEXXZ@4HA
  0001c	3b 82 00 00 00
	00		 cmp	 eax, DWORD PTR __Init_thread_epoch[edx]
  00022	0f 8f bc 00 00
	00		 jg	 $LN122@RenderSort
$LN2@RenderSort:

; 458  : 	s_kVct_pkInstAliveSort.clear();

  00028	8b 15 00 00 00
	00		 mov	 edx, DWORD PTR ?s_kVct_pkInstAliveSort@?1??__RenderSortedAliveActorList@CPythonCharacterManager@@IAEXXZ@4V?$vector@PAVCInstanceBase@@V?$allocator@PAVCInstanceBase@@@std@@@std@@A
  0002e	8b f2		 mov	 esi, edx
  00030	89 35 04 00 00
	00		 mov	 DWORD PTR ?s_kVct_pkInstAliveSort@?1??__RenderSortedAliveActorList@CPythonCharacterManager@@IAEXXZ@4V?$vector@PAVCInstanceBase@@V?$allocator@PAVCInstanceBase@@@std@@@std@@A+4, esi
; File C:\Program Files (x86)\Microsoft Visual Studio\2019\Community\VC\Tools\MSVC\14.28.29333\include\xtree

; 1240 :         return iterator(_Scary->_Myhead->_Left, _Scary);

  00036	8b 4f 20	 mov	 ecx, DWORD PTR [edi+32]

; 39   :     _Tree_unchecked_const_iterator(_Nodeptr _Pnode, const _Mytree* _Plist) noexcept : _Ptr(_Pnode) {

  00039	8b 01		 mov	 eax, DWORD PTR [ecx]
; File D:\Metin2 Server Files\mainline\SRC_2014\Metin2Client\UserInterface\PythonCharacterManager.cpp

; 462  : 	for (i=rkMap_pkInstAlive.begin(); i!=rkMap_pkInstAlive.end(); ++i)

  0003b	89 45 fc	 mov	 DWORD PTR _i$[ebp], eax
  0003e	3b c1		 cmp	 eax, ecx
  00040	74 48		 je	 SHORT $LN4@RenderSort
$LL30@RenderSort:

; 463  : 		s_kVct_pkInstAliveSort.push_back(i->second);

  00042	83 c0 14	 add	 eax, 20			; 00000014H
; File C:\Program Files (x86)\Microsoft Visual Studio\2019\Community\VC\Tools\MSVC\14.28.29333\include\vector

; 704  :         if (_Mylast != _My_data._Myend) {

  00045	3b 35 08 00 00
	00		 cmp	 esi, DWORD PTR ?s_kVct_pkInstAliveSort@?1??__RenderSortedAliveActorList@CPythonCharacterManager@@IAEXXZ@4V?$vector@PAVCInstanceBase@@V?$allocator@PAVCInstanceBase@@@std@@@std@@A+8
  0004b	74 15		 je	 SHORT $LN52@RenderSort

; 687  :         _Alty_traits::construct(_Getal(), _Unfancy(_Mylast), _STD forward<_Valty>(_Val)...);

  0004d	8b 00		 mov	 eax, DWORD PTR [eax]
  0004f	89 06		 mov	 DWORD PTR [esi], eax

; 688  :         _Orphan_range(_Mylast, _Mylast);
; 689  :         _Ty& _Result = *_Mylast;
; 690  :         ++_Mylast;

  00051	8b 35 04 00 00
	00		 mov	 esi, DWORD PTR ?s_kVct_pkInstAliveSort@?1??__RenderSortedAliveActorList@CPythonCharacterManager@@IAEXXZ@4V?$vector@PAVCInstanceBase@@V?$allocator@PAVCInstanceBase@@@std@@@std@@A+4
  00057	83 c6 04	 add	 esi, 4
  0005a	89 35 04 00 00
	00		 mov	 DWORD PTR ?s_kVct_pkInstAliveSort@?1??__RenderSortedAliveActorList@CPythonCharacterManager@@IAEXXZ@4V?$vector@PAVCInstanceBase@@V?$allocator@PAVCInstanceBase@@@std@@@std@@A+4, esi

; 705  :             return _Emplace_back_with_unused_capacity(_STD forward<_Valty>(_Val)...);

  00060	eb 12		 jmp	 SHORT $LN3@RenderSort
$LN52@RenderSort:

; 706  :         }
; 707  : 
; 708  :         _Ty& _Result = *_Emplace_reallocate(_Mylast, _STD forward<_Valty>(_Val)...);

  00062	50		 push	 eax
  00063	56		 push	 esi
  00064	b9 00 00 00 00	 mov	 ecx, OFFSET ?s_kVct_pkInstAliveSort@?1??__RenderSortedAliveActorList@CPythonCharacterManager@@IAEXXZ@4V?$vector@PAVCInstanceBase@@V?$allocator@PAVCInstanceBase@@@std@@@std@@A
  00069	e8 00 00 00 00	 call	 ??$_Emplace_reallocate@ABQAVCInstanceBase@@@?$vector@PAVCInstanceBase@@V?$allocator@PAVCInstanceBase@@@std@@@std@@QAEPAPAVCInstanceBase@@QAPAV2@ABQAV2@@Z ; std::vector<CInstanceBase *,std::allocator<CInstanceBase *> >::_Emplace_reallocate<CInstanceBase * const &>
  0006e	8b 35 04 00 00
	00		 mov	 esi, DWORD PTR ?s_kVct_pkInstAliveSort@?1??__RenderSortedAliveActorList@CPythonCharacterManager@@IAEXXZ@4V?$vector@PAVCInstanceBase@@V?$allocator@PAVCInstanceBase@@@std@@@std@@A+4
$LN3@RenderSort:
; File C:\Program Files (x86)\Microsoft Visual Studio\2019\Community\VC\Tools\MSVC\14.28.29333\include\xtree

; 198  :         _Mybase::operator++();

  00074	8d 4d fc	 lea	 ecx, DWORD PTR _i$[ebp]
  00077	e8 00 00 00 00	 call	 ??E?$_Tree_unchecked_const_iterator@V?$_Tree_val@U?$_Tree_simple_types@U?$pair@$$CBKPAVCInstanceBase@@@std@@@std@@@std@@U_Iterator_base0@2@@std@@QAEAAV01@XZ ; std::_Tree_unchecked_const_iterator<std::_Tree_val<std::_Tree_simple_types<std::pair<unsigned long const ,CInstanceBase *> > >,std::_Iterator_base0>::operator++

; 232  :         return this->_Ptr == _Right._Ptr;

  0007c	8b 45 fc	 mov	 eax, DWORD PTR _i$[ebp]
  0007f	3b 47 20	 cmp	 eax, DWORD PTR [edi+32]
; File D:\Metin2 Server Files\mainline\SRC_2014\Metin2Client\UserInterface\PythonCharacterManager.cpp

; 462  : 	for (i=rkMap_pkInstAlive.begin(); i!=rkMap_pkInstAlive.end(); ++i)

  00082	75 be		 jne	 SHORT $LL30@RenderSort
  00084	8b 15 00 00 00
	00		 mov	 edx, DWORD PTR ?s_kVct_pkInstAliveSort@?1??__RenderSortedAliveActorList@CPythonCharacterManager@@IAEXXZ@4V?$vector@PAVCInstanceBase@@V?$allocator@PAVCInstanceBase@@@std@@@std@@A
$LN4@RenderSort:
; File C:\Program Files (x86)\Microsoft Visual Studio\2019\Community\VC\Tools\MSVC\14.28.29333\include\algorithm

; 7571 :     _Sort_unchecked(_UFirst, _ULast, _ULast - _UFirst, _Pass_fn(_Pred));

  0008a	ff 75 fc	 push	 DWORD PTR $T1[ebp]
  0008d	8b c6		 mov	 eax, esi
  0008f	2b c2		 sub	 eax, edx
  00091	c1 f8 02	 sar	 eax, 2
  00094	50		 push	 eax
  00095	56		 push	 esi
  00096	52		 push	 edx
  00097	e8 00 00 00 00	 call	 ??$_Sort_unchecked@PAPAVCInstanceBase@@ULessCharacterInstancePtrRenderOrder@@@std@@YAXPAPAVCInstanceBase@@0HULessCharacterInstancePtrRenderOrder@@@Z ; std::_Sort_unchecked<CInstanceBase * *,LessCharacterInstancePtrRenderOrder>

; 306  :     const auto _ULast = _Get_unwrapped(_Last);

  0009c	8b 3d 04 00 00
	00		 mov	 edi, DWORD PTR ?s_kVct_pkInstAliveSort@?1??__RenderSortedAliveActorList@CPythonCharacterManager@@IAEXXZ@4V?$vector@PAVCInstanceBase@@V?$allocator@PAVCInstanceBase@@@std@@@std@@A+4

; 7571 :     _Sort_unchecked(_UFirst, _ULast, _ULast - _UFirst, _Pass_fn(_Pred));

  000a2	83 c4 10	 add	 esp, 16			; 00000010H

; 307  :     for (; _UFirst != _ULast; ++_UFirst) {

  000a5	8b 35 00 00 00
	00		 mov	 esi, DWORD PTR ?s_kVct_pkInstAliveSort@?1??__RenderSortedAliveActorList@CPythonCharacterManager@@IAEXXZ@4V?$vector@PAVCInstanceBase@@V?$allocator@PAVCInstanceBase@@@std@@@std@@A
  000ab	3b f7		 cmp	 esi, edi
  000ad	74 2f		 je	 SHORT $LN103@RenderSort
  000af	90		 npad	 1
$LL85@RenderSort:
; File D:\Metin2 Server Files\mainline\SRC_2014\Metin2Client\UserInterface\PythonCharacterManager.cpp

; 443  : 		pInstance->Render();

  000b0	8b 0e		 mov	 ecx, DWORD PTR [esi]
  000b2	e8 00 00 00 00	 call	 ?Render@CInstanceBase@@QAEXXZ ; CInstanceBase::Render
; File C:\Program Files (x86)\Microsoft Visual Studio\2019\Community\VC\Tools\MSVC\14.28.29333\include\algorithm

; 307  :     for (; _UFirst != _ULast; ++_UFirst) {

  000b7	83 c6 04	 add	 esi, 4
  000ba	3b f7		 cmp	 esi, edi
  000bc	75 f2		 jne	 SHORT $LL85@RenderSort
  000be	8b 3d 04 00 00
	00		 mov	 edi, DWORD PTR ?s_kVct_pkInstAliveSort@?1??__RenderSortedAliveActorList@CPythonCharacterManager@@IAEXXZ@4V?$vector@PAVCInstanceBase@@V?$allocator@PAVCInstanceBase@@@std@@@std@@A+4
  000c4	8b 35 00 00 00
	00		 mov	 esi, DWORD PTR ?s_kVct_pkInstAliveSort@?1??__RenderSortedAliveActorList@CPythonCharacterManager@@IAEXXZ@4V?$vector@PAVCInstanceBase@@V?$allocator@PAVCInstanceBase@@@std@@@std@@A
  000ca	3b f7		 cmp	 esi, edi
  000cc	74 10		 je	 SHORT $LN103@RenderSort
  000ce	66 90		 npad	 2
$LL104@RenderSort:
; File D:\Metin2 Server Files\mainline\SRC_2014\Metin2Client\UserInterface\PythonCharacterManager.cpp

; 450  : 		pInstance->RenderTrace();

  000d0	8b 0e		 mov	 ecx, DWORD PTR [esi]
  000d2	e8 00 00 00 00	 call	 ?RenderTrace@CInstanceBase@@QAEXXZ ; CInstanceBase::RenderTrace
; File C:\Program Files (x86)\Microsoft Visual Studio\2019\Community\VC\Tools\MSVC\14.28.29333\include\algorithm

; 307  :     for (; _UFirst != _ULast; ++_UFirst) {

  000d7	83 c6 04	 add	 esi, 4
  000da	3b f7		 cmp	 esi, edi
  000dc	75 f2		 jne	 SHORT $LL104@RenderSort
$LN103@RenderSort:
  000de	5f		 pop	 edi
; File D:\Metin2 Server Files\mainline\SRC_2014\Metin2Client\UserInterface\PythonCharacterManager.cpp

; 468  : }

  000df	5e		 pop	 esi
  000e0	8b e5		 mov	 esp, ebp
  000e2	5d		 pop	 ebp
  000e3	c3		 ret	 0
$LN122@RenderSort:

; 457  : 	static std::vector<CInstanceBase*> s_kVct_pkInstAliveSort;

  000e4	68 00 00 00 00	 push	 OFFSET ?$TSS0@?1??__RenderSortedAliveActorList@CPythonCharacterManager@@IAEXXZ@4HA
  000e9	e8 00 00 00 00	 call	 __Init_thread_header
  000ee	83 c4 04	 add	 esp, 4
  000f1	83 3d 00 00 00
	00 ff		 cmp	 DWORD PTR ?$TSS0@?1??__RenderSortedAliveActorList@CPythonCharacterManager@@IAEXXZ@4HA, -1
  000f8	0f 85 2a ff ff
	ff		 jne	 $LN2@RenderSort
  000fe	68 00 00 00 00	 push	 OFFSET ??__Fs_kVct_pkInstAliveSort@?1??__RenderSortedAliveActorList@CPythonCharacterManager@@IAEXXZ@YAXXZ ; `CPythonCharacterManager::__RenderSortedAliveActorList'::`2'::`dynamic atexit destructor for 's_kVct_pkInstAliveSort''
  00103	e8 00 00 00 00	 call	 _atexit
  00108	68 00 00 00 00	 push	 OFFSET ?$TSS0@?1??__RenderSortedAliveActorList@CPythonCharacterManager@@IAEXXZ@4HA
  0010d	e8 00 00 00 00	 call	 __Init_thread_footer
  00112	83 c4 08	 add	 esp, 8
  00115	e9 0e ff ff ff	 jmp	 $LN2@RenderSort
?__RenderSortedAliveActorList@CPythonCharacterManager@@IAEXXZ ENDP ; CPythonCharacterManager::__RenderSortedAliveActorList
_TEXT	ENDS
; Function compile flags: /Ogtp
; File D:\Metin2 Server Files\mainline\SRC_2014\Metin2Client\UserInterface\PythonCharacterManager.cpp
; File C:\Program Files (x86)\Microsoft Visual Studio\2019\Community\VC\Tools\MSVC\14.28.29333\include\vector
; File D:\Metin2 Server Files\mainline\SRC_2014\M2Data\include\d3dx8math.inl
; File D:\Metin2 Server Files\mainline\SRC_2014\Metin2Client\UserInterface\PythonCharacterManager.cpp
; File D:\Metin2 Server Files\mainline\SRC_2014\M2Data\include\d3dx8math.inl
; File D:\Metin2 Server Files\mainline\SRC_2014\Metin2Client\UserInterface\PythonCharacterManager.cpp
; File C:\Program Files (x86)\Microsoft Visual Studio\2019\Community\VC\Tools\MSVC\14.28.29333\include\algorithm
; File D:\Metin2 Server Files\mainline\SRC_2014\Metin2Client\UserInterface\PythonCharacterManager.cpp
; File C:\Program Files (x86)\Microsoft Visual Studio\2019\Community\VC\Tools\MSVC\14.28.29333\include\algorithm
; File D:\Metin2 Server Files\mainline\SRC_2014\Metin2Client\UserInterface\PythonCharacterManager.cpp
; File C:\Program Files (x86)\Microsoft Visual Studio\2019\Community\VC\Tools\MSVC\14.28.29333\include\algorithm
; File D:\Metin2 Server Files\mainline\SRC_2014\Metin2Client\UserInterface\PythonCharacterManager.cpp
; File C:\Program Files (x86)\Microsoft Visual Studio\2019\Community\VC\Tools\MSVC\14.28.29333\include\algorithm
; File D:\Metin2 Server Files\mainline\SRC_2014\Metin2Client\UserInterface\PythonCharacterManager.cpp
; File C:\Program Files (x86)\Microsoft Visual Studio\2019\Community\VC\Tools\MSVC\14.28.29333\include\algorithm
; File D:\Metin2 Server Files\mainline\SRC_2014\Metin2Client\UserInterface\PythonCharacterManager.cpp
;	COMDAT ?__SortPickedActorList@CPythonCharacterManager@@IAEXXZ
_TEXT	SEGMENT
$T1 = -28						; size = 12
__Pred$ = -16						; size = 12
__$ArrayPad$ = -4					; size = 4
?__SortPickedActorList@CPythonCharacterManager@@IAEXXZ PROC ; CPythonCharacterManager::__SortPickedActorList, COMDAT
; _this$ = ecx

; 728  : {

  00000	55		 push	 ebp
  00001	8b ec		 mov	 ebp, esp
  00003	83 ec 1c	 sub	 esp, 28			; 0000001cH
  00006	a1 00 00 00 00	 mov	 eax, DWORD PTR ___security_cookie
  0000b	33 c5		 xor	 eax, ebp
  0000d	89 45 fc	 mov	 DWORD PTR __$ArrayPad$[ebp], eax
  00010	56		 push	 esi
  00011	8b f1		 mov	 esi, ecx

; 729  : 	CCamera * pCamera = CCameraManager::Instance().GetCurrentCamera();

  00013	8b 0d 00 00 00
	00		 mov	 ecx, DWORD PTR ?ms_singleton@?$CSingleton@VCCameraManager@@@@0PAVCCameraManager@@A ; CSingleton<CCameraManager>::ms_singleton
  00019	e8 00 00 00 00	 call	 ?GetCurrentCamera@CCameraManager@@QAEPAVCCamera@@XZ ; CCameraManager::GetCurrentCamera
; File C:\Program Files (x86)\Microsoft Visual Studio\2019\Community\VC\Tools\MSVC\14.28.29333\include\vector

; 42   :     _Vector_const_iterator(_Tptr _Parg, const _Container_base* _Pvector) noexcept : _Ptr(_Parg) {

  0001e	8b 4e 34	 mov	 ecx, DWORD PTR [esi+52]
  00021	8b 56 30	 mov	 edx, DWORD PTR [esi+48]
; File D:\Metin2 Server Files\mainline\SRC_2014\M2Data\include\d3dx8math.inl

; 182  :     z = fz;

  00024	f3 0f 10 40 38	 movss	 xmm0, DWORD PTR [eax+56]
  00029	f3 0f 10 50 30	 movss	 xmm2, DWORD PTR [eax+48]
; File D:\Metin2 Server Files\mainline\SRC_2014\Metin2Client\UserInterface\PythonCharacterManager.cpp

; 733  : 	kLess.m_kPPosEye=TPixelPosition(+c_rv3EyePos.x, -c_rv3EyePos.y, +c_rv3EyePos.z);

  0002e	f3 0f 10 48 34	 movss	 xmm1, DWORD PTR [eax+52]
  00033	0f 57 0d 00 00
	00 00		 xorps	 xmm1, DWORD PTR __xmm@80000000800000008000000080000000
; File D:\Metin2 Server Files\mainline\SRC_2014\M2Data\include\d3dx8math.inl

; 182  :     z = fz;

  0003a	f3 0f 11 45 ec	 movss	 DWORD PTR $T1[ebp+8], xmm0
; File D:\Metin2 Server Files\mainline\SRC_2014\Metin2Client\UserInterface\PythonCharacterManager.cpp

; 735  : 	std::sort(m_kVct_pkInstPicked.begin(), m_kVct_pkInstPicked.end(), kLess);

  0003f	8b 45 ec	 mov	 eax, DWORD PTR $T1[ebp+8]
  00042	89 45 f8	 mov	 DWORD PTR __Pred$[ebp+8], eax
; File C:\Program Files (x86)\Microsoft Visual Studio\2019\Community\VC\Tools\MSVC\14.28.29333\include\algorithm

; 7571 :     _Sort_unchecked(_UFirst, _ULast, _ULast - _UFirst, _Pass_fn(_Pred));

  00045	8d 45 f0	 lea	 eax, DWORD PTR __Pred$[ebp]
  00048	50		 push	 eax
  00049	8b c1		 mov	 eax, ecx
; File D:\Metin2 Server Files\mainline\SRC_2014\Metin2Client\UserInterface\PythonCharacterManager.cpp

; 735  : 	std::sort(m_kVct_pkInstPicked.begin(), m_kVct_pkInstPicked.end(), kLess);

  0004b	0f 14 d1	 unpcklps xmm2, xmm1
; File C:\Program Files (x86)\Microsoft Visual Studio\2019\Community\VC\Tools\MSVC\14.28.29333\include\algorithm

; 7571 :     _Sort_unchecked(_UFirst, _ULast, _ULast - _UFirst, _Pass_fn(_Pred));

  0004e	2b c2		 sub	 eax, edx
; File D:\Metin2 Server Files\mainline\SRC_2014\Metin2Client\UserInterface\PythonCharacterManager.cpp

; 735  : 	std::sort(m_kVct_pkInstPicked.begin(), m_kVct_pkInstPicked.end(), kLess);

  00050	66 0f d6 55 f0	 movq	 QWORD PTR __Pred$[ebp], xmm2
; File C:\Program Files (x86)\Microsoft Visual Studio\2019\Community\VC\Tools\MSVC\14.28.29333\include\algorithm

; 7571 :     _Sort_unchecked(_UFirst, _ULast, _ULast - _UFirst, _Pass_fn(_Pred));

  00055	c1 f8 02	 sar	 eax, 2
  00058	50		 push	 eax
  00059	51		 push	 ecx
  0005a	52		 push	 edx
  0005b	e8 00 00 00 00	 call	 ??$_Sort_unchecked@PAPAVCInstanceBase@@U?$_Ref_fn@UCInstanceBase_SLessCameraDistance@@@std@@@std@@YAXPAPAVCInstanceBase@@0HU?$_Ref_fn@UCInstanceBase_SLessCameraDistance@@@0@@Z ; std::_Sort_unchecked<CInstanceBase * *,std::_Ref_fn<CInstanceBase_SLessCameraDistance> >
; File D:\Metin2 Server Files\mainline\SRC_2014\Metin2Client\UserInterface\PythonCharacterManager.cpp

; 736  : }

  00060	8b 4d fc	 mov	 ecx, DWORD PTR __$ArrayPad$[ebp]
; File C:\Program Files (x86)\Microsoft Visual Studio\2019\Community\VC\Tools\MSVC\14.28.29333\include\algorithm

; 7571 :     _Sort_unchecked(_UFirst, _ULast, _ULast - _UFirst, _Pass_fn(_Pred));

  00063	83 c4 10	 add	 esp, 16			; 00000010H
; File D:\Metin2 Server Files\mainline\SRC_2014\Metin2Client\UserInterface\PythonCharacterManager.cpp

; 736  : }

  00066	33 cd		 xor	 ecx, ebp
; File C:\Program Files (x86)\Microsoft Visual Studio\2019\Community\VC\Tools\MSVC\14.28.29333\include\algorithm

; 7571 :     _Sort_unchecked(_UFirst, _ULast, _ULast - _UFirst, _Pass_fn(_Pred));

  00068	5e		 pop	 esi
; File D:\Metin2 Server Files\mainline\SRC_2014\Metin2Client\UserInterface\PythonCharacterManager.cpp

; 736  : }

  00069	e8 00 00 00 00	 call	 @__security_check_cookie@4
  0006e	8b e5		 mov	 esp, ebp
  00070	5d		 pop	 ebp
  00071	c3		 ret	 0
?__SortPickedActorList@CPythonCharacterManager@@IAEXXZ ENDP ; CPythonCharacterManager::__SortPickedActorList
_TEXT	ENDS
; Function compile flags: /Ogtp
; File D:\Metin2 Server Files\mainline\SRC_2014\Metin2Client\UserInterface\PythonCharacterManager.cpp
; File C:\Program Files (x86)\Microsoft Visual Studio\2019\Community\VC\Tools\MSVC\14.28.29333\include\xtree
; File D:\Metin2 Server Files\mainline\SRC_2014\Metin2Client\UserInterface\PythonCharacterManager.cpp
; File C:\Program Files (x86)\Microsoft Visual Studio\2019\Community\VC\Tools\MSVC\14.28.29333\include\xtree
; File D:\Metin2 Server Files\mainline\SRC_2014\Metin2Client\UserInterface\PythonCharacterManager.cpp
;	COMDAT ?__UpdatePickedActorList@CPythonCharacterManager@@IAEXXZ
_TEXT	SEGMENT
_i$ = -8						; size = 4
_pkInstEach$1 = -4					; size = 4
?__UpdatePickedActorList@CPythonCharacterManager@@IAEXXZ PROC ; CPythonCharacterManager::__UpdatePickedActorList, COMDAT
; _this$ = ecx

; 684  : {

  00000	55		 push	 ebp
  00001	8b ec		 mov	 ebp, esp
  00003	83 ec 08	 sub	 esp, 8
  00006	53		 push	 ebx
  00007	8b d9		 mov	 ebx, ecx
  00009	56		 push	 esi

; 685  : 	m_kVct_pkInstPicked.clear();

  0000a	8b 43 30	 mov	 eax, DWORD PTR [ebx+48]
  0000d	89 43 34	 mov	 DWORD PTR [ebx+52], eax
; File C:\Program Files (x86)\Microsoft Visual Studio\2019\Community\VC\Tools\MSVC\14.28.29333\include\xtree

; 1240 :         return iterator(_Scary->_Myhead->_Left, _Scary);

  00010	8b 53 20	 mov	 edx, DWORD PTR [ebx+32]

; 39   :     _Tree_unchecked_const_iterator(_Nodeptr _Pnode, const _Mytree* _Plist) noexcept : _Ptr(_Pnode) {

  00013	8b 02		 mov	 eax, DWORD PTR [edx]
; File D:\Metin2 Server Files\mainline\SRC_2014\Metin2Client\UserInterface\PythonCharacterManager.cpp

; 688  : 	for (i=m_kAliveInstMap.begin(); i!=m_kAliveInstMap.end(); ++i)

  00015	89 45 f8	 mov	 DWORD PTR _i$[ebp], eax
  00018	3b c2		 cmp	 eax, edx
  0001a	74 60		 je	 SHORT $LN3@UpdatePick
  0001c	57		 push	 edi
  0001d	0f 1f 00	 npad	 3
$LL28@UpdatePick:

; 689  : 	{
; 690  : 		CInstanceBase* pkInstEach=i->second;

  00020	8b 78 14	 mov	 edi, DWORD PTR [eax+20]

; 691  : 		// 2004.07.17.levites.isShow ViewFrustumCheck 
; 692  : 		if (pkInstEach->CanPickInstance())

  00023	8b cf		 mov	 ecx, edi
  00025	89 7d fc	 mov	 DWORD PTR _pkInstEach$1[ebp], edi
  00028	e8 00 00 00 00	 call	 ?CanPickInstance@CInstanceBase@@QAE_NXZ ; CInstanceBase::CanPickInstance
  0002d	84 c0		 test	 al, al
  0002f	74 3a		 je	 SHORT $LN2@UpdatePick

; 693  : 		{
; 694  : 			if (pkInstEach->IsDead())

  00031	8b cf		 mov	 ecx, edi
  00033	e8 00 00 00 00	 call	 ?IsDead@CInstanceBase@@QAEHXZ ; CInstanceBase::IsDead
  00038	8b cf		 mov	 ecx, edi
  0003a	85 c0		 test	 eax, eax
  0003c	74 07		 je	 SHORT $LN6@UpdatePick

; 695  : 			{
; 696  : 				if (pkInstEach->IntersectBoundingBox())

  0003e	e8 00 00 00 00	 call	 ?IntersectBoundingBox@CInstanceBase@@QAE_NXZ ; CInstanceBase::IntersectBoundingBox

; 697  : 					m_kVct_pkInstPicked.push_back(pkInstEach);
; 698  : 			}

  00043	eb 05		 jmp	 SHORT $LN68@UpdatePick
$LN6@UpdatePick:

; 699  : 			else
; 700  : 			{
; 701  : 				if (pkInstEach->IntersectDefendingSphere())

  00045	e8 00 00 00 00	 call	 ?IntersectDefendingSphere@CInstanceBase@@QAE_NXZ ; CInstanceBase::IntersectDefendingSphere
$LN68@UpdatePick:
; File C:\Program Files (x86)\Microsoft Visual Studio\2019\Community\VC\Tools\MSVC\14.28.29333\include\xtree

; 198  :         _Mybase::operator++();

  0004a	84 c0		 test	 al, al
  0004c	74 1d		 je	 SHORT $LN2@UpdatePick
  0004e	8b 43 34	 mov	 eax, DWORD PTR [ebx+52]
  00051	3b 43 38	 cmp	 eax, DWORD PTR [ebx+56]
  00054	74 08		 je	 SHORT $LN57@UpdatePick
  00056	89 38		 mov	 DWORD PTR [eax], edi
  00058	83 43 34 04	 add	 DWORD PTR [ebx+52], 4
  0005c	eb 0d		 jmp	 SHORT $LN2@UpdatePick
$LN57@UpdatePick:
  0005e	8d 4d fc	 lea	 ecx, DWORD PTR _pkInstEach$1[ebp]
  00061	51		 push	 ecx
  00062	50		 push	 eax
  00063	8d 4b 30	 lea	 ecx, DWORD PTR [ebx+48]
  00066	e8 00 00 00 00	 call	 ??$_Emplace_reallocate@ABQAVCInstanceBase@@@?$vector@PAVCInstanceBase@@V?$allocator@PAVCInstanceBase@@@std@@@std@@QAEPAPAVCInstanceBase@@QAPAV2@ABQAV2@@Z ; std::vector<CInstanceBase *,std::allocator<CInstanceBase *> >::_Emplace_reallocate<CInstanceBase * const &>
$LN2@UpdatePick:
  0006b	8d 4d f8	 lea	 ecx, DWORD PTR _i$[ebp]
  0006e	e8 00 00 00 00	 call	 ??E?$_Tree_unchecked_const_iterator@V?$_Tree_val@U?$_Tree_simple_types@U?$pair@$$CBKPAVCInstanceBase@@@std@@@std@@@std@@U_Iterator_base0@2@@std@@QAEAAV01@XZ ; std::_Tree_unchecked_const_iterator<std::_Tree_val<std::_Tree_simple_types<std::pair<unsigned long const ,CInstanceBase *> > >,std::_Iterator_base0>::operator++

; 232  :         return this->_Ptr == _Right._Ptr;

  00073	8b 45 f8	 mov	 eax, DWORD PTR _i$[ebp]
  00076	3b 43 20	 cmp	 eax, DWORD PTR [ebx+32]
; File D:\Metin2 Server Files\mainline\SRC_2014\Metin2Client\UserInterface\PythonCharacterManager.cpp

; 688  : 	for (i=m_kAliveInstMap.begin(); i!=m_kAliveInstMap.end(); ++i)

  00079	75 a5		 jne	 SHORT $LL28@UpdatePick
  0007b	5f		 pop	 edi
$LN3@UpdatePick:
  0007c	5e		 pop	 esi

; 702  : 					m_kVct_pkInstPicked.push_back(pkInstEach);
; 703  : 			}
; 704  : 		}
; 705  : 	}
; 706  : }

  0007d	5b		 pop	 ebx
  0007e	8b e5		 mov	 esp, ebp
  00080	5d		 pop	 ebp
  00081	c3		 ret	 0
?__UpdatePickedActorList@CPythonCharacterManager@@IAEXXZ ENDP ; CPythonCharacterManager::__UpdatePickedActorList
_TEXT	ENDS
; Function compile flags: /Ogtp
; File D:\Metin2 Server Files\mainline\SRC_2014\Metin2Client\UserInterface\PythonCharacterManager.cpp
;	COMDAT ?__UpdateSortPickedActorList@CPythonCharacterManager@@IAEXXZ
_TEXT	SEGMENT
?__UpdateSortPickedActorList@CPythonCharacterManager@@IAEXXZ PROC ; CPythonCharacterManager::__UpdateSortPickedActorList, COMDAT
; _this$ = ecx

; 678  : {

  00000	56		 push	 esi
  00001	8b f1		 mov	 esi, ecx

; 679  : 	__UpdatePickedActorList();

  00003	e8 00 00 00 00	 call	 ?__UpdatePickedActorList@CPythonCharacterManager@@IAEXXZ ; CPythonCharacterManager::__UpdatePickedActorList

; 680  : 	__SortPickedActorList();

  00008	8b ce		 mov	 ecx, esi
  0000a	5e		 pop	 esi
  0000b	e9 00 00 00 00	 jmp	 ?__SortPickedActorList@CPythonCharacterManager@@IAEXXZ ; CPythonCharacterManager::__SortPickedActorList
?__UpdateSortPickedActorList@CPythonCharacterManager@@IAEXXZ ENDP ; CPythonCharacterManager::__UpdateSortPickedActorList
_TEXT	ENDS
; Function compile flags: /Ogtp
; File D:\Metin2 Server Files\mainline\SRC_2014\Metin2Client\UserInterface\PythonCharacterManager.cpp
; File C:\Program Files (x86)\Microsoft Visual Studio\2019\Community\VC\Tools\MSVC\14.28.29333\include\vector
; File D:\Metin2 Server Files\mainline\SRC_2014\Metin2Client\UserInterface\PythonCharacterManager.cpp
; File C:\Program Files (x86)\Microsoft Visual Studio\2019\Community\VC\Tools\MSVC\14.28.29333\include\vector
; File D:\Metin2 Server Files\mainline\SRC_2014\Metin2Client\UserInterface\PythonCharacterManager.cpp
; File C:\Program Files (x86)\Microsoft Visual Studio\2019\Community\VC\Tools\MSVC\14.28.29333\include\vector
; File D:\Metin2 Server Files\mainline\SRC_2014\Metin2Client\UserInterface\PythonCharacterManager.cpp
; File C:\Program Files (x86)\Microsoft Visual Studio\2019\Community\VC\Tools\MSVC\14.28.29333\include\xutility
; File C:\Program Files (x86)\Microsoft Visual Studio\2019\Community\VC\Tools\MSVC\14.28.29333\include\vector
; File D:\Metin2 Server Files\mainline\SRC_2014\Metin2Client\UserInterface\PythonCharacterManager.cpp
; File C:\Program Files (x86)\Microsoft Visual Studio\2019\Community\VC\Tools\MSVC\14.28.29333\include\vector
; File D:\Metin2 Server Files\mainline\SRC_2014\Metin2Client\UserInterface\PythonCharacterManager.cpp
; File C:\Program Files (x86)\Microsoft Visual Studio\2019\Community\VC\Tools\MSVC\14.28.29333\include\vector
; File C:\Program Files (x86)\Microsoft Visual Studio\2019\Community\VC\Tools\MSVC\14.28.29333\include\xutility
; File C:\Program Files (x86)\Microsoft Visual Studio\2019\Community\VC\Tools\MSVC\14.28.29333\include\vector
; File D:\Metin2 Server Files\mainline\SRC_2014\Metin2Client\UserInterface\PythonCharacterManager.cpp
;	COMDAT ?__NEW_Pick@CPythonCharacterManager@@IAEXXZ
_TEXT	SEGMENT
_pkInstMain$1$ = -4					; size = 4
?__NEW_Pick@CPythonCharacterManager@@IAEXXZ PROC	; CPythonCharacterManager::__NEW_Pick, COMDAT
; _this$ = ecx

; 739  : {

  00000	55		 push	 ebp
  00001	8b ec		 mov	 ebp, esp
  00003	51		 push	 ecx
  00004	53		 push	 ebx
  00005	56		 push	 esi
  00006	57		 push	 edi
  00007	8b f9		 mov	 edi, ecx

; 740  : 	__UpdateSortPickedActorList();

  00009	e8 00 00 00 00	 call	 ?__UpdateSortPickedActorList@CPythonCharacterManager@@IAEXXZ ; CPythonCharacterManager::__UpdateSortPickedActorList

; 742  : 	CInstanceBase* pkInstMain=GetMainInstancePtr();

  0000e	8b cf		 mov	 ecx, edi
  00010	e8 00 00 00 00	 call	 ?GetMainInstancePtr@CPythonCharacterManager@@QAEPAVCInstanceBase@@XZ ; CPythonCharacterManager::GetMainInstancePtr
; File C:\Program Files (x86)\Microsoft Visual Studio\2019\Community\VC\Tools\MSVC\14.28.29333\include\vector

; 42   :     _Vector_const_iterator(_Tptr _Parg, const _Container_base* _Pvector) noexcept : _Ptr(_Parg) {

  00015	8b 77 30	 mov	 esi, DWORD PTR [edi+48]
  00018	8b 4f 34	 mov	 ecx, DWORD PTR [edi+52]
; File D:\Metin2 Server Files\mainline\SRC_2014\Metin2Client\UserInterface\PythonCharacterManager.cpp

; 742  : 	CInstanceBase* pkInstMain=GetMainInstancePtr();

  0001b	89 45 fc	 mov	 DWORD PTR _pkInstMain$1$[ebp], eax
; File C:\Program Files (x86)\Microsoft Visual Studio\2019\Community\VC\Tools\MSVC\14.28.29333\include\vector

; 42   :     _Vector_const_iterator(_Tptr _Parg, const _Container_base* _Pvector) noexcept : _Ptr(_Parg) {

  0001e	3b f1		 cmp	 esi, ecx
; File D:\Metin2 Server Files\mainline\SRC_2014\Metin2Client\UserInterface\PythonCharacterManager.cpp

; 757  : 		for (f=m_kVct_pkInstPicked.begin(); f!=m_kVct_pkInstPicked.end(); ++f)

  00020	74 70		 je	 SHORT $LN123@NEW_Pick
$LL36@NEW_Pick:

; 758  : 		{
; 759  : 			CInstanceBase* pkInstEach=*f;

  00022	8b 1e		 mov	 ebx, DWORD PTR [esi]

; 760  : 			if (pkInstEach!=pkInstMain && pkInstEach->IntersectBoundingBox())

  00024	3b d8		 cmp	 ebx, eax
  00026	74 2d		 je	 SHORT $LN2@NEW_Pick
  00028	8b cb		 mov	 ecx, ebx
  0002a	e8 00 00 00 00	 call	 ?IntersectBoundingBox@CInstanceBase@@QAE_NXZ ; CInstanceBase::IntersectBoundingBox
  0002f	84 c0		 test	 al, al
  00031	74 1f		 je	 SHORT $LN127@NEW_Pick

; 761  : 			{
; 762  : 				if (m_pkInstPick)

  00033	8b 4f 10	 mov	 ecx, DWORD PTR [edi+16]
  00036	85 c9		 test	 ecx, ecx
  00038	74 09		 je	 SHORT $LN10@NEW_Pick

; 763  : 					if (m_pkInstPick!=pkInstEach)

  0003a	3b cb		 cmp	 ecx, ebx
  0003c	74 05		 je	 SHORT $LN10@NEW_Pick

; 764  : 						m_pkInstPick->OnUnselected();

  0003e	e8 00 00 00 00	 call	 ?OnUnselected@CInstanceBase@@QAEXXZ ; CInstanceBase::OnUnselected
$LN10@NEW_Pick:

; 765  : 
; 766  : 				if (pkInstEach->CanPickInstance())

  00043	8b cb		 mov	 ecx, ebx
  00045	e8 00 00 00 00	 call	 ?CanPickInstance@CInstanceBase@@QAE_NXZ ; CInstanceBase::CanPickInstance
  0004a	84 c0		 test	 al, al
  0004c	0f 85 97 00 00
	00		 jne	 $LN110@NEW_Pick
$LN127@NEW_Pick:
; File C:\Program Files (x86)\Microsoft Visual Studio\2019\Community\VC\Tools\MSVC\14.28.29333\include\vector

; 75   :         ++_Ptr;

  00052	8b 45 fc	 mov	 eax, DWORD PTR _pkInstMain$1$[ebp]
$LN2@NEW_Pick:

; 42   :     _Vector_const_iterator(_Tptr _Parg, const _Container_base* _Pvector) noexcept : _Ptr(_Parg) {

  00055	8b 4f 34	 mov	 ecx, DWORD PTR [edi+52]

; 75   :         ++_Ptr;

  00058	83 c6 04	 add	 esi, 4

; 149  :         return _Ptr == _Right._Ptr;

  0005b	3b f1		 cmp	 esi, ecx
; File D:\Metin2 Server Files\mainline\SRC_2014\Metin2Client\UserInterface\PythonCharacterManager.cpp

; 757  : 		for (f=m_kVct_pkInstPicked.begin(); f!=m_kVct_pkInstPicked.end(); ++f)

  0005d	75 c3		 jne	 SHORT $LL36@NEW_Pick
; File C:\Program Files (x86)\Microsoft Visual Studio\2019\Community\VC\Tools\MSVC\14.28.29333\include\xutility

; 5440 :         if (*_First == _Val) {

  0005f	8b 77 30	 mov	 esi, DWORD PTR [edi+48]
; File C:\Program Files (x86)\Microsoft Visual Studio\2019\Community\VC\Tools\MSVC\14.28.29333\include\vector

; 42   :     _Vector_const_iterator(_Tptr _Parg, const _Container_base* _Pvector) noexcept : _Ptr(_Parg) {

  00062	3b f1		 cmp	 esi, ecx
; File D:\Metin2 Server Files\mainline\SRC_2014\Metin2Client\UserInterface\PythonCharacterManager.cpp

; 779  : 		for (f=m_kVct_pkInstPicked.begin(); f!=m_kVct_pkInstPicked.end(); ++f)

  00064	74 2c		 je	 SHORT $LN123@NEW_Pick
$LL60@NEW_Pick:

; 780  : 		{
; 781  : 			CInstanceBase* pkInstEach=*f;

  00066	8b 1e		 mov	 ebx, DWORD PTR [esi]

; 782  : 			if (pkInstEach!=pkInstMain)

  00068	3b d8		 cmp	 ebx, eax
  0006a	74 1e		 je	 SHORT $LN5@NEW_Pick

; 783  : 			{
; 784  : 				if (m_pkInstPick)

  0006c	8b 4f 10	 mov	 ecx, DWORD PTR [edi+16]
  0006f	85 c9		 test	 ecx, ecx
  00071	74 09		 je	 SHORT $LN14@NEW_Pick

; 785  : 					if (m_pkInstPick!=pkInstEach)

  00073	3b cb		 cmp	 ecx, ebx
  00075	74 05		 je	 SHORT $LN14@NEW_Pick

; 786  : 						m_pkInstPick->OnUnselected();

  00077	e8 00 00 00 00	 call	 ?OnUnselected@CInstanceBase@@QAEXXZ ; CInstanceBase::OnUnselected
$LN14@NEW_Pick:

; 787  : 
; 788  : 				if (pkInstEach->CanPickInstance())

  0007c	8b cb		 mov	 ecx, ebx
  0007e	e8 00 00 00 00	 call	 ?CanPickInstance@CInstanceBase@@QAE_NXZ ; CInstanceBase::CanPickInstance
  00083	84 c0		 test	 al, al
  00085	75 62		 jne	 SHORT $LN110@NEW_Pick
  00087	8b 45 fc	 mov	 eax, DWORD PTR _pkInstMain$1$[ebp]
$LN5@NEW_Pick:
; File C:\Program Files (x86)\Microsoft Visual Studio\2019\Community\VC\Tools\MSVC\14.28.29333\include\vector

; 75   :         ++_Ptr;

  0008a	83 c6 04	 add	 esi, 4

; 149  :         return _Ptr == _Right._Ptr;

  0008d	3b 77 34	 cmp	 esi, DWORD PTR [edi+52]
; File D:\Metin2 Server Files\mainline\SRC_2014\Metin2Client\UserInterface\PythonCharacterManager.cpp

; 779  : 		for (f=m_kVct_pkInstPicked.begin(); f!=m_kVct_pkInstPicked.end(); ++f)

  00090	75 d4		 jne	 SHORT $LL60@NEW_Pick
$LN123@NEW_Pick:

; 789  : 				{
; 790  : 					m_pkInstPick = pkInstEach;
; 791  : 					m_pkInstPick->OnSelected();
; 792  : 					return;
; 793  : 				}
; 794  : 			}
; 795  : 		}
; 796  : 	}
; 797  : 
; 798  : 	if (pkInstMain)

  00092	85 c0		 test	 eax, eax
  00094	74 64		 je	 SHORT $LN18@NEW_Pick

; 799  : 	if (pkInstMain->CanPickInstance())

  00096	8b c8		 mov	 ecx, eax
  00098	e8 00 00 00 00	 call	 ?CanPickInstance@CInstanceBase@@QAE_NXZ ; CInstanceBase::CanPickInstance
  0009d	84 c0		 test	 al, al
  0009f	74 59		 je	 SHORT $LN18@NEW_Pick
; File C:\Program Files (x86)\Microsoft Visual Studio\2019\Community\VC\Tools\MSVC\14.28.29333\include\vector

; 42   :     _Vector_const_iterator(_Tptr _Parg, const _Container_base* _Pvector) noexcept : _Ptr(_Parg) {

  000a1	8b 5f 34	 mov	 ebx, DWORD PTR [edi+52]
  000a4	8b 47 30	 mov	 eax, DWORD PTR [edi+48]
; File C:\Program Files (x86)\Microsoft Visual Studio\2019\Community\VC\Tools\MSVC\14.28.29333\include\xutility

; 5439 :     for (; _First != _Last; ++_First) {

  000a7	8b 75 fc	 mov	 esi, DWORD PTR _pkInstMain$1$[ebp]
  000aa	3b c3		 cmp	 eax, ebx
  000ac	74 0d		 je	 SHORT $LN112@NEW_Pick
  000ae	66 90		 npad	 2
$LL90@NEW_Pick:

; 5440 :         if (*_First == _Val) {

  000b0	39 30		 cmp	 DWORD PTR [eax], esi
  000b2	74 07		 je	 SHORT $LN112@NEW_Pick

; 5439 :     for (; _First != _Last; ++_First) {

  000b4	83 c0 04	 add	 eax, 4
  000b7	3b c3		 cmp	 eax, ebx
  000b9	75 f5		 jne	 SHORT $LL90@NEW_Pick
$LN112@NEW_Pick:
; File C:\Program Files (x86)\Microsoft Visual Studio\2019\Community\VC\Tools\MSVC\14.28.29333\include\vector

; 195  :         _Ptr = _Refancy<_Tptr>(const_cast<value_type*>(_It));

  000bb	50		 push	 eax
  000bc	e8 00 00 00 00	 call	 ??$_Refancy@PAPAVCInstanceBase@@$0A@@std@@YAPAPAVCInstanceBase@@PAPAV1@@Z ; std::_Refancy<CInstanceBase * *,0>
  000c1	83 c4 04	 add	 esp, 4
  000c4	3b d8		 cmp	 ebx, eax
; File D:\Metin2 Server Files\mainline\SRC_2014\Metin2Client\UserInterface\PythonCharacterManager.cpp

; 800  : 	if (m_kVct_pkInstPicked.end() != std::find(m_kVct_pkInstPicked.begin(), m_kVct_pkInstPicked.end(), pkInstMain))

  000c6	74 32		 je	 SHORT $LN18@NEW_Pick

; 801  : 	{
; 802  : 		if (m_pkInstPick)

  000c8	8b 4f 10	 mov	 ecx, DWORD PTR [edi+16]
  000cb	85 c9		 test	 ecx, ecx
  000cd	74 09		 je	 SHORT $LN20@NEW_Pick

; 803  : 			if (m_pkInstPick!=pkInstMain)

  000cf	3b ce		 cmp	 ecx, esi
  000d1	74 05		 je	 SHORT $LN20@NEW_Pick

; 804  : 				m_pkInstPick->OnUnselected();			

  000d3	e8 00 00 00 00	 call	 ?OnUnselected@CInstanceBase@@QAEXXZ ; CInstanceBase::OnUnselected
$LN20@NEW_Pick:

; 805  : 
; 806  : 		m_pkInstPick = pkInstMain;
; 807  : 		m_pkInstPick->OnSelected();

  000d8	8b ce		 mov	 ecx, esi
  000da	89 77 10	 mov	 DWORD PTR [edi+16], esi
  000dd	e8 00 00 00 00	 call	 ?OnSelected@CInstanceBase@@QAEXXZ ; CInstanceBase::OnSelected
  000e2	5f		 pop	 edi

; 815  : 	}
; 816  : }

  000e3	5e		 pop	 esi
  000e4	5b		 pop	 ebx
  000e5	8b e5		 mov	 esp, ebp
  000e7	5d		 pop	 ebp
  000e8	c3		 ret	 0
$LN110@NEW_Pick:
  000e9	8b cb		 mov	 ecx, ebx
  000eb	89 5f 10	 mov	 DWORD PTR [edi+16], ebx
  000ee	e8 00 00 00 00	 call	 ?OnSelected@CInstanceBase@@QAEXXZ ; CInstanceBase::OnSelected
  000f3	5f		 pop	 edi
  000f4	5e		 pop	 esi
  000f5	5b		 pop	 ebx
  000f6	8b e5		 mov	 esp, ebp
  000f8	5d		 pop	 ebp
  000f9	c3		 ret	 0
$LN18@NEW_Pick:

; 808  : 		return;
; 809  : 	}
; 810  : 
; 811  : 	if (m_pkInstPick)

  000fa	8b 4f 10	 mov	 ecx, DWORD PTR [edi+16]
  000fd	85 c9		 test	 ecx, ecx
  000ff	74 0c		 je	 SHORT $LN21@NEW_Pick

; 812  : 	{
; 813  : 		m_pkInstPick->OnUnselected();	

  00101	e8 00 00 00 00	 call	 ?OnUnselected@CInstanceBase@@QAEXXZ ; CInstanceBase::OnUnselected

; 814  : 		m_pkInstPick=NULL;

  00106	c7 47 10 00 00
	00 00		 mov	 DWORD PTR [edi+16], 0
$LN21@NEW_Pick:

; 815  : 	}
; 816  : }

  0010d	5f		 pop	 edi
  0010e	5e		 pop	 esi
  0010f	5b		 pop	 ebx
  00110	8b e5		 mov	 esp, ebp
  00112	5d		 pop	 ebp
  00113	c3		 ret	 0
?__NEW_Pick@CPythonCharacterManager@@IAEXXZ ENDP	; CPythonCharacterManager::__NEW_Pick
_TEXT	ENDS
; Function compile flags: /Ogtp
; File D:\Metin2 Server Files\mainline\SRC_2014\Metin2Client\UserInterface\PythonCharacterManager.cpp
; File C:\Program Files (x86)\Microsoft Visual Studio\2019\Community\VC\Tools\MSVC\14.28.29333\include\xtree
; File D:\Metin2 Server Files\mainline\SRC_2014\Metin2Client\UserInterface\PythonCharacterManager.cpp
; File C:\Program Files (x86)\Microsoft Visual Studio\2019\Community\VC\Tools\MSVC\14.28.29333\include\xtree
; File D:\Metin2 Server Files\mainline\SRC_2014\Metin2Client\UserInterface\PythonCharacterManager.cpp
;	COMDAT ?__OLD_Pick@CPythonCharacterManager@@IAEXXZ
_TEXT	SEGMENT
_itor$1 = -4						; size = 4
?__OLD_Pick@CPythonCharacterManager@@IAEXXZ PROC	; CPythonCharacterManager::__OLD_Pick, COMDAT
; _this$ = ecx

; 819  : {

  00000	55		 push	 ebp
  00001	8b ec		 mov	 ebp, esp
  00003	51		 push	 ecx
  00004	56		 push	 esi
  00005	57		 push	 edi
  00006	8b f9		 mov	 edi, ecx
; File C:\Program Files (x86)\Microsoft Visual Studio\2019\Community\VC\Tools\MSVC\14.28.29333\include\xtree

; 1240 :         return iterator(_Scary->_Myhead->_Left, _Scary);

  00008	8b 57 20	 mov	 edx, DWORD PTR [edi+32]

; 39   :     _Tree_unchecked_const_iterator(_Nodeptr _Pnode, const _Mytree* _Plist) noexcept : _Ptr(_Pnode) {

  0000b	8b 02		 mov	 eax, DWORD PTR [edx]
  0000d	89 45 fc	 mov	 DWORD PTR _itor$1[ebp], eax
  00010	3b c2		 cmp	 eax, edx
; File D:\Metin2 Server Files\mainline\SRC_2014\Metin2Client\UserInterface\PythonCharacterManager.cpp

; 820  : 	for (TCharacterInstanceMap::iterator itor = m_kAliveInstMap.begin(); itor != m_kAliveInstMap.end(); ++itor)

  00012	74 23		 je	 SHORT $LN46@OLD_Pick
$LL22@OLD_Pick:

; 821  : 	{
; 822  : 		CInstanceBase * pkInstEach = itor->second;

  00014	8b 70 14	 mov	 esi, DWORD PTR [eax+20]

; 823  : 
; 824  : 		if (pkInstEach == m_pkInstMain)

  00017	3b 77 0c	 cmp	 esi, DWORD PTR [edi+12]
  0001a	74 0b		 je	 SHORT $LN2@OLD_Pick

; 825  : 			continue;
; 826  : 
; 827  : 		if (pkInstEach->IntersectDefendingSphere())

  0001c	8b ce		 mov	 ecx, esi
  0001e	e8 00 00 00 00	 call	 ?IntersectDefendingSphere@CInstanceBase@@QAE_NXZ ; CInstanceBase::IntersectDefendingSphere
  00023	84 c0		 test	 al, al
  00025	75 29		 jne	 SHORT $LN42@OLD_Pick
$LN2@OLD_Pick:
; File C:\Program Files (x86)\Microsoft Visual Studio\2019\Community\VC\Tools\MSVC\14.28.29333\include\xtree

; 198  :         _Mybase::operator++();

  00027	8d 4d fc	 lea	 ecx, DWORD PTR _itor$1[ebp]
  0002a	e8 00 00 00 00	 call	 ??E?$_Tree_unchecked_const_iterator@V?$_Tree_val@U?$_Tree_simple_types@U?$pair@$$CBKPAVCInstanceBase@@@std@@@std@@@std@@U_Iterator_base0@2@@std@@QAEAAV01@XZ ; std::_Tree_unchecked_const_iterator<std::_Tree_val<std::_Tree_simple_types<std::pair<unsigned long const ,CInstanceBase *> > >,std::_Iterator_base0>::operator++

; 232  :         return this->_Ptr == _Right._Ptr;

  0002f	8b 45 fc	 mov	 eax, DWORD PTR _itor$1[ebp]
  00032	3b 47 20	 cmp	 eax, DWORD PTR [edi+32]
; File D:\Metin2 Server Files\mainline\SRC_2014\Metin2Client\UserInterface\PythonCharacterManager.cpp

; 820  : 	for (TCharacterInstanceMap::iterator itor = m_kAliveInstMap.begin(); itor != m_kAliveInstMap.end(); ++itor)

  00035	75 dd		 jne	 SHORT $LL22@OLD_Pick
$LN46@OLD_Pick:

; 835  : 
; 836  : 			return;
; 837  : 		}
; 838  : 	}
; 839  : 
; 840  : 	if (m_pkInstPick)

  00037	8b 4f 10	 mov	 ecx, DWORD PTR [edi+16]
  0003a	85 c9		 test	 ecx, ecx
  0003c	74 0c		 je	 SHORT $LN9@OLD_Pick

; 841  : 	{
; 842  : 		m_pkInstPick->OnUnselected();	

  0003e	e8 00 00 00 00	 call	 ?OnUnselected@CInstanceBase@@QAEXXZ ; CInstanceBase::OnUnselected

; 843  : 		m_pkInstPick=NULL;

  00043	c7 47 10 00 00
	00 00		 mov	 DWORD PTR [edi+16], 0
$LN9@OLD_Pick:

; 844  : 	}
; 845  : }

  0004a	5f		 pop	 edi
  0004b	5e		 pop	 esi
  0004c	8b e5		 mov	 esp, ebp
  0004e	5d		 pop	 ebp
  0004f	c3		 ret	 0
$LN42@OLD_Pick:

; 828  : 		{
; 829  : 			if (m_pkInstPick)

  00050	8b 4f 10	 mov	 ecx, DWORD PTR [edi+16]
  00053	85 c9		 test	 ecx, ecx
  00055	74 09		 je	 SHORT $LN8@OLD_Pick

; 830  : 				if (m_pkInstPick!=pkInstEach)

  00057	3b ce		 cmp	 ecx, esi
  00059	74 05		 je	 SHORT $LN8@OLD_Pick

; 831  : 					m_pkInstPick->OnUnselected();	

  0005b	e8 00 00 00 00	 call	 ?OnUnselected@CInstanceBase@@QAEXXZ ; CInstanceBase::OnUnselected
$LN8@OLD_Pick:

; 832  : 
; 833  : 			m_pkInstPick = pkInstEach;
; 834  : 			m_pkInstPick->OnSelected();

  00060	8b ce		 mov	 ecx, esi
  00062	89 77 10	 mov	 DWORD PTR [edi+16], esi
  00065	e8 00 00 00 00	 call	 ?OnSelected@CInstanceBase@@QAEXXZ ; CInstanceBase::OnSelected
  0006a	5f		 pop	 edi

; 844  : 	}
; 845  : }

  0006b	5e		 pop	 esi
  0006c	8b e5		 mov	 esp, ebp
  0006e	5d		 pop	 ebp
  0006f	c3		 ret	 0
?__OLD_Pick@CPythonCharacterManager@@IAEXXZ ENDP	; CPythonCharacterManager::__OLD_Pick
_TEXT	ENDS
; Function compile flags: /Ogtp
; File D:\Metin2 Server Files\mainline\SRC_2014\Metin2Client\UserInterface\PythonCharacterManager.cpp
; File C:\Program Files (x86)\Microsoft Visual Studio\2019\Community\VC\Tools\MSVC\14.28.29333\include\list
; File D:\Metin2 Server Files\mainline\SRC_2014\Metin2Client\UserInterface\PythonCharacterManager.cpp
; File C:\Program Files (x86)\Microsoft Visual Studio\2019\Community\VC\Tools\MSVC\14.28.29333\include\list
; File C:\Program Files (x86)\Microsoft Visual Studio\2019\Community\VC\Tools\MSVC\14.28.29333\include\xmemory
; File C:\Program Files (x86)\Microsoft Visual Studio\2019\Community\VC\Tools\MSVC\14.28.29333\include\list
; File C:\Program Files (x86)\Microsoft Visual Studio\2019\Community\VC\Tools\MSVC\14.28.29333\include\xmemory
; File C:\Program Files (x86)\Microsoft Visual Studio\2019\Community\VC\Tools\MSVC\14.28.29333\include\list
; File D:\Metin2 Server Files\mainline\SRC_2014\Metin2Client\UserInterface\PythonCharacterManager.cpp
; File C:\Program Files (x86)\Microsoft Visual Studio\2019\Community\VC\Tools\MSVC\14.28.29333\include\list
; File D:\Metin2 Server Files\mainline\SRC_2014\Metin2Client\UserInterface\PythonCharacterManager.cpp
; File C:\Program Files (x86)\Microsoft Visual Studio\2019\Community\VC\Tools\MSVC\14.28.29333\include\list
; File D:\Metin2 Server Files\mainline\SRC_2014\Metin2Client\UserInterface\PythonCharacterManager.cpp
;	COMDAT ?__DeleteBlendOutInstance@CPythonCharacterManager@@IAEXPAVCInstanceBase@@@Z
_TEXT	SEGMENT
__Op$2 = -24						; size = 8
__Insert_after$3 = -20					; size = 4
__Insert_before$4 = -16					; size = 4
__$EHRec$ = -12						; size = 12
__Where$1$ = 8						; size = 4
_pkInstDel$ = 8						; size = 4
?__DeleteBlendOutInstance@CPythonCharacterManager@@IAEXPAVCInstanceBase@@@Z PROC ; CPythonCharacterManager::__DeleteBlendOutInstance, COMDAT
; _this$ = ecx

; 610  : {

  00000	55		 push	 ebp
  00001	8b ec		 mov	 ebp, esp
  00003	6a ff		 push	 -1
  00005	68 00 00 00 00	 push	 __ehhandler$?__DeleteBlendOutInstance@CPythonCharacterManager@@IAEXPAVCInstanceBase@@@Z
  0000a	64 a1 00 00 00
	00		 mov	 eax, DWORD PTR fs:0
  00010	50		 push	 eax
  00011	83 ec 0c	 sub	 esp, 12			; 0000000cH
  00014	53		 push	 ebx
  00015	56		 push	 esi
  00016	57		 push	 edi
  00017	a1 00 00 00 00	 mov	 eax, DWORD PTR ___security_cookie
  0001c	33 c5		 xor	 eax, ebp
  0001e	50		 push	 eax
  0001f	8d 45 f4	 lea	 eax, DWORD PTR __$EHRec$[ebp]
  00022	64 a3 00 00 00
	00		 mov	 DWORD PTR fs:0, eax
  00028	8b f1		 mov	 esi, ecx

; 611  : 	pkInstDel->DeleteBlendOut();

  0002a	8b 5d 08	 mov	 ebx, DWORD PTR _pkInstDel$[ebp]
  0002d	8b cb		 mov	 ecx, ebx
  0002f	e8 00 00 00 00	 call	 ?DeleteBlendOut@CInstanceBase@@QAEXXZ ; CInstanceBase::DeleteBlendOut
; File C:\Program Files (x86)\Microsoft Visual Studio\2019\Community\VC\Tools\MSVC\14.28.29333\include\list

; 1252 :         _Emplace(_Mypair._Myval2._Myhead, _Val);

  00034	8b 46 28	 mov	 eax, DWORD PTR [esi+40]
; File D:\Metin2 Server Files\mainline\SRC_2014\Metin2Client\UserInterface\PythonCharacterManager.cpp

; 612  : 	m_kDeadInstList.push_back(pkInstDel);	

  00037	83 c6 28	 add	 esi, 40			; 00000028H
; File C:\Program Files (x86)\Microsoft Visual Studio\2019\Community\VC\Tools\MSVC\14.28.29333\include\list

; 1252 :         _Emplace(_Mypair._Myval2._Myhead, _Val);

  0003a	89 45 08	 mov	 DWORD PTR __Where$1$[ebp], eax

; 1014 :         if (_Mysize == max_size()) {

  0003d	81 7e 04 55 55
	55 15		 cmp	 DWORD PTR [esi+4], 357913941 ; 15555555H
  00044	74 7e		 je	 SHORT $LN41@DeleteBlen
; File C:\Program Files (x86)\Microsoft Visual Studio\2019\Community\VC\Tools\MSVC\14.28.29333\include\xmemory

; 1045 :     explicit _Alloc_construct_ptr(_Alloc& _Al_) : _Al(_Al_), _Ptr(nullptr) {}

  00046	89 75 e8	 mov	 DWORD PTR __Op$2[ebp], esi

; 814  :         return static_cast<_Ty*>(_Allocate<_New_alignof<_Ty>>(_Get_size_of_n<sizeof(_Ty)>(_Count)));

  00049	6a 0c		 push	 12			; 0000000cH
; File C:\Program Files (x86)\Microsoft Visual Studio\2019\Community\VC\Tools\MSVC\14.28.29333\include\list

; 585  :     explicit _List_node_emplace_op2(_Alnode& _Al_, _Valtys&&... _Vals) : _Alloc_construct_ptr<_Alnode>(_Al_) {

  0004b	c7 45 fc 00 00
	00 00		 mov	 DWORD PTR __$EHRec$[ebp+8], 0
; File C:\Program Files (x86)\Microsoft Visual Studio\2019\Community\VC\Tools\MSVC\14.28.29333\include\xmemory

; 1052 :         _Ptr = nullptr; // if allocate throws, prevents double-free

  00052	c7 45 ec 00 00
	00 00		 mov	 DWORD PTR __Op$2[ebp+4], 0

; 814  :         return static_cast<_Ty*>(_Allocate<_New_alignof<_Ty>>(_Get_size_of_n<sizeof(_Ty)>(_Count)));

  00059	e8 00 00 00 00	 call	 ??$_Allocate@$07U_Default_allocate_traits@std@@$0A@@std@@YAPAXI@Z ; std::_Allocate<8,std::_Default_allocate_traits,0>

; 1053 :         _Ptr = _Al.allocate(1);

  0005e	8b f8		 mov	 edi, eax
; File C:\Program Files (x86)\Microsoft Visual Studio\2019\Community\VC\Tools\MSVC\14.28.29333\include\list

; 588  :     }

  00060	c7 45 fc ff ff
	ff ff		 mov	 DWORD PTR __$EHRec$[ebp+8], -1

; 1020 :         return _Op._Transfer_before(_Where);

  00067	8b 45 08	 mov	 eax, DWORD PTR __Where$1$[ebp]
  0006a	89 45 f0	 mov	 DWORD PTR __Insert_before$4[ebp], eax

; 587  :         _Alnode_traits::construct(this->_Al, _STD addressof(this->_Ptr->_Myval), _STD forward<_Valtys>(_Vals)...);

  0006d	89 5f 08	 mov	 DWORD PTR [edi+8], ebx

; 1019 :         ++_Mysize;

  00070	ff 46 04	 inc	 DWORD PTR [esi+4]

; 600  :         const pointer _Insert_after = _Insert_before->_Prev;

  00073	8b 70 04	 mov	 esi, DWORD PTR [eax+4]

; 601  :         _Construct_in_place(this->_Ptr->_Next, _Insert_before);

  00076	8d 45 f0	 lea	 eax, DWORD PTR __Insert_before$4[ebp]
  00079	50		 push	 eax
  0007a	57		 push	 edi
  0007b	89 75 ec	 mov	 DWORD PTR __Insert_after$3[ebp], esi
  0007e	e8 00 00 00 00	 call	 ??$_Construct_in_place@PAU?$_List_node@PAVCInstanceBase@@PAX@std@@ABQAU12@@std@@YAXAAPAU?$_List_node@PAVCInstanceBase@@PAX@0@ABQAU10@@Z ; std::_Construct_in_place<std::_List_node<CInstanceBase *,void *> *,std::_List_node<CInstanceBase *,void *> * const &>

; 602  :         _Construct_in_place(this->_Ptr->_Prev, _Insert_after);

  00083	8d 45 ec	 lea	 eax, DWORD PTR __Insert_after$3[ebp]
  00086	50		 push	 eax
  00087	8d 47 04	 lea	 eax, DWORD PTR [edi+4]
  0008a	50		 push	 eax
  0008b	e8 00 00 00 00	 call	 ??$_Construct_in_place@PAU?$_List_node@PAVCInstanceBase@@PAX@std@@ABQAU12@@std@@YAXAAPAU?$_List_node@PAVCInstanceBase@@PAX@0@ABQAU10@@Z ; std::_Construct_in_place<std::_List_node<CInstanceBase *,void *> *,std::_List_node<CInstanceBase *,void *> * const &>

; 605  :         _Insert_before->_Prev = _Result;

  00090	8b 45 08	 mov	 eax, DWORD PTR __Where$1$[ebp]
  00093	83 c4 14	 add	 esp, 20			; 00000014H
; File D:\Metin2 Server Files\mainline\SRC_2014\Metin2Client\UserInterface\PythonCharacterManager.cpp

; 615  : 	rkPlayer.NotifyCharacterDead(pkInstDel->GetVirtualID());

  00096	8b cb		 mov	 ecx, ebx
; File C:\Program Files (x86)\Microsoft Visual Studio\2019\Community\VC\Tools\MSVC\14.28.29333\include\list

; 605  :         _Insert_before->_Prev = _Result;

  00098	89 78 04	 mov	 DWORD PTR [eax+4], edi

; 606  :         _Insert_after->_Next  = _Result;

  0009b	89 3e		 mov	 DWORD PTR [esi], edi
; File D:\Metin2 Server Files\mainline\SRC_2014\Metin2Client\UserInterface\PythonCharacterManager.cpp

; 614  : 	IAbstractPlayer& rkPlayer=IAbstractPlayer::GetSingleton();

  0009d	8b 35 00 00 00
	00		 mov	 esi, DWORD PTR ?ms_singleton@?$TAbstractSingleton@VIAbstractPlayer@@@@0PAVIAbstractPlayer@@A ; TAbstractSingleton<IAbstractPlayer>::ms_singleton

; 615  : 	rkPlayer.NotifyCharacterDead(pkInstDel->GetVirtualID());

  000a3	8b 3e		 mov	 edi, DWORD PTR [esi]
  000a5	e8 00 00 00 00	 call	 ?GetVirtualID@CInstanceBase@@QAEKXZ ; CInstanceBase::GetVirtualID
  000aa	50		 push	 eax
  000ab	8b ce		 mov	 ecx, esi
  000ad	ff 57 68	 call	 DWORD PTR [edi+104]

; 616  : }

  000b0	8b 4d f4	 mov	 ecx, DWORD PTR __$EHRec$[ebp]
  000b3	64 89 0d 00 00
	00 00		 mov	 DWORD PTR fs:0, ecx
  000ba	59		 pop	 ecx
  000bb	5f		 pop	 edi
  000bc	5e		 pop	 esi
  000bd	5b		 pop	 ebx
  000be	8b e5		 mov	 esp, ebp
  000c0	5d		 pop	 ebp
  000c1	c2 04 00	 ret	 4
$LN41@DeleteBlen:
; File C:\Program Files (x86)\Microsoft Visual Studio\2019\Community\VC\Tools\MSVC\14.28.29333\include\list

; 1015 :             _Xlength_error("list too long");

  000c4	68 00 00 00 00	 push	 OFFSET ??_C@_0O@NKNMEGII@list?5too?5long@
  000c9	e8 00 00 00 00	 call	 ?_Xlength_error@std@@YAXPBD@Z ; std::_Xlength_error
$LN39@DeleteBlen:
  000ce	cc		 int	 3
_TEXT	ENDS
;	COMDAT text$x
text$x	SEGMENT
__unwindfunclet$?__DeleteBlendOutInstance@CPythonCharacterManager@@IAEXPAVCInstanceBase@@@Z$1:
  00000	8d 4d e8	 lea	 ecx, DWORD PTR __Op$2[ebp]
  00003	e9 00 00 00 00	 jmp	 ??1?$_Alloc_construct_ptr@V?$allocator@U?$_List_node@PAVCInstanceBase@@PAX@std@@@std@@@std@@QAE@XZ ; std::_Alloc_construct_ptr<std::allocator<std::_List_node<CInstanceBase *,void *> > >::~_Alloc_construct_ptr<std::allocator<std::_List_node<CInstanceBase *,void *> > >
  00008	cc		 int	 3
  00009	cc		 int	 3
  0000a	cc		 int	 3
  0000b	cc		 int	 3
  0000c	cc		 int	 3
__ehhandler$?__DeleteBlendOutInstance@CPythonCharacterManager@@IAEXPAVCInstanceBase@@@Z:
  0000d	90		 npad	 1
  0000e	90		 npad	 1
  0000f	8b 54 24 08	 mov	 edx, DWORD PTR [esp+8]
  00013	8d 42 0c	 lea	 eax, DWORD PTR [edx+12]
  00016	8b 4a e4	 mov	 ecx, DWORD PTR [edx-28]
  00019	33 c8		 xor	 ecx, eax
  0001b	e8 00 00 00 00	 call	 @__security_check_cookie@4
  00020	b8 00 00 00 00	 mov	 eax, OFFSET __ehfuncinfo$?__DeleteBlendOutInstance@CPythonCharacterManager@@IAEXPAVCInstanceBase@@@Z
  00025	e9 00 00 00 00	 jmp	 ___CxxFrameHandler3
text$x	ENDS
?__DeleteBlendOutInstance@CPythonCharacterManager@@IAEXPAVCInstanceBase@@@Z ENDP ; CPythonCharacterManager::__DeleteBlendOutInstance
; Function compile flags: /Ogtp
; File D:\Metin2 Server Files\mainline\SRC_2014\Metin2Client\UserInterface\PythonCharacterManager.cpp
;	COMDAT ?__Initialize@CPythonCharacterManager@@IAEXXZ
_TEXT	SEGMENT
?__Initialize@CPythonCharacterManager@@IAEXXZ PROC	; CPythonCharacterManager::__Initialize, COMDAT
; _this$ = ecx

; 948  : {

  00000	56		 push	 esi
  00001	8b f1		 mov	 esi, ecx

; 949  : 	memset(m_adwPointEffect, 0, sizeof(m_adwPointEffect));

  00003	68 fc 03 00 00	 push	 1020			; 000003fcH
  00008	6a 00		 push	 0
  0000a	8d 46 3c	 lea	 eax, DWORD PTR [esi+60]
  0000d	50		 push	 eax
  0000e	e8 00 00 00 00	 call	 _memset
  00013	83 c4 0c	 add	 esp, 12			; 0000000cH

; 950  : 	m_pkInstMain = NULL;

  00016	c7 46 0c 00 00
	00 00		 mov	 DWORD PTR [esi+12], 0

; 951  : 	m_pkInstBind = NULL;

  0001d	c7 46 14 00 00
	00 00		 mov	 DWORD PTR [esi+20], 0

; 952  : 	m_pkInstPick = NULL;

  00024	c7 46 10 00 00
	00 00		 mov	 DWORD PTR [esi+16], 0

; 953  : 	m_v2PickedInstProjPos = D3DXVECTOR2(0.0f, 0.0f);

  0002b	c7 46 18 00 00
	00 00		 mov	 DWORD PTR [esi+24], 0
  00032	c7 46 1c 00 00
	00 00		 mov	 DWORD PTR [esi+28], 0
  00039	5e		 pop	 esi

; 954  : }

  0003a	c3		 ret	 0
?__Initialize@CPythonCharacterManager@@IAEXXZ ENDP	; CPythonCharacterManager::__Initialize
_TEXT	ENDS
; Function compile flags: /Ogtp
; File D:\Metin2 Server Files\mainline\SRC_2014\Metin2Client\UserInterface\PythonCharacterManager.cpp
; File C:\Program Files (x86)\Microsoft Visual Studio\2019\Community\VC\Tools\MSVC\14.28.29333\include\list
; File D:\Metin2 Server Files\mainline\SRC_2014\Metin2Client\UserInterface\PythonCharacterManager.cpp
; File C:\Program Files (x86)\Microsoft Visual Studio\2019\Community\VC\Tools\MSVC\14.28.29333\include\list
; File D:\Metin2 Server Files\mainline\SRC_2014\Metin2Client\UserInterface\PythonCharacterManager.cpp
; File C:\Program Files (x86)\Microsoft Visual Studio\2019\Community\VC\Tools\MSVC\14.28.29333\include\list
; File C:\Program Files (x86)\Microsoft Visual Studio\2019\Community\VC\Tools\MSVC\14.28.29333\include\xmemory
; File C:\Program Files (x86)\Microsoft Visual Studio\2019\Community\VC\Tools\MSVC\14.28.29333\include\list
; File C:\Program Files (x86)\Microsoft Visual Studio\2019\Community\VC\Tools\MSVC\14.28.29333\include\xmemory
; File D:\Metin2 Server Files\mainline\SRC_2014\Metin2Client\UserInterface\PythonCharacterManager.cpp
; File C:\Program Files (x86)\Microsoft Visual Studio\2019\Community\VC\Tools\MSVC\14.28.29333\include\list
; File D:\Metin2 Server Files\mainline\SRC_2014\Metin2Client\UserInterface\PythonCharacterManager.cpp
;	COMDAT ?UpdateDeleting@CPythonCharacterManager@@IAEXXZ
_TEXT	SEGMENT
?UpdateDeleting@CPythonCharacterManager@@IAEXXZ PROC	; CPythonCharacterManager::UpdateDeleting, COMDAT
; _this$ = ecx

; 337  : {

  00000	53		 push	 ebx
  00001	8b d9		 mov	 ebx, ecx
  00003	56		 push	 esi
; File C:\Program Files (x86)\Microsoft Visual Studio\2019\Community\VC\Tools\MSVC\14.28.29333\include\list

; 1092 :         return iterator(_Mypair._Myval2._Myhead->_Next, _STD addressof(_Mypair._Myval2));

  00004	8b 43 28	 mov	 eax, DWORD PTR [ebx+40]

; 39   :     _List_unchecked_const_iterator(_Nodeptr _Pnode, const _Mylist* _Plist) noexcept : _Ptr(_Pnode) {

  00007	8b 30		 mov	 esi, DWORD PTR [eax]
  00009	3b f0		 cmp	 esi, eax
; File D:\Metin2 Server Files\mainline\SRC_2014\Metin2Client\UserInterface\PythonCharacterManager.cpp

; 339  : 	for (; itor != m_kDeadInstList.end();)

  0000b	74 40		 je	 SHORT $LN3@UpdateDele
  0000d	57		 push	 edi
  0000e	66 90		 npad	 2
$LL2@UpdateDele:

; 340  : 	{
; 341  : 		CInstanceBase * pInstance = *itor;

  00010	8b 7e 08	 mov	 edi, DWORD PTR [esi+8]

; 342  : 
; 343  : 		if (pInstance->UpdateDeleting())

  00013	8b cf		 mov	 ecx, edi
  00015	e8 00 00 00 00	 call	 ?UpdateDeleting@CInstanceBase@@QAE_NXZ ; CInstanceBase::UpdateDeleting
  0001a	84 c0		 test	 al, al
  0001c	74 04		 je	 SHORT $LN5@UpdateDele
; File C:\Program Files (x86)\Microsoft Visual Studio\2019\Community\VC\Tools\MSVC\14.28.29333\include\list

; 166  :         this->_Ptr = this->_Ptr->_Next;

  0001e	8b 36		 mov	 esi, DWORD PTR [esi]
; File D:\Metin2 Server Files\mainline\SRC_2014\Metin2Client\UserInterface\PythonCharacterManager.cpp

; 346  : 		}

  00020	eb 25		 jmp	 SHORT $LN6@UpdateDele
$LN5@UpdateDele:

; 347  : 		else
; 348  : 		{
; 349  : 			CInstanceBase::Delete(pInstance);

  00022	57		 push	 edi
  00023	e8 00 00 00 00	 call	 ?Delete@CInstanceBase@@SAXPAV1@@Z ; CInstanceBase::Delete
; File C:\Program Files (x86)\Microsoft Visual Studio\2019\Community\VC\Tools\MSVC\14.28.29333\include\list

; 396  :         _Pnode->_Prev->_Next = _Pnode->_Next;

  00028	8b 46 04	 mov	 eax, DWORD PTR [esi+4]

; 1353 :         const auto _Result = _Where._Ptr->_Next;

  0002b	8b 3e		 mov	 edi, DWORD PTR [esi]
; File C:\Program Files (x86)\Microsoft Visual Studio\2019\Community\VC\Tools\MSVC\14.28.29333\include\xmemory

; 696  :         _Deallocate<_New_alignof<value_type>>(_Ptr, sizeof(value_type) * _Count);

  0002d	6a 0c		 push	 12			; 0000000cH
  0002f	56		 push	 esi
; File C:\Program Files (x86)\Microsoft Visual Studio\2019\Community\VC\Tools\MSVC\14.28.29333\include\list

; 396  :         _Pnode->_Prev->_Next = _Pnode->_Next;

  00030	89 38		 mov	 DWORD PTR [eax], edi

; 397  :         _Pnode->_Next->_Prev = _Pnode->_Prev;

  00032	8b 0e		 mov	 ecx, DWORD PTR [esi]
  00034	8b 46 04	 mov	 eax, DWORD PTR [esi+4]
  00037	89 41 04	 mov	 DWORD PTR [ecx+4], eax

; 398  :         --_Mysize;

  0003a	ff 4b 2c	 dec	 DWORD PTR [ebx+44]
; File C:\Program Files (x86)\Microsoft Visual Studio\2019\Community\VC\Tools\MSVC\14.28.29333\include\xmemory

; 696  :         _Deallocate<_New_alignof<value_type>>(_Ptr, sizeof(value_type) * _Count);

  0003d	e8 00 00 00 00	 call	 ??$_Deallocate@$07$0A@@std@@YAXPAXI@Z ; std::_Deallocate<8,0>
  00042	83 c4 0c	 add	 esp, 12			; 0000000cH
; File D:\Metin2 Server Files\mainline\SRC_2014\Metin2Client\UserInterface\PythonCharacterManager.cpp

; 350  : 			itor = m_kDeadInstList.erase(itor);

  00045	8b f7		 mov	 esi, edi
$LN6@UpdateDele:
; File C:\Program Files (x86)\Microsoft Visual Studio\2019\Community\VC\Tools\MSVC\14.28.29333\include\list

; 199  :         return this->_Ptr == _Right._Ptr;

  00047	3b 73 28	 cmp	 esi, DWORD PTR [ebx+40]
; File D:\Metin2 Server Files\mainline\SRC_2014\Metin2Client\UserInterface\PythonCharacterManager.cpp

; 339  : 	for (; itor != m_kDeadInstList.end();)

  0004a	75 c4		 jne	 SHORT $LL2@UpdateDele
  0004c	5f		 pop	 edi
$LN3@UpdateDele:
  0004d	5e		 pop	 esi

; 351  : 		}
; 352  : 	}
; 353  : }

  0004e	5b		 pop	 ebx
  0004f	c3		 ret	 0
?UpdateDeleting@CPythonCharacterManager@@IAEXXZ ENDP	; CPythonCharacterManager::UpdateDeleting
_TEXT	ENDS
; Function compile flags: /Ogtp
; File D:\Metin2 Server Files\mainline\SRC_2014\Metin2Client\UserInterface\PythonCharacterManager.cpp
; File C:\Program Files (x86)\Microsoft Visual Studio\2019\Community\VC\Tools\MSVC\14.28.29333\include\xtree
; File D:\Metin2 Server Files\mainline\SRC_2014\Metin2Client\UserInterface\PythonCharacterManager.cpp
; File C:\Program Files (x86)\Microsoft Visual Studio\2019\Community\VC\Tools\MSVC\14.28.29333\include\xtree
; File D:\Metin2 Server Files\mainline\SRC_2014\Metin2Client\UserInterface\PythonCharacterManager.cpp
; File C:\Program Files (x86)\Microsoft Visual Studio\2019\Community\VC\Tools\MSVC\14.28.29333\include\xtree
; File D:\Metin2 Server Files\mainline\SRC_2014\Metin2Client\UserInterface\PythonCharacterManager.cpp
; File C:\Program Files (x86)\Microsoft Visual Studio\2019\Community\VC\Tools\MSVC\14.28.29333\include\xtree
; File D:\Metin2 Server Files\mainline\SRC_2014\Metin2Client\UserInterface\PythonCharacterManager.cpp
; File C:\Program Files (x86)\Microsoft Visual Studio\2019\Community\VC\Tools\MSVC\14.28.29333\include\xtree
; File D:\Metin2 Server Files\mainline\SRC_2014\Metin2Client\UserInterface\PythonCharacterManager.cpp
;	COMDAT ?UpdateTransform@CPythonCharacterManager@@IAEXXZ
_TEXT	SEGMENT
_itor$1 = -4						; size = 4
_i$2 = -4						; size = 4
?UpdateTransform@CPythonCharacterManager@@IAEXXZ PROC	; CPythonCharacterManager::UpdateTransform, COMDAT
; _this$ = ecx

; 263  : {

  00000	55		 push	 ebp
  00001	8b ec		 mov	 ebp, esp
  00003	51		 push	 ecx
  00004	56		 push	 esi
  00005	8b f1		 mov	 esi, ecx

; 264  : #ifdef __PERFORMANCE_CHECKER__
; 265  : 	DWORD t1=timeGetTime();
; 266  : 	DWORD t2=timeGetTime();
; 267  : #endif
; 268  : 
; 269  : 	CInstanceBase * pMainInstance = GetMainInstancePtr();

  00007	e8 00 00 00 00	 call	 ?GetMainInstancePtr@CPythonCharacterManager@@QAEPAVCInstanceBase@@XZ ; CPythonCharacterManager::GetMainInstancePtr

; 270  : 	if (pMainInstance)

  0000c	85 c0		 test	 eax, eax
  0000e	74 4d		 je	 SHORT $LN8@UpdateTran
; File C:\Program Files (x86)\Microsoft Visual Studio\2019\Community\VC\Tools\MSVC\14.28.29333\include\xtree

; 1240 :         return iterator(_Scary->_Myhead->_Left, _Scary);

  00010	8b 56 20	 mov	 edx, DWORD PTR [esi+32]
; File D:\Metin2 Server Files\mainline\SRC_2014\Metin2Client\UserInterface\PythonCharacterManager.cpp

; 272  : 		CPythonBackground& rkBG=CPythonBackground::Instance();

  00013	53		 push	 ebx
  00014	8b 1d 00 00 00
	00		 mov	 ebx, DWORD PTR ?ms_singleton@?$CSingleton@VCPythonBackground@@@@0PAVCPythonBackground@@A ; CSingleton<CPythonBackground>::ms_singleton
; File C:\Program Files (x86)\Microsoft Visual Studio\2019\Community\VC\Tools\MSVC\14.28.29333\include\xtree

; 39   :     _Tree_unchecked_const_iterator(_Nodeptr _Pnode, const _Mytree* _Plist) noexcept : _Ptr(_Pnode) {

  0001a	8b 02		 mov	 eax, DWORD PTR [edx]
  0001c	89 45 fc	 mov	 DWORD PTR _i$2[ebp], eax
  0001f	3b c2		 cmp	 eax, edx
; File D:\Metin2 Server Files\mainline\SRC_2014\Metin2Client\UserInterface\PythonCharacterManager.cpp

; 273  : 		for (TCharacterInstanceMap::iterator i = m_kAliveInstMap.begin(); i != m_kAliveInstMap.end(); ++i)

  00021	74 2f		 je	 SHORT $LN3@UpdateTran
  00023	57		 push	 edi
$LL22@UpdateTran:

; 274  : 		{
; 275  : 			CInstanceBase * pSrcInstance = i->second;

  00024	8b 78 14	 mov	 edi, DWORD PTR [eax+20]

; 276  : 
; 277  : 			pSrcInstance->CheckAdvancing();

  00027	8b cf		 mov	 ecx, edi
  00029	e8 00 00 00 00	 call	 ?CheckAdvancing@CInstanceBase@@QAEHXZ ; CInstanceBase::CheckAdvancing

; 278  : 
; 279  : 			// 2004.08.02.myevan.IsAttacked    , 
; 280  : 			//    IsPushing  
; 281  : 			if (pSrcInstance->IsPushing())

  0002e	8b cf		 mov	 ecx, edi
  00030	e8 00 00 00 00	 call	 ?IsPushing@CInstanceBase@@QAEHXZ ; CInstanceBase::IsPushing
  00035	85 c0		 test	 eax, eax
  00037	74 08		 je	 SHORT $LN2@UpdateTran

; 282  : 				rkBG.CheckAdvancing(pSrcInstance);

  00039	57		 push	 edi
  0003a	8b cb		 mov	 ecx, ebx
  0003c	e8 00 00 00 00	 call	 ?CheckAdvancing@CPythonBackground@@QAE_NPAVCInstanceBase@@@Z ; CPythonBackground::CheckAdvancing
$LN2@UpdateTran:
; File C:\Program Files (x86)\Microsoft Visual Studio\2019\Community\VC\Tools\MSVC\14.28.29333\include\xtree

; 198  :         _Mybase::operator++();

  00041	8d 4d fc	 lea	 ecx, DWORD PTR _i$2[ebp]
  00044	e8 00 00 00 00	 call	 ??E?$_Tree_unchecked_const_iterator@V?$_Tree_val@U?$_Tree_simple_types@U?$pair@$$CBKPAVCInstanceBase@@@std@@@std@@@std@@U_Iterator_base0@2@@std@@QAEAAV01@XZ ; std::_Tree_unchecked_const_iterator<std::_Tree_val<std::_Tree_simple_types<std::pair<unsigned long const ,CInstanceBase *> > >,std::_Iterator_base0>::operator++

; 232  :         return this->_Ptr == _Right._Ptr;

  00049	8b 45 fc	 mov	 eax, DWORD PTR _i$2[ebp]
  0004c	3b 46 20	 cmp	 eax, DWORD PTR [esi+32]
; File D:\Metin2 Server Files\mainline\SRC_2014\Metin2Client\UserInterface\PythonCharacterManager.cpp

; 273  : 		for (TCharacterInstanceMap::iterator i = m_kAliveInstMap.begin(); i != m_kAliveInstMap.end(); ++i)

  0004f	75 d3		 jne	 SHORT $LL22@UpdateTran
  00051	5f		 pop	 edi
$LN3@UpdateTran:

; 283  : 		}
; 284  : #ifdef __PERFORMANCE_CHECKER__
; 285  : 		t2=timeGetTime();
; 286  : #endif
; 287  : 
; 288  : #ifdef __MOVIE_MODE__
; 289  : 		if (!m_pkInstMain->IsMovieMode())
; 290  : 		{
; 291  : 			rkBG.CheckAdvancing(m_pkInstMain);
; 292  : 		}
; 293  : #else
; 294  : 		rkBG.CheckAdvancing(m_pkInstMain);

  00052	ff 76 0c	 push	 DWORD PTR [esi+12]
  00055	8b cb		 mov	 ecx, ebx
  00057	e8 00 00 00 00	 call	 ?CheckAdvancing@CPythonBackground@@QAE_NPAVCInstanceBase@@@Z ; CPythonBackground::CheckAdvancing
  0005c	5b		 pop	 ebx
$LN8@UpdateTran:
; File C:\Program Files (x86)\Microsoft Visual Studio\2019\Community\VC\Tools\MSVC\14.28.29333\include\xtree

; 1240 :         return iterator(_Scary->_Myhead->_Left, _Scary);

  0005d	8b 4e 20	 mov	 ecx, DWORD PTR [esi+32]

; 39   :     _Tree_unchecked_const_iterator(_Nodeptr _Pnode, const _Mytree* _Plist) noexcept : _Ptr(_Pnode) {

  00060	8b 01		 mov	 eax, DWORD PTR [ecx]
  00062	89 45 fc	 mov	 DWORD PTR _itor$1[ebp], eax
  00065	3b c1		 cmp	 eax, ecx
; File D:\Metin2 Server Files\mainline\SRC_2014\Metin2Client\UserInterface\PythonCharacterManager.cpp

; 303  : 		for (TCharacterInstanceMap::iterator itor = m_kAliveInstMap.begin(); itor != m_kAliveInstMap.end(); ++itor)

  00067	74 1f		 je	 SHORT $LN6@UpdateTran
  00069	0f 1f 80 00 00
	00 00		 npad	 7
$LL52@UpdateTran:

; 304  : 		{
; 305  : 			CInstanceBase * pInstance = itor->second;
; 306  : 			pInstance->Transform();

  00070	8b 48 14	 mov	 ecx, DWORD PTR [eax+20]
  00073	e8 00 00 00 00	 call	 ?Transform@CInstanceBase@@QAEXXZ ; CInstanceBase::Transform
; File C:\Program Files (x86)\Microsoft Visual Studio\2019\Community\VC\Tools\MSVC\14.28.29333\include\xtree

; 198  :         _Mybase::operator++();

  00078	8d 4d fc	 lea	 ecx, DWORD PTR _itor$1[ebp]
  0007b	e8 00 00 00 00	 call	 ??E?$_Tree_unchecked_const_iterator@V?$_Tree_val@U?$_Tree_simple_types@U?$pair@$$CBKPAVCInstanceBase@@@std@@@std@@@std@@U_Iterator_base0@2@@std@@QAEAAV01@XZ ; std::_Tree_unchecked_const_iterator<std::_Tree_val<std::_Tree_simple_types<std::pair<unsigned long const ,CInstanceBase *> > >,std::_Iterator_base0>::operator++

; 232  :         return this->_Ptr == _Right._Ptr;

  00080	8b 45 fc	 mov	 eax, DWORD PTR _itor$1[ebp]
  00083	3b 46 20	 cmp	 eax, DWORD PTR [esi+32]
; File D:\Metin2 Server Files\mainline\SRC_2014\Metin2Client\UserInterface\PythonCharacterManager.cpp

; 303  : 		for (TCharacterInstanceMap::iterator itor = m_kAliveInstMap.begin(); itor != m_kAliveInstMap.end(); ++itor)

  00086	75 e8		 jne	 SHORT $LL52@UpdateTran
$LN6@UpdateTran:
  00088	5e		 pop	 esi

; 307  : 		}
; 308  : 	}
; 309  : 
; 310  : #ifdef __PERFORMANCE_CHECKER__
; 311  : 	DWORD t4=timeGetTime();
; 312  : #endif
; 313  : 
; 314  : #ifdef __PERFORMANCE_CHECKER__
; 315  : 	{
; 316  : 		static FILE* fp=fopen("perf_chrmgr_updatetransform.txt", "w");
; 317  : 
; 318  : 		if (t4-t1>5)
; 319  : 		{
; 320  : 			fprintf(fp, "CUT.Total %d (Time %f, Alive %d, Dead %d)\n", 
; 321  : 				t4-t1, ELTimer_GetMSec()/1000.0f,
; 322  : 				m_kAliveInstMap.size(),
; 323  : 				m_kDeadInstList.size());
; 324  : 			fprintf(fp, "CUT.ChkAdvInst %d\n", t2-t1);
; 325  : 			fprintf(fp, "CUT.ChkAdvBG %d\n", t3-t2);
; 326  : 			fprintf(fp, "CUT.Trans %d\n", t4-t3);
; 327  : 
; 328  : 			fprintf(fp, "-------------------------------- \n");
; 329  : 			fflush(fp);
; 330  : 		}
; 331  : 
; 332  : 		fflush(fp);
; 333  : 	}
; 334  : #endif
; 335  : }

  00089	8b e5		 mov	 esp, ebp
  0008b	5d		 pop	 ebp
  0008c	c3		 ret	 0
?UpdateTransform@CPythonCharacterManager@@IAEXXZ ENDP	; CPythonCharacterManager::UpdateTransform
_TEXT	ENDS
; Function compile flags: /Ogtp
; File D:\Metin2 Server Files\mainline\SRC_2014\Metin2Client\UserInterface\PythonCharacterManager.cpp
; File C:\Program Files (x86)\Microsoft Visual Studio\2019\Community\VC\Tools\MSVC\14.28.29333\include\xtree
; File D:\Metin2 Server Files\mainline\SRC_2014\Metin2Client\UserInterface\pythoncharactermanager.h
; File C:\Program Files (x86)\Microsoft Visual Studio\2019\Community\VC\Tools\MSVC\14.28.29333\include\xtree
; File D:\Metin2 Server Files\mainline\SRC_2014\Metin2Client\UserInterface\PythonCharacterManager.cpp
; File D:\Metin2 Server Files\mainline\SRC_2014\Metin2Client\UserInterface\pythoncharactermanager.h
; File D:\Metin2 Server Files\mainline\SRC_2014\Metin2Client\UserInterface\PythonCharacterManager.cpp
; File C:\Program Files (x86)\Microsoft Visual Studio\2019\Community\VC\Tools\MSVC\14.28.29333\include\xtree
; File D:\Metin2 Server Files\mainline\SRC_2014\Metin2Client\UserInterface\PythonCharacterManager.cpp
;	COMDAT ?RefreshAllGuildMark@CPythonCharacterManager@@QAEXXZ
_TEXT	SEGMENT
_itor$ = -4						; size = 4
?RefreshAllGuildMark@CPythonCharacterManager@@QAEXXZ PROC ; CPythonCharacterManager::RefreshAllGuildMark, COMDAT
; _this$ = ecx

; 903  : {

  00000	55		 push	 ebp
  00001	8b ec		 mov	 ebp, esp
  00003	51		 push	 ecx
  00004	57		 push	 edi
; File C:\Program Files (x86)\Microsoft Visual Studio\2019\Community\VC\Tools\MSVC\14.28.29333\include\xtree

; 1240 :         return iterator(_Scary->_Myhead->_Left, _Scary);

  00005	8b 79 20	 mov	 edi, DWORD PTR [ecx+32]

; 39   :     _Tree_unchecked_const_iterator(_Nodeptr _Pnode, const _Mytree* _Plist) noexcept : _Ptr(_Pnode) {

  00008	8b 07		 mov	 eax, DWORD PTR [edi]
; File D:\Metin2 Server Files\mainline\SRC_2014\Metin2Client\UserInterface\pythoncharactermanager.h

; 132  : 			CharacterIterator(const TCharacterInstanceMap::iterator & it) : m_it(it) {}

  0000a	89 45 fc	 mov	 DWORD PTR _itor$[ebp], eax
; File C:\Program Files (x86)\Microsoft Visual Studio\2019\Community\VC\Tools\MSVC\14.28.29333\include\xtree

; 39   :     _Tree_unchecked_const_iterator(_Nodeptr _Pnode, const _Mytree* _Plist) noexcept : _Ptr(_Pnode) {

  0000d	3b c7		 cmp	 eax, edi
; File D:\Metin2 Server Files\mainline\SRC_2014\Metin2Client\UserInterface\PythonCharacterManager.cpp

; 906  : 	for (; itor != itorEnd; ++itor)

  0000f	74 35		 je	 SHORT $LN3@RefreshAll
  00011	56		 push	 esi
$LL36@RefreshAll:
; File D:\Metin2 Server Files\mainline\SRC_2014\Metin2Client\UserInterface\pythoncharactermanager.h

; 134  : 			inline CInstanceBase * operator * () {	return m_it->second; }

  00012	8b 70 14	 mov	 esi, DWORD PTR [eax+20]
; File D:\Metin2 Server Files\mainline\SRC_2014\Metin2Client\UserInterface\PythonCharacterManager.cpp

; 909  : 		if (!pInstance->IsPC())

  00015	8b ce		 mov	 ecx, esi
  00017	e8 00 00 00 00	 call	 ?IsPC@CInstanceBase@@QAEHXZ ; CInstanceBase::IsPC
  0001c	85 c0		 test	 eax, eax
  0001e	74 16		 je	 SHORT $LN2@RefreshAll

; 910  : 			continue;
; 911  : 
; 912  : 		pInstance->ChangeGuild(pInstance->GetGuildID());

  00020	8b ce		 mov	 ecx, esi
  00022	e8 00 00 00 00	 call	 ?GetGuildID@CInstanceBase@@QAEKXZ ; CInstanceBase::GetGuildID
  00027	50		 push	 eax
  00028	8b ce		 mov	 ecx, esi
  0002a	e8 00 00 00 00	 call	 ?ChangeGuild@CInstanceBase@@QAEXK@Z ; CInstanceBase::ChangeGuild

; 913  : 		pInstance->RefreshTextTail();

  0002f	8b ce		 mov	 ecx, esi
  00031	e8 00 00 00 00	 call	 ?RefreshTextTail@CInstanceBase@@QAEXXZ ; CInstanceBase::RefreshTextTail
$LN2@RefreshAll:
; File C:\Program Files (x86)\Microsoft Visual Studio\2019\Community\VC\Tools\MSVC\14.28.29333\include\xtree

; 198  :         _Mybase::operator++();

  00036	8d 4d fc	 lea	 ecx, DWORD PTR _itor$[ebp]
  00039	e8 00 00 00 00	 call	 ??E?$_Tree_unchecked_const_iterator@V?$_Tree_val@U?$_Tree_simple_types@U?$pair@$$CBKPAVCInstanceBase@@@std@@@std@@@std@@U_Iterator_base0@2@@std@@QAEAAV01@XZ ; std::_Tree_unchecked_const_iterator<std::_Tree_val<std::_Tree_simple_types<std::pair<unsigned long const ,CInstanceBase *> > >,std::_Iterator_base0>::operator++

; 232  :         return this->_Ptr == _Right._Ptr;

  0003e	8b 45 fc	 mov	 eax, DWORD PTR _itor$[ebp]
  00041	3b c7		 cmp	 eax, edi
; File D:\Metin2 Server Files\mainline\SRC_2014\Metin2Client\UserInterface\PythonCharacterManager.cpp

; 906  : 	for (; itor != itorEnd; ++itor)

  00043	75 cd		 jne	 SHORT $LL36@RefreshAll
  00045	5e		 pop	 esi
$LN3@RefreshAll:
  00046	5f		 pop	 edi

; 914  : 	}
; 915  : }

  00047	8b e5		 mov	 esp, ebp
  00049	5d		 pop	 ebp
  0004a	c3		 ret	 0
?RefreshAllGuildMark@CPythonCharacterManager@@QAEXXZ ENDP ; CPythonCharacterManager::RefreshAllGuildMark
_TEXT	ENDS
; Function compile flags: /Ogtp
; File D:\Metin2 Server Files\mainline\SRC_2014\Metin2Client\UserInterface\PythonCharacterManager.cpp
; File C:\Program Files (x86)\Microsoft Visual Studio\2019\Community\VC\Tools\MSVC\14.28.29333\include\xtree
; File D:\Metin2 Server Files\mainline\SRC_2014\Metin2Client\UserInterface\pythoncharactermanager.h
; File C:\Program Files (x86)\Microsoft Visual Studio\2019\Community\VC\Tools\MSVC\14.28.29333\include\xtree
; File D:\Metin2 Server Files\mainline\SRC_2014\Metin2Client\UserInterface\PythonCharacterManager.cpp
; File D:\Metin2 Server Files\mainline\SRC_2014\Metin2Client\UserInterface\pythoncharactermanager.h
; File D:\Metin2 Server Files\mainline\SRC_2014\Metin2Client\UserInterface\PythonCharacterManager.cpp
; File C:\Program Files (x86)\Microsoft Visual Studio\2019\Community\VC\Tools\MSVC\14.28.29333\include\xtree
; File D:\Metin2 Server Files\mainline\SRC_2014\Metin2Client\UserInterface\PythonCharacterManager.cpp
;	COMDAT ?RefreshAllPCTextTail@CPythonCharacterManager@@QAEXXZ
_TEXT	SEGMENT
_itor$ = -4						; size = 4
?RefreshAllPCTextTail@CPythonCharacterManager@@QAEXXZ PROC ; CPythonCharacterManager::RefreshAllPCTextTail, COMDAT
; _this$ = ecx

; 889  : {

  00000	55		 push	 ebp
  00001	8b ec		 mov	 ebp, esp
  00003	51		 push	 ecx
  00004	57		 push	 edi
; File C:\Program Files (x86)\Microsoft Visual Studio\2019\Community\VC\Tools\MSVC\14.28.29333\include\xtree

; 1240 :         return iterator(_Scary->_Myhead->_Left, _Scary);

  00005	8b 79 20	 mov	 edi, DWORD PTR [ecx+32]

; 39   :     _Tree_unchecked_const_iterator(_Nodeptr _Pnode, const _Mytree* _Plist) noexcept : _Ptr(_Pnode) {

  00008	8b 07		 mov	 eax, DWORD PTR [edi]
; File D:\Metin2 Server Files\mainline\SRC_2014\Metin2Client\UserInterface\pythoncharactermanager.h

; 132  : 			CharacterIterator(const TCharacterInstanceMap::iterator & it) : m_it(it) {}

  0000a	89 45 fc	 mov	 DWORD PTR _itor$[ebp], eax
; File C:\Program Files (x86)\Microsoft Visual Studio\2019\Community\VC\Tools\MSVC\14.28.29333\include\xtree

; 39   :     _Tree_unchecked_const_iterator(_Nodeptr _Pnode, const _Mytree* _Plist) noexcept : _Ptr(_Pnode) {

  0000d	3b c7		 cmp	 eax, edi
; File D:\Metin2 Server Files\mainline\SRC_2014\Metin2Client\UserInterface\PythonCharacterManager.cpp

; 892  : 	for (; itor != itorEnd; ++itor)

  0000f	74 26		 je	 SHORT $LN3@RefreshAll
  00011	56		 push	 esi
$LL36@RefreshAll:
; File D:\Metin2 Server Files\mainline\SRC_2014\Metin2Client\UserInterface\pythoncharactermanager.h

; 134  : 			inline CInstanceBase * operator * () {	return m_it->second; }

  00012	8b 70 14	 mov	 esi, DWORD PTR [eax+20]
; File D:\Metin2 Server Files\mainline\SRC_2014\Metin2Client\UserInterface\PythonCharacterManager.cpp

; 895  : 		if (!pInstance->IsPC())

  00015	8b ce		 mov	 ecx, esi
  00017	e8 00 00 00 00	 call	 ?IsPC@CInstanceBase@@QAEHXZ ; CInstanceBase::IsPC
  0001c	85 c0		 test	 eax, eax
  0001e	74 07		 je	 SHORT $LN2@RefreshAll

; 896  : 			continue;
; 897  : 
; 898  : 		pInstance->RefreshTextTail();

  00020	8b ce		 mov	 ecx, esi
  00022	e8 00 00 00 00	 call	 ?RefreshTextTail@CInstanceBase@@QAEXXZ ; CInstanceBase::RefreshTextTail
$LN2@RefreshAll:
; File C:\Program Files (x86)\Microsoft Visual Studio\2019\Community\VC\Tools\MSVC\14.28.29333\include\xtree

; 198  :         _Mybase::operator++();

  00027	8d 4d fc	 lea	 ecx, DWORD PTR _itor$[ebp]
  0002a	e8 00 00 00 00	 call	 ??E?$_Tree_unchecked_const_iterator@V?$_Tree_val@U?$_Tree_simple_types@U?$pair@$$CBKPAVCInstanceBase@@@std@@@std@@@std@@U_Iterator_base0@2@@std@@QAEAAV01@XZ ; std::_Tree_unchecked_const_iterator<std::_Tree_val<std::_Tree_simple_types<std::pair<unsigned long const ,CInstanceBase *> > >,std::_Iterator_base0>::operator++

; 232  :         return this->_Ptr == _Right._Ptr;

  0002f	8b 45 fc	 mov	 eax, DWORD PTR _itor$[ebp]
  00032	3b c7		 cmp	 eax, edi
; File D:\Metin2 Server Files\mainline\SRC_2014\Metin2Client\UserInterface\PythonCharacterManager.cpp

; 892  : 	for (; itor != itorEnd; ++itor)

  00034	75 dc		 jne	 SHORT $LL36@RefreshAll
  00036	5e		 pop	 esi
$LN3@RefreshAll:
  00037	5f		 pop	 edi

; 899  : 	}
; 900  : }

  00038	8b e5		 mov	 esp, ebp
  0003a	5d		 pop	 ebp
  0003b	c3		 ret	 0
?RefreshAllPCTextTail@CPythonCharacterManager@@QAEXXZ ENDP ; CPythonCharacterManager::RefreshAllPCTextTail
_TEXT	ENDS
; Function compile flags: /Ogtp
; File D:\Metin2 Server Files\mainline\SRC_2014\Metin2Client\UserInterface\PythonCharacterManager.cpp
; File C:\Program Files (x86)\Microsoft Visual Studio\2019\Community\VC\Tools\MSVC\14.28.29333\include\xtree
; File D:\Metin2 Server Files\mainline\SRC_2014\Metin2Client\UserInterface\PythonCharacterManager.cpp
; File C:\Program Files (x86)\Microsoft Visual Studio\2019\Community\VC\Tools\MSVC\14.28.29333\include\xtree
; File D:\Metin2 Server Files\mainline\SRC_2014\Metin2Client\UserInterface\PythonCharacterManager.cpp
;	COMDAT ?GetCloseInstance@CPythonCharacterManager@@QAEPAVCInstanceBase@@PAV2@@Z
_TEXT	SEGMENT
_this$1$ = -12						; size = 4
_itor$ = -8						; size = 4
_fMinDistance$1$ = -4					; size = 4
_fDistance$1 = 8					; size = 4
_pInstance$ = 8						; size = 4
?GetCloseInstance@CPythonCharacterManager@@QAEPAVCInstanceBase@@PAV2@@Z PROC ; CPythonCharacterManager::GetCloseInstance, COMDAT
; _this$ = ecx

; 861  : {

  00000	55		 push	 ebp
  00001	8b ec		 mov	 ebp, esp
  00003	83 ec 0c	 sub	 esp, 12			; 0000000cH

; 862  : 	float fMinDistance = 10000.0f;

  00006	f3 0f 10 05 00
	00 00 00	 movss	 xmm0, DWORD PTR __real@461c4000
  0000e	8b c1		 mov	 eax, ecx
  00010	53		 push	 ebx
  00011	89 45 f4	 mov	 DWORD PTR _this$1$[ebp], eax

; 863  : 	CInstanceBase * pCloseInstance = NULL;

  00014	33 db		 xor	 ebx, ebx
  00016	f3 0f 11 45 fc	 movss	 DWORD PTR _fMinDistance$1$[ebp], xmm0
; File C:\Program Files (x86)\Microsoft Visual Studio\2019\Community\VC\Tools\MSVC\14.28.29333\include\xtree

; 1240 :         return iterator(_Scary->_Myhead->_Left, _Scary);

  0001b	8b 50 20	 mov	 edx, DWORD PTR [eax+32]

; 39   :     _Tree_unchecked_const_iterator(_Nodeptr _Pnode, const _Mytree* _Plist) noexcept : _Ptr(_Pnode) {

  0001e	8b 02		 mov	 eax, DWORD PTR [edx]
  00020	89 45 f8	 mov	 DWORD PTR _itor$[ebp], eax
  00023	3b c2		 cmp	 eax, edx
; File D:\Metin2 Server Files\mainline\SRC_2014\Metin2Client\UserInterface\PythonCharacterManager.cpp

; 866  : 	for (; itor != m_kAliveInstMap.end(); ++itor)

  00025	74 5d		 je	 SHORT $LN43@GetCloseIn
  00027	56		 push	 esi
  00028	57		 push	 edi
  00029	8b 7d 08	 mov	 edi, DWORD PTR _pInstance$[ebp]
  0002c	0f 1f 40 00	 npad	 4
$LL20@GetCloseIn:

; 867  : 	{
; 868  : 		CInstanceBase * pTargetInstance = itor->second;

  00030	8b 70 14	 mov	 esi, DWORD PTR [eax+20]

; 869  : 
; 870  : 		if (pTargetInstance == pInstance)

  00033	3b f7		 cmp	 esi, edi
  00035	74 38		 je	 SHORT $LN2@GetCloseIn

; 871  : 			continue;
; 872  : 
; 873  : 		DWORD dwVirtualNumber = pTargetInstance->GetVirtualNumber();

  00037	8b ce		 mov	 ecx, esi
  00039	e8 00 00 00 00	 call	 ?GetVirtualNumber@CInstanceBase@@QAEKXZ ; CInstanceBase::GetVirtualNumber

; 874  : 		if (CPythonNonPlayer::ON_CLICK_EVENT_BATTLE != CPythonNonPlayer::Instance().GetEventType(dwVirtualNumber))

  0003e	8b 0d 00 00 00
	00		 mov	 ecx, DWORD PTR ?ms_singleton@?$CSingleton@VCPythonNonPlayer@@@@0PAVCPythonNonPlayer@@A ; CSingleton<CPythonNonPlayer>::ms_singleton
  00044	50		 push	 eax
  00045	e8 00 00 00 00	 call	 ?GetEventType@CPythonNonPlayer@@QAEEK@Z ; CPythonNonPlayer::GetEventType
  0004a	3c 01		 cmp	 al, 1
  0004c	75 21		 jne	 SHORT $LN2@GetCloseIn

; 875  : 			continue;
; 876  : 
; 877  : 		float fDistance = pInstance->GetDistance(pTargetInstance);

  0004e	56		 push	 esi
  0004f	8b cf		 mov	 ecx, edi
  00051	e8 00 00 00 00	 call	 ?GetDistance@CInstanceBase@@QAEMPAV1@@Z ; CInstanceBase::GetDistance

; 878  : 		if (fDistance < fMinDistance)

  00056	f3 0f 10 4d fc	 movss	 xmm1, DWORD PTR _fMinDistance$1$[ebp]
  0005b	d9 5d 08	 fstp	 DWORD PTR _fDistance$1[ebp]
  0005e	f3 0f 10 45 08	 movss	 xmm0, DWORD PTR _fDistance$1[ebp]
  00063	0f 2f c8	 comiss	 xmm1, xmm0
  00066	76 07		 jbe	 SHORT $LN2@GetCloseIn

; 879  : 		{
; 880  : 			fMinDistance = fDistance;

  00068	f3 0f 11 45 fc	 movss	 DWORD PTR _fMinDistance$1$[ebp], xmm0

; 881  : 			pCloseInstance = pTargetInstance;

  0006d	8b de		 mov	 ebx, esi
$LN2@GetCloseIn:
; File C:\Program Files (x86)\Microsoft Visual Studio\2019\Community\VC\Tools\MSVC\14.28.29333\include\xtree

; 198  :         _Mybase::operator++();

  0006f	8d 4d f8	 lea	 ecx, DWORD PTR _itor$[ebp]
  00072	e8 00 00 00 00	 call	 ??E?$_Tree_unchecked_const_iterator@V?$_Tree_val@U?$_Tree_simple_types@U?$pair@$$CBKPAVCInstanceBase@@@std@@@std@@@std@@U_Iterator_base0@2@@std@@QAEAAV01@XZ ; std::_Tree_unchecked_const_iterator<std::_Tree_val<std::_Tree_simple_types<std::pair<unsigned long const ,CInstanceBase *> > >,std::_Iterator_base0>::operator++

; 232  :         return this->_Ptr == _Right._Ptr;

  00077	8b 4d f4	 mov	 ecx, DWORD PTR _this$1$[ebp]
  0007a	8b 45 f8	 mov	 eax, DWORD PTR _itor$[ebp]
  0007d	3b 41 20	 cmp	 eax, DWORD PTR [ecx+32]
; File D:\Metin2 Server Files\mainline\SRC_2014\Metin2Client\UserInterface\PythonCharacterManager.cpp

; 866  : 	for (; itor != m_kAliveInstMap.end(); ++itor)

  00080	75 ae		 jne	 SHORT $LL20@GetCloseIn

; 882  : 		}
; 883  : 	}
; 884  : 
; 885  : 	return pCloseInstance;

  00082	5f		 pop	 edi
  00083	5e		 pop	 esi
$LN43@GetCloseIn:

; 886  : }

  00084	8b c3		 mov	 eax, ebx
  00086	5b		 pop	 ebx
  00087	8b e5		 mov	 esp, ebp
  00089	5d		 pop	 ebp
  0008a	c2 04 00	 ret	 4
?GetCloseInstance@CPythonCharacterManager@@QAEPAVCInstanceBase@@PAV2@@Z ENDP ; CPythonCharacterManager::GetCloseInstance
_TEXT	ENDS
; Function compile flags: /Ogtp
; File D:\Metin2 Server Files\mainline\SRC_2014\Metin2Client\UserInterface\PythonCharacterManager.cpp
; File C:\Program Files (x86)\Microsoft Visual Studio\2019\Community\VC\Tools\MSVC\14.28.29333\include\xtree
; File D:\Metin2 Server Files\mainline\SRC_2014\Metin2Client\UserInterface\PythonCharacterManager.cpp
; File C:\Program Files (x86)\Microsoft Visual Studio\2019\Community\VC\Tools\MSVC\14.28.29333\include\xtree
; File D:\Metin2 Server Files\mainline\SRC_2014\Metin2Client\UserInterface\PythonCharacterManager.cpp
;	COMDAT ?PickAll@CPythonCharacterManager@@QAEHXZ
_TEXT	SEGMENT
_itor$1 = -4						; size = 4
?PickAll@CPythonCharacterManager@@QAEHXZ PROC		; CPythonCharacterManager::PickAll, COMDAT
; _this$ = ecx

; 848  : {

  00000	55		 push	 ebp
  00001	8b ec		 mov	 ebp, esp
  00003	51		 push	 ecx
  00004	56		 push	 esi
  00005	57		 push	 edi
  00006	8b f9		 mov	 edi, ecx
; File C:\Program Files (x86)\Microsoft Visual Studio\2019\Community\VC\Tools\MSVC\14.28.29333\include\xtree

; 1240 :         return iterator(_Scary->_Myhead->_Left, _Scary);

  00008	8b 57 20	 mov	 edx, DWORD PTR [edi+32]

; 39   :     _Tree_unchecked_const_iterator(_Nodeptr _Pnode, const _Mytree* _Plist) noexcept : _Ptr(_Pnode) {

  0000b	8b 02		 mov	 eax, DWORD PTR [edx]
  0000d	89 45 fc	 mov	 DWORD PTR _itor$1[ebp], eax
  00010	3b c2		 cmp	 eax, edx
; File D:\Metin2 Server Files\mainline\SRC_2014\Metin2Client\UserInterface\PythonCharacterManager.cpp

; 849  : 	for (TCharacterInstanceMap::iterator itor = m_kAliveInstMap.begin(); itor != m_kAliveInstMap.end(); ++itor)

  00012	74 1e		 je	 SHORT $LN3@PickAll
$LL18@PickAll:

; 850  : 	{
; 851  : 		CInstanceBase * pInstance = itor->second;

  00014	8b 70 14	 mov	 esi, DWORD PTR [eax+20]

; 852  : 
; 853  : 		if (pInstance->IntersectDefendingSphere())

  00017	8b ce		 mov	 ecx, esi
  00019	e8 00 00 00 00	 call	 ?IntersectDefendingSphere@CInstanceBase@@QAE_NXZ ; CInstanceBase::IntersectDefendingSphere
  0001e	84 c0		 test	 al, al
  00020	75 19		 jne	 SHORT $LN38@PickAll
; File C:\Program Files (x86)\Microsoft Visual Studio\2019\Community\VC\Tools\MSVC\14.28.29333\include\xtree

; 198  :         _Mybase::operator++();

  00022	8d 4d fc	 lea	 ecx, DWORD PTR _itor$1[ebp]
  00025	e8 00 00 00 00	 call	 ??E?$_Tree_unchecked_const_iterator@V?$_Tree_val@U?$_Tree_simple_types@U?$pair@$$CBKPAVCInstanceBase@@@std@@@std@@@std@@U_Iterator_base0@2@@std@@QAEAAV01@XZ ; std::_Tree_unchecked_const_iterator<std::_Tree_val<std::_Tree_simple_types<std::pair<unsigned long const ,CInstanceBase *> > >,std::_Iterator_base0>::operator++

; 232  :         return this->_Ptr == _Right._Ptr;

  0002a	8b 45 fc	 mov	 eax, DWORD PTR _itor$1[ebp]
  0002d	3b 47 20	 cmp	 eax, DWORD PTR [edi+32]
; File D:\Metin2 Server Files\mainline\SRC_2014\Metin2Client\UserInterface\PythonCharacterManager.cpp

; 849  : 	for (TCharacterInstanceMap::iterator itor = m_kAliveInstMap.begin(); itor != m_kAliveInstMap.end(); ++itor)

  00030	75 e2		 jne	 SHORT $LL18@PickAll
$LN3@PickAll:
  00032	5f		 pop	 edi

; 855  : 	}
; 856  : 
; 857  : 	return -1;

  00033	83 c8 ff	 or	 eax, -1

; 858  : }

  00036	5e		 pop	 esi
  00037	8b e5		 mov	 esp, ebp
  00039	5d		 pop	 ebp
  0003a	c3		 ret	 0
$LN38@PickAll:

; 854  : 			return pInstance->GetVirtualID();

  0003b	8b ce		 mov	 ecx, esi
  0003d	e8 00 00 00 00	 call	 ?GetVirtualID@CInstanceBase@@QAEKXZ ; CInstanceBase::GetVirtualID
  00042	5f		 pop	 edi

; 858  : }

  00043	5e		 pop	 esi
  00044	8b e5		 mov	 esp, ebp
  00046	5d		 pop	 ebp
  00047	c3		 ret	 0
?PickAll@CPythonCharacterManager@@QAEHXZ ENDP		; CPythonCharacterManager::PickAll
_TEXT	ENDS
; Function compile flags: /Ogtp
; File D:\Metin2 Server Files\mainline\SRC_2014\Metin2Client\UserInterface\PythonCharacterManager.cpp
; File C:\Program Files (x86)\Microsoft Visual Studio\2019\Community\VC\Tools\MSVC\14.28.29333\include\xtree
; File D:\Metin2 Server Files\mainline\SRC_2014\Metin2Client\UserInterface\PythonCharacterManager.cpp
; File C:\Program Files (x86)\Microsoft Visual Studio\2019\Community\VC\Tools\MSVC\14.28.29333\include\xtree
; File D:\Metin2 Server Files\mainline\SRC_2014\Metin2Client\UserInterface\PythonCharacterManager.cpp
;	COMDAT ?GetInstancePtrByName@CPythonCharacterManager@@QAEPAVCInstanceBase@@PBD@Z
_TEXT	SEGMENT
_itor$ = -4						; size = 4
_name$ = 8						; size = 4
?GetInstancePtrByName@CPythonCharacterManager@@QAEPAVCInstanceBase@@PBD@Z PROC ; CPythonCharacterManager::GetInstancePtrByName, COMDAT
; _this$ = ecx

; 653  : {

  00000	55		 push	 ebp
  00001	8b ec		 mov	 ebp, esp
  00003	51		 push	 ecx
  00004	53		 push	 ebx
  00005	8b d9		 mov	 ebx, ecx
  00007	56		 push	 esi
  00008	57		 push	 edi
; File C:\Program Files (x86)\Microsoft Visual Studio\2019\Community\VC\Tools\MSVC\14.28.29333\include\xtree

; 1240 :         return iterator(_Scary->_Myhead->_Left, _Scary);

  00009	8b 53 20	 mov	 edx, DWORD PTR [ebx+32]

; 39   :     _Tree_unchecked_const_iterator(_Nodeptr _Pnode, const _Mytree* _Plist) noexcept : _Ptr(_Pnode) {

  0000c	8b 02		 mov	 eax, DWORD PTR [edx]
; File D:\Metin2 Server Files\mainline\SRC_2014\Metin2Client\UserInterface\PythonCharacterManager.cpp

; 656  : 	for (itor = m_kAliveInstMap.begin(); itor != m_kAliveInstMap.end(); itor++)

  0000e	89 45 fc	 mov	 DWORD PTR _itor$[ebp], eax
  00011	3b c2		 cmp	 eax, edx
  00013	74 46		 je	 SHORT $LN3@GetInstanc
$LL24@GetInstanc:

; 657  : 	{
; 658  : 		CInstanceBase * pInstance = itor->second;

  00015	8b 78 14	 mov	 edi, DWORD PTR [eax+20]

; 659  : 
; 660  : 		if (!strcmp(pInstance->GetNameString(), name))

  00018	8b cf		 mov	 ecx, edi
  0001a	8b 75 08	 mov	 esi, DWORD PTR _name$[ebp]
  0001d	e8 00 00 00 00	 call	 ?GetNameString@CInstanceBase@@QAEPBDXZ ; CInstanceBase::GetNameString
$LL48@GetInstanc:
  00022	8a 08		 mov	 cl, BYTE PTR [eax]
  00024	3a 0e		 cmp	 cl, BYTE PTR [esi]
  00026	75 1a		 jne	 SHORT $LN49@GetInstanc
  00028	84 c9		 test	 cl, cl
  0002a	74 12		 je	 SHORT $LN50@GetInstanc
  0002c	8a 48 01	 mov	 cl, BYTE PTR [eax+1]
  0002f	3a 4e 01	 cmp	 cl, BYTE PTR [esi+1]
  00032	75 0e		 jne	 SHORT $LN49@GetInstanc
  00034	83 c0 02	 add	 eax, 2
  00037	83 c6 02	 add	 esi, 2
  0003a	84 c9		 test	 cl, cl
  0003c	75 e4		 jne	 SHORT $LL48@GetInstanc
$LN50@GetInstanc:
  0003e	33 c0		 xor	 eax, eax
  00040	eb 05		 jmp	 SHORT $LN51@GetInstanc
$LN49@GetInstanc:
  00042	1b c0		 sbb	 eax, eax
  00044	83 c8 01	 or	 eax, 1
$LN51@GetInstanc:
  00047	85 c0		 test	 eax, eax
  00049	74 1b		 je	 SHORT $LN44@GetInstanc
; File C:\Program Files (x86)\Microsoft Visual Studio\2019\Community\VC\Tools\MSVC\14.28.29333\include\xtree

; 198  :         _Mybase::operator++();

  0004b	8d 4d fc	 lea	 ecx, DWORD PTR _itor$[ebp]
  0004e	e8 00 00 00 00	 call	 ??E?$_Tree_unchecked_const_iterator@V?$_Tree_val@U?$_Tree_simple_types@U?$pair@$$CBKPAVCInstanceBase@@@std@@@std@@@std@@U_Iterator_base0@2@@std@@QAEAAV01@XZ ; std::_Tree_unchecked_const_iterator<std::_Tree_val<std::_Tree_simple_types<std::pair<unsigned long const ,CInstanceBase *> > >,std::_Iterator_base0>::operator++

; 232  :         return this->_Ptr == _Right._Ptr;

  00053	8b 45 fc	 mov	 eax, DWORD PTR _itor$[ebp]
  00056	3b 43 20	 cmp	 eax, DWORD PTR [ebx+32]
; File D:\Metin2 Server Files\mainline\SRC_2014\Metin2Client\UserInterface\PythonCharacterManager.cpp

; 656  : 	for (itor = m_kAliveInstMap.begin(); itor != m_kAliveInstMap.end(); itor++)

  00059	75 ba		 jne	 SHORT $LL24@GetInstanc
$LN3@GetInstanc:
  0005b	5f		 pop	 edi

; 662  : 	}
; 663  : 
; 664  : 	return NULL;
; 665  : }

  0005c	5e		 pop	 esi
  0005d	33 c0		 xor	 eax, eax
  0005f	5b		 pop	 ebx
  00060	8b e5		 mov	 esp, ebp
  00062	5d		 pop	 ebp
  00063	c2 04 00	 ret	 4
$LN44@GetInstanc:

; 661  : 			return pInstance;

  00066	8b c7		 mov	 eax, edi
  00068	5f		 pop	 edi

; 662  : 	}
; 663  : 
; 664  : 	return NULL;
; 665  : }

  00069	5e		 pop	 esi
  0006a	5b		 pop	 ebx
  0006b	8b e5		 mov	 esp, ebp
  0006d	5d		 pop	 ebp
  0006e	c2 04 00	 ret	 4
?GetInstancePtrByName@CPythonCharacterManager@@QAEPAVCInstanceBase@@PBD@Z ENDP ; CPythonCharacterManager::GetInstancePtrByName
_TEXT	ENDS
; Function compile flags: /Ogtp
; File D:\Metin2 Server Files\mainline\SRC_2014\Metin2Client\UserInterface\PythonCharacterManager.cpp
; File C:\Program Files (x86)\Microsoft Visual Studio\2019\Community\VC\Tools\MSVC\14.28.29333\include\xtree
; File D:\Metin2 Server Files\mainline\SRC_2014\Metin2Client\UserInterface\PythonCharacterManager.cpp
; File C:\Program Files (x86)\Microsoft Visual Studio\2019\Community\VC\Tools\MSVC\14.28.29333\include\xtree
; File C:\Program Files (x86)\Microsoft Visual Studio\2019\Community\VC\Tools\MSVC\14.28.29333\include\xstddef
; File C:\Program Files (x86)\Microsoft Visual Studio\2019\Community\VC\Tools\MSVC\14.28.29333\include\xtree
; File D:\Metin2 Server Files\mainline\SRC_2014\Metin2Client\UserInterface\PythonCharacterManager.cpp
;	COMDAT ?GetInstancePtr@CPythonCharacterManager@@UAEPAVCInstanceBase@@K@Z
_TEXT	SEGMENT
__Loc$1 = -12						; size = 12
_VirtualID$ = 8						; size = 4
?GetInstancePtr@CPythonCharacterManager@@UAEPAVCInstanceBase@@K@Z PROC ; CPythonCharacterManager::GetInstancePtr, COMDAT
; _this$ = ecx

; 643  : {

  00000	55		 push	 ebp
  00001	8b ec		 mov	 ebp, esp
  00003	83 ec 0c	 sub	 esp, 12			; 0000000cH
  00006	56		 push	 esi
; File C:\Program Files (x86)\Microsoft Visual Studio\2019\Community\VC\Tools\MSVC\14.28.29333\include\xtree

; 1458 :         const _Tree_find_result<_Nodeptr> _Loc = _Find_lower_bound(_Keyval);

  00007	8d 45 08	 lea	 eax, DWORD PTR _VirtualID$[ebp]
  0000a	50		 push	 eax
; File D:\Metin2 Server Files\mainline\SRC_2014\Metin2Client\UserInterface\PythonCharacterManager.cpp

; 644  : 	TCharacterInstanceMap::iterator itor = m_kAliveInstMap.find(VirtualID);

  0000b	8d 71 1c	 lea	 esi, DWORD PTR [ecx+28]
; File C:\Program Files (x86)\Microsoft Visual Studio\2019\Community\VC\Tools\MSVC\14.28.29333\include\xtree

; 1458 :         const _Tree_find_result<_Nodeptr> _Loc = _Find_lower_bound(_Keyval);

  0000e	8d 45 f4	 lea	 eax, DWORD PTR __Loc$1[ebp]
  00011	8b ce		 mov	 ecx, esi
  00013	50		 push	 eax
  00014	e8 00 00 00 00	 call	 ??$_Find_lower_bound@K@?$_Tree@V?$_Tmap_traits@KPAVCInstanceBase@@U?$less@K@std@@V?$allocator@U?$pair@$$CBKPAVCInstanceBase@@@std@@@3@$0A@@std@@@std@@IBE?AU?$_Tree_find_result@PAU?$_Tree_node@U?$pair@$$CBKPAVCInstanceBase@@@std@@PAX@std@@@1@ABK@Z ; std::_Tree<std::_Tmap_traits<unsigned long,CInstanceBase *,std::less<unsigned long>,std::allocator<std::pair<unsigned long const ,CInstanceBase *> >,0> >::_Find_lower_bound<unsigned long>

; 1695 :         return !_Bound->_Isnil && !_DEBUG_LT_PRED(_Getcomp(), _Keyval, _Traits::_Kfn(_Bound->_Myval));

  00019	8b 45 fc	 mov	 eax, DWORD PTR __Loc$1[ebp+8]
  0001c	80 78 0d 00	 cmp	 BYTE PTR [eax+13], 0
  00020	75 16		 jne	 SHORT $LN38@GetInstanc
; File C:\Program Files (x86)\Microsoft Visual Studio\2019\Community\VC\Tools\MSVC\14.28.29333\include\xstddef

; 127  :         return _Left < _Right;

  00022	8b 4d 08	 mov	 ecx, DWORD PTR _VirtualID$[ebp]
  00025	3b 48 10	 cmp	 ecx, DWORD PTR [eax+16]
; File C:\Program Files (x86)\Microsoft Visual Studio\2019\Community\VC\Tools\MSVC\14.28.29333\include\xtree

; 1695 :         return !_Bound->_Isnil && !_DEBUG_LT_PRED(_Getcomp(), _Keyval, _Traits::_Kfn(_Bound->_Myval));

  00028	72 0e		 jb	 SHORT $LN38@GetInstanc

; 39   :     _Tree_unchecked_const_iterator(_Nodeptr _Pnode, const _Mytree* _Plist) noexcept : _Ptr(_Pnode) {

  0002a	39 06		 cmp	 DWORD PTR [esi], eax
; File D:\Metin2 Server Files\mainline\SRC_2014\Metin2Client\UserInterface\PythonCharacterManager.cpp

; 646  : 	if (m_kAliveInstMap.end() == itor)

  0002c	74 0a		 je	 SHORT $LN38@GetInstanc

; 648  : 
; 649  : 	return itor->second;

  0002e	8b 40 14	 mov	 eax, DWORD PTR [eax+20]
  00031	5e		 pop	 esi

; 650  : }

  00032	8b e5		 mov	 esp, ebp
  00034	5d		 pop	 ebp
  00035	c2 04 00	 ret	 4
$LN38@GetInstanc:

; 647  : 		return NULL;

  00038	33 c0		 xor	 eax, eax
  0003a	5e		 pop	 esi

; 650  : }

  0003b	8b e5		 mov	 esp, ebp
  0003d	5d		 pop	 ebp
  0003e	c2 04 00	 ret	 4
?GetInstancePtr@CPythonCharacterManager@@UAEPAVCInstanceBase@@K@Z ENDP ; CPythonCharacterManager::GetInstancePtr
_TEXT	ENDS
; Function compile flags: /Ogtp
; File D:\Metin2 Server Files\mainline\SRC_2014\Metin2Client\UserInterface\PythonCharacterManager.cpp
;	COMDAT ?GetSelectedInstancePtr@CPythonCharacterManager@@QAEPAVCInstanceBase@@XZ
_TEXT	SEGMENT
?GetSelectedInstancePtr@CPythonCharacterManager@@QAEPAVCInstanceBase@@XZ PROC ; CPythonCharacterManager::GetSelectedInstancePtr, COMDAT
; _this$ = ecx

; 669  : 	return m_pkInstBind;

  00000	8b 41 14	 mov	 eax, DWORD PTR [ecx+20]

; 670  : }

  00003	c3		 ret	 0
?GetSelectedInstancePtr@CPythonCharacterManager@@QAEPAVCInstanceBase@@XZ ENDP ; CPythonCharacterManager::GetSelectedInstancePtr
_TEXT	ENDS
; Function compile flags: /Ogtp
; File D:\Metin2 Server Files\mainline\SRC_2014\Metin2Client\UserInterface\PythonCharacterManager.cpp
; File C:\Program Files (x86)\Microsoft Visual Studio\2019\Community\VC\Tools\MSVC\14.28.29333\include\xtree
; File C:\Program Files (x86)\Microsoft Visual Studio\2019\Community\VC\Tools\MSVC\14.28.29333\include\xstddef
; File C:\Program Files (x86)\Microsoft Visual Studio\2019\Community\VC\Tools\MSVC\14.28.29333\include\xtree
; File D:\Metin2 Server Files\mainline\SRC_2014\Metin2Client\UserInterface\PythonCharacterManager.cpp
;	COMDAT ?SelectInstance@CPythonCharacterManager@@QAEXK@Z
_TEXT	SEGMENT
__Loc$1 = -12						; size = 12
_VirtualID$ = 8						; size = 4
?SelectInstance@CPythonCharacterManager@@QAEXK@Z PROC	; CPythonCharacterManager::SelectInstance, COMDAT
; _this$ = ecx

; 630  : {

  00000	55		 push	 ebp
  00001	8b ec		 mov	 ebp, esp
  00003	83 ec 0c	 sub	 esp, 12			; 0000000cH
  00006	56		 push	 esi
  00007	57		 push	 edi
  00008	8b f1		 mov	 esi, ecx
; File C:\Program Files (x86)\Microsoft Visual Studio\2019\Community\VC\Tools\MSVC\14.28.29333\include\xtree

; 1458 :         const _Tree_find_result<_Nodeptr> _Loc = _Find_lower_bound(_Keyval);

  0000a	8d 45 08	 lea	 eax, DWORD PTR _VirtualID$[ebp]
  0000d	50		 push	 eax
  0000e	8d 45 f4	 lea	 eax, DWORD PTR __Loc$1[ebp]
  00011	50		 push	 eax
  00012	8d 4e 20	 lea	 ecx, DWORD PTR [esi+32]
  00015	e8 00 00 00 00	 call	 ??$_Find_lower_bound@K@?$_Tree@V?$_Tmap_traits@KPAVCInstanceBase@@U?$less@K@std@@V?$allocator@U?$pair@$$CBKPAVCInstanceBase@@@std@@@3@$0A@@std@@@std@@IBE?AU?$_Tree_find_result@PAU?$_Tree_node@U?$pair@$$CBKPAVCInstanceBase@@@std@@PAX@std@@@1@ABK@Z ; std::_Tree<std::_Tmap_traits<unsigned long,CInstanceBase *,std::less<unsigned long>,std::allocator<std::pair<unsigned long const ,CInstanceBase *> >,0> >::_Find_lower_bound<unsigned long>

; 1695 :         return !_Bound->_Isnil && !_DEBUG_LT_PRED(_Getcomp(), _Keyval, _Traits::_Kfn(_Bound->_Myval));

  0001a	8b 45 fc	 mov	 eax, DWORD PTR __Loc$1[ebp+8]
  0001d	8b 4d 08	 mov	 ecx, DWORD PTR _VirtualID$[ebp]
  00020	80 78 0d 00	 cmp	 BYTE PTR [eax+13], 0
  00024	75 18		 jne	 SHORT $LN38@SelectInst
; File C:\Program Files (x86)\Microsoft Visual Studio\2019\Community\VC\Tools\MSVC\14.28.29333\include\xstddef

; 127  :         return _Left < _Right;

  00026	3b 48 10	 cmp	 ecx, DWORD PTR [eax+16]
; File C:\Program Files (x86)\Microsoft Visual Studio\2019\Community\VC\Tools\MSVC\14.28.29333\include\xtree

; 1695 :         return !_Bound->_Isnil && !_DEBUG_LT_PRED(_Getcomp(), _Keyval, _Traits::_Kfn(_Bound->_Myval));

  00029	72 13		 jb	 SHORT $LN38@SelectInst

; 232  :         return this->_Ptr == _Right._Ptr;

  0002b	39 46 20	 cmp	 DWORD PTR [esi+32], eax
; File D:\Metin2 Server Files\mainline\SRC_2014\Metin2Client\UserInterface\PythonCharacterManager.cpp

; 633  : 	if (m_kAliveInstMap.end() == itor)

  0002e	74 0e		 je	 SHORT $LN38@SelectInst

; 636  : 		return;
; 637  : 	}
; 638  : 
; 639  : 	m_pkInstBind = itor->second;

  00030	8b 40 14	 mov	 eax, DWORD PTR [eax+20]
  00033	5f		 pop	 edi
  00034	89 46 14	 mov	 DWORD PTR [esi+20], eax

; 640  : }

  00037	5e		 pop	 esi
  00038	8b e5		 mov	 esp, ebp
  0003a	5d		 pop	 ebp
  0003b	c2 04 00	 ret	 4
$LN38@SelectInst:

; 634  : 	{
; 635  : 		Tracef("SelectCharacterInstance: no vid by %d\n", VirtualID);

  0003e	51		 push	 ecx
  0003f	68 00 00 00 00	 push	 OFFSET ??_C@_0CH@DINFEOPA@SelectCharacterInstance?3?5no?5vid@
  00044	e8 00 00 00 00	 call	 ?Tracef@@YAXPBDZZ	; Tracef
  00049	83 c4 08	 add	 esp, 8
  0004c	5f		 pop	 edi

; 640  : }

  0004d	5e		 pop	 esi
  0004e	8b e5		 mov	 esp, ebp
  00050	5d		 pop	 ebp
  00051	c2 04 00	 ret	 4
?SelectInstance@CPythonCharacterManager@@QAEXK@Z ENDP	; CPythonCharacterManager::SelectInstance
_TEXT	ENDS
; Function compile flags: /Ogtp
; File D:\Metin2 Server Files\mainline\SRC_2014\Metin2Client\UserInterface\PythonCharacterManager.cpp
; File C:\Program Files (x86)\Microsoft Visual Studio\2019\Community\VC\Tools\MSVC\14.28.29333\include\list
; File C:\Program Files (x86)\Microsoft Visual Studio\2019\Community\VC\Tools\MSVC\14.28.29333\include\algorithm
; File C:\Program Files (x86)\Microsoft Visual Studio\2019\Community\VC\Tools\MSVC\14.28.29333\include\list
; File C:\Program Files (x86)\Microsoft Visual Studio\2019\Community\VC\Tools\MSVC\14.28.29333\include\algorithm
; File C:\Program Files (x86)\Microsoft Visual Studio\2019\Community\VC\Tools\MSVC\14.28.29333\include\list
; File C:\Program Files (x86)\Microsoft Visual Studio\2019\Community\VC\Tools\MSVC\14.28.29333\include\algorithm
; File C:\Program Files (x86)\Microsoft Visual Studio\2019\Community\VC\Tools\MSVC\14.28.29333\include\list
; File C:\Program Files (x86)\Microsoft Visual Studio\2019\Community\VC\Tools\MSVC\14.28.29333\include\xmemory
; File C:\Program Files (x86)\Microsoft Visual Studio\2019\Community\VC\Tools\MSVC\14.28.29333\include\list
; File D:\Metin2 Server Files\mainline\SRC_2014\Metin2Client\UserInterface\PythonCharacterManager.cpp
;	COMDAT ?DestroyDeadInstanceList@CPythonCharacterManager@@QAEXXZ
_TEXT	SEGMENT
?DestroyDeadInstanceList@CPythonCharacterManager@@QAEXXZ PROC ; CPythonCharacterManager::DestroyDeadInstanceList, COMDAT
; _this$ = ecx

; 933  : {

  00000	53		 push	 ebx
  00001	8b d9		 mov	 ebx, ecx
  00003	56		 push	 esi
  00004	57		 push	 edi
; File C:\Program Files (x86)\Microsoft Visual Studio\2019\Community\VC\Tools\MSVC\14.28.29333\include\list

; 39   :     _List_unchecked_const_iterator(_Nodeptr _Pnode, const _Mylist* _Plist) noexcept : _Ptr(_Pnode) {

  00005	8b 7b 28	 mov	 edi, DWORD PTR [ebx+40]
  00008	8b 37		 mov	 esi, DWORD PTR [edi]

; 74   :         return _Ptr == _Right._Ptr;

  0000a	3b f7		 cmp	 esi, edi
; File C:\Program Files (x86)\Microsoft Visual Studio\2019\Community\VC\Tools\MSVC\14.28.29333\include\algorithm

; 307  :     for (; _UFirst != _ULast; ++_UFirst) {

  0000c	74 13		 je	 SHORT $LN21@DestroyDea
  0000e	66 90		 npad	 2
$LL43@DestroyDea:

; 308  :         _Func(*_UFirst);

  00010	ff 76 08	 push	 DWORD PTR [esi+8]
  00013	e8 00 00 00 00	 call	 ?Delete@CInstanceBase@@SAXPAV1@@Z ; CInstanceBase::Delete
; File C:\Program Files (x86)\Microsoft Visual Studio\2019\Community\VC\Tools\MSVC\14.28.29333\include\list

; 52   :         _Ptr = _Ptr->_Next;

  00018	8b 36		 mov	 esi, DWORD PTR [esi]
; File C:\Program Files (x86)\Microsoft Visual Studio\2019\Community\VC\Tools\MSVC\14.28.29333\include\algorithm

; 308  :         _Func(*_UFirst);

  0001a	83 c4 04	 add	 esp, 4
; File C:\Program Files (x86)\Microsoft Visual Studio\2019\Community\VC\Tools\MSVC\14.28.29333\include\list

; 74   :         return _Ptr == _Right._Ptr;

  0001d	3b f7		 cmp	 esi, edi
; File C:\Program Files (x86)\Microsoft Visual Studio\2019\Community\VC\Tools\MSVC\14.28.29333\include\algorithm

; 307  :     for (; _UFirst != _ULast; ++_UFirst) {

  0001f	75 ef		 jne	 SHORT $LL43@DestroyDea
$LN21@DestroyDea:
; File C:\Program Files (x86)\Microsoft Visual Studio\2019\Community\VC\Tools\MSVC\14.28.29333\include\list

; 1429 :         _Node::_Free_non_head(_Getal(), _My_data._Myhead);

  00021	8b 4b 28	 mov	 ecx, DWORD PTR [ebx+40]

; 324  :         _Head->_Prev->_Next = nullptr;

  00024	8b 41 04	 mov	 eax, DWORD PTR [ecx+4]
  00027	c7 00 00 00 00
	00		 mov	 DWORD PTR [eax], 0

; 325  : 
; 326  :         auto _Pnode = _Head->_Next;

  0002d	8b 01		 mov	 eax, DWORD PTR [ecx]

; 327  :         for (_Nodeptr _Pnext; _Pnode; _Pnode = _Pnext) {

  0002f	85 c0		 test	 eax, eax
  00031	74 13		 je	 SHORT $LN56@DestroyDea
$LL57@DestroyDea:

; 328  :             _Pnext = _Pnode->_Next;

  00033	8b 30		 mov	 esi, DWORD PTR [eax]
; File C:\Program Files (x86)\Microsoft Visual Studio\2019\Community\VC\Tools\MSVC\14.28.29333\include\xmemory

; 696  :         _Deallocate<_New_alignof<value_type>>(_Ptr, sizeof(value_type) * _Count);

  00035	6a 0c		 push	 12			; 0000000cH
  00037	50		 push	 eax
  00038	e8 00 00 00 00	 call	 ??$_Deallocate@$07$0A@@std@@YAXPAXI@Z ; std::_Deallocate<8,0>
  0003d	83 c4 08	 add	 esp, 8
; File C:\Program Files (x86)\Microsoft Visual Studio\2019\Community\VC\Tools\MSVC\14.28.29333\include\list

; 327  :         for (_Nodeptr _Pnext; _Pnode; _Pnode = _Pnext) {

  00040	8b c6		 mov	 eax, esi
  00042	85 f6		 test	 esi, esi
  00044	75 ed		 jne	 SHORT $LL57@DestroyDea
$LN56@DestroyDea:

; 1430 :         _My_data._Myhead->_Next = _My_data._Myhead;

  00046	8b 43 28	 mov	 eax, DWORD PTR [ebx+40]

; 1431 :         _My_data._Myhead->_Prev = _My_data._Myhead;
; 1432 :         _My_data._Mysize        = 0;

  00049	5f		 pop	 edi
  0004a	5e		 pop	 esi
  0004b	89 00		 mov	 DWORD PTR [eax], eax
  0004d	8b 43 28	 mov	 eax, DWORD PTR [ebx+40]
  00050	89 40 04	 mov	 DWORD PTR [eax+4], eax
  00053	c7 43 2c 00 00
	00 00		 mov	 DWORD PTR [ebx+44], 0
  0005a	5b		 pop	 ebx
; File D:\Metin2 Server Files\mainline\SRC_2014\Metin2Client\UserInterface\PythonCharacterManager.cpp

; 936  : }

  0005b	c3		 ret	 0
?DestroyDeadInstanceList@CPythonCharacterManager@@QAEXXZ ENDP ; CPythonCharacterManager::DestroyDeadInstanceList
_TEXT	ENDS
; Function compile flags: /Ogtp
; File D:\Metin2 Server Files\mainline\SRC_2014\Metin2Client\UserInterface\PythonCharacterManager.cpp
; File C:\Program Files (x86)\Microsoft Visual Studio\2019\Community\VC\Tools\MSVC\14.28.29333\include\xtree
; File D:\Metin2 Server Files\mainline\SRC_2014\Metin2Client\UserInterface\PythonCharacterManager.cpp
; File C:\Program Files (x86)\Microsoft Visual Studio\2019\Community\VC\Tools\MSVC\14.28.29333\include\xtree
; File D:\Metin2 Server Files\mainline\SRC_2014\Metin2Client\UserInterface\PythonCharacterManager.cpp
; File C:\Program Files (x86)\Microsoft Visual Studio\2019\Community\VC\Tools\MSVC\14.28.29333\include\xtree
; File D:\Metin2 Server Files\mainline\SRC_2014\Metin2Client\UserInterface\PythonCharacterManager.cpp
; File C:\Program Files (x86)\Microsoft Visual Studio\2019\Community\VC\Tools\MSVC\14.28.29333\include\xtree
; File C:\Program Files (x86)\Microsoft Visual Studio\2019\Community\VC\Tools\MSVC\14.28.29333\include\utility
; File C:\Program Files (x86)\Microsoft Visual Studio\2019\Community\VC\Tools\MSVC\14.28.29333\include\xmemory
; File C:\Program Files (x86)\Microsoft Visual Studio\2019\Community\VC\Tools\MSVC\14.28.29333\include\xtree
; File D:\Metin2 Server Files\mainline\SRC_2014\Metin2Client\UserInterface\PythonCharacterManager.cpp
;	COMDAT ?DestroyAliveInstanceMap@CPythonCharacterManager@@QAEXXZ
_TEXT	SEGMENT
_i$1 = -4						; size = 4
?DestroyAliveInstanceMap@CPythonCharacterManager@@QAEXXZ PROC ; CPythonCharacterManager::DestroyAliveInstanceMap, COMDAT
; _this$ = ecx

; 925  : {

  00000	55		 push	 ebp
  00001	8b ec		 mov	 ebp, esp
  00003	51		 push	 ecx
  00004	53		 push	 ebx
  00005	56		 push	 esi
; File C:\Program Files (x86)\Microsoft Visual Studio\2019\Community\VC\Tools\MSVC\14.28.29333\include\xtree

; 1240 :         return iterator(_Scary->_Myhead->_Left, _Scary);

  00006	8b 71 20	 mov	 esi, DWORD PTR [ecx+32]
  00009	8d 59 20	 lea	 ebx, DWORD PTR [ecx+32]
; File D:\Metin2 Server Files\mainline\SRC_2014\Metin2Client\UserInterface\PythonCharacterManager.cpp

; 925  : {

  0000c	57		 push	 edi
; File C:\Program Files (x86)\Microsoft Visual Studio\2019\Community\VC\Tools\MSVC\14.28.29333\include\xtree

; 39   :     _Tree_unchecked_const_iterator(_Nodeptr _Pnode, const _Mytree* _Plist) noexcept : _Ptr(_Pnode) {

  0000d	8b 06		 mov	 eax, DWORD PTR [esi]
  0000f	89 45 fc	 mov	 DWORD PTR _i$1[ebp], eax
  00012	3b c6		 cmp	 eax, esi
; File D:\Metin2 Server Files\mainline\SRC_2014\Metin2Client\UserInterface\PythonCharacterManager.cpp

; 926  : 	for (TCharacterInstanceMap::iterator i = m_kAliveInstMap.begin(); i != m_kAliveInstMap.end(); ++i)

  00014	74 1c		 je	 SHORT $LN3@DestroyAli
$LL17@DestroyAli:

; 927  : 		CInstanceBase::Delete(i->second);

  00016	ff 70 14	 push	 DWORD PTR [eax+20]
  00019	e8 00 00 00 00	 call	 ?Delete@CInstanceBase@@SAXPAV1@@Z ; CInstanceBase::Delete
  0001e	83 c4 04	 add	 esp, 4
; File C:\Program Files (x86)\Microsoft Visual Studio\2019\Community\VC\Tools\MSVC\14.28.29333\include\xtree

; 198  :         _Mybase::operator++();

  00021	8d 4d fc	 lea	 ecx, DWORD PTR _i$1[ebp]
  00024	e8 00 00 00 00	 call	 ??E?$_Tree_unchecked_const_iterator@V?$_Tree_val@U?$_Tree_simple_types@U?$pair@$$CBKPAVCInstanceBase@@@std@@@std@@@std@@U_Iterator_base0@2@@std@@QAEAAV01@XZ ; std::_Tree_unchecked_const_iterator<std::_Tree_val<std::_Tree_simple_types<std::pair<unsigned long const ,CInstanceBase *> > >,std::_Iterator_base0>::operator++

; 39   :     _Tree_unchecked_const_iterator(_Nodeptr _Pnode, const _Mytree* _Plist) noexcept : _Ptr(_Pnode) {

  00029	8b 33		 mov	 esi, DWORD PTR [ebx]

; 232  :         return this->_Ptr == _Right._Ptr;

  0002b	8b 45 fc	 mov	 eax, DWORD PTR _i$1[ebp]
  0002e	3b c6		 cmp	 eax, esi
; File D:\Metin2 Server Files\mainline\SRC_2014\Metin2Client\UserInterface\PythonCharacterManager.cpp

; 926  : 	for (TCharacterInstanceMap::iterator i = m_kAliveInstMap.begin(); i != m_kAliveInstMap.end(); ++i)

  00030	75 e4		 jne	 SHORT $LL17@DestroyAli
$LN3@DestroyAli:
; File C:\Program Files (x86)\Microsoft Visual Studio\2019\Community\VC\Tools\MSVC\14.28.29333\include\xtree

; 1448 :         _Scary->_Erase_tree(_Getal(), _Head->_Parent);

  00032	8b 7e 04	 mov	 edi, DWORD PTR [esi+4]

; 743  :         while (!_Rootnode->_Isnil) { // free subtrees, then node

  00035	80 7f 0d 00	 cmp	 BYTE PTR [edi+13], 0
  00039	75 25		 jne	 SHORT $LN40@DestroyAli
  0003b	0f 1f 44 00 00	 npad	 5
$LL39@DestroyAli:

; 744  :             _Erase_tree(_Al, _Rootnode->_Right);

  00040	ff 77 08	 push	 DWORD PTR [edi+8]
  00043	8b cb		 mov	 ecx, ebx
  00045	53		 push	 ebx
  00046	e8 00 00 00 00	 call	 ??$_Erase_tree@V?$allocator@U?$_Tree_node@U?$pair@$$CBKPAVCInstanceBase@@@std@@PAX@std@@@std@@@?$_Tree_val@U?$_Tree_simple_types@U?$pair@$$CBKPAVCInstanceBase@@@std@@@std@@@std@@QAEXAAV?$allocator@U?$_Tree_node@U?$pair@$$CBKPAVCInstanceBase@@@std@@PAX@std@@@1@PAU?$_Tree_node@U?$pair@$$CBKPAVCInstanceBase@@@std@@PAX@1@@Z ; std::_Tree_val<std::_Tree_simple_types<std::pair<unsigned long const ,CInstanceBase *> > >::_Erase_tree<std::allocator<std::_Tree_node<std::pair<unsigned long const ,CInstanceBase *>,void *> > >
; File C:\Program Files (x86)\Microsoft Visual Studio\2019\Community\VC\Tools\MSVC\14.28.29333\include\utility

; 598  :     _Ty _Old_val = static_cast<_Ty&&>(_Val);

  0004b	8b c7		 mov	 eax, edi

; 599  :     _Val         = static_cast<_Other&&>(_New_val);

  0004d	8b 3f		 mov	 edi, DWORD PTR [edi]
; File C:\Program Files (x86)\Microsoft Visual Studio\2019\Community\VC\Tools\MSVC\14.28.29333\include\xmemory

; 696  :         _Deallocate<_New_alignof<value_type>>(_Ptr, sizeof(value_type) * _Count);

  0004f	6a 18		 push	 24			; 00000018H
  00051	50		 push	 eax
  00052	e8 00 00 00 00	 call	 ??$_Deallocate@$07$0A@@std@@YAXPAXI@Z ; std::_Deallocate<8,0>
  00057	83 c4 08	 add	 esp, 8
; File C:\Program Files (x86)\Microsoft Visual Studio\2019\Community\VC\Tools\MSVC\14.28.29333\include\xtree

; 743  :         while (!_Rootnode->_Isnil) { // free subtrees, then node

  0005a	80 7f 0d 00	 cmp	 BYTE PTR [edi+13], 0
  0005e	74 e0		 je	 SHORT $LL39@DestroyAli
$LN40@DestroyAli:

; 1452 :         _Scary->_Mysize = 0;

  00060	5f		 pop	 edi
  00061	89 76 04	 mov	 DWORD PTR [esi+4], esi
  00064	89 36		 mov	 DWORD PTR [esi], esi
  00066	89 76 08	 mov	 DWORD PTR [esi+8], esi
  00069	5e		 pop	 esi
  0006a	c7 43 04 00 00
	00 00		 mov	 DWORD PTR [ebx+4], 0
  00071	5b		 pop	 ebx
; File D:\Metin2 Server Files\mainline\SRC_2014\Metin2Client\UserInterface\PythonCharacterManager.cpp

; 930  : }

  00072	8b e5		 mov	 esp, ebp
  00074	5d		 pop	 ebp
  00075	c3		 ret	 0
?DestroyAliveInstanceMap@CPythonCharacterManager@@QAEXXZ ENDP ; CPythonCharacterManager::DestroyAliveInstanceMap
_TEXT	ENDS
; Function compile flags: /Ogtp
; File D:\Metin2 Server Files\mainline\SRC_2014\Metin2Client\UserInterface\PythonCharacterManager.cpp
; File C:\Program Files (x86)\Microsoft Visual Studio\2019\Community\VC\Tools\MSVC\14.28.29333\include\xtree
; File C:\Program Files (x86)\Microsoft Visual Studio\2019\Community\VC\Tools\MSVC\14.28.29333\include\xstddef
; File C:\Program Files (x86)\Microsoft Visual Studio\2019\Community\VC\Tools\MSVC\14.28.29333\include\xtree
; File D:\Metin2 Server Files\mainline\SRC_2014\Metin2Client\UserInterface\PythonCharacterManager.cpp
; File C:\Program Files (x86)\Microsoft Visual Studio\2019\Community\VC\Tools\MSVC\14.28.29333\include\xtree
; File C:\Program Files (x86)\Microsoft Visual Studio\2019\Community\VC\Tools\MSVC\14.28.29333\include\xmemory
; File D:\Metin2 Server Files\mainline\SRC_2014\Metin2Client\UserInterface\PythonCharacterManager.cpp
;	COMDAT ?DeleteInstanceByFade@CPythonCharacterManager@@QAEXK@Z
_TEXT	SEGMENT
__Loc$1 = -12						; size = 12
_dwVID$ = 8						; size = 4
?DeleteInstanceByFade@CPythonCharacterManager@@QAEXK@Z PROC ; CPythonCharacterManager::DeleteInstanceByFade, COMDAT
; _this$ = ecx

; 619  : {

  00000	55		 push	 ebp
  00001	8b ec		 mov	 ebp, esp
  00003	83 ec 0c	 sub	 esp, 12			; 0000000cH
  00006	53		 push	 ebx
  00007	56		 push	 esi
  00008	57		 push	 edi
  00009	8b d9		 mov	 ebx, ecx
; File C:\Program Files (x86)\Microsoft Visual Studio\2019\Community\VC\Tools\MSVC\14.28.29333\include\xtree

; 1458 :         const _Tree_find_result<_Nodeptr> _Loc = _Find_lower_bound(_Keyval);

  0000b	8d 45 08	 lea	 eax, DWORD PTR _dwVID$[ebp]
  0000e	50		 push	 eax
  0000f	8d 45 f4	 lea	 eax, DWORD PTR __Loc$1[ebp]
  00012	50		 push	 eax
  00013	8d 4b 20	 lea	 ecx, DWORD PTR [ebx+32]
  00016	e8 00 00 00 00	 call	 ??$_Find_lower_bound@K@?$_Tree@V?$_Tmap_traits@KPAVCInstanceBase@@U?$less@K@std@@V?$allocator@U?$pair@$$CBKPAVCInstanceBase@@@std@@@3@$0A@@std@@@std@@IBE?AU?$_Tree_find_result@PAU?$_Tree_node@U?$pair@$$CBKPAVCInstanceBase@@@std@@PAX@std@@@1@ABK@Z ; std::_Tree<std::_Tmap_traits<unsigned long,CInstanceBase *,std::less<unsigned long>,std::allocator<std::pair<unsigned long const ,CInstanceBase *> >,0> >::_Find_lower_bound<unsigned long>

; 1695 :         return !_Bound->_Isnil && !_DEBUG_LT_PRED(_Getcomp(), _Keyval, _Traits::_Kfn(_Bound->_Myval));

  0001b	8b 75 fc	 mov	 esi, DWORD PTR __Loc$1[ebp+8]
  0001e	80 7e 0d 00	 cmp	 BYTE PTR [esi+13], 0
  00022	75 2b		 jne	 SHORT $LN58@DeleteInst
; File C:\Program Files (x86)\Microsoft Visual Studio\2019\Community\VC\Tools\MSVC\14.28.29333\include\xstddef

; 127  :         return _Left < _Right;

  00024	8b 45 08	 mov	 eax, DWORD PTR _dwVID$[ebp]
  00027	3b 46 10	 cmp	 eax, DWORD PTR [esi+16]
; File C:\Program Files (x86)\Microsoft Visual Studio\2019\Community\VC\Tools\MSVC\14.28.29333\include\xtree

; 1695 :         return !_Bound->_Isnil && !_DEBUG_LT_PRED(_Getcomp(), _Keyval, _Traits::_Kfn(_Bound->_Myval));

  0002a	72 23		 jb	 SHORT $LN58@DeleteInst

; 39   :     _Tree_unchecked_const_iterator(_Nodeptr _Pnode, const _Mytree* _Plist) noexcept : _Ptr(_Pnode) {

  0002c	39 73 20	 cmp	 DWORD PTR [ebx+32], esi
; File D:\Metin2 Server Files\mainline\SRC_2014\Metin2Client\UserInterface\PythonCharacterManager.cpp

; 621  : 	if (m_kAliveInstMap.end() == f)

  0002f	74 1e		 je	 SHORT $LN58@DeleteInst

; 622  : 	{
; 623  : 		return;
; 624  : 	}
; 625  : 	__DeleteBlendOutInstance(f->second);

  00031	ff 76 14	 push	 DWORD PTR [esi+20]
  00034	8b cb		 mov	 ecx, ebx
  00036	e8 00 00 00 00	 call	 ?__DeleteBlendOutInstance@CPythonCharacterManager@@IAEXPAVCInstanceBase@@@Z ; CPythonCharacterManager::__DeleteBlendOutInstance
; File C:\Program Files (x86)\Microsoft Visual Studio\2019\Community\VC\Tools\MSVC\14.28.29333\include\xtree

; 1389 :         _Nodeptr _Erasednode = _Scary->_Extract(_Where); // node to erase

  0003b	56		 push	 esi
  0003c	8d 4b 20	 lea	 ecx, DWORD PTR [ebx+32]
  0003f	e8 00 00 00 00	 call	 ?_Extract@?$_Tree_val@U?$_Tree_simple_types@U?$pair@$$CBKPAVCInstanceBase@@@std@@@std@@@std@@QAEPAU?$_Tree_node@U?$pair@$$CBKPAVCInstanceBase@@@std@@PAX@2@V?$_Tree_unchecked_const_iterator@V?$_Tree_val@U?$_Tree_simple_types@U?$pair@$$CBKPAVCInstanceBase@@@std@@@std@@@std@@U_Iterator_base0@2@@2@@Z ; std::_Tree_val<std::_Tree_simple_types<std::pair<unsigned long const ,CInstanceBase *> > >::_Extract
; File C:\Program Files (x86)\Microsoft Visual Studio\2019\Community\VC\Tools\MSVC\14.28.29333\include\xmemory

; 696  :         _Deallocate<_New_alignof<value_type>>(_Ptr, sizeof(value_type) * _Count);

  00044	6a 18		 push	 24			; 00000018H
  00046	50		 push	 eax
  00047	e8 00 00 00 00	 call	 ??$_Deallocate@$07$0A@@std@@YAXPAXI@Z ; std::_Deallocate<8,0>
  0004c	83 c4 08	 add	 esp, 8
$LN58@DeleteInst:
  0004f	5f		 pop	 edi
; File D:\Metin2 Server Files\mainline\SRC_2014\Metin2Client\UserInterface\PythonCharacterManager.cpp

; 627  : }

  00050	5e		 pop	 esi
  00051	5b		 pop	 ebx
  00052	8b e5		 mov	 esp, ebp
  00054	5d		 pop	 ebp
  00055	c2 04 00	 ret	 4
?DeleteInstanceByFade@CPythonCharacterManager@@QAEXK@Z ENDP ; CPythonCharacterManager::DeleteInstanceByFade
_TEXT	ENDS
; Function compile flags: /Ogtp
; File D:\Metin2 Server Files\mainline\SRC_2014\Metin2Client\UserInterface\PythonCharacterManager.cpp
; File C:\Program Files (x86)\Microsoft Visual Studio\2019\Community\VC\Tools\MSVC\14.28.29333\include\xtree
; File C:\Program Files (x86)\Microsoft Visual Studio\2019\Community\VC\Tools\MSVC\14.28.29333\include\xstddef
; File C:\Program Files (x86)\Microsoft Visual Studio\2019\Community\VC\Tools\MSVC\14.28.29333\include\xtree
; File D:\Metin2 Server Files\mainline\SRC_2014\Metin2Client\UserInterface\PythonCharacterManager.cpp
; File C:\Program Files (x86)\Microsoft Visual Studio\2019\Community\VC\Tools\MSVC\14.28.29333\include\xtree
; File C:\Program Files (x86)\Microsoft Visual Studio\2019\Community\VC\Tools\MSVC\14.28.29333\include\xmemory
; File D:\Metin2 Server Files\mainline\SRC_2014\Metin2Client\UserInterface\PythonCharacterManager.cpp
;	COMDAT ?DeleteInstance@CPythonCharacterManager@@QAEXK@Z
_TEXT	SEGMENT
__Loc$1 = -12						; size = 12
_dwDelVID$ = 8						; size = 4
?DeleteInstance@CPythonCharacterManager@@QAEXK@Z PROC	; CPythonCharacterManager::DeleteInstance, COMDAT
; _this$ = ecx

; 584  : {

  00000	55		 push	 ebp
  00001	8b ec		 mov	 ebp, esp
  00003	83 ec 0c	 sub	 esp, 12			; 0000000cH
  00006	53		 push	 ebx
  00007	56		 push	 esi
  00008	57		 push	 edi
  00009	8b f1		 mov	 esi, ecx
; File C:\Program Files (x86)\Microsoft Visual Studio\2019\Community\VC\Tools\MSVC\14.28.29333\include\xtree

; 1458 :         const _Tree_find_result<_Nodeptr> _Loc = _Find_lower_bound(_Keyval);

  0000b	8d 45 08	 lea	 eax, DWORD PTR _dwDelVID$[ebp]
  0000e	50		 push	 eax
  0000f	8d 45 f4	 lea	 eax, DWORD PTR __Loc$1[ebp]
  00012	50		 push	 eax
  00013	8d 4e 20	 lea	 ecx, DWORD PTR [esi+32]
  00016	e8 00 00 00 00	 call	 ??$_Find_lower_bound@K@?$_Tree@V?$_Tmap_traits@KPAVCInstanceBase@@U?$less@K@std@@V?$allocator@U?$pair@$$CBKPAVCInstanceBase@@@std@@@3@$0A@@std@@@std@@IBE?AU?$_Tree_find_result@PAU?$_Tree_node@U?$pair@$$CBKPAVCInstanceBase@@@std@@PAX@std@@@1@ABK@Z ; std::_Tree<std::_Tmap_traits<unsigned long,CInstanceBase *,std::less<unsigned long>,std::allocator<std::pair<unsigned long const ,CInstanceBase *> >,0> >::_Find_lower_bound<unsigned long>

; 1695 :         return !_Bound->_Isnil && !_DEBUG_LT_PRED(_Getcomp(), _Keyval, _Traits::_Kfn(_Bound->_Myval));

  0001b	8b 7d fc	 mov	 edi, DWORD PTR __Loc$1[ebp+8]
  0001e	8b 45 08	 mov	 eax, DWORD PTR _dwDelVID$[ebp]
  00021	80 7f 0d 00	 cmp	 BYTE PTR [edi+13], 0
  00025	75 57		 jne	 SHORT $LN63@DeleteInst
; File C:\Program Files (x86)\Microsoft Visual Studio\2019\Community\VC\Tools\MSVC\14.28.29333\include\xstddef

; 127  :         return _Left < _Right;

  00027	3b 47 10	 cmp	 eax, DWORD PTR [edi+16]
; File C:\Program Files (x86)\Microsoft Visual Studio\2019\Community\VC\Tools\MSVC\14.28.29333\include\xtree

; 1695 :         return !_Bound->_Isnil && !_DEBUG_LT_PRED(_Getcomp(), _Keyval, _Traits::_Kfn(_Bound->_Myval));

  0002a	72 52		 jb	 SHORT $LN63@DeleteInst

; 39   :     _Tree_unchecked_const_iterator(_Nodeptr _Pnode, const _Mytree* _Plist) noexcept : _Ptr(_Pnode) {

  0002c	39 7e 20	 cmp	 DWORD PTR [esi+32], edi
; File D:\Metin2 Server Files\mainline\SRC_2014\Metin2Client\UserInterface\PythonCharacterManager.cpp

; 587  : 	if (m_kAliveInstMap.end() == itor)

  0002f	74 4d		 je	 SHORT $LN63@DeleteInst

; 590  : 		return;
; 591  : 	}
; 592  : 
; 593  : 	CInstanceBase * pkInstDel = itor->second;

  00031	8b 47 14	 mov	 eax, DWORD PTR [edi+20]

; 594  : 
; 595  : 	if (pkInstDel == m_pkInstBind)

  00034	3b 46 14	 cmp	 eax, DWORD PTR [esi+20]
  00037	75 07		 jne	 SHORT $LN3@DeleteInst

; 596  : 		m_pkInstBind = NULL;

  00039	c7 46 14 00 00
	00 00		 mov	 DWORD PTR [esi+20], 0
$LN3@DeleteInst:

; 597  : 
; 598  : 	if (pkInstDel == m_pkInstMain)

  00040	3b 46 0c	 cmp	 eax, DWORD PTR [esi+12]
  00043	75 07		 jne	 SHORT $LN4@DeleteInst

; 599  : 		m_pkInstMain = NULL;

  00045	c7 46 0c 00 00
	00 00		 mov	 DWORD PTR [esi+12], 0
$LN4@DeleteInst:

; 600  : 
; 601  : 	if (pkInstDel == m_pkInstPick)

  0004c	3b 46 10	 cmp	 eax, DWORD PTR [esi+16]
  0004f	75 07		 jne	 SHORT $LN5@DeleteInst

; 602  : 		m_pkInstPick = NULL;

  00051	c7 46 10 00 00
	00 00		 mov	 DWORD PTR [esi+16], 0
$LN5@DeleteInst:

; 603  : 
; 604  : 	CInstanceBase::Delete(pkInstDel);

  00058	50		 push	 eax
  00059	e8 00 00 00 00	 call	 ?Delete@CInstanceBase@@SAXPAV1@@Z ; CInstanceBase::Delete
  0005e	83 c4 04	 add	 esp, 4
; File C:\Program Files (x86)\Microsoft Visual Studio\2019\Community\VC\Tools\MSVC\14.28.29333\include\xtree

; 1389 :         _Nodeptr _Erasednode = _Scary->_Extract(_Where); // node to erase

  00061	8d 4e 20	 lea	 ecx, DWORD PTR [esi+32]
  00064	57		 push	 edi
  00065	e8 00 00 00 00	 call	 ?_Extract@?$_Tree_val@U?$_Tree_simple_types@U?$pair@$$CBKPAVCInstanceBase@@@std@@@std@@@std@@QAEPAU?$_Tree_node@U?$pair@$$CBKPAVCInstanceBase@@@std@@PAX@2@V?$_Tree_unchecked_const_iterator@V?$_Tree_val@U?$_Tree_simple_types@U?$pair@$$CBKPAVCInstanceBase@@@std@@@std@@@std@@U_Iterator_base0@2@@2@@Z ; std::_Tree_val<std::_Tree_simple_types<std::pair<unsigned long const ,CInstanceBase *> > >::_Extract
; File C:\Program Files (x86)\Microsoft Visual Studio\2019\Community\VC\Tools\MSVC\14.28.29333\include\xmemory

; 696  :         _Deallocate<_New_alignof<value_type>>(_Ptr, sizeof(value_type) * _Count);

  0006a	6a 18		 push	 24			; 00000018H
  0006c	50		 push	 eax
  0006d	e8 00 00 00 00	 call	 ??$_Deallocate@$07$0A@@std@@YAXPAXI@Z ; std::_Deallocate<8,0>
; File D:\Metin2 Server Files\mainline\SRC_2014\Metin2Client\UserInterface\PythonCharacterManager.cpp

; 607  : }

  00072	83 c4 08	 add	 esp, 8
  00075	5f		 pop	 edi
  00076	5e		 pop	 esi
  00077	5b		 pop	 ebx
  00078	8b e5		 mov	 esp, ebp
  0007a	5d		 pop	 ebp
  0007b	c2 04 00	 ret	 4
$LN63@DeleteInst:

; 588  : 	{
; 589  : 		Tracef("DeleteCharacterInstance: no vid by %d\n", dwDelVID);

  0007e	50		 push	 eax
  0007f	68 00 00 00 00	 push	 OFFSET ??_C@_0CH@HECKLEJN@DeleteCharacterInstance?3?5no?5vid@
  00084	e8 00 00 00 00	 call	 ?Tracef@@YAXPBDZZ	; Tracef

; 607  : }

  00089	83 c4 08	 add	 esp, 8
  0008c	5f		 pop	 edi
  0008d	5e		 pop	 esi
  0008e	5b		 pop	 ebx
  0008f	8b e5		 mov	 esp, ebp
  00091	5d		 pop	 ebp
  00092	c2 04 00	 ret	 4
?DeleteInstance@CPythonCharacterManager@@QAEXK@Z ENDP	; CPythonCharacterManager::DeleteInstance
_TEXT	ENDS
; Function compile flags: /Ogtp
; File D:\Metin2 Server Files\mainline\SRC_2014\Metin2Client\UserInterface\PythonCharacterManager.cpp
; File C:\Program Files (x86)\Microsoft Visual Studio\2019\Community\VC\Tools\MSVC\14.28.29333\include\xtree
; File D:\Metin2 Server Files\mainline\SRC_2014\Metin2Client\UserInterface\PythonCharacterManager.cpp
; File C:\Program Files (x86)\Microsoft Visual Studio\2019\Community\VC\Tools\MSVC\14.28.29333\include\xtree
; File C:\Program Files (x86)\Microsoft Visual Studio\2019\Community\VC\Tools\MSVC\14.28.29333\include\xstddef
; File C:\Program Files (x86)\Microsoft Visual Studio\2019\Community\VC\Tools\MSVC\14.28.29333\include\xtree
; File D:\Metin2 Server Files\mainline\SRC_2014\Metin2Client\UserInterface\PythonCharacterManager.cpp
; File C:\Program Files (x86)\Microsoft Visual Studio\2019\Community\VC\Tools\MSVC\14.28.29333\include\xtree
; File C:\Program Files (x86)\Microsoft Visual Studio\2019\Community\VC\Tools\MSVC\14.28.29333\include\utility
; File C:\Program Files (x86)\Microsoft Visual Studio\2019\Community\VC\Tools\MSVC\14.28.29333\include\xtree
; File C:\Program Files (x86)\Microsoft Visual Studio\2019\Community\VC\Tools\MSVC\14.28.29333\include\utility
; File C:\Program Files (x86)\Microsoft Visual Studio\2019\Community\VC\Tools\MSVC\14.28.29333\include\xtree
; File C:\Program Files (x86)\Microsoft Visual Studio\2019\Community\VC\Tools\MSVC\14.28.29333\include\xstddef
; File C:\Program Files (x86)\Microsoft Visual Studio\2019\Community\VC\Tools\MSVC\14.28.29333\include\xtree
; File C:\Program Files (x86)\Microsoft Visual Studio\2019\Community\VC\Tools\MSVC\14.28.29333\include\xmemory
; File C:\Program Files (x86)\Microsoft Visual Studio\2019\Community\VC\Tools\MSVC\14.28.29333\include\xtree
; File C:\Program Files (x86)\Microsoft Visual Studio\2019\Community\VC\Tools\MSVC\14.28.29333\include\xmemory
; File C:\Program Files (x86)\Microsoft Visual Studio\2019\Community\VC\Tools\MSVC\14.28.29333\include\xtree
; File D:\Metin2 Server Files\mainline\SRC_2014\Metin2Client\UserInterface\PythonCharacterManager.cpp
; File C:\Program Files (x86)\Microsoft Visual Studio\2019\Community\VC\Tools\MSVC\14.28.29333\include\xtree
; File D:\Metin2 Server Files\mainline\SRC_2014\Metin2Client\UserInterface\PythonCharacterManager.cpp
;	COMDAT ?RegisterInstance@CPythonCharacterManager@@QAEPAVCInstanceBase@@K@Z
_TEXT	SEGMENT
$T2 = -48						; size = 12
__Loc$3 = -36						; size = 12
__Loc$4 = -36						; size = 12
$T5 = -24						; size = 8
$T6 = -24						; size = 8
$T7 = -16						; size = 4
__$EHRec$ = -12						; size = 12
__Myhead$8 = 8						; size = 4
_VirtualID$ = 8						; size = 4
?RegisterInstance@CPythonCharacterManager@@QAEPAVCInstanceBase@@K@Z PROC ; CPythonCharacterManager::RegisterInstance, COMDAT
; _this$ = ecx

; 569  : {

  00000	55		 push	 ebp
  00001	8b ec		 mov	 ebp, esp
  00003	6a ff		 push	 -1
  00005	68 00 00 00 00	 push	 __ehhandler$?RegisterInstance@CPythonCharacterManager@@QAEPAVCInstanceBase@@K@Z
  0000a	64 a1 00 00 00
	00		 mov	 eax, DWORD PTR fs:0
  00010	50		 push	 eax
  00011	83 ec 24	 sub	 esp, 36			; 00000024H
  00014	53		 push	 ebx
  00015	56		 push	 esi
  00016	57		 push	 edi
  00017	a1 00 00 00 00	 mov	 eax, DWORD PTR ___security_cookie
  0001c	33 c5		 xor	 eax, ebp
  0001e	50		 push	 eax
  0001f	8d 45 f4	 lea	 eax, DWORD PTR __$EHRec$[ebp]
  00022	64 a3 00 00 00
	00		 mov	 DWORD PTR fs:0, eax
; File C:\Program Files (x86)\Microsoft Visual Studio\2019\Community\VC\Tools\MSVC\14.28.29333\include\xtree

; 1458 :         const _Tree_find_result<_Nodeptr> _Loc = _Find_lower_bound(_Keyval);

  00028	8d 45 08	 lea	 eax, DWORD PTR _VirtualID$[ebp]
  0002b	50		 push	 eax
; File D:\Metin2 Server Files\mainline\SRC_2014\Metin2Client\UserInterface\PythonCharacterManager.cpp

; 570  : 	TCharacterInstanceMap::iterator itor = m_kAliveInstMap.find(VirtualID);

  0002c	8d 79 20	 lea	 edi, DWORD PTR [ecx+32]
; File C:\Program Files (x86)\Microsoft Visual Studio\2019\Community\VC\Tools\MSVC\14.28.29333\include\xtree

; 1458 :         const _Tree_find_result<_Nodeptr> _Loc = _Find_lower_bound(_Keyval);

  0002f	8d 45 dc	 lea	 eax, DWORD PTR __Loc$4[ebp]
  00032	8b cf		 mov	 ecx, edi
  00034	50		 push	 eax
  00035	e8 00 00 00 00	 call	 ??$_Find_lower_bound@K@?$_Tree@V?$_Tmap_traits@KPAVCInstanceBase@@U?$less@K@std@@V?$allocator@U?$pair@$$CBKPAVCInstanceBase@@@std@@@3@$0A@@std@@@std@@IBE?AU?$_Tree_find_result@PAU?$_Tree_node@U?$pair@$$CBKPAVCInstanceBase@@@std@@PAX@std@@@1@ABK@Z ; std::_Tree<std::_Tmap_traits<unsigned long,CInstanceBase *,std::less<unsigned long>,std::allocator<std::pair<unsigned long const ,CInstanceBase *> >,0> >::_Find_lower_bound<unsigned long>

; 1695 :         return !_Bound->_Isnil && !_DEBUG_LT_PRED(_Getcomp(), _Keyval, _Traits::_Kfn(_Bound->_Myval));

  0003a	8b 45 e4	 mov	 eax, DWORD PTR __Loc$4[ebp+8]
  0003d	8b 5d 08	 mov	 ebx, DWORD PTR _VirtualID$[ebp]
  00040	80 78 0d 00	 cmp	 BYTE PTR [eax+13], 0
  00044	75 05		 jne	 SHORT $LN7@RegisterIn
; File C:\Program Files (x86)\Microsoft Visual Studio\2019\Community\VC\Tools\MSVC\14.28.29333\include\xstddef

; 127  :         return _Left < _Right;

  00046	3b 58 10	 cmp	 ebx, DWORD PTR [eax+16]
; File C:\Program Files (x86)\Microsoft Visual Studio\2019\Community\VC\Tools\MSVC\14.28.29333\include\xtree

; 1695 :         return !_Bound->_Isnil && !_DEBUG_LT_PRED(_Getcomp(), _Keyval, _Traits::_Kfn(_Bound->_Myval));

  00049	73 02		 jae	 SHORT $LN6@RegisterIn
$LN7@RegisterIn:

; 1463 :         return _Get_scary()->_Myhead;

  0004b	8b 07		 mov	 eax, DWORD PTR [edi]
$LN6@RegisterIn:
; File D:\Metin2 Server Files\mainline\SRC_2014\Metin2Client\UserInterface\PythonCharacterManager.cpp

; 572  : 	if (m_kAliveInstMap.end() != itor)

  0004d	39 07		 cmp	 DWORD PTR [edi], eax
  0004f	74 16		 je	 SHORT $LN2@RegisterIn

; 573  : 	{
; 574  : 		return NULL;

  00051	33 c0		 xor	 eax, eax

; 581  : }

  00053	8b 4d f4	 mov	 ecx, DWORD PTR __$EHRec$[ebp]
  00056	64 89 0d 00 00
	00 00		 mov	 DWORD PTR fs:0, ecx
  0005d	59		 pop	 ecx
  0005e	5f		 pop	 edi
  0005f	5e		 pop	 esi
  00060	5b		 pop	 ebx
  00061	8b e5		 mov	 esp, ebp
  00063	5d		 pop	 ebp
  00064	c2 04 00	 ret	 4
$LN2@RegisterIn:

; 575  : 	}
; 576  : 
; 577  : 	CInstanceBase * pCharacterInstance = CInstanceBase::New();

  00067	e8 00 00 00 00	 call	 ?New@CInstanceBase@@SAPAV1@XZ ; CInstanceBase::New
  0006c	89 45 f0	 mov	 DWORD PTR $T7[ebp], eax
; File C:\Program Files (x86)\Microsoft Visual Studio\2019\Community\VC\Tools\MSVC\14.28.29333\include\xtree

; 1009 :             _Loc                = _Find_lower_bound(_Keyval);

  0006f	8b cf		 mov	 ecx, edi
; File C:\Program Files (x86)\Microsoft Visual Studio\2019\Community\VC\Tools\MSVC\14.28.29333\include\utility

; 190  :         : first(_STD forward<_Other1>(_Val1)), second(_STD forward<_Other2>(_Val2)) {}

  00071	89 45 ec	 mov	 DWORD PTR $T6[ebp+4], eax
; File C:\Program Files (x86)\Microsoft Visual Studio\2019\Community\VC\Tools\MSVC\14.28.29333\include\xtree

; 1009 :             _Loc                = _Find_lower_bound(_Keyval);

  00074	8d 45 e8	 lea	 eax, DWORD PTR $T6[ebp]
  00077	50		 push	 eax
  00078	8d 45 d0	 lea	 eax, DWORD PTR $T2[ebp]
; File C:\Program Files (x86)\Microsoft Visual Studio\2019\Community\VC\Tools\MSVC\14.28.29333\include\utility

; 190  :         : first(_STD forward<_Other1>(_Val1)), second(_STD forward<_Other2>(_Val2)) {}

  0007b	89 5d e8	 mov	 DWORD PTR $T6[ebp], ebx
; File C:\Program Files (x86)\Microsoft Visual Studio\2019\Community\VC\Tools\MSVC\14.28.29333\include\xtree

; 1009 :             _Loc                = _Find_lower_bound(_Keyval);

  0007e	50		 push	 eax
  0007f	e8 00 00 00 00	 call	 ??$_Find_lower_bound@K@?$_Tree@V?$_Tmap_traits@KPAVCInstanceBase@@U?$less@K@std@@V?$allocator@U?$pair@$$CBKPAVCInstanceBase@@@std@@@3@$0A@@std@@@std@@IBE?AU?$_Tree_find_result@PAU?$_Tree_node@U?$pair@$$CBKPAVCInstanceBase@@@std@@PAX@std@@@1@ABK@Z ; std::_Tree<std::_Tmap_traits<unsigned long,CInstanceBase *,std::less<unsigned long>,std::allocator<std::pair<unsigned long const ,CInstanceBase *> >,0> >::_Find_lower_bound<unsigned long>
  00084	f3 0f 7e 00	 movq	 xmm0, QWORD PTR [eax]
  00088	8b 40 08	 mov	 eax, DWORD PTR [eax+8]
  0008b	66 0f d6 45 dc	 movq	 QWORD PTR __Loc$3[ebp], xmm0

; 1695 :         return !_Bound->_Isnil && !_DEBUG_LT_PRED(_Getcomp(), _Keyval, _Traits::_Kfn(_Bound->_Myval));

  00090	80 78 0d 00	 cmp	 BYTE PTR [eax+13], 0
  00094	75 05		 jne	 SHORT $LN43@RegisterIn
; File C:\Program Files (x86)\Microsoft Visual Studio\2019\Community\VC\Tools\MSVC\14.28.29333\include\xstddef

; 127  :         return _Left < _Right;

  00096	3b 58 10	 cmp	 ebx, DWORD PTR [eax+16]
; File C:\Program Files (x86)\Microsoft Visual Studio\2019\Community\VC\Tools\MSVC\14.28.29333\include\xtree

; 1695 :         return !_Bound->_Isnil && !_DEBUG_LT_PRED(_Getcomp(), _Keyval, _Traits::_Kfn(_Bound->_Myval));

  00099	73 6e		 jae	 SHORT $LN102@RegisterIn
$LN43@RegisterIn:

; 1719 :         if (max_size() == _Get_scary()->_Mysize) {

  0009b	81 7f 04 aa aa
	aa 0a		 cmp	 DWORD PTR [edi+4], 178956970 ; 0aaaaaaaH
  000a2	74 7e		 je	 SHORT $LN106@RegisterIn

; 1015 :             _Inserted = _Tree_temp_node<_Alnode>(_Getal(), _Scary->_Myhead, _STD forward<_Valtys>(_Vals)...)._Release();

  000a4	8b 07		 mov	 eax, DWORD PTR [edi]
  000a6	89 45 08	 mov	 DWORD PTR __Myhead$8[ebp], eax
; File C:\Program Files (x86)\Microsoft Visual Studio\2019\Community\VC\Tools\MSVC\14.28.29333\include\xmemory

; 1045 :     explicit _Alloc_construct_ptr(_Alloc& _Al_) : _Al(_Al_), _Ptr(nullptr) {}

  000a9	89 7d e8	 mov	 DWORD PTR $T5[ebp], edi

; 814  :         return static_cast<_Ty*>(_Allocate<_New_alignof<_Ty>>(_Get_size_of_n<sizeof(_Ty)>(_Count)));

  000ac	6a 18		 push	 24			; 00000018H
; File C:\Program Files (x86)\Microsoft Visual Studio\2019\Community\VC\Tools\MSVC\14.28.29333\include\xtree

; 784  :     explicit _Tree_temp_node_alloc(_Alnode& _Al_) : _Alloc_construct_ptr<_Alnode>(_Al_) {

  000ae	c7 45 fc 00 00
	00 00		 mov	 DWORD PTR __$EHRec$[ebp+8], 0
; File C:\Program Files (x86)\Microsoft Visual Studio\2019\Community\VC\Tools\MSVC\14.28.29333\include\xmemory

; 1052 :         _Ptr = nullptr; // if allocate throws, prevents double-free

  000b5	c7 45 ec 00 00
	00 00		 mov	 DWORD PTR $T5[ebp+4], 0

; 814  :         return static_cast<_Ty*>(_Allocate<_New_alignof<_Ty>>(_Get_size_of_n<sizeof(_Ty)>(_Count)));

  000bc	e8 00 00 00 00	 call	 ??$_Allocate@$07U_Default_allocate_traits@std@@$0A@@std@@YAPAXI@Z ; std::_Allocate<8,std::_Default_allocate_traits,0>

; 1053 :         _Ptr = _Al.allocate(1);

  000c1	8b f0		 mov	 esi, eax
; File C:\Program Files (x86)\Microsoft Visual Studio\2019\Community\VC\Tools\MSVC\14.28.29333\include\xtree

; 807  :         _Construct_in_place(this->_Ptr->_Left, _Myhead);

  000c3	8d 45 08	 lea	 eax, DWORD PTR __Myhead$8[ebp]
  000c6	50		 push	 eax
  000c7	56		 push	 esi
  000c8	89 5e 10	 mov	 DWORD PTR [esi+16], ebx
  000cb	8b 5d f0	 mov	 ebx, DWORD PTR $T7[ebp]
  000ce	89 5e 14	 mov	 DWORD PTR [esi+20], ebx
  000d1	e8 00 00 00 00	 call	 ??$_Construct_in_place@PAU?$_Tree_node@U?$pair@$$CBKPAVCInstanceBase@@@std@@PAX@std@@AAPAU12@@std@@YAXAAPAU?$_Tree_node@U?$pair@$$CBKPAVCInstanceBase@@@std@@PAX@0@0@Z ; std::_Construct_in_place<std::_Tree_node<std::pair<unsigned long const ,CInstanceBase *>,void *> *,std::_Tree_node<std::pair<unsigned long const ,CInstanceBase *>,void *> * &>

; 808  :         _Construct_in_place(this->_Ptr->_Parent, _Myhead);

  000d6	8d 45 08	 lea	 eax, DWORD PTR __Myhead$8[ebp]
  000d9	50		 push	 eax
  000da	8d 46 04	 lea	 eax, DWORD PTR [esi+4]
  000dd	50		 push	 eax
  000de	e8 00 00 00 00	 call	 ??$_Construct_in_place@PAU?$_Tree_node@U?$pair@$$CBKPAVCInstanceBase@@@std@@PAX@std@@AAPAU12@@std@@YAXAAPAU?$_Tree_node@U?$pair@$$CBKPAVCInstanceBase@@@std@@PAX@0@0@Z ; std::_Construct_in_place<std::_Tree_node<std::pair<unsigned long const ,CInstanceBase *>,void *> *,std::_Tree_node<std::pair<unsigned long const ,CInstanceBase *>,void *> * &>

; 809  :         _Construct_in_place(this->_Ptr->_Right, _Myhead);

  000e3	8d 45 08	 lea	 eax, DWORD PTR __Myhead$8[ebp]
  000e6	50		 push	 eax
  000e7	8d 46 08	 lea	 eax, DWORD PTR [esi+8]
  000ea	50		 push	 eax
  000eb	e8 00 00 00 00	 call	 ??$_Construct_in_place@PAU?$_Tree_node@U?$pair@$$CBKPAVCInstanceBase@@@std@@PAX@std@@AAPAU12@@std@@YAXAAPAU?$_Tree_node@U?$pair@$$CBKPAVCInstanceBase@@@std@@PAX@0@0@Z ; std::_Construct_in_place<std::_Tree_node<std::pair<unsigned long const ,CInstanceBase *>,void *> *,std::_Tree_node<std::pair<unsigned long const ,CInstanceBase *>,void *> * &>
  000f0	83 c4 1c	 add	 esp, 28			; 0000001cH

; 810  :         this->_Ptr->_Color = _Red;

  000f3	66 c7 46 0c 00
	00		 mov	 WORD PTR [esi+12], 0

; 1034 :         return {_Scary->_Insert_node(_Loc._Location, _Inserted), true};

  000f9	8b cf		 mov	 ecx, edi
  000fb	56		 push	 esi
  000fc	ff 75 e0	 push	 DWORD PTR __Loc$3[ebp+4]
  000ff	ff 75 dc	 push	 DWORD PTR __Loc$3[ebp]
  00102	e8 00 00 00 00	 call	 ?_Insert_node@?$_Tree_val@U?$_Tree_simple_types@U?$pair@$$CBKPAVCInstanceBase@@@std@@@std@@@std@@QAEPAU?$_Tree_node@U?$pair@$$CBKPAVCInstanceBase@@@std@@PAX@2@U?$_Tree_id@PAU?$_Tree_node@U?$pair@$$CBKPAVCInstanceBase@@@std@@PAX@std@@@2@QAU32@@Z ; std::_Tree_val<std::_Tree_simple_types<std::pair<unsigned long const ,CInstanceBase *> > >::_Insert_node

; 1695 :         return !_Bound->_Isnil && !_DEBUG_LT_PRED(_Getcomp(), _Keyval, _Traits::_Kfn(_Bound->_Myval));

  00107	eb 03		 jmp	 SHORT $LN89@RegisterIn
$LN102@RegisterIn:
  00109	8b 5d f0	 mov	 ebx, DWORD PTR $T7[ebp]
$LN89@RegisterIn:
; File D:\Metin2 Server Files\mainline\SRC_2014\Metin2Client\UserInterface\PythonCharacterManager.cpp

; 580  : 	return (pCharacterInstance);

  0010c	8b c3		 mov	 eax, ebx

; 581  : }

  0010e	8b 4d f4	 mov	 ecx, DWORD PTR __$EHRec$[ebp]
  00111	64 89 0d 00 00
	00 00		 mov	 DWORD PTR fs:0, ecx
  00118	59		 pop	 ecx
  00119	5f		 pop	 edi
  0011a	5e		 pop	 esi
  0011b	5b		 pop	 ebx
  0011c	8b e5		 mov	 esp, ebp
  0011e	5d		 pop	 ebp
  0011f	c2 04 00	 ret	 4
$LN106@RegisterIn:
; File C:\Program Files (x86)\Microsoft Visual Studio\2019\Community\VC\Tools\MSVC\14.28.29333\include\xtree

; 1720 :             _Throw_tree_length_error();

  00122	e8 00 00 00 00	 call	 ?_Throw_tree_length_error@std@@YAXXZ ; std::_Throw_tree_length_error
$LN104@RegisterIn:
  00127	cc		 int	 3
_TEXT	ENDS
;	COMDAT text$x
text$x	SEGMENT
__unwindfunclet$?RegisterInstance@CPythonCharacterManager@@QAEPAVCInstanceBase@@K@Z$2:
  00000	8d 4d e8	 lea	 ecx, DWORD PTR $T5[ebp]
  00003	e9 00 00 00 00	 jmp	 ??1?$_Alloc_construct_ptr@V?$allocator@U?$_Tree_node@U?$pair@$$CBKPAVCInstanceBase@@@std@@PAX@std@@@std@@@std@@QAE@XZ ; std::_Alloc_construct_ptr<std::allocator<std::_Tree_node<std::pair<unsigned long const ,CInstanceBase *>,void *> > >::~_Alloc_construct_ptr<std::allocator<std::_Tree_node<std::pair<unsigned long const ,CInstanceBase *>,void *> > >
  00008	cc		 int	 3
  00009	cc		 int	 3
  0000a	cc		 int	 3
  0000b	cc		 int	 3
  0000c	cc		 int	 3
__ehhandler$?RegisterInstance@CPythonCharacterManager@@QAEPAVCInstanceBase@@K@Z:
  0000d	90		 npad	 1
  0000e	90		 npad	 1
  0000f	8b 54 24 08	 mov	 edx, DWORD PTR [esp+8]
  00013	8d 42 0c	 lea	 eax, DWORD PTR [edx+12]
  00016	8b 4a cc	 mov	 ecx, DWORD PTR [edx-52]
  00019	33 c8		 xor	 ecx, eax
  0001b	e8 00 00 00 00	 call	 @__security_check_cookie@4
  00020	b8 00 00 00 00	 mov	 eax, OFFSET __ehfuncinfo$?RegisterInstance@CPythonCharacterManager@@QAEPAVCInstanceBase@@K@Z
  00025	e9 00 00 00 00	 jmp	 ___CxxFrameHandler3
text$x	ENDS
?RegisterInstance@CPythonCharacterManager@@QAEPAVCInstanceBase@@K@Z ENDP ; CPythonCharacterManager::RegisterInstance
; Function compile flags: /Ogtp
; File D:\Metin2 Server Files\mainline\SRC_2014\Metin2Client\UserInterface\PythonCharacterManager.cpp
;	COMDAT ?CreateInstance@CPythonCharacterManager@@QAEPAVCInstanceBase@@ABUSCreateData@2@@Z
_TEXT	SEGMENT
_c_rkCreateData$ = 8					; size = 4
?CreateInstance@CPythonCharacterManager@@QAEPAVCInstanceBase@@ABUSCreateData@2@@Z PROC ; CPythonCharacterManager::CreateInstance, COMDAT
; _this$ = ecx

; 547  : {

  00000	55		 push	 ebp
  00001	8b ec		 mov	 ebp, esp
  00003	53		 push	 ebx
  00004	56		 push	 esi

; 548  : 	CInstanceBase * pCharacterInstance = RegisterInstance(c_rkCreateData.m_dwVID);

  00005	8b 75 08	 mov	 esi, DWORD PTR _c_rkCreateData$[ebp]
  00008	8b d9		 mov	 ebx, ecx
  0000a	57		 push	 edi
  0000b	ff 76 14	 push	 DWORD PTR [esi+20]
  0000e	e8 00 00 00 00	 call	 ?RegisterInstance@CPythonCharacterManager@@QAEPAVCInstanceBase@@K@Z ; CPythonCharacterManager::RegisterInstance
  00013	8b f8		 mov	 edi, eax

; 549  : 	if (!pCharacterInstance)

  00015	85 ff		 test	 edi, edi
  00017	75 22		 jne	 SHORT $LN2@CreateInst

; 550  : 	{
; 551  : 		TraceError("CPythonCharacterManager::CreateInstance: VID[%d] - ALREADY EXIST\n", c_rkCreateData);

  00019	83 ec 68	 sub	 esp, 104		; 00000068H
  0001c	b9 1a 00 00 00	 mov	 ecx, 26			; 0000001aH
  00021	8b fc		 mov	 edi, esp
  00023	f3 a5		 rep movsd
  00025	68 00 00 00 00	 push	 OFFSET ??_C@_0EC@KAFJJKBD@CPythonCharacterManager?3?3Create@
  0002a	e8 00 00 00 00	 call	 ?TraceError@@YAXPBDZZ	; TraceError
  0002f	83 c4 6c	 add	 esp, 108		; 0000006cH

; 552  : 		return NULL;

  00032	33 c0		 xor	 eax, eax

; 566  : }

  00034	5f		 pop	 edi
  00035	5e		 pop	 esi
  00036	5b		 pop	 ebx
  00037	5d		 pop	 ebp
  00038	c2 04 00	 ret	 4
$LN2@CreateInst:

; 553  : 	}
; 554  : 
; 555  : 	if (!pCharacterInstance->Create(c_rkCreateData))

  0003b	56		 push	 esi
  0003c	8b cf		 mov	 ecx, edi
  0003e	e8 00 00 00 00	 call	 ?Create@CInstanceBase@@QAE_NABUSCreateData@1@@Z ; CInstanceBase::Create
  00043	84 c0		 test	 al, al
  00045	75 26		 jne	 SHORT $LN3@CreateInst

; 556  : 	{
; 557  : 		TraceError("CPythonCharacterManager::CreateInstance VID[%d] Race[%d]", c_rkCreateData.m_dwVID, c_rkCreateData.m_dwRace);

  00047	ff 76 18	 push	 DWORD PTR [esi+24]
  0004a	ff 76 14	 push	 DWORD PTR [esi+20]
  0004d	68 00 00 00 00	 push	 OFFSET ??_C@_0DJ@DCBIHGAA@CPythonCharacterManager?3?3Create@
  00052	e8 00 00 00 00	 call	 ?TraceError@@YAXPBDZZ	; TraceError
  00057	83 c4 0c	 add	 esp, 12			; 0000000cH

; 558  : 		DeleteInstance(c_rkCreateData.m_dwVID);

  0005a	8b cb		 mov	 ecx, ebx
  0005c	ff 76 14	 push	 DWORD PTR [esi+20]
  0005f	e8 00 00 00 00	 call	 ?DeleteInstance@CPythonCharacterManager@@QAEXK@Z ; CPythonCharacterManager::DeleteInstance

; 559  : 		return NULL;

  00064	33 c0		 xor	 eax, eax

; 566  : }

  00066	5f		 pop	 edi
  00067	5e		 pop	 esi
  00068	5b		 pop	 ebx
  00069	5d		 pop	 ebp
  0006a	c2 04 00	 ret	 4
$LN3@CreateInst:

; 560  : 	}
; 561  : 
; 562  : 	if (c_rkCreateData.m_isMain)

  0006d	80 7e 64 00	 cmp	 BYTE PTR [esi+100], 0
  00071	74 0a		 je	 SHORT $LN4@CreateInst

; 563  : 		SelectInstance(c_rkCreateData.m_dwVID);

  00073	ff 76 14	 push	 DWORD PTR [esi+20]
  00076	8b cb		 mov	 ecx, ebx
  00078	e8 00 00 00 00	 call	 ?SelectInstance@CPythonCharacterManager@@QAEXK@Z ; CPythonCharacterManager::SelectInstance
$LN4@CreateInst:

; 564  : 
; 565  : 	return (pCharacterInstance);

  0007d	8b c7		 mov	 eax, edi

; 566  : }

  0007f	5f		 pop	 edi
  00080	5e		 pop	 esi
  00081	5b		 pop	 ebx
  00082	5d		 pop	 ebp
  00083	c2 04 00	 ret	 4
?CreateInstance@CPythonCharacterManager@@QAEPAVCInstanceBase@@ABUSCreateData@2@@Z ENDP ; CPythonCharacterManager::CreateInstance
_TEXT	ENDS
; Function compile flags: /Ogtp
; File D:\Metin2 Server Files\mainline\SRC_2014\Metin2Client\UserInterface\PythonCharacterManager.cpp
; File C:\Program Files (x86)\Microsoft Visual Studio\2019\Community\VC\Tools\MSVC\14.28.29333\include\xtree
; File C:\Program Files (x86)\Microsoft Visual Studio\2019\Community\VC\Tools\MSVC\14.28.29333\include\algorithm
; File D:\Metin2 Server Files\mainline\SRC_2014\Metin2Client\UserInterface\PythonCharacterManager.cpp
; File C:\Program Files (x86)\Microsoft Visual Studio\2019\Community\VC\Tools\MSVC\14.28.29333\include\xtree
; File C:\Program Files (x86)\Microsoft Visual Studio\2019\Community\VC\Tools\MSVC\14.28.29333\include\algorithm
; File D:\Metin2 Server Files\mainline\SRC_2014\Metin2Client\UserInterface\PythonCharacterManager.cpp
;	COMDAT ?RenderCollision@CPythonCharacterManager@@QAEXXZ
_TEXT	SEGMENT
__UFirst$1 = -4						; size = 4
?RenderCollision@CPythonCharacterManager@@QAEXXZ PROC	; CPythonCharacterManager::RenderCollision, COMDAT
; _this$ = ecx

; 539  : {

  00000	55		 push	 ebp
  00001	8b ec		 mov	 ebp, esp
  00003	51		 push	 ecx
  00004	56		 push	 esi
; File C:\Program Files (x86)\Microsoft Visual Studio\2019\Community\VC\Tools\MSVC\14.28.29333\include\xtree

; 39   :     _Tree_unchecked_const_iterator(_Nodeptr _Pnode, const _Mytree* _Plist) noexcept : _Ptr(_Pnode) {

  00005	8b 71 20	 mov	 esi, DWORD PTR [ecx+32]
  00008	8b 06		 mov	 eax, DWORD PTR [esi]
  0000a	89 45 fc	 mov	 DWORD PTR __UFirst$1[ebp], eax
  0000d	3b c6		 cmp	 eax, esi
; File C:\Program Files (x86)\Microsoft Visual Studio\2019\Community\VC\Tools\MSVC\14.28.29333\include\algorithm

; 307  :     for (; _UFirst != _ULast; ++_UFirst) {

  0000f	74 17		 je	 SHORT $LN21@RenderColl
$LL41@RenderColl:
; File D:\Metin2 Server Files\mainline\SRC_2014\Metin2Client\UserInterface\PythonCharacterManager.cpp

; 534  : 		cr_Pair.second->RenderCollision();

  00011	8b 48 14	 mov	 ecx, DWORD PTR [eax+20]
  00014	e8 00 00 00 00	 call	 ?RenderCollision@CInstanceBase@@QAEXXZ ; CInstanceBase::RenderCollision
; File C:\Program Files (x86)\Microsoft Visual Studio\2019\Community\VC\Tools\MSVC\14.28.29333\include\xtree

; 141  :         _Mybase::operator++();

  00019	8d 4d fc	 lea	 ecx, DWORD PTR __UFirst$1[ebp]
  0001c	e8 00 00 00 00	 call	 ??E?$_Tree_unchecked_const_iterator@V?$_Tree_val@U?$_Tree_simple_types@U?$pair@$$CBKPAVCInstanceBase@@@std@@@std@@@std@@U_Iterator_base0@2@@std@@QAEAAV01@XZ ; std::_Tree_unchecked_const_iterator<std::_Tree_val<std::_Tree_simple_types<std::pair<unsigned long const ,CInstanceBase *> > >,std::_Iterator_base0>::operator++

; 98   :         return _Ptr == _Right._Ptr;

  00021	8b 45 fc	 mov	 eax, DWORD PTR __UFirst$1[ebp]
  00024	3b c6		 cmp	 eax, esi
; File C:\Program Files (x86)\Microsoft Visual Studio\2019\Community\VC\Tools\MSVC\14.28.29333\include\algorithm

; 307  :     for (; _UFirst != _ULast; ++_UFirst) {

  00026	75 e9		 jne	 SHORT $LL41@RenderColl
$LN21@RenderColl:
  00028	5e		 pop	 esi
; File D:\Metin2 Server Files\mainline\SRC_2014\Metin2Client\UserInterface\PythonCharacterManager.cpp

; 541  : }

  00029	8b e5		 mov	 esp, ebp
  0002b	5d		 pop	 ebp
  0002c	c3		 ret	 0
?RenderCollision@CPythonCharacterManager@@QAEXXZ ENDP	; CPythonCharacterManager::RenderCollision
_TEXT	ENDS
; Function compile flags: /Ogtp
; File D:\Metin2 Server Files\mainline\SRC_2014\Metin2Client\UserInterface\PythonCharacterManager.cpp
; File C:\Program Files (x86)\Microsoft Visual Studio\2019\Community\VC\Tools\MSVC\14.28.29333\include\xtree
; File C:\Program Files (x86)\Microsoft Visual Studio\2019\Community\VC\Tools\MSVC\14.28.29333\include\algorithm
; File D:\Metin2 Server Files\mainline\SRC_2014\Metin2Client\UserInterface\PythonCharacterManager.cpp
; File C:\Program Files (x86)\Microsoft Visual Studio\2019\Community\VC\Tools\MSVC\14.28.29333\include\xtree
; File C:\Program Files (x86)\Microsoft Visual Studio\2019\Community\VC\Tools\MSVC\14.28.29333\include\algorithm
; File D:\Metin2 Server Files\mainline\SRC_2014\Metin2Client\UserInterface\PythonCharacterManager.cpp
;	COMDAT ?RenderShadowAllInstances@CPythonCharacterManager@@QAEXXZ
_TEXT	SEGMENT
__UFirst$1 = -4						; size = 4
?RenderShadowAllInstances@CPythonCharacterManager@@QAEXXZ PROC ; CPythonCharacterManager::RenderShadowAllInstances, COMDAT
; _this$ = ecx

; 526  : {

  00000	55		 push	 ebp
  00001	8b ec		 mov	 ebp, esp
  00003	51		 push	 ecx
  00004	56		 push	 esi
; File C:\Program Files (x86)\Microsoft Visual Studio\2019\Community\VC\Tools\MSVC\14.28.29333\include\xtree

; 39   :     _Tree_unchecked_const_iterator(_Nodeptr _Pnode, const _Mytree* _Plist) noexcept : _Ptr(_Pnode) {

  00005	8b 71 20	 mov	 esi, DWORD PTR [ecx+32]
  00008	8b 06		 mov	 eax, DWORD PTR [esi]
  0000a	89 45 fc	 mov	 DWORD PTR __UFirst$1[ebp], eax
  0000d	3b c6		 cmp	 eax, esi
; File C:\Program Files (x86)\Microsoft Visual Studio\2019\Community\VC\Tools\MSVC\14.28.29333\include\algorithm

; 307  :     for (; _UFirst != _ULast; ++_UFirst) {

  0000f	74 17		 je	 SHORT $LN21@RenderShad
$LL41@RenderShad:
; File D:\Metin2 Server Files\mainline\SRC_2014\Metin2Client\UserInterface\PythonCharacterManager.cpp

; 521  : 		cr_Pair.second->RenderToShadowMap();

  00011	8b 48 14	 mov	 ecx, DWORD PTR [eax+20]
  00014	e8 00 00 00 00	 call	 ?RenderToShadowMap@CInstanceBase@@QAEXXZ ; CInstanceBase::RenderToShadowMap
; File C:\Program Files (x86)\Microsoft Visual Studio\2019\Community\VC\Tools\MSVC\14.28.29333\include\xtree

; 141  :         _Mybase::operator++();

  00019	8d 4d fc	 lea	 ecx, DWORD PTR __UFirst$1[ebp]
  0001c	e8 00 00 00 00	 call	 ??E?$_Tree_unchecked_const_iterator@V?$_Tree_val@U?$_Tree_simple_types@U?$pair@$$CBKPAVCInstanceBase@@@std@@@std@@@std@@U_Iterator_base0@2@@std@@QAEAAV01@XZ ; std::_Tree_unchecked_const_iterator<std::_Tree_val<std::_Tree_simple_types<std::pair<unsigned long const ,CInstanceBase *> > >,std::_Iterator_base0>::operator++

; 98   :         return _Ptr == _Right._Ptr;

  00021	8b 45 fc	 mov	 eax, DWORD PTR __UFirst$1[ebp]
  00024	3b c6		 cmp	 eax, esi
; File C:\Program Files (x86)\Microsoft Visual Studio\2019\Community\VC\Tools\MSVC\14.28.29333\include\algorithm

; 307  :     for (; _UFirst != _ULast; ++_UFirst) {

  00026	75 e9		 jne	 SHORT $LL41@RenderShad
$LN21@RenderShad:
  00028	5e		 pop	 esi
; File D:\Metin2 Server Files\mainline\SRC_2014\Metin2Client\UserInterface\PythonCharacterManager.cpp

; 528  : }

  00029	8b e5		 mov	 esp, ebp
  0002b	5d		 pop	 ebp
  0002c	c3		 ret	 0
?RenderShadowAllInstances@CPythonCharacterManager@@QAEXXZ ENDP ; CPythonCharacterManager::RenderShadowAllInstances
_TEXT	ENDS
; Function compile flags: /Ogtp
; File D:\Metin2 Server Files\mainline\SRC_2014\Metin2Client\UserInterface\PythonCharacterManager.cpp
;	COMDAT ?RenderShadowMainInstance@CPythonCharacterManager@@QAEXXZ
_TEXT	SEGMENT
?RenderShadowMainInstance@CPythonCharacterManager@@QAEXXZ PROC ; CPythonCharacterManager::RenderShadowMainInstance, COMDAT
; _this$ = ecx

; 512  : 	CInstanceBase* pkInstMain=GetMainInstancePtr();

  00000	e8 00 00 00 00	 call	 ?GetMainInstancePtr@CPythonCharacterManager@@QAEPAVCInstanceBase@@XZ ; CPythonCharacterManager::GetMainInstancePtr

; 513  : 	if (pkInstMain)

  00005	85 c0		 test	 eax, eax
  00007	74 07		 je	 SHORT $LN2@RenderShad

; 514  : 		pkInstMain->RenderToShadowMap();

  00009	8b c8		 mov	 ecx, eax
  0000b	e9 00 00 00 00	 jmp	 ?RenderToShadowMap@CInstanceBase@@QAEXXZ ; CInstanceBase::RenderToShadowMap
$LN2@RenderShad:

; 515  : }

  00010	c3		 ret	 0
?RenderShadowMainInstance@CPythonCharacterManager@@QAEXXZ ENDP ; CPythonCharacterManager::RenderShadowMainInstance
_TEXT	ENDS
; Function compile flags: /Ogtp
; File D:\Metin2 Server Files\mainline\SRC_2014\Metin2Client\UserInterface\PythonCharacterManager.cpp
;	COMDAT ?Render@CPythonCharacterManager@@QAEXXZ
_TEXT	SEGMENT
?Render@CPythonCharacterManager@@QAEXXZ PROC		; CPythonCharacterManager::Render, COMDAT
; _this$ = ecx

; 486  : {

  00000	56		 push	 esi

; 487  : 	STATEMANAGER.SetTexture(0, NULL);	

  00001	6a 00		 push	 0
  00003	8b f1		 mov	 esi, ecx
  00005	8b 0d 00 00 00
	00		 mov	 ecx, DWORD PTR ?ms_singleton@?$CSingleton@VCStateManager@@@@0PAVCStateManager@@A ; CSingleton<CStateManager>::ms_singleton
  0000b	6a 00		 push	 0
  0000d	e8 00 00 00 00	 call	 ?SetTexture@CStateManager@@QAEXKPAUIDirect3DBaseTexture8@@@Z ; CStateManager::SetTexture

; 488  : 	STATEMANAGER.SetTextureStageState(0, D3DTSS_COLORARG1,	D3DTA_TEXTURE);

  00012	8b 0d 00 00 00
	00		 mov	 ecx, DWORD PTR ?ms_singleton@?$CSingleton@VCStateManager@@@@0PAVCStateManager@@A ; CSingleton<CStateManager>::ms_singleton
  00018	6a 02		 push	 2
  0001a	6a 02		 push	 2
  0001c	6a 00		 push	 0
  0001e	e8 00 00 00 00	 call	 ?SetTextureStageState@CStateManager@@QAEXKW4_D3DTEXTURESTAGESTATETYPE@@K@Z ; CStateManager::SetTextureStageState

; 489  : 	STATEMANAGER.SetTextureStageState(0, D3DTSS_COLORARG2,	D3DTA_CURRENT);

  00023	8b 0d 00 00 00
	00		 mov	 ecx, DWORD PTR ?ms_singleton@?$CSingleton@VCStateManager@@@@0PAVCStateManager@@A ; CSingleton<CStateManager>::ms_singleton
  00029	6a 01		 push	 1
  0002b	6a 03		 push	 3
  0002d	6a 00		 push	 0
  0002f	e8 00 00 00 00	 call	 ?SetTextureStageState@CStateManager@@QAEXKW4_D3DTEXTURESTAGESTATETYPE@@K@Z ; CStateManager::SetTextureStageState

; 490  : 	STATEMANAGER.SetTextureStageState(0, D3DTSS_COLOROP,	D3DTOP_MODULATE);

  00034	8b 0d 00 00 00
	00		 mov	 ecx, DWORD PTR ?ms_singleton@?$CSingleton@VCStateManager@@@@0PAVCStateManager@@A ; CSingleton<CStateManager>::ms_singleton
  0003a	6a 04		 push	 4
  0003c	6a 01		 push	 1
  0003e	6a 00		 push	 0
  00040	e8 00 00 00 00	 call	 ?SetTextureStageState@CStateManager@@QAEXKW4_D3DTEXTURESTAGESTATETYPE@@K@Z ; CStateManager::SetTextureStageState

; 491  : 	STATEMANAGER.SetTextureStageState(0, D3DTSS_ALPHAARG1,	D3DTA_TEXTURE);

  00045	8b 0d 00 00 00
	00		 mov	 ecx, DWORD PTR ?ms_singleton@?$CSingleton@VCStateManager@@@@0PAVCStateManager@@A ; CSingleton<CStateManager>::ms_singleton
  0004b	6a 02		 push	 2
  0004d	6a 05		 push	 5
  0004f	6a 00		 push	 0
  00051	e8 00 00 00 00	 call	 ?SetTextureStageState@CStateManager@@QAEXKW4_D3DTEXTURESTAGESTATETYPE@@K@Z ; CStateManager::SetTextureStageState

; 492  : 	STATEMANAGER.SetTextureStageState(0, D3DTSS_ALPHAOP,	D3DTOP_SELECTARG1);

  00056	8b 0d 00 00 00
	00		 mov	 ecx, DWORD PTR ?ms_singleton@?$CSingleton@VCStateManager@@@@0PAVCStateManager@@A ; CSingleton<CStateManager>::ms_singleton
  0005c	6a 02		 push	 2
  0005e	6a 04		 push	 4
  00060	6a 00		 push	 0
  00062	e8 00 00 00 00	 call	 ?SetTextureStageState@CStateManager@@QAEXKW4_D3DTEXTURESTAGESTATETYPE@@K@Z ; CStateManager::SetTextureStageState

; 493  : 
; 494  : 	STATEMANAGER.SetTexture(1, NULL);

  00067	8b 0d 00 00 00
	00		 mov	 ecx, DWORD PTR ?ms_singleton@?$CSingleton@VCStateManager@@@@0PAVCStateManager@@A ; CSingleton<CStateManager>::ms_singleton
  0006d	6a 00		 push	 0
  0006f	6a 01		 push	 1
  00071	e8 00 00 00 00	 call	 ?SetTexture@CStateManager@@QAEXKPAUIDirect3DBaseTexture8@@@Z ; CStateManager::SetTexture

; 495  : 	STATEMANAGER.SetTextureStageState(1, D3DTSS_COLOROP,	D3DTOP_DISABLE);

  00076	8b 0d 00 00 00
	00		 mov	 ecx, DWORD PTR ?ms_singleton@?$CSingleton@VCStateManager@@@@0PAVCStateManager@@A ; CSingleton<CStateManager>::ms_singleton
  0007c	6a 01		 push	 1
  0007e	6a 01		 push	 1
  00080	6a 01		 push	 1
  00082	e8 00 00 00 00	 call	 ?SetTextureStageState@CStateManager@@QAEXKW4_D3DTEXTURESTAGESTATETYPE@@K@Z ; CStateManager::SetTextureStageState

; 496  : 	STATEMANAGER.SetTextureStageState(1, D3DTSS_ALPHAOP,	D3DTOP_DISABLE);

  00087	8b 0d 00 00 00
	00		 mov	 ecx, DWORD PTR ?ms_singleton@?$CSingleton@VCStateManager@@@@0PAVCStateManager@@A ; CSingleton<CStateManager>::ms_singleton
  0008d	6a 01		 push	 1
  0008f	6a 04		 push	 4
  00091	6a 01		 push	 1
  00093	e8 00 00 00 00	 call	 ?SetTextureStageState@CStateManager@@QAEXKW4_D3DTEXTURESTAGESTATETYPE@@K@Z ; CStateManager::SetTextureStageState

; 497  : 
; 498  : 
; 499  : 	__RenderSortedAliveActorList();

  00098	8b ce		 mov	 ecx, esi
  0009a	e8 00 00 00 00	 call	 ?__RenderSortedAliveActorList@CPythonCharacterManager@@IAEXXZ ; CPythonCharacterManager::__RenderSortedAliveActorList

; 500  : 	__RenderSortedDeadActorList();

  0009f	8b ce		 mov	 ecx, esi
  000a1	e8 00 00 00 00	 call	 ?__RenderSortedDeadActorList@CPythonCharacterManager@@IAEXXZ ; CPythonCharacterManager::__RenderSortedDeadActorList

; 501  : 
; 502  : 	CInstanceBase * pkPickedInst = OLD_GetPickedInstancePtr();

  000a6	8b ce		 mov	 ecx, esi
  000a8	e8 00 00 00 00	 call	 ?OLD_GetPickedInstancePtr@CPythonCharacterManager@@QAEPAVCInstanceBase@@XZ ; CPythonCharacterManager::OLD_GetPickedInstancePtr

; 503  : 	if (pkPickedInst)

  000ad	85 c0		 test	 eax, eax
  000af	74 43		 je	 SHORT $LN2@Render

; 504  : 	{
; 505  : 		const D3DXVECTOR3 & c_rv3Position = pkPickedInst->GetGraphicThingInstanceRef().GetPosition();

  000b1	8b c8		 mov	 ecx, eax
  000b3	e8 00 00 00 00	 call	 ?GetGraphicThingInstanceRef@CInstanceBase@@QAEAAVCActorInstance@@XZ ; CInstanceBase::GetGraphicThingInstanceRef
  000b8	8b c8		 mov	 ecx, eax
  000ba	e8 00 00 00 00	 call	 ?GetPosition@CGraphicObjectInstance@@QBEABUD3DXVECTOR3@@XZ ; CGraphicObjectInstance::GetPosition

; 506  : 		CPythonGraphic::Instance().ProjectPosition(c_rv3Position.x, c_rv3Position.y, c_rv3Position.z, &m_v2PickedInstProjPos.x, &m_v2PickedInstProjPos.y);

  000bf	8d 4e 1c	 lea	 ecx, DWORD PTR [esi+28]
  000c2	51		 push	 ecx
  000c3	8d 4e 18	 lea	 ecx, DWORD PTR [esi+24]
  000c6	f3 0f 10 40 08	 movss	 xmm0, DWORD PTR [eax+8]
  000cb	51		 push	 ecx
  000cc	8b 0d 00 00 00
	00		 mov	 ecx, DWORD PTR ?ms_singleton@?$CSingleton@VCPythonGraphic@@@@0PAVCPythonGraphic@@A ; CSingleton<CPythonGraphic>::ms_singleton
  000d2	83 ec 0c	 sub	 esp, 12			; 0000000cH
  000d5	f3 0f 11 44 24
	08		 movss	 DWORD PTR [esp+8], xmm0
  000db	f3 0f 10 40 04	 movss	 xmm0, DWORD PTR [eax+4]
  000e0	f3 0f 11 44 24
	04		 movss	 DWORD PTR [esp+4], xmm0
  000e6	f3 0f 10 00	 movss	 xmm0, DWORD PTR [eax]
  000ea	f3 0f 11 04 24	 movss	 DWORD PTR [esp], xmm0
  000ef	e8 00 00 00 00	 call	 ?ProjectPosition@CScreen@@QAEXMMMPAM0@Z ; CScreen::ProjectPosition
$LN2@Render:

; 507  : 	}
; 508  : }

  000f4	5e		 pop	 esi
  000f5	c3		 ret	 0
?Render@CPythonCharacterManager@@QAEXXZ ENDP		; CPythonCharacterManager::Render
_TEXT	ENDS
; Function compile flags: /Ogtp
; File D:\Metin2 Server Files\mainline\SRC_2014\Metin2Client\UserInterface\PythonCharacterManager.cpp
; File C:\Program Files (x86)\Microsoft Visual Studio\2019\Community\VC\Tools\MSVC\14.28.29333\include\xtree
; File C:\Program Files (x86)\Microsoft Visual Studio\2019\Community\VC\Tools\MSVC\14.28.29333\include\algorithm
; File D:\Metin2 Server Files\mainline\SRC_2014\Metin2Client\UserInterface\PythonCharacterManager.cpp
; File C:\Program Files (x86)\Microsoft Visual Studio\2019\Community\VC\Tools\MSVC\14.28.29333\include\xtree
; File C:\Program Files (x86)\Microsoft Visual Studio\2019\Community\VC\Tools\MSVC\14.28.29333\include\algorithm
; File C:\Program Files (x86)\Microsoft Visual Studio\2019\Community\VC\Tools\MSVC\14.28.29333\include\list
; File C:\Program Files (x86)\Microsoft Visual Studio\2019\Community\VC\Tools\MSVC\14.28.29333\include\algorithm
; File D:\Metin2 Server Files\mainline\SRC_2014\Metin2Client\UserInterface\PythonCharacterManager.cpp
; File C:\Program Files (x86)\Microsoft Visual Studio\2019\Community\VC\Tools\MSVC\14.28.29333\include\list
; File C:\Program Files (x86)\Microsoft Visual Studio\2019\Community\VC\Tools\MSVC\14.28.29333\include\algorithm
; File D:\Metin2 Server Files\mainline\SRC_2014\Metin2Client\UserInterface\PythonCharacterManager.cpp
;	COMDAT ?Deform@CPythonCharacterManager@@QAEXXZ
_TEXT	SEGMENT
__UFirst$1 = -4						; size = 4
?Deform@CPythonCharacterManager@@QAEXXZ PROC		; CPythonCharacterManager::Deform, COMDAT
; _this$ = ecx

; 372  : {

  00000	55		 push	 ebp
  00001	8b ec		 mov	 ebp, esp
  00003	51		 push	 ecx
  00004	56		 push	 esi
  00005	57		 push	 edi
  00006	8b f9		 mov	 edi, ecx
; File C:\Program Files (x86)\Microsoft Visual Studio\2019\Community\VC\Tools\MSVC\14.28.29333\include\xtree

; 39   :     _Tree_unchecked_const_iterator(_Nodeptr _Pnode, const _Mytree* _Plist) noexcept : _Ptr(_Pnode) {

  00008	8b 77 20	 mov	 esi, DWORD PTR [edi+32]
  0000b	8b 06		 mov	 eax, DWORD PTR [esi]
  0000d	89 45 fc	 mov	 DWORD PTR __UFirst$1[ebp], eax
  00010	3b c6		 cmp	 eax, esi
; File C:\Program Files (x86)\Microsoft Visual Studio\2019\Community\VC\Tools\MSVC\14.28.29333\include\algorithm

; 307  :     for (; _UFirst != _ULast; ++_UFirst) {

  00012	74 17		 je	 SHORT $LN21@Deform
$LL41@Deform:
; File D:\Metin2 Server Files\mainline\SRC_2014\Metin2Client\UserInterface\PythonCharacterManager.cpp

; 359  : 		cr_Pair.second->Deform();

  00014	8b 48 14	 mov	 ecx, DWORD PTR [eax+20]
  00017	e8 00 00 00 00	 call	 ?Deform@CInstanceBase@@QAEXXZ ; CInstanceBase::Deform
; File C:\Program Files (x86)\Microsoft Visual Studio\2019\Community\VC\Tools\MSVC\14.28.29333\include\xtree

; 141  :         _Mybase::operator++();

  0001c	8d 4d fc	 lea	 ecx, DWORD PTR __UFirst$1[ebp]
  0001f	e8 00 00 00 00	 call	 ??E?$_Tree_unchecked_const_iterator@V?$_Tree_val@U?$_Tree_simple_types@U?$pair@$$CBKPAVCInstanceBase@@@std@@@std@@@std@@U_Iterator_base0@2@@std@@QAEAAV01@XZ ; std::_Tree_unchecked_const_iterator<std::_Tree_val<std::_Tree_simple_types<std::pair<unsigned long const ,CInstanceBase *> > >,std::_Iterator_base0>::operator++

; 98   :         return _Ptr == _Right._Ptr;

  00024	8b 45 fc	 mov	 eax, DWORD PTR __UFirst$1[ebp]
  00027	3b c6		 cmp	 eax, esi
; File C:\Program Files (x86)\Microsoft Visual Studio\2019\Community\VC\Tools\MSVC\14.28.29333\include\algorithm

; 307  :     for (; _UFirst != _ULast; ++_UFirst) {

  00029	75 e9		 jne	 SHORT $LL41@Deform
$LN21@Deform:
; File C:\Program Files (x86)\Microsoft Visual Studio\2019\Community\VC\Tools\MSVC\14.28.29333\include\list

; 39   :     _List_unchecked_const_iterator(_Nodeptr _Pnode, const _Mylist* _Plist) noexcept : _Ptr(_Pnode) {

  0002b	8b 7f 28	 mov	 edi, DWORD PTR [edi+40]
  0002e	8b 37		 mov	 esi, DWORD PTR [edi]

; 74   :         return _Ptr == _Right._Ptr;

  00030	3b f7		 cmp	 esi, edi
; File C:\Program Files (x86)\Microsoft Visual Studio\2019\Community\VC\Tools\MSVC\14.28.29333\include\algorithm

; 307  :     for (; _UFirst != _ULast; ++_UFirst) {

  00032	74 0e		 je	 SHORT $LN72@Deform
$LL94@Deform:
; File D:\Metin2 Server Files\mainline\SRC_2014\Metin2Client\UserInterface\PythonCharacterManager.cpp

; 367  : 		pInstance->Deform();

  00034	8b 4e 08	 mov	 ecx, DWORD PTR [esi+8]
  00037	e8 00 00 00 00	 call	 ?Deform@CInstanceBase@@QAEXXZ ; CInstanceBase::Deform
; File C:\Program Files (x86)\Microsoft Visual Studio\2019\Community\VC\Tools\MSVC\14.28.29333\include\list

; 52   :         _Ptr = _Ptr->_Next;

  0003c	8b 36		 mov	 esi, DWORD PTR [esi]

; 74   :         return _Ptr == _Right._Ptr;

  0003e	3b f7		 cmp	 esi, edi
; File C:\Program Files (x86)\Microsoft Visual Studio\2019\Community\VC\Tools\MSVC\14.28.29333\include\algorithm

; 307  :     for (; _UFirst != _ULast; ++_UFirst) {

  00040	75 f2		 jne	 SHORT $LL94@Deform
$LN72@Deform:
  00042	5f		 pop	 edi
; File D:\Metin2 Server Files\mainline\SRC_2014\Metin2Client\UserInterface\PythonCharacterManager.cpp

; 375  : }

  00043	5e		 pop	 esi
  00044	8b e5		 mov	 esp, ebp
  00046	5d		 pop	 ebp
  00047	c3		 ret	 0
?Deform@CPythonCharacterManager@@QAEXXZ ENDP		; CPythonCharacterManager::Deform
_TEXT	ENDS
; Function compile flags: /Ogtp
; File D:\Metin2 Server Files\mainline\SRC_2014\Metin2Client\UserInterface\PythonCharacterManager.cpp
; File C:\Program Files (x86)\Microsoft Visual Studio\2019\Community\VC\Tools\MSVC\14.28.29333\include\xtree
; File D:\Metin2 Server Files\mainline\SRC_2014\Metin2Client\UserInterface\PythonCharacterManager.cpp
; File C:\Program Files (x86)\Microsoft Visual Studio\2019\Community\VC\Tools\MSVC\14.28.29333\include\xtree
; File D:\Metin2 Server Files\mainline\SRC_2014\Metin2Client\UserInterface\PythonCharacterManager.cpp
; File C:\Program Files (x86)\Microsoft Visual Studio\2019\Community\VC\Tools\MSVC\14.28.29333\include\xtree
; File D:\Metin2 Server Files\mainline\SRC_2014\Metin2Client\UserInterface\PythonCharacterManager.cpp
; File C:\Program Files (x86)\Microsoft Visual Studio\2019\Community\VC\Tools\MSVC\14.28.29333\include\xtree
; File C:\Program Files (x86)\Microsoft Visual Studio\2019\Community\VC\Tools\MSVC\14.28.29333\include\xmemory
; File D:\Metin2 Server Files\mainline\SRC_2014\Metin2Client\UserInterface\PythonCharacterManager.cpp
; File C:\Program Files (x86)\Microsoft Visual Studio\2019\Community\VC\Tools\MSVC\14.28.29333\include\xtree
; File D:\Metin2 Server Files\mainline\SRC_2014\Metin2Client\UserInterface\PythonCharacterManager.cpp
;	COMDAT ?Update@CPythonCharacterManager@@QAEXXZ
_TEXT	SEGMENT
tv429 = -16						; size = 4
_i$ = -12						; size = 4
_pkInstMain$1$ = -8					; size = 4
_this$1$ = -4						; size = 4
?Update@CPythonCharacterManager@@QAEXXZ PROC		; CPythonCharacterManager::Update, COMDAT
; _this$ = ecx

; 152  : {

  00000	55		 push	 ebp
  00001	8b ec		 mov	 ebp, esp
  00003	83 ec 10	 sub	 esp, 16			; 00000010H
  00006	53		 push	 ebx
  00007	56		 push	 esi
  00008	57		 push	 edi
  00009	8b f9		 mov	 edi, ecx
  0000b	89 7d fc	 mov	 DWORD PTR _this$1$[ebp], edi

; 153  : #ifdef __PERFORMANCE_CHECKER__
; 154  : 	DWORD t1=timeGetTime();
; 155  : #endif
; 156  : 	CInstanceBase::ResetPerformanceCounter();

  0000e	e8 00 00 00 00	 call	 ?ResetPerformanceCounter@CInstanceBase@@SAXXZ ; CInstanceBase::ResetPerformanceCounter

; 158  : 	CInstanceBase* pkInstMain=GetMainInstancePtr();

  00013	8b cf		 mov	 ecx, edi
  00015	e8 00 00 00 00	 call	 ?GetMainInstancePtr@CPythonCharacterManager@@QAEPAVCInstanceBase@@XZ ; CPythonCharacterManager::GetMainInstancePtr
; File C:\Program Files (x86)\Microsoft Visual Studio\2019\Community\VC\Tools\MSVC\14.28.29333\include\xtree

; 1240 :         return iterator(_Scary->_Myhead->_Left, _Scary);

  0001a	8b 57 20	 mov	 edx, DWORD PTR [edi+32]
  0001d	8d 5f 20	 lea	 ebx, DWORD PTR [edi+32]
; File D:\Metin2 Server Files\mainline\SRC_2014\Metin2Client\UserInterface\PythonCharacterManager.cpp

; 158  : 	CInstanceBase* pkInstMain=GetMainInstancePtr();

  00020	89 45 f8	 mov	 DWORD PTR _pkInstMain$1$[ebp], eax
; File C:\Program Files (x86)\Microsoft Visual Studio\2019\Community\VC\Tools\MSVC\14.28.29333\include\xtree

; 39   :     _Tree_unchecked_const_iterator(_Nodeptr _Pnode, const _Mytree* _Plist) noexcept : _Ptr(_Pnode) {

  00023	8b 32		 mov	 esi, DWORD PTR [edx]
  00025	89 75 f4	 mov	 DWORD PTR _i$[ebp], esi
  00028	3b d6		 cmp	 edx, esi
; File D:\Metin2 Server Files\mainline\SRC_2014\Metin2Client\UserInterface\PythonCharacterManager.cpp

; 166  : 	while (m_kAliveInstMap.end()!=i)

  0002a	74 6f		 je	 SHORT $LN3@Update
  0002c	0f 1f 40 00	 npad	 4
$LL2@Update:
; File C:\Program Files (x86)\Microsoft Visual Studio\2019\Community\VC\Tools\MSVC\14.28.29333\include\xtree

; 198  :         _Mybase::operator++();

  00030	8d 4d f4	 lea	 ecx, DWORD PTR _i$[ebp]
  00033	e8 00 00 00 00	 call	 ??E?$_Tree_unchecked_const_iterator@V?$_Tree_val@U?$_Tree_simple_types@U?$pair@$$CBKPAVCInstanceBase@@@std@@@std@@@std@@U_Iterator_base0@2@@std@@QAEAAV01@XZ ; std::_Tree_unchecked_const_iterator<std::_Tree_val<std::_Tree_simple_types<std::pair<unsigned long const ,CInstanceBase *> > >,std::_Iterator_base0>::operator++
; File D:\Metin2 Server Files\mainline\SRC_2014\Metin2Client\UserInterface\PythonCharacterManager.cpp

; 170  : 		CInstanceBase* pkInstEach=c->second;

  00038	8b 7e 14	 mov	 edi, DWORD PTR [esi+20]

; 171  : 		pkInstEach->Update();

  0003b	8b cf		 mov	 ecx, edi
  0003d	e8 00 00 00 00	 call	 ?Update@CInstanceBase@@QAEXXZ ; CInstanceBase::Update

; 172  : 
; 173  : 		if (pkInstMain)

  00042	83 7d f8 00	 cmp	 DWORD PTR _pkInstMain$1$[ebp], 0
  00046	74 49		 je	 SHORT $LN66@Update

; 175  : 			if (pkInstEach->IsForceVisible())

  00048	8b cf		 mov	 ecx, edi
  0004a	e8 00 00 00 00	 call	 ?IsForceVisible@CInstanceBase@@QAEHXZ ; CInstanceBase::IsForceVisible
  0004f	85 c0		 test	 eax, eax
  00051	75 3e		 jne	 SHORT $LN66@Update

; 176  : 			{
; 177  : 				dwForceVisibleInstCount++;
; 178  : 				continue;
; 179  : 			}
; 180  : 
; 181  : 			int nDistance = int(pkInstEach->NEW_GetDistanceFromDestInstance(*pkInstMain));

  00053	ff 75 f8	 push	 DWORD PTR _pkInstMain$1$[ebp]
  00056	8b cf		 mov	 ecx, edi
  00058	e8 00 00 00 00	 call	 ?NEW_GetDistanceFromDestInstance@CInstanceBase@@QAEMAAV1@@Z ; CInstanceBase::NEW_GetDistanceFromDestInstance

; 182  : 			if (nDistance > CHAR_STAGE_VIEW_BOUND + 10)

  0005d	a1 00 00 00 00	 mov	 eax, DWORD PTR ?CHAR_STAGE_VIEW_BOUND@@3HA ; CHAR_STAGE_VIEW_BOUND
  00062	d9 5d f0	 fstp	 DWORD PTR tv429[ebp]
  00065	f3 0f 2c 4d f0	 cvttss2si ecx, DWORD PTR tv429[ebp]
  0006a	83 c0 0a	 add	 eax, 10			; 0000000aH
  0006d	3b c8		 cmp	 ecx, eax
  0006f	7e 20		 jle	 SHORT $LN66@Update

; 183  : 			{
; 184  : 				__DeleteBlendOutInstance(pkInstEach);

  00071	57		 push	 edi
  00072	8b 7d fc	 mov	 edi, DWORD PTR _this$1$[ebp]
  00075	8b cf		 mov	 ecx, edi
  00077	e8 00 00 00 00	 call	 ?__DeleteBlendOutInstance@CPythonCharacterManager@@IAEXPAVCInstanceBase@@@Z ; CPythonCharacterManager::__DeleteBlendOutInstance
; File C:\Program Files (x86)\Microsoft Visual Studio\2019\Community\VC\Tools\MSVC\14.28.29333\include\xtree

; 1389 :         _Nodeptr _Erasednode = _Scary->_Extract(_Where); // node to erase

  0007c	56		 push	 esi
  0007d	8b cb		 mov	 ecx, ebx
  0007f	e8 00 00 00 00	 call	 ?_Extract@?$_Tree_val@U?$_Tree_simple_types@U?$pair@$$CBKPAVCInstanceBase@@@std@@@std@@@std@@QAEPAU?$_Tree_node@U?$pair@$$CBKPAVCInstanceBase@@@std@@PAX@2@V?$_Tree_unchecked_const_iterator@V?$_Tree_val@U?$_Tree_simple_types@U?$pair@$$CBKPAVCInstanceBase@@@std@@@std@@@std@@U_Iterator_base0@2@@2@@Z ; std::_Tree_val<std::_Tree_simple_types<std::pair<unsigned long const ,CInstanceBase *> > >::_Extract
; File C:\Program Files (x86)\Microsoft Visual Studio\2019\Community\VC\Tools\MSVC\14.28.29333\include\xmemory

; 696  :         _Deallocate<_New_alignof<value_type>>(_Ptr, sizeof(value_type) * _Count);

  00084	6a 18		 push	 24			; 00000018H
  00086	50		 push	 eax
  00087	e8 00 00 00 00	 call	 ??$_Deallocate@$07$0A@@std@@YAXPAXI@Z ; std::_Deallocate<8,0>
  0008c	83 c4 08	 add	 esp, 8
; File D:\Metin2 Server Files\mainline\SRC_2014\Metin2Client\UserInterface\PythonCharacterManager.cpp

; 175  : 			if (pkInstEach->IsForceVisible())

  0008f	eb 03		 jmp	 SHORT $LN6@Update
$LN66@Update:
; File C:\Program Files (x86)\Microsoft Visual Studio\2019\Community\VC\Tools\MSVC\14.28.29333\include\xtree

; 232  :         return this->_Ptr == _Right._Ptr;

  00091	8b 7d fc	 mov	 edi, DWORD PTR _this$1$[ebp]
$LN6@Update:
  00094	8b 75 f4	 mov	 esi, DWORD PTR _i$[ebp]
  00097	39 33		 cmp	 DWORD PTR [ebx], esi
; File D:\Metin2 Server Files\mainline\SRC_2014\Metin2Client\UserInterface\PythonCharacterManager.cpp

; 166  : 	while (m_kAliveInstMap.end()!=i)

  00099	75 95		 jne	 SHORT $LL2@Update
$LN3@Update:

; 185  : 				m_kAliveInstMap.erase(c);
; 186  : 				dwDeadInstCount++;
; 187  : 			}
; 188  : 		}
; 189  : 	}
; 190  : #ifdef __PERFORMANCE_CHECKER__
; 191  : 	DWORD t3=timeGetTime();
; 192  : #endif
; 193  : 	UpdateTransform();

  0009b	8b cf		 mov	 ecx, edi
  0009d	e8 00 00 00 00	 call	 ?UpdateTransform@CPythonCharacterManager@@IAEXXZ ; CPythonCharacterManager::UpdateTransform

; 194  : #ifdef __PERFORMANCE_CHECKER__
; 195  : 	DWORD t4=timeGetTime();
; 196  : #endif
; 197  : 
; 198  : 	UpdateDeleting();

  000a2	8b cf		 mov	 ecx, edi
  000a4	e8 00 00 00 00	 call	 ?UpdateDeleting@CPythonCharacterManager@@IAEXXZ ; CPythonCharacterManager::UpdateDeleting

; 199  : #ifdef __PERFORMANCE_CHECKER__
; 200  : 	DWORD t5=timeGetTime();
; 201  : #endif
; 202  : 
; 203  : 	__NEW_Pick();

  000a9	8b cf		 mov	 ecx, edi
  000ab	e8 00 00 00 00	 call	 ?__NEW_Pick@CPythonCharacterManager@@IAEXXZ ; CPythonCharacterManager::__NEW_Pick
  000b0	5f		 pop	 edi
  000b1	5e		 pop	 esi
  000b2	5b		 pop	 ebx

; 204  : #ifdef __PERFORMANCE_CHECKER__
; 205  : 	DWORD t6=timeGetTime();
; 206  : #endif
; 207  : 
; 208  : #ifdef __PERFORMANCE_CHECKER__
; 209  : 	{
; 210  : 		static FILE* fp=fopen("perf_chrmgr_update.txt", "w");
; 211  : 
; 212  : 		if (t6-t1>1)
; 213  : 		{
; 214  : 			fprintf(fp, "CU.Total %d (Time %d, Alive %d, Dead %d)\n", 
; 215  : 				t6-t1, ELTimer_GetMSec(),
; 216  : 				m_kAliveInstMap.size(),
; 217  : 				m_kDeadInstList.size());
; 218  : 			fprintf(fp, "CU.Counter %d\n", t2-t1);
; 219  : 			fprintf(fp, "CU.ForEach %d\n", t3-t2);
; 220  : 			fprintf(fp, "CU.Trans %d\n", t4-t3);
; 221  : 			fprintf(fp, "CU.Del %d\n", t5-t4);
; 222  : 			fprintf(fp, "CU.Pick %d\n", t6-t5);
; 223  : 			fprintf(fp, "CU.AI %d\n", m_kAliveInstMap.size());
; 224  : 			fprintf(fp, "CU.DI %d\n", dwDeadInstCount);
; 225  : 			fprintf(fp, "CU.FVI %d\n", dwForceVisibleInstCount);
; 226  : 			fprintf(fp, "-------------------------------- \n");
; 227  : 			fflush(fp);
; 228  : 		}
; 229  : 	}
; 230  : #endif
; 231  : }

  000b3	8b e5		 mov	 esp, ebp
  000b5	5d		 pop	 ebp
  000b6	c3		 ret	 0
?Update@CPythonCharacterManager@@QAEXXZ ENDP		; CPythonCharacterManager::Update
_TEXT	ENDS
; Function compile flags: /Ogtp
; File D:\Metin2 Server Files\mainline\SRC_2014\Metin2Client\UserInterface\PythonCharacterManager.cpp
;	COMDAT ?DeleteAllInstances@CPythonCharacterManager@@QAEXXZ
_TEXT	SEGMENT
?DeleteAllInstances@CPythonCharacterManager@@QAEXXZ PROC ; CPythonCharacterManager::DeleteAllInstances, COMDAT
; _this$ = ecx

; 918  : {

  00000	56		 push	 esi
  00001	8b f1		 mov	 esi, ecx

; 919  : 	DestroyAliveInstanceMap();

  00003	e8 00 00 00 00	 call	 ?DestroyAliveInstanceMap@CPythonCharacterManager@@QAEXXZ ; CPythonCharacterManager::DestroyAliveInstanceMap

; 920  : 	DestroyDeadInstanceList();

  00008	8b ce		 mov	 ecx, esi
  0000a	5e		 pop	 esi
  0000b	e9 00 00 00 00	 jmp	 ?DestroyDeadInstanceList@CPythonCharacterManager@@QAEXXZ ; CPythonCharacterManager::DestroyDeadInstanceList
?DeleteAllInstances@CPythonCharacterManager@@QAEXXZ ENDP ; CPythonCharacterManager::DeleteAllInstances
_TEXT	ENDS
; Function compile flags: /Ogtp
; File D:\Metin2 Server Files\mainline\SRC_2014\Metin2Client\UserInterface\PythonCharacterManager.cpp
;	COMDAT ?Destroy@CPythonCharacterManager@@UAEXXZ
_TEXT	SEGMENT
?Destroy@CPythonCharacterManager@@UAEXXZ PROC		; CPythonCharacterManager::Destroy, COMDAT
; _this$ = ecx

; 939  : {

  00000	56		 push	 esi

; 940  : 	DeleteAllInstances();

  00001	8d 71 fc	 lea	 esi, DWORD PTR [ecx-4]
  00004	8b ce		 mov	 ecx, esi
  00006	e8 00 00 00 00	 call	 ?DeleteAllInstances@CPythonCharacterManager@@QAEXXZ ; CPythonCharacterManager::DeleteAllInstances

; 941  : 
; 942  : 	CInstanceBase::DestroySystem();

  0000b	e8 00 00 00 00	 call	 ?DestroySystem@CInstanceBase@@SAXXZ ; CInstanceBase::DestroySystem

; 943  : 
; 944  : 	__Initialize();

  00010	8b ce		 mov	 ecx, esi
  00012	5e		 pop	 esi
  00013	e9 00 00 00 00	 jmp	 ?__Initialize@CPythonCharacterManager@@IAEXXZ ; CPythonCharacterManager::__Initialize
?Destroy@CPythonCharacterManager@@UAEXXZ ENDP		; CPythonCharacterManager::Destroy
_TEXT	ENDS
; Function compile flags: /Ogtp
; File D:\Metin2 Server Files\mainline\SRC_2014\Metin2Client\UserInterface\PythonCharacterManager.cpp
;	COMDAT ?RegisterPointEffect@CPythonCharacterManager@@QAE_NKPBD@Z
_TEXT	SEGMENT
_ePoint$ = 8						; size = 4
_c_szFileName$ = 12					; size = 4
?RegisterPointEffect@CPythonCharacterManager@@QAE_NKPBD@Z PROC ; CPythonCharacterManager::RegisterPointEffect, COMDAT
; _this$ = ecx

; 252  : {

  00000	55		 push	 ebp
  00001	8b ec		 mov	 ebp, esp
  00003	8b 45 08	 mov	 eax, DWORD PTR _ePoint$[ebp]

; 253  : 	if (ePoint>=POINT_MAX_NUM)

  00006	3d ff 00 00 00	 cmp	 eax, 255		; 000000ffH
  0000b	72 06		 jb	 SHORT $LN2@RegisterPo

; 254  : 		return false;

  0000d	32 c0		 xor	 al, al

; 260  : }

  0000f	5d		 pop	 ebp
  00010	c2 08 00	 ret	 8
$LN2@RegisterPo:

; 255  : 
; 256  : 	CEffectManager& rkEftMgr=CEffectManager::Instance();
; 257  : 	rkEftMgr.RegisterEffect2(c_szFileName, &m_adwPointEffect[ePoint]);

  00013	83 c1 3c	 add	 ecx, 60			; 0000003cH
  00016	6a 00		 push	 0
  00018	8d 04 81	 lea	 eax, DWORD PTR [ecx+eax*4]
  0001b	8b 0d 00 00 00
	00		 mov	 ecx, DWORD PTR ?ms_singleton@?$CSingleton@VCEffectManager@@@@0PAVCEffectManager@@A ; CSingleton<CEffectManager>::ms_singleton
  00021	50		 push	 eax
  00022	ff 75 0c	 push	 DWORD PTR _c_szFileName$[ebp]
  00025	e8 00 00 00 00	 call	 ?RegisterEffect2@CEffectManager@@QAEHPBDPAK_N@Z ; CEffectManager::RegisterEffect2

; 258  : 
; 259  : 	return true;

  0002a	b0 01		 mov	 al, 1

; 260  : }

  0002c	5d		 pop	 ebp
  0002d	c2 08 00	 ret	 8
?RegisterPointEffect@CPythonCharacterManager@@QAE_NKPBD@Z ENDP ; CPythonCharacterManager::RegisterPointEffect
_TEXT	ENDS
; Function compile flags: /Ogtp
; File D:\Metin2 Server Files\mainline\SRC_2014\Metin2Client\UserInterface\PythonCharacterManager.cpp
;	COMDAT ?ShowPointEffect@CPythonCharacterManager@@QAEXKK@Z
_TEXT	SEGMENT
_ePoint$ = 8						; size = 4
_dwVID$ = 12						; size = 4
?ShowPointEffect@CPythonCharacterManager@@QAEXKK@Z PROC	; CPythonCharacterManager::ShowPointEffect, COMDAT
; _this$ = ecx

; 234  : {

  00000	55		 push	 ebp
  00001	8b ec		 mov	 ebp, esp

; 235  : 	CInstanceBase * pkInstSel = (dwVID == 0xffffffff) ? GetMainInstancePtr() : GetInstancePtr(dwVID);

  00003	8b 55 0c	 mov	 edx, DWORD PTR _dwVID$[ebp]
  00006	83 fa ff	 cmp	 edx, -1
  00009	75 07		 jne	 SHORT $LN8@ShowPointE
  0000b	e8 00 00 00 00	 call	 ?GetMainInstancePtr@CPythonCharacterManager@@QAEPAVCInstanceBase@@XZ ; CPythonCharacterManager::GetMainInstancePtr
  00010	eb 0a		 jmp	 SHORT $LN10@ShowPointE
$LN8@ShowPointE:
  00012	8b 41 04	 mov	 eax, DWORD PTR [ecx+4]
  00015	83 c1 04	 add	 ecx, 4
  00018	52		 push	 edx
  00019	ff 50 08	 call	 DWORD PTR [eax+8]
$LN10@ShowPointE:

; 236  : 
; 237  : 	if (!pkInstSel)

  0001c	8b c8		 mov	 ecx, eax
  0001e	85 c9		 test	 ecx, ecx
  00020	74 1b		 je	 SHORT $LN2@ShowPointE

; 238  : 		return;
; 239  : 
; 240  : 	switch (ePoint)

  00022	8b 45 08	 mov	 eax, DWORD PTR _ePoint$[ebp]
  00025	83 e8 01	 sub	 eax, 1
  00028	74 0e		 je	 SHORT $LN5@ShowPointE
  0002a	83 e8 18	 sub	 eax, 24			; 00000018H
  0002d	75 0e		 jne	 SHORT $LN2@ShowPointE

; 244  : 			break;
; 245  : 		case POINT_LEVEL_STEP:
; 246  : 			pkInstSel->SkillUp();

  0002f	e8 00 00 00 00	 call	 ?SkillUp@CInstanceBase@@QAEXXZ ; CInstanceBase::SkillUp

; 247  : 			break;
; 248  : 	}
; 249  : }

  00034	5d		 pop	 ebp
  00035	c2 08 00	 ret	 8
$LN5@ShowPointE:

; 241  : 	{
; 242  : 		case POINT_LEVEL:
; 243  : 			pkInstSel->LevelUp();

  00038	e8 00 00 00 00	 call	 ?LevelUp@CInstanceBase@@QAEXXZ ; CInstanceBase::LevelUp
$LN2@ShowPointE:

; 247  : 			break;
; 248  : 	}
; 249  : }

  0003d	5d		 pop	 ebp
  0003e	c2 08 00	 ret	 8
?ShowPointEffect@CPythonCharacterManager@@QAEXKK@Z ENDP	; CPythonCharacterManager::ShowPointEffect
_TEXT	ENDS
; Function compile flags: /Ogtp
; File D:\Metin2 Server Files\mainline\SRC_2014\Metin2Client\UserInterface\PythonCharacterManager.cpp
;	COMDAT ?GetMainInstancePtr@CPythonCharacterManager@@QAEPAVCInstanceBase@@XZ
_TEXT	SEGMENT
?GetMainInstancePtr@CPythonCharacterManager@@QAEPAVCInstanceBase@@XZ PROC ; CPythonCharacterManager::GetMainInstancePtr, COMDAT
; _this$ = ecx

; 116  : 	return m_pkInstMain;

  00000	8b 41 0c	 mov	 eax, DWORD PTR [ecx+12]

; 117  : }

  00003	c3		 ret	 0
?GetMainInstancePtr@CPythonCharacterManager@@QAEPAVCInstanceBase@@XZ ENDP ; CPythonCharacterManager::GetMainInstancePtr
_TEXT	ENDS
; Function compile flags: /Ogtp
; File D:\Metin2 Server Files\mainline\SRC_2014\Metin2Client\UserInterface\PythonCharacterManager.cpp
;	COMDAT ?SetMainInstance@CPythonCharacterManager@@QAE_NK@Z
_TEXT	SEGMENT
_dwVID$ = 8						; size = 4
?SetMainInstance@CPythonCharacterManager@@QAE_NK@Z PROC	; CPythonCharacterManager::SetMainInstance, COMDAT
; _this$ = ecx

; 105  : {

  00000	55		 push	 ebp
  00001	8b ec		 mov	 ebp, esp
  00003	56		 push	 esi

; 106  : 	m_pkInstMain=GetInstancePtr(dwVID);

  00004	ff 75 08	 push	 DWORD PTR _dwVID$[ebp]
  00007	8b f1		 mov	 esi, ecx
  00009	8b 46 04	 mov	 eax, DWORD PTR [esi+4]
  0000c	8d 4e 04	 lea	 ecx, DWORD PTR [esi+4]
  0000f	ff 50 08	 call	 DWORD PTR [eax+8]

; 107  : 
; 108  : 	if (!m_pkInstMain)

  00012	85 c0		 test	 eax, eax
  00014	89 46 0c	 mov	 DWORD PTR [esi+12], eax
  00017	5e		 pop	 esi
  00018	0f 95 c0	 setne	 al

; 109  : 		return false;
; 110  : 
; 111  : 	return true;
; 112  : }

  0001b	5d		 pop	 ebp
  0001c	c2 04 00	 ret	 4
?SetMainInstance@CPythonCharacterManager@@QAE_NK@Z ENDP	; CPythonCharacterManager::SetMainInstance
_TEXT	ENDS
; Function compile flags: /Ogtp
; File D:\Metin2 Server Files\mainline\SRC_2014\Metin2Client\UserInterface\PythonCharacterManager.cpp
;	COMDAT ?ClearMainInstance@CPythonCharacterManager@@QAEXXZ
_TEXT	SEGMENT
?ClearMainInstance@CPythonCharacterManager@@QAEXXZ PROC	; CPythonCharacterManager::ClearMainInstance, COMDAT
; _this$ = ecx

; 101  : 	m_pkInstMain=NULL;

  00000	c7 41 0c 00 00
	00 00		 mov	 DWORD PTR [ecx+12], 0

; 102  : }

  00007	c3		 ret	 0
?ClearMainInstance@CPythonCharacterManager@@QAEXXZ ENDP	; CPythonCharacterManager::ClearMainInstance
_TEXT	ENDS
; Function compile flags: /Ogtp
; File D:\Metin2 Server Files\mainline\SRC_2014\Metin2Client\UserInterface\PythonCharacterManager.cpp
;	COMDAT ?GetInfo@CPythonCharacterManager@@QAEXPAV?$basic_string@DU?$char_traits@D@std@@V?$allocator@D@2@@std@@@Z
_TEXT	SEGMENT
_szInfo$ = -260						; size = 256
__$ArrayPad$ = -4					; size = 4
_pstInfo$ = 8						; size = 4
?GetInfo@CPythonCharacterManager@@QAEXPAV?$basic_string@DU?$char_traits@D@std@@V?$allocator@D@2@@std@@@Z PROC ; CPythonCharacterManager::GetInfo, COMDAT
; _this$ = ecx

; 120  : {

  00000	55		 push	 ebp
  00001	8b ec		 mov	 ebp, esp
  00003	81 ec 04 01 00
	00		 sub	 esp, 260		; 00000104H
  00009	a1 00 00 00 00	 mov	 eax, DWORD PTR ___security_cookie
  0000e	33 c5		 xor	 eax, ebp
  00010	89 45 fc	 mov	 DWORD PTR __$ArrayPad$[ebp], eax
  00013	56		 push	 esi
  00014	57		 push	 edi
  00015	8b 7d 08	 mov	 edi, DWORD PTR _pstInfo$[ebp]
  00018	8b f1		 mov	 esi, ecx

; 121  : 	pstInfo->append("Actor: ");

  0001a	68 00 00 00 00	 push	 OFFSET ??_C@_07DDCLDHCF@Actor?3?5@
  0001f	8b cf		 mov	 ecx, edi
  00021	e8 00 00 00 00	 call	 ?append@?$basic_string@DU?$char_traits@D@std@@V?$allocator@D@2@@std@@QAEAAV12@QBD@Z ; std::basic_string<char,std::char_traits<char>,std::allocator<char> >::append

; 122  : 
; 123  : 	CInstanceBase::GetInfo(pstInfo);

  00026	57		 push	 edi
  00027	e8 00 00 00 00	 call	 ?GetInfo@CInstanceBase@@SAXPAV?$basic_string@DU?$char_traits@D@std@@V?$allocator@D@2@@std@@@Z ; CInstanceBase::GetInfo

; 124  : 
; 125  : 	char szInfo[256];
; 126  : 	sprintf(szInfo, "Container - Live %d, Dead %d", m_kAliveInstMap.size(), m_kDeadInstList.size());

  0002c	ff 76 2c	 push	 DWORD PTR [esi+44]
  0002f	8d 85 fc fe ff
	ff		 lea	 eax, DWORD PTR _szInfo$[ebp]
  00035	ff 76 24	 push	 DWORD PTR [esi+36]
  00038	68 00 00 00 00	 push	 OFFSET ??_C@_0BN@MCDFNGBH@Container?5?9?5Live?5?$CFd?0?5Dead?5?$CFd@
  0003d	50		 push	 eax
  0003e	e8 00 00 00 00	 call	 _sprintf
  00043	83 c4 14	 add	 esp, 20			; 00000014H

; 127  : 	pstInfo->append(szInfo);

  00046	8d 85 fc fe ff
	ff		 lea	 eax, DWORD PTR _szInfo$[ebp]
  0004c	8b cf		 mov	 ecx, edi
  0004e	50		 push	 eax
  0004f	e8 00 00 00 00	 call	 ?append@?$basic_string@DU?$char_traits@D@std@@V?$allocator@D@2@@std@@QAEAAV12@QBD@Z ; std::basic_string<char,std::char_traits<char>,std::allocator<char> >::append

; 128  : }

  00054	8b 4d fc	 mov	 ecx, DWORD PTR __$ArrayPad$[ebp]
  00057	5f		 pop	 edi
  00058	33 cd		 xor	 ecx, ebp
  0005a	5e		 pop	 esi
  0005b	e8 00 00 00 00	 call	 @__security_check_cookie@4
  00060	8b e5		 mov	 esp, ebp
  00062	5d		 pop	 ebp
  00063	c2 04 00	 ret	 4
?GetInfo@CPythonCharacterManager@@QAEXPAV?$basic_string@DU?$char_traits@D@std@@V?$allocator@D@2@@std@@@Z ENDP ; CPythonCharacterManager::GetInfo
_TEXT	ENDS
; Function compile flags: /Ogtp
; File D:\Metin2 Server Files\mainline\SRC_2014\Metin2Client\UserInterface\PythonCharacterManager.cpp
; File C:\Program Files (x86)\Microsoft Visual Studio\2019\Community\VC\Tools\MSVC\14.28.29333\include\xtree
; File D:\Metin2 Server Files\mainline\SRC_2014\Metin2Client\UserInterface\PythonCharacterManager.cpp
; File C:\Program Files (x86)\Microsoft Visual Studio\2019\Community\VC\Tools\MSVC\14.28.29333\include\xtree
; File D:\Metin2 Server Files\mainline\SRC_2014\Metin2Client\UserInterface\PythonCharacterManager.cpp
;	COMDAT ?ChangeGVG@CPythonCharacterManager@@QAEXKK@Z
_TEXT	SEGMENT
_itor$ = -4						; size = 4
_dwSrcGuildID$ = 8					; size = 4
_dwDstGuildID$ = 12					; size = 4
?ChangeGVG@CPythonCharacterManager@@QAEXKK@Z PROC	; CPythonCharacterManager::ChangeGVG, COMDAT
; _this$ = ecx

; 85   : {

  00000	55		 push	 ebp
  00001	8b ec		 mov	 ebp, esp
  00003	51		 push	 ecx
  00004	57		 push	 edi
  00005	8b f9		 mov	 edi, ecx
; File C:\Program Files (x86)\Microsoft Visual Studio\2019\Community\VC\Tools\MSVC\14.28.29333\include\xtree

; 1240 :         return iterator(_Scary->_Myhead->_Left, _Scary);

  00007	8b 57 20	 mov	 edx, DWORD PTR [edi+32]

; 39   :     _Tree_unchecked_const_iterator(_Nodeptr _Pnode, const _Mytree* _Plist) noexcept : _Ptr(_Pnode) {

  0000a	8b 02		 mov	 eax, DWORD PTR [edx]
; File D:\Metin2 Server Files\mainline\SRC_2014\Metin2Client\UserInterface\PythonCharacterManager.cpp

; 87   : 	for (itor = m_kAliveInstMap.begin(); itor != m_kAliveInstMap.end(); itor++)

  0000c	89 45 fc	 mov	 DWORD PTR _itor$[ebp], eax
  0000f	3b c2		 cmp	 eax, edx
  00011	74 39		 je	 SHORT $LN3@ChangeGVG
  00013	53		 push	 ebx
  00014	8b 5d 0c	 mov	 ebx, DWORD PTR _dwDstGuildID$[ebp]
  00017	56		 push	 esi
  00018	0f 1f 84 00 00
	00 00 00	 npad	 8
$LL25@ChangeGVG:

; 88   : 	{
; 89   : 		CInstanceBase * pInstance = itor->second;

  00020	8b 70 14	 mov	 esi, DWORD PTR [eax+20]

; 90   : 
; 91   : 		DWORD dwInstanceGuildID = pInstance->GetGuildID();

  00023	8b ce		 mov	 ecx, esi
  00025	e8 00 00 00 00	 call	 ?GetGuildID@CInstanceBase@@QAEKXZ ; CInstanceBase::GetGuildID

; 92   : 		if (dwSrcGuildID == dwInstanceGuildID || dwDstGuildID == dwInstanceGuildID)

  0002a	39 45 08	 cmp	 DWORD PTR _dwSrcGuildID$[ebp], eax
  0002d	74 04		 je	 SHORT $LN6@ChangeGVG
  0002f	3b d8		 cmp	 ebx, eax
  00031	75 07		 jne	 SHORT $LN2@ChangeGVG
$LN6@ChangeGVG:

; 93   : 		{
; 94   : 			pInstance->RefreshTextTail();

  00033	8b ce		 mov	 ecx, esi
  00035	e8 00 00 00 00	 call	 ?RefreshTextTail@CInstanceBase@@QAEXXZ ; CInstanceBase::RefreshTextTail
$LN2@ChangeGVG:
; File C:\Program Files (x86)\Microsoft Visual Studio\2019\Community\VC\Tools\MSVC\14.28.29333\include\xtree

; 198  :         _Mybase::operator++();

  0003a	8d 4d fc	 lea	 ecx, DWORD PTR _itor$[ebp]
  0003d	e8 00 00 00 00	 call	 ??E?$_Tree_unchecked_const_iterator@V?$_Tree_val@U?$_Tree_simple_types@U?$pair@$$CBKPAVCInstanceBase@@@std@@@std@@@std@@U_Iterator_base0@2@@std@@QAEAAV01@XZ ; std::_Tree_unchecked_const_iterator<std::_Tree_val<std::_Tree_simple_types<std::pair<unsigned long const ,CInstanceBase *> > >,std::_Iterator_base0>::operator++

; 232  :         return this->_Ptr == _Right._Ptr;

  00042	8b 45 fc	 mov	 eax, DWORD PTR _itor$[ebp]
  00045	3b 47 20	 cmp	 eax, DWORD PTR [edi+32]
; File D:\Metin2 Server Files\mainline\SRC_2014\Metin2Client\UserInterface\PythonCharacterManager.cpp

; 87   : 	for (itor = m_kAliveInstMap.begin(); itor != m_kAliveInstMap.end(); itor++)

  00048	75 d6		 jne	 SHORT $LL25@ChangeGVG
  0004a	5e		 pop	 esi
  0004b	5b		 pop	 ebx
$LN3@ChangeGVG:
  0004c	5f		 pop	 edi

; 95   : 		}
; 96   : 	}
; 97   : }

  0004d	8b e5		 mov	 esp, ebp
  0004f	5d		 pop	 ebp
  00050	c2 08 00	 ret	 8
?ChangeGVG@CPythonCharacterManager@@QAEXKK@Z ENDP	; CPythonCharacterManager::ChangeGVG
_TEXT	ENDS
; Function compile flags: /Ogtp
; File D:\Metin2 Server Files\mainline\SRC_2014\Metin2Client\UserInterface\PythonCharacterManager.cpp
;	COMDAT ?RemovePVPKey@CPythonCharacterManager@@QAEXKK@Z
_TEXT	SEGMENT
_dwVIDSrc$ = 8						; size = 4
_dwVIDDst$ = 12						; size = 4
?RemovePVPKey@CPythonCharacterManager@@QAEXKK@Z PROC	; CPythonCharacterManager::RemovePVPKey, COMDAT
; _this$ = ecx

; 72   : {

  00000	55		 push	 ebp
  00001	8b ec		 mov	 ebp, esp
  00003	57		 push	 edi

; 73   : 	CInstanceBase::RemovePVPKey(dwVIDSrc, dwVIDDst);

  00004	ff 75 0c	 push	 DWORD PTR _dwVIDDst$[ebp]
  00007	8b f9		 mov	 edi, ecx
  00009	ff 75 08	 push	 DWORD PTR _dwVIDSrc$[ebp]
  0000c	e8 00 00 00 00	 call	 ?RemovePVPKey@CInstanceBase@@SAXKK@Z ; CInstanceBase::RemovePVPKey

; 74   : 
; 75   : 	CInstanceBase* pkInstSrc=GetInstancePtr(dwVIDSrc);

  00011	8b 47 04	 mov	 eax, DWORD PTR [edi+4]
  00014	8d 4f 04	 lea	 ecx, DWORD PTR [edi+4]
  00017	83 c4 08	 add	 esp, 8
  0001a	ff 75 08	 push	 DWORD PTR _dwVIDSrc$[ebp]
  0001d	ff 50 08	 call	 DWORD PTR [eax+8]

; 76   : 	if (pkInstSrc)

  00020	85 c0		 test	 eax, eax
  00022	74 07		 je	 SHORT $LN2@RemovePVPK

; 77   : 		pkInstSrc->RefreshTextTail();

  00024	8b c8		 mov	 ecx, eax
  00026	e8 00 00 00 00	 call	 ?RefreshTextTail@CInstanceBase@@QAEXXZ ; CInstanceBase::RefreshTextTail
$LN2@RemovePVPK:

; 78   : 
; 79   : 	CInstanceBase* pkInstDst=GetInstancePtr(dwVIDDst);

  0002b	8b 47 04	 mov	 eax, DWORD PTR [edi+4]
  0002e	8d 4f 04	 lea	 ecx, DWORD PTR [edi+4]
  00031	ff 75 0c	 push	 DWORD PTR _dwVIDDst$[ebp]
  00034	ff 50 08	 call	 DWORD PTR [eax+8]
  00037	5f		 pop	 edi

; 80   : 	if (pkInstDst)

  00038	85 c0		 test	 eax, eax
  0003a	74 07		 je	 SHORT $LN3@RemovePVPK

; 81   : 		pkInstDst->RefreshTextTail();

  0003c	8b c8		 mov	 ecx, eax
  0003e	e8 00 00 00 00	 call	 ?RefreshTextTail@CInstanceBase@@QAEXXZ ; CInstanceBase::RefreshTextTail
$LN3@RemovePVPK:

; 82   : }

  00043	5d		 pop	 ebp
  00044	c2 08 00	 ret	 8
?RemovePVPKey@CPythonCharacterManager@@QAEXKK@Z ENDP	; CPythonCharacterManager::RemovePVPKey
_TEXT	ENDS
; Function compile flags: /Ogtp
; File D:\Metin2 Server Files\mainline\SRC_2014\Metin2Client\UserInterface\PythonCharacterManager.cpp
;	COMDAT ?InsertPVPKey@CPythonCharacterManager@@QAEXKK@Z
_TEXT	SEGMENT
_dwVIDSrc$ = 8						; size = 4
_dwVIDDst$ = 12						; size = 4
?InsertPVPKey@CPythonCharacterManager@@QAEXKK@Z PROC	; CPythonCharacterManager::InsertPVPKey, COMDAT
; _this$ = ecx

; 59   : {

  00000	55		 push	 ebp
  00001	8b ec		 mov	 ebp, esp
  00003	57		 push	 edi

; 60   : 	CInstanceBase::InsertPVPKey(dwVIDSrc, dwVIDDst);

  00004	ff 75 0c	 push	 DWORD PTR _dwVIDDst$[ebp]
  00007	8b f9		 mov	 edi, ecx
  00009	ff 75 08	 push	 DWORD PTR _dwVIDSrc$[ebp]
  0000c	e8 00 00 00 00	 call	 ?InsertPVPKey@CInstanceBase@@SAXKK@Z ; CInstanceBase::InsertPVPKey

; 61   : 
; 62   : 	CInstanceBase* pkInstSrc=GetInstancePtr(dwVIDSrc);

  00011	8b 47 04	 mov	 eax, DWORD PTR [edi+4]
  00014	8d 4f 04	 lea	 ecx, DWORD PTR [edi+4]
  00017	83 c4 08	 add	 esp, 8
  0001a	ff 75 08	 push	 DWORD PTR _dwVIDSrc$[ebp]
  0001d	ff 50 08	 call	 DWORD PTR [eax+8]

; 63   : 	if (pkInstSrc)

  00020	85 c0		 test	 eax, eax
  00022	74 07		 je	 SHORT $LN2@InsertPVPK

; 64   : 		pkInstSrc->RefreshTextTail();

  00024	8b c8		 mov	 ecx, eax
  00026	e8 00 00 00 00	 call	 ?RefreshTextTail@CInstanceBase@@QAEXXZ ; CInstanceBase::RefreshTextTail
$LN2@InsertPVPK:

; 65   : 
; 66   : 	CInstanceBase* pkInstDst=GetInstancePtr(dwVIDDst);

  0002b	8b 47 04	 mov	 eax, DWORD PTR [edi+4]
  0002e	8d 4f 04	 lea	 ecx, DWORD PTR [edi+4]
  00031	ff 75 0c	 push	 DWORD PTR _dwVIDDst$[ebp]
  00034	ff 50 08	 call	 DWORD PTR [eax+8]
  00037	5f		 pop	 edi

; 67   : 	if (pkInstDst)

  00038	85 c0		 test	 eax, eax
  0003a	74 07		 je	 SHORT $LN3@InsertPVPK

; 68   : 		pkInstDst->RefreshTextTail();

  0003c	8b c8		 mov	 ecx, eax
  0003e	e8 00 00 00 00	 call	 ?RefreshTextTail@CInstanceBase@@QAEXXZ ; CInstanceBase::RefreshTextTail
$LN3@InsertPVPK:

; 69   : }

  00043	5d		 pop	 ebp
  00044	c2 08 00	 ret	 8
?InsertPVPKey@CPythonCharacterManager@@QAEXKK@Z ENDP	; CPythonCharacterManager::InsertPVPKey
_TEXT	ENDS
; Function compile flags: /Ogtp
; File D:\Metin2 Server Files\mainline\SRC_2014\Metin2Client\UserInterface\PythonCharacterManager.cpp
;	COMDAT ?FindClickableInstancePtr@CPythonCharacterManager@@QAEPAVCInstanceBase@@XZ
_TEXT	SEGMENT
?FindClickableInstancePtr@CPythonCharacterManager@@QAEPAVCInstanceBase@@XZ PROC ; CPythonCharacterManager::FindClickableInstancePtr, COMDAT
; _this$ = ecx

; 674  : 	return NULL;

  00000	33 c0		 xor	 eax, eax

; 675  : }

  00002	c3		 ret	 0
?FindClickableInstancePtr@CPythonCharacterManager@@QAEPAVCInstanceBase@@XZ ENDP ; CPythonCharacterManager::FindClickableInstancePtr
_TEXT	ENDS
; Function compile flags: /Ogtp
; File D:\Metin2 Server Files\mainline\SRC_2014\Metin2Client\UserInterface\PythonCharacterManager.cpp
;	COMDAT ?OLD_GetPickedInstPosReference@CPythonCharacterManager@@QAEAAUD3DXVECTOR2@@XZ
_TEXT	SEGMENT
?OLD_GetPickedInstPosReference@CPythonCharacterManager@@QAEAAUD3DXVECTOR2@@XZ PROC ; CPythonCharacterManager::OLD_GetPickedInstPosReference, COMDAT
; _this$ = ecx

; 396  : 	return m_v2PickedInstProjPos;

  00000	8d 41 18	 lea	 eax, DWORD PTR [ecx+24]

; 397  : }

  00003	c3		 ret	 0
?OLD_GetPickedInstPosReference@CPythonCharacterManager@@QAEAAUD3DXVECTOR2@@XZ ENDP ; CPythonCharacterManager::OLD_GetPickedInstPosReference
_TEXT	ENDS
; Function compile flags: /Ogtp
; File D:\Metin2 Server Files\mainline\SRC_2014\Metin2Client\UserInterface\PythonCharacterManager.cpp
;	COMDAT ?OLD_GetPickedInstancePtr@CPythonCharacterManager@@QAEPAVCInstanceBase@@XZ
_TEXT	SEGMENT
?OLD_GetPickedInstancePtr@CPythonCharacterManager@@QAEPAVCInstanceBase@@XZ PROC ; CPythonCharacterManager::OLD_GetPickedInstancePtr, COMDAT
; _this$ = ecx

; 391  : 	return m_pkInstPick;

  00000	8b 41 10	 mov	 eax, DWORD PTR [ecx+16]

; 392  : }

  00003	c3		 ret	 0
?OLD_GetPickedInstancePtr@CPythonCharacterManager@@QAEPAVCInstanceBase@@XZ ENDP ; CPythonCharacterManager::OLD_GetPickedInstancePtr
_TEXT	ENDS
; Function compile flags: /Ogtp
; File D:\Metin2 Server Files\mainline\SRC_2014\Metin2Client\UserInterface\PythonCharacterManager.cpp
;	COMDAT ?OLD_GetPickedInstanceVID@CPythonCharacterManager@@QAE_NPAK@Z
_TEXT	SEGMENT
_pdwPickedActorID$ = 8					; size = 4
?OLD_GetPickedInstanceVID@CPythonCharacterManager@@QAE_NPAK@Z PROC ; CPythonCharacterManager::OLD_GetPickedInstanceVID, COMDAT
; _this$ = ecx

; 381  : {

  00000	55		 push	 ebp
  00001	8b ec		 mov	 ebp, esp

; 382  : 	if (!m_pkInstPick)

  00003	8b 49 10	 mov	 ecx, DWORD PTR [ecx+16]
  00006	85 c9		 test	 ecx, ecx
  00008	75 06		 jne	 SHORT $LN2@OLD_GetPic

; 383  : 		return false;

  0000a	32 c0		 xor	 al, al

; 387  : }

  0000c	5d		 pop	 ebp
  0000d	c2 04 00	 ret	 4
$LN2@OLD_GetPic:

; 384  : 		
; 385  : 	*pdwPickedActorID=m_pkInstPick->GetVirtualID();

  00010	e8 00 00 00 00	 call	 ?GetVirtualID@CInstanceBase@@QAEKXZ ; CInstanceBase::GetVirtualID
  00015	8b 4d 08	 mov	 ecx, DWORD PTR _pdwPickedActorID$[ebp]
  00018	89 01		 mov	 DWORD PTR [ecx], eax

; 386  : 	return true;

  0001a	b0 01		 mov	 al, 1

; 387  : }

  0001c	5d		 pop	 ebp
  0001d	c2 04 00	 ret	 4
?OLD_GetPickedInstanceVID@CPythonCharacterManager@@QAE_NPAK@Z ENDP ; CPythonCharacterManager::OLD_GetPickedInstanceVID
_TEXT	ENDS
; Function compile flags: /Ogtp
; File D:\Metin2 Server Files\mainline\SRC_2014\Metin2Client\UserInterface\PythonCharacterManager.cpp
;	COMDAT ?IsCacheMode@CPythonCharacterManager@@QAE_NXZ
_TEXT	SEGMENT
?IsCacheMode@CPythonCharacterManager@@QAE_NXZ PROC	; CPythonCharacterManager::IsCacheMode, COMDAT
; _this$ = ecx

; 132  : {

  00000	8a 15 00 00 00
	00		 mov	 dl, BYTE PTR ?s_isOldCacheMode@?1??IsCacheMode@CPythonCharacterManager@@QAE_NXZ@4_NA
  00006	56		 push	 esi

; 133  : 	static bool s_isOldCacheMode=false;
; 134  : 
; 135  : 	bool isCacheMode=s_isOldCacheMode;

  00007	8b 71 24	 mov	 esi, DWORD PTR [ecx+36]
  0000a	84 d2		 test	 dl, dl

; 136  : 	if (s_isOldCacheMode)

  0000c	74 12		 je	 SHORT $LN2@IsCacheMod

; 137  : 	{
; 138  : 		if (m_kAliveInstMap.size()<30)
; 139  : 			isCacheMode=false;
; 140  : 	}

  0000e	33 c0		 xor	 eax, eax
  00010	0f b6 ca	 movzx	 ecx, dl
  00013	83 fe 1e	 cmp	 esi, 30			; 0000001eH
  00016	5e		 pop	 esi
  00017	0f 43 c1	 cmovae	 eax, ecx

; 144  : 			isCacheMode=true;
; 145  : 	}
; 146  : 	s_isOldCacheMode=isCacheMode;
; 147  : 
; 148  : 	return isCacheMode;
; 149  : }

  0001a	a2 00 00 00 00	 mov	 BYTE PTR ?s_isOldCacheMode@?1??IsCacheMode@CPythonCharacterManager@@QAE_NXZ@4_NA, al
  0001f	c3		 ret	 0
$LN2@IsCacheMod:

; 141  : 	else
; 142  : 	{
; 143  : 		if (m_kAliveInstMap.size()>40)

  00020	83 fe 28	 cmp	 esi, 40			; 00000028H
  00023	0f b6 c2	 movzx	 eax, dl
  00026	b9 01 00 00 00	 mov	 ecx, 1
  0002b	0f 47 c1	 cmova	 eax, ecx

; 144  : 			isCacheMode=true;
; 145  : 	}
; 146  : 	s_isOldCacheMode=isCacheMode;
; 147  : 
; 148  : 	return isCacheMode;
; 149  : }

  0002e	a2 00 00 00 00	 mov	 BYTE PTR ?s_isOldCacheMode@?1??IsCacheMode@CPythonCharacterManager@@QAE_NXZ@4_NA, al
  00033	5e		 pop	 esi
  00034	c3		 ret	 0
?IsCacheMode@CPythonCharacterManager@@QAE_NXZ ENDP	; CPythonCharacterManager::IsCacheMode
_TEXT	ENDS
; Function compile flags: /Ogtp
; File D:\Metin2 Server Files\mainline\SRC_2014\Metin2Client\UserInterface\PythonCharacterManager.cpp
; File C:\Program Files (x86)\Microsoft Visual Studio\2019\Community\VC\Tools\MSVC\14.28.29333\include\list
; File D:\Metin2 Server Files\mainline\SRC_2014\Metin2Client\UserInterface\PythonCharacterManager.cpp
; File C:\Program Files (x86)\Microsoft Visual Studio\2019\Community\VC\Tools\MSVC\14.28.29333\include\list
; File D:\Metin2 Server Files\mainline\SRC_2014\Metin2Client\UserInterface\PythonCharacterManager.cpp
;	COMDAT ?IsDeadVID@CPythonCharacterManager@@QAE_NK@Z
_TEXT	SEGMENT
_dwVID$ = 8						; size = 4
?IsDeadVID@CPythonCharacterManager@@QAE_NK@Z PROC	; CPythonCharacterManager::IsDeadVID, COMDAT
; _this$ = ecx

; 413  : {

  00000	55		 push	 ebp
  00001	8b ec		 mov	 ebp, esp
  00003	53		 push	 ebx
  00004	56		 push	 esi
  00005	57		 push	 edi
  00006	8b f9		 mov	 edi, ecx
; File C:\Program Files (x86)\Microsoft Visual Studio\2019\Community\VC\Tools\MSVC\14.28.29333\include\list

; 1092 :         return iterator(_Mypair._Myval2._Myhead->_Next, _STD addressof(_Mypair._Myval2));

  00008	8b 47 28	 mov	 eax, DWORD PTR [edi+40]

; 39   :     _List_unchecked_const_iterator(_Nodeptr _Pnode, const _Mylist* _Plist) noexcept : _Ptr(_Pnode) {

  0000b	8b 30		 mov	 esi, DWORD PTR [eax]
  0000d	3b f0		 cmp	 esi, eax
; File D:\Metin2 Server Files\mainline\SRC_2014\Metin2Client\UserInterface\PythonCharacterManager.cpp

; 414  : 	for (TCharacterInstanceList::iterator f=m_kDeadInstList.begin(); f!=m_kDeadInstList.end(); ++f)

  0000f	74 16		 je	 SHORT $LN3@IsDeadVID
  00011	8b 5d 08	 mov	 ebx, DWORD PTR _dwVID$[ebp]
$LL18@IsDeadVID:

; 415  : 	{
; 416  : 		if ((*f)->GetVirtualID()==dwVID)

  00014	8b 4e 08	 mov	 ecx, DWORD PTR [esi+8]
  00017	e8 00 00 00 00	 call	 ?GetVirtualID@CInstanceBase@@QAEKXZ ; CInstanceBase::GetVirtualID
  0001c	3b c3		 cmp	 eax, ebx
  0001e	74 10		 je	 SHORT $LN36@IsDeadVID
; File C:\Program Files (x86)\Microsoft Visual Studio\2019\Community\VC\Tools\MSVC\14.28.29333\include\list

; 166  :         this->_Ptr = this->_Ptr->_Next;

  00020	8b 36		 mov	 esi, DWORD PTR [esi]

; 199  :         return this->_Ptr == _Right._Ptr;

  00022	3b 77 28	 cmp	 esi, DWORD PTR [edi+40]
; File D:\Metin2 Server Files\mainline\SRC_2014\Metin2Client\UserInterface\PythonCharacterManager.cpp

; 414  : 	for (TCharacterInstanceList::iterator f=m_kDeadInstList.begin(); f!=m_kDeadInstList.end(); ++f)

  00025	75 ed		 jne	 SHORT $LL18@IsDeadVID
$LN3@IsDeadVID:
  00027	5f		 pop	 edi

; 417  : 			return true;
; 418  : 	}
; 419  : 
; 420  : 	return false;
; 421  : }

  00028	5e		 pop	 esi
  00029	32 c0		 xor	 al, al
  0002b	5b		 pop	 ebx
  0002c	5d		 pop	 ebp
  0002d	c2 04 00	 ret	 4
$LN36@IsDeadVID:
  00030	5f		 pop	 edi
  00031	5e		 pop	 esi
  00032	b0 01		 mov	 al, 1
  00034	5b		 pop	 ebx
  00035	5d		 pop	 ebp
  00036	c2 04 00	 ret	 4
?IsDeadVID@CPythonCharacterManager@@QAE_NK@Z ENDP	; CPythonCharacterManager::IsDeadVID
_TEXT	ENDS
; Function compile flags: /Ogtp
; File D:\Metin2 Server Files\mainline\SRC_2014\Metin2Client\UserInterface\PythonCharacterManager.cpp
; File C:\Program Files (x86)\Microsoft Visual Studio\2019\Community\VC\Tools\MSVC\14.28.29333\include\xtree
; File C:\Program Files (x86)\Microsoft Visual Studio\2019\Community\VC\Tools\MSVC\14.28.29333\include\xstddef
; File C:\Program Files (x86)\Microsoft Visual Studio\2019\Community\VC\Tools\MSVC\14.28.29333\include\xtree
; File D:\Metin2 Server Files\mainline\SRC_2014\Metin2Client\UserInterface\PythonCharacterManager.cpp
; File C:\Program Files (x86)\Microsoft Visual Studio\2019\Community\VC\Tools\MSVC\14.28.29333\include\xtree
; File D:\Metin2 Server Files\mainline\SRC_2014\Metin2Client\UserInterface\PythonCharacterManager.cpp
;	COMDAT ?IsAliveVID@CPythonCharacterManager@@QAE_NK@Z
_TEXT	SEGMENT
__Loc$1 = -12						; size = 12
_dwVID$ = 8						; size = 4
?IsAliveVID@CPythonCharacterManager@@QAE_NK@Z PROC	; CPythonCharacterManager::IsAliveVID, COMDAT
; _this$ = ecx

; 408  : {

  00000	55		 push	 ebp
  00001	8b ec		 mov	 ebp, esp
  00003	83 ec 0c	 sub	 esp, 12			; 0000000cH
  00006	56		 push	 esi
; File C:\Program Files (x86)\Microsoft Visual Studio\2019\Community\VC\Tools\MSVC\14.28.29333\include\xtree

; 39   :     _Tree_unchecked_const_iterator(_Nodeptr _Pnode, const _Mytree* _Plist) noexcept : _Ptr(_Pnode) {

  00007	8b 71 20	 mov	 esi, DWORD PTR [ecx+32]

; 1458 :         const _Tree_find_result<_Nodeptr> _Loc = _Find_lower_bound(_Keyval);

  0000a	8d 45 08	 lea	 eax, DWORD PTR _dwVID$[ebp]

; 1250 :         return iterator(_Scary->_Myhead, _Scary);

  0000d	83 c1 20	 add	 ecx, 32			; 00000020H

; 1458 :         const _Tree_find_result<_Nodeptr> _Loc = _Find_lower_bound(_Keyval);

  00010	50		 push	 eax
  00011	8d 45 f4	 lea	 eax, DWORD PTR __Loc$1[ebp]
  00014	50		 push	 eax
  00015	e8 00 00 00 00	 call	 ??$_Find_lower_bound@K@?$_Tree@V?$_Tmap_traits@KPAVCInstanceBase@@U?$less@K@std@@V?$allocator@U?$pair@$$CBKPAVCInstanceBase@@@std@@@3@$0A@@std@@@std@@IBE?AU?$_Tree_find_result@PAU?$_Tree_node@U?$pair@$$CBKPAVCInstanceBase@@@std@@PAX@std@@@1@ABK@Z ; std::_Tree<std::_Tmap_traits<unsigned long,CInstanceBase *,std::less<unsigned long>,std::allocator<std::pair<unsigned long const ,CInstanceBase *> >,0> >::_Find_lower_bound<unsigned long>

; 1695 :         return !_Bound->_Isnil && !_DEBUG_LT_PRED(_Getcomp(), _Keyval, _Traits::_Kfn(_Bound->_Myval));

  0001a	8b 4d fc	 mov	 ecx, DWORD PTR __Loc$1[ebp+8]
  0001d	80 79 0d 00	 cmp	 BYTE PTR [ecx+13], 0
  00021	75 08		 jne	 SHORT $LN14@IsAliveVID
; File C:\Program Files (x86)\Microsoft Visual Studio\2019\Community\VC\Tools\MSVC\14.28.29333\include\xstddef

; 127  :         return _Left < _Right;

  00023	8b 45 08	 mov	 eax, DWORD PTR _dwVID$[ebp]
  00026	3b 41 10	 cmp	 eax, DWORD PTR [ecx+16]
; File C:\Program Files (x86)\Microsoft Visual Studio\2019\Community\VC\Tools\MSVC\14.28.29333\include\xtree

; 1695 :         return !_Bound->_Isnil && !_DEBUG_LT_PRED(_Getcomp(), _Keyval, _Traits::_Kfn(_Bound->_Myval));

  00029	73 02		 jae	 SHORT $LN13@IsAliveVID
$LN14@IsAliveVID:

; 1463 :         return _Get_scary()->_Myhead;

  0002b	8b ce		 mov	 ecx, esi
$LN13@IsAliveVID:

; 232  :         return this->_Ptr == _Right._Ptr;

  0002d	3b ce		 cmp	 ecx, esi
; File D:\Metin2 Server Files\mainline\SRC_2014\Metin2Client\UserInterface\PythonCharacterManager.cpp

; 409  : 	return m_kAliveInstMap.find(dwVID)!=m_kAliveInstMap.end();

  0002f	5e		 pop	 esi
; File C:\Program Files (x86)\Microsoft Visual Studio\2019\Community\VC\Tools\MSVC\14.28.29333\include\xtree

; 236  :         return !(*this == _Right);

  00030	0f 95 c0	 setne	 al
; File D:\Metin2 Server Files\mainline\SRC_2014\Metin2Client\UserInterface\PythonCharacterManager.cpp

; 410  : }

  00033	8b e5		 mov	 esp, ebp
  00035	5d		 pop	 ebp
  00036	c2 04 00	 ret	 4
?IsAliveVID@CPythonCharacterManager@@QAE_NK@Z ENDP	; CPythonCharacterManager::IsAliveVID
_TEXT	ENDS
; Function compile flags: /Ogtp
; File D:\Metin2 Server Files\mainline\SRC_2014\Metin2Client\UserInterface\PythonCharacterManager.cpp
; File C:\Program Files (x86)\Microsoft Visual Studio\2019\Community\VC\Tools\MSVC\14.28.29333\include\xtree
; File D:\Metin2 Server Files\mainline\SRC_2014\Metin2Client\UserInterface\PythonCharacterManager.cpp
; File C:\Program Files (x86)\Microsoft Visual Studio\2019\Community\VC\Tools\MSVC\14.28.29333\include\xtree
; File C:\Program Files (x86)\Microsoft Visual Studio\2019\Community\VC\Tools\MSVC\14.28.29333\include\xstddef
; File C:\Program Files (x86)\Microsoft Visual Studio\2019\Community\VC\Tools\MSVC\14.28.29333\include\xtree
; File D:\Metin2 Server Files\mainline\SRC_2014\Metin2Client\UserInterface\PythonCharacterManager.cpp
;	COMDAT ?IsRegisteredVID@CPythonCharacterManager@@QAE_NK@Z
_TEXT	SEGMENT
__Loc$1 = -12						; size = 12
_dwVID$ = 8						; size = 4
?IsRegisteredVID@CPythonCharacterManager@@QAE_NK@Z PROC	; CPythonCharacterManager::IsRegisteredVID, COMDAT
; _this$ = ecx

; 400  : {

  00000	55		 push	 ebp
  00001	8b ec		 mov	 ebp, esp
  00003	83 ec 0c	 sub	 esp, 12			; 0000000cH
  00006	56		 push	 esi
; File C:\Program Files (x86)\Microsoft Visual Studio\2019\Community\VC\Tools\MSVC\14.28.29333\include\xtree

; 1458 :         const _Tree_find_result<_Nodeptr> _Loc = _Find_lower_bound(_Keyval);

  00007	8d 45 08	 lea	 eax, DWORD PTR _dwVID$[ebp]
  0000a	50		 push	 eax
; File D:\Metin2 Server Files\mainline\SRC_2014\Metin2Client\UserInterface\PythonCharacterManager.cpp

; 401  : 	if (m_kAliveInstMap.end()==m_kAliveInstMap.find(dwVID))

  0000b	8d 71 20	 lea	 esi, DWORD PTR [ecx+32]
; File C:\Program Files (x86)\Microsoft Visual Studio\2019\Community\VC\Tools\MSVC\14.28.29333\include\xtree

; 1458 :         const _Tree_find_result<_Nodeptr> _Loc = _Find_lower_bound(_Keyval);

  0000e	8d 45 f4	 lea	 eax, DWORD PTR __Loc$1[ebp]
  00011	8b ce		 mov	 ecx, esi
  00013	50		 push	 eax
  00014	e8 00 00 00 00	 call	 ??$_Find_lower_bound@K@?$_Tree@V?$_Tmap_traits@KPAVCInstanceBase@@U?$less@K@std@@V?$allocator@U?$pair@$$CBKPAVCInstanceBase@@@std@@@3@$0A@@std@@@std@@IBE?AU?$_Tree_find_result@PAU?$_Tree_node@U?$pair@$$CBKPAVCInstanceBase@@@std@@PAX@std@@@1@ABK@Z ; std::_Tree<std::_Tmap_traits<unsigned long,CInstanceBase *,std::less<unsigned long>,std::allocator<std::pair<unsigned long const ,CInstanceBase *> >,0> >::_Find_lower_bound<unsigned long>

; 1695 :         return !_Bound->_Isnil && !_DEBUG_LT_PRED(_Getcomp(), _Keyval, _Traits::_Kfn(_Bound->_Myval));

  00019	8b 4d fc	 mov	 ecx, DWORD PTR __Loc$1[ebp+8]
  0001c	80 79 0d 00	 cmp	 BYTE PTR [ecx+13], 0
  00020	75 15		 jne	 SHORT $LN32@IsRegister
; File C:\Program Files (x86)\Microsoft Visual Studio\2019\Community\VC\Tools\MSVC\14.28.29333\include\xstddef

; 127  :         return _Left < _Right;

  00022	8b 45 08	 mov	 eax, DWORD PTR _dwVID$[ebp]
  00025	3b 41 10	 cmp	 eax, DWORD PTR [ecx+16]
; File C:\Program Files (x86)\Microsoft Visual Studio\2019\Community\VC\Tools\MSVC\14.28.29333\include\xtree

; 1695 :         return !_Bound->_Isnil && !_DEBUG_LT_PRED(_Getcomp(), _Keyval, _Traits::_Kfn(_Bound->_Myval));

  00028	72 0d		 jb	 SHORT $LN32@IsRegister

; 232  :         return this->_Ptr == _Right._Ptr;

  0002a	39 0e		 cmp	 DWORD PTR [esi], ecx
; File D:\Metin2 Server Files\mainline\SRC_2014\Metin2Client\UserInterface\PythonCharacterManager.cpp

; 401  : 	if (m_kAliveInstMap.end()==m_kAliveInstMap.find(dwVID))

  0002c	74 09		 je	 SHORT $LN32@IsRegister

; 403  : 
; 404  : 	return true;

  0002e	b0 01		 mov	 al, 1
  00030	5e		 pop	 esi

; 405  : }

  00031	8b e5		 mov	 esp, ebp
  00033	5d		 pop	 ebp
  00034	c2 04 00	 ret	 4
$LN32@IsRegister:

; 402  : 		return false;

  00037	32 c0		 xor	 al, al
  00039	5e		 pop	 esi

; 405  : }

  0003a	8b e5		 mov	 esp, ebp
  0003c	5d		 pop	 ebp
  0003d	c2 04 00	 ret	 4
?IsRegisteredVID@CPythonCharacterManager@@QAE_NK@Z ENDP	; CPythonCharacterManager::IsRegisteredVID
_TEXT	ENDS
; Function compile flags: /Ogtp
; File D:\Metin2 Server Files\mainline\SRC_2014\Metin2Client\UserInterface\PythonCharacterManager.cpp
;	COMDAT ?EnableSortRendering@CPythonCharacterManager@@QAEX_N@Z
_TEXT	SEGMENT
_isEnable$ = 8						; size = 1
?EnableSortRendering@CPythonCharacterManager@@QAEX_N@Z PROC ; CPythonCharacterManager::EnableSortRendering, COMDAT
; _this$ = ecx

; 56   : }

  00000	c2 04 00	 ret	 4
?EnableSortRendering@CPythonCharacterManager@@QAEX_N@Z ENDP ; CPythonCharacterManager::EnableSortRendering
_TEXT	ENDS
; Function compile flags: /Ogtp
; File D:\Metin2 Server Files\mainline\SRC_2014\Metin2Client\UserInterface\PythonCharacterManager.cpp
; File C:\Program Files (x86)\Microsoft Visual Studio\2019\Community\VC\Tools\MSVC\14.28.29333\include\xtree
; File D:\Metin2 Server Files\mainline\SRC_2014\Metin2Client\UserInterface\pythoncharactermanager.h
; File D:\Metin2 Server Files\mainline\SRC_2014\Metin2Client\UserInterface\PythonCharacterManager.cpp
; File C:\Program Files (x86)\Microsoft Visual Studio\2019\Community\VC\Tools\MSVC\14.28.29333\include\xtree
; File D:\Metin2 Server Files\mainline\SRC_2014\Metin2Client\UserInterface\PythonCharacterManager.cpp
;	COMDAT ?AdjustCollisionWithOtherObjects@CPythonCharacterManager@@UAEXPAVCActorInstance@@@Z
_TEXT	SEGMENT
_i$1 = -20						; size = 4
_curPos$2 = -16						; size = 12
__$ArrayPad$ = -4					; size = 4
_pInst$ = 8						; size = 4
?AdjustCollisionWithOtherObjects@CPythonCharacterManager@@UAEXPAVCActorInstance@@@Z PROC ; CPythonCharacterManager::AdjustCollisionWithOtherObjects, COMDAT
; _this$ = ecx

; 24   : {

  00000	55		 push	 ebp
  00001	8b ec		 mov	 ebp, esp
  00003	83 ec 14	 sub	 esp, 20			; 00000014H
  00006	a1 00 00 00 00	 mov	 eax, DWORD PTR ___security_cookie
  0000b	33 c5		 xor	 eax, ebp
  0000d	89 45 fc	 mov	 DWORD PTR __$ArrayPad$[ebp], eax
  00010	57		 push	 edi
  00011	8b 7d 08	 mov	 edi, DWORD PTR _pInst$[ebp]

; 25   : 	if( !pInst->IsPC() )

  00014	8b cf		 mov	 ecx, edi
  00016	e8 00 00 00 00	 call	 ?IsPC@CActorInstance@@QAE_NXZ ; CActorInstance::IsPC
  0001b	84 c0		 test	 al, al
  0001d	0f 84 92 00 00
	00		 je	 $LN60@AdjustColl

; 26   : 		return;
; 27   : 
; 28   : 	CPythonCharacterManager& rkChrMgr=CPythonCharacterManager::Instance();

  00023	53		 push	 ebx
  00024	8b 1d 00 00 00
	00		 mov	 ebx, DWORD PTR ?ms_singleton@?$CSingleton@VCPythonCharacterManager@@@@0PAVCPythonCharacterManager@@A ; CSingleton<CPythonCharacterManager>::ms_singleton
; File C:\Program Files (x86)\Microsoft Visual Studio\2019\Community\VC\Tools\MSVC\14.28.29333\include\xtree

; 1240 :         return iterator(_Scary->_Myhead->_Left, _Scary);

  0002a	8b 4b 20	 mov	 ecx, DWORD PTR [ebx+32]

; 39   :     _Tree_unchecked_const_iterator(_Nodeptr _Pnode, const _Mytree* _Plist) noexcept : _Ptr(_Pnode) {

  0002d	8b 01		 mov	 eax, DWORD PTR [ecx]
; File D:\Metin2 Server Files\mainline\SRC_2014\Metin2Client\UserInterface\pythoncharactermanager.h

; 132  : 			CharacterIterator(const TCharacterInstanceMap::iterator & it) : m_it(it) {}

  0002f	89 45 ec	 mov	 DWORD PTR _i$1[ebp], eax
  00032	3b c1		 cmp	 eax, ecx
; File D:\Metin2 Server Files\mainline\SRC_2014\Metin2Client\UserInterface\PythonCharacterManager.cpp

; 29   : 	for(CPythonCharacterManager::CharacterIterator i = rkChrMgr.CharacterInstanceBegin(); i!=rkChrMgr.CharacterInstanceEnd();++i)

  00034	74 7e		 je	 SHORT $LN61@AdjustColl
  00036	56		 push	 esi
$LL28@AdjustColl:

; 30   : 	{
; 31   : 		CInstanceBase*  pkInstEach=*i;
; 32   : 		CActorInstance* rkActorEach=pkInstEach->GetGraphicThingInstancePtr();

  00037	8b 48 14	 mov	 ecx, DWORD PTR [eax+20]
  0003a	e8 00 00 00 00	 call	 ?GetGraphicThingInstancePtr@CInstanceBase@@QAEPAVCActorInstance@@XZ ; CInstanceBase::GetGraphicThingInstancePtr
  0003f	8b f0		 mov	 esi, eax

; 33   : 
; 34   : 		if (rkActorEach==pInst)

  00041	3b f7		 cmp	 esi, edi
  00043	74 2d		 je	 SHORT $LN2@AdjustColl

; 35   : 			continue;
; 36   : 
; 37   : 		if( rkActorEach->IsPC() || rkActorEach->IsNPC() || rkActorEach->IsEnemy() )

  00045	8b ce		 mov	 ecx, esi
  00047	e8 00 00 00 00	 call	 ?IsPC@CActorInstance@@QAE_NXZ ; CActorInstance::IsPC
  0004c	84 c0		 test	 al, al
  0004e	75 22		 jne	 SHORT $LN2@AdjustColl
  00050	8b ce		 mov	 ecx, esi
  00052	e8 00 00 00 00	 call	 ?IsNPC@CActorInstance@@QAE_NXZ ; CActorInstance::IsNPC
  00057	84 c0		 test	 al, al
  00059	75 17		 jne	 SHORT $LN2@AdjustColl
  0005b	8b ce		 mov	 ecx, esi
  0005d	e8 00 00 00 00	 call	 ?IsEnemy@CActorInstance@@QAE_NXZ ; CActorInstance::IsEnemy
  00062	84 c0		 test	 al, al
  00064	75 0c		 jne	 SHORT $LN2@AdjustColl

; 38   : 			continue;
; 39   : 
; 40   : 		if(pInst->TestPhysicsBlendingCollision(*rkActorEach) )

  00066	56		 push	 esi
  00067	8b cf		 mov	 ecx, edi
  00069	e8 00 00 00 00	 call	 ?TestPhysicsBlendingCollision@CActorInstance@@QAEHAAV1@@Z ; CActorInstance::TestPhysicsBlendingCollision
  0006e	85 c0		 test	 eax, eax
  00070	75 23		 jne	 SHORT $LN56@AdjustColl
$LN2@AdjustColl:
; File C:\Program Files (x86)\Microsoft Visual Studio\2019\Community\VC\Tools\MSVC\14.28.29333\include\xtree

; 198  :         _Mybase::operator++();

  00072	8d 4d ec	 lea	 ecx, DWORD PTR _i$1[ebp]
  00075	e8 00 00 00 00	 call	 ??E?$_Tree_unchecked_const_iterator@V?$_Tree_val@U?$_Tree_simple_types@U?$pair@$$CBKPAVCInstanceBase@@@std@@@std@@@std@@U_Iterator_base0@2@@std@@QAEAAV01@XZ ; std::_Tree_unchecked_const_iterator<std::_Tree_val<std::_Tree_simple_types<std::pair<unsigned long const ,CInstanceBase *> > >,std::_Iterator_base0>::operator++

; 232  :         return this->_Ptr == _Right._Ptr;

  0007a	8b 45 ec	 mov	 eax, DWORD PTR _i$1[ebp]
  0007d	3b 43 20	 cmp	 eax, DWORD PTR [ebx+32]
; File D:\Metin2 Server Files\mainline\SRC_2014\Metin2Client\UserInterface\PythonCharacterManager.cpp

; 29   : 	for(CPythonCharacterManager::CharacterIterator i = rkChrMgr.CharacterInstanceBegin(); i!=rkChrMgr.CharacterInstanceEnd();++i)

  00080	75 b5		 jne	 SHORT $LL28@AdjustColl
  00082	5e		 pop	 esi
  00083	5b		 pop	 ebx
  00084	5f		 pop	 edi

; 47   : 			//Tracef("!!!!!! Collision Adjusted\n"); 
; 48   : 			break;
; 49   : 		}
; 50   : 	}
; 51   : }

  00085	8b 4d fc	 mov	 ecx, DWORD PTR __$ArrayPad$[ebp]
  00088	33 cd		 xor	 ecx, ebp
  0008a	e8 00 00 00 00	 call	 @__security_check_cookie@4
  0008f	8b e5		 mov	 esp, ebp
  00091	5d		 pop	 ebp
  00092	c2 04 00	 ret	 4
$LN56@AdjustColl:

; 41   : 		{
; 42   : 			// NOTE :   
; 43   : 			// TODO :     physic movement steping iteration .
; 44   : 			TPixelPosition curPos;
; 45   : 			pInst->GetPixelPosition(&curPos);

  00095	8d 45 f0	 lea	 eax, DWORD PTR _curPos$2[ebp]
  00098	8b cf		 mov	 ecx, edi
  0009a	50		 push	 eax
  0009b	e8 00 00 00 00	 call	 ?GetPixelPosition@CActorInstance@@QAEXPAUD3DXVECTOR3@@@Z ; CActorInstance::GetPixelPosition

; 46   : 			pInst->SetBlendingPosition(curPos);

  000a0	51		 push	 ecx
  000a1	8d 45 f0	 lea	 eax, DWORD PTR _curPos$2[ebp]
  000a4	c7 04 24 00 00
	80 3f		 mov	 DWORD PTR [esp], 1065353216 ; 3f800000H
  000ab	50		 push	 eax
  000ac	8b cf		 mov	 ecx, edi
  000ae	e8 00 00 00 00	 call	 ?SetBlendingPosition@CActorInstance@@QAEXABUD3DXVECTOR3@@M@Z ; CActorInstance::SetBlendingPosition
  000b3	5e		 pop	 esi
$LN61@AdjustColl:
  000b4	5b		 pop	 ebx
$LN60@AdjustColl:

; 47   : 			//Tracef("!!!!!! Collision Adjusted\n"); 
; 48   : 			break;
; 49   : 		}
; 50   : 	}
; 51   : }

  000b5	8b 4d fc	 mov	 ecx, DWORD PTR __$ArrayPad$[ebp]
  000b8	33 cd		 xor	 ecx, ebp
  000ba	5f		 pop	 edi
  000bb	e8 00 00 00 00	 call	 @__security_check_cookie@4
  000c0	8b e5		 mov	 esp, ebp
  000c2	5d		 pop	 ebp
  000c3	c2 04 00	 ret	 4
?AdjustCollisionWithOtherObjects@CPythonCharacterManager@@UAEXPAVCActorInstance@@@Z ENDP ; CPythonCharacterManager::AdjustCollisionWithOtherObjects
_TEXT	ENDS
; Function compile flags: /Ogtp
; File D:\Metin2 Server Files\mainline\SRC_2014\Metin2Client\UserInterface\PythonCharacterManager.cpp
; File C:\Program Files (x86)\Microsoft Visual Studio\2019\Community\VC\Tools\MSVC\14.28.29333\include\vector
; File C:\Program Files (x86)\Microsoft Visual Studio\2019\Community\VC\Tools\MSVC\14.28.29333\include\xmemory
; File C:\Program Files (x86)\Microsoft Visual Studio\2019\Community\VC\Tools\MSVC\14.28.29333\include\vector
; File C:\Program Files (x86)\Microsoft Visual Studio\2019\Community\VC\Tools\MSVC\14.28.29333\include\xmemory
; File C:\Program Files (x86)\Microsoft Visual Studio\2019\Community\VC\Tools\MSVC\14.28.29333\include\vector
; File C:\Program Files (x86)\Microsoft Visual Studio\2019\Community\VC\Tools\MSVC\14.28.29333\include\list
; File C:\Program Files (x86)\Microsoft Visual Studio\2019\Community\VC\Tools\MSVC\14.28.29333\include\xmemory
; File C:\Program Files (x86)\Microsoft Visual Studio\2019\Community\VC\Tools\MSVC\14.28.29333\include\list
; File C:\Program Files (x86)\Microsoft Visual Studio\2019\Community\VC\Tools\MSVC\14.28.29333\include\xmemory
; File D:\Metin2 Server Files\mainline\SRC_2014\Metin2Client\UserInterface\PythonCharacterManager.cpp
; File D:\Metin2 Server Files\mainline\SRC_2014\Metin2Client\gamelib\PhysicsObject.h
; File D:\Metin2 Server Files\mainline\SRC_2014\Metin2Client\UserInterface\AbstractSingleton.h
; File D:\Metin2 Server Files\mainline\SRC_2014\Metin2Client\eterBase\Singleton.h
; File D:\Metin2 Server Files\mainline\SRC_2014\Metin2Client\UserInterface\PythonCharacterManager.cpp
;	COMDAT ??1CPythonCharacterManager@@UAE@XZ
_TEXT	SEGMENT
__$EHRec$ = -12						; size = 12
??1CPythonCharacterManager@@UAE@XZ PROC			; CPythonCharacterManager::~CPythonCharacterManager, COMDAT
; _this$ = ecx

; 963  : {

  00000	55		 push	 ebp
  00001	8b ec		 mov	 ebp, esp
  00003	6a ff		 push	 -1
  00005	68 00 00 00 00	 push	 __ehhandler$??1CPythonCharacterManager@@UAE@XZ
  0000a	64 a1 00 00 00
	00		 mov	 eax, DWORD PTR fs:0
  00010	50		 push	 eax
  00011	53		 push	 ebx
  00012	56		 push	 esi
  00013	57		 push	 edi
  00014	a1 00 00 00 00	 mov	 eax, DWORD PTR ___security_cookie
  00019	33 c5		 xor	 eax, ebp
  0001b	50		 push	 eax
  0001c	8d 45 f4	 lea	 eax, DWORD PTR __$EHRec$[ebp]
  0001f	64 a3 00 00 00
	00		 mov	 DWORD PTR fs:0, eax
  00025	8b f9		 mov	 edi, ecx
  00027	8d 77 08	 lea	 esi, DWORD PTR [edi+8]
  0002a	c7 07 00 00 00
	00		 mov	 DWORD PTR [edi], OFFSET ??_7CPythonCharacterManager@@6B?$CSingleton@VCPythonCharacterManager@@@@@

; 964  : 	Destroy();

  00030	8d 4f 04	 lea	 ecx, DWORD PTR [edi+4]
  00033	c7 47 04 00 00
	00 00		 mov	 DWORD PTR [edi+4], OFFSET ??_7CPythonCharacterManager@@6BIAbstractCharacterManager@@@
  0003a	c7 06 00 00 00
	00		 mov	 DWORD PTR [esi], OFFSET ??_7CPythonCharacterManager@@6BIObjectManager@@@
  00040	e8 00 00 00 00	 call	 ?Destroy@CPythonCharacterManager@@UAEXXZ ; CPythonCharacterManager::Destroy
; File C:\Program Files (x86)\Microsoft Visual Studio\2019\Community\VC\Tools\MSVC\14.28.29333\include\vector

; 1694 :         if (_Myfirst) { // destroy and deallocate old array

  00045	8b 4f 30	 mov	 ecx, DWORD PTR [edi+48]
  00048	85 c9		 test	 ecx, ecx
  0004a	74 27		 je	 SHORT $LN6@CPythonCha

; 1695 :             _Destroy(_Myfirst, _Mylast);
; 1696 :             _Getal().deallocate(_Myfirst, static_cast<size_type>(_Myend - _Myfirst));

  0004c	8b 47 38	 mov	 eax, DWORD PTR [edi+56]
  0004f	2b c1		 sub	 eax, ecx
; File C:\Program Files (x86)\Microsoft Visual Studio\2019\Community\VC\Tools\MSVC\14.28.29333\include\xmemory

; 810  :         _Deallocate<_New_alignof<_Ty>>(_Ptr, sizeof(_Ty) * _Count);

  00051	83 e0 fc	 and	 eax, -4			; fffffffcH
  00054	50		 push	 eax
  00055	51		 push	 ecx
  00056	e8 00 00 00 00	 call	 ??$_Deallocate@$07$0A@@std@@YAXPAXI@Z ; std::_Deallocate<8,0>
; File C:\Program Files (x86)\Microsoft Visual Studio\2019\Community\VC\Tools\MSVC\14.28.29333\include\vector

; 1698 :             _Myfirst = pointer();

  0005b	c7 47 30 00 00
	00 00		 mov	 DWORD PTR [edi+48], 0
; File C:\Program Files (x86)\Microsoft Visual Studio\2019\Community\VC\Tools\MSVC\14.28.29333\include\xmemory

; 810  :         _Deallocate<_New_alignof<_Ty>>(_Ptr, sizeof(_Ty) * _Count);

  00062	83 c4 08	 add	 esp, 8
; File C:\Program Files (x86)\Microsoft Visual Studio\2019\Community\VC\Tools\MSVC\14.28.29333\include\vector

; 1699 :             _Mylast  = pointer();

  00065	c7 47 34 00 00
	00 00		 mov	 DWORD PTR [edi+52], 0

; 1700 :             _Myend   = pointer();

  0006c	c7 47 38 00 00
	00 00		 mov	 DWORD PTR [edi+56], 0
$LN6@CPythonCha:
; File C:\Program Files (x86)\Microsoft Visual Studio\2019\Community\VC\Tools\MSVC\14.28.29333\include\list

; 1440 :         _Node::_Free_non_head(_Al, _My_data._Myhead);

  00073	8b 4f 28	 mov	 ecx, DWORD PTR [edi+40]

; 324  :         _Head->_Prev->_Next = nullptr;

  00076	8b 41 04	 mov	 eax, DWORD PTR [ecx+4]
  00079	c7 00 00 00 00
	00		 mov	 DWORD PTR [eax], 0

; 325  : 
; 326  :         auto _Pnode = _Head->_Next;

  0007f	8b 01		 mov	 eax, DWORD PTR [ecx]

; 327  :         for (_Nodeptr _Pnext; _Pnode; _Pnode = _Pnext) {

  00081	85 c0		 test	 eax, eax
  00083	74 16		 je	 SHORT $LN16@CPythonCha
$LL17@CPythonCha:

; 328  :             _Pnext = _Pnode->_Next;

  00085	8b 30		 mov	 esi, DWORD PTR [eax]
; File C:\Program Files (x86)\Microsoft Visual Studio\2019\Community\VC\Tools\MSVC\14.28.29333\include\xmemory

; 696  :         _Deallocate<_New_alignof<value_type>>(_Ptr, sizeof(value_type) * _Count);

  00087	6a 0c		 push	 12			; 0000000cH
  00089	50		 push	 eax
  0008a	e8 00 00 00 00	 call	 ??$_Deallocate@$07$0A@@std@@YAXPAXI@Z ; std::_Deallocate<8,0>
  0008f	83 c4 08	 add	 esp, 8
; File C:\Program Files (x86)\Microsoft Visual Studio\2019\Community\VC\Tools\MSVC\14.28.29333\include\list

; 327  :         for (_Nodeptr _Pnext; _Pnode; _Pnode = _Pnext) {

  00092	8b c6		 mov	 eax, esi
  00094	85 f6		 test	 esi, esi
  00096	75 ed		 jne	 SHORT $LL17@CPythonCha
  00098	8d 77 08	 lea	 esi, DWORD PTR [edi+8]
$LN16@CPythonCha:
; File C:\Program Files (x86)\Microsoft Visual Studio\2019\Community\VC\Tools\MSVC\14.28.29333\include\xmemory

; 696  :         _Deallocate<_New_alignof<value_type>>(_Ptr, sizeof(value_type) * _Count);

  0009b	6a 0c		 push	 12			; 0000000cH
  0009d	ff 77 28	 push	 DWORD PTR [edi+40]
  000a0	e8 00 00 00 00	 call	 ??$_Deallocate@$07$0A@@std@@YAXPAXI@Z ; std::_Deallocate<8,0>
  000a5	83 c4 08	 add	 esp, 8
; File D:\Metin2 Server Files\mainline\SRC_2014\Metin2Client\UserInterface\PythonCharacterManager.cpp

; 965  : }

  000a8	8d 4f 20	 lea	 ecx, DWORD PTR [edi+32]
  000ab	e8 00 00 00 00	 call	 ??1?$_Tree@V?$_Tmap_traits@KPAVCInstanceBase@@U?$less@K@std@@V?$allocator@U?$pair@$$CBKPAVCInstanceBase@@@std@@@3@$0A@@std@@@std@@QAE@XZ ; std::_Tree<std::_Tmap_traits<unsigned long,CInstanceBase *,std::less<unsigned long>,std::allocator<std::pair<unsigned long const ,CInstanceBase *> >,0> >::~_Tree<std::_Tmap_traits<unsigned long,CInstanceBase *,std::less<unsigned long>,std::allocator<std::pair<unsigned long const ,CInstanceBase *> >,0> >
; File D:\Metin2 Server Files\mainline\SRC_2014\Metin2Client\gamelib\PhysicsObject.h

; 44   : 	{

  000b0	c7 06 00 00 00
	00		 mov	 DWORD PTR [esi], OFFSET ??_7IObjectManager@@6B@

; 45   : 		if (this == ms_ObjManager) 

  000b6	33 c9		 xor	 ecx, ecx
  000b8	a1 00 00 00 00	 mov	 eax, DWORD PTR ?ms_ObjManager@IObjectManager@@0PAV1@A ; IObjectManager::ms_ObjManager
  000bd	3b f0		 cmp	 esi, eax
  000bf	0f 44 c1	 cmove	 eax, ecx
  000c2	a3 00 00 00 00	 mov	 DWORD PTR ?ms_ObjManager@IObjectManager@@0PAV1@A, eax ; IObjectManager::ms_ObjManager
; File D:\Metin2 Server Files\mainline\SRC_2014\Metin2Client\UserInterface\AbstractSingleton.h

; 17   : 	{ 

  000c7	c7 47 04 00 00
	00 00		 mov	 DWORD PTR [edi+4], OFFSET ??_7?$TAbstractSingleton@VIAbstractCharacterManager@@@@6B@

; 18   : 		assert(ms_singleton);
; 19   : 		ms_singleton = 0; 

  000ce	89 0d 00 00 00
	00		 mov	 DWORD PTR ?ms_singleton@?$TAbstractSingleton@VIAbstractCharacterManager@@@@0PAVIAbstractCharacterManager@@A, ecx ; TAbstractSingleton<IAbstractCharacterManager>::ms_singleton
; File D:\Metin2 Server Files\mainline\SRC_2014\Metin2Client\eterBase\Singleton.h

; 19   : 	{ 

  000d4	c7 07 00 00 00
	00		 mov	 DWORD PTR [edi], OFFSET ??_7?$CSingleton@VCPythonCharacterManager@@@@6B@

; 20   : 		assert(ms_singleton);
; 21   : 		ms_singleton = 0; 

  000da	89 0d 00 00 00
	00		 mov	 DWORD PTR ?ms_singleton@?$CSingleton@VCPythonCharacterManager@@@@0PAVCPythonCharacterManager@@A, ecx ; CSingleton<CPythonCharacterManager>::ms_singleton
; File D:\Metin2 Server Files\mainline\SRC_2014\Metin2Client\UserInterface\PythonCharacterManager.cpp

; 965  : }

  000e0	8b 4d f4	 mov	 ecx, DWORD PTR __$EHRec$[ebp]
  000e3	64 89 0d 00 00
	00 00		 mov	 DWORD PTR fs:0, ecx
  000ea	59		 pop	 ecx
  000eb	5f		 pop	 edi
  000ec	5e		 pop	 esi
  000ed	5b		 pop	 ebx
  000ee	8b e5		 mov	 esp, ebp
  000f0	5d		 pop	 ebp
  000f1	c3		 ret	 0
  000f2	cc		 int	 3
  000f3	cc		 int	 3
  000f4	cc		 int	 3
  000f5	cc		 int	 3
  000f6	cc		 int	 3
_TEXT	ENDS
;	COMDAT text$x
text$x	SEGMENT
__ehhandler$??1CPythonCharacterManager@@UAE@XZ:
  00000	90		 npad	 1
  00001	90		 npad	 1
  00002	8b 54 24 08	 mov	 edx, DWORD PTR [esp+8]
  00006	8d 42 0c	 lea	 eax, DWORD PTR [edx+12]
  00009	8b 4a f0	 mov	 ecx, DWORD PTR [edx-16]
  0000c	33 c8		 xor	 ecx, eax
  0000e	e8 00 00 00 00	 call	 @__security_check_cookie@4
  00013	b8 00 00 00 00	 mov	 eax, OFFSET __ehfuncinfo$??1CPythonCharacterManager@@UAE@XZ
  00018	e9 00 00 00 00	 jmp	 ___CxxFrameHandler3
text$x	ENDS
??1CPythonCharacterManager@@UAE@XZ ENDP			; CPythonCharacterManager::~CPythonCharacterManager
; Function compile flags: /Ogtp
; File D:\Metin2 Server Files\mainline\SRC_2014\Metin2Client\UserInterface\PythonCharacterManager.cpp
; File D:\Metin2 Server Files\mainline\SRC_2014\Metin2Client\eterBase\Singleton.h
; File D:\Metin2 Server Files\mainline\SRC_2014\Metin2Client\UserInterface\PythonCharacterManager.cpp
; File D:\Metin2 Server Files\mainline\SRC_2014\Metin2Client\UserInterface\AbstractSingleton.h
; File D:\Metin2 Server Files\mainline\SRC_2014\Metin2Client\UserInterface\AbstractCharacterManager.h
; File D:\Metin2 Server Files\mainline\SRC_2014\Metin2Client\UserInterface\PythonCharacterManager.cpp
; File D:\Metin2 Server Files\mainline\SRC_2014\Metin2Client\gamelib\PhysicsObject.h
; File D:\Metin2 Server Files\mainline\SRC_2014\Metin2Client\UserInterface\PythonCharacterManager.cpp
; File C:\Program Files (x86)\Microsoft Visual Studio\2019\Community\VC\Tools\MSVC\14.28.29333\include\xmemory
; File D:\Metin2 Server Files\mainline\SRC_2014\Metin2Client\UserInterface\PythonCharacterManager.cpp
; File C:\Program Files (x86)\Microsoft Visual Studio\2019\Community\VC\Tools\MSVC\14.28.29333\include\xtree
; File C:\Program Files (x86)\Microsoft Visual Studio\2019\Community\VC\Tools\MSVC\14.28.29333\include\xmemory
; File C:\Program Files (x86)\Microsoft Visual Studio\2019\Community\VC\Tools\MSVC\14.28.29333\include\xtree
; File C:\Program Files (x86)\Microsoft Visual Studio\2019\Community\VC\Tools\MSVC\14.28.29333\include\xmemory
; File D:\Metin2 Server Files\mainline\SRC_2014\Metin2Client\UserInterface\PythonCharacterManager.cpp
; File C:\Program Files (x86)\Microsoft Visual Studio\2019\Community\VC\Tools\MSVC\14.28.29333\include\list
; File C:\Program Files (x86)\Microsoft Visual Studio\2019\Community\VC\Tools\MSVC\14.28.29333\include\xmemory
; File C:\Program Files (x86)\Microsoft Visual Studio\2019\Community\VC\Tools\MSVC\14.28.29333\include\list
; File D:\Metin2 Server Files\mainline\SRC_2014\Metin2Client\UserInterface\PythonCharacterManager.cpp
; File C:\Program Files (x86)\Microsoft Visual Studio\2019\Community\VC\Tools\MSVC\14.28.29333\include\vector
; File D:\Metin2 Server Files\mainline\SRC_2014\Metin2Client\UserInterface\PythonCharacterManager.cpp
;	COMDAT ??0CPythonCharacterManager@@QAE@XZ
_TEXT	SEGMENT
_this$ = -20						; size = 4
__Newhead$2 = -16					; size = 4
__Pnode$3 = -16						; size = 4
_this$ = -16						; size = 4
__$EHRec$ = -12						; size = 12
??0CPythonCharacterManager@@QAE@XZ PROC			; CPythonCharacterManager::CPythonCharacterManager, COMDAT
; _this$ = ecx

; 958  : {

  00000	55		 push	 ebp
  00001	8b ec		 mov	 ebp, esp
  00003	6a ff		 push	 -1
  00005	68 00 00 00 00	 push	 __ehhandler$??0CPythonCharacterManager@@QAE@XZ
  0000a	64 a1 00 00 00
	00		 mov	 eax, DWORD PTR fs:0
  00010	50		 push	 eax
  00011	83 ec 08	 sub	 esp, 8
  00014	53		 push	 ebx
  00015	56		 push	 esi
  00016	57		 push	 edi
  00017	a1 00 00 00 00	 mov	 eax, DWORD PTR ___security_cookie
  0001c	33 c5		 xor	 eax, ebp
  0001e	50		 push	 eax
  0001f	8d 45 f4	 lea	 eax, DWORD PTR __$EHRec$[ebp]
  00022	64 a3 00 00 00
	00		 mov	 DWORD PTR fs:0, eax
  00028	8b d9		 mov	 ebx, ecx
  0002a	89 5d ec	 mov	 DWORD PTR _this$[ebp], ebx
; File D:\Metin2 Server Files\mainline\SRC_2014\Metin2Client\eterBase\Singleton.h

; 15   : 		ms_singleton = (T*) ((int) this + offset);

  0002d	89 1d 00 00 00
	00		 mov	 DWORD PTR ?ms_singleton@?$CSingleton@VCPythonCharacterManager@@@@0PAVCPythonCharacterManager@@A, ebx ; CSingleton<CPythonCharacterManager>::ms_singleton
; File D:\Metin2 Server Files\mainline\SRC_2014\Metin2Client\UserInterface\PythonCharacterManager.cpp

; 958  : {

  00033	8d 53 04	 lea	 edx, DWORD PTR [ebx+4]
  00036	c7 45 fc 00 00
	00 00		 mov	 DWORD PTR __$EHRec$[ebp+8], 0
; File D:\Metin2 Server Files\mainline\SRC_2014\Metin2Client\UserInterface\AbstractSingleton.h

; 13   : 		ms_singleton = (T*) ((int) this + offset);

  0003d	89 15 00 00 00
	00		 mov	 DWORD PTR ?ms_singleton@?$TAbstractSingleton@VIAbstractCharacterManager@@@@0PAVIAbstractCharacterManager@@A, edx ; TAbstractSingleton<IAbstractCharacterManager>::ms_singleton
; File D:\Metin2 Server Files\mainline\SRC_2014\Metin2Client\UserInterface\AbstractCharacterManager.h

; 10   : 		IAbstractCharacterManager() {}

  00043	c7 02 00 00 00
	00		 mov	 DWORD PTR [edx], OFFSET ??_7IAbstractCharacterManager@@6B@
; File D:\Metin2 Server Files\mainline\SRC_2014\Metin2Client\UserInterface\PythonCharacterManager.cpp

; 958  : {

  00049	8d 43 08	 lea	 eax, DWORD PTR [ebx+8]
; File D:\Metin2 Server Files\mainline\SRC_2014\Metin2Client\gamelib\PhysicsObject.h

; 37   : 	IObjectManager()

  0004c	c7 00 00 00 00
	00		 mov	 DWORD PTR [eax], OFFSET ??_7IObjectManager@@6B@

; 38   : 	{
; 39   : 		assert(ms_ObjManager == NULL);
; 40   : 		ms_ObjManager = this;

  00052	a3 00 00 00 00	 mov	 DWORD PTR ?ms_ObjManager@IObjectManager@@0PAV1@A, eax ; IObjectManager::ms_ObjManager
; File D:\Metin2 Server Files\mainline\SRC_2014\Metin2Client\UserInterface\PythonCharacterManager.cpp

; 958  : {

  00057	8d 7b 20	 lea	 edi, DWORD PTR [ebx+32]
  0005a	c7 03 00 00 00
	00		 mov	 DWORD PTR [ebx], OFFSET ??_7CPythonCharacterManager@@6B?$CSingleton@VCPythonCharacterManager@@@@@
  00060	c7 02 00 00 00
	00		 mov	 DWORD PTR [edx], OFFSET ??_7CPythonCharacterManager@@6BIAbstractCharacterManager@@@
  00066	c7 00 00 00 00
	00		 mov	 DWORD PTR [eax], OFFSET ??_7CPythonCharacterManager@@6BIObjectManager@@@
  0006c	89 7d f0	 mov	 DWORD PTR _this$[ebp], edi
; File C:\Program Files (x86)\Microsoft Visual Studio\2019\Community\VC\Tools\MSVC\14.28.29333\include\xmemory

; 814  :         return static_cast<_Ty*>(_Allocate<_New_alignof<_Ty>>(_Get_size_of_n<sizeof(_Ty)>(_Count)));

  0006f	6a 18		 push	 24			; 00000018H
; File D:\Metin2 Server Files\mainline\SRC_2014\Metin2Client\UserInterface\PythonCharacterManager.cpp

; 958  : {

  00071	c6 45 fc 02	 mov	 BYTE PTR __$EHRec$[ebp+8], 2
; File C:\Program Files (x86)\Microsoft Visual Studio\2019\Community\VC\Tools\MSVC\14.28.29333\include\xtree

; 435  :     _Tree_val() noexcept : _Myhead(), _Mysize(0) {}

  00075	c7 07 00 00 00
	00		 mov	 DWORD PTR [edi], 0
  0007b	c7 47 04 00 00
	00 00		 mov	 DWORD PTR [edi+4], 0
; File C:\Program Files (x86)\Microsoft Visual Studio\2019\Community\VC\Tools\MSVC\14.28.29333\include\xmemory

; 814  :         return static_cast<_Ty*>(_Allocate<_New_alignof<_Ty>>(_Get_size_of_n<sizeof(_Ty)>(_Count)));

  00082	e8 00 00 00 00	 call	 ??$_Allocate@$07U_Default_allocate_traits@std@@$0A@@std@@YAPAXI@Z ; std::_Allocate<8,std::_Default_allocate_traits,0>
; File C:\Program Files (x86)\Microsoft Visual Studio\2019\Community\VC\Tools\MSVC\14.28.29333\include\xtree

; 343  :         const auto _Pnode = _Al.allocate(1);

  00087	8b f0		 mov	 esi, eax

; 344  :         _Construct_in_place(_Pnode->_Left, _Pnode);

  00089	8d 45 f0	 lea	 eax, DWORD PTR __Pnode$3[ebp]
  0008c	50		 push	 eax
  0008d	56		 push	 esi
  0008e	89 75 f0	 mov	 DWORD PTR __Pnode$3[ebp], esi
  00091	e8 00 00 00 00	 call	 ??$_Construct_in_place@PAU?$_Tree_node@U?$pair@$$CBKPAVCInstanceBase@@@std@@PAX@std@@ABQAU12@@std@@YAXAAPAU?$_Tree_node@U?$pair@$$CBKPAVCInstanceBase@@@std@@PAX@0@ABQAU10@@Z ; std::_Construct_in_place<std::_Tree_node<std::pair<unsigned long const ,CInstanceBase *>,void *> *,std::_Tree_node<std::pair<unsigned long const ,CInstanceBase *>,void *> * const &>

; 345  :         _Construct_in_place(_Pnode->_Parent, _Pnode);

  00096	8d 45 f0	 lea	 eax, DWORD PTR __Pnode$3[ebp]
  00099	50		 push	 eax
  0009a	8d 4e 04	 lea	 ecx, DWORD PTR [esi+4]
  0009d	51		 push	 ecx
  0009e	e8 00 00 00 00	 call	 ??$_Construct_in_place@PAU?$_Tree_node@U?$pair@$$CBKPAVCInstanceBase@@@std@@PAX@std@@ABQAU12@@std@@YAXAAPAU?$_Tree_node@U?$pair@$$CBKPAVCInstanceBase@@@std@@PAX@0@ABQAU10@@Z ; std::_Construct_in_place<std::_Tree_node<std::pair<unsigned long const ,CInstanceBase *>,void *> *,std::_Tree_node<std::pair<unsigned long const ,CInstanceBase *>,void *> * const &>

; 346  :         _Construct_in_place(_Pnode->_Right, _Pnode);

  000a3	8d 45 f0	 lea	 eax, DWORD PTR __Pnode$3[ebp]
  000a6	50		 push	 eax
  000a7	8d 46 08	 lea	 eax, DWORD PTR [esi+8]
  000aa	50		 push	 eax
  000ab	e8 00 00 00 00	 call	 ??$_Construct_in_place@PAU?$_Tree_node@U?$pair@$$CBKPAVCInstanceBase@@@std@@PAX@std@@ABQAU12@@std@@YAXAAPAU?$_Tree_node@U?$pair@$$CBKPAVCInstanceBase@@@std@@PAX@0@ABQAU10@@Z ; std::_Construct_in_place<std::_Tree_node<std::pair<unsigned long const ,CInstanceBase *>,void *> *,std::_Tree_node<std::pair<unsigned long const ,CInstanceBase *>,void *> * const &>

; 347  :         _Pnode->_Color = _Black;

  000b0	66 c7 46 0c 01
	01		 mov	 WORD PTR [esi+12], 257	; 00000101H

; 2021 :         _Scary->_Myhead = _Node::_Buyheadnode(_Getal());

  000b6	89 37		 mov	 DWORD PTR [edi], esi
; File C:\Program Files (x86)\Microsoft Visual Studio\2019\Community\VC\Tools\MSVC\14.28.29333\include\xmemory

; 814  :         return static_cast<_Ty*>(_Allocate<_New_alignof<_Ty>>(_Get_size_of_n<sizeof(_Ty)>(_Count)));

  000b8	6a 0c		 push	 12			; 0000000cH
; File D:\Metin2 Server Files\mainline\SRC_2014\Metin2Client\UserInterface\PythonCharacterManager.cpp

; 958  : {

  000ba	c6 45 fc 03	 mov	 BYTE PTR __$EHRec$[ebp+8], 3
; File C:\Program Files (x86)\Microsoft Visual Studio\2019\Community\VC\Tools\MSVC\14.28.29333\include\list

; 354  :     _List_val() noexcept : _Myhead(), _Mysize(0) {} // initialize data

  000be	c7 43 28 00 00
	00 00		 mov	 DWORD PTR [ebx+40], 0
  000c5	c7 43 2c 00 00
	00 00		 mov	 DWORD PTR [ebx+44], 0
; File C:\Program Files (x86)\Microsoft Visual Studio\2019\Community\VC\Tools\MSVC\14.28.29333\include\xmemory

; 814  :         return static_cast<_Ty*>(_Allocate<_New_alignof<_Ty>>(_Get_size_of_n<sizeof(_Ty)>(_Count)));

  000cc	e8 00 00 00 00	 call	 ??$_Allocate@$07U_Default_allocate_traits@std@@$0A@@std@@YAPAXI@Z ; std::_Allocate<8,std::_Default_allocate_traits,0>
; File C:\Program Files (x86)\Microsoft Visual Studio\2019\Community\VC\Tools\MSVC\14.28.29333\include\list

; 1775 :         auto _Newhead = _Al.allocate(1);

  000d1	8b f0		 mov	 esi, eax

; 1776 :         _Construct_in_place(_Newhead->_Next, _Newhead);

  000d3	8d 45 f0	 lea	 eax, DWORD PTR __Newhead$2[ebp]
  000d6	50		 push	 eax
  000d7	56		 push	 esi
  000d8	89 75 f0	 mov	 DWORD PTR __Newhead$2[ebp], esi
  000db	e8 00 00 00 00	 call	 ??$_Construct_in_place@PAU?$_List_node@PAVCInstanceBase@@PAX@std@@AAPAU12@@std@@YAXAAPAU?$_List_node@PAVCInstanceBase@@PAX@0@0@Z ; std::_Construct_in_place<std::_List_node<CInstanceBase *,void *> *,std::_List_node<CInstanceBase *,void *> * &>

; 1777 :         _Construct_in_place(_Newhead->_Prev, _Newhead);

  000e0	8d 45 f0	 lea	 eax, DWORD PTR __Newhead$2[ebp]
  000e3	50		 push	 eax
  000e4	8d 4e 04	 lea	 ecx, DWORD PTR [esi+4]
  000e7	51		 push	 ecx
  000e8	e8 00 00 00 00	 call	 ??$_Construct_in_place@PAU?$_List_node@PAVCInstanceBase@@PAX@std@@AAPAU12@@std@@YAXAAPAU?$_List_node@PAVCInstanceBase@@PAX@0@0@Z ; std::_Construct_in_place<std::_List_node<CInstanceBase *,void *> *,std::_List_node<CInstanceBase *,void *> * &>
  000ed	83 c4 30	 add	 esp, 48			; 00000030H

; 1778 :         _Mypair._Myval2._Myhead = _Newhead;

  000f0	89 73 28	 mov	 DWORD PTR [ebx+40], esi
; File D:\Metin2 Server Files\mainline\SRC_2014\Metin2Client\UserInterface\PythonCharacterManager.cpp

; 959  : 	__Initialize();

  000f3	8b cb		 mov	 ecx, ebx
; File C:\Program Files (x86)\Microsoft Visual Studio\2019\Community\VC\Tools\MSVC\14.28.29333\include\vector

; 375  :     _Vector_val() noexcept : _Myfirst(), _Mylast(), _Myend() {}

  000f5	c7 43 30 00 00
	00 00		 mov	 DWORD PTR [ebx+48], 0
  000fc	c7 43 34 00 00
	00 00		 mov	 DWORD PTR [ebx+52], 0
  00103	c7 43 38 00 00
	00 00		 mov	 DWORD PTR [ebx+56], 0
; File D:\Metin2 Server Files\mainline\SRC_2014\Metin2Client\UserInterface\PythonCharacterManager.cpp

; 959  : 	__Initialize();

  0010a	e8 00 00 00 00	 call	 ?__Initialize@CPythonCharacterManager@@IAEXXZ ; CPythonCharacterManager::__Initialize

; 960  : }

  0010f	8b c3		 mov	 eax, ebx
  00111	8b 4d f4	 mov	 ecx, DWORD PTR __$EHRec$[ebp]
  00114	64 89 0d 00 00
	00 00		 mov	 DWORD PTR fs:0, ecx
  0011b	59		 pop	 ecx
  0011c	5f		 pop	 edi
  0011d	5e		 pop	 esi
  0011e	5b		 pop	 ebx
  0011f	8b e5		 mov	 esp, ebp
  00121	5d		 pop	 ebp
  00122	c3		 ret	 0
_TEXT	ENDS
;	COMDAT text$x
text$x	SEGMENT
__unwindfunclet$??0CPythonCharacterManager@@QAE@XZ$0:
  00000	8b 4d ec	 mov	 ecx, DWORD PTR _this$[ebp]
  00003	e9 00 00 00 00	 jmp	 ??1?$CSingleton@VCPythonCharacterManager@@@@UAE@XZ ; CSingleton<CPythonCharacterManager>::~CSingleton<CPythonCharacterManager>
__unwindfunclet$??0CPythonCharacterManager@@QAE@XZ$1:
  00008	8b 4d ec	 mov	 ecx, DWORD PTR _this$[ebp]
  0000b	83 c1 04	 add	 ecx, 4
  0000e	e9 00 00 00 00	 jmp	 ??1IAbstractCharacterManager@@UAE@XZ ; IAbstractCharacterManager::~IAbstractCharacterManager
__unwindfunclet$??0CPythonCharacterManager@@QAE@XZ$2:
  00013	8b 4d ec	 mov	 ecx, DWORD PTR _this$[ebp]
  00016	83 c1 08	 add	 ecx, 8
  00019	e9 00 00 00 00	 jmp	 ??1IObjectManager@@UAE@XZ ; IObjectManager::~IObjectManager
__unwindfunclet$??0CPythonCharacterManager@@QAE@XZ$3:
  0001e	8b 4d ec	 mov	 ecx, DWORD PTR _this$[ebp]
  00021	83 c1 20	 add	 ecx, 32			; 00000020H
  00024	e9 00 00 00 00	 jmp	 ??1?$map@KPAVCInstanceBase@@U?$less@K@std@@V?$allocator@U?$pair@$$CBKPAVCInstanceBase@@@std@@@3@@std@@QAE@XZ
  00029	cc		 int	 3
  0002a	cc		 int	 3
  0002b	cc		 int	 3
  0002c	cc		 int	 3
  0002d	cc		 int	 3
__ehhandler$??0CPythonCharacterManager@@QAE@XZ:
  0002e	90		 npad	 1
  0002f	90		 npad	 1
  00030	8b 54 24 08	 mov	 edx, DWORD PTR [esp+8]
  00034	8d 42 0c	 lea	 eax, DWORD PTR [edx+12]
  00037	8b 4a e8	 mov	 ecx, DWORD PTR [edx-24]
  0003a	33 c8		 xor	 ecx, eax
  0003c	e8 00 00 00 00	 call	 @__security_check_cookie@4
  00041	b8 00 00 00 00	 mov	 eax, OFFSET __ehfuncinfo$??0CPythonCharacterManager@@QAE@XZ
  00046	e9 00 00 00 00	 jmp	 ___CxxFrameHandler3
text$x	ENDS
??0CPythonCharacterManager@@QAE@XZ ENDP			; CPythonCharacterManager::CPythonCharacterManager
; Function compile flags: /Ogtp
; File D:\Metin2 Server Files\mainline\SRC_2014\Metin2Client\eterBase\Singleton.h
;	COMDAT ??_G?$CSingleton@VCPythonCharacterManager@@@@UAEPAXI@Z
_TEXT	SEGMENT
___flags$ = 8						; size = 4
??_G?$CSingleton@VCPythonCharacterManager@@@@UAEPAXI@Z PROC ; CSingleton<CPythonCharacterManager>::`scalar deleting destructor', COMDAT
; _this$ = ecx
  00000	55		 push	 ebp
  00001	8b ec		 mov	 ebp, esp
  00003	f6 45 08 01	 test	 BYTE PTR ___flags$[ebp], 1

; 19   : 	{ 

  00007	56		 push	 esi
  00008	8b f1		 mov	 esi, ecx
  0000a	c7 06 00 00 00
	00		 mov	 DWORD PTR [esi], OFFSET ??_7?$CSingleton@VCPythonCharacterManager@@@@6B@

; 20   : 		assert(ms_singleton);
; 21   : 		ms_singleton = 0; 

  00010	c7 05 00 00 00
	00 00 00 00 00	 mov	 DWORD PTR ?ms_singleton@?$CSingleton@VCPythonCharacterManager@@@@0PAVCPythonCharacterManager@@A, 0 ; CSingleton<CPythonCharacterManager>::ms_singleton
  0001a	74 0b		 je	 SHORT $LN6@scalar
  0001c	6a 04		 push	 4
  0001e	56		 push	 esi
  0001f	e8 00 00 00 00	 call	 ??3@YAXPAXI@Z		; operator delete
  00024	83 c4 08	 add	 esp, 8
$LN6@scalar:
  00027	8b c6		 mov	 eax, esi
  00029	5e		 pop	 esi
  0002a	5d		 pop	 ebp
  0002b	c2 04 00	 ret	 4
??_G?$CSingleton@VCPythonCharacterManager@@@@UAEPAXI@Z ENDP ; CSingleton<CPythonCharacterManager>::`scalar deleting destructor'
_TEXT	ENDS
; Function compile flags: /Ogtp
; File D:\Metin2 Server Files\mainline\SRC_2014\Metin2Client\eterBase\Singleton.h
;	COMDAT ??1?$CSingleton@VCPythonCharacterManager@@@@UAE@XZ
_TEXT	SEGMENT
??1?$CSingleton@VCPythonCharacterManager@@@@UAE@XZ PROC	; CSingleton<CPythonCharacterManager>::~CSingleton<CPythonCharacterManager>, COMDAT
; _this$ = ecx

; 19   : 	{ 

  00000	c7 01 00 00 00
	00		 mov	 DWORD PTR [ecx], OFFSET ??_7?$CSingleton@VCPythonCharacterManager@@@@6B@

; 20   : 		assert(ms_singleton);
; 21   : 		ms_singleton = 0; 

  00006	c7 05 00 00 00
	00 00 00 00 00	 mov	 DWORD PTR ?ms_singleton@?$CSingleton@VCPythonCharacterManager@@@@0PAVCPythonCharacterManager@@A, 0 ; CSingleton<CPythonCharacterManager>::ms_singleton

; 22   : 	}

  00010	c3		 ret	 0
??1?$CSingleton@VCPythonCharacterManager@@@@UAE@XZ ENDP	; CSingleton<CPythonCharacterManager>::~CSingleton<CPythonCharacterManager>
_TEXT	ENDS
; Function compile flags: /Ogtp
; File D:\Metin2 Server Files\mainline\SRC_2014\Metin2Client\gamelib\PhysicsObject.h
;	COMDAT ??_GIObjectManager@@UAEPAXI@Z
_TEXT	SEGMENT
___flags$ = 8						; size = 4
??_GIObjectManager@@UAEPAXI@Z PROC			; IObjectManager::`scalar deleting destructor', COMDAT
; _this$ = ecx
  00000	55		 push	 ebp
  00001	8b ec		 mov	 ebp, esp

; 44   : 	{

  00003	56		 push	 esi
  00004	8b f1		 mov	 esi, ecx

; 45   : 		if (this == ms_ObjManager) 

  00006	33 c9		 xor	 ecx, ecx
  00008	c7 06 00 00 00
	00		 mov	 DWORD PTR [esi], OFFSET ??_7IObjectManager@@6B@
  0000e	a1 00 00 00 00	 mov	 eax, DWORD PTR ?ms_ObjManager@IObjectManager@@0PAV1@A ; IObjectManager::ms_ObjManager
  00013	3b f0		 cmp	 esi, eax
  00015	0f 44 c1	 cmove	 eax, ecx
  00018	f6 45 08 01	 test	 BYTE PTR ___flags$[ebp], 1
  0001c	a3 00 00 00 00	 mov	 DWORD PTR ?ms_ObjManager@IObjectManager@@0PAV1@A, eax ; IObjectManager::ms_ObjManager
  00021	74 0b		 je	 SHORT $LN7@scalar
  00023	6a 04		 push	 4
  00025	56		 push	 esi
  00026	e8 00 00 00 00	 call	 ??3@YAXPAXI@Z		; operator delete
  0002b	83 c4 08	 add	 esp, 8
$LN7@scalar:
  0002e	8b c6		 mov	 eax, esi
  00030	5e		 pop	 esi
  00031	5d		 pop	 ebp
  00032	c2 04 00	 ret	 4
??_GIObjectManager@@UAEPAXI@Z ENDP			; IObjectManager::`scalar deleting destructor'
_TEXT	ENDS
; Function compile flags: /Ogtp
; File D:\Metin2 Server Files\mainline\SRC_2014\Metin2Client\gamelib\PhysicsObject.h
;	COMDAT ??1IObjectManager@@UAE@XZ
_TEXT	SEGMENT
??1IObjectManager@@UAE@XZ PROC				; IObjectManager::~IObjectManager, COMDAT
; _this$ = ecx

; 44   : 	{

  00000	c7 01 00 00 00
	00		 mov	 DWORD PTR [ecx], OFFSET ??_7IObjectManager@@6B@

; 45   : 		if (this == ms_ObjManager) 

  00006	33 d2		 xor	 edx, edx
  00008	a1 00 00 00 00	 mov	 eax, DWORD PTR ?ms_ObjManager@IObjectManager@@0PAV1@A ; IObjectManager::ms_ObjManager
  0000d	3b c8		 cmp	 ecx, eax
  0000f	0f 44 c2	 cmove	 eax, edx
  00012	a3 00 00 00 00	 mov	 DWORD PTR ?ms_ObjManager@IObjectManager@@0PAV1@A, eax ; IObjectManager::ms_ObjManager

; 46   : 			ms_ObjManager = NULL;
; 47   : 	}

  00017	c3		 ret	 0
??1IObjectManager@@UAE@XZ ENDP				; IObjectManager::~IObjectManager
_TEXT	ENDS
; Function compile flags: /Ogtp
; File D:\Metin2 Server Files\mainline\SRC_2014\Metin2Client\UserInterface\AbstractSingleton.h
;	COMDAT ??_GIAbstractCharacterManager@@UAEPAXI@Z
_TEXT	SEGMENT
___flags$ = 8						; size = 4
??_GIAbstractCharacterManager@@UAEPAXI@Z PROC		; IAbstractCharacterManager::`scalar deleting destructor', COMDAT
; _this$ = ecx
  00000	55		 push	 ebp
  00001	8b ec		 mov	 ebp, esp
  00003	f6 45 08 01	 test	 BYTE PTR ___flags$[ebp], 1

; 17   : 	{ 

  00007	56		 push	 esi
  00008	8b f1		 mov	 esi, ecx
  0000a	c7 06 00 00 00
	00		 mov	 DWORD PTR [esi], OFFSET ??_7?$TAbstractSingleton@VIAbstractCharacterManager@@@@6B@

; 18   : 		assert(ms_singleton);
; 19   : 		ms_singleton = 0; 

  00010	c7 05 00 00 00
	00 00 00 00 00	 mov	 DWORD PTR ?ms_singleton@?$TAbstractSingleton@VIAbstractCharacterManager@@@@0PAVIAbstractCharacterManager@@A, 0 ; TAbstractSingleton<IAbstractCharacterManager>::ms_singleton
  0001a	74 0b		 je	 SHORT $LN9@scalar
  0001c	6a 04		 push	 4
  0001e	56		 push	 esi
  0001f	e8 00 00 00 00	 call	 ??3@YAXPAXI@Z		; operator delete
  00024	83 c4 08	 add	 esp, 8
$LN9@scalar:
  00027	8b c6		 mov	 eax, esi
  00029	5e		 pop	 esi
  0002a	5d		 pop	 ebp
  0002b	c2 04 00	 ret	 4
??_GIAbstractCharacterManager@@UAEPAXI@Z ENDP		; IAbstractCharacterManager::`scalar deleting destructor'
_TEXT	ENDS
; Function compile flags: /Ogtp
; File D:\Metin2 Server Files\mainline\SRC_2014\Metin2Client\UserInterface\AbstractCharacterManager.h
; File D:\Metin2 Server Files\mainline\SRC_2014\Metin2Client\UserInterface\AbstractSingleton.h
; File D:\Metin2 Server Files\mainline\SRC_2014\Metin2Client\UserInterface\AbstractCharacterManager.h
;	COMDAT ??1IAbstractCharacterManager@@UAE@XZ
_TEXT	SEGMENT
??1IAbstractCharacterManager@@UAE@XZ PROC		; IAbstractCharacterManager::~IAbstractCharacterManager, COMDAT
; _this$ = ecx
; File D:\Metin2 Server Files\mainline\SRC_2014\Metin2Client\UserInterface\AbstractSingleton.h

; 17   : 	{ 

  00000	c7 01 00 00 00
	00		 mov	 DWORD PTR [ecx], OFFSET ??_7?$TAbstractSingleton@VIAbstractCharacterManager@@@@6B@

; 18   : 		assert(ms_singleton);
; 19   : 		ms_singleton = 0; 

  00006	c7 05 00 00 00
	00 00 00 00 00	 mov	 DWORD PTR ?ms_singleton@?$TAbstractSingleton@VIAbstractCharacterManager@@@@0PAVIAbstractCharacterManager@@A, 0 ; TAbstractSingleton<IAbstractCharacterManager>::ms_singleton
; File D:\Metin2 Server Files\mainline\SRC_2014\Metin2Client\UserInterface\AbstractCharacterManager.h

; 11   : 		virtual ~IAbstractCharacterManager() {}

  00010	c3		 ret	 0
??1IAbstractCharacterManager@@UAE@XZ ENDP		; IAbstractCharacterManager::~IAbstractCharacterManager
_TEXT	ENDS
; Function compile flags: /Ogtp
; File D:\Metin2 Server Files\mainline\SRC_2014\Metin2Client\UserInterface\AbstractSingleton.h
;	COMDAT ??_G?$TAbstractSingleton@VIAbstractCharacterManager@@@@UAEPAXI@Z
_TEXT	SEGMENT
___flags$ = 8						; size = 4
??_G?$TAbstractSingleton@VIAbstractCharacterManager@@@@UAEPAXI@Z PROC ; TAbstractSingleton<IAbstractCharacterManager>::`scalar deleting destructor', COMDAT
; _this$ = ecx
  00000	55		 push	 ebp
  00001	8b ec		 mov	 ebp, esp
  00003	f6 45 08 01	 test	 BYTE PTR ___flags$[ebp], 1

; 17   : 	{ 

  00007	56		 push	 esi
  00008	8b f1		 mov	 esi, ecx
  0000a	c7 06 00 00 00
	00		 mov	 DWORD PTR [esi], OFFSET ??_7?$TAbstractSingleton@VIAbstractCharacterManager@@@@6B@

; 18   : 		assert(ms_singleton);
; 19   : 		ms_singleton = 0; 

  00010	c7 05 00 00 00
	00 00 00 00 00	 mov	 DWORD PTR ?ms_singleton@?$TAbstractSingleton@VIAbstractCharacterManager@@@@0PAVIAbstractCharacterManager@@A, 0 ; TAbstractSingleton<IAbstractCharacterManager>::ms_singleton
  0001a	74 0b		 je	 SHORT $LN6@scalar
  0001c	6a 04		 push	 4
  0001e	56		 push	 esi
  0001f	e8 00 00 00 00	 call	 ??3@YAXPAXI@Z		; operator delete
  00024	83 c4 08	 add	 esp, 8
$LN6@scalar:
  00027	8b c6		 mov	 eax, esi
  00029	5e		 pop	 esi
  0002a	5d		 pop	 ebp
  0002b	c2 04 00	 ret	 4
??_G?$TAbstractSingleton@VIAbstractCharacterManager@@@@UAEPAXI@Z ENDP ; TAbstractSingleton<IAbstractCharacterManager>::`scalar deleting destructor'
_TEXT	ENDS
; Function compile flags: /Ogtp
; File D:\Metin2 Server Files\mainline\SRC_2014\Metin2Client\UserInterface\AbstractSingleton.h
;	COMDAT ??1?$TAbstractSingleton@VIAbstractCharacterManager@@@@UAE@XZ
_TEXT	SEGMENT
??1?$TAbstractSingleton@VIAbstractCharacterManager@@@@UAE@XZ PROC ; TAbstractSingleton<IAbstractCharacterManager>::~TAbstractSingleton<IAbstractCharacterManager>, COMDAT
; _this$ = ecx

; 17   : 	{ 

  00000	c7 01 00 00 00
	00		 mov	 DWORD PTR [ecx], OFFSET ??_7?$TAbstractSingleton@VIAbstractCharacterManager@@@@6B@

; 18   : 		assert(ms_singleton);
; 19   : 		ms_singleton = 0; 

  00006	c7 05 00 00 00
	00 00 00 00 00	 mov	 DWORD PTR ?ms_singleton@?$TAbstractSingleton@VIAbstractCharacterManager@@@@0PAVIAbstractCharacterManager@@A, 0 ; TAbstractSingleton<IAbstractCharacterManager>::ms_singleton

; 20   : 	}

  00010	c3		 ret	 0
??1?$TAbstractSingleton@VIAbstractCharacterManager@@@@UAE@XZ ENDP ; TAbstractSingleton<IAbstractCharacterManager>::~TAbstractSingleton<IAbstractCharacterManager>
_TEXT	ENDS
; Function compile flags: /Ogtp
; File C:\Program Files (x86)\Microsoft Visual Studio\2019\Community\VC\Tools\MSVC\14.28.29333\include\xmemory
;	COMDAT ??$_Allocate_manually_vector_aligned@U_Default_allocate_traits@std@@@std@@YAPAXI@Z
_TEXT	SEGMENT
__Bytes$ = 8						; size = 4
??$_Allocate_manually_vector_aligned@U_Default_allocate_traits@std@@@std@@YAPAXI@Z PROC ; std::_Allocate_manually_vector_aligned<std::_Default_allocate_traits>, COMDAT

; 113  : __declspec(allocator) void* _Allocate_manually_vector_aligned(const size_t _Bytes) {

  00000	55		 push	 ebp
  00001	8b ec		 mov	 ebp, esp

; 114  :     // allocate _Bytes manually aligned to at least _Big_allocation_alignment
; 115  :     const size_t _Block_size = _Non_user_size + _Bytes;

  00003	8b 45 08	 mov	 eax, DWORD PTR __Bytes$[ebp]
  00006	8d 48 23	 lea	 ecx, DWORD PTR [eax+35]

; 116  :     if (_Block_size <= _Bytes) {

  00009	3b c8		 cmp	 ecx, eax
  0000b	0f 86 00 00 00
	00		 jbe	 ?_Throw_bad_array_new_length@std@@YAXXZ ; std::_Throw_bad_array_new_length

; 77   :         return ::operator new(_Bytes);

  00011	51		 push	 ecx
  00012	e8 00 00 00 00	 call	 ??2@YAPAXI@Z		; operator new

; 117  :         _Throw_bad_array_new_length(); // add overflow
; 118  :     }
; 119  : 
; 120  :     const uintptr_t _Ptr_container = reinterpret_cast<uintptr_t>(_Traits::_Allocate(_Block_size));

  00017	8b c8		 mov	 ecx, eax

; 77   :         return ::operator new(_Bytes);

  00019	83 c4 04	 add	 esp, 4

; 121  :     _STL_VERIFY(_Ptr_container != 0, "invalid argument"); // validate even in release since we're doing p[-1]

  0001c	85 c9		 test	 ecx, ecx
  0001e	74 0b		 je	 SHORT $LN7@Allocate_m

; 122  :     void* const _Ptr = reinterpret_cast<void*>((_Ptr_container + _Non_user_size) & ~(_Big_allocation_alignment - 1));

  00020	8d 41 23	 lea	 eax, DWORD PTR [ecx+35]
  00023	83 e0 e0	 and	 eax, -32		; ffffffe0H

; 123  :     static_cast<uintptr_t*>(_Ptr)[-1] = _Ptr_container;

  00026	89 48 fc	 mov	 DWORD PTR [eax-4], ecx

; 124  : 
; 125  : #ifdef _DEBUG
; 126  :     static_cast<uintptr_t*>(_Ptr)[-2] = _Big_allocation_sentinel;
; 127  : #endif // _DEBUG
; 128  :     return _Ptr;
; 129  : }

  00029	5d		 pop	 ebp
  0002a	c3		 ret	 0
$LN7@Allocate_m:

; 121  :     _STL_VERIFY(_Ptr_container != 0, "invalid argument"); // validate even in release since we're doing p[-1]

  0002b	e9 00 00 00 00	 jmp	 __invalid_parameter_noinfo_noreturn
??$_Allocate_manually_vector_aligned@U_Default_allocate_traits@std@@@std@@YAPAXI@Z ENDP ; std::_Allocate_manually_vector_aligned<std::_Default_allocate_traits>
_TEXT	ENDS
; Function compile flags: /Ogtp
; File C:\Program Files (x86)\Microsoft Visual Studio\2019\Community\VC\Tools\MSVC\14.28.29333\include\xmemory
;	COMDAT ??$_Allocate@$07U_Default_allocate_traits@std@@$0A@@std@@YAPAXI@Z
_TEXT	SEGMENT
__Bytes$ = 8						; size = 4
??$_Allocate@$07U_Default_allocate_traits@std@@$0A@@std@@YAPAXI@Z PROC ; std::_Allocate<8,std::_Default_allocate_traits,0>, COMDAT

; 197  : __declspec(allocator) void* _Allocate(const size_t _Bytes) {

  00000	55		 push	 ebp
  00001	8b ec		 mov	 ebp, esp

; 198  :     // allocate _Bytes when !_HAS_ALIGNED_NEW || _Align <= __STDCPP_DEFAULT_NEW_ALIGNMENT__
; 199  : #if defined(_M_IX86) || defined(_M_X64)
; 200  :     if (_Bytes >= _Big_allocation_threshold) { // boost the alignment of big allocations to help autovectorization

  00003	8b 45 08	 mov	 eax, DWORD PTR __Bytes$[ebp]
  00006	3d 00 10 00 00	 cmp	 eax, 4096		; 00001000H
  0000b	72 09		 jb	 SHORT $LN2@Allocate

; 201  :         return _Allocate_manually_vector_aligned<_Traits>(_Bytes);

  0000d	89 45 08	 mov	 DWORD PTR __Bytes$[ebp], eax

; 210  : }

  00010	5d		 pop	 ebp

; 201  :         return _Allocate_manually_vector_aligned<_Traits>(_Bytes);

  00011	e9 00 00 00 00	 jmp	 ??$_Allocate_manually_vector_aligned@U_Default_allocate_traits@std@@@std@@YAPAXI@Z ; std::_Allocate_manually_vector_aligned<std::_Default_allocate_traits>
$LN2@Allocate:

; 202  :     }
; 203  : #endif // defined(_M_IX86) || defined(_M_X64)
; 204  : 
; 205  :     if (_Bytes != 0) {

  00016	85 c0		 test	 eax, eax
  00018	74 09		 je	 SHORT $LN3@Allocate

; 77   :         return ::operator new(_Bytes);

  0001a	89 45 08	 mov	 DWORD PTR __Bytes$[ebp], eax

; 210  : }

  0001d	5d		 pop	 ebp

; 77   :         return ::operator new(_Bytes);

  0001e	e9 00 00 00 00	 jmp	 ??2@YAPAXI@Z		; operator new
$LN3@Allocate:

; 206  :         return _Traits::_Allocate(_Bytes);
; 207  :     }
; 208  : 
; 209  :     return nullptr;

  00023	33 c0		 xor	 eax, eax

; 210  : }

  00025	5d		 pop	 ebp
  00026	c3		 ret	 0
??$_Allocate@$07U_Default_allocate_traits@std@@$0A@@std@@YAPAXI@Z ENDP ; std::_Allocate<8,std::_Default_allocate_traits,0>
_TEXT	ENDS
; Function compile flags: /Ogtp
; File C:\Program Files (x86)\Microsoft Visual Studio\2019\Community\VC\Tools\MSVC\14.28.29333\include\xmemory
;	COMDAT ??$_Deallocate@$07$0A@@std@@YAXPAXI@Z
_TEXT	SEGMENT
__Ptr$ = 8						; size = 4
__Bytes$ = 12						; size = 4
??$_Deallocate@$07$0A@@std@@YAXPAXI@Z PROC		; std::_Deallocate<8,0>, COMDAT

; 213  : void _Deallocate(void* _Ptr, size_t _Bytes) noexcept {

  00000	55		 push	 ebp
  00001	8b ec		 mov	 ebp, esp

; 214  :     // deallocate storage allocated by _Allocate when !_HAS_ALIGNED_NEW || _Align <= __STDCPP_DEFAULT_NEW_ALIGNMENT__
; 215  : #if defined(_M_IX86) || defined(_M_X64)
; 216  :     if (_Bytes >= _Big_allocation_threshold) { // boost the alignment of big allocations to help autovectorization

  00003	8b 4d 0c	 mov	 ecx, DWORD PTR __Bytes$[ebp]
  00006	81 f9 00 10 00
	00		 cmp	 ecx, 4096		; 00001000H
  0000c	72 18		 jb	 SHORT $LN15@Deallocate

; 137  :     const uintptr_t _Ptr_container   = _Ptr_user[-1];

  0000e	8b 45 08	 mov	 eax, DWORD PTR __Ptr$[ebp]
  00011	83 c1 23	 add	 ecx, 35			; 00000023H
  00014	8b 50 fc	 mov	 edx, DWORD PTR [eax-4]

; 138  : 
; 139  :     // If the following asserts, it likely means that we are performing
; 140  :     // an aligned delete on memory coming from an unaligned allocation.
; 141  :     _STL_ASSERT(_Ptr_user[-2] == _Big_allocation_sentinel, "invalid argument");
; 142  : 
; 143  :     // Extra paranoia on aligned allocation/deallocation; ensure _Ptr_container is
; 144  :     // in range [_Min_back_shift, _Non_user_size]
; 145  : #ifdef _DEBUG
; 146  :     constexpr uintptr_t _Min_back_shift = 2 * sizeof(void*);
; 147  : #else // ^^^ _DEBUG ^^^ // vvv !_DEBUG vvv
; 148  :     constexpr uintptr_t _Min_back_shift = sizeof(void*);
; 149  : #endif // _DEBUG
; 150  :     const uintptr_t _Back_shift = reinterpret_cast<uintptr_t>(_Ptr) - _Ptr_container;

  00017	2b c2		 sub	 eax, edx

; 151  :     _STL_VERIFY(_Back_shift >= _Min_back_shift && _Back_shift <= _Non_user_size, "invalid argument");

  00019	83 c0 fc	 add	 eax, -4			; fffffffcH
  0001c	83 f8 1f	 cmp	 eax, 31			; 0000001fH
  0001f	76 08		 jbe	 SHORT $LN13@Deallocate
  00021	e9 00 00 00 00	 jmp	 __invalid_parameter_noinfo_noreturn
$LN15@Deallocate:

; 214  :     // deallocate storage allocated by _Allocate when !_HAS_ALIGNED_NEW || _Align <= __STDCPP_DEFAULT_NEW_ALIGNMENT__
; 215  : #if defined(_M_IX86) || defined(_M_X64)
; 216  :     if (_Bytes >= _Big_allocation_threshold) { // boost the alignment of big allocations to help autovectorization

  00026	8b 55 08	 mov	 edx, DWORD PTR __Ptr$[ebp]
$LN13@Deallocate:

; 217  :         _Adjust_manually_vector_aligned(_Ptr, _Bytes);
; 218  :     }
; 219  : #endif // defined(_M_IX86) || defined(_M_X64)
; 220  : 
; 221  :     ::operator delete(_Ptr, _Bytes);

  00029	89 4d 0c	 mov	 DWORD PTR __Bytes$[ebp], ecx
  0002c	89 55 08	 mov	 DWORD PTR __Ptr$[ebp], edx

; 222  : }

  0002f	5d		 pop	 ebp

; 217  :         _Adjust_manually_vector_aligned(_Ptr, _Bytes);
; 218  :     }
; 219  : #endif // defined(_M_IX86) || defined(_M_X64)
; 220  : 
; 221  :     ::operator delete(_Ptr, _Bytes);

  00030	e9 00 00 00 00	 jmp	 ??3@YAXPAXI@Z		; operator delete
??$_Deallocate@$07$0A@@std@@YAXPAXI@Z ENDP		; std::_Deallocate<8,0>
_TEXT	ENDS
; Function compile flags: /Ogtp
; File C:\Program Files (x86)\Microsoft Visual Studio\2019\Community\VC\Tools\MSVC\14.28.29333\include\xmemory
;	COMDAT ??$_Construct_in_place@PADABQAD@std@@YAXAAPADABQAD@Z
_TEXT	SEGMENT
__Obj$ = 8						; size = 4
_<_Args_0>$ = 12					; size = 4
??$_Construct_in_place@PADABQAD@std@@YAXAAPADABQAD@Z PROC ; std::_Construct_in_place<char *,char * const &>, COMDAT

; 228  : void _Construct_in_place(_Ty& _Obj, _Types&&... _Args) noexcept(is_nothrow_constructible_v<_Ty, _Types...>) {

  00000	55		 push	 ebp
  00001	8b ec		 mov	 ebp, esp

; 229  :     ::new (const_cast<void*>(static_cast<const volatile void*>(_STD addressof(_Obj))))

  00003	8b 45 0c	 mov	 eax, DWORD PTR _<_Args_0>$[ebp]
  00006	8b 08		 mov	 ecx, DWORD PTR [eax]
  00008	8b 45 08	 mov	 eax, DWORD PTR __Obj$[ebp]
  0000b	89 08		 mov	 DWORD PTR [eax], ecx

; 230  :         _Ty(_STD forward<_Types>(_Args)...);
; 231  : }

  0000d	5d		 pop	 ebp
  0000e	c3		 ret	 0
??$_Construct_in_place@PADABQAD@std@@YAXAAPADABQAD@Z ENDP ; std::_Construct_in_place<char *,char * const &>
_TEXT	ENDS
; Function compile flags: /Ogtp
; File C:\Program Files (x86)\Microsoft Visual Studio\2019\Community\VC\Tools\MSVC\14.28.29333\include\xtree
;	COMDAT ?_Throw_tree_length_error@std@@YAXXZ
_TEXT	SEGMENT
?_Throw_tree_length_error@std@@YAXXZ PROC		; std::_Throw_tree_length_error, COMDAT

; 415  :     _Xlength_error("map/set too long");

  00000	68 00 00 00 00	 push	 OFFSET ??_C@_0BB@GCADKGJO@map?1set?5too?5long@
  00005	e8 00 00 00 00	 call	 ?_Xlength_error@std@@YAXPBD@Z ; std::_Xlength_error
$LN3@Throw_tree:
  0000a	cc		 int	 3
?_Throw_tree_length_error@std@@YAXXZ ENDP		; std::_Throw_tree_length_error
_TEXT	ENDS
; Function compile flags: /Ogtp
; File C:\Program Files (x86)\Microsoft Visual Studio\2019\Community\VC\Tools\MSVC\14.28.29333\include\xstring
; File C:\Program Files (x86)\Microsoft Visual Studio\2019\Community\VC\Tools\MSVC\14.28.29333\include\utility
; File C:\Program Files (x86)\Microsoft Visual Studio\2019\Community\VC\Tools\MSVC\14.28.29333\include\xstring
; File C:\Program Files (x86)\Microsoft Visual Studio\2019\Community\VC\Tools\MSVC\14.28.29333\include\xmemory
; File C:\Program Files (x86)\Microsoft Visual Studio\2019\Community\VC\Tools\MSVC\14.28.29333\include\xstring
; File C:\Program Files (x86)\Microsoft Visual Studio\2019\Community\VC\Tools\MSVC\14.28.29333\include\xmemory
; File C:\Program Files (x86)\Microsoft Visual Studio\2019\Community\VC\Tools\MSVC\14.28.29333\include\xstring
; File C:\Program Files (x86)\Microsoft Visual Studio\2019\Community\VC\Tools\MSVC\14.28.29333\include\xmemory
; File C:\Program Files (x86)\Microsoft Visual Studio\2019\Community\VC\Tools\MSVC\14.28.29333\include\xstring
;	COMDAT ?append@?$basic_string@DU?$char_traits@D@std@@V?$allocator@D@2@@std@@QAEAAV12@QBD@Z
_TEXT	SEGMENT
__Old_size$1$ = -16					; size = 4
__New_ptr$1 = -12					; size = 4
__Old$1$ = -8						; size = 4
tv441 = -4						; size = 4
tv438 = -4						; size = 4
$T2 = -4						; size = 4
__Ptr$ = 8						; size = 4
?append@?$basic_string@DU?$char_traits@D@std@@V?$allocator@D@2@@std@@QAEAAV12@QBD@Z PROC ; std::basic_string<char,std::char_traits<char>,std::allocator<char> >::append, COMDAT
; _this$ = ecx

; 2957 :     basic_string& append(_In_z_ const _Elem* const _Ptr) { // append [_Ptr, <null>)

  00000	55		 push	 ebp
  00001	8b ec		 mov	 ebp, esp
  00003	83 ec 10	 sub	 esp, 16			; 00000010H
  00006	53		 push	 ebx
  00007	56		 push	 esi
  00008	8b d9		 mov	 ebx, ecx

; 389  :         return _CSTD strlen(reinterpret_cast<const char*>(_First));

  0000a	8b 4d 08	 mov	 ecx, DWORD PTR __Ptr$[ebp]

; 2957 :     basic_string& append(_In_z_ const _Elem* const _Ptr) { // append [_Ptr, <null>)

  0000d	57		 push	 edi

; 389  :         return _CSTD strlen(reinterpret_cast<const char*>(_First));

  0000e	8b f9		 mov	 edi, ecx
  00010	8d 57 01	 lea	 edx, DWORD PTR [edi+1]
$LL46@append:
  00013	8a 07		 mov	 al, BYTE PTR [edi]
  00015	47		 inc	 edi
  00016	84 c0		 test	 al, al
  00018	75 f9		 jne	 SHORT $LL46@append

; 2937 :         const size_type _Old_size = _Mypair._Myval2._Mysize;

  0001a	8b 73 10	 mov	 esi, DWORD PTR [ebx+16]

; 389  :         return _CSTD strlen(reinterpret_cast<const char*>(_First));

  0001d	2b fa		 sub	 edi, edx

; 2938 :         if (_Count <= _Mypair._Myval2._Myres - _Old_size) {

  0001f	8b 53 14	 mov	 edx, DWORD PTR [ebx+20]
  00022	8b c2		 mov	 eax, edx
  00024	2b c6		 sub	 eax, esi
  00026	89 75 f0	 mov	 DWORD PTR __Old_size$1$[ebp], esi
  00029	89 55 f8	 mov	 DWORD PTR __Old$1$[ebp], edx
  0002c	3b f8		 cmp	 edi, eax
  0002e	77 2b		 ja	 SHORT $LN6@append

; 2939 :             _Mypair._Myval2._Mysize = _Old_size + _Count;

  00030	8d 04 3e	 lea	 eax, DWORD PTR [esi+edi]
  00033	89 43 10	 mov	 DWORD PTR [ebx+16], eax

; 2209 :         value_type* _Result = _Bx._Buf;

  00036	8b c3		 mov	 eax, ebx

; 2227 :         return _BUF_SIZE <= _Myres;

  00038	83 fa 10	 cmp	 edx, 16			; 00000010H

; 2210 :         if (_Large_string_engaged()) {

  0003b	72 02		 jb	 SHORT $LN9@append

; 2211 :             _Result = _Unfancy(_Bx._Ptr);

  0003d	8b 03		 mov	 eax, DWORD PTR [ebx]
$LN9@append:

; 119  :         _CSTD memmove(_First1, _First2, _Count * sizeof(_Elem));

  0003f	57		 push	 edi

; 2941 :             _Traits::move(_Old_ptr + _Old_size, _Ptr, _Count);

  00040	03 f0		 add	 esi, eax

; 119  :         _CSTD memmove(_First1, _First2, _Count * sizeof(_Elem));

  00042	51		 push	 ecx
  00043	56		 push	 esi
  00044	e8 00 00 00 00	 call	 _memmove
  00049	83 c4 0c	 add	 esp, 12			; 0000000cH

; 2942 :             _Traits::assign(_Old_ptr[_Old_size + _Count], _Elem());

  0004c	c6 04 3e 00	 mov	 BYTE PTR [esi+edi], 0

; 2958 :         return append(_Ptr, _Convert_size<size_type>(_Traits::length(_Ptr)));

  00050	8b c3		 mov	 eax, ebx
  00052	5f		 pop	 edi
  00053	5e		 pop	 esi
  00054	5b		 pop	 ebx

; 2959 :     }

  00055	8b e5		 mov	 esp, ebp
  00057	5d		 pop	 ebp
  00058	c2 04 00	 ret	 4
$LN6@append:

; 4333 :         if (max_size() - _Old_size < _Size_increase) {

  0005b	b8 ff ff ff 7f	 mov	 eax, 2147483647		; 7fffffffH
  00060	2b c6		 sub	 eax, esi
  00062	3b c7		 cmp	 eax, edi
  00064	0f 82 d5 00 00
	00		 jb	 $LN51@append

; 4335 :         }
; 4336 : 
; 4337 :         const size_type _New_size     = _Old_size + _Size_increase;

  0006a	8d 0c 3e	 lea	 ecx, DWORD PTR [esi+edi]

; 4285 :         const size_type _Masked = _Requested | _ALLOC_MASK;

  0006d	83 c9 0f	 or	 ecx, 15			; 0000000fH
  00070	81 f9 ff ff ff
	7f		 cmp	 ecx, 2147483647		; 7fffffffH

; 4286 :         if (_Masked > _Max) { // the mask overflows, settle for max_size()

  00076	76 07		 jbe	 SHORT $LN23@append

; 4287 :             return _Max;

  00078	b9 ff ff ff 7f	 mov	 ecx, 2147483647		; 7fffffffH
  0007d	eb 24		 jmp	 SHORT $LN48@append
$LN23@append:

; 4288 :         }
; 4289 : 
; 4290 :         if (_Old > _Max - _Old / 2) { // similarly, geometric overflows

  0007f	8b c2		 mov	 eax, edx
  00081	d1 e8		 shr	 eax, 1
  00083	89 45 fc	 mov	 DWORD PTR tv441[ebp], eax
  00086	b8 ff ff ff 7f	 mov	 eax, 2147483647		; 7fffffffH
  0008b	2b 45 fc	 sub	 eax, DWORD PTR tv441[ebp]
  0008e	3b d0		 cmp	 edx, eax
  00090	76 07		 jbe	 SHORT $LN24@append

; 4291 :             return _Max;

  00092	b9 ff ff ff 7f	 mov	 ecx, 2147483647		; 7fffffffH
  00097	eb 0a		 jmp	 SHORT $LN48@append
$LN24@append:

; 4292 :         }
; 4293 : 
; 4294 :         return (_STD max)(_Masked, _Old + _Old / 2);

  00099	8b 45 fc	 mov	 eax, DWORD PTR tv441[ebp]
  0009c	03 c2		 add	 eax, edx
; File C:\Program Files (x86)\Microsoft Visual Studio\2019\Community\VC\Tools\MSVC\14.28.29333\include\utility

; 44   :     return _Left < _Right ? _Right : _Left;

  0009e	3b c8		 cmp	 ecx, eax
  000a0	0f 42 c8	 cmovb	 ecx, eax
$LN48@append:
; File C:\Program Files (x86)\Microsoft Visual Studio\2019\Community\VC\Tools\MSVC\14.28.29333\include\xstring

; 4341 :         const pointer _New_ptr        = _Al.allocate(_New_capacity + 1); // throws

  000a3	8d 41 01	 lea	 eax, DWORD PTR [ecx+1]
  000a6	89 4d fc	 mov	 DWORD PTR $T2[ebp], ecx
; File C:\Program Files (x86)\Microsoft Visual Studio\2019\Community\VC\Tools\MSVC\14.28.29333\include\xmemory

; 814  :         return static_cast<_Ty*>(_Allocate<_New_alignof<_Ty>>(_Get_size_of_n<sizeof(_Ty)>(_Count)));

  000a9	50		 push	 eax
  000aa	e8 00 00 00 00	 call	 ??$_Allocate@$07U_Default_allocate_traits@std@@$0A@@std@@YAPAXI@Z ; std::_Allocate<8,std::_Default_allocate_traits,0>
; File C:\Program Files (x86)\Microsoft Visual Studio\2019\Community\VC\Tools\MSVC\14.28.29333\include\xstring

; 4344 :         _My_data._Myres       = _New_capacity;

  000af	8b 4d fc	 mov	 ecx, DWORD PTR $T2[ebp]
  000b2	8b d0		 mov	 edx, eax
  000b4	8d 04 3e	 lea	 eax, DWORD PTR [esi+edi]
  000b7	89 55 f4	 mov	 DWORD PTR __New_ptr$1[ebp], edx
  000ba	89 43 10	 mov	 DWORD PTR [ebx+16], eax
; File C:\Program Files (x86)\Microsoft Visual Studio\2019\Community\VC\Tools\MSVC\14.28.29333\include\xmemory

; 814  :         return static_cast<_Ty*>(_Allocate<_New_alignof<_Ty>>(_Get_size_of_n<sizeof(_Ty)>(_Count)));

  000bd	83 c4 04	 add	 esp, 4
; File C:\Program Files (x86)\Microsoft Visual Studio\2019\Community\VC\Tools\MSVC\14.28.29333\include\xstring

; 4346 :         if (_BUF_SIZE <= _Old_capacity) {

  000c0	83 7d f8 10	 cmp	 DWORD PTR __Old$1$[ebp], 16 ; 00000010H
  000c4	8d 04 32	 lea	 eax, DWORD PTR [edx+esi]
  000c7	89 4b 14	 mov	 DWORD PTR [ebx+20], ecx
  000ca	89 45 fc	 mov	 DWORD PTR tv438[ebp], eax
  000cd	72 3e		 jb	 SHORT $LN17@append

; 62   :         _CSTD memcpy(_First1, _First2, _Count * sizeof(_Elem));

  000cf	ff 75 f0	 push	 DWORD PTR __Old_size$1$[ebp]

; 4347 :             const pointer _Old_ptr = _My_data._Bx._Ptr;

  000d2	8b 33		 mov	 esi, DWORD PTR [ebx]

; 62   :         _CSTD memcpy(_First1, _First2, _Count * sizeof(_Elem));

  000d4	56		 push	 esi
  000d5	52		 push	 edx
  000d6	e8 00 00 00 00	 call	 _memcpy
  000db	8b 45 08	 mov	 eax, DWORD PTR __Ptr$[ebp]
  000de	57		 push	 edi
  000df	50		 push	 eax
  000e0	ff 75 fc	 push	 DWORD PTR tv438[ebp]
  000e3	e8 00 00 00 00	 call	 _memcpy

; 2952 :                 _Traits::assign(_New_ptr[_Old_size + _Count], _Elem());

  000e8	8b 45 fc	 mov	 eax, DWORD PTR tv438[ebp]
  000eb	c6 04 38 00	 mov	 BYTE PTR [eax+edi], 0

; 4349 :             _Al.deallocate(_Old_ptr, _Old_capacity + 1);

  000ef	8b 45 f8	 mov	 eax, DWORD PTR __Old$1$[ebp]
  000f2	40		 inc	 eax
; File C:\Program Files (x86)\Microsoft Visual Studio\2019\Community\VC\Tools\MSVC\14.28.29333\include\xmemory

; 810  :         _Deallocate<_New_alignof<_Ty>>(_Ptr, sizeof(_Ty) * _Count);

  000f3	50		 push	 eax
  000f4	56		 push	 esi
  000f5	e8 00 00 00 00	 call	 ??$_Deallocate@$07$0A@@std@@YAXPAXI@Z ; std::_Deallocate<8,0>
; File C:\Program Files (x86)\Microsoft Visual Studio\2019\Community\VC\Tools\MSVC\14.28.29333\include\xstring

; 4350 :             _My_data._Bx._Ptr = _New_ptr;

  000fa	8b 45 f4	 mov	 eax, DWORD PTR __New_ptr$1[ebp]

; 2958 :         return append(_Ptr, _Convert_size<size_type>(_Traits::length(_Ptr)));

  000fd	83 c4 20	 add	 esp, 32			; 00000020H

; 4350 :             _My_data._Bx._Ptr = _New_ptr;

  00100	89 03		 mov	 DWORD PTR [ebx], eax

; 2958 :         return append(_Ptr, _Convert_size<size_type>(_Traits::length(_Ptr)));

  00102	8b c3		 mov	 eax, ebx
  00104	5f		 pop	 edi
  00105	5e		 pop	 esi
  00106	5b		 pop	 ebx

; 2959 :     }

  00107	8b e5		 mov	 esp, ebp
  00109	5d		 pop	 ebp
  0010a	c2 04 00	 ret	 4
$LN17@append:

; 62   :         _CSTD memcpy(_First1, _First2, _Count * sizeof(_Elem));

  0010d	56		 push	 esi
  0010e	53		 push	 ebx
  0010f	52		 push	 edx
  00110	e8 00 00 00 00	 call	 _memcpy
  00115	8b 45 08	 mov	 eax, DWORD PTR __Ptr$[ebp]
  00118	8b 75 fc	 mov	 esi, DWORD PTR tv438[ebp]
  0011b	57		 push	 edi
  0011c	50		 push	 eax
  0011d	56		 push	 esi
  0011e	e8 00 00 00 00	 call	 _memcpy

; 4353 :             _Construct_in_place(_My_data._Bx._Ptr, _New_ptr);

  00123	8d 45 f4	 lea	 eax, DWORD PTR __New_ptr$1[ebp]

; 2952 :                 _Traits::assign(_New_ptr[_Old_size + _Count], _Elem());

  00126	c6 04 3e 00	 mov	 BYTE PTR [esi+edi], 0

; 4353 :             _Construct_in_place(_My_data._Bx._Ptr, _New_ptr);

  0012a	50		 push	 eax
  0012b	53		 push	 ebx
  0012c	e8 00 00 00 00	 call	 ??$_Construct_in_place@PADABQAD@std@@YAXAAPADABQAD@Z ; std::_Construct_in_place<char *,char * const &>

; 2958 :         return append(_Ptr, _Convert_size<size_type>(_Traits::length(_Ptr)));

  00131	83 c4 20	 add	 esp, 32			; 00000020H
  00134	8b c3		 mov	 eax, ebx
  00136	5f		 pop	 edi
  00137	5e		 pop	 esi
  00138	5b		 pop	 ebx

; 2959 :     }

  00139	8b e5		 mov	 esp, ebp
  0013b	5d		 pop	 ebp
  0013c	c2 04 00	 ret	 4
$LN51@append:

; 4334 :             _Xlen_string(); // result too long

  0013f	e8 00 00 00 00	 call	 ?_Xlen_string@std@@YAXXZ ; std::_Xlen_string
$LN47@append:
  00144	cc		 int	 3
?append@?$basic_string@DU?$char_traits@D@std@@V?$allocator@D@2@@std@@QAEAAV12@QBD@Z ENDP ; std::basic_string<char,std::char_traits<char>,std::allocator<char> >::append
_TEXT	ENDS
; Function compile flags: /Ogtp
; File C:\Program Files (x86)\Microsoft Visual Studio\2019\Community\VC\Tools\MSVC\14.28.29333\include\xstring
;	COMDAT ?_Xlen_string@std@@YAXXZ
_TEXT	SEGMENT
?_Xlen_string@std@@YAXXZ PROC				; std::_Xlen_string, COMDAT

; 2275 :     _Xlength_error("string too long");

  00000	68 00 00 00 00	 push	 OFFSET ??_C@_0BA@JFNIOLAK@string?5too?5long@
  00005	e8 00 00 00 00	 call	 ?_Xlength_error@std@@YAXPBD@Z ; std::_Xlength_error
$LN3@Xlen_strin:
  0000a	cc		 int	 3
?_Xlen_string@std@@YAXXZ ENDP				; std::_Xlen_string
_TEXT	ENDS
; Function compile flags: /Ogtp
; File C:\Program Files (x86)\Microsoft Visual Studio\2019\Community\VC\Tools\MSVC\14.28.29333\include\exception
;	COMDAT ?_Throw_bad_array_new_length@std@@YAXXZ
_TEXT	SEGMENT
$T1 = -12						; size = 12
?_Throw_bad_array_new_length@std@@YAXXZ PROC		; std::_Throw_bad_array_new_length, COMDAT

; 320  : [[noreturn]] inline void _Throw_bad_array_new_length() {

  00000	55		 push	 ebp
  00001	8b ec		 mov	 ebp, esp
  00003	83 ec 0c	 sub	 esp, 12			; 0000000cH

; 321  :     _THROW(bad_array_new_length{});

  00006	8d 4d f4	 lea	 ecx, DWORD PTR $T1[ebp]
  00009	e8 00 00 00 00	 call	 ??0bad_array_new_length@std@@QAE@XZ ; std::bad_array_new_length::bad_array_new_length
  0000e	68 00 00 00 00	 push	 OFFSET __TI3?AVbad_array_new_length@std@@
  00013	8d 45 f4	 lea	 eax, DWORD PTR $T1[ebp]
  00016	50		 push	 eax
  00017	e8 00 00 00 00	 call	 __CxxThrowException@8
$LN3@Throw_bad_:
  0001c	cc		 int	 3
?_Throw_bad_array_new_length@std@@YAXXZ ENDP		; std::_Throw_bad_array_new_length
_TEXT	ENDS
; Function compile flags: /Ogtp
; File C:\Program Files (x86)\Microsoft Visual Studio\2019\Community\VC\Tools\MSVC\14.28.29333\include\vcruntime_exception.h
;	COMDAT ??_Gbad_array_new_length@std@@UAEPAXI@Z
_TEXT	SEGMENT
___flags$ = 8						; size = 4
??_Gbad_array_new_length@std@@UAEPAXI@Z PROC		; std::bad_array_new_length::`scalar deleting destructor', COMDAT
; _this$ = ecx
  00000	55		 push	 ebp
  00001	8b ec		 mov	 ebp, esp

; 89   :     {

  00003	56		 push	 esi
  00004	8b f1		 mov	 esi, ecx

; 90   :         __std_exception_destroy(&_Data);

  00006	8d 46 04	 lea	 eax, DWORD PTR [esi+4]
  00009	c7 06 00 00 00
	00		 mov	 DWORD PTR [esi], OFFSET ??_7exception@std@@6B@
  0000f	50		 push	 eax
  00010	e8 00 00 00 00	 call	 ___std_exception_destroy
  00015	83 c4 04	 add	 esp, 4
  00018	f6 45 08 01	 test	 BYTE PTR ___flags$[ebp], 1
  0001c	74 0b		 je	 SHORT $LN12@scalar
  0001e	6a 0c		 push	 12			; 0000000cH
  00020	56		 push	 esi
  00021	e8 00 00 00 00	 call	 ??3@YAXPAXI@Z		; operator delete
  00026	83 c4 08	 add	 esp, 8
$LN12@scalar:
  00029	8b c6		 mov	 eax, esi
  0002b	5e		 pop	 esi
  0002c	5d		 pop	 ebp
  0002d	c2 04 00	 ret	 4
??_Gbad_array_new_length@std@@UAEPAXI@Z ENDP		; std::bad_array_new_length::`scalar deleting destructor'
_TEXT	ENDS
; Function compile flags: /Ogtp
; File C:\Program Files (x86)\Microsoft Visual Studio\2019\Community\VC\Tools\MSVC\14.28.29333\include\vcruntime_exception.h
;	COMDAT ??0bad_array_new_length@std@@QAE@ABV01@@Z
_TEXT	SEGMENT
___that$ = 8						; size = 4
??0bad_array_new_length@std@@QAE@ABV01@@Z PROC		; std::bad_array_new_length::bad_array_new_length, COMDAT
; _this$ = ecx
  00000	55		 push	 ebp
  00001	8b ec		 mov	 ebp, esp

; 72   :     {

  00003	56		 push	 esi
  00004	8b f1		 mov	 esi, ecx
  00006	0f 57 c0	 xorps	 xmm0, xmm0

; 71   :         : _Data()

  00009	8d 46 04	 lea	 eax, DWORD PTR [esi+4]

; 73   :         __std_exception_copy(&_Other._Data, &_Data);

  0000c	50		 push	 eax
  0000d	c7 06 00 00 00
	00		 mov	 DWORD PTR [esi], OFFSET ??_7exception@std@@6B@
  00013	66 0f d6 00	 movq	 QWORD PTR [eax], xmm0
  00017	8b 45 08	 mov	 eax, DWORD PTR ___that$[ebp]
  0001a	83 c0 04	 add	 eax, 4
  0001d	50		 push	 eax
  0001e	e8 00 00 00 00	 call	 ___std_exception_copy
  00023	83 c4 08	 add	 esp, 8
  00026	c7 06 00 00 00
	00		 mov	 DWORD PTR [esi], OFFSET ??_7bad_array_new_length@std@@6B@
  0002c	8b c6		 mov	 eax, esi
  0002e	5e		 pop	 esi
  0002f	5d		 pop	 ebp
  00030	c2 04 00	 ret	 4
??0bad_array_new_length@std@@QAE@ABV01@@Z ENDP		; std::bad_array_new_length::bad_array_new_length
_TEXT	ENDS
; Function compile flags: /Ogtp
; File C:\Program Files (x86)\Microsoft Visual Studio\2019\Community\VC\Tools\MSVC\14.28.29333\include\vcruntime_exception.h
;	COMDAT ??1bad_array_new_length@std@@UAE@XZ
_TEXT	SEGMENT
??1bad_array_new_length@std@@UAE@XZ PROC		; std::bad_array_new_length::~bad_array_new_length, COMDAT
; _this$ = ecx

; 90   :         __std_exception_destroy(&_Data);

  00000	8d 41 04	 lea	 eax, DWORD PTR [ecx+4]
  00003	c7 01 00 00 00
	00		 mov	 DWORD PTR [ecx], OFFSET ??_7exception@std@@6B@
  00009	50		 push	 eax
  0000a	e8 00 00 00 00	 call	 ___std_exception_destroy
  0000f	59		 pop	 ecx
  00010	c3		 ret	 0
??1bad_array_new_length@std@@UAE@XZ ENDP		; std::bad_array_new_length::~bad_array_new_length
_TEXT	ENDS
; Function compile flags: /Ogtp
; File C:\Program Files (x86)\Microsoft Visual Studio\2019\Community\VC\Tools\MSVC\14.28.29333\include\vcruntime_exception.h
;	COMDAT ??0bad_array_new_length@std@@QAE@XZ
_TEXT	SEGMENT
??0bad_array_new_length@std@@QAE@XZ PROC		; std::bad_array_new_length::bad_array_new_length, COMDAT
; _this$ = ecx

; 141  :     {

  00000	0f 57 c0	 xorps	 xmm0, xmm0

; 142  :     }

  00003	8b c1		 mov	 eax, ecx

; 65   :         : _Data()

  00005	66 0f d6 41 04	 movq	 QWORD PTR [ecx+4], xmm0

; 66   :     {
; 67   :         _Data._What = _Message;

  0000a	c7 41 04 00 00
	00 00		 mov	 DWORD PTR [ecx+4], OFFSET ??_C@_0BF@KINCDENJ@bad?5array?5new?5length@

; 141  :     {

  00011	c7 01 00 00 00
	00		 mov	 DWORD PTR [ecx], OFFSET ??_7bad_array_new_length@std@@6B@

; 142  :     }

  00017	c3		 ret	 0
??0bad_array_new_length@std@@QAE@XZ ENDP		; std::bad_array_new_length::bad_array_new_length
_TEXT	ENDS
; Function compile flags: /Ogtp
; File C:\Program Files (x86)\Microsoft Visual Studio\2019\Community\VC\Tools\MSVC\14.28.29333\include\vcruntime_exception.h
;	COMDAT ??_Gbad_alloc@std@@UAEPAXI@Z
_TEXT	SEGMENT
___flags$ = 8						; size = 4
??_Gbad_alloc@std@@UAEPAXI@Z PROC			; std::bad_alloc::`scalar deleting destructor', COMDAT
; _this$ = ecx
  00000	55		 push	 ebp
  00001	8b ec		 mov	 ebp, esp

; 89   :     {

  00003	56		 push	 esi
  00004	8b f1		 mov	 esi, ecx

; 90   :         __std_exception_destroy(&_Data);

  00006	8d 46 04	 lea	 eax, DWORD PTR [esi+4]
  00009	c7 06 00 00 00
	00		 mov	 DWORD PTR [esi], OFFSET ??_7exception@std@@6B@
  0000f	50		 push	 eax
  00010	e8 00 00 00 00	 call	 ___std_exception_destroy
  00015	83 c4 04	 add	 esp, 4
  00018	f6 45 08 01	 test	 BYTE PTR ___flags$[ebp], 1
  0001c	74 0b		 je	 SHORT $LN9@scalar
  0001e	6a 0c		 push	 12			; 0000000cH
  00020	56		 push	 esi
  00021	e8 00 00 00 00	 call	 ??3@YAXPAXI@Z		; operator delete
  00026	83 c4 08	 add	 esp, 8
$LN9@scalar:
  00029	8b c6		 mov	 eax, esi
  0002b	5e		 pop	 esi
  0002c	5d		 pop	 ebp
  0002d	c2 04 00	 ret	 4
??_Gbad_alloc@std@@UAEPAXI@Z ENDP			; std::bad_alloc::`scalar deleting destructor'
_TEXT	ENDS
; Function compile flags: /Ogtp
; File C:\Program Files (x86)\Microsoft Visual Studio\2019\Community\VC\Tools\MSVC\14.28.29333\include\vcruntime_exception.h
;	COMDAT ??0bad_alloc@std@@QAE@ABV01@@Z
_TEXT	SEGMENT
___that$ = 8						; size = 4
??0bad_alloc@std@@QAE@ABV01@@Z PROC			; std::bad_alloc::bad_alloc, COMDAT
; _this$ = ecx
  00000	55		 push	 ebp
  00001	8b ec		 mov	 ebp, esp

; 72   :     {

  00003	56		 push	 esi
  00004	8b f1		 mov	 esi, ecx
  00006	0f 57 c0	 xorps	 xmm0, xmm0

; 71   :         : _Data()

  00009	8d 46 04	 lea	 eax, DWORD PTR [esi+4]

; 73   :         __std_exception_copy(&_Other._Data, &_Data);

  0000c	50		 push	 eax
  0000d	c7 06 00 00 00
	00		 mov	 DWORD PTR [esi], OFFSET ??_7exception@std@@6B@
  00013	66 0f d6 00	 movq	 QWORD PTR [eax], xmm0
  00017	8b 45 08	 mov	 eax, DWORD PTR ___that$[ebp]
  0001a	83 c0 04	 add	 eax, 4
  0001d	50		 push	 eax
  0001e	e8 00 00 00 00	 call	 ___std_exception_copy
  00023	83 c4 08	 add	 esp, 8
  00026	c7 06 00 00 00
	00		 mov	 DWORD PTR [esi], OFFSET ??_7bad_alloc@std@@6B@
  0002c	8b c6		 mov	 eax, esi
  0002e	5e		 pop	 esi
  0002f	5d		 pop	 ebp
  00030	c2 04 00	 ret	 4
??0bad_alloc@std@@QAE@ABV01@@Z ENDP			; std::bad_alloc::bad_alloc
_TEXT	ENDS
; Function compile flags: /Ogtp
; File C:\Program Files (x86)\Microsoft Visual Studio\2019\Community\VC\Tools\MSVC\14.28.29333\include\vcruntime_exception.h
;	COMDAT ??_Gexception@std@@UAEPAXI@Z
_TEXT	SEGMENT
___flags$ = 8						; size = 4
??_Gexception@std@@UAEPAXI@Z PROC			; std::exception::`scalar deleting destructor', COMDAT
; _this$ = ecx
  00000	55		 push	 ebp
  00001	8b ec		 mov	 ebp, esp

; 89   :     {

  00003	56		 push	 esi
  00004	8b f1		 mov	 esi, ecx

; 90   :         __std_exception_destroy(&_Data);

  00006	8d 46 04	 lea	 eax, DWORD PTR [esi+4]
  00009	c7 06 00 00 00
	00		 mov	 DWORD PTR [esi], OFFSET ??_7exception@std@@6B@
  0000f	50		 push	 eax
  00010	e8 00 00 00 00	 call	 ___std_exception_destroy
  00015	83 c4 04	 add	 esp, 4
  00018	f6 45 08 01	 test	 BYTE PTR ___flags$[ebp], 1
  0001c	74 0b		 je	 SHORT $LN6@scalar
  0001e	6a 0c		 push	 12			; 0000000cH
  00020	56		 push	 esi
  00021	e8 00 00 00 00	 call	 ??3@YAXPAXI@Z		; operator delete
  00026	83 c4 08	 add	 esp, 8
$LN6@scalar:
  00029	8b c6		 mov	 eax, esi
  0002b	5e		 pop	 esi
  0002c	5d		 pop	 ebp
  0002d	c2 04 00	 ret	 4
??_Gexception@std@@UAEPAXI@Z ENDP			; std::exception::`scalar deleting destructor'
_TEXT	ENDS
; Function compile flags: /Ogtp
; File C:\Program Files (x86)\Microsoft Visual Studio\2019\Community\VC\Tools\MSVC\14.28.29333\include\vcruntime_exception.h
;	COMDAT ?what@exception@std@@UBEPBDXZ
_TEXT	SEGMENT
?what@exception@std@@UBEPBDXZ PROC			; std::exception::what, COMDAT
; _this$ = ecx

; 95   :         return _Data._What ? _Data._What : "Unknown exception";

  00000	8b 49 04	 mov	 ecx, DWORD PTR [ecx+4]
  00003	b8 00 00 00 00	 mov	 eax, OFFSET ??_C@_0BC@EOODALEL@Unknown?5exception@
  00008	85 c9		 test	 ecx, ecx
  0000a	0f 45 c1	 cmovne	 eax, ecx

; 96   :     }

  0000d	c3		 ret	 0
?what@exception@std@@UBEPBDXZ ENDP			; std::exception::what
_TEXT	ENDS
; Function compile flags: /Ogtp
; File C:\Program Files (x86)\Microsoft Visual Studio\2019\Community\VC\Tools\MSVC\14.28.29333\include\vcruntime_exception.h
;	COMDAT ??1exception@std@@UAE@XZ
_TEXT	SEGMENT
??1exception@std@@UAE@XZ PROC				; std::exception::~exception, COMDAT
; _this$ = ecx

; 90   :         __std_exception_destroy(&_Data);

  00000	8d 41 04	 lea	 eax, DWORD PTR [ecx+4]
  00003	c7 01 00 00 00
	00		 mov	 DWORD PTR [ecx], OFFSET ??_7exception@std@@6B@
  00009	50		 push	 eax
  0000a	e8 00 00 00 00	 call	 ___std_exception_destroy
  0000f	59		 pop	 ecx

; 91   :     }

  00010	c3		 ret	 0
??1exception@std@@UAE@XZ ENDP				; std::exception::~exception
_TEXT	ENDS
; Function compile flags: /Ogtp
; File C:\Program Files (x86)\Microsoft Visual Studio\2019\Community\VC\Tools\MSVC\14.28.29333\include\vcruntime_exception.h
;	COMDAT ??0exception@std@@QAE@ABV01@@Z
_TEXT	SEGMENT
__Other$ = 8						; size = 4
??0exception@std@@QAE@ABV01@@Z PROC			; std::exception::exception, COMDAT
; _this$ = ecx

; 72   :     {

  00000	55		 push	 ebp
  00001	8b ec		 mov	 ebp, esp
  00003	56		 push	 esi
  00004	8b f1		 mov	 esi, ecx
  00006	0f 57 c0	 xorps	 xmm0, xmm0
  00009	8d 46 04	 lea	 eax, DWORD PTR [esi+4]

; 73   :         __std_exception_copy(&_Other._Data, &_Data);

  0000c	50		 push	 eax
  0000d	c7 06 00 00 00
	00		 mov	 DWORD PTR [esi], OFFSET ??_7exception@std@@6B@
  00013	66 0f d6 00	 movq	 QWORD PTR [eax], xmm0
  00017	8b 45 08	 mov	 eax, DWORD PTR __Other$[ebp]
  0001a	83 c0 04	 add	 eax, 4
  0001d	50		 push	 eax
  0001e	e8 00 00 00 00	 call	 ___std_exception_copy
  00023	83 c4 08	 add	 esp, 8

; 74   :     }

  00026	8b c6		 mov	 eax, esi
  00028	5e		 pop	 esi
  00029	5d		 pop	 ebp
  0002a	c2 04 00	 ret	 4
??0exception@std@@QAE@ABV01@@Z ENDP			; std::exception::exception
_TEXT	ENDS
; Function compile flags: /Ogtp
; File C:\Program Files (x86)\Windows Kits\10\Include\10.0.18362.0\ucrt\stdio.h
;	COMDAT _sprintf
_TEXT	SEGMENT
__Buffer$ = 8						; size = 4
__Format$ = 12						; size = 4
_sprintf PROC						; COMDAT

; 1781 :     {

  00000	55		 push	 ebp
  00001	8b ec		 mov	 ebp, esp

; 1390 :         int const _Result = __stdio_common_vsprintf(

  00003	8d 45 10	 lea	 eax, DWORD PTR __Format$[ebp+4]
  00006	50		 push	 eax
  00007	6a 00		 push	 0
  00009	ff 75 0c	 push	 DWORD PTR __Format$[ebp]
  0000c	6a ff		 push	 -1
  0000e	ff 75 08	 push	 DWORD PTR __Buffer$[ebp]
  00011	e8 00 00 00 00	 call	 ___local_stdio_printf_options
  00016	8b 08		 mov	 ecx, DWORD PTR [eax]
  00018	ff 70 04	 push	 DWORD PTR [eax+4]
  0001b	83 c9 01	 or	 ecx, 1
  0001e	51		 push	 ecx
  0001f	e8 00 00 00 00	 call	 ___stdio_common_vsprintf

; 1391 :             _CRT_INTERNAL_LOCAL_PRINTF_OPTIONS | _CRT_INTERNAL_PRINTF_LEGACY_VSPRINTF_NULL_TERMINATION,
; 1392 :             _Buffer, _BufferCount, _Format, _Locale, _ArgList);
; 1393 : 
; 1394 :         return _Result < 0 ? -1 : _Result;

  00024	83 c9 ff	 or	 ecx, -1
  00027	83 c4 1c	 add	 esp, 28			; 0000001cH
  0002a	85 c0		 test	 eax, eax
  0002c	0f 48 c1	 cmovs	 eax, ecx

; 1782 :         int _Result;
; 1783 :         va_list _ArgList;
; 1784 :         __crt_va_start(_ArgList, _Format);
; 1785 : 
; 1786 :         #pragma warning(push)
; 1787 :         #pragma warning(disable: 4996) // Deprecation
; 1788 :         _Result = _vsprintf_l(_Buffer, _Format, NULL, _ArgList);
; 1789 :         #pragma warning(pop)
; 1790 : 
; 1791 :         __crt_va_end(_ArgList);
; 1792 :         return _Result;
; 1793 :     }

  0002f	5d		 pop	 ebp
  00030	c3		 ret	 0
_sprintf ENDP
_TEXT	ENDS
; Function compile flags: /Ogtp
; File C:\Program Files (x86)\Windows Kits\10\Include\10.0.18362.0\ucrt\corecrt_stdio_config.h
;	COMDAT ___local_stdio_printf_options
_TEXT	SEGMENT
___local_stdio_printf_options PROC			; COMDAT

; 87   :         static unsigned __int64 _OptionsStorage;
; 88   :         return &_OptionsStorage;

  00000	b8 00 00 00 00	 mov	 eax, OFFSET ?_OptionsStorage@?1??__local_stdio_printf_options@@9@4_KA ; `__local_stdio_printf_options'::`2'::_OptionsStorage

; 89   :     }

  00005	c3		 ret	 0
___local_stdio_printf_options ENDP
_TEXT	ENDS
; Function compile flags: /Ogtp
; File D:\Metin2 Server Files\mainline\SRC_2014\Metin2Client\UserInterface\PythonCharacterManager.cpp
;	COMDAT ?__empty_global_delete@@YAXPAXI@Z
_TEXT	SEGMENT
___formal$ = 8						; size = 4
___formal$ = 12						; size = 4
?__empty_global_delete@@YAXPAXI@Z PROC			; __empty_global_delete, COMDAT

  00000	c2 00 00	 ret	 0
?__empty_global_delete@@YAXPAXI@Z ENDP			; __empty_global_delete
_TEXT	ENDS
; Function compile flags: /Ogtp
; File D:\Metin2 Server Files\mainline\SRC_2014\Metin2Client\UserInterface\PythonCharacterManager.cpp
;	COMDAT ?__empty_global_delete@@YAXPAX@Z
_TEXT	SEGMENT
___formal$ = 8						; size = 4
?__empty_global_delete@@YAXPAX@Z PROC			; __empty_global_delete, COMDAT

  00000	c2 00 00	 ret	 0
?__empty_global_delete@@YAXPAX@Z ENDP			; __empty_global_delete
_TEXT	ENDS
; Function compile flags: /Ogtp
;	COMDAT ??_H@YGXPAXIIP6EPAX0@Z@Z
_TEXT	SEGMENT
___t$ = 8						; size = 4
___s$ = 12						; size = 4
___n$ = 16						; size = 4
___f$ = 20						; size = 4
??_H@YGXPAXIIP6EPAX0@Z@Z PROC				; `vector constructor iterator', COMDAT
  00000	55		 push	 ebp
  00001	8b ec		 mov	 ebp, esp
  00003	56		 push	 esi
  00004	8b 75 10	 mov	 esi, DWORD PTR ___n$[ebp]
  00007	85 f6		 test	 esi, esi
  00009	74 16		 je	 SHORT $LN6@vector
  0000b	53		 push	 ebx
  0000c	8b 5d 14	 mov	 ebx, DWORD PTR ___f$[ebp]
  0000f	57		 push	 edi
  00010	8b 7d 08	 mov	 edi, DWORD PTR ___t$[ebp]
$LL2@vector:
  00013	8b cf		 mov	 ecx, edi
  00015	ff d3		 call	 ebx
  00017	03 7d 0c	 add	 edi, DWORD PTR ___s$[ebp]
  0001a	83 ee 01	 sub	 esi, 1
  0001d	75 f4		 jne	 SHORT $LL2@vector
  0001f	5f		 pop	 edi
  00020	5b		 pop	 ebx
$LN6@vector:
  00021	5e		 pop	 esi
  00022	5d		 pop	 ebp
  00023	c2 10 00	 ret	 16			; 00000010H
??_H@YGXPAXIIP6EPAX0@Z@Z ENDP				; `vector constructor iterator'
_TEXT	ENDS
END
