; Listing generated by Microsoft (R) Optimizing Compiler Version 19.28.29335.0 

	TITLE	D:\Metin2 Server Files\mainline\SRC_2014\Metin2Client\UserInterface\PythonNetworkStreamModule.cpp
	.686P
	.XMM
	include listing.inc
	.model	flat

INCLUDELIB LIBCMT
INCLUDELIB OLDNAMES

PUBLIC	??_H@YGXPAXIIP6EPAX0@Z@Z			; `vector constructor iterator'
PUBLIC	??0exception@std@@QAE@ABV01@@Z			; std::exception::exception
PUBLIC	??1exception@std@@UAE@XZ			; std::exception::~exception
PUBLIC	?what@exception@std@@UBEPBDXZ			; std::exception::what
PUBLIC	??_Gexception@std@@UAEPAXI@Z			; std::exception::`scalar deleting destructor'
PUBLIC	??0bad_alloc@std@@QAE@ABV01@@Z			; std::bad_alloc::bad_alloc
PUBLIC	??_Gbad_alloc@std@@UAEPAXI@Z			; std::bad_alloc::`scalar deleting destructor'
PUBLIC	??0bad_array_new_length@std@@QAE@XZ		; std::bad_array_new_length::bad_array_new_length
PUBLIC	??1bad_array_new_length@std@@UAE@XZ		; std::bad_array_new_length::~bad_array_new_length
PUBLIC	??0bad_array_new_length@std@@QAE@ABV01@@Z	; std::bad_array_new_length::bad_array_new_length
PUBLIC	??_Gbad_array_new_length@std@@UAEPAXI@Z		; std::bad_array_new_length::`scalar deleting destructor'
PUBLIC	?_Throw_bad_array_new_length@std@@YAXXZ		; std::_Throw_bad_array_new_length
PUBLIC	?_Xlen_string@std@@YAXXZ			; std::_Xlen_string
PUBLIC	??0?$basic_string@DU?$char_traits@D@std@@V?$allocator@D@2@@std@@QAE@ABV01@@Z ; std::basic_string<char,std::char_traits<char>,std::allocator<char> >::basic_string<char,std::char_traits<char>,std::allocator<char> >
PUBLIC	??1?$basic_string@DU?$char_traits@D@std@@V?$allocator@D@2@@std@@QAE@XZ ; std::basic_string<char,std::char_traits<char>,std::allocator<char> >::~basic_string<char,std::char_traits<char>,std::allocator<char> >
PUBLIC	?assign@?$basic_string@DU?$char_traits@D@std@@V?$allocator@D@2@@std@@QAEAAV12@QBDI@Z ; std::basic_string<char,std::char_traits<char>,std::allocator<char> >::assign
PUBLIC	??1?$vector@KV?$allocator@K@std@@@std@@QAE@XZ	; std::vector<unsigned long,std::allocator<unsigned long> >::~vector<unsigned long,std::allocator<unsigned long> >
PUBLIC	?_Xlength@?$vector@KV?$allocator@K@std@@@std@@CAXXZ ; std::vector<unsigned long,std::allocator<unsigned long> >::_Xlength
PUBLIC	??0SItemPos@@QAE@XZ				; SItemPos::SItemPos
PUBLIC	?initnet@@YAXXZ					; initnet
PUBLIC	??$_Destroy_in_place@PAD@std@@YAXAAPAD@Z	; std::_Destroy_in_place<char *>
PUBLIC	??$_Construct_in_place@PADABQAD@std@@YAXAAPADABQAD@Z ; std::_Construct_in_place<char *,char * const &>
PUBLIC	??$_Deallocate@$07$0A@@std@@YAXPAXI@Z		; std::_Deallocate<8,0>
PUBLIC	??$_Allocate@$07U_Default_allocate_traits@std@@$0A@@std@@YAPAXI@Z ; std::_Allocate<8,std::_Default_allocate_traits,0>
PUBLIC	??$_Allocate_manually_vector_aligned@U_Default_allocate_traits@std@@@std@@YAPAXI@Z ; std::_Allocate_manually_vector_aligned<std::_Default_allocate_traits>
PUBLIC	?netGetBettingGuildWarValue@@YAPAU_object@@PAU1@0@Z ; netGetBettingGuildWarValue
PUBLIC	?netSetServerInfo@@YAPAU_object@@PAU1@0@Z	; netSetServerInfo
PUBLIC	?netGetServerInfo@@YAPAU_object@@PAU1@0@Z	; netGetServerInfo
PUBLIC	?netPreserveServerCommand@@YAPAU_object@@PAU1@0@Z ; netPreserveServerCommand
PUBLIC	?netGetPreservedServerCommand@@YAPAU_object@@PAU1@0@Z ; netGetPreservedServerCommand
PUBLIC	?netStartGame@@YAPAU_object@@PAU1@0@Z		; netStartGame
PUBLIC	?netIsTest@@YAPAU_object@@PAU1@0@Z		; netIsTest
PUBLIC	?netWarp@@YAPAU_object@@PAU1@0@Z		; netWarp
PUBLIC	?netLoadInsultList@@YAPAU_object@@PAU1@0@Z	; netLoadInsultList
PUBLIC	?netUploadMark@@YAPAU_object@@PAU1@0@Z		; netUploadMark
PUBLIC	?netUploadSymbol@@YAPAU_object@@PAU1@0@Z	; netUploadSymbol
PUBLIC	?netGetGuildID@@YAPAU_object@@PAU1@0@Z		; netGetGuildID
PUBLIC	?netGetEmpireID@@YAPAU_object@@PAU1@0@Z		; netGetEmpireID
PUBLIC	?netGetMainActorVID@@YAPAU_object@@PAU1@0@Z	; netGetMainActorVID
PUBLIC	?netGetMainActorRace@@YAPAU_object@@PAU1@0@Z	; netGetMainActorRace
PUBLIC	?netGetMainActorEmpire@@YAPAU_object@@PAU1@0@Z	; netGetMainActorEmpire
PUBLIC	?netGetMainActorSkillGroup@@YAPAU_object@@PAU1@0@Z ; netGetMainActorSkillGroup
PUBLIC	?netIsSelectedEmpire@@YAPAU_object@@PAU1@0@Z	; netIsSelectedEmpire
PUBLIC	?netGetAccountCharacterSlotDataInteger@@YAPAU_object@@PAU1@0@Z ; netGetAccountCharacterSlotDataInteger
PUBLIC	?netGetAccountCharacterSlotDataString@@YAPAU_object@@PAU1@0@Z ; netGetAccountCharacterSlotDataString
PUBLIC	?netGetFieldMusicFileName@@YAPAU_object@@PAU1@0@Z ; netGetFieldMusicFileName
PUBLIC	?netGetFieldMusicVolume@@YAPAU_object@@PAU1@0@Z	; netGetFieldMusicVolume
PUBLIC	?netSetPhaseWindow@@YAPAU_object@@PAU1@0@Z	; netSetPhaseWindow
PUBLIC	?netClearPhaseWindow@@YAPAU_object@@PAU1@0@Z	; netClearPhaseWindow
PUBLIC	?netSetServerCommandParserWindow@@YAPAU_object@@PAU1@0@Z ; netSetServerCommandParserWindow
PUBLIC	?netSetAccountConnectorHandler@@YAPAU_object@@PAU1@0@Z ; netSetAccountConnectorHandler
PUBLIC	?netSetHandler@@YAPAU_object@@PAU1@0@Z		; netSetHandler
PUBLIC	?netSetTCPRecvBufferSize@@YAPAU_object@@PAU1@0@Z ; netSetTCPRecvBufferSize
PUBLIC	?netSetTCPSendBufferSize@@YAPAU_object@@PAU1@0@Z ; netSetTCPSendBufferSize
PUBLIC	?netSetUDPRecvBufferSize@@YAPAU_object@@PAU1@0@Z ; netSetUDPRecvBufferSize
PUBLIC	?netSetMarkServer@@YAPAU_object@@PAU1@0@Z	; netSetMarkServer
PUBLIC	?netConnectTCP@@YAPAU_object@@PAU1@0@Z		; netConnectTCP
PUBLIC	?netConnectUDP@@YAPAU_object@@PAU1@0@Z		; netConnectUDP
PUBLIC	?netConnectToAccountServer@@YAPAU_object@@PAU1@0@Z ; netConnectToAccountServer
PUBLIC	?netSetLoginInfo@@YAPAU_object@@PAU1@0@Z	; netSetLoginInfo
PUBLIC	?netSetOfflinePhase@@YAPAU_object@@PAU1@0@Z	; netSetOfflinePhase
PUBLIC	?netSendSelectEmpirePacket@@YAPAU_object@@PAU1@0@Z ; netSendSelectEmpirePacket
PUBLIC	?netSendLoginPacket@@YAPAU_object@@PAU1@0@Z	; netSendLoginPacket
PUBLIC	?netSendChinaMatrixCardPacket@@YAPAU_object@@PAU1@0@Z ; netSendChinaMatrixCardPacket
PUBLIC	?netSendRunupMatrixCardPacket@@YAPAU_object@@PAU1@0@Z ; netSendRunupMatrixCardPacket
PUBLIC	?netSendNEWCIBNPasspodAnswerPacket@@YAPAU_object@@PAU1@0@Z ; netSendNEWCIBNPasspodAnswerPacket
PUBLIC	?netDirectEnter@@YAPAU_object@@PAU1@0@Z		; netDirectEnter
PUBLIC	?netSendSelectCharacterPacket@@YAPAU_object@@PAU1@0@Z ; netSendSelectCharacterPacket
PUBLIC	?netSendChangeNamePacket@@YAPAU_object@@PAU1@0@Z ; netSendChangeNamePacket
PUBLIC	?netEnableChatInsultFilter@@YAPAU_object@@PAU1@0@Z ; netEnableChatInsultFilter
PUBLIC	?netIsChatInsultIn@@YAPAU_object@@PAU1@0@Z	; netIsChatInsultIn
PUBLIC	?netIsInsultIn@@YAPAU_object@@PAU1@0@Z		; netIsInsultIn
PUBLIC	?netSendWhisperPacket@@YAPAU_object@@PAU1@0@Z	; netSendWhisperPacket
PUBLIC	?netSendMobileMessagePacket@@YAPAU_object@@PAU1@0@Z ; netSendMobileMessagePacket
PUBLIC	?netSendCharacterPositionPacket@@YAPAU_object@@PAU1@0@Z ; netSendCharacterPositionPacket
PUBLIC	?netSendChatPacket@@YAPAU_object@@PAU1@0@Z	; netSendChatPacket
PUBLIC	?netSendEmoticon@@YAPAU_object@@PAU1@0@Z	; netSendEmoticon
PUBLIC	?netSendCreateCharacterPacket@@YAPAU_object@@PAU1@0@Z ; netSendCreateCharacterPacket
PUBLIC	?netSendDestroyCharacterPacket@@YAPAU_object@@PAU1@0@Z ; netSendDestroyCharacterPacket
PUBLIC	?netSendEnterGamePacket@@YAPAU_object@@PAU1@0@Z	; netSendEnterGamePacket
PUBLIC	?netOnClickPacket@@YAPAU_object@@PAU1@0@Z	; netOnClickPacket
PUBLIC	?netSendItemUsePacket@@YAPAU_object@@PAU1@0@Z	; netSendItemUsePacket
PUBLIC	?netSendItemUseToItemPacket@@YAPAU_object@@PAU1@0@Z ; netSendItemUseToItemPacket
PUBLIC	?netSendItemDropPacket@@YAPAU_object@@PAU1@0@Z	; netSendItemDropPacket
PUBLIC	?netSendItemDropPacketNew@@YAPAU_object@@PAU1@0@Z ; netSendItemDropPacketNew
PUBLIC	?netSendElkDropPacket@@YAPAU_object@@PAU1@0@Z	; netSendElkDropPacket
PUBLIC	?netSendGoldDropPacketNew@@YAPAU_object@@PAU1@0@Z ; netSendGoldDropPacketNew
PUBLIC	?netSendItemMovePacket@@YAPAU_object@@PAU1@0@Z	; netSendItemMovePacket
PUBLIC	?netSendItemPickUpPacket@@YAPAU_object@@PAU1@0@Z ; netSendItemPickUpPacket
PUBLIC	?netSendGiveItemPacket@@YAPAU_object@@PAU1@0@Z	; netSendGiveItemPacket
PUBLIC	?netSendShopEndPacket@@YAPAU_object@@PAU1@0@Z	; netSendShopEndPacket
PUBLIC	?netSendShopBuyPacket@@YAPAU_object@@PAU1@0@Z	; netSendShopBuyPacket
PUBLIC	?netSendShopSellPacket@@YAPAU_object@@PAU1@0@Z	; netSendShopSellPacket
PUBLIC	?netSendShopSellPacketNew@@YAPAU_object@@PAU1@0@Z ; netSendShopSellPacketNew
PUBLIC	?netSendExchangeStartPacket@@YAPAU_object@@PAU1@0@Z ; netSendExchangeStartPacket
PUBLIC	?netSendExchangeElkAddPacket@@YAPAU_object@@PAU1@0@Z ; netSendExchangeElkAddPacket
PUBLIC	?netSendExchangeItemAddPacket@@YAPAU_object@@PAU1@0@Z ; netSendExchangeItemAddPacket
PUBLIC	?netSendExchangeItemDelPacket@@YAPAU_object@@PAU1@0@Z ; netSendExchangeItemDelPacket
PUBLIC	?netSendExchangeAcceptPacket@@YAPAU_object@@PAU1@0@Z ; netSendExchangeAcceptPacket
PUBLIC	?netSendExchangeExitPacket@@YAPAU_object@@PAU1@0@Z ; netSendExchangeExitPacket
PUBLIC	?netExitApplication@@YAPAU_object@@PAU1@0@Z	; netExitApplication
PUBLIC	?netExitGame@@YAPAU_object@@PAU1@0@Z		; netExitGame
PUBLIC	?netLogOutGame@@YAPAU_object@@PAU1@0@Z		; netLogOutGame
PUBLIC	?netDisconnect@@YAPAU_object@@PAU1@0@Z		; netDisconnect
PUBLIC	?netIsConnect@@YAPAU_object@@PAU1@0@Z		; netIsConnect
PUBLIC	?netToggleGameDebugInfo@@YAPAU_object@@PAU1@0@Z	; netToggleGameDebugInfo
PUBLIC	?netRegisterEmoticonString@@YAPAU_object@@PAU1@0@Z ; netRegisterEmoticonString
PUBLIC	?netSendMessengerAddByVIDPacket@@YAPAU_object@@PAU1@0@Z ; netSendMessengerAddByVIDPacket
PUBLIC	?netSendMessengerAddByNamePacket@@YAPAU_object@@PAU1@0@Z ; netSendMessengerAddByNamePacket
PUBLIC	?netSendMessengerRemovePacket@@YAPAU_object@@PAU1@0@Z ; netSendMessengerRemovePacket
PUBLIC	?netSendPartyInvitePacket@@YAPAU_object@@PAU1@0@Z ; netSendPartyInvitePacket
PUBLIC	?netSendPartyInviteAnswerPacket@@YAPAU_object@@PAU1@0@Z ; netSendPartyInviteAnswerPacket
PUBLIC	?netSendPartyExitPacket@@YAPAU_object@@PAU1@0@Z	; netSendPartyExitPacket
PUBLIC	?netSendPartyRemovePacket@@YAPAU_object@@PAU1@0@Z ; netSendPartyRemovePacket
PUBLIC	?netSendPartySetStatePacket@@YAPAU_object@@PAU1@0@Z ; netSendPartySetStatePacket
PUBLIC	?netSendPartyUseSkillPacket@@YAPAU_object@@PAU1@0@Z ; netSendPartyUseSkillPacket
PUBLIC	?netSendPartyParameterPacket@@YAPAU_object@@PAU1@0@Z ; netSendPartyParameterPacket
PUBLIC	?netSendSafeboxSaveMoneyPacket@@YAPAU_object@@PAU1@0@Z ; netSendSafeboxSaveMoneyPacket
PUBLIC	?netSendSafeboxWithdrawMoneyPacket@@YAPAU_object@@PAU1@0@Z ; netSendSafeboxWithdrawMoneyPacket
PUBLIC	?netSendSafeboxCheckinPacket@@YAPAU_object@@PAU1@0@Z ; netSendSafeboxCheckinPacket
PUBLIC	?netSendSafeboxCheckoutPacket@@YAPAU_object@@PAU1@0@Z ; netSendSafeboxCheckoutPacket
PUBLIC	?netSendSafeboxItemMovePacket@@YAPAU_object@@PAU1@0@Z ; netSendSafeboxItemMovePacket
PUBLIC	?netSendMallCheckoutPacket@@YAPAU_object@@PAU1@0@Z ; netSendMallCheckoutPacket
PUBLIC	?netSendAnswerMakeGuildPacket@@YAPAU_object@@PAU1@0@Z ; netSendAnswerMakeGuildPacket
PUBLIC	?netSendQuestInputStringPacket@@YAPAU_object@@PAU1@0@Z ; netSendQuestInputStringPacket
PUBLIC	?netSendQuestConfirmPacket@@YAPAU_object@@PAU1@0@Z ; netSendQuestConfirmPacket
PUBLIC	?netSendGuildAddMemberPacket@@YAPAU_object@@PAU1@0@Z ; netSendGuildAddMemberPacket
PUBLIC	?netSendGuildRemoveMemberPacket@@YAPAU_object@@PAU1@0@Z ; netSendGuildRemoveMemberPacket
PUBLIC	?netSendGuildChangeGradeNamePacket@@YAPAU_object@@PAU1@0@Z ; netSendGuildChangeGradeNamePacket
PUBLIC	?netSendGuildChangeGradeAuthorityPacket@@YAPAU_object@@PAU1@0@Z ; netSendGuildChangeGradeAuthorityPacket
PUBLIC	?netSendGuildOfferPacket@@YAPAU_object@@PAU1@0@Z ; netSendGuildOfferPacket
PUBLIC	?netSnedGuildPostCommentPacket@@YAPAU_object@@PAU1@0@Z ; netSnedGuildPostCommentPacket
PUBLIC	?netSnedGuildDeleteCommentPacket@@YAPAU_object@@PAU1@0@Z ; netSnedGuildDeleteCommentPacket
PUBLIC	?netSendGuildRefreshCommentsPacket@@YAPAU_object@@PAU1@0@Z ; netSendGuildRefreshCommentsPacket
PUBLIC	?netSendGuildChangeMemberGradePacket@@YAPAU_object@@PAU1@0@Z ; netSendGuildChangeMemberGradePacket
PUBLIC	?netSendGuildUseSkillPacket@@YAPAU_object@@PAU1@0@Z ; netSendGuildUseSkillPacket
PUBLIC	?netSendGuildChangeMemberGeneralPacket@@YAPAU_object@@PAU1@0@Z ; netSendGuildChangeMemberGeneralPacket
PUBLIC	?netSendGuildInviteAnswerPacket@@YAPAU_object@@PAU1@0@Z ; netSendGuildInviteAnswerPacket
PUBLIC	?netSendGuildChargeGSPPacket@@YAPAU_object@@PAU1@0@Z ; netSendGuildChargeGSPPacket
PUBLIC	?netSendGuildDepositMoneyPacket@@YAPAU_object@@PAU1@0@Z ; netSendGuildDepositMoneyPacket
PUBLIC	?netSendGuildWithdrawMoneyPacket@@YAPAU_object@@PAU1@0@Z ; netSendGuildWithdrawMoneyPacket
PUBLIC	?netSendRequestRefineInfoPacket@@YAPAU_object@@PAU1@0@Z ; netSendRequestRefineInfoPacket
PUBLIC	?netSendRefinePacket@@YAPAU_object@@PAU1@0@Z	; netSendRefinePacket
PUBLIC	?netSendSelectItemPacket@@YAPAU_object@@PAU1@0@Z ; netSendSelectItemPacket
PUBLIC	?netSetPacketSequenceMode@@YAPAU_object@@PAU1@0@Z ; netSetPacketSequenceMode
PUBLIC	?netSetEmpireLanguageMode@@YAPAU_object@@PAU1@0@Z ; netSetEmpireLanguageMode
PUBLIC	?netSetSkillGroupFake@@YAPAU_object@@PAU1@0@Z	; netSetSkillGroupFake
PUBLIC	?netSendGuildSymbol@@YAPAU_object@@PAU1@0@Z	; netSendGuildSymbol
PUBLIC	?netDisconnectUploader@@YAPAU_object@@PAU1@0@Z	; netDisconnectUploader
PUBLIC	?netRecvGuildSymbol@@YAPAU_object@@PAU1@0@Z	; netRecvGuildSymbol
PUBLIC	?netRegisterErrorLog@@YAPAU_object@@PAU1@0@Z	; netRegisterErrorLog
PUBLIC	??$_Emplace_reallocate@ABK@?$vector@KV?$allocator@K@std@@@std@@QAEPAKQAKABK@Z ; std::vector<unsigned long,std::allocator<unsigned long> >::_Emplace_reallocate<unsigned long const &>
PUBLIC	??$_Construct_in_place@PAU?$_List_node@V?$basic_string@DU?$char_traits@D@std@@V?$allocator@D@2@@std@@PAX@std@@AAPAU12@@std@@YAXAAPAU?$_List_node@V?$basic_string@DU?$char_traits@D@std@@V?$allocator@D@2@@std@@PAX@0@0@Z ; std::_Construct_in_place<std::_List_node<std::basic_string<char,std::char_traits<char>,std::allocator<char> >,void *> *,std::_List_node<std::basic_string<char,std::char_traits<char>,std::allocator<char> >,void *> * &>
PUBLIC	??$_Destroy_range@V?$allocator@K@std@@@std@@YAXPAKQAKAAV?$allocator@K@0@@Z ; std::_Destroy_range<std::allocator<unsigned long> >
PUBLIC	??1?$_Alloc_construct_ptr@V?$allocator@U?$_List_node@V?$basic_string@DU?$char_traits@D@std@@V?$allocator@D@2@@std@@PAX@std@@@std@@@std@@QAE@XZ ; std::_Alloc_construct_ptr<std::allocator<std::_List_node<std::basic_string<char,std::char_traits<char>,std::allocator<char> >,void *> > >::~_Alloc_construct_ptr<std::allocator<std::_List_node<std::basic_string<char,std::char_traits<char>,std::allocator<char> >,void *> > >
PUBLIC	??$_Destroy_in_place@PAU?$_List_node@V?$basic_string@DU?$char_traits@D@std@@V?$allocator@D@2@@std@@PAX@std@@@std@@YAXAAPAU?$_List_node@V?$basic_string@DU?$char_traits@D@std@@V?$allocator@D@2@@std@@PAX@0@@Z ; std::_Destroy_in_place<std::_List_node<std::basic_string<char,std::char_traits<char>,std::allocator<char> >,void *> *>
PUBLIC	??$_Construct_in_place@PAU?$_List_node@V?$basic_string@DU?$char_traits@D@std@@V?$allocator@D@2@@std@@PAX@std@@ABQAU12@@std@@YAXAAPAU?$_List_node@V?$basic_string@DU?$char_traits@D@std@@V?$allocator@D@2@@std@@PAX@0@ABQAU10@@Z ; std::_Construct_in_place<std::_List_node<std::basic_string<char,std::char_traits<char>,std::allocator<char> >,void *> *,std::_List_node<std::basic_string<char,std::char_traits<char>,std::allocator<char> >,void *> * const &>
PUBLIC	??$_Uninitialized_move@PAKV?$allocator@K@std@@@std@@YAPAKQAK0PAKAAV?$allocator@K@0@@Z ; std::_Uninitialized_move<unsigned long *,std::allocator<unsigned long> >
PUBLIC	??$_Copy_memmove@PAKPAK@std@@YAPAKPAK00@Z	; std::_Copy_memmove<unsigned long *,unsigned long *>
PUBLIC	??_7exception@std@@6B@				; std::exception::`vftable'
PUBLIC	??_C@_0BC@EOODALEL@Unknown?5exception@		; `string'
PUBLIC	??_7bad_alloc@std@@6B@				; std::bad_alloc::`vftable'
PUBLIC	??_7bad_array_new_length@std@@6B@		; std::bad_array_new_length::`vftable'
PUBLIC	??_C@_0BF@KINCDENJ@bad?5array?5new?5length@	; `string'
PUBLIC	__TI3?AVbad_array_new_length@std@@
PUBLIC	__CTA3?AVbad_array_new_length@std@@
PUBLIC	??_R0?AVbad_array_new_length@std@@@8		; std::bad_array_new_length `RTTI Type Descriptor'
PUBLIC	__CT??_R0?AVbad_array_new_length@std@@@8??0bad_array_new_length@std@@QAE@ABV01@@Z12
PUBLIC	??_R0?AVbad_alloc@std@@@8			; std::bad_alloc `RTTI Type Descriptor'
PUBLIC	__CT??_R0?AVbad_alloc@std@@@8??0bad_alloc@std@@QAE@ABV01@@Z12
PUBLIC	??_R0?AVexception@std@@@8			; std::exception `RTTI Type Descriptor'
PUBLIC	__CT??_R0?AVexception@std@@@8??0exception@std@@QAE@ABV01@@Z12
PUBLIC	??_C@_0BA@JFNIOLAK@string?5too?5long@		; `string'
PUBLIC	??_C@_00CNPNBAHC@@				; `string'
PUBLIC	??_C@_0BA@FOIKENOD@vector?5too?5long@		; `string'
PUBLIC	??_R4exception@std@@6B@				; std::exception::`RTTI Complete Object Locator'
PUBLIC	??_R3exception@std@@8				; std::exception::`RTTI Class Hierarchy Descriptor'
PUBLIC	??_R2exception@std@@8				; std::exception::`RTTI Base Class Array'
PUBLIC	??_R1A@?0A@EA@exception@std@@8			; std::exception::`RTTI Base Class Descriptor at (0,-1,0,64)'
PUBLIC	??_R4bad_alloc@std@@6B@				; std::bad_alloc::`RTTI Complete Object Locator'
PUBLIC	??_R3bad_alloc@std@@8				; std::bad_alloc::`RTTI Class Hierarchy Descriptor'
PUBLIC	??_R2bad_alloc@std@@8				; std::bad_alloc::`RTTI Base Class Array'
PUBLIC	??_R1A@?0A@EA@bad_alloc@std@@8			; std::bad_alloc::`RTTI Base Class Descriptor at (0,-1,0,64)'
PUBLIC	??_R4bad_array_new_length@std@@6B@		; std::bad_array_new_length::`RTTI Complete Object Locator'
PUBLIC	??_R3bad_array_new_length@std@@8		; std::bad_array_new_length::`RTTI Class Hierarchy Descriptor'
PUBLIC	??_R2bad_array_new_length@std@@8		; std::bad_array_new_length::`RTTI Base Class Array'
PUBLIC	??_R1A@?0A@EA@bad_array_new_length@std@@8	; std::bad_array_new_length::`RTTI Base Class Descriptor at (0,-1,0,64)'
PUBLIC	?ms_singleton@?$CSingleton@VCPythonNetworkStream@@@@0PAVCPythonNetworkStream@@A ; CSingleton<CPythonNetworkStream>::ms_singleton
PUBLIC	?ms_singleton@?$CSingleton@VCAccountConnector@@@@0PAVCAccountConnector@@A ; CSingleton<CAccountConnector>::ms_singleton
PUBLIC	?ms_singleton@?$CSingleton@VCPythonGuild@@@@0PAVCPythonGuild@@A ; CSingleton<CPythonGuild>::ms_singleton
PUBLIC	?ms_singleton@?$TAbstractSingleton@VIAbstractPlayer@@@@0PAVIAbstractPlayer@@A ; TAbstractSingleton<IAbstractPlayer>::ms_singleton
PUBLIC	?g_kList_strCommand@@3V?$list@V?$basic_string@DU?$char_traits@D@std@@V?$allocator@D@2@@std@@V?$allocator@V?$basic_string@DU?$char_traits@D@std@@V?$allocator@D@2@@std@@@2@@std@@A ; g_kList_strCommand
PUBLIC	??_C@_01KBJDNOO@i@				; `string'
PUBLIC	??_C@_01LKDEMHDF@s@				; `string'
PUBLIC	??_C@_01INIBCBCB@f@				; `string'
PUBLIC	??_C@_0EE@CPCFCFHF@netSendGuildRemoveMemberPacket?$CI@ ; `string'
PUBLIC	?ms_singleton@?$CSingleton@VCGuildMarkUploader@@@@0PAVCGuildMarkUploader@@A ; CSingleton<CGuildMarkUploader>::ms_singleton
PUBLIC	?ms_singleton@?$CSingleton@VCGuildMarkDownloader@@@@0PAVCGuildMarkDownloader@@A ; CSingleton<CGuildMarkDownloader>::ms_singleton
PUBLIC	??_C@_0BI@HFMJEOAC@GetBettingGuildWarValue@	; `string'
PUBLIC	??_C@_0BH@LKCAJGCH@EnableChatInsultFilter@	; `string'
PUBLIC	??_C@_0O@JMAHAJJH@SetServerInfo@		; `string'
PUBLIC	??_C@_0O@ODBJLKOA@GetServerInfo@		; `string'
PUBLIC	??_C@_0BG@NJCKCHAI@PreserveServerCommand@	; `string'
PUBLIC	??_C@_0BK@PJDKKIPH@GetPreservedServerCommand@	; `string'
PUBLIC	??_C@_09CFNAMFEF@StartGame@			; `string'
PUBLIC	??_C@_04EIDOEOJH@Warp@				; `string'
PUBLIC	??_C@_06OCDJGLIF@IsTest@			; `string'
PUBLIC	??_C@_0O@OFMEOEDD@SetMarkServer@		; `string'
PUBLIC	??_C@_0P@EPNPIBON@IsChatInsultIn@		; `string'
PUBLIC	??_C@_0L@CJJGFLBC@IsInsultIn@			; `string'
PUBLIC	??_C@_0P@NAIDDMMD@LoadInsultList@		; `string'
PUBLIC	??_C@_0L@JEGFHCJL@UploadMark@			; `string'
PUBLIC	??_C@_0N@OBKBFHKO@UploadSymbol@			; `string'
PUBLIC	??_C@_0L@EAKBLDCO@GetGuildID@			; `string'
PUBLIC	??_C@_0M@GGDMINDM@GetEmpireID@			; `string'
PUBLIC	??_C@_0BA@BPHKBGOL@GetMainActorVID@		; `string'
PUBLIC	??_C@_0BB@ICEJKPHA@GetMainActorRace@		; `string'
PUBLIC	??_C@_0BD@JOIEFGML@GetMainActorEmpire@		; `string'
PUBLIC	??_C@_0BH@GCCMJIJB@GetMainActorSkillGroup@	; `string'
PUBLIC	??_C@_0CD@PJJNPONG@GetAccountCharacterSlotDataInte@ ; `string'
PUBLIC	??_C@_0CC@DLIFIOE@GetAccountCharacterSlotDataStri@ ; `string'
PUBLIC	??_C@_0BG@NAMIDKHD@GetFieldMusicFileName@	; `string'
PUBLIC	??_C@_0BE@MHKBLINM@GetFieldMusicVolume@		; `string'
PUBLIC	??_C@_0BE@BCCLDKB@ToggleGameDebugInfo@		; `string'
PUBLIC	??_C@_0N@GLEGMFLM@SetLoginInfo@			; `string'
PUBLIC	??_C@_0P@EKNNFAK@SetPhaseWindow@		; `string'
PUBLIC	??_C@_0BB@NNDKGCIK@ClearPhaseWindow@		; `string'
PUBLIC	??_C@_0BN@KOOLAHFA@SetServerCommandParserWindow@ ; `string'
PUBLIC	??_C@_0BL@NJAILJBB@SetAccountConnectorHandler@	; `string'
PUBLIC	??_C@_0L@EELFNDHB@SetHandler@			; `string'
PUBLIC	??_C@_0BF@KAEIEPML@SetTCPRecvBufferSize@	; `string'
PUBLIC	??_C@_0BF@LOLMIHDO@SetTCPSendBufferSize@	; `string'
PUBLIC	??_C@_0BF@GPIIIFGB@SetUDPRecvBufferSize@	; `string'
PUBLIC	??_C@_0M@PAACKIAL@DirectEnter@			; `string'
PUBLIC	??_C@_0L@LPFGMFBP@LogOutGame@			; `string'
PUBLIC	??_C@_08ENBHLCHD@ExitGame@			; `string'
PUBLIC	??_C@_0BA@ILFBLEPH@ExitApplication@		; `string'
PUBLIC	??_C@_0L@HNEKCIDO@ConnectTCP@			; `string'
PUBLIC	??_C@_0L@MALJFJNO@ConnectUDP@			; `string'
PUBLIC	??_C@_0BH@CIOLKAIG@ConnectToAccountServer@	; `string'
PUBLIC	??_C@_0BA@CNDIKGCL@SendLoginPacket@		; `string'
PUBLIC	??_C@_0BK@GJKBNMLJ@SendChinaMatrixCardPacket@	; `string'
PUBLIC	??_C@_0BK@KNELICML@SendRunupMatrixCardPacket@	; `string'
PUBLIC	??_C@_0BP@JFBAGMPA@SendNEWCIBNPasspodAnswerPacket@ ; `string'
PUBLIC	??_C@_0BH@IIELEKKA@SendSelectEmpirePacket@	; `string'
PUBLIC	??_C@_0BK@MIKAHKDI@SendSelectCharacterPacket@	; `string'
PUBLIC	??_C@_0BF@ODLJDBF@SendChangeNamePacket@		; `string'
PUBLIC	??_C@_0BK@NPKEAJJ@SendCreateCharacterPacket@	; `string'
PUBLIC	??_C@_0BL@PMHPNGGJ@SendDestroyCharacterPacket@	; `string'
PUBLIC	??_C@_0BE@NBECPFPH@SendEnterGamePacket@		; `string'
PUBLIC	??_C@_0BC@NHAKBOCP@SendItemUsePacket@		; `string'
PUBLIC	??_C@_0BI@OBDMDOIB@SendItemUseToItemPacket@	; `string'
PUBLIC	??_C@_0BD@ICCAOJBA@SendItemDropPacket@		; `string'
PUBLIC	??_C@_0BG@PNFNACGL@SendItemDropPacketNew@	; `string'
PUBLIC	??_C@_0BC@NEDFAOHK@SendElkDropPacket@		; `string'
PUBLIC	??_C@_0BG@ONKCIEDE@SendGoldDropPacketNew@	; `string'
PUBLIC	??_C@_0BD@BPAFBGKI@SendItemMovePacket@		; `string'
PUBLIC	??_C@_0BF@PJHEIMI@SendItemPickUpPacket@		; `string'
PUBLIC	??_C@_0BD@FMAJCJM@SendGiveItemPacket@		; `string'
PUBLIC	??_C@_0BA@NKMDDBDL@SetOfflinePhase@		; `string'
PUBLIC	??_C@_0L@CMGJAGDM@Disconnect@			; `string'
PUBLIC	??_C@_09HENONEEN@IsConnect@			; `string'
PUBLIC	??_C@_0P@FJOINOIH@SendChatPacket@		; `string'
PUBLIC	??_C@_0N@BJHGOHPC@SendEmoticon@			; `string'
PUBLIC	??_C@_0BC@KNMEABPD@SendWhisperPacket@		; `string'
PUBLIC	??_C@_0BI@BFCIMAOL@SendMobileMessagePacket@	; `string'
PUBLIC	??_C@_0BM@KAMAKIKL@SendCharacterPositionPacket@	; `string'
PUBLIC	??_C@_0BC@HEOMKCAE@SendShopEndPacket@		; `string'
PUBLIC	??_C@_0BC@FPBLEBCL@SendShopBuyPacket@		; `string'
PUBLIC	??_C@_0BD@BFMEHPEE@SendShopSellPacket@		; `string'
PUBLIC	??_C@_0BG@BGJEIPGN@SendShopSellPacketNew@	; `string'
PUBLIC	??_C@_0BI@BGNKGFKO@SendExchangeStartPacket@	; `string'
PUBLIC	??_C@_0BK@IIFDLCNA@SendExchangeItemAddPacket@	; `string'
PUBLIC	??_C@_0BK@KKOEHGGC@SendExchangeItemDelPacket@	; `string'
PUBLIC	??_C@_0BJ@CGGGIOGM@SendExchangeElkAddPacket@	; `string'
PUBLIC	??_C@_0BJ@OFKJBLDC@SendExchangeAcceptPacket@	; `string'
PUBLIC	??_C@_0BH@NCONKHHB@SendExchangeExitPacket@	; `string'
PUBLIC	??_C@_0BC@FMJHAGEI@SendOnClickPacket@		; `string'
PUBLIC	??_C@_0BH@MCKLKDJM@RegisterEmoticonString@	; `string'
PUBLIC	??_C@_0BM@CFLPIFFM@SendMessengerAddByVIDPacket@	; `string'
PUBLIC	??_C@_0BN@MPMOLLL@SendMessengerAddByNamePacket@	; `string'
PUBLIC	??_C@_0BK@GIIDGGBB@SendMessengerRemovePacket@	; `string'
PUBLIC	??_C@_0BG@IFGKMOED@SendPartyInvitePacket@	; `string'
PUBLIC	??_C@_0BM@PFAFFBJO@SendPartyInviteAnswerPacket@	; `string'
PUBLIC	??_C@_0BE@JHFPDGFP@SendPartyExitPacket@		; `string'
PUBLIC	??_C@_0BG@JAJGIHK@SendPartyRemovePacket@	; `string'
PUBLIC	??_C@_0BI@LNEGCCFH@SendPartySetStatePacket@	; `string'
PUBLIC	??_C@_0BI@EONDHFJL@SendPartyUseSkillPacket@	; `string'
PUBLIC	??_C@_0BJ@JGBOMHFI@SendPartyParameterPacket@	; `string'
PUBLIC	??_C@_0BL@CAAOLIHO@SendSafeboxSaveMoneyPacket@	; `string'
PUBLIC	??_C@_0BP@MLAJADAA@SendSafeboxWithdrawMoneyPacket@ ; `string'
PUBLIC	??_C@_0BJ@HNJCKALG@SendSafeboxCheckinPacket@	; `string'
PUBLIC	??_C@_0BK@LJAMACPE@SendSafeboxCheckoutPacket@	; `string'
PUBLIC	??_C@_0BK@JMMAEJFJ@SendSafeboxItemMovePacket@	; `string'
PUBLIC	??_C@_0BH@BDNDNKGE@SendMallCheckoutPacket@	; `string'
PUBLIC	??_C@_0BK@HLNHPAPM@SendAnswerMakeGuildPacket@	; `string'
PUBLIC	??_C@_0BL@BJLFPMAE@SendQuestInputStringPacket@	; `string'
PUBLIC	??_C@_0BH@HMDNFHNB@SendQuestConfirmPacket@	; `string'
PUBLIC	??_C@_0BJ@MFJNIJIJ@SendGuildAddMemberPacket@	; `string'
PUBLIC	??_C@_0BM@GAJEHHNG@SendGuildRemoveMemberPacket@	; `string'
PUBLIC	??_C@_0BP@ODLEJFMG@SendGuildChangeGradeNamePacket@ ; `string'
PUBLIC	??_C@_0CE@EFLFPPCO@SendGuildChangeGradeAuthorityPa@ ; `string'
PUBLIC	??_C@_0BF@OAFAHAKB@SendGuildOfferPacket@	; `string'
PUBLIC	??_C@_0BL@JLEHIONL@SendGuildPostCommentPacket@	; `string'
PUBLIC	??_C@_0BN@MBNLMFLO@SendGuildDeleteCommentPacket@ ; `string'
PUBLIC	??_C@_0BP@BKEOCNGM@SendGuildRefreshCommentsPacket@ ; `string'
PUBLIC	??_C@_0CB@KOIDGNFC@SendGuildChangeMemberGradePacke@ ; `string'
PUBLIC	??_C@_0BI@HICDMLJH@SendGuildUseSkillPacket@	; `string'
PUBLIC	??_C@_0CD@BMLIKMKL@SendGuildChangeMemberGeneralPac@ ; `string'
PUBLIC	??_C@_0BM@KLBFEJBI@SendGuildInviteAnswerPacket@	; `string'
PUBLIC	??_C@_0BJ@LKJGDIEE@SendGuildChargeGSPPacket@	; `string'
PUBLIC	??_C@_0BM@HDHMFNNO@SendGuildDepositMoneyPacket@	; `string'
PUBLIC	??_C@_0BN@BPJGBHPL@SendGuildWithdrawMoneyPacket@ ; `string'
PUBLIC	??_C@_0BM@NLIMKJKK@SendRequestRefineInfoPacket@	; `string'
PUBLIC	??_C@_0BB@MBCAEHJO@SendRefinePacket@		; `string'
PUBLIC	??_C@_0BF@HEJDCMFH@SendSelectItemPacket@	; `string'
PUBLIC	??_C@_0BG@HLIDKLKJ@SetPacketSequenceMode@	; `string'
PUBLIC	??_C@_0BG@KCIMJDEA@SetEmpireLanguageMode@	; `string'
PUBLIC	??_C@_0BC@NOAKHLIH@SetSkillGroupFake@		; `string'
PUBLIC	??_C@_0BA@EGLEIBFB@SendGuildSymbol@		; `string'
PUBLIC	??_C@_0BD@PIFKMNDO@DisconnectUploader@		; `string'
PUBLIC	??_C@_0BA@ILHNHDAK@RecvGuildSymbol@		; `string'
PUBLIC	??_C@_0BB@CABIEEGM@RegisterErrorLog@		; `string'
PUBLIC	??_C@_03NBFOK@net@				; `string'
PUBLIC	??_C@_0L@LILDODAP@ERROR_NONE@			; `string'
PUBLIC	??_C@_0BK@BILAANNF@ERROR_CONNECT_MARK_SERVER@	; `string'
PUBLIC	??_C@_0BA@NEJKKBEJ@ERROR_LOAD_MARK@		; `string'
PUBLIC	??_C@_0BB@FEGLKDMB@ERROR_MARK_WIDTH@		; `string'
PUBLIC	??_C@_0BC@GOIIBBEJ@ERROR_MARK_HEIGHT@		; `string'
PUBLIC	??_C@_0CB@BOPIDGGI@ERROR_MARK_UPLOAD_NEED_RECONNEC@ ; `string'
PUBLIC	??_C@_0CA@JMHMMKLO@ERROR_MARK_CHECK_NEED_RECONNECT@ ; `string'
PUBLIC	??_C@_0BD@JBLBGAIB@PHASE_WINDOW_LOGIN@		; `string'
PUBLIC	??_C@_0BE@EBCKEIDN@PHASE_WINDOW_SELECT@		; `string'
PUBLIC	??_C@_0BE@PAOFIFBD@PHASE_WINDOW_CREATE@		; `string'
PUBLIC	??_C@_0BC@PFELHICG@PHASE_WINDOW_LOAD@		; `string'
PUBLIC	??_C@_0BC@HCEFPGCB@PHASE_WINDOW_GAME@		; `string'
PUBLIC	??_C@_0BE@IIMEMMI@PHASE_WINDOW_EMPIRE@		; `string'
PUBLIC	??_C@_0BC@BCDCNNFP@PHASE_WINDOW_LOGO@		; `string'
PUBLIC	??_C@_0BK@HDGGAJBJ@ACCOUNT_CHARACTER_SLOT_ID@	; `string'
PUBLIC	??_C@_0BM@JCGOOLCL@ACCOUNT_CHARACTER_SLOT_NAME@	; `string'
PUBLIC	??_C@_0BM@DNOALMKC@ACCOUNT_CHARACTER_SLOT_RACE@	; `string'
PUBLIC	??_C@_0BN@MPLCEAPH@ACCOUNT_CHARACTER_SLOT_LEVEL@ ; `string'
PUBLIC	??_C@_0BL@MPBHOFJE@ACCOUNT_CHARACTER_SLOT_STR@	; `string'
PUBLIC	??_C@_0BL@OFNCKLHP@ACCOUNT_CHARACTER_SLOT_DEX@	; `string'
PUBLIC	??_C@_0BL@LHFINDEP@ACCOUNT_CHARACTER_SLOT_INT@	; `string'
PUBLIC	??_C@_0BL@PICCMPNB@ACCOUNT_CHARACTER_SLOT_HTH@	; `string'
PUBLIC	??_C@_0CA@KFILFMPG@ACCOUNT_CHARACTER_SLOT_PLAYTIME@ ; `string'
PUBLIC	??_C@_0BM@JNGCLJJM@ACCOUNT_CHARACTER_SLOT_FORM@	; `string'
PUBLIC	??_C@_0BM@CNLCDDNB@ACCOUNT_CHARACTER_SLOT_ADDR@	; `string'
PUBLIC	??_C@_0BM@OJMCHCKG@ACCOUNT_CHARACTER_SLOT_PORT@	; `string'
PUBLIC	??_C@_0CA@GFKKICFN@ACCOUNT_CHARACTER_SLOT_GUILD_ID@ ; `string'
PUBLIC	??_C@_0CC@HMBBCNEO@ACCOUNT_CHARACTER_SLOT_GUILD_NA@ ; `string'
PUBLIC	??_C@_0CI@NIHCCHJE@ACCOUNT_CHARACTER_SLOT_CHANGE_N@ ; `string'
PUBLIC	??_C@_0BM@BPKEDCMB@ACCOUNT_CHARACTER_SLOT_HAIR@	; `string'
PUBLIC	??_C@_0BH@IJCJGIEO@SERVER_COMMAND_LOG_OUT@	; `string'
PUBLIC	??_C@_0CK@IDBHOJE@SERVER_COMMAND_RETURN_TO_SELECT@ ; `string'
PUBLIC	??_C@_0BE@FCDHFIHM@SERVER_COMMAND_QUIT@		; `string'
PUBLIC	??_C@_08FEHCOLFL@EMPIRE_A@			; `string'
PUBLIC	??_C@_08HPFPLIJI@EMPIRE_B@			; `string'
PUBLIC	??_C@_08GGEEIJNJ@EMPIRE_C@			; `string'
PUBLIC	??_C@_0BK@IMPJEABP@DS_SUB_HEADER_REFINE_FAIL@	; `string'
PUBLIC	??_C@_0CF@NHMIOPGD@DS_SUB_HEADER_REFINE_FAIL_MAX_R@ ; `string'
PUBLIC	??_C@_0CL@CHMHFOOJ@DS_SUB_HEADER_REFINE_FAIL_INVAL@ ; `string'
PUBLIC	??_C@_0CL@DKLCPNME@DS_SUB_HEADER_REFINE_FAIL_NOT_E@ ; `string'
PUBLIC	??_C@_0CO@HIKHGDBM@DS_SUB_HEADER_REFINE_FAIL_NOT_E@ ; `string'
PUBLIC	??_C@_0CM@PJCLJBCJ@DS_SUB_HEADER_REFINE_FAIL_TOO_M@ ; `string'
PUBLIC	??_C@_0BN@OJONLPHM@DS_SUB_HEADER_REFINE_SUCCEED@ ; `string'
PUBLIC	??_C@_0O@NKNMEGII@list?5too?5long@		; `string'
EXTRN	??2@YAPAXI@Z:PROC				; operator new
EXTRN	??3@YAXPAXI@Z:PROC				; operator delete
EXTRN	_atexit:PROC
EXTRN	__invalid_parameter_noinfo_noreturn:PROC
EXTRN	___std_exception_copy:PROC
EXTRN	___std_exception_destroy:PROC
EXTRN	??_Eexception@std@@UAEPAXI@Z:PROC		; std::exception::`vector deleting destructor'
EXTRN	??_Ebad_alloc@std@@UAEPAXI@Z:PROC		; std::bad_alloc::`vector deleting destructor'
EXTRN	??_Ebad_array_new_length@std@@UAEPAXI@Z:PROC	; std::bad_array_new_length::`vector deleting destructor'
EXTRN	?_Xlength_error@std@@YAXPBD@Z:PROC		; std::_Xlength_error
EXTRN	?TraceError@@YAXPBDZZ:PROC			; TraceError
EXTRN	__imp__PyTuple_Size:PROC
EXTRN	__imp__Py_BuildValue:PROC
EXTRN	__imp__PyModule_AddIntConstant:PROC
EXTRN	__imp__Py_InitModule4:PROC
EXTRN	?PyTuple_GetString@@YA_NPAU_object@@HPAPAD@Z:PROC ; PyTuple_GetString
EXTRN	?PyTuple_GetInteger@@YA_NPAU_object@@HPAE@Z:PROC ; PyTuple_GetInteger
EXTRN	?PyTuple_GetInteger@@YA_NPAU_object@@HPAH@Z:PROC ; PyTuple_GetInteger
EXTRN	?PyTuple_GetInteger@@YA_NPAU_object@@HPAG@Z:PROC ; PyTuple_GetInteger
EXTRN	?PyTuple_GetByte@@YA_NPAU_object@@HPAE@Z:PROC	; PyTuple_GetByte
EXTRN	?PyTuple_GetObject@@YA_NPAU_object@@HPAPAU1@@Z:PROC ; PyTuple_GetObject
EXTRN	?Py_BuildException@@YAPAU_object@@PBDZZ:PROC	; Py_BuildException
EXTRN	?Py_BuildNone@@YAPAU_object@@XZ:PROC		; Py_BuildNone
EXTRN	??0CNetworkAddress@@QAE@XZ:PROC			; CNetworkAddress::CNetworkAddress
EXTRN	??1CNetworkAddress@@QAE@XZ:PROC			; CNetworkAddress::~CNetworkAddress
EXTRN	?Set@CNetworkAddress@@QAE_NPBDH@Z:PROC		; CNetworkAddress::Set
EXTRN	?SetRecvBufferSize@CNetworkStream@@QAEXH@Z:PROC	; CNetworkStream::SetRecvBufferSize
EXTRN	?SetSendBufferSize@CNetworkStream@@QAEXH@Z:PROC	; CNetworkStream::SetSendBufferSize
EXTRN	?Disconnect@CNetworkStream@@QAEXXZ:PROC		; CNetworkStream::Disconnect
EXTRN	?IsOnline@CNetworkStream@@QAE_NXZ:PROC		; CNetworkStream::IsOnline
EXTRN	?SetPacketSequenceMode@CNetworkStream@@QAEX_N@Z:PROC ; CNetworkStream::SetPacketSequenceMode
EXTRN	?StartGame@CPythonNetworkStream@@QAEXXZ:PROC	; CPythonNetworkStream::StartGame
EXTRN	?Warp@CPythonNetworkStream@@QAEXJJ@Z:PROC	; CPythonNetworkStream::Warp
EXTRN	?SendEmoticon@CPythonNetworkStream@@QAEXI@Z:PROC ; CPythonNetworkStream::SendEmoticon
EXTRN	?ExitApplication@CPythonNetworkStream@@QAEXXZ:PROC ; CPythonNetworkStream::ExitApplication
EXTRN	?ExitGame@CPythonNetworkStream@@QAEXXZ:PROC	; CPythonNetworkStream::ExitGame
EXTRN	?LogOutGame@CPythonNetworkStream@@QAEXXZ:PROC	; CPythonNetworkStream::LogOutGame
EXTRN	?EnableChatInsultFilter@CPythonNetworkStream@@QAEX_N@Z:PROC ; CPythonNetworkStream::EnableChatInsultFilter
EXTRN	?IsChatInsultIn@CPythonNetworkStream@@QAE_NPBD@Z:PROC ; CPythonNetworkStream::IsChatInsultIn
EXTRN	?IsInsultIn@CPythonNetworkStream@@QAE_NPBD@Z:PROC ; CPythonNetworkStream::IsInsultIn
EXTRN	?GetGuildID@CPythonNetworkStream@@QAEKXZ:PROC	; CPythonNetworkStream::GetGuildID
EXTRN	?UploadMark@CPythonNetworkStream@@QAEIPBD@Z:PROC ; CPythonNetworkStream::UploadMark
EXTRN	?UploadSymbol@CPythonNetworkStream@@QAEIPBD@Z:PROC ; CPythonNetworkStream::UploadSymbol
EXTRN	?LoadInsultList@CPythonNetworkStream@@QAE_NPBD@Z:PROC ; CPythonNetworkStream::LoadInsultList
EXTRN	?GetAccountCharacterSlotDatau@CPythonNetworkStream@@QAEIII@Z:PROC ; CPythonNetworkStream::GetAccountCharacterSlotDatau
EXTRN	?GetAccountCharacterSlotDataz@CPythonNetworkStream@@QAEPBDII@Z:PROC ; CPythonNetworkStream::GetAccountCharacterSlotDataz
EXTRN	?GetFieldMusicFileName@CPythonNetworkStream@@QAEPBDXZ:PROC ; CPythonNetworkStream::GetFieldMusicFileName
EXTRN	?GetFieldMusicVolume@CPythonNetworkStream@@QAEMXZ:PROC ; CPythonNetworkStream::GetFieldMusicVolume
EXTRN	?IsSelectedEmpire@CPythonNetworkStream@@QAE_NXZ:PROC ; CPythonNetworkStream::IsSelectedEmpire
EXTRN	?ToggleGameDebugInfo@CPythonNetworkStream@@QAEXXZ:PROC ; CPythonNetworkStream::ToggleGameDebugInfo
EXTRN	?SetMarkServer@CPythonNetworkStream@@QAEXPBDI@Z:PROC ; CPythonNetworkStream::SetMarkServer
EXTRN	?ConnectLoginServer@CPythonNetworkStream@@QAEXPBDI@Z:PROC ; CPythonNetworkStream::ConnectLoginServer
EXTRN	?ConnectGameServer@CPythonNetworkStream@@QAEXI@Z:PROC ; CPythonNetworkStream::ConnectGameServer
EXTRN	?SetLoginInfo@CPythonNetworkStream@@QAEXPBD0@Z:PROC ; CPythonNetworkStream::SetLoginInfo
EXTRN	?SetHandler@CPythonNetworkStream@@QAEXPAU_object@@@Z:PROC ; CPythonNetworkStream::SetHandler
EXTRN	?SetPhaseWindow@CPythonNetworkStream@@QAEXIPAU_object@@@Z:PROC ; CPythonNetworkStream::SetPhaseWindow
EXTRN	?ClearPhaseWindow@CPythonNetworkStream@@QAEXIPAU_object@@@Z:PROC ; CPythonNetworkStream::ClearPhaseWindow
EXTRN	?SetServerCommandParserWindow@CPythonNetworkStream@@QAEXPAU_object@@@Z:PROC ; CPythonNetworkStream::SetServerCommandParserWindow
EXTRN	?SendCharacterPositionPacket@CPythonNetworkStream@@QAE_NE@Z:PROC ; CPythonNetworkStream::SendCharacterPositionPacket
EXTRN	?SendItemUsePacket@CPythonNetworkStream@@QAE_NUSItemPos@@@Z:PROC ; CPythonNetworkStream::SendItemUsePacket
EXTRN	?SendItemUseToItemPacket@CPythonNetworkStream@@QAE_NUSItemPos@@0@Z:PROC ; CPythonNetworkStream::SendItemUseToItemPacket
EXTRN	?SendItemDropPacket@CPythonNetworkStream@@QAE_NUSItemPos@@K@Z:PROC ; CPythonNetworkStream::SendItemDropPacket
EXTRN	?SendItemDropPacketNew@CPythonNetworkStream@@QAE_NUSItemPos@@KK@Z:PROC ; CPythonNetworkStream::SendItemDropPacketNew
EXTRN	?SendItemMovePacket@CPythonNetworkStream@@QAE_NUSItemPos@@0E@Z:PROC ; CPythonNetworkStream::SendItemMovePacket
EXTRN	?SendItemPickUpPacket@CPythonNetworkStream@@QAE_NK@Z:PROC ; CPythonNetworkStream::SendItemPickUpPacket
EXTRN	?SendShopEndPacket@CPythonNetworkStream@@QAE_NXZ:PROC ; CPythonNetworkStream::SendShopEndPacket
EXTRN	?SendShopBuyPacket@CPythonNetworkStream@@QAE_NE@Z:PROC ; CPythonNetworkStream::SendShopBuyPacket
EXTRN	?SendShopSellPacket@CPythonNetworkStream@@QAE_NE@Z:PROC ; CPythonNetworkStream::SendShopSellPacket
EXTRN	?SendShopSellPacketNew@CPythonNetworkStream@@QAE_NEE@Z:PROC ; CPythonNetworkStream::SendShopSellPacketNew
EXTRN	?SendExchangeStartPacket@CPythonNetworkStream@@QAE_NK@Z:PROC ; CPythonNetworkStream::SendExchangeStartPacket
EXTRN	?SendExchangeItemAddPacket@CPythonNetworkStream@@QAE_NUSItemPos@@E@Z:PROC ; CPythonNetworkStream::SendExchangeItemAddPacket
EXTRN	?SendExchangeElkAddPacket@CPythonNetworkStream@@QAE_NK@Z:PROC ; CPythonNetworkStream::SendExchangeElkAddPacket
EXTRN	?SendExchangeItemDelPacket@CPythonNetworkStream@@QAE_NE@Z:PROC ; CPythonNetworkStream::SendExchangeItemDelPacket
EXTRN	?SendExchangeAcceptPacket@CPythonNetworkStream@@QAE_NXZ:PROC ; CPythonNetworkStream::SendExchangeAcceptPacket
EXTRN	?SendExchangeExitPacket@CPythonNetworkStream@@QAE_NXZ:PROC ; CPythonNetworkStream::SendExchangeExitPacket
EXTRN	?SendAnswerMakeGuildPacket@CPythonNetworkStream@@QAE_NPBD@Z:PROC ; CPythonNetworkStream::SendAnswerMakeGuildPacket
EXTRN	?SendQuestInputStringPacket@CPythonNetworkStream@@QAE_NPBD@Z:PROC ; CPythonNetworkStream::SendQuestInputStringPacket
EXTRN	?SendQuestConfirmPacket@CPythonNetworkStream@@QAE_NEK@Z:PROC ; CPythonNetworkStream::SendQuestConfirmPacket
EXTRN	?SendOnClickPacket@CPythonNetworkStream@@QAE_NK@Z:PROC ; CPythonNetworkStream::SendOnClickPacket
EXTRN	?RegisterEmoticonString@CPythonNetworkStream@@QAEXPBD@Z:PROC ; CPythonNetworkStream::RegisterEmoticonString
EXTRN	?SendPartyInvitePacket@CPythonNetworkStream@@QAE_NK@Z:PROC ; CPythonNetworkStream::SendPartyInvitePacket
EXTRN	?SendPartyInviteAnswerPacket@CPythonNetworkStream@@QAE_NKE@Z:PROC ; CPythonNetworkStream::SendPartyInviteAnswerPacket
EXTRN	?SendPartyRemovePacket@CPythonNetworkStream@@QAE_NK@Z:PROC ; CPythonNetworkStream::SendPartyRemovePacket
EXTRN	?SendPartySetStatePacket@CPythonNetworkStream@@QAE_NKEE@Z:PROC ; CPythonNetworkStream::SendPartySetStatePacket
EXTRN	?SendPartyUseSkillPacket@CPythonNetworkStream@@QAE_NEK@Z:PROC ; CPythonNetworkStream::SendPartyUseSkillPacket
EXTRN	?SendPartyParameterPacket@CPythonNetworkStream@@QAE_NE@Z:PROC ; CPythonNetworkStream::SendPartyParameterPacket
EXTRN	?SendSafeBoxMoneyPacket@CPythonNetworkStream@@QAE_NEK@Z:PROC ; CPythonNetworkStream::SendSafeBoxMoneyPacket
EXTRN	?SendSafeBoxCheckinPacket@CPythonNetworkStream@@QAE_NUSItemPos@@E@Z:PROC ; CPythonNetworkStream::SendSafeBoxCheckinPacket
EXTRN	?SendSafeBoxCheckoutPacket@CPythonNetworkStream@@QAE_NEUSItemPos@@@Z:PROC ; CPythonNetworkStream::SendSafeBoxCheckoutPacket
EXTRN	?SendSafeBoxItemMovePacket@CPythonNetworkStream@@QAE_NEEE@Z:PROC ; CPythonNetworkStream::SendSafeBoxItemMovePacket
EXTRN	?SendMallCheckoutPacket@CPythonNetworkStream@@QAE_NEUSItemPos@@@Z:PROC ; CPythonNetworkStream::SendMallCheckoutPacket
EXTRN	?SendGuildAddMemberPacket@CPythonNetworkStream@@QAE_NK@Z:PROC ; CPythonNetworkStream::SendGuildAddMemberPacket
EXTRN	?SendGuildRemoveMemberPacket@CPythonNetworkStream@@QAE_NK@Z:PROC ; CPythonNetworkStream::SendGuildRemoveMemberPacket
EXTRN	?SendGuildChangeGradeNamePacket@CPythonNetworkStream@@QAE_NEPBD@Z:PROC ; CPythonNetworkStream::SendGuildChangeGradeNamePacket
EXTRN	?SendGuildChangeGradeAuthorityPacket@CPythonNetworkStream@@QAE_NEE@Z:PROC ; CPythonNetworkStream::SendGuildChangeGradeAuthorityPacket
EXTRN	?SendGuildOfferPacket@CPythonNetworkStream@@QAE_NK@Z:PROC ; CPythonNetworkStream::SendGuildOfferPacket
EXTRN	?SendGuildPostCommentPacket@CPythonNetworkStream@@QAE_NPBD@Z:PROC ; CPythonNetworkStream::SendGuildPostCommentPacket
EXTRN	?SendGuildDeleteCommentPacket@CPythonNetworkStream@@QAE_NK@Z:PROC ; CPythonNetworkStream::SendGuildDeleteCommentPacket
EXTRN	?SendGuildRefreshCommentsPacket@CPythonNetworkStream@@QAE_NK@Z:PROC ; CPythonNetworkStream::SendGuildRefreshCommentsPacket
EXTRN	?SendGuildChangeMemberGradePacket@CPythonNetworkStream@@QAE_NKE@Z:PROC ; CPythonNetworkStream::SendGuildChangeMemberGradePacket
EXTRN	?SendGuildUseSkillPacket@CPythonNetworkStream@@QAE_NKK@Z:PROC ; CPythonNetworkStream::SendGuildUseSkillPacket
EXTRN	?SendGuildChangeMemberGeneralPacket@CPythonNetworkStream@@QAE_NKE@Z:PROC ; CPythonNetworkStream::SendGuildChangeMemberGeneralPacket
EXTRN	?SendGuildInviteAnswerPacket@CPythonNetworkStream@@QAE_NKE@Z:PROC ; CPythonNetworkStream::SendGuildInviteAnswerPacket
EXTRN	?SendGuildChargeGSPPacket@CPythonNetworkStream@@QAE_NK@Z:PROC ; CPythonNetworkStream::SendGuildChargeGSPPacket
EXTRN	?SendGuildDepositMoneyPacket@CPythonNetworkStream@@QAE_NK@Z:PROC ; CPythonNetworkStream::SendGuildDepositMoneyPacket
EXTRN	?SendGuildWithdrawMoneyPacket@CPythonNetworkStream@@QAE_NK@Z:PROC ; CPythonNetworkStream::SendGuildWithdrawMoneyPacket
EXTRN	?SendGiveItemPacket@CPythonNetworkStream@@QAE_NKUSItemPos@@H@Z:PROC ; CPythonNetworkStream::SendGiveItemPacket
EXTRN	?SendRefinePacket@CPythonNetworkStream@@QAE_NEE@Z:PROC ; CPythonNetworkStream::SendRefinePacket
EXTRN	?SendSelectItemPacket@CPythonNetworkStream@@QAE_NK@Z:PROC ; CPythonNetworkStream::SendSelectItemPacket
EXTRN	?GetMainActorVID@CPythonNetworkStream@@QAEKXZ:PROC ; CPythonNetworkStream::GetMainActorVID
EXTRN	?GetMainActorRace@CPythonNetworkStream@@QAEKXZ:PROC ; CPythonNetworkStream::GetMainActorRace
EXTRN	?GetMainActorEmpire@CPythonNetworkStream@@QAEKXZ:PROC ; CPythonNetworkStream::GetMainActorEmpire
EXTRN	?GetMainActorSkillGroup@CPythonNetworkStream@@QAEKXZ:PROC ; CPythonNetworkStream::GetMainActorSkillGroup
EXTRN	?GetEmpireID@CPythonNetworkStream@@QAEKXZ:PROC	; CPythonNetworkStream::GetEmpireID
EXTRN	?__TEST_SetSkillGroupFake@CPythonNetworkStream@@QAEXH@Z:PROC ; CPythonNetworkStream::__TEST_SetSkillGroupFake
EXTRN	?SetOffLinePhase@CPythonNetworkStream@@QAEXXZ:PROC ; CPythonNetworkStream::SetOffLinePhase
EXTRN	?SendLoginPacket@CPythonNetworkStream@@QAE_NPBD0@Z:PROC ; CPythonNetworkStream::SendLoginPacket
EXTRN	?SendEnterGame@CPythonNetworkStream@@QAE_NXZ:PROC ; CPythonNetworkStream::SendEnterGame
EXTRN	?SendSelectEmpirePacket@CPythonNetworkStream@@QAE_NK@Z:PROC ; CPythonNetworkStream::SendSelectEmpirePacket
EXTRN	?SendSelectCharacterPacket@CPythonNetworkStream@@QAE_NE@Z:PROC ; CPythonNetworkStream::SendSelectCharacterPacket
EXTRN	?SendChangeNamePacket@CPythonNetworkStream@@QAE_NEPBD@Z:PROC ; CPythonNetworkStream::SendChangeNamePacket
EXTRN	?SendCreateCharacterPacket@CPythonNetworkStream@@QAE_NEPBDEEEEEE@Z:PROC ; CPythonNetworkStream::SendCreateCharacterPacket
EXTRN	?SendDestroyCharacterPacket@CPythonNetworkStream@@QAE_NEPBD@Z:PROC ; CPythonNetworkStream::SendDestroyCharacterPacket
EXTRN	?SendChatPacket@CPythonNetworkStream@@QAE_NPBDE@Z:PROC ; CPythonNetworkStream::SendChatPacket
EXTRN	?SendWhisperPacket@CPythonNetworkStream@@QAE_NPBD0@Z:PROC ; CPythonNetworkStream::SendWhisperPacket
EXTRN	?SendMobileMessagePacket@CPythonNetworkStream@@QAE_NPBD0@Z:PROC ; CPythonNetworkStream::SendMobileMessagePacket
EXTRN	?SendMessengerAddByVIDPacket@CPythonNetworkStream@@QAE_NK@Z:PROC ; CPythonNetworkStream::SendMessengerAddByVIDPacket
EXTRN	?SendMessengerAddByNamePacket@CPythonNetworkStream@@QAE_NPBD@Z:PROC ; CPythonNetworkStream::SendMessengerAddByNamePacket
EXTRN	?SendMessengerRemovePacket@CPythonNetworkStream@@QAE_NPBD0@Z:PROC ; CPythonNetworkStream::SendMessengerRemovePacket
EXTRN	?EXPORT_GetBettingGuildWarValue@CPythonNetworkStream@@QAEKPBD@Z:PROC ; CPythonNetworkStream::EXPORT_GetBettingGuildWarValue
EXTRN	?SetHandler@CAccountConnector@@QAEXPAU_object@@@Z:PROC ; CAccountConnector::SetHandler
EXTRN	?SetLoginInfo@CAccountConnector@@QAEXPBD0@Z:PROC ; CAccountConnector::SetLoginInfo
EXTRN	?SendChinaMatrixCardPacket@CAccountConnector@@QAE_NPBD@Z:PROC ; CAccountConnector::SendChinaMatrixCardPacket
EXTRN	?SendRunupMatrixCardPacket@CAccountConnector@@QAE_NPBD@Z:PROC ; CAccountConnector::SendRunupMatrixCardPacket
EXTRN	?SendNEWCIBNPasspodAnswerPacket@CAccountConnector@@QAE_NPBD@Z:PROC ; CAccountConnector::SendNEWCIBNPasspodAnswerPacket
EXTRN	?Connect@CAccountConnector@@QAE_NPBDH0H@Z:PROC	; CAccountConnector::Connect
EXTRN	?GetMemberDataPtrByName@CPythonGuild@@QAEHPBDPAPAUSGuildMemberData@1@@Z:PROC ; CPythonGuild::GetMemberDataPtrByName
EXTRN	?Disconnect@CGuildMarkUploader@@QAEXXZ:PROC	; CGuildMarkUploader::Disconnect
EXTRN	?ConnectToSendSymbol@CGuildMarkUploader@@QAE_NABVCNetworkAddress@@KKKPBDPAI@Z:PROC ; CGuildMarkUploader::ConnectToSendSymbol
EXTRN	?ConnectToRecvSymbol@CGuildMarkDownloader@@QAE_NABVCNetworkAddress@@KKABV?$vector@KV?$allocator@K@std@@@std@@@Z:PROC ; CGuildMarkDownloader::ConnectToRecvSymbol
EXTRN	@__security_check_cookie@4:PROC
EXTRN	__CxxThrowException@8:PROC
EXTRN	___CxxFrameHandler3:PROC
EXTRN	_memcpy:PROC
EXTRN	_memmove:PROC
EXTRN	??_7type_info@@6B@:QWORD			; type_info::`vftable'
EXTRN	?__IS_TEST_SERVER_MODE__@@3_NA:BYTE		; __IS_TEST_SERVER_MODE__
EXTRN	?gs_bEmpireLanuageEnable@@3HA:DWORD		; gs_bEmpireLanuageEnable
EXTRN	___security_cookie:DWORD
EXTRN	__fltused:DWORD
;	COMDAT ?ms_singleton@?$CSingleton@VCPythonNetworkStream@@@@0PAVCPythonNetworkStream@@A
_BSS	SEGMENT
?ms_singleton@?$CSingleton@VCPythonNetworkStream@@@@0PAVCPythonNetworkStream@@A DD 01H DUP (?) ; CSingleton<CPythonNetworkStream>::ms_singleton
_BSS	ENDS
;	COMDAT ?ms_singleton@?$CSingleton@VCAccountConnector@@@@0PAVCAccountConnector@@A
_BSS	SEGMENT
?ms_singleton@?$CSingleton@VCAccountConnector@@@@0PAVCAccountConnector@@A DD 01H DUP (?) ; CSingleton<CAccountConnector>::ms_singleton
_BSS	ENDS
;	COMDAT ?ms_singleton@?$CSingleton@VCPythonGuild@@@@0PAVCPythonGuild@@A
_BSS	SEGMENT
?ms_singleton@?$CSingleton@VCPythonGuild@@@@0PAVCPythonGuild@@A DD 01H DUP (?) ; CSingleton<CPythonGuild>::ms_singleton
_BSS	ENDS
;	COMDAT ?ms_singleton@?$TAbstractSingleton@VIAbstractPlayer@@@@0PAVIAbstractPlayer@@A
_BSS	SEGMENT
?ms_singleton@?$TAbstractSingleton@VIAbstractPlayer@@@@0PAVIAbstractPlayer@@A DD 01H DUP (?) ; TAbstractSingleton<IAbstractPlayer>::ms_singleton
_BSS	ENDS
_BSS	SEGMENT
?g_kList_strCommand@@3V?$list@V?$basic_string@DU?$char_traits@D@std@@V?$allocator@D@2@@std@@V?$allocator@V?$basic_string@DU?$char_traits@D@std@@V?$allocator@D@2@@std@@@2@@std@@A DQ 01H DUP (?) ; g_kList_strCommand
_BSS	ENDS
;	COMDAT ?ms_singleton@?$CSingleton@VCGuildMarkUploader@@@@0PAVCGuildMarkUploader@@A
_BSS	SEGMENT
?ms_singleton@?$CSingleton@VCGuildMarkUploader@@@@0PAVCGuildMarkUploader@@A DD 01H DUP (?) ; CSingleton<CGuildMarkUploader>::ms_singleton
_BSS	ENDS
;	COMDAT ?ms_singleton@?$CSingleton@VCGuildMarkDownloader@@@@0PAVCGuildMarkDownloader@@A
_BSS	SEGMENT
?ms_singleton@?$CSingleton@VCGuildMarkDownloader@@@@0PAVCGuildMarkDownloader@@A DD 01H DUP (?) ; CSingleton<CGuildMarkDownloader>::ms_singleton
_BSS	ENDS
CRT$XCU	SEGMENT
?gs_stServerInfo$initializer$@@3P6AXXZA DD FLAT:??__Egs_stServerInfo@@YAXXZ ; gs_stServerInfo$initializer$
CRT$XCU	ENDS
;	COMDAT ??_C@_0O@NKNMEGII@list?5too?5long@
CONST	SEGMENT
??_C@_0O@NKNMEGII@list?5too?5long@ DB 'list too long', 00H ; `string'
CONST	ENDS
;	COMDAT ??_C@_0BN@OJONLPHM@DS_SUB_HEADER_REFINE_SUCCEED@
CONST	SEGMENT
??_C@_0BN@OJONLPHM@DS_SUB_HEADER_REFINE_SUCCEED@ DB 'DS_SUB_HEADER_REFINE'
	DB	'_SUCCEED', 00H				; `string'
CONST	ENDS
;	COMDAT ??_C@_0CM@PJCLJBCJ@DS_SUB_HEADER_REFINE_FAIL_TOO_M@
CONST	SEGMENT
??_C@_0CM@PJCLJBCJ@DS_SUB_HEADER_REFINE_FAIL_TOO_M@ DB 'DS_SUB_HEADER_REF'
	DB	'INE_FAIL_TOO_MUCH_MATERIAL', 00H		; `string'
CONST	ENDS
;	COMDAT ??_C@_0CO@HIKHGDBM@DS_SUB_HEADER_REFINE_FAIL_NOT_E@
CONST	SEGMENT
??_C@_0CO@HIKHGDBM@DS_SUB_HEADER_REFINE_FAIL_NOT_E@ DB 'DS_SUB_HEADER_REF'
	DB	'INE_FAIL_NOT_ENOUGH_MATERIAL', 00H		; `string'
CONST	ENDS
;	COMDAT ??_C@_0CL@DKLCPNME@DS_SUB_HEADER_REFINE_FAIL_NOT_E@
CONST	SEGMENT
??_C@_0CL@DKLCPNME@DS_SUB_HEADER_REFINE_FAIL_NOT_E@ DB 'DS_SUB_HEADER_REF'
	DB	'INE_FAIL_NOT_ENOUGH_MONEY', 00H		; `string'
CONST	ENDS
;	COMDAT ??_C@_0CL@CHMHFOOJ@DS_SUB_HEADER_REFINE_FAIL_INVAL@
CONST	SEGMENT
??_C@_0CL@CHMHFOOJ@DS_SUB_HEADER_REFINE_FAIL_INVAL@ DB 'DS_SUB_HEADER_REF'
	DB	'INE_FAIL_INVALID_MATERIAL', 00H		; `string'
CONST	ENDS
;	COMDAT ??_C@_0CF@NHMIOPGD@DS_SUB_HEADER_REFINE_FAIL_MAX_R@
CONST	SEGMENT
??_C@_0CF@NHMIOPGD@DS_SUB_HEADER_REFINE_FAIL_MAX_R@ DB 'DS_SUB_HEADER_REF'
	DB	'INE_FAIL_MAX_REFINE', 00H			; `string'
CONST	ENDS
;	COMDAT ??_C@_0BK@IMPJEABP@DS_SUB_HEADER_REFINE_FAIL@
CONST	SEGMENT
??_C@_0BK@IMPJEABP@DS_SUB_HEADER_REFINE_FAIL@ DB 'DS_SUB_HEADER_REFINE_FA'
	DB	'IL', 00H					; `string'
CONST	ENDS
;	COMDAT ??_C@_08GGEEIJNJ@EMPIRE_C@
CONST	SEGMENT
??_C@_08GGEEIJNJ@EMPIRE_C@ DB 'EMPIRE_C', 00H		; `string'
CONST	ENDS
;	COMDAT ??_C@_08HPFPLIJI@EMPIRE_B@
CONST	SEGMENT
??_C@_08HPFPLIJI@EMPIRE_B@ DB 'EMPIRE_B', 00H		; `string'
CONST	ENDS
;	COMDAT ??_C@_08FEHCOLFL@EMPIRE_A@
CONST	SEGMENT
??_C@_08FEHCOLFL@EMPIRE_A@ DB 'EMPIRE_A', 00H		; `string'
CONST	ENDS
;	COMDAT ??_C@_0BE@FCDHFIHM@SERVER_COMMAND_QUIT@
CONST	SEGMENT
??_C@_0BE@FCDHFIHM@SERVER_COMMAND_QUIT@ DB 'SERVER_COMMAND_QUIT', 00H ; `string'
CONST	ENDS
;	COMDAT ??_C@_0CK@IDBHOJE@SERVER_COMMAND_RETURN_TO_SELECT@
CONST	SEGMENT
??_C@_0CK@IDBHOJE@SERVER_COMMAND_RETURN_TO_SELECT@ DB 'SERVER_COMMAND_RET'
	DB	'URN_TO_SELECT_CHARACTER', 00H		; `string'
CONST	ENDS
;	COMDAT ??_C@_0BH@IJCJGIEO@SERVER_COMMAND_LOG_OUT@
CONST	SEGMENT
??_C@_0BH@IJCJGIEO@SERVER_COMMAND_LOG_OUT@ DB 'SERVER_COMMAND_LOG_OUT', 00H ; `string'
CONST	ENDS
;	COMDAT ??_C@_0BM@BPKEDCMB@ACCOUNT_CHARACTER_SLOT_HAIR@
CONST	SEGMENT
??_C@_0BM@BPKEDCMB@ACCOUNT_CHARACTER_SLOT_HAIR@ DB 'ACCOUNT_CHARACTER_SLO'
	DB	'T_HAIR', 00H				; `string'
CONST	ENDS
;	COMDAT ??_C@_0CI@NIHCCHJE@ACCOUNT_CHARACTER_SLOT_CHANGE_N@
CONST	SEGMENT
??_C@_0CI@NIHCCHJE@ACCOUNT_CHARACTER_SLOT_CHANGE_N@ DB 'ACCOUNT_CHARACTER'
	DB	'_SLOT_CHANGE_NAME_FLAG', 00H		; `string'
CONST	ENDS
;	COMDAT ??_C@_0CC@HMBBCNEO@ACCOUNT_CHARACTER_SLOT_GUILD_NA@
CONST	SEGMENT
??_C@_0CC@HMBBCNEO@ACCOUNT_CHARACTER_SLOT_GUILD_NA@ DB 'ACCOUNT_CHARACTER'
	DB	'_SLOT_GUILD_NAME', 00H			; `string'
CONST	ENDS
;	COMDAT ??_C@_0CA@GFKKICFN@ACCOUNT_CHARACTER_SLOT_GUILD_ID@
CONST	SEGMENT
??_C@_0CA@GFKKICFN@ACCOUNT_CHARACTER_SLOT_GUILD_ID@ DB 'ACCOUNT_CHARACTER'
	DB	'_SLOT_GUILD_ID', 00H			; `string'
CONST	ENDS
;	COMDAT ??_C@_0BM@OJMCHCKG@ACCOUNT_CHARACTER_SLOT_PORT@
CONST	SEGMENT
??_C@_0BM@OJMCHCKG@ACCOUNT_CHARACTER_SLOT_PORT@ DB 'ACCOUNT_CHARACTER_SLO'
	DB	'T_PORT', 00H				; `string'
CONST	ENDS
;	COMDAT ??_C@_0BM@CNLCDDNB@ACCOUNT_CHARACTER_SLOT_ADDR@
CONST	SEGMENT
??_C@_0BM@CNLCDDNB@ACCOUNT_CHARACTER_SLOT_ADDR@ DB 'ACCOUNT_CHARACTER_SLO'
	DB	'T_ADDR', 00H				; `string'
CONST	ENDS
;	COMDAT ??_C@_0BM@JNGCLJJM@ACCOUNT_CHARACTER_SLOT_FORM@
CONST	SEGMENT
??_C@_0BM@JNGCLJJM@ACCOUNT_CHARACTER_SLOT_FORM@ DB 'ACCOUNT_CHARACTER_SLO'
	DB	'T_FORM', 00H				; `string'
CONST	ENDS
;	COMDAT ??_C@_0CA@KFILFMPG@ACCOUNT_CHARACTER_SLOT_PLAYTIME@
CONST	SEGMENT
??_C@_0CA@KFILFMPG@ACCOUNT_CHARACTER_SLOT_PLAYTIME@ DB 'ACCOUNT_CHARACTER'
	DB	'_SLOT_PLAYTIME', 00H			; `string'
CONST	ENDS
;	COMDAT ??_C@_0BL@PICCMPNB@ACCOUNT_CHARACTER_SLOT_HTH@
CONST	SEGMENT
??_C@_0BL@PICCMPNB@ACCOUNT_CHARACTER_SLOT_HTH@ DB 'ACCOUNT_CHARACTER_SLOT'
	DB	'_HTH', 00H					; `string'
CONST	ENDS
;	COMDAT ??_C@_0BL@LHFINDEP@ACCOUNT_CHARACTER_SLOT_INT@
CONST	SEGMENT
??_C@_0BL@LHFINDEP@ACCOUNT_CHARACTER_SLOT_INT@ DB 'ACCOUNT_CHARACTER_SLOT'
	DB	'_INT', 00H					; `string'
CONST	ENDS
;	COMDAT ??_C@_0BL@OFNCKLHP@ACCOUNT_CHARACTER_SLOT_DEX@
CONST	SEGMENT
??_C@_0BL@OFNCKLHP@ACCOUNT_CHARACTER_SLOT_DEX@ DB 'ACCOUNT_CHARACTER_SLOT'
	DB	'_DEX', 00H					; `string'
CONST	ENDS
;	COMDAT ??_C@_0BL@MPBHOFJE@ACCOUNT_CHARACTER_SLOT_STR@
CONST	SEGMENT
??_C@_0BL@MPBHOFJE@ACCOUNT_CHARACTER_SLOT_STR@ DB 'ACCOUNT_CHARACTER_SLOT'
	DB	'_STR', 00H					; `string'
CONST	ENDS
;	COMDAT ??_C@_0BN@MPLCEAPH@ACCOUNT_CHARACTER_SLOT_LEVEL@
CONST	SEGMENT
??_C@_0BN@MPLCEAPH@ACCOUNT_CHARACTER_SLOT_LEVEL@ DB 'ACCOUNT_CHARACTER_SL'
	DB	'OT_LEVEL', 00H				; `string'
CONST	ENDS
;	COMDAT ??_C@_0BM@DNOALMKC@ACCOUNT_CHARACTER_SLOT_RACE@
CONST	SEGMENT
??_C@_0BM@DNOALMKC@ACCOUNT_CHARACTER_SLOT_RACE@ DB 'ACCOUNT_CHARACTER_SLO'
	DB	'T_RACE', 00H				; `string'
CONST	ENDS
;	COMDAT ??_C@_0BM@JCGOOLCL@ACCOUNT_CHARACTER_SLOT_NAME@
CONST	SEGMENT
??_C@_0BM@JCGOOLCL@ACCOUNT_CHARACTER_SLOT_NAME@ DB 'ACCOUNT_CHARACTER_SLO'
	DB	'T_NAME', 00H				; `string'
CONST	ENDS
;	COMDAT ??_C@_0BK@HDGGAJBJ@ACCOUNT_CHARACTER_SLOT_ID@
CONST	SEGMENT
??_C@_0BK@HDGGAJBJ@ACCOUNT_CHARACTER_SLOT_ID@ DB 'ACCOUNT_CHARACTER_SLOT_'
	DB	'ID', 00H					; `string'
CONST	ENDS
;	COMDAT ??_C@_0BC@BCDCNNFP@PHASE_WINDOW_LOGO@
CONST	SEGMENT
??_C@_0BC@BCDCNNFP@PHASE_WINDOW_LOGO@ DB 'PHASE_WINDOW_LOGO', 00H ; `string'
CONST	ENDS
;	COMDAT ??_C@_0BE@IIMEMMI@PHASE_WINDOW_EMPIRE@
CONST	SEGMENT
??_C@_0BE@IIMEMMI@PHASE_WINDOW_EMPIRE@ DB 'PHASE_WINDOW_EMPIRE', 00H ; `string'
CONST	ENDS
;	COMDAT ??_C@_0BC@HCEFPGCB@PHASE_WINDOW_GAME@
CONST	SEGMENT
??_C@_0BC@HCEFPGCB@PHASE_WINDOW_GAME@ DB 'PHASE_WINDOW_GAME', 00H ; `string'
CONST	ENDS
;	COMDAT ??_C@_0BC@PFELHICG@PHASE_WINDOW_LOAD@
CONST	SEGMENT
??_C@_0BC@PFELHICG@PHASE_WINDOW_LOAD@ DB 'PHASE_WINDOW_LOAD', 00H ; `string'
CONST	ENDS
;	COMDAT ??_C@_0BE@PAOFIFBD@PHASE_WINDOW_CREATE@
CONST	SEGMENT
??_C@_0BE@PAOFIFBD@PHASE_WINDOW_CREATE@ DB 'PHASE_WINDOW_CREATE', 00H ; `string'
CONST	ENDS
;	COMDAT ??_C@_0BE@EBCKEIDN@PHASE_WINDOW_SELECT@
CONST	SEGMENT
??_C@_0BE@EBCKEIDN@PHASE_WINDOW_SELECT@ DB 'PHASE_WINDOW_SELECT', 00H ; `string'
CONST	ENDS
;	COMDAT ??_C@_0BD@JBLBGAIB@PHASE_WINDOW_LOGIN@
CONST	SEGMENT
??_C@_0BD@JBLBGAIB@PHASE_WINDOW_LOGIN@ DB 'PHASE_WINDOW_LOGIN', 00H ; `string'
CONST	ENDS
;	COMDAT ??_C@_0CA@JMHMMKLO@ERROR_MARK_CHECK_NEED_RECONNECT@
CONST	SEGMENT
??_C@_0CA@JMHMMKLO@ERROR_MARK_CHECK_NEED_RECONNECT@ DB 'ERROR_MARK_CHECK_'
	DB	'NEED_RECONNECT', 00H			; `string'
CONST	ENDS
;	COMDAT ??_C@_0CB@BOPIDGGI@ERROR_MARK_UPLOAD_NEED_RECONNEC@
CONST	SEGMENT
??_C@_0CB@BOPIDGGI@ERROR_MARK_UPLOAD_NEED_RECONNEC@ DB 'ERROR_MARK_UPLOAD'
	DB	'_NEED_RECONNECT', 00H			; `string'
CONST	ENDS
;	COMDAT ??_C@_0BC@GOIIBBEJ@ERROR_MARK_HEIGHT@
CONST	SEGMENT
??_C@_0BC@GOIIBBEJ@ERROR_MARK_HEIGHT@ DB 'ERROR_MARK_HEIGHT', 00H ; `string'
CONST	ENDS
;	COMDAT ??_C@_0BB@FEGLKDMB@ERROR_MARK_WIDTH@
CONST	SEGMENT
??_C@_0BB@FEGLKDMB@ERROR_MARK_WIDTH@ DB 'ERROR_MARK_WIDTH', 00H ; `string'
CONST	ENDS
;	COMDAT ??_C@_0BA@NEJKKBEJ@ERROR_LOAD_MARK@
CONST	SEGMENT
??_C@_0BA@NEJKKBEJ@ERROR_LOAD_MARK@ DB 'ERROR_LOAD_MARK', 00H ; `string'
CONST	ENDS
;	COMDAT ??_C@_0BK@BILAANNF@ERROR_CONNECT_MARK_SERVER@
CONST	SEGMENT
??_C@_0BK@BILAANNF@ERROR_CONNECT_MARK_SERVER@ DB 'ERROR_CONNECT_MARK_SERV'
	DB	'ER', 00H					; `string'
CONST	ENDS
;	COMDAT ??_C@_0L@LILDODAP@ERROR_NONE@
CONST	SEGMENT
??_C@_0L@LILDODAP@ERROR_NONE@ DB 'ERROR_NONE', 00H	; `string'
CONST	ENDS
;	COMDAT ??_C@_03NBFOK@net@
CONST	SEGMENT
??_C@_03NBFOK@net@ DB 'net', 00H			; `string'
CONST	ENDS
;	COMDAT ??_C@_0BB@CABIEEGM@RegisterErrorLog@
CONST	SEGMENT
??_C@_0BB@CABIEEGM@RegisterErrorLog@ DB 'RegisterErrorLog', 00H ; `string'
CONST	ENDS
;	COMDAT ??_C@_0BA@ILHNHDAK@RecvGuildSymbol@
CONST	SEGMENT
??_C@_0BA@ILHNHDAK@RecvGuildSymbol@ DB 'RecvGuildSymbol', 00H ; `string'
CONST	ENDS
;	COMDAT ??_C@_0BD@PIFKMNDO@DisconnectUploader@
CONST	SEGMENT
??_C@_0BD@PIFKMNDO@DisconnectUploader@ DB 'DisconnectUploader', 00H ; `string'
CONST	ENDS
;	COMDAT ??_C@_0BA@EGLEIBFB@SendGuildSymbol@
CONST	SEGMENT
??_C@_0BA@EGLEIBFB@SendGuildSymbol@ DB 'SendGuildSymbol', 00H ; `string'
CONST	ENDS
;	COMDAT ??_C@_0BC@NOAKHLIH@SetSkillGroupFake@
CONST	SEGMENT
??_C@_0BC@NOAKHLIH@SetSkillGroupFake@ DB 'SetSkillGroupFake', 00H ; `string'
CONST	ENDS
;	COMDAT ??_C@_0BG@KCIMJDEA@SetEmpireLanguageMode@
CONST	SEGMENT
??_C@_0BG@KCIMJDEA@SetEmpireLanguageMode@ DB 'SetEmpireLanguageMode', 00H ; `string'
CONST	ENDS
;	COMDAT ??_C@_0BG@HLIDKLKJ@SetPacketSequenceMode@
CONST	SEGMENT
??_C@_0BG@HLIDKLKJ@SetPacketSequenceMode@ DB 'SetPacketSequenceMode', 00H ; `string'
CONST	ENDS
;	COMDAT ??_C@_0BF@HEJDCMFH@SendSelectItemPacket@
CONST	SEGMENT
??_C@_0BF@HEJDCMFH@SendSelectItemPacket@ DB 'SendSelectItemPacket', 00H ; `string'
CONST	ENDS
;	COMDAT ??_C@_0BB@MBCAEHJO@SendRefinePacket@
CONST	SEGMENT
??_C@_0BB@MBCAEHJO@SendRefinePacket@ DB 'SendRefinePacket', 00H ; `string'
CONST	ENDS
;	COMDAT ??_C@_0BM@NLIMKJKK@SendRequestRefineInfoPacket@
CONST	SEGMENT
??_C@_0BM@NLIMKJKK@SendRequestRefineInfoPacket@ DB 'SendRequestRefineInfo'
	DB	'Packet', 00H				; `string'
CONST	ENDS
;	COMDAT ??_C@_0BN@BPJGBHPL@SendGuildWithdrawMoneyPacket@
CONST	SEGMENT
??_C@_0BN@BPJGBHPL@SendGuildWithdrawMoneyPacket@ DB 'SendGuildWithdrawMon'
	DB	'eyPacket', 00H				; `string'
CONST	ENDS
;	COMDAT ??_C@_0BM@HDHMFNNO@SendGuildDepositMoneyPacket@
CONST	SEGMENT
??_C@_0BM@HDHMFNNO@SendGuildDepositMoneyPacket@ DB 'SendGuildDepositMoney'
	DB	'Packet', 00H				; `string'
CONST	ENDS
;	COMDAT ??_C@_0BJ@LKJGDIEE@SendGuildChargeGSPPacket@
CONST	SEGMENT
??_C@_0BJ@LKJGDIEE@SendGuildChargeGSPPacket@ DB 'SendGuildChargeGSPPacket'
	DB	00H						; `string'
CONST	ENDS
;	COMDAT ??_C@_0BM@KLBFEJBI@SendGuildInviteAnswerPacket@
CONST	SEGMENT
??_C@_0BM@KLBFEJBI@SendGuildInviteAnswerPacket@ DB 'SendGuildInviteAnswer'
	DB	'Packet', 00H				; `string'
CONST	ENDS
;	COMDAT ??_C@_0CD@BMLIKMKL@SendGuildChangeMemberGeneralPac@
CONST	SEGMENT
??_C@_0CD@BMLIKMKL@SendGuildChangeMemberGeneralPac@ DB 'SendGuildChangeMe'
	DB	'mberGeneralPacket', 00H			; `string'
CONST	ENDS
;	COMDAT ??_C@_0BI@HICDMLJH@SendGuildUseSkillPacket@
CONST	SEGMENT
??_C@_0BI@HICDMLJH@SendGuildUseSkillPacket@ DB 'SendGuildUseSkillPacket', 00H ; `string'
CONST	ENDS
;	COMDAT ??_C@_0CB@KOIDGNFC@SendGuildChangeMemberGradePacke@
CONST	SEGMENT
??_C@_0CB@KOIDGNFC@SendGuildChangeMemberGradePacke@ DB 'SendGuildChangeMe'
	DB	'mberGradePacket', 00H			; `string'
CONST	ENDS
;	COMDAT ??_C@_0BP@BKEOCNGM@SendGuildRefreshCommentsPacket@
CONST	SEGMENT
??_C@_0BP@BKEOCNGM@SendGuildRefreshCommentsPacket@ DB 'SendGuildRefreshCo'
	DB	'mmentsPacket', 00H				; `string'
CONST	ENDS
;	COMDAT ??_C@_0BN@MBNLMFLO@SendGuildDeleteCommentPacket@
CONST	SEGMENT
??_C@_0BN@MBNLMFLO@SendGuildDeleteCommentPacket@ DB 'SendGuildDeleteComme'
	DB	'ntPacket', 00H				; `string'
CONST	ENDS
;	COMDAT ??_C@_0BL@JLEHIONL@SendGuildPostCommentPacket@
CONST	SEGMENT
??_C@_0BL@JLEHIONL@SendGuildPostCommentPacket@ DB 'SendGuildPostCommentPa'
	DB	'cket', 00H					; `string'
CONST	ENDS
;	COMDAT ??_C@_0BF@OAFAHAKB@SendGuildOfferPacket@
CONST	SEGMENT
??_C@_0BF@OAFAHAKB@SendGuildOfferPacket@ DB 'SendGuildOfferPacket', 00H ; `string'
CONST	ENDS
;	COMDAT ??_C@_0CE@EFLFPPCO@SendGuildChangeGradeAuthorityPa@
CONST	SEGMENT
??_C@_0CE@EFLFPPCO@SendGuildChangeGradeAuthorityPa@ DB 'SendGuildChangeGr'
	DB	'adeAuthorityPacket', 00H			; `string'
CONST	ENDS
;	COMDAT ??_C@_0BP@ODLEJFMG@SendGuildChangeGradeNamePacket@
CONST	SEGMENT
??_C@_0BP@ODLEJFMG@SendGuildChangeGradeNamePacket@ DB 'SendGuildChangeGra'
	DB	'deNamePacket', 00H				; `string'
CONST	ENDS
;	COMDAT ??_C@_0BM@GAJEHHNG@SendGuildRemoveMemberPacket@
CONST	SEGMENT
??_C@_0BM@GAJEHHNG@SendGuildRemoveMemberPacket@ DB 'SendGuildRemoveMember'
	DB	'Packet', 00H				; `string'
CONST	ENDS
;	COMDAT ??_C@_0BJ@MFJNIJIJ@SendGuildAddMemberPacket@
CONST	SEGMENT
??_C@_0BJ@MFJNIJIJ@SendGuildAddMemberPacket@ DB 'SendGuildAddMemberPacket'
	DB	00H						; `string'
CONST	ENDS
;	COMDAT ??_C@_0BH@HMDNFHNB@SendQuestConfirmPacket@
CONST	SEGMENT
??_C@_0BH@HMDNFHNB@SendQuestConfirmPacket@ DB 'SendQuestConfirmPacket', 00H ; `string'
CONST	ENDS
;	COMDAT ??_C@_0BL@BJLFPMAE@SendQuestInputStringPacket@
CONST	SEGMENT
??_C@_0BL@BJLFPMAE@SendQuestInputStringPacket@ DB 'SendQuestInputStringPa'
	DB	'cket', 00H					; `string'
CONST	ENDS
;	COMDAT ??_C@_0BK@HLNHPAPM@SendAnswerMakeGuildPacket@
CONST	SEGMENT
??_C@_0BK@HLNHPAPM@SendAnswerMakeGuildPacket@ DB 'SendAnswerMakeGuildPack'
	DB	'et', 00H					; `string'
CONST	ENDS
;	COMDAT ??_C@_0BH@BDNDNKGE@SendMallCheckoutPacket@
CONST	SEGMENT
??_C@_0BH@BDNDNKGE@SendMallCheckoutPacket@ DB 'SendMallCheckoutPacket', 00H ; `string'
CONST	ENDS
;	COMDAT ??_C@_0BK@JMMAEJFJ@SendSafeboxItemMovePacket@
CONST	SEGMENT
??_C@_0BK@JMMAEJFJ@SendSafeboxItemMovePacket@ DB 'SendSafeboxItemMovePack'
	DB	'et', 00H					; `string'
CONST	ENDS
;	COMDAT ??_C@_0BK@LJAMACPE@SendSafeboxCheckoutPacket@
CONST	SEGMENT
??_C@_0BK@LJAMACPE@SendSafeboxCheckoutPacket@ DB 'SendSafeboxCheckoutPack'
	DB	'et', 00H					; `string'
CONST	ENDS
;	COMDAT ??_C@_0BJ@HNJCKALG@SendSafeboxCheckinPacket@
CONST	SEGMENT
??_C@_0BJ@HNJCKALG@SendSafeboxCheckinPacket@ DB 'SendSafeboxCheckinPacket'
	DB	00H						; `string'
CONST	ENDS
;	COMDAT ??_C@_0BP@MLAJADAA@SendSafeboxWithdrawMoneyPacket@
CONST	SEGMENT
??_C@_0BP@MLAJADAA@SendSafeboxWithdrawMoneyPacket@ DB 'SendSafeboxWithdra'
	DB	'wMoneyPacket', 00H				; `string'
CONST	ENDS
;	COMDAT ??_C@_0BL@CAAOLIHO@SendSafeboxSaveMoneyPacket@
CONST	SEGMENT
??_C@_0BL@CAAOLIHO@SendSafeboxSaveMoneyPacket@ DB 'SendSafeboxSaveMoneyPa'
	DB	'cket', 00H					; `string'
CONST	ENDS
;	COMDAT ??_C@_0BJ@JGBOMHFI@SendPartyParameterPacket@
CONST	SEGMENT
??_C@_0BJ@JGBOMHFI@SendPartyParameterPacket@ DB 'SendPartyParameterPacket'
	DB	00H						; `string'
CONST	ENDS
;	COMDAT ??_C@_0BI@EONDHFJL@SendPartyUseSkillPacket@
CONST	SEGMENT
??_C@_0BI@EONDHFJL@SendPartyUseSkillPacket@ DB 'SendPartyUseSkillPacket', 00H ; `string'
CONST	ENDS
;	COMDAT ??_C@_0BI@LNEGCCFH@SendPartySetStatePacket@
CONST	SEGMENT
??_C@_0BI@LNEGCCFH@SendPartySetStatePacket@ DB 'SendPartySetStatePacket', 00H ; `string'
CONST	ENDS
;	COMDAT ??_C@_0BG@JAJGIHK@SendPartyRemovePacket@
CONST	SEGMENT
??_C@_0BG@JAJGIHK@SendPartyRemovePacket@ DB 'SendPartyRemovePacket', 00H ; `string'
CONST	ENDS
;	COMDAT ??_C@_0BE@JHFPDGFP@SendPartyExitPacket@
CONST	SEGMENT
??_C@_0BE@JHFPDGFP@SendPartyExitPacket@ DB 'SendPartyExitPacket', 00H ; `string'
CONST	ENDS
;	COMDAT ??_C@_0BM@PFAFFBJO@SendPartyInviteAnswerPacket@
CONST	SEGMENT
??_C@_0BM@PFAFFBJO@SendPartyInviteAnswerPacket@ DB 'SendPartyInviteAnswer'
	DB	'Packet', 00H				; `string'
CONST	ENDS
;	COMDAT ??_C@_0BG@IFGKMOED@SendPartyInvitePacket@
CONST	SEGMENT
??_C@_0BG@IFGKMOED@SendPartyInvitePacket@ DB 'SendPartyInvitePacket', 00H ; `string'
CONST	ENDS
;	COMDAT ??_C@_0BK@GIIDGGBB@SendMessengerRemovePacket@
CONST	SEGMENT
??_C@_0BK@GIIDGGBB@SendMessengerRemovePacket@ DB 'SendMessengerRemovePack'
	DB	'et', 00H					; `string'
CONST	ENDS
;	COMDAT ??_C@_0BN@MPMOLLL@SendMessengerAddByNamePacket@
CONST	SEGMENT
??_C@_0BN@MPMOLLL@SendMessengerAddByNamePacket@ DB 'SendMessengerAddByNam'
	DB	'ePacket', 00H				; `string'
CONST	ENDS
;	COMDAT ??_C@_0BM@CFLPIFFM@SendMessengerAddByVIDPacket@
CONST	SEGMENT
??_C@_0BM@CFLPIFFM@SendMessengerAddByVIDPacket@ DB 'SendMessengerAddByVID'
	DB	'Packet', 00H				; `string'
CONST	ENDS
;	COMDAT ??_C@_0BH@MCKLKDJM@RegisterEmoticonString@
CONST	SEGMENT
??_C@_0BH@MCKLKDJM@RegisterEmoticonString@ DB 'RegisterEmoticonString', 00H ; `string'
CONST	ENDS
;	COMDAT ??_C@_0BC@FMJHAGEI@SendOnClickPacket@
CONST	SEGMENT
??_C@_0BC@FMJHAGEI@SendOnClickPacket@ DB 'SendOnClickPacket', 00H ; `string'
CONST	ENDS
;	COMDAT ??_C@_0BH@NCONKHHB@SendExchangeExitPacket@
CONST	SEGMENT
??_C@_0BH@NCONKHHB@SendExchangeExitPacket@ DB 'SendExchangeExitPacket', 00H ; `string'
CONST	ENDS
;	COMDAT ??_C@_0BJ@OFKJBLDC@SendExchangeAcceptPacket@
CONST	SEGMENT
??_C@_0BJ@OFKJBLDC@SendExchangeAcceptPacket@ DB 'SendExchangeAcceptPacket'
	DB	00H						; `string'
CONST	ENDS
;	COMDAT ??_C@_0BJ@CGGGIOGM@SendExchangeElkAddPacket@
CONST	SEGMENT
??_C@_0BJ@CGGGIOGM@SendExchangeElkAddPacket@ DB 'SendExchangeElkAddPacket'
	DB	00H						; `string'
CONST	ENDS
;	COMDAT ??_C@_0BK@KKOEHGGC@SendExchangeItemDelPacket@
CONST	SEGMENT
??_C@_0BK@KKOEHGGC@SendExchangeItemDelPacket@ DB 'SendExchangeItemDelPack'
	DB	'et', 00H					; `string'
CONST	ENDS
;	COMDAT ??_C@_0BK@IIFDLCNA@SendExchangeItemAddPacket@
CONST	SEGMENT
??_C@_0BK@IIFDLCNA@SendExchangeItemAddPacket@ DB 'SendExchangeItemAddPack'
	DB	'et', 00H					; `string'
CONST	ENDS
;	COMDAT ??_C@_0BI@BGNKGFKO@SendExchangeStartPacket@
CONST	SEGMENT
??_C@_0BI@BGNKGFKO@SendExchangeStartPacket@ DB 'SendExchangeStartPacket', 00H ; `string'
CONST	ENDS
;	COMDAT ??_C@_0BG@BGJEIPGN@SendShopSellPacketNew@
CONST	SEGMENT
??_C@_0BG@BGJEIPGN@SendShopSellPacketNew@ DB 'SendShopSellPacketNew', 00H ; `string'
CONST	ENDS
;	COMDAT ??_C@_0BD@BFMEHPEE@SendShopSellPacket@
CONST	SEGMENT
??_C@_0BD@BFMEHPEE@SendShopSellPacket@ DB 'SendShopSellPacket', 00H ; `string'
CONST	ENDS
;	COMDAT ??_C@_0BC@FPBLEBCL@SendShopBuyPacket@
CONST	SEGMENT
??_C@_0BC@FPBLEBCL@SendShopBuyPacket@ DB 'SendShopBuyPacket', 00H ; `string'
CONST	ENDS
;	COMDAT ??_C@_0BC@HEOMKCAE@SendShopEndPacket@
CONST	SEGMENT
??_C@_0BC@HEOMKCAE@SendShopEndPacket@ DB 'SendShopEndPacket', 00H ; `string'
CONST	ENDS
;	COMDAT ??_C@_0BM@KAMAKIKL@SendCharacterPositionPacket@
CONST	SEGMENT
??_C@_0BM@KAMAKIKL@SendCharacterPositionPacket@ DB 'SendCharacterPosition'
	DB	'Packet', 00H				; `string'
CONST	ENDS
;	COMDAT ??_C@_0BI@BFCIMAOL@SendMobileMessagePacket@
CONST	SEGMENT
??_C@_0BI@BFCIMAOL@SendMobileMessagePacket@ DB 'SendMobileMessagePacket', 00H ; `string'
CONST	ENDS
;	COMDAT ??_C@_0BC@KNMEABPD@SendWhisperPacket@
CONST	SEGMENT
??_C@_0BC@KNMEABPD@SendWhisperPacket@ DB 'SendWhisperPacket', 00H ; `string'
CONST	ENDS
;	COMDAT ??_C@_0N@BJHGOHPC@SendEmoticon@
CONST	SEGMENT
??_C@_0N@BJHGOHPC@SendEmoticon@ DB 'SendEmoticon', 00H	; `string'
CONST	ENDS
;	COMDAT ??_C@_0P@FJOINOIH@SendChatPacket@
CONST	SEGMENT
??_C@_0P@FJOINOIH@SendChatPacket@ DB 'SendChatPacket', 00H ; `string'
CONST	ENDS
;	COMDAT ??_C@_09HENONEEN@IsConnect@
CONST	SEGMENT
??_C@_09HENONEEN@IsConnect@ DB 'IsConnect', 00H		; `string'
CONST	ENDS
;	COMDAT ??_C@_0L@CMGJAGDM@Disconnect@
CONST	SEGMENT
??_C@_0L@CMGJAGDM@Disconnect@ DB 'Disconnect', 00H	; `string'
CONST	ENDS
;	COMDAT ??_C@_0BA@NKMDDBDL@SetOfflinePhase@
CONST	SEGMENT
??_C@_0BA@NKMDDBDL@SetOfflinePhase@ DB 'SetOfflinePhase', 00H ; `string'
CONST	ENDS
;	COMDAT ??_C@_0BD@FMAJCJM@SendGiveItemPacket@
CONST	SEGMENT
??_C@_0BD@FMAJCJM@SendGiveItemPacket@ DB 'SendGiveItemPacket', 00H ; `string'
CONST	ENDS
;	COMDAT ??_C@_0BF@PJHEIMI@SendItemPickUpPacket@
CONST	SEGMENT
??_C@_0BF@PJHEIMI@SendItemPickUpPacket@ DB 'SendItemPickUpPacket', 00H ; `string'
CONST	ENDS
;	COMDAT ??_C@_0BD@BPAFBGKI@SendItemMovePacket@
CONST	SEGMENT
??_C@_0BD@BPAFBGKI@SendItemMovePacket@ DB 'SendItemMovePacket', 00H ; `string'
CONST	ENDS
;	COMDAT ??_C@_0BG@ONKCIEDE@SendGoldDropPacketNew@
CONST	SEGMENT
??_C@_0BG@ONKCIEDE@SendGoldDropPacketNew@ DB 'SendGoldDropPacketNew', 00H ; `string'
CONST	ENDS
;	COMDAT ??_C@_0BC@NEDFAOHK@SendElkDropPacket@
CONST	SEGMENT
??_C@_0BC@NEDFAOHK@SendElkDropPacket@ DB 'SendElkDropPacket', 00H ; `string'
CONST	ENDS
;	COMDAT ??_C@_0BG@PNFNACGL@SendItemDropPacketNew@
CONST	SEGMENT
??_C@_0BG@PNFNACGL@SendItemDropPacketNew@ DB 'SendItemDropPacketNew', 00H ; `string'
CONST	ENDS
;	COMDAT ??_C@_0BD@ICCAOJBA@SendItemDropPacket@
CONST	SEGMENT
??_C@_0BD@ICCAOJBA@SendItemDropPacket@ DB 'SendItemDropPacket', 00H ; `string'
CONST	ENDS
;	COMDAT ??_C@_0BI@OBDMDOIB@SendItemUseToItemPacket@
CONST	SEGMENT
??_C@_0BI@OBDMDOIB@SendItemUseToItemPacket@ DB 'SendItemUseToItemPacket', 00H ; `string'
CONST	ENDS
;	COMDAT ??_C@_0BC@NHAKBOCP@SendItemUsePacket@
CONST	SEGMENT
??_C@_0BC@NHAKBOCP@SendItemUsePacket@ DB 'SendItemUsePacket', 00H ; `string'
CONST	ENDS
;	COMDAT ??_C@_0BE@NBECPFPH@SendEnterGamePacket@
CONST	SEGMENT
??_C@_0BE@NBECPFPH@SendEnterGamePacket@ DB 'SendEnterGamePacket', 00H ; `string'
CONST	ENDS
;	COMDAT ??_C@_0BL@PMHPNGGJ@SendDestroyCharacterPacket@
CONST	SEGMENT
??_C@_0BL@PMHPNGGJ@SendDestroyCharacterPacket@ DB 'SendDestroyCharacterPa'
	DB	'cket', 00H					; `string'
CONST	ENDS
;	COMDAT ??_C@_0BK@NPKEAJJ@SendCreateCharacterPacket@
CONST	SEGMENT
??_C@_0BK@NPKEAJJ@SendCreateCharacterPacket@ DB 'SendCreateCharacterPacke'
	DB	't', 00H					; `string'
CONST	ENDS
;	COMDAT ??_C@_0BF@ODLJDBF@SendChangeNamePacket@
CONST	SEGMENT
??_C@_0BF@ODLJDBF@SendChangeNamePacket@ DB 'SendChangeNamePacket', 00H ; `string'
CONST	ENDS
;	COMDAT ??_C@_0BK@MIKAHKDI@SendSelectCharacterPacket@
CONST	SEGMENT
??_C@_0BK@MIKAHKDI@SendSelectCharacterPacket@ DB 'SendSelectCharacterPack'
	DB	'et', 00H					; `string'
CONST	ENDS
;	COMDAT ??_C@_0BH@IIELEKKA@SendSelectEmpirePacket@
CONST	SEGMENT
??_C@_0BH@IIELEKKA@SendSelectEmpirePacket@ DB 'SendSelectEmpirePacket', 00H ; `string'
CONST	ENDS
;	COMDAT ??_C@_0BP@JFBAGMPA@SendNEWCIBNPasspodAnswerPacket@
CONST	SEGMENT
??_C@_0BP@JFBAGMPA@SendNEWCIBNPasspodAnswerPacket@ DB 'SendNEWCIBNPasspod'
	DB	'AnswerPacket', 00H				; `string'
CONST	ENDS
;	COMDAT ??_C@_0BK@KNELICML@SendRunupMatrixCardPacket@
CONST	SEGMENT
??_C@_0BK@KNELICML@SendRunupMatrixCardPacket@ DB 'SendRunupMatrixCardPack'
	DB	'et', 00H					; `string'
CONST	ENDS
;	COMDAT ??_C@_0BK@GJKBNMLJ@SendChinaMatrixCardPacket@
CONST	SEGMENT
??_C@_0BK@GJKBNMLJ@SendChinaMatrixCardPacket@ DB 'SendChinaMatrixCardPack'
	DB	'et', 00H					; `string'
CONST	ENDS
;	COMDAT ??_C@_0BA@CNDIKGCL@SendLoginPacket@
CONST	SEGMENT
??_C@_0BA@CNDIKGCL@SendLoginPacket@ DB 'SendLoginPacket', 00H ; `string'
CONST	ENDS
;	COMDAT ??_C@_0BH@CIOLKAIG@ConnectToAccountServer@
CONST	SEGMENT
??_C@_0BH@CIOLKAIG@ConnectToAccountServer@ DB 'ConnectToAccountServer', 00H ; `string'
CONST	ENDS
;	COMDAT ??_C@_0L@MALJFJNO@ConnectUDP@
CONST	SEGMENT
??_C@_0L@MALJFJNO@ConnectUDP@ DB 'ConnectUDP', 00H	; `string'
CONST	ENDS
;	COMDAT ??_C@_0L@HNEKCIDO@ConnectTCP@
CONST	SEGMENT
??_C@_0L@HNEKCIDO@ConnectTCP@ DB 'ConnectTCP', 00H	; `string'
CONST	ENDS
;	COMDAT ??_C@_0BA@ILFBLEPH@ExitApplication@
CONST	SEGMENT
??_C@_0BA@ILFBLEPH@ExitApplication@ DB 'ExitApplication', 00H ; `string'
CONST	ENDS
;	COMDAT ??_C@_08ENBHLCHD@ExitGame@
CONST	SEGMENT
??_C@_08ENBHLCHD@ExitGame@ DB 'ExitGame', 00H		; `string'
CONST	ENDS
;	COMDAT ??_C@_0L@LPFGMFBP@LogOutGame@
CONST	SEGMENT
??_C@_0L@LPFGMFBP@LogOutGame@ DB 'LogOutGame', 00H	; `string'
CONST	ENDS
;	COMDAT ??_C@_0M@PAACKIAL@DirectEnter@
CONST	SEGMENT
??_C@_0M@PAACKIAL@DirectEnter@ DB 'DirectEnter', 00H	; `string'
CONST	ENDS
;	COMDAT ??_C@_0BF@GPIIIFGB@SetUDPRecvBufferSize@
CONST	SEGMENT
??_C@_0BF@GPIIIFGB@SetUDPRecvBufferSize@ DB 'SetUDPRecvBufferSize', 00H ; `string'
CONST	ENDS
;	COMDAT ??_C@_0BF@LOLMIHDO@SetTCPSendBufferSize@
CONST	SEGMENT
??_C@_0BF@LOLMIHDO@SetTCPSendBufferSize@ DB 'SetTCPSendBufferSize', 00H ; `string'
CONST	ENDS
;	COMDAT ??_C@_0BF@KAEIEPML@SetTCPRecvBufferSize@
CONST	SEGMENT
??_C@_0BF@KAEIEPML@SetTCPRecvBufferSize@ DB 'SetTCPRecvBufferSize', 00H ; `string'
CONST	ENDS
;	COMDAT ??_C@_0L@EELFNDHB@SetHandler@
CONST	SEGMENT
??_C@_0L@EELFNDHB@SetHandler@ DB 'SetHandler', 00H	; `string'
CONST	ENDS
;	COMDAT ??_C@_0BL@NJAILJBB@SetAccountConnectorHandler@
CONST	SEGMENT
??_C@_0BL@NJAILJBB@SetAccountConnectorHandler@ DB 'SetAccountConnectorHan'
	DB	'dler', 00H					; `string'
CONST	ENDS
;	COMDAT ??_C@_0BN@KOOLAHFA@SetServerCommandParserWindow@
CONST	SEGMENT
??_C@_0BN@KOOLAHFA@SetServerCommandParserWindow@ DB 'SetServerCommandPars'
	DB	'erWindow', 00H				; `string'
CONST	ENDS
;	COMDAT ??_C@_0BB@NNDKGCIK@ClearPhaseWindow@
CONST	SEGMENT
??_C@_0BB@NNDKGCIK@ClearPhaseWindow@ DB 'ClearPhaseWindow', 00H ; `string'
CONST	ENDS
;	COMDAT ??_C@_0P@EKNNFAK@SetPhaseWindow@
CONST	SEGMENT
??_C@_0P@EKNNFAK@SetPhaseWindow@ DB 'SetPhaseWindow', 00H ; `string'
CONST	ENDS
;	COMDAT ??_C@_0N@GLEGMFLM@SetLoginInfo@
CONST	SEGMENT
??_C@_0N@GLEGMFLM@SetLoginInfo@ DB 'SetLoginInfo', 00H	; `string'
CONST	ENDS
;	COMDAT ??_C@_0BE@BCCLDKB@ToggleGameDebugInfo@
CONST	SEGMENT
??_C@_0BE@BCCLDKB@ToggleGameDebugInfo@ DB 'ToggleGameDebugInfo', 00H ; `string'
CONST	ENDS
;	COMDAT ??_C@_0BE@MHKBLINM@GetFieldMusicVolume@
CONST	SEGMENT
??_C@_0BE@MHKBLINM@GetFieldMusicVolume@ DB 'GetFieldMusicVolume', 00H ; `string'
CONST	ENDS
;	COMDAT ??_C@_0BG@NAMIDKHD@GetFieldMusicFileName@
CONST	SEGMENT
??_C@_0BG@NAMIDKHD@GetFieldMusicFileName@ DB 'GetFieldMusicFileName', 00H ; `string'
CONST	ENDS
;	COMDAT ??_C@_0CC@DLIFIOE@GetAccountCharacterSlotDataStri@
CONST	SEGMENT
??_C@_0CC@DLIFIOE@GetAccountCharacterSlotDataStri@ DB 'GetAccountCharacte'
	DB	'rSlotDataString', 00H			; `string'
CONST	ENDS
;	COMDAT ??_C@_0CD@PJJNPONG@GetAccountCharacterSlotDataInte@
CONST	SEGMENT
??_C@_0CD@PJJNPONG@GetAccountCharacterSlotDataInte@ DB 'GetAccountCharact'
	DB	'erSlotDataInteger', 00H			; `string'
CONST	ENDS
;	COMDAT ??_C@_0BH@GCCMJIJB@GetMainActorSkillGroup@
CONST	SEGMENT
??_C@_0BH@GCCMJIJB@GetMainActorSkillGroup@ DB 'GetMainActorSkillGroup', 00H ; `string'
CONST	ENDS
;	COMDAT ??_C@_0BD@JOIEFGML@GetMainActorEmpire@
CONST	SEGMENT
??_C@_0BD@JOIEFGML@GetMainActorEmpire@ DB 'GetMainActorEmpire', 00H ; `string'
CONST	ENDS
;	COMDAT ??_C@_0BB@ICEJKPHA@GetMainActorRace@
CONST	SEGMENT
??_C@_0BB@ICEJKPHA@GetMainActorRace@ DB 'GetMainActorRace', 00H ; `string'
CONST	ENDS
;	COMDAT ??_C@_0BA@BPHKBGOL@GetMainActorVID@
CONST	SEGMENT
??_C@_0BA@BPHKBGOL@GetMainActorVID@ DB 'GetMainActorVID', 00H ; `string'
CONST	ENDS
;	COMDAT ??_C@_0M@GGDMINDM@GetEmpireID@
CONST	SEGMENT
??_C@_0M@GGDMINDM@GetEmpireID@ DB 'GetEmpireID', 00H	; `string'
CONST	ENDS
;	COMDAT ??_C@_0L@EAKBLDCO@GetGuildID@
CONST	SEGMENT
??_C@_0L@EAKBLDCO@GetGuildID@ DB 'GetGuildID', 00H	; `string'
CONST	ENDS
;	COMDAT ??_C@_0N@OBKBFHKO@UploadSymbol@
CONST	SEGMENT
??_C@_0N@OBKBFHKO@UploadSymbol@ DB 'UploadSymbol', 00H	; `string'
CONST	ENDS
;	COMDAT ??_C@_0L@JEGFHCJL@UploadMark@
CONST	SEGMENT
??_C@_0L@JEGFHCJL@UploadMark@ DB 'UploadMark', 00H	; `string'
CONST	ENDS
;	COMDAT ??_C@_0P@NAIDDMMD@LoadInsultList@
CONST	SEGMENT
??_C@_0P@NAIDDMMD@LoadInsultList@ DB 'LoadInsultList', 00H ; `string'
CONST	ENDS
;	COMDAT ??_C@_0L@CJJGFLBC@IsInsultIn@
CONST	SEGMENT
??_C@_0L@CJJGFLBC@IsInsultIn@ DB 'IsInsultIn', 00H	; `string'
CONST	ENDS
;	COMDAT ??_C@_0P@EPNPIBON@IsChatInsultIn@
CONST	SEGMENT
??_C@_0P@EPNPIBON@IsChatInsultIn@ DB 'IsChatInsultIn', 00H ; `string'
CONST	ENDS
;	COMDAT ??_C@_0O@OFMEOEDD@SetMarkServer@
CONST	SEGMENT
??_C@_0O@OFMEOEDD@SetMarkServer@ DB 'SetMarkServer', 00H ; `string'
CONST	ENDS
;	COMDAT ??_C@_06OCDJGLIF@IsTest@
CONST	SEGMENT
??_C@_06OCDJGLIF@IsTest@ DB 'IsTest', 00H		; `string'
CONST	ENDS
;	COMDAT ??_C@_04EIDOEOJH@Warp@
CONST	SEGMENT
??_C@_04EIDOEOJH@Warp@ DB 'Warp', 00H			; `string'
CONST	ENDS
;	COMDAT ??_C@_09CFNAMFEF@StartGame@
CONST	SEGMENT
??_C@_09CFNAMFEF@StartGame@ DB 'StartGame', 00H		; `string'
CONST	ENDS
;	COMDAT ??_C@_0BK@PJDKKIPH@GetPreservedServerCommand@
CONST	SEGMENT
??_C@_0BK@PJDKKIPH@GetPreservedServerCommand@ DB 'GetPreservedServerComma'
	DB	'nd', 00H					; `string'
CONST	ENDS
;	COMDAT ??_C@_0BG@NJCKCHAI@PreserveServerCommand@
CONST	SEGMENT
??_C@_0BG@NJCKCHAI@PreserveServerCommand@ DB 'PreserveServerCommand', 00H ; `string'
CONST	ENDS
;	COMDAT ??_C@_0O@ODBJLKOA@GetServerInfo@
CONST	SEGMENT
??_C@_0O@ODBJLKOA@GetServerInfo@ DB 'GetServerInfo', 00H ; `string'
CONST	ENDS
;	COMDAT ??_C@_0O@JMAHAJJH@SetServerInfo@
CONST	SEGMENT
??_C@_0O@JMAHAJJH@SetServerInfo@ DB 'SetServerInfo', 00H ; `string'
CONST	ENDS
;	COMDAT ??_C@_0BH@LKCAJGCH@EnableChatInsultFilter@
CONST	SEGMENT
??_C@_0BH@LKCAJGCH@EnableChatInsultFilter@ DB 'EnableChatInsultFilter', 00H ; `string'
CONST	ENDS
;	COMDAT ??_C@_0BI@HFMJEOAC@GetBettingGuildWarValue@
CONST	SEGMENT
??_C@_0BI@HFMJEOAC@GetBettingGuildWarValue@ DB 'GetBettingGuildWarValue', 00H ; `string'
CONST	ENDS
;	COMDAT ?s_methods@?1??initnet@@YAXXZ@4PAUPyMethodDef@@A
_DATA	SEGMENT
?s_methods@?1??initnet@@YAXXZ@4PAUPyMethodDef@@A DD FLAT:??_C@_0BI@HFMJEOAC@GetBettingGuildWarValue@ ; `initnet'::`2'::s_methods
	DD	FLAT:?netGetBettingGuildWarValue@@YAPAU_object@@PAU1@0@Z
	DD	01H
	ORG $+4
	DD	FLAT:??_C@_0BH@LKCAJGCH@EnableChatInsultFilter@
	DD	FLAT:?netEnableChatInsultFilter@@YAPAU_object@@PAU1@0@Z
	DD	01H
	ORG $+4
	DD	FLAT:??_C@_0O@JMAHAJJH@SetServerInfo@
	DD	FLAT:?netSetServerInfo@@YAPAU_object@@PAU1@0@Z
	DD	01H
	ORG $+4
	DD	FLAT:??_C@_0O@ODBJLKOA@GetServerInfo@
	DD	FLAT:?netGetServerInfo@@YAPAU_object@@PAU1@0@Z
	DD	01H
	ORG $+4
	DD	FLAT:??_C@_0BG@NJCKCHAI@PreserveServerCommand@
	DD	FLAT:?netPreserveServerCommand@@YAPAU_object@@PAU1@0@Z
	DD	01H
	ORG $+4
	DD	FLAT:??_C@_0BK@PJDKKIPH@GetPreservedServerCommand@
	DD	FLAT:?netGetPreservedServerCommand@@YAPAU_object@@PAU1@0@Z
	DD	01H
	ORG $+4
	DD	FLAT:??_C@_09CFNAMFEF@StartGame@
	DD	FLAT:?netStartGame@@YAPAU_object@@PAU1@0@Z
	DD	01H
	ORG $+4
	DD	FLAT:??_C@_04EIDOEOJH@Warp@
	DD	FLAT:?netWarp@@YAPAU_object@@PAU1@0@Z
	DD	01H
	ORG $+4
	DD	FLAT:??_C@_06OCDJGLIF@IsTest@
	DD	FLAT:?netIsTest@@YAPAU_object@@PAU1@0@Z
	DD	01H
	ORG $+4
	DD	FLAT:??_C@_0O@OFMEOEDD@SetMarkServer@
	DD	FLAT:?netSetMarkServer@@YAPAU_object@@PAU1@0@Z
	DD	01H
	ORG $+4
	DD	FLAT:??_C@_0P@EPNPIBON@IsChatInsultIn@
	DD	FLAT:?netIsChatInsultIn@@YAPAU_object@@PAU1@0@Z
	DD	01H
	ORG $+4
	DD	FLAT:??_C@_0L@CJJGFLBC@IsInsultIn@
	DD	FLAT:?netIsInsultIn@@YAPAU_object@@PAU1@0@Z
	DD	01H
	ORG $+4
	DD	FLAT:??_C@_0P@NAIDDMMD@LoadInsultList@
	DD	FLAT:?netLoadInsultList@@YAPAU_object@@PAU1@0@Z
	DD	01H
	ORG $+4
	DD	FLAT:??_C@_0L@JEGFHCJL@UploadMark@
	DD	FLAT:?netUploadMark@@YAPAU_object@@PAU1@0@Z
	DD	01H
	ORG $+4
	DD	FLAT:??_C@_0N@OBKBFHKO@UploadSymbol@
	DD	FLAT:?netUploadSymbol@@YAPAU_object@@PAU1@0@Z
	DD	01H
	ORG $+4
	DD	FLAT:??_C@_0L@EAKBLDCO@GetGuildID@
	DD	FLAT:?netGetGuildID@@YAPAU_object@@PAU1@0@Z
	DD	01H
	ORG $+4
	DD	FLAT:??_C@_0M@GGDMINDM@GetEmpireID@
	DD	FLAT:?netGetEmpireID@@YAPAU_object@@PAU1@0@Z
	DD	01H
	ORG $+4
	DD	FLAT:??_C@_0BA@BPHKBGOL@GetMainActorVID@
	DD	FLAT:?netGetMainActorVID@@YAPAU_object@@PAU1@0@Z
	DD	01H
	ORG $+4
	DD	FLAT:??_C@_0BB@ICEJKPHA@GetMainActorRace@
	DD	FLAT:?netGetMainActorRace@@YAPAU_object@@PAU1@0@Z
	DD	01H
	ORG $+4
	DD	FLAT:??_C@_0BD@JOIEFGML@GetMainActorEmpire@
	DD	FLAT:?netGetMainActorEmpire@@YAPAU_object@@PAU1@0@Z
	DD	01H
	ORG $+4
	DD	FLAT:??_C@_0BH@GCCMJIJB@GetMainActorSkillGroup@
	DD	FLAT:?netGetMainActorSkillGroup@@YAPAU_object@@PAU1@0@Z
	DD	01H
	ORG $+4
	DD	FLAT:??_C@_0CD@PJJNPONG@GetAccountCharacterSlotDataInte@
	DD	FLAT:?netGetAccountCharacterSlotDataInteger@@YAPAU_object@@PAU1@0@Z
	DD	01H
	ORG $+4
	DD	FLAT:??_C@_0CC@DLIFIOE@GetAccountCharacterSlotDataStri@
	DD	FLAT:?netGetAccountCharacterSlotDataString@@YAPAU_object@@PAU1@0@Z
	DD	01H
	ORG $+4
	DD	FLAT:??_C@_0BG@NAMIDKHD@GetFieldMusicFileName@
	DD	FLAT:?netGetFieldMusicFileName@@YAPAU_object@@PAU1@0@Z
	DD	01H
	ORG $+4
	DD	FLAT:??_C@_0BE@MHKBLINM@GetFieldMusicVolume@
	DD	FLAT:?netGetFieldMusicVolume@@YAPAU_object@@PAU1@0@Z
	DD	01H
	ORG $+4
	DD	FLAT:??_C@_0BE@BCCLDKB@ToggleGameDebugInfo@
	DD	FLAT:?netToggleGameDebugInfo@@YAPAU_object@@PAU1@0@Z
	DD	01H
	ORG $+4
	DD	FLAT:??_C@_0N@GLEGMFLM@SetLoginInfo@
	DD	FLAT:?netSetLoginInfo@@YAPAU_object@@PAU1@0@Z
	DD	01H
	ORG $+4
	DD	FLAT:??_C@_0P@EKNNFAK@SetPhaseWindow@
	DD	FLAT:?netSetPhaseWindow@@YAPAU_object@@PAU1@0@Z
	DD	01H
	ORG $+4
	DD	FLAT:??_C@_0BB@NNDKGCIK@ClearPhaseWindow@
	DD	FLAT:?netClearPhaseWindow@@YAPAU_object@@PAU1@0@Z
	DD	01H
	ORG $+4
	DD	FLAT:??_C@_0BN@KOOLAHFA@SetServerCommandParserWindow@
	DD	FLAT:?netSetServerCommandParserWindow@@YAPAU_object@@PAU1@0@Z
	DD	01H
	ORG $+4
	DD	FLAT:??_C@_0BL@NJAILJBB@SetAccountConnectorHandler@
	DD	FLAT:?netSetAccountConnectorHandler@@YAPAU_object@@PAU1@0@Z
	DD	01H
	ORG $+4
	DD	FLAT:??_C@_0L@EELFNDHB@SetHandler@
	DD	FLAT:?netSetHandler@@YAPAU_object@@PAU1@0@Z
	DD	01H
	ORG $+4
	DD	FLAT:??_C@_0BF@KAEIEPML@SetTCPRecvBufferSize@
	DD	FLAT:?netSetTCPRecvBufferSize@@YAPAU_object@@PAU1@0@Z
	DD	01H
	ORG $+4
	DD	FLAT:??_C@_0BF@LOLMIHDO@SetTCPSendBufferSize@
	DD	FLAT:?netSetTCPSendBufferSize@@YAPAU_object@@PAU1@0@Z
	DD	01H
	ORG $+4
	DD	FLAT:??_C@_0BF@GPIIIFGB@SetUDPRecvBufferSize@
	DD	FLAT:?netSetUDPRecvBufferSize@@YAPAU_object@@PAU1@0@Z
	DD	01H
	ORG $+4
	DD	FLAT:??_C@_0M@PAACKIAL@DirectEnter@
	DD	FLAT:?netDirectEnter@@YAPAU_object@@PAU1@0@Z
	DD	01H
	ORG $+4
	DD	FLAT:??_C@_0L@LPFGMFBP@LogOutGame@
	DD	FLAT:?netLogOutGame@@YAPAU_object@@PAU1@0@Z
	DD	01H
	ORG $+4
	DD	FLAT:??_C@_08ENBHLCHD@ExitGame@
	DD	FLAT:?netExitGame@@YAPAU_object@@PAU1@0@Z
	DD	01H
	ORG $+4
	DD	FLAT:??_C@_0BA@ILFBLEPH@ExitApplication@
	DD	FLAT:?netExitApplication@@YAPAU_object@@PAU1@0@Z
	DD	01H
	ORG $+4
	DD	FLAT:??_C@_0L@HNEKCIDO@ConnectTCP@
	DD	FLAT:?netConnectTCP@@YAPAU_object@@PAU1@0@Z
	DD	01H
	ORG $+4
	DD	FLAT:??_C@_0L@MALJFJNO@ConnectUDP@
	DD	FLAT:?netConnectUDP@@YAPAU_object@@PAU1@0@Z
	DD	01H
	ORG $+4
	DD	FLAT:??_C@_0BH@CIOLKAIG@ConnectToAccountServer@
	DD	FLAT:?netConnectToAccountServer@@YAPAU_object@@PAU1@0@Z
	DD	01H
	ORG $+4
	DD	FLAT:??_C@_0BA@CNDIKGCL@SendLoginPacket@
	DD	FLAT:?netSendLoginPacket@@YAPAU_object@@PAU1@0@Z
	DD	01H
	ORG $+4
	DD	FLAT:??_C@_0BK@GJKBNMLJ@SendChinaMatrixCardPacket@
	DD	FLAT:?netSendChinaMatrixCardPacket@@YAPAU_object@@PAU1@0@Z
	DD	01H
	ORG $+4
	DD	FLAT:??_C@_0BK@KNELICML@SendRunupMatrixCardPacket@
	DD	FLAT:?netSendRunupMatrixCardPacket@@YAPAU_object@@PAU1@0@Z
	DD	01H
	ORG $+4
	DD	FLAT:??_C@_0BP@JFBAGMPA@SendNEWCIBNPasspodAnswerPacket@
	DD	FLAT:?netSendNEWCIBNPasspodAnswerPacket@@YAPAU_object@@PAU1@0@Z
	DD	01H
	ORG $+4
	DD	FLAT:??_C@_0BH@IIELEKKA@SendSelectEmpirePacket@
	DD	FLAT:?netSendSelectEmpirePacket@@YAPAU_object@@PAU1@0@Z
	DD	01H
	ORG $+4
	DD	FLAT:??_C@_0BK@MIKAHKDI@SendSelectCharacterPacket@
	DD	FLAT:?netSendSelectCharacterPacket@@YAPAU_object@@PAU1@0@Z
	DD	01H
	ORG $+4
	DD	FLAT:??_C@_0BF@ODLJDBF@SendChangeNamePacket@
	DD	FLAT:?netSendChangeNamePacket@@YAPAU_object@@PAU1@0@Z
	DD	01H
	ORG $+4
	DD	FLAT:??_C@_0BK@NPKEAJJ@SendCreateCharacterPacket@
	DD	FLAT:?netSendCreateCharacterPacket@@YAPAU_object@@PAU1@0@Z
	DD	01H
	ORG $+4
	DD	FLAT:??_C@_0BL@PMHPNGGJ@SendDestroyCharacterPacket@
	DD	FLAT:?netSendDestroyCharacterPacket@@YAPAU_object@@PAU1@0@Z
	DD	01H
	ORG $+4
	DD	FLAT:??_C@_0BE@NBECPFPH@SendEnterGamePacket@
	DD	FLAT:?netSendEnterGamePacket@@YAPAU_object@@PAU1@0@Z
	DD	01H
	ORG $+4
	DD	FLAT:??_C@_0BC@NHAKBOCP@SendItemUsePacket@
	DD	FLAT:?netSendItemUsePacket@@YAPAU_object@@PAU1@0@Z
	DD	01H
	ORG $+4
	DD	FLAT:??_C@_0BI@OBDMDOIB@SendItemUseToItemPacket@
	DD	FLAT:?netSendItemUseToItemPacket@@YAPAU_object@@PAU1@0@Z
	DD	01H
	ORG $+4
	DD	FLAT:??_C@_0BD@ICCAOJBA@SendItemDropPacket@
	DD	FLAT:?netSendItemDropPacket@@YAPAU_object@@PAU1@0@Z
	DD	01H
	ORG $+4
	DD	FLAT:??_C@_0BG@PNFNACGL@SendItemDropPacketNew@
	DD	FLAT:?netSendItemDropPacketNew@@YAPAU_object@@PAU1@0@Z
	DD	01H
	ORG $+4
	DD	FLAT:??_C@_0BC@NEDFAOHK@SendElkDropPacket@
	DD	FLAT:?netSendElkDropPacket@@YAPAU_object@@PAU1@0@Z
	DD	01H
	ORG $+4
	DD	FLAT:??_C@_0BG@ONKCIEDE@SendGoldDropPacketNew@
	DD	FLAT:?netSendGoldDropPacketNew@@YAPAU_object@@PAU1@0@Z
	DD	01H
	ORG $+4
	DD	FLAT:??_C@_0BD@BPAFBGKI@SendItemMovePacket@
	DD	FLAT:?netSendItemMovePacket@@YAPAU_object@@PAU1@0@Z
	DD	01H
	ORG $+4
	DD	FLAT:??_C@_0BF@PJHEIMI@SendItemPickUpPacket@
	DD	FLAT:?netSendItemPickUpPacket@@YAPAU_object@@PAU1@0@Z
	DD	01H
	ORG $+4
	DD	FLAT:??_C@_0BD@FMAJCJM@SendGiveItemPacket@
	DD	FLAT:?netSendGiveItemPacket@@YAPAU_object@@PAU1@0@Z
	DD	01H
	ORG $+4
	DD	FLAT:??_C@_0BA@NKMDDBDL@SetOfflinePhase@
	DD	FLAT:?netSetOfflinePhase@@YAPAU_object@@PAU1@0@Z
	DD	01H
	ORG $+4
	DD	FLAT:??_C@_0L@CMGJAGDM@Disconnect@
	DD	FLAT:?netDisconnect@@YAPAU_object@@PAU1@0@Z
	DD	01H
	ORG $+4
	DD	FLAT:??_C@_09HENONEEN@IsConnect@
	DD	FLAT:?netIsConnect@@YAPAU_object@@PAU1@0@Z
	DD	01H
	ORG $+4
	DD	FLAT:??_C@_0P@FJOINOIH@SendChatPacket@
	DD	FLAT:?netSendChatPacket@@YAPAU_object@@PAU1@0@Z
	DD	01H
	ORG $+4
	DD	FLAT:??_C@_0N@BJHGOHPC@SendEmoticon@
	DD	FLAT:?netSendEmoticon@@YAPAU_object@@PAU1@0@Z
	DD	01H
	ORG $+4
	DD	FLAT:??_C@_0BC@KNMEABPD@SendWhisperPacket@
	DD	FLAT:?netSendWhisperPacket@@YAPAU_object@@PAU1@0@Z
	DD	01H
	ORG $+4
	DD	FLAT:??_C@_0BI@BFCIMAOL@SendMobileMessagePacket@
	DD	FLAT:?netSendMobileMessagePacket@@YAPAU_object@@PAU1@0@Z
	DD	01H
	ORG $+4
	DD	FLAT:??_C@_0BM@KAMAKIKL@SendCharacterPositionPacket@
	DD	FLAT:?netSendCharacterPositionPacket@@YAPAU_object@@PAU1@0@Z
	DD	01H
	ORG $+4
	DD	FLAT:??_C@_0BC@HEOMKCAE@SendShopEndPacket@
	DD	FLAT:?netSendShopEndPacket@@YAPAU_object@@PAU1@0@Z
	DD	01H
	ORG $+4
	DD	FLAT:??_C@_0BC@FPBLEBCL@SendShopBuyPacket@
	DD	FLAT:?netSendShopBuyPacket@@YAPAU_object@@PAU1@0@Z
	DD	01H
	ORG $+4
	DD	FLAT:??_C@_0BD@BFMEHPEE@SendShopSellPacket@
	DD	FLAT:?netSendShopSellPacket@@YAPAU_object@@PAU1@0@Z
	DD	01H
	ORG $+4
	DD	FLAT:??_C@_0BG@BGJEIPGN@SendShopSellPacketNew@
	DD	FLAT:?netSendShopSellPacketNew@@YAPAU_object@@PAU1@0@Z
	DD	01H
	ORG $+4
	DD	FLAT:??_C@_0BI@BGNKGFKO@SendExchangeStartPacket@
	DD	FLAT:?netSendExchangeStartPacket@@YAPAU_object@@PAU1@0@Z
	DD	01H
	ORG $+4
	DD	FLAT:??_C@_0BK@IIFDLCNA@SendExchangeItemAddPacket@
	DD	FLAT:?netSendExchangeItemAddPacket@@YAPAU_object@@PAU1@0@Z
	DD	01H
	ORG $+4
	DD	FLAT:??_C@_0BK@KKOEHGGC@SendExchangeItemDelPacket@
	DD	FLAT:?netSendExchangeItemDelPacket@@YAPAU_object@@PAU1@0@Z
	DD	01H
	ORG $+4
	DD	FLAT:??_C@_0BJ@CGGGIOGM@SendExchangeElkAddPacket@
	DD	FLAT:?netSendExchangeElkAddPacket@@YAPAU_object@@PAU1@0@Z
	DD	01H
	ORG $+4
	DD	FLAT:??_C@_0BJ@OFKJBLDC@SendExchangeAcceptPacket@
	DD	FLAT:?netSendExchangeAcceptPacket@@YAPAU_object@@PAU1@0@Z
	DD	01H
	ORG $+4
	DD	FLAT:??_C@_0BH@NCONKHHB@SendExchangeExitPacket@
	DD	FLAT:?netSendExchangeExitPacket@@YAPAU_object@@PAU1@0@Z
	DD	01H
	ORG $+4
	DD	FLAT:??_C@_0BC@FMJHAGEI@SendOnClickPacket@
	DD	FLAT:?netOnClickPacket@@YAPAU_object@@PAU1@0@Z
	DD	01H
	ORG $+4
	DD	FLAT:??_C@_0BH@MCKLKDJM@RegisterEmoticonString@
	DD	FLAT:?netRegisterEmoticonString@@YAPAU_object@@PAU1@0@Z
	DD	01H
	ORG $+4
	DD	FLAT:??_C@_0BM@CFLPIFFM@SendMessengerAddByVIDPacket@
	DD	FLAT:?netSendMessengerAddByVIDPacket@@YAPAU_object@@PAU1@0@Z
	DD	01H
	ORG $+4
	DD	FLAT:??_C@_0BN@MPMOLLL@SendMessengerAddByNamePacket@
	DD	FLAT:?netSendMessengerAddByNamePacket@@YAPAU_object@@PAU1@0@Z
	DD	01H
	ORG $+4
	DD	FLAT:??_C@_0BK@GIIDGGBB@SendMessengerRemovePacket@
	DD	FLAT:?netSendMessengerRemovePacket@@YAPAU_object@@PAU1@0@Z
	DD	01H
	ORG $+4
	DD	FLAT:??_C@_0BG@IFGKMOED@SendPartyInvitePacket@
	DD	FLAT:?netSendPartyInvitePacket@@YAPAU_object@@PAU1@0@Z
	DD	01H
	ORG $+4
	DD	FLAT:??_C@_0BM@PFAFFBJO@SendPartyInviteAnswerPacket@
	DD	FLAT:?netSendPartyInviteAnswerPacket@@YAPAU_object@@PAU1@0@Z
	DD	01H
	ORG $+4
	DD	FLAT:??_C@_0BE@JHFPDGFP@SendPartyExitPacket@
	DD	FLAT:?netSendPartyExitPacket@@YAPAU_object@@PAU1@0@Z
	DD	01H
	ORG $+4
	DD	FLAT:??_C@_0BG@JAJGIHK@SendPartyRemovePacket@
	DD	FLAT:?netSendPartyRemovePacket@@YAPAU_object@@PAU1@0@Z
	DD	01H
	ORG $+4
	DD	FLAT:??_C@_0BI@LNEGCCFH@SendPartySetStatePacket@
	DD	FLAT:?netSendPartySetStatePacket@@YAPAU_object@@PAU1@0@Z
	DD	01H
	ORG $+4
	DD	FLAT:??_C@_0BI@EONDHFJL@SendPartyUseSkillPacket@
	DD	FLAT:?netSendPartyUseSkillPacket@@YAPAU_object@@PAU1@0@Z
	DD	01H
	ORG $+4
	DD	FLAT:??_C@_0BJ@JGBOMHFI@SendPartyParameterPacket@
	DD	FLAT:?netSendPartyParameterPacket@@YAPAU_object@@PAU1@0@Z
	DD	01H
	ORG $+4
	DD	FLAT:??_C@_0BL@CAAOLIHO@SendSafeboxSaveMoneyPacket@
	DD	FLAT:?netSendSafeboxSaveMoneyPacket@@YAPAU_object@@PAU1@0@Z
	DD	01H
	ORG $+4
	DD	FLAT:??_C@_0BP@MLAJADAA@SendSafeboxWithdrawMoneyPacket@
	DD	FLAT:?netSendSafeboxWithdrawMoneyPacket@@YAPAU_object@@PAU1@0@Z
	DD	01H
	ORG $+4
	DD	FLAT:??_C@_0BJ@HNJCKALG@SendSafeboxCheckinPacket@
	DD	FLAT:?netSendSafeboxCheckinPacket@@YAPAU_object@@PAU1@0@Z
	DD	01H
	ORG $+4
	DD	FLAT:??_C@_0BK@LJAMACPE@SendSafeboxCheckoutPacket@
	DD	FLAT:?netSendSafeboxCheckoutPacket@@YAPAU_object@@PAU1@0@Z
	DD	01H
	ORG $+4
	DD	FLAT:??_C@_0BK@JMMAEJFJ@SendSafeboxItemMovePacket@
	DD	FLAT:?netSendSafeboxItemMovePacket@@YAPAU_object@@PAU1@0@Z
	DD	01H
	ORG $+4
	DD	FLAT:??_C@_0BH@BDNDNKGE@SendMallCheckoutPacket@
	DD	FLAT:?netSendMallCheckoutPacket@@YAPAU_object@@PAU1@0@Z
	DD	01H
	ORG $+4
	DD	FLAT:??_C@_0BK@HLNHPAPM@SendAnswerMakeGuildPacket@
	DD	FLAT:?netSendAnswerMakeGuildPacket@@YAPAU_object@@PAU1@0@Z
	DD	01H
	ORG $+4
	DD	FLAT:??_C@_0BL@BJLFPMAE@SendQuestInputStringPacket@
	DD	FLAT:?netSendQuestInputStringPacket@@YAPAU_object@@PAU1@0@Z
	DD	01H
	ORG $+4
	DD	FLAT:??_C@_0BH@HMDNFHNB@SendQuestConfirmPacket@
	DD	FLAT:?netSendQuestConfirmPacket@@YAPAU_object@@PAU1@0@Z
	DD	01H
	ORG $+4
	DD	FLAT:??_C@_0BJ@MFJNIJIJ@SendGuildAddMemberPacket@
	DD	FLAT:?netSendGuildAddMemberPacket@@YAPAU_object@@PAU1@0@Z
	DD	01H
	ORG $+4
	DD	FLAT:??_C@_0BM@GAJEHHNG@SendGuildRemoveMemberPacket@
	DD	FLAT:?netSendGuildRemoveMemberPacket@@YAPAU_object@@PAU1@0@Z
	DD	01H
	ORG $+4
	DD	FLAT:??_C@_0BP@ODLEJFMG@SendGuildChangeGradeNamePacket@
	DD	FLAT:?netSendGuildChangeGradeNamePacket@@YAPAU_object@@PAU1@0@Z
	DD	01H
	ORG $+4
	DD	FLAT:??_C@_0CE@EFLFPPCO@SendGuildChangeGradeAuthorityPa@
	DD	FLAT:?netSendGuildChangeGradeAuthorityPacket@@YAPAU_object@@PAU1@0@Z
	DD	01H
	ORG $+4
	DD	FLAT:??_C@_0BF@OAFAHAKB@SendGuildOfferPacket@
	DD	FLAT:?netSendGuildOfferPacket@@YAPAU_object@@PAU1@0@Z
	DD	01H
	ORG $+4
	DD	FLAT:??_C@_0BL@JLEHIONL@SendGuildPostCommentPacket@
	DD	FLAT:?netSnedGuildPostCommentPacket@@YAPAU_object@@PAU1@0@Z
	DD	01H
	ORG $+4
	DD	FLAT:??_C@_0BN@MBNLMFLO@SendGuildDeleteCommentPacket@
	DD	FLAT:?netSnedGuildDeleteCommentPacket@@YAPAU_object@@PAU1@0@Z
	DD	01H
	ORG $+4
	DD	FLAT:??_C@_0BP@BKEOCNGM@SendGuildRefreshCommentsPacket@
	DD	FLAT:?netSendGuildRefreshCommentsPacket@@YAPAU_object@@PAU1@0@Z
	DD	01H
	ORG $+4
	DD	FLAT:??_C@_0CB@KOIDGNFC@SendGuildChangeMemberGradePacke@
	DD	FLAT:?netSendGuildChangeMemberGradePacket@@YAPAU_object@@PAU1@0@Z
	DD	01H
	ORG $+4
	DD	FLAT:??_C@_0BI@HICDMLJH@SendGuildUseSkillPacket@
	DD	FLAT:?netSendGuildUseSkillPacket@@YAPAU_object@@PAU1@0@Z
	DD	01H
	ORG $+4
	DD	FLAT:??_C@_0CD@BMLIKMKL@SendGuildChangeMemberGeneralPac@
	DD	FLAT:?netSendGuildChangeMemberGeneralPacket@@YAPAU_object@@PAU1@0@Z
	DD	01H
	ORG $+4
	DD	FLAT:??_C@_0BM@KLBFEJBI@SendGuildInviteAnswerPacket@
	DD	FLAT:?netSendGuildInviteAnswerPacket@@YAPAU_object@@PAU1@0@Z
	DD	01H
	ORG $+4
	DD	FLAT:??_C@_0BJ@LKJGDIEE@SendGuildChargeGSPPacket@
	DD	FLAT:?netSendGuildChargeGSPPacket@@YAPAU_object@@PAU1@0@Z
	DD	01H
	ORG $+4
	DD	FLAT:??_C@_0BM@HDHMFNNO@SendGuildDepositMoneyPacket@
	DD	FLAT:?netSendGuildDepositMoneyPacket@@YAPAU_object@@PAU1@0@Z
	DD	01H
	ORG $+4
	DD	FLAT:??_C@_0BN@BPJGBHPL@SendGuildWithdrawMoneyPacket@
	DD	FLAT:?netSendGuildWithdrawMoneyPacket@@YAPAU_object@@PAU1@0@Z
	DD	01H
	ORG $+4
	DD	FLAT:??_C@_0BM@NLIMKJKK@SendRequestRefineInfoPacket@
	DD	FLAT:?netSendRequestRefineInfoPacket@@YAPAU_object@@PAU1@0@Z
	DD	01H
	ORG $+4
	DD	FLAT:??_C@_0BB@MBCAEHJO@SendRefinePacket@
	DD	FLAT:?netSendRefinePacket@@YAPAU_object@@PAU1@0@Z
	DD	01H
	ORG $+4
	DD	FLAT:??_C@_0BF@HEJDCMFH@SendSelectItemPacket@
	DD	FLAT:?netSendSelectItemPacket@@YAPAU_object@@PAU1@0@Z
	DD	01H
	ORG $+4
	DD	FLAT:??_C@_0BG@HLIDKLKJ@SetPacketSequenceMode@
	DD	FLAT:?netSetPacketSequenceMode@@YAPAU_object@@PAU1@0@Z
	DD	01H
	ORG $+4
	DD	FLAT:??_C@_0BG@KCIMJDEA@SetEmpireLanguageMode@
	DD	FLAT:?netSetEmpireLanguageMode@@YAPAU_object@@PAU1@0@Z
	DD	01H
	ORG $+4
	DD	FLAT:??_C@_0BC@NOAKHLIH@SetSkillGroupFake@
	DD	FLAT:?netSetSkillGroupFake@@YAPAU_object@@PAU1@0@Z
	DD	01H
	ORG $+4
	DD	FLAT:??_C@_0BA@EGLEIBFB@SendGuildSymbol@
	DD	FLAT:?netSendGuildSymbol@@YAPAU_object@@PAU1@0@Z
	DD	01H
	ORG $+4
	DD	FLAT:??_C@_0BD@PIFKMNDO@DisconnectUploader@
	DD	FLAT:?netDisconnectUploader@@YAPAU_object@@PAU1@0@Z
	DD	01H
	ORG $+4
	DD	FLAT:??_C@_0BA@ILHNHDAK@RecvGuildSymbol@
	DD	FLAT:?netRecvGuildSymbol@@YAPAU_object@@PAU1@0@Z
	DD	01H
	ORG $+4
	DD	FLAT:??_C@_0BB@CABIEEGM@RegisterErrorLog@
	DD	FLAT:?netRegisterErrorLog@@YAPAU_object@@PAU1@0@Z
	DD	01H
	ORG $+4
	DD	00H
	DD	00H
	DD	00H
	ORG $+4
_DATA	ENDS
;	COMDAT ??_C@_0EE@CPCFCFHF@netSendGuildRemoveMemberPacket?$CI@
CONST	SEGMENT
??_C@_0EE@CPCFCFHF@netSendGuildRemoveMemberPacket?$CI@ DB 'netSendGuildRe'
	DB	'moveMemberPacket(szKey=%s) - Can''t Find Guild Member', 0aH, 00H ; `string'
CONST	ENDS
;	COMDAT ??_C@_01INIBCBCB@f@
CONST	SEGMENT
??_C@_01INIBCBCB@f@ DB 'f', 00H				; `string'
CONST	ENDS
;	COMDAT ??_C@_01LKDEMHDF@s@
CONST	SEGMENT
??_C@_01LKDEMHDF@s@ DB 's', 00H				; `string'
CONST	ENDS
;	COMDAT ??_C@_01KBJDNOO@i@
CONST	SEGMENT
??_C@_01KBJDNOO@i@ DB 'i', 00H				; `string'
CONST	ENDS
_DATA	SEGMENT
?gs_stServerInfo@@3V?$basic_string@DU?$char_traits@D@std@@V?$allocator@D@2@@std@@A DB 00H ; gs_stServerInfo
	DB	19 DUP(00H)
	DD	0fH
_DATA	ENDS
;	COMDAT ??_R1A@?0A@EA@bad_array_new_length@std@@8
rdata$r	SEGMENT
??_R1A@?0A@EA@bad_array_new_length@std@@8 DD FLAT:??_R0?AVbad_array_new_length@std@@@8 ; std::bad_array_new_length::`RTTI Base Class Descriptor at (0,-1,0,64)'
	DD	02H
	DD	00H
	DD	0ffffffffH
	DD	00H
	DD	040H
	DD	FLAT:??_R3bad_array_new_length@std@@8
rdata$r	ENDS
;	COMDAT ??_R2bad_array_new_length@std@@8
rdata$r	SEGMENT
??_R2bad_array_new_length@std@@8 DD FLAT:??_R1A@?0A@EA@bad_array_new_length@std@@8 ; std::bad_array_new_length::`RTTI Base Class Array'
	DD	FLAT:??_R1A@?0A@EA@bad_alloc@std@@8
	DD	FLAT:??_R1A@?0A@EA@exception@std@@8
rdata$r	ENDS
;	COMDAT ??_R3bad_array_new_length@std@@8
rdata$r	SEGMENT
??_R3bad_array_new_length@std@@8 DD 00H			; std::bad_array_new_length::`RTTI Class Hierarchy Descriptor'
	DD	00H
	DD	03H
	DD	FLAT:??_R2bad_array_new_length@std@@8
rdata$r	ENDS
;	COMDAT ??_R4bad_array_new_length@std@@6B@
rdata$r	SEGMENT
??_R4bad_array_new_length@std@@6B@ DD 00H		; std::bad_array_new_length::`RTTI Complete Object Locator'
	DD	00H
	DD	00H
	DD	FLAT:??_R0?AVbad_array_new_length@std@@@8
	DD	FLAT:??_R3bad_array_new_length@std@@8
rdata$r	ENDS
;	COMDAT ??_R1A@?0A@EA@bad_alloc@std@@8
rdata$r	SEGMENT
??_R1A@?0A@EA@bad_alloc@std@@8 DD FLAT:??_R0?AVbad_alloc@std@@@8 ; std::bad_alloc::`RTTI Base Class Descriptor at (0,-1,0,64)'
	DD	01H
	DD	00H
	DD	0ffffffffH
	DD	00H
	DD	040H
	DD	FLAT:??_R3bad_alloc@std@@8
rdata$r	ENDS
;	COMDAT ??_R2bad_alloc@std@@8
rdata$r	SEGMENT
??_R2bad_alloc@std@@8 DD FLAT:??_R1A@?0A@EA@bad_alloc@std@@8 ; std::bad_alloc::`RTTI Base Class Array'
	DD	FLAT:??_R1A@?0A@EA@exception@std@@8
rdata$r	ENDS
;	COMDAT ??_R3bad_alloc@std@@8
rdata$r	SEGMENT
??_R3bad_alloc@std@@8 DD 00H				; std::bad_alloc::`RTTI Class Hierarchy Descriptor'
	DD	00H
	DD	02H
	DD	FLAT:??_R2bad_alloc@std@@8
rdata$r	ENDS
;	COMDAT ??_R4bad_alloc@std@@6B@
rdata$r	SEGMENT
??_R4bad_alloc@std@@6B@ DD 00H				; std::bad_alloc::`RTTI Complete Object Locator'
	DD	00H
	DD	00H
	DD	FLAT:??_R0?AVbad_alloc@std@@@8
	DD	FLAT:??_R3bad_alloc@std@@8
rdata$r	ENDS
;	COMDAT ??_R1A@?0A@EA@exception@std@@8
rdata$r	SEGMENT
??_R1A@?0A@EA@exception@std@@8 DD FLAT:??_R0?AVexception@std@@@8 ; std::exception::`RTTI Base Class Descriptor at (0,-1,0,64)'
	DD	00H
	DD	00H
	DD	0ffffffffH
	DD	00H
	DD	040H
	DD	FLAT:??_R3exception@std@@8
rdata$r	ENDS
;	COMDAT ??_R2exception@std@@8
rdata$r	SEGMENT
??_R2exception@std@@8 DD FLAT:??_R1A@?0A@EA@exception@std@@8 ; std::exception::`RTTI Base Class Array'
rdata$r	ENDS
;	COMDAT ??_R3exception@std@@8
rdata$r	SEGMENT
??_R3exception@std@@8 DD 00H				; std::exception::`RTTI Class Hierarchy Descriptor'
	DD	00H
	DD	01H
	DD	FLAT:??_R2exception@std@@8
rdata$r	ENDS
;	COMDAT ??_R4exception@std@@6B@
rdata$r	SEGMENT
??_R4exception@std@@6B@ DD 00H				; std::exception::`RTTI Complete Object Locator'
	DD	00H
	DD	00H
	DD	FLAT:??_R0?AVexception@std@@@8
	DD	FLAT:??_R3exception@std@@8
rdata$r	ENDS
;	COMDAT ??_C@_0BA@FOIKENOD@vector?5too?5long@
CONST	SEGMENT
??_C@_0BA@FOIKENOD@vector?5too?5long@ DB 'vector too long', 00H ; `string'
CONST	ENDS
;	COMDAT ??_C@_00CNPNBAHC@@
CONST	SEGMENT
??_C@_00CNPNBAHC@@ DB 00H				; `string'
CONST	ENDS
;	COMDAT ??_C@_0BA@JFNIOLAK@string?5too?5long@
CONST	SEGMENT
??_C@_0BA@JFNIOLAK@string?5too?5long@ DB 'string too long', 00H ; `string'
CONST	ENDS
;	COMDAT __CT??_R0?AVexception@std@@@8??0exception@std@@QAE@ABV01@@Z12
xdata$x	SEGMENT
__CT??_R0?AVexception@std@@@8??0exception@std@@QAE@ABV01@@Z12 DD 00H
	DD	FLAT:??_R0?AVexception@std@@@8
	DD	00H
	DD	0ffffffffH
	ORG $+4
	DD	0cH
	DD	FLAT:??0exception@std@@QAE@ABV01@@Z
xdata$x	ENDS
;	COMDAT ??_R0?AVexception@std@@@8
data$r	SEGMENT
??_R0?AVexception@std@@@8 DD FLAT:??_7type_info@@6B@	; std::exception `RTTI Type Descriptor'
	DD	00H
	DB	'.?AVexception@std@@', 00H
data$r	ENDS
;	COMDAT __CT??_R0?AVbad_alloc@std@@@8??0bad_alloc@std@@QAE@ABV01@@Z12
xdata$x	SEGMENT
__CT??_R0?AVbad_alloc@std@@@8??0bad_alloc@std@@QAE@ABV01@@Z12 DD 010H
	DD	FLAT:??_R0?AVbad_alloc@std@@@8
	DD	00H
	DD	0ffffffffH
	ORG $+4
	DD	0cH
	DD	FLAT:??0bad_alloc@std@@QAE@ABV01@@Z
xdata$x	ENDS
;	COMDAT ??_R0?AVbad_alloc@std@@@8
data$r	SEGMENT
??_R0?AVbad_alloc@std@@@8 DD FLAT:??_7type_info@@6B@	; std::bad_alloc `RTTI Type Descriptor'
	DD	00H
	DB	'.?AVbad_alloc@std@@', 00H
data$r	ENDS
;	COMDAT __CT??_R0?AVbad_array_new_length@std@@@8??0bad_array_new_length@std@@QAE@ABV01@@Z12
xdata$x	SEGMENT
__CT??_R0?AVbad_array_new_length@std@@@8??0bad_array_new_length@std@@QAE@ABV01@@Z12 DD 00H
	DD	FLAT:??_R0?AVbad_array_new_length@std@@@8
	DD	00H
	DD	0ffffffffH
	ORG $+4
	DD	0cH
	DD	FLAT:??0bad_array_new_length@std@@QAE@ABV01@@Z
xdata$x	ENDS
;	COMDAT ??_R0?AVbad_array_new_length@std@@@8
data$r	SEGMENT
??_R0?AVbad_array_new_length@std@@@8 DD FLAT:??_7type_info@@6B@ ; std::bad_array_new_length `RTTI Type Descriptor'
	DD	00H
	DB	'.?AVbad_array_new_length@std@@', 00H
data$r	ENDS
;	COMDAT __CTA3?AVbad_array_new_length@std@@
xdata$x	SEGMENT
__CTA3?AVbad_array_new_length@std@@ DD 03H
	DD	FLAT:__CT??_R0?AVbad_array_new_length@std@@@8??0bad_array_new_length@std@@QAE@ABV01@@Z12
	DD	FLAT:__CT??_R0?AVbad_alloc@std@@@8??0bad_alloc@std@@QAE@ABV01@@Z12
	DD	FLAT:__CT??_R0?AVexception@std@@@8??0exception@std@@QAE@ABV01@@Z12
xdata$x	ENDS
;	COMDAT __TI3?AVbad_array_new_length@std@@
xdata$x	SEGMENT
__TI3?AVbad_array_new_length@std@@ DD 00H
	DD	FLAT:??1bad_array_new_length@std@@UAE@XZ
	DD	00H
	DD	FLAT:__CTA3?AVbad_array_new_length@std@@
xdata$x	ENDS
;	COMDAT ??_C@_0BF@KINCDENJ@bad?5array?5new?5length@
CONST	SEGMENT
??_C@_0BF@KINCDENJ@bad?5array?5new?5length@ DB 'bad array new length', 00H ; `string'
CONST	ENDS
;	COMDAT ??_7bad_array_new_length@std@@6B@
CONST	SEGMENT
??_7bad_array_new_length@std@@6B@ DD FLAT:??_R4bad_array_new_length@std@@6B@ ; std::bad_array_new_length::`vftable'
	DD	FLAT:??_Ebad_array_new_length@std@@UAEPAXI@Z
	DD	FLAT:?what@exception@std@@UBEPBDXZ
CONST	ENDS
;	COMDAT ??_7bad_alloc@std@@6B@
CONST	SEGMENT
??_7bad_alloc@std@@6B@ DD FLAT:??_R4bad_alloc@std@@6B@	; std::bad_alloc::`vftable'
	DD	FLAT:??_Ebad_alloc@std@@UAEPAXI@Z
	DD	FLAT:?what@exception@std@@UBEPBDXZ
CONST	ENDS
;	COMDAT ??_C@_0BC@EOODALEL@Unknown?5exception@
CONST	SEGMENT
??_C@_0BC@EOODALEL@Unknown?5exception@ DB 'Unknown exception', 00H ; `string'
CONST	ENDS
;	COMDAT ??_7exception@std@@6B@
CONST	SEGMENT
??_7exception@std@@6B@ DD FLAT:??_R4exception@std@@6B@	; std::exception::`vftable'
	DD	FLAT:??_Eexception@std@@UAEPAXI@Z
	DD	FLAT:?what@exception@std@@UBEPBDXZ
CONST	ENDS
;	COMDAT xdata$x
xdata$x	SEGMENT
__unwindtable$??$?0V?$basic_string@DU?$char_traits@D@std@@V?$allocator@D@2@@std@@@?$_List_node_emplace_op2@V?$allocator@U?$_List_node@V?$basic_string@DU?$char_traits@D@std@@V?$allocator@D@2@@std@@PAX@std@@@std@@@std@@QAE@AAV?$allocator@U?$_List_node@V?$basic_string@DU?$char_traits@D@std@@V?$allocator@D@2@@std@@PAX@std@@@1@$$QAV?$basic_string@DU?$char_traits@D@std@@V?$allocator@D@2@@1@@Z DD 0ffffffffH
	DD	FLAT:__unwindfunclet$??$?0V?$basic_string@DU?$char_traits@D@std@@V?$allocator@D@2@@std@@@?$_List_node_emplace_op2@V?$allocator@U?$_List_node@V?$basic_string@DU?$char_traits@D@std@@V?$allocator@D@2@@std@@PAX@std@@@std@@@std@@QAE@AAV?$allocator@U?$_List_node@V?$basic_string@DU?$char_traits@D@std@@V?$allocator@D@2@@std@@PAX@std@@@1@$$QAV?$basic_string@DU?$char_traits@D@std@@V?$allocator@D@2@@1@@Z$0
__ehfuncinfo$??$?0V?$basic_string@DU?$char_traits@D@std@@V?$allocator@D@2@@std@@@?$_List_node_emplace_op2@V?$allocator@U?$_List_node@V?$basic_string@DU?$char_traits@D@std@@V?$allocator@D@2@@std@@PAX@std@@@std@@@std@@QAE@AAV?$allocator@U?$_List_node@V?$basic_string@DU?$char_traits@D@std@@V?$allocator@D@2@@std@@PAX@std@@@1@$$QAV?$basic_string@DU?$char_traits@D@std@@V?$allocator@D@2@@1@@Z DD 019930522H
	DD	01H
	DD	FLAT:__unwindtable$??$?0V?$basic_string@DU?$char_traits@D@std@@V?$allocator@D@2@@std@@@?$_List_node_emplace_op2@V?$allocator@U?$_List_node@V?$basic_string@DU?$char_traits@D@std@@V?$allocator@D@2@@std@@PAX@std@@@std@@@std@@QAE@AAV?$allocator@U?$_List_node@V?$basic_string@DU?$char_traits@D@std@@V?$allocator@D@2@@std@@PAX@std@@@1@$$QAV?$basic_string@DU?$char_traits@D@std@@V?$allocator@D@2@@1@@Z
	DD	2 DUP(00H)
	DD	2 DUP(00H)
	DD	00H
	DD	01H
xdata$x	ENDS
;	COMDAT xdata$x
xdata$x	SEGMENT
__unwindtable$??$_Emplace@V?$basic_string@DU?$char_traits@D@std@@V?$allocator@D@2@@std@@@?$list@V?$basic_string@DU?$char_traits@D@std@@V?$allocator@D@2@@std@@V?$allocator@V?$basic_string@DU?$char_traits@D@std@@V?$allocator@D@2@@std@@@2@@std@@QAEPAU?$_List_node@V?$basic_string@DU?$char_traits@D@std@@V?$allocator@D@2@@std@@PAX@1@QAU21@$$QAV?$basic_string@DU?$char_traits@D@std@@V?$allocator@D@2@@1@@Z DD 0ffffffffH
	DD	FLAT:__unwindfunclet$??$_Emplace@V?$basic_string@DU?$char_traits@D@std@@V?$allocator@D@2@@std@@@?$list@V?$basic_string@DU?$char_traits@D@std@@V?$allocator@D@2@@std@@V?$allocator@V?$basic_string@DU?$char_traits@D@std@@V?$allocator@D@2@@std@@@2@@std@@QAEPAU?$_List_node@V?$basic_string@DU?$char_traits@D@std@@V?$allocator@D@2@@std@@PAX@1@QAU21@$$QAV?$basic_string@DU?$char_traits@D@std@@V?$allocator@D@2@@1@@Z$1
__ehfuncinfo$??$_Emplace@V?$basic_string@DU?$char_traits@D@std@@V?$allocator@D@2@@std@@@?$list@V?$basic_string@DU?$char_traits@D@std@@V?$allocator@D@2@@std@@V?$allocator@V?$basic_string@DU?$char_traits@D@std@@V?$allocator@D@2@@std@@@2@@std@@QAEPAU?$_List_node@V?$basic_string@DU?$char_traits@D@std@@V?$allocator@D@2@@std@@PAX@1@QAU21@$$QAV?$basic_string@DU?$char_traits@D@std@@V?$allocator@D@2@@1@@Z DD 019930522H
	DD	01H
	DD	FLAT:__unwindtable$??$_Emplace@V?$basic_string@DU?$char_traits@D@std@@V?$allocator@D@2@@std@@@?$list@V?$basic_string@DU?$char_traits@D@std@@V?$allocator@D@2@@std@@V?$allocator@V?$basic_string@DU?$char_traits@D@std@@V?$allocator@D@2@@std@@@2@@std@@QAEPAU?$_List_node@V?$basic_string@DU?$char_traits@D@std@@V?$allocator@D@2@@std@@PAX@1@QAU21@$$QAV?$basic_string@DU?$char_traits@D@std@@V?$allocator@D@2@@1@@Z
	DD	2 DUP(00H)
	DD	2 DUP(00H)
	DD	00H
	DD	01H
xdata$x	ENDS
;	COMDAT xdata$x
xdata$x	SEGMENT
__unwindtable$?netRecvGuildSymbol@@YAPAU_object@@PAU1@0@Z DD 0ffffffffH
	DD	FLAT:__unwindfunclet$?netRecvGuildSymbol@@YAPAU_object@@PAU1@0@Z$0
	DD	00H
	DD	FLAT:__unwindfunclet$?netRecvGuildSymbol@@YAPAU_object@@PAU1@0@Z$1
__ehfuncinfo$?netRecvGuildSymbol@@YAPAU_object@@PAU1@0@Z DD 019930522H
	DD	02H
	DD	FLAT:__unwindtable$?netRecvGuildSymbol@@YAPAU_object@@PAU1@0@Z
	DD	2 DUP(00H)
	DD	2 DUP(00H)
	DD	00H
	DD	01H
xdata$x	ENDS
;	COMDAT xdata$x
xdata$x	SEGMENT
__unwindtable$?netSendGuildSymbol@@YAPAU_object@@PAU1@0@Z DD 0ffffffffH
	DD	FLAT:__unwindfunclet$?netSendGuildSymbol@@YAPAU_object@@PAU1@0@Z$0
__ehfuncinfo$?netSendGuildSymbol@@YAPAU_object@@PAU1@0@Z DD 019930522H
	DD	01H
	DD	FLAT:__unwindtable$?netSendGuildSymbol@@YAPAU_object@@PAU1@0@Z
	DD	2 DUP(00H)
	DD	2 DUP(00H)
	DD	00H
	DD	01H
xdata$x	ENDS
;	COMDAT xdata$x
xdata$x	SEGMENT
__unwindtable$?netPreserveServerCommand@@YAPAU_object@@PAU1@0@Z DD 0ffffffffH
	DD	FLAT:__unwindfunclet$?netPreserveServerCommand@@YAPAU_object@@PAU1@0@Z$0
	DD	00H
	DD	FLAT:__unwindfunclet$?netPreserveServerCommand@@YAPAU_object@@PAU1@0@Z$4
__ehfuncinfo$?netPreserveServerCommand@@YAPAU_object@@PAU1@0@Z DD 019930522H
	DD	02H
	DD	FLAT:__unwindtable$?netPreserveServerCommand@@YAPAU_object@@PAU1@0@Z
	DD	2 DUP(00H)
	DD	2 DUP(00H)
	DD	00H
	DD	01H
xdata$x	ENDS
;	COMDAT xdata$x
xdata$x	SEGMENT
__unwindtable$?push_back@?$list@V?$basic_string@DU?$char_traits@D@std@@V?$allocator@D@2@@std@@V?$allocator@V?$basic_string@DU?$char_traits@D@std@@V?$allocator@D@2@@std@@@2@@std@@QAEX$$QAV?$basic_string@DU?$char_traits@D@std@@V?$allocator@D@2@@2@@Z DD 0ffffffffH
	DD	FLAT:__unwindfunclet$?push_back@?$list@V?$basic_string@DU?$char_traits@D@std@@V?$allocator@D@2@@std@@V?$allocator@V?$basic_string@DU?$char_traits@D@std@@V?$allocator@D@2@@std@@@2@@std@@QAEX$$QAV?$basic_string@DU?$char_traits@D@std@@V?$allocator@D@2@@2@@Z$1
__ehfuncinfo$?push_back@?$list@V?$basic_string@DU?$char_traits@D@std@@V?$allocator@D@2@@std@@V?$allocator@V?$basic_string@DU?$char_traits@D@std@@V?$allocator@D@2@@std@@@2@@std@@QAEX$$QAV?$basic_string@DU?$char_traits@D@std@@V?$allocator@D@2@@2@@Z DD 019930522H
	DD	01H
	DD	FLAT:__unwindtable$?push_back@?$list@V?$basic_string@DU?$char_traits@D@std@@V?$allocator@D@2@@std@@V?$allocator@V?$basic_string@DU?$char_traits@D@std@@V?$allocator@D@2@@std@@@2@@std@@QAEX$$QAV?$basic_string@DU?$char_traits@D@std@@V?$allocator@D@2@@2@@Z
	DD	2 DUP(00H)
	DD	2 DUP(00H)
	DD	00H
	DD	01H
xdata$x	ENDS
CRT$XCU	SEGMENT
?g_kList_strCommand$initializer$@@3P6AXXZA DD FLAT:??__Eg_kList_strCommand@@YAXXZ ; g_kList_strCommand$initializer$
CRT$XCU	ENDS
; Function compile flags: /Ogtp
; File C:\Program Files (x86)\Microsoft Visual Studio\2019\Community\VC\Tools\MSVC\14.28.29333\include\xutility
;	COMDAT ??$_Copy_memmove@PAKPAK@std@@YAPAKPAK00@Z
_TEXT	SEGMENT
__First$ = 8						; size = 4
__Last$ = 12						; size = 4
__Dest$ = 16						; size = 4
??$_Copy_memmove@PAKPAK@std@@YAPAKPAK00@Z PROC		; std::_Copy_memmove<unsigned long *,unsigned long *>, COMDAT

; 4360 : _OutIt _Copy_memmove(_InIt _First, _InIt _Last, _OutIt _Dest) {

  00000	55		 push	 ebp
  00001	8b ec		 mov	 ebp, esp

; 4361 :     const char* const _First_ch = const_cast<const char*>(reinterpret_cast<const volatile char*>(_First));
; 4362 :     const char* const _Last_ch  = const_cast<const char*>(reinterpret_cast<const volatile char*>(_Last));
; 4363 :     char* const _Dest_ch        = const_cast<char*>(reinterpret_cast<volatile char*>(_Dest));
; 4364 :     const auto _Count           = static_cast<size_t>(_Last_ch - _First_ch);

  00003	8b 45 08	 mov	 eax, DWORD PTR __First$[ebp]
  00006	56		 push	 esi

; 4365 :     _CSTD memmove(_Dest_ch, _First_ch, _Count);

  00007	8b 75 10	 mov	 esi, DWORD PTR __Dest$[ebp]
  0000a	57		 push	 edi
  0000b	8b 7d 0c	 mov	 edi, DWORD PTR __Last$[ebp]
  0000e	2b f8		 sub	 edi, eax
  00010	57		 push	 edi
  00011	50		 push	 eax
  00012	56		 push	 esi
  00013	e8 00 00 00 00	 call	 _memmove
  00018	83 c4 0c	 add	 esp, 12			; 0000000cH

; 4366 :     return reinterpret_cast<_OutIt>(_Dest_ch + _Count);

  0001b	8d 04 37	 lea	 eax, DWORD PTR [edi+esi]
  0001e	5f		 pop	 edi
  0001f	5e		 pop	 esi

; 4367 : }

  00020	5d		 pop	 ebp
  00021	c3		 ret	 0
??$_Copy_memmove@PAKPAK@std@@YAPAKPAK00@Z ENDP		; std::_Copy_memmove<unsigned long *,unsigned long *>
_TEXT	ENDS
; Function compile flags: /Ogtp
; File C:\Program Files (x86)\Microsoft Visual Studio\2019\Community\VC\Tools\MSVC\14.28.29333\include\xmemory
;	COMDAT ??$_Uninitialized_move@PAKV?$allocator@K@std@@@std@@YAPAKQAK0PAKAAV?$allocator@K@0@@Z
_TEXT	SEGMENT
__First$ = 8						; size = 4
__Last$ = 12						; size = 4
__Dest$ = 16						; size = 4
__Al$ = 20						; size = 4
??$_Uninitialized_move@PAKV?$allocator@K@std@@@std@@YAPAKQAK0PAKAAV?$allocator@K@0@@Z PROC ; std::_Uninitialized_move<unsigned long *,std::allocator<unsigned long> >, COMDAT

; 1685 :     const _InIt _First, const _InIt _Last, _Alloc_ptr_t<_Alloc> _Dest, _Alloc& _Al) {

  00000	55		 push	 ebp
  00001	8b ec		 mov	 ebp, esp
  00003	53		 push	 ebx

; 1686 :     // move [_First, _Last) to raw _Dest, using _Al
; 1687 :     // note: only called internally from elsewhere in the STL
; 1688 :     using _Ptrval     = typename _Alloc::value_type*;
; 1689 :     auto _UFirst      = _Get_unwrapped(_First);
; 1690 :     const auto _ULast = _Get_unwrapped(_Last);
; 1691 :     if constexpr (conjunction_v<bool_constant<_Ptr_move_cat<decltype(_UFirst), _Ptrval>::_Really_trivial>,
; 1692 :                       _Uses_default_construct<_Alloc, _Ptrval, decltype(_STD move(*_UFirst))>>) {
; 1693 :         _Copy_memmove(_UFirst, _ULast, _Unfancy(_Dest));

  00004	8b 5d 10	 mov	 ebx, DWORD PTR __Dest$[ebp]
  00007	57		 push	 edi
  00008	8b 7d 0c	 mov	 edi, DWORD PTR __Last$[ebp]
  0000b	53		 push	 ebx
  0000c	57		 push	 edi
  0000d	ff 75 08	 push	 DWORD PTR __First$[ebp]
  00010	e8 00 00 00 00	 call	 ??$_Copy_memmove@PAKPAK@std@@YAPAKPAK00@Z ; std::_Copy_memmove<unsigned long *,unsigned long *>

; 1694 :         return _Dest + (_ULast - _UFirst);

  00015	2b 7d 08	 sub	 edi, DWORD PTR __First$[ebp]
  00018	83 c4 0c	 add	 esp, 12			; 0000000cH
  0001b	c1 ff 02	 sar	 edi, 2
  0001e	8d 04 bb	 lea	 eax, DWORD PTR [ebx+edi*4]
  00021	5f		 pop	 edi
  00022	5b		 pop	 ebx

; 1695 :     } else {
; 1696 :         _Uninitialized_backout_al<_Alloc> _Backout{_Dest, _Al};
; 1697 :         for (; _UFirst != _ULast; ++_UFirst) {
; 1698 :             _Backout._Emplace_back(_STD move(*_UFirst));
; 1699 :         }
; 1700 : 
; 1701 :         return _Backout._Release();
; 1702 :     }
; 1703 : }

  00023	5d		 pop	 ebp
  00024	c3		 ret	 0
??$_Uninitialized_move@PAKV?$allocator@K@std@@@std@@YAPAKQAK0PAKAAV?$allocator@K@0@@Z ENDP ; std::_Uninitialized_move<unsigned long *,std::allocator<unsigned long> >
_TEXT	ENDS
; Function compile flags: /Ogtp
; File C:\Program Files (x86)\Microsoft Visual Studio\2019\Community\VC\Tools\MSVC\14.28.29333\include\xmemory
;	COMDAT ??$_Construct_in_place@PAU?$_List_node@V?$basic_string@DU?$char_traits@D@std@@V?$allocator@D@2@@std@@PAX@std@@ABQAU12@@std@@YAXAAPAU?$_List_node@V?$basic_string@DU?$char_traits@D@std@@V?$allocator@D@2@@std@@PAX@0@ABQAU10@@Z
_TEXT	SEGMENT
__Obj$ = 8						; size = 4
_<_Args_0>$ = 12					; size = 4
??$_Construct_in_place@PAU?$_List_node@V?$basic_string@DU?$char_traits@D@std@@V?$allocator@D@2@@std@@PAX@std@@ABQAU12@@std@@YAXAAPAU?$_List_node@V?$basic_string@DU?$char_traits@D@std@@V?$allocator@D@2@@std@@PAX@0@ABQAU10@@Z PROC ; std::_Construct_in_place<std::_List_node<std::basic_string<char,std::char_traits<char>,std::allocator<char> >,void *> *,std::_List_node<std::basic_string<char,std::char_traits<char>,std::allocator<char> >,void *> * const &>, COMDAT

; 228  : void _Construct_in_place(_Ty& _Obj, _Types&&... _Args) noexcept(is_nothrow_constructible_v<_Ty, _Types...>) {

  00000	55		 push	 ebp
  00001	8b ec		 mov	 ebp, esp

; 229  :     ::new (const_cast<void*>(static_cast<const volatile void*>(_STD addressof(_Obj))))

  00003	8b 45 0c	 mov	 eax, DWORD PTR _<_Args_0>$[ebp]
  00006	8b 08		 mov	 ecx, DWORD PTR [eax]
  00008	8b 45 08	 mov	 eax, DWORD PTR __Obj$[ebp]
  0000b	89 08		 mov	 DWORD PTR [eax], ecx

; 230  :         _Ty(_STD forward<_Types>(_Args)...);
; 231  : }

  0000d	5d		 pop	 ebp
  0000e	c3		 ret	 0
??$_Construct_in_place@PAU?$_List_node@V?$basic_string@DU?$char_traits@D@std@@V?$allocator@D@2@@std@@PAX@std@@ABQAU12@@std@@YAXAAPAU?$_List_node@V?$basic_string@DU?$char_traits@D@std@@V?$allocator@D@2@@std@@PAX@0@ABQAU10@@Z ENDP ; std::_Construct_in_place<std::_List_node<std::basic_string<char,std::char_traits<char>,std::allocator<char> >,void *> *,std::_List_node<std::basic_string<char,std::char_traits<char>,std::allocator<char> >,void *> * const &>
_TEXT	ENDS
; Function compile flags: /Ogtp
; File C:\Program Files (x86)\Microsoft Visual Studio\2019\Community\VC\Tools\MSVC\14.28.29333\include\xmemory
;	COMDAT ??$_Destroy_in_place@PAU?$_List_node@V?$basic_string@DU?$char_traits@D@std@@V?$allocator@D@2@@std@@PAX@std@@@std@@YAXAAPAU?$_List_node@V?$basic_string@DU?$char_traits@D@std@@V?$allocator@D@2@@std@@PAX@0@@Z
_TEXT	SEGMENT
__Obj$ = 8						; size = 4
??$_Destroy_in_place@PAU?$_List_node@V?$basic_string@DU?$char_traits@D@std@@V?$allocator@D@2@@std@@PAX@std@@@std@@YAXAAPAU?$_List_node@V?$basic_string@DU?$char_traits@D@std@@V?$allocator@D@2@@std@@PAX@0@@Z PROC ; std::_Destroy_in_place<std::_List_node<std::basic_string<char,std::char_traits<char>,std::allocator<char> >,void *> *>, COMDAT

; 271  : #if _HAS_IF_CONSTEXPR
; 272  :     if constexpr (is_array_v<_Ty>) {
; 273  :         _Destroy_range(_Obj, _Obj + extent_v<_Ty>);
; 274  :     } else
; 275  : #endif // _HAS_IF_CONSTEXPR
; 276  :     {
; 277  :         _Obj.~_Ty();
; 278  :     }
; 279  : }

  00000	c2 00 00	 ret	 0
??$_Destroy_in_place@PAU?$_List_node@V?$basic_string@DU?$char_traits@D@std@@V?$allocator@D@2@@std@@PAX@std@@@std@@YAXAAPAU?$_List_node@V?$basic_string@DU?$char_traits@D@std@@V?$allocator@D@2@@std@@PAX@0@@Z ENDP ; std::_Destroy_in_place<std::_List_node<std::basic_string<char,std::char_traits<char>,std::allocator<char> >,void *> *>
_TEXT	ENDS
; Function compile flags: /Ogtp
; File C:\Program Files (x86)\Microsoft Visual Studio\2019\Community\VC\Tools\MSVC\14.28.29333\include\xmemory
;	COMDAT ??1?$_Alloc_construct_ptr@V?$allocator@U?$_List_node@V?$basic_string@DU?$char_traits@D@std@@V?$allocator@D@2@@std@@PAX@std@@@std@@@std@@QAE@XZ
_TEXT	SEGMENT
??1?$_Alloc_construct_ptr@V?$allocator@U?$_List_node@V?$basic_string@DU?$char_traits@D@std@@V?$allocator@D@2@@std@@PAX@std@@@std@@@std@@QAE@XZ PROC ; std::_Alloc_construct_ptr<std::allocator<std::_List_node<std::basic_string<char,std::char_traits<char>,std::allocator<char> >,void *> > >::~_Alloc_construct_ptr<std::allocator<std::_List_node<std::basic_string<char,std::char_traits<char>,std::allocator<char> >,void *> > >, COMDAT
; _this$ = ecx

; 1057 :         if (_Ptr) {

  00000	8b 41 04	 mov	 eax, DWORD PTR [ecx+4]
  00003	85 c0		 test	 eax, eax
  00005	74 0b		 je	 SHORT $LN2@Alloc_cons

; 810  :         _Deallocate<_New_alignof<_Ty>>(_Ptr, sizeof(_Ty) * _Count);

  00007	6a 20		 push	 32			; 00000020H
  00009	50		 push	 eax
  0000a	e8 00 00 00 00	 call	 ??$_Deallocate@$07$0A@@std@@YAXPAXI@Z ; std::_Deallocate<8,0>
  0000f	83 c4 08	 add	 esp, 8
$LN2@Alloc_cons:

; 1058 :             _Al.deallocate(_Ptr, 1);
; 1059 :         }
; 1060 :     }

  00012	c3		 ret	 0
??1?$_Alloc_construct_ptr@V?$allocator@U?$_List_node@V?$basic_string@DU?$char_traits@D@std@@V?$allocator@D@2@@std@@PAX@std@@@std@@@std@@QAE@XZ ENDP ; std::_Alloc_construct_ptr<std::allocator<std::_List_node<std::basic_string<char,std::char_traits<char>,std::allocator<char> >,void *> > >::~_Alloc_construct_ptr<std::allocator<std::_List_node<std::basic_string<char,std::char_traits<char>,std::allocator<char> >,void *> > >
_TEXT	ENDS
; Function compile flags: /Ogtp
; File C:\Program Files (x86)\Microsoft Visual Studio\2019\Community\VC\Tools\MSVC\14.28.29333\include\xmemory
;	COMDAT ??$_Destroy_range@V?$allocator@K@std@@@std@@YAXPAKQAKAAV?$allocator@K@0@@Z
_TEXT	SEGMENT
__First$ = 8						; size = 4
__Last$ = 12						; size = 4
__Al$ = 16						; size = 4
??$_Destroy_range@V?$allocator@K@std@@@std@@YAXPAKQAKAAV?$allocator@K@0@@Z PROC ; std::_Destroy_range<std::allocator<unsigned long> >, COMDAT

; 963  :     // note that this is an optimization for debug mode codegen; in release mode the BE removes all of this
; 964  :     using _Ty = typename _Alloc::value_type;
; 965  :     if _CONSTEXPR_IF (!conjunction_v<is_trivially_destructible<_Ty>, _Uses_default_destroy<_Alloc, _Ty*>>) {
; 966  :         for (; _First != _Last; ++_First) {
; 967  :             allocator_traits<_Alloc>::destroy(_Al, _Unfancy(_First));
; 968  :         }
; 969  :     }
; 970  : }

  00000	c2 00 00	 ret	 0
??$_Destroy_range@V?$allocator@K@std@@@std@@YAXPAKQAKAAV?$allocator@K@0@@Z ENDP ; std::_Destroy_range<std::allocator<unsigned long> >
_TEXT	ENDS
; Function compile flags: /Ogtp
; File C:\Program Files (x86)\Microsoft Visual Studio\2019\Community\VC\Tools\MSVC\14.28.29333\include\xmemory
;	COMDAT ??$_Construct_in_place@PAU?$_List_node@V?$basic_string@DU?$char_traits@D@std@@V?$allocator@D@2@@std@@PAX@std@@AAPAU12@@std@@YAXAAPAU?$_List_node@V?$basic_string@DU?$char_traits@D@std@@V?$allocator@D@2@@std@@PAX@0@0@Z
_TEXT	SEGMENT
__Obj$ = 8						; size = 4
_<_Args_0>$ = 12					; size = 4
??$_Construct_in_place@PAU?$_List_node@V?$basic_string@DU?$char_traits@D@std@@V?$allocator@D@2@@std@@PAX@std@@AAPAU12@@std@@YAXAAPAU?$_List_node@V?$basic_string@DU?$char_traits@D@std@@V?$allocator@D@2@@std@@PAX@0@0@Z PROC ; std::_Construct_in_place<std::_List_node<std::basic_string<char,std::char_traits<char>,std::allocator<char> >,void *> *,std::_List_node<std::basic_string<char,std::char_traits<char>,std::allocator<char> >,void *> * &>, COMDAT

; 228  : void _Construct_in_place(_Ty& _Obj, _Types&&... _Args) noexcept(is_nothrow_constructible_v<_Ty, _Types...>) {

  00000	55		 push	 ebp
  00001	8b ec		 mov	 ebp, esp

; 229  :     ::new (const_cast<void*>(static_cast<const volatile void*>(_STD addressof(_Obj))))

  00003	8b 45 0c	 mov	 eax, DWORD PTR _<_Args_0>$[ebp]
  00006	8b 08		 mov	 ecx, DWORD PTR [eax]
  00008	8b 45 08	 mov	 eax, DWORD PTR __Obj$[ebp]
  0000b	89 08		 mov	 DWORD PTR [eax], ecx

; 230  :         _Ty(_STD forward<_Types>(_Args)...);
; 231  : }

  0000d	5d		 pop	 ebp
  0000e	c3		 ret	 0
??$_Construct_in_place@PAU?$_List_node@V?$basic_string@DU?$char_traits@D@std@@V?$allocator@D@2@@std@@PAX@std@@AAPAU12@@std@@YAXAAPAU?$_List_node@V?$basic_string@DU?$char_traits@D@std@@V?$allocator@D@2@@std@@PAX@0@0@Z ENDP ; std::_Construct_in_place<std::_List_node<std::basic_string<char,std::char_traits<char>,std::allocator<char> >,void *> *,std::_List_node<std::basic_string<char,std::char_traits<char>,std::allocator<char> >,void *> * &>
_TEXT	ENDS
; Function compile flags: /Ogtp
; File C:\Program Files (x86)\Microsoft Visual Studio\2019\Community\VC\Tools\MSVC\14.28.29333\include\vector
; File C:\Program Files (x86)\Microsoft Visual Studio\2019\Community\VC\Tools\MSVC\14.28.29333\include\xmemory
; File C:\Program Files (x86)\Microsoft Visual Studio\2019\Community\VC\Tools\MSVC\14.28.29333\include\vector
; File C:\Program Files (x86)\Microsoft Visual Studio\2019\Community\VC\Tools\MSVC\14.28.29333\include\xmemory
; File C:\Program Files (x86)\Microsoft Visual Studio\2019\Community\VC\Tools\MSVC\14.28.29333\include\vector
; File C:\Program Files (x86)\Microsoft Visual Studio\2019\Community\VC\Tools\MSVC\14.28.29333\include\xmemory
; File C:\Program Files (x86)\Microsoft Visual Studio\2019\Community\VC\Tools\MSVC\14.28.29333\include\vector
; File C:\Program Files (x86)\Microsoft Visual Studio\2019\Community\VC\Tools\MSVC\14.28.29333\include\xmemory
; File C:\Program Files (x86)\Microsoft Visual Studio\2019\Community\VC\Tools\MSVC\14.28.29333\include\vector
; File C:\Program Files (x86)\Microsoft Visual Studio\2019\Community\VC\Tools\MSVC\14.28.29333\include\xmemory
; File C:\Program Files (x86)\Microsoft Visual Studio\2019\Community\VC\Tools\MSVC\14.28.29333\include\vector
; File C:\Program Files (x86)\Microsoft Visual Studio\2019\Community\VC\Tools\MSVC\14.28.29333\include\xmemory
; File C:\Program Files (x86)\Microsoft Visual Studio\2019\Community\VC\Tools\MSVC\14.28.29333\include\vector
;	COMDAT ??$_Emplace_reallocate@ABK@?$vector@KV?$allocator@K@std@@@std@@QAEPAKQAKABK@Z
_TEXT	SEGMENT
tv435 = -12						; size = 4
__Newsize$1$ = -8					; size = 4
tv434 = -4						; size = 4
__Whereptr$ = 8						; size = 4
_<_Val_0>$ = 12						; size = 4
??$_Emplace_reallocate@ABK@?$vector@KV?$allocator@K@std@@@std@@QAEPAKQAKABK@Z PROC ; std::vector<unsigned long,std::allocator<unsigned long> >::_Emplace_reallocate<unsigned long const &>, COMDAT
; _this$ = ecx

; 725  :     pointer _Emplace_reallocate(const pointer _Whereptr, _Valty&&... _Val) {

  00000	55		 push	 ebp
  00001	8b ec		 mov	 ebp, esp
  00003	83 ec 0c	 sub	 esp, 12			; 0000000cH
  00006	53		 push	 ebx

; 726  :         // reallocate and insert by perfectly forwarding _Val at _Whereptr
; 727  :         _Alty& _Al        = _Getal();
; 728  :         auto& _My_data    = _Mypair._Myval2;
; 729  :         pointer& _Myfirst = _My_data._Myfirst;
; 730  :         pointer& _Mylast  = _My_data._Mylast;
; 731  : 
; 732  :         _STL_INTERNAL_CHECK(_Mylast == _My_data._Myend); // check that we have no unused capacity
; 733  : 
; 734  :         const auto _Whereoff = static_cast<size_type>(_Whereptr - _Myfirst);

  00007	8b 5d 08	 mov	 ebx, DWORD PTR __Whereptr$[ebp]
  0000a	56		 push	 esi
  0000b	8b f1		 mov	 esi, ecx
  0000d	57		 push	 edi
  0000e	8b 16		 mov	 edx, DWORD PTR [esi]
  00010	2b da		 sub	 ebx, edx

; 735  :         const auto _Oldsize  = static_cast<size_type>(_Mylast - _Myfirst);

  00012	8b 46 04	 mov	 eax, DWORD PTR [esi+4]
  00015	2b c2		 sub	 eax, edx
  00017	c1 fb 02	 sar	 ebx, 2
  0001a	c1 f8 02	 sar	 eax, 2

; 736  : 
; 737  :         if (_Oldsize == max_size()) {

  0001d	3d ff ff ff 3f	 cmp	 eax, 1073741823		; 3fffffffH
  00022	0f 84 c4 00 00
	00		 je	 $LN39@Emplace_re

; 1494 :         return static_cast<size_type>(_My_data._Myend - _My_data._Myfirst);

  00028	8b 4e 08	 mov	 ecx, DWORD PTR [esi+8]

; 739  :         }
; 740  : 
; 741  :         const size_type _Newsize     = _Oldsize + 1;

  0002b	8d 78 01	 lea	 edi, DWORD PTR [eax+1]

; 1494 :         return static_cast<size_type>(_My_data._Myend - _My_data._Myfirst);

  0002e	2b ca		 sub	 ecx, edx

; 739  :         }
; 740  : 
; 741  :         const size_type _Newsize     = _Oldsize + 1;

  00030	89 7d f8	 mov	 DWORD PTR __Newsize$1$[ebp], edi

; 1494 :         return static_cast<size_type>(_My_data._Myend - _My_data._Myfirst);

  00033	c1 f9 02	 sar	 ecx, 2

; 1620 :         if (_Oldcapacity > _Max - _Oldcapacity / 2) {

  00036	b8 ff ff ff 3f	 mov	 eax, 1073741823		; 3fffffffH
  0003b	8b d1		 mov	 edx, ecx
  0003d	d1 ea		 shr	 edx, 1
  0003f	2b c2		 sub	 eax, edx
  00041	3b c8		 cmp	 ecx, eax
  00043	76 3a		 jbe	 SHORT $LN12@Emplace_re

; 1621 :             return _Max; // geometric growth would overflow

  00045	b9 ff ff ff 3f	 mov	 ecx, 1073741823		; 3fffffffH
$LN20@Emplace_re:
; File C:\Program Files (x86)\Microsoft Visual Studio\2019\Community\VC\Tools\MSVC\14.28.29333\include\xmemory

; 65   :     return _Count * _Ty_size;

  0004a	8d 04 8d 00 00
	00 00		 lea	 eax, DWORD PTR [ecx*4]

; 814  :         return static_cast<_Ty*>(_Allocate<_New_alignof<_Ty>>(_Get_size_of_n<sizeof(_Ty)>(_Count)));

  00051	50		 push	 eax

; 65   :     return _Count * _Ty_size;

  00052	89 45 f4	 mov	 DWORD PTR tv435[ebp], eax

; 814  :         return static_cast<_Ty*>(_Allocate<_New_alignof<_Ty>>(_Get_size_of_n<sizeof(_Ty)>(_Count)));

  00055	e8 00 00 00 00	 call	 ??$_Allocate@$07U_Default_allocate_traits@std@@$0A@@std@@YAPAXI@Z ; std::_Allocate<8,std::_Default_allocate_traits,0>
; File C:\Program Files (x86)\Microsoft Visual Studio\2019\Community\VC\Tools\MSVC\14.28.29333\include\vector

; 749  :         _Alty_traits::construct(_Al, _Unfancy(_Newvec + _Whereoff), _STD forward<_Valty>(_Val)...);

  0005a	8b 4d 0c	 mov	 ecx, DWORD PTR _<_Val_0>$[ebp]
; File C:\Program Files (x86)\Microsoft Visual Studio\2019\Community\VC\Tools\MSVC\14.28.29333\include\xmemory

; 814  :         return static_cast<_Ty*>(_Allocate<_New_alignof<_Ty>>(_Get_size_of_n<sizeof(_Ty)>(_Count)));

  0005d	8b f8		 mov	 edi, eax
; File C:\Program Files (x86)\Microsoft Visual Studio\2019\Community\VC\Tools\MSVC\14.28.29333\include\vector

; 749  :         _Alty_traits::construct(_Al, _Unfancy(_Newvec + _Whereoff), _STD forward<_Valty>(_Val)...);

  0005f	8d 04 9f	 lea	 eax, DWORD PTR [edi+ebx*4]
; File C:\Program Files (x86)\Microsoft Visual Studio\2019\Community\VC\Tools\MSVC\14.28.29333\include\xmemory

; 814  :         return static_cast<_Ty*>(_Allocate<_New_alignof<_Ty>>(_Get_size_of_n<sizeof(_Ty)>(_Count)));

  00062	83 c4 04	 add	 esp, 4
; File C:\Program Files (x86)\Microsoft Visual Studio\2019\Community\VC\Tools\MSVC\14.28.29333\include\vector

; 752  :         if (_Whereptr == _Mylast) { // at back, provide strong guarantee

  00065	8b 5d 08	 mov	 ebx, DWORD PTR __Whereptr$[ebp]
  00068	89 45 fc	 mov	 DWORD PTR tv434[ebp], eax
  0006b	8b 09		 mov	 ecx, DWORD PTR [ecx]
  0006d	89 08		 mov	 DWORD PTR [eax], ecx
  0006f	8b 56 04	 mov	 edx, DWORD PTR [esi+4]
  00072	8b 0e		 mov	 ecx, DWORD PTR [esi]
  00074	3b da		 cmp	 ebx, edx
  00076	75 1b		 jne	 SHORT $LN4@Emplace_re

; 753  :             _Umove_if_noexcept(_Myfirst, _Mylast, _Newvec);
; 754  :         } else { // provide basic guarantee

  00078	8b 5d fc	 mov	 ebx, DWORD PTR tv434[ebp]

; 1597 :         _Uninitialized_move(_First, _Last, _Dest, _Getal());

  0007b	8b c7		 mov	 eax, edi

; 753  :             _Umove_if_noexcept(_Myfirst, _Mylast, _Newvec);
; 754  :         } else { // provide basic guarantee

  0007d	eb 2b		 jmp	 SHORT $LN5@Emplace_re
$LN12@Emplace_re:

; 1624 :         const size_type _Geometric = _Oldcapacity + _Oldcapacity / 2;

  0007f	8d 04 0a	 lea	 eax, DWORD PTR [edx+ecx]
; File C:\Program Files (x86)\Microsoft Visual Studio\2019\Community\VC\Tools\MSVC\14.28.29333\include\xmemory

; 60   :         if (_Count > _Max_possible) {

  00082	8b cf		 mov	 ecx, edi
  00084	3b c7		 cmp	 eax, edi
  00086	0f 43 c8	 cmovae	 ecx, eax
  00089	81 f9 ff ff ff
	3f		 cmp	 ecx, 1073741823		; 3fffffffH
  0008f	77 60		 ja	 SHORT $LN40@Emplace_re
  00091	eb b7		 jmp	 SHORT $LN20@Emplace_re
$LN4@Emplace_re:
; File C:\Program Files (x86)\Microsoft Visual Studio\2019\Community\VC\Tools\MSVC\14.28.29333\include\vector

; 1592 :         return _Uninitialized_move(_First, _Last, _Dest, _Getal());

  00093	56		 push	 esi
  00094	57		 push	 edi
  00095	53		 push	 ebx
  00096	51		 push	 ecx
  00097	e8 00 00 00 00	 call	 ??$_Uninitialized_move@PAKV?$allocator@K@std@@@std@@YAPAKQAK0PAKAAV?$allocator@K@0@@Z ; std::_Uninitialized_move<unsigned long *,std::allocator<unsigned long> >
  0009c	8b 56 04	 mov	 edx, DWORD PTR [esi+4]
  0009f	8b cb		 mov	 ecx, ebx

; 755  :             _Umove(_Myfirst, _Whereptr, _Newvec);
; 756  :             _Constructed_first = _Newvec;
; 757  :             _Umove(_Whereptr, _Mylast, _Newvec + _Whereoff + 1);

  000a1	8b 5d fc	 mov	 ebx, DWORD PTR tv434[ebp]

; 1592 :         return _Uninitialized_move(_First, _Last, _Dest, _Getal());

  000a4	83 c4 10	 add	 esp, 16			; 00000010H

; 755  :             _Umove(_Myfirst, _Whereptr, _Newvec);
; 756  :             _Constructed_first = _Newvec;
; 757  :             _Umove(_Whereptr, _Mylast, _Newvec + _Whereoff + 1);

  000a7	8d 43 04	 lea	 eax, DWORD PTR [ebx+4]
$LN5@Emplace_re:
  000aa	56		 push	 esi
  000ab	50		 push	 eax
  000ac	52		 push	 edx
  000ad	51		 push	 ecx
  000ae	e8 00 00 00 00	 call	 ??$_Uninitialized_move@PAKV?$allocator@K@std@@@std@@YAPAKQAK0PAKAAV?$allocator@K@0@@Z ; std::_Uninitialized_move<unsigned long *,std::allocator<unsigned long> >

; 1676 :         if (_Myfirst) { // destroy and deallocate old array

  000b3	8b 0e		 mov	 ecx, DWORD PTR [esi]

; 755  :             _Umove(_Myfirst, _Whereptr, _Newvec);
; 756  :             _Constructed_first = _Newvec;
; 757  :             _Umove(_Whereptr, _Mylast, _Newvec + _Whereoff + 1);

  000b5	83 c4 10	 add	 esp, 16			; 00000010H

; 1676 :         if (_Myfirst) { // destroy and deallocate old array

  000b8	85 c9		 test	 ecx, ecx
  000ba	74 12		 je	 SHORT $LN33@Emplace_re

; 1677 :             _Destroy(_Myfirst, _Mylast);
; 1678 :             _Getal().deallocate(_Myfirst, static_cast<size_type>(_Myend - _Myfirst));

  000bc	8b 46 08	 mov	 eax, DWORD PTR [esi+8]
  000bf	2b c1		 sub	 eax, ecx
; File C:\Program Files (x86)\Microsoft Visual Studio\2019\Community\VC\Tools\MSVC\14.28.29333\include\xmemory

; 810  :         _Deallocate<_New_alignof<_Ty>>(_Ptr, sizeof(_Ty) * _Count);

  000c1	83 e0 fc	 and	 eax, -4			; fffffffcH
  000c4	50		 push	 eax
  000c5	51		 push	 ecx
  000c6	e8 00 00 00 00	 call	 ??$_Deallocate@$07$0A@@std@@YAXPAXI@Z ; std::_Deallocate<8,0>
  000cb	83 c4 08	 add	 esp, 8
$LN33@Emplace_re:
; File C:\Program Files (x86)\Microsoft Visual Studio\2019\Community\VC\Tools\MSVC\14.28.29333\include\vector

; 1682 :         _Mylast  = _Newvec + _Newsize;

  000ce	8b 45 f8	 mov	 eax, DWORD PTR __Newsize$1$[ebp]
  000d1	89 3e		 mov	 DWORD PTR [esi], edi
  000d3	8d 0c 87	 lea	 ecx, DWORD PTR [edi+eax*4]

; 758  :         }
; 759  :         _CATCH_ALL
; 760  :         _Destroy(_Constructed_first, _Constructed_last);
; 761  :         _Al.deallocate(_Newvec, _Newcapacity);
; 762  :         _RERAISE;
; 763  :         _CATCH_END
; 764  : 
; 765  :         _Change_array(_Newvec, _Newsize, _Newcapacity);
; 766  :         return _Newvec + _Whereoff;

  000d6	8b c3		 mov	 eax, ebx

; 1682 :         _Mylast  = _Newvec + _Newsize;

  000d8	89 4e 04	 mov	 DWORD PTR [esi+4], ecx

; 1683 :         _Myend   = _Newvec + _Newcapacity;

  000db	8b 4d f4	 mov	 ecx, DWORD PTR tv435[ebp]
  000de	03 cf		 add	 ecx, edi

; 758  :         }
; 759  :         _CATCH_ALL
; 760  :         _Destroy(_Constructed_first, _Constructed_last);
; 761  :         _Al.deallocate(_Newvec, _Newcapacity);
; 762  :         _RERAISE;
; 763  :         _CATCH_END
; 764  : 
; 765  :         _Change_array(_Newvec, _Newsize, _Newcapacity);
; 766  :         return _Newvec + _Whereoff;

  000e0	5f		 pop	 edi

; 1683 :         _Myend   = _Newvec + _Newcapacity;

  000e1	89 4e 08	 mov	 DWORD PTR [esi+8], ecx

; 758  :         }
; 759  :         _CATCH_ALL
; 760  :         _Destroy(_Constructed_first, _Constructed_last);
; 761  :         _Al.deallocate(_Newvec, _Newcapacity);
; 762  :         _RERAISE;
; 763  :         _CATCH_END
; 764  : 
; 765  :         _Change_array(_Newvec, _Newsize, _Newcapacity);
; 766  :         return _Newvec + _Whereoff;

  000e4	5e		 pop	 esi
  000e5	5b		 pop	 ebx

; 767  :     }

  000e6	8b e5		 mov	 esp, ebp
  000e8	5d		 pop	 ebp
  000e9	c2 08 00	 ret	 8
$LN39@Emplace_re:

; 738  :             _Xlength();

  000ec	e8 00 00 00 00	 call	 ?_Xlength@?$vector@KV?$allocator@K@std@@@std@@CAXXZ ; std::vector<unsigned long,std::allocator<unsigned long> >::_Xlength
$LN40@Emplace_re:
; File C:\Program Files (x86)\Microsoft Visual Studio\2019\Community\VC\Tools\MSVC\14.28.29333\include\xmemory

; 61   :             _Throw_bad_array_new_length(); // multiply overflow

  000f1	e8 00 00 00 00	 call	 ?_Throw_bad_array_new_length@std@@YAXXZ ; std::_Throw_bad_array_new_length
$LN37@Emplace_re:
  000f6	cc		 int	 3
??$_Emplace_reallocate@ABK@?$vector@KV?$allocator@K@std@@@std@@QAEPAKQAKABK@Z ENDP ; std::vector<unsigned long,std::allocator<unsigned long> >::_Emplace_reallocate<unsigned long const &>
_TEXT	ENDS
; Function compile flags: /Ogtp
; File D:\Metin2 Server Files\mainline\SRC_2014\Metin2Client\UserInterface\PythonNetworkStreamModule.cpp
;	COMDAT ?netRegisterErrorLog@@YAPAU_object@@PAU1@0@Z
_TEXT	SEGMENT
_szLog$ = -4						; size = 4
_poSelf$ = 8						; size = 4
_poArgs$ = 12						; size = 4
?netRegisterErrorLog@@YAPAU_object@@PAU1@0@Z PROC	; netRegisterErrorLog, COMDAT

; 1703 : {

  00000	55		 push	 ebp
  00001	8b ec		 mov	 ebp, esp
  00003	51		 push	 ecx

; 1704 : 	char * szLog;
; 1705 : 	if (!PyTuple_GetString(poArgs, 0, &szLog))

  00004	8d 45 fc	 lea	 eax, DWORD PTR _szLog$[ebp]
  00007	50		 push	 eax
  00008	6a 00		 push	 0
  0000a	ff 75 0c	 push	 DWORD PTR _poArgs$[ebp]
  0000d	e8 00 00 00 00	 call	 ?PyTuple_GetString@@YA_NPAU_object@@HPAPAD@Z ; PyTuple_GetString
  00012	83 c4 0c	 add	 esp, 12			; 0000000cH
  00015	84 c0		 test	 al, al
  00017	75 0e		 jne	 SHORT $LN2@netRegiste

; 1706 : 		return Py_BuildException();

  00019	6a 00		 push	 0
  0001b	e8 00 00 00 00	 call	 ?Py_BuildException@@YAPAU_object@@PBDZZ ; Py_BuildException
  00020	83 c4 04	 add	 esp, 4

; 1709 : }

  00023	8b e5		 mov	 esp, ebp
  00025	5d		 pop	 ebp
  00026	c3		 ret	 0
$LN2@netRegiste:

; 1707 : 
; 1708 : 	return Py_BuildNone();

  00027	e8 00 00 00 00	 call	 ?Py_BuildNone@@YAPAU_object@@XZ ; Py_BuildNone

; 1709 : }

  0002c	8b e5		 mov	 esp, ebp
  0002e	5d		 pop	 ebp
  0002f	c3		 ret	 0
?netRegisterErrorLog@@YAPAU_object@@PAU1@0@Z ENDP	; netRegisterErrorLog
_TEXT	ENDS
; Function compile flags: /Ogtp
; File D:\Metin2 Server Files\mainline\SRC_2014\Metin2Client\UserInterface\PythonNetworkStreamModule.cpp
; File C:\Program Files (x86)\Microsoft Visual Studio\2019\Community\VC\Tools\MSVC\14.28.29333\include\vector
; File D:\Metin2 Server Files\mainline\SRC_2014\Metin2Client\UserInterface\PythonNetworkStreamModule.cpp
; File C:\Program Files (x86)\Microsoft Visual Studio\2019\Community\VC\Tools\MSVC\14.28.29333\include\vector
; File D:\Metin2 Server Files\mainline\SRC_2014\Metin2Client\UserInterface\PythonNetworkStreamModule.cpp
; File C:\Program Files (x86)\Microsoft Visual Studio\2019\Community\VC\Tools\MSVC\14.28.29333\include\vector
; File D:\Metin2 Server Files\mainline\SRC_2014\Metin2Client\UserInterface\PythonNetworkStreamModule.cpp
; File C:\Program Files (x86)\Microsoft Visual Studio\2019\Community\VC\Tools\MSVC\14.28.29333\include\vector
; File D:\Metin2 Server Files\mainline\SRC_2014\Metin2Client\UserInterface\PythonNetworkStreamModule.cpp
; File C:\Program Files (x86)\Microsoft Visual Studio\2019\Community\VC\Tools\MSVC\14.28.29333\include\vector
; File D:\Metin2 Server Files\mainline\SRC_2014\Metin2Client\UserInterface\PythonNetworkStreamModule.cpp
; File C:\Program Files (x86)\Microsoft Visual Studio\2019\Community\VC\Tools\MSVC\14.28.29333\include\vector
; File C:\Program Files (x86)\Microsoft Visual Studio\2019\Community\VC\Tools\MSVC\14.28.29333\include\xmemory
; File C:\Program Files (x86)\Microsoft Visual Studio\2019\Community\VC\Tools\MSVC\14.28.29333\include\vector
; File D:\Metin2 Server Files\mainline\SRC_2014\Metin2Client\UserInterface\PythonNetworkStreamModule.cpp
;	COMDAT ?netRecvGuildSymbol@@YAPAU_object@@PAU1@0@Z
_TEXT	SEGMENT
$T2 = -60						; size = 4
_iGuildID$ = -56					; size = 4
_szIP$ = -52						; size = 4
_iPort$ = -48						; size = 4
_kVec_dwGuildID$ = -44					; size = 12
_kAddress$ = -32					; size = 16
__$ArrayPad$ = -16					; size = 4
__$EHRec$ = -12						; size = 12
_poSelf$ = 8						; size = 4
_poArgs$ = 12						; size = 4
?netRecvGuildSymbol@@YAPAU_object@@PAU1@0@Z PROC	; netRecvGuildSymbol, COMDAT

; 1675 : {

  00000	55		 push	 ebp
  00001	8b ec		 mov	 ebp, esp
  00003	6a ff		 push	 -1
  00005	68 00 00 00 00	 push	 __ehhandler$?netRecvGuildSymbol@@YAPAU_object@@PAU1@0@Z
  0000a	64 a1 00 00 00
	00		 mov	 eax, DWORD PTR fs:0
  00010	50		 push	 eax
  00011	83 ec 30	 sub	 esp, 48			; 00000030H
  00014	a1 00 00 00 00	 mov	 eax, DWORD PTR ___security_cookie
  00019	33 c5		 xor	 eax, ebp
  0001b	89 45 f0	 mov	 DWORD PTR __$ArrayPad$[ebp], eax
  0001e	56		 push	 esi
  0001f	50		 push	 eax
  00020	8d 45 f4	 lea	 eax, DWORD PTR __$EHRec$[ebp]
  00023	64 a3 00 00 00
	00		 mov	 DWORD PTR fs:0, eax
  00029	8b 75 0c	 mov	 esi, DWORD PTR _poArgs$[ebp]

; 1676 : 	char * szIP;
; 1677 : 	if (!PyTuple_GetString(poArgs, 0, &szIP))

  0002c	8d 45 cc	 lea	 eax, DWORD PTR _szIP$[ebp]
  0002f	50		 push	 eax
  00030	6a 00		 push	 0
  00032	56		 push	 esi
  00033	e8 00 00 00 00	 call	 ?PyTuple_GetString@@YA_NPAU_object@@HPAPAD@Z ; PyTuple_GetString
  00038	83 c4 0c	 add	 esp, 12			; 0000000cH
  0003b	84 c0		 test	 al, al
  0003d	75 0f		 jne	 SHORT $LN2@netRecvGui
$LN30@netRecvGui:

; 1700 : }

  0003f	6a 00		 push	 0
  00041	e8 00 00 00 00	 call	 ?Py_BuildException@@YAPAU_object@@PBDZZ ; Py_BuildException
  00046	83 c4 04	 add	 esp, 4
  00049	e9 c6 00 00 00	 jmp	 $LN1@netRecvGui
$LN2@netRecvGui:

; 1678 : 		return Py_BuildException();
; 1679 : 	int iPort;
; 1680 : 	if (!PyTuple_GetInteger(poArgs, 1, &iPort))

  0004e	8d 45 d0	 lea	 eax, DWORD PTR _iPort$[ebp]
  00051	50		 push	 eax
  00052	6a 01		 push	 1
  00054	56		 push	 esi
  00055	e8 00 00 00 00	 call	 ?PyTuple_GetInteger@@YA_NPAU_object@@HPAH@Z ; PyTuple_GetInteger
  0005a	83 c4 0c	 add	 esp, 12			; 0000000cH
  0005d	84 c0		 test	 al, al
  0005f	74 de		 je	 SHORT $LN30@netRecvGui

; 1681 : 		return Py_BuildException();
; 1682 : 	int iGuildID;
; 1683 : 	if (!PyTuple_GetInteger(poArgs, 2, &iGuildID))

  00061	8d 45 c8	 lea	 eax, DWORD PTR _iGuildID$[ebp]
  00064	50		 push	 eax
  00065	6a 02		 push	 2
  00067	56		 push	 esi
  00068	e8 00 00 00 00	 call	 ?PyTuple_GetInteger@@YA_NPAU_object@@HPAH@Z ; PyTuple_GetInteger
  0006d	83 c4 0c	 add	 esp, 12			; 0000000cH
  00070	84 c0		 test	 al, al
  00072	74 cb		 je	 SHORT $LN30@netRecvGui

; 1684 : 		return Py_BuildException();
; 1685 : 
; 1686 : 	CNetworkAddress kAddress;

  00074	8d 4d e0	 lea	 ecx, DWORD PTR _kAddress$[ebp]
  00077	e8 00 00 00 00	 call	 ??0CNetworkAddress@@QAE@XZ ; CNetworkAddress::CNetworkAddress

; 1687 : 	kAddress.Set(szIP, iPort);

  0007c	ff 75 d0	 push	 DWORD PTR _iPort$[ebp]
  0007f	8d 4d e0	 lea	 ecx, DWORD PTR _kAddress$[ebp]
  00082	c7 45 fc 00 00
	00 00		 mov	 DWORD PTR __$EHRec$[ebp+8], 0
  00089	ff 75 cc	 push	 DWORD PTR _szIP$[ebp]
  0008c	e8 00 00 00 00	 call	 ?Set@CNetworkAddress@@QAE_NPBDH@Z ; CNetworkAddress::Set
; File C:\Program Files (x86)\Microsoft Visual Studio\2019\Community\VC\Tools\MSVC\14.28.29333\include\vector

; 375  :     _Vector_val() noexcept : _Myfirst(), _Mylast(), _Myend() {}

  00091	c7 45 d4 00 00
	00 00		 mov	 DWORD PTR _kVec_dwGuildID$[ebp], 0
  00098	c7 45 dc 00 00
	00 00		 mov	 DWORD PTR _kVec_dwGuildID$[ebp+8], 0
; File D:\Metin2 Server Files\mainline\SRC_2014\Metin2Client\UserInterface\PythonNetworkStreamModule.cpp

; 1691 : 	kVec_dwGuildID.push_back(iGuildID);

  0009f	8b 45 c8	 mov	 eax, DWORD PTR _iGuildID$[ebp]
; File C:\Program Files (x86)\Microsoft Visual Studio\2019\Community\VC\Tools\MSVC\14.28.29333\include\vector

; 708  :         _Ty& _Result = *_Emplace_reallocate(_Mylast, _STD forward<_Valty>(_Val)...);

  000a2	8d 4d d4	 lea	 ecx, DWORD PTR _kVec_dwGuildID$[ebp]
; File D:\Metin2 Server Files\mainline\SRC_2014\Metin2Client\UserInterface\PythonNetworkStreamModule.cpp

; 1691 : 	kVec_dwGuildID.push_back(iGuildID);

  000a5	89 45 c4	 mov	 DWORD PTR $T2[ebp], eax
; File C:\Program Files (x86)\Microsoft Visual Studio\2019\Community\VC\Tools\MSVC\14.28.29333\include\vector

; 708  :         _Ty& _Result = *_Emplace_reallocate(_Mylast, _STD forward<_Valty>(_Val)...);

  000a8	8d 45 c4	 lea	 eax, DWORD PTR $T2[ebp]
  000ab	50		 push	 eax
  000ac	6a 00		 push	 0
; File D:\Metin2 Server Files\mainline\SRC_2014\Metin2Client\UserInterface\PythonNetworkStreamModule.cpp

; 1689 : 	std::vector<DWORD> kVec_dwGuildID;

  000ae	c6 45 fc 01	 mov	 BYTE PTR __$EHRec$[ebp+8], 1

; 1690 : 	kVec_dwGuildID.clear();

  000b2	c7 45 d8 00 00
	00 00		 mov	 DWORD PTR _kVec_dwGuildID$[ebp+4], 0
; File C:\Program Files (x86)\Microsoft Visual Studio\2019\Community\VC\Tools\MSVC\14.28.29333\include\vector

; 708  :         _Ty& _Result = *_Emplace_reallocate(_Mylast, _STD forward<_Valty>(_Val)...);

  000b9	e8 00 00 00 00	 call	 ??$_Emplace_reallocate@ABK@?$vector@KV?$allocator@K@std@@@std@@QAEPAKQAKABK@Z ; std::vector<unsigned long,std::allocator<unsigned long> >::_Emplace_reallocate<unsigned long const &>
; File D:\Metin2 Server Files\mainline\SRC_2014\Metin2Client\UserInterface\PythonNetworkStreamModule.cpp

; 1694 : 	if (!rkGuildMarkDownloader.ConnectToRecvSymbol(kAddress, 0, 0, kVec_dwGuildID))

  000be	8b 0d 00 00 00
	00		 mov	 ecx, DWORD PTR ?ms_singleton@?$CSingleton@VCGuildMarkDownloader@@@@0PAVCGuildMarkDownloader@@A ; CSingleton<CGuildMarkDownloader>::ms_singleton
  000c4	8d 45 d4	 lea	 eax, DWORD PTR _kVec_dwGuildID$[ebp]
  000c7	50		 push	 eax
  000c8	6a 00		 push	 0
  000ca	6a 00		 push	 0
  000cc	8d 45 e0	 lea	 eax, DWORD PTR _kAddress$[ebp]
  000cf	50		 push	 eax
  000d0	e8 00 00 00 00	 call	 ?ConnectToRecvSymbol@CGuildMarkDownloader@@QAE_NABVCNetworkAddress@@KKABV?$vector@KV?$allocator@K@std@@@std@@@Z ; CGuildMarkDownloader::ConnectToRecvSymbol

; 1699 : 	return Py_BuildNone();

  000d5	e8 00 00 00 00	 call	 ?Py_BuildNone@@YAPAU_object@@XZ ; Py_BuildNone
; File C:\Program Files (x86)\Microsoft Visual Studio\2019\Community\VC\Tools\MSVC\14.28.29333\include\vector

; 1694 :         if (_Myfirst) { // destroy and deallocate old array

  000da	8b 55 d4	 mov	 edx, DWORD PTR _kVec_dwGuildID$[ebp]
; File D:\Metin2 Server Files\mainline\SRC_2014\Metin2Client\UserInterface\PythonNetworkStreamModule.cpp

; 1699 : 	return Py_BuildNone();

  000dd	8b f0		 mov	 esi, eax
; File C:\Program Files (x86)\Microsoft Visual Studio\2019\Community\VC\Tools\MSVC\14.28.29333\include\vector

; 1694 :         if (_Myfirst) { // destroy and deallocate old array

  000df	85 d2		 test	 edx, edx
  000e1	74 27		 je	 SHORT $LN25@netRecvGui

; 1695 :             _Destroy(_Myfirst, _Mylast);
; 1696 :             _Getal().deallocate(_Myfirst, static_cast<size_type>(_Myend - _Myfirst));

  000e3	8b 4d dc	 mov	 ecx, DWORD PTR _kVec_dwGuildID$[ebp+8]
  000e6	2b ca		 sub	 ecx, edx
; File C:\Program Files (x86)\Microsoft Visual Studio\2019\Community\VC\Tools\MSVC\14.28.29333\include\xmemory

; 810  :         _Deallocate<_New_alignof<_Ty>>(_Ptr, sizeof(_Ty) * _Count);

  000e8	83 e1 fc	 and	 ecx, -4			; fffffffcH
  000eb	51		 push	 ecx
  000ec	52		 push	 edx
  000ed	e8 00 00 00 00	 call	 ??$_Deallocate@$07$0A@@std@@YAXPAXI@Z ; std::_Deallocate<8,0>
  000f2	83 c4 08	 add	 esp, 8
; File C:\Program Files (x86)\Microsoft Visual Studio\2019\Community\VC\Tools\MSVC\14.28.29333\include\vector

; 1698 :             _Myfirst = pointer();

  000f5	c7 45 d4 00 00
	00 00		 mov	 DWORD PTR _kVec_dwGuildID$[ebp], 0

; 1699 :             _Mylast  = pointer();

  000fc	c7 45 d8 00 00
	00 00		 mov	 DWORD PTR _kVec_dwGuildID$[ebp+4], 0

; 1700 :             _Myend   = pointer();

  00103	c7 45 dc 00 00
	00 00		 mov	 DWORD PTR _kVec_dwGuildID$[ebp+8], 0
$LN25@netRecvGui:
; File D:\Metin2 Server Files\mainline\SRC_2014\Metin2Client\UserInterface\PythonNetworkStreamModule.cpp

; 1699 : 	return Py_BuildNone();

  0010a	8d 4d e0	 lea	 ecx, DWORD PTR _kAddress$[ebp]
  0010d	e8 00 00 00 00	 call	 ??1CNetworkAddress@@QAE@XZ ; CNetworkAddress::~CNetworkAddress
  00112	8b c6		 mov	 eax, esi
$LN1@netRecvGui:

; 1700 : }

  00114	8b 4d f4	 mov	 ecx, DWORD PTR __$EHRec$[ebp]
  00117	64 89 0d 00 00
	00 00		 mov	 DWORD PTR fs:0, ecx
  0011e	59		 pop	 ecx
  0011f	5e		 pop	 esi
  00120	8b 4d f0	 mov	 ecx, DWORD PTR __$ArrayPad$[ebp]
  00123	33 cd		 xor	 ecx, ebp
  00125	e8 00 00 00 00	 call	 @__security_check_cookie@4
  0012a	8b e5		 mov	 esp, ebp
  0012c	5d		 pop	 ebp
  0012d	c3		 ret	 0
_TEXT	ENDS
;	COMDAT text$x
text$x	SEGMENT
__unwindfunclet$?netRecvGuildSymbol@@YAPAU_object@@PAU1@0@Z$0:
  00000	8d 4d e0	 lea	 ecx, DWORD PTR _kAddress$[ebp]
  00003	e9 00 00 00 00	 jmp	 ??1CNetworkAddress@@QAE@XZ ; CNetworkAddress::~CNetworkAddress
__unwindfunclet$?netRecvGuildSymbol@@YAPAU_object@@PAU1@0@Z$1:
  00008	8d 4d d4	 lea	 ecx, DWORD PTR _kVec_dwGuildID$[ebp]
  0000b	e9 00 00 00 00	 jmp	 ??1?$vector@KV?$allocator@K@std@@@std@@QAE@XZ ; std::vector<unsigned long,std::allocator<unsigned long> >::~vector<unsigned long,std::allocator<unsigned long> >
  00010	cc		 int	 3
  00011	cc		 int	 3
  00012	cc		 int	 3
  00013	cc		 int	 3
  00014	cc		 int	 3
__ehhandler$?netRecvGuildSymbol@@YAPAU_object@@PAU1@0@Z:
  00015	90		 npad	 1
  00016	90		 npad	 1
  00017	8b 54 24 08	 mov	 edx, DWORD PTR [esp+8]
  0001b	8d 42 0c	 lea	 eax, DWORD PTR [edx+12]
  0001e	8b 4a c8	 mov	 ecx, DWORD PTR [edx-56]
  00021	33 c8		 xor	 ecx, eax
  00023	e8 00 00 00 00	 call	 @__security_check_cookie@4
  00028	8b 4a fc	 mov	 ecx, DWORD PTR [edx-4]
  0002b	33 c8		 xor	 ecx, eax
  0002d	e8 00 00 00 00	 call	 @__security_check_cookie@4
  00032	b8 00 00 00 00	 mov	 eax, OFFSET __ehfuncinfo$?netRecvGuildSymbol@@YAPAU_object@@PAU1@0@Z
  00037	e9 00 00 00 00	 jmp	 ___CxxFrameHandler3
text$x	ENDS
?netRecvGuildSymbol@@YAPAU_object@@PAU1@0@Z ENDP	; netRecvGuildSymbol
; Function compile flags: /Ogtp
; File D:\Metin2 Server Files\mainline\SRC_2014\Metin2Client\UserInterface\PythonNetworkStreamModule.cpp
;	COMDAT ?netDisconnectUploader@@YAPAU_object@@PAU1@0@Z
_TEXT	SEGMENT
_poSelf$ = 8						; size = 4
_poArgs$ = 12						; size = 4
?netDisconnectUploader@@YAPAU_object@@PAU1@0@Z PROC	; netDisconnectUploader, COMDAT

; 1669 : 	CGuildMarkUploader& rkGuildMarkUploader=CGuildMarkUploader::Instance();
; 1670 : 	rkGuildMarkUploader.Disconnect();

  00000	8b 0d 00 00 00
	00		 mov	 ecx, DWORD PTR ?ms_singleton@?$CSingleton@VCGuildMarkUploader@@@@0PAVCGuildMarkUploader@@A ; CSingleton<CGuildMarkUploader>::ms_singleton
  00006	e8 00 00 00 00	 call	 ?Disconnect@CGuildMarkUploader@@QAEXXZ ; CGuildMarkUploader::Disconnect

; 1671 : 	return Py_BuildNone();

  0000b	e9 00 00 00 00	 jmp	 ?Py_BuildNone@@YAPAU_object@@XZ ; Py_BuildNone
?netDisconnectUploader@@YAPAU_object@@PAU1@0@Z ENDP	; netDisconnectUploader
_TEXT	ENDS
; Function compile flags: /Ogtp
; File D:\Metin2 Server Files\mainline\SRC_2014\Metin2Client\UserInterface\PythonNetworkStreamModule.cpp
;	COMDAT ?netSendGuildSymbol@@YAPAU_object@@PAU1@0@Z
_TEXT	SEGMENT
_uiError$ = -52						; size = 4
_iGuildID$ = -48					; size = 4
_szFileName$ = -44					; size = 4
_szIP$ = -40						; size = 4
_iPort$ = -36						; size = 4
_kAddress$ = -32					; size = 16
__$ArrayPad$ = -16					; size = 4
__$EHRec$ = -12						; size = 12
_poSelf$ = 8						; size = 4
_poArgs$ = 12						; size = 4
?netSendGuildSymbol@@YAPAU_object@@PAU1@0@Z PROC	; netSendGuildSymbol, COMDAT

; 1639 : {

  00000	55		 push	 ebp
  00001	8b ec		 mov	 ebp, esp
  00003	6a ff		 push	 -1
  00005	68 00 00 00 00	 push	 __ehhandler$?netSendGuildSymbol@@YAPAU_object@@PAU1@0@Z
  0000a	64 a1 00 00 00
	00		 mov	 eax, DWORD PTR fs:0
  00010	50		 push	 eax
  00011	83 ec 28	 sub	 esp, 40			; 00000028H
  00014	a1 00 00 00 00	 mov	 eax, DWORD PTR ___security_cookie
  00019	33 c5		 xor	 eax, ebp
  0001b	89 45 f0	 mov	 DWORD PTR __$ArrayPad$[ebp], eax
  0001e	56		 push	 esi
  0001f	50		 push	 eax
  00020	8d 45 f4	 lea	 eax, DWORD PTR __$EHRec$[ebp]
  00023	64 a3 00 00 00
	00		 mov	 DWORD PTR fs:0, eax
  00029	8b 75 0c	 mov	 esi, DWORD PTR _poArgs$[ebp]

; 1640 : 	char * szIP;
; 1641 : 	if (!PyTuple_GetString(poArgs, 0, &szIP))

  0002c	8d 45 d8	 lea	 eax, DWORD PTR _szIP$[ebp]
  0002f	50		 push	 eax
  00030	6a 00		 push	 0
  00032	56		 push	 esi
  00033	e8 00 00 00 00	 call	 ?PyTuple_GetString@@YA_NPAU_object@@HPAPAD@Z ; PyTuple_GetString
  00038	83 c4 0c	 add	 esp, 12			; 0000000cH
  0003b	84 c0		 test	 al, al
  0003d	75 0f		 jne	 SHORT $LN2@netSendGui
$LN10@netSendGui:

; 1665 : }

  0003f	6a 00		 push	 0
  00041	e8 00 00 00 00	 call	 ?Py_BuildException@@YAPAU_object@@PBDZZ ; Py_BuildException
  00046	83 c4 04	 add	 esp, 4
  00049	e9 84 00 00 00	 jmp	 $LN1@netSendGui
$LN2@netSendGui:

; 1642 : 		return Py_BuildException();
; 1643 : 	int iPort;
; 1644 : 	if (!PyTuple_GetInteger(poArgs, 1, &iPort))

  0004e	8d 45 dc	 lea	 eax, DWORD PTR _iPort$[ebp]
  00051	50		 push	 eax
  00052	6a 01		 push	 1
  00054	56		 push	 esi
  00055	e8 00 00 00 00	 call	 ?PyTuple_GetInteger@@YA_NPAU_object@@HPAH@Z ; PyTuple_GetInteger
  0005a	83 c4 0c	 add	 esp, 12			; 0000000cH
  0005d	84 c0		 test	 al, al
  0005f	74 de		 je	 SHORT $LN10@netSendGui

; 1645 : 		return Py_BuildException();
; 1646 : 	char * szFileName;
; 1647 : 	if (!PyTuple_GetString(poArgs, 2, &szFileName))

  00061	8d 45 d4	 lea	 eax, DWORD PTR _szFileName$[ebp]
  00064	50		 push	 eax
  00065	6a 02		 push	 2
  00067	56		 push	 esi
  00068	e8 00 00 00 00	 call	 ?PyTuple_GetString@@YA_NPAU_object@@HPAPAD@Z ; PyTuple_GetString
  0006d	83 c4 0c	 add	 esp, 12			; 0000000cH
  00070	84 c0		 test	 al, al
  00072	74 cb		 je	 SHORT $LN10@netSendGui

; 1648 : 		return Py_BuildException();
; 1649 : 	int iGuildID;
; 1650 : 	if (!PyTuple_GetInteger(poArgs, 3, &iGuildID))

  00074	8d 45 d0	 lea	 eax, DWORD PTR _iGuildID$[ebp]
  00077	50		 push	 eax
  00078	6a 03		 push	 3
  0007a	56		 push	 esi
  0007b	e8 00 00 00 00	 call	 ?PyTuple_GetInteger@@YA_NPAU_object@@HPAH@Z ; PyTuple_GetInteger
  00080	83 c4 0c	 add	 esp, 12			; 0000000cH
  00083	84 c0		 test	 al, al
  00085	74 b8		 je	 SHORT $LN10@netSendGui

; 1651 : 		return Py_BuildException();
; 1652 : 
; 1653 : 	CNetworkAddress kAddress;

  00087	8d 4d e0	 lea	 ecx, DWORD PTR _kAddress$[ebp]
  0008a	e8 00 00 00 00	 call	 ??0CNetworkAddress@@QAE@XZ ; CNetworkAddress::CNetworkAddress

; 1654 : 	kAddress.Set(szIP, iPort);

  0008f	ff 75 dc	 push	 DWORD PTR _iPort$[ebp]
  00092	8d 4d e0	 lea	 ecx, DWORD PTR _kAddress$[ebp]
  00095	c7 45 fc 00 00
	00 00		 mov	 DWORD PTR __$EHRec$[ebp+8], 0
  0009c	ff 75 d8	 push	 DWORD PTR _szIP$[ebp]
  0009f	e8 00 00 00 00	 call	 ?Set@CNetworkAddress@@QAE_NPBDH@Z ; CNetworkAddress::Set

; 1655 : 
; 1656 : 	UINT uiError;
; 1657 : 
; 1658 : 	CGuildMarkUploader& rkGuildMarkUploader=CGuildMarkUploader::Instance();
; 1659 : 	if (!rkGuildMarkUploader.ConnectToSendSymbol(kAddress, 0, 0, iGuildID, szFileName, &uiError))

  000a4	8b 0d 00 00 00
	00		 mov	 ecx, DWORD PTR ?ms_singleton@?$CSingleton@VCGuildMarkUploader@@@@0PAVCGuildMarkUploader@@A ; CSingleton<CGuildMarkUploader>::ms_singleton
  000aa	8d 45 cc	 lea	 eax, DWORD PTR _uiError$[ebp]
  000ad	50		 push	 eax
  000ae	ff 75 d4	 push	 DWORD PTR _szFileName$[ebp]
  000b1	8d 45 e0	 lea	 eax, DWORD PTR _kAddress$[ebp]
  000b4	ff 75 d0	 push	 DWORD PTR _iGuildID$[ebp]
  000b7	6a 00		 push	 0
  000b9	6a 00		 push	 0
  000bb	50		 push	 eax
  000bc	e8 00 00 00 00	 call	 ?ConnectToSendSymbol@CGuildMarkUploader@@QAE_NABVCNetworkAddress@@KKKPBDPAI@Z ; CGuildMarkUploader::ConnectToSendSymbol

; 1660 : 	{
; 1661 : 		assert(!"Failed connecting to send symbol");
; 1662 : 	}
; 1663 : 
; 1664 : 	return Py_BuildNone();

  000c1	e8 00 00 00 00	 call	 ?Py_BuildNone@@YAPAU_object@@XZ ; Py_BuildNone
  000c6	8d 4d e0	 lea	 ecx, DWORD PTR _kAddress$[ebp]
  000c9	8b f0		 mov	 esi, eax
  000cb	e8 00 00 00 00	 call	 ??1CNetworkAddress@@QAE@XZ ; CNetworkAddress::~CNetworkAddress
  000d0	8b c6		 mov	 eax, esi
$LN1@netSendGui:

; 1665 : }

  000d2	8b 4d f4	 mov	 ecx, DWORD PTR __$EHRec$[ebp]
  000d5	64 89 0d 00 00
	00 00		 mov	 DWORD PTR fs:0, ecx
  000dc	59		 pop	 ecx
  000dd	5e		 pop	 esi
  000de	8b 4d f0	 mov	 ecx, DWORD PTR __$ArrayPad$[ebp]
  000e1	33 cd		 xor	 ecx, ebp
  000e3	e8 00 00 00 00	 call	 @__security_check_cookie@4
  000e8	8b e5		 mov	 esp, ebp
  000ea	5d		 pop	 ebp
  000eb	c3		 ret	 0
_TEXT	ENDS
;	COMDAT text$x
text$x	SEGMENT
__unwindfunclet$?netSendGuildSymbol@@YAPAU_object@@PAU1@0@Z$0:
  00000	8d 4d e0	 lea	 ecx, DWORD PTR _kAddress$[ebp]
  00003	e9 00 00 00 00	 jmp	 ??1CNetworkAddress@@QAE@XZ ; CNetworkAddress::~CNetworkAddress
  00008	cc		 int	 3
  00009	cc		 int	 3
  0000a	cc		 int	 3
  0000b	cc		 int	 3
  0000c	cc		 int	 3
__ehhandler$?netSendGuildSymbol@@YAPAU_object@@PAU1@0@Z:
  0000d	90		 npad	 1
  0000e	90		 npad	 1
  0000f	8b 54 24 08	 mov	 edx, DWORD PTR [esp+8]
  00013	8d 42 0c	 lea	 eax, DWORD PTR [edx+12]
  00016	8b 4a d0	 mov	 ecx, DWORD PTR [edx-48]
  00019	33 c8		 xor	 ecx, eax
  0001b	e8 00 00 00 00	 call	 @__security_check_cookie@4
  00020	8b 4a fc	 mov	 ecx, DWORD PTR [edx-4]
  00023	33 c8		 xor	 ecx, eax
  00025	e8 00 00 00 00	 call	 @__security_check_cookie@4
  0002a	b8 00 00 00 00	 mov	 eax, OFFSET __ehfuncinfo$?netSendGuildSymbol@@YAPAU_object@@PAU1@0@Z
  0002f	e9 00 00 00 00	 jmp	 ___CxxFrameHandler3
text$x	ENDS
?netSendGuildSymbol@@YAPAU_object@@PAU1@0@Z ENDP	; netSendGuildSymbol
; Function compile flags: /Ogtp
; File D:\Metin2 Server Files\mainline\SRC_2014\Metin2Client\UserInterface\PythonNetworkStreamModule.cpp
;	COMDAT ?netSetSkillGroupFake@@YAPAU_object@@PAU1@0@Z
_TEXT	SEGMENT
_iIndex$ = -4						; size = 4
_poSelf$ = 8						; size = 4
_poArgs$ = 12						; size = 4
?netSetSkillGroupFake@@YAPAU_object@@PAU1@0@Z PROC	; netSetSkillGroupFake, COMDAT

; 1624 : {

  00000	55		 push	 ebp
  00001	8b ec		 mov	 ebp, esp
  00003	51		 push	 ecx

; 1625 : 	int iIndex;
; 1626 : 	if (!PyTuple_GetInteger(poArgs, 0, &iIndex))

  00004	8d 45 fc	 lea	 eax, DWORD PTR _iIndex$[ebp]
  00007	50		 push	 eax
  00008	6a 00		 push	 0
  0000a	ff 75 0c	 push	 DWORD PTR _poArgs$[ebp]
  0000d	e8 00 00 00 00	 call	 ?PyTuple_GetInteger@@YA_NPAU_object@@HPAH@Z ; PyTuple_GetInteger
  00012	83 c4 0c	 add	 esp, 12			; 0000000cH
  00015	84 c0		 test	 al, al
  00017	75 0e		 jne	 SHORT $LN2@netSetSkil

; 1627 : 		return Py_BuildException();

  00019	6a 00		 push	 0
  0001b	e8 00 00 00 00	 call	 ?Py_BuildException@@YAPAU_object@@PBDZZ ; Py_BuildException
  00020	83 c4 04	 add	 esp, 4

; 1633 : }

  00023	8b e5		 mov	 esp, ebp
  00025	5d		 pop	 ebp
  00026	c3		 ret	 0
$LN2@netSetSkil:

; 1628 : 
; 1629 : 	CPythonNetworkStream& rns=CPythonNetworkStream::Instance();
; 1630 : 	rns.__TEST_SetSkillGroupFake(iIndex);

  00027	ff 75 fc	 push	 DWORD PTR _iIndex$[ebp]
  0002a	8b 0d 00 00 00
	00		 mov	 ecx, DWORD PTR ?ms_singleton@?$CSingleton@VCPythonNetworkStream@@@@0PAVCPythonNetworkStream@@A ; CSingleton<CPythonNetworkStream>::ms_singleton
  00030	e8 00 00 00 00	 call	 ?__TEST_SetSkillGroupFake@CPythonNetworkStream@@QAEXH@Z ; CPythonNetworkStream::__TEST_SetSkillGroupFake

; 1631 : 
; 1632 : 	return Py_BuildNone();

  00035	e8 00 00 00 00	 call	 ?Py_BuildNone@@YAPAU_object@@XZ ; Py_BuildNone

; 1633 : }

  0003a	8b e5		 mov	 esp, ebp
  0003c	5d		 pop	 ebp
  0003d	c3		 ret	 0
?netSetSkillGroupFake@@YAPAU_object@@PAU1@0@Z ENDP	; netSetSkillGroupFake
_TEXT	ENDS
; Function compile flags: /Ogtp
; File D:\Metin2 Server Files\mainline\SRC_2014\Metin2Client\UserInterface\PythonNetworkStreamModule.cpp
;	COMDAT ?netSetEmpireLanguageMode@@YAPAU_object@@PAU1@0@Z
_TEXT	SEGMENT
_iMode$ = -4						; size = 4
_poSelf$ = 8						; size = 4
_poArgs$ = 12						; size = 4
?netSetEmpireLanguageMode@@YAPAU_object@@PAU1@0@Z PROC	; netSetEmpireLanguageMode, COMDAT

; 1612 : {

  00000	55		 push	 ebp
  00001	8b ec		 mov	 ebp, esp
  00003	51		 push	 ecx

; 1613 : 	int iMode;
; 1614 : 	if (!PyTuple_GetInteger(poArgs, 0, &iMode))

  00004	8d 45 fc	 lea	 eax, DWORD PTR _iMode$[ebp]
  00007	50		 push	 eax
  00008	6a 00		 push	 0
  0000a	ff 75 0c	 push	 DWORD PTR _poArgs$[ebp]
  0000d	e8 00 00 00 00	 call	 ?PyTuple_GetInteger@@YA_NPAU_object@@HPAH@Z ; PyTuple_GetInteger
  00012	83 c4 0c	 add	 esp, 12			; 0000000cH
  00015	84 c0		 test	 al, al
  00017	75 0e		 jne	 SHORT $LN2@netSetEmpi

; 1615 : 		return Py_BuildException();

  00019	6a 00		 push	 0
  0001b	e8 00 00 00 00	 call	 ?Py_BuildException@@YAPAU_object@@PBDZZ ; Py_BuildException
  00020	83 c4 04	 add	 esp, 4

; 1621 : }

  00023	8b e5		 mov	 esp, ebp
  00025	5d		 pop	 ebp
  00026	c3		 ret	 0
$LN2@netSetEmpi:

; 1616 : 
; 1617 : 	//CPythonNetworkStream& rns=CPythonNetworkStream::Instance();
; 1618 : 	gs_bEmpireLanuageEnable = iMode;

  00027	8b 45 fc	 mov	 eax, DWORD PTR _iMode$[ebp]
  0002a	a3 00 00 00 00	 mov	 DWORD PTR ?gs_bEmpireLanuageEnable@@3HA, eax ; gs_bEmpireLanuageEnable

; 1619 : 
; 1620 : 	return Py_BuildNone();

  0002f	e8 00 00 00 00	 call	 ?Py_BuildNone@@YAPAU_object@@XZ ; Py_BuildNone

; 1621 : }

  00034	8b e5		 mov	 esp, ebp
  00036	5d		 pop	 ebp
  00037	c3		 ret	 0
?netSetEmpireLanguageMode@@YAPAU_object@@PAU1@0@Z ENDP	; netSetEmpireLanguageMode
_TEXT	ENDS
; Function compile flags: /Ogtp
; File D:\Metin2 Server Files\mainline\SRC_2014\Metin2Client\UserInterface\PythonNetworkStreamModule.cpp
;	COMDAT ?netSetPacketSequenceMode@@YAPAU_object@@PAU1@0@Z
_TEXT	SEGMENT
_poSelf$ = 8						; size = 4
_poArgs$ = 12						; size = 4
?netSetPacketSequenceMode@@YAPAU_object@@PAU1@0@Z PROC	; netSetPacketSequenceMode, COMDAT

; 1603 : 	CPythonNetworkStream& rns=CPythonNetworkStream::Instance();
; 1604 : 	CAccountConnector & rkAccountConnector = CAccountConnector::Instance();
; 1605 : 	rns.SetPacketSequenceMode(true);

  00000	8b 0d 00 00 00
	00		 mov	 ecx, DWORD PTR ?ms_singleton@?$CSingleton@VCPythonNetworkStream@@@@0PAVCPythonNetworkStream@@A ; CSingleton<CPythonNetworkStream>::ms_singleton
  00006	56		 push	 esi
  00007	8b 35 00 00 00
	00		 mov	 esi, DWORD PTR ?ms_singleton@?$CSingleton@VCAccountConnector@@@@0PAVCAccountConnector@@A ; CSingleton<CAccountConnector>::ms_singleton
  0000d	6a 01		 push	 1
  0000f	e8 00 00 00 00	 call	 ?SetPacketSequenceMode@CNetworkStream@@QAEX_N@Z ; CNetworkStream::SetPacketSequenceMode

; 1606 : 	rkAccountConnector.SetPacketSequenceMode(true);

  00014	6a 01		 push	 1
  00016	8b ce		 mov	 ecx, esi
  00018	e8 00 00 00 00	 call	 ?SetPacketSequenceMode@CNetworkStream@@QAEX_N@Z ; CNetworkStream::SetPacketSequenceMode

; 1607 : 
; 1608 : 	return Py_BuildNone();

  0001d	5e		 pop	 esi
  0001e	e9 00 00 00 00	 jmp	 ?Py_BuildNone@@YAPAU_object@@XZ ; Py_BuildNone
?netSetPacketSequenceMode@@YAPAU_object@@PAU1@0@Z ENDP	; netSetPacketSequenceMode
_TEXT	ENDS
; Function compile flags: /Ogtp
; File D:\Metin2 Server Files\mainline\SRC_2014\Metin2Client\UserInterface\PythonNetworkStreamModule.cpp
;	COMDAT ?netSendSelectItemPacket@@YAPAU_object@@PAU1@0@Z
_TEXT	SEGMENT
_iItemPos$ = -4						; size = 4
_poSelf$ = 8						; size = 4
_poArgs$ = 12						; size = 4
?netSendSelectItemPacket@@YAPAU_object@@PAU1@0@Z PROC	; netSendSelectItemPacket, COMDAT

; 1590 : {

  00000	55		 push	 ebp
  00001	8b ec		 mov	 ebp, esp
  00003	51		 push	 ecx

; 1591 : 	int iItemPos;
; 1592 : 	if (!PyTuple_GetInteger(poArgs, 0, &iItemPos))

  00004	8d 45 fc	 lea	 eax, DWORD PTR _iItemPos$[ebp]
  00007	50		 push	 eax
  00008	6a 00		 push	 0
  0000a	ff 75 0c	 push	 DWORD PTR _poArgs$[ebp]
  0000d	e8 00 00 00 00	 call	 ?PyTuple_GetInteger@@YA_NPAU_object@@HPAH@Z ; PyTuple_GetInteger
  00012	83 c4 0c	 add	 esp, 12			; 0000000cH
  00015	84 c0		 test	 al, al
  00017	75 0e		 jne	 SHORT $LN2@netSendSel

; 1593 : 		return Py_BuildException();

  00019	6a 00		 push	 0
  0001b	e8 00 00 00 00	 call	 ?Py_BuildException@@YAPAU_object@@PBDZZ ; Py_BuildException
  00020	83 c4 04	 add	 esp, 4

; 1599 : }

  00023	8b e5		 mov	 esp, ebp
  00025	5d		 pop	 ebp
  00026	c3		 ret	 0
$LN2@netSendSel:

; 1594 : 
; 1595 : 	CPythonNetworkStream& rns=CPythonNetworkStream::Instance();
; 1596 : 	rns.SendSelectItemPacket(iItemPos);

  00027	ff 75 fc	 push	 DWORD PTR _iItemPos$[ebp]
  0002a	8b 0d 00 00 00
	00		 mov	 ecx, DWORD PTR ?ms_singleton@?$CSingleton@VCPythonNetworkStream@@@@0PAVCPythonNetworkStream@@A ; CSingleton<CPythonNetworkStream>::ms_singleton
  00030	e8 00 00 00 00	 call	 ?SendSelectItemPacket@CPythonNetworkStream@@QAE_NK@Z ; CPythonNetworkStream::SendSelectItemPacket

; 1597 : 
; 1598 : 	return Py_BuildNone();

  00035	e8 00 00 00 00	 call	 ?Py_BuildNone@@YAPAU_object@@XZ ; Py_BuildNone

; 1599 : }

  0003a	8b e5		 mov	 esp, ebp
  0003c	5d		 pop	 ebp
  0003d	c3		 ret	 0
?netSendSelectItemPacket@@YAPAU_object@@PAU1@0@Z ENDP	; netSendSelectItemPacket
_TEXT	ENDS
; Function compile flags: /Ogtp
; File D:\Metin2 Server Files\mainline\SRC_2014\Metin2Client\UserInterface\PythonNetworkStreamModule.cpp
;	COMDAT ?netSendRefinePacket@@YAPAU_object@@PAU1@0@Z
_TEXT	SEGMENT
_iSlotIndex$ = -8					; size = 4
_iType$ = -4						; size = 4
_poSelf$ = 8						; size = 4
_poArgs$ = 12						; size = 4
?netSendRefinePacket@@YAPAU_object@@PAU1@0@Z PROC	; netSendRefinePacket, COMDAT

; 1575 : {

  00000	55		 push	 ebp
  00001	8b ec		 mov	 ebp, esp
  00003	83 ec 08	 sub	 esp, 8

; 1576 : 	int iSlotIndex;
; 1577 : 	if (!PyTuple_GetInteger(poArgs, 0, &iSlotIndex))

  00006	8d 45 f8	 lea	 eax, DWORD PTR _iSlotIndex$[ebp]
  00009	50		 push	 eax
  0000a	6a 00		 push	 0
  0000c	ff 75 0c	 push	 DWORD PTR _poArgs$[ebp]
  0000f	e8 00 00 00 00	 call	 ?PyTuple_GetInteger@@YA_NPAU_object@@HPAH@Z ; PyTuple_GetInteger
  00014	83 c4 0c	 add	 esp, 12			; 0000000cH
  00017	84 c0		 test	 al, al
  00019	75 0e		 jne	 SHORT $LN2@netSendRef
$LN5@netSendRef:

; 1587 : }

  0001b	6a 00		 push	 0
  0001d	e8 00 00 00 00	 call	 ?Py_BuildException@@YAPAU_object@@PBDZZ ; Py_BuildException
  00022	83 c4 04	 add	 esp, 4
  00025	8b e5		 mov	 esp, ebp
  00027	5d		 pop	 ebp
  00028	c3		 ret	 0
$LN2@netSendRef:

; 1578 : 		return Py_BuildException();
; 1579 : 	int iType;
; 1580 : 	if (!PyTuple_GetInteger(poArgs, 1, &iType))

  00029	8d 45 fc	 lea	 eax, DWORD PTR _iType$[ebp]
  0002c	50		 push	 eax
  0002d	6a 01		 push	 1
  0002f	ff 75 0c	 push	 DWORD PTR _poArgs$[ebp]
  00032	e8 00 00 00 00	 call	 ?PyTuple_GetInteger@@YA_NPAU_object@@HPAH@Z ; PyTuple_GetInteger
  00037	83 c4 0c	 add	 esp, 12			; 0000000cH
  0003a	84 c0		 test	 al, al
  0003c	74 dd		 je	 SHORT $LN5@netSendRef

; 1581 : 		return Py_BuildException();
; 1582 : 
; 1583 : 	CPythonNetworkStream& rns=CPythonNetworkStream::Instance();
; 1584 : 	rns.SendRefinePacket(iSlotIndex, iType);

  0003e	ff 75 fc	 push	 DWORD PTR _iType$[ebp]
  00041	8b 0d 00 00 00
	00		 mov	 ecx, DWORD PTR ?ms_singleton@?$CSingleton@VCPythonNetworkStream@@@@0PAVCPythonNetworkStream@@A ; CSingleton<CPythonNetworkStream>::ms_singleton
  00047	ff 75 f8	 push	 DWORD PTR _iSlotIndex$[ebp]
  0004a	e8 00 00 00 00	 call	 ?SendRefinePacket@CPythonNetworkStream@@QAE_NEE@Z ; CPythonNetworkStream::SendRefinePacket

; 1585 : 
; 1586 : 	return Py_BuildNone();

  0004f	e8 00 00 00 00	 call	 ?Py_BuildNone@@YAPAU_object@@XZ ; Py_BuildNone

; 1587 : }

  00054	8b e5		 mov	 esp, ebp
  00056	5d		 pop	 ebp
  00057	c3		 ret	 0
?netSendRefinePacket@@YAPAU_object@@PAU1@0@Z ENDP	; netSendRefinePacket
_TEXT	ENDS
; Function compile flags: /Ogtp
; File D:\Metin2 Server Files\mainline\SRC_2014\Metin2Client\UserInterface\PythonNetworkStreamModule.cpp
;	COMDAT ?netSendRequestRefineInfoPacket@@YAPAU_object@@PAU1@0@Z
_TEXT	SEGMENT
_iSlotIndex$ = -4					; size = 4
_poSelf$ = 8						; size = 4
_poArgs$ = 12						; size = 4
?netSendRequestRefineInfoPacket@@YAPAU_object@@PAU1@0@Z PROC ; netSendRequestRefineInfoPacket, COMDAT

; 1562 : {

  00000	55		 push	 ebp
  00001	8b ec		 mov	 ebp, esp
  00003	51		 push	 ecx

; 1563 : 	int iSlotIndex;
; 1564 : 	if (!PyTuple_GetInteger(poArgs, 0, &iSlotIndex))

  00004	8d 45 fc	 lea	 eax, DWORD PTR _iSlotIndex$[ebp]
  00007	50		 push	 eax
  00008	6a 00		 push	 0
  0000a	ff 75 0c	 push	 DWORD PTR _poArgs$[ebp]
  0000d	e8 00 00 00 00	 call	 ?PyTuple_GetInteger@@YA_NPAU_object@@HPAH@Z ; PyTuple_GetInteger
  00012	83 c4 0c	 add	 esp, 12			; 0000000cH
  00015	84 c0		 test	 al, al
  00017	75 0e		 jne	 SHORT $LN2@netSendReq

; 1565 : 		return Py_BuildException();

  00019	6a 00		 push	 0
  0001b	e8 00 00 00 00	 call	 ?Py_BuildException@@YAPAU_object@@PBDZZ ; Py_BuildException
  00020	83 c4 04	 add	 esp, 4

; 1572 : }

  00023	8b e5		 mov	 esp, ebp
  00025	5d		 pop	 ebp
  00026	c3		 ret	 0
$LN2@netSendReq:

; 1566 : 
; 1567 : //	CPythonNetworkStream& rns=CPythonNetworkStream::Instance();
; 1568 : //	rns.SendRequestRefineInfoPacket(iSlotIndex);
; 1569 : 	assert(!"netSendRequestRefineInfoPacket -     ");
; 1570 : 
; 1571 : 	return Py_BuildNone();

  00027	e8 00 00 00 00	 call	 ?Py_BuildNone@@YAPAU_object@@XZ ; Py_BuildNone

; 1572 : }

  0002c	8b e5		 mov	 esp, ebp
  0002e	5d		 pop	 ebp
  0002f	c3		 ret	 0
?netSendRequestRefineInfoPacket@@YAPAU_object@@PAU1@0@Z ENDP ; netSendRequestRefineInfoPacket
_TEXT	ENDS
; Function compile flags: /Ogtp
; File D:\Metin2 Server Files\mainline\SRC_2014\Metin2Client\UserInterface\PythonNetworkStreamModule.cpp
;	COMDAT ?netSendGuildWithdrawMoneyPacket@@YAPAU_object@@PAU1@0@Z
_TEXT	SEGMENT
_iGSP$ = -4						; size = 4
_poSelf$ = 8						; size = 4
_poArgs$ = 12						; size = 4
?netSendGuildWithdrawMoneyPacket@@YAPAU_object@@PAU1@0@Z PROC ; netSendGuildWithdrawMoneyPacket, COMDAT

; 1550 : {

  00000	55		 push	 ebp
  00001	8b ec		 mov	 ebp, esp
  00003	51		 push	 ecx

; 1551 : 	int iGSP;
; 1552 : 	if (!PyTuple_GetInteger(poArgs, 0, &iGSP))

  00004	8d 45 fc	 lea	 eax, DWORD PTR _iGSP$[ebp]
  00007	50		 push	 eax
  00008	6a 00		 push	 0
  0000a	ff 75 0c	 push	 DWORD PTR _poArgs$[ebp]
  0000d	e8 00 00 00 00	 call	 ?PyTuple_GetInteger@@YA_NPAU_object@@HPAH@Z ; PyTuple_GetInteger
  00012	83 c4 0c	 add	 esp, 12			; 0000000cH
  00015	84 c0		 test	 al, al
  00017	75 0e		 jne	 SHORT $LN2@netSendGui

; 1553 : 		return Py_BuildException();

  00019	6a 00		 push	 0
  0001b	e8 00 00 00 00	 call	 ?Py_BuildException@@YAPAU_object@@PBDZZ ; Py_BuildException
  00020	83 c4 04	 add	 esp, 4

; 1559 : }

  00023	8b e5		 mov	 esp, ebp
  00025	5d		 pop	 ebp
  00026	c3		 ret	 0
$LN2@netSendGui:

; 1554 : 
; 1555 : 	CPythonNetworkStream& rns=CPythonNetworkStream::Instance();
; 1556 : 	rns.SendGuildWithdrawMoneyPacket(iGSP);

  00027	ff 75 fc	 push	 DWORD PTR _iGSP$[ebp]
  0002a	8b 0d 00 00 00
	00		 mov	 ecx, DWORD PTR ?ms_singleton@?$CSingleton@VCPythonNetworkStream@@@@0PAVCPythonNetworkStream@@A ; CSingleton<CPythonNetworkStream>::ms_singleton
  00030	e8 00 00 00 00	 call	 ?SendGuildWithdrawMoneyPacket@CPythonNetworkStream@@QAE_NK@Z ; CPythonNetworkStream::SendGuildWithdrawMoneyPacket

; 1557 : 
; 1558 : 	return Py_BuildNone();

  00035	e8 00 00 00 00	 call	 ?Py_BuildNone@@YAPAU_object@@XZ ; Py_BuildNone

; 1559 : }

  0003a	8b e5		 mov	 esp, ebp
  0003c	5d		 pop	 ebp
  0003d	c3		 ret	 0
?netSendGuildWithdrawMoneyPacket@@YAPAU_object@@PAU1@0@Z ENDP ; netSendGuildWithdrawMoneyPacket
_TEXT	ENDS
; Function compile flags: /Ogtp
; File D:\Metin2 Server Files\mainline\SRC_2014\Metin2Client\UserInterface\PythonNetworkStreamModule.cpp
;	COMDAT ?netSendGuildDepositMoneyPacket@@YAPAU_object@@PAU1@0@Z
_TEXT	SEGMENT
_iGSP$ = -4						; size = 4
_poSelf$ = 8						; size = 4
_poArgs$ = 12						; size = 4
?netSendGuildDepositMoneyPacket@@YAPAU_object@@PAU1@0@Z PROC ; netSendGuildDepositMoneyPacket, COMDAT

; 1538 : {

  00000	55		 push	 ebp
  00001	8b ec		 mov	 ebp, esp
  00003	51		 push	 ecx

; 1539 : 	int iGSP;
; 1540 : 	if (!PyTuple_GetInteger(poArgs, 0, &iGSP))

  00004	8d 45 fc	 lea	 eax, DWORD PTR _iGSP$[ebp]
  00007	50		 push	 eax
  00008	6a 00		 push	 0
  0000a	ff 75 0c	 push	 DWORD PTR _poArgs$[ebp]
  0000d	e8 00 00 00 00	 call	 ?PyTuple_GetInteger@@YA_NPAU_object@@HPAH@Z ; PyTuple_GetInteger
  00012	83 c4 0c	 add	 esp, 12			; 0000000cH
  00015	84 c0		 test	 al, al
  00017	75 0e		 jne	 SHORT $LN2@netSendGui

; 1541 : 		return Py_BuildException();

  00019	6a 00		 push	 0
  0001b	e8 00 00 00 00	 call	 ?Py_BuildException@@YAPAU_object@@PBDZZ ; Py_BuildException
  00020	83 c4 04	 add	 esp, 4

; 1547 : }

  00023	8b e5		 mov	 esp, ebp
  00025	5d		 pop	 ebp
  00026	c3		 ret	 0
$LN2@netSendGui:

; 1542 : 
; 1543 : 	CPythonNetworkStream& rns=CPythonNetworkStream::Instance();
; 1544 : 	rns.SendGuildDepositMoneyPacket(iGSP);

  00027	ff 75 fc	 push	 DWORD PTR _iGSP$[ebp]
  0002a	8b 0d 00 00 00
	00		 mov	 ecx, DWORD PTR ?ms_singleton@?$CSingleton@VCPythonNetworkStream@@@@0PAVCPythonNetworkStream@@A ; CSingleton<CPythonNetworkStream>::ms_singleton
  00030	e8 00 00 00 00	 call	 ?SendGuildDepositMoneyPacket@CPythonNetworkStream@@QAE_NK@Z ; CPythonNetworkStream::SendGuildDepositMoneyPacket

; 1545 : 
; 1546 : 	return Py_BuildNone();

  00035	e8 00 00 00 00	 call	 ?Py_BuildNone@@YAPAU_object@@XZ ; Py_BuildNone

; 1547 : }

  0003a	8b e5		 mov	 esp, ebp
  0003c	5d		 pop	 ebp
  0003d	c3		 ret	 0
?netSendGuildDepositMoneyPacket@@YAPAU_object@@PAU1@0@Z ENDP ; netSendGuildDepositMoneyPacket
_TEXT	ENDS
; Function compile flags: /Ogtp
; File D:\Metin2 Server Files\mainline\SRC_2014\Metin2Client\UserInterface\PythonNetworkStreamModule.cpp
;	COMDAT ?netSendGuildChargeGSPPacket@@YAPAU_object@@PAU1@0@Z
_TEXT	SEGMENT
_iGSP$ = -4						; size = 4
_poSelf$ = 8						; size = 4
_poArgs$ = 12						; size = 4
?netSendGuildChargeGSPPacket@@YAPAU_object@@PAU1@0@Z PROC ; netSendGuildChargeGSPPacket, COMDAT

; 1526 : {

  00000	55		 push	 ebp
  00001	8b ec		 mov	 ebp, esp
  00003	51		 push	 ecx

; 1527 : 	int iGSP;
; 1528 : 	if (!PyTuple_GetInteger(poArgs, 0, &iGSP))

  00004	8d 45 fc	 lea	 eax, DWORD PTR _iGSP$[ebp]
  00007	50		 push	 eax
  00008	6a 00		 push	 0
  0000a	ff 75 0c	 push	 DWORD PTR _poArgs$[ebp]
  0000d	e8 00 00 00 00	 call	 ?PyTuple_GetInteger@@YA_NPAU_object@@HPAH@Z ; PyTuple_GetInteger
  00012	83 c4 0c	 add	 esp, 12			; 0000000cH
  00015	84 c0		 test	 al, al
  00017	75 0e		 jne	 SHORT $LN2@netSendGui

; 1529 : 		return Py_BuildException();

  00019	6a 00		 push	 0
  0001b	e8 00 00 00 00	 call	 ?Py_BuildException@@YAPAU_object@@PBDZZ ; Py_BuildException
  00020	83 c4 04	 add	 esp, 4

; 1535 : }

  00023	8b e5		 mov	 esp, ebp
  00025	5d		 pop	 ebp
  00026	c3		 ret	 0
$LN2@netSendGui:

; 1530 : 
; 1531 : 	CPythonNetworkStream& rns=CPythonNetworkStream::Instance();
; 1532 : 	rns.SendGuildChargeGSPPacket(iGSP);

  00027	ff 75 fc	 push	 DWORD PTR _iGSP$[ebp]
  0002a	8b 0d 00 00 00
	00		 mov	 ecx, DWORD PTR ?ms_singleton@?$CSingleton@VCPythonNetworkStream@@@@0PAVCPythonNetworkStream@@A ; CSingleton<CPythonNetworkStream>::ms_singleton
  00030	e8 00 00 00 00	 call	 ?SendGuildChargeGSPPacket@CPythonNetworkStream@@QAE_NK@Z ; CPythonNetworkStream::SendGuildChargeGSPPacket

; 1533 : 
; 1534 : 	return Py_BuildNone();

  00035	e8 00 00 00 00	 call	 ?Py_BuildNone@@YAPAU_object@@XZ ; Py_BuildNone

; 1535 : }

  0003a	8b e5		 mov	 esp, ebp
  0003c	5d		 pop	 ebp
  0003d	c3		 ret	 0
?netSendGuildChargeGSPPacket@@YAPAU_object@@PAU1@0@Z ENDP ; netSendGuildChargeGSPPacket
_TEXT	ENDS
; Function compile flags: /Ogtp
; File D:\Metin2 Server Files\mainline\SRC_2014\Metin2Client\UserInterface\PythonNetworkStreamModule.cpp
;	COMDAT ?netSendGuildInviteAnswerPacket@@YAPAU_object@@PAU1@0@Z
_TEXT	SEGMENT
_iGuildID$ = -8						; size = 4
_iAnswer$ = -4						; size = 4
_poSelf$ = 8						; size = 4
_poArgs$ = 12						; size = 4
?netSendGuildInviteAnswerPacket@@YAPAU_object@@PAU1@0@Z PROC ; netSendGuildInviteAnswerPacket, COMDAT

; 1511 : {

  00000	55		 push	 ebp
  00001	8b ec		 mov	 ebp, esp
  00003	83 ec 08	 sub	 esp, 8

; 1512 : 	int iGuildID;
; 1513 : 	if (!PyTuple_GetInteger(poArgs, 0, &iGuildID))

  00006	8d 45 f8	 lea	 eax, DWORD PTR _iGuildID$[ebp]
  00009	50		 push	 eax
  0000a	6a 00		 push	 0
  0000c	ff 75 0c	 push	 DWORD PTR _poArgs$[ebp]
  0000f	e8 00 00 00 00	 call	 ?PyTuple_GetInteger@@YA_NPAU_object@@HPAH@Z ; PyTuple_GetInteger
  00014	83 c4 0c	 add	 esp, 12			; 0000000cH
  00017	84 c0		 test	 al, al
  00019	75 0e		 jne	 SHORT $LN2@netSendGui
$LN5@netSendGui:

; 1523 : }

  0001b	6a 00		 push	 0
  0001d	e8 00 00 00 00	 call	 ?Py_BuildException@@YAPAU_object@@PBDZZ ; Py_BuildException
  00022	83 c4 04	 add	 esp, 4
  00025	8b e5		 mov	 esp, ebp
  00027	5d		 pop	 ebp
  00028	c3		 ret	 0
$LN2@netSendGui:

; 1514 : 		return Py_BuildException();
; 1515 : 	int iAnswer;
; 1516 : 	if (!PyTuple_GetInteger(poArgs, 1, &iAnswer))

  00029	8d 45 fc	 lea	 eax, DWORD PTR _iAnswer$[ebp]
  0002c	50		 push	 eax
  0002d	6a 01		 push	 1
  0002f	ff 75 0c	 push	 DWORD PTR _poArgs$[ebp]
  00032	e8 00 00 00 00	 call	 ?PyTuple_GetInteger@@YA_NPAU_object@@HPAH@Z ; PyTuple_GetInteger
  00037	83 c4 0c	 add	 esp, 12			; 0000000cH
  0003a	84 c0		 test	 al, al
  0003c	74 dd		 je	 SHORT $LN5@netSendGui

; 1517 : 		return Py_BuildException();
; 1518 : 
; 1519 : 	CPythonNetworkStream& rns=CPythonNetworkStream::Instance();
; 1520 : 	rns.SendGuildInviteAnswerPacket(iGuildID, iAnswer);

  0003e	ff 75 fc	 push	 DWORD PTR _iAnswer$[ebp]
  00041	8b 0d 00 00 00
	00		 mov	 ecx, DWORD PTR ?ms_singleton@?$CSingleton@VCPythonNetworkStream@@@@0PAVCPythonNetworkStream@@A ; CSingleton<CPythonNetworkStream>::ms_singleton
  00047	ff 75 f8	 push	 DWORD PTR _iGuildID$[ebp]
  0004a	e8 00 00 00 00	 call	 ?SendGuildInviteAnswerPacket@CPythonNetworkStream@@QAE_NKE@Z ; CPythonNetworkStream::SendGuildInviteAnswerPacket

; 1521 : 
; 1522 : 	return Py_BuildNone();

  0004f	e8 00 00 00 00	 call	 ?Py_BuildNone@@YAPAU_object@@XZ ; Py_BuildNone

; 1523 : }

  00054	8b e5		 mov	 esp, ebp
  00056	5d		 pop	 ebp
  00057	c3		 ret	 0
?netSendGuildInviteAnswerPacket@@YAPAU_object@@PAU1@0@Z ENDP ; netSendGuildInviteAnswerPacket
_TEXT	ENDS
; Function compile flags: /Ogtp
; File D:\Metin2 Server Files\mainline\SRC_2014\Metin2Client\UserInterface\PythonNetworkStreamModule.cpp
;	COMDAT ?netSendGuildChangeMemberGeneralPacket@@YAPAU_object@@PAU1@0@Z
_TEXT	SEGMENT
_iPID$ = -8						; size = 4
_iFlag$ = -4						; size = 4
_poSelf$ = 8						; size = 4
_poArgs$ = 12						; size = 4
?netSendGuildChangeMemberGeneralPacket@@YAPAU_object@@PAU1@0@Z PROC ; netSendGuildChangeMemberGeneralPacket, COMDAT

; 1496 : {

  00000	55		 push	 ebp
  00001	8b ec		 mov	 ebp, esp
  00003	83 ec 08	 sub	 esp, 8

; 1497 : 	int iPID;
; 1498 : 	if (!PyTuple_GetInteger(poArgs, 0, &iPID))

  00006	8d 45 f8	 lea	 eax, DWORD PTR _iPID$[ebp]
  00009	50		 push	 eax
  0000a	6a 00		 push	 0
  0000c	ff 75 0c	 push	 DWORD PTR _poArgs$[ebp]
  0000f	e8 00 00 00 00	 call	 ?PyTuple_GetInteger@@YA_NPAU_object@@HPAH@Z ; PyTuple_GetInteger
  00014	83 c4 0c	 add	 esp, 12			; 0000000cH
  00017	84 c0		 test	 al, al
  00019	75 0e		 jne	 SHORT $LN2@netSendGui
$LN5@netSendGui:

; 1508 : }

  0001b	6a 00		 push	 0
  0001d	e8 00 00 00 00	 call	 ?Py_BuildException@@YAPAU_object@@PBDZZ ; Py_BuildException
  00022	83 c4 04	 add	 esp, 4
  00025	8b e5		 mov	 esp, ebp
  00027	5d		 pop	 ebp
  00028	c3		 ret	 0
$LN2@netSendGui:

; 1499 : 		return Py_BuildException();
; 1500 : 	int iFlag;
; 1501 : 	if (!PyTuple_GetInteger(poArgs, 1, &iFlag))

  00029	8d 45 fc	 lea	 eax, DWORD PTR _iFlag$[ebp]
  0002c	50		 push	 eax
  0002d	6a 01		 push	 1
  0002f	ff 75 0c	 push	 DWORD PTR _poArgs$[ebp]
  00032	e8 00 00 00 00	 call	 ?PyTuple_GetInteger@@YA_NPAU_object@@HPAH@Z ; PyTuple_GetInteger
  00037	83 c4 0c	 add	 esp, 12			; 0000000cH
  0003a	84 c0		 test	 al, al
  0003c	74 dd		 je	 SHORT $LN5@netSendGui

; 1502 : 		return Py_BuildException();
; 1503 : 
; 1504 : 	CPythonNetworkStream& rns=CPythonNetworkStream::Instance();
; 1505 : 	rns.SendGuildChangeMemberGeneralPacket(iPID, iFlag);

  0003e	ff 75 fc	 push	 DWORD PTR _iFlag$[ebp]
  00041	8b 0d 00 00 00
	00		 mov	 ecx, DWORD PTR ?ms_singleton@?$CSingleton@VCPythonNetworkStream@@@@0PAVCPythonNetworkStream@@A ; CSingleton<CPythonNetworkStream>::ms_singleton
  00047	ff 75 f8	 push	 DWORD PTR _iPID$[ebp]
  0004a	e8 00 00 00 00	 call	 ?SendGuildChangeMemberGeneralPacket@CPythonNetworkStream@@QAE_NKE@Z ; CPythonNetworkStream::SendGuildChangeMemberGeneralPacket

; 1506 : 
; 1507 : 	return Py_BuildNone();

  0004f	e8 00 00 00 00	 call	 ?Py_BuildNone@@YAPAU_object@@XZ ; Py_BuildNone

; 1508 : }

  00054	8b e5		 mov	 esp, ebp
  00056	5d		 pop	 ebp
  00057	c3		 ret	 0
?netSendGuildChangeMemberGeneralPacket@@YAPAU_object@@PAU1@0@Z ENDP ; netSendGuildChangeMemberGeneralPacket
_TEXT	ENDS
; Function compile flags: /Ogtp
; File D:\Metin2 Server Files\mainline\SRC_2014\Metin2Client\UserInterface\PythonNetworkStreamModule.cpp
;	COMDAT ?netSendGuildUseSkillPacket@@YAPAU_object@@PAU1@0@Z
_TEXT	SEGMENT
_iSkillID$ = -8						; size = 4
_iTargetVID$ = -4					; size = 4
_poSelf$ = 8						; size = 4
_poArgs$ = 12						; size = 4
?netSendGuildUseSkillPacket@@YAPAU_object@@PAU1@0@Z PROC ; netSendGuildUseSkillPacket, COMDAT

; 1481 : {

  00000	55		 push	 ebp
  00001	8b ec		 mov	 ebp, esp
  00003	83 ec 08	 sub	 esp, 8

; 1482 : 	int iSkillID;
; 1483 : 	if (!PyTuple_GetInteger(poArgs, 0, &iSkillID))

  00006	8d 45 f8	 lea	 eax, DWORD PTR _iSkillID$[ebp]
  00009	50		 push	 eax
  0000a	6a 00		 push	 0
  0000c	ff 75 0c	 push	 DWORD PTR _poArgs$[ebp]
  0000f	e8 00 00 00 00	 call	 ?PyTuple_GetInteger@@YA_NPAU_object@@HPAH@Z ; PyTuple_GetInteger
  00014	83 c4 0c	 add	 esp, 12			; 0000000cH
  00017	84 c0		 test	 al, al
  00019	75 0e		 jne	 SHORT $LN2@netSendGui
$LN5@netSendGui:

; 1493 : }

  0001b	6a 00		 push	 0
  0001d	e8 00 00 00 00	 call	 ?Py_BuildException@@YAPAU_object@@PBDZZ ; Py_BuildException
  00022	83 c4 04	 add	 esp, 4
  00025	8b e5		 mov	 esp, ebp
  00027	5d		 pop	 ebp
  00028	c3		 ret	 0
$LN2@netSendGui:

; 1484 : 		return Py_BuildException();
; 1485 : 	int iTargetVID;
; 1486 : 	if (!PyTuple_GetInteger(poArgs, 1, &iTargetVID))

  00029	8d 45 fc	 lea	 eax, DWORD PTR _iTargetVID$[ebp]
  0002c	50		 push	 eax
  0002d	6a 01		 push	 1
  0002f	ff 75 0c	 push	 DWORD PTR _poArgs$[ebp]
  00032	e8 00 00 00 00	 call	 ?PyTuple_GetInteger@@YA_NPAU_object@@HPAH@Z ; PyTuple_GetInteger
  00037	83 c4 0c	 add	 esp, 12			; 0000000cH
  0003a	84 c0		 test	 al, al
  0003c	74 dd		 je	 SHORT $LN5@netSendGui

; 1487 : 		return Py_BuildException();
; 1488 : 
; 1489 : 	CPythonNetworkStream& rns=CPythonNetworkStream::Instance();
; 1490 : 	rns.SendGuildUseSkillPacket(iSkillID, iTargetVID);

  0003e	ff 75 fc	 push	 DWORD PTR _iTargetVID$[ebp]
  00041	8b 0d 00 00 00
	00		 mov	 ecx, DWORD PTR ?ms_singleton@?$CSingleton@VCPythonNetworkStream@@@@0PAVCPythonNetworkStream@@A ; CSingleton<CPythonNetworkStream>::ms_singleton
  00047	ff 75 f8	 push	 DWORD PTR _iSkillID$[ebp]
  0004a	e8 00 00 00 00	 call	 ?SendGuildUseSkillPacket@CPythonNetworkStream@@QAE_NKK@Z ; CPythonNetworkStream::SendGuildUseSkillPacket

; 1491 : 
; 1492 : 	return Py_BuildNone();

  0004f	e8 00 00 00 00	 call	 ?Py_BuildNone@@YAPAU_object@@XZ ; Py_BuildNone

; 1493 : }

  00054	8b e5		 mov	 esp, ebp
  00056	5d		 pop	 ebp
  00057	c3		 ret	 0
?netSendGuildUseSkillPacket@@YAPAU_object@@PAU1@0@Z ENDP ; netSendGuildUseSkillPacket
_TEXT	ENDS
; Function compile flags: /Ogtp
; File D:\Metin2 Server Files\mainline\SRC_2014\Metin2Client\UserInterface\PythonNetworkStreamModule.cpp
;	COMDAT ?netSendGuildChangeMemberGradePacket@@YAPAU_object@@PAU1@0@Z
_TEXT	SEGMENT
_iPID$ = -8						; size = 4
_iGradeNumber$ = -4					; size = 4
_poSelf$ = 8						; size = 4
_poArgs$ = 12						; size = 4
?netSendGuildChangeMemberGradePacket@@YAPAU_object@@PAU1@0@Z PROC ; netSendGuildChangeMemberGradePacket, COMDAT

; 1466 : {

  00000	55		 push	 ebp
  00001	8b ec		 mov	 ebp, esp
  00003	83 ec 08	 sub	 esp, 8

; 1467 : 	int iPID;
; 1468 : 	if (!PyTuple_GetInteger(poArgs, 0, &iPID))

  00006	8d 45 f8	 lea	 eax, DWORD PTR _iPID$[ebp]
  00009	50		 push	 eax
  0000a	6a 00		 push	 0
  0000c	ff 75 0c	 push	 DWORD PTR _poArgs$[ebp]
  0000f	e8 00 00 00 00	 call	 ?PyTuple_GetInteger@@YA_NPAU_object@@HPAH@Z ; PyTuple_GetInteger
  00014	83 c4 0c	 add	 esp, 12			; 0000000cH
  00017	84 c0		 test	 al, al
  00019	75 0e		 jne	 SHORT $LN2@netSendGui
$LN5@netSendGui:

; 1478 : }

  0001b	6a 00		 push	 0
  0001d	e8 00 00 00 00	 call	 ?Py_BuildException@@YAPAU_object@@PBDZZ ; Py_BuildException
  00022	83 c4 04	 add	 esp, 4
  00025	8b e5		 mov	 esp, ebp
  00027	5d		 pop	 ebp
  00028	c3		 ret	 0
$LN2@netSendGui:

; 1469 : 		return Py_BuildException();
; 1470 : 	int iGradeNumber;
; 1471 : 	if (!PyTuple_GetInteger(poArgs, 1, &iGradeNumber))

  00029	8d 45 fc	 lea	 eax, DWORD PTR _iGradeNumber$[ebp]
  0002c	50		 push	 eax
  0002d	6a 01		 push	 1
  0002f	ff 75 0c	 push	 DWORD PTR _poArgs$[ebp]
  00032	e8 00 00 00 00	 call	 ?PyTuple_GetInteger@@YA_NPAU_object@@HPAH@Z ; PyTuple_GetInteger
  00037	83 c4 0c	 add	 esp, 12			; 0000000cH
  0003a	84 c0		 test	 al, al
  0003c	74 dd		 je	 SHORT $LN5@netSendGui

; 1472 : 		return Py_BuildException();
; 1473 : 
; 1474 : 	CPythonNetworkStream& rns=CPythonNetworkStream::Instance();
; 1475 : 	rns.SendGuildChangeMemberGradePacket(iPID, iGradeNumber);

  0003e	ff 75 fc	 push	 DWORD PTR _iGradeNumber$[ebp]
  00041	8b 0d 00 00 00
	00		 mov	 ecx, DWORD PTR ?ms_singleton@?$CSingleton@VCPythonNetworkStream@@@@0PAVCPythonNetworkStream@@A ; CSingleton<CPythonNetworkStream>::ms_singleton
  00047	ff 75 f8	 push	 DWORD PTR _iPID$[ebp]
  0004a	e8 00 00 00 00	 call	 ?SendGuildChangeMemberGradePacket@CPythonNetworkStream@@QAE_NKE@Z ; CPythonNetworkStream::SendGuildChangeMemberGradePacket

; 1476 : 
; 1477 : 	return Py_BuildNone();

  0004f	e8 00 00 00 00	 call	 ?Py_BuildNone@@YAPAU_object@@XZ ; Py_BuildNone

; 1478 : }

  00054	8b e5		 mov	 esp, ebp
  00056	5d		 pop	 ebp
  00057	c3		 ret	 0
?netSendGuildChangeMemberGradePacket@@YAPAU_object@@PAU1@0@Z ENDP ; netSendGuildChangeMemberGradePacket
_TEXT	ENDS
; Function compile flags: /Ogtp
; File D:\Metin2 Server Files\mainline\SRC_2014\Metin2Client\UserInterface\PythonNetworkStreamModule.cpp
;	COMDAT ?netSendGuildRefreshCommentsPacket@@YAPAU_object@@PAU1@0@Z
_TEXT	SEGMENT
_iHightestIndex$ = -4					; size = 4
_poSelf$ = 8						; size = 4
_poArgs$ = 12						; size = 4
?netSendGuildRefreshCommentsPacket@@YAPAU_object@@PAU1@0@Z PROC ; netSendGuildRefreshCommentsPacket, COMDAT

; 1454 : {

  00000	55		 push	 ebp
  00001	8b ec		 mov	 ebp, esp
  00003	51		 push	 ecx

; 1455 : 	int iHightestIndex;
; 1456 : 	if (!PyTuple_GetInteger(poArgs, 0, &iHightestIndex))

  00004	8d 45 fc	 lea	 eax, DWORD PTR _iHightestIndex$[ebp]
  00007	50		 push	 eax
  00008	6a 00		 push	 0
  0000a	ff 75 0c	 push	 DWORD PTR _poArgs$[ebp]
  0000d	e8 00 00 00 00	 call	 ?PyTuple_GetInteger@@YA_NPAU_object@@HPAH@Z ; PyTuple_GetInteger
  00012	83 c4 0c	 add	 esp, 12			; 0000000cH
  00015	84 c0		 test	 al, al
  00017	75 0e		 jne	 SHORT $LN2@netSendGui

; 1457 : 		return Py_BuildException();

  00019	6a 00		 push	 0
  0001b	e8 00 00 00 00	 call	 ?Py_BuildException@@YAPAU_object@@PBDZZ ; Py_BuildException
  00020	83 c4 04	 add	 esp, 4

; 1463 : }

  00023	8b e5		 mov	 esp, ebp
  00025	5d		 pop	 ebp
  00026	c3		 ret	 0
$LN2@netSendGui:

; 1458 : 
; 1459 : 	CPythonNetworkStream& rns=CPythonNetworkStream::Instance();
; 1460 : 	rns.SendGuildRefreshCommentsPacket(iHightestIndex);

  00027	ff 75 fc	 push	 DWORD PTR _iHightestIndex$[ebp]
  0002a	8b 0d 00 00 00
	00		 mov	 ecx, DWORD PTR ?ms_singleton@?$CSingleton@VCPythonNetworkStream@@@@0PAVCPythonNetworkStream@@A ; CSingleton<CPythonNetworkStream>::ms_singleton
  00030	e8 00 00 00 00	 call	 ?SendGuildRefreshCommentsPacket@CPythonNetworkStream@@QAE_NK@Z ; CPythonNetworkStream::SendGuildRefreshCommentsPacket

; 1461 : 
; 1462 : 	return Py_BuildNone();

  00035	e8 00 00 00 00	 call	 ?Py_BuildNone@@YAPAU_object@@XZ ; Py_BuildNone

; 1463 : }

  0003a	8b e5		 mov	 esp, ebp
  0003c	5d		 pop	 ebp
  0003d	c3		 ret	 0
?netSendGuildRefreshCommentsPacket@@YAPAU_object@@PAU1@0@Z ENDP ; netSendGuildRefreshCommentsPacket
_TEXT	ENDS
; Function compile flags: /Ogtp
; File D:\Metin2 Server Files\mainline\SRC_2014\Metin2Client\UserInterface\PythonNetworkStreamModule.cpp
;	COMDAT ?netSnedGuildDeleteCommentPacket@@YAPAU_object@@PAU1@0@Z
_TEXT	SEGMENT
_iIndex$ = -4						; size = 4
_poSelf$ = 8						; size = 4
_poArgs$ = 12						; size = 4
?netSnedGuildDeleteCommentPacket@@YAPAU_object@@PAU1@0@Z PROC ; netSnedGuildDeleteCommentPacket, COMDAT

; 1442 : {

  00000	55		 push	 ebp
  00001	8b ec		 mov	 ebp, esp
  00003	51		 push	 ecx

; 1443 : 	int iIndex;
; 1444 : 	if (!PyTuple_GetInteger(poArgs, 0, &iIndex))

  00004	8d 45 fc	 lea	 eax, DWORD PTR _iIndex$[ebp]
  00007	50		 push	 eax
  00008	6a 00		 push	 0
  0000a	ff 75 0c	 push	 DWORD PTR _poArgs$[ebp]
  0000d	e8 00 00 00 00	 call	 ?PyTuple_GetInteger@@YA_NPAU_object@@HPAH@Z ; PyTuple_GetInteger
  00012	83 c4 0c	 add	 esp, 12			; 0000000cH
  00015	84 c0		 test	 al, al
  00017	75 0e		 jne	 SHORT $LN2@netSnedGui

; 1445 : 		return Py_BuildException();

  00019	6a 00		 push	 0
  0001b	e8 00 00 00 00	 call	 ?Py_BuildException@@YAPAU_object@@PBDZZ ; Py_BuildException
  00020	83 c4 04	 add	 esp, 4

; 1451 : }

  00023	8b e5		 mov	 esp, ebp
  00025	5d		 pop	 ebp
  00026	c3		 ret	 0
$LN2@netSnedGui:

; 1446 : 
; 1447 : 	CPythonNetworkStream& rns=CPythonNetworkStream::Instance();
; 1448 : 	rns.SendGuildDeleteCommentPacket(iIndex);

  00027	ff 75 fc	 push	 DWORD PTR _iIndex$[ebp]
  0002a	8b 0d 00 00 00
	00		 mov	 ecx, DWORD PTR ?ms_singleton@?$CSingleton@VCPythonNetworkStream@@@@0PAVCPythonNetworkStream@@A ; CSingleton<CPythonNetworkStream>::ms_singleton
  00030	e8 00 00 00 00	 call	 ?SendGuildDeleteCommentPacket@CPythonNetworkStream@@QAE_NK@Z ; CPythonNetworkStream::SendGuildDeleteCommentPacket

; 1449 : 
; 1450 : 	return Py_BuildNone();

  00035	e8 00 00 00 00	 call	 ?Py_BuildNone@@YAPAU_object@@XZ ; Py_BuildNone

; 1451 : }

  0003a	8b e5		 mov	 esp, ebp
  0003c	5d		 pop	 ebp
  0003d	c3		 ret	 0
?netSnedGuildDeleteCommentPacket@@YAPAU_object@@PAU1@0@Z ENDP ; netSnedGuildDeleteCommentPacket
_TEXT	ENDS
; Function compile flags: /Ogtp
; File D:\Metin2 Server Files\mainline\SRC_2014\Metin2Client\UserInterface\PythonNetworkStreamModule.cpp
;	COMDAT ?netSnedGuildPostCommentPacket@@YAPAU_object@@PAU1@0@Z
_TEXT	SEGMENT
_szComment$ = -4					; size = 4
_poSelf$ = 8						; size = 4
_poArgs$ = 12						; size = 4
?netSnedGuildPostCommentPacket@@YAPAU_object@@PAU1@0@Z PROC ; netSnedGuildPostCommentPacket, COMDAT

; 1430 : {

  00000	55		 push	 ebp
  00001	8b ec		 mov	 ebp, esp
  00003	51		 push	 ecx

; 1431 : 	char * szComment;
; 1432 : 	if (!PyTuple_GetString(poArgs, 0, &szComment))

  00004	8d 45 fc	 lea	 eax, DWORD PTR _szComment$[ebp]
  00007	50		 push	 eax
  00008	6a 00		 push	 0
  0000a	ff 75 0c	 push	 DWORD PTR _poArgs$[ebp]
  0000d	e8 00 00 00 00	 call	 ?PyTuple_GetString@@YA_NPAU_object@@HPAPAD@Z ; PyTuple_GetString
  00012	83 c4 0c	 add	 esp, 12			; 0000000cH
  00015	84 c0		 test	 al, al
  00017	75 0e		 jne	 SHORT $LN2@netSnedGui

; 1433 : 		return Py_BuildException();

  00019	6a 00		 push	 0
  0001b	e8 00 00 00 00	 call	 ?Py_BuildException@@YAPAU_object@@PBDZZ ; Py_BuildException
  00020	83 c4 04	 add	 esp, 4

; 1439 : }

  00023	8b e5		 mov	 esp, ebp
  00025	5d		 pop	 ebp
  00026	c3		 ret	 0
$LN2@netSnedGui:

; 1434 : 
; 1435 : 	CPythonNetworkStream& rns=CPythonNetworkStream::Instance();
; 1436 : 	rns.SendGuildPostCommentPacket(szComment);

  00027	ff 75 fc	 push	 DWORD PTR _szComment$[ebp]
  0002a	8b 0d 00 00 00
	00		 mov	 ecx, DWORD PTR ?ms_singleton@?$CSingleton@VCPythonNetworkStream@@@@0PAVCPythonNetworkStream@@A ; CSingleton<CPythonNetworkStream>::ms_singleton
  00030	e8 00 00 00 00	 call	 ?SendGuildPostCommentPacket@CPythonNetworkStream@@QAE_NPBD@Z ; CPythonNetworkStream::SendGuildPostCommentPacket

; 1437 : 
; 1438 : 	return Py_BuildNone();

  00035	e8 00 00 00 00	 call	 ?Py_BuildNone@@YAPAU_object@@XZ ; Py_BuildNone

; 1439 : }

  0003a	8b e5		 mov	 esp, ebp
  0003c	5d		 pop	 ebp
  0003d	c3		 ret	 0
?netSnedGuildPostCommentPacket@@YAPAU_object@@PAU1@0@Z ENDP ; netSnedGuildPostCommentPacket
_TEXT	ENDS
; Function compile flags: /Ogtp
; File D:\Metin2 Server Files\mainline\SRC_2014\Metin2Client\UserInterface\PythonNetworkStreamModule.cpp
;	COMDAT ?netSendGuildOfferPacket@@YAPAU_object@@PAU1@0@Z
_TEXT	SEGMENT
_iExperience$ = -4					; size = 4
_poSelf$ = 8						; size = 4
_poArgs$ = 12						; size = 4
?netSendGuildOfferPacket@@YAPAU_object@@PAU1@0@Z PROC	; netSendGuildOfferPacket, COMDAT

; 1418 : {

  00000	55		 push	 ebp
  00001	8b ec		 mov	 ebp, esp
  00003	51		 push	 ecx

; 1419 : 	int iExperience;
; 1420 : 	if (!PyTuple_GetInteger(poArgs, 0, &iExperience))

  00004	8d 45 fc	 lea	 eax, DWORD PTR _iExperience$[ebp]
  00007	50		 push	 eax
  00008	6a 00		 push	 0
  0000a	ff 75 0c	 push	 DWORD PTR _poArgs$[ebp]
  0000d	e8 00 00 00 00	 call	 ?PyTuple_GetInteger@@YA_NPAU_object@@HPAH@Z ; PyTuple_GetInteger
  00012	83 c4 0c	 add	 esp, 12			; 0000000cH
  00015	84 c0		 test	 al, al
  00017	75 0e		 jne	 SHORT $LN2@netSendGui

; 1421 : 		return Py_BuildException();

  00019	6a 00		 push	 0
  0001b	e8 00 00 00 00	 call	 ?Py_BuildException@@YAPAU_object@@PBDZZ ; Py_BuildException
  00020	83 c4 04	 add	 esp, 4

; 1427 : }

  00023	8b e5		 mov	 esp, ebp
  00025	5d		 pop	 ebp
  00026	c3		 ret	 0
$LN2@netSendGui:

; 1422 : 
; 1423 : 	CPythonNetworkStream& rns=CPythonNetworkStream::Instance();
; 1424 : 	rns.SendGuildOfferPacket(iExperience);

  00027	ff 75 fc	 push	 DWORD PTR _iExperience$[ebp]
  0002a	8b 0d 00 00 00
	00		 mov	 ecx, DWORD PTR ?ms_singleton@?$CSingleton@VCPythonNetworkStream@@@@0PAVCPythonNetworkStream@@A ; CSingleton<CPythonNetworkStream>::ms_singleton
  00030	e8 00 00 00 00	 call	 ?SendGuildOfferPacket@CPythonNetworkStream@@QAE_NK@Z ; CPythonNetworkStream::SendGuildOfferPacket

; 1425 : 
; 1426 : 	return Py_BuildNone();

  00035	e8 00 00 00 00	 call	 ?Py_BuildNone@@YAPAU_object@@XZ ; Py_BuildNone

; 1427 : }

  0003a	8b e5		 mov	 esp, ebp
  0003c	5d		 pop	 ebp
  0003d	c3		 ret	 0
?netSendGuildOfferPacket@@YAPAU_object@@PAU1@0@Z ENDP	; netSendGuildOfferPacket
_TEXT	ENDS
; Function compile flags: /Ogtp
; File D:\Metin2 Server Files\mainline\SRC_2014\Metin2Client\UserInterface\PythonNetworkStreamModule.cpp
;	COMDAT ?netSendGuildChangeGradeAuthorityPacket@@YAPAU_object@@PAU1@0@Z
_TEXT	SEGMENT
_iGradeNumber$ = -8					; size = 4
_iAuthority$ = -4					; size = 4
_poSelf$ = 8						; size = 4
_poArgs$ = 12						; size = 4
?netSendGuildChangeGradeAuthorityPacket@@YAPAU_object@@PAU1@0@Z PROC ; netSendGuildChangeGradeAuthorityPacket, COMDAT

; 1403 : {

  00000	55		 push	 ebp
  00001	8b ec		 mov	 ebp, esp
  00003	83 ec 08	 sub	 esp, 8

; 1404 : 	int iGradeNumber;
; 1405 : 	if (!PyTuple_GetInteger(poArgs, 0, &iGradeNumber))

  00006	8d 45 f8	 lea	 eax, DWORD PTR _iGradeNumber$[ebp]
  00009	50		 push	 eax
  0000a	6a 00		 push	 0
  0000c	ff 75 0c	 push	 DWORD PTR _poArgs$[ebp]
  0000f	e8 00 00 00 00	 call	 ?PyTuple_GetInteger@@YA_NPAU_object@@HPAH@Z ; PyTuple_GetInteger
  00014	83 c4 0c	 add	 esp, 12			; 0000000cH
  00017	84 c0		 test	 al, al
  00019	75 0e		 jne	 SHORT $LN2@netSendGui
$LN5@netSendGui:

; 1415 : }

  0001b	6a 00		 push	 0
  0001d	e8 00 00 00 00	 call	 ?Py_BuildException@@YAPAU_object@@PBDZZ ; Py_BuildException
  00022	83 c4 04	 add	 esp, 4
  00025	8b e5		 mov	 esp, ebp
  00027	5d		 pop	 ebp
  00028	c3		 ret	 0
$LN2@netSendGui:

; 1406 : 		return Py_BuildException();
; 1407 : 	int iAuthority;
; 1408 : 	if (!PyTuple_GetInteger(poArgs, 1, &iAuthority))

  00029	8d 45 fc	 lea	 eax, DWORD PTR _iAuthority$[ebp]
  0002c	50		 push	 eax
  0002d	6a 01		 push	 1
  0002f	ff 75 0c	 push	 DWORD PTR _poArgs$[ebp]
  00032	e8 00 00 00 00	 call	 ?PyTuple_GetInteger@@YA_NPAU_object@@HPAH@Z ; PyTuple_GetInteger
  00037	83 c4 0c	 add	 esp, 12			; 0000000cH
  0003a	84 c0		 test	 al, al
  0003c	74 dd		 je	 SHORT $LN5@netSendGui

; 1409 : 		return Py_BuildException();
; 1410 : 
; 1411 : 	CPythonNetworkStream& rns=CPythonNetworkStream::Instance();
; 1412 : 	rns.SendGuildChangeGradeAuthorityPacket(iGradeNumber, iAuthority);

  0003e	ff 75 fc	 push	 DWORD PTR _iAuthority$[ebp]
  00041	8b 0d 00 00 00
	00		 mov	 ecx, DWORD PTR ?ms_singleton@?$CSingleton@VCPythonNetworkStream@@@@0PAVCPythonNetworkStream@@A ; CSingleton<CPythonNetworkStream>::ms_singleton
  00047	ff 75 f8	 push	 DWORD PTR _iGradeNumber$[ebp]
  0004a	e8 00 00 00 00	 call	 ?SendGuildChangeGradeAuthorityPacket@CPythonNetworkStream@@QAE_NEE@Z ; CPythonNetworkStream::SendGuildChangeGradeAuthorityPacket

; 1413 : 
; 1414 : 	return Py_BuildNone();

  0004f	e8 00 00 00 00	 call	 ?Py_BuildNone@@YAPAU_object@@XZ ; Py_BuildNone

; 1415 : }

  00054	8b e5		 mov	 esp, ebp
  00056	5d		 pop	 ebp
  00057	c3		 ret	 0
?netSendGuildChangeGradeAuthorityPacket@@YAPAU_object@@PAU1@0@Z ENDP ; netSendGuildChangeGradeAuthorityPacket
_TEXT	ENDS
; Function compile flags: /Ogtp
; File D:\Metin2 Server Files\mainline\SRC_2014\Metin2Client\UserInterface\PythonNetworkStreamModule.cpp
;	COMDAT ?netSendGuildChangeGradeNamePacket@@YAPAU_object@@PAU1@0@Z
_TEXT	SEGMENT
_iGradeNumber$ = -8					; size = 4
_szGradeName$ = -4					; size = 4
_poSelf$ = 8						; size = 4
_poArgs$ = 12						; size = 4
?netSendGuildChangeGradeNamePacket@@YAPAU_object@@PAU1@0@Z PROC ; netSendGuildChangeGradeNamePacket, COMDAT

; 1388 : {

  00000	55		 push	 ebp
  00001	8b ec		 mov	 ebp, esp
  00003	83 ec 08	 sub	 esp, 8

; 1389 : 	int iGradeNumber;
; 1390 : 	if (!PyTuple_GetInteger(poArgs, 0, &iGradeNumber))

  00006	8d 45 f8	 lea	 eax, DWORD PTR _iGradeNumber$[ebp]
  00009	50		 push	 eax
  0000a	6a 00		 push	 0
  0000c	ff 75 0c	 push	 DWORD PTR _poArgs$[ebp]
  0000f	e8 00 00 00 00	 call	 ?PyTuple_GetInteger@@YA_NPAU_object@@HPAH@Z ; PyTuple_GetInteger
  00014	83 c4 0c	 add	 esp, 12			; 0000000cH
  00017	84 c0		 test	 al, al
  00019	75 0e		 jne	 SHORT $LN2@netSendGui
$LN5@netSendGui:

; 1400 : }

  0001b	6a 00		 push	 0
  0001d	e8 00 00 00 00	 call	 ?Py_BuildException@@YAPAU_object@@PBDZZ ; Py_BuildException
  00022	83 c4 04	 add	 esp, 4
  00025	8b e5		 mov	 esp, ebp
  00027	5d		 pop	 ebp
  00028	c3		 ret	 0
$LN2@netSendGui:

; 1391 : 		return Py_BuildException();
; 1392 : 	char * szGradeName;
; 1393 : 	if (!PyTuple_GetString(poArgs, 1, &szGradeName))

  00029	8d 45 fc	 lea	 eax, DWORD PTR _szGradeName$[ebp]
  0002c	50		 push	 eax
  0002d	6a 01		 push	 1
  0002f	ff 75 0c	 push	 DWORD PTR _poArgs$[ebp]
  00032	e8 00 00 00 00	 call	 ?PyTuple_GetString@@YA_NPAU_object@@HPAPAD@Z ; PyTuple_GetString
  00037	83 c4 0c	 add	 esp, 12			; 0000000cH
  0003a	84 c0		 test	 al, al
  0003c	74 dd		 je	 SHORT $LN5@netSendGui

; 1394 : 		return Py_BuildException();
; 1395 : 
; 1396 : 	CPythonNetworkStream& rns=CPythonNetworkStream::Instance();
; 1397 : 	rns.SendGuildChangeGradeNamePacket(iGradeNumber, szGradeName);

  0003e	ff 75 fc	 push	 DWORD PTR _szGradeName$[ebp]
  00041	8b 0d 00 00 00
	00		 mov	 ecx, DWORD PTR ?ms_singleton@?$CSingleton@VCPythonNetworkStream@@@@0PAVCPythonNetworkStream@@A ; CSingleton<CPythonNetworkStream>::ms_singleton
  00047	ff 75 f8	 push	 DWORD PTR _iGradeNumber$[ebp]
  0004a	e8 00 00 00 00	 call	 ?SendGuildChangeGradeNamePacket@CPythonNetworkStream@@QAE_NEPBD@Z ; CPythonNetworkStream::SendGuildChangeGradeNamePacket

; 1398 : 
; 1399 : 	return Py_BuildNone();

  0004f	e8 00 00 00 00	 call	 ?Py_BuildNone@@YAPAU_object@@XZ ; Py_BuildNone

; 1400 : }

  00054	8b e5		 mov	 esp, ebp
  00056	5d		 pop	 ebp
  00057	c3		 ret	 0
?netSendGuildChangeGradeNamePacket@@YAPAU_object@@PAU1@0@Z ENDP ; netSendGuildChangeGradeNamePacket
_TEXT	ENDS
; Function compile flags: /Ogtp
; File D:\Metin2 Server Files\mainline\SRC_2014\Metin2Client\UserInterface\PythonNetworkStreamModule.cpp
;	COMDAT ?netSendGuildRemoveMemberPacket@@YAPAU_object@@PAU1@0@Z
_TEXT	SEGMENT
_pGuildMemberData$ = -8					; size = 4
_szKey$ = -4						; size = 4
_poSelf$ = 8						; size = 4
_poArgs$ = 12						; size = 4
?netSendGuildRemoveMemberPacket@@YAPAU_object@@PAU1@0@Z PROC ; netSendGuildRemoveMemberPacket, COMDAT

; 1369 : {

  00000	55		 push	 ebp
  00001	8b ec		 mov	 ebp, esp
  00003	83 ec 08	 sub	 esp, 8

; 1370 : 	char * szKey;
; 1371 : 	if (!PyTuple_GetString(poArgs, 0, &szKey))

  00006	8d 45 fc	 lea	 eax, DWORD PTR _szKey$[ebp]
  00009	50		 push	 eax
  0000a	6a 00		 push	 0
  0000c	ff 75 0c	 push	 DWORD PTR _poArgs$[ebp]
  0000f	e8 00 00 00 00	 call	 ?PyTuple_GetString@@YA_NPAU_object@@HPAPAD@Z ; PyTuple_GetString
  00014	83 c4 0c	 add	 esp, 12			; 0000000cH
  00017	84 c0		 test	 al, al
  00019	75 0e		 jne	 SHORT $LN2@netSendGui

; 1372 : 		return Py_BuildException();

  0001b	6a 00		 push	 0
  0001d	e8 00 00 00 00	 call	 ?Py_BuildException@@YAPAU_object@@PBDZZ ; Py_BuildException
  00022	83 c4 04	 add	 esp, 4

; 1383 : 
; 1384 : 	return Py_BuildNone();
; 1385 : }

  00025	8b e5		 mov	 esp, ebp
  00027	5d		 pop	 ebp
  00028	c3		 ret	 0
$LN2@netSendGui:

; 1373 : 
; 1374 : 	CPythonGuild::TGuildMemberData * pGuildMemberData;
; 1375 : 	if (!CPythonGuild::Instance().GetMemberDataPtrByName(szKey, &pGuildMemberData))

  00029	8b 0d 00 00 00
	00		 mov	 ecx, DWORD PTR ?ms_singleton@?$CSingleton@VCPythonGuild@@@@0PAVCPythonGuild@@A ; CSingleton<CPythonGuild>::ms_singleton
  0002f	8d 45 f8	 lea	 eax, DWORD PTR _pGuildMemberData$[ebp]
  00032	50		 push	 eax
  00033	ff 75 fc	 push	 DWORD PTR _szKey$[ebp]
  00036	e8 00 00 00 00	 call	 ?GetMemberDataPtrByName@CPythonGuild@@QAEHPBDPAPAUSGuildMemberData@1@@Z ; CPythonGuild::GetMemberDataPtrByName
  0003b	85 c0		 test	 eax, eax
  0003d	75 19		 jne	 SHORT $LN3@netSendGui

; 1376 : 	{
; 1377 : 		TraceError("netSendGuildRemoveMemberPacket(szKey=%s) - Can't Find Guild Member\n", szKey);

  0003f	ff 75 fc	 push	 DWORD PTR _szKey$[ebp]
  00042	68 00 00 00 00	 push	 OFFSET ??_C@_0EE@CPCFCFHF@netSendGuildRemoveMemberPacket?$CI@
  00047	e8 00 00 00 00	 call	 ?TraceError@@YAXPBDZZ	; TraceError
  0004c	83 c4 08	 add	 esp, 8

; 1383 : 
; 1384 : 	return Py_BuildNone();
; 1385 : }

  0004f	e8 00 00 00 00	 call	 ?Py_BuildNone@@YAPAU_object@@XZ ; Py_BuildNone
  00054	8b e5		 mov	 esp, ebp
  00056	5d		 pop	 ebp
  00057	c3		 ret	 0
$LN3@netSendGui:

; 1378 : 		return Py_BuildNone();
; 1379 : 	}
; 1380 : 
; 1381 : 	CPythonNetworkStream& rns=CPythonNetworkStream::Instance();
; 1382 : 	rns.SendGuildRemoveMemberPacket(pGuildMemberData->dwPID);

  00058	8b 45 f8	 mov	 eax, DWORD PTR _pGuildMemberData$[ebp]
  0005b	8b 0d 00 00 00
	00		 mov	 ecx, DWORD PTR ?ms_singleton@?$CSingleton@VCPythonNetworkStream@@@@0PAVCPythonNetworkStream@@A ; CSingleton<CPythonNetworkStream>::ms_singleton
  00061	ff 30		 push	 DWORD PTR [eax]
  00063	e8 00 00 00 00	 call	 ?SendGuildRemoveMemberPacket@CPythonNetworkStream@@QAE_NK@Z ; CPythonNetworkStream::SendGuildRemoveMemberPacket

; 1383 : 
; 1384 : 	return Py_BuildNone();
; 1385 : }

  00068	e8 00 00 00 00	 call	 ?Py_BuildNone@@YAPAU_object@@XZ ; Py_BuildNone
  0006d	8b e5		 mov	 esp, ebp
  0006f	5d		 pop	 ebp
  00070	c3		 ret	 0
?netSendGuildRemoveMemberPacket@@YAPAU_object@@PAU1@0@Z ENDP ; netSendGuildRemoveMemberPacket
_TEXT	ENDS
; Function compile flags: /Ogtp
; File D:\Metin2 Server Files\mainline\SRC_2014\Metin2Client\UserInterface\PythonNetworkStreamModule.cpp
;	COMDAT ?netSendGuildAddMemberPacket@@YAPAU_object@@PAU1@0@Z
_TEXT	SEGMENT
_iVID$ = -4						; size = 4
_poSelf$ = 8						; size = 4
_poArgs$ = 12						; size = 4
?netSendGuildAddMemberPacket@@YAPAU_object@@PAU1@0@Z PROC ; netSendGuildAddMemberPacket, COMDAT

; 1357 : {

  00000	55		 push	 ebp
  00001	8b ec		 mov	 ebp, esp
  00003	51		 push	 ecx

; 1358 : 	int iVID;
; 1359 : 	if (!PyTuple_GetInteger(poArgs, 0, &iVID))

  00004	8d 45 fc	 lea	 eax, DWORD PTR _iVID$[ebp]
  00007	50		 push	 eax
  00008	6a 00		 push	 0
  0000a	ff 75 0c	 push	 DWORD PTR _poArgs$[ebp]
  0000d	e8 00 00 00 00	 call	 ?PyTuple_GetInteger@@YA_NPAU_object@@HPAH@Z ; PyTuple_GetInteger
  00012	83 c4 0c	 add	 esp, 12			; 0000000cH
  00015	84 c0		 test	 al, al
  00017	75 0e		 jne	 SHORT $LN2@netSendGui

; 1360 : 		return Py_BuildException();

  00019	6a 00		 push	 0
  0001b	e8 00 00 00 00	 call	 ?Py_BuildException@@YAPAU_object@@PBDZZ ; Py_BuildException
  00020	83 c4 04	 add	 esp, 4

; 1366 : }

  00023	8b e5		 mov	 esp, ebp
  00025	5d		 pop	 ebp
  00026	c3		 ret	 0
$LN2@netSendGui:

; 1361 : 
; 1362 : 	CPythonNetworkStream& rns=CPythonNetworkStream::Instance();
; 1363 : 	rns.SendGuildAddMemberPacket(iVID);

  00027	ff 75 fc	 push	 DWORD PTR _iVID$[ebp]
  0002a	8b 0d 00 00 00
	00		 mov	 ecx, DWORD PTR ?ms_singleton@?$CSingleton@VCPythonNetworkStream@@@@0PAVCPythonNetworkStream@@A ; CSingleton<CPythonNetworkStream>::ms_singleton
  00030	e8 00 00 00 00	 call	 ?SendGuildAddMemberPacket@CPythonNetworkStream@@QAE_NK@Z ; CPythonNetworkStream::SendGuildAddMemberPacket

; 1364 : 
; 1365 : 	return Py_BuildNone();

  00035	e8 00 00 00 00	 call	 ?Py_BuildNone@@YAPAU_object@@XZ ; Py_BuildNone

; 1366 : }

  0003a	8b e5		 mov	 esp, ebp
  0003c	5d		 pop	 ebp
  0003d	c3		 ret	 0
?netSendGuildAddMemberPacket@@YAPAU_object@@PAU1@0@Z ENDP ; netSendGuildAddMemberPacket
_TEXT	ENDS
; Function compile flags: /Ogtp
; File D:\Metin2 Server Files\mainline\SRC_2014\Metin2Client\UserInterface\PythonNetworkStreamModule.cpp
;	COMDAT ?netSendQuestConfirmPacket@@YAPAU_object@@PAU1@0@Z
_TEXT	SEGMENT
_iAnswer$ = -8						; size = 4
_iPID$ = -4						; size = 4
_poSelf$ = 8						; size = 4
_poArgs$ = 12						; size = 4
?netSendQuestConfirmPacket@@YAPAU_object@@PAU1@0@Z PROC	; netSendQuestConfirmPacket, COMDAT

; 1342 : {

  00000	55		 push	 ebp
  00001	8b ec		 mov	 ebp, esp
  00003	83 ec 08	 sub	 esp, 8

; 1343 : 	int iAnswer;
; 1344 : 	if (!PyTuple_GetInteger(poArgs, 0, &iAnswer))

  00006	8d 45 f8	 lea	 eax, DWORD PTR _iAnswer$[ebp]
  00009	50		 push	 eax
  0000a	6a 00		 push	 0
  0000c	ff 75 0c	 push	 DWORD PTR _poArgs$[ebp]
  0000f	e8 00 00 00 00	 call	 ?PyTuple_GetInteger@@YA_NPAU_object@@HPAH@Z ; PyTuple_GetInteger
  00014	83 c4 0c	 add	 esp, 12			; 0000000cH
  00017	84 c0		 test	 al, al
  00019	75 0e		 jne	 SHORT $LN2@netSendQue
$LN5@netSendQue:

; 1354 : }

  0001b	6a 00		 push	 0
  0001d	e8 00 00 00 00	 call	 ?Py_BuildException@@YAPAU_object@@PBDZZ ; Py_BuildException
  00022	83 c4 04	 add	 esp, 4
  00025	8b e5		 mov	 esp, ebp
  00027	5d		 pop	 ebp
  00028	c3		 ret	 0
$LN2@netSendQue:

; 1345 : 		return Py_BuildException();
; 1346 : 	int iPID;
; 1347 : 	if (!PyTuple_GetInteger(poArgs, 1, &iPID))

  00029	8d 45 fc	 lea	 eax, DWORD PTR _iPID$[ebp]
  0002c	50		 push	 eax
  0002d	6a 01		 push	 1
  0002f	ff 75 0c	 push	 DWORD PTR _poArgs$[ebp]
  00032	e8 00 00 00 00	 call	 ?PyTuple_GetInteger@@YA_NPAU_object@@HPAH@Z ; PyTuple_GetInteger
  00037	83 c4 0c	 add	 esp, 12			; 0000000cH
  0003a	84 c0		 test	 al, al
  0003c	74 dd		 je	 SHORT $LN5@netSendQue

; 1348 : 		return Py_BuildException();
; 1349 : 
; 1350 : 	CPythonNetworkStream& rns=CPythonNetworkStream::Instance();
; 1351 : 	rns.SendQuestConfirmPacket(iAnswer, iPID);

  0003e	ff 75 fc	 push	 DWORD PTR _iPID$[ebp]
  00041	8b 0d 00 00 00
	00		 mov	 ecx, DWORD PTR ?ms_singleton@?$CSingleton@VCPythonNetworkStream@@@@0PAVCPythonNetworkStream@@A ; CSingleton<CPythonNetworkStream>::ms_singleton
  00047	ff 75 f8	 push	 DWORD PTR _iAnswer$[ebp]
  0004a	e8 00 00 00 00	 call	 ?SendQuestConfirmPacket@CPythonNetworkStream@@QAE_NEK@Z ; CPythonNetworkStream::SendQuestConfirmPacket

; 1352 : 
; 1353 : 	return Py_BuildNone();

  0004f	e8 00 00 00 00	 call	 ?Py_BuildNone@@YAPAU_object@@XZ ; Py_BuildNone

; 1354 : }

  00054	8b e5		 mov	 esp, ebp
  00056	5d		 pop	 ebp
  00057	c3		 ret	 0
?netSendQuestConfirmPacket@@YAPAU_object@@PAU1@0@Z ENDP	; netSendQuestConfirmPacket
_TEXT	ENDS
; Function compile flags: /Ogtp
; File D:\Metin2 Server Files\mainline\SRC_2014\Metin2Client\UserInterface\PythonNetworkStreamModule.cpp
;	COMDAT ?netSendQuestInputStringPacket@@YAPAU_object@@PAU1@0@Z
_TEXT	SEGMENT
_szString$ = -4						; size = 4
_poSelf$ = 8						; size = 4
_poArgs$ = 12						; size = 4
?netSendQuestInputStringPacket@@YAPAU_object@@PAU1@0@Z PROC ; netSendQuestInputStringPacket, COMDAT

; 1330 : {

  00000	55		 push	 ebp
  00001	8b ec		 mov	 ebp, esp
  00003	51		 push	 ecx

; 1331 : 	char * szString;
; 1332 : 	if (!PyTuple_GetString(poArgs, 0, &szString))

  00004	8d 45 fc	 lea	 eax, DWORD PTR _szString$[ebp]
  00007	50		 push	 eax
  00008	6a 00		 push	 0
  0000a	ff 75 0c	 push	 DWORD PTR _poArgs$[ebp]
  0000d	e8 00 00 00 00	 call	 ?PyTuple_GetString@@YA_NPAU_object@@HPAPAD@Z ; PyTuple_GetString
  00012	83 c4 0c	 add	 esp, 12			; 0000000cH
  00015	84 c0		 test	 al, al
  00017	75 0e		 jne	 SHORT $LN2@netSendQue

; 1333 : 		return Py_BuildException();

  00019	6a 00		 push	 0
  0001b	e8 00 00 00 00	 call	 ?Py_BuildException@@YAPAU_object@@PBDZZ ; Py_BuildException
  00020	83 c4 04	 add	 esp, 4

; 1339 : }

  00023	8b e5		 mov	 esp, ebp
  00025	5d		 pop	 ebp
  00026	c3		 ret	 0
$LN2@netSendQue:

; 1334 : 
; 1335 : 	CPythonNetworkStream& rns=CPythonNetworkStream::Instance();
; 1336 : 	rns.SendQuestInputStringPacket(szString);

  00027	ff 75 fc	 push	 DWORD PTR _szString$[ebp]
  0002a	8b 0d 00 00 00
	00		 mov	 ecx, DWORD PTR ?ms_singleton@?$CSingleton@VCPythonNetworkStream@@@@0PAVCPythonNetworkStream@@A ; CSingleton<CPythonNetworkStream>::ms_singleton
  00030	e8 00 00 00 00	 call	 ?SendQuestInputStringPacket@CPythonNetworkStream@@QAE_NPBD@Z ; CPythonNetworkStream::SendQuestInputStringPacket

; 1337 : 
; 1338 : 	return Py_BuildNone();

  00035	e8 00 00 00 00	 call	 ?Py_BuildNone@@YAPAU_object@@XZ ; Py_BuildNone

; 1339 : }

  0003a	8b e5		 mov	 esp, ebp
  0003c	5d		 pop	 ebp
  0003d	c3		 ret	 0
?netSendQuestInputStringPacket@@YAPAU_object@@PAU1@0@Z ENDP ; netSendQuestInputStringPacket
_TEXT	ENDS
; Function compile flags: /Ogtp
; File D:\Metin2 Server Files\mainline\SRC_2014\Metin2Client\UserInterface\PythonNetworkStreamModule.cpp
;	COMDAT ?netSendAnswerMakeGuildPacket@@YAPAU_object@@PAU1@0@Z
_TEXT	SEGMENT
_szName$ = -4						; size = 4
_poSelf$ = 8						; size = 4
_poArgs$ = 12						; size = 4
?netSendAnswerMakeGuildPacket@@YAPAU_object@@PAU1@0@Z PROC ; netSendAnswerMakeGuildPacket, COMDAT

; 1318 : {

  00000	55		 push	 ebp
  00001	8b ec		 mov	 ebp, esp
  00003	51		 push	 ecx

; 1319 : 	char * szName;
; 1320 : 	if (!PyTuple_GetString(poArgs, 0, &szName))

  00004	8d 45 fc	 lea	 eax, DWORD PTR _szName$[ebp]
  00007	50		 push	 eax
  00008	6a 00		 push	 0
  0000a	ff 75 0c	 push	 DWORD PTR _poArgs$[ebp]
  0000d	e8 00 00 00 00	 call	 ?PyTuple_GetString@@YA_NPAU_object@@HPAPAD@Z ; PyTuple_GetString
  00012	83 c4 0c	 add	 esp, 12			; 0000000cH
  00015	84 c0		 test	 al, al
  00017	75 0e		 jne	 SHORT $LN2@netSendAns

; 1321 : 		return Py_BuildException();

  00019	6a 00		 push	 0
  0001b	e8 00 00 00 00	 call	 ?Py_BuildException@@YAPAU_object@@PBDZZ ; Py_BuildException
  00020	83 c4 04	 add	 esp, 4

; 1327 : }

  00023	8b e5		 mov	 esp, ebp
  00025	5d		 pop	 ebp
  00026	c3		 ret	 0
$LN2@netSendAns:

; 1322 : 
; 1323 : 	CPythonNetworkStream& rns=CPythonNetworkStream::Instance();
; 1324 : 	rns.SendAnswerMakeGuildPacket(szName);

  00027	ff 75 fc	 push	 DWORD PTR _szName$[ebp]
  0002a	8b 0d 00 00 00
	00		 mov	 ecx, DWORD PTR ?ms_singleton@?$CSingleton@VCPythonNetworkStream@@@@0PAVCPythonNetworkStream@@A ; CSingleton<CPythonNetworkStream>::ms_singleton
  00030	e8 00 00 00 00	 call	 ?SendAnswerMakeGuildPacket@CPythonNetworkStream@@QAE_NPBD@Z ; CPythonNetworkStream::SendAnswerMakeGuildPacket

; 1325 : 
; 1326 : 	return Py_BuildNone();

  00035	e8 00 00 00 00	 call	 ?Py_BuildNone@@YAPAU_object@@XZ ; Py_BuildNone

; 1327 : }

  0003a	8b e5		 mov	 esp, ebp
  0003c	5d		 pop	 ebp
  0003d	c3		 ret	 0
?netSendAnswerMakeGuildPacket@@YAPAU_object@@PAU1@0@Z ENDP ; netSendAnswerMakeGuildPacket
_TEXT	ENDS
; Function compile flags: /Ogtp
; File D:\Metin2 Server Files\mainline\SRC_2014\Metin2Client\UserInterface\PythonNetworkStreamModule.cpp
; File D:\Metin2 Server Files\mainline\SRC_2014\Metin2Client\UserInterface\GameType.h
; File D:\Metin2 Server Files\mainline\SRC_2014\Metin2Client\UserInterface\PythonNetworkStreamModule.cpp
; File D:\Metin2 Server Files\mainline\SRC_2014\Metin2Client\UserInterface\GameType.h
; File D:\Metin2 Server Files\mainline\SRC_2014\Metin2Client\UserInterface\PythonNetworkStreamModule.cpp
;	COMDAT ?netSendMallCheckoutPacket@@YAPAU_object@@PAU1@0@Z
_TEXT	SEGMENT
_iMallPos$ = -8						; size = 4
_InventoryPos$ = -4					; size = 3
_poSelf$ = 8						; size = 4
_poArgs$ = 12						; size = 4
?netSendMallCheckoutPacket@@YAPAU_object@@PAU1@0@Z PROC	; netSendMallCheckoutPacket, COMDAT

; 1288 : {

  00000	55		 push	 ebp
  00001	8b ec		 mov	 ebp, esp
  00003	83 ec 08	 sub	 esp, 8
  00006	56		 push	 esi

; 1292 : 	switch (PyTuple_Size(poArgs))

  00007	8b 75 0c	 mov	 esi, DWORD PTR _poArgs$[ebp]
; File D:\Metin2 Server Files\mainline\SRC_2014\Metin2Client\UserInterface\GameType.h

; 187  : 		cell = WORD_MAX;

  0000a	b8 ff ff 00 00	 mov	 eax, 65535		; 0000ffffH
; File D:\Metin2 Server Files\mainline\SRC_2014\Metin2Client\UserInterface\PythonNetworkStreamModule.cpp

; 1292 : 	switch (PyTuple_Size(poArgs))

  0000f	56		 push	 esi
; File D:\Metin2 Server Files\mainline\SRC_2014\Metin2Client\UserInterface\GameType.h

; 186  : 		window_type =     INVENTORY;

  00010	c6 45 fc 01	 mov	 BYTE PTR _InventoryPos$[ebp], 1

; 187  : 		cell = WORD_MAX;

  00014	66 89 45 fd	 mov	 WORD PTR _InventoryPos$[ebp+1], ax
; File D:\Metin2 Server Files\mainline\SRC_2014\Metin2Client\UserInterface\PythonNetworkStreamModule.cpp

; 1292 : 	switch (PyTuple_Size(poArgs))

  00018	ff 15 00 00 00
	00		 call	 DWORD PTR __imp__PyTuple_Size
  0001e	83 c4 04	 add	 esp, 4
  00021	83 e8 02	 sub	 eax, 2
  00024	74 4d		 je	 SHORT $LN4@netSendMal
  00026	83 e8 01	 sub	 eax, 1
  00029	75 39		 jne	 SHORT $LN15@netSendMal

; 1298 : 			return Py_BuildException();
; 1299 : 		break;
; 1300 : 	case 3:
; 1301 : 		if (!PyTuple_GetInteger(poArgs, 0, &iMallPos))

  0002b	8d 45 f8	 lea	 eax, DWORD PTR _iMallPos$[ebp]
  0002e	50		 push	 eax
  0002f	6a 00		 push	 0
  00031	56		 push	 esi
  00032	e8 00 00 00 00	 call	 ?PyTuple_GetInteger@@YA_NPAU_object@@HPAH@Z ; PyTuple_GetInteger
  00037	83 c4 0c	 add	 esp, 12			; 0000000cH
  0003a	84 c0		 test	 al, al
  0003c	74 26		 je	 SHORT $LN15@netSendMal

; 1302 : 			return Py_BuildException();
; 1303 : 		if (!PyTuple_GetInteger(poArgs, 1, &InventoryPos.window_type))

  0003e	8d 45 fc	 lea	 eax, DWORD PTR _InventoryPos$[ebp]
  00041	50		 push	 eax
  00042	6a 01		 push	 1
  00044	56		 push	 esi
  00045	e8 00 00 00 00	 call	 ?PyTuple_GetInteger@@YA_NPAU_object@@HPAE@Z ; PyTuple_GetInteger
  0004a	83 c4 0c	 add	 esp, 12			; 0000000cH
  0004d	84 c0		 test	 al, al
  0004f	74 13		 je	 SHORT $LN15@netSendMal

; 1304 : 			return Py_BuildException();
; 1305 : 		if (!PyTuple_GetInteger(poArgs, 2, &InventoryPos.cell))

  00051	8d 45 fd	 lea	 eax, DWORD PTR _InventoryPos$[ebp+1]
  00054	50		 push	 eax
  00055	6a 02		 push	 2
  00057	56		 push	 esi
  00058	e8 00 00 00 00	 call	 ?PyTuple_GetInteger@@YA_NPAU_object@@HPAG@Z ; PyTuple_GetInteger
  0005d	83 c4 0c	 add	 esp, 12			; 0000000cH
  00060	84 c0		 test	 al, al
  00062	75 35		 jne	 SHORT $LN6@netSendMal
$LN15@netSendMal:

; 1315 : }

  00064	6a 00		 push	 0
  00066	e8 00 00 00 00	 call	 ?Py_BuildException@@YAPAU_object@@PBDZZ ; Py_BuildException
  0006b	83 c4 04	 add	 esp, 4
  0006e	5e		 pop	 esi
  0006f	8b e5		 mov	 esp, ebp
  00071	5d		 pop	 ebp
  00072	c3		 ret	 0
$LN4@netSendMal:

; 1293 : 	{
; 1294 : 	case 2:
; 1295 : 		if (!PyTuple_GetInteger(poArgs, 0, &iMallPos))

  00073	8d 45 f8	 lea	 eax, DWORD PTR _iMallPos$[ebp]
  00076	50		 push	 eax
  00077	6a 00		 push	 0
  00079	56		 push	 esi
  0007a	e8 00 00 00 00	 call	 ?PyTuple_GetInteger@@YA_NPAU_object@@HPAH@Z ; PyTuple_GetInteger
  0007f	83 c4 0c	 add	 esp, 12			; 0000000cH
  00082	84 c0		 test	 al, al
  00084	74 de		 je	 SHORT $LN15@netSendMal

; 1296 : 			return Py_BuildException();
; 1297 : 		if (!PyTuple_GetInteger(poArgs, 1, &InventoryPos.cell))

  00086	8d 45 fd	 lea	 eax, DWORD PTR _InventoryPos$[ebp+1]
  00089	50		 push	 eax
  0008a	6a 01		 push	 1
  0008c	56		 push	 esi
  0008d	e8 00 00 00 00	 call	 ?PyTuple_GetInteger@@YA_NPAU_object@@HPAG@Z ; PyTuple_GetInteger
  00092	83 c4 0c	 add	 esp, 12			; 0000000cH
  00095	84 c0		 test	 al, al
  00097	74 cb		 je	 SHORT $LN15@netSendMal
$LN6@netSendMal:

; 1306 : 			return Py_BuildException();
; 1307 : 		break;
; 1308 : 	default:
; 1309 : 		return Py_BuildException();
; 1310 : 	}
; 1311 : 	CPythonNetworkStream& rns=CPythonNetworkStream::Instance();
; 1312 : 	rns.SendMallCheckoutPacket(iMallPos, InventoryPos);

  00099	66 8b 45 fc	 mov	 ax, WORD PTR _InventoryPos$[ebp]
  0009d	51		 push	 ecx
  0009e	8b cc		 mov	 ecx, esp
  000a0	ff 75 f8	 push	 DWORD PTR _iMallPos$[ebp]
  000a3	66 89 01	 mov	 WORD PTR [ecx], ax
  000a6	8a 45 fe	 mov	 al, BYTE PTR _InventoryPos$[ebp+2]
  000a9	88 41 02	 mov	 BYTE PTR [ecx+2], al
  000ac	8b 0d 00 00 00
	00		 mov	 ecx, DWORD PTR ?ms_singleton@?$CSingleton@VCPythonNetworkStream@@@@0PAVCPythonNetworkStream@@A ; CSingleton<CPythonNetworkStream>::ms_singleton
  000b2	e8 00 00 00 00	 call	 ?SendMallCheckoutPacket@CPythonNetworkStream@@QAE_NEUSItemPos@@@Z ; CPythonNetworkStream::SendMallCheckoutPacket

; 1313 : 
; 1314 : 	return Py_BuildNone();

  000b7	e8 00 00 00 00	 call	 ?Py_BuildNone@@YAPAU_object@@XZ ; Py_BuildNone

; 1315 : }

  000bc	5e		 pop	 esi
  000bd	8b e5		 mov	 esp, ebp
  000bf	5d		 pop	 ebp
  000c0	c3		 ret	 0
?netSendMallCheckoutPacket@@YAPAU_object@@PAU1@0@Z ENDP	; netSendMallCheckoutPacket
_TEXT	ENDS
; Function compile flags: /Ogtp
; File D:\Metin2 Server Files\mainline\SRC_2014\Metin2Client\UserInterface\PythonNetworkStreamModule.cpp
;	COMDAT ?netSendSafeboxItemMovePacket@@YAPAU_object@@PAU1@0@Z
_TEXT	SEGMENT
_iSourcePos$ = -12					; size = 4
_iTargetPos$ = -8					; size = 4
_iCount$ = -4						; size = 4
_poSelf$ = 8						; size = 4
_poArgs$ = 12						; size = 4
?netSendSafeboxItemMovePacket@@YAPAU_object@@PAU1@0@Z PROC ; netSendSafeboxItemMovePacket, COMDAT

; 1270 : {

  00000	55		 push	 ebp
  00001	8b ec		 mov	 ebp, esp
  00003	83 ec 0c	 sub	 esp, 12			; 0000000cH

; 1271 : 	int iSourcePos;
; 1272 : 	if (!PyTuple_GetInteger(poArgs, 0, &iSourcePos))

  00006	8d 45 f4	 lea	 eax, DWORD PTR _iSourcePos$[ebp]
  00009	56		 push	 esi
  0000a	8b 75 0c	 mov	 esi, DWORD PTR _poArgs$[ebp]
  0000d	50		 push	 eax
  0000e	6a 00		 push	 0
  00010	56		 push	 esi
  00011	e8 00 00 00 00	 call	 ?PyTuple_GetInteger@@YA_NPAU_object@@HPAH@Z ; PyTuple_GetInteger
  00016	83 c4 0c	 add	 esp, 12			; 0000000cH
  00019	84 c0		 test	 al, al
  0001b	75 0f		 jne	 SHORT $LN2@netSendSaf
$LN6@netSendSaf:

; 1285 : }

  0001d	6a 00		 push	 0
  0001f	e8 00 00 00 00	 call	 ?Py_BuildException@@YAPAU_object@@PBDZZ ; Py_BuildException
  00024	83 c4 04	 add	 esp, 4
  00027	5e		 pop	 esi
  00028	8b e5		 mov	 esp, ebp
  0002a	5d		 pop	 ebp
  0002b	c3		 ret	 0
$LN2@netSendSaf:

; 1273 : 		return Py_BuildException();
; 1274 : 	int iTargetPos;
; 1275 : 	if (!PyTuple_GetInteger(poArgs, 1, &iTargetPos))

  0002c	8d 45 f8	 lea	 eax, DWORD PTR _iTargetPos$[ebp]
  0002f	50		 push	 eax
  00030	6a 01		 push	 1
  00032	56		 push	 esi
  00033	e8 00 00 00 00	 call	 ?PyTuple_GetInteger@@YA_NPAU_object@@HPAH@Z ; PyTuple_GetInteger
  00038	83 c4 0c	 add	 esp, 12			; 0000000cH
  0003b	84 c0		 test	 al, al
  0003d	74 de		 je	 SHORT $LN6@netSendSaf

; 1276 : 		return Py_BuildException();
; 1277 : 	int iCount;
; 1278 : 	if (!PyTuple_GetInteger(poArgs, 2, &iCount))

  0003f	8d 45 fc	 lea	 eax, DWORD PTR _iCount$[ebp]
  00042	50		 push	 eax
  00043	6a 02		 push	 2
  00045	56		 push	 esi
  00046	e8 00 00 00 00	 call	 ?PyTuple_GetInteger@@YA_NPAU_object@@HPAH@Z ; PyTuple_GetInteger
  0004b	83 c4 0c	 add	 esp, 12			; 0000000cH
  0004e	84 c0		 test	 al, al
  00050	74 cb		 je	 SHORT $LN6@netSendSaf

; 1279 : 		return Py_BuildException();
; 1280 : 
; 1281 : 	CPythonNetworkStream& rns=CPythonNetworkStream::Instance();
; 1282 : 	rns.SendSafeBoxItemMovePacket(iSourcePos, iTargetPos, iCount);

  00052	ff 75 fc	 push	 DWORD PTR _iCount$[ebp]
  00055	8b 0d 00 00 00
	00		 mov	 ecx, DWORD PTR ?ms_singleton@?$CSingleton@VCPythonNetworkStream@@@@0PAVCPythonNetworkStream@@A ; CSingleton<CPythonNetworkStream>::ms_singleton
  0005b	ff 75 f8	 push	 DWORD PTR _iTargetPos$[ebp]
  0005e	ff 75 f4	 push	 DWORD PTR _iSourcePos$[ebp]
  00061	e8 00 00 00 00	 call	 ?SendSafeBoxItemMovePacket@CPythonNetworkStream@@QAE_NEEE@Z ; CPythonNetworkStream::SendSafeBoxItemMovePacket

; 1283 : 
; 1284 : 	return Py_BuildNone();

  00066	e8 00 00 00 00	 call	 ?Py_BuildNone@@YAPAU_object@@XZ ; Py_BuildNone
  0006b	5e		 pop	 esi

; 1285 : }

  0006c	8b e5		 mov	 esp, ebp
  0006e	5d		 pop	 ebp
  0006f	c3		 ret	 0
?netSendSafeboxItemMovePacket@@YAPAU_object@@PAU1@0@Z ENDP ; netSendSafeboxItemMovePacket
_TEXT	ENDS
; Function compile flags: /Ogtp
; File D:\Metin2 Server Files\mainline\SRC_2014\Metin2Client\UserInterface\PythonNetworkStreamModule.cpp
; File D:\Metin2 Server Files\mainline\SRC_2014\Metin2Client\UserInterface\GameType.h
; File D:\Metin2 Server Files\mainline\SRC_2014\Metin2Client\UserInterface\PythonNetworkStreamModule.cpp
; File D:\Metin2 Server Files\mainline\SRC_2014\Metin2Client\UserInterface\GameType.h
; File D:\Metin2 Server Files\mainline\SRC_2014\Metin2Client\UserInterface\PythonNetworkStreamModule.cpp
;	COMDAT ?netSendSafeboxCheckoutPacket@@YAPAU_object@@PAU1@0@Z
_TEXT	SEGMENT
_iSafeBoxPos$ = -8					; size = 4
_InventoryPos$ = -4					; size = 3
_poSelf$ = 8						; size = 4
_poArgs$ = 12						; size = 4
?netSendSafeboxCheckoutPacket@@YAPAU_object@@PAU1@0@Z PROC ; netSendSafeboxCheckoutPacket, COMDAT

; 1239 : {

  00000	55		 push	 ebp
  00001	8b ec		 mov	 ebp, esp
  00003	83 ec 08	 sub	 esp, 8
  00006	56		 push	 esi

; 1243 : 	switch (PyTuple_Size(poArgs))

  00007	8b 75 0c	 mov	 esi, DWORD PTR _poArgs$[ebp]
; File D:\Metin2 Server Files\mainline\SRC_2014\Metin2Client\UserInterface\GameType.h

; 187  : 		cell = WORD_MAX;

  0000a	b8 ff ff 00 00	 mov	 eax, 65535		; 0000ffffH
; File D:\Metin2 Server Files\mainline\SRC_2014\Metin2Client\UserInterface\PythonNetworkStreamModule.cpp

; 1243 : 	switch (PyTuple_Size(poArgs))

  0000f	56		 push	 esi
; File D:\Metin2 Server Files\mainline\SRC_2014\Metin2Client\UserInterface\GameType.h

; 186  : 		window_type =     INVENTORY;

  00010	c6 45 fc 01	 mov	 BYTE PTR _InventoryPos$[ebp], 1

; 187  : 		cell = WORD_MAX;

  00014	66 89 45 fd	 mov	 WORD PTR _InventoryPos$[ebp+1], ax
; File D:\Metin2 Server Files\mainline\SRC_2014\Metin2Client\UserInterface\PythonNetworkStreamModule.cpp

; 1243 : 	switch (PyTuple_Size(poArgs))

  00018	ff 15 00 00 00
	00		 call	 DWORD PTR __imp__PyTuple_Size
  0001e	83 c4 04	 add	 esp, 4
  00021	83 e8 02	 sub	 eax, 2
  00024	74 4d		 je	 SHORT $LN4@netSendSaf
  00026	83 e8 01	 sub	 eax, 1
  00029	75 6e		 jne	 SHORT $LN6@netSendSaf

; 1249 : 			return Py_BuildException();
; 1250 : 		break;
; 1251 : 	case 3:
; 1252 : 		if (!PyTuple_GetInteger(poArgs, 0, &iSafeBoxPos))

  0002b	8d 45 f8	 lea	 eax, DWORD PTR _iSafeBoxPos$[ebp]
  0002e	50		 push	 eax
  0002f	6a 00		 push	 0
  00031	56		 push	 esi
  00032	e8 00 00 00 00	 call	 ?PyTuple_GetInteger@@YA_NPAU_object@@HPAH@Z ; PyTuple_GetInteger
  00037	83 c4 0c	 add	 esp, 12			; 0000000cH
  0003a	84 c0		 test	 al, al
  0003c	74 26		 je	 SHORT $LN15@netSendSaf

; 1253 : 			return Py_BuildException();
; 1254 : 		if (!PyTuple_GetInteger(poArgs, 1, &InventoryPos.window_type))

  0003e	8d 45 fc	 lea	 eax, DWORD PTR _InventoryPos$[ebp]
  00041	50		 push	 eax
  00042	6a 01		 push	 1
  00044	56		 push	 esi
  00045	e8 00 00 00 00	 call	 ?PyTuple_GetInteger@@YA_NPAU_object@@HPAE@Z ; PyTuple_GetInteger
  0004a	83 c4 0c	 add	 esp, 12			; 0000000cH
  0004d	84 c0		 test	 al, al
  0004f	74 13		 je	 SHORT $LN15@netSendSaf

; 1255 : 			return Py_BuildException();
; 1256 : 		if (!PyTuple_GetInteger(poArgs, 2, &InventoryPos.cell))

  00051	8d 45 fd	 lea	 eax, DWORD PTR _InventoryPos$[ebp+1]
  00054	50		 push	 eax
  00055	6a 02		 push	 2
  00057	56		 push	 esi
  00058	e8 00 00 00 00	 call	 ?PyTuple_GetInteger@@YA_NPAU_object@@HPAG@Z ; PyTuple_GetInteger
  0005d	83 c4 0c	 add	 esp, 12			; 0000000cH
  00060	84 c0		 test	 al, al
  00062	75 35		 jne	 SHORT $LN6@netSendSaf
$LN15@netSendSaf:

; 1267 : }

  00064	6a 00		 push	 0
  00066	e8 00 00 00 00	 call	 ?Py_BuildException@@YAPAU_object@@PBDZZ ; Py_BuildException
  0006b	83 c4 04	 add	 esp, 4
  0006e	5e		 pop	 esi
  0006f	8b e5		 mov	 esp, ebp
  00071	5d		 pop	 ebp
  00072	c3		 ret	 0
$LN4@netSendSaf:

; 1244 : 	{
; 1245 : 	case 2:
; 1246 : 		if (!PyTuple_GetInteger(poArgs, 0, &iSafeBoxPos))

  00073	8d 45 f8	 lea	 eax, DWORD PTR _iSafeBoxPos$[ebp]
  00076	50		 push	 eax
  00077	6a 00		 push	 0
  00079	56		 push	 esi
  0007a	e8 00 00 00 00	 call	 ?PyTuple_GetInteger@@YA_NPAU_object@@HPAH@Z ; PyTuple_GetInteger
  0007f	83 c4 0c	 add	 esp, 12			; 0000000cH
  00082	84 c0		 test	 al, al
  00084	74 de		 je	 SHORT $LN15@netSendSaf

; 1247 : 			return Py_BuildException();
; 1248 : 		if (!PyTuple_GetInteger(poArgs, 1, &InventoryPos.cell))

  00086	8d 45 fd	 lea	 eax, DWORD PTR _InventoryPos$[ebp+1]
  00089	50		 push	 eax
  0008a	6a 01		 push	 1
  0008c	56		 push	 esi
  0008d	e8 00 00 00 00	 call	 ?PyTuple_GetInteger@@YA_NPAU_object@@HPAG@Z ; PyTuple_GetInteger
  00092	83 c4 0c	 add	 esp, 12			; 0000000cH
  00095	84 c0		 test	 al, al
  00097	74 cb		 je	 SHORT $LN15@netSendSaf
$LN6@netSendSaf:

; 1257 : 			return Py_BuildException();
; 1258 : 		break;
; 1259 : 	default:
; 1260 : 		break;
; 1261 : 	}
; 1262 : 
; 1263 : 	CPythonNetworkStream& rns=CPythonNetworkStream::Instance();
; 1264 : 	rns.SendSafeBoxCheckoutPacket(iSafeBoxPos, InventoryPos);

  00099	66 8b 45 fc	 mov	 ax, WORD PTR _InventoryPos$[ebp]
  0009d	51		 push	 ecx
  0009e	8b cc		 mov	 ecx, esp
  000a0	ff 75 f8	 push	 DWORD PTR _iSafeBoxPos$[ebp]
  000a3	66 89 01	 mov	 WORD PTR [ecx], ax
  000a6	8a 45 fe	 mov	 al, BYTE PTR _InventoryPos$[ebp+2]
  000a9	88 41 02	 mov	 BYTE PTR [ecx+2], al
  000ac	8b 0d 00 00 00
	00		 mov	 ecx, DWORD PTR ?ms_singleton@?$CSingleton@VCPythonNetworkStream@@@@0PAVCPythonNetworkStream@@A ; CSingleton<CPythonNetworkStream>::ms_singleton
  000b2	e8 00 00 00 00	 call	 ?SendSafeBoxCheckoutPacket@CPythonNetworkStream@@QAE_NEUSItemPos@@@Z ; CPythonNetworkStream::SendSafeBoxCheckoutPacket

; 1265 : 
; 1266 : 	return Py_BuildNone();

  000b7	e8 00 00 00 00	 call	 ?Py_BuildNone@@YAPAU_object@@XZ ; Py_BuildNone

; 1267 : }

  000bc	5e		 pop	 esi
  000bd	8b e5		 mov	 esp, ebp
  000bf	5d		 pop	 ebp
  000c0	c3		 ret	 0
?netSendSafeboxCheckoutPacket@@YAPAU_object@@PAU1@0@Z ENDP ; netSendSafeboxCheckoutPacket
_TEXT	ENDS
; Function compile flags: /Ogtp
; File D:\Metin2 Server Files\mainline\SRC_2014\Metin2Client\UserInterface\PythonNetworkStreamModule.cpp
; File D:\Metin2 Server Files\mainline\SRC_2014\Metin2Client\UserInterface\GameType.h
; File D:\Metin2 Server Files\mainline\SRC_2014\Metin2Client\UserInterface\PythonNetworkStreamModule.cpp
; File D:\Metin2 Server Files\mainline\SRC_2014\Metin2Client\UserInterface\GameType.h
; File D:\Metin2 Server Files\mainline\SRC_2014\Metin2Client\UserInterface\PythonNetworkStreamModule.cpp
;	COMDAT ?netSendSafeboxCheckinPacket@@YAPAU_object@@PAU1@0@Z
_TEXT	SEGMENT
_iSafeBoxPos$ = -8					; size = 4
_InventoryPos$ = -4					; size = 3
_poSelf$ = 8						; size = 4
_poArgs$ = 12						; size = 4
?netSendSafeboxCheckinPacket@@YAPAU_object@@PAU1@0@Z PROC ; netSendSafeboxCheckinPacket, COMDAT

; 1208 : {

  00000	55		 push	 ebp
  00001	8b ec		 mov	 ebp, esp
  00003	83 ec 08	 sub	 esp, 8
  00006	56		 push	 esi

; 1212 : 	switch (PyTuple_Size(poArgs))

  00007	8b 75 0c	 mov	 esi, DWORD PTR _poArgs$[ebp]
; File D:\Metin2 Server Files\mainline\SRC_2014\Metin2Client\UserInterface\GameType.h

; 187  : 		cell = WORD_MAX;

  0000a	b8 ff ff 00 00	 mov	 eax, 65535		; 0000ffffH
; File D:\Metin2 Server Files\mainline\SRC_2014\Metin2Client\UserInterface\PythonNetworkStreamModule.cpp

; 1212 : 	switch (PyTuple_Size(poArgs))

  0000f	56		 push	 esi
; File D:\Metin2 Server Files\mainline\SRC_2014\Metin2Client\UserInterface\GameType.h

; 186  : 		window_type =     INVENTORY;

  00010	c6 45 fc 01	 mov	 BYTE PTR _InventoryPos$[ebp], 1

; 187  : 		cell = WORD_MAX;

  00014	66 89 45 fd	 mov	 WORD PTR _InventoryPos$[ebp+1], ax
; File D:\Metin2 Server Files\mainline\SRC_2014\Metin2Client\UserInterface\PythonNetworkStreamModule.cpp

; 1212 : 	switch (PyTuple_Size(poArgs))

  00018	ff 15 00 00 00
	00		 call	 DWORD PTR __imp__PyTuple_Size
  0001e	83 c4 04	 add	 esp, 4
  00021	83 e8 02	 sub	 eax, 2
  00024	74 4d		 je	 SHORT $LN4@netSendSaf
  00026	83 e8 01	 sub	 eax, 1
  00029	75 6e		 jne	 SHORT $LN6@netSendSaf

; 1219 : 			return Py_BuildException();
; 1220 : 		break;
; 1221 : 	case 3:
; 1222 : 		if (!PyTuple_GetInteger(poArgs, 0, &InventoryPos.window_type))

  0002b	8d 45 fc	 lea	 eax, DWORD PTR _InventoryPos$[ebp]
  0002e	50		 push	 eax
  0002f	6a 00		 push	 0
  00031	56		 push	 esi
  00032	e8 00 00 00 00	 call	 ?PyTuple_GetInteger@@YA_NPAU_object@@HPAE@Z ; PyTuple_GetInteger
  00037	83 c4 0c	 add	 esp, 12			; 0000000cH
  0003a	84 c0		 test	 al, al
  0003c	74 26		 je	 SHORT $LN14@netSendSaf

; 1223 : 			return Py_BuildException();
; 1224 : 		if (!PyTuple_GetInteger(poArgs, 1, &InventoryPos.cell))

  0003e	8d 45 fd	 lea	 eax, DWORD PTR _InventoryPos$[ebp+1]
  00041	50		 push	 eax
  00042	6a 01		 push	 1
  00044	56		 push	 esi
  00045	e8 00 00 00 00	 call	 ?PyTuple_GetInteger@@YA_NPAU_object@@HPAG@Z ; PyTuple_GetInteger
  0004a	83 c4 0c	 add	 esp, 12			; 0000000cH
  0004d	84 c0		 test	 al, al
  0004f	74 13		 je	 SHORT $LN14@netSendSaf

; 1225 : 			return Py_BuildException();
; 1226 : 		if (!PyTuple_GetInteger(poArgs, 2, &iSafeBoxPos))

  00051	8d 45 f8	 lea	 eax, DWORD PTR _iSafeBoxPos$[ebp]
  00054	50		 push	 eax
  00055	6a 02		 push	 2
  00057	56		 push	 esi
  00058	e8 00 00 00 00	 call	 ?PyTuple_GetInteger@@YA_NPAU_object@@HPAH@Z ; PyTuple_GetInteger
  0005d	83 c4 0c	 add	 esp, 12			; 0000000cH
  00060	84 c0		 test	 al, al
  00062	75 35		 jne	 SHORT $LN6@netSendSaf
$LN14@netSendSaf:

; 1236 : }

  00064	6a 00		 push	 0
  00066	e8 00 00 00 00	 call	 ?Py_BuildException@@YAPAU_object@@PBDZZ ; Py_BuildException
  0006b	83 c4 04	 add	 esp, 4
  0006e	5e		 pop	 esi
  0006f	8b e5		 mov	 esp, ebp
  00071	5d		 pop	 ebp
  00072	c3		 ret	 0
$LN4@netSendSaf:

; 1213 : 	{
; 1214 : 	case 2:
; 1215 : 		InventoryPos.window_type = INVENTORY;
; 1216 : 		if (!PyTuple_GetInteger(poArgs, 0, &InventoryPos.cell))

  00073	8d 45 fd	 lea	 eax, DWORD PTR _InventoryPos$[ebp+1]
  00076	50		 push	 eax
  00077	6a 00		 push	 0
  00079	56		 push	 esi
  0007a	e8 00 00 00 00	 call	 ?PyTuple_GetInteger@@YA_NPAU_object@@HPAG@Z ; PyTuple_GetInteger
  0007f	83 c4 0c	 add	 esp, 12			; 0000000cH
  00082	84 c0		 test	 al, al
  00084	74 de		 je	 SHORT $LN14@netSendSaf

; 1217 : 			return Py_BuildException();
; 1218 : 		if (!PyTuple_GetInteger(poArgs, 1, &iSafeBoxPos))

  00086	8d 45 f8	 lea	 eax, DWORD PTR _iSafeBoxPos$[ebp]
  00089	50		 push	 eax
  0008a	6a 01		 push	 1
  0008c	56		 push	 esi
  0008d	e8 00 00 00 00	 call	 ?PyTuple_GetInteger@@YA_NPAU_object@@HPAH@Z ; PyTuple_GetInteger
  00092	83 c4 0c	 add	 esp, 12			; 0000000cH
  00095	84 c0		 test	 al, al
  00097	74 cb		 je	 SHORT $LN14@netSendSaf
$LN6@netSendSaf:

; 1227 : 			return Py_BuildException();
; 1228 : 		break;
; 1229 : 
; 1230 : 	}
; 1231 : 
; 1232 : 	CPythonNetworkStream& rns=CPythonNetworkStream::Instance();
; 1233 : 	rns.SendSafeBoxCheckinPacket(InventoryPos, iSafeBoxPos);

  00099	ff 75 f8	 push	 DWORD PTR _iSafeBoxPos$[ebp]
  0009c	66 8b 45 fc	 mov	 ax, WORD PTR _InventoryPos$[ebp]
  000a0	51		 push	 ecx
  000a1	8b cc		 mov	 ecx, esp
  000a3	66 89 01	 mov	 WORD PTR [ecx], ax
  000a6	8a 45 fe	 mov	 al, BYTE PTR _InventoryPos$[ebp+2]
  000a9	88 41 02	 mov	 BYTE PTR [ecx+2], al
  000ac	8b 0d 00 00 00
	00		 mov	 ecx, DWORD PTR ?ms_singleton@?$CSingleton@VCPythonNetworkStream@@@@0PAVCPythonNetworkStream@@A ; CSingleton<CPythonNetworkStream>::ms_singleton
  000b2	e8 00 00 00 00	 call	 ?SendSafeBoxCheckinPacket@CPythonNetworkStream@@QAE_NUSItemPos@@E@Z ; CPythonNetworkStream::SendSafeBoxCheckinPacket

; 1234 : 
; 1235 : 	return Py_BuildNone();

  000b7	e8 00 00 00 00	 call	 ?Py_BuildNone@@YAPAU_object@@XZ ; Py_BuildNone

; 1236 : }

  000bc	5e		 pop	 esi
  000bd	8b e5		 mov	 esp, ebp
  000bf	5d		 pop	 ebp
  000c0	c3		 ret	 0
?netSendSafeboxCheckinPacket@@YAPAU_object@@PAU1@0@Z ENDP ; netSendSafeboxCheckinPacket
_TEXT	ENDS
; Function compile flags: /Ogtp
; File D:\Metin2 Server Files\mainline\SRC_2014\Metin2Client\UserInterface\PythonNetworkStreamModule.cpp
;	COMDAT ?netSendSafeboxWithdrawMoneyPacket@@YAPAU_object@@PAU1@0@Z
_TEXT	SEGMENT
_iMoney$ = -4						; size = 4
_poSelf$ = 8						; size = 4
_poArgs$ = 12						; size = 4
?netSendSafeboxWithdrawMoneyPacket@@YAPAU_object@@PAU1@0@Z PROC ; netSendSafeboxWithdrawMoneyPacket, COMDAT

; 1196 : {

  00000	55		 push	 ebp
  00001	8b ec		 mov	 ebp, esp
  00003	51		 push	 ecx

; 1197 : 	int iMoney;
; 1198 : 	if (!PyTuple_GetInteger(poArgs, 0, &iMoney))

  00004	8d 45 fc	 lea	 eax, DWORD PTR _iMoney$[ebp]
  00007	50		 push	 eax
  00008	6a 00		 push	 0
  0000a	ff 75 0c	 push	 DWORD PTR _poArgs$[ebp]
  0000d	e8 00 00 00 00	 call	 ?PyTuple_GetInteger@@YA_NPAU_object@@HPAH@Z ; PyTuple_GetInteger
  00012	83 c4 0c	 add	 esp, 12			; 0000000cH
  00015	84 c0		 test	 al, al
  00017	75 0e		 jne	 SHORT $LN2@netSendSaf

; 1199 : 		return Py_BuildException();

  00019	6a 00		 push	 0
  0001b	e8 00 00 00 00	 call	 ?Py_BuildException@@YAPAU_object@@PBDZZ ; Py_BuildException
  00020	83 c4 04	 add	 esp, 4

; 1205 : }

  00023	8b e5		 mov	 esp, ebp
  00025	5d		 pop	 ebp
  00026	c3		 ret	 0
$LN2@netSendSaf:

; 1200 : 
; 1201 : 	CPythonNetworkStream& rns=CPythonNetworkStream::Instance();
; 1202 : 	rns.SendSafeBoxMoneyPacket(SAFEBOX_MONEY_STATE_WITHDRAW, iMoney);

  00027	ff 75 fc	 push	 DWORD PTR _iMoney$[ebp]
  0002a	8b 0d 00 00 00
	00		 mov	 ecx, DWORD PTR ?ms_singleton@?$CSingleton@VCPythonNetworkStream@@@@0PAVCPythonNetworkStream@@A ; CSingleton<CPythonNetworkStream>::ms_singleton
  00030	6a 01		 push	 1
  00032	e8 00 00 00 00	 call	 ?SendSafeBoxMoneyPacket@CPythonNetworkStream@@QAE_NEK@Z ; CPythonNetworkStream::SendSafeBoxMoneyPacket

; 1203 : 
; 1204 : 	return Py_BuildNone();

  00037	e8 00 00 00 00	 call	 ?Py_BuildNone@@YAPAU_object@@XZ ; Py_BuildNone

; 1205 : }

  0003c	8b e5		 mov	 esp, ebp
  0003e	5d		 pop	 ebp
  0003f	c3		 ret	 0
?netSendSafeboxWithdrawMoneyPacket@@YAPAU_object@@PAU1@0@Z ENDP ; netSendSafeboxWithdrawMoneyPacket
_TEXT	ENDS
; Function compile flags: /Ogtp
; File D:\Metin2 Server Files\mainline\SRC_2014\Metin2Client\UserInterface\PythonNetworkStreamModule.cpp
;	COMDAT ?netSendSafeboxSaveMoneyPacket@@YAPAU_object@@PAU1@0@Z
_TEXT	SEGMENT
_iMoney$ = -4						; size = 4
_poSelf$ = 8						; size = 4
_poArgs$ = 12						; size = 4
?netSendSafeboxSaveMoneyPacket@@YAPAU_object@@PAU1@0@Z PROC ; netSendSafeboxSaveMoneyPacket, COMDAT

; 1184 : {

  00000	55		 push	 ebp
  00001	8b ec		 mov	 ebp, esp
  00003	51		 push	 ecx

; 1185 : 	int iMoney;
; 1186 : 	if (!PyTuple_GetInteger(poArgs, 0, &iMoney))

  00004	8d 45 fc	 lea	 eax, DWORD PTR _iMoney$[ebp]
  00007	50		 push	 eax
  00008	6a 00		 push	 0
  0000a	ff 75 0c	 push	 DWORD PTR _poArgs$[ebp]
  0000d	e8 00 00 00 00	 call	 ?PyTuple_GetInteger@@YA_NPAU_object@@HPAH@Z ; PyTuple_GetInteger
  00012	83 c4 0c	 add	 esp, 12			; 0000000cH
  00015	84 c0		 test	 al, al
  00017	75 0e		 jne	 SHORT $LN2@netSendSaf

; 1187 : 		return Py_BuildException();

  00019	6a 00		 push	 0
  0001b	e8 00 00 00 00	 call	 ?Py_BuildException@@YAPAU_object@@PBDZZ ; Py_BuildException
  00020	83 c4 04	 add	 esp, 4

; 1193 : }

  00023	8b e5		 mov	 esp, ebp
  00025	5d		 pop	 ebp
  00026	c3		 ret	 0
$LN2@netSendSaf:

; 1188 : 
; 1189 : 	CPythonNetworkStream& rns=CPythonNetworkStream::Instance();
; 1190 : 	rns.SendSafeBoxMoneyPacket(SAFEBOX_MONEY_STATE_SAVE, iMoney);

  00027	ff 75 fc	 push	 DWORD PTR _iMoney$[ebp]
  0002a	8b 0d 00 00 00
	00		 mov	 ecx, DWORD PTR ?ms_singleton@?$CSingleton@VCPythonNetworkStream@@@@0PAVCPythonNetworkStream@@A ; CSingleton<CPythonNetworkStream>::ms_singleton
  00030	6a 00		 push	 0
  00032	e8 00 00 00 00	 call	 ?SendSafeBoxMoneyPacket@CPythonNetworkStream@@QAE_NEK@Z ; CPythonNetworkStream::SendSafeBoxMoneyPacket

; 1191 : 
; 1192 : 	return Py_BuildNone();

  00037	e8 00 00 00 00	 call	 ?Py_BuildNone@@YAPAU_object@@XZ ; Py_BuildNone

; 1193 : }

  0003c	8b e5		 mov	 esp, ebp
  0003e	5d		 pop	 ebp
  0003f	c3		 ret	 0
?netSendSafeboxSaveMoneyPacket@@YAPAU_object@@PAU1@0@Z ENDP ; netSendSafeboxSaveMoneyPacket
_TEXT	ENDS
; Function compile flags: /Ogtp
; File D:\Metin2 Server Files\mainline\SRC_2014\Metin2Client\UserInterface\PythonNetworkStreamModule.cpp
;	COMDAT ?netSendPartyParameterPacket@@YAPAU_object@@PAU1@0@Z
_TEXT	SEGMENT
_iMode$ = -4						; size = 4
_poSelf$ = 8						; size = 4
_poArgs$ = 12						; size = 4
?netSendPartyParameterPacket@@YAPAU_object@@PAU1@0@Z PROC ; netSendPartyParameterPacket, COMDAT

; 1172 : {

  00000	55		 push	 ebp
  00001	8b ec		 mov	 ebp, esp
  00003	51		 push	 ecx

; 1173 : 	int iMode;
; 1174 : 	if (!PyTuple_GetInteger(poArgs, 0, &iMode))

  00004	8d 45 fc	 lea	 eax, DWORD PTR _iMode$[ebp]
  00007	50		 push	 eax
  00008	6a 00		 push	 0
  0000a	ff 75 0c	 push	 DWORD PTR _poArgs$[ebp]
  0000d	e8 00 00 00 00	 call	 ?PyTuple_GetInteger@@YA_NPAU_object@@HPAH@Z ; PyTuple_GetInteger
  00012	83 c4 0c	 add	 esp, 12			; 0000000cH
  00015	84 c0		 test	 al, al
  00017	75 0e		 jne	 SHORT $LN2@netSendPar

; 1175 : 		return Py_BuildException();

  00019	6a 00		 push	 0
  0001b	e8 00 00 00 00	 call	 ?Py_BuildException@@YAPAU_object@@PBDZZ ; Py_BuildException
  00020	83 c4 04	 add	 esp, 4

; 1181 : }

  00023	8b e5		 mov	 esp, ebp
  00025	5d		 pop	 ebp
  00026	c3		 ret	 0
$LN2@netSendPar:

; 1176 : 
; 1177 : 	CPythonNetworkStream& rns=CPythonNetworkStream::Instance();
; 1178 : 	rns.SendPartyParameterPacket(iMode);

  00027	ff 75 fc	 push	 DWORD PTR _iMode$[ebp]
  0002a	8b 0d 00 00 00
	00		 mov	 ecx, DWORD PTR ?ms_singleton@?$CSingleton@VCPythonNetworkStream@@@@0PAVCPythonNetworkStream@@A ; CSingleton<CPythonNetworkStream>::ms_singleton
  00030	e8 00 00 00 00	 call	 ?SendPartyParameterPacket@CPythonNetworkStream@@QAE_NE@Z ; CPythonNetworkStream::SendPartyParameterPacket

; 1179 : 
; 1180 : 	return Py_BuildNone();

  00035	e8 00 00 00 00	 call	 ?Py_BuildNone@@YAPAU_object@@XZ ; Py_BuildNone

; 1181 : }

  0003a	8b e5		 mov	 esp, ebp
  0003c	5d		 pop	 ebp
  0003d	c3		 ret	 0
?netSendPartyParameterPacket@@YAPAU_object@@PAU1@0@Z ENDP ; netSendPartyParameterPacket
_TEXT	ENDS
; Function compile flags: /Ogtp
; File D:\Metin2 Server Files\mainline\SRC_2014\Metin2Client\UserInterface\PythonNetworkStreamModule.cpp
;	COMDAT ?netSendPartyUseSkillPacket@@YAPAU_object@@PAU1@0@Z
_TEXT	SEGMENT
_iSkillIndex$ = -8					; size = 4
_iVID$ = -4						; size = 4
_poSelf$ = 8						; size = 4
_poArgs$ = 12						; size = 4
?netSendPartyUseSkillPacket@@YAPAU_object@@PAU1@0@Z PROC ; netSendPartyUseSkillPacket, COMDAT

; 1157 : {

  00000	55		 push	 ebp
  00001	8b ec		 mov	 ebp, esp
  00003	83 ec 08	 sub	 esp, 8

; 1158 : 	int iSkillIndex;
; 1159 : 	if (!PyTuple_GetInteger(poArgs, 0, &iSkillIndex))

  00006	8d 45 f8	 lea	 eax, DWORD PTR _iSkillIndex$[ebp]
  00009	50		 push	 eax
  0000a	6a 00		 push	 0
  0000c	ff 75 0c	 push	 DWORD PTR _poArgs$[ebp]
  0000f	e8 00 00 00 00	 call	 ?PyTuple_GetInteger@@YA_NPAU_object@@HPAH@Z ; PyTuple_GetInteger
  00014	83 c4 0c	 add	 esp, 12			; 0000000cH
  00017	84 c0		 test	 al, al
  00019	75 0e		 jne	 SHORT $LN2@netSendPar
$LN5@netSendPar:

; 1169 : }

  0001b	6a 00		 push	 0
  0001d	e8 00 00 00 00	 call	 ?Py_BuildException@@YAPAU_object@@PBDZZ ; Py_BuildException
  00022	83 c4 04	 add	 esp, 4
  00025	8b e5		 mov	 esp, ebp
  00027	5d		 pop	 ebp
  00028	c3		 ret	 0
$LN2@netSendPar:

; 1160 : 		return Py_BuildException();
; 1161 : 	int iVID;
; 1162 : 	if (!PyTuple_GetInteger(poArgs, 1, &iVID))

  00029	8d 45 fc	 lea	 eax, DWORD PTR _iVID$[ebp]
  0002c	50		 push	 eax
  0002d	6a 01		 push	 1
  0002f	ff 75 0c	 push	 DWORD PTR _poArgs$[ebp]
  00032	e8 00 00 00 00	 call	 ?PyTuple_GetInteger@@YA_NPAU_object@@HPAH@Z ; PyTuple_GetInteger
  00037	83 c4 0c	 add	 esp, 12			; 0000000cH
  0003a	84 c0		 test	 al, al
  0003c	74 dd		 je	 SHORT $LN5@netSendPar

; 1163 : 		return Py_BuildException();
; 1164 : 
; 1165 : 	CPythonNetworkStream& rns=CPythonNetworkStream::Instance();
; 1166 : 	rns.SendPartyUseSkillPacket(iSkillIndex, iVID);

  0003e	ff 75 fc	 push	 DWORD PTR _iVID$[ebp]
  00041	8b 0d 00 00 00
	00		 mov	 ecx, DWORD PTR ?ms_singleton@?$CSingleton@VCPythonNetworkStream@@@@0PAVCPythonNetworkStream@@A ; CSingleton<CPythonNetworkStream>::ms_singleton
  00047	ff 75 f8	 push	 DWORD PTR _iSkillIndex$[ebp]
  0004a	e8 00 00 00 00	 call	 ?SendPartyUseSkillPacket@CPythonNetworkStream@@QAE_NEK@Z ; CPythonNetworkStream::SendPartyUseSkillPacket

; 1167 : 
; 1168 : 	return Py_BuildNone();

  0004f	e8 00 00 00 00	 call	 ?Py_BuildNone@@YAPAU_object@@XZ ; Py_BuildNone

; 1169 : }

  00054	8b e5		 mov	 esp, ebp
  00056	5d		 pop	 ebp
  00057	c3		 ret	 0
?netSendPartyUseSkillPacket@@YAPAU_object@@PAU1@0@Z ENDP ; netSendPartyUseSkillPacket
_TEXT	ENDS
; Function compile flags: /Ogtp
; File D:\Metin2 Server Files\mainline\SRC_2014\Metin2Client\UserInterface\PythonNetworkStreamModule.cpp
;	COMDAT ?netSendPartySetStatePacket@@YAPAU_object@@PAU1@0@Z
_TEXT	SEGMENT
_iVID$ = -12						; size = 4
_iState$ = -8						; size = 4
_iFlag$ = -4						; size = 4
_poSelf$ = 8						; size = 4
_poArgs$ = 12						; size = 4
?netSendPartySetStatePacket@@YAPAU_object@@PAU1@0@Z PROC ; netSendPartySetStatePacket, COMDAT

; 1139 : {

  00000	55		 push	 ebp
  00001	8b ec		 mov	 ebp, esp
  00003	83 ec 0c	 sub	 esp, 12			; 0000000cH

; 1140 : 	int iVID;
; 1141 : 	if (!PyTuple_GetInteger(poArgs, 0, &iVID))

  00006	8d 45 f4	 lea	 eax, DWORD PTR _iVID$[ebp]
  00009	56		 push	 esi
  0000a	8b 75 0c	 mov	 esi, DWORD PTR _poArgs$[ebp]
  0000d	50		 push	 eax
  0000e	6a 00		 push	 0
  00010	56		 push	 esi
  00011	e8 00 00 00 00	 call	 ?PyTuple_GetInteger@@YA_NPAU_object@@HPAH@Z ; PyTuple_GetInteger
  00016	83 c4 0c	 add	 esp, 12			; 0000000cH
  00019	84 c0		 test	 al, al
  0001b	75 0f		 jne	 SHORT $LN2@netSendPar
$LN6@netSendPar:

; 1154 : }

  0001d	6a 00		 push	 0
  0001f	e8 00 00 00 00	 call	 ?Py_BuildException@@YAPAU_object@@PBDZZ ; Py_BuildException
  00024	83 c4 04	 add	 esp, 4
  00027	5e		 pop	 esi
  00028	8b e5		 mov	 esp, ebp
  0002a	5d		 pop	 ebp
  0002b	c3		 ret	 0
$LN2@netSendPar:

; 1142 : 		return Py_BuildException();
; 1143 : 	int iState;
; 1144 : 	if (!PyTuple_GetInteger(poArgs, 1, &iState))

  0002c	8d 45 f8	 lea	 eax, DWORD PTR _iState$[ebp]
  0002f	50		 push	 eax
  00030	6a 01		 push	 1
  00032	56		 push	 esi
  00033	e8 00 00 00 00	 call	 ?PyTuple_GetInteger@@YA_NPAU_object@@HPAH@Z ; PyTuple_GetInteger
  00038	83 c4 0c	 add	 esp, 12			; 0000000cH
  0003b	84 c0		 test	 al, al
  0003d	74 de		 je	 SHORT $LN6@netSendPar

; 1145 : 		return Py_BuildException();
; 1146 : 	int iFlag;
; 1147 : 	if (!PyTuple_GetInteger(poArgs, 2, &iFlag))

  0003f	8d 45 fc	 lea	 eax, DWORD PTR _iFlag$[ebp]
  00042	50		 push	 eax
  00043	6a 02		 push	 2
  00045	56		 push	 esi
  00046	e8 00 00 00 00	 call	 ?PyTuple_GetInteger@@YA_NPAU_object@@HPAH@Z ; PyTuple_GetInteger
  0004b	83 c4 0c	 add	 esp, 12			; 0000000cH
  0004e	84 c0		 test	 al, al
  00050	74 cb		 je	 SHORT $LN6@netSendPar

; 1148 : 		return Py_BuildException();
; 1149 : 
; 1150 : 	CPythonNetworkStream& rns=CPythonNetworkStream::Instance();
; 1151 : 	rns.SendPartySetStatePacket(iVID, iState, iFlag);

  00052	ff 75 fc	 push	 DWORD PTR _iFlag$[ebp]
  00055	8b 0d 00 00 00
	00		 mov	 ecx, DWORD PTR ?ms_singleton@?$CSingleton@VCPythonNetworkStream@@@@0PAVCPythonNetworkStream@@A ; CSingleton<CPythonNetworkStream>::ms_singleton
  0005b	ff 75 f8	 push	 DWORD PTR _iState$[ebp]
  0005e	ff 75 f4	 push	 DWORD PTR _iVID$[ebp]
  00061	e8 00 00 00 00	 call	 ?SendPartySetStatePacket@CPythonNetworkStream@@QAE_NKEE@Z ; CPythonNetworkStream::SendPartySetStatePacket

; 1152 : 
; 1153 : 	return Py_BuildNone();

  00066	e8 00 00 00 00	 call	 ?Py_BuildNone@@YAPAU_object@@XZ ; Py_BuildNone
  0006b	5e		 pop	 esi

; 1154 : }

  0006c	8b e5		 mov	 esp, ebp
  0006e	5d		 pop	 ebp
  0006f	c3		 ret	 0
?netSendPartySetStatePacket@@YAPAU_object@@PAU1@0@Z ENDP ; netSendPartySetStatePacket
_TEXT	ENDS
; Function compile flags: /Ogtp
; File D:\Metin2 Server Files\mainline\SRC_2014\Metin2Client\UserInterface\PythonNetworkStreamModule.cpp
;	COMDAT ?netSendPartyRemovePacket@@YAPAU_object@@PAU1@0@Z
_TEXT	SEGMENT
_vid$ = -4						; size = 4
_poSelf$ = 8						; size = 4
_poArgs$ = 12						; size = 4
?netSendPartyRemovePacket@@YAPAU_object@@PAU1@0@Z PROC	; netSendPartyRemovePacket, COMDAT

; 1127 : {

  00000	55		 push	 ebp
  00001	8b ec		 mov	 ebp, esp
  00003	51		 push	 ecx

; 1128 : 	int vid;
; 1129 : 	if (!PyTuple_GetInteger(poArgs, 0, &vid))

  00004	8d 45 fc	 lea	 eax, DWORD PTR _vid$[ebp]
  00007	50		 push	 eax
  00008	6a 00		 push	 0
  0000a	ff 75 0c	 push	 DWORD PTR _poArgs$[ebp]
  0000d	e8 00 00 00 00	 call	 ?PyTuple_GetInteger@@YA_NPAU_object@@HPAH@Z ; PyTuple_GetInteger
  00012	83 c4 0c	 add	 esp, 12			; 0000000cH
  00015	84 c0		 test	 al, al
  00017	75 0e		 jne	 SHORT $LN2@netSendPar

; 1130 : 		return Py_BuildException();

  00019	6a 00		 push	 0
  0001b	e8 00 00 00 00	 call	 ?Py_BuildException@@YAPAU_object@@PBDZZ ; Py_BuildException
  00020	83 c4 04	 add	 esp, 4

; 1136 : }

  00023	8b e5		 mov	 esp, ebp
  00025	5d		 pop	 ebp
  00026	c3		 ret	 0
$LN2@netSendPar:

; 1131 : 
; 1132 : 	CPythonNetworkStream& rns=CPythonNetworkStream::Instance();
; 1133 : 	rns.SendPartyRemovePacket(vid);

  00027	ff 75 fc	 push	 DWORD PTR _vid$[ebp]
  0002a	8b 0d 00 00 00
	00		 mov	 ecx, DWORD PTR ?ms_singleton@?$CSingleton@VCPythonNetworkStream@@@@0PAVCPythonNetworkStream@@A ; CSingleton<CPythonNetworkStream>::ms_singleton
  00030	e8 00 00 00 00	 call	 ?SendPartyRemovePacket@CPythonNetworkStream@@QAE_NK@Z ; CPythonNetworkStream::SendPartyRemovePacket

; 1134 : 
; 1135 : 	return Py_BuildNone();

  00035	e8 00 00 00 00	 call	 ?Py_BuildNone@@YAPAU_object@@XZ ; Py_BuildNone

; 1136 : }

  0003a	8b e5		 mov	 esp, ebp
  0003c	5d		 pop	 ebp
  0003d	c3		 ret	 0
?netSendPartyRemovePacket@@YAPAU_object@@PAU1@0@Z ENDP	; netSendPartyRemovePacket
_TEXT	ENDS
; Function compile flags: /Ogtp
; File D:\Metin2 Server Files\mainline\SRC_2014\Metin2Client\UserInterface\PythonNetworkStreamModule.cpp
;	COMDAT ?netSendPartyExitPacket@@YAPAU_object@@PAU1@0@Z
_TEXT	SEGMENT
_dwPID$ = -4						; size = 4
_poSelf$ = 8						; size = 4
_poArgs$ = 12						; size = 4
?netSendPartyExitPacket@@YAPAU_object@@PAU1@0@Z PROC	; netSendPartyExitPacket, COMDAT

; 1113 : {

  00000	55		 push	 ebp
  00001	8b ec		 mov	 ebp, esp
  00003	51		 push	 ecx
  00004	56		 push	 esi

; 1114 : 	IAbstractPlayer& rPlayer=IAbstractPlayer::GetSingleton();

  00005	8b 35 00 00 00
	00		 mov	 esi, DWORD PTR ?ms_singleton@?$TAbstractSingleton@VIAbstractPlayer@@@@0PAVIAbstractPlayer@@A ; TAbstractSingleton<IAbstractPlayer>::ms_singleton

; 1115 : 
; 1116 : 	CPythonNetworkStream& rns=CPythonNetworkStream::Instance();
; 1117 : 
; 1118 : 	DWORD dwVID = rPlayer.GetMainCharacterIndex();

  0000b	8b ce		 mov	 ecx, esi
  0000d	57		 push	 edi
  0000e	8b 3d 00 00 00
	00		 mov	 edi, DWORD PTR ?ms_singleton@?$CSingleton@VCPythonNetworkStream@@@@0PAVCPythonNetworkStream@@A ; CSingleton<CPythonNetworkStream>::ms_singleton
  00014	8b 06		 mov	 eax, DWORD PTR [esi]
  00016	ff 50 04	 call	 DWORD PTR [eax+4]

; 1119 : 	DWORD dwPID;
; 1120 : 	if (rPlayer.PartyMemberVIDToPID(dwVID, &dwPID))

  00019	8b 16		 mov	 edx, DWORD PTR [esi]
  0001b	8d 4d fc	 lea	 ecx, DWORD PTR _dwPID$[ebp]
  0001e	51		 push	 ecx
  0001f	50		 push	 eax
  00020	8b ce		 mov	 ecx, esi
  00022	8b 42 28	 mov	 eax, DWORD PTR [edx+40]
  00025	ff d0		 call	 eax
  00027	84 c0		 test	 al, al
  00029	74 0a		 je	 SHORT $LN2@netSendPar

; 1121 : 		rns.SendPartyRemovePacket(dwPID);

  0002b	ff 75 fc	 push	 DWORD PTR _dwPID$[ebp]
  0002e	8b cf		 mov	 ecx, edi
  00030	e8 00 00 00 00	 call	 ?SendPartyRemovePacket@CPythonNetworkStream@@QAE_NK@Z ; CPythonNetworkStream::SendPartyRemovePacket
$LN2@netSendPar:

; 1122 : 
; 1123 : 	return Py_BuildNone();

  00035	e8 00 00 00 00	 call	 ?Py_BuildNone@@YAPAU_object@@XZ ; Py_BuildNone
  0003a	5f		 pop	 edi
  0003b	5e		 pop	 esi

; 1124 : }

  0003c	8b e5		 mov	 esp, ebp
  0003e	5d		 pop	 ebp
  0003f	c3		 ret	 0
?netSendPartyExitPacket@@YAPAU_object@@PAU1@0@Z ENDP	; netSendPartyExitPacket
_TEXT	ENDS
; Function compile flags: /Ogtp
; File D:\Metin2 Server Files\mainline\SRC_2014\Metin2Client\UserInterface\PythonNetworkStreamModule.cpp
;	COMDAT ?netSendPartyInviteAnswerPacket@@YAPAU_object@@PAU1@0@Z
_TEXT	SEGMENT
_vid$ = -8						; size = 4
_answer$ = -4						; size = 4
_poSelf$ = 8						; size = 4
_poArgs$ = 12						; size = 4
?netSendPartyInviteAnswerPacket@@YAPAU_object@@PAU1@0@Z PROC ; netSendPartyInviteAnswerPacket, COMDAT

; 1098 : {

  00000	55		 push	 ebp
  00001	8b ec		 mov	 ebp, esp
  00003	83 ec 08	 sub	 esp, 8

; 1099 : 	int vid;
; 1100 : 	if (!PyTuple_GetInteger(poArgs, 0, &vid))

  00006	8d 45 f8	 lea	 eax, DWORD PTR _vid$[ebp]
  00009	50		 push	 eax
  0000a	6a 00		 push	 0
  0000c	ff 75 0c	 push	 DWORD PTR _poArgs$[ebp]
  0000f	e8 00 00 00 00	 call	 ?PyTuple_GetInteger@@YA_NPAU_object@@HPAH@Z ; PyTuple_GetInteger
  00014	83 c4 0c	 add	 esp, 12			; 0000000cH
  00017	84 c0		 test	 al, al
  00019	75 0e		 jne	 SHORT $LN2@netSendPar
$LN5@netSendPar:

; 1110 : }

  0001b	6a 00		 push	 0
  0001d	e8 00 00 00 00	 call	 ?Py_BuildException@@YAPAU_object@@PBDZZ ; Py_BuildException
  00022	83 c4 04	 add	 esp, 4
  00025	8b e5		 mov	 esp, ebp
  00027	5d		 pop	 ebp
  00028	c3		 ret	 0
$LN2@netSendPar:

; 1101 : 		return Py_BuildException();
; 1102 : 	int answer;
; 1103 : 	if (!PyTuple_GetInteger(poArgs, 1, &answer))

  00029	8d 45 fc	 lea	 eax, DWORD PTR _answer$[ebp]
  0002c	50		 push	 eax
  0002d	6a 01		 push	 1
  0002f	ff 75 0c	 push	 DWORD PTR _poArgs$[ebp]
  00032	e8 00 00 00 00	 call	 ?PyTuple_GetInteger@@YA_NPAU_object@@HPAH@Z ; PyTuple_GetInteger
  00037	83 c4 0c	 add	 esp, 12			; 0000000cH
  0003a	84 c0		 test	 al, al
  0003c	74 dd		 je	 SHORT $LN5@netSendPar

; 1104 : 		return Py_BuildException();
; 1105 : 
; 1106 : 	CPythonNetworkStream& rns=CPythonNetworkStream::Instance();
; 1107 : 	rns.SendPartyInviteAnswerPacket(vid, answer);

  0003e	ff 75 fc	 push	 DWORD PTR _answer$[ebp]
  00041	8b 0d 00 00 00
	00		 mov	 ecx, DWORD PTR ?ms_singleton@?$CSingleton@VCPythonNetworkStream@@@@0PAVCPythonNetworkStream@@A ; CSingleton<CPythonNetworkStream>::ms_singleton
  00047	ff 75 f8	 push	 DWORD PTR _vid$[ebp]
  0004a	e8 00 00 00 00	 call	 ?SendPartyInviteAnswerPacket@CPythonNetworkStream@@QAE_NKE@Z ; CPythonNetworkStream::SendPartyInviteAnswerPacket

; 1108 : 
; 1109 : 	return Py_BuildNone();

  0004f	e8 00 00 00 00	 call	 ?Py_BuildNone@@YAPAU_object@@XZ ; Py_BuildNone

; 1110 : }

  00054	8b e5		 mov	 esp, ebp
  00056	5d		 pop	 ebp
  00057	c3		 ret	 0
?netSendPartyInviteAnswerPacket@@YAPAU_object@@PAU1@0@Z ENDP ; netSendPartyInviteAnswerPacket
_TEXT	ENDS
; Function compile flags: /Ogtp
; File D:\Metin2 Server Files\mainline\SRC_2014\Metin2Client\UserInterface\PythonNetworkStreamModule.cpp
;	COMDAT ?netSendPartyInvitePacket@@YAPAU_object@@PAU1@0@Z
_TEXT	SEGMENT
_vid$ = -4						; size = 4
_poSelf$ = 8						; size = 4
_poArgs$ = 12						; size = 4
?netSendPartyInvitePacket@@YAPAU_object@@PAU1@0@Z PROC	; netSendPartyInvitePacket, COMDAT

; 1086 : {

  00000	55		 push	 ebp
  00001	8b ec		 mov	 ebp, esp
  00003	51		 push	 ecx

; 1087 : 	int vid;
; 1088 : 	if (!PyTuple_GetInteger(poArgs, 0, &vid))

  00004	8d 45 fc	 lea	 eax, DWORD PTR _vid$[ebp]
  00007	50		 push	 eax
  00008	6a 00		 push	 0
  0000a	ff 75 0c	 push	 DWORD PTR _poArgs$[ebp]
  0000d	e8 00 00 00 00	 call	 ?PyTuple_GetInteger@@YA_NPAU_object@@HPAH@Z ; PyTuple_GetInteger
  00012	83 c4 0c	 add	 esp, 12			; 0000000cH
  00015	84 c0		 test	 al, al
  00017	75 0e		 jne	 SHORT $LN2@netSendPar

; 1089 : 		return Py_BuildException();

  00019	6a 00		 push	 0
  0001b	e8 00 00 00 00	 call	 ?Py_BuildException@@YAPAU_object@@PBDZZ ; Py_BuildException
  00020	83 c4 04	 add	 esp, 4

; 1095 : }

  00023	8b e5		 mov	 esp, ebp
  00025	5d		 pop	 ebp
  00026	c3		 ret	 0
$LN2@netSendPar:

; 1090 : 
; 1091 : 	CPythonNetworkStream& rns=CPythonNetworkStream::Instance();
; 1092 : 	rns.SendPartyInvitePacket(vid);

  00027	ff 75 fc	 push	 DWORD PTR _vid$[ebp]
  0002a	8b 0d 00 00 00
	00		 mov	 ecx, DWORD PTR ?ms_singleton@?$CSingleton@VCPythonNetworkStream@@@@0PAVCPythonNetworkStream@@A ; CSingleton<CPythonNetworkStream>::ms_singleton
  00030	e8 00 00 00 00	 call	 ?SendPartyInvitePacket@CPythonNetworkStream@@QAE_NK@Z ; CPythonNetworkStream::SendPartyInvitePacket

; 1093 : 
; 1094 : 	return Py_BuildNone();

  00035	e8 00 00 00 00	 call	 ?Py_BuildNone@@YAPAU_object@@XZ ; Py_BuildNone

; 1095 : }

  0003a	8b e5		 mov	 esp, ebp
  0003c	5d		 pop	 ebp
  0003d	c3		 ret	 0
?netSendPartyInvitePacket@@YAPAU_object@@PAU1@0@Z ENDP	; netSendPartyInvitePacket
_TEXT	ENDS
; Function compile flags: /Ogtp
; File D:\Metin2 Server Files\mainline\SRC_2014\Metin2Client\UserInterface\PythonNetworkStreamModule.cpp
;	COMDAT ?netSendMessengerRemovePacket@@YAPAU_object@@PAU1@0@Z
_TEXT	SEGMENT
_szKey$ = -8						; size = 4
_szName$ = -4						; size = 4
_poSelf$ = 8						; size = 4
_poArgs$ = 12						; size = 4
?netSendMessengerRemovePacket@@YAPAU_object@@PAU1@0@Z PROC ; netSendMessengerRemovePacket, COMDAT

; 1071 : {

  00000	55		 push	 ebp
  00001	8b ec		 mov	 ebp, esp
  00003	83 ec 08	 sub	 esp, 8

; 1072 : 	char * szKey;
; 1073 : 	if (!PyTuple_GetString(poArgs, 0, &szKey))

  00006	8d 45 f8	 lea	 eax, DWORD PTR _szKey$[ebp]
  00009	50		 push	 eax
  0000a	6a 00		 push	 0
  0000c	ff 75 0c	 push	 DWORD PTR _poArgs$[ebp]
  0000f	e8 00 00 00 00	 call	 ?PyTuple_GetString@@YA_NPAU_object@@HPAPAD@Z ; PyTuple_GetString
  00014	83 c4 0c	 add	 esp, 12			; 0000000cH
  00017	84 c0		 test	 al, al
  00019	75 0e		 jne	 SHORT $LN2@netSendMes
$LN5@netSendMes:

; 1083 : }

  0001b	6a 00		 push	 0
  0001d	e8 00 00 00 00	 call	 ?Py_BuildException@@YAPAU_object@@PBDZZ ; Py_BuildException
  00022	83 c4 04	 add	 esp, 4
  00025	8b e5		 mov	 esp, ebp
  00027	5d		 pop	 ebp
  00028	c3		 ret	 0
$LN2@netSendMes:

; 1074 : 		return Py_BuildException();
; 1075 : 	char * szName;
; 1076 : 	if (!PyTuple_GetString(poArgs, 1, &szName))

  00029	8d 45 fc	 lea	 eax, DWORD PTR _szName$[ebp]
  0002c	50		 push	 eax
  0002d	6a 01		 push	 1
  0002f	ff 75 0c	 push	 DWORD PTR _poArgs$[ebp]
  00032	e8 00 00 00 00	 call	 ?PyTuple_GetString@@YA_NPAU_object@@HPAPAD@Z ; PyTuple_GetString
  00037	83 c4 0c	 add	 esp, 12			; 0000000cH
  0003a	84 c0		 test	 al, al
  0003c	74 dd		 je	 SHORT $LN5@netSendMes

; 1077 : 		return Py_BuildException();
; 1078 : 
; 1079 : 	CPythonNetworkStream& rns=CPythonNetworkStream::Instance();
; 1080 : 	rns.SendMessengerRemovePacket(szKey, szName);

  0003e	ff 75 fc	 push	 DWORD PTR _szName$[ebp]
  00041	8b 0d 00 00 00
	00		 mov	 ecx, DWORD PTR ?ms_singleton@?$CSingleton@VCPythonNetworkStream@@@@0PAVCPythonNetworkStream@@A ; CSingleton<CPythonNetworkStream>::ms_singleton
  00047	ff 75 f8	 push	 DWORD PTR _szKey$[ebp]
  0004a	e8 00 00 00 00	 call	 ?SendMessengerRemovePacket@CPythonNetworkStream@@QAE_NPBD0@Z ; CPythonNetworkStream::SendMessengerRemovePacket

; 1081 : 	
; 1082 : 	return Py_BuildNone();

  0004f	e8 00 00 00 00	 call	 ?Py_BuildNone@@YAPAU_object@@XZ ; Py_BuildNone

; 1083 : }

  00054	8b e5		 mov	 esp, ebp
  00056	5d		 pop	 ebp
  00057	c3		 ret	 0
?netSendMessengerRemovePacket@@YAPAU_object@@PAU1@0@Z ENDP ; netSendMessengerRemovePacket
_TEXT	ENDS
; Function compile flags: /Ogtp
; File D:\Metin2 Server Files\mainline\SRC_2014\Metin2Client\UserInterface\PythonNetworkStreamModule.cpp
;	COMDAT ?netSendMessengerAddByNamePacket@@YAPAU_object@@PAU1@0@Z
_TEXT	SEGMENT
_szName$ = -4						; size = 4
_poSelf$ = 8						; size = 4
_poArgs$ = 12						; size = 4
?netSendMessengerAddByNamePacket@@YAPAU_object@@PAU1@0@Z PROC ; netSendMessengerAddByNamePacket, COMDAT

; 1059 : {

  00000	55		 push	 ebp
  00001	8b ec		 mov	 ebp, esp
  00003	51		 push	 ecx

; 1060 : 	char * szName;
; 1061 : 	if (!PyTuple_GetString(poArgs, 0, &szName))

  00004	8d 45 fc	 lea	 eax, DWORD PTR _szName$[ebp]
  00007	50		 push	 eax
  00008	6a 00		 push	 0
  0000a	ff 75 0c	 push	 DWORD PTR _poArgs$[ebp]
  0000d	e8 00 00 00 00	 call	 ?PyTuple_GetString@@YA_NPAU_object@@HPAPAD@Z ; PyTuple_GetString
  00012	83 c4 0c	 add	 esp, 12			; 0000000cH
  00015	84 c0		 test	 al, al
  00017	75 0e		 jne	 SHORT $LN2@netSendMes

; 1062 : 		return Py_BuildException();

  00019	6a 00		 push	 0
  0001b	e8 00 00 00 00	 call	 ?Py_BuildException@@YAPAU_object@@PBDZZ ; Py_BuildException
  00020	83 c4 04	 add	 esp, 4

; 1068 : }

  00023	8b e5		 mov	 esp, ebp
  00025	5d		 pop	 ebp
  00026	c3		 ret	 0
$LN2@netSendMes:

; 1063 : 
; 1064 : 	CPythonNetworkStream& rns=CPythonNetworkStream::Instance();
; 1065 : 	rns.SendMessengerAddByNamePacket(szName);

  00027	ff 75 fc	 push	 DWORD PTR _szName$[ebp]
  0002a	8b 0d 00 00 00
	00		 mov	 ecx, DWORD PTR ?ms_singleton@?$CSingleton@VCPythonNetworkStream@@@@0PAVCPythonNetworkStream@@A ; CSingleton<CPythonNetworkStream>::ms_singleton
  00030	e8 00 00 00 00	 call	 ?SendMessengerAddByNamePacket@CPythonNetworkStream@@QAE_NPBD@Z ; CPythonNetworkStream::SendMessengerAddByNamePacket

; 1066 : 	
; 1067 : 	return Py_BuildNone();

  00035	e8 00 00 00 00	 call	 ?Py_BuildNone@@YAPAU_object@@XZ ; Py_BuildNone

; 1068 : }

  0003a	8b e5		 mov	 esp, ebp
  0003c	5d		 pop	 ebp
  0003d	c3		 ret	 0
?netSendMessengerAddByNamePacket@@YAPAU_object@@PAU1@0@Z ENDP ; netSendMessengerAddByNamePacket
_TEXT	ENDS
; Function compile flags: /Ogtp
; File D:\Metin2 Server Files\mainline\SRC_2014\Metin2Client\UserInterface\PythonNetworkStreamModule.cpp
;	COMDAT ?netSendMessengerAddByVIDPacket@@YAPAU_object@@PAU1@0@Z
_TEXT	SEGMENT
_vid$ = -4						; size = 4
_poSelf$ = 8						; size = 4
_poArgs$ = 12						; size = 4
?netSendMessengerAddByVIDPacket@@YAPAU_object@@PAU1@0@Z PROC ; netSendMessengerAddByVIDPacket, COMDAT

; 1047 : {

  00000	55		 push	 ebp
  00001	8b ec		 mov	 ebp, esp
  00003	51		 push	 ecx

; 1048 : 	int vid;
; 1049 : 	if (!PyTuple_GetInteger(poArgs, 0, &vid))

  00004	8d 45 fc	 lea	 eax, DWORD PTR _vid$[ebp]
  00007	50		 push	 eax
  00008	6a 00		 push	 0
  0000a	ff 75 0c	 push	 DWORD PTR _poArgs$[ebp]
  0000d	e8 00 00 00 00	 call	 ?PyTuple_GetInteger@@YA_NPAU_object@@HPAH@Z ; PyTuple_GetInteger
  00012	83 c4 0c	 add	 esp, 12			; 0000000cH
  00015	84 c0		 test	 al, al
  00017	75 0e		 jne	 SHORT $LN2@netSendMes

; 1050 : 		return Py_BuildException();

  00019	6a 00		 push	 0
  0001b	e8 00 00 00 00	 call	 ?Py_BuildException@@YAPAU_object@@PBDZZ ; Py_BuildException
  00020	83 c4 04	 add	 esp, 4

; 1056 : }

  00023	8b e5		 mov	 esp, ebp
  00025	5d		 pop	 ebp
  00026	c3		 ret	 0
$LN2@netSendMes:

; 1051 : 
; 1052 : 	CPythonNetworkStream& rns=CPythonNetworkStream::Instance();
; 1053 : 	rns.SendMessengerAddByVIDPacket(vid);

  00027	ff 75 fc	 push	 DWORD PTR _vid$[ebp]
  0002a	8b 0d 00 00 00
	00		 mov	 ecx, DWORD PTR ?ms_singleton@?$CSingleton@VCPythonNetworkStream@@@@0PAVCPythonNetworkStream@@A ; CSingleton<CPythonNetworkStream>::ms_singleton
  00030	e8 00 00 00 00	 call	 ?SendMessengerAddByVIDPacket@CPythonNetworkStream@@QAE_NK@Z ; CPythonNetworkStream::SendMessengerAddByVIDPacket

; 1054 : 	
; 1055 : 	return Py_BuildNone();

  00035	e8 00 00 00 00	 call	 ?Py_BuildNone@@YAPAU_object@@XZ ; Py_BuildNone

; 1056 : }

  0003a	8b e5		 mov	 esp, ebp
  0003c	5d		 pop	 ebp
  0003d	c3		 ret	 0
?netSendMessengerAddByVIDPacket@@YAPAU_object@@PAU1@0@Z ENDP ; netSendMessengerAddByVIDPacket
_TEXT	ENDS
; Function compile flags: /Ogtp
; File D:\Metin2 Server Files\mainline\SRC_2014\Metin2Client\UserInterface\PythonNetworkStreamModule.cpp
;	COMDAT ?netRegisterEmoticonString@@YAPAU_object@@PAU1@0@Z
_TEXT	SEGMENT
_pcEmoticonString$ = -4					; size = 4
_poSelf$ = 8						; size = 4
_poArgs$ = 12						; size = 4
?netRegisterEmoticonString@@YAPAU_object@@PAU1@0@Z PROC	; netRegisterEmoticonString, COMDAT

; 1036 : {

  00000	55		 push	 ebp
  00001	8b ec		 mov	 ebp, esp
  00003	51		 push	 ecx

; 1037 : 	char * pcEmoticonString;
; 1038 : 	if (!PyTuple_GetString(poArgs, 0, &pcEmoticonString))

  00004	8d 45 fc	 lea	 eax, DWORD PTR _pcEmoticonString$[ebp]
  00007	50		 push	 eax
  00008	6a 00		 push	 0
  0000a	ff 75 0c	 push	 DWORD PTR _poArgs$[ebp]
  0000d	e8 00 00 00 00	 call	 ?PyTuple_GetString@@YA_NPAU_object@@HPAPAD@Z ; PyTuple_GetString
  00012	83 c4 0c	 add	 esp, 12			; 0000000cH
  00015	84 c0		 test	 al, al
  00017	75 0e		 jne	 SHORT $LN2@netRegiste

; 1039 : 		return Py_BuildException();

  00019	6a 00		 push	 0
  0001b	e8 00 00 00 00	 call	 ?Py_BuildException@@YAPAU_object@@PBDZZ ; Py_BuildException
  00020	83 c4 04	 add	 esp, 4

; 1044 : }

  00023	8b e5		 mov	 esp, ebp
  00025	5d		 pop	 ebp
  00026	c3		 ret	 0
$LN2@netRegiste:

; 1040 : 
; 1041 : 	CPythonNetworkStream& rkNetStream=CPythonNetworkStream::Instance();
; 1042 : 	rkNetStream.RegisterEmoticonString(pcEmoticonString);

  00027	ff 75 fc	 push	 DWORD PTR _pcEmoticonString$[ebp]
  0002a	8b 0d 00 00 00
	00		 mov	 ecx, DWORD PTR ?ms_singleton@?$CSingleton@VCPythonNetworkStream@@@@0PAVCPythonNetworkStream@@A ; CSingleton<CPythonNetworkStream>::ms_singleton
  00030	e8 00 00 00 00	 call	 ?RegisterEmoticonString@CPythonNetworkStream@@QAEXPBD@Z ; CPythonNetworkStream::RegisterEmoticonString

; 1043 : 	return Py_BuildNone();

  00035	e8 00 00 00 00	 call	 ?Py_BuildNone@@YAPAU_object@@XZ ; Py_BuildNone

; 1044 : }

  0003a	8b e5		 mov	 esp, ebp
  0003c	5d		 pop	 ebp
  0003d	c3		 ret	 0
?netRegisterEmoticonString@@YAPAU_object@@PAU1@0@Z ENDP	; netRegisterEmoticonString
_TEXT	ENDS
; Function compile flags: /Ogtp
; File D:\Metin2 Server Files\mainline\SRC_2014\Metin2Client\UserInterface\PythonNetworkStreamModule.cpp
;	COMDAT ?netToggleGameDebugInfo@@YAPAU_object@@PAU1@0@Z
_TEXT	SEGMENT
_poSelf$ = 8						; size = 4
_poArgs$ = 12						; size = 4
?netToggleGameDebugInfo@@YAPAU_object@@PAU1@0@Z PROC	; netToggleGameDebugInfo, COMDAT

; 1030 : 	CPythonNetworkStream& rkNetStream=CPythonNetworkStream::Instance();
; 1031 : 	rkNetStream.ToggleGameDebugInfo();

  00000	8b 0d 00 00 00
	00		 mov	 ecx, DWORD PTR ?ms_singleton@?$CSingleton@VCPythonNetworkStream@@@@0PAVCPythonNetworkStream@@A ; CSingleton<CPythonNetworkStream>::ms_singleton
  00006	e8 00 00 00 00	 call	 ?ToggleGameDebugInfo@CPythonNetworkStream@@QAEXXZ ; CPythonNetworkStream::ToggleGameDebugInfo

; 1032 : 	return Py_BuildNone();

  0000b	e9 00 00 00 00	 jmp	 ?Py_BuildNone@@YAPAU_object@@XZ ; Py_BuildNone
?netToggleGameDebugInfo@@YAPAU_object@@PAU1@0@Z ENDP	; netToggleGameDebugInfo
_TEXT	ENDS
; Function compile flags: /Ogtp
; File D:\Metin2 Server Files\mainline\SRC_2014\Metin2Client\UserInterface\PythonNetworkStreamModule.cpp
;	COMDAT ?netIsConnect@@YAPAU_object@@PAU1@0@Z
_TEXT	SEGMENT
_poSelf$ = 8						; size = 4
_poArgs$ = 12						; size = 4
?netIsConnect@@YAPAU_object@@PAU1@0@Z PROC		; netIsConnect, COMDAT

; 1024 : 	CPythonNetworkStream& rkNetStream=CPythonNetworkStream::Instance();
; 1025 : 	return Py_BuildValue("i", rkNetStream.IsOnline());

  00000	8b 0d 00 00 00
	00		 mov	 ecx, DWORD PTR ?ms_singleton@?$CSingleton@VCPythonNetworkStream@@@@0PAVCPythonNetworkStream@@A ; CSingleton<CPythonNetworkStream>::ms_singleton
  00006	e8 00 00 00 00	 call	 ?IsOnline@CNetworkStream@@QAE_NXZ ; CNetworkStream::IsOnline
  0000b	0f b6 c0	 movzx	 eax, al
  0000e	50		 push	 eax
  0000f	68 00 00 00 00	 push	 OFFSET ??_C@_01KBJDNOO@i@
  00014	ff 15 00 00 00
	00		 call	 DWORD PTR __imp__Py_BuildValue
  0001a	83 c4 08	 add	 esp, 8

; 1026 : }

  0001d	c3		 ret	 0
?netIsConnect@@YAPAU_object@@PAU1@0@Z ENDP		; netIsConnect
_TEXT	ENDS
; Function compile flags: /Ogtp
; File D:\Metin2 Server Files\mainline\SRC_2014\Metin2Client\UserInterface\PythonNetworkStreamModule.cpp
;	COMDAT ?netDisconnect@@YAPAU_object@@PAU1@0@Z
_TEXT	SEGMENT
_poSelf$ = 8						; size = 4
_poArgs$ = 12						; size = 4
?netDisconnect@@YAPAU_object@@PAU1@0@Z PROC		; netDisconnect, COMDAT

; 1014 : {

  00000	56		 push	 esi

; 1015 : 	CPythonNetworkStream& rkNetStream=CPythonNetworkStream::Instance();

  00001	8b 35 00 00 00
	00		 mov	 esi, DWORD PTR ?ms_singleton@?$CSingleton@VCPythonNetworkStream@@@@0PAVCPythonNetworkStream@@A ; CSingleton<CPythonNetworkStream>::ms_singleton

; 1016 : 	rkNetStream.SetOffLinePhase();

  00007	8b ce		 mov	 ecx, esi
  00009	e8 00 00 00 00	 call	 ?SetOffLinePhase@CPythonNetworkStream@@QAEXXZ ; CPythonNetworkStream::SetOffLinePhase

; 1017 : 	rkNetStream.Disconnect();

  0000e	8b ce		 mov	 ecx, esi
  00010	e8 00 00 00 00	 call	 ?Disconnect@CNetworkStream@@QAEXXZ ; CNetworkStream::Disconnect

; 1018 : 
; 1019 : 	return Py_BuildNone();

  00015	5e		 pop	 esi
  00016	e9 00 00 00 00	 jmp	 ?Py_BuildNone@@YAPAU_object@@XZ ; Py_BuildNone
?netDisconnect@@YAPAU_object@@PAU1@0@Z ENDP		; netDisconnect
_TEXT	ENDS
; Function compile flags: /Ogtp
; File D:\Metin2 Server Files\mainline\SRC_2014\Metin2Client\UserInterface\PythonNetworkStreamModule.cpp
;	COMDAT ?netLogOutGame@@YAPAU_object@@PAU1@0@Z
_TEXT	SEGMENT
_poSelf$ = 8						; size = 4
_poArgs$ = 12						; size = 4
?netLogOutGame@@YAPAU_object@@PAU1@0@Z PROC		; netLogOutGame, COMDAT

; 1008 : 	CPythonNetworkStream& rkNetStream=CPythonNetworkStream::Instance();
; 1009 : 	rkNetStream.LogOutGame();

  00000	8b 0d 00 00 00
	00		 mov	 ecx, DWORD PTR ?ms_singleton@?$CSingleton@VCPythonNetworkStream@@@@0PAVCPythonNetworkStream@@A ; CSingleton<CPythonNetworkStream>::ms_singleton
  00006	e8 00 00 00 00	 call	 ?LogOutGame@CPythonNetworkStream@@QAEXXZ ; CPythonNetworkStream::LogOutGame

; 1010 : 	return Py_BuildNone();

  0000b	e9 00 00 00 00	 jmp	 ?Py_BuildNone@@YAPAU_object@@XZ ; Py_BuildNone
?netLogOutGame@@YAPAU_object@@PAU1@0@Z ENDP		; netLogOutGame
_TEXT	ENDS
; Function compile flags: /Ogtp
; File D:\Metin2 Server Files\mainline\SRC_2014\Metin2Client\UserInterface\PythonNetworkStreamModule.cpp
;	COMDAT ?netExitGame@@YAPAU_object@@PAU1@0@Z
_TEXT	SEGMENT
_poSelf$ = 8						; size = 4
_poArgs$ = 12						; size = 4
?netExitGame@@YAPAU_object@@PAU1@0@Z PROC		; netExitGame, COMDAT

; 1001 : 	CPythonNetworkStream& rkNetStream=CPythonNetworkStream::Instance();
; 1002 : 	rkNetStream.ExitGame();

  00000	8b 0d 00 00 00
	00		 mov	 ecx, DWORD PTR ?ms_singleton@?$CSingleton@VCPythonNetworkStream@@@@0PAVCPythonNetworkStream@@A ; CSingleton<CPythonNetworkStream>::ms_singleton
  00006	e8 00 00 00 00	 call	 ?ExitGame@CPythonNetworkStream@@QAEXXZ ; CPythonNetworkStream::ExitGame

; 1003 : 	return Py_BuildNone();

  0000b	e9 00 00 00 00	 jmp	 ?Py_BuildNone@@YAPAU_object@@XZ ; Py_BuildNone
?netExitGame@@YAPAU_object@@PAU1@0@Z ENDP		; netExitGame
_TEXT	ENDS
; Function compile flags: /Ogtp
; File D:\Metin2 Server Files\mainline\SRC_2014\Metin2Client\UserInterface\PythonNetworkStreamModule.cpp
;	COMDAT ?netExitApplication@@YAPAU_object@@PAU1@0@Z
_TEXT	SEGMENT
_poSelf$ = 8						; size = 4
_poArgs$ = 12						; size = 4
?netExitApplication@@YAPAU_object@@PAU1@0@Z PROC	; netExitApplication, COMDAT

; 994  : 	CPythonNetworkStream& rkNetStream=CPythonNetworkStream::Instance();
; 995  : 	rkNetStream.ExitApplication();

  00000	8b 0d 00 00 00
	00		 mov	 ecx, DWORD PTR ?ms_singleton@?$CSingleton@VCPythonNetworkStream@@@@0PAVCPythonNetworkStream@@A ; CSingleton<CPythonNetworkStream>::ms_singleton
  00006	e8 00 00 00 00	 call	 ?ExitApplication@CPythonNetworkStream@@QAEXXZ ; CPythonNetworkStream::ExitApplication

; 996  : 	return Py_BuildNone();

  0000b	e9 00 00 00 00	 jmp	 ?Py_BuildNone@@YAPAU_object@@XZ ; Py_BuildNone
?netExitApplication@@YAPAU_object@@PAU1@0@Z ENDP	; netExitApplication
_TEXT	ENDS
; Function compile flags: /Ogtp
; File D:\Metin2 Server Files\mainline\SRC_2014\Metin2Client\UserInterface\PythonNetworkStreamModule.cpp
;	COMDAT ?netSendExchangeExitPacket@@YAPAU_object@@PAU1@0@Z
_TEXT	SEGMENT
_poSelf$ = 8						; size = 4
_poArgs$ = 12						; size = 4
?netSendExchangeExitPacket@@YAPAU_object@@PAU1@0@Z PROC	; netSendExchangeExitPacket, COMDAT

; 987  : 	CPythonNetworkStream& rkNetStream=CPythonNetworkStream::Instance();
; 988  : 	rkNetStream.SendExchangeExitPacket();

  00000	8b 0d 00 00 00
	00		 mov	 ecx, DWORD PTR ?ms_singleton@?$CSingleton@VCPythonNetworkStream@@@@0PAVCPythonNetworkStream@@A ; CSingleton<CPythonNetworkStream>::ms_singleton
  00006	e8 00 00 00 00	 call	 ?SendExchangeExitPacket@CPythonNetworkStream@@QAE_NXZ ; CPythonNetworkStream::SendExchangeExitPacket

; 989  : 	return Py_BuildNone();

  0000b	e9 00 00 00 00	 jmp	 ?Py_BuildNone@@YAPAU_object@@XZ ; Py_BuildNone
?netSendExchangeExitPacket@@YAPAU_object@@PAU1@0@Z ENDP	; netSendExchangeExitPacket
_TEXT	ENDS
; Function compile flags: /Ogtp
; File D:\Metin2 Server Files\mainline\SRC_2014\Metin2Client\UserInterface\PythonNetworkStreamModule.cpp
;	COMDAT ?netSendExchangeAcceptPacket@@YAPAU_object@@PAU1@0@Z
_TEXT	SEGMENT
_poSelf$ = 8						; size = 4
_poArgs$ = 12						; size = 4
?netSendExchangeAcceptPacket@@YAPAU_object@@PAU1@0@Z PROC ; netSendExchangeAcceptPacket, COMDAT

; 980  : 	CPythonNetworkStream& rkNetStream=CPythonNetworkStream::Instance();
; 981  : 	rkNetStream.SendExchangeAcceptPacket();

  00000	8b 0d 00 00 00
	00		 mov	 ecx, DWORD PTR ?ms_singleton@?$CSingleton@VCPythonNetworkStream@@@@0PAVCPythonNetworkStream@@A ; CSingleton<CPythonNetworkStream>::ms_singleton
  00006	e8 00 00 00 00	 call	 ?SendExchangeAcceptPacket@CPythonNetworkStream@@QAE_NXZ ; CPythonNetworkStream::SendExchangeAcceptPacket

; 982  : 	return Py_BuildNone();

  0000b	e9 00 00 00 00	 jmp	 ?Py_BuildNone@@YAPAU_object@@XZ ; Py_BuildNone
?netSendExchangeAcceptPacket@@YAPAU_object@@PAU1@0@Z ENDP ; netSendExchangeAcceptPacket
_TEXT	ENDS
; Function compile flags: /Ogtp
; File D:\Metin2 Server Files\mainline\SRC_2014\Metin2Client\UserInterface\PythonNetworkStreamModule.cpp
;	COMDAT ?netSendExchangeItemDelPacket@@YAPAU_object@@PAU1@0@Z
_TEXT	SEGMENT
_pos$ = -4						; size = 4
_poSelf$ = 8						; size = 4
_poArgs$ = 12						; size = 4
?netSendExchangeItemDelPacket@@YAPAU_object@@PAU1@0@Z PROC ; netSendExchangeItemDelPacket, COMDAT

; 968  : {

  00000	55		 push	 ebp
  00001	8b ec		 mov	 ebp, esp
  00003	51		 push	 ecx

; 969  : 	int pos;
; 970  : 	if (!PyTuple_GetInteger(poArgs, 0, &pos))

  00004	8d 45 fc	 lea	 eax, DWORD PTR _pos$[ebp]
  00007	50		 push	 eax
  00008	6a 00		 push	 0
  0000a	ff 75 0c	 push	 DWORD PTR _poArgs$[ebp]
  0000d	e8 00 00 00 00	 call	 ?PyTuple_GetInteger@@YA_NPAU_object@@HPAH@Z ; PyTuple_GetInteger
  00012	83 c4 0c	 add	 esp, 12			; 0000000cH
  00015	84 c0		 test	 al, al
  00017	75 0e		 jne	 SHORT $LN2@netSendExc

; 971  : 		return Py_BuildException();

  00019	6a 00		 push	 0
  0001b	e8 00 00 00 00	 call	 ?Py_BuildException@@YAPAU_object@@PBDZZ ; Py_BuildException
  00020	83 c4 04	 add	 esp, 4

; 976  : }

  00023	8b e5		 mov	 esp, ebp
  00025	5d		 pop	 ebp
  00026	c3		 ret	 0
$LN2@netSendExc:

; 972  : 
; 973  : 	CPythonNetworkStream& rkNetStream=CPythonNetworkStream::Instance();
; 974  : 	rkNetStream.SendExchangeItemDelPacket((BYTE) pos);

  00027	ff 75 fc	 push	 DWORD PTR _pos$[ebp]
  0002a	8b 0d 00 00 00
	00		 mov	 ecx, DWORD PTR ?ms_singleton@?$CSingleton@VCPythonNetworkStream@@@@0PAVCPythonNetworkStream@@A ; CSingleton<CPythonNetworkStream>::ms_singleton
  00030	e8 00 00 00 00	 call	 ?SendExchangeItemDelPacket@CPythonNetworkStream@@QAE_NE@Z ; CPythonNetworkStream::SendExchangeItemDelPacket

; 975  : 	return Py_BuildNone();

  00035	e8 00 00 00 00	 call	 ?Py_BuildNone@@YAPAU_object@@XZ ; Py_BuildNone

; 976  : }

  0003a	8b e5		 mov	 esp, ebp
  0003c	5d		 pop	 ebp
  0003d	c3		 ret	 0
?netSendExchangeItemDelPacket@@YAPAU_object@@PAU1@0@Z ENDP ; netSendExchangeItemDelPacket
_TEXT	ENDS
; Function compile flags: /Ogtp
; File D:\Metin2 Server Files\mainline\SRC_2014\Metin2Client\UserInterface\PythonNetworkStreamModule.cpp
; File D:\Metin2 Server Files\mainline\SRC_2014\Metin2Client\UserInterface\GameType.h
; File D:\Metin2 Server Files\mainline\SRC_2014\Metin2Client\UserInterface\PythonNetworkStreamModule.cpp
; File D:\Metin2 Server Files\mainline\SRC_2014\Metin2Client\UserInterface\GameType.h
; File D:\Metin2 Server Files\mainline\SRC_2014\Metin2Client\UserInterface\PythonNetworkStreamModule.cpp
;	COMDAT ?netSendExchangeItemAddPacket@@YAPAU_object@@PAU1@0@Z
_TEXT	SEGMENT
_iDisplaySlotIndex$ = -16				; size = 4
$T1 = -11						; size = 3
_wSlotIndex$ = -8					; size = 2
_bWindowType$ = -1					; size = 1
_poSelf$ = 8						; size = 4
_poArgs$ = 12						; size = 4
?netSendExchangeItemAddPacket@@YAPAU_object@@PAU1@0@Z PROC ; netSendExchangeItemAddPacket, COMDAT

; 951  : {

  00000	55		 push	 ebp
  00001	8b ec		 mov	 ebp, esp
  00003	83 ec 10	 sub	 esp, 16			; 00000010H

; 952  : 	BYTE bWindowType;
; 953  : 	if (!PyTuple_GetInteger(poArgs, 0, &bWindowType))

  00006	8d 45 ff	 lea	 eax, DWORD PTR _bWindowType$[ebp]
  00009	56		 push	 esi
  0000a	8b 75 0c	 mov	 esi, DWORD PTR _poArgs$[ebp]
  0000d	50		 push	 eax
  0000e	6a 00		 push	 0
  00010	56		 push	 esi
  00011	e8 00 00 00 00	 call	 ?PyTuple_GetInteger@@YA_NPAU_object@@HPAE@Z ; PyTuple_GetInteger
  00016	83 c4 0c	 add	 esp, 12			; 0000000cH
  00019	84 c0		 test	 al, al
  0001b	75 0f		 jne	 SHORT $LN2@netSendExc
$LN8@netSendExc:

; 965  : }

  0001d	6a 00		 push	 0
  0001f	e8 00 00 00 00	 call	 ?Py_BuildException@@YAPAU_object@@PBDZZ ; Py_BuildException
  00024	83 c4 04	 add	 esp, 4
  00027	5e		 pop	 esi
  00028	8b e5		 mov	 esp, ebp
  0002a	5d		 pop	 ebp
  0002b	c3		 ret	 0
$LN2@netSendExc:

; 954  : 		return Py_BuildException();
; 955  : 	WORD wSlotIndex;
; 956  : 	if (!PyTuple_GetInteger(poArgs, 1, &wSlotIndex))

  0002c	8d 45 f8	 lea	 eax, DWORD PTR _wSlotIndex$[ebp]
  0002f	50		 push	 eax
  00030	6a 01		 push	 1
  00032	56		 push	 esi
  00033	e8 00 00 00 00	 call	 ?PyTuple_GetInteger@@YA_NPAU_object@@HPAG@Z ; PyTuple_GetInteger
  00038	83 c4 0c	 add	 esp, 12			; 0000000cH
  0003b	84 c0		 test	 al, al
  0003d	74 de		 je	 SHORT $LN8@netSendExc

; 957  : 		return Py_BuildException();
; 958  : 	int iDisplaySlotIndex;
; 959  : 	if (!PyTuple_GetInteger(poArgs, 2, &iDisplaySlotIndex))

  0003f	8d 45 f0	 lea	 eax, DWORD PTR _iDisplaySlotIndex$[ebp]
  00042	50		 push	 eax
  00043	6a 02		 push	 2
  00045	56		 push	 esi
  00046	e8 00 00 00 00	 call	 ?PyTuple_GetInteger@@YA_NPAU_object@@HPAH@Z ; PyTuple_GetInteger
  0004b	83 c4 0c	 add	 esp, 12			; 0000000cH
  0004e	84 c0		 test	 al, al
  00050	74 cb		 je	 SHORT $LN8@netSendExc

; 963  : 	rkNetStream.SendExchangeItemAddPacket(TItemPos(bWindowType, wSlotIndex), iDisplaySlotIndex);

  00052	ff 75 f0	 push	 DWORD PTR _iDisplaySlotIndex$[ebp]
; File D:\Metin2 Server Files\mainline\SRC_2014\Metin2Client\UserInterface\GameType.h

; 191  :         window_type = _window_type;

  00055	8a 45 ff	 mov	 al, BYTE PTR _bWindowType$[ebp]
  00058	88 45 f5	 mov	 BYTE PTR $T1[ebp], al

; 192  :         cell = _cell;

  0005b	0f b7 45 f8	 movzx	 eax, WORD PTR _wSlotIndex$[ebp]
; File D:\Metin2 Server Files\mainline\SRC_2014\Metin2Client\UserInterface\PythonNetworkStreamModule.cpp

; 963  : 	rkNetStream.SendExchangeItemAddPacket(TItemPos(bWindowType, wSlotIndex), iDisplaySlotIndex);

  0005f	51		 push	 ecx
  00060	8b cc		 mov	 ecx, esp
; File D:\Metin2 Server Files\mainline\SRC_2014\Metin2Client\UserInterface\GameType.h

; 192  :         cell = _cell;

  00062	66 89 45 f6	 mov	 WORD PTR $T1[ebp+1], ax
; File D:\Metin2 Server Files\mainline\SRC_2014\Metin2Client\UserInterface\PythonNetworkStreamModule.cpp

; 963  : 	rkNetStream.SendExchangeItemAddPacket(TItemPos(bWindowType, wSlotIndex), iDisplaySlotIndex);

  00066	0f b7 45 f5	 movzx	 eax, WORD PTR $T1[ebp]
  0006a	66 89 01	 mov	 WORD PTR [ecx], ax
  0006d	8a 45 f7	 mov	 al, BYTE PTR $T1[ebp+2]
  00070	88 41 02	 mov	 BYTE PTR [ecx+2], al
  00073	8b 0d 00 00 00
	00		 mov	 ecx, DWORD PTR ?ms_singleton@?$CSingleton@VCPythonNetworkStream@@@@0PAVCPythonNetworkStream@@A ; CSingleton<CPythonNetworkStream>::ms_singleton
  00079	e8 00 00 00 00	 call	 ?SendExchangeItemAddPacket@CPythonNetworkStream@@QAE_NUSItemPos@@E@Z ; CPythonNetworkStream::SendExchangeItemAddPacket

; 964  : 	return Py_BuildNone();

  0007e	e8 00 00 00 00	 call	 ?Py_BuildNone@@YAPAU_object@@XZ ; Py_BuildNone

; 965  : }

  00083	5e		 pop	 esi
  00084	8b e5		 mov	 esp, ebp
  00086	5d		 pop	 ebp
  00087	c3		 ret	 0
?netSendExchangeItemAddPacket@@YAPAU_object@@PAU1@0@Z ENDP ; netSendExchangeItemAddPacket
_TEXT	ENDS
; Function compile flags: /Ogtp
; File D:\Metin2 Server Files\mainline\SRC_2014\Metin2Client\UserInterface\PythonNetworkStreamModule.cpp
;	COMDAT ?netSendExchangeElkAddPacket@@YAPAU_object@@PAU1@0@Z
_TEXT	SEGMENT
_iElk$ = -4						; size = 4
_poSelf$ = 8						; size = 4
_poArgs$ = 12						; size = 4
?netSendExchangeElkAddPacket@@YAPAU_object@@PAU1@0@Z PROC ; netSendExchangeElkAddPacket, COMDAT

; 940  : {

  00000	55		 push	 ebp
  00001	8b ec		 mov	 ebp, esp
  00003	51		 push	 ecx

; 941  : 	int iElk;
; 942  : 	if (!PyTuple_GetInteger(poArgs, 0, &iElk))

  00004	8d 45 fc	 lea	 eax, DWORD PTR _iElk$[ebp]
  00007	50		 push	 eax
  00008	6a 00		 push	 0
  0000a	ff 75 0c	 push	 DWORD PTR _poArgs$[ebp]
  0000d	e8 00 00 00 00	 call	 ?PyTuple_GetInteger@@YA_NPAU_object@@HPAH@Z ; PyTuple_GetInteger
  00012	83 c4 0c	 add	 esp, 12			; 0000000cH
  00015	84 c0		 test	 al, al
  00017	75 0e		 jne	 SHORT $LN2@netSendExc

; 943  : 		return Py_BuildException();

  00019	6a 00		 push	 0
  0001b	e8 00 00 00 00	 call	 ?Py_BuildException@@YAPAU_object@@PBDZZ ; Py_BuildException
  00020	83 c4 04	 add	 esp, 4

; 948  : }

  00023	8b e5		 mov	 esp, ebp
  00025	5d		 pop	 ebp
  00026	c3		 ret	 0
$LN2@netSendExc:

; 944  : 
; 945  : 	CPythonNetworkStream& rkNetStream=CPythonNetworkStream::Instance();
; 946  : 	rkNetStream.SendExchangeElkAddPacket(iElk);

  00027	ff 75 fc	 push	 DWORD PTR _iElk$[ebp]
  0002a	8b 0d 00 00 00
	00		 mov	 ecx, DWORD PTR ?ms_singleton@?$CSingleton@VCPythonNetworkStream@@@@0PAVCPythonNetworkStream@@A ; CSingleton<CPythonNetworkStream>::ms_singleton
  00030	e8 00 00 00 00	 call	 ?SendExchangeElkAddPacket@CPythonNetworkStream@@QAE_NK@Z ; CPythonNetworkStream::SendExchangeElkAddPacket

; 947  : 	return Py_BuildNone();

  00035	e8 00 00 00 00	 call	 ?Py_BuildNone@@YAPAU_object@@XZ ; Py_BuildNone

; 948  : }

  0003a	8b e5		 mov	 esp, ebp
  0003c	5d		 pop	 ebp
  0003d	c3		 ret	 0
?netSendExchangeElkAddPacket@@YAPAU_object@@PAU1@0@Z ENDP ; netSendExchangeElkAddPacket
_TEXT	ENDS
; Function compile flags: /Ogtp
; File D:\Metin2 Server Files\mainline\SRC_2014\Metin2Client\UserInterface\PythonNetworkStreamModule.cpp
;	COMDAT ?netSendExchangeStartPacket@@YAPAU_object@@PAU1@0@Z
_TEXT	SEGMENT
_vid$ = -4						; size = 4
_poSelf$ = 8						; size = 4
_poArgs$ = 12						; size = 4
?netSendExchangeStartPacket@@YAPAU_object@@PAU1@0@Z PROC ; netSendExchangeStartPacket, COMDAT

; 929  : {

  00000	55		 push	 ebp
  00001	8b ec		 mov	 ebp, esp
  00003	51		 push	 ecx

; 930  : 	int vid;
; 931  : 	if (!PyTuple_GetInteger(poArgs, 0, &vid))

  00004	8d 45 fc	 lea	 eax, DWORD PTR _vid$[ebp]
  00007	50		 push	 eax
  00008	6a 00		 push	 0
  0000a	ff 75 0c	 push	 DWORD PTR _poArgs$[ebp]
  0000d	e8 00 00 00 00	 call	 ?PyTuple_GetInteger@@YA_NPAU_object@@HPAH@Z ; PyTuple_GetInteger
  00012	83 c4 0c	 add	 esp, 12			; 0000000cH
  00015	84 c0		 test	 al, al
  00017	75 0e		 jne	 SHORT $LN2@netSendExc

; 932  : 		return Py_BuildException();

  00019	6a 00		 push	 0
  0001b	e8 00 00 00 00	 call	 ?Py_BuildException@@YAPAU_object@@PBDZZ ; Py_BuildException
  00020	83 c4 04	 add	 esp, 4

; 937  : }

  00023	8b e5		 mov	 esp, ebp
  00025	5d		 pop	 ebp
  00026	c3		 ret	 0
$LN2@netSendExc:

; 933  : 
; 934  : 	CPythonNetworkStream& rkNetStream=CPythonNetworkStream::Instance();
; 935  : 	rkNetStream.SendExchangeStartPacket(vid);

  00027	ff 75 fc	 push	 DWORD PTR _vid$[ebp]
  0002a	8b 0d 00 00 00
	00		 mov	 ecx, DWORD PTR ?ms_singleton@?$CSingleton@VCPythonNetworkStream@@@@0PAVCPythonNetworkStream@@A ; CSingleton<CPythonNetworkStream>::ms_singleton
  00030	e8 00 00 00 00	 call	 ?SendExchangeStartPacket@CPythonNetworkStream@@QAE_NK@Z ; CPythonNetworkStream::SendExchangeStartPacket

; 936  : 	return Py_BuildNone();

  00035	e8 00 00 00 00	 call	 ?Py_BuildNone@@YAPAU_object@@XZ ; Py_BuildNone

; 937  : }

  0003a	8b e5		 mov	 esp, ebp
  0003c	5d		 pop	 ebp
  0003d	c3		 ret	 0
?netSendExchangeStartPacket@@YAPAU_object@@PAU1@0@Z ENDP ; netSendExchangeStartPacket
_TEXT	ENDS
; Function compile flags: /Ogtp
; File D:\Metin2 Server Files\mainline\SRC_2014\Metin2Client\UserInterface\PythonNetworkStreamModule.cpp
;	COMDAT ?netSendShopSellPacketNew@@YAPAU_object@@PAU1@0@Z
_TEXT	SEGMENT
_iSlotNumber$ = -8					; size = 4
_iCount$ = -4						; size = 4
_poSelf$ = 8						; size = 4
_poArgs$ = 12						; size = 4
?netSendShopSellPacketNew@@YAPAU_object@@PAU1@0@Z PROC	; netSendShopSellPacketNew, COMDAT

; 916  : {

  00000	55		 push	 ebp
  00001	8b ec		 mov	 ebp, esp
  00003	83 ec 08	 sub	 esp, 8

; 917  : 	int iSlotNumber;
; 918  : 	if (!PyTuple_GetInteger(poArgs, 0, &iSlotNumber))

  00006	8d 45 f8	 lea	 eax, DWORD PTR _iSlotNumber$[ebp]
  00009	50		 push	 eax
  0000a	6a 00		 push	 0
  0000c	ff 75 0c	 push	 DWORD PTR _poArgs$[ebp]
  0000f	e8 00 00 00 00	 call	 ?PyTuple_GetInteger@@YA_NPAU_object@@HPAH@Z ; PyTuple_GetInteger
  00014	83 c4 0c	 add	 esp, 12			; 0000000cH
  00017	84 c0		 test	 al, al
  00019	75 0e		 jne	 SHORT $LN2@netSendSho
$LN5@netSendSho:

; 926  : }

  0001b	6a 00		 push	 0
  0001d	e8 00 00 00 00	 call	 ?Py_BuildException@@YAPAU_object@@PBDZZ ; Py_BuildException
  00022	83 c4 04	 add	 esp, 4
  00025	8b e5		 mov	 esp, ebp
  00027	5d		 pop	 ebp
  00028	c3		 ret	 0
$LN2@netSendSho:

; 919  : 		return Py_BuildException();
; 920  : 	int iCount;
; 921  : 	if (!PyTuple_GetInteger(poArgs, 1, &iCount))

  00029	8d 45 fc	 lea	 eax, DWORD PTR _iCount$[ebp]
  0002c	50		 push	 eax
  0002d	6a 01		 push	 1
  0002f	ff 75 0c	 push	 DWORD PTR _poArgs$[ebp]
  00032	e8 00 00 00 00	 call	 ?PyTuple_GetInteger@@YA_NPAU_object@@HPAH@Z ; PyTuple_GetInteger
  00037	83 c4 0c	 add	 esp, 12			; 0000000cH
  0003a	84 c0		 test	 al, al
  0003c	74 dd		 je	 SHORT $LN5@netSendSho

; 922  : 		return Py_BuildException();
; 923  : 	CPythonNetworkStream& rkNetStream=CPythonNetworkStream::Instance();
; 924  : 	rkNetStream.SendShopSellPacketNew(iSlotNumber, iCount);

  0003e	ff 75 fc	 push	 DWORD PTR _iCount$[ebp]
  00041	8b 0d 00 00 00
	00		 mov	 ecx, DWORD PTR ?ms_singleton@?$CSingleton@VCPythonNetworkStream@@@@0PAVCPythonNetworkStream@@A ; CSingleton<CPythonNetworkStream>::ms_singleton
  00047	ff 75 f8	 push	 DWORD PTR _iSlotNumber$[ebp]
  0004a	e8 00 00 00 00	 call	 ?SendShopSellPacketNew@CPythonNetworkStream@@QAE_NEE@Z ; CPythonNetworkStream::SendShopSellPacketNew

; 925  : 	return Py_BuildNone();

  0004f	e8 00 00 00 00	 call	 ?Py_BuildNone@@YAPAU_object@@XZ ; Py_BuildNone

; 926  : }

  00054	8b e5		 mov	 esp, ebp
  00056	5d		 pop	 ebp
  00057	c3		 ret	 0
?netSendShopSellPacketNew@@YAPAU_object@@PAU1@0@Z ENDP	; netSendShopSellPacketNew
_TEXT	ENDS
; Function compile flags: /Ogtp
; File D:\Metin2 Server Files\mainline\SRC_2014\Metin2Client\UserInterface\PythonNetworkStreamModule.cpp
;	COMDAT ?netSendShopSellPacket@@YAPAU_object@@PAU1@0@Z
_TEXT	SEGMENT
_iSlotNumber$ = -4					; size = 4
_poSelf$ = 8						; size = 4
_poArgs$ = 12						; size = 4
?netSendShopSellPacket@@YAPAU_object@@PAU1@0@Z PROC	; netSendShopSellPacket, COMDAT

; 906  : {

  00000	55		 push	 ebp
  00001	8b ec		 mov	 ebp, esp
  00003	51		 push	 ecx

; 907  : 	int iSlotNumber;
; 908  : 	if (!PyTuple_GetInteger(poArgs, 0, &iSlotNumber))

  00004	8d 45 fc	 lea	 eax, DWORD PTR _iSlotNumber$[ebp]
  00007	50		 push	 eax
  00008	6a 00		 push	 0
  0000a	ff 75 0c	 push	 DWORD PTR _poArgs$[ebp]
  0000d	e8 00 00 00 00	 call	 ?PyTuple_GetInteger@@YA_NPAU_object@@HPAH@Z ; PyTuple_GetInteger
  00012	83 c4 0c	 add	 esp, 12			; 0000000cH
  00015	84 c0		 test	 al, al
  00017	75 0e		 jne	 SHORT $LN2@netSendSho

; 909  : 		return Py_BuildException();

  00019	6a 00		 push	 0
  0001b	e8 00 00 00 00	 call	 ?Py_BuildException@@YAPAU_object@@PBDZZ ; Py_BuildException
  00020	83 c4 04	 add	 esp, 4

; 913  : }

  00023	8b e5		 mov	 esp, ebp
  00025	5d		 pop	 ebp
  00026	c3		 ret	 0
$LN2@netSendSho:

; 910  : 	CPythonNetworkStream& rkNetStream=CPythonNetworkStream::Instance();
; 911  : 	rkNetStream.SendShopSellPacket(iSlotNumber);

  00027	ff 75 fc	 push	 DWORD PTR _iSlotNumber$[ebp]
  0002a	8b 0d 00 00 00
	00		 mov	 ecx, DWORD PTR ?ms_singleton@?$CSingleton@VCPythonNetworkStream@@@@0PAVCPythonNetworkStream@@A ; CSingleton<CPythonNetworkStream>::ms_singleton
  00030	e8 00 00 00 00	 call	 ?SendShopSellPacket@CPythonNetworkStream@@QAE_NE@Z ; CPythonNetworkStream::SendShopSellPacket

; 912  : 	return Py_BuildNone();

  00035	e8 00 00 00 00	 call	 ?Py_BuildNone@@YAPAU_object@@XZ ; Py_BuildNone

; 913  : }

  0003a	8b e5		 mov	 esp, ebp
  0003c	5d		 pop	 ebp
  0003d	c3		 ret	 0
?netSendShopSellPacket@@YAPAU_object@@PAU1@0@Z ENDP	; netSendShopSellPacket
_TEXT	ENDS
; Function compile flags: /Ogtp
; File D:\Metin2 Server Files\mainline\SRC_2014\Metin2Client\UserInterface\PythonNetworkStreamModule.cpp
;	COMDAT ?netSendShopBuyPacket@@YAPAU_object@@PAU1@0@Z
_TEXT	SEGMENT
_iCount$ = -4						; size = 4
_poSelf$ = 8						; size = 4
_poArgs$ = 12						; size = 4
?netSendShopBuyPacket@@YAPAU_object@@PAU1@0@Z PROC	; netSendShopBuyPacket, COMDAT

; 895  : {

  00000	55		 push	 ebp
  00001	8b ec		 mov	 ebp, esp
  00003	51		 push	 ecx

; 896  : 	int iCount;
; 897  : 	if (!PyTuple_GetInteger(poArgs, 0, &iCount))

  00004	8d 45 fc	 lea	 eax, DWORD PTR _iCount$[ebp]
  00007	50		 push	 eax
  00008	6a 00		 push	 0
  0000a	ff 75 0c	 push	 DWORD PTR _poArgs$[ebp]
  0000d	e8 00 00 00 00	 call	 ?PyTuple_GetInteger@@YA_NPAU_object@@HPAH@Z ; PyTuple_GetInteger
  00012	83 c4 0c	 add	 esp, 12			; 0000000cH
  00015	84 c0		 test	 al, al
  00017	75 0e		 jne	 SHORT $LN2@netSendSho

; 898  : 		return Py_BuildException();

  00019	6a 00		 push	 0
  0001b	e8 00 00 00 00	 call	 ?Py_BuildException@@YAPAU_object@@PBDZZ ; Py_BuildException
  00020	83 c4 04	 add	 esp, 4

; 903  : }

  00023	8b e5		 mov	 esp, ebp
  00025	5d		 pop	 ebp
  00026	c3		 ret	 0
$LN2@netSendSho:

; 899  : 
; 900  : 	CPythonNetworkStream& rkNetStream=CPythonNetworkStream::Instance();
; 901  : 	rkNetStream.SendShopBuyPacket(iCount);

  00027	ff 75 fc	 push	 DWORD PTR _iCount$[ebp]
  0002a	8b 0d 00 00 00
	00		 mov	 ecx, DWORD PTR ?ms_singleton@?$CSingleton@VCPythonNetworkStream@@@@0PAVCPythonNetworkStream@@A ; CSingleton<CPythonNetworkStream>::ms_singleton
  00030	e8 00 00 00 00	 call	 ?SendShopBuyPacket@CPythonNetworkStream@@QAE_NE@Z ; CPythonNetworkStream::SendShopBuyPacket

; 902  : 	return Py_BuildNone();

  00035	e8 00 00 00 00	 call	 ?Py_BuildNone@@YAPAU_object@@XZ ; Py_BuildNone

; 903  : }

  0003a	8b e5		 mov	 esp, ebp
  0003c	5d		 pop	 ebp
  0003d	c3		 ret	 0
?netSendShopBuyPacket@@YAPAU_object@@PAU1@0@Z ENDP	; netSendShopBuyPacket
_TEXT	ENDS
; Function compile flags: /Ogtp
; File D:\Metin2 Server Files\mainline\SRC_2014\Metin2Client\UserInterface\PythonNetworkStreamModule.cpp
;	COMDAT ?netSendShopEndPacket@@YAPAU_object@@PAU1@0@Z
_TEXT	SEGMENT
_poSelf$ = 8						; size = 4
_poArgs$ = 12						; size = 4
?netSendShopEndPacket@@YAPAU_object@@PAU1@0@Z PROC	; netSendShopEndPacket, COMDAT

; 889  : 	CPythonNetworkStream& rkNetStream=CPythonNetworkStream::Instance();
; 890  : 	rkNetStream.SendShopEndPacket();

  00000	8b 0d 00 00 00
	00		 mov	 ecx, DWORD PTR ?ms_singleton@?$CSingleton@VCPythonNetworkStream@@@@0PAVCPythonNetworkStream@@A ; CSingleton<CPythonNetworkStream>::ms_singleton
  00006	e8 00 00 00 00	 call	 ?SendShopEndPacket@CPythonNetworkStream@@QAE_NXZ ; CPythonNetworkStream::SendShopEndPacket

; 891  : 	return Py_BuildNone();

  0000b	e9 00 00 00 00	 jmp	 ?Py_BuildNone@@YAPAU_object@@XZ ; Py_BuildNone
?netSendShopEndPacket@@YAPAU_object@@PAU1@0@Z ENDP	; netSendShopEndPacket
_TEXT	ENDS
; Function compile flags: /Ogtp
; File D:\Metin2 Server Files\mainline\SRC_2014\Metin2Client\UserInterface\PythonNetworkStreamModule.cpp
; File D:\Metin2 Server Files\mainline\SRC_2014\Metin2Client\UserInterface\GameType.h
; File D:\Metin2 Server Files\mainline\SRC_2014\Metin2Client\UserInterface\PythonNetworkStreamModule.cpp
; File D:\Metin2 Server Files\mainline\SRC_2014\Metin2Client\UserInterface\GameType.h
; File D:\Metin2 Server Files\mainline\SRC_2014\Metin2Client\UserInterface\PythonNetworkStreamModule.cpp
;	COMDAT ?netSendGiveItemPacket@@YAPAU_object@@PAU1@0@Z
_TEXT	SEGMENT
_iTargetVID$ = -12					; size = 4
_iItemCount$ = -8					; size = 4
_Cell$ = -4						; size = 3
_poSelf$ = 8						; size = 4
_poArgs$ = 12						; size = 4
?netSendGiveItemPacket@@YAPAU_object@@PAU1@0@Z PROC	; netSendGiveItemPacket, COMDAT

; 854  : {

  00000	55		 push	 ebp
  00001	8b ec		 mov	 ebp, esp
  00003	83 ec 0c	 sub	 esp, 12			; 0000000cH
  00006	56		 push	 esi

; 858  : 	switch (PyTuple_Size(poArgs))

  00007	8b 75 0c	 mov	 esi, DWORD PTR _poArgs$[ebp]
; File D:\Metin2 Server Files\mainline\SRC_2014\Metin2Client\UserInterface\GameType.h

; 187  : 		cell = WORD_MAX;

  0000a	b8 ff ff 00 00	 mov	 eax, 65535		; 0000ffffH
; File D:\Metin2 Server Files\mainline\SRC_2014\Metin2Client\UserInterface\PythonNetworkStreamModule.cpp

; 858  : 	switch (PyTuple_Size(poArgs))

  0000f	56		 push	 esi
; File D:\Metin2 Server Files\mainline\SRC_2014\Metin2Client\UserInterface\GameType.h

; 186  : 		window_type =     INVENTORY;

  00010	c6 45 fc 01	 mov	 BYTE PTR _Cell$[ebp], 1

; 187  : 		cell = WORD_MAX;

  00014	66 89 45 fd	 mov	 WORD PTR _Cell$[ebp+1], ax
; File D:\Metin2 Server Files\mainline\SRC_2014\Metin2Client\UserInterface\PythonNetworkStreamModule.cpp

; 858  : 	switch (PyTuple_Size(poArgs))

  00018	ff 15 00 00 00
	00		 call	 DWORD PTR __imp__PyTuple_Size
  0001e	83 c4 04	 add	 esp, 4
  00021	83 e8 03	 sub	 eax, 3
  00024	74 64		 je	 SHORT $LN4@netSendGiv
  00026	83 e8 01	 sub	 eax, 1
  00029	0f 85 94 00 00
	00		 jne	 $LN7@netSendGiv

; 866  : 			return Py_BuildException();
; 867  : 		break;
; 868  : 	case 4:
; 869  : 		if (!PyTuple_GetInteger(poArgs, 0, &iTargetVID))

  0002f	8d 45 f4	 lea	 eax, DWORD PTR _iTargetVID$[ebp]
  00032	50		 push	 eax
  00033	6a 00		 push	 0
  00035	56		 push	 esi
  00036	e8 00 00 00 00	 call	 ?PyTuple_GetInteger@@YA_NPAU_object@@HPAH@Z ; PyTuple_GetInteger
  0003b	83 c4 0c	 add	 esp, 12			; 0000000cH
  0003e	84 c0		 test	 al, al
  00040	74 39		 je	 SHORT $LN17@netSendGiv

; 870  : 			return Py_BuildException();
; 871  : 		if (!PyTuple_GetByte(poArgs, 1, &Cell.window_type))

  00042	8d 45 fc	 lea	 eax, DWORD PTR _Cell$[ebp]
  00045	50		 push	 eax
  00046	6a 01		 push	 1
  00048	56		 push	 esi
  00049	e8 00 00 00 00	 call	 ?PyTuple_GetByte@@YA_NPAU_object@@HPAE@Z ; PyTuple_GetByte
  0004e	83 c4 0c	 add	 esp, 12			; 0000000cH
  00051	84 c0		 test	 al, al
  00053	74 26		 je	 SHORT $LN17@netSendGiv

; 872  : 			return Py_BuildException();
; 873  : 		if (!PyTuple_GetInteger(poArgs, 2, &Cell.cell))

  00055	8d 45 fd	 lea	 eax, DWORD PTR _Cell$[ebp+1]
  00058	50		 push	 eax
  00059	6a 02		 push	 2
  0005b	56		 push	 esi
  0005c	e8 00 00 00 00	 call	 ?PyTuple_GetInteger@@YA_NPAU_object@@HPAG@Z ; PyTuple_GetInteger
  00061	83 c4 0c	 add	 esp, 12			; 0000000cH
  00064	84 c0		 test	 al, al
  00066	74 13		 je	 SHORT $LN17@netSendGiv

; 874  : 			return Py_BuildException();
; 875  : 		if (!PyTuple_GetInteger(poArgs, 3, &iItemCount))

  00068	8d 45 f8	 lea	 eax, DWORD PTR _iItemCount$[ebp]
  0006b	50		 push	 eax
  0006c	6a 03		 push	 3
  0006e	56		 push	 esi
  0006f	e8 00 00 00 00	 call	 ?PyTuple_GetInteger@@YA_NPAU_object@@HPAH@Z ; PyTuple_GetInteger
  00074	83 c4 0c	 add	 esp, 12			; 0000000cH
  00077	84 c0		 test	 al, al
  00079	75 48		 jne	 SHORT $LN7@netSendGiv
$LN17@netSendGiv:

; 885  : }

  0007b	6a 00		 push	 0
  0007d	e8 00 00 00 00	 call	 ?Py_BuildException@@YAPAU_object@@PBDZZ ; Py_BuildException
  00082	83 c4 04	 add	 esp, 4
  00085	5e		 pop	 esi
  00086	8b e5		 mov	 esp, ebp
  00088	5d		 pop	 ebp
  00089	c3		 ret	 0
$LN4@netSendGiv:

; 859  : 	{
; 860  : 	case 3:
; 861  : 		if (!PyTuple_GetInteger(poArgs, 0, &iTargetVID))

  0008a	8d 45 f4	 lea	 eax, DWORD PTR _iTargetVID$[ebp]
  0008d	50		 push	 eax
  0008e	6a 00		 push	 0
  00090	56		 push	 esi
  00091	e8 00 00 00 00	 call	 ?PyTuple_GetInteger@@YA_NPAU_object@@HPAH@Z ; PyTuple_GetInteger
  00096	83 c4 0c	 add	 esp, 12			; 0000000cH
  00099	84 c0		 test	 al, al
  0009b	74 de		 je	 SHORT $LN17@netSendGiv

; 862  : 			return Py_BuildException();
; 863  : 		if (!PyTuple_GetInteger(poArgs, 1, &Cell.cell))

  0009d	8d 45 fd	 lea	 eax, DWORD PTR _Cell$[ebp+1]
  000a0	50		 push	 eax
  000a1	6a 01		 push	 1
  000a3	56		 push	 esi
  000a4	e8 00 00 00 00	 call	 ?PyTuple_GetInteger@@YA_NPAU_object@@HPAG@Z ; PyTuple_GetInteger
  000a9	83 c4 0c	 add	 esp, 12			; 0000000cH
  000ac	84 c0		 test	 al, al
  000ae	74 cb		 je	 SHORT $LN17@netSendGiv

; 864  : 			return Py_BuildException();
; 865  : 		if (!PyTuple_GetInteger(poArgs, 2, &iItemCount))

  000b0	8d 45 f8	 lea	 eax, DWORD PTR _iItemCount$[ebp]
  000b3	50		 push	 eax
  000b4	6a 02		 push	 2
  000b6	56		 push	 esi
  000b7	e8 00 00 00 00	 call	 ?PyTuple_GetInteger@@YA_NPAU_object@@HPAH@Z ; PyTuple_GetInteger
  000bc	83 c4 0c	 add	 esp, 12			; 0000000cH
  000bf	84 c0		 test	 al, al
  000c1	74 b8		 je	 SHORT $LN17@netSendGiv
$LN7@netSendGiv:

; 876  : 			return Py_BuildException();
; 877  : 		break;
; 878  : 	default:
; 879  : 		break;
; 880  : 	}
; 881  : 
; 882  : 	CPythonNetworkStream& rkNetStream=CPythonNetworkStream::Instance();
; 883  : 	rkNetStream.SendGiveItemPacket(iTargetVID, Cell, iItemCount);

  000c3	ff 75 f8	 push	 DWORD PTR _iItemCount$[ebp]
  000c6	66 8b 45 fc	 mov	 ax, WORD PTR _Cell$[ebp]
  000ca	51		 push	 ecx
  000cb	8b cc		 mov	 ecx, esp
  000cd	ff 75 f4	 push	 DWORD PTR _iTargetVID$[ebp]
  000d0	66 89 01	 mov	 WORD PTR [ecx], ax
  000d3	8a 45 fe	 mov	 al, BYTE PTR _Cell$[ebp+2]
  000d6	88 41 02	 mov	 BYTE PTR [ecx+2], al
  000d9	8b 0d 00 00 00
	00		 mov	 ecx, DWORD PTR ?ms_singleton@?$CSingleton@VCPythonNetworkStream@@@@0PAVCPythonNetworkStream@@A ; CSingleton<CPythonNetworkStream>::ms_singleton
  000df	e8 00 00 00 00	 call	 ?SendGiveItemPacket@CPythonNetworkStream@@QAE_NKUSItemPos@@H@Z ; CPythonNetworkStream::SendGiveItemPacket

; 884  : 	return Py_BuildNone();

  000e4	e8 00 00 00 00	 call	 ?Py_BuildNone@@YAPAU_object@@XZ ; Py_BuildNone

; 885  : }

  000e9	5e		 pop	 esi
  000ea	8b e5		 mov	 esp, ebp
  000ec	5d		 pop	 ebp
  000ed	c3		 ret	 0
?netSendGiveItemPacket@@YAPAU_object@@PAU1@0@Z ENDP	; netSendGiveItemPacket
_TEXT	ENDS
; Function compile flags: /Ogtp
; File D:\Metin2 Server Files\mainline\SRC_2014\Metin2Client\UserInterface\PythonNetworkStreamModule.cpp
;	COMDAT ?netSendItemPickUpPacket@@YAPAU_object@@PAU1@0@Z
_TEXT	SEGMENT
_vid$ = -4						; size = 4
_poSelf$ = 8						; size = 4
_poArgs$ = 12						; size = 4
?netSendItemPickUpPacket@@YAPAU_object@@PAU1@0@Z PROC	; netSendItemPickUpPacket, COMDAT

; 843  : {

  00000	55		 push	 ebp
  00001	8b ec		 mov	 ebp, esp
  00003	51		 push	 ecx

; 844  : 	int vid;
; 845  : 	if (!PyTuple_GetInteger(poArgs, 0, &vid))

  00004	8d 45 fc	 lea	 eax, DWORD PTR _vid$[ebp]
  00007	50		 push	 eax
  00008	6a 00		 push	 0
  0000a	ff 75 0c	 push	 DWORD PTR _poArgs$[ebp]
  0000d	e8 00 00 00 00	 call	 ?PyTuple_GetInteger@@YA_NPAU_object@@HPAH@Z ; PyTuple_GetInteger
  00012	83 c4 0c	 add	 esp, 12			; 0000000cH
  00015	84 c0		 test	 al, al
  00017	75 0e		 jne	 SHORT $LN2@netSendIte

; 846  : 		return Py_BuildException();

  00019	6a 00		 push	 0
  0001b	e8 00 00 00 00	 call	 ?Py_BuildException@@YAPAU_object@@PBDZZ ; Py_BuildException
  00020	83 c4 04	 add	 esp, 4

; 851  : }

  00023	8b e5		 mov	 esp, ebp
  00025	5d		 pop	 ebp
  00026	c3		 ret	 0
$LN2@netSendIte:

; 847  : 
; 848  : 	CPythonNetworkStream& rkNetStream=CPythonNetworkStream::Instance();
; 849  : 	rkNetStream.SendItemPickUpPacket(vid);

  00027	ff 75 fc	 push	 DWORD PTR _vid$[ebp]
  0002a	8b 0d 00 00 00
	00		 mov	 ecx, DWORD PTR ?ms_singleton@?$CSingleton@VCPythonNetworkStream@@@@0PAVCPythonNetworkStream@@A ; CSingleton<CPythonNetworkStream>::ms_singleton
  00030	e8 00 00 00 00	 call	 ?SendItemPickUpPacket@CPythonNetworkStream@@QAE_NK@Z ; CPythonNetworkStream::SendItemPickUpPacket

; 850  : 	return Py_BuildNone();

  00035	e8 00 00 00 00	 call	 ?Py_BuildNone@@YAPAU_object@@XZ ; Py_BuildNone

; 851  : }

  0003a	8b e5		 mov	 esp, ebp
  0003c	5d		 pop	 ebp
  0003d	c3		 ret	 0
?netSendItemPickUpPacket@@YAPAU_object@@PAU1@0@Z ENDP	; netSendItemPickUpPacket
_TEXT	ENDS
; Function compile flags: /Ogtp
; File D:\Metin2 Server Files\mainline\SRC_2014\Metin2Client\UserInterface\PythonNetworkStreamModule.cpp
; File D:\Metin2 Server Files\mainline\SRC_2014\Metin2Client\UserInterface\GameType.h
; File D:\Metin2 Server Files\mainline\SRC_2014\Metin2Client\UserInterface\PythonNetworkStreamModule.cpp
; File D:\Metin2 Server Files\mainline\SRC_2014\Metin2Client\UserInterface\GameType.h
; File D:\Metin2 Server Files\mainline\SRC_2014\Metin2Client\UserInterface\PythonNetworkStreamModule.cpp
;	COMDAT ?netSendItemMovePacket@@YAPAU_object@@PAU1@0@Z
_TEXT	SEGMENT
_num$ = -12						; size = 4
_Cell$ = -8						; size = 3
_ChangeCell$ = -4					; size = 3
_poSelf$ = 8						; size = 4
_poArgs$ = 12						; size = 4
?netSendItemMovePacket@@YAPAU_object@@PAU1@0@Z PROC	; netSendItemMovePacket, COMDAT

; 804  : {

  00000	55		 push	 ebp
  00001	8b ec		 mov	 ebp, esp
  00003	83 ec 0c	 sub	 esp, 12			; 0000000cH
  00006	56		 push	 esi

; 809  : 	switch (PyTuple_Size(poArgs))

  00007	8b 75 0c	 mov	 esi, DWORD PTR _poArgs$[ebp]
; File D:\Metin2 Server Files\mainline\SRC_2014\Metin2Client\UserInterface\GameType.h

; 187  : 		cell = WORD_MAX;

  0000a	b8 ff ff 00 00	 mov	 eax, 65535		; 0000ffffH
; File D:\Metin2 Server Files\mainline\SRC_2014\Metin2Client\UserInterface\PythonNetworkStreamModule.cpp

; 809  : 	switch (PyTuple_Size(poArgs))

  0000f	56		 push	 esi
; File D:\Metin2 Server Files\mainline\SRC_2014\Metin2Client\UserInterface\GameType.h

; 186  : 		window_type =     INVENTORY;

  00010	c6 45 f8 01	 mov	 BYTE PTR _Cell$[ebp], 1

; 187  : 		cell = WORD_MAX;

  00014	66 89 45 f9	 mov	 WORD PTR _Cell$[ebp+1], ax

; 186  : 		window_type =     INVENTORY;

  00018	c6 45 fc 01	 mov	 BYTE PTR _ChangeCell$[ebp], 1

; 187  : 		cell = WORD_MAX;

  0001c	66 89 45 fd	 mov	 WORD PTR _ChangeCell$[ebp+1], ax
; File D:\Metin2 Server Files\mainline\SRC_2014\Metin2Client\UserInterface\PythonNetworkStreamModule.cpp

; 809  : 	switch (PyTuple_Size(poArgs))

  00020	ff 15 00 00 00
	00		 call	 DWORD PTR __imp__PyTuple_Size
  00026	83 c4 04	 add	 esp, 4
  00029	83 e8 03	 sub	 eax, 3
  0002c	74 73		 je	 SHORT $LN4@netSendIte
  0002e	83 e8 02	 sub	 eax, 2
  00031	75 5f		 jne	 SHORT $LN20@netSendIte

; 817  : 			return Py_BuildException();
; 818  : 		break;
; 819  : 	case 5:
; 820  : 		{
; 821  : 			if (!PyTuple_GetByte(poArgs, 0, &Cell.window_type))

  00033	8d 45 f8	 lea	 eax, DWORD PTR _Cell$[ebp]
  00036	50		 push	 eax
  00037	6a 00		 push	 0
  00039	56		 push	 esi
  0003a	e8 00 00 00 00	 call	 ?PyTuple_GetByte@@YA_NPAU_object@@HPAE@Z ; PyTuple_GetByte
  0003f	83 c4 0c	 add	 esp, 12			; 0000000cH
  00042	84 c0		 test	 al, al
  00044	74 4c		 je	 SHORT $LN20@netSendIte

; 822  : 				return Py_BuildException();
; 823  : 			if (!PyTuple_GetInteger(poArgs, 1, &Cell.cell))

  00046	8d 45 f9	 lea	 eax, DWORD PTR _Cell$[ebp+1]
  00049	50		 push	 eax
  0004a	6a 01		 push	 1
  0004c	56		 push	 esi
  0004d	e8 00 00 00 00	 call	 ?PyTuple_GetInteger@@YA_NPAU_object@@HPAG@Z ; PyTuple_GetInteger
  00052	83 c4 0c	 add	 esp, 12			; 0000000cH
  00055	84 c0		 test	 al, al
  00057	74 39		 je	 SHORT $LN20@netSendIte

; 824  : 				return Py_BuildException();
; 825  : 			if (!PyTuple_GetByte(poArgs, 2, &ChangeCell.window_type))

  00059	8d 45 fc	 lea	 eax, DWORD PTR _ChangeCell$[ebp]
  0005c	50		 push	 eax
  0005d	6a 02		 push	 2
  0005f	56		 push	 esi
  00060	e8 00 00 00 00	 call	 ?PyTuple_GetByte@@YA_NPAU_object@@HPAE@Z ; PyTuple_GetByte
  00065	83 c4 0c	 add	 esp, 12			; 0000000cH
  00068	84 c0		 test	 al, al
  0006a	74 26		 je	 SHORT $LN20@netSendIte

; 826  : 				return Py_BuildException();
; 827  : 			if (!PyTuple_GetInteger(poArgs, 3, &ChangeCell.cell))

  0006c	8d 45 fd	 lea	 eax, DWORD PTR _ChangeCell$[ebp+1]
  0006f	50		 push	 eax
  00070	6a 03		 push	 3
  00072	56		 push	 esi
  00073	e8 00 00 00 00	 call	 ?PyTuple_GetInteger@@YA_NPAU_object@@HPAG@Z ; PyTuple_GetInteger
  00078	83 c4 0c	 add	 esp, 12			; 0000000cH
  0007b	84 c0		 test	 al, al
  0007d	74 13		 je	 SHORT $LN20@netSendIte

; 828  : 				return Py_BuildException();
; 829  : 			if (!PyTuple_GetInteger(poArgs, 4, &num))

  0007f	8d 45 f4	 lea	 eax, DWORD PTR _num$[ebp]
  00082	50		 push	 eax
  00083	6a 04		 push	 4
  00085	56		 push	 esi
  00086	e8 00 00 00 00	 call	 ?PyTuple_GetInteger@@YA_NPAU_object@@HPAH@Z ; PyTuple_GetInteger
  0008b	83 c4 0c	 add	 esp, 12			; 0000000cH
  0008e	84 c0		 test	 al, al
  00090	75 48		 jne	 SHORT $LN7@netSendIte
$LN20@netSendIte:

; 840  : }

  00092	6a 00		 push	 0
  00094	e8 00 00 00 00	 call	 ?Py_BuildException@@YAPAU_object@@PBDZZ ; Py_BuildException
  00099	83 c4 04	 add	 esp, 4
  0009c	5e		 pop	 esi
  0009d	8b e5		 mov	 esp, ebp
  0009f	5d		 pop	 ebp
  000a0	c3		 ret	 0
$LN4@netSendIte:

; 810  : 	{
; 811  : 	case 3:
; 812  : 		if (!PyTuple_GetInteger(poArgs, 0, &Cell.cell))

  000a1	8d 45 f9	 lea	 eax, DWORD PTR _Cell$[ebp+1]
  000a4	50		 push	 eax
  000a5	6a 00		 push	 0
  000a7	56		 push	 esi
  000a8	e8 00 00 00 00	 call	 ?PyTuple_GetInteger@@YA_NPAU_object@@HPAG@Z ; PyTuple_GetInteger
  000ad	83 c4 0c	 add	 esp, 12			; 0000000cH
  000b0	84 c0		 test	 al, al
  000b2	74 de		 je	 SHORT $LN20@netSendIte

; 813  : 			return Py_BuildException();
; 814  : 		if (!PyTuple_GetInteger(poArgs, 1, &ChangeCell.cell))

  000b4	8d 45 fd	 lea	 eax, DWORD PTR _ChangeCell$[ebp+1]
  000b7	50		 push	 eax
  000b8	6a 01		 push	 1
  000ba	56		 push	 esi
  000bb	e8 00 00 00 00	 call	 ?PyTuple_GetInteger@@YA_NPAU_object@@HPAG@Z ; PyTuple_GetInteger
  000c0	83 c4 0c	 add	 esp, 12			; 0000000cH
  000c3	84 c0		 test	 al, al
  000c5	74 cb		 je	 SHORT $LN20@netSendIte

; 815  : 			return Py_BuildException();
; 816  : 		if (!PyTuple_GetInteger(poArgs, 2, &num))

  000c7	8d 45 f4	 lea	 eax, DWORD PTR _num$[ebp]
  000ca	50		 push	 eax
  000cb	6a 02		 push	 2
  000cd	56		 push	 esi
  000ce	e8 00 00 00 00	 call	 ?PyTuple_GetInteger@@YA_NPAU_object@@HPAH@Z ; PyTuple_GetInteger
  000d3	83 c4 0c	 add	 esp, 12			; 0000000cH
  000d6	84 c0		 test	 al, al
  000d8	74 b8		 je	 SHORT $LN20@netSendIte
$LN7@netSendIte:

; 830  : 				return Py_BuildException();
; 831  : 		}
; 832  : 		break;
; 833  : 	default:
; 834  : 		return Py_BuildException();
; 835  : 	}
; 836  : 
; 837  : 	CPythonNetworkStream& rkNetStream=CPythonNetworkStream::Instance();
; 838  : 	rkNetStream.SendItemMovePacket(Cell, ChangeCell, (BYTE) num);

  000da	ff 75 f4	 push	 DWORD PTR _num$[ebp]
  000dd	0f b7 45 fc	 movzx	 eax, WORD PTR _ChangeCell$[ebp]
  000e1	51		 push	 ecx
  000e2	8b cc		 mov	 ecx, esp
  000e4	51		 push	 ecx
  000e5	66 89 01	 mov	 WORD PTR [ecx], ax
  000e8	8a 45 fe	 mov	 al, BYTE PTR _ChangeCell$[ebp+2]
  000eb	88 41 02	 mov	 BYTE PTR [ecx+2], al
  000ee	8b cc		 mov	 ecx, esp
  000f0	0f b7 45 f8	 movzx	 eax, WORD PTR _Cell$[ebp]
  000f4	66 89 01	 mov	 WORD PTR [ecx], ax
  000f7	8a 45 fa	 mov	 al, BYTE PTR _Cell$[ebp+2]
  000fa	88 41 02	 mov	 BYTE PTR [ecx+2], al
  000fd	8b 0d 00 00 00
	00		 mov	 ecx, DWORD PTR ?ms_singleton@?$CSingleton@VCPythonNetworkStream@@@@0PAVCPythonNetworkStream@@A ; CSingleton<CPythonNetworkStream>::ms_singleton
  00103	e8 00 00 00 00	 call	 ?SendItemMovePacket@CPythonNetworkStream@@QAE_NUSItemPos@@0E@Z ; CPythonNetworkStream::SendItemMovePacket

; 839  : 	return Py_BuildNone();

  00108	e8 00 00 00 00	 call	 ?Py_BuildNone@@YAPAU_object@@XZ ; Py_BuildNone

; 840  : }

  0010d	5e		 pop	 esi
  0010e	8b e5		 mov	 esp, ebp
  00110	5d		 pop	 ebp
  00111	c3		 ret	 0
?netSendItemMovePacket@@YAPAU_object@@PAU1@0@Z ENDP	; netSendItemMovePacket
_TEXT	ENDS
; Function compile flags: /Ogtp
; File D:\Metin2 Server Files\mainline\SRC_2014\Metin2Client\UserInterface\PythonNetworkStreamModule.cpp
; File D:\Metin2 Server Files\mainline\SRC_2014\Metin2Client\UserInterface\GameType.h
; File D:\Metin2 Server Files\mainline\SRC_2014\Metin2Client\UserInterface\PythonNetworkStreamModule.cpp
; File D:\Metin2 Server Files\mainline\SRC_2014\Metin2Client\UserInterface\GameType.h
; File D:\Metin2 Server Files\mainline\SRC_2014\Metin2Client\UserInterface\PythonNetworkStreamModule.cpp
;	COMDAT ?netSendGoldDropPacketNew@@YAPAU_object@@PAU1@0@Z
_TEXT	SEGMENT
_iElk$ = -8						; size = 4
$T1 = -3						; size = 3
_poSelf$ = 8						; size = 4
_poArgs$ = 12						; size = 4
?netSendGoldDropPacketNew@@YAPAU_object@@PAU1@0@Z PROC	; netSendGoldDropPacketNew, COMDAT

; 793  : {

  00000	55		 push	 ebp
  00001	8b ec		 mov	 ebp, esp
  00003	83 ec 08	 sub	 esp, 8

; 794  : 	int iElk;
; 795  : 	if (!PyTuple_GetInteger(poArgs, 0, &iElk))

  00006	8d 45 f8	 lea	 eax, DWORD PTR _iElk$[ebp]
  00009	50		 push	 eax
  0000a	6a 00		 push	 0
  0000c	ff 75 0c	 push	 DWORD PTR _poArgs$[ebp]
  0000f	e8 00 00 00 00	 call	 ?PyTuple_GetInteger@@YA_NPAU_object@@HPAH@Z ; PyTuple_GetInteger
  00014	83 c4 0c	 add	 esp, 12			; 0000000cH
  00017	6a 00		 push	 0
  00019	84 c0		 test	 al, al
  0001b	75 0c		 jne	 SHORT $LN2@netSendGol

; 796  : 		return Py_BuildException();

  0001d	e8 00 00 00 00	 call	 ?Py_BuildException@@YAPAU_object@@PBDZZ ; Py_BuildException
  00022	83 c4 04	 add	 esp, 4

; 801  : }

  00025	8b e5		 mov	 esp, ebp
  00027	5d		 pop	 ebp
  00028	c3		 ret	 0
$LN2@netSendGol:

; 799  : 	rkNetStream.SendItemDropPacketNew(TItemPos (RESERVED_WINDOW, 0), (DWORD) iElk, 0);

  00029	ff 75 f8	 push	 DWORD PTR _iElk$[ebp]
; File D:\Metin2 Server Files\mainline\SRC_2014\Metin2Client\UserInterface\GameType.h

; 192  :         cell = _cell;

  0002c	33 c0		 xor	 eax, eax
  0002e	c6 45 fd 00	 mov	 BYTE PTR $T1[ebp], 0
; File D:\Metin2 Server Files\mainline\SRC_2014\Metin2Client\UserInterface\PythonNetworkStreamModule.cpp

; 799  : 	rkNetStream.SendItemDropPacketNew(TItemPos (RESERVED_WINDOW, 0), (DWORD) iElk, 0);

  00032	51		 push	 ecx
  00033	8b cc		 mov	 ecx, esp
; File D:\Metin2 Server Files\mainline\SRC_2014\Metin2Client\UserInterface\GameType.h

; 192  :         cell = _cell;

  00035	66 89 45 fe	 mov	 WORD PTR $T1[ebp+1], ax
; File D:\Metin2 Server Files\mainline\SRC_2014\Metin2Client\UserInterface\PythonNetworkStreamModule.cpp

; 799  : 	rkNetStream.SendItemDropPacketNew(TItemPos (RESERVED_WINDOW, 0), (DWORD) iElk, 0);

  00039	66 8b 45 fd	 mov	 ax, WORD PTR $T1[ebp]
  0003d	66 89 01	 mov	 WORD PTR [ecx], ax
  00040	8a 45 ff	 mov	 al, BYTE PTR $T1[ebp+2]
  00043	88 41 02	 mov	 BYTE PTR [ecx+2], al
  00046	8b 0d 00 00 00
	00		 mov	 ecx, DWORD PTR ?ms_singleton@?$CSingleton@VCPythonNetworkStream@@@@0PAVCPythonNetworkStream@@A ; CSingleton<CPythonNetworkStream>::ms_singleton
  0004c	e8 00 00 00 00	 call	 ?SendItemDropPacketNew@CPythonNetworkStream@@QAE_NUSItemPos@@KK@Z ; CPythonNetworkStream::SendItemDropPacketNew

; 800  : 	return Py_BuildNone();

  00051	e8 00 00 00 00	 call	 ?Py_BuildNone@@YAPAU_object@@XZ ; Py_BuildNone

; 801  : }

  00056	8b e5		 mov	 esp, ebp
  00058	5d		 pop	 ebp
  00059	c3		 ret	 0
?netSendGoldDropPacketNew@@YAPAU_object@@PAU1@0@Z ENDP	; netSendGoldDropPacketNew
_TEXT	ENDS
; Function compile flags: /Ogtp
; File D:\Metin2 Server Files\mainline\SRC_2014\Metin2Client\UserInterface\PythonNetworkStreamModule.cpp
; File D:\Metin2 Server Files\mainline\SRC_2014\Metin2Client\UserInterface\GameType.h
; File D:\Metin2 Server Files\mainline\SRC_2014\Metin2Client\UserInterface\PythonNetworkStreamModule.cpp
; File D:\Metin2 Server Files\mainline\SRC_2014\Metin2Client\UserInterface\GameType.h
; File D:\Metin2 Server Files\mainline\SRC_2014\Metin2Client\UserInterface\PythonNetworkStreamModule.cpp
;	COMDAT ?netSendElkDropPacket@@YAPAU_object@@PAU1@0@Z
_TEXT	SEGMENT
_iElk$ = -8						; size = 4
$T1 = -3						; size = 3
_poSelf$ = 8						; size = 4
_poArgs$ = 12						; size = 4
?netSendElkDropPacket@@YAPAU_object@@PAU1@0@Z PROC	; netSendElkDropPacket, COMDAT

; 782  : {

  00000	55		 push	 ebp
  00001	8b ec		 mov	 ebp, esp
  00003	83 ec 08	 sub	 esp, 8

; 783  : 	int iElk;
; 784  : 	if (!PyTuple_GetInteger(poArgs, 0, &iElk))

  00006	8d 45 f8	 lea	 eax, DWORD PTR _iElk$[ebp]
  00009	50		 push	 eax
  0000a	6a 00		 push	 0
  0000c	ff 75 0c	 push	 DWORD PTR _poArgs$[ebp]
  0000f	e8 00 00 00 00	 call	 ?PyTuple_GetInteger@@YA_NPAU_object@@HPAH@Z ; PyTuple_GetInteger
  00014	83 c4 0c	 add	 esp, 12			; 0000000cH
  00017	84 c0		 test	 al, al
  00019	75 0e		 jne	 SHORT $LN2@netSendElk

; 785  : 		return Py_BuildException();

  0001b	6a 00		 push	 0
  0001d	e8 00 00 00 00	 call	 ?Py_BuildException@@YAPAU_object@@PBDZZ ; Py_BuildException
  00022	83 c4 04	 add	 esp, 4

; 790  : }

  00025	8b e5		 mov	 esp, ebp
  00027	5d		 pop	 ebp
  00028	c3		 ret	 0
$LN2@netSendElk:

; 788  : 	rkNetStream.SendItemDropPacket(TItemPos(RESERVED_WINDOW, 0), (DWORD) iElk);

  00029	ff 75 f8	 push	 DWORD PTR _iElk$[ebp]
; File D:\Metin2 Server Files\mainline\SRC_2014\Metin2Client\UserInterface\GameType.h

; 192  :         cell = _cell;

  0002c	33 c0		 xor	 eax, eax
  0002e	c6 45 fd 00	 mov	 BYTE PTR $T1[ebp], 0
; File D:\Metin2 Server Files\mainline\SRC_2014\Metin2Client\UserInterface\PythonNetworkStreamModule.cpp

; 788  : 	rkNetStream.SendItemDropPacket(TItemPos(RESERVED_WINDOW, 0), (DWORD) iElk);

  00032	51		 push	 ecx
  00033	8b cc		 mov	 ecx, esp
; File D:\Metin2 Server Files\mainline\SRC_2014\Metin2Client\UserInterface\GameType.h

; 192  :         cell = _cell;

  00035	66 89 45 fe	 mov	 WORD PTR $T1[ebp+1], ax
; File D:\Metin2 Server Files\mainline\SRC_2014\Metin2Client\UserInterface\PythonNetworkStreamModule.cpp

; 788  : 	rkNetStream.SendItemDropPacket(TItemPos(RESERVED_WINDOW, 0), (DWORD) iElk);

  00039	66 8b 45 fd	 mov	 ax, WORD PTR $T1[ebp]
  0003d	66 89 01	 mov	 WORD PTR [ecx], ax
  00040	8a 45 ff	 mov	 al, BYTE PTR $T1[ebp+2]
  00043	88 41 02	 mov	 BYTE PTR [ecx+2], al
  00046	8b 0d 00 00 00
	00		 mov	 ecx, DWORD PTR ?ms_singleton@?$CSingleton@VCPythonNetworkStream@@@@0PAVCPythonNetworkStream@@A ; CSingleton<CPythonNetworkStream>::ms_singleton
  0004c	e8 00 00 00 00	 call	 ?SendItemDropPacket@CPythonNetworkStream@@QAE_NUSItemPos@@K@Z ; CPythonNetworkStream::SendItemDropPacket

; 789  : 	return Py_BuildNone();

  00051	e8 00 00 00 00	 call	 ?Py_BuildNone@@YAPAU_object@@XZ ; Py_BuildNone

; 790  : }

  00056	8b e5		 mov	 esp, ebp
  00058	5d		 pop	 ebp
  00059	c3		 ret	 0
?netSendElkDropPacket@@YAPAU_object@@PAU1@0@Z ENDP	; netSendElkDropPacket
_TEXT	ENDS
; Function compile flags: /Ogtp
; File D:\Metin2 Server Files\mainline\SRC_2014\Metin2Client\UserInterface\PythonNetworkStreamModule.cpp
; File D:\Metin2 Server Files\mainline\SRC_2014\Metin2Client\UserInterface\GameType.h
; File D:\Metin2 Server Files\mainline\SRC_2014\Metin2Client\UserInterface\PythonNetworkStreamModule.cpp
; File D:\Metin2 Server Files\mainline\SRC_2014\Metin2Client\UserInterface\GameType.h
; File D:\Metin2 Server Files\mainline\SRC_2014\Metin2Client\UserInterface\PythonNetworkStreamModule.cpp
;	COMDAT ?netSendItemDropPacketNew@@YAPAU_object@@PAU1@0@Z
_TEXT	SEGMENT
_count$ = -8						; size = 4
_Cell$ = -4						; size = 3
_poSelf$ = 8						; size = 4
_poArgs$ = 12						; size = 4
?netSendItemDropPacketNew@@YAPAU_object@@PAU1@0@Z PROC	; netSendItemDropPacketNew, COMDAT

; 752  : {

  00000	55		 push	 ebp
  00001	8b ec		 mov	 ebp, esp
  00003	83 ec 08	 sub	 esp, 8
  00006	56		 push	 esi

; 755  : 	switch (PyTuple_Size(poArgs))

  00007	8b 75 0c	 mov	 esi, DWORD PTR _poArgs$[ebp]
; File D:\Metin2 Server Files\mainline\SRC_2014\Metin2Client\UserInterface\GameType.h

; 187  : 		cell = WORD_MAX;

  0000a	b8 ff ff 00 00	 mov	 eax, 65535		; 0000ffffH
; File D:\Metin2 Server Files\mainline\SRC_2014\Metin2Client\UserInterface\PythonNetworkStreamModule.cpp

; 755  : 	switch (PyTuple_Size(poArgs))

  0000f	56		 push	 esi
; File D:\Metin2 Server Files\mainline\SRC_2014\Metin2Client\UserInterface\GameType.h

; 186  : 		window_type =     INVENTORY;

  00010	c6 45 fc 01	 mov	 BYTE PTR _Cell$[ebp], 1

; 187  : 		cell = WORD_MAX;

  00014	66 89 45 fd	 mov	 WORD PTR _Cell$[ebp+1], ax
; File D:\Metin2 Server Files\mainline\SRC_2014\Metin2Client\UserInterface\PythonNetworkStreamModule.cpp

; 755  : 	switch (PyTuple_Size(poArgs))

  00018	ff 15 00 00 00
	00		 call	 DWORD PTR __imp__PyTuple_Size
  0001e	83 c4 04	 add	 esp, 4
  00021	83 e8 02	 sub	 eax, 2
  00024	74 4d		 je	 SHORT $LN4@netSendIte
  00026	83 e8 01	 sub	 eax, 1
  00029	75 39		 jne	 SHORT $LN15@netSendIte

; 761  : 			return Py_BuildException();
; 762  : 
; 763  : 		break;
; 764  : 	case 3:
; 765  : 		if (!PyTuple_GetByte(poArgs, 0, &Cell.window_type))

  0002b	8d 45 fc	 lea	 eax, DWORD PTR _Cell$[ebp]
  0002e	50		 push	 eax
  0002f	6a 00		 push	 0
  00031	56		 push	 esi
  00032	e8 00 00 00 00	 call	 ?PyTuple_GetByte@@YA_NPAU_object@@HPAE@Z ; PyTuple_GetByte
  00037	83 c4 0c	 add	 esp, 12			; 0000000cH
  0003a	84 c0		 test	 al, al
  0003c	74 26		 je	 SHORT $LN15@netSendIte

; 766  : 			return Py_BuildException();
; 767  : 		if (!PyTuple_GetInteger(poArgs, 1, &Cell.cell))

  0003e	8d 45 fd	 lea	 eax, DWORD PTR _Cell$[ebp+1]
  00041	50		 push	 eax
  00042	6a 01		 push	 1
  00044	56		 push	 esi
  00045	e8 00 00 00 00	 call	 ?PyTuple_GetInteger@@YA_NPAU_object@@HPAG@Z ; PyTuple_GetInteger
  0004a	83 c4 0c	 add	 esp, 12			; 0000000cH
  0004d	84 c0		 test	 al, al
  0004f	74 13		 je	 SHORT $LN15@netSendIte

; 768  : 			return Py_BuildException();
; 769  : 		if (!PyTuple_GetInteger(poArgs, 2, &count))

  00051	8d 45 f8	 lea	 eax, DWORD PTR _count$[ebp]
  00054	50		 push	 eax
  00055	6a 02		 push	 2
  00057	56		 push	 esi
  00058	e8 00 00 00 00	 call	 ?PyTuple_GetInteger@@YA_NPAU_object@@HPAH@Z ; PyTuple_GetInteger
  0005d	83 c4 0c	 add	 esp, 12			; 0000000cH
  00060	84 c0		 test	 al, al
  00062	75 35		 jne	 SHORT $LN6@netSendIte
$LN15@netSendIte:

; 779  : }

  00064	6a 00		 push	 0
  00066	e8 00 00 00 00	 call	 ?Py_BuildException@@YAPAU_object@@PBDZZ ; Py_BuildException
  0006b	83 c4 04	 add	 esp, 4
  0006e	5e		 pop	 esi
  0006f	8b e5		 mov	 esp, ebp
  00071	5d		 pop	 ebp
  00072	c3		 ret	 0
$LN4@netSendIte:

; 756  : 	{
; 757  : 	case 2:
; 758  : 		if (!PyTuple_GetInteger(poArgs, 0, &Cell.cell))

  00073	8d 45 fd	 lea	 eax, DWORD PTR _Cell$[ebp+1]
  00076	50		 push	 eax
  00077	6a 00		 push	 0
  00079	56		 push	 esi
  0007a	e8 00 00 00 00	 call	 ?PyTuple_GetInteger@@YA_NPAU_object@@HPAG@Z ; PyTuple_GetInteger
  0007f	83 c4 0c	 add	 esp, 12			; 0000000cH
  00082	84 c0		 test	 al, al
  00084	74 de		 je	 SHORT $LN15@netSendIte

; 759  : 			return Py_BuildException();
; 760  : 		if (!PyTuple_GetInteger(poArgs, 1, &count))

  00086	8d 45 f8	 lea	 eax, DWORD PTR _count$[ebp]
  00089	50		 push	 eax
  0008a	6a 01		 push	 1
  0008c	56		 push	 esi
  0008d	e8 00 00 00 00	 call	 ?PyTuple_GetInteger@@YA_NPAU_object@@HPAH@Z ; PyTuple_GetInteger
  00092	83 c4 0c	 add	 esp, 12			; 0000000cH
  00095	84 c0		 test	 al, al
  00097	74 cb		 je	 SHORT $LN15@netSendIte
$LN6@netSendIte:

; 770  : 			return Py_BuildException();
; 771  : 		
; 772  : 		break;
; 773  : 	default:
; 774  : 		return Py_BuildException();
; 775  : 	}
; 776  : 	CPythonNetworkStream& rkNetStream=CPythonNetworkStream::Instance();
; 777  : 	rkNetStream.SendItemDropPacketNew(Cell, 0, count);

  00099	ff 75 f8	 push	 DWORD PTR _count$[ebp]
  0009c	66 8b 45 fc	 mov	 ax, WORD PTR _Cell$[ebp]
  000a0	6a 00		 push	 0
  000a2	51		 push	 ecx
  000a3	8b cc		 mov	 ecx, esp
  000a5	66 89 01	 mov	 WORD PTR [ecx], ax
  000a8	8a 45 fe	 mov	 al, BYTE PTR _Cell$[ebp+2]
  000ab	88 41 02	 mov	 BYTE PTR [ecx+2], al
  000ae	8b 0d 00 00 00
	00		 mov	 ecx, DWORD PTR ?ms_singleton@?$CSingleton@VCPythonNetworkStream@@@@0PAVCPythonNetworkStream@@A ; CSingleton<CPythonNetworkStream>::ms_singleton
  000b4	e8 00 00 00 00	 call	 ?SendItemDropPacketNew@CPythonNetworkStream@@QAE_NUSItemPos@@KK@Z ; CPythonNetworkStream::SendItemDropPacketNew

; 778  : 	return Py_BuildNone();

  000b9	e8 00 00 00 00	 call	 ?Py_BuildNone@@YAPAU_object@@XZ ; Py_BuildNone

; 779  : }

  000be	5e		 pop	 esi
  000bf	8b e5		 mov	 esp, ebp
  000c1	5d		 pop	 ebp
  000c2	c3		 ret	 0
?netSendItemDropPacketNew@@YAPAU_object@@PAU1@0@Z ENDP	; netSendItemDropPacketNew
_TEXT	ENDS
; Function compile flags: /Ogtp
; File D:\Metin2 Server Files\mainline\SRC_2014\Metin2Client\UserInterface\PythonNetworkStreamModule.cpp
; File D:\Metin2 Server Files\mainline\SRC_2014\Metin2Client\UserInterface\GameType.h
; File D:\Metin2 Server Files\mainline\SRC_2014\Metin2Client\UserInterface\PythonNetworkStreamModule.cpp
; File D:\Metin2 Server Files\mainline\SRC_2014\Metin2Client\UserInterface\GameType.h
; File D:\Metin2 Server Files\mainline\SRC_2014\Metin2Client\UserInterface\PythonNetworkStreamModule.cpp
;	COMDAT ?netSendItemDropPacket@@YAPAU_object@@PAU1@0@Z
_TEXT	SEGMENT
_Cell$ = -4						; size = 3
_poSelf$ = 8						; size = 4
_poArgs$ = 12						; size = 4
?netSendItemDropPacket@@YAPAU_object@@PAU1@0@Z PROC	; netSendItemDropPacket, COMDAT

; 727  : {

  00000	55		 push	 ebp
  00001	8b ec		 mov	 ebp, esp
  00003	51		 push	 ecx
  00004	56		 push	 esi

; 729  : 	switch (PyTuple_Size(poArgs))

  00005	8b 75 0c	 mov	 esi, DWORD PTR _poArgs$[ebp]
; File D:\Metin2 Server Files\mainline\SRC_2014\Metin2Client\UserInterface\GameType.h

; 187  : 		cell = WORD_MAX;

  00008	b8 ff ff 00 00	 mov	 eax, 65535		; 0000ffffH
; File D:\Metin2 Server Files\mainline\SRC_2014\Metin2Client\UserInterface\PythonNetworkStreamModule.cpp

; 729  : 	switch (PyTuple_Size(poArgs))

  0000d	56		 push	 esi
; File D:\Metin2 Server Files\mainline\SRC_2014\Metin2Client\UserInterface\GameType.h

; 186  : 		window_type =     INVENTORY;

  0000e	c6 45 fc 01	 mov	 BYTE PTR _Cell$[ebp], 1

; 187  : 		cell = WORD_MAX;

  00012	66 89 45 fd	 mov	 WORD PTR _Cell$[ebp+1], ax
; File D:\Metin2 Server Files\mainline\SRC_2014\Metin2Client\UserInterface\PythonNetworkStreamModule.cpp

; 729  : 	switch (PyTuple_Size(poArgs))

  00016	ff 15 00 00 00
	00		 call	 DWORD PTR __imp__PyTuple_Size
  0001c	83 c4 04	 add	 esp, 4
  0001f	83 e8 01	 sub	 eax, 1
  00022	74 20		 je	 SHORT $LN4@netSendIte
  00024	83 e8 01	 sub	 eax, 1
  00027	75 2e		 jne	 SHORT $LN13@netSendIte

; 733  : 			return Py_BuildException();
; 734  : 		break;
; 735  : 	case 2:
; 736  : 		if (!PyTuple_GetByte(poArgs, 0, &Cell.window_type))

  00029	8d 45 fc	 lea	 eax, DWORD PTR _Cell$[ebp]
  0002c	50		 push	 eax
  0002d	6a 00		 push	 0
  0002f	56		 push	 esi
  00030	e8 00 00 00 00	 call	 ?PyTuple_GetByte@@YA_NPAU_object@@HPAE@Z ; PyTuple_GetByte
  00035	83 c4 0c	 add	 esp, 12			; 0000000cH
  00038	84 c0		 test	 al, al
  0003a	74 1b		 je	 SHORT $LN13@netSendIte

; 737  : 			return Py_BuildException();
; 738  : 		if (!PyTuple_GetInteger(poArgs, 1, &Cell.cell))

  0003c	8d 45 fd	 lea	 eax, DWORD PTR _Cell$[ebp+1]
  0003f	50		 push	 eax
  00040	6a 01		 push	 1

; 739  : 			return Py_BuildException();

  00042	eb 06		 jmp	 SHORT $LN14@netSendIte
$LN4@netSendIte:

; 730  : 	{
; 731  : 	case 1:
; 732  : 		if (!PyTuple_GetInteger(poArgs, 0, &Cell.cell))

  00044	8d 45 fd	 lea	 eax, DWORD PTR _Cell$[ebp+1]
  00047	50		 push	 eax
  00048	6a 00		 push	 0
$LN14@netSendIte:

; 749  : }

  0004a	56		 push	 esi
  0004b	e8 00 00 00 00	 call	 ?PyTuple_GetInteger@@YA_NPAU_object@@HPAG@Z ; PyTuple_GetInteger
  00050	83 c4 0c	 add	 esp, 12			; 0000000cH
  00053	84 c0		 test	 al, al
  00055	75 0f		 jne	 SHORT $LN5@netSendIte
$LN13@netSendIte:
  00057	6a 00		 push	 0
  00059	e8 00 00 00 00	 call	 ?Py_BuildException@@YAPAU_object@@PBDZZ ; Py_BuildException
  0005e	83 c4 04	 add	 esp, 4
  00061	5e		 pop	 esi
  00062	8b e5		 mov	 esp, ebp
  00064	5d		 pop	 ebp
  00065	c3		 ret	 0
$LN5@netSendIte:

; 740  : 		break;
; 741  : 	default:
; 742  : 		return Py_BuildException();
; 743  : 	}
; 744  : 
; 745  : 
; 746  : 	CPythonNetworkStream& rkNetStream=CPythonNetworkStream::Instance();
; 747  : 	rkNetStream.SendItemDropPacket(Cell, 0);

  00066	66 8b 45 fc	 mov	 ax, WORD PTR _Cell$[ebp]
  0006a	6a 00		 push	 0
  0006c	51		 push	 ecx
  0006d	8b cc		 mov	 ecx, esp
  0006f	66 89 01	 mov	 WORD PTR [ecx], ax
  00072	8a 45 fe	 mov	 al, BYTE PTR _Cell$[ebp+2]
  00075	88 41 02	 mov	 BYTE PTR [ecx+2], al
  00078	8b 0d 00 00 00
	00		 mov	 ecx, DWORD PTR ?ms_singleton@?$CSingleton@VCPythonNetworkStream@@@@0PAVCPythonNetworkStream@@A ; CSingleton<CPythonNetworkStream>::ms_singleton
  0007e	e8 00 00 00 00	 call	 ?SendItemDropPacket@CPythonNetworkStream@@QAE_NUSItemPos@@K@Z ; CPythonNetworkStream::SendItemDropPacket

; 748  : 	return Py_BuildNone();

  00083	e8 00 00 00 00	 call	 ?Py_BuildNone@@YAPAU_object@@XZ ; Py_BuildNone

; 749  : }

  00088	5e		 pop	 esi
  00089	8b e5		 mov	 esp, ebp
  0008b	5d		 pop	 ebp
  0008c	c3		 ret	 0
?netSendItemDropPacket@@YAPAU_object@@PAU1@0@Z ENDP	; netSendItemDropPacket
_TEXT	ENDS
; Function compile flags: /Ogtp
; File D:\Metin2 Server Files\mainline\SRC_2014\Metin2Client\UserInterface\PythonNetworkStreamModule.cpp
; File D:\Metin2 Server Files\mainline\SRC_2014\Metin2Client\UserInterface\GameType.h
; File D:\Metin2 Server Files\mainline\SRC_2014\Metin2Client\UserInterface\PythonNetworkStreamModule.cpp
; File D:\Metin2 Server Files\mainline\SRC_2014\Metin2Client\UserInterface\GameType.h
; File D:\Metin2 Server Files\mainline\SRC_2014\Metin2Client\UserInterface\PythonNetworkStreamModule.cpp
;	COMDAT ?netSendItemUseToItemPacket@@YAPAU_object@@PAU1@0@Z
_TEXT	SEGMENT
_SourceCell$ = -8					; size = 3
_TargetCell$ = -4					; size = 3
_poSelf$ = 8						; size = 4
_poArgs$ = 12						; size = 4
?netSendItemUseToItemPacket@@YAPAU_object@@PAU1@0@Z PROC ; netSendItemUseToItemPacket, COMDAT

; 693  : {

  00000	55		 push	 ebp
  00001	8b ec		 mov	 ebp, esp
  00003	83 ec 08	 sub	 esp, 8
  00006	56		 push	 esi

; 696  : 	switch (PyTuple_Size(poArgs))

  00007	8b 75 0c	 mov	 esi, DWORD PTR _poArgs$[ebp]
; File D:\Metin2 Server Files\mainline\SRC_2014\Metin2Client\UserInterface\GameType.h

; 187  : 		cell = WORD_MAX;

  0000a	b8 ff ff 00 00	 mov	 eax, 65535		; 0000ffffH
; File D:\Metin2 Server Files\mainline\SRC_2014\Metin2Client\UserInterface\PythonNetworkStreamModule.cpp

; 696  : 	switch (PyTuple_Size(poArgs))

  0000f	56		 push	 esi
; File D:\Metin2 Server Files\mainline\SRC_2014\Metin2Client\UserInterface\GameType.h

; 186  : 		window_type =     INVENTORY;

  00010	c6 45 f8 01	 mov	 BYTE PTR _SourceCell$[ebp], 1

; 187  : 		cell = WORD_MAX;

  00014	66 89 45 f9	 mov	 WORD PTR _SourceCell$[ebp+1], ax

; 186  : 		window_type =     INVENTORY;

  00018	c6 45 fc 01	 mov	 BYTE PTR _TargetCell$[ebp], 1

; 187  : 		cell = WORD_MAX;

  0001c	66 89 45 fd	 mov	 WORD PTR _TargetCell$[ebp+1], ax
; File D:\Metin2 Server Files\mainline\SRC_2014\Metin2Client\UserInterface\PythonNetworkStreamModule.cpp

; 696  : 	switch (PyTuple_Size(poArgs))

  00020	ff 15 00 00 00
	00		 call	 DWORD PTR __imp__PyTuple_Size
  00026	83 c4 04	 add	 esp, 4
  00029	83 e8 02	 sub	 eax, 2
  0002c	74 60		 je	 SHORT $LN4@netSendIte
  0002e	83 e8 02	 sub	 eax, 2
  00031	75 4c		 jne	 SHORT $LN18@netSendIte

; 703  : 			return Py_BuildException();
; 704  : 		break;
; 705  : 	case 4:
; 706  : 		if (!PyTuple_GetByte(poArgs, 0, &SourceCell.window_type))

  00033	8d 45 f8	 lea	 eax, DWORD PTR _SourceCell$[ebp]
  00036	50		 push	 eax
  00037	6a 00		 push	 0
  00039	56		 push	 esi
  0003a	e8 00 00 00 00	 call	 ?PyTuple_GetByte@@YA_NPAU_object@@HPAE@Z ; PyTuple_GetByte
  0003f	83 c4 0c	 add	 esp, 12			; 0000000cH
  00042	84 c0		 test	 al, al
  00044	74 39		 je	 SHORT $LN18@netSendIte

; 707  : 			return Py_BuildException();
; 708  : 
; 709  : 		if (!PyTuple_GetInteger(poArgs, 1, &SourceCell.cell))

  00046	8d 45 f9	 lea	 eax, DWORD PTR _SourceCell$[ebp+1]
  00049	50		 push	 eax
  0004a	6a 01		 push	 1
  0004c	56		 push	 esi
  0004d	e8 00 00 00 00	 call	 ?PyTuple_GetInteger@@YA_NPAU_object@@HPAG@Z ; PyTuple_GetInteger
  00052	83 c4 0c	 add	 esp, 12			; 0000000cH
  00055	84 c0		 test	 al, al
  00057	74 26		 je	 SHORT $LN18@netSendIte

; 710  : 			return Py_BuildException();
; 711  : 
; 712  : 		if (!PyTuple_GetByte(poArgs, 2, &TargetCell.window_type))

  00059	8d 45 fc	 lea	 eax, DWORD PTR _TargetCell$[ebp]
  0005c	50		 push	 eax
  0005d	6a 02		 push	 2
  0005f	56		 push	 esi
  00060	e8 00 00 00 00	 call	 ?PyTuple_GetByte@@YA_NPAU_object@@HPAE@Z ; PyTuple_GetByte
  00065	83 c4 0c	 add	 esp, 12			; 0000000cH
  00068	84 c0		 test	 al, al
  0006a	74 13		 je	 SHORT $LN18@netSendIte

; 713  : 			return Py_BuildException();
; 714  : 
; 715  : 		if (!PyTuple_GetInteger(poArgs, 3, &TargetCell.cell))

  0006c	8d 45 fd	 lea	 eax, DWORD PTR _TargetCell$[ebp+1]
  0006f	50		 push	 eax
  00070	6a 03		 push	 3
  00072	56		 push	 esi
  00073	e8 00 00 00 00	 call	 ?PyTuple_GetInteger@@YA_NPAU_object@@HPAG@Z ; PyTuple_GetInteger
  00078	83 c4 0c	 add	 esp, 12			; 0000000cH
  0007b	84 c0		 test	 al, al
  0007d	75 35		 jne	 SHORT $LN6@netSendIte
$LN18@netSendIte:

; 724  : }

  0007f	6a 00		 push	 0
  00081	e8 00 00 00 00	 call	 ?Py_BuildException@@YAPAU_object@@PBDZZ ; Py_BuildException
  00086	83 c4 04	 add	 esp, 4
  00089	5e		 pop	 esi
  0008a	8b e5		 mov	 esp, ebp
  0008c	5d		 pop	 ebp
  0008d	c3		 ret	 0
$LN4@netSendIte:

; 697  : 	{
; 698  : 	case 2:
; 699  : 		if (!PyTuple_GetInteger(poArgs, 0, &SourceCell.cell))

  0008e	8d 45 f9	 lea	 eax, DWORD PTR _SourceCell$[ebp+1]
  00091	50		 push	 eax
  00092	6a 00		 push	 0
  00094	56		 push	 esi
  00095	e8 00 00 00 00	 call	 ?PyTuple_GetInteger@@YA_NPAU_object@@HPAG@Z ; PyTuple_GetInteger
  0009a	83 c4 0c	 add	 esp, 12			; 0000000cH
  0009d	84 c0		 test	 al, al
  0009f	74 de		 je	 SHORT $LN18@netSendIte

; 700  : 			return Py_BuildException();
; 701  : 
; 702  : 		if (!PyTuple_GetInteger(poArgs, 1, &TargetCell.cell))

  000a1	8d 45 fd	 lea	 eax, DWORD PTR _TargetCell$[ebp+1]
  000a4	50		 push	 eax
  000a5	6a 01		 push	 1
  000a7	56		 push	 esi
  000a8	e8 00 00 00 00	 call	 ?PyTuple_GetInteger@@YA_NPAU_object@@HPAG@Z ; PyTuple_GetInteger
  000ad	83 c4 0c	 add	 esp, 12			; 0000000cH
  000b0	84 c0		 test	 al, al
  000b2	74 cb		 je	 SHORT $LN18@netSendIte
$LN6@netSendIte:

; 716  : 			return Py_BuildException();
; 717  : 		break;
; 718  : 	default:
; 719  : 		return Py_BuildException();
; 720  : 	}
; 721  : 	CPythonNetworkStream& rkNetStream=CPythonNetworkStream::Instance();
; 722  : 	rkNetStream.SendItemUseToItemPacket(SourceCell, TargetCell);

  000b4	0f b7 45 fc	 movzx	 eax, WORD PTR _TargetCell$[ebp]
  000b8	51		 push	 ecx
  000b9	8b cc		 mov	 ecx, esp
  000bb	51		 push	 ecx
  000bc	66 89 01	 mov	 WORD PTR [ecx], ax
  000bf	8a 45 fe	 mov	 al, BYTE PTR _TargetCell$[ebp+2]
  000c2	88 41 02	 mov	 BYTE PTR [ecx+2], al
  000c5	8b cc		 mov	 ecx, esp
  000c7	0f b7 45 f8	 movzx	 eax, WORD PTR _SourceCell$[ebp]
  000cb	66 89 01	 mov	 WORD PTR [ecx], ax
  000ce	8a 45 fa	 mov	 al, BYTE PTR _SourceCell$[ebp+2]
  000d1	88 41 02	 mov	 BYTE PTR [ecx+2], al
  000d4	8b 0d 00 00 00
	00		 mov	 ecx, DWORD PTR ?ms_singleton@?$CSingleton@VCPythonNetworkStream@@@@0PAVCPythonNetworkStream@@A ; CSingleton<CPythonNetworkStream>::ms_singleton
  000da	e8 00 00 00 00	 call	 ?SendItemUseToItemPacket@CPythonNetworkStream@@QAE_NUSItemPos@@0@Z ; CPythonNetworkStream::SendItemUseToItemPacket

; 723  : 	return Py_BuildNone();

  000df	e8 00 00 00 00	 call	 ?Py_BuildNone@@YAPAU_object@@XZ ; Py_BuildNone

; 724  : }

  000e4	5e		 pop	 esi
  000e5	8b e5		 mov	 esp, ebp
  000e7	5d		 pop	 ebp
  000e8	c3		 ret	 0
?netSendItemUseToItemPacket@@YAPAU_object@@PAU1@0@Z ENDP ; netSendItemUseToItemPacket
_TEXT	ENDS
; Function compile flags: /Ogtp
; File D:\Metin2 Server Files\mainline\SRC_2014\Metin2Client\UserInterface\PythonNetworkStreamModule.cpp
; File D:\Metin2 Server Files\mainline\SRC_2014\Metin2Client\UserInterface\GameType.h
; File D:\Metin2 Server Files\mainline\SRC_2014\Metin2Client\UserInterface\PythonNetworkStreamModule.cpp
; File D:\Metin2 Server Files\mainline\SRC_2014\Metin2Client\UserInterface\GameType.h
; File D:\Metin2 Server Files\mainline\SRC_2014\Metin2Client\UserInterface\PythonNetworkStreamModule.cpp
;	COMDAT ?netSendItemUsePacket@@YAPAU_object@@PAU1@0@Z
_TEXT	SEGMENT
_Cell$ = -4						; size = 3
_poSelf$ = 8						; size = 4
_poArgs$ = 12						; size = 4
?netSendItemUsePacket@@YAPAU_object@@PAU1@0@Z PROC	; netSendItemUsePacket, COMDAT

; 669  : {

  00000	55		 push	 ebp
  00001	8b ec		 mov	 ebp, esp
  00003	51		 push	 ecx
  00004	56		 push	 esi

; 671  : 	switch (PyTuple_Size(poArgs))

  00005	8b 75 0c	 mov	 esi, DWORD PTR _poArgs$[ebp]
; File D:\Metin2 Server Files\mainline\SRC_2014\Metin2Client\UserInterface\GameType.h

; 187  : 		cell = WORD_MAX;

  00008	b8 ff ff 00 00	 mov	 eax, 65535		; 0000ffffH
; File D:\Metin2 Server Files\mainline\SRC_2014\Metin2Client\UserInterface\PythonNetworkStreamModule.cpp

; 671  : 	switch (PyTuple_Size(poArgs))

  0000d	56		 push	 esi
; File D:\Metin2 Server Files\mainline\SRC_2014\Metin2Client\UserInterface\GameType.h

; 186  : 		window_type =     INVENTORY;

  0000e	c6 45 fc 01	 mov	 BYTE PTR _Cell$[ebp], 1

; 187  : 		cell = WORD_MAX;

  00012	66 89 45 fd	 mov	 WORD PTR _Cell$[ebp+1], ax
; File D:\Metin2 Server Files\mainline\SRC_2014\Metin2Client\UserInterface\PythonNetworkStreamModule.cpp

; 671  : 	switch (PyTuple_Size(poArgs))

  00016	ff 15 00 00 00
	00		 call	 DWORD PTR __imp__PyTuple_Size
  0001c	83 c4 04	 add	 esp, 4
  0001f	83 e8 01	 sub	 eax, 1
  00022	74 20		 je	 SHORT $LN4@netSendIte
  00024	83 e8 01	 sub	 eax, 1
  00027	75 2e		 jne	 SHORT $LN13@netSendIte

; 675  : 			return Py_BuildException();
; 676  : 		break;
; 677  : 	case 2:
; 678  : 		if (!PyTuple_GetByte(poArgs, 0, &Cell.window_type))

  00029	8d 45 fc	 lea	 eax, DWORD PTR _Cell$[ebp]
  0002c	50		 push	 eax
  0002d	6a 00		 push	 0
  0002f	56		 push	 esi
  00030	e8 00 00 00 00	 call	 ?PyTuple_GetByte@@YA_NPAU_object@@HPAE@Z ; PyTuple_GetByte
  00035	83 c4 0c	 add	 esp, 12			; 0000000cH
  00038	84 c0		 test	 al, al
  0003a	74 1b		 je	 SHORT $LN13@netSendIte

; 679  : 			return Py_BuildException();
; 680  : 		if (!PyTuple_GetInteger(poArgs, 1, &Cell.cell))

  0003c	8d 45 fd	 lea	 eax, DWORD PTR _Cell$[ebp+1]
  0003f	50		 push	 eax
  00040	6a 01		 push	 1

; 681  : 			return Py_BuildException();

  00042	eb 06		 jmp	 SHORT $LN14@netSendIte
$LN4@netSendIte:

; 672  : 	{
; 673  : 	case 1:
; 674  : 		if (!PyTuple_GetInteger(poArgs, 0, &Cell.cell))

  00044	8d 45 fd	 lea	 eax, DWORD PTR _Cell$[ebp+1]
  00047	50		 push	 eax
  00048	6a 00		 push	 0
$LN14@netSendIte:

; 690  : }

  0004a	56		 push	 esi
  0004b	e8 00 00 00 00	 call	 ?PyTuple_GetInteger@@YA_NPAU_object@@HPAG@Z ; PyTuple_GetInteger
  00050	83 c4 0c	 add	 esp, 12			; 0000000cH
  00053	84 c0		 test	 al, al
  00055	75 0f		 jne	 SHORT $LN5@netSendIte
$LN13@netSendIte:
  00057	6a 00		 push	 0
  00059	e8 00 00 00 00	 call	 ?Py_BuildException@@YAPAU_object@@PBDZZ ; Py_BuildException
  0005e	83 c4 04	 add	 esp, 4
  00061	5e		 pop	 esi
  00062	8b e5		 mov	 esp, ebp
  00064	5d		 pop	 ebp
  00065	c3		 ret	 0
$LN5@netSendIte:

; 682  : 		break;
; 683  : 	default:
; 684  : 		return Py_BuildException();
; 685  : 	}
; 686  : 
; 687  : 	CPythonNetworkStream& rkNetStream=CPythonNetworkStream::Instance();
; 688  : 	rkNetStream.SendItemUsePacket(Cell);

  00066	66 8b 45 fc	 mov	 ax, WORD PTR _Cell$[ebp]
  0006a	51		 push	 ecx
  0006b	8b cc		 mov	 ecx, esp
  0006d	66 89 01	 mov	 WORD PTR [ecx], ax
  00070	8a 45 fe	 mov	 al, BYTE PTR _Cell$[ebp+2]
  00073	88 41 02	 mov	 BYTE PTR [ecx+2], al
  00076	8b 0d 00 00 00
	00		 mov	 ecx, DWORD PTR ?ms_singleton@?$CSingleton@VCPythonNetworkStream@@@@0PAVCPythonNetworkStream@@A ; CSingleton<CPythonNetworkStream>::ms_singleton
  0007c	e8 00 00 00 00	 call	 ?SendItemUsePacket@CPythonNetworkStream@@QAE_NUSItemPos@@@Z ; CPythonNetworkStream::SendItemUsePacket

; 689  : 	return Py_BuildNone();

  00081	e8 00 00 00 00	 call	 ?Py_BuildNone@@YAPAU_object@@XZ ; Py_BuildNone

; 690  : }

  00086	5e		 pop	 esi
  00087	8b e5		 mov	 esp, ebp
  00089	5d		 pop	 ebp
  0008a	c3		 ret	 0
?netSendItemUsePacket@@YAPAU_object@@PAU1@0@Z ENDP	; netSendItemUsePacket
_TEXT	ENDS
; Function compile flags: /Ogtp
; File D:\Metin2 Server Files\mainline\SRC_2014\Metin2Client\UserInterface\PythonNetworkStreamModule.cpp
;	COMDAT ?netOnClickPacket@@YAPAU_object@@PAU1@0@Z
_TEXT	SEGMENT
_index$ = -4						; size = 4
_poSelf$ = 8						; size = 4
_poArgs$ = 12						; size = 4
?netOnClickPacket@@YAPAU_object@@PAU1@0@Z PROC		; netOnClickPacket, COMDAT

; 657  : {

  00000	55		 push	 ebp
  00001	8b ec		 mov	 ebp, esp
  00003	51		 push	 ecx

; 658  : 	int index;
; 659  : 	if (!PyTuple_GetInteger(poArgs, 0, &index))

  00004	8d 45 fc	 lea	 eax, DWORD PTR _index$[ebp]
  00007	50		 push	 eax
  00008	6a 00		 push	 0
  0000a	ff 75 0c	 push	 DWORD PTR _poArgs$[ebp]
  0000d	e8 00 00 00 00	 call	 ?PyTuple_GetInteger@@YA_NPAU_object@@HPAH@Z ; PyTuple_GetInteger
  00012	83 c4 0c	 add	 esp, 12			; 0000000cH
  00015	84 c0		 test	 al, al
  00017	75 0e		 jne	 SHORT $LN2@netOnClick

; 660  : 		return Py_BuildException();

  00019	6a 00		 push	 0
  0001b	e8 00 00 00 00	 call	 ?Py_BuildException@@YAPAU_object@@PBDZZ ; Py_BuildException
  00020	83 c4 04	 add	 esp, 4

; 666  : }

  00023	8b e5		 mov	 esp, ebp
  00025	5d		 pop	 ebp
  00026	c3		 ret	 0
$LN2@netOnClick:

; 661  : 
; 662  : 	CPythonNetworkStream& rkNetStream=CPythonNetworkStream::Instance();
; 663  : 	rkNetStream.SendOnClickPacket(index);

  00027	ff 75 fc	 push	 DWORD PTR _index$[ebp]
  0002a	8b 0d 00 00 00
	00		 mov	 ecx, DWORD PTR ?ms_singleton@?$CSingleton@VCPythonNetworkStream@@@@0PAVCPythonNetworkStream@@A ; CSingleton<CPythonNetworkStream>::ms_singleton
  00030	e8 00 00 00 00	 call	 ?SendOnClickPacket@CPythonNetworkStream@@QAE_NK@Z ; CPythonNetworkStream::SendOnClickPacket

; 664  : 
; 665  : 	return Py_BuildNone();

  00035	e8 00 00 00 00	 call	 ?Py_BuildNone@@YAPAU_object@@XZ ; Py_BuildNone

; 666  : }

  0003a	8b e5		 mov	 esp, ebp
  0003c	5d		 pop	 ebp
  0003d	c3		 ret	 0
?netOnClickPacket@@YAPAU_object@@PAU1@0@Z ENDP		; netOnClickPacket
_TEXT	ENDS
; Function compile flags: /Ogtp
; File D:\Metin2 Server Files\mainline\SRC_2014\Metin2Client\UserInterface\PythonNetworkStreamModule.cpp
;	COMDAT ?netSendEnterGamePacket@@YAPAU_object@@PAU1@0@Z
_TEXT	SEGMENT
_poSelf$ = 8						; size = 4
_poArgs$ = 12						; size = 4
?netSendEnterGamePacket@@YAPAU_object@@PAU1@0@Z PROC	; netSendEnterGamePacket, COMDAT

; 651  : 	CPythonNetworkStream& rkNetStream=CPythonNetworkStream::Instance();
; 652  : 	rkNetStream.SendEnterGame();

  00000	8b 0d 00 00 00
	00		 mov	 ecx, DWORD PTR ?ms_singleton@?$CSingleton@VCPythonNetworkStream@@@@0PAVCPythonNetworkStream@@A ; CSingleton<CPythonNetworkStream>::ms_singleton
  00006	e8 00 00 00 00	 call	 ?SendEnterGame@CPythonNetworkStream@@QAE_NXZ ; CPythonNetworkStream::SendEnterGame

; 653  : 	return Py_BuildNone();

  0000b	e9 00 00 00 00	 jmp	 ?Py_BuildNone@@YAPAU_object@@XZ ; Py_BuildNone
?netSendEnterGamePacket@@YAPAU_object@@PAU1@0@Z ENDP	; netSendEnterGamePacket
_TEXT	ENDS
; Function compile flags: /Ogtp
; File D:\Metin2 Server Files\mainline\SRC_2014\Metin2Client\UserInterface\PythonNetworkStreamModule.cpp
;	COMDAT ?netSendDestroyCharacterPacket@@YAPAU_object@@PAU1@0@Z
_TEXT	SEGMENT
_szPrivateCode$ = -8					; size = 4
_index$ = -4						; size = 4
_poSelf$ = 8						; size = 4
_poArgs$ = 12						; size = 4
?netSendDestroyCharacterPacket@@YAPAU_object@@PAU1@0@Z PROC ; netSendDestroyCharacterPacket, COMDAT

; 632  : {

  00000	55		 push	 ebp
  00001	8b ec		 mov	 ebp, esp
  00003	83 ec 08	 sub	 esp, 8

; 633  : 	int index;
; 634  : 	if (!PyTuple_GetInteger(poArgs, 0, &index))

  00006	8d 45 fc	 lea	 eax, DWORD PTR _index$[ebp]
  00009	50		 push	 eax
  0000a	6a 00		 push	 0
  0000c	ff 75 0c	 push	 DWORD PTR _poArgs$[ebp]
  0000f	e8 00 00 00 00	 call	 ?PyTuple_GetInteger@@YA_NPAU_object@@HPAH@Z ; PyTuple_GetInteger
  00014	83 c4 0c	 add	 esp, 12			; 0000000cH
  00017	84 c0		 test	 al, al
  00019	75 0e		 jne	 SHORT $LN2@netSendDes
$LN6@netSendDes:

; 647  : }

  0001b	6a 00		 push	 0
  0001d	e8 00 00 00 00	 call	 ?Py_BuildException@@YAPAU_object@@PBDZZ ; Py_BuildException
  00022	83 c4 04	 add	 esp, 4
  00025	8b e5		 mov	 esp, ebp
  00027	5d		 pop	 ebp
  00028	c3		 ret	 0
$LN2@netSendDes:

; 635  : 		return Py_BuildException();
; 636  : 
; 637  : 	char * szPrivateCode;
; 638  : 	if (!PyTuple_GetString(poArgs, 1, &szPrivateCode))

  00029	8d 45 f8	 lea	 eax, DWORD PTR _szPrivateCode$[ebp]
  0002c	50		 push	 eax
  0002d	6a 01		 push	 1
  0002f	ff 75 0c	 push	 DWORD PTR _poArgs$[ebp]
  00032	e8 00 00 00 00	 call	 ?PyTuple_GetString@@YA_NPAU_object@@HPAPAD@Z ; PyTuple_GetString
  00037	83 c4 0c	 add	 esp, 12			; 0000000cH
  0003a	84 c0		 test	 al, al
  0003c	74 dd		 je	 SHORT $LN6@netSendDes

; 639  : 		return Py_BuildException();
; 640  : 
; 641  : 	if (index<0 && index>3)

  0003e	8b 45 fc	 mov	 eax, DWORD PTR _index$[ebp]
  00041	85 c0		 test	 eax, eax
  00043	79 05		 jns	 SHORT $LN4@netSendDes
  00045	83 f8 03	 cmp	 eax, 3
  00048	7f d1		 jg	 SHORT $LN6@netSendDes
$LN4@netSendDes:

; 642  : 		return Py_BuildException();
; 643  : 	
; 644  : 	CPythonNetworkStream& rkNetStream=CPythonNetworkStream::Instance();
; 645  : 	rkNetStream.SendDestroyCharacterPacket((BYTE) index, szPrivateCode);

  0004a	ff 75 f8	 push	 DWORD PTR _szPrivateCode$[ebp]
  0004d	8b 0d 00 00 00
	00		 mov	 ecx, DWORD PTR ?ms_singleton@?$CSingleton@VCPythonNetworkStream@@@@0PAVCPythonNetworkStream@@A ; CSingleton<CPythonNetworkStream>::ms_singleton
  00053	50		 push	 eax
  00054	e8 00 00 00 00	 call	 ?SendDestroyCharacterPacket@CPythonNetworkStream@@QAE_NEPBD@Z ; CPythonNetworkStream::SendDestroyCharacterPacket

; 646  : 	return Py_BuildNone();

  00059	e8 00 00 00 00	 call	 ?Py_BuildNone@@YAPAU_object@@XZ ; Py_BuildNone

; 647  : }

  0005e	8b e5		 mov	 esp, ebp
  00060	5d		 pop	 ebp
  00061	c3		 ret	 0
?netSendDestroyCharacterPacket@@YAPAU_object@@PAU1@0@Z ENDP ; netSendDestroyCharacterPacket
_TEXT	ENDS
; Function compile flags: /Ogtp
; File D:\Metin2 Server Files\mainline\SRC_2014\Metin2Client\UserInterface\PythonNetworkStreamModule.cpp
;	COMDAT ?netSendCreateCharacterPacket@@YAPAU_object@@PAU1@0@Z
_TEXT	SEGMENT
_name$ = -32						; size = 4
_job$ = -28						; size = 4
_shape$ = -24						; size = 4
_stat1$ = -20						; size = 4
_stat2$ = -16						; size = 4
_stat3$ = -12						; size = 4
_stat4$ = -8						; size = 4
_index$ = -4						; size = 4
_poSelf$ = 8						; size = 4
_poArgs$ = 12						; size = 4
?netSendCreateCharacterPacket@@YAPAU_object@@PAU1@0@Z PROC ; netSendCreateCharacterPacket, COMDAT

; 593  : {

  00000	55		 push	 ebp
  00001	8b ec		 mov	 ebp, esp
  00003	83 ec 20	 sub	 esp, 32			; 00000020H

; 594  : 	int index;
; 595  : 	if (!PyTuple_GetInteger(poArgs, 0, &index))

  00006	8d 45 fc	 lea	 eax, DWORD PTR _index$[ebp]
  00009	56		 push	 esi
  0000a	8b 75 0c	 mov	 esi, DWORD PTR _poArgs$[ebp]
  0000d	50		 push	 eax
  0000e	6a 00		 push	 0
  00010	56		 push	 esi
  00011	e8 00 00 00 00	 call	 ?PyTuple_GetInteger@@YA_NPAU_object@@HPAH@Z ; PyTuple_GetInteger
  00016	83 c4 0c	 add	 esp, 12			; 0000000cH
  00019	84 c0		 test	 al, al
  0001b	75 0f		 jne	 SHORT $LN2@netSendCre
$LN12@netSendCre:

; 629  : }

  0001d	6a 00		 push	 0
  0001f	e8 00 00 00 00	 call	 ?Py_BuildException@@YAPAU_object@@PBDZZ ; Py_BuildException
  00024	83 c4 04	 add	 esp, 4
  00027	5e		 pop	 esi
  00028	8b e5		 mov	 esp, ebp
  0002a	5d		 pop	 ebp
  0002b	c3		 ret	 0
$LN2@netSendCre:

; 596  : 		return Py_BuildException();
; 597  : 
; 598  : 	char* name;
; 599  : 	if (!PyTuple_GetString(poArgs, 1, &name))

  0002c	8d 45 e0	 lea	 eax, DWORD PTR _name$[ebp]
  0002f	50		 push	 eax
  00030	6a 01		 push	 1
  00032	56		 push	 esi
  00033	e8 00 00 00 00	 call	 ?PyTuple_GetString@@YA_NPAU_object@@HPAPAD@Z ; PyTuple_GetString
  00038	83 c4 0c	 add	 esp, 12			; 0000000cH
  0003b	84 c0		 test	 al, al
  0003d	74 de		 je	 SHORT $LN12@netSendCre

; 600  : 		return Py_BuildException();
; 601  : 
; 602  : 	int job;
; 603  : 	if (!PyTuple_GetInteger(poArgs, 2, &job))

  0003f	8d 45 e4	 lea	 eax, DWORD PTR _job$[ebp]
  00042	50		 push	 eax
  00043	6a 02		 push	 2
  00045	56		 push	 esi
  00046	e8 00 00 00 00	 call	 ?PyTuple_GetInteger@@YA_NPAU_object@@HPAH@Z ; PyTuple_GetInteger
  0004b	83 c4 0c	 add	 esp, 12			; 0000000cH
  0004e	84 c0		 test	 al, al
  00050	74 cb		 je	 SHORT $LN12@netSendCre

; 604  : 		return Py_BuildException();
; 605  : 
; 606  : 	int shape;
; 607  : 	if (!PyTuple_GetInteger(poArgs, 3, &shape))

  00052	8d 45 e8	 lea	 eax, DWORD PTR _shape$[ebp]
  00055	50		 push	 eax
  00056	6a 03		 push	 3
  00058	56		 push	 esi
  00059	e8 00 00 00 00	 call	 ?PyTuple_GetInteger@@YA_NPAU_object@@HPAH@Z ; PyTuple_GetInteger
  0005e	83 c4 0c	 add	 esp, 12			; 0000000cH
  00061	84 c0		 test	 al, al
  00063	74 b8		 je	 SHORT $LN12@netSendCre

; 608  : 		return Py_BuildException();
; 609  : 
; 610  : 	int stat1;
; 611  : 	if (!PyTuple_GetInteger(poArgs, 4, &stat1))

  00065	8d 45 ec	 lea	 eax, DWORD PTR _stat1$[ebp]
  00068	50		 push	 eax
  00069	6a 04		 push	 4
  0006b	56		 push	 esi
  0006c	e8 00 00 00 00	 call	 ?PyTuple_GetInteger@@YA_NPAU_object@@HPAH@Z ; PyTuple_GetInteger
  00071	83 c4 0c	 add	 esp, 12			; 0000000cH
  00074	84 c0		 test	 al, al
  00076	74 a5		 je	 SHORT $LN12@netSendCre

; 612  : 		return Py_BuildException();
; 613  : 	int stat2;
; 614  : 	if (!PyTuple_GetInteger(poArgs, 5, &stat2))

  00078	8d 45 f0	 lea	 eax, DWORD PTR _stat2$[ebp]
  0007b	50		 push	 eax
  0007c	6a 05		 push	 5
  0007e	56		 push	 esi
  0007f	e8 00 00 00 00	 call	 ?PyTuple_GetInteger@@YA_NPAU_object@@HPAH@Z ; PyTuple_GetInteger
  00084	83 c4 0c	 add	 esp, 12			; 0000000cH
  00087	84 c0		 test	 al, al
  00089	74 92		 je	 SHORT $LN12@netSendCre

; 615  : 		return Py_BuildException();
; 616  : 	int stat3;
; 617  : 	if (!PyTuple_GetInteger(poArgs, 6, &stat3))

  0008b	8d 45 f4	 lea	 eax, DWORD PTR _stat3$[ebp]
  0008e	50		 push	 eax
  0008f	6a 06		 push	 6
  00091	56		 push	 esi
  00092	e8 00 00 00 00	 call	 ?PyTuple_GetInteger@@YA_NPAU_object@@HPAH@Z ; PyTuple_GetInteger
  00097	83 c4 0c	 add	 esp, 12			; 0000000cH
  0009a	84 c0		 test	 al, al
  0009c	0f 84 7b ff ff
	ff		 je	 $LN12@netSendCre

; 618  : 		return Py_BuildException();
; 619  : 	int stat4;
; 620  : 	if (!PyTuple_GetInteger(poArgs, 7, &stat4))

  000a2	8d 45 f8	 lea	 eax, DWORD PTR _stat4$[ebp]
  000a5	50		 push	 eax
  000a6	6a 07		 push	 7
  000a8	56		 push	 esi
  000a9	e8 00 00 00 00	 call	 ?PyTuple_GetInteger@@YA_NPAU_object@@HPAH@Z ; PyTuple_GetInteger
  000ae	83 c4 0c	 add	 esp, 12			; 0000000cH
  000b1	84 c0		 test	 al, al
  000b3	0f 84 64 ff ff
	ff		 je	 $LN12@netSendCre

; 621  : 		return Py_BuildException();
; 622  : 
; 623  : 	if (index<0 && index>3)

  000b9	8b 45 fc	 mov	 eax, DWORD PTR _index$[ebp]
  000bc	85 c0		 test	 eax, eax
  000be	79 09		 jns	 SHORT $LN10@netSendCre
  000c0	83 f8 03	 cmp	 eax, 3
  000c3	0f 8f 54 ff ff
	ff		 jg	 $LN12@netSendCre
$LN10@netSendCre:

; 624  : 		return Py_BuildException();
; 625  : 
; 626  : 	CPythonNetworkStream& rkNetStream=CPythonNetworkStream::Instance();
; 627  : 	rkNetStream.SendCreateCharacterPacket((BYTE) index, name, (BYTE) job, (BYTE) shape, stat1, stat2, stat3, stat4);

  000c9	ff 75 f8	 push	 DWORD PTR _stat4$[ebp]
  000cc	8b 0d 00 00 00
	00		 mov	 ecx, DWORD PTR ?ms_singleton@?$CSingleton@VCPythonNetworkStream@@@@0PAVCPythonNetworkStream@@A ; CSingleton<CPythonNetworkStream>::ms_singleton
  000d2	ff 75 f4	 push	 DWORD PTR _stat3$[ebp]
  000d5	ff 75 f0	 push	 DWORD PTR _stat2$[ebp]
  000d8	ff 75 ec	 push	 DWORD PTR _stat1$[ebp]
  000db	ff 75 e8	 push	 DWORD PTR _shape$[ebp]
  000de	ff 75 e4	 push	 DWORD PTR _job$[ebp]
  000e1	ff 75 e0	 push	 DWORD PTR _name$[ebp]
  000e4	50		 push	 eax
  000e5	e8 00 00 00 00	 call	 ?SendCreateCharacterPacket@CPythonNetworkStream@@QAE_NEPBDEEEEEE@Z ; CPythonNetworkStream::SendCreateCharacterPacket

; 628  : 	return Py_BuildNone();

  000ea	e8 00 00 00 00	 call	 ?Py_BuildNone@@YAPAU_object@@XZ ; Py_BuildNone
  000ef	5e		 pop	 esi

; 629  : }

  000f0	8b e5		 mov	 esp, ebp
  000f2	5d		 pop	 ebp
  000f3	c3		 ret	 0
?netSendCreateCharacterPacket@@YAPAU_object@@PAU1@0@Z ENDP ; netSendCreateCharacterPacket
_TEXT	ENDS
; Function compile flags: /Ogtp
; File D:\Metin2 Server Files\mainline\SRC_2014\Metin2Client\UserInterface\PythonNetworkStreamModule.cpp
;	COMDAT ?netSendEmoticon@@YAPAU_object@@PAU1@0@Z
_TEXT	SEGMENT
_eEmoticon$ = -4					; size = 4
_poSelf$ = 8						; size = 4
_poArgs$ = 12						; size = 4
?netSendEmoticon@@YAPAU_object@@PAU1@0@Z PROC		; netSendEmoticon, COMDAT

; 582  : {

  00000	55		 push	 ebp
  00001	8b ec		 mov	 ebp, esp
  00003	51		 push	 ecx

; 583  : 	int eEmoticon;
; 584  : 	if (!PyTuple_GetInteger(poArgs, 0, &eEmoticon))

  00004	8d 45 fc	 lea	 eax, DWORD PTR _eEmoticon$[ebp]
  00007	50		 push	 eax
  00008	6a 00		 push	 0
  0000a	ff 75 0c	 push	 DWORD PTR _poArgs$[ebp]
  0000d	e8 00 00 00 00	 call	 ?PyTuple_GetInteger@@YA_NPAU_object@@HPAH@Z ; PyTuple_GetInteger
  00012	83 c4 0c	 add	 esp, 12			; 0000000cH
  00015	84 c0		 test	 al, al
  00017	75 0e		 jne	 SHORT $LN2@netSendEmo

; 585  : 		return Py_BuildException();

  00019	6a 00		 push	 0
  0001b	e8 00 00 00 00	 call	 ?Py_BuildException@@YAPAU_object@@PBDZZ ; Py_BuildException
  00020	83 c4 04	 add	 esp, 4

; 590  : }

  00023	8b e5		 mov	 esp, ebp
  00025	5d		 pop	 ebp
  00026	c3		 ret	 0
$LN2@netSendEmo:

; 586  : 
; 587  : 	CPythonNetworkStream& rkNetStream=CPythonNetworkStream::Instance();
; 588  : 	rkNetStream.SendEmoticon(eEmoticon);

  00027	ff 75 fc	 push	 DWORD PTR _eEmoticon$[ebp]
  0002a	8b 0d 00 00 00
	00		 mov	 ecx, DWORD PTR ?ms_singleton@?$CSingleton@VCPythonNetworkStream@@@@0PAVCPythonNetworkStream@@A ; CSingleton<CPythonNetworkStream>::ms_singleton
  00030	e8 00 00 00 00	 call	 ?SendEmoticon@CPythonNetworkStream@@QAEXI@Z ; CPythonNetworkStream::SendEmoticon

; 589  : 	return Py_BuildNone();

  00035	e8 00 00 00 00	 call	 ?Py_BuildNone@@YAPAU_object@@XZ ; Py_BuildNone

; 590  : }

  0003a	8b e5		 mov	 esp, ebp
  0003c	5d		 pop	 ebp
  0003d	c3		 ret	 0
?netSendEmoticon@@YAPAU_object@@PAU1@0@Z ENDP		; netSendEmoticon
_TEXT	ENDS
; Function compile flags: /Ogtp
; File D:\Metin2 Server Files\mainline\SRC_2014\Metin2Client\UserInterface\PythonNetworkStreamModule.cpp
;	COMDAT ?netSendChatPacket@@YAPAU_object@@PAU1@0@Z
_TEXT	SEGMENT
_szLine$ = -8						; size = 4
_iType$ = -4						; size = 4
_poSelf$ = 8						; size = 4
_poArgs$ = 12						; size = 4
?netSendChatPacket@@YAPAU_object@@PAU1@0@Z PROC		; netSendChatPacket, COMDAT

; 566  : {

  00000	55		 push	 ebp
  00001	8b ec		 mov	 ebp, esp
  00003	83 ec 08	 sub	 esp, 8

; 567  : 	char* szLine;
; 568  : 	if (!PyTuple_GetString(poArgs, 0, &szLine))

  00006	8d 45 f8	 lea	 eax, DWORD PTR _szLine$[ebp]
  00009	50		 push	 eax
  0000a	6a 00		 push	 0
  0000c	ff 75 0c	 push	 DWORD PTR _poArgs$[ebp]
  0000f	e8 00 00 00 00	 call	 ?PyTuple_GetString@@YA_NPAU_object@@HPAPAD@Z ; PyTuple_GetString
  00014	83 c4 0c	 add	 esp, 12			; 0000000cH
  00017	84 c0		 test	 al, al
  00019	75 0e		 jne	 SHORT $LN2@netSendCha

; 569  : 		return Py_BuildException();

  0001b	6a 00		 push	 0
  0001d	e8 00 00 00 00	 call	 ?Py_BuildException@@YAPAU_object@@PBDZZ ; Py_BuildException
  00022	83 c4 04	 add	 esp, 4

; 579  : }

  00025	8b e5		 mov	 esp, ebp
  00027	5d		 pop	 ebp
  00028	c3		 ret	 0
$LN2@netSendCha:

; 570  : 	int iType;
; 571  : 	if (!PyTuple_GetInteger(poArgs, 1, &iType))

  00029	8d 45 fc	 lea	 eax, DWORD PTR _iType$[ebp]
  0002c	50		 push	 eax
  0002d	6a 01		 push	 1
  0002f	ff 75 0c	 push	 DWORD PTR _poArgs$[ebp]
  00032	e8 00 00 00 00	 call	 ?PyTuple_GetInteger@@YA_NPAU_object@@HPAH@Z ; PyTuple_GetInteger
  00037	8b 4d fc	 mov	 ecx, DWORD PTR _iType$[ebp]
  0003a	83 c4 0c	 add	 esp, 12			; 0000000cH
  0003d	33 d2		 xor	 edx, edx
  0003f	84 c0		 test	 al, al
  00041	0f 44 ca	 cmove	 ecx, edx

; 572  : 	{
; 573  : 		iType = CHAT_TYPE_TALKING;
; 574  : 	}
; 575  : 
; 576  : 	CPythonNetworkStream& rkNetStream=CPythonNetworkStream::Instance();
; 577  : 	rkNetStream.SendChatPacket(szLine, iType);

  00044	51		 push	 ecx
  00045	ff 75 f8	 push	 DWORD PTR _szLine$[ebp]
  00048	89 4d fc	 mov	 DWORD PTR _iType$[ebp], ecx
  0004b	8b 0d 00 00 00
	00		 mov	 ecx, DWORD PTR ?ms_singleton@?$CSingleton@VCPythonNetworkStream@@@@0PAVCPythonNetworkStream@@A ; CSingleton<CPythonNetworkStream>::ms_singleton
  00051	e8 00 00 00 00	 call	 ?SendChatPacket@CPythonNetworkStream@@QAE_NPBDE@Z ; CPythonNetworkStream::SendChatPacket

; 578  : 	return Py_BuildNone();

  00056	e8 00 00 00 00	 call	 ?Py_BuildNone@@YAPAU_object@@XZ ; Py_BuildNone

; 579  : }

  0005b	8b e5		 mov	 esp, ebp
  0005d	5d		 pop	 ebp
  0005e	c3		 ret	 0
?netSendChatPacket@@YAPAU_object@@PAU1@0@Z ENDP		; netSendChatPacket
_TEXT	ENDS
; Function compile flags: /Ogtp
; File D:\Metin2 Server Files\mainline\SRC_2014\Metin2Client\UserInterface\PythonNetworkStreamModule.cpp
;	COMDAT ?netSendCharacterPositionPacket@@YAPAU_object@@PAU1@0@Z
_TEXT	SEGMENT
_iPosition$ = -4					; size = 4
_poSelf$ = 8						; size = 4
_poArgs$ = 12						; size = 4
?netSendCharacterPositionPacket@@YAPAU_object@@PAU1@0@Z PROC ; netSendCharacterPositionPacket, COMDAT

; 555  : {

  00000	55		 push	 ebp
  00001	8b ec		 mov	 ebp, esp
  00003	51		 push	 ecx

; 556  : 	int iPosition;
; 557  : 	if (!PyTuple_GetInteger(poArgs, 0, &iPosition))

  00004	8d 45 fc	 lea	 eax, DWORD PTR _iPosition$[ebp]
  00007	50		 push	 eax
  00008	6a 00		 push	 0
  0000a	ff 75 0c	 push	 DWORD PTR _poArgs$[ebp]
  0000d	e8 00 00 00 00	 call	 ?PyTuple_GetInteger@@YA_NPAU_object@@HPAH@Z ; PyTuple_GetInteger
  00012	83 c4 0c	 add	 esp, 12			; 0000000cH
  00015	84 c0		 test	 al, al
  00017	75 0e		 jne	 SHORT $LN2@netSendCha

; 558  : 		return Py_BuildException();

  00019	6a 00		 push	 0
  0001b	e8 00 00 00 00	 call	 ?Py_BuildException@@YAPAU_object@@PBDZZ ; Py_BuildException
  00020	83 c4 04	 add	 esp, 4

; 563  : }

  00023	8b e5		 mov	 esp, ebp
  00025	5d		 pop	 ebp
  00026	c3		 ret	 0
$LN2@netSendCha:

; 559  : 
; 560  : 	CPythonNetworkStream& rkNetStream=CPythonNetworkStream::Instance();
; 561  : 	rkNetStream.SendCharacterPositionPacket((BYTE) iPosition);

  00027	ff 75 fc	 push	 DWORD PTR _iPosition$[ebp]
  0002a	8b 0d 00 00 00
	00		 mov	 ecx, DWORD PTR ?ms_singleton@?$CSingleton@VCPythonNetworkStream@@@@0PAVCPythonNetworkStream@@A ; CSingleton<CPythonNetworkStream>::ms_singleton
  00030	e8 00 00 00 00	 call	 ?SendCharacterPositionPacket@CPythonNetworkStream@@QAE_NE@Z ; CPythonNetworkStream::SendCharacterPositionPacket

; 562  : 	return Py_BuildNone();

  00035	e8 00 00 00 00	 call	 ?Py_BuildNone@@YAPAU_object@@XZ ; Py_BuildNone

; 563  : }

  0003a	8b e5		 mov	 esp, ebp
  0003c	5d		 pop	 ebp
  0003d	c3		 ret	 0
?netSendCharacterPositionPacket@@YAPAU_object@@PAU1@0@Z ENDP ; netSendCharacterPositionPacket
_TEXT	ENDS
; Function compile flags: /Ogtp
; File D:\Metin2 Server Files\mainline\SRC_2014\Metin2Client\UserInterface\PythonNetworkStreamModule.cpp
;	COMDAT ?netSendMobileMessagePacket@@YAPAU_object@@PAU1@0@Z
_TEXT	SEGMENT
_szName$ = -8						; size = 4
_szLine$ = -4						; size = 4
_poSelf$ = 8						; size = 4
_poArgs$ = 12						; size = 4
?netSendMobileMessagePacket@@YAPAU_object@@PAU1@0@Z PROC ; netSendMobileMessagePacket, COMDAT

; 540  : {

  00000	55		 push	 ebp
  00001	8b ec		 mov	 ebp, esp
  00003	83 ec 08	 sub	 esp, 8

; 541  : 	char* szName;
; 542  : 	char* szLine;
; 543  : 	if (!PyTuple_GetString(poArgs, 0, &szName))

  00006	8d 45 f8	 lea	 eax, DWORD PTR _szName$[ebp]
  00009	50		 push	 eax
  0000a	6a 00		 push	 0
  0000c	ff 75 0c	 push	 DWORD PTR _poArgs$[ebp]
  0000f	e8 00 00 00 00	 call	 ?PyTuple_GetString@@YA_NPAU_object@@HPAPAD@Z ; PyTuple_GetString
  00014	83 c4 0c	 add	 esp, 12			; 0000000cH
  00017	84 c0		 test	 al, al
  00019	75 0e		 jne	 SHORT $LN2@netSendMob
$LN5@netSendMob:

; 552  : }

  0001b	6a 00		 push	 0
  0001d	e8 00 00 00 00	 call	 ?Py_BuildException@@YAPAU_object@@PBDZZ ; Py_BuildException
  00022	83 c4 04	 add	 esp, 4
  00025	8b e5		 mov	 esp, ebp
  00027	5d		 pop	 ebp
  00028	c3		 ret	 0
$LN2@netSendMob:

; 544  : 		return Py_BuildException();
; 545  : 
; 546  : 	if (!PyTuple_GetString(poArgs, 1, &szLine))

  00029	8d 45 fc	 lea	 eax, DWORD PTR _szLine$[ebp]
  0002c	50		 push	 eax
  0002d	6a 01		 push	 1
  0002f	ff 75 0c	 push	 DWORD PTR _poArgs$[ebp]
  00032	e8 00 00 00 00	 call	 ?PyTuple_GetString@@YA_NPAU_object@@HPAPAD@Z ; PyTuple_GetString
  00037	83 c4 0c	 add	 esp, 12			; 0000000cH
  0003a	84 c0		 test	 al, al
  0003c	74 dd		 je	 SHORT $LN5@netSendMob

; 547  : 		return Py_BuildException();
; 548  : 
; 549  : 	CPythonNetworkStream& rkNetStream=CPythonNetworkStream::Instance();
; 550  : 	rkNetStream.SendMobileMessagePacket(szName, szLine);

  0003e	ff 75 fc	 push	 DWORD PTR _szLine$[ebp]
  00041	8b 0d 00 00 00
	00		 mov	 ecx, DWORD PTR ?ms_singleton@?$CSingleton@VCPythonNetworkStream@@@@0PAVCPythonNetworkStream@@A ; CSingleton<CPythonNetworkStream>::ms_singleton
  00047	ff 75 f8	 push	 DWORD PTR _szName$[ebp]
  0004a	e8 00 00 00 00	 call	 ?SendMobileMessagePacket@CPythonNetworkStream@@QAE_NPBD0@Z ; CPythonNetworkStream::SendMobileMessagePacket

; 551  : 	return Py_BuildNone();

  0004f	e8 00 00 00 00	 call	 ?Py_BuildNone@@YAPAU_object@@XZ ; Py_BuildNone

; 552  : }

  00054	8b e5		 mov	 esp, ebp
  00056	5d		 pop	 ebp
  00057	c3		 ret	 0
?netSendMobileMessagePacket@@YAPAU_object@@PAU1@0@Z ENDP ; netSendMobileMessagePacket
_TEXT	ENDS
; Function compile flags: /Ogtp
; File D:\Metin2 Server Files\mainline\SRC_2014\Metin2Client\UserInterface\PythonNetworkStreamModule.cpp
;	COMDAT ?netSendWhisperPacket@@YAPAU_object@@PAU1@0@Z
_TEXT	SEGMENT
_szName$ = -8						; size = 4
_szLine$ = -4						; size = 4
_poSelf$ = 8						; size = 4
_poArgs$ = 12						; size = 4
?netSendWhisperPacket@@YAPAU_object@@PAU1@0@Z PROC	; netSendWhisperPacket, COMDAT

; 524  : {

  00000	55		 push	 ebp
  00001	8b ec		 mov	 ebp, esp
  00003	83 ec 08	 sub	 esp, 8

; 525  : 	char* szName;
; 526  : 	char* szLine;
; 527  : 
; 528  : 	if (!PyTuple_GetString(poArgs, 0, &szName))

  00006	8d 45 f8	 lea	 eax, DWORD PTR _szName$[ebp]
  00009	50		 push	 eax
  0000a	6a 00		 push	 0
  0000c	ff 75 0c	 push	 DWORD PTR _poArgs$[ebp]
  0000f	e8 00 00 00 00	 call	 ?PyTuple_GetString@@YA_NPAU_object@@HPAPAD@Z ; PyTuple_GetString
  00014	83 c4 0c	 add	 esp, 12			; 0000000cH
  00017	84 c0		 test	 al, al
  00019	75 0e		 jne	 SHORT $LN2@netSendWhi
$LN5@netSendWhi:

; 537  : }

  0001b	6a 00		 push	 0
  0001d	e8 00 00 00 00	 call	 ?Py_BuildException@@YAPAU_object@@PBDZZ ; Py_BuildException
  00022	83 c4 04	 add	 esp, 4
  00025	8b e5		 mov	 esp, ebp
  00027	5d		 pop	 ebp
  00028	c3		 ret	 0
$LN2@netSendWhi:

; 529  : 		return Py_BuildException();
; 530  : 
; 531  : 	if (!PyTuple_GetString(poArgs, 1, &szLine))

  00029	8d 45 fc	 lea	 eax, DWORD PTR _szLine$[ebp]
  0002c	50		 push	 eax
  0002d	6a 01		 push	 1
  0002f	ff 75 0c	 push	 DWORD PTR _poArgs$[ebp]
  00032	e8 00 00 00 00	 call	 ?PyTuple_GetString@@YA_NPAU_object@@HPAPAD@Z ; PyTuple_GetString
  00037	83 c4 0c	 add	 esp, 12			; 0000000cH
  0003a	84 c0		 test	 al, al
  0003c	74 dd		 je	 SHORT $LN5@netSendWhi

; 532  : 		return Py_BuildException();
; 533  : 
; 534  : 	CPythonNetworkStream& rkNetStream=CPythonNetworkStream::Instance();
; 535  : 	rkNetStream.SendWhisperPacket(szName, szLine);

  0003e	ff 75 fc	 push	 DWORD PTR _szLine$[ebp]
  00041	8b 0d 00 00 00
	00		 mov	 ecx, DWORD PTR ?ms_singleton@?$CSingleton@VCPythonNetworkStream@@@@0PAVCPythonNetworkStream@@A ; CSingleton<CPythonNetworkStream>::ms_singleton
  00047	ff 75 f8	 push	 DWORD PTR _szName$[ebp]
  0004a	e8 00 00 00 00	 call	 ?SendWhisperPacket@CPythonNetworkStream@@QAE_NPBD0@Z ; CPythonNetworkStream::SendWhisperPacket

; 536  : 	return Py_BuildNone();

  0004f	e8 00 00 00 00	 call	 ?Py_BuildNone@@YAPAU_object@@XZ ; Py_BuildNone

; 537  : }

  00054	8b e5		 mov	 esp, ebp
  00056	5d		 pop	 ebp
  00057	c3		 ret	 0
?netSendWhisperPacket@@YAPAU_object@@PAU1@0@Z ENDP	; netSendWhisperPacket
_TEXT	ENDS
; Function compile flags: /Ogtp
; File D:\Metin2 Server Files\mainline\SRC_2014\Metin2Client\UserInterface\PythonNetworkStreamModule.cpp
;	COMDAT ?netIsInsultIn@@YAPAU_object@@PAU1@0@Z
_TEXT	SEGMENT
_szMsg$ = -4						; size = 4
_poSelf$ = 8						; size = 4
_poArgs$ = 12						; size = 4
?netIsInsultIn@@YAPAU_object@@PAU1@0@Z PROC		; netIsInsultIn, COMDAT

; 514  : {

  00000	55		 push	 ebp
  00001	8b ec		 mov	 ebp, esp
  00003	51		 push	 ecx

; 515  : 	char* szMsg;
; 516  : 	if (!PyTuple_GetString(poArgs, 0, &szMsg))

  00004	8d 45 fc	 lea	 eax, DWORD PTR _szMsg$[ebp]
  00007	50		 push	 eax
  00008	6a 00		 push	 0
  0000a	ff 75 0c	 push	 DWORD PTR _poArgs$[ebp]
  0000d	e8 00 00 00 00	 call	 ?PyTuple_GetString@@YA_NPAU_object@@HPAPAD@Z ; PyTuple_GetString
  00012	83 c4 0c	 add	 esp, 12			; 0000000cH
  00015	84 c0		 test	 al, al
  00017	75 0e		 jne	 SHORT $LN2@netIsInsul

; 517  : 		return Py_BuildException();

  00019	6a 00		 push	 0
  0001b	e8 00 00 00 00	 call	 ?Py_BuildException@@YAPAU_object@@PBDZZ ; Py_BuildException
  00020	83 c4 04	 add	 esp, 4

; 521  : }

  00023	8b e5		 mov	 esp, ebp
  00025	5d		 pop	 ebp
  00026	c3		 ret	 0
$LN2@netIsInsul:

; 518  : 
; 519  : 	CPythonNetworkStream& rkNetStream=CPythonNetworkStream::Instance();
; 520  : 	return Py_BuildValue("i", rkNetStream.IsInsultIn(szMsg));

  00027	ff 75 fc	 push	 DWORD PTR _szMsg$[ebp]
  0002a	8b 0d 00 00 00
	00		 mov	 ecx, DWORD PTR ?ms_singleton@?$CSingleton@VCPythonNetworkStream@@@@0PAVCPythonNetworkStream@@A ; CSingleton<CPythonNetworkStream>::ms_singleton
  00030	e8 00 00 00 00	 call	 ?IsInsultIn@CPythonNetworkStream@@QAE_NPBD@Z ; CPythonNetworkStream::IsInsultIn
  00035	0f b6 c0	 movzx	 eax, al
  00038	50		 push	 eax
  00039	68 00 00 00 00	 push	 OFFSET ??_C@_01KBJDNOO@i@
  0003e	ff 15 00 00 00
	00		 call	 DWORD PTR __imp__Py_BuildValue
  00044	83 c4 08	 add	 esp, 8

; 521  : }

  00047	8b e5		 mov	 esp, ebp
  00049	5d		 pop	 ebp
  0004a	c3		 ret	 0
?netIsInsultIn@@YAPAU_object@@PAU1@0@Z ENDP		; netIsInsultIn
_TEXT	ENDS
; Function compile flags: /Ogtp
; File D:\Metin2 Server Files\mainline\SRC_2014\Metin2Client\UserInterface\PythonNetworkStreamModule.cpp
;	COMDAT ?netIsChatInsultIn@@YAPAU_object@@PAU1@0@Z
_TEXT	SEGMENT
_szMsg$ = -4						; size = 4
_poSelf$ = 8						; size = 4
_poArgs$ = 12						; size = 4
?netIsChatInsultIn@@YAPAU_object@@PAU1@0@Z PROC		; netIsChatInsultIn, COMDAT

; 503  : {

  00000	55		 push	 ebp
  00001	8b ec		 mov	 ebp, esp
  00003	51		 push	 ecx

; 504  : 	char* szMsg;
; 505  : 	if (!PyTuple_GetString(poArgs, 0, &szMsg))

  00004	8d 45 fc	 lea	 eax, DWORD PTR _szMsg$[ebp]
  00007	50		 push	 eax
  00008	6a 00		 push	 0
  0000a	ff 75 0c	 push	 DWORD PTR _poArgs$[ebp]
  0000d	e8 00 00 00 00	 call	 ?PyTuple_GetString@@YA_NPAU_object@@HPAPAD@Z ; PyTuple_GetString
  00012	83 c4 0c	 add	 esp, 12			; 0000000cH
  00015	84 c0		 test	 al, al
  00017	75 0e		 jne	 SHORT $LN2@netIsChatI

; 506  : 		return Py_BuildException();

  00019	6a 00		 push	 0
  0001b	e8 00 00 00 00	 call	 ?Py_BuildException@@YAPAU_object@@PBDZZ ; Py_BuildException
  00020	83 c4 04	 add	 esp, 4

; 510  : }

  00023	8b e5		 mov	 esp, ebp
  00025	5d		 pop	 ebp
  00026	c3		 ret	 0
$LN2@netIsChatI:

; 507  : 
; 508  : 	CPythonNetworkStream& rkNetStream=CPythonNetworkStream::Instance();
; 509  : 	return Py_BuildValue("i", rkNetStream.IsChatInsultIn(szMsg));

  00027	ff 75 fc	 push	 DWORD PTR _szMsg$[ebp]
  0002a	8b 0d 00 00 00
	00		 mov	 ecx, DWORD PTR ?ms_singleton@?$CSingleton@VCPythonNetworkStream@@@@0PAVCPythonNetworkStream@@A ; CSingleton<CPythonNetworkStream>::ms_singleton
  00030	e8 00 00 00 00	 call	 ?IsChatInsultIn@CPythonNetworkStream@@QAE_NPBD@Z ; CPythonNetworkStream::IsChatInsultIn
  00035	0f b6 c0	 movzx	 eax, al
  00038	50		 push	 eax
  00039	68 00 00 00 00	 push	 OFFSET ??_C@_01KBJDNOO@i@
  0003e	ff 15 00 00 00
	00		 call	 DWORD PTR __imp__Py_BuildValue
  00044	83 c4 08	 add	 esp, 8

; 510  : }

  00047	8b e5		 mov	 esp, ebp
  00049	5d		 pop	 ebp
  0004a	c3		 ret	 0
?netIsChatInsultIn@@YAPAU_object@@PAU1@0@Z ENDP		; netIsChatInsultIn
_TEXT	ENDS
; Function compile flags: /Ogtp
; File D:\Metin2 Server Files\mainline\SRC_2014\Metin2Client\UserInterface\PythonNetworkStreamModule.cpp
;	COMDAT ?netEnableChatInsultFilter@@YAPAU_object@@PAU1@0@Z
_TEXT	SEGMENT
_nEnable$ = -4						; size = 4
_poSelf$ = 8						; size = 4
_poArgs$ = 12						; size = 4
?netEnableChatInsultFilter@@YAPAU_object@@PAU1@0@Z PROC	; netEnableChatInsultFilter, COMDAT

; 492  : {

  00000	55		 push	 ebp
  00001	8b ec		 mov	 ebp, esp
  00003	51		 push	 ecx

; 493  : 	int nEnable;
; 494  : 	if (!PyTuple_GetInteger(poArgs, 0, &nEnable))

  00004	8d 45 fc	 lea	 eax, DWORD PTR _nEnable$[ebp]
  00007	50		 push	 eax
  00008	6a 00		 push	 0
  0000a	ff 75 0c	 push	 DWORD PTR _poArgs$[ebp]
  0000d	e8 00 00 00 00	 call	 ?PyTuple_GetInteger@@YA_NPAU_object@@HPAH@Z ; PyTuple_GetInteger
  00012	83 c4 0c	 add	 esp, 12			; 0000000cH
  00015	84 c0		 test	 al, al
  00017	75 0e		 jne	 SHORT $LN2@netEnableC

; 495  : 		return Py_BuildException();

  00019	6a 00		 push	 0
  0001b	e8 00 00 00 00	 call	 ?Py_BuildException@@YAPAU_object@@PBDZZ ; Py_BuildException
  00020	83 c4 04	 add	 esp, 4

; 500  : }

  00023	8b e5		 mov	 esp, ebp
  00025	5d		 pop	 ebp
  00026	c3		 ret	 0
$LN2@netEnableC:

; 496  : 
; 497  : 	CPythonNetworkStream& rkNetStream=CPythonNetworkStream::Instance();
; 498  : 	rkNetStream.EnableChatInsultFilter(nEnable ? true : false);

  00027	83 7d fc 00	 cmp	 DWORD PTR _nEnable$[ebp], 0
  0002b	8b 0d 00 00 00
	00		 mov	 ecx, DWORD PTR ?ms_singleton@?$CSingleton@VCPythonNetworkStream@@@@0PAVCPythonNetworkStream@@A ; CSingleton<CPythonNetworkStream>::ms_singleton
  00031	0f 95 c0	 setne	 al
  00034	0f b6 c0	 movzx	 eax, al
  00037	50		 push	 eax
  00038	e8 00 00 00 00	 call	 ?EnableChatInsultFilter@CPythonNetworkStream@@QAEX_N@Z ; CPythonNetworkStream::EnableChatInsultFilter

; 499  : 	return Py_BuildNone();

  0003d	e8 00 00 00 00	 call	 ?Py_BuildNone@@YAPAU_object@@XZ ; Py_BuildNone

; 500  : }

  00042	8b e5		 mov	 esp, ebp
  00044	5d		 pop	 ebp
  00045	c3		 ret	 0
?netEnableChatInsultFilter@@YAPAU_object@@PAU1@0@Z ENDP	; netEnableChatInsultFilter
_TEXT	ENDS
; Function compile flags: /Ogtp
; File D:\Metin2 Server Files\mainline\SRC_2014\Metin2Client\UserInterface\PythonNetworkStreamModule.cpp
;	COMDAT ?netSendChangeNamePacket@@YAPAU_object@@PAU1@0@Z
_TEXT	SEGMENT
_iIndex$ = -8						; size = 4
_szName$ = -4						; size = 4
_poSelf$ = 8						; size = 4
_poArgs$ = 12						; size = 4
?netSendChangeNamePacket@@YAPAU_object@@PAU1@0@Z PROC	; netSendChangeNamePacket, COMDAT

; 478  : {

  00000	55		 push	 ebp
  00001	8b ec		 mov	 ebp, esp
  00003	83 ec 08	 sub	 esp, 8

; 479  : 	int iIndex;
; 480  : 	if (!PyTuple_GetInteger(poArgs, 0, &iIndex))

  00006	8d 45 f8	 lea	 eax, DWORD PTR _iIndex$[ebp]
  00009	50		 push	 eax
  0000a	6a 00		 push	 0
  0000c	ff 75 0c	 push	 DWORD PTR _poArgs$[ebp]
  0000f	e8 00 00 00 00	 call	 ?PyTuple_GetInteger@@YA_NPAU_object@@HPAH@Z ; PyTuple_GetInteger
  00014	83 c4 0c	 add	 esp, 12			; 0000000cH
  00017	84 c0		 test	 al, al
  00019	75 0e		 jne	 SHORT $LN2@netSendCha
$LN5@netSendCha:

; 489  : }

  0001b	6a 00		 push	 0
  0001d	e8 00 00 00 00	 call	 ?Py_BuildException@@YAPAU_object@@PBDZZ ; Py_BuildException
  00022	83 c4 04	 add	 esp, 4
  00025	8b e5		 mov	 esp, ebp
  00027	5d		 pop	 ebp
  00028	c3		 ret	 0
$LN2@netSendCha:

; 481  : 		return Py_BuildException();
; 482  : 	char* szName;
; 483  : 	if (!PyTuple_GetString(poArgs, 1, &szName))

  00029	8d 45 fc	 lea	 eax, DWORD PTR _szName$[ebp]
  0002c	50		 push	 eax
  0002d	6a 01		 push	 1
  0002f	ff 75 0c	 push	 DWORD PTR _poArgs$[ebp]
  00032	e8 00 00 00 00	 call	 ?PyTuple_GetString@@YA_NPAU_object@@HPAPAD@Z ; PyTuple_GetString
  00037	83 c4 0c	 add	 esp, 12			; 0000000cH
  0003a	84 c0		 test	 al, al
  0003c	74 dd		 je	 SHORT $LN5@netSendCha

; 484  : 		return Py_BuildException();
; 485  : 
; 486  : 	CPythonNetworkStream& rkNetStream=CPythonNetworkStream::Instance();
; 487  : 	rkNetStream.SendChangeNamePacket((BYTE)iIndex, szName);

  0003e	ff 75 fc	 push	 DWORD PTR _szName$[ebp]
  00041	8b 0d 00 00 00
	00		 mov	 ecx, DWORD PTR ?ms_singleton@?$CSingleton@VCPythonNetworkStream@@@@0PAVCPythonNetworkStream@@A ; CSingleton<CPythonNetworkStream>::ms_singleton
  00047	ff 75 f8	 push	 DWORD PTR _iIndex$[ebp]
  0004a	e8 00 00 00 00	 call	 ?SendChangeNamePacket@CPythonNetworkStream@@QAE_NEPBD@Z ; CPythonNetworkStream::SendChangeNamePacket

; 488  : 	return Py_BuildNone();

  0004f	e8 00 00 00 00	 call	 ?Py_BuildNone@@YAPAU_object@@XZ ; Py_BuildNone

; 489  : }

  00054	8b e5		 mov	 esp, ebp
  00056	5d		 pop	 ebp
  00057	c3		 ret	 0
?netSendChangeNamePacket@@YAPAU_object@@PAU1@0@Z ENDP	; netSendChangeNamePacket
_TEXT	ENDS
; Function compile flags: /Ogtp
; File D:\Metin2 Server Files\mainline\SRC_2014\Metin2Client\UserInterface\PythonNetworkStreamModule.cpp
;	COMDAT ?netSendSelectCharacterPacket@@YAPAU_object@@PAU1@0@Z
_TEXT	SEGMENT
_Index$ = -4						; size = 4
_poSelf$ = 8						; size = 4
_poArgs$ = 12						; size = 4
?netSendSelectCharacterPacket@@YAPAU_object@@PAU1@0@Z PROC ; netSendSelectCharacterPacket, COMDAT

; 467  : {

  00000	55		 push	 ebp
  00001	8b ec		 mov	 ebp, esp
  00003	51		 push	 ecx

; 468  : 	int Index;
; 469  : 	if (!PyTuple_GetInteger(poArgs, 0, &Index))

  00004	8d 45 fc	 lea	 eax, DWORD PTR _Index$[ebp]
  00007	50		 push	 eax
  00008	6a 00		 push	 0
  0000a	ff 75 0c	 push	 DWORD PTR _poArgs$[ebp]
  0000d	e8 00 00 00 00	 call	 ?PyTuple_GetInteger@@YA_NPAU_object@@HPAH@Z ; PyTuple_GetInteger
  00012	83 c4 0c	 add	 esp, 12			; 0000000cH
  00015	84 c0		 test	 al, al
  00017	75 0e		 jne	 SHORT $LN2@netSendSel

; 470  : 		return Py_BuildException();

  00019	6a 00		 push	 0
  0001b	e8 00 00 00 00	 call	 ?Py_BuildException@@YAPAU_object@@PBDZZ ; Py_BuildException
  00020	83 c4 04	 add	 esp, 4

; 475  : }

  00023	8b e5		 mov	 esp, ebp
  00025	5d		 pop	 ebp
  00026	c3		 ret	 0
$LN2@netSendSel:

; 471  : 
; 472  : 	CPythonNetworkStream& rkNetStream=CPythonNetworkStream::Instance();
; 473  : 	rkNetStream.SendSelectCharacterPacket((BYTE) Index);

  00027	ff 75 fc	 push	 DWORD PTR _Index$[ebp]
  0002a	8b 0d 00 00 00
	00		 mov	 ecx, DWORD PTR ?ms_singleton@?$CSingleton@VCPythonNetworkStream@@@@0PAVCPythonNetworkStream@@A ; CSingleton<CPythonNetworkStream>::ms_singleton
  00030	e8 00 00 00 00	 call	 ?SendSelectCharacterPacket@CPythonNetworkStream@@QAE_NE@Z ; CPythonNetworkStream::SendSelectCharacterPacket

; 474  : 	return Py_BuildNone();

  00035	e8 00 00 00 00	 call	 ?Py_BuildNone@@YAPAU_object@@XZ ; Py_BuildNone

; 475  : }

  0003a	8b e5		 mov	 esp, ebp
  0003c	5d		 pop	 ebp
  0003d	c3		 ret	 0
?netSendSelectCharacterPacket@@YAPAU_object@@PAU1@0@Z ENDP ; netSendSelectCharacterPacket
_TEXT	ENDS
; Function compile flags: /Ogtp
; File D:\Metin2 Server Files\mainline\SRC_2014\Metin2Client\UserInterface\PythonNetworkStreamModule.cpp
;	COMDAT ?netDirectEnter@@YAPAU_object@@PAU1@0@Z
_TEXT	SEGMENT
_nChrSlot$ = -4						; size = 4
_poSelf$ = 8						; size = 4
_poArgs$ = 12						; size = 4
?netDirectEnter@@YAPAU_object@@PAU1@0@Z PROC		; netDirectEnter, COMDAT

; 456  : {

  00000	55		 push	 ebp
  00001	8b ec		 mov	 ebp, esp
  00003	51		 push	 ecx

; 457  : 	int nChrSlot;
; 458  : 	if (!PyTuple_GetInteger(poArgs, 0, &nChrSlot))

  00004	8d 45 fc	 lea	 eax, DWORD PTR _nChrSlot$[ebp]
  00007	50		 push	 eax
  00008	6a 00		 push	 0
  0000a	ff 75 0c	 push	 DWORD PTR _poArgs$[ebp]
  0000d	e8 00 00 00 00	 call	 ?PyTuple_GetInteger@@YA_NPAU_object@@HPAH@Z ; PyTuple_GetInteger
  00012	83 c4 0c	 add	 esp, 12			; 0000000cH
  00015	84 c0		 test	 al, al
  00017	75 0e		 jne	 SHORT $LN2@netDirectE

; 459  : 		return Py_BuildException();

  00019	6a 00		 push	 0
  0001b	e8 00 00 00 00	 call	 ?Py_BuildException@@YAPAU_object@@PBDZZ ; Py_BuildException
  00020	83 c4 04	 add	 esp, 4

; 464  : }

  00023	8b e5		 mov	 esp, ebp
  00025	5d		 pop	 ebp
  00026	c3		 ret	 0
$LN2@netDirectE:

; 460  : 
; 461  : 	CPythonNetworkStream& rkNetStream=CPythonNetworkStream::Instance();
; 462  : 	rkNetStream.ConnectGameServer(nChrSlot);

  00027	ff 75 fc	 push	 DWORD PTR _nChrSlot$[ebp]
  0002a	8b 0d 00 00 00
	00		 mov	 ecx, DWORD PTR ?ms_singleton@?$CSingleton@VCPythonNetworkStream@@@@0PAVCPythonNetworkStream@@A ; CSingleton<CPythonNetworkStream>::ms_singleton
  00030	e8 00 00 00 00	 call	 ?ConnectGameServer@CPythonNetworkStream@@QAEXI@Z ; CPythonNetworkStream::ConnectGameServer

; 463  : 	return Py_BuildNone();

  00035	e8 00 00 00 00	 call	 ?Py_BuildNone@@YAPAU_object@@XZ ; Py_BuildNone

; 464  : }

  0003a	8b e5		 mov	 esp, ebp
  0003c	5d		 pop	 ebp
  0003d	c3		 ret	 0
?netDirectEnter@@YAPAU_object@@PAU1@0@Z ENDP		; netDirectEnter
_TEXT	ENDS
; Function compile flags: /Ogtp
; File D:\Metin2 Server Files\mainline\SRC_2014\Metin2Client\UserInterface\PythonNetworkStreamModule.cpp
;	COMDAT ?netSendNEWCIBNPasspodAnswerPacket@@YAPAU_object@@PAU1@0@Z
_TEXT	SEGMENT
_szMatrixCardString$ = -4				; size = 4
_poSelf$ = 8						; size = 4
_poArgs$ = 12						; size = 4
?netSendNEWCIBNPasspodAnswerPacket@@YAPAU_object@@PAU1@0@Z PROC ; netSendNEWCIBNPasspodAnswerPacket, COMDAT

; 444  : {

  00000	55		 push	 ebp
  00001	8b ec		 mov	 ebp, esp
  00003	51		 push	 ecx

; 445  : 	char* szMatrixCardString;
; 446  : 	if (!PyTuple_GetString(poArgs, 0, &szMatrixCardString))

  00004	8d 45 fc	 lea	 eax, DWORD PTR _szMatrixCardString$[ebp]
  00007	50		 push	 eax
  00008	6a 00		 push	 0
  0000a	ff 75 0c	 push	 DWORD PTR _poArgs$[ebp]
  0000d	e8 00 00 00 00	 call	 ?PyTuple_GetString@@YA_NPAU_object@@HPAPAD@Z ; PyTuple_GetString
  00012	83 c4 0c	 add	 esp, 12			; 0000000cH
  00015	84 c0		 test	 al, al
  00017	75 0e		 jne	 SHORT $LN2@netSendNEW

; 447  : 		return Py_BuildException();

  00019	6a 00		 push	 0
  0001b	e8 00 00 00 00	 call	 ?Py_BuildException@@YAPAU_object@@PBDZZ ; Py_BuildException
  00020	83 c4 04	 add	 esp, 4

; 452  : }

  00023	8b e5		 mov	 esp, ebp
  00025	5d		 pop	 ebp
  00026	c3		 ret	 0
$LN2@netSendNEW:

; 448  : 
; 449  : 	CAccountConnector & rkAccountConnector = CAccountConnector::Instance();
; 450  : 	rkAccountConnector.SendNEWCIBNPasspodAnswerPacket(szMatrixCardString);

  00027	ff 75 fc	 push	 DWORD PTR _szMatrixCardString$[ebp]
  0002a	8b 0d 00 00 00
	00		 mov	 ecx, DWORD PTR ?ms_singleton@?$CSingleton@VCAccountConnector@@@@0PAVCAccountConnector@@A ; CSingleton<CAccountConnector>::ms_singleton
  00030	e8 00 00 00 00	 call	 ?SendNEWCIBNPasspodAnswerPacket@CAccountConnector@@QAE_NPBD@Z ; CAccountConnector::SendNEWCIBNPasspodAnswerPacket

; 451  : 	return Py_BuildNone();

  00035	e8 00 00 00 00	 call	 ?Py_BuildNone@@YAPAU_object@@XZ ; Py_BuildNone

; 452  : }

  0003a	8b e5		 mov	 esp, ebp
  0003c	5d		 pop	 ebp
  0003d	c3		 ret	 0
?netSendNEWCIBNPasspodAnswerPacket@@YAPAU_object@@PAU1@0@Z ENDP ; netSendNEWCIBNPasspodAnswerPacket
_TEXT	ENDS
; Function compile flags: /Ogtp
; File D:\Metin2 Server Files\mainline\SRC_2014\Metin2Client\UserInterface\PythonNetworkStreamModule.cpp
;	COMDAT ?netSendRunupMatrixCardPacket@@YAPAU_object@@PAU1@0@Z
_TEXT	SEGMENT
_szMatrixCardString$ = -4				; size = 4
_poSelf$ = 8						; size = 4
_poArgs$ = 12						; size = 4
?netSendRunupMatrixCardPacket@@YAPAU_object@@PAU1@0@Z PROC ; netSendRunupMatrixCardPacket, COMDAT

; 433  : {

  00000	55		 push	 ebp
  00001	8b ec		 mov	 ebp, esp
  00003	51		 push	 ecx

; 434  : 	char* szMatrixCardString;
; 435  : 	if (!PyTuple_GetString(poArgs, 0, &szMatrixCardString))

  00004	8d 45 fc	 lea	 eax, DWORD PTR _szMatrixCardString$[ebp]
  00007	50		 push	 eax
  00008	6a 00		 push	 0
  0000a	ff 75 0c	 push	 DWORD PTR _poArgs$[ebp]
  0000d	e8 00 00 00 00	 call	 ?PyTuple_GetString@@YA_NPAU_object@@HPAPAD@Z ; PyTuple_GetString
  00012	83 c4 0c	 add	 esp, 12			; 0000000cH
  00015	84 c0		 test	 al, al
  00017	75 0e		 jne	 SHORT $LN2@netSendRun

; 436  : 		return Py_BuildException();

  00019	6a 00		 push	 0
  0001b	e8 00 00 00 00	 call	 ?Py_BuildException@@YAPAU_object@@PBDZZ ; Py_BuildException
  00020	83 c4 04	 add	 esp, 4

; 441  : }

  00023	8b e5		 mov	 esp, ebp
  00025	5d		 pop	 ebp
  00026	c3		 ret	 0
$LN2@netSendRun:

; 437  : 
; 438  : 	CAccountConnector & rkAccountConnector = CAccountConnector::Instance();
; 439  : 	rkAccountConnector.SendRunupMatrixCardPacket(szMatrixCardString);

  00027	ff 75 fc	 push	 DWORD PTR _szMatrixCardString$[ebp]
  0002a	8b 0d 00 00 00
	00		 mov	 ecx, DWORD PTR ?ms_singleton@?$CSingleton@VCAccountConnector@@@@0PAVCAccountConnector@@A ; CSingleton<CAccountConnector>::ms_singleton
  00030	e8 00 00 00 00	 call	 ?SendRunupMatrixCardPacket@CAccountConnector@@QAE_NPBD@Z ; CAccountConnector::SendRunupMatrixCardPacket

; 440  : 	return Py_BuildNone();

  00035	e8 00 00 00 00	 call	 ?Py_BuildNone@@YAPAU_object@@XZ ; Py_BuildNone

; 441  : }

  0003a	8b e5		 mov	 esp, ebp
  0003c	5d		 pop	 ebp
  0003d	c3		 ret	 0
?netSendRunupMatrixCardPacket@@YAPAU_object@@PAU1@0@Z ENDP ; netSendRunupMatrixCardPacket
_TEXT	ENDS
; Function compile flags: /Ogtp
; File D:\Metin2 Server Files\mainline\SRC_2014\Metin2Client\UserInterface\PythonNetworkStreamModule.cpp
;	COMDAT ?netSendChinaMatrixCardPacket@@YAPAU_object@@PAU1@0@Z
_TEXT	SEGMENT
_szMatrixCardString$ = -4				; size = 4
_poSelf$ = 8						; size = 4
_poArgs$ = 12						; size = 4
?netSendChinaMatrixCardPacket@@YAPAU_object@@PAU1@0@Z PROC ; netSendChinaMatrixCardPacket, COMDAT

; 422  : {

  00000	55		 push	 ebp
  00001	8b ec		 mov	 ebp, esp
  00003	51		 push	 ecx

; 423  : 	char* szMatrixCardString;
; 424  : 	if (!PyTuple_GetString(poArgs, 0, &szMatrixCardString))

  00004	8d 45 fc	 lea	 eax, DWORD PTR _szMatrixCardString$[ebp]
  00007	50		 push	 eax
  00008	6a 00		 push	 0
  0000a	ff 75 0c	 push	 DWORD PTR _poArgs$[ebp]
  0000d	e8 00 00 00 00	 call	 ?PyTuple_GetString@@YA_NPAU_object@@HPAPAD@Z ; PyTuple_GetString
  00012	83 c4 0c	 add	 esp, 12			; 0000000cH
  00015	84 c0		 test	 al, al
  00017	75 0e		 jne	 SHORT $LN2@netSendChi

; 425  : 		return Py_BuildException();

  00019	6a 00		 push	 0
  0001b	e8 00 00 00 00	 call	 ?Py_BuildException@@YAPAU_object@@PBDZZ ; Py_BuildException
  00020	83 c4 04	 add	 esp, 4

; 430  : }

  00023	8b e5		 mov	 esp, ebp
  00025	5d		 pop	 ebp
  00026	c3		 ret	 0
$LN2@netSendChi:

; 426  : 
; 427  : 	CAccountConnector & rkAccountConnector = CAccountConnector::Instance();
; 428  : 	rkAccountConnector.SendChinaMatrixCardPacket(szMatrixCardString);

  00027	ff 75 fc	 push	 DWORD PTR _szMatrixCardString$[ebp]
  0002a	8b 0d 00 00 00
	00		 mov	 ecx, DWORD PTR ?ms_singleton@?$CSingleton@VCAccountConnector@@@@0PAVCAccountConnector@@A ; CSingleton<CAccountConnector>::ms_singleton
  00030	e8 00 00 00 00	 call	 ?SendChinaMatrixCardPacket@CAccountConnector@@QAE_NPBD@Z ; CAccountConnector::SendChinaMatrixCardPacket

; 429  : 	return Py_BuildNone();

  00035	e8 00 00 00 00	 call	 ?Py_BuildNone@@YAPAU_object@@XZ ; Py_BuildNone

; 430  : }

  0003a	8b e5		 mov	 esp, ebp
  0003c	5d		 pop	 ebp
  0003d	c3		 ret	 0
?netSendChinaMatrixCardPacket@@YAPAU_object@@PAU1@0@Z ENDP ; netSendChinaMatrixCardPacket
_TEXT	ENDS
; Function compile flags: /Ogtp
; File D:\Metin2 Server Files\mainline\SRC_2014\Metin2Client\UserInterface\PythonNetworkStreamModule.cpp
;	COMDAT ?netSendLoginPacket@@YAPAU_object@@PAU1@0@Z
_TEXT	SEGMENT
_szName$ = -8						; size = 4
_szPwd$ = -4						; size = 4
_poSelf$ = 8						; size = 4
_poArgs$ = 12						; size = 4
?netSendLoginPacket@@YAPAU_object@@PAU1@0@Z PROC	; netSendLoginPacket, COMDAT

; 407  : {

  00000	55		 push	 ebp
  00001	8b ec		 mov	 ebp, esp
  00003	83 ec 08	 sub	 esp, 8

; 408  : 	char* szName;
; 409  : 	if (!PyTuple_GetString(poArgs, 0, &szName))

  00006	8d 45 f8	 lea	 eax, DWORD PTR _szName$[ebp]
  00009	50		 push	 eax
  0000a	6a 00		 push	 0
  0000c	ff 75 0c	 push	 DWORD PTR _poArgs$[ebp]
  0000f	e8 00 00 00 00	 call	 ?PyTuple_GetString@@YA_NPAU_object@@HPAPAD@Z ; PyTuple_GetString
  00014	83 c4 0c	 add	 esp, 12			; 0000000cH
  00017	84 c0		 test	 al, al
  00019	75 0e		 jne	 SHORT $LN2@netSendLog
$LN5@netSendLog:

; 419  : }

  0001b	6a 00		 push	 0
  0001d	e8 00 00 00 00	 call	 ?Py_BuildException@@YAPAU_object@@PBDZZ ; Py_BuildException
  00022	83 c4 04	 add	 esp, 4
  00025	8b e5		 mov	 esp, ebp
  00027	5d		 pop	 ebp
  00028	c3		 ret	 0
$LN2@netSendLog:

; 410  : 		return Py_BuildException();
; 411  : 
; 412  : 	char* szPwd;
; 413  : 	if (!PyTuple_GetString(poArgs, 1, &szPwd))

  00029	8d 45 fc	 lea	 eax, DWORD PTR _szPwd$[ebp]
  0002c	50		 push	 eax
  0002d	6a 01		 push	 1
  0002f	ff 75 0c	 push	 DWORD PTR _poArgs$[ebp]
  00032	e8 00 00 00 00	 call	 ?PyTuple_GetString@@YA_NPAU_object@@HPAPAD@Z ; PyTuple_GetString
  00037	83 c4 0c	 add	 esp, 12			; 0000000cH
  0003a	84 c0		 test	 al, al
  0003c	74 dd		 je	 SHORT $LN5@netSendLog

; 414  : 		return Py_BuildException();
; 415  : 
; 416  : 	CPythonNetworkStream& rkNetStream=CPythonNetworkStream::Instance();
; 417  : 	rkNetStream.SendLoginPacket(szName, szPwd);

  0003e	ff 75 fc	 push	 DWORD PTR _szPwd$[ebp]
  00041	8b 0d 00 00 00
	00		 mov	 ecx, DWORD PTR ?ms_singleton@?$CSingleton@VCPythonNetworkStream@@@@0PAVCPythonNetworkStream@@A ; CSingleton<CPythonNetworkStream>::ms_singleton
  00047	ff 75 f8	 push	 DWORD PTR _szName$[ebp]
  0004a	e8 00 00 00 00	 call	 ?SendLoginPacket@CPythonNetworkStream@@QAE_NPBD0@Z ; CPythonNetworkStream::SendLoginPacket

; 418  : 	return Py_BuildNone();

  0004f	e8 00 00 00 00	 call	 ?Py_BuildNone@@YAPAU_object@@XZ ; Py_BuildNone

; 419  : }

  00054	8b e5		 mov	 esp, ebp
  00056	5d		 pop	 ebp
  00057	c3		 ret	 0
?netSendLoginPacket@@YAPAU_object@@PAU1@0@Z ENDP	; netSendLoginPacket
_TEXT	ENDS
; Function compile flags: /Ogtp
; File D:\Metin2 Server Files\mainline\SRC_2014\Metin2Client\UserInterface\PythonNetworkStreamModule.cpp
;	COMDAT ?netSendSelectEmpirePacket@@YAPAU_object@@PAU1@0@Z
_TEXT	SEGMENT
_iEmpireIndex$ = -4					; size = 4
_poSelf$ = 8						; size = 4
_poArgs$ = 12						; size = 4
?netSendSelectEmpirePacket@@YAPAU_object@@PAU1@0@Z PROC	; netSendSelectEmpirePacket, COMDAT

; 396  : {

  00000	55		 push	 ebp
  00001	8b ec		 mov	 ebp, esp
  00003	51		 push	 ecx

; 397  : 	int iEmpireIndex;
; 398  : 	if (!PyTuple_GetInteger(poArgs, 0, &iEmpireIndex))

  00004	8d 45 fc	 lea	 eax, DWORD PTR _iEmpireIndex$[ebp]
  00007	50		 push	 eax
  00008	6a 00		 push	 0
  0000a	ff 75 0c	 push	 DWORD PTR _poArgs$[ebp]
  0000d	e8 00 00 00 00	 call	 ?PyTuple_GetInteger@@YA_NPAU_object@@HPAH@Z ; PyTuple_GetInteger
  00012	83 c4 0c	 add	 esp, 12			; 0000000cH
  00015	84 c0		 test	 al, al
  00017	75 0e		 jne	 SHORT $LN2@netSendSel

; 399  : 		return Py_BuildException();

  00019	6a 00		 push	 0
  0001b	e8 00 00 00 00	 call	 ?Py_BuildException@@YAPAU_object@@PBDZZ ; Py_BuildException
  00020	83 c4 04	 add	 esp, 4

; 404  : }

  00023	8b e5		 mov	 esp, ebp
  00025	5d		 pop	 ebp
  00026	c3		 ret	 0
$LN2@netSendSel:

; 400  : 
; 401  : 	CPythonNetworkStream& rkNetStream=CPythonNetworkStream::Instance();
; 402  : 	rkNetStream.SendSelectEmpirePacket(iEmpireIndex);

  00027	ff 75 fc	 push	 DWORD PTR _iEmpireIndex$[ebp]
  0002a	8b 0d 00 00 00
	00		 mov	 ecx, DWORD PTR ?ms_singleton@?$CSingleton@VCPythonNetworkStream@@@@0PAVCPythonNetworkStream@@A ; CSingleton<CPythonNetworkStream>::ms_singleton
  00030	e8 00 00 00 00	 call	 ?SendSelectEmpirePacket@CPythonNetworkStream@@QAE_NK@Z ; CPythonNetworkStream::SendSelectEmpirePacket

; 403  : 	return Py_BuildNone();

  00035	e8 00 00 00 00	 call	 ?Py_BuildNone@@YAPAU_object@@XZ ; Py_BuildNone

; 404  : }

  0003a	8b e5		 mov	 esp, ebp
  0003c	5d		 pop	 ebp
  0003d	c3		 ret	 0
?netSendSelectEmpirePacket@@YAPAU_object@@PAU1@0@Z ENDP	; netSendSelectEmpirePacket
_TEXT	ENDS
; Function compile flags: /Ogtp
; File D:\Metin2 Server Files\mainline\SRC_2014\Metin2Client\UserInterface\PythonNetworkStreamModule.cpp
;	COMDAT ?netSetOfflinePhase@@YAPAU_object@@PAU1@0@Z
_TEXT	SEGMENT
_poSelf$ = 8						; size = 4
_poArgs$ = 12						; size = 4
?netSetOfflinePhase@@YAPAU_object@@PAU1@0@Z PROC	; netSetOfflinePhase, COMDAT

; 390  : 	CPythonNetworkStream& rkNetStream=CPythonNetworkStream::Instance();
; 391  : 	rkNetStream.SetOffLinePhase();

  00000	8b 0d 00 00 00
	00		 mov	 ecx, DWORD PTR ?ms_singleton@?$CSingleton@VCPythonNetworkStream@@@@0PAVCPythonNetworkStream@@A ; CSingleton<CPythonNetworkStream>::ms_singleton
  00006	e8 00 00 00 00	 call	 ?SetOffLinePhase@CPythonNetworkStream@@QAEXXZ ; CPythonNetworkStream::SetOffLinePhase

; 392  : 	return Py_BuildNone();

  0000b	e9 00 00 00 00	 jmp	 ?Py_BuildNone@@YAPAU_object@@XZ ; Py_BuildNone
?netSetOfflinePhase@@YAPAU_object@@PAU1@0@Z ENDP	; netSetOfflinePhase
_TEXT	ENDS
; Function compile flags: /Ogtp
; File D:\Metin2 Server Files\mainline\SRC_2014\Metin2Client\UserInterface\PythonNetworkStreamModule.cpp
;	COMDAT ?netSetLoginInfo@@YAPAU_object@@PAU1@0@Z
_TEXT	SEGMENT
_szName$ = -8						; size = 4
_szPwd$ = -4						; size = 4
_poSelf$ = 8						; size = 4
_poArgs$ = 12						; size = 4
?netSetLoginInfo@@YAPAU_object@@PAU1@0@Z PROC		; netSetLoginInfo, COMDAT

; 372  : {

  00000	55		 push	 ebp
  00001	8b ec		 mov	 ebp, esp
  00003	83 ec 08	 sub	 esp, 8

; 373  : 	char* szName;
; 374  : 	if (!PyTuple_GetString(poArgs, 0, &szName))

  00006	8d 45 f8	 lea	 eax, DWORD PTR _szName$[ebp]
  00009	56		 push	 esi
  0000a	8b 75 0c	 mov	 esi, DWORD PTR _poArgs$[ebp]
  0000d	50		 push	 eax
  0000e	6a 00		 push	 0
  00010	56		 push	 esi
  00011	e8 00 00 00 00	 call	 ?PyTuple_GetString@@YA_NPAU_object@@HPAPAD@Z ; PyTuple_GetString
  00016	83 c4 0c	 add	 esp, 12			; 0000000cH
  00019	84 c0		 test	 al, al
  0001b	75 0f		 jne	 SHORT $LN2@netSetLogi
$LN5@netSetLogi:

; 386  : }

  0001d	6a 00		 push	 0
  0001f	e8 00 00 00 00	 call	 ?Py_BuildException@@YAPAU_object@@PBDZZ ; Py_BuildException
  00024	83 c4 04	 add	 esp, 4
  00027	5e		 pop	 esi
  00028	8b e5		 mov	 esp, ebp
  0002a	5d		 pop	 ebp
  0002b	c3		 ret	 0
$LN2@netSetLogi:

; 375  : 		return Py_BuildException();
; 376  : 
; 377  : 	char* szPwd;
; 378  : 	if (!PyTuple_GetString(poArgs, 1, &szPwd))

  0002c	8d 45 fc	 lea	 eax, DWORD PTR _szPwd$[ebp]
  0002f	50		 push	 eax
  00030	6a 01		 push	 1
  00032	56		 push	 esi
  00033	e8 00 00 00 00	 call	 ?PyTuple_GetString@@YA_NPAU_object@@HPAPAD@Z ; PyTuple_GetString
  00038	83 c4 0c	 add	 esp, 12			; 0000000cH
  0003b	84 c0		 test	 al, al
  0003d	74 de		 je	 SHORT $LN5@netSetLogi

; 379  : 		return Py_BuildException();
; 380  : 
; 381  : 	CPythonNetworkStream& rkNetStream=CPythonNetworkStream::Instance();
; 382  : 	CAccountConnector & rkAccountConnector = CAccountConnector::Instance();
; 383  : 	rkNetStream.SetLoginInfo(szName, szPwd);

  0003f	ff 75 fc	 push	 DWORD PTR _szPwd$[ebp]
  00042	8b 0d 00 00 00
	00		 mov	 ecx, DWORD PTR ?ms_singleton@?$CSingleton@VCPythonNetworkStream@@@@0PAVCPythonNetworkStream@@A ; CSingleton<CPythonNetworkStream>::ms_singleton
  00048	ff 75 f8	 push	 DWORD PTR _szName$[ebp]
  0004b	8b 35 00 00 00
	00		 mov	 esi, DWORD PTR ?ms_singleton@?$CSingleton@VCAccountConnector@@@@0PAVCAccountConnector@@A ; CSingleton<CAccountConnector>::ms_singleton
  00051	e8 00 00 00 00	 call	 ?SetLoginInfo@CPythonNetworkStream@@QAEXPBD0@Z ; CPythonNetworkStream::SetLoginInfo

; 384  : 	rkAccountConnector.SetLoginInfo(szName, szPwd);

  00056	ff 75 fc	 push	 DWORD PTR _szPwd$[ebp]
  00059	8b ce		 mov	 ecx, esi
  0005b	ff 75 f8	 push	 DWORD PTR _szName$[ebp]
  0005e	e8 00 00 00 00	 call	 ?SetLoginInfo@CAccountConnector@@QAEXPBD0@Z ; CAccountConnector::SetLoginInfo

; 385  : 	return Py_BuildNone();

  00063	e8 00 00 00 00	 call	 ?Py_BuildNone@@YAPAU_object@@XZ ; Py_BuildNone
  00068	5e		 pop	 esi

; 386  : }

  00069	8b e5		 mov	 esp, ebp
  0006b	5d		 pop	 ebp
  0006c	c3		 ret	 0
?netSetLoginInfo@@YAPAU_object@@PAU1@0@Z ENDP		; netSetLoginInfo
_TEXT	ENDS
; Function compile flags: /Ogtp
; File D:\Metin2 Server Files\mainline\SRC_2014\Metin2Client\UserInterface\PythonNetworkStreamModule.cpp
;	COMDAT ?netConnectToAccountServer@@YAPAU_object@@PAU1@0@Z
_TEXT	SEGMENT
_addr$ = -16						; size = 4
_port$ = -12						; size = 4
_account_addr$ = -8					; size = 4
_account_port$ = -4					; size = 4
_poSelf$ = 8						; size = 4
_poArgs$ = 12						; size = 4
?netConnectToAccountServer@@YAPAU_object@@PAU1@0@Z PROC	; netConnectToAccountServer, COMDAT

; 347  : {

  00000	55		 push	 ebp
  00001	8b ec		 mov	 ebp, esp
  00003	83 ec 10	 sub	 esp, 16			; 00000010H

; 348  : 	char* addr;
; 349  : 	if (!PyTuple_GetString(poArgs, 0, &addr))

  00006	8d 45 f0	 lea	 eax, DWORD PTR _addr$[ebp]
  00009	56		 push	 esi
  0000a	8b 75 0c	 mov	 esi, DWORD PTR _poArgs$[ebp]
  0000d	50		 push	 eax
  0000e	6a 00		 push	 0
  00010	56		 push	 esi
  00011	e8 00 00 00 00	 call	 ?PyTuple_GetString@@YA_NPAU_object@@HPAPAD@Z ; PyTuple_GetString
  00016	83 c4 0c	 add	 esp, 12			; 0000000cH
  00019	84 c0		 test	 al, al
  0001b	75 0f		 jne	 SHORT $LN2@netConnect
$LN7@netConnect:

; 367  : }

  0001d	6a 00		 push	 0
  0001f	e8 00 00 00 00	 call	 ?Py_BuildException@@YAPAU_object@@PBDZZ ; Py_BuildException
  00024	83 c4 04	 add	 esp, 4
  00027	5e		 pop	 esi
  00028	8b e5		 mov	 esp, ebp
  0002a	5d		 pop	 ebp
  0002b	c3		 ret	 0
$LN2@netConnect:

; 350  : 		return Py_BuildException();
; 351  : 
; 352  : 	int port;
; 353  : 	if (!PyTuple_GetInteger(poArgs, 1, &port))

  0002c	8d 45 f4	 lea	 eax, DWORD PTR _port$[ebp]
  0002f	50		 push	 eax
  00030	6a 01		 push	 1
  00032	56		 push	 esi
  00033	e8 00 00 00 00	 call	 ?PyTuple_GetInteger@@YA_NPAU_object@@HPAH@Z ; PyTuple_GetInteger
  00038	83 c4 0c	 add	 esp, 12			; 0000000cH
  0003b	84 c0		 test	 al, al
  0003d	74 de		 je	 SHORT $LN7@netConnect

; 354  : 		return Py_BuildException();
; 355  : 
; 356  : 	char* account_addr;
; 357  : 	if (!PyTuple_GetString(poArgs, 2, &account_addr))

  0003f	8d 45 f8	 lea	 eax, DWORD PTR _account_addr$[ebp]
  00042	50		 push	 eax
  00043	6a 02		 push	 2
  00045	56		 push	 esi
  00046	e8 00 00 00 00	 call	 ?PyTuple_GetString@@YA_NPAU_object@@HPAPAD@Z ; PyTuple_GetString
  0004b	83 c4 0c	 add	 esp, 12			; 0000000cH
  0004e	84 c0		 test	 al, al
  00050	74 cb		 je	 SHORT $LN7@netConnect

; 358  : 		return Py_BuildException();
; 359  : 
; 360  : 	int account_port;
; 361  : 	if (!PyTuple_GetInteger(poArgs, 3, &account_port))

  00052	8d 45 fc	 lea	 eax, DWORD PTR _account_port$[ebp]
  00055	50		 push	 eax
  00056	6a 03		 push	 3
  00058	56		 push	 esi
  00059	e8 00 00 00 00	 call	 ?PyTuple_GetInteger@@YA_NPAU_object@@HPAH@Z ; PyTuple_GetInteger
  0005e	83 c4 0c	 add	 esp, 12			; 0000000cH
  00061	84 c0		 test	 al, al
  00063	74 b8		 je	 SHORT $LN7@netConnect

; 362  : 		return Py_BuildException();
; 363  : 
; 364  : 	CAccountConnector & rkAccountConnector = CAccountConnector::Instance();
; 365  : 	rkAccountConnector.Connect(addr, port, account_addr, account_port);

  00065	ff 75 fc	 push	 DWORD PTR _account_port$[ebp]
  00068	8b 0d 00 00 00
	00		 mov	 ecx, DWORD PTR ?ms_singleton@?$CSingleton@VCAccountConnector@@@@0PAVCAccountConnector@@A ; CSingleton<CAccountConnector>::ms_singleton
  0006e	ff 75 f8	 push	 DWORD PTR _account_addr$[ebp]
  00071	ff 75 f4	 push	 DWORD PTR _port$[ebp]
  00074	ff 75 f0	 push	 DWORD PTR _addr$[ebp]
  00077	e8 00 00 00 00	 call	 ?Connect@CAccountConnector@@QAE_NPBDH0H@Z ; CAccountConnector::Connect

; 366  : 	return Py_BuildNone();

  0007c	e8 00 00 00 00	 call	 ?Py_BuildNone@@YAPAU_object@@XZ ; Py_BuildNone
  00081	5e		 pop	 esi

; 367  : }

  00082	8b e5		 mov	 esp, ebp
  00084	5d		 pop	 ebp
  00085	c3		 ret	 0
?netConnectToAccountServer@@YAPAU_object@@PAU1@0@Z ENDP	; netConnectToAccountServer
_TEXT	ENDS
; Function compile flags: /Ogtp
; File D:\Metin2 Server Files\mainline\SRC_2014\Metin2Client\UserInterface\PythonNetworkStreamModule.cpp
;	COMDAT ?netConnectUDP@@YAPAU_object@@PAU1@0@Z
_TEXT	SEGMENT
_iPort$ = -8						; size = 4
_c_szIP$ = -4						; size = 4
_poSelf$ = 8						; size = 4
_poArgs$ = 12						; size = 4
?netConnectUDP@@YAPAU_object@@PAU1@0@Z PROC		; netConnectUDP, COMDAT

; 334  : {

  00000	55		 push	 ebp
  00001	8b ec		 mov	 ebp, esp
  00003	83 ec 08	 sub	 esp, 8

; 335  : 	char * c_szIP;
; 336  : 	if (!PyTuple_GetString(poArgs, 0, &c_szIP))

  00006	8d 45 fc	 lea	 eax, DWORD PTR _c_szIP$[ebp]
  00009	50		 push	 eax
  0000a	6a 00		 push	 0
  0000c	ff 75 0c	 push	 DWORD PTR _poArgs$[ebp]
  0000f	e8 00 00 00 00	 call	 ?PyTuple_GetString@@YA_NPAU_object@@HPAPAD@Z ; PyTuple_GetString
  00014	83 c4 0c	 add	 esp, 12			; 0000000cH
  00017	84 c0		 test	 al, al
  00019	75 0e		 jne	 SHORT $LN2@netConnect
$LN5@netConnect:

; 344  : }

  0001b	6a 00		 push	 0
  0001d	e8 00 00 00 00	 call	 ?Py_BuildException@@YAPAU_object@@PBDZZ ; Py_BuildException
  00022	83 c4 04	 add	 esp, 4
  00025	8b e5		 mov	 esp, ebp
  00027	5d		 pop	 ebp
  00028	c3		 ret	 0
$LN2@netConnect:

; 337  : 		return Py_BuildException();
; 338  : 	int iPort;
; 339  : 	if (!PyTuple_GetInteger(poArgs, 1, &iPort))

  00029	8d 45 f8	 lea	 eax, DWORD PTR _iPort$[ebp]
  0002c	50		 push	 eax
  0002d	6a 01		 push	 1
  0002f	ff 75 0c	 push	 DWORD PTR _poArgs$[ebp]
  00032	e8 00 00 00 00	 call	 ?PyTuple_GetInteger@@YA_NPAU_object@@HPAH@Z ; PyTuple_GetInteger
  00037	83 c4 0c	 add	 esp, 12			; 0000000cH
  0003a	84 c0		 test	 al, al
  0003c	74 dd		 je	 SHORT $LN5@netConnect

; 340  : 		return Py_BuildException();
; 341  : 
; 342  : 	//CPythonNetworkDatagram::Instance().SetConnection(c_szIP, iPort);
; 343  : 	return Py_BuildNone();

  0003e	e8 00 00 00 00	 call	 ?Py_BuildNone@@YAPAU_object@@XZ ; Py_BuildNone

; 344  : }

  00043	8b e5		 mov	 esp, ebp
  00045	5d		 pop	 ebp
  00046	c3		 ret	 0
?netConnectUDP@@YAPAU_object@@PAU1@0@Z ENDP		; netConnectUDP
_TEXT	ENDS
; Function compile flags: /Ogtp
; File D:\Metin2 Server Files\mainline\SRC_2014\Metin2Client\UserInterface\PythonNetworkStreamModule.cpp
;	COMDAT ?netConnectTCP@@YAPAU_object@@PAU1@0@Z
_TEXT	SEGMENT
_szAddr$ = -8						; size = 4
_port$ = -4						; size = 4
_poSelf$ = 8						; size = 4
_poArgs$ = 12						; size = 4
?netConnectTCP@@YAPAU_object@@PAU1@0@Z PROC		; netConnectTCP, COMDAT

; 319  : {

  00000	55		 push	 ebp
  00001	8b ec		 mov	 ebp, esp
  00003	83 ec 08	 sub	 esp, 8

; 320  : 	char* szAddr;
; 321  : 	if (!PyTuple_GetString(poArgs, 0, &szAddr))

  00006	8d 45 f8	 lea	 eax, DWORD PTR _szAddr$[ebp]
  00009	50		 push	 eax
  0000a	6a 00		 push	 0
  0000c	ff 75 0c	 push	 DWORD PTR _poArgs$[ebp]
  0000f	e8 00 00 00 00	 call	 ?PyTuple_GetString@@YA_NPAU_object@@HPAPAD@Z ; PyTuple_GetString
  00014	83 c4 0c	 add	 esp, 12			; 0000000cH
  00017	84 c0		 test	 al, al
  00019	75 0e		 jne	 SHORT $LN2@netConnect
$LN5@netConnect:

; 331  : }

  0001b	6a 00		 push	 0
  0001d	e8 00 00 00 00	 call	 ?Py_BuildException@@YAPAU_object@@PBDZZ ; Py_BuildException
  00022	83 c4 04	 add	 esp, 4
  00025	8b e5		 mov	 esp, ebp
  00027	5d		 pop	 ebp
  00028	c3		 ret	 0
$LN2@netConnect:

; 322  : 		return Py_BuildException();
; 323  : 
; 324  : 	int port;
; 325  : 	if (!PyTuple_GetInteger(poArgs, 1, &port))

  00029	8d 45 fc	 lea	 eax, DWORD PTR _port$[ebp]
  0002c	50		 push	 eax
  0002d	6a 01		 push	 1
  0002f	ff 75 0c	 push	 DWORD PTR _poArgs$[ebp]
  00032	e8 00 00 00 00	 call	 ?PyTuple_GetInteger@@YA_NPAU_object@@HPAH@Z ; PyTuple_GetInteger
  00037	83 c4 0c	 add	 esp, 12			; 0000000cH
  0003a	84 c0		 test	 al, al
  0003c	74 dd		 je	 SHORT $LN5@netConnect

; 326  : 		return Py_BuildException();
; 327  : 
; 328  : 	CPythonNetworkStream& rkNetStream=CPythonNetworkStream::Instance();
; 329  : 	rkNetStream.ConnectLoginServer(szAddr, port);

  0003e	ff 75 fc	 push	 DWORD PTR _port$[ebp]
  00041	8b 0d 00 00 00
	00		 mov	 ecx, DWORD PTR ?ms_singleton@?$CSingleton@VCPythonNetworkStream@@@@0PAVCPythonNetworkStream@@A ; CSingleton<CPythonNetworkStream>::ms_singleton
  00047	ff 75 f8	 push	 DWORD PTR _szAddr$[ebp]
  0004a	e8 00 00 00 00	 call	 ?ConnectLoginServer@CPythonNetworkStream@@QAEXPBDI@Z ; CPythonNetworkStream::ConnectLoginServer

; 330  : 	return Py_BuildNone();

  0004f	e8 00 00 00 00	 call	 ?Py_BuildNone@@YAPAU_object@@XZ ; Py_BuildNone

; 331  : }

  00054	8b e5		 mov	 esp, ebp
  00056	5d		 pop	 ebp
  00057	c3		 ret	 0
?netConnectTCP@@YAPAU_object@@PAU1@0@Z ENDP		; netConnectTCP
_TEXT	ENDS
; Function compile flags: /Ogtp
; File D:\Metin2 Server Files\mainline\SRC_2014\Metin2Client\UserInterface\PythonNetworkStreamModule.cpp
;	COMDAT ?netSetMarkServer@@YAPAU_object@@PAU1@0@Z
_TEXT	SEGMENT
_szAddr$ = -8						; size = 4
_port$ = -4						; size = 4
_poSelf$ = 8						; size = 4
_poArgs$ = 12						; size = 4
?netSetMarkServer@@YAPAU_object@@PAU1@0@Z PROC		; netSetMarkServer, COMDAT

; 304  : {

  00000	55		 push	 ebp
  00001	8b ec		 mov	 ebp, esp
  00003	83 ec 08	 sub	 esp, 8

; 305  : 	char* szAddr;
; 306  : 	if (!PyTuple_GetString(poArgs, 0, &szAddr))

  00006	8d 45 f8	 lea	 eax, DWORD PTR _szAddr$[ebp]
  00009	50		 push	 eax
  0000a	6a 00		 push	 0
  0000c	ff 75 0c	 push	 DWORD PTR _poArgs$[ebp]
  0000f	e8 00 00 00 00	 call	 ?PyTuple_GetString@@YA_NPAU_object@@HPAPAD@Z ; PyTuple_GetString
  00014	83 c4 0c	 add	 esp, 12			; 0000000cH
  00017	84 c0		 test	 al, al
  00019	75 0e		 jne	 SHORT $LN2@netSetMark
$LN5@netSetMark:

; 316  : }

  0001b	6a 00		 push	 0
  0001d	e8 00 00 00 00	 call	 ?Py_BuildException@@YAPAU_object@@PBDZZ ; Py_BuildException
  00022	83 c4 04	 add	 esp, 4
  00025	8b e5		 mov	 esp, ebp
  00027	5d		 pop	 ebp
  00028	c3		 ret	 0
$LN2@netSetMark:

; 307  : 		return Py_BuildException();
; 308  : 
; 309  : 	int port;
; 310  : 	if (!PyTuple_GetInteger(poArgs, 1, &port))

  00029	8d 45 fc	 lea	 eax, DWORD PTR _port$[ebp]
  0002c	50		 push	 eax
  0002d	6a 01		 push	 1
  0002f	ff 75 0c	 push	 DWORD PTR _poArgs$[ebp]
  00032	e8 00 00 00 00	 call	 ?PyTuple_GetInteger@@YA_NPAU_object@@HPAH@Z ; PyTuple_GetInteger
  00037	83 c4 0c	 add	 esp, 12			; 0000000cH
  0003a	84 c0		 test	 al, al
  0003c	74 dd		 je	 SHORT $LN5@netSetMark

; 311  : 		return Py_BuildException();
; 312  : 
; 313  : 	CPythonNetworkStream& rkNetStream=CPythonNetworkStream::Instance();
; 314  : 	rkNetStream.SetMarkServer(szAddr, port);

  0003e	ff 75 fc	 push	 DWORD PTR _port$[ebp]
  00041	8b 0d 00 00 00
	00		 mov	 ecx, DWORD PTR ?ms_singleton@?$CSingleton@VCPythonNetworkStream@@@@0PAVCPythonNetworkStream@@A ; CSingleton<CPythonNetworkStream>::ms_singleton
  00047	ff 75 f8	 push	 DWORD PTR _szAddr$[ebp]
  0004a	e8 00 00 00 00	 call	 ?SetMarkServer@CPythonNetworkStream@@QAEXPBDI@Z ; CPythonNetworkStream::SetMarkServer

; 315  : 	return Py_BuildNone();

  0004f	e8 00 00 00 00	 call	 ?Py_BuildNone@@YAPAU_object@@XZ ; Py_BuildNone

; 316  : }

  00054	8b e5		 mov	 esp, ebp
  00056	5d		 pop	 ebp
  00057	c3		 ret	 0
?netSetMarkServer@@YAPAU_object@@PAU1@0@Z ENDP		; netSetMarkServer
_TEXT	ENDS
; Function compile flags: /Ogtp
; File D:\Metin2 Server Files\mainline\SRC_2014\Metin2Client\UserInterface\PythonNetworkStreamModule.cpp
;	COMDAT ?netSetUDPRecvBufferSize@@YAPAU_object@@PAU1@0@Z
_TEXT	SEGMENT
_bufSize$ = -4						; size = 4
_poSelf$ = 8						; size = 4
_poArgs$ = 12						; size = 4
?netSetUDPRecvBufferSize@@YAPAU_object@@PAU1@0@Z PROC	; netSetUDPRecvBufferSize, COMDAT

; 294  : {

  00000	55		 push	 ebp
  00001	8b ec		 mov	 ebp, esp
  00003	51		 push	 ecx

; 295  : 	int bufSize;
; 296  : 	if (!PyTuple_GetInteger(poArgs, 0, &bufSize))

  00004	8d 45 fc	 lea	 eax, DWORD PTR _bufSize$[ebp]
  00007	50		 push	 eax
  00008	6a 00		 push	 0
  0000a	ff 75 0c	 push	 DWORD PTR _poArgs$[ebp]
  0000d	e8 00 00 00 00	 call	 ?PyTuple_GetInteger@@YA_NPAU_object@@HPAH@Z ; PyTuple_GetInteger
  00012	83 c4 0c	 add	 esp, 12			; 0000000cH
  00015	84 c0		 test	 al, al
  00017	75 0e		 jne	 SHORT $LN2@netSetUDPR

; 297  : 		return Py_BuildException();

  00019	6a 00		 push	 0
  0001b	e8 00 00 00 00	 call	 ?Py_BuildException@@YAPAU_object@@PBDZZ ; Py_BuildException
  00020	83 c4 04	 add	 esp, 4

; 301  : }

  00023	8b e5		 mov	 esp, ebp
  00025	5d		 pop	 ebp
  00026	c3		 ret	 0
$LN2@netSetUDPR:

; 298  : 
; 299  : 	//CPythonNetworkDatagram::Instance().SetRecvBufferSize(bufSize);
; 300  : 	return Py_BuildNone();

  00027	e8 00 00 00 00	 call	 ?Py_BuildNone@@YAPAU_object@@XZ ; Py_BuildNone

; 301  : }

  0002c	8b e5		 mov	 esp, ebp
  0002e	5d		 pop	 ebp
  0002f	c3		 ret	 0
?netSetUDPRecvBufferSize@@YAPAU_object@@PAU1@0@Z ENDP	; netSetUDPRecvBufferSize
_TEXT	ENDS
; Function compile flags: /Ogtp
; File D:\Metin2 Server Files\mainline\SRC_2014\Metin2Client\UserInterface\PythonNetworkStreamModule.cpp
;	COMDAT ?netSetTCPSendBufferSize@@YAPAU_object@@PAU1@0@Z
_TEXT	SEGMENT
_bufSize$ = -4						; size = 4
_poSelf$ = 8						; size = 4
_poArgs$ = 12						; size = 4
?netSetTCPSendBufferSize@@YAPAU_object@@PAU1@0@Z PROC	; netSetTCPSendBufferSize, COMDAT

; 283  : {

  00000	55		 push	 ebp
  00001	8b ec		 mov	 ebp, esp
  00003	51		 push	 ecx

; 284  : 	int bufSize;
; 285  : 	if (!PyTuple_GetInteger(poArgs, 0, &bufSize))

  00004	8d 45 fc	 lea	 eax, DWORD PTR _bufSize$[ebp]
  00007	50		 push	 eax
  00008	6a 00		 push	 0
  0000a	ff 75 0c	 push	 DWORD PTR _poArgs$[ebp]
  0000d	e8 00 00 00 00	 call	 ?PyTuple_GetInteger@@YA_NPAU_object@@HPAH@Z ; PyTuple_GetInteger
  00012	83 c4 0c	 add	 esp, 12			; 0000000cH
  00015	84 c0		 test	 al, al
  00017	75 0e		 jne	 SHORT $LN2@netSetTCPS

; 286  : 		return Py_BuildException();

  00019	6a 00		 push	 0
  0001b	e8 00 00 00 00	 call	 ?Py_BuildException@@YAPAU_object@@PBDZZ ; Py_BuildException
  00020	83 c4 04	 add	 esp, 4

; 291  : }

  00023	8b e5		 mov	 esp, ebp
  00025	5d		 pop	 ebp
  00026	c3		 ret	 0
$LN2@netSetTCPS:

; 287  : 
; 288  : 	CPythonNetworkStream& rkNetStream=CPythonNetworkStream::Instance();
; 289  : 	rkNetStream.SetSendBufferSize(bufSize);

  00027	ff 75 fc	 push	 DWORD PTR _bufSize$[ebp]
  0002a	8b 0d 00 00 00
	00		 mov	 ecx, DWORD PTR ?ms_singleton@?$CSingleton@VCPythonNetworkStream@@@@0PAVCPythonNetworkStream@@A ; CSingleton<CPythonNetworkStream>::ms_singleton
  00030	e8 00 00 00 00	 call	 ?SetSendBufferSize@CNetworkStream@@QAEXH@Z ; CNetworkStream::SetSendBufferSize

; 290  : 	return Py_BuildNone();

  00035	e8 00 00 00 00	 call	 ?Py_BuildNone@@YAPAU_object@@XZ ; Py_BuildNone

; 291  : }

  0003a	8b e5		 mov	 esp, ebp
  0003c	5d		 pop	 ebp
  0003d	c3		 ret	 0
?netSetTCPSendBufferSize@@YAPAU_object@@PAU1@0@Z ENDP	; netSetTCPSendBufferSize
_TEXT	ENDS
; Function compile flags: /Ogtp
; File D:\Metin2 Server Files\mainline\SRC_2014\Metin2Client\UserInterface\PythonNetworkStreamModule.cpp
;	COMDAT ?netSetTCPRecvBufferSize@@YAPAU_object@@PAU1@0@Z
_TEXT	SEGMENT
_bufSize$ = -4						; size = 4
_poSelf$ = 8						; size = 4
_poArgs$ = 12						; size = 4
?netSetTCPRecvBufferSize@@YAPAU_object@@PAU1@0@Z PROC	; netSetTCPRecvBufferSize, COMDAT

; 272  : {

  00000	55		 push	 ebp
  00001	8b ec		 mov	 ebp, esp
  00003	51		 push	 ecx

; 273  : 	int bufSize;
; 274  : 	if (!PyTuple_GetInteger(poArgs, 0, &bufSize))

  00004	8d 45 fc	 lea	 eax, DWORD PTR _bufSize$[ebp]
  00007	50		 push	 eax
  00008	6a 00		 push	 0
  0000a	ff 75 0c	 push	 DWORD PTR _poArgs$[ebp]
  0000d	e8 00 00 00 00	 call	 ?PyTuple_GetInteger@@YA_NPAU_object@@HPAH@Z ; PyTuple_GetInteger
  00012	83 c4 0c	 add	 esp, 12			; 0000000cH
  00015	84 c0		 test	 al, al
  00017	75 0e		 jne	 SHORT $LN2@netSetTCPR

; 275  : 		return Py_BuildException();

  00019	6a 00		 push	 0
  0001b	e8 00 00 00 00	 call	 ?Py_BuildException@@YAPAU_object@@PBDZZ ; Py_BuildException
  00020	83 c4 04	 add	 esp, 4

; 280  : }

  00023	8b e5		 mov	 esp, ebp
  00025	5d		 pop	 ebp
  00026	c3		 ret	 0
$LN2@netSetTCPR:

; 276  : 
; 277  : 	CPythonNetworkStream& rkNetStream=CPythonNetworkStream::Instance();
; 278  : 	rkNetStream.SetRecvBufferSize(bufSize);

  00027	ff 75 fc	 push	 DWORD PTR _bufSize$[ebp]
  0002a	8b 0d 00 00 00
	00		 mov	 ecx, DWORD PTR ?ms_singleton@?$CSingleton@VCPythonNetworkStream@@@@0PAVCPythonNetworkStream@@A ; CSingleton<CPythonNetworkStream>::ms_singleton
  00030	e8 00 00 00 00	 call	 ?SetRecvBufferSize@CNetworkStream@@QAEXH@Z ; CNetworkStream::SetRecvBufferSize

; 279  : 	return Py_BuildNone();

  00035	e8 00 00 00 00	 call	 ?Py_BuildNone@@YAPAU_object@@XZ ; Py_BuildNone

; 280  : }

  0003a	8b e5		 mov	 esp, ebp
  0003c	5d		 pop	 ebp
  0003d	c3		 ret	 0
?netSetTCPRecvBufferSize@@YAPAU_object@@PAU1@0@Z ENDP	; netSetTCPRecvBufferSize
_TEXT	ENDS
; Function compile flags: /Ogtp
; File D:\Metin2 Server Files\mainline\SRC_2014\Metin2Client\UserInterface\PythonNetworkStreamModule.cpp
;	COMDAT ?netSetHandler@@YAPAU_object@@PAU1@0@Z
_TEXT	SEGMENT
_poHandler$ = -4					; size = 4
_poSelf$ = 8						; size = 4
_poArgs$ = 12						; size = 4
?netSetHandler@@YAPAU_object@@PAU1@0@Z PROC		; netSetHandler, COMDAT

; 260  : {

  00000	55		 push	 ebp
  00001	8b ec		 mov	 ebp, esp
  00003	51		 push	 ecx

; 261  : 	PyObject* poHandler;
; 262  : 
; 263  : 	if (!PyTuple_GetObject(poArgs, 0, &poHandler))

  00004	8d 45 fc	 lea	 eax, DWORD PTR _poHandler$[ebp]
  00007	50		 push	 eax
  00008	6a 00		 push	 0
  0000a	ff 75 0c	 push	 DWORD PTR _poArgs$[ebp]
  0000d	e8 00 00 00 00	 call	 ?PyTuple_GetObject@@YA_NPAU_object@@HPAPAU1@@Z ; PyTuple_GetObject
  00012	83 c4 0c	 add	 esp, 12			; 0000000cH
  00015	84 c0		 test	 al, al
  00017	75 0e		 jne	 SHORT $LN2@netSetHand

; 264  : 		return Py_BuildException();

  00019	6a 00		 push	 0
  0001b	e8 00 00 00 00	 call	 ?Py_BuildException@@YAPAU_object@@PBDZZ ; Py_BuildException
  00020	83 c4 04	 add	 esp, 4

; 269  : }

  00023	8b e5		 mov	 esp, ebp
  00025	5d		 pop	 ebp
  00026	c3		 ret	 0
$LN2@netSetHand:

; 265  : 
; 266  : 	CPythonNetworkStream& rkNetStream=CPythonNetworkStream::Instance();
; 267  : 	rkNetStream.SetHandler(poHandler);

  00027	ff 75 fc	 push	 DWORD PTR _poHandler$[ebp]
  0002a	8b 0d 00 00 00
	00		 mov	 ecx, DWORD PTR ?ms_singleton@?$CSingleton@VCPythonNetworkStream@@@@0PAVCPythonNetworkStream@@A ; CSingleton<CPythonNetworkStream>::ms_singleton
  00030	e8 00 00 00 00	 call	 ?SetHandler@CPythonNetworkStream@@QAEXPAU_object@@@Z ; CPythonNetworkStream::SetHandler

; 268  : 	return Py_BuildNone();

  00035	e8 00 00 00 00	 call	 ?Py_BuildNone@@YAPAU_object@@XZ ; Py_BuildNone

; 269  : }

  0003a	8b e5		 mov	 esp, ebp
  0003c	5d		 pop	 ebp
  0003d	c3		 ret	 0
?netSetHandler@@YAPAU_object@@PAU1@0@Z ENDP		; netSetHandler
_TEXT	ENDS
; Function compile flags: /Ogtp
; File D:\Metin2 Server Files\mainline\SRC_2014\Metin2Client\UserInterface\PythonNetworkStreamModule.cpp
;	COMDAT ?netSetAccountConnectorHandler@@YAPAU_object@@PAU1@0@Z
_TEXT	SEGMENT
_poPhaseWnd$ = -4					; size = 4
_poSelf$ = 8						; size = 4
_poArgs$ = 12						; size = 4
?netSetAccountConnectorHandler@@YAPAU_object@@PAU1@0@Z PROC ; netSetAccountConnectorHandler, COMDAT

; 249  : {

  00000	55		 push	 ebp
  00001	8b ec		 mov	 ebp, esp
  00003	51		 push	 ecx

; 250  : 	PyObject* poPhaseWnd;
; 251  : 	if (!PyTuple_GetObject(poArgs, 0, &poPhaseWnd))

  00004	8d 45 fc	 lea	 eax, DWORD PTR _poPhaseWnd$[ebp]
  00007	50		 push	 eax
  00008	6a 00		 push	 0
  0000a	ff 75 0c	 push	 DWORD PTR _poArgs$[ebp]
  0000d	e8 00 00 00 00	 call	 ?PyTuple_GetObject@@YA_NPAU_object@@HPAPAU1@@Z ; PyTuple_GetObject
  00012	83 c4 0c	 add	 esp, 12			; 0000000cH
  00015	84 c0		 test	 al, al
  00017	75 0e		 jne	 SHORT $LN2@netSetAcco

; 252  : 		return Py_BuildException();

  00019	6a 00		 push	 0
  0001b	e8 00 00 00 00	 call	 ?Py_BuildException@@YAPAU_object@@PBDZZ ; Py_BuildException
  00020	83 c4 04	 add	 esp, 4

; 257  : }

  00023	8b e5		 mov	 esp, ebp
  00025	5d		 pop	 ebp
  00026	c3		 ret	 0
$LN2@netSetAcco:

; 253  : 
; 254  : 	CAccountConnector & rkAccountConnector = CAccountConnector::Instance();
; 255  : 	rkAccountConnector.SetHandler(poPhaseWnd);

  00027	ff 75 fc	 push	 DWORD PTR _poPhaseWnd$[ebp]
  0002a	8b 0d 00 00 00
	00		 mov	 ecx, DWORD PTR ?ms_singleton@?$CSingleton@VCAccountConnector@@@@0PAVCAccountConnector@@A ; CSingleton<CAccountConnector>::ms_singleton
  00030	e8 00 00 00 00	 call	 ?SetHandler@CAccountConnector@@QAEXPAU_object@@@Z ; CAccountConnector::SetHandler

; 256  : 	return Py_BuildNone();

  00035	e8 00 00 00 00	 call	 ?Py_BuildNone@@YAPAU_object@@XZ ; Py_BuildNone

; 257  : }

  0003a	8b e5		 mov	 esp, ebp
  0003c	5d		 pop	 ebp
  0003d	c3		 ret	 0
?netSetAccountConnectorHandler@@YAPAU_object@@PAU1@0@Z ENDP ; netSetAccountConnectorHandler
_TEXT	ENDS
; Function compile flags: /Ogtp
; File D:\Metin2 Server Files\mainline\SRC_2014\Metin2Client\UserInterface\PythonNetworkStreamModule.cpp
;	COMDAT ?netSetServerCommandParserWindow@@YAPAU_object@@PAU1@0@Z
_TEXT	SEGMENT
_poPhaseWnd$ = -4					; size = 4
_poSelf$ = 8						; size = 4
_poArgs$ = 12						; size = 4
?netSetServerCommandParserWindow@@YAPAU_object@@PAU1@0@Z PROC ; netSetServerCommandParserWindow, COMDAT

; 238  : {

  00000	55		 push	 ebp
  00001	8b ec		 mov	 ebp, esp
  00003	51		 push	 ecx

; 239  : 	PyObject* poPhaseWnd;
; 240  : 	if (!PyTuple_GetObject(poArgs, 0, &poPhaseWnd))

  00004	8d 45 fc	 lea	 eax, DWORD PTR _poPhaseWnd$[ebp]
  00007	50		 push	 eax
  00008	6a 00		 push	 0
  0000a	ff 75 0c	 push	 DWORD PTR _poArgs$[ebp]
  0000d	e8 00 00 00 00	 call	 ?PyTuple_GetObject@@YA_NPAU_object@@HPAPAU1@@Z ; PyTuple_GetObject
  00012	83 c4 0c	 add	 esp, 12			; 0000000cH
  00015	84 c0		 test	 al, al
  00017	75 0e		 jne	 SHORT $LN2@netSetServ

; 241  : 		return Py_BuildException();

  00019	6a 00		 push	 0
  0001b	e8 00 00 00 00	 call	 ?Py_BuildException@@YAPAU_object@@PBDZZ ; Py_BuildException
  00020	83 c4 04	 add	 esp, 4

; 246  : }

  00023	8b e5		 mov	 esp, ebp
  00025	5d		 pop	 ebp
  00026	c3		 ret	 0
$LN2@netSetServ:

; 242  : 
; 243  : 	CPythonNetworkStream& rkNetStream=CPythonNetworkStream::Instance();
; 244  : 	rkNetStream.SetServerCommandParserWindow(poPhaseWnd);

  00027	ff 75 fc	 push	 DWORD PTR _poPhaseWnd$[ebp]
  0002a	8b 0d 00 00 00
	00		 mov	 ecx, DWORD PTR ?ms_singleton@?$CSingleton@VCPythonNetworkStream@@@@0PAVCPythonNetworkStream@@A ; CSingleton<CPythonNetworkStream>::ms_singleton
  00030	e8 00 00 00 00	 call	 ?SetServerCommandParserWindow@CPythonNetworkStream@@QAEXPAU_object@@@Z ; CPythonNetworkStream::SetServerCommandParserWindow

; 245  : 	return Py_BuildNone();

  00035	e8 00 00 00 00	 call	 ?Py_BuildNone@@YAPAU_object@@XZ ; Py_BuildNone

; 246  : }

  0003a	8b e5		 mov	 esp, ebp
  0003c	5d		 pop	 ebp
  0003d	c3		 ret	 0
?netSetServerCommandParserWindow@@YAPAU_object@@PAU1@0@Z ENDP ; netSetServerCommandParserWindow
_TEXT	ENDS
; Function compile flags: /Ogtp
; File D:\Metin2 Server Files\mainline\SRC_2014\Metin2Client\UserInterface\PythonNetworkStreamModule.cpp
;	COMDAT ?netClearPhaseWindow@@YAPAU_object@@PAU1@0@Z
_TEXT	SEGMENT
_ePhaseWnd$ = -8					; size = 4
_poPhaseWnd$ = -4					; size = 4
_poSelf$ = 8						; size = 4
_poArgs$ = 12						; size = 4
?netClearPhaseWindow@@YAPAU_object@@PAU1@0@Z PROC	; netClearPhaseWindow, COMDAT

; 223  : {

  00000	55		 push	 ebp
  00001	8b ec		 mov	 ebp, esp
  00003	83 ec 08	 sub	 esp, 8

; 224  : 	int ePhaseWnd;
; 225  : 	if (!PyTuple_GetInteger(poArgs, 0, &ePhaseWnd))

  00006	8d 45 f8	 lea	 eax, DWORD PTR _ePhaseWnd$[ebp]
  00009	50		 push	 eax
  0000a	6a 00		 push	 0
  0000c	ff 75 0c	 push	 DWORD PTR _poArgs$[ebp]
  0000f	e8 00 00 00 00	 call	 ?PyTuple_GetInteger@@YA_NPAU_object@@HPAH@Z ; PyTuple_GetInteger
  00014	83 c4 0c	 add	 esp, 12			; 0000000cH
  00017	84 c0		 test	 al, al
  00019	75 0e		 jne	 SHORT $LN2@netClearPh
$LN5@netClearPh:

; 235  : }

  0001b	6a 00		 push	 0
  0001d	e8 00 00 00 00	 call	 ?Py_BuildException@@YAPAU_object@@PBDZZ ; Py_BuildException
  00022	83 c4 04	 add	 esp, 4
  00025	8b e5		 mov	 esp, ebp
  00027	5d		 pop	 ebp
  00028	c3		 ret	 0
$LN2@netClearPh:

; 226  : 		return Py_BuildException();
; 227  : 
; 228  : 	PyObject* poPhaseWnd;
; 229  : 	if (!PyTuple_GetObject(poArgs, 1, &poPhaseWnd))

  00029	8d 45 fc	 lea	 eax, DWORD PTR _poPhaseWnd$[ebp]
  0002c	50		 push	 eax
  0002d	6a 01		 push	 1
  0002f	ff 75 0c	 push	 DWORD PTR _poArgs$[ebp]
  00032	e8 00 00 00 00	 call	 ?PyTuple_GetObject@@YA_NPAU_object@@HPAPAU1@@Z ; PyTuple_GetObject
  00037	83 c4 0c	 add	 esp, 12			; 0000000cH
  0003a	84 c0		 test	 al, al
  0003c	74 dd		 je	 SHORT $LN5@netClearPh

; 230  : 		return Py_BuildException();
; 231  : 
; 232  : 	CPythonNetworkStream& rkNetStream=CPythonNetworkStream::Instance();
; 233  : 	rkNetStream.ClearPhaseWindow(ePhaseWnd, poPhaseWnd);

  0003e	ff 75 fc	 push	 DWORD PTR _poPhaseWnd$[ebp]
  00041	8b 0d 00 00 00
	00		 mov	 ecx, DWORD PTR ?ms_singleton@?$CSingleton@VCPythonNetworkStream@@@@0PAVCPythonNetworkStream@@A ; CSingleton<CPythonNetworkStream>::ms_singleton
  00047	ff 75 f8	 push	 DWORD PTR _ePhaseWnd$[ebp]
  0004a	e8 00 00 00 00	 call	 ?ClearPhaseWindow@CPythonNetworkStream@@QAEXIPAU_object@@@Z ; CPythonNetworkStream::ClearPhaseWindow

; 234  : 	return Py_BuildNone();

  0004f	e8 00 00 00 00	 call	 ?Py_BuildNone@@YAPAU_object@@XZ ; Py_BuildNone

; 235  : }

  00054	8b e5		 mov	 esp, ebp
  00056	5d		 pop	 ebp
  00057	c3		 ret	 0
?netClearPhaseWindow@@YAPAU_object@@PAU1@0@Z ENDP	; netClearPhaseWindow
_TEXT	ENDS
; Function compile flags: /Ogtp
; File D:\Metin2 Server Files\mainline\SRC_2014\Metin2Client\UserInterface\PythonNetworkStreamModule.cpp
;	COMDAT ?netSetPhaseWindow@@YAPAU_object@@PAU1@0@Z
_TEXT	SEGMENT
_ePhaseWnd$ = -8					; size = 4
_poPhaseWnd$ = -4					; size = 4
_poSelf$ = 8						; size = 4
_poArgs$ = 12						; size = 4
?netSetPhaseWindow@@YAPAU_object@@PAU1@0@Z PROC		; netSetPhaseWindow, COMDAT

; 208  : {

  00000	55		 push	 ebp
  00001	8b ec		 mov	 ebp, esp
  00003	83 ec 08	 sub	 esp, 8

; 209  : 	int ePhaseWnd;
; 210  : 	if (!PyTuple_GetInteger(poArgs, 0, &ePhaseWnd))

  00006	8d 45 f8	 lea	 eax, DWORD PTR _ePhaseWnd$[ebp]
  00009	50		 push	 eax
  0000a	6a 00		 push	 0
  0000c	ff 75 0c	 push	 DWORD PTR _poArgs$[ebp]
  0000f	e8 00 00 00 00	 call	 ?PyTuple_GetInteger@@YA_NPAU_object@@HPAH@Z ; PyTuple_GetInteger
  00014	83 c4 0c	 add	 esp, 12			; 0000000cH
  00017	84 c0		 test	 al, al
  00019	75 0e		 jne	 SHORT $LN2@netSetPhas
$LN5@netSetPhas:

; 220  : }

  0001b	6a 00		 push	 0
  0001d	e8 00 00 00 00	 call	 ?Py_BuildException@@YAPAU_object@@PBDZZ ; Py_BuildException
  00022	83 c4 04	 add	 esp, 4
  00025	8b e5		 mov	 esp, ebp
  00027	5d		 pop	 ebp
  00028	c3		 ret	 0
$LN2@netSetPhas:

; 211  : 		return Py_BuildException();
; 212  : 
; 213  : 	PyObject* poPhaseWnd;
; 214  : 	if (!PyTuple_GetObject(poArgs, 1, &poPhaseWnd))

  00029	8d 45 fc	 lea	 eax, DWORD PTR _poPhaseWnd$[ebp]
  0002c	50		 push	 eax
  0002d	6a 01		 push	 1
  0002f	ff 75 0c	 push	 DWORD PTR _poArgs$[ebp]
  00032	e8 00 00 00 00	 call	 ?PyTuple_GetObject@@YA_NPAU_object@@HPAPAU1@@Z ; PyTuple_GetObject
  00037	83 c4 0c	 add	 esp, 12			; 0000000cH
  0003a	84 c0		 test	 al, al
  0003c	74 dd		 je	 SHORT $LN5@netSetPhas

; 215  : 		return Py_BuildException();
; 216  : 
; 217  : 	CPythonNetworkStream& rkNetStream=CPythonNetworkStream::Instance();
; 218  : 	rkNetStream.SetPhaseWindow(ePhaseWnd, poPhaseWnd);

  0003e	ff 75 fc	 push	 DWORD PTR _poPhaseWnd$[ebp]
  00041	8b 0d 00 00 00
	00		 mov	 ecx, DWORD PTR ?ms_singleton@?$CSingleton@VCPythonNetworkStream@@@@0PAVCPythonNetworkStream@@A ; CSingleton<CPythonNetworkStream>::ms_singleton
  00047	ff 75 f8	 push	 DWORD PTR _ePhaseWnd$[ebp]
  0004a	e8 00 00 00 00	 call	 ?SetPhaseWindow@CPythonNetworkStream@@QAEXIPAU_object@@@Z ; CPythonNetworkStream::SetPhaseWindow

; 219  : 	return Py_BuildNone();

  0004f	e8 00 00 00 00	 call	 ?Py_BuildNone@@YAPAU_object@@XZ ; Py_BuildNone

; 220  : }

  00054	8b e5		 mov	 esp, ebp
  00056	5d		 pop	 ebp
  00057	c3		 ret	 0
?netSetPhaseWindow@@YAPAU_object@@PAU1@0@Z ENDP		; netSetPhaseWindow
_TEXT	ENDS
; Function compile flags: /Ogtp
; File D:\Metin2 Server Files\mainline\SRC_2014\Metin2Client\UserInterface\PythonNetworkStreamModule.cpp
;	COMDAT ?netGetFieldMusicVolume@@YAPAU_object@@PAU1@0@Z
_TEXT	SEGMENT
_poSelf$ = 8						; size = 4
_poArgs$ = 12						; size = 4
?netGetFieldMusicVolume@@YAPAU_object@@PAU1@0@Z PROC	; netGetFieldMusicVolume, COMDAT

; 202  : 	CPythonNetworkStream& rkNetStream=CPythonNetworkStream::Instance();
; 203  : 	return Py_BuildValue("f", rkNetStream.GetFieldMusicVolume());

  00000	8b 0d 00 00 00
	00		 mov	 ecx, DWORD PTR ?ms_singleton@?$CSingleton@VCPythonNetworkStream@@@@0PAVCPythonNetworkStream@@A ; CSingleton<CPythonNetworkStream>::ms_singleton
  00006	e8 00 00 00 00	 call	 ?GetFieldMusicVolume@CPythonNetworkStream@@QAEMXZ ; CPythonNetworkStream::GetFieldMusicVolume
  0000b	83 ec 08	 sub	 esp, 8
  0000e	dd 1c 24	 fstp	 QWORD PTR [esp]
  00011	68 00 00 00 00	 push	 OFFSET ??_C@_01INIBCBCB@f@
  00016	ff 15 00 00 00
	00		 call	 DWORD PTR __imp__Py_BuildValue
  0001c	83 c4 0c	 add	 esp, 12			; 0000000cH

; 204  : }

  0001f	c3		 ret	 0
?netGetFieldMusicVolume@@YAPAU_object@@PAU1@0@Z ENDP	; netGetFieldMusicVolume
_TEXT	ENDS
; Function compile flags: /Ogtp
; File D:\Metin2 Server Files\mainline\SRC_2014\Metin2Client\UserInterface\PythonNetworkStreamModule.cpp
;	COMDAT ?netGetFieldMusicFileName@@YAPAU_object@@PAU1@0@Z
_TEXT	SEGMENT
_poSelf$ = 8						; size = 4
_poArgs$ = 12						; size = 4
?netGetFieldMusicFileName@@YAPAU_object@@PAU1@0@Z PROC	; netGetFieldMusicFileName, COMDAT

; 196  : 	CPythonNetworkStream& rkNetStream=CPythonNetworkStream::Instance();
; 197  : 	return Py_BuildValue("s", rkNetStream.GetFieldMusicFileName());

  00000	8b 0d 00 00 00
	00		 mov	 ecx, DWORD PTR ?ms_singleton@?$CSingleton@VCPythonNetworkStream@@@@0PAVCPythonNetworkStream@@A ; CSingleton<CPythonNetworkStream>::ms_singleton
  00006	e8 00 00 00 00	 call	 ?GetFieldMusicFileName@CPythonNetworkStream@@QAEPBDXZ ; CPythonNetworkStream::GetFieldMusicFileName
  0000b	50		 push	 eax
  0000c	68 00 00 00 00	 push	 OFFSET ??_C@_01LKDEMHDF@s@
  00011	ff 15 00 00 00
	00		 call	 DWORD PTR __imp__Py_BuildValue
  00017	83 c4 08	 add	 esp, 8

; 198  : }

  0001a	c3		 ret	 0
?netGetFieldMusicFileName@@YAPAU_object@@PAU1@0@Z ENDP	; netGetFieldMusicFileName
_TEXT	ENDS
; Function compile flags: /Ogtp
; File D:\Metin2 Server Files\mainline\SRC_2014\Metin2Client\UserInterface\PythonNetworkStreamModule.cpp
;	COMDAT ?netGetAccountCharacterSlotDataString@@YAPAU_object@@PAU1@0@Z
_TEXT	SEGMENT
_nIndex$ = -8						; size = 4
_nType$ = -4						; size = 4
_poSelf$ = 8						; size = 4
_poArgs$ = 12						; size = 4
?netGetAccountCharacterSlotDataString@@YAPAU_object@@PAU1@0@Z PROC ; netGetAccountCharacterSlotDataString, COMDAT

; 180  : {

  00000	55		 push	 ebp
  00001	8b ec		 mov	 ebp, esp
  00003	83 ec 08	 sub	 esp, 8

; 181  : 	int nIndex;
; 182  : 	if (!PyTuple_GetInteger(poArgs, 0, &nIndex))

  00006	8d 45 f8	 lea	 eax, DWORD PTR _nIndex$[ebp]
  00009	50		 push	 eax
  0000a	6a 00		 push	 0
  0000c	ff 75 0c	 push	 DWORD PTR _poArgs$[ebp]
  0000f	e8 00 00 00 00	 call	 ?PyTuple_GetInteger@@YA_NPAU_object@@HPAH@Z ; PyTuple_GetInteger
  00014	83 c4 0c	 add	 esp, 12			; 0000000cH
  00017	84 c0		 test	 al, al
  00019	75 0e		 jne	 SHORT $LN2@netGetAcco
$LN5@netGetAcco:

; 191  : }

  0001b	6a 00		 push	 0
  0001d	e8 00 00 00 00	 call	 ?Py_BuildException@@YAPAU_object@@PBDZZ ; Py_BuildException
  00022	83 c4 04	 add	 esp, 4
  00025	8b e5		 mov	 esp, ebp
  00027	5d		 pop	 ebp
  00028	c3		 ret	 0
$LN2@netGetAcco:

; 183  : 		return Py_BuildException();
; 184  : 
; 185  : 	int nType;
; 186  : 	if (!PyTuple_GetInteger(poArgs, 1, &nType))

  00029	8d 45 fc	 lea	 eax, DWORD PTR _nType$[ebp]
  0002c	50		 push	 eax
  0002d	6a 01		 push	 1
  0002f	ff 75 0c	 push	 DWORD PTR _poArgs$[ebp]
  00032	e8 00 00 00 00	 call	 ?PyTuple_GetInteger@@YA_NPAU_object@@HPAH@Z ; PyTuple_GetInteger
  00037	83 c4 0c	 add	 esp, 12			; 0000000cH
  0003a	84 c0		 test	 al, al
  0003c	74 dd		 je	 SHORT $LN5@netGetAcco

; 187  : 		return Py_BuildException();
; 188  : 
; 189  : 	CPythonNetworkStream& rkNetStream=CPythonNetworkStream::Instance();
; 190  : 	return Py_BuildValue("s", rkNetStream.GetAccountCharacterSlotDataz(nIndex, nType));

  0003e	ff 75 fc	 push	 DWORD PTR _nType$[ebp]
  00041	8b 0d 00 00 00
	00		 mov	 ecx, DWORD PTR ?ms_singleton@?$CSingleton@VCPythonNetworkStream@@@@0PAVCPythonNetworkStream@@A ; CSingleton<CPythonNetworkStream>::ms_singleton
  00047	ff 75 f8	 push	 DWORD PTR _nIndex$[ebp]
  0004a	e8 00 00 00 00	 call	 ?GetAccountCharacterSlotDataz@CPythonNetworkStream@@QAEPBDII@Z ; CPythonNetworkStream::GetAccountCharacterSlotDataz
  0004f	50		 push	 eax
  00050	68 00 00 00 00	 push	 OFFSET ??_C@_01LKDEMHDF@s@
  00055	ff 15 00 00 00
	00		 call	 DWORD PTR __imp__Py_BuildValue
  0005b	83 c4 08	 add	 esp, 8

; 191  : }

  0005e	8b e5		 mov	 esp, ebp
  00060	5d		 pop	 ebp
  00061	c3		 ret	 0
?netGetAccountCharacterSlotDataString@@YAPAU_object@@PAU1@0@Z ENDP ; netGetAccountCharacterSlotDataString
_TEXT	ENDS
; Function compile flags: /Ogtp
; File D:\Metin2 Server Files\mainline\SRC_2014\Metin2Client\UserInterface\PythonNetworkStreamModule.cpp
;	COMDAT ?netGetAccountCharacterSlotDataInteger@@YAPAU_object@@PAU1@0@Z
_TEXT	SEGMENT
_nIndex$ = -8						; size = 4
_nType$ = -4						; size = 4
_poSelf$ = 8						; size = 4
_poArgs$ = 12						; size = 4
?netGetAccountCharacterSlotDataInteger@@YAPAU_object@@PAU1@0@Z PROC ; netGetAccountCharacterSlotDataInteger, COMDAT

; 165  : {

  00000	55		 push	 ebp
  00001	8b ec		 mov	 ebp, esp
  00003	83 ec 08	 sub	 esp, 8

; 166  : 	int nIndex;
; 167  : 	if (!PyTuple_GetInteger(poArgs, 0, &nIndex))

  00006	8d 45 f8	 lea	 eax, DWORD PTR _nIndex$[ebp]
  00009	50		 push	 eax
  0000a	6a 00		 push	 0
  0000c	ff 75 0c	 push	 DWORD PTR _poArgs$[ebp]
  0000f	e8 00 00 00 00	 call	 ?PyTuple_GetInteger@@YA_NPAU_object@@HPAH@Z ; PyTuple_GetInteger
  00014	83 c4 0c	 add	 esp, 12			; 0000000cH
  00017	84 c0		 test	 al, al
  00019	75 0e		 jne	 SHORT $LN2@netGetAcco
$LN5@netGetAcco:

; 177  : }

  0001b	6a 00		 push	 0
  0001d	e8 00 00 00 00	 call	 ?Py_BuildException@@YAPAU_object@@PBDZZ ; Py_BuildException
  00022	83 c4 04	 add	 esp, 4
  00025	8b e5		 mov	 esp, ebp
  00027	5d		 pop	 ebp
  00028	c3		 ret	 0
$LN2@netGetAcco:

; 168  : 		return Py_BuildException();
; 169  : 
; 170  : 	int nType;
; 171  : 	if (!PyTuple_GetInteger(poArgs, 1, &nType))

  00029	8d 45 fc	 lea	 eax, DWORD PTR _nType$[ebp]
  0002c	50		 push	 eax
  0002d	6a 01		 push	 1
  0002f	ff 75 0c	 push	 DWORD PTR _poArgs$[ebp]
  00032	e8 00 00 00 00	 call	 ?PyTuple_GetInteger@@YA_NPAU_object@@HPAH@Z ; PyTuple_GetInteger
  00037	83 c4 0c	 add	 esp, 12			; 0000000cH
  0003a	84 c0		 test	 al, al
  0003c	74 dd		 je	 SHORT $LN5@netGetAcco

; 172  : 		return Py_BuildException();
; 173  : 
; 174  : 	CPythonNetworkStream& rkNetStream=CPythonNetworkStream::Instance();
; 175  : 	UINT uResult=rkNetStream.GetAccountCharacterSlotDatau(nIndex, nType);

  0003e	ff 75 fc	 push	 DWORD PTR _nType$[ebp]
  00041	8b 0d 00 00 00
	00		 mov	 ecx, DWORD PTR ?ms_singleton@?$CSingleton@VCPythonNetworkStream@@@@0PAVCPythonNetworkStream@@A ; CSingleton<CPythonNetworkStream>::ms_singleton
  00047	ff 75 f8	 push	 DWORD PTR _nIndex$[ebp]
  0004a	e8 00 00 00 00	 call	 ?GetAccountCharacterSlotDatau@CPythonNetworkStream@@QAEIII@Z ; CPythonNetworkStream::GetAccountCharacterSlotDatau

; 176  : 	return Py_BuildValue("i", uResult);

  0004f	50		 push	 eax
  00050	68 00 00 00 00	 push	 OFFSET ??_C@_01KBJDNOO@i@
  00055	ff 15 00 00 00
	00		 call	 DWORD PTR __imp__Py_BuildValue
  0005b	83 c4 08	 add	 esp, 8

; 177  : }

  0005e	8b e5		 mov	 esp, ebp
  00060	5d		 pop	 ebp
  00061	c3		 ret	 0
?netGetAccountCharacterSlotDataInteger@@YAPAU_object@@PAU1@0@Z ENDP ; netGetAccountCharacterSlotDataInteger
_TEXT	ENDS
; Function compile flags: /Ogtp
; File D:\Metin2 Server Files\mainline\SRC_2014\Metin2Client\UserInterface\PythonNetworkStreamModule.cpp
;	COMDAT ?netIsSelectedEmpire@@YAPAU_object@@PAU1@0@Z
_TEXT	SEGMENT
_poSelf$ = 8						; size = 4
_poArgs$ = 12						; size = 4
?netIsSelectedEmpire@@YAPAU_object@@PAU1@0@Z PROC	; netIsSelectedEmpire, COMDAT

; 159  : 	CPythonNetworkStream& rkNetStream=CPythonNetworkStream::Instance();
; 160  : 	return Py_BuildValue("i", rkNetStream.IsSelectedEmpire());

  00000	8b 0d 00 00 00
	00		 mov	 ecx, DWORD PTR ?ms_singleton@?$CSingleton@VCPythonNetworkStream@@@@0PAVCPythonNetworkStream@@A ; CSingleton<CPythonNetworkStream>::ms_singleton
  00006	e8 00 00 00 00	 call	 ?IsSelectedEmpire@CPythonNetworkStream@@QAE_NXZ ; CPythonNetworkStream::IsSelectedEmpire
  0000b	0f b6 c0	 movzx	 eax, al
  0000e	50		 push	 eax
  0000f	68 00 00 00 00	 push	 OFFSET ??_C@_01KBJDNOO@i@
  00014	ff 15 00 00 00
	00		 call	 DWORD PTR __imp__Py_BuildValue
  0001a	83 c4 08	 add	 esp, 8

; 161  : }

  0001d	c3		 ret	 0
?netIsSelectedEmpire@@YAPAU_object@@PAU1@0@Z ENDP	; netIsSelectedEmpire
_TEXT	ENDS
; Function compile flags: /Ogtp
; File D:\Metin2 Server Files\mainline\SRC_2014\Metin2Client\UserInterface\PythonNetworkStreamModule.cpp
;	COMDAT ?netGetMainActorSkillGroup@@YAPAU_object@@PAU1@0@Z
_TEXT	SEGMENT
_poSelf$ = 8						; size = 4
_poArgs$ = 12						; size = 4
?netGetMainActorSkillGroup@@YAPAU_object@@PAU1@0@Z PROC	; netGetMainActorSkillGroup, COMDAT

; 153  : 	CPythonNetworkStream& rkNetStream=CPythonNetworkStream::Instance();
; 154  : 	return Py_BuildValue("i", rkNetStream.GetMainActorSkillGroup());

  00000	8b 0d 00 00 00
	00		 mov	 ecx, DWORD PTR ?ms_singleton@?$CSingleton@VCPythonNetworkStream@@@@0PAVCPythonNetworkStream@@A ; CSingleton<CPythonNetworkStream>::ms_singleton
  00006	e8 00 00 00 00	 call	 ?GetMainActorSkillGroup@CPythonNetworkStream@@QAEKXZ ; CPythonNetworkStream::GetMainActorSkillGroup
  0000b	50		 push	 eax
  0000c	68 00 00 00 00	 push	 OFFSET ??_C@_01KBJDNOO@i@
  00011	ff 15 00 00 00
	00		 call	 DWORD PTR __imp__Py_BuildValue
  00017	83 c4 08	 add	 esp, 8

; 155  : }

  0001a	c3		 ret	 0
?netGetMainActorSkillGroup@@YAPAU_object@@PAU1@0@Z ENDP	; netGetMainActorSkillGroup
_TEXT	ENDS
; Function compile flags: /Ogtp
; File D:\Metin2 Server Files\mainline\SRC_2014\Metin2Client\UserInterface\PythonNetworkStreamModule.cpp
;	COMDAT ?netGetMainActorEmpire@@YAPAU_object@@PAU1@0@Z
_TEXT	SEGMENT
_poSelf$ = 8						; size = 4
_poArgs$ = 12						; size = 4
?netGetMainActorEmpire@@YAPAU_object@@PAU1@0@Z PROC	; netGetMainActorEmpire, COMDAT

; 147  : 	CPythonNetworkStream& rkNetStream=CPythonNetworkStream::Instance();
; 148  : 	return Py_BuildValue("i", rkNetStream.GetMainActorEmpire());

  00000	8b 0d 00 00 00
	00		 mov	 ecx, DWORD PTR ?ms_singleton@?$CSingleton@VCPythonNetworkStream@@@@0PAVCPythonNetworkStream@@A ; CSingleton<CPythonNetworkStream>::ms_singleton
  00006	e8 00 00 00 00	 call	 ?GetMainActorEmpire@CPythonNetworkStream@@QAEKXZ ; CPythonNetworkStream::GetMainActorEmpire
  0000b	50		 push	 eax
  0000c	68 00 00 00 00	 push	 OFFSET ??_C@_01KBJDNOO@i@
  00011	ff 15 00 00 00
	00		 call	 DWORD PTR __imp__Py_BuildValue
  00017	83 c4 08	 add	 esp, 8

; 149  : }

  0001a	c3		 ret	 0
?netGetMainActorEmpire@@YAPAU_object@@PAU1@0@Z ENDP	; netGetMainActorEmpire
_TEXT	ENDS
; Function compile flags: /Ogtp
; File D:\Metin2 Server Files\mainline\SRC_2014\Metin2Client\UserInterface\PythonNetworkStreamModule.cpp
;	COMDAT ?netGetMainActorRace@@YAPAU_object@@PAU1@0@Z
_TEXT	SEGMENT
_poSelf$ = 8						; size = 4
_poArgs$ = 12						; size = 4
?netGetMainActorRace@@YAPAU_object@@PAU1@0@Z PROC	; netGetMainActorRace, COMDAT

; 141  : 	CPythonNetworkStream& rkNetStream=CPythonNetworkStream::Instance();
; 142  : 	return Py_BuildValue("i", rkNetStream.GetMainActorRace());

  00000	8b 0d 00 00 00
	00		 mov	 ecx, DWORD PTR ?ms_singleton@?$CSingleton@VCPythonNetworkStream@@@@0PAVCPythonNetworkStream@@A ; CSingleton<CPythonNetworkStream>::ms_singleton
  00006	e8 00 00 00 00	 call	 ?GetMainActorRace@CPythonNetworkStream@@QAEKXZ ; CPythonNetworkStream::GetMainActorRace
  0000b	50		 push	 eax
  0000c	68 00 00 00 00	 push	 OFFSET ??_C@_01KBJDNOO@i@
  00011	ff 15 00 00 00
	00		 call	 DWORD PTR __imp__Py_BuildValue
  00017	83 c4 08	 add	 esp, 8

; 143  : }

  0001a	c3		 ret	 0
?netGetMainActorRace@@YAPAU_object@@PAU1@0@Z ENDP	; netGetMainActorRace
_TEXT	ENDS
; Function compile flags: /Ogtp
; File D:\Metin2 Server Files\mainline\SRC_2014\Metin2Client\UserInterface\PythonNetworkStreamModule.cpp
;	COMDAT ?netGetMainActorVID@@YAPAU_object@@PAU1@0@Z
_TEXT	SEGMENT
_poSelf$ = 8						; size = 4
_poArgs$ = 12						; size = 4
?netGetMainActorVID@@YAPAU_object@@PAU1@0@Z PROC	; netGetMainActorVID, COMDAT

; 135  : 	CPythonNetworkStream& rkNetStream=CPythonNetworkStream::Instance();
; 136  : 	return Py_BuildValue("i", rkNetStream.GetMainActorVID());

  00000	8b 0d 00 00 00
	00		 mov	 ecx, DWORD PTR ?ms_singleton@?$CSingleton@VCPythonNetworkStream@@@@0PAVCPythonNetworkStream@@A ; CSingleton<CPythonNetworkStream>::ms_singleton
  00006	e8 00 00 00 00	 call	 ?GetMainActorVID@CPythonNetworkStream@@QAEKXZ ; CPythonNetworkStream::GetMainActorVID
  0000b	50		 push	 eax
  0000c	68 00 00 00 00	 push	 OFFSET ??_C@_01KBJDNOO@i@
  00011	ff 15 00 00 00
	00		 call	 DWORD PTR __imp__Py_BuildValue
  00017	83 c4 08	 add	 esp, 8

; 137  : }

  0001a	c3		 ret	 0
?netGetMainActorVID@@YAPAU_object@@PAU1@0@Z ENDP	; netGetMainActorVID
_TEXT	ENDS
; Function compile flags: /Ogtp
; File D:\Metin2 Server Files\mainline\SRC_2014\Metin2Client\UserInterface\PythonNetworkStreamModule.cpp
;	COMDAT ?netGetEmpireID@@YAPAU_object@@PAU1@0@Z
_TEXT	SEGMENT
_poSelf$ = 8						; size = 4
_poArgs$ = 12						; size = 4
?netGetEmpireID@@YAPAU_object@@PAU1@0@Z PROC		; netGetEmpireID, COMDAT

; 129  : 	CPythonNetworkStream& rkNetStream=CPythonNetworkStream::Instance();
; 130  : 	return Py_BuildValue("i", rkNetStream.GetEmpireID());

  00000	8b 0d 00 00 00
	00		 mov	 ecx, DWORD PTR ?ms_singleton@?$CSingleton@VCPythonNetworkStream@@@@0PAVCPythonNetworkStream@@A ; CSingleton<CPythonNetworkStream>::ms_singleton
  00006	e8 00 00 00 00	 call	 ?GetEmpireID@CPythonNetworkStream@@QAEKXZ ; CPythonNetworkStream::GetEmpireID
  0000b	50		 push	 eax
  0000c	68 00 00 00 00	 push	 OFFSET ??_C@_01KBJDNOO@i@
  00011	ff 15 00 00 00
	00		 call	 DWORD PTR __imp__Py_BuildValue
  00017	83 c4 08	 add	 esp, 8

; 131  : }

  0001a	c3		 ret	 0
?netGetEmpireID@@YAPAU_object@@PAU1@0@Z ENDP		; netGetEmpireID
_TEXT	ENDS
; Function compile flags: /Ogtp
; File D:\Metin2 Server Files\mainline\SRC_2014\Metin2Client\UserInterface\PythonNetworkStreamModule.cpp
;	COMDAT ?netGetGuildID@@YAPAU_object@@PAU1@0@Z
_TEXT	SEGMENT
_poSelf$ = 8						; size = 4
_poArgs$ = 12						; size = 4
?netGetGuildID@@YAPAU_object@@PAU1@0@Z PROC		; netGetGuildID, COMDAT

; 123  : 	CPythonNetworkStream& rkNetStream=CPythonNetworkStream::Instance();
; 124  : 	return Py_BuildValue("i", rkNetStream.GetGuildID());

  00000	8b 0d 00 00 00
	00		 mov	 ecx, DWORD PTR ?ms_singleton@?$CSingleton@VCPythonNetworkStream@@@@0PAVCPythonNetworkStream@@A ; CSingleton<CPythonNetworkStream>::ms_singleton
  00006	e8 00 00 00 00	 call	 ?GetGuildID@CPythonNetworkStream@@QAEKXZ ; CPythonNetworkStream::GetGuildID
  0000b	50		 push	 eax
  0000c	68 00 00 00 00	 push	 OFFSET ??_C@_01KBJDNOO@i@
  00011	ff 15 00 00 00
	00		 call	 DWORD PTR __imp__Py_BuildValue
  00017	83 c4 08	 add	 esp, 8

; 125  : }

  0001a	c3		 ret	 0
?netGetGuildID@@YAPAU_object@@PAU1@0@Z ENDP		; netGetGuildID
_TEXT	ENDS
; Function compile flags: /Ogtp
; File D:\Metin2 Server Files\mainline\SRC_2014\Metin2Client\UserInterface\PythonNetworkStreamModule.cpp
;	COMDAT ?netUploadSymbol@@YAPAU_object@@PAU1@0@Z
_TEXT	SEGMENT
_szFileName$ = -4					; size = 4
_poSelf$ = 8						; size = 4
_poArgs$ = 12						; size = 4
?netUploadSymbol@@YAPAU_object@@PAU1@0@Z PROC		; netUploadSymbol, COMDAT

; 112  : {

  00000	55		 push	 ebp
  00001	8b ec		 mov	 ebp, esp
  00003	51		 push	 ecx

; 113  : 	char* szFileName;
; 114  : 	if (!PyTuple_GetString(poArgs, 0, &szFileName))

  00004	8d 45 fc	 lea	 eax, DWORD PTR _szFileName$[ebp]
  00007	50		 push	 eax
  00008	6a 00		 push	 0
  0000a	ff 75 0c	 push	 DWORD PTR _poArgs$[ebp]
  0000d	e8 00 00 00 00	 call	 ?PyTuple_GetString@@YA_NPAU_object@@HPAPAD@Z ; PyTuple_GetString
  00012	83 c4 0c	 add	 esp, 12			; 0000000cH
  00015	84 c0		 test	 al, al
  00017	75 0e		 jne	 SHORT $LN2@netUploadS

; 115  : 		return Py_BuildException();

  00019	6a 00		 push	 0
  0001b	e8 00 00 00 00	 call	 ?Py_BuildException@@YAPAU_object@@PBDZZ ; Py_BuildException
  00020	83 c4 04	 add	 esp, 4

; 119  : }

  00023	8b e5		 mov	 esp, ebp
  00025	5d		 pop	 ebp
  00026	c3		 ret	 0
$LN2@netUploadS:

; 116  : 
; 117  : 	CPythonNetworkStream& rkNetStream=CPythonNetworkStream::Instance();
; 118  : 	return Py_BuildValue("i", rkNetStream.UploadSymbol(szFileName));

  00027	ff 75 fc	 push	 DWORD PTR _szFileName$[ebp]
  0002a	8b 0d 00 00 00
	00		 mov	 ecx, DWORD PTR ?ms_singleton@?$CSingleton@VCPythonNetworkStream@@@@0PAVCPythonNetworkStream@@A ; CSingleton<CPythonNetworkStream>::ms_singleton
  00030	e8 00 00 00 00	 call	 ?UploadSymbol@CPythonNetworkStream@@QAEIPBD@Z ; CPythonNetworkStream::UploadSymbol
  00035	50		 push	 eax
  00036	68 00 00 00 00	 push	 OFFSET ??_C@_01KBJDNOO@i@
  0003b	ff 15 00 00 00
	00		 call	 DWORD PTR __imp__Py_BuildValue
  00041	83 c4 08	 add	 esp, 8

; 119  : }

  00044	8b e5		 mov	 esp, ebp
  00046	5d		 pop	 ebp
  00047	c3		 ret	 0
?netUploadSymbol@@YAPAU_object@@PAU1@0@Z ENDP		; netUploadSymbol
_TEXT	ENDS
; Function compile flags: /Ogtp
; File D:\Metin2 Server Files\mainline\SRC_2014\Metin2Client\UserInterface\PythonNetworkStreamModule.cpp
;	COMDAT ?netUploadMark@@YAPAU_object@@PAU1@0@Z
_TEXT	SEGMENT
_szFileName$ = -4					; size = 4
_poSelf$ = 8						; size = 4
_poArgs$ = 12						; size = 4
?netUploadMark@@YAPAU_object@@PAU1@0@Z PROC		; netUploadMark, COMDAT

; 102  : {

  00000	55		 push	 ebp
  00001	8b ec		 mov	 ebp, esp
  00003	51		 push	 ecx

; 103  : 	char* szFileName;
; 104  : 	if (!PyTuple_GetString(poArgs, 0, &szFileName))

  00004	8d 45 fc	 lea	 eax, DWORD PTR _szFileName$[ebp]
  00007	50		 push	 eax
  00008	6a 00		 push	 0
  0000a	ff 75 0c	 push	 DWORD PTR _poArgs$[ebp]
  0000d	e8 00 00 00 00	 call	 ?PyTuple_GetString@@YA_NPAU_object@@HPAPAD@Z ; PyTuple_GetString
  00012	83 c4 0c	 add	 esp, 12			; 0000000cH
  00015	84 c0		 test	 al, al
  00017	75 0e		 jne	 SHORT $LN2@netUploadM

; 105  : 		return Py_BuildException();

  00019	6a 00		 push	 0
  0001b	e8 00 00 00 00	 call	 ?Py_BuildException@@YAPAU_object@@PBDZZ ; Py_BuildException
  00020	83 c4 04	 add	 esp, 4

; 109  : }

  00023	8b e5		 mov	 esp, ebp
  00025	5d		 pop	 ebp
  00026	c3		 ret	 0
$LN2@netUploadM:

; 106  : 
; 107  : 	CPythonNetworkStream& rkNetStream=CPythonNetworkStream::Instance();
; 108  : 	return Py_BuildValue("i", rkNetStream.UploadMark(szFileName));

  00027	ff 75 fc	 push	 DWORD PTR _szFileName$[ebp]
  0002a	8b 0d 00 00 00
	00		 mov	 ecx, DWORD PTR ?ms_singleton@?$CSingleton@VCPythonNetworkStream@@@@0PAVCPythonNetworkStream@@A ; CSingleton<CPythonNetworkStream>::ms_singleton
  00030	e8 00 00 00 00	 call	 ?UploadMark@CPythonNetworkStream@@QAEIPBD@Z ; CPythonNetworkStream::UploadMark
  00035	50		 push	 eax
  00036	68 00 00 00 00	 push	 OFFSET ??_C@_01KBJDNOO@i@
  0003b	ff 15 00 00 00
	00		 call	 DWORD PTR __imp__Py_BuildValue
  00041	83 c4 08	 add	 esp, 8

; 109  : }

  00044	8b e5		 mov	 esp, ebp
  00046	5d		 pop	 ebp
  00047	c3		 ret	 0
?netUploadMark@@YAPAU_object@@PAU1@0@Z ENDP		; netUploadMark
_TEXT	ENDS
; Function compile flags: /Ogtp
; File D:\Metin2 Server Files\mainline\SRC_2014\Metin2Client\UserInterface\PythonNetworkStreamModule.cpp
;	COMDAT ?netLoadInsultList@@YAPAU_object@@PAU1@0@Z
_TEXT	SEGMENT
_szFileName$ = -4					; size = 4
_poSelf$ = 8						; size = 4
_poArgs$ = 12						; size = 4
?netLoadInsultList@@YAPAU_object@@PAU1@0@Z PROC		; netLoadInsultList, COMDAT

; 92   : {

  00000	55		 push	 ebp
  00001	8b ec		 mov	 ebp, esp
  00003	51		 push	 ecx

; 93   : 	char* szFileName;
; 94   : 	if (!PyTuple_GetString(poArgs, 0, &szFileName))

  00004	8d 45 fc	 lea	 eax, DWORD PTR _szFileName$[ebp]
  00007	50		 push	 eax
  00008	6a 00		 push	 0
  0000a	ff 75 0c	 push	 DWORD PTR _poArgs$[ebp]
  0000d	e8 00 00 00 00	 call	 ?PyTuple_GetString@@YA_NPAU_object@@HPAPAD@Z ; PyTuple_GetString
  00012	83 c4 0c	 add	 esp, 12			; 0000000cH
  00015	84 c0		 test	 al, al
  00017	75 0e		 jne	 SHORT $LN2@netLoadIns

; 95   : 		return Py_BuildException();

  00019	6a 00		 push	 0
  0001b	e8 00 00 00 00	 call	 ?Py_BuildException@@YAPAU_object@@PBDZZ ; Py_BuildException
  00020	83 c4 04	 add	 esp, 4

; 99   : }

  00023	8b e5		 mov	 esp, ebp
  00025	5d		 pop	 ebp
  00026	c3		 ret	 0
$LN2@netLoadIns:

; 96   : 
; 97   : 	CPythonNetworkStream& rkNetStream=CPythonNetworkStream::Instance();
; 98   : 	return Py_BuildValue("i", rkNetStream.LoadInsultList(szFileName));

  00027	ff 75 fc	 push	 DWORD PTR _szFileName$[ebp]
  0002a	8b 0d 00 00 00
	00		 mov	 ecx, DWORD PTR ?ms_singleton@?$CSingleton@VCPythonNetworkStream@@@@0PAVCPythonNetworkStream@@A ; CSingleton<CPythonNetworkStream>::ms_singleton
  00030	e8 00 00 00 00	 call	 ?LoadInsultList@CPythonNetworkStream@@QAE_NPBD@Z ; CPythonNetworkStream::LoadInsultList
  00035	0f b6 c0	 movzx	 eax, al
  00038	50		 push	 eax
  00039	68 00 00 00 00	 push	 OFFSET ??_C@_01KBJDNOO@i@
  0003e	ff 15 00 00 00
	00		 call	 DWORD PTR __imp__Py_BuildValue
  00044	83 c4 08	 add	 esp, 8

; 99   : }

  00047	8b e5		 mov	 esp, ebp
  00049	5d		 pop	 ebp
  0004a	c3		 ret	 0
?netLoadInsultList@@YAPAU_object@@PAU1@0@Z ENDP		; netLoadInsultList
_TEXT	ENDS
; Function compile flags: /Ogtp
; File D:\Metin2 Server Files\mainline\SRC_2014\Metin2Client\UserInterface\PythonNetworkStreamModule.cpp
;	COMDAT ?netWarp@@YAPAU_object@@PAU1@0@Z
_TEXT	SEGMENT
_nX$ = -8						; size = 4
_nY$ = -4						; size = 4
_poSelf$ = 8						; size = 4
_poArgs$ = 12						; size = 4
?netWarp@@YAPAU_object@@PAU1@0@Z PROC			; netWarp, COMDAT

; 76   : {

  00000	55		 push	 ebp
  00001	8b ec		 mov	 ebp, esp
  00003	83 ec 08	 sub	 esp, 8

; 77   : 	int nX;
; 78   : 	if (!PyTuple_GetInteger(poArgs, 0, &nX))

  00006	8d 45 f8	 lea	 eax, DWORD PTR _nX$[ebp]
  00009	50		 push	 eax
  0000a	6a 00		 push	 0
  0000c	ff 75 0c	 push	 DWORD PTR _poArgs$[ebp]
  0000f	e8 00 00 00 00	 call	 ?PyTuple_GetInteger@@YA_NPAU_object@@HPAH@Z ; PyTuple_GetInteger
  00014	83 c4 0c	 add	 esp, 12			; 0000000cH
  00017	84 c0		 test	 al, al
  00019	75 0e		 jne	 SHORT $LN2@netWarp
$LN5@netWarp:

; 89   : }

  0001b	6a 00		 push	 0
  0001d	e8 00 00 00 00	 call	 ?Py_BuildException@@YAPAU_object@@PBDZZ ; Py_BuildException
  00022	83 c4 04	 add	 esp, 4
  00025	8b e5		 mov	 esp, ebp
  00027	5d		 pop	 ebp
  00028	c3		 ret	 0
$LN2@netWarp:

; 79   : 		return Py_BuildException();
; 80   : 
; 81   : 	int nY;
; 82   : 	if (!PyTuple_GetInteger(poArgs, 1, &nY))

  00029	8d 45 fc	 lea	 eax, DWORD PTR _nY$[ebp]
  0002c	50		 push	 eax
  0002d	6a 01		 push	 1
  0002f	ff 75 0c	 push	 DWORD PTR _poArgs$[ebp]
  00032	e8 00 00 00 00	 call	 ?PyTuple_GetInteger@@YA_NPAU_object@@HPAH@Z ; PyTuple_GetInteger
  00037	83 c4 0c	 add	 esp, 12			; 0000000cH
  0003a	84 c0		 test	 al, al
  0003c	74 dd		 je	 SHORT $LN5@netWarp

; 83   : 		return Py_BuildException();
; 84   : 
; 85   : 	CPythonNetworkStream& rkNetStream=CPythonNetworkStream::Instance();
; 86   : 	rkNetStream.Warp(nX, nY);

  0003e	ff 75 fc	 push	 DWORD PTR _nY$[ebp]
  00041	8b 0d 00 00 00
	00		 mov	 ecx, DWORD PTR ?ms_singleton@?$CSingleton@VCPythonNetworkStream@@@@0PAVCPythonNetworkStream@@A ; CSingleton<CPythonNetworkStream>::ms_singleton
  00047	ff 75 f8	 push	 DWORD PTR _nX$[ebp]
  0004a	e8 00 00 00 00	 call	 ?Warp@CPythonNetworkStream@@QAEXJJ@Z ; CPythonNetworkStream::Warp

; 87   : 
; 88   : 	return Py_BuildNone();

  0004f	e8 00 00 00 00	 call	 ?Py_BuildNone@@YAPAU_object@@XZ ; Py_BuildNone

; 89   : }

  00054	8b e5		 mov	 esp, ebp
  00056	5d		 pop	 ebp
  00057	c3		 ret	 0
?netWarp@@YAPAU_object@@PAU1@0@Z ENDP			; netWarp
_TEXT	ENDS
; Function compile flags: /Ogtp
; File D:\Metin2 Server Files\mainline\SRC_2014\Metin2Client\UserInterface\PythonNetworkStreamModule.cpp
;	COMDAT ?netIsTest@@YAPAU_object@@PAU1@0@Z
_TEXT	SEGMENT
_poSelf$ = 8						; size = 4
_poArgs$ = 12						; size = 4
?netIsTest@@YAPAU_object@@PAU1@0@Z PROC			; netIsTest, COMDAT

; 72   : 	return Py_BuildValue("i", __IS_TEST_SERVER_MODE__);

  00000	0f b6 05 00 00
	00 00		 movzx	 eax, BYTE PTR ?__IS_TEST_SERVER_MODE__@@3_NA ; __IS_TEST_SERVER_MODE__
  00007	50		 push	 eax
  00008	68 00 00 00 00	 push	 OFFSET ??_C@_01KBJDNOO@i@
  0000d	ff 15 00 00 00
	00		 call	 DWORD PTR __imp__Py_BuildValue
  00013	83 c4 08	 add	 esp, 8

; 73   : }

  00016	c3		 ret	 0
?netIsTest@@YAPAU_object@@PAU1@0@Z ENDP			; netIsTest
_TEXT	ENDS
; Function compile flags: /Ogtp
; File D:\Metin2 Server Files\mainline\SRC_2014\Metin2Client\UserInterface\PythonNetworkStreamModule.cpp
;	COMDAT ?netStartGame@@YAPAU_object@@PAU1@0@Z
_TEXT	SEGMENT
_poSelf$ = 8						; size = 4
_poArgs$ = 12						; size = 4
?netStartGame@@YAPAU_object@@PAU1@0@Z PROC		; netStartGame, COMDAT

; 64   : 	CPythonNetworkStream& rkNetStream=CPythonNetworkStream::Instance();
; 65   : 	rkNetStream.StartGame();

  00000	8b 0d 00 00 00
	00		 mov	 ecx, DWORD PTR ?ms_singleton@?$CSingleton@VCPythonNetworkStream@@@@0PAVCPythonNetworkStream@@A ; CSingleton<CPythonNetworkStream>::ms_singleton
  00006	e8 00 00 00 00	 call	 ?StartGame@CPythonNetworkStream@@QAEXXZ ; CPythonNetworkStream::StartGame

; 66   : 
; 67   : 	return Py_BuildNone();

  0000b	e9 00 00 00 00	 jmp	 ?Py_BuildNone@@YAPAU_object@@XZ ; Py_BuildNone
?netStartGame@@YAPAU_object@@PAU1@0@Z ENDP		; netStartGame
_TEXT	ENDS
; Function compile flags: /Ogtp
; File D:\Metin2 Server Files\mainline\SRC_2014\Metin2Client\UserInterface\PythonNetworkStreamModule.cpp
; File C:\Program Files (x86)\Microsoft Visual Studio\2019\Community\VC\Tools\MSVC\14.28.29333\include\list
; File D:\Metin2 Server Files\mainline\SRC_2014\Metin2Client\UserInterface\PythonNetworkStreamModule.cpp
; File C:\Program Files (x86)\Microsoft Visual Studio\2019\Community\VC\Tools\MSVC\14.28.29333\include\list
; File D:\Metin2 Server Files\mainline\SRC_2014\Metin2Client\UserInterface\PythonNetworkStreamModule.cpp
; File C:\Program Files (x86)\Microsoft Visual Studio\2019\Community\VC\Tools\MSVC\14.28.29333\include\list
; File D:\Metin2 Server Files\mainline\SRC_2014\Metin2Client\UserInterface\PythonNetworkStreamModule.cpp
; File C:\Program Files (x86)\Microsoft Visual Studio\2019\Community\VC\Tools\MSVC\14.28.29333\include\list
; File C:\Program Files (x86)\Microsoft Visual Studio\2019\Community\VC\Tools\MSVC\14.28.29333\include\xstring
; File C:\Program Files (x86)\Microsoft Visual Studio\2019\Community\VC\Tools\MSVC\14.28.29333\include\xmemory
; File C:\Program Files (x86)\Microsoft Visual Studio\2019\Community\VC\Tools\MSVC\14.28.29333\include\xstring
; File C:\Program Files (x86)\Microsoft Visual Studio\2019\Community\VC\Tools\MSVC\14.28.29333\include\xmemory
; File C:\Program Files (x86)\Microsoft Visual Studio\2019\Community\VC\Tools\MSVC\14.28.29333\include\xstring
; File D:\Metin2 Server Files\mainline\SRC_2014\Metin2Client\UserInterface\PythonNetworkStreamModule.cpp
; File C:\Program Files (x86)\Microsoft Visual Studio\2019\Community\VC\Tools\MSVC\14.28.29333\include\xstring
; File D:\Metin2 Server Files\mainline\SRC_2014\Metin2Client\UserInterface\PythonNetworkStreamModule.cpp
; File C:\Program Files (x86)\Microsoft Visual Studio\2019\Community\VC\Tools\MSVC\14.28.29333\include\xstring
; File C:\Program Files (x86)\Microsoft Visual Studio\2019\Community\VC\Tools\MSVC\14.28.29333\include\xmemory
; File D:\Metin2 Server Files\mainline\SRC_2014\Metin2Client\UserInterface\PythonNetworkStreamModule.cpp
;	COMDAT ?netGetPreservedServerCommand@@YAPAU_object@@PAU1@0@Z
_TEXT	SEGMENT
_strCommand$ = -28					; size = 24
__$ArrayPad$ = -4					; size = 4
_poSelf$ = 8						; size = 4
_poArgs$ = 12						; size = 4
?netGetPreservedServerCommand@@YAPAU_object@@PAU1@0@Z PROC ; netGetPreservedServerCommand, COMDAT

; 52   : {

  00000	55		 push	 ebp
  00001	8b ec		 mov	 ebp, esp
  00003	83 ec 1c	 sub	 esp, 28			; 0000001cH
  00006	a1 00 00 00 00	 mov	 eax, DWORD PTR ___security_cookie
  0000b	33 c5		 xor	 eax, ebp
  0000d	89 45 fc	 mov	 DWORD PTR __$ArrayPad$[ebp], eax
; File C:\Program Files (x86)\Microsoft Visual Studio\2019\Community\VC\Tools\MSVC\14.28.29333\include\list

; 1200 :         return _Mypair._Myval2._Mysize == 0;

  00010	83 3d 04 00 00
	00 00		 cmp	 DWORD PTR ?g_kList_strCommand@@3V?$list@V?$basic_string@DU?$char_traits@D@std@@V?$allocator@D@2@@std@@V?$allocator@V?$basic_string@DU?$char_traits@D@std@@V?$allocator@D@2@@std@@@2@@std@@A+4, 0
; File D:\Metin2 Server Files\mainline\SRC_2014\Metin2Client\UserInterface\PythonNetworkStreamModule.cpp

; 53   : 	if (g_kList_strCommand.empty())

  00017	75 21		 jne	 SHORT $LN2@netGetPres

; 54   : 		return Py_BuildValue("s", "");

  00019	68 00 00 00 00	 push	 OFFSET ??_C@_00CNPNBAHC@@
  0001e	68 00 00 00 00	 push	 OFFSET ??_C@_01LKDEMHDF@s@
  00023	ff 15 00 00 00
	00		 call	 DWORD PTR __imp__Py_BuildValue
  00029	83 c4 08	 add	 esp, 8

; 60   : }

  0002c	8b 4d fc	 mov	 ecx, DWORD PTR __$ArrayPad$[ebp]
  0002f	33 cd		 xor	 ecx, ebp
  00031	e8 00 00 00 00	 call	 @__security_check_cookie@4
  00036	8b e5		 mov	 esp, ebp
  00038	5d		 pop	 ebp
  00039	c3		 ret	 0
$LN2@netGetPres:
; File C:\Program Files (x86)\Microsoft Visual Studio\2019\Community\VC\Tools\MSVC\14.28.29333\include\list

; 1212 :         return _Mypair._Myval2._Myhead->_Next->_Myval;

  0003a	a1 00 00 00 00	 mov	 eax, DWORD PTR ?g_kList_strCommand@@3V?$list@V?$basic_string@DU?$char_traits@D@std@@V?$allocator@D@2@@std@@V?$allocator@V?$basic_string@DU?$char_traits@D@std@@V?$allocator@D@2@@std@@@2@@std@@A
; File D:\Metin2 Server Files\mainline\SRC_2014\Metin2Client\UserInterface\PythonNetworkStreamModule.cpp

; 56   : 	std::string strCommand = g_kList_strCommand.front();

  0003f	8d 4d e4	 lea	 ecx, DWORD PTR _strCommand$[ebp]
  00042	56		 push	 esi
; File C:\Program Files (x86)\Microsoft Visual Studio\2019\Community\VC\Tools\MSVC\14.28.29333\include\list

; 1212 :         return _Mypair._Myval2._Myhead->_Next->_Myval;

  00043	8b 00		 mov	 eax, DWORD PTR [eax]
  00045	83 c0 08	 add	 eax, 8
; File D:\Metin2 Server Files\mainline\SRC_2014\Metin2Client\UserInterface\PythonNetworkStreamModule.cpp

; 56   : 	std::string strCommand = g_kList_strCommand.front();

  00048	50		 push	 eax
  00049	e8 00 00 00 00	 call	 ??0?$basic_string@DU?$char_traits@D@std@@V?$allocator@D@2@@std@@QAE@ABV01@@Z ; std::basic_string<char,std::char_traits<char>,std::allocator<char> >::basic_string<char,std::char_traits<char>,std::allocator<char> >
; File C:\Program Files (x86)\Microsoft Visual Studio\2019\Community\VC\Tools\MSVC\14.28.29333\include\list

; 1248 :         _Unchecked_erase(_Mypair._Myval2._Myhead->_Next);

  0004e	a1 00 00 00 00	 mov	 eax, DWORD PTR ?g_kList_strCommand@@3V?$list@V?$basic_string@DU?$char_traits@D@std@@V?$allocator@D@2@@std@@V?$allocator@V?$basic_string@DU?$char_traits@D@std@@V?$allocator@D@2@@std@@@2@@std@@A
  00053	8b 30		 mov	 esi, DWORD PTR [eax]

; 1360 :         const auto _Result = _Pnode->_Next;

  00055	8b 0e		 mov	 ecx, DWORD PTR [esi]

; 1361 :         _Mypair._Myval2._Orphan_ptr2(_Pnode);
; 1362 :         --_Mypair._Myval2._Mysize;

  00057	ff 0d 04 00 00
	00		 dec	 DWORD PTR ?g_kList_strCommand@@3V?$list@V?$basic_string@DU?$char_traits@D@std@@V?$allocator@D@2@@std@@V?$allocator@V?$basic_string@DU?$char_traits@D@std@@V?$allocator@D@2@@std@@@2@@std@@A+4

; 1363 :         _Pnode->_Prev->_Next = _Result;

  0005d	8b 46 04	 mov	 eax, DWORD PTR [esi+4]
  00060	89 08		 mov	 DWORD PTR [eax], ecx

; 1364 :         _Result->_Prev       = _Pnode->_Prev;

  00062	8b 46 04	 mov	 eax, DWORD PTR [esi+4]
  00065	89 41 04	 mov	 DWORD PTR [ecx+4], eax
; File C:\Program Files (x86)\Microsoft Visual Studio\2019\Community\VC\Tools\MSVC\14.28.29333\include\xstring

; 2227 :         return _BUF_SIZE <= _Myres;

  00068	8b 46 1c	 mov	 eax, DWORD PTR [esi+28]
  0006b	83 f8 10	 cmp	 eax, 16			; 00000010H

; 4385 :         if (_Mypair._Myval2._Large_string_engaged()) {

  0006e	72 0d		 jb	 SHORT $LN24@netGetPres

; 4386 :             const pointer _Ptr = _Mypair._Myval2._Bx._Ptr;
; 4387 :             auto& _Al          = _Getal();
; 4388 :             _Destroy_in_place(_Mypair._Myval2._Bx._Ptr);
; 4389 :             _Al.deallocate(_Ptr, _Mypair._Myval2._Myres + 1);

  00070	40		 inc	 eax
; File C:\Program Files (x86)\Microsoft Visual Studio\2019\Community\VC\Tools\MSVC\14.28.29333\include\xmemory

; 810  :         _Deallocate<_New_alignof<_Ty>>(_Ptr, sizeof(_Ty) * _Count);

  00071	50		 push	 eax
  00072	ff 76 08	 push	 DWORD PTR [esi+8]
  00075	e8 00 00 00 00	 call	 ??$_Deallocate@$07$0A@@std@@YAXPAXI@Z ; std::_Deallocate<8,0>
  0007a	83 c4 08	 add	 esp, 8
$LN24@netGetPres:

; 696  :         _Deallocate<_New_alignof<value_type>>(_Ptr, sizeof(value_type) * _Count);

  0007d	6a 20		 push	 32			; 00000020H
  0007f	56		 push	 esi
; File C:\Program Files (x86)\Microsoft Visual Studio\2019\Community\VC\Tools\MSVC\14.28.29333\include\xstring

; 4392 :         _Mypair._Myval2._Mysize = 0;

  00080	c7 46 18 00 00
	00 00		 mov	 DWORD PTR [esi+24], 0

; 4393 :         _Mypair._Myval2._Myres  = _BUF_SIZE - 1;

  00087	c7 46 1c 0f 00
	00 00		 mov	 DWORD PTR [esi+28], 15	; 0000000fH

; 4394 :         // the _Traits::assign is last so the codegen doesn't think the char write can alias this
; 4395 :         _Traits::assign(_Mypair._Myval2._Bx._Buf[0], _Elem());

  0008e	c6 46 08 00	 mov	 BYTE PTR [esi+8], 0
; File C:\Program Files (x86)\Microsoft Visual Studio\2019\Community\VC\Tools\MSVC\14.28.29333\include\xmemory

; 696  :         _Deallocate<_New_alignof<value_type>>(_Ptr, sizeof(value_type) * _Count);

  00092	e8 00 00 00 00	 call	 ??$_Deallocate@$07$0A@@std@@YAXPAXI@Z ; std::_Deallocate<8,0>
; File C:\Program Files (x86)\Microsoft Visual Studio\2019\Community\VC\Tools\MSVC\14.28.29333\include\xstring

; 2227 :         return _BUF_SIZE <= _Myres;

  00097	83 7d f8 10	 cmp	 DWORD PTR _strCommand$[ebp+20], 16 ; 00000010H

; 2218 :         const value_type* _Result = _Bx._Buf;

  0009b	8d 45 e4	 lea	 eax, DWORD PTR _strCommand$[ebp]

; 2219 :         if (_Large_string_engaged()) {

  0009e	0f 43 45 e4	 cmovae	 eax, DWORD PTR _strCommand$[ebp]
; File D:\Metin2 Server Files\mainline\SRC_2014\Metin2Client\UserInterface\PythonNetworkStreamModule.cpp

; 59   : 	return Py_BuildValue("s", strCommand.c_str());

  000a2	50		 push	 eax
  000a3	68 00 00 00 00	 push	 OFFSET ??_C@_01LKDEMHDF@s@
  000a8	ff 15 00 00 00
	00		 call	 DWORD PTR __imp__Py_BuildValue
; File C:\Program Files (x86)\Microsoft Visual Studio\2019\Community\VC\Tools\MSVC\14.28.29333\include\xstring

; 2227 :         return _BUF_SIZE <= _Myres;

  000ae	8b 4d f8	 mov	 ecx, DWORD PTR _strCommand$[ebp+20]
; File D:\Metin2 Server Files\mainline\SRC_2014\Metin2Client\UserInterface\PythonNetworkStreamModule.cpp

; 59   : 	return Py_BuildValue("s", strCommand.c_str());

  000b1	83 c4 10	 add	 esp, 16			; 00000010H
  000b4	8b f0		 mov	 esi, eax
; File C:\Program Files (x86)\Microsoft Visual Studio\2019\Community\VC\Tools\MSVC\14.28.29333\include\xstring

; 2227 :         return _BUF_SIZE <= _Myres;

  000b6	83 f9 10	 cmp	 ecx, 16			; 00000010H

; 4385 :         if (_Mypair._Myval2._Large_string_engaged()) {

  000b9	72 0d		 jb	 SHORT $LN45@netGetPres

; 4386 :             const pointer _Ptr = _Mypair._Myval2._Bx._Ptr;
; 4387 :             auto& _Al          = _Getal();
; 4388 :             _Destroy_in_place(_Mypair._Myval2._Bx._Ptr);
; 4389 :             _Al.deallocate(_Ptr, _Mypair._Myval2._Myres + 1);

  000bb	41		 inc	 ecx
; File C:\Program Files (x86)\Microsoft Visual Studio\2019\Community\VC\Tools\MSVC\14.28.29333\include\xmemory

; 810  :         _Deallocate<_New_alignof<_Ty>>(_Ptr, sizeof(_Ty) * _Count);

  000bc	51		 push	 ecx
  000bd	ff 75 e4	 push	 DWORD PTR _strCommand$[ebp]
  000c0	e8 00 00 00 00	 call	 ??$_Deallocate@$07$0A@@std@@YAXPAXI@Z ; std::_Deallocate<8,0>
  000c5	83 c4 08	 add	 esp, 8
$LN45@netGetPres:
; File D:\Metin2 Server Files\mainline\SRC_2014\Metin2Client\UserInterface\PythonNetworkStreamModule.cpp

; 60   : }

  000c8	8b 4d fc	 mov	 ecx, DWORD PTR __$ArrayPad$[ebp]
  000cb	8b c6		 mov	 eax, esi
  000cd	33 cd		 xor	 ecx, ebp
  000cf	5e		 pop	 esi
  000d0	e8 00 00 00 00	 call	 @__security_check_cookie@4
  000d5	8b e5		 mov	 esp, ebp
  000d7	5d		 pop	 ebp
  000d8	c3		 ret	 0
?netGetPreservedServerCommand@@YAPAU_object@@PAU1@0@Z ENDP ; netGetPreservedServerCommand
_TEXT	ENDS
; Function compile flags: /Ogtp
; File D:\Metin2 Server Files\mainline\SRC_2014\Metin2Client\UserInterface\PythonNetworkStreamModule.cpp
; File C:\Program Files (x86)\Microsoft Visual Studio\2019\Community\VC\Tools\MSVC\14.28.29333\include\xstring
; File C:\Program Files (x86)\Microsoft Visual Studio\2019\Community\VC\Tools\MSVC\14.28.29333\include\list
; File D:\Metin2 Server Files\mainline\SRC_2014\Metin2Client\UserInterface\PythonNetworkStreamModule.cpp
; File C:\Program Files (x86)\Microsoft Visual Studio\2019\Community\VC\Tools\MSVC\14.28.29333\include\list
; File C:\Program Files (x86)\Microsoft Visual Studio\2019\Community\VC\Tools\MSVC\14.28.29333\include\xmemory
; File C:\Program Files (x86)\Microsoft Visual Studio\2019\Community\VC\Tools\MSVC\14.28.29333\include\list
; File C:\Program Files (x86)\Microsoft Visual Studio\2019\Community\VC\Tools\MSVC\14.28.29333\include\xmemory
; File C:\Program Files (x86)\Microsoft Visual Studio\2019\Community\VC\Tools\MSVC\14.28.29333\include\xstring
; File C:\Program Files (x86)\Microsoft Visual Studio\2019\Community\VC\Tools\MSVC\14.28.29333\include\xmemory
; File C:\Program Files (x86)\Microsoft Visual Studio\2019\Community\VC\Tools\MSVC\14.28.29333\include\list
; File C:\Program Files (x86)\Microsoft Visual Studio\2019\Community\VC\Tools\MSVC\14.28.29333\include\xstring
; File C:\Program Files (x86)\Microsoft Visual Studio\2019\Community\VC\Tools\MSVC\14.28.29333\include\list
; File D:\Metin2 Server Files\mainline\SRC_2014\Metin2Client\UserInterface\PythonNetworkStreamModule.cpp
; File C:\Program Files (x86)\Microsoft Visual Studio\2019\Community\VC\Tools\MSVC\14.28.29333\include\list
; File D:\Metin2 Server Files\mainline\SRC_2014\Metin2Client\UserInterface\PythonNetworkStreamModule.cpp
; File C:\Program Files (x86)\Microsoft Visual Studio\2019\Community\VC\Tools\MSVC\14.28.29333\include\list
; File D:\Metin2 Server Files\mainline\SRC_2014\Metin2Client\UserInterface\PythonNetworkStreamModule.cpp
;	COMDAT ?netPreserveServerCommand@@YAPAU_object@@PAU1@0@Z
_TEXT	SEGMENT
__Where$1$ = -60					; size = 4
__Op$2 = -56						; size = 8
__Insert_after$3 = -52					; size = 4
__Insert_before$4 = -48					; size = 4
_szLine$ = -44						; size = 4
$T5 = -40						; size = 24
__$ArrayPad$ = -16					; size = 4
__$EHRec$ = -12						; size = 12
_poSelf$ = 8						; size = 4
_poArgs$ = 12						; size = 4
?netPreserveServerCommand@@YAPAU_object@@PAU1@0@Z PROC	; netPreserveServerCommand, COMDAT

; 41   : {

  00000	55		 push	 ebp
  00001	8b ec		 mov	 ebp, esp
  00003	6a ff		 push	 -1
  00005	68 00 00 00 00	 push	 __ehhandler$?netPreserveServerCommand@@YAPAU_object@@PAU1@0@Z
  0000a	64 a1 00 00 00
	00		 mov	 eax, DWORD PTR fs:0
  00010	50		 push	 eax
  00011	83 ec 30	 sub	 esp, 48			; 00000030H
  00014	a1 00 00 00 00	 mov	 eax, DWORD PTR ___security_cookie
  00019	33 c5		 xor	 eax, ebp
  0001b	89 45 f0	 mov	 DWORD PTR __$ArrayPad$[ebp], eax
  0001e	56		 push	 esi
  0001f	57		 push	 edi
  00020	50		 push	 eax
  00021	8d 45 f4	 lea	 eax, DWORD PTR __$EHRec$[ebp]
  00024	64 a3 00 00 00
	00		 mov	 DWORD PTR fs:0, eax
  0002a	8b 45 0c	 mov	 eax, DWORD PTR _poArgs$[ebp]

; 42   : 	char* szLine;
; 43   : 	if (!PyTuple_GetString(poArgs, 0, &szLine))

  0002d	8d 4d d4	 lea	 ecx, DWORD PTR _szLine$[ebp]
  00030	51		 push	 ecx
  00031	6a 00		 push	 0
  00033	50		 push	 eax
  00034	e8 00 00 00 00	 call	 ?PyTuple_GetString@@YA_NPAU_object@@HPAPAD@Z ; PyTuple_GetString
  00039	83 c4 0c	 add	 esp, 12			; 0000000cH
  0003c	84 c0		 test	 al, al
  0003e	75 0f		 jne	 SHORT $LN2@netPreserv

; 44   : 		return Py_BuildException();

  00040	6a 00		 push	 0
  00042	e8 00 00 00 00	 call	 ?Py_BuildException@@YAPAU_object@@PBDZZ ; Py_BuildException
  00047	83 c4 04	 add	 esp, 4
  0004a	e9 cc 00 00 00	 jmp	 $LN1@netPreserv
$LN2@netPreserv:
; File C:\Program Files (x86)\Microsoft Visual Studio\2019\Community\VC\Tools\MSVC\14.28.29333\include\xstring

; 389  :         return _CSTD strlen(reinterpret_cast<const char*>(_First));

  0004f	8b 55 d4	 mov	 edx, DWORD PTR _szLine$[ebp]
  00052	8b ca		 mov	 ecx, edx

; 4377 :         _Mypair._Myval2._Mysize = 0;

  00054	c7 45 e8 00 00
	00 00		 mov	 DWORD PTR $T5[ebp+16], 0

; 4378 :         _Mypair._Myval2._Myres  = _BUF_SIZE - 1;

  0005b	c7 45 ec 0f 00
	00 00		 mov	 DWORD PTR $T5[ebp+20], 15 ; 0000000fH

; 4379 :         // the _Traits::assign is last so the codegen doesn't think the char write can alias this
; 4380 :         _Traits::assign(_Mypair._Myval2._Bx._Buf[0], _Elem());

  00062	c6 45 d8 00	 mov	 BYTE PTR $T5[ebp], 0

; 389  :         return _CSTD strlen(reinterpret_cast<const char*>(_First));

  00066	8d 71 01	 lea	 esi, DWORD PTR [ecx+1]
  00069	0f 1f 80 00 00
	00 00		 npad	 7
$LL96@netPreserv:
  00070	8a 01		 mov	 al, BYTE PTR [ecx]
  00072	41		 inc	 ecx
  00073	84 c0		 test	 al, al
  00075	75 f9		 jne	 SHORT $LL96@netPreserv
  00077	2b ce		 sub	 ecx, esi

; 3062 :         return assign(_Ptr, _Convert_size<size_type>(_Traits::length(_Ptr)));

  00079	51		 push	 ecx
  0007a	52		 push	 edx
  0007b	8d 4d d8	 lea	 ecx, DWORD PTR $T5[ebp]
  0007e	e8 00 00 00 00	 call	 ?assign@?$basic_string@DU?$char_traits@D@std@@V?$allocator@D@2@@std@@QAEAAV12@QBDI@Z ; std::basic_string<char,std::char_traits<char>,std::allocator<char> >::assign
; File C:\Program Files (x86)\Microsoft Visual Studio\2019\Community\VC\Tools\MSVC\14.28.29333\include\list

; 1014 :         if (_Mysize == max_size()) {

  00083	81 3d 04 00 00
	00 ff ff ff 07	 cmp	 DWORD PTR ?g_kList_strCommand@@3V?$list@V?$basic_string@DU?$char_traits@D@std@@V?$allocator@D@2@@std@@V?$allocator@V?$basic_string@DU?$char_traits@D@std@@V?$allocator@D@2@@std@@@2@@std@@A+4, 134217727 ; 07ffffffH

; 973  :         _Emplace(_Mypair._Myval2._Myhead, _STD move(_Val));

  0008d	8b 35 00 00 00
	00		 mov	 esi, DWORD PTR ?g_kList_strCommand@@3V?$list@V?$basic_string@DU?$char_traits@D@std@@V?$allocator@D@2@@std@@V?$allocator@V?$basic_string@DU?$char_traits@D@std@@V?$allocator@D@2@@std@@@2@@std@@A
; File D:\Metin2 Server Files\mainline\SRC_2014\Metin2Client\UserInterface\PythonNetworkStreamModule.cpp

; 46   : 	g_kList_strCommand.push_back(szLine);

  00093	c7 45 fc 00 00
	00 00		 mov	 DWORD PTR __$EHRec$[ebp+8], 0
; File C:\Program Files (x86)\Microsoft Visual Studio\2019\Community\VC\Tools\MSVC\14.28.29333\include\list

; 973  :         _Emplace(_Mypair._Myval2._Myhead, _STD move(_Val));

  0009a	89 75 c4	 mov	 DWORD PTR __Where$1$[ebp], esi

; 1014 :         if (_Mysize == max_size()) {

  0009d	0f 84 93 00 00
	00		 je	 $LN100@netPreserv
; File C:\Program Files (x86)\Microsoft Visual Studio\2019\Community\VC\Tools\MSVC\14.28.29333\include\xmemory

; 1045 :     explicit _Alloc_construct_ptr(_Alloc& _Al_) : _Al(_Al_), _Ptr(nullptr) {}

  000a3	c7 45 c8 00 00
	00 00		 mov	 DWORD PTR __Op$2[ebp], OFFSET ?g_kList_strCommand@@3V?$list@V?$basic_string@DU?$char_traits@D@std@@V?$allocator@D@2@@std@@V?$allocator@V?$basic_string@DU?$char_traits@D@std@@V?$allocator@D@2@@std@@@2@@std@@A ; g_kList_strCommand

; 814  :         return static_cast<_Ty*>(_Allocate<_New_alignof<_Ty>>(_Get_size_of_n<sizeof(_Ty)>(_Count)));

  000aa	6a 20		 push	 32			; 00000020H
; File C:\Program Files (x86)\Microsoft Visual Studio\2019\Community\VC\Tools\MSVC\14.28.29333\include\list

; 585  :     explicit _List_node_emplace_op2(_Alnode& _Al_, _Valtys&&... _Vals) : _Alloc_construct_ptr<_Alnode>(_Al_) {

  000ac	c6 45 fc 01	 mov	 BYTE PTR __$EHRec$[ebp+8], 1
; File C:\Program Files (x86)\Microsoft Visual Studio\2019\Community\VC\Tools\MSVC\14.28.29333\include\xmemory

; 1052 :         _Ptr = nullptr; // if allocate throws, prevents double-free

  000b0	c7 45 cc 00 00
	00 00		 mov	 DWORD PTR __Op$2[ebp+4], 0

; 814  :         return static_cast<_Ty*>(_Allocate<_New_alignof<_Ty>>(_Get_size_of_n<sizeof(_Ty)>(_Count)));

  000b7	e8 00 00 00 00	 call	 ??$_Allocate@$07U_Default_allocate_traits@std@@$0A@@std@@YAPAXI@Z ; std::_Allocate<8,std::_Default_allocate_traits,0>
; File C:\Program Files (x86)\Microsoft Visual Studio\2019\Community\VC\Tools\MSVC\14.28.29333\include\xstring

; 2684 :         _CSTD memcpy(_My_data_mem, _Right_data_mem, _Memcpy_val_size);

  000bc	0f 10 45 d8	 movups	 xmm0, XMMWORD PTR $T5[ebp]
; File C:\Program Files (x86)\Microsoft Visual Studio\2019\Community\VC\Tools\MSVC\14.28.29333\include\xmemory

; 1053 :         _Ptr = _Al.allocate(1);

  000c0	8b f8		 mov	 edi, eax
; File C:\Program Files (x86)\Microsoft Visual Studio\2019\Community\VC\Tools\MSVC\14.28.29333\include\list

; 1020 :         return _Op._Transfer_before(_Where);

  000c2	89 75 d0	 mov	 DWORD PTR __Insert_before$4[ebp], esi

; 601  :         _Construct_in_place(this->_Ptr->_Next, _Insert_before);

  000c5	8d 45 d0	 lea	 eax, DWORD PTR __Insert_before$4[ebp]
  000c8	50		 push	 eax
  000c9	57		 push	 edi
; File C:\Program Files (x86)\Microsoft Visual Studio\2019\Community\VC\Tools\MSVC\14.28.29333\include\xstring

; 2198 :     _String_val() noexcept : _Bx(), _Mysize(0), _Myres(0) {}

  000ca	c7 47 18 00 00
	00 00		 mov	 DWORD PTR [edi+24], 0
  000d1	c7 47 1c 00 00
	00 00		 mov	 DWORD PTR [edi+28], 0

; 2684 :         _CSTD memcpy(_My_data_mem, _Right_data_mem, _Memcpy_val_size);

  000d8	0f 11 47 08	 movups	 XMMWORD PTR [edi+8], xmm0
  000dc	f3 0f 7e 45 e8	 movq	 xmm0, QWORD PTR $T5[ebp+16]
  000e1	66 0f d6 47 18	 movq	 QWORD PTR [edi+24], xmm0
; File C:\Program Files (x86)\Microsoft Visual Studio\2019\Community\VC\Tools\MSVC\14.28.29333\include\list

; 1019 :         ++_Mysize;

  000e6	ff 05 04 00 00
	00		 inc	 DWORD PTR ?g_kList_strCommand@@3V?$list@V?$basic_string@DU?$char_traits@D@std@@V?$allocator@D@2@@std@@V?$allocator@V?$basic_string@DU?$char_traits@D@std@@V?$allocator@D@2@@std@@@2@@std@@A+4

; 600  :         const pointer _Insert_after = _Insert_before->_Prev;

  000ec	8b 76 04	 mov	 esi, DWORD PTR [esi+4]
  000ef	89 75 cc	 mov	 DWORD PTR __Insert_after$3[ebp], esi

; 601  :         _Construct_in_place(this->_Ptr->_Next, _Insert_before);

  000f2	e8 00 00 00 00	 call	 ??$_Construct_in_place@PAU?$_List_node@V?$basic_string@DU?$char_traits@D@std@@V?$allocator@D@2@@std@@PAX@std@@ABQAU12@@std@@YAXAAPAU?$_List_node@V?$basic_string@DU?$char_traits@D@std@@V?$allocator@D@2@@std@@PAX@0@ABQAU10@@Z ; std::_Construct_in_place<std::_List_node<std::basic_string<char,std::char_traits<char>,std::allocator<char> >,void *> *,std::_List_node<std::basic_string<char,std::char_traits<char>,std::allocator<char> >,void *> * const &>

; 602  :         _Construct_in_place(this->_Ptr->_Prev, _Insert_after);

  000f7	8d 45 cc	 lea	 eax, DWORD PTR __Insert_after$3[ebp]
  000fa	50		 push	 eax
  000fb	8d 47 04	 lea	 eax, DWORD PTR [edi+4]
  000fe	50		 push	 eax
  000ff	e8 00 00 00 00	 call	 ??$_Construct_in_place@PAU?$_List_node@V?$basic_string@DU?$char_traits@D@std@@V?$allocator@D@2@@std@@PAX@std@@ABQAU12@@std@@YAXAAPAU?$_List_node@V?$basic_string@DU?$char_traits@D@std@@V?$allocator@D@2@@std@@PAX@0@ABQAU10@@Z ; std::_Construct_in_place<std::_List_node<std::basic_string<char,std::char_traits<char>,std::allocator<char> >,void *> *,std::_List_node<std::basic_string<char,std::char_traits<char>,std::allocator<char> >,void *> * const &>

; 605  :         _Insert_before->_Prev = _Result;

  00104	8b 45 c4	 mov	 eax, DWORD PTR __Where$1$[ebp]
  00107	83 c4 14	 add	 esp, 20			; 00000014H
; File D:\Metin2 Server Files\mainline\SRC_2014\Metin2Client\UserInterface\PythonNetworkStreamModule.cpp

; 46   : 	g_kList_strCommand.push_back(szLine);

  0010a	c7 45 fc ff ff
	ff ff		 mov	 DWORD PTR __$EHRec$[ebp+8], -1
; File C:\Program Files (x86)\Microsoft Visual Studio\2019\Community\VC\Tools\MSVC\14.28.29333\include\list

; 605  :         _Insert_before->_Prev = _Result;

  00111	89 78 04	 mov	 DWORD PTR [eax+4], edi

; 606  :         _Insert_after->_Next  = _Result;

  00114	89 3e		 mov	 DWORD PTR [esi], edi
; File D:\Metin2 Server Files\mainline\SRC_2014\Metin2Client\UserInterface\PythonNetworkStreamModule.cpp

; 48   : 	return Py_BuildNone();

  00116	e8 00 00 00 00	 call	 ?Py_BuildNone@@YAPAU_object@@XZ ; Py_BuildNone
$LN1@netPreserv:

; 49   : }

  0011b	8b 4d f4	 mov	 ecx, DWORD PTR __$EHRec$[ebp]
  0011e	64 89 0d 00 00
	00 00		 mov	 DWORD PTR fs:0, ecx
  00125	59		 pop	 ecx
  00126	5f		 pop	 edi
  00127	5e		 pop	 esi
  00128	8b 4d f0	 mov	 ecx, DWORD PTR __$ArrayPad$[ebp]
  0012b	33 cd		 xor	 ecx, ebp
  0012d	e8 00 00 00 00	 call	 @__security_check_cookie@4
  00132	8b e5		 mov	 esp, ebp
  00134	5d		 pop	 ebp
  00135	c3		 ret	 0
$LN100@netPreserv:
; File C:\Program Files (x86)\Microsoft Visual Studio\2019\Community\VC\Tools\MSVC\14.28.29333\include\list

; 1015 :             _Xlength_error("list too long");

  00136	68 00 00 00 00	 push	 OFFSET ??_C@_0O@NKNMEGII@list?5too?5long@
  0013b	e8 00 00 00 00	 call	 ?_Xlength_error@std@@YAXPBD@Z ; std::_Xlength_error
$LN98@netPreserv:
  00140	cc		 int	 3
_TEXT	ENDS
;	COMDAT text$x
text$x	SEGMENT
__unwindfunclet$?netPreserveServerCommand@@YAPAU_object@@PAU1@0@Z$0:
  00000	8d 4d d8	 lea	 ecx, DWORD PTR $T5[ebp]
  00003	e9 00 00 00 00	 jmp	 ??1?$basic_string@DU?$char_traits@D@std@@V?$allocator@D@2@@std@@QAE@XZ ; std::basic_string<char,std::char_traits<char>,std::allocator<char> >::~basic_string<char,std::char_traits<char>,std::allocator<char> >
__unwindfunclet$?netPreserveServerCommand@@YAPAU_object@@PAU1@0@Z$4:
  00008	8d 4d c8	 lea	 ecx, DWORD PTR __Op$2[ebp]
  0000b	e9 00 00 00 00	 jmp	 ??1?$_Alloc_construct_ptr@V?$allocator@U?$_List_node@V?$basic_string@DU?$char_traits@D@std@@V?$allocator@D@2@@std@@PAX@std@@@std@@@std@@QAE@XZ ; std::_Alloc_construct_ptr<std::allocator<std::_List_node<std::basic_string<char,std::char_traits<char>,std::allocator<char> >,void *> > >::~_Alloc_construct_ptr<std::allocator<std::_List_node<std::basic_string<char,std::char_traits<char>,std::allocator<char> >,void *> > >
  00010	cc		 int	 3
  00011	cc		 int	 3
  00012	cc		 int	 3
  00013	cc		 int	 3
  00014	cc		 int	 3
__ehhandler$?netPreserveServerCommand@@YAPAU_object@@PAU1@0@Z:
  00015	90		 npad	 1
  00016	90		 npad	 1
  00017	8b 54 24 08	 mov	 edx, DWORD PTR [esp+8]
  0001b	8d 42 0c	 lea	 eax, DWORD PTR [edx+12]
  0001e	8b 4a c4	 mov	 ecx, DWORD PTR [edx-60]
  00021	33 c8		 xor	 ecx, eax
  00023	e8 00 00 00 00	 call	 @__security_check_cookie@4
  00028	8b 4a fc	 mov	 ecx, DWORD PTR [edx-4]
  0002b	33 c8		 xor	 ecx, eax
  0002d	e8 00 00 00 00	 call	 @__security_check_cookie@4
  00032	b8 00 00 00 00	 mov	 eax, OFFSET __ehfuncinfo$?netPreserveServerCommand@@YAPAU_object@@PAU1@0@Z
  00037	e9 00 00 00 00	 jmp	 ___CxxFrameHandler3
text$x	ENDS
?netPreserveServerCommand@@YAPAU_object@@PAU1@0@Z ENDP	; netPreserveServerCommand
; Function compile flags: /Ogtp
; File D:\Metin2 Server Files\mainline\SRC_2014\Metin2Client\UserInterface\PythonNetworkStreamModule.cpp
; File C:\Program Files (x86)\Microsoft Visual Studio\2019\Community\VC\Tools\MSVC\14.28.29333\include\xstring
; File D:\Metin2 Server Files\mainline\SRC_2014\Metin2Client\UserInterface\PythonNetworkStreamModule.cpp
;	COMDAT ?netGetServerInfo@@YAPAU_object@@PAU1@0@Z
_TEXT	SEGMENT
_poSelf$ = 8						; size = 4
_poArgs$ = 12						; size = 4
?netGetServerInfo@@YAPAU_object@@PAU1@0@Z PROC		; netGetServerInfo, COMDAT
; File C:\Program Files (x86)\Microsoft Visual Studio\2019\Community\VC\Tools\MSVC\14.28.29333\include\xstring

; 2227 :         return _BUF_SIZE <= _Myres;

  00000	83 3d 14 00 00
	00 10		 cmp	 DWORD PTR ?gs_stServerInfo@@3V?$basic_string@DU?$char_traits@D@std@@V?$allocator@D@2@@std@@A+20, 16 ; 00000010H

; 2218 :         const value_type* _Result = _Bx._Buf;

  00007	b8 00 00 00 00	 mov	 eax, OFFSET ?gs_stServerInfo@@3V?$basic_string@DU?$char_traits@D@std@@V?$allocator@D@2@@std@@A

; 2219 :         if (_Large_string_engaged()) {

  0000c	0f 43 05 00 00
	00 00		 cmovae	 eax, DWORD PTR ?gs_stServerInfo@@3V?$basic_string@DU?$char_traits@D@std@@V?$allocator@D@2@@std@@A
; File D:\Metin2 Server Files\mainline\SRC_2014\Metin2Client\UserInterface\PythonNetworkStreamModule.cpp

; 37   : 	return Py_BuildValue("s", gs_stServerInfo.c_str());

  00013	50		 push	 eax
  00014	68 00 00 00 00	 push	 OFFSET ??_C@_01LKDEMHDF@s@
  00019	ff 15 00 00 00
	00		 call	 DWORD PTR __imp__Py_BuildValue
  0001f	83 c4 08	 add	 esp, 8

; 38   : }

  00022	c3		 ret	 0
?netGetServerInfo@@YAPAU_object@@PAU1@0@Z ENDP		; netGetServerInfo
_TEXT	ENDS
; Function compile flags: /Ogtp
; File D:\Metin2 Server Files\mainline\SRC_2014\Metin2Client\UserInterface\PythonNetworkStreamModule.cpp
; File C:\Program Files (x86)\Microsoft Visual Studio\2019\Community\VC\Tools\MSVC\14.28.29333\include\xstring
; File D:\Metin2 Server Files\mainline\SRC_2014\Metin2Client\UserInterface\PythonNetworkStreamModule.cpp
;	COMDAT ?netSetServerInfo@@YAPAU_object@@PAU1@0@Z
_TEXT	SEGMENT
_szFileName$ = -4					; size = 4
_poSelf$ = 8						; size = 4
_poArgs$ = 12						; size = 4
?netSetServerInfo@@YAPAU_object@@PAU1@0@Z PROC		; netSetServerInfo, COMDAT

; 26   : {

  00000	55		 push	 ebp
  00001	8b ec		 mov	 ebp, esp
  00003	51		 push	 ecx

; 27   : 	char* szFileName;
; 28   : 	if (!PyTuple_GetString(poArgs, 0, &szFileName))

  00004	8d 45 fc	 lea	 eax, DWORD PTR _szFileName$[ebp]
  00007	50		 push	 eax
  00008	6a 00		 push	 0
  0000a	ff 75 0c	 push	 DWORD PTR _poArgs$[ebp]
  0000d	e8 00 00 00 00	 call	 ?PyTuple_GetString@@YA_NPAU_object@@HPAPAD@Z ; PyTuple_GetString
  00012	83 c4 0c	 add	 esp, 12			; 0000000cH
  00015	84 c0		 test	 al, al
  00017	75 0e		 jne	 SHORT $LN2@netSetServ

; 29   : 		return Py_BuildException();

  00019	6a 00		 push	 0
  0001b	e8 00 00 00 00	 call	 ?Py_BuildException@@YAPAU_object@@PBDZZ ; Py_BuildException
  00020	83 c4 04	 add	 esp, 4

; 33   : }

  00023	8b e5		 mov	 esp, ebp
  00025	5d		 pop	 ebp
  00026	c3		 ret	 0
$LN2@netSetServ:
; File C:\Program Files (x86)\Microsoft Visual Studio\2019\Community\VC\Tools\MSVC\14.28.29333\include\xstring

; 389  :         return _CSTD strlen(reinterpret_cast<const char*>(_First));

  00027	8b 55 fc	 mov	 edx, DWORD PTR _szFileName$[ebp]
  0002a	8b ca		 mov	 ecx, edx
  0002c	56		 push	 esi
  0002d	8d 71 01	 lea	 esi, DWORD PTR [ecx+1]
$LL10@netSetServ:
  00030	8a 01		 mov	 al, BYTE PTR [ecx]
  00032	41		 inc	 ecx
  00033	84 c0		 test	 al, al
  00035	75 f9		 jne	 SHORT $LL10@netSetServ
  00037	2b ce		 sub	 ecx, esi

; 3062 :         return assign(_Ptr, _Convert_size<size_type>(_Traits::length(_Ptr)));

  00039	51		 push	 ecx
  0003a	52		 push	 edx
  0003b	b9 00 00 00 00	 mov	 ecx, OFFSET ?gs_stServerInfo@@3V?$basic_string@DU?$char_traits@D@std@@V?$allocator@D@2@@std@@A
  00040	e8 00 00 00 00	 call	 ?assign@?$basic_string@DU?$char_traits@D@std@@V?$allocator@D@2@@std@@QAEAAV12@QBDI@Z ; std::basic_string<char,std::char_traits<char>,std::allocator<char> >::assign
; File D:\Metin2 Server Files\mainline\SRC_2014\Metin2Client\UserInterface\PythonNetworkStreamModule.cpp

; 32   : 	return Py_BuildNone();

  00045	e8 00 00 00 00	 call	 ?Py_BuildNone@@YAPAU_object@@XZ ; Py_BuildNone
  0004a	5e		 pop	 esi

; 33   : }

  0004b	8b e5		 mov	 esp, ebp
  0004d	5d		 pop	 ebp
  0004e	c3		 ret	 0
?netSetServerInfo@@YAPAU_object@@PAU1@0@Z ENDP		; netSetServerInfo
_TEXT	ENDS
; Function compile flags: /Ogtp
; File D:\Metin2 Server Files\mainline\SRC_2014\Metin2Client\UserInterface\PythonNetworkStreamModule.cpp
;	COMDAT ?netGetBettingGuildWarValue@@YAPAU_object@@PAU1@0@Z
_TEXT	SEGMENT
_szName$ = -4						; size = 4
_poSelf$ = 8						; size = 4
_poArgs$ = 12						; size = 4
?netGetBettingGuildWarValue@@YAPAU_object@@PAU1@0@Z PROC ; netGetBettingGuildWarValue, COMDAT

; 15   : {

  00000	55		 push	 ebp
  00001	8b ec		 mov	 ebp, esp
  00003	51		 push	 ecx

; 16   : 	char* szName;
; 17   : 	if (!PyTuple_GetString(poArgs, 0, &szName))

  00004	8d 45 fc	 lea	 eax, DWORD PTR _szName$[ebp]
  00007	50		 push	 eax
  00008	6a 00		 push	 0
  0000a	ff 75 0c	 push	 DWORD PTR _poArgs$[ebp]
  0000d	e8 00 00 00 00	 call	 ?PyTuple_GetString@@YA_NPAU_object@@HPAPAD@Z ; PyTuple_GetString
  00012	83 c4 0c	 add	 esp, 12			; 0000000cH
  00015	84 c0		 test	 al, al
  00017	75 0e		 jne	 SHORT $LN2@netGetBett

; 18   : 		return Py_BuildException();

  00019	6a 00		 push	 0
  0001b	e8 00 00 00 00	 call	 ?Py_BuildException@@YAPAU_object@@PBDZZ ; Py_BuildException
  00020	83 c4 04	 add	 esp, 4

; 23   : }

  00023	8b e5		 mov	 esp, ebp
  00025	5d		 pop	 ebp
  00026	c3		 ret	 0
$LN2@netGetBett:

; 19   : 
; 20   : 	
; 21   : 	CPythonNetworkStream& rkNetStream=CPythonNetworkStream::Instance();
; 22   : 	return Py_BuildValue("i", rkNetStream.EXPORT_GetBettingGuildWarValue(szName));

  00027	ff 75 fc	 push	 DWORD PTR _szName$[ebp]
  0002a	8b 0d 00 00 00
	00		 mov	 ecx, DWORD PTR ?ms_singleton@?$CSingleton@VCPythonNetworkStream@@@@0PAVCPythonNetworkStream@@A ; CSingleton<CPythonNetworkStream>::ms_singleton
  00030	e8 00 00 00 00	 call	 ?EXPORT_GetBettingGuildWarValue@CPythonNetworkStream@@QAEKPBD@Z ; CPythonNetworkStream::EXPORT_GetBettingGuildWarValue
  00035	50		 push	 eax
  00036	68 00 00 00 00	 push	 OFFSET ??_C@_01KBJDNOO@i@
  0003b	ff 15 00 00 00
	00		 call	 DWORD PTR __imp__Py_BuildValue
  00041	83 c4 08	 add	 esp, 8

; 23   : }

  00044	8b e5		 mov	 esp, ebp
  00046	5d		 pop	 ebp
  00047	c3		 ret	 0
?netGetBettingGuildWarValue@@YAPAU_object@@PAU1@0@Z ENDP ; netGetBettingGuildWarValue
_TEXT	ENDS
; Function compile flags: /Ogtp
; File C:\Program Files (x86)\Microsoft Visual Studio\2019\Community\VC\Tools\MSVC\14.28.29333\include\list
; File C:\Program Files (x86)\Microsoft Visual Studio\2019\Community\VC\Tools\MSVC\14.28.29333\include\xstring
; File C:\Program Files (x86)\Microsoft Visual Studio\2019\Community\VC\Tools\MSVC\14.28.29333\include\list
; File C:\Program Files (x86)\Microsoft Visual Studio\2019\Community\VC\Tools\MSVC\14.28.29333\include\xstring
; File C:\Program Files (x86)\Microsoft Visual Studio\2019\Community\VC\Tools\MSVC\14.28.29333\include\xmemory
; File C:\Program Files (x86)\Microsoft Visual Studio\2019\Community\VC\Tools\MSVC\14.28.29333\include\list
; File C:\Program Files (x86)\Microsoft Visual Studio\2019\Community\VC\Tools\MSVC\14.28.29333\include\xstring
; File C:\Program Files (x86)\Microsoft Visual Studio\2019\Community\VC\Tools\MSVC\14.28.29333\include\list
; File C:\Program Files (x86)\Microsoft Visual Studio\2019\Community\VC\Tools\MSVC\14.28.29333\include\xmemory
; File C:\Program Files (x86)\Microsoft Visual Studio\2019\Community\VC\Tools\MSVC\14.28.29333\include\list
; File C:\Program Files (x86)\Microsoft Visual Studio\2019\Community\VC\Tools\MSVC\14.28.29333\include\xmemory
;	COMDAT ??__Fg_kList_strCommand@@YAXXZ
text$yd	SEGMENT
__Pnext$1$ = -4						; size = 4
??__Fg_kList_strCommand@@YAXXZ PROC			; `dynamic atexit destructor for 'g_kList_strCommand'', COMDAT
  00000	55		 push	 ebp
  00001	8b ec		 mov	 ebp, esp
  00003	51		 push	 ecx
; File C:\Program Files (x86)\Microsoft Visual Studio\2019\Community\VC\Tools\MSVC\14.28.29333\include\list

; 1440 :         _Node::_Free_non_head(_Al, _My_data._Myhead);

  00004	8b 0d 00 00 00
	00		 mov	 ecx, DWORD PTR ?g_kList_strCommand@@3V?$list@V?$basic_string@DU?$char_traits@D@std@@V?$allocator@D@2@@std@@V?$allocator@V?$basic_string@DU?$char_traits@D@std@@V?$allocator@D@2@@std@@@2@@std@@A
  0000a	53		 push	 ebx
  0000b	56		 push	 esi

; 324  :         _Head->_Prev->_Next = nullptr;

  0000c	8b 41 04	 mov	 eax, DWORD PTR [ecx+4]
  0000f	c7 00 00 00 00
	00		 mov	 DWORD PTR [eax], 0

; 325  : 
; 326  :         auto _Pnode = _Head->_Next;

  00015	8b 19		 mov	 ebx, DWORD PTR [ecx]

; 327  :         for (_Nodeptr _Pnext; _Pnode; _Pnode = _Pnext) {

  00017	85 db		 test	 ebx, ebx
  00019	74 5e		 je	 SHORT $LN9@dynamic
  0001b	57		 push	 edi
  0001c	0f 1f 40 00	 npad	 4
$LL10@dynamic:
; File C:\Program Files (x86)\Microsoft Visual Studio\2019\Community\VC\Tools\MSVC\14.28.29333\include\xstring

; 2227 :         return _BUF_SIZE <= _Myres;

  00020	83 7b 1c 10	 cmp	 DWORD PTR [ebx+28], 16	; 00000010H
; File C:\Program Files (x86)\Microsoft Visual Studio\2019\Community\VC\Tools\MSVC\14.28.29333\include\list

; 317  :         allocator_traits<_Alnode>::destroy(_Al, _STD addressof(_Ptr->_Myval));

  00024	8d 73 08	 lea	 esi, DWORD PTR [ebx+8]

; 328  :             _Pnext = _Pnode->_Next;

  00027	8b 3b		 mov	 edi, DWORD PTR [ebx]
  00029	89 7d fc	 mov	 DWORD PTR __Pnext$1$[ebp], edi
; File C:\Program Files (x86)\Microsoft Visual Studio\2019\Community\VC\Tools\MSVC\14.28.29333\include\xstring

; 4385 :         if (_Mypair._Myval2._Large_string_engaged()) {

  0002c	72 19		 jb	 SHORT $LN23@dynamic

; 4386 :             const pointer _Ptr = _Mypair._Myval2._Bx._Ptr;

  0002e	8b 3e		 mov	 edi, DWORD PTR [esi]

; 4387 :             auto& _Al          = _Getal();
; 4388 :             _Destroy_in_place(_Mypair._Myval2._Bx._Ptr);

  00030	56		 push	 esi
  00031	e8 00 00 00 00	 call	 ??$_Destroy_in_place@PAD@std@@YAXAAPAD@Z ; std::_Destroy_in_place<char *>

; 4389 :             _Al.deallocate(_Ptr, _Mypair._Myval2._Myres + 1);

  00036	8b 46 14	 mov	 eax, DWORD PTR [esi+20]
  00039	40		 inc	 eax
; File C:\Program Files (x86)\Microsoft Visual Studio\2019\Community\VC\Tools\MSVC\14.28.29333\include\xmemory

; 810  :         _Deallocate<_New_alignof<_Ty>>(_Ptr, sizeof(_Ty) * _Count);

  0003a	50		 push	 eax
  0003b	57		 push	 edi
  0003c	e8 00 00 00 00	 call	 ??$_Deallocate@$07$0A@@std@@YAXPAXI@Z ; std::_Deallocate<8,0>
  00041	8b 7d fc	 mov	 edi, DWORD PTR __Pnext$1$[ebp]
  00044	83 c4 0c	 add	 esp, 12			; 0000000cH
$LN23@dynamic:
; File C:\Program Files (x86)\Microsoft Visual Studio\2019\Community\VC\Tools\MSVC\14.28.29333\include\list

; 310  :         _Destroy_in_place(_Ptr->_Next);

  00047	53		 push	 ebx
; File C:\Program Files (x86)\Microsoft Visual Studio\2019\Community\VC\Tools\MSVC\14.28.29333\include\xstring

; 4392 :         _Mypair._Myval2._Mysize = 0;

  00048	c7 46 10 00 00
	00 00		 mov	 DWORD PTR [esi+16], 0

; 4393 :         _Mypair._Myval2._Myres  = _BUF_SIZE - 1;

  0004f	c7 46 14 0f 00
	00 00		 mov	 DWORD PTR [esi+20], 15	; 0000000fH

; 4394 :         // the _Traits::assign is last so the codegen doesn't think the char write can alias this
; 4395 :         _Traits::assign(_Mypair._Myval2._Bx._Buf[0], _Elem());

  00056	c6 06 00	 mov	 BYTE PTR [esi], 0
; File C:\Program Files (x86)\Microsoft Visual Studio\2019\Community\VC\Tools\MSVC\14.28.29333\include\list

; 310  :         _Destroy_in_place(_Ptr->_Next);

  00059	e8 00 00 00 00	 call	 ??$_Destroy_in_place@PAU?$_List_node@V?$basic_string@DU?$char_traits@D@std@@V?$allocator@D@2@@std@@PAX@std@@@std@@YAXAAPAU?$_List_node@V?$basic_string@DU?$char_traits@D@std@@V?$allocator@D@2@@std@@PAX@0@@Z ; std::_Destroy_in_place<std::_List_node<std::basic_string<char,std::char_traits<char>,std::allocator<char> >,void *> *>

; 311  :         _Destroy_in_place(_Ptr->_Prev);

  0005e	8d 43 04	 lea	 eax, DWORD PTR [ebx+4]
  00061	50		 push	 eax
  00062	e8 00 00 00 00	 call	 ??$_Destroy_in_place@PAU?$_List_node@V?$basic_string@DU?$char_traits@D@std@@V?$allocator@D@2@@std@@PAX@std@@@std@@YAXAAPAU?$_List_node@V?$basic_string@DU?$char_traits@D@std@@V?$allocator@D@2@@std@@PAX@0@@Z ; std::_Destroy_in_place<std::_List_node<std::basic_string<char,std::char_traits<char>,std::allocator<char> >,void *> *>
; File C:\Program Files (x86)\Microsoft Visual Studio\2019\Community\VC\Tools\MSVC\14.28.29333\include\xmemory

; 696  :         _Deallocate<_New_alignof<value_type>>(_Ptr, sizeof(value_type) * _Count);

  00067	6a 20		 push	 32			; 00000020H
  00069	53		 push	 ebx
  0006a	e8 00 00 00 00	 call	 ??$_Deallocate@$07$0A@@std@@YAXPAXI@Z ; std::_Deallocate<8,0>
  0006f	83 c4 10	 add	 esp, 16			; 00000010H
; File C:\Program Files (x86)\Microsoft Visual Studio\2019\Community\VC\Tools\MSVC\14.28.29333\include\list

; 327  :         for (_Nodeptr _Pnext; _Pnode; _Pnode = _Pnext) {

  00072	8b df		 mov	 ebx, edi
  00074	85 ff		 test	 edi, edi
  00076	75 a8		 jne	 SHORT $LL10@dynamic
  00078	5f		 pop	 edi
$LN9@dynamic:

; 1441 :         _Node::_Freenode0(_Al, _My_data._Myhead);

  00079	8b 35 00 00 00
	00		 mov	 esi, DWORD PTR ?g_kList_strCommand@@3V?$list@V?$basic_string@DU?$char_traits@D@std@@V?$allocator@D@2@@std@@V?$allocator@V?$basic_string@DU?$char_traits@D@std@@V?$allocator@D@2@@std@@@2@@std@@A

; 310  :         _Destroy_in_place(_Ptr->_Next);

  0007f	56		 push	 esi
  00080	e8 00 00 00 00	 call	 ??$_Destroy_in_place@PAU?$_List_node@V?$basic_string@DU?$char_traits@D@std@@V?$allocator@D@2@@std@@PAX@std@@@std@@YAXAAPAU?$_List_node@V?$basic_string@DU?$char_traits@D@std@@V?$allocator@D@2@@std@@PAX@0@@Z ; std::_Destroy_in_place<std::_List_node<std::basic_string<char,std::char_traits<char>,std::allocator<char> >,void *> *>

; 311  :         _Destroy_in_place(_Ptr->_Prev);

  00085	8d 46 04	 lea	 eax, DWORD PTR [esi+4]
  00088	50		 push	 eax
  00089	e8 00 00 00 00	 call	 ??$_Destroy_in_place@PAU?$_List_node@V?$basic_string@DU?$char_traits@D@std@@V?$allocator@D@2@@std@@PAX@std@@@std@@YAXAAPAU?$_List_node@V?$basic_string@DU?$char_traits@D@std@@V?$allocator@D@2@@std@@PAX@0@@Z ; std::_Destroy_in_place<std::_List_node<std::basic_string<char,std::char_traits<char>,std::allocator<char> >,void *> *>
; File C:\Program Files (x86)\Microsoft Visual Studio\2019\Community\VC\Tools\MSVC\14.28.29333\include\xmemory

; 696  :         _Deallocate<_New_alignof<value_type>>(_Ptr, sizeof(value_type) * _Count);

  0008e	6a 20		 push	 32			; 00000020H
  00090	56		 push	 esi
  00091	e8 00 00 00 00	 call	 ??$_Deallocate@$07$0A@@std@@YAXPAXI@Z ; std::_Deallocate<8,0>
  00096	83 c4 10	 add	 esp, 16			; 00000010H
  00099	5e		 pop	 esi
  0009a	5b		 pop	 ebx
  0009b	8b e5		 mov	 esp, ebp
  0009d	5d		 pop	 ebp
  0009e	c3		 ret	 0
??__Fg_kList_strCommand@@YAXXZ ENDP			; `dynamic atexit destructor for 'g_kList_strCommand''
text$yd	ENDS
; Function compile flags: /Ogtp
; File D:\Metin2 Server Files\mainline\SRC_2014\Metin2Client\UserInterface\PythonNetworkStreamModule.cpp
; File C:\Program Files (x86)\Microsoft Visual Studio\2019\Community\VC\Tools\MSVC\14.28.29333\include\xmemory
; File C:\Program Files (x86)\Microsoft Visual Studio\2019\Community\VC\Tools\MSVC\14.28.29333\include\list
; File D:\Metin2 Server Files\mainline\SRC_2014\Metin2Client\UserInterface\PythonNetworkStreamModule.cpp
; File C:\Program Files (x86)\Microsoft Visual Studio\2019\Community\VC\Tools\MSVC\14.28.29333\include\list
; File D:\Metin2 Server Files\mainline\SRC_2014\Metin2Client\UserInterface\PythonNetworkStreamModule.cpp
;	COMDAT ??__Eg_kList_strCommand@@YAXXZ
text$di	SEGMENT
__Newhead$1 = -4					; size = 4
??__Eg_kList_strCommand@@YAXXZ PROC			; `dynamic initializer for 'g_kList_strCommand'', COMDAT

; 12   : std::list<std::string> g_kList_strCommand;

  00000	55		 push	 ebp
  00001	8b ec		 mov	 ebp, esp
  00003	51		 push	 ecx
; File C:\Program Files (x86)\Microsoft Visual Studio\2019\Community\VC\Tools\MSVC\14.28.29333\include\xmemory

; 814  :         return static_cast<_Ty*>(_Allocate<_New_alignof<_Ty>>(_Get_size_of_n<sizeof(_Ty)>(_Count)));

  00004	6a 20		 push	 32			; 00000020H
  00006	e8 00 00 00 00	 call	 ??$_Allocate@$07U_Default_allocate_traits@std@@$0A@@std@@YAPAXI@Z ; std::_Allocate<8,std::_Default_allocate_traits,0>
; File C:\Program Files (x86)\Microsoft Visual Studio\2019\Community\VC\Tools\MSVC\14.28.29333\include\list

; 1776 :         _Construct_in_place(_Newhead->_Next, _Newhead);

  0000b	8d 4d fc	 lea	 ecx, DWORD PTR __Newhead$1[ebp]
  0000e	89 45 fc	 mov	 DWORD PTR __Newhead$1[ebp], eax
  00011	51		 push	 ecx
  00012	50		 push	 eax
  00013	e8 00 00 00 00	 call	 ??$_Construct_in_place@PAU?$_List_node@V?$basic_string@DU?$char_traits@D@std@@V?$allocator@D@2@@std@@PAX@std@@AAPAU12@@std@@YAXAAPAU?$_List_node@V?$basic_string@DU?$char_traits@D@std@@V?$allocator@D@2@@std@@PAX@0@0@Z ; std::_Construct_in_place<std::_List_node<std::basic_string<char,std::char_traits<char>,std::allocator<char> >,void *> *,std::_List_node<std::basic_string<char,std::char_traits<char>,std::allocator<char> >,void *> * &>

; 1777 :         _Construct_in_place(_Newhead->_Prev, _Newhead);

  00018	8d 45 fc	 lea	 eax, DWORD PTR __Newhead$1[ebp]
  0001b	50		 push	 eax
  0001c	8b 45 fc	 mov	 eax, DWORD PTR __Newhead$1[ebp]
  0001f	83 c0 04	 add	 eax, 4
  00022	50		 push	 eax
  00023	e8 00 00 00 00	 call	 ??$_Construct_in_place@PAU?$_List_node@V?$basic_string@DU?$char_traits@D@std@@V?$allocator@D@2@@std@@PAX@std@@AAPAU12@@std@@YAXAAPAU?$_List_node@V?$basic_string@DU?$char_traits@D@std@@V?$allocator@D@2@@std@@PAX@0@0@Z ; std::_Construct_in_place<std::_List_node<std::basic_string<char,std::char_traits<char>,std::allocator<char> >,void *> *,std::_List_node<std::basic_string<char,std::char_traits<char>,std::allocator<char> >,void *> * &>

; 1778 :         _Mypair._Myval2._Myhead = _Newhead;

  00028	8b 45 fc	 mov	 eax, DWORD PTR __Newhead$1[ebp]
; File D:\Metin2 Server Files\mainline\SRC_2014\Metin2Client\UserInterface\PythonNetworkStreamModule.cpp

; 12   : std::list<std::string> g_kList_strCommand;

  0002b	68 00 00 00 00	 push	 OFFSET ??__Fg_kList_strCommand@@YAXXZ ; `dynamic atexit destructor for 'g_kList_strCommand''
; File C:\Program Files (x86)\Microsoft Visual Studio\2019\Community\VC\Tools\MSVC\14.28.29333\include\list

; 1778 :         _Mypair._Myval2._Myhead = _Newhead;

  00030	a3 00 00 00 00	 mov	 DWORD PTR ?g_kList_strCommand@@3V?$list@V?$basic_string@DU?$char_traits@D@std@@V?$allocator@D@2@@std@@V?$allocator@V?$basic_string@DU?$char_traits@D@std@@V?$allocator@D@2@@std@@@2@@std@@A, eax
; File D:\Metin2 Server Files\mainline\SRC_2014\Metin2Client\UserInterface\PythonNetworkStreamModule.cpp

; 12   : std::list<std::string> g_kList_strCommand;

  00035	e8 00 00 00 00	 call	 _atexit
  0003a	83 c4 18	 add	 esp, 24			; 00000018H
  0003d	8b e5		 mov	 esp, ebp
  0003f	5d		 pop	 ebp
  00040	c3		 ret	 0
??__Eg_kList_strCommand@@YAXXZ ENDP			; `dynamic initializer for 'g_kList_strCommand''
text$di	ENDS
; Function compile flags: /Ogtp
; File C:\Program Files (x86)\Microsoft Visual Studio\2019\Community\VC\Tools\MSVC\14.28.29333\include\xstring
; File C:\Program Files (x86)\Microsoft Visual Studio\2019\Community\VC\Tools\MSVC\14.28.29333\include\xmemory
; File C:\Program Files (x86)\Microsoft Visual Studio\2019\Community\VC\Tools\MSVC\14.28.29333\include\xstring
;	COMDAT ??__Fgs_stServerInfo@@YAXXZ
text$yd	SEGMENT
??__Fgs_stServerInfo@@YAXXZ PROC			; `dynamic atexit destructor for 'gs_stServerInfo'', COMDAT

; 2227 :         return _BUF_SIZE <= _Myres;

  00000	83 3d 14 00 00
	00 10		 cmp	 DWORD PTR ?gs_stServerInfo@@3V?$basic_string@DU?$char_traits@D@std@@V?$allocator@D@2@@std@@A+20, 16 ; 00000010H

; 4385 :         if (_Mypair._Myval2._Large_string_engaged()) {

  00007	72 22		 jb	 SHORT $LN7@dynamic

; 4386 :             const pointer _Ptr = _Mypair._Myval2._Bx._Ptr;

  00009	56		 push	 esi
  0000a	8b 35 00 00 00
	00		 mov	 esi, DWORD PTR ?gs_stServerInfo@@3V?$basic_string@DU?$char_traits@D@std@@V?$allocator@D@2@@std@@A

; 4387 :             auto& _Al          = _Getal();
; 4388 :             _Destroy_in_place(_Mypair._Myval2._Bx._Ptr);

  00010	68 00 00 00 00	 push	 OFFSET ?gs_stServerInfo@@3V?$basic_string@DU?$char_traits@D@std@@V?$allocator@D@2@@std@@A
  00015	e8 00 00 00 00	 call	 ??$_Destroy_in_place@PAD@std@@YAXAAPAD@Z ; std::_Destroy_in_place<char *>

; 4389 :             _Al.deallocate(_Ptr, _Mypair._Myval2._Myres + 1);

  0001a	a1 14 00 00 00	 mov	 eax, DWORD PTR ?gs_stServerInfo@@3V?$basic_string@DU?$char_traits@D@std@@V?$allocator@D@2@@std@@A+20
  0001f	40		 inc	 eax
; File C:\Program Files (x86)\Microsoft Visual Studio\2019\Community\VC\Tools\MSVC\14.28.29333\include\xmemory

; 810  :         _Deallocate<_New_alignof<_Ty>>(_Ptr, sizeof(_Ty) * _Count);

  00020	50		 push	 eax
  00021	56		 push	 esi
  00022	e8 00 00 00 00	 call	 ??$_Deallocate@$07$0A@@std@@YAXPAXI@Z ; std::_Deallocate<8,0>
  00027	83 c4 0c	 add	 esp, 12			; 0000000cH
  0002a	5e		 pop	 esi
$LN7@dynamic:
; File C:\Program Files (x86)\Microsoft Visual Studio\2019\Community\VC\Tools\MSVC\14.28.29333\include\xstring

; 4392 :         _Mypair._Myval2._Mysize = 0;

  0002b	c7 05 10 00 00
	00 00 00 00 00	 mov	 DWORD PTR ?gs_stServerInfo@@3V?$basic_string@DU?$char_traits@D@std@@V?$allocator@D@2@@std@@A+16, 0

; 4393 :         _Mypair._Myval2._Myres  = _BUF_SIZE - 1;

  00035	c7 05 14 00 00
	00 0f 00 00 00	 mov	 DWORD PTR ?gs_stServerInfo@@3V?$basic_string@DU?$char_traits@D@std@@V?$allocator@D@2@@std@@A+20, 15 ; 0000000fH

; 4394 :         // the _Traits::assign is last so the codegen doesn't think the char write can alias this
; 4395 :         _Traits::assign(_Mypair._Myval2._Bx._Buf[0], _Elem());

  0003f	c6 05 00 00 00
	00 00		 mov	 BYTE PTR ?gs_stServerInfo@@3V?$basic_string@DU?$char_traits@D@std@@V?$allocator@D@2@@std@@A, 0
  00046	c3		 ret	 0
??__Fgs_stServerInfo@@YAXXZ ENDP			; `dynamic atexit destructor for 'gs_stServerInfo''
text$yd	ENDS
; Function compile flags: /Ogtp
; File D:\Metin2 Server Files\mainline\SRC_2014\Metin2Client\UserInterface\PythonNetworkStreamModule.cpp
;	COMDAT ??__Egs_stServerInfo@@YAXXZ
text$di	SEGMENT
??__Egs_stServerInfo@@YAXXZ PROC			; `dynamic initializer for 'gs_stServerInfo'', COMDAT

; 10   : static std::string gs_stServerInfo;

  00000	68 00 00 00 00	 push	 OFFSET ??__Fgs_stServerInfo@@YAXXZ ; `dynamic atexit destructor for 'gs_stServerInfo''
  00005	e8 00 00 00 00	 call	 _atexit
  0000a	59		 pop	 ecx
  0000b	c3		 ret	 0
??__Egs_stServerInfo@@YAXXZ ENDP			; `dynamic initializer for 'gs_stServerInfo''
text$di	ENDS
; Function compile flags: /Ogtp
; File C:\Program Files (x86)\Microsoft Visual Studio\2019\Community\VC\Tools\MSVC\14.28.29333\include\xmemory
;	COMDAT ??$_Allocate_manually_vector_aligned@U_Default_allocate_traits@std@@@std@@YAPAXI@Z
_TEXT	SEGMENT
__Bytes$ = 8						; size = 4
??$_Allocate_manually_vector_aligned@U_Default_allocate_traits@std@@@std@@YAPAXI@Z PROC ; std::_Allocate_manually_vector_aligned<std::_Default_allocate_traits>, COMDAT

; 113  : __declspec(allocator) void* _Allocate_manually_vector_aligned(const size_t _Bytes) {

  00000	55		 push	 ebp
  00001	8b ec		 mov	 ebp, esp

; 114  :     // allocate _Bytes manually aligned to at least _Big_allocation_alignment
; 115  :     const size_t _Block_size = _Non_user_size + _Bytes;

  00003	8b 45 08	 mov	 eax, DWORD PTR __Bytes$[ebp]
  00006	8d 48 23	 lea	 ecx, DWORD PTR [eax+35]

; 116  :     if (_Block_size <= _Bytes) {

  00009	3b c8		 cmp	 ecx, eax
  0000b	0f 86 00 00 00
	00		 jbe	 ?_Throw_bad_array_new_length@std@@YAXXZ ; std::_Throw_bad_array_new_length

; 77   :         return ::operator new(_Bytes);

  00011	51		 push	 ecx
  00012	e8 00 00 00 00	 call	 ??2@YAPAXI@Z		; operator new

; 117  :         _Throw_bad_array_new_length(); // add overflow
; 118  :     }
; 119  : 
; 120  :     const uintptr_t _Ptr_container = reinterpret_cast<uintptr_t>(_Traits::_Allocate(_Block_size));

  00017	8b c8		 mov	 ecx, eax

; 77   :         return ::operator new(_Bytes);

  00019	83 c4 04	 add	 esp, 4

; 121  :     _STL_VERIFY(_Ptr_container != 0, "invalid argument"); // validate even in release since we're doing p[-1]

  0001c	85 c9		 test	 ecx, ecx
  0001e	74 0b		 je	 SHORT $LN7@Allocate_m

; 122  :     void* const _Ptr = reinterpret_cast<void*>((_Ptr_container + _Non_user_size) & ~(_Big_allocation_alignment - 1));

  00020	8d 41 23	 lea	 eax, DWORD PTR [ecx+35]
  00023	83 e0 e0	 and	 eax, -32		; ffffffe0H

; 123  :     static_cast<uintptr_t*>(_Ptr)[-1] = _Ptr_container;

  00026	89 48 fc	 mov	 DWORD PTR [eax-4], ecx

; 124  : 
; 125  : #ifdef _DEBUG
; 126  :     static_cast<uintptr_t*>(_Ptr)[-2] = _Big_allocation_sentinel;
; 127  : #endif // _DEBUG
; 128  :     return _Ptr;
; 129  : }

  00029	5d		 pop	 ebp
  0002a	c3		 ret	 0
$LN7@Allocate_m:

; 121  :     _STL_VERIFY(_Ptr_container != 0, "invalid argument"); // validate even in release since we're doing p[-1]

  0002b	e9 00 00 00 00	 jmp	 __invalid_parameter_noinfo_noreturn
??$_Allocate_manually_vector_aligned@U_Default_allocate_traits@std@@@std@@YAPAXI@Z ENDP ; std::_Allocate_manually_vector_aligned<std::_Default_allocate_traits>
_TEXT	ENDS
; Function compile flags: /Ogtp
; File C:\Program Files (x86)\Microsoft Visual Studio\2019\Community\VC\Tools\MSVC\14.28.29333\include\xmemory
;	COMDAT ??$_Allocate@$07U_Default_allocate_traits@std@@$0A@@std@@YAPAXI@Z
_TEXT	SEGMENT
__Bytes$ = 8						; size = 4
??$_Allocate@$07U_Default_allocate_traits@std@@$0A@@std@@YAPAXI@Z PROC ; std::_Allocate<8,std::_Default_allocate_traits,0>, COMDAT

; 197  : __declspec(allocator) void* _Allocate(const size_t _Bytes) {

  00000	55		 push	 ebp
  00001	8b ec		 mov	 ebp, esp

; 198  :     // allocate _Bytes when !_HAS_ALIGNED_NEW || _Align <= __STDCPP_DEFAULT_NEW_ALIGNMENT__
; 199  : #if defined(_M_IX86) || defined(_M_X64)
; 200  :     if (_Bytes >= _Big_allocation_threshold) { // boost the alignment of big allocations to help autovectorization

  00003	8b 45 08	 mov	 eax, DWORD PTR __Bytes$[ebp]
  00006	3d 00 10 00 00	 cmp	 eax, 4096		; 00001000H
  0000b	72 09		 jb	 SHORT $LN2@Allocate

; 201  :         return _Allocate_manually_vector_aligned<_Traits>(_Bytes);

  0000d	89 45 08	 mov	 DWORD PTR __Bytes$[ebp], eax

; 210  : }

  00010	5d		 pop	 ebp

; 201  :         return _Allocate_manually_vector_aligned<_Traits>(_Bytes);

  00011	e9 00 00 00 00	 jmp	 ??$_Allocate_manually_vector_aligned@U_Default_allocate_traits@std@@@std@@YAPAXI@Z ; std::_Allocate_manually_vector_aligned<std::_Default_allocate_traits>
$LN2@Allocate:

; 202  :     }
; 203  : #endif // defined(_M_IX86) || defined(_M_X64)
; 204  : 
; 205  :     if (_Bytes != 0) {

  00016	85 c0		 test	 eax, eax
  00018	74 09		 je	 SHORT $LN3@Allocate

; 77   :         return ::operator new(_Bytes);

  0001a	89 45 08	 mov	 DWORD PTR __Bytes$[ebp], eax

; 210  : }

  0001d	5d		 pop	 ebp

; 77   :         return ::operator new(_Bytes);

  0001e	e9 00 00 00 00	 jmp	 ??2@YAPAXI@Z		; operator new
$LN3@Allocate:

; 206  :         return _Traits::_Allocate(_Bytes);
; 207  :     }
; 208  : 
; 209  :     return nullptr;

  00023	33 c0		 xor	 eax, eax

; 210  : }

  00025	5d		 pop	 ebp
  00026	c3		 ret	 0
??$_Allocate@$07U_Default_allocate_traits@std@@$0A@@std@@YAPAXI@Z ENDP ; std::_Allocate<8,std::_Default_allocate_traits,0>
_TEXT	ENDS
; Function compile flags: /Ogtp
; File C:\Program Files (x86)\Microsoft Visual Studio\2019\Community\VC\Tools\MSVC\14.28.29333\include\xmemory
;	COMDAT ??$_Deallocate@$07$0A@@std@@YAXPAXI@Z
_TEXT	SEGMENT
__Ptr$ = 8						; size = 4
__Bytes$ = 12						; size = 4
??$_Deallocate@$07$0A@@std@@YAXPAXI@Z PROC		; std::_Deallocate<8,0>, COMDAT

; 213  : void _Deallocate(void* _Ptr, size_t _Bytes) noexcept {

  00000	55		 push	 ebp
  00001	8b ec		 mov	 ebp, esp

; 214  :     // deallocate storage allocated by _Allocate when !_HAS_ALIGNED_NEW || _Align <= __STDCPP_DEFAULT_NEW_ALIGNMENT__
; 215  : #if defined(_M_IX86) || defined(_M_X64)
; 216  :     if (_Bytes >= _Big_allocation_threshold) { // boost the alignment of big allocations to help autovectorization

  00003	8b 4d 0c	 mov	 ecx, DWORD PTR __Bytes$[ebp]
  00006	81 f9 00 10 00
	00		 cmp	 ecx, 4096		; 00001000H
  0000c	72 18		 jb	 SHORT $LN15@Deallocate

; 137  :     const uintptr_t _Ptr_container   = _Ptr_user[-1];

  0000e	8b 45 08	 mov	 eax, DWORD PTR __Ptr$[ebp]
  00011	83 c1 23	 add	 ecx, 35			; 00000023H
  00014	8b 50 fc	 mov	 edx, DWORD PTR [eax-4]

; 138  : 
; 139  :     // If the following asserts, it likely means that we are performing
; 140  :     // an aligned delete on memory coming from an unaligned allocation.
; 141  :     _STL_ASSERT(_Ptr_user[-2] == _Big_allocation_sentinel, "invalid argument");
; 142  : 
; 143  :     // Extra paranoia on aligned allocation/deallocation; ensure _Ptr_container is
; 144  :     // in range [_Min_back_shift, _Non_user_size]
; 145  : #ifdef _DEBUG
; 146  :     constexpr uintptr_t _Min_back_shift = 2 * sizeof(void*);
; 147  : #else // ^^^ _DEBUG ^^^ // vvv !_DEBUG vvv
; 148  :     constexpr uintptr_t _Min_back_shift = sizeof(void*);
; 149  : #endif // _DEBUG
; 150  :     const uintptr_t _Back_shift = reinterpret_cast<uintptr_t>(_Ptr) - _Ptr_container;

  00017	2b c2		 sub	 eax, edx

; 151  :     _STL_VERIFY(_Back_shift >= _Min_back_shift && _Back_shift <= _Non_user_size, "invalid argument");

  00019	83 c0 fc	 add	 eax, -4			; fffffffcH
  0001c	83 f8 1f	 cmp	 eax, 31			; 0000001fH
  0001f	76 08		 jbe	 SHORT $LN13@Deallocate
  00021	e9 00 00 00 00	 jmp	 __invalid_parameter_noinfo_noreturn
$LN15@Deallocate:

; 214  :     // deallocate storage allocated by _Allocate when !_HAS_ALIGNED_NEW || _Align <= __STDCPP_DEFAULT_NEW_ALIGNMENT__
; 215  : #if defined(_M_IX86) || defined(_M_X64)
; 216  :     if (_Bytes >= _Big_allocation_threshold) { // boost the alignment of big allocations to help autovectorization

  00026	8b 55 08	 mov	 edx, DWORD PTR __Ptr$[ebp]
$LN13@Deallocate:

; 217  :         _Adjust_manually_vector_aligned(_Ptr, _Bytes);
; 218  :     }
; 219  : #endif // defined(_M_IX86) || defined(_M_X64)
; 220  : 
; 221  :     ::operator delete(_Ptr, _Bytes);

  00029	89 4d 0c	 mov	 DWORD PTR __Bytes$[ebp], ecx
  0002c	89 55 08	 mov	 DWORD PTR __Ptr$[ebp], edx

; 222  : }

  0002f	5d		 pop	 ebp

; 217  :         _Adjust_manually_vector_aligned(_Ptr, _Bytes);
; 218  :     }
; 219  : #endif // defined(_M_IX86) || defined(_M_X64)
; 220  : 
; 221  :     ::operator delete(_Ptr, _Bytes);

  00030	e9 00 00 00 00	 jmp	 ??3@YAXPAXI@Z		; operator delete
??$_Deallocate@$07$0A@@std@@YAXPAXI@Z ENDP		; std::_Deallocate<8,0>
_TEXT	ENDS
; Function compile flags: /Ogtp
; File C:\Program Files (x86)\Microsoft Visual Studio\2019\Community\VC\Tools\MSVC\14.28.29333\include\xmemory
;	COMDAT ??$_Construct_in_place@PADABQAD@std@@YAXAAPADABQAD@Z
_TEXT	SEGMENT
__Obj$ = 8						; size = 4
_<_Args_0>$ = 12					; size = 4
??$_Construct_in_place@PADABQAD@std@@YAXAAPADABQAD@Z PROC ; std::_Construct_in_place<char *,char * const &>, COMDAT

; 228  : void _Construct_in_place(_Ty& _Obj, _Types&&... _Args) noexcept(is_nothrow_constructible_v<_Ty, _Types...>) {

  00000	55		 push	 ebp
  00001	8b ec		 mov	 ebp, esp

; 229  :     ::new (const_cast<void*>(static_cast<const volatile void*>(_STD addressof(_Obj))))

  00003	8b 45 0c	 mov	 eax, DWORD PTR _<_Args_0>$[ebp]
  00006	8b 08		 mov	 ecx, DWORD PTR [eax]
  00008	8b 45 08	 mov	 eax, DWORD PTR __Obj$[ebp]
  0000b	89 08		 mov	 DWORD PTR [eax], ecx

; 230  :         _Ty(_STD forward<_Types>(_Args)...);
; 231  : }

  0000d	5d		 pop	 ebp
  0000e	c3		 ret	 0
??$_Construct_in_place@PADABQAD@std@@YAXAAPADABQAD@Z ENDP ; std::_Construct_in_place<char *,char * const &>
_TEXT	ENDS
; Function compile flags: /Ogtp
; File C:\Program Files (x86)\Microsoft Visual Studio\2019\Community\VC\Tools\MSVC\14.28.29333\include\xmemory
;	COMDAT ??$_Destroy_in_place@PAD@std@@YAXAAPAD@Z
_TEXT	SEGMENT
__Obj$ = 8						; size = 4
??$_Destroy_in_place@PAD@std@@YAXAAPAD@Z PROC		; std::_Destroy_in_place<char *>, COMDAT

; 271  : #if _HAS_IF_CONSTEXPR
; 272  :     if constexpr (is_array_v<_Ty>) {
; 273  :         _Destroy_range(_Obj, _Obj + extent_v<_Ty>);
; 274  :     } else
; 275  : #endif // _HAS_IF_CONSTEXPR
; 276  :     {
; 277  :         _Obj.~_Ty();
; 278  :     }
; 279  : }

  00000	c2 00 00	 ret	 0
??$_Destroy_in_place@PAD@std@@YAXAAPAD@Z ENDP		; std::_Destroy_in_place<char *>
_TEXT	ENDS
; Function compile flags: /Ogtp
; File D:\Metin2 Server Files\mainline\SRC_2014\Metin2Client\UserInterface\PythonNetworkStreamModule.cpp
;	COMDAT ?initnet@@YAXXZ
_TEXT	SEGMENT
?initnet@@YAXXZ PROC					; initnet, COMDAT

; 1712 : {

  00000	56		 push	 esi
  00001	57		 push	 edi

; 1713 : 	static PyMethodDef s_methods[] =
; 1714 : 	{
; 1715 : 		{ "GetBettingGuildWarValue",			netGetBettingGuildWarValue,				METH_VARARGS },
; 1716 : 		{ "EnableChatInsultFilter",				netEnableChatInsultFilter,				METH_VARARGS },
; 1717 : 		{ "SetServerInfo",						netSetServerInfo,						METH_VARARGS },
; 1718 : 		{ "GetServerInfo",						netGetServerInfo,						METH_VARARGS },
; 1719 : 		{ "PreserveServerCommand",				netPreserveServerCommand,				METH_VARARGS },
; 1720 : 		{ "GetPreservedServerCommand",			netGetPreservedServerCommand,			METH_VARARGS },
; 1721 : 
; 1722 : 		{ "StartGame",							netStartGame,							METH_VARARGS },
; 1723 : 		{ "Warp",								netWarp,								METH_VARARGS },
; 1724 : 		{ "IsTest",								netIsTest,								METH_VARARGS },
; 1725 : 		{ "SetMarkServer",						netSetMarkServer,						METH_VARARGS },
; 1726 : 		{ "IsChatInsultIn",						netIsChatInsultIn,						METH_VARARGS },
; 1727 : 		{ "IsInsultIn",							netIsInsultIn,							METH_VARARGS },
; 1728 : 		{ "LoadInsultList",						netLoadInsultList,						METH_VARARGS },
; 1729 : 		{ "UploadMark",							netUploadMark,							METH_VARARGS },
; 1730 : 		{ "UploadSymbol",						netUploadSymbol,						METH_VARARGS },
; 1731 : 		{ "GetGuildID",							netGetGuildID,							METH_VARARGS },
; 1732 : 		{ "GetEmpireID",						netGetEmpireID,							METH_VARARGS },
; 1733 : 		{ "GetMainActorVID",					netGetMainActorVID,						METH_VARARGS },
; 1734 : 		{ "GetMainActorRace",					netGetMainActorRace,					METH_VARARGS },
; 1735 : 		{ "GetMainActorEmpire",					netGetMainActorEmpire,					METH_VARARGS },
; 1736 : 		{ "GetMainActorSkillGroup",				netGetMainActorSkillGroup,				METH_VARARGS },
; 1737 : 		{ "GetAccountCharacterSlotDataInteger",	netGetAccountCharacterSlotDataInteger,	METH_VARARGS },
; 1738 : 		{ "GetAccountCharacterSlotDataString",	netGetAccountCharacterSlotDataString,	METH_VARARGS },
; 1739 : 
; 1740 : 		// FIELD_MUSIC
; 1741 : 		{ "GetFieldMusicFileName",				netGetFieldMusicFileName,				METH_VARARGS },
; 1742 : 		{ "GetFieldMusicVolume",				netGetFieldMusicVolume,					METH_VARARGS },
; 1743 : 		// END_OF_FIELD_MUSIC
; 1744 : 
; 1745 : 		{ "ToggleGameDebugInfo",				netToggleGameDebugInfo,					METH_VARARGS },
; 1746 : 		{ "SetLoginInfo",						netSetLoginInfo,						METH_VARARGS },
; 1747 : 		{ "SetPhaseWindow",						netSetPhaseWindow,						METH_VARARGS },
; 1748 : 		{ "ClearPhaseWindow",					netClearPhaseWindow,					METH_VARARGS },
; 1749 : 		{ "SetServerCommandParserWindow",		netSetServerCommandParserWindow,		METH_VARARGS },
; 1750 : 		{ "SetAccountConnectorHandler",			netSetAccountConnectorHandler,			METH_VARARGS },
; 1751 : 		{ "SetHandler",							netSetHandler,							METH_VARARGS },
; 1752 : 		{ "SetTCPRecvBufferSize",				netSetTCPRecvBufferSize,				METH_VARARGS },
; 1753 : 		{ "SetTCPSendBufferSize",				netSetTCPSendBufferSize,				METH_VARARGS },
; 1754 : 		{ "SetUDPRecvBufferSize",				netSetUDPRecvBufferSize,				METH_VARARGS },
; 1755 : 		{ "DirectEnter",						netDirectEnter,							METH_VARARGS },
; 1756 : 
; 1757 : 		{ "LogOutGame",							netLogOutGame,							METH_VARARGS },
; 1758 : 		{ "ExitGame",							netExitGame,							METH_VARARGS },
; 1759 : 		{ "ExitApplication",					netExitApplication,						METH_VARARGS },
; 1760 : 		{ "ConnectTCP",							netConnectTCP,							METH_VARARGS },
; 1761 : 		{ "ConnectUDP",							netConnectUDP,							METH_VARARGS },
; 1762 : 		{ "ConnectToAccountServer",				netConnectToAccountServer,				METH_VARARGS },
; 1763 : 
; 1764 : 		{ "SendLoginPacket",					netSendLoginPacket,						METH_VARARGS },
; 1765 : 		{ "SendChinaMatrixCardPacket",			netSendChinaMatrixCardPacket,			METH_VARARGS },
; 1766 : 		{ "SendRunupMatrixCardPacket",			netSendRunupMatrixCardPacket,			METH_VARARGS },
; 1767 : 		{ "SendNEWCIBNPasspodAnswerPacket",		netSendNEWCIBNPasspodAnswerPacket,		METH_VARARGS },
; 1768 : 		{ "SendSelectEmpirePacket",				netSendSelectEmpirePacket,				METH_VARARGS },
; 1769 : 		{ "SendSelectCharacterPacket",			netSendSelectCharacterPacket,			METH_VARARGS },
; 1770 : 		{ "SendChangeNamePacket",				netSendChangeNamePacket,				METH_VARARGS },
; 1771 : 		{ "SendCreateCharacterPacket",			netSendCreateCharacterPacket,			METH_VARARGS },
; 1772 : 		{ "SendDestroyCharacterPacket",			netSendDestroyCharacterPacket,			METH_VARARGS },
; 1773 : 		{ "SendEnterGamePacket",				netSendEnterGamePacket,					METH_VARARGS },
; 1774 : 
; 1775 : 		{ "SendItemUsePacket",					netSendItemUsePacket,					METH_VARARGS },
; 1776 : 		{ "SendItemUseToItemPacket",			netSendItemUseToItemPacket,				METH_VARARGS },
; 1777 : 		{ "SendItemDropPacket",					netSendItemDropPacket,					METH_VARARGS },
; 1778 : 		{ "SendItemDropPacketNew",				netSendItemDropPacketNew,				METH_VARARGS },
; 1779 : 		{ "SendElkDropPacket",					netSendElkDropPacket,					METH_VARARGS },
; 1780 : 		{ "SendGoldDropPacketNew",				netSendGoldDropPacketNew,				METH_VARARGS },
; 1781 : 		{ "SendItemMovePacket",					netSendItemMovePacket,					METH_VARARGS },
; 1782 : 		{ "SendItemPickUpPacket",				netSendItemPickUpPacket,				METH_VARARGS },
; 1783 : 		{ "SendGiveItemPacket",					netSendGiveItemPacket,					METH_VARARGS },
; 1784 : 
; 1785 : 		{ "SetOfflinePhase",					netSetOfflinePhase,						METH_VARARGS },
; 1786 : 		{ "Disconnect",							netDisconnect,							METH_VARARGS },
; 1787 : 		{ "IsConnect",							netIsConnect,							METH_VARARGS },
; 1788 : 
; 1789 : 		{ "SendChatPacket",						netSendChatPacket,						METH_VARARGS },
; 1790 : 		{ "SendEmoticon",						netSendEmoticon,						METH_VARARGS },
; 1791 : 		{ "SendWhisperPacket",					netSendWhisperPacket,					METH_VARARGS },
; 1792 : 		{ "SendMobileMessagePacket",			netSendMobileMessagePacket,				METH_VARARGS },
; 1793 : 
; 1794 : 		{ "SendCharacterPositionPacket",		netSendCharacterPositionPacket,			METH_VARARGS },
; 1795 : 
; 1796 : 		{ "SendShopEndPacket",					netSendShopEndPacket,					METH_VARARGS },
; 1797 : 		{ "SendShopBuyPacket",					netSendShopBuyPacket,					METH_VARARGS },
; 1798 : 		{ "SendShopSellPacket",					netSendShopSellPacket,					METH_VARARGS },
; 1799 : 		{ "SendShopSellPacketNew",				netSendShopSellPacketNew,				METH_VARARGS },
; 1800 : 
; 1801 : 		{ "SendExchangeStartPacket",			netSendExchangeStartPacket,				METH_VARARGS },
; 1802 : 		{ "SendExchangeItemAddPacket",			netSendExchangeItemAddPacket,			METH_VARARGS },
; 1803 : 		{ "SendExchangeItemDelPacket",			netSendExchangeItemDelPacket,			METH_VARARGS },
; 1804 : 		{ "SendExchangeElkAddPacket",			netSendExchangeElkAddPacket,			METH_VARARGS },
; 1805 : 		{ "SendExchangeAcceptPacket",			netSendExchangeAcceptPacket,			METH_VARARGS },
; 1806 : 		{ "SendExchangeExitPacket",				netSendExchangeExitPacket,				METH_VARARGS },
; 1807 : 
; 1808 : 		{ "SendOnClickPacket",					netOnClickPacket,						METH_VARARGS },
; 1809 : 		
; 1810 : 		// Emoticon String
; 1811 : 		{ "RegisterEmoticonString",				netRegisterEmoticonString,				METH_VARARGS },
; 1812 : 
; 1813 : 		// Messenger
; 1814 : 		{ "SendMessengerAddByVIDPacket",		netSendMessengerAddByVIDPacket,			METH_VARARGS },
; 1815 : 		{ "SendMessengerAddByNamePacket",		netSendMessengerAddByNamePacket,		METH_VARARGS },
; 1816 : 		{ "SendMessengerRemovePacket",			netSendMessengerRemovePacket,			METH_VARARGS },
; 1817 : 
; 1818 : 		// Party
; 1819 : 		{ "SendPartyInvitePacket",				netSendPartyInvitePacket,				METH_VARARGS },
; 1820 : 		{ "SendPartyInviteAnswerPacket",		netSendPartyInviteAnswerPacket,			METH_VARARGS },
; 1821 : 		{ "SendPartyExitPacket",				netSendPartyExitPacket,					METH_VARARGS },
; 1822 : 		{ "SendPartyRemovePacket",				netSendPartyRemovePacket,				METH_VARARGS },
; 1823 : 		{ "SendPartySetStatePacket",			netSendPartySetStatePacket,				METH_VARARGS },
; 1824 : 		{ "SendPartyUseSkillPacket",			netSendPartyUseSkillPacket,				METH_VARARGS },
; 1825 : 		{ "SendPartyParameterPacket",			netSendPartyParameterPacket,			METH_VARARGS },
; 1826 : 
; 1827 : 		// Safebox
; 1828 : 		{ "SendSafeboxSaveMoneyPacket",			netSendSafeboxSaveMoneyPacket,			METH_VARARGS },
; 1829 : 		{ "SendSafeboxWithdrawMoneyPacket",		netSendSafeboxWithdrawMoneyPacket,		METH_VARARGS },
; 1830 : 		{ "SendSafeboxCheckinPacket",			netSendSafeboxCheckinPacket,			METH_VARARGS },
; 1831 : 		{ "SendSafeboxCheckoutPacket",			netSendSafeboxCheckoutPacket,			METH_VARARGS },
; 1832 : 		{ "SendSafeboxItemMovePacket",			netSendSafeboxItemMovePacket,			METH_VARARGS },
; 1833 : 
; 1834 : 		// Mall
; 1835 : 		{ "SendMallCheckoutPacket",				netSendMallCheckoutPacket,				METH_VARARGS },
; 1836 : 
; 1837 : 		// Guild
; 1838 : 		{ "SendAnswerMakeGuildPacket",				netSendAnswerMakeGuildPacket,				METH_VARARGS },
; 1839 : 		{ "SendQuestInputStringPacket",				netSendQuestInputStringPacket,				METH_VARARGS },
; 1840 : 		{ "SendQuestConfirmPacket",					netSendQuestConfirmPacket,					METH_VARARGS },
; 1841 : 		{ "SendGuildAddMemberPacket",				netSendGuildAddMemberPacket,				METH_VARARGS },
; 1842 : 		{ "SendGuildRemoveMemberPacket",			netSendGuildRemoveMemberPacket,				METH_VARARGS },
; 1843 : 		{ "SendGuildChangeGradeNamePacket",			netSendGuildChangeGradeNamePacket,			METH_VARARGS },
; 1844 : 		{ "SendGuildChangeGradeAuthorityPacket",	netSendGuildChangeGradeAuthorityPacket,		METH_VARARGS },
; 1845 : 		{ "SendGuildOfferPacket",					netSendGuildOfferPacket,					METH_VARARGS },
; 1846 : 		{ "SendGuildPostCommentPacket",				netSnedGuildPostCommentPacket,				METH_VARARGS },
; 1847 : 		{ "SendGuildDeleteCommentPacket",			netSnedGuildDeleteCommentPacket,			METH_VARARGS },
; 1848 : 		{ "SendGuildRefreshCommentsPacket",			netSendGuildRefreshCommentsPacket,			METH_VARARGS },
; 1849 : 		{ "SendGuildChangeMemberGradePacket",		netSendGuildChangeMemberGradePacket,		METH_VARARGS },
; 1850 : 		{ "SendGuildUseSkillPacket",				netSendGuildUseSkillPacket,					METH_VARARGS },
; 1851 : 		{ "SendGuildChangeMemberGeneralPacket",		netSendGuildChangeMemberGeneralPacket,		METH_VARARGS },
; 1852 : 		{ "SendGuildInviteAnswerPacket",			netSendGuildInviteAnswerPacket,				METH_VARARGS },
; 1853 : 		{ "SendGuildChargeGSPPacket",				netSendGuildChargeGSPPacket,				METH_VARARGS },
; 1854 : 		{ "SendGuildDepositMoneyPacket",			netSendGuildDepositMoneyPacket,				METH_VARARGS },
; 1855 : 		{ "SendGuildWithdrawMoneyPacket",			netSendGuildWithdrawMoneyPacket,			METH_VARARGS },
; 1856 : 
; 1857 : 		// Refine
; 1858 : 		{ "SendRequestRefineInfoPacket",			netSendRequestRefineInfoPacket,				METH_VARARGS },
; 1859 : 		{ "SendRefinePacket",						netSendRefinePacket,						METH_VARARGS },
; 1860 : 		{ "SendSelectItemPacket",					netSendSelectItemPacket,					METH_VARARGS },
; 1861 : 
; 1862 : 		// SYSTEM
; 1863 : 		{ "SetPacketSequenceMode",					netSetPacketSequenceMode,					METH_VARARGS },
; 1864 : 		{ "SetEmpireLanguageMode",					netSetEmpireLanguageMode,					METH_VARARGS },
; 1865 : 
; 1866 : 		// For Test
; 1867 : 		{ "SetSkillGroupFake",						netSetSkillGroupFake,						METH_VARARGS },
; 1868 : 
; 1869 : 		// Guild Symbol
; 1870 : 		{ "SendGuildSymbol",						netSendGuildSymbol,							METH_VARARGS },
; 1871 : 		{ "DisconnectUploader",						netDisconnectUploader,						METH_VARARGS },
; 1872 : 		{ "RecvGuildSymbol",						netRecvGuildSymbol,							METH_VARARGS },
; 1873 : 
; 1874 : 		// Log
; 1875 : 		{ "RegisterErrorLog",						netRegisterErrorLog,						METH_VARARGS },
; 1876 : 
; 1877 : 		{ NULL,										NULL,										NULL },
; 1878 : 	};
; 1879 : 
; 1880 : 	PyObject* poModule = Py_InitModule("net", s_methods);

  00002	68 f5 03 00 00	 push	 1013			; 000003f5H
  00007	6a 00		 push	 0
  00009	6a 00		 push	 0
  0000b	68 00 00 00 00	 push	 OFFSET ?s_methods@?1??initnet@@YAXXZ@4PAUPyMethodDef@@A
  00010	68 00 00 00 00	 push	 OFFSET ??_C@_03NBFOK@net@
  00015	ff 15 00 00 00
	00		 call	 DWORD PTR __imp__Py_InitModule4

; 1881 : 
; 1882 : 	PyModule_AddIntConstant(poModule, "ERROR_NONE", CPythonNetworkStream::ERROR_NONE);

  0001b	8b 35 00 00 00
	00		 mov	 esi, DWORD PTR __imp__PyModule_AddIntConstant
  00021	8b f8		 mov	 edi, eax
  00023	6a 00		 push	 0
  00025	68 00 00 00 00	 push	 OFFSET ??_C@_0L@LILDODAP@ERROR_NONE@
  0002a	57		 push	 edi
  0002b	ff d6		 call	 esi

; 1883 : 	PyModule_AddIntConstant(poModule, "ERROR_CONNECT_MARK_SERVER", CPythonNetworkStream::ERROR_CONNECT_MARK_SERVER);

  0002d	6a 02		 push	 2
  0002f	68 00 00 00 00	 push	 OFFSET ??_C@_0BK@BILAANNF@ERROR_CONNECT_MARK_SERVER@
  00034	57		 push	 edi
  00035	ff d6		 call	 esi

; 1884 : 	PyModule_AddIntConstant(poModule, "ERROR_LOAD_MARK", CPythonNetworkStream::ERROR_LOAD_MARK);

  00037	6a 03		 push	 3
  00039	68 00 00 00 00	 push	 OFFSET ??_C@_0BA@NEJKKBEJ@ERROR_LOAD_MARK@
  0003e	57		 push	 edi
  0003f	ff d6		 call	 esi

; 1885 : 	PyModule_AddIntConstant(poModule, "ERROR_MARK_WIDTH", CPythonNetworkStream::ERROR_MARK_WIDTH);

  00041	6a 04		 push	 4
  00043	68 00 00 00 00	 push	 OFFSET ??_C@_0BB@FEGLKDMB@ERROR_MARK_WIDTH@
  00048	57		 push	 edi
  00049	ff d6		 call	 esi
  0004b	83 c4 44	 add	 esp, 68			; 00000044H

; 1886 : 	PyModule_AddIntConstant(poModule, "ERROR_MARK_HEIGHT", CPythonNetworkStream::ERROR_MARK_HEIGHT);

  0004e	6a 05		 push	 5
  00050	68 00 00 00 00	 push	 OFFSET ??_C@_0BC@GOIIBBEJ@ERROR_MARK_HEIGHT@
  00055	57		 push	 edi
  00056	ff d6		 call	 esi

; 1887 : 
; 1888 : 	// MARK_BUG_FIX
; 1889 : 	PyModule_AddIntConstant(poModule, "ERROR_MARK_UPLOAD_NEED_RECONNECT", CPythonNetworkStream::ERROR_MARK_UPLOAD_NEED_RECONNECT);	

  00058	6a 06		 push	 6
  0005a	68 00 00 00 00	 push	 OFFSET ??_C@_0CB@BOPIDGGI@ERROR_MARK_UPLOAD_NEED_RECONNEC@
  0005f	57		 push	 edi
  00060	ff d6		 call	 esi

; 1890 : 	PyModule_AddIntConstant(poModule, "ERROR_MARK_CHECK_NEED_RECONNECT", CPythonNetworkStream::ERROR_MARK_CHECK_NEED_RECONNECT);	

  00062	6a 07		 push	 7
  00064	68 00 00 00 00	 push	 OFFSET ??_C@_0CA@JMHMMKLO@ERROR_MARK_CHECK_NEED_RECONNECT@
  00069	57		 push	 edi
  0006a	ff d6		 call	 esi

; 1891 : 	// END_OF_MARK_BUG_FIX
; 1892 : 
; 1893 : 	PyModule_AddIntConstant(poModule, "PHASE_WINDOW_LOGIN", CPythonNetworkStream::PHASE_WINDOW_LOGIN);

  0006c	6a 01		 push	 1
  0006e	68 00 00 00 00	 push	 OFFSET ??_C@_0BD@JBLBGAIB@PHASE_WINDOW_LOGIN@
  00073	57		 push	 edi
  00074	ff d6		 call	 esi

; 1894 : 	PyModule_AddIntConstant(poModule, "PHASE_WINDOW_SELECT", CPythonNetworkStream::PHASE_WINDOW_SELECT);

  00076	6a 02		 push	 2
  00078	68 00 00 00 00	 push	 OFFSET ??_C@_0BE@EBCKEIDN@PHASE_WINDOW_SELECT@
  0007d	57		 push	 edi
  0007e	ff d6		 call	 esi

; 1895 : 	PyModule_AddIntConstant(poModule, "PHASE_WINDOW_CREATE", CPythonNetworkStream::PHASE_WINDOW_CREATE);

  00080	6a 03		 push	 3
  00082	68 00 00 00 00	 push	 OFFSET ??_C@_0BE@PAOFIFBD@PHASE_WINDOW_CREATE@
  00087	57		 push	 edi
  00088	ff d6		 call	 esi
  0008a	83 c4 48	 add	 esp, 72			; 00000048H

; 1896 : 	PyModule_AddIntConstant(poModule, "PHASE_WINDOW_LOAD", CPythonNetworkStream::PHASE_WINDOW_LOAD);

  0008d	6a 04		 push	 4
  0008f	68 00 00 00 00	 push	 OFFSET ??_C@_0BC@PFELHICG@PHASE_WINDOW_LOAD@
  00094	57		 push	 edi
  00095	ff d6		 call	 esi

; 1897 : 	PyModule_AddIntConstant(poModule, "PHASE_WINDOW_GAME", CPythonNetworkStream::PHASE_WINDOW_GAME);

  00097	6a 05		 push	 5
  00099	68 00 00 00 00	 push	 OFFSET ??_C@_0BC@HCEFPGCB@PHASE_WINDOW_GAME@
  0009e	57		 push	 edi
  0009f	ff d6		 call	 esi

; 1898 : 	PyModule_AddIntConstant(poModule, "PHASE_WINDOW_EMPIRE", CPythonNetworkStream::PHASE_WINDOW_EMPIRE);

  000a1	6a 06		 push	 6
  000a3	68 00 00 00 00	 push	 OFFSET ??_C@_0BE@IIMEMMI@PHASE_WINDOW_EMPIRE@
  000a8	57		 push	 edi
  000a9	ff d6		 call	 esi

; 1899 : 	PyModule_AddIntConstant(poModule, "PHASE_WINDOW_LOGO", CPythonNetworkStream::PHASE_WINDOW_LOGO);

  000ab	6a 00		 push	 0
  000ad	68 00 00 00 00	 push	 OFFSET ??_C@_0BC@BCDCNNFP@PHASE_WINDOW_LOGO@
  000b2	57		 push	 edi
  000b3	ff d6		 call	 esi

; 1900 : 
; 1901 : 	PyModule_AddIntConstant(poModule, "ACCOUNT_CHARACTER_SLOT_ID", CPythonNetworkStream::ACCOUNT_CHARACTER_SLOT_ID);

  000b5	6a 00		 push	 0
  000b7	68 00 00 00 00	 push	 OFFSET ??_C@_0BK@HDGGAJBJ@ACCOUNT_CHARACTER_SLOT_ID@
  000bc	57		 push	 edi
  000bd	ff d6		 call	 esi

; 1902 : 	PyModule_AddIntConstant(poModule, "ACCOUNT_CHARACTER_SLOT_NAME", CPythonNetworkStream::ACCOUNT_CHARACTER_SLOT_NAME);

  000bf	6a 01		 push	 1
  000c1	68 00 00 00 00	 push	 OFFSET ??_C@_0BM@JCGOOLCL@ACCOUNT_CHARACTER_SLOT_NAME@
  000c6	57		 push	 edi
  000c7	ff d6		 call	 esi
  000c9	83 c4 48	 add	 esp, 72			; 00000048H

; 1903 : 	PyModule_AddIntConstant(poModule, "ACCOUNT_CHARACTER_SLOT_RACE", CPythonNetworkStream::ACCOUNT_CHARACTER_SLOT_RACE);

  000cc	6a 02		 push	 2
  000ce	68 00 00 00 00	 push	 OFFSET ??_C@_0BM@DNOALMKC@ACCOUNT_CHARACTER_SLOT_RACE@
  000d3	57		 push	 edi
  000d4	ff d6		 call	 esi

; 1904 : 	PyModule_AddIntConstant(poModule, "ACCOUNT_CHARACTER_SLOT_LEVEL", CPythonNetworkStream::ACCOUNT_CHARACTER_SLOT_LEVEL);

  000d6	6a 03		 push	 3
  000d8	68 00 00 00 00	 push	 OFFSET ??_C@_0BN@MPLCEAPH@ACCOUNT_CHARACTER_SLOT_LEVEL@
  000dd	57		 push	 edi
  000de	ff d6		 call	 esi

; 1905 : 	PyModule_AddIntConstant(poModule, "ACCOUNT_CHARACTER_SLOT_STR", CPythonNetworkStream::ACCOUNT_CHARACTER_SLOT_STR);

  000e0	6a 04		 push	 4
  000e2	68 00 00 00 00	 push	 OFFSET ??_C@_0BL@MPBHOFJE@ACCOUNT_CHARACTER_SLOT_STR@
  000e7	57		 push	 edi
  000e8	ff d6		 call	 esi

; 1906 : 	PyModule_AddIntConstant(poModule, "ACCOUNT_CHARACTER_SLOT_DEX", CPythonNetworkStream::ACCOUNT_CHARACTER_SLOT_DEX);

  000ea	6a 05		 push	 5
  000ec	68 00 00 00 00	 push	 OFFSET ??_C@_0BL@OFNCKLHP@ACCOUNT_CHARACTER_SLOT_DEX@
  000f1	57		 push	 edi
  000f2	ff d6		 call	 esi

; 1907 : 	PyModule_AddIntConstant(poModule, "ACCOUNT_CHARACTER_SLOT_INT", CPythonNetworkStream::ACCOUNT_CHARACTER_SLOT_INT);

  000f4	6a 07		 push	 7
  000f6	68 00 00 00 00	 push	 OFFSET ??_C@_0BL@LHFINDEP@ACCOUNT_CHARACTER_SLOT_INT@
  000fb	57		 push	 edi
  000fc	ff d6		 call	 esi

; 1908 : 	PyModule_AddIntConstant(poModule, "ACCOUNT_CHARACTER_SLOT_HTH", CPythonNetworkStream::ACCOUNT_CHARACTER_SLOT_HTH);

  000fe	6a 06		 push	 6
  00100	68 00 00 00 00	 push	 OFFSET ??_C@_0BL@PICCMPNB@ACCOUNT_CHARACTER_SLOT_HTH@
  00105	57		 push	 edi
  00106	ff d6		 call	 esi
  00108	83 c4 48	 add	 esp, 72			; 00000048H

; 1909 : 	PyModule_AddIntConstant(poModule, "ACCOUNT_CHARACTER_SLOT_PLAYTIME", CPythonNetworkStream::ACCOUNT_CHARACTER_SLOT_PLAYTIME);

  0010b	6a 08		 push	 8
  0010d	68 00 00 00 00	 push	 OFFSET ??_C@_0CA@KFILFMPG@ACCOUNT_CHARACTER_SLOT_PLAYTIME@
  00112	57		 push	 edi
  00113	ff d6		 call	 esi

; 1910 : 	PyModule_AddIntConstant(poModule, "ACCOUNT_CHARACTER_SLOT_FORM", CPythonNetworkStream::ACCOUNT_CHARACTER_SLOT_FORM);

  00115	6a 09		 push	 9
  00117	68 00 00 00 00	 push	 OFFSET ??_C@_0BM@JNGCLJJM@ACCOUNT_CHARACTER_SLOT_FORM@
  0011c	57		 push	 edi
  0011d	ff d6		 call	 esi

; 1911 : 	PyModule_AddIntConstant(poModule, "ACCOUNT_CHARACTER_SLOT_ADDR", CPythonNetworkStream::ACCOUNT_CHARACTER_SLOT_ADDR);

  0011f	6a 0a		 push	 10			; 0000000aH
  00121	68 00 00 00 00	 push	 OFFSET ??_C@_0BM@CNLCDDNB@ACCOUNT_CHARACTER_SLOT_ADDR@
  00126	57		 push	 edi
  00127	ff d6		 call	 esi

; 1912 : 	PyModule_AddIntConstant(poModule, "ACCOUNT_CHARACTER_SLOT_PORT", CPythonNetworkStream::ACCOUNT_CHARACTER_SLOT_PORT);

  00129	6a 0b		 push	 11			; 0000000bH
  0012b	68 00 00 00 00	 push	 OFFSET ??_C@_0BM@OJMCHCKG@ACCOUNT_CHARACTER_SLOT_PORT@
  00130	57		 push	 edi
  00131	ff d6		 call	 esi

; 1913 : 	PyModule_AddIntConstant(poModule, "ACCOUNT_CHARACTER_SLOT_GUILD_ID", CPythonNetworkStream::ACCOUNT_CHARACTER_SLOT_GUILD_ID);

  00133	6a 0c		 push	 12			; 0000000cH
  00135	68 00 00 00 00	 push	 OFFSET ??_C@_0CA@GFKKICFN@ACCOUNT_CHARACTER_SLOT_GUILD_ID@
  0013a	57		 push	 edi
  0013b	ff d6		 call	 esi

; 1914 : 	PyModule_AddIntConstant(poModule, "ACCOUNT_CHARACTER_SLOT_GUILD_NAME", CPythonNetworkStream::ACCOUNT_CHARACTER_SLOT_GUILD_NAME);

  0013d	6a 0d		 push	 13			; 0000000dH
  0013f	68 00 00 00 00	 push	 OFFSET ??_C@_0CC@HMBBCNEO@ACCOUNT_CHARACTER_SLOT_GUILD_NA@
  00144	57		 push	 edi
  00145	ff d6		 call	 esi
  00147	83 c4 48	 add	 esp, 72			; 00000048H

; 1915 : 	PyModule_AddIntConstant(poModule, "ACCOUNT_CHARACTER_SLOT_CHANGE_NAME_FLAG", CPythonNetworkStream::ACCOUNT_CHARACTER_SLOT_CHANGE_NAME_FLAG);

  0014a	6a 0e		 push	 14			; 0000000eH
  0014c	68 00 00 00 00	 push	 OFFSET ??_C@_0CI@NIHCCHJE@ACCOUNT_CHARACTER_SLOT_CHANGE_N@
  00151	57		 push	 edi
  00152	ff d6		 call	 esi

; 1916 : 	PyModule_AddIntConstant(poModule, "ACCOUNT_CHARACTER_SLOT_HAIR", CPythonNetworkStream::ACCOUNT_CHARACTER_SLOT_HAIR);

  00154	6a 0f		 push	 15			; 0000000fH
  00156	68 00 00 00 00	 push	 OFFSET ??_C@_0BM@BPKEDCMB@ACCOUNT_CHARACTER_SLOT_HAIR@
  0015b	57		 push	 edi
  0015c	ff d6		 call	 esi

; 1917 : 
; 1918 : 	PyModule_AddIntConstant(poModule, "SERVER_COMMAND_LOG_OUT",	CPythonNetworkStream::SERVER_COMMAND_LOG_OUT);

  0015e	6a 00		 push	 0
  00160	68 00 00 00 00	 push	 OFFSET ??_C@_0BH@IJCJGIEO@SERVER_COMMAND_LOG_OUT@
  00165	57		 push	 edi
  00166	ff d6		 call	 esi

; 1919 : 	PyModule_AddIntConstant(poModule, "SERVER_COMMAND_RETURN_TO_SELECT_CHARACTER",	CPythonNetworkStream::SERVER_COMMAND_RETURN_TO_SELECT_CHARACTER);

  00168	6a 01		 push	 1
  0016a	68 00 00 00 00	 push	 OFFSET ??_C@_0CK@IDBHOJE@SERVER_COMMAND_RETURN_TO_SELECT@
  0016f	57		 push	 edi
  00170	ff d6		 call	 esi

; 1920 : 	PyModule_AddIntConstant(poModule, "SERVER_COMMAND_QUIT",	CPythonNetworkStream::SERVER_COMMAND_QUIT);

  00172	6a 02		 push	 2
  00174	68 00 00 00 00	 push	 OFFSET ??_C@_0BE@FCDHFIHM@SERVER_COMMAND_QUIT@
  00179	57		 push	 edi
  0017a	ff d6		 call	 esi

; 1921 : 
; 1922 : 	PyModule_AddIntConstant(poModule, "EMPIRE_A", 1);

  0017c	6a 01		 push	 1
  0017e	68 00 00 00 00	 push	 OFFSET ??_C@_08FEHCOLFL@EMPIRE_A@
  00183	57		 push	 edi
  00184	ff d6		 call	 esi
  00186	83 c4 48	 add	 esp, 72			; 00000048H

; 1923 : 	PyModule_AddIntConstant(poModule, "EMPIRE_B", 2);

  00189	6a 02		 push	 2
  0018b	68 00 00 00 00	 push	 OFFSET ??_C@_08HPFPLIJI@EMPIRE_B@
  00190	57		 push	 edi
  00191	ff d6		 call	 esi

; 1924 : 	PyModule_AddIntConstant(poModule, "EMPIRE_C", 3);

  00193	6a 03		 push	 3
  00195	68 00 00 00 00	 push	 OFFSET ??_C@_08GGEEIJNJ@EMPIRE_C@
  0019a	57		 push	 edi
  0019b	ff d6		 call	 esi

; 1925 : 	PyModule_AddIntConstant(poModule, "DS_SUB_HEADER_REFINE_FAIL", DS_SUB_HEADER_REFINE_FAIL);

  0019d	6a 05		 push	 5
  0019f	68 00 00 00 00	 push	 OFFSET ??_C@_0BK@IMPJEABP@DS_SUB_HEADER_REFINE_FAIL@
  001a4	57		 push	 edi
  001a5	ff d6		 call	 esi

; 1926 : 	PyModule_AddIntConstant(poModule, "DS_SUB_HEADER_REFINE_FAIL_MAX_REFINE", DS_SUB_HEADER_REFINE_FAIL_MAX_REFINE);

  001a7	6a 06		 push	 6
  001a9	68 00 00 00 00	 push	 OFFSET ??_C@_0CF@NHMIOPGD@DS_SUB_HEADER_REFINE_FAIL_MAX_R@
  001ae	57		 push	 edi
  001af	ff d6		 call	 esi

; 1927 : 	PyModule_AddIntConstant(poModule, "DS_SUB_HEADER_REFINE_FAIL_INVALID_MATERIAL", DS_SUB_HEADER_REFINE_FAIL_INVALID_MATERIAL);

  001b1	6a 07		 push	 7
  001b3	68 00 00 00 00	 push	 OFFSET ??_C@_0CL@CHMHFOOJ@DS_SUB_HEADER_REFINE_FAIL_INVAL@
  001b8	57		 push	 edi
  001b9	ff d6		 call	 esi

; 1928 : 	PyModule_AddIntConstant(poModule, "DS_SUB_HEADER_REFINE_FAIL_NOT_ENOUGH_MONEY", DS_SUB_HEADER_REFINE_FAIL_NOT_ENOUGH_MONEY);

  001bb	6a 08		 push	 8
  001bd	68 00 00 00 00	 push	 OFFSET ??_C@_0CL@DKLCPNME@DS_SUB_HEADER_REFINE_FAIL_NOT_E@
  001c2	57		 push	 edi
  001c3	ff d6		 call	 esi
  001c5	83 c4 48	 add	 esp, 72			; 00000048H

; 1929 : 	PyModule_AddIntConstant(poModule, "DS_SUB_HEADER_REFINE_FAIL_NOT_ENOUGH_MATERIAL", DS_SUB_HEADER_REFINE_FAIL_NOT_ENOUGH_MATERIAL);

  001c8	6a 09		 push	 9
  001ca	68 00 00 00 00	 push	 OFFSET ??_C@_0CO@HIKHGDBM@DS_SUB_HEADER_REFINE_FAIL_NOT_E@
  001cf	57		 push	 edi
  001d0	ff d6		 call	 esi

; 1930 : 	PyModule_AddIntConstant(poModule, "DS_SUB_HEADER_REFINE_FAIL_TOO_MUCH_MATERIAL", DS_SUB_HEADER_REFINE_FAIL_TOO_MUCH_MATERIAL);

  001d2	6a 0a		 push	 10			; 0000000aH
  001d4	68 00 00 00 00	 push	 OFFSET ??_C@_0CM@PJCLJBCJ@DS_SUB_HEADER_REFINE_FAIL_TOO_M@
  001d9	57		 push	 edi
  001da	ff d6		 call	 esi

; 1931 : 	PyModule_AddIntConstant(poModule, "DS_SUB_HEADER_REFINE_SUCCEED", DS_SUB_HEADER_REFINE_SUCCEED);

  001dc	6a 0b		 push	 11			; 0000000bH
  001de	68 00 00 00 00	 push	 OFFSET ??_C@_0BN@OJONLPHM@DS_SUB_HEADER_REFINE_SUCCEED@
  001e3	57		 push	 edi
  001e4	ff d6		 call	 esi
  001e6	83 c4 24	 add	 esp, 36			; 00000024H
  001e9	5f		 pop	 edi
  001ea	5e		 pop	 esi

; 1932 : }

  001eb	c3		 ret	 0
?initnet@@YAXXZ ENDP					; initnet
_TEXT	ENDS
; Function compile flags: /Ogtp
; File D:\Metin2 Server Files\mainline\SRC_2014\Metin2Client\UserInterface\GameType.h
;	COMDAT ??0SItemPos@@QAE@XZ
_TEXT	SEGMENT
??0SItemPos@@QAE@XZ PROC				; SItemPos::SItemPos, COMDAT
; _this$ = ecx

; 185  :     {
; 186  : 		window_type =     INVENTORY;
; 187  : 		cell = WORD_MAX;

  00000	b8 ff ff 00 00	 mov	 eax, 65535		; 0000ffffH
  00005	c6 01 01	 mov	 BYTE PTR [ecx], 1
  00008	66 89 41 01	 mov	 WORD PTR [ecx+1], ax

; 188  :     }

  0000c	8b c1		 mov	 eax, ecx
  0000e	c3		 ret	 0
??0SItemPos@@QAE@XZ ENDP				; SItemPos::SItemPos
_TEXT	ENDS
; Function compile flags: /Ogtp
; File C:\Program Files (x86)\Microsoft Visual Studio\2019\Community\VC\Tools\MSVC\14.28.29333\include\vector
;	COMDAT ?_Xlength@?$vector@KV?$allocator@K@std@@@std@@CAXXZ
_TEXT	SEGMENT
?_Xlength@?$vector@KV?$allocator@K@std@@@std@@CAXXZ PROC ; std::vector<unsigned long,std::allocator<unsigned long> >::_Xlength, COMDAT

; 1705 :         _Xlength_error("vector too long");

  00000	68 00 00 00 00	 push	 OFFSET ??_C@_0BA@FOIKENOD@vector?5too?5long@
  00005	e8 00 00 00 00	 call	 ?_Xlength_error@std@@YAXPBD@Z ; std::_Xlength_error
$LN3@Xlength:
  0000a	cc		 int	 3
?_Xlength@?$vector@KV?$allocator@K@std@@@std@@CAXXZ ENDP ; std::vector<unsigned long,std::allocator<unsigned long> >::_Xlength
_TEXT	ENDS
; Function compile flags: /Ogtp
; File C:\Program Files (x86)\Microsoft Visual Studio\2019\Community\VC\Tools\MSVC\14.28.29333\include\vector
; File C:\Program Files (x86)\Microsoft Visual Studio\2019\Community\VC\Tools\MSVC\14.28.29333\include\xmemory
; File C:\Program Files (x86)\Microsoft Visual Studio\2019\Community\VC\Tools\MSVC\14.28.29333\include\vector
; File C:\Program Files (x86)\Microsoft Visual Studio\2019\Community\VC\Tools\MSVC\14.28.29333\include\xmemory
; File C:\Program Files (x86)\Microsoft Visual Studio\2019\Community\VC\Tools\MSVC\14.28.29333\include\vector
;	COMDAT ??1?$vector@KV?$allocator@K@std@@@std@@QAE@XZ
_TEXT	SEGMENT
??1?$vector@KV?$allocator@K@std@@@std@@QAE@XZ PROC	; std::vector<unsigned long,std::allocator<unsigned long> >::~vector<unsigned long,std::allocator<unsigned long> >, COMDAT
; _this$ = ecx

; 672  :     ~vector() noexcept {

  00000	56		 push	 esi
  00001	8b f1		 mov	 esi, ecx

; 1694 :         if (_Myfirst) { // destroy and deallocate old array

  00003	8b 0e		 mov	 ecx, DWORD PTR [esi]
  00005	85 c9		 test	 ecx, ecx
  00007	74 26		 je	 SHORT $LN4@vector

; 1695 :             _Destroy(_Myfirst, _Mylast);
; 1696 :             _Getal().deallocate(_Myfirst, static_cast<size_type>(_Myend - _Myfirst));

  00009	8b 46 08	 mov	 eax, DWORD PTR [esi+8]
  0000c	2b c1		 sub	 eax, ecx
; File C:\Program Files (x86)\Microsoft Visual Studio\2019\Community\VC\Tools\MSVC\14.28.29333\include\xmemory

; 810  :         _Deallocate<_New_alignof<_Ty>>(_Ptr, sizeof(_Ty) * _Count);

  0000e	83 e0 fc	 and	 eax, -4			; fffffffcH
  00011	50		 push	 eax
  00012	51		 push	 ecx
  00013	e8 00 00 00 00	 call	 ??$_Deallocate@$07$0A@@std@@YAXPAXI@Z ; std::_Deallocate<8,0>
; File C:\Program Files (x86)\Microsoft Visual Studio\2019\Community\VC\Tools\MSVC\14.28.29333\include\vector

; 1698 :             _Myfirst = pointer();

  00018	c7 06 00 00 00
	00		 mov	 DWORD PTR [esi], 0
; File C:\Program Files (x86)\Microsoft Visual Studio\2019\Community\VC\Tools\MSVC\14.28.29333\include\xmemory

; 810  :         _Deallocate<_New_alignof<_Ty>>(_Ptr, sizeof(_Ty) * _Count);

  0001e	83 c4 08	 add	 esp, 8
; File C:\Program Files (x86)\Microsoft Visual Studio\2019\Community\VC\Tools\MSVC\14.28.29333\include\vector

; 1699 :             _Mylast  = pointer();

  00021	c7 46 04 00 00
	00 00		 mov	 DWORD PTR [esi+4], 0

; 1700 :             _Myend   = pointer();

  00028	c7 46 08 00 00
	00 00		 mov	 DWORD PTR [esi+8], 0
$LN4@vector:
  0002f	5e		 pop	 esi

; 673  :         _Tidy();
; 674  : #if _ITERATOR_DEBUG_LEVEL != 0
; 675  :         auto&& _Alproxy = _GET_PROXY_ALLOCATOR(_Alty, _Getal());
; 676  :         _Delete_plain_internal(_Alproxy, _STD exchange(_Mypair._Myval2._Myproxy, nullptr));
; 677  : #endif // _ITERATOR_DEBUG_LEVEL != 0
; 678  :     }

  00030	c3		 ret	 0
??1?$vector@KV?$allocator@K@std@@@std@@QAE@XZ ENDP	; std::vector<unsigned long,std::allocator<unsigned long> >::~vector<unsigned long,std::allocator<unsigned long> >
_TEXT	ENDS
; Function compile flags: /Ogtp
; File C:\Program Files (x86)\Microsoft Visual Studio\2019\Community\VC\Tools\MSVC\14.28.29333\include\xstring
; File C:\Program Files (x86)\Microsoft Visual Studio\2019\Community\VC\Tools\MSVC\14.28.29333\include\utility
; File C:\Program Files (x86)\Microsoft Visual Studio\2019\Community\VC\Tools\MSVC\14.28.29333\include\xstring
; File C:\Program Files (x86)\Microsoft Visual Studio\2019\Community\VC\Tools\MSVC\14.28.29333\include\xmemory
; File C:\Program Files (x86)\Microsoft Visual Studio\2019\Community\VC\Tools\MSVC\14.28.29333\include\xstring
; File C:\Program Files (x86)\Microsoft Visual Studio\2019\Community\VC\Tools\MSVC\14.28.29333\include\xmemory
; File C:\Program Files (x86)\Microsoft Visual Studio\2019\Community\VC\Tools\MSVC\14.28.29333\include\xstring
;	COMDAT ?assign@?$basic_string@DU?$char_traits@D@std@@V?$allocator@D@2@@std@@QAEAAV12@QBDI@Z
_TEXT	SEGMENT
__Old$1$ = -4						; size = 4
__Ptr$ = 8						; size = 4
__New_ptr$1 = 12					; size = 4
__Count$ = 12						; size = 4
?assign@?$basic_string@DU?$char_traits@D@std@@V?$allocator@D@2@@std@@QAEAAV12@QBDI@Z PROC ; std::basic_string<char,std::char_traits<char>,std::allocator<char> >::assign, COMDAT
; _this$ = ecx

; 3042 :     basic_string& assign(_In_reads_(_Count) const _Elem* const _Ptr, _CRT_GUARDOVERFLOW const size_type _Count) {

  00000	55		 push	 ebp
  00001	8b ec		 mov	 ebp, esp
  00003	51		 push	 ecx
  00004	53		 push	 ebx
  00005	56		 push	 esi
  00006	8b f1		 mov	 esi, ecx
  00008	57		 push	 edi

; 3043 :         // assign [_Ptr, _Ptr + _Count)
; 3044 :         if (_Count <= _Mypair._Myval2._Myres) {

  00009	8b 7d 0c	 mov	 edi, DWORD PTR __Count$[ebp]
  0000c	8b 4e 14	 mov	 ecx, DWORD PTR [esi+20]
  0000f	89 4d fc	 mov	 DWORD PTR __Old$1$[ebp], ecx
  00012	3b f9		 cmp	 edi, ecx
  00014	77 28		 ja	 SHORT $LN2@assign

; 2209 :         value_type* _Result = _Bx._Buf;

  00016	8b de		 mov	 ebx, esi

; 2227 :         return _BUF_SIZE <= _Myres;

  00018	83 f9 10	 cmp	 ecx, 16			; 00000010H

; 2210 :         if (_Large_string_engaged()) {

  0001b	72 02		 jb	 SHORT $LN5@assign

; 2211 :             _Result = _Unfancy(_Bx._Ptr);

  0001d	8b 1e		 mov	 ebx, DWORD PTR [esi]
$LN5@assign:

; 119  :         _CSTD memmove(_First1, _First2, _Count * sizeof(_Elem));

  0001f	57		 push	 edi
  00020	ff 75 08	 push	 DWORD PTR __Ptr$[ebp]

; 3045 :             _Elem* const _Old_ptr   = _Mypair._Myval2._Myptr();
; 3046 :             _Mypair._Myval2._Mysize = _Count;

  00023	89 7e 10	 mov	 DWORD PTR [esi+16], edi

; 119  :         _CSTD memmove(_First1, _First2, _Count * sizeof(_Elem));

  00026	53		 push	 ebx
  00027	e8 00 00 00 00	 call	 _memmove
  0002c	83 c4 0c	 add	 esp, 12			; 0000000cH

; 3047 :             _Traits::move(_Old_ptr, _Ptr, _Count);
; 3048 :             _Traits::assign(_Old_ptr[_Count], _Elem());

  0002f	c6 04 3b 00	 mov	 BYTE PTR [ebx+edi], 0

; 3059 :     }

  00033	8b c6		 mov	 eax, esi
  00035	5f		 pop	 edi
  00036	5e		 pop	 esi
  00037	5b		 pop	 ebx
  00038	8b e5		 mov	 esp, ebp
  0003a	5d		 pop	 ebp
  0003b	c2 08 00	 ret	 8
$LN2@assign:

; 4305 :         if (_New_size > max_size()) {

  0003e	81 ff ff ff ff
	7f		 cmp	 edi, 2147483647		; 7fffffffH
  00044	0f 87 91 00 00
	00		 ja	 $LN36@assign

; 4285 :         const size_type _Masked = _Requested | _ALLOC_MASK;

  0004a	8b df		 mov	 ebx, edi
  0004c	83 cb 0f	 or	 ebx, 15			; 0000000fH
  0004f	81 fb ff ff ff
	7f		 cmp	 ebx, 2147483647		; 7fffffffH

; 4286 :         if (_Masked > _Max) { // the mask overflows, settle for max_size()

  00055	76 07		 jbe	 SHORT $LN19@assign

; 4287 :             return _Max;

  00057	bb ff ff ff 7f	 mov	 ebx, 2147483647		; 7fffffffH
  0005c	eb 1e		 jmp	 SHORT $LN18@assign
$LN19@assign:

; 4288 :         }
; 4289 : 
; 4290 :         if (_Old > _Max - _Old / 2) { // similarly, geometric overflows

  0005e	8b d1		 mov	 edx, ecx
  00060	b8 ff ff ff 7f	 mov	 eax, 2147483647		; 7fffffffH
  00065	d1 ea		 shr	 edx, 1
  00067	2b c2		 sub	 eax, edx
  00069	3b c8		 cmp	 ecx, eax
  0006b	76 07		 jbe	 SHORT $LN20@assign

; 4291 :             return _Max;

  0006d	bb ff ff ff 7f	 mov	 ebx, 2147483647		; 7fffffffH
  00072	eb 08		 jmp	 SHORT $LN18@assign
$LN20@assign:

; 4292 :         }
; 4293 : 
; 4294 :         return (_STD max)(_Masked, _Old + _Old / 2);

  00074	8d 04 0a	 lea	 eax, DWORD PTR [edx+ecx]
; File C:\Program Files (x86)\Microsoft Visual Studio\2019\Community\VC\Tools\MSVC\14.28.29333\include\utility

; 44   :     return _Left < _Right ? _Right : _Left;

  00077	3b d8		 cmp	 ebx, eax
  00079	0f 42 d8	 cmovb	 ebx, eax
$LN18@assign:
; File C:\Program Files (x86)\Microsoft Visual Studio\2019\Community\VC\Tools\MSVC\14.28.29333\include\xstring

; 4312 :         const pointer _New_ptr        = _Al.allocate(_New_capacity + 1); // throws

  0007c	8d 43 01	 lea	 eax, DWORD PTR [ebx+1]
; File C:\Program Files (x86)\Microsoft Visual Studio\2019\Community\VC\Tools\MSVC\14.28.29333\include\xmemory

; 814  :         return static_cast<_Ty*>(_Allocate<_New_alignof<_Ty>>(_Get_size_of_n<sizeof(_Ty)>(_Count)));

  0007f	50		 push	 eax
  00080	e8 00 00 00 00	 call	 ??$_Allocate@$07U_Default_allocate_traits@std@@$0A@@std@@YAPAXI@Z ; std::_Allocate<8,std::_Default_allocate_traits,0>
; File C:\Program Files (x86)\Microsoft Visual Studio\2019\Community\VC\Tools\MSVC\14.28.29333\include\xstring

; 62   :         _CSTD memcpy(_First1, _First2, _Count * sizeof(_Elem));

  00085	57		 push	 edi
  00086	ff 75 08	 push	 DWORD PTR __Ptr$[ebp]

; 4312 :         const pointer _New_ptr        = _Al.allocate(_New_capacity + 1); // throws

  00089	89 45 0c	 mov	 DWORD PTR __New_ptr$1[ebp], eax

; 62   :         _CSTD memcpy(_First1, _First2, _Count * sizeof(_Elem));

  0008c	50		 push	 eax

; 4314 :         _Mypair._Myval2._Mysize = _New_size;

  0008d	89 7e 10	 mov	 DWORD PTR [esi+16], edi

; 4315 :         _Mypair._Myval2._Myres  = _New_capacity;

  00090	89 5e 14	 mov	 DWORD PTR [esi+20], ebx

; 62   :         _CSTD memcpy(_First1, _First2, _Count * sizeof(_Elem));

  00093	e8 00 00 00 00	 call	 _memcpy

; 3056 :                 _Traits::assign(_New_ptr[_Count], _Elem());

  00098	8b 5d 0c	 mov	 ebx, DWORD PTR __New_ptr$1[ebp]

; 62   :         _CSTD memcpy(_First1, _First2, _Count * sizeof(_Elem));

  0009b	83 c4 10	 add	 esp, 16			; 00000010H

; 4317 :         if (_BUF_SIZE <= _Old_capacity) {

  0009e	8b 45 fc	 mov	 eax, DWORD PTR __Old$1$[ebp]

; 3056 :                 _Traits::assign(_New_ptr[_Count], _Elem());

  000a1	c6 04 3b 00	 mov	 BYTE PTR [ebx+edi], 0

; 4317 :         if (_BUF_SIZE <= _Old_capacity) {

  000a5	83 f8 10	 cmp	 eax, 16			; 00000010H
  000a8	72 19		 jb	 SHORT $LN13@assign

; 4318 :             _Al.deallocate(_Mypair._Myval2._Bx._Ptr, _Old_capacity + 1);

  000aa	40		 inc	 eax
; File C:\Program Files (x86)\Microsoft Visual Studio\2019\Community\VC\Tools\MSVC\14.28.29333\include\xmemory

; 810  :         _Deallocate<_New_alignof<_Ty>>(_Ptr, sizeof(_Ty) * _Count);

  000ab	50		 push	 eax
  000ac	ff 36		 push	 DWORD PTR [esi]
  000ae	e8 00 00 00 00	 call	 ??$_Deallocate@$07$0A@@std@@YAXPAXI@Z ; std::_Deallocate<8,0>
; File C:\Program Files (x86)\Microsoft Visual Studio\2019\Community\VC\Tools\MSVC\14.28.29333\include\xstring

; 3059 :     }

  000b3	83 c4 08	 add	 esp, 8

; 4319 :             _Mypair._Myval2._Bx._Ptr = _New_ptr;

  000b6	89 1e		 mov	 DWORD PTR [esi], ebx

; 3059 :     }

  000b8	8b c6		 mov	 eax, esi
  000ba	5f		 pop	 edi
  000bb	5e		 pop	 esi
  000bc	5b		 pop	 ebx
  000bd	8b e5		 mov	 esp, ebp
  000bf	5d		 pop	 ebp
  000c0	c2 08 00	 ret	 8
$LN13@assign:

; 4321 :             _Construct_in_place(_Mypair._Myval2._Bx._Ptr, _New_ptr);

  000c3	8d 45 0c	 lea	 eax, DWORD PTR __New_ptr$1[ebp]
  000c6	50		 push	 eax
  000c7	56		 push	 esi
  000c8	e8 00 00 00 00	 call	 ??$_Construct_in_place@PADABQAD@std@@YAXAAPADABQAD@Z ; std::_Construct_in_place<char *,char * const &>

; 3059 :     }

  000cd	83 c4 08	 add	 esp, 8
  000d0	8b c6		 mov	 eax, esi
  000d2	5f		 pop	 edi
  000d3	5e		 pop	 esi
  000d4	5b		 pop	 ebx
  000d5	8b e5		 mov	 esp, ebp
  000d7	5d		 pop	 ebp
  000d8	c2 08 00	 ret	 8
$LN36@assign:

; 4306 :             _Xlen_string(); // result too long

  000db	e8 00 00 00 00	 call	 ?_Xlen_string@std@@YAXXZ ; std::_Xlen_string
$LN33@assign:
  000e0	cc		 int	 3
?assign@?$basic_string@DU?$char_traits@D@std@@V?$allocator@D@2@@std@@QAEAAV12@QBDI@Z ENDP ; std::basic_string<char,std::char_traits<char>,std::allocator<char> >::assign
_TEXT	ENDS
; Function compile flags: /Ogtp
; File C:\Program Files (x86)\Microsoft Visual Studio\2019\Community\VC\Tools\MSVC\14.28.29333\include\xstring
; File C:\Program Files (x86)\Microsoft Visual Studio\2019\Community\VC\Tools\MSVC\14.28.29333\include\xmemory
; File C:\Program Files (x86)\Microsoft Visual Studio\2019\Community\VC\Tools\MSVC\14.28.29333\include\xstring
;	COMDAT ??1?$basic_string@DU?$char_traits@D@std@@V?$allocator@D@2@@std@@QAE@XZ
_TEXT	SEGMENT
??1?$basic_string@DU?$char_traits@D@std@@V?$allocator@D@2@@std@@QAE@XZ PROC ; std::basic_string<char,std::char_traits<char>,std::allocator<char> >::~basic_string<char,std::char_traits<char>,std::allocator<char> >, COMDAT
; _this$ = ecx

; 2800 :     ~basic_string() noexcept {

  00000	56		 push	 esi
  00001	8b f1		 mov	 esi, ecx

; 2227 :         return _BUF_SIZE <= _Myres;

  00003	8b 46 14	 mov	 eax, DWORD PTR [esi+20]
  00006	83 f8 10	 cmp	 eax, 16			; 00000010H

; 4385 :         if (_Mypair._Myval2._Large_string_engaged()) {

  00009	72 0c		 jb	 SHORT $LN4@basic_stri

; 4386 :             const pointer _Ptr = _Mypair._Myval2._Bx._Ptr;
; 4387 :             auto& _Al          = _Getal();
; 4388 :             _Destroy_in_place(_Mypair._Myval2._Bx._Ptr);
; 4389 :             _Al.deallocate(_Ptr, _Mypair._Myval2._Myres + 1);

  0000b	40		 inc	 eax
; File C:\Program Files (x86)\Microsoft Visual Studio\2019\Community\VC\Tools\MSVC\14.28.29333\include\xmemory

; 810  :         _Deallocate<_New_alignof<_Ty>>(_Ptr, sizeof(_Ty) * _Count);

  0000c	50		 push	 eax
  0000d	ff 36		 push	 DWORD PTR [esi]
  0000f	e8 00 00 00 00	 call	 ??$_Deallocate@$07$0A@@std@@YAXPAXI@Z ; std::_Deallocate<8,0>
  00014	83 c4 08	 add	 esp, 8
$LN4@basic_stri:
; File C:\Program Files (x86)\Microsoft Visual Studio\2019\Community\VC\Tools\MSVC\14.28.29333\include\xstring

; 4392 :         _Mypair._Myval2._Mysize = 0;

  00017	c7 46 10 00 00
	00 00		 mov	 DWORD PTR [esi+16], 0

; 4393 :         _Mypair._Myval2._Myres  = _BUF_SIZE - 1;

  0001e	c7 46 14 0f 00
	00 00		 mov	 DWORD PTR [esi+20], 15	; 0000000fH

; 4394 :         // the _Traits::assign is last so the codegen doesn't think the char write can alias this
; 4395 :         _Traits::assign(_Mypair._Myval2._Bx._Buf[0], _Elem());

  00025	c6 06 00	 mov	 BYTE PTR [esi], 0
  00028	5e		 pop	 esi

; 2801 :         _Tidy_deallocate();
; 2802 : #if _ITERATOR_DEBUG_LEVEL != 0
; 2803 :         auto&& _Alproxy          = _GET_PROXY_ALLOCATOR(_Alty, _Getal());
; 2804 :         const auto _To_delete    = _Mypair._Myval2._Myproxy;
; 2805 :         _Mypair._Myval2._Myproxy = nullptr;
; 2806 :         _Delete_plain_internal(_Alproxy, _To_delete);
; 2807 : #endif // _ITERATOR_DEBUG_LEVEL != 0
; 2808 :     }

  00029	c3		 ret	 0
??1?$basic_string@DU?$char_traits@D@std@@V?$allocator@D@2@@std@@QAE@XZ ENDP ; std::basic_string<char,std::char_traits<char>,std::allocator<char> >::~basic_string<char,std::char_traits<char>,std::allocator<char> >
_TEXT	ENDS
; Function compile flags: /Ogtp
; File C:\Program Files (x86)\Microsoft Visual Studio\2019\Community\VC\Tools\MSVC\14.28.29333\include\xstring
; File C:\Program Files (x86)\Microsoft Visual Studio\2019\Community\VC\Tools\MSVC\14.28.29333\include\utility
; File C:\Program Files (x86)\Microsoft Visual Studio\2019\Community\VC\Tools\MSVC\14.28.29333\include\xstring
; File C:\Program Files (x86)\Microsoft Visual Studio\2019\Community\VC\Tools\MSVC\14.28.29333\include\xmemory
; File C:\Program Files (x86)\Microsoft Visual Studio\2019\Community\VC\Tools\MSVC\14.28.29333\include\xstring
;	COMDAT ??0?$basic_string@DU?$char_traits@D@std@@V?$allocator@D@2@@std@@QAE@ABV01@@Z
_TEXT	SEGMENT
$T1 = -8						; size = 4
__New_array$2 = -4					; size = 4
__Right_size$1$ = 8					; size = 4
__Right$ = 8						; size = 4
??0?$basic_string@DU?$char_traits@D@std@@V?$allocator@D@2@@std@@QAE@ABV01@@Z PROC ; std::basic_string<char,std::char_traits<char>,std::allocator<char> >::basic_string<char,std::char_traits<char>,std::allocator<char> >, COMDAT
; _this$ = ecx

; 2351 :         : _Mypair(_One_then_variadic_args_t{}, _Alty_traits::select_on_container_copy_construction(_Right._Getal())) {

  00000	55		 push	 ebp
  00001	8b ec		 mov	 ebp, esp
  00003	83 ec 08	 sub	 esp, 8
  00006	53		 push	 ebx

; 2734 :         const size_type _Right_size   = _Right_data._Mysize;

  00007	8b 5d 08	 mov	 ebx, DWORD PTR __Right$[ebp]

; 2351 :         : _Mypair(_One_then_variadic_args_t{}, _Alty_traits::select_on_container_copy_construction(_Right._Getal())) {

  0000a	57		 push	 edi
  0000b	8b f9		 mov	 edi, ecx

; 2198 :     _String_val() noexcept : _Bx(), _Mysize(0), _Myres(0) {}

  0000d	c7 47 10 00 00
	00 00		 mov	 DWORD PTR [edi+16], 0
  00014	c7 47 14 00 00
	00 00		 mov	 DWORD PTR [edi+20], 0

; 2227 :         return _BUF_SIZE <= _Myres;

  0001b	83 7b 14 10	 cmp	 DWORD PTR [ebx+20], 16	; 00000010H

; 2734 :         const size_type _Right_size   = _Right_data._Mysize;

  0001f	8b 43 10	 mov	 eax, DWORD PTR [ebx+16]
  00022	89 45 08	 mov	 DWORD PTR __Right_size$1$[ebp], eax

; 2219 :         if (_Large_string_engaged()) {

  00025	72 02		 jb	 SHORT $LN13@basic_stri

; 2220 :             _Result = _Unfancy(_Bx._Ptr);

  00027	8b 1b		 mov	 ebx, DWORD PTR [ebx]
$LN13@basic_stri:

; 2737 :         if (_Right_size < _BUF_SIZE) { // stay small, don't allocate

  00029	83 f8 10	 cmp	 eax, 16			; 00000010H
  0002c	73 1e		 jae	 SHORT $LN10@basic_stri

; 62   :         _CSTD memcpy(_First1, _First2, _Count * sizeof(_Elem));

  0002e	0f 10 03	 movups	 xmm0, XMMWORD PTR [ebx]

; 2352 :         auto&& _Alproxy = _GET_PROXY_ALLOCATOR(_Alty, _Getal());
; 2353 :         _Container_proxy_ptr<_Alty> _Proxy(_Alproxy, _Mypair._Myval2);
; 2354 :         _Construct_lv_contents(_Right);
; 2355 :         _Proxy._Release();
; 2356 :     }

  00031	8b 4d 08	 mov	 ecx, DWORD PTR __Right_size$1$[ebp]

; 2740 :             _My_data._Myres  = _BUF_SIZE - 1;

  00034	b8 0f 00 00 00	 mov	 eax, 15			; 0000000fH

; 62   :         _CSTD memcpy(_First1, _First2, _Count * sizeof(_Elem));

  00039	0f 11 07	 movups	 XMMWORD PTR [edi], xmm0

; 2352 :         auto&& _Alproxy = _GET_PROXY_ALLOCATOR(_Alty, _Getal());
; 2353 :         _Container_proxy_ptr<_Alty> _Proxy(_Alproxy, _Mypair._Myval2);
; 2354 :         _Construct_lv_contents(_Right);
; 2355 :         _Proxy._Release();
; 2356 :     }

  0003c	89 4f 10	 mov	 DWORD PTR [edi+16], ecx
  0003f	89 47 14	 mov	 DWORD PTR [edi+20], eax
  00042	8b c7		 mov	 eax, edi
  00044	5f		 pop	 edi
  00045	5b		 pop	 ebx
  00046	8b e5		 mov	 esp, ebp
  00048	5d		 pop	 ebp
  00049	c2 04 00	 ret	 4
$LN10@basic_stri:

; 2745 :         const size_type _New_capacity = (_STD min)(_Right_size | _ALLOC_MASK, max_size());

  0004c	83 c8 0f	 or	 eax, 15			; 0000000fH
; File C:\Program Files (x86)\Microsoft Visual Studio\2019\Community\VC\Tools\MSVC\14.28.29333\include\utility

; 68   :     return _Right < _Left ? _Right : _Left;

  0004f	b9 ff ff ff 7f	 mov	 ecx, 2147483647		; 7fffffffH
  00054	3b c1		 cmp	 eax, ecx
  00056	56		 push	 esi
  00057	0f 47 c1	 cmova	 eax, ecx
  0005a	89 45 f8	 mov	 DWORD PTR $T1[ebp], eax
; File C:\Program Files (x86)\Microsoft Visual Studio\2019\Community\VC\Tools\MSVC\14.28.29333\include\xstring

; 2746 :         const pointer _New_array      = _Al.allocate(_New_capacity + 1); // throws

  0005d	40		 inc	 eax
; File C:\Program Files (x86)\Microsoft Visual Studio\2019\Community\VC\Tools\MSVC\14.28.29333\include\xmemory

; 814  :         return static_cast<_Ty*>(_Allocate<_New_alignof<_Ty>>(_Get_size_of_n<sizeof(_Ty)>(_Count)));

  0005e	50		 push	 eax
  0005f	e8 00 00 00 00	 call	 ??$_Allocate@$07U_Default_allocate_traits@std@@$0A@@std@@YAPAXI@Z ; std::_Allocate<8,std::_Default_allocate_traits,0>
; File C:\Program Files (x86)\Microsoft Visual Studio\2019\Community\VC\Tools\MSVC\14.28.29333\include\xstring

; 2746 :         const pointer _New_array      = _Al.allocate(_New_capacity + 1); // throws

  00064	8b f0		 mov	 esi, eax

; 2747 :         _Construct_in_place(_My_data._Bx._Ptr, _New_array);

  00066	8d 45 fc	 lea	 eax, DWORD PTR __New_array$2[ebp]
  00069	50		 push	 eax
  0006a	57		 push	 edi
  0006b	89 75 fc	 mov	 DWORD PTR __New_array$2[ebp], esi
  0006e	e8 00 00 00 00	 call	 ??$_Construct_in_place@PADABQAD@std@@YAXAAPADABQAD@Z ; std::_Construct_in_place<char *,char * const &>

; 2748 :         _Traits::copy(_Unfancy(_New_array), _Right_ptr, _Right_size + 1);

  00073	8b 4d 08	 mov	 ecx, DWORD PTR __Right_size$1$[ebp]
  00076	41		 inc	 ecx

; 62   :         _CSTD memcpy(_First1, _First2, _Count * sizeof(_Elem));

  00077	51		 push	 ecx
  00078	53		 push	 ebx
  00079	56		 push	 esi
  0007a	e8 00 00 00 00	 call	 _memcpy
  0007f	8b 45 f8	 mov	 eax, DWORD PTR $T1[ebp]
  00082	83 c4 18	 add	 esp, 24			; 00000018H

; 2352 :         auto&& _Alproxy = _GET_PROXY_ALLOCATOR(_Alty, _Getal());
; 2353 :         _Container_proxy_ptr<_Alty> _Proxy(_Alproxy, _Mypair._Myval2);
; 2354 :         _Construct_lv_contents(_Right);
; 2355 :         _Proxy._Release();
; 2356 :     }

  00085	8b 4d 08	 mov	 ecx, DWORD PTR __Right_size$1$[ebp]
  00088	89 4f 10	 mov	 DWORD PTR [edi+16], ecx
  0008b	89 47 14	 mov	 DWORD PTR [edi+20], eax
  0008e	8b c7		 mov	 eax, edi

; 62   :         _CSTD memcpy(_First1, _First2, _Count * sizeof(_Elem));

  00090	5e		 pop	 esi

; 2352 :         auto&& _Alproxy = _GET_PROXY_ALLOCATOR(_Alty, _Getal());
; 2353 :         _Container_proxy_ptr<_Alty> _Proxy(_Alproxy, _Mypair._Myval2);
; 2354 :         _Construct_lv_contents(_Right);
; 2355 :         _Proxy._Release();
; 2356 :     }

  00091	5f		 pop	 edi
  00092	5b		 pop	 ebx
  00093	8b e5		 mov	 esp, ebp
  00095	5d		 pop	 ebp
  00096	c2 04 00	 ret	 4
??0?$basic_string@DU?$char_traits@D@std@@V?$allocator@D@2@@std@@QAE@ABV01@@Z ENDP ; std::basic_string<char,std::char_traits<char>,std::allocator<char> >::basic_string<char,std::char_traits<char>,std::allocator<char> >
_TEXT	ENDS
; Function compile flags: /Ogtp
; File C:\Program Files (x86)\Microsoft Visual Studio\2019\Community\VC\Tools\MSVC\14.28.29333\include\xstring
;	COMDAT ?_Xlen_string@std@@YAXXZ
_TEXT	SEGMENT
?_Xlen_string@std@@YAXXZ PROC				; std::_Xlen_string, COMDAT

; 2275 :     _Xlength_error("string too long");

  00000	68 00 00 00 00	 push	 OFFSET ??_C@_0BA@JFNIOLAK@string?5too?5long@
  00005	e8 00 00 00 00	 call	 ?_Xlength_error@std@@YAXPBD@Z ; std::_Xlength_error
$LN3@Xlen_strin:
  0000a	cc		 int	 3
?_Xlen_string@std@@YAXXZ ENDP				; std::_Xlen_string
_TEXT	ENDS
; Function compile flags: /Ogtp
; File C:\Program Files (x86)\Microsoft Visual Studio\2019\Community\VC\Tools\MSVC\14.28.29333\include\exception
;	COMDAT ?_Throw_bad_array_new_length@std@@YAXXZ
_TEXT	SEGMENT
$T1 = -12						; size = 12
?_Throw_bad_array_new_length@std@@YAXXZ PROC		; std::_Throw_bad_array_new_length, COMDAT

; 320  : [[noreturn]] inline void _Throw_bad_array_new_length() {

  00000	55		 push	 ebp
  00001	8b ec		 mov	 ebp, esp
  00003	83 ec 0c	 sub	 esp, 12			; 0000000cH

; 321  :     _THROW(bad_array_new_length{});

  00006	8d 4d f4	 lea	 ecx, DWORD PTR $T1[ebp]
  00009	e8 00 00 00 00	 call	 ??0bad_array_new_length@std@@QAE@XZ ; std::bad_array_new_length::bad_array_new_length
  0000e	68 00 00 00 00	 push	 OFFSET __TI3?AVbad_array_new_length@std@@
  00013	8d 45 f4	 lea	 eax, DWORD PTR $T1[ebp]
  00016	50		 push	 eax
  00017	e8 00 00 00 00	 call	 __CxxThrowException@8
$LN3@Throw_bad_:
  0001c	cc		 int	 3
?_Throw_bad_array_new_length@std@@YAXXZ ENDP		; std::_Throw_bad_array_new_length
_TEXT	ENDS
; Function compile flags: /Ogtp
; File C:\Program Files (x86)\Microsoft Visual Studio\2019\Community\VC\Tools\MSVC\14.28.29333\include\vcruntime_exception.h
;	COMDAT ??_Gbad_array_new_length@std@@UAEPAXI@Z
_TEXT	SEGMENT
___flags$ = 8						; size = 4
??_Gbad_array_new_length@std@@UAEPAXI@Z PROC		; std::bad_array_new_length::`scalar deleting destructor', COMDAT
; _this$ = ecx
  00000	55		 push	 ebp
  00001	8b ec		 mov	 ebp, esp

; 89   :     {

  00003	56		 push	 esi
  00004	8b f1		 mov	 esi, ecx

; 90   :         __std_exception_destroy(&_Data);

  00006	8d 46 04	 lea	 eax, DWORD PTR [esi+4]
  00009	c7 06 00 00 00
	00		 mov	 DWORD PTR [esi], OFFSET ??_7exception@std@@6B@
  0000f	50		 push	 eax
  00010	e8 00 00 00 00	 call	 ___std_exception_destroy
  00015	83 c4 04	 add	 esp, 4
  00018	f6 45 08 01	 test	 BYTE PTR ___flags$[ebp], 1
  0001c	74 0b		 je	 SHORT $LN12@scalar
  0001e	6a 0c		 push	 12			; 0000000cH
  00020	56		 push	 esi
  00021	e8 00 00 00 00	 call	 ??3@YAXPAXI@Z		; operator delete
  00026	83 c4 08	 add	 esp, 8
$LN12@scalar:
  00029	8b c6		 mov	 eax, esi
  0002b	5e		 pop	 esi
  0002c	5d		 pop	 ebp
  0002d	c2 04 00	 ret	 4
??_Gbad_array_new_length@std@@UAEPAXI@Z ENDP		; std::bad_array_new_length::`scalar deleting destructor'
_TEXT	ENDS
; Function compile flags: /Ogtp
; File C:\Program Files (x86)\Microsoft Visual Studio\2019\Community\VC\Tools\MSVC\14.28.29333\include\vcruntime_exception.h
;	COMDAT ??0bad_array_new_length@std@@QAE@ABV01@@Z
_TEXT	SEGMENT
___that$ = 8						; size = 4
??0bad_array_new_length@std@@QAE@ABV01@@Z PROC		; std::bad_array_new_length::bad_array_new_length, COMDAT
; _this$ = ecx
  00000	55		 push	 ebp
  00001	8b ec		 mov	 ebp, esp

; 72   :     {

  00003	56		 push	 esi
  00004	8b f1		 mov	 esi, ecx
  00006	0f 57 c0	 xorps	 xmm0, xmm0

; 71   :         : _Data()

  00009	8d 46 04	 lea	 eax, DWORD PTR [esi+4]

; 73   :         __std_exception_copy(&_Other._Data, &_Data);

  0000c	50		 push	 eax
  0000d	c7 06 00 00 00
	00		 mov	 DWORD PTR [esi], OFFSET ??_7exception@std@@6B@
  00013	66 0f d6 00	 movq	 QWORD PTR [eax], xmm0
  00017	8b 45 08	 mov	 eax, DWORD PTR ___that$[ebp]
  0001a	83 c0 04	 add	 eax, 4
  0001d	50		 push	 eax
  0001e	e8 00 00 00 00	 call	 ___std_exception_copy
  00023	83 c4 08	 add	 esp, 8
  00026	c7 06 00 00 00
	00		 mov	 DWORD PTR [esi], OFFSET ??_7bad_array_new_length@std@@6B@
  0002c	8b c6		 mov	 eax, esi
  0002e	5e		 pop	 esi
  0002f	5d		 pop	 ebp
  00030	c2 04 00	 ret	 4
??0bad_array_new_length@std@@QAE@ABV01@@Z ENDP		; std::bad_array_new_length::bad_array_new_length
_TEXT	ENDS
; Function compile flags: /Ogtp
; File C:\Program Files (x86)\Microsoft Visual Studio\2019\Community\VC\Tools\MSVC\14.28.29333\include\vcruntime_exception.h
;	COMDAT ??1bad_array_new_length@std@@UAE@XZ
_TEXT	SEGMENT
??1bad_array_new_length@std@@UAE@XZ PROC		; std::bad_array_new_length::~bad_array_new_length, COMDAT
; _this$ = ecx

; 90   :         __std_exception_destroy(&_Data);

  00000	8d 41 04	 lea	 eax, DWORD PTR [ecx+4]
  00003	c7 01 00 00 00
	00		 mov	 DWORD PTR [ecx], OFFSET ??_7exception@std@@6B@
  00009	50		 push	 eax
  0000a	e8 00 00 00 00	 call	 ___std_exception_destroy
  0000f	59		 pop	 ecx
  00010	c3		 ret	 0
??1bad_array_new_length@std@@UAE@XZ ENDP		; std::bad_array_new_length::~bad_array_new_length
_TEXT	ENDS
; Function compile flags: /Ogtp
; File C:\Program Files (x86)\Microsoft Visual Studio\2019\Community\VC\Tools\MSVC\14.28.29333\include\vcruntime_exception.h
;	COMDAT ??0bad_array_new_length@std@@QAE@XZ
_TEXT	SEGMENT
??0bad_array_new_length@std@@QAE@XZ PROC		; std::bad_array_new_length::bad_array_new_length, COMDAT
; _this$ = ecx

; 141  :     {

  00000	0f 57 c0	 xorps	 xmm0, xmm0

; 142  :     }

  00003	8b c1		 mov	 eax, ecx

; 65   :         : _Data()

  00005	66 0f d6 41 04	 movq	 QWORD PTR [ecx+4], xmm0

; 66   :     {
; 67   :         _Data._What = _Message;

  0000a	c7 41 04 00 00
	00 00		 mov	 DWORD PTR [ecx+4], OFFSET ??_C@_0BF@KINCDENJ@bad?5array?5new?5length@

; 141  :     {

  00011	c7 01 00 00 00
	00		 mov	 DWORD PTR [ecx], OFFSET ??_7bad_array_new_length@std@@6B@

; 142  :     }

  00017	c3		 ret	 0
??0bad_array_new_length@std@@QAE@XZ ENDP		; std::bad_array_new_length::bad_array_new_length
_TEXT	ENDS
; Function compile flags: /Ogtp
; File C:\Program Files (x86)\Microsoft Visual Studio\2019\Community\VC\Tools\MSVC\14.28.29333\include\vcruntime_exception.h
;	COMDAT ??_Gbad_alloc@std@@UAEPAXI@Z
_TEXT	SEGMENT
___flags$ = 8						; size = 4
??_Gbad_alloc@std@@UAEPAXI@Z PROC			; std::bad_alloc::`scalar deleting destructor', COMDAT
; _this$ = ecx
  00000	55		 push	 ebp
  00001	8b ec		 mov	 ebp, esp

; 89   :     {

  00003	56		 push	 esi
  00004	8b f1		 mov	 esi, ecx

; 90   :         __std_exception_destroy(&_Data);

  00006	8d 46 04	 lea	 eax, DWORD PTR [esi+4]
  00009	c7 06 00 00 00
	00		 mov	 DWORD PTR [esi], OFFSET ??_7exception@std@@6B@
  0000f	50		 push	 eax
  00010	e8 00 00 00 00	 call	 ___std_exception_destroy
  00015	83 c4 04	 add	 esp, 4
  00018	f6 45 08 01	 test	 BYTE PTR ___flags$[ebp], 1
  0001c	74 0b		 je	 SHORT $LN9@scalar
  0001e	6a 0c		 push	 12			; 0000000cH
  00020	56		 push	 esi
  00021	e8 00 00 00 00	 call	 ??3@YAXPAXI@Z		; operator delete
  00026	83 c4 08	 add	 esp, 8
$LN9@scalar:
  00029	8b c6		 mov	 eax, esi
  0002b	5e		 pop	 esi
  0002c	5d		 pop	 ebp
  0002d	c2 04 00	 ret	 4
??_Gbad_alloc@std@@UAEPAXI@Z ENDP			; std::bad_alloc::`scalar deleting destructor'
_TEXT	ENDS
; Function compile flags: /Ogtp
; File C:\Program Files (x86)\Microsoft Visual Studio\2019\Community\VC\Tools\MSVC\14.28.29333\include\vcruntime_exception.h
;	COMDAT ??0bad_alloc@std@@QAE@ABV01@@Z
_TEXT	SEGMENT
___that$ = 8						; size = 4
??0bad_alloc@std@@QAE@ABV01@@Z PROC			; std::bad_alloc::bad_alloc, COMDAT
; _this$ = ecx
  00000	55		 push	 ebp
  00001	8b ec		 mov	 ebp, esp

; 72   :     {

  00003	56		 push	 esi
  00004	8b f1		 mov	 esi, ecx
  00006	0f 57 c0	 xorps	 xmm0, xmm0

; 71   :         : _Data()

  00009	8d 46 04	 lea	 eax, DWORD PTR [esi+4]

; 73   :         __std_exception_copy(&_Other._Data, &_Data);

  0000c	50		 push	 eax
  0000d	c7 06 00 00 00
	00		 mov	 DWORD PTR [esi], OFFSET ??_7exception@std@@6B@
  00013	66 0f d6 00	 movq	 QWORD PTR [eax], xmm0
  00017	8b 45 08	 mov	 eax, DWORD PTR ___that$[ebp]
  0001a	83 c0 04	 add	 eax, 4
  0001d	50		 push	 eax
  0001e	e8 00 00 00 00	 call	 ___std_exception_copy
  00023	83 c4 08	 add	 esp, 8
  00026	c7 06 00 00 00
	00		 mov	 DWORD PTR [esi], OFFSET ??_7bad_alloc@std@@6B@
  0002c	8b c6		 mov	 eax, esi
  0002e	5e		 pop	 esi
  0002f	5d		 pop	 ebp
  00030	c2 04 00	 ret	 4
??0bad_alloc@std@@QAE@ABV01@@Z ENDP			; std::bad_alloc::bad_alloc
_TEXT	ENDS
; Function compile flags: /Ogtp
; File C:\Program Files (x86)\Microsoft Visual Studio\2019\Community\VC\Tools\MSVC\14.28.29333\include\vcruntime_exception.h
;	COMDAT ??_Gexception@std@@UAEPAXI@Z
_TEXT	SEGMENT
___flags$ = 8						; size = 4
??_Gexception@std@@UAEPAXI@Z PROC			; std::exception::`scalar deleting destructor', COMDAT
; _this$ = ecx
  00000	55		 push	 ebp
  00001	8b ec		 mov	 ebp, esp

; 89   :     {

  00003	56		 push	 esi
  00004	8b f1		 mov	 esi, ecx

; 90   :         __std_exception_destroy(&_Data);

  00006	8d 46 04	 lea	 eax, DWORD PTR [esi+4]
  00009	c7 06 00 00 00
	00		 mov	 DWORD PTR [esi], OFFSET ??_7exception@std@@6B@
  0000f	50		 push	 eax
  00010	e8 00 00 00 00	 call	 ___std_exception_destroy
  00015	83 c4 04	 add	 esp, 4
  00018	f6 45 08 01	 test	 BYTE PTR ___flags$[ebp], 1
  0001c	74 0b		 je	 SHORT $LN6@scalar
  0001e	6a 0c		 push	 12			; 0000000cH
  00020	56		 push	 esi
  00021	e8 00 00 00 00	 call	 ??3@YAXPAXI@Z		; operator delete
  00026	83 c4 08	 add	 esp, 8
$LN6@scalar:
  00029	8b c6		 mov	 eax, esi
  0002b	5e		 pop	 esi
  0002c	5d		 pop	 ebp
  0002d	c2 04 00	 ret	 4
??_Gexception@std@@UAEPAXI@Z ENDP			; std::exception::`scalar deleting destructor'
_TEXT	ENDS
; Function compile flags: /Ogtp
; File C:\Program Files (x86)\Microsoft Visual Studio\2019\Community\VC\Tools\MSVC\14.28.29333\include\vcruntime_exception.h
;	COMDAT ?what@exception@std@@UBEPBDXZ
_TEXT	SEGMENT
?what@exception@std@@UBEPBDXZ PROC			; std::exception::what, COMDAT
; _this$ = ecx

; 95   :         return _Data._What ? _Data._What : "Unknown exception";

  00000	8b 49 04	 mov	 ecx, DWORD PTR [ecx+4]
  00003	b8 00 00 00 00	 mov	 eax, OFFSET ??_C@_0BC@EOODALEL@Unknown?5exception@
  00008	85 c9		 test	 ecx, ecx
  0000a	0f 45 c1	 cmovne	 eax, ecx

; 96   :     }

  0000d	c3		 ret	 0
?what@exception@std@@UBEPBDXZ ENDP			; std::exception::what
_TEXT	ENDS
; Function compile flags: /Ogtp
; File C:\Program Files (x86)\Microsoft Visual Studio\2019\Community\VC\Tools\MSVC\14.28.29333\include\vcruntime_exception.h
;	COMDAT ??1exception@std@@UAE@XZ
_TEXT	SEGMENT
??1exception@std@@UAE@XZ PROC				; std::exception::~exception, COMDAT
; _this$ = ecx

; 90   :         __std_exception_destroy(&_Data);

  00000	8d 41 04	 lea	 eax, DWORD PTR [ecx+4]
  00003	c7 01 00 00 00
	00		 mov	 DWORD PTR [ecx], OFFSET ??_7exception@std@@6B@
  00009	50		 push	 eax
  0000a	e8 00 00 00 00	 call	 ___std_exception_destroy
  0000f	59		 pop	 ecx

; 91   :     }

  00010	c3		 ret	 0
??1exception@std@@UAE@XZ ENDP				; std::exception::~exception
_TEXT	ENDS
; Function compile flags: /Ogtp
; File C:\Program Files (x86)\Microsoft Visual Studio\2019\Community\VC\Tools\MSVC\14.28.29333\include\vcruntime_exception.h
;	COMDAT ??0exception@std@@QAE@ABV01@@Z
_TEXT	SEGMENT
__Other$ = 8						; size = 4
??0exception@std@@QAE@ABV01@@Z PROC			; std::exception::exception, COMDAT
; _this$ = ecx

; 72   :     {

  00000	55		 push	 ebp
  00001	8b ec		 mov	 ebp, esp
  00003	56		 push	 esi
  00004	8b f1		 mov	 esi, ecx
  00006	0f 57 c0	 xorps	 xmm0, xmm0
  00009	8d 46 04	 lea	 eax, DWORD PTR [esi+4]

; 73   :         __std_exception_copy(&_Other._Data, &_Data);

  0000c	50		 push	 eax
  0000d	c7 06 00 00 00
	00		 mov	 DWORD PTR [esi], OFFSET ??_7exception@std@@6B@
  00013	66 0f d6 00	 movq	 QWORD PTR [eax], xmm0
  00017	8b 45 08	 mov	 eax, DWORD PTR __Other$[ebp]
  0001a	83 c0 04	 add	 eax, 4
  0001d	50		 push	 eax
  0001e	e8 00 00 00 00	 call	 ___std_exception_copy
  00023	83 c4 08	 add	 esp, 8

; 74   :     }

  00026	8b c6		 mov	 eax, esi
  00028	5e		 pop	 esi
  00029	5d		 pop	 ebp
  0002a	c2 04 00	 ret	 4
??0exception@std@@QAE@ABV01@@Z ENDP			; std::exception::exception
_TEXT	ENDS
; Function compile flags: /Ogtp
;	COMDAT ??_H@YGXPAXIIP6EPAX0@Z@Z
_TEXT	SEGMENT
___t$ = 8						; size = 4
___s$ = 12						; size = 4
___n$ = 16						; size = 4
___f$ = 20						; size = 4
??_H@YGXPAXIIP6EPAX0@Z@Z PROC				; `vector constructor iterator', COMDAT
  00000	55		 push	 ebp
  00001	8b ec		 mov	 ebp, esp
  00003	56		 push	 esi
  00004	8b 75 10	 mov	 esi, DWORD PTR ___n$[ebp]
  00007	85 f6		 test	 esi, esi
  00009	74 16		 je	 SHORT $LN6@vector
  0000b	53		 push	 ebx
  0000c	8b 5d 14	 mov	 ebx, DWORD PTR ___f$[ebp]
  0000f	57		 push	 edi
  00010	8b 7d 08	 mov	 edi, DWORD PTR ___t$[ebp]
$LL2@vector:
  00013	8b cf		 mov	 ecx, edi
  00015	ff d3		 call	 ebx
  00017	03 7d 0c	 add	 edi, DWORD PTR ___s$[ebp]
  0001a	83 ee 01	 sub	 esi, 1
  0001d	75 f4		 jne	 SHORT $LL2@vector
  0001f	5f		 pop	 edi
  00020	5b		 pop	 ebx
$LN6@vector:
  00021	5e		 pop	 esi
  00022	5d		 pop	 ebp
  00023	c2 10 00	 ret	 16			; 00000010H
??_H@YGXPAXIIP6EPAX0@Z@Z ENDP				; `vector constructor iterator'
_TEXT	ENDS
END
