; Listing generated by Microsoft (R) Optimizing Compiler Version 19.28.29335.0 

	TITLE	D:\Metin2 Server Files\mainline\SRC_2014\Metin2Client\UserInterface\PythonNetworkStreamPhaseLogin.cpp
	.686P
	.XMM
	include listing.inc
	.model	flat

INCLUDELIB LIBCMT
INCLUDELIB OLDNAMES

PUBLIC	??_H@YGXPAXIIP6EPAX0@Z@Z			; `vector constructor iterator'
PUBLIC	??0exception@std@@QAE@ABV01@@Z			; std::exception::exception
PUBLIC	??1exception@std@@UAE@XZ			; std::exception::~exception
PUBLIC	?what@exception@std@@UBEPBDXZ			; std::exception::what
PUBLIC	??_Gexception@std@@UAEPAXI@Z			; std::exception::`scalar deleting destructor'
PUBLIC	??0bad_alloc@std@@QAE@ABV01@@Z			; std::bad_alloc::bad_alloc
PUBLIC	??_Gbad_alloc@std@@UAEPAXI@Z			; std::bad_alloc::`scalar deleting destructor'
PUBLIC	??0bad_array_new_length@std@@QAE@XZ		; std::bad_array_new_length::bad_array_new_length
PUBLIC	??1bad_array_new_length@std@@UAE@XZ		; std::bad_array_new_length::~bad_array_new_length
PUBLIC	??0bad_array_new_length@std@@QAE@ABV01@@Z	; std::bad_array_new_length::bad_array_new_length
PUBLIC	??_Gbad_array_new_length@std@@UAEPAXI@Z		; std::bad_array_new_length::`scalar deleting destructor'
PUBLIC	?_Throw_bad_array_new_length@std@@YAXXZ		; std::_Throw_bad_array_new_length
PUBLIC	?_Xlen_string@std@@YAXXZ			; std::_Xlen_string
PUBLIC	?assign@?$basic_string@DU?$char_traits@D@std@@V?$allocator@D@2@@std@@QAEAAV12@QBDI@Z ; std::basic_string<char,std::char_traits<char>,std::allocator<char> >::assign
PUBLIC	??$_Construct_in_place@PADABQAD@std@@YAXAAPADABQAD@Z ; std::_Construct_in_place<char *,char * const &>
PUBLIC	??$_Deallocate@$07$0A@@std@@YAXPAXI@Z		; std::_Deallocate<8,0>
PUBLIC	??$_Allocate@$07U_Default_allocate_traits@std@@$0A@@std@@YAPAXI@Z ; std::_Allocate<8,std::_Default_allocate_traits,0>
PUBLIC	??$_Allocate_manually_vector_aligned@U_Default_allocate_traits@std@@@std@@YAPAXI@Z ; std::_Allocate_manually_vector_aligned<std::_Default_allocate_traits>
PUBLIC	?SetLoginPhase@CPythonNetworkStream@@QAEXXZ	; CPythonNetworkStream::SetLoginPhase
PUBLIC	?SendLoginPacket@CPythonNetworkStream@@QAE_NPBD0@Z ; CPythonNetworkStream::SendLoginPacket
PUBLIC	?SendLoginPacketNew@CPythonNetworkStream@@QAE_NPBD0@Z ; CPythonNetworkStream::SendLoginPacketNew
PUBLIC	?SendChinaMatrixCardPacket@CPythonNetworkStream@@QAE_NPBD@Z ; CPythonNetworkStream::SendChinaMatrixCardPacket
PUBLIC	?SendRunupMatrixAnswerPacket@CPythonNetworkStream@@QAE_NPBD@Z ; CPythonNetworkStream::SendRunupMatrixAnswerPacket
PUBLIC	?SendNEWCIBNPasspodAnswerPacket@CPythonNetworkStream@@QAE_NPBD@Z ; CPythonNetworkStream::SendNEWCIBNPasspodAnswerPacket
PUBLIC	?SendDirectEnterPacket@CPythonNetworkStream@@QAE_NPBD0I@Z ; CPythonNetworkStream::SendDirectEnterPacket
PUBLIC	?LoginPhase@CPythonNetworkStream@@IAEXXZ	; CPythonNetworkStream::LoginPhase
PUBLIC	?__RecvLoginSuccessPacket3@CPythonNetworkStream@@IAE_NXZ ; CPythonNetworkStream::__RecvLoginSuccessPacket3
PUBLIC	?__RecvLoginSuccessPacket4@CPythonNetworkStream@@IAE_NXZ ; CPythonNetworkStream::__RecvLoginSuccessPacket4
PUBLIC	?__RecvLoginFailurePacket@CPythonNetworkStream@@IAE_NXZ ; CPythonNetworkStream::__RecvLoginFailurePacket
PUBLIC	?__RecvEmpirePacket@CPythonNetworkStream@@IAE_NXZ ; CPythonNetworkStream::__RecvEmpirePacket
PUBLIC	?__RecvChinaMatrixCardPacket@CPythonNetworkStream@@IAE_NXZ ; CPythonNetworkStream::__RecvChinaMatrixCardPacket
PUBLIC	?__RecvRunupMatrixQuizPacket@CPythonNetworkStream@@IAE_NXZ ; CPythonNetworkStream::__RecvRunupMatrixQuizPacket
PUBLIC	?__RecvNEWCIBNPasspodRequestPacket@CPythonNetworkStream@@IAE_NXZ ; CPythonNetworkStream::__RecvNEWCIBNPasspodRequestPacket
PUBLIC	?__RecvNEWCIBNPasspodFailurePacket@CPythonNetworkStream@@IAE_NXZ ; CPythonNetworkStream::__RecvNEWCIBNPasspodFailurePacket
PUBLIC	?__RecvLoginKeyPacket@CPythonNetworkStream@@IAE_NXZ ; CPythonNetworkStream::__RecvLoginKeyPacket
PUBLIC	?OnConnectFailure@CPythonNetworkStream@@MAEXXZ	; CPythonNetworkStream::OnConnectFailure
PUBLIC	?__LeaveLoginPhase@CPythonNetworkStream@@IAEXXZ	; CPythonNetworkStream::__LeaveLoginPhase
PUBLIC	??$?9DU?$char_traits@D@std@@V?$allocator@D@1@@std@@YA_NQBDABV?$basic_string@DU?$char_traits@D@std@@V?$allocator@D@2@@0@@Z ; std::operator!=<char,std::char_traits<char>,std::allocator<char> >
PUBLIC	??$?8DU?$char_traits@D@std@@V?$allocator@D@1@@std@@YA_NQBDABV?$basic_string@DU?$char_traits@D@std@@V?$allocator@D@2@@0@@Z ; std::operator==<char,std::char_traits<char>,std::allocator<char> >
PUBLIC	??_7exception@std@@6B@				; std::exception::`vftable'
PUBLIC	??_C@_0BC@EOODALEL@Unknown?5exception@		; `string'
PUBLIC	??_7bad_alloc@std@@6B@				; std::bad_alloc::`vftable'
PUBLIC	??_7bad_array_new_length@std@@6B@		; std::bad_array_new_length::`vftable'
PUBLIC	??_C@_0BF@KINCDENJ@bad?5array?5new?5length@	; `string'
PUBLIC	__TI3?AVbad_array_new_length@std@@
PUBLIC	__CTA3?AVbad_array_new_length@std@@
PUBLIC	??_R0?AVbad_array_new_length@std@@@8		; std::bad_array_new_length `RTTI Type Descriptor'
PUBLIC	__CT??_R0?AVbad_array_new_length@std@@@8??0bad_array_new_length@std@@QAE@ABV01@@Z12
PUBLIC	??_R0?AVbad_alloc@std@@@8			; std::bad_alloc `RTTI Type Descriptor'
PUBLIC	__CT??_R0?AVbad_alloc@std@@@8??0bad_alloc@std@@QAE@ABV01@@Z12
PUBLIC	??_R0?AVexception@std@@@8			; std::exception `RTTI Type Descriptor'
PUBLIC	__CT??_R0?AVexception@std@@@8??0exception@std@@QAE@ABV01@@Z12
PUBLIC	??_C@_0BA@JFNIOLAK@string?5too?5long@		; `string'
PUBLIC	??_C@_00CNPNBAHC@@				; `string'
PUBLIC	??_R4exception@std@@6B@				; std::exception::`RTTI Complete Object Locator'
PUBLIC	??_R3exception@std@@8				; std::exception::`RTTI Class Hierarchy Descriptor'
PUBLIC	??_R2exception@std@@8				; std::exception::`RTTI Base Class Array'
PUBLIC	??_R1A@?0A@EA@exception@std@@8			; std::exception::`RTTI Base Class Descriptor at (0,-1,0,64)'
PUBLIC	??_R4bad_alloc@std@@6B@				; std::bad_alloc::`RTTI Complete Object Locator'
PUBLIC	??_R3bad_alloc@std@@8				; std::bad_alloc::`RTTI Class Hierarchy Descriptor'
PUBLIC	??_R2bad_alloc@std@@8				; std::bad_alloc::`RTTI Base Class Array'
PUBLIC	??_R1A@?0A@EA@bad_alloc@std@@8			; std::bad_alloc::`RTTI Base Class Descriptor at (0,-1,0,64)'
PUBLIC	??_R4bad_array_new_length@std@@6B@		; std::bad_array_new_length::`RTTI Complete Object Locator'
PUBLIC	??_R3bad_array_new_length@std@@8		; std::bad_array_new_length::`RTTI Class Hierarchy Descriptor'
PUBLIC	??_R2bad_array_new_length@std@@8		; std::bad_array_new_length::`RTTI Base Class Array'
PUBLIC	??_R1A@?0A@EA@bad_array_new_length@std@@8	; std::bad_array_new_length::`RTTI Base Class Descriptor at (0,-1,0,64)'
PUBLIC	?ms_singleton@?$CSingleton@VCAccountConnector@@@@0PAVCAccountConnector@@A ; CSingleton<CAccountConnector>::ms_singleton
PUBLIC	??_C@_05DHEMANOL@Login@				; `string'
PUBLIC	??_C@_0BM@GIOJNFMI@?$CD?$CD?5Network?5?9?5Login?5Phase?5?$CD?$CD@ ; `string'
PUBLIC	??_C@_02HCKGKOFO@?$CI?$CJ@			; `string'
PUBLIC	??_C@_0N@GCHAFKJJ@OnLoginStart@			; `string'
PUBLIC	??_C@_07POIENIBA@Refresh@			; `string'
PUBLIC	??_C@_0BB@JEKGEMCL@OnConnectFailure@		; `string'
PUBLIC	??_C@_03KJMMOONA@?$CIs?$CJ@			; `string'
PUBLIC	??_C@_0P@OOEAIINI@OnLoginFailure@		; `string'
PUBLIC	??_C@_0BA@HOEIMIKO@SendDirectEnter@		; `string'
PUBLIC	??_C@_0BA@HGDBLFFH@SendLogin?5Error@		; `string'
PUBLIC	??_C@_0BJ@IENIHBKM@BINARY_OnRunupMatrixQuiz@	; `string'
PUBLIC	??_C@_0BP@PNMANAPB@SendRunupMatrixCardPacketError@ ; `string'
PUBLIC	??_C@_0BP@DDJIDHFM@BINARY_OnNEWCIBNPasspodRequest@ ; `string'
PUBLIC	??_C@_0BP@LPFBEHCD@BINARY_OnNEWCIBNPasspodFailure@ ; `string'
PUBLIC	??_C@_0BP@JFBAGMPA@SendNEWCIBNPasspodAnswerPacket@ ; `string'
PUBLIC	??_C@_0L@FKCIBGAB@?$CIiiiiiiii?$CJ@		; `string'
PUBLIC	??_C@_0N@PIKEFLJP@OnMatrixCard@			; `string'
EXTRN	??2@YAPAXI@Z:PROC				; operator new
EXTRN	??3@YAXPAXI@Z:PROC				; operator delete
EXTRN	__invalid_parameter_noinfo_noreturn:PROC
EXTRN	_strncpy:PROC
EXTRN	___std_exception_copy:PROC
EXTRN	___std_exception_destroy:PROC
EXTRN	??_Eexception@std@@UAEPAXI@Z:PROC		; std::exception::`vector deleting destructor'
EXTRN	??_Ebad_alloc@std@@UAEPAXI@Z:PROC		; std::bad_alloc::`vector deleting destructor'
EXTRN	??_Ebad_array_new_length@std@@UAEPAXI@Z:PROC	; std::bad_array_new_length::`vector deleting destructor'
EXTRN	?_Xlength_error@std@@YAXPBD@Z:PROC		; std::_Xlength_error
EXTRN	?Tracen@@YAXPBD@Z:PROC				; Tracen
EXTRN	?TraceError@@YAXPBDZZ:PROC			; TraceError
EXTRN	__imp__Py_BuildValue:PROC
EXTRN	?PyCallClassMemberFunc@@YA_NPAU_object@@PBD0@Z:PROC ; PyCallClassMemberFunc
EXTRN	?ELTimer_GetMSec@@YAKXZ:PROC			; ELTimer_GetMSec
EXTRN	?LocaleService_GetSecurityKey@@YAPBDXZ:PROC	; LocaleService_GetSecurityKey
EXTRN	?Recv@CNetworkStream@@QAE_NHPAX@Z:PROC		; CNetworkStream::Recv
EXTRN	?Send@CNetworkStream@@QAE_NHPBX@Z:PROC		; CNetworkStream::Send
EXTRN	?SendSequence@CNetworkStream@@QAE_NXZ:PROC	; CNetworkStream::SendSequence
EXTRN	?__SendInternalBuffer@CNetworkStream@@IAE_NXZ:PROC ; CNetworkStream::__SendInternalBuffer
EXTRN	?ClearLoginInfo@CPythonNetworkStream@@QAEXXZ:PROC ; CPythonNetworkStream::ClearLoginInfo
EXTRN	?RecvHybridCryptKeyPacket@CPythonNetworkStream@@QAE_NXZ:PROC ; CPythonNetworkStream::RecvHybridCryptKeyPacket
EXTRN	?RecvHybridCryptSDBPacket@CPythonNetworkStream@@QAE_NXZ:PROC ; CPythonNetworkStream::RecvHybridCryptSDBPacket
EXTRN	?ClosePhase@CPythonNetworkStream@@QAEXXZ:PROC	; CPythonNetworkStream::ClosePhase
EXTRN	?RecvErrorPacket@CPythonNetworkStream@@IAE_NH@Z:PROC ; CPythonNetworkStream::RecvErrorPacket
EXTRN	?RecvPingPacket@CPythonNetworkStream@@IAE_NXZ:PROC ; CPythonNetworkStream::RecvPingPacket
EXTRN	?RecvDefaultPacket@CPythonNetworkStream@@IAE_NH@Z:PROC ; CPythonNetworkStream::RecvDefaultPacket
EXTRN	?RecvPhasePacket@CPythonNetworkStream@@IAE_NXZ:PROC ; CPythonNetworkStream::RecvPhasePacket
EXTRN	?CheckPacket@CPythonNetworkStream@@IAE_NPAE@Z:PROC ; CPythonNetworkStream::CheckPacket
EXTRN	?__ClearSelectCharacterData@CPythonNetworkStream@@IAEXXZ:PROC ; CPythonNetworkStream::__ClearSelectCharacterData
EXTRN	?__DirectEnterMode_IsSet@CPythonNetworkStream@@AAE_NXZ:PROC ; CPythonNetworkStream::__DirectEnterMode_IsSet
EXTRN	?ClearLoginInfo@CAccountConnector@@QAEXXZ:PROC	; CAccountConnector::ClearLoginInfo
EXTRN	@__security_check_cookie@4:PROC
EXTRN	__CxxThrowException@8:PROC
EXTRN	_memcpy:PROC
EXTRN	_memmove:PROC
EXTRN	??_7type_info@@6B@:QWORD			; type_info::`vftable'
EXTRN	?g_adwEncryptKey@@3PAKA:BYTE			; g_adwEncryptKey
EXTRN	___security_cookie:DWORD
;	COMDAT ?ms_singleton@?$CSingleton@VCAccountConnector@@@@0PAVCAccountConnector@@A
_BSS	SEGMENT
?ms_singleton@?$CSingleton@VCAccountConnector@@@@0PAVCAccountConnector@@A DD 01H DUP (?) ; CSingleton<CAccountConnector>::ms_singleton
_BSS	ENDS
;	COMDAT ??_C@_0N@PIKEFLJP@OnMatrixCard@
CONST	SEGMENT
??_C@_0N@PIKEFLJP@OnMatrixCard@ DB 'OnMatrixCard', 00H	; `string'
CONST	ENDS
;	COMDAT ??_C@_0L@FKCIBGAB@?$CIiiiiiiii?$CJ@
CONST	SEGMENT
??_C@_0L@FKCIBGAB@?$CIiiiiiiii?$CJ@ DB '(iiiiiiii)', 00H ; `string'
CONST	ENDS
;	COMDAT ??_C@_0BP@JFBAGMPA@SendNEWCIBNPasspodAnswerPacket@
CONST	SEGMENT
??_C@_0BP@JFBAGMPA@SendNEWCIBNPasspodAnswerPacket@ DB 'SendNEWCIBNPasspod'
	DB	'AnswerPacket', 00H				; `string'
CONST	ENDS
;	COMDAT ??_C@_0BP@LPFBEHCD@BINARY_OnNEWCIBNPasspodFailure@
CONST	SEGMENT
??_C@_0BP@LPFBEHCD@BINARY_OnNEWCIBNPasspodFailure@ DB 'BINARY_OnNEWCIBNPa'
	DB	'sspodFailure', 00H				; `string'
CONST	ENDS
;	COMDAT ??_C@_0BP@DDJIDHFM@BINARY_OnNEWCIBNPasspodRequest@
CONST	SEGMENT
??_C@_0BP@DDJIDHFM@BINARY_OnNEWCIBNPasspodRequest@ DB 'BINARY_OnNEWCIBNPa'
	DB	'sspodRequest', 00H				; `string'
CONST	ENDS
;	COMDAT ??_C@_0BP@PNMANAPB@SendRunupMatrixCardPacketError@
CONST	SEGMENT
??_C@_0BP@PNMANAPB@SendRunupMatrixCardPacketError@ DB 'SendRunupMatrixCar'
	DB	'dPacketError', 00H				; `string'
CONST	ENDS
;	COMDAT ??_C@_0BJ@IENIHBKM@BINARY_OnRunupMatrixQuiz@
CONST	SEGMENT
??_C@_0BJ@IENIHBKM@BINARY_OnRunupMatrixQuiz@ DB 'BINARY_OnRunupMatrixQuiz'
	DB	00H						; `string'
CONST	ENDS
;	COMDAT ??_C@_0BA@HGDBLFFH@SendLogin?5Error@
CONST	SEGMENT
??_C@_0BA@HGDBLFFH@SendLogin?5Error@ DB 'SendLogin Error', 00H ; `string'
CONST	ENDS
;	COMDAT ??_C@_0BA@HOEIMIKO@SendDirectEnter@
CONST	SEGMENT
??_C@_0BA@HOEIMIKO@SendDirectEnter@ DB 'SendDirectEnter', 00H ; `string'
CONST	ENDS
;	COMDAT ??_C@_0P@OOEAIINI@OnLoginFailure@
CONST	SEGMENT
??_C@_0P@OOEAIINI@OnLoginFailure@ DB 'OnLoginFailure', 00H ; `string'
CONST	ENDS
;	COMDAT ??_C@_03KJMMOONA@?$CIs?$CJ@
CONST	SEGMENT
??_C@_03KJMMOONA@?$CIs?$CJ@ DB '(s)', 00H		; `string'
CONST	ENDS
;	COMDAT ??_C@_0BB@JEKGEMCL@OnConnectFailure@
CONST	SEGMENT
??_C@_0BB@JEKGEMCL@OnConnectFailure@ DB 'OnConnectFailure', 00H ; `string'
CONST	ENDS
;	COMDAT ??_C@_07POIENIBA@Refresh@
CONST	SEGMENT
??_C@_07POIENIBA@Refresh@ DB 'Refresh', 00H		; `string'
CONST	ENDS
;	COMDAT ??_C@_0N@GCHAFKJJ@OnLoginStart@
CONST	SEGMENT
??_C@_0N@GCHAFKJJ@OnLoginStart@ DB 'OnLoginStart', 00H	; `string'
CONST	ENDS
;	COMDAT ??_C@_02HCKGKOFO@?$CI?$CJ@
CONST	SEGMENT
??_C@_02HCKGKOFO@?$CI?$CJ@ DB '()', 00H			; `string'
CONST	ENDS
;	COMDAT ??_C@_0BM@GIOJNFMI@?$CD?$CD?5Network?5?9?5Login?5Phase?5?$CD?$CD@
CONST	SEGMENT
??_C@_0BM@GIOJNFMI@?$CD?$CD?5Network?5?9?5Login?5Phase?5?$CD?$CD@ DB '## '
	DB	'Network - Login Phase ##', 00H		; `string'
CONST	ENDS
;	COMDAT ??_C@_05DHEMANOL@Login@
CONST	SEGMENT
??_C@_05DHEMANOL@Login@ DB 'Login', 00H			; `string'
CONST	ENDS
;	COMDAT ??_R1A@?0A@EA@bad_array_new_length@std@@8
rdata$r	SEGMENT
??_R1A@?0A@EA@bad_array_new_length@std@@8 DD FLAT:??_R0?AVbad_array_new_length@std@@@8 ; std::bad_array_new_length::`RTTI Base Class Descriptor at (0,-1,0,64)'
	DD	02H
	DD	00H
	DD	0ffffffffH
	DD	00H
	DD	040H
	DD	FLAT:??_R3bad_array_new_length@std@@8
rdata$r	ENDS
;	COMDAT ??_R2bad_array_new_length@std@@8
rdata$r	SEGMENT
??_R2bad_array_new_length@std@@8 DD FLAT:??_R1A@?0A@EA@bad_array_new_length@std@@8 ; std::bad_array_new_length::`RTTI Base Class Array'
	DD	FLAT:??_R1A@?0A@EA@bad_alloc@std@@8
	DD	FLAT:??_R1A@?0A@EA@exception@std@@8
rdata$r	ENDS
;	COMDAT ??_R3bad_array_new_length@std@@8
rdata$r	SEGMENT
??_R3bad_array_new_length@std@@8 DD 00H			; std::bad_array_new_length::`RTTI Class Hierarchy Descriptor'
	DD	00H
	DD	03H
	DD	FLAT:??_R2bad_array_new_length@std@@8
rdata$r	ENDS
;	COMDAT ??_R4bad_array_new_length@std@@6B@
rdata$r	SEGMENT
??_R4bad_array_new_length@std@@6B@ DD 00H		; std::bad_array_new_length::`RTTI Complete Object Locator'
	DD	00H
	DD	00H
	DD	FLAT:??_R0?AVbad_array_new_length@std@@@8
	DD	FLAT:??_R3bad_array_new_length@std@@8
rdata$r	ENDS
;	COMDAT ??_R1A@?0A@EA@bad_alloc@std@@8
rdata$r	SEGMENT
??_R1A@?0A@EA@bad_alloc@std@@8 DD FLAT:??_R0?AVbad_alloc@std@@@8 ; std::bad_alloc::`RTTI Base Class Descriptor at (0,-1,0,64)'
	DD	01H
	DD	00H
	DD	0ffffffffH
	DD	00H
	DD	040H
	DD	FLAT:??_R3bad_alloc@std@@8
rdata$r	ENDS
;	COMDAT ??_R2bad_alloc@std@@8
rdata$r	SEGMENT
??_R2bad_alloc@std@@8 DD FLAT:??_R1A@?0A@EA@bad_alloc@std@@8 ; std::bad_alloc::`RTTI Base Class Array'
	DD	FLAT:??_R1A@?0A@EA@exception@std@@8
rdata$r	ENDS
;	COMDAT ??_R3bad_alloc@std@@8
rdata$r	SEGMENT
??_R3bad_alloc@std@@8 DD 00H				; std::bad_alloc::`RTTI Class Hierarchy Descriptor'
	DD	00H
	DD	02H
	DD	FLAT:??_R2bad_alloc@std@@8
rdata$r	ENDS
;	COMDAT ??_R4bad_alloc@std@@6B@
rdata$r	SEGMENT
??_R4bad_alloc@std@@6B@ DD 00H				; std::bad_alloc::`RTTI Complete Object Locator'
	DD	00H
	DD	00H
	DD	FLAT:??_R0?AVbad_alloc@std@@@8
	DD	FLAT:??_R3bad_alloc@std@@8
rdata$r	ENDS
;	COMDAT ??_R1A@?0A@EA@exception@std@@8
rdata$r	SEGMENT
??_R1A@?0A@EA@exception@std@@8 DD FLAT:??_R0?AVexception@std@@@8 ; std::exception::`RTTI Base Class Descriptor at (0,-1,0,64)'
	DD	00H
	DD	00H
	DD	0ffffffffH
	DD	00H
	DD	040H
	DD	FLAT:??_R3exception@std@@8
rdata$r	ENDS
;	COMDAT ??_R2exception@std@@8
rdata$r	SEGMENT
??_R2exception@std@@8 DD FLAT:??_R1A@?0A@EA@exception@std@@8 ; std::exception::`RTTI Base Class Array'
rdata$r	ENDS
;	COMDAT ??_R3exception@std@@8
rdata$r	SEGMENT
??_R3exception@std@@8 DD 00H				; std::exception::`RTTI Class Hierarchy Descriptor'
	DD	00H
	DD	01H
	DD	FLAT:??_R2exception@std@@8
rdata$r	ENDS
;	COMDAT ??_R4exception@std@@6B@
rdata$r	SEGMENT
??_R4exception@std@@6B@ DD 00H				; std::exception::`RTTI Complete Object Locator'
	DD	00H
	DD	00H
	DD	FLAT:??_R0?AVexception@std@@@8
	DD	FLAT:??_R3exception@std@@8
rdata$r	ENDS
;	COMDAT ??_C@_00CNPNBAHC@@
CONST	SEGMENT
??_C@_00CNPNBAHC@@ DB 00H				; `string'
CONST	ENDS
;	COMDAT ??_C@_0BA@JFNIOLAK@string?5too?5long@
CONST	SEGMENT
??_C@_0BA@JFNIOLAK@string?5too?5long@ DB 'string too long', 00H ; `string'
CONST	ENDS
;	COMDAT __CT??_R0?AVexception@std@@@8??0exception@std@@QAE@ABV01@@Z12
xdata$x	SEGMENT
__CT??_R0?AVexception@std@@@8??0exception@std@@QAE@ABV01@@Z12 DD 00H
	DD	FLAT:??_R0?AVexception@std@@@8
	DD	00H
	DD	0ffffffffH
	ORG $+4
	DD	0cH
	DD	FLAT:??0exception@std@@QAE@ABV01@@Z
xdata$x	ENDS
;	COMDAT ??_R0?AVexception@std@@@8
data$r	SEGMENT
??_R0?AVexception@std@@@8 DD FLAT:??_7type_info@@6B@	; std::exception `RTTI Type Descriptor'
	DD	00H
	DB	'.?AVexception@std@@', 00H
data$r	ENDS
;	COMDAT __CT??_R0?AVbad_alloc@std@@@8??0bad_alloc@std@@QAE@ABV01@@Z12
xdata$x	SEGMENT
__CT??_R0?AVbad_alloc@std@@@8??0bad_alloc@std@@QAE@ABV01@@Z12 DD 010H
	DD	FLAT:??_R0?AVbad_alloc@std@@@8
	DD	00H
	DD	0ffffffffH
	ORG $+4
	DD	0cH
	DD	FLAT:??0bad_alloc@std@@QAE@ABV01@@Z
xdata$x	ENDS
;	COMDAT ??_R0?AVbad_alloc@std@@@8
data$r	SEGMENT
??_R0?AVbad_alloc@std@@@8 DD FLAT:??_7type_info@@6B@	; std::bad_alloc `RTTI Type Descriptor'
	DD	00H
	DB	'.?AVbad_alloc@std@@', 00H
data$r	ENDS
;	COMDAT __CT??_R0?AVbad_array_new_length@std@@@8??0bad_array_new_length@std@@QAE@ABV01@@Z12
xdata$x	SEGMENT
__CT??_R0?AVbad_array_new_length@std@@@8??0bad_array_new_length@std@@QAE@ABV01@@Z12 DD 00H
	DD	FLAT:??_R0?AVbad_array_new_length@std@@@8
	DD	00H
	DD	0ffffffffH
	ORG $+4
	DD	0cH
	DD	FLAT:??0bad_array_new_length@std@@QAE@ABV01@@Z
xdata$x	ENDS
;	COMDAT ??_R0?AVbad_array_new_length@std@@@8
data$r	SEGMENT
??_R0?AVbad_array_new_length@std@@@8 DD FLAT:??_7type_info@@6B@ ; std::bad_array_new_length `RTTI Type Descriptor'
	DD	00H
	DB	'.?AVbad_array_new_length@std@@', 00H
data$r	ENDS
;	COMDAT __CTA3?AVbad_array_new_length@std@@
xdata$x	SEGMENT
__CTA3?AVbad_array_new_length@std@@ DD 03H
	DD	FLAT:__CT??_R0?AVbad_array_new_length@std@@@8??0bad_array_new_length@std@@QAE@ABV01@@Z12
	DD	FLAT:__CT??_R0?AVbad_alloc@std@@@8??0bad_alloc@std@@QAE@ABV01@@Z12
	DD	FLAT:__CT??_R0?AVexception@std@@@8??0exception@std@@QAE@ABV01@@Z12
xdata$x	ENDS
;	COMDAT __TI3?AVbad_array_new_length@std@@
xdata$x	SEGMENT
__TI3?AVbad_array_new_length@std@@ DD 00H
	DD	FLAT:??1bad_array_new_length@std@@UAE@XZ
	DD	00H
	DD	FLAT:__CTA3?AVbad_array_new_length@std@@
xdata$x	ENDS
;	COMDAT ??_C@_0BF@KINCDENJ@bad?5array?5new?5length@
CONST	SEGMENT
??_C@_0BF@KINCDENJ@bad?5array?5new?5length@ DB 'bad array new length', 00H ; `string'
CONST	ENDS
;	COMDAT ??_7bad_array_new_length@std@@6B@
CONST	SEGMENT
??_7bad_array_new_length@std@@6B@ DD FLAT:??_R4bad_array_new_length@std@@6B@ ; std::bad_array_new_length::`vftable'
	DD	FLAT:??_Ebad_array_new_length@std@@UAEPAXI@Z
	DD	FLAT:?what@exception@std@@UBEPBDXZ
CONST	ENDS
;	COMDAT ??_7bad_alloc@std@@6B@
CONST	SEGMENT
??_7bad_alloc@std@@6B@ DD FLAT:??_R4bad_alloc@std@@6B@	; std::bad_alloc::`vftable'
	DD	FLAT:??_Ebad_alloc@std@@UAEPAXI@Z
	DD	FLAT:?what@exception@std@@UBEPBDXZ
CONST	ENDS
;	COMDAT ??_C@_0BC@EOODALEL@Unknown?5exception@
CONST	SEGMENT
??_C@_0BC@EOODALEL@Unknown?5exception@ DB 'Unknown exception', 00H ; `string'
CONST	ENDS
;	COMDAT ??_7exception@std@@6B@
CONST	SEGMENT
??_7exception@std@@6B@ DD FLAT:??_R4exception@std@@6B@	; std::exception::`vftable'
	DD	FLAT:??_Eexception@std@@UAEPAXI@Z
	DD	FLAT:?what@exception@std@@UBEPBDXZ
CONST	ENDS
; Function compile flags: /Ogtp
; File C:\Program Files (x86)\Microsoft Visual Studio\2019\Community\VC\Tools\MSVC\14.28.29333\include\xstring
;	COMDAT ??$?8DU?$char_traits@D@std@@V?$allocator@D@1@@std@@YA_NQBDABV?$basic_string@DU?$char_traits@D@std@@V?$allocator@D@2@@0@@Z
_TEXT	SEGMENT
__Left$ = 8						; size = 4
__Right$ = 12						; size = 4
??$?8DU?$char_traits@D@std@@V?$allocator@D@1@@std@@YA_NQBDABV?$basic_string@DU?$char_traits@D@std@@V?$allocator@D@2@@0@@Z PROC ; std::operator==<char,std::char_traits<char>,std::allocator<char> >, COMDAT

; 4559 : _NODISCARD bool operator==(_In_z_ const _Elem* const _Left, const basic_string<_Elem, _Traits, _Alloc>& _Right) {

  00000	55		 push	 ebp
  00001	8b ec		 mov	 ebp, esp
  00003	56		 push	 esi

; 389  :         return _CSTD strlen(reinterpret_cast<const char*>(_First));

  00004	8b 75 08	 mov	 esi, DWORD PTR __Left$[ebp]

; 4559 : _NODISCARD bool operator==(_In_z_ const _Elem* const _Left, const basic_string<_Elem, _Traits, _Alloc>& _Right) {

  00007	57		 push	 edi

; 389  :         return _CSTD strlen(reinterpret_cast<const char*>(_First));

  00008	8b fe		 mov	 edi, esi
  0000a	8d 4f 01	 lea	 ecx, DWORD PTR [edi+1]
  0000d	0f 1f 00	 npad	 3
$LL18@operator:
  00010	8a 07		 mov	 al, BYTE PTR [edi]
  00012	47		 inc	 edi
  00013	84 c0		 test	 al, al
  00015	75 f9		 jne	 SHORT $LL18@operator

; 2218 :         const value_type* _Result = _Bx._Buf;

  00017	8b 55 0c	 mov	 edx, DWORD PTR __Right$[ebp]

; 389  :         return _CSTD strlen(reinterpret_cast<const char*>(_First));

  0001a	2b f9		 sub	 edi, ecx

; 2218 :         const value_type* _Result = _Bx._Buf;

  0001c	8b ca		 mov	 ecx, edx

; 2227 :         return _BUF_SIZE <= _Myres;

  0001e	83 7a 14 10	 cmp	 DWORD PTR [edx+20], 16	; 00000010H

; 2219 :         if (_Large_string_engaged()) {

  00022	72 02		 jb	 SHORT $LN8@operator

; 2220 :             _Result = _Unfancy(_Bx._Ptr);

  00024	8b 0a		 mov	 ecx, DWORD PTR [edx]
$LN8@operator:

; 4180 :         return _Traits_equal<_Traits>(_Mypair._Myval2._Myptr(), _Mypair._Myval2._Mysize, _Ptr, _Traits::length(_Ptr));

  00026	8b 52 10	 mov	 edx, DWORD PTR [edx+16]

; 561  :     return _Left_size == _Right_size && _Traits::compare(_Left, _Right, _Left_size) == 0;

  00029	3b d7		 cmp	 edx, edi
  0002b	75 5b		 jne	 SHORT $LN14@operator

; 369  :         return _CSTD memcmp(_First1, _First2, _Count);

  0002d	83 ea 04	 sub	 edx, 4
  00030	72 11		 jb	 SHORT $LN21@operator
$LL22@operator:
  00032	8b 01		 mov	 eax, DWORD PTR [ecx]
  00034	3b 06		 cmp	 eax, DWORD PTR [esi]
  00036	75 10		 jne	 SHORT $LN20@operator
  00038	83 c1 04	 add	 ecx, 4
  0003b	83 c6 04	 add	 esi, 4
  0003e	83 ea 04	 sub	 edx, 4
  00041	73 ef		 jae	 SHORT $LL22@operator
$LN21@operator:
  00043	83 fa fc	 cmp	 edx, -4			; fffffffcH
  00046	74 34		 je	 SHORT $LN19@operator
$LN20@operator:
  00048	8a 01		 mov	 al, BYTE PTR [ecx]
  0004a	3a 06		 cmp	 al, BYTE PTR [esi]
  0004c	75 27		 jne	 SHORT $LN23@operator
  0004e	83 fa fd	 cmp	 edx, -3			; fffffffdH
  00051	74 29		 je	 SHORT $LN19@operator
  00053	8a 41 01	 mov	 al, BYTE PTR [ecx+1]
  00056	3a 46 01	 cmp	 al, BYTE PTR [esi+1]
  00059	75 1a		 jne	 SHORT $LN23@operator
  0005b	83 fa fe	 cmp	 edx, -2			; fffffffeH
  0005e	74 1c		 je	 SHORT $LN19@operator
  00060	8a 41 02	 mov	 al, BYTE PTR [ecx+2]
  00063	3a 46 02	 cmp	 al, BYTE PTR [esi+2]
  00066	75 0d		 jne	 SHORT $LN23@operator
  00068	83 fa ff	 cmp	 edx, -1
  0006b	74 0f		 je	 SHORT $LN19@operator
  0006d	8a 41 03	 mov	 al, BYTE PTR [ecx+3]
  00070	3a 46 03	 cmp	 al, BYTE PTR [esi+3]
  00073	74 07		 je	 SHORT $LN19@operator
$LN23@operator:
  00075	1b c0		 sbb	 eax, eax
  00077	83 c8 01	 or	 eax, 1
  0007a	eb 02		 jmp	 SHORT $LN24@operator
$LN19@operator:
  0007c	33 c0		 xor	 eax, eax
$LN24@operator:

; 561  :     return _Left_size == _Right_size && _Traits::compare(_Left, _Right, _Left_size) == 0;

  0007e	85 c0		 test	 eax, eax
  00080	75 06		 jne	 SHORT $LN14@operator
  00082	5f		 pop	 edi
  00083	b0 01		 mov	 al, 1

; 4560 :     return _Right._Equal(_Left);
; 4561 : }

  00085	5e		 pop	 esi
  00086	5d		 pop	 ebp
  00087	c3		 ret	 0
$LN14@operator:
  00088	5f		 pop	 edi

; 561  :     return _Left_size == _Right_size && _Traits::compare(_Left, _Right, _Left_size) == 0;

  00089	32 c0		 xor	 al, al

; 4560 :     return _Right._Equal(_Left);
; 4561 : }

  0008b	5e		 pop	 esi
  0008c	5d		 pop	 ebp
  0008d	c3		 ret	 0
??$?8DU?$char_traits@D@std@@V?$allocator@D@1@@std@@YA_NQBDABV?$basic_string@DU?$char_traits@D@std@@V?$allocator@D@2@@0@@Z ENDP ; std::operator==<char,std::char_traits<char>,std::allocator<char> >
_TEXT	ENDS
; Function compile flags: /Ogtp
; File C:\Program Files (x86)\Microsoft Visual Studio\2019\Community\VC\Tools\MSVC\14.28.29333\include\xstring
;	COMDAT ??$?9DU?$char_traits@D@std@@V?$allocator@D@1@@std@@YA_NQBDABV?$basic_string@DU?$char_traits@D@std@@V?$allocator@D@2@@0@@Z
_TEXT	SEGMENT
__Left$ = 8						; size = 4
__Right$ = 12						; size = 4
??$?9DU?$char_traits@D@std@@V?$allocator@D@1@@std@@YA_NQBDABV?$basic_string@DU?$char_traits@D@std@@V?$allocator@D@2@@0@@Z PROC ; std::operator!=<char,std::char_traits<char>,std::allocator<char> >, COMDAT

; 4575 : _NODISCARD bool operator!=(_In_z_ const _Elem* const _Left, const basic_string<_Elem, _Traits, _Alloc>& _Right) {

  00000	55		 push	 ebp
  00001	8b ec		 mov	 ebp, esp

; 4576 :     return !(_Left == _Right);

  00003	ff 75 0c	 push	 DWORD PTR __Right$[ebp]
  00006	ff 75 08	 push	 DWORD PTR __Left$[ebp]
  00009	e8 00 00 00 00	 call	 ??$?8DU?$char_traits@D@std@@V?$allocator@D@1@@std@@YA_NQBDABV?$basic_string@DU?$char_traits@D@std@@V?$allocator@D@2@@0@@Z ; std::operator==<char,std::char_traits<char>,std::allocator<char> >
  0000e	83 c4 08	 add	 esp, 8
  00011	34 01		 xor	 al, 1

; 4577 : }

  00013	5d		 pop	 ebp
  00014	c3		 ret	 0
??$?9DU?$char_traits@D@std@@V?$allocator@D@1@@std@@YA_NQBDABV?$basic_string@DU?$char_traits@D@std@@V?$allocator@D@2@@0@@Z ENDP ; std::operator!=<char,std::char_traits<char>,std::allocator<char> >
_TEXT	ENDS
; Function compile flags: /Ogtp
; File D:\Metin2 Server Files\mainline\SRC_2014\Metin2Client\UserInterface\PythonNetworkStream.h
;	COMDAT ?__LeaveLoginPhase@CPythonNetworkStream@@IAEXXZ
_TEXT	SEGMENT
?__LeaveLoginPhase@CPythonNetworkStream@@IAEXXZ PROC	; CPythonNetworkStream::__LeaveLoginPhase, COMDAT
; _this$ = ecx

; 591  : 		void __LeaveLoginPhase() {}

  00000	c2 00 00	 ret	 0
?__LeaveLoginPhase@CPythonNetworkStream@@IAEXXZ ENDP	; CPythonNetworkStream::__LeaveLoginPhase
_TEXT	ENDS
; Function compile flags: /Ogtp
; File D:\Metin2 Server Files\mainline\SRC_2014\Metin2Client\UserInterface\PythonNetworkStreamPhaseLogin.cpp
;	COMDAT ?OnConnectFailure@CPythonNetworkStream@@MAEXXZ
_TEXT	SEGMENT
?OnConnectFailure@CPythonNetworkStream@@MAEXXZ PROC	; CPythonNetworkStream::OnConnectFailure, COMDAT
; _this$ = ecx

; 212  : {

  00000	56		 push	 esi
  00001	8b f1		 mov	 esi, ecx

; 213  : 	if (__DirectEnterMode_IsSet())

  00003	e8 00 00 00 00	 call	 ?__DirectEnterMode_IsSet@CPythonNetworkStream@@AAE_NXZ ; CPythonNetworkStream::__DirectEnterMode_IsSet
  00008	84 c0		 test	 al, al
  0000a	74 08		 je	 SHORT $LN2@OnConnectF

; 214  : 	{
; 215  : 		ClosePhase();

  0000c	8b ce		 mov	 ecx, esi
  0000e	5e		 pop	 esi
  0000f	e9 00 00 00 00	 jmp	 ?ClosePhase@CPythonNetworkStream@@QAEXXZ ; CPythonNetworkStream::ClosePhase
$LN2@OnConnectF:

; 216  : 	}
; 217  : 	else
; 218  : 	{
; 219  : 		PyCallClassMemberFunc(m_apoPhaseWnd[PHASE_WINDOW_LOGIN], "OnConnectFailure", Py_BuildValue("()"));	

  00014	68 00 00 00 00	 push	 OFFSET ??_C@_02HCKGKOFO@?$CI?$CJ@
  00019	ff 15 00 00 00
	00		 call	 DWORD PTR __imp__Py_BuildValue
  0001f	50		 push	 eax
  00020	68 00 00 00 00	 push	 OFFSET ??_C@_0BB@JEKGEMCL@OnConnectFailure@
  00025	ff b6 80 01 00
	00		 push	 DWORD PTR [esi+384]
  0002b	e8 00 00 00 00	 call	 ?PyCallClassMemberFunc@@YA_NPAU_object@@PBD0@Z ; PyCallClassMemberFunc
  00030	83 c4 10	 add	 esp, 16			; 00000010H
  00033	5e		 pop	 esi

; 220  : 	}
; 221  : }

  00034	c3		 ret	 0
?OnConnectFailure@CPythonNetworkStream@@MAEXXZ ENDP	; CPythonNetworkStream::OnConnectFailure
_TEXT	ENDS
; Function compile flags: /Ogtp
; File D:\Metin2 Server Files\mainline\SRC_2014\Metin2Client\UserInterface\PythonNetworkStreamPhaseLogin.cpp
;	COMDAT ?__RecvLoginKeyPacket@CPythonNetworkStream@@IAE_NXZ
_TEXT	SEGMENT
_kLoginKeyPacket$ = -8					; size = 5
?__RecvLoginKeyPacket@CPythonNetworkStream@@IAE_NXZ PROC ; CPythonNetworkStream::__RecvLoginKeyPacket, COMDAT
; _this$ = ecx

; 407  : {

  00000	55		 push	 ebp
  00001	8b ec		 mov	 ebp, esp
  00003	83 ec 08	 sub	 esp, 8

; 408  : 	TPacketGCLoginKey kLoginKeyPacket;
; 409  : 	if (!Recv(sizeof(TPacketGCLoginKey), &kLoginKeyPacket))

  00006	8d 45 f8	 lea	 eax, DWORD PTR _kLoginKeyPacket$[ebp]
  00009	56		 push	 esi
  0000a	50		 push	 eax
  0000b	6a 05		 push	 5
  0000d	8b f1		 mov	 esi, ecx
  0000f	e8 00 00 00 00	 call	 ?Recv@CNetworkStream@@QAE_NHPAX@Z ; CNetworkStream::Recv
  00014	84 c0		 test	 al, al
  00016	75 05		 jne	 SHORT $LN2@RecvLoginK
  00018	5e		 pop	 esi

; 416  : }

  00019	8b e5		 mov	 esp, ebp
  0001b	5d		 pop	 ebp
  0001c	c3		 ret	 0
$LN2@RecvLoginK:

; 410  : 		return false;
; 411  : 
; 412  : 	m_dwLoginKey = kLoginKeyPacket.dwLoginKey;

  0001d	8b 45 f9	 mov	 eax, DWORD PTR _kLoginKeyPacket$[ebp+1]
  00020	89 86 24 01 00
	00		 mov	 DWORD PTR [esi+292], eax

; 413  : 	m_isWaitLoginKey = FALSE;
; 414  : 
; 415  : 	return true;

  00026	b0 01		 mov	 al, 1
  00028	c7 86 28 01 00
	00 00 00 00 00	 mov	 DWORD PTR [esi+296], 0
  00032	5e		 pop	 esi

; 416  : }

  00033	8b e5		 mov	 esp, ebp
  00035	5d		 pop	 ebp
  00036	c3		 ret	 0
?__RecvLoginKeyPacket@CPythonNetworkStream@@IAE_NXZ ENDP ; CPythonNetworkStream::__RecvLoginKeyPacket
_TEXT	ENDS
; Function compile flags: /Ogtp
; File D:\Metin2 Server Files\mainline\SRC_2014\Metin2Client\UserInterface\PythonNetworkStreamPhaseLogin.cpp
;	COMDAT ?__RecvNEWCIBNPasspodFailurePacket@CPythonNetworkStream@@IAE_NXZ
_TEXT	SEGMENT
_kFailurePacket$ = -136					; size = 130
__$ArrayPad$ = -4					; size = 4
?__RecvNEWCIBNPasspodFailurePacket@CPythonNetworkStream@@IAE_NXZ PROC ; CPythonNetworkStream::__RecvNEWCIBNPasspodFailurePacket, COMDAT
; _this$ = ecx

; 343  : {

  00000	55		 push	 ebp
  00001	8b ec		 mov	 ebp, esp
  00003	81 ec 88 00 00
	00		 sub	 esp, 136		; 00000088H
  00009	a1 00 00 00 00	 mov	 eax, DWORD PTR ___security_cookie
  0000e	33 c5		 xor	 eax, ebp
  00010	89 45 fc	 mov	 DWORD PTR __$ArrayPad$[ebp], eax
  00013	56		 push	 esi

; 344  : 	TPacketGCNEWCIBNPasspodFailure kFailurePacket;
; 345  : 	if (!Recv(sizeof(kFailurePacket), &kFailurePacket))

  00014	8d 85 78 ff ff
	ff		 lea	 eax, DWORD PTR _kFailurePacket$[ebp]
  0001a	8b f1		 mov	 esi, ecx
  0001c	50		 push	 eax
  0001d	68 82 00 00 00	 push	 130			; 00000082H
  00022	e8 00 00 00 00	 call	 ?Recv@CNetworkStream@@QAE_NHPAX@Z ; CNetworkStream::Recv
  00027	84 c0		 test	 al, al
  00029	75 0f		 jne	 SHORT $LN2@RecvNEWCIB
  0002b	5e		 pop	 esi

; 349  : 	return true;
; 350  : }

  0002c	8b 4d fc	 mov	 ecx, DWORD PTR __$ArrayPad$[ebp]
  0002f	33 cd		 xor	 ecx, ebp
  00031	e8 00 00 00 00	 call	 @__security_check_cookie@4
  00036	8b e5		 mov	 esp, ebp
  00038	5d		 pop	 ebp
  00039	c3		 ret	 0
$LN2@RecvNEWCIB:

; 346  : 		return false;
; 347  : 
; 348  : 	PyCallClassMemberFunc(m_apoPhaseWnd[PHASE_WINDOW_LOGIN], "BINARY_OnNEWCIBNPasspodFailure", Py_BuildValue("()"));	

  0003a	68 00 00 00 00	 push	 OFFSET ??_C@_02HCKGKOFO@?$CI?$CJ@
  0003f	ff 15 00 00 00
	00		 call	 DWORD PTR __imp__Py_BuildValue
  00045	50		 push	 eax
  00046	68 00 00 00 00	 push	 OFFSET ??_C@_0BP@LPFBEHCD@BINARY_OnNEWCIBNPasspodFailure@
  0004b	ff b6 80 01 00
	00		 push	 DWORD PTR [esi+384]
  00051	e8 00 00 00 00	 call	 ?PyCallClassMemberFunc@@YA_NPAU_object@@PBD0@Z ; PyCallClassMemberFunc

; 349  : 	return true;
; 350  : }

  00056	8b 4d fc	 mov	 ecx, DWORD PTR __$ArrayPad$[ebp]
  00059	83 c4 10	 add	 esp, 16			; 00000010H
  0005c	33 cd		 xor	 ecx, ebp
  0005e	b0 01		 mov	 al, 1
  00060	5e		 pop	 esi
  00061	e8 00 00 00 00	 call	 @__security_check_cookie@4
  00066	8b e5		 mov	 esp, ebp
  00068	5d		 pop	 ebp
  00069	c3		 ret	 0
?__RecvNEWCIBNPasspodFailurePacket@CPythonNetworkStream@@IAE_NXZ ENDP ; CPythonNetworkStream::__RecvNEWCIBNPasspodFailurePacket
_TEXT	ENDS
; Function compile flags: /Ogtp
; File D:\Metin2 Server Files\mainline\SRC_2014\Metin2Client\UserInterface\PythonNetworkStreamPhaseLogin.cpp
;	COMDAT ?__RecvNEWCIBNPasspodRequestPacket@CPythonNetworkStream@@IAE_NXZ
_TEXT	SEGMENT
_kRequestPacket$ = -1					; size = 1
?__RecvNEWCIBNPasspodRequestPacket@CPythonNetworkStream@@IAE_NXZ PROC ; CPythonNetworkStream::__RecvNEWCIBNPasspodRequestPacket, COMDAT
; _this$ = ecx

; 333  : {

  00000	55		 push	 ebp
  00001	8b ec		 mov	 ebp, esp
  00003	51		 push	 ecx
  00004	56		 push	 esi

; 334  : 	TPacketGCNEWCIBNPasspodRequest kRequestPacket;
; 335  : 	if (!Recv(sizeof(kRequestPacket), &kRequestPacket))

  00005	8d 45 ff	 lea	 eax, DWORD PTR _kRequestPacket$[ebp]
  00008	8b f1		 mov	 esi, ecx
  0000a	50		 push	 eax
  0000b	6a 01		 push	 1
  0000d	e8 00 00 00 00	 call	 ?Recv@CNetworkStream@@QAE_NHPAX@Z ; CNetworkStream::Recv
  00012	84 c0		 test	 al, al
  00014	75 05		 jne	 SHORT $LN2@RecvNEWCIB
  00016	5e		 pop	 esi

; 340  : }

  00017	8b e5		 mov	 esp, ebp
  00019	5d		 pop	 ebp
  0001a	c3		 ret	 0
$LN2@RecvNEWCIB:

; 336  : 		return false;
; 337  : 
; 338  : 	PyCallClassMemberFunc(m_apoPhaseWnd[PHASE_WINDOW_LOGIN], "BINARY_OnNEWCIBNPasspodRequest", Py_BuildValue("()"));	

  0001b	68 00 00 00 00	 push	 OFFSET ??_C@_02HCKGKOFO@?$CI?$CJ@
  00020	ff 15 00 00 00
	00		 call	 DWORD PTR __imp__Py_BuildValue
  00026	50		 push	 eax
  00027	68 00 00 00 00	 push	 OFFSET ??_C@_0BP@DDJIDHFM@BINARY_OnNEWCIBNPasspodRequest@
  0002c	ff b6 80 01 00
	00		 push	 DWORD PTR [esi+384]
  00032	e8 00 00 00 00	 call	 ?PyCallClassMemberFunc@@YA_NPAU_object@@PBD0@Z ; PyCallClassMemberFunc
  00037	83 c4 10	 add	 esp, 16			; 00000010H

; 339  : 	return true;

  0003a	b0 01		 mov	 al, 1
  0003c	5e		 pop	 esi

; 340  : }

  0003d	8b e5		 mov	 esp, ebp
  0003f	5d		 pop	 ebp
  00040	c3		 ret	 0
?__RecvNEWCIBNPasspodRequestPacket@CPythonNetworkStream@@IAE_NXZ ENDP ; CPythonNetworkStream::__RecvNEWCIBNPasspodRequestPacket
_TEXT	ENDS
; Function compile flags: /Ogtp
; File D:\Metin2 Server Files\mainline\SRC_2014\Metin2Client\UserInterface\PythonNetworkStreamPhaseLogin.cpp
;	COMDAT ?__RecvRunupMatrixQuizPacket@CPythonNetworkStream@@IAE_NXZ
_TEXT	SEGMENT
_kMatrixQuizPacket$ = -16				; size = 10
__$ArrayPad$ = -4					; size = 4
?__RecvRunupMatrixQuizPacket@CPythonNetworkStream@@IAE_NXZ PROC ; CPythonNetworkStream::__RecvRunupMatrixQuizPacket, COMDAT
; _this$ = ecx

; 309  : {

  00000	55		 push	 ebp
  00001	8b ec		 mov	 ebp, esp
  00003	83 ec 10	 sub	 esp, 16			; 00000010H
  00006	a1 00 00 00 00	 mov	 eax, DWORD PTR ___security_cookie
  0000b	33 c5		 xor	 eax, ebp
  0000d	89 45 fc	 mov	 DWORD PTR __$ArrayPad$[ebp], eax
  00010	56		 push	 esi

; 310  : 	TPacketGCRunupMatrixQuiz kMatrixQuizPacket;
; 311  : 	if (!Recv(sizeof(TPacketGCRunupMatrixQuiz), &kMatrixQuizPacket))

  00011	8d 45 f0	 lea	 eax, DWORD PTR _kMatrixQuizPacket$[ebp]
  00014	8b f1		 mov	 esi, ecx
  00016	50		 push	 eax
  00017	6a 0a		 push	 10			; 0000000aH
  00019	e8 00 00 00 00	 call	 ?Recv@CNetworkStream@@QAE_NHPAX@Z ; CNetworkStream::Recv
  0001e	84 c0		 test	 al, al
  00020	75 0f		 jne	 SHORT $LN2@RecvRunupM
  00022	5e		 pop	 esi

; 315  : 	return true;
; 316  : }

  00023	8b 4d fc	 mov	 ecx, DWORD PTR __$ArrayPad$[ebp]
  00026	33 cd		 xor	 ecx, ebp
  00028	e8 00 00 00 00	 call	 @__security_check_cookie@4
  0002d	8b e5		 mov	 esp, ebp
  0002f	5d		 pop	 ebp
  00030	c3		 ret	 0
$LN2@RecvRunupM:

; 312  : 		return false;
; 313  : 
; 314  : 	PyCallClassMemberFunc(m_apoPhaseWnd[PHASE_WINDOW_LOGIN], "BINARY_OnRunupMatrixQuiz", Py_BuildValue("(s)", kMatrixQuizPacket.szQuiz));	

  00031	8d 45 f1	 lea	 eax, DWORD PTR _kMatrixQuizPacket$[ebp+1]
  00034	50		 push	 eax
  00035	68 00 00 00 00	 push	 OFFSET ??_C@_03KJMMOONA@?$CIs?$CJ@
  0003a	ff 15 00 00 00
	00		 call	 DWORD PTR __imp__Py_BuildValue
  00040	50		 push	 eax
  00041	68 00 00 00 00	 push	 OFFSET ??_C@_0BJ@IENIHBKM@BINARY_OnRunupMatrixQuiz@
  00046	ff b6 80 01 00
	00		 push	 DWORD PTR [esi+384]
  0004c	e8 00 00 00 00	 call	 ?PyCallClassMemberFunc@@YA_NPAU_object@@PBD0@Z ; PyCallClassMemberFunc

; 315  : 	return true;
; 316  : }

  00051	8b 4d fc	 mov	 ecx, DWORD PTR __$ArrayPad$[ebp]
  00054	83 c4 14	 add	 esp, 20			; 00000014H
  00057	33 cd		 xor	 ecx, ebp
  00059	b0 01		 mov	 al, 1
  0005b	5e		 pop	 esi
  0005c	e8 00 00 00 00	 call	 @__security_check_cookie@4
  00061	8b e5		 mov	 esp, ebp
  00063	5d		 pop	 ebp
  00064	c3		 ret	 0
?__RecvRunupMatrixQuizPacket@CPythonNetworkStream@@IAE_NXZ ENDP ; CPythonNetworkStream::__RecvRunupMatrixQuizPacket
_TEXT	ENDS
; Function compile flags: /Ogtp
; File D:\Metin2 Server Files\mainline\SRC_2014\Metin2Client\UserInterface\PythonNetworkStreamPhaseLogin.cpp
;	COMDAT ?__RecvChinaMatrixCardPacket@CPythonNetworkStream@@IAE_NXZ
_TEXT	SEGMENT
_kMatrixCardPacket$ = -16				; size = 9
__$ArrayPad$ = -4					; size = 4
?__RecvChinaMatrixCardPacket@CPythonNetworkStream@@IAE_NXZ PROC ; CPythonNetworkStream::__RecvChinaMatrixCardPacket, COMDAT
; _this$ = ecx

; 389  : {

  00000	55		 push	 ebp
  00001	8b ec		 mov	 ebp, esp
  00003	83 ec 10	 sub	 esp, 16			; 00000010H
  00006	a1 00 00 00 00	 mov	 eax, DWORD PTR ___security_cookie
  0000b	33 c5		 xor	 eax, ebp
  0000d	89 45 fc	 mov	 DWORD PTR __$ArrayPad$[ebp], eax
  00010	56		 push	 esi

; 390  : 	TPacketGCChinaMatrixCard kMatrixCardPacket;
; 391  : 	if (!Recv(sizeof(TPacketGCChinaMatrixCard), &kMatrixCardPacket))

  00011	8d 45 f0	 lea	 eax, DWORD PTR _kMatrixCardPacket$[ebp]
  00014	8b f1		 mov	 esi, ecx
  00016	50		 push	 eax
  00017	6a 09		 push	 9
  00019	e8 00 00 00 00	 call	 ?Recv@CNetworkStream@@QAE_NHPAX@Z ; CNetworkStream::Recv
  0001e	84 c0		 test	 al, al
  00020	75 0f		 jne	 SHORT $LN2@RecvChinaM
  00022	5e		 pop	 esi

; 403  : 	return true;
; 404  : }

  00023	8b 4d fc	 mov	 ecx, DWORD PTR __$ArrayPad$[ebp]
  00026	33 cd		 xor	 ecx, ebp
  00028	e8 00 00 00 00	 call	 @__security_check_cookie@4
  0002d	8b e5		 mov	 esp, ebp
  0002f	5d		 pop	 ebp
  00030	c3		 ret	 0
$LN2@RecvChinaM:

; 392  : 		return false;
; 393  : 
; 394  : 	PyObject * pyValue = Py_BuildValue("(iiiiiiii)",	ROW(kMatrixCardPacket.dwRows, 0),

  00031	8b 4d f5	 mov	 ecx, DWORD PTR _kMatrixCardPacket$[ebp+5]
  00034	0f b6 c1	 movzx	 eax, cl
  00037	50		 push	 eax
  00038	8b c1		 mov	 eax, ecx
  0003a	c1 e8 08	 shr	 eax, 8
  0003d	0f b6 c0	 movzx	 eax, al
  00040	50		 push	 eax
  00041	8b c1		 mov	 eax, ecx
  00043	c1 e9 18	 shr	 ecx, 24			; 00000018H
  00046	c1 e8 10	 shr	 eax, 16			; 00000010H
  00049	0f b6 c0	 movzx	 eax, al
  0004c	50		 push	 eax
  0004d	51		 push	 ecx
  0004e	8b 4d f1	 mov	 ecx, DWORD PTR _kMatrixCardPacket$[ebp+1]
  00051	0f b6 c1	 movzx	 eax, cl
  00054	50		 push	 eax
  00055	8b c1		 mov	 eax, ecx
  00057	c1 e8 08	 shr	 eax, 8
  0005a	0f b6 c0	 movzx	 eax, al
  0005d	50		 push	 eax
  0005e	8b c1		 mov	 eax, ecx
  00060	c1 e9 18	 shr	 ecx, 24			; 00000018H
  00063	c1 e8 10	 shr	 eax, 16			; 00000010H
  00066	0f b6 c0	 movzx	 eax, al
  00069	50		 push	 eax
  0006a	51		 push	 ecx
  0006b	68 00 00 00 00	 push	 OFFSET ??_C@_0L@FKCIBGAB@?$CIiiiiiiii?$CJ@
  00070	ff 15 00 00 00
	00		 call	 DWORD PTR __imp__Py_BuildValue

; 395  : 														ROW(kMatrixCardPacket.dwRows, 1),
; 396  : 														ROW(kMatrixCardPacket.dwRows, 2),
; 397  : 														ROW(kMatrixCardPacket.dwRows, 3),
; 398  : 														COL(kMatrixCardPacket.dwCols, 0),
; 399  : 														COL(kMatrixCardPacket.dwCols, 1),
; 400  : 														COL(kMatrixCardPacket.dwCols, 2),
; 401  : 														COL(kMatrixCardPacket.dwCols, 3));
; 402  : 	PyCallClassMemberFunc(m_apoPhaseWnd[PHASE_WINDOW_LOGIN], "OnMatrixCard", pyValue);

  00076	50		 push	 eax
  00077	68 00 00 00 00	 push	 OFFSET ??_C@_0N@PIKEFLJP@OnMatrixCard@
  0007c	ff b6 80 01 00
	00		 push	 DWORD PTR [esi+384]
  00082	e8 00 00 00 00	 call	 ?PyCallClassMemberFunc@@YA_NPAU_object@@PBD0@Z ; PyCallClassMemberFunc

; 403  : 	return true;
; 404  : }

  00087	8b 4d fc	 mov	 ecx, DWORD PTR __$ArrayPad$[ebp]
  0008a	83 c4 30	 add	 esp, 48			; 00000030H
  0008d	33 cd		 xor	 ecx, ebp
  0008f	b0 01		 mov	 al, 1
  00091	5e		 pop	 esi
  00092	e8 00 00 00 00	 call	 @__security_check_cookie@4
  00097	8b e5		 mov	 esp, ebp
  00099	5d		 pop	 ebp
  0009a	c3		 ret	 0
?__RecvChinaMatrixCardPacket@CPythonNetworkStream@@IAE_NXZ ENDP ; CPythonNetworkStream::__RecvChinaMatrixCardPacket
_TEXT	ENDS
; Function compile flags: /Ogtp
; File D:\Metin2 Server Files\mainline\SRC_2014\Metin2Client\UserInterface\PythonNetworkStreamPhaseLogin.cpp
;	COMDAT ?__RecvEmpirePacket@CPythonNetworkStream@@IAE_NXZ
_TEXT	SEGMENT
_kPacketEmpire$ = -4					; size = 2
?__RecvEmpirePacket@CPythonNetworkStream@@IAE_NXZ PROC	; CPythonNetworkStream::__RecvEmpirePacket, COMDAT
; _this$ = ecx

; 145  : {

  00000	55		 push	 ebp
  00001	8b ec		 mov	 ebp, esp
  00003	51		 push	 ecx
  00004	56		 push	 esi

; 146  : 	TPacketGCEmpire kPacketEmpire;
; 147  : 	if (!Recv(sizeof(kPacketEmpire), &kPacketEmpire))

  00005	8d 45 fc	 lea	 eax, DWORD PTR _kPacketEmpire$[ebp]
  00008	8b f1		 mov	 esi, ecx
  0000a	50		 push	 eax
  0000b	6a 02		 push	 2
  0000d	e8 00 00 00 00	 call	 ?Recv@CNetworkStream@@QAE_NHPAX@Z ; CNetworkStream::Recv
  00012	84 c0		 test	 al, al
  00014	75 05		 jne	 SHORT $LN2@RecvEmpire
  00016	5e		 pop	 esi

; 152  : }

  00017	8b e5		 mov	 esp, ebp
  00019	5d		 pop	 ebp
  0001a	c3		 ret	 0
$LN2@RecvEmpire:

; 148  : 		return false;
; 149  : 
; 150  : 	m_dwEmpireID=kPacketEmpire.bEmpire;

  0001b	0f b6 45 fd	 movzx	 eax, BYTE PTR _kPacketEmpire$[ebp+1]
  0001f	89 86 b4 00 00
	00		 mov	 DWORD PTR [esi+180], eax

; 151  : 	return true;

  00025	b0 01		 mov	 al, 1
  00027	5e		 pop	 esi

; 152  : }

  00028	8b e5		 mov	 esp, ebp
  0002a	5d		 pop	 ebp
  0002b	c3		 ret	 0
?__RecvEmpirePacket@CPythonNetworkStream@@IAE_NXZ ENDP	; CPythonNetworkStream::__RecvEmpirePacket
_TEXT	ENDS
; Function compile flags: /Ogtp
; File D:\Metin2 Server Files\mainline\SRC_2014\Metin2Client\UserInterface\PythonNetworkStreamPhaseLogin.cpp
;	COMDAT ?__RecvLoginFailurePacket@CPythonNetworkStream@@IAE_NXZ
_TEXT	SEGMENT
_packet_failure$ = -16					; size = 10
__$ArrayPad$ = -4					; size = 4
?__RecvLoginFailurePacket@CPythonNetworkStream@@IAE_NXZ PROC ; CPythonNetworkStream::__RecvLoginFailurePacket, COMDAT
; _this$ = ecx

; 225  : {

  00000	55		 push	 ebp
  00001	8b ec		 mov	 ebp, esp
  00003	83 ec 10	 sub	 esp, 16			; 00000010H
  00006	a1 00 00 00 00	 mov	 eax, DWORD PTR ___security_cookie
  0000b	33 c5		 xor	 eax, ebp
  0000d	89 45 fc	 mov	 DWORD PTR __$ArrayPad$[ebp], eax
  00010	56		 push	 esi

; 226  : 	TPacketGCLoginFailure packet_failure;
; 227  : 	if (!Recv(sizeof(TPacketGCLoginFailure), &packet_failure))

  00011	8d 45 f0	 lea	 eax, DWORD PTR _packet_failure$[ebp]
  00014	8b f1		 mov	 esi, ecx
  00016	50		 push	 eax
  00017	6a 0a		 push	 10			; 0000000aH
  00019	e8 00 00 00 00	 call	 ?Recv@CNetworkStream@@QAE_NHPAX@Z ; CNetworkStream::Recv
  0001e	84 c0		 test	 al, al
  00020	75 0f		 jne	 SHORT $LN2@RecvLoginF
  00022	5e		 pop	 esi

; 231  : #ifdef _DEBUG
; 232  : 	Tracef(" RecvLoginFailurePacket : [%s]\n", packet_failure.szStatus);
; 233  : #endif
; 234  : 	return true;
; 235  : }

  00023	8b 4d fc	 mov	 ecx, DWORD PTR __$ArrayPad$[ebp]
  00026	33 cd		 xor	 ecx, ebp
  00028	e8 00 00 00 00	 call	 @__security_check_cookie@4
  0002d	8b e5		 mov	 esp, ebp
  0002f	5d		 pop	 ebp
  00030	c3		 ret	 0
$LN2@RecvLoginF:

; 228  : 		return false;
; 229  : 
; 230  : 	PyCallClassMemberFunc(m_apoPhaseWnd[PHASE_WINDOW_LOGIN], "OnLoginFailure", Py_BuildValue("(s)", packet_failure.szStatus));

  00031	8d 45 f1	 lea	 eax, DWORD PTR _packet_failure$[ebp+1]
  00034	50		 push	 eax
  00035	68 00 00 00 00	 push	 OFFSET ??_C@_03KJMMOONA@?$CIs?$CJ@
  0003a	ff 15 00 00 00
	00		 call	 DWORD PTR __imp__Py_BuildValue
  00040	50		 push	 eax
  00041	68 00 00 00 00	 push	 OFFSET ??_C@_0P@OOEAIINI@OnLoginFailure@
  00046	ff b6 80 01 00
	00		 push	 DWORD PTR [esi+384]
  0004c	e8 00 00 00 00	 call	 ?PyCallClassMemberFunc@@YA_NPAU_object@@PBD0@Z ; PyCallClassMemberFunc

; 231  : #ifdef _DEBUG
; 232  : 	Tracef(" RecvLoginFailurePacket : [%s]\n", packet_failure.szStatus);
; 233  : #endif
; 234  : 	return true;
; 235  : }

  00051	8b 4d fc	 mov	 ecx, DWORD PTR __$ArrayPad$[ebp]
  00054	83 c4 14	 add	 esp, 20			; 00000014H
  00057	33 cd		 xor	 ecx, ebp
  00059	b0 01		 mov	 al, 1
  0005b	5e		 pop	 esi
  0005c	e8 00 00 00 00	 call	 @__security_check_cookie@4
  00061	8b e5		 mov	 esp, ebp
  00063	5d		 pop	 ebp
  00064	c3		 ret	 0
?__RecvLoginFailurePacket@CPythonNetworkStream@@IAE_NXZ ENDP ; CPythonNetworkStream::__RecvLoginFailurePacket
_TEXT	ENDS
; Function compile flags: /Ogtp
; File D:\Metin2 Server Files\mainline\SRC_2014\Metin2Client\UserInterface\PythonNetworkStreamPhaseLogin.cpp
; File C:\Program Files (x86)\Microsoft Visual Studio\2019\Community\VC\Tools\MSVC\14.28.29333\include\xstring
; File D:\Metin2 Server Files\mainline\SRC_2014\Metin2Client\UserInterface\PythonNetworkStreamPhaseLogin.cpp
;	COMDAT ?__RecvLoginSuccessPacket4@CPythonNetworkStream@@IAE_NXZ
_TEXT	SEGMENT
_this$GSCopy$1$ = -360					; size = 4
tv308 = -356						; size = 4
tv313 = -352						; size = 4
tv306 = -348						; size = 4
tv311 = -344						; size = 4
tv307 = -340						; size = 4
_kPacketLoginSuccess$ = -336				; size = 329
__$ArrayPad$ = -4					; size = 4
?__RecvLoginSuccessPacket4@CPythonNetworkStream@@IAE_NXZ PROC ; CPythonNetworkStream::__RecvLoginSuccessPacket4, COMDAT
; _this$ = ecx

; 183  : {

  00000	55		 push	 ebp
  00001	8b ec		 mov	 ebp, esp
  00003	81 ec 68 01 00
	00		 sub	 esp, 360		; 00000168H
  00009	a1 00 00 00 00	 mov	 eax, DWORD PTR ___security_cookie
  0000e	33 c5		 xor	 eax, ebp
  00010	89 45 fc	 mov	 DWORD PTR __$ArrayPad$[ebp], eax
  00013	56		 push	 esi

; 184  : 	TPacketGCLoginSuccess4 kPacketLoginSuccess;
; 185  : 
; 186  : 	if (!Recv(sizeof(kPacketLoginSuccess), &kPacketLoginSuccess))

  00014	8d 85 b0 fe ff
	ff		 lea	 eax, DWORD PTR _kPacketLoginSuccess$[ebp]
  0001a	8b f1		 mov	 esi, ecx
  0001c	50		 push	 eax
  0001d	68 49 01 00 00	 push	 329			; 00000149H
  00022	89 b5 98 fe ff
	ff		 mov	 DWORD PTR _this$GSCopy$1$[ebp], esi
  00028	e8 00 00 00 00	 call	 ?Recv@CNetworkStream@@QAE_NHPAX@Z ; CNetworkStream::Recv
  0002d	84 c0		 test	 al, al
  0002f	75 0f		 jne	 SHORT $LN5@RecvLoginS
  00031	5e		 pop	 esi

; 205  : 	}
; 206  : 
; 207  : 	return true;
; 208  : }

  00032	8b 4d fc	 mov	 ecx, DWORD PTR __$ArrayPad$[ebp]
  00035	33 cd		 xor	 ecx, ebp
  00037	e8 00 00 00 00	 call	 @__security_check_cookie@4
  0003c	8b e5		 mov	 esp, ebp
  0003e	5d		 pop	 ebp
  0003f	c3		 ret	 0
$LN5@RecvLoginS:

; 189  : 	for (int i = 0; i<PLAYER_PER_ACCOUNT4; ++i)

  00040	8d 86 a8 02 00
	00		 lea	 eax, DWORD PTR [esi+680]
  00046	89 85 9c fe ff
	ff		 mov	 DWORD PTR tv308[ebp], eax
  0004c	8d 55 bd	 lea	 edx, DWORD PTR _kPacketLoginSuccess$[ebp+269]
  0004f	53		 push	 ebx
  00050	8d 86 98 02 00
	00		 lea	 eax, DWORD PTR [esi+664]
  00056	89 95 a0 fe ff
	ff		 mov	 DWORD PTR tv313[ebp], edx
  0005c	57		 push	 edi
  0005d	89 85 ac fe ff
	ff		 mov	 DWORD PTR tv307[ebp], eax
  00063	8d bd b1 fe ff
	ff		 lea	 edi, DWORD PTR _kPacketLoginSuccess$[ebp+1]
  00069	8d 86 9c 01 00
	00		 lea	 eax, DWORD PTR [esi+412]
  0006f	89 bd a8 fe ff
	ff		 mov	 DWORD PTR tv311[ebp], edi
  00075	33 db		 xor	 ebx, ebx
  00077	89 85 a4 fe ff
	ff		 mov	 DWORD PTR tv306[ebp], eax
  0007d	0f 1f 00	 npad	 3
$LL4@RecvLoginS:

; 190  : 	{
; 191  : 		m_akSimplePlayerInfo[i]=kPacketLoginSuccess.akSimplePlayerInformation[i];

  00080	8b f7		 mov	 esi, edi
  00082	b9 0f 00 00 00	 mov	 ecx, 15			; 0000000fH
  00087	8b f8		 mov	 edi, eax

; 192  : 		m_adwGuildID[i]=kPacketLoginSuccess.guild_id[i];

  00089	8b 44 9d ad	 mov	 eax, DWORD PTR _kPacketLoginSuccess$[ebp+ebx*4+253]
  0008d	f3 a5		 rep movsd
  0008f	8b 8d ac fe ff
	ff		 mov	 ecx, DWORD PTR tv307[ebp]
  00095	66 a5		 movsw
  00097	a4		 movsb
  00098	89 01		 mov	 DWORD PTR [ecx], eax
; File C:\Program Files (x86)\Microsoft Visual Studio\2019\Community\VC\Tools\MSVC\14.28.29333\include\xstring

; 389  :         return _CSTD strlen(reinterpret_cast<const char*>(_First));

  0009a	8b c2		 mov	 eax, edx
  0009c	8d 70 01	 lea	 esi, DWORD PTR [eax+1]
  0009f	90		 npad	 1
$LL19@RecvLoginS:
  000a0	8a 08		 mov	 cl, BYTE PTR [eax]
  000a2	40		 inc	 eax
  000a3	84 c9		 test	 cl, cl
  000a5	75 f9		 jne	 SHORT $LL19@RecvLoginS
  000a7	2b c6		 sub	 eax, esi

; 3062 :         return assign(_Ptr, _Convert_size<size_type>(_Traits::length(_Ptr)));

  000a9	8b b5 9c fe ff
	ff		 mov	 esi, DWORD PTR tv308[ebp]
  000af	50		 push	 eax
  000b0	52		 push	 edx
  000b1	8b ce		 mov	 ecx, esi
  000b3	e8 00 00 00 00	 call	 ?assign@?$basic_string@DU?$char_traits@D@std@@V?$allocator@D@2@@std@@QAEAAV12@QBDI@Z ; std::basic_string<char,std::char_traits<char>,std::allocator<char> >::assign
; File D:\Metin2 Server Files\mainline\SRC_2014\Metin2Client\UserInterface\PythonNetworkStreamPhaseLogin.cpp

; 189  : 	for (int i = 0; i<PLAYER_PER_ACCOUNT4; ++i)

  000b8	8b bd a8 fe ff
	ff		 mov	 edi, DWORD PTR tv311[ebp]
  000be	43		 inc	 ebx
  000bf	8b 85 a4 fe ff
	ff		 mov	 eax, DWORD PTR tv306[ebp]
  000c5	83 c7 3f	 add	 edi, 63			; 0000003fH
  000c8	8b 95 a0 fe ff
	ff		 mov	 edx, DWORD PTR tv313[ebp]
  000ce	83 c0 3f	 add	 eax, 63			; 0000003fH
  000d1	83 85 ac fe ff
	ff 04		 add	 DWORD PTR tv307[ebp], 4
  000d8	83 c2 0d	 add	 edx, 13			; 0000000dH
  000db	83 c6 18	 add	 esi, 24			; 00000018H
  000de	89 bd a8 fe ff
	ff		 mov	 DWORD PTR tv311[ebp], edi
  000e4	89 85 a4 fe ff
	ff		 mov	 DWORD PTR tv306[ebp], eax
  000ea	89 95 a0 fe ff
	ff		 mov	 DWORD PTR tv313[ebp], edx
  000f0	89 b5 9c fe ff
	ff		 mov	 DWORD PTR tv308[ebp], esi
  000f6	83 fb 04	 cmp	 ebx, 4
  000f9	7c 85		 jl	 SHORT $LL4@RecvLoginS

; 193  : 		m_astrGuildName[i]=kPacketLoginSuccess.guild_name[i];
; 194  : 	}
; 195  : 
; 196  : 	m_kMarkAuth.m_dwHandle=kPacketLoginSuccess.handle;

  000fb	8b b5 98 fe ff
	ff		 mov	 esi, DWORD PTR _this$GSCopy$1$[ebp]

; 197  : 	m_kMarkAuth.m_dwRandomKey=kPacketLoginSuccess.random_key;	
; 198  : 
; 199  : 	if (__DirectEnterMode_IsSet())

  00101	8b ce		 mov	 ecx, esi
  00103	8b 45 f1	 mov	 eax, DWORD PTR _kPacketLoginSuccess$[ebp+321]
  00106	89 86 08 79 00
	00		 mov	 DWORD PTR [esi+30984], eax
  0010c	8b 45 f5	 mov	 eax, DWORD PTR _kPacketLoginSuccess$[ebp+325]
  0010f	89 86 0c 79 00
	00		 mov	 DWORD PTR [esi+30988], eax
  00115	e8 00 00 00 00	 call	 ?__DirectEnterMode_IsSet@CPythonNetworkStream@@AAE_NXZ ; CPythonNetworkStream::__DirectEnterMode_IsSet
  0011a	5f		 pop	 edi
  0011b	5b		 pop	 ebx
  0011c	84 c0		 test	 al, al
  0011e	75 1f		 jne	 SHORT $LN7@RecvLoginS

; 200  : 	{
; 201  : 	}
; 202  : 	else
; 203  : 	{
; 204  : 		PyCallClassMemberFunc(m_apoPhaseWnd[PHASE_WINDOW_SELECT], "Refresh", Py_BuildValue("()"));		

  00120	68 00 00 00 00	 push	 OFFSET ??_C@_02HCKGKOFO@?$CI?$CJ@
  00125	ff 15 00 00 00
	00		 call	 DWORD PTR __imp__Py_BuildValue
  0012b	50		 push	 eax
  0012c	68 00 00 00 00	 push	 OFFSET ??_C@_07POIENIBA@Refresh@
  00131	ff b6 84 01 00
	00		 push	 DWORD PTR [esi+388]
  00137	e8 00 00 00 00	 call	 ?PyCallClassMemberFunc@@YA_NPAU_object@@PBD0@Z ; PyCallClassMemberFunc
  0013c	83 c4 10	 add	 esp, 16			; 00000010H
$LN7@RecvLoginS:

; 205  : 	}
; 206  : 
; 207  : 	return true;
; 208  : }

  0013f	8b 4d fc	 mov	 ecx, DWORD PTR __$ArrayPad$[ebp]
  00142	b0 01		 mov	 al, 1
  00144	33 cd		 xor	 ecx, ebp
  00146	5e		 pop	 esi
  00147	e8 00 00 00 00	 call	 @__security_check_cookie@4
  0014c	8b e5		 mov	 esp, ebp
  0014e	5d		 pop	 ebp
  0014f	c3		 ret	 0
?__RecvLoginSuccessPacket4@CPythonNetworkStream@@IAE_NXZ ENDP ; CPythonNetworkStream::__RecvLoginSuccessPacket4
_TEXT	ENDS
; Function compile flags: /Ogtp
; File D:\Metin2 Server Files\mainline\SRC_2014\Metin2Client\UserInterface\PythonNetworkStreamPhaseLogin.cpp
; File C:\Program Files (x86)\Microsoft Visual Studio\2019\Community\VC\Tools\MSVC\14.28.29333\include\xstring
; File D:\Metin2 Server Files\mainline\SRC_2014\Metin2Client\UserInterface\PythonNetworkStreamPhaseLogin.cpp
;	COMDAT ?__RecvLoginSuccessPacket3@CPythonNetworkStream@@IAE_NXZ
_TEXT	SEGMENT
_this$GSCopy$1$ = -280					; size = 4
tv308 = -276						; size = 4
tv313 = -272						; size = 4
tv306 = -268						; size = 4
tv311 = -264						; size = 4
tv307 = -260						; size = 4
_kPacketLoginSuccess$ = -256				; size = 249
__$ArrayPad$ = -4					; size = 4
?__RecvLoginSuccessPacket3@CPythonNetworkStream@@IAE_NXZ PROC ; CPythonNetworkStream::__RecvLoginSuccessPacket3, COMDAT
; _this$ = ecx

; 155  : {

  00000	55		 push	 ebp
  00001	8b ec		 mov	 ebp, esp
  00003	81 ec 18 01 00
	00		 sub	 esp, 280		; 00000118H
  00009	a1 00 00 00 00	 mov	 eax, DWORD PTR ___security_cookie
  0000e	33 c5		 xor	 eax, ebp
  00010	89 45 fc	 mov	 DWORD PTR __$ArrayPad$[ebp], eax
  00013	56		 push	 esi

; 156  : 	TPacketGCLoginSuccess3 kPacketLoginSuccess;
; 157  : 
; 158  : 	if (!Recv(sizeof(kPacketLoginSuccess), &kPacketLoginSuccess))

  00014	8d 85 00 ff ff
	ff		 lea	 eax, DWORD PTR _kPacketLoginSuccess$[ebp]
  0001a	8b f1		 mov	 esi, ecx
  0001c	50		 push	 eax
  0001d	68 f9 00 00 00	 push	 249			; 000000f9H
  00022	89 b5 e8 fe ff
	ff		 mov	 DWORD PTR _this$GSCopy$1$[ebp], esi
  00028	e8 00 00 00 00	 call	 ?Recv@CNetworkStream@@QAE_NHPAX@Z ; CNetworkStream::Recv
  0002d	84 c0		 test	 al, al
  0002f	75 0f		 jne	 SHORT $LN5@RecvLoginS
  00031	5e		 pop	 esi

; 177  : 	}
; 178  : 
; 179  : 	return true;
; 180  : }

  00032	8b 4d fc	 mov	 ecx, DWORD PTR __$ArrayPad$[ebp]
  00035	33 cd		 xor	 ecx, ebp
  00037	e8 00 00 00 00	 call	 @__security_check_cookie@4
  0003c	8b e5		 mov	 esp, ebp
  0003e	5d		 pop	 ebp
  0003f	c3		 ret	 0
$LN5@RecvLoginS:

; 161  : 	for (int i = 0; i<PLAYER_PER_ACCOUNT3; ++i)

  00040	8d 86 a8 02 00
	00		 lea	 eax, DWORD PTR [esi+680]
  00046	89 85 ec fe ff
	ff		 mov	 DWORD PTR tv308[ebp], eax
  0004c	8d 55 ca	 lea	 edx, DWORD PTR _kPacketLoginSuccess$[ebp+202]
  0004f	53		 push	 ebx
  00050	8d 86 98 02 00
	00		 lea	 eax, DWORD PTR [esi+664]
  00056	89 95 f0 fe ff
	ff		 mov	 DWORD PTR tv313[ebp], edx
  0005c	57		 push	 edi
  0005d	89 85 fc fe ff
	ff		 mov	 DWORD PTR tv307[ebp], eax
  00063	8d bd 01 ff ff
	ff		 lea	 edi, DWORD PTR _kPacketLoginSuccess$[ebp+1]
  00069	8d 86 9c 01 00
	00		 lea	 eax, DWORD PTR [esi+412]
  0006f	89 bd f8 fe ff
	ff		 mov	 DWORD PTR tv311[ebp], edi
  00075	33 db		 xor	 ebx, ebx
  00077	89 85 f4 fe ff
	ff		 mov	 DWORD PTR tv306[ebp], eax
  0007d	0f 1f 00	 npad	 3
$LL4@RecvLoginS:

; 162  : 	{
; 163  : 		m_akSimplePlayerInfo[i]=kPacketLoginSuccess.akSimplePlayerInformation[i];

  00080	8b f7		 mov	 esi, edi
  00082	b9 0f 00 00 00	 mov	 ecx, 15			; 0000000fH
  00087	8b f8		 mov	 edi, eax

; 164  : 		m_adwGuildID[i]=kPacketLoginSuccess.guild_id[i];

  00089	8b 44 9d be	 mov	 eax, DWORD PTR _kPacketLoginSuccess$[ebp+ebx*4+190]
  0008d	f3 a5		 rep movsd
  0008f	8b 8d fc fe ff
	ff		 mov	 ecx, DWORD PTR tv307[ebp]
  00095	66 a5		 movsw
  00097	a4		 movsb
  00098	89 01		 mov	 DWORD PTR [ecx], eax
; File C:\Program Files (x86)\Microsoft Visual Studio\2019\Community\VC\Tools\MSVC\14.28.29333\include\xstring

; 389  :         return _CSTD strlen(reinterpret_cast<const char*>(_First));

  0009a	8b c2		 mov	 eax, edx
  0009c	8d 70 01	 lea	 esi, DWORD PTR [eax+1]
  0009f	90		 npad	 1
$LL19@RecvLoginS:
  000a0	8a 08		 mov	 cl, BYTE PTR [eax]
  000a2	40		 inc	 eax
  000a3	84 c9		 test	 cl, cl
  000a5	75 f9		 jne	 SHORT $LL19@RecvLoginS
  000a7	2b c6		 sub	 eax, esi

; 3062 :         return assign(_Ptr, _Convert_size<size_type>(_Traits::length(_Ptr)));

  000a9	8b b5 ec fe ff
	ff		 mov	 esi, DWORD PTR tv308[ebp]
  000af	50		 push	 eax
  000b0	52		 push	 edx
  000b1	8b ce		 mov	 ecx, esi
  000b3	e8 00 00 00 00	 call	 ?assign@?$basic_string@DU?$char_traits@D@std@@V?$allocator@D@2@@std@@QAEAAV12@QBDI@Z ; std::basic_string<char,std::char_traits<char>,std::allocator<char> >::assign
; File D:\Metin2 Server Files\mainline\SRC_2014\Metin2Client\UserInterface\PythonNetworkStreamPhaseLogin.cpp

; 161  : 	for (int i = 0; i<PLAYER_PER_ACCOUNT3; ++i)

  000b8	8b bd f8 fe ff
	ff		 mov	 edi, DWORD PTR tv311[ebp]
  000be	43		 inc	 ebx
  000bf	8b 85 f4 fe ff
	ff		 mov	 eax, DWORD PTR tv306[ebp]
  000c5	83 c7 3f	 add	 edi, 63			; 0000003fH
  000c8	8b 95 f0 fe ff
	ff		 mov	 edx, DWORD PTR tv313[ebp]
  000ce	83 c0 3f	 add	 eax, 63			; 0000003fH
  000d1	83 85 fc fe ff
	ff 04		 add	 DWORD PTR tv307[ebp], 4
  000d8	83 c2 0d	 add	 edx, 13			; 0000000dH
  000db	83 c6 18	 add	 esi, 24			; 00000018H
  000de	89 bd f8 fe ff
	ff		 mov	 DWORD PTR tv311[ebp], edi
  000e4	89 85 f4 fe ff
	ff		 mov	 DWORD PTR tv306[ebp], eax
  000ea	89 95 f0 fe ff
	ff		 mov	 DWORD PTR tv313[ebp], edx
  000f0	89 b5 ec fe ff
	ff		 mov	 DWORD PTR tv308[ebp], esi
  000f6	83 fb 03	 cmp	 ebx, 3
  000f9	7c 85		 jl	 SHORT $LL4@RecvLoginS

; 165  : 		m_astrGuildName[i]=kPacketLoginSuccess.guild_name[i];
; 166  : 	}
; 167  : 
; 168  : 	m_kMarkAuth.m_dwHandle=kPacketLoginSuccess.handle;

  000fb	8b b5 e8 fe ff
	ff		 mov	 esi, DWORD PTR _this$GSCopy$1$[ebp]

; 169  : 	m_kMarkAuth.m_dwRandomKey=kPacketLoginSuccess.random_key;	
; 170  : 
; 171  : 	if (__DirectEnterMode_IsSet())

  00101	8b ce		 mov	 ecx, esi
  00103	8b 45 f1	 mov	 eax, DWORD PTR _kPacketLoginSuccess$[ebp+241]
  00106	89 86 08 79 00
	00		 mov	 DWORD PTR [esi+30984], eax
  0010c	8b 45 f5	 mov	 eax, DWORD PTR _kPacketLoginSuccess$[ebp+245]
  0010f	89 86 0c 79 00
	00		 mov	 DWORD PTR [esi+30988], eax
  00115	e8 00 00 00 00	 call	 ?__DirectEnterMode_IsSet@CPythonNetworkStream@@AAE_NXZ ; CPythonNetworkStream::__DirectEnterMode_IsSet
  0011a	5f		 pop	 edi
  0011b	5b		 pop	 ebx
  0011c	84 c0		 test	 al, al
  0011e	75 1f		 jne	 SHORT $LN7@RecvLoginS

; 172  : 	{
; 173  : 	}
; 174  : 	else
; 175  : 	{
; 176  : 		PyCallClassMemberFunc(m_apoPhaseWnd[PHASE_WINDOW_SELECT], "Refresh", Py_BuildValue("()"));		

  00120	68 00 00 00 00	 push	 OFFSET ??_C@_02HCKGKOFO@?$CI?$CJ@
  00125	ff 15 00 00 00
	00		 call	 DWORD PTR __imp__Py_BuildValue
  0012b	50		 push	 eax
  0012c	68 00 00 00 00	 push	 OFFSET ??_C@_07POIENIBA@Refresh@
  00131	ff b6 84 01 00
	00		 push	 DWORD PTR [esi+388]
  00137	e8 00 00 00 00	 call	 ?PyCallClassMemberFunc@@YA_NPAU_object@@PBD0@Z ; PyCallClassMemberFunc
  0013c	83 c4 10	 add	 esp, 16			; 00000010H
$LN7@RecvLoginS:

; 177  : 	}
; 178  : 
; 179  : 	return true;
; 180  : }

  0013f	8b 4d fc	 mov	 ecx, DWORD PTR __$ArrayPad$[ebp]
  00142	b0 01		 mov	 al, 1
  00144	33 cd		 xor	 ecx, ebp
  00146	5e		 pop	 esi
  00147	e8 00 00 00 00	 call	 @__security_check_cookie@4
  0014c	8b e5		 mov	 esp, ebp
  0014e	5d		 pop	 ebp
  0014f	c3		 ret	 0
?__RecvLoginSuccessPacket3@CPythonNetworkStream@@IAE_NXZ ENDP ; CPythonNetworkStream::__RecvLoginSuccessPacket3
_TEXT	ENDS
; Function compile flags: /Ogtp
; File D:\Metin2 Server Files\mainline\SRC_2014\Metin2Client\UserInterface\PythonNetworkStreamPhaseLogin.cpp
;	COMDAT ?LoginPhase@CPythonNetworkStream@@IAEXXZ
_TEXT	SEGMENT
_header$ = -1						; size = 1
?LoginPhase@CPythonNetworkStream@@IAEXXZ PROC		; CPythonNetworkStream::LoginPhase, COMDAT
; _this$ = ecx

; 12   : {

  00000	55		 push	 ebp
  00001	8b ec		 mov	 ebp, esp
  00003	51		 push	 ecx
  00004	56		 push	 esi

; 13   : 	TPacketHeader header;
; 14   : 	if (!CheckPacket(&header))

  00005	8d 45 ff	 lea	 eax, DWORD PTR _header$[ebp]
  00008	8b f1		 mov	 esi, ecx
  0000a	50		 push	 eax
  0000b	e8 00 00 00 00	 call	 ?CheckPacket@CPythonNetworkStream@@IAE_NPAE@Z ; CPythonNetworkStream::CheckPacket
  00010	84 c0		 test	 al, al
  00012	0f 84 b3 00 00
	00		 je	 $LN1@LoginPhase

; 15   : 		return;
; 16   : 
; 17   : 	switch (header)

  00018	0f b6 4d ff	 movzx	 ecx, BYTE PTR _header$[ebp]
  0001c	8d 41 fa	 lea	 eax, DWORD PTR [ecx-6]
  0001f	3d f7 00 00 00	 cmp	 eax, 247		; 000000f7H
  00024	0f 87 89 00 00
	00		 ja	 $LN29@LoginPhase
  0002a	0f b6 80 00 00
	00 00		 movzx	 eax, BYTE PTR $LN32@LoginPhase[eax]
  00031	ff 24 85 00 00
	00 00		 jmp	 DWORD PTR $LN33@LoginPhase[eax*4]
$LN5@LoginPhase:

; 18   : 	{
; 19   : 		case HEADER_GC_PHASE:
; 20   : 			if (RecvPhasePacket())

  00038	8b ce		 mov	 ecx, esi
  0003a	e8 00 00 00 00	 call	 ?RecvPhasePacket@CPythonNetworkStream@@IAE_NXZ ; CPythonNetworkStream::RecvPhasePacket

; 21   : 				return;
; 22   : 			break;

  0003f	eb 7a		 jmp	 SHORT $LN35@LoginPhase
$LN7@LoginPhase:

; 23   : 
; 24   : 		case HEADER_GC_LOGIN_SUCCESS3:
; 25   : 			if (__RecvLoginSuccessPacket3())

  00041	8b ce		 mov	 ecx, esi
  00043	e8 00 00 00 00	 call	 ?__RecvLoginSuccessPacket3@CPythonNetworkStream@@IAE_NXZ ; CPythonNetworkStream::__RecvLoginSuccessPacket3

; 26   : 				return;
; 27   : 			break;

  00048	eb 71		 jmp	 SHORT $LN35@LoginPhase
$LN9@LoginPhase:

; 28   : 		case HEADER_GC_LOGIN_SUCCESS4:
; 29   : 			if (__RecvLoginSuccessPacket4())

  0004a	8b ce		 mov	 ecx, esi
  0004c	e8 00 00 00 00	 call	 ?__RecvLoginSuccessPacket4@CPythonNetworkStream@@IAE_NXZ ; CPythonNetworkStream::__RecvLoginSuccessPacket4

; 30   : 				return;
; 31   : 			break;

  00051	eb 68		 jmp	 SHORT $LN35@LoginPhase
$LN11@LoginPhase:

; 32   : 
; 33   : 
; 34   : 		case HEADER_GC_LOGIN_FAILURE:
; 35   : 			if (__RecvLoginFailurePacket())

  00053	8b ce		 mov	 ecx, esi
  00055	e8 00 00 00 00	 call	 ?__RecvLoginFailurePacket@CPythonNetworkStream@@IAE_NXZ ; CPythonNetworkStream::__RecvLoginFailurePacket

; 36   : 				return;		
; 37   : 			break;

  0005a	eb 5f		 jmp	 SHORT $LN35@LoginPhase
$LN13@LoginPhase:

; 38   : 
; 39   : 		case HEADER_GC_EMPIRE:
; 40   : 			if (__RecvEmpirePacket())

  0005c	8b ce		 mov	 ecx, esi
  0005e	e8 00 00 00 00	 call	 ?__RecvEmpirePacket@CPythonNetworkStream@@IAE_NXZ ; CPythonNetworkStream::__RecvEmpirePacket

; 41   : 				return;
; 42   : 			break;

  00063	eb 56		 jmp	 SHORT $LN35@LoginPhase
$LN15@LoginPhase:

; 43   : 
; 44   : 		case HEADER_GC_CHINA_MATRIX_CARD:
; 45   : 			if (__RecvChinaMatrixCardPacket())

  00065	8b ce		 mov	 ecx, esi
  00067	e8 00 00 00 00	 call	 ?__RecvChinaMatrixCardPacket@CPythonNetworkStream@@IAE_NXZ ; CPythonNetworkStream::__RecvChinaMatrixCardPacket

; 46   : 				return;
; 47   : 			break;

  0006c	eb 4d		 jmp	 SHORT $LN35@LoginPhase
$LN17@LoginPhase:

; 48   : 
; 49   : 		case HEADER_GC_RUNUP_MATRIX_QUIZ:
; 50   : 			if (__RecvRunupMatrixQuizPacket())

  0006e	8b ce		 mov	 ecx, esi
  00070	e8 00 00 00 00	 call	 ?__RecvRunupMatrixQuizPacket@CPythonNetworkStream@@IAE_NXZ ; CPythonNetworkStream::__RecvRunupMatrixQuizPacket

; 51   : 				return;
; 52   : 			break;

  00075	eb 44		 jmp	 SHORT $LN35@LoginPhase
$LN19@LoginPhase:

; 53   : 
; 54   : 		case HEADER_GC_NEWCIBN_PASSPOD_REQUEST:
; 55   : 			if (__RecvNEWCIBNPasspodRequestPacket())

  00077	8b ce		 mov	 ecx, esi
  00079	e8 00 00 00 00	 call	 ?__RecvNEWCIBNPasspodRequestPacket@CPythonNetworkStream@@IAE_NXZ ; CPythonNetworkStream::__RecvNEWCIBNPasspodRequestPacket

; 56   : 				return;
; 57   : 			break;

  0007e	eb 3b		 jmp	 SHORT $LN35@LoginPhase
$LN21@LoginPhase:

; 58   : 		case HEADER_GC_NEWCIBN_PASSPOD_FAILURE:
; 59   : 			if (__RecvNEWCIBNPasspodFailurePacket())

  00080	8b ce		 mov	 ecx, esi
  00082	e8 00 00 00 00	 call	 ?__RecvNEWCIBNPasspodFailurePacket@CPythonNetworkStream@@IAE_NXZ ; CPythonNetworkStream::__RecvNEWCIBNPasspodFailurePacket

; 60   : 				return;
; 61   : 			break;

  00087	eb 32		 jmp	 SHORT $LN35@LoginPhase
$LN23@LoginPhase:

; 62   : 
; 63   : 
; 64   : 		case HEADER_GC_LOGIN_KEY:
; 65   : 			if (__RecvLoginKeyPacket())

  00089	8b ce		 mov	 ecx, esi
  0008b	e8 00 00 00 00	 call	 ?__RecvLoginKeyPacket@CPythonNetworkStream@@IAE_NXZ ; CPythonNetworkStream::__RecvLoginKeyPacket

; 66   : 				return;
; 67   : 			break;

  00090	eb 29		 jmp	 SHORT $LN35@LoginPhase
$LN25@LoginPhase:

; 68   : 
; 69   : 		case HEADER_GC_PING:
; 70   : 			if (RecvPingPacket())

  00092	8b ce		 mov	 ecx, esi
  00094	e8 00 00 00 00	 call	 ?RecvPingPacket@CPythonNetworkStream@@IAE_NXZ ; CPythonNetworkStream::RecvPingPacket

; 71   : 				return;
; 72   : 			break;

  00099	eb 20		 jmp	 SHORT $LN35@LoginPhase
$LN27@LoginPhase:

; 73   : 
; 74   : 		case HEADER_GC_HYBRIDCRYPT_KEYS:
; 75   : 			RecvHybridCryptKeyPacket();

  0009b	8b ce		 mov	 ecx, esi
  0009d	e8 00 00 00 00	 call	 ?RecvHybridCryptKeyPacket@CPythonNetworkStream@@QAE_NXZ ; CPythonNetworkStream::RecvHybridCryptKeyPacket
  000a2	5e		 pop	 esi

; 91   : }

  000a3	8b e5		 mov	 esp, ebp
  000a5	5d		 pop	 ebp
  000a6	c3		 ret	 0
$LN28@LoginPhase:

; 76   : 			return;
; 77   : 			break;
; 78   : 
; 79   : 		case HEADER_GC_HYBRIDCRYPT_SDB:
; 80   : 			RecvHybridCryptSDBPacket();

  000a7	8b ce		 mov	 ecx, esi
  000a9	e8 00 00 00 00	 call	 ?RecvHybridCryptSDBPacket@CPythonNetworkStream@@QAE_NXZ ; CPythonNetworkStream::RecvHybridCryptSDBPacket
  000ae	5e		 pop	 esi

; 91   : }

  000af	8b e5		 mov	 esp, ebp
  000b1	5d		 pop	 ebp
  000b2	c3		 ret	 0
$LN29@LoginPhase:

; 81   : 			return;
; 82   : 			break;
; 83   : 
; 84   : 		default:
; 85   : 			if (RecvDefaultPacket(header))

  000b3	51		 push	 ecx
  000b4	8b ce		 mov	 ecx, esi
  000b6	e8 00 00 00 00	 call	 ?RecvDefaultPacket@CPythonNetworkStream@@IAE_NH@Z ; CPythonNetworkStream::RecvDefaultPacket
$LN35@LoginPhase:

; 86   : 				return;
; 87   : 			break;
; 88   : 	}
; 89   : 
; 90   : 	RecvErrorPacket(header);

  000bb	84 c0		 test	 al, al
  000bd	75 0c		 jne	 SHORT $LN1@LoginPhase
  000bf	0f b6 45 ff	 movzx	 eax, BYTE PTR _header$[ebp]
  000c3	8b ce		 mov	 ecx, esi
  000c5	50		 push	 eax
  000c6	e8 00 00 00 00	 call	 ?RecvErrorPacket@CPythonNetworkStream@@IAE_NH@Z ; CPythonNetworkStream::RecvErrorPacket
$LN1@LoginPhase:
  000cb	5e		 pop	 esi

; 91   : }

  000cc	8b e5		 mov	 esp, ebp
  000ce	5d		 pop	 ebp
  000cf	c3		 ret	 0
$LN33@LoginPhase:
  000d0	00 00 00 00	 DD	 $LN7@LoginPhase
  000d4	00 00 00 00	 DD	 $LN11@LoginPhase
  000d8	00 00 00 00	 DD	 $LN9@LoginPhase
  000dc	00 00 00 00	 DD	 $LN25@LoginPhase
  000e0	00 00 00 00	 DD	 $LN13@LoginPhase
  000e4	00 00 00 00	 DD	 $LN15@LoginPhase
  000e8	00 00 00 00	 DD	 $LN23@LoginPhase
  000ec	00 00 00 00	 DD	 $LN27@LoginPhase
  000f0	00 00 00 00	 DD	 $LN28@LoginPhase
  000f4	00 00 00 00	 DD	 $LN17@LoginPhase
  000f8	00 00 00 00	 DD	 $LN19@LoginPhase
  000fc	00 00 00 00	 DD	 $LN21@LoginPhase
  00100	00 00 00 00	 DD	 $LN5@LoginPhase
  00104	00 00 00 00	 DD	 $LN29@LoginPhase
$LN32@LoginPhase:
  00108	00		 DB	 0
  00109	01		 DB	 1
  0010a	0d		 DB	 13			; 0000000dH
  0010b	0d		 DB	 13			; 0000000dH
  0010c	0d		 DB	 13			; 0000000dH
  0010d	0d		 DB	 13			; 0000000dH
  0010e	0d		 DB	 13			; 0000000dH
  0010f	0d		 DB	 13			; 0000000dH
  00110	0d		 DB	 13			; 0000000dH
  00111	0d		 DB	 13			; 0000000dH
  00112	0d		 DB	 13			; 0000000dH
  00113	0d		 DB	 13			; 0000000dH
  00114	0d		 DB	 13			; 0000000dH
  00115	0d		 DB	 13			; 0000000dH
  00116	0d		 DB	 13			; 0000000dH
  00117	0d		 DB	 13			; 0000000dH
  00118	0d		 DB	 13			; 0000000dH
  00119	0d		 DB	 13			; 0000000dH
  0011a	0d		 DB	 13			; 0000000dH
  0011b	0d		 DB	 13			; 0000000dH
  0011c	0d		 DB	 13			; 0000000dH
  0011d	0d		 DB	 13			; 0000000dH
  0011e	0d		 DB	 13			; 0000000dH
  0011f	0d		 DB	 13			; 0000000dH
  00120	0d		 DB	 13			; 0000000dH
  00121	0d		 DB	 13			; 0000000dH
  00122	02		 DB	 2
  00123	0d		 DB	 13			; 0000000dH
  00124	0d		 DB	 13			; 0000000dH
  00125	0d		 DB	 13			; 0000000dH
  00126	0d		 DB	 13			; 0000000dH
  00127	0d		 DB	 13			; 0000000dH
  00128	0d		 DB	 13			; 0000000dH
  00129	0d		 DB	 13			; 0000000dH
  0012a	0d		 DB	 13			; 0000000dH
  0012b	0d		 DB	 13			; 0000000dH
  0012c	0d		 DB	 13			; 0000000dH
  0012d	0d		 DB	 13			; 0000000dH
  0012e	03		 DB	 3
  0012f	0d		 DB	 13			; 0000000dH
  00130	0d		 DB	 13			; 0000000dH
  00131	0d		 DB	 13			; 0000000dH
  00132	0d		 DB	 13			; 0000000dH
  00133	0d		 DB	 13			; 0000000dH
  00134	0d		 DB	 13			; 0000000dH
  00135	0d		 DB	 13			; 0000000dH
  00136	0d		 DB	 13			; 0000000dH
  00137	0d		 DB	 13			; 0000000dH
  00138	0d		 DB	 13			; 0000000dH
  00139	0d		 DB	 13			; 0000000dH
  0013a	0d		 DB	 13			; 0000000dH
  0013b	0d		 DB	 13			; 0000000dH
  0013c	0d		 DB	 13			; 0000000dH
  0013d	0d		 DB	 13			; 0000000dH
  0013e	0d		 DB	 13			; 0000000dH
  0013f	0d		 DB	 13			; 0000000dH
  00140	0d		 DB	 13			; 0000000dH
  00141	0d		 DB	 13			; 0000000dH
  00142	0d		 DB	 13			; 0000000dH
  00143	0d		 DB	 13			; 0000000dH
  00144	0d		 DB	 13			; 0000000dH
  00145	0d		 DB	 13			; 0000000dH
  00146	0d		 DB	 13			; 0000000dH
  00147	0d		 DB	 13			; 0000000dH
  00148	0d		 DB	 13			; 0000000dH
  00149	0d		 DB	 13			; 0000000dH
  0014a	0d		 DB	 13			; 0000000dH
  0014b	0d		 DB	 13			; 0000000dH
  0014c	0d		 DB	 13			; 0000000dH
  0014d	0d		 DB	 13			; 0000000dH
  0014e	0d		 DB	 13			; 0000000dH
  0014f	0d		 DB	 13			; 0000000dH
  00150	0d		 DB	 13			; 0000000dH
  00151	0d		 DB	 13			; 0000000dH
  00152	0d		 DB	 13			; 0000000dH
  00153	0d		 DB	 13			; 0000000dH
  00154	0d		 DB	 13			; 0000000dH
  00155	0d		 DB	 13			; 0000000dH
  00156	0d		 DB	 13			; 0000000dH
  00157	0d		 DB	 13			; 0000000dH
  00158	0d		 DB	 13			; 0000000dH
  00159	0d		 DB	 13			; 0000000dH
  0015a	0d		 DB	 13			; 0000000dH
  0015b	0d		 DB	 13			; 0000000dH
  0015c	04		 DB	 4
  0015d	0d		 DB	 13			; 0000000dH
  0015e	0d		 DB	 13			; 0000000dH
  0015f	0d		 DB	 13			; 0000000dH
  00160	0d		 DB	 13			; 0000000dH
  00161	0d		 DB	 13			; 0000000dH
  00162	0d		 DB	 13			; 0000000dH
  00163	0d		 DB	 13			; 0000000dH
  00164	0d		 DB	 13			; 0000000dH
  00165	0d		 DB	 13			; 0000000dH
  00166	0d		 DB	 13			; 0000000dH
  00167	0d		 DB	 13			; 0000000dH
  00168	0d		 DB	 13			; 0000000dH
  00169	0d		 DB	 13			; 0000000dH
  0016a	0d		 DB	 13			; 0000000dH
  0016b	0d		 DB	 13			; 0000000dH
  0016c	0d		 DB	 13			; 0000000dH
  0016d	0d		 DB	 13			; 0000000dH
  0016e	0d		 DB	 13			; 0000000dH
  0016f	0d		 DB	 13			; 0000000dH
  00170	0d		 DB	 13			; 0000000dH
  00171	0d		 DB	 13			; 0000000dH
  00172	0d		 DB	 13			; 0000000dH
  00173	0d		 DB	 13			; 0000000dH
  00174	0d		 DB	 13			; 0000000dH
  00175	0d		 DB	 13			; 0000000dH
  00176	05		 DB	 5
  00177	0d		 DB	 13			; 0000000dH
  00178	06		 DB	 6
  00179	0d		 DB	 13			; 0000000dH
  0017a	0d		 DB	 13			; 0000000dH
  0017b	0d		 DB	 13			; 0000000dH
  0017c	0d		 DB	 13			; 0000000dH
  0017d	0d		 DB	 13			; 0000000dH
  0017e	0d		 DB	 13			; 0000000dH
  0017f	0d		 DB	 13			; 0000000dH
  00180	0d		 DB	 13			; 0000000dH
  00181	0d		 DB	 13			; 0000000dH
  00182	0d		 DB	 13			; 0000000dH
  00183	0d		 DB	 13			; 0000000dH
  00184	0d		 DB	 13			; 0000000dH
  00185	0d		 DB	 13			; 0000000dH
  00186	0d		 DB	 13			; 0000000dH
  00187	0d		 DB	 13			; 0000000dH
  00188	0d		 DB	 13			; 0000000dH
  00189	0d		 DB	 13			; 0000000dH
  0018a	0d		 DB	 13			; 0000000dH
  0018b	0d		 DB	 13			; 0000000dH
  0018c	0d		 DB	 13			; 0000000dH
  0018d	0d		 DB	 13			; 0000000dH
  0018e	0d		 DB	 13			; 0000000dH
  0018f	0d		 DB	 13			; 0000000dH
  00190	0d		 DB	 13			; 0000000dH
  00191	0d		 DB	 13			; 0000000dH
  00192	0d		 DB	 13			; 0000000dH
  00193	0d		 DB	 13			; 0000000dH
  00194	0d		 DB	 13			; 0000000dH
  00195	0d		 DB	 13			; 0000000dH
  00196	0d		 DB	 13			; 0000000dH
  00197	0d		 DB	 13			; 0000000dH
  00198	0d		 DB	 13			; 0000000dH
  00199	0d		 DB	 13			; 0000000dH
  0019a	07		 DB	 7
  0019b	08		 DB	 8
  0019c	0d		 DB	 13			; 0000000dH
  0019d	0d		 DB	 13			; 0000000dH
  0019e	0d		 DB	 13			; 0000000dH
  0019f	0d		 DB	 13			; 0000000dH
  001a0	0d		 DB	 13			; 0000000dH
  001a1	0d		 DB	 13			; 0000000dH
  001a2	0d		 DB	 13			; 0000000dH
  001a3	0d		 DB	 13			; 0000000dH
  001a4	0d		 DB	 13			; 0000000dH
  001a5	0d		 DB	 13			; 0000000dH
  001a6	0d		 DB	 13			; 0000000dH
  001a7	0d		 DB	 13			; 0000000dH
  001a8	0d		 DB	 13			; 0000000dH
  001a9	0d		 DB	 13			; 0000000dH
  001aa	0d		 DB	 13			; 0000000dH
  001ab	0d		 DB	 13			; 0000000dH
  001ac	0d		 DB	 13			; 0000000dH
  001ad	0d		 DB	 13			; 0000000dH
  001ae	0d		 DB	 13			; 0000000dH
  001af	0d		 DB	 13			; 0000000dH
  001b0	0d		 DB	 13			; 0000000dH
  001b1	0d		 DB	 13			; 0000000dH
  001b2	0d		 DB	 13			; 0000000dH
  001b3	0d		 DB	 13			; 0000000dH
  001b4	0d		 DB	 13			; 0000000dH
  001b5	0d		 DB	 13			; 0000000dH
  001b6	0d		 DB	 13			; 0000000dH
  001b7	0d		 DB	 13			; 0000000dH
  001b8	0d		 DB	 13			; 0000000dH
  001b9	0d		 DB	 13			; 0000000dH
  001ba	0d		 DB	 13			; 0000000dH
  001bb	0d		 DB	 13			; 0000000dH
  001bc	0d		 DB	 13			; 0000000dH
  001bd	0d		 DB	 13			; 0000000dH
  001be	0d		 DB	 13			; 0000000dH
  001bf	0d		 DB	 13			; 0000000dH
  001c0	0d		 DB	 13			; 0000000dH
  001c1	0d		 DB	 13			; 0000000dH
  001c2	0d		 DB	 13			; 0000000dH
  001c3	0d		 DB	 13			; 0000000dH
  001c4	0d		 DB	 13			; 0000000dH
  001c5	0d		 DB	 13			; 0000000dH
  001c6	0d		 DB	 13			; 0000000dH
  001c7	0d		 DB	 13			; 0000000dH
  001c8	0d		 DB	 13			; 0000000dH
  001c9	0d		 DB	 13			; 0000000dH
  001ca	0d		 DB	 13			; 0000000dH
  001cb	09		 DB	 9
  001cc	0a		 DB	 10			; 0000000aH
  001cd	0b		 DB	 11			; 0000000bH
  001ce	0d		 DB	 13			; 0000000dH
  001cf	0d		 DB	 13			; 0000000dH
  001d0	0d		 DB	 13			; 0000000dH
  001d1	0d		 DB	 13			; 0000000dH
  001d2	0d		 DB	 13			; 0000000dH
  001d3	0d		 DB	 13			; 0000000dH
  001d4	0d		 DB	 13			; 0000000dH
  001d5	0d		 DB	 13			; 0000000dH
  001d6	0d		 DB	 13			; 0000000dH
  001d7	0d		 DB	 13			; 0000000dH
  001d8	0d		 DB	 13			; 0000000dH
  001d9	0d		 DB	 13			; 0000000dH
  001da	0d		 DB	 13			; 0000000dH
  001db	0d		 DB	 13			; 0000000dH
  001dc	0d		 DB	 13			; 0000000dH
  001dd	0d		 DB	 13			; 0000000dH
  001de	0d		 DB	 13			; 0000000dH
  001df	0d		 DB	 13			; 0000000dH
  001e0	0d		 DB	 13			; 0000000dH
  001e1	0d		 DB	 13			; 0000000dH
  001e2	0d		 DB	 13			; 0000000dH
  001e3	0d		 DB	 13			; 0000000dH
  001e4	0d		 DB	 13			; 0000000dH
  001e5	0d		 DB	 13			; 0000000dH
  001e6	0d		 DB	 13			; 0000000dH
  001e7	0d		 DB	 13			; 0000000dH
  001e8	0d		 DB	 13			; 0000000dH
  001e9	0d		 DB	 13			; 0000000dH
  001ea	0d		 DB	 13			; 0000000dH
  001eb	0d		 DB	 13			; 0000000dH
  001ec	0d		 DB	 13			; 0000000dH
  001ed	0d		 DB	 13			; 0000000dH
  001ee	0d		 DB	 13			; 0000000dH
  001ef	0d		 DB	 13			; 0000000dH
  001f0	0d		 DB	 13			; 0000000dH
  001f1	0d		 DB	 13			; 0000000dH
  001f2	0d		 DB	 13			; 0000000dH
  001f3	0d		 DB	 13			; 0000000dH
  001f4	0d		 DB	 13			; 0000000dH
  001f5	0d		 DB	 13			; 0000000dH
  001f6	0d		 DB	 13			; 0000000dH
  001f7	0d		 DB	 13			; 0000000dH
  001f8	0d		 DB	 13			; 0000000dH
  001f9	0d		 DB	 13			; 0000000dH
  001fa	0d		 DB	 13			; 0000000dH
  001fb	0d		 DB	 13			; 0000000dH
  001fc	0d		 DB	 13			; 0000000dH
  001fd	0d		 DB	 13			; 0000000dH
  001fe	0d		 DB	 13			; 0000000dH
  001ff	0c		 DB	 12			; 0000000cH
?LoginPhase@CPythonNetworkStream@@IAEXXZ ENDP		; CPythonNetworkStream::LoginPhase
_TEXT	ENDS
; Function compile flags: /Ogtp
; File D:\Metin2 Server Files\mainline\SRC_2014\Metin2Client\UserInterface\PythonNetworkStreamPhaseLogin.cpp
;	COMDAT ?SendDirectEnterPacket@CPythonNetworkStream@@QAE_NPBD0I@Z
_TEXT	SEGMENT
_kPacketDirectEnter$ = -56				; size = 50
__$ArrayPad$ = -4					; size = 4
_c_szID$ = 8						; size = 4
_c_szPassword$ = 12					; size = 4
_uChrSlot$ = 16						; size = 4
?SendDirectEnterPacket@CPythonNetworkStream@@QAE_NPBD0I@Z PROC ; CPythonNetworkStream::SendDirectEnterPacket, COMDAT
; _this$ = ecx

; 238  : {

  00000	55		 push	 ebp
  00001	8b ec		 mov	 ebp, esp
  00003	83 ec 38	 sub	 esp, 56			; 00000038H
  00006	a1 00 00 00 00	 mov	 eax, DWORD PTR ___security_cookie
  0000b	33 c5		 xor	 eax, ebp
  0000d	89 45 fc	 mov	 DWORD PTR __$ArrayPad$[ebp], eax

; 239  : 	TPacketCGDirectEnter kPacketDirectEnter;
; 240  : 	kPacketDirectEnter.bHeader=HEADER_CG_DIRECT_ENTER;
; 241  : 	kPacketDirectEnter.index=uChrSlot;

  00010	8a 45 10	 mov	 al, BYTE PTR _uChrSlot$[ebp]
  00013	56		 push	 esi
  00014	8b 75 0c	 mov	 esi, DWORD PTR _c_szPassword$[ebp]
  00017	57		 push	 edi
  00018	8b f9		 mov	 edi, ecx
  0001a	88 45 f9	 mov	 BYTE PTR _kPacketDirectEnter$[ebp+49], al
  0001d	8b 4d 08	 mov	 ecx, DWORD PTR _c_szID$[ebp]

; 242  : 	strncpy(kPacketDirectEnter.login, c_szID, ID_MAX_NUM);

  00020	8d 45 c9	 lea	 eax, DWORD PTR _kPacketDirectEnter$[ebp+1]
  00023	6a 1e		 push	 30			; 0000001eH
  00025	51		 push	 ecx
  00026	50		 push	 eax
  00027	c6 45 c8 09	 mov	 BYTE PTR _kPacketDirectEnter$[ebp], 9
  0002b	e8 00 00 00 00	 call	 _strncpy

; 243  : 	strncpy(kPacketDirectEnter.passwd, c_szPassword, PASS_MAX_NUM);

  00030	6a 10		 push	 16			; 00000010H
  00032	8d 45 e8	 lea	 eax, DWORD PTR _kPacketDirectEnter$[ebp+32]
  00035	56		 push	 esi
  00036	50		 push	 eax
  00037	e8 00 00 00 00	 call	 _strncpy
  0003c	83 c4 18	 add	 esp, 24			; 00000018H

; 244  : 
; 245  : 	if (!Send(sizeof(kPacketDirectEnter), &kPacketDirectEnter))

  0003f	8d 45 c8	 lea	 eax, DWORD PTR _kPacketDirectEnter$[ebp]
  00042	8b cf		 mov	 ecx, edi
  00044	50		 push	 eax
  00045	6a 32		 push	 50			; 00000032H
  00047	e8 00 00 00 00	 call	 ?Send@CNetworkStream@@QAE_NHPBX@Z ; CNetworkStream::Send
  0004c	84 c0		 test	 al, al
  0004e	75 21		 jne	 SHORT $LN2@SendDirect

; 246  : 	{
; 247  : 		Tracen("SendDirectEnter");

  00050	68 00 00 00 00	 push	 OFFSET ??_C@_0BA@HOEIMIKO@SendDirectEnter@
  00055	e8 00 00 00 00	 call	 ?Tracen@@YAXPBD@Z	; Tracen
  0005a	83 c4 04	 add	 esp, 4

; 248  : 		return false;

  0005d	32 c0		 xor	 al, al
  0005f	5f		 pop	 edi

; 252  : }

  00060	5e		 pop	 esi
  00061	8b 4d fc	 mov	 ecx, DWORD PTR __$ArrayPad$[ebp]
  00064	33 cd		 xor	 ecx, ebp
  00066	e8 00 00 00 00	 call	 @__security_check_cookie@4
  0006b	8b e5		 mov	 esp, ebp
  0006d	5d		 pop	 ebp
  0006e	c2 0c 00	 ret	 12			; 0000000cH
$LN2@SendDirect:

; 249  : 	}
; 250  : 
; 251  : 	return SendSequence();

  00071	8b cf		 mov	 ecx, edi
  00073	e8 00 00 00 00	 call	 ?SendSequence@CNetworkStream@@QAE_NXZ ; CNetworkStream::SendSequence

; 252  : }

  00078	8b 4d fc	 mov	 ecx, DWORD PTR __$ArrayPad$[ebp]
  0007b	5f		 pop	 edi
  0007c	33 cd		 xor	 ecx, ebp
  0007e	5e		 pop	 esi
  0007f	e8 00 00 00 00	 call	 @__security_check_cookie@4
  00084	8b e5		 mov	 esp, ebp
  00086	5d		 pop	 ebp
  00087	c2 0c 00	 ret	 12			; 0000000cH
?SendDirectEnterPacket@CPythonNetworkStream@@QAE_NPBD0I@Z ENDP ; CPythonNetworkStream::SendDirectEnterPacket
_TEXT	ENDS
; Function compile flags: /Ogtp
; File D:\Metin2 Server Files\mainline\SRC_2014\Metin2Client\UserInterface\PythonNetworkStreamPhaseLogin.cpp
;	COMDAT ?SendNEWCIBNPasspodAnswerPacket@CPythonNetworkStream@@QAE_NPBD@Z
_TEXT	SEGMENT
_answerPacket$ = -16					; size = 10
__$ArrayPad$ = -4					; size = 4
_answer$ = 8						; size = 4
?SendNEWCIBNPasspodAnswerPacket@CPythonNetworkStream@@QAE_NPBD@Z PROC ; CPythonNetworkStream::SendNEWCIBNPasspodAnswerPacket, COMDAT
; _this$ = ecx

; 354  : {

  00000	55		 push	 ebp
  00001	8b ec		 mov	 ebp, esp
  00003	83 ec 10	 sub	 esp, 16			; 00000010H
  00006	a1 00 00 00 00	 mov	 eax, DWORD PTR ___security_cookie
  0000b	33 c5		 xor	 eax, ebp
  0000d	89 45 fc	 mov	 DWORD PTR __$ArrayPad$[ebp], eax
  00010	8b 45 08	 mov	 eax, DWORD PTR _answer$[ebp]
  00013	56		 push	 esi

; 355  : 	TPacketCGNEWCIBNPasspodAnswer answerPacket;
; 356  : 	answerPacket.bHeader = HEADER_CG_NEWCIBN_PASSPOD_ANSWER;
; 357  : 	strncpy(answerPacket.szAnswer, answer, NEWCIBN_PASSPOD_ANSWER_MAX_LEN);

  00014	6a 08		 push	 8
  00016	50		 push	 eax
  00017	8d 45 f1	 lea	 eax, DWORD PTR _answerPacket$[ebp+1]
  0001a	c6 45 f0 ca	 mov	 BYTE PTR _answerPacket$[ebp], 202 ; 000000caH
  0001e	50		 push	 eax
  0001f	8b f1		 mov	 esi, ecx
  00021	e8 00 00 00 00	 call	 _strncpy
  00026	83 c4 0c	 add	 esp, 12			; 0000000cH

; 358  : 	answerPacket.szAnswer[NEWCIBN_PASSPOD_ANSWER_MAX_LEN] = '\0';	

  00029	c6 45 f9 00	 mov	 BYTE PTR _answerPacket$[ebp+9], 0

; 359  : 	if (!Send(sizeof(answerPacket), &answerPacket))

  0002d	8d 45 f0	 lea	 eax, DWORD PTR _answerPacket$[ebp]
  00030	8b ce		 mov	 ecx, esi
  00032	50		 push	 eax
  00033	6a 0a		 push	 10			; 0000000aH
  00035	e8 00 00 00 00	 call	 ?Send@CNetworkStream@@QAE_NHPBX@Z ; CNetworkStream::Send
  0003a	84 c0		 test	 al, al
  0003c	75 20		 jne	 SHORT $LN2@SendNEWCIB

; 360  : 	{
; 361  : 		TraceError("SendNEWCIBNPasspodAnswerPacket");

  0003e	68 00 00 00 00	 push	 OFFSET ??_C@_0BP@JFBAGMPA@SendNEWCIBNPasspodAnswerPacket@
  00043	e8 00 00 00 00	 call	 ?TraceError@@YAXPBDZZ	; TraceError
  00048	83 c4 04	 add	 esp, 4

; 362  : 		return false;

  0004b	32 c0		 xor	 al, al
  0004d	5e		 pop	 esi

; 365  : }

  0004e	8b 4d fc	 mov	 ecx, DWORD PTR __$ArrayPad$[ebp]
  00051	33 cd		 xor	 ecx, ebp
  00053	e8 00 00 00 00	 call	 @__security_check_cookie@4
  00058	8b e5		 mov	 esp, ebp
  0005a	5d		 pop	 ebp
  0005b	c2 04 00	 ret	 4
$LN2@SendNEWCIB:

; 363  : 	}
; 364  : 	return SendSequence();

  0005e	8b ce		 mov	 ecx, esi
  00060	e8 00 00 00 00	 call	 ?SendSequence@CNetworkStream@@QAE_NXZ ; CNetworkStream::SendSequence

; 365  : }

  00065	8b 4d fc	 mov	 ecx, DWORD PTR __$ArrayPad$[ebp]
  00068	33 cd		 xor	 ecx, ebp
  0006a	5e		 pop	 esi
  0006b	e8 00 00 00 00	 call	 @__security_check_cookie@4
  00070	8b e5		 mov	 esp, ebp
  00072	5d		 pop	 ebp
  00073	c2 04 00	 ret	 4
?SendNEWCIBNPasspodAnswerPacket@CPythonNetworkStream@@QAE_NPBD@Z ENDP ; CPythonNetworkStream::SendNEWCIBNPasspodAnswerPacket
_TEXT	ENDS
; Function compile flags: /Ogtp
; File D:\Metin2 Server Files\mainline\SRC_2014\Metin2Client\UserInterface\PythonNetworkStreamPhaseLogin.cpp
;	COMDAT ?SendRunupMatrixAnswerPacket@CPythonNetworkStream@@QAE_NPBD@Z
_TEXT	SEGMENT
_answerPacket$ = -12					; size = 6
__$ArrayPad$ = -4					; size = 4
_c_szMatrixCardString$ = 8				; size = 4
?SendRunupMatrixAnswerPacket@CPythonNetworkStream@@QAE_NPBD@Z PROC ; CPythonNetworkStream::SendRunupMatrixAnswerPacket, COMDAT
; _this$ = ecx

; 319  : {

  00000	55		 push	 ebp
  00001	8b ec		 mov	 ebp, esp
  00003	83 ec 0c	 sub	 esp, 12			; 0000000cH
  00006	a1 00 00 00 00	 mov	 eax, DWORD PTR ___security_cookie
  0000b	33 c5		 xor	 eax, ebp
  0000d	89 45 fc	 mov	 DWORD PTR __$ArrayPad$[ebp], eax
  00010	8b 45 08	 mov	 eax, DWORD PTR _c_szMatrixCardString$[ebp]
  00013	56		 push	 esi

; 320  : 	TPacketCGRunupMatrixAnswer answerPacket;
; 321  : 	answerPacket.bHeader = HEADER_CG_RUNUP_MATRIX_ANSWER;
; 322  : 	strncpy(answerPacket.szAnswer, c_szMatrixCardString, RUNUP_MATRIX_ANSWER_MAX_LEN);

  00014	6a 04		 push	 4
  00016	50		 push	 eax
  00017	8d 45 f5	 lea	 eax, DWORD PTR _answerPacket$[ebp+1]
  0001a	c6 45 f4 c9	 mov	 BYTE PTR _answerPacket$[ebp], 201 ; 000000c9H
  0001e	50		 push	 eax
  0001f	8b f1		 mov	 esi, ecx
  00021	e8 00 00 00 00	 call	 _strncpy
  00026	83 c4 0c	 add	 esp, 12			; 0000000cH

; 323  : 	answerPacket.szAnswer[RUNUP_MATRIX_ANSWER_MAX_LEN] = '\0';

  00029	c6 45 f9 00	 mov	 BYTE PTR _answerPacket$[ebp+5], 0

; 324  : 	if (!Send(sizeof(answerPacket), &answerPacket))

  0002d	8d 45 f4	 lea	 eax, DWORD PTR _answerPacket$[ebp]
  00030	8b ce		 mov	 ecx, esi
  00032	50		 push	 eax
  00033	6a 06		 push	 6
  00035	e8 00 00 00 00	 call	 ?Send@CNetworkStream@@QAE_NHPBX@Z ; CNetworkStream::Send
  0003a	84 c0		 test	 al, al
  0003c	75 20		 jne	 SHORT $LN2@SendRunupM

; 325  : 	{
; 326  : 		TraceError("SendRunupMatrixCardPacketError");

  0003e	68 00 00 00 00	 push	 OFFSET ??_C@_0BP@PNMANAPB@SendRunupMatrixCardPacketError@
  00043	e8 00 00 00 00	 call	 ?TraceError@@YAXPBDZZ	; TraceError
  00048	83 c4 04	 add	 esp, 4

; 327  : 		return false;

  0004b	32 c0		 xor	 al, al
  0004d	5e		 pop	 esi

; 330  : }

  0004e	8b 4d fc	 mov	 ecx, DWORD PTR __$ArrayPad$[ebp]
  00051	33 cd		 xor	 ecx, ebp
  00053	e8 00 00 00 00	 call	 @__security_check_cookie@4
  00058	8b e5		 mov	 esp, ebp
  0005a	5d		 pop	 ebp
  0005b	c2 04 00	 ret	 4
$LN2@SendRunupM:

; 328  : 	}
; 329  : 	return SendSequence();

  0005e	8b ce		 mov	 ecx, esi
  00060	e8 00 00 00 00	 call	 ?SendSequence@CNetworkStream@@QAE_NXZ ; CNetworkStream::SendSequence

; 330  : }

  00065	8b 4d fc	 mov	 ecx, DWORD PTR __$ArrayPad$[ebp]
  00068	33 cd		 xor	 ecx, ebp
  0006a	5e		 pop	 esi
  0006b	e8 00 00 00 00	 call	 @__security_check_cookie@4
  00070	8b e5		 mov	 esp, ebp
  00072	5d		 pop	 ebp
  00073	c2 04 00	 ret	 4
?SendRunupMatrixAnswerPacket@CPythonNetworkStream@@QAE_NPBD@Z ENDP ; CPythonNetworkStream::SendRunupMatrixAnswerPacket
_TEXT	ENDS
; Function compile flags: /Ogtp
; File D:\Metin2 Server Files\mainline\SRC_2014\Metin2Client\UserInterface\PythonNetworkStreamPhaseLogin.cpp
;	COMDAT ?SendChinaMatrixCardPacket@CPythonNetworkStream@@QAE_NPBD@Z
_TEXT	SEGMENT
_MatrixCardPacket$ = -16				; size = 10
__$ArrayPad$ = -4					; size = 4
_c_szMatrixCardString$ = 8				; size = 4
?SendChinaMatrixCardPacket@CPythonNetworkStream@@QAE_NPBD@Z PROC ; CPythonNetworkStream::SendChinaMatrixCardPacket, COMDAT
; _this$ = ecx

; 368  : {

  00000	55		 push	 ebp
  00001	8b ec		 mov	 ebp, esp
  00003	83 ec 10	 sub	 esp, 16			; 00000010H
  00006	a1 00 00 00 00	 mov	 eax, DWORD PTR ___security_cookie
  0000b	33 c5		 xor	 eax, ebp
  0000d	89 45 fc	 mov	 DWORD PTR __$ArrayPad$[ebp], eax
  00010	8b 45 08	 mov	 eax, DWORD PTR _c_szMatrixCardString$[ebp]
  00013	56		 push	 esi

; 369  : 	TPacketCGChinaMatrixCard MatrixCardPacket;
; 370  : 	MatrixCardPacket.bHeader = HEADER_CG_CHINA_MATRIX_CARD;
; 371  : 	strncpy(MatrixCardPacket.szAnswer, c_szMatrixCardString, CHINA_MATRIX_ANSWER_MAX_LEN);

  00014	6a 08		 push	 8
  00016	50		 push	 eax
  00017	8d 45 f1	 lea	 eax, DWORD PTR _MatrixCardPacket$[ebp+1]
  0001a	c6 45 f0 6c	 mov	 BYTE PTR _MatrixCardPacket$[ebp], 108 ; 0000006cH
  0001e	50		 push	 eax
  0001f	8b f1		 mov	 esi, ecx
  00021	e8 00 00 00 00	 call	 _strncpy
  00026	83 c4 0c	 add	 esp, 12			; 0000000cH

; 372  : 	MatrixCardPacket.szAnswer[CHINA_MATRIX_ANSWER_MAX_LEN]='\0';

  00029	c6 45 f9 00	 mov	 BYTE PTR _MatrixCardPacket$[ebp+9], 0

; 373  : 
; 374  : 	if (!Send(sizeof(MatrixCardPacket), &MatrixCardPacket))

  0002d	8d 45 f0	 lea	 eax, DWORD PTR _MatrixCardPacket$[ebp]
  00030	8b ce		 mov	 ecx, esi
  00032	50		 push	 eax
  00033	6a 0a		 push	 10			; 0000000aH
  00035	e8 00 00 00 00	 call	 ?Send@CNetworkStream@@QAE_NHPBX@Z ; CNetworkStream::Send
  0003a	84 c0		 test	 al, al
  0003c	75 20		 jne	 SHORT $LN2@SendChinaM

; 375  : 	{
; 376  : 		Tracen("SendLogin Error");

  0003e	68 00 00 00 00	 push	 OFFSET ??_C@_0BA@HGDBLFFH@SendLogin?5Error@
  00043	e8 00 00 00 00	 call	 ?Tracen@@YAXPBD@Z	; Tracen
  00048	83 c4 04	 add	 esp, 4

; 377  : 		return false;

  0004b	32 c0		 xor	 al, al
  0004d	5e		 pop	 esi

; 383  : }

  0004e	8b 4d fc	 mov	 ecx, DWORD PTR __$ArrayPad$[ebp]
  00051	33 cd		 xor	 ecx, ebp
  00053	e8 00 00 00 00	 call	 @__security_check_cookie@4
  00058	8b e5		 mov	 esp, ebp
  0005a	5d		 pop	 ebp
  0005b	c2 04 00	 ret	 4
$LN2@SendChinaM:

; 378  : 	}
; 379  : 
; 380  : 	m_isWaitLoginKey = TRUE;
; 381  : 
; 382  : 	return SendSequence();

  0005e	8b ce		 mov	 ecx, esi
  00060	c7 86 28 01 00
	00 01 00 00 00	 mov	 DWORD PTR [esi+296], 1
  0006a	e8 00 00 00 00	 call	 ?SendSequence@CNetworkStream@@QAE_NXZ ; CNetworkStream::SendSequence

; 383  : }

  0006f	8b 4d fc	 mov	 ecx, DWORD PTR __$ArrayPad$[ebp]
  00072	33 cd		 xor	 ecx, ebp
  00074	5e		 pop	 esi
  00075	e8 00 00 00 00	 call	 @__security_check_cookie@4
  0007a	8b e5		 mov	 esp, ebp
  0007c	5d		 pop	 ebp
  0007d	c2 04 00	 ret	 4
?SendChinaMatrixCardPacket@CPythonNetworkStream@@QAE_NPBD@Z ENDP ; CPythonNetworkStream::SendChinaMatrixCardPacket
_TEXT	ENDS
; Function compile flags: /Ogtp
; File D:\Metin2 Server Files\mainline\SRC_2014\Metin2Client\UserInterface\PythonNetworkStreamPhaseLogin.cpp
;	COMDAT ?SendLoginPacketNew@CPythonNetworkStream@@QAE_NPBD0@Z
_TEXT	SEGMENT
_LoginPacket$ = -56					; size = 52
__$ArrayPad$ = -4					; size = 4
_c_szName$ = 8						; size = 4
_c_szPassword$ = 12					; size = 4
?SendLoginPacketNew@CPythonNetworkStream@@QAE_NPBD0@Z PROC ; CPythonNetworkStream::SendLoginPacketNew, COMDAT
; _this$ = ecx

; 275  : {

  00000	55		 push	 ebp
  00001	8b ec		 mov	 ebp, esp
  00003	83 ec 38	 sub	 esp, 56			; 00000038H
  00006	a1 00 00 00 00	 mov	 eax, DWORD PTR ___security_cookie
  0000b	33 c5		 xor	 eax, ebp
  0000d	89 45 fc	 mov	 DWORD PTR __$ArrayPad$[ebp], eax
  00010	56		 push	 esi
  00011	8b f1		 mov	 esi, ecx

; 276  : 	TPacketCGLogin2 LoginPacket;
; 277  : 	LoginPacket.header = HEADER_CG_LOGIN2;

  00013	c6 45 c8 6d	 mov	 BYTE PTR _LoginPacket$[ebp], 109 ; 0000006dH
  00017	8b 4d 08	 mov	 ecx, DWORD PTR _c_szName$[ebp]

; 278  : 	LoginPacket.login_key = m_dwLoginKey;
; 279  : 
; 280  : 	strncpy(LoginPacket.name, c_szName, sizeof(LoginPacket.name)-1);

  0001a	6a 1e		 push	 30			; 0000001eH
  0001c	51		 push	 ecx
  0001d	8b 86 24 01 00
	00		 mov	 eax, DWORD PTR [esi+292]
  00023	89 45 e8	 mov	 DWORD PTR _LoginPacket$[ebp+32], eax
  00026	8d 45 c9	 lea	 eax, DWORD PTR _LoginPacket$[ebp+1]
  00029	50		 push	 eax
  0002a	e8 00 00 00 00	 call	 _strncpy

; 281  : 	LoginPacket.name[ID_MAX_NUM]='\0';
; 282  : 
; 283  : 	extern DWORD g_adwEncryptKey[4];
; 284  : 	extern DWORD g_adwDecryptKey[4];
; 285  : 	for (DWORD i = 0; i < 4; ++i)
; 286  : 		LoginPacket.adwClientKey[i] = g_adwEncryptKey[i];

  0002f	a1 00 00 00 00	 mov	 eax, DWORD PTR ?g_adwEncryptKey@@3PAKA
  00034	83 c4 0c	 add	 esp, 12			; 0000000cH
  00037	89 45 ec	 mov	 DWORD PTR _LoginPacket$[ebp+36], eax

; 287  : 
; 288  : 	if (!Send(sizeof(LoginPacket), &LoginPacket))

  0003a	8b ce		 mov	 ecx, esi
  0003c	a1 04 00 00 00	 mov	 eax, DWORD PTR ?g_adwEncryptKey@@3PAKA+4
  00041	89 45 f0	 mov	 DWORD PTR _LoginPacket$[ebp+40], eax
  00044	a1 08 00 00 00	 mov	 eax, DWORD PTR ?g_adwEncryptKey@@3PAKA+8
  00049	89 45 f4	 mov	 DWORD PTR _LoginPacket$[ebp+44], eax
  0004c	a1 0c 00 00 00	 mov	 eax, DWORD PTR ?g_adwEncryptKey@@3PAKA+12
  00051	89 45 f8	 mov	 DWORD PTR _LoginPacket$[ebp+48], eax
  00054	8d 45 c8	 lea	 eax, DWORD PTR _LoginPacket$[ebp]
  00057	50		 push	 eax
  00058	6a 34		 push	 52			; 00000034H
  0005a	c6 45 e7 00	 mov	 BYTE PTR _LoginPacket$[ebp+31], 0
  0005e	e8 00 00 00 00	 call	 ?Send@CNetworkStream@@QAE_NHPBX@Z ; CNetworkStream::Send
  00063	84 c0		 test	 al, al
  00065	74 25		 je	 SHORT $LN18@SendLoginP

; 289  : 	{
; 290  : 		Tracen("SendLogin Error");
; 291  : 		return false;
; 292  : 	}
; 293  : 
; 294  : 	if (!SendSequence())

  00067	8b ce		 mov	 ecx, esi
  00069	e8 00 00 00 00	 call	 ?SendSequence@CNetworkStream@@QAE_NXZ ; CNetworkStream::SendSequence
  0006e	84 c0		 test	 al, al
  00070	74 1a		 je	 SHORT $LN18@SendLoginP

; 297  : 		return false;
; 298  : 	}
; 299  : 
; 300  : 	__SendInternalBuffer();

  00072	8b ce		 mov	 ecx, esi
  00074	e8 00 00 00 00	 call	 ?__SendInternalBuffer@CNetworkStream@@IAE_NXZ ; CNetworkStream::__SendInternalBuffer

; 301  : 
; 302  : #ifndef _IMPROVED_PACKET_ENCRYPTION_
; 303  : 	SetSecurityMode(true, (const char *) g_adwEncryptKey, (const char *) g_adwDecryptKey);
; 304  : #endif
; 305  : 	return true;

  00079	b0 01		 mov	 al, 1
  0007b	5e		 pop	 esi

; 306  : }

  0007c	8b 4d fc	 mov	 ecx, DWORD PTR __$ArrayPad$[ebp]
  0007f	33 cd		 xor	 ecx, ebp
  00081	e8 00 00 00 00	 call	 @__security_check_cookie@4
  00086	8b e5		 mov	 esp, ebp
  00088	5d		 pop	 ebp
  00089	c2 08 00	 ret	 8
$LN18@SendLoginP:

; 295  : 	{
; 296  : 		Tracen("SendLogin Error");

  0008c	68 00 00 00 00	 push	 OFFSET ??_C@_0BA@HGDBLFFH@SendLogin?5Error@
  00091	e8 00 00 00 00	 call	 ?Tracen@@YAXPBD@Z	; Tracen

; 306  : }

  00096	8b 4d fc	 mov	 ecx, DWORD PTR __$ArrayPad$[ebp]
  00099	83 c4 04	 add	 esp, 4
  0009c	33 cd		 xor	 ecx, ebp
  0009e	32 c0		 xor	 al, al
  000a0	5e		 pop	 esi
  000a1	e8 00 00 00 00	 call	 @__security_check_cookie@4
  000a6	8b e5		 mov	 esp, ebp
  000a8	5d		 pop	 ebp
  000a9	c2 08 00	 ret	 8
?SendLoginPacketNew@CPythonNetworkStream@@QAE_NPBD0@Z ENDP ; CPythonNetworkStream::SendLoginPacketNew
_TEXT	ENDS
; Function compile flags: /Ogtp
; File D:\Metin2 Server Files\mainline\SRC_2014\Metin2Client\UserInterface\PythonNetworkStreamPhaseLogin.cpp
;	COMDAT ?SendLoginPacket@CPythonNetworkStream@@QAE_NPBD0@Z
_TEXT	SEGMENT
_LoginPacket$ = -56					; size = 49
__$ArrayPad$ = -4					; size = 4
_c_szName$ = 8						; size = 4
_c_szPassword$ = 12					; size = 4
?SendLoginPacket@CPythonNetworkStream@@QAE_NPBD0@Z PROC	; CPythonNetworkStream::SendLoginPacket, COMDAT
; _this$ = ecx

; 255  : {

  00000	55		 push	 ebp
  00001	8b ec		 mov	 ebp, esp
  00003	83 ec 38	 sub	 esp, 56			; 00000038H
  00006	a1 00 00 00 00	 mov	 eax, DWORD PTR ___security_cookie
  0000b	33 c5		 xor	 eax, ebp
  0000d	89 45 fc	 mov	 DWORD PTR __$ArrayPad$[ebp], eax
  00010	8b 45 08	 mov	 eax, DWORD PTR _c_szName$[ebp]
  00013	56		 push	 esi
  00014	8b 75 0c	 mov	 esi, DWORD PTR _c_szPassword$[ebp]
  00017	57		 push	 edi

; 256  : 	TPacketCGLogin LoginPacket;
; 257  : 	LoginPacket.header = HEADER_CG_LOGIN;
; 258  : 
; 259  : 	strncpy(LoginPacket.name, c_szName, sizeof(LoginPacket.name)-1);

  00018	6a 1e		 push	 30			; 0000001eH
  0001a	50		 push	 eax
  0001b	8d 45 c9	 lea	 eax, DWORD PTR _LoginPacket$[ebp+1]
  0001e	c6 45 c8 01	 mov	 BYTE PTR _LoginPacket$[ebp], 1
  00022	50		 push	 eax
  00023	8b f9		 mov	 edi, ecx
  00025	e8 00 00 00 00	 call	 _strncpy

; 260  : 	strncpy(LoginPacket.pwd, c_szPassword, sizeof(LoginPacket.pwd)-1);

  0002a	6a 10		 push	 16			; 00000010H
  0002c	8d 45 e8	 lea	 eax, DWORD PTR _LoginPacket$[ebp+32]
  0002f	56		 push	 esi
  00030	50		 push	 eax
  00031	e8 00 00 00 00	 call	 _strncpy
  00036	83 c4 18	 add	 esp, 24			; 00000018H

; 261  : 
; 262  : 	LoginPacket.name[ID_MAX_NUM]='\0';

  00039	c6 45 e7 00	 mov	 BYTE PTR _LoginPacket$[ebp+31], 0

; 263  : 	LoginPacket.pwd[PASS_MAX_NUM]='\0';
; 264  : 
; 265  : 	if (!Send(sizeof(LoginPacket), &LoginPacket))

  0003d	8d 45 c8	 lea	 eax, DWORD PTR _LoginPacket$[ebp]
  00040	c6 45 f8 00	 mov	 BYTE PTR _LoginPacket$[ebp+48], 0
  00044	8b cf		 mov	 ecx, edi
  00046	50		 push	 eax
  00047	6a 31		 push	 49			; 00000031H
  00049	e8 00 00 00 00	 call	 ?Send@CNetworkStream@@QAE_NHPBX@Z ; CNetworkStream::Send
  0004e	84 c0		 test	 al, al
  00050	75 21		 jne	 SHORT $LN2@SendLoginP

; 266  : 	{
; 267  : 		Tracen("SendLogin Error");

  00052	68 00 00 00 00	 push	 OFFSET ??_C@_0BA@HGDBLFFH@SendLogin?5Error@
  00057	e8 00 00 00 00	 call	 ?Tracen@@YAXPBD@Z	; Tracen
  0005c	83 c4 04	 add	 esp, 4

; 268  : 		return false;

  0005f	32 c0		 xor	 al, al
  00061	5f		 pop	 edi

; 272  : }

  00062	5e		 pop	 esi
  00063	8b 4d fc	 mov	 ecx, DWORD PTR __$ArrayPad$[ebp]
  00066	33 cd		 xor	 ecx, ebp
  00068	e8 00 00 00 00	 call	 @__security_check_cookie@4
  0006d	8b e5		 mov	 esp, ebp
  0006f	5d		 pop	 ebp
  00070	c2 08 00	 ret	 8
$LN2@SendLoginP:

; 269  : 	}
; 270  : 
; 271  : 	return SendSequence();

  00073	8b cf		 mov	 ecx, edi
  00075	e8 00 00 00 00	 call	 ?SendSequence@CNetworkStream@@QAE_NXZ ; CNetworkStream::SendSequence

; 272  : }

  0007a	8b 4d fc	 mov	 ecx, DWORD PTR __$ArrayPad$[ebp]
  0007d	5f		 pop	 edi
  0007e	33 cd		 xor	 ecx, ebp
  00080	5e		 pop	 esi
  00081	e8 00 00 00 00	 call	 @__security_check_cookie@4
  00086	8b e5		 mov	 esp, ebp
  00088	5d		 pop	 ebp
  00089	c2 08 00	 ret	 8
?SendLoginPacket@CPythonNetworkStream@@QAE_NPBD0@Z ENDP	; CPythonNetworkStream::SendLoginPacket
_TEXT	ENDS
; Function compile flags: /Ogtp
; File D:\Metin2 Server Files\mainline\SRC_2014\Metin2Client\UserInterface\PythonNetworkStreamPhaseLogin.cpp
; File D:\Metin2 Server Files\mainline\SRC_2014\Metin2Client\eterLib\FuncObject.h
; File D:\Metin2 Server Files\mainline\SRC_2014\Metin2Client\UserInterface\PythonNetworkStreamPhaseLogin.cpp
; File C:\Program Files (x86)\Microsoft Visual Studio\2019\Community\VC\Tools\MSVC\14.28.29333\include\xstring
; File D:\Metin2 Server Files\mainline\SRC_2014\Metin2Client\eterLib\FuncObject.h
; File D:\Metin2 Server Files\mainline\SRC_2014\Metin2Client\UserInterface\PythonNetworkStreamPhaseLogin.cpp
; File C:\Program Files (x86)\Microsoft Visual Studio\2019\Community\VC\Tools\MSVC\14.28.29333\include\xstring
; File D:\Metin2 Server Files\mainline\SRC_2014\Metin2Client\UserInterface\PythonNetworkStreamPhaseLogin.cpp
; File C:\Program Files (x86)\Microsoft Visual Studio\2019\Community\VC\Tools\MSVC\14.28.29333\include\xstring
; File D:\Metin2 Server Files\mainline\SRC_2014\Metin2Client\UserInterface\PythonNetworkStreamPhaseLogin.cpp
; File C:\Program Files (x86)\Microsoft Visual Studio\2019\Community\VC\Tools\MSVC\14.28.29333\include\xstring
; File D:\Metin2 Server Files\mainline\SRC_2014\Metin2Client\UserInterface\PythonNetworkStreamPhaseLogin.cpp
; File C:\Program Files (x86)\Microsoft Visual Studio\2019\Community\VC\Tools\MSVC\14.28.29333\include\xstring
; File D:\Metin2 Server Files\mainline\SRC_2014\Metin2Client\UserInterface\PythonNetworkStreamPhaseLogin.cpp
;	COMDAT ?SetLoginPhase@CPythonNetworkStream@@QAEXXZ
_TEXT	SEGMENT
?SetLoginPhase@CPythonNetworkStream@@QAEXXZ PROC	; CPythonNetworkStream::SetLoginPhase, COMDAT
; _this$ = ecx

; 94   : {

  00000	56		 push	 esi
  00001	57		 push	 edi
  00002	8b f1		 mov	 esi, ecx

; 95   : 	const char* key = LocaleService_GetSecurityKey();

  00004	e8 00 00 00 00	 call	 ?LocaleService_GetSecurityKey@@YAPBDXZ ; LocaleService_GetSecurityKey

; 96   : #ifndef _IMPROVED_PACKET_ENCRYPTION_
; 97   : 	SetSecurityMode(true, key);
; 98   : #endif
; 99   : 
; 100  : 	if ("Login" != m_strPhase)

  00009	8d be 0c 01 00
	00		 lea	 edi, DWORD PTR [esi+268]
  0000f	57		 push	 edi
  00010	68 00 00 00 00	 push	 OFFSET ??_C@_05DHEMANOL@Login@
  00015	e8 00 00 00 00	 call	 ??$?9DU?$char_traits@D@std@@V?$allocator@D@1@@std@@YA_NQBDABV?$basic_string@DU?$char_traits@D@std@@V?$allocator@D@2@@0@@Z ; std::operator!=<char,std::char_traits<char>,std::allocator<char> >
  0001a	83 c4 08	 add	 esp, 8
  0001d	84 c0		 test	 al, al
  0001f	74 1e		 je	 SHORT $LN12@SetLoginPh
; File D:\Metin2 Server Files\mainline\SRC_2014\Metin2Client\eterLib\FuncObject.h

; 41   : 			if (m_pSelfObject)

  00021	8b 86 68 01 00
	00		 mov	 eax, DWORD PTR [esi+360]
  00027	85 c0		 test	 eax, eax
  00029	74 14		 je	 SHORT $LN12@SetLoginPh

; 42   : 				if (m_pFuncObject)

  0002b	8b 96 70 01 00
	00		 mov	 edx, DWORD PTR [esi+368]
  00031	85 d2		 test	 edx, edx
  00033	74 0a		 je	 SHORT $LN12@SetLoginPh

; 43   : 					(m_pSelfObject->*m_pFuncObject)();

  00035	8b 8e 74 01 00
	00		 mov	 ecx, DWORD PTR [esi+372]
  0003b	03 c8		 add	 ecx, eax
  0003d	ff d2		 call	 edx
$LN12@SetLoginPh:
; File D:\Metin2 Server Files\mainline\SRC_2014\Metin2Client\UserInterface\PythonNetworkStreamPhaseLogin.cpp

; 103  : 	Tracen("");

  0003f	68 00 00 00 00	 push	 OFFSET ??_C@_00CNPNBAHC@@
  00044	e8 00 00 00 00	 call	 ?Tracen@@YAXPBD@Z	; Tracen

; 104  : 	Tracen("## Network - Login Phase ##");

  00049	68 00 00 00 00	 push	 OFFSET ??_C@_0BM@GIOJNFMI@?$CD?$CD?5Network?5?9?5Login?5Phase?5?$CD?$CD@
  0004e	e8 00 00 00 00	 call	 ?Tracen@@YAXPBD@Z	; Tracen

; 105  : 	Tracen("");

  00053	68 00 00 00 00	 push	 OFFSET ??_C@_00CNPNBAHC@@
  00058	e8 00 00 00 00	 call	 ?Tracen@@YAXPBD@Z	; Tracen
  0005d	83 c4 0c	 add	 esp, 12			; 0000000cH
; File C:\Program Files (x86)\Microsoft Visual Studio\2019\Community\VC\Tools\MSVC\14.28.29333\include\xstring

; 3062 :         return assign(_Ptr, _Convert_size<size_type>(_Traits::length(_Ptr)));

  00060	8b cf		 mov	 ecx, edi
  00062	6a 05		 push	 5
  00064	68 00 00 00 00	 push	 OFFSET ??_C@_05DHEMANOL@Login@
  00069	e8 00 00 00 00	 call	 ?assign@?$basic_string@DU?$char_traits@D@std@@V?$allocator@D@2@@std@@QAEAAV12@QBDI@Z ; std::basic_string<char,std::char_traits<char>,std::allocator<char> >::assign
; File D:\Metin2 Server Files\mainline\SRC_2014\Metin2Client\eterLib\FuncObject.h

; 24   : 			m_pSelfObject = pSelfObject;

  0006e	89 b6 50 01 00
	00		 mov	 DWORD PTR [esi+336], esi

; 25   : 			m_pFuncObject = pFuncObject;

  00074	c7 86 58 01 00
	00 00 00 00 00	 mov	 DWORD PTR [esi+344], OFFSET ?LoginPhase@CPythonNetworkStream@@IAEXXZ ; CPythonNetworkStream::LoginPhase
  0007e	c7 86 5c 01 00
	00 00 00 00 00	 mov	 DWORD PTR [esi+348], 0

; 24   : 			m_pSelfObject = pSelfObject;

  00088	89 b6 68 01 00
	00		 mov	 DWORD PTR [esi+360], esi

; 25   : 			m_pFuncObject = pFuncObject;

  0008e	c7 86 70 01 00
	00 00 00 00 00	 mov	 DWORD PTR [esi+368], OFFSET ?__LeaveLoginPhase@CPythonNetworkStream@@IAEXXZ ; CPythonNetworkStream::__LeaveLoginPhase
  00098	c7 86 74 01 00
	00 00 00 00 00	 mov	 DWORD PTR [esi+372], 0
; File D:\Metin2 Server Files\mainline\SRC_2014\Metin2Client\UserInterface\PythonNetworkStreamPhaseLogin.cpp

; 112  : 	m_dwChangingPhaseTime = ELTimer_GetMSec();

  000a2	e8 00 00 00 00	 call	 ?ELTimer_GetMSec@@YAKXZ	; ELTimer_GetMSec

; 113  : 
; 114  : 	if (__DirectEnterMode_IsSet())

  000a7	8b ce		 mov	 ecx, esi
  000a9	89 86 90 00 00
	00		 mov	 DWORD PTR [esi+144], eax
  000af	e8 00 00 00 00	 call	 ?__DirectEnterMode_IsSet@CPythonNetworkStream@@AAE_NXZ ; CPythonNetworkStream::__DirectEnterMode_IsSet
  000b4	8b 96 24 01 00
	00		 mov	 edx, DWORD PTR [esi+292]
  000ba	8d 8e dc 00 00
	00		 lea	 ecx, DWORD PTR [esi+220]
  000c0	84 c0		 test	 al, al
  000c2	74 70		 je	 SHORT $LN3@SetLoginPh

; 115  : 	{
; 116  : 		if (0 != m_dwLoginKey)

  000c4	85 d2		 test	 edx, edx
  000c6	74 36		 je	 SHORT $LN5@SetLoginPh
; File C:\Program Files (x86)\Microsoft Visual Studio\2019\Community\VC\Tools\MSVC\14.28.29333\include\xstring

; 2227 :         return _BUF_SIZE <= _Myres;

  000c8	83 79 14 10	 cmp	 DWORD PTR [ecx+20], 16	; 00000010H

; 2219 :         if (_Large_string_engaged()) {

  000cc	72 02		 jb	 SHORT $LN30@SetLoginPh

; 2220 :             _Result = _Unfancy(_Bx._Ptr);

  000ce	8b 09		 mov	 ecx, DWORD PTR [ecx]
$LN30@SetLoginPh:

; 2227 :         return _BUF_SIZE <= _Myres;

  000d0	83 be d8 00 00
	00 10		 cmp	 DWORD PTR [esi+216], 16	; 00000010H

; 3752 :         return _Mypair._Myval2._Myptr();

  000d7	8d 86 c4 00 00
	00		 lea	 eax, DWORD PTR [esi+196]

; 2219 :         if (_Large_string_engaged()) {

  000dd	72 02		 jb	 SHORT $LN37@SetLoginPh

; 2220 :             _Result = _Unfancy(_Bx._Ptr);

  000df	8b 00		 mov	 eax, DWORD PTR [eax]
$LN37@SetLoginPh:
; File D:\Metin2 Server Files\mainline\SRC_2014\Metin2Client\UserInterface\PythonNetworkStreamPhaseLogin.cpp

; 117  : 			SendLoginPacketNew(m_stID.c_str(), m_stPassword.c_str());

  000e1	51		 push	 ecx
  000e2	50		 push	 eax
  000e3	8b ce		 mov	 ecx, esi
  000e5	e8 00 00 00 00	 call	 ?SendLoginPacketNew@CPythonNetworkStream@@QAE_NPBD0@Z ; CPythonNetworkStream::SendLoginPacketNew

; 120  : 
; 121  : 		//       ,     
; 122  : 		ClearLoginInfo();

  000ea	8b ce		 mov	 ecx, esi
  000ec	e8 00 00 00 00	 call	 ?ClearLoginInfo@CPythonNetworkStream@@QAEXXZ ; CPythonNetworkStream::ClearLoginInfo

; 123  : 		CAccountConnector & rkAccountConnector = CAccountConnector::Instance();
; 124  : 		rkAccountConnector.ClearLoginInfo();

  000f1	8b 0d 00 00 00
	00		 mov	 ecx, DWORD PTR ?ms_singleton@?$CSingleton@VCAccountConnector@@@@0PAVCAccountConnector@@A ; CSingleton<CAccountConnector>::ms_singleton
  000f7	5f		 pop	 edi

; 141  : 	}
; 142  : }

  000f8	5e		 pop	 esi

; 123  : 		CAccountConnector & rkAccountConnector = CAccountConnector::Instance();
; 124  : 		rkAccountConnector.ClearLoginInfo();

  000f9	e9 00 00 00 00	 jmp	 ?ClearLoginInfo@CAccountConnector@@QAEXXZ ; CAccountConnector::ClearLoginInfo
$LN5@SetLoginPh:
; File C:\Program Files (x86)\Microsoft Visual Studio\2019\Community\VC\Tools\MSVC\14.28.29333\include\xstring

; 2227 :         return _BUF_SIZE <= _Myres;

  000fe	83 79 14 10	 cmp	 DWORD PTR [ecx+20], 16	; 00000010H

; 2219 :         if (_Large_string_engaged()) {

  00102	72 02		 jb	 SHORT $LN44@SetLoginPh

; 2220 :             _Result = _Unfancy(_Bx._Ptr);

  00104	8b 09		 mov	 ecx, DWORD PTR [ecx]
$LN44@SetLoginPh:

; 2227 :         return _BUF_SIZE <= _Myres;

  00106	83 be d8 00 00
	00 10		 cmp	 DWORD PTR [esi+216], 16	; 00000010H

; 3752 :         return _Mypair._Myval2._Myptr();

  0010d	8d 86 c4 00 00
	00		 lea	 eax, DWORD PTR [esi+196]

; 2219 :         if (_Large_string_engaged()) {

  00113	72 02		 jb	 SHORT $LN51@SetLoginPh

; 2220 :             _Result = _Unfancy(_Bx._Ptr);

  00115	8b 00		 mov	 eax, DWORD PTR [eax]
$LN51@SetLoginPh:
; File D:\Metin2 Server Files\mainline\SRC_2014\Metin2Client\UserInterface\PythonNetworkStreamPhaseLogin.cpp

; 119  : 			SendLoginPacket(m_stID.c_str(), m_stPassword.c_str());

  00117	51		 push	 ecx
  00118	50		 push	 eax
  00119	8b ce		 mov	 ecx, esi
  0011b	e8 00 00 00 00	 call	 ?SendLoginPacket@CPythonNetworkStream@@QAE_NPBD0@Z ; CPythonNetworkStream::SendLoginPacket

; 120  : 
; 121  : 		//       ,     
; 122  : 		ClearLoginInfo();

  00120	8b ce		 mov	 ecx, esi
  00122	e8 00 00 00 00	 call	 ?ClearLoginInfo@CPythonNetworkStream@@QAEXXZ ; CPythonNetworkStream::ClearLoginInfo

; 123  : 		CAccountConnector & rkAccountConnector = CAccountConnector::Instance();
; 124  : 		rkAccountConnector.ClearLoginInfo();

  00127	8b 0d 00 00 00
	00		 mov	 ecx, DWORD PTR ?ms_singleton@?$CSingleton@VCAccountConnector@@@@0PAVCAccountConnector@@A ; CSingleton<CAccountConnector>::ms_singleton
  0012d	5f		 pop	 edi

; 141  : 	}
; 142  : }

  0012e	5e		 pop	 esi

; 123  : 		CAccountConnector & rkAccountConnector = CAccountConnector::Instance();
; 124  : 		rkAccountConnector.ClearLoginInfo();

  0012f	e9 00 00 00 00	 jmp	 ?ClearLoginInfo@CAccountConnector@@QAEXXZ ; CAccountConnector::ClearLoginInfo
$LN3@SetLoginPh:

; 125  : 	}
; 126  : 	else
; 127  : 	{
; 128  : 		if (0 != m_dwLoginKey)

  00134	85 d2		 test	 edx, edx
  00136	74 24		 je	 SHORT $LN7@SetLoginPh
; File C:\Program Files (x86)\Microsoft Visual Studio\2019\Community\VC\Tools\MSVC\14.28.29333\include\xstring

; 2227 :         return _BUF_SIZE <= _Myres;

  00138	83 79 14 10	 cmp	 DWORD PTR [ecx+20], 16	; 00000010H

; 2219 :         if (_Large_string_engaged()) {

  0013c	72 02		 jb	 SHORT $LN58@SetLoginPh

; 2220 :             _Result = _Unfancy(_Bx._Ptr);

  0013e	8b 09		 mov	 ecx, DWORD PTR [ecx]
$LN58@SetLoginPh:

; 2227 :         return _BUF_SIZE <= _Myres;

  00140	83 be d8 00 00
	00 10		 cmp	 DWORD PTR [esi+216], 16	; 00000010H

; 3752 :         return _Mypair._Myval2._Myptr();

  00147	8d 86 c4 00 00
	00		 lea	 eax, DWORD PTR [esi+196]

; 2219 :         if (_Large_string_engaged()) {

  0014d	72 02		 jb	 SHORT $LN65@SetLoginPh

; 2220 :             _Result = _Unfancy(_Bx._Ptr);

  0014f	8b 00		 mov	 eax, DWORD PTR [eax]
$LN65@SetLoginPh:
; File D:\Metin2 Server Files\mainline\SRC_2014\Metin2Client\UserInterface\PythonNetworkStreamPhaseLogin.cpp

; 129  : 			SendLoginPacketNew(m_stID.c_str(), m_stPassword.c_str());

  00151	51		 push	 ecx
  00152	50		 push	 eax
  00153	8b ce		 mov	 ecx, esi
  00155	e8 00 00 00 00	 call	 ?SendLoginPacketNew@CPythonNetworkStream@@QAE_NPBD0@Z ; CPythonNetworkStream::SendLoginPacketNew
  0015a	eb 22		 jmp	 SHORT $LN8@SetLoginPh
$LN7@SetLoginPh:
; File C:\Program Files (x86)\Microsoft Visual Studio\2019\Community\VC\Tools\MSVC\14.28.29333\include\xstring

; 2227 :         return _BUF_SIZE <= _Myres;

  0015c	83 79 14 10	 cmp	 DWORD PTR [ecx+20], 16	; 00000010H

; 2219 :         if (_Large_string_engaged()) {

  00160	72 02		 jb	 SHORT $LN72@SetLoginPh

; 2220 :             _Result = _Unfancy(_Bx._Ptr);

  00162	8b 09		 mov	 ecx, DWORD PTR [ecx]
$LN72@SetLoginPh:

; 2227 :         return _BUF_SIZE <= _Myres;

  00164	83 be d8 00 00
	00 10		 cmp	 DWORD PTR [esi+216], 16	; 00000010H

; 3752 :         return _Mypair._Myval2._Myptr();

  0016b	8d 86 c4 00 00
	00		 lea	 eax, DWORD PTR [esi+196]

; 2219 :         if (_Large_string_engaged()) {

  00171	72 02		 jb	 SHORT $LN79@SetLoginPh

; 2220 :             _Result = _Unfancy(_Bx._Ptr);

  00173	8b 00		 mov	 eax, DWORD PTR [eax]
$LN79@SetLoginPh:
; File D:\Metin2 Server Files\mainline\SRC_2014\Metin2Client\UserInterface\PythonNetworkStreamPhaseLogin.cpp

; 131  : 			SendLoginPacket(m_stID.c_str(), m_stPassword.c_str());

  00175	51		 push	 ecx
  00176	50		 push	 eax
  00177	8b ce		 mov	 ecx, esi
  00179	e8 00 00 00 00	 call	 ?SendLoginPacket@CPythonNetworkStream@@QAE_NPBD0@Z ; CPythonNetworkStream::SendLoginPacket
$LN8@SetLoginPh:

; 132  : 
; 133  : 		//       ,     
; 134  : 		ClearLoginInfo();

  0017e	8b ce		 mov	 ecx, esi
  00180	e8 00 00 00 00	 call	 ?ClearLoginInfo@CPythonNetworkStream@@QAEXXZ ; CPythonNetworkStream::ClearLoginInfo

; 135  : 		CAccountConnector & rkAccountConnector = CAccountConnector::Instance();
; 136  : 		rkAccountConnector.ClearLoginInfo();

  00185	8b 0d 00 00 00
	00		 mov	 ecx, DWORD PTR ?ms_singleton@?$CSingleton@VCAccountConnector@@@@0PAVCAccountConnector@@A ; CSingleton<CAccountConnector>::ms_singleton
  0018b	e8 00 00 00 00	 call	 ?ClearLoginInfo@CAccountConnector@@QAEXXZ ; CAccountConnector::ClearLoginInfo

; 137  : 
; 138  : 		PyCallClassMemberFunc(m_apoPhaseWnd[PHASE_WINDOW_LOGIN], "OnLoginStart", Py_BuildValue("()"));

  00190	68 00 00 00 00	 push	 OFFSET ??_C@_02HCKGKOFO@?$CI?$CJ@
  00195	ff 15 00 00 00
	00		 call	 DWORD PTR __imp__Py_BuildValue
  0019b	50		 push	 eax
  0019c	68 00 00 00 00	 push	 OFFSET ??_C@_0N@GCHAFKJJ@OnLoginStart@
  001a1	ff b6 80 01 00
	00		 push	 DWORD PTR [esi+384]
  001a7	e8 00 00 00 00	 call	 ?PyCallClassMemberFunc@@YA_NPAU_object@@PBD0@Z ; PyCallClassMemberFunc
  001ac	83 c4 10	 add	 esp, 16			; 00000010H

; 139  : 
; 140  : 		__ClearSelectCharacterData();

  001af	8b ce		 mov	 ecx, esi
  001b1	5f		 pop	 edi

; 141  : 	}
; 142  : }

  001b2	5e		 pop	 esi

; 139  : 
; 140  : 		__ClearSelectCharacterData();

  001b3	e9 00 00 00 00	 jmp	 ?__ClearSelectCharacterData@CPythonNetworkStream@@IAEXXZ ; CPythonNetworkStream::__ClearSelectCharacterData
?SetLoginPhase@CPythonNetworkStream@@QAEXXZ ENDP	; CPythonNetworkStream::SetLoginPhase
_TEXT	ENDS
; Function compile flags: /Ogtp
; File C:\Program Files (x86)\Microsoft Visual Studio\2019\Community\VC\Tools\MSVC\14.28.29333\include\xmemory
;	COMDAT ??$_Allocate_manually_vector_aligned@U_Default_allocate_traits@std@@@std@@YAPAXI@Z
_TEXT	SEGMENT
__Bytes$ = 8						; size = 4
??$_Allocate_manually_vector_aligned@U_Default_allocate_traits@std@@@std@@YAPAXI@Z PROC ; std::_Allocate_manually_vector_aligned<std::_Default_allocate_traits>, COMDAT

; 113  : __declspec(allocator) void* _Allocate_manually_vector_aligned(const size_t _Bytes) {

  00000	55		 push	 ebp
  00001	8b ec		 mov	 ebp, esp

; 114  :     // allocate _Bytes manually aligned to at least _Big_allocation_alignment
; 115  :     const size_t _Block_size = _Non_user_size + _Bytes;

  00003	8b 45 08	 mov	 eax, DWORD PTR __Bytes$[ebp]
  00006	8d 48 23	 lea	 ecx, DWORD PTR [eax+35]

; 116  :     if (_Block_size <= _Bytes) {

  00009	3b c8		 cmp	 ecx, eax
  0000b	0f 86 00 00 00
	00		 jbe	 ?_Throw_bad_array_new_length@std@@YAXXZ ; std::_Throw_bad_array_new_length

; 77   :         return ::operator new(_Bytes);

  00011	51		 push	 ecx
  00012	e8 00 00 00 00	 call	 ??2@YAPAXI@Z		; operator new

; 117  :         _Throw_bad_array_new_length(); // add overflow
; 118  :     }
; 119  : 
; 120  :     const uintptr_t _Ptr_container = reinterpret_cast<uintptr_t>(_Traits::_Allocate(_Block_size));

  00017	8b c8		 mov	 ecx, eax

; 77   :         return ::operator new(_Bytes);

  00019	83 c4 04	 add	 esp, 4

; 121  :     _STL_VERIFY(_Ptr_container != 0, "invalid argument"); // validate even in release since we're doing p[-1]

  0001c	85 c9		 test	 ecx, ecx
  0001e	74 0b		 je	 SHORT $LN7@Allocate_m

; 122  :     void* const _Ptr = reinterpret_cast<void*>((_Ptr_container + _Non_user_size) & ~(_Big_allocation_alignment - 1));

  00020	8d 41 23	 lea	 eax, DWORD PTR [ecx+35]
  00023	83 e0 e0	 and	 eax, -32		; ffffffe0H

; 123  :     static_cast<uintptr_t*>(_Ptr)[-1] = _Ptr_container;

  00026	89 48 fc	 mov	 DWORD PTR [eax-4], ecx

; 124  : 
; 125  : #ifdef _DEBUG
; 126  :     static_cast<uintptr_t*>(_Ptr)[-2] = _Big_allocation_sentinel;
; 127  : #endif // _DEBUG
; 128  :     return _Ptr;
; 129  : }

  00029	5d		 pop	 ebp
  0002a	c3		 ret	 0
$LN7@Allocate_m:

; 121  :     _STL_VERIFY(_Ptr_container != 0, "invalid argument"); // validate even in release since we're doing p[-1]

  0002b	e9 00 00 00 00	 jmp	 __invalid_parameter_noinfo_noreturn
??$_Allocate_manually_vector_aligned@U_Default_allocate_traits@std@@@std@@YAPAXI@Z ENDP ; std::_Allocate_manually_vector_aligned<std::_Default_allocate_traits>
_TEXT	ENDS
; Function compile flags: /Ogtp
; File C:\Program Files (x86)\Microsoft Visual Studio\2019\Community\VC\Tools\MSVC\14.28.29333\include\xmemory
;	COMDAT ??$_Allocate@$07U_Default_allocate_traits@std@@$0A@@std@@YAPAXI@Z
_TEXT	SEGMENT
__Bytes$ = 8						; size = 4
??$_Allocate@$07U_Default_allocate_traits@std@@$0A@@std@@YAPAXI@Z PROC ; std::_Allocate<8,std::_Default_allocate_traits,0>, COMDAT

; 197  : __declspec(allocator) void* _Allocate(const size_t _Bytes) {

  00000	55		 push	 ebp
  00001	8b ec		 mov	 ebp, esp

; 198  :     // allocate _Bytes when !_HAS_ALIGNED_NEW || _Align <= __STDCPP_DEFAULT_NEW_ALIGNMENT__
; 199  : #if defined(_M_IX86) || defined(_M_X64)
; 200  :     if (_Bytes >= _Big_allocation_threshold) { // boost the alignment of big allocations to help autovectorization

  00003	8b 45 08	 mov	 eax, DWORD PTR __Bytes$[ebp]
  00006	3d 00 10 00 00	 cmp	 eax, 4096		; 00001000H
  0000b	72 09		 jb	 SHORT $LN2@Allocate

; 201  :         return _Allocate_manually_vector_aligned<_Traits>(_Bytes);

  0000d	89 45 08	 mov	 DWORD PTR __Bytes$[ebp], eax

; 210  : }

  00010	5d		 pop	 ebp

; 201  :         return _Allocate_manually_vector_aligned<_Traits>(_Bytes);

  00011	e9 00 00 00 00	 jmp	 ??$_Allocate_manually_vector_aligned@U_Default_allocate_traits@std@@@std@@YAPAXI@Z ; std::_Allocate_manually_vector_aligned<std::_Default_allocate_traits>
$LN2@Allocate:

; 202  :     }
; 203  : #endif // defined(_M_IX86) || defined(_M_X64)
; 204  : 
; 205  :     if (_Bytes != 0) {

  00016	85 c0		 test	 eax, eax
  00018	74 09		 je	 SHORT $LN3@Allocate

; 77   :         return ::operator new(_Bytes);

  0001a	89 45 08	 mov	 DWORD PTR __Bytes$[ebp], eax

; 210  : }

  0001d	5d		 pop	 ebp

; 77   :         return ::operator new(_Bytes);

  0001e	e9 00 00 00 00	 jmp	 ??2@YAPAXI@Z		; operator new
$LN3@Allocate:

; 206  :         return _Traits::_Allocate(_Bytes);
; 207  :     }
; 208  : 
; 209  :     return nullptr;

  00023	33 c0		 xor	 eax, eax

; 210  : }

  00025	5d		 pop	 ebp
  00026	c3		 ret	 0
??$_Allocate@$07U_Default_allocate_traits@std@@$0A@@std@@YAPAXI@Z ENDP ; std::_Allocate<8,std::_Default_allocate_traits,0>
_TEXT	ENDS
; Function compile flags: /Ogtp
; File C:\Program Files (x86)\Microsoft Visual Studio\2019\Community\VC\Tools\MSVC\14.28.29333\include\xmemory
;	COMDAT ??$_Deallocate@$07$0A@@std@@YAXPAXI@Z
_TEXT	SEGMENT
__Ptr$ = 8						; size = 4
__Bytes$ = 12						; size = 4
??$_Deallocate@$07$0A@@std@@YAXPAXI@Z PROC		; std::_Deallocate<8,0>, COMDAT

; 213  : void _Deallocate(void* _Ptr, size_t _Bytes) noexcept {

  00000	55		 push	 ebp
  00001	8b ec		 mov	 ebp, esp

; 214  :     // deallocate storage allocated by _Allocate when !_HAS_ALIGNED_NEW || _Align <= __STDCPP_DEFAULT_NEW_ALIGNMENT__
; 215  : #if defined(_M_IX86) || defined(_M_X64)
; 216  :     if (_Bytes >= _Big_allocation_threshold) { // boost the alignment of big allocations to help autovectorization

  00003	8b 4d 0c	 mov	 ecx, DWORD PTR __Bytes$[ebp]
  00006	81 f9 00 10 00
	00		 cmp	 ecx, 4096		; 00001000H
  0000c	72 18		 jb	 SHORT $LN15@Deallocate

; 137  :     const uintptr_t _Ptr_container   = _Ptr_user[-1];

  0000e	8b 45 08	 mov	 eax, DWORD PTR __Ptr$[ebp]
  00011	83 c1 23	 add	 ecx, 35			; 00000023H
  00014	8b 50 fc	 mov	 edx, DWORD PTR [eax-4]

; 138  : 
; 139  :     // If the following asserts, it likely means that we are performing
; 140  :     // an aligned delete on memory coming from an unaligned allocation.
; 141  :     _STL_ASSERT(_Ptr_user[-2] == _Big_allocation_sentinel, "invalid argument");
; 142  : 
; 143  :     // Extra paranoia on aligned allocation/deallocation; ensure _Ptr_container is
; 144  :     // in range [_Min_back_shift, _Non_user_size]
; 145  : #ifdef _DEBUG
; 146  :     constexpr uintptr_t _Min_back_shift = 2 * sizeof(void*);
; 147  : #else // ^^^ _DEBUG ^^^ // vvv !_DEBUG vvv
; 148  :     constexpr uintptr_t _Min_back_shift = sizeof(void*);
; 149  : #endif // _DEBUG
; 150  :     const uintptr_t _Back_shift = reinterpret_cast<uintptr_t>(_Ptr) - _Ptr_container;

  00017	2b c2		 sub	 eax, edx

; 151  :     _STL_VERIFY(_Back_shift >= _Min_back_shift && _Back_shift <= _Non_user_size, "invalid argument");

  00019	83 c0 fc	 add	 eax, -4			; fffffffcH
  0001c	83 f8 1f	 cmp	 eax, 31			; 0000001fH
  0001f	76 08		 jbe	 SHORT $LN13@Deallocate
  00021	e9 00 00 00 00	 jmp	 __invalid_parameter_noinfo_noreturn
$LN15@Deallocate:

; 214  :     // deallocate storage allocated by _Allocate when !_HAS_ALIGNED_NEW || _Align <= __STDCPP_DEFAULT_NEW_ALIGNMENT__
; 215  : #if defined(_M_IX86) || defined(_M_X64)
; 216  :     if (_Bytes >= _Big_allocation_threshold) { // boost the alignment of big allocations to help autovectorization

  00026	8b 55 08	 mov	 edx, DWORD PTR __Ptr$[ebp]
$LN13@Deallocate:

; 217  :         _Adjust_manually_vector_aligned(_Ptr, _Bytes);
; 218  :     }
; 219  : #endif // defined(_M_IX86) || defined(_M_X64)
; 220  : 
; 221  :     ::operator delete(_Ptr, _Bytes);

  00029	89 4d 0c	 mov	 DWORD PTR __Bytes$[ebp], ecx
  0002c	89 55 08	 mov	 DWORD PTR __Ptr$[ebp], edx

; 222  : }

  0002f	5d		 pop	 ebp

; 217  :         _Adjust_manually_vector_aligned(_Ptr, _Bytes);
; 218  :     }
; 219  : #endif // defined(_M_IX86) || defined(_M_X64)
; 220  : 
; 221  :     ::operator delete(_Ptr, _Bytes);

  00030	e9 00 00 00 00	 jmp	 ??3@YAXPAXI@Z		; operator delete
??$_Deallocate@$07$0A@@std@@YAXPAXI@Z ENDP		; std::_Deallocate<8,0>
_TEXT	ENDS
; Function compile flags: /Ogtp
; File C:\Program Files (x86)\Microsoft Visual Studio\2019\Community\VC\Tools\MSVC\14.28.29333\include\xmemory
;	COMDAT ??$_Construct_in_place@PADABQAD@std@@YAXAAPADABQAD@Z
_TEXT	SEGMENT
__Obj$ = 8						; size = 4
_<_Args_0>$ = 12					; size = 4
??$_Construct_in_place@PADABQAD@std@@YAXAAPADABQAD@Z PROC ; std::_Construct_in_place<char *,char * const &>, COMDAT

; 228  : void _Construct_in_place(_Ty& _Obj, _Types&&... _Args) noexcept(is_nothrow_constructible_v<_Ty, _Types...>) {

  00000	55		 push	 ebp
  00001	8b ec		 mov	 ebp, esp

; 229  :     ::new (const_cast<void*>(static_cast<const volatile void*>(_STD addressof(_Obj))))

  00003	8b 45 0c	 mov	 eax, DWORD PTR _<_Args_0>$[ebp]
  00006	8b 08		 mov	 ecx, DWORD PTR [eax]
  00008	8b 45 08	 mov	 eax, DWORD PTR __Obj$[ebp]
  0000b	89 08		 mov	 DWORD PTR [eax], ecx

; 230  :         _Ty(_STD forward<_Types>(_Args)...);
; 231  : }

  0000d	5d		 pop	 ebp
  0000e	c3		 ret	 0
??$_Construct_in_place@PADABQAD@std@@YAXAAPADABQAD@Z ENDP ; std::_Construct_in_place<char *,char * const &>
_TEXT	ENDS
; Function compile flags: /Ogtp
; File C:\Program Files (x86)\Microsoft Visual Studio\2019\Community\VC\Tools\MSVC\14.28.29333\include\xstring
; File C:\Program Files (x86)\Microsoft Visual Studio\2019\Community\VC\Tools\MSVC\14.28.29333\include\utility
; File C:\Program Files (x86)\Microsoft Visual Studio\2019\Community\VC\Tools\MSVC\14.28.29333\include\xstring
; File C:\Program Files (x86)\Microsoft Visual Studio\2019\Community\VC\Tools\MSVC\14.28.29333\include\xmemory
; File C:\Program Files (x86)\Microsoft Visual Studio\2019\Community\VC\Tools\MSVC\14.28.29333\include\xstring
; File C:\Program Files (x86)\Microsoft Visual Studio\2019\Community\VC\Tools\MSVC\14.28.29333\include\xmemory
; File C:\Program Files (x86)\Microsoft Visual Studio\2019\Community\VC\Tools\MSVC\14.28.29333\include\xstring
;	COMDAT ?assign@?$basic_string@DU?$char_traits@D@std@@V?$allocator@D@2@@std@@QAEAAV12@QBDI@Z
_TEXT	SEGMENT
__Old$1$ = -4						; size = 4
__Ptr$ = 8						; size = 4
__New_ptr$1 = 12					; size = 4
__Count$ = 12						; size = 4
?assign@?$basic_string@DU?$char_traits@D@std@@V?$allocator@D@2@@std@@QAEAAV12@QBDI@Z PROC ; std::basic_string<char,std::char_traits<char>,std::allocator<char> >::assign, COMDAT
; _this$ = ecx

; 3042 :     basic_string& assign(_In_reads_(_Count) const _Elem* const _Ptr, _CRT_GUARDOVERFLOW const size_type _Count) {

  00000	55		 push	 ebp
  00001	8b ec		 mov	 ebp, esp
  00003	51		 push	 ecx
  00004	53		 push	 ebx
  00005	56		 push	 esi
  00006	8b f1		 mov	 esi, ecx
  00008	57		 push	 edi

; 3043 :         // assign [_Ptr, _Ptr + _Count)
; 3044 :         if (_Count <= _Mypair._Myval2._Myres) {

  00009	8b 7d 0c	 mov	 edi, DWORD PTR __Count$[ebp]
  0000c	8b 4e 14	 mov	 ecx, DWORD PTR [esi+20]
  0000f	89 4d fc	 mov	 DWORD PTR __Old$1$[ebp], ecx
  00012	3b f9		 cmp	 edi, ecx
  00014	77 28		 ja	 SHORT $LN2@assign

; 2209 :         value_type* _Result = _Bx._Buf;

  00016	8b de		 mov	 ebx, esi

; 2227 :         return _BUF_SIZE <= _Myres;

  00018	83 f9 10	 cmp	 ecx, 16			; 00000010H

; 2210 :         if (_Large_string_engaged()) {

  0001b	72 02		 jb	 SHORT $LN5@assign

; 2211 :             _Result = _Unfancy(_Bx._Ptr);

  0001d	8b 1e		 mov	 ebx, DWORD PTR [esi]
$LN5@assign:

; 119  :         _CSTD memmove(_First1, _First2, _Count * sizeof(_Elem));

  0001f	57		 push	 edi
  00020	ff 75 08	 push	 DWORD PTR __Ptr$[ebp]

; 3045 :             _Elem* const _Old_ptr   = _Mypair._Myval2._Myptr();
; 3046 :             _Mypair._Myval2._Mysize = _Count;

  00023	89 7e 10	 mov	 DWORD PTR [esi+16], edi

; 119  :         _CSTD memmove(_First1, _First2, _Count * sizeof(_Elem));

  00026	53		 push	 ebx
  00027	e8 00 00 00 00	 call	 _memmove
  0002c	83 c4 0c	 add	 esp, 12			; 0000000cH

; 3047 :             _Traits::move(_Old_ptr, _Ptr, _Count);
; 3048 :             _Traits::assign(_Old_ptr[_Count], _Elem());

  0002f	c6 04 3b 00	 mov	 BYTE PTR [ebx+edi], 0

; 3059 :     }

  00033	8b c6		 mov	 eax, esi
  00035	5f		 pop	 edi
  00036	5e		 pop	 esi
  00037	5b		 pop	 ebx
  00038	8b e5		 mov	 esp, ebp
  0003a	5d		 pop	 ebp
  0003b	c2 08 00	 ret	 8
$LN2@assign:

; 4305 :         if (_New_size > max_size()) {

  0003e	81 ff ff ff ff
	7f		 cmp	 edi, 2147483647		; 7fffffffH
  00044	0f 87 91 00 00
	00		 ja	 $LN36@assign

; 4285 :         const size_type _Masked = _Requested | _ALLOC_MASK;

  0004a	8b df		 mov	 ebx, edi
  0004c	83 cb 0f	 or	 ebx, 15			; 0000000fH
  0004f	81 fb ff ff ff
	7f		 cmp	 ebx, 2147483647		; 7fffffffH

; 4286 :         if (_Masked > _Max) { // the mask overflows, settle for max_size()

  00055	76 07		 jbe	 SHORT $LN19@assign

; 4287 :             return _Max;

  00057	bb ff ff ff 7f	 mov	 ebx, 2147483647		; 7fffffffH
  0005c	eb 1e		 jmp	 SHORT $LN18@assign
$LN19@assign:

; 4288 :         }
; 4289 : 
; 4290 :         if (_Old > _Max - _Old / 2) { // similarly, geometric overflows

  0005e	8b d1		 mov	 edx, ecx
  00060	b8 ff ff ff 7f	 mov	 eax, 2147483647		; 7fffffffH
  00065	d1 ea		 shr	 edx, 1
  00067	2b c2		 sub	 eax, edx
  00069	3b c8		 cmp	 ecx, eax
  0006b	76 07		 jbe	 SHORT $LN20@assign

; 4291 :             return _Max;

  0006d	bb ff ff ff 7f	 mov	 ebx, 2147483647		; 7fffffffH
  00072	eb 08		 jmp	 SHORT $LN18@assign
$LN20@assign:

; 4292 :         }
; 4293 : 
; 4294 :         return (_STD max)(_Masked, _Old + _Old / 2);

  00074	8d 04 0a	 lea	 eax, DWORD PTR [edx+ecx]
; File C:\Program Files (x86)\Microsoft Visual Studio\2019\Community\VC\Tools\MSVC\14.28.29333\include\utility

; 44   :     return _Left < _Right ? _Right : _Left;

  00077	3b d8		 cmp	 ebx, eax
  00079	0f 42 d8	 cmovb	 ebx, eax
$LN18@assign:
; File C:\Program Files (x86)\Microsoft Visual Studio\2019\Community\VC\Tools\MSVC\14.28.29333\include\xstring

; 4312 :         const pointer _New_ptr        = _Al.allocate(_New_capacity + 1); // throws

  0007c	8d 43 01	 lea	 eax, DWORD PTR [ebx+1]
; File C:\Program Files (x86)\Microsoft Visual Studio\2019\Community\VC\Tools\MSVC\14.28.29333\include\xmemory

; 814  :         return static_cast<_Ty*>(_Allocate<_New_alignof<_Ty>>(_Get_size_of_n<sizeof(_Ty)>(_Count)));

  0007f	50		 push	 eax
  00080	e8 00 00 00 00	 call	 ??$_Allocate@$07U_Default_allocate_traits@std@@$0A@@std@@YAPAXI@Z ; std::_Allocate<8,std::_Default_allocate_traits,0>
; File C:\Program Files (x86)\Microsoft Visual Studio\2019\Community\VC\Tools\MSVC\14.28.29333\include\xstring

; 62   :         _CSTD memcpy(_First1, _First2, _Count * sizeof(_Elem));

  00085	57		 push	 edi
  00086	ff 75 08	 push	 DWORD PTR __Ptr$[ebp]

; 4312 :         const pointer _New_ptr        = _Al.allocate(_New_capacity + 1); // throws

  00089	89 45 0c	 mov	 DWORD PTR __New_ptr$1[ebp], eax

; 62   :         _CSTD memcpy(_First1, _First2, _Count * sizeof(_Elem));

  0008c	50		 push	 eax

; 4314 :         _Mypair._Myval2._Mysize = _New_size;

  0008d	89 7e 10	 mov	 DWORD PTR [esi+16], edi

; 4315 :         _Mypair._Myval2._Myres  = _New_capacity;

  00090	89 5e 14	 mov	 DWORD PTR [esi+20], ebx

; 62   :         _CSTD memcpy(_First1, _First2, _Count * sizeof(_Elem));

  00093	e8 00 00 00 00	 call	 _memcpy

; 3056 :                 _Traits::assign(_New_ptr[_Count], _Elem());

  00098	8b 5d 0c	 mov	 ebx, DWORD PTR __New_ptr$1[ebp]

; 62   :         _CSTD memcpy(_First1, _First2, _Count * sizeof(_Elem));

  0009b	83 c4 10	 add	 esp, 16			; 00000010H

; 4317 :         if (_BUF_SIZE <= _Old_capacity) {

  0009e	8b 45 fc	 mov	 eax, DWORD PTR __Old$1$[ebp]

; 3056 :                 _Traits::assign(_New_ptr[_Count], _Elem());

  000a1	c6 04 3b 00	 mov	 BYTE PTR [ebx+edi], 0

; 4317 :         if (_BUF_SIZE <= _Old_capacity) {

  000a5	83 f8 10	 cmp	 eax, 16			; 00000010H
  000a8	72 19		 jb	 SHORT $LN13@assign

; 4318 :             _Al.deallocate(_Mypair._Myval2._Bx._Ptr, _Old_capacity + 1);

  000aa	40		 inc	 eax
; File C:\Program Files (x86)\Microsoft Visual Studio\2019\Community\VC\Tools\MSVC\14.28.29333\include\xmemory

; 810  :         _Deallocate<_New_alignof<_Ty>>(_Ptr, sizeof(_Ty) * _Count);

  000ab	50		 push	 eax
  000ac	ff 36		 push	 DWORD PTR [esi]
  000ae	e8 00 00 00 00	 call	 ??$_Deallocate@$07$0A@@std@@YAXPAXI@Z ; std::_Deallocate<8,0>
; File C:\Program Files (x86)\Microsoft Visual Studio\2019\Community\VC\Tools\MSVC\14.28.29333\include\xstring

; 3059 :     }

  000b3	83 c4 08	 add	 esp, 8

; 4319 :             _Mypair._Myval2._Bx._Ptr = _New_ptr;

  000b6	89 1e		 mov	 DWORD PTR [esi], ebx

; 3059 :     }

  000b8	8b c6		 mov	 eax, esi
  000ba	5f		 pop	 edi
  000bb	5e		 pop	 esi
  000bc	5b		 pop	 ebx
  000bd	8b e5		 mov	 esp, ebp
  000bf	5d		 pop	 ebp
  000c0	c2 08 00	 ret	 8
$LN13@assign:

; 4321 :             _Construct_in_place(_Mypair._Myval2._Bx._Ptr, _New_ptr);

  000c3	8d 45 0c	 lea	 eax, DWORD PTR __New_ptr$1[ebp]
  000c6	50		 push	 eax
  000c7	56		 push	 esi
  000c8	e8 00 00 00 00	 call	 ??$_Construct_in_place@PADABQAD@std@@YAXAAPADABQAD@Z ; std::_Construct_in_place<char *,char * const &>

; 3059 :     }

  000cd	83 c4 08	 add	 esp, 8
  000d0	8b c6		 mov	 eax, esi
  000d2	5f		 pop	 edi
  000d3	5e		 pop	 esi
  000d4	5b		 pop	 ebx
  000d5	8b e5		 mov	 esp, ebp
  000d7	5d		 pop	 ebp
  000d8	c2 08 00	 ret	 8
$LN36@assign:

; 4306 :             _Xlen_string(); // result too long

  000db	e8 00 00 00 00	 call	 ?_Xlen_string@std@@YAXXZ ; std::_Xlen_string
$LN33@assign:
  000e0	cc		 int	 3
?assign@?$basic_string@DU?$char_traits@D@std@@V?$allocator@D@2@@std@@QAEAAV12@QBDI@Z ENDP ; std::basic_string<char,std::char_traits<char>,std::allocator<char> >::assign
_TEXT	ENDS
; Function compile flags: /Ogtp
; File C:\Program Files (x86)\Microsoft Visual Studio\2019\Community\VC\Tools\MSVC\14.28.29333\include\xstring
;	COMDAT ?_Xlen_string@std@@YAXXZ
_TEXT	SEGMENT
?_Xlen_string@std@@YAXXZ PROC				; std::_Xlen_string, COMDAT

; 2275 :     _Xlength_error("string too long");

  00000	68 00 00 00 00	 push	 OFFSET ??_C@_0BA@JFNIOLAK@string?5too?5long@
  00005	e8 00 00 00 00	 call	 ?_Xlength_error@std@@YAXPBD@Z ; std::_Xlength_error
$LN3@Xlen_strin:
  0000a	cc		 int	 3
?_Xlen_string@std@@YAXXZ ENDP				; std::_Xlen_string
_TEXT	ENDS
; Function compile flags: /Ogtp
; File C:\Program Files (x86)\Microsoft Visual Studio\2019\Community\VC\Tools\MSVC\14.28.29333\include\exception
;	COMDAT ?_Throw_bad_array_new_length@std@@YAXXZ
_TEXT	SEGMENT
$T1 = -12						; size = 12
?_Throw_bad_array_new_length@std@@YAXXZ PROC		; std::_Throw_bad_array_new_length, COMDAT

; 320  : [[noreturn]] inline void _Throw_bad_array_new_length() {

  00000	55		 push	 ebp
  00001	8b ec		 mov	 ebp, esp
  00003	83 ec 0c	 sub	 esp, 12			; 0000000cH

; 321  :     _THROW(bad_array_new_length{});

  00006	8d 4d f4	 lea	 ecx, DWORD PTR $T1[ebp]
  00009	e8 00 00 00 00	 call	 ??0bad_array_new_length@std@@QAE@XZ ; std::bad_array_new_length::bad_array_new_length
  0000e	68 00 00 00 00	 push	 OFFSET __TI3?AVbad_array_new_length@std@@
  00013	8d 45 f4	 lea	 eax, DWORD PTR $T1[ebp]
  00016	50		 push	 eax
  00017	e8 00 00 00 00	 call	 __CxxThrowException@8
$LN3@Throw_bad_:
  0001c	cc		 int	 3
?_Throw_bad_array_new_length@std@@YAXXZ ENDP		; std::_Throw_bad_array_new_length
_TEXT	ENDS
; Function compile flags: /Ogtp
; File C:\Program Files (x86)\Microsoft Visual Studio\2019\Community\VC\Tools\MSVC\14.28.29333\include\vcruntime_exception.h
;	COMDAT ??_Gbad_array_new_length@std@@UAEPAXI@Z
_TEXT	SEGMENT
___flags$ = 8						; size = 4
??_Gbad_array_new_length@std@@UAEPAXI@Z PROC		; std::bad_array_new_length::`scalar deleting destructor', COMDAT
; _this$ = ecx
  00000	55		 push	 ebp
  00001	8b ec		 mov	 ebp, esp

; 89   :     {

  00003	56		 push	 esi
  00004	8b f1		 mov	 esi, ecx

; 90   :         __std_exception_destroy(&_Data);

  00006	8d 46 04	 lea	 eax, DWORD PTR [esi+4]
  00009	c7 06 00 00 00
	00		 mov	 DWORD PTR [esi], OFFSET ??_7exception@std@@6B@
  0000f	50		 push	 eax
  00010	e8 00 00 00 00	 call	 ___std_exception_destroy
  00015	83 c4 04	 add	 esp, 4
  00018	f6 45 08 01	 test	 BYTE PTR ___flags$[ebp], 1
  0001c	74 0b		 je	 SHORT $LN12@scalar
  0001e	6a 0c		 push	 12			; 0000000cH
  00020	56		 push	 esi
  00021	e8 00 00 00 00	 call	 ??3@YAXPAXI@Z		; operator delete
  00026	83 c4 08	 add	 esp, 8
$LN12@scalar:
  00029	8b c6		 mov	 eax, esi
  0002b	5e		 pop	 esi
  0002c	5d		 pop	 ebp
  0002d	c2 04 00	 ret	 4
??_Gbad_array_new_length@std@@UAEPAXI@Z ENDP		; std::bad_array_new_length::`scalar deleting destructor'
_TEXT	ENDS
; Function compile flags: /Ogtp
; File C:\Program Files (x86)\Microsoft Visual Studio\2019\Community\VC\Tools\MSVC\14.28.29333\include\vcruntime_exception.h
;	COMDAT ??0bad_array_new_length@std@@QAE@ABV01@@Z
_TEXT	SEGMENT
___that$ = 8						; size = 4
??0bad_array_new_length@std@@QAE@ABV01@@Z PROC		; std::bad_array_new_length::bad_array_new_length, COMDAT
; _this$ = ecx
  00000	55		 push	 ebp
  00001	8b ec		 mov	 ebp, esp

; 72   :     {

  00003	56		 push	 esi
  00004	8b f1		 mov	 esi, ecx
  00006	0f 57 c0	 xorps	 xmm0, xmm0

; 71   :         : _Data()

  00009	8d 46 04	 lea	 eax, DWORD PTR [esi+4]

; 73   :         __std_exception_copy(&_Other._Data, &_Data);

  0000c	50		 push	 eax
  0000d	c7 06 00 00 00
	00		 mov	 DWORD PTR [esi], OFFSET ??_7exception@std@@6B@
  00013	66 0f d6 00	 movq	 QWORD PTR [eax], xmm0
  00017	8b 45 08	 mov	 eax, DWORD PTR ___that$[ebp]
  0001a	83 c0 04	 add	 eax, 4
  0001d	50		 push	 eax
  0001e	e8 00 00 00 00	 call	 ___std_exception_copy
  00023	83 c4 08	 add	 esp, 8
  00026	c7 06 00 00 00
	00		 mov	 DWORD PTR [esi], OFFSET ??_7bad_array_new_length@std@@6B@
  0002c	8b c6		 mov	 eax, esi
  0002e	5e		 pop	 esi
  0002f	5d		 pop	 ebp
  00030	c2 04 00	 ret	 4
??0bad_array_new_length@std@@QAE@ABV01@@Z ENDP		; std::bad_array_new_length::bad_array_new_length
_TEXT	ENDS
; Function compile flags: /Ogtp
; File C:\Program Files (x86)\Microsoft Visual Studio\2019\Community\VC\Tools\MSVC\14.28.29333\include\vcruntime_exception.h
;	COMDAT ??1bad_array_new_length@std@@UAE@XZ
_TEXT	SEGMENT
??1bad_array_new_length@std@@UAE@XZ PROC		; std::bad_array_new_length::~bad_array_new_length, COMDAT
; _this$ = ecx

; 90   :         __std_exception_destroy(&_Data);

  00000	8d 41 04	 lea	 eax, DWORD PTR [ecx+4]
  00003	c7 01 00 00 00
	00		 mov	 DWORD PTR [ecx], OFFSET ??_7exception@std@@6B@
  00009	50		 push	 eax
  0000a	e8 00 00 00 00	 call	 ___std_exception_destroy
  0000f	59		 pop	 ecx
  00010	c3		 ret	 0
??1bad_array_new_length@std@@UAE@XZ ENDP		; std::bad_array_new_length::~bad_array_new_length
_TEXT	ENDS
; Function compile flags: /Ogtp
; File C:\Program Files (x86)\Microsoft Visual Studio\2019\Community\VC\Tools\MSVC\14.28.29333\include\vcruntime_exception.h
;	COMDAT ??0bad_array_new_length@std@@QAE@XZ
_TEXT	SEGMENT
??0bad_array_new_length@std@@QAE@XZ PROC		; std::bad_array_new_length::bad_array_new_length, COMDAT
; _this$ = ecx

; 141  :     {

  00000	0f 57 c0	 xorps	 xmm0, xmm0

; 142  :     }

  00003	8b c1		 mov	 eax, ecx

; 65   :         : _Data()

  00005	66 0f d6 41 04	 movq	 QWORD PTR [ecx+4], xmm0

; 66   :     {
; 67   :         _Data._What = _Message;

  0000a	c7 41 04 00 00
	00 00		 mov	 DWORD PTR [ecx+4], OFFSET ??_C@_0BF@KINCDENJ@bad?5array?5new?5length@

; 141  :     {

  00011	c7 01 00 00 00
	00		 mov	 DWORD PTR [ecx], OFFSET ??_7bad_array_new_length@std@@6B@

; 142  :     }

  00017	c3		 ret	 0
??0bad_array_new_length@std@@QAE@XZ ENDP		; std::bad_array_new_length::bad_array_new_length
_TEXT	ENDS
; Function compile flags: /Ogtp
; File C:\Program Files (x86)\Microsoft Visual Studio\2019\Community\VC\Tools\MSVC\14.28.29333\include\vcruntime_exception.h
;	COMDAT ??_Gbad_alloc@std@@UAEPAXI@Z
_TEXT	SEGMENT
___flags$ = 8						; size = 4
??_Gbad_alloc@std@@UAEPAXI@Z PROC			; std::bad_alloc::`scalar deleting destructor', COMDAT
; _this$ = ecx
  00000	55		 push	 ebp
  00001	8b ec		 mov	 ebp, esp

; 89   :     {

  00003	56		 push	 esi
  00004	8b f1		 mov	 esi, ecx

; 90   :         __std_exception_destroy(&_Data);

  00006	8d 46 04	 lea	 eax, DWORD PTR [esi+4]
  00009	c7 06 00 00 00
	00		 mov	 DWORD PTR [esi], OFFSET ??_7exception@std@@6B@
  0000f	50		 push	 eax
  00010	e8 00 00 00 00	 call	 ___std_exception_destroy
  00015	83 c4 04	 add	 esp, 4
  00018	f6 45 08 01	 test	 BYTE PTR ___flags$[ebp], 1
  0001c	74 0b		 je	 SHORT $LN9@scalar
  0001e	6a 0c		 push	 12			; 0000000cH
  00020	56		 push	 esi
  00021	e8 00 00 00 00	 call	 ??3@YAXPAXI@Z		; operator delete
  00026	83 c4 08	 add	 esp, 8
$LN9@scalar:
  00029	8b c6		 mov	 eax, esi
  0002b	5e		 pop	 esi
  0002c	5d		 pop	 ebp
  0002d	c2 04 00	 ret	 4
??_Gbad_alloc@std@@UAEPAXI@Z ENDP			; std::bad_alloc::`scalar deleting destructor'
_TEXT	ENDS
; Function compile flags: /Ogtp
; File C:\Program Files (x86)\Microsoft Visual Studio\2019\Community\VC\Tools\MSVC\14.28.29333\include\vcruntime_exception.h
;	COMDAT ??0bad_alloc@std@@QAE@ABV01@@Z
_TEXT	SEGMENT
___that$ = 8						; size = 4
??0bad_alloc@std@@QAE@ABV01@@Z PROC			; std::bad_alloc::bad_alloc, COMDAT
; _this$ = ecx
  00000	55		 push	 ebp
  00001	8b ec		 mov	 ebp, esp

; 72   :     {

  00003	56		 push	 esi
  00004	8b f1		 mov	 esi, ecx
  00006	0f 57 c0	 xorps	 xmm0, xmm0

; 71   :         : _Data()

  00009	8d 46 04	 lea	 eax, DWORD PTR [esi+4]

; 73   :         __std_exception_copy(&_Other._Data, &_Data);

  0000c	50		 push	 eax
  0000d	c7 06 00 00 00
	00		 mov	 DWORD PTR [esi], OFFSET ??_7exception@std@@6B@
  00013	66 0f d6 00	 movq	 QWORD PTR [eax], xmm0
  00017	8b 45 08	 mov	 eax, DWORD PTR ___that$[ebp]
  0001a	83 c0 04	 add	 eax, 4
  0001d	50		 push	 eax
  0001e	e8 00 00 00 00	 call	 ___std_exception_copy
  00023	83 c4 08	 add	 esp, 8
  00026	c7 06 00 00 00
	00		 mov	 DWORD PTR [esi], OFFSET ??_7bad_alloc@std@@6B@
  0002c	8b c6		 mov	 eax, esi
  0002e	5e		 pop	 esi
  0002f	5d		 pop	 ebp
  00030	c2 04 00	 ret	 4
??0bad_alloc@std@@QAE@ABV01@@Z ENDP			; std::bad_alloc::bad_alloc
_TEXT	ENDS
; Function compile flags: /Ogtp
; File C:\Program Files (x86)\Microsoft Visual Studio\2019\Community\VC\Tools\MSVC\14.28.29333\include\vcruntime_exception.h
;	COMDAT ??_Gexception@std@@UAEPAXI@Z
_TEXT	SEGMENT
___flags$ = 8						; size = 4
??_Gexception@std@@UAEPAXI@Z PROC			; std::exception::`scalar deleting destructor', COMDAT
; _this$ = ecx
  00000	55		 push	 ebp
  00001	8b ec		 mov	 ebp, esp

; 89   :     {

  00003	56		 push	 esi
  00004	8b f1		 mov	 esi, ecx

; 90   :         __std_exception_destroy(&_Data);

  00006	8d 46 04	 lea	 eax, DWORD PTR [esi+4]
  00009	c7 06 00 00 00
	00		 mov	 DWORD PTR [esi], OFFSET ??_7exception@std@@6B@
  0000f	50		 push	 eax
  00010	e8 00 00 00 00	 call	 ___std_exception_destroy
  00015	83 c4 04	 add	 esp, 4
  00018	f6 45 08 01	 test	 BYTE PTR ___flags$[ebp], 1
  0001c	74 0b		 je	 SHORT $LN6@scalar
  0001e	6a 0c		 push	 12			; 0000000cH
  00020	56		 push	 esi
  00021	e8 00 00 00 00	 call	 ??3@YAXPAXI@Z		; operator delete
  00026	83 c4 08	 add	 esp, 8
$LN6@scalar:
  00029	8b c6		 mov	 eax, esi
  0002b	5e		 pop	 esi
  0002c	5d		 pop	 ebp
  0002d	c2 04 00	 ret	 4
??_Gexception@std@@UAEPAXI@Z ENDP			; std::exception::`scalar deleting destructor'
_TEXT	ENDS
; Function compile flags: /Ogtp
; File C:\Program Files (x86)\Microsoft Visual Studio\2019\Community\VC\Tools\MSVC\14.28.29333\include\vcruntime_exception.h
;	COMDAT ?what@exception@std@@UBEPBDXZ
_TEXT	SEGMENT
?what@exception@std@@UBEPBDXZ PROC			; std::exception::what, COMDAT
; _this$ = ecx

; 95   :         return _Data._What ? _Data._What : "Unknown exception";

  00000	8b 49 04	 mov	 ecx, DWORD PTR [ecx+4]
  00003	b8 00 00 00 00	 mov	 eax, OFFSET ??_C@_0BC@EOODALEL@Unknown?5exception@
  00008	85 c9		 test	 ecx, ecx
  0000a	0f 45 c1	 cmovne	 eax, ecx

; 96   :     }

  0000d	c3		 ret	 0
?what@exception@std@@UBEPBDXZ ENDP			; std::exception::what
_TEXT	ENDS
; Function compile flags: /Ogtp
; File C:\Program Files (x86)\Microsoft Visual Studio\2019\Community\VC\Tools\MSVC\14.28.29333\include\vcruntime_exception.h
;	COMDAT ??1exception@std@@UAE@XZ
_TEXT	SEGMENT
??1exception@std@@UAE@XZ PROC				; std::exception::~exception, COMDAT
; _this$ = ecx

; 90   :         __std_exception_destroy(&_Data);

  00000	8d 41 04	 lea	 eax, DWORD PTR [ecx+4]
  00003	c7 01 00 00 00
	00		 mov	 DWORD PTR [ecx], OFFSET ??_7exception@std@@6B@
  00009	50		 push	 eax
  0000a	e8 00 00 00 00	 call	 ___std_exception_destroy
  0000f	59		 pop	 ecx

; 91   :     }

  00010	c3		 ret	 0
??1exception@std@@UAE@XZ ENDP				; std::exception::~exception
_TEXT	ENDS
; Function compile flags: /Ogtp
; File C:\Program Files (x86)\Microsoft Visual Studio\2019\Community\VC\Tools\MSVC\14.28.29333\include\vcruntime_exception.h
;	COMDAT ??0exception@std@@QAE@ABV01@@Z
_TEXT	SEGMENT
__Other$ = 8						; size = 4
??0exception@std@@QAE@ABV01@@Z PROC			; std::exception::exception, COMDAT
; _this$ = ecx

; 72   :     {

  00000	55		 push	 ebp
  00001	8b ec		 mov	 ebp, esp
  00003	56		 push	 esi
  00004	8b f1		 mov	 esi, ecx
  00006	0f 57 c0	 xorps	 xmm0, xmm0
  00009	8d 46 04	 lea	 eax, DWORD PTR [esi+4]

; 73   :         __std_exception_copy(&_Other._Data, &_Data);

  0000c	50		 push	 eax
  0000d	c7 06 00 00 00
	00		 mov	 DWORD PTR [esi], OFFSET ??_7exception@std@@6B@
  00013	66 0f d6 00	 movq	 QWORD PTR [eax], xmm0
  00017	8b 45 08	 mov	 eax, DWORD PTR __Other$[ebp]
  0001a	83 c0 04	 add	 eax, 4
  0001d	50		 push	 eax
  0001e	e8 00 00 00 00	 call	 ___std_exception_copy
  00023	83 c4 08	 add	 esp, 8

; 74   :     }

  00026	8b c6		 mov	 eax, esi
  00028	5e		 pop	 esi
  00029	5d		 pop	 ebp
  0002a	c2 04 00	 ret	 4
??0exception@std@@QAE@ABV01@@Z ENDP			; std::exception::exception
_TEXT	ENDS
; Function compile flags: /Ogtp
;	COMDAT ??_H@YGXPAXIIP6EPAX0@Z@Z
_TEXT	SEGMENT
___t$ = 8						; size = 4
___s$ = 12						; size = 4
___n$ = 16						; size = 4
___f$ = 20						; size = 4
??_H@YGXPAXIIP6EPAX0@Z@Z PROC				; `vector constructor iterator', COMDAT
  00000	55		 push	 ebp
  00001	8b ec		 mov	 ebp, esp
  00003	56		 push	 esi
  00004	8b 75 10	 mov	 esi, DWORD PTR ___n$[ebp]
  00007	85 f6		 test	 esi, esi
  00009	74 16		 je	 SHORT $LN6@vector
  0000b	53		 push	 ebx
  0000c	8b 5d 14	 mov	 ebx, DWORD PTR ___f$[ebp]
  0000f	57		 push	 edi
  00010	8b 7d 08	 mov	 edi, DWORD PTR ___t$[ebp]
$LL2@vector:
  00013	8b cf		 mov	 ecx, edi
  00015	ff d3		 call	 ebx
  00017	03 7d 0c	 add	 edi, DWORD PTR ___s$[ebp]
  0001a	83 ee 01	 sub	 esi, 1
  0001d	75 f4		 jne	 SHORT $LL2@vector
  0001f	5f		 pop	 edi
  00020	5b		 pop	 ebx
$LN6@vector:
  00021	5e		 pop	 esi
  00022	5d		 pop	 ebp
  00023	c2 10 00	 ret	 16			; 00000010H
??_H@YGXPAXIIP6EPAX0@Z@Z ENDP				; `vector constructor iterator'
_TEXT	ENDS
END
