; Listing generated by Microsoft (R) Optimizing Compiler Version 19.28.29335.0 

	TITLE	D:\Metin2 Server Files\mainline\SRC_2014\Metin2Client\UserInterface\PythonMiniMapModule.cpp
	.686P
	.XMM
	include listing.inc
	.model	flat

INCLUDELIB LIBCMT
INCLUDELIB OLDNAMES

PUBLIC	??0exception@std@@QAE@ABV01@@Z			; std::exception::exception
PUBLIC	??1exception@std@@UAE@XZ			; std::exception::~exception
PUBLIC	?what@exception@std@@UBEPBDXZ			; std::exception::what
PUBLIC	??_Gexception@std@@UAEPAXI@Z			; std::exception::`scalar deleting destructor'
PUBLIC	??0bad_alloc@std@@QAE@ABV01@@Z			; std::bad_alloc::bad_alloc
PUBLIC	??_Gbad_alloc@std@@UAEPAXI@Z			; std::bad_alloc::`scalar deleting destructor'
PUBLIC	??0bad_array_new_length@std@@QAE@XZ		; std::bad_array_new_length::bad_array_new_length
PUBLIC	??1bad_array_new_length@std@@UAE@XZ		; std::bad_array_new_length::~bad_array_new_length
PUBLIC	??0bad_array_new_length@std@@QAE@ABV01@@Z	; std::bad_array_new_length::bad_array_new_length
PUBLIC	??_Gbad_array_new_length@std@@UAEPAXI@Z		; std::bad_array_new_length::`scalar deleting destructor'
PUBLIC	?_Throw_bad_array_new_length@std@@YAXXZ		; std::_Throw_bad_array_new_length
PUBLIC	?_Xlen_string@std@@YAXXZ			; std::_Xlen_string
PUBLIC	??0?$basic_string@DU?$char_traits@D@std@@V?$allocator@D@2@@std@@QAE@QBD@Z ; std::basic_string<char,std::char_traits<char>,std::allocator<char> >::basic_string<char,std::char_traits<char>,std::allocator<char> >
PUBLIC	??1?$basic_string@DU?$char_traits@D@std@@V?$allocator@D@2@@std@@QAE@XZ ; std::basic_string<char,std::char_traits<char>,std::allocator<char> >::~basic_string<char,std::char_traits<char>,std::allocator<char> >
PUBLIC	?assign@?$basic_string@DU?$char_traits@D@std@@V?$allocator@D@2@@std@@QAEAAV12@QBDI@Z ; std::basic_string<char,std::char_traits<char>,std::allocator<char> >::assign
PUBLIC	?initMiniMap@@YAXXZ				; initMiniMap
PUBLIC	??$_Destroy_in_place@PAD@std@@YAXAAPAD@Z	; std::_Destroy_in_place<char *>
PUBLIC	??$_Construct_in_place@PADABQAD@std@@YAXAAPADABQAD@Z ; std::_Construct_in_place<char *,char * const &>
PUBLIC	??$_Deallocate@$07$0A@@std@@YAXPAXI@Z		; std::_Deallocate<8,0>
PUBLIC	??$_Allocate@$07U_Default_allocate_traits@std@@$0A@@std@@YAPAXI@Z ; std::_Allocate<8,std::_Default_allocate_traits,0>
PUBLIC	??$_Allocate_manually_vector_aligned@U_Default_allocate_traits@std@@@std@@YAPAXI@Z ; std::_Allocate_manually_vector_aligned<std::_Default_allocate_traits>
PUBLIC	?miniMapSetScale@@YAPAU_object@@PAU1@0@Z	; miniMapSetScale
PUBLIC	?miniMapSetCenterPosition@@YAPAU_object@@PAU1@0@Z ; miniMapSetCenterPosition
PUBLIC	?miniMapSetMiniMapSize@@YAPAU_object@@PAU1@0@Z	; miniMapSetMiniMapSize
PUBLIC	?miniMapDestroy@@YAPAU_object@@PAU1@0@Z		; miniMapDestroy
PUBLIC	?miniMapCreate@@YAPAU_object@@PAU1@0@Z		; miniMapCreate
PUBLIC	?miniMapUpdate@@YAPAU_object@@PAU1@0@Z		; miniMapUpdate
PUBLIC	?miniMapRender@@YAPAU_object@@PAU1@0@Z		; miniMapRender
PUBLIC	?miniMapShow@@YAPAU_object@@PAU1@0@Z		; miniMapShow
PUBLIC	?miniMapHide@@YAPAU_object@@PAU1@0@Z		; miniMapHide
PUBLIC	?miniMapisShow@@YAPAU_object@@PAU1@0@Z		; miniMapisShow
PUBLIC	?miniMapScaleUp@@YAPAU_object@@PAU1@0@Z		; miniMapScaleUp
PUBLIC	?miniMapScaleDown@@YAPAU_object@@PAU1@0@Z	; miniMapScaleDown
PUBLIC	?miniMapGetInfo@@YAPAU_object@@PAU1@0@Z		; miniMapGetInfo
PUBLIC	?miniMapLoadAtlas@@YAPAU_object@@PAU1@0@Z	; miniMapLoadAtlas
PUBLIC	?miniMapUpdateAtlas@@YAPAU_object@@PAU1@0@Z	; miniMapUpdateAtlas
PUBLIC	?miniMapRenderAtlas@@YAPAU_object@@PAU1@0@Z	; miniMapRenderAtlas
PUBLIC	?miniMapShowAtlas@@YAPAU_object@@PAU1@0@Z	; miniMapShowAtlas
PUBLIC	?miniMapHideAtlas@@YAPAU_object@@PAU1@0@Z	; miniMapHideAtlas
PUBLIC	?miniMapisShowAtlas@@YAPAU_object@@PAU1@0@Z	; miniMapisShowAtlas
PUBLIC	?miniMapIsAtlas@@YAPAU_object@@PAU1@0@Z		; miniMapIsAtlas
PUBLIC	?miniMapGetAtlasInfo@@YAPAU_object@@PAU1@0@Z	; miniMapGetAtlasInfo
PUBLIC	?miniMapGetAtlasSize@@YAPAU_object@@PAU1@0@Z	; miniMapGetAtlasSize
PUBLIC	?miniMapAddWayPoint@@YAPAU_object@@PAU1@0@Z	; miniMapAddWayPoint
PUBLIC	?miniMapRemoveWayPoint@@YAPAU_object@@PAU1@0@Z	; miniMapRemoveWayPoint
PUBLIC	?miniMapRegisterAtlasWindow@@YAPAU_object@@PAU1@0@Z ; miniMapRegisterAtlasWindow
PUBLIC	?miniMapUnregisterAtlasWindow@@YAPAU_object@@PAU1@0@Z ; miniMapUnregisterAtlasWindow
PUBLIC	?miniMapGetGuildAreaID@@YAPAU_object@@PAU1@0@Z	; miniMapGetGuildAreaID
PUBLIC	??_7exception@std@@6B@				; std::exception::`vftable'
PUBLIC	??_C@_0BC@EOODALEL@Unknown?5exception@		; `string'
PUBLIC	??_7bad_alloc@std@@6B@				; std::bad_alloc::`vftable'
PUBLIC	??_7bad_array_new_length@std@@6B@		; std::bad_array_new_length::`vftable'
PUBLIC	??_C@_0BF@KINCDENJ@bad?5array?5new?5length@	; `string'
PUBLIC	__TI3?AVbad_array_new_length@std@@
PUBLIC	__CTA3?AVbad_array_new_length@std@@
PUBLIC	??_R0?AVbad_array_new_length@std@@@8		; std::bad_array_new_length `RTTI Type Descriptor'
PUBLIC	__CT??_R0?AVbad_array_new_length@std@@@8??0bad_array_new_length@std@@QAE@ABV01@@Z12
PUBLIC	??_R0?AVbad_alloc@std@@@8			; std::bad_alloc `RTTI Type Descriptor'
PUBLIC	__CT??_R0?AVbad_alloc@std@@@8??0bad_alloc@std@@QAE@ABV01@@Z12
PUBLIC	??_R0?AVexception@std@@@8			; std::exception `RTTI Type Descriptor'
PUBLIC	__CT??_R0?AVexception@std@@@8??0exception@std@@QAE@ABV01@@Z12
PUBLIC	??_C@_0BA@JFNIOLAK@string?5too?5long@		; `string'
PUBLIC	??_R4exception@std@@6B@				; std::exception::`RTTI Complete Object Locator'
PUBLIC	??_R3exception@std@@8				; std::exception::`RTTI Class Hierarchy Descriptor'
PUBLIC	??_R2exception@std@@8				; std::exception::`RTTI Base Class Array'
PUBLIC	??_R1A@?0A@EA@exception@std@@8			; std::exception::`RTTI Base Class Descriptor at (0,-1,0,64)'
PUBLIC	??_R4bad_alloc@std@@6B@				; std::bad_alloc::`RTTI Complete Object Locator'
PUBLIC	??_R3bad_alloc@std@@8				; std::bad_alloc::`RTTI Class Hierarchy Descriptor'
PUBLIC	??_R2bad_alloc@std@@8				; std::bad_alloc::`RTTI Base Class Array'
PUBLIC	??_R1A@?0A@EA@bad_alloc@std@@8			; std::bad_alloc::`RTTI Base Class Descriptor at (0,-1,0,64)'
PUBLIC	??_R4bad_array_new_length@std@@6B@		; std::bad_array_new_length::`RTTI Complete Object Locator'
PUBLIC	??_R3bad_array_new_length@std@@8		; std::bad_array_new_length::`RTTI Class Hierarchy Descriptor'
PUBLIC	??_R2bad_array_new_length@std@@8		; std::bad_array_new_length::`RTTI Base Class Array'
PUBLIC	??_R1A@?0A@EA@bad_array_new_length@std@@8	; std::bad_array_new_length::`RTTI Base Class Descriptor at (0,-1,0,64)'
PUBLIC	?ms_singleton@?$CSingleton@VCPythonMiniMap@@@@0PAVCPythonMiniMap@@A ; CSingleton<CPythonMiniMap>::ms_singleton
PUBLIC	??_C@_01OJONOECF@b@				; `string'
PUBLIC	??_C@_05BHNEPGFM@isiil@				; `string'
PUBLIC	??_C@_0CO@JOBACLFH@CPythonMiniMap?3?3Instance?$CI?$CJ?4Load@ ; `string'
PUBLIC	??_C@_06NGPFBJMH@isiili@			; `string'
PUBLIC	??_C@_03LMKNDPCK@bii@				; `string'
PUBLIC	??_C@_01KBJDNOO@i@				; `string'
PUBLIC	??_C@_08FMFAIGAB@SetScale@			; `string'
PUBLIC	??_C@_07CNPAFGOE@ScaleUp@			; `string'
PUBLIC	??_C@_09EHCACONO@ScaleDown@			; `string'
PUBLIC	??_C@_0P@JDEKHKMA@SetMiniMapSize@		; `string'
PUBLIC	??_C@_0BC@MCKFCFLJ@SetCenterPosition@		; `string'
PUBLIC	??_C@_07BDCAJABG@Destroy@			; `string'
PUBLIC	??_C@_06MIKANEJK@Create@			; `string'
PUBLIC	??_C@_06LMAGPFNF@Update@			; `string'
PUBLIC	??_C@_06EPLDPNDB@Render@			; `string'
PUBLIC	??_C@_04JLAJABDJ@Show@				; `string'
PUBLIC	??_C@_04EACEFPPN@Hide@				; `string'
PUBLIC	??_C@_06FDNPFPAD@isShow@			; `string'
PUBLIC	??_C@_07NAJNLNAF@GetInfo@			; `string'
PUBLIC	??_C@_09IMDAKKFO@LoadAtlas@			; `string'
PUBLIC	??_C@_0M@EIPBNHOF@UpdateAtlas@			; `string'
PUBLIC	??_C@_0M@KMBFBAJA@RenderAtlas@			; `string'
PUBLIC	??_C@_09HNEIIJJD@ShowAtlas@			; `string'
PUBLIC	??_C@_09BIFGHGHO@HideAtlas@			; `string'
PUBLIC	??_C@_0M@DHCMEFOB@isShowAtlas@			; `string'
PUBLIC	??_C@_07IFCOGPLJ@IsAtlas@			; `string'
PUBLIC	??_C@_0N@BFFOBNJI@GetAtlasInfo@			; `string'
PUBLIC	??_C@_0N@ENAKBIJM@GetAtlasSize@			; `string'
PUBLIC	??_C@_0M@DMLHJAOH@AddWayPoint@			; `string'
PUBLIC	??_C@_0P@BPFHEFHK@RemoveWayPoint@		; `string'
PUBLIC	??_C@_0BE@DJCJPBHI@RegisterAtlasWindow@		; `string'
PUBLIC	??_C@_0BG@BMPPHBMB@UnregisterAtlasWindow@	; `string'
PUBLIC	??_C@_0P@JOOPKKLO@GetGuildAreaID@		; `string'
PUBLIC	??_C@_07GGJFLPNN@miniMap@			; `string'
PUBLIC	??_C@_08MOLNEDKJ@TYPE_OPC@			; `string'
PUBLIC	??_C@_0M@KBKKLFCC@TYPE_OPCPVP@			; `string'
PUBLIC	??_C@_0BA@DAENBNGA@TYPE_OPCPVPSELF@		; `string'
PUBLIC	??_C@_08HGABCEMM@TYPE_NPC@			; `string'
PUBLIC	??_C@_0N@MFCFPPMD@TYPE_MONSTER@			; `string'
PUBLIC	??_C@_09LAKONOKF@TYPE_WARP@			; `string'
PUBLIC	??_C@_0O@JMCMGHKJ@TYPE_WAYPOINT@		; `string'
PUBLIC	??_C@_0L@NHHJIHMA@TYPE_PARTY@			; `string'
PUBLIC	??_C@_0M@IAHPEAKG@TYPE_EMPIRE@			; `string'
EXTRN	??2@YAPAXI@Z:PROC				; operator new
EXTRN	??3@YAXPAXI@Z:PROC				; operator delete
EXTRN	__invalid_parameter_noinfo_noreturn:PROC
EXTRN	___std_exception_copy:PROC
EXTRN	___std_exception_destroy:PROC
EXTRN	??_Eexception@std@@UAEPAXI@Z:PROC		; std::exception::`vector deleting destructor'
EXTRN	??_Ebad_alloc@std@@UAEPAXI@Z:PROC		; std::bad_alloc::`vector deleting destructor'
EXTRN	??_Ebad_array_new_length@std@@UAEPAXI@Z:PROC	; std::bad_array_new_length::`vector deleting destructor'
EXTRN	?_Xlength_error@std@@YAXPBD@Z:PROC		; std::_Xlength_error
EXTRN	?TraceError@@YAXPBDZZ:PROC			; TraceError
EXTRN	__imp__Py_BuildValue:PROC
EXTRN	__imp__PyModule_AddIntConstant:PROC
EXTRN	__imp__Py_InitModule4:PROC
EXTRN	?PyTuple_GetString@@YA_NPAU_object@@HPAPAD@Z:PROC ; PyTuple_GetString
EXTRN	?PyTuple_GetInteger@@YA_NPAU_object@@HPAH@Z:PROC ; PyTuple_GetInteger
EXTRN	?PyTuple_GetFloat@@YA_NPAU_object@@HPAM@Z:PROC	; PyTuple_GetFloat
EXTRN	?PyTuple_GetObject@@YA_NPAU_object@@HPAPAU1@@Z:PROC ; PyTuple_GetObject
EXTRN	?Py_BuildException@@YAPAU_object@@PBDZZ:PROC	; Py_BuildException
EXTRN	?Py_BuildNone@@YAPAU_object@@XZ:PROC		; Py_BuildNone
EXTRN	?Destroy@CPythonMiniMap@@QAEXXZ:PROC		; CPythonMiniMap::Destroy
EXTRN	?Create@CPythonMiniMap@@QAE_NXZ:PROC		; CPythonMiniMap::Create
EXTRN	?IsAtlas@CPythonMiniMap@@QAE_NXZ:PROC		; CPythonMiniMap::IsAtlas
EXTRN	?CanShow@CPythonMiniMap@@QAE_NXZ:PROC		; CPythonMiniMap::CanShow
EXTRN	?CanShowAtlas@CPythonMiniMap@@QAE_NXZ:PROC	; CPythonMiniMap::CanShowAtlas
EXTRN	?SetMiniMapSize@CPythonMiniMap@@QAEXMM@Z:PROC	; CPythonMiniMap::SetMiniMapSize
EXTRN	?SetScale@CPythonMiniMap@@QAEXM@Z:PROC		; CPythonMiniMap::SetScale
EXTRN	?ScaleUp@CPythonMiniMap@@QAEXXZ:PROC		; CPythonMiniMap::ScaleUp
EXTRN	?ScaleDown@CPythonMiniMap@@QAEXXZ:PROC		; CPythonMiniMap::ScaleDown
EXTRN	?SetCenterPosition@CPythonMiniMap@@QAEXMM@Z:PROC ; CPythonMiniMap::SetCenterPosition
EXTRN	?Update@CPythonMiniMap@@QAEXMM@Z:PROC		; CPythonMiniMap::Update
EXTRN	?Render@CPythonMiniMap@@QAEXMM@Z:PROC		; CPythonMiniMap::Render
EXTRN	?Show@CPythonMiniMap@@QAEXXZ:PROC		; CPythonMiniMap::Show
EXTRN	?Hide@CPythonMiniMap@@QAEXXZ:PROC		; CPythonMiniMap::Hide
EXTRN	?GetPickedInstanceInfo@CPythonMiniMap@@QAE_NMMAAV?$basic_string@DU?$char_traits@D@std@@V?$allocator@D@2@@std@@PAM1PAK@Z:PROC ; CPythonMiniMap::GetPickedInstanceInfo
EXTRN	?LoadAtlas@CPythonMiniMap@@QAE_NXZ:PROC		; CPythonMiniMap::LoadAtlas
EXTRN	?UpdateAtlas@CPythonMiniMap@@QAEXXZ:PROC	; CPythonMiniMap::UpdateAtlas
EXTRN	?RenderAtlas@CPythonMiniMap@@QAEXMM@Z:PROC	; CPythonMiniMap::RenderAtlas
EXTRN	?ShowAtlas@CPythonMiniMap@@QAEXXZ:PROC		; CPythonMiniMap::ShowAtlas
EXTRN	?HideAtlas@CPythonMiniMap@@QAEXXZ:PROC		; CPythonMiniMap::HideAtlas
EXTRN	?GetAtlasInfo@CPythonMiniMap@@QAE_NMMAAV?$basic_string@DU?$char_traits@D@std@@V?$allocator@D@2@@std@@PAM1PAK2@Z:PROC ; CPythonMiniMap::GetAtlasInfo
EXTRN	?GetAtlasSize@CPythonMiniMap@@QAE_NPAM0@Z:PROC	; CPythonMiniMap::GetAtlasSize
EXTRN	?AddWayPoint@CPythonMiniMap@@QAEXEKMMV?$basic_string@DU?$char_traits@D@std@@V?$allocator@D@2@@std@@K@Z:PROC ; CPythonMiniMap::AddWayPoint
EXTRN	?RemoveWayPoint@CPythonMiniMap@@QAEXK@Z:PROC	; CPythonMiniMap::RemoveWayPoint
EXTRN	?RegisterAtlasWindow@CPythonMiniMap@@QAEXPAU_object@@@Z:PROC ; CPythonMiniMap::RegisterAtlasWindow
EXTRN	?UnregisterAtlasWindow@CPythonMiniMap@@QAEXXZ:PROC ; CPythonMiniMap::UnregisterAtlasWindow
EXTRN	?GetGuildAreaID@CPythonMiniMap@@QAEKKK@Z:PROC	; CPythonMiniMap::GetGuildAreaID
EXTRN	@__security_check_cookie@4:PROC
EXTRN	__CxxThrowException@8:PROC
EXTRN	___CxxFrameHandler3:PROC
EXTRN	__ftoui3:PROC
EXTRN	_memcpy:PROC
EXTRN	_memmove:PROC
EXTRN	??_7type_info@@6B@:QWORD			; type_info::`vftable'
EXTRN	?PR_FCNV@@3MA:DWORD				; PR_FCNV
EXTRN	?PR_ICNV@@3JA:DWORD				; PR_ICNV
EXTRN	___security_cookie:DWORD
EXTRN	__fltused:DWORD
;	COMDAT ?ms_singleton@?$CSingleton@VCPythonMiniMap@@@@0PAVCPythonMiniMap@@A
_BSS	SEGMENT
?ms_singleton@?$CSingleton@VCPythonMiniMap@@@@0PAVCPythonMiniMap@@A DD 01H DUP (?) ; CSingleton<CPythonMiniMap>::ms_singleton
_BSS	ENDS
;	COMDAT ??_C@_0M@IAHPEAKG@TYPE_EMPIRE@
CONST	SEGMENT
??_C@_0M@IAHPEAKG@TYPE_EMPIRE@ DB 'TYPE_EMPIRE', 00H	; `string'
CONST	ENDS
;	COMDAT ??_C@_0L@NHHJIHMA@TYPE_PARTY@
CONST	SEGMENT
??_C@_0L@NHHJIHMA@TYPE_PARTY@ DB 'TYPE_PARTY', 00H	; `string'
CONST	ENDS
;	COMDAT ??_C@_0O@JMCMGHKJ@TYPE_WAYPOINT@
CONST	SEGMENT
??_C@_0O@JMCMGHKJ@TYPE_WAYPOINT@ DB 'TYPE_WAYPOINT', 00H ; `string'
CONST	ENDS
;	COMDAT ??_C@_09LAKONOKF@TYPE_WARP@
CONST	SEGMENT
??_C@_09LAKONOKF@TYPE_WARP@ DB 'TYPE_WARP', 00H		; `string'
CONST	ENDS
;	COMDAT ??_C@_0N@MFCFPPMD@TYPE_MONSTER@
CONST	SEGMENT
??_C@_0N@MFCFPPMD@TYPE_MONSTER@ DB 'TYPE_MONSTER', 00H	; `string'
CONST	ENDS
;	COMDAT ??_C@_08HGABCEMM@TYPE_NPC@
CONST	SEGMENT
??_C@_08HGABCEMM@TYPE_NPC@ DB 'TYPE_NPC', 00H		; `string'
CONST	ENDS
;	COMDAT ??_C@_0BA@DAENBNGA@TYPE_OPCPVPSELF@
CONST	SEGMENT
??_C@_0BA@DAENBNGA@TYPE_OPCPVPSELF@ DB 'TYPE_OPCPVPSELF', 00H ; `string'
CONST	ENDS
;	COMDAT ??_C@_0M@KBKKLFCC@TYPE_OPCPVP@
CONST	SEGMENT
??_C@_0M@KBKKLFCC@TYPE_OPCPVP@ DB 'TYPE_OPCPVP', 00H	; `string'
CONST	ENDS
;	COMDAT ??_C@_08MOLNEDKJ@TYPE_OPC@
CONST	SEGMENT
??_C@_08MOLNEDKJ@TYPE_OPC@ DB 'TYPE_OPC', 00H		; `string'
CONST	ENDS
;	COMDAT ??_C@_07GGJFLPNN@miniMap@
CONST	SEGMENT
??_C@_07GGJFLPNN@miniMap@ DB 'miniMap', 00H		; `string'
CONST	ENDS
;	COMDAT ??_C@_0P@JOOPKKLO@GetGuildAreaID@
CONST	SEGMENT
??_C@_0P@JOOPKKLO@GetGuildAreaID@ DB 'GetGuildAreaID', 00H ; `string'
CONST	ENDS
;	COMDAT ??_C@_0BG@BMPPHBMB@UnregisterAtlasWindow@
CONST	SEGMENT
??_C@_0BG@BMPPHBMB@UnregisterAtlasWindow@ DB 'UnregisterAtlasWindow', 00H ; `string'
CONST	ENDS
;	COMDAT ??_C@_0BE@DJCJPBHI@RegisterAtlasWindow@
CONST	SEGMENT
??_C@_0BE@DJCJPBHI@RegisterAtlasWindow@ DB 'RegisterAtlasWindow', 00H ; `string'
CONST	ENDS
;	COMDAT ??_C@_0P@BPFHEFHK@RemoveWayPoint@
CONST	SEGMENT
??_C@_0P@BPFHEFHK@RemoveWayPoint@ DB 'RemoveWayPoint', 00H ; `string'
CONST	ENDS
;	COMDAT ??_C@_0M@DMLHJAOH@AddWayPoint@
CONST	SEGMENT
??_C@_0M@DMLHJAOH@AddWayPoint@ DB 'AddWayPoint', 00H	; `string'
CONST	ENDS
;	COMDAT ??_C@_0N@ENAKBIJM@GetAtlasSize@
CONST	SEGMENT
??_C@_0N@ENAKBIJM@GetAtlasSize@ DB 'GetAtlasSize', 00H	; `string'
CONST	ENDS
;	COMDAT ??_C@_0N@BFFOBNJI@GetAtlasInfo@
CONST	SEGMENT
??_C@_0N@BFFOBNJI@GetAtlasInfo@ DB 'GetAtlasInfo', 00H	; `string'
CONST	ENDS
;	COMDAT ??_C@_07IFCOGPLJ@IsAtlas@
CONST	SEGMENT
??_C@_07IFCOGPLJ@IsAtlas@ DB 'IsAtlas', 00H		; `string'
CONST	ENDS
;	COMDAT ??_C@_0M@DHCMEFOB@isShowAtlas@
CONST	SEGMENT
??_C@_0M@DHCMEFOB@isShowAtlas@ DB 'isShowAtlas', 00H	; `string'
CONST	ENDS
;	COMDAT ??_C@_09BIFGHGHO@HideAtlas@
CONST	SEGMENT
??_C@_09BIFGHGHO@HideAtlas@ DB 'HideAtlas', 00H		; `string'
CONST	ENDS
;	COMDAT ??_C@_09HNEIIJJD@ShowAtlas@
CONST	SEGMENT
??_C@_09HNEIIJJD@ShowAtlas@ DB 'ShowAtlas', 00H		; `string'
CONST	ENDS
;	COMDAT ??_C@_0M@KMBFBAJA@RenderAtlas@
CONST	SEGMENT
??_C@_0M@KMBFBAJA@RenderAtlas@ DB 'RenderAtlas', 00H	; `string'
CONST	ENDS
;	COMDAT ??_C@_0M@EIPBNHOF@UpdateAtlas@
CONST	SEGMENT
??_C@_0M@EIPBNHOF@UpdateAtlas@ DB 'UpdateAtlas', 00H	; `string'
CONST	ENDS
;	COMDAT ??_C@_09IMDAKKFO@LoadAtlas@
CONST	SEGMENT
??_C@_09IMDAKKFO@LoadAtlas@ DB 'LoadAtlas', 00H		; `string'
CONST	ENDS
;	COMDAT ??_C@_07NAJNLNAF@GetInfo@
CONST	SEGMENT
??_C@_07NAJNLNAF@GetInfo@ DB 'GetInfo', 00H		; `string'
CONST	ENDS
;	COMDAT ??_C@_06FDNPFPAD@isShow@
CONST	SEGMENT
??_C@_06FDNPFPAD@isShow@ DB 'isShow', 00H		; `string'
CONST	ENDS
;	COMDAT ??_C@_04EACEFPPN@Hide@
CONST	SEGMENT
??_C@_04EACEFPPN@Hide@ DB 'Hide', 00H			; `string'
CONST	ENDS
;	COMDAT ??_C@_04JLAJABDJ@Show@
CONST	SEGMENT
??_C@_04JLAJABDJ@Show@ DB 'Show', 00H			; `string'
CONST	ENDS
;	COMDAT ??_C@_06EPLDPNDB@Render@
CONST	SEGMENT
??_C@_06EPLDPNDB@Render@ DB 'Render', 00H		; `string'
CONST	ENDS
;	COMDAT ??_C@_06LMAGPFNF@Update@
CONST	SEGMENT
??_C@_06LMAGPFNF@Update@ DB 'Update', 00H		; `string'
CONST	ENDS
;	COMDAT ??_C@_06MIKANEJK@Create@
CONST	SEGMENT
??_C@_06MIKANEJK@Create@ DB 'Create', 00H		; `string'
CONST	ENDS
;	COMDAT ??_C@_07BDCAJABG@Destroy@
CONST	SEGMENT
??_C@_07BDCAJABG@Destroy@ DB 'Destroy', 00H		; `string'
CONST	ENDS
;	COMDAT ??_C@_0BC@MCKFCFLJ@SetCenterPosition@
CONST	SEGMENT
??_C@_0BC@MCKFCFLJ@SetCenterPosition@ DB 'SetCenterPosition', 00H ; `string'
CONST	ENDS
;	COMDAT ??_C@_0P@JDEKHKMA@SetMiniMapSize@
CONST	SEGMENT
??_C@_0P@JDEKHKMA@SetMiniMapSize@ DB 'SetMiniMapSize', 00H ; `string'
CONST	ENDS
;	COMDAT ??_C@_09EHCACONO@ScaleDown@
CONST	SEGMENT
??_C@_09EHCACONO@ScaleDown@ DB 'ScaleDown', 00H		; `string'
CONST	ENDS
;	COMDAT ??_C@_07CNPAFGOE@ScaleUp@
CONST	SEGMENT
??_C@_07CNPAFGOE@ScaleUp@ DB 'ScaleUp', 00H		; `string'
CONST	ENDS
;	COMDAT ??_C@_08FMFAIGAB@SetScale@
CONST	SEGMENT
??_C@_08FMFAIGAB@SetScale@ DB 'SetScale', 00H		; `string'
CONST	ENDS
;	COMDAT ?s_methods@?1??initMiniMap@@YAXXZ@4PAUPyMethodDef@@A
_DATA	SEGMENT
?s_methods@?1??initMiniMap@@YAXXZ@4PAUPyMethodDef@@A DD FLAT:??_C@_08FMFAIGAB@SetScale@ ; `initMiniMap'::`2'::s_methods
	DD	FLAT:?miniMapSetScale@@YAPAU_object@@PAU1@0@Z
	DD	01H
	ORG $+4
	DD	FLAT:??_C@_07CNPAFGOE@ScaleUp@
	DD	FLAT:?miniMapScaleUp@@YAPAU_object@@PAU1@0@Z
	DD	01H
	ORG $+4
	DD	FLAT:??_C@_09EHCACONO@ScaleDown@
	DD	FLAT:?miniMapScaleDown@@YAPAU_object@@PAU1@0@Z
	DD	01H
	ORG $+4
	DD	FLAT:??_C@_0P@JDEKHKMA@SetMiniMapSize@
	DD	FLAT:?miniMapSetMiniMapSize@@YAPAU_object@@PAU1@0@Z
	DD	01H
	ORG $+4
	DD	FLAT:??_C@_0BC@MCKFCFLJ@SetCenterPosition@
	DD	FLAT:?miniMapSetCenterPosition@@YAPAU_object@@PAU1@0@Z
	DD	01H
	ORG $+4
	DD	FLAT:??_C@_07BDCAJABG@Destroy@
	DD	FLAT:?miniMapDestroy@@YAPAU_object@@PAU1@0@Z
	DD	01H
	ORG $+4
	DD	FLAT:??_C@_06MIKANEJK@Create@
	DD	FLAT:?miniMapCreate@@YAPAU_object@@PAU1@0@Z
	DD	01H
	ORG $+4
	DD	FLAT:??_C@_06LMAGPFNF@Update@
	DD	FLAT:?miniMapUpdate@@YAPAU_object@@PAU1@0@Z
	DD	01H
	ORG $+4
	DD	FLAT:??_C@_06EPLDPNDB@Render@
	DD	FLAT:?miniMapRender@@YAPAU_object@@PAU1@0@Z
	DD	01H
	ORG $+4
	DD	FLAT:??_C@_04JLAJABDJ@Show@
	DD	FLAT:?miniMapShow@@YAPAU_object@@PAU1@0@Z
	DD	01H
	ORG $+4
	DD	FLAT:??_C@_04EACEFPPN@Hide@
	DD	FLAT:?miniMapHide@@YAPAU_object@@PAU1@0@Z
	DD	01H
	ORG $+4
	DD	FLAT:??_C@_06FDNPFPAD@isShow@
	DD	FLAT:?miniMapisShow@@YAPAU_object@@PAU1@0@Z
	DD	01H
	ORG $+4
	DD	FLAT:??_C@_07NAJNLNAF@GetInfo@
	DD	FLAT:?miniMapGetInfo@@YAPAU_object@@PAU1@0@Z
	DD	01H
	ORG $+4
	DD	FLAT:??_C@_09IMDAKKFO@LoadAtlas@
	DD	FLAT:?miniMapLoadAtlas@@YAPAU_object@@PAU1@0@Z
	DD	01H
	ORG $+4
	DD	FLAT:??_C@_0M@EIPBNHOF@UpdateAtlas@
	DD	FLAT:?miniMapUpdateAtlas@@YAPAU_object@@PAU1@0@Z
	DD	01H
	ORG $+4
	DD	FLAT:??_C@_0M@KMBFBAJA@RenderAtlas@
	DD	FLAT:?miniMapRenderAtlas@@YAPAU_object@@PAU1@0@Z
	DD	01H
	ORG $+4
	DD	FLAT:??_C@_09HNEIIJJD@ShowAtlas@
	DD	FLAT:?miniMapShowAtlas@@YAPAU_object@@PAU1@0@Z
	DD	01H
	ORG $+4
	DD	FLAT:??_C@_09BIFGHGHO@HideAtlas@
	DD	FLAT:?miniMapHideAtlas@@YAPAU_object@@PAU1@0@Z
	DD	01H
	ORG $+4
	DD	FLAT:??_C@_0M@DHCMEFOB@isShowAtlas@
	DD	FLAT:?miniMapisShowAtlas@@YAPAU_object@@PAU1@0@Z
	DD	01H
	ORG $+4
	DD	FLAT:??_C@_07IFCOGPLJ@IsAtlas@
	DD	FLAT:?miniMapIsAtlas@@YAPAU_object@@PAU1@0@Z
	DD	01H
	ORG $+4
	DD	FLAT:??_C@_0N@BFFOBNJI@GetAtlasInfo@
	DD	FLAT:?miniMapGetAtlasInfo@@YAPAU_object@@PAU1@0@Z
	DD	01H
	ORG $+4
	DD	FLAT:??_C@_0N@ENAKBIJM@GetAtlasSize@
	DD	FLAT:?miniMapGetAtlasSize@@YAPAU_object@@PAU1@0@Z
	DD	01H
	ORG $+4
	DD	FLAT:??_C@_0M@DMLHJAOH@AddWayPoint@
	DD	FLAT:?miniMapAddWayPoint@@YAPAU_object@@PAU1@0@Z
	DD	01H
	ORG $+4
	DD	FLAT:??_C@_0P@BPFHEFHK@RemoveWayPoint@
	DD	FLAT:?miniMapRemoveWayPoint@@YAPAU_object@@PAU1@0@Z
	DD	01H
	ORG $+4
	DD	FLAT:??_C@_0BE@DJCJPBHI@RegisterAtlasWindow@
	DD	FLAT:?miniMapRegisterAtlasWindow@@YAPAU_object@@PAU1@0@Z
	DD	01H
	ORG $+4
	DD	FLAT:??_C@_0BG@BMPPHBMB@UnregisterAtlasWindow@
	DD	FLAT:?miniMapUnregisterAtlasWindow@@YAPAU_object@@PAU1@0@Z
	DD	01H
	ORG $+4
	DD	FLAT:??_C@_0P@JOOPKKLO@GetGuildAreaID@
	DD	FLAT:?miniMapGetGuildAreaID@@YAPAU_object@@PAU1@0@Z
	DD	01H
	ORG $+4
	DD	00H
	DD	00H
	ORG $+8
_DATA	ENDS
;	COMDAT ??_C@_01KBJDNOO@i@
CONST	SEGMENT
??_C@_01KBJDNOO@i@ DB 'i', 00H				; `string'
CONST	ENDS
;	COMDAT ??_C@_03LMKNDPCK@bii@
CONST	SEGMENT
??_C@_03LMKNDPCK@bii@ DB 'bii', 00H			; `string'
CONST	ENDS
;	COMDAT ??_C@_06NGPFBJMH@isiili@
CONST	SEGMENT
??_C@_06NGPFBJMH@isiili@ DB 'isiili', 00H		; `string'
CONST	ENDS
;	COMDAT ??_C@_0CO@JOBACLFH@CPythonMiniMap?3?3Instance?$CI?$CJ?4Load@
CONST	SEGMENT
??_C@_0CO@JOBACLFH@CPythonMiniMap?3?3Instance?$CI?$CJ?4Load@ DB 'CPythonM'
	DB	'iniMap::Instance().LoadAtlas() Failed', 00H	; `string'
CONST	ENDS
;	COMDAT ??_C@_05BHNEPGFM@isiil@
CONST	SEGMENT
??_C@_05BHNEPGFM@isiil@ DB 'isiil', 00H			; `string'
CONST	ENDS
;	COMDAT ??_C@_01OJONOECF@b@
CONST	SEGMENT
??_C@_01OJONOECF@b@ DB 'b', 00H				; `string'
CONST	ENDS
;	COMDAT ??_R1A@?0A@EA@bad_array_new_length@std@@8
rdata$r	SEGMENT
??_R1A@?0A@EA@bad_array_new_length@std@@8 DD FLAT:??_R0?AVbad_array_new_length@std@@@8 ; std::bad_array_new_length::`RTTI Base Class Descriptor at (0,-1,0,64)'
	DD	02H
	DD	00H
	DD	0ffffffffH
	DD	00H
	DD	040H
	DD	FLAT:??_R3bad_array_new_length@std@@8
rdata$r	ENDS
;	COMDAT ??_R2bad_array_new_length@std@@8
rdata$r	SEGMENT
??_R2bad_array_new_length@std@@8 DD FLAT:??_R1A@?0A@EA@bad_array_new_length@std@@8 ; std::bad_array_new_length::`RTTI Base Class Array'
	DD	FLAT:??_R1A@?0A@EA@bad_alloc@std@@8
	DD	FLAT:??_R1A@?0A@EA@exception@std@@8
rdata$r	ENDS
;	COMDAT ??_R3bad_array_new_length@std@@8
rdata$r	SEGMENT
??_R3bad_array_new_length@std@@8 DD 00H			; std::bad_array_new_length::`RTTI Class Hierarchy Descriptor'
	DD	00H
	DD	03H
	DD	FLAT:??_R2bad_array_new_length@std@@8
rdata$r	ENDS
;	COMDAT ??_R4bad_array_new_length@std@@6B@
rdata$r	SEGMENT
??_R4bad_array_new_length@std@@6B@ DD 00H		; std::bad_array_new_length::`RTTI Complete Object Locator'
	DD	00H
	DD	00H
	DD	FLAT:??_R0?AVbad_array_new_length@std@@@8
	DD	FLAT:??_R3bad_array_new_length@std@@8
rdata$r	ENDS
;	COMDAT ??_R1A@?0A@EA@bad_alloc@std@@8
rdata$r	SEGMENT
??_R1A@?0A@EA@bad_alloc@std@@8 DD FLAT:??_R0?AVbad_alloc@std@@@8 ; std::bad_alloc::`RTTI Base Class Descriptor at (0,-1,0,64)'
	DD	01H
	DD	00H
	DD	0ffffffffH
	DD	00H
	DD	040H
	DD	FLAT:??_R3bad_alloc@std@@8
rdata$r	ENDS
;	COMDAT ??_R2bad_alloc@std@@8
rdata$r	SEGMENT
??_R2bad_alloc@std@@8 DD FLAT:??_R1A@?0A@EA@bad_alloc@std@@8 ; std::bad_alloc::`RTTI Base Class Array'
	DD	FLAT:??_R1A@?0A@EA@exception@std@@8
rdata$r	ENDS
;	COMDAT ??_R3bad_alloc@std@@8
rdata$r	SEGMENT
??_R3bad_alloc@std@@8 DD 00H				; std::bad_alloc::`RTTI Class Hierarchy Descriptor'
	DD	00H
	DD	02H
	DD	FLAT:??_R2bad_alloc@std@@8
rdata$r	ENDS
;	COMDAT ??_R4bad_alloc@std@@6B@
rdata$r	SEGMENT
??_R4bad_alloc@std@@6B@ DD 00H				; std::bad_alloc::`RTTI Complete Object Locator'
	DD	00H
	DD	00H
	DD	FLAT:??_R0?AVbad_alloc@std@@@8
	DD	FLAT:??_R3bad_alloc@std@@8
rdata$r	ENDS
;	COMDAT ??_R1A@?0A@EA@exception@std@@8
rdata$r	SEGMENT
??_R1A@?0A@EA@exception@std@@8 DD FLAT:??_R0?AVexception@std@@@8 ; std::exception::`RTTI Base Class Descriptor at (0,-1,0,64)'
	DD	00H
	DD	00H
	DD	0ffffffffH
	DD	00H
	DD	040H
	DD	FLAT:??_R3exception@std@@8
rdata$r	ENDS
;	COMDAT ??_R2exception@std@@8
rdata$r	SEGMENT
??_R2exception@std@@8 DD FLAT:??_R1A@?0A@EA@exception@std@@8 ; std::exception::`RTTI Base Class Array'
rdata$r	ENDS
;	COMDAT ??_R3exception@std@@8
rdata$r	SEGMENT
??_R3exception@std@@8 DD 00H				; std::exception::`RTTI Class Hierarchy Descriptor'
	DD	00H
	DD	01H
	DD	FLAT:??_R2exception@std@@8
rdata$r	ENDS
;	COMDAT ??_R4exception@std@@6B@
rdata$r	SEGMENT
??_R4exception@std@@6B@ DD 00H				; std::exception::`RTTI Complete Object Locator'
	DD	00H
	DD	00H
	DD	FLAT:??_R0?AVexception@std@@@8
	DD	FLAT:??_R3exception@std@@8
rdata$r	ENDS
;	COMDAT ??_C@_0BA@JFNIOLAK@string?5too?5long@
CONST	SEGMENT
??_C@_0BA@JFNIOLAK@string?5too?5long@ DB 'string too long', 00H ; `string'
CONST	ENDS
;	COMDAT __CT??_R0?AVexception@std@@@8??0exception@std@@QAE@ABV01@@Z12
xdata$x	SEGMENT
__CT??_R0?AVexception@std@@@8??0exception@std@@QAE@ABV01@@Z12 DD 00H
	DD	FLAT:??_R0?AVexception@std@@@8
	DD	00H
	DD	0ffffffffH
	ORG $+4
	DD	0cH
	DD	FLAT:??0exception@std@@QAE@ABV01@@Z
xdata$x	ENDS
;	COMDAT ??_R0?AVexception@std@@@8
data$r	SEGMENT
??_R0?AVexception@std@@@8 DD FLAT:??_7type_info@@6B@	; std::exception `RTTI Type Descriptor'
	DD	00H
	DB	'.?AVexception@std@@', 00H
data$r	ENDS
;	COMDAT __CT??_R0?AVbad_alloc@std@@@8??0bad_alloc@std@@QAE@ABV01@@Z12
xdata$x	SEGMENT
__CT??_R0?AVbad_alloc@std@@@8??0bad_alloc@std@@QAE@ABV01@@Z12 DD 010H
	DD	FLAT:??_R0?AVbad_alloc@std@@@8
	DD	00H
	DD	0ffffffffH
	ORG $+4
	DD	0cH
	DD	FLAT:??0bad_alloc@std@@QAE@ABV01@@Z
xdata$x	ENDS
;	COMDAT ??_R0?AVbad_alloc@std@@@8
data$r	SEGMENT
??_R0?AVbad_alloc@std@@@8 DD FLAT:??_7type_info@@6B@	; std::bad_alloc `RTTI Type Descriptor'
	DD	00H
	DB	'.?AVbad_alloc@std@@', 00H
data$r	ENDS
;	COMDAT __CT??_R0?AVbad_array_new_length@std@@@8??0bad_array_new_length@std@@QAE@ABV01@@Z12
xdata$x	SEGMENT
__CT??_R0?AVbad_array_new_length@std@@@8??0bad_array_new_length@std@@QAE@ABV01@@Z12 DD 00H
	DD	FLAT:??_R0?AVbad_array_new_length@std@@@8
	DD	00H
	DD	0ffffffffH
	ORG $+4
	DD	0cH
	DD	FLAT:??0bad_array_new_length@std@@QAE@ABV01@@Z
xdata$x	ENDS
;	COMDAT ??_R0?AVbad_array_new_length@std@@@8
data$r	SEGMENT
??_R0?AVbad_array_new_length@std@@@8 DD FLAT:??_7type_info@@6B@ ; std::bad_array_new_length `RTTI Type Descriptor'
	DD	00H
	DB	'.?AVbad_array_new_length@std@@', 00H
data$r	ENDS
;	COMDAT __CTA3?AVbad_array_new_length@std@@
xdata$x	SEGMENT
__CTA3?AVbad_array_new_length@std@@ DD 03H
	DD	FLAT:__CT??_R0?AVbad_array_new_length@std@@@8??0bad_array_new_length@std@@QAE@ABV01@@Z12
	DD	FLAT:__CT??_R0?AVbad_alloc@std@@@8??0bad_alloc@std@@QAE@ABV01@@Z12
	DD	FLAT:__CT??_R0?AVexception@std@@@8??0exception@std@@QAE@ABV01@@Z12
xdata$x	ENDS
;	COMDAT __TI3?AVbad_array_new_length@std@@
xdata$x	SEGMENT
__TI3?AVbad_array_new_length@std@@ DD 00H
	DD	FLAT:??1bad_array_new_length@std@@UAE@XZ
	DD	00H
	DD	FLAT:__CTA3?AVbad_array_new_length@std@@
xdata$x	ENDS
;	COMDAT ??_C@_0BF@KINCDENJ@bad?5array?5new?5length@
CONST	SEGMENT
??_C@_0BF@KINCDENJ@bad?5array?5new?5length@ DB 'bad array new length', 00H ; `string'
CONST	ENDS
;	COMDAT ??_7bad_array_new_length@std@@6B@
CONST	SEGMENT
??_7bad_array_new_length@std@@6B@ DD FLAT:??_R4bad_array_new_length@std@@6B@ ; std::bad_array_new_length::`vftable'
	DD	FLAT:??_Ebad_array_new_length@std@@UAEPAXI@Z
	DD	FLAT:?what@exception@std@@UBEPBDXZ
CONST	ENDS
;	COMDAT ??_7bad_alloc@std@@6B@
CONST	SEGMENT
??_7bad_alloc@std@@6B@ DD FLAT:??_R4bad_alloc@std@@6B@	; std::bad_alloc::`vftable'
	DD	FLAT:??_Ebad_alloc@std@@UAEPAXI@Z
	DD	FLAT:?what@exception@std@@UBEPBDXZ
CONST	ENDS
;	COMDAT ??_C@_0BC@EOODALEL@Unknown?5exception@
CONST	SEGMENT
??_C@_0BC@EOODALEL@Unknown?5exception@ DB 'Unknown exception', 00H ; `string'
CONST	ENDS
;	COMDAT ??_7exception@std@@6B@
CONST	SEGMENT
??_7exception@std@@6B@ DD FLAT:??_R4exception@std@@6B@	; std::exception::`vftable'
	DD	FLAT:??_Eexception@std@@UAEPAXI@Z
	DD	FLAT:?what@exception@std@@UBEPBDXZ
CONST	ENDS
;	COMDAT xdata$x
xdata$x	SEGMENT
__unwindtable$?miniMapGetAtlasInfo@@YAPAU_object@@PAU1@0@Z DD 0ffffffffH
	DD	FLAT:__unwindfunclet$?miniMapGetAtlasInfo@@YAPAU_object@@PAU1@0@Z$0
__ehfuncinfo$?miniMapGetAtlasInfo@@YAPAU_object@@PAU1@0@Z DD 019930522H
	DD	01H
	DD	FLAT:__unwindtable$?miniMapGetAtlasInfo@@YAPAU_object@@PAU1@0@Z
	DD	2 DUP(00H)
	DD	2 DUP(00H)
	DD	00H
	DD	01H
xdata$x	ENDS
;	COMDAT xdata$x
xdata$x	SEGMENT
__unwindtable$?miniMapGetInfo@@YAPAU_object@@PAU1@0@Z DD 0ffffffffH
	DD	FLAT:__unwindfunclet$?miniMapGetInfo@@YAPAU_object@@PAU1@0@Z$0
__ehfuncinfo$?miniMapGetInfo@@YAPAU_object@@PAU1@0@Z DD 019930522H
	DD	01H
	DD	FLAT:__unwindtable$?miniMapGetInfo@@YAPAU_object@@PAU1@0@Z
	DD	2 DUP(00H)
	DD	2 DUP(00H)
	DD	00H
	DD	01H
xdata$x	ENDS
; Function compile flags: /Ogtp
; File D:\Metin2 Server Files\mainline\SRC_2014\Metin2Client\UserInterface\PythonMiniMapModule.cpp
;	COMDAT ?miniMapGetGuildAreaID@@YAPAU_object@@PAU1@0@Z
_TEXT	SEGMENT
_fx$ = -8						; size = 4
_fy$ = -4						; size = 4
_poSelf$ = 8						; size = 4
_poArgs$ = 12						; size = 4
?miniMapGetGuildAreaID@@YAPAU_object@@PAU1@0@Z PROC	; miniMapGetGuildAreaID, COMDAT

; 290  : {

  00000	55		 push	 ebp
  00001	8b ec		 mov	 ebp, esp
  00003	83 ec 08	 sub	 esp, 8

; 291  : 	float fx;
; 292  : 	if (!PyTuple_GetFloat(poArgs, 0, &fx))

  00006	8d 45 f8	 lea	 eax, DWORD PTR _fx$[ebp]
  00009	50		 push	 eax
  0000a	6a 00		 push	 0
  0000c	ff 75 0c	 push	 DWORD PTR _poArgs$[ebp]
  0000f	e8 00 00 00 00	 call	 ?PyTuple_GetFloat@@YA_NPAU_object@@HPAM@Z ; PyTuple_GetFloat
  00014	83 c4 0c	 add	 esp, 12			; 0000000cH
  00017	84 c0		 test	 al, al
  00019	75 0e		 jne	 SHORT $LN2@miniMapGet
$LN5@miniMapGet:

; 300  : }

  0001b	6a 00		 push	 0
  0001d	e8 00 00 00 00	 call	 ?Py_BuildException@@YAPAU_object@@PBDZZ ; Py_BuildException
  00022	83 c4 04	 add	 esp, 4
  00025	8b e5		 mov	 esp, ebp
  00027	5d		 pop	 ebp
  00028	c3		 ret	 0
$LN2@miniMapGet:

; 293  : 		return Py_BuildException();
; 294  : 	float fy;
; 295  : 	if (!PyTuple_GetFloat(poArgs, 1, &fy))

  00029	8d 45 fc	 lea	 eax, DWORD PTR _fy$[ebp]
  0002c	50		 push	 eax
  0002d	6a 01		 push	 1
  0002f	ff 75 0c	 push	 DWORD PTR _poArgs$[ebp]
  00032	e8 00 00 00 00	 call	 ?PyTuple_GetFloat@@YA_NPAU_object@@HPAM@Z ; PyTuple_GetFloat
  00037	83 c4 0c	 add	 esp, 12			; 0000000cH
  0003a	84 c0		 test	 al, al
  0003c	74 dd		 je	 SHORT $LN5@miniMapGet

; 296  : 		return Py_BuildException();
; 297  : 
; 298  : 	DWORD dwGuildID = CPythonMiniMap::Instance().GetGuildAreaID(fx, fy);

  0003e	f3 0f 10 45 fc	 movss	 xmm0, DWORD PTR _fy$[ebp]
  00043	e8 00 00 00 00	 call	 __ftoui3
  00048	f3 0f 10 45 f8	 movss	 xmm0, DWORD PTR _fx$[ebp]
  0004d	50		 push	 eax
  0004e	e8 00 00 00 00	 call	 __ftoui3
  00053	8b 0d 00 00 00
	00		 mov	 ecx, DWORD PTR ?ms_singleton@?$CSingleton@VCPythonMiniMap@@@@0PAVCPythonMiniMap@@A ; CSingleton<CPythonMiniMap>::ms_singleton
  00059	50		 push	 eax
  0005a	e8 00 00 00 00	 call	 ?GetGuildAreaID@CPythonMiniMap@@QAEKKK@Z ; CPythonMiniMap::GetGuildAreaID

; 299  : 	return Py_BuildValue("i", dwGuildID);

  0005f	50		 push	 eax
  00060	68 00 00 00 00	 push	 OFFSET ??_C@_01KBJDNOO@i@
  00065	ff 15 00 00 00
	00		 call	 DWORD PTR __imp__Py_BuildValue
  0006b	83 c4 08	 add	 esp, 8

; 300  : }

  0006e	8b e5		 mov	 esp, ebp
  00070	5d		 pop	 ebp
  00071	c3		 ret	 0
?miniMapGetGuildAreaID@@YAPAU_object@@PAU1@0@Z ENDP	; miniMapGetGuildAreaID
_TEXT	ENDS
; Function compile flags: /Ogtp
; File D:\Metin2 Server Files\mainline\SRC_2014\Metin2Client\UserInterface\PythonMiniMapModule.cpp
;	COMDAT ?miniMapUnregisterAtlasWindow@@YAPAU_object@@PAU1@0@Z
_TEXT	SEGMENT
_poSelf$ = 8						; size = 4
_poArgs$ = 12						; size = 4
?miniMapUnregisterAtlasWindow@@YAPAU_object@@PAU1@0@Z PROC ; miniMapUnregisterAtlasWindow, COMDAT

; 285  : 	CPythonMiniMap::Instance().UnregisterAtlasWindow();

  00000	8b 0d 00 00 00
	00		 mov	 ecx, DWORD PTR ?ms_singleton@?$CSingleton@VCPythonMiniMap@@@@0PAVCPythonMiniMap@@A ; CSingleton<CPythonMiniMap>::ms_singleton
  00006	e8 00 00 00 00	 call	 ?UnregisterAtlasWindow@CPythonMiniMap@@QAEXXZ ; CPythonMiniMap::UnregisterAtlasWindow

; 286  : 	return Py_BuildNone();

  0000b	e9 00 00 00 00	 jmp	 ?Py_BuildNone@@YAPAU_object@@XZ ; Py_BuildNone
?miniMapUnregisterAtlasWindow@@YAPAU_object@@PAU1@0@Z ENDP ; miniMapUnregisterAtlasWindow
_TEXT	ENDS
; Function compile flags: /Ogtp
; File D:\Metin2 Server Files\mainline\SRC_2014\Metin2Client\UserInterface\PythonMiniMapModule.cpp
;	COMDAT ?miniMapRegisterAtlasWindow@@YAPAU_object@@PAU1@0@Z
_TEXT	SEGMENT
_poHandler$ = -4					; size = 4
_poSelf$ = 8						; size = 4
_poArgs$ = 12						; size = 4
?miniMapRegisterAtlasWindow@@YAPAU_object@@PAU1@0@Z PROC ; miniMapRegisterAtlasWindow, COMDAT

; 275  : {

  00000	55		 push	 ebp
  00001	8b ec		 mov	 ebp, esp
  00003	51		 push	 ecx

; 276  : 	PyObject * poHandler;
; 277  : 	if (!PyTuple_GetObject(poArgs, 0, &poHandler))

  00004	8d 45 fc	 lea	 eax, DWORD PTR _poHandler$[ebp]
  00007	50		 push	 eax
  00008	6a 00		 push	 0
  0000a	ff 75 0c	 push	 DWORD PTR _poArgs$[ebp]
  0000d	e8 00 00 00 00	 call	 ?PyTuple_GetObject@@YA_NPAU_object@@HPAPAU1@@Z ; PyTuple_GetObject
  00012	83 c4 0c	 add	 esp, 12			; 0000000cH
  00015	84 c0		 test	 al, al
  00017	75 0e		 jne	 SHORT $LN2@miniMapReg

; 278  : 		return Py_BuildException();

  00019	6a 00		 push	 0
  0001b	e8 00 00 00 00	 call	 ?Py_BuildException@@YAPAU_object@@PBDZZ ; Py_BuildException
  00020	83 c4 04	 add	 esp, 4

; 281  : }

  00023	8b e5		 mov	 esp, ebp
  00025	5d		 pop	 ebp
  00026	c3		 ret	 0
$LN2@miniMapReg:

; 279  : 	CPythonMiniMap::Instance().RegisterAtlasWindow(poHandler);

  00027	ff 75 fc	 push	 DWORD PTR _poHandler$[ebp]
  0002a	8b 0d 00 00 00
	00		 mov	 ecx, DWORD PTR ?ms_singleton@?$CSingleton@VCPythonMiniMap@@@@0PAVCPythonMiniMap@@A ; CSingleton<CPythonMiniMap>::ms_singleton
  00030	e8 00 00 00 00	 call	 ?RegisterAtlasWindow@CPythonMiniMap@@QAEXPAU_object@@@Z ; CPythonMiniMap::RegisterAtlasWindow

; 280  : 	return Py_BuildNone();

  00035	e8 00 00 00 00	 call	 ?Py_BuildNone@@YAPAU_object@@XZ ; Py_BuildNone

; 281  : }

  0003a	8b e5		 mov	 esp, ebp
  0003c	5d		 pop	 ebp
  0003d	c3		 ret	 0
?miniMapRegisterAtlasWindow@@YAPAU_object@@PAU1@0@Z ENDP ; miniMapRegisterAtlasWindow
_TEXT	ENDS
; Function compile flags: /Ogtp
; File D:\Metin2 Server Files\mainline\SRC_2014\Metin2Client\UserInterface\PythonMiniMapModule.cpp
;	COMDAT ?miniMapRemoveWayPoint@@YAPAU_object@@PAU1@0@Z
_TEXT	SEGMENT
_iID$ = -4						; size = 4
_poSelf$ = 8						; size = 4
_poArgs$ = 12						; size = 4
?miniMapRemoveWayPoint@@YAPAU_object@@PAU1@0@Z PROC	; miniMapRemoveWayPoint, COMDAT

; 264  : {

  00000	55		 push	 ebp
  00001	8b ec		 mov	 ebp, esp
  00003	51		 push	 ecx

; 265  : 	int iID;
; 266  : 	if (!PyTuple_GetInteger(poArgs, 0, &iID))

  00004	8d 45 fc	 lea	 eax, DWORD PTR _iID$[ebp]
  00007	50		 push	 eax
  00008	6a 00		 push	 0
  0000a	ff 75 0c	 push	 DWORD PTR _poArgs$[ebp]
  0000d	e8 00 00 00 00	 call	 ?PyTuple_GetInteger@@YA_NPAU_object@@HPAH@Z ; PyTuple_GetInteger
  00012	83 c4 0c	 add	 esp, 12			; 0000000cH
  00015	84 c0		 test	 al, al
  00017	75 0e		 jne	 SHORT $LN2@miniMapRem

; 267  : 		return Py_BuildException();

  00019	6a 00		 push	 0
  0001b	e8 00 00 00 00	 call	 ?Py_BuildException@@YAPAU_object@@PBDZZ ; Py_BuildException
  00020	83 c4 04	 add	 esp, 4

; 272  : }

  00023	8b e5		 mov	 esp, ebp
  00025	5d		 pop	 ebp
  00026	c3		 ret	 0
$LN2@miniMapRem:

; 268  : 	
; 269  : 	CPythonMiniMap::Instance().RemoveWayPoint((DWORD)iID);

  00027	ff 75 fc	 push	 DWORD PTR _iID$[ebp]
  0002a	8b 0d 00 00 00
	00		 mov	 ecx, DWORD PTR ?ms_singleton@?$CSingleton@VCPythonMiniMap@@@@0PAVCPythonMiniMap@@A ; CSingleton<CPythonMiniMap>::ms_singleton
  00030	e8 00 00 00 00	 call	 ?RemoveWayPoint@CPythonMiniMap@@QAEXK@Z ; CPythonMiniMap::RemoveWayPoint

; 270  : 	
; 271  : 	return Py_BuildNone();

  00035	e8 00 00 00 00	 call	 ?Py_BuildNone@@YAPAU_object@@XZ ; Py_BuildNone

; 272  : }

  0003a	8b e5		 mov	 esp, ebp
  0003c	5d		 pop	 ebp
  0003d	c3		 ret	 0
?miniMapRemoveWayPoint@@YAPAU_object@@PAU1@0@Z ENDP	; miniMapRemoveWayPoint
_TEXT	ENDS
; Function compile flags: /Ogtp
; File D:\Metin2 Server Files\mainline\SRC_2014\Metin2Client\UserInterface\PythonMiniMapModule.cpp
;	COMDAT ?miniMapAddWayPoint@@YAPAU_object@@PAU1@0@Z
_TEXT	SEGMENT
_iID$ = -16						; size = 4
_fX$ = -12						; size = 4
_fY$ = -8						; size = 4
_buf$ = -4						; size = 4
_poSelf$ = 8						; size = 4
_poArgs$ = 12						; size = 4
?miniMapAddWayPoint@@YAPAU_object@@PAU1@0@Z PROC	; miniMapAddWayPoint, COMDAT

; 241  : {

  00000	55		 push	 ebp
  00001	8b ec		 mov	 ebp, esp
  00003	83 ec 14	 sub	 esp, 20			; 00000014H

; 242  : 	int iID;
; 243  : 	if (!PyTuple_GetInteger(poArgs, 0, &iID))

  00006	8d 45 f0	 lea	 eax, DWORD PTR _iID$[ebp]
  00009	56		 push	 esi
  0000a	8b 75 0c	 mov	 esi, DWORD PTR _poArgs$[ebp]
  0000d	50		 push	 eax
  0000e	6a 00		 push	 0
  00010	56		 push	 esi
  00011	e8 00 00 00 00	 call	 ?PyTuple_GetInteger@@YA_NPAU_object@@HPAH@Z ; PyTuple_GetInteger
  00016	83 c4 0c	 add	 esp, 12			; 0000000cH
  00019	84 c0		 test	 al, al
  0001b	75 0f		 jne	 SHORT $LN2@miniMapAdd
$LN8@miniMapAdd:

; 261  : }

  0001d	6a 00		 push	 0
$LN9@miniMapAdd:
  0001f	e8 00 00 00 00	 call	 ?Py_BuildException@@YAPAU_object@@PBDZZ ; Py_BuildException
  00024	83 c4 04	 add	 esp, 4
  00027	5e		 pop	 esi
  00028	8b e5		 mov	 esp, ebp
  0002a	5d		 pop	 ebp
  0002b	c3		 ret	 0
$LN2@miniMapAdd:

; 244  : 		return Py_BuildException();
; 245  : 	
; 246  : 	float fX;
; 247  : 	if (!PyTuple_GetFloat(poArgs, 1, &fX))

  0002c	8d 45 f4	 lea	 eax, DWORD PTR _fX$[ebp]
  0002f	50		 push	 eax
  00030	6a 01		 push	 1
  00032	56		 push	 esi
  00033	e8 00 00 00 00	 call	 ?PyTuple_GetFloat@@YA_NPAU_object@@HPAM@Z ; PyTuple_GetFloat
  00038	83 c4 0c	 add	 esp, 12			; 0000000cH
  0003b	84 c0		 test	 al, al
  0003d	74 de		 je	 SHORT $LN8@miniMapAdd

; 248  : 		return Py_BuildException();
; 249  : 	
; 250  : 	float fY;
; 251  : 	if (!PyTuple_GetFloat(poArgs, 2, &fY))

  0003f	8d 45 f8	 lea	 eax, DWORD PTR _fY$[ebp]
  00042	50		 push	 eax
  00043	6a 02		 push	 2
  00045	56		 push	 esi
  00046	e8 00 00 00 00	 call	 ?PyTuple_GetFloat@@YA_NPAU_object@@HPAM@Z ; PyTuple_GetFloat
  0004b	83 c4 0c	 add	 esp, 12			; 0000000cH
  0004e	84 c0		 test	 al, al
  00050	74 cb		 je	 SHORT $LN8@miniMapAdd

; 252  : 		return Py_BuildException();
; 253  : 
; 254  : 	char * buf;
; 255  : 	if (!PyTuple_GetString(poArgs, 3, &buf))

  00052	8d 45 fc	 lea	 eax, DWORD PTR _buf$[ebp]
  00055	50		 push	 eax
  00056	6a 03		 push	 3
  00058	56		 push	 esi
  00059	e8 00 00 00 00	 call	 ?PyTuple_GetString@@YA_NPAU_object@@HPAPAD@Z ; PyTuple_GetString
  0005e	83 c4 0c	 add	 esp, 12			; 0000000cH
  00061	6a 00		 push	 0
  00063	84 c0		 test	 al, al
  00065	74 b8		 je	 SHORT $LN9@miniMapAdd

; 256  : 		return Py_BuildException();
; 257  : 
; 258  : 	CPythonMiniMap::Instance().AddWayPoint(CPythonMiniMap::TYPE_WAYPOINT, (DWORD)iID, fX, fY, buf);

  00067	83 ec 18	 sub	 esp, 24			; 00000018H
  0006a	8b cc		 mov	 ecx, esp
  0006c	ff 75 fc	 push	 DWORD PTR _buf$[ebp]
  0006f	e8 00 00 00 00	 call	 ??0?$basic_string@DU?$char_traits@D@std@@V?$allocator@D@2@@std@@QAE@QBD@Z ; std::basic_string<char,std::char_traits<char>,std::allocator<char> >::basic_string<char,std::char_traits<char>,std::allocator<char> >
  00074	f3 0f 10 45 f8	 movss	 xmm0, DWORD PTR _fY$[ebp]
  00079	83 ec 08	 sub	 esp, 8
  0007c	8b 0d 00 00 00
	00		 mov	 ecx, DWORD PTR ?ms_singleton@?$CSingleton@VCPythonMiniMap@@@@0PAVCPythonMiniMap@@A ; CSingleton<CPythonMiniMap>::ms_singleton
  00082	f3 0f 11 44 24
	04		 movss	 DWORD PTR [esp+4], xmm0
  00088	f3 0f 10 45 f4	 movss	 xmm0, DWORD PTR _fX$[ebp]
  0008d	f3 0f 11 04 24	 movss	 DWORD PTR [esp], xmm0
  00092	ff 75 f0	 push	 DWORD PTR _iID$[ebp]
  00095	6a 06		 push	 6
  00097	e8 00 00 00 00	 call	 ?AddWayPoint@CPythonMiniMap@@QAEXEKMMV?$basic_string@DU?$char_traits@D@std@@V?$allocator@D@2@@std@@K@Z ; CPythonMiniMap::AddWayPoint

; 259  : 	
; 260  : 	return Py_BuildNone();

  0009c	e8 00 00 00 00	 call	 ?Py_BuildNone@@YAPAU_object@@XZ ; Py_BuildNone

; 261  : }

  000a1	5e		 pop	 esi
  000a2	8b e5		 mov	 esp, ebp
  000a4	5d		 pop	 ebp
  000a5	c3		 ret	 0
?miniMapAddWayPoint@@YAPAU_object@@PAU1@0@Z ENDP	; miniMapAddWayPoint
_TEXT	ENDS
; Function compile flags: /Ogtp
; File D:\Metin2 Server Files\mainline\SRC_2014\Metin2Client\UserInterface\PythonMiniMapModule.cpp
;	COMDAT ?miniMapGetAtlasSize@@YAPAU_object@@PAU1@0@Z
_TEXT	SEGMENT
_fSizeY$ = -8						; size = 4
_fSizeX$ = -4						; size = 4
_poSelf$ = 8						; size = 4
_poArgs$ = 12						; size = 4
?miniMapGetAtlasSize@@YAPAU_object@@PAU1@0@Z PROC	; miniMapGetAtlasSize, COMDAT

; 213  : {

  00000	55		 push	 ebp
  00001	8b ec		 mov	 ebp, esp
  00003	83 ec 08	 sub	 esp, 8

; 214  : 	float fSizeX, fSizeY;
; 215  : 	bool bGet = CPythonMiniMap::Instance().GetAtlasSize(&fSizeX, &fSizeY);

  00006	8b 0d 00 00 00
	00		 mov	 ecx, DWORD PTR ?ms_singleton@?$CSingleton@VCPythonMiniMap@@@@0PAVCPythonMiniMap@@A ; CSingleton<CPythonMiniMap>::ms_singleton
  0000c	8d 45 f8	 lea	 eax, DWORD PTR _fSizeY$[ebp]
  0000f	50		 push	 eax
  00010	8d 45 fc	 lea	 eax, DWORD PTR _fSizeX$[ebp]
  00013	50		 push	 eax
  00014	e8 00 00 00 00	 call	 ?GetAtlasSize@CPythonMiniMap@@QAE_NPAM0@Z ; CPythonMiniMap::GetAtlasSize

; 216  : 
; 217  : /*
; 218  : 	float fSizeXoo256 = fSizeX / 256.0f;
; 219  : 	float fSizeYoo256 = fSizeY / 256.0f;
; 220  : 
; 221  : 	if (fSizeXoo256 >= fSizeYoo256)
; 222  : 	{
; 223  : 		fSizeX /= fSizeYoo256;
; 224  : 		fSizeY = 256.0f;
; 225  : 	}
; 226  : 	else
; 227  : 	{
; 228  : 		fSizeX = 256.0f;
; 229  : 		fSizeY /= fSizeXoo256;
; 230  : 	}
; 231  : */
; 232  : 
; 233  : 	int iSizeX, iSizeY;
; 234  : 	PR_FLOAT_TO_INT(fSizeX, iSizeX);

  00019	f3 0f 10 45 fc	 movss	 xmm0, DWORD PTR _fSizeX$[ebp]
  0001e	8a d0		 mov	 dl, al
  00020	f3 0f 11 05 00
	00 00 00	 movss	 DWORD PTR ?PR_FCNV@@3MA, xmm0
  00028	d9 05 00 00 00
	00		 fld	 DWORD PTR ?PR_FCNV@@3MA	; PR_FCNV
  0002e	db 1d 00 00 00
	00		 fistp	 DWORD PTR ?PR_ICNV@@3JA
  00034	8b 0d 00 00 00
	00		 mov	 ecx, DWORD PTR ?PR_ICNV@@3JA ; PR_ICNV
  0003a	66 0f 6e c1	 movd	 xmm0, ecx
  0003e	0f 5b c0	 cvtdq2ps xmm0, xmm0
  00041	0f 2f 05 00 00
	00 00		 comiss	 xmm0, DWORD PTR ?PR_FCNV@@3MA
  00048	76 01		 jbe	 SHORT $LN3@miniMapGet
  0004a	49		 dec	 ecx
$LN3@miniMapGet:

; 235  : 	PR_FLOAT_TO_INT(fSizeY, iSizeY);

  0004b	f3 0f 10 45 f8	 movss	 xmm0, DWORD PTR _fSizeY$[ebp]
  00050	f3 0f 11 05 00
	00 00 00	 movss	 DWORD PTR ?PR_FCNV@@3MA, xmm0
  00058	d9 05 00 00 00
	00		 fld	 DWORD PTR ?PR_FCNV@@3MA	; PR_FCNV
  0005e	db 1d 00 00 00
	00		 fistp	 DWORD PTR ?PR_ICNV@@3JA
  00064	a1 00 00 00 00	 mov	 eax, DWORD PTR ?PR_ICNV@@3JA ; PR_ICNV
  00069	66 0f 6e c0	 movd	 xmm0, eax
  0006d	0f 5b c0	 cvtdq2ps xmm0, xmm0
  00070	0f 2f 05 00 00
	00 00		 comiss	 xmm0, DWORD PTR ?PR_FCNV@@3MA
  00077	76 01		 jbe	 SHORT $LN5@miniMapGet
  00079	48		 dec	 eax
$LN5@miniMapGet:

; 236  : 
; 237  : 	return Py_BuildValue("bii", (int)bGet, iSizeX, iSizeY);

  0007a	50		 push	 eax
  0007b	51		 push	 ecx
  0007c	0f b6 c2	 movzx	 eax, dl
  0007f	50		 push	 eax
  00080	68 00 00 00 00	 push	 OFFSET ??_C@_03LMKNDPCK@bii@
  00085	ff 15 00 00 00
	00		 call	 DWORD PTR __imp__Py_BuildValue
  0008b	83 c4 10	 add	 esp, 16			; 00000010H

; 238  : }

  0008e	8b e5		 mov	 esp, ebp
  00090	5d		 pop	 ebp
  00091	c3		 ret	 0
?miniMapGetAtlasSize@@YAPAU_object@@PAU1@0@Z ENDP	; miniMapGetAtlasSize
_TEXT	ENDS
; Function compile flags: /Ogtp
; File D:\Metin2 Server Files\mainline\SRC_2014\Metin2Client\UserInterface\PythonMiniMapModule.cpp
; File C:\Program Files (x86)\Microsoft Visual Studio\2019\Community\VC\Tools\MSVC\14.28.29333\include\xstring
; File D:\Metin2 Server Files\mainline\SRC_2014\Metin2Client\UserInterface\PythonMiniMapModule.cpp
; File C:\Program Files (x86)\Microsoft Visual Studio\2019\Community\VC\Tools\MSVC\14.28.29333\include\xstring
; File D:\Metin2 Server Files\mainline\SRC_2014\Metin2Client\UserInterface\PythonMiniMapModule.cpp
; File C:\Program Files (x86)\Microsoft Visual Studio\2019\Community\VC\Tools\MSVC\14.28.29333\include\xstring
; File D:\Metin2 Server Files\mainline\SRC_2014\Metin2Client\UserInterface\PythonMiniMapModule.cpp
; File C:\Program Files (x86)\Microsoft Visual Studio\2019\Community\VC\Tools\MSVC\14.28.29333\include\xstring
; File D:\Metin2 Server Files\mainline\SRC_2014\Metin2Client\UserInterface\PythonMiniMapModule.cpp
; File C:\Program Files (x86)\Microsoft Visual Studio\2019\Community\VC\Tools\MSVC\14.28.29333\include\xstring
; File D:\Metin2 Server Files\mainline\SRC_2014\Metin2Client\UserInterface\PythonMiniMapModule.cpp
; File C:\Program Files (x86)\Microsoft Visual Studio\2019\Community\VC\Tools\MSVC\14.28.29333\include\xstring
; File C:\Program Files (x86)\Microsoft Visual Studio\2019\Community\VC\Tools\MSVC\14.28.29333\include\xmemory
; File D:\Metin2 Server Files\mainline\SRC_2014\Metin2Client\UserInterface\PythonMiniMapModule.cpp
;	COMDAT ?miniMapGetAtlasInfo@@YAPAU_object@@PAU1@0@Z
_TEXT	SEGMENT
_fScrrenX$ = -64					; size = 4
_fScrrenY$ = -60					; size = 4
_dwTextColor$ = -56					; size = 4
_dwGuildID$ = -52					; size = 4
_fPosY$ = -48						; size = 4
_fPosX$ = -44						; size = 4
_aString$ = -40						; size = 24
__$ArrayPad$ = -16					; size = 4
__$EHRec$ = -12						; size = 12
_poSelf$ = 8						; size = 4
_poArgs$ = 12						; size = 4
?miniMapGetAtlasInfo@@YAPAU_object@@PAU1@0@Z PROC	; miniMapGetAtlasInfo, COMDAT

; 190  : {

  00000	55		 push	 ebp
  00001	8b ec		 mov	 ebp, esp
  00003	6a ff		 push	 -1
  00005	68 00 00 00 00	 push	 __ehhandler$?miniMapGetAtlasInfo@@YAPAU_object@@PAU1@0@Z
  0000a	64 a1 00 00 00
	00		 mov	 eax, DWORD PTR fs:0
  00010	50		 push	 eax
  00011	83 ec 34	 sub	 esp, 52			; 00000034H
  00014	a1 00 00 00 00	 mov	 eax, DWORD PTR ___security_cookie
  00019	33 c5		 xor	 eax, ebp
  0001b	89 45 f0	 mov	 DWORD PTR __$ArrayPad$[ebp], eax
  0001e	53		 push	 ebx
  0001f	56		 push	 esi
  00020	50		 push	 eax
  00021	8d 45 f4	 lea	 eax, DWORD PTR __$EHRec$[ebp]
  00024	64 a3 00 00 00
	00		 mov	 DWORD PTR fs:0, eax
  0002a	8b 75 0c	 mov	 esi, DWORD PTR _poArgs$[ebp]

; 191  : 	float fScrrenX;
; 192  : 	if (!PyTuple_GetFloat(poArgs, 0, &fScrrenX))

  0002d	8d 45 c0	 lea	 eax, DWORD PTR _fScrrenX$[ebp]
  00030	50		 push	 eax
  00031	6a 00		 push	 0
  00033	56		 push	 esi
  00034	e8 00 00 00 00	 call	 ?PyTuple_GetFloat@@YA_NPAU_object@@HPAM@Z ; PyTuple_GetFloat
  00039	83 c4 0c	 add	 esp, 12			; 0000000cH
  0003c	84 c0		 test	 al, al
  0003e	75 0f		 jne	 SHORT $LN2@miniMapGet
$LN77@miniMapGet:

; 210  : }

  00040	6a 00		 push	 0
  00042	e8 00 00 00 00	 call	 ?Py_BuildException@@YAPAU_object@@PBDZZ ; Py_BuildException
  00047	83 c4 04	 add	 esp, 4
  0004a	e9 42 01 00 00	 jmp	 $LN1@miniMapGet
$LN2@miniMapGet:

; 193  : 		return Py_BuildException();
; 194  : 	float fScrrenY;
; 195  : 	if (!PyTuple_GetFloat(poArgs, 1, &fScrrenY))

  0004f	8d 45 c4	 lea	 eax, DWORD PTR _fScrrenY$[ebp]
  00052	50		 push	 eax
  00053	6a 01		 push	 1
  00055	56		 push	 esi
  00056	e8 00 00 00 00	 call	 ?PyTuple_GetFloat@@YA_NPAU_object@@HPAM@Z ; PyTuple_GetFloat
  0005b	83 c4 0c	 add	 esp, 12			; 0000000cH
  0005e	84 c0		 test	 al, al
  00060	74 de		 je	 SHORT $LN77@miniMapGet
; File C:\Program Files (x86)\Microsoft Visual Studio\2019\Community\VC\Tools\MSVC\14.28.29333\include\xstring

; 4378 :         _Mypair._Myval2._Myres  = _BUF_SIZE - 1;

  00062	c7 45 ec 0f 00
	00 00		 mov	 DWORD PTR _aString$[ebp+20], 15 ; 0000000fH

; 3046 :             _Mypair._Myval2._Mysize = _Count;

  00069	c7 45 e8 00 00
	00 00		 mov	 DWORD PTR _aString$[ebp+16], 0

; 3047 :             _Traits::move(_Old_ptr, _Ptr, _Count);
; 3048 :             _Traits::assign(_Old_ptr[_Count], _Elem());

  00070	c6 45 d8 00	 mov	 BYTE PTR _aString$[ebp], 0
; File D:\Metin2 Server Files\mainline\SRC_2014\Metin2Client\UserInterface\PythonMiniMapModule.cpp

; 203  : 	bool bFind = CPythonMiniMap::Instance().GetAtlasInfo(fScrrenX, fScrrenY, aString, &fPosX, &fPosY, &dwTextColor, &dwGuildID);

  00074	f3 0f 10 45 c4	 movss	 xmm0, DWORD PTR _fScrrenY$[ebp]
  00079	8d 45 cc	 lea	 eax, DWORD PTR _dwGuildID$[ebp]
  0007c	8b 0d 00 00 00
	00		 mov	 ecx, DWORD PTR ?ms_singleton@?$CSingleton@VCPythonMiniMap@@@@0PAVCPythonMiniMap@@A ; CSingleton<CPythonMiniMap>::ms_singleton
  00082	50		 push	 eax
  00083	8d 45 c8	 lea	 eax, DWORD PTR _dwTextColor$[ebp]
  00086	c7 45 fc 00 00
	00 00		 mov	 DWORD PTR __$EHRec$[ebp+8], 0
  0008d	50		 push	 eax
  0008e	8d 45 d0	 lea	 eax, DWORD PTR _fPosY$[ebp]
  00091	c7 45 d4 00 00
	00 00		 mov	 DWORD PTR _fPosX$[ebp], 0
  00098	50		 push	 eax
  00099	8d 45 d4	 lea	 eax, DWORD PTR _fPosX$[ebp]
  0009c	c7 45 d0 00 00
	00 00		 mov	 DWORD PTR _fPosY$[ebp], 0
  000a3	50		 push	 eax
  000a4	8d 45 d8	 lea	 eax, DWORD PTR _aString$[ebp]
  000a7	c7 45 c8 00 00
	00 00		 mov	 DWORD PTR _dwTextColor$[ebp], 0
  000ae	50		 push	 eax
  000af	83 ec 08	 sub	 esp, 8
  000b2	c7 45 cc 00 00
	00 00		 mov	 DWORD PTR _dwGuildID$[ebp], 0
  000b9	f3 0f 11 44 24
	04		 movss	 DWORD PTR [esp+4], xmm0
  000bf	f3 0f 10 45 c0	 movss	 xmm0, DWORD PTR _fScrrenX$[ebp]
  000c4	f3 0f 11 04 24	 movss	 DWORD PTR [esp], xmm0
  000c9	e8 00 00 00 00	 call	 ?GetAtlasInfo@CPythonMiniMap@@QAE_NMMAAV?$basic_string@DU?$char_traits@D@std@@V?$allocator@D@2@@std@@PAM1PAK2@Z ; CPythonMiniMap::GetAtlasInfo

; 204  : 	int iPosX, iPosY;
; 205  : 	PR_FLOAT_TO_INT(fPosX, iPosX);

  000ce	f3 0f 10 45 d4	 movss	 xmm0, DWORD PTR _fPosX$[ebp]
  000d3	8a d8		 mov	 bl, al
  000d5	f3 0f 11 05 00
	00 00 00	 movss	 DWORD PTR ?PR_FCNV@@3MA, xmm0
  000dd	d9 05 00 00 00
	00		 fld	 DWORD PTR ?PR_FCNV@@3MA	; PR_FCNV
  000e3	db 1d 00 00 00
	00		 fistp	 DWORD PTR ?PR_ICNV@@3JA
  000e9	8b 15 00 00 00
	00		 mov	 edx, DWORD PTR ?PR_ICNV@@3JA ; PR_ICNV
  000ef	66 0f 6e c2	 movd	 xmm0, edx
  000f3	0f 5b c0	 cvtdq2ps xmm0, xmm0
  000f6	0f 2f 05 00 00
	00 00		 comiss	 xmm0, DWORD PTR ?PR_FCNV@@3MA
  000fd	76 01		 jbe	 SHORT $LN5@miniMapGet
  000ff	4a		 dec	 edx
$LN5@miniMapGet:

; 206  : 	PR_FLOAT_TO_INT(fPosY, iPosY);

  00100	f3 0f 10 45 d0	 movss	 xmm0, DWORD PTR _fPosY$[ebp]
  00105	f3 0f 11 05 00
	00 00 00	 movss	 DWORD PTR ?PR_FCNV@@3MA, xmm0
  0010d	d9 05 00 00 00
	00		 fld	 DWORD PTR ?PR_FCNV@@3MA	; PR_FCNV
  00113	db 1d 00 00 00
	00		 fistp	 DWORD PTR ?PR_ICNV@@3JA
  00119	8b 0d 00 00 00
	00		 mov	 ecx, DWORD PTR ?PR_ICNV@@3JA ; PR_ICNV
  0011f	66 0f 6e c1	 movd	 xmm0, ecx
  00123	0f 5b c0	 cvtdq2ps xmm0, xmm0
  00126	0f 2f 05 00 00
	00 00		 comiss	 xmm0, DWORD PTR ?PR_FCNV@@3MA
  0012d	76 01		 jbe	 SHORT $LN7@miniMapGet
  0012f	49		 dec	 ecx
$LN7@miniMapGet:

; 209  : 	return Py_BuildValue("isiili", (int)bFind, aString.c_str(), iPosX, iPosY, (signed) dwTextColor, dwGuildID);

  00130	ff 75 cc	 push	 DWORD PTR _dwGuildID$[ebp]
  00133	b8 1f 85 eb 51	 mov	 eax, 1374389535		; 51eb851fH
  00138	ff 75 c8	 push	 DWORD PTR _dwTextColor$[ebp]
  0013b	f7 ea		 imul	 edx
  0013d	b8 1f 85 eb 51	 mov	 eax, 1374389535		; 51eb851fH
  00142	c1 fa 05	 sar	 edx, 5
  00145	8b f2		 mov	 esi, edx
  00147	c1 ee 1f	 shr	 esi, 31			; 0000001fH
  0014a	03 f2		 add	 esi, edx
  0014c	f7 e9		 imul	 ecx
; File C:\Program Files (x86)\Microsoft Visual Studio\2019\Community\VC\Tools\MSVC\14.28.29333\include\xstring

; 2218 :         const value_type* _Result = _Bx._Buf;

  0014e	8d 45 d8	 lea	 eax, DWORD PTR _aString$[ebp]
; File D:\Metin2 Server Files\mainline\SRC_2014\Metin2Client\UserInterface\PythonMiniMapModule.cpp

; 208  : 	iPosY /= 100;

  00151	c1 fa 05	 sar	 edx, 5
  00154	8b ca		 mov	 ecx, edx
  00156	c1 e9 1f	 shr	 ecx, 31			; 0000001fH
  00159	03 ca		 add	 ecx, edx
; File C:\Program Files (x86)\Microsoft Visual Studio\2019\Community\VC\Tools\MSVC\14.28.29333\include\xstring

; 2227 :         return _BUF_SIZE <= _Myres;

  0015b	83 7d ec 10	 cmp	 DWORD PTR _aString$[ebp+20], 16 ; 00000010H
; File D:\Metin2 Server Files\mainline\SRC_2014\Metin2Client\UserInterface\PythonMiniMapModule.cpp

; 209  : 	return Py_BuildValue("isiili", (int)bFind, aString.c_str(), iPosX, iPosY, (signed) dwTextColor, dwGuildID);

  0015f	51		 push	 ecx
; File C:\Program Files (x86)\Microsoft Visual Studio\2019\Community\VC\Tools\MSVC\14.28.29333\include\xstring

; 2219 :         if (_Large_string_engaged()) {

  00160	0f 43 45 d8	 cmovae	 eax, DWORD PTR _aString$[ebp]
; File D:\Metin2 Server Files\mainline\SRC_2014\Metin2Client\UserInterface\PythonMiniMapModule.cpp

; 209  : 	return Py_BuildValue("isiili", (int)bFind, aString.c_str(), iPosX, iPosY, (signed) dwTextColor, dwGuildID);

  00164	56		 push	 esi
  00165	50		 push	 eax
  00166	0f b6 c3	 movzx	 eax, bl
  00169	50		 push	 eax
  0016a	68 00 00 00 00	 push	 OFFSET ??_C@_06NGPFBJMH@isiili@
  0016f	ff 15 00 00 00
	00		 call	 DWORD PTR __imp__Py_BuildValue
; File C:\Program Files (x86)\Microsoft Visual Studio\2019\Community\VC\Tools\MSVC\14.28.29333\include\xstring

; 2227 :         return _BUF_SIZE <= _Myres;

  00175	8b 4d ec	 mov	 ecx, DWORD PTR _aString$[ebp+20]
; File D:\Metin2 Server Files\mainline\SRC_2014\Metin2Client\UserInterface\PythonMiniMapModule.cpp

; 209  : 	return Py_BuildValue("isiili", (int)bFind, aString.c_str(), iPosX, iPosY, (signed) dwTextColor, dwGuildID);

  00178	83 c4 1c	 add	 esp, 28			; 0000001cH
  0017b	8b f0		 mov	 esi, eax
; File C:\Program Files (x86)\Microsoft Visual Studio\2019\Community\VC\Tools\MSVC\14.28.29333\include\xstring

; 2227 :         return _BUF_SIZE <= _Myres;

  0017d	83 f9 10	 cmp	 ecx, 16			; 00000010H

; 4385 :         if (_Mypair._Myval2._Large_string_engaged()) {

  00180	72 0d		 jb	 SHORT $LN70@miniMapGet

; 4386 :             const pointer _Ptr = _Mypair._Myval2._Bx._Ptr;
; 4387 :             auto& _Al          = _Getal();
; 4388 :             _Destroy_in_place(_Mypair._Myval2._Bx._Ptr);
; 4389 :             _Al.deallocate(_Ptr, _Mypair._Myval2._Myres + 1);

  00182	41		 inc	 ecx
; File C:\Program Files (x86)\Microsoft Visual Studio\2019\Community\VC\Tools\MSVC\14.28.29333\include\xmemory

; 810  :         _Deallocate<_New_alignof<_Ty>>(_Ptr, sizeof(_Ty) * _Count);

  00183	51		 push	 ecx
  00184	ff 75 d8	 push	 DWORD PTR _aString$[ebp]
  00187	e8 00 00 00 00	 call	 ??$_Deallocate@$07$0A@@std@@YAXPAXI@Z ; std::_Deallocate<8,0>
  0018c	83 c4 08	 add	 esp, 8
$LN70@miniMapGet:
; File D:\Metin2 Server Files\mainline\SRC_2014\Metin2Client\UserInterface\PythonMiniMapModule.cpp

; 209  : 	return Py_BuildValue("isiili", (int)bFind, aString.c_str(), iPosX, iPosY, (signed) dwTextColor, dwGuildID);

  0018f	8b c6		 mov	 eax, esi
$LN1@miniMapGet:

; 210  : }

  00191	8b 4d f4	 mov	 ecx, DWORD PTR __$EHRec$[ebp]
  00194	64 89 0d 00 00
	00 00		 mov	 DWORD PTR fs:0, ecx
  0019b	59		 pop	 ecx
  0019c	5e		 pop	 esi
  0019d	5b		 pop	 ebx
  0019e	8b 4d f0	 mov	 ecx, DWORD PTR __$ArrayPad$[ebp]
  001a1	33 cd		 xor	 ecx, ebp
  001a3	e8 00 00 00 00	 call	 @__security_check_cookie@4
  001a8	8b e5		 mov	 esp, ebp
  001aa	5d		 pop	 ebp
  001ab	c3		 ret	 0
_TEXT	ENDS
;	COMDAT text$x
text$x	SEGMENT
__unwindfunclet$?miniMapGetAtlasInfo@@YAPAU_object@@PAU1@0@Z$0:
  00000	8d 4d d8	 lea	 ecx, DWORD PTR _aString$[ebp]
  00003	e9 00 00 00 00	 jmp	 ??1?$basic_string@DU?$char_traits@D@std@@V?$allocator@D@2@@std@@QAE@XZ ; std::basic_string<char,std::char_traits<char>,std::allocator<char> >::~basic_string<char,std::char_traits<char>,std::allocator<char> >
  00008	cc		 int	 3
  00009	cc		 int	 3
  0000a	cc		 int	 3
  0000b	cc		 int	 3
  0000c	cc		 int	 3
__ehhandler$?miniMapGetAtlasInfo@@YAPAU_object@@PAU1@0@Z:
  0000d	90		 npad	 1
  0000e	90		 npad	 1
  0000f	8b 54 24 08	 mov	 edx, DWORD PTR [esp+8]
  00013	8d 42 0c	 lea	 eax, DWORD PTR [edx+12]
  00016	8b 4a c0	 mov	 ecx, DWORD PTR [edx-64]
  00019	33 c8		 xor	 ecx, eax
  0001b	e8 00 00 00 00	 call	 @__security_check_cookie@4
  00020	8b 4a fc	 mov	 ecx, DWORD PTR [edx-4]
  00023	33 c8		 xor	 ecx, eax
  00025	e8 00 00 00 00	 call	 @__security_check_cookie@4
  0002a	b8 00 00 00 00	 mov	 eax, OFFSET __ehfuncinfo$?miniMapGetAtlasInfo@@YAPAU_object@@PAU1@0@Z
  0002f	e9 00 00 00 00	 jmp	 ___CxxFrameHandler3
text$x	ENDS
?miniMapGetAtlasInfo@@YAPAU_object@@PAU1@0@Z ENDP	; miniMapGetAtlasInfo
; Function compile flags: /Ogtp
; File D:\Metin2 Server Files\mainline\SRC_2014\Metin2Client\UserInterface\PythonMiniMapModule.cpp
;	COMDAT ?miniMapIsAtlas@@YAPAU_object@@PAU1@0@Z
_TEXT	SEGMENT
_poSelf$ = 8						; size = 4
_poArgs$ = 12						; size = 4
?miniMapIsAtlas@@YAPAU_object@@PAU1@0@Z PROC		; miniMapIsAtlas, COMDAT

; 184  : 	bool isData = CPythonMiniMap::Instance().IsAtlas();

  00000	8b 0d 00 00 00
	00		 mov	 ecx, DWORD PTR ?ms_singleton@?$CSingleton@VCPythonMiniMap@@@@0PAVCPythonMiniMap@@A ; CSingleton<CPythonMiniMap>::ms_singleton
  00006	e8 00 00 00 00	 call	 ?IsAtlas@CPythonMiniMap@@QAE_NXZ ; CPythonMiniMap::IsAtlas

; 185  : 	return Py_BuildValue("b", isData);

  0000b	0f b6 c0	 movzx	 eax, al
  0000e	50		 push	 eax
  0000f	68 00 00 00 00	 push	 OFFSET ??_C@_01OJONOECF@b@
  00014	ff 15 00 00 00
	00		 call	 DWORD PTR __imp__Py_BuildValue
  0001a	83 c4 08	 add	 esp, 8

; 186  : }

  0001d	c3		 ret	 0
?miniMapIsAtlas@@YAPAU_object@@PAU1@0@Z ENDP		; miniMapIsAtlas
_TEXT	ENDS
; Function compile flags: /Ogtp
; File D:\Metin2 Server Files\mainline\SRC_2014\Metin2Client\UserInterface\PythonMiniMapModule.cpp
;	COMDAT ?miniMapisShowAtlas@@YAPAU_object@@PAU1@0@Z
_TEXT	SEGMENT
_poSelf$ = 8						; size = 4
_poArgs$ = 12						; size = 4
?miniMapisShowAtlas@@YAPAU_object@@PAU1@0@Z PROC	; miniMapisShowAtlas, COMDAT

; 178  : 	bool bShow = CPythonMiniMap::Instance().CanShowAtlas();

  00000	8b 0d 00 00 00
	00		 mov	 ecx, DWORD PTR ?ms_singleton@?$CSingleton@VCPythonMiniMap@@@@0PAVCPythonMiniMap@@A ; CSingleton<CPythonMiniMap>::ms_singleton
  00006	e8 00 00 00 00	 call	 ?CanShowAtlas@CPythonMiniMap@@QAE_NXZ ; CPythonMiniMap::CanShowAtlas

; 179  : 	return Py_BuildValue("b", bShow);

  0000b	0f b6 c0	 movzx	 eax, al
  0000e	50		 push	 eax
  0000f	68 00 00 00 00	 push	 OFFSET ??_C@_01OJONOECF@b@
  00014	ff 15 00 00 00
	00		 call	 DWORD PTR __imp__Py_BuildValue
  0001a	83 c4 08	 add	 esp, 8

; 180  : }

  0001d	c3		 ret	 0
?miniMapisShowAtlas@@YAPAU_object@@PAU1@0@Z ENDP	; miniMapisShowAtlas
_TEXT	ENDS
; Function compile flags: /Ogtp
; File D:\Metin2 Server Files\mainline\SRC_2014\Metin2Client\UserInterface\PythonMiniMapModule.cpp
;	COMDAT ?miniMapHideAtlas@@YAPAU_object@@PAU1@0@Z
_TEXT	SEGMENT
_poSelf$ = 8						; size = 4
_poArgs$ = 12						; size = 4
?miniMapHideAtlas@@YAPAU_object@@PAU1@0@Z PROC		; miniMapHideAtlas, COMDAT

; 172  : 	CPythonMiniMap::Instance().HideAtlas();

  00000	8b 0d 00 00 00
	00		 mov	 ecx, DWORD PTR ?ms_singleton@?$CSingleton@VCPythonMiniMap@@@@0PAVCPythonMiniMap@@A ; CSingleton<CPythonMiniMap>::ms_singleton
  00006	e8 00 00 00 00	 call	 ?HideAtlas@CPythonMiniMap@@QAEXXZ ; CPythonMiniMap::HideAtlas

; 173  : 	return Py_BuildNone();

  0000b	e9 00 00 00 00	 jmp	 ?Py_BuildNone@@YAPAU_object@@XZ ; Py_BuildNone
?miniMapHideAtlas@@YAPAU_object@@PAU1@0@Z ENDP		; miniMapHideAtlas
_TEXT	ENDS
; Function compile flags: /Ogtp
; File D:\Metin2 Server Files\mainline\SRC_2014\Metin2Client\UserInterface\PythonMiniMapModule.cpp
;	COMDAT ?miniMapShowAtlas@@YAPAU_object@@PAU1@0@Z
_TEXT	SEGMENT
_poSelf$ = 8						; size = 4
_poArgs$ = 12						; size = 4
?miniMapShowAtlas@@YAPAU_object@@PAU1@0@Z PROC		; miniMapShowAtlas, COMDAT

; 166  : 	CPythonMiniMap::Instance().ShowAtlas();

  00000	8b 0d 00 00 00
	00		 mov	 ecx, DWORD PTR ?ms_singleton@?$CSingleton@VCPythonMiniMap@@@@0PAVCPythonMiniMap@@A ; CSingleton<CPythonMiniMap>::ms_singleton
  00006	e8 00 00 00 00	 call	 ?ShowAtlas@CPythonMiniMap@@QAEXXZ ; CPythonMiniMap::ShowAtlas

; 167  : 	return Py_BuildNone();

  0000b	e9 00 00 00 00	 jmp	 ?Py_BuildNone@@YAPAU_object@@XZ ; Py_BuildNone
?miniMapShowAtlas@@YAPAU_object@@PAU1@0@Z ENDP		; miniMapShowAtlas
_TEXT	ENDS
; Function compile flags: /Ogtp
; File D:\Metin2 Server Files\mainline\SRC_2014\Metin2Client\UserInterface\PythonMiniMapModule.cpp
;	COMDAT ?miniMapRenderAtlas@@YAPAU_object@@PAU1@0@Z
_TEXT	SEGMENT
_fScrrenX$ = -8						; size = 4
_fScrrenY$ = -4						; size = 4
_poSelf$ = 8						; size = 4
_poArgs$ = 12						; size = 4
?miniMapRenderAtlas@@YAPAU_object@@PAU1@0@Z PROC	; miniMapRenderAtlas, COMDAT

; 151  : {

  00000	55		 push	 ebp
  00001	8b ec		 mov	 ebp, esp
  00003	83 ec 08	 sub	 esp, 8

; 152  : 	float fScrrenX;
; 153  : 	if (!PyTuple_GetFloat(poArgs, 0, &fScrrenX))

  00006	8d 45 f8	 lea	 eax, DWORD PTR _fScrrenX$[ebp]
  00009	50		 push	 eax
  0000a	6a 00		 push	 0
  0000c	ff 75 0c	 push	 DWORD PTR _poArgs$[ebp]
  0000f	e8 00 00 00 00	 call	 ?PyTuple_GetFloat@@YA_NPAU_object@@HPAM@Z ; PyTuple_GetFloat
  00014	83 c4 0c	 add	 esp, 12			; 0000000cH
  00017	84 c0		 test	 al, al
  00019	75 0e		 jne	 SHORT $LN2@miniMapRen
$LN5@miniMapRen:

; 162  : }

  0001b	6a 00		 push	 0
  0001d	e8 00 00 00 00	 call	 ?Py_BuildException@@YAPAU_object@@PBDZZ ; Py_BuildException
  00022	83 c4 04	 add	 esp, 4
  00025	8b e5		 mov	 esp, ebp
  00027	5d		 pop	 ebp
  00028	c3		 ret	 0
$LN2@miniMapRen:

; 154  : 		return Py_BuildException();
; 155  : 	
; 156  : 	float fScrrenY;
; 157  : 	if (!PyTuple_GetFloat(poArgs, 1, &fScrrenY))

  00029	8d 45 fc	 lea	 eax, DWORD PTR _fScrrenY$[ebp]
  0002c	50		 push	 eax
  0002d	6a 01		 push	 1
  0002f	ff 75 0c	 push	 DWORD PTR _poArgs$[ebp]
  00032	e8 00 00 00 00	 call	 ?PyTuple_GetFloat@@YA_NPAU_object@@HPAM@Z ; PyTuple_GetFloat
  00037	83 c4 0c	 add	 esp, 12			; 0000000cH
  0003a	84 c0		 test	 al, al
  0003c	74 dd		 je	 SHORT $LN5@miniMapRen

; 158  : 		return Py_BuildException();
; 159  : 	
; 160  : 	CPythonMiniMap::Instance().RenderAtlas(fScrrenX, fScrrenY);

  0003e	f3 0f 10 45 fc	 movss	 xmm0, DWORD PTR _fScrrenY$[ebp]
  00043	83 ec 08	 sub	 esp, 8
  00046	8b 0d 00 00 00
	00		 mov	 ecx, DWORD PTR ?ms_singleton@?$CSingleton@VCPythonMiniMap@@@@0PAVCPythonMiniMap@@A ; CSingleton<CPythonMiniMap>::ms_singleton
  0004c	f3 0f 11 44 24
	04		 movss	 DWORD PTR [esp+4], xmm0
  00052	f3 0f 10 45 f8	 movss	 xmm0, DWORD PTR _fScrrenX$[ebp]
  00057	f3 0f 11 04 24	 movss	 DWORD PTR [esp], xmm0
  0005c	e8 00 00 00 00	 call	 ?RenderAtlas@CPythonMiniMap@@QAEXMM@Z ; CPythonMiniMap::RenderAtlas

; 161  : 	return Py_BuildNone();

  00061	e8 00 00 00 00	 call	 ?Py_BuildNone@@YAPAU_object@@XZ ; Py_BuildNone

; 162  : }

  00066	8b e5		 mov	 esp, ebp
  00068	5d		 pop	 ebp
  00069	c3		 ret	 0
?miniMapRenderAtlas@@YAPAU_object@@PAU1@0@Z ENDP	; miniMapRenderAtlas
_TEXT	ENDS
; Function compile flags: /Ogtp
; File D:\Metin2 Server Files\mainline\SRC_2014\Metin2Client\UserInterface\PythonMiniMapModule.cpp
;	COMDAT ?miniMapUpdateAtlas@@YAPAU_object@@PAU1@0@Z
_TEXT	SEGMENT
_poSelf$ = 8						; size = 4
_poArgs$ = 12						; size = 4
?miniMapUpdateAtlas@@YAPAU_object@@PAU1@0@Z PROC	; miniMapUpdateAtlas, COMDAT

; 146  : 	CPythonMiniMap::Instance().UpdateAtlas();

  00000	8b 0d 00 00 00
	00		 mov	 ecx, DWORD PTR ?ms_singleton@?$CSingleton@VCPythonMiniMap@@@@0PAVCPythonMiniMap@@A ; CSingleton<CPythonMiniMap>::ms_singleton
  00006	e8 00 00 00 00	 call	 ?UpdateAtlas@CPythonMiniMap@@QAEXXZ ; CPythonMiniMap::UpdateAtlas

; 147  : 	return Py_BuildNone();

  0000b	e9 00 00 00 00	 jmp	 ?Py_BuildNone@@YAPAU_object@@XZ ; Py_BuildNone
?miniMapUpdateAtlas@@YAPAU_object@@PAU1@0@Z ENDP	; miniMapUpdateAtlas
_TEXT	ENDS
; Function compile flags: /Ogtp
; File D:\Metin2 Server Files\mainline\SRC_2014\Metin2Client\UserInterface\PythonMiniMapModule.cpp
;	COMDAT ?miniMapLoadAtlas@@YAPAU_object@@PAU1@0@Z
_TEXT	SEGMENT
_poSelf$ = 8						; size = 4
_poArgs$ = 12						; size = 4
?miniMapLoadAtlas@@YAPAU_object@@PAU1@0@Z PROC		; miniMapLoadAtlas, COMDAT

; 139  : 	if (!CPythonMiniMap::Instance().LoadAtlas())

  00000	8b 0d 00 00 00
	00		 mov	 ecx, DWORD PTR ?ms_singleton@?$CSingleton@VCPythonMiniMap@@@@0PAVCPythonMiniMap@@A ; CSingleton<CPythonMiniMap>::ms_singleton
  00006	e8 00 00 00 00	 call	 ?LoadAtlas@CPythonMiniMap@@QAE_NXZ ; CPythonMiniMap::LoadAtlas
  0000b	84 c0		 test	 al, al
  0000d	75 0d		 jne	 SHORT $LN2@miniMapLoa

; 140  : 		TraceError("CPythonMiniMap::Instance().LoadAtlas() Failed");

  0000f	68 00 00 00 00	 push	 OFFSET ??_C@_0CO@JOBACLFH@CPythonMiniMap?3?3Instance?$CI?$CJ?4Load@
  00014	e8 00 00 00 00	 call	 ?TraceError@@YAXPBDZZ	; TraceError
  00019	83 c4 04	 add	 esp, 4
$LN2@miniMapLoa:

; 141  : 	return Py_BuildNone();

  0001c	e9 00 00 00 00	 jmp	 ?Py_BuildNone@@YAPAU_object@@XZ ; Py_BuildNone
?miniMapLoadAtlas@@YAPAU_object@@PAU1@0@Z ENDP		; miniMapLoadAtlas
_TEXT	ENDS
; Function compile flags: /Ogtp
; File D:\Metin2 Server Files\mainline\SRC_2014\Metin2Client\UserInterface\PythonMiniMapModule.cpp
; File C:\Program Files (x86)\Microsoft Visual Studio\2019\Community\VC\Tools\MSVC\14.28.29333\include\xstring
; File D:\Metin2 Server Files\mainline\SRC_2014\Metin2Client\UserInterface\PythonMiniMapModule.cpp
; File C:\Program Files (x86)\Microsoft Visual Studio\2019\Community\VC\Tools\MSVC\14.28.29333\include\xstring
; File D:\Metin2 Server Files\mainline\SRC_2014\Metin2Client\UserInterface\PythonMiniMapModule.cpp
; File C:\Program Files (x86)\Microsoft Visual Studio\2019\Community\VC\Tools\MSVC\14.28.29333\include\xstring
; File D:\Metin2 Server Files\mainline\SRC_2014\Metin2Client\UserInterface\PythonMiniMapModule.cpp
; File C:\Program Files (x86)\Microsoft Visual Studio\2019\Community\VC\Tools\MSVC\14.28.29333\include\xstring
; File D:\Metin2 Server Files\mainline\SRC_2014\Metin2Client\UserInterface\PythonMiniMapModule.cpp
; File C:\Program Files (x86)\Microsoft Visual Studio\2019\Community\VC\Tools\MSVC\14.28.29333\include\xstring
; File D:\Metin2 Server Files\mainline\SRC_2014\Metin2Client\UserInterface\PythonMiniMapModule.cpp
; File C:\Program Files (x86)\Microsoft Visual Studio\2019\Community\VC\Tools\MSVC\14.28.29333\include\xstring
; File C:\Program Files (x86)\Microsoft Visual Studio\2019\Community\VC\Tools\MSVC\14.28.29333\include\xmemory
; File D:\Metin2 Server Files\mainline\SRC_2014\Metin2Client\UserInterface\PythonMiniMapModule.cpp
;	COMDAT ?miniMapGetInfo@@YAPAU_object@@PAU1@0@Z
_TEXT	SEGMENT
_dwTextColor$ = -60					; size = 4
_fPosY$ = -56						; size = 4
_fPosX$ = -52						; size = 4
_fScrrenX$ = -48					; size = 4
_fScrrenY$ = -44					; size = 4
_aString$ = -40						; size = 24
__$ArrayPad$ = -16					; size = 4
__$EHRec$ = -12						; size = 12
_poSelf$ = 8						; size = 4
_poArgs$ = 12						; size = 4
?miniMapGetInfo@@YAPAU_object@@PAU1@0@Z PROC		; miniMapGetInfo, COMDAT

; 114  : {

  00000	55		 push	 ebp
  00001	8b ec		 mov	 ebp, esp
  00003	6a ff		 push	 -1
  00005	68 00 00 00 00	 push	 __ehhandler$?miniMapGetInfo@@YAPAU_object@@PAU1@0@Z
  0000a	64 a1 00 00 00
	00		 mov	 eax, DWORD PTR fs:0
  00010	50		 push	 eax
  00011	83 ec 30	 sub	 esp, 48			; 00000030H
  00014	a1 00 00 00 00	 mov	 eax, DWORD PTR ___security_cookie
  00019	33 c5		 xor	 eax, ebp
  0001b	89 45 f0	 mov	 DWORD PTR __$ArrayPad$[ebp], eax
  0001e	53		 push	 ebx
  0001f	56		 push	 esi
  00020	50		 push	 eax
  00021	8d 45 f4	 lea	 eax, DWORD PTR __$EHRec$[ebp]
  00024	64 a3 00 00 00
	00		 mov	 DWORD PTR fs:0, eax
  0002a	8b 75 0c	 mov	 esi, DWORD PTR _poArgs$[ebp]

; 115  : 	float fScrrenX;
; 116  : 	if (!PyTuple_GetFloat(poArgs, 0, &fScrrenX))

  0002d	8d 45 d0	 lea	 eax, DWORD PTR _fScrrenX$[ebp]
  00030	50		 push	 eax
  00031	6a 00		 push	 0
  00033	56		 push	 esi
  00034	e8 00 00 00 00	 call	 ?PyTuple_GetFloat@@YA_NPAU_object@@HPAM@Z ; PyTuple_GetFloat
  00039	83 c4 0c	 add	 esp, 12			; 0000000cH
  0003c	84 c0		 test	 al, al
  0003e	75 0f		 jne	 SHORT $LN2@miniMapGet
$LN39@miniMapGet:

; 133  : }

  00040	6a 00		 push	 0
  00042	e8 00 00 00 00	 call	 ?Py_BuildException@@YAPAU_object@@PBDZZ ; Py_BuildException
  00047	83 c4 04	 add	 esp, 4
  0004a	e9 1f 01 00 00	 jmp	 $LN1@miniMapGet
$LN2@miniMapGet:

; 117  : 		return Py_BuildException();
; 118  : 	
; 119  : 	float fScrrenY;
; 120  : 	if (!PyTuple_GetFloat(poArgs, 1, &fScrrenY))

  0004f	8d 45 d4	 lea	 eax, DWORD PTR _fScrrenY$[ebp]
  00052	50		 push	 eax
  00053	6a 01		 push	 1
  00055	56		 push	 esi
  00056	e8 00 00 00 00	 call	 ?PyTuple_GetFloat@@YA_NPAU_object@@HPAM@Z ; PyTuple_GetFloat
  0005b	83 c4 0c	 add	 esp, 12			; 0000000cH
  0005e	84 c0		 test	 al, al
  00060	74 de		 je	 SHORT $LN39@miniMapGet
; File C:\Program Files (x86)\Microsoft Visual Studio\2019\Community\VC\Tools\MSVC\14.28.29333\include\xstring

; 4377 :         _Mypair._Myval2._Mysize = 0;

  00062	c7 45 e8 00 00
	00 00		 mov	 DWORD PTR _aString$[ebp+16], 0

; 4378 :         _Mypair._Myval2._Myres  = _BUF_SIZE - 1;

  00069	c7 45 ec 0f 00
	00 00		 mov	 DWORD PTR _aString$[ebp+20], 15 ; 0000000fH

; 4379 :         // the _Traits::assign is last so the codegen doesn't think the char write can alias this
; 4380 :         _Traits::assign(_Mypair._Myval2._Bx._Buf[0], _Elem());

  00070	c6 45 d8 00	 mov	 BYTE PTR _aString$[ebp], 0
; File D:\Metin2 Server Files\mainline\SRC_2014\Metin2Client\UserInterface\PythonMiniMapModule.cpp

; 126  : 	bool bFind = CPythonMiniMap::Instance().GetPickedInstanceInfo(fScrrenX, fScrrenY, aString, &fPosX, &fPosY, &dwTextColor);

  00074	f3 0f 10 45 d4	 movss	 xmm0, DWORD PTR _fScrrenY$[ebp]
  00079	8d 45 c4	 lea	 eax, DWORD PTR _dwTextColor$[ebp]
  0007c	8b 0d 00 00 00
	00		 mov	 ecx, DWORD PTR ?ms_singleton@?$CSingleton@VCPythonMiniMap@@@@0PAVCPythonMiniMap@@A ; CSingleton<CPythonMiniMap>::ms_singleton
  00082	50		 push	 eax
  00083	8d 45 c8	 lea	 eax, DWORD PTR _fPosY$[ebp]
  00086	c7 45 fc 00 00
	00 00		 mov	 DWORD PTR __$EHRec$[ebp+8], 0
  0008d	50		 push	 eax
  0008e	8d 45 cc	 lea	 eax, DWORD PTR _fPosX$[ebp]
  00091	50		 push	 eax
  00092	8d 45 d8	 lea	 eax, DWORD PTR _aString$[ebp]
  00095	50		 push	 eax
  00096	83 ec 08	 sub	 esp, 8
  00099	f3 0f 11 44 24
	04		 movss	 DWORD PTR [esp+4], xmm0
  0009f	f3 0f 10 45 d0	 movss	 xmm0, DWORD PTR _fScrrenX$[ebp]
  000a4	f3 0f 11 04 24	 movss	 DWORD PTR [esp], xmm0
  000a9	e8 00 00 00 00	 call	 ?GetPickedInstanceInfo@CPythonMiniMap@@QAE_NMMAAV?$basic_string@DU?$char_traits@D@std@@V?$allocator@D@2@@std@@PAM1PAK@Z ; CPythonMiniMap::GetPickedInstanceInfo

; 127  : 	int iPosX, iPosY;
; 128  : 	PR_FLOAT_TO_INT(fPosX, iPosX);

  000ae	f3 0f 10 45 cc	 movss	 xmm0, DWORD PTR _fPosX$[ebp]
  000b3	8a d8		 mov	 bl, al
  000b5	f3 0f 11 05 00
	00 00 00	 movss	 DWORD PTR ?PR_FCNV@@3MA, xmm0
  000bd	d9 05 00 00 00
	00		 fld	 DWORD PTR ?PR_FCNV@@3MA	; PR_FCNV
  000c3	db 1d 00 00 00
	00		 fistp	 DWORD PTR ?PR_ICNV@@3JA
  000c9	8b 15 00 00 00
	00		 mov	 edx, DWORD PTR ?PR_ICNV@@3JA ; PR_ICNV
  000cf	66 0f 6e c2	 movd	 xmm0, edx
  000d3	0f 5b c0	 cvtdq2ps xmm0, xmm0
  000d6	0f 2f 05 00 00
	00 00		 comiss	 xmm0, DWORD PTR ?PR_FCNV@@3MA
  000dd	76 01		 jbe	 SHORT $LN5@miniMapGet
  000df	4a		 dec	 edx
$LN5@miniMapGet:

; 129  : 	PR_FLOAT_TO_INT(fPosY, iPosY);

  000e0	f3 0f 10 45 c8	 movss	 xmm0, DWORD PTR _fPosY$[ebp]
  000e5	f3 0f 11 05 00
	00 00 00	 movss	 DWORD PTR ?PR_FCNV@@3MA, xmm0
  000ed	d9 05 00 00 00
	00		 fld	 DWORD PTR ?PR_FCNV@@3MA	; PR_FCNV
  000f3	db 1d 00 00 00
	00		 fistp	 DWORD PTR ?PR_ICNV@@3JA
  000f9	8b 0d 00 00 00
	00		 mov	 ecx, DWORD PTR ?PR_ICNV@@3JA ; PR_ICNV
  000ff	66 0f 6e c1	 movd	 xmm0, ecx
  00103	0f 5b c0	 cvtdq2ps xmm0, xmm0
  00106	0f 2f 05 00 00
	00 00		 comiss	 xmm0, DWORD PTR ?PR_FCNV@@3MA
  0010d	76 01		 jbe	 SHORT $LN7@miniMapGet
  0010f	49		 dec	 ecx
$LN7@miniMapGet:

; 132  : 	return Py_BuildValue("isiil", (int)bFind, aString.c_str(), iPosX, iPosY, (signed) dwTextColor);

  00110	ff 75 c4	 push	 DWORD PTR _dwTextColor$[ebp]
  00113	b8 1f 85 eb 51	 mov	 eax, 1374389535		; 51eb851fH
  00118	f7 ea		 imul	 edx
  0011a	b8 1f 85 eb 51	 mov	 eax, 1374389535		; 51eb851fH
  0011f	c1 fa 05	 sar	 edx, 5
  00122	8b f2		 mov	 esi, edx
  00124	c1 ee 1f	 shr	 esi, 31			; 0000001fH
  00127	03 f2		 add	 esi, edx
  00129	f7 e9		 imul	 ecx
; File C:\Program Files (x86)\Microsoft Visual Studio\2019\Community\VC\Tools\MSVC\14.28.29333\include\xstring

; 2218 :         const value_type* _Result = _Bx._Buf;

  0012b	8d 45 d8	 lea	 eax, DWORD PTR _aString$[ebp]
; File D:\Metin2 Server Files\mainline\SRC_2014\Metin2Client\UserInterface\PythonMiniMapModule.cpp

; 131  : 	iPosY /= 100;

  0012e	c1 fa 05	 sar	 edx, 5
  00131	8b ca		 mov	 ecx, edx
  00133	c1 e9 1f	 shr	 ecx, 31			; 0000001fH
  00136	03 ca		 add	 ecx, edx
; File C:\Program Files (x86)\Microsoft Visual Studio\2019\Community\VC\Tools\MSVC\14.28.29333\include\xstring

; 2227 :         return _BUF_SIZE <= _Myres;

  00138	83 7d ec 10	 cmp	 DWORD PTR _aString$[ebp+20], 16 ; 00000010H
; File D:\Metin2 Server Files\mainline\SRC_2014\Metin2Client\UserInterface\PythonMiniMapModule.cpp

; 132  : 	return Py_BuildValue("isiil", (int)bFind, aString.c_str(), iPosX, iPosY, (signed) dwTextColor);

  0013c	51		 push	 ecx
; File C:\Program Files (x86)\Microsoft Visual Studio\2019\Community\VC\Tools\MSVC\14.28.29333\include\xstring

; 2219 :         if (_Large_string_engaged()) {

  0013d	0f 43 45 d8	 cmovae	 eax, DWORD PTR _aString$[ebp]
; File D:\Metin2 Server Files\mainline\SRC_2014\Metin2Client\UserInterface\PythonMiniMapModule.cpp

; 132  : 	return Py_BuildValue("isiil", (int)bFind, aString.c_str(), iPosX, iPosY, (signed) dwTextColor);

  00141	56		 push	 esi
  00142	50		 push	 eax
  00143	0f b6 c3	 movzx	 eax, bl
  00146	50		 push	 eax
  00147	68 00 00 00 00	 push	 OFFSET ??_C@_05BHNEPGFM@isiil@
  0014c	ff 15 00 00 00
	00		 call	 DWORD PTR __imp__Py_BuildValue
; File C:\Program Files (x86)\Microsoft Visual Studio\2019\Community\VC\Tools\MSVC\14.28.29333\include\xstring

; 2227 :         return _BUF_SIZE <= _Myres;

  00152	8b 4d ec	 mov	 ecx, DWORD PTR _aString$[ebp+20]
; File D:\Metin2 Server Files\mainline\SRC_2014\Metin2Client\UserInterface\PythonMiniMapModule.cpp

; 132  : 	return Py_BuildValue("isiil", (int)bFind, aString.c_str(), iPosX, iPosY, (signed) dwTextColor);

  00155	83 c4 18	 add	 esp, 24			; 00000018H
  00158	8b f0		 mov	 esi, eax
; File C:\Program Files (x86)\Microsoft Visual Studio\2019\Community\VC\Tools\MSVC\14.28.29333\include\xstring

; 2227 :         return _BUF_SIZE <= _Myres;

  0015a	83 f9 10	 cmp	 ecx, 16			; 00000010H

; 4385 :         if (_Mypair._Myval2._Large_string_engaged()) {

  0015d	72 0d		 jb	 SHORT $LN32@miniMapGet

; 4386 :             const pointer _Ptr = _Mypair._Myval2._Bx._Ptr;
; 4387 :             auto& _Al          = _Getal();
; 4388 :             _Destroy_in_place(_Mypair._Myval2._Bx._Ptr);
; 4389 :             _Al.deallocate(_Ptr, _Mypair._Myval2._Myres + 1);

  0015f	41		 inc	 ecx
; File C:\Program Files (x86)\Microsoft Visual Studio\2019\Community\VC\Tools\MSVC\14.28.29333\include\xmemory

; 810  :         _Deallocate<_New_alignof<_Ty>>(_Ptr, sizeof(_Ty) * _Count);

  00160	51		 push	 ecx
  00161	ff 75 d8	 push	 DWORD PTR _aString$[ebp]
  00164	e8 00 00 00 00	 call	 ??$_Deallocate@$07$0A@@std@@YAXPAXI@Z ; std::_Deallocate<8,0>
  00169	83 c4 08	 add	 esp, 8
$LN32@miniMapGet:
; File D:\Metin2 Server Files\mainline\SRC_2014\Metin2Client\UserInterface\PythonMiniMapModule.cpp

; 132  : 	return Py_BuildValue("isiil", (int)bFind, aString.c_str(), iPosX, iPosY, (signed) dwTextColor);

  0016c	8b c6		 mov	 eax, esi
$LN1@miniMapGet:

; 133  : }

  0016e	8b 4d f4	 mov	 ecx, DWORD PTR __$EHRec$[ebp]
  00171	64 89 0d 00 00
	00 00		 mov	 DWORD PTR fs:0, ecx
  00178	59		 pop	 ecx
  00179	5e		 pop	 esi
  0017a	5b		 pop	 ebx
  0017b	8b 4d f0	 mov	 ecx, DWORD PTR __$ArrayPad$[ebp]
  0017e	33 cd		 xor	 ecx, ebp
  00180	e8 00 00 00 00	 call	 @__security_check_cookie@4
  00185	8b e5		 mov	 esp, ebp
  00187	5d		 pop	 ebp
  00188	c3		 ret	 0
_TEXT	ENDS
;	COMDAT text$x
text$x	SEGMENT
__unwindfunclet$?miniMapGetInfo@@YAPAU_object@@PAU1@0@Z$0:
  00000	8d 4d d8	 lea	 ecx, DWORD PTR _aString$[ebp]
  00003	e9 00 00 00 00	 jmp	 ??1?$basic_string@DU?$char_traits@D@std@@V?$allocator@D@2@@std@@QAE@XZ ; std::basic_string<char,std::char_traits<char>,std::allocator<char> >::~basic_string<char,std::char_traits<char>,std::allocator<char> >
  00008	cc		 int	 3
  00009	cc		 int	 3
  0000a	cc		 int	 3
  0000b	cc		 int	 3
  0000c	cc		 int	 3
__ehhandler$?miniMapGetInfo@@YAPAU_object@@PAU1@0@Z:
  0000d	90		 npad	 1
  0000e	90		 npad	 1
  0000f	8b 54 24 08	 mov	 edx, DWORD PTR [esp+8]
  00013	8d 42 0c	 lea	 eax, DWORD PTR [edx+12]
  00016	8b 4a c4	 mov	 ecx, DWORD PTR [edx-60]
  00019	33 c8		 xor	 ecx, eax
  0001b	e8 00 00 00 00	 call	 @__security_check_cookie@4
  00020	8b 4a fc	 mov	 ecx, DWORD PTR [edx-4]
  00023	33 c8		 xor	 ecx, eax
  00025	e8 00 00 00 00	 call	 @__security_check_cookie@4
  0002a	b8 00 00 00 00	 mov	 eax, OFFSET __ehfuncinfo$?miniMapGetInfo@@YAPAU_object@@PAU1@0@Z
  0002f	e9 00 00 00 00	 jmp	 ___CxxFrameHandler3
text$x	ENDS
?miniMapGetInfo@@YAPAU_object@@PAU1@0@Z ENDP		; miniMapGetInfo
; Function compile flags: /Ogtp
; File D:\Metin2 Server Files\mainline\SRC_2014\Metin2Client\UserInterface\PythonMiniMapModule.cpp
;	COMDAT ?miniMapScaleDown@@YAPAU_object@@PAU1@0@Z
_TEXT	SEGMENT
_poSelf$ = 8						; size = 4
_poArgs$ = 12						; size = 4
?miniMapScaleDown@@YAPAU_object@@PAU1@0@Z PROC		; miniMapScaleDown, COMDAT

; 109  : 	CPythonMiniMap::Instance().ScaleDown();

  00000	8b 0d 00 00 00
	00		 mov	 ecx, DWORD PTR ?ms_singleton@?$CSingleton@VCPythonMiniMap@@@@0PAVCPythonMiniMap@@A ; CSingleton<CPythonMiniMap>::ms_singleton
  00006	e8 00 00 00 00	 call	 ?ScaleDown@CPythonMiniMap@@QAEXXZ ; CPythonMiniMap::ScaleDown

; 110  : 	return Py_BuildNone();

  0000b	e9 00 00 00 00	 jmp	 ?Py_BuildNone@@YAPAU_object@@XZ ; Py_BuildNone
?miniMapScaleDown@@YAPAU_object@@PAU1@0@Z ENDP		; miniMapScaleDown
_TEXT	ENDS
; Function compile flags: /Ogtp
; File D:\Metin2 Server Files\mainline\SRC_2014\Metin2Client\UserInterface\PythonMiniMapModule.cpp
;	COMDAT ?miniMapScaleUp@@YAPAU_object@@PAU1@0@Z
_TEXT	SEGMENT
_poSelf$ = 8						; size = 4
_poArgs$ = 12						; size = 4
?miniMapScaleUp@@YAPAU_object@@PAU1@0@Z PROC		; miniMapScaleUp, COMDAT

; 103  : 	CPythonMiniMap::Instance().ScaleUp();

  00000	8b 0d 00 00 00
	00		 mov	 ecx, DWORD PTR ?ms_singleton@?$CSingleton@VCPythonMiniMap@@@@0PAVCPythonMiniMap@@A ; CSingleton<CPythonMiniMap>::ms_singleton
  00006	e8 00 00 00 00	 call	 ?ScaleUp@CPythonMiniMap@@QAEXXZ ; CPythonMiniMap::ScaleUp

; 104  : 	return Py_BuildNone();

  0000b	e9 00 00 00 00	 jmp	 ?Py_BuildNone@@YAPAU_object@@XZ ; Py_BuildNone
?miniMapScaleUp@@YAPAU_object@@PAU1@0@Z ENDP		; miniMapScaleUp
_TEXT	ENDS
; Function compile flags: /Ogtp
; File D:\Metin2 Server Files\mainline\SRC_2014\Metin2Client\UserInterface\PythonMiniMapModule.cpp
;	COMDAT ?miniMapisShow@@YAPAU_object@@PAU1@0@Z
_TEXT	SEGMENT
_poSelf$ = 8						; size = 4
_poArgs$ = 12						; size = 4
?miniMapisShow@@YAPAU_object@@PAU1@0@Z PROC		; miniMapisShow, COMDAT

; 97   : 	bool bShow = CPythonMiniMap::Instance().CanShow();

  00000	8b 0d 00 00 00
	00		 mov	 ecx, DWORD PTR ?ms_singleton@?$CSingleton@VCPythonMiniMap@@@@0PAVCPythonMiniMap@@A ; CSingleton<CPythonMiniMap>::ms_singleton
  00006	e8 00 00 00 00	 call	 ?CanShow@CPythonMiniMap@@QAE_NXZ ; CPythonMiniMap::CanShow

; 98   : 	return Py_BuildValue("b", bShow);

  0000b	0f b6 c0	 movzx	 eax, al
  0000e	50		 push	 eax
  0000f	68 00 00 00 00	 push	 OFFSET ??_C@_01OJONOECF@b@
  00014	ff 15 00 00 00
	00		 call	 DWORD PTR __imp__Py_BuildValue
  0001a	83 c4 08	 add	 esp, 8

; 99   : }

  0001d	c3		 ret	 0
?miniMapisShow@@YAPAU_object@@PAU1@0@Z ENDP		; miniMapisShow
_TEXT	ENDS
; Function compile flags: /Ogtp
; File D:\Metin2 Server Files\mainline\SRC_2014\Metin2Client\UserInterface\PythonMiniMapModule.cpp
;	COMDAT ?miniMapHide@@YAPAU_object@@PAU1@0@Z
_TEXT	SEGMENT
_poSelf$ = 8						; size = 4
_poArgs$ = 12						; size = 4
?miniMapHide@@YAPAU_object@@PAU1@0@Z PROC		; miniMapHide, COMDAT

; 91   : 	CPythonMiniMap::Instance().Hide();

  00000	8b 0d 00 00 00
	00		 mov	 ecx, DWORD PTR ?ms_singleton@?$CSingleton@VCPythonMiniMap@@@@0PAVCPythonMiniMap@@A ; CSingleton<CPythonMiniMap>::ms_singleton
  00006	e8 00 00 00 00	 call	 ?Hide@CPythonMiniMap@@QAEXXZ ; CPythonMiniMap::Hide

; 92   : 	return Py_BuildNone();

  0000b	e9 00 00 00 00	 jmp	 ?Py_BuildNone@@YAPAU_object@@XZ ; Py_BuildNone
?miniMapHide@@YAPAU_object@@PAU1@0@Z ENDP		; miniMapHide
_TEXT	ENDS
; Function compile flags: /Ogtp
; File D:\Metin2 Server Files\mainline\SRC_2014\Metin2Client\UserInterface\PythonMiniMapModule.cpp
;	COMDAT ?miniMapShow@@YAPAU_object@@PAU1@0@Z
_TEXT	SEGMENT
_poSelf$ = 8						; size = 4
_poArgs$ = 12						; size = 4
?miniMapShow@@YAPAU_object@@PAU1@0@Z PROC		; miniMapShow, COMDAT

; 85   : 	CPythonMiniMap::Instance().Show();

  00000	8b 0d 00 00 00
	00		 mov	 ecx, DWORD PTR ?ms_singleton@?$CSingleton@VCPythonMiniMap@@@@0PAVCPythonMiniMap@@A ; CSingleton<CPythonMiniMap>::ms_singleton
  00006	e8 00 00 00 00	 call	 ?Show@CPythonMiniMap@@QAEXXZ ; CPythonMiniMap::Show

; 86   : 	return Py_BuildNone();

  0000b	e9 00 00 00 00	 jmp	 ?Py_BuildNone@@YAPAU_object@@XZ ; Py_BuildNone
?miniMapShow@@YAPAU_object@@PAU1@0@Z ENDP		; miniMapShow
_TEXT	ENDS
; Function compile flags: /Ogtp
; File D:\Metin2 Server Files\mainline\SRC_2014\Metin2Client\UserInterface\PythonMiniMapModule.cpp
;	COMDAT ?miniMapRender@@YAPAU_object@@PAU1@0@Z
_TEXT	SEGMENT
_fScrrenX$ = -8						; size = 4
_fScrrenY$ = -4						; size = 4
_poSelf$ = 8						; size = 4
_poArgs$ = 12						; size = 4
?miniMapRender@@YAPAU_object@@PAU1@0@Z PROC		; miniMapRender, COMDAT

; 70   : {

  00000	55		 push	 ebp
  00001	8b ec		 mov	 ebp, esp
  00003	83 ec 08	 sub	 esp, 8

; 71   : 	float fScrrenX;
; 72   : 	if (!PyTuple_GetFloat(poArgs, 0, &fScrrenX))

  00006	8d 45 f8	 lea	 eax, DWORD PTR _fScrrenX$[ebp]
  00009	50		 push	 eax
  0000a	6a 00		 push	 0
  0000c	ff 75 0c	 push	 DWORD PTR _poArgs$[ebp]
  0000f	e8 00 00 00 00	 call	 ?PyTuple_GetFloat@@YA_NPAU_object@@HPAM@Z ; PyTuple_GetFloat
  00014	83 c4 0c	 add	 esp, 12			; 0000000cH
  00017	84 c0		 test	 al, al
  00019	75 0e		 jne	 SHORT $LN2@miniMapRen
$LN5@miniMapRen:

; 81   : }

  0001b	6a 00		 push	 0
  0001d	e8 00 00 00 00	 call	 ?Py_BuildException@@YAPAU_object@@PBDZZ ; Py_BuildException
  00022	83 c4 04	 add	 esp, 4
  00025	8b e5		 mov	 esp, ebp
  00027	5d		 pop	 ebp
  00028	c3		 ret	 0
$LN2@miniMapRen:

; 73   : 		return Py_BuildException();
; 74   : 
; 75   : 	float fScrrenY;
; 76   : 	if (!PyTuple_GetFloat(poArgs, 1, &fScrrenY))

  00029	8d 45 fc	 lea	 eax, DWORD PTR _fScrrenY$[ebp]
  0002c	50		 push	 eax
  0002d	6a 01		 push	 1
  0002f	ff 75 0c	 push	 DWORD PTR _poArgs$[ebp]
  00032	e8 00 00 00 00	 call	 ?PyTuple_GetFloat@@YA_NPAU_object@@HPAM@Z ; PyTuple_GetFloat
  00037	83 c4 0c	 add	 esp, 12			; 0000000cH
  0003a	84 c0		 test	 al, al
  0003c	74 dd		 je	 SHORT $LN5@miniMapRen

; 77   : 		return Py_BuildException();
; 78   : 
; 79   : 	CPythonMiniMap::Instance().Render(fScrrenX, fScrrenY);

  0003e	f3 0f 10 45 fc	 movss	 xmm0, DWORD PTR _fScrrenY$[ebp]
  00043	83 ec 08	 sub	 esp, 8
  00046	8b 0d 00 00 00
	00		 mov	 ecx, DWORD PTR ?ms_singleton@?$CSingleton@VCPythonMiniMap@@@@0PAVCPythonMiniMap@@A ; CSingleton<CPythonMiniMap>::ms_singleton
  0004c	f3 0f 11 44 24
	04		 movss	 DWORD PTR [esp+4], xmm0
  00052	f3 0f 10 45 f8	 movss	 xmm0, DWORD PTR _fScrrenX$[ebp]
  00057	f3 0f 11 04 24	 movss	 DWORD PTR [esp], xmm0
  0005c	e8 00 00 00 00	 call	 ?Render@CPythonMiniMap@@QAEXMM@Z ; CPythonMiniMap::Render

; 80   : 	return Py_BuildNone();

  00061	e8 00 00 00 00	 call	 ?Py_BuildNone@@YAPAU_object@@XZ ; Py_BuildNone

; 81   : }

  00066	8b e5		 mov	 esp, ebp
  00068	5d		 pop	 ebp
  00069	c3		 ret	 0
?miniMapRender@@YAPAU_object@@PAU1@0@Z ENDP		; miniMapRender
_TEXT	ENDS
; Function compile flags: /Ogtp
; File D:\Metin2 Server Files\mainline\SRC_2014\Metin2Client\UserInterface\PythonMiniMapModule.cpp
;	COMDAT ?miniMapUpdate@@YAPAU_object@@PAU1@0@Z
_TEXT	SEGMENT
_fCenterX$ = -8						; size = 4
_fCenterY$ = -4						; size = 4
_poSelf$ = 8						; size = 4
_poArgs$ = 12						; size = 4
?miniMapUpdate@@YAPAU_object@@PAU1@0@Z PROC		; miniMapUpdate, COMDAT

; 56   : {

  00000	55		 push	 ebp
  00001	8b ec		 mov	 ebp, esp
  00003	83 ec 08	 sub	 esp, 8

; 57   : 	float fCenterX;
; 58   : 	if (!PyTuple_GetFloat(poArgs, 0, &fCenterX))

  00006	8d 45 f8	 lea	 eax, DWORD PTR _fCenterX$[ebp]
  00009	50		 push	 eax
  0000a	6a 00		 push	 0
  0000c	ff 75 0c	 push	 DWORD PTR _poArgs$[ebp]
  0000f	e8 00 00 00 00	 call	 ?PyTuple_GetFloat@@YA_NPAU_object@@HPAM@Z ; PyTuple_GetFloat
  00014	83 c4 0c	 add	 esp, 12			; 0000000cH
  00017	84 c0		 test	 al, al
  00019	75 0e		 jne	 SHORT $LN2@miniMapUpd
$LN5@miniMapUpd:

; 67   : }

  0001b	6a 00		 push	 0
  0001d	e8 00 00 00 00	 call	 ?Py_BuildException@@YAPAU_object@@PBDZZ ; Py_BuildException
  00022	83 c4 04	 add	 esp, 4
  00025	8b e5		 mov	 esp, ebp
  00027	5d		 pop	 ebp
  00028	c3		 ret	 0
$LN2@miniMapUpd:

; 59   : 		return Py_BuildException();
; 60   : 
; 61   : 	float fCenterY;
; 62   : 	if (!PyTuple_GetFloat(poArgs, 1, &fCenterY))

  00029	8d 45 fc	 lea	 eax, DWORD PTR _fCenterY$[ebp]
  0002c	50		 push	 eax
  0002d	6a 01		 push	 1
  0002f	ff 75 0c	 push	 DWORD PTR _poArgs$[ebp]
  00032	e8 00 00 00 00	 call	 ?PyTuple_GetFloat@@YA_NPAU_object@@HPAM@Z ; PyTuple_GetFloat
  00037	83 c4 0c	 add	 esp, 12			; 0000000cH
  0003a	84 c0		 test	 al, al
  0003c	74 dd		 je	 SHORT $LN5@miniMapUpd

; 63   : 		return Py_BuildException();
; 64   : 
; 65   : 	CPythonMiniMap::Instance().Update(fCenterX, fCenterY);

  0003e	f3 0f 10 45 fc	 movss	 xmm0, DWORD PTR _fCenterY$[ebp]
  00043	83 ec 08	 sub	 esp, 8
  00046	8b 0d 00 00 00
	00		 mov	 ecx, DWORD PTR ?ms_singleton@?$CSingleton@VCPythonMiniMap@@@@0PAVCPythonMiniMap@@A ; CSingleton<CPythonMiniMap>::ms_singleton
  0004c	f3 0f 11 44 24
	04		 movss	 DWORD PTR [esp+4], xmm0
  00052	f3 0f 10 45 f8	 movss	 xmm0, DWORD PTR _fCenterX$[ebp]
  00057	f3 0f 11 04 24	 movss	 DWORD PTR [esp], xmm0
  0005c	e8 00 00 00 00	 call	 ?Update@CPythonMiniMap@@QAEXMM@Z ; CPythonMiniMap::Update

; 66   : 	return Py_BuildNone();

  00061	e8 00 00 00 00	 call	 ?Py_BuildNone@@YAPAU_object@@XZ ; Py_BuildNone

; 67   : }

  00066	8b e5		 mov	 esp, ebp
  00068	5d		 pop	 ebp
  00069	c3		 ret	 0
?miniMapUpdate@@YAPAU_object@@PAU1@0@Z ENDP		; miniMapUpdate
_TEXT	ENDS
; Function compile flags: /Ogtp
; File D:\Metin2 Server Files\mainline\SRC_2014\Metin2Client\UserInterface\PythonMiniMapModule.cpp
;	COMDAT ?miniMapCreate@@YAPAU_object@@PAU1@0@Z
_TEXT	SEGMENT
_poSelf$ = 8						; size = 4
_poArgs$ = 12						; size = 4
?miniMapCreate@@YAPAU_object@@PAU1@0@Z PROC		; miniMapCreate, COMDAT

; 51   : 	CPythonMiniMap::Instance().Create();

  00000	8b 0d 00 00 00
	00		 mov	 ecx, DWORD PTR ?ms_singleton@?$CSingleton@VCPythonMiniMap@@@@0PAVCPythonMiniMap@@A ; CSingleton<CPythonMiniMap>::ms_singleton
  00006	e8 00 00 00 00	 call	 ?Create@CPythonMiniMap@@QAE_NXZ ; CPythonMiniMap::Create

; 52   : 	return Py_BuildNone();

  0000b	e9 00 00 00 00	 jmp	 ?Py_BuildNone@@YAPAU_object@@XZ ; Py_BuildNone
?miniMapCreate@@YAPAU_object@@PAU1@0@Z ENDP		; miniMapCreate
_TEXT	ENDS
; Function compile flags: /Ogtp
; File D:\Metin2 Server Files\mainline\SRC_2014\Metin2Client\UserInterface\PythonMiniMapModule.cpp
;	COMDAT ?miniMapDestroy@@YAPAU_object@@PAU1@0@Z
_TEXT	SEGMENT
_poSelf$ = 8						; size = 4
_poArgs$ = 12						; size = 4
?miniMapDestroy@@YAPAU_object@@PAU1@0@Z PROC		; miniMapDestroy, COMDAT

; 45   : 	CPythonMiniMap::Instance().Destroy();

  00000	8b 0d 00 00 00
	00		 mov	 ecx, DWORD PTR ?ms_singleton@?$CSingleton@VCPythonMiniMap@@@@0PAVCPythonMiniMap@@A ; CSingleton<CPythonMiniMap>::ms_singleton
  00006	e8 00 00 00 00	 call	 ?Destroy@CPythonMiniMap@@QAEXXZ ; CPythonMiniMap::Destroy

; 46   : 	return Py_BuildNone();

  0000b	e9 00 00 00 00	 jmp	 ?Py_BuildNone@@YAPAU_object@@XZ ; Py_BuildNone
?miniMapDestroy@@YAPAU_object@@PAU1@0@Z ENDP		; miniMapDestroy
_TEXT	ENDS
; Function compile flags: /Ogtp
; File D:\Metin2 Server Files\mainline\SRC_2014\Metin2Client\UserInterface\PythonMiniMapModule.cpp
;	COMDAT ?miniMapSetMiniMapSize@@YAPAU_object@@PAU1@0@Z
_TEXT	SEGMENT
_fWidth$ = -8						; size = 4
_fHeight$ = -4						; size = 4
_poSelf$ = 8						; size = 4
_poArgs$ = 12						; size = 4
?miniMapSetMiniMapSize@@YAPAU_object@@PAU1@0@Z PROC	; miniMapSetMiniMapSize, COMDAT

; 30   : {

  00000	55		 push	 ebp
  00001	8b ec		 mov	 ebp, esp
  00003	83 ec 08	 sub	 esp, 8

; 31   : 	float fWidth;
; 32   : 	if (!PyTuple_GetFloat(poArgs, 0, &fWidth))

  00006	8d 45 f8	 lea	 eax, DWORD PTR _fWidth$[ebp]
  00009	50		 push	 eax
  0000a	6a 00		 push	 0
  0000c	ff 75 0c	 push	 DWORD PTR _poArgs$[ebp]
  0000f	e8 00 00 00 00	 call	 ?PyTuple_GetFloat@@YA_NPAU_object@@HPAM@Z ; PyTuple_GetFloat
  00014	83 c4 0c	 add	 esp, 12			; 0000000cH
  00017	84 c0		 test	 al, al
  00019	75 0e		 jne	 SHORT $LN2@miniMapSet
$LN5@miniMapSet:

; 41   : }

  0001b	6a 00		 push	 0
  0001d	e8 00 00 00 00	 call	 ?Py_BuildException@@YAPAU_object@@PBDZZ ; Py_BuildException
  00022	83 c4 04	 add	 esp, 4
  00025	8b e5		 mov	 esp, ebp
  00027	5d		 pop	 ebp
  00028	c3		 ret	 0
$LN2@miniMapSet:

; 33   : 		return Py_BuildException();
; 34   : 
; 35   : 	float fHeight;
; 36   : 	if (!PyTuple_GetFloat(poArgs, 1, &fHeight))

  00029	8d 45 fc	 lea	 eax, DWORD PTR _fHeight$[ebp]
  0002c	50		 push	 eax
  0002d	6a 01		 push	 1
  0002f	ff 75 0c	 push	 DWORD PTR _poArgs$[ebp]
  00032	e8 00 00 00 00	 call	 ?PyTuple_GetFloat@@YA_NPAU_object@@HPAM@Z ; PyTuple_GetFloat
  00037	83 c4 0c	 add	 esp, 12			; 0000000cH
  0003a	84 c0		 test	 al, al
  0003c	74 dd		 je	 SHORT $LN5@miniMapSet

; 37   : 		return Py_BuildException();
; 38   : 
; 39   : 	CPythonMiniMap::Instance().SetMiniMapSize(fWidth, fHeight);

  0003e	f3 0f 10 45 fc	 movss	 xmm0, DWORD PTR _fHeight$[ebp]
  00043	83 ec 08	 sub	 esp, 8
  00046	8b 0d 00 00 00
	00		 mov	 ecx, DWORD PTR ?ms_singleton@?$CSingleton@VCPythonMiniMap@@@@0PAVCPythonMiniMap@@A ; CSingleton<CPythonMiniMap>::ms_singleton
  0004c	f3 0f 11 44 24
	04		 movss	 DWORD PTR [esp+4], xmm0
  00052	f3 0f 10 45 f8	 movss	 xmm0, DWORD PTR _fWidth$[ebp]
  00057	f3 0f 11 04 24	 movss	 DWORD PTR [esp], xmm0
  0005c	e8 00 00 00 00	 call	 ?SetMiniMapSize@CPythonMiniMap@@QAEXMM@Z ; CPythonMiniMap::SetMiniMapSize

; 40   : 	return Py_BuildNone();

  00061	e8 00 00 00 00	 call	 ?Py_BuildNone@@YAPAU_object@@XZ ; Py_BuildNone

; 41   : }

  00066	8b e5		 mov	 esp, ebp
  00068	5d		 pop	 ebp
  00069	c3		 ret	 0
?miniMapSetMiniMapSize@@YAPAU_object@@PAU1@0@Z ENDP	; miniMapSetMiniMapSize
_TEXT	ENDS
; Function compile flags: /Ogtp
; File D:\Metin2 Server Files\mainline\SRC_2014\Metin2Client\UserInterface\PythonMiniMapModule.cpp
;	COMDAT ?miniMapSetCenterPosition@@YAPAU_object@@PAU1@0@Z
_TEXT	SEGMENT
_fCenterX$ = -8						; size = 4
_fCenterY$ = -4						; size = 4
_poSelf$ = 8						; size = 4
_poArgs$ = 12						; size = 4
?miniMapSetCenterPosition@@YAPAU_object@@PAU1@0@Z PROC	; miniMapSetCenterPosition, COMDAT

; 15   : {

  00000	55		 push	 ebp
  00001	8b ec		 mov	 ebp, esp
  00003	83 ec 08	 sub	 esp, 8

; 16   : 	float fCenterX;
; 17   : 	if (!PyTuple_GetFloat(poArgs, 0, &fCenterX))

  00006	8d 45 f8	 lea	 eax, DWORD PTR _fCenterX$[ebp]
  00009	50		 push	 eax
  0000a	6a 00		 push	 0
  0000c	ff 75 0c	 push	 DWORD PTR _poArgs$[ebp]
  0000f	e8 00 00 00 00	 call	 ?PyTuple_GetFloat@@YA_NPAU_object@@HPAM@Z ; PyTuple_GetFloat
  00014	83 c4 0c	 add	 esp, 12			; 0000000cH
  00017	84 c0		 test	 al, al
  00019	75 0e		 jne	 SHORT $LN2@miniMapSet
$LN5@miniMapSet:

; 26   : }

  0001b	6a 00		 push	 0
  0001d	e8 00 00 00 00	 call	 ?Py_BuildException@@YAPAU_object@@PBDZZ ; Py_BuildException
  00022	83 c4 04	 add	 esp, 4
  00025	8b e5		 mov	 esp, ebp
  00027	5d		 pop	 ebp
  00028	c3		 ret	 0
$LN2@miniMapSet:

; 18   : 		return Py_BuildException();
; 19   : 	
; 20   : 	float fCenterY;
; 21   : 	if (!PyTuple_GetFloat(poArgs, 1, &fCenterY))

  00029	8d 45 fc	 lea	 eax, DWORD PTR _fCenterY$[ebp]
  0002c	50		 push	 eax
  0002d	6a 01		 push	 1
  0002f	ff 75 0c	 push	 DWORD PTR _poArgs$[ebp]
  00032	e8 00 00 00 00	 call	 ?PyTuple_GetFloat@@YA_NPAU_object@@HPAM@Z ; PyTuple_GetFloat
  00037	83 c4 0c	 add	 esp, 12			; 0000000cH
  0003a	84 c0		 test	 al, al
  0003c	74 dd		 je	 SHORT $LN5@miniMapSet

; 22   : 		return Py_BuildException();
; 23   : 	
; 24   : 	CPythonMiniMap::Instance().SetCenterPosition(fCenterX, fCenterY);

  0003e	f3 0f 10 45 fc	 movss	 xmm0, DWORD PTR _fCenterY$[ebp]
  00043	83 ec 08	 sub	 esp, 8
  00046	8b 0d 00 00 00
	00		 mov	 ecx, DWORD PTR ?ms_singleton@?$CSingleton@VCPythonMiniMap@@@@0PAVCPythonMiniMap@@A ; CSingleton<CPythonMiniMap>::ms_singleton
  0004c	f3 0f 11 44 24
	04		 movss	 DWORD PTR [esp+4], xmm0
  00052	f3 0f 10 45 f8	 movss	 xmm0, DWORD PTR _fCenterX$[ebp]
  00057	f3 0f 11 04 24	 movss	 DWORD PTR [esp], xmm0
  0005c	e8 00 00 00 00	 call	 ?SetCenterPosition@CPythonMiniMap@@QAEXMM@Z ; CPythonMiniMap::SetCenterPosition

; 25   : 	return Py_BuildNone();

  00061	e8 00 00 00 00	 call	 ?Py_BuildNone@@YAPAU_object@@XZ ; Py_BuildNone

; 26   : }

  00066	8b e5		 mov	 esp, ebp
  00068	5d		 pop	 ebp
  00069	c3		 ret	 0
?miniMapSetCenterPosition@@YAPAU_object@@PAU1@0@Z ENDP	; miniMapSetCenterPosition
_TEXT	ENDS
; Function compile flags: /Ogtp
; File D:\Metin2 Server Files\mainline\SRC_2014\Metin2Client\UserInterface\PythonMiniMapModule.cpp
;	COMDAT ?miniMapSetScale@@YAPAU_object@@PAU1@0@Z
_TEXT	SEGMENT
_fScale$ = -4						; size = 4
_poSelf$ = 8						; size = 4
_poArgs$ = 12						; size = 4
?miniMapSetScale@@YAPAU_object@@PAU1@0@Z PROC		; miniMapSetScale, COMDAT

; 5    : {

  00000	55		 push	 ebp
  00001	8b ec		 mov	 ebp, esp
  00003	51		 push	 ecx

; 6    : 	float fScale;
; 7    : 	if (!PyTuple_GetFloat(poArgs, 0, &fScale))

  00004	8d 45 fc	 lea	 eax, DWORD PTR _fScale$[ebp]
  00007	50		 push	 eax
  00008	6a 00		 push	 0
  0000a	ff 75 0c	 push	 DWORD PTR _poArgs$[ebp]
  0000d	e8 00 00 00 00	 call	 ?PyTuple_GetFloat@@YA_NPAU_object@@HPAM@Z ; PyTuple_GetFloat
  00012	83 c4 0c	 add	 esp, 12			; 0000000cH
  00015	84 c0		 test	 al, al
  00017	75 0e		 jne	 SHORT $LN2@miniMapSet

; 8    : 		return Py_BuildException();

  00019	6a 00		 push	 0
  0001b	e8 00 00 00 00	 call	 ?Py_BuildException@@YAPAU_object@@PBDZZ ; Py_BuildException
  00020	83 c4 04	 add	 esp, 4

; 12   : }

  00023	8b e5		 mov	 esp, ebp
  00025	5d		 pop	 ebp
  00026	c3		 ret	 0
$LN2@miniMapSet:

; 9    : 
; 10   : 	CPythonMiniMap::Instance().SetScale(fScale);

  00027	f3 0f 10 45 fc	 movss	 xmm0, DWORD PTR _fScale$[ebp]
  0002c	51		 push	 ecx
  0002d	8b 0d 00 00 00
	00		 mov	 ecx, DWORD PTR ?ms_singleton@?$CSingleton@VCPythonMiniMap@@@@0PAVCPythonMiniMap@@A ; CSingleton<CPythonMiniMap>::ms_singleton
  00033	f3 0f 11 04 24	 movss	 DWORD PTR [esp], xmm0
  00038	e8 00 00 00 00	 call	 ?SetScale@CPythonMiniMap@@QAEXM@Z ; CPythonMiniMap::SetScale

; 11   : 	return Py_BuildNone();

  0003d	e8 00 00 00 00	 call	 ?Py_BuildNone@@YAPAU_object@@XZ ; Py_BuildNone

; 12   : }

  00042	8b e5		 mov	 esp, ebp
  00044	5d		 pop	 ebp
  00045	c3		 ret	 0
?miniMapSetScale@@YAPAU_object@@PAU1@0@Z ENDP		; miniMapSetScale
_TEXT	ENDS
; Function compile flags: /Ogtp
; File C:\Program Files (x86)\Microsoft Visual Studio\2019\Community\VC\Tools\MSVC\14.28.29333\include\xmemory
;	COMDAT ??$_Allocate_manually_vector_aligned@U_Default_allocate_traits@std@@@std@@YAPAXI@Z
_TEXT	SEGMENT
__Bytes$ = 8						; size = 4
??$_Allocate_manually_vector_aligned@U_Default_allocate_traits@std@@@std@@YAPAXI@Z PROC ; std::_Allocate_manually_vector_aligned<std::_Default_allocate_traits>, COMDAT

; 113  : __declspec(allocator) void* _Allocate_manually_vector_aligned(const size_t _Bytes) {

  00000	55		 push	 ebp
  00001	8b ec		 mov	 ebp, esp

; 114  :     // allocate _Bytes manually aligned to at least _Big_allocation_alignment
; 115  :     const size_t _Block_size = _Non_user_size + _Bytes;

  00003	8b 45 08	 mov	 eax, DWORD PTR __Bytes$[ebp]
  00006	8d 48 23	 lea	 ecx, DWORD PTR [eax+35]

; 116  :     if (_Block_size <= _Bytes) {

  00009	3b c8		 cmp	 ecx, eax
  0000b	0f 86 00 00 00
	00		 jbe	 ?_Throw_bad_array_new_length@std@@YAXXZ ; std::_Throw_bad_array_new_length

; 77   :         return ::operator new(_Bytes);

  00011	51		 push	 ecx
  00012	e8 00 00 00 00	 call	 ??2@YAPAXI@Z		; operator new

; 117  :         _Throw_bad_array_new_length(); // add overflow
; 118  :     }
; 119  : 
; 120  :     const uintptr_t _Ptr_container = reinterpret_cast<uintptr_t>(_Traits::_Allocate(_Block_size));

  00017	8b c8		 mov	 ecx, eax

; 77   :         return ::operator new(_Bytes);

  00019	83 c4 04	 add	 esp, 4

; 121  :     _STL_VERIFY(_Ptr_container != 0, "invalid argument"); // validate even in release since we're doing p[-1]

  0001c	85 c9		 test	 ecx, ecx
  0001e	74 0b		 je	 SHORT $LN7@Allocate_m

; 122  :     void* const _Ptr = reinterpret_cast<void*>((_Ptr_container + _Non_user_size) & ~(_Big_allocation_alignment - 1));

  00020	8d 41 23	 lea	 eax, DWORD PTR [ecx+35]
  00023	83 e0 e0	 and	 eax, -32		; ffffffe0H

; 123  :     static_cast<uintptr_t*>(_Ptr)[-1] = _Ptr_container;

  00026	89 48 fc	 mov	 DWORD PTR [eax-4], ecx

; 124  : 
; 125  : #ifdef _DEBUG
; 126  :     static_cast<uintptr_t*>(_Ptr)[-2] = _Big_allocation_sentinel;
; 127  : #endif // _DEBUG
; 128  :     return _Ptr;
; 129  : }

  00029	5d		 pop	 ebp
  0002a	c3		 ret	 0
$LN7@Allocate_m:

; 121  :     _STL_VERIFY(_Ptr_container != 0, "invalid argument"); // validate even in release since we're doing p[-1]

  0002b	e9 00 00 00 00	 jmp	 __invalid_parameter_noinfo_noreturn
??$_Allocate_manually_vector_aligned@U_Default_allocate_traits@std@@@std@@YAPAXI@Z ENDP ; std::_Allocate_manually_vector_aligned<std::_Default_allocate_traits>
_TEXT	ENDS
; Function compile flags: /Ogtp
; File C:\Program Files (x86)\Microsoft Visual Studio\2019\Community\VC\Tools\MSVC\14.28.29333\include\xmemory
;	COMDAT ??$_Allocate@$07U_Default_allocate_traits@std@@$0A@@std@@YAPAXI@Z
_TEXT	SEGMENT
__Bytes$ = 8						; size = 4
??$_Allocate@$07U_Default_allocate_traits@std@@$0A@@std@@YAPAXI@Z PROC ; std::_Allocate<8,std::_Default_allocate_traits,0>, COMDAT

; 197  : __declspec(allocator) void* _Allocate(const size_t _Bytes) {

  00000	55		 push	 ebp
  00001	8b ec		 mov	 ebp, esp

; 198  :     // allocate _Bytes when !_HAS_ALIGNED_NEW || _Align <= __STDCPP_DEFAULT_NEW_ALIGNMENT__
; 199  : #if defined(_M_IX86) || defined(_M_X64)
; 200  :     if (_Bytes >= _Big_allocation_threshold) { // boost the alignment of big allocations to help autovectorization

  00003	8b 45 08	 mov	 eax, DWORD PTR __Bytes$[ebp]
  00006	3d 00 10 00 00	 cmp	 eax, 4096		; 00001000H
  0000b	72 09		 jb	 SHORT $LN2@Allocate

; 201  :         return _Allocate_manually_vector_aligned<_Traits>(_Bytes);

  0000d	89 45 08	 mov	 DWORD PTR __Bytes$[ebp], eax

; 210  : }

  00010	5d		 pop	 ebp

; 201  :         return _Allocate_manually_vector_aligned<_Traits>(_Bytes);

  00011	e9 00 00 00 00	 jmp	 ??$_Allocate_manually_vector_aligned@U_Default_allocate_traits@std@@@std@@YAPAXI@Z ; std::_Allocate_manually_vector_aligned<std::_Default_allocate_traits>
$LN2@Allocate:

; 202  :     }
; 203  : #endif // defined(_M_IX86) || defined(_M_X64)
; 204  : 
; 205  :     if (_Bytes != 0) {

  00016	85 c0		 test	 eax, eax
  00018	74 09		 je	 SHORT $LN3@Allocate

; 77   :         return ::operator new(_Bytes);

  0001a	89 45 08	 mov	 DWORD PTR __Bytes$[ebp], eax

; 210  : }

  0001d	5d		 pop	 ebp

; 77   :         return ::operator new(_Bytes);

  0001e	e9 00 00 00 00	 jmp	 ??2@YAPAXI@Z		; operator new
$LN3@Allocate:

; 206  :         return _Traits::_Allocate(_Bytes);
; 207  :     }
; 208  : 
; 209  :     return nullptr;

  00023	33 c0		 xor	 eax, eax

; 210  : }

  00025	5d		 pop	 ebp
  00026	c3		 ret	 0
??$_Allocate@$07U_Default_allocate_traits@std@@$0A@@std@@YAPAXI@Z ENDP ; std::_Allocate<8,std::_Default_allocate_traits,0>
_TEXT	ENDS
; Function compile flags: /Ogtp
; File C:\Program Files (x86)\Microsoft Visual Studio\2019\Community\VC\Tools\MSVC\14.28.29333\include\xmemory
;	COMDAT ??$_Deallocate@$07$0A@@std@@YAXPAXI@Z
_TEXT	SEGMENT
__Ptr$ = 8						; size = 4
__Bytes$ = 12						; size = 4
??$_Deallocate@$07$0A@@std@@YAXPAXI@Z PROC		; std::_Deallocate<8,0>, COMDAT

; 213  : void _Deallocate(void* _Ptr, size_t _Bytes) noexcept {

  00000	55		 push	 ebp
  00001	8b ec		 mov	 ebp, esp

; 214  :     // deallocate storage allocated by _Allocate when !_HAS_ALIGNED_NEW || _Align <= __STDCPP_DEFAULT_NEW_ALIGNMENT__
; 215  : #if defined(_M_IX86) || defined(_M_X64)
; 216  :     if (_Bytes >= _Big_allocation_threshold) { // boost the alignment of big allocations to help autovectorization

  00003	8b 4d 0c	 mov	 ecx, DWORD PTR __Bytes$[ebp]
  00006	81 f9 00 10 00
	00		 cmp	 ecx, 4096		; 00001000H
  0000c	72 18		 jb	 SHORT $LN15@Deallocate

; 137  :     const uintptr_t _Ptr_container   = _Ptr_user[-1];

  0000e	8b 45 08	 mov	 eax, DWORD PTR __Ptr$[ebp]
  00011	83 c1 23	 add	 ecx, 35			; 00000023H
  00014	8b 50 fc	 mov	 edx, DWORD PTR [eax-4]

; 138  : 
; 139  :     // If the following asserts, it likely means that we are performing
; 140  :     // an aligned delete on memory coming from an unaligned allocation.
; 141  :     _STL_ASSERT(_Ptr_user[-2] == _Big_allocation_sentinel, "invalid argument");
; 142  : 
; 143  :     // Extra paranoia on aligned allocation/deallocation; ensure _Ptr_container is
; 144  :     // in range [_Min_back_shift, _Non_user_size]
; 145  : #ifdef _DEBUG
; 146  :     constexpr uintptr_t _Min_back_shift = 2 * sizeof(void*);
; 147  : #else // ^^^ _DEBUG ^^^ // vvv !_DEBUG vvv
; 148  :     constexpr uintptr_t _Min_back_shift = sizeof(void*);
; 149  : #endif // _DEBUG
; 150  :     const uintptr_t _Back_shift = reinterpret_cast<uintptr_t>(_Ptr) - _Ptr_container;

  00017	2b c2		 sub	 eax, edx

; 151  :     _STL_VERIFY(_Back_shift >= _Min_back_shift && _Back_shift <= _Non_user_size, "invalid argument");

  00019	83 c0 fc	 add	 eax, -4			; fffffffcH
  0001c	83 f8 1f	 cmp	 eax, 31			; 0000001fH
  0001f	76 08		 jbe	 SHORT $LN13@Deallocate
  00021	e9 00 00 00 00	 jmp	 __invalid_parameter_noinfo_noreturn
$LN15@Deallocate:

; 214  :     // deallocate storage allocated by _Allocate when !_HAS_ALIGNED_NEW || _Align <= __STDCPP_DEFAULT_NEW_ALIGNMENT__
; 215  : #if defined(_M_IX86) || defined(_M_X64)
; 216  :     if (_Bytes >= _Big_allocation_threshold) { // boost the alignment of big allocations to help autovectorization

  00026	8b 55 08	 mov	 edx, DWORD PTR __Ptr$[ebp]
$LN13@Deallocate:

; 217  :         _Adjust_manually_vector_aligned(_Ptr, _Bytes);
; 218  :     }
; 219  : #endif // defined(_M_IX86) || defined(_M_X64)
; 220  : 
; 221  :     ::operator delete(_Ptr, _Bytes);

  00029	89 4d 0c	 mov	 DWORD PTR __Bytes$[ebp], ecx
  0002c	89 55 08	 mov	 DWORD PTR __Ptr$[ebp], edx

; 222  : }

  0002f	5d		 pop	 ebp

; 217  :         _Adjust_manually_vector_aligned(_Ptr, _Bytes);
; 218  :     }
; 219  : #endif // defined(_M_IX86) || defined(_M_X64)
; 220  : 
; 221  :     ::operator delete(_Ptr, _Bytes);

  00030	e9 00 00 00 00	 jmp	 ??3@YAXPAXI@Z		; operator delete
??$_Deallocate@$07$0A@@std@@YAXPAXI@Z ENDP		; std::_Deallocate<8,0>
_TEXT	ENDS
; Function compile flags: /Ogtp
; File C:\Program Files (x86)\Microsoft Visual Studio\2019\Community\VC\Tools\MSVC\14.28.29333\include\xmemory
;	COMDAT ??$_Construct_in_place@PADABQAD@std@@YAXAAPADABQAD@Z
_TEXT	SEGMENT
__Obj$ = 8						; size = 4
_<_Args_0>$ = 12					; size = 4
??$_Construct_in_place@PADABQAD@std@@YAXAAPADABQAD@Z PROC ; std::_Construct_in_place<char *,char * const &>, COMDAT

; 228  : void _Construct_in_place(_Ty& _Obj, _Types&&... _Args) noexcept(is_nothrow_constructible_v<_Ty, _Types...>) {

  00000	55		 push	 ebp
  00001	8b ec		 mov	 ebp, esp

; 229  :     ::new (const_cast<void*>(static_cast<const volatile void*>(_STD addressof(_Obj))))

  00003	8b 45 0c	 mov	 eax, DWORD PTR _<_Args_0>$[ebp]
  00006	8b 08		 mov	 ecx, DWORD PTR [eax]
  00008	8b 45 08	 mov	 eax, DWORD PTR __Obj$[ebp]
  0000b	89 08		 mov	 DWORD PTR [eax], ecx

; 230  :         _Ty(_STD forward<_Types>(_Args)...);
; 231  : }

  0000d	5d		 pop	 ebp
  0000e	c3		 ret	 0
??$_Construct_in_place@PADABQAD@std@@YAXAAPADABQAD@Z ENDP ; std::_Construct_in_place<char *,char * const &>
_TEXT	ENDS
; Function compile flags: /Ogtp
; File C:\Program Files (x86)\Microsoft Visual Studio\2019\Community\VC\Tools\MSVC\14.28.29333\include\xmemory
;	COMDAT ??$_Destroy_in_place@PAD@std@@YAXAAPAD@Z
_TEXT	SEGMENT
__Obj$ = 8						; size = 4
??$_Destroy_in_place@PAD@std@@YAXAAPAD@Z PROC		; std::_Destroy_in_place<char *>, COMDAT

; 271  : #if _HAS_IF_CONSTEXPR
; 272  :     if constexpr (is_array_v<_Ty>) {
; 273  :         _Destroy_range(_Obj, _Obj + extent_v<_Ty>);
; 274  :     } else
; 275  : #endif // _HAS_IF_CONSTEXPR
; 276  :     {
; 277  :         _Obj.~_Ty();
; 278  :     }
; 279  : }

  00000	c2 00 00	 ret	 0
??$_Destroy_in_place@PAD@std@@YAXAAPAD@Z ENDP		; std::_Destroy_in_place<char *>
_TEXT	ENDS
; Function compile flags: /Ogtp
; File D:\Metin2 Server Files\mainline\SRC_2014\Metin2Client\UserInterface\PythonMiniMapModule.cpp
;	COMDAT ?initMiniMap@@YAXXZ
_TEXT	SEGMENT
?initMiniMap@@YAXXZ PROC				; initMiniMap, COMDAT

; 303  : {

  00000	56		 push	 esi
  00001	57		 push	 edi

; 304  : 	static PyMethodDef s_methods[] = 
; 305  : 	{
; 306  : 		{ "SetScale",						miniMapSetScale,								METH_VARARGS },
; 307  : 		{ "ScaleUp",						miniMapScaleUp,									METH_VARARGS },
; 308  : 		{ "ScaleDown",						miniMapScaleDown,								METH_VARARGS },
; 309  : 		{ "SetMiniMapSize",					miniMapSetMiniMapSize,							METH_VARARGS },
; 310  : 
; 311  : 		{ "SetCenterPosition",				miniMapSetCenterPosition,						METH_VARARGS },
; 312  : 
; 313  : 		{ "Destroy",						miniMapDestroy,									METH_VARARGS },
; 314  : 		{ "Create",							miniMapCreate,									METH_VARARGS },
; 315  : 		{ "Update",							miniMapUpdate,									METH_VARARGS },
; 316  : 		{ "Render",							miniMapRender,									METH_VARARGS },
; 317  : 
; 318  : 		{ "Show",							miniMapShow,									METH_VARARGS },
; 319  : 		{ "Hide",							miniMapHide,									METH_VARARGS },
; 320  : 
; 321  : 		{ "isShow",							miniMapisShow,									METH_VARARGS },
; 322  : 
; 323  : 		{ "GetInfo",						miniMapGetInfo,									METH_VARARGS },
; 324  : 
; 325  : 		{ "LoadAtlas",						miniMapLoadAtlas,								METH_VARARGS },
; 326  : 		{ "UpdateAtlas",					miniMapUpdateAtlas,								METH_VARARGS },
; 327  : 		{ "RenderAtlas",					miniMapRenderAtlas,								METH_VARARGS },
; 328  : 		{ "ShowAtlas",						miniMapShowAtlas,								METH_VARARGS },
; 329  : 		{ "HideAtlas",						miniMapHideAtlas,								METH_VARARGS },
; 330  : 		{ "isShowAtlas",					miniMapisShowAtlas,								METH_VARARGS },
; 331  : 		{ "IsAtlas",						miniMapIsAtlas,									METH_VARARGS },
; 332  : 		{ "GetAtlasInfo",					miniMapGetAtlasInfo,							METH_VARARGS },
; 333  : 		{ "GetAtlasSize",					miniMapGetAtlasSize,							METH_VARARGS },
; 334  : 
; 335  : 		{ "AddWayPoint",					miniMapAddWayPoint,								METH_VARARGS },
; 336  : 		{ "RemoveWayPoint",					miniMapRemoveWayPoint,							METH_VARARGS },
; 337  : 
; 338  : 		{ "RegisterAtlasWindow",			miniMapRegisterAtlasWindow,						METH_VARARGS },
; 339  : 		{ "UnregisterAtlasWindow",			miniMapUnregisterAtlasWindow,					METH_VARARGS },
; 340  : 
; 341  : 		{ "GetGuildAreaID",					miniMapGetGuildAreaID,							METH_VARARGS },
; 342  : 
; 343  : 		{ NULL, NULL },
; 344  : 	};
; 345  : 
; 346  : 	PyObject * poModule = Py_InitModule("miniMap", s_methods);

  00002	68 f5 03 00 00	 push	 1013			; 000003f5H
  00007	6a 00		 push	 0
  00009	6a 00		 push	 0
  0000b	68 00 00 00 00	 push	 OFFSET ?s_methods@?1??initMiniMap@@YAXXZ@4PAUPyMethodDef@@A
  00010	68 00 00 00 00	 push	 OFFSET ??_C@_07GGJFLPNN@miniMap@
  00015	ff 15 00 00 00
	00		 call	 DWORD PTR __imp__Py_InitModule4

; 347  : 	
; 348  : 	PyModule_AddIntConstant(poModule, "TYPE_OPC",			CPythonMiniMap::TYPE_OPC);

  0001b	8b 35 00 00 00
	00		 mov	 esi, DWORD PTR __imp__PyModule_AddIntConstant
  00021	8b f8		 mov	 edi, eax
  00023	6a 00		 push	 0
  00025	68 00 00 00 00	 push	 OFFSET ??_C@_08MOLNEDKJ@TYPE_OPC@
  0002a	57		 push	 edi
  0002b	ff d6		 call	 esi

; 349  : 	PyModule_AddIntConstant(poModule, "TYPE_OPCPVP",		CPythonMiniMap::TYPE_OPCPVP);

  0002d	6a 01		 push	 1
  0002f	68 00 00 00 00	 push	 OFFSET ??_C@_0M@KBKKLFCC@TYPE_OPCPVP@
  00034	57		 push	 edi
  00035	ff d6		 call	 esi

; 350  : 	PyModule_AddIntConstant(poModule, "TYPE_OPCPVPSELF",	CPythonMiniMap::TYPE_OPCPVPSELF);

  00037	6a 02		 push	 2
  00039	68 00 00 00 00	 push	 OFFSET ??_C@_0BA@DAENBNGA@TYPE_OPCPVPSELF@
  0003e	57		 push	 edi
  0003f	ff d6		 call	 esi

; 351  : 	PyModule_AddIntConstant(poModule, "TYPE_NPC",			CPythonMiniMap::TYPE_NPC);

  00041	6a 03		 push	 3
  00043	68 00 00 00 00	 push	 OFFSET ??_C@_08HGABCEMM@TYPE_NPC@
  00048	57		 push	 edi
  00049	ff d6		 call	 esi
  0004b	83 c4 44	 add	 esp, 68			; 00000044H

; 352  : 	PyModule_AddIntConstant(poModule, "TYPE_MONSTER",		CPythonMiniMap::TYPE_MONSTER);

  0004e	6a 04		 push	 4
  00050	68 00 00 00 00	 push	 OFFSET ??_C@_0N@MFCFPPMD@TYPE_MONSTER@
  00055	57		 push	 edi
  00056	ff d6		 call	 esi

; 353  : 	PyModule_AddIntConstant(poModule, "TYPE_WARP",			CPythonMiniMap::TYPE_WARP);

  00058	6a 05		 push	 5
  0005a	68 00 00 00 00	 push	 OFFSET ??_C@_09LAKONOKF@TYPE_WARP@
  0005f	57		 push	 edi
  00060	ff d6		 call	 esi

; 354  : 	PyModule_AddIntConstant(poModule, "TYPE_WAYPOINT",		CPythonMiniMap::TYPE_WAYPOINT);

  00062	6a 06		 push	 6
  00064	68 00 00 00 00	 push	 OFFSET ??_C@_0O@JMCMGHKJ@TYPE_WAYPOINT@
  00069	57		 push	 edi
  0006a	ff d6		 call	 esi

; 355  : 	PyModule_AddIntConstant(poModule, "TYPE_PARTY",		CPythonMiniMap::TYPE_PARTY);

  0006c	6a 07		 push	 7
  0006e	68 00 00 00 00	 push	 OFFSET ??_C@_0L@NHHJIHMA@TYPE_PARTY@
  00073	57		 push	 edi
  00074	ff d6		 call	 esi

; 356  : 	PyModule_AddIntConstant(poModule, "TYPE_EMPIRE",		CPythonMiniMap::TYPE_EMPIRE);

  00076	6a 08		 push	 8
  00078	68 00 00 00 00	 push	 OFFSET ??_C@_0M@IAHPEAKG@TYPE_EMPIRE@
  0007d	57		 push	 edi
  0007e	ff d6		 call	 esi
  00080	83 c4 3c	 add	 esp, 60			; 0000003cH
  00083	5f		 pop	 edi
  00084	5e		 pop	 esi

; 357  : }

  00085	c3		 ret	 0
?initMiniMap@@YAXXZ ENDP				; initMiniMap
_TEXT	ENDS
; Function compile flags: /Ogtp
; File C:\Program Files (x86)\Microsoft Visual Studio\2019\Community\VC\Tools\MSVC\14.28.29333\include\xstring
; File C:\Program Files (x86)\Microsoft Visual Studio\2019\Community\VC\Tools\MSVC\14.28.29333\include\utility
; File C:\Program Files (x86)\Microsoft Visual Studio\2019\Community\VC\Tools\MSVC\14.28.29333\include\xstring
; File C:\Program Files (x86)\Microsoft Visual Studio\2019\Community\VC\Tools\MSVC\14.28.29333\include\xmemory
; File C:\Program Files (x86)\Microsoft Visual Studio\2019\Community\VC\Tools\MSVC\14.28.29333\include\xstring
; File C:\Program Files (x86)\Microsoft Visual Studio\2019\Community\VC\Tools\MSVC\14.28.29333\include\xmemory
; File C:\Program Files (x86)\Microsoft Visual Studio\2019\Community\VC\Tools\MSVC\14.28.29333\include\xstring
;	COMDAT ?assign@?$basic_string@DU?$char_traits@D@std@@V?$allocator@D@2@@std@@QAEAAV12@QBDI@Z
_TEXT	SEGMENT
__Old$1$ = -4						; size = 4
__Ptr$ = 8						; size = 4
__New_ptr$1 = 12					; size = 4
__Count$ = 12						; size = 4
?assign@?$basic_string@DU?$char_traits@D@std@@V?$allocator@D@2@@std@@QAEAAV12@QBDI@Z PROC ; std::basic_string<char,std::char_traits<char>,std::allocator<char> >::assign, COMDAT
; _this$ = ecx

; 3042 :     basic_string& assign(_In_reads_(_Count) const _Elem* const _Ptr, _CRT_GUARDOVERFLOW const size_type _Count) {

  00000	55		 push	 ebp
  00001	8b ec		 mov	 ebp, esp
  00003	51		 push	 ecx
  00004	53		 push	 ebx
  00005	56		 push	 esi
  00006	8b f1		 mov	 esi, ecx
  00008	57		 push	 edi

; 3043 :         // assign [_Ptr, _Ptr + _Count)
; 3044 :         if (_Count <= _Mypair._Myval2._Myres) {

  00009	8b 7d 0c	 mov	 edi, DWORD PTR __Count$[ebp]
  0000c	8b 4e 14	 mov	 ecx, DWORD PTR [esi+20]
  0000f	89 4d fc	 mov	 DWORD PTR __Old$1$[ebp], ecx
  00012	3b f9		 cmp	 edi, ecx
  00014	77 28		 ja	 SHORT $LN2@assign

; 2209 :         value_type* _Result = _Bx._Buf;

  00016	8b de		 mov	 ebx, esi

; 2227 :         return _BUF_SIZE <= _Myres;

  00018	83 f9 10	 cmp	 ecx, 16			; 00000010H

; 2210 :         if (_Large_string_engaged()) {

  0001b	72 02		 jb	 SHORT $LN5@assign

; 2211 :             _Result = _Unfancy(_Bx._Ptr);

  0001d	8b 1e		 mov	 ebx, DWORD PTR [esi]
$LN5@assign:

; 119  :         _CSTD memmove(_First1, _First2, _Count * sizeof(_Elem));

  0001f	57		 push	 edi
  00020	ff 75 08	 push	 DWORD PTR __Ptr$[ebp]

; 3045 :             _Elem* const _Old_ptr   = _Mypair._Myval2._Myptr();
; 3046 :             _Mypair._Myval2._Mysize = _Count;

  00023	89 7e 10	 mov	 DWORD PTR [esi+16], edi

; 119  :         _CSTD memmove(_First1, _First2, _Count * sizeof(_Elem));

  00026	53		 push	 ebx
  00027	e8 00 00 00 00	 call	 _memmove
  0002c	83 c4 0c	 add	 esp, 12			; 0000000cH

; 3047 :             _Traits::move(_Old_ptr, _Ptr, _Count);
; 3048 :             _Traits::assign(_Old_ptr[_Count], _Elem());

  0002f	c6 04 3b 00	 mov	 BYTE PTR [ebx+edi], 0

; 3059 :     }

  00033	8b c6		 mov	 eax, esi
  00035	5f		 pop	 edi
  00036	5e		 pop	 esi
  00037	5b		 pop	 ebx
  00038	8b e5		 mov	 esp, ebp
  0003a	5d		 pop	 ebp
  0003b	c2 08 00	 ret	 8
$LN2@assign:

; 4305 :         if (_New_size > max_size()) {

  0003e	81 ff ff ff ff
	7f		 cmp	 edi, 2147483647		; 7fffffffH
  00044	0f 87 91 00 00
	00		 ja	 $LN36@assign

; 4285 :         const size_type _Masked = _Requested | _ALLOC_MASK;

  0004a	8b df		 mov	 ebx, edi
  0004c	83 cb 0f	 or	 ebx, 15			; 0000000fH
  0004f	81 fb ff ff ff
	7f		 cmp	 ebx, 2147483647		; 7fffffffH

; 4286 :         if (_Masked > _Max) { // the mask overflows, settle for max_size()

  00055	76 07		 jbe	 SHORT $LN19@assign

; 4287 :             return _Max;

  00057	bb ff ff ff 7f	 mov	 ebx, 2147483647		; 7fffffffH
  0005c	eb 1e		 jmp	 SHORT $LN18@assign
$LN19@assign:

; 4288 :         }
; 4289 : 
; 4290 :         if (_Old > _Max - _Old / 2) { // similarly, geometric overflows

  0005e	8b d1		 mov	 edx, ecx
  00060	b8 ff ff ff 7f	 mov	 eax, 2147483647		; 7fffffffH
  00065	d1 ea		 shr	 edx, 1
  00067	2b c2		 sub	 eax, edx
  00069	3b c8		 cmp	 ecx, eax
  0006b	76 07		 jbe	 SHORT $LN20@assign

; 4291 :             return _Max;

  0006d	bb ff ff ff 7f	 mov	 ebx, 2147483647		; 7fffffffH
  00072	eb 08		 jmp	 SHORT $LN18@assign
$LN20@assign:

; 4292 :         }
; 4293 : 
; 4294 :         return (_STD max)(_Masked, _Old + _Old / 2);

  00074	8d 04 0a	 lea	 eax, DWORD PTR [edx+ecx]
; File C:\Program Files (x86)\Microsoft Visual Studio\2019\Community\VC\Tools\MSVC\14.28.29333\include\utility

; 44   :     return _Left < _Right ? _Right : _Left;

  00077	3b d8		 cmp	 ebx, eax
  00079	0f 42 d8	 cmovb	 ebx, eax
$LN18@assign:
; File C:\Program Files (x86)\Microsoft Visual Studio\2019\Community\VC\Tools\MSVC\14.28.29333\include\xstring

; 4312 :         const pointer _New_ptr        = _Al.allocate(_New_capacity + 1); // throws

  0007c	8d 43 01	 lea	 eax, DWORD PTR [ebx+1]
; File C:\Program Files (x86)\Microsoft Visual Studio\2019\Community\VC\Tools\MSVC\14.28.29333\include\xmemory

; 814  :         return static_cast<_Ty*>(_Allocate<_New_alignof<_Ty>>(_Get_size_of_n<sizeof(_Ty)>(_Count)));

  0007f	50		 push	 eax
  00080	e8 00 00 00 00	 call	 ??$_Allocate@$07U_Default_allocate_traits@std@@$0A@@std@@YAPAXI@Z ; std::_Allocate<8,std::_Default_allocate_traits,0>
; File C:\Program Files (x86)\Microsoft Visual Studio\2019\Community\VC\Tools\MSVC\14.28.29333\include\xstring

; 62   :         _CSTD memcpy(_First1, _First2, _Count * sizeof(_Elem));

  00085	57		 push	 edi
  00086	ff 75 08	 push	 DWORD PTR __Ptr$[ebp]

; 4312 :         const pointer _New_ptr        = _Al.allocate(_New_capacity + 1); // throws

  00089	89 45 0c	 mov	 DWORD PTR __New_ptr$1[ebp], eax

; 62   :         _CSTD memcpy(_First1, _First2, _Count * sizeof(_Elem));

  0008c	50		 push	 eax

; 4314 :         _Mypair._Myval2._Mysize = _New_size;

  0008d	89 7e 10	 mov	 DWORD PTR [esi+16], edi

; 4315 :         _Mypair._Myval2._Myres  = _New_capacity;

  00090	89 5e 14	 mov	 DWORD PTR [esi+20], ebx

; 62   :         _CSTD memcpy(_First1, _First2, _Count * sizeof(_Elem));

  00093	e8 00 00 00 00	 call	 _memcpy

; 3056 :                 _Traits::assign(_New_ptr[_Count], _Elem());

  00098	8b 5d 0c	 mov	 ebx, DWORD PTR __New_ptr$1[ebp]

; 62   :         _CSTD memcpy(_First1, _First2, _Count * sizeof(_Elem));

  0009b	83 c4 10	 add	 esp, 16			; 00000010H

; 4317 :         if (_BUF_SIZE <= _Old_capacity) {

  0009e	8b 45 fc	 mov	 eax, DWORD PTR __Old$1$[ebp]

; 3056 :                 _Traits::assign(_New_ptr[_Count], _Elem());

  000a1	c6 04 3b 00	 mov	 BYTE PTR [ebx+edi], 0

; 4317 :         if (_BUF_SIZE <= _Old_capacity) {

  000a5	83 f8 10	 cmp	 eax, 16			; 00000010H
  000a8	72 19		 jb	 SHORT $LN13@assign

; 4318 :             _Al.deallocate(_Mypair._Myval2._Bx._Ptr, _Old_capacity + 1);

  000aa	40		 inc	 eax
; File C:\Program Files (x86)\Microsoft Visual Studio\2019\Community\VC\Tools\MSVC\14.28.29333\include\xmemory

; 810  :         _Deallocate<_New_alignof<_Ty>>(_Ptr, sizeof(_Ty) * _Count);

  000ab	50		 push	 eax
  000ac	ff 36		 push	 DWORD PTR [esi]
  000ae	e8 00 00 00 00	 call	 ??$_Deallocate@$07$0A@@std@@YAXPAXI@Z ; std::_Deallocate<8,0>
; File C:\Program Files (x86)\Microsoft Visual Studio\2019\Community\VC\Tools\MSVC\14.28.29333\include\xstring

; 3059 :     }

  000b3	83 c4 08	 add	 esp, 8

; 4319 :             _Mypair._Myval2._Bx._Ptr = _New_ptr;

  000b6	89 1e		 mov	 DWORD PTR [esi], ebx

; 3059 :     }

  000b8	8b c6		 mov	 eax, esi
  000ba	5f		 pop	 edi
  000bb	5e		 pop	 esi
  000bc	5b		 pop	 ebx
  000bd	8b e5		 mov	 esp, ebp
  000bf	5d		 pop	 ebp
  000c0	c2 08 00	 ret	 8
$LN13@assign:

; 4321 :             _Construct_in_place(_Mypair._Myval2._Bx._Ptr, _New_ptr);

  000c3	8d 45 0c	 lea	 eax, DWORD PTR __New_ptr$1[ebp]
  000c6	50		 push	 eax
  000c7	56		 push	 esi
  000c8	e8 00 00 00 00	 call	 ??$_Construct_in_place@PADABQAD@std@@YAXAAPADABQAD@Z ; std::_Construct_in_place<char *,char * const &>

; 3059 :     }

  000cd	83 c4 08	 add	 esp, 8
  000d0	8b c6		 mov	 eax, esi
  000d2	5f		 pop	 edi
  000d3	5e		 pop	 esi
  000d4	5b		 pop	 ebx
  000d5	8b e5		 mov	 esp, ebp
  000d7	5d		 pop	 ebp
  000d8	c2 08 00	 ret	 8
$LN36@assign:

; 4306 :             _Xlen_string(); // result too long

  000db	e8 00 00 00 00	 call	 ?_Xlen_string@std@@YAXXZ ; std::_Xlen_string
$LN33@assign:
  000e0	cc		 int	 3
?assign@?$basic_string@DU?$char_traits@D@std@@V?$allocator@D@2@@std@@QAEAAV12@QBDI@Z ENDP ; std::basic_string<char,std::char_traits<char>,std::allocator<char> >::assign
_TEXT	ENDS
; Function compile flags: /Ogtp
; File C:\Program Files (x86)\Microsoft Visual Studio\2019\Community\VC\Tools\MSVC\14.28.29333\include\xstring
; File C:\Program Files (x86)\Microsoft Visual Studio\2019\Community\VC\Tools\MSVC\14.28.29333\include\xmemory
; File C:\Program Files (x86)\Microsoft Visual Studio\2019\Community\VC\Tools\MSVC\14.28.29333\include\xstring
;	COMDAT ??1?$basic_string@DU?$char_traits@D@std@@V?$allocator@D@2@@std@@QAE@XZ
_TEXT	SEGMENT
??1?$basic_string@DU?$char_traits@D@std@@V?$allocator@D@2@@std@@QAE@XZ PROC ; std::basic_string<char,std::char_traits<char>,std::allocator<char> >::~basic_string<char,std::char_traits<char>,std::allocator<char> >, COMDAT
; _this$ = ecx

; 2800 :     ~basic_string() noexcept {

  00000	56		 push	 esi
  00001	8b f1		 mov	 esi, ecx

; 2227 :         return _BUF_SIZE <= _Myres;

  00003	8b 46 14	 mov	 eax, DWORD PTR [esi+20]
  00006	83 f8 10	 cmp	 eax, 16			; 00000010H

; 4385 :         if (_Mypair._Myval2._Large_string_engaged()) {

  00009	72 0c		 jb	 SHORT $LN4@basic_stri

; 4386 :             const pointer _Ptr = _Mypair._Myval2._Bx._Ptr;
; 4387 :             auto& _Al          = _Getal();
; 4388 :             _Destroy_in_place(_Mypair._Myval2._Bx._Ptr);
; 4389 :             _Al.deallocate(_Ptr, _Mypair._Myval2._Myres + 1);

  0000b	40		 inc	 eax
; File C:\Program Files (x86)\Microsoft Visual Studio\2019\Community\VC\Tools\MSVC\14.28.29333\include\xmemory

; 810  :         _Deallocate<_New_alignof<_Ty>>(_Ptr, sizeof(_Ty) * _Count);

  0000c	50		 push	 eax
  0000d	ff 36		 push	 DWORD PTR [esi]
  0000f	e8 00 00 00 00	 call	 ??$_Deallocate@$07$0A@@std@@YAXPAXI@Z ; std::_Deallocate<8,0>
  00014	83 c4 08	 add	 esp, 8
$LN4@basic_stri:
; File C:\Program Files (x86)\Microsoft Visual Studio\2019\Community\VC\Tools\MSVC\14.28.29333\include\xstring

; 4392 :         _Mypair._Myval2._Mysize = 0;

  00017	c7 46 10 00 00
	00 00		 mov	 DWORD PTR [esi+16], 0

; 4393 :         _Mypair._Myval2._Myres  = _BUF_SIZE - 1;

  0001e	c7 46 14 0f 00
	00 00		 mov	 DWORD PTR [esi+20], 15	; 0000000fH

; 4394 :         // the _Traits::assign is last so the codegen doesn't think the char write can alias this
; 4395 :         _Traits::assign(_Mypair._Myval2._Bx._Buf[0], _Elem());

  00025	c6 06 00	 mov	 BYTE PTR [esi], 0
  00028	5e		 pop	 esi

; 2801 :         _Tidy_deallocate();
; 2802 : #if _ITERATOR_DEBUG_LEVEL != 0
; 2803 :         auto&& _Alproxy          = _GET_PROXY_ALLOCATOR(_Alty, _Getal());
; 2804 :         const auto _To_delete    = _Mypair._Myval2._Myproxy;
; 2805 :         _Mypair._Myval2._Myproxy = nullptr;
; 2806 :         _Delete_plain_internal(_Alproxy, _To_delete);
; 2807 : #endif // _ITERATOR_DEBUG_LEVEL != 0
; 2808 :     }

  00029	c3		 ret	 0
??1?$basic_string@DU?$char_traits@D@std@@V?$allocator@D@2@@std@@QAE@XZ ENDP ; std::basic_string<char,std::char_traits<char>,std::allocator<char> >::~basic_string<char,std::char_traits<char>,std::allocator<char> >
_TEXT	ENDS
; Function compile flags: /Ogtp
; File C:\Program Files (x86)\Microsoft Visual Studio\2019\Community\VC\Tools\MSVC\14.28.29333\include\xstring
;	COMDAT ??0?$basic_string@DU?$char_traits@D@std@@V?$allocator@D@2@@std@@QAE@QBD@Z
_TEXT	SEGMENT
__Ptr$ = 8						; size = 4
??0?$basic_string@DU?$char_traits@D@std@@V?$allocator@D@2@@std@@QAE@QBD@Z PROC ; std::basic_string<char,std::char_traits<char>,std::allocator<char> >::basic_string<char,std::char_traits<char>,std::allocator<char> >, COMDAT
; _this$ = ecx

; 2413 :     basic_string(_In_z_ const _Elem* const _Ptr) : _Mypair(_Zero_then_variadic_args_t{}) {

  00000	55		 push	 ebp
  00001	8b ec		 mov	 ebp, esp

; 389  :         return _CSTD strlen(reinterpret_cast<const char*>(_First));

  00003	8b 55 08	 mov	 edx, DWORD PTR __Ptr$[ebp]
  00006	8b c2		 mov	 eax, edx

; 2413 :     basic_string(_In_z_ const _Elem* const _Ptr) : _Mypair(_Zero_then_variadic_args_t{}) {

  00008	56		 push	 esi
  00009	8b f1		 mov	 esi, ecx
  0000b	57		 push	 edi

; 389  :         return _CSTD strlen(reinterpret_cast<const char*>(_First));

  0000c	8d 78 01	 lea	 edi, DWORD PTR [eax+1]

; 4377 :         _Mypair._Myval2._Mysize = 0;

  0000f	c7 46 10 00 00
	00 00		 mov	 DWORD PTR [esi+16], 0

; 4378 :         _Mypair._Myval2._Myres  = _BUF_SIZE - 1;

  00016	c7 46 14 0f 00
	00 00		 mov	 DWORD PTR [esi+20], 15	; 0000000fH

; 4379 :         // the _Traits::assign is last so the codegen doesn't think the char write can alias this
; 4380 :         _Traits::assign(_Mypair._Myval2._Bx._Buf[0], _Elem());

  0001d	c6 06 00	 mov	 BYTE PTR [esi], 0
$LL15@basic_stri:

; 389  :         return _CSTD strlen(reinterpret_cast<const char*>(_First));

  00020	8a 08		 mov	 cl, BYTE PTR [eax]
  00022	40		 inc	 eax
  00023	84 c9		 test	 cl, cl
  00025	75 f9		 jne	 SHORT $LL15@basic_stri
  00027	2b c7		 sub	 eax, edi

; 3062 :         return assign(_Ptr, _Convert_size<size_type>(_Traits::length(_Ptr)));

  00029	8b ce		 mov	 ecx, esi
  0002b	50		 push	 eax
  0002c	52		 push	 edx
  0002d	e8 00 00 00 00	 call	 ?assign@?$basic_string@DU?$char_traits@D@std@@V?$allocator@D@2@@std@@QAEAAV12@QBDI@Z ; std::basic_string<char,std::char_traits<char>,std::allocator<char> >::assign

; 2414 :         auto&& _Alproxy = _GET_PROXY_ALLOCATOR(_Alty, _Getal());
; 2415 :         _Container_proxy_ptr<_Alty> _Proxy(_Alproxy, _Mypair._Myval2);
; 2416 :         _Tidy_init();
; 2417 :         assign(_Ptr);
; 2418 :         _Proxy._Release();
; 2419 :     }

  00032	5f		 pop	 edi
  00033	8b c6		 mov	 eax, esi
  00035	5e		 pop	 esi
  00036	5d		 pop	 ebp
  00037	c2 04 00	 ret	 4
??0?$basic_string@DU?$char_traits@D@std@@V?$allocator@D@2@@std@@QAE@QBD@Z ENDP ; std::basic_string<char,std::char_traits<char>,std::allocator<char> >::basic_string<char,std::char_traits<char>,std::allocator<char> >
_TEXT	ENDS
; Function compile flags: /Ogtp
; File C:\Program Files (x86)\Microsoft Visual Studio\2019\Community\VC\Tools\MSVC\14.28.29333\include\xstring
;	COMDAT ?_Xlen_string@std@@YAXXZ
_TEXT	SEGMENT
?_Xlen_string@std@@YAXXZ PROC				; std::_Xlen_string, COMDAT

; 2275 :     _Xlength_error("string too long");

  00000	68 00 00 00 00	 push	 OFFSET ??_C@_0BA@JFNIOLAK@string?5too?5long@
  00005	e8 00 00 00 00	 call	 ?_Xlength_error@std@@YAXPBD@Z ; std::_Xlength_error
$LN3@Xlen_strin:
  0000a	cc		 int	 3
?_Xlen_string@std@@YAXXZ ENDP				; std::_Xlen_string
_TEXT	ENDS
; Function compile flags: /Ogtp
; File C:\Program Files (x86)\Microsoft Visual Studio\2019\Community\VC\Tools\MSVC\14.28.29333\include\exception
;	COMDAT ?_Throw_bad_array_new_length@std@@YAXXZ
_TEXT	SEGMENT
$T1 = -12						; size = 12
?_Throw_bad_array_new_length@std@@YAXXZ PROC		; std::_Throw_bad_array_new_length, COMDAT

; 320  : [[noreturn]] inline void _Throw_bad_array_new_length() {

  00000	55		 push	 ebp
  00001	8b ec		 mov	 ebp, esp
  00003	83 ec 0c	 sub	 esp, 12			; 0000000cH

; 321  :     _THROW(bad_array_new_length{});

  00006	8d 4d f4	 lea	 ecx, DWORD PTR $T1[ebp]
  00009	e8 00 00 00 00	 call	 ??0bad_array_new_length@std@@QAE@XZ ; std::bad_array_new_length::bad_array_new_length
  0000e	68 00 00 00 00	 push	 OFFSET __TI3?AVbad_array_new_length@std@@
  00013	8d 45 f4	 lea	 eax, DWORD PTR $T1[ebp]
  00016	50		 push	 eax
  00017	e8 00 00 00 00	 call	 __CxxThrowException@8
$LN3@Throw_bad_:
  0001c	cc		 int	 3
?_Throw_bad_array_new_length@std@@YAXXZ ENDP		; std::_Throw_bad_array_new_length
_TEXT	ENDS
; Function compile flags: /Ogtp
; File C:\Program Files (x86)\Microsoft Visual Studio\2019\Community\VC\Tools\MSVC\14.28.29333\include\vcruntime_exception.h
;	COMDAT ??_Gbad_array_new_length@std@@UAEPAXI@Z
_TEXT	SEGMENT
___flags$ = 8						; size = 4
??_Gbad_array_new_length@std@@UAEPAXI@Z PROC		; std::bad_array_new_length::`scalar deleting destructor', COMDAT
; _this$ = ecx
  00000	55		 push	 ebp
  00001	8b ec		 mov	 ebp, esp

; 89   :     {

  00003	56		 push	 esi
  00004	8b f1		 mov	 esi, ecx

; 90   :         __std_exception_destroy(&_Data);

  00006	8d 46 04	 lea	 eax, DWORD PTR [esi+4]
  00009	c7 06 00 00 00
	00		 mov	 DWORD PTR [esi], OFFSET ??_7exception@std@@6B@
  0000f	50		 push	 eax
  00010	e8 00 00 00 00	 call	 ___std_exception_destroy
  00015	83 c4 04	 add	 esp, 4
  00018	f6 45 08 01	 test	 BYTE PTR ___flags$[ebp], 1
  0001c	74 0b		 je	 SHORT $LN12@scalar
  0001e	6a 0c		 push	 12			; 0000000cH
  00020	56		 push	 esi
  00021	e8 00 00 00 00	 call	 ??3@YAXPAXI@Z		; operator delete
  00026	83 c4 08	 add	 esp, 8
$LN12@scalar:
  00029	8b c6		 mov	 eax, esi
  0002b	5e		 pop	 esi
  0002c	5d		 pop	 ebp
  0002d	c2 04 00	 ret	 4
??_Gbad_array_new_length@std@@UAEPAXI@Z ENDP		; std::bad_array_new_length::`scalar deleting destructor'
_TEXT	ENDS
; Function compile flags: /Ogtp
; File C:\Program Files (x86)\Microsoft Visual Studio\2019\Community\VC\Tools\MSVC\14.28.29333\include\vcruntime_exception.h
;	COMDAT ??0bad_array_new_length@std@@QAE@ABV01@@Z
_TEXT	SEGMENT
___that$ = 8						; size = 4
??0bad_array_new_length@std@@QAE@ABV01@@Z PROC		; std::bad_array_new_length::bad_array_new_length, COMDAT
; _this$ = ecx
  00000	55		 push	 ebp
  00001	8b ec		 mov	 ebp, esp

; 72   :     {

  00003	56		 push	 esi
  00004	8b f1		 mov	 esi, ecx
  00006	0f 57 c0	 xorps	 xmm0, xmm0

; 71   :         : _Data()

  00009	8d 46 04	 lea	 eax, DWORD PTR [esi+4]

; 73   :         __std_exception_copy(&_Other._Data, &_Data);

  0000c	50		 push	 eax
  0000d	c7 06 00 00 00
	00		 mov	 DWORD PTR [esi], OFFSET ??_7exception@std@@6B@
  00013	66 0f d6 00	 movq	 QWORD PTR [eax], xmm0
  00017	8b 45 08	 mov	 eax, DWORD PTR ___that$[ebp]
  0001a	83 c0 04	 add	 eax, 4
  0001d	50		 push	 eax
  0001e	e8 00 00 00 00	 call	 ___std_exception_copy
  00023	83 c4 08	 add	 esp, 8
  00026	c7 06 00 00 00
	00		 mov	 DWORD PTR [esi], OFFSET ??_7bad_array_new_length@std@@6B@
  0002c	8b c6		 mov	 eax, esi
  0002e	5e		 pop	 esi
  0002f	5d		 pop	 ebp
  00030	c2 04 00	 ret	 4
??0bad_array_new_length@std@@QAE@ABV01@@Z ENDP		; std::bad_array_new_length::bad_array_new_length
_TEXT	ENDS
; Function compile flags: /Ogtp
; File C:\Program Files (x86)\Microsoft Visual Studio\2019\Community\VC\Tools\MSVC\14.28.29333\include\vcruntime_exception.h
;	COMDAT ??1bad_array_new_length@std@@UAE@XZ
_TEXT	SEGMENT
??1bad_array_new_length@std@@UAE@XZ PROC		; std::bad_array_new_length::~bad_array_new_length, COMDAT
; _this$ = ecx

; 90   :         __std_exception_destroy(&_Data);

  00000	8d 41 04	 lea	 eax, DWORD PTR [ecx+4]
  00003	c7 01 00 00 00
	00		 mov	 DWORD PTR [ecx], OFFSET ??_7exception@std@@6B@
  00009	50		 push	 eax
  0000a	e8 00 00 00 00	 call	 ___std_exception_destroy
  0000f	59		 pop	 ecx
  00010	c3		 ret	 0
??1bad_array_new_length@std@@UAE@XZ ENDP		; std::bad_array_new_length::~bad_array_new_length
_TEXT	ENDS
; Function compile flags: /Ogtp
; File C:\Program Files (x86)\Microsoft Visual Studio\2019\Community\VC\Tools\MSVC\14.28.29333\include\vcruntime_exception.h
;	COMDAT ??0bad_array_new_length@std@@QAE@XZ
_TEXT	SEGMENT
??0bad_array_new_length@std@@QAE@XZ PROC		; std::bad_array_new_length::bad_array_new_length, COMDAT
; _this$ = ecx

; 141  :     {

  00000	0f 57 c0	 xorps	 xmm0, xmm0

; 142  :     }

  00003	8b c1		 mov	 eax, ecx

; 65   :         : _Data()

  00005	66 0f d6 41 04	 movq	 QWORD PTR [ecx+4], xmm0

; 66   :     {
; 67   :         _Data._What = _Message;

  0000a	c7 41 04 00 00
	00 00		 mov	 DWORD PTR [ecx+4], OFFSET ??_C@_0BF@KINCDENJ@bad?5array?5new?5length@

; 141  :     {

  00011	c7 01 00 00 00
	00		 mov	 DWORD PTR [ecx], OFFSET ??_7bad_array_new_length@std@@6B@

; 142  :     }

  00017	c3		 ret	 0
??0bad_array_new_length@std@@QAE@XZ ENDP		; std::bad_array_new_length::bad_array_new_length
_TEXT	ENDS
; Function compile flags: /Ogtp
; File C:\Program Files (x86)\Microsoft Visual Studio\2019\Community\VC\Tools\MSVC\14.28.29333\include\vcruntime_exception.h
;	COMDAT ??_Gbad_alloc@std@@UAEPAXI@Z
_TEXT	SEGMENT
___flags$ = 8						; size = 4
??_Gbad_alloc@std@@UAEPAXI@Z PROC			; std::bad_alloc::`scalar deleting destructor', COMDAT
; _this$ = ecx
  00000	55		 push	 ebp
  00001	8b ec		 mov	 ebp, esp

; 89   :     {

  00003	56		 push	 esi
  00004	8b f1		 mov	 esi, ecx

; 90   :         __std_exception_destroy(&_Data);

  00006	8d 46 04	 lea	 eax, DWORD PTR [esi+4]
  00009	c7 06 00 00 00
	00		 mov	 DWORD PTR [esi], OFFSET ??_7exception@std@@6B@
  0000f	50		 push	 eax
  00010	e8 00 00 00 00	 call	 ___std_exception_destroy
  00015	83 c4 04	 add	 esp, 4
  00018	f6 45 08 01	 test	 BYTE PTR ___flags$[ebp], 1
  0001c	74 0b		 je	 SHORT $LN9@scalar
  0001e	6a 0c		 push	 12			; 0000000cH
  00020	56		 push	 esi
  00021	e8 00 00 00 00	 call	 ??3@YAXPAXI@Z		; operator delete
  00026	83 c4 08	 add	 esp, 8
$LN9@scalar:
  00029	8b c6		 mov	 eax, esi
  0002b	5e		 pop	 esi
  0002c	5d		 pop	 ebp
  0002d	c2 04 00	 ret	 4
??_Gbad_alloc@std@@UAEPAXI@Z ENDP			; std::bad_alloc::`scalar deleting destructor'
_TEXT	ENDS
; Function compile flags: /Ogtp
; File C:\Program Files (x86)\Microsoft Visual Studio\2019\Community\VC\Tools\MSVC\14.28.29333\include\vcruntime_exception.h
;	COMDAT ??0bad_alloc@std@@QAE@ABV01@@Z
_TEXT	SEGMENT
___that$ = 8						; size = 4
??0bad_alloc@std@@QAE@ABV01@@Z PROC			; std::bad_alloc::bad_alloc, COMDAT
; _this$ = ecx
  00000	55		 push	 ebp
  00001	8b ec		 mov	 ebp, esp

; 72   :     {

  00003	56		 push	 esi
  00004	8b f1		 mov	 esi, ecx
  00006	0f 57 c0	 xorps	 xmm0, xmm0

; 71   :         : _Data()

  00009	8d 46 04	 lea	 eax, DWORD PTR [esi+4]

; 73   :         __std_exception_copy(&_Other._Data, &_Data);

  0000c	50		 push	 eax
  0000d	c7 06 00 00 00
	00		 mov	 DWORD PTR [esi], OFFSET ??_7exception@std@@6B@
  00013	66 0f d6 00	 movq	 QWORD PTR [eax], xmm0
  00017	8b 45 08	 mov	 eax, DWORD PTR ___that$[ebp]
  0001a	83 c0 04	 add	 eax, 4
  0001d	50		 push	 eax
  0001e	e8 00 00 00 00	 call	 ___std_exception_copy
  00023	83 c4 08	 add	 esp, 8
  00026	c7 06 00 00 00
	00		 mov	 DWORD PTR [esi], OFFSET ??_7bad_alloc@std@@6B@
  0002c	8b c6		 mov	 eax, esi
  0002e	5e		 pop	 esi
  0002f	5d		 pop	 ebp
  00030	c2 04 00	 ret	 4
??0bad_alloc@std@@QAE@ABV01@@Z ENDP			; std::bad_alloc::bad_alloc
_TEXT	ENDS
; Function compile flags: /Ogtp
; File C:\Program Files (x86)\Microsoft Visual Studio\2019\Community\VC\Tools\MSVC\14.28.29333\include\vcruntime_exception.h
;	COMDAT ??_Gexception@std@@UAEPAXI@Z
_TEXT	SEGMENT
___flags$ = 8						; size = 4
??_Gexception@std@@UAEPAXI@Z PROC			; std::exception::`scalar deleting destructor', COMDAT
; _this$ = ecx
  00000	55		 push	 ebp
  00001	8b ec		 mov	 ebp, esp

; 89   :     {

  00003	56		 push	 esi
  00004	8b f1		 mov	 esi, ecx

; 90   :         __std_exception_destroy(&_Data);

  00006	8d 46 04	 lea	 eax, DWORD PTR [esi+4]
  00009	c7 06 00 00 00
	00		 mov	 DWORD PTR [esi], OFFSET ??_7exception@std@@6B@
  0000f	50		 push	 eax
  00010	e8 00 00 00 00	 call	 ___std_exception_destroy
  00015	83 c4 04	 add	 esp, 4
  00018	f6 45 08 01	 test	 BYTE PTR ___flags$[ebp], 1
  0001c	74 0b		 je	 SHORT $LN6@scalar
  0001e	6a 0c		 push	 12			; 0000000cH
  00020	56		 push	 esi
  00021	e8 00 00 00 00	 call	 ??3@YAXPAXI@Z		; operator delete
  00026	83 c4 08	 add	 esp, 8
$LN6@scalar:
  00029	8b c6		 mov	 eax, esi
  0002b	5e		 pop	 esi
  0002c	5d		 pop	 ebp
  0002d	c2 04 00	 ret	 4
??_Gexception@std@@UAEPAXI@Z ENDP			; std::exception::`scalar deleting destructor'
_TEXT	ENDS
; Function compile flags: /Ogtp
; File C:\Program Files (x86)\Microsoft Visual Studio\2019\Community\VC\Tools\MSVC\14.28.29333\include\vcruntime_exception.h
;	COMDAT ?what@exception@std@@UBEPBDXZ
_TEXT	SEGMENT
?what@exception@std@@UBEPBDXZ PROC			; std::exception::what, COMDAT
; _this$ = ecx

; 95   :         return _Data._What ? _Data._What : "Unknown exception";

  00000	8b 49 04	 mov	 ecx, DWORD PTR [ecx+4]
  00003	b8 00 00 00 00	 mov	 eax, OFFSET ??_C@_0BC@EOODALEL@Unknown?5exception@
  00008	85 c9		 test	 ecx, ecx
  0000a	0f 45 c1	 cmovne	 eax, ecx

; 96   :     }

  0000d	c3		 ret	 0
?what@exception@std@@UBEPBDXZ ENDP			; std::exception::what
_TEXT	ENDS
; Function compile flags: /Ogtp
; File C:\Program Files (x86)\Microsoft Visual Studio\2019\Community\VC\Tools\MSVC\14.28.29333\include\vcruntime_exception.h
;	COMDAT ??1exception@std@@UAE@XZ
_TEXT	SEGMENT
??1exception@std@@UAE@XZ PROC				; std::exception::~exception, COMDAT
; _this$ = ecx

; 90   :         __std_exception_destroy(&_Data);

  00000	8d 41 04	 lea	 eax, DWORD PTR [ecx+4]
  00003	c7 01 00 00 00
	00		 mov	 DWORD PTR [ecx], OFFSET ??_7exception@std@@6B@
  00009	50		 push	 eax
  0000a	e8 00 00 00 00	 call	 ___std_exception_destroy
  0000f	59		 pop	 ecx

; 91   :     }

  00010	c3		 ret	 0
??1exception@std@@UAE@XZ ENDP				; std::exception::~exception
_TEXT	ENDS
; Function compile flags: /Ogtp
; File C:\Program Files (x86)\Microsoft Visual Studio\2019\Community\VC\Tools\MSVC\14.28.29333\include\vcruntime_exception.h
;	COMDAT ??0exception@std@@QAE@ABV01@@Z
_TEXT	SEGMENT
__Other$ = 8						; size = 4
??0exception@std@@QAE@ABV01@@Z PROC			; std::exception::exception, COMDAT
; _this$ = ecx

; 72   :     {

  00000	55		 push	 ebp
  00001	8b ec		 mov	 ebp, esp
  00003	56		 push	 esi
  00004	8b f1		 mov	 esi, ecx
  00006	0f 57 c0	 xorps	 xmm0, xmm0
  00009	8d 46 04	 lea	 eax, DWORD PTR [esi+4]

; 73   :         __std_exception_copy(&_Other._Data, &_Data);

  0000c	50		 push	 eax
  0000d	c7 06 00 00 00
	00		 mov	 DWORD PTR [esi], OFFSET ??_7exception@std@@6B@
  00013	66 0f d6 00	 movq	 QWORD PTR [eax], xmm0
  00017	8b 45 08	 mov	 eax, DWORD PTR __Other$[ebp]
  0001a	83 c0 04	 add	 eax, 4
  0001d	50		 push	 eax
  0001e	e8 00 00 00 00	 call	 ___std_exception_copy
  00023	83 c4 08	 add	 esp, 8

; 74   :     }

  00026	8b c6		 mov	 eax, esi
  00028	5e		 pop	 esi
  00029	5d		 pop	 ebp
  0002a	c2 04 00	 ret	 4
??0exception@std@@QAE@ABV01@@Z ENDP			; std::exception::exception
_TEXT	ENDS
END
