; Listing generated by Microsoft (R) Optimizing Compiler Version 19.28.29335.0 

	TITLE	D:\Metin2 Server Files\mainline\SRC_2014\Metin2Client\UserInterface\PythonTextTail.cpp
	.686P
	.XMM
	include listing.inc
	.model	flat

INCLUDELIB LIBCMT
INCLUDELIB OLDNAMES

PUBLIC	??_7?$CDynamicPoolEx@VCTextureAnimationRandomDecorator@NEffectUpdateDecorator@@@@6B@ ; CDynamicPoolEx<NEffectUpdateDecorator::CTextureAnimationRandomDecorator>::`vftable'
PUBLIC	??_G?$CDynamicPoolEx@VCTextureAnimationRandomDecorator@NEffectUpdateDecorator@@@@UAEPAXI@Z ; CDynamicPoolEx<NEffectUpdateDecorator::CTextureAnimationRandomDecorator>::`scalar deleting destructor'
PUBLIC	??_7?$CDynamicPoolEx@VCTextureAnimationCCWDecorator@NEffectUpdateDecorator@@@@6B@ ; CDynamicPoolEx<NEffectUpdateDecorator::CTextureAnimationCCWDecorator>::`vftable'
PUBLIC	??_G?$CDynamicPoolEx@VCTextureAnimationCCWDecorator@NEffectUpdateDecorator@@@@UAEPAXI@Z ; CDynamicPoolEx<NEffectUpdateDecorator::CTextureAnimationCCWDecorator>::`scalar deleting destructor'
PUBLIC	??_7?$CDynamicPoolEx@VCTextureAnimationCWDecorator@NEffectUpdateDecorator@@@@6B@ ; CDynamicPoolEx<NEffectUpdateDecorator::CTextureAnimationCWDecorator>::`vftable'
PUBLIC	??_G?$CDynamicPoolEx@VCTextureAnimationCWDecorator@NEffectUpdateDecorator@@@@UAEPAXI@Z ; CDynamicPoolEx<NEffectUpdateDecorator::CTextureAnimationCWDecorator>::`scalar deleting destructor'
PUBLIC	??_7?$CDynamicPoolEx@VCNullDecorator@NEffectUpdateDecorator@@@@6B@ ; CDynamicPoolEx<NEffectUpdateDecorator::CNullDecorator>::`vftable'
PUBLIC	??_G?$CDynamicPoolEx@VCNullDecorator@NEffectUpdateDecorator@@@@UAEPAXI@Z ; CDynamicPoolEx<NEffectUpdateDecorator::CNullDecorator>::`scalar deleting destructor'
PUBLIC	??_7?$CDynamicPoolEx@VCHeaderDecorator@NEffectUpdateDecorator@@@@6B@ ; CDynamicPoolEx<NEffectUpdateDecorator::CHeaderDecorator>::`vftable'
PUBLIC	??_G?$CDynamicPoolEx@VCHeaderDecorator@NEffectUpdateDecorator@@@@UAEPAXI@Z ; CDynamicPoolEx<NEffectUpdateDecorator::CHeaderDecorator>::`scalar deleting destructor'
PUBLIC	??_R4?$CDynamicPoolEx@VCHeaderDecorator@NEffectUpdateDecorator@@@@6B@ ; CDynamicPoolEx<NEffectUpdateDecorator::CHeaderDecorator>::`RTTI Complete Object Locator'
PUBLIC	??_R0?AV?$CDynamicPoolEx@VCHeaderDecorator@NEffectUpdateDecorator@@@@@8 ; CDynamicPoolEx<NEffectUpdateDecorator::CHeaderDecorator> `RTTI Type Descriptor'
PUBLIC	??_R3?$CDynamicPoolEx@VCHeaderDecorator@NEffectUpdateDecorator@@@@8 ; CDynamicPoolEx<NEffectUpdateDecorator::CHeaderDecorator>::`RTTI Class Hierarchy Descriptor'
PUBLIC	??_R2?$CDynamicPoolEx@VCHeaderDecorator@NEffectUpdateDecorator@@@@8 ; CDynamicPoolEx<NEffectUpdateDecorator::CHeaderDecorator>::`RTTI Base Class Array'
PUBLIC	??_R1A@?0A@EA@?$CDynamicPoolEx@VCHeaderDecorator@NEffectUpdateDecorator@@@@8 ; CDynamicPoolEx<NEffectUpdateDecorator::CHeaderDecorator>::`RTTI Base Class Descriptor at (0,-1,0,64)'
PUBLIC	??_R4?$CDynamicPoolEx@VCNullDecorator@NEffectUpdateDecorator@@@@6B@ ; CDynamicPoolEx<NEffectUpdateDecorator::CNullDecorator>::`RTTI Complete Object Locator'
PUBLIC	??_R0?AV?$CDynamicPoolEx@VCNullDecorator@NEffectUpdateDecorator@@@@@8 ; CDynamicPoolEx<NEffectUpdateDecorator::CNullDecorator> `RTTI Type Descriptor'
PUBLIC	??_R3?$CDynamicPoolEx@VCNullDecorator@NEffectUpdateDecorator@@@@8 ; CDynamicPoolEx<NEffectUpdateDecorator::CNullDecorator>::`RTTI Class Hierarchy Descriptor'
PUBLIC	??_R2?$CDynamicPoolEx@VCNullDecorator@NEffectUpdateDecorator@@@@8 ; CDynamicPoolEx<NEffectUpdateDecorator::CNullDecorator>::`RTTI Base Class Array'
PUBLIC	??_R1A@?0A@EA@?$CDynamicPoolEx@VCNullDecorator@NEffectUpdateDecorator@@@@8 ; CDynamicPoolEx<NEffectUpdateDecorator::CNullDecorator>::`RTTI Base Class Descriptor at (0,-1,0,64)'
PUBLIC	??_R4?$CDynamicPoolEx@VCTextureAnimationCWDecorator@NEffectUpdateDecorator@@@@6B@ ; CDynamicPoolEx<NEffectUpdateDecorator::CTextureAnimationCWDecorator>::`RTTI Complete Object Locator'
PUBLIC	??_R0?AV?$CDynamicPoolEx@VCTextureAnimationCWDecorator@NEffectUpdateDecorator@@@@@8 ; CDynamicPoolEx<NEffectUpdateDecorator::CTextureAnimationCWDecorator> `RTTI Type Descriptor'
PUBLIC	??_R3?$CDynamicPoolEx@VCTextureAnimationCWDecorator@NEffectUpdateDecorator@@@@8 ; CDynamicPoolEx<NEffectUpdateDecorator::CTextureAnimationCWDecorator>::`RTTI Class Hierarchy Descriptor'
PUBLIC	??_R2?$CDynamicPoolEx@VCTextureAnimationCWDecorator@NEffectUpdateDecorator@@@@8 ; CDynamicPoolEx<NEffectUpdateDecorator::CTextureAnimationCWDecorator>::`RTTI Base Class Array'
PUBLIC	??_R1A@?0A@EA@?$CDynamicPoolEx@VCTextureAnimationCWDecorator@NEffectUpdateDecorator@@@@8 ; CDynamicPoolEx<NEffectUpdateDecorator::CTextureAnimationCWDecorator>::`RTTI Base Class Descriptor at (0,-1,0,64)'
PUBLIC	??_R4?$CDynamicPoolEx@VCTextureAnimationCCWDecorator@NEffectUpdateDecorator@@@@6B@ ; CDynamicPoolEx<NEffectUpdateDecorator::CTextureAnimationCCWDecorator>::`RTTI Complete Object Locator'
PUBLIC	??_R0?AV?$CDynamicPoolEx@VCTextureAnimationCCWDecorator@NEffectUpdateDecorator@@@@@8 ; CDynamicPoolEx<NEffectUpdateDecorator::CTextureAnimationCCWDecorator> `RTTI Type Descriptor'
PUBLIC	??_R3?$CDynamicPoolEx@VCTextureAnimationCCWDecorator@NEffectUpdateDecorator@@@@8 ; CDynamicPoolEx<NEffectUpdateDecorator::CTextureAnimationCCWDecorator>::`RTTI Class Hierarchy Descriptor'
PUBLIC	??_R2?$CDynamicPoolEx@VCTextureAnimationCCWDecorator@NEffectUpdateDecorator@@@@8 ; CDynamicPoolEx<NEffectUpdateDecorator::CTextureAnimationCCWDecorator>::`RTTI Base Class Array'
PUBLIC	??_R1A@?0A@EA@?$CDynamicPoolEx@VCTextureAnimationCCWDecorator@NEffectUpdateDecorator@@@@8 ; CDynamicPoolEx<NEffectUpdateDecorator::CTextureAnimationCCWDecorator>::`RTTI Base Class Descriptor at (0,-1,0,64)'
PUBLIC	??_R4?$CDynamicPoolEx@VCTextureAnimationRandomDecorator@NEffectUpdateDecorator@@@@6B@ ; CDynamicPoolEx<NEffectUpdateDecorator::CTextureAnimationRandomDecorator>::`RTTI Complete Object Locator'
PUBLIC	??_R0?AV?$CDynamicPoolEx@VCTextureAnimationRandomDecorator@NEffectUpdateDecorator@@@@@8 ; CDynamicPoolEx<NEffectUpdateDecorator::CTextureAnimationRandomDecorator> `RTTI Type Descriptor'
PUBLIC	??_R3?$CDynamicPoolEx@VCTextureAnimationRandomDecorator@NEffectUpdateDecorator@@@@8 ; CDynamicPoolEx<NEffectUpdateDecorator::CTextureAnimationRandomDecorator>::`RTTI Class Hierarchy Descriptor'
PUBLIC	??_R2?$CDynamicPoolEx@VCTextureAnimationRandomDecorator@NEffectUpdateDecorator@@@@8 ; CDynamicPoolEx<NEffectUpdateDecorator::CTextureAnimationRandomDecorator>::`RTTI Base Class Array'
PUBLIC	??_R1A@?0A@EA@?$CDynamicPoolEx@VCTextureAnimationRandomDecorator@NEffectUpdateDecorator@@@@8 ; CDynamicPoolEx<NEffectUpdateDecorator::CTextureAnimationRandomDecorator>::`RTTI Base Class Descriptor at (0,-1,0,64)'
PUBLIC	??_R4?$CDynamicPoolEx@VCAirResistanceDecorator@NEffectUpdateDecorator@@@@6B@ ; CDynamicPoolEx<NEffectUpdateDecorator::CAirResistanceDecorator>::`RTTI Complete Object Locator'
PUBLIC	??_R0?AV?$CDynamicPoolEx@VCAirResistanceDecorator@NEffectUpdateDecorator@@@@@8 ; CDynamicPoolEx<NEffectUpdateDecorator::CAirResistanceDecorator> `RTTI Type Descriptor'
PUBLIC	??_R3?$CDynamicPoolEx@VCAirResistanceDecorator@NEffectUpdateDecorator@@@@8 ; CDynamicPoolEx<NEffectUpdateDecorator::CAirResistanceDecorator>::`RTTI Class Hierarchy Descriptor'
PUBLIC	??_R2?$CDynamicPoolEx@VCAirResistanceDecorator@NEffectUpdateDecorator@@@@8 ; CDynamicPoolEx<NEffectUpdateDecorator::CAirResistanceDecorator>::`RTTI Base Class Array'
PUBLIC	??_R1A@?0A@EA@?$CDynamicPoolEx@VCAirResistanceDecorator@NEffectUpdateDecorator@@@@8 ; CDynamicPoolEx<NEffectUpdateDecorator::CAirResistanceDecorator>::`RTTI Base Class Descriptor at (0,-1,0,64)'
PUBLIC	??_R4?$CDynamicPoolEx@VCGravityDecorator@NEffectUpdateDecorator@@@@6B@ ; CDynamicPoolEx<NEffectUpdateDecorator::CGravityDecorator>::`RTTI Complete Object Locator'
PUBLIC	??_R0?AV?$CDynamicPoolEx@VCGravityDecorator@NEffectUpdateDecorator@@@@@8 ; CDynamicPoolEx<NEffectUpdateDecorator::CGravityDecorator> `RTTI Type Descriptor'
PUBLIC	??_R3?$CDynamicPoolEx@VCGravityDecorator@NEffectUpdateDecorator@@@@8 ; CDynamicPoolEx<NEffectUpdateDecorator::CGravityDecorator>::`RTTI Class Hierarchy Descriptor'
PUBLIC	??_R2?$CDynamicPoolEx@VCGravityDecorator@NEffectUpdateDecorator@@@@8 ; CDynamicPoolEx<NEffectUpdateDecorator::CGravityDecorator>::`RTTI Base Class Array'
PUBLIC	??_R1A@?0A@EA@?$CDynamicPoolEx@VCGravityDecorator@NEffectUpdateDecorator@@@@8 ; CDynamicPoolEx<NEffectUpdateDecorator::CGravityDecorator>::`RTTI Base Class Descriptor at (0,-1,0,64)'
PUBLIC	??_R4?$CDynamicPoolEx@VCRotationDecorator@NEffectUpdateDecorator@@@@6B@ ; CDynamicPoolEx<NEffectUpdateDecorator::CRotationDecorator>::`RTTI Complete Object Locator'
PUBLIC	??_R0?AV?$CDynamicPoolEx@VCRotationDecorator@NEffectUpdateDecorator@@@@@8 ; CDynamicPoolEx<NEffectUpdateDecorator::CRotationDecorator> `RTTI Type Descriptor'
PUBLIC	??_R3?$CDynamicPoolEx@VCRotationDecorator@NEffectUpdateDecorator@@@@8 ; CDynamicPoolEx<NEffectUpdateDecorator::CRotationDecorator>::`RTTI Class Hierarchy Descriptor'
PUBLIC	??_R2?$CDynamicPoolEx@VCRotationDecorator@NEffectUpdateDecorator@@@@8 ; CDynamicPoolEx<NEffectUpdateDecorator::CRotationDecorator>::`RTTI Base Class Array'
PUBLIC	??_R1A@?0A@EA@?$CDynamicPoolEx@VCRotationDecorator@NEffectUpdateDecorator@@@@8 ; CDynamicPoolEx<NEffectUpdateDecorator::CRotationDecorator>::`RTTI Base Class Descriptor at (0,-1,0,64)'
PUBLIC	?bPKTitleEnable@@3HA				; bPKTitleEnable
PUBLIC	?gs_TextTail_LivingTime@@3JA			; gs_TextTail_LivingTime
PUBLIC	?ms_pFont@@3PAVCGraphicText@@A			; ms_pFont
PUBLIC	??_7?$CDynamicPoolEx@VCRotationDecorator@NEffectUpdateDecorator@@@@6B@ ; CDynamicPoolEx<NEffectUpdateDecorator::CRotationDecorator>::`vftable'
PUBLIC	??_G?$CDynamicPoolEx@VCRotationDecorator@NEffectUpdateDecorator@@@@UAEPAXI@Z ; CDynamicPoolEx<NEffectUpdateDecorator::CRotationDecorator>::`scalar deleting destructor'
PUBLIC	??_7?$CDynamicPoolEx@VCGravityDecorator@NEffectUpdateDecorator@@@@6B@ ; CDynamicPoolEx<NEffectUpdateDecorator::CGravityDecorator>::`vftable'
PUBLIC	??_G?$CDynamicPoolEx@VCGravityDecorator@NEffectUpdateDecorator@@@@UAEPAXI@Z ; CDynamicPoolEx<NEffectUpdateDecorator::CGravityDecorator>::`scalar deleting destructor'
PUBLIC	??_7?$CDynamicPoolEx@VCAirResistanceDecorator@NEffectUpdateDecorator@@@@6B@ ; CDynamicPoolEx<NEffectUpdateDecorator::CAirResistanceDecorator>::`vftable'
PUBLIC	??_G?$CDynamicPoolEx@VCAirResistanceDecorator@NEffectUpdateDecorator@@@@UAEPAXI@Z ; CDynamicPoolEx<NEffectUpdateDecorator::CAirResistanceDecorator>::`scalar deleting destructor'
EXTRN	??_E?$CDynamicPoolEx@VCTextureAnimationRandomDecorator@NEffectUpdateDecorator@@@@UAEPAXI@Z:PROC ; CDynamicPoolEx<NEffectUpdateDecorator::CTextureAnimationRandomDecorator>::`vector deleting destructor'
EXTRN	??_E?$CDynamicPoolEx@VCTextureAnimationCCWDecorator@NEffectUpdateDecorator@@@@UAEPAXI@Z:PROC ; CDynamicPoolEx<NEffectUpdateDecorator::CTextureAnimationCCWDecorator>::`vector deleting destructor'
EXTRN	??_E?$CDynamicPoolEx@VCTextureAnimationCWDecorator@NEffectUpdateDecorator@@@@UAEPAXI@Z:PROC ; CDynamicPoolEx<NEffectUpdateDecorator::CTextureAnimationCWDecorator>::`vector deleting destructor'
EXTRN	??_E?$CDynamicPoolEx@VCNullDecorator@NEffectUpdateDecorator@@@@UAEPAXI@Z:PROC ; CDynamicPoolEx<NEffectUpdateDecorator::CNullDecorator>::`vector deleting destructor'
EXTRN	??_E?$CDynamicPoolEx@VCHeaderDecorator@NEffectUpdateDecorator@@@@UAEPAXI@Z:PROC ; CDynamicPoolEx<NEffectUpdateDecorator::CHeaderDecorator>::`vector deleting destructor'
EXTRN	??_7type_info@@6B@:QWORD			; type_info::`vftable'
EXTRN	??_E?$CDynamicPoolEx@VCRotationDecorator@NEffectUpdateDecorator@@@@UAEPAXI@Z:PROC ; CDynamicPoolEx<NEffectUpdateDecorator::CRotationDecorator>::`vector deleting destructor'
EXTRN	??_E?$CDynamicPoolEx@VCGravityDecorator@NEffectUpdateDecorator@@@@UAEPAXI@Z:PROC ; CDynamicPoolEx<NEffectUpdateDecorator::CGravityDecorator>::`vector deleting destructor'
EXTRN	??_E?$CDynamicPoolEx@VCAirResistanceDecorator@NEffectUpdateDecorator@@@@UAEPAXI@Z:PROC ; CDynamicPoolEx<NEffectUpdateDecorator::CAirResistanceDecorator>::`vector deleting destructor'
_BSS	SEGMENT
?ms_pFont@@3PAVCGraphicText@@A DD 01H DUP (?)		; ms_pFont
_BSS	ENDS
;	COMDAT ??_7?$CDynamicPoolEx@VCAirResistanceDecorator@NEffectUpdateDecorator@@@@6B@
CONST	SEGMENT
??_7?$CDynamicPoolEx@VCAirResistanceDecorator@NEffectUpdateDecorator@@@@6B@ DD FLAT:??_R4?$CDynamicPoolEx@VCAirResistanceDecorator@NEffectUpdateDecorator@@@@6B@ ; CDynamicPoolEx<NEffectUpdateDecorator::CAirResistanceDecorator>::`vftable'
	DD	FLAT:??_E?$CDynamicPoolEx@VCAirResistanceDecorator@NEffectUpdateDecorator@@@@UAEPAXI@Z
CONST	ENDS
;	COMDAT ??_7?$CDynamicPoolEx@VCGravityDecorator@NEffectUpdateDecorator@@@@6B@
CONST	SEGMENT
??_7?$CDynamicPoolEx@VCGravityDecorator@NEffectUpdateDecorator@@@@6B@ DD FLAT:??_R4?$CDynamicPoolEx@VCGravityDecorator@NEffectUpdateDecorator@@@@6B@ ; CDynamicPoolEx<NEffectUpdateDecorator::CGravityDecorator>::`vftable'
	DD	FLAT:??_E?$CDynamicPoolEx@VCGravityDecorator@NEffectUpdateDecorator@@@@UAEPAXI@Z
CONST	ENDS
;	COMDAT ??_7?$CDynamicPoolEx@VCRotationDecorator@NEffectUpdateDecorator@@@@6B@
CONST	SEGMENT
??_7?$CDynamicPoolEx@VCRotationDecorator@NEffectUpdateDecorator@@@@6B@ DD FLAT:??_R4?$CDynamicPoolEx@VCRotationDecorator@NEffectUpdateDecorator@@@@6B@ ; CDynamicPoolEx<NEffectUpdateDecorator::CRotationDecorator>::`vftable'
	DD	FLAT:??_E?$CDynamicPoolEx@VCRotationDecorator@NEffectUpdateDecorator@@@@UAEPAXI@Z
CONST	ENDS
_DATA	SEGMENT
?bPKTitleEnable@@3HA DD 01H				; bPKTitleEnable
?gs_TextTail_LivingTime@@3JA DD 01388H			; gs_TextTail_LivingTime
_DATA	ENDS
;	COMDAT ??_R1A@?0A@EA@?$CDynamicPoolEx@VCRotationDecorator@NEffectUpdateDecorator@@@@8
rdata$r	SEGMENT
??_R1A@?0A@EA@?$CDynamicPoolEx@VCRotationDecorator@NEffectUpdateDecorator@@@@8 DD FLAT:??_R0?AV?$CDynamicPoolEx@VCRotationDecorator@NEffectUpdateDecorator@@@@@8 ; CDynamicPoolEx<NEffectUpdateDecorator::CRotationDecorator>::`RTTI Base Class Descriptor at (0,-1,0,64)'
	DD	00H
	DD	00H
	DD	0ffffffffH
	DD	00H
	DD	040H
	DD	FLAT:??_R3?$CDynamicPoolEx@VCRotationDecorator@NEffectUpdateDecorator@@@@8
rdata$r	ENDS
;	COMDAT ??_R2?$CDynamicPoolEx@VCRotationDecorator@NEffectUpdateDecorator@@@@8
rdata$r	SEGMENT
??_R2?$CDynamicPoolEx@VCRotationDecorator@NEffectUpdateDecorator@@@@8 DD FLAT:??_R1A@?0A@EA@?$CDynamicPoolEx@VCRotationDecorator@NEffectUpdateDecorator@@@@8 ; CDynamicPoolEx<NEffectUpdateDecorator::CRotationDecorator>::`RTTI Base Class Array'
rdata$r	ENDS
;	COMDAT ??_R3?$CDynamicPoolEx@VCRotationDecorator@NEffectUpdateDecorator@@@@8
rdata$r	SEGMENT
??_R3?$CDynamicPoolEx@VCRotationDecorator@NEffectUpdateDecorator@@@@8 DD 00H ; CDynamicPoolEx<NEffectUpdateDecorator::CRotationDecorator>::`RTTI Class Hierarchy Descriptor'
	DD	00H
	DD	01H
	DD	FLAT:??_R2?$CDynamicPoolEx@VCRotationDecorator@NEffectUpdateDecorator@@@@8
rdata$r	ENDS
;	COMDAT ??_R0?AV?$CDynamicPoolEx@VCRotationDecorator@NEffectUpdateDecorator@@@@@8
data$rs	SEGMENT
??_R0?AV?$CDynamicPoolEx@VCRotationDecorator@NEffectUpdateDecorator@@@@@8 DD FLAT:??_7type_info@@6B@ ; CDynamicPoolEx<NEffectUpdateDecorator::CRotationDecorator> `RTTI Type Descriptor'
	DD	00H
	DB	'.?AV?$CDynamicPoolEx@VCRotationDecorator@NEffectUpdateDe'
	DB	'corator@@@@', 00H
data$rs	ENDS
;	COMDAT ??_R4?$CDynamicPoolEx@VCRotationDecorator@NEffectUpdateDecorator@@@@6B@
rdata$r	SEGMENT
??_R4?$CDynamicPoolEx@VCRotationDecorator@NEffectUpdateDecorator@@@@6B@ DD 00H ; CDynamicPoolEx<NEffectUpdateDecorator::CRotationDecorator>::`RTTI Complete Object Locator'
	DD	00H
	DD	00H
	DD	FLAT:??_R0?AV?$CDynamicPoolEx@VCRotationDecorator@NEffectUpdateDecorator@@@@@8
	DD	FLAT:??_R3?$CDynamicPoolEx@VCRotationDecorator@NEffectUpdateDecorator@@@@8
rdata$r	ENDS
;	COMDAT ??_R1A@?0A@EA@?$CDynamicPoolEx@VCGravityDecorator@NEffectUpdateDecorator@@@@8
rdata$r	SEGMENT
??_R1A@?0A@EA@?$CDynamicPoolEx@VCGravityDecorator@NEffectUpdateDecorator@@@@8 DD FLAT:??_R0?AV?$CDynamicPoolEx@VCGravityDecorator@NEffectUpdateDecorator@@@@@8 ; CDynamicPoolEx<NEffectUpdateDecorator::CGravityDecorator>::`RTTI Base Class Descriptor at (0,-1,0,64)'
	DD	00H
	DD	00H
	DD	0ffffffffH
	DD	00H
	DD	040H
	DD	FLAT:??_R3?$CDynamicPoolEx@VCGravityDecorator@NEffectUpdateDecorator@@@@8
rdata$r	ENDS
;	COMDAT ??_R2?$CDynamicPoolEx@VCGravityDecorator@NEffectUpdateDecorator@@@@8
rdata$r	SEGMENT
??_R2?$CDynamicPoolEx@VCGravityDecorator@NEffectUpdateDecorator@@@@8 DD FLAT:??_R1A@?0A@EA@?$CDynamicPoolEx@VCGravityDecorator@NEffectUpdateDecorator@@@@8 ; CDynamicPoolEx<NEffectUpdateDecorator::CGravityDecorator>::`RTTI Base Class Array'
rdata$r	ENDS
;	COMDAT ??_R3?$CDynamicPoolEx@VCGravityDecorator@NEffectUpdateDecorator@@@@8
rdata$r	SEGMENT
??_R3?$CDynamicPoolEx@VCGravityDecorator@NEffectUpdateDecorator@@@@8 DD 00H ; CDynamicPoolEx<NEffectUpdateDecorator::CGravityDecorator>::`RTTI Class Hierarchy Descriptor'
	DD	00H
	DD	01H
	DD	FLAT:??_R2?$CDynamicPoolEx@VCGravityDecorator@NEffectUpdateDecorator@@@@8
rdata$r	ENDS
;	COMDAT ??_R0?AV?$CDynamicPoolEx@VCGravityDecorator@NEffectUpdateDecorator@@@@@8
data$rs	SEGMENT
??_R0?AV?$CDynamicPoolEx@VCGravityDecorator@NEffectUpdateDecorator@@@@@8 DD FLAT:??_7type_info@@6B@ ; CDynamicPoolEx<NEffectUpdateDecorator::CGravityDecorator> `RTTI Type Descriptor'
	DD	00H
	DB	'.?AV?$CDynamicPoolEx@VCGravityDecorator@NEffectUpdateDec'
	DB	'orator@@@@', 00H
data$rs	ENDS
;	COMDAT ??_R4?$CDynamicPoolEx@VCGravityDecorator@NEffectUpdateDecorator@@@@6B@
rdata$r	SEGMENT
??_R4?$CDynamicPoolEx@VCGravityDecorator@NEffectUpdateDecorator@@@@6B@ DD 00H ; CDynamicPoolEx<NEffectUpdateDecorator::CGravityDecorator>::`RTTI Complete Object Locator'
	DD	00H
	DD	00H
	DD	FLAT:??_R0?AV?$CDynamicPoolEx@VCGravityDecorator@NEffectUpdateDecorator@@@@@8
	DD	FLAT:??_R3?$CDynamicPoolEx@VCGravityDecorator@NEffectUpdateDecorator@@@@8
rdata$r	ENDS
;	COMDAT ??_R1A@?0A@EA@?$CDynamicPoolEx@VCAirResistanceDecorator@NEffectUpdateDecorator@@@@8
rdata$r	SEGMENT
??_R1A@?0A@EA@?$CDynamicPoolEx@VCAirResistanceDecorator@NEffectUpdateDecorator@@@@8 DD FLAT:??_R0?AV?$CDynamicPoolEx@VCAirResistanceDecorator@NEffectUpdateDecorator@@@@@8 ; CDynamicPoolEx<NEffectUpdateDecorator::CAirResistanceDecorator>::`RTTI Base Class Descriptor at (0,-1,0,64)'
	DD	00H
	DD	00H
	DD	0ffffffffH
	DD	00H
	DD	040H
	DD	FLAT:??_R3?$CDynamicPoolEx@VCAirResistanceDecorator@NEffectUpdateDecorator@@@@8
rdata$r	ENDS
;	COMDAT ??_R2?$CDynamicPoolEx@VCAirResistanceDecorator@NEffectUpdateDecorator@@@@8
rdata$r	SEGMENT
??_R2?$CDynamicPoolEx@VCAirResistanceDecorator@NEffectUpdateDecorator@@@@8 DD FLAT:??_R1A@?0A@EA@?$CDynamicPoolEx@VCAirResistanceDecorator@NEffectUpdateDecorator@@@@8 ; CDynamicPoolEx<NEffectUpdateDecorator::CAirResistanceDecorator>::`RTTI Base Class Array'
rdata$r	ENDS
;	COMDAT ??_R3?$CDynamicPoolEx@VCAirResistanceDecorator@NEffectUpdateDecorator@@@@8
rdata$r	SEGMENT
??_R3?$CDynamicPoolEx@VCAirResistanceDecorator@NEffectUpdateDecorator@@@@8 DD 00H ; CDynamicPoolEx<NEffectUpdateDecorator::CAirResistanceDecorator>::`RTTI Class Hierarchy Descriptor'
	DD	00H
	DD	01H
	DD	FLAT:??_R2?$CDynamicPoolEx@VCAirResistanceDecorator@NEffectUpdateDecorator@@@@8
rdata$r	ENDS
;	COMDAT ??_R0?AV?$CDynamicPoolEx@VCAirResistanceDecorator@NEffectUpdateDecorator@@@@@8
data$rs	SEGMENT
??_R0?AV?$CDynamicPoolEx@VCAirResistanceDecorator@NEffectUpdateDecorator@@@@@8 DD FLAT:??_7type_info@@6B@ ; CDynamicPoolEx<NEffectUpdateDecorator::CAirResistanceDecorator> `RTTI Type Descriptor'
	DD	00H
	DB	'.?AV?$CDynamicPoolEx@VCAirResistanceDecorator@NEffectUpd'
	DB	'ateDecorator@@@@', 00H
data$rs	ENDS
;	COMDAT ??_R4?$CDynamicPoolEx@VCAirResistanceDecorator@NEffectUpdateDecorator@@@@6B@
rdata$r	SEGMENT
??_R4?$CDynamicPoolEx@VCAirResistanceDecorator@NEffectUpdateDecorator@@@@6B@ DD 00H ; CDynamicPoolEx<NEffectUpdateDecorator::CAirResistanceDecorator>::`RTTI Complete Object Locator'
	DD	00H
	DD	00H
	DD	FLAT:??_R0?AV?$CDynamicPoolEx@VCAirResistanceDecorator@NEffectUpdateDecorator@@@@@8
	DD	FLAT:??_R3?$CDynamicPoolEx@VCAirResistanceDecorator@NEffectUpdateDecorator@@@@8
rdata$r	ENDS
;	COMDAT ??_R1A@?0A@EA@?$CDynamicPoolEx@VCTextureAnimationRandomDecorator@NEffectUpdateDecorator@@@@8
rdata$r	SEGMENT
??_R1A@?0A@EA@?$CDynamicPoolEx@VCTextureAnimationRandomDecorator@NEffectUpdateDecorator@@@@8 DD FLAT:??_R0?AV?$CDynamicPoolEx@VCTextureAnimationRandomDecorator@NEffectUpdateDecorator@@@@@8 ; CDynamicPoolEx<NEffectUpdateDecorator::CTextureAnimationRandomDecorator>::`RTTI Base Class Descriptor at (0,-1,0,64)'
	DD	00H
	DD	00H
	DD	0ffffffffH
	DD	00H
	DD	040H
	DD	FLAT:??_R3?$CDynamicPoolEx@VCTextureAnimationRandomDecorator@NEffectUpdateDecorator@@@@8
rdata$r	ENDS
;	COMDAT ??_R2?$CDynamicPoolEx@VCTextureAnimationRandomDecorator@NEffectUpdateDecorator@@@@8
rdata$r	SEGMENT
??_R2?$CDynamicPoolEx@VCTextureAnimationRandomDecorator@NEffectUpdateDecorator@@@@8 DD FLAT:??_R1A@?0A@EA@?$CDynamicPoolEx@VCTextureAnimationRandomDecorator@NEffectUpdateDecorator@@@@8 ; CDynamicPoolEx<NEffectUpdateDecorator::CTextureAnimationRandomDecorator>::`RTTI Base Class Array'
rdata$r	ENDS
;	COMDAT ??_R3?$CDynamicPoolEx@VCTextureAnimationRandomDecorator@NEffectUpdateDecorator@@@@8
rdata$r	SEGMENT
??_R3?$CDynamicPoolEx@VCTextureAnimationRandomDecorator@NEffectUpdateDecorator@@@@8 DD 00H ; CDynamicPoolEx<NEffectUpdateDecorator::CTextureAnimationRandomDecorator>::`RTTI Class Hierarchy Descriptor'
	DD	00H
	DD	01H
	DD	FLAT:??_R2?$CDynamicPoolEx@VCTextureAnimationRandomDecorator@NEffectUpdateDecorator@@@@8
rdata$r	ENDS
;	COMDAT ??_R0?AV?$CDynamicPoolEx@VCTextureAnimationRandomDecorator@NEffectUpdateDecorator@@@@@8
data$rs	SEGMENT
??_R0?AV?$CDynamicPoolEx@VCTextureAnimationRandomDecorator@NEffectUpdateDecorator@@@@@8 DD FLAT:??_7type_info@@6B@ ; CDynamicPoolEx<NEffectUpdateDecorator::CTextureAnimationRandomDecorator> `RTTI Type Descriptor'
	DD	00H
	DB	'.?AV?$CDynamicPoolEx@VCTextureAnimationRandomDecorator@N'
	DB	'EffectUpdateDecorator@@@@', 00H
data$rs	ENDS
;	COMDAT ??_R4?$CDynamicPoolEx@VCTextureAnimationRandomDecorator@NEffectUpdateDecorator@@@@6B@
rdata$r	SEGMENT
??_R4?$CDynamicPoolEx@VCTextureAnimationRandomDecorator@NEffectUpdateDecorator@@@@6B@ DD 00H ; CDynamicPoolEx<NEffectUpdateDecorator::CTextureAnimationRandomDecorator>::`RTTI Complete Object Locator'
	DD	00H
	DD	00H
	DD	FLAT:??_R0?AV?$CDynamicPoolEx@VCTextureAnimationRandomDecorator@NEffectUpdateDecorator@@@@@8
	DD	FLAT:??_R3?$CDynamicPoolEx@VCTextureAnimationRandomDecorator@NEffectUpdateDecorator@@@@8
rdata$r	ENDS
;	COMDAT ??_R1A@?0A@EA@?$CDynamicPoolEx@VCTextureAnimationCCWDecorator@NEffectUpdateDecorator@@@@8
rdata$r	SEGMENT
??_R1A@?0A@EA@?$CDynamicPoolEx@VCTextureAnimationCCWDecorator@NEffectUpdateDecorator@@@@8 DD FLAT:??_R0?AV?$CDynamicPoolEx@VCTextureAnimationCCWDecorator@NEffectUpdateDecorator@@@@@8 ; CDynamicPoolEx<NEffectUpdateDecorator::CTextureAnimationCCWDecorator>::`RTTI Base Class Descriptor at (0,-1,0,64)'
	DD	00H
	DD	00H
	DD	0ffffffffH
	DD	00H
	DD	040H
	DD	FLAT:??_R3?$CDynamicPoolEx@VCTextureAnimationCCWDecorator@NEffectUpdateDecorator@@@@8
rdata$r	ENDS
;	COMDAT ??_R2?$CDynamicPoolEx@VCTextureAnimationCCWDecorator@NEffectUpdateDecorator@@@@8
rdata$r	SEGMENT
??_R2?$CDynamicPoolEx@VCTextureAnimationCCWDecorator@NEffectUpdateDecorator@@@@8 DD FLAT:??_R1A@?0A@EA@?$CDynamicPoolEx@VCTextureAnimationCCWDecorator@NEffectUpdateDecorator@@@@8 ; CDynamicPoolEx<NEffectUpdateDecorator::CTextureAnimationCCWDecorator>::`RTTI Base Class Array'
rdata$r	ENDS
;	COMDAT ??_R3?$CDynamicPoolEx@VCTextureAnimationCCWDecorator@NEffectUpdateDecorator@@@@8
rdata$r	SEGMENT
??_R3?$CDynamicPoolEx@VCTextureAnimationCCWDecorator@NEffectUpdateDecorator@@@@8 DD 00H ; CDynamicPoolEx<NEffectUpdateDecorator::CTextureAnimationCCWDecorator>::`RTTI Class Hierarchy Descriptor'
	DD	00H
	DD	01H
	DD	FLAT:??_R2?$CDynamicPoolEx@VCTextureAnimationCCWDecorator@NEffectUpdateDecorator@@@@8
rdata$r	ENDS
;	COMDAT ??_R0?AV?$CDynamicPoolEx@VCTextureAnimationCCWDecorator@NEffectUpdateDecorator@@@@@8
data$rs	SEGMENT
??_R0?AV?$CDynamicPoolEx@VCTextureAnimationCCWDecorator@NEffectUpdateDecorator@@@@@8 DD FLAT:??_7type_info@@6B@ ; CDynamicPoolEx<NEffectUpdateDecorator::CTextureAnimationCCWDecorator> `RTTI Type Descriptor'
	DD	00H
	DB	'.?AV?$CDynamicPoolEx@VCTextureAnimationCCWDecorator@NEff'
	DB	'ectUpdateDecorator@@@@', 00H
data$rs	ENDS
;	COMDAT ??_R4?$CDynamicPoolEx@VCTextureAnimationCCWDecorator@NEffectUpdateDecorator@@@@6B@
rdata$r	SEGMENT
??_R4?$CDynamicPoolEx@VCTextureAnimationCCWDecorator@NEffectUpdateDecorator@@@@6B@ DD 00H ; CDynamicPoolEx<NEffectUpdateDecorator::CTextureAnimationCCWDecorator>::`RTTI Complete Object Locator'
	DD	00H
	DD	00H
	DD	FLAT:??_R0?AV?$CDynamicPoolEx@VCTextureAnimationCCWDecorator@NEffectUpdateDecorator@@@@@8
	DD	FLAT:??_R3?$CDynamicPoolEx@VCTextureAnimationCCWDecorator@NEffectUpdateDecorator@@@@8
rdata$r	ENDS
;	COMDAT ??_R1A@?0A@EA@?$CDynamicPoolEx@VCTextureAnimationCWDecorator@NEffectUpdateDecorator@@@@8
rdata$r	SEGMENT
??_R1A@?0A@EA@?$CDynamicPoolEx@VCTextureAnimationCWDecorator@NEffectUpdateDecorator@@@@8 DD FLAT:??_R0?AV?$CDynamicPoolEx@VCTextureAnimationCWDecorator@NEffectUpdateDecorator@@@@@8 ; CDynamicPoolEx<NEffectUpdateDecorator::CTextureAnimationCWDecorator>::`RTTI Base Class Descriptor at (0,-1,0,64)'
	DD	00H
	DD	00H
	DD	0ffffffffH
	DD	00H
	DD	040H
	DD	FLAT:??_R3?$CDynamicPoolEx@VCTextureAnimationCWDecorator@NEffectUpdateDecorator@@@@8
rdata$r	ENDS
;	COMDAT ??_R2?$CDynamicPoolEx@VCTextureAnimationCWDecorator@NEffectUpdateDecorator@@@@8
rdata$r	SEGMENT
??_R2?$CDynamicPoolEx@VCTextureAnimationCWDecorator@NEffectUpdateDecorator@@@@8 DD FLAT:??_R1A@?0A@EA@?$CDynamicPoolEx@VCTextureAnimationCWDecorator@NEffectUpdateDecorator@@@@8 ; CDynamicPoolEx<NEffectUpdateDecorator::CTextureAnimationCWDecorator>::`RTTI Base Class Array'
rdata$r	ENDS
;	COMDAT ??_R3?$CDynamicPoolEx@VCTextureAnimationCWDecorator@NEffectUpdateDecorator@@@@8
rdata$r	SEGMENT
??_R3?$CDynamicPoolEx@VCTextureAnimationCWDecorator@NEffectUpdateDecorator@@@@8 DD 00H ; CDynamicPoolEx<NEffectUpdateDecorator::CTextureAnimationCWDecorator>::`RTTI Class Hierarchy Descriptor'
	DD	00H
	DD	01H
	DD	FLAT:??_R2?$CDynamicPoolEx@VCTextureAnimationCWDecorator@NEffectUpdateDecorator@@@@8
rdata$r	ENDS
;	COMDAT ??_R0?AV?$CDynamicPoolEx@VCTextureAnimationCWDecorator@NEffectUpdateDecorator@@@@@8
data$rs	SEGMENT
??_R0?AV?$CDynamicPoolEx@VCTextureAnimationCWDecorator@NEffectUpdateDecorator@@@@@8 DD FLAT:??_7type_info@@6B@ ; CDynamicPoolEx<NEffectUpdateDecorator::CTextureAnimationCWDecorator> `RTTI Type Descriptor'
	DD	00H
	DB	'.?AV?$CDynamicPoolEx@VCTextureAnimationCWDecorator@NEffe'
	DB	'ctUpdateDecorator@@@@', 00H
data$rs	ENDS
;	COMDAT ??_R4?$CDynamicPoolEx@VCTextureAnimationCWDecorator@NEffectUpdateDecorator@@@@6B@
rdata$r	SEGMENT
??_R4?$CDynamicPoolEx@VCTextureAnimationCWDecorator@NEffectUpdateDecorator@@@@6B@ DD 00H ; CDynamicPoolEx<NEffectUpdateDecorator::CTextureAnimationCWDecorator>::`RTTI Complete Object Locator'
	DD	00H
	DD	00H
	DD	FLAT:??_R0?AV?$CDynamicPoolEx@VCTextureAnimationCWDecorator@NEffectUpdateDecorator@@@@@8
	DD	FLAT:??_R3?$CDynamicPoolEx@VCTextureAnimationCWDecorator@NEffectUpdateDecorator@@@@8
rdata$r	ENDS
;	COMDAT ??_R1A@?0A@EA@?$CDynamicPoolEx@VCNullDecorator@NEffectUpdateDecorator@@@@8
rdata$r	SEGMENT
??_R1A@?0A@EA@?$CDynamicPoolEx@VCNullDecorator@NEffectUpdateDecorator@@@@8 DD FLAT:??_R0?AV?$CDynamicPoolEx@VCNullDecorator@NEffectUpdateDecorator@@@@@8 ; CDynamicPoolEx<NEffectUpdateDecorator::CNullDecorator>::`RTTI Base Class Descriptor at (0,-1,0,64)'
	DD	00H
	DD	00H
	DD	0ffffffffH
	DD	00H
	DD	040H
	DD	FLAT:??_R3?$CDynamicPoolEx@VCNullDecorator@NEffectUpdateDecorator@@@@8
rdata$r	ENDS
;	COMDAT ??_R2?$CDynamicPoolEx@VCNullDecorator@NEffectUpdateDecorator@@@@8
rdata$r	SEGMENT
??_R2?$CDynamicPoolEx@VCNullDecorator@NEffectUpdateDecorator@@@@8 DD FLAT:??_R1A@?0A@EA@?$CDynamicPoolEx@VCNullDecorator@NEffectUpdateDecorator@@@@8 ; CDynamicPoolEx<NEffectUpdateDecorator::CNullDecorator>::`RTTI Base Class Array'
rdata$r	ENDS
;	COMDAT ??_R3?$CDynamicPoolEx@VCNullDecorator@NEffectUpdateDecorator@@@@8
rdata$r	SEGMENT
??_R3?$CDynamicPoolEx@VCNullDecorator@NEffectUpdateDecorator@@@@8 DD 00H ; CDynamicPoolEx<NEffectUpdateDecorator::CNullDecorator>::`RTTI Class Hierarchy Descriptor'
	DD	00H
	DD	01H
	DD	FLAT:??_R2?$CDynamicPoolEx@VCNullDecorator@NEffectUpdateDecorator@@@@8
rdata$r	ENDS
;	COMDAT ??_R0?AV?$CDynamicPoolEx@VCNullDecorator@NEffectUpdateDecorator@@@@@8
data$rs	SEGMENT
??_R0?AV?$CDynamicPoolEx@VCNullDecorator@NEffectUpdateDecorator@@@@@8 DD FLAT:??_7type_info@@6B@ ; CDynamicPoolEx<NEffectUpdateDecorator::CNullDecorator> `RTTI Type Descriptor'
	DD	00H
	DB	'.?AV?$CDynamicPoolEx@VCNullDecorator@NEffectUpdateDecora'
	DB	'tor@@@@', 00H
data$rs	ENDS
;	COMDAT ??_R4?$CDynamicPoolEx@VCNullDecorator@NEffectUpdateDecorator@@@@6B@
rdata$r	SEGMENT
??_R4?$CDynamicPoolEx@VCNullDecorator@NEffectUpdateDecorator@@@@6B@ DD 00H ; CDynamicPoolEx<NEffectUpdateDecorator::CNullDecorator>::`RTTI Complete Object Locator'
	DD	00H
	DD	00H
	DD	FLAT:??_R0?AV?$CDynamicPoolEx@VCNullDecorator@NEffectUpdateDecorator@@@@@8
	DD	FLAT:??_R3?$CDynamicPoolEx@VCNullDecorator@NEffectUpdateDecorator@@@@8
rdata$r	ENDS
;	COMDAT ??_R1A@?0A@EA@?$CDynamicPoolEx@VCHeaderDecorator@NEffectUpdateDecorator@@@@8
rdata$r	SEGMENT
??_R1A@?0A@EA@?$CDynamicPoolEx@VCHeaderDecorator@NEffectUpdateDecorator@@@@8 DD FLAT:??_R0?AV?$CDynamicPoolEx@VCHeaderDecorator@NEffectUpdateDecorator@@@@@8 ; CDynamicPoolEx<NEffectUpdateDecorator::CHeaderDecorator>::`RTTI Base Class Descriptor at (0,-1,0,64)'
	DD	00H
	DD	00H
	DD	0ffffffffH
	DD	00H
	DD	040H
	DD	FLAT:??_R3?$CDynamicPoolEx@VCHeaderDecorator@NEffectUpdateDecorator@@@@8
rdata$r	ENDS
;	COMDAT ??_R2?$CDynamicPoolEx@VCHeaderDecorator@NEffectUpdateDecorator@@@@8
rdata$r	SEGMENT
??_R2?$CDynamicPoolEx@VCHeaderDecorator@NEffectUpdateDecorator@@@@8 DD FLAT:??_R1A@?0A@EA@?$CDynamicPoolEx@VCHeaderDecorator@NEffectUpdateDecorator@@@@8 ; CDynamicPoolEx<NEffectUpdateDecorator::CHeaderDecorator>::`RTTI Base Class Array'
rdata$r	ENDS
;	COMDAT ??_R3?$CDynamicPoolEx@VCHeaderDecorator@NEffectUpdateDecorator@@@@8
rdata$r	SEGMENT
??_R3?$CDynamicPoolEx@VCHeaderDecorator@NEffectUpdateDecorator@@@@8 DD 00H ; CDynamicPoolEx<NEffectUpdateDecorator::CHeaderDecorator>::`RTTI Class Hierarchy Descriptor'
	DD	00H
	DD	01H
	DD	FLAT:??_R2?$CDynamicPoolEx@VCHeaderDecorator@NEffectUpdateDecorator@@@@8
rdata$r	ENDS
;	COMDAT ??_R0?AV?$CDynamicPoolEx@VCHeaderDecorator@NEffectUpdateDecorator@@@@@8
data$rs	SEGMENT
??_R0?AV?$CDynamicPoolEx@VCHeaderDecorator@NEffectUpdateDecorator@@@@@8 DD FLAT:??_7type_info@@6B@ ; CDynamicPoolEx<NEffectUpdateDecorator::CHeaderDecorator> `RTTI Type Descriptor'
	DD	00H
	DB	'.?AV?$CDynamicPoolEx@VCHeaderDecorator@NEffectUpdateDeco'
	DB	'rator@@@@', 00H
data$rs	ENDS
;	COMDAT ??_R4?$CDynamicPoolEx@VCHeaderDecorator@NEffectUpdateDecorator@@@@6B@
rdata$r	SEGMENT
??_R4?$CDynamicPoolEx@VCHeaderDecorator@NEffectUpdateDecorator@@@@6B@ DD 00H ; CDynamicPoolEx<NEffectUpdateDecorator::CHeaderDecorator>::`RTTI Complete Object Locator'
	DD	00H
	DD	00H
	DD	FLAT:??_R0?AV?$CDynamicPoolEx@VCHeaderDecorator@NEffectUpdateDecorator@@@@@8
	DD	FLAT:??_R3?$CDynamicPoolEx@VCHeaderDecorator@NEffectUpdateDecorator@@@@8
rdata$r	ENDS
;	COMDAT ??_7?$CDynamicPoolEx@VCHeaderDecorator@NEffectUpdateDecorator@@@@6B@
CONST	SEGMENT
??_7?$CDynamicPoolEx@VCHeaderDecorator@NEffectUpdateDecorator@@@@6B@ DD FLAT:??_R4?$CDynamicPoolEx@VCHeaderDecorator@NEffectUpdateDecorator@@@@6B@ ; CDynamicPoolEx<NEffectUpdateDecorator::CHeaderDecorator>::`vftable'
	DD	FLAT:??_E?$CDynamicPoolEx@VCHeaderDecorator@NEffectUpdateDecorator@@@@UAEPAXI@Z
CONST	ENDS
;	COMDAT ??_7?$CDynamicPoolEx@VCNullDecorator@NEffectUpdateDecorator@@@@6B@
CONST	SEGMENT
??_7?$CDynamicPoolEx@VCNullDecorator@NEffectUpdateDecorator@@@@6B@ DD FLAT:??_R4?$CDynamicPoolEx@VCNullDecorator@NEffectUpdateDecorator@@@@6B@ ; CDynamicPoolEx<NEffectUpdateDecorator::CNullDecorator>::`vftable'
	DD	FLAT:??_E?$CDynamicPoolEx@VCNullDecorator@NEffectUpdateDecorator@@@@UAEPAXI@Z
CONST	ENDS
;	COMDAT ??_7?$CDynamicPoolEx@VCTextureAnimationCWDecorator@NEffectUpdateDecorator@@@@6B@
CONST	SEGMENT
??_7?$CDynamicPoolEx@VCTextureAnimationCWDecorator@NEffectUpdateDecorator@@@@6B@ DD FLAT:??_R4?$CDynamicPoolEx@VCTextureAnimationCWDecorator@NEffectUpdateDecorator@@@@6B@ ; CDynamicPoolEx<NEffectUpdateDecorator::CTextureAnimationCWDecorator>::`vftable'
	DD	FLAT:??_E?$CDynamicPoolEx@VCTextureAnimationCWDecorator@NEffectUpdateDecorator@@@@UAEPAXI@Z
CONST	ENDS
;	COMDAT ??_7?$CDynamicPoolEx@VCTextureAnimationCCWDecorator@NEffectUpdateDecorator@@@@6B@
CONST	SEGMENT
??_7?$CDynamicPoolEx@VCTextureAnimationCCWDecorator@NEffectUpdateDecorator@@@@6B@ DD FLAT:??_R4?$CDynamicPoolEx@VCTextureAnimationCCWDecorator@NEffectUpdateDecorator@@@@6B@ ; CDynamicPoolEx<NEffectUpdateDecorator::CTextureAnimationCCWDecorator>::`vftable'
	DD	FLAT:??_E?$CDynamicPoolEx@VCTextureAnimationCCWDecorator@NEffectUpdateDecorator@@@@UAEPAXI@Z
CONST	ENDS
;	COMDAT ??_7?$CDynamicPoolEx@VCTextureAnimationRandomDecorator@NEffectUpdateDecorator@@@@6B@
CONST	SEGMENT
??_7?$CDynamicPoolEx@VCTextureAnimationRandomDecorator@NEffectUpdateDecorator@@@@6B@ DD FLAT:??_R4?$CDynamicPoolEx@VCTextureAnimationRandomDecorator@NEffectUpdateDecorator@@@@6B@ ; CDynamicPoolEx<NEffectUpdateDecorator::CTextureAnimationRandomDecorator>::`vftable'
	DD	FLAT:??_E?$CDynamicPoolEx@VCTextureAnimationRandomDecorator@NEffectUpdateDecorator@@@@UAEPAXI@Z
CONST	ENDS
PUBLIC	??_H@YGXPAXIIP6EPAX0@Z@Z			; `vector constructor iterator'
PUBLIC	?__empty_global_delete@@YAXPAX@Z		; __empty_global_delete
PUBLIC	?__empty_global_delete@@YAXPAXI@Z		; __empty_global_delete
PUBLIC	___local_stdio_printf_options
PUBLIC	_sprintf
PUBLIC	??0exception@std@@QAE@ABV01@@Z			; std::exception::exception
PUBLIC	??1exception@std@@UAE@XZ			; std::exception::~exception
PUBLIC	?what@exception@std@@UBEPBDXZ			; std::exception::what
PUBLIC	??_Gexception@std@@UAEPAXI@Z			; std::exception::`scalar deleting destructor'
PUBLIC	??0bad_alloc@std@@QAE@ABV01@@Z			; std::bad_alloc::bad_alloc
PUBLIC	??_Gbad_alloc@std@@UAEPAXI@Z			; std::bad_alloc::`scalar deleting destructor'
PUBLIC	??0bad_array_new_length@std@@QAE@XZ		; std::bad_array_new_length::bad_array_new_length
PUBLIC	??1bad_array_new_length@std@@UAE@XZ		; std::bad_array_new_length::~bad_array_new_length
PUBLIC	??0bad_array_new_length@std@@QAE@ABV01@@Z	; std::bad_array_new_length::bad_array_new_length
PUBLIC	??_Gbad_array_new_length@std@@UAEPAXI@Z		; std::bad_array_new_length::`scalar deleting destructor'
PUBLIC	?_Throw_bad_array_new_length@std@@YAXXZ		; std::_Throw_bad_array_new_length
PUBLIC	?_Xlen_string@std@@YAXXZ			; std::_Xlen_string
PUBLIC	??0?$basic_string@DU?$char_traits@D@std@@V?$allocator@D@2@@std@@QAE@ABV01@@Z ; std::basic_string<char,std::char_traits<char>,std::allocator<char> >::basic_string<char,std::char_traits<char>,std::allocator<char> >
PUBLIC	??1?$basic_string@DU?$char_traits@D@std@@V?$allocator@D@2@@std@@QAE@XZ ; std::basic_string<char,std::char_traits<char>,std::allocator<char> >::~basic_string<char,std::char_traits<char>,std::allocator<char> >
PUBLIC	?append@?$basic_string@DU?$char_traits@D@std@@V?$allocator@D@2@@std@@QAEAAV12@QBDI@Z ; std::basic_string<char,std::char_traits<char>,std::allocator<char> >::append
PUBLIC	?assign@?$basic_string@DU?$char_traits@D@std@@V?$allocator@D@2@@std@@QAEAAV12@QBDI@Z ; std::basic_string<char,std::char_traits<char>,std::allocator<char> >::assign
PUBLIC	?_Throw_tree_length_error@std@@YAXXZ		; std::_Throw_tree_length_error
PUBLIC	??$_Destroy_in_place@PAD@std@@YAXAAPAD@Z	; std::_Destroy_in_place<char *>
PUBLIC	??$_Construct_in_place@PADABQAD@std@@YAXAAPADABQAD@Z ; std::_Construct_in_place<char *,char * const &>
PUBLIC	??$_Deallocate@$07$0A@@std@@YAXPAXI@Z		; std::_Deallocate<8,0>
PUBLIC	??$_Allocate@$07U_Default_allocate_traits@std@@$0A@@std@@YAPAXI@Z ; std::_Allocate<8,std::_Default_allocate_traits,0>
PUBLIC	??$_Allocate_manually_vector_aligned@U_Default_allocate_traits@std@@@std@@YAPAXI@Z ; std::_Allocate_manually_vector_aligned<std::_Default_allocate_traits>
PUBLIC	??1?$CSingleton@VCPythonTextTail@@@@UAE@XZ	; CSingleton<CPythonTextTail>::~CSingleton<CPythonTextTail>
PUBLIC	??_G?$CSingleton@VCPythonTextTail@@@@UAEPAXI@Z	; CSingleton<CPythonTextTail>::`scalar deleting destructor'
PUBLIC	??1STextTail@CPythonTextTail@@UAE@XZ		; CPythonTextTail::STextTail::~STextTail
PUBLIC	??_GSTextTail@CPythonTextTail@@UAEPAXI@Z	; CPythonTextTail::STextTail::`scalar deleting destructor'
PUBLIC	??0CPythonTextTail@@QAE@XZ			; CPythonTextTail::CPythonTextTail
PUBLIC	??1CPythonTextTail@@UAE@XZ			; CPythonTextTail::~CPythonTextTail
PUBLIC	?GetInfo@CPythonTextTail@@QAEXPAV?$basic_string@DU?$char_traits@D@std@@V?$allocator@D@2@@std@@@Z ; CPythonTextTail::GetInfo
PUBLIC	?Initialize@CPythonTextTail@@QAEXXZ		; CPythonTextTail::Initialize
PUBLIC	?Destroy@CPythonTextTail@@QAEXXZ		; CPythonTextTail::Destroy
PUBLIC	?Clear@CPythonTextTail@@QAEXXZ			; CPythonTextTail::Clear
PUBLIC	?UpdateAllTextTail@CPythonTextTail@@QAEXXZ	; CPythonTextTail::UpdateAllTextTail
PUBLIC	?UpdateShowingTextTail@CPythonTextTail@@QAEXXZ	; CPythonTextTail::UpdateShowingTextTail
PUBLIC	?Render@CPythonTextTail@@QAEXXZ			; CPythonTextTail::Render
PUBLIC	?ArrangeTextTail@CPythonTextTail@@QAEXXZ	; CPythonTextTail::ArrangeTextTail
PUBLIC	?HideAllTextTail@CPythonTextTail@@QAEXXZ	; CPythonTextTail::HideAllTextTail
PUBLIC	?ShowAllTextTail@CPythonTextTail@@QAEXXZ	; CPythonTextTail::ShowAllTextTail
PUBLIC	?ShowCharacterTextTail@CPythonTextTail@@QAEXK@Z	; CPythonTextTail::ShowCharacterTextTail
PUBLIC	?ShowItemTextTail@CPythonTextTail@@QAEXK@Z	; CPythonTextTail::ShowItemTextTail
PUBLIC	?RegisterCharacterTextTail@CPythonTextTail@@QAEXKKABUD3DXCOLOR@@M@Z ; CPythonTextTail::RegisterCharacterTextTail
PUBLIC	?RegisterItemTextTail@CPythonTextTail@@QAEXKPBDPAVCGraphicObjectInstance@@@Z ; CPythonTextTail::RegisterItemTextTail
PUBLIC	?RegisterChatTail@CPythonTextTail@@QAEXKPBD@Z	; CPythonTextTail::RegisterChatTail
PUBLIC	?RegisterInfoTail@CPythonTextTail@@QAEXKPBD@Z	; CPythonTextTail::RegisterInfoTail
PUBLIC	?SetCharacterTextTailColor@CPythonTextTail@@QAEXKABUD3DXCOLOR@@@Z ; CPythonTextTail::SetCharacterTextTailColor
PUBLIC	?SetItemTextTailOwner@CPythonTextTail@@QAEXKPBD@Z ; CPythonTextTail::SetItemTextTailOwner
PUBLIC	?DeleteCharacterTextTail@CPythonTextTail@@QAEXK@Z ; CPythonTextTail::DeleteCharacterTextTail
PUBLIC	?DeleteItemTextTail@CPythonTextTail@@QAEXK@Z	; CPythonTextTail::DeleteItemTextTail
PUBLIC	?Pick@CPythonTextTail@@QAEHHH@Z			; CPythonTextTail::Pick
PUBLIC	?SelectItemName@CPythonTextTail@@QAEXK@Z	; CPythonTextTail::SelectItemName
PUBLIC	?GetTextTailPosition@CPythonTextTail@@QAE_NKPAM00@Z ; CPythonTextTail::GetTextTailPosition
PUBLIC	?IsChatTextTail@CPythonTextTail@@QAE_NK@Z	; CPythonTextTail::IsChatTextTail
PUBLIC	?EnablePKTitle@CPythonTextTail@@QAEXH@Z		; CPythonTextTail::EnablePKTitle
PUBLIC	?AttachTitle@CPythonTextTail@@QAEXKPBDABUD3DXCOLOR@@@Z ; CPythonTextTail::AttachTitle
PUBLIC	?DetachTitle@CPythonTextTail@@QAEXK@Z		; CPythonTextTail::DetachTitle
PUBLIC	?AttachLevel@CPythonTextTail@@QAEXKPBDABUD3DXCOLOR@@@Z ; CPythonTextTail::AttachLevel
PUBLIC	?DetachLevel@CPythonTextTail@@QAEXK@Z		; CPythonTextTail::DetachLevel
PUBLIC	?RegisterTextTail@CPythonTextTail@@IAEPAUSTextTail@1@KPBDPAVCGraphicObjectInstance@@MABUD3DXCOLOR@@@Z ; CPythonTextTail::RegisterTextTail
PUBLIC	?DeleteTextTail@CPythonTextTail@@IAEXPAUSTextTail@1@@Z ; CPythonTextTail::DeleteTextTail
PUBLIC	?UpdateTextTail@CPythonTextTail@@IAEXPAUSTextTail@1@@Z ; CPythonTextTail::UpdateTextTail
PUBLIC	?RenderTextTailBox@CPythonTextTail@@IAEXPAUSTextTail@1@@Z ; CPythonTextTail::RenderTextTailBox
PUBLIC	?RenderTextTailName@CPythonTextTail@@IAEXPAUSTextTail@1@@Z ; CPythonTextTail::RenderTextTailName
PUBLIC	?UpdateDistance@CPythonTextTail@@IAEXABUD3DXVECTOR3@@PAUSTextTail@1@@Z ; CPythonTextTail::UpdateDistance
PUBLIC	?isIn@CPythonTextTail@@IAE_NPAUSTextTail@1@0@Z	; CPythonTextTail::isIn
PUBLIC	??1?$_Tree@V?$_Tmap_traits@KPAUSTextTail@CPythonTextTail@@U?$less@K@std@@V?$allocator@U?$pair@$$CBKPAUSTextTail@CPythonTextTail@@@std@@@4@$0A@@std@@@std@@QAE@XZ ; std::_Tree<std::_Tmap_traits<unsigned long,CPythonTextTail::STextTail *,std::less<unsigned long>,std::allocator<std::pair<unsigned long const ,CPythonTextTail::STextTail *> >,0> >::~_Tree<std::_Tmap_traits<unsigned long,CPythonTextTail::STextTail *,std::less<unsigned long>,std::allocator<std::pair<unsigned long const ,CPythonTextTail::STextTail *> >,0> >
PUBLIC	?clear@?$_Tree@V?$_Tmap_traits@KPAUSTextTail@CPythonTextTail@@U?$less@K@std@@V?$allocator@U?$pair@$$CBKPAUSTextTail@CPythonTextTail@@@std@@@4@$0A@@std@@@std@@QAEXXZ ; std::_Tree<std::_Tmap_traits<unsigned long,CPythonTextTail::STextTail *,std::less<unsigned long>,std::allocator<std::pair<unsigned long const ,CPythonTextTail::STextTail *> >,0> >::clear
PUBLIC	?_Lrotate@?$_Tree_val@U?$_Tree_simple_types@U?$pair@$$CBKPAUSTextTail@CPythonTextTail@@@std@@@std@@@std@@QAEXPAU?$_Tree_node@U?$pair@$$CBKPAUSTextTail@CPythonTextTail@@@std@@PAX@2@@Z ; std::_Tree_val<std::_Tree_simple_types<std::pair<unsigned long const ,CPythonTextTail::STextTail *> > >::_Lrotate
PUBLIC	?_Rrotate@?$_Tree_val@U?$_Tree_simple_types@U?$pair@$$CBKPAUSTextTail@CPythonTextTail@@@std@@@std@@@std@@QAEXPAU?$_Tree_node@U?$pair@$$CBKPAUSTextTail@CPythonTextTail@@@std@@PAX@2@@Z ; std::_Tree_val<std::_Tree_simple_types<std::pair<unsigned long const ,CPythonTextTail::STextTail *> > >::_Rrotate
PUBLIC	?_Extract@?$_Tree_val@U?$_Tree_simple_types@U?$pair@$$CBKPAUSTextTail@CPythonTextTail@@@std@@@std@@@std@@QAEPAU?$_Tree_node@U?$pair@$$CBKPAUSTextTail@CPythonTextTail@@@std@@PAX@2@V?$_Tree_unchecked_const_iterator@V?$_Tree_val@U?$_Tree_simple_types@U?$pair@$$CBKPAUSTextTail@CPythonTextTail@@@std@@@std@@@std@@U_Iterator_base0@2@@2@@Z ; std::_Tree_val<std::_Tree_simple_types<std::pair<unsigned long const ,CPythonTextTail::STextTail *> > >::_Extract
PUBLIC	?_Insert_node@?$_Tree_val@U?$_Tree_simple_types@U?$pair@$$CBKPAUSTextTail@CPythonTextTail@@@std@@@std@@@std@@QAEPAU?$_Tree_node@U?$pair@$$CBKPAUSTextTail@CPythonTextTail@@@std@@PAX@2@U?$_Tree_id@PAU?$_Tree_node@U?$pair@$$CBKPAUSTextTail@CPythonTextTail@@@std@@PAX@std@@@2@QAU32@@Z ; std::_Tree_val<std::_Tree_simple_types<std::pair<unsigned long const ,CPythonTextTail::STextTail *> > >::_Insert_node
PUBLIC	??1?$map@KPAUSTextTail@CPythonTextTail@@U?$less@K@std@@V?$allocator@U?$pair@$$CBKPAUSTextTail@CPythonTextTail@@@std@@@4@@std@@QAE@XZ ; std::map<unsigned long,CPythonTextTail::STextTail *,std::less<unsigned long>,std::allocator<std::pair<unsigned long const ,CPythonTextTail::STextTail *> > >::~map<unsigned long,CPythonTextTail::STextTail *,std::less<unsigned long>,std::allocator<std::pair<unsigned long const ,CPythonTextTail::STextTail *> > >
PUBLIC	??1?$list@PAUSTextTail@CPythonTextTail@@V?$allocator@PAUSTextTail@CPythonTextTail@@@std@@@std@@QAE@XZ ; std::list<CPythonTextTail::STextTail *,std::allocator<CPythonTextTail::STextTail *> >::~list<CPythonTextTail::STextTail *,std::allocator<CPythonTextTail::STextTail *> >
PUBLIC	?push_back@?$list@PAUSTextTail@CPythonTextTail@@V?$allocator@PAUSTextTail@CPythonTextTail@@@std@@@std@@QAEXABQAUSTextTail@CPythonTextTail@@@Z ; std::list<CPythonTextTail::STextTail *,std::allocator<CPythonTextTail::STextTail *> >::push_back
PUBLIC	??1?$CDynamicPool@USTextTail@CPythonTextTail@@@@UAE@XZ ; CDynamicPool<CPythonTextTail::STextTail>::~CDynamicPool<CPythonTextTail::STextTail>
PUBLIC	?Delete@?$CDynamicPool@USTextTail@CPythonTextTail@@@@KAXPAUSTextTail@CPythonTextTail@@@Z ; CDynamicPool<CPythonTextTail::STextTail>::Delete
PUBLIC	?_Xlength@?$vector@PAUSTextTail@CPythonTextTail@@V?$allocator@PAUSTextTail@CPythonTextTail@@@std@@@std@@CAXXZ ; std::vector<CPythonTextTail::STextTail *,std::allocator<CPythonTextTail::STextTail *> >::_Xlength
PUBLIC	??_G?$CDynamicPool@USTextTail@CPythonTextTail@@@@UAEPAXI@Z ; CDynamicPool<CPythonTextTail::STextTail>::`scalar deleting destructor'
PUBLIC	??_GCPythonTextTail@@UAEPAXI@Z			; CPythonTextTail::`scalar deleting destructor'
PUBLIC	?TextTail_GetLivingTime@@YAJXZ			; TextTail_GetLivingTime
PUBLIC	?TextTail_SetLivingTime@@YAXJ@Z			; TextTail_SetLivingTime
PUBLIC	??E?$_Tree_unchecked_const_iterator@V?$_Tree_val@U?$_Tree_simple_types@U?$pair@$$CBKPAUSTextTail@CPythonTextTail@@@std@@@std@@@std@@U_Iterator_base0@2@@std@@QAEAAV01@XZ ; std::_Tree_unchecked_const_iterator<std::_Tree_val<std::_Tree_simple_types<std::pair<unsigned long const ,CPythonTextTail::STextTail *> > >,std::_Iterator_base0>::operator++
PUBLIC	??$insert@$0A@$0A@@?$_Tree@V?$_Tmap_traits@KPAUSTextTail@CPythonTextTail@@U?$less@K@std@@V?$allocator@U?$pair@$$CBKPAUSTextTail@CPythonTextTail@@@std@@@4@$0A@@std@@@std@@QAE?AU?$pair@V?$_Tree_iterator@V?$_Tree_val@U?$_Tree_simple_types@U?$pair@$$CBKPAUSTextTail@CPythonTextTail@@@std@@@std@@@std@@@std@@_N@1@$$QAU?$pair@$$CBKPAUSTextTail@CPythonTextTail@@@1@@Z ; std::_Tree<std::_Tmap_traits<unsigned long,CPythonTextTail::STextTail *,std::less<unsigned long>,std::allocator<std::pair<unsigned long const ,CPythonTextTail::STextTail *> >,0> >::insert<0,0>
PUBLIC	??$?8DU?$char_traits@D@std@@V?$allocator@D@1@@std@@YA_NABV?$basic_string@DU?$char_traits@D@std@@V?$allocator@D@2@@0@QBD@Z ; std::operator==<char,std::char_traits<char>,std::allocator<char> >
PUBLIC	??$_Erase_tree@V?$allocator@U?$_Tree_node@U?$pair@$$CBKPAUSTextTail@CPythonTextTail@@@std@@PAX@std@@@std@@@?$_Tree_val@U?$_Tree_simple_types@U?$pair@$$CBKPAUSTextTail@CPythonTextTail@@@std@@@std@@@std@@QAEXAAV?$allocator@U?$_Tree_node@U?$pair@$$CBKPAUSTextTail@CPythonTextTail@@@std@@PAX@std@@@1@PAU?$_Tree_node@U?$pair@$$CBKPAUSTextTail@CPythonTextTail@@@std@@PAX@1@@Z ; std::_Tree_val<std::_Tree_simple_types<std::pair<unsigned long const ,CPythonTextTail::STextTail *> > >::_Erase_tree<std::allocator<std::_Tree_node<std::pair<unsigned long const ,CPythonTextTail::STextTail *>,void *> > >
PUBLIC	??1?$CDynamicPoolEx@VCRotationDecorator@NEffectUpdateDecorator@@@@UAE@XZ ; CDynamicPoolEx<NEffectUpdateDecorator::CRotationDecorator>::~CDynamicPoolEx<NEffectUpdateDecorator::CRotationDecorator>
PUBLIC	?Delete@?$CDynamicPoolEx@VCRotationDecorator@NEffectUpdateDecorator@@@@KAXPAVCRotationDecorator@NEffectUpdateDecorator@@@Z ; CDynamicPoolEx<NEffectUpdateDecorator::CRotationDecorator>::Delete
PUBLIC	??1?$CDynamicPoolEx@VCGravityDecorator@NEffectUpdateDecorator@@@@UAE@XZ ; CDynamicPoolEx<NEffectUpdateDecorator::CGravityDecorator>::~CDynamicPoolEx<NEffectUpdateDecorator::CGravityDecorator>
PUBLIC	?Delete@?$CDynamicPoolEx@VCGravityDecorator@NEffectUpdateDecorator@@@@KAXPAVCGravityDecorator@NEffectUpdateDecorator@@@Z ; CDynamicPoolEx<NEffectUpdateDecorator::CGravityDecorator>::Delete
PUBLIC	??1?$CDynamicPoolEx@VCAirResistanceDecorator@NEffectUpdateDecorator@@@@UAE@XZ ; CDynamicPoolEx<NEffectUpdateDecorator::CAirResistanceDecorator>::~CDynamicPoolEx<NEffectUpdateDecorator::CAirResistanceDecorator>
PUBLIC	?Delete@?$CDynamicPoolEx@VCAirResistanceDecorator@NEffectUpdateDecorator@@@@KAXPAVCAirResistanceDecorator@NEffectUpdateDecorator@@@Z ; CDynamicPoolEx<NEffectUpdateDecorator::CAirResistanceDecorator>::Delete
PUBLIC	??1?$CDynamicPoolEx@VCTextureAnimationRandomDecorator@NEffectUpdateDecorator@@@@UAE@XZ ; CDynamicPoolEx<NEffectUpdateDecorator::CTextureAnimationRandomDecorator>::~CDynamicPoolEx<NEffectUpdateDecorator::CTextureAnimationRandomDecorator>
PUBLIC	?Delete@?$CDynamicPoolEx@VCTextureAnimationRandomDecorator@NEffectUpdateDecorator@@@@KAXPAVCTextureAnimationRandomDecorator@NEffectUpdateDecorator@@@Z ; CDynamicPoolEx<NEffectUpdateDecorator::CTextureAnimationRandomDecorator>::Delete
PUBLIC	??1?$CDynamicPoolEx@VCTextureAnimationCCWDecorator@NEffectUpdateDecorator@@@@UAE@XZ ; CDynamicPoolEx<NEffectUpdateDecorator::CTextureAnimationCCWDecorator>::~CDynamicPoolEx<NEffectUpdateDecorator::CTextureAnimationCCWDecorator>
PUBLIC	?Delete@?$CDynamicPoolEx@VCTextureAnimationCCWDecorator@NEffectUpdateDecorator@@@@KAXPAVCTextureAnimationCCWDecorator@NEffectUpdateDecorator@@@Z ; CDynamicPoolEx<NEffectUpdateDecorator::CTextureAnimationCCWDecorator>::Delete
PUBLIC	??1?$CDynamicPoolEx@VCTextureAnimationCWDecorator@NEffectUpdateDecorator@@@@UAE@XZ ; CDynamicPoolEx<NEffectUpdateDecorator::CTextureAnimationCWDecorator>::~CDynamicPoolEx<NEffectUpdateDecorator::CTextureAnimationCWDecorator>
PUBLIC	?Delete@?$CDynamicPoolEx@VCTextureAnimationCWDecorator@NEffectUpdateDecorator@@@@KAXPAVCTextureAnimationCWDecorator@NEffectUpdateDecorator@@@Z ; CDynamicPoolEx<NEffectUpdateDecorator::CTextureAnimationCWDecorator>::Delete
PUBLIC	??1?$CDynamicPoolEx@VCNullDecorator@NEffectUpdateDecorator@@@@UAE@XZ ; CDynamicPoolEx<NEffectUpdateDecorator::CNullDecorator>::~CDynamicPoolEx<NEffectUpdateDecorator::CNullDecorator>
PUBLIC	?Delete@?$CDynamicPoolEx@VCNullDecorator@NEffectUpdateDecorator@@@@KAXPAVCNullDecorator@NEffectUpdateDecorator@@@Z ; CDynamicPoolEx<NEffectUpdateDecorator::CNullDecorator>::Delete
PUBLIC	??1?$CDynamicPoolEx@VCHeaderDecorator@NEffectUpdateDecorator@@@@UAE@XZ ; CDynamicPoolEx<NEffectUpdateDecorator::CHeaderDecorator>::~CDynamicPoolEx<NEffectUpdateDecorator::CHeaderDecorator>
PUBLIC	?Delete@?$CDynamicPoolEx@VCHeaderDecorator@NEffectUpdateDecorator@@@@KAXPAVCHeaderDecorator@NEffectUpdateDecorator@@@Z ; CDynamicPoolEx<NEffectUpdateDecorator::CHeaderDecorator>::Delete
PUBLIC	??$_Emplace_reallocate@ABQAUSTextTail@CPythonTextTail@@@?$vector@PAUSTextTail@CPythonTextTail@@V?$allocator@PAUSTextTail@CPythonTextTail@@@std@@@std@@QAEPAPAUSTextTail@CPythonTextTail@@QAPAU23@ABQAU23@@Z ; std::vector<CPythonTextTail::STextTail *,std::allocator<CPythonTextTail::STextTail *> >::_Emplace_reallocate<CPythonTextTail::STextTail * const &>
PUBLIC	??$_Construct_in_place@PAU?$_List_node@PAUSTextTail@CPythonTextTail@@PAX@std@@AAPAU12@@std@@YAXAAPAU?$_List_node@PAUSTextTail@CPythonTextTail@@PAX@0@0@Z ; std::_Construct_in_place<std::_List_node<CPythonTextTail::STextTail *,void *> *,std::_List_node<CPythonTextTail::STextTail *,void *> * &>
PUBLIC	??$_Destroy_range@V?$allocator@PAUSTextTail@CPythonTextTail@@@std@@@std@@YAXPAPAUSTextTail@CPythonTextTail@@QAPAU12@AAV?$allocator@PAUSTextTail@CPythonTextTail@@@0@@Z ; std::_Destroy_range<std::allocator<CPythonTextTail::STextTail *> >
PUBLIC	??$_Destroy_range@V?$allocator@PAVCHeaderDecorator@NEffectUpdateDecorator@@@std@@@std@@YAXPAPAVCHeaderDecorator@NEffectUpdateDecorator@@QAPAV12@AAV?$allocator@PAVCHeaderDecorator@NEffectUpdateDecorator@@@0@@Z ; std::_Destroy_range<std::allocator<NEffectUpdateDecorator::CHeaderDecorator *> >
PUBLIC	??$_Destroy_range@V?$allocator@PAVCNullDecorator@NEffectUpdateDecorator@@@std@@@std@@YAXPAPAVCNullDecorator@NEffectUpdateDecorator@@QAPAV12@AAV?$allocator@PAVCNullDecorator@NEffectUpdateDecorator@@@0@@Z ; std::_Destroy_range<std::allocator<NEffectUpdateDecorator::CNullDecorator *> >
PUBLIC	??$_Destroy_range@V?$allocator@PAVCTextureAnimationCWDecorator@NEffectUpdateDecorator@@@std@@@std@@YAXPAPAVCTextureAnimationCWDecorator@NEffectUpdateDecorator@@QAPAV12@AAV?$allocator@PAVCTextureAnimationCWDecorator@NEffectUpdateDecorator@@@0@@Z ; std::_Destroy_range<std::allocator<NEffectUpdateDecorator::CTextureAnimationCWDecorator *> >
PUBLIC	??$_Destroy_range@V?$allocator@PAVCTextureAnimationCCWDecorator@NEffectUpdateDecorator@@@std@@@std@@YAXPAPAVCTextureAnimationCCWDecorator@NEffectUpdateDecorator@@QAPAV12@AAV?$allocator@PAVCTextureAnimationCCWDecorator@NEffectUpdateDecorator@@@0@@Z ; std::_Destroy_range<std::allocator<NEffectUpdateDecorator::CTextureAnimationCCWDecorator *> >
PUBLIC	??$_Destroy_range@V?$allocator@PAVCTextureAnimationRandomDecorator@NEffectUpdateDecorator@@@std@@@std@@YAXPAPAVCTextureAnimationRandomDecorator@NEffectUpdateDecorator@@QAPAV12@AAV?$allocator@PAVCTextureAnimationRandomDecorator@NEffectUpdateDecorator@@@0@@Z ; std::_Destroy_range<std::allocator<NEffectUpdateDecorator::CTextureAnimationRandomDecorator *> >
PUBLIC	??$_Destroy_range@V?$allocator@PAVCAirResistanceDecorator@NEffectUpdateDecorator@@@std@@@std@@YAXPAPAVCAirResistanceDecorator@NEffectUpdateDecorator@@QAPAV12@AAV?$allocator@PAVCAirResistanceDecorator@NEffectUpdateDecorator@@@0@@Z ; std::_Destroy_range<std::allocator<NEffectUpdateDecorator::CAirResistanceDecorator *> >
PUBLIC	??$_Destroy_range@V?$allocator@PAVCGravityDecorator@NEffectUpdateDecorator@@@std@@@std@@YAXPAPAVCGravityDecorator@NEffectUpdateDecorator@@QAPAV12@AAV?$allocator@PAVCGravityDecorator@NEffectUpdateDecorator@@@0@@Z ; std::_Destroy_range<std::allocator<NEffectUpdateDecorator::CGravityDecorator *> >
PUBLIC	??$_Destroy_range@V?$allocator@PAVCRotationDecorator@NEffectUpdateDecorator@@@std@@@std@@YAXPAPAVCRotationDecorator@NEffectUpdateDecorator@@QAPAV12@AAV?$allocator@PAVCRotationDecorator@NEffectUpdateDecorator@@@0@@Z ; std::_Destroy_range<std::allocator<NEffectUpdateDecorator::CRotationDecorator *> >
PUBLIC	??1?$_Alloc_construct_ptr@V?$allocator@U?$_List_node@PAUSTextTail@CPythonTextTail@@PAX@std@@@std@@@std@@QAE@XZ ; std::_Alloc_construct_ptr<std::allocator<std::_List_node<CPythonTextTail::STextTail *,void *> > >::~_Alloc_construct_ptr<std::allocator<std::_List_node<CPythonTextTail::STextTail *,void *> > >
PUBLIC	??$_Find_lower_bound@K@?$_Tree@V?$_Tmap_traits@KPAUSTextTail@CPythonTextTail@@U?$less@K@std@@V?$allocator@U?$pair@$$CBKPAUSTextTail@CPythonTextTail@@@std@@@4@$0A@@std@@@std@@IBE?AU?$_Tree_find_result@PAU?$_Tree_node@U?$pair@$$CBKPAUSTextTail@CPythonTextTail@@@std@@PAX@std@@@1@ABK@Z ; std::_Tree<std::_Tmap_traits<unsigned long,CPythonTextTail::STextTail *,std::less<unsigned long>,std::allocator<std::pair<unsigned long const ,CPythonTextTail::STextTail *> >,0> >::_Find_lower_bound<unsigned long>
PUBLIC	??$_Destroy_in_place@PAU?$_List_node@PAUSTextTail@CPythonTextTail@@PAX@std@@@std@@YAXAAPAU?$_List_node@PAUSTextTail@CPythonTextTail@@PAX@0@@Z ; std::_Destroy_in_place<std::_List_node<CPythonTextTail::STextTail *,void *> *>
PUBLIC	??$_Construct_in_place@PAU?$_Tree_node@U?$pair@$$CBKPAUSTextTail@CPythonTextTail@@@std@@PAX@std@@ABQAU12@@std@@YAXAAPAU?$_Tree_node@U?$pair@$$CBKPAUSTextTail@CPythonTextTail@@@std@@PAX@0@ABQAU10@@Z ; std::_Construct_in_place<std::_Tree_node<std::pair<unsigned long const ,CPythonTextTail::STextTail *>,void *> *,std::_Tree_node<std::pair<unsigned long const ,CPythonTextTail::STextTail *>,void *> * const &>
PUBLIC	??$_Construct_in_place@PAU?$_List_node@PAUSTextTail@CPythonTextTail@@PAX@std@@ABQAU12@@std@@YAXAAPAU?$_List_node@PAUSTextTail@CPythonTextTail@@PAX@0@ABQAU10@@Z ; std::_Construct_in_place<std::_List_node<CPythonTextTail::STextTail *,void *> *,std::_List_node<CPythonTextTail::STextTail *,void *> * const &>
PUBLIC	??$_Uninitialized_move@PAPAUSTextTail@CPythonTextTail@@V?$allocator@PAUSTextTail@CPythonTextTail@@@std@@@std@@YAPAPAUSTextTail@CPythonTextTail@@QAPAU12@0PAPAU12@AAV?$allocator@PAUSTextTail@CPythonTextTail@@@0@@Z ; std::_Uninitialized_move<CPythonTextTail::STextTail * *,std::allocator<CPythonTextTail::STextTail *> >
PUBLIC	??1?$_Alloc_construct_ptr@V?$allocator@U?$_Tree_node@U?$pair@$$CBKPAUSTextTail@CPythonTextTail@@@std@@PAX@std@@@std@@@std@@QAE@XZ ; std::_Alloc_construct_ptr<std::allocator<std::_Tree_node<std::pair<unsigned long const ,CPythonTextTail::STextTail *>,void *> > >::~_Alloc_construct_ptr<std::allocator<std::_Tree_node<std::pair<unsigned long const ,CPythonTextTail::STextTail *>,void *> > >
PUBLIC	??$_Destroy_in_place@PAU?$_Tree_node@U?$pair@$$CBKPAUSTextTail@CPythonTextTail@@@std@@PAX@std@@@std@@YAXAAPAU?$_Tree_node@U?$pair@$$CBKPAUSTextTail@CPythonTextTail@@@std@@PAX@0@@Z ; std::_Destroy_in_place<std::_Tree_node<std::pair<unsigned long const ,CPythonTextTail::STextTail *>,void *> *>
PUBLIC	??$_Copy_memmove@PAPAUSTextTail@CPythonTextTail@@PAPAU12@@std@@YAPAPAUSTextTail@CPythonTextTail@@PAPAU12@00@Z ; std::_Copy_memmove<CPythonTextTail::STextTail * *,CPythonTextTail::STextTail * *>
PUBLIC	??$_Construct_in_place@PAU?$_Tree_node@U?$pair@$$CBKPAUSTextTail@CPythonTextTail@@@std@@PAX@std@@AAPAU12@@std@@YAXAAPAU?$_Tree_node@U?$pair@$$CBKPAUSTextTail@CPythonTextTail@@@std@@PAX@0@0@Z ; std::_Construct_in_place<std::_Tree_node<std::pair<unsigned long const ,CPythonTextTail::STextTail *>,void *> *,std::_Tree_node<std::pair<unsigned long const ,CPythonTextTail::STextTail *>,void *> * &>
PUBLIC	?_OptionsStorage@?1??__local_stdio_printf_options@@9@4_KA ; `__local_stdio_printf_options'::`2'::_OptionsStorage
PUBLIC	??_7exception@std@@6B@				; std::exception::`vftable'
PUBLIC	??_C@_0BC@EOODALEL@Unknown?5exception@		; `string'
PUBLIC	??_7bad_alloc@std@@6B@				; std::bad_alloc::`vftable'
PUBLIC	??_7bad_array_new_length@std@@6B@		; std::bad_array_new_length::`vftable'
PUBLIC	??_C@_0BF@KINCDENJ@bad?5array?5new?5length@	; `string'
PUBLIC	__TI3?AVbad_array_new_length@std@@
PUBLIC	__CTA3?AVbad_array_new_length@std@@
PUBLIC	??_R0?AVbad_array_new_length@std@@@8		; std::bad_array_new_length `RTTI Type Descriptor'
PUBLIC	__CT??_R0?AVbad_array_new_length@std@@@8??0bad_array_new_length@std@@QAE@ABV01@@Z12
PUBLIC	??_R0?AVbad_alloc@std@@@8			; std::bad_alloc `RTTI Type Descriptor'
PUBLIC	__CT??_R0?AVbad_alloc@std@@@8??0bad_alloc@std@@QAE@ABV01@@Z12
PUBLIC	??_R0?AVexception@std@@@8			; std::exception `RTTI Type Descriptor'
PUBLIC	__CT??_R0?AVexception@std@@@8??0exception@std@@QAE@ABV01@@Z12
PUBLIC	??_C@_0BA@JFNIOLAK@string?5too?5long@		; `string'
PUBLIC	??_C@_0BB@GCADKGJO@map?1set?5too?5long@		; `string'
PUBLIC	??_C@_00CNPNBAHC@@				; `string'
PUBLIC	?ms_singleton@?$CSingleton@VCTimer@@@@0PAVCTimer@@A ; CSingleton<CTimer>::ms_singleton
PUBLIC	?ms_singleton@?$CSingleton@VCPythonGraphic@@@@0PAVCPythonGraphic@@A ; CSingleton<CPythonGraphic>::ms_singleton
PUBLIC	??_C@_0BA@FOIKENOD@vector?5too?5long@		; `string'
PUBLIC	??_R4exception@std@@6B@				; std::exception::`RTTI Complete Object Locator'
PUBLIC	??_R3exception@std@@8				; std::exception::`RTTI Class Hierarchy Descriptor'
PUBLIC	??_R2exception@std@@8				; std::exception::`RTTI Base Class Array'
PUBLIC	??_R1A@?0A@EA@exception@std@@8			; std::exception::`RTTI Base Class Descriptor at (0,-1,0,64)'
PUBLIC	??_R4bad_alloc@std@@6B@				; std::bad_alloc::`RTTI Complete Object Locator'
PUBLIC	??_R3bad_alloc@std@@8				; std::bad_alloc::`RTTI Class Hierarchy Descriptor'
PUBLIC	??_R2bad_alloc@std@@8				; std::bad_alloc::`RTTI Base Class Array'
PUBLIC	??_R1A@?0A@EA@bad_alloc@std@@8			; std::bad_alloc::`RTTI Base Class Descriptor at (0,-1,0,64)'
PUBLIC	??_R4bad_array_new_length@std@@6B@		; std::bad_array_new_length::`RTTI Complete Object Locator'
PUBLIC	??_R3bad_array_new_length@std@@8		; std::bad_array_new_length::`RTTI Class Hierarchy Descriptor'
PUBLIC	??_R2bad_array_new_length@std@@8		; std::bad_array_new_length::`RTTI Base Class Array'
PUBLIC	??_R1A@?0A@EA@bad_array_new_length@std@@8	; std::bad_array_new_length::`RTTI Base Class Descriptor at (0,-1,0,64)'
PUBLIC	?ms_kPool@?$CPooledObject@VCHeaderDecorator@NEffectUpdateDecorator@@@@1V?$CDynamicPoolEx@VCHeaderDecorator@NEffectUpdateDecorator@@@@A ; CPooledObject<NEffectUpdateDecorator::CHeaderDecorator>::ms_kPool
PUBLIC	?ms_kPool@?$CPooledObject@VCNullDecorator@NEffectUpdateDecorator@@@@1V?$CDynamicPoolEx@VCNullDecorator@NEffectUpdateDecorator@@@@A ; CPooledObject<NEffectUpdateDecorator::CNullDecorator>::ms_kPool
PUBLIC	?ms_kPool@?$CPooledObject@VCTextureAnimationCWDecorator@NEffectUpdateDecorator@@@@1V?$CDynamicPoolEx@VCTextureAnimationCWDecorator@NEffectUpdateDecorator@@@@A ; CPooledObject<NEffectUpdateDecorator::CTextureAnimationCWDecorator>::ms_kPool
PUBLIC	?ms_kPool@?$CPooledObject@VCTextureAnimationCCWDecorator@NEffectUpdateDecorator@@@@1V?$CDynamicPoolEx@VCTextureAnimationCCWDecorator@NEffectUpdateDecorator@@@@A ; CPooledObject<NEffectUpdateDecorator::CTextureAnimationCCWDecorator>::ms_kPool
PUBLIC	?ms_kPool@?$CPooledObject@VCTextureAnimationRandomDecorator@NEffectUpdateDecorator@@@@1V?$CDynamicPoolEx@VCTextureAnimationRandomDecorator@NEffectUpdateDecorator@@@@A ; CPooledObject<NEffectUpdateDecorator::CTextureAnimationRandomDecorator>::ms_kPool
PUBLIC	?ms_kPool@?$CPooledObject@VCAirResistanceDecorator@NEffectUpdateDecorator@@@@1V?$CDynamicPoolEx@VCAirResistanceDecorator@NEffectUpdateDecorator@@@@A ; CPooledObject<NEffectUpdateDecorator::CAirResistanceDecorator>::ms_kPool
PUBLIC	?ms_kPool@?$CPooledObject@VCGravityDecorator@NEffectUpdateDecorator@@@@1V?$CDynamicPoolEx@VCGravityDecorator@NEffectUpdateDecorator@@@@A ; CPooledObject<NEffectUpdateDecorator::CGravityDecorator>::ms_kPool
PUBLIC	?ms_kPool@?$CPooledObject@VCRotationDecorator@NEffectUpdateDecorator@@@@1V?$CDynamicPoolEx@VCRotationDecorator@NEffectUpdateDecorator@@@@A ; CPooledObject<NEffectUpdateDecorator::CRotationDecorator>::ms_kPool
PUBLIC	?ms_singleton@?$CSingleton@VCPythonTextTail@@@@0PAVCPythonTextTail@@A ; CSingleton<CPythonTextTail>::ms_singleton
PUBLIC	??_7?$CSingleton@VCPythonTextTail@@@@6B@	; CSingleton<CPythonTextTail>::`vftable'
PUBLIC	??_7STextTail@CPythonTextTail@@6B@		; CPythonTextTail::STextTail::`vftable'
PUBLIC	??_7?$CDynamicPool@USTextTail@CPythonTextTail@@@@6B@ ; CDynamicPool<CPythonTextTail::STextTail>::`vftable'
PUBLIC	??_7CPythonTextTail@@6B@			; CPythonTextTail::`vftable'
PUBLIC	?ms_singleton@?$CSingleton@VCPythonCharacterManager@@@@0PAVCPythonCharacterManager@@A ; CSingleton<CPythonCharacterManager>::ms_singleton
PUBLIC	?ms_singleton@?$CSingleton@VCPythonGuild@@@@0PAVCPythonGuild@@A ; CSingleton<CPythonGuild>::ms_singleton
PUBLIC	?ms_singleton@?$singleton@VCGuildMarkManager@@@@0PAVCGuildMarkManager@@A ; singleton<CGuildMarkManager>::ms_singleton
PUBLIC	??_C@_0FG@PPLFOIJH@TextTail?3?5ChatTail?5?$CFd?0?5ChrTail?5@ ; `string'
PUBLIC	??_C@_06HCBIANPB@Noname@			; `string'
PUBLIC	??_C@_0DO@PHLLOPOI@CPythonTextTail?3?3DeleteCharacte@ ; `string'
PUBLIC	??_C@_0DM@EALAGA@?5CPythonTextTail?3?3DeleteItemTex@ ; `string'
PUBLIC	??_C@_0DH@ONGBNPOP@CPythonTextTail?3?3Initialize?5?9?5C@ ; `string'
PUBLIC	??_C@_0O@NKNMEGII@list?5too?5long@		; `string'
PUBLIC	??_R4CPythonTextTail@@6B@			; CPythonTextTail::`RTTI Complete Object Locator'
PUBLIC	??_R0?AVCPythonTextTail@@@8			; CPythonTextTail `RTTI Type Descriptor'
PUBLIC	??_R3CPythonTextTail@@8				; CPythonTextTail::`RTTI Class Hierarchy Descriptor'
PUBLIC	??_R2CPythonTextTail@@8				; CPythonTextTail::`RTTI Base Class Array'
PUBLIC	??_R1A@?0A@EA@CPythonTextTail@@8		; CPythonTextTail::`RTTI Base Class Descriptor at (0,-1,0,64)'
PUBLIC	??_R1A@?0A@EA@?$CSingleton@VCPythonTextTail@@@@8 ; CSingleton<CPythonTextTail>::`RTTI Base Class Descriptor at (0,-1,0,64)'
PUBLIC	??_R0?AV?$CSingleton@VCPythonTextTail@@@@@8	; CSingleton<CPythonTextTail> `RTTI Type Descriptor'
PUBLIC	??_R3?$CSingleton@VCPythonTextTail@@@@8		; CSingleton<CPythonTextTail>::`RTTI Class Hierarchy Descriptor'
PUBLIC	??_R2?$CSingleton@VCPythonTextTail@@@@8		; CSingleton<CPythonTextTail>::`RTTI Base Class Array'
PUBLIC	??_R4?$CSingleton@VCPythonTextTail@@@@6B@	; CSingleton<CPythonTextTail>::`RTTI Complete Object Locator'
PUBLIC	??_R4STextTail@CPythonTextTail@@6B@		; CPythonTextTail::STextTail::`RTTI Complete Object Locator'
PUBLIC	??_R0?AUSTextTail@CPythonTextTail@@@8		; CPythonTextTail::STextTail `RTTI Type Descriptor'
PUBLIC	??_R3STextTail@CPythonTextTail@@8		; CPythonTextTail::STextTail::`RTTI Class Hierarchy Descriptor'
PUBLIC	??_R2STextTail@CPythonTextTail@@8		; CPythonTextTail::STextTail::`RTTI Base Class Array'
PUBLIC	??_R1A@?0A@EA@STextTail@CPythonTextTail@@8	; CPythonTextTail::STextTail::`RTTI Base Class Descriptor at (0,-1,0,64)'
PUBLIC	??_R4?$CDynamicPool@USTextTail@CPythonTextTail@@@@6B@ ; CDynamicPool<CPythonTextTail::STextTail>::`RTTI Complete Object Locator'
PUBLIC	??_R0?AV?$CDynamicPool@USTextTail@CPythonTextTail@@@@@8 ; CDynamicPool<CPythonTextTail::STextTail> `RTTI Type Descriptor'
PUBLIC	??_R3?$CDynamicPool@USTextTail@CPythonTextTail@@@@8 ; CDynamicPool<CPythonTextTail::STextTail>::`RTTI Class Hierarchy Descriptor'
PUBLIC	??_R2?$CDynamicPool@USTextTail@CPythonTextTail@@@@8 ; CDynamicPool<CPythonTextTail::STextTail>::`RTTI Base Class Array'
PUBLIC	??_R1A@?0A@EA@?$CDynamicPool@USTextTail@CPythonTextTail@@@@8 ; CDynamicPool<CPythonTextTail::STextTail>::`RTTI Base Class Descriptor at (0,-1,0,64)'
PUBLIC	__real@3f000000
PUBLIC	__real@3f800000
PUBLIC	__real@3fc00000
PUBLIC	__real@40800000
PUBLIC	__real@40a00000
PUBLIC	__real@41000000
PUBLIC	__real@41200000
PUBLIC	__real@41700000
PUBLIC	__real@41880000
PUBLIC	__real@41d00000
PUBLIC	__real@437f0000
PUBLIC	__real@44a28000
PUBLIC	__real@455ac000
PUBLIC	__xmm@80000000800000008000000080000000
EXTRN	??2@YAPAXI@Z:PROC				; operator new
EXTRN	??3@YAXPAX@Z:PROC				; operator delete
EXTRN	??3@YAXPAXI@Z:PROC				; operator delete
EXTRN	_atexit:PROC
EXTRN	__Init_thread_header:PROC
EXTRN	__Init_thread_abort:PROC
EXTRN	__Init_thread_footer:PROC
EXTRN	__invalid_parameter_noinfo_noreturn:PROC
EXTRN	___stdio_common_vsprintf:PROC
EXTRN	___std_exception_copy:PROC
EXTRN	___std_exception_destroy:PROC
EXTRN	??_Eexception@std@@UAEPAXI@Z:PROC		; std::exception::`vector deleting destructor'
EXTRN	??_Ebad_alloc@std@@UAEPAXI@Z:PROC		; std::bad_alloc::`vector deleting destructor'
EXTRN	??_Ebad_array_new_length@std@@UAEPAXI@Z:PROC	; std::bad_array_new_length::`vector deleting destructor'
EXTRN	?_Xlength_error@std@@YAXPBD@Z:PROC		; std::_Xlength_error
EXTRN	?Tracenf@@YAXPBDZZ:PROC				; Tracenf
EXTRN	?Tracef@@YAXPBDZZ:PROC				; Tracef
EXTRN	?TraceError@@YAXPBDZZ:PROC			; TraceError
EXTRN	?fMIN@@YAMMM@Z:PROC				; fMIN
EXTRN	?fMAX@@YAMMM@Z:PROC				; fMAX
EXTRN	?GetCurrentMillisecond@CTimer@@QAEKXZ:PROC	; CTimer::GetCurrentMillisecond
EXTRN	?GetDefaultCodePage@@YAKXZ:PROC			; GetDefaultCodePage
EXTRN	?Update@CGraphicTextInstance@@QAEXXZ:PROC	; CGraphicTextInstance::Update
EXTRN	?Render@CGraphicTextInstance@@QAEXPAUtagRECT@@@Z:PROC ; CGraphicTextInstance::Render
EXTRN	?SetColor@CGraphicTextInstance@@QAEXK@Z:PROC	; CGraphicTextInstance::SetColor
EXTRN	?SetColor@CGraphicTextInstance@@QAEXMMMM@Z:PROC	; CGraphicTextInstance::SetColor
EXTRN	?SetHorizonalAlign@CGraphicTextInstance@@QAEXH@Z:PROC ; CGraphicTextInstance::SetHorizonalAlign
EXTRN	?SetVerticalAlign@CGraphicTextInstance@@QAEXH@Z:PROC ; CGraphicTextInstance::SetVerticalAlign
EXTRN	?SetTextPointer@CGraphicTextInstance@@QAEXPAVCGraphicText@@@Z:PROC ; CGraphicTextInstance::SetTextPointer
EXTRN	?SetValue@CGraphicTextInstance@@QAEXPBDI@Z:PROC	; CGraphicTextInstance::SetValue
EXTRN	?SetPosition@CGraphicTextInstance@@QAEXMMM@Z:PROC ; CGraphicTextInstance::SetPosition
EXTRN	?SetOutline@CGraphicTextInstance@@QAEX_N@Z:PROC	; CGraphicTextInstance::SetOutline
EXTRN	?GetTextSize@CGraphicTextInstance@@QAEXPAH0@Z:PROC ; CGraphicTextInstance::GetTextSize
EXTRN	?New@CGraphicTextInstance@@SAPAV1@XZ:PROC	; CGraphicTextInstance::New
EXTRN	?Delete@CGraphicTextInstance@@SAXPAV1@@Z:PROC	; CGraphicTextInstance::Delete
EXTRN	?SetImageFileName@CGraphicMarkInstance@@QAEXPBD@Z:PROC ; CGraphicMarkInstance::SetImageFileName
EXTRN	?Render@CGraphicMarkInstance@@QAEXXZ:PROC	; CGraphicMarkInstance::Render
EXTRN	?SetPosition@CGraphicMarkInstance@@QAEXMM@Z:PROC ; CGraphicMarkInstance::SetPosition
EXTRN	?SetIndex@CGraphicMarkInstance@@QAEXI@Z:PROC	; CGraphicMarkInstance::SetIndex
EXTRN	?Load@CGraphicMarkInstance@@QAEXXZ:PROC		; CGraphicMarkInstance::Load
EXTRN	?GetWidth@CGraphicMarkInstance@@QAEHXZ:PROC	; CGraphicMarkInstance::GetWidth
EXTRN	?New@CGraphicMarkInstance@@SAPAV1@XZ:PROC	; CGraphicMarkInstance::New
EXTRN	?Delete@CGraphicMarkInstance@@SAXPAV1@@Z:PROC	; CGraphicMarkInstance::Delete
EXTRN	?RenderBox2d@CScreen@@QAEXMMMMM@Z:PROC		; CScreen::RenderBox2d
EXTRN	?RenderBar2d@CScreen@@QAEXMMMMM@Z:PROC		; CScreen::RenderBar2d
EXTRN	?SetDiffuseColor@CScreen@@QAEXMMMM@Z:PROC	; CScreen::SetDiffuseColor
EXTRN	?ProjectPosition@CScreen@@QAEXMMMPAM00@Z:PROC	; CScreen::ProjectPosition
EXTRN	?Identity@CScreen@@SAXXZ:PROC			; CScreen::Identity
EXTRN	?GetPosition@CGraphicObjectInstance@@QBEABUD3DXVECTOR3@@XZ:PROC ; CGraphicObjectInstance::GetPosition
EXTRN	?isShow@CGraphicObjectInstance@@QAE_NXZ:PROC	; CGraphicObjectInstance::isShow
EXTRN	?GetOrthoDepth@CPythonGraphic@@QAEMXZ:PROC	; CPythonGraphic::GetOrthoDepth
EXTRN	?LocaleService_IsEUROPE@@YA_NXZ:PROC		; LocaleService_IsEUROPE
EXTRN	?DefaultFont_GetResource@@YAPAVCResource@@XZ:PROC ; DefaultFont_GetResource
EXTRN	?ApplicationStringTable_GetString@@YAABV?$basic_string@DU?$char_traits@D@std@@V?$allocator@D@2@@std@@K@Z:PROC ; ApplicationStringTable_GetString
EXTRN	?GetHeight@CActorInstance@@QAEMXZ:PROC		; CActorInstance::GetHeight
EXTRN	?GetNameString@CInstanceBase@@QAEPBDXZ:PROC	; CInstanceBase::GetNameString
EXTRN	?CanPickInstance@CInstanceBase@@QAE_NXZ:PROC	; CInstanceBase::CanPickInstance
EXTRN	?IsGuildWall@CInstanceBase@@QAEHXZ:PROC		; CInstanceBase::IsGuildWall
EXTRN	?NEW_GetPixelPosition@CInstanceBase@@QAEXPAUD3DXVECTOR3@@@Z:PROC ; CInstanceBase::NEW_GetPixelPosition
EXTRN	?GetGraphicThingInstanceRef@CInstanceBase@@QAEAAVCActorInstance@@XZ:PROC ; CInstanceBase::GetGraphicThingInstanceRef
EXTRN	?GetGraphicThingInstancePtr@CInstanceBase@@QAEPAVCActorInstance@@XZ:PROC ; CInstanceBase::GetGraphicThingInstancePtr
EXTRN	??_E?$CSingleton@VCPythonTextTail@@@@UAEPAXI@Z:PROC ; CSingleton<CPythonTextTail>::`vector deleting destructor'
EXTRN	??_ESTextTail@CPythonTextTail@@UAEPAXI@Z:PROC	; CPythonTextTail::STextTail::`vector deleting destructor'
EXTRN	??_E?$CDynamicPool@USTextTail@CPythonTextTail@@@@UAEPAXI@Z:PROC ; CDynamicPool<CPythonTextTail::STextTail>::`vector deleting destructor'
EXTRN	??_ECPythonTextTail@@UAEPAXI@Z:PROC		; CPythonTextTail::`vector deleting destructor'
EXTRN	?GetMainInstancePtr@CPythonCharacterManager@@QAEPAVCInstanceBase@@XZ:PROC ; CPythonCharacterManager::GetMainInstancePtr
EXTRN	?GetGuildName@CPythonGuild@@QAE_NKPAV?$basic_string@DU?$char_traits@D@std@@V?$allocator@D@2@@std@@@Z:PROC ; CPythonGuild::GetGuildName
EXTRN	?GetMarkImageFilename@CGuildMarkManager@@QBE_NKAAV?$basic_string@DU?$char_traits@D@std@@V?$allocator@D@2@@std@@@Z:PROC ; CGuildMarkManager::GetMarkImageFilename
EXTRN	?GetMarkID@CGuildMarkManager@@QAEKK@Z:PROC	; CGuildMarkManager::GetMarkID
EXTRN	@__security_check_cookie@4:PROC
EXTRN	__CxxThrowException@8:PROC
EXTRN	___CxxFrameHandler3:PROC
EXTRN	__ftoui3:PROC
EXTRN	__libm_sse2_sqrt_precise:PROC
EXTRN	_floor:PROC
EXTRN	_memcpy:PROC
EXTRN	_memmove:PROC
EXTRN	__Init_thread_epoch:DWORD
EXTRN	___security_cookie:DWORD
EXTRN	__fltused:DWORD
EXTRN	__tls_array:DWORD
EXTRN	__tls_index:DWORD
;	COMDAT ?_OptionsStorage@?1??__local_stdio_printf_options@@9@4_KA
_BSS	SEGMENT
?_OptionsStorage@?1??__local_stdio_printf_options@@9@4_KA DQ 01H DUP (?) ; `__local_stdio_printf_options'::`2'::_OptionsStorage
_BSS	ENDS
;	COMDAT ?ms_singleton@?$CSingleton@VCTimer@@@@0PAVCTimer@@A
_BSS	SEGMENT
?ms_singleton@?$CSingleton@VCTimer@@@@0PAVCTimer@@A DD 01H DUP (?) ; CSingleton<CTimer>::ms_singleton
_BSS	ENDS
;	COMDAT ?ms_singleton@?$CSingleton@VCPythonGraphic@@@@0PAVCPythonGraphic@@A
_BSS	SEGMENT
?ms_singleton@?$CSingleton@VCPythonGraphic@@@@0PAVCPythonGraphic@@A DD 01H DUP (?) ; CSingleton<CPythonGraphic>::ms_singleton
_BSS	ENDS
;	COMDAT ?ms_singleton@?$CSingleton@VCPythonTextTail@@@@0PAVCPythonTextTail@@A
_BSS	SEGMENT
?ms_singleton@?$CSingleton@VCPythonTextTail@@@@0PAVCPythonTextTail@@A DD 01H DUP (?) ; CSingleton<CPythonTextTail>::ms_singleton
_BSS	ENDS
;	COMDAT ?ms_singleton@?$CSingleton@VCPythonCharacterManager@@@@0PAVCPythonCharacterManager@@A
_BSS	SEGMENT
?ms_singleton@?$CSingleton@VCPythonCharacterManager@@@@0PAVCPythonCharacterManager@@A DD 01H DUP (?) ; CSingleton<CPythonCharacterManager>::ms_singleton
_BSS	ENDS
;	COMDAT ?ms_singleton@?$CSingleton@VCPythonGuild@@@@0PAVCPythonGuild@@A
_BSS	SEGMENT
?ms_singleton@?$CSingleton@VCPythonGuild@@@@0PAVCPythonGuild@@A DD 01H DUP (?) ; CSingleton<CPythonGuild>::ms_singleton
_BSS	ENDS
;	COMDAT ?ms_singleton@?$singleton@VCGuildMarkManager@@@@0PAVCGuildMarkManager@@A
_BSS	SEGMENT
?ms_singleton@?$singleton@VCGuildMarkManager@@@@0PAVCGuildMarkManager@@A DD 01H DUP (?) ; singleton<CGuildMarkManager>::ms_singleton
_BSS	ENDS
;	COMDAT ?strOwnership@?6??SetItemTextTailOwner@CPythonTextTail@@QAEXKPBD@Z@4ABV?$basic_string@DU?$char_traits@D@std@@V?$allocator@D@2@@std@@B
_BSS	SEGMENT
?strOwnership@?6??SetItemTextTailOwner@CPythonTextTail@@QAEXKPBD@Z@4ABV?$basic_string@DU?$char_traits@D@std@@V?$allocator@D@2@@std@@B DD 01H DUP (?) ; `CPythonTextTail::SetItemTextTailOwner'::`7'::strOwnership
_BSS	ENDS
;	COMDAT ?$TSS0@?6??SetItemTextTailOwner@CPythonTextTail@@QAEXKPBD@Z@4HA
_BSS	SEGMENT
?$TSS0@?6??SetItemTextTailOwner@CPythonTextTail@@QAEXKPBD@Z@4HA DD 01H DUP (?) ; `CPythonTextTail::SetItemTextTailOwner'::`7'::$TSS0
_BSS	ENDS
;	COMDAT ?$S12@?6??SetItemTextTailOwner@CPythonTextTail@@QAEXKPBD@Z@4V?$basic_string@DU?$char_traits@D@std@@V?$allocator@D@2@@std@@B
_BSS	SEGMENT
?$S12@?6??SetItemTextTailOwner@CPythonTextTail@@QAEXKPBD@Z@4V?$basic_string@DU?$char_traits@D@std@@V?$allocator@D@2@@std@@B DB 018H DUP (?) ; `CPythonTextTail::SetItemTextTailOwner'::`7'::$S12
_BSS	ENDS
;	COMDAT CRT$XCU
CRT$XCU	SEGMENT
??ms_kPool$initializer$@?$CPooledObject@VCHeaderDecorator@NEffectUpdateDecorator@@@@1P6AXXZA@@3P6AXXZA DD FLAT:??__E?ms_kPool@?$CPooledObject@VCHeaderDecorator@NEffectUpdateDecorator@@@@1V?$CDynamicPoolEx@VCHeaderDecorator@NEffectUpdateDecorator@@@@A@@YAXXZ ; ??ms_kPool$initializer$@?$CPooledObject@VCHeaderDecorator@NEffectUpdateDecorator@@@@1P6AXXZA@@3P6AXXZA
CRT$XCU	ENDS
;	COMDAT __xmm@80000000800000008000000080000000
CONST	SEGMENT
__xmm@80000000800000008000000080000000 DB 00H, 00H, 00H, 080H, 00H, 00H, 00H
	DB	080H, 00H, 00H, 00H, 080H, 00H, 00H, 00H, 080H
CONST	ENDS
;	COMDAT __real@455ac000
CONST	SEGMENT
__real@455ac000 DD 0455ac000r			; 3500
CONST	ENDS
;	COMDAT __real@44a28000
CONST	SEGMENT
__real@44a28000 DD 044a28000r			; 1300
CONST	ENDS
;	COMDAT __real@437f0000
CONST	SEGMENT
__real@437f0000 DD 0437f0000r			; 255
CONST	ENDS
;	COMDAT __real@41d00000
CONST	SEGMENT
__real@41d00000 DD 041d00000r			; 26
CONST	ENDS
;	COMDAT __real@41880000
CONST	SEGMENT
__real@41880000 DD 041880000r			; 17
CONST	ENDS
;	COMDAT __real@41700000
CONST	SEGMENT
__real@41700000 DD 041700000r			; 15
CONST	ENDS
;	COMDAT __real@41200000
CONST	SEGMENT
__real@41200000 DD 041200000r			; 10
CONST	ENDS
;	COMDAT __real@41000000
CONST	SEGMENT
__real@41000000 DD 041000000r			; 8
CONST	ENDS
;	COMDAT __real@40a00000
CONST	SEGMENT
__real@40a00000 DD 040a00000r			; 5
CONST	ENDS
;	COMDAT __real@40800000
CONST	SEGMENT
__real@40800000 DD 040800000r			; 4
CONST	ENDS
;	COMDAT __real@3fc00000
CONST	SEGMENT
__real@3fc00000 DD 03fc00000r			; 1.5
CONST	ENDS
;	COMDAT __real@3f800000
CONST	SEGMENT
__real@3f800000 DD 03f800000r			; 1
CONST	ENDS
;	COMDAT __real@3f000000
CONST	SEGMENT
__real@3f000000 DD 03f000000r			; 0.5
CONST	ENDS
;	COMDAT ??_R1A@?0A@EA@?$CDynamicPool@USTextTail@CPythonTextTail@@@@8
rdata$r	SEGMENT
??_R1A@?0A@EA@?$CDynamicPool@USTextTail@CPythonTextTail@@@@8 DD FLAT:??_R0?AV?$CDynamicPool@USTextTail@CPythonTextTail@@@@@8 ; CDynamicPool<CPythonTextTail::STextTail>::`RTTI Base Class Descriptor at (0,-1,0,64)'
	DD	00H
	DD	00H
	DD	0ffffffffH
	DD	00H
	DD	040H
	DD	FLAT:??_R3?$CDynamicPool@USTextTail@CPythonTextTail@@@@8
rdata$r	ENDS
;	COMDAT ??_R2?$CDynamicPool@USTextTail@CPythonTextTail@@@@8
rdata$r	SEGMENT
??_R2?$CDynamicPool@USTextTail@CPythonTextTail@@@@8 DD FLAT:??_R1A@?0A@EA@?$CDynamicPool@USTextTail@CPythonTextTail@@@@8 ; CDynamicPool<CPythonTextTail::STextTail>::`RTTI Base Class Array'
rdata$r	ENDS
;	COMDAT ??_R3?$CDynamicPool@USTextTail@CPythonTextTail@@@@8
rdata$r	SEGMENT
??_R3?$CDynamicPool@USTextTail@CPythonTextTail@@@@8 DD 00H ; CDynamicPool<CPythonTextTail::STextTail>::`RTTI Class Hierarchy Descriptor'
	DD	00H
	DD	01H
	DD	FLAT:??_R2?$CDynamicPool@USTextTail@CPythonTextTail@@@@8
rdata$r	ENDS
;	COMDAT ??_R0?AV?$CDynamicPool@USTextTail@CPythonTextTail@@@@@8
data$rs	SEGMENT
??_R0?AV?$CDynamicPool@USTextTail@CPythonTextTail@@@@@8 DD FLAT:??_7type_info@@6B@ ; CDynamicPool<CPythonTextTail::STextTail> `RTTI Type Descriptor'
	DD	00H
	DB	'.?AV?$CDynamicPool@USTextTail@CPythonTextTail@@@@', 00H
data$rs	ENDS
;	COMDAT ??_R4?$CDynamicPool@USTextTail@CPythonTextTail@@@@6B@
rdata$r	SEGMENT
??_R4?$CDynamicPool@USTextTail@CPythonTextTail@@@@6B@ DD 00H ; CDynamicPool<CPythonTextTail::STextTail>::`RTTI Complete Object Locator'
	DD	00H
	DD	00H
	DD	FLAT:??_R0?AV?$CDynamicPool@USTextTail@CPythonTextTail@@@@@8
	DD	FLAT:??_R3?$CDynamicPool@USTextTail@CPythonTextTail@@@@8
rdata$r	ENDS
;	COMDAT ??_R1A@?0A@EA@STextTail@CPythonTextTail@@8
rdata$r	SEGMENT
??_R1A@?0A@EA@STextTail@CPythonTextTail@@8 DD FLAT:??_R0?AUSTextTail@CPythonTextTail@@@8 ; CPythonTextTail::STextTail::`RTTI Base Class Descriptor at (0,-1,0,64)'
	DD	00H
	DD	00H
	DD	0ffffffffH
	DD	00H
	DD	040H
	DD	FLAT:??_R3STextTail@CPythonTextTail@@8
rdata$r	ENDS
;	COMDAT ??_R2STextTail@CPythonTextTail@@8
rdata$r	SEGMENT
??_R2STextTail@CPythonTextTail@@8 DD FLAT:??_R1A@?0A@EA@STextTail@CPythonTextTail@@8 ; CPythonTextTail::STextTail::`RTTI Base Class Array'
rdata$r	ENDS
;	COMDAT ??_R3STextTail@CPythonTextTail@@8
rdata$r	SEGMENT
??_R3STextTail@CPythonTextTail@@8 DD 00H		; CPythonTextTail::STextTail::`RTTI Class Hierarchy Descriptor'
	DD	00H
	DD	01H
	DD	FLAT:??_R2STextTail@CPythonTextTail@@8
rdata$r	ENDS
;	COMDAT ??_R0?AUSTextTail@CPythonTextTail@@@8
data$rs	SEGMENT
??_R0?AUSTextTail@CPythonTextTail@@@8 DD FLAT:??_7type_info@@6B@ ; CPythonTextTail::STextTail `RTTI Type Descriptor'
	DD	00H
	DB	'.?AUSTextTail@CPythonTextTail@@', 00H
data$rs	ENDS
;	COMDAT ??_R4STextTail@CPythonTextTail@@6B@
rdata$r	SEGMENT
??_R4STextTail@CPythonTextTail@@6B@ DD 00H		; CPythonTextTail::STextTail::`RTTI Complete Object Locator'
	DD	00H
	DD	00H
	DD	FLAT:??_R0?AUSTextTail@CPythonTextTail@@@8
	DD	FLAT:??_R3STextTail@CPythonTextTail@@8
rdata$r	ENDS
;	COMDAT ??_R4?$CSingleton@VCPythonTextTail@@@@6B@
rdata$r	SEGMENT
??_R4?$CSingleton@VCPythonTextTail@@@@6B@ DD 00H	; CSingleton<CPythonTextTail>::`RTTI Complete Object Locator'
	DD	00H
	DD	00H
	DD	FLAT:??_R0?AV?$CSingleton@VCPythonTextTail@@@@@8
	DD	FLAT:??_R3?$CSingleton@VCPythonTextTail@@@@8
rdata$r	ENDS
;	COMDAT ??_R2?$CSingleton@VCPythonTextTail@@@@8
rdata$r	SEGMENT
??_R2?$CSingleton@VCPythonTextTail@@@@8 DD FLAT:??_R1A@?0A@EA@?$CSingleton@VCPythonTextTail@@@@8 ; CSingleton<CPythonTextTail>::`RTTI Base Class Array'
rdata$r	ENDS
;	COMDAT ??_R3?$CSingleton@VCPythonTextTail@@@@8
rdata$r	SEGMENT
??_R3?$CSingleton@VCPythonTextTail@@@@8 DD 00H		; CSingleton<CPythonTextTail>::`RTTI Class Hierarchy Descriptor'
	DD	00H
	DD	01H
	DD	FLAT:??_R2?$CSingleton@VCPythonTextTail@@@@8
rdata$r	ENDS
;	COMDAT ??_R0?AV?$CSingleton@VCPythonTextTail@@@@@8
data$rs	SEGMENT
??_R0?AV?$CSingleton@VCPythonTextTail@@@@@8 DD FLAT:??_7type_info@@6B@ ; CSingleton<CPythonTextTail> `RTTI Type Descriptor'
	DD	00H
	DB	'.?AV?$CSingleton@VCPythonTextTail@@@@', 00H
data$rs	ENDS
;	COMDAT ??_R1A@?0A@EA@?$CSingleton@VCPythonTextTail@@@@8
rdata$r	SEGMENT
??_R1A@?0A@EA@?$CSingleton@VCPythonTextTail@@@@8 DD FLAT:??_R0?AV?$CSingleton@VCPythonTextTail@@@@@8 ; CSingleton<CPythonTextTail>::`RTTI Base Class Descriptor at (0,-1,0,64)'
	DD	00H
	DD	00H
	DD	0ffffffffH
	DD	00H
	DD	040H
	DD	FLAT:??_R3?$CSingleton@VCPythonTextTail@@@@8
rdata$r	ENDS
;	COMDAT ??_R1A@?0A@EA@CPythonTextTail@@8
rdata$r	SEGMENT
??_R1A@?0A@EA@CPythonTextTail@@8 DD FLAT:??_R0?AVCPythonTextTail@@@8 ; CPythonTextTail::`RTTI Base Class Descriptor at (0,-1,0,64)'
	DD	01H
	DD	00H
	DD	0ffffffffH
	DD	00H
	DD	040H
	DD	FLAT:??_R3CPythonTextTail@@8
rdata$r	ENDS
;	COMDAT ??_R2CPythonTextTail@@8
rdata$r	SEGMENT
??_R2CPythonTextTail@@8 DD FLAT:??_R1A@?0A@EA@CPythonTextTail@@8 ; CPythonTextTail::`RTTI Base Class Array'
	DD	FLAT:??_R1A@?0A@EA@?$CSingleton@VCPythonTextTail@@@@8
rdata$r	ENDS
;	COMDAT ??_R3CPythonTextTail@@8
rdata$r	SEGMENT
??_R3CPythonTextTail@@8 DD 00H				; CPythonTextTail::`RTTI Class Hierarchy Descriptor'
	DD	00H
	DD	02H
	DD	FLAT:??_R2CPythonTextTail@@8
rdata$r	ENDS
;	COMDAT ??_R0?AVCPythonTextTail@@@8
data$rs	SEGMENT
??_R0?AVCPythonTextTail@@@8 DD FLAT:??_7type_info@@6B@	; CPythonTextTail `RTTI Type Descriptor'
	DD	00H
	DB	'.?AVCPythonTextTail@@', 00H
data$rs	ENDS
;	COMDAT ??_R4CPythonTextTail@@6B@
rdata$r	SEGMENT
??_R4CPythonTextTail@@6B@ DD 00H			; CPythonTextTail::`RTTI Complete Object Locator'
	DD	00H
	DD	00H
	DD	FLAT:??_R0?AVCPythonTextTail@@@8
	DD	FLAT:??_R3CPythonTextTail@@8
rdata$r	ENDS
;	COMDAT ??_C@_0O@NKNMEGII@list?5too?5long@
CONST	SEGMENT
??_C@_0O@NKNMEGII@list?5too?5long@ DB 'list too long', 00H ; `string'
CONST	ENDS
;	COMDAT ??_C@_0DH@ONGBNPOP@CPythonTextTail?3?3Initialize?5?9?5C@
CONST	SEGMENT
??_C@_0DH@ONGBNPOP@CPythonTextTail?3?3Initialize?5?9?5C@ DB 'CPythonTextT'
	DB	'ail::Initialize - CANNOT_FIND_DEFAULT_FONT', 00H ; `string'
CONST	ENDS
;	COMDAT ??_C@_0DM@EALAGA@?5CPythonTextTail?3?3DeleteItemTex@
CONST	SEGMENT
??_C@_0DM@EALAGA@?5CPythonTextTail?3?3DeleteItemTex@ DB ' CPythonTextTail'
	DB	'::DeleteItemTextTail - None Item Text Tail', 0aH, 00H ; `string'
CONST	ENDS
;	COMDAT ??_C@_0DO@PHLLOPOI@CPythonTextTail?3?3DeleteCharacte@
CONST	SEGMENT
??_C@_0DO@PHLLOPOI@CPythonTextTail?3?3DeleteCharacte@ DB 'CPythonTextTail'
	DB	'::DeleteCharacterTextTail - Find VID[%d] Error', 00H ; `string'
CONST	ENDS
;	COMDAT ??_C@_06HCBIANPB@Noname@
CONST	SEGMENT
??_C@_06HCBIANPB@Noname@ DB 'Noname', 00H		; `string'
CONST	ENDS
;	COMDAT ??_C@_0FG@PPLFOIJH@TextTail?3?5ChatTail?5?$CFd?0?5ChrTail?5@
CONST	SEGMENT
??_C@_0FG@PPLFOIJH@TextTail?3?5ChatTail?5?$CFd?0?5ChrTail?5@ DB 'TextTail'
	DB	': ChatTail %d, ChrTail (Map %d, List %d), ItemTail (Map %d, L'
	DB	'ist %d), Pool %d', 00H			; `string'
CONST	ENDS
_DATA	SEGMENT
?c_TextTail_Player_Color@@3UD3DXCOLOR@@B DD 03f800000r ; 1 ; c_TextTail_Player_Color
	DD	03f800000r			; 1
	DD	03f800000r			; 1
	DD	03f800000r			; 1
?c_TextTail_Monster_Color@@3UD3DXCOLOR@@B DD 03f800000r ; 1 ; c_TextTail_Monster_Color
	DD	000000000r			; 0
	DD	000000000r			; 0
	DD	03f800000r			; 1
?c_TextTail_Item_Color@@3UD3DXCOLOR@@B DD 03f800000r ; 1 ; c_TextTail_Item_Color
	DD	03f800000r			; 1
	DD	03f800000r			; 1
	DD	03f800000r			; 1
?c_TextTail_Chat_Color@@3UD3DXCOLOR@@B DD 03f800000r ; 1 ; c_TextTail_Chat_Color
	DD	03f800000r			; 1
	DD	03f800000r			; 1
	DD	03f800000r			; 1
?c_TextTail_Info_Color@@3UD3DXCOLOR@@B DD 03f800000r ; 1 ; c_TextTail_Info_Color
	DD	03f48f5c3r			; 0.785
	DD	03f48f5c3r			; 0.785
	DD	03f800000r			; 1
?c_TextTail_Guild_Name_Color@@3UD3DXCOLOR@@B DD 03f6feff1r ; 0.937255 ; c_TextTail_Guild_Name_Color
	DD	03f53d3d5r			; 0.827451
	DD	03f800000r			; 1
	DD	03f800000r			; 1
_DATA	ENDS
;	COMDAT ??_7CPythonTextTail@@6B@
CONST	SEGMENT
??_7CPythonTextTail@@6B@ DD FLAT:??_R4CPythonTextTail@@6B@ ; CPythonTextTail::`vftable'
	DD	FLAT:??_ECPythonTextTail@@UAEPAXI@Z
CONST	ENDS
;	COMDAT ??_7?$CDynamicPool@USTextTail@CPythonTextTail@@@@6B@
CONST	SEGMENT
??_7?$CDynamicPool@USTextTail@CPythonTextTail@@@@6B@ DD FLAT:??_R4?$CDynamicPool@USTextTail@CPythonTextTail@@@@6B@ ; CDynamicPool<CPythonTextTail::STextTail>::`vftable'
	DD	FLAT:??_E?$CDynamicPool@USTextTail@CPythonTextTail@@@@UAEPAXI@Z
CONST	ENDS
;	COMDAT ??_7STextTail@CPythonTextTail@@6B@
CONST	SEGMENT
??_7STextTail@CPythonTextTail@@6B@ DD FLAT:??_R4STextTail@CPythonTextTail@@6B@ ; CPythonTextTail::STextTail::`vftable'
	DD	FLAT:??_ESTextTail@CPythonTextTail@@UAEPAXI@Z
CONST	ENDS
;	COMDAT ??_7?$CSingleton@VCPythonTextTail@@@@6B@
CONST	SEGMENT
??_7?$CSingleton@VCPythonTextTail@@@@6B@ DD FLAT:??_R4?$CSingleton@VCPythonTextTail@@@@6B@ ; CSingleton<CPythonTextTail>::`vftable'
	DD	FLAT:??_E?$CSingleton@VCPythonTextTail@@@@UAEPAXI@Z
CONST	ENDS
;	COMDAT ?ms_kPool@?$CPooledObject@VCRotationDecorator@NEffectUpdateDecorator@@@@1V?$CDynamicPoolEx@VCRotationDecorator@NEffectUpdateDecorator@@@@A
_DATA	SEGMENT
?ms_kPool@?$CPooledObject@VCRotationDecorator@NEffectUpdateDecorator@@@@1V?$CDynamicPoolEx@VCRotationDecorator@NEffectUpdateDecorator@@@@A DD FLAT:??_7?$CDynamicPoolEx@VCRotationDecorator@NEffectUpdateDecorator@@@@6B@ ; CPooledObject<NEffectUpdateDecorator::CRotationDecorator>::ms_kPool
	DD	00H
	DD	00H
	DD	00H
	DD	00H
	DD	00H
	DD	00H
	DD	00H
	DD	00H
_DATA	ENDS
;	COMDAT ?ms_kPool@?$CPooledObject@VCGravityDecorator@NEffectUpdateDecorator@@@@1V?$CDynamicPoolEx@VCGravityDecorator@NEffectUpdateDecorator@@@@A
_DATA	SEGMENT
?ms_kPool@?$CPooledObject@VCGravityDecorator@NEffectUpdateDecorator@@@@1V?$CDynamicPoolEx@VCGravityDecorator@NEffectUpdateDecorator@@@@A DD FLAT:??_7?$CDynamicPoolEx@VCGravityDecorator@NEffectUpdateDecorator@@@@6B@ ; CPooledObject<NEffectUpdateDecorator::CGravityDecorator>::ms_kPool
	DD	00H
	DD	00H
	DD	00H
	DD	00H
	DD	00H
	DD	00H
	DD	00H
	DD	00H
_DATA	ENDS
;	COMDAT ?ms_kPool@?$CPooledObject@VCAirResistanceDecorator@NEffectUpdateDecorator@@@@1V?$CDynamicPoolEx@VCAirResistanceDecorator@NEffectUpdateDecorator@@@@A
_DATA	SEGMENT
?ms_kPool@?$CPooledObject@VCAirResistanceDecorator@NEffectUpdateDecorator@@@@1V?$CDynamicPoolEx@VCAirResistanceDecorator@NEffectUpdateDecorator@@@@A DD FLAT:??_7?$CDynamicPoolEx@VCAirResistanceDecorator@NEffectUpdateDecorator@@@@6B@ ; CPooledObject<NEffectUpdateDecorator::CAirResistanceDecorator>::ms_kPool
	DD	00H
	DD	00H
	DD	00H
	DD	00H
	DD	00H
	DD	00H
	DD	00H
	DD	00H
_DATA	ENDS
;	COMDAT ?ms_kPool@?$CPooledObject@VCTextureAnimationRandomDecorator@NEffectUpdateDecorator@@@@1V?$CDynamicPoolEx@VCTextureAnimationRandomDecorator@NEffectUpdateDecorator@@@@A
_DATA	SEGMENT
?ms_kPool@?$CPooledObject@VCTextureAnimationRandomDecorator@NEffectUpdateDecorator@@@@1V?$CDynamicPoolEx@VCTextureAnimationRandomDecorator@NEffectUpdateDecorator@@@@A DD FLAT:??_7?$CDynamicPoolEx@VCTextureAnimationRandomDecorator@NEffectUpdateDecorator@@@@6B@ ; CPooledObject<NEffectUpdateDecorator::CTextureAnimationRandomDecorator>::ms_kPool
	DD	00H
	DD	00H
	DD	00H
	DD	00H
	DD	00H
	DD	00H
	DD	00H
	DD	00H
_DATA	ENDS
;	COMDAT ?ms_kPool@?$CPooledObject@VCTextureAnimationCCWDecorator@NEffectUpdateDecorator@@@@1V?$CDynamicPoolEx@VCTextureAnimationCCWDecorator@NEffectUpdateDecorator@@@@A
_DATA	SEGMENT
?ms_kPool@?$CPooledObject@VCTextureAnimationCCWDecorator@NEffectUpdateDecorator@@@@1V?$CDynamicPoolEx@VCTextureAnimationCCWDecorator@NEffectUpdateDecorator@@@@A DD FLAT:??_7?$CDynamicPoolEx@VCTextureAnimationCCWDecorator@NEffectUpdateDecorator@@@@6B@ ; CPooledObject<NEffectUpdateDecorator::CTextureAnimationCCWDecorator>::ms_kPool
	DD	00H
	DD	00H
	DD	00H
	DD	00H
	DD	00H
	DD	00H
	DD	00H
	DD	00H
_DATA	ENDS
;	COMDAT ?ms_kPool@?$CPooledObject@VCTextureAnimationCWDecorator@NEffectUpdateDecorator@@@@1V?$CDynamicPoolEx@VCTextureAnimationCWDecorator@NEffectUpdateDecorator@@@@A
_DATA	SEGMENT
?ms_kPool@?$CPooledObject@VCTextureAnimationCWDecorator@NEffectUpdateDecorator@@@@1V?$CDynamicPoolEx@VCTextureAnimationCWDecorator@NEffectUpdateDecorator@@@@A DD FLAT:??_7?$CDynamicPoolEx@VCTextureAnimationCWDecorator@NEffectUpdateDecorator@@@@6B@ ; CPooledObject<NEffectUpdateDecorator::CTextureAnimationCWDecorator>::ms_kPool
	DD	00H
	DD	00H
	DD	00H
	DD	00H
	DD	00H
	DD	00H
	DD	00H
	DD	00H
_DATA	ENDS
;	COMDAT ?ms_kPool@?$CPooledObject@VCNullDecorator@NEffectUpdateDecorator@@@@1V?$CDynamicPoolEx@VCNullDecorator@NEffectUpdateDecorator@@@@A
_DATA	SEGMENT
?ms_kPool@?$CPooledObject@VCNullDecorator@NEffectUpdateDecorator@@@@1V?$CDynamicPoolEx@VCNullDecorator@NEffectUpdateDecorator@@@@A DD FLAT:??_7?$CDynamicPoolEx@VCNullDecorator@NEffectUpdateDecorator@@@@6B@ ; CPooledObject<NEffectUpdateDecorator::CNullDecorator>::ms_kPool
	DD	00H
	DD	00H
	DD	00H
	DD	00H
	DD	00H
	DD	00H
	DD	00H
	DD	00H
_DATA	ENDS
;	COMDAT ?ms_kPool@?$CPooledObject@VCHeaderDecorator@NEffectUpdateDecorator@@@@1V?$CDynamicPoolEx@VCHeaderDecorator@NEffectUpdateDecorator@@@@A
_DATA	SEGMENT
?ms_kPool@?$CPooledObject@VCHeaderDecorator@NEffectUpdateDecorator@@@@1V?$CDynamicPoolEx@VCHeaderDecorator@NEffectUpdateDecorator@@@@A DD FLAT:??_7?$CDynamicPoolEx@VCHeaderDecorator@NEffectUpdateDecorator@@@@6B@ ; CPooledObject<NEffectUpdateDecorator::CHeaderDecorator>::ms_kPool
	DD	00H
	DD	00H
	DD	00H
	DD	00H
	DD	00H
	DD	00H
	DD	00H
	DD	00H
_DATA	ENDS
;	COMDAT ??_R1A@?0A@EA@bad_array_new_length@std@@8
rdata$r	SEGMENT
??_R1A@?0A@EA@bad_array_new_length@std@@8 DD FLAT:??_R0?AVbad_array_new_length@std@@@8 ; std::bad_array_new_length::`RTTI Base Class Descriptor at (0,-1,0,64)'
	DD	02H
	DD	00H
	DD	0ffffffffH
	DD	00H
	DD	040H
	DD	FLAT:??_R3bad_array_new_length@std@@8
rdata$r	ENDS
;	COMDAT ??_R2bad_array_new_length@std@@8
rdata$r	SEGMENT
??_R2bad_array_new_length@std@@8 DD FLAT:??_R1A@?0A@EA@bad_array_new_length@std@@8 ; std::bad_array_new_length::`RTTI Base Class Array'
	DD	FLAT:??_R1A@?0A@EA@bad_alloc@std@@8
	DD	FLAT:??_R1A@?0A@EA@exception@std@@8
rdata$r	ENDS
;	COMDAT ??_R3bad_array_new_length@std@@8
rdata$r	SEGMENT
??_R3bad_array_new_length@std@@8 DD 00H			; std::bad_array_new_length::`RTTI Class Hierarchy Descriptor'
	DD	00H
	DD	03H
	DD	FLAT:??_R2bad_array_new_length@std@@8
rdata$r	ENDS
;	COMDAT ??_R4bad_array_new_length@std@@6B@
rdata$r	SEGMENT
??_R4bad_array_new_length@std@@6B@ DD 00H		; std::bad_array_new_length::`RTTI Complete Object Locator'
	DD	00H
	DD	00H
	DD	FLAT:??_R0?AVbad_array_new_length@std@@@8
	DD	FLAT:??_R3bad_array_new_length@std@@8
rdata$r	ENDS
;	COMDAT ??_R1A@?0A@EA@bad_alloc@std@@8
rdata$r	SEGMENT
??_R1A@?0A@EA@bad_alloc@std@@8 DD FLAT:??_R0?AVbad_alloc@std@@@8 ; std::bad_alloc::`RTTI Base Class Descriptor at (0,-1,0,64)'
	DD	01H
	DD	00H
	DD	0ffffffffH
	DD	00H
	DD	040H
	DD	FLAT:??_R3bad_alloc@std@@8
rdata$r	ENDS
;	COMDAT ??_R2bad_alloc@std@@8
rdata$r	SEGMENT
??_R2bad_alloc@std@@8 DD FLAT:??_R1A@?0A@EA@bad_alloc@std@@8 ; std::bad_alloc::`RTTI Base Class Array'
	DD	FLAT:??_R1A@?0A@EA@exception@std@@8
rdata$r	ENDS
;	COMDAT ??_R3bad_alloc@std@@8
rdata$r	SEGMENT
??_R3bad_alloc@std@@8 DD 00H				; std::bad_alloc::`RTTI Class Hierarchy Descriptor'
	DD	00H
	DD	02H
	DD	FLAT:??_R2bad_alloc@std@@8
rdata$r	ENDS
;	COMDAT ??_R4bad_alloc@std@@6B@
rdata$r	SEGMENT
??_R4bad_alloc@std@@6B@ DD 00H				; std::bad_alloc::`RTTI Complete Object Locator'
	DD	00H
	DD	00H
	DD	FLAT:??_R0?AVbad_alloc@std@@@8
	DD	FLAT:??_R3bad_alloc@std@@8
rdata$r	ENDS
;	COMDAT ??_R1A@?0A@EA@exception@std@@8
rdata$r	SEGMENT
??_R1A@?0A@EA@exception@std@@8 DD FLAT:??_R0?AVexception@std@@@8 ; std::exception::`RTTI Base Class Descriptor at (0,-1,0,64)'
	DD	00H
	DD	00H
	DD	0ffffffffH
	DD	00H
	DD	040H
	DD	FLAT:??_R3exception@std@@8
rdata$r	ENDS
;	COMDAT ??_R2exception@std@@8
rdata$r	SEGMENT
??_R2exception@std@@8 DD FLAT:??_R1A@?0A@EA@exception@std@@8 ; std::exception::`RTTI Base Class Array'
rdata$r	ENDS
;	COMDAT ??_R3exception@std@@8
rdata$r	SEGMENT
??_R3exception@std@@8 DD 00H				; std::exception::`RTTI Class Hierarchy Descriptor'
	DD	00H
	DD	01H
	DD	FLAT:??_R2exception@std@@8
rdata$r	ENDS
;	COMDAT ??_R4exception@std@@6B@
rdata$r	SEGMENT
??_R4exception@std@@6B@ DD 00H				; std::exception::`RTTI Complete Object Locator'
	DD	00H
	DD	00H
	DD	FLAT:??_R0?AVexception@std@@@8
	DD	FLAT:??_R3exception@std@@8
rdata$r	ENDS
;	COMDAT ??_C@_0BA@FOIKENOD@vector?5too?5long@
CONST	SEGMENT
??_C@_0BA@FOIKENOD@vector?5too?5long@ DB 'vector too long', 00H ; `string'
CONST	ENDS
;	COMDAT ??_C@_00CNPNBAHC@@
CONST	SEGMENT
??_C@_00CNPNBAHC@@ DB 00H				; `string'
CONST	ENDS
;	COMDAT ??_C@_0BB@GCADKGJO@map?1set?5too?5long@
CONST	SEGMENT
??_C@_0BB@GCADKGJO@map?1set?5too?5long@ DB 'map/set too long', 00H ; `string'
CONST	ENDS
;	COMDAT ??_C@_0BA@JFNIOLAK@string?5too?5long@
CONST	SEGMENT
??_C@_0BA@JFNIOLAK@string?5too?5long@ DB 'string too long', 00H ; `string'
CONST	ENDS
;	COMDAT __CT??_R0?AVexception@std@@@8??0exception@std@@QAE@ABV01@@Z12
xdata$x	SEGMENT
__CT??_R0?AVexception@std@@@8??0exception@std@@QAE@ABV01@@Z12 DD 00H
	DD	FLAT:??_R0?AVexception@std@@@8
	DD	00H
	DD	0ffffffffH
	ORG $+4
	DD	0cH
	DD	FLAT:??0exception@std@@QAE@ABV01@@Z
xdata$x	ENDS
;	COMDAT ??_R0?AVexception@std@@@8
data$r	SEGMENT
??_R0?AVexception@std@@@8 DD FLAT:??_7type_info@@6B@	; std::exception `RTTI Type Descriptor'
	DD	00H
	DB	'.?AVexception@std@@', 00H
data$r	ENDS
;	COMDAT __CT??_R0?AVbad_alloc@std@@@8??0bad_alloc@std@@QAE@ABV01@@Z12
xdata$x	SEGMENT
__CT??_R0?AVbad_alloc@std@@@8??0bad_alloc@std@@QAE@ABV01@@Z12 DD 010H
	DD	FLAT:??_R0?AVbad_alloc@std@@@8
	DD	00H
	DD	0ffffffffH
	ORG $+4
	DD	0cH
	DD	FLAT:??0bad_alloc@std@@QAE@ABV01@@Z
xdata$x	ENDS
;	COMDAT ??_R0?AVbad_alloc@std@@@8
data$r	SEGMENT
??_R0?AVbad_alloc@std@@@8 DD FLAT:??_7type_info@@6B@	; std::bad_alloc `RTTI Type Descriptor'
	DD	00H
	DB	'.?AVbad_alloc@std@@', 00H
data$r	ENDS
;	COMDAT __CT??_R0?AVbad_array_new_length@std@@@8??0bad_array_new_length@std@@QAE@ABV01@@Z12
xdata$x	SEGMENT
__CT??_R0?AVbad_array_new_length@std@@@8??0bad_array_new_length@std@@QAE@ABV01@@Z12 DD 00H
	DD	FLAT:??_R0?AVbad_array_new_length@std@@@8
	DD	00H
	DD	0ffffffffH
	ORG $+4
	DD	0cH
	DD	FLAT:??0bad_array_new_length@std@@QAE@ABV01@@Z
xdata$x	ENDS
;	COMDAT ??_R0?AVbad_array_new_length@std@@@8
data$r	SEGMENT
??_R0?AVbad_array_new_length@std@@@8 DD FLAT:??_7type_info@@6B@ ; std::bad_array_new_length `RTTI Type Descriptor'
	DD	00H
	DB	'.?AVbad_array_new_length@std@@', 00H
data$r	ENDS
;	COMDAT __CTA3?AVbad_array_new_length@std@@
xdata$x	SEGMENT
__CTA3?AVbad_array_new_length@std@@ DD 03H
	DD	FLAT:__CT??_R0?AVbad_array_new_length@std@@@8??0bad_array_new_length@std@@QAE@ABV01@@Z12
	DD	FLAT:__CT??_R0?AVbad_alloc@std@@@8??0bad_alloc@std@@QAE@ABV01@@Z12
	DD	FLAT:__CT??_R0?AVexception@std@@@8??0exception@std@@QAE@ABV01@@Z12
xdata$x	ENDS
;	COMDAT __TI3?AVbad_array_new_length@std@@
xdata$x	SEGMENT
__TI3?AVbad_array_new_length@std@@ DD 00H
	DD	FLAT:??1bad_array_new_length@std@@UAE@XZ
	DD	00H
	DD	FLAT:__CTA3?AVbad_array_new_length@std@@
xdata$x	ENDS
;	COMDAT ??_C@_0BF@KINCDENJ@bad?5array?5new?5length@
CONST	SEGMENT
??_C@_0BF@KINCDENJ@bad?5array?5new?5length@ DB 'bad array new length', 00H ; `string'
CONST	ENDS
;	COMDAT ??_7bad_array_new_length@std@@6B@
CONST	SEGMENT
??_7bad_array_new_length@std@@6B@ DD FLAT:??_R4bad_array_new_length@std@@6B@ ; std::bad_array_new_length::`vftable'
	DD	FLAT:??_Ebad_array_new_length@std@@UAEPAXI@Z
	DD	FLAT:?what@exception@std@@UBEPBDXZ
CONST	ENDS
;	COMDAT ??_7bad_alloc@std@@6B@
CONST	SEGMENT
??_7bad_alloc@std@@6B@ DD FLAT:??_R4bad_alloc@std@@6B@	; std::bad_alloc::`vftable'
	DD	FLAT:??_Ebad_alloc@std@@UAEPAXI@Z
	DD	FLAT:?what@exception@std@@UBEPBDXZ
CONST	ENDS
;	COMDAT ??_C@_0BC@EOODALEL@Unknown?5exception@
CONST	SEGMENT
??_C@_0BC@EOODALEL@Unknown?5exception@ DB 'Unknown exception', 00H ; `string'
CONST	ENDS
;	COMDAT ??_7exception@std@@6B@
CONST	SEGMENT
??_7exception@std@@6B@ DD FLAT:??_R4exception@std@@6B@	; std::exception::`vftable'
	DD	FLAT:??_Eexception@std@@UAEPAXI@Z
	DD	FLAT:?what@exception@std@@UBEPBDXZ
CONST	ENDS
;	COMDAT xdata$x
xdata$x	SEGMENT
__unwindtable$??$?0U?$pair@$$CBKPAUSTextTail@CPythonTextTail@@@std@@@?$_Tree_temp_node@V?$allocator@U?$_Tree_node@U?$pair@$$CBKPAUSTextTail@CPythonTextTail@@@std@@PAX@std@@@std@@@std@@QAE@AAV?$allocator@U?$_Tree_node@U?$pair@$$CBKPAUSTextTail@CPythonTextTail@@@std@@PAX@std@@@1@PAU?$_Tree_node@U?$pair@$$CBKPAUSTextTail@CPythonTextTail@@@std@@PAX@1@$$QAU?$pair@$$CBKPAUSTextTail@CPythonTextTail@@@1@@Z DD 0ffffffffH
	DD	FLAT:__unwindfunclet$??$?0U?$pair@$$CBKPAUSTextTail@CPythonTextTail@@@std@@@?$_Tree_temp_node@V?$allocator@U?$_Tree_node@U?$pair@$$CBKPAUSTextTail@CPythonTextTail@@@std@@PAX@std@@@std@@@std@@QAE@AAV?$allocator@U?$_Tree_node@U?$pair@$$CBKPAUSTextTail@CPythonTextTail@@@std@@PAX@std@@@1@PAU?$_Tree_node@U?$pair@$$CBKPAUSTextTail@CPythonTextTail@@@std@@PAX@1@$$QAU?$pair@$$CBKPAUSTextTail@CPythonTextTail@@@1@@Z$1
__ehfuncinfo$??$?0U?$pair@$$CBKPAUSTextTail@CPythonTextTail@@@std@@@?$_Tree_temp_node@V?$allocator@U?$_Tree_node@U?$pair@$$CBKPAUSTextTail@CPythonTextTail@@@std@@PAX@std@@@std@@@std@@QAE@AAV?$allocator@U?$_Tree_node@U?$pair@$$CBKPAUSTextTail@CPythonTextTail@@@std@@PAX@std@@@1@PAU?$_Tree_node@U?$pair@$$CBKPAUSTextTail@CPythonTextTail@@@std@@PAX@1@$$QAU?$pair@$$CBKPAUSTextTail@CPythonTextTail@@@1@@Z DD 019930522H
	DD	01H
	DD	FLAT:__unwindtable$??$?0U?$pair@$$CBKPAUSTextTail@CPythonTextTail@@@std@@@?$_Tree_temp_node@V?$allocator@U?$_Tree_node@U?$pair@$$CBKPAUSTextTail@CPythonTextTail@@@std@@PAX@std@@@std@@@std@@QAE@AAV?$allocator@U?$_Tree_node@U?$pair@$$CBKPAUSTextTail@CPythonTextTail@@@std@@PAX@std@@@1@PAU?$_Tree_node@U?$pair@$$CBKPAUSTextTail@CPythonTextTail@@@std@@PAX@1@$$QAU?$pair@$$CBKPAUSTextTail@CPythonTextTail@@@1@@Z
	DD	2 DUP(00H)
	DD	2 DUP(00H)
	DD	00H
	DD	01H
xdata$x	ENDS
;	COMDAT xdata$x
xdata$x	SEGMENT
__unwindtable$??0?$_Tree_temp_node_alloc@V?$allocator@U?$_Tree_node@U?$pair@$$CBKPAUSTextTail@CPythonTextTail@@@std@@PAX@std@@@std@@@std@@QAE@AAV?$allocator@U?$_Tree_node@U?$pair@$$CBKPAUSTextTail@CPythonTextTail@@@std@@PAX@std@@@1@@Z DD 0ffffffffH
	DD	FLAT:__unwindfunclet$??0?$_Tree_temp_node_alloc@V?$allocator@U?$_Tree_node@U?$pair@$$CBKPAUSTextTail@CPythonTextTail@@@std@@PAX@std@@@std@@@std@@QAE@AAV?$allocator@U?$_Tree_node@U?$pair@$$CBKPAUSTextTail@CPythonTextTail@@@std@@PAX@std@@@1@@Z$0
__ehfuncinfo$??0?$_Tree_temp_node_alloc@V?$allocator@U?$_Tree_node@U?$pair@$$CBKPAUSTextTail@CPythonTextTail@@@std@@PAX@std@@@std@@@std@@QAE@AAV?$allocator@U?$_Tree_node@U?$pair@$$CBKPAUSTextTail@CPythonTextTail@@@std@@PAX@std@@@1@@Z DD 019930522H
	DD	01H
	DD	FLAT:__unwindtable$??0?$_Tree_temp_node_alloc@V?$allocator@U?$_Tree_node@U?$pair@$$CBKPAUSTextTail@CPythonTextTail@@@std@@PAX@std@@@std@@@std@@QAE@AAV?$allocator@U?$_Tree_node@U?$pair@$$CBKPAUSTextTail@CPythonTextTail@@@std@@PAX@std@@@1@@Z
	DD	2 DUP(00H)
	DD	2 DUP(00H)
	DD	00H
	DD	01H
xdata$x	ENDS
;	COMDAT xdata$x
xdata$x	SEGMENT
__unwindtable$??$?0ABQAUSTextTail@CPythonTextTail@@@?$_List_node_emplace_op2@V?$allocator@U?$_List_node@PAUSTextTail@CPythonTextTail@@PAX@std@@@std@@@std@@QAE@AAV?$allocator@U?$_List_node@PAUSTextTail@CPythonTextTail@@PAX@std@@@1@ABQAUSTextTail@CPythonTextTail@@@Z DD 0ffffffffH
	DD	FLAT:__unwindfunclet$??$?0ABQAUSTextTail@CPythonTextTail@@@?$_List_node_emplace_op2@V?$allocator@U?$_List_node@PAUSTextTail@CPythonTextTail@@PAX@std@@@std@@@std@@QAE@AAV?$allocator@U?$_List_node@PAUSTextTail@CPythonTextTail@@PAX@std@@@1@ABQAUSTextTail@CPythonTextTail@@@Z$0
__ehfuncinfo$??$?0ABQAUSTextTail@CPythonTextTail@@@?$_List_node_emplace_op2@V?$allocator@U?$_List_node@PAUSTextTail@CPythonTextTail@@PAX@std@@@std@@@std@@QAE@AAV?$allocator@U?$_List_node@PAUSTextTail@CPythonTextTail@@PAX@std@@@1@ABQAUSTextTail@CPythonTextTail@@@Z DD 019930522H
	DD	01H
	DD	FLAT:__unwindtable$??$?0ABQAUSTextTail@CPythonTextTail@@@?$_List_node_emplace_op2@V?$allocator@U?$_List_node@PAUSTextTail@CPythonTextTail@@PAX@std@@@std@@@std@@QAE@AAV?$allocator@U?$_List_node@PAUSTextTail@CPythonTextTail@@PAX@std@@@1@ABQAUSTextTail@CPythonTextTail@@@Z
	DD	2 DUP(00H)
	DD	2 DUP(00H)
	DD	00H
	DD	01H
xdata$x	ENDS
;	COMDAT xdata$x
xdata$x	SEGMENT
__unwindtable$??$_Emplace@U?$pair@$$CBKPAUSTextTail@CPythonTextTail@@@std@@@?$_Tree@V?$_Tmap_traits@KPAUSTextTail@CPythonTextTail@@U?$less@K@std@@V?$allocator@U?$pair@$$CBKPAUSTextTail@CPythonTextTail@@@std@@@4@$0A@@std@@@std@@IAE?AU?$pair@PAU?$_Tree_node@U?$pair@$$CBKPAUSTextTail@CPythonTextTail@@@std@@PAX@std@@_N@1@$$QAU?$pair@$$CBKPAUSTextTail@CPythonTextTail@@@1@@Z DD 0ffffffffH
	DD	FLAT:__unwindfunclet$??$_Emplace@U?$pair@$$CBKPAUSTextTail@CPythonTextTail@@@std@@@?$_Tree@V?$_Tmap_traits@KPAUSTextTail@CPythonTextTail@@U?$less@K@std@@V?$allocator@U?$pair@$$CBKPAUSTextTail@CPythonTextTail@@@std@@@4@$0A@@std@@@std@@IAE?AU?$pair@PAU?$_Tree_node@U?$pair@$$CBKPAUSTextTail@CPythonTextTail@@@std@@PAX@std@@_N@1@$$QAU?$pair@$$CBKPAUSTextTail@CPythonTextTail@@@1@@Z$2
__ehfuncinfo$??$_Emplace@U?$pair@$$CBKPAUSTextTail@CPythonTextTail@@@std@@@?$_Tree@V?$_Tmap_traits@KPAUSTextTail@CPythonTextTail@@U?$less@K@std@@V?$allocator@U?$pair@$$CBKPAUSTextTail@CPythonTextTail@@@std@@@4@$0A@@std@@@std@@IAE?AU?$pair@PAU?$_Tree_node@U?$pair@$$CBKPAUSTextTail@CPythonTextTail@@@std@@PAX@std@@_N@1@$$QAU?$pair@$$CBKPAUSTextTail@CPythonTextTail@@@1@@Z DD 019930522H
	DD	01H
	DD	FLAT:__unwindtable$??$_Emplace@U?$pair@$$CBKPAUSTextTail@CPythonTextTail@@@std@@@?$_Tree@V?$_Tmap_traits@KPAUSTextTail@CPythonTextTail@@U?$less@K@std@@V?$allocator@U?$pair@$$CBKPAUSTextTail@CPythonTextTail@@@std@@@4@$0A@@std@@@std@@IAE?AU?$pair@PAU?$_Tree_node@U?$pair@$$CBKPAUSTextTail@CPythonTextTail@@@std@@PAX@std@@_N@1@$$QAU?$pair@$$CBKPAUSTextTail@CPythonTextTail@@@1@@Z
	DD	2 DUP(00H)
	DD	2 DUP(00H)
	DD	00H
	DD	01H
xdata$x	ENDS
;	COMDAT xdata$x
xdata$x	SEGMENT
__unwindtable$??$_Emplace@ABQAUSTextTail@CPythonTextTail@@@?$list@PAUSTextTail@CPythonTextTail@@V?$allocator@PAUSTextTail@CPythonTextTail@@@std@@@std@@QAEPAU?$_List_node@PAUSTextTail@CPythonTextTail@@PAX@1@QAU21@ABQAUSTextTail@CPythonTextTail@@@Z DD 0ffffffffH
	DD	FLAT:__unwindfunclet$??$_Emplace@ABQAUSTextTail@CPythonTextTail@@@?$list@PAUSTextTail@CPythonTextTail@@V?$allocator@PAUSTextTail@CPythonTextTail@@@std@@@std@@QAEPAU?$_List_node@PAUSTextTail@CPythonTextTail@@PAX@1@QAU21@ABQAUSTextTail@CPythonTextTail@@@Z$1
__ehfuncinfo$??$_Emplace@ABQAUSTextTail@CPythonTextTail@@@?$list@PAUSTextTail@CPythonTextTail@@V?$allocator@PAUSTextTail@CPythonTextTail@@@std@@@std@@QAEPAU?$_List_node@PAUSTextTail@CPythonTextTail@@PAX@1@QAU21@ABQAUSTextTail@CPythonTextTail@@@Z DD 019930522H
	DD	01H
	DD	FLAT:__unwindtable$??$_Emplace@ABQAUSTextTail@CPythonTextTail@@@?$list@PAUSTextTail@CPythonTextTail@@V?$allocator@PAUSTextTail@CPythonTextTail@@@std@@@std@@QAEPAU?$_List_node@PAUSTextTail@CPythonTextTail@@PAX@1@QAU21@ABQAUSTextTail@CPythonTextTail@@@Z
	DD	2 DUP(00H)
	DD	2 DUP(00H)
	DD	00H
	DD	01H
xdata$x	ENDS
;	COMDAT xdata$x
xdata$x	SEGMENT
__unwindtable$??$insert@$0A@$0A@@?$_Tree@V?$_Tmap_traits@KPAUSTextTail@CPythonTextTail@@U?$less@K@std@@V?$allocator@U?$pair@$$CBKPAUSTextTail@CPythonTextTail@@@std@@@4@$0A@@std@@@std@@QAE?AU?$pair@V?$_Tree_iterator@V?$_Tree_val@U?$_Tree_simple_types@U?$pair@$$CBKPAUSTextTail@CPythonTextTail@@@std@@@std@@@std@@@std@@_N@1@$$QAU?$pair@$$CBKPAUSTextTail@CPythonTextTail@@@1@@Z DD 0ffffffffH
	DD	FLAT:__unwindfunclet$??$insert@$0A@$0A@@?$_Tree@V?$_Tmap_traits@KPAUSTextTail@CPythonTextTail@@U?$less@K@std@@V?$allocator@U?$pair@$$CBKPAUSTextTail@CPythonTextTail@@@std@@@4@$0A@@std@@@std@@QAE?AU?$pair@V?$_Tree_iterator@V?$_Tree_val@U?$_Tree_simple_types@U?$pair@$$CBKPAUSTextTail@CPythonTextTail@@@std@@@std@@@std@@@std@@_N@1@$$QAU?$pair@$$CBKPAUSTextTail@CPythonTextTail@@@1@@Z$2
__ehfuncinfo$??$insert@$0A@$0A@@?$_Tree@V?$_Tmap_traits@KPAUSTextTail@CPythonTextTail@@U?$less@K@std@@V?$allocator@U?$pair@$$CBKPAUSTextTail@CPythonTextTail@@@std@@@4@$0A@@std@@@std@@QAE?AU?$pair@V?$_Tree_iterator@V?$_Tree_val@U?$_Tree_simple_types@U?$pair@$$CBKPAUSTextTail@CPythonTextTail@@@std@@@std@@@std@@@std@@_N@1@$$QAU?$pair@$$CBKPAUSTextTail@CPythonTextTail@@@1@@Z DD 019930522H
	DD	01H
	DD	FLAT:__unwindtable$??$insert@$0A@$0A@@?$_Tree@V?$_Tmap_traits@KPAUSTextTail@CPythonTextTail@@U?$less@K@std@@V?$allocator@U?$pair@$$CBKPAUSTextTail@CPythonTextTail@@@std@@@4@$0A@@std@@@std@@QAE?AU?$pair@V?$_Tree_iterator@V?$_Tree_val@U?$_Tree_simple_types@U?$pair@$$CBKPAUSTextTail@CPythonTextTail@@@std@@@std@@@std@@@std@@_N@1@$$QAU?$pair@$$CBKPAUSTextTail@CPythonTextTail@@@1@@Z
	DD	2 DUP(00H)
	DD	2 DUP(00H)
	DD	00H
	DD	01H
xdata$x	ENDS
;	COMDAT xdata$x
xdata$x	SEGMENT
__unwindtable$?push_back@?$list@PAUSTextTail@CPythonTextTail@@V?$allocator@PAUSTextTail@CPythonTextTail@@@std@@@std@@QAEXABQAUSTextTail@CPythonTextTail@@@Z DD 0ffffffffH
	DD	FLAT:__unwindfunclet$?push_back@?$list@PAUSTextTail@CPythonTextTail@@V?$allocator@PAUSTextTail@CPythonTextTail@@@std@@@std@@QAEXABQAUSTextTail@CPythonTextTail@@@Z$1
__ehfuncinfo$?push_back@?$list@PAUSTextTail@CPythonTextTail@@V?$allocator@PAUSTextTail@CPythonTextTail@@@std@@@std@@QAEXABQAUSTextTail@CPythonTextTail@@@Z DD 019930522H
	DD	01H
	DD	FLAT:__unwindtable$?push_back@?$list@PAUSTextTail@CPythonTextTail@@V?$allocator@PAUSTextTail@CPythonTextTail@@@std@@@std@@QAEXABQAUSTextTail@CPythonTextTail@@@Z
	DD	2 DUP(00H)
	DD	2 DUP(00H)
	DD	00H
	DD	01H
xdata$x	ENDS
;	COMDAT xdata$x
xdata$x	SEGMENT
__unwindtable$?SetItemTextTailOwner@CPythonTextTail@@QAEXKPBD@Z DD 0ffffffffH
	DD	FLAT:__unwindfunclet$?SetItemTextTailOwner@CPythonTextTail@@QAEXKPBD@Z$0
	DD	00H
	DD	FLAT:__unwindfunclet$?SetItemTextTailOwner@CPythonTextTail@@QAEXKPBD@Z$1
	DD	01H
	DD	FLAT:__unwindfunclet$?SetItemTextTailOwner@CPythonTextTail@@QAEXKPBD@Z$2
	DD	02H
	DD	FLAT:__unwindfunclet$?SetItemTextTailOwner@CPythonTextTail@@QAEXKPBD@Z$3
__ehfuncinfo$?SetItemTextTailOwner@CPythonTextTail@@QAEXKPBD@Z DD 019930522H
	DD	04H
	DD	FLAT:__unwindtable$?SetItemTextTailOwner@CPythonTextTail@@QAEXKPBD@Z
	DD	2 DUP(00H)
	DD	2 DUP(00H)
	DD	00H
	DD	01H
xdata$x	ENDS
;	COMDAT xdata$x
xdata$x	SEGMENT
__unwindtable$?RegisterCharacterTextTail@CPythonTextTail@@QAEXKKABUD3DXCOLOR@@M@Z DD 0ffffffffH
	DD	FLAT:__unwindfunclet$?RegisterCharacterTextTail@CPythonTextTail@@QAEXKKABUD3DXCOLOR@@M@Z$0
	DD	0ffffffffH
	DD	FLAT:__unwindfunclet$?RegisterCharacterTextTail@CPythonTextTail@@QAEXKKABUD3DXCOLOR@@M@Z$1
__ehfuncinfo$?RegisterCharacterTextTail@CPythonTextTail@@QAEXKKABUD3DXCOLOR@@M@Z DD 019930522H
	DD	02H
	DD	FLAT:__unwindtable$?RegisterCharacterTextTail@CPythonTextTail@@QAEXKKABUD3DXCOLOR@@M@Z
	DD	2 DUP(00H)
	DD	2 DUP(00H)
	DD	00H
	DD	01H
xdata$x	ENDS
;	COMDAT xdata$x
xdata$x	SEGMENT
__ehfuncinfo$??0CPythonTextTail@@QAE@XZ DD 019930522H
	DD	05H
	DD	FLAT:__unwindtable$??0CPythonTextTail@@QAE@XZ
	DD	2 DUP(00H)
	DD	2 DUP(00H)
	DD	00H
	DD	01H
__unwindtable$??0CPythonTextTail@@QAE@XZ DD 0ffffffffH
	DD	FLAT:__unwindfunclet$??0CPythonTextTail@@QAE@XZ$0
	DD	00H
	DD	FLAT:__unwindfunclet$??0CPythonTextTail@@QAE@XZ$1
	DD	01H
	DD	FLAT:__unwindfunclet$??0CPythonTextTail@@QAE@XZ$2
	DD	02H
	DD	FLAT:__unwindfunclet$??0CPythonTextTail@@QAE@XZ$3
	DD	03H
	DD	FLAT:__unwindfunclet$??0CPythonTextTail@@QAE@XZ$4
xdata$x	ENDS
;	COMDAT CRT$XCU
CRT$XCU	SEGMENT
??ms_kPool$initializer$@?$CPooledObject@VCNullDecorator@NEffectUpdateDecorator@@@@1P6AXXZA@@3P6AXXZA DD FLAT:??__E?ms_kPool@?$CPooledObject@VCNullDecorator@NEffectUpdateDecorator@@@@1V?$CDynamicPoolEx@VCNullDecorator@NEffectUpdateDecorator@@@@A@@YAXXZ ; ??ms_kPool$initializer$@?$CPooledObject@VCNullDecorator@NEffectUpdateDecorator@@@@1P6AXXZA@@3P6AXXZA
CRT$XCU	ENDS
;	COMDAT CRT$XCU
CRT$XCU	SEGMENT
??ms_kPool$initializer$@?$CPooledObject@VCTextureAnimationCWDecorator@NEffectUpdateDecorator@@@@1P6AXXZA@@3P6AXXZA DD FLAT:??__E?ms_kPool@?$CPooledObject@VCTextureAnimationCWDecorator@NEffectUpdateDecorator@@@@1V?$CDynamicPoolEx@VCTextureAnimationCWDecorator@NEffectUpdateDecorator@@@@A@@YAXXZ ; ??ms_kPool$initializer$@?$CPooledObject@VCTextureAnimationCWDecorator@NEffectUpdateDecorator@@@@1P6AXXZA@@3P6AXXZA
CRT$XCU	ENDS
;	COMDAT CRT$XCU
CRT$XCU	SEGMENT
??ms_kPool$initializer$@?$CPooledObject@VCTextureAnimationCCWDecorator@NEffectUpdateDecorator@@@@1P6AXXZA@@3P6AXXZA DD FLAT:??__E?ms_kPool@?$CPooledObject@VCTextureAnimationCCWDecorator@NEffectUpdateDecorator@@@@1V?$CDynamicPoolEx@VCTextureAnimationCCWDecorator@NEffectUpdateDecorator@@@@A@@YAXXZ ; ??ms_kPool$initializer$@?$CPooledObject@VCTextureAnimationCCWDecorator@NEffectUpdateDecorator@@@@1P6AXXZA@@3P6AXXZA
CRT$XCU	ENDS
;	COMDAT CRT$XCU
CRT$XCU	SEGMENT
??ms_kPool$initializer$@?$CPooledObject@VCTextureAnimationRandomDecorator@NEffectUpdateDecorator@@@@1P6AXXZA@@3P6AXXZA DD FLAT:??__E?ms_kPool@?$CPooledObject@VCTextureAnimationRandomDecorator@NEffectUpdateDecorator@@@@1V?$CDynamicPoolEx@VCTextureAnimationRandomDecorator@NEffectUpdateDecorator@@@@A@@YAXXZ ; ??ms_kPool$initializer$@?$CPooledObject@VCTextureAnimationRandomDecorator@NEffectUpdateDecorator@@@@1P6AXXZA@@3P6AXXZA
CRT$XCU	ENDS
;	COMDAT CRT$XCU
CRT$XCU	SEGMENT
??ms_kPool$initializer$@?$CPooledObject@VCAirResistanceDecorator@NEffectUpdateDecorator@@@@1P6AXXZA@@3P6AXXZA DD FLAT:??__E?ms_kPool@?$CPooledObject@VCAirResistanceDecorator@NEffectUpdateDecorator@@@@1V?$CDynamicPoolEx@VCAirResistanceDecorator@NEffectUpdateDecorator@@@@A@@YAXXZ ; ??ms_kPool$initializer$@?$CPooledObject@VCAirResistanceDecorator@NEffectUpdateDecorator@@@@1P6AXXZA@@3P6AXXZA
CRT$XCU	ENDS
;	COMDAT CRT$XCU
CRT$XCU	SEGMENT
??ms_kPool$initializer$@?$CPooledObject@VCGravityDecorator@NEffectUpdateDecorator@@@@1P6AXXZA@@3P6AXXZA DD FLAT:??__E?ms_kPool@?$CPooledObject@VCGravityDecorator@NEffectUpdateDecorator@@@@1V?$CDynamicPoolEx@VCGravityDecorator@NEffectUpdateDecorator@@@@A@@YAXXZ ; ??ms_kPool$initializer$@?$CPooledObject@VCGravityDecorator@NEffectUpdateDecorator@@@@1P6AXXZA@@3P6AXXZA
CRT$XCU	ENDS
;	COMDAT CRT$XCU
CRT$XCU	SEGMENT
??ms_kPool$initializer$@?$CPooledObject@VCRotationDecorator@NEffectUpdateDecorator@@@@1P6AXXZA@@3P6AXXZA DD FLAT:??__E?ms_kPool@?$CPooledObject@VCRotationDecorator@NEffectUpdateDecorator@@@@1V?$CDynamicPoolEx@VCRotationDecorator@NEffectUpdateDecorator@@@@A@@YAXXZ ; ??ms_kPool$initializer$@?$CPooledObject@VCRotationDecorator@NEffectUpdateDecorator@@@@1P6AXXZA@@3P6AXXZA
CRT$XCU	ENDS
; Function compile flags: /Ogtp
; File C:\Program Files (x86)\Microsoft Visual Studio\2019\Community\VC\Tools\MSVC\14.28.29333\include\xmemory
;	COMDAT ??$_Construct_in_place@PAU?$_Tree_node@U?$pair@$$CBKPAUSTextTail@CPythonTextTail@@@std@@PAX@std@@AAPAU12@@std@@YAXAAPAU?$_Tree_node@U?$pair@$$CBKPAUSTextTail@CPythonTextTail@@@std@@PAX@0@0@Z
_TEXT	SEGMENT
__Obj$ = 8						; size = 4
_<_Args_0>$ = 12					; size = 4
??$_Construct_in_place@PAU?$_Tree_node@U?$pair@$$CBKPAUSTextTail@CPythonTextTail@@@std@@PAX@std@@AAPAU12@@std@@YAXAAPAU?$_Tree_node@U?$pair@$$CBKPAUSTextTail@CPythonTextTail@@@std@@PAX@0@0@Z PROC ; std::_Construct_in_place<std::_Tree_node<std::pair<unsigned long const ,CPythonTextTail::STextTail *>,void *> *,std::_Tree_node<std::pair<unsigned long const ,CPythonTextTail::STextTail *>,void *> * &>, COMDAT

; 228  : void _Construct_in_place(_Ty& _Obj, _Types&&... _Args) noexcept(is_nothrow_constructible_v<_Ty, _Types...>) {

  00000	55		 push	 ebp
  00001	8b ec		 mov	 ebp, esp

; 229  :     ::new (const_cast<void*>(static_cast<const volatile void*>(_STD addressof(_Obj))))

  00003	8b 45 0c	 mov	 eax, DWORD PTR _<_Args_0>$[ebp]
  00006	8b 08		 mov	 ecx, DWORD PTR [eax]
  00008	8b 45 08	 mov	 eax, DWORD PTR __Obj$[ebp]
  0000b	89 08		 mov	 DWORD PTR [eax], ecx

; 230  :         _Ty(_STD forward<_Types>(_Args)...);
; 231  : }

  0000d	5d		 pop	 ebp
  0000e	c3		 ret	 0
??$_Construct_in_place@PAU?$_Tree_node@U?$pair@$$CBKPAUSTextTail@CPythonTextTail@@@std@@PAX@std@@AAPAU12@@std@@YAXAAPAU?$_Tree_node@U?$pair@$$CBKPAUSTextTail@CPythonTextTail@@@std@@PAX@0@0@Z ENDP ; std::_Construct_in_place<std::_Tree_node<std::pair<unsigned long const ,CPythonTextTail::STextTail *>,void *> *,std::_Tree_node<std::pair<unsigned long const ,CPythonTextTail::STextTail *>,void *> * &>
_TEXT	ENDS
; Function compile flags: /Ogtp
; File C:\Program Files (x86)\Microsoft Visual Studio\2019\Community\VC\Tools\MSVC\14.28.29333\include\xutility
;	COMDAT ??$_Copy_memmove@PAPAUSTextTail@CPythonTextTail@@PAPAU12@@std@@YAPAPAUSTextTail@CPythonTextTail@@PAPAU12@00@Z
_TEXT	SEGMENT
__First$ = 8						; size = 4
__Last$ = 12						; size = 4
__Dest$ = 16						; size = 4
??$_Copy_memmove@PAPAUSTextTail@CPythonTextTail@@PAPAU12@@std@@YAPAPAUSTextTail@CPythonTextTail@@PAPAU12@00@Z PROC ; std::_Copy_memmove<CPythonTextTail::STextTail * *,CPythonTextTail::STextTail * *>, COMDAT

; 4360 : _OutIt _Copy_memmove(_InIt _First, _InIt _Last, _OutIt _Dest) {

  00000	55		 push	 ebp
  00001	8b ec		 mov	 ebp, esp

; 4361 :     const char* const _First_ch = const_cast<const char*>(reinterpret_cast<const volatile char*>(_First));
; 4362 :     const char* const _Last_ch  = const_cast<const char*>(reinterpret_cast<const volatile char*>(_Last));
; 4363 :     char* const _Dest_ch        = const_cast<char*>(reinterpret_cast<volatile char*>(_Dest));
; 4364 :     const auto _Count           = static_cast<size_t>(_Last_ch - _First_ch);

  00003	8b 45 08	 mov	 eax, DWORD PTR __First$[ebp]
  00006	56		 push	 esi

; 4365 :     _CSTD memmove(_Dest_ch, _First_ch, _Count);

  00007	8b 75 10	 mov	 esi, DWORD PTR __Dest$[ebp]
  0000a	57		 push	 edi
  0000b	8b 7d 0c	 mov	 edi, DWORD PTR __Last$[ebp]
  0000e	2b f8		 sub	 edi, eax
  00010	57		 push	 edi
  00011	50		 push	 eax
  00012	56		 push	 esi
  00013	e8 00 00 00 00	 call	 _memmove
  00018	83 c4 0c	 add	 esp, 12			; 0000000cH

; 4366 :     return reinterpret_cast<_OutIt>(_Dest_ch + _Count);

  0001b	8d 04 37	 lea	 eax, DWORD PTR [edi+esi]
  0001e	5f		 pop	 edi
  0001f	5e		 pop	 esi

; 4367 : }

  00020	5d		 pop	 ebp
  00021	c3		 ret	 0
??$_Copy_memmove@PAPAUSTextTail@CPythonTextTail@@PAPAU12@@std@@YAPAPAUSTextTail@CPythonTextTail@@PAPAU12@00@Z ENDP ; std::_Copy_memmove<CPythonTextTail::STextTail * *,CPythonTextTail::STextTail * *>
_TEXT	ENDS
; Function compile flags: /Ogtp
; File C:\Program Files (x86)\Microsoft Visual Studio\2019\Community\VC\Tools\MSVC\14.28.29333\include\xmemory
;	COMDAT ??$_Destroy_in_place@PAU?$_Tree_node@U?$pair@$$CBKPAUSTextTail@CPythonTextTail@@@std@@PAX@std@@@std@@YAXAAPAU?$_Tree_node@U?$pair@$$CBKPAUSTextTail@CPythonTextTail@@@std@@PAX@0@@Z
_TEXT	SEGMENT
__Obj$ = 8						; size = 4
??$_Destroy_in_place@PAU?$_Tree_node@U?$pair@$$CBKPAUSTextTail@CPythonTextTail@@@std@@PAX@std@@@std@@YAXAAPAU?$_Tree_node@U?$pair@$$CBKPAUSTextTail@CPythonTextTail@@@std@@PAX@0@@Z PROC ; std::_Destroy_in_place<std::_Tree_node<std::pair<unsigned long const ,CPythonTextTail::STextTail *>,void *> *>, COMDAT

; 271  : #if _HAS_IF_CONSTEXPR
; 272  :     if constexpr (is_array_v<_Ty>) {
; 273  :         _Destroy_range(_Obj, _Obj + extent_v<_Ty>);
; 274  :     } else
; 275  : #endif // _HAS_IF_CONSTEXPR
; 276  :     {
; 277  :         _Obj.~_Ty();
; 278  :     }
; 279  : }

  00000	c2 00 00	 ret	 0
??$_Destroy_in_place@PAU?$_Tree_node@U?$pair@$$CBKPAUSTextTail@CPythonTextTail@@@std@@PAX@std@@@std@@YAXAAPAU?$_Tree_node@U?$pair@$$CBKPAUSTextTail@CPythonTextTail@@@std@@PAX@0@@Z ENDP ; std::_Destroy_in_place<std::_Tree_node<std::pair<unsigned long const ,CPythonTextTail::STextTail *>,void *> *>
_TEXT	ENDS
; Function compile flags: /Ogtp
; File C:\Program Files (x86)\Microsoft Visual Studio\2019\Community\VC\Tools\MSVC\14.28.29333\include\xmemory
;	COMDAT ??1?$_Alloc_construct_ptr@V?$allocator@U?$_Tree_node@U?$pair@$$CBKPAUSTextTail@CPythonTextTail@@@std@@PAX@std@@@std@@@std@@QAE@XZ
_TEXT	SEGMENT
??1?$_Alloc_construct_ptr@V?$allocator@U?$_Tree_node@U?$pair@$$CBKPAUSTextTail@CPythonTextTail@@@std@@PAX@std@@@std@@@std@@QAE@XZ PROC ; std::_Alloc_construct_ptr<std::allocator<std::_Tree_node<std::pair<unsigned long const ,CPythonTextTail::STextTail *>,void *> > >::~_Alloc_construct_ptr<std::allocator<std::_Tree_node<std::pair<unsigned long const ,CPythonTextTail::STextTail *>,void *> > >, COMDAT
; _this$ = ecx

; 1057 :         if (_Ptr) {

  00000	8b 41 04	 mov	 eax, DWORD PTR [ecx+4]
  00003	85 c0		 test	 eax, eax
  00005	74 0b		 je	 SHORT $LN2@Alloc_cons

; 810  :         _Deallocate<_New_alignof<_Ty>>(_Ptr, sizeof(_Ty) * _Count);

  00007	6a 18		 push	 24			; 00000018H
  00009	50		 push	 eax
  0000a	e8 00 00 00 00	 call	 ??$_Deallocate@$07$0A@@std@@YAXPAXI@Z ; std::_Deallocate<8,0>
  0000f	83 c4 08	 add	 esp, 8
$LN2@Alloc_cons:

; 1058 :             _Al.deallocate(_Ptr, 1);
; 1059 :         }
; 1060 :     }

  00012	c3		 ret	 0
??1?$_Alloc_construct_ptr@V?$allocator@U?$_Tree_node@U?$pair@$$CBKPAUSTextTail@CPythonTextTail@@@std@@PAX@std@@@std@@@std@@QAE@XZ ENDP ; std::_Alloc_construct_ptr<std::allocator<std::_Tree_node<std::pair<unsigned long const ,CPythonTextTail::STextTail *>,void *> > >::~_Alloc_construct_ptr<std::allocator<std::_Tree_node<std::pair<unsigned long const ,CPythonTextTail::STextTail *>,void *> > >
_TEXT	ENDS
; Function compile flags: /Ogtp
; File C:\Program Files (x86)\Microsoft Visual Studio\2019\Community\VC\Tools\MSVC\14.28.29333\include\xmemory
;	COMDAT ??$_Uninitialized_move@PAPAUSTextTail@CPythonTextTail@@V?$allocator@PAUSTextTail@CPythonTextTail@@@std@@@std@@YAPAPAUSTextTail@CPythonTextTail@@QAPAU12@0PAPAU12@AAV?$allocator@PAUSTextTail@CPythonTextTail@@@0@@Z
_TEXT	SEGMENT
__First$ = 8						; size = 4
__Last$ = 12						; size = 4
__Dest$ = 16						; size = 4
__Al$ = 20						; size = 4
??$_Uninitialized_move@PAPAUSTextTail@CPythonTextTail@@V?$allocator@PAUSTextTail@CPythonTextTail@@@std@@@std@@YAPAPAUSTextTail@CPythonTextTail@@QAPAU12@0PAPAU12@AAV?$allocator@PAUSTextTail@CPythonTextTail@@@0@@Z PROC ; std::_Uninitialized_move<CPythonTextTail::STextTail * *,std::allocator<CPythonTextTail::STextTail *> >, COMDAT

; 1685 :     const _InIt _First, const _InIt _Last, _Alloc_ptr_t<_Alloc> _Dest, _Alloc& _Al) {

  00000	55		 push	 ebp
  00001	8b ec		 mov	 ebp, esp
  00003	53		 push	 ebx

; 1686 :     // move [_First, _Last) to raw _Dest, using _Al
; 1687 :     // note: only called internally from elsewhere in the STL
; 1688 :     using _Ptrval     = typename _Alloc::value_type*;
; 1689 :     auto _UFirst      = _Get_unwrapped(_First);
; 1690 :     const auto _ULast = _Get_unwrapped(_Last);
; 1691 :     if constexpr (conjunction_v<bool_constant<_Ptr_move_cat<decltype(_UFirst), _Ptrval>::_Really_trivial>,
; 1692 :                       _Uses_default_construct<_Alloc, _Ptrval, decltype(_STD move(*_UFirst))>>) {
; 1693 :         _Copy_memmove(_UFirst, _ULast, _Unfancy(_Dest));

  00004	8b 5d 10	 mov	 ebx, DWORD PTR __Dest$[ebp]
  00007	57		 push	 edi
  00008	8b 7d 0c	 mov	 edi, DWORD PTR __Last$[ebp]
  0000b	53		 push	 ebx
  0000c	57		 push	 edi
  0000d	ff 75 08	 push	 DWORD PTR __First$[ebp]
  00010	e8 00 00 00 00	 call	 ??$_Copy_memmove@PAPAUSTextTail@CPythonTextTail@@PAPAU12@@std@@YAPAPAUSTextTail@CPythonTextTail@@PAPAU12@00@Z ; std::_Copy_memmove<CPythonTextTail::STextTail * *,CPythonTextTail::STextTail * *>

; 1694 :         return _Dest + (_ULast - _UFirst);

  00015	2b 7d 08	 sub	 edi, DWORD PTR __First$[ebp]
  00018	83 c4 0c	 add	 esp, 12			; 0000000cH
  0001b	c1 ff 02	 sar	 edi, 2
  0001e	8d 04 bb	 lea	 eax, DWORD PTR [ebx+edi*4]
  00021	5f		 pop	 edi
  00022	5b		 pop	 ebx

; 1695 :     } else {
; 1696 :         _Uninitialized_backout_al<_Alloc> _Backout{_Dest, _Al};
; 1697 :         for (; _UFirst != _ULast; ++_UFirst) {
; 1698 :             _Backout._Emplace_back(_STD move(*_UFirst));
; 1699 :         }
; 1700 : 
; 1701 :         return _Backout._Release();
; 1702 :     }
; 1703 : }

  00023	5d		 pop	 ebp
  00024	c3		 ret	 0
??$_Uninitialized_move@PAPAUSTextTail@CPythonTextTail@@V?$allocator@PAUSTextTail@CPythonTextTail@@@std@@@std@@YAPAPAUSTextTail@CPythonTextTail@@QAPAU12@0PAPAU12@AAV?$allocator@PAUSTextTail@CPythonTextTail@@@0@@Z ENDP ; std::_Uninitialized_move<CPythonTextTail::STextTail * *,std::allocator<CPythonTextTail::STextTail *> >
_TEXT	ENDS
; Function compile flags: /Ogtp
; File C:\Program Files (x86)\Microsoft Visual Studio\2019\Community\VC\Tools\MSVC\14.28.29333\include\xmemory
;	COMDAT ??$_Construct_in_place@PAU?$_List_node@PAUSTextTail@CPythonTextTail@@PAX@std@@ABQAU12@@std@@YAXAAPAU?$_List_node@PAUSTextTail@CPythonTextTail@@PAX@0@ABQAU10@@Z
_TEXT	SEGMENT
__Obj$ = 8						; size = 4
_<_Args_0>$ = 12					; size = 4
??$_Construct_in_place@PAU?$_List_node@PAUSTextTail@CPythonTextTail@@PAX@std@@ABQAU12@@std@@YAXAAPAU?$_List_node@PAUSTextTail@CPythonTextTail@@PAX@0@ABQAU10@@Z PROC ; std::_Construct_in_place<std::_List_node<CPythonTextTail::STextTail *,void *> *,std::_List_node<CPythonTextTail::STextTail *,void *> * const &>, COMDAT

; 228  : void _Construct_in_place(_Ty& _Obj, _Types&&... _Args) noexcept(is_nothrow_constructible_v<_Ty, _Types...>) {

  00000	55		 push	 ebp
  00001	8b ec		 mov	 ebp, esp

; 229  :     ::new (const_cast<void*>(static_cast<const volatile void*>(_STD addressof(_Obj))))

  00003	8b 45 0c	 mov	 eax, DWORD PTR _<_Args_0>$[ebp]
  00006	8b 08		 mov	 ecx, DWORD PTR [eax]
  00008	8b 45 08	 mov	 eax, DWORD PTR __Obj$[ebp]
  0000b	89 08		 mov	 DWORD PTR [eax], ecx

; 230  :         _Ty(_STD forward<_Types>(_Args)...);
; 231  : }

  0000d	5d		 pop	 ebp
  0000e	c3		 ret	 0
??$_Construct_in_place@PAU?$_List_node@PAUSTextTail@CPythonTextTail@@PAX@std@@ABQAU12@@std@@YAXAAPAU?$_List_node@PAUSTextTail@CPythonTextTail@@PAX@0@ABQAU10@@Z ENDP ; std::_Construct_in_place<std::_List_node<CPythonTextTail::STextTail *,void *> *,std::_List_node<CPythonTextTail::STextTail *,void *> * const &>
_TEXT	ENDS
; Function compile flags: /Ogtp
; File C:\Program Files (x86)\Microsoft Visual Studio\2019\Community\VC\Tools\MSVC\14.28.29333\include\xmemory
;	COMDAT ??$_Construct_in_place@PAU?$_Tree_node@U?$pair@$$CBKPAUSTextTail@CPythonTextTail@@@std@@PAX@std@@ABQAU12@@std@@YAXAAPAU?$_Tree_node@U?$pair@$$CBKPAUSTextTail@CPythonTextTail@@@std@@PAX@0@ABQAU10@@Z
_TEXT	SEGMENT
__Obj$ = 8						; size = 4
_<_Args_0>$ = 12					; size = 4
??$_Construct_in_place@PAU?$_Tree_node@U?$pair@$$CBKPAUSTextTail@CPythonTextTail@@@std@@PAX@std@@ABQAU12@@std@@YAXAAPAU?$_Tree_node@U?$pair@$$CBKPAUSTextTail@CPythonTextTail@@@std@@PAX@0@ABQAU10@@Z PROC ; std::_Construct_in_place<std::_Tree_node<std::pair<unsigned long const ,CPythonTextTail::STextTail *>,void *> *,std::_Tree_node<std::pair<unsigned long const ,CPythonTextTail::STextTail *>,void *> * const &>, COMDAT

; 228  : void _Construct_in_place(_Ty& _Obj, _Types&&... _Args) noexcept(is_nothrow_constructible_v<_Ty, _Types...>) {

  00000	55		 push	 ebp
  00001	8b ec		 mov	 ebp, esp

; 229  :     ::new (const_cast<void*>(static_cast<const volatile void*>(_STD addressof(_Obj))))

  00003	8b 45 0c	 mov	 eax, DWORD PTR _<_Args_0>$[ebp]
  00006	8b 08		 mov	 ecx, DWORD PTR [eax]
  00008	8b 45 08	 mov	 eax, DWORD PTR __Obj$[ebp]
  0000b	89 08		 mov	 DWORD PTR [eax], ecx

; 230  :         _Ty(_STD forward<_Types>(_Args)...);
; 231  : }

  0000d	5d		 pop	 ebp
  0000e	c3		 ret	 0
??$_Construct_in_place@PAU?$_Tree_node@U?$pair@$$CBKPAUSTextTail@CPythonTextTail@@@std@@PAX@std@@ABQAU12@@std@@YAXAAPAU?$_Tree_node@U?$pair@$$CBKPAUSTextTail@CPythonTextTail@@@std@@PAX@0@ABQAU10@@Z ENDP ; std::_Construct_in_place<std::_Tree_node<std::pair<unsigned long const ,CPythonTextTail::STextTail *>,void *> *,std::_Tree_node<std::pair<unsigned long const ,CPythonTextTail::STextTail *>,void *> * const &>
_TEXT	ENDS
; Function compile flags: /Ogtp
; File C:\Program Files (x86)\Microsoft Visual Studio\2019\Community\VC\Tools\MSVC\14.28.29333\include\xmemory
;	COMDAT ??$_Destroy_in_place@PAU?$_List_node@PAUSTextTail@CPythonTextTail@@PAX@std@@@std@@YAXAAPAU?$_List_node@PAUSTextTail@CPythonTextTail@@PAX@0@@Z
_TEXT	SEGMENT
__Obj$ = 8						; size = 4
??$_Destroy_in_place@PAU?$_List_node@PAUSTextTail@CPythonTextTail@@PAX@std@@@std@@YAXAAPAU?$_List_node@PAUSTextTail@CPythonTextTail@@PAX@0@@Z PROC ; std::_Destroy_in_place<std::_List_node<CPythonTextTail::STextTail *,void *> *>, COMDAT

; 271  : #if _HAS_IF_CONSTEXPR
; 272  :     if constexpr (is_array_v<_Ty>) {
; 273  :         _Destroy_range(_Obj, _Obj + extent_v<_Ty>);
; 274  :     } else
; 275  : #endif // _HAS_IF_CONSTEXPR
; 276  :     {
; 277  :         _Obj.~_Ty();
; 278  :     }
; 279  : }

  00000	c2 00 00	 ret	 0
??$_Destroy_in_place@PAU?$_List_node@PAUSTextTail@CPythonTextTail@@PAX@std@@@std@@YAXAAPAU?$_List_node@PAUSTextTail@CPythonTextTail@@PAX@0@@Z ENDP ; std::_Destroy_in_place<std::_List_node<CPythonTextTail::STextTail *,void *> *>
_TEXT	ENDS
; Function compile flags: /Ogtp
; File C:\Program Files (x86)\Microsoft Visual Studio\2019\Community\VC\Tools\MSVC\14.28.29333\include\xtree
; File C:\Program Files (x86)\Microsoft Visual Studio\2019\Community\VC\Tools\MSVC\14.28.29333\include\xstddef
; File C:\Program Files (x86)\Microsoft Visual Studio\2019\Community\VC\Tools\MSVC\14.28.29333\include\xtree
; File C:\Program Files (x86)\Microsoft Visual Studio\2019\Community\VC\Tools\MSVC\14.28.29333\include\xstddef
; File C:\Program Files (x86)\Microsoft Visual Studio\2019\Community\VC\Tools\MSVC\14.28.29333\include\xtree
;	COMDAT ??$_Find_lower_bound@K@?$_Tree@V?$_Tmap_traits@KPAUSTextTail@CPythonTextTail@@U?$less@K@std@@V?$allocator@U?$pair@$$CBKPAUSTextTail@CPythonTextTail@@@std@@@4@$0A@@std@@@std@@IBE?AU?$_Tree_find_result@PAU?$_Tree_node@U?$pair@$$CBKPAUSTextTail@CPythonTextTail@@@std@@PAX@std@@@1@ABK@Z
_TEXT	SEGMENT
___$ReturnUdt$ = 8					; size = 4
__Keyval$ = 12						; size = 4
??$_Find_lower_bound@K@?$_Tree@V?$_Tmap_traits@KPAUSTextTail@CPythonTextTail@@U?$less@K@std@@V?$allocator@U?$pair@$$CBKPAUSTextTail@CPythonTextTail@@@std@@@4@$0A@@std@@@std@@IBE?AU?$_Tree_find_result@PAU?$_Tree_node@U?$pair@$$CBKPAUSTextTail@CPythonTextTail@@@std@@PAX@std@@@1@ABK@Z PROC ; std::_Tree<std::_Tmap_traits<unsigned long,CPythonTextTail::STextTail *,std::less<unsigned long>,std::allocator<std::pair<unsigned long const ,CPythonTextTail::STextTail *> >,0> >::_Find_lower_bound<unsigned long>, COMDAT
; _this$ = ecx

; 1699 :     _Tree_find_result<_Nodeptr> _Find_lower_bound(const _Keyty& _Keyval) const {

  00000	55		 push	 ebp
  00001	8b ec		 mov	 ebp, esp

; 1700 :         const auto _Scary = _Get_scary();
; 1701 :         _Tree_find_result<_Nodeptr> _Result{{_Scary->_Myhead->_Parent, _Tree_child::_Right}, _Scary->_Myhead};

  00003	8b 09		 mov	 ecx, DWORD PTR [ecx]
  00005	8b 55 08	 mov	 edx, DWORD PTR ___$ReturnUdt$[ebp]
  00008	8b 41 04	 mov	 eax, DWORD PTR [ecx+4]
  0000b	89 02		 mov	 DWORD PTR [edx], eax
  0000d	c7 42 04 00 00
	00 00		 mov	 DWORD PTR [edx+4], 0
  00014	89 4a 08	 mov	 DWORD PTR [edx+8], ecx

; 1702 :         _Nodeptr _Trynode = _Result._Location._Parent;
; 1703 :         while (!_Trynode->_Isnil) {

  00017	80 78 0d 00	 cmp	 BYTE PTR [eax+13], 0
  0001b	75 28		 jne	 SHORT $LN12@Find_lower
; File C:\Program Files (x86)\Microsoft Visual Studio\2019\Community\VC\Tools\MSVC\14.28.29333\include\xstddef

; 127  :         return _Left < _Right;

  0001d	8b 4d 0c	 mov	 ecx, DWORD PTR __Keyval$[ebp]
  00020	56		 push	 esi
  00021	8b 31		 mov	 esi, DWORD PTR [ecx]
$LL2@Find_lower:
; File C:\Program Files (x86)\Microsoft Visual Studio\2019\Community\VC\Tools\MSVC\14.28.29333\include\xtree

; 1704 :             _Result._Location._Parent = _Trynode;

  00023	89 02		 mov	 DWORD PTR [edx], eax
; File C:\Program Files (x86)\Microsoft Visual Studio\2019\Community\VC\Tools\MSVC\14.28.29333\include\xstddef

; 127  :         return _Left < _Right;

  00025	39 70 10	 cmp	 DWORD PTR [eax+16], esi
; File C:\Program Files (x86)\Microsoft Visual Studio\2019\Community\VC\Tools\MSVC\14.28.29333\include\xtree

; 1705 :             if (_DEBUG_LT_PRED(_Getcomp(), _Traits::_Kfn(_Trynode->_Myval), _Keyval)) {

  00028	73 07		 jae	 SHORT $LN4@Find_lower

; 1706 :                 _Result._Location._Child = _Tree_child::_Right;
; 1707 :                 _Trynode                 = _Trynode->_Right;

  0002a	8b 40 08	 mov	 eax, DWORD PTR [eax+8]
  0002d	33 c9		 xor	 ecx, ecx

; 1708 :             } else {

  0002f	eb 0a		 jmp	 SHORT $LN5@Find_lower
$LN4@Find_lower:

; 1709 :                 _Result._Location._Child = _Tree_child::_Left;
; 1710 :                 _Result._Bound           = _Trynode;

  00031	89 42 08	 mov	 DWORD PTR [edx+8], eax

; 1711 :                 _Trynode                 = _Trynode->_Left;

  00034	b9 01 00 00 00	 mov	 ecx, 1
  00039	8b 00		 mov	 eax, DWORD PTR [eax]
$LN5@Find_lower:

; 1702 :         _Nodeptr _Trynode = _Result._Location._Parent;
; 1703 :         while (!_Trynode->_Isnil) {

  0003b	89 4a 04	 mov	 DWORD PTR [edx+4], ecx
  0003e	80 78 0d 00	 cmp	 BYTE PTR [eax+13], 0
  00042	74 df		 je	 SHORT $LL2@Find_lower

; 1712 :             }
; 1713 :         }
; 1714 : 
; 1715 :         return _Result;

  00044	5e		 pop	 esi
$LN12@Find_lower:

; 1716 :     }

  00045	8b c2		 mov	 eax, edx
  00047	5d		 pop	 ebp
  00048	c2 08 00	 ret	 8
??$_Find_lower_bound@K@?$_Tree@V?$_Tmap_traits@KPAUSTextTail@CPythonTextTail@@U?$less@K@std@@V?$allocator@U?$pair@$$CBKPAUSTextTail@CPythonTextTail@@@std@@@4@$0A@@std@@@std@@IBE?AU?$_Tree_find_result@PAU?$_Tree_node@U?$pair@$$CBKPAUSTextTail@CPythonTextTail@@@std@@PAX@std@@@1@ABK@Z ENDP ; std::_Tree<std::_Tmap_traits<unsigned long,CPythonTextTail::STextTail *,std::less<unsigned long>,std::allocator<std::pair<unsigned long const ,CPythonTextTail::STextTail *> >,0> >::_Find_lower_bound<unsigned long>
_TEXT	ENDS
; Function compile flags: /Ogtp
; File C:\Program Files (x86)\Microsoft Visual Studio\2019\Community\VC\Tools\MSVC\14.28.29333\include\xmemory
;	COMDAT ??1?$_Alloc_construct_ptr@V?$allocator@U?$_List_node@PAUSTextTail@CPythonTextTail@@PAX@std@@@std@@@std@@QAE@XZ
_TEXT	SEGMENT
??1?$_Alloc_construct_ptr@V?$allocator@U?$_List_node@PAUSTextTail@CPythonTextTail@@PAX@std@@@std@@@std@@QAE@XZ PROC ; std::_Alloc_construct_ptr<std::allocator<std::_List_node<CPythonTextTail::STextTail *,void *> > >::~_Alloc_construct_ptr<std::allocator<std::_List_node<CPythonTextTail::STextTail *,void *> > >, COMDAT
; _this$ = ecx

; 1057 :         if (_Ptr) {

  00000	8b 41 04	 mov	 eax, DWORD PTR [ecx+4]
  00003	85 c0		 test	 eax, eax
  00005	74 0b		 je	 SHORT $LN2@Alloc_cons

; 810  :         _Deallocate<_New_alignof<_Ty>>(_Ptr, sizeof(_Ty) * _Count);

  00007	6a 0c		 push	 12			; 0000000cH
  00009	50		 push	 eax
  0000a	e8 00 00 00 00	 call	 ??$_Deallocate@$07$0A@@std@@YAXPAXI@Z ; std::_Deallocate<8,0>
  0000f	83 c4 08	 add	 esp, 8
$LN2@Alloc_cons:

; 1058 :             _Al.deallocate(_Ptr, 1);
; 1059 :         }
; 1060 :     }

  00012	c3		 ret	 0
??1?$_Alloc_construct_ptr@V?$allocator@U?$_List_node@PAUSTextTail@CPythonTextTail@@PAX@std@@@std@@@std@@QAE@XZ ENDP ; std::_Alloc_construct_ptr<std::allocator<std::_List_node<CPythonTextTail::STextTail *,void *> > >::~_Alloc_construct_ptr<std::allocator<std::_List_node<CPythonTextTail::STextTail *,void *> > >
_TEXT	ENDS
; Function compile flags: /Ogtp
;	COMDAT ??__F?ms_kPool@?$CPooledObject@VCRotationDecorator@NEffectUpdateDecorator@@@@1V?$CDynamicPoolEx@VCRotationDecorator@NEffectUpdateDecorator@@@@A@@YAXXZ
text$yd	SEGMENT
??__F?ms_kPool@?$CPooledObject@VCRotationDecorator@NEffectUpdateDecorator@@@@1V?$CDynamicPoolEx@VCRotationDecorator@NEffectUpdateDecorator@@@@A@@YAXXZ PROC ; `dynamic atexit destructor for 'CPooledObject<NEffectUpdateDecorator::CRotationDecorator>::ms_kPool'', COMDAT
  00000	b9 00 00 00 00	 mov	 ecx, OFFSET ?ms_kPool@?$CPooledObject@VCRotationDecorator@NEffectUpdateDecorator@@@@1V?$CDynamicPoolEx@VCRotationDecorator@NEffectUpdateDecorator@@@@A ; CPooledObject<NEffectUpdateDecorator::CRotationDecorator>::ms_kPool
  00005	e9 00 00 00 00	 jmp	 ??1?$CDynamicPoolEx@VCRotationDecorator@NEffectUpdateDecorator@@@@UAE@XZ ; CDynamicPoolEx<NEffectUpdateDecorator::CRotationDecorator>::~CDynamicPoolEx<NEffectUpdateDecorator::CRotationDecorator>
??__F?ms_kPool@?$CPooledObject@VCRotationDecorator@NEffectUpdateDecorator@@@@1V?$CDynamicPoolEx@VCRotationDecorator@NEffectUpdateDecorator@@@@A@@YAXXZ ENDP ; `dynamic atexit destructor for 'CPooledObject<NEffectUpdateDecorator::CRotationDecorator>::ms_kPool''
text$yd	ENDS
; Function compile flags: /Ogtp
; File D:\Metin2 Server Files\mainline\SRC_2014\Metin2Client\eterLib\Pool.h
;	COMDAT ??__E?ms_kPool@?$CPooledObject@VCRotationDecorator@NEffectUpdateDecorator@@@@1V?$CDynamicPoolEx@VCRotationDecorator@NEffectUpdateDecorator@@@@A@@YAXXZ
text$di	SEGMENT
??__E?ms_kPool@?$CPooledObject@VCRotationDecorator@NEffectUpdateDecorator@@@@1V?$CDynamicPoolEx@VCRotationDecorator@NEffectUpdateDecorator@@@@A@@YAXXZ PROC ; `dynamic initializer for 'CPooledObject<NEffectUpdateDecorator::CRotationDecorator>::ms_kPool'', COMDAT

; 272  : template <class T> CDynamicPoolEx<T> CPooledObject<T>::ms_kPool;

  00000	68 00 00 00 00	 push	 OFFSET ??__F?ms_kPool@?$CPooledObject@VCRotationDecorator@NEffectUpdateDecorator@@@@1V?$CDynamicPoolEx@VCRotationDecorator@NEffectUpdateDecorator@@@@A@@YAXXZ ; `dynamic atexit destructor for 'CPooledObject<NEffectUpdateDecorator::CRotationDecorator>::ms_kPool''
  00005	e8 00 00 00 00	 call	 _atexit
  0000a	59		 pop	 ecx
  0000b	c3		 ret	 0
??__E?ms_kPool@?$CPooledObject@VCRotationDecorator@NEffectUpdateDecorator@@@@1V?$CDynamicPoolEx@VCRotationDecorator@NEffectUpdateDecorator@@@@A@@YAXXZ ENDP ; `dynamic initializer for 'CPooledObject<NEffectUpdateDecorator::CRotationDecorator>::ms_kPool''
text$di	ENDS
; Function compile flags: /Ogtp
;	COMDAT ??__F?ms_kPool@?$CPooledObject@VCGravityDecorator@NEffectUpdateDecorator@@@@1V?$CDynamicPoolEx@VCGravityDecorator@NEffectUpdateDecorator@@@@A@@YAXXZ
text$yd	SEGMENT
??__F?ms_kPool@?$CPooledObject@VCGravityDecorator@NEffectUpdateDecorator@@@@1V?$CDynamicPoolEx@VCGravityDecorator@NEffectUpdateDecorator@@@@A@@YAXXZ PROC ; `dynamic atexit destructor for 'CPooledObject<NEffectUpdateDecorator::CGravityDecorator>::ms_kPool'', COMDAT
  00000	b9 00 00 00 00	 mov	 ecx, OFFSET ?ms_kPool@?$CPooledObject@VCGravityDecorator@NEffectUpdateDecorator@@@@1V?$CDynamicPoolEx@VCGravityDecorator@NEffectUpdateDecorator@@@@A ; CPooledObject<NEffectUpdateDecorator::CGravityDecorator>::ms_kPool
  00005	e9 00 00 00 00	 jmp	 ??1?$CDynamicPoolEx@VCGravityDecorator@NEffectUpdateDecorator@@@@UAE@XZ ; CDynamicPoolEx<NEffectUpdateDecorator::CGravityDecorator>::~CDynamicPoolEx<NEffectUpdateDecorator::CGravityDecorator>
??__F?ms_kPool@?$CPooledObject@VCGravityDecorator@NEffectUpdateDecorator@@@@1V?$CDynamicPoolEx@VCGravityDecorator@NEffectUpdateDecorator@@@@A@@YAXXZ ENDP ; `dynamic atexit destructor for 'CPooledObject<NEffectUpdateDecorator::CGravityDecorator>::ms_kPool''
text$yd	ENDS
; Function compile flags: /Ogtp
; File D:\Metin2 Server Files\mainline\SRC_2014\Metin2Client\eterLib\Pool.h
;	COMDAT ??__E?ms_kPool@?$CPooledObject@VCGravityDecorator@NEffectUpdateDecorator@@@@1V?$CDynamicPoolEx@VCGravityDecorator@NEffectUpdateDecorator@@@@A@@YAXXZ
text$di	SEGMENT
??__E?ms_kPool@?$CPooledObject@VCGravityDecorator@NEffectUpdateDecorator@@@@1V?$CDynamicPoolEx@VCGravityDecorator@NEffectUpdateDecorator@@@@A@@YAXXZ PROC ; `dynamic initializer for 'CPooledObject<NEffectUpdateDecorator::CGravityDecorator>::ms_kPool'', COMDAT

; 272  : template <class T> CDynamicPoolEx<T> CPooledObject<T>::ms_kPool;

  00000	68 00 00 00 00	 push	 OFFSET ??__F?ms_kPool@?$CPooledObject@VCGravityDecorator@NEffectUpdateDecorator@@@@1V?$CDynamicPoolEx@VCGravityDecorator@NEffectUpdateDecorator@@@@A@@YAXXZ ; `dynamic atexit destructor for 'CPooledObject<NEffectUpdateDecorator::CGravityDecorator>::ms_kPool''
  00005	e8 00 00 00 00	 call	 _atexit
  0000a	59		 pop	 ecx
  0000b	c3		 ret	 0
??__E?ms_kPool@?$CPooledObject@VCGravityDecorator@NEffectUpdateDecorator@@@@1V?$CDynamicPoolEx@VCGravityDecorator@NEffectUpdateDecorator@@@@A@@YAXXZ ENDP ; `dynamic initializer for 'CPooledObject<NEffectUpdateDecorator::CGravityDecorator>::ms_kPool''
text$di	ENDS
; Function compile flags: /Ogtp
;	COMDAT ??__F?ms_kPool@?$CPooledObject@VCAirResistanceDecorator@NEffectUpdateDecorator@@@@1V?$CDynamicPoolEx@VCAirResistanceDecorator@NEffectUpdateDecorator@@@@A@@YAXXZ
text$yd	SEGMENT
??__F?ms_kPool@?$CPooledObject@VCAirResistanceDecorator@NEffectUpdateDecorator@@@@1V?$CDynamicPoolEx@VCAirResistanceDecorator@NEffectUpdateDecorator@@@@A@@YAXXZ PROC ; `dynamic atexit destructor for 'CPooledObject<NEffectUpdateDecorator::CAirResistanceDecorator>::ms_kPool'', COMDAT
  00000	b9 00 00 00 00	 mov	 ecx, OFFSET ?ms_kPool@?$CPooledObject@VCAirResistanceDecorator@NEffectUpdateDecorator@@@@1V?$CDynamicPoolEx@VCAirResistanceDecorator@NEffectUpdateDecorator@@@@A ; CPooledObject<NEffectUpdateDecorator::CAirResistanceDecorator>::ms_kPool
  00005	e9 00 00 00 00	 jmp	 ??1?$CDynamicPoolEx@VCAirResistanceDecorator@NEffectUpdateDecorator@@@@UAE@XZ ; CDynamicPoolEx<NEffectUpdateDecorator::CAirResistanceDecorator>::~CDynamicPoolEx<NEffectUpdateDecorator::CAirResistanceDecorator>
??__F?ms_kPool@?$CPooledObject@VCAirResistanceDecorator@NEffectUpdateDecorator@@@@1V?$CDynamicPoolEx@VCAirResistanceDecorator@NEffectUpdateDecorator@@@@A@@YAXXZ ENDP ; `dynamic atexit destructor for 'CPooledObject<NEffectUpdateDecorator::CAirResistanceDecorator>::ms_kPool''
text$yd	ENDS
; Function compile flags: /Ogtp
; File D:\Metin2 Server Files\mainline\SRC_2014\Metin2Client\eterLib\Pool.h
;	COMDAT ??__E?ms_kPool@?$CPooledObject@VCAirResistanceDecorator@NEffectUpdateDecorator@@@@1V?$CDynamicPoolEx@VCAirResistanceDecorator@NEffectUpdateDecorator@@@@A@@YAXXZ
text$di	SEGMENT
??__E?ms_kPool@?$CPooledObject@VCAirResistanceDecorator@NEffectUpdateDecorator@@@@1V?$CDynamicPoolEx@VCAirResistanceDecorator@NEffectUpdateDecorator@@@@A@@YAXXZ PROC ; `dynamic initializer for 'CPooledObject<NEffectUpdateDecorator::CAirResistanceDecorator>::ms_kPool'', COMDAT

; 272  : template <class T> CDynamicPoolEx<T> CPooledObject<T>::ms_kPool;

  00000	68 00 00 00 00	 push	 OFFSET ??__F?ms_kPool@?$CPooledObject@VCAirResistanceDecorator@NEffectUpdateDecorator@@@@1V?$CDynamicPoolEx@VCAirResistanceDecorator@NEffectUpdateDecorator@@@@A@@YAXXZ ; `dynamic atexit destructor for 'CPooledObject<NEffectUpdateDecorator::CAirResistanceDecorator>::ms_kPool''
  00005	e8 00 00 00 00	 call	 _atexit
  0000a	59		 pop	 ecx
  0000b	c3		 ret	 0
??__E?ms_kPool@?$CPooledObject@VCAirResistanceDecorator@NEffectUpdateDecorator@@@@1V?$CDynamicPoolEx@VCAirResistanceDecorator@NEffectUpdateDecorator@@@@A@@YAXXZ ENDP ; `dynamic initializer for 'CPooledObject<NEffectUpdateDecorator::CAirResistanceDecorator>::ms_kPool''
text$di	ENDS
; Function compile flags: /Ogtp
;	COMDAT ??__F?ms_kPool@?$CPooledObject@VCTextureAnimationRandomDecorator@NEffectUpdateDecorator@@@@1V?$CDynamicPoolEx@VCTextureAnimationRandomDecorator@NEffectUpdateDecorator@@@@A@@YAXXZ
text$yd	SEGMENT
??__F?ms_kPool@?$CPooledObject@VCTextureAnimationRandomDecorator@NEffectUpdateDecorator@@@@1V?$CDynamicPoolEx@VCTextureAnimationRandomDecorator@NEffectUpdateDecorator@@@@A@@YAXXZ PROC ; `dynamic atexit destructor for 'CPooledObject<NEffectUpdateDecorator::CTextureAnimationRandomDecorator>::ms_kPool'', COMDAT
  00000	b9 00 00 00 00	 mov	 ecx, OFFSET ?ms_kPool@?$CPooledObject@VCTextureAnimationRandomDecorator@NEffectUpdateDecorator@@@@1V?$CDynamicPoolEx@VCTextureAnimationRandomDecorator@NEffectUpdateDecorator@@@@A ; CPooledObject<NEffectUpdateDecorator::CTextureAnimationRandomDecorator>::ms_kPool
  00005	e9 00 00 00 00	 jmp	 ??1?$CDynamicPoolEx@VCTextureAnimationRandomDecorator@NEffectUpdateDecorator@@@@UAE@XZ ; CDynamicPoolEx<NEffectUpdateDecorator::CTextureAnimationRandomDecorator>::~CDynamicPoolEx<NEffectUpdateDecorator::CTextureAnimationRandomDecorator>
??__F?ms_kPool@?$CPooledObject@VCTextureAnimationRandomDecorator@NEffectUpdateDecorator@@@@1V?$CDynamicPoolEx@VCTextureAnimationRandomDecorator@NEffectUpdateDecorator@@@@A@@YAXXZ ENDP ; `dynamic atexit destructor for 'CPooledObject<NEffectUpdateDecorator::CTextureAnimationRandomDecorator>::ms_kPool''
text$yd	ENDS
; Function compile flags: /Ogtp
; File D:\Metin2 Server Files\mainline\SRC_2014\Metin2Client\eterLib\Pool.h
;	COMDAT ??__E?ms_kPool@?$CPooledObject@VCTextureAnimationRandomDecorator@NEffectUpdateDecorator@@@@1V?$CDynamicPoolEx@VCTextureAnimationRandomDecorator@NEffectUpdateDecorator@@@@A@@YAXXZ
text$di	SEGMENT
??__E?ms_kPool@?$CPooledObject@VCTextureAnimationRandomDecorator@NEffectUpdateDecorator@@@@1V?$CDynamicPoolEx@VCTextureAnimationRandomDecorator@NEffectUpdateDecorator@@@@A@@YAXXZ PROC ; `dynamic initializer for 'CPooledObject<NEffectUpdateDecorator::CTextureAnimationRandomDecorator>::ms_kPool'', COMDAT

; 272  : template <class T> CDynamicPoolEx<T> CPooledObject<T>::ms_kPool;

  00000	68 00 00 00 00	 push	 OFFSET ??__F?ms_kPool@?$CPooledObject@VCTextureAnimationRandomDecorator@NEffectUpdateDecorator@@@@1V?$CDynamicPoolEx@VCTextureAnimationRandomDecorator@NEffectUpdateDecorator@@@@A@@YAXXZ ; `dynamic atexit destructor for 'CPooledObject<NEffectUpdateDecorator::CTextureAnimationRandomDecorator>::ms_kPool''
  00005	e8 00 00 00 00	 call	 _atexit
  0000a	59		 pop	 ecx
  0000b	c3		 ret	 0
??__E?ms_kPool@?$CPooledObject@VCTextureAnimationRandomDecorator@NEffectUpdateDecorator@@@@1V?$CDynamicPoolEx@VCTextureAnimationRandomDecorator@NEffectUpdateDecorator@@@@A@@YAXXZ ENDP ; `dynamic initializer for 'CPooledObject<NEffectUpdateDecorator::CTextureAnimationRandomDecorator>::ms_kPool''
text$di	ENDS
; Function compile flags: /Ogtp
;	COMDAT ??__F?ms_kPool@?$CPooledObject@VCTextureAnimationCCWDecorator@NEffectUpdateDecorator@@@@1V?$CDynamicPoolEx@VCTextureAnimationCCWDecorator@NEffectUpdateDecorator@@@@A@@YAXXZ
text$yd	SEGMENT
??__F?ms_kPool@?$CPooledObject@VCTextureAnimationCCWDecorator@NEffectUpdateDecorator@@@@1V?$CDynamicPoolEx@VCTextureAnimationCCWDecorator@NEffectUpdateDecorator@@@@A@@YAXXZ PROC ; `dynamic atexit destructor for 'CPooledObject<NEffectUpdateDecorator::CTextureAnimationCCWDecorator>::ms_kPool'', COMDAT
  00000	b9 00 00 00 00	 mov	 ecx, OFFSET ?ms_kPool@?$CPooledObject@VCTextureAnimationCCWDecorator@NEffectUpdateDecorator@@@@1V?$CDynamicPoolEx@VCTextureAnimationCCWDecorator@NEffectUpdateDecorator@@@@A ; CPooledObject<NEffectUpdateDecorator::CTextureAnimationCCWDecorator>::ms_kPool
  00005	e9 00 00 00 00	 jmp	 ??1?$CDynamicPoolEx@VCTextureAnimationCCWDecorator@NEffectUpdateDecorator@@@@UAE@XZ ; CDynamicPoolEx<NEffectUpdateDecorator::CTextureAnimationCCWDecorator>::~CDynamicPoolEx<NEffectUpdateDecorator::CTextureAnimationCCWDecorator>
??__F?ms_kPool@?$CPooledObject@VCTextureAnimationCCWDecorator@NEffectUpdateDecorator@@@@1V?$CDynamicPoolEx@VCTextureAnimationCCWDecorator@NEffectUpdateDecorator@@@@A@@YAXXZ ENDP ; `dynamic atexit destructor for 'CPooledObject<NEffectUpdateDecorator::CTextureAnimationCCWDecorator>::ms_kPool''
text$yd	ENDS
; Function compile flags: /Ogtp
; File D:\Metin2 Server Files\mainline\SRC_2014\Metin2Client\eterLib\Pool.h
;	COMDAT ??__E?ms_kPool@?$CPooledObject@VCTextureAnimationCCWDecorator@NEffectUpdateDecorator@@@@1V?$CDynamicPoolEx@VCTextureAnimationCCWDecorator@NEffectUpdateDecorator@@@@A@@YAXXZ
text$di	SEGMENT
??__E?ms_kPool@?$CPooledObject@VCTextureAnimationCCWDecorator@NEffectUpdateDecorator@@@@1V?$CDynamicPoolEx@VCTextureAnimationCCWDecorator@NEffectUpdateDecorator@@@@A@@YAXXZ PROC ; `dynamic initializer for 'CPooledObject<NEffectUpdateDecorator::CTextureAnimationCCWDecorator>::ms_kPool'', COMDAT

; 272  : template <class T> CDynamicPoolEx<T> CPooledObject<T>::ms_kPool;

  00000	68 00 00 00 00	 push	 OFFSET ??__F?ms_kPool@?$CPooledObject@VCTextureAnimationCCWDecorator@NEffectUpdateDecorator@@@@1V?$CDynamicPoolEx@VCTextureAnimationCCWDecorator@NEffectUpdateDecorator@@@@A@@YAXXZ ; `dynamic atexit destructor for 'CPooledObject<NEffectUpdateDecorator::CTextureAnimationCCWDecorator>::ms_kPool''
  00005	e8 00 00 00 00	 call	 _atexit
  0000a	59		 pop	 ecx
  0000b	c3		 ret	 0
??__E?ms_kPool@?$CPooledObject@VCTextureAnimationCCWDecorator@NEffectUpdateDecorator@@@@1V?$CDynamicPoolEx@VCTextureAnimationCCWDecorator@NEffectUpdateDecorator@@@@A@@YAXXZ ENDP ; `dynamic initializer for 'CPooledObject<NEffectUpdateDecorator::CTextureAnimationCCWDecorator>::ms_kPool''
text$di	ENDS
; Function compile flags: /Ogtp
;	COMDAT ??__F?ms_kPool@?$CPooledObject@VCTextureAnimationCWDecorator@NEffectUpdateDecorator@@@@1V?$CDynamicPoolEx@VCTextureAnimationCWDecorator@NEffectUpdateDecorator@@@@A@@YAXXZ
text$yd	SEGMENT
??__F?ms_kPool@?$CPooledObject@VCTextureAnimationCWDecorator@NEffectUpdateDecorator@@@@1V?$CDynamicPoolEx@VCTextureAnimationCWDecorator@NEffectUpdateDecorator@@@@A@@YAXXZ PROC ; `dynamic atexit destructor for 'CPooledObject<NEffectUpdateDecorator::CTextureAnimationCWDecorator>::ms_kPool'', COMDAT
  00000	b9 00 00 00 00	 mov	 ecx, OFFSET ?ms_kPool@?$CPooledObject@VCTextureAnimationCWDecorator@NEffectUpdateDecorator@@@@1V?$CDynamicPoolEx@VCTextureAnimationCWDecorator@NEffectUpdateDecorator@@@@A ; CPooledObject<NEffectUpdateDecorator::CTextureAnimationCWDecorator>::ms_kPool
  00005	e9 00 00 00 00	 jmp	 ??1?$CDynamicPoolEx@VCTextureAnimationCWDecorator@NEffectUpdateDecorator@@@@UAE@XZ ; CDynamicPoolEx<NEffectUpdateDecorator::CTextureAnimationCWDecorator>::~CDynamicPoolEx<NEffectUpdateDecorator::CTextureAnimationCWDecorator>
??__F?ms_kPool@?$CPooledObject@VCTextureAnimationCWDecorator@NEffectUpdateDecorator@@@@1V?$CDynamicPoolEx@VCTextureAnimationCWDecorator@NEffectUpdateDecorator@@@@A@@YAXXZ ENDP ; `dynamic atexit destructor for 'CPooledObject<NEffectUpdateDecorator::CTextureAnimationCWDecorator>::ms_kPool''
text$yd	ENDS
; Function compile flags: /Ogtp
; File D:\Metin2 Server Files\mainline\SRC_2014\Metin2Client\eterLib\Pool.h
;	COMDAT ??__E?ms_kPool@?$CPooledObject@VCTextureAnimationCWDecorator@NEffectUpdateDecorator@@@@1V?$CDynamicPoolEx@VCTextureAnimationCWDecorator@NEffectUpdateDecorator@@@@A@@YAXXZ
text$di	SEGMENT
??__E?ms_kPool@?$CPooledObject@VCTextureAnimationCWDecorator@NEffectUpdateDecorator@@@@1V?$CDynamicPoolEx@VCTextureAnimationCWDecorator@NEffectUpdateDecorator@@@@A@@YAXXZ PROC ; `dynamic initializer for 'CPooledObject<NEffectUpdateDecorator::CTextureAnimationCWDecorator>::ms_kPool'', COMDAT

; 272  : template <class T> CDynamicPoolEx<T> CPooledObject<T>::ms_kPool;

  00000	68 00 00 00 00	 push	 OFFSET ??__F?ms_kPool@?$CPooledObject@VCTextureAnimationCWDecorator@NEffectUpdateDecorator@@@@1V?$CDynamicPoolEx@VCTextureAnimationCWDecorator@NEffectUpdateDecorator@@@@A@@YAXXZ ; `dynamic atexit destructor for 'CPooledObject<NEffectUpdateDecorator::CTextureAnimationCWDecorator>::ms_kPool''
  00005	e8 00 00 00 00	 call	 _atexit
  0000a	59		 pop	 ecx
  0000b	c3		 ret	 0
??__E?ms_kPool@?$CPooledObject@VCTextureAnimationCWDecorator@NEffectUpdateDecorator@@@@1V?$CDynamicPoolEx@VCTextureAnimationCWDecorator@NEffectUpdateDecorator@@@@A@@YAXXZ ENDP ; `dynamic initializer for 'CPooledObject<NEffectUpdateDecorator::CTextureAnimationCWDecorator>::ms_kPool''
text$di	ENDS
; Function compile flags: /Ogtp
;	COMDAT ??__F?ms_kPool@?$CPooledObject@VCNullDecorator@NEffectUpdateDecorator@@@@1V?$CDynamicPoolEx@VCNullDecorator@NEffectUpdateDecorator@@@@A@@YAXXZ
text$yd	SEGMENT
??__F?ms_kPool@?$CPooledObject@VCNullDecorator@NEffectUpdateDecorator@@@@1V?$CDynamicPoolEx@VCNullDecorator@NEffectUpdateDecorator@@@@A@@YAXXZ PROC ; `dynamic atexit destructor for 'CPooledObject<NEffectUpdateDecorator::CNullDecorator>::ms_kPool'', COMDAT
  00000	b9 00 00 00 00	 mov	 ecx, OFFSET ?ms_kPool@?$CPooledObject@VCNullDecorator@NEffectUpdateDecorator@@@@1V?$CDynamicPoolEx@VCNullDecorator@NEffectUpdateDecorator@@@@A ; CPooledObject<NEffectUpdateDecorator::CNullDecorator>::ms_kPool
  00005	e9 00 00 00 00	 jmp	 ??1?$CDynamicPoolEx@VCNullDecorator@NEffectUpdateDecorator@@@@UAE@XZ ; CDynamicPoolEx<NEffectUpdateDecorator::CNullDecorator>::~CDynamicPoolEx<NEffectUpdateDecorator::CNullDecorator>
??__F?ms_kPool@?$CPooledObject@VCNullDecorator@NEffectUpdateDecorator@@@@1V?$CDynamicPoolEx@VCNullDecorator@NEffectUpdateDecorator@@@@A@@YAXXZ ENDP ; `dynamic atexit destructor for 'CPooledObject<NEffectUpdateDecorator::CNullDecorator>::ms_kPool''
text$yd	ENDS
; Function compile flags: /Ogtp
; File D:\Metin2 Server Files\mainline\SRC_2014\Metin2Client\eterLib\Pool.h
;	COMDAT ??__E?ms_kPool@?$CPooledObject@VCNullDecorator@NEffectUpdateDecorator@@@@1V?$CDynamicPoolEx@VCNullDecorator@NEffectUpdateDecorator@@@@A@@YAXXZ
text$di	SEGMENT
??__E?ms_kPool@?$CPooledObject@VCNullDecorator@NEffectUpdateDecorator@@@@1V?$CDynamicPoolEx@VCNullDecorator@NEffectUpdateDecorator@@@@A@@YAXXZ PROC ; `dynamic initializer for 'CPooledObject<NEffectUpdateDecorator::CNullDecorator>::ms_kPool'', COMDAT

; 272  : template <class T> CDynamicPoolEx<T> CPooledObject<T>::ms_kPool;

  00000	68 00 00 00 00	 push	 OFFSET ??__F?ms_kPool@?$CPooledObject@VCNullDecorator@NEffectUpdateDecorator@@@@1V?$CDynamicPoolEx@VCNullDecorator@NEffectUpdateDecorator@@@@A@@YAXXZ ; `dynamic atexit destructor for 'CPooledObject<NEffectUpdateDecorator::CNullDecorator>::ms_kPool''
  00005	e8 00 00 00 00	 call	 _atexit
  0000a	59		 pop	 ecx
  0000b	c3		 ret	 0
??__E?ms_kPool@?$CPooledObject@VCNullDecorator@NEffectUpdateDecorator@@@@1V?$CDynamicPoolEx@VCNullDecorator@NEffectUpdateDecorator@@@@A@@YAXXZ ENDP ; `dynamic initializer for 'CPooledObject<NEffectUpdateDecorator::CNullDecorator>::ms_kPool''
text$di	ENDS
; Function compile flags: /Ogtp
;	COMDAT ??__F?ms_kPool@?$CPooledObject@VCHeaderDecorator@NEffectUpdateDecorator@@@@1V?$CDynamicPoolEx@VCHeaderDecorator@NEffectUpdateDecorator@@@@A@@YAXXZ
text$yd	SEGMENT
??__F?ms_kPool@?$CPooledObject@VCHeaderDecorator@NEffectUpdateDecorator@@@@1V?$CDynamicPoolEx@VCHeaderDecorator@NEffectUpdateDecorator@@@@A@@YAXXZ PROC ; `dynamic atexit destructor for 'CPooledObject<NEffectUpdateDecorator::CHeaderDecorator>::ms_kPool'', COMDAT
  00000	b9 00 00 00 00	 mov	 ecx, OFFSET ?ms_kPool@?$CPooledObject@VCHeaderDecorator@NEffectUpdateDecorator@@@@1V?$CDynamicPoolEx@VCHeaderDecorator@NEffectUpdateDecorator@@@@A ; CPooledObject<NEffectUpdateDecorator::CHeaderDecorator>::ms_kPool
  00005	e9 00 00 00 00	 jmp	 ??1?$CDynamicPoolEx@VCHeaderDecorator@NEffectUpdateDecorator@@@@UAE@XZ ; CDynamicPoolEx<NEffectUpdateDecorator::CHeaderDecorator>::~CDynamicPoolEx<NEffectUpdateDecorator::CHeaderDecorator>
??__F?ms_kPool@?$CPooledObject@VCHeaderDecorator@NEffectUpdateDecorator@@@@1V?$CDynamicPoolEx@VCHeaderDecorator@NEffectUpdateDecorator@@@@A@@YAXXZ ENDP ; `dynamic atexit destructor for 'CPooledObject<NEffectUpdateDecorator::CHeaderDecorator>::ms_kPool''
text$yd	ENDS
; Function compile flags: /Ogtp
; File D:\Metin2 Server Files\mainline\SRC_2014\Metin2Client\eterLib\Pool.h
;	COMDAT ??__E?ms_kPool@?$CPooledObject@VCHeaderDecorator@NEffectUpdateDecorator@@@@1V?$CDynamicPoolEx@VCHeaderDecorator@NEffectUpdateDecorator@@@@A@@YAXXZ
text$di	SEGMENT
??__E?ms_kPool@?$CPooledObject@VCHeaderDecorator@NEffectUpdateDecorator@@@@1V?$CDynamicPoolEx@VCHeaderDecorator@NEffectUpdateDecorator@@@@A@@YAXXZ PROC ; `dynamic initializer for 'CPooledObject<NEffectUpdateDecorator::CHeaderDecorator>::ms_kPool'', COMDAT

; 272  : template <class T> CDynamicPoolEx<T> CPooledObject<T>::ms_kPool;

  00000	68 00 00 00 00	 push	 OFFSET ??__F?ms_kPool@?$CPooledObject@VCHeaderDecorator@NEffectUpdateDecorator@@@@1V?$CDynamicPoolEx@VCHeaderDecorator@NEffectUpdateDecorator@@@@A@@YAXXZ ; `dynamic atexit destructor for 'CPooledObject<NEffectUpdateDecorator::CHeaderDecorator>::ms_kPool''
  00005	e8 00 00 00 00	 call	 _atexit
  0000a	59		 pop	 ecx
  0000b	c3		 ret	 0
??__E?ms_kPool@?$CPooledObject@VCHeaderDecorator@NEffectUpdateDecorator@@@@1V?$CDynamicPoolEx@VCHeaderDecorator@NEffectUpdateDecorator@@@@A@@YAXXZ ENDP ; `dynamic initializer for 'CPooledObject<NEffectUpdateDecorator::CHeaderDecorator>::ms_kPool''
text$di	ENDS
; Function compile flags: /Ogtp
; File C:\Program Files (x86)\Microsoft Visual Studio\2019\Community\VC\Tools\MSVC\14.28.29333\include\xmemory
;	COMDAT ??$_Destroy_range@V?$allocator@PAVCRotationDecorator@NEffectUpdateDecorator@@@std@@@std@@YAXPAPAVCRotationDecorator@NEffectUpdateDecorator@@QAPAV12@AAV?$allocator@PAVCRotationDecorator@NEffectUpdateDecorator@@@0@@Z
_TEXT	SEGMENT
__First$ = 8						; size = 4
__Last$ = 12						; size = 4
__Al$ = 16						; size = 4
??$_Destroy_range@V?$allocator@PAVCRotationDecorator@NEffectUpdateDecorator@@@std@@@std@@YAXPAPAVCRotationDecorator@NEffectUpdateDecorator@@QAPAV12@AAV?$allocator@PAVCRotationDecorator@NEffectUpdateDecorator@@@0@@Z PROC ; std::_Destroy_range<std::allocator<NEffectUpdateDecorator::CRotationDecorator *> >, COMDAT

; 963  :     // note that this is an optimization for debug mode codegen; in release mode the BE removes all of this
; 964  :     using _Ty = typename _Alloc::value_type;
; 965  :     if _CONSTEXPR_IF (!conjunction_v<is_trivially_destructible<_Ty>, _Uses_default_destroy<_Alloc, _Ty*>>) {
; 966  :         for (; _First != _Last; ++_First) {
; 967  :             allocator_traits<_Alloc>::destroy(_Al, _Unfancy(_First));
; 968  :         }
; 969  :     }
; 970  : }

  00000	c2 00 00	 ret	 0
??$_Destroy_range@V?$allocator@PAVCRotationDecorator@NEffectUpdateDecorator@@@std@@@std@@YAXPAPAVCRotationDecorator@NEffectUpdateDecorator@@QAPAV12@AAV?$allocator@PAVCRotationDecorator@NEffectUpdateDecorator@@@0@@Z ENDP ; std::_Destroy_range<std::allocator<NEffectUpdateDecorator::CRotationDecorator *> >
_TEXT	ENDS
; Function compile flags: /Ogtp
; File C:\Program Files (x86)\Microsoft Visual Studio\2019\Community\VC\Tools\MSVC\14.28.29333\include\xmemory
;	COMDAT ??$_Destroy_range@V?$allocator@PAVCGravityDecorator@NEffectUpdateDecorator@@@std@@@std@@YAXPAPAVCGravityDecorator@NEffectUpdateDecorator@@QAPAV12@AAV?$allocator@PAVCGravityDecorator@NEffectUpdateDecorator@@@0@@Z
_TEXT	SEGMENT
__First$ = 8						; size = 4
__Last$ = 12						; size = 4
__Al$ = 16						; size = 4
??$_Destroy_range@V?$allocator@PAVCGravityDecorator@NEffectUpdateDecorator@@@std@@@std@@YAXPAPAVCGravityDecorator@NEffectUpdateDecorator@@QAPAV12@AAV?$allocator@PAVCGravityDecorator@NEffectUpdateDecorator@@@0@@Z PROC ; std::_Destroy_range<std::allocator<NEffectUpdateDecorator::CGravityDecorator *> >, COMDAT

; 963  :     // note that this is an optimization for debug mode codegen; in release mode the BE removes all of this
; 964  :     using _Ty = typename _Alloc::value_type;
; 965  :     if _CONSTEXPR_IF (!conjunction_v<is_trivially_destructible<_Ty>, _Uses_default_destroy<_Alloc, _Ty*>>) {
; 966  :         for (; _First != _Last; ++_First) {
; 967  :             allocator_traits<_Alloc>::destroy(_Al, _Unfancy(_First));
; 968  :         }
; 969  :     }
; 970  : }

  00000	c2 00 00	 ret	 0
??$_Destroy_range@V?$allocator@PAVCGravityDecorator@NEffectUpdateDecorator@@@std@@@std@@YAXPAPAVCGravityDecorator@NEffectUpdateDecorator@@QAPAV12@AAV?$allocator@PAVCGravityDecorator@NEffectUpdateDecorator@@@0@@Z ENDP ; std::_Destroy_range<std::allocator<NEffectUpdateDecorator::CGravityDecorator *> >
_TEXT	ENDS
; Function compile flags: /Ogtp
; File C:\Program Files (x86)\Microsoft Visual Studio\2019\Community\VC\Tools\MSVC\14.28.29333\include\xmemory
;	COMDAT ??$_Destroy_range@V?$allocator@PAVCAirResistanceDecorator@NEffectUpdateDecorator@@@std@@@std@@YAXPAPAVCAirResistanceDecorator@NEffectUpdateDecorator@@QAPAV12@AAV?$allocator@PAVCAirResistanceDecorator@NEffectUpdateDecorator@@@0@@Z
_TEXT	SEGMENT
__First$ = 8						; size = 4
__Last$ = 12						; size = 4
__Al$ = 16						; size = 4
??$_Destroy_range@V?$allocator@PAVCAirResistanceDecorator@NEffectUpdateDecorator@@@std@@@std@@YAXPAPAVCAirResistanceDecorator@NEffectUpdateDecorator@@QAPAV12@AAV?$allocator@PAVCAirResistanceDecorator@NEffectUpdateDecorator@@@0@@Z PROC ; std::_Destroy_range<std::allocator<NEffectUpdateDecorator::CAirResistanceDecorator *> >, COMDAT

; 963  :     // note that this is an optimization for debug mode codegen; in release mode the BE removes all of this
; 964  :     using _Ty = typename _Alloc::value_type;
; 965  :     if _CONSTEXPR_IF (!conjunction_v<is_trivially_destructible<_Ty>, _Uses_default_destroy<_Alloc, _Ty*>>) {
; 966  :         for (; _First != _Last; ++_First) {
; 967  :             allocator_traits<_Alloc>::destroy(_Al, _Unfancy(_First));
; 968  :         }
; 969  :     }
; 970  : }

  00000	c2 00 00	 ret	 0
??$_Destroy_range@V?$allocator@PAVCAirResistanceDecorator@NEffectUpdateDecorator@@@std@@@std@@YAXPAPAVCAirResistanceDecorator@NEffectUpdateDecorator@@QAPAV12@AAV?$allocator@PAVCAirResistanceDecorator@NEffectUpdateDecorator@@@0@@Z ENDP ; std::_Destroy_range<std::allocator<NEffectUpdateDecorator::CAirResistanceDecorator *> >
_TEXT	ENDS
; Function compile flags: /Ogtp
; File C:\Program Files (x86)\Microsoft Visual Studio\2019\Community\VC\Tools\MSVC\14.28.29333\include\xmemory
;	COMDAT ??$_Destroy_range@V?$allocator@PAVCTextureAnimationRandomDecorator@NEffectUpdateDecorator@@@std@@@std@@YAXPAPAVCTextureAnimationRandomDecorator@NEffectUpdateDecorator@@QAPAV12@AAV?$allocator@PAVCTextureAnimationRandomDecorator@NEffectUpdateDecorator@@@0@@Z
_TEXT	SEGMENT
__First$ = 8						; size = 4
__Last$ = 12						; size = 4
__Al$ = 16						; size = 4
??$_Destroy_range@V?$allocator@PAVCTextureAnimationRandomDecorator@NEffectUpdateDecorator@@@std@@@std@@YAXPAPAVCTextureAnimationRandomDecorator@NEffectUpdateDecorator@@QAPAV12@AAV?$allocator@PAVCTextureAnimationRandomDecorator@NEffectUpdateDecorator@@@0@@Z PROC ; std::_Destroy_range<std::allocator<NEffectUpdateDecorator::CTextureAnimationRandomDecorator *> >, COMDAT

; 963  :     // note that this is an optimization for debug mode codegen; in release mode the BE removes all of this
; 964  :     using _Ty = typename _Alloc::value_type;
; 965  :     if _CONSTEXPR_IF (!conjunction_v<is_trivially_destructible<_Ty>, _Uses_default_destroy<_Alloc, _Ty*>>) {
; 966  :         for (; _First != _Last; ++_First) {
; 967  :             allocator_traits<_Alloc>::destroy(_Al, _Unfancy(_First));
; 968  :         }
; 969  :     }
; 970  : }

  00000	c2 00 00	 ret	 0
??$_Destroy_range@V?$allocator@PAVCTextureAnimationRandomDecorator@NEffectUpdateDecorator@@@std@@@std@@YAXPAPAVCTextureAnimationRandomDecorator@NEffectUpdateDecorator@@QAPAV12@AAV?$allocator@PAVCTextureAnimationRandomDecorator@NEffectUpdateDecorator@@@0@@Z ENDP ; std::_Destroy_range<std::allocator<NEffectUpdateDecorator::CTextureAnimationRandomDecorator *> >
_TEXT	ENDS
; Function compile flags: /Ogtp
; File C:\Program Files (x86)\Microsoft Visual Studio\2019\Community\VC\Tools\MSVC\14.28.29333\include\xmemory
;	COMDAT ??$_Destroy_range@V?$allocator@PAVCTextureAnimationCCWDecorator@NEffectUpdateDecorator@@@std@@@std@@YAXPAPAVCTextureAnimationCCWDecorator@NEffectUpdateDecorator@@QAPAV12@AAV?$allocator@PAVCTextureAnimationCCWDecorator@NEffectUpdateDecorator@@@0@@Z
_TEXT	SEGMENT
__First$ = 8						; size = 4
__Last$ = 12						; size = 4
__Al$ = 16						; size = 4
??$_Destroy_range@V?$allocator@PAVCTextureAnimationCCWDecorator@NEffectUpdateDecorator@@@std@@@std@@YAXPAPAVCTextureAnimationCCWDecorator@NEffectUpdateDecorator@@QAPAV12@AAV?$allocator@PAVCTextureAnimationCCWDecorator@NEffectUpdateDecorator@@@0@@Z PROC ; std::_Destroy_range<std::allocator<NEffectUpdateDecorator::CTextureAnimationCCWDecorator *> >, COMDAT

; 963  :     // note that this is an optimization for debug mode codegen; in release mode the BE removes all of this
; 964  :     using _Ty = typename _Alloc::value_type;
; 965  :     if _CONSTEXPR_IF (!conjunction_v<is_trivially_destructible<_Ty>, _Uses_default_destroy<_Alloc, _Ty*>>) {
; 966  :         for (; _First != _Last; ++_First) {
; 967  :             allocator_traits<_Alloc>::destroy(_Al, _Unfancy(_First));
; 968  :         }
; 969  :     }
; 970  : }

  00000	c2 00 00	 ret	 0
??$_Destroy_range@V?$allocator@PAVCTextureAnimationCCWDecorator@NEffectUpdateDecorator@@@std@@@std@@YAXPAPAVCTextureAnimationCCWDecorator@NEffectUpdateDecorator@@QAPAV12@AAV?$allocator@PAVCTextureAnimationCCWDecorator@NEffectUpdateDecorator@@@0@@Z ENDP ; std::_Destroy_range<std::allocator<NEffectUpdateDecorator::CTextureAnimationCCWDecorator *> >
_TEXT	ENDS
; Function compile flags: /Ogtp
; File C:\Program Files (x86)\Microsoft Visual Studio\2019\Community\VC\Tools\MSVC\14.28.29333\include\xmemory
;	COMDAT ??$_Destroy_range@V?$allocator@PAVCTextureAnimationCWDecorator@NEffectUpdateDecorator@@@std@@@std@@YAXPAPAVCTextureAnimationCWDecorator@NEffectUpdateDecorator@@QAPAV12@AAV?$allocator@PAVCTextureAnimationCWDecorator@NEffectUpdateDecorator@@@0@@Z
_TEXT	SEGMENT
__First$ = 8						; size = 4
__Last$ = 12						; size = 4
__Al$ = 16						; size = 4
??$_Destroy_range@V?$allocator@PAVCTextureAnimationCWDecorator@NEffectUpdateDecorator@@@std@@@std@@YAXPAPAVCTextureAnimationCWDecorator@NEffectUpdateDecorator@@QAPAV12@AAV?$allocator@PAVCTextureAnimationCWDecorator@NEffectUpdateDecorator@@@0@@Z PROC ; std::_Destroy_range<std::allocator<NEffectUpdateDecorator::CTextureAnimationCWDecorator *> >, COMDAT

; 963  :     // note that this is an optimization for debug mode codegen; in release mode the BE removes all of this
; 964  :     using _Ty = typename _Alloc::value_type;
; 965  :     if _CONSTEXPR_IF (!conjunction_v<is_trivially_destructible<_Ty>, _Uses_default_destroy<_Alloc, _Ty*>>) {
; 966  :         for (; _First != _Last; ++_First) {
; 967  :             allocator_traits<_Alloc>::destroy(_Al, _Unfancy(_First));
; 968  :         }
; 969  :     }
; 970  : }

  00000	c2 00 00	 ret	 0
??$_Destroy_range@V?$allocator@PAVCTextureAnimationCWDecorator@NEffectUpdateDecorator@@@std@@@std@@YAXPAPAVCTextureAnimationCWDecorator@NEffectUpdateDecorator@@QAPAV12@AAV?$allocator@PAVCTextureAnimationCWDecorator@NEffectUpdateDecorator@@@0@@Z ENDP ; std::_Destroy_range<std::allocator<NEffectUpdateDecorator::CTextureAnimationCWDecorator *> >
_TEXT	ENDS
; Function compile flags: /Ogtp
; File C:\Program Files (x86)\Microsoft Visual Studio\2019\Community\VC\Tools\MSVC\14.28.29333\include\xmemory
;	COMDAT ??$_Destroy_range@V?$allocator@PAVCNullDecorator@NEffectUpdateDecorator@@@std@@@std@@YAXPAPAVCNullDecorator@NEffectUpdateDecorator@@QAPAV12@AAV?$allocator@PAVCNullDecorator@NEffectUpdateDecorator@@@0@@Z
_TEXT	SEGMENT
__First$ = 8						; size = 4
__Last$ = 12						; size = 4
__Al$ = 16						; size = 4
??$_Destroy_range@V?$allocator@PAVCNullDecorator@NEffectUpdateDecorator@@@std@@@std@@YAXPAPAVCNullDecorator@NEffectUpdateDecorator@@QAPAV12@AAV?$allocator@PAVCNullDecorator@NEffectUpdateDecorator@@@0@@Z PROC ; std::_Destroy_range<std::allocator<NEffectUpdateDecorator::CNullDecorator *> >, COMDAT

; 963  :     // note that this is an optimization for debug mode codegen; in release mode the BE removes all of this
; 964  :     using _Ty = typename _Alloc::value_type;
; 965  :     if _CONSTEXPR_IF (!conjunction_v<is_trivially_destructible<_Ty>, _Uses_default_destroy<_Alloc, _Ty*>>) {
; 966  :         for (; _First != _Last; ++_First) {
; 967  :             allocator_traits<_Alloc>::destroy(_Al, _Unfancy(_First));
; 968  :         }
; 969  :     }
; 970  : }

  00000	c2 00 00	 ret	 0
??$_Destroy_range@V?$allocator@PAVCNullDecorator@NEffectUpdateDecorator@@@std@@@std@@YAXPAPAVCNullDecorator@NEffectUpdateDecorator@@QAPAV12@AAV?$allocator@PAVCNullDecorator@NEffectUpdateDecorator@@@0@@Z ENDP ; std::_Destroy_range<std::allocator<NEffectUpdateDecorator::CNullDecorator *> >
_TEXT	ENDS
; Function compile flags: /Ogtp
; File C:\Program Files (x86)\Microsoft Visual Studio\2019\Community\VC\Tools\MSVC\14.28.29333\include\xmemory
;	COMDAT ??$_Destroy_range@V?$allocator@PAVCHeaderDecorator@NEffectUpdateDecorator@@@std@@@std@@YAXPAPAVCHeaderDecorator@NEffectUpdateDecorator@@QAPAV12@AAV?$allocator@PAVCHeaderDecorator@NEffectUpdateDecorator@@@0@@Z
_TEXT	SEGMENT
__First$ = 8						; size = 4
__Last$ = 12						; size = 4
__Al$ = 16						; size = 4
??$_Destroy_range@V?$allocator@PAVCHeaderDecorator@NEffectUpdateDecorator@@@std@@@std@@YAXPAPAVCHeaderDecorator@NEffectUpdateDecorator@@QAPAV12@AAV?$allocator@PAVCHeaderDecorator@NEffectUpdateDecorator@@@0@@Z PROC ; std::_Destroy_range<std::allocator<NEffectUpdateDecorator::CHeaderDecorator *> >, COMDAT

; 963  :     // note that this is an optimization for debug mode codegen; in release mode the BE removes all of this
; 964  :     using _Ty = typename _Alloc::value_type;
; 965  :     if _CONSTEXPR_IF (!conjunction_v<is_trivially_destructible<_Ty>, _Uses_default_destroy<_Alloc, _Ty*>>) {
; 966  :         for (; _First != _Last; ++_First) {
; 967  :             allocator_traits<_Alloc>::destroy(_Al, _Unfancy(_First));
; 968  :         }
; 969  :     }
; 970  : }

  00000	c2 00 00	 ret	 0
??$_Destroy_range@V?$allocator@PAVCHeaderDecorator@NEffectUpdateDecorator@@@std@@@std@@YAXPAPAVCHeaderDecorator@NEffectUpdateDecorator@@QAPAV12@AAV?$allocator@PAVCHeaderDecorator@NEffectUpdateDecorator@@@0@@Z ENDP ; std::_Destroy_range<std::allocator<NEffectUpdateDecorator::CHeaderDecorator *> >
_TEXT	ENDS
; Function compile flags: /Ogtp
; File C:\Program Files (x86)\Microsoft Visual Studio\2019\Community\VC\Tools\MSVC\14.28.29333\include\xmemory
;	COMDAT ??$_Destroy_range@V?$allocator@PAUSTextTail@CPythonTextTail@@@std@@@std@@YAXPAPAUSTextTail@CPythonTextTail@@QAPAU12@AAV?$allocator@PAUSTextTail@CPythonTextTail@@@0@@Z
_TEXT	SEGMENT
__First$ = 8						; size = 4
__Last$ = 12						; size = 4
__Al$ = 16						; size = 4
??$_Destroy_range@V?$allocator@PAUSTextTail@CPythonTextTail@@@std@@@std@@YAXPAPAUSTextTail@CPythonTextTail@@QAPAU12@AAV?$allocator@PAUSTextTail@CPythonTextTail@@@0@@Z PROC ; std::_Destroy_range<std::allocator<CPythonTextTail::STextTail *> >, COMDAT

; 963  :     // note that this is an optimization for debug mode codegen; in release mode the BE removes all of this
; 964  :     using _Ty = typename _Alloc::value_type;
; 965  :     if _CONSTEXPR_IF (!conjunction_v<is_trivially_destructible<_Ty>, _Uses_default_destroy<_Alloc, _Ty*>>) {
; 966  :         for (; _First != _Last; ++_First) {
; 967  :             allocator_traits<_Alloc>::destroy(_Al, _Unfancy(_First));
; 968  :         }
; 969  :     }
; 970  : }

  00000	c2 00 00	 ret	 0
??$_Destroy_range@V?$allocator@PAUSTextTail@CPythonTextTail@@@std@@@std@@YAXPAPAUSTextTail@CPythonTextTail@@QAPAU12@AAV?$allocator@PAUSTextTail@CPythonTextTail@@@0@@Z ENDP ; std::_Destroy_range<std::allocator<CPythonTextTail::STextTail *> >
_TEXT	ENDS
; Function compile flags: /Ogtp
; File C:\Program Files (x86)\Microsoft Visual Studio\2019\Community\VC\Tools\MSVC\14.28.29333\include\xmemory
;	COMDAT ??$_Construct_in_place@PAU?$_List_node@PAUSTextTail@CPythonTextTail@@PAX@std@@AAPAU12@@std@@YAXAAPAU?$_List_node@PAUSTextTail@CPythonTextTail@@PAX@0@0@Z
_TEXT	SEGMENT
__Obj$ = 8						; size = 4
_<_Args_0>$ = 12					; size = 4
??$_Construct_in_place@PAU?$_List_node@PAUSTextTail@CPythonTextTail@@PAX@std@@AAPAU12@@std@@YAXAAPAU?$_List_node@PAUSTextTail@CPythonTextTail@@PAX@0@0@Z PROC ; std::_Construct_in_place<std::_List_node<CPythonTextTail::STextTail *,void *> *,std::_List_node<CPythonTextTail::STextTail *,void *> * &>, COMDAT

; 228  : void _Construct_in_place(_Ty& _Obj, _Types&&... _Args) noexcept(is_nothrow_constructible_v<_Ty, _Types...>) {

  00000	55		 push	 ebp
  00001	8b ec		 mov	 ebp, esp

; 229  :     ::new (const_cast<void*>(static_cast<const volatile void*>(_STD addressof(_Obj))))

  00003	8b 45 0c	 mov	 eax, DWORD PTR _<_Args_0>$[ebp]
  00006	8b 08		 mov	 ecx, DWORD PTR [eax]
  00008	8b 45 08	 mov	 eax, DWORD PTR __Obj$[ebp]
  0000b	89 08		 mov	 DWORD PTR [eax], ecx

; 230  :         _Ty(_STD forward<_Types>(_Args)...);
; 231  : }

  0000d	5d		 pop	 ebp
  0000e	c3		 ret	 0
??$_Construct_in_place@PAU?$_List_node@PAUSTextTail@CPythonTextTail@@PAX@std@@AAPAU12@@std@@YAXAAPAU?$_List_node@PAUSTextTail@CPythonTextTail@@PAX@0@0@Z ENDP ; std::_Construct_in_place<std::_List_node<CPythonTextTail::STextTail *,void *> *,std::_List_node<CPythonTextTail::STextTail *,void *> * &>
_TEXT	ENDS
; Function compile flags: /Ogtp
; File C:\Program Files (x86)\Microsoft Visual Studio\2019\Community\VC\Tools\MSVC\14.28.29333\include\vector
; File C:\Program Files (x86)\Microsoft Visual Studio\2019\Community\VC\Tools\MSVC\14.28.29333\include\xmemory
; File C:\Program Files (x86)\Microsoft Visual Studio\2019\Community\VC\Tools\MSVC\14.28.29333\include\vector
; File C:\Program Files (x86)\Microsoft Visual Studio\2019\Community\VC\Tools\MSVC\14.28.29333\include\xmemory
; File C:\Program Files (x86)\Microsoft Visual Studio\2019\Community\VC\Tools\MSVC\14.28.29333\include\vector
; File C:\Program Files (x86)\Microsoft Visual Studio\2019\Community\VC\Tools\MSVC\14.28.29333\include\xmemory
; File C:\Program Files (x86)\Microsoft Visual Studio\2019\Community\VC\Tools\MSVC\14.28.29333\include\vector
; File C:\Program Files (x86)\Microsoft Visual Studio\2019\Community\VC\Tools\MSVC\14.28.29333\include\xmemory
; File C:\Program Files (x86)\Microsoft Visual Studio\2019\Community\VC\Tools\MSVC\14.28.29333\include\vector
; File C:\Program Files (x86)\Microsoft Visual Studio\2019\Community\VC\Tools\MSVC\14.28.29333\include\xmemory
; File C:\Program Files (x86)\Microsoft Visual Studio\2019\Community\VC\Tools\MSVC\14.28.29333\include\vector
; File C:\Program Files (x86)\Microsoft Visual Studio\2019\Community\VC\Tools\MSVC\14.28.29333\include\xmemory
; File C:\Program Files (x86)\Microsoft Visual Studio\2019\Community\VC\Tools\MSVC\14.28.29333\include\vector
;	COMDAT ??$_Emplace_reallocate@ABQAUSTextTail@CPythonTextTail@@@?$vector@PAUSTextTail@CPythonTextTail@@V?$allocator@PAUSTextTail@CPythonTextTail@@@std@@@std@@QAEPAPAUSTextTail@CPythonTextTail@@QAPAU23@ABQAU23@@Z
_TEXT	SEGMENT
tv435 = -12						; size = 4
__Newsize$1$ = -8					; size = 4
tv434 = -4						; size = 4
__Whereptr$ = 8						; size = 4
_<_Val_0>$ = 12						; size = 4
??$_Emplace_reallocate@ABQAUSTextTail@CPythonTextTail@@@?$vector@PAUSTextTail@CPythonTextTail@@V?$allocator@PAUSTextTail@CPythonTextTail@@@std@@@std@@QAEPAPAUSTextTail@CPythonTextTail@@QAPAU23@ABQAU23@@Z PROC ; std::vector<CPythonTextTail::STextTail *,std::allocator<CPythonTextTail::STextTail *> >::_Emplace_reallocate<CPythonTextTail::STextTail * const &>, COMDAT
; _this$ = ecx

; 725  :     pointer _Emplace_reallocate(const pointer _Whereptr, _Valty&&... _Val) {

  00000	55		 push	 ebp
  00001	8b ec		 mov	 ebp, esp
  00003	83 ec 0c	 sub	 esp, 12			; 0000000cH
  00006	53		 push	 ebx

; 726  :         // reallocate and insert by perfectly forwarding _Val at _Whereptr
; 727  :         _Alty& _Al        = _Getal();
; 728  :         auto& _My_data    = _Mypair._Myval2;
; 729  :         pointer& _Myfirst = _My_data._Myfirst;
; 730  :         pointer& _Mylast  = _My_data._Mylast;
; 731  : 
; 732  :         _STL_INTERNAL_CHECK(_Mylast == _My_data._Myend); // check that we have no unused capacity
; 733  : 
; 734  :         const auto _Whereoff = static_cast<size_type>(_Whereptr - _Myfirst);

  00007	8b 5d 08	 mov	 ebx, DWORD PTR __Whereptr$[ebp]
  0000a	56		 push	 esi
  0000b	8b f1		 mov	 esi, ecx
  0000d	57		 push	 edi
  0000e	8b 16		 mov	 edx, DWORD PTR [esi]
  00010	2b da		 sub	 ebx, edx

; 735  :         const auto _Oldsize  = static_cast<size_type>(_Mylast - _Myfirst);

  00012	8b 46 04	 mov	 eax, DWORD PTR [esi+4]
  00015	2b c2		 sub	 eax, edx
  00017	c1 fb 02	 sar	 ebx, 2
  0001a	c1 f8 02	 sar	 eax, 2

; 736  : 
; 737  :         if (_Oldsize == max_size()) {

  0001d	3d ff ff ff 3f	 cmp	 eax, 1073741823		; 3fffffffH
  00022	0f 84 c4 00 00
	00		 je	 $LN39@Emplace_re

; 1494 :         return static_cast<size_type>(_My_data._Myend - _My_data._Myfirst);

  00028	8b 4e 08	 mov	 ecx, DWORD PTR [esi+8]

; 739  :         }
; 740  : 
; 741  :         const size_type _Newsize     = _Oldsize + 1;

  0002b	8d 78 01	 lea	 edi, DWORD PTR [eax+1]

; 1494 :         return static_cast<size_type>(_My_data._Myend - _My_data._Myfirst);

  0002e	2b ca		 sub	 ecx, edx

; 739  :         }
; 740  : 
; 741  :         const size_type _Newsize     = _Oldsize + 1;

  00030	89 7d f8	 mov	 DWORD PTR __Newsize$1$[ebp], edi

; 1494 :         return static_cast<size_type>(_My_data._Myend - _My_data._Myfirst);

  00033	c1 f9 02	 sar	 ecx, 2

; 1620 :         if (_Oldcapacity > _Max - _Oldcapacity / 2) {

  00036	b8 ff ff ff 3f	 mov	 eax, 1073741823		; 3fffffffH
  0003b	8b d1		 mov	 edx, ecx
  0003d	d1 ea		 shr	 edx, 1
  0003f	2b c2		 sub	 eax, edx
  00041	3b c8		 cmp	 ecx, eax
  00043	76 3a		 jbe	 SHORT $LN12@Emplace_re

; 1621 :             return _Max; // geometric growth would overflow

  00045	b9 ff ff ff 3f	 mov	 ecx, 1073741823		; 3fffffffH
$LN20@Emplace_re:
; File C:\Program Files (x86)\Microsoft Visual Studio\2019\Community\VC\Tools\MSVC\14.28.29333\include\xmemory

; 65   :     return _Count * _Ty_size;

  0004a	8d 04 8d 00 00
	00 00		 lea	 eax, DWORD PTR [ecx*4]

; 814  :         return static_cast<_Ty*>(_Allocate<_New_alignof<_Ty>>(_Get_size_of_n<sizeof(_Ty)>(_Count)));

  00051	50		 push	 eax

; 65   :     return _Count * _Ty_size;

  00052	89 45 f4	 mov	 DWORD PTR tv435[ebp], eax

; 814  :         return static_cast<_Ty*>(_Allocate<_New_alignof<_Ty>>(_Get_size_of_n<sizeof(_Ty)>(_Count)));

  00055	e8 00 00 00 00	 call	 ??$_Allocate@$07U_Default_allocate_traits@std@@$0A@@std@@YAPAXI@Z ; std::_Allocate<8,std::_Default_allocate_traits,0>
; File C:\Program Files (x86)\Microsoft Visual Studio\2019\Community\VC\Tools\MSVC\14.28.29333\include\vector

; 749  :         _Alty_traits::construct(_Al, _Unfancy(_Newvec + _Whereoff), _STD forward<_Valty>(_Val)...);

  0005a	8b 4d 0c	 mov	 ecx, DWORD PTR _<_Val_0>$[ebp]
; File C:\Program Files (x86)\Microsoft Visual Studio\2019\Community\VC\Tools\MSVC\14.28.29333\include\xmemory

; 814  :         return static_cast<_Ty*>(_Allocate<_New_alignof<_Ty>>(_Get_size_of_n<sizeof(_Ty)>(_Count)));

  0005d	8b f8		 mov	 edi, eax
; File C:\Program Files (x86)\Microsoft Visual Studio\2019\Community\VC\Tools\MSVC\14.28.29333\include\vector

; 749  :         _Alty_traits::construct(_Al, _Unfancy(_Newvec + _Whereoff), _STD forward<_Valty>(_Val)...);

  0005f	8d 04 9f	 lea	 eax, DWORD PTR [edi+ebx*4]
; File C:\Program Files (x86)\Microsoft Visual Studio\2019\Community\VC\Tools\MSVC\14.28.29333\include\xmemory

; 814  :         return static_cast<_Ty*>(_Allocate<_New_alignof<_Ty>>(_Get_size_of_n<sizeof(_Ty)>(_Count)));

  00062	83 c4 04	 add	 esp, 4
; File C:\Program Files (x86)\Microsoft Visual Studio\2019\Community\VC\Tools\MSVC\14.28.29333\include\vector

; 752  :         if (_Whereptr == _Mylast) { // at back, provide strong guarantee

  00065	8b 5d 08	 mov	 ebx, DWORD PTR __Whereptr$[ebp]
  00068	89 45 fc	 mov	 DWORD PTR tv434[ebp], eax
  0006b	8b 09		 mov	 ecx, DWORD PTR [ecx]
  0006d	89 08		 mov	 DWORD PTR [eax], ecx
  0006f	8b 56 04	 mov	 edx, DWORD PTR [esi+4]
  00072	8b 0e		 mov	 ecx, DWORD PTR [esi]
  00074	3b da		 cmp	 ebx, edx
  00076	75 1b		 jne	 SHORT $LN4@Emplace_re

; 753  :             _Umove_if_noexcept(_Myfirst, _Mylast, _Newvec);
; 754  :         } else { // provide basic guarantee

  00078	8b 5d fc	 mov	 ebx, DWORD PTR tv434[ebp]

; 1597 :         _Uninitialized_move(_First, _Last, _Dest, _Getal());

  0007b	8b c7		 mov	 eax, edi

; 753  :             _Umove_if_noexcept(_Myfirst, _Mylast, _Newvec);
; 754  :         } else { // provide basic guarantee

  0007d	eb 2b		 jmp	 SHORT $LN5@Emplace_re
$LN12@Emplace_re:

; 1624 :         const size_type _Geometric = _Oldcapacity + _Oldcapacity / 2;

  0007f	8d 04 0a	 lea	 eax, DWORD PTR [edx+ecx]
; File C:\Program Files (x86)\Microsoft Visual Studio\2019\Community\VC\Tools\MSVC\14.28.29333\include\xmemory

; 60   :         if (_Count > _Max_possible) {

  00082	8b cf		 mov	 ecx, edi
  00084	3b c7		 cmp	 eax, edi
  00086	0f 43 c8	 cmovae	 ecx, eax
  00089	81 f9 ff ff ff
	3f		 cmp	 ecx, 1073741823		; 3fffffffH
  0008f	77 60		 ja	 SHORT $LN40@Emplace_re
  00091	eb b7		 jmp	 SHORT $LN20@Emplace_re
$LN4@Emplace_re:
; File C:\Program Files (x86)\Microsoft Visual Studio\2019\Community\VC\Tools\MSVC\14.28.29333\include\vector

; 1592 :         return _Uninitialized_move(_First, _Last, _Dest, _Getal());

  00093	56		 push	 esi
  00094	57		 push	 edi
  00095	53		 push	 ebx
  00096	51		 push	 ecx
  00097	e8 00 00 00 00	 call	 ??$_Uninitialized_move@PAPAUSTextTail@CPythonTextTail@@V?$allocator@PAUSTextTail@CPythonTextTail@@@std@@@std@@YAPAPAUSTextTail@CPythonTextTail@@QAPAU12@0PAPAU12@AAV?$allocator@PAUSTextTail@CPythonTextTail@@@0@@Z ; std::_Uninitialized_move<CPythonTextTail::STextTail * *,std::allocator<CPythonTextTail::STextTail *> >
  0009c	8b 56 04	 mov	 edx, DWORD PTR [esi+4]
  0009f	8b cb		 mov	 ecx, ebx

; 755  :             _Umove(_Myfirst, _Whereptr, _Newvec);
; 756  :             _Constructed_first = _Newvec;
; 757  :             _Umove(_Whereptr, _Mylast, _Newvec + _Whereoff + 1);

  000a1	8b 5d fc	 mov	 ebx, DWORD PTR tv434[ebp]

; 1592 :         return _Uninitialized_move(_First, _Last, _Dest, _Getal());

  000a4	83 c4 10	 add	 esp, 16			; 00000010H

; 755  :             _Umove(_Myfirst, _Whereptr, _Newvec);
; 756  :             _Constructed_first = _Newvec;
; 757  :             _Umove(_Whereptr, _Mylast, _Newvec + _Whereoff + 1);

  000a7	8d 43 04	 lea	 eax, DWORD PTR [ebx+4]
$LN5@Emplace_re:
  000aa	56		 push	 esi
  000ab	50		 push	 eax
  000ac	52		 push	 edx
  000ad	51		 push	 ecx
  000ae	e8 00 00 00 00	 call	 ??$_Uninitialized_move@PAPAUSTextTail@CPythonTextTail@@V?$allocator@PAUSTextTail@CPythonTextTail@@@std@@@std@@YAPAPAUSTextTail@CPythonTextTail@@QAPAU12@0PAPAU12@AAV?$allocator@PAUSTextTail@CPythonTextTail@@@0@@Z ; std::_Uninitialized_move<CPythonTextTail::STextTail * *,std::allocator<CPythonTextTail::STextTail *> >

; 1676 :         if (_Myfirst) { // destroy and deallocate old array

  000b3	8b 0e		 mov	 ecx, DWORD PTR [esi]

; 755  :             _Umove(_Myfirst, _Whereptr, _Newvec);
; 756  :             _Constructed_first = _Newvec;
; 757  :             _Umove(_Whereptr, _Mylast, _Newvec + _Whereoff + 1);

  000b5	83 c4 10	 add	 esp, 16			; 00000010H

; 1676 :         if (_Myfirst) { // destroy and deallocate old array

  000b8	85 c9		 test	 ecx, ecx
  000ba	74 12		 je	 SHORT $LN33@Emplace_re

; 1677 :             _Destroy(_Myfirst, _Mylast);
; 1678 :             _Getal().deallocate(_Myfirst, static_cast<size_type>(_Myend - _Myfirst));

  000bc	8b 46 08	 mov	 eax, DWORD PTR [esi+8]
  000bf	2b c1		 sub	 eax, ecx
; File C:\Program Files (x86)\Microsoft Visual Studio\2019\Community\VC\Tools\MSVC\14.28.29333\include\xmemory

; 810  :         _Deallocate<_New_alignof<_Ty>>(_Ptr, sizeof(_Ty) * _Count);

  000c1	83 e0 fc	 and	 eax, -4			; fffffffcH
  000c4	50		 push	 eax
  000c5	51		 push	 ecx
  000c6	e8 00 00 00 00	 call	 ??$_Deallocate@$07$0A@@std@@YAXPAXI@Z ; std::_Deallocate<8,0>
  000cb	83 c4 08	 add	 esp, 8
$LN33@Emplace_re:
; File C:\Program Files (x86)\Microsoft Visual Studio\2019\Community\VC\Tools\MSVC\14.28.29333\include\vector

; 1682 :         _Mylast  = _Newvec + _Newsize;

  000ce	8b 45 f8	 mov	 eax, DWORD PTR __Newsize$1$[ebp]
  000d1	89 3e		 mov	 DWORD PTR [esi], edi
  000d3	8d 0c 87	 lea	 ecx, DWORD PTR [edi+eax*4]

; 758  :         }
; 759  :         _CATCH_ALL
; 760  :         _Destroy(_Constructed_first, _Constructed_last);
; 761  :         _Al.deallocate(_Newvec, _Newcapacity);
; 762  :         _RERAISE;
; 763  :         _CATCH_END
; 764  : 
; 765  :         _Change_array(_Newvec, _Newsize, _Newcapacity);
; 766  :         return _Newvec + _Whereoff;

  000d6	8b c3		 mov	 eax, ebx

; 1682 :         _Mylast  = _Newvec + _Newsize;

  000d8	89 4e 04	 mov	 DWORD PTR [esi+4], ecx

; 1683 :         _Myend   = _Newvec + _Newcapacity;

  000db	8b 4d f4	 mov	 ecx, DWORD PTR tv435[ebp]
  000de	03 cf		 add	 ecx, edi

; 758  :         }
; 759  :         _CATCH_ALL
; 760  :         _Destroy(_Constructed_first, _Constructed_last);
; 761  :         _Al.deallocate(_Newvec, _Newcapacity);
; 762  :         _RERAISE;
; 763  :         _CATCH_END
; 764  : 
; 765  :         _Change_array(_Newvec, _Newsize, _Newcapacity);
; 766  :         return _Newvec + _Whereoff;

  000e0	5f		 pop	 edi

; 1683 :         _Myend   = _Newvec + _Newcapacity;

  000e1	89 4e 08	 mov	 DWORD PTR [esi+8], ecx

; 758  :         }
; 759  :         _CATCH_ALL
; 760  :         _Destroy(_Constructed_first, _Constructed_last);
; 761  :         _Al.deallocate(_Newvec, _Newcapacity);
; 762  :         _RERAISE;
; 763  :         _CATCH_END
; 764  : 
; 765  :         _Change_array(_Newvec, _Newsize, _Newcapacity);
; 766  :         return _Newvec + _Whereoff;

  000e4	5e		 pop	 esi
  000e5	5b		 pop	 ebx

; 767  :     }

  000e6	8b e5		 mov	 esp, ebp
  000e8	5d		 pop	 ebp
  000e9	c2 08 00	 ret	 8
$LN39@Emplace_re:

; 738  :             _Xlength();

  000ec	e8 00 00 00 00	 call	 ?_Xlength@?$vector@PAUSTextTail@CPythonTextTail@@V?$allocator@PAUSTextTail@CPythonTextTail@@@std@@@std@@CAXXZ ; std::vector<CPythonTextTail::STextTail *,std::allocator<CPythonTextTail::STextTail *> >::_Xlength
$LN40@Emplace_re:
; File C:\Program Files (x86)\Microsoft Visual Studio\2019\Community\VC\Tools\MSVC\14.28.29333\include\xmemory

; 61   :             _Throw_bad_array_new_length(); // multiply overflow

  000f1	e8 00 00 00 00	 call	 ?_Throw_bad_array_new_length@std@@YAXXZ ; std::_Throw_bad_array_new_length
$LN37@Emplace_re:
  000f6	cc		 int	 3
??$_Emplace_reallocate@ABQAUSTextTail@CPythonTextTail@@@?$vector@PAUSTextTail@CPythonTextTail@@V?$allocator@PAUSTextTail@CPythonTextTail@@@std@@@std@@QAEPAPAUSTextTail@CPythonTextTail@@QAPAU23@ABQAU23@@Z ENDP ; std::vector<CPythonTextTail::STextTail *,std::allocator<CPythonTextTail::STextTail *> >::_Emplace_reallocate<CPythonTextTail::STextTail * const &>
_TEXT	ENDS
; Function compile flags: /Ogtp
;	COMDAT ??_G?$CDynamicPoolEx@VCHeaderDecorator@NEffectUpdateDecorator@@@@UAEPAXI@Z
_TEXT	SEGMENT
___flags$ = 8						; size = 4
??_G?$CDynamicPoolEx@VCHeaderDecorator@NEffectUpdateDecorator@@@@UAEPAXI@Z PROC ; CDynamicPoolEx<NEffectUpdateDecorator::CHeaderDecorator>::`scalar deleting destructor', COMDAT
; _this$ = ecx
  00000	55		 push	 ebp
  00001	8b ec		 mov	 ebp, esp
  00003	56		 push	 esi
  00004	8b f1		 mov	 esi, ecx
  00006	e8 00 00 00 00	 call	 ??1?$CDynamicPoolEx@VCHeaderDecorator@NEffectUpdateDecorator@@@@UAE@XZ ; CDynamicPoolEx<NEffectUpdateDecorator::CHeaderDecorator>::~CDynamicPoolEx<NEffectUpdateDecorator::CHeaderDecorator>
  0000b	f6 45 08 01	 test	 BYTE PTR ___flags$[ebp], 1
  0000f	74 0b		 je	 SHORT $LN4@scalar
  00011	6a 24		 push	 36			; 00000024H
  00013	56		 push	 esi
  00014	e8 00 00 00 00	 call	 ??3@YAXPAXI@Z		; operator delete
  00019	83 c4 08	 add	 esp, 8
$LN4@scalar:
  0001c	8b c6		 mov	 eax, esi
  0001e	5e		 pop	 esi
  0001f	5d		 pop	 ebp
  00020	c2 04 00	 ret	 4
??_G?$CDynamicPoolEx@VCHeaderDecorator@NEffectUpdateDecorator@@@@UAEPAXI@Z ENDP ; CDynamicPoolEx<NEffectUpdateDecorator::CHeaderDecorator>::`scalar deleting destructor'
_TEXT	ENDS
; Function compile flags: /Ogtp
; File D:\Metin2 Server Files\mainline\SRC_2014\Metin2Client\eterLib\Pool.h
;	COMDAT ?Delete@?$CDynamicPoolEx@VCHeaderDecorator@NEffectUpdateDecorator@@@@KAXPAVCHeaderDecorator@NEffectUpdateDecorator@@@Z
_TEXT	SEGMENT
_pkData$ = 8						; size = 4
?Delete@?$CDynamicPoolEx@VCHeaderDecorator@NEffectUpdateDecorator@@@@KAXPAVCHeaderDecorator@NEffectUpdateDecorator@@@Z PROC ; CDynamicPoolEx<NEffectUpdateDecorator::CHeaderDecorator>::Delete, COMDAT

; 224  : 			::operator delete(pkData);

  00000	e9 00 00 00 00	 jmp	 ??3@YAXPAX@Z		; operator delete
?Delete@?$CDynamicPoolEx@VCHeaderDecorator@NEffectUpdateDecorator@@@@KAXPAVCHeaderDecorator@NEffectUpdateDecorator@@@Z ENDP ; CDynamicPoolEx<NEffectUpdateDecorator::CHeaderDecorator>::Delete
_TEXT	ENDS
; Function compile flags: /Ogtp
; File D:\Metin2 Server Files\mainline\SRC_2014\Metin2Client\eterLib\Pool.h
; File C:\Program Files (x86)\Microsoft Visual Studio\2019\Community\VC\Tools\MSVC\14.28.29333\include\vector
; File C:\Program Files (x86)\Microsoft Visual Studio\2019\Community\VC\Tools\MSVC\14.28.29333\include\algorithm
; File D:\Metin2 Server Files\mainline\SRC_2014\Metin2Client\eterLib\Pool.h
; File C:\Program Files (x86)\Microsoft Visual Studio\2019\Community\VC\Tools\MSVC\14.28.29333\include\algorithm
; File D:\Metin2 Server Files\mainline\SRC_2014\Metin2Client\eterLib\Pool.h
; File C:\Program Files (x86)\Microsoft Visual Studio\2019\Community\VC\Tools\MSVC\14.28.29333\include\algorithm
; File D:\Metin2 Server Files\mainline\SRC_2014\Metin2Client\eterLib\Pool.h
; File C:\Program Files (x86)\Microsoft Visual Studio\2019\Community\VC\Tools\MSVC\14.28.29333\include\vector
; File C:\Program Files (x86)\Microsoft Visual Studio\2019\Community\VC\Tools\MSVC\14.28.29333\include\xmemory
; File C:\Program Files (x86)\Microsoft Visual Studio\2019\Community\VC\Tools\MSVC\14.28.29333\include\vector
; File C:\Program Files (x86)\Microsoft Visual Studio\2019\Community\VC\Tools\MSVC\14.28.29333\include\xmemory
; File C:\Program Files (x86)\Microsoft Visual Studio\2019\Community\VC\Tools\MSVC\14.28.29333\include\vector
; File C:\Program Files (x86)\Microsoft Visual Studio\2019\Community\VC\Tools\MSVC\14.28.29333\include\xmemory
; File C:\Program Files (x86)\Microsoft Visual Studio\2019\Community\VC\Tools\MSVC\14.28.29333\include\vector
; File C:\Program Files (x86)\Microsoft Visual Studio\2019\Community\VC\Tools\MSVC\14.28.29333\include\xmemory
; File C:\Program Files (x86)\Microsoft Visual Studio\2019\Community\VC\Tools\MSVC\14.28.29333\include\vector
; File D:\Metin2 Server Files\mainline\SRC_2014\Metin2Client\eterLib\Pool.h
;	COMDAT ??1?$CDynamicPoolEx@VCHeaderDecorator@NEffectUpdateDecorator@@@@UAE@XZ
_TEXT	SEGMENT
??1?$CDynamicPoolEx@VCHeaderDecorator@NEffectUpdateDecorator@@@@UAE@XZ PROC ; CDynamicPoolEx<NEffectUpdateDecorator::CHeaderDecorator>::~CDynamicPoolEx<NEffectUpdateDecorator::CHeaderDecorator>, COMDAT
; _this$ = ecx

; 132  : 		{

  00000	53		 push	 ebx
  00001	56		 push	 esi
  00002	57		 push	 edi
  00003	8b f9		 mov	 edi, ecx
  00005	c7 07 00 00 00
	00		 mov	 DWORD PTR [edi], OFFSET ??_7?$CDynamicPoolEx@VCHeaderDecorator@NEffectUpdateDecorator@@@@6B@
; File C:\Program Files (x86)\Microsoft Visual Studio\2019\Community\VC\Tools\MSVC\14.28.29333\include\vector

; 42   :     _Vector_const_iterator(_Tptr _Parg, const _Container_base* _Pvector) noexcept : _Ptr(_Parg) {

  0000b	8b 5f 08	 mov	 ebx, DWORD PTR [edi+8]
  0000e	8b 77 04	 mov	 esi, DWORD PTR [edi+4]
; File C:\Program Files (x86)\Microsoft Visual Studio\2019\Community\VC\Tools\MSVC\14.28.29333\include\algorithm

; 307  :     for (; _UFirst != _ULast; ++_UFirst) {

  00011	3b f3		 cmp	 esi, ebx
  00013	74 14		 je	 SHORT $LN19@CDynamicPo
$LL20@CDynamicPo:
; File D:\Metin2 Server Files\mainline\SRC_2014\Metin2Client\eterLib\Pool.h

; 224  : 			::operator delete(pkData);

  00015	ff 36		 push	 DWORD PTR [esi]
  00017	e8 00 00 00 00	 call	 ??3@YAXPAX@Z		; operator delete
; File C:\Program Files (x86)\Microsoft Visual Studio\2019\Community\VC\Tools\MSVC\14.28.29333\include\algorithm

; 307  :     for (; _UFirst != _ULast; ++_UFirst) {

  0001c	83 c6 04	 add	 esi, 4
; File D:\Metin2 Server Files\mainline\SRC_2014\Metin2Client\eterLib\Pool.h

; 224  : 			::operator delete(pkData);

  0001f	83 c4 04	 add	 esp, 4
; File C:\Program Files (x86)\Microsoft Visual Studio\2019\Community\VC\Tools\MSVC\14.28.29333\include\algorithm

; 307  :     for (; _UFirst != _ULast; ++_UFirst) {

  00022	3b f3		 cmp	 esi, ebx
  00024	75 ef		 jne	 SHORT $LL20@CDynamicPo
  00026	8b 77 04	 mov	 esi, DWORD PTR [edi+4]
$LN19@CDynamicPo:
; File D:\Metin2 Server Files\mainline\SRC_2014\Metin2Client\eterLib\Pool.h

; 162  : 			m_kVct_pkFree.clear();

  00029	8b 4f 10	 mov	 ecx, DWORD PTR [edi+16]
  0002c	89 77 08	 mov	 DWORD PTR [edi+8], esi
  0002f	89 4f 14	 mov	 DWORD PTR [edi+20], ecx
; File C:\Program Files (x86)\Microsoft Visual Studio\2019\Community\VC\Tools\MSVC\14.28.29333\include\vector

; 1694 :         if (_Myfirst) { // destroy and deallocate old array

  00032	85 c9		 test	 ecx, ecx
  00034	74 27		 je	 SHORT $LN27@CDynamicPo

; 1695 :             _Destroy(_Myfirst, _Mylast);
; 1696 :             _Getal().deallocate(_Myfirst, static_cast<size_type>(_Myend - _Myfirst));

  00036	8b 47 18	 mov	 eax, DWORD PTR [edi+24]
  00039	2b c1		 sub	 eax, ecx
; File C:\Program Files (x86)\Microsoft Visual Studio\2019\Community\VC\Tools\MSVC\14.28.29333\include\xmemory

; 810  :         _Deallocate<_New_alignof<_Ty>>(_Ptr, sizeof(_Ty) * _Count);

  0003b	83 e0 fc	 and	 eax, -4			; fffffffcH
  0003e	50		 push	 eax
  0003f	51		 push	 ecx
  00040	e8 00 00 00 00	 call	 ??$_Deallocate@$07$0A@@std@@YAXPAXI@Z ; std::_Deallocate<8,0>
; File C:\Program Files (x86)\Microsoft Visual Studio\2019\Community\VC\Tools\MSVC\14.28.29333\include\vector

; 1698 :             _Myfirst = pointer();

  00045	c7 47 10 00 00
	00 00		 mov	 DWORD PTR [edi+16], 0
; File C:\Program Files (x86)\Microsoft Visual Studio\2019\Community\VC\Tools\MSVC\14.28.29333\include\xmemory

; 810  :         _Deallocate<_New_alignof<_Ty>>(_Ptr, sizeof(_Ty) * _Count);

  0004c	83 c4 08	 add	 esp, 8
; File C:\Program Files (x86)\Microsoft Visual Studio\2019\Community\VC\Tools\MSVC\14.28.29333\include\vector

; 1699 :             _Mylast  = pointer();

  0004f	c7 47 14 00 00
	00 00		 mov	 DWORD PTR [edi+20], 0

; 1700 :             _Myend   = pointer();

  00056	c7 47 18 00 00
	00 00		 mov	 DWORD PTR [edi+24], 0
$LN27@CDynamicPo:

; 1694 :         if (_Myfirst) { // destroy and deallocate old array

  0005d	8b 4f 04	 mov	 ecx, DWORD PTR [edi+4]
  00060	85 c9		 test	 ecx, ecx
  00062	74 27		 je	 SHORT $LN34@CDynamicPo

; 1695 :             _Destroy(_Myfirst, _Mylast);
; 1696 :             _Getal().deallocate(_Myfirst, static_cast<size_type>(_Myend - _Myfirst));

  00064	8b 47 0c	 mov	 eax, DWORD PTR [edi+12]
  00067	2b c1		 sub	 eax, ecx
; File C:\Program Files (x86)\Microsoft Visual Studio\2019\Community\VC\Tools\MSVC\14.28.29333\include\xmemory

; 810  :         _Deallocate<_New_alignof<_Ty>>(_Ptr, sizeof(_Ty) * _Count);

  00069	83 e0 fc	 and	 eax, -4			; fffffffcH
  0006c	50		 push	 eax
  0006d	51		 push	 ecx
  0006e	e8 00 00 00 00	 call	 ??$_Deallocate@$07$0A@@std@@YAXPAXI@Z ; std::_Deallocate<8,0>
; File C:\Program Files (x86)\Microsoft Visual Studio\2019\Community\VC\Tools\MSVC\14.28.29333\include\vector

; 1698 :             _Myfirst = pointer();

  00073	c7 47 04 00 00
	00 00		 mov	 DWORD PTR [edi+4], 0
; File C:\Program Files (x86)\Microsoft Visual Studio\2019\Community\VC\Tools\MSVC\14.28.29333\include\xmemory

; 810  :         _Deallocate<_New_alignof<_Ty>>(_Ptr, sizeof(_Ty) * _Count);

  0007a	83 c4 08	 add	 esp, 8
; File C:\Program Files (x86)\Microsoft Visual Studio\2019\Community\VC\Tools\MSVC\14.28.29333\include\vector

; 1699 :             _Mylast  = pointer();

  0007d	c7 47 08 00 00
	00 00		 mov	 DWORD PTR [edi+8], 0

; 1700 :             _Myend   = pointer();

  00084	c7 47 0c 00 00
	00 00		 mov	 DWORD PTR [edi+12], 0
$LN34@CDynamicPo:
  0008b	5f		 pop	 edi
; File D:\Metin2 Server Files\mainline\SRC_2014\Metin2Client\eterLib\Pool.h

; 142  : 		}

  0008c	5e		 pop	 esi
  0008d	5b		 pop	 ebx
  0008e	c3		 ret	 0
??1?$CDynamicPoolEx@VCHeaderDecorator@NEffectUpdateDecorator@@@@UAE@XZ ENDP ; CDynamicPoolEx<NEffectUpdateDecorator::CHeaderDecorator>::~CDynamicPoolEx<NEffectUpdateDecorator::CHeaderDecorator>
_TEXT	ENDS
; Function compile flags: /Ogtp
;	COMDAT ??_G?$CDynamicPoolEx@VCNullDecorator@NEffectUpdateDecorator@@@@UAEPAXI@Z
_TEXT	SEGMENT
___flags$ = 8						; size = 4
??_G?$CDynamicPoolEx@VCNullDecorator@NEffectUpdateDecorator@@@@UAEPAXI@Z PROC ; CDynamicPoolEx<NEffectUpdateDecorator::CNullDecorator>::`scalar deleting destructor', COMDAT
; _this$ = ecx
  00000	55		 push	 ebp
  00001	8b ec		 mov	 ebp, esp
  00003	56		 push	 esi
  00004	8b f1		 mov	 esi, ecx
  00006	e8 00 00 00 00	 call	 ??1?$CDynamicPoolEx@VCNullDecorator@NEffectUpdateDecorator@@@@UAE@XZ ; CDynamicPoolEx<NEffectUpdateDecorator::CNullDecorator>::~CDynamicPoolEx<NEffectUpdateDecorator::CNullDecorator>
  0000b	f6 45 08 01	 test	 BYTE PTR ___flags$[ebp], 1
  0000f	74 0b		 je	 SHORT $LN4@scalar
  00011	6a 24		 push	 36			; 00000024H
  00013	56		 push	 esi
  00014	e8 00 00 00 00	 call	 ??3@YAXPAXI@Z		; operator delete
  00019	83 c4 08	 add	 esp, 8
$LN4@scalar:
  0001c	8b c6		 mov	 eax, esi
  0001e	5e		 pop	 esi
  0001f	5d		 pop	 ebp
  00020	c2 04 00	 ret	 4
??_G?$CDynamicPoolEx@VCNullDecorator@NEffectUpdateDecorator@@@@UAEPAXI@Z ENDP ; CDynamicPoolEx<NEffectUpdateDecorator::CNullDecorator>::`scalar deleting destructor'
_TEXT	ENDS
; Function compile flags: /Ogtp
; File D:\Metin2 Server Files\mainline\SRC_2014\Metin2Client\eterLib\Pool.h
;	COMDAT ?Delete@?$CDynamicPoolEx@VCNullDecorator@NEffectUpdateDecorator@@@@KAXPAVCNullDecorator@NEffectUpdateDecorator@@@Z
_TEXT	SEGMENT
_pkData$ = 8						; size = 4
?Delete@?$CDynamicPoolEx@VCNullDecorator@NEffectUpdateDecorator@@@@KAXPAVCNullDecorator@NEffectUpdateDecorator@@@Z PROC ; CDynamicPoolEx<NEffectUpdateDecorator::CNullDecorator>::Delete, COMDAT

; 224  : 			::operator delete(pkData);

  00000	e9 00 00 00 00	 jmp	 ??3@YAXPAX@Z		; operator delete
?Delete@?$CDynamicPoolEx@VCNullDecorator@NEffectUpdateDecorator@@@@KAXPAVCNullDecorator@NEffectUpdateDecorator@@@Z ENDP ; CDynamicPoolEx<NEffectUpdateDecorator::CNullDecorator>::Delete
_TEXT	ENDS
; Function compile flags: /Ogtp
; File D:\Metin2 Server Files\mainline\SRC_2014\Metin2Client\eterLib\Pool.h
; File C:\Program Files (x86)\Microsoft Visual Studio\2019\Community\VC\Tools\MSVC\14.28.29333\include\vector
; File C:\Program Files (x86)\Microsoft Visual Studio\2019\Community\VC\Tools\MSVC\14.28.29333\include\algorithm
; File D:\Metin2 Server Files\mainline\SRC_2014\Metin2Client\eterLib\Pool.h
; File C:\Program Files (x86)\Microsoft Visual Studio\2019\Community\VC\Tools\MSVC\14.28.29333\include\algorithm
; File D:\Metin2 Server Files\mainline\SRC_2014\Metin2Client\eterLib\Pool.h
; File C:\Program Files (x86)\Microsoft Visual Studio\2019\Community\VC\Tools\MSVC\14.28.29333\include\algorithm
; File D:\Metin2 Server Files\mainline\SRC_2014\Metin2Client\eterLib\Pool.h
; File C:\Program Files (x86)\Microsoft Visual Studio\2019\Community\VC\Tools\MSVC\14.28.29333\include\vector
; File C:\Program Files (x86)\Microsoft Visual Studio\2019\Community\VC\Tools\MSVC\14.28.29333\include\xmemory
; File C:\Program Files (x86)\Microsoft Visual Studio\2019\Community\VC\Tools\MSVC\14.28.29333\include\vector
; File C:\Program Files (x86)\Microsoft Visual Studio\2019\Community\VC\Tools\MSVC\14.28.29333\include\xmemory
; File C:\Program Files (x86)\Microsoft Visual Studio\2019\Community\VC\Tools\MSVC\14.28.29333\include\vector
; File C:\Program Files (x86)\Microsoft Visual Studio\2019\Community\VC\Tools\MSVC\14.28.29333\include\xmemory
; File C:\Program Files (x86)\Microsoft Visual Studio\2019\Community\VC\Tools\MSVC\14.28.29333\include\vector
; File C:\Program Files (x86)\Microsoft Visual Studio\2019\Community\VC\Tools\MSVC\14.28.29333\include\xmemory
; File C:\Program Files (x86)\Microsoft Visual Studio\2019\Community\VC\Tools\MSVC\14.28.29333\include\vector
; File D:\Metin2 Server Files\mainline\SRC_2014\Metin2Client\eterLib\Pool.h
;	COMDAT ??1?$CDynamicPoolEx@VCNullDecorator@NEffectUpdateDecorator@@@@UAE@XZ
_TEXT	SEGMENT
??1?$CDynamicPoolEx@VCNullDecorator@NEffectUpdateDecorator@@@@UAE@XZ PROC ; CDynamicPoolEx<NEffectUpdateDecorator::CNullDecorator>::~CDynamicPoolEx<NEffectUpdateDecorator::CNullDecorator>, COMDAT
; _this$ = ecx

; 132  : 		{

  00000	53		 push	 ebx
  00001	56		 push	 esi
  00002	57		 push	 edi
  00003	8b f9		 mov	 edi, ecx
  00005	c7 07 00 00 00
	00		 mov	 DWORD PTR [edi], OFFSET ??_7?$CDynamicPoolEx@VCNullDecorator@NEffectUpdateDecorator@@@@6B@
; File C:\Program Files (x86)\Microsoft Visual Studio\2019\Community\VC\Tools\MSVC\14.28.29333\include\vector

; 42   :     _Vector_const_iterator(_Tptr _Parg, const _Container_base* _Pvector) noexcept : _Ptr(_Parg) {

  0000b	8b 5f 08	 mov	 ebx, DWORD PTR [edi+8]
  0000e	8b 77 04	 mov	 esi, DWORD PTR [edi+4]
; File C:\Program Files (x86)\Microsoft Visual Studio\2019\Community\VC\Tools\MSVC\14.28.29333\include\algorithm

; 307  :     for (; _UFirst != _ULast; ++_UFirst) {

  00011	3b f3		 cmp	 esi, ebx
  00013	74 14		 je	 SHORT $LN19@CDynamicPo
$LL20@CDynamicPo:
; File D:\Metin2 Server Files\mainline\SRC_2014\Metin2Client\eterLib\Pool.h

; 224  : 			::operator delete(pkData);

  00015	ff 36		 push	 DWORD PTR [esi]
  00017	e8 00 00 00 00	 call	 ??3@YAXPAX@Z		; operator delete
; File C:\Program Files (x86)\Microsoft Visual Studio\2019\Community\VC\Tools\MSVC\14.28.29333\include\algorithm

; 307  :     for (; _UFirst != _ULast; ++_UFirst) {

  0001c	83 c6 04	 add	 esi, 4
; File D:\Metin2 Server Files\mainline\SRC_2014\Metin2Client\eterLib\Pool.h

; 224  : 			::operator delete(pkData);

  0001f	83 c4 04	 add	 esp, 4
; File C:\Program Files (x86)\Microsoft Visual Studio\2019\Community\VC\Tools\MSVC\14.28.29333\include\algorithm

; 307  :     for (; _UFirst != _ULast; ++_UFirst) {

  00022	3b f3		 cmp	 esi, ebx
  00024	75 ef		 jne	 SHORT $LL20@CDynamicPo
  00026	8b 77 04	 mov	 esi, DWORD PTR [edi+4]
$LN19@CDynamicPo:
; File D:\Metin2 Server Files\mainline\SRC_2014\Metin2Client\eterLib\Pool.h

; 162  : 			m_kVct_pkFree.clear();

  00029	8b 4f 10	 mov	 ecx, DWORD PTR [edi+16]
  0002c	89 77 08	 mov	 DWORD PTR [edi+8], esi
  0002f	89 4f 14	 mov	 DWORD PTR [edi+20], ecx
; File C:\Program Files (x86)\Microsoft Visual Studio\2019\Community\VC\Tools\MSVC\14.28.29333\include\vector

; 1694 :         if (_Myfirst) { // destroy and deallocate old array

  00032	85 c9		 test	 ecx, ecx
  00034	74 27		 je	 SHORT $LN27@CDynamicPo

; 1695 :             _Destroy(_Myfirst, _Mylast);
; 1696 :             _Getal().deallocate(_Myfirst, static_cast<size_type>(_Myend - _Myfirst));

  00036	8b 47 18	 mov	 eax, DWORD PTR [edi+24]
  00039	2b c1		 sub	 eax, ecx
; File C:\Program Files (x86)\Microsoft Visual Studio\2019\Community\VC\Tools\MSVC\14.28.29333\include\xmemory

; 810  :         _Deallocate<_New_alignof<_Ty>>(_Ptr, sizeof(_Ty) * _Count);

  0003b	83 e0 fc	 and	 eax, -4			; fffffffcH
  0003e	50		 push	 eax
  0003f	51		 push	 ecx
  00040	e8 00 00 00 00	 call	 ??$_Deallocate@$07$0A@@std@@YAXPAXI@Z ; std::_Deallocate<8,0>
; File C:\Program Files (x86)\Microsoft Visual Studio\2019\Community\VC\Tools\MSVC\14.28.29333\include\vector

; 1698 :             _Myfirst = pointer();

  00045	c7 47 10 00 00
	00 00		 mov	 DWORD PTR [edi+16], 0
; File C:\Program Files (x86)\Microsoft Visual Studio\2019\Community\VC\Tools\MSVC\14.28.29333\include\xmemory

; 810  :         _Deallocate<_New_alignof<_Ty>>(_Ptr, sizeof(_Ty) * _Count);

  0004c	83 c4 08	 add	 esp, 8
; File C:\Program Files (x86)\Microsoft Visual Studio\2019\Community\VC\Tools\MSVC\14.28.29333\include\vector

; 1699 :             _Mylast  = pointer();

  0004f	c7 47 14 00 00
	00 00		 mov	 DWORD PTR [edi+20], 0

; 1700 :             _Myend   = pointer();

  00056	c7 47 18 00 00
	00 00		 mov	 DWORD PTR [edi+24], 0
$LN27@CDynamicPo:

; 1694 :         if (_Myfirst) { // destroy and deallocate old array

  0005d	8b 4f 04	 mov	 ecx, DWORD PTR [edi+4]
  00060	85 c9		 test	 ecx, ecx
  00062	74 27		 je	 SHORT $LN34@CDynamicPo

; 1695 :             _Destroy(_Myfirst, _Mylast);
; 1696 :             _Getal().deallocate(_Myfirst, static_cast<size_type>(_Myend - _Myfirst));

  00064	8b 47 0c	 mov	 eax, DWORD PTR [edi+12]
  00067	2b c1		 sub	 eax, ecx
; File C:\Program Files (x86)\Microsoft Visual Studio\2019\Community\VC\Tools\MSVC\14.28.29333\include\xmemory

; 810  :         _Deallocate<_New_alignof<_Ty>>(_Ptr, sizeof(_Ty) * _Count);

  00069	83 e0 fc	 and	 eax, -4			; fffffffcH
  0006c	50		 push	 eax
  0006d	51		 push	 ecx
  0006e	e8 00 00 00 00	 call	 ??$_Deallocate@$07$0A@@std@@YAXPAXI@Z ; std::_Deallocate<8,0>
; File C:\Program Files (x86)\Microsoft Visual Studio\2019\Community\VC\Tools\MSVC\14.28.29333\include\vector

; 1698 :             _Myfirst = pointer();

  00073	c7 47 04 00 00
	00 00		 mov	 DWORD PTR [edi+4], 0
; File C:\Program Files (x86)\Microsoft Visual Studio\2019\Community\VC\Tools\MSVC\14.28.29333\include\xmemory

; 810  :         _Deallocate<_New_alignof<_Ty>>(_Ptr, sizeof(_Ty) * _Count);

  0007a	83 c4 08	 add	 esp, 8
; File C:\Program Files (x86)\Microsoft Visual Studio\2019\Community\VC\Tools\MSVC\14.28.29333\include\vector

; 1699 :             _Mylast  = pointer();

  0007d	c7 47 08 00 00
	00 00		 mov	 DWORD PTR [edi+8], 0

; 1700 :             _Myend   = pointer();

  00084	c7 47 0c 00 00
	00 00		 mov	 DWORD PTR [edi+12], 0
$LN34@CDynamicPo:
  0008b	5f		 pop	 edi
; File D:\Metin2 Server Files\mainline\SRC_2014\Metin2Client\eterLib\Pool.h

; 142  : 		}

  0008c	5e		 pop	 esi
  0008d	5b		 pop	 ebx
  0008e	c3		 ret	 0
??1?$CDynamicPoolEx@VCNullDecorator@NEffectUpdateDecorator@@@@UAE@XZ ENDP ; CDynamicPoolEx<NEffectUpdateDecorator::CNullDecorator>::~CDynamicPoolEx<NEffectUpdateDecorator::CNullDecorator>
_TEXT	ENDS
; Function compile flags: /Ogtp
;	COMDAT ??_G?$CDynamicPoolEx@VCTextureAnimationCWDecorator@NEffectUpdateDecorator@@@@UAEPAXI@Z
_TEXT	SEGMENT
___flags$ = 8						; size = 4
??_G?$CDynamicPoolEx@VCTextureAnimationCWDecorator@NEffectUpdateDecorator@@@@UAEPAXI@Z PROC ; CDynamicPoolEx<NEffectUpdateDecorator::CTextureAnimationCWDecorator>::`scalar deleting destructor', COMDAT
; _this$ = ecx
  00000	55		 push	 ebp
  00001	8b ec		 mov	 ebp, esp
  00003	56		 push	 esi
  00004	8b f1		 mov	 esi, ecx
  00006	e8 00 00 00 00	 call	 ??1?$CDynamicPoolEx@VCTextureAnimationCWDecorator@NEffectUpdateDecorator@@@@UAE@XZ ; CDynamicPoolEx<NEffectUpdateDecorator::CTextureAnimationCWDecorator>::~CDynamicPoolEx<NEffectUpdateDecorator::CTextureAnimationCWDecorator>
  0000b	f6 45 08 01	 test	 BYTE PTR ___flags$[ebp], 1
  0000f	74 0b		 je	 SHORT $LN4@scalar
  00011	6a 24		 push	 36			; 00000024H
  00013	56		 push	 esi
  00014	e8 00 00 00 00	 call	 ??3@YAXPAXI@Z		; operator delete
  00019	83 c4 08	 add	 esp, 8
$LN4@scalar:
  0001c	8b c6		 mov	 eax, esi
  0001e	5e		 pop	 esi
  0001f	5d		 pop	 ebp
  00020	c2 04 00	 ret	 4
??_G?$CDynamicPoolEx@VCTextureAnimationCWDecorator@NEffectUpdateDecorator@@@@UAEPAXI@Z ENDP ; CDynamicPoolEx<NEffectUpdateDecorator::CTextureAnimationCWDecorator>::`scalar deleting destructor'
_TEXT	ENDS
; Function compile flags: /Ogtp
; File D:\Metin2 Server Files\mainline\SRC_2014\Metin2Client\eterLib\Pool.h
;	COMDAT ?Delete@?$CDynamicPoolEx@VCTextureAnimationCWDecorator@NEffectUpdateDecorator@@@@KAXPAVCTextureAnimationCWDecorator@NEffectUpdateDecorator@@@Z
_TEXT	SEGMENT
_pkData$ = 8						; size = 4
?Delete@?$CDynamicPoolEx@VCTextureAnimationCWDecorator@NEffectUpdateDecorator@@@@KAXPAVCTextureAnimationCWDecorator@NEffectUpdateDecorator@@@Z PROC ; CDynamicPoolEx<NEffectUpdateDecorator::CTextureAnimationCWDecorator>::Delete, COMDAT

; 224  : 			::operator delete(pkData);

  00000	e9 00 00 00 00	 jmp	 ??3@YAXPAX@Z		; operator delete
?Delete@?$CDynamicPoolEx@VCTextureAnimationCWDecorator@NEffectUpdateDecorator@@@@KAXPAVCTextureAnimationCWDecorator@NEffectUpdateDecorator@@@Z ENDP ; CDynamicPoolEx<NEffectUpdateDecorator::CTextureAnimationCWDecorator>::Delete
_TEXT	ENDS
; Function compile flags: /Ogtp
; File D:\Metin2 Server Files\mainline\SRC_2014\Metin2Client\eterLib\Pool.h
; File C:\Program Files (x86)\Microsoft Visual Studio\2019\Community\VC\Tools\MSVC\14.28.29333\include\vector
; File C:\Program Files (x86)\Microsoft Visual Studio\2019\Community\VC\Tools\MSVC\14.28.29333\include\algorithm
; File D:\Metin2 Server Files\mainline\SRC_2014\Metin2Client\eterLib\Pool.h
; File C:\Program Files (x86)\Microsoft Visual Studio\2019\Community\VC\Tools\MSVC\14.28.29333\include\algorithm
; File D:\Metin2 Server Files\mainline\SRC_2014\Metin2Client\eterLib\Pool.h
; File C:\Program Files (x86)\Microsoft Visual Studio\2019\Community\VC\Tools\MSVC\14.28.29333\include\algorithm
; File D:\Metin2 Server Files\mainline\SRC_2014\Metin2Client\eterLib\Pool.h
; File C:\Program Files (x86)\Microsoft Visual Studio\2019\Community\VC\Tools\MSVC\14.28.29333\include\vector
; File C:\Program Files (x86)\Microsoft Visual Studio\2019\Community\VC\Tools\MSVC\14.28.29333\include\xmemory
; File C:\Program Files (x86)\Microsoft Visual Studio\2019\Community\VC\Tools\MSVC\14.28.29333\include\vector
; File C:\Program Files (x86)\Microsoft Visual Studio\2019\Community\VC\Tools\MSVC\14.28.29333\include\xmemory
; File C:\Program Files (x86)\Microsoft Visual Studio\2019\Community\VC\Tools\MSVC\14.28.29333\include\vector
; File C:\Program Files (x86)\Microsoft Visual Studio\2019\Community\VC\Tools\MSVC\14.28.29333\include\xmemory
; File C:\Program Files (x86)\Microsoft Visual Studio\2019\Community\VC\Tools\MSVC\14.28.29333\include\vector
; File C:\Program Files (x86)\Microsoft Visual Studio\2019\Community\VC\Tools\MSVC\14.28.29333\include\xmemory
; File C:\Program Files (x86)\Microsoft Visual Studio\2019\Community\VC\Tools\MSVC\14.28.29333\include\vector
; File D:\Metin2 Server Files\mainline\SRC_2014\Metin2Client\eterLib\Pool.h
;	COMDAT ??1?$CDynamicPoolEx@VCTextureAnimationCWDecorator@NEffectUpdateDecorator@@@@UAE@XZ
_TEXT	SEGMENT
??1?$CDynamicPoolEx@VCTextureAnimationCWDecorator@NEffectUpdateDecorator@@@@UAE@XZ PROC ; CDynamicPoolEx<NEffectUpdateDecorator::CTextureAnimationCWDecorator>::~CDynamicPoolEx<NEffectUpdateDecorator::CTextureAnimationCWDecorator>, COMDAT
; _this$ = ecx

; 132  : 		{

  00000	53		 push	 ebx
  00001	56		 push	 esi
  00002	57		 push	 edi
  00003	8b f9		 mov	 edi, ecx
  00005	c7 07 00 00 00
	00		 mov	 DWORD PTR [edi], OFFSET ??_7?$CDynamicPoolEx@VCTextureAnimationCWDecorator@NEffectUpdateDecorator@@@@6B@
; File C:\Program Files (x86)\Microsoft Visual Studio\2019\Community\VC\Tools\MSVC\14.28.29333\include\vector

; 42   :     _Vector_const_iterator(_Tptr _Parg, const _Container_base* _Pvector) noexcept : _Ptr(_Parg) {

  0000b	8b 5f 08	 mov	 ebx, DWORD PTR [edi+8]
  0000e	8b 77 04	 mov	 esi, DWORD PTR [edi+4]
; File C:\Program Files (x86)\Microsoft Visual Studio\2019\Community\VC\Tools\MSVC\14.28.29333\include\algorithm

; 307  :     for (; _UFirst != _ULast; ++_UFirst) {

  00011	3b f3		 cmp	 esi, ebx
  00013	74 14		 je	 SHORT $LN19@CDynamicPo
$LL20@CDynamicPo:
; File D:\Metin2 Server Files\mainline\SRC_2014\Metin2Client\eterLib\Pool.h

; 224  : 			::operator delete(pkData);

  00015	ff 36		 push	 DWORD PTR [esi]
  00017	e8 00 00 00 00	 call	 ??3@YAXPAX@Z		; operator delete
; File C:\Program Files (x86)\Microsoft Visual Studio\2019\Community\VC\Tools\MSVC\14.28.29333\include\algorithm

; 307  :     for (; _UFirst != _ULast; ++_UFirst) {

  0001c	83 c6 04	 add	 esi, 4
; File D:\Metin2 Server Files\mainline\SRC_2014\Metin2Client\eterLib\Pool.h

; 224  : 			::operator delete(pkData);

  0001f	83 c4 04	 add	 esp, 4
; File C:\Program Files (x86)\Microsoft Visual Studio\2019\Community\VC\Tools\MSVC\14.28.29333\include\algorithm

; 307  :     for (; _UFirst != _ULast; ++_UFirst) {

  00022	3b f3		 cmp	 esi, ebx
  00024	75 ef		 jne	 SHORT $LL20@CDynamicPo
  00026	8b 77 04	 mov	 esi, DWORD PTR [edi+4]
$LN19@CDynamicPo:
; File D:\Metin2 Server Files\mainline\SRC_2014\Metin2Client\eterLib\Pool.h

; 162  : 			m_kVct_pkFree.clear();

  00029	8b 4f 10	 mov	 ecx, DWORD PTR [edi+16]
  0002c	89 77 08	 mov	 DWORD PTR [edi+8], esi
  0002f	89 4f 14	 mov	 DWORD PTR [edi+20], ecx
; File C:\Program Files (x86)\Microsoft Visual Studio\2019\Community\VC\Tools\MSVC\14.28.29333\include\vector

; 1694 :         if (_Myfirst) { // destroy and deallocate old array

  00032	85 c9		 test	 ecx, ecx
  00034	74 27		 je	 SHORT $LN27@CDynamicPo

; 1695 :             _Destroy(_Myfirst, _Mylast);
; 1696 :             _Getal().deallocate(_Myfirst, static_cast<size_type>(_Myend - _Myfirst));

  00036	8b 47 18	 mov	 eax, DWORD PTR [edi+24]
  00039	2b c1		 sub	 eax, ecx
; File C:\Program Files (x86)\Microsoft Visual Studio\2019\Community\VC\Tools\MSVC\14.28.29333\include\xmemory

; 810  :         _Deallocate<_New_alignof<_Ty>>(_Ptr, sizeof(_Ty) * _Count);

  0003b	83 e0 fc	 and	 eax, -4			; fffffffcH
  0003e	50		 push	 eax
  0003f	51		 push	 ecx
  00040	e8 00 00 00 00	 call	 ??$_Deallocate@$07$0A@@std@@YAXPAXI@Z ; std::_Deallocate<8,0>
; File C:\Program Files (x86)\Microsoft Visual Studio\2019\Community\VC\Tools\MSVC\14.28.29333\include\vector

; 1698 :             _Myfirst = pointer();

  00045	c7 47 10 00 00
	00 00		 mov	 DWORD PTR [edi+16], 0
; File C:\Program Files (x86)\Microsoft Visual Studio\2019\Community\VC\Tools\MSVC\14.28.29333\include\xmemory

; 810  :         _Deallocate<_New_alignof<_Ty>>(_Ptr, sizeof(_Ty) * _Count);

  0004c	83 c4 08	 add	 esp, 8
; File C:\Program Files (x86)\Microsoft Visual Studio\2019\Community\VC\Tools\MSVC\14.28.29333\include\vector

; 1699 :             _Mylast  = pointer();

  0004f	c7 47 14 00 00
	00 00		 mov	 DWORD PTR [edi+20], 0

; 1700 :             _Myend   = pointer();

  00056	c7 47 18 00 00
	00 00		 mov	 DWORD PTR [edi+24], 0
$LN27@CDynamicPo:

; 1694 :         if (_Myfirst) { // destroy and deallocate old array

  0005d	8b 4f 04	 mov	 ecx, DWORD PTR [edi+4]
  00060	85 c9		 test	 ecx, ecx
  00062	74 27		 je	 SHORT $LN34@CDynamicPo

; 1695 :             _Destroy(_Myfirst, _Mylast);
; 1696 :             _Getal().deallocate(_Myfirst, static_cast<size_type>(_Myend - _Myfirst));

  00064	8b 47 0c	 mov	 eax, DWORD PTR [edi+12]
  00067	2b c1		 sub	 eax, ecx
; File C:\Program Files (x86)\Microsoft Visual Studio\2019\Community\VC\Tools\MSVC\14.28.29333\include\xmemory

; 810  :         _Deallocate<_New_alignof<_Ty>>(_Ptr, sizeof(_Ty) * _Count);

  00069	83 e0 fc	 and	 eax, -4			; fffffffcH
  0006c	50		 push	 eax
  0006d	51		 push	 ecx
  0006e	e8 00 00 00 00	 call	 ??$_Deallocate@$07$0A@@std@@YAXPAXI@Z ; std::_Deallocate<8,0>
; File C:\Program Files (x86)\Microsoft Visual Studio\2019\Community\VC\Tools\MSVC\14.28.29333\include\vector

; 1698 :             _Myfirst = pointer();

  00073	c7 47 04 00 00
	00 00		 mov	 DWORD PTR [edi+4], 0
; File C:\Program Files (x86)\Microsoft Visual Studio\2019\Community\VC\Tools\MSVC\14.28.29333\include\xmemory

; 810  :         _Deallocate<_New_alignof<_Ty>>(_Ptr, sizeof(_Ty) * _Count);

  0007a	83 c4 08	 add	 esp, 8
; File C:\Program Files (x86)\Microsoft Visual Studio\2019\Community\VC\Tools\MSVC\14.28.29333\include\vector

; 1699 :             _Mylast  = pointer();

  0007d	c7 47 08 00 00
	00 00		 mov	 DWORD PTR [edi+8], 0

; 1700 :             _Myend   = pointer();

  00084	c7 47 0c 00 00
	00 00		 mov	 DWORD PTR [edi+12], 0
$LN34@CDynamicPo:
  0008b	5f		 pop	 edi
; File D:\Metin2 Server Files\mainline\SRC_2014\Metin2Client\eterLib\Pool.h

; 142  : 		}

  0008c	5e		 pop	 esi
  0008d	5b		 pop	 ebx
  0008e	c3		 ret	 0
??1?$CDynamicPoolEx@VCTextureAnimationCWDecorator@NEffectUpdateDecorator@@@@UAE@XZ ENDP ; CDynamicPoolEx<NEffectUpdateDecorator::CTextureAnimationCWDecorator>::~CDynamicPoolEx<NEffectUpdateDecorator::CTextureAnimationCWDecorator>
_TEXT	ENDS
; Function compile flags: /Ogtp
;	COMDAT ??_G?$CDynamicPoolEx@VCTextureAnimationCCWDecorator@NEffectUpdateDecorator@@@@UAEPAXI@Z
_TEXT	SEGMENT
___flags$ = 8						; size = 4
??_G?$CDynamicPoolEx@VCTextureAnimationCCWDecorator@NEffectUpdateDecorator@@@@UAEPAXI@Z PROC ; CDynamicPoolEx<NEffectUpdateDecorator::CTextureAnimationCCWDecorator>::`scalar deleting destructor', COMDAT
; _this$ = ecx
  00000	55		 push	 ebp
  00001	8b ec		 mov	 ebp, esp
  00003	56		 push	 esi
  00004	8b f1		 mov	 esi, ecx
  00006	e8 00 00 00 00	 call	 ??1?$CDynamicPoolEx@VCTextureAnimationCCWDecorator@NEffectUpdateDecorator@@@@UAE@XZ ; CDynamicPoolEx<NEffectUpdateDecorator::CTextureAnimationCCWDecorator>::~CDynamicPoolEx<NEffectUpdateDecorator::CTextureAnimationCCWDecorator>
  0000b	f6 45 08 01	 test	 BYTE PTR ___flags$[ebp], 1
  0000f	74 0b		 je	 SHORT $LN4@scalar
  00011	6a 24		 push	 36			; 00000024H
  00013	56		 push	 esi
  00014	e8 00 00 00 00	 call	 ??3@YAXPAXI@Z		; operator delete
  00019	83 c4 08	 add	 esp, 8
$LN4@scalar:
  0001c	8b c6		 mov	 eax, esi
  0001e	5e		 pop	 esi
  0001f	5d		 pop	 ebp
  00020	c2 04 00	 ret	 4
??_G?$CDynamicPoolEx@VCTextureAnimationCCWDecorator@NEffectUpdateDecorator@@@@UAEPAXI@Z ENDP ; CDynamicPoolEx<NEffectUpdateDecorator::CTextureAnimationCCWDecorator>::`scalar deleting destructor'
_TEXT	ENDS
; Function compile flags: /Ogtp
; File D:\Metin2 Server Files\mainline\SRC_2014\Metin2Client\eterLib\Pool.h
;	COMDAT ?Delete@?$CDynamicPoolEx@VCTextureAnimationCCWDecorator@NEffectUpdateDecorator@@@@KAXPAVCTextureAnimationCCWDecorator@NEffectUpdateDecorator@@@Z
_TEXT	SEGMENT
_pkData$ = 8						; size = 4
?Delete@?$CDynamicPoolEx@VCTextureAnimationCCWDecorator@NEffectUpdateDecorator@@@@KAXPAVCTextureAnimationCCWDecorator@NEffectUpdateDecorator@@@Z PROC ; CDynamicPoolEx<NEffectUpdateDecorator::CTextureAnimationCCWDecorator>::Delete, COMDAT

; 224  : 			::operator delete(pkData);

  00000	e9 00 00 00 00	 jmp	 ??3@YAXPAX@Z		; operator delete
?Delete@?$CDynamicPoolEx@VCTextureAnimationCCWDecorator@NEffectUpdateDecorator@@@@KAXPAVCTextureAnimationCCWDecorator@NEffectUpdateDecorator@@@Z ENDP ; CDynamicPoolEx<NEffectUpdateDecorator::CTextureAnimationCCWDecorator>::Delete
_TEXT	ENDS
; Function compile flags: /Ogtp
; File D:\Metin2 Server Files\mainline\SRC_2014\Metin2Client\eterLib\Pool.h
; File C:\Program Files (x86)\Microsoft Visual Studio\2019\Community\VC\Tools\MSVC\14.28.29333\include\vector
; File C:\Program Files (x86)\Microsoft Visual Studio\2019\Community\VC\Tools\MSVC\14.28.29333\include\algorithm
; File D:\Metin2 Server Files\mainline\SRC_2014\Metin2Client\eterLib\Pool.h
; File C:\Program Files (x86)\Microsoft Visual Studio\2019\Community\VC\Tools\MSVC\14.28.29333\include\algorithm
; File D:\Metin2 Server Files\mainline\SRC_2014\Metin2Client\eterLib\Pool.h
; File C:\Program Files (x86)\Microsoft Visual Studio\2019\Community\VC\Tools\MSVC\14.28.29333\include\algorithm
; File D:\Metin2 Server Files\mainline\SRC_2014\Metin2Client\eterLib\Pool.h
; File C:\Program Files (x86)\Microsoft Visual Studio\2019\Community\VC\Tools\MSVC\14.28.29333\include\vector
; File C:\Program Files (x86)\Microsoft Visual Studio\2019\Community\VC\Tools\MSVC\14.28.29333\include\xmemory
; File C:\Program Files (x86)\Microsoft Visual Studio\2019\Community\VC\Tools\MSVC\14.28.29333\include\vector
; File C:\Program Files (x86)\Microsoft Visual Studio\2019\Community\VC\Tools\MSVC\14.28.29333\include\xmemory
; File C:\Program Files (x86)\Microsoft Visual Studio\2019\Community\VC\Tools\MSVC\14.28.29333\include\vector
; File C:\Program Files (x86)\Microsoft Visual Studio\2019\Community\VC\Tools\MSVC\14.28.29333\include\xmemory
; File C:\Program Files (x86)\Microsoft Visual Studio\2019\Community\VC\Tools\MSVC\14.28.29333\include\vector
; File C:\Program Files (x86)\Microsoft Visual Studio\2019\Community\VC\Tools\MSVC\14.28.29333\include\xmemory
; File C:\Program Files (x86)\Microsoft Visual Studio\2019\Community\VC\Tools\MSVC\14.28.29333\include\vector
; File D:\Metin2 Server Files\mainline\SRC_2014\Metin2Client\eterLib\Pool.h
;	COMDAT ??1?$CDynamicPoolEx@VCTextureAnimationCCWDecorator@NEffectUpdateDecorator@@@@UAE@XZ
_TEXT	SEGMENT
??1?$CDynamicPoolEx@VCTextureAnimationCCWDecorator@NEffectUpdateDecorator@@@@UAE@XZ PROC ; CDynamicPoolEx<NEffectUpdateDecorator::CTextureAnimationCCWDecorator>::~CDynamicPoolEx<NEffectUpdateDecorator::CTextureAnimationCCWDecorator>, COMDAT
; _this$ = ecx

; 132  : 		{

  00000	53		 push	 ebx
  00001	56		 push	 esi
  00002	57		 push	 edi
  00003	8b f9		 mov	 edi, ecx
  00005	c7 07 00 00 00
	00		 mov	 DWORD PTR [edi], OFFSET ??_7?$CDynamicPoolEx@VCTextureAnimationCCWDecorator@NEffectUpdateDecorator@@@@6B@
; File C:\Program Files (x86)\Microsoft Visual Studio\2019\Community\VC\Tools\MSVC\14.28.29333\include\vector

; 42   :     _Vector_const_iterator(_Tptr _Parg, const _Container_base* _Pvector) noexcept : _Ptr(_Parg) {

  0000b	8b 5f 08	 mov	 ebx, DWORD PTR [edi+8]
  0000e	8b 77 04	 mov	 esi, DWORD PTR [edi+4]
; File C:\Program Files (x86)\Microsoft Visual Studio\2019\Community\VC\Tools\MSVC\14.28.29333\include\algorithm

; 307  :     for (; _UFirst != _ULast; ++_UFirst) {

  00011	3b f3		 cmp	 esi, ebx
  00013	74 14		 je	 SHORT $LN19@CDynamicPo
$LL20@CDynamicPo:
; File D:\Metin2 Server Files\mainline\SRC_2014\Metin2Client\eterLib\Pool.h

; 224  : 			::operator delete(pkData);

  00015	ff 36		 push	 DWORD PTR [esi]
  00017	e8 00 00 00 00	 call	 ??3@YAXPAX@Z		; operator delete
; File C:\Program Files (x86)\Microsoft Visual Studio\2019\Community\VC\Tools\MSVC\14.28.29333\include\algorithm

; 307  :     for (; _UFirst != _ULast; ++_UFirst) {

  0001c	83 c6 04	 add	 esi, 4
; File D:\Metin2 Server Files\mainline\SRC_2014\Metin2Client\eterLib\Pool.h

; 224  : 			::operator delete(pkData);

  0001f	83 c4 04	 add	 esp, 4
; File C:\Program Files (x86)\Microsoft Visual Studio\2019\Community\VC\Tools\MSVC\14.28.29333\include\algorithm

; 307  :     for (; _UFirst != _ULast; ++_UFirst) {

  00022	3b f3		 cmp	 esi, ebx
  00024	75 ef		 jne	 SHORT $LL20@CDynamicPo
  00026	8b 77 04	 mov	 esi, DWORD PTR [edi+4]
$LN19@CDynamicPo:
; File D:\Metin2 Server Files\mainline\SRC_2014\Metin2Client\eterLib\Pool.h

; 162  : 			m_kVct_pkFree.clear();

  00029	8b 4f 10	 mov	 ecx, DWORD PTR [edi+16]
  0002c	89 77 08	 mov	 DWORD PTR [edi+8], esi
  0002f	89 4f 14	 mov	 DWORD PTR [edi+20], ecx
; File C:\Program Files (x86)\Microsoft Visual Studio\2019\Community\VC\Tools\MSVC\14.28.29333\include\vector

; 1694 :         if (_Myfirst) { // destroy and deallocate old array

  00032	85 c9		 test	 ecx, ecx
  00034	74 27		 je	 SHORT $LN27@CDynamicPo

; 1695 :             _Destroy(_Myfirst, _Mylast);
; 1696 :             _Getal().deallocate(_Myfirst, static_cast<size_type>(_Myend - _Myfirst));

  00036	8b 47 18	 mov	 eax, DWORD PTR [edi+24]
  00039	2b c1		 sub	 eax, ecx
; File C:\Program Files (x86)\Microsoft Visual Studio\2019\Community\VC\Tools\MSVC\14.28.29333\include\xmemory

; 810  :         _Deallocate<_New_alignof<_Ty>>(_Ptr, sizeof(_Ty) * _Count);

  0003b	83 e0 fc	 and	 eax, -4			; fffffffcH
  0003e	50		 push	 eax
  0003f	51		 push	 ecx
  00040	e8 00 00 00 00	 call	 ??$_Deallocate@$07$0A@@std@@YAXPAXI@Z ; std::_Deallocate<8,0>
; File C:\Program Files (x86)\Microsoft Visual Studio\2019\Community\VC\Tools\MSVC\14.28.29333\include\vector

; 1698 :             _Myfirst = pointer();

  00045	c7 47 10 00 00
	00 00		 mov	 DWORD PTR [edi+16], 0
; File C:\Program Files (x86)\Microsoft Visual Studio\2019\Community\VC\Tools\MSVC\14.28.29333\include\xmemory

; 810  :         _Deallocate<_New_alignof<_Ty>>(_Ptr, sizeof(_Ty) * _Count);

  0004c	83 c4 08	 add	 esp, 8
; File C:\Program Files (x86)\Microsoft Visual Studio\2019\Community\VC\Tools\MSVC\14.28.29333\include\vector

; 1699 :             _Mylast  = pointer();

  0004f	c7 47 14 00 00
	00 00		 mov	 DWORD PTR [edi+20], 0

; 1700 :             _Myend   = pointer();

  00056	c7 47 18 00 00
	00 00		 mov	 DWORD PTR [edi+24], 0
$LN27@CDynamicPo:

; 1694 :         if (_Myfirst) { // destroy and deallocate old array

  0005d	8b 4f 04	 mov	 ecx, DWORD PTR [edi+4]
  00060	85 c9		 test	 ecx, ecx
  00062	74 27		 je	 SHORT $LN34@CDynamicPo

; 1695 :             _Destroy(_Myfirst, _Mylast);
; 1696 :             _Getal().deallocate(_Myfirst, static_cast<size_type>(_Myend - _Myfirst));

  00064	8b 47 0c	 mov	 eax, DWORD PTR [edi+12]
  00067	2b c1		 sub	 eax, ecx
; File C:\Program Files (x86)\Microsoft Visual Studio\2019\Community\VC\Tools\MSVC\14.28.29333\include\xmemory

; 810  :         _Deallocate<_New_alignof<_Ty>>(_Ptr, sizeof(_Ty) * _Count);

  00069	83 e0 fc	 and	 eax, -4			; fffffffcH
  0006c	50		 push	 eax
  0006d	51		 push	 ecx
  0006e	e8 00 00 00 00	 call	 ??$_Deallocate@$07$0A@@std@@YAXPAXI@Z ; std::_Deallocate<8,0>
; File C:\Program Files (x86)\Microsoft Visual Studio\2019\Community\VC\Tools\MSVC\14.28.29333\include\vector

; 1698 :             _Myfirst = pointer();

  00073	c7 47 04 00 00
	00 00		 mov	 DWORD PTR [edi+4], 0
; File C:\Program Files (x86)\Microsoft Visual Studio\2019\Community\VC\Tools\MSVC\14.28.29333\include\xmemory

; 810  :         _Deallocate<_New_alignof<_Ty>>(_Ptr, sizeof(_Ty) * _Count);

  0007a	83 c4 08	 add	 esp, 8
; File C:\Program Files (x86)\Microsoft Visual Studio\2019\Community\VC\Tools\MSVC\14.28.29333\include\vector

; 1699 :             _Mylast  = pointer();

  0007d	c7 47 08 00 00
	00 00		 mov	 DWORD PTR [edi+8], 0

; 1700 :             _Myend   = pointer();

  00084	c7 47 0c 00 00
	00 00		 mov	 DWORD PTR [edi+12], 0
$LN34@CDynamicPo:
  0008b	5f		 pop	 edi
; File D:\Metin2 Server Files\mainline\SRC_2014\Metin2Client\eterLib\Pool.h

; 142  : 		}

  0008c	5e		 pop	 esi
  0008d	5b		 pop	 ebx
  0008e	c3		 ret	 0
??1?$CDynamicPoolEx@VCTextureAnimationCCWDecorator@NEffectUpdateDecorator@@@@UAE@XZ ENDP ; CDynamicPoolEx<NEffectUpdateDecorator::CTextureAnimationCCWDecorator>::~CDynamicPoolEx<NEffectUpdateDecorator::CTextureAnimationCCWDecorator>
_TEXT	ENDS
; Function compile flags: /Ogtp
;	COMDAT ??_G?$CDynamicPoolEx@VCTextureAnimationRandomDecorator@NEffectUpdateDecorator@@@@UAEPAXI@Z
_TEXT	SEGMENT
___flags$ = 8						; size = 4
??_G?$CDynamicPoolEx@VCTextureAnimationRandomDecorator@NEffectUpdateDecorator@@@@UAEPAXI@Z PROC ; CDynamicPoolEx<NEffectUpdateDecorator::CTextureAnimationRandomDecorator>::`scalar deleting destructor', COMDAT
; _this$ = ecx
  00000	55		 push	 ebp
  00001	8b ec		 mov	 ebp, esp
  00003	56		 push	 esi
  00004	8b f1		 mov	 esi, ecx
  00006	e8 00 00 00 00	 call	 ??1?$CDynamicPoolEx@VCTextureAnimationRandomDecorator@NEffectUpdateDecorator@@@@UAE@XZ ; CDynamicPoolEx<NEffectUpdateDecorator::CTextureAnimationRandomDecorator>::~CDynamicPoolEx<NEffectUpdateDecorator::CTextureAnimationRandomDecorator>
  0000b	f6 45 08 01	 test	 BYTE PTR ___flags$[ebp], 1
  0000f	74 0b		 je	 SHORT $LN4@scalar
  00011	6a 24		 push	 36			; 00000024H
  00013	56		 push	 esi
  00014	e8 00 00 00 00	 call	 ??3@YAXPAXI@Z		; operator delete
  00019	83 c4 08	 add	 esp, 8
$LN4@scalar:
  0001c	8b c6		 mov	 eax, esi
  0001e	5e		 pop	 esi
  0001f	5d		 pop	 ebp
  00020	c2 04 00	 ret	 4
??_G?$CDynamicPoolEx@VCTextureAnimationRandomDecorator@NEffectUpdateDecorator@@@@UAEPAXI@Z ENDP ; CDynamicPoolEx<NEffectUpdateDecorator::CTextureAnimationRandomDecorator>::`scalar deleting destructor'
_TEXT	ENDS
; Function compile flags: /Ogtp
; File D:\Metin2 Server Files\mainline\SRC_2014\Metin2Client\eterLib\Pool.h
;	COMDAT ?Delete@?$CDynamicPoolEx@VCTextureAnimationRandomDecorator@NEffectUpdateDecorator@@@@KAXPAVCTextureAnimationRandomDecorator@NEffectUpdateDecorator@@@Z
_TEXT	SEGMENT
_pkData$ = 8						; size = 4
?Delete@?$CDynamicPoolEx@VCTextureAnimationRandomDecorator@NEffectUpdateDecorator@@@@KAXPAVCTextureAnimationRandomDecorator@NEffectUpdateDecorator@@@Z PROC ; CDynamicPoolEx<NEffectUpdateDecorator::CTextureAnimationRandomDecorator>::Delete, COMDAT

; 224  : 			::operator delete(pkData);

  00000	e9 00 00 00 00	 jmp	 ??3@YAXPAX@Z		; operator delete
?Delete@?$CDynamicPoolEx@VCTextureAnimationRandomDecorator@NEffectUpdateDecorator@@@@KAXPAVCTextureAnimationRandomDecorator@NEffectUpdateDecorator@@@Z ENDP ; CDynamicPoolEx<NEffectUpdateDecorator::CTextureAnimationRandomDecorator>::Delete
_TEXT	ENDS
; Function compile flags: /Ogtp
; File D:\Metin2 Server Files\mainline\SRC_2014\Metin2Client\eterLib\Pool.h
; File C:\Program Files (x86)\Microsoft Visual Studio\2019\Community\VC\Tools\MSVC\14.28.29333\include\vector
; File C:\Program Files (x86)\Microsoft Visual Studio\2019\Community\VC\Tools\MSVC\14.28.29333\include\algorithm
; File D:\Metin2 Server Files\mainline\SRC_2014\Metin2Client\eterLib\Pool.h
; File C:\Program Files (x86)\Microsoft Visual Studio\2019\Community\VC\Tools\MSVC\14.28.29333\include\algorithm
; File D:\Metin2 Server Files\mainline\SRC_2014\Metin2Client\eterLib\Pool.h
; File C:\Program Files (x86)\Microsoft Visual Studio\2019\Community\VC\Tools\MSVC\14.28.29333\include\algorithm
; File D:\Metin2 Server Files\mainline\SRC_2014\Metin2Client\eterLib\Pool.h
; File C:\Program Files (x86)\Microsoft Visual Studio\2019\Community\VC\Tools\MSVC\14.28.29333\include\vector
; File C:\Program Files (x86)\Microsoft Visual Studio\2019\Community\VC\Tools\MSVC\14.28.29333\include\xmemory
; File C:\Program Files (x86)\Microsoft Visual Studio\2019\Community\VC\Tools\MSVC\14.28.29333\include\vector
; File C:\Program Files (x86)\Microsoft Visual Studio\2019\Community\VC\Tools\MSVC\14.28.29333\include\xmemory
; File C:\Program Files (x86)\Microsoft Visual Studio\2019\Community\VC\Tools\MSVC\14.28.29333\include\vector
; File C:\Program Files (x86)\Microsoft Visual Studio\2019\Community\VC\Tools\MSVC\14.28.29333\include\xmemory
; File C:\Program Files (x86)\Microsoft Visual Studio\2019\Community\VC\Tools\MSVC\14.28.29333\include\vector
; File C:\Program Files (x86)\Microsoft Visual Studio\2019\Community\VC\Tools\MSVC\14.28.29333\include\xmemory
; File C:\Program Files (x86)\Microsoft Visual Studio\2019\Community\VC\Tools\MSVC\14.28.29333\include\vector
; File D:\Metin2 Server Files\mainline\SRC_2014\Metin2Client\eterLib\Pool.h
;	COMDAT ??1?$CDynamicPoolEx@VCTextureAnimationRandomDecorator@NEffectUpdateDecorator@@@@UAE@XZ
_TEXT	SEGMENT
??1?$CDynamicPoolEx@VCTextureAnimationRandomDecorator@NEffectUpdateDecorator@@@@UAE@XZ PROC ; CDynamicPoolEx<NEffectUpdateDecorator::CTextureAnimationRandomDecorator>::~CDynamicPoolEx<NEffectUpdateDecorator::CTextureAnimationRandomDecorator>, COMDAT
; _this$ = ecx

; 132  : 		{

  00000	53		 push	 ebx
  00001	56		 push	 esi
  00002	57		 push	 edi
  00003	8b f9		 mov	 edi, ecx
  00005	c7 07 00 00 00
	00		 mov	 DWORD PTR [edi], OFFSET ??_7?$CDynamicPoolEx@VCTextureAnimationRandomDecorator@NEffectUpdateDecorator@@@@6B@
; File C:\Program Files (x86)\Microsoft Visual Studio\2019\Community\VC\Tools\MSVC\14.28.29333\include\vector

; 42   :     _Vector_const_iterator(_Tptr _Parg, const _Container_base* _Pvector) noexcept : _Ptr(_Parg) {

  0000b	8b 5f 08	 mov	 ebx, DWORD PTR [edi+8]
  0000e	8b 77 04	 mov	 esi, DWORD PTR [edi+4]
; File C:\Program Files (x86)\Microsoft Visual Studio\2019\Community\VC\Tools\MSVC\14.28.29333\include\algorithm

; 307  :     for (; _UFirst != _ULast; ++_UFirst) {

  00011	3b f3		 cmp	 esi, ebx
  00013	74 14		 je	 SHORT $LN19@CDynamicPo
$LL20@CDynamicPo:
; File D:\Metin2 Server Files\mainline\SRC_2014\Metin2Client\eterLib\Pool.h

; 224  : 			::operator delete(pkData);

  00015	ff 36		 push	 DWORD PTR [esi]
  00017	e8 00 00 00 00	 call	 ??3@YAXPAX@Z		; operator delete
; File C:\Program Files (x86)\Microsoft Visual Studio\2019\Community\VC\Tools\MSVC\14.28.29333\include\algorithm

; 307  :     for (; _UFirst != _ULast; ++_UFirst) {

  0001c	83 c6 04	 add	 esi, 4
; File D:\Metin2 Server Files\mainline\SRC_2014\Metin2Client\eterLib\Pool.h

; 224  : 			::operator delete(pkData);

  0001f	83 c4 04	 add	 esp, 4
; File C:\Program Files (x86)\Microsoft Visual Studio\2019\Community\VC\Tools\MSVC\14.28.29333\include\algorithm

; 307  :     for (; _UFirst != _ULast; ++_UFirst) {

  00022	3b f3		 cmp	 esi, ebx
  00024	75 ef		 jne	 SHORT $LL20@CDynamicPo
  00026	8b 77 04	 mov	 esi, DWORD PTR [edi+4]
$LN19@CDynamicPo:
; File D:\Metin2 Server Files\mainline\SRC_2014\Metin2Client\eterLib\Pool.h

; 162  : 			m_kVct_pkFree.clear();

  00029	8b 4f 10	 mov	 ecx, DWORD PTR [edi+16]
  0002c	89 77 08	 mov	 DWORD PTR [edi+8], esi
  0002f	89 4f 14	 mov	 DWORD PTR [edi+20], ecx
; File C:\Program Files (x86)\Microsoft Visual Studio\2019\Community\VC\Tools\MSVC\14.28.29333\include\vector

; 1694 :         if (_Myfirst) { // destroy and deallocate old array

  00032	85 c9		 test	 ecx, ecx
  00034	74 27		 je	 SHORT $LN27@CDynamicPo

; 1695 :             _Destroy(_Myfirst, _Mylast);
; 1696 :             _Getal().deallocate(_Myfirst, static_cast<size_type>(_Myend - _Myfirst));

  00036	8b 47 18	 mov	 eax, DWORD PTR [edi+24]
  00039	2b c1		 sub	 eax, ecx
; File C:\Program Files (x86)\Microsoft Visual Studio\2019\Community\VC\Tools\MSVC\14.28.29333\include\xmemory

; 810  :         _Deallocate<_New_alignof<_Ty>>(_Ptr, sizeof(_Ty) * _Count);

  0003b	83 e0 fc	 and	 eax, -4			; fffffffcH
  0003e	50		 push	 eax
  0003f	51		 push	 ecx
  00040	e8 00 00 00 00	 call	 ??$_Deallocate@$07$0A@@std@@YAXPAXI@Z ; std::_Deallocate<8,0>
; File C:\Program Files (x86)\Microsoft Visual Studio\2019\Community\VC\Tools\MSVC\14.28.29333\include\vector

; 1698 :             _Myfirst = pointer();

  00045	c7 47 10 00 00
	00 00		 mov	 DWORD PTR [edi+16], 0
; File C:\Program Files (x86)\Microsoft Visual Studio\2019\Community\VC\Tools\MSVC\14.28.29333\include\xmemory

; 810  :         _Deallocate<_New_alignof<_Ty>>(_Ptr, sizeof(_Ty) * _Count);

  0004c	83 c4 08	 add	 esp, 8
; File C:\Program Files (x86)\Microsoft Visual Studio\2019\Community\VC\Tools\MSVC\14.28.29333\include\vector

; 1699 :             _Mylast  = pointer();

  0004f	c7 47 14 00 00
	00 00		 mov	 DWORD PTR [edi+20], 0

; 1700 :             _Myend   = pointer();

  00056	c7 47 18 00 00
	00 00		 mov	 DWORD PTR [edi+24], 0
$LN27@CDynamicPo:

; 1694 :         if (_Myfirst) { // destroy and deallocate old array

  0005d	8b 4f 04	 mov	 ecx, DWORD PTR [edi+4]
  00060	85 c9		 test	 ecx, ecx
  00062	74 27		 je	 SHORT $LN34@CDynamicPo

; 1695 :             _Destroy(_Myfirst, _Mylast);
; 1696 :             _Getal().deallocate(_Myfirst, static_cast<size_type>(_Myend - _Myfirst));

  00064	8b 47 0c	 mov	 eax, DWORD PTR [edi+12]
  00067	2b c1		 sub	 eax, ecx
; File C:\Program Files (x86)\Microsoft Visual Studio\2019\Community\VC\Tools\MSVC\14.28.29333\include\xmemory

; 810  :         _Deallocate<_New_alignof<_Ty>>(_Ptr, sizeof(_Ty) * _Count);

  00069	83 e0 fc	 and	 eax, -4			; fffffffcH
  0006c	50		 push	 eax
  0006d	51		 push	 ecx
  0006e	e8 00 00 00 00	 call	 ??$_Deallocate@$07$0A@@std@@YAXPAXI@Z ; std::_Deallocate<8,0>
; File C:\Program Files (x86)\Microsoft Visual Studio\2019\Community\VC\Tools\MSVC\14.28.29333\include\vector

; 1698 :             _Myfirst = pointer();

  00073	c7 47 04 00 00
	00 00		 mov	 DWORD PTR [edi+4], 0
; File C:\Program Files (x86)\Microsoft Visual Studio\2019\Community\VC\Tools\MSVC\14.28.29333\include\xmemory

; 810  :         _Deallocate<_New_alignof<_Ty>>(_Ptr, sizeof(_Ty) * _Count);

  0007a	83 c4 08	 add	 esp, 8
; File C:\Program Files (x86)\Microsoft Visual Studio\2019\Community\VC\Tools\MSVC\14.28.29333\include\vector

; 1699 :             _Mylast  = pointer();

  0007d	c7 47 08 00 00
	00 00		 mov	 DWORD PTR [edi+8], 0

; 1700 :             _Myend   = pointer();

  00084	c7 47 0c 00 00
	00 00		 mov	 DWORD PTR [edi+12], 0
$LN34@CDynamicPo:
  0008b	5f		 pop	 edi
; File D:\Metin2 Server Files\mainline\SRC_2014\Metin2Client\eterLib\Pool.h

; 142  : 		}

  0008c	5e		 pop	 esi
  0008d	5b		 pop	 ebx
  0008e	c3		 ret	 0
??1?$CDynamicPoolEx@VCTextureAnimationRandomDecorator@NEffectUpdateDecorator@@@@UAE@XZ ENDP ; CDynamicPoolEx<NEffectUpdateDecorator::CTextureAnimationRandomDecorator>::~CDynamicPoolEx<NEffectUpdateDecorator::CTextureAnimationRandomDecorator>
_TEXT	ENDS
; Function compile flags: /Ogtp
;	COMDAT ??_G?$CDynamicPoolEx@VCAirResistanceDecorator@NEffectUpdateDecorator@@@@UAEPAXI@Z
_TEXT	SEGMENT
___flags$ = 8						; size = 4
??_G?$CDynamicPoolEx@VCAirResistanceDecorator@NEffectUpdateDecorator@@@@UAEPAXI@Z PROC ; CDynamicPoolEx<NEffectUpdateDecorator::CAirResistanceDecorator>::`scalar deleting destructor', COMDAT
; _this$ = ecx
  00000	55		 push	 ebp
  00001	8b ec		 mov	 ebp, esp
  00003	56		 push	 esi
  00004	8b f1		 mov	 esi, ecx
  00006	e8 00 00 00 00	 call	 ??1?$CDynamicPoolEx@VCAirResistanceDecorator@NEffectUpdateDecorator@@@@UAE@XZ ; CDynamicPoolEx<NEffectUpdateDecorator::CAirResistanceDecorator>::~CDynamicPoolEx<NEffectUpdateDecorator::CAirResistanceDecorator>
  0000b	f6 45 08 01	 test	 BYTE PTR ___flags$[ebp], 1
  0000f	74 0b		 je	 SHORT $LN4@scalar
  00011	6a 24		 push	 36			; 00000024H
  00013	56		 push	 esi
  00014	e8 00 00 00 00	 call	 ??3@YAXPAXI@Z		; operator delete
  00019	83 c4 08	 add	 esp, 8
$LN4@scalar:
  0001c	8b c6		 mov	 eax, esi
  0001e	5e		 pop	 esi
  0001f	5d		 pop	 ebp
  00020	c2 04 00	 ret	 4
??_G?$CDynamicPoolEx@VCAirResistanceDecorator@NEffectUpdateDecorator@@@@UAEPAXI@Z ENDP ; CDynamicPoolEx<NEffectUpdateDecorator::CAirResistanceDecorator>::`scalar deleting destructor'
_TEXT	ENDS
; Function compile flags: /Ogtp
; File D:\Metin2 Server Files\mainline\SRC_2014\Metin2Client\eterLib\Pool.h
;	COMDAT ?Delete@?$CDynamicPoolEx@VCAirResistanceDecorator@NEffectUpdateDecorator@@@@KAXPAVCAirResistanceDecorator@NEffectUpdateDecorator@@@Z
_TEXT	SEGMENT
_pkData$ = 8						; size = 4
?Delete@?$CDynamicPoolEx@VCAirResistanceDecorator@NEffectUpdateDecorator@@@@KAXPAVCAirResistanceDecorator@NEffectUpdateDecorator@@@Z PROC ; CDynamicPoolEx<NEffectUpdateDecorator::CAirResistanceDecorator>::Delete, COMDAT

; 224  : 			::operator delete(pkData);

  00000	e9 00 00 00 00	 jmp	 ??3@YAXPAX@Z		; operator delete
?Delete@?$CDynamicPoolEx@VCAirResistanceDecorator@NEffectUpdateDecorator@@@@KAXPAVCAirResistanceDecorator@NEffectUpdateDecorator@@@Z ENDP ; CDynamicPoolEx<NEffectUpdateDecorator::CAirResistanceDecorator>::Delete
_TEXT	ENDS
; Function compile flags: /Ogtp
; File D:\Metin2 Server Files\mainline\SRC_2014\Metin2Client\eterLib\Pool.h
; File C:\Program Files (x86)\Microsoft Visual Studio\2019\Community\VC\Tools\MSVC\14.28.29333\include\vector
; File C:\Program Files (x86)\Microsoft Visual Studio\2019\Community\VC\Tools\MSVC\14.28.29333\include\algorithm
; File D:\Metin2 Server Files\mainline\SRC_2014\Metin2Client\eterLib\Pool.h
; File C:\Program Files (x86)\Microsoft Visual Studio\2019\Community\VC\Tools\MSVC\14.28.29333\include\algorithm
; File D:\Metin2 Server Files\mainline\SRC_2014\Metin2Client\eterLib\Pool.h
; File C:\Program Files (x86)\Microsoft Visual Studio\2019\Community\VC\Tools\MSVC\14.28.29333\include\algorithm
; File D:\Metin2 Server Files\mainline\SRC_2014\Metin2Client\eterLib\Pool.h
; File C:\Program Files (x86)\Microsoft Visual Studio\2019\Community\VC\Tools\MSVC\14.28.29333\include\vector
; File C:\Program Files (x86)\Microsoft Visual Studio\2019\Community\VC\Tools\MSVC\14.28.29333\include\xmemory
; File C:\Program Files (x86)\Microsoft Visual Studio\2019\Community\VC\Tools\MSVC\14.28.29333\include\vector
; File C:\Program Files (x86)\Microsoft Visual Studio\2019\Community\VC\Tools\MSVC\14.28.29333\include\xmemory
; File C:\Program Files (x86)\Microsoft Visual Studio\2019\Community\VC\Tools\MSVC\14.28.29333\include\vector
; File C:\Program Files (x86)\Microsoft Visual Studio\2019\Community\VC\Tools\MSVC\14.28.29333\include\xmemory
; File C:\Program Files (x86)\Microsoft Visual Studio\2019\Community\VC\Tools\MSVC\14.28.29333\include\vector
; File C:\Program Files (x86)\Microsoft Visual Studio\2019\Community\VC\Tools\MSVC\14.28.29333\include\xmemory
; File C:\Program Files (x86)\Microsoft Visual Studio\2019\Community\VC\Tools\MSVC\14.28.29333\include\vector
; File D:\Metin2 Server Files\mainline\SRC_2014\Metin2Client\eterLib\Pool.h
;	COMDAT ??1?$CDynamicPoolEx@VCAirResistanceDecorator@NEffectUpdateDecorator@@@@UAE@XZ
_TEXT	SEGMENT
??1?$CDynamicPoolEx@VCAirResistanceDecorator@NEffectUpdateDecorator@@@@UAE@XZ PROC ; CDynamicPoolEx<NEffectUpdateDecorator::CAirResistanceDecorator>::~CDynamicPoolEx<NEffectUpdateDecorator::CAirResistanceDecorator>, COMDAT
; _this$ = ecx

; 132  : 		{

  00000	53		 push	 ebx
  00001	56		 push	 esi
  00002	57		 push	 edi
  00003	8b f9		 mov	 edi, ecx
  00005	c7 07 00 00 00
	00		 mov	 DWORD PTR [edi], OFFSET ??_7?$CDynamicPoolEx@VCAirResistanceDecorator@NEffectUpdateDecorator@@@@6B@
; File C:\Program Files (x86)\Microsoft Visual Studio\2019\Community\VC\Tools\MSVC\14.28.29333\include\vector

; 42   :     _Vector_const_iterator(_Tptr _Parg, const _Container_base* _Pvector) noexcept : _Ptr(_Parg) {

  0000b	8b 5f 08	 mov	 ebx, DWORD PTR [edi+8]
  0000e	8b 77 04	 mov	 esi, DWORD PTR [edi+4]
; File C:\Program Files (x86)\Microsoft Visual Studio\2019\Community\VC\Tools\MSVC\14.28.29333\include\algorithm

; 307  :     for (; _UFirst != _ULast; ++_UFirst) {

  00011	3b f3		 cmp	 esi, ebx
  00013	74 14		 je	 SHORT $LN19@CDynamicPo
$LL20@CDynamicPo:
; File D:\Metin2 Server Files\mainline\SRC_2014\Metin2Client\eterLib\Pool.h

; 224  : 			::operator delete(pkData);

  00015	ff 36		 push	 DWORD PTR [esi]
  00017	e8 00 00 00 00	 call	 ??3@YAXPAX@Z		; operator delete
; File C:\Program Files (x86)\Microsoft Visual Studio\2019\Community\VC\Tools\MSVC\14.28.29333\include\algorithm

; 307  :     for (; _UFirst != _ULast; ++_UFirst) {

  0001c	83 c6 04	 add	 esi, 4
; File D:\Metin2 Server Files\mainline\SRC_2014\Metin2Client\eterLib\Pool.h

; 224  : 			::operator delete(pkData);

  0001f	83 c4 04	 add	 esp, 4
; File C:\Program Files (x86)\Microsoft Visual Studio\2019\Community\VC\Tools\MSVC\14.28.29333\include\algorithm

; 307  :     for (; _UFirst != _ULast; ++_UFirst) {

  00022	3b f3		 cmp	 esi, ebx
  00024	75 ef		 jne	 SHORT $LL20@CDynamicPo
  00026	8b 77 04	 mov	 esi, DWORD PTR [edi+4]
$LN19@CDynamicPo:
; File D:\Metin2 Server Files\mainline\SRC_2014\Metin2Client\eterLib\Pool.h

; 162  : 			m_kVct_pkFree.clear();

  00029	8b 4f 10	 mov	 ecx, DWORD PTR [edi+16]
  0002c	89 77 08	 mov	 DWORD PTR [edi+8], esi
  0002f	89 4f 14	 mov	 DWORD PTR [edi+20], ecx
; File C:\Program Files (x86)\Microsoft Visual Studio\2019\Community\VC\Tools\MSVC\14.28.29333\include\vector

; 1694 :         if (_Myfirst) { // destroy and deallocate old array

  00032	85 c9		 test	 ecx, ecx
  00034	74 27		 je	 SHORT $LN27@CDynamicPo

; 1695 :             _Destroy(_Myfirst, _Mylast);
; 1696 :             _Getal().deallocate(_Myfirst, static_cast<size_type>(_Myend - _Myfirst));

  00036	8b 47 18	 mov	 eax, DWORD PTR [edi+24]
  00039	2b c1		 sub	 eax, ecx
; File C:\Program Files (x86)\Microsoft Visual Studio\2019\Community\VC\Tools\MSVC\14.28.29333\include\xmemory

; 810  :         _Deallocate<_New_alignof<_Ty>>(_Ptr, sizeof(_Ty) * _Count);

  0003b	83 e0 fc	 and	 eax, -4			; fffffffcH
  0003e	50		 push	 eax
  0003f	51		 push	 ecx
  00040	e8 00 00 00 00	 call	 ??$_Deallocate@$07$0A@@std@@YAXPAXI@Z ; std::_Deallocate<8,0>
; File C:\Program Files (x86)\Microsoft Visual Studio\2019\Community\VC\Tools\MSVC\14.28.29333\include\vector

; 1698 :             _Myfirst = pointer();

  00045	c7 47 10 00 00
	00 00		 mov	 DWORD PTR [edi+16], 0
; File C:\Program Files (x86)\Microsoft Visual Studio\2019\Community\VC\Tools\MSVC\14.28.29333\include\xmemory

; 810  :         _Deallocate<_New_alignof<_Ty>>(_Ptr, sizeof(_Ty) * _Count);

  0004c	83 c4 08	 add	 esp, 8
; File C:\Program Files (x86)\Microsoft Visual Studio\2019\Community\VC\Tools\MSVC\14.28.29333\include\vector

; 1699 :             _Mylast  = pointer();

  0004f	c7 47 14 00 00
	00 00		 mov	 DWORD PTR [edi+20], 0

; 1700 :             _Myend   = pointer();

  00056	c7 47 18 00 00
	00 00		 mov	 DWORD PTR [edi+24], 0
$LN27@CDynamicPo:

; 1694 :         if (_Myfirst) { // destroy and deallocate old array

  0005d	8b 4f 04	 mov	 ecx, DWORD PTR [edi+4]
  00060	85 c9		 test	 ecx, ecx
  00062	74 27		 je	 SHORT $LN34@CDynamicPo

; 1695 :             _Destroy(_Myfirst, _Mylast);
; 1696 :             _Getal().deallocate(_Myfirst, static_cast<size_type>(_Myend - _Myfirst));

  00064	8b 47 0c	 mov	 eax, DWORD PTR [edi+12]
  00067	2b c1		 sub	 eax, ecx
; File C:\Program Files (x86)\Microsoft Visual Studio\2019\Community\VC\Tools\MSVC\14.28.29333\include\xmemory

; 810  :         _Deallocate<_New_alignof<_Ty>>(_Ptr, sizeof(_Ty) * _Count);

  00069	83 e0 fc	 and	 eax, -4			; fffffffcH
  0006c	50		 push	 eax
  0006d	51		 push	 ecx
  0006e	e8 00 00 00 00	 call	 ??$_Deallocate@$07$0A@@std@@YAXPAXI@Z ; std::_Deallocate<8,0>
; File C:\Program Files (x86)\Microsoft Visual Studio\2019\Community\VC\Tools\MSVC\14.28.29333\include\vector

; 1698 :             _Myfirst = pointer();

  00073	c7 47 04 00 00
	00 00		 mov	 DWORD PTR [edi+4], 0
; File C:\Program Files (x86)\Microsoft Visual Studio\2019\Community\VC\Tools\MSVC\14.28.29333\include\xmemory

; 810  :         _Deallocate<_New_alignof<_Ty>>(_Ptr, sizeof(_Ty) * _Count);

  0007a	83 c4 08	 add	 esp, 8
; File C:\Program Files (x86)\Microsoft Visual Studio\2019\Community\VC\Tools\MSVC\14.28.29333\include\vector

; 1699 :             _Mylast  = pointer();

  0007d	c7 47 08 00 00
	00 00		 mov	 DWORD PTR [edi+8], 0

; 1700 :             _Myend   = pointer();

  00084	c7 47 0c 00 00
	00 00		 mov	 DWORD PTR [edi+12], 0
$LN34@CDynamicPo:
  0008b	5f		 pop	 edi
; File D:\Metin2 Server Files\mainline\SRC_2014\Metin2Client\eterLib\Pool.h

; 142  : 		}

  0008c	5e		 pop	 esi
  0008d	5b		 pop	 ebx
  0008e	c3		 ret	 0
??1?$CDynamicPoolEx@VCAirResistanceDecorator@NEffectUpdateDecorator@@@@UAE@XZ ENDP ; CDynamicPoolEx<NEffectUpdateDecorator::CAirResistanceDecorator>::~CDynamicPoolEx<NEffectUpdateDecorator::CAirResistanceDecorator>
_TEXT	ENDS
; Function compile flags: /Ogtp
;	COMDAT ??_G?$CDynamicPoolEx@VCGravityDecorator@NEffectUpdateDecorator@@@@UAEPAXI@Z
_TEXT	SEGMENT
___flags$ = 8						; size = 4
??_G?$CDynamicPoolEx@VCGravityDecorator@NEffectUpdateDecorator@@@@UAEPAXI@Z PROC ; CDynamicPoolEx<NEffectUpdateDecorator::CGravityDecorator>::`scalar deleting destructor', COMDAT
; _this$ = ecx
  00000	55		 push	 ebp
  00001	8b ec		 mov	 ebp, esp
  00003	56		 push	 esi
  00004	8b f1		 mov	 esi, ecx
  00006	e8 00 00 00 00	 call	 ??1?$CDynamicPoolEx@VCGravityDecorator@NEffectUpdateDecorator@@@@UAE@XZ ; CDynamicPoolEx<NEffectUpdateDecorator::CGravityDecorator>::~CDynamicPoolEx<NEffectUpdateDecorator::CGravityDecorator>
  0000b	f6 45 08 01	 test	 BYTE PTR ___flags$[ebp], 1
  0000f	74 0b		 je	 SHORT $LN4@scalar
  00011	6a 24		 push	 36			; 00000024H
  00013	56		 push	 esi
  00014	e8 00 00 00 00	 call	 ??3@YAXPAXI@Z		; operator delete
  00019	83 c4 08	 add	 esp, 8
$LN4@scalar:
  0001c	8b c6		 mov	 eax, esi
  0001e	5e		 pop	 esi
  0001f	5d		 pop	 ebp
  00020	c2 04 00	 ret	 4
??_G?$CDynamicPoolEx@VCGravityDecorator@NEffectUpdateDecorator@@@@UAEPAXI@Z ENDP ; CDynamicPoolEx<NEffectUpdateDecorator::CGravityDecorator>::`scalar deleting destructor'
_TEXT	ENDS
; Function compile flags: /Ogtp
; File D:\Metin2 Server Files\mainline\SRC_2014\Metin2Client\eterLib\Pool.h
;	COMDAT ?Delete@?$CDynamicPoolEx@VCGravityDecorator@NEffectUpdateDecorator@@@@KAXPAVCGravityDecorator@NEffectUpdateDecorator@@@Z
_TEXT	SEGMENT
_pkData$ = 8						; size = 4
?Delete@?$CDynamicPoolEx@VCGravityDecorator@NEffectUpdateDecorator@@@@KAXPAVCGravityDecorator@NEffectUpdateDecorator@@@Z PROC ; CDynamicPoolEx<NEffectUpdateDecorator::CGravityDecorator>::Delete, COMDAT

; 224  : 			::operator delete(pkData);

  00000	e9 00 00 00 00	 jmp	 ??3@YAXPAX@Z		; operator delete
?Delete@?$CDynamicPoolEx@VCGravityDecorator@NEffectUpdateDecorator@@@@KAXPAVCGravityDecorator@NEffectUpdateDecorator@@@Z ENDP ; CDynamicPoolEx<NEffectUpdateDecorator::CGravityDecorator>::Delete
_TEXT	ENDS
; Function compile flags: /Ogtp
; File D:\Metin2 Server Files\mainline\SRC_2014\Metin2Client\eterLib\Pool.h
; File C:\Program Files (x86)\Microsoft Visual Studio\2019\Community\VC\Tools\MSVC\14.28.29333\include\vector
; File C:\Program Files (x86)\Microsoft Visual Studio\2019\Community\VC\Tools\MSVC\14.28.29333\include\algorithm
; File D:\Metin2 Server Files\mainline\SRC_2014\Metin2Client\eterLib\Pool.h
; File C:\Program Files (x86)\Microsoft Visual Studio\2019\Community\VC\Tools\MSVC\14.28.29333\include\algorithm
; File D:\Metin2 Server Files\mainline\SRC_2014\Metin2Client\eterLib\Pool.h
; File C:\Program Files (x86)\Microsoft Visual Studio\2019\Community\VC\Tools\MSVC\14.28.29333\include\algorithm
; File D:\Metin2 Server Files\mainline\SRC_2014\Metin2Client\eterLib\Pool.h
; File C:\Program Files (x86)\Microsoft Visual Studio\2019\Community\VC\Tools\MSVC\14.28.29333\include\vector
; File C:\Program Files (x86)\Microsoft Visual Studio\2019\Community\VC\Tools\MSVC\14.28.29333\include\xmemory
; File C:\Program Files (x86)\Microsoft Visual Studio\2019\Community\VC\Tools\MSVC\14.28.29333\include\vector
; File C:\Program Files (x86)\Microsoft Visual Studio\2019\Community\VC\Tools\MSVC\14.28.29333\include\xmemory
; File C:\Program Files (x86)\Microsoft Visual Studio\2019\Community\VC\Tools\MSVC\14.28.29333\include\vector
; File C:\Program Files (x86)\Microsoft Visual Studio\2019\Community\VC\Tools\MSVC\14.28.29333\include\xmemory
; File C:\Program Files (x86)\Microsoft Visual Studio\2019\Community\VC\Tools\MSVC\14.28.29333\include\vector
; File C:\Program Files (x86)\Microsoft Visual Studio\2019\Community\VC\Tools\MSVC\14.28.29333\include\xmemory
; File C:\Program Files (x86)\Microsoft Visual Studio\2019\Community\VC\Tools\MSVC\14.28.29333\include\vector
; File D:\Metin2 Server Files\mainline\SRC_2014\Metin2Client\eterLib\Pool.h
;	COMDAT ??1?$CDynamicPoolEx@VCGravityDecorator@NEffectUpdateDecorator@@@@UAE@XZ
_TEXT	SEGMENT
??1?$CDynamicPoolEx@VCGravityDecorator@NEffectUpdateDecorator@@@@UAE@XZ PROC ; CDynamicPoolEx<NEffectUpdateDecorator::CGravityDecorator>::~CDynamicPoolEx<NEffectUpdateDecorator::CGravityDecorator>, COMDAT
; _this$ = ecx

; 132  : 		{

  00000	53		 push	 ebx
  00001	56		 push	 esi
  00002	57		 push	 edi
  00003	8b f9		 mov	 edi, ecx
  00005	c7 07 00 00 00
	00		 mov	 DWORD PTR [edi], OFFSET ??_7?$CDynamicPoolEx@VCGravityDecorator@NEffectUpdateDecorator@@@@6B@
; File C:\Program Files (x86)\Microsoft Visual Studio\2019\Community\VC\Tools\MSVC\14.28.29333\include\vector

; 42   :     _Vector_const_iterator(_Tptr _Parg, const _Container_base* _Pvector) noexcept : _Ptr(_Parg) {

  0000b	8b 5f 08	 mov	 ebx, DWORD PTR [edi+8]
  0000e	8b 77 04	 mov	 esi, DWORD PTR [edi+4]
; File C:\Program Files (x86)\Microsoft Visual Studio\2019\Community\VC\Tools\MSVC\14.28.29333\include\algorithm

; 307  :     for (; _UFirst != _ULast; ++_UFirst) {

  00011	3b f3		 cmp	 esi, ebx
  00013	74 14		 je	 SHORT $LN19@CDynamicPo
$LL20@CDynamicPo:
; File D:\Metin2 Server Files\mainline\SRC_2014\Metin2Client\eterLib\Pool.h

; 224  : 			::operator delete(pkData);

  00015	ff 36		 push	 DWORD PTR [esi]
  00017	e8 00 00 00 00	 call	 ??3@YAXPAX@Z		; operator delete
; File C:\Program Files (x86)\Microsoft Visual Studio\2019\Community\VC\Tools\MSVC\14.28.29333\include\algorithm

; 307  :     for (; _UFirst != _ULast; ++_UFirst) {

  0001c	83 c6 04	 add	 esi, 4
; File D:\Metin2 Server Files\mainline\SRC_2014\Metin2Client\eterLib\Pool.h

; 224  : 			::operator delete(pkData);

  0001f	83 c4 04	 add	 esp, 4
; File C:\Program Files (x86)\Microsoft Visual Studio\2019\Community\VC\Tools\MSVC\14.28.29333\include\algorithm

; 307  :     for (; _UFirst != _ULast; ++_UFirst) {

  00022	3b f3		 cmp	 esi, ebx
  00024	75 ef		 jne	 SHORT $LL20@CDynamicPo
  00026	8b 77 04	 mov	 esi, DWORD PTR [edi+4]
$LN19@CDynamicPo:
; File D:\Metin2 Server Files\mainline\SRC_2014\Metin2Client\eterLib\Pool.h

; 162  : 			m_kVct_pkFree.clear();

  00029	8b 4f 10	 mov	 ecx, DWORD PTR [edi+16]
  0002c	89 77 08	 mov	 DWORD PTR [edi+8], esi
  0002f	89 4f 14	 mov	 DWORD PTR [edi+20], ecx
; File C:\Program Files (x86)\Microsoft Visual Studio\2019\Community\VC\Tools\MSVC\14.28.29333\include\vector

; 1694 :         if (_Myfirst) { // destroy and deallocate old array

  00032	85 c9		 test	 ecx, ecx
  00034	74 27		 je	 SHORT $LN27@CDynamicPo

; 1695 :             _Destroy(_Myfirst, _Mylast);
; 1696 :             _Getal().deallocate(_Myfirst, static_cast<size_type>(_Myend - _Myfirst));

  00036	8b 47 18	 mov	 eax, DWORD PTR [edi+24]
  00039	2b c1		 sub	 eax, ecx
; File C:\Program Files (x86)\Microsoft Visual Studio\2019\Community\VC\Tools\MSVC\14.28.29333\include\xmemory

; 810  :         _Deallocate<_New_alignof<_Ty>>(_Ptr, sizeof(_Ty) * _Count);

  0003b	83 e0 fc	 and	 eax, -4			; fffffffcH
  0003e	50		 push	 eax
  0003f	51		 push	 ecx
  00040	e8 00 00 00 00	 call	 ??$_Deallocate@$07$0A@@std@@YAXPAXI@Z ; std::_Deallocate<8,0>
; File C:\Program Files (x86)\Microsoft Visual Studio\2019\Community\VC\Tools\MSVC\14.28.29333\include\vector

; 1698 :             _Myfirst = pointer();

  00045	c7 47 10 00 00
	00 00		 mov	 DWORD PTR [edi+16], 0
; File C:\Program Files (x86)\Microsoft Visual Studio\2019\Community\VC\Tools\MSVC\14.28.29333\include\xmemory

; 810  :         _Deallocate<_New_alignof<_Ty>>(_Ptr, sizeof(_Ty) * _Count);

  0004c	83 c4 08	 add	 esp, 8
; File C:\Program Files (x86)\Microsoft Visual Studio\2019\Community\VC\Tools\MSVC\14.28.29333\include\vector

; 1699 :             _Mylast  = pointer();

  0004f	c7 47 14 00 00
	00 00		 mov	 DWORD PTR [edi+20], 0

; 1700 :             _Myend   = pointer();

  00056	c7 47 18 00 00
	00 00		 mov	 DWORD PTR [edi+24], 0
$LN27@CDynamicPo:

; 1694 :         if (_Myfirst) { // destroy and deallocate old array

  0005d	8b 4f 04	 mov	 ecx, DWORD PTR [edi+4]
  00060	85 c9		 test	 ecx, ecx
  00062	74 27		 je	 SHORT $LN34@CDynamicPo

; 1695 :             _Destroy(_Myfirst, _Mylast);
; 1696 :             _Getal().deallocate(_Myfirst, static_cast<size_type>(_Myend - _Myfirst));

  00064	8b 47 0c	 mov	 eax, DWORD PTR [edi+12]
  00067	2b c1		 sub	 eax, ecx
; File C:\Program Files (x86)\Microsoft Visual Studio\2019\Community\VC\Tools\MSVC\14.28.29333\include\xmemory

; 810  :         _Deallocate<_New_alignof<_Ty>>(_Ptr, sizeof(_Ty) * _Count);

  00069	83 e0 fc	 and	 eax, -4			; fffffffcH
  0006c	50		 push	 eax
  0006d	51		 push	 ecx
  0006e	e8 00 00 00 00	 call	 ??$_Deallocate@$07$0A@@std@@YAXPAXI@Z ; std::_Deallocate<8,0>
; File C:\Program Files (x86)\Microsoft Visual Studio\2019\Community\VC\Tools\MSVC\14.28.29333\include\vector

; 1698 :             _Myfirst = pointer();

  00073	c7 47 04 00 00
	00 00		 mov	 DWORD PTR [edi+4], 0
; File C:\Program Files (x86)\Microsoft Visual Studio\2019\Community\VC\Tools\MSVC\14.28.29333\include\xmemory

; 810  :         _Deallocate<_New_alignof<_Ty>>(_Ptr, sizeof(_Ty) * _Count);

  0007a	83 c4 08	 add	 esp, 8
; File C:\Program Files (x86)\Microsoft Visual Studio\2019\Community\VC\Tools\MSVC\14.28.29333\include\vector

; 1699 :             _Mylast  = pointer();

  0007d	c7 47 08 00 00
	00 00		 mov	 DWORD PTR [edi+8], 0

; 1700 :             _Myend   = pointer();

  00084	c7 47 0c 00 00
	00 00		 mov	 DWORD PTR [edi+12], 0
$LN34@CDynamicPo:
  0008b	5f		 pop	 edi
; File D:\Metin2 Server Files\mainline\SRC_2014\Metin2Client\eterLib\Pool.h

; 142  : 		}

  0008c	5e		 pop	 esi
  0008d	5b		 pop	 ebx
  0008e	c3		 ret	 0
??1?$CDynamicPoolEx@VCGravityDecorator@NEffectUpdateDecorator@@@@UAE@XZ ENDP ; CDynamicPoolEx<NEffectUpdateDecorator::CGravityDecorator>::~CDynamicPoolEx<NEffectUpdateDecorator::CGravityDecorator>
_TEXT	ENDS
; Function compile flags: /Ogtp
;	COMDAT ??_G?$CDynamicPoolEx@VCRotationDecorator@NEffectUpdateDecorator@@@@UAEPAXI@Z
_TEXT	SEGMENT
___flags$ = 8						; size = 4
??_G?$CDynamicPoolEx@VCRotationDecorator@NEffectUpdateDecorator@@@@UAEPAXI@Z PROC ; CDynamicPoolEx<NEffectUpdateDecorator::CRotationDecorator>::`scalar deleting destructor', COMDAT
; _this$ = ecx
  00000	55		 push	 ebp
  00001	8b ec		 mov	 ebp, esp
  00003	56		 push	 esi
  00004	8b f1		 mov	 esi, ecx
  00006	e8 00 00 00 00	 call	 ??1?$CDynamicPoolEx@VCRotationDecorator@NEffectUpdateDecorator@@@@UAE@XZ ; CDynamicPoolEx<NEffectUpdateDecorator::CRotationDecorator>::~CDynamicPoolEx<NEffectUpdateDecorator::CRotationDecorator>
  0000b	f6 45 08 01	 test	 BYTE PTR ___flags$[ebp], 1
  0000f	74 0b		 je	 SHORT $LN4@scalar
  00011	6a 24		 push	 36			; 00000024H
  00013	56		 push	 esi
  00014	e8 00 00 00 00	 call	 ??3@YAXPAXI@Z		; operator delete
  00019	83 c4 08	 add	 esp, 8
$LN4@scalar:
  0001c	8b c6		 mov	 eax, esi
  0001e	5e		 pop	 esi
  0001f	5d		 pop	 ebp
  00020	c2 04 00	 ret	 4
??_G?$CDynamicPoolEx@VCRotationDecorator@NEffectUpdateDecorator@@@@UAEPAXI@Z ENDP ; CDynamicPoolEx<NEffectUpdateDecorator::CRotationDecorator>::`scalar deleting destructor'
_TEXT	ENDS
; Function compile flags: /Ogtp
; File D:\Metin2 Server Files\mainline\SRC_2014\Metin2Client\eterLib\Pool.h
;	COMDAT ?Delete@?$CDynamicPoolEx@VCRotationDecorator@NEffectUpdateDecorator@@@@KAXPAVCRotationDecorator@NEffectUpdateDecorator@@@Z
_TEXT	SEGMENT
_pkData$ = 8						; size = 4
?Delete@?$CDynamicPoolEx@VCRotationDecorator@NEffectUpdateDecorator@@@@KAXPAVCRotationDecorator@NEffectUpdateDecorator@@@Z PROC ; CDynamicPoolEx<NEffectUpdateDecorator::CRotationDecorator>::Delete, COMDAT

; 224  : 			::operator delete(pkData);

  00000	e9 00 00 00 00	 jmp	 ??3@YAXPAX@Z		; operator delete
?Delete@?$CDynamicPoolEx@VCRotationDecorator@NEffectUpdateDecorator@@@@KAXPAVCRotationDecorator@NEffectUpdateDecorator@@@Z ENDP ; CDynamicPoolEx<NEffectUpdateDecorator::CRotationDecorator>::Delete
_TEXT	ENDS
; Function compile flags: /Ogtp
; File D:\Metin2 Server Files\mainline\SRC_2014\Metin2Client\eterLib\Pool.h
; File C:\Program Files (x86)\Microsoft Visual Studio\2019\Community\VC\Tools\MSVC\14.28.29333\include\vector
; File C:\Program Files (x86)\Microsoft Visual Studio\2019\Community\VC\Tools\MSVC\14.28.29333\include\algorithm
; File D:\Metin2 Server Files\mainline\SRC_2014\Metin2Client\eterLib\Pool.h
; File C:\Program Files (x86)\Microsoft Visual Studio\2019\Community\VC\Tools\MSVC\14.28.29333\include\algorithm
; File D:\Metin2 Server Files\mainline\SRC_2014\Metin2Client\eterLib\Pool.h
; File C:\Program Files (x86)\Microsoft Visual Studio\2019\Community\VC\Tools\MSVC\14.28.29333\include\algorithm
; File D:\Metin2 Server Files\mainline\SRC_2014\Metin2Client\eterLib\Pool.h
; File C:\Program Files (x86)\Microsoft Visual Studio\2019\Community\VC\Tools\MSVC\14.28.29333\include\vector
; File C:\Program Files (x86)\Microsoft Visual Studio\2019\Community\VC\Tools\MSVC\14.28.29333\include\xmemory
; File C:\Program Files (x86)\Microsoft Visual Studio\2019\Community\VC\Tools\MSVC\14.28.29333\include\vector
; File C:\Program Files (x86)\Microsoft Visual Studio\2019\Community\VC\Tools\MSVC\14.28.29333\include\xmemory
; File C:\Program Files (x86)\Microsoft Visual Studio\2019\Community\VC\Tools\MSVC\14.28.29333\include\vector
; File C:\Program Files (x86)\Microsoft Visual Studio\2019\Community\VC\Tools\MSVC\14.28.29333\include\xmemory
; File C:\Program Files (x86)\Microsoft Visual Studio\2019\Community\VC\Tools\MSVC\14.28.29333\include\vector
; File C:\Program Files (x86)\Microsoft Visual Studio\2019\Community\VC\Tools\MSVC\14.28.29333\include\xmemory
; File C:\Program Files (x86)\Microsoft Visual Studio\2019\Community\VC\Tools\MSVC\14.28.29333\include\vector
; File D:\Metin2 Server Files\mainline\SRC_2014\Metin2Client\eterLib\Pool.h
;	COMDAT ??1?$CDynamicPoolEx@VCRotationDecorator@NEffectUpdateDecorator@@@@UAE@XZ
_TEXT	SEGMENT
??1?$CDynamicPoolEx@VCRotationDecorator@NEffectUpdateDecorator@@@@UAE@XZ PROC ; CDynamicPoolEx<NEffectUpdateDecorator::CRotationDecorator>::~CDynamicPoolEx<NEffectUpdateDecorator::CRotationDecorator>, COMDAT
; _this$ = ecx

; 132  : 		{

  00000	53		 push	 ebx
  00001	56		 push	 esi
  00002	57		 push	 edi
  00003	8b f9		 mov	 edi, ecx
  00005	c7 07 00 00 00
	00		 mov	 DWORD PTR [edi], OFFSET ??_7?$CDynamicPoolEx@VCRotationDecorator@NEffectUpdateDecorator@@@@6B@
; File C:\Program Files (x86)\Microsoft Visual Studio\2019\Community\VC\Tools\MSVC\14.28.29333\include\vector

; 42   :     _Vector_const_iterator(_Tptr _Parg, const _Container_base* _Pvector) noexcept : _Ptr(_Parg) {

  0000b	8b 5f 08	 mov	 ebx, DWORD PTR [edi+8]
  0000e	8b 77 04	 mov	 esi, DWORD PTR [edi+4]
; File C:\Program Files (x86)\Microsoft Visual Studio\2019\Community\VC\Tools\MSVC\14.28.29333\include\algorithm

; 307  :     for (; _UFirst != _ULast; ++_UFirst) {

  00011	3b f3		 cmp	 esi, ebx
  00013	74 14		 je	 SHORT $LN19@CDynamicPo
$LL20@CDynamicPo:
; File D:\Metin2 Server Files\mainline\SRC_2014\Metin2Client\eterLib\Pool.h

; 224  : 			::operator delete(pkData);

  00015	ff 36		 push	 DWORD PTR [esi]
  00017	e8 00 00 00 00	 call	 ??3@YAXPAX@Z		; operator delete
; File C:\Program Files (x86)\Microsoft Visual Studio\2019\Community\VC\Tools\MSVC\14.28.29333\include\algorithm

; 307  :     for (; _UFirst != _ULast; ++_UFirst) {

  0001c	83 c6 04	 add	 esi, 4
; File D:\Metin2 Server Files\mainline\SRC_2014\Metin2Client\eterLib\Pool.h

; 224  : 			::operator delete(pkData);

  0001f	83 c4 04	 add	 esp, 4
; File C:\Program Files (x86)\Microsoft Visual Studio\2019\Community\VC\Tools\MSVC\14.28.29333\include\algorithm

; 307  :     for (; _UFirst != _ULast; ++_UFirst) {

  00022	3b f3		 cmp	 esi, ebx
  00024	75 ef		 jne	 SHORT $LL20@CDynamicPo
  00026	8b 77 04	 mov	 esi, DWORD PTR [edi+4]
$LN19@CDynamicPo:
; File D:\Metin2 Server Files\mainline\SRC_2014\Metin2Client\eterLib\Pool.h

; 162  : 			m_kVct_pkFree.clear();

  00029	8b 4f 10	 mov	 ecx, DWORD PTR [edi+16]
  0002c	89 77 08	 mov	 DWORD PTR [edi+8], esi
  0002f	89 4f 14	 mov	 DWORD PTR [edi+20], ecx
; File C:\Program Files (x86)\Microsoft Visual Studio\2019\Community\VC\Tools\MSVC\14.28.29333\include\vector

; 1694 :         if (_Myfirst) { // destroy and deallocate old array

  00032	85 c9		 test	 ecx, ecx
  00034	74 27		 je	 SHORT $LN27@CDynamicPo

; 1695 :             _Destroy(_Myfirst, _Mylast);
; 1696 :             _Getal().deallocate(_Myfirst, static_cast<size_type>(_Myend - _Myfirst));

  00036	8b 47 18	 mov	 eax, DWORD PTR [edi+24]
  00039	2b c1		 sub	 eax, ecx
; File C:\Program Files (x86)\Microsoft Visual Studio\2019\Community\VC\Tools\MSVC\14.28.29333\include\xmemory

; 810  :         _Deallocate<_New_alignof<_Ty>>(_Ptr, sizeof(_Ty) * _Count);

  0003b	83 e0 fc	 and	 eax, -4			; fffffffcH
  0003e	50		 push	 eax
  0003f	51		 push	 ecx
  00040	e8 00 00 00 00	 call	 ??$_Deallocate@$07$0A@@std@@YAXPAXI@Z ; std::_Deallocate<8,0>
; File C:\Program Files (x86)\Microsoft Visual Studio\2019\Community\VC\Tools\MSVC\14.28.29333\include\vector

; 1698 :             _Myfirst = pointer();

  00045	c7 47 10 00 00
	00 00		 mov	 DWORD PTR [edi+16], 0
; File C:\Program Files (x86)\Microsoft Visual Studio\2019\Community\VC\Tools\MSVC\14.28.29333\include\xmemory

; 810  :         _Deallocate<_New_alignof<_Ty>>(_Ptr, sizeof(_Ty) * _Count);

  0004c	83 c4 08	 add	 esp, 8
; File C:\Program Files (x86)\Microsoft Visual Studio\2019\Community\VC\Tools\MSVC\14.28.29333\include\vector

; 1699 :             _Mylast  = pointer();

  0004f	c7 47 14 00 00
	00 00		 mov	 DWORD PTR [edi+20], 0

; 1700 :             _Myend   = pointer();

  00056	c7 47 18 00 00
	00 00		 mov	 DWORD PTR [edi+24], 0
$LN27@CDynamicPo:

; 1694 :         if (_Myfirst) { // destroy and deallocate old array

  0005d	8b 4f 04	 mov	 ecx, DWORD PTR [edi+4]
  00060	85 c9		 test	 ecx, ecx
  00062	74 27		 je	 SHORT $LN34@CDynamicPo

; 1695 :             _Destroy(_Myfirst, _Mylast);
; 1696 :             _Getal().deallocate(_Myfirst, static_cast<size_type>(_Myend - _Myfirst));

  00064	8b 47 0c	 mov	 eax, DWORD PTR [edi+12]
  00067	2b c1		 sub	 eax, ecx
; File C:\Program Files (x86)\Microsoft Visual Studio\2019\Community\VC\Tools\MSVC\14.28.29333\include\xmemory

; 810  :         _Deallocate<_New_alignof<_Ty>>(_Ptr, sizeof(_Ty) * _Count);

  00069	83 e0 fc	 and	 eax, -4			; fffffffcH
  0006c	50		 push	 eax
  0006d	51		 push	 ecx
  0006e	e8 00 00 00 00	 call	 ??$_Deallocate@$07$0A@@std@@YAXPAXI@Z ; std::_Deallocate<8,0>
; File C:\Program Files (x86)\Microsoft Visual Studio\2019\Community\VC\Tools\MSVC\14.28.29333\include\vector

; 1698 :             _Myfirst = pointer();

  00073	c7 47 04 00 00
	00 00		 mov	 DWORD PTR [edi+4], 0
; File C:\Program Files (x86)\Microsoft Visual Studio\2019\Community\VC\Tools\MSVC\14.28.29333\include\xmemory

; 810  :         _Deallocate<_New_alignof<_Ty>>(_Ptr, sizeof(_Ty) * _Count);

  0007a	83 c4 08	 add	 esp, 8
; File C:\Program Files (x86)\Microsoft Visual Studio\2019\Community\VC\Tools\MSVC\14.28.29333\include\vector

; 1699 :             _Mylast  = pointer();

  0007d	c7 47 08 00 00
	00 00		 mov	 DWORD PTR [edi+8], 0

; 1700 :             _Myend   = pointer();

  00084	c7 47 0c 00 00
	00 00		 mov	 DWORD PTR [edi+12], 0
$LN34@CDynamicPo:
  0008b	5f		 pop	 edi
; File D:\Metin2 Server Files\mainline\SRC_2014\Metin2Client\eterLib\Pool.h

; 142  : 		}

  0008c	5e		 pop	 esi
  0008d	5b		 pop	 ebx
  0008e	c3		 ret	 0
??1?$CDynamicPoolEx@VCRotationDecorator@NEffectUpdateDecorator@@@@UAE@XZ ENDP ; CDynamicPoolEx<NEffectUpdateDecorator::CRotationDecorator>::~CDynamicPoolEx<NEffectUpdateDecorator::CRotationDecorator>
_TEXT	ENDS
; Function compile flags: /Ogtp
; File C:\Program Files (x86)\Microsoft Visual Studio\2019\Community\VC\Tools\MSVC\14.28.29333\include\xtree
; File C:\Program Files (x86)\Microsoft Visual Studio\2019\Community\VC\Tools\MSVC\14.28.29333\include\utility
; File C:\Program Files (x86)\Microsoft Visual Studio\2019\Community\VC\Tools\MSVC\14.28.29333\include\xmemory
; File C:\Program Files (x86)\Microsoft Visual Studio\2019\Community\VC\Tools\MSVC\14.28.29333\include\xtree
;	COMDAT ??$_Erase_tree@V?$allocator@U?$_Tree_node@U?$pair@$$CBKPAUSTextTail@CPythonTextTail@@@std@@PAX@std@@@std@@@?$_Tree_val@U?$_Tree_simple_types@U?$pair@$$CBKPAUSTextTail@CPythonTextTail@@@std@@@std@@@std@@QAEXAAV?$allocator@U?$_Tree_node@U?$pair@$$CBKPAUSTextTail@CPythonTextTail@@@std@@PAX@std@@@1@PAU?$_Tree_node@U?$pair@$$CBKPAUSTextTail@CPythonTextTail@@@std@@PAX@1@@Z
_TEXT	SEGMENT
__Al$ = 8						; size = 4
__Rootnode$ = 12					; size = 4
??$_Erase_tree@V?$allocator@U?$_Tree_node@U?$pair@$$CBKPAUSTextTail@CPythonTextTail@@@std@@PAX@std@@@std@@@?$_Tree_val@U?$_Tree_simple_types@U?$pair@$$CBKPAUSTextTail@CPythonTextTail@@@std@@@std@@@std@@QAEXAAV?$allocator@U?$_Tree_node@U?$pair@$$CBKPAUSTextTail@CPythonTextTail@@@std@@PAX@std@@@1@PAU?$_Tree_node@U?$pair@$$CBKPAUSTextTail@CPythonTextTail@@@std@@PAX@1@@Z PROC ; std::_Tree_val<std::_Tree_simple_types<std::pair<unsigned long const ,CPythonTextTail::STextTail *> > >::_Erase_tree<std::allocator<std::_Tree_node<std::pair<unsigned long const ,CPythonTextTail::STextTail *>,void *> > >, COMDAT
; _this$ = ecx

; 742  :     void _Erase_tree(_Alnode& _Al, _Nodeptr _Rootnode) noexcept {

  00000	55		 push	 ebp
  00001	8b ec		 mov	 ebp, esp
  00003	53		 push	 ebx
  00004	56		 push	 esi

; 743  :         while (!_Rootnode->_Isnil) { // free subtrees, then node

  00005	8b 75 0c	 mov	 esi, DWORD PTR __Rootnode$[ebp]
  00008	8b d9		 mov	 ebx, ecx
  0000a	80 7e 0d 00	 cmp	 BYTE PTR [esi+13], 0
  0000e	75 25		 jne	 SHORT $LN3@Erase_tree
  00010	57		 push	 edi
  00011	8b 7d 08	 mov	 edi, DWORD PTR __Al$[ebp]
$LL2@Erase_tree:

; 744  :             _Erase_tree(_Al, _Rootnode->_Right);

  00014	ff 76 08	 push	 DWORD PTR [esi+8]
  00017	8b cb		 mov	 ecx, ebx
  00019	57		 push	 edi
  0001a	e8 00 00 00 00	 call	 ??$_Erase_tree@V?$allocator@U?$_Tree_node@U?$pair@$$CBKPAUSTextTail@CPythonTextTail@@@std@@PAX@std@@@std@@@?$_Tree_val@U?$_Tree_simple_types@U?$pair@$$CBKPAUSTextTail@CPythonTextTail@@@std@@@std@@@std@@QAEXAAV?$allocator@U?$_Tree_node@U?$pair@$$CBKPAUSTextTail@CPythonTextTail@@@std@@PAX@std@@@1@PAU?$_Tree_node@U?$pair@$$CBKPAUSTextTail@CPythonTextTail@@@std@@PAX@1@@Z ; std::_Tree_val<std::_Tree_simple_types<std::pair<unsigned long const ,CPythonTextTail::STextTail *> > >::_Erase_tree<std::allocator<std::_Tree_node<std::pair<unsigned long const ,CPythonTextTail::STextTail *>,void *> > >
; File C:\Program Files (x86)\Microsoft Visual Studio\2019\Community\VC\Tools\MSVC\14.28.29333\include\utility

; 598  :     _Ty _Old_val = static_cast<_Ty&&>(_Val);

  0001f	8b c6		 mov	 eax, esi

; 599  :     _Val         = static_cast<_Other&&>(_New_val);

  00021	8b 36		 mov	 esi, DWORD PTR [esi]
; File C:\Program Files (x86)\Microsoft Visual Studio\2019\Community\VC\Tools\MSVC\14.28.29333\include\xmemory

; 696  :         _Deallocate<_New_alignof<value_type>>(_Ptr, sizeof(value_type) * _Count);

  00023	6a 18		 push	 24			; 00000018H
  00025	50		 push	 eax
  00026	e8 00 00 00 00	 call	 ??$_Deallocate@$07$0A@@std@@YAXPAXI@Z ; std::_Deallocate<8,0>
  0002b	83 c4 08	 add	 esp, 8
; File C:\Program Files (x86)\Microsoft Visual Studio\2019\Community\VC\Tools\MSVC\14.28.29333\include\xtree

; 743  :         while (!_Rootnode->_Isnil) { // free subtrees, then node

  0002e	80 7e 0d 00	 cmp	 BYTE PTR [esi+13], 0
  00032	74 e0		 je	 SHORT $LL2@Erase_tree
  00034	5f		 pop	 edi
$LN3@Erase_tree:
  00035	5e		 pop	 esi

; 745  :             _Alnode::value_type::_Freenode(_Al, _STD exchange(_Rootnode, _Rootnode->_Left));
; 746  :         }
; 747  :     }

  00036	5b		 pop	 ebx
  00037	5d		 pop	 ebp
  00038	c2 08 00	 ret	 8
??$_Erase_tree@V?$allocator@U?$_Tree_node@U?$pair@$$CBKPAUSTextTail@CPythonTextTail@@@std@@PAX@std@@@std@@@?$_Tree_val@U?$_Tree_simple_types@U?$pair@$$CBKPAUSTextTail@CPythonTextTail@@@std@@@std@@@std@@QAEXAAV?$allocator@U?$_Tree_node@U?$pair@$$CBKPAUSTextTail@CPythonTextTail@@@std@@PAX@std@@@1@PAU?$_Tree_node@U?$pair@$$CBKPAUSTextTail@CPythonTextTail@@@std@@PAX@1@@Z ENDP ; std::_Tree_val<std::_Tree_simple_types<std::pair<unsigned long const ,CPythonTextTail::STextTail *> > >::_Erase_tree<std::allocator<std::_Tree_node<std::pair<unsigned long const ,CPythonTextTail::STextTail *>,void *> > >
_TEXT	ENDS
; Function compile flags: /Ogtp
; File C:\Program Files (x86)\Microsoft Visual Studio\2019\Community\VC\Tools\MSVC\14.28.29333\include\xstring
; File C:\Program Files (x86)\Microsoft Visual Studio\2019\Community\VC\Tools\MSVC\14.28.29333\include\xmemory
; File C:\Program Files (x86)\Microsoft Visual Studio\2019\Community\VC\Tools\MSVC\14.28.29333\include\xstring
;	COMDAT ??__F$S12@?6??SetItemTextTailOwner@CPythonTextTail@@QAEXKPBD@Z@YAXXZ
text$yd	SEGMENT
??__F$S12@?6??SetItemTextTailOwner@CPythonTextTail@@QAEXKPBD@Z@YAXXZ PROC ; `CPythonTextTail::SetItemTextTailOwner'::`7'::`dynamic atexit destructor for '$S12'', COMDAT

; 2227 :         return _BUF_SIZE <= _Myres;

  00000	83 3d 14 00 00
	00 10		 cmp	 DWORD PTR ?$S12@?6??SetItemTextTailOwner@CPythonTextTail@@QAEXKPBD@Z@4V?$basic_string@DU?$char_traits@D@std@@V?$allocator@D@2@@std@@B+20, 16 ; 00000010H

; 4385 :         if (_Mypair._Myval2._Large_string_engaged()) {

  00007	72 22		 jb	 SHORT $LN7@dynamic

; 4386 :             const pointer _Ptr = _Mypair._Myval2._Bx._Ptr;

  00009	56		 push	 esi
  0000a	8b 35 00 00 00
	00		 mov	 esi, DWORD PTR ?$S12@?6??SetItemTextTailOwner@CPythonTextTail@@QAEXKPBD@Z@4V?$basic_string@DU?$char_traits@D@std@@V?$allocator@D@2@@std@@B

; 4387 :             auto& _Al          = _Getal();
; 4388 :             _Destroy_in_place(_Mypair._Myval2._Bx._Ptr);

  00010	68 00 00 00 00	 push	 OFFSET ?$S12@?6??SetItemTextTailOwner@CPythonTextTail@@QAEXKPBD@Z@4V?$basic_string@DU?$char_traits@D@std@@V?$allocator@D@2@@std@@B
  00015	e8 00 00 00 00	 call	 ??$_Destroy_in_place@PAD@std@@YAXAAPAD@Z ; std::_Destroy_in_place<char *>

; 4389 :             _Al.deallocate(_Ptr, _Mypair._Myval2._Myres + 1);

  0001a	a1 14 00 00 00	 mov	 eax, DWORD PTR ?$S12@?6??SetItemTextTailOwner@CPythonTextTail@@QAEXKPBD@Z@4V?$basic_string@DU?$char_traits@D@std@@V?$allocator@D@2@@std@@B+20
  0001f	40		 inc	 eax
; File C:\Program Files (x86)\Microsoft Visual Studio\2019\Community\VC\Tools\MSVC\14.28.29333\include\xmemory

; 810  :         _Deallocate<_New_alignof<_Ty>>(_Ptr, sizeof(_Ty) * _Count);

  00020	50		 push	 eax
  00021	56		 push	 esi
  00022	e8 00 00 00 00	 call	 ??$_Deallocate@$07$0A@@std@@YAXPAXI@Z ; std::_Deallocate<8,0>
  00027	83 c4 0c	 add	 esp, 12			; 0000000cH
  0002a	5e		 pop	 esi
$LN7@dynamic:
; File C:\Program Files (x86)\Microsoft Visual Studio\2019\Community\VC\Tools\MSVC\14.28.29333\include\xstring

; 4392 :         _Mypair._Myval2._Mysize = 0;

  0002b	c7 05 10 00 00
	00 00 00 00 00	 mov	 DWORD PTR ?$S12@?6??SetItemTextTailOwner@CPythonTextTail@@QAEXKPBD@Z@4V?$basic_string@DU?$char_traits@D@std@@V?$allocator@D@2@@std@@B+16, 0

; 4393 :         _Mypair._Myval2._Myres  = _BUF_SIZE - 1;

  00035	c7 05 14 00 00
	00 0f 00 00 00	 mov	 DWORD PTR ?$S12@?6??SetItemTextTailOwner@CPythonTextTail@@QAEXKPBD@Z@4V?$basic_string@DU?$char_traits@D@std@@V?$allocator@D@2@@std@@B+20, 15 ; 0000000fH

; 4394 :         // the _Traits::assign is last so the codegen doesn't think the char write can alias this
; 4395 :         _Traits::assign(_Mypair._Myval2._Bx._Buf[0], _Elem());

  0003f	c6 05 00 00 00
	00 00		 mov	 BYTE PTR ?$S12@?6??SetItemTextTailOwner@CPythonTextTail@@QAEXKPBD@Z@4V?$basic_string@DU?$char_traits@D@std@@V?$allocator@D@2@@std@@B, 0
  00046	c3		 ret	 0
??__F$S12@?6??SetItemTextTailOwner@CPythonTextTail@@QAEXKPBD@Z@YAXXZ ENDP ; `CPythonTextTail::SetItemTextTailOwner'::`7'::`dynamic atexit destructor for '$S12''
text$yd	ENDS
; Function compile flags: /Ogtp
; File C:\Program Files (x86)\Microsoft Visual Studio\2019\Community\VC\Tools\MSVC\14.28.29333\include\xstring
;	COMDAT ??$?8DU?$char_traits@D@std@@V?$allocator@D@1@@std@@YA_NABV?$basic_string@DU?$char_traits@D@std@@V?$allocator@D@2@@0@QBD@Z
_TEXT	SEGMENT
__Left$ = 8						; size = 4
__Right$ = 12						; size = 4
??$?8DU?$char_traits@D@std@@V?$allocator@D@1@@std@@YA_NABV?$basic_string@DU?$char_traits@D@std@@V?$allocator@D@2@@0@QBD@Z PROC ; std::operator==<char,std::char_traits<char>,std::allocator<char> >, COMDAT

; 4564 : _NODISCARD bool operator==(const basic_string<_Elem, _Traits, _Alloc>& _Left, _In_z_ const _Elem* const _Right) {

  00000	55		 push	 ebp
  00001	8b ec		 mov	 ebp, esp
  00003	56		 push	 esi

; 389  :         return _CSTD strlen(reinterpret_cast<const char*>(_First));

  00004	8b 75 0c	 mov	 esi, DWORD PTR __Right$[ebp]

; 4564 : _NODISCARD bool operator==(const basic_string<_Elem, _Traits, _Alloc>& _Left, _In_z_ const _Elem* const _Right) {

  00007	57		 push	 edi

; 389  :         return _CSTD strlen(reinterpret_cast<const char*>(_First));

  00008	8b fe		 mov	 edi, esi
  0000a	8d 4f 01	 lea	 ecx, DWORD PTR [edi+1]
  0000d	0f 1f 00	 npad	 3
$LL18@operator:
  00010	8a 07		 mov	 al, BYTE PTR [edi]
  00012	47		 inc	 edi
  00013	84 c0		 test	 al, al
  00015	75 f9		 jne	 SHORT $LL18@operator

; 2218 :         const value_type* _Result = _Bx._Buf;

  00017	8b 55 08	 mov	 edx, DWORD PTR __Left$[ebp]

; 389  :         return _CSTD strlen(reinterpret_cast<const char*>(_First));

  0001a	2b f9		 sub	 edi, ecx

; 2218 :         const value_type* _Result = _Bx._Buf;

  0001c	8b ca		 mov	 ecx, edx

; 2227 :         return _BUF_SIZE <= _Myres;

  0001e	83 7a 14 10	 cmp	 DWORD PTR [edx+20], 16	; 00000010H

; 2219 :         if (_Large_string_engaged()) {

  00022	72 02		 jb	 SHORT $LN8@operator

; 2220 :             _Result = _Unfancy(_Bx._Ptr);

  00024	8b 0a		 mov	 ecx, DWORD PTR [edx]
$LN8@operator:

; 4180 :         return _Traits_equal<_Traits>(_Mypair._Myval2._Myptr(), _Mypair._Myval2._Mysize, _Ptr, _Traits::length(_Ptr));

  00026	8b 52 10	 mov	 edx, DWORD PTR [edx+16]

; 561  :     return _Left_size == _Right_size && _Traits::compare(_Left, _Right, _Left_size) == 0;

  00029	3b d7		 cmp	 edx, edi
  0002b	75 5b		 jne	 SHORT $LN14@operator

; 369  :         return _CSTD memcmp(_First1, _First2, _Count);

  0002d	83 ea 04	 sub	 edx, 4
  00030	72 11		 jb	 SHORT $LN21@operator
$LL22@operator:
  00032	8b 01		 mov	 eax, DWORD PTR [ecx]
  00034	3b 06		 cmp	 eax, DWORD PTR [esi]
  00036	75 10		 jne	 SHORT $LN20@operator
  00038	83 c1 04	 add	 ecx, 4
  0003b	83 c6 04	 add	 esi, 4
  0003e	83 ea 04	 sub	 edx, 4
  00041	73 ef		 jae	 SHORT $LL22@operator
$LN21@operator:
  00043	83 fa fc	 cmp	 edx, -4			; fffffffcH
  00046	74 34		 je	 SHORT $LN19@operator
$LN20@operator:
  00048	8a 01		 mov	 al, BYTE PTR [ecx]
  0004a	3a 06		 cmp	 al, BYTE PTR [esi]
  0004c	75 27		 jne	 SHORT $LN23@operator
  0004e	83 fa fd	 cmp	 edx, -3			; fffffffdH
  00051	74 29		 je	 SHORT $LN19@operator
  00053	8a 41 01	 mov	 al, BYTE PTR [ecx+1]
  00056	3a 46 01	 cmp	 al, BYTE PTR [esi+1]
  00059	75 1a		 jne	 SHORT $LN23@operator
  0005b	83 fa fe	 cmp	 edx, -2			; fffffffeH
  0005e	74 1c		 je	 SHORT $LN19@operator
  00060	8a 41 02	 mov	 al, BYTE PTR [ecx+2]
  00063	3a 46 02	 cmp	 al, BYTE PTR [esi+2]
  00066	75 0d		 jne	 SHORT $LN23@operator
  00068	83 fa ff	 cmp	 edx, -1
  0006b	74 0f		 je	 SHORT $LN19@operator
  0006d	8a 41 03	 mov	 al, BYTE PTR [ecx+3]
  00070	3a 46 03	 cmp	 al, BYTE PTR [esi+3]
  00073	74 07		 je	 SHORT $LN19@operator
$LN23@operator:
  00075	1b c0		 sbb	 eax, eax
  00077	83 c8 01	 or	 eax, 1
  0007a	eb 02		 jmp	 SHORT $LN24@operator
$LN19@operator:
  0007c	33 c0		 xor	 eax, eax
$LN24@operator:

; 561  :     return _Left_size == _Right_size && _Traits::compare(_Left, _Right, _Left_size) == 0;

  0007e	85 c0		 test	 eax, eax
  00080	75 06		 jne	 SHORT $LN14@operator
  00082	5f		 pop	 edi
  00083	b0 01		 mov	 al, 1

; 4565 :     return _Left._Equal(_Right);
; 4566 : }

  00085	5e		 pop	 esi
  00086	5d		 pop	 ebp
  00087	c3		 ret	 0
$LN14@operator:
  00088	5f		 pop	 edi

; 561  :     return _Left_size == _Right_size && _Traits::compare(_Left, _Right, _Left_size) == 0;

  00089	32 c0		 xor	 al, al

; 4565 :     return _Left._Equal(_Right);
; 4566 : }

  0008b	5e		 pop	 esi
  0008c	5d		 pop	 ebp
  0008d	c3		 ret	 0
??$?8DU?$char_traits@D@std@@V?$allocator@D@1@@std@@YA_NABV?$basic_string@DU?$char_traits@D@std@@V?$allocator@D@2@@0@QBD@Z ENDP ; std::operator==<char,std::char_traits<char>,std::allocator<char> >
_TEXT	ENDS
; Function compile flags: /Ogtp
; File C:\Program Files (x86)\Microsoft Visual Studio\2019\Community\VC\Tools\MSVC\14.28.29333\include\xtree
; File C:\Program Files (x86)\Microsoft Visual Studio\2019\Community\VC\Tools\MSVC\14.28.29333\include\xstddef
; File C:\Program Files (x86)\Microsoft Visual Studio\2019\Community\VC\Tools\MSVC\14.28.29333\include\xtree
; File C:\Program Files (x86)\Microsoft Visual Studio\2019\Community\VC\Tools\MSVC\14.28.29333\include\utility
; File C:\Program Files (x86)\Microsoft Visual Studio\2019\Community\VC\Tools\MSVC\14.28.29333\include\xtree
; File C:\Program Files (x86)\Microsoft Visual Studio\2019\Community\VC\Tools\MSVC\14.28.29333\include\xmemory
; File C:\Program Files (x86)\Microsoft Visual Studio\2019\Community\VC\Tools\MSVC\14.28.29333\include\xtree
; File C:\Program Files (x86)\Microsoft Visual Studio\2019\Community\VC\Tools\MSVC\14.28.29333\include\xmemory
; File C:\Program Files (x86)\Microsoft Visual Studio\2019\Community\VC\Tools\MSVC\14.28.29333\include\xtree
; File C:\Program Files (x86)\Microsoft Visual Studio\2019\Community\VC\Tools\MSVC\14.28.29333\include\xmemory
; File C:\Program Files (x86)\Microsoft Visual Studio\2019\Community\VC\Tools\MSVC\14.28.29333\include\xtree
; File C:\Program Files (x86)\Microsoft Visual Studio\2019\Community\VC\Tools\MSVC\14.28.29333\include\utility
; File C:\Program Files (x86)\Microsoft Visual Studio\2019\Community\VC\Tools\MSVC\14.28.29333\include\xtree
;	COMDAT ??$insert@$0A@$0A@@?$_Tree@V?$_Tmap_traits@KPAUSTextTail@CPythonTextTail@@U?$less@K@std@@V?$allocator@U?$pair@$$CBKPAUSTextTail@CPythonTextTail@@@std@@@4@$0A@@std@@@std@@QAE?AU?$pair@V?$_Tree_iterator@V?$_Tree_val@U?$_Tree_simple_types@U?$pair@$$CBKPAUSTextTail@CPythonTextTail@@@std@@@std@@@std@@@std@@_N@1@$$QAU?$pair@$$CBKPAUSTextTail@CPythonTextTail@@@1@@Z
_TEXT	SEGMENT
__Loc$2 = -36						; size = 12
$T3 = -24						; size = 12
$T4 = -20						; size = 8
__$EHRec$ = -12						; size = 12
___$ReturnUdt$ = 8					; size = 4
__Myhead$ = 12						; size = 4
__Val$ = 12						; size = 4
??$insert@$0A@$0A@@?$_Tree@V?$_Tmap_traits@KPAUSTextTail@CPythonTextTail@@U?$less@K@std@@V?$allocator@U?$pair@$$CBKPAUSTextTail@CPythonTextTail@@@std@@@4@$0A@@std@@@std@@QAE?AU?$pair@V?$_Tree_iterator@V?$_Tree_val@U?$_Tree_simple_types@U?$pair@$$CBKPAUSTextTail@CPythonTextTail@@@std@@@std@@@std@@@std@@_N@1@$$QAU?$pair@$$CBKPAUSTextTail@CPythonTextTail@@@1@@Z PROC ; std::_Tree<std::_Tmap_traits<unsigned long,CPythonTextTail::STextTail *,std::less<unsigned long>,std::allocator<std::pair<unsigned long const ,CPythonTextTail::STextTail *> >,0> >::insert<0,0>, COMDAT
; _this$ = ecx

; 1343 :     pair<iterator, bool> insert(value_type&& _Val) {

  00000	55		 push	 ebp
  00001	8b ec		 mov	 ebp, esp
  00003	6a ff		 push	 -1
  00005	68 00 00 00 00	 push	 __ehhandler$??$insert@$0A@$0A@@?$_Tree@V?$_Tmap_traits@KPAUSTextTail@CPythonTextTail@@U?$less@K@std@@V?$allocator@U?$pair@$$CBKPAUSTextTail@CPythonTextTail@@@std@@@4@$0A@@std@@@std@@QAE?AU?$pair@V?$_Tree_iterator@V?$_Tree_val@U?$_Tree_simple_types@U?$pair@$$CBKPAUSTextTail@CPythonTextTail@@@std@@@std@@@std@@@std@@_N@1@$$QAU?$pair@$$CBKPAUSTextTail@CPythonTextTail@@@1@@Z
  0000a	64 a1 00 00 00
	00		 mov	 eax, DWORD PTR fs:0
  00010	50		 push	 eax
  00011	83 ec 18	 sub	 esp, 24			; 00000018H
  00014	53		 push	 ebx
  00015	56		 push	 esi
  00016	57		 push	 edi
  00017	a1 00 00 00 00	 mov	 eax, DWORD PTR ___security_cookie
  0001c	33 c5		 xor	 eax, ebp
  0001e	50		 push	 eax
  0001f	8d 45 f4	 lea	 eax, DWORD PTR __$EHRec$[ebp]
  00022	64 a3 00 00 00
	00		 mov	 DWORD PTR fs:0, eax
  00028	8b f9		 mov	 edi, ecx

; 1009 :             _Loc                = _Find_lower_bound(_Keyval);

  0002a	8b 5d 0c	 mov	 ebx, DWORD PTR __Val$[ebp]
  0002d	8d 45 e8	 lea	 eax, DWORD PTR $T3[ebp]
  00030	53		 push	 ebx
  00031	50		 push	 eax
  00032	e8 00 00 00 00	 call	 ??$_Find_lower_bound@K@?$_Tree@V?$_Tmap_traits@KPAUSTextTail@CPythonTextTail@@U?$less@K@std@@V?$allocator@U?$pair@$$CBKPAUSTextTail@CPythonTextTail@@@std@@@4@$0A@@std@@@std@@IBE?AU?$_Tree_find_result@PAU?$_Tree_node@U?$pair@$$CBKPAUSTextTail@CPythonTextTail@@@std@@PAX@std@@@1@ABK@Z ; std::_Tree<std::_Tmap_traits<unsigned long,CPythonTextTail::STextTail *,std::less<unsigned long>,std::allocator<std::pair<unsigned long const ,CPythonTextTail::STextTail *> >,0> >::_Find_lower_bound<unsigned long>
  00037	8b 48 08	 mov	 ecx, DWORD PTR [eax+8]
  0003a	f3 0f 7e 00	 movq	 xmm0, QWORD PTR [eax]
  0003e	66 0f d6 45 dc	 movq	 QWORD PTR __Loc$2[ebp], xmm0

; 1695 :         return !_Bound->_Isnil && !_DEBUG_LT_PRED(_Getcomp(), _Keyval, _Traits::_Kfn(_Bound->_Myval));

  00043	80 79 0d 00	 cmp	 BYTE PTR [ecx+13], 0
  00047	75 0b		 jne	 SHORT $LN4@insert
; File C:\Program Files (x86)\Microsoft Visual Studio\2019\Community\VC\Tools\MSVC\14.28.29333\include\xstddef

; 127  :         return _Left < _Right;

  00049	8b 03		 mov	 eax, DWORD PTR [ebx]
  0004b	3b 41 10	 cmp	 eax, DWORD PTR [ecx+16]
; File C:\Program Files (x86)\Microsoft Visual Studio\2019\Community\VC\Tools\MSVC\14.28.29333\include\xtree

; 1695 :         return !_Bound->_Isnil && !_DEBUG_LT_PRED(_Getcomp(), _Keyval, _Traits::_Kfn(_Bound->_Myval));

  0004e	72 04		 jb	 SHORT $LN4@insert
; File C:\Program Files (x86)\Microsoft Visual Studio\2019\Community\VC\Tools\MSVC\14.28.29333\include\utility

; 190  :         : first(_STD forward<_Other1>(_Val1)), second(_STD forward<_Other2>(_Val2)) {}

  00050	32 d2		 xor	 dl, dl
; File C:\Program Files (x86)\Microsoft Visual Studio\2019\Community\VC\Tools\MSVC\14.28.29333\include\xtree

; 1011 :                 return {_Loc._Bound, false};

  00052	eb 76		 jmp	 SHORT $LN55@insert
$LN4@insert:

; 1719 :         if (max_size() == _Get_scary()->_Mysize) {

  00054	81 7f 04 aa aa
	aa 0a		 cmp	 DWORD PTR [edi+4], 178956970 ; 0aaaaaaaH
  0005b	0f 84 85 00 00
	00		 je	 $LN69@insert

; 1015 :             _Inserted = _Tree_temp_node<_Alnode>(_Getal(), _Scary->_Myhead, _STD forward<_Valtys>(_Vals)...)._Release();

  00061	8b 07		 mov	 eax, DWORD PTR [edi]
  00063	89 45 0c	 mov	 DWORD PTR __Myhead$[ebp], eax
; File C:\Program Files (x86)\Microsoft Visual Studio\2019\Community\VC\Tools\MSVC\14.28.29333\include\xmemory

; 1045 :     explicit _Alloc_construct_ptr(_Alloc& _Al_) : _Al(_Al_), _Ptr(nullptr) {}

  00066	89 7d ec	 mov	 DWORD PTR $T4[ebp], edi

; 814  :         return static_cast<_Ty*>(_Allocate<_New_alignof<_Ty>>(_Get_size_of_n<sizeof(_Ty)>(_Count)));

  00069	6a 18		 push	 24			; 00000018H
; File C:\Program Files (x86)\Microsoft Visual Studio\2019\Community\VC\Tools\MSVC\14.28.29333\include\xtree

; 784  :     explicit _Tree_temp_node_alloc(_Alnode& _Al_) : _Alloc_construct_ptr<_Alnode>(_Al_) {

  0006b	c7 45 fc 00 00
	00 00		 mov	 DWORD PTR __$EHRec$[ebp+8], 0
; File C:\Program Files (x86)\Microsoft Visual Studio\2019\Community\VC\Tools\MSVC\14.28.29333\include\xmemory

; 1052 :         _Ptr = nullptr; // if allocate throws, prevents double-free

  00072	c7 45 f0 00 00
	00 00		 mov	 DWORD PTR $T4[ebp+4], 0

; 814  :         return static_cast<_Ty*>(_Allocate<_New_alignof<_Ty>>(_Get_size_of_n<sizeof(_Ty)>(_Count)));

  00079	e8 00 00 00 00	 call	 ??$_Allocate@$07U_Default_allocate_traits@std@@$0A@@std@@YAPAXI@Z ; std::_Allocate<8,std::_Default_allocate_traits,0>
; File C:\Program Files (x86)\Microsoft Visual Studio\2019\Community\VC\Tools\MSVC\14.28.29333\include\xtree

; 806  :         _Alnode_traits::construct(this->_Al, _STD addressof(this->_Ptr->_Myval), _STD forward<_Valtys>(_Vals)...);

  0007e	8b 0b		 mov	 ecx, DWORD PTR [ebx]
; File C:\Program Files (x86)\Microsoft Visual Studio\2019\Community\VC\Tools\MSVC\14.28.29333\include\xmemory

; 1053 :         _Ptr = _Al.allocate(1);

  00080	8b f0		 mov	 esi, eax
; File C:\Program Files (x86)\Microsoft Visual Studio\2019\Community\VC\Tools\MSVC\14.28.29333\include\xtree

; 806  :         _Alnode_traits::construct(this->_Al, _STD addressof(this->_Ptr->_Myval), _STD forward<_Valtys>(_Vals)...);

  00082	8b 53 04	 mov	 edx, DWORD PTR [ebx+4]

; 807  :         _Construct_in_place(this->_Ptr->_Left, _Myhead);

  00085	8d 45 0c	 lea	 eax, DWORD PTR __Myhead$[ebp]
  00088	50		 push	 eax
  00089	56		 push	 esi
  0008a	89 4e 10	 mov	 DWORD PTR [esi+16], ecx
  0008d	89 56 14	 mov	 DWORD PTR [esi+20], edx
  00090	e8 00 00 00 00	 call	 ??$_Construct_in_place@PAU?$_Tree_node@U?$pair@$$CBKPAUSTextTail@CPythonTextTail@@@std@@PAX@std@@AAPAU12@@std@@YAXAAPAU?$_Tree_node@U?$pair@$$CBKPAUSTextTail@CPythonTextTail@@@std@@PAX@0@0@Z ; std::_Construct_in_place<std::_Tree_node<std::pair<unsigned long const ,CPythonTextTail::STextTail *>,void *> *,std::_Tree_node<std::pair<unsigned long const ,CPythonTextTail::STextTail *>,void *> * &>

; 808  :         _Construct_in_place(this->_Ptr->_Parent, _Myhead);

  00095	8d 45 0c	 lea	 eax, DWORD PTR __Myhead$[ebp]
  00098	50		 push	 eax
  00099	8d 46 04	 lea	 eax, DWORD PTR [esi+4]
  0009c	50		 push	 eax
  0009d	e8 00 00 00 00	 call	 ??$_Construct_in_place@PAU?$_Tree_node@U?$pair@$$CBKPAUSTextTail@CPythonTextTail@@@std@@PAX@std@@AAPAU12@@std@@YAXAAPAU?$_Tree_node@U?$pair@$$CBKPAUSTextTail@CPythonTextTail@@@std@@PAX@0@0@Z ; std::_Construct_in_place<std::_Tree_node<std::pair<unsigned long const ,CPythonTextTail::STextTail *>,void *> *,std::_Tree_node<std::pair<unsigned long const ,CPythonTextTail::STextTail *>,void *> * &>

; 809  :         _Construct_in_place(this->_Ptr->_Right, _Myhead);

  000a2	8d 45 0c	 lea	 eax, DWORD PTR __Myhead$[ebp]
  000a5	50		 push	 eax
  000a6	8d 46 08	 lea	 eax, DWORD PTR [esi+8]
  000a9	50		 push	 eax
  000aa	e8 00 00 00 00	 call	 ??$_Construct_in_place@PAU?$_Tree_node@U?$pair@$$CBKPAUSTextTail@CPythonTextTail@@@std@@PAX@std@@AAPAU12@@std@@YAXAAPAU?$_Tree_node@U?$pair@$$CBKPAUSTextTail@CPythonTextTail@@@std@@PAX@0@0@Z ; std::_Construct_in_place<std::_Tree_node<std::pair<unsigned long const ,CPythonTextTail::STextTail *>,void *> *,std::_Tree_node<std::pair<unsigned long const ,CPythonTextTail::STextTail *>,void *> * &>
  000af	83 c4 1c	 add	 esp, 28			; 0000001cH

; 810  :         this->_Ptr->_Color = _Red;

  000b2	66 c7 46 0c 00
	00		 mov	 WORD PTR [esi+12], 0

; 1034 :         return {_Scary->_Insert_node(_Loc._Location, _Inserted), true};

  000b8	8b cf		 mov	 ecx, edi
  000ba	56		 push	 esi
  000bb	ff 75 e0	 push	 DWORD PTR __Loc$2[ebp+4]
  000be	ff 75 dc	 push	 DWORD PTR __Loc$2[ebp]
  000c1	e8 00 00 00 00	 call	 ?_Insert_node@?$_Tree_val@U?$_Tree_simple_types@U?$pair@$$CBKPAUSTextTail@CPythonTextTail@@@std@@@std@@@std@@QAEPAU?$_Tree_node@U?$pair@$$CBKPAUSTextTail@CPythonTextTail@@@std@@PAX@2@U?$_Tree_id@PAU?$_Tree_node@U?$pair@$$CBKPAUSTextTail@CPythonTextTail@@@std@@PAX@std@@@2@QAU32@@Z ; std::_Tree_val<std::_Tree_simple_types<std::pair<unsigned long const ,CPythonTextTail::STextTail *> > >::_Insert_node
; File C:\Program Files (x86)\Microsoft Visual Studio\2019\Community\VC\Tools\MSVC\14.28.29333\include\utility

; 190  :         : first(_STD forward<_Other1>(_Val1)), second(_STD forward<_Other2>(_Val2)) {}

  000c6	8b c8		 mov	 ecx, eax
  000c8	b2 01		 mov	 dl, 1
$LN55@insert:
  000ca	8b 45 08	 mov	 eax, DWORD PTR ___$ReturnUdt$[ebp]
  000cd	89 08		 mov	 DWORD PTR [eax], ecx
  000cf	88 50 04	 mov	 BYTE PTR [eax+4], dl
; File C:\Program Files (x86)\Microsoft Visual Studio\2019\Community\VC\Tools\MSVC\14.28.29333\include\xtree

; 1346 :     }

  000d2	8b 4d f4	 mov	 ecx, DWORD PTR __$EHRec$[ebp]
  000d5	64 89 0d 00 00
	00 00		 mov	 DWORD PTR fs:0, ecx
  000dc	59		 pop	 ecx
  000dd	5f		 pop	 edi
  000de	5e		 pop	 esi
  000df	5b		 pop	 ebx
  000e0	8b e5		 mov	 esp, ebp
  000e2	5d		 pop	 ebp
  000e3	c2 08 00	 ret	 8
$LN69@insert:

; 1720 :             _Throw_tree_length_error();

  000e6	e8 00 00 00 00	 call	 ?_Throw_tree_length_error@std@@YAXXZ ; std::_Throw_tree_length_error
$LN67@insert:
  000eb	cc		 int	 3
_TEXT	ENDS
;	COMDAT text$x
text$x	SEGMENT
__unwindfunclet$??$insert@$0A@$0A@@?$_Tree@V?$_Tmap_traits@KPAUSTextTail@CPythonTextTail@@U?$less@K@std@@V?$allocator@U?$pair@$$CBKPAUSTextTail@CPythonTextTail@@@std@@@4@$0A@@std@@@std@@QAE?AU?$pair@V?$_Tree_iterator@V?$_Tree_val@U?$_Tree_simple_types@U?$pair@$$CBKPAUSTextTail@CPythonTextTail@@@std@@@std@@@std@@@std@@_N@1@$$QAU?$pair@$$CBKPAUSTextTail@CPythonTextTail@@@1@@Z$2:
  00000	8d 4d ec	 lea	 ecx, DWORD PTR $T4[ebp]
  00003	e9 00 00 00 00	 jmp	 ??1?$_Alloc_construct_ptr@V?$allocator@U?$_Tree_node@U?$pair@$$CBKPAUSTextTail@CPythonTextTail@@@std@@PAX@std@@@std@@@std@@QAE@XZ ; std::_Alloc_construct_ptr<std::allocator<std::_Tree_node<std::pair<unsigned long const ,CPythonTextTail::STextTail *>,void *> > >::~_Alloc_construct_ptr<std::allocator<std::_Tree_node<std::pair<unsigned long const ,CPythonTextTail::STextTail *>,void *> > >
  00008	cc		 int	 3
  00009	cc		 int	 3
  0000a	cc		 int	 3
  0000b	cc		 int	 3
  0000c	cc		 int	 3
__ehhandler$??$insert@$0A@$0A@@?$_Tree@V?$_Tmap_traits@KPAUSTextTail@CPythonTextTail@@U?$less@K@std@@V?$allocator@U?$pair@$$CBKPAUSTextTail@CPythonTextTail@@@std@@@4@$0A@@std@@@std@@QAE?AU?$pair@V?$_Tree_iterator@V?$_Tree_val@U?$_Tree_simple_types@U?$pair@$$CBKPAUSTextTail@CPythonTextTail@@@std@@@std@@@std@@@std@@_N@1@$$QAU?$pair@$$CBKPAUSTextTail@CPythonTextTail@@@1@@Z:
  0000d	90		 npad	 1
  0000e	90		 npad	 1
  0000f	8b 54 24 08	 mov	 edx, DWORD PTR [esp+8]
  00013	8d 42 0c	 lea	 eax, DWORD PTR [edx+12]
  00016	8b 4a d8	 mov	 ecx, DWORD PTR [edx-40]
  00019	33 c8		 xor	 ecx, eax
  0001b	e8 00 00 00 00	 call	 @__security_check_cookie@4
  00020	b8 00 00 00 00	 mov	 eax, OFFSET __ehfuncinfo$??$insert@$0A@$0A@@?$_Tree@V?$_Tmap_traits@KPAUSTextTail@CPythonTextTail@@U?$less@K@std@@V?$allocator@U?$pair@$$CBKPAUSTextTail@CPythonTextTail@@@std@@@4@$0A@@std@@@std@@QAE?AU?$pair@V?$_Tree_iterator@V?$_Tree_val@U?$_Tree_simple_types@U?$pair@$$CBKPAUSTextTail@CPythonTextTail@@@std@@@std@@@std@@@std@@_N@1@$$QAU?$pair@$$CBKPAUSTextTail@CPythonTextTail@@@1@@Z
  00025	e9 00 00 00 00	 jmp	 ___CxxFrameHandler3
text$x	ENDS
??$insert@$0A@$0A@@?$_Tree@V?$_Tmap_traits@KPAUSTextTail@CPythonTextTail@@U?$less@K@std@@V?$allocator@U?$pair@$$CBKPAUSTextTail@CPythonTextTail@@@std@@@4@$0A@@std@@@std@@QAE?AU?$pair@V?$_Tree_iterator@V?$_Tree_val@U?$_Tree_simple_types@U?$pair@$$CBKPAUSTextTail@CPythonTextTail@@@std@@@std@@@std@@@std@@_N@1@$$QAU?$pair@$$CBKPAUSTextTail@CPythonTextTail@@@1@@Z ENDP ; std::_Tree<std::_Tmap_traits<unsigned long,CPythonTextTail::STextTail *,std::less<unsigned long>,std::allocator<std::pair<unsigned long const ,CPythonTextTail::STextTail *> >,0> >::insert<0,0>
; Function compile flags: /Ogtp
; File C:\Program Files (x86)\Microsoft Visual Studio\2019\Community\VC\Tools\MSVC\14.28.29333\include\xtree
;	COMDAT ??E?$_Tree_unchecked_const_iterator@V?$_Tree_val@U?$_Tree_simple_types@U?$pair@$$CBKPAUSTextTail@CPythonTextTail@@@std@@@std@@@std@@U_Iterator_base0@2@@std@@QAEAAV01@XZ
_TEXT	SEGMENT
??E?$_Tree_unchecked_const_iterator@V?$_Tree_val@U?$_Tree_simple_types@U?$pair@$$CBKPAUSTextTail@CPythonTextTail@@@std@@@std@@@std@@U_Iterator_base0@2@@std@@QAEAAV01@XZ PROC ; std::_Tree_unchecked_const_iterator<std::_Tree_val<std::_Tree_simple_types<std::pair<unsigned long const ,CPythonTextTail::STextTail *> > >,std::_Iterator_base0>::operator++, COMDAT
; _this$ = ecx

; 51   :     _Tree_unchecked_const_iterator& operator++() noexcept {

  00000	56		 push	 esi
  00001	8b f1		 mov	 esi, ecx
  00003	57		 push	 edi

; 52   :         if (_Ptr->_Right->_Isnil) { // climb looking for right subtree

  00004	8b 16		 mov	 edx, DWORD PTR [esi]
  00006	8b 7a 08	 mov	 edi, DWORD PTR [edx+8]
  00009	80 7f 0d 00	 cmp	 BYTE PTR [edi+13], 0
  0000d	74 22		 je	 SHORT $LN4@operator

; 53   :             _Nodeptr _Pnode;
; 54   :             while (!(_Pnode = _Ptr->_Parent)->_Isnil && _Ptr == _Pnode->_Right) {

  0000f	8b 42 04	 mov	 eax, DWORD PTR [edx+4]
  00012	80 78 0d 00	 cmp	 BYTE PTR [eax+13], 0
  00016	75 12		 jne	 SHORT $LN19@operator
$LL2@operator:
  00018	3b 50 08	 cmp	 edx, DWORD PTR [eax+8]
  0001b	75 0d		 jne	 SHORT $LN19@operator

; 55   :                 _Ptr = _Pnode; // ==> parent while right subtree

  0001d	89 06		 mov	 DWORD PTR [esi], eax
  0001f	8b d0		 mov	 edx, eax
  00021	8b 40 04	 mov	 eax, DWORD PTR [eax+4]
  00024	80 78 0d 00	 cmp	 BYTE PTR [eax+13], 0
  00028	74 ee		 je	 SHORT $LL2@operator
$LN19@operator:

; 56   :             }
; 57   : 
; 58   :             _Ptr = _Pnode; // ==> parent (head if end())
; 59   :         } else {
; 60   :             _Ptr = _Mytree::_Min(_Ptr->_Right); // ==> smallest of right subtree
; 61   :         }
; 62   : 
; 63   :         return *this;

  0002a	89 06		 mov	 DWORD PTR [esi], eax

; 64   :     }

  0002c	8b c6		 mov	 eax, esi
  0002e	5f		 pop	 edi
  0002f	5e		 pop	 esi
  00030	c3		 ret	 0
$LN4@operator:

; 451  :         while (!_Pnode->_Left->_Isnil) {

  00031	8b 0f		 mov	 ecx, DWORD PTR [edi]
  00033	80 79 0d 00	 cmp	 BYTE PTR [ecx+13], 0
  00037	75 13		 jne	 SHORT $LN9@operator
  00039	0f 1f 80 00 00
	00 00		 npad	 7
$LL8@operator:
  00040	8b 01		 mov	 eax, DWORD PTR [ecx]

; 452  :             _Pnode = _Pnode->_Left;

  00042	8b f9		 mov	 edi, ecx
  00044	8b c8		 mov	 ecx, eax
  00046	80 78 0d 00	 cmp	 BYTE PTR [eax+13], 0
  0004a	74 f4		 je	 SHORT $LL8@operator
$LN9@operator:

; 56   :             }
; 57   : 
; 58   :             _Ptr = _Pnode; // ==> parent (head if end())
; 59   :         } else {
; 60   :             _Ptr = _Mytree::_Min(_Ptr->_Right); // ==> smallest of right subtree
; 61   :         }
; 62   : 
; 63   :         return *this;

  0004c	89 3e		 mov	 DWORD PTR [esi], edi

; 64   :     }

  0004e	8b c6		 mov	 eax, esi
  00050	5f		 pop	 edi
  00051	5e		 pop	 esi
  00052	c3		 ret	 0
??E?$_Tree_unchecked_const_iterator@V?$_Tree_val@U?$_Tree_simple_types@U?$pair@$$CBKPAUSTextTail@CPythonTextTail@@@std@@@std@@@std@@U_Iterator_base0@2@@std@@QAEAAV01@XZ ENDP ; std::_Tree_unchecked_const_iterator<std::_Tree_val<std::_Tree_simple_types<std::pair<unsigned long const ,CPythonTextTail::STextTail *> > >,std::_Iterator_base0>::operator++
_TEXT	ENDS
; Function compile flags: /Ogtp
; File D:\Metin2 Server Files\mainline\SRC_2014\Metin2Client\UserInterface\PythonTextTail.cpp
;	COMDAT ?TextTail_SetLivingTime@@YAXJ@Z
_TEXT	SEGMENT
_livingTime$ = 8					; size = 4
?TextTail_SetLivingTime@@YAXJ@Z PROC			; TextTail_SetLivingTime, COMDAT

; 35   : {

  00000	55		 push	 ebp
  00001	8b ec		 mov	 ebp, esp

; 36   : 	gs_TextTail_LivingTime = livingTime;

  00003	8b 45 08	 mov	 eax, DWORD PTR _livingTime$[ebp]
  00006	a3 00 00 00 00	 mov	 DWORD PTR ?gs_TextTail_LivingTime@@3JA, eax ; gs_TextTail_LivingTime

; 37   : }

  0000b	5d		 pop	 ebp
  0000c	c3		 ret	 0
?TextTail_SetLivingTime@@YAXJ@Z ENDP			; TextTail_SetLivingTime
_TEXT	ENDS
; Function compile flags: /Ogtp
; File D:\Metin2 Server Files\mainline\SRC_2014\Metin2Client\UserInterface\PythonTextTail.cpp
;	COMDAT ?TextTail_GetLivingTime@@YAJXZ
_TEXT	SEGMENT
?TextTail_GetLivingTime@@YAJXZ PROC			; TextTail_GetLivingTime, COMDAT

; 30   : 	assert(gs_TextTail_LivingTime>1000);
; 31   : 	return gs_TextTail_LivingTime;

  00000	a1 00 00 00 00	 mov	 eax, DWORD PTR ?gs_TextTail_LivingTime@@3JA ; gs_TextTail_LivingTime

; 32   : }

  00005	c3		 ret	 0
?TextTail_GetLivingTime@@YAJXZ ENDP			; TextTail_GetLivingTime
_TEXT	ENDS
; Function compile flags: /Ogtp
;	COMDAT ??_GCPythonTextTail@@UAEPAXI@Z
_TEXT	SEGMENT
___flags$ = 8						; size = 4
??_GCPythonTextTail@@UAEPAXI@Z PROC			; CPythonTextTail::`scalar deleting destructor', COMDAT
; _this$ = ecx
  00000	55		 push	 ebp
  00001	8b ec		 mov	 ebp, esp
  00003	56		 push	 esi
  00004	8b f1		 mov	 esi, ecx
  00006	e8 00 00 00 00	 call	 ??1CPythonTextTail@@UAE@XZ ; CPythonTextTail::~CPythonTextTail
  0000b	f6 45 08 01	 test	 BYTE PTR ___flags$[ebp], 1
  0000f	74 0b		 je	 SHORT $LN4@scalar
  00011	6a 50		 push	 80			; 00000050H
  00013	56		 push	 esi
  00014	e8 00 00 00 00	 call	 ??3@YAXPAXI@Z		; operator delete
  00019	83 c4 08	 add	 esp, 8
$LN4@scalar:
  0001c	8b c6		 mov	 eax, esi
  0001e	5e		 pop	 esi
  0001f	5d		 pop	 ebp
  00020	c2 04 00	 ret	 4
??_GCPythonTextTail@@UAEPAXI@Z ENDP			; CPythonTextTail::`scalar deleting destructor'
_TEXT	ENDS
; Function compile flags: /Ogtp
;	COMDAT ??_G?$CDynamicPool@USTextTail@CPythonTextTail@@@@UAEPAXI@Z
_TEXT	SEGMENT
___flags$ = 8						; size = 4
??_G?$CDynamicPool@USTextTail@CPythonTextTail@@@@UAEPAXI@Z PROC ; CDynamicPool<CPythonTextTail::STextTail>::`scalar deleting destructor', COMDAT
; _this$ = ecx
  00000	55		 push	 ebp
  00001	8b ec		 mov	 ebp, esp
  00003	56		 push	 esi
  00004	8b f1		 mov	 esi, ecx
  00006	e8 00 00 00 00	 call	 ??1?$CDynamicPool@USTextTail@CPythonTextTail@@@@UAE@XZ ; CDynamicPool<CPythonTextTail::STextTail>::~CDynamicPool<CPythonTextTail::STextTail>
  0000b	f6 45 08 01	 test	 BYTE PTR ___flags$[ebp], 1
  0000f	74 0b		 je	 SHORT $LN4@scalar
  00011	6a 24		 push	 36			; 00000024H
  00013	56		 push	 esi
  00014	e8 00 00 00 00	 call	 ??3@YAXPAXI@Z		; operator delete
  00019	83 c4 08	 add	 esp, 8
$LN4@scalar:
  0001c	8b c6		 mov	 eax, esi
  0001e	5e		 pop	 esi
  0001f	5d		 pop	 ebp
  00020	c2 04 00	 ret	 4
??_G?$CDynamicPool@USTextTail@CPythonTextTail@@@@UAEPAXI@Z ENDP ; CDynamicPool<CPythonTextTail::STextTail>::`scalar deleting destructor'
_TEXT	ENDS
; Function compile flags: /Ogtp
; File C:\Program Files (x86)\Microsoft Visual Studio\2019\Community\VC\Tools\MSVC\14.28.29333\include\vector
;	COMDAT ?_Xlength@?$vector@PAUSTextTail@CPythonTextTail@@V?$allocator@PAUSTextTail@CPythonTextTail@@@std@@@std@@CAXXZ
_TEXT	SEGMENT
?_Xlength@?$vector@PAUSTextTail@CPythonTextTail@@V?$allocator@PAUSTextTail@CPythonTextTail@@@std@@@std@@CAXXZ PROC ; std::vector<CPythonTextTail::STextTail *,std::allocator<CPythonTextTail::STextTail *> >::_Xlength, COMDAT

; 1705 :         _Xlength_error("vector too long");

  00000	68 00 00 00 00	 push	 OFFSET ??_C@_0BA@FOIKENOD@vector?5too?5long@
  00005	e8 00 00 00 00	 call	 ?_Xlength_error@std@@YAXPBD@Z ; std::_Xlength_error
$LN3@Xlength:
  0000a	cc		 int	 3
?_Xlength@?$vector@PAUSTextTail@CPythonTextTail@@V?$allocator@PAUSTextTail@CPythonTextTail@@@std@@@std@@CAXXZ ENDP ; std::vector<CPythonTextTail::STextTail *,std::allocator<CPythonTextTail::STextTail *> >::_Xlength
_TEXT	ENDS
; Function compile flags: /Ogtp
; File D:\Metin2 Server Files\mainline\SRC_2014\Metin2Client\eterLib\Pool.h
;	COMDAT ?Delete@?$CDynamicPool@USTextTail@CPythonTextTail@@@@KAXPAUSTextTail@CPythonTextTail@@@Z
_TEXT	SEGMENT
_pkData$ = 8						; size = 4
?Delete@?$CDynamicPool@USTextTail@CPythonTextTail@@@@KAXPAUSTextTail@CPythonTextTail@@@Z PROC ; CDynamicPool<CPythonTextTail::STextTail>::Delete, COMDAT

; 109  : 		{

  00000	55		 push	 ebp
  00001	8b ec		 mov	 ebp, esp

; 110  : 			delete pkData;

  00003	8b 4d 08	 mov	 ecx, DWORD PTR _pkData$[ebp]
  00006	85 c9		 test	 ecx, ecx
  00008	74 06		 je	 SHORT $LN3@Delete
  0000a	8b 01		 mov	 eax, DWORD PTR [ecx]
  0000c	6a 01		 push	 1
  0000e	ff 10		 call	 DWORD PTR [eax]
$LN3@Delete:

; 111  : 		}

  00010	5d		 pop	 ebp
  00011	c3		 ret	 0
?Delete@?$CDynamicPool@USTextTail@CPythonTextTail@@@@KAXPAUSTextTail@CPythonTextTail@@@Z ENDP ; CDynamicPool<CPythonTextTail::STextTail>::Delete
_TEXT	ENDS
; Function compile flags: /Ogtp
; File D:\Metin2 Server Files\mainline\SRC_2014\Metin2Client\eterLib\Pool.h
; File C:\Program Files (x86)\Microsoft Visual Studio\2019\Community\VC\Tools\MSVC\14.28.29333\include\vector
; File C:\Program Files (x86)\Microsoft Visual Studio\2019\Community\VC\Tools\MSVC\14.28.29333\include\xmemory
; File C:\Program Files (x86)\Microsoft Visual Studio\2019\Community\VC\Tools\MSVC\14.28.29333\include\vector
; File C:\Program Files (x86)\Microsoft Visual Studio\2019\Community\VC\Tools\MSVC\14.28.29333\include\xmemory
; File C:\Program Files (x86)\Microsoft Visual Studio\2019\Community\VC\Tools\MSVC\14.28.29333\include\vector
; File C:\Program Files (x86)\Microsoft Visual Studio\2019\Community\VC\Tools\MSVC\14.28.29333\include\xmemory
; File C:\Program Files (x86)\Microsoft Visual Studio\2019\Community\VC\Tools\MSVC\14.28.29333\include\vector
; File C:\Program Files (x86)\Microsoft Visual Studio\2019\Community\VC\Tools\MSVC\14.28.29333\include\xmemory
; File C:\Program Files (x86)\Microsoft Visual Studio\2019\Community\VC\Tools\MSVC\14.28.29333\include\vector
; File D:\Metin2 Server Files\mainline\SRC_2014\Metin2Client\eterLib\Pool.h
;	COMDAT ??1?$CDynamicPool@USTextTail@CPythonTextTail@@@@UAE@XZ
_TEXT	SEGMENT
??1?$CDynamicPool@USTextTail@CPythonTextTail@@@@UAE@XZ PROC ; CDynamicPool<CPythonTextTail::STextTail>::~CDynamicPool<CPythonTextTail::STextTail>, COMDAT
; _this$ = ecx

; 18   : 		{

  00000	56		 push	 esi
  00001	8b f1		 mov	 esi, ecx
  00003	c7 06 00 00 00
	00		 mov	 DWORD PTR [esi], OFFSET ??_7?$CDynamicPool@USTextTail@CPythonTextTail@@@@6B@
; File C:\Program Files (x86)\Microsoft Visual Studio\2019\Community\VC\Tools\MSVC\14.28.29333\include\vector

; 1694 :         if (_Myfirst) { // destroy and deallocate old array

  00009	8b 4e 10	 mov	 ecx, DWORD PTR [esi+16]
  0000c	85 c9		 test	 ecx, ecx
  0000e	74 27		 je	 SHORT $LN6@CDynamicPo

; 1695 :             _Destroy(_Myfirst, _Mylast);
; 1696 :             _Getal().deallocate(_Myfirst, static_cast<size_type>(_Myend - _Myfirst));

  00010	8b 46 18	 mov	 eax, DWORD PTR [esi+24]
  00013	2b c1		 sub	 eax, ecx
; File C:\Program Files (x86)\Microsoft Visual Studio\2019\Community\VC\Tools\MSVC\14.28.29333\include\xmemory

; 810  :         _Deallocate<_New_alignof<_Ty>>(_Ptr, sizeof(_Ty) * _Count);

  00015	83 e0 fc	 and	 eax, -4			; fffffffcH
  00018	50		 push	 eax
  00019	51		 push	 ecx
  0001a	e8 00 00 00 00	 call	 ??$_Deallocate@$07$0A@@std@@YAXPAXI@Z ; std::_Deallocate<8,0>
; File C:\Program Files (x86)\Microsoft Visual Studio\2019\Community\VC\Tools\MSVC\14.28.29333\include\vector

; 1698 :             _Myfirst = pointer();

  0001f	c7 46 10 00 00
	00 00		 mov	 DWORD PTR [esi+16], 0
; File C:\Program Files (x86)\Microsoft Visual Studio\2019\Community\VC\Tools\MSVC\14.28.29333\include\xmemory

; 810  :         _Deallocate<_New_alignof<_Ty>>(_Ptr, sizeof(_Ty) * _Count);

  00026	83 c4 08	 add	 esp, 8
; File C:\Program Files (x86)\Microsoft Visual Studio\2019\Community\VC\Tools\MSVC\14.28.29333\include\vector

; 1699 :             _Mylast  = pointer();

  00029	c7 46 14 00 00
	00 00		 mov	 DWORD PTR [esi+20], 0

; 1700 :             _Myend   = pointer();

  00030	c7 46 18 00 00
	00 00		 mov	 DWORD PTR [esi+24], 0
$LN6@CDynamicPo:

; 1694 :         if (_Myfirst) { // destroy and deallocate old array

  00037	8b 4e 04	 mov	 ecx, DWORD PTR [esi+4]
  0003a	85 c9		 test	 ecx, ecx
  0003c	74 27		 je	 SHORT $LN13@CDynamicPo

; 1695 :             _Destroy(_Myfirst, _Mylast);
; 1696 :             _Getal().deallocate(_Myfirst, static_cast<size_type>(_Myend - _Myfirst));

  0003e	8b 46 0c	 mov	 eax, DWORD PTR [esi+12]
  00041	2b c1		 sub	 eax, ecx
; File C:\Program Files (x86)\Microsoft Visual Studio\2019\Community\VC\Tools\MSVC\14.28.29333\include\xmemory

; 810  :         _Deallocate<_New_alignof<_Ty>>(_Ptr, sizeof(_Ty) * _Count);

  00043	83 e0 fc	 and	 eax, -4			; fffffffcH
  00046	50		 push	 eax
  00047	51		 push	 ecx
  00048	e8 00 00 00 00	 call	 ??$_Deallocate@$07$0A@@std@@YAXPAXI@Z ; std::_Deallocate<8,0>
; File C:\Program Files (x86)\Microsoft Visual Studio\2019\Community\VC\Tools\MSVC\14.28.29333\include\vector

; 1698 :             _Myfirst = pointer();

  0004d	c7 46 04 00 00
	00 00		 mov	 DWORD PTR [esi+4], 0
; File C:\Program Files (x86)\Microsoft Visual Studio\2019\Community\VC\Tools\MSVC\14.28.29333\include\xmemory

; 810  :         _Deallocate<_New_alignof<_Ty>>(_Ptr, sizeof(_Ty) * _Count);

  00054	83 c4 08	 add	 esp, 8
; File C:\Program Files (x86)\Microsoft Visual Studio\2019\Community\VC\Tools\MSVC\14.28.29333\include\vector

; 1699 :             _Mylast  = pointer();

  00057	c7 46 08 00 00
	00 00		 mov	 DWORD PTR [esi+8], 0

; 1700 :             _Myend   = pointer();

  0005e	c7 46 0c 00 00
	00 00		 mov	 DWORD PTR [esi+12], 0
$LN13@CDynamicPo:
  00065	5e		 pop	 esi
; File D:\Metin2 Server Files\mainline\SRC_2014\Metin2Client\eterLib\Pool.h

; 26   : 		}

  00066	c3		 ret	 0
??1?$CDynamicPool@USTextTail@CPythonTextTail@@@@UAE@XZ ENDP ; CDynamicPool<CPythonTextTail::STextTail>::~CDynamicPool<CPythonTextTail::STextTail>
_TEXT	ENDS
; Function compile flags: /Ogtp
; File C:\Program Files (x86)\Microsoft Visual Studio\2019\Community\VC\Tools\MSVC\14.28.29333\include\list
; File C:\Program Files (x86)\Microsoft Visual Studio\2019\Community\VC\Tools\MSVC\14.28.29333\include\xmemory
; File C:\Program Files (x86)\Microsoft Visual Studio\2019\Community\VC\Tools\MSVC\14.28.29333\include\list
; File C:\Program Files (x86)\Microsoft Visual Studio\2019\Community\VC\Tools\MSVC\14.28.29333\include\xmemory
; File C:\Program Files (x86)\Microsoft Visual Studio\2019\Community\VC\Tools\MSVC\14.28.29333\include\list
; File C:\Program Files (x86)\Microsoft Visual Studio\2019\Community\VC\Tools\MSVC\14.28.29333\include\xmemory
; File C:\Program Files (x86)\Microsoft Visual Studio\2019\Community\VC\Tools\MSVC\14.28.29333\include\list
;	COMDAT ?push_back@?$list@PAUSTextTail@CPythonTextTail@@V?$allocator@PAUSTextTail@CPythonTextTail@@@std@@@std@@QAEXABQAUSTextTail@CPythonTextTail@@@Z
_TEXT	SEGMENT
__Op$2 = -20						; size = 8
__Insert_after$3 = -16					; size = 4
__$EHRec$ = -12						; size = 12
__Insert_before$ = 8					; size = 4
__Val$ = 8						; size = 4
?push_back@?$list@PAUSTextTail@CPythonTextTail@@V?$allocator@PAUSTextTail@CPythonTextTail@@@std@@@std@@QAEXABQAUSTextTail@CPythonTextTail@@@Z PROC ; std::list<CPythonTextTail::STextTail *,std::allocator<CPythonTextTail::STextTail *> >::push_back, COMDAT
; _this$ = ecx

; 1251 :     void push_back(const _Ty& _Val) {

  00000	55		 push	 ebp
  00001	8b ec		 mov	 ebp, esp
  00003	6a ff		 push	 -1
  00005	68 00 00 00 00	 push	 __ehhandler$?push_back@?$list@PAUSTextTail@CPythonTextTail@@V?$allocator@PAUSTextTail@CPythonTextTail@@@std@@@std@@QAEXABQAUSTextTail@CPythonTextTail@@@Z
  0000a	64 a1 00 00 00
	00		 mov	 eax, DWORD PTR fs:0
  00010	50		 push	 eax
  00011	83 ec 08	 sub	 esp, 8
  00014	53		 push	 ebx
  00015	56		 push	 esi
  00016	57		 push	 edi
  00017	a1 00 00 00 00	 mov	 eax, DWORD PTR ___security_cookie
  0001c	33 c5		 xor	 eax, ebp
  0001e	50		 push	 eax
  0001f	8d 45 f4	 lea	 eax, DWORD PTR __$EHRec$[ebp]
  00022	64 a3 00 00 00
	00		 mov	 DWORD PTR fs:0, eax
  00028	8b f1		 mov	 esi, ecx

; 1014 :         if (_Mysize == max_size()) {

  0002a	81 7e 04 55 55
	55 15		 cmp	 DWORD PTR [esi+4], 357913941 ; 15555555H

; 1252 :         _Emplace(_Mypair._Myval2._Myhead, _Val);

  00031	8b 1e		 mov	 ebx, DWORD PTR [esi]

; 1014 :         if (_Mysize == max_size()) {

  00033	74 61		 je	 SHORT $LN38@push_back
; File C:\Program Files (x86)\Microsoft Visual Studio\2019\Community\VC\Tools\MSVC\14.28.29333\include\xmemory

; 1045 :     explicit _Alloc_construct_ptr(_Alloc& _Al_) : _Al(_Al_), _Ptr(nullptr) {}

  00035	89 75 ec	 mov	 DWORD PTR __Op$2[ebp], esi

; 814  :         return static_cast<_Ty*>(_Allocate<_New_alignof<_Ty>>(_Get_size_of_n<sizeof(_Ty)>(_Count)));

  00038	6a 0c		 push	 12			; 0000000cH
; File C:\Program Files (x86)\Microsoft Visual Studio\2019\Community\VC\Tools\MSVC\14.28.29333\include\list

; 585  :     explicit _List_node_emplace_op2(_Alnode& _Al_, _Valtys&&... _Vals) : _Alloc_construct_ptr<_Alnode>(_Al_) {

  0003a	c7 45 fc 00 00
	00 00		 mov	 DWORD PTR __$EHRec$[ebp+8], 0
; File C:\Program Files (x86)\Microsoft Visual Studio\2019\Community\VC\Tools\MSVC\14.28.29333\include\xmemory

; 1052 :         _Ptr = nullptr; // if allocate throws, prevents double-free

  00041	c7 45 f0 00 00
	00 00		 mov	 DWORD PTR __Op$2[ebp+4], 0

; 814  :         return static_cast<_Ty*>(_Allocate<_New_alignof<_Ty>>(_Get_size_of_n<sizeof(_Ty)>(_Count)));

  00048	e8 00 00 00 00	 call	 ??$_Allocate@$07U_Default_allocate_traits@std@@$0A@@std@@YAPAXI@Z ; std::_Allocate<8,std::_Default_allocate_traits,0>
; File C:\Program Files (x86)\Microsoft Visual Studio\2019\Community\VC\Tools\MSVC\14.28.29333\include\list

; 587  :         _Alnode_traits::construct(this->_Al, _STD addressof(this->_Ptr->_Myval), _STD forward<_Valtys>(_Vals)...);

  0004d	8b 4d 08	 mov	 ecx, DWORD PTR __Val$[ebp]
; File C:\Program Files (x86)\Microsoft Visual Studio\2019\Community\VC\Tools\MSVC\14.28.29333\include\xmemory

; 1053 :         _Ptr = _Al.allocate(1);

  00050	8b f8		 mov	 edi, eax
; File C:\Program Files (x86)\Microsoft Visual Studio\2019\Community\VC\Tools\MSVC\14.28.29333\include\list

; 601  :         _Construct_in_place(this->_Ptr->_Next, _Insert_before);

  00052	8d 45 08	 lea	 eax, DWORD PTR __Insert_before$[ebp]

; 1020 :         return _Op._Transfer_before(_Where);

  00055	89 5d 08	 mov	 DWORD PTR __Insert_before$[ebp], ebx

; 601  :         _Construct_in_place(this->_Ptr->_Next, _Insert_before);

  00058	50		 push	 eax
  00059	57		 push	 edi

; 587  :         _Alnode_traits::construct(this->_Al, _STD addressof(this->_Ptr->_Myval), _STD forward<_Valtys>(_Vals)...);

  0005a	8b 09		 mov	 ecx, DWORD PTR [ecx]
  0005c	89 4f 08	 mov	 DWORD PTR [edi+8], ecx

; 1019 :         ++_Mysize;

  0005f	ff 46 04	 inc	 DWORD PTR [esi+4]

; 600  :         const pointer _Insert_after = _Insert_before->_Prev;

  00062	8b 73 04	 mov	 esi, DWORD PTR [ebx+4]
  00065	89 75 f0	 mov	 DWORD PTR __Insert_after$3[ebp], esi

; 601  :         _Construct_in_place(this->_Ptr->_Next, _Insert_before);

  00068	e8 00 00 00 00	 call	 ??$_Construct_in_place@PAU?$_List_node@PAUSTextTail@CPythonTextTail@@PAX@std@@ABQAU12@@std@@YAXAAPAU?$_List_node@PAUSTextTail@CPythonTextTail@@PAX@0@ABQAU10@@Z ; std::_Construct_in_place<std::_List_node<CPythonTextTail::STextTail *,void *> *,std::_List_node<CPythonTextTail::STextTail *,void *> * const &>

; 602  :         _Construct_in_place(this->_Ptr->_Prev, _Insert_after);

  0006d	8d 45 f0	 lea	 eax, DWORD PTR __Insert_after$3[ebp]
  00070	50		 push	 eax
  00071	8d 47 04	 lea	 eax, DWORD PTR [edi+4]
  00074	50		 push	 eax
  00075	e8 00 00 00 00	 call	 ??$_Construct_in_place@PAU?$_List_node@PAUSTextTail@CPythonTextTail@@PAX@std@@ABQAU12@@std@@YAXAAPAU?$_List_node@PAUSTextTail@CPythonTextTail@@PAX@0@ABQAU10@@Z ; std::_Construct_in_place<std::_List_node<CPythonTextTail::STextTail *,void *> *,std::_List_node<CPythonTextTail::STextTail *,void *> * const &>

; 603  :         const auto _Result    = this->_Ptr;
; 604  :         this->_Ptr            = pointer{};
; 605  :         _Insert_before->_Prev = _Result;

  0007a	89 7b 04	 mov	 DWORD PTR [ebx+4], edi
  0007d	83 c4 14	 add	 esp, 20			; 00000014H

; 606  :         _Insert_after->_Next  = _Result;

  00080	89 3e		 mov	 DWORD PTR [esi], edi

; 1253 :     }

  00082	8b 4d f4	 mov	 ecx, DWORD PTR __$EHRec$[ebp]
  00085	64 89 0d 00 00
	00 00		 mov	 DWORD PTR fs:0, ecx
  0008c	59		 pop	 ecx
  0008d	5f		 pop	 edi
  0008e	5e		 pop	 esi
  0008f	5b		 pop	 ebx
  00090	8b e5		 mov	 esp, ebp
  00092	5d		 pop	 ebp
  00093	c2 04 00	 ret	 4
$LN38@push_back:

; 1015 :             _Xlength_error("list too long");

  00096	68 00 00 00 00	 push	 OFFSET ??_C@_0O@NKNMEGII@list?5too?5long@
  0009b	e8 00 00 00 00	 call	 ?_Xlength_error@std@@YAXPBD@Z ; std::_Xlength_error
$LN36@push_back:
  000a0	cc		 int	 3
_TEXT	ENDS
;	COMDAT text$x
text$x	SEGMENT
__unwindfunclet$?push_back@?$list@PAUSTextTail@CPythonTextTail@@V?$allocator@PAUSTextTail@CPythonTextTail@@@std@@@std@@QAEXABQAUSTextTail@CPythonTextTail@@@Z$1:
  00000	8d 4d ec	 lea	 ecx, DWORD PTR __Op$2[ebp]
  00003	e9 00 00 00 00	 jmp	 ??1?$_Alloc_construct_ptr@V?$allocator@U?$_List_node@PAUSTextTail@CPythonTextTail@@PAX@std@@@std@@@std@@QAE@XZ ; std::_Alloc_construct_ptr<std::allocator<std::_List_node<CPythonTextTail::STextTail *,void *> > >::~_Alloc_construct_ptr<std::allocator<std::_List_node<CPythonTextTail::STextTail *,void *> > >
  00008	cc		 int	 3
  00009	cc		 int	 3
  0000a	cc		 int	 3
  0000b	cc		 int	 3
  0000c	cc		 int	 3
__ehhandler$?push_back@?$list@PAUSTextTail@CPythonTextTail@@V?$allocator@PAUSTextTail@CPythonTextTail@@@std@@@std@@QAEXABQAUSTextTail@CPythonTextTail@@@Z:
  0000d	90		 npad	 1
  0000e	90		 npad	 1
  0000f	8b 54 24 08	 mov	 edx, DWORD PTR [esp+8]
  00013	8d 42 0c	 lea	 eax, DWORD PTR [edx+12]
  00016	8b 4a e8	 mov	 ecx, DWORD PTR [edx-24]
  00019	33 c8		 xor	 ecx, eax
  0001b	e8 00 00 00 00	 call	 @__security_check_cookie@4
  00020	b8 00 00 00 00	 mov	 eax, OFFSET __ehfuncinfo$?push_back@?$list@PAUSTextTail@CPythonTextTail@@V?$allocator@PAUSTextTail@CPythonTextTail@@@std@@@std@@QAEXABQAUSTextTail@CPythonTextTail@@@Z
  00025	e9 00 00 00 00	 jmp	 ___CxxFrameHandler3
text$x	ENDS
?push_back@?$list@PAUSTextTail@CPythonTextTail@@V?$allocator@PAUSTextTail@CPythonTextTail@@@std@@@std@@QAEXABQAUSTextTail@CPythonTextTail@@@Z ENDP ; std::list<CPythonTextTail::STextTail *,std::allocator<CPythonTextTail::STextTail *> >::push_back
; Function compile flags: /Ogtp
; File C:\Program Files (x86)\Microsoft Visual Studio\2019\Community\VC\Tools\MSVC\14.28.29333\include\list
; File C:\Program Files (x86)\Microsoft Visual Studio\2019\Community\VC\Tools\MSVC\14.28.29333\include\xmemory
; File C:\Program Files (x86)\Microsoft Visual Studio\2019\Community\VC\Tools\MSVC\14.28.29333\include\list
; File C:\Program Files (x86)\Microsoft Visual Studio\2019\Community\VC\Tools\MSVC\14.28.29333\include\xmemory
; File C:\Program Files (x86)\Microsoft Visual Studio\2019\Community\VC\Tools\MSVC\14.28.29333\include\list
;	COMDAT ??1?$list@PAUSTextTail@CPythonTextTail@@V?$allocator@PAUSTextTail@CPythonTextTail@@@std@@@std@@QAE@XZ
_TEXT	SEGMENT
??1?$list@PAUSTextTail@CPythonTextTail@@V?$allocator@PAUSTextTail@CPythonTextTail@@@std@@@std@@QAE@XZ PROC ; std::list<CPythonTextTail::STextTail *,std::allocator<CPythonTextTail::STextTail *> >::~list<CPythonTextTail::STextTail *,std::allocator<CPythonTextTail::STextTail *> >, COMDAT
; _this$ = ecx

; 1045 :     ~list() noexcept {

  00000	57		 push	 edi
  00001	8b f9		 mov	 edi, ecx

; 1440 :         _Node::_Free_non_head(_Al, _My_data._Myhead);

  00003	8b 17		 mov	 edx, DWORD PTR [edi]

; 324  :         _Head->_Prev->_Next = nullptr;

  00005	8b 42 04	 mov	 eax, DWORD PTR [edx+4]
  00008	c7 00 00 00 00
	00		 mov	 DWORD PTR [eax], 0

; 325  : 
; 326  :         auto _Pnode = _Head->_Next;

  0000e	8b 02		 mov	 eax, DWORD PTR [edx]

; 327  :         for (_Nodeptr _Pnext; _Pnode; _Pnode = _Pnext) {

  00010	85 c0		 test	 eax, eax
  00012	74 15		 je	 SHORT $LN7@list
  00014	56		 push	 esi
$LL8@list:

; 328  :             _Pnext = _Pnode->_Next;

  00015	8b 30		 mov	 esi, DWORD PTR [eax]
; File C:\Program Files (x86)\Microsoft Visual Studio\2019\Community\VC\Tools\MSVC\14.28.29333\include\xmemory

; 696  :         _Deallocate<_New_alignof<value_type>>(_Ptr, sizeof(value_type) * _Count);

  00017	6a 0c		 push	 12			; 0000000cH
  00019	50		 push	 eax
  0001a	e8 00 00 00 00	 call	 ??$_Deallocate@$07$0A@@std@@YAXPAXI@Z ; std::_Deallocate<8,0>
  0001f	83 c4 08	 add	 esp, 8
; File C:\Program Files (x86)\Microsoft Visual Studio\2019\Community\VC\Tools\MSVC\14.28.29333\include\list

; 327  :         for (_Nodeptr _Pnext; _Pnode; _Pnode = _Pnext) {

  00022	8b c6		 mov	 eax, esi
  00024	85 f6		 test	 esi, esi
  00026	75 ed		 jne	 SHORT $LL8@list
  00028	5e		 pop	 esi
$LN7@list:
; File C:\Program Files (x86)\Microsoft Visual Studio\2019\Community\VC\Tools\MSVC\14.28.29333\include\xmemory

; 696  :         _Deallocate<_New_alignof<value_type>>(_Ptr, sizeof(value_type) * _Count);

  00029	6a 0c		 push	 12			; 0000000cH
  0002b	ff 37		 push	 DWORD PTR [edi]
  0002d	e8 00 00 00 00	 call	 ??$_Deallocate@$07$0A@@std@@YAXPAXI@Z ; std::_Deallocate<8,0>
  00032	83 c4 08	 add	 esp, 8
  00035	5f		 pop	 edi
; File C:\Program Files (x86)\Microsoft Visual Studio\2019\Community\VC\Tools\MSVC\14.28.29333\include\list

; 1051 :     }

  00036	c3		 ret	 0
??1?$list@PAUSTextTail@CPythonTextTail@@V?$allocator@PAUSTextTail@CPythonTextTail@@@std@@@std@@QAE@XZ ENDP ; std::list<CPythonTextTail::STextTail *,std::allocator<CPythonTextTail::STextTail *> >::~list<CPythonTextTail::STextTail *,std::allocator<CPythonTextTail::STextTail *> >
_TEXT	ENDS
; Function compile flags: /Ogtp
;	COMDAT ??1?$map@KPAUSTextTail@CPythonTextTail@@U?$less@K@std@@V?$allocator@U?$pair@$$CBKPAUSTextTail@CPythonTextTail@@@std@@@4@@std@@QAE@XZ
_TEXT	SEGMENT
??1?$map@KPAUSTextTail@CPythonTextTail@@U?$less@K@std@@V?$allocator@U?$pair@$$CBKPAUSTextTail@CPythonTextTail@@@std@@@4@@std@@QAE@XZ PROC ; std::map<unsigned long,CPythonTextTail::STextTail *,std::less<unsigned long>,std::allocator<std::pair<unsigned long const ,CPythonTextTail::STextTail *> > >::~map<unsigned long,CPythonTextTail::STextTail *,std::less<unsigned long>,std::allocator<std::pair<unsigned long const ,CPythonTextTail::STextTail *> > >, COMDAT
; _this$ = ecx
  00000	e9 00 00 00 00	 jmp	 ??1?$_Tree@V?$_Tmap_traits@KPAUSTextTail@CPythonTextTail@@U?$less@K@std@@V?$allocator@U?$pair@$$CBKPAUSTextTail@CPythonTextTail@@@std@@@4@$0A@@std@@@std@@QAE@XZ ; std::_Tree<std::_Tmap_traits<unsigned long,CPythonTextTail::STextTail *,std::less<unsigned long>,std::allocator<std::pair<unsigned long const ,CPythonTextTail::STextTail *> >,0> >::~_Tree<std::_Tmap_traits<unsigned long,CPythonTextTail::STextTail *,std::less<unsigned long>,std::allocator<std::pair<unsigned long const ,CPythonTextTail::STextTail *> >,0> >
??1?$map@KPAUSTextTail@CPythonTextTail@@U?$less@K@std@@V?$allocator@U?$pair@$$CBKPAUSTextTail@CPythonTextTail@@@std@@@4@@std@@QAE@XZ ENDP ; std::map<unsigned long,CPythonTextTail::STextTail *,std::less<unsigned long>,std::allocator<std::pair<unsigned long const ,CPythonTextTail::STextTail *> > >::~map<unsigned long,CPythonTextTail::STextTail *,std::less<unsigned long>,std::allocator<std::pair<unsigned long const ,CPythonTextTail::STextTail *> > >
_TEXT	ENDS
; Function compile flags: /Ogtp
; File C:\Program Files (x86)\Microsoft Visual Studio\2019\Community\VC\Tools\MSVC\14.28.29333\include\xtree
;	COMDAT ?_Insert_node@?$_Tree_val@U?$_Tree_simple_types@U?$pair@$$CBKPAUSTextTail@CPythonTextTail@@@std@@@std@@@std@@QAEPAU?$_Tree_node@U?$pair@$$CBKPAUSTextTail@CPythonTextTail@@@std@@PAX@2@U?$_Tree_id@PAU?$_Tree_node@U?$pair@$$CBKPAUSTextTail@CPythonTextTail@@@std@@PAX@std@@@2@QAU32@@Z
_TEXT	SEGMENT
__Head$1$ = -8						; size = 4
_this$1$ = -4						; size = 4
__Loc$ = 8						; size = 8
__Newnode$ = 16						; size = 4
?_Insert_node@?$_Tree_val@U?$_Tree_simple_types@U?$pair@$$CBKPAUSTextTail@CPythonTextTail@@@std@@@std@@@std@@QAEPAU?$_Tree_node@U?$pair@$$CBKPAUSTextTail@CPythonTextTail@@@std@@PAX@2@U?$_Tree_id@PAU?$_Tree_node@U?$pair@$$CBKPAUSTextTail@CPythonTextTail@@@std@@PAX@std@@@2@QAU32@@Z PROC ; std::_Tree_val<std::_Tree_simple_types<std::pair<unsigned long const ,CPythonTextTail::STextTail *> > >::_Insert_node, COMDAT
; _this$ = ecx

; 644  :     _Nodeptr _Insert_node(const _Tree_id<_Nodeptr> _Loc, const _Nodeptr _Newnode) noexcept {

  00000	55		 push	 ebp
  00001	8b ec		 mov	 ebp, esp
  00003	83 ec 08	 sub	 esp, 8

; 645  :         ++_Mysize;
; 646  :         const auto _Head  = _Myhead;
; 647  :         _Newnode->_Parent = _Loc._Parent;

  00006	8b 55 08	 mov	 edx, DWORD PTR __Loc$[ebp]
  00009	8b c1		 mov	 eax, ecx
  0000b	89 45 fc	 mov	 DWORD PTR _this$1$[ebp], eax
  0000e	8b 08		 mov	 ecx, DWORD PTR [eax]
  00010	ff 40 04	 inc	 DWORD PTR [eax+4]
  00013	8b 45 10	 mov	 eax, DWORD PTR __Newnode$[ebp]
  00016	89 4d f8	 mov	 DWORD PTR __Head$1$[ebp], ecx
  00019	89 50 04	 mov	 DWORD PTR [eax+4], edx

; 648  :         if (_Loc._Parent == _Head) { // first node in tree, just set head values

  0001c	3b d1		 cmp	 edx, ecx
  0001e	75 12		 jne	 SHORT $LN5@Insert_nod

; 649  :             _Head->_Left     = _Newnode;

  00020	89 01		 mov	 DWORD PTR [ecx], eax

; 650  :             _Head->_Parent   = _Newnode;

  00022	89 41 04	 mov	 DWORD PTR [ecx+4], eax

; 651  :             _Head->_Right    = _Newnode;

  00025	89 41 08	 mov	 DWORD PTR [ecx+8], eax

; 652  :             _Newnode->_Color = _Black; // the root is black

  00028	c6 40 0c 01	 mov	 BYTE PTR [eax+12], 1

; 711  :     }

  0002c	8b e5		 mov	 esp, ebp
  0002e	5d		 pop	 ebp
  0002f	c2 0c 00	 ret	 12			; 0000000cH
$LN5@Insert_nod:

; 653  :             return _Newnode;
; 654  :         }
; 655  : 
; 656  :         _STL_INTERNAL_CHECK(_Loc._Child != _Tree_child::_Unused);
; 657  :         if (_Loc._Child == _Tree_child::_Right) { // add to right of _Loc._Parent

  00032	83 7d 0c 00	 cmp	 DWORD PTR __Loc$[ebp+4], 0
  00036	75 0d		 jne	 SHORT $LN6@Insert_nod

; 658  :             _STL_INTERNAL_CHECK(_Loc._Parent->_Right->_Isnil);
; 659  :             _Loc._Parent->_Right = _Newnode;

  00038	89 42 08	 mov	 DWORD PTR [edx+8], eax

; 660  :             if (_Loc._Parent == _Head->_Right) { // remember rightmost node

  0003b	3b 51 08	 cmp	 edx, DWORD PTR [ecx+8]
  0003e	75 0d		 jne	 SHORT $LN9@Insert_nod

; 661  :                 _Head->_Right = _Newnode;

  00040	89 41 08	 mov	 DWORD PTR [ecx+8], eax

; 662  :             }
; 663  :         } else { // add to left of _Loc._Parent

  00043	eb 08		 jmp	 SHORT $LN9@Insert_nod
$LN6@Insert_nod:

; 664  :             _STL_INTERNAL_CHECK(_Loc._Parent->_Left->_Isnil);
; 665  :             _Loc._Parent->_Left = _Newnode;

  00045	89 02		 mov	 DWORD PTR [edx], eax

; 666  :             if (_Loc._Parent == _Head->_Left) { // remember leftmost node

  00047	3b 11		 cmp	 edx, DWORD PTR [ecx]
  00049	75 02		 jne	 SHORT $LN9@Insert_nod

; 667  :                 _Head->_Left = _Newnode;

  0004b	89 01		 mov	 DWORD PTR [ecx], eax
$LN9@Insert_nod:

; 668  :             }
; 669  :         }
; 670  : 
; 671  :         for (_Nodeptr _Pnode = _Newnode; _Pnode->_Parent->_Color == _Red;) {

  0004d	8b d0		 mov	 edx, eax
  0004f	8b 40 04	 mov	 eax, DWORD PTR [eax+4]
  00052	80 78 0c 00	 cmp	 BYTE PTR [eax+12], 0
  00056	0f 85 99 01 00
	00		 jne	 $LN3@Insert_nod
  0005c	53		 push	 ebx
  0005d	56		 push	 esi
  0005e	57		 push	 edi
  0005f	90		 npad	 1
$LL2@Insert_nod:

; 672  :             if (_Pnode->_Parent == _Pnode->_Parent->_Parent->_Left) { // fixup red-red in left subtree

  00060	8b 4a 04	 mov	 ecx, DWORD PTR [edx+4]
  00063	8d 7a 04	 lea	 edi, DWORD PTR [edx+4]
  00066	8b 71 04	 mov	 esi, DWORD PTR [ecx+4]
  00069	8d 59 04	 lea	 ebx, DWORD PTR [ecx+4]
  0006c	8b 06		 mov	 eax, DWORD PTR [esi]
  0006e	3b c8		 cmp	 ecx, eax
  00070	0f 85 ba 00 00
	00		 jne	 $LN10@Insert_nod

; 673  :                 const auto _Parent_sibling = _Pnode->_Parent->_Parent->_Right;

  00076	8b 46 08	 mov	 eax, DWORD PTR [esi+8]

; 674  :                 if (_Parent_sibling->_Color == _Red) { // parent's sibling has two red children, blacken both

  00079	80 78 0c 00	 cmp	 BYTE PTR [eax+12], 0
  0007d	0f 84 b3 00 00
	00		 je	 $LN53@Insert_nod

; 675  :                     _Pnode->_Parent->_Color          = _Black;
; 676  :                     _Parent_sibling->_Color          = _Black;
; 677  :                     _Pnode->_Parent->_Parent->_Color = _Red;
; 678  :                     _Pnode                           = _Pnode->_Parent->_Parent;
; 679  :                 } else { // parent's sibling has red and black children
; 680  :                     if (_Pnode == _Pnode->_Parent->_Right) { // rotate right child to left

  00083	8b 71 08	 mov	 esi, DWORD PTR [ecx+8]
  00086	3b d6		 cmp	 edx, esi
  00088	75 47		 jne	 SHORT $LN51@Insert_nod

; 460  :         _Wherenode->_Right = _Pnode->_Left;

  0008a	8b 06		 mov	 eax, DWORD PTR [esi]

; 681  :                         _Pnode = _Pnode->_Parent;

  0008c	8b d1		 mov	 edx, ecx

; 460  :         _Wherenode->_Right = _Pnode->_Left;

  0008e	89 42 08	 mov	 DWORD PTR [edx+8], eax

; 461  : 
; 462  :         if (!_Pnode->_Left->_Isnil) {

  00091	8b 06		 mov	 eax, DWORD PTR [esi]
  00093	80 78 0d 00	 cmp	 BYTE PTR [eax+13], 0
  00097	75 03		 jne	 SHORT $LN20@Insert_nod

; 463  :             _Pnode->_Left->_Parent = _Wherenode;

  00099	89 50 04	 mov	 DWORD PTR [eax+4], edx
$LN20@Insert_nod:

; 464  :         }
; 465  : 
; 466  :         _Pnode->_Parent = _Wherenode->_Parent;

  0009c	8b 03		 mov	 eax, DWORD PTR [ebx]
  0009e	89 46 04	 mov	 DWORD PTR [esi+4], eax

; 467  : 
; 468  :         if (_Wherenode == _Myhead->_Parent) {

  000a1	8b 45 fc	 mov	 eax, DWORD PTR _this$1$[ebp]
  000a4	8b 00		 mov	 eax, DWORD PTR [eax]
  000a6	3b 50 04	 cmp	 edx, DWORD PTR [eax+4]
  000a9	75 0b		 jne	 SHORT $LN21@Insert_nod

; 469  :             _Myhead->_Parent = _Pnode;

  000ab	89 70 04	 mov	 DWORD PTR [eax+4], esi

; 477  :         _Wherenode->_Parent = _Pnode;

  000ae	8b fb		 mov	 edi, ebx
  000b0	89 16		 mov	 DWORD PTR [esi], edx
  000b2	89 33		 mov	 DWORD PTR [ebx], esi
  000b4	eb 1d		 jmp	 SHORT $LN49@Insert_nod
$LN21@Insert_nod:

; 470  :         } else if (_Wherenode == _Wherenode->_Parent->_Left) {

  000b6	8b 03		 mov	 eax, DWORD PTR [ebx]
  000b8	3b 10		 cmp	 edx, DWORD PTR [eax]
  000ba	75 0a		 jne	 SHORT $LN23@Insert_nod

; 471  :             _Wherenode->_Parent->_Left = _Pnode;

  000bc	89 30		 mov	 DWORD PTR [eax], esi

; 477  :         _Wherenode->_Parent = _Pnode;

  000be	8b fb		 mov	 edi, ebx
  000c0	89 16		 mov	 DWORD PTR [esi], edx
  000c2	89 33		 mov	 DWORD PTR [ebx], esi
  000c4	eb 0d		 jmp	 SHORT $LN49@Insert_nod
$LN23@Insert_nod:

; 473  :             _Wherenode->_Parent->_Right = _Pnode;

  000c6	89 70 08	 mov	 DWORD PTR [eax+8], esi

; 477  :         _Wherenode->_Parent = _Pnode;

  000c9	8b fb		 mov	 edi, ebx
  000cb	89 16		 mov	 DWORD PTR [esi], edx
  000cd	89 33		 mov	 DWORD PTR [ebx], esi
  000cf	eb 02		 jmp	 SHORT $LN49@Insert_nod
$LN51@Insert_nod:
  000d1	8b f1		 mov	 esi, ecx
$LN49@Insert_nod:

; 682  :                         _Lrotate(_Pnode);
; 683  :                     }
; 684  : 
; 685  :                     _Pnode->_Parent->_Color          = _Black; // propagate red up

  000d3	c6 46 0c 01	 mov	 BYTE PTR [esi+12], 1

; 686  :                     _Pnode->_Parent->_Parent->_Color = _Red;

  000d7	8b 07		 mov	 eax, DWORD PTR [edi]
  000d9	8b 40 04	 mov	 eax, DWORD PTR [eax+4]
  000dc	c6 40 0c 00	 mov	 BYTE PTR [eax+12], 0

; 687  :                     _Rrotate(_Pnode->_Parent->_Parent);

  000e0	8b 07		 mov	 eax, DWORD PTR [edi]
  000e2	8b 48 04	 mov	 ecx, DWORD PTR [eax+4]

; 481  :         _Nodeptr _Pnode   = _Wherenode->_Left;

  000e5	8b 31		 mov	 esi, DWORD PTR [ecx]

; 482  :         _Wherenode->_Left = _Pnode->_Right;

  000e7	8b 46 08	 mov	 eax, DWORD PTR [esi+8]
  000ea	89 01		 mov	 DWORD PTR [ecx], eax

; 483  : 
; 484  :         if (!_Pnode->_Right->_Isnil) {

  000ec	8b 46 08	 mov	 eax, DWORD PTR [esi+8]
  000ef	80 78 0d 00	 cmp	 BYTE PTR [eax+13], 0
  000f3	75 03		 jne	 SHORT $LN27@Insert_nod

; 485  :             _Pnode->_Right->_Parent = _Wherenode;

  000f5	89 48 04	 mov	 DWORD PTR [eax+4], ecx
$LN27@Insert_nod:

; 486  :         }
; 487  : 
; 488  :         _Pnode->_Parent = _Wherenode->_Parent;

  000f8	8b 41 04	 mov	 eax, DWORD PTR [ecx+4]
  000fb	89 46 04	 mov	 DWORD PTR [esi+4], eax

; 489  : 
; 490  :         if (_Wherenode == _Myhead->_Parent) {

  000fe	8b 45 fc	 mov	 eax, DWORD PTR _this$1$[ebp]
  00101	8b 00		 mov	 eax, DWORD PTR [eax]
  00103	3b 48 04	 cmp	 ecx, DWORD PTR [eax+4]
  00106	75 0b		 jne	 SHORT $LN28@Insert_nod

; 491  :             _Myhead->_Parent = _Pnode;

  00108	89 70 04	 mov	 DWORD PTR [eax+4], esi

; 496  :         }
; 497  : 
; 498  :         _Pnode->_Right      = _Wherenode;

  0010b	89 4e 08	 mov	 DWORD PTR [esi+8], ecx

; 688  :                 }
; 689  :             } else { // fixup red-red in right subtree

  0010e	e9 cc 00 00 00	 jmp	 $LN52@Insert_nod
$LN28@Insert_nod:

; 492  :         } else if (_Wherenode == _Wherenode->_Parent->_Right) {

  00113	8b 41 04	 mov	 eax, DWORD PTR [ecx+4]
  00116	3b 48 08	 cmp	 ecx, DWORD PTR [eax+8]
  00119	75 0b		 jne	 SHORT $LN30@Insert_nod

; 493  :             _Wherenode->_Parent->_Right = _Pnode;

  0011b	89 70 08	 mov	 DWORD PTR [eax+8], esi

; 496  :         }
; 497  : 
; 498  :         _Pnode->_Right      = _Wherenode;

  0011e	89 4e 08	 mov	 DWORD PTR [esi+8], ecx

; 688  :                 }
; 689  :             } else { // fixup red-red in right subtree

  00121	e9 b9 00 00 00	 jmp	 $LN52@Insert_nod
$LN30@Insert_nod:

; 495  :             _Wherenode->_Parent->_Left = _Pnode;

  00126	89 30		 mov	 DWORD PTR [eax], esi

; 496  :         }
; 497  : 
; 498  :         _Pnode->_Right      = _Wherenode;

  00128	89 4e 08	 mov	 DWORD PTR [esi+8], ecx

; 688  :                 }
; 689  :             } else { // fixup red-red in right subtree

  0012b	e9 af 00 00 00	 jmp	 $LN52@Insert_nod
$LN10@Insert_nod:

; 690  :                 const auto _Parent_sibling = _Pnode->_Parent->_Parent->_Left;
; 691  :                 if (_Parent_sibling->_Color == _Red) { // parent's sibling has two red children, blacken both

  00130	80 78 0c 00	 cmp	 BYTE PTR [eax+12], 0
  00134	75 1b		 jne	 SHORT $LN15@Insert_nod
$LN53@Insert_nod:

; 668  :             }
; 669  :         }
; 670  : 
; 671  :         for (_Nodeptr _Pnode = _Newnode; _Pnode->_Parent->_Color == _Red;) {

  00136	c6 41 0c 01	 mov	 BYTE PTR [ecx+12], 1
  0013a	c6 40 0c 01	 mov	 BYTE PTR [eax+12], 1
  0013e	8b 07		 mov	 eax, DWORD PTR [edi]
  00140	8b 40 04	 mov	 eax, DWORD PTR [eax+4]
  00143	c6 40 0c 00	 mov	 BYTE PTR [eax+12], 0
  00147	8b 07		 mov	 eax, DWORD PTR [edi]
  00149	8b 50 04	 mov	 edx, DWORD PTR [eax+4]
  0014c	e9 91 00 00 00	 jmp	 $LN46@Insert_nod
$LN15@Insert_nod:

; 692  :                     _Pnode->_Parent->_Color          = _Black;
; 693  :                     _Parent_sibling->_Color          = _Black;
; 694  :                     _Pnode->_Parent->_Parent->_Color = _Red;
; 695  :                     _Pnode                           = _Pnode->_Parent->_Parent;
; 696  :                 } else { // parent's sibling has red and black children
; 697  :                     if (_Pnode == _Pnode->_Parent->_Left) { // rotate left child to right

  00151	8b 01		 mov	 eax, DWORD PTR [ecx]
  00153	3b d0		 cmp	 edx, eax
  00155	75 3e		 jne	 SHORT $LN39@Insert_nod

; 698  :                         _Pnode = _Pnode->_Parent;

  00157	8b d1		 mov	 edx, ecx

; 481  :         _Nodeptr _Pnode   = _Wherenode->_Left;

  00159	8b c8		 mov	 ecx, eax

; 482  :         _Wherenode->_Left = _Pnode->_Right;

  0015b	8b 41 08	 mov	 eax, DWORD PTR [ecx+8]
  0015e	89 02		 mov	 DWORD PTR [edx], eax

; 483  : 
; 484  :         if (!_Pnode->_Right->_Isnil) {

  00160	8b 41 08	 mov	 eax, DWORD PTR [ecx+8]
  00163	80 78 0d 00	 cmp	 BYTE PTR [eax+13], 0
  00167	75 03		 jne	 SHORT $LN34@Insert_nod

; 485  :             _Pnode->_Right->_Parent = _Wherenode;

  00169	89 50 04	 mov	 DWORD PTR [eax+4], edx
$LN34@Insert_nod:

; 486  :         }
; 487  : 
; 488  :         _Pnode->_Parent = _Wherenode->_Parent;

  0016c	8b 03		 mov	 eax, DWORD PTR [ebx]
  0016e	89 41 04	 mov	 DWORD PTR [ecx+4], eax

; 489  : 
; 490  :         if (_Wherenode == _Myhead->_Parent) {

  00171	8b 45 fc	 mov	 eax, DWORD PTR _this$1$[ebp]
  00174	8b 00		 mov	 eax, DWORD PTR [eax]
  00176	3b 50 04	 cmp	 edx, DWORD PTR [eax+4]
  00179	75 05		 jne	 SHORT $LN35@Insert_nod

; 491  :             _Myhead->_Parent = _Pnode;

  0017b	89 48 04	 mov	 DWORD PTR [eax+4], ecx
  0017e	eb 0e		 jmp	 SHORT $LN38@Insert_nod
$LN35@Insert_nod:

; 492  :         } else if (_Wherenode == _Wherenode->_Parent->_Right) {

  00180	8b 03		 mov	 eax, DWORD PTR [ebx]
  00182	3b 50 08	 cmp	 edx, DWORD PTR [eax+8]
  00185	75 05		 jne	 SHORT $LN37@Insert_nod

; 493  :             _Wherenode->_Parent->_Right = _Pnode;

  00187	89 48 08	 mov	 DWORD PTR [eax+8], ecx

; 494  :         } else {

  0018a	eb 02		 jmp	 SHORT $LN38@Insert_nod
$LN37@Insert_nod:

; 495  :             _Wherenode->_Parent->_Left = _Pnode;

  0018c	89 08		 mov	 DWORD PTR [eax], ecx
$LN38@Insert_nod:

; 496  :         }
; 497  : 
; 498  :         _Pnode->_Right      = _Wherenode;

  0018e	89 51 08	 mov	 DWORD PTR [ecx+8], edx

; 499  :         _Wherenode->_Parent = _Pnode;

  00191	8b fb		 mov	 edi, ebx
  00193	89 0b		 mov	 DWORD PTR [ebx], ecx
$LN39@Insert_nod:

; 699  :                         _Rrotate(_Pnode);
; 700  :                     }
; 701  : 
; 702  :                     _Pnode->_Parent->_Color          = _Black; // propagate red up

  00195	c6 41 0c 01	 mov	 BYTE PTR [ecx+12], 1

; 703  :                     _Pnode->_Parent->_Parent->_Color = _Red;

  00199	8b 07		 mov	 eax, DWORD PTR [edi]
  0019b	8b 40 04	 mov	 eax, DWORD PTR [eax+4]
  0019e	c6 40 0c 00	 mov	 BYTE PTR [eax+12], 0

; 704  :                     _Lrotate(_Pnode->_Parent->_Parent);

  001a2	8b 07		 mov	 eax, DWORD PTR [edi]
  001a4	8b 48 04	 mov	 ecx, DWORD PTR [eax+4]

; 459  :         _Nodeptr _Pnode    = _Wherenode->_Right;

  001a7	8b 71 08	 mov	 esi, DWORD PTR [ecx+8]

; 460  :         _Wherenode->_Right = _Pnode->_Left;

  001aa	8b 06		 mov	 eax, DWORD PTR [esi]
  001ac	89 41 08	 mov	 DWORD PTR [ecx+8], eax

; 461  : 
; 462  :         if (!_Pnode->_Left->_Isnil) {

  001af	8b 06		 mov	 eax, DWORD PTR [esi]
  001b1	80 78 0d 00	 cmp	 BYTE PTR [eax+13], 0
  001b5	75 03		 jne	 SHORT $LN41@Insert_nod

; 463  :             _Pnode->_Left->_Parent = _Wherenode;

  001b7	89 48 04	 mov	 DWORD PTR [eax+4], ecx
$LN41@Insert_nod:

; 464  :         }
; 465  : 
; 466  :         _Pnode->_Parent = _Wherenode->_Parent;

  001ba	8b 41 04	 mov	 eax, DWORD PTR [ecx+4]
  001bd	89 46 04	 mov	 DWORD PTR [esi+4], eax

; 467  : 
; 468  :         if (_Wherenode == _Myhead->_Parent) {

  001c0	8b 45 fc	 mov	 eax, DWORD PTR _this$1$[ebp]
  001c3	8b 00		 mov	 eax, DWORD PTR [eax]
  001c5	3b 48 04	 cmp	 ecx, DWORD PTR [eax+4]
  001c8	75 05		 jne	 SHORT $LN42@Insert_nod

; 469  :             _Myhead->_Parent = _Pnode;

  001ca	89 70 04	 mov	 DWORD PTR [eax+4], esi
  001cd	eb 0e		 jmp	 SHORT $LN45@Insert_nod
$LN42@Insert_nod:

; 470  :         } else if (_Wherenode == _Wherenode->_Parent->_Left) {

  001cf	8b 41 04	 mov	 eax, DWORD PTR [ecx+4]
  001d2	3b 08		 cmp	 ecx, DWORD PTR [eax]
  001d4	75 04		 jne	 SHORT $LN44@Insert_nod

; 471  :             _Wherenode->_Parent->_Left = _Pnode;

  001d6	89 30		 mov	 DWORD PTR [eax], esi

; 472  :         } else {

  001d8	eb 03		 jmp	 SHORT $LN45@Insert_nod
$LN44@Insert_nod:

; 473  :             _Wherenode->_Parent->_Right = _Pnode;

  001da	89 70 08	 mov	 DWORD PTR [eax+8], esi
$LN45@Insert_nod:

; 474  :         }
; 475  : 
; 476  :         _Pnode->_Left       = _Wherenode;

  001dd	89 0e		 mov	 DWORD PTR [esi], ecx
$LN52@Insert_nod:

; 668  :             }
; 669  :         }
; 670  : 
; 671  :         for (_Nodeptr _Pnode = _Newnode; _Pnode->_Parent->_Color == _Red;) {

  001df	89 71 04	 mov	 DWORD PTR [ecx+4], esi
$LN46@Insert_nod:
  001e2	8b 42 04	 mov	 eax, DWORD PTR [edx+4]
  001e5	80 78 0c 00	 cmp	 BYTE PTR [eax+12], 0
  001e9	0f 84 71 fe ff
	ff		 je	 $LL2@Insert_nod
  001ef	8b 4d f8	 mov	 ecx, DWORD PTR __Head$1$[ebp]
  001f2	5f		 pop	 edi
  001f3	5e		 pop	 esi
  001f4	5b		 pop	 ebx
$LN3@Insert_nod:

; 705  :                 }
; 706  :             }
; 707  :         }
; 708  : 
; 709  :         _Head->_Parent->_Color = _Black; // root is always black

  001f5	8b 41 04	 mov	 eax, DWORD PTR [ecx+4]
  001f8	c6 40 0c 01	 mov	 BYTE PTR [eax+12], 1

; 710  :         return _Newnode;

  001fc	8b 45 10	 mov	 eax, DWORD PTR __Newnode$[ebp]

; 711  :     }

  001ff	8b e5		 mov	 esp, ebp
  00201	5d		 pop	 ebp
  00202	c2 0c 00	 ret	 12			; 0000000cH
?_Insert_node@?$_Tree_val@U?$_Tree_simple_types@U?$pair@$$CBKPAUSTextTail@CPythonTextTail@@@std@@@std@@@std@@QAEPAU?$_Tree_node@U?$pair@$$CBKPAUSTextTail@CPythonTextTail@@@std@@PAX@2@U?$_Tree_id@PAU?$_Tree_node@U?$pair@$$CBKPAUSTextTail@CPythonTextTail@@@std@@PAX@std@@@2@QAU32@@Z ENDP ; std::_Tree_val<std::_Tree_simple_types<std::pair<unsigned long const ,CPythonTextTail::STextTail *> > >::_Insert_node
_TEXT	ENDS
; Function compile flags: /Ogtp
; File C:\Program Files (x86)\Microsoft Visual Studio\2019\Community\VC\Tools\MSVC\14.28.29333\include\xtree
; File C:\Program Files (x86)\Microsoft Visual Studio\2019\Community\VC\Tools\MSVC\14.28.29333\include\utility
; File C:\Program Files (x86)\Microsoft Visual Studio\2019\Community\VC\Tools\MSVC\14.28.29333\include\xtree
; File C:\Program Files (x86)\Microsoft Visual Studio\2019\Community\VC\Tools\MSVC\14.28.29333\include\utility
; File C:\Program Files (x86)\Microsoft Visual Studio\2019\Community\VC\Tools\MSVC\14.28.29333\include\xtree
;	COMDAT ?_Extract@?$_Tree_val@U?$_Tree_simple_types@U?$pair@$$CBKPAUSTextTail@CPythonTextTail@@@std@@@std@@@std@@QAEPAU?$_Tree_node@U?$pair@$$CBKPAUSTextTail@CPythonTextTail@@@std@@PAX@2@V?$_Tree_unchecked_const_iterator@V?$_Tree_val@U?$_Tree_simple_types@U?$pair@$$CBKPAUSTextTail@CPythonTextTail@@@std@@@std@@@std@@U_Iterator_base0@2@@2@@Z
_TEXT	SEGMENT
tv1186 = -8						; size = 4
tv1182 = -8						; size = 4
tv1149 = -8						; size = 4
__Erasednode$1$ = -4					; size = 4
__Where$ = 8						; size = 4
?_Extract@?$_Tree_val@U?$_Tree_simple_types@U?$pair@$$CBKPAUSTextTail@CPythonTextTail@@@std@@@std@@@std@@QAEPAU?$_Tree_node@U?$pair@$$CBKPAUSTextTail@CPythonTextTail@@@std@@PAX@2@V?$_Tree_unchecked_const_iterator@V?$_Tree_val@U?$_Tree_simple_types@U?$pair@$$CBKPAUSTextTail@CPythonTextTail@@@std@@@std@@@std@@U_Iterator_base0@2@@2@@Z PROC ; std::_Tree_val<std::_Tree_simple_types<std::pair<unsigned long const ,CPythonTextTail::STextTail *> > >::_Extract, COMDAT
; _this$ = ecx

; 502  :     _Nodeptr _Extract(_Unchecked_const_iterator _Where) noexcept {

  00000	55		 push	 ebp
  00001	8b ec		 mov	 ebp, esp
  00003	83 ec 08	 sub	 esp, 8

; 503  :         _Nodeptr _Erasednode = _Where._Ptr; // node to erase

  00006	8b 45 08	 mov	 eax, DWORD PTR __Where$[ebp]
  00009	53		 push	 ebx
  0000a	56		 push	 esi
  0000b	8b d9		 mov	 ebx, ecx
  0000d	89 45 fc	 mov	 DWORD PTR __Erasednode$1$[ebp], eax
  00010	57		 push	 edi

; 504  :         ++_Where; // save successor iterator for return

  00011	8d 4d 08	 lea	 ecx, DWORD PTR __Where$[ebp]
  00014	e8 00 00 00 00	 call	 ??E?$_Tree_unchecked_const_iterator@V?$_Tree_val@U?$_Tree_simple_types@U?$pair@$$CBKPAUSTextTail@CPythonTextTail@@@std@@@std@@@std@@U_Iterator_base0@2@@std@@QAEAAV01@XZ ; std::_Tree_unchecked_const_iterator<std::_Tree_val<std::_Tree_simple_types<std::pair<unsigned long const ,CPythonTextTail::STextTail *> > >,std::_Iterator_base0>::operator++

; 505  : 
; 506  :         _Nodeptr _Fixnode; // the node to recolor as needed
; 507  :         _Nodeptr _Fixnodeparent; // parent of _Fixnode (which may be nil)
; 508  :         _Nodeptr _Pnode = _Erasednode;
; 509  : 
; 510  :         if (_Pnode->_Left->_Isnil) {

  00019	8b 55 fc	 mov	 edx, DWORD PTR __Erasednode$1$[ebp]
  0001c	8b 02		 mov	 eax, DWORD PTR [edx]
  0001e	8b 7a 08	 mov	 edi, DWORD PTR [edx+8]
  00021	80 78 0d 00	 cmp	 BYTE PTR [eax+13], 0
  00025	75 18		 jne	 SHORT $LN86@Extract

; 511  :             _Fixnode = _Pnode->_Right; // stitch up right subtree
; 512  :         } else if (_Pnode->_Right->_Isnil) {

  00027	80 7f 0d 00	 cmp	 BYTE PTR [edi+13], 0
  0002b	74 04		 je	 SHORT $LN7@Extract

; 513  :             _Fixnode = _Pnode->_Left; // stitch up left subtree

  0002d	8b f8		 mov	 edi, eax

; 514  :         } else { // two subtrees, must lift successor node to replace erased

  0002f	eb 0e		 jmp	 SHORT $LN86@Extract
$LN7@Extract:

; 515  :             _Pnode   = _Where._Ptr; // _Pnode is successor node

  00031	8b 4d 08	 mov	 ecx, DWORD PTR __Where$[ebp]

; 516  :             _Fixnode = _Pnode->_Right; // _Fixnode is only subtree

  00034	8b 79 08	 mov	 edi, DWORD PTR [ecx+8]
  00037	3b ca		 cmp	 ecx, edx

; 517  :         }
; 518  : 
; 519  :         if (_Pnode == _Erasednode) { // at most one subtree, relink it

  00039	0f 85 8b 00 00
	00		 jne	 $LN9@Extract
$LN86@Extract:

; 520  :             _Fixnodeparent = _Erasednode->_Parent;
; 521  :             if (!_Fixnode->_Isnil) {

  0003f	80 7f 0d 00	 cmp	 BYTE PTR [edi+13], 0
  00043	8b 72 04	 mov	 esi, DWORD PTR [edx+4]
  00046	75 03		 jne	 SHORT $LN11@Extract

; 522  :                 _Fixnode->_Parent = _Fixnodeparent; // link up

  00048	89 77 04	 mov	 DWORD PTR [edi+4], esi
$LN11@Extract:

; 523  :             }
; 524  : 
; 525  :             if (_Myhead->_Parent == _Erasednode) {

  0004b	8b 03		 mov	 eax, DWORD PTR [ebx]
  0004d	39 50 04	 cmp	 DWORD PTR [eax+4], edx
  00050	75 05		 jne	 SHORT $LN12@Extract

; 526  :                 _Myhead->_Parent = _Fixnode; // link down from root

  00052	89 78 04	 mov	 DWORD PTR [eax+4], edi
  00055	eb 0b		 jmp	 SHORT $LN15@Extract
$LN12@Extract:

; 527  :             } else if (_Fixnodeparent->_Left == _Erasednode) {

  00057	39 16		 cmp	 DWORD PTR [esi], edx
  00059	75 04		 jne	 SHORT $LN14@Extract

; 528  :                 _Fixnodeparent->_Left = _Fixnode; // link down to left

  0005b	89 3e		 mov	 DWORD PTR [esi], edi

; 529  :             } else {

  0005d	eb 03		 jmp	 SHORT $LN15@Extract
$LN14@Extract:

; 530  :                 _Fixnodeparent->_Right = _Fixnode; // link down to right

  0005f	89 7e 08	 mov	 DWORD PTR [esi+8], edi
$LN15@Extract:

; 531  :             }
; 532  : 
; 533  :             if (_Myhead->_Left == _Erasednode) {

  00062	8b 03		 mov	 eax, DWORD PTR [ebx]
  00064	39 10		 cmp	 DWORD PTR [eax], edx
  00066	75 2b		 jne	 SHORT $LN16@Extract

; 534  :                 _Myhead->_Left = _Fixnode->_Isnil ? _Fixnodeparent // smallest is parent of erased node

  00068	80 7f 0d 00	 cmp	 BYTE PTR [edi+13], 0
  0006c	74 04		 je	 SHORT $LN42@Extract
  0006e	8b d6		 mov	 edx, esi
  00070	eb 1c		 jmp	 SHORT $LN48@Extract
$LN42@Extract:

; 451  :         while (!_Pnode->_Left->_Isnil) {

  00072	8b 0f		 mov	 ecx, DWORD PTR [edi]

; 534  :                 _Myhead->_Left = _Fixnode->_Isnil ? _Fixnodeparent // smallest is parent of erased node

  00074	8b d7		 mov	 edx, edi

; 451  :         while (!_Pnode->_Left->_Isnil) {

  00076	80 79 0d 00	 cmp	 BYTE PTR [ecx+13], 0
  0007a	75 12		 jne	 SHORT $LN48@Extract
  0007c	0f 1f 40 00	 npad	 4
$LL47@Extract:
  00080	8b 01		 mov	 eax, DWORD PTR [ecx]

; 452  :             _Pnode = _Pnode->_Left;

  00082	8b d1		 mov	 edx, ecx
  00084	8b c8		 mov	 ecx, eax
  00086	80 78 0d 00	 cmp	 BYTE PTR [eax+13], 0
  0008a	74 f4		 je	 SHORT $LL47@Extract
  0008c	8b 03		 mov	 eax, DWORD PTR [ebx]
$LN48@Extract:

; 534  :                 _Myhead->_Left = _Fixnode->_Isnil ? _Fixnodeparent // smallest is parent of erased node

  0008e	89 10		 mov	 DWORD PTR [eax], edx
  00090	8b 55 fc	 mov	 edx, DWORD PTR __Erasednode$1$[ebp]
$LN16@Extract:

; 535  :                                                   : _Min(_Fixnode); // smallest in relinked subtree
; 536  :             }
; 537  : 
; 538  :             if (_Myhead->_Right == _Erasednode) {

  00093	8b 03		 mov	 eax, DWORD PTR [ebx]
  00095	39 50 08	 cmp	 DWORD PTR [eax+8], edx
  00098	75 2b		 jne	 SHORT $LN17@Extract

; 539  :                 _Myhead->_Right = _Fixnode->_Isnil ? _Fixnodeparent // largest is parent of erased node

  0009a	80 7f 0d 00	 cmp	 BYTE PTR [edi+13], 0
  0009e	74 0a		 je	 SHORT $LN44@Extract
  000a0	8b ce		 mov	 ecx, esi
  000a2	89 48 08	 mov	 DWORD PTR [eax+8], ecx

; 540  :                                                    : _Max(_Fixnode); // largest in relinked subtree
; 541  :             }
; 542  :         } else { // erased has two subtrees, _Pnode is successor to erased

  000a5	8a 52 0c	 mov	 dl, BYTE PTR [edx+12]
  000a8	eb 7c		 jmp	 SHORT $LN55@Extract
$LN44@Extract:

; 443  :         while (!_Pnode->_Right->_Isnil) {

  000aa	8b 47 08	 mov	 eax, DWORD PTR [edi+8]

; 539  :                 _Myhead->_Right = _Fixnode->_Isnil ? _Fixnodeparent // largest is parent of erased node

  000ad	8b cf		 mov	 ecx, edi

; 443  :         while (!_Pnode->_Right->_Isnil) {

  000af	80 78 0d 00	 cmp	 BYTE PTR [eax+13], 0
  000b3	75 0b		 jne	 SHORT $LN52@Extract
$LL51@Extract:

; 444  :             _Pnode = _Pnode->_Right;

  000b5	8b c8		 mov	 ecx, eax
  000b7	8b 41 08	 mov	 eax, DWORD PTR [ecx+8]
  000ba	80 78 0d 00	 cmp	 BYTE PTR [eax+13], 0
  000be	74 f5		 je	 SHORT $LL51@Extract
$LN52@Extract:
  000c0	8b 03		 mov	 eax, DWORD PTR [ebx]

; 539  :                 _Myhead->_Right = _Fixnode->_Isnil ? _Fixnodeparent // largest is parent of erased node

  000c2	89 48 08	 mov	 DWORD PTR [eax+8], ecx
$LN17@Extract:

; 540  :                                                    : _Max(_Fixnode); // largest in relinked subtree
; 541  :             }
; 542  :         } else { // erased has two subtrees, _Pnode is successor to erased

  000c5	8a 52 0c	 mov	 dl, BYTE PTR [edx+12]
  000c8	eb 5c		 jmp	 SHORT $LN55@Extract
$LN9@Extract:

; 543  :             _Erasednode->_Left->_Parent = _Pnode; // link left up

  000ca	89 48 04	 mov	 DWORD PTR [eax+4], ecx

; 544  :             _Pnode->_Left               = _Erasednode->_Left; // link successor down

  000cd	8b 02		 mov	 eax, DWORD PTR [edx]
  000cf	89 01		 mov	 DWORD PTR [ecx], eax

; 545  : 
; 546  :             if (_Pnode == _Erasednode->_Right) {

  000d1	3b 4a 08	 cmp	 ecx, DWORD PTR [edx+8]
  000d4	75 04		 jne	 SHORT $LN18@Extract

; 547  :                 _Fixnodeparent = _Pnode; // successor is next to erased

  000d6	8b f1		 mov	 esi, ecx

; 548  :             } else { // successor further down, link in place of erased

  000d8	eb 1a		 jmp	 SHORT $LN19@Extract
$LN18@Extract:

; 549  :                 _Fixnodeparent = _Pnode->_Parent; // parent is successor's
; 550  :                 if (!_Fixnode->_Isnil) {

  000da	80 7f 0d 00	 cmp	 BYTE PTR [edi+13], 0
  000de	8b 71 04	 mov	 esi, DWORD PTR [ecx+4]
  000e1	75 03		 jne	 SHORT $LN20@Extract

; 551  :                     _Fixnode->_Parent = _Fixnodeparent; // link fix up

  000e3	89 77 04	 mov	 DWORD PTR [edi+4], esi
$LN20@Extract:

; 552  :                 }
; 553  : 
; 554  :                 _Fixnodeparent->_Left        = _Fixnode; // link fix down

  000e6	89 3e		 mov	 DWORD PTR [esi], edi

; 555  :                 _Pnode->_Right               = _Erasednode->_Right; // link next down

  000e8	8b 42 08	 mov	 eax, DWORD PTR [edx+8]
  000eb	89 41 08	 mov	 DWORD PTR [ecx+8], eax

; 556  :                 _Erasednode->_Right->_Parent = _Pnode; // right up

  000ee	8b 42 08	 mov	 eax, DWORD PTR [edx+8]
  000f1	89 48 04	 mov	 DWORD PTR [eax+4], ecx
$LN19@Extract:

; 557  :             }
; 558  : 
; 559  :             if (_Myhead->_Parent == _Erasednode) {

  000f4	8b 03		 mov	 eax, DWORD PTR [ebx]
  000f6	39 50 04	 cmp	 DWORD PTR [eax+4], edx
  000f9	75 05		 jne	 SHORT $LN21@Extract

; 560  :                 _Myhead->_Parent = _Pnode; // link down from root

  000fb	89 48 04	 mov	 DWORD PTR [eax+4], ecx
  000fe	eb 0e		 jmp	 SHORT $LN24@Extract
$LN21@Extract:

; 561  :             } else if (_Erasednode->_Parent->_Left == _Erasednode) {

  00100	8b 42 04	 mov	 eax, DWORD PTR [edx+4]
  00103	39 10		 cmp	 DWORD PTR [eax], edx
  00105	75 04		 jne	 SHORT $LN23@Extract

; 562  :                 _Erasednode->_Parent->_Left = _Pnode; // link down to left

  00107	89 08		 mov	 DWORD PTR [eax], ecx

; 563  :             } else {

  00109	eb 03		 jmp	 SHORT $LN24@Extract
$LN23@Extract:

; 564  :                 _Erasednode->_Parent->_Right = _Pnode; // link down to right

  0010b	89 48 08	 mov	 DWORD PTR [eax+8], ecx
$LN24@Extract:

; 567  :             _Pnode->_Parent = _Erasednode->_Parent; // link successor up

  0010e	8b 42 04	 mov	 eax, DWORD PTR [edx+4]
; File C:\Program Files (x86)\Microsoft Visual Studio\2019\Community\VC\Tools\MSVC\14.28.29333\include\utility

; 104  :     _Ty _Tmp = _STD move(_Left);

  00111	8a 51 0c	 mov	 dl, BYTE PTR [ecx+12]
; File C:\Program Files (x86)\Microsoft Visual Studio\2019\Community\VC\Tools\MSVC\14.28.29333\include\xtree

; 567  :             _Pnode->_Parent = _Erasednode->_Parent; // link successor up

  00114	89 41 04	 mov	 DWORD PTR [ecx+4], eax
; File C:\Program Files (x86)\Microsoft Visual Studio\2019\Community\VC\Tools\MSVC\14.28.29333\include\utility

; 105  :     _Left    = _STD move(_Right);

  00117	8b 45 fc	 mov	 eax, DWORD PTR __Erasednode$1$[ebp]
  0011a	8a 40 0c	 mov	 al, BYTE PTR [eax+12]
  0011d	88 41 0c	 mov	 BYTE PTR [ecx+12], al

; 106  :     _Right   = _STD move(_Tmp);

  00120	8b 45 fc	 mov	 eax, DWORD PTR __Erasednode$1$[ebp]
  00123	88 50 0c	 mov	 BYTE PTR [eax+12], dl
$LN55@Extract:
; File C:\Program Files (x86)\Microsoft Visual Studio\2019\Community\VC\Tools\MSVC\14.28.29333\include\xtree

; 571  :         if (_Erasednode->_Color == _Black) { // erasing black link, must recolor/rebalance tree

  00126	80 fa 01	 cmp	 dl, 1
  00129	0f 85 46 01 00
	00		 jne	 $LN25@Extract

; 572  :             for (; _Fixnode != _Myhead->_Parent && _Fixnode->_Color == _Black; _Fixnodeparent = _Fixnode->_Parent) {

  0012f	8b 03		 mov	 eax, DWORD PTR [ebx]
  00131	3b 78 04	 cmp	 edi, DWORD PTR [eax+4]
  00134	0f 84 37 01 00
	00		 je	 $LN3@Extract
  0013a	66 0f 1f 44 00
	00		 npad	 6
$LL4@Extract:
  00140	80 7f 0c 01	 cmp	 BYTE PTR [edi+12], 1
  00144	89 75 f8	 mov	 DWORD PTR tv1186[ebp], esi
  00147	0f 85 24 01 00
	00		 jne	 $LN3@Extract

; 573  :                 if (_Fixnode == _Fixnodeparent->_Left) { // fixup left subtree

  0014d	8b 0e		 mov	 ecx, DWORD PTR [esi]
  0014f	3b f9		 cmp	 edi, ecx
  00151	0f 85 a2 00 00
	00		 jne	 $LN26@Extract

; 574  :                     _Pnode = _Fixnodeparent->_Right;

  00157	8b 4e 08	 mov	 ecx, DWORD PTR [esi+8]

; 575  :                     if (_Pnode->_Color == _Red) { // rotate red up from right subtree

  0015a	80 79 0c 00	 cmp	 BYTE PTR [ecx+12], 0
  0015e	75 43		 jne	 SHORT $LN87@Extract

; 576  :                         _Pnode->_Color         = _Black;

  00160	c6 41 0c 01	 mov	 BYTE PTR [ecx+12], 1

; 459  :         _Nodeptr _Pnode    = _Wherenode->_Right;

  00164	8b 4e 08	 mov	 ecx, DWORD PTR [esi+8]

; 577  :                         _Fixnodeparent->_Color = _Red;

  00167	c6 46 0c 00	 mov	 BYTE PTR [esi+12], 0

; 460  :         _Wherenode->_Right = _Pnode->_Left;

  0016b	8b 01		 mov	 eax, DWORD PTR [ecx]
  0016d	89 46 08	 mov	 DWORD PTR [esi+8], eax

; 461  : 
; 462  :         if (!_Pnode->_Left->_Isnil) {

  00170	8b 01		 mov	 eax, DWORD PTR [ecx]
  00172	80 78 0d 00	 cmp	 BYTE PTR [eax+13], 0
  00176	75 03		 jne	 SHORT $LN57@Extract

; 463  :             _Pnode->_Left->_Parent = _Wherenode;

  00178	89 70 04	 mov	 DWORD PTR [eax+4], esi
$LN57@Extract:

; 464  :         }
; 465  : 
; 466  :         _Pnode->_Parent = _Wherenode->_Parent;

  0017b	8b 46 04	 mov	 eax, DWORD PTR [esi+4]
  0017e	89 41 04	 mov	 DWORD PTR [ecx+4], eax

; 467  : 
; 468  :         if (_Wherenode == _Myhead->_Parent) {

  00181	8b 03		 mov	 eax, DWORD PTR [ebx]
  00183	3b 70 04	 cmp	 esi, DWORD PTR [eax+4]
  00186	75 05		 jne	 SHORT $LN58@Extract

; 469  :             _Myhead->_Parent = _Pnode;

  00188	89 48 04	 mov	 DWORD PTR [eax+4], ecx
  0018b	eb 0e		 jmp	 SHORT $LN61@Extract
$LN58@Extract:

; 470  :         } else if (_Wherenode == _Wherenode->_Parent->_Left) {

  0018d	8b 46 04	 mov	 eax, DWORD PTR [esi+4]
  00190	3b 30		 cmp	 esi, DWORD PTR [eax]
  00192	75 04		 jne	 SHORT $LN60@Extract

; 471  :             _Wherenode->_Parent->_Left = _Pnode;

  00194	89 08		 mov	 DWORD PTR [eax], ecx

; 472  :         } else {

  00196	eb 03		 jmp	 SHORT $LN61@Extract
$LN60@Extract:

; 473  :             _Wherenode->_Parent->_Right = _Pnode;

  00198	89 48 08	 mov	 DWORD PTR [eax+8], ecx
$LN61@Extract:

; 474  :         }
; 475  : 
; 476  :         _Pnode->_Left       = _Wherenode;

  0019b	89 31		 mov	 DWORD PTR [ecx], esi

; 477  :         _Wherenode->_Parent = _Pnode;

  0019d	89 4e 04	 mov	 DWORD PTR [esi+4], ecx

; 578  :                         _Lrotate(_Fixnodeparent);
; 579  :                         _Pnode = _Fixnodeparent->_Right;

  001a0	8b 4e 08	 mov	 ecx, DWORD PTR [esi+8]
$LN87@Extract:

; 580  :                     }
; 581  : 
; 582  :                     if (_Pnode->_Isnil) {

  001a3	80 79 0d 00	 cmp	 BYTE PTR [ecx+13], 0
  001a7	0f 85 b1 00 00
	00		 jne	 $LN2@Extract

; 583  :                         _Fixnode = _Fixnodeparent; // shouldn't happen
; 584  :                     } else if (_Pnode->_Left->_Color == _Black
; 585  :                                && _Pnode->_Right->_Color == _Black) { // redden right subtree with black children

  001ad	8b 11		 mov	 edx, DWORD PTR [ecx]
  001af	80 7a 0c 01	 cmp	 BYTE PTR [edx+12], 1
  001b3	75 0d		 jne	 SHORT $LN89@Extract
  001b5	8b 41 08	 mov	 eax, DWORD PTR [ecx+8]
  001b8	80 78 0c 01	 cmp	 BYTE PTR [eax+12], 1
  001bc	0f 84 98 00 00
	00		 je	 $LN93@Extract
$LN89@Extract:

; 586  :                         _Pnode->_Color = _Red;
; 587  :                         _Fixnode       = _Fixnodeparent;
; 588  :                     } else { // must rearrange right subtree
; 589  :                         if (_Pnode->_Right->_Color == _Black) { // rotate red up from left sub-subtree

  001c2	8b 41 08	 mov	 eax, DWORD PTR [ecx+8]
  001c5	80 78 0c 01	 cmp	 BYTE PTR [eax+12], 1
  001c9	75 13		 jne	 SHORT $LN33@Extract

; 590  :                             _Pnode->_Left->_Color = _Black;

  001cb	c6 42 0c 01	 mov	 BYTE PTR [edx+12], 1

; 591  :                             _Pnode->_Color        = _Red;

  001cf	c6 41 0c 00	 mov	 BYTE PTR [ecx+12], 0

; 592  :                             _Rrotate(_Pnode);

  001d3	51		 push	 ecx
  001d4	8b cb		 mov	 ecx, ebx
  001d6	e8 00 00 00 00	 call	 ?_Rrotate@?$_Tree_val@U?$_Tree_simple_types@U?$pair@$$CBKPAUSTextTail@CPythonTextTail@@@std@@@std@@@std@@QAEXPAU?$_Tree_node@U?$pair@$$CBKPAUSTextTail@CPythonTextTail@@@std@@PAX@2@@Z ; std::_Tree_val<std::_Tree_simple_types<std::pair<unsigned long const ,CPythonTextTail::STextTail *> > >::_Rrotate

; 593  :                             _Pnode = _Fixnodeparent->_Right;

  001db	8b 4e 08	 mov	 ecx, DWORD PTR [esi+8]
$LN33@Extract:

; 594  :                         }
; 595  : 
; 596  :                         _Pnode->_Color         = _Fixnodeparent->_Color;

  001de	8a 46 0c	 mov	 al, BYTE PTR [esi+12]
  001e1	88 41 0c	 mov	 BYTE PTR [ecx+12], al

; 597  :                         _Fixnodeparent->_Color = _Black;

  001e4	c6 46 0c 01	 mov	 BYTE PTR [esi+12], 1

; 598  :                         _Pnode->_Right->_Color = _Black;

  001e8	8b 41 08	 mov	 eax, DWORD PTR [ecx+8]

; 599  :                         _Lrotate(_Fixnodeparent);

  001eb	8b cb		 mov	 ecx, ebx
  001ed	56		 push	 esi
  001ee	c6 40 0c 01	 mov	 BYTE PTR [eax+12], 1
  001f2	e8 00 00 00 00	 call	 ?_Lrotate@?$_Tree_val@U?$_Tree_simple_types@U?$pair@$$CBKPAUSTextTail@CPythonTextTail@@@std@@@std@@@std@@QAEXPAU?$_Tree_node@U?$pair@$$CBKPAUSTextTail@CPythonTextTail@@@std@@PAX@2@@Z ; std::_Tree_val<std::_Tree_simple_types<std::pair<unsigned long const ,CPythonTextTail::STextTail *> > >::_Lrotate

; 600  :                         break; // tree now recolored/rebalanced

  001f7	eb 78		 jmp	 SHORT $LN3@Extract
$LN26@Extract:

; 601  :                     }
; 602  :                 } else { // fixup right subtree
; 603  :                     _Pnode = _Fixnodeparent->_Left;
; 604  :                     if (_Pnode->_Color == _Red) { // rotate red up from left subtree

  001f9	80 79 0c 00	 cmp	 BYTE PTR [ecx+12], 0
  001fd	75 44		 jne	 SHORT $LN88@Extract

; 605  :                         _Pnode->_Color         = _Black;

  001ff	c6 41 0c 01	 mov	 BYTE PTR [ecx+12], 1

; 481  :         _Nodeptr _Pnode   = _Wherenode->_Left;

  00203	8b 0e		 mov	 ecx, DWORD PTR [esi]

; 606  :                         _Fixnodeparent->_Color = _Red;

  00205	c6 46 0c 00	 mov	 BYTE PTR [esi+12], 0

; 482  :         _Wherenode->_Left = _Pnode->_Right;

  00209	8b 41 08	 mov	 eax, DWORD PTR [ecx+8]
  0020c	89 06		 mov	 DWORD PTR [esi], eax

; 483  : 
; 484  :         if (!_Pnode->_Right->_Isnil) {

  0020e	8b 41 08	 mov	 eax, DWORD PTR [ecx+8]
  00211	80 78 0d 00	 cmp	 BYTE PTR [eax+13], 0
  00215	75 03		 jne	 SHORT $LN64@Extract

; 485  :             _Pnode->_Right->_Parent = _Wherenode;

  00217	89 70 04	 mov	 DWORD PTR [eax+4], esi
$LN64@Extract:

; 486  :         }
; 487  : 
; 488  :         _Pnode->_Parent = _Wherenode->_Parent;

  0021a	8b 46 04	 mov	 eax, DWORD PTR [esi+4]
  0021d	89 41 04	 mov	 DWORD PTR [ecx+4], eax

; 489  : 
; 490  :         if (_Wherenode == _Myhead->_Parent) {

  00220	8b 03		 mov	 eax, DWORD PTR [ebx]
  00222	3b 70 04	 cmp	 esi, DWORD PTR [eax+4]
  00225	75 05		 jne	 SHORT $LN65@Extract

; 491  :             _Myhead->_Parent = _Pnode;

  00227	89 48 04	 mov	 DWORD PTR [eax+4], ecx
  0022a	eb 0f		 jmp	 SHORT $LN68@Extract
$LN65@Extract:

; 492  :         } else if (_Wherenode == _Wherenode->_Parent->_Right) {

  0022c	8b 46 04	 mov	 eax, DWORD PTR [esi+4]
  0022f	3b 70 08	 cmp	 esi, DWORD PTR [eax+8]
  00232	75 05		 jne	 SHORT $LN67@Extract

; 493  :             _Wherenode->_Parent->_Right = _Pnode;

  00234	89 48 08	 mov	 DWORD PTR [eax+8], ecx

; 494  :         } else {

  00237	eb 02		 jmp	 SHORT $LN68@Extract
$LN67@Extract:

; 495  :             _Wherenode->_Parent->_Left = _Pnode;

  00239	89 08		 mov	 DWORD PTR [eax], ecx
$LN68@Extract:

; 496  :         }
; 497  : 
; 498  :         _Pnode->_Right      = _Wherenode;

  0023b	89 71 08	 mov	 DWORD PTR [ecx+8], esi

; 499  :         _Wherenode->_Parent = _Pnode;

  0023e	89 4e 04	 mov	 DWORD PTR [esi+4], ecx

; 607  :                         _Rrotate(_Fixnodeparent);
; 608  :                         _Pnode = _Fixnodeparent->_Left;

  00241	8b 0e		 mov	 ecx, DWORD PTR [esi]
$LN88@Extract:

; 609  :                     }
; 610  : 
; 611  :                     if (_Pnode->_Isnil) {

  00243	80 79 0d 00	 cmp	 BYTE PTR [ecx+13], 0
  00247	75 15		 jne	 SHORT $LN2@Extract

; 612  :                         _Fixnode = _Fixnodeparent; // shouldn't happen
; 613  :                     } else if (_Pnode->_Right->_Color == _Black
; 614  :                                && _Pnode->_Left->_Color == _Black) { // redden left subtree with black children

  00249	8b 51 08	 mov	 edx, DWORD PTR [ecx+8]
  0024c	80 7a 0c 01	 cmp	 BYTE PTR [edx+12], 1
  00250	75 3a		 jne	 SHORT $LN90@Extract
  00252	8b 01		 mov	 eax, DWORD PTR [ecx]
  00254	80 78 0c 01	 cmp	 BYTE PTR [eax+12], 1
  00258	75 32		 jne	 SHORT $LN90@Extract
$LN93@Extract:

; 572  :             for (; _Fixnode != _Myhead->_Parent && _Fixnode->_Color == _Black; _Fixnodeparent = _Fixnode->_Parent) {

  0025a	c6 41 0c 00	 mov	 BYTE PTR [ecx+12], 0
$LN2@Extract:
  0025e	8b 03		 mov	 eax, DWORD PTR [ebx]
  00260	8b 4d f8	 mov	 ecx, DWORD PTR tv1186[ebp]
  00263	8b f9		 mov	 edi, ecx
  00265	8b 76 04	 mov	 esi, DWORD PTR [esi+4]
  00268	3b 48 04	 cmp	 ecx, DWORD PTR [eax+4]
  0026b	0f 85 cf fe ff
	ff		 jne	 $LL4@Extract
$LN3@Extract:

; 629  :                         break; // tree now recolored/rebalanced
; 630  :                     }
; 631  :                 }
; 632  :             }
; 633  : 
; 634  :             _Fixnode->_Color = _Black; // stopping node is black

  00271	c6 47 0c 01	 mov	 BYTE PTR [edi+12], 1
$LN25@Extract:

; 635  :         }
; 636  : 
; 637  :         if (0 < _Mysize) {

  00275	8b 4b 04	 mov	 ecx, DWORD PTR [ebx+4]
  00278	8b 45 fc	 mov	 eax, DWORD PTR __Erasednode$1$[ebp]
  0027b	85 c9		 test	 ecx, ecx
  0027d	74 04		 je	 SHORT $LN40@Extract

; 638  :             --_Mysize;

  0027f	49		 dec	 ecx
  00280	89 4b 04	 mov	 DWORD PTR [ebx+4], ecx
$LN40@Extract:

; 639  :         }
; 640  : 
; 641  :         return _Erasednode;
; 642  :     }

  00283	5f		 pop	 edi
  00284	5e		 pop	 esi
  00285	5b		 pop	 ebx
  00286	8b e5		 mov	 esp, ebp
  00288	5d		 pop	 ebp
  00289	c2 04 00	 ret	 4
$LN90@Extract:

; 615  :                         _Pnode->_Color = _Red;
; 616  :                         _Fixnode       = _Fixnodeparent;
; 617  :                     } else { // must rearrange left subtree
; 618  :                         if (_Pnode->_Left->_Color == _Black) { // rotate red up from right sub-subtree

  0028c	8b 01		 mov	 eax, DWORD PTR [ecx]
  0028e	80 78 0c 01	 cmp	 BYTE PTR [eax+12], 1
  00292	75 12		 jne	 SHORT $LN39@Extract

; 619  :                             _Pnode->_Right->_Color = _Black;

  00294	c6 42 0c 01	 mov	 BYTE PTR [edx+12], 1

; 620  :                             _Pnode->_Color         = _Red;

  00298	c6 41 0c 00	 mov	 BYTE PTR [ecx+12], 0

; 621  :                             _Lrotate(_Pnode);

  0029c	51		 push	 ecx
  0029d	8b cb		 mov	 ecx, ebx
  0029f	e8 00 00 00 00	 call	 ?_Lrotate@?$_Tree_val@U?$_Tree_simple_types@U?$pair@$$CBKPAUSTextTail@CPythonTextTail@@@std@@@std@@@std@@QAEXPAU?$_Tree_node@U?$pair@$$CBKPAUSTextTail@CPythonTextTail@@@std@@PAX@2@@Z ; std::_Tree_val<std::_Tree_simple_types<std::pair<unsigned long const ,CPythonTextTail::STextTail *> > >::_Lrotate

; 622  :                             _Pnode = _Fixnodeparent->_Left;

  002a4	8b 0e		 mov	 ecx, DWORD PTR [esi]
$LN39@Extract:

; 623  :                         }
; 624  : 
; 625  :                         _Pnode->_Color         = _Fixnodeparent->_Color;

  002a6	8a 46 0c	 mov	 al, BYTE PTR [esi+12]
  002a9	88 41 0c	 mov	 BYTE PTR [ecx+12], al

; 626  :                         _Fixnodeparent->_Color = _Black;

  002ac	c6 46 0c 01	 mov	 BYTE PTR [esi+12], 1

; 627  :                         _Pnode->_Left->_Color  = _Black;

  002b0	8b 01		 mov	 eax, DWORD PTR [ecx]

; 628  :                         _Rrotate(_Fixnodeparent);

  002b2	8b cb		 mov	 ecx, ebx
  002b4	56		 push	 esi
  002b5	c6 40 0c 01	 mov	 BYTE PTR [eax+12], 1
  002b9	e8 00 00 00 00	 call	 ?_Rrotate@?$_Tree_val@U?$_Tree_simple_types@U?$pair@$$CBKPAUSTextTail@CPythonTextTail@@@std@@@std@@@std@@QAEXPAU?$_Tree_node@U?$pair@$$CBKPAUSTextTail@CPythonTextTail@@@std@@PAX@2@@Z ; std::_Tree_val<std::_Tree_simple_types<std::pair<unsigned long const ,CPythonTextTail::STextTail *> > >::_Rrotate
  002be	eb b1		 jmp	 SHORT $LN3@Extract
?_Extract@?$_Tree_val@U?$_Tree_simple_types@U?$pair@$$CBKPAUSTextTail@CPythonTextTail@@@std@@@std@@@std@@QAEPAU?$_Tree_node@U?$pair@$$CBKPAUSTextTail@CPythonTextTail@@@std@@PAX@2@V?$_Tree_unchecked_const_iterator@V?$_Tree_val@U?$_Tree_simple_types@U?$pair@$$CBKPAUSTextTail@CPythonTextTail@@@std@@@std@@@std@@U_Iterator_base0@2@@2@@Z ENDP ; std::_Tree_val<std::_Tree_simple_types<std::pair<unsigned long const ,CPythonTextTail::STextTail *> > >::_Extract
_TEXT	ENDS
; Function compile flags: /Ogtp
; File C:\Program Files (x86)\Microsoft Visual Studio\2019\Community\VC\Tools\MSVC\14.28.29333\include\xtree
;	COMDAT ?_Rrotate@?$_Tree_val@U?$_Tree_simple_types@U?$pair@$$CBKPAUSTextTail@CPythonTextTail@@@std@@@std@@@std@@QAEXPAU?$_Tree_node@U?$pair@$$CBKPAUSTextTail@CPythonTextTail@@@std@@PAX@2@@Z
_TEXT	SEGMENT
__Wherenode$ = 8					; size = 4
?_Rrotate@?$_Tree_val@U?$_Tree_simple_types@U?$pair@$$CBKPAUSTextTail@CPythonTextTail@@@std@@@std@@@std@@QAEXPAU?$_Tree_node@U?$pair@$$CBKPAUSTextTail@CPythonTextTail@@@std@@PAX@2@@Z PROC ; std::_Tree_val<std::_Tree_simple_types<std::pair<unsigned long const ,CPythonTextTail::STextTail *> > >::_Rrotate, COMDAT
; _this$ = ecx

; 480  :     void _Rrotate(_Nodeptr _Wherenode) noexcept { // promote left node to root of subtree

  00000	55		 push	 ebp
  00001	8b ec		 mov	 ebp, esp

; 481  :         _Nodeptr _Pnode   = _Wherenode->_Left;

  00003	8b 55 08	 mov	 edx, DWORD PTR __Wherenode$[ebp]
  00006	56		 push	 esi
  00007	8b 32		 mov	 esi, DWORD PTR [edx]

; 482  :         _Wherenode->_Left = _Pnode->_Right;

  00009	8b 46 08	 mov	 eax, DWORD PTR [esi+8]
  0000c	89 02		 mov	 DWORD PTR [edx], eax

; 483  : 
; 484  :         if (!_Pnode->_Right->_Isnil) {

  0000e	8b 46 08	 mov	 eax, DWORD PTR [esi+8]
  00011	80 78 0d 00	 cmp	 BYTE PTR [eax+13], 0
  00015	75 03		 jne	 SHORT $LN2@Rrotate

; 485  :             _Pnode->_Right->_Parent = _Wherenode;

  00017	89 50 04	 mov	 DWORD PTR [eax+4], edx
$LN2@Rrotate:

; 486  :         }
; 487  : 
; 488  :         _Pnode->_Parent = _Wherenode->_Parent;

  0001a	8b 42 04	 mov	 eax, DWORD PTR [edx+4]
  0001d	89 46 04	 mov	 DWORD PTR [esi+4], eax

; 489  : 
; 490  :         if (_Wherenode == _Myhead->_Parent) {

  00020	8b 01		 mov	 eax, DWORD PTR [ecx]
  00022	3b 50 04	 cmp	 edx, DWORD PTR [eax+4]
  00025	75 0e		 jne	 SHORT $LN3@Rrotate

; 491  :             _Myhead->_Parent = _Pnode;

  00027	89 70 04	 mov	 DWORD PTR [eax+4], esi

; 496  :         }
; 497  : 
; 498  :         _Pnode->_Right      = _Wherenode;
; 499  :         _Wherenode->_Parent = _Pnode;
; 500  :     }

  0002a	89 56 08	 mov	 DWORD PTR [esi+8], edx
  0002d	89 72 04	 mov	 DWORD PTR [edx+4], esi
  00030	5e		 pop	 esi
  00031	5d		 pop	 ebp
  00032	c2 04 00	 ret	 4
$LN3@Rrotate:

; 492  :         } else if (_Wherenode == _Wherenode->_Parent->_Right) {

  00035	8b 42 04	 mov	 eax, DWORD PTR [edx+4]
  00038	3b 50 08	 cmp	 edx, DWORD PTR [eax+8]
  0003b	75 0e		 jne	 SHORT $LN5@Rrotate

; 493  :             _Wherenode->_Parent->_Right = _Pnode;

  0003d	89 70 08	 mov	 DWORD PTR [eax+8], esi

; 496  :         }
; 497  : 
; 498  :         _Pnode->_Right      = _Wherenode;
; 499  :         _Wherenode->_Parent = _Pnode;
; 500  :     }

  00040	89 56 08	 mov	 DWORD PTR [esi+8], edx
  00043	89 72 04	 mov	 DWORD PTR [edx+4], esi
  00046	5e		 pop	 esi
  00047	5d		 pop	 ebp
  00048	c2 04 00	 ret	 4
$LN5@Rrotate:

; 494  :         } else {
; 495  :             _Wherenode->_Parent->_Left = _Pnode;

  0004b	89 30		 mov	 DWORD PTR [eax], esi

; 496  :         }
; 497  : 
; 498  :         _Pnode->_Right      = _Wherenode;
; 499  :         _Wherenode->_Parent = _Pnode;
; 500  :     }

  0004d	89 56 08	 mov	 DWORD PTR [esi+8], edx
  00050	89 72 04	 mov	 DWORD PTR [edx+4], esi
  00053	5e		 pop	 esi
  00054	5d		 pop	 ebp
  00055	c2 04 00	 ret	 4
?_Rrotate@?$_Tree_val@U?$_Tree_simple_types@U?$pair@$$CBKPAUSTextTail@CPythonTextTail@@@std@@@std@@@std@@QAEXPAU?$_Tree_node@U?$pair@$$CBKPAUSTextTail@CPythonTextTail@@@std@@PAX@2@@Z ENDP ; std::_Tree_val<std::_Tree_simple_types<std::pair<unsigned long const ,CPythonTextTail::STextTail *> > >::_Rrotate
_TEXT	ENDS
; Function compile flags: /Ogtp
; File C:\Program Files (x86)\Microsoft Visual Studio\2019\Community\VC\Tools\MSVC\14.28.29333\include\xtree
;	COMDAT ?_Lrotate@?$_Tree_val@U?$_Tree_simple_types@U?$pair@$$CBKPAUSTextTail@CPythonTextTail@@@std@@@std@@@std@@QAEXPAU?$_Tree_node@U?$pair@$$CBKPAUSTextTail@CPythonTextTail@@@std@@PAX@2@@Z
_TEXT	SEGMENT
__Wherenode$ = 8					; size = 4
?_Lrotate@?$_Tree_val@U?$_Tree_simple_types@U?$pair@$$CBKPAUSTextTail@CPythonTextTail@@@std@@@std@@@std@@QAEXPAU?$_Tree_node@U?$pair@$$CBKPAUSTextTail@CPythonTextTail@@@std@@PAX@2@@Z PROC ; std::_Tree_val<std::_Tree_simple_types<std::pair<unsigned long const ,CPythonTextTail::STextTail *> > >::_Lrotate, COMDAT
; _this$ = ecx

; 458  :     void _Lrotate(_Nodeptr _Wherenode) noexcept { // promote right node to root of subtree

  00000	55		 push	 ebp
  00001	8b ec		 mov	 ebp, esp

; 459  :         _Nodeptr _Pnode    = _Wherenode->_Right;

  00003	8b 55 08	 mov	 edx, DWORD PTR __Wherenode$[ebp]
  00006	56		 push	 esi
  00007	8b 72 08	 mov	 esi, DWORD PTR [edx+8]

; 460  :         _Wherenode->_Right = _Pnode->_Left;

  0000a	8b 06		 mov	 eax, DWORD PTR [esi]
  0000c	89 42 08	 mov	 DWORD PTR [edx+8], eax

; 461  : 
; 462  :         if (!_Pnode->_Left->_Isnil) {

  0000f	8b 06		 mov	 eax, DWORD PTR [esi]
  00011	80 78 0d 00	 cmp	 BYTE PTR [eax+13], 0
  00015	75 03		 jne	 SHORT $LN2@Lrotate

; 463  :             _Pnode->_Left->_Parent = _Wherenode;

  00017	89 50 04	 mov	 DWORD PTR [eax+4], edx
$LN2@Lrotate:

; 464  :         }
; 465  : 
; 466  :         _Pnode->_Parent = _Wherenode->_Parent;

  0001a	8b 42 04	 mov	 eax, DWORD PTR [edx+4]
  0001d	89 46 04	 mov	 DWORD PTR [esi+4], eax

; 467  : 
; 468  :         if (_Wherenode == _Myhead->_Parent) {

  00020	8b 01		 mov	 eax, DWORD PTR [ecx]
  00022	3b 50 04	 cmp	 edx, DWORD PTR [eax+4]
  00025	75 0d		 jne	 SHORT $LN3@Lrotate

; 469  :             _Myhead->_Parent = _Pnode;

  00027	89 70 04	 mov	 DWORD PTR [eax+4], esi

; 474  :         }
; 475  : 
; 476  :         _Pnode->_Left       = _Wherenode;
; 477  :         _Wherenode->_Parent = _Pnode;
; 478  :     }

  0002a	89 16		 mov	 DWORD PTR [esi], edx
  0002c	89 72 04	 mov	 DWORD PTR [edx+4], esi
  0002f	5e		 pop	 esi
  00030	5d		 pop	 ebp
  00031	c2 04 00	 ret	 4
$LN3@Lrotate:

; 470  :         } else if (_Wherenode == _Wherenode->_Parent->_Left) {

  00034	8b 42 04	 mov	 eax, DWORD PTR [edx+4]
  00037	3b 10		 cmp	 edx, DWORD PTR [eax]
  00039	75 0c		 jne	 SHORT $LN5@Lrotate

; 471  :             _Wherenode->_Parent->_Left = _Pnode;

  0003b	89 30		 mov	 DWORD PTR [eax], esi

; 474  :         }
; 475  : 
; 476  :         _Pnode->_Left       = _Wherenode;
; 477  :         _Wherenode->_Parent = _Pnode;
; 478  :     }

  0003d	89 16		 mov	 DWORD PTR [esi], edx
  0003f	89 72 04	 mov	 DWORD PTR [edx+4], esi
  00042	5e		 pop	 esi
  00043	5d		 pop	 ebp
  00044	c2 04 00	 ret	 4
$LN5@Lrotate:

; 472  :         } else {
; 473  :             _Wherenode->_Parent->_Right = _Pnode;

  00047	89 70 08	 mov	 DWORD PTR [eax+8], esi

; 474  :         }
; 475  : 
; 476  :         _Pnode->_Left       = _Wherenode;
; 477  :         _Wherenode->_Parent = _Pnode;
; 478  :     }

  0004a	89 16		 mov	 DWORD PTR [esi], edx
  0004c	89 72 04	 mov	 DWORD PTR [edx+4], esi
  0004f	5e		 pop	 esi
  00050	5d		 pop	 ebp
  00051	c2 04 00	 ret	 4
?_Lrotate@?$_Tree_val@U?$_Tree_simple_types@U?$pair@$$CBKPAUSTextTail@CPythonTextTail@@@std@@@std@@@std@@QAEXPAU?$_Tree_node@U?$pair@$$CBKPAUSTextTail@CPythonTextTail@@@std@@PAX@2@@Z ENDP ; std::_Tree_val<std::_Tree_simple_types<std::pair<unsigned long const ,CPythonTextTail::STextTail *> > >::_Lrotate
_TEXT	ENDS
; Function compile flags: /Ogtp
; File C:\Program Files (x86)\Microsoft Visual Studio\2019\Community\VC\Tools\MSVC\14.28.29333\include\xtree
; File C:\Program Files (x86)\Microsoft Visual Studio\2019\Community\VC\Tools\MSVC\14.28.29333\include\utility
; File C:\Program Files (x86)\Microsoft Visual Studio\2019\Community\VC\Tools\MSVC\14.28.29333\include\xmemory
; File C:\Program Files (x86)\Microsoft Visual Studio\2019\Community\VC\Tools\MSVC\14.28.29333\include\xtree
;	COMDAT ?clear@?$_Tree@V?$_Tmap_traits@KPAUSTextTail@CPythonTextTail@@U?$less@K@std@@V?$allocator@U?$pair@$$CBKPAUSTextTail@CPythonTextTail@@@std@@@4@$0A@@std@@@std@@QAEXXZ
_TEXT	SEGMENT
?clear@?$_Tree@V?$_Tmap_traits@KPAUSTextTail@CPythonTextTail@@U?$less@K@std@@V?$allocator@U?$pair@$$CBKPAUSTextTail@CPythonTextTail@@@std@@@4@$0A@@std@@@std@@QAEXXZ PROC ; std::_Tree<std::_Tmap_traits<unsigned long,CPythonTextTail::STextTail *,std::less<unsigned long>,std::allocator<std::pair<unsigned long const ,CPythonTextTail::STextTail *> >,0> >::clear, COMDAT
; _this$ = ecx

; 1444 :     void clear() noexcept {

  00000	53		 push	 ebx
  00001	8b d9		 mov	 ebx, ecx
  00003	56		 push	 esi
  00004	57		 push	 edi

; 1445 :         const auto _Scary = _Get_scary();
; 1446 :         _Scary->_Orphan_ptr(nullptr);
; 1447 :         auto _Head = _Scary->_Myhead;

  00005	8b 3b		 mov	 edi, DWORD PTR [ebx]

; 1448 :         _Scary->_Erase_tree(_Getal(), _Head->_Parent);

  00007	8b 77 04	 mov	 esi, DWORD PTR [edi+4]

; 743  :         while (!_Rootnode->_Isnil) { // free subtrees, then node

  0000a	80 7e 0d 00	 cmp	 BYTE PTR [esi+13], 0
  0000e	75 20		 jne	 SHORT $LN5@clear
$LL4@clear:

; 744  :             _Erase_tree(_Al, _Rootnode->_Right);

  00010	ff 76 08	 push	 DWORD PTR [esi+8]
  00013	8b cb		 mov	 ecx, ebx
  00015	53		 push	 ebx
  00016	e8 00 00 00 00	 call	 ??$_Erase_tree@V?$allocator@U?$_Tree_node@U?$pair@$$CBKPAUSTextTail@CPythonTextTail@@@std@@PAX@std@@@std@@@?$_Tree_val@U?$_Tree_simple_types@U?$pair@$$CBKPAUSTextTail@CPythonTextTail@@@std@@@std@@@std@@QAEXAAV?$allocator@U?$_Tree_node@U?$pair@$$CBKPAUSTextTail@CPythonTextTail@@@std@@PAX@std@@@1@PAU?$_Tree_node@U?$pair@$$CBKPAUSTextTail@CPythonTextTail@@@std@@PAX@1@@Z ; std::_Tree_val<std::_Tree_simple_types<std::pair<unsigned long const ,CPythonTextTail::STextTail *> > >::_Erase_tree<std::allocator<std::_Tree_node<std::pair<unsigned long const ,CPythonTextTail::STextTail *>,void *> > >
; File C:\Program Files (x86)\Microsoft Visual Studio\2019\Community\VC\Tools\MSVC\14.28.29333\include\utility

; 598  :     _Ty _Old_val = static_cast<_Ty&&>(_Val);

  0001b	8b c6		 mov	 eax, esi

; 599  :     _Val         = static_cast<_Other&&>(_New_val);

  0001d	8b 36		 mov	 esi, DWORD PTR [esi]
; File C:\Program Files (x86)\Microsoft Visual Studio\2019\Community\VC\Tools\MSVC\14.28.29333\include\xmemory

; 696  :         _Deallocate<_New_alignof<value_type>>(_Ptr, sizeof(value_type) * _Count);

  0001f	6a 18		 push	 24			; 00000018H
  00021	50		 push	 eax
  00022	e8 00 00 00 00	 call	 ??$_Deallocate@$07$0A@@std@@YAXPAXI@Z ; std::_Deallocate<8,0>
  00027	83 c4 08	 add	 esp, 8
; File C:\Program Files (x86)\Microsoft Visual Studio\2019\Community\VC\Tools\MSVC\14.28.29333\include\xtree

; 743  :         while (!_Rootnode->_Isnil) { // free subtrees, then node

  0002a	80 7e 0d 00	 cmp	 BYTE PTR [esi+13], 0
  0002e	74 e0		 je	 SHORT $LL4@clear
$LN5@clear:

; 1449 :         _Head->_Parent  = _Head;

  00030	89 7f 04	 mov	 DWORD PTR [edi+4], edi

; 1450 :         _Head->_Left    = _Head;

  00033	89 3f		 mov	 DWORD PTR [edi], edi

; 1451 :         _Head->_Right   = _Head;

  00035	89 7f 08	 mov	 DWORD PTR [edi+8], edi

; 1452 :         _Scary->_Mysize = 0;

  00038	5f		 pop	 edi
  00039	5e		 pop	 esi
  0003a	c7 43 04 00 00
	00 00		 mov	 DWORD PTR [ebx+4], 0
  00041	5b		 pop	 ebx

; 1453 :     }

  00042	c3		 ret	 0
?clear@?$_Tree@V?$_Tmap_traits@KPAUSTextTail@CPythonTextTail@@U?$less@K@std@@V?$allocator@U?$pair@$$CBKPAUSTextTail@CPythonTextTail@@@std@@@4@$0A@@std@@@std@@QAEXXZ ENDP ; std::_Tree<std::_Tmap_traits<unsigned long,CPythonTextTail::STextTail *,std::less<unsigned long>,std::allocator<std::pair<unsigned long const ,CPythonTextTail::STextTail *> >,0> >::clear
_TEXT	ENDS
; Function compile flags: /Ogtp
; File C:\Program Files (x86)\Microsoft Visual Studio\2019\Community\VC\Tools\MSVC\14.28.29333\include\xtree
; File C:\Program Files (x86)\Microsoft Visual Studio\2019\Community\VC\Tools\MSVC\14.28.29333\include\utility
; File C:\Program Files (x86)\Microsoft Visual Studio\2019\Community\VC\Tools\MSVC\14.28.29333\include\xmemory
; File C:\Program Files (x86)\Microsoft Visual Studio\2019\Community\VC\Tools\MSVC\14.28.29333\include\xtree
; File C:\Program Files (x86)\Microsoft Visual Studio\2019\Community\VC\Tools\MSVC\14.28.29333\include\xmemory
; File C:\Program Files (x86)\Microsoft Visual Studio\2019\Community\VC\Tools\MSVC\14.28.29333\include\xtree
;	COMDAT ??1?$_Tree@V?$_Tmap_traits@KPAUSTextTail@CPythonTextTail@@U?$less@K@std@@V?$allocator@U?$pair@$$CBKPAUSTextTail@CPythonTextTail@@@std@@@4@$0A@@std@@@std@@QAE@XZ
_TEXT	SEGMENT
??1?$_Tree@V?$_Tmap_traits@KPAUSTextTail@CPythonTextTail@@U?$less@K@std@@V?$allocator@U?$pair@$$CBKPAUSTextTail@CPythonTextTail@@@std@@@4@$0A@@std@@@std@@QAE@XZ PROC ; std::_Tree<std::_Tmap_traits<unsigned long,CPythonTextTail::STextTail *,std::less<unsigned long>,std::allocator<std::pair<unsigned long const ,CPythonTextTail::STextTail *> >,0> >::~_Tree<std::_Tmap_traits<unsigned long,CPythonTextTail::STextTail *,std::less<unsigned long>,std::allocator<std::pair<unsigned long const ,CPythonTextTail::STextTail *> >,0> >, COMDAT
; _this$ = ecx

; 1189 :     ~_Tree() noexcept {

  00000	56		 push	 esi
  00001	57		 push	 edi
  00002	8b f9		 mov	 edi, ecx

; 752  :         _Erase_tree(_Al, _Myhead->_Parent);

  00004	8b 07		 mov	 eax, DWORD PTR [edi]
  00006	8b 70 04	 mov	 esi, DWORD PTR [eax+4]

; 743  :         while (!_Rootnode->_Isnil) { // free subtrees, then node

  00009	80 7e 0d 00	 cmp	 BYTE PTR [esi+13], 0
  0000d	75 23		 jne	 SHORT $LN7@Tree
  0000f	90		 npad	 1
$LL6@Tree:

; 744  :             _Erase_tree(_Al, _Rootnode->_Right);

  00010	ff 76 08	 push	 DWORD PTR [esi+8]
  00013	8b cf		 mov	 ecx, edi
  00015	57		 push	 edi
  00016	e8 00 00 00 00	 call	 ??$_Erase_tree@V?$allocator@U?$_Tree_node@U?$pair@$$CBKPAUSTextTail@CPythonTextTail@@@std@@PAX@std@@@std@@@?$_Tree_val@U?$_Tree_simple_types@U?$pair@$$CBKPAUSTextTail@CPythonTextTail@@@std@@@std@@@std@@QAEXAAV?$allocator@U?$_Tree_node@U?$pair@$$CBKPAUSTextTail@CPythonTextTail@@@std@@PAX@std@@@1@PAU?$_Tree_node@U?$pair@$$CBKPAUSTextTail@CPythonTextTail@@@std@@PAX@1@@Z ; std::_Tree_val<std::_Tree_simple_types<std::pair<unsigned long const ,CPythonTextTail::STextTail *> > >::_Erase_tree<std::allocator<std::_Tree_node<std::pair<unsigned long const ,CPythonTextTail::STextTail *>,void *> > >
; File C:\Program Files (x86)\Microsoft Visual Studio\2019\Community\VC\Tools\MSVC\14.28.29333\include\utility

; 598  :     _Ty _Old_val = static_cast<_Ty&&>(_Val);

  0001b	8b c6		 mov	 eax, esi

; 599  :     _Val         = static_cast<_Other&&>(_New_val);

  0001d	8b 36		 mov	 esi, DWORD PTR [esi]
; File C:\Program Files (x86)\Microsoft Visual Studio\2019\Community\VC\Tools\MSVC\14.28.29333\include\xmemory

; 696  :         _Deallocate<_New_alignof<value_type>>(_Ptr, sizeof(value_type) * _Count);

  0001f	6a 18		 push	 24			; 00000018H
  00021	50		 push	 eax
  00022	e8 00 00 00 00	 call	 ??$_Deallocate@$07$0A@@std@@YAXPAXI@Z ; std::_Deallocate<8,0>
  00027	83 c4 08	 add	 esp, 8
; File C:\Program Files (x86)\Microsoft Visual Studio\2019\Community\VC\Tools\MSVC\14.28.29333\include\xtree

; 743  :         while (!_Rootnode->_Isnil) { // free subtrees, then node

  0002a	80 7e 0d 00	 cmp	 BYTE PTR [esi+13], 0
  0002e	74 e0		 je	 SHORT $LL6@Tree
  00030	8b 07		 mov	 eax, DWORD PTR [edi]
$LN7@Tree:
; File C:\Program Files (x86)\Microsoft Visual Studio\2019\Community\VC\Tools\MSVC\14.28.29333\include\xmemory

; 696  :         _Deallocate<_New_alignof<value_type>>(_Ptr, sizeof(value_type) * _Count);

  00032	6a 18		 push	 24			; 00000018H
  00034	50		 push	 eax
  00035	e8 00 00 00 00	 call	 ??$_Deallocate@$07$0A@@std@@YAXPAXI@Z ; std::_Deallocate<8,0>
  0003a	83 c4 08	 add	 esp, 8
  0003d	5f		 pop	 edi
  0003e	5e		 pop	 esi
; File C:\Program Files (x86)\Microsoft Visual Studio\2019\Community\VC\Tools\MSVC\14.28.29333\include\xtree

; 1196 :     }

  0003f	c3		 ret	 0
??1?$_Tree@V?$_Tmap_traits@KPAUSTextTail@CPythonTextTail@@U?$less@K@std@@V?$allocator@U?$pair@$$CBKPAUSTextTail@CPythonTextTail@@@std@@@4@$0A@@std@@@std@@QAE@XZ ENDP ; std::_Tree<std::_Tmap_traits<unsigned long,CPythonTextTail::STextTail *,std::less<unsigned long>,std::allocator<std::pair<unsigned long const ,CPythonTextTail::STextTail *> >,0> >::~_Tree<std::_Tmap_traits<unsigned long,CPythonTextTail::STextTail *,std::less<unsigned long>,std::allocator<std::pair<unsigned long const ,CPythonTextTail::STextTail *> >,0> >
_TEXT	ENDS
; Function compile flags: /Ogtp
; File D:\Metin2 Server Files\mainline\SRC_2014\Metin2Client\UserInterface\PythonTextTail.cpp
;	COMDAT ?isIn@CPythonTextTail@@IAE_NPAUSTextTail@1@0@Z
_TEXT	SEGMENT
_pSource$ = 8						; size = 4
_pTarget$ = 12						; size = 4
?isIn@CPythonTextTail@@IAE_NPAUSTextTail@1@0@Z PROC	; CPythonTextTail::isIn, COMDAT
; _this$ = ecx

; 489  : {

  00000	55		 push	 ebp
  00001	8b ec		 mov	 ebp, esp

; 490  : 	float x1Source = pSource->x + pSource->xStart;

  00003	8b 45 08	 mov	 eax, DWORD PTR _pSource$[ebp]

; 496  : 	float x2Target = pTarget->x + pTarget->xEnd;

  00006	8b 4d 0c	 mov	 ecx, DWORD PTR _pTarget$[ebp]
  00009	f3 0f 10 50 24	 movss	 xmm2, DWORD PTR [eax+36]
  0000e	f3 0f 10 59 24	 movss	 xmm3, DWORD PTR [ecx+36]
  00013	f3 0f 10 48 48	 movss	 xmm1, DWORD PTR [eax+72]
  00018	f3 0f 10 41 50	 movss	 xmm0, DWORD PTR [ecx+80]
  0001d	f3 0f 58 ca	 addss	 xmm1, xmm2
  00021	f3 0f 58 c3	 addss	 xmm0, xmm3

; 498  : 
; 499  : 	if (x1Source <= x2Target && x2Source >= x1Target &&
; 500  : 	    y1Source <= y2Target && y2Source >= y1Target)

  00025	0f 2f c1	 comiss	 xmm0, xmm1
  00028	72 55		 jb	 SHORT $LN2@isIn

; 491  : 	float y1Source = pSource->y + pSource->yStart;
; 492  : 	float x2Source = pSource->x + pSource->xEnd;
; 493  : 	float y2Source = pSource->y + pSource->yEnd;
; 494  : 	float x1Target = pTarget->x + pTarget->xStart;

  0002a	f3 0f 10 48 50	 movss	 xmm1, DWORD PTR [eax+80]
  0002f	f3 0f 10 41 48	 movss	 xmm0, DWORD PTR [ecx+72]
  00034	f3 0f 58 ca	 addss	 xmm1, xmm2
  00038	f3 0f 58 c3	 addss	 xmm0, xmm3

; 498  : 
; 499  : 	if (x1Source <= x2Target && x2Source >= x1Target &&
; 500  : 	    y1Source <= y2Target && y2Source >= y1Target)

  0003c	0f 2f c8	 comiss	 xmm1, xmm0
  0003f	72 3e		 jb	 SHORT $LN2@isIn

; 497  : 	float y2Target = pTarget->y + pTarget->yEnd;

  00041	f3 0f 10 50 28	 movss	 xmm2, DWORD PTR [eax+40]
  00046	f3 0f 10 59 28	 movss	 xmm3, DWORD PTR [ecx+40]
  0004b	f3 0f 10 48 4c	 movss	 xmm1, DWORD PTR [eax+76]
  00050	f3 0f 10 41 54	 movss	 xmm0, DWORD PTR [ecx+84]
  00055	f3 0f 58 ca	 addss	 xmm1, xmm2
  00059	f3 0f 58 c3	 addss	 xmm0, xmm3

; 498  : 
; 499  : 	if (x1Source <= x2Target && x2Source >= x1Target &&
; 500  : 	    y1Source <= y2Target && y2Source >= y1Target)

  0005d	0f 2f c1	 comiss	 xmm0, xmm1
  00060	72 1d		 jb	 SHORT $LN2@isIn

; 495  : 	float y1Target = pTarget->y + pTarget->yStart;

  00062	f3 0f 10 48 54	 movss	 xmm1, DWORD PTR [eax+84]
  00067	f3 0f 10 41 4c	 movss	 xmm0, DWORD PTR [ecx+76]
  0006c	f3 0f 58 ca	 addss	 xmm1, xmm2
  00070	f3 0f 58 c3	 addss	 xmm0, xmm3

; 498  : 
; 499  : 	if (x1Source <= x2Target && x2Source >= x1Target &&
; 500  : 	    y1Source <= y2Target && y2Source >= y1Target)

  00074	0f 2f c8	 comiss	 xmm1, xmm0
  00077	72 06		 jb	 SHORT $LN2@isIn

; 501  : 	{
; 502  : 		return true;

  00079	b0 01		 mov	 al, 1

; 506  : }

  0007b	5d		 pop	 ebp
  0007c	c2 08 00	 ret	 8
$LN2@isIn:

; 503  : 	}
; 504  : 
; 505  : 	return false;

  0007f	32 c0		 xor	 al, al

; 506  : }

  00081	5d		 pop	 ebp
  00082	c2 08 00	 ret	 8
?isIn@CPythonTextTail@@IAE_NPAUSTextTail@1@0@Z ENDP	; CPythonTextTail::isIn
_TEXT	ENDS
; Function compile flags: /Ogtp
; File D:\Metin2 Server Files\mainline\SRC_2014\Metin2Client\UserInterface\PythonTextTail.cpp
; File D:\Metin2 Server Files\mainline\SRC_2014\M2Data\include\d3dx8math.inl
; File C:\Program Files (x86)\Windows Kits\10\Include\10.0.18362.0\ucrt\corecrt_math.h
; File D:\Metin2 Server Files\mainline\SRC_2014\Metin2Client\UserInterface\PythonTextTail.cpp
; File C:\Program Files (x86)\Windows Kits\10\Include\10.0.18362.0\ucrt\corecrt_math.h
; File D:\Metin2 Server Files\mainline\SRC_2014\Metin2Client\UserInterface\PythonTextTail.cpp
;	COMDAT ?UpdateDistance@CPythonTextTail@@IAEXABUD3DXVECTOR3@@PAUSTextTail@1@@Z
_TEXT	SEGMENT
_c_rCenterPosition$ = 8					; size = 4
_pTextTail$ = 12					; size = 4
?UpdateDistance@CPythonTextTail@@IAEXABUD3DXVECTOR3@@PAUSTextTail@1@@Z PROC ; CPythonTextTail::UpdateDistance, COMDAT
; _this$ = ecx

; 416  : {

  00000	55		 push	 ebp
  00001	8b ec		 mov	 ebp, esp
  00003	83 e4 f8	 and	 esp, -8			; fffffff8H
  00006	51		 push	 ecx
  00007	56		 push	 esi

; 417  : 	const D3DXVECTOR3 & c_rv3Position = pTextTail->pOwner->GetPosition();

  00008	8b 75 0c	 mov	 esi, DWORD PTR _pTextTail$[ebp]
  0000b	8b 4e 1c	 mov	 ecx, DWORD PTR [esi+28]
  0000e	e8 00 00 00 00	 call	 ?GetPosition@CGraphicObjectInstance@@QBEABUD3DXVECTOR3@@XZ ; CGraphicObjectInstance::GetPosition

; 418  : 	D3DXVECTOR2 v2Distance(c_rv3Position.x - c_rCenterPosition.x, -c_rv3Position.y - c_rCenterPosition.y);

  00013	8b 4d 08	 mov	 ecx, DWORD PTR _c_rCenterPosition$[ebp]
  00016	f3 0f 10 40 04	 movss	 xmm0, DWORD PTR [eax+4]
  0001b	0f 57 05 00 00
	00 00		 xorps	 xmm0, DWORD PTR __xmm@80000000800000008000000080000000
  00022	f3 0f 10 08	 movss	 xmm1, DWORD PTR [eax]
  00026	f3 0f 5c 41 04	 subss	 xmm0, DWORD PTR [ecx+4]
  0002b	f3 0f 5c 09	 subss	 xmm1, DWORD PTR [ecx]
; File D:\Metin2 Server Files\mainline\SRC_2014\M2Data\include\d3dx8math.inl

; 42   :     y = fy;

  0002f	f3 0f 59 c0	 mulss	 xmm0, xmm0

; 1107 :     return sqrtf(pV->x * pV->x + pV->y * pV->y);

  00033	f3 0f 59 c9	 mulss	 xmm1, xmm1
  00037	f3 0f 58 c1	 addss	 xmm0, xmm1
  0003b	0f 57 c9	 xorps	 xmm1, xmm1
; File C:\Program Files (x86)\Windows Kits\10\Include\10.0.18362.0\ucrt\corecrt_math.h

; 760  :             return (float)sqrt(_X);

  0003e	f3 0f 5a c0	 cvtss2sd xmm0, xmm0
  00042	66 0f 2e c8	 ucomisd xmm1, xmm0
  00046	77 14		 ja	 SHORT $LN9@UpdateDist
  00048	f2 0f 51 c0	 sqrtsd	 xmm0, xmm0
  0004c	f2 0f 5a c0	 cvtsd2ss xmm0, xmm0
; File D:\Metin2 Server Files\mainline\SRC_2014\Metin2Client\UserInterface\PythonTextTail.cpp

; 419  : 	pTextTail->fDistanceFromPlayer = D3DXVec2Length(&v2Distance);

  00050	f3 0f 11 46 30	 movss	 DWORD PTR [esi+48], xmm0

; 420  : }

  00055	5e		 pop	 esi
  00056	8b e5		 mov	 esp, ebp
  00058	5d		 pop	 ebp
  00059	c2 08 00	 ret	 8
$LN9@UpdateDist:
; File C:\Program Files (x86)\Windows Kits\10\Include\10.0.18362.0\ucrt\corecrt_math.h

; 760  :             return (float)sqrt(_X);

  0005c	e8 00 00 00 00	 call	 __libm_sse2_sqrt_precise
  00061	f2 0f 5a c0	 cvtsd2ss xmm0, xmm0
; File D:\Metin2 Server Files\mainline\SRC_2014\Metin2Client\UserInterface\PythonTextTail.cpp

; 419  : 	pTextTail->fDistanceFromPlayer = D3DXVec2Length(&v2Distance);

  00065	f3 0f 11 46 30	 movss	 DWORD PTR [esi+48], xmm0

; 420  : }

  0006a	5e		 pop	 esi
  0006b	8b e5		 mov	 esp, ebp
  0006d	5d		 pop	 ebp
  0006e	c2 08 00	 ret	 8
?UpdateDistance@CPythonTextTail@@IAEXABUD3DXVECTOR3@@PAUSTextTail@1@@Z ENDP ; CPythonTextTail::UpdateDistance
_TEXT	ENDS
; Function compile flags: /Ogtp
; File D:\Metin2 Server Files\mainline\SRC_2014\Metin2Client\UserInterface\PythonTextTail.cpp
;	COMDAT ?RenderTextTailName@CPythonTextTail@@IAEXPAUSTextTail@1@@Z
_TEXT	SEGMENT
_pTextTail$ = 8						; size = 4
?RenderTextTailName@CPythonTextTail@@IAEXPAUSTextTail@1@@Z PROC ; CPythonTextTail::RenderTextTailName, COMDAT
; _this$ = ecx

; 403  : {

  00000	55		 push	 ebp
  00001	8b ec		 mov	 ebp, esp

; 404  : 	pTextTail->pTextInstance->Render();

  00003	8b 4d 08	 mov	 ecx, DWORD PTR _pTextTail$[ebp]
  00006	6a 00		 push	 0
  00008	8b 49 04	 mov	 ecx, DWORD PTR [ecx+4]
  0000b	e8 00 00 00 00	 call	 ?Render@CGraphicTextInstance@@QAEXPAUtagRECT@@@Z ; CGraphicTextInstance::Render

; 405  : }

  00010	5d		 pop	 ebp
  00011	c2 04 00	 ret	 4
?RenderTextTailName@CPythonTextTail@@IAEXPAUSTextTail@1@@Z ENDP ; CPythonTextTail::RenderTextTailName
_TEXT	ENDS
; Function compile flags: /Ogtp
; File D:\Metin2 Server Files\mainline\SRC_2014\Metin2Client\UserInterface\PythonTextTail.cpp
;	COMDAT ?RenderTextTailBox@CPythonTextTail@@IAEXPAUSTextTail@1@@Z
_TEXT	SEGMENT
_pTextTail$ = 8						; size = 4
?RenderTextTailBox@CPythonTextTail@@IAEXPAUSTextTail@1@@Z PROC ; CPythonTextTail::RenderTextTailBox, COMDAT
; _this$ = ecx

; 384  : {

  00000	55		 push	 ebp
  00001	8b ec		 mov	 ebp, esp

; 385  : 	//  
; 386  : 	CPythonGraphic::Instance().SetDiffuseColor(0.0f, 0.0f, 0.0f, 1.0f);

  00003	8b 0d 00 00 00
	00		 mov	 ecx, DWORD PTR ?ms_singleton@?$CSingleton@VCPythonGraphic@@@@0PAVCPythonGraphic@@A ; CSingleton<CPythonGraphic>::ms_singleton
  00009	56		 push	 esi
  0000a	83 ec 10	 sub	 esp, 16			; 00000010H
  0000d	c7 44 24 0c 00
	00 80 3f	 mov	 DWORD PTR [esp+12], 1065353216 ; 3f800000H
  00015	c7 44 24 08 00
	00 00 00	 mov	 DWORD PTR [esp+8], 0
  0001d	c7 44 24 04 00
	00 00 00	 mov	 DWORD PTR [esp+4], 0
  00025	c7 04 24 00 00
	00 00		 mov	 DWORD PTR [esp], 0
  0002c	e8 00 00 00 00	 call	 ?SetDiffuseColor@CScreen@@QAEXMMMM@Z ; CScreen::SetDiffuseColor

; 387  : 	CPythonGraphic::Instance().RenderBox2d(pTextTail->x + pTextTail->xStart,

  00031	8b 75 08	 mov	 esi, DWORD PTR _pTextTail$[ebp]
  00034	83 ec 14	 sub	 esp, 20			; 00000014H
  00037	8b 0d 00 00 00
	00		 mov	 ecx, DWORD PTR ?ms_singleton@?$CSingleton@VCPythonGraphic@@@@0PAVCPythonGraphic@@A ; CSingleton<CPythonGraphic>::ms_singleton
  0003d	f3 0f 10 46 2c	 movss	 xmm0, DWORD PTR [esi+44]
  00042	f3 0f 11 44 24
	10		 movss	 DWORD PTR [esp+16], xmm0
  00048	f3 0f 10 46 54	 movss	 xmm0, DWORD PTR [esi+84]
  0004d	f3 0f 58 46 28	 addss	 xmm0, DWORD PTR [esi+40]
  00052	f3 0f 11 44 24
	0c		 movss	 DWORD PTR [esp+12], xmm0
  00058	f3 0f 10 46 50	 movss	 xmm0, DWORD PTR [esi+80]
  0005d	f3 0f 58 46 24	 addss	 xmm0, DWORD PTR [esi+36]
  00062	f3 0f 11 44 24
	08		 movss	 DWORD PTR [esp+8], xmm0
  00068	f3 0f 10 46 4c	 movss	 xmm0, DWORD PTR [esi+76]
  0006d	f3 0f 58 46 28	 addss	 xmm0, DWORD PTR [esi+40]
  00072	f3 0f 11 44 24
	04		 movss	 DWORD PTR [esp+4], xmm0
  00078	f3 0f 10 46 48	 movss	 xmm0, DWORD PTR [esi+72]
  0007d	f3 0f 58 46 24	 addss	 xmm0, DWORD PTR [esi+36]
  00082	f3 0f 11 04 24	 movss	 DWORD PTR [esp], xmm0
  00087	e8 00 00 00 00	 call	 ?RenderBox2d@CScreen@@QAEXMMMMM@Z ; CScreen::RenderBox2d

; 388  : 										   pTextTail->y + pTextTail->yStart,
; 389  : 										   pTextTail->x + pTextTail->xEnd,
; 390  : 										   pTextTail->y + pTextTail->yEnd,
; 391  : 										   pTextTail->z);
; 392  : 
; 393  : 	//  
; 394  : 	CPythonGraphic::Instance().SetDiffuseColor(0.0f, 0.0f, 0.0f, 0.3f);

  0008c	8b 0d 00 00 00
	00		 mov	 ecx, DWORD PTR ?ms_singleton@?$CSingleton@VCPythonGraphic@@@@0PAVCPythonGraphic@@A ; CSingleton<CPythonGraphic>::ms_singleton
  00092	83 ec 10	 sub	 esp, 16			; 00000010H
  00095	c7 44 24 0c 9a
	99 99 3e	 mov	 DWORD PTR [esp+12], 1050253722 ; 3e99999aH
  0009d	c7 44 24 08 00
	00 00 00	 mov	 DWORD PTR [esp+8], 0
  000a5	c7 44 24 04 00
	00 00 00	 mov	 DWORD PTR [esp+4], 0
  000ad	c7 04 24 00 00
	00 00		 mov	 DWORD PTR [esp], 0
  000b4	e8 00 00 00 00	 call	 ?SetDiffuseColor@CScreen@@QAEXMMMM@Z ; CScreen::SetDiffuseColor

; 395  : 	CPythonGraphic::Instance().RenderBar2d(pTextTail->x + pTextTail->xStart,

  000b9	f3 0f 10 46 2c	 movss	 xmm0, DWORD PTR [esi+44]
  000be	83 ec 14	 sub	 esp, 20			; 00000014H
  000c1	8b 0d 00 00 00
	00		 mov	 ecx, DWORD PTR ?ms_singleton@?$CSingleton@VCPythonGraphic@@@@0PAVCPythonGraphic@@A ; CSingleton<CPythonGraphic>::ms_singleton
  000c7	f3 0f 11 44 24
	10		 movss	 DWORD PTR [esp+16], xmm0
  000cd	f3 0f 10 46 54	 movss	 xmm0, DWORD PTR [esi+84]
  000d2	f3 0f 58 46 28	 addss	 xmm0, DWORD PTR [esi+40]
  000d7	f3 0f 11 44 24
	0c		 movss	 DWORD PTR [esp+12], xmm0
  000dd	f3 0f 10 46 50	 movss	 xmm0, DWORD PTR [esi+80]
  000e2	f3 0f 58 46 24	 addss	 xmm0, DWORD PTR [esi+36]
  000e7	f3 0f 11 44 24
	08		 movss	 DWORD PTR [esp+8], xmm0
  000ed	f3 0f 10 46 4c	 movss	 xmm0, DWORD PTR [esi+76]
  000f2	f3 0f 58 46 28	 addss	 xmm0, DWORD PTR [esi+40]
  000f7	f3 0f 11 44 24
	04		 movss	 DWORD PTR [esp+4], xmm0
  000fd	f3 0f 10 46 48	 movss	 xmm0, DWORD PTR [esi+72]
  00102	f3 0f 58 46 24	 addss	 xmm0, DWORD PTR [esi+36]
  00107	f3 0f 11 04 24	 movss	 DWORD PTR [esp], xmm0
  0010c	e8 00 00 00 00	 call	 ?RenderBar2d@CScreen@@QAEXMMMMM@Z ; CScreen::RenderBar2d
  00111	5e		 pop	 esi

; 396  : 										   pTextTail->y + pTextTail->yStart,
; 397  : 										   pTextTail->x + pTextTail->xEnd,
; 398  : 										   pTextTail->y + pTextTail->yEnd,
; 399  : 										   pTextTail->z);
; 400  : }

  00112	5d		 pop	 ebp
  00113	c2 04 00	 ret	 4
?RenderTextTailBox@CPythonTextTail@@IAEXPAUSTextTail@1@@Z ENDP ; CPythonTextTail::RenderTextTailBox
_TEXT	ENDS
; Function compile flags: /Ogtp
; File D:\Metin2 Server Files\mainline\SRC_2014\Metin2Client\UserInterface\PythonTextTail.cpp
; File C:\Program Files (x86)\Windows Kits\10\Include\10.0.18362.0\ucrt\corecrt_math.h
; File D:\Metin2 Server Files\mainline\SRC_2014\Metin2Client\UserInterface\PythonTextTail.cpp
; File C:\Program Files (x86)\Windows Kits\10\Include\10.0.18362.0\ucrt\corecrt_math.h
; File D:\Metin2 Server Files\mainline\SRC_2014\Metin2Client\UserInterface\PythonTextTail.cpp
; File C:\Program Files (x86)\Windows Kits\10\Include\10.0.18362.0\ucrt\corecrt_math.h
; File D:\Metin2 Server Files\mainline\SRC_2014\Metin2Client\UserInterface\PythonTextTail.cpp
;	COMDAT ?UpdateTextTail@CPythonTextTail@@IAEXPAUSTextTail@1@@Z
_TEXT	SEGMENT
tv242 = -8						; size = 8
tv234 = -8						; size = 8
tv223 = 8						; size = 4
_pTextTail$ = 8						; size = 4
?UpdateTextTail@CPythonTextTail@@IAEXPAUSTextTail@1@@Z PROC ; CPythonTextTail::UpdateTextTail, COMDAT
; _this$ = ecx

; 121  : {

  00000	55		 push	 ebp
  00001	8b ec		 mov	 ebp, esp
  00003	83 ec 08	 sub	 esp, 8
  00006	57		 push	 edi

; 122  : 	if (!pTextTail->pOwner)

  00007	8b 7d 08	 mov	 edi, DWORD PTR _pTextTail$[ebp]
  0000a	83 7f 1c 00	 cmp	 DWORD PTR [edi+28], 0
  0000e	0f 84 de 00 00
	00		 je	 $LN4@UpdateText

; 123  : 		return;
; 124  : 
; 125  : 	/////
; 126  : 
; 127  : 	CPythonGraphic & rpyGraphic = CPythonGraphic::Instance();

  00014	53		 push	 ebx
  00015	56		 push	 esi
  00016	8b 35 00 00 00
	00		 mov	 esi, DWORD PTR ?ms_singleton@?$CSingleton@VCPythonGraphic@@@@0PAVCPythonGraphic@@A ; CSingleton<CPythonGraphic>::ms_singleton

; 128  : 	rpyGraphic.Identity();

  0001c	e8 00 00 00 00	 call	 ?Identity@CScreen@@SAXXZ ; CScreen::Identity

; 129  : 
; 130  : 	const D3DXVECTOR3 & c_rv3Position = pTextTail->pOwner->GetPosition();

  00021	8b 4f 1c	 mov	 ecx, DWORD PTR [edi+28]
  00024	e8 00 00 00 00	 call	 ?GetPosition@CGraphicObjectInstance@@QBEABUD3DXVECTOR3@@XZ ; CGraphicObjectInstance::GetPosition

; 131  : 	rpyGraphic.ProjectPosition(c_rv3Position.x,

  00029	8d 4f 2c	 lea	 ecx, DWORD PTR [edi+44]
  0002c	51		 push	 ecx
  0002d	8b 4d 08	 mov	 ecx, DWORD PTR _pTextTail$[ebp]
  00030	8d 5f 28	 lea	 ebx, DWORD PTR [edi+40]
  00033	53		 push	 ebx
  00034	83 c7 24	 add	 edi, 36			; 00000024H
  00037	57		 push	 edi
  00038	f3 0f 10 41 5c	 movss	 xmm0, DWORD PTR [ecx+92]
  0003d	83 ec 0c	 sub	 esp, 12			; 0000000cH
  00040	f3 0f 58 40 08	 addss	 xmm0, DWORD PTR [eax+8]
  00045	8b ce		 mov	 ecx, esi
  00047	f3 0f 11 44 24
	08		 movss	 DWORD PTR [esp+8], xmm0
  0004d	f3 0f 10 40 04	 movss	 xmm0, DWORD PTR [eax+4]
  00052	f3 0f 11 44 24
	04		 movss	 DWORD PTR [esp+4], xmm0
  00058	f3 0f 10 00	 movss	 xmm0, DWORD PTR [eax]
  0005c	f3 0f 11 04 24	 movss	 DWORD PTR [esp], xmm0
  00061	e8 00 00 00 00	 call	 ?ProjectPosition@CScreen@@QAEXMMMPAM00@Z ; CScreen::ProjectPosition
  00066	f3 0f 10 07	 movss	 xmm0, DWORD PTR [edi]
; File C:\Program Files (x86)\Windows Kits\10\Include\10.0.18362.0\ucrt\corecrt_math.h

; 686  :             return (float)floor(_X);

  0006a	83 ec 08	 sub	 esp, 8
  0006d	0f 5a c0	 cvtps2pd xmm0, xmm0
  00070	f2 0f 11 45 f8	 movsd	 QWORD PTR tv242[ebp], xmm0
  00075	dd 45 f8	 fld	 QWORD PTR tv242[ebp]
  00078	dd 1c 24	 fstp	 QWORD PTR [esp]
  0007b	e8 00 00 00 00	 call	 _floor
  00080	f3 0f 10 03	 movss	 xmm0, DWORD PTR [ebx]
  00084	0f 5a c0	 cvtps2pd xmm0, xmm0
; File D:\Metin2 Server Files\mainline\SRC_2014\Metin2Client\UserInterface\PythonTextTail.cpp

; 138  : 	pTextTail->x = floorf(pTextTail->x);

  00087	d9 1f		 fstp	 DWORD PTR [edi]
; File C:\Program Files (x86)\Windows Kits\10\Include\10.0.18362.0\ucrt\corecrt_math.h

; 686  :             return (float)floor(_X);

  00089	f2 0f 11 45 f8	 movsd	 QWORD PTR tv234[ebp], xmm0
  0008e	dd 45 f8	 fld	 QWORD PTR tv234[ebp]
  00091	dd 1c 24	 fstp	 QWORD PTR [esp]
  00094	e8 00 00 00 00	 call	 _floor
; File D:\Metin2 Server Files\mainline\SRC_2014\Metin2Client\UserInterface\PythonTextTail.cpp

; 142  : 	if (pTextTail->fDistanceFromPlayer < 1300.0f)

  00099	f3 0f 10 05 00
	00 00 00	 movss	 xmm0, DWORD PTR __real@44a28000
; File C:\Program Files (x86)\Windows Kits\10\Include\10.0.18362.0\ucrt\corecrt_math.h

; 686  :             return (float)floor(_X);

  000a1	83 c4 08	 add	 esp, 8
; File D:\Metin2 Server Files\mainline\SRC_2014\Metin2Client\UserInterface\PythonTextTail.cpp

; 139  : 	pTextTail->y = floorf(pTextTail->y);

  000a4	d9 1b		 fstp	 DWORD PTR [ebx]

; 142  : 	if (pTextTail->fDistanceFromPlayer < 1300.0f)

  000a6	8b 5d 08	 mov	 ebx, DWORD PTR _pTextTail$[ebp]
  000a9	0f 2f 43 30	 comiss	 xmm0, DWORD PTR [ebx+48]
  000ad	76 10		 jbe	 SHORT $LN3@UpdateText

; 143  : 	{
; 144  : 		pTextTail->z = 0.0f;

  000af	5e		 pop	 esi
  000b0	c7 43 2c 00 00
	00 00		 mov	 DWORD PTR [ebx+44], 0
  000b7	5b		 pop	 ebx
  000b8	5f		 pop	 edi

; 150  : 	}
; 151  : }

  000b9	8b e5		 mov	 esp, ebp
  000bb	5d		 pop	 ebp
  000bc	c2 04 00	 ret	 4
$LN3@UpdateText:

; 145  : 	}
; 146  : 	else
; 147  : 	{
; 148  : 		pTextTail->z = pTextTail->z * CPythonGraphic::Instance().GetOrthoDepth() * -1.0f;

  000bf	8b 0d 00 00 00
	00		 mov	 ecx, DWORD PTR ?ms_singleton@?$CSingleton@VCPythonGraphic@@@@0PAVCPythonGraphic@@A ; CSingleton<CPythonGraphic>::ms_singleton
  000c5	e8 00 00 00 00	 call	 ?GetOrthoDepth@CPythonGraphic@@QAEMXZ ; CPythonGraphic::GetOrthoDepth

; 149  : 		pTextTail->z += 10.0f;

  000ca	f3 0f 10 05 00
	00 00 00	 movss	 xmm0, DWORD PTR __real@41200000
  000d2	d9 5d 08	 fstp	 DWORD PTR tv223[ebp]
  000d5	f3 0f 10 4d 08	 movss	 xmm1, DWORD PTR tv223[ebp]
  000da	f3 0f 59 4b 2c	 mulss	 xmm1, DWORD PTR [ebx+44]
  000df	5e		 pop	 esi
  000e0	f3 0f 59 0d 00
	00 00 00	 mulss	 xmm1, DWORD PTR __real@3f800000
  000e8	f3 0f 5c c1	 subss	 xmm0, xmm1
  000ec	f3 0f 11 43 2c	 movss	 DWORD PTR [ebx+44], xmm0
  000f1	5b		 pop	 ebx
$LN4@UpdateText:
  000f2	5f		 pop	 edi

; 150  : 	}
; 151  : }

  000f3	8b e5		 mov	 esp, ebp
  000f5	5d		 pop	 ebp
  000f6	c2 04 00	 ret	 4
?UpdateTextTail@CPythonTextTail@@IAEXPAUSTextTail@1@@Z ENDP ; CPythonTextTail::UpdateTextTail
_TEXT	ENDS
; Function compile flags: /Ogtp
; File D:\Metin2 Server Files\mainline\SRC_2014\Metin2Client\UserInterface\PythonTextTail.cpp
; File C:\Program Files (x86)\Microsoft Visual Studio\2019\Community\VC\Tools\MSVC\14.28.29333\include\vector
; File D:\Metin2 Server Files\mainline\SRC_2014\Metin2Client\eterLib\Pool.h
; File D:\Metin2 Server Files\mainline\SRC_2014\Metin2Client\UserInterface\PythonTextTail.cpp
; File C:\Program Files (x86)\Microsoft Visual Studio\2019\Community\VC\Tools\MSVC\14.28.29333\include\vector
; File D:\Metin2 Server Files\mainline\SRC_2014\Metin2Client\UserInterface\PythonTextTail.cpp
; File C:\Program Files (x86)\Microsoft Visual Studio\2019\Community\VC\Tools\MSVC\14.28.29333\include\vector
; File D:\Metin2 Server Files\mainline\SRC_2014\Metin2Client\UserInterface\PythonTextTail.cpp
;	COMDAT ?DeleteTextTail@CPythonTextTail@@IAEXPAUSTextTail@1@@Z
_TEXT	SEGMENT
_pkData$ = 8						; size = 4
_pTextTail$ = 8						; size = 4
?DeleteTextTail@CPythonTextTail@@IAEXPAUSTextTail@1@@Z PROC ; CPythonTextTail::DeleteTextTail, COMDAT
; _this$ = ecx

; 826  : {

  00000	55		 push	 ebp
  00001	8b ec		 mov	 ebp, esp
  00003	56		 push	 esi

; 827  : 	if (pTextTail->pTextInstance)

  00004	8b 75 08	 mov	 esi, DWORD PTR _pTextTail$[ebp]
  00007	57		 push	 edi
  00008	8b f9		 mov	 edi, ecx
  0000a	8b 46 04	 mov	 eax, DWORD PTR [esi+4]
  0000d	85 c0		 test	 eax, eax
  0000f	74 10		 je	 SHORT $LN2@DeleteText

; 828  : 	{
; 829  : 		CGraphicTextInstance::Delete(pTextTail->pTextInstance);

  00011	50		 push	 eax
  00012	e8 00 00 00 00	 call	 ?Delete@CGraphicTextInstance@@SAXPAV1@@Z ; CGraphicTextInstance::Delete
  00017	83 c4 04	 add	 esp, 4

; 830  : 		pTextTail->pTextInstance = NULL;

  0001a	c7 46 04 00 00
	00 00		 mov	 DWORD PTR [esi+4], 0
$LN2@DeleteText:

; 831  : 	}
; 832  : 	if (pTextTail->pOwnerTextInstance)

  00021	8b 46 08	 mov	 eax, DWORD PTR [esi+8]
  00024	85 c0		 test	 eax, eax
  00026	74 10		 je	 SHORT $LN3@DeleteText

; 833  : 	{
; 834  : 		CGraphicTextInstance::Delete(pTextTail->pOwnerTextInstance);

  00028	50		 push	 eax
  00029	e8 00 00 00 00	 call	 ?Delete@CGraphicTextInstance@@SAXPAV1@@Z ; CGraphicTextInstance::Delete
  0002e	83 c4 04	 add	 esp, 4

; 835  : 		pTextTail->pOwnerTextInstance = NULL;

  00031	c7 46 08 00 00
	00 00		 mov	 DWORD PTR [esi+8], 0
$LN3@DeleteText:

; 836  : 	}
; 837  : 	if (pTextTail->pMarkInstance)

  00038	8b 46 0c	 mov	 eax, DWORD PTR [esi+12]
  0003b	85 c0		 test	 eax, eax
  0003d	74 10		 je	 SHORT $LN4@DeleteText

; 838  : 	{
; 839  : 		CGraphicMarkInstance::Delete(pTextTail->pMarkInstance);

  0003f	50		 push	 eax
  00040	e8 00 00 00 00	 call	 ?Delete@CGraphicMarkInstance@@SAXPAV1@@Z ; CGraphicMarkInstance::Delete
  00045	83 c4 04	 add	 esp, 4

; 840  : 		pTextTail->pMarkInstance = NULL;

  00048	c7 46 0c 00 00
	00 00		 mov	 DWORD PTR [esi+12], 0
$LN4@DeleteText:

; 841  : 	}
; 842  : 	if (pTextTail->pGuildNameTextInstance)

  0004f	8b 46 10	 mov	 eax, DWORD PTR [esi+16]
  00052	85 c0		 test	 eax, eax
  00054	74 10		 je	 SHORT $LN5@DeleteText

; 843  : 	{
; 844  : 		CGraphicTextInstance::Delete(pTextTail->pGuildNameTextInstance);

  00056	50		 push	 eax
  00057	e8 00 00 00 00	 call	 ?Delete@CGraphicTextInstance@@SAXPAV1@@Z ; CGraphicTextInstance::Delete
  0005c	83 c4 04	 add	 esp, 4

; 845  : 		pTextTail->pGuildNameTextInstance = NULL;

  0005f	c7 46 10 00 00
	00 00		 mov	 DWORD PTR [esi+16], 0
$LN5@DeleteText:

; 846  : 	}
; 847  : 	if (pTextTail->pTitleTextInstance)

  00066	8b 46 14	 mov	 eax, DWORD PTR [esi+20]
  00069	85 c0		 test	 eax, eax
  0006b	74 10		 je	 SHORT $LN6@DeleteText

; 848  : 	{
; 849  : 		CGraphicTextInstance::Delete(pTextTail->pTitleTextInstance);

  0006d	50		 push	 eax
  0006e	e8 00 00 00 00	 call	 ?Delete@CGraphicTextInstance@@SAXPAV1@@Z ; CGraphicTextInstance::Delete
  00073	83 c4 04	 add	 esp, 4

; 850  : 		pTextTail->pTitleTextInstance = NULL;

  00076	c7 46 14 00 00
	00 00		 mov	 DWORD PTR [esi+20], 0
$LN6@DeleteText:

; 851  : 	}
; 852  : 	if (pTextTail->pLevelTextInstance)

  0007d	8b 46 18	 mov	 eax, DWORD PTR [esi+24]
  00080	85 c0		 test	 eax, eax
  00082	74 10		 je	 SHORT $LN7@DeleteText

; 853  : 	{
; 854  : 		CGraphicTextInstance::Delete(pTextTail->pLevelTextInstance);

  00084	50		 push	 eax
  00085	e8 00 00 00 00	 call	 ?Delete@CGraphicTextInstance@@SAXPAV1@@Z ; CGraphicTextInstance::Delete
  0008a	83 c4 04	 add	 esp, 4

; 855  : 		pTextTail->pLevelTextInstance = NULL;

  0008d	c7 46 18 00 00
	00 00		 mov	 DWORD PTR [esi+24], 0
$LN7@DeleteText:
; File C:\Program Files (x86)\Microsoft Visual Studio\2019\Community\VC\Tools\MSVC\14.28.29333\include\vector

; 704  :         if (_Mylast != _My_data._Myend) {

  00094	8b 47 40	 mov	 eax, DWORD PTR [edi+64]
; File D:\Metin2 Server Files\mainline\SRC_2014\Metin2Client\eterLib\Pool.h

; 81   : 			m_kVct_pkFree.push_back(pkData);

  00097	8d 4f 3c	 lea	 ecx, DWORD PTR [edi+60]
; File D:\Metin2 Server Files\mainline\SRC_2014\Metin2Client\UserInterface\PythonTextTail.cpp

; 858  : 	m_TextTailPool.Free(pTextTail);	

  0009a	89 75 08	 mov	 DWORD PTR _pkData$[ebp], esi
; File C:\Program Files (x86)\Microsoft Visual Studio\2019\Community\VC\Tools\MSVC\14.28.29333\include\vector

; 704  :         if (_Mylast != _My_data._Myend) {

  0009d	3b 41 08	 cmp	 eax, DWORD PTR [ecx+8]
  000a0	74 0c		 je	 SHORT $LN14@DeleteText

; 687  :         _Alty_traits::construct(_Getal(), _Unfancy(_Mylast), _STD forward<_Valty>(_Val)...);

  000a2	89 30		 mov	 DWORD PTR [eax], esi

; 688  :         _Orphan_range(_Mylast, _Mylast);
; 689  :         _Ty& _Result = *_Mylast;
; 690  :         ++_Mylast;

  000a4	83 41 04 04	 add	 DWORD PTR [ecx+4], 4
  000a8	5f		 pop	 edi
; File D:\Metin2 Server Files\mainline\SRC_2014\Metin2Client\UserInterface\PythonTextTail.cpp

; 859  : }

  000a9	5e		 pop	 esi
  000aa	5d		 pop	 ebp
  000ab	c2 04 00	 ret	 4
$LN14@DeleteText:
; File C:\Program Files (x86)\Microsoft Visual Studio\2019\Community\VC\Tools\MSVC\14.28.29333\include\vector

; 708  :         _Ty& _Result = *_Emplace_reallocate(_Mylast, _STD forward<_Valty>(_Val)...);

  000ae	8d 55 08	 lea	 edx, DWORD PTR _pkData$[ebp]
  000b1	52		 push	 edx
  000b2	50		 push	 eax
  000b3	e8 00 00 00 00	 call	 ??$_Emplace_reallocate@ABQAUSTextTail@CPythonTextTail@@@?$vector@PAUSTextTail@CPythonTextTail@@V?$allocator@PAUSTextTail@CPythonTextTail@@@std@@@std@@QAEPAPAUSTextTail@CPythonTextTail@@QAPAU23@ABQAU23@@Z ; std::vector<CPythonTextTail::STextTail *,std::allocator<CPythonTextTail::STextTail *> >::_Emplace_reallocate<CPythonTextTail::STextTail * const &>
  000b8	5f		 pop	 edi
; File D:\Metin2 Server Files\mainline\SRC_2014\Metin2Client\UserInterface\PythonTextTail.cpp

; 859  : }

  000b9	5e		 pop	 esi
  000ba	5d		 pop	 ebp
  000bb	c2 04 00	 ret	 4
?DeleteTextTail@CPythonTextTail@@IAEXPAUSTextTail@1@@Z ENDP ; CPythonTextTail::DeleteTextTail
_TEXT	ENDS
; Function compile flags: /Ogtp
; File D:\Metin2 Server Files\mainline\SRC_2014\Metin2Client\UserInterface\PythonTextTail.cpp
; File C:\Program Files (x86)\Microsoft Visual Studio\2019\Community\VC\Tools\MSVC\14.28.29333\include\vector
; File D:\Metin2 Server Files\mainline\SRC_2014\Metin2Client\eterLib\Pool.h
; File D:\Metin2 Server Files\mainline\SRC_2014\Metin2Client\UserInterface\PythonTextTail.h
; File D:\Metin2 Server Files\mainline\SRC_2014\Metin2Client\eterLib\Pool.h
; File C:\Program Files (x86)\Microsoft Visual Studio\2019\Community\VC\Tools\MSVC\14.28.29333\include\vector
; File D:\Metin2 Server Files\mainline\SRC_2014\Metin2Client\eterLib\Pool.h
; File C:\Program Files (x86)\Microsoft Visual Studio\2019\Community\VC\Tools\MSVC\14.28.29333\include\vector
; File D:\Metin2 Server Files\mainline\SRC_2014\Metin2Client\eterLib\Pool.h
; File C:\Program Files (x86)\Microsoft Visual Studio\2019\Community\VC\Tools\MSVC\14.28.29333\include\vector
; File D:\Metin2 Server Files\mainline\SRC_2014\Metin2Client\eterLib\Pool.h
; File C:\Program Files (x86)\Microsoft Visual Studio\2019\Community\VC\Tools\MSVC\14.28.29333\include\vector
; File D:\Metin2 Server Files\mainline\SRC_2014\Metin2Client\eterLib\Pool.h
; File C:\Program Files (x86)\Microsoft Visual Studio\2019\Community\VC\Tools\MSVC\14.28.29333\include\vector
; File D:\Metin2 Server Files\mainline\SRC_2014\Metin2Client\UserInterface\PythonTextTail.cpp
;	COMDAT ?RegisterTextTail@CPythonTextTail@@IAEPAUSTextTail@1@KPBDPAVCGraphicObjectInstance@@MABUD3DXCOLOR@@@Z
_TEXT	SEGMENT
_ySize$ = -12						; size = 4
$T1 = -8						; size = 4
_pkNewData$2 = -8					; size = 4
_xSize$ = -4						; size = 4
_dwVirtualID$ = 8					; size = 4
_c_szText$ = 12						; size = 4
_pOwner$ = 16						; size = 4
_fHeight$ = 20						; size = 4
_c_rColor$ = 24						; size = 4
?RegisterTextTail@CPythonTextTail@@IAEPAUSTextTail@1@KPBDPAVCGraphicObjectInstance@@MABUD3DXCOLOR@@@Z PROC ; CPythonTextTail::RegisterTextTail, COMDAT
; _this$ = ecx

; 792  : {

  00000	55		 push	 ebp
  00001	8b ec		 mov	 ebp, esp
  00003	83 ec 0c	 sub	 esp, 12			; 0000000cH
  00006	56		 push	 esi
  00007	8b f1		 mov	 esi, ecx
  00009	57		 push	 edi
; File C:\Program Files (x86)\Microsoft Visual Studio\2019\Community\VC\Tools\MSVC\14.28.29333\include\vector

; 1479 :         return _My_data._Myfirst == _My_data._Mylast;

  0000a	8b 46 3c	 mov	 eax, DWORD PTR [esi+60]
  0000d	3b 46 40	 cmp	 eax, DWORD PTR [esi+64]
; File D:\Metin2 Server Files\mainline\SRC_2014\Metin2Client\eterLib\Pool.h

; 63   : 			if (m_kVct_pkFree.empty())

  00010	75 45		 jne	 SHORT $LN4@RegisterTe

; 65   : 				T* pkNewData=new T;

  00012	6a 60		 push	 96			; 00000060H
  00014	e8 00 00 00 00	 call	 ??2@YAPAXI@Z		; operator new
  00019	8b f8		 mov	 edi, eax
  0001b	83 c4 04	 add	 esp, 4
  0001e	89 7d f8	 mov	 DWORD PTR $T1[ebp], edi
  00021	85 ff		 test	 edi, edi
  00023	74 08		 je	 SHORT $LN6@RegisterTe
; File D:\Metin2 Server Files\mainline\SRC_2014\Metin2Client\UserInterface\PythonTextTail.h

; 41   : 			STextTail() {}

  00025	c7 07 00 00 00
	00		 mov	 DWORD PTR [edi], OFFSET ??_7STextTail@CPythonTextTail@@6B@
; File D:\Metin2 Server Files\mainline\SRC_2014\Metin2Client\eterLib\Pool.h

; 65   : 				T* pkNewData=new T;

  0002b	eb 02		 jmp	 SHORT $LN7@RegisterTe
$LN6@RegisterTe:
  0002d	33 ff		 xor	 edi, edi
$LN7@RegisterTe:
; File C:\Program Files (x86)\Microsoft Visual Studio\2019\Community\VC\Tools\MSVC\14.28.29333\include\vector

; 704  :         if (_Mylast != _My_data._Myend) {

  0002f	8b 46 34	 mov	 eax, DWORD PTR [esi+52]
; File D:\Metin2 Server Files\mainline\SRC_2014\Metin2Client\eterLib\Pool.h

; 66   : 				m_kVct_pkData.push_back(pkNewData);

  00032	8d 4e 30	 lea	 ecx, DWORD PTR [esi+48]
  00035	89 7d f8	 mov	 DWORD PTR _pkNewData$2[ebp], edi
; File C:\Program Files (x86)\Microsoft Visual Studio\2019\Community\VC\Tools\MSVC\14.28.29333\include\vector

; 704  :         if (_Mylast != _My_data._Myend) {

  00038	3b 46 38	 cmp	 eax, DWORD PTR [esi+56]
  0003b	74 0b		 je	 SHORT $LN16@RegisterTe

; 687  :         _Alty_traits::construct(_Getal(), _Unfancy(_Mylast), _STD forward<_Valty>(_Val)...);

  0003d	89 38		 mov	 DWORD PTR [eax], edi

; 688  :         _Orphan_range(_Mylast, _Mylast);
; 689  :         _Ty& _Result = *_Mylast;
; 690  :         ++_Mylast;

  0003f	83 41 04 04	 add	 DWORD PTR [ecx+4], 4
; File D:\Metin2 Server Files\mainline\SRC_2014\Metin2Client\eterLib\Pool.h

; 67   : 				++m_uUsedCapacity;

  00043	ff 46 4c	 inc	 DWORD PTR [esi+76]

; 68   : 				return pkNewData;

  00046	eb 1a		 jmp	 SHORT $LN3@RegisterTe
$LN16@RegisterTe:
; File C:\Program Files (x86)\Microsoft Visual Studio\2019\Community\VC\Tools\MSVC\14.28.29333\include\vector

; 708  :         _Ty& _Result = *_Emplace_reallocate(_Mylast, _STD forward<_Valty>(_Val)...);

  00048	8d 55 f8	 lea	 edx, DWORD PTR _pkNewData$2[ebp]
  0004b	52		 push	 edx
  0004c	50		 push	 eax
  0004d	e8 00 00 00 00	 call	 ??$_Emplace_reallocate@ABQAUSTextTail@CPythonTextTail@@@?$vector@PAUSTextTail@CPythonTextTail@@V?$allocator@PAUSTextTail@CPythonTextTail@@@std@@@std@@QAEPAPAUSTextTail@CPythonTextTail@@QAPAU23@ABQAU23@@Z ; std::vector<CPythonTextTail::STextTail *,std::allocator<CPythonTextTail::STextTail *> >::_Emplace_reallocate<CPythonTextTail::STextTail * const &>
; File D:\Metin2 Server Files\mainline\SRC_2014\Metin2Client\eterLib\Pool.h

; 67   : 				++m_uUsedCapacity;

  00052	ff 46 4c	 inc	 DWORD PTR [esi+76]

; 68   : 				return pkNewData;

  00055	eb 0b		 jmp	 SHORT $LN3@RegisterTe
$LN4@RegisterTe:
; File C:\Program Files (x86)\Microsoft Visual Studio\2019\Community\VC\Tools\MSVC\14.28.29333\include\vector

; 1559 :         return _My_data._Mylast[-1];

  00057	8b 46 40	 mov	 eax, DWORD PTR [esi+64]
  0005a	83 c0 fc	 add	 eax, -4			; fffffffcH
; File D:\Metin2 Server Files\mainline\SRC_2014\Metin2Client\eterLib\Pool.h

; 71   : 			T* pkFreeData=m_kVct_pkFree.back();

  0005d	8b 38		 mov	 edi, DWORD PTR [eax]
; File C:\Program Files (x86)\Microsoft Visual Studio\2019\Community\VC\Tools\MSVC\14.28.29333\include\vector

; 1338 :         --_Mylast;

  0005f	89 46 40	 mov	 DWORD PTR [esi+64], eax
$LN3@RegisterTe:
; File D:\Metin2 Server Files\mainline\SRC_2014\Metin2Client\UserInterface\PythonTextTail.cpp

; 795  : 	pTextTail->dwVirtualID = dwVirtualID;

  00062	8b 45 08	 mov	 eax, DWORD PTR _dwVirtualID$[ebp]
  00065	89 47 20	 mov	 DWORD PTR [edi+32], eax

; 796  : 	pTextTail->pOwner = pOwner;

  00068	8b 45 10	 mov	 eax, DWORD PTR _pOwner$[ebp]
  0006b	89 47 1c	 mov	 DWORD PTR [edi+28], eax

; 797  : 	pTextTail->pTextInstance = CGraphicTextInstance::New();

  0006e	e8 00 00 00 00	 call	 ?New@CGraphicTextInstance@@SAPAV1@XZ ; CGraphicTextInstance::New

; 798  : 	pTextTail->pOwnerTextInstance = NULL;
; 799  : 	pTextTail->fHeight = fHeight;

  00073	f3 0f 10 45 14	 movss	 xmm0, DWORD PTR _fHeight$[ebp]

; 800  : 
; 801  : 	pTextTail->pTextInstance->SetTextPointer(ms_pFont);

  00078	8b c8		 mov	 ecx, eax
  0007a	89 47 04	 mov	 DWORD PTR [edi+4], eax
  0007d	c7 47 08 00 00
	00 00		 mov	 DWORD PTR [edi+8], 0
  00084	f3 0f 11 47 5c	 movss	 DWORD PTR [edi+92], xmm0
  00089	ff 35 00 00 00
	00		 push	 DWORD PTR ?ms_pFont@@3PAVCGraphicText@@A ; ms_pFont
  0008f	e8 00 00 00 00	 call	 ?SetTextPointer@CGraphicTextInstance@@QAEXPAVCGraphicText@@@Z ; CGraphicTextInstance::SetTextPointer

; 802  : 	pTextTail->pTextInstance->SetHorizonalAlign(CGraphicTextInstance::HORIZONTAL_ALIGN_CENTER);

  00094	8b 4f 04	 mov	 ecx, DWORD PTR [edi+4]
  00097	6a 02		 push	 2
  00099	e8 00 00 00 00	 call	 ?SetHorizonalAlign@CGraphicTextInstance@@QAEXH@Z ; CGraphicTextInstance::SetHorizonalAlign

; 803  : 	pTextTail->pTextInstance->SetValue(c_szText);

  0009e	8b 4f 04	 mov	 ecx, DWORD PTR [edi+4]
  000a1	6a ff		 push	 -1
  000a3	ff 75 0c	 push	 DWORD PTR _c_szText$[ebp]
  000a6	e8 00 00 00 00	 call	 ?SetValue@CGraphicTextInstance@@QAEXPBDI@Z ; CGraphicTextInstance::SetValue

; 804  : 	pTextTail->pTextInstance->SetColor(c_rColor.r, c_rColor.g, c_rColor.b);

  000ab	8b 75 18	 mov	 esi, DWORD PTR _c_rColor$[ebp]
  000ae	83 ec 10	 sub	 esp, 16			; 00000010H
  000b1	8b 4f 04	 mov	 ecx, DWORD PTR [edi+4]
  000b4	f3 0f 10 46 08	 movss	 xmm0, DWORD PTR [esi+8]
  000b9	c7 44 24 0c 00
	00 80 3f	 mov	 DWORD PTR [esp+12], 1065353216 ; 3f800000H
  000c1	f3 0f 11 44 24
	08		 movss	 DWORD PTR [esp+8], xmm0
  000c7	f3 0f 10 46 04	 movss	 xmm0, DWORD PTR [esi+4]
  000cc	f3 0f 11 44 24
	04		 movss	 DWORD PTR [esp+4], xmm0
  000d2	f3 0f 10 06	 movss	 xmm0, DWORD PTR [esi]
  000d6	f3 0f 11 04 24	 movss	 DWORD PTR [esp], xmm0
  000db	e8 00 00 00 00	 call	 ?SetColor@CGraphicTextInstance@@QAEXMMMM@Z ; CGraphicTextInstance::SetColor

; 805  : 	pTextTail->pTextInstance->Update();

  000e0	8b 4f 04	 mov	 ecx, DWORD PTR [edi+4]
  000e3	e8 00 00 00 00	 call	 ?Update@CGraphicTextInstance@@QAEXXZ ; CGraphicTextInstance::Update

; 806  : 
; 807  : 	int xSize, ySize;
; 808  : 	pTextTail->pTextInstance->GetTextSize(&xSize, &ySize);

  000e8	8b 4f 04	 mov	 ecx, DWORD PTR [edi+4]
  000eb	8d 45 f4	 lea	 eax, DWORD PTR _ySize$[ebp]
  000ee	50		 push	 eax
  000ef	8d 45 fc	 lea	 eax, DWORD PTR _xSize$[ebp]
  000f2	50		 push	 eax
  000f3	e8 00 00 00 00	 call	 ?GetTextSize@CGraphicTextInstance@@QAEXPAH0@Z ; CGraphicTextInstance::GetTextSize

; 809  : 	pTextTail->xStart				= (float) (-xSize / 2 - 2);

  000f8	8b 45 fc	 mov	 eax, DWORD PTR _xSize$[ebp]
  000fb	99		 cdq
  000fc	2b c2		 sub	 eax, edx

; 810  : 	pTextTail->yStart				= -2.0f;

  000fe	c7 47 4c 00 00
	00 c0		 mov	 DWORD PTR [edi+76], -1073741824 ; c0000000H
  00105	8b c8		 mov	 ecx, eax
  00107	b8 fe ff ff ff	 mov	 eax, -2			; fffffffeH
  0010c	d1 f9		 sar	 ecx, 1
  0010e	2b c1		 sub	 eax, ecx
  00110	66 0f 6e c0	 movd	 xmm0, eax
  00114	0f 5b c0	 cvtdq2ps xmm0, xmm0
  00117	f3 0f 11 47 48	 movss	 DWORD PTR [edi+72], xmm0

; 811  : 	pTextTail->xEnd					= (float) (xSize / 2 + 2);

  0011c	8b 45 fc	 mov	 eax, DWORD PTR _xSize$[ebp]
  0011f	99		 cdq
  00120	2b c2		 sub	 eax, edx
  00122	d1 f8		 sar	 eax, 1
  00124	83 c0 02	 add	 eax, 2
  00127	66 0f 6e c0	 movd	 xmm0, eax

; 812  : 	pTextTail->yEnd					= (float) ySize;
; 813  : 	pTextTail->Color				= c_rColor;
; 814  : 	pTextTail->fDistanceFromPlayer	= 0.0f;
; 815  : 	pTextTail->x = -100.0f;
; 816  : 	pTextTail->y = -100.0f;
; 817  : 	pTextTail->z = 0.0f;
; 818  : 	pTextTail->pMarkInstance = NULL;
; 819  : 	pTextTail->pGuildNameTextInstance = NULL;
; 820  : 	pTextTail->pTitleTextInstance = NULL;
; 821  : 	pTextTail->pLevelTextInstance = NULL;
; 822  : 	return pTextTail;

  0012b	8b c7		 mov	 eax, edi
  0012d	0f 5b c0	 cvtdq2ps xmm0, xmm0
  00130	f3 0f 11 47 50	 movss	 DWORD PTR [edi+80], xmm0
  00135	66 0f 6e 45 f4	 movd	 xmm0, DWORD PTR _ySize$[ebp]
  0013a	0f 5b c0	 cvtdq2ps xmm0, xmm0
  0013d	f3 0f 11 47 54	 movss	 DWORD PTR [edi+84], xmm0
  00142	0f 10 06	 movups	 xmm0, XMMWORD PTR [esi]
  00145	c7 47 30 00 00
	00 00		 mov	 DWORD PTR [edi+48], 0
  0014c	c7 47 24 00 00
	c8 c2		 mov	 DWORD PTR [edi+36], -1027080192 ; c2c80000H
  00153	0f 11 47 34	 movups	 XMMWORD PTR [edi+52], xmm0
  00157	c7 47 28 00 00
	c8 c2		 mov	 DWORD PTR [edi+40], -1027080192 ; c2c80000H
  0015e	c7 47 2c 00 00
	00 00		 mov	 DWORD PTR [edi+44], 0
  00165	c7 47 0c 00 00
	00 00		 mov	 DWORD PTR [edi+12], 0
  0016c	c7 47 10 00 00
	00 00		 mov	 DWORD PTR [edi+16], 0
  00173	c7 47 14 00 00
	00 00		 mov	 DWORD PTR [edi+20], 0
  0017a	c7 47 18 00 00
	00 00		 mov	 DWORD PTR [edi+24], 0
  00181	5f		 pop	 edi
  00182	5e		 pop	 esi

; 823  : }

  00183	8b e5		 mov	 esp, ebp
  00185	5d		 pop	 ebp
  00186	c2 14 00	 ret	 20			; 00000014H
?RegisterTextTail@CPythonTextTail@@IAEPAUSTextTail@1@KPBDPAVCGraphicObjectInstance@@MABUD3DXCOLOR@@@Z ENDP ; CPythonTextTail::RegisterTextTail
_TEXT	ENDS
; Function compile flags: /Ogtp
; File D:\Metin2 Server Files\mainline\SRC_2014\Metin2Client\UserInterface\PythonTextTail.cpp
; File C:\Program Files (x86)\Microsoft Visual Studio\2019\Community\VC\Tools\MSVC\14.28.29333\include\xtree
; File D:\Metin2 Server Files\mainline\SRC_2014\Metin2Client\UserInterface\PythonTextTail.cpp
; File C:\Program Files (x86)\Microsoft Visual Studio\2019\Community\VC\Tools\MSVC\14.28.29333\include\xtree
; File C:\Program Files (x86)\Microsoft Visual Studio\2019\Community\VC\Tools\MSVC\14.28.29333\include\xstddef
; File C:\Program Files (x86)\Microsoft Visual Studio\2019\Community\VC\Tools\MSVC\14.28.29333\include\xtree
; File D:\Metin2 Server Files\mainline\SRC_2014\Metin2Client\UserInterface\PythonTextTail.cpp
;	COMDAT ?DetachLevel@CPythonTextTail@@QAEXK@Z
_TEXT	SEGMENT
__Loc$1 = -12						; size = 12
_dwVID$ = 8						; size = 4
?DetachLevel@CPythonTextTail@@QAEXK@Z PROC		; CPythonTextTail::DetachLevel, COMDAT
; _this$ = ecx

; 970  : {

  00000	55		 push	 ebp
  00001	8b ec		 mov	 ebp, esp
  00003	83 ec 0c	 sub	 esp, 12			; 0000000cH

; 971  : 	if (!bPKTitleEnable)

  00006	83 3d 00 00 00
	00 00		 cmp	 DWORD PTR ?bPKTitleEnable@@3HA, 0 ; bPKTitleEnable
  0000d	74 43		 je	 SHORT $LN4@DetachLeve

; 974  : 	TTextTailMap::iterator itor = m_CharacterTextTailMap.find(dwVID);

  0000f	56		 push	 esi
; File C:\Program Files (x86)\Microsoft Visual Studio\2019\Community\VC\Tools\MSVC\14.28.29333\include\xtree

; 1458 :         const _Tree_find_result<_Nodeptr> _Loc = _Find_lower_bound(_Keyval);

  00010	8d 45 08	 lea	 eax, DWORD PTR _dwVID$[ebp]
  00013	50		 push	 eax
; File D:\Metin2 Server Files\mainline\SRC_2014\Metin2Client\UserInterface\PythonTextTail.cpp

; 974  : 	TTextTailMap::iterator itor = m_CharacterTextTailMap.find(dwVID);

  00014	8d 71 04	 lea	 esi, DWORD PTR [ecx+4]
; File C:\Program Files (x86)\Microsoft Visual Studio\2019\Community\VC\Tools\MSVC\14.28.29333\include\xtree

; 1458 :         const _Tree_find_result<_Nodeptr> _Loc = _Find_lower_bound(_Keyval);

  00017	8d 45 f4	 lea	 eax, DWORD PTR __Loc$1[ebp]
  0001a	8b ce		 mov	 ecx, esi
  0001c	50		 push	 eax
  0001d	e8 00 00 00 00	 call	 ??$_Find_lower_bound@K@?$_Tree@V?$_Tmap_traits@KPAUSTextTail@CPythonTextTail@@U?$less@K@std@@V?$allocator@U?$pair@$$CBKPAUSTextTail@CPythonTextTail@@@std@@@4@$0A@@std@@@std@@IBE?AU?$_Tree_find_result@PAU?$_Tree_node@U?$pair@$$CBKPAUSTextTail@CPythonTextTail@@@std@@PAX@std@@@1@ABK@Z ; std::_Tree<std::_Tmap_traits<unsigned long,CPythonTextTail::STextTail *,std::less<unsigned long>,std::allocator<std::pair<unsigned long const ,CPythonTextTail::STextTail *> >,0> >::_Find_lower_bound<unsigned long>

; 1695 :         return !_Bound->_Isnil && !_DEBUG_LT_PRED(_Getcomp(), _Keyval, _Traits::_Kfn(_Bound->_Myval));

  00022	8b 4d fc	 mov	 ecx, DWORD PTR __Loc$1[ebp+8]
  00025	80 79 0d 00	 cmp	 BYTE PTR [ecx+13], 0
  00029	75 26		 jne	 SHORT $LN40@DetachLeve
; File C:\Program Files (x86)\Microsoft Visual Studio\2019\Community\VC\Tools\MSVC\14.28.29333\include\xstddef

; 127  :         return _Left < _Right;

  0002b	8b 45 08	 mov	 eax, DWORD PTR _dwVID$[ebp]
  0002e	3b 41 10	 cmp	 eax, DWORD PTR [ecx+16]
; File C:\Program Files (x86)\Microsoft Visual Studio\2019\Community\VC\Tools\MSVC\14.28.29333\include\xtree

; 1695 :         return !_Bound->_Isnil && !_DEBUG_LT_PRED(_Getcomp(), _Keyval, _Traits::_Kfn(_Bound->_Myval));

  00031	72 1e		 jb	 SHORT $LN40@DetachLeve

; 232  :         return this->_Ptr == _Right._Ptr;

  00033	39 0e		 cmp	 DWORD PTR [esi], ecx
; File D:\Metin2 Server Files\mainline\SRC_2014\Metin2Client\UserInterface\PythonTextTail.cpp

; 975  : 	if (m_CharacterTextTailMap.end() == itor)

  00035	74 1a		 je	 SHORT $LN40@DetachLeve

; 976  : 		return;
; 977  : 
; 978  : 	TTextTail * pTextTail = itor->second;

  00037	8b 71 14	 mov	 esi, DWORD PTR [ecx+20]

; 979  : 
; 980  : 	if (pTextTail->pLevelTextInstance)

  0003a	8b 46 18	 mov	 eax, DWORD PTR [esi+24]
  0003d	85 c0		 test	 eax, eax
  0003f	74 10		 je	 SHORT $LN40@DetachLeve

; 981  : 	{
; 982  : 		CGraphicTextInstance::Delete(pTextTail->pLevelTextInstance);

  00041	50		 push	 eax
  00042	e8 00 00 00 00	 call	 ?Delete@CGraphicTextInstance@@SAXPAV1@@Z ; CGraphicTextInstance::Delete
  00047	83 c4 04	 add	 esp, 4

; 983  : 		pTextTail->pLevelTextInstance = NULL;

  0004a	c7 46 18 00 00
	00 00		 mov	 DWORD PTR [esi+24], 0
$LN40@DetachLeve:
  00051	5e		 pop	 esi
$LN4@DetachLeve:

; 984  : 	}
; 985  : }

  00052	8b e5		 mov	 esp, ebp
  00054	5d		 pop	 ebp
  00055	c2 04 00	 ret	 4
?DetachLevel@CPythonTextTail@@QAEXK@Z ENDP		; CPythonTextTail::DetachLevel
_TEXT	ENDS
; Function compile flags: /Ogtp
; File D:\Metin2 Server Files\mainline\SRC_2014\Metin2Client\UserInterface\PythonTextTail.cpp
; File C:\Program Files (x86)\Microsoft Visual Studio\2019\Community\VC\Tools\MSVC\14.28.29333\include\xtree
; File D:\Metin2 Server Files\mainline\SRC_2014\Metin2Client\UserInterface\PythonTextTail.cpp
; File C:\Program Files (x86)\Microsoft Visual Studio\2019\Community\VC\Tools\MSVC\14.28.29333\include\xtree
; File C:\Program Files (x86)\Microsoft Visual Studio\2019\Community\VC\Tools\MSVC\14.28.29333\include\xstddef
; File C:\Program Files (x86)\Microsoft Visual Studio\2019\Community\VC\Tools\MSVC\14.28.29333\include\xtree
; File D:\Metin2 Server Files\mainline\SRC_2014\Metin2Client\UserInterface\PythonTextTail.cpp
;	COMDAT ?AttachLevel@CPythonTextTail@@QAEXKPBDABUD3DXCOLOR@@@Z
_TEXT	SEGMENT
__Loc$1 = -12						; size = 12
_dwVID$ = 8						; size = 4
_c_szText$ = 12						; size = 4
_c_rColor$ = 16						; size = 4
?AttachLevel@CPythonTextTail@@QAEXKPBDABUD3DXCOLOR@@@Z PROC ; CPythonTextTail::AttachLevel, COMDAT
; _this$ = ecx

; 943  : {

  00000	55		 push	 ebp
  00001	8b ec		 mov	 ebp, esp
  00003	83 ec 0c	 sub	 esp, 12			; 0000000cH

; 944  : 	if (!bPKTitleEnable)

  00006	83 3d 00 00 00
	00 00		 cmp	 DWORD PTR ?bPKTitleEnable@@3HA, 0 ; bPKTitleEnable
  0000d	0f 84 be 00 00
	00		 je	 $LN1@AttachLeve

; 947  : 	TTextTailMap::iterator itor = m_CharacterTextTailMap.find(dwVID);

  00013	56		 push	 esi
  00014	57		 push	 edi
; File C:\Program Files (x86)\Microsoft Visual Studio\2019\Community\VC\Tools\MSVC\14.28.29333\include\xtree

; 1458 :         const _Tree_find_result<_Nodeptr> _Loc = _Find_lower_bound(_Keyval);

  00015	8d 45 08	 lea	 eax, DWORD PTR _dwVID$[ebp]
  00018	50		 push	 eax
; File D:\Metin2 Server Files\mainline\SRC_2014\Metin2Client\UserInterface\PythonTextTail.cpp

; 947  : 	TTextTailMap::iterator itor = m_CharacterTextTailMap.find(dwVID);

  00019	8d 79 04	 lea	 edi, DWORD PTR [ecx+4]
; File C:\Program Files (x86)\Microsoft Visual Studio\2019\Community\VC\Tools\MSVC\14.28.29333\include\xtree

; 1458 :         const _Tree_find_result<_Nodeptr> _Loc = _Find_lower_bound(_Keyval);

  0001c	8d 45 f4	 lea	 eax, DWORD PTR __Loc$1[ebp]
  0001f	8b cf		 mov	 ecx, edi
  00021	50		 push	 eax
  00022	e8 00 00 00 00	 call	 ??$_Find_lower_bound@K@?$_Tree@V?$_Tmap_traits@KPAUSTextTail@CPythonTextTail@@U?$less@K@std@@V?$allocator@U?$pair@$$CBKPAUSTextTail@CPythonTextTail@@@std@@@4@$0A@@std@@@std@@IBE?AU?$_Tree_find_result@PAU?$_Tree_node@U?$pair@$$CBKPAUSTextTail@CPythonTextTail@@@std@@PAX@std@@@1@ABK@Z ; std::_Tree<std::_Tmap_traits<unsigned long,CPythonTextTail::STextTail *,std::less<unsigned long>,std::allocator<std::pair<unsigned long const ,CPythonTextTail::STextTail *> >,0> >::_Find_lower_bound<unsigned long>

; 1695 :         return !_Bound->_Isnil && !_DEBUG_LT_PRED(_Getcomp(), _Keyval, _Traits::_Kfn(_Bound->_Myval));

  00027	8b 75 fc	 mov	 esi, DWORD PTR __Loc$1[ebp+8]
  0002a	80 7e 0d 00	 cmp	 BYTE PTR [esi+13], 0
  0002e	0f 85 9b 00 00
	00		 jne	 $LN40@AttachLeve
; File C:\Program Files (x86)\Microsoft Visual Studio\2019\Community\VC\Tools\MSVC\14.28.29333\include\xstddef

; 127  :         return _Left < _Right;

  00034	8b 45 08	 mov	 eax, DWORD PTR _dwVID$[ebp]
  00037	3b 46 10	 cmp	 eax, DWORD PTR [esi+16]
; File C:\Program Files (x86)\Microsoft Visual Studio\2019\Community\VC\Tools\MSVC\14.28.29333\include\xtree

; 1695 :         return !_Bound->_Isnil && !_DEBUG_LT_PRED(_Getcomp(), _Keyval, _Traits::_Kfn(_Bound->_Myval));

  0003a	0f 82 8f 00 00
	00		 jb	 $LN40@AttachLeve

; 232  :         return this->_Ptr == _Right._Ptr;

  00040	39 37		 cmp	 DWORD PTR [edi], esi
; File D:\Metin2 Server Files\mainline\SRC_2014\Metin2Client\UserInterface\PythonTextTail.cpp

; 948  : 	if (m_CharacterTextTailMap.end() == itor)

  00042	0f 84 87 00 00
	00		 je	 $LN40@AttachLeve

; 949  : 		return;
; 950  : 
; 951  : 	TTextTail * pTextTail = itor->second;
; 952  : 
; 953  : 	CGraphicTextInstance *& prLevel = pTextTail->pLevelTextInstance;

  00048	8b 76 14	 mov	 esi, DWORD PTR [esi+20]

; 954  : 	if (!prLevel)

  0004b	8b 4e 18	 mov	 ecx, DWORD PTR [esi+24]
  0004e	85 c9		 test	 ecx, ecx
  00050	75 36		 jne	 SHORT $LN4@AttachLeve

; 955  : 	{
; 956  : 		prLevel = CGraphicTextInstance::New();

  00052	e8 00 00 00 00	 call	 ?New@CGraphicTextInstance@@SAPAV1@XZ ; CGraphicTextInstance::New
  00057	89 46 18	 mov	 DWORD PTR [esi+24], eax

; 957  : 		prLevel->SetTextPointer(ms_pFont);

  0005a	8b c8		 mov	 ecx, eax
  0005c	ff 35 00 00 00
	00		 push	 DWORD PTR ?ms_pFont@@3PAVCGraphicText@@A ; ms_pFont
  00062	e8 00 00 00 00	 call	 ?SetTextPointer@CGraphicTextInstance@@QAEXPAVCGraphicText@@@Z ; CGraphicTextInstance::SetTextPointer

; 958  : 		prLevel->SetOutline(true);

  00067	8b 4e 18	 mov	 ecx, DWORD PTR [esi+24]
  0006a	6a 01		 push	 1
  0006c	e8 00 00 00 00	 call	 ?SetOutline@CGraphicTextInstance@@QAEX_N@Z ; CGraphicTextInstance::SetOutline

; 959  : 
; 960  : 		prLevel->SetHorizonalAlign(CGraphicTextInstance::HORIZONTAL_ALIGN_RIGHT);

  00071	8b 4e 18	 mov	 ecx, DWORD PTR [esi+24]
  00074	6a 03		 push	 3
  00076	e8 00 00 00 00	 call	 ?SetHorizonalAlign@CGraphicTextInstance@@QAEXH@Z ; CGraphicTextInstance::SetHorizonalAlign

; 961  : 		prLevel->SetVerticalAlign(CGraphicTextInstance::VERTICAL_ALIGN_BOTTOM);

  0007b	8b 4e 18	 mov	 ecx, DWORD PTR [esi+24]
  0007e	6a 30		 push	 48			; 00000030H
  00080	e8 00 00 00 00	 call	 ?SetVerticalAlign@CGraphicTextInstance@@QAEXH@Z ; CGraphicTextInstance::SetVerticalAlign
  00085	8b 4e 18	 mov	 ecx, DWORD PTR [esi+24]
$LN4@AttachLeve:

; 962  : 	}
; 963  : 
; 964  : 	prLevel->SetValue(c_szText);

  00088	6a ff		 push	 -1
  0008a	ff 75 0c	 push	 DWORD PTR _c_szText$[ebp]
  0008d	e8 00 00 00 00	 call	 ?SetValue@CGraphicTextInstance@@QAEXPBDI@Z ; CGraphicTextInstance::SetValue

; 965  : 	prLevel->SetColor(c_rColor.r, c_rColor.g, c_rColor.b);

  00092	8b 45 10	 mov	 eax, DWORD PTR _c_rColor$[ebp]
  00095	83 ec 10	 sub	 esp, 16			; 00000010H
  00098	8b 4e 18	 mov	 ecx, DWORD PTR [esi+24]
  0009b	f3 0f 10 40 08	 movss	 xmm0, DWORD PTR [eax+8]
  000a0	c7 44 24 0c 00
	00 80 3f	 mov	 DWORD PTR [esp+12], 1065353216 ; 3f800000H
  000a8	f3 0f 11 44 24
	08		 movss	 DWORD PTR [esp+8], xmm0
  000ae	f3 0f 10 40 04	 movss	 xmm0, DWORD PTR [eax+4]
  000b3	f3 0f 11 44 24
	04		 movss	 DWORD PTR [esp+4], xmm0
  000b9	f3 0f 10 00	 movss	 xmm0, DWORD PTR [eax]
  000bd	f3 0f 11 04 24	 movss	 DWORD PTR [esp], xmm0
  000c2	e8 00 00 00 00	 call	 ?SetColor@CGraphicTextInstance@@QAEXMMMM@Z ; CGraphicTextInstance::SetColor

; 966  : 	prLevel->Update();

  000c7	8b 4e 18	 mov	 ecx, DWORD PTR [esi+24]
  000ca	e8 00 00 00 00	 call	 ?Update@CGraphicTextInstance@@QAEXXZ ; CGraphicTextInstance::Update
$LN40@AttachLeve:
  000cf	5f		 pop	 edi
  000d0	5e		 pop	 esi
$LN1@AttachLeve:

; 967  : }

  000d1	8b e5		 mov	 esp, ebp
  000d3	5d		 pop	 ebp
  000d4	c2 0c 00	 ret	 12			; 0000000cH
?AttachLevel@CPythonTextTail@@QAEXKPBDABUD3DXCOLOR@@@Z ENDP ; CPythonTextTail::AttachLevel
_TEXT	ENDS
; Function compile flags: /Ogtp
; File D:\Metin2 Server Files\mainline\SRC_2014\Metin2Client\UserInterface\PythonTextTail.cpp
; File C:\Program Files (x86)\Microsoft Visual Studio\2019\Community\VC\Tools\MSVC\14.28.29333\include\xtree
; File D:\Metin2 Server Files\mainline\SRC_2014\Metin2Client\UserInterface\PythonTextTail.cpp
; File C:\Program Files (x86)\Microsoft Visual Studio\2019\Community\VC\Tools\MSVC\14.28.29333\include\xtree
; File C:\Program Files (x86)\Microsoft Visual Studio\2019\Community\VC\Tools\MSVC\14.28.29333\include\xstddef
; File C:\Program Files (x86)\Microsoft Visual Studio\2019\Community\VC\Tools\MSVC\14.28.29333\include\xtree
; File D:\Metin2 Server Files\mainline\SRC_2014\Metin2Client\UserInterface\PythonTextTail.cpp
;	COMDAT ?DetachTitle@CPythonTextTail@@QAEXK@Z
_TEXT	SEGMENT
__Loc$1 = -12						; size = 12
_dwVID$ = 8						; size = 4
?DetachTitle@CPythonTextTail@@QAEXK@Z PROC		; CPythonTextTail::DetachTitle, COMDAT
; _this$ = ecx

; 920  : {

  00000	55		 push	 ebp
  00001	8b ec		 mov	 ebp, esp
  00003	83 ec 0c	 sub	 esp, 12			; 0000000cH

; 921  : 	if (!bPKTitleEnable)

  00006	83 3d 00 00 00
	00 00		 cmp	 DWORD PTR ?bPKTitleEnable@@3HA, 0 ; bPKTitleEnable
  0000d	74 43		 je	 SHORT $LN4@DetachTitl

; 924  : 	TTextTailMap::iterator itor = m_CharacterTextTailMap.find(dwVID);

  0000f	56		 push	 esi
; File C:\Program Files (x86)\Microsoft Visual Studio\2019\Community\VC\Tools\MSVC\14.28.29333\include\xtree

; 1458 :         const _Tree_find_result<_Nodeptr> _Loc = _Find_lower_bound(_Keyval);

  00010	8d 45 08	 lea	 eax, DWORD PTR _dwVID$[ebp]
  00013	50		 push	 eax
; File D:\Metin2 Server Files\mainline\SRC_2014\Metin2Client\UserInterface\PythonTextTail.cpp

; 924  : 	TTextTailMap::iterator itor = m_CharacterTextTailMap.find(dwVID);

  00014	8d 71 04	 lea	 esi, DWORD PTR [ecx+4]
; File C:\Program Files (x86)\Microsoft Visual Studio\2019\Community\VC\Tools\MSVC\14.28.29333\include\xtree

; 1458 :         const _Tree_find_result<_Nodeptr> _Loc = _Find_lower_bound(_Keyval);

  00017	8d 45 f4	 lea	 eax, DWORD PTR __Loc$1[ebp]
  0001a	8b ce		 mov	 ecx, esi
  0001c	50		 push	 eax
  0001d	e8 00 00 00 00	 call	 ??$_Find_lower_bound@K@?$_Tree@V?$_Tmap_traits@KPAUSTextTail@CPythonTextTail@@U?$less@K@std@@V?$allocator@U?$pair@$$CBKPAUSTextTail@CPythonTextTail@@@std@@@4@$0A@@std@@@std@@IBE?AU?$_Tree_find_result@PAU?$_Tree_node@U?$pair@$$CBKPAUSTextTail@CPythonTextTail@@@std@@PAX@std@@@1@ABK@Z ; std::_Tree<std::_Tmap_traits<unsigned long,CPythonTextTail::STextTail *,std::less<unsigned long>,std::allocator<std::pair<unsigned long const ,CPythonTextTail::STextTail *> >,0> >::_Find_lower_bound<unsigned long>

; 1695 :         return !_Bound->_Isnil && !_DEBUG_LT_PRED(_Getcomp(), _Keyval, _Traits::_Kfn(_Bound->_Myval));

  00022	8b 4d fc	 mov	 ecx, DWORD PTR __Loc$1[ebp+8]
  00025	80 79 0d 00	 cmp	 BYTE PTR [ecx+13], 0
  00029	75 26		 jne	 SHORT $LN40@DetachTitl
; File C:\Program Files (x86)\Microsoft Visual Studio\2019\Community\VC\Tools\MSVC\14.28.29333\include\xstddef

; 127  :         return _Left < _Right;

  0002b	8b 45 08	 mov	 eax, DWORD PTR _dwVID$[ebp]
  0002e	3b 41 10	 cmp	 eax, DWORD PTR [ecx+16]
; File C:\Program Files (x86)\Microsoft Visual Studio\2019\Community\VC\Tools\MSVC\14.28.29333\include\xtree

; 1695 :         return !_Bound->_Isnil && !_DEBUG_LT_PRED(_Getcomp(), _Keyval, _Traits::_Kfn(_Bound->_Myval));

  00031	72 1e		 jb	 SHORT $LN40@DetachTitl

; 232  :         return this->_Ptr == _Right._Ptr;

  00033	39 0e		 cmp	 DWORD PTR [esi], ecx
; File D:\Metin2 Server Files\mainline\SRC_2014\Metin2Client\UserInterface\PythonTextTail.cpp

; 925  : 	if (m_CharacterTextTailMap.end() == itor)

  00035	74 1a		 je	 SHORT $LN40@DetachTitl

; 926  : 		return;
; 927  : 
; 928  : 	TTextTail * pTextTail = itor->second;

  00037	8b 71 14	 mov	 esi, DWORD PTR [ecx+20]

; 929  : 
; 930  : 	if (pTextTail->pTitleTextInstance)

  0003a	8b 46 14	 mov	 eax, DWORD PTR [esi+20]
  0003d	85 c0		 test	 eax, eax
  0003f	74 10		 je	 SHORT $LN40@DetachTitl

; 931  : 	{
; 932  : 		CGraphicTextInstance::Delete(pTextTail->pTitleTextInstance);

  00041	50		 push	 eax
  00042	e8 00 00 00 00	 call	 ?Delete@CGraphicTextInstance@@SAXPAV1@@Z ; CGraphicTextInstance::Delete
  00047	83 c4 04	 add	 esp, 4

; 933  : 		pTextTail->pTitleTextInstance = NULL;

  0004a	c7 46 14 00 00
	00 00		 mov	 DWORD PTR [esi+20], 0
$LN40@DetachTitl:
  00051	5e		 pop	 esi
$LN4@DetachTitl:

; 934  : 	}
; 935  : }

  00052	8b e5		 mov	 esp, ebp
  00054	5d		 pop	 ebp
  00055	c2 04 00	 ret	 4
?DetachTitle@CPythonTextTail@@QAEXK@Z ENDP		; CPythonTextTail::DetachTitle
_TEXT	ENDS
; Function compile flags: /Ogtp
; File D:\Metin2 Server Files\mainline\SRC_2014\Metin2Client\UserInterface\PythonTextTail.cpp
; File C:\Program Files (x86)\Microsoft Visual Studio\2019\Community\VC\Tools\MSVC\14.28.29333\include\xtree
; File D:\Metin2 Server Files\mainline\SRC_2014\Metin2Client\UserInterface\PythonTextTail.cpp
; File C:\Program Files (x86)\Microsoft Visual Studio\2019\Community\VC\Tools\MSVC\14.28.29333\include\xtree
; File C:\Program Files (x86)\Microsoft Visual Studio\2019\Community\VC\Tools\MSVC\14.28.29333\include\xstddef
; File C:\Program Files (x86)\Microsoft Visual Studio\2019\Community\VC\Tools\MSVC\14.28.29333\include\xtree
; File D:\Metin2 Server Files\mainline\SRC_2014\Metin2Client\UserInterface\PythonTextTail.cpp
;	COMDAT ?AttachTitle@CPythonTextTail@@QAEXKPBDABUD3DXCOLOR@@@Z
_TEXT	SEGMENT
__Loc$1 = -12						; size = 12
_dwVID$ = 8						; size = 4
_c_szName$ = 12						; size = 4
_c_rColor$ = 16						; size = 4
?AttachTitle@CPythonTextTail@@QAEXKPBDABUD3DXCOLOR@@@Z PROC ; CPythonTextTail::AttachTitle, COMDAT
; _this$ = ecx

; 890  : {

  00000	55		 push	 ebp
  00001	8b ec		 mov	 ebp, esp
  00003	83 ec 0c	 sub	 esp, 12			; 0000000cH

; 891  : 	if (!bPKTitleEnable)

  00006	83 3d 00 00 00
	00 00		 cmp	 DWORD PTR ?bPKTitleEnable@@3HA, 0 ; bPKTitleEnable
  0000d	0f 84 cc 00 00
	00		 je	 $LN1@AttachTitl

; 894  : 	TTextTailMap::iterator itor = m_CharacterTextTailMap.find(dwVID);

  00013	56		 push	 esi
  00014	57		 push	 edi
; File C:\Program Files (x86)\Microsoft Visual Studio\2019\Community\VC\Tools\MSVC\14.28.29333\include\xtree

; 1458 :         const _Tree_find_result<_Nodeptr> _Loc = _Find_lower_bound(_Keyval);

  00015	8d 45 08	 lea	 eax, DWORD PTR _dwVID$[ebp]
  00018	50		 push	 eax
; File D:\Metin2 Server Files\mainline\SRC_2014\Metin2Client\UserInterface\PythonTextTail.cpp

; 894  : 	TTextTailMap::iterator itor = m_CharacterTextTailMap.find(dwVID);

  00019	8d 79 04	 lea	 edi, DWORD PTR [ecx+4]
; File C:\Program Files (x86)\Microsoft Visual Studio\2019\Community\VC\Tools\MSVC\14.28.29333\include\xtree

; 1458 :         const _Tree_find_result<_Nodeptr> _Loc = _Find_lower_bound(_Keyval);

  0001c	8d 45 f4	 lea	 eax, DWORD PTR __Loc$1[ebp]
  0001f	8b cf		 mov	 ecx, edi
  00021	50		 push	 eax
  00022	e8 00 00 00 00	 call	 ??$_Find_lower_bound@K@?$_Tree@V?$_Tmap_traits@KPAUSTextTail@CPythonTextTail@@U?$less@K@std@@V?$allocator@U?$pair@$$CBKPAUSTextTail@CPythonTextTail@@@std@@@4@$0A@@std@@@std@@IBE?AU?$_Tree_find_result@PAU?$_Tree_node@U?$pair@$$CBKPAUSTextTail@CPythonTextTail@@@std@@PAX@std@@@1@ABK@Z ; std::_Tree<std::_Tmap_traits<unsigned long,CPythonTextTail::STextTail *,std::less<unsigned long>,std::allocator<std::pair<unsigned long const ,CPythonTextTail::STextTail *> >,0> >::_Find_lower_bound<unsigned long>

; 1695 :         return !_Bound->_Isnil && !_DEBUG_LT_PRED(_Getcomp(), _Keyval, _Traits::_Kfn(_Bound->_Myval));

  00027	8b 75 fc	 mov	 esi, DWORD PTR __Loc$1[ebp+8]
  0002a	80 7e 0d 00	 cmp	 BYTE PTR [esi+13], 0
  0002e	0f 85 a9 00 00
	00		 jne	 $LN42@AttachTitl
; File C:\Program Files (x86)\Microsoft Visual Studio\2019\Community\VC\Tools\MSVC\14.28.29333\include\xstddef

; 127  :         return _Left < _Right;

  00034	8b 45 08	 mov	 eax, DWORD PTR _dwVID$[ebp]
  00037	3b 46 10	 cmp	 eax, DWORD PTR [esi+16]
; File C:\Program Files (x86)\Microsoft Visual Studio\2019\Community\VC\Tools\MSVC\14.28.29333\include\xtree

; 1695 :         return !_Bound->_Isnil && !_DEBUG_LT_PRED(_Getcomp(), _Keyval, _Traits::_Kfn(_Bound->_Myval));

  0003a	0f 82 9d 00 00
	00		 jb	 $LN42@AttachTitl

; 232  :         return this->_Ptr == _Right._Ptr;

  00040	39 37		 cmp	 DWORD PTR [edi], esi
; File D:\Metin2 Server Files\mainline\SRC_2014\Metin2Client\UserInterface\PythonTextTail.cpp

; 895  : 	if (m_CharacterTextTailMap.end() == itor)

  00042	0f 84 95 00 00
	00		 je	 $LN42@AttachTitl

; 896  : 		return;
; 897  : 
; 898  : 	TTextTail * pTextTail = itor->second;
; 899  : 
; 900  : 	CGraphicTextInstance *& prTitle = pTextTail->pTitleTextInstance;

  00048	8b 76 14	 mov	 esi, DWORD PTR [esi+20]

; 901  : 	if (!prTitle)

  0004b	8b 4e 14	 mov	 ecx, DWORD PTR [esi+20]
  0004e	85 c9		 test	 ecx, ecx
  00050	75 44		 jne	 SHORT $LN4@AttachTitl

; 902  : 	{
; 903  : 		prTitle = CGraphicTextInstance::New();

  00052	e8 00 00 00 00	 call	 ?New@CGraphicTextInstance@@SAPAV1@XZ ; CGraphicTextInstance::New
  00057	89 46 14	 mov	 DWORD PTR [esi+20], eax

; 904  : 		prTitle->SetTextPointer(ms_pFont);

  0005a	8b c8		 mov	 ecx, eax
  0005c	ff 35 00 00 00
	00		 push	 DWORD PTR ?ms_pFont@@3PAVCGraphicText@@A ; ms_pFont
  00062	e8 00 00 00 00	 call	 ?SetTextPointer@CGraphicTextInstance@@QAEXPAVCGraphicText@@@Z ; CGraphicTextInstance::SetTextPointer

; 905  : 		prTitle->SetOutline(true);

  00067	8b 4e 14	 mov	 ecx, DWORD PTR [esi+20]
  0006a	6a 01		 push	 1
  0006c	e8 00 00 00 00	 call	 ?SetOutline@CGraphicTextInstance@@QAEX_N@Z ; CGraphicTextInstance::SetOutline

; 906  : 
; 907  : 		if (LocaleService_IsEUROPE())

  00071	e8 00 00 00 00	 call	 ?LocaleService_IsEUROPE@@YA_NXZ ; LocaleService_IsEUROPE

; 908  : 			prTitle->SetHorizonalAlign(CGraphicTextInstance::HORIZONTAL_ALIGN_RIGHT);
; 909  : 		else
; 910  : 			prTitle->SetHorizonalAlign(CGraphicTextInstance::HORIZONTAL_ALIGN_CENTER);
; 911  : 		prTitle->SetVerticalAlign(CGraphicTextInstance::VERTICAL_ALIGN_BOTTOM);

  00076	8b 4e 14	 mov	 ecx, DWORD PTR [esi+20]
  00079	33 d2		 xor	 edx, edx
  0007b	84 c0		 test	 al, al
  0007d	0f 95 c2	 setne	 dl
  00080	83 c2 02	 add	 edx, 2
  00083	52		 push	 edx
  00084	e8 00 00 00 00	 call	 ?SetHorizonalAlign@CGraphicTextInstance@@QAEXH@Z ; CGraphicTextInstance::SetHorizonalAlign
  00089	8b 4e 14	 mov	 ecx, DWORD PTR [esi+20]
  0008c	6a 30		 push	 48			; 00000030H
  0008e	e8 00 00 00 00	 call	 ?SetVerticalAlign@CGraphicTextInstance@@QAEXH@Z ; CGraphicTextInstance::SetVerticalAlign
  00093	8b 4e 14	 mov	 ecx, DWORD PTR [esi+20]
$LN4@AttachTitl:

; 912  : 	}
; 913  : 
; 914  : 	prTitle->SetValue(c_szName);

  00096	6a ff		 push	 -1
  00098	ff 75 0c	 push	 DWORD PTR _c_szName$[ebp]
  0009b	e8 00 00 00 00	 call	 ?SetValue@CGraphicTextInstance@@QAEXPBDI@Z ; CGraphicTextInstance::SetValue

; 915  : 	prTitle->SetColor(c_rColor.r, c_rColor.g, c_rColor.b);

  000a0	8b 45 10	 mov	 eax, DWORD PTR _c_rColor$[ebp]
  000a3	83 ec 10	 sub	 esp, 16			; 00000010H
  000a6	8b 4e 14	 mov	 ecx, DWORD PTR [esi+20]
  000a9	f3 0f 10 40 08	 movss	 xmm0, DWORD PTR [eax+8]
  000ae	c7 44 24 0c 00
	00 80 3f	 mov	 DWORD PTR [esp+12], 1065353216 ; 3f800000H
  000b6	f3 0f 11 44 24
	08		 movss	 DWORD PTR [esp+8], xmm0
  000bc	f3 0f 10 40 04	 movss	 xmm0, DWORD PTR [eax+4]
  000c1	f3 0f 11 44 24
	04		 movss	 DWORD PTR [esp+4], xmm0
  000c7	f3 0f 10 00	 movss	 xmm0, DWORD PTR [eax]
  000cb	f3 0f 11 04 24	 movss	 DWORD PTR [esp], xmm0
  000d0	e8 00 00 00 00	 call	 ?SetColor@CGraphicTextInstance@@QAEXMMMM@Z ; CGraphicTextInstance::SetColor

; 916  : 	prTitle->Update();

  000d5	8b 4e 14	 mov	 ecx, DWORD PTR [esi+20]
  000d8	e8 00 00 00 00	 call	 ?Update@CGraphicTextInstance@@QAEXXZ ; CGraphicTextInstance::Update
$LN42@AttachTitl:
  000dd	5f		 pop	 edi
  000de	5e		 pop	 esi
$LN1@AttachTitl:

; 917  : }

  000df	8b e5		 mov	 esp, ebp
  000e1	5d		 pop	 ebp
  000e2	c2 0c 00	 ret	 12			; 0000000cH
?AttachTitle@CPythonTextTail@@QAEXKPBDABUD3DXCOLOR@@@Z ENDP ; CPythonTextTail::AttachTitle
_TEXT	ENDS
; Function compile flags: /Ogtp
; File D:\Metin2 Server Files\mainline\SRC_2014\Metin2Client\UserInterface\PythonTextTail.cpp
;	COMDAT ?EnablePKTitle@CPythonTextTail@@QAEXH@Z
_TEXT	SEGMENT
_bFlag$ = 8						; size = 4
?EnablePKTitle@CPythonTextTail@@QAEXH@Z PROC		; CPythonTextTail::EnablePKTitle, COMDAT
; _this$ = ecx

; 938  : {

  00000	55		 push	 ebp
  00001	8b ec		 mov	 ebp, esp

; 939  : 	bPKTitleEnable = bFlag;

  00003	8b 45 08	 mov	 eax, DWORD PTR _bFlag$[ebp]
  00006	a3 00 00 00 00	 mov	 DWORD PTR ?bPKTitleEnable@@3HA, eax ; bPKTitleEnable

; 940  : }

  0000b	5d		 pop	 ebp
  0000c	c2 04 00	 ret	 4
?EnablePKTitle@CPythonTextTail@@QAEXH@Z ENDP		; CPythonTextTail::EnablePKTitle
_TEXT	ENDS
; Function compile flags: /Ogtp
; File D:\Metin2 Server Files\mainline\SRC_2014\Metin2Client\UserInterface\PythonTextTail.cpp
; File C:\Program Files (x86)\Microsoft Visual Studio\2019\Community\VC\Tools\MSVC\14.28.29333\include\xtree
; File D:\Metin2 Server Files\mainline\SRC_2014\Metin2Client\UserInterface\PythonTextTail.cpp
; File C:\Program Files (x86)\Microsoft Visual Studio\2019\Community\VC\Tools\MSVC\14.28.29333\include\xtree
; File C:\Program Files (x86)\Microsoft Visual Studio\2019\Community\VC\Tools\MSVC\14.28.29333\include\xstddef
; File C:\Program Files (x86)\Microsoft Visual Studio\2019\Community\VC\Tools\MSVC\14.28.29333\include\xtree
; File D:\Metin2 Server Files\mainline\SRC_2014\Metin2Client\UserInterface\PythonTextTail.cpp
;	COMDAT ?IsChatTextTail@CPythonTextTail@@QAE_NK@Z
_TEXT	SEGMENT
__Loc$1 = -12						; size = 12
_dwVID$ = 8						; size = 4
?IsChatTextTail@CPythonTextTail@@QAE_NK@Z PROC		; CPythonTextTail::IsChatTextTail, COMDAT
; _this$ = ecx

; 684  : {

  00000	55		 push	 ebp
  00001	8b ec		 mov	 ebp, esp
  00003	83 ec 0c	 sub	 esp, 12			; 0000000cH
  00006	56		 push	 esi
; File C:\Program Files (x86)\Microsoft Visual Studio\2019\Community\VC\Tools\MSVC\14.28.29333\include\xtree

; 1458 :         const _Tree_find_result<_Nodeptr> _Loc = _Find_lower_bound(_Keyval);

  00007	8d 45 08	 lea	 eax, DWORD PTR _dwVID$[ebp]
  0000a	50		 push	 eax
; File D:\Metin2 Server Files\mainline\SRC_2014\Metin2Client\UserInterface\PythonTextTail.cpp

; 685  : 	TChatTailMap::iterator itorChat = m_ChatTailMap.find(dwVID);

  0000b	8d 71 14	 lea	 esi, DWORD PTR [ecx+20]
; File C:\Program Files (x86)\Microsoft Visual Studio\2019\Community\VC\Tools\MSVC\14.28.29333\include\xtree

; 1458 :         const _Tree_find_result<_Nodeptr> _Loc = _Find_lower_bound(_Keyval);

  0000e	8d 45 f4	 lea	 eax, DWORD PTR __Loc$1[ebp]
  00011	8b ce		 mov	 ecx, esi
  00013	50		 push	 eax
  00014	e8 00 00 00 00	 call	 ??$_Find_lower_bound@K@?$_Tree@V?$_Tmap_traits@KPAUSTextTail@CPythonTextTail@@U?$less@K@std@@V?$allocator@U?$pair@$$CBKPAUSTextTail@CPythonTextTail@@@std@@@4@$0A@@std@@@std@@IBE?AU?$_Tree_find_result@PAU?$_Tree_node@U?$pair@$$CBKPAUSTextTail@CPythonTextTail@@@std@@PAX@std@@@1@ABK@Z ; std::_Tree<std::_Tmap_traits<unsigned long,CPythonTextTail::STextTail *,std::less<unsigned long>,std::allocator<std::pair<unsigned long const ,CPythonTextTail::STextTail *> >,0> >::_Find_lower_bound<unsigned long>

; 1695 :         return !_Bound->_Isnil && !_DEBUG_LT_PRED(_Getcomp(), _Keyval, _Traits::_Kfn(_Bound->_Myval));

  00019	8b 4d fc	 mov	 ecx, DWORD PTR __Loc$1[ebp+8]
  0001c	80 79 0d 00	 cmp	 BYTE PTR [ecx+13], 0
  00020	75 15		 jne	 SHORT $LN32@IsChatText
; File C:\Program Files (x86)\Microsoft Visual Studio\2019\Community\VC\Tools\MSVC\14.28.29333\include\xstddef

; 127  :         return _Left < _Right;

  00022	8b 45 08	 mov	 eax, DWORD PTR _dwVID$[ebp]
  00025	3b 41 10	 cmp	 eax, DWORD PTR [ecx+16]
; File C:\Program Files (x86)\Microsoft Visual Studio\2019\Community\VC\Tools\MSVC\14.28.29333\include\xtree

; 1695 :         return !_Bound->_Isnil && !_DEBUG_LT_PRED(_Getcomp(), _Keyval, _Traits::_Kfn(_Bound->_Myval));

  00028	72 0d		 jb	 SHORT $LN32@IsChatText

; 232  :         return this->_Ptr == _Right._Ptr;

  0002a	39 0e		 cmp	 DWORD PTR [esi], ecx
; File D:\Metin2 Server Files\mainline\SRC_2014\Metin2Client\UserInterface\PythonTextTail.cpp

; 687  : 	if (m_ChatTailMap.end() == itorChat)

  0002c	74 09		 je	 SHORT $LN32@IsChatText

; 689  : 
; 690  : 	return true;

  0002e	b0 01		 mov	 al, 1
  00030	5e		 pop	 esi

; 691  : }

  00031	8b e5		 mov	 esp, ebp
  00033	5d		 pop	 ebp
  00034	c2 04 00	 ret	 4
$LN32@IsChatText:

; 688  : 		return false;

  00037	32 c0		 xor	 al, al
  00039	5e		 pop	 esi

; 691  : }

  0003a	8b e5		 mov	 esp, ebp
  0003c	5d		 pop	 ebp
  0003d	c2 04 00	 ret	 4
?IsChatTextTail@CPythonTextTail@@QAE_NK@Z ENDP		; CPythonTextTail::IsChatTextTail
_TEXT	ENDS
; Function compile flags: /Ogtp
; File D:\Metin2 Server Files\mainline\SRC_2014\Metin2Client\UserInterface\PythonTextTail.cpp
; File C:\Program Files (x86)\Microsoft Visual Studio\2019\Community\VC\Tools\MSVC\14.28.29333\include\xtree
; File D:\Metin2 Server Files\mainline\SRC_2014\Metin2Client\UserInterface\PythonTextTail.cpp
; File C:\Program Files (x86)\Microsoft Visual Studio\2019\Community\VC\Tools\MSVC\14.28.29333\include\xtree
; File C:\Program Files (x86)\Microsoft Visual Studio\2019\Community\VC\Tools\MSVC\14.28.29333\include\xstddef
; File C:\Program Files (x86)\Microsoft Visual Studio\2019\Community\VC\Tools\MSVC\14.28.29333\include\xtree
; File D:\Metin2 Server Files\mainline\SRC_2014\Metin2Client\UserInterface\PythonTextTail.cpp
;	COMDAT ?GetTextTailPosition@CPythonTextTail@@QAE_NKPAM00@Z
_TEXT	SEGMENT
__Loc$1 = -12						; size = 12
_dwVID$ = 8						; size = 4
_px$ = 12						; size = 4
_py$ = 16						; size = 4
_pz$ = 20						; size = 4
?GetTextTailPosition@CPythonTextTail@@QAE_NKPAM00@Z PROC ; CPythonTextTail::GetTextTailPosition, COMDAT
; _this$ = ecx

; 667  : {

  00000	55		 push	 ebp
  00001	8b ec		 mov	 ebp, esp
  00003	83 ec 0c	 sub	 esp, 12			; 0000000cH
  00006	56		 push	 esi
; File C:\Program Files (x86)\Microsoft Visual Studio\2019\Community\VC\Tools\MSVC\14.28.29333\include\xtree

; 1458 :         const _Tree_find_result<_Nodeptr> _Loc = _Find_lower_bound(_Keyval);

  00007	8d 45 08	 lea	 eax, DWORD PTR _dwVID$[ebp]
  0000a	50		 push	 eax
; File D:\Metin2 Server Files\mainline\SRC_2014\Metin2Client\UserInterface\PythonTextTail.cpp

; 668  : 	TTextTailMap::iterator itorCharacter = m_CharacterTextTailMap.find(dwVID);

  0000b	8d 71 04	 lea	 esi, DWORD PTR [ecx+4]
; File C:\Program Files (x86)\Microsoft Visual Studio\2019\Community\VC\Tools\MSVC\14.28.29333\include\xtree

; 1458 :         const _Tree_find_result<_Nodeptr> _Loc = _Find_lower_bound(_Keyval);

  0000e	8d 45 f4	 lea	 eax, DWORD PTR __Loc$1[ebp]
  00011	8b ce		 mov	 ecx, esi
  00013	50		 push	 eax
  00014	e8 00 00 00 00	 call	 ??$_Find_lower_bound@K@?$_Tree@V?$_Tmap_traits@KPAUSTextTail@CPythonTextTail@@U?$less@K@std@@V?$allocator@U?$pair@$$CBKPAUSTextTail@CPythonTextTail@@@std@@@4@$0A@@std@@@std@@IBE?AU?$_Tree_find_result@PAU?$_Tree_node@U?$pair@$$CBKPAUSTextTail@CPythonTextTail@@@std@@PAX@std@@@1@ABK@Z ; std::_Tree<std::_Tmap_traits<unsigned long,CPythonTextTail::STextTail *,std::less<unsigned long>,std::allocator<std::pair<unsigned long const ,CPythonTextTail::STextTail *> >,0> >::_Find_lower_bound<unsigned long>

; 1695 :         return !_Bound->_Isnil && !_DEBUG_LT_PRED(_Getcomp(), _Keyval, _Traits::_Kfn(_Bound->_Myval));

  00019	8b 55 fc	 mov	 edx, DWORD PTR __Loc$1[ebp+8]
  0001c	80 7a 0d 00	 cmp	 BYTE PTR [edx+13], 0
  00020	75 30		 jne	 SHORT $LN38@GetTextTai
; File C:\Program Files (x86)\Microsoft Visual Studio\2019\Community\VC\Tools\MSVC\14.28.29333\include\xstddef

; 127  :         return _Left < _Right;

  00022	8b 45 08	 mov	 eax, DWORD PTR _dwVID$[ebp]
  00025	3b 42 10	 cmp	 eax, DWORD PTR [edx+16]
; File C:\Program Files (x86)\Microsoft Visual Studio\2019\Community\VC\Tools\MSVC\14.28.29333\include\xtree

; 1695 :         return !_Bound->_Isnil && !_DEBUG_LT_PRED(_Getcomp(), _Keyval, _Traits::_Kfn(_Bound->_Myval));

  00028	72 28		 jb	 SHORT $LN38@GetTextTai

; 232  :         return this->_Ptr == _Right._Ptr;

  0002a	39 16		 cmp	 DWORD PTR [esi], edx
; File D:\Metin2 Server Files\mainline\SRC_2014\Metin2Client\UserInterface\PythonTextTail.cpp

; 670  : 	if (m_CharacterTextTailMap.end() == itorCharacter)

  0002c	74 24		 je	 SHORT $LN38@GetTextTai

; 673  : 	}
; 674  : 
; 675  : 	TTextTail * pTextTail = itorCharacter->second;

  0002e	8b 52 14	 mov	 edx, DWORD PTR [edx+20]

; 676  : 	*px=pTextTail->x;

  00031	8b 45 0c	 mov	 eax, DWORD PTR _px$[ebp]
  00034	5e		 pop	 esi
  00035	8b 4a 24	 mov	 ecx, DWORD PTR [edx+36]
  00038	89 08		 mov	 DWORD PTR [eax], ecx

; 677  : 	*py=pTextTail->y;

  0003a	8b 45 10	 mov	 eax, DWORD PTR _py$[ebp]
  0003d	8b 4a 28	 mov	 ecx, DWORD PTR [edx+40]
  00040	89 08		 mov	 DWORD PTR [eax], ecx

; 678  : 	*pz=pTextTail->z;

  00042	8b 45 14	 mov	 eax, DWORD PTR _pz$[ebp]
  00045	8b 4a 2c	 mov	 ecx, DWORD PTR [edx+44]
  00048	89 08		 mov	 DWORD PTR [eax], ecx

; 679  : 
; 680  : 	return true;

  0004a	b0 01		 mov	 al, 1

; 681  : }

  0004c	8b e5		 mov	 esp, ebp
  0004e	5d		 pop	 ebp
  0004f	c2 10 00	 ret	 16			; 00000010H
$LN38@GetTextTai:

; 671  : 	{
; 672  : 		return false;

  00052	32 c0		 xor	 al, al
  00054	5e		 pop	 esi

; 681  : }

  00055	8b e5		 mov	 esp, ebp
  00057	5d		 pop	 ebp
  00058	c2 10 00	 ret	 16			; 00000010H
?GetTextTailPosition@CPythonTextTail@@QAE_NKPAM00@Z ENDP ; CPythonTextTail::GetTextTailPosition
_TEXT	ENDS
; Function compile flags: /Ogtp
; File D:\Metin2 Server Files\mainline\SRC_2014\Metin2Client\UserInterface\PythonTextTail.cpp
; File C:\Program Files (x86)\Microsoft Visual Studio\2019\Community\VC\Tools\MSVC\14.28.29333\include\xtree
; File D:\Metin2 Server Files\mainline\SRC_2014\Metin2Client\UserInterface\PythonTextTail.cpp
; File C:\Program Files (x86)\Microsoft Visual Studio\2019\Community\VC\Tools\MSVC\14.28.29333\include\xtree
; File C:\Program Files (x86)\Microsoft Visual Studio\2019\Community\VC\Tools\MSVC\14.28.29333\include\xstddef
; File C:\Program Files (x86)\Microsoft Visual Studio\2019\Community\VC\Tools\MSVC\14.28.29333\include\xtree
; File D:\Metin2 Server Files\mainline\SRC_2014\Metin2Client\UserInterface\PythonTextTail.cpp
;	COMDAT ?SelectItemName@CPythonTextTail@@QAEXK@Z
_TEXT	SEGMENT
__Loc$1 = -12						; size = 12
_dwVirtualID$ = 8					; size = 4
?SelectItemName@CPythonTextTail@@QAEXK@Z PROC		; CPythonTextTail::SelectItemName, COMDAT
; _this$ = ecx

; 879  : {

  00000	55		 push	 ebp
  00001	8b ec		 mov	 ebp, esp
  00003	83 ec 0c	 sub	 esp, 12			; 0000000cH
  00006	56		 push	 esi
; File C:\Program Files (x86)\Microsoft Visual Studio\2019\Community\VC\Tools\MSVC\14.28.29333\include\xtree

; 1458 :         const _Tree_find_result<_Nodeptr> _Loc = _Find_lower_bound(_Keyval);

  00007	8d 45 08	 lea	 eax, DWORD PTR _dwVirtualID$[ebp]
  0000a	50		 push	 eax
; File D:\Metin2 Server Files\mainline\SRC_2014\Metin2Client\UserInterface\PythonTextTail.cpp

; 880  : 	TTextTailMap::iterator itor = m_ItemTextTailMap.find(dwVirtualID);

  0000b	8d 71 0c	 lea	 esi, DWORD PTR [ecx+12]
; File C:\Program Files (x86)\Microsoft Visual Studio\2019\Community\VC\Tools\MSVC\14.28.29333\include\xtree

; 1458 :         const _Tree_find_result<_Nodeptr> _Loc = _Find_lower_bound(_Keyval);

  0000e	8d 45 f4	 lea	 eax, DWORD PTR __Loc$1[ebp]
  00011	8b ce		 mov	 ecx, esi
  00013	50		 push	 eax
  00014	e8 00 00 00 00	 call	 ??$_Find_lower_bound@K@?$_Tree@V?$_Tmap_traits@KPAUSTextTail@CPythonTextTail@@U?$less@K@std@@V?$allocator@U?$pair@$$CBKPAUSTextTail@CPythonTextTail@@@std@@@4@$0A@@std@@@std@@IBE?AU?$_Tree_find_result@PAU?$_Tree_node@U?$pair@$$CBKPAUSTextTail@CPythonTextTail@@@std@@PAX@std@@@1@ABK@Z ; std::_Tree<std::_Tmap_traits<unsigned long,CPythonTextTail::STextTail *,std::less<unsigned long>,std::allocator<std::pair<unsigned long const ,CPythonTextTail::STextTail *> >,0> >::_Find_lower_bound<unsigned long>

; 1695 :         return !_Bound->_Isnil && !_DEBUG_LT_PRED(_Getcomp(), _Keyval, _Traits::_Kfn(_Bound->_Myval));

  00019	8b 4d fc	 mov	 ecx, DWORD PTR __Loc$1[ebp+8]
  0001c	80 79 0d 00	 cmp	 BYTE PTR [ecx+13], 0
  00020	75 39		 jne	 SHORT $LN1@SelectItem
; File C:\Program Files (x86)\Microsoft Visual Studio\2019\Community\VC\Tools\MSVC\14.28.29333\include\xstddef

; 127  :         return _Left < _Right;

  00022	8b 45 08	 mov	 eax, DWORD PTR _dwVirtualID$[ebp]
  00025	3b 41 10	 cmp	 eax, DWORD PTR [ecx+16]
; File C:\Program Files (x86)\Microsoft Visual Studio\2019\Community\VC\Tools\MSVC\14.28.29333\include\xtree

; 1695 :         return !_Bound->_Isnil && !_DEBUG_LT_PRED(_Getcomp(), _Keyval, _Traits::_Kfn(_Bound->_Myval));

  00028	72 31		 jb	 SHORT $LN1@SelectItem

; 232  :         return this->_Ptr == _Right._Ptr;

  0002a	39 0e		 cmp	 DWORD PTR [esi], ecx
; File D:\Metin2 Server Files\mainline\SRC_2014\Metin2Client\UserInterface\PythonTextTail.cpp

; 882  : 	if (m_ItemTextTailMap.end() == itor)

  0002c	74 2d		 je	 SHORT $LN1@SelectItem

; 883  : 		return;
; 884  : 
; 885  : 	TTextTail * pTextTail = itor->second;
; 886  : 	pTextTail->pTextInstance->SetColor(0.1f, 0.9f, 0.1f);

  0002e	8b 49 14	 mov	 ecx, DWORD PTR [ecx+20]
  00031	83 ec 10	 sub	 esp, 16			; 00000010H
  00034	8b 49 04	 mov	 ecx, DWORD PTR [ecx+4]
  00037	c7 44 24 0c 00
	00 80 3f	 mov	 DWORD PTR [esp+12], 1065353216 ; 3f800000H
  0003f	c7 44 24 08 cd
	cc cc 3d	 mov	 DWORD PTR [esp+8], 1036831949 ; 3dcccccdH
  00047	c7 44 24 04 66
	66 66 3f	 mov	 DWORD PTR [esp+4], 1063675494 ; 3f666666H
  0004f	c7 04 24 cd cc
	cc 3d		 mov	 DWORD PTR [esp], 1036831949 ; 3dcccccdH
  00056	e8 00 00 00 00	 call	 ?SetColor@CGraphicTextInstance@@QAEXMMMM@Z ; CGraphicTextInstance::SetColor
$LN1@SelectItem:
  0005b	5e		 pop	 esi

; 887  : }

  0005c	8b e5		 mov	 esp, ebp
  0005e	5d		 pop	 ebp
  0005f	c2 04 00	 ret	 4
?SelectItemName@CPythonTextTail@@QAEXK@Z ENDP		; CPythonTextTail::SelectItemName
_TEXT	ENDS
; Function compile flags: /Ogtp
; File D:\Metin2 Server Files\mainline\SRC_2014\Metin2Client\UserInterface\PythonTextTail.cpp
; File C:\Program Files (x86)\Microsoft Visual Studio\2019\Community\VC\Tools\MSVC\14.28.29333\include\xtree
; File D:\Metin2 Server Files\mainline\SRC_2014\Metin2Client\UserInterface\PythonTextTail.cpp
; File C:\Program Files (x86)\Microsoft Visual Studio\2019\Community\VC\Tools\MSVC\14.28.29333\include\xtree
; File D:\Metin2 Server Files\mainline\SRC_2014\Metin2Client\UserInterface\PythonTextTail.cpp
; File C:\Program Files (x86)\Microsoft Visual Studio\2019\Community\VC\Tools\MSVC\14.28.29333\include\xtree
; File D:\Metin2 Server Files\mainline\SRC_2014\Metin2Client\UserInterface\PythonTextTail.cpp
;	COMDAT ?Pick@CPythonTextTail@@QAEHHH@Z
_TEXT	SEGMENT
_this$1$ = -8						; size = 4
_itor$1 = -4						; size = 4
_ixMouse$ = 8						; size = 4
_iyMouse$ = 12						; size = 4
?Pick@CPythonTextTail@@QAEHHH@Z PROC			; CPythonTextTail::Pick, COMDAT
; _this$ = ecx

; 862  : {

  00000	55		 push	 ebp
  00001	8b ec		 mov	 ebp, esp
  00003	83 ec 08	 sub	 esp, 8
  00006	53		 push	 ebx
  00007	56		 push	 esi
  00008	57		 push	 edi
; File C:\Program Files (x86)\Microsoft Visual Studio\2019\Community\VC\Tools\MSVC\14.28.29333\include\xtree

; 1240 :         return iterator(_Scary->_Myhead->_Left, _Scary);

  00009	8b 79 0c	 mov	 edi, DWORD PTR [ecx+12]
; File D:\Metin2 Server Files\mainline\SRC_2014\Metin2Client\UserInterface\PythonTextTail.cpp

; 862  : {

  0000c	89 4d f8	 mov	 DWORD PTR _this$1$[ebp], ecx
; File C:\Program Files (x86)\Microsoft Visual Studio\2019\Community\VC\Tools\MSVC\14.28.29333\include\xtree

; 39   :     _Tree_unchecked_const_iterator(_Nodeptr _Pnode, const _Mytree* _Plist) noexcept : _Ptr(_Pnode) {

  0000f	8b 37		 mov	 esi, DWORD PTR [edi]
  00011	89 75 fc	 mov	 DWORD PTR _itor$1[ebp], esi
  00014	3b f7		 cmp	 esi, edi
; File D:\Metin2 Server Files\mainline\SRC_2014\Metin2Client\UserInterface\PythonTextTail.cpp

; 863  : 	for (TTextTailMap::iterator itor = m_ItemTextTailMap.begin(); itor != m_ItemTextTailMap.end(); ++itor)

  00016	74 66		 je	 SHORT $LN54@Pick
  00018	8b 5d 0c	 mov	 ebx, DWORD PTR _iyMouse$[ebp]
$LN55@Pick:

; 864  : 	{
; 865  : 		TTextTail * pTextTail = itor->second;

  0001b	8b 46 14	 mov	 eax, DWORD PTR [esi+20]
  0001e	66 0f 6e 55 08	 movd	 xmm2, DWORD PTR _ixMouse$[ebp]
  00023	0f 5b d2	 cvtdq2ps xmm2, xmm2

; 866  : 
; 867  : 		if (ixMouse >= pTextTail->x + pTextTail->xStart && ixMouse <= pTextTail->x + pTextTail->xEnd &&
; 868  : 			iyMouse >= pTextTail->y + pTextTail->yStart && iyMouse <= pTextTail->y + pTextTail->yEnd)

  00026	f3 0f 10 48 24	 movss	 xmm1, DWORD PTR [eax+36]
  0002b	f3 0f 10 40 48	 movss	 xmm0, DWORD PTR [eax+72]
  00030	f3 0f 58 c1	 addss	 xmm0, xmm1
  00034	0f 2f d0	 comiss	 xmm2, xmm0
  00037	72 36		 jb	 SHORT $LN2@Pick
  00039	f3 0f 10 40 50	 movss	 xmm0, DWORD PTR [eax+80]
  0003e	f3 0f 58 c1	 addss	 xmm0, xmm1
  00042	0f 2f c2	 comiss	 xmm0, xmm2
  00045	72 28		 jb	 SHORT $LN2@Pick
  00047	f3 0f 10 48 28	 movss	 xmm1, DWORD PTR [eax+40]
  0004c	f3 0f 10 40 4c	 movss	 xmm0, DWORD PTR [eax+76]
  00051	66 0f 6e d3	 movd	 xmm2, ebx
  00055	f3 0f 58 c1	 addss	 xmm0, xmm1
  00059	0f 5b d2	 cvtdq2ps xmm2, xmm2
  0005c	0f 2f d0	 comiss	 xmm2, xmm0
  0005f	72 0e		 jb	 SHORT $LN2@Pick
  00061	f3 0f 10 40 54	 movss	 xmm0, DWORD PTR [eax+84]
  00066	f3 0f 58 c1	 addss	 xmm0, xmm1
  0006a	0f 2f c2	 comiss	 xmm0, xmm2
  0006d	73 1b		 jae	 SHORT $LN50@Pick
$LN2@Pick:
; File C:\Program Files (x86)\Microsoft Visual Studio\2019\Community\VC\Tools\MSVC\14.28.29333\include\xtree

; 198  :         _Mybase::operator++();

  0006f	8d 4d fc	 lea	 ecx, DWORD PTR _itor$1[ebp]
  00072	e8 00 00 00 00	 call	 ??E?$_Tree_unchecked_const_iterator@V?$_Tree_val@U?$_Tree_simple_types@U?$pair@$$CBKPAUSTextTail@CPythonTextTail@@@std@@@std@@@std@@U_Iterator_base0@2@@std@@QAEAAV01@XZ ; std::_Tree_unchecked_const_iterator<std::_Tree_val<std::_Tree_simple_types<std::pair<unsigned long const ,CPythonTextTail::STextTail *> > >,std::_Iterator_base0>::operator++

; 232  :         return this->_Ptr == _Right._Ptr;

  00077	8b 75 fc	 mov	 esi, DWORD PTR _itor$1[ebp]
  0007a	3b f7		 cmp	 esi, edi
; File D:\Metin2 Server Files\mainline\SRC_2014\Metin2Client\UserInterface\PythonTextTail.cpp

; 863  : 	for (TTextTailMap::iterator itor = m_ItemTextTailMap.begin(); itor != m_ItemTextTailMap.end(); ++itor)

  0007c	75 9d		 jne	 SHORT $LN55@Pick
$LN54@Pick:
  0007e	5f		 pop	 edi

; 872  : 		}
; 873  : 	}
; 874  : 
; 875  : 	return -1;
; 876  : }

  0007f	5e		 pop	 esi
  00080	83 c8 ff	 or	 eax, -1
  00083	5b		 pop	 ebx
  00084	8b e5		 mov	 esp, ebp
  00086	5d		 pop	 ebp
  00087	c2 08 00	 ret	 8
$LN50@Pick:

; 869  : 		{
; 870  : 			SelectItemName(itor->first);

  0008a	ff 76 10	 push	 DWORD PTR [esi+16]
  0008d	8b 4d f8	 mov	 ecx, DWORD PTR _this$1$[ebp]
  00090	e8 00 00 00 00	 call	 ?SelectItemName@CPythonTextTail@@QAEXK@Z ; CPythonTextTail::SelectItemName

; 871  : 			return (itor->first);

  00095	8b 46 10	 mov	 eax, DWORD PTR [esi+16]
  00098	5f		 pop	 edi

; 872  : 		}
; 873  : 	}
; 874  : 
; 875  : 	return -1;
; 876  : }

  00099	5e		 pop	 esi
  0009a	5b		 pop	 ebx
  0009b	8b e5		 mov	 esp, ebp
  0009d	5d		 pop	 ebp
  0009e	c2 08 00	 ret	 8
?Pick@CPythonTextTail@@QAEHHH@Z ENDP			; CPythonTextTail::Pick
_TEXT	ENDS
; Function compile flags: /Ogtp
; File D:\Metin2 Server Files\mainline\SRC_2014\Metin2Client\UserInterface\PythonTextTail.cpp
; File C:\Program Files (x86)\Microsoft Visual Studio\2019\Community\VC\Tools\MSVC\14.28.29333\include\xtree
; File C:\Program Files (x86)\Microsoft Visual Studio\2019\Community\VC\Tools\MSVC\14.28.29333\include\xstddef
; File C:\Program Files (x86)\Microsoft Visual Studio\2019\Community\VC\Tools\MSVC\14.28.29333\include\xtree
; File D:\Metin2 Server Files\mainline\SRC_2014\Metin2Client\UserInterface\PythonTextTail.cpp
; File C:\Program Files (x86)\Microsoft Visual Studio\2019\Community\VC\Tools\MSVC\14.28.29333\include\xtree
; File C:\Program Files (x86)\Microsoft Visual Studio\2019\Community\VC\Tools\MSVC\14.28.29333\include\xmemory
; File D:\Metin2 Server Files\mainline\SRC_2014\Metin2Client\UserInterface\PythonTextTail.cpp
;	COMDAT ?DeleteItemTextTail@CPythonTextTail@@QAEXK@Z
_TEXT	SEGMENT
__Loc$1 = -12						; size = 12
_VirtualID$ = 8						; size = 4
?DeleteItemTextTail@CPythonTextTail@@QAEXK@Z PROC	; CPythonTextTail::DeleteItemTextTail, COMDAT
; _this$ = ecx

; 778  : {

  00000	55		 push	 ebp
  00001	8b ec		 mov	 ebp, esp
  00003	83 ec 0c	 sub	 esp, 12			; 0000000cH
  00006	53		 push	 ebx
  00007	56		 push	 esi
  00008	57		 push	 edi
  00009	8b d9		 mov	 ebx, ecx
; File C:\Program Files (x86)\Microsoft Visual Studio\2019\Community\VC\Tools\MSVC\14.28.29333\include\xtree

; 1458 :         const _Tree_find_result<_Nodeptr> _Loc = _Find_lower_bound(_Keyval);

  0000b	8d 45 08	 lea	 eax, DWORD PTR _VirtualID$[ebp]
  0000e	50		 push	 eax
  0000f	8d 45 f4	 lea	 eax, DWORD PTR __Loc$1[ebp]
  00012	50		 push	 eax
  00013	8d 4b 0c	 lea	 ecx, DWORD PTR [ebx+12]
  00016	e8 00 00 00 00	 call	 ??$_Find_lower_bound@K@?$_Tree@V?$_Tmap_traits@KPAUSTextTail@CPythonTextTail@@U?$less@K@std@@V?$allocator@U?$pair@$$CBKPAUSTextTail@CPythonTextTail@@@std@@@4@$0A@@std@@@std@@IBE?AU?$_Tree_find_result@PAU?$_Tree_node@U?$pair@$$CBKPAUSTextTail@CPythonTextTail@@@std@@PAX@std@@@1@ABK@Z ; std::_Tree<std::_Tmap_traits<unsigned long,CPythonTextTail::STextTail *,std::less<unsigned long>,std::allocator<std::pair<unsigned long const ,CPythonTextTail::STextTail *> >,0> >::_Find_lower_bound<unsigned long>

; 1695 :         return !_Bound->_Isnil && !_DEBUG_LT_PRED(_Getcomp(), _Keyval, _Traits::_Kfn(_Bound->_Myval));

  0001b	8b 75 fc	 mov	 esi, DWORD PTR __Loc$1[ebp+8]
  0001e	80 7e 0d 00	 cmp	 BYTE PTR [esi+13], 0
  00022	75 34		 jne	 SHORT $LN60@DeleteItem
; File C:\Program Files (x86)\Microsoft Visual Studio\2019\Community\VC\Tools\MSVC\14.28.29333\include\xstddef

; 127  :         return _Left < _Right;

  00024	8b 45 08	 mov	 eax, DWORD PTR _VirtualID$[ebp]
  00027	3b 46 10	 cmp	 eax, DWORD PTR [esi+16]
; File C:\Program Files (x86)\Microsoft Visual Studio\2019\Community\VC\Tools\MSVC\14.28.29333\include\xtree

; 1695 :         return !_Bound->_Isnil && !_DEBUG_LT_PRED(_Getcomp(), _Keyval, _Traits::_Kfn(_Bound->_Myval));

  0002a	72 2c		 jb	 SHORT $LN60@DeleteItem

; 39   :     _Tree_unchecked_const_iterator(_Nodeptr _Pnode, const _Mytree* _Plist) noexcept : _Ptr(_Pnode) {

  0002c	39 73 0c	 cmp	 DWORD PTR [ebx+12], esi
; File D:\Metin2 Server Files\mainline\SRC_2014\Metin2Client\UserInterface\PythonTextTail.cpp

; 781  : 	if (m_ItemTextTailMap.end() == itor)

  0002f	74 27		 je	 SHORT $LN60@DeleteItem

; 784  : 		return;
; 785  : 	}
; 786  : 
; 787  : 	DeleteTextTail(itor->second);

  00031	ff 76 14	 push	 DWORD PTR [esi+20]
  00034	8b cb		 mov	 ecx, ebx
  00036	e8 00 00 00 00	 call	 ?DeleteTextTail@CPythonTextTail@@IAEXPAUSTextTail@1@@Z ; CPythonTextTail::DeleteTextTail
; File C:\Program Files (x86)\Microsoft Visual Studio\2019\Community\VC\Tools\MSVC\14.28.29333\include\xtree

; 1389 :         _Nodeptr _Erasednode = _Scary->_Extract(_Where); // node to erase

  0003b	56		 push	 esi
  0003c	8d 4b 0c	 lea	 ecx, DWORD PTR [ebx+12]
  0003f	e8 00 00 00 00	 call	 ?_Extract@?$_Tree_val@U?$_Tree_simple_types@U?$pair@$$CBKPAUSTextTail@CPythonTextTail@@@std@@@std@@@std@@QAEPAU?$_Tree_node@U?$pair@$$CBKPAUSTextTail@CPythonTextTail@@@std@@PAX@2@V?$_Tree_unchecked_const_iterator@V?$_Tree_val@U?$_Tree_simple_types@U?$pair@$$CBKPAUSTextTail@CPythonTextTail@@@std@@@std@@@std@@U_Iterator_base0@2@@2@@Z ; std::_Tree_val<std::_Tree_simple_types<std::pair<unsigned long const ,CPythonTextTail::STextTail *> > >::_Extract
; File C:\Program Files (x86)\Microsoft Visual Studio\2019\Community\VC\Tools\MSVC\14.28.29333\include\xmemory

; 696  :         _Deallocate<_New_alignof<value_type>>(_Ptr, sizeof(value_type) * _Count);

  00044	6a 18		 push	 24			; 00000018H
  00046	50		 push	 eax
  00047	e8 00 00 00 00	 call	 ??$_Deallocate@$07$0A@@std@@YAXPAXI@Z ; std::_Deallocate<8,0>
  0004c	83 c4 08	 add	 esp, 8
  0004f	5f		 pop	 edi
; File D:\Metin2 Server Files\mainline\SRC_2014\Metin2Client\UserInterface\PythonTextTail.cpp

; 789  : }

  00050	5e		 pop	 esi
  00051	5b		 pop	 ebx
  00052	8b e5		 mov	 esp, ebp
  00054	5d		 pop	 ebp
  00055	c2 04 00	 ret	 4
$LN60@DeleteItem:

; 782  : 	{
; 783  : 		Tracef(" CPythonTextTail::DeleteItemTextTail - None Item Text Tail\n");

  00058	68 00 00 00 00	 push	 OFFSET ??_C@_0DM@EALAGA@?5CPythonTextTail?3?3DeleteItemTex@
  0005d	e8 00 00 00 00	 call	 ?Tracef@@YAXPBDZZ	; Tracef
  00062	83 c4 04	 add	 esp, 4
  00065	5f		 pop	 edi

; 789  : }

  00066	5e		 pop	 esi
  00067	5b		 pop	 ebx
  00068	8b e5		 mov	 esp, ebp
  0006a	5d		 pop	 ebp
  0006b	c2 04 00	 ret	 4
?DeleteItemTextTail@CPythonTextTail@@QAEXK@Z ENDP	; CPythonTextTail::DeleteItemTextTail
_TEXT	ENDS
; Function compile flags: /Ogtp
; File D:\Metin2 Server Files\mainline\SRC_2014\Metin2Client\UserInterface\PythonTextTail.cpp
; File C:\Program Files (x86)\Microsoft Visual Studio\2019\Community\VC\Tools\MSVC\14.28.29333\include\xtree
; File D:\Metin2 Server Files\mainline\SRC_2014\Metin2Client\UserInterface\PythonTextTail.cpp
; File C:\Program Files (x86)\Microsoft Visual Studio\2019\Community\VC\Tools\MSVC\14.28.29333\include\xtree
; File C:\Program Files (x86)\Microsoft Visual Studio\2019\Community\VC\Tools\MSVC\14.28.29333\include\xstddef
; File C:\Program Files (x86)\Microsoft Visual Studio\2019\Community\VC\Tools\MSVC\14.28.29333\include\xtree
; File D:\Metin2 Server Files\mainline\SRC_2014\Metin2Client\UserInterface\PythonTextTail.cpp
; File C:\Program Files (x86)\Microsoft Visual Studio\2019\Community\VC\Tools\MSVC\14.28.29333\include\xtree
; File C:\Program Files (x86)\Microsoft Visual Studio\2019\Community\VC\Tools\MSVC\14.28.29333\include\xstddef
; File C:\Program Files (x86)\Microsoft Visual Studio\2019\Community\VC\Tools\MSVC\14.28.29333\include\xtree
; File D:\Metin2 Server Files\mainline\SRC_2014\Metin2Client\UserInterface\PythonTextTail.cpp
; File C:\Program Files (x86)\Microsoft Visual Studio\2019\Community\VC\Tools\MSVC\14.28.29333\include\xtree
; File C:\Program Files (x86)\Microsoft Visual Studio\2019\Community\VC\Tools\MSVC\14.28.29333\include\xmemory
; File D:\Metin2 Server Files\mainline\SRC_2014\Metin2Client\UserInterface\PythonTextTail.cpp
; File C:\Program Files (x86)\Microsoft Visual Studio\2019\Community\VC\Tools\MSVC\14.28.29333\include\xtree
; File D:\Metin2 Server Files\mainline\SRC_2014\Metin2Client\UserInterface\PythonTextTail.cpp
; File C:\Program Files (x86)\Microsoft Visual Studio\2019\Community\VC\Tools\MSVC\14.28.29333\include\xtree
; File C:\Program Files (x86)\Microsoft Visual Studio\2019\Community\VC\Tools\MSVC\14.28.29333\include\xmemory
; File D:\Metin2 Server Files\mainline\SRC_2014\Metin2Client\UserInterface\PythonTextTail.cpp
;	COMDAT ?DeleteCharacterTextTail@CPythonTextTail@@QAEXK@Z
_TEXT	SEGMENT
__Loc$1 = -20						; size = 12
__Loc$2 = -20						; size = 12
$T3 = -8						; size = 4
_this$1$ = -4						; size = 4
_VirtualID$ = 8						; size = 4
?DeleteCharacterTextTail@CPythonTextTail@@QAEXK@Z PROC	; CPythonTextTail::DeleteCharacterTextTail, COMDAT
; _this$ = ecx

; 756  : {

  00000	55		 push	 ebp
  00001	8b ec		 mov	 ebp, esp
  00003	83 ec 14	 sub	 esp, 20			; 00000014H
  00006	53		 push	 ebx
  00007	56		 push	 esi
  00008	57		 push	 edi
  00009	8b f9		 mov	 edi, ecx
; File C:\Program Files (x86)\Microsoft Visual Studio\2019\Community\VC\Tools\MSVC\14.28.29333\include\xtree

; 1458 :         const _Tree_find_result<_Nodeptr> _Loc = _Find_lower_bound(_Keyval);

  0000b	8d 45 08	 lea	 eax, DWORD PTR _VirtualID$[ebp]
  0000e	50		 push	 eax
  0000f	8d 45 ec	 lea	 eax, DWORD PTR __Loc$2[ebp]
; File D:\Metin2 Server Files\mainline\SRC_2014\Metin2Client\UserInterface\PythonTextTail.cpp

; 756  : {

  00012	89 7d fc	 mov	 DWORD PTR _this$1$[ebp], edi
; File C:\Program Files (x86)\Microsoft Visual Studio\2019\Community\VC\Tools\MSVC\14.28.29333\include\xtree

; 1458 :         const _Tree_find_result<_Nodeptr> _Loc = _Find_lower_bound(_Keyval);

  00015	50		 push	 eax
  00016	8d 4f 04	 lea	 ecx, DWORD PTR [edi+4]
  00019	e8 00 00 00 00	 call	 ??$_Find_lower_bound@K@?$_Tree@V?$_Tmap_traits@KPAUSTextTail@CPythonTextTail@@U?$less@K@std@@V?$allocator@U?$pair@$$CBKPAUSTextTail@CPythonTextTail@@@std@@@4@$0A@@std@@@std@@IBE?AU?$_Tree_find_result@PAU?$_Tree_node@U?$pair@$$CBKPAUSTextTail@CPythonTextTail@@@std@@PAX@std@@@1@ABK@Z ; std::_Tree<std::_Tmap_traits<unsigned long,CPythonTextTail::STextTail *,std::less<unsigned long>,std::allocator<std::pair<unsigned long const ,CPythonTextTail::STextTail *> >,0> >::_Find_lower_bound<unsigned long>

; 1695 :         return !_Bound->_Isnil && !_DEBUG_LT_PRED(_Getcomp(), _Keyval, _Traits::_Kfn(_Bound->_Myval));

  0001e	8b 75 f4	 mov	 esi, DWORD PTR __Loc$2[ebp+8]
  00021	80 7e 0d 00	 cmp	 BYTE PTR [esi+13], 0
  00025	75 10		 jne	 SHORT $LN9@DeleteChar
; File C:\Program Files (x86)\Microsoft Visual Studio\2019\Community\VC\Tools\MSVC\14.28.29333\include\xstddef

; 127  :         return _Left < _Right;

  00027	8b 45 08	 mov	 eax, DWORD PTR _VirtualID$[ebp]
  0002a	3b 46 10	 cmp	 eax, DWORD PTR [esi+16]
; File C:\Program Files (x86)\Microsoft Visual Studio\2019\Community\VC\Tools\MSVC\14.28.29333\include\xtree

; 1695 :         return !_Bound->_Isnil && !_DEBUG_LT_PRED(_Getcomp(), _Keyval, _Traits::_Kfn(_Bound->_Myval));

  0002d	72 08		 jb	 SHORT $LN9@DeleteChar

; 1460 :             return _Loc._Bound;

  0002f	8b 47 04	 mov	 eax, DWORD PTR [edi+4]
  00032	89 45 f8	 mov	 DWORD PTR $T3[ebp], eax
  00035	eb 06		 jmp	 SHORT $LN8@DeleteChar
$LN9@DeleteChar:

; 1461 :         }
; 1462 : 
; 1463 :         return _Get_scary()->_Myhead;

  00037	8b 77 04	 mov	 esi, DWORD PTR [edi+4]
  0003a	89 75 f8	 mov	 DWORD PTR $T3[ebp], esi
$LN8@DeleteChar:

; 1458 :         const _Tree_find_result<_Nodeptr> _Loc = _Find_lower_bound(_Keyval);

  0003d	8d 45 08	 lea	 eax, DWORD PTR _VirtualID$[ebp]
  00040	50		 push	 eax
  00041	8d 45 ec	 lea	 eax, DWORD PTR __Loc$1[ebp]
; File D:\Metin2 Server Files\mainline\SRC_2014\Metin2Client\UserInterface\PythonTextTail.cpp

; 758  : 	TTextTailMap::iterator itorChat = m_ChatTailMap.find(VirtualID);

  00044	8d 5f 14	 lea	 ebx, DWORD PTR [edi+20]
; File C:\Program Files (x86)\Microsoft Visual Studio\2019\Community\VC\Tools\MSVC\14.28.29333\include\xtree

; 1458 :         const _Tree_find_result<_Nodeptr> _Loc = _Find_lower_bound(_Keyval);

  00047	50		 push	 eax
  00048	8b cb		 mov	 ecx, ebx
  0004a	e8 00 00 00 00	 call	 ??$_Find_lower_bound@K@?$_Tree@V?$_Tmap_traits@KPAUSTextTail@CPythonTextTail@@U?$less@K@std@@V?$allocator@U?$pair@$$CBKPAUSTextTail@CPythonTextTail@@@std@@@4@$0A@@std@@@std@@IBE?AU?$_Tree_find_result@PAU?$_Tree_node@U?$pair@$$CBKPAUSTextTail@CPythonTextTail@@@std@@PAX@std@@@1@ABK@Z ; std::_Tree<std::_Tmap_traits<unsigned long,CPythonTextTail::STextTail *,std::less<unsigned long>,std::allocator<std::pair<unsigned long const ,CPythonTextTail::STextTail *> >,0> >::_Find_lower_bound<unsigned long>

; 1695 :         return !_Bound->_Isnil && !_DEBUG_LT_PRED(_Getcomp(), _Keyval, _Traits::_Kfn(_Bound->_Myval));

  0004f	8b 7d f4	 mov	 edi, DWORD PTR __Loc$1[ebp+8]
  00052	8b 45 08	 mov	 eax, DWORD PTR _VirtualID$[ebp]
  00055	80 7f 0d 00	 cmp	 BYTE PTR [edi+13], 0
  00059	75 05		 jne	 SHORT $LN26@DeleteChar
; File C:\Program Files (x86)\Microsoft Visual Studio\2019\Community\VC\Tools\MSVC\14.28.29333\include\xstddef

; 127  :         return _Left < _Right;

  0005b	3b 47 10	 cmp	 eax, DWORD PTR [edi+16]
; File C:\Program Files (x86)\Microsoft Visual Studio\2019\Community\VC\Tools\MSVC\14.28.29333\include\xtree

; 1695 :         return !_Bound->_Isnil && !_DEBUG_LT_PRED(_Getcomp(), _Keyval, _Traits::_Kfn(_Bound->_Myval));

  0005e	73 02		 jae	 SHORT $LN25@DeleteChar
$LN26@DeleteChar:

; 1463 :         return _Get_scary()->_Myhead;

  00060	8b 3b		 mov	 edi, DWORD PTR [ebx]
$LN25@DeleteChar:

; 39   :     _Tree_unchecked_const_iterator(_Nodeptr _Pnode, const _Mytree* _Plist) noexcept : _Ptr(_Pnode) {

  00062	39 75 f8	 cmp	 DWORD PTR $T3[ebp], esi
; File D:\Metin2 Server Files\mainline\SRC_2014\Metin2Client\UserInterface\PythonTextTail.cpp

; 760  : 	if (m_CharacterTextTailMap.end() != itorCharacter)

  00065	74 21		 je	 SHORT $LN2@DeleteChar

; 761  : 	{
; 762  : 		DeleteTextTail(itorCharacter->second);

  00067	ff 76 14	 push	 DWORD PTR [esi+20]
  0006a	8b 4d fc	 mov	 ecx, DWORD PTR _this$1$[ebp]
  0006d	e8 00 00 00 00	 call	 ?DeleteTextTail@CPythonTextTail@@IAEXPAUSTextTail@1@@Z ; CPythonTextTail::DeleteTextTail
; File C:\Program Files (x86)\Microsoft Visual Studio\2019\Community\VC\Tools\MSVC\14.28.29333\include\xtree

; 1389 :         _Nodeptr _Erasednode = _Scary->_Extract(_Where); // node to erase

  00072	56		 push	 esi
  00073	8b 75 fc	 mov	 esi, DWORD PTR _this$1$[ebp]
  00076	8d 4e 04	 lea	 ecx, DWORD PTR [esi+4]
  00079	e8 00 00 00 00	 call	 ?_Extract@?$_Tree_val@U?$_Tree_simple_types@U?$pair@$$CBKPAUSTextTail@CPythonTextTail@@@std@@@std@@@std@@QAEPAU?$_Tree_node@U?$pair@$$CBKPAUSTextTail@CPythonTextTail@@@std@@PAX@2@V?$_Tree_unchecked_const_iterator@V?$_Tree_val@U?$_Tree_simple_types@U?$pair@$$CBKPAUSTextTail@CPythonTextTail@@@std@@@std@@@std@@U_Iterator_base0@2@@2@@Z ; std::_Tree_val<std::_Tree_simple_types<std::pair<unsigned long const ,CPythonTextTail::STextTail *> > >::_Extract
; File C:\Program Files (x86)\Microsoft Visual Studio\2019\Community\VC\Tools\MSVC\14.28.29333\include\xmemory

; 696  :         _Deallocate<_New_alignof<value_type>>(_Ptr, sizeof(value_type) * _Count);

  0007e	6a 18		 push	 24			; 00000018H
  00080	50		 push	 eax
  00081	e8 00 00 00 00	 call	 ??$_Deallocate@$07$0A@@std@@YAXPAXI@Z ; std::_Deallocate<8,0>
; File D:\Metin2 Server Files\mainline\SRC_2014\Metin2Client\UserInterface\PythonTextTail.cpp

; 764  : 	}

  00086	eb 0e		 jmp	 SHORT $LN123@DeleteChar
$LN2@DeleteChar:

; 765  : 	else
; 766  : 	{
; 767  : 		Tracenf("CPythonTextTail::DeleteCharacterTextTail - Find VID[%d] Error", VirtualID);

  00088	50		 push	 eax
  00089	68 00 00 00 00	 push	 OFFSET ??_C@_0DO@PHLLOPOI@CPythonTextTail?3?3DeleteCharacte@
  0008e	e8 00 00 00 00	 call	 ?Tracenf@@YAXPBDZZ	; Tracenf
  00093	8b 75 fc	 mov	 esi, DWORD PTR _this$1$[ebp]
$LN123@DeleteChar:
; File C:\Program Files (x86)\Microsoft Visual Studio\2019\Community\VC\Tools\MSVC\14.28.29333\include\xtree

; 39   :     _Tree_unchecked_const_iterator(_Nodeptr _Pnode, const _Mytree* _Plist) noexcept : _Ptr(_Pnode) {

  00096	83 c4 08	 add	 esp, 8
  00099	39 3b		 cmp	 DWORD PTR [ebx], edi
; File D:\Metin2 Server Files\mainline\SRC_2014\Metin2Client\UserInterface\PythonTextTail.cpp

; 770  : 	if (m_ChatTailMap.end() != itorChat)

  0009b	74 1d		 je	 SHORT $LN119@DeleteChar

; 771  : 	{
; 772  : 		DeleteTextTail(itorChat->second);

  0009d	ff 77 14	 push	 DWORD PTR [edi+20]
  000a0	8b ce		 mov	 ecx, esi
  000a2	e8 00 00 00 00	 call	 ?DeleteTextTail@CPythonTextTail@@IAEXPAUSTextTail@1@@Z ; CPythonTextTail::DeleteTextTail
; File C:\Program Files (x86)\Microsoft Visual Studio\2019\Community\VC\Tools\MSVC\14.28.29333\include\xtree

; 1389 :         _Nodeptr _Erasednode = _Scary->_Extract(_Where); // node to erase

  000a7	57		 push	 edi
  000a8	8b cb		 mov	 ecx, ebx
  000aa	e8 00 00 00 00	 call	 ?_Extract@?$_Tree_val@U?$_Tree_simple_types@U?$pair@$$CBKPAUSTextTail@CPythonTextTail@@@std@@@std@@@std@@QAEPAU?$_Tree_node@U?$pair@$$CBKPAUSTextTail@CPythonTextTail@@@std@@PAX@2@V?$_Tree_unchecked_const_iterator@V?$_Tree_val@U?$_Tree_simple_types@U?$pair@$$CBKPAUSTextTail@CPythonTextTail@@@std@@@std@@@std@@U_Iterator_base0@2@@2@@Z ; std::_Tree_val<std::_Tree_simple_types<std::pair<unsigned long const ,CPythonTextTail::STextTail *> > >::_Extract
; File C:\Program Files (x86)\Microsoft Visual Studio\2019\Community\VC\Tools\MSVC\14.28.29333\include\xmemory

; 696  :         _Deallocate<_New_alignof<value_type>>(_Ptr, sizeof(value_type) * _Count);

  000af	6a 18		 push	 24			; 00000018H
  000b1	50		 push	 eax
  000b2	e8 00 00 00 00	 call	 ??$_Deallocate@$07$0A@@std@@YAXPAXI@Z ; std::_Deallocate<8,0>
  000b7	83 c4 08	 add	 esp, 8
$LN119@DeleteChar:
  000ba	5f		 pop	 edi
; File D:\Metin2 Server Files\mainline\SRC_2014\Metin2Client\UserInterface\PythonTextTail.cpp

; 775  : }

  000bb	5e		 pop	 esi
  000bc	5b		 pop	 ebx
  000bd	8b e5		 mov	 esp, ebp
  000bf	5d		 pop	 ebp
  000c0	c2 04 00	 ret	 4
?DeleteCharacterTextTail@CPythonTextTail@@QAEXK@Z ENDP	; CPythonTextTail::DeleteCharacterTextTail
_TEXT	ENDS
; Function compile flags: /Ogtp
; File D:\Metin2 Server Files\mainline\SRC_2014\Metin2Client\UserInterface\PythonTextTail.cpp
; File C:\Program Files (x86)\Microsoft Visual Studio\2019\Community\VC\Tools\MSVC\14.28.29333\include\xtree
; File D:\Metin2 Server Files\mainline\SRC_2014\Metin2Client\UserInterface\PythonTextTail.cpp
; File C:\Program Files (x86)\Microsoft Visual Studio\2019\Community\VC\Tools\MSVC\14.28.29333\include\xtree
; File C:\Program Files (x86)\Microsoft Visual Studio\2019\Community\VC\Tools\MSVC\14.28.29333\include\xstddef
; File C:\Program Files (x86)\Microsoft Visual Studio\2019\Community\VC\Tools\MSVC\14.28.29333\include\xtree
; File D:\Metin2 Server Files\mainline\SRC_2014\Metin2Client\UserInterface\PythonTextTail.cpp
; File C:\Program Files (x86)\Microsoft Visual Studio\2019\Community\VC\Tools\MSVC\14.28.29333\include\xstring
; File D:\Metin2 Server Files\mainline\SRC_2014\Metin2Client\UserInterface\PythonTextTail.cpp
; File C:\Program Files (x86)\Microsoft Visual Studio\2019\Community\VC\Tools\MSVC\14.28.29333\include\xstring
; File D:\Metin2 Server Files\mainline\SRC_2014\Metin2Client\UserInterface\PythonTextTail.cpp
; File C:\Program Files (x86)\Microsoft Visual Studio\2019\Community\VC\Tools\MSVC\14.28.29333\include\xstring
; File D:\Metin2 Server Files\mainline\SRC_2014\Metin2Client\UserInterface\PythonTextTail.cpp
; File C:\Program Files (x86)\Microsoft Visual Studio\2019\Community\VC\Tools\MSVC\14.28.29333\include\xstring
; File D:\Metin2 Server Files\mainline\SRC_2014\Metin2Client\UserInterface\PythonTextTail.cpp
; File C:\Program Files (x86)\Microsoft Visual Studio\2019\Community\VC\Tools\MSVC\14.28.29333\include\xstring
; File D:\Metin2 Server Files\mainline\SRC_2014\Metin2Client\UserInterface\PythonTextTail.cpp
; File C:\Program Files (x86)\Microsoft Visual Studio\2019\Community\VC\Tools\MSVC\14.28.29333\include\xstring
; File C:\Program Files (x86)\Microsoft Visual Studio\2019\Community\VC\Tools\MSVC\14.28.29333\include\xmemory
; File D:\Metin2 Server Files\mainline\SRC_2014\Metin2Client\UserInterface\PythonTextTail.cpp
; File C:\Program Files (x86)\Microsoft Visual Studio\2019\Community\VC\Tools\MSVC\14.28.29333\include\xstring
; File D:\Metin2 Server Files\mainline\SRC_2014\Metin2Client\UserInterface\PythonTextTail.cpp
; File C:\Program Files (x86)\Microsoft Visual Studio\2019\Community\VC\Tools\MSVC\14.28.29333\include\xstring
; File C:\Program Files (x86)\Microsoft Visual Studio\2019\Community\VC\Tools\MSVC\14.28.29333\include\xmemory
; File D:\Metin2 Server Files\mainline\SRC_2014\Metin2Client\UserInterface\PythonTextTail.cpp
;	COMDAT ?SetItemTextTailOwner@CPythonTextTail@@QAEXKPBD@Z
_TEXT	SEGMENT
_yOwnerSize$2 = -104					; size = 4
tv130 = -100						; size = 4
_ySize$3 = -100						; size = 4
_xOwnerSize$4 = -96					; size = 4
$T5 = -92						; size = 4
_xSize$6 = -92						; size = 4
$T7 = -88						; size = 24
$T8 = -64						; size = 24
_strName$9 = -40					; size = 24
__Loc$10 = -28						; size = 12
__$ArrayPad$ = -16					; size = 4
__$EHRec$ = -12						; size = 12
_dwVID$ = 8						; size = 4
_c_szName$ = 12						; size = 4
?SetItemTextTailOwner@CPythonTextTail@@QAEXKPBD@Z PROC	; CPythonTextTail::SetItemTextTailOwner, COMDAT
; _this$ = ecx

; 706  : {

  00000	55		 push	 ebp
  00001	8b ec		 mov	 ebp, esp
  00003	6a ff		 push	 -1
  00005	68 00 00 00 00	 push	 __ehhandler$?SetItemTextTailOwner@CPythonTextTail@@QAEXKPBD@Z
  0000a	64 a1 00 00 00
	00		 mov	 eax, DWORD PTR fs:0
  00010	50		 push	 eax
  00011	83 ec 5c	 sub	 esp, 92			; 0000005cH
  00014	a1 00 00 00 00	 mov	 eax, DWORD PTR ___security_cookie
  00019	33 c5		 xor	 eax, ebp
  0001b	89 45 f0	 mov	 DWORD PTR __$ArrayPad$[ebp], eax
  0001e	53		 push	 ebx
  0001f	56		 push	 esi
  00020	57		 push	 edi
  00021	50		 push	 eax
  00022	8d 45 f4	 lea	 eax, DWORD PTR __$EHRec$[ebp]
  00025	64 a3 00 00 00
	00		 mov	 DWORD PTR fs:0, eax
  0002b	8b 5d 0c	 mov	 ebx, DWORD PTR _c_szName$[ebp]
; File C:\Program Files (x86)\Microsoft Visual Studio\2019\Community\VC\Tools\MSVC\14.28.29333\include\xtree

; 1458 :         const _Tree_find_result<_Nodeptr> _Loc = _Find_lower_bound(_Keyval);

  0002e	8d 45 08	 lea	 eax, DWORD PTR _dwVID$[ebp]
  00031	50		 push	 eax
; File D:\Metin2 Server Files\mainline\SRC_2014\Metin2Client\UserInterface\PythonTextTail.cpp

; 707  : 	TTextTailMap::iterator itor = m_ItemTextTailMap.find(dwVID);

  00032	8d 79 0c	 lea	 edi, DWORD PTR [ecx+12]
  00035	c7 45 a4 00 00
	00 00		 mov	 DWORD PTR $T5[ebp], 0
; File C:\Program Files (x86)\Microsoft Visual Studio\2019\Community\VC\Tools\MSVC\14.28.29333\include\xtree

; 1458 :         const _Tree_find_result<_Nodeptr> _Loc = _Find_lower_bound(_Keyval);

  0003c	8d 45 e4	 lea	 eax, DWORD PTR __Loc$10[ebp]
  0003f	8b cf		 mov	 ecx, edi
  00041	50		 push	 eax
  00042	e8 00 00 00 00	 call	 ??$_Find_lower_bound@K@?$_Tree@V?$_Tmap_traits@KPAUSTextTail@CPythonTextTail@@U?$less@K@std@@V?$allocator@U?$pair@$$CBKPAUSTextTail@CPythonTextTail@@@std@@@4@$0A@@std@@@std@@IBE?AU?$_Tree_find_result@PAU?$_Tree_node@U?$pair@$$CBKPAUSTextTail@CPythonTextTail@@@std@@PAX@std@@@1@ABK@Z ; std::_Tree<std::_Tmap_traits<unsigned long,CPythonTextTail::STextTail *,std::less<unsigned long>,std::allocator<std::pair<unsigned long const ,CPythonTextTail::STextTail *> >,0> >::_Find_lower_bound<unsigned long>

; 1695 :         return !_Bound->_Isnil && !_DEBUG_LT_PRED(_Getcomp(), _Keyval, _Traits::_Kfn(_Bound->_Myval));

  00047	8b 75 ec	 mov	 esi, DWORD PTR __Loc$10[ebp+8]
  0004a	80 7e 0d 00	 cmp	 BYTE PTR [esi+13], 0
  0004e	75 08		 jne	 SHORT $LN22@SetItemTex
; File C:\Program Files (x86)\Microsoft Visual Studio\2019\Community\VC\Tools\MSVC\14.28.29333\include\xstddef

; 127  :         return _Left < _Right;

  00050	8b 45 08	 mov	 eax, DWORD PTR _dwVID$[ebp]
  00053	3b 46 10	 cmp	 eax, DWORD PTR [esi+16]
; File C:\Program Files (x86)\Microsoft Visual Studio\2019\Community\VC\Tools\MSVC\14.28.29333\include\xtree

; 1695 :         return !_Bound->_Isnil && !_DEBUG_LT_PRED(_Getcomp(), _Keyval, _Traits::_Kfn(_Bound->_Myval));

  00056	73 02		 jae	 SHORT $LN21@SetItemTex
$LN22@SetItemTex:

; 1463 :         return _Get_scary()->_Myhead;

  00058	8b 37		 mov	 esi, DWORD PTR [edi]
$LN21@SetItemTex:
; File D:\Metin2 Server Files\mainline\SRC_2014\Metin2Client\UserInterface\PythonTextTail.cpp

; 708  : 	if (m_ItemTextTailMap.end() == itor)

  0005a	39 37		 cmp	 DWORD PTR [edi], esi
  0005c	0f 84 f6 01 00
	00		 je	 $LN5@SetItemTex

; 709  : 		return;
; 710  : 
; 711  : 	TTextTail * pTextTail = itor->second;

  00062	8b 76 14	 mov	 esi, DWORD PTR [esi+20]

; 712  : 
; 713  : 	if (strlen(c_szName) > 0)

  00065	8b cb		 mov	 ecx, ebx
  00067	8d 51 01	 lea	 edx, DWORD PTR [ecx+1]
  0006a	66 0f 1f 44 00
	00		 npad	 6
$LL152@SetItemTex:
  00070	8a 01		 mov	 al, BYTE PTR [ecx]
  00072	41		 inc	 ecx
  00073	84 c0		 test	 al, al
  00075	75 f9		 jne	 SHORT $LL152@SetItemTex
  00077	8b 46 08	 mov	 eax, DWORD PTR [esi+8]
  0007a	2b ca		 sub	 ecx, edx
  0007c	0f 84 74 01 00
	00		 je	 $LN4@SetItemTex

; 714  : 	{
; 715  : 		if (!pTextTail->pOwnerTextInstance)

  00082	85 c0		 test	 eax, eax
  00084	75 08		 jne	 SHORT $LN6@SetItemTex

; 716  : 		{
; 717  : 			pTextTail->pOwnerTextInstance = CGraphicTextInstance::New();

  00086	e8 00 00 00 00	 call	 ?New@CGraphicTextInstance@@SAPAV1@XZ ; CGraphicTextInstance::New
  0008b	89 46 08	 mov	 DWORD PTR [esi+8], eax
$LN6@SetItemTex:
; File C:\Program Files (x86)\Microsoft Visual Studio\2019\Community\VC\Tools\MSVC\14.28.29333\include\xstring

; 389  :         return _CSTD strlen(reinterpret_cast<const char*>(_First));

  0008e	8b cb		 mov	 ecx, ebx

; 4377 :         _Mypair._Myval2._Mysize = 0;

  00090	c7 45 e8 00 00
	00 00		 mov	 DWORD PTR _strName$9[ebp+16], 0

; 4378 :         _Mypair._Myval2._Myres  = _BUF_SIZE - 1;

  00097	c7 45 ec 0f 00
	00 00		 mov	 DWORD PTR _strName$9[ebp+20], 15 ; 0000000fH

; 4379 :         // the _Traits::assign is last so the codegen doesn't think the char write can alias this
; 4380 :         _Traits::assign(_Mypair._Myval2._Bx._Buf[0], _Elem());

  0009e	c6 45 d8 00	 mov	 BYTE PTR _strName$9[ebp], 0

; 389  :         return _CSTD strlen(reinterpret_cast<const char*>(_First));

  000a2	8d 51 01	 lea	 edx, DWORD PTR [ecx+1]
$LL153@SetItemTex:
  000a5	8a 01		 mov	 al, BYTE PTR [ecx]
  000a7	41		 inc	 ecx
  000a8	84 c0		 test	 al, al
  000aa	75 f9		 jne	 SHORT $LL153@SetItemTex
  000ac	2b ca		 sub	 ecx, edx

; 3062 :         return assign(_Ptr, _Convert_size<size_type>(_Traits::length(_Ptr)));

  000ae	51		 push	 ecx
  000af	53		 push	 ebx
  000b0	8d 4d d8	 lea	 ecx, DWORD PTR _strName$9[ebp]
  000b3	e8 00 00 00 00	 call	 ?assign@?$basic_string@DU?$char_traits@D@std@@V?$allocator@D@2@@std@@QAEAAV12@QBDI@Z ; std::basic_string<char,std::char_traits<char>,std::allocator<char> >::assign
; File D:\Metin2 Server Files\mainline\SRC_2014\Metin2Client\UserInterface\PythonTextTail.cpp

; 721  : 		static const string & strOwnership = ApplicationStringTable_GetString(IDS_POSSESSIVE_MORPHENE) == "" ? "'s" : ApplicationStringTable_GetString(IDS_POSSESSIVE_MORPHENE);

  000b8	64 a1 00 00 00
	00		 mov	 eax, DWORD PTR fs:__tls_array
  000be	8b 0d 00 00 00
	00		 mov	 ecx, DWORD PTR __tls_index
  000c4	c7 45 fc 00 00
	00 00		 mov	 DWORD PTR __$EHRec$[ebp+8], 0
  000cb	8b 0c 88	 mov	 ecx, DWORD PTR [eax+ecx*4]
  000ce	a1 00 00 00 00	 mov	 eax, DWORD PTR ?$TSS0@?6??SetItemTextTailOwner@CPythonTextTail@@QAEXKPBD@Z@4HA
  000d3	3b 81 00 00 00
	00		 cmp	 eax, DWORD PTR __Init_thread_epoch[ecx]
  000d9	0f 8f 97 01 00
	00		 jg	 $LN157@SetItemTex
$LN2@SetItemTex:
; File C:\Program Files (x86)\Microsoft Visual Studio\2019\Community\VC\Tools\MSVC\14.28.29333\include\xstring

; 2218 :         const value_type* _Result = _Bx._Buf;

  000df	a1 00 00 00 00	 mov	 eax, DWORD PTR ?strOwnership@?6??SetItemTextTailOwner@CPythonTextTail@@QAEXKPBD@Z@4ABV?$basic_string@DU?$char_traits@D@std@@V?$allocator@D@2@@std@@B
  000e4	8b c8		 mov	 ecx, eax

; 2227 :         return _BUF_SIZE <= _Myres;

  000e6	83 78 14 10	 cmp	 DWORD PTR [eax+20], 16	; 00000010H

; 2219 :         if (_Large_string_engaged()) {

  000ea	72 02		 jb	 SHORT $LN130@SetItemTex

; 2220 :             _Result = _Unfancy(_Bx._Ptr);

  000ec	8b 08		 mov	 ecx, DWORD PTR [eax]
$LN130@SetItemTex:

; 2910 :         return append(_Right._Mypair._Myval2._Myptr(), _Right._Mypair._Myval2._Mysize);

  000ee	ff 70 10	 push	 DWORD PTR [eax+16]
  000f1	51		 push	 ecx
  000f2	8d 4d d8	 lea	 ecx, DWORD PTR _strName$9[ebp]
  000f5	e8 00 00 00 00	 call	 ?append@?$basic_string@DU?$char_traits@D@std@@V?$allocator@D@2@@std@@QAEAAV12@QBDI@Z ; std::basic_string<char,std::char_traits<char>,std::allocator<char> >::append
; File D:\Metin2 Server Files\mainline\SRC_2014\Metin2Client\UserInterface\PythonTextTail.cpp

; 725  : 		pTextTail->pOwnerTextInstance->SetTextPointer(ms_pFont);

  000fa	ff 35 00 00 00
	00		 push	 DWORD PTR ?ms_pFont@@3PAVCGraphicText@@A ; ms_pFont
  00100	8b 4e 08	 mov	 ecx, DWORD PTR [esi+8]
  00103	e8 00 00 00 00	 call	 ?SetTextPointer@CGraphicTextInstance@@QAEXPAVCGraphicText@@@Z ; CGraphicTextInstance::SetTextPointer

; 726  : 		pTextTail->pOwnerTextInstance->SetHorizonalAlign(CGraphicTextInstance::HORIZONTAL_ALIGN_CENTER);

  00108	8b 4e 08	 mov	 ecx, DWORD PTR [esi+8]
  0010b	6a 02		 push	 2
  0010d	e8 00 00 00 00	 call	 ?SetHorizonalAlign@CGraphicTextInstance@@QAEXH@Z ; CGraphicTextInstance::SetHorizonalAlign
; File C:\Program Files (x86)\Microsoft Visual Studio\2019\Community\VC\Tools\MSVC\14.28.29333\include\xstring

; 2227 :         return _BUF_SIZE <= _Myres;

  00112	83 7d ec 10	 cmp	 DWORD PTR _strName$9[ebp+20], 16 ; 00000010H

; 2218 :         const value_type* _Result = _Bx._Buf;

  00116	8d 45 d8	 lea	 eax, DWORD PTR _strName$9[ebp]
; File D:\Metin2 Server Files\mainline\SRC_2014\Metin2Client\UserInterface\PythonTextTail.cpp

; 727  : 		pTextTail->pOwnerTextInstance->SetValue(strName.c_str());

  00119	8b 4e 08	 mov	 ecx, DWORD PTR [esi+8]
; File C:\Program Files (x86)\Microsoft Visual Studio\2019\Community\VC\Tools\MSVC\14.28.29333\include\xstring

; 2219 :         if (_Large_string_engaged()) {

  0011c	0f 43 45 d8	 cmovae	 eax, DWORD PTR _strName$9[ebp]
; File D:\Metin2 Server Files\mainline\SRC_2014\Metin2Client\UserInterface\PythonTextTail.cpp

; 727  : 		pTextTail->pOwnerTextInstance->SetValue(strName.c_str());

  00120	6a ff		 push	 -1
  00122	50		 push	 eax
  00123	e8 00 00 00 00	 call	 ?SetValue@CGraphicTextInstance@@QAEXPBDI@Z ; CGraphicTextInstance::SetValue

; 728  : 		pTextTail->pOwnerTextInstance->SetColor(1.0f, 1.0f, 0.0f);

  00128	8b 4e 08	 mov	 ecx, DWORD PTR [esi+8]
  0012b	83 ec 10	 sub	 esp, 16			; 00000010H
  0012e	c7 44 24 0c 00
	00 80 3f	 mov	 DWORD PTR [esp+12], 1065353216 ; 3f800000H
  00136	c7 44 24 08 00
	00 00 00	 mov	 DWORD PTR [esp+8], 0
  0013e	c7 44 24 04 00
	00 80 3f	 mov	 DWORD PTR [esp+4], 1065353216 ; 3f800000H
  00146	c7 04 24 00 00
	80 3f		 mov	 DWORD PTR [esp], 1065353216 ; 3f800000H
  0014d	e8 00 00 00 00	 call	 ?SetColor@CGraphicTextInstance@@QAEXMMMM@Z ; CGraphicTextInstance::SetColor

; 729  : 		pTextTail->pOwnerTextInstance->Update();

  00152	8b 4e 08	 mov	 ecx, DWORD PTR [esi+8]
  00155	e8 00 00 00 00	 call	 ?Update@CGraphicTextInstance@@QAEXXZ ; CGraphicTextInstance::Update

; 730  : 
; 731  : 		int xOwnerSize, yOwnerSize;
; 732  : 		pTextTail->pOwnerTextInstance->GetTextSize(&xOwnerSize, &yOwnerSize);

  0015a	8b 4e 08	 mov	 ecx, DWORD PTR [esi+8]
  0015d	8d 45 98	 lea	 eax, DWORD PTR _yOwnerSize$2[ebp]
  00160	50		 push	 eax
  00161	8d 45 a0	 lea	 eax, DWORD PTR _xOwnerSize$4[ebp]
  00164	50		 push	 eax
  00165	e8 00 00 00 00	 call	 ?GetTextSize@CGraphicTextInstance@@QAEXPAH0@Z ; CGraphicTextInstance::GetTextSize

; 733  : 		pTextTail->yStart	= -2.0f;
; 734  : 		pTextTail->yEnd		+= float(yOwnerSize + 4);

  0016a	8b 45 98	 mov	 eax, DWORD PTR _yOwnerSize$2[ebp]

; 735  : 		pTextTail->xStart	= fMIN(pTextTail->xStart, float(-xOwnerSize / 2 - 1));

  0016d	83 ec 08	 sub	 esp, 8
  00170	83 c0 04	 add	 eax, 4
  00173	c7 46 4c 00 00
	00 c0		 mov	 DWORD PTR [esi+76], -1073741824 ; c0000000H
  0017a	66 0f 6e c0	 movd	 xmm0, eax
  0017e	8b 45 a0	 mov	 eax, DWORD PTR _xOwnerSize$4[ebp]
  00181	0f 5b c0	 cvtdq2ps xmm0, xmm0
  00184	99		 cdq
  00185	2b c2		 sub	 eax, edx
  00187	d1 f8		 sar	 eax, 1
  00189	f7 d0		 not	 eax
  0018b	f3 0f 58 46 54	 addss	 xmm0, DWORD PTR [esi+84]
  00190	f3 0f 11 46 54	 movss	 DWORD PTR [esi+84], xmm0
  00195	66 0f 6e c0	 movd	 xmm0, eax
  00199	0f 5b c0	 cvtdq2ps xmm0, xmm0
  0019c	f3 0f 11 44 24
	04		 movss	 DWORD PTR [esp+4], xmm0
  001a2	f3 0f 10 46 48	 movss	 xmm0, DWORD PTR [esi+72]
  001a7	f3 0f 11 04 24	 movss	 DWORD PTR [esp], xmm0
  001ac	e8 00 00 00 00	 call	 ?fMIN@@YAMMM@Z		; fMIN

; 736  : 		pTextTail->xEnd		= fMAX(pTextTail->xEnd, float(xOwnerSize / 2 + 1));

  001b1	8b 45 a0	 mov	 eax, DWORD PTR _xOwnerSize$4[ebp]
  001b4	99		 cdq
  001b5	2b c2		 sub	 eax, edx
  001b7	d1 f8		 sar	 eax, 1
  001b9	40		 inc	 eax
  001ba	d9 5e 48	 fstp	 DWORD PTR [esi+72]
  001bd	66 0f 6e c0	 movd	 xmm0, eax
  001c1	0f 5b c0	 cvtdq2ps xmm0, xmm0
  001c4	f3 0f 11 44 24
	04		 movss	 DWORD PTR [esp+4], xmm0
  001ca	f3 0f 10 46 50	 movss	 xmm0, DWORD PTR [esi+80]
  001cf	f3 0f 11 04 24	 movss	 DWORD PTR [esp], xmm0
  001d4	e8 00 00 00 00	 call	 ?fMAX@@YAMMM@Z		; fMAX
; File C:\Program Files (x86)\Microsoft Visual Studio\2019\Community\VC\Tools\MSVC\14.28.29333\include\xstring

; 2227 :         return _BUF_SIZE <= _Myres;

  001d9	8b 45 ec	 mov	 eax, DWORD PTR _strName$9[ebp+20]
; File D:\Metin2 Server Files\mainline\SRC_2014\Metin2Client\UserInterface\PythonTextTail.cpp

; 736  : 		pTextTail->xEnd		= fMAX(pTextTail->xEnd, float(xOwnerSize / 2 + 1));

  001dc	83 c4 08	 add	 esp, 8
  001df	d9 5e 50	 fstp	 DWORD PTR [esi+80]
; File C:\Program Files (x86)\Microsoft Visual Studio\2019\Community\VC\Tools\MSVC\14.28.29333\include\xstring

; 2227 :         return _BUF_SIZE <= _Myres;

  001e2	83 f8 10	 cmp	 eax, 16			; 00000010H

; 4385 :         if (_Mypair._Myval2._Large_string_engaged()) {

  001e5	72 71		 jb	 SHORT $LN5@SetItemTex

; 4386 :             const pointer _Ptr = _Mypair._Myval2._Bx._Ptr;
; 4387 :             auto& _Al          = _Getal();
; 4388 :             _Destroy_in_place(_Mypair._Myval2._Bx._Ptr);
; 4389 :             _Al.deallocate(_Ptr, _Mypair._Myval2._Myres + 1);

  001e7	40		 inc	 eax
; File C:\Program Files (x86)\Microsoft Visual Studio\2019\Community\VC\Tools\MSVC\14.28.29333\include\xmemory

; 810  :         _Deallocate<_New_alignof<_Ty>>(_Ptr, sizeof(_Ty) * _Count);

  001e8	50		 push	 eax
  001e9	ff 75 d8	 push	 DWORD PTR _strName$9[ebp]
  001ec	e8 00 00 00 00	 call	 ??$_Deallocate@$07$0A@@std@@YAXPAXI@Z ; std::_Deallocate<8,0>
  001f1	83 c4 08	 add	 esp, 8
; File D:\Metin2 Server Files\mainline\SRC_2014\Metin2Client\UserInterface\PythonTextTail.cpp

; 737  : 	}

  001f4	eb 62		 jmp	 SHORT $LN5@SetItemTex
$LN4@SetItemTex:

; 738  : 	else
; 739  : 	{
; 740  : 		if (pTextTail->pOwnerTextInstance)

  001f6	85 c0		 test	 eax, eax
  001f8	74 10		 je	 SHORT $LN7@SetItemTex

; 741  : 		{
; 742  : 			CGraphicTextInstance::Delete(pTextTail->pOwnerTextInstance);

  001fa	50		 push	 eax
  001fb	e8 00 00 00 00	 call	 ?Delete@CGraphicTextInstance@@SAXPAV1@@Z ; CGraphicTextInstance::Delete
  00200	83 c4 04	 add	 esp, 4

; 743  : 			pTextTail->pOwnerTextInstance = NULL;

  00203	c7 46 08 00 00
	00 00		 mov	 DWORD PTR [esi+8], 0
$LN7@SetItemTex:

; 744  : 		}
; 745  : 
; 746  : 		int xSize, ySize;
; 747  : 		pTextTail->pTextInstance->GetTextSize(&xSize, &ySize);

  0020a	8b 4e 04	 mov	 ecx, DWORD PTR [esi+4]
  0020d	8d 45 9c	 lea	 eax, DWORD PTR _ySize$3[ebp]
  00210	50		 push	 eax
  00211	8d 45 a4	 lea	 eax, DWORD PTR _xSize$6[ebp]
  00214	50		 push	 eax
  00215	e8 00 00 00 00	 call	 ?GetTextSize@CGraphicTextInstance@@QAEXPAH0@Z ; CGraphicTextInstance::GetTextSize

; 748  : 		pTextTail->xStart	= (float) (-xSize / 2 - 2);

  0021a	8b 45 a4	 mov	 eax, DWORD PTR _xSize$6[ebp]
  0021d	b9 fe ff ff ff	 mov	 ecx, -2			; fffffffeH
  00222	99		 cdq
  00223	2b c2		 sub	 eax, edx

; 749  : 		pTextTail->yStart	= -2.0f;

  00225	c7 46 4c 00 00
	00 c0		 mov	 DWORD PTR [esi+76], -1073741824 ; c0000000H
  0022c	d1 f8		 sar	 eax, 1
  0022e	2b c8		 sub	 ecx, eax

; 750  : 		pTextTail->xEnd		= (float) (xSize / 2 + 2);

  00230	83 c0 02	 add	 eax, 2
  00233	66 0f 6e c1	 movd	 xmm0, ecx
  00237	0f 5b c0	 cvtdq2ps xmm0, xmm0
  0023a	f3 0f 11 46 48	 movss	 DWORD PTR [esi+72], xmm0
  0023f	66 0f 6e c0	 movd	 xmm0, eax
  00243	0f 5b c0	 cvtdq2ps xmm0, xmm0
  00246	f3 0f 11 46 50	 movss	 DWORD PTR [esi+80], xmm0
  0024b	66 0f 6e 45 9c	 movd	 xmm0, DWORD PTR _ySize$3[ebp]

; 751  : 		pTextTail->yEnd		= (float) ySize;

  00250	0f 5b c0	 cvtdq2ps xmm0, xmm0
  00253	f3 0f 11 46 54	 movss	 DWORD PTR [esi+84], xmm0
$LN5@SetItemTex:

; 752  : 	}
; 753  : }

  00258	8b 4d f4	 mov	 ecx, DWORD PTR __$EHRec$[ebp]
  0025b	64 89 0d 00 00
	00 00		 mov	 DWORD PTR fs:0, ecx
  00262	59		 pop	 ecx
  00263	5f		 pop	 edi
  00264	5e		 pop	 esi
  00265	5b		 pop	 ebx
  00266	8b 4d f0	 mov	 ecx, DWORD PTR __$ArrayPad$[ebp]
  00269	33 cd		 xor	 ecx, ebp
  0026b	e8 00 00 00 00	 call	 @__security_check_cookie@4
  00270	8b e5		 mov	 esp, ebp
  00272	5d		 pop	 ebp
  00273	c2 08 00	 ret	 8
$LN157@SetItemTex:

; 721  : 		static const string & strOwnership = ApplicationStringTable_GetString(IDS_POSSESSIVE_MORPHENE) == "" ? "'s" : ApplicationStringTable_GetString(IDS_POSSESSIVE_MORPHENE);

  00276	68 00 00 00 00	 push	 OFFSET ?$TSS0@?6??SetItemTextTailOwner@CPythonTextTail@@QAEXKPBD@Z@4HA
  0027b	e8 00 00 00 00	 call	 __Init_thread_header
  00280	83 c4 04	 add	 esp, 4
  00283	83 3d 00 00 00
	00 ff		 cmp	 DWORD PTR ?$TSS0@?6??SetItemTextTailOwner@CPythonTextTail@@QAEXKPBD@Z@4HA, -1
  0028a	0f 85 4f fe ff
	ff		 jne	 $LN2@SetItemTex
  00290	68 00 00 00 00	 push	 OFFSET ??__F$S12@?6??SetItemTextTailOwner@CPythonTextTail@@QAEXKPBD@Z@YAXXZ ; `CPythonTextTail::SetItemTextTailOwner'::`7'::`dynamic atexit destructor for '$S12''
  00295	c6 45 fc 01	 mov	 BYTE PTR __$EHRec$[ebp+8], 1
  00299	e8 00 00 00 00	 call	 _atexit
  0029e	83 c4 04	 add	 esp, 4
  002a1	68 00 00 00 00	 push	 OFFSET ??_C@_00CNPNBAHC@@
  002a6	6a 02		 push	 2
  002a8	e8 00 00 00 00	 call	 ?ApplicationStringTable_GetString@@YAABV?$basic_string@DU?$char_traits@D@std@@V?$allocator@D@2@@std@@K@Z ; ApplicationStringTable_GetString
  002ad	83 c4 04	 add	 esp, 4
  002b0	50		 push	 eax
  002b1	e8 00 00 00 00	 call	 ??$?8DU?$char_traits@D@std@@V?$allocator@D@1@@std@@YA_NABV?$basic_string@DU?$char_traits@D@std@@V?$allocator@D@2@@0@QBD@Z ; std::operator==<char,std::char_traits<char>,std::allocator<char> >
  002b6	83 c4 08	 add	 esp, 8
  002b9	84 c0		 test	 al, al
  002bb	74 29		 je	 SHORT $LN9@SetItemTex
; File C:\Program Files (x86)\Microsoft Visual Studio\2019\Community\VC\Tools\MSVC\14.28.29333\include\xstring

; 119  :         _CSTD memmove(_First1, _First2, _Count * sizeof(_Elem));

  002bd	b8 27 73 00 00	 mov	 eax, 29479		; 00007327H

; 4378 :         _Mypair._Myval2._Myres  = _BUF_SIZE - 1;

  002c2	c7 45 d4 0f 00
	00 00		 mov	 DWORD PTR $T8[ebp+20], 15 ; 0000000fH

; 3046 :             _Mypair._Myval2._Mysize = _Count;

  002c9	c7 45 d0 02 00
	00 00		 mov	 DWORD PTR $T8[ebp+16], 2

; 119  :         _CSTD memmove(_First1, _First2, _Count * sizeof(_Elem));

  002d0	66 89 45 c0	 mov	 WORD PTR $T8[ebp], ax

; 3048 :             _Traits::assign(_Old_ptr[_Count], _Elem());

  002d4	c6 45 c2 00	 mov	 BYTE PTR $T8[ebp+2], 0
; File D:\Metin2 Server Files\mainline\SRC_2014\Metin2Client\UserInterface\PythonTextTail.cpp

; 721  : 		static const string & strOwnership = ApplicationStringTable_GetString(IDS_POSSESSIVE_MORPHENE) == "" ? "'s" : ApplicationStringTable_GetString(IDS_POSSESSIVE_MORPHENE);

  002d8	8d 45 c0	 lea	 eax, DWORD PTR $T8[ebp]
  002db	c6 45 fc 02	 mov	 BYTE PTR __$EHRec$[ebp+8], 2
  002df	bb 01 00 00 00	 mov	 ebx, 1
  002e4	eb 21		 jmp	 SHORT $LN155@SetItemTex
$LN9@SetItemTex:
  002e6	6a 02		 push	 2
  002e8	e8 00 00 00 00	 call	 ?ApplicationStringTable_GetString@@YAABV?$basic_string@DU?$char_traits@D@std@@V?$allocator@D@2@@std@@K@Z ; ApplicationStringTable_GetString
  002ed	83 c4 04	 add	 esp, 4
  002f0	8d 4d a8	 lea	 ecx, DWORD PTR $T7[ebp]
  002f3	50		 push	 eax
  002f4	e8 00 00 00 00	 call	 ??0?$basic_string@DU?$char_traits@D@std@@V?$allocator@D@2@@std@@QAE@ABV01@@Z ; std::basic_string<char,std::char_traits<char>,std::allocator<char> >::basic_string<char,std::char_traits<char>,std::allocator<char> >
  002f9	c7 45 fc 03 00
	00 00		 mov	 DWORD PTR __$EHRec$[ebp+8], 3
  00300	bb 02 00 00 00	 mov	 ebx, 2
  00305	eb 00		 jmp	 SHORT $LN155@SetItemTex
$LN155@SetItemTex:
  00307	50		 push	 eax
  00308	b9 00 00 00 00	 mov	 ecx, OFFSET ?$S12@?6??SetItemTextTailOwner@CPythonTextTail@@QAEXKPBD@Z@4V?$basic_string@DU?$char_traits@D@std@@V?$allocator@D@2@@std@@B
  0030d	89 5d a4	 mov	 DWORD PTR $T5[ebp], ebx
  00310	e8 00 00 00 00	 call	 ??0?$basic_string@DU?$char_traits@D@std@@V?$allocator@D@2@@std@@QAE@ABV01@@Z ; std::basic_string<char,std::char_traits<char>,std::allocator<char> >::basic_string<char,std::char_traits<char>,std::allocator<char> >
  00315	c7 05 00 00 00
	00 00 00 00 00	 mov	 DWORD PTR ?strOwnership@?6??SetItemTextTailOwner@CPythonTextTail@@QAEXKPBD@Z@4ABV?$basic_string@DU?$char_traits@D@std@@V?$allocator@D@2@@std@@B, OFFSET ?$S12@?6??SetItemTextTailOwner@CPythonTextTail@@QAEXKPBD@Z@4V?$basic_string@DU?$char_traits@D@std@@V?$allocator@D@2@@std@@B
  0031f	f6 c3 02	 test	 bl, 2
  00322	74 0d		 je	 SHORT $LN17@SetItemTex
  00324	8d 4d a8	 lea	 ecx, DWORD PTR $T7[ebp]
  00327	83 e3 fd	 and	 ebx, -3			; fffffffdH
  0032a	e8 00 00 00 00	 call	 ??1?$basic_string@DU?$char_traits@D@std@@V?$allocator@D@2@@std@@QAE@XZ ; std::basic_string<char,std::char_traits<char>,std::allocator<char> >::~basic_string<char,std::char_traits<char>,std::allocator<char> >
  0032f	eb 00		 jmp	 SHORT $LN17@SetItemTex
$LN17@SetItemTex:
  00331	c7 45 fc 01 00
	00 00		 mov	 DWORD PTR __$EHRec$[ebp+8], 1
  00338	f6 c3 01	 test	 bl, 1
  0033b	74 17		 je	 SHORT $LN119@SetItemTex
; File C:\Program Files (x86)\Microsoft Visual Studio\2019\Community\VC\Tools\MSVC\14.28.29333\include\xstring

; 4385 :         if (_Mypair._Myval2._Large_string_engaged()) {

  0033d	8b 45 d4	 mov	 eax, DWORD PTR $T8[ebp+20]
  00340	83 f8 10	 cmp	 eax, 16			; 00000010H
  00343	72 0f		 jb	 SHORT $LN119@SetItemTex

; 4386 :             const pointer _Ptr = _Mypair._Myval2._Bx._Ptr;
; 4387 :             auto& _Al          = _Getal();
; 4388 :             _Destroy_in_place(_Mypair._Myval2._Bx._Ptr);
; 4389 :             _Al.deallocate(_Ptr, _Mypair._Myval2._Myres + 1);

  00345	40		 inc	 eax
; File C:\Program Files (x86)\Microsoft Visual Studio\2019\Community\VC\Tools\MSVC\14.28.29333\include\xmemory

; 810  :         _Deallocate<_New_alignof<_Ty>>(_Ptr, sizeof(_Ty) * _Count);

  00346	50		 push	 eax
  00347	ff 75 c0	 push	 DWORD PTR $T8[ebp]
  0034a	e8 00 00 00 00	 call	 ??$_Deallocate@$07$0A@@std@@YAXPAXI@Z ; std::_Deallocate<8,0>
  0034f	83 c4 08	 add	 esp, 8
  00352	eb 00		 jmp	 SHORT $LN119@SetItemTex
$LN119@SetItemTex:
; File D:\Metin2 Server Files\mainline\SRC_2014\Metin2Client\UserInterface\PythonTextTail.cpp

; 721  : 		static const string & strOwnership = ApplicationStringTable_GetString(IDS_POSSESSIVE_MORPHENE) == "" ? "'s" : ApplicationStringTable_GetString(IDS_POSSESSIVE_MORPHENE);

  00354	68 00 00 00 00	 push	 OFFSET ?$TSS0@?6??SetItemTextTailOwner@CPythonTextTail@@QAEXKPBD@Z@4HA
  00359	c6 45 fc 00	 mov	 BYTE PTR __$EHRec$[ebp+8], 0
  0035d	e8 00 00 00 00	 call	 __Init_thread_footer
  00362	83 c4 04	 add	 esp, 4
  00365	e9 75 fd ff ff	 jmp	 $LN2@SetItemTex
_TEXT	ENDS
;	COMDAT text$x
text$x	SEGMENT
__unwindfunclet$?SetItemTextTailOwner@CPythonTextTail@@QAEXKPBD@Z$0:
  00000	8d 4d d8	 lea	 ecx, DWORD PTR _strName$9[ebp]
  00003	e9 00 00 00 00	 jmp	 ??1?$basic_string@DU?$char_traits@D@std@@V?$allocator@D@2@@std@@QAE@XZ ; std::basic_string<char,std::char_traits<char>,std::allocator<char> >::~basic_string<char,std::char_traits<char>,std::allocator<char> >
__unwindfunclet$?SetItemTextTailOwner@CPythonTextTail@@QAEXKPBD@Z$1:
  00008	68 00 00 00 00	 push	 OFFSET ?$TSS0@?6??SetItemTextTailOwner@CPythonTextTail@@QAEXKPBD@Z@4HA
  0000d	e8 00 00 00 00	 call	 __Init_thread_abort
  00012	59		 pop	 ecx
  00013	c3		 ret	 0
__unwindfunclet$?SetItemTextTailOwner@CPythonTextTail@@QAEXKPBD@Z$2:
  00014	8b 45 a4	 mov	 eax, DWORD PTR $T5[ebp]
  00017	83 e0 01	 and	 eax, 1
  0001a	0f 84 0c 00 00
	00		 je	 $LN14@SetItemTex
  00020	83 65 a4 fe	 and	 DWORD PTR $T5[ebp], -2	; fffffffeH
  00024	8d 4d c0	 lea	 ecx, DWORD PTR $T8[ebp]
  00027	e9 00 00 00 00	 jmp	 ??1?$basic_string@DU?$char_traits@D@std@@V?$allocator@D@2@@std@@QAE@XZ ; std::basic_string<char,std::char_traits<char>,std::allocator<char> >::~basic_string<char,std::char_traits<char>,std::allocator<char> >
$LN14@SetItemTex:
  0002c	c3		 ret	 0
__unwindfunclet$?SetItemTextTailOwner@CPythonTextTail@@QAEXKPBD@Z$3:
  0002d	8b 45 a4	 mov	 eax, DWORD PTR $T5[ebp]
  00030	83 e0 02	 and	 eax, 2
  00033	0f 84 0c 00 00
	00		 je	 $LN16@SetItemTex
  00039	83 65 a4 fd	 and	 DWORD PTR $T5[ebp], -3	; fffffffdH
  0003d	8d 4d a8	 lea	 ecx, DWORD PTR $T7[ebp]
  00040	e9 00 00 00 00	 jmp	 ??1?$basic_string@DU?$char_traits@D@std@@V?$allocator@D@2@@std@@QAE@XZ ; std::basic_string<char,std::char_traits<char>,std::allocator<char> >::~basic_string<char,std::char_traits<char>,std::allocator<char> >
$LN16@SetItemTex:
  00045	c3		 ret	 0
  00046	cc		 int	 3
  00047	cc		 int	 3
  00048	cc		 int	 3
  00049	cc		 int	 3
  0004a	cc		 int	 3
__ehhandler$?SetItemTextTailOwner@CPythonTextTail@@QAEXKPBD@Z:
  0004b	90		 npad	 1
  0004c	90		 npad	 1
  0004d	8b 54 24 08	 mov	 edx, DWORD PTR [esp+8]
  00051	8d 42 0c	 lea	 eax, DWORD PTR [edx+12]
  00054	8b 4a 94	 mov	 ecx, DWORD PTR [edx-108]
  00057	33 c8		 xor	 ecx, eax
  00059	e8 00 00 00 00	 call	 @__security_check_cookie@4
  0005e	8b 4a fc	 mov	 ecx, DWORD PTR [edx-4]
  00061	33 c8		 xor	 ecx, eax
  00063	e8 00 00 00 00	 call	 @__security_check_cookie@4
  00068	b8 00 00 00 00	 mov	 eax, OFFSET __ehfuncinfo$?SetItemTextTailOwner@CPythonTextTail@@QAEXKPBD@Z
  0006d	e9 00 00 00 00	 jmp	 ___CxxFrameHandler3
text$x	ENDS
?SetItemTextTailOwner@CPythonTextTail@@QAEXKPBD@Z ENDP	; CPythonTextTail::SetItemTextTailOwner
; Function compile flags: /Ogtp
; File D:\Metin2 Server Files\mainline\SRC_2014\Metin2Client\UserInterface\PythonTextTail.cpp
; File C:\Program Files (x86)\Microsoft Visual Studio\2019\Community\VC\Tools\MSVC\14.28.29333\include\xtree
; File D:\Metin2 Server Files\mainline\SRC_2014\Metin2Client\UserInterface\PythonTextTail.cpp
; File C:\Program Files (x86)\Microsoft Visual Studio\2019\Community\VC\Tools\MSVC\14.28.29333\include\xtree
; File C:\Program Files (x86)\Microsoft Visual Studio\2019\Community\VC\Tools\MSVC\14.28.29333\include\xstddef
; File C:\Program Files (x86)\Microsoft Visual Studio\2019\Community\VC\Tools\MSVC\14.28.29333\include\xtree
; File D:\Metin2 Server Files\mainline\SRC_2014\Metin2Client\UserInterface\PythonTextTail.cpp
; File D:\Metin2 Server Files\mainline\SRC_2014\M2Data\include\d3dx8math.inl
; File D:\Metin2 Server Files\mainline\SRC_2014\Metin2Client\UserInterface\PythonTextTail.cpp
; File D:\Metin2 Server Files\mainline\SRC_2014\M2Data\include\d3dx8math.inl
; File D:\Metin2 Server Files\mainline\SRC_2014\Metin2Client\UserInterface\PythonTextTail.cpp
; File D:\Metin2 Server Files\mainline\SRC_2014\M2Data\include\d3dx8math.inl
; File D:\Metin2 Server Files\mainline\SRC_2014\Metin2Client\UserInterface\PythonTextTail.cpp
;	COMDAT ?SetCharacterTextTailColor@CPythonTextTail@@QAEXKABUD3DXCOLOR@@@Z
_TEXT	SEGMENT
__Loc$1 = -16						; size = 12
_pTextTail$1$ = -4					; size = 4
_dwR$1$ = 8						; size = 4
_VirtualID$ = 8						; size = 4
_c_rColor$ = 12						; size = 4
?SetCharacterTextTailColor@CPythonTextTail@@QAEXKABUD3DXCOLOR@@@Z PROC ; CPythonTextTail::SetCharacterTextTailColor, COMDAT
; _this$ = ecx

; 694  : {

  00000	55		 push	 ebp
  00001	8b ec		 mov	 ebp, esp
  00003	83 ec 10	 sub	 esp, 16			; 00000010H
  00006	56		 push	 esi
; File C:\Program Files (x86)\Microsoft Visual Studio\2019\Community\VC\Tools\MSVC\14.28.29333\include\xtree

; 1458 :         const _Tree_find_result<_Nodeptr> _Loc = _Find_lower_bound(_Keyval);

  00007	8d 45 08	 lea	 eax, DWORD PTR _VirtualID$[ebp]
  0000a	50		 push	 eax
; File D:\Metin2 Server Files\mainline\SRC_2014\Metin2Client\UserInterface\PythonTextTail.cpp

; 695  : 	TTextTailMap::iterator itorCharacter = m_CharacterTextTailMap.find(VirtualID);

  0000b	8d 71 04	 lea	 esi, DWORD PTR [ecx+4]
; File C:\Program Files (x86)\Microsoft Visual Studio\2019\Community\VC\Tools\MSVC\14.28.29333\include\xtree

; 1458 :         const _Tree_find_result<_Nodeptr> _Loc = _Find_lower_bound(_Keyval);

  0000e	8d 45 f0	 lea	 eax, DWORD PTR __Loc$1[ebp]
  00011	8b ce		 mov	 ecx, esi
  00013	50		 push	 eax
  00014	e8 00 00 00 00	 call	 ??$_Find_lower_bound@K@?$_Tree@V?$_Tmap_traits@KPAUSTextTail@CPythonTextTail@@U?$less@K@std@@V?$allocator@U?$pair@$$CBKPAUSTextTail@CPythonTextTail@@@std@@@4@$0A@@std@@@std@@IBE?AU?$_Tree_find_result@PAU?$_Tree_node@U?$pair@$$CBKPAUSTextTail@CPythonTextTail@@@std@@PAX@std@@@1@ABK@Z ; std::_Tree<std::_Tmap_traits<unsigned long,CPythonTextTail::STextTail *,std::less<unsigned long>,std::allocator<std::pair<unsigned long const ,CPythonTextTail::STextTail *> >,0> >::_Find_lower_bound<unsigned long>

; 1695 :         return !_Bound->_Isnil && !_DEBUG_LT_PRED(_Getcomp(), _Keyval, _Traits::_Kfn(_Bound->_Myval));

  00019	8b 4d f8	 mov	 ecx, DWORD PTR __Loc$1[ebp+8]
  0001c	80 79 0d 00	 cmp	 BYTE PTR [ecx+13], 0
  00020	0f 85 39 01 00
	00		 jne	 $LN1@SetCharact
; File C:\Program Files (x86)\Microsoft Visual Studio\2019\Community\VC\Tools\MSVC\14.28.29333\include\xstddef

; 127  :         return _Left < _Right;

  00026	8b 45 08	 mov	 eax, DWORD PTR _VirtualID$[ebp]
  00029	3b 41 10	 cmp	 eax, DWORD PTR [ecx+16]
; File C:\Program Files (x86)\Microsoft Visual Studio\2019\Community\VC\Tools\MSVC\14.28.29333\include\xtree

; 1695 :         return !_Bound->_Isnil && !_DEBUG_LT_PRED(_Getcomp(), _Keyval, _Traits::_Kfn(_Bound->_Myval));

  0002c	0f 82 2d 01 00
	00		 jb	 $LN1@SetCharact

; 39   :     _Tree_unchecked_const_iterator(_Nodeptr _Pnode, const _Mytree* _Plist) noexcept : _Ptr(_Pnode) {

  00032	39 0e		 cmp	 DWORD PTR [esi], ecx
; File D:\Metin2 Server Files\mainline\SRC_2014\Metin2Client\UserInterface\PythonTextTail.cpp

; 697  : 	if (m_CharacterTextTailMap.end() == itorCharacter)

  00034	0f 84 25 01 00
	00		 je	 $LN1@SetCharact

; 700  : 	TTextTail * pTextTail = itorCharacter->second;

  0003a	8b 41 14	 mov	 eax, DWORD PTR [ecx+20]
; File D:\Metin2 Server Files\mainline\SRC_2014\M2Data\include\d3dx8math.inl

; 931  :     DWORD dwR = r >= 1.0f ? 0xff : r <= 0.0f ? 0x00 : (DWORD) (r * 255.0f + 0.5f);

  0003d	0f 57 c9	 xorps	 xmm1, xmm1
  00040	f3 0f 10 1d 00
	00 00 00	 movss	 xmm3, DWORD PTR __real@437f0000
  00048	f3 0f 10 25 00
	00 00 00	 movss	 xmm4, DWORD PTR __real@3f000000
; File D:\Metin2 Server Files\mainline\SRC_2014\Metin2Client\UserInterface\PythonTextTail.cpp

; 700  : 	TTextTail * pTextTail = itorCharacter->second;

  00050	53		 push	 ebx
  00051	57		 push	 edi
; File D:\Metin2 Server Files\mainline\SRC_2014\M2Data\include\d3dx8math.inl

; 931  :     DWORD dwR = r >= 1.0f ? 0xff : r <= 0.0f ? 0x00 : (DWORD) (r * 255.0f + 0.5f);

  00052	8b 7d 0c	 mov	 edi, DWORD PTR _c_rColor$[ebp]
; File D:\Metin2 Server Files\mainline\SRC_2014\Metin2Client\UserInterface\PythonTextTail.cpp

; 700  : 	TTextTail * pTextTail = itorCharacter->second;

  00055	89 45 fc	 mov	 DWORD PTR _pTextTail$1$[ebp], eax
; File D:\Metin2 Server Files\mainline\SRC_2014\M2Data\include\d3dx8math.inl

; 931  :     DWORD dwR = r >= 1.0f ? 0xff : r <= 0.0f ? 0x00 : (DWORD) (r * 255.0f + 0.5f);

  00058	f3 0f 10 07	 movss	 xmm0, DWORD PTR [edi]
  0005c	0f 2f 05 00 00
	00 00		 comiss	 xmm0, DWORD PTR __real@3f800000
  00063	72 09		 jb	 SHORT $LN41@SetCharact
  00065	c7 45 08 ff 00
	00 00		 mov	 DWORD PTR _dwR$1$[ebp], 255 ; 000000ffH
  0006c	eb 31		 jmp	 SHORT $LN40@SetCharact
$LN41@SetCharact:
  0006e	0f 2f c8	 comiss	 xmm1, xmm0
  00071	72 09		 jb	 SHORT $LN39@SetCharact
  00073	c7 45 08 00 00
	00 00		 mov	 DWORD PTR _dwR$1$[ebp], 0
  0007a	eb 23		 jmp	 SHORT $LN40@SetCharact
$LN39@SetCharact:
  0007c	f3 0f 59 c3	 mulss	 xmm0, xmm3
  00080	f3 0f 58 c4	 addss	 xmm0, xmm4
  00084	e8 00 00 00 00	 call	 __ftoui3
  00089	f3 0f 10 1d 00
	00 00 00	 movss	 xmm3, DWORD PTR __real@437f0000
  00091	0f 57 c9	 xorps	 xmm1, xmm1
  00094	f3 0f 10 25 00
	00 00 00	 movss	 xmm4, DWORD PTR __real@3f000000
  0009c	89 45 08	 mov	 DWORD PTR _dwR$1$[ebp], eax
$LN40@SetCharact:

; 932  :     DWORD dwG = g >= 1.0f ? 0xff : g <= 0.0f ? 0x00 : (DWORD) (g * 255.0f + 0.5f);

  0009f	f3 0f 10 47 04	 movss	 xmm0, DWORD PTR [edi+4]
  000a4	0f 2f 05 00 00
	00 00		 comiss	 xmm0, DWORD PTR __real@3f800000
  000ab	72 07		 jb	 SHORT $LN45@SetCharact
  000ad	bb ff 00 00 00	 mov	 ebx, 255		; 000000ffH
  000b2	eb 18		 jmp	 SHORT $LN44@SetCharact
$LN45@SetCharact:
  000b4	0f 2f c8	 comiss	 xmm1, xmm0
  000b7	72 04		 jb	 SHORT $LN43@SetCharact
  000b9	33 db		 xor	 ebx, ebx
  000bb	eb 0f		 jmp	 SHORT $LN44@SetCharact
$LN43@SetCharact:
  000bd	f3 0f 59 c3	 mulss	 xmm0, xmm3
  000c1	f3 0f 58 c4	 addss	 xmm0, xmm4
  000c5	e8 00 00 00 00	 call	 __ftoui3
  000ca	8b d8		 mov	 ebx, eax
$LN44@SetCharact:

; 933  :     DWORD dwB = b >= 1.0f ? 0xff : b <= 0.0f ? 0x00 : (DWORD) (b * 255.0f + 0.5f);

  000cc	f3 0f 10 47 08	 movss	 xmm0, DWORD PTR [edi+8]
  000d1	0f 57 c9	 xorps	 xmm1, xmm1
  000d4	0f 2f 05 00 00
	00 00		 comiss	 xmm0, DWORD PTR __real@3f800000
  000db	72 07		 jb	 SHORT $LN49@SetCharact
  000dd	be ff 00 00 00	 mov	 esi, 255		; 000000ffH
  000e2	eb 23		 jmp	 SHORT $LN48@SetCharact
$LN49@SetCharact:
  000e4	0f 2f c8	 comiss	 xmm1, xmm0
  000e7	72 04		 jb	 SHORT $LN47@SetCharact
  000e9	33 f6		 xor	 esi, esi
  000eb	eb 1a		 jmp	 SHORT $LN48@SetCharact
$LN47@SetCharact:
  000ed	f3 0f 59 05 00
	00 00 00	 mulss	 xmm0, DWORD PTR __real@437f0000
  000f5	f3 0f 58 05 00
	00 00 00	 addss	 xmm0, DWORD PTR __real@3f000000
  000fd	e8 00 00 00 00	 call	 __ftoui3
  00102	8b f0		 mov	 esi, eax
  00104	0f 57 c9	 xorps	 xmm1, xmm1
$LN48@SetCharact:

; 934  :     DWORD dwA = a >= 1.0f ? 0xff : a <= 0.0f ? 0x00 : (DWORD) (a * 255.0f + 0.5f);

  00107	f3 0f 10 47 0c	 movss	 xmm0, DWORD PTR [edi+12]
  0010c	0f 2f 05 00 00
	00 00		 comiss	 xmm0, DWORD PTR __real@3f800000
  00113	72 07		 jb	 SHORT $LN53@SetCharact
  00115	b8 ff 00 00 00	 mov	 eax, 255		; 000000ffH
  0011a	eb 1e		 jmp	 SHORT $LN52@SetCharact
$LN53@SetCharact:
  0011c	0f 2f c8	 comiss	 xmm1, xmm0
  0011f	72 04		 jb	 SHORT $LN51@SetCharact
  00121	33 c0		 xor	 eax, eax
  00123	eb 15		 jmp	 SHORT $LN52@SetCharact
$LN51@SetCharact:
  00125	f3 0f 59 05 00
	00 00 00	 mulss	 xmm0, DWORD PTR __real@437f0000
  0012d	f3 0f 58 05 00
	00 00 00	 addss	 xmm0, DWORD PTR __real@3f000000
  00135	e8 00 00 00 00	 call	 __ftoui3
$LN52@SetCharact:

; 935  : 
; 936  :     return (dwA << 24) | (dwR << 16) | (dwG << 8) | dwB;

  0013a	c1 e0 08	 shl	 eax, 8
  0013d	0b 45 08	 or	 eax, DWORD PTR _dwR$1$[ebp]
  00140	c1 e0 08	 shl	 eax, 8
  00143	0b c3		 or	 eax, ebx
  00145	c1 e0 08	 shl	 eax, 8
  00148	0b c6		 or	 eax, esi
; File D:\Metin2 Server Files\mainline\SRC_2014\Metin2Client\UserInterface\PythonTextTail.cpp

; 701  : 	pTextTail->pTextInstance->SetColor(c_rColor);

  0014a	8b 75 fc	 mov	 esi, DWORD PTR _pTextTail$1$[ebp]
  0014d	50		 push	 eax
  0014e	8b 4e 04	 mov	 ecx, DWORD PTR [esi+4]
  00151	e8 00 00 00 00	 call	 ?SetColor@CGraphicTextInstance@@QAEXK@Z ; CGraphicTextInstance::SetColor

; 702  : 	pTextTail->Color = c_rColor;

  00156	0f 10 07	 movups	 xmm0, XMMWORD PTR [edi]
  00159	5f		 pop	 edi
  0015a	5b		 pop	 ebx
  0015b	0f 11 46 34	 movups	 XMMWORD PTR [esi+52], xmm0
$LN1@SetCharact:
  0015f	5e		 pop	 esi

; 703  : }

  00160	8b e5		 mov	 esp, ebp
  00162	5d		 pop	 ebp
  00163	c2 08 00	 ret	 8
?SetCharacterTextTailColor@CPythonTextTail@@QAEXKABUD3DXCOLOR@@@Z ENDP ; CPythonTextTail::SetCharacterTextTailColor
_TEXT	ENDS
; Function compile flags: /Ogtp
; File D:\Metin2 Server Files\mainline\SRC_2014\Metin2Client\UserInterface\PythonTextTail.cpp
; File C:\Program Files (x86)\Microsoft Visual Studio\2019\Community\VC\Tools\MSVC\14.28.29333\include\xtree
; File C:\Program Files (x86)\Microsoft Visual Studio\2019\Community\VC\Tools\MSVC\14.28.29333\include\xstddef
; File C:\Program Files (x86)\Microsoft Visual Studio\2019\Community\VC\Tools\MSVC\14.28.29333\include\xtree
; File D:\Metin2 Server Files\mainline\SRC_2014\Metin2Client\UserInterface\PythonTextTail.cpp
; File D:\Metin2 Server Files\mainline\SRC_2014\M2Data\include\d3dx8math.inl
; File D:\Metin2 Server Files\mainline\SRC_2014\Metin2Client\UserInterface\PythonTextTail.cpp
; File D:\Metin2 Server Files\mainline\SRC_2014\M2Data\include\d3dx8math.inl
; File D:\Metin2 Server Files\mainline\SRC_2014\Metin2Client\UserInterface\PythonTextTail.cpp
; File D:\Metin2 Server Files\mainline\SRC_2014\M2Data\include\d3dx8math.inl
; File D:\Metin2 Server Files\mainline\SRC_2014\Metin2Client\UserInterface\PythonTextTail.cpp
; File C:\Program Files (x86)\Microsoft Visual Studio\2019\Community\VC\Tools\MSVC\14.28.29333\include\utility
; File D:\Metin2 Server Files\mainline\SRC_2014\Metin2Client\UserInterface\PythonTextTail.cpp
; File C:\Program Files (x86)\Microsoft Visual Studio\2019\Community\VC\Tools\MSVC\14.28.29333\include\utility
; File D:\Metin2 Server Files\mainline\SRC_2014\Metin2Client\UserInterface\PythonTextTail.cpp
;	COMDAT ?RegisterInfoTail@CPythonTextTail@@QAEXKPBD@Z
_TEXT	SEGMENT
__Loc$1 = -24						; size = 12
$T2 = -20						; size = 8
$T3 = -12						; size = 8
_this$1$ = -4						; size = 4
_dwR$1$ = 8						; size = 4
_VirtualID$ = 8						; size = 4
_c_szChat$ = 12						; size = 4
?RegisterInfoTail@CPythonTextTail@@QAEXKPBD@Z PROC	; CPythonTextTail::RegisterInfoTail, COMDAT
; _this$ = ecx

; 624  : {

  00000	55		 push	 ebp
  00001	8b ec		 mov	 ebp, esp
  00003	83 ec 18	 sub	 esp, 24			; 00000018H
  00006	53		 push	 ebx

; 625  : 	CInstanceBase * pCharacterInstance = CPythonCharacterManager::Instance().GetInstancePtr(VirtualID);

  00007	8b 5d 08	 mov	 ebx, DWORD PTR _VirtualID$[ebp]
  0000a	56		 push	 esi
  0000b	8b f1		 mov	 esi, ecx
  0000d	8b 0d 00 00 00
	00		 mov	 ecx, DWORD PTR ?ms_singleton@?$CSingleton@VCPythonCharacterManager@@@@0PAVCPythonCharacterManager@@A ; CSingleton<CPythonCharacterManager>::ms_singleton
  00013	83 c1 04	 add	 ecx, 4
  00016	89 75 fc	 mov	 DWORD PTR _this$1$[ebp], esi
  00019	57		 push	 edi
  0001a	53		 push	 ebx
  0001b	8b 01		 mov	 eax, DWORD PTR [ecx]
  0001d	ff 50 08	 call	 DWORD PTR [eax+8]
  00020	8b f8		 mov	 edi, eax

; 626  : 
; 627  : 	if (!pCharacterInstance)

  00022	85 ff		 test	 edi, edi
  00024	0f 84 11 02 00
	00		 je	 $LN1@RegisterIn
; File C:\Program Files (x86)\Microsoft Visual Studio\2019\Community\VC\Tools\MSVC\14.28.29333\include\xtree

; 1458 :         const _Tree_find_result<_Nodeptr> _Loc = _Find_lower_bound(_Keyval);

  0002a	8d 45 08	 lea	 eax, DWORD PTR _VirtualID$[ebp]
  0002d	50		 push	 eax
  0002e	8d 45 e8	 lea	 eax, DWORD PTR __Loc$1[ebp]
  00031	50		 push	 eax
  00032	8d 4e 14	 lea	 ecx, DWORD PTR [esi+20]
  00035	e8 00 00 00 00	 call	 ??$_Find_lower_bound@K@?$_Tree@V?$_Tmap_traits@KPAUSTextTail@CPythonTextTail@@U?$less@K@std@@V?$allocator@U?$pair@$$CBKPAUSTextTail@CPythonTextTail@@@std@@@4@$0A@@std@@@std@@IBE?AU?$_Tree_find_result@PAU?$_Tree_node@U?$pair@$$CBKPAUSTextTail@CPythonTextTail@@@std@@PAX@std@@@1@ABK@Z ; std::_Tree<std::_Tmap_traits<unsigned long,CPythonTextTail::STextTail *,std::less<unsigned long>,std::allocator<std::pair<unsigned long const ,CPythonTextTail::STextTail *> >,0> >::_Find_lower_bound<unsigned long>

; 1695 :         return !_Bound->_Isnil && !_DEBUG_LT_PRED(_Getcomp(), _Keyval, _Traits::_Kfn(_Bound->_Myval));

  0003a	8b 45 f0	 mov	 eax, DWORD PTR __Loc$1[ebp+8]
  0003d	80 78 0d 00	 cmp	 BYTE PTR [eax+13], 0
  00041	0f 85 77 01 00
	00		 jne	 $LN3@RegisterIn
; File C:\Program Files (x86)\Microsoft Visual Studio\2019\Community\VC\Tools\MSVC\14.28.29333\include\xstddef

; 127  :         return _Left < _Right;

  00047	3b 58 10	 cmp	 ebx, DWORD PTR [eax+16]
; File C:\Program Files (x86)\Microsoft Visual Studio\2019\Community\VC\Tools\MSVC\14.28.29333\include\xtree

; 1695 :         return !_Bound->_Isnil && !_DEBUG_LT_PRED(_Getcomp(), _Keyval, _Traits::_Kfn(_Bound->_Myval));

  0004a	0f 82 6e 01 00
	00		 jb	 $LN3@RegisterIn

; 39   :     _Tree_unchecked_const_iterator(_Nodeptr _Pnode, const _Mytree* _Plist) noexcept : _Ptr(_Pnode) {

  00050	39 46 14	 cmp	 DWORD PTR [esi+20], eax
; File D:\Metin2 Server Files\mainline\SRC_2014\Metin2Client\UserInterface\PythonTextTail.cpp

; 632  : 	if (m_ChatTailMap.end() != itor)

  00053	0f 84 65 01 00
	00		 je	 $LN3@RegisterIn

; 633  : 	{
; 634  : 		TTextTail * pTextTail = itor->second;

  00059	8b 78 14	 mov	 edi, DWORD PTR [eax+20]

; 635  : 
; 636  : 		pTextTail->pTextInstance->SetValue(c_szChat);

  0005c	6a ff		 push	 -1
  0005e	ff 75 0c	 push	 DWORD PTR _c_szChat$[ebp]
  00061	8b 4f 04	 mov	 ecx, DWORD PTR [edi+4]
  00064	e8 00 00 00 00	 call	 ?SetValue@CGraphicTextInstance@@QAEXPBDI@Z ; CGraphicTextInstance::SetValue

; 637  : 		pTextTail->pTextInstance->Update();

  00069	8b 4f 04	 mov	 ecx, DWORD PTR [edi+4]
  0006c	e8 00 00 00 00	 call	 ?Update@CGraphicTextInstance@@QAEXXZ ; CGraphicTextInstance::Update

; 638  : 		pTextTail->Color = c_TextTail_Info_Color;

  00071	0f 10 05 00 00
	00 00		 movups	 xmm0, XMMWORD PTR ?c_TextTail_Info_Color@@3UD3DXCOLOR@@B
; File D:\Metin2 Server Files\mainline\SRC_2014\M2Data\include\d3dx8math.inl

; 931  :     DWORD dwR = r >= 1.0f ? 0xff : r <= 0.0f ? 0x00 : (DWORD) (r * 255.0f + 0.5f);

  00078	f3 0f 10 1d 00
	00 00 00	 movss	 xmm3, DWORD PTR __real@437f0000
  00080	0f 57 c9	 xorps	 xmm1, xmm1
  00083	f3 0f 10 25 00
	00 00 00	 movss	 xmm4, DWORD PTR __real@3f000000
; File D:\Metin2 Server Files\mainline\SRC_2014\Metin2Client\UserInterface\PythonTextTail.cpp

; 638  : 		pTextTail->Color = c_TextTail_Info_Color;

  0008b	0f 11 47 34	 movups	 XMMWORD PTR [edi+52], xmm0
; File D:\Metin2 Server Files\mainline\SRC_2014\M2Data\include\d3dx8math.inl

; 931  :     DWORD dwR = r >= 1.0f ? 0xff : r <= 0.0f ? 0x00 : (DWORD) (r * 255.0f + 0.5f);

  0008f	f3 0f 10 05 00
	00 00 00	 movss	 xmm0, DWORD PTR ?c_TextTail_Info_Color@@3UD3DXCOLOR@@B
  00097	0f 2f 05 00 00
	00 00		 comiss	 xmm0, DWORD PTR __real@3f800000
  0009e	72 09		 jb	 SHORT $LN44@RegisterIn
  000a0	c7 45 08 ff 00
	00 00		 mov	 DWORD PTR _dwR$1$[ebp], 255 ; 000000ffH
  000a7	eb 31		 jmp	 SHORT $LN43@RegisterIn
$LN44@RegisterIn:
  000a9	0f 2f c8	 comiss	 xmm1, xmm0
  000ac	72 09		 jb	 SHORT $LN42@RegisterIn
  000ae	c7 45 08 00 00
	00 00		 mov	 DWORD PTR _dwR$1$[ebp], 0
  000b5	eb 23		 jmp	 SHORT $LN43@RegisterIn
$LN42@RegisterIn:
  000b7	f3 0f 59 c3	 mulss	 xmm0, xmm3
  000bb	f3 0f 58 c4	 addss	 xmm0, xmm4
  000bf	e8 00 00 00 00	 call	 __ftoui3
  000c4	f3 0f 10 1d 00
	00 00 00	 movss	 xmm3, DWORD PTR __real@437f0000
  000cc	0f 57 c9	 xorps	 xmm1, xmm1
  000cf	f3 0f 10 25 00
	00 00 00	 movss	 xmm4, DWORD PTR __real@3f000000
  000d7	89 45 08	 mov	 DWORD PTR _dwR$1$[ebp], eax
$LN43@RegisterIn:

; 932  :     DWORD dwG = g >= 1.0f ? 0xff : g <= 0.0f ? 0x00 : (DWORD) (g * 255.0f + 0.5f);

  000da	f3 0f 10 05 04
	00 00 00	 movss	 xmm0, DWORD PTR ?c_TextTail_Info_Color@@3UD3DXCOLOR@@B+4
  000e2	0f 2f 05 00 00
	00 00		 comiss	 xmm0, DWORD PTR __real@3f800000
  000e9	72 07		 jb	 SHORT $LN48@RegisterIn
  000eb	bb ff 00 00 00	 mov	 ebx, 255		; 000000ffH
  000f0	eb 18		 jmp	 SHORT $LN47@RegisterIn
$LN48@RegisterIn:
  000f2	0f 2f c8	 comiss	 xmm1, xmm0
  000f5	72 04		 jb	 SHORT $LN46@RegisterIn
  000f7	33 db		 xor	 ebx, ebx
  000f9	eb 0f		 jmp	 SHORT $LN47@RegisterIn
$LN46@RegisterIn:
  000fb	f3 0f 59 c3	 mulss	 xmm0, xmm3
  000ff	f3 0f 58 c4	 addss	 xmm0, xmm4
  00103	e8 00 00 00 00	 call	 __ftoui3
  00108	8b d8		 mov	 ebx, eax
$LN47@RegisterIn:

; 933  :     DWORD dwB = b >= 1.0f ? 0xff : b <= 0.0f ? 0x00 : (DWORD) (b * 255.0f + 0.5f);

  0010a	f3 0f 10 05 08
	00 00 00	 movss	 xmm0, DWORD PTR ?c_TextTail_Info_Color@@3UD3DXCOLOR@@B+8
  00112	0f 57 c9	 xorps	 xmm1, xmm1
  00115	0f 2f 05 00 00
	00 00		 comiss	 xmm0, DWORD PTR __real@3f800000
  0011c	72 07		 jb	 SHORT $LN52@RegisterIn
  0011e	be ff 00 00 00	 mov	 esi, 255		; 000000ffH
  00123	eb 23		 jmp	 SHORT $LN51@RegisterIn
$LN52@RegisterIn:
  00125	0f 2f c8	 comiss	 xmm1, xmm0
  00128	72 04		 jb	 SHORT $LN50@RegisterIn
  0012a	33 f6		 xor	 esi, esi
  0012c	eb 1a		 jmp	 SHORT $LN51@RegisterIn
$LN50@RegisterIn:
  0012e	f3 0f 59 05 00
	00 00 00	 mulss	 xmm0, DWORD PTR __real@437f0000
  00136	f3 0f 58 05 00
	00 00 00	 addss	 xmm0, DWORD PTR __real@3f000000
  0013e	e8 00 00 00 00	 call	 __ftoui3
  00143	8b f0		 mov	 esi, eax
  00145	0f 57 c9	 xorps	 xmm1, xmm1
$LN51@RegisterIn:

; 934  :     DWORD dwA = a >= 1.0f ? 0xff : a <= 0.0f ? 0x00 : (DWORD) (a * 255.0f + 0.5f);

  00148	f3 0f 10 05 0c
	00 00 00	 movss	 xmm0, DWORD PTR ?c_TextTail_Info_Color@@3UD3DXCOLOR@@B+12
  00150	0f 2f 05 00 00
	00 00		 comiss	 xmm0, DWORD PTR __real@3f800000
  00157	72 07		 jb	 SHORT $LN56@RegisterIn
  00159	b8 ff 00 00 00	 mov	 eax, 255		; 000000ffH
  0015e	eb 1e		 jmp	 SHORT $LN55@RegisterIn
$LN56@RegisterIn:
  00160	0f 2f c8	 comiss	 xmm1, xmm0
  00163	72 04		 jb	 SHORT $LN54@RegisterIn
  00165	33 c0		 xor	 eax, eax
  00167	eb 15		 jmp	 SHORT $LN55@RegisterIn
$LN54@RegisterIn:
  00169	f3 0f 59 05 00
	00 00 00	 mulss	 xmm0, DWORD PTR __real@437f0000
  00171	f3 0f 58 05 00
	00 00 00	 addss	 xmm0, DWORD PTR __real@3f000000
  00179	e8 00 00 00 00	 call	 __ftoui3
$LN55@RegisterIn:
; File D:\Metin2 Server Files\mainline\SRC_2014\Metin2Client\UserInterface\PythonTextTail.cpp

; 639  : 		pTextTail->pTextInstance->SetColor(c_TextTail_Info_Color);

  0017e	8b 4f 04	 mov	 ecx, DWORD PTR [edi+4]
; File D:\Metin2 Server Files\mainline\SRC_2014\M2Data\include\d3dx8math.inl

; 936  :     return (dwA << 24) | (dwR << 16) | (dwG << 8) | dwB;

  00181	c1 e0 08	 shl	 eax, 8
  00184	0b 45 08	 or	 eax, DWORD PTR _dwR$1$[ebp]
  00187	c1 e0 08	 shl	 eax, 8
  0018a	0b c3		 or	 eax, ebx
  0018c	c1 e0 08	 shl	 eax, 8
  0018f	0b c6		 or	 eax, esi
; File D:\Metin2 Server Files\mainline\SRC_2014\Metin2Client\UserInterface\PythonTextTail.cpp

; 639  : 		pTextTail->pTextInstance->SetColor(c_TextTail_Info_Color);

  00191	50		 push	 eax
  00192	e8 00 00 00 00	 call	 ?SetColor@CGraphicTextInstance@@QAEXK@Z ; CGraphicTextInstance::SetColor

; 640  : 
; 641  : 		// TEXTTAIL_LIVINGTIME_CONTROL
; 642  : 		pTextTail->LivingTime = CTimer::Instance().GetCurrentMillisecond() + TextTail_GetLivingTime();

  00197	8b 0d 00 00 00
	00		 mov	 ecx, DWORD PTR ?ms_singleton@?$CSingleton@VCTimer@@@@0PAVCTimer@@A ; CSingleton<CTimer>::ms_singleton
  0019d	e8 00 00 00 00	 call	 ?GetCurrentMillisecond@CTimer@@QAEKXZ ; CTimer::GetCurrentMillisecond
  001a2	8b f0		 mov	 esi, eax
  001a4	e8 00 00 00 00	 call	 ?TextTail_GetLivingTime@@YAJXZ ; TextTail_GetLivingTime
  001a9	03 f0		 add	 esi, eax

; 643  : 		// END_OF_TEXTTAIL_LIVINGTIME_CONTROL
; 644  : 
; 645  : 		pTextTail->bNameFlag = FALSE;

  001ab	c7 47 44 00 00
	00 00		 mov	 DWORD PTR [edi+68], 0
  001b2	89 77 58	 mov	 DWORD PTR [edi+88], esi
  001b5	5f		 pop	 edi

; 664  : }

  001b6	5e		 pop	 esi
  001b7	5b		 pop	 ebx
  001b8	8b e5		 mov	 esp, ebp
  001ba	5d		 pop	 ebp
  001bb	c2 08 00	 ret	 8
$LN3@RegisterIn:

; 646  : 
; 647  : 		return;
; 648  : 	}
; 649  : 
; 650  : 	TTextTail * pTextTail = RegisterTextTail(VirtualID,

  001be	68 00 00 00 00	 push	 OFFSET ?c_TextTail_Info_Color@@3UD3DXCOLOR@@B
  001c3	8b cf		 mov	 ecx, edi
  001c5	e8 00 00 00 00	 call	 ?GetGraphicThingInstanceRef@CInstanceBase@@QAEAAVCActorInstance@@XZ ; CInstanceBase::GetGraphicThingInstanceRef
  001ca	8b c8		 mov	 ecx, eax
  001cc	e8 00 00 00 00	 call	 ?GetHeight@CActorInstance@@QAEMXZ ; CActorInstance::GetHeight
  001d1	d8 05 00 00 00
	00		 fadd	 DWORD PTR __real@41200000
  001d7	51		 push	 ecx
  001d8	8b cf		 mov	 ecx, edi
  001da	d9 1c 24	 fstp	 DWORD PTR [esp]
  001dd	e8 00 00 00 00	 call	 ?GetGraphicThingInstancePtr@CInstanceBase@@QAEPAVCActorInstance@@XZ ; CInstanceBase::GetGraphicThingInstancePtr
  001e2	50		 push	 eax
  001e3	ff 75 0c	 push	 DWORD PTR _c_szChat$[ebp]
  001e6	8b ce		 mov	 ecx, esi
  001e8	53		 push	 ebx
  001e9	e8 00 00 00 00	 call	 ?RegisterTextTail@CPythonTextTail@@IAEPAUSTextTail@1@KPBDPAVCGraphicObjectInstance@@MABUD3DXCOLOR@@@Z ; CPythonTextTail::RegisterTextTail

; 651  : 											 c_szChat,
; 652  : 											 pCharacterInstance->GetGraphicThingInstancePtr(),
; 653  : 											 pCharacterInstance->GetGraphicThingInstanceRef().GetHeight() + 10.0f,
; 654  : 											 c_TextTail_Info_Color);
; 655  : 
; 656  : 	// TEXTTAIL_LIVINGTIME_CONTROL
; 657  : 	pTextTail->LivingTime = CTimer::Instance().GetCurrentMillisecond() + TextTail_GetLivingTime();

  001ee	8b 0d 00 00 00
	00		 mov	 ecx, DWORD PTR ?ms_singleton@?$CSingleton@VCTimer@@@@0PAVCTimer@@A ; CSingleton<CTimer>::ms_singleton
  001f4	8b f8		 mov	 edi, eax
  001f6	e8 00 00 00 00	 call	 ?GetCurrentMillisecond@CTimer@@QAEKXZ ; CTimer::GetCurrentMillisecond
  001fb	8b f0		 mov	 esi, eax
  001fd	e8 00 00 00 00	 call	 ?TextTail_GetLivingTime@@YAJXZ ; TextTail_GetLivingTime

; 658  : 	// END_OF_TEXTTAIL_LIVINGTIME_CONTROL
; 659  : 
; 660  : 	pTextTail->bNameFlag = FALSE;
; 661  : 	pTextTail->pTextInstance->SetOutline(true);

  00202	8b 4f 04	 mov	 ecx, DWORD PTR [edi+4]
  00205	03 f0		 add	 esi, eax
  00207	6a 01		 push	 1
  00209	89 77 58	 mov	 DWORD PTR [edi+88], esi
  0020c	c7 47 44 00 00
	00 00		 mov	 DWORD PTR [edi+68], 0
  00213	e8 00 00 00 00	 call	 ?SetOutline@CGraphicTextInstance@@QAEX_N@Z ; CGraphicTextInstance::SetOutline

; 662  : 	pTextTail->pTextInstance->SetVerticalAlign(CGraphicTextInstance::VERTICAL_ALIGN_BOTTOM);

  00218	8b 4f 04	 mov	 ecx, DWORD PTR [edi+4]
  0021b	6a 30		 push	 48			; 00000030H
  0021d	e8 00 00 00 00	 call	 ?SetVerticalAlign@CGraphicTextInstance@@QAEXH@Z ; CGraphicTextInstance::SetVerticalAlign

; 663  : 	m_ChatTailMap.insert(TTextTailMap::value_type(VirtualID, pTextTail));

  00222	8b 4d fc	 mov	 ecx, DWORD PTR _this$1$[ebp]
  00225	8d 45 f4	 lea	 eax, DWORD PTR $T3[ebp]
  00228	50		 push	 eax
  00229	8d 45 ec	 lea	 eax, DWORD PTR $T2[ebp]
; File C:\Program Files (x86)\Microsoft Visual Studio\2019\Community\VC\Tools\MSVC\14.28.29333\include\utility

; 190  :         : first(_STD forward<_Other1>(_Val1)), second(_STD forward<_Other2>(_Val2)) {}

  0022c	89 5d f4	 mov	 DWORD PTR $T3[ebp], ebx
; File D:\Metin2 Server Files\mainline\SRC_2014\Metin2Client\UserInterface\PythonTextTail.cpp

; 663  : 	m_ChatTailMap.insert(TTextTailMap::value_type(VirtualID, pTextTail));

  0022f	50		 push	 eax
  00230	8d 49 14	 lea	 ecx, DWORD PTR [ecx+20]
; File C:\Program Files (x86)\Microsoft Visual Studio\2019\Community\VC\Tools\MSVC\14.28.29333\include\utility

; 190  :         : first(_STD forward<_Other1>(_Val1)), second(_STD forward<_Other2>(_Val2)) {}

  00233	89 7d f8	 mov	 DWORD PTR $T3[ebp+4], edi
; File D:\Metin2 Server Files\mainline\SRC_2014\Metin2Client\UserInterface\PythonTextTail.cpp

; 663  : 	m_ChatTailMap.insert(TTextTailMap::value_type(VirtualID, pTextTail));

  00236	e8 00 00 00 00	 call	 ??$insert@$0A@$0A@@?$_Tree@V?$_Tmap_traits@KPAUSTextTail@CPythonTextTail@@U?$less@K@std@@V?$allocator@U?$pair@$$CBKPAUSTextTail@CPythonTextTail@@@std@@@4@$0A@@std@@@std@@QAE?AU?$pair@V?$_Tree_iterator@V?$_Tree_val@U?$_Tree_simple_types@U?$pair@$$CBKPAUSTextTail@CPythonTextTail@@@std@@@std@@@std@@@std@@_N@1@$$QAU?$pair@$$CBKPAUSTextTail@CPythonTextTail@@@1@@Z ; std::_Tree<std::_Tmap_traits<unsigned long,CPythonTextTail::STextTail *,std::less<unsigned long>,std::allocator<std::pair<unsigned long const ,CPythonTextTail::STextTail *> >,0> >::insert<0,0>
$LN1@RegisterIn:

; 664  : }

  0023b	5f		 pop	 edi
  0023c	5e		 pop	 esi
  0023d	5b		 pop	 ebx
  0023e	8b e5		 mov	 esp, ebp
  00240	5d		 pop	 ebp
  00241	c2 08 00	 ret	 8
?RegisterInfoTail@CPythonTextTail@@QAEXKPBD@Z ENDP	; CPythonTextTail::RegisterInfoTail
_TEXT	ENDS
; Function compile flags: /Ogtp
; File D:\Metin2 Server Files\mainline\SRC_2014\Metin2Client\UserInterface\PythonTextTail.cpp
; File C:\Program Files (x86)\Microsoft Visual Studio\2019\Community\VC\Tools\MSVC\14.28.29333\include\xtree
; File C:\Program Files (x86)\Microsoft Visual Studio\2019\Community\VC\Tools\MSVC\14.28.29333\include\xstddef
; File C:\Program Files (x86)\Microsoft Visual Studio\2019\Community\VC\Tools\MSVC\14.28.29333\include\xtree
; File D:\Metin2 Server Files\mainline\SRC_2014\Metin2Client\UserInterface\PythonTextTail.cpp
; File D:\Metin2 Server Files\mainline\SRC_2014\M2Data\include\d3dx8math.inl
; File D:\Metin2 Server Files\mainline\SRC_2014\Metin2Client\UserInterface\PythonTextTail.cpp
; File D:\Metin2 Server Files\mainline\SRC_2014\M2Data\include\d3dx8math.inl
; File D:\Metin2 Server Files\mainline\SRC_2014\Metin2Client\UserInterface\PythonTextTail.cpp
; File D:\Metin2 Server Files\mainline\SRC_2014\M2Data\include\d3dx8math.inl
; File D:\Metin2 Server Files\mainline\SRC_2014\Metin2Client\UserInterface\PythonTextTail.cpp
; File C:\Program Files (x86)\Microsoft Visual Studio\2019\Community\VC\Tools\MSVC\14.28.29333\include\utility
; File D:\Metin2 Server Files\mainline\SRC_2014\Metin2Client\UserInterface\PythonTextTail.cpp
; File C:\Program Files (x86)\Microsoft Visual Studio\2019\Community\VC\Tools\MSVC\14.28.29333\include\utility
; File D:\Metin2 Server Files\mainline\SRC_2014\Metin2Client\UserInterface\PythonTextTail.cpp
;	COMDAT ?RegisterChatTail@CPythonTextTail@@QAEXKPBD@Z
_TEXT	SEGMENT
__Loc$1 = -24						; size = 12
$T2 = -20						; size = 8
$T3 = -12						; size = 8
_this$1$ = -4						; size = 4
_dwR$1$ = 8						; size = 4
_VirtualID$ = 8						; size = 4
_c_szChat$ = 12						; size = 4
?RegisterChatTail@CPythonTextTail@@QAEXKPBD@Z PROC	; CPythonTextTail::RegisterChatTail, COMDAT
; _this$ = ecx

; 581  : {

  00000	55		 push	 ebp
  00001	8b ec		 mov	 ebp, esp
  00003	83 ec 18	 sub	 esp, 24			; 00000018H
  00006	53		 push	 ebx

; 582  : 	CInstanceBase * pCharacterInstance = CPythonCharacterManager::Instance().GetInstancePtr(VirtualID);

  00007	8b 5d 08	 mov	 ebx, DWORD PTR _VirtualID$[ebp]
  0000a	56		 push	 esi
  0000b	8b f1		 mov	 esi, ecx
  0000d	8b 0d 00 00 00
	00		 mov	 ecx, DWORD PTR ?ms_singleton@?$CSingleton@VCPythonCharacterManager@@@@0PAVCPythonCharacterManager@@A ; CSingleton<CPythonCharacterManager>::ms_singleton
  00013	83 c1 04	 add	 ecx, 4
  00016	89 75 fc	 mov	 DWORD PTR _this$1$[ebp], esi
  00019	57		 push	 edi
  0001a	53		 push	 ebx
  0001b	8b 01		 mov	 eax, DWORD PTR [ecx]
  0001d	ff 50 08	 call	 DWORD PTR [eax+8]
  00020	8b f8		 mov	 edi, eax

; 583  : 
; 584  : 	if (!pCharacterInstance)

  00022	85 ff		 test	 edi, edi
  00024	0f 84 11 02 00
	00		 je	 $LN1@RegisterCh
; File C:\Program Files (x86)\Microsoft Visual Studio\2019\Community\VC\Tools\MSVC\14.28.29333\include\xtree

; 1458 :         const _Tree_find_result<_Nodeptr> _Loc = _Find_lower_bound(_Keyval);

  0002a	8d 45 08	 lea	 eax, DWORD PTR _VirtualID$[ebp]
  0002d	50		 push	 eax
  0002e	8d 45 e8	 lea	 eax, DWORD PTR __Loc$1[ebp]
  00031	50		 push	 eax
  00032	8d 4e 14	 lea	 ecx, DWORD PTR [esi+20]
  00035	e8 00 00 00 00	 call	 ??$_Find_lower_bound@K@?$_Tree@V?$_Tmap_traits@KPAUSTextTail@CPythonTextTail@@U?$less@K@std@@V?$allocator@U?$pair@$$CBKPAUSTextTail@CPythonTextTail@@@std@@@4@$0A@@std@@@std@@IBE?AU?$_Tree_find_result@PAU?$_Tree_node@U?$pair@$$CBKPAUSTextTail@CPythonTextTail@@@std@@PAX@std@@@1@ABK@Z ; std::_Tree<std::_Tmap_traits<unsigned long,CPythonTextTail::STextTail *,std::less<unsigned long>,std::allocator<std::pair<unsigned long const ,CPythonTextTail::STextTail *> >,0> >::_Find_lower_bound<unsigned long>

; 1695 :         return !_Bound->_Isnil && !_DEBUG_LT_PRED(_Getcomp(), _Keyval, _Traits::_Kfn(_Bound->_Myval));

  0003a	8b 45 f0	 mov	 eax, DWORD PTR __Loc$1[ebp+8]
  0003d	80 78 0d 00	 cmp	 BYTE PTR [eax+13], 0
  00041	0f 85 77 01 00
	00		 jne	 $LN3@RegisterCh
; File C:\Program Files (x86)\Microsoft Visual Studio\2019\Community\VC\Tools\MSVC\14.28.29333\include\xstddef

; 127  :         return _Left < _Right;

  00047	3b 58 10	 cmp	 ebx, DWORD PTR [eax+16]
; File C:\Program Files (x86)\Microsoft Visual Studio\2019\Community\VC\Tools\MSVC\14.28.29333\include\xtree

; 1695 :         return !_Bound->_Isnil && !_DEBUG_LT_PRED(_Getcomp(), _Keyval, _Traits::_Kfn(_Bound->_Myval));

  0004a	0f 82 6e 01 00
	00		 jb	 $LN3@RegisterCh

; 39   :     _Tree_unchecked_const_iterator(_Nodeptr _Pnode, const _Mytree* _Plist) noexcept : _Ptr(_Pnode) {

  00050	39 46 14	 cmp	 DWORD PTR [esi+20], eax
; File D:\Metin2 Server Files\mainline\SRC_2014\Metin2Client\UserInterface\PythonTextTail.cpp

; 589  : 	if (m_ChatTailMap.end() != itor)

  00053	0f 84 65 01 00
	00		 je	 $LN3@RegisterCh

; 590  : 	{
; 591  : 		TTextTail * pTextTail = itor->second;

  00059	8b 78 14	 mov	 edi, DWORD PTR [eax+20]

; 592  : 
; 593  : 		pTextTail->pTextInstance->SetValue(c_szChat);

  0005c	6a ff		 push	 -1
  0005e	ff 75 0c	 push	 DWORD PTR _c_szChat$[ebp]
  00061	8b 4f 04	 mov	 ecx, DWORD PTR [edi+4]
  00064	e8 00 00 00 00	 call	 ?SetValue@CGraphicTextInstance@@QAEXPBDI@Z ; CGraphicTextInstance::SetValue

; 594  : 		pTextTail->pTextInstance->Update();

  00069	8b 4f 04	 mov	 ecx, DWORD PTR [edi+4]
  0006c	e8 00 00 00 00	 call	 ?Update@CGraphicTextInstance@@QAEXXZ ; CGraphicTextInstance::Update

; 595  : 		pTextTail->Color = c_TextTail_Chat_Color;

  00071	0f 10 05 00 00
	00 00		 movups	 xmm0, XMMWORD PTR ?c_TextTail_Chat_Color@@3UD3DXCOLOR@@B
; File D:\Metin2 Server Files\mainline\SRC_2014\M2Data\include\d3dx8math.inl

; 931  :     DWORD dwR = r >= 1.0f ? 0xff : r <= 0.0f ? 0x00 : (DWORD) (r * 255.0f + 0.5f);

  00078	f3 0f 10 1d 00
	00 00 00	 movss	 xmm3, DWORD PTR __real@437f0000
  00080	0f 57 c9	 xorps	 xmm1, xmm1
  00083	f3 0f 10 25 00
	00 00 00	 movss	 xmm4, DWORD PTR __real@3f000000
; File D:\Metin2 Server Files\mainline\SRC_2014\Metin2Client\UserInterface\PythonTextTail.cpp

; 595  : 		pTextTail->Color = c_TextTail_Chat_Color;

  0008b	0f 11 47 34	 movups	 XMMWORD PTR [edi+52], xmm0
; File D:\Metin2 Server Files\mainline\SRC_2014\M2Data\include\d3dx8math.inl

; 931  :     DWORD dwR = r >= 1.0f ? 0xff : r <= 0.0f ? 0x00 : (DWORD) (r * 255.0f + 0.5f);

  0008f	f3 0f 10 05 00
	00 00 00	 movss	 xmm0, DWORD PTR ?c_TextTail_Chat_Color@@3UD3DXCOLOR@@B
  00097	0f 2f 05 00 00
	00 00		 comiss	 xmm0, DWORD PTR __real@3f800000
  0009e	72 09		 jb	 SHORT $LN44@RegisterCh
  000a0	c7 45 08 ff 00
	00 00		 mov	 DWORD PTR _dwR$1$[ebp], 255 ; 000000ffH
  000a7	eb 31		 jmp	 SHORT $LN43@RegisterCh
$LN44@RegisterCh:
  000a9	0f 2f c8	 comiss	 xmm1, xmm0
  000ac	72 09		 jb	 SHORT $LN42@RegisterCh
  000ae	c7 45 08 00 00
	00 00		 mov	 DWORD PTR _dwR$1$[ebp], 0
  000b5	eb 23		 jmp	 SHORT $LN43@RegisterCh
$LN42@RegisterCh:
  000b7	f3 0f 59 c3	 mulss	 xmm0, xmm3
  000bb	f3 0f 58 c4	 addss	 xmm0, xmm4
  000bf	e8 00 00 00 00	 call	 __ftoui3
  000c4	f3 0f 10 1d 00
	00 00 00	 movss	 xmm3, DWORD PTR __real@437f0000
  000cc	0f 57 c9	 xorps	 xmm1, xmm1
  000cf	f3 0f 10 25 00
	00 00 00	 movss	 xmm4, DWORD PTR __real@3f000000
  000d7	89 45 08	 mov	 DWORD PTR _dwR$1$[ebp], eax
$LN43@RegisterCh:

; 932  :     DWORD dwG = g >= 1.0f ? 0xff : g <= 0.0f ? 0x00 : (DWORD) (g * 255.0f + 0.5f);

  000da	f3 0f 10 05 04
	00 00 00	 movss	 xmm0, DWORD PTR ?c_TextTail_Chat_Color@@3UD3DXCOLOR@@B+4
  000e2	0f 2f 05 00 00
	00 00		 comiss	 xmm0, DWORD PTR __real@3f800000
  000e9	72 07		 jb	 SHORT $LN48@RegisterCh
  000eb	bb ff 00 00 00	 mov	 ebx, 255		; 000000ffH
  000f0	eb 18		 jmp	 SHORT $LN47@RegisterCh
$LN48@RegisterCh:
  000f2	0f 2f c8	 comiss	 xmm1, xmm0
  000f5	72 04		 jb	 SHORT $LN46@RegisterCh
  000f7	33 db		 xor	 ebx, ebx
  000f9	eb 0f		 jmp	 SHORT $LN47@RegisterCh
$LN46@RegisterCh:
  000fb	f3 0f 59 c3	 mulss	 xmm0, xmm3
  000ff	f3 0f 58 c4	 addss	 xmm0, xmm4
  00103	e8 00 00 00 00	 call	 __ftoui3
  00108	8b d8		 mov	 ebx, eax
$LN47@RegisterCh:

; 933  :     DWORD dwB = b >= 1.0f ? 0xff : b <= 0.0f ? 0x00 : (DWORD) (b * 255.0f + 0.5f);

  0010a	f3 0f 10 05 08
	00 00 00	 movss	 xmm0, DWORD PTR ?c_TextTail_Chat_Color@@3UD3DXCOLOR@@B+8
  00112	0f 57 c9	 xorps	 xmm1, xmm1
  00115	0f 2f 05 00 00
	00 00		 comiss	 xmm0, DWORD PTR __real@3f800000
  0011c	72 07		 jb	 SHORT $LN52@RegisterCh
  0011e	be ff 00 00 00	 mov	 esi, 255		; 000000ffH
  00123	eb 23		 jmp	 SHORT $LN51@RegisterCh
$LN52@RegisterCh:
  00125	0f 2f c8	 comiss	 xmm1, xmm0
  00128	72 04		 jb	 SHORT $LN50@RegisterCh
  0012a	33 f6		 xor	 esi, esi
  0012c	eb 1a		 jmp	 SHORT $LN51@RegisterCh
$LN50@RegisterCh:
  0012e	f3 0f 59 05 00
	00 00 00	 mulss	 xmm0, DWORD PTR __real@437f0000
  00136	f3 0f 58 05 00
	00 00 00	 addss	 xmm0, DWORD PTR __real@3f000000
  0013e	e8 00 00 00 00	 call	 __ftoui3
  00143	8b f0		 mov	 esi, eax
  00145	0f 57 c9	 xorps	 xmm1, xmm1
$LN51@RegisterCh:

; 934  :     DWORD dwA = a >= 1.0f ? 0xff : a <= 0.0f ? 0x00 : (DWORD) (a * 255.0f + 0.5f);

  00148	f3 0f 10 05 0c
	00 00 00	 movss	 xmm0, DWORD PTR ?c_TextTail_Chat_Color@@3UD3DXCOLOR@@B+12
  00150	0f 2f 05 00 00
	00 00		 comiss	 xmm0, DWORD PTR __real@3f800000
  00157	72 07		 jb	 SHORT $LN56@RegisterCh
  00159	b8 ff 00 00 00	 mov	 eax, 255		; 000000ffH
  0015e	eb 1e		 jmp	 SHORT $LN55@RegisterCh
$LN56@RegisterCh:
  00160	0f 2f c8	 comiss	 xmm1, xmm0
  00163	72 04		 jb	 SHORT $LN54@RegisterCh
  00165	33 c0		 xor	 eax, eax
  00167	eb 15		 jmp	 SHORT $LN55@RegisterCh
$LN54@RegisterCh:
  00169	f3 0f 59 05 00
	00 00 00	 mulss	 xmm0, DWORD PTR __real@437f0000
  00171	f3 0f 58 05 00
	00 00 00	 addss	 xmm0, DWORD PTR __real@3f000000
  00179	e8 00 00 00 00	 call	 __ftoui3
$LN55@RegisterCh:
; File D:\Metin2 Server Files\mainline\SRC_2014\Metin2Client\UserInterface\PythonTextTail.cpp

; 596  : 		pTextTail->pTextInstance->SetColor(c_TextTail_Chat_Color);

  0017e	8b 4f 04	 mov	 ecx, DWORD PTR [edi+4]
; File D:\Metin2 Server Files\mainline\SRC_2014\M2Data\include\d3dx8math.inl

; 936  :     return (dwA << 24) | (dwR << 16) | (dwG << 8) | dwB;

  00181	c1 e0 08	 shl	 eax, 8
  00184	0b 45 08	 or	 eax, DWORD PTR _dwR$1$[ebp]
  00187	c1 e0 08	 shl	 eax, 8
  0018a	0b c3		 or	 eax, ebx
  0018c	c1 e0 08	 shl	 eax, 8
  0018f	0b c6		 or	 eax, esi
; File D:\Metin2 Server Files\mainline\SRC_2014\Metin2Client\UserInterface\PythonTextTail.cpp

; 596  : 		pTextTail->pTextInstance->SetColor(c_TextTail_Chat_Color);

  00191	50		 push	 eax
  00192	e8 00 00 00 00	 call	 ?SetColor@CGraphicTextInstance@@QAEXK@Z ; CGraphicTextInstance::SetColor

; 597  : 
; 598  : 		// TEXTTAIL_LIVINGTIME_CONTROL
; 599  : 		pTextTail->LivingTime = CTimer::Instance().GetCurrentMillisecond() + TextTail_GetLivingTime();

  00197	8b 0d 00 00 00
	00		 mov	 ecx, DWORD PTR ?ms_singleton@?$CSingleton@VCTimer@@@@0PAVCTimer@@A ; CSingleton<CTimer>::ms_singleton
  0019d	e8 00 00 00 00	 call	 ?GetCurrentMillisecond@CTimer@@QAEKXZ ; CTimer::GetCurrentMillisecond
  001a2	8b f0		 mov	 esi, eax
  001a4	e8 00 00 00 00	 call	 ?TextTail_GetLivingTime@@YAJXZ ; TextTail_GetLivingTime
  001a9	03 f0		 add	 esi, eax

; 600  : 		// END_OF_TEXTTAIL_LIVINGTIME_CONTROL
; 601  : 
; 602  : 		pTextTail->bNameFlag = TRUE;

  001ab	c7 47 44 01 00
	00 00		 mov	 DWORD PTR [edi+68], 1
  001b2	89 77 58	 mov	 DWORD PTR [edi+88], esi
  001b5	5f		 pop	 edi

; 621  : }

  001b6	5e		 pop	 esi
  001b7	5b		 pop	 ebx
  001b8	8b e5		 mov	 esp, ebp
  001ba	5d		 pop	 ebp
  001bb	c2 08 00	 ret	 8
$LN3@RegisterCh:

; 603  : 
; 604  : 		return;
; 605  : 	}
; 606  : 
; 607  : 	TTextTail * pTextTail = RegisterTextTail(VirtualID,

  001be	68 00 00 00 00	 push	 OFFSET ?c_TextTail_Chat_Color@@3UD3DXCOLOR@@B
  001c3	8b cf		 mov	 ecx, edi
  001c5	e8 00 00 00 00	 call	 ?GetGraphicThingInstanceRef@CInstanceBase@@QAEAAVCActorInstance@@XZ ; CInstanceBase::GetGraphicThingInstanceRef
  001ca	8b c8		 mov	 ecx, eax
  001cc	e8 00 00 00 00	 call	 ?GetHeight@CActorInstance@@QAEMXZ ; CActorInstance::GetHeight
  001d1	d8 05 00 00 00
	00		 fadd	 DWORD PTR __real@41200000
  001d7	51		 push	 ecx
  001d8	8b cf		 mov	 ecx, edi
  001da	d9 1c 24	 fstp	 DWORD PTR [esp]
  001dd	e8 00 00 00 00	 call	 ?GetGraphicThingInstancePtr@CInstanceBase@@QAEPAVCActorInstance@@XZ ; CInstanceBase::GetGraphicThingInstancePtr
  001e2	50		 push	 eax
  001e3	ff 75 0c	 push	 DWORD PTR _c_szChat$[ebp]
  001e6	8b ce		 mov	 ecx, esi
  001e8	53		 push	 ebx
  001e9	e8 00 00 00 00	 call	 ?RegisterTextTail@CPythonTextTail@@IAEPAUSTextTail@1@KPBDPAVCGraphicObjectInstance@@MABUD3DXCOLOR@@@Z ; CPythonTextTail::RegisterTextTail

; 608  : 											 c_szChat,
; 609  : 											 pCharacterInstance->GetGraphicThingInstancePtr(),
; 610  : 											 pCharacterInstance->GetGraphicThingInstanceRef().GetHeight() + 10.0f,
; 611  : 											 c_TextTail_Chat_Color);
; 612  : 
; 613  : 	// TEXTTAIL_LIVINGTIME_CONTROL
; 614  : 	pTextTail->LivingTime = CTimer::Instance().GetCurrentMillisecond() + TextTail_GetLivingTime();

  001ee	8b 0d 00 00 00
	00		 mov	 ecx, DWORD PTR ?ms_singleton@?$CSingleton@VCTimer@@@@0PAVCTimer@@A ; CSingleton<CTimer>::ms_singleton
  001f4	8b f8		 mov	 edi, eax
  001f6	e8 00 00 00 00	 call	 ?GetCurrentMillisecond@CTimer@@QAEKXZ ; CTimer::GetCurrentMillisecond
  001fb	8b f0		 mov	 esi, eax
  001fd	e8 00 00 00 00	 call	 ?TextTail_GetLivingTime@@YAJXZ ; TextTail_GetLivingTime

; 615  : 	// END_OF_TEXTTAIL_LIVINGTIME_CONTROL
; 616  : 
; 617  : 	pTextTail->bNameFlag = TRUE;
; 618  : 	pTextTail->pTextInstance->SetOutline(true);

  00202	8b 4f 04	 mov	 ecx, DWORD PTR [edi+4]
  00205	03 f0		 add	 esi, eax
  00207	6a 01		 push	 1
  00209	89 77 58	 mov	 DWORD PTR [edi+88], esi
  0020c	c7 47 44 01 00
	00 00		 mov	 DWORD PTR [edi+68], 1
  00213	e8 00 00 00 00	 call	 ?SetOutline@CGraphicTextInstance@@QAEX_N@Z ; CGraphicTextInstance::SetOutline

; 619  : 	pTextTail->pTextInstance->SetVerticalAlign(CGraphicTextInstance::VERTICAL_ALIGN_BOTTOM);

  00218	8b 4f 04	 mov	 ecx, DWORD PTR [edi+4]
  0021b	6a 30		 push	 48			; 00000030H
  0021d	e8 00 00 00 00	 call	 ?SetVerticalAlign@CGraphicTextInstance@@QAEXH@Z ; CGraphicTextInstance::SetVerticalAlign

; 620  : 	m_ChatTailMap.insert(TTextTailMap::value_type(VirtualID, pTextTail));

  00222	8b 4d fc	 mov	 ecx, DWORD PTR _this$1$[ebp]
  00225	8d 45 f4	 lea	 eax, DWORD PTR $T3[ebp]
  00228	50		 push	 eax
  00229	8d 45 ec	 lea	 eax, DWORD PTR $T2[ebp]
; File C:\Program Files (x86)\Microsoft Visual Studio\2019\Community\VC\Tools\MSVC\14.28.29333\include\utility

; 190  :         : first(_STD forward<_Other1>(_Val1)), second(_STD forward<_Other2>(_Val2)) {}

  0022c	89 5d f4	 mov	 DWORD PTR $T3[ebp], ebx
; File D:\Metin2 Server Files\mainline\SRC_2014\Metin2Client\UserInterface\PythonTextTail.cpp

; 620  : 	m_ChatTailMap.insert(TTextTailMap::value_type(VirtualID, pTextTail));

  0022f	50		 push	 eax
  00230	8d 49 14	 lea	 ecx, DWORD PTR [ecx+20]
; File C:\Program Files (x86)\Microsoft Visual Studio\2019\Community\VC\Tools\MSVC\14.28.29333\include\utility

; 190  :         : first(_STD forward<_Other1>(_Val1)), second(_STD forward<_Other2>(_Val2)) {}

  00233	89 7d f8	 mov	 DWORD PTR $T3[ebp+4], edi
; File D:\Metin2 Server Files\mainline\SRC_2014\Metin2Client\UserInterface\PythonTextTail.cpp

; 620  : 	m_ChatTailMap.insert(TTextTailMap::value_type(VirtualID, pTextTail));

  00236	e8 00 00 00 00	 call	 ??$insert@$0A@$0A@@?$_Tree@V?$_Tmap_traits@KPAUSTextTail@CPythonTextTail@@U?$less@K@std@@V?$allocator@U?$pair@$$CBKPAUSTextTail@CPythonTextTail@@@std@@@4@$0A@@std@@@std@@QAE?AU?$pair@V?$_Tree_iterator@V?$_Tree_val@U?$_Tree_simple_types@U?$pair@$$CBKPAUSTextTail@CPythonTextTail@@@std@@@std@@@std@@@std@@_N@1@$$QAU?$pair@$$CBKPAUSTextTail@CPythonTextTail@@@1@@Z ; std::_Tree<std::_Tmap_traits<unsigned long,CPythonTextTail::STextTail *,std::less<unsigned long>,std::allocator<std::pair<unsigned long const ,CPythonTextTail::STextTail *> >,0> >::insert<0,0>
$LN1@RegisterCh:

; 621  : }

  0023b	5f		 pop	 edi
  0023c	5e		 pop	 esi
  0023d	5b		 pop	 ebx
  0023e	8b e5		 mov	 esp, ebp
  00240	5d		 pop	 ebp
  00241	c2 08 00	 ret	 8
?RegisterChatTail@CPythonTextTail@@QAEXKPBD@Z ENDP	; CPythonTextTail::RegisterChatTail
_TEXT	ENDS
; Function compile flags: /Ogtp
; File D:\Metin2 Server Files\mainline\SRC_2014\Metin2Client\UserInterface\PythonTextTail.cpp
; File C:\Program Files (x86)\Microsoft Visual Studio\2019\Community\VC\Tools\MSVC\14.28.29333\include\utility
; File D:\Metin2 Server Files\mainline\SRC_2014\Metin2Client\UserInterface\PythonTextTail.cpp
; File C:\Program Files (x86)\Microsoft Visual Studio\2019\Community\VC\Tools\MSVC\14.28.29333\include\utility
; File D:\Metin2 Server Files\mainline\SRC_2014\Metin2Client\UserInterface\PythonTextTail.cpp
; File C:\Program Files (x86)\Microsoft Visual Studio\2019\Community\VC\Tools\MSVC\14.28.29333\include\utility
; File D:\Metin2 Server Files\mainline\SRC_2014\Metin2Client\UserInterface\PythonTextTail.cpp
;	COMDAT ?RegisterItemTextTail@CPythonTextTail@@QAEXKPBDPAVCGraphicObjectInstance@@@Z
_TEXT	SEGMENT
$T1 = -16						; size = 8
$T2 = -8						; size = 8
_VirtualID$ = 8						; size = 4
_c_szText$ = 12						; size = 4
_pOwner$ = 16						; size = 4
?RegisterItemTextTail@CPythonTextTail@@QAEXKPBDPAVCGraphicObjectInstance@@@Z PROC ; CPythonTextTail::RegisterItemTextTail, COMDAT
; _this$ = ecx

; 567  : {

  00000	55		 push	 ebp
  00001	8b ec		 mov	 ebp, esp
  00003	83 ec 10	 sub	 esp, 16			; 00000010H
; File C:\Program Files (x86)\Microsoft Visual Studio\2019\Community\VC\Tools\MSVC\14.28.29333\include\utility

; 190  :         : first(_STD forward<_Other1>(_Val1)), second(_STD forward<_Other2>(_Val2)) {}

  00006	8b 45 08	 mov	 eax, DWORD PTR _VirtualID$[ebp]
; File D:\Metin2 Server Files\mainline\SRC_2014\Metin2Client\UserInterface\PythonTextTail.cpp

; 567  : {

  00009	56		 push	 esi

; 575  : 	TTextTail * pTextTail = RegisterTextTail(VirtualID, c_szText, pOwner, c_TextTail_Name_Position, c_TextTail_Item_Color);

  0000a	68 00 00 00 00	 push	 OFFSET ?c_TextTail_Item_Color@@3UD3DXCOLOR@@B
  0000f	51		 push	 ecx
  00010	c7 04 24 00 00
	20 c1		 mov	 DWORD PTR [esp], -1054867456 ; c1200000H
  00017	8b f1		 mov	 esi, ecx
  00019	ff 75 10	 push	 DWORD PTR _pOwner$[ebp]
; File C:\Program Files (x86)\Microsoft Visual Studio\2019\Community\VC\Tools\MSVC\14.28.29333\include\utility

; 190  :         : first(_STD forward<_Other1>(_Val1)), second(_STD forward<_Other2>(_Val2)) {}

  0001c	89 45 f8	 mov	 DWORD PTR $T2[ebp], eax
; File D:\Metin2 Server Files\mainline\SRC_2014\Metin2Client\UserInterface\PythonTextTail.cpp

; 575  : 	TTextTail * pTextTail = RegisterTextTail(VirtualID, c_szText, pOwner, c_TextTail_Name_Position, c_TextTail_Item_Color);

  0001f	ff 75 0c	 push	 DWORD PTR _c_szText$[ebp]
  00022	50		 push	 eax
  00023	e8 00 00 00 00	 call	 ?RegisterTextTail@CPythonTextTail@@IAEPAUSTextTail@1@KPBDPAVCGraphicObjectInstance@@MABUD3DXCOLOR@@@Z ; CPythonTextTail::RegisterTextTail
; File C:\Program Files (x86)\Microsoft Visual Studio\2019\Community\VC\Tools\MSVC\14.28.29333\include\utility

; 190  :         : first(_STD forward<_Other1>(_Val1)), second(_STD forward<_Other2>(_Val2)) {}

  00028	89 45 fc	 mov	 DWORD PTR $T2[ebp+4], eax
; File D:\Metin2 Server Files\mainline\SRC_2014\Metin2Client\UserInterface\PythonTextTail.cpp

; 576  : 	m_ItemTextTailMap.insert(TTextTailMap::value_type(VirtualID, pTextTail));

  0002b	8d 4e 0c	 lea	 ecx, DWORD PTR [esi+12]
  0002e	8d 45 f8	 lea	 eax, DWORD PTR $T2[ebp]
  00031	50		 push	 eax
  00032	8d 45 f0	 lea	 eax, DWORD PTR $T1[ebp]
  00035	50		 push	 eax
  00036	e8 00 00 00 00	 call	 ??$insert@$0A@$0A@@?$_Tree@V?$_Tmap_traits@KPAUSTextTail@CPythonTextTail@@U?$less@K@std@@V?$allocator@U?$pair@$$CBKPAUSTextTail@CPythonTextTail@@@std@@@4@$0A@@std@@@std@@QAE?AU?$pair@V?$_Tree_iterator@V?$_Tree_val@U?$_Tree_simple_types@U?$pair@$$CBKPAUSTextTail@CPythonTextTail@@@std@@@std@@@std@@@std@@_N@1@$$QAU?$pair@$$CBKPAUSTextTail@CPythonTextTail@@@1@@Z ; std::_Tree<std::_Tmap_traits<unsigned long,CPythonTextTail::STextTail *,std::less<unsigned long>,std::allocator<std::pair<unsigned long const ,CPythonTextTail::STextTail *> >,0> >::insert<0,0>
  0003b	5e		 pop	 esi

; 577  : #endif
; 578  : }

  0003c	8b e5		 mov	 esp, ebp
  0003e	5d		 pop	 ebp
  0003f	c2 0c 00	 ret	 12			; 0000000cH
?RegisterItemTextTail@CPythonTextTail@@QAEXKPBDPAVCGraphicObjectInstance@@@Z ENDP ; CPythonTextTail::RegisterItemTextTail
_TEXT	ENDS
; Function compile flags: /Ogtp
; File D:\Metin2 Server Files\mainline\SRC_2014\Metin2Client\UserInterface\PythonTextTail.cpp
; File C:\Program Files (x86)\Microsoft Visual Studio\2019\Community\VC\Tools\MSVC\14.28.29333\include\xstring
; File D:\Metin2 Server Files\mainline\SRC_2014\Metin2Client\UserInterface\PythonTextTail.cpp
; File C:\Program Files (x86)\Microsoft Visual Studio\2019\Community\VC\Tools\MSVC\14.28.29333\include\xstring
; File D:\Metin2 Server Files\mainline\SRC_2014\Metin2Client\UserInterface\PythonTextTail.cpp
; File C:\Program Files (x86)\Microsoft Visual Studio\2019\Community\VC\Tools\MSVC\14.28.29333\include\xstring
; File D:\Metin2 Server Files\mainline\SRC_2014\Metin2Client\UserInterface\PythonTextTail.cpp
; File C:\Program Files (x86)\Microsoft Visual Studio\2019\Community\VC\Tools\MSVC\14.28.29333\include\xstring
; File C:\Program Files (x86)\Microsoft Visual Studio\2019\Community\VC\Tools\MSVC\14.28.29333\include\xmemory
; File C:\Program Files (x86)\Microsoft Visual Studio\2019\Community\VC\Tools\MSVC\14.28.29333\include\xstring
; File D:\Metin2 Server Files\mainline\SRC_2014\Metin2Client\UserInterface\PythonTextTail.cpp
; File C:\Program Files (x86)\Microsoft Visual Studio\2019\Community\VC\Tools\MSVC\14.28.29333\include\xstring
; File C:\Program Files (x86)\Microsoft Visual Studio\2019\Community\VC\Tools\MSVC\14.28.29333\include\xmemory
; File C:\Program Files (x86)\Microsoft Visual Studio\2019\Community\VC\Tools\MSVC\14.28.29333\include\xstring
; File C:\Program Files (x86)\Microsoft Visual Studio\2019\Community\VC\Tools\MSVC\14.28.29333\include\xmemory
; File C:\Program Files (x86)\Microsoft Visual Studio\2019\Community\VC\Tools\MSVC\14.28.29333\include\xstring
; File C:\Program Files (x86)\Microsoft Visual Studio\2019\Community\VC\Tools\MSVC\14.28.29333\include\xmemory
; File C:\Program Files (x86)\Microsoft Visual Studio\2019\Community\VC\Tools\MSVC\14.28.29333\include\xstring
; File D:\Metin2 Server Files\mainline\SRC_2014\Metin2Client\UserInterface\PythonTextTail.cpp
; File C:\Program Files (x86)\Microsoft Visual Studio\2019\Community\VC\Tools\MSVC\14.28.29333\include\xstring
; File D:\Metin2 Server Files\mainline\SRC_2014\Metin2Client\UserInterface\PythonTextTail.cpp
; File C:\Program Files (x86)\Microsoft Visual Studio\2019\Community\VC\Tools\MSVC\14.28.29333\include\xstring
; File D:\Metin2 Server Files\mainline\SRC_2014\Metin2Client\UserInterface\PythonTextTail.cpp
; File C:\Program Files (x86)\Microsoft Visual Studio\2019\Community\VC\Tools\MSVC\14.28.29333\include\xstring
; File D:\Metin2 Server Files\mainline\SRC_2014\Metin2Client\UserInterface\PythonTextTail.cpp
; File C:\Program Files (x86)\Microsoft Visual Studio\2019\Community\VC\Tools\MSVC\14.28.29333\include\xstring
; File C:\Program Files (x86)\Microsoft Visual Studio\2019\Community\VC\Tools\MSVC\14.28.29333\include\xmemory
; File C:\Program Files (x86)\Microsoft Visual Studio\2019\Community\VC\Tools\MSVC\14.28.29333\include\utility
; File D:\Metin2 Server Files\mainline\SRC_2014\Metin2Client\UserInterface\PythonTextTail.cpp
; File C:\Program Files (x86)\Microsoft Visual Studio\2019\Community\VC\Tools\MSVC\14.28.29333\include\utility
; File D:\Metin2 Server Files\mainline\SRC_2014\Metin2Client\UserInterface\PythonTextTail.cpp
; File C:\Program Files (x86)\Microsoft Visual Studio\2019\Community\VC\Tools\MSVC\14.28.29333\include\utility
; File D:\Metin2 Server Files\mainline\SRC_2014\Metin2Client\UserInterface\PythonTextTail.cpp
;	COMDAT ?RegisterCharacterTextTail@CPythonTextTail@@QAEXKKABUD3DXCOLOR@@M@Z
_TEXT	SEGMENT
$T2 = -84						; size = 8
_dwVirtualID$GSCopy$1$ = -80				; size = 4
_this$GSCopy$1$ = -76					; size = 4
$T3 = -72						; size = 8
_fAddHeight$GSCopy$ = -68				; size = 4
__New_ptr$4 = -68					; size = 4
_markImagePath$5 = -64					; size = 24
_strGuildName$6 = -40					; size = 24
__$ArrayPad$ = -16					; size = 4
__$EHRec$ = -12						; size = 12
_dwGuildID$ = 8						; size = 4
_dwVirtualID$ = 12					; size = 4
_c_rColor$ = 16						; size = 4
_fAddHeight$ = 20					; size = 4
?RegisterCharacterTextTail@CPythonTextTail@@QAEXKKABUD3DXCOLOR@@M@Z PROC ; CPythonTextTail::RegisterCharacterTextTail, COMDAT
; _this$ = ecx

; 509  : {

  00000	55		 push	 ebp
  00001	8b ec		 mov	 ebp, esp
  00003	6a ff		 push	 -1
  00005	68 00 00 00 00	 push	 __ehhandler$?RegisterCharacterTextTail@CPythonTextTail@@QAEXKKABUD3DXCOLOR@@M@Z
  0000a	64 a1 00 00 00
	00		 mov	 eax, DWORD PTR fs:0
  00010	50		 push	 eax
  00011	83 ec 48	 sub	 esp, 72			; 00000048H
  00014	a1 00 00 00 00	 mov	 eax, DWORD PTR ___security_cookie
  00019	33 c5		 xor	 eax, ebp
  0001b	89 45 f0	 mov	 DWORD PTR __$ArrayPad$[ebp], eax
  0001e	53		 push	 ebx
  0001f	56		 push	 esi
  00020	57		 push	 edi
  00021	50		 push	 eax
  00022	8d 45 f4	 lea	 eax, DWORD PTR __$EHRec$[ebp]
  00025	64 a3 00 00 00
	00		 mov	 DWORD PTR fs:0, eax
  0002b	89 4d b4	 mov	 DWORD PTR _this$GSCopy$1$[ebp], ecx

; 510  : 	CInstanceBase * pCharacterInstance = CPythonCharacterManager::Instance().GetInstancePtr(dwVirtualID);

  0002e	8b 0d 00 00 00
	00		 mov	 ecx, DWORD PTR ?ms_singleton@?$CSingleton@VCPythonCharacterManager@@@@0PAVCPythonCharacterManager@@A ; CSingleton<CPythonCharacterManager>::ms_singleton
  00034	8b 5d 0c	 mov	 ebx, DWORD PTR _dwVirtualID$[ebp]
  00037	83 c1 04	 add	 ecx, 4
  0003a	f3 0f 10 45 14	 movss	 xmm0, DWORD PTR _fAddHeight$[ebp]
  0003f	8b 7d 10	 mov	 edi, DWORD PTR _c_rColor$[ebp]
  00042	53		 push	 ebx
  00043	8b 01		 mov	 eax, DWORD PTR [ecx]
  00045	89 5d b0	 mov	 DWORD PTR _dwVirtualID$GSCopy$1$[ebp], ebx
  00048	f3 0f 11 45 bc	 movss	 DWORD PTR _fAddHeight$GSCopy$[ebp], xmm0
  0004d	ff 50 08	 call	 DWORD PTR [eax+8]
  00050	8b f0		 mov	 esi, eax

; 511  : 
; 512  : 	if (!pCharacterInstance)

  00052	85 f6		 test	 esi, esi
  00054	0f 84 a6 02 00
	00		 je	 $LN1@RegisterCh

; 513  : 		return;
; 514  : 
; 515  : 	TTextTail * pTextTail = RegisterTextTail(dwVirtualID,

  0005a	57		 push	 edi
  0005b	8b ce		 mov	 ecx, esi
  0005d	e8 00 00 00 00	 call	 ?GetGraphicThingInstanceRef@CInstanceBase@@QAEAAVCActorInstance@@XZ ; CInstanceBase::GetGraphicThingInstanceRef
  00062	8b c8		 mov	 ecx, eax
  00064	e8 00 00 00 00	 call	 ?GetHeight@CActorInstance@@QAEMXZ ; CActorInstance::GetHeight
  00069	d8 45 bc	 fadd	 DWORD PTR _fAddHeight$GSCopy$[ebp]
  0006c	51		 push	 ecx
  0006d	8b ce		 mov	 ecx, esi
  0006f	d9 1c 24	 fstp	 DWORD PTR [esp]
  00072	e8 00 00 00 00	 call	 ?GetGraphicThingInstancePtr@CInstanceBase@@QAEPAVCActorInstance@@XZ ; CInstanceBase::GetGraphicThingInstancePtr
  00077	50		 push	 eax
  00078	8b ce		 mov	 ecx, esi
  0007a	e8 00 00 00 00	 call	 ?GetNameString@CInstanceBase@@QAEPBDXZ ; CInstanceBase::GetNameString
  0007f	8b 4d b4	 mov	 ecx, DWORD PTR _this$GSCopy$1$[ebp]
  00082	50		 push	 eax
  00083	53		 push	 ebx
  00084	e8 00 00 00 00	 call	 ?RegisterTextTail@CPythonTextTail@@IAEPAUSTextTail@1@KPBDPAVCGraphicObjectInstance@@MABUD3DXCOLOR@@@Z ; CPythonTextTail::RegisterTextTail
  00089	8b d8		 mov	 ebx, eax

; 516  : 											 pCharacterInstance->GetNameString(),
; 517  : 											 pCharacterInstance->GetGraphicThingInstancePtr(),
; 518  : 											 pCharacterInstance->GetGraphicThingInstanceRef().GetHeight() + fAddHeight,
; 519  : 											 c_rColor);
; 520  : 
; 521  : 	CGraphicTextInstance * pTextInstance = pTextTail->pTextInstance;
; 522  : 	pTextInstance->SetOutline(true);

  0008b	6a 01		 push	 1
  0008d	8b 73 04	 mov	 esi, DWORD PTR [ebx+4]
  00090	8b ce		 mov	 ecx, esi
  00092	e8 00 00 00 00	 call	 ?SetOutline@CGraphicTextInstance@@QAEX_N@Z ; CGraphicTextInstance::SetOutline

; 523  : 	pTextInstance->SetVerticalAlign(CGraphicTextInstance::VERTICAL_ALIGN_BOTTOM);

  00097	6a 30		 push	 48			; 00000030H
  00099	8b ce		 mov	 ecx, esi
  0009b	e8 00 00 00 00	 call	 ?SetVerticalAlign@CGraphicTextInstance@@QAEXH@Z ; CGraphicTextInstance::SetVerticalAlign

; 524  : 
; 525  : 	pTextTail->pMarkInstance=NULL;	
; 526  : 	pTextTail->pGuildNameTextInstance=NULL;
; 527  : 	pTextTail->pTitleTextInstance=NULL;
; 528  : 	pTextTail->pLevelTextInstance=NULL;
; 529  : 
; 530  : 	if (0 != dwGuildID)

  000a0	8b 75 08	 mov	 esi, DWORD PTR _dwGuildID$[ebp]
  000a3	c7 43 0c 00 00
	00 00		 mov	 DWORD PTR [ebx+12], 0
  000aa	c7 43 10 00 00
	00 00		 mov	 DWORD PTR [ebx+16], 0
  000b1	c7 43 14 00 00
	00 00		 mov	 DWORD PTR [ebx+20], 0
  000b8	c7 43 18 00 00
	00 00		 mov	 DWORD PTR [ebx+24], 0
  000bf	85 f6		 test	 esi, esi
  000c1	0f 84 1d 02 00
	00		 je	 $LN101@RegisterCh

; 531  : 	{
; 532  : 		pTextTail->pMarkInstance = CGraphicMarkInstance::New();

  000c7	e8 00 00 00 00	 call	 ?New@CGraphicMarkInstance@@SAPAV1@XZ ; CGraphicMarkInstance::New
  000cc	89 43 0c	 mov	 DWORD PTR [ebx+12], eax

; 533  : 
; 534  : 		DWORD dwMarkID = CGuildMarkManager::Instance().GetMarkID(dwGuildID);

  000cf	8b 0d 00 00 00
	00		 mov	 ecx, DWORD PTR ?ms_singleton@?$singleton@VCGuildMarkManager@@@@0PAVCGuildMarkManager@@A ; singleton<CGuildMarkManager>::ms_singleton
  000d5	56		 push	 esi
  000d6	e8 00 00 00 00	 call	 ?GetMarkID@CGuildMarkManager@@QAEKK@Z ; CGuildMarkManager::GetMarkID
  000db	8b f0		 mov	 esi, eax

; 535  : 
; 536  : 		if (dwMarkID != CGuildMarkManager::INVALID_MARK_ID)

  000dd	83 fe ff	 cmp	 esi, -1
  000e0	74 7b		 je	 SHORT $LN32@RegisterCh
; File C:\Program Files (x86)\Microsoft Visual Studio\2019\Community\VC\Tools\MSVC\14.28.29333\include\xstring

; 4377 :         _Mypair._Myval2._Mysize = 0;

  000e2	c7 45 d0 00 00
	00 00		 mov	 DWORD PTR _markImagePath$5[ebp+16], 0

; 4378 :         _Mypair._Myval2._Myres  = _BUF_SIZE - 1;

  000e9	c7 45 d4 0f 00
	00 00		 mov	 DWORD PTR _markImagePath$5[ebp+20], 15 ; 0000000fH

; 4379 :         // the _Traits::assign is last so the codegen doesn't think the char write can alias this
; 4380 :         _Traits::assign(_Mypair._Myval2._Bx._Buf[0], _Elem());

  000f0	c6 45 c0 00	 mov	 BYTE PTR _markImagePath$5[ebp], 0
; File D:\Metin2 Server Files\mainline\SRC_2014\Metin2Client\UserInterface\PythonTextTail.cpp

; 540  : 			if (CGuildMarkManager::Instance().GetMarkImageFilename(dwMarkID / CGuildMarkImage::MARK_TOTAL_COUNT, markImagePath))

  000f4	8b 0d 00 00 00
	00		 mov	 ecx, DWORD PTR ?ms_singleton@?$singleton@VCGuildMarkManager@@@@0PAVCGuildMarkManager@@A ; singleton<CGuildMarkManager>::ms_singleton
  000fa	b8 cd cc cc cc	 mov	 eax, -858993459		; cccccccdH
  000ff	f7 e6		 mul	 esi
  00101	8d 45 c0	 lea	 eax, DWORD PTR _markImagePath$5[ebp]
  00104	c7 45 fc 00 00
	00 00		 mov	 DWORD PTR __$EHRec$[ebp+8], 0
  0010b	8b fa		 mov	 edi, edx
  0010d	50		 push	 eax
  0010e	c1 ef 0a	 shr	 edi, 10			; 0000000aH
  00111	57		 push	 edi
  00112	e8 00 00 00 00	 call	 ?GetMarkImageFilename@CGuildMarkManager@@QBE_NKAAV?$basic_string@DU?$char_traits@D@std@@V?$allocator@D@2@@std@@@Z ; CGuildMarkManager::GetMarkImageFilename
  00117	84 c0		 test	 al, al
  00119	74 2d		 je	 SHORT $LN5@RegisterCh
; File C:\Program Files (x86)\Microsoft Visual Studio\2019\Community\VC\Tools\MSVC\14.28.29333\include\xstring

; 2219 :         if (_Large_string_engaged()) {

  0011b	83 7d d4 10	 cmp	 DWORD PTR _markImagePath$5[ebp+20], 16 ; 00000010H
  0011f	8d 45 c0	 lea	 eax, DWORD PTR _markImagePath$5[ebp]
; File D:\Metin2 Server Files\mainline\SRC_2014\Metin2Client\UserInterface\PythonTextTail.cpp

; 542  : 				pTextTail->pMarkInstance->SetImageFileName(markImagePath.c_str());

  00122	8b 4b 0c	 mov	 ecx, DWORD PTR [ebx+12]
; File C:\Program Files (x86)\Microsoft Visual Studio\2019\Community\VC\Tools\MSVC\14.28.29333\include\xstring

; 2219 :         if (_Large_string_engaged()) {

  00125	0f 43 45 c0	 cmovae	 eax, DWORD PTR _markImagePath$5[ebp]
; File D:\Metin2 Server Files\mainline\SRC_2014\Metin2Client\UserInterface\PythonTextTail.cpp

; 542  : 				pTextTail->pMarkInstance->SetImageFileName(markImagePath.c_str());

  00129	50		 push	 eax
  0012a	e8 00 00 00 00	 call	 ?SetImageFileName@CGraphicMarkInstance@@QAEXPBD@Z ; CGraphicMarkInstance::SetImageFileName

; 543  : 				pTextTail->pMarkInstance->Load();

  0012f	8b 4b 0c	 mov	 ecx, DWORD PTR [ebx+12]
  00132	e8 00 00 00 00	 call	 ?Load@CGraphicMarkInstance@@QAEXXZ ; CGraphicMarkInstance::Load

; 544  : 				pTextTail->pMarkInstance->SetIndex(dwMarkID % CGuildMarkImage::MARK_TOTAL_COUNT);

  00137	8b 4b 0c	 mov	 ecx, DWORD PTR [ebx+12]
  0013a	8d 04 bf	 lea	 eax, DWORD PTR [edi+edi*4]
  0013d	c1 e0 08	 shl	 eax, 8
  00140	2b f0		 sub	 esi, eax
  00142	56		 push	 esi
  00143	e8 00 00 00 00	 call	 ?SetIndex@CGraphicMarkInstance@@QAEXI@Z ; CGraphicMarkInstance::SetIndex
$LN5@RegisterCh:
; File C:\Program Files (x86)\Microsoft Visual Studio\2019\Community\VC\Tools\MSVC\14.28.29333\include\xstring

; 4385 :         if (_Mypair._Myval2._Large_string_engaged()) {

  00148	8b 45 d4	 mov	 eax, DWORD PTR _markImagePath$5[ebp+20]
  0014b	83 f8 10	 cmp	 eax, 16			; 00000010H
  0014e	72 0d		 jb	 SHORT $LN32@RegisterCh

; 4386 :             const pointer _Ptr = _Mypair._Myval2._Bx._Ptr;
; 4387 :             auto& _Al          = _Getal();
; 4388 :             _Destroy_in_place(_Mypair._Myval2._Bx._Ptr);
; 4389 :             _Al.deallocate(_Ptr, _Mypair._Myval2._Myres + 1);

  00150	40		 inc	 eax
; File C:\Program Files (x86)\Microsoft Visual Studio\2019\Community\VC\Tools\MSVC\14.28.29333\include\xmemory

; 810  :         _Deallocate<_New_alignof<_Ty>>(_Ptr, sizeof(_Ty) * _Count);

  00151	50		 push	 eax
  00152	ff 75 c0	 push	 DWORD PTR _markImagePath$5[ebp]
  00155	e8 00 00 00 00	 call	 ??$_Deallocate@$07$0A@@std@@YAXPAXI@Z ; std::_Deallocate<8,0>
  0015a	83 c4 08	 add	 esp, 8
$LN32@RegisterCh:
; File C:\Program Files (x86)\Microsoft Visual Studio\2019\Community\VC\Tools\MSVC\14.28.29333\include\xstring

; 4377 :         _Mypair._Myval2._Mysize = 0;

  0015d	c7 45 e8 00 00
	00 00		 mov	 DWORD PTR _strGuildName$6[ebp+16], 0

; 4378 :         _Mypair._Myval2._Myres  = _BUF_SIZE - 1;

  00164	c7 45 ec 0f 00
	00 00		 mov	 DWORD PTR _strGuildName$6[ebp+20], 15 ; 0000000fH

; 4379 :         // the _Traits::assign is last so the codegen doesn't think the char write can alias this
; 4380 :         _Traits::assign(_Mypair._Myval2._Bx._Buf[0], _Elem());

  0016b	c6 45 d8 00	 mov	 BYTE PTR _strGuildName$6[ebp], 0
; File D:\Metin2 Server Files\mainline\SRC_2014\Metin2Client\UserInterface\PythonTextTail.cpp

; 549  : 		if (!CPythonGuild::Instance().GetGuildName(dwGuildID, &strGuildName))

  0016f	8b 0d 00 00 00
	00		 mov	 ecx, DWORD PTR ?ms_singleton@?$CSingleton@VCPythonGuild@@@@0PAVCPythonGuild@@A ; CSingleton<CPythonGuild>::ms_singleton
  00175	8d 45 d8	 lea	 eax, DWORD PTR _strGuildName$6[ebp]
  00178	50		 push	 eax
  00179	ff 75 08	 push	 DWORD PTR _dwGuildID$[ebp]
  0017c	c7 45 fc 01 00
	00 00		 mov	 DWORD PTR __$EHRec$[ebp+8], 1
  00183	e8 00 00 00 00	 call	 ?GetGuildName@CPythonGuild@@QAE_NKPAV?$basic_string@DU?$char_traits@D@std@@V?$allocator@D@2@@std@@@Z ; CPythonGuild::GetGuildName
  00188	84 c0		 test	 al, al
  0018a	0f 85 ab 00 00
	00		 jne	 $LN68@RegisterCh
; File C:\Program Files (x86)\Microsoft Visual Studio\2019\Community\VC\Tools\MSVC\14.28.29333\include\xstring

; 3044 :         if (_Count <= _Mypair._Myval2._Myres) {

  00190	8b 7d ec	 mov	 edi, DWORD PTR _strGuildName$6[ebp+20]
  00193	83 ff 06	 cmp	 edi, 6
  00196	72 27		 jb	 SHORT $LN66@RegisterCh

; 2210 :         if (_Large_string_engaged()) {

  00198	83 ff 10	 cmp	 edi, 16			; 00000010H

; 3046 :             _Mypair._Myval2._Mysize = _Count;

  0019b	c7 45 e8 06 00
	00 00		 mov	 DWORD PTR _strGuildName$6[ebp+16], 6

; 119  :         _CSTD memmove(_First1, _First2, _Count * sizeof(_Elem));

  001a2	6a 06		 push	 6

; 2209 :         value_type* _Result = _Bx._Buf;

  001a4	8d 75 d8	 lea	 esi, DWORD PTR _strGuildName$6[ebp]

; 2210 :         if (_Large_string_engaged()) {

  001a7	0f 43 75 d8	 cmovae	 esi, DWORD PTR _strGuildName$6[ebp]

; 119  :         _CSTD memmove(_First1, _First2, _Count * sizeof(_Elem));

  001ab	68 00 00 00 00	 push	 OFFSET ??_C@_06HCBIANPB@Noname@
  001b0	56		 push	 esi
  001b1	e8 00 00 00 00	 call	 _memmove
  001b6	83 c4 0c	 add	 esp, 12			; 0000000cH

; 3048 :             _Traits::assign(_Old_ptr[_Count], _Elem());

  001b9	c6 46 06 00	 mov	 BYTE PTR [esi+6], 0

; 3049 :             return *this;

  001bd	eb 7c		 jmp	 SHORT $LN68@RegisterCh
$LN66@RegisterCh:

; 4309 :         const size_type _Old_capacity = _Mypair._Myval2._Myres;

  001bf	8b cf		 mov	 ecx, edi

; 4290 :         if (_Old > _Max - _Old / 2) { // similarly, geometric overflows

  001c1	b8 ff ff ff 7f	 mov	 eax, 2147483647		; 7fffffffH

; 4309 :         const size_type _Old_capacity = _Mypair._Myval2._Myres;

  001c6	d1 e9		 shr	 ecx, 1

; 4290 :         if (_Old > _Max - _Old / 2) { // similarly, geometric overflows

  001c8	2b c1		 sub	 eax, ecx
  001ca	3b f8		 cmp	 edi, eax
  001cc	76 07		 jbe	 SHORT $LN74@RegisterCh

; 4291 :             return _Max;

  001ce	be ff ff ff 7f	 mov	 esi, 2147483647		; 7fffffffH
  001d3	eb 0d		 jmp	 SHORT $LN72@RegisterCh
$LN74@RegisterCh:

; 4292 :         }
; 4293 : 
; 4294 :         return (_STD max)(_Masked, _Old + _Old / 2);

  001d5	8d 04 0f	 lea	 eax, DWORD PTR [edi+ecx]
  001d8	be 0f 00 00 00	 mov	 esi, 15			; 0000000fH
  001dd	3b c6		 cmp	 eax, esi
  001df	0f 47 f0	 cmova	 esi, eax
$LN72@RegisterCh:

; 4312 :         const pointer _New_ptr        = _Al.allocate(_New_capacity + 1); // throws

  001e2	8d 46 01	 lea	 eax, DWORD PTR [esi+1]
; File C:\Program Files (x86)\Microsoft Visual Studio\2019\Community\VC\Tools\MSVC\14.28.29333\include\xmemory

; 814  :         return static_cast<_Ty*>(_Allocate<_New_alignof<_Ty>>(_Get_size_of_n<sizeof(_Ty)>(_Count)));

  001e5	50		 push	 eax
  001e6	e8 00 00 00 00	 call	 ??$_Allocate@$07U_Default_allocate_traits@std@@$0A@@std@@YAPAXI@Z ; std::_Allocate<8,std::_Default_allocate_traits,0>
; File C:\Program Files (x86)\Microsoft Visual Studio\2019\Community\VC\Tools\MSVC\14.28.29333\include\xstring

; 62   :         _CSTD memcpy(_First1, _First2, _Count * sizeof(_Elem));

  001eb	8b 0d 00 00 00
	00		 mov	 ecx, DWORD PTR ??_C@_06HCBIANPB@Noname@
; File C:\Program Files (x86)\Microsoft Visual Studio\2019\Community\VC\Tools\MSVC\14.28.29333\include\xmemory

; 814  :         return static_cast<_Ty*>(_Allocate<_New_alignof<_Ty>>(_Get_size_of_n<sizeof(_Ty)>(_Count)));

  001f1	83 c4 04	 add	 esp, 4
; File C:\Program Files (x86)\Microsoft Visual Studio\2019\Community\VC\Tools\MSVC\14.28.29333\include\xstring

; 4314 :         _Mypair._Myval2._Mysize = _New_size;

  001f4	c7 45 e8 06 00
	00 00		 mov	 DWORD PTR _strGuildName$6[ebp+16], 6

; 4315 :         _Mypair._Myval2._Myres  = _New_capacity;

  001fb	89 75 ec	 mov	 DWORD PTR _strGuildName$6[ebp+20], esi

; 62   :         _CSTD memcpy(_First1, _First2, _Count * sizeof(_Elem));

  001fe	89 08		 mov	 DWORD PTR [eax], ecx
  00200	66 8b 0d 04 00
	00 00		 mov	 cx, WORD PTR ??_C@_06HCBIANPB@Noname@+4
  00207	66 89 48 04	 mov	 WORD PTR [eax+4], cx

; 4312 :         const pointer _New_ptr        = _Al.allocate(_New_capacity + 1); // throws

  0020b	89 45 bc	 mov	 DWORD PTR __New_ptr$4[ebp], eax

; 3056 :                 _Traits::assign(_New_ptr[_Count], _Elem());

  0020e	c6 40 06 00	 mov	 BYTE PTR [eax+6], 0

; 4317 :         if (_BUF_SIZE <= _Old_capacity) {

  00212	83 ff 10	 cmp	 edi, 16			; 00000010H
  00215	72 14		 jb	 SHORT $LN67@RegisterCh

; 4318 :             _Al.deallocate(_Mypair._Myval2._Bx._Ptr, _Old_capacity + 1);

  00217	8d 47 01	 lea	 eax, DWORD PTR [edi+1]
; File C:\Program Files (x86)\Microsoft Visual Studio\2019\Community\VC\Tools\MSVC\14.28.29333\include\xmemory

; 810  :         _Deallocate<_New_alignof<_Ty>>(_Ptr, sizeof(_Ty) * _Count);

  0021a	50		 push	 eax
  0021b	ff 75 d8	 push	 DWORD PTR _strGuildName$6[ebp]
  0021e	e8 00 00 00 00	 call	 ??$_Deallocate@$07$0A@@std@@YAXPAXI@Z ; std::_Deallocate<8,0>
; File C:\Program Files (x86)\Microsoft Visual Studio\2019\Community\VC\Tools\MSVC\14.28.29333\include\xstring

; 4319 :             _Mypair._Myval2._Bx._Ptr = _New_ptr;

  00223	8b 45 bc	 mov	 eax, DWORD PTR __New_ptr$4[ebp]
  00226	89 45 d8	 mov	 DWORD PTR _strGuildName$6[ebp], eax

; 4320 :         } else {

  00229	eb 0d		 jmp	 SHORT $LN110@RegisterCh
$LN67@RegisterCh:

; 4321 :             _Construct_in_place(_Mypair._Myval2._Bx._Ptr, _New_ptr);

  0022b	8d 45 bc	 lea	 eax, DWORD PTR __New_ptr$4[ebp]
  0022e	50		 push	 eax
  0022f	8d 45 d8	 lea	 eax, DWORD PTR _strGuildName$6[ebp]
  00232	50		 push	 eax
  00233	e8 00 00 00 00	 call	 ??$_Construct_in_place@PADABQAD@std@@YAXAAPADABQAD@Z ; std::_Construct_in_place<char *,char * const &>
$LN110@RegisterCh:
; File D:\Metin2 Server Files\mainline\SRC_2014\Metin2Client\UserInterface\PythonTextTail.cpp

; 553  : 		prGuildNameInstance = CGraphicTextInstance::New();

  00238	83 c4 08	 add	 esp, 8
$LN68@RegisterCh:
  0023b	e8 00 00 00 00	 call	 ?New@CGraphicTextInstance@@SAPAV1@XZ ; CGraphicTextInstance::New
  00240	89 43 10	 mov	 DWORD PTR [ebx+16], eax

; 554  : 		prGuildNameInstance->SetTextPointer(ms_pFont);

  00243	8b c8		 mov	 ecx, eax
  00245	ff 35 00 00 00
	00		 push	 DWORD PTR ?ms_pFont@@3PAVCGraphicText@@A ; ms_pFont
  0024b	e8 00 00 00 00	 call	 ?SetTextPointer@CGraphicTextInstance@@QAEXPAVCGraphicText@@@Z ; CGraphicTextInstance::SetTextPointer

; 555  : 		prGuildNameInstance->SetOutline(true);

  00250	8b 4b 10	 mov	 ecx, DWORD PTR [ebx+16]
  00253	6a 01		 push	 1
  00255	e8 00 00 00 00	 call	 ?SetOutline@CGraphicTextInstance@@QAEX_N@Z ; CGraphicTextInstance::SetOutline

; 556  : 		prGuildNameInstance->SetHorizonalAlign(CGraphicTextInstance::HORIZONTAL_ALIGN_CENTER);

  0025a	8b 4b 10	 mov	 ecx, DWORD PTR [ebx+16]
  0025d	6a 02		 push	 2
  0025f	e8 00 00 00 00	 call	 ?SetHorizonalAlign@CGraphicTextInstance@@QAEXH@Z ; CGraphicTextInstance::SetHorizonalAlign

; 557  : 		prGuildNameInstance->SetVerticalAlign(CGraphicTextInstance::VERTICAL_ALIGN_BOTTOM);

  00264	8b 4b 10	 mov	 ecx, DWORD PTR [ebx+16]
  00267	6a 30		 push	 48			; 00000030H
  00269	e8 00 00 00 00	 call	 ?SetVerticalAlign@CGraphicTextInstance@@QAEXH@Z ; CGraphicTextInstance::SetVerticalAlign
; File C:\Program Files (x86)\Microsoft Visual Studio\2019\Community\VC\Tools\MSVC\14.28.29333\include\xstring

; 2219 :         if (_Large_string_engaged()) {

  0026e	83 7d ec 10	 cmp	 DWORD PTR _strGuildName$6[ebp+20], 16 ; 00000010H
  00272	8d 45 d8	 lea	 eax, DWORD PTR _strGuildName$6[ebp]
; File D:\Metin2 Server Files\mainline\SRC_2014\Metin2Client\UserInterface\PythonTextTail.cpp

; 558  : 		prGuildNameInstance->SetValue(strGuildName.c_str());

  00275	8b 4b 10	 mov	 ecx, DWORD PTR [ebx+16]
; File C:\Program Files (x86)\Microsoft Visual Studio\2019\Community\VC\Tools\MSVC\14.28.29333\include\xstring

; 2219 :         if (_Large_string_engaged()) {

  00278	0f 43 45 d8	 cmovae	 eax, DWORD PTR _strGuildName$6[ebp]
; File D:\Metin2 Server Files\mainline\SRC_2014\Metin2Client\UserInterface\PythonTextTail.cpp

; 558  : 		prGuildNameInstance->SetValue(strGuildName.c_str());

  0027c	6a ff		 push	 -1
  0027e	50		 push	 eax
  0027f	e8 00 00 00 00	 call	 ?SetValue@CGraphicTextInstance@@QAEXPBDI@Z ; CGraphicTextInstance::SetValue

; 559  : 		prGuildNameInstance->SetColor(c_TextTail_Guild_Name_Color.r, c_TextTail_Guild_Name_Color.g, c_TextTail_Guild_Name_Color.b);

  00284	f3 0f 10 05 08
	00 00 00	 movss	 xmm0, DWORD PTR ?c_TextTail_Guild_Name_Color@@3UD3DXCOLOR@@B+8
  0028c	83 ec 10	 sub	 esp, 16			; 00000010H
  0028f	8b 4b 10	 mov	 ecx, DWORD PTR [ebx+16]
  00292	c7 44 24 0c 00
	00 80 3f	 mov	 DWORD PTR [esp+12], 1065353216 ; 3f800000H
  0029a	f3 0f 11 44 24
	08		 movss	 DWORD PTR [esp+8], xmm0
  002a0	f3 0f 10 05 04
	00 00 00	 movss	 xmm0, DWORD PTR ?c_TextTail_Guild_Name_Color@@3UD3DXCOLOR@@B+4
  002a8	f3 0f 11 44 24
	04		 movss	 DWORD PTR [esp+4], xmm0
  002ae	f3 0f 10 05 00
	00 00 00	 movss	 xmm0, DWORD PTR ?c_TextTail_Guild_Name_Color@@3UD3DXCOLOR@@B
  002b6	f3 0f 11 04 24	 movss	 DWORD PTR [esp], xmm0
  002bb	e8 00 00 00 00	 call	 ?SetColor@CGraphicTextInstance@@QAEXMMMM@Z ; CGraphicTextInstance::SetColor

; 560  : 		prGuildNameInstance->Update();

  002c0	8b 4b 10	 mov	 ecx, DWORD PTR [ebx+16]
  002c3	e8 00 00 00 00	 call	 ?Update@CGraphicTextInstance@@QAEXXZ ; CGraphicTextInstance::Update
; File C:\Program Files (x86)\Microsoft Visual Studio\2019\Community\VC\Tools\MSVC\14.28.29333\include\xstring

; 2227 :         return _BUF_SIZE <= _Myres;

  002c8	8b 45 ec	 mov	 eax, DWORD PTR _strGuildName$6[ebp+20]
; File D:\Metin2 Server Files\mainline\SRC_2014\Metin2Client\UserInterface\PythonTextTail.cpp

; 561  : 	}

  002cb	c7 45 fc ff ff
	ff ff		 mov	 DWORD PTR __$EHRec$[ebp+8], -1
; File C:\Program Files (x86)\Microsoft Visual Studio\2019\Community\VC\Tools\MSVC\14.28.29333\include\xstring

; 2227 :         return _BUF_SIZE <= _Myres;

  002d2	83 f8 10	 cmp	 eax, 16			; 00000010H

; 4385 :         if (_Mypair._Myval2._Large_string_engaged()) {

  002d5	72 0d		 jb	 SHORT $LN101@RegisterCh

; 4386 :             const pointer _Ptr = _Mypair._Myval2._Bx._Ptr;
; 4387 :             auto& _Al          = _Getal();
; 4388 :             _Destroy_in_place(_Mypair._Myval2._Bx._Ptr);
; 4389 :             _Al.deallocate(_Ptr, _Mypair._Myval2._Myres + 1);

  002d7	40		 inc	 eax
; File C:\Program Files (x86)\Microsoft Visual Studio\2019\Community\VC\Tools\MSVC\14.28.29333\include\xmemory

; 810  :         _Deallocate<_New_alignof<_Ty>>(_Ptr, sizeof(_Ty) * _Count);

  002d8	50		 push	 eax
  002d9	ff 75 d8	 push	 DWORD PTR _strGuildName$6[ebp]
  002dc	e8 00 00 00 00	 call	 ??$_Deallocate@$07$0A@@std@@YAXPAXI@Z ; std::_Deallocate<8,0>
  002e1	83 c4 08	 add	 esp, 8
$LN101@RegisterCh:
; File C:\Program Files (x86)\Microsoft Visual Studio\2019\Community\VC\Tools\MSVC\14.28.29333\include\utility

; 190  :         : first(_STD forward<_Other1>(_Val1)), second(_STD forward<_Other2>(_Val2)) {}

  002e4	8b 45 b0	 mov	 eax, DWORD PTR _dwVirtualID$GSCopy$1$[ebp]
; File D:\Metin2 Server Files\mainline\SRC_2014\Metin2Client\UserInterface\PythonTextTail.cpp

; 563  : 	m_CharacterTextTailMap.insert(TTextTailMap::value_type(dwVirtualID, pTextTail));

  002e7	8b 4d b4	 mov	 ecx, DWORD PTR _this$GSCopy$1$[ebp]
; File C:\Program Files (x86)\Microsoft Visual Studio\2019\Community\VC\Tools\MSVC\14.28.29333\include\utility

; 190  :         : first(_STD forward<_Other1>(_Val1)), second(_STD forward<_Other2>(_Val2)) {}

  002ea	89 45 ac	 mov	 DWORD PTR $T2[ebp], eax
; File D:\Metin2 Server Files\mainline\SRC_2014\Metin2Client\UserInterface\PythonTextTail.cpp

; 563  : 	m_CharacterTextTailMap.insert(TTextTailMap::value_type(dwVirtualID, pTextTail));

  002ed	8d 45 ac	 lea	 eax, DWORD PTR $T2[ebp]
  002f0	50		 push	 eax
  002f1	8d 45 b8	 lea	 eax, DWORD PTR $T3[ebp]
; File C:\Program Files (x86)\Microsoft Visual Studio\2019\Community\VC\Tools\MSVC\14.28.29333\include\utility

; 190  :         : first(_STD forward<_Other1>(_Val1)), second(_STD forward<_Other2>(_Val2)) {}

  002f4	89 5d b0	 mov	 DWORD PTR $T2[ebp+4], ebx
; File D:\Metin2 Server Files\mainline\SRC_2014\Metin2Client\UserInterface\PythonTextTail.cpp

; 563  : 	m_CharacterTextTailMap.insert(TTextTailMap::value_type(dwVirtualID, pTextTail));

  002f7	50		 push	 eax
  002f8	8d 49 04	 lea	 ecx, DWORD PTR [ecx+4]
  002fb	e8 00 00 00 00	 call	 ??$insert@$0A@$0A@@?$_Tree@V?$_Tmap_traits@KPAUSTextTail@CPythonTextTail@@U?$less@K@std@@V?$allocator@U?$pair@$$CBKPAUSTextTail@CPythonTextTail@@@std@@@4@$0A@@std@@@std@@QAE?AU?$pair@V?$_Tree_iterator@V?$_Tree_val@U?$_Tree_simple_types@U?$pair@$$CBKPAUSTextTail@CPythonTextTail@@@std@@@std@@@std@@@std@@_N@1@$$QAU?$pair@$$CBKPAUSTextTail@CPythonTextTail@@@1@@Z ; std::_Tree<std::_Tmap_traits<unsigned long,CPythonTextTail::STextTail *,std::less<unsigned long>,std::allocator<std::pair<unsigned long const ,CPythonTextTail::STextTail *> >,0> >::insert<0,0>
$LN1@RegisterCh:

; 564  : }

  00300	8b 4d f4	 mov	 ecx, DWORD PTR __$EHRec$[ebp]
  00303	64 89 0d 00 00
	00 00		 mov	 DWORD PTR fs:0, ecx
  0030a	59		 pop	 ecx
  0030b	5f		 pop	 edi
  0030c	5e		 pop	 esi
  0030d	5b		 pop	 ebx
  0030e	8b 4d f0	 mov	 ecx, DWORD PTR __$ArrayPad$[ebp]
  00311	33 cd		 xor	 ecx, ebp
  00313	e8 00 00 00 00	 call	 @__security_check_cookie@4
  00318	8b e5		 mov	 esp, ebp
  0031a	5d		 pop	 ebp
  0031b	c2 10 00	 ret	 16			; 00000010H
_TEXT	ENDS
;	COMDAT text$x
text$x	SEGMENT
__unwindfunclet$?RegisterCharacterTextTail@CPythonTextTail@@QAEXKKABUD3DXCOLOR@@M@Z$0:
  00000	8d 4d c0	 lea	 ecx, DWORD PTR _markImagePath$5[ebp]
  00003	e9 00 00 00 00	 jmp	 ??1?$basic_string@DU?$char_traits@D@std@@V?$allocator@D@2@@std@@QAE@XZ ; std::basic_string<char,std::char_traits<char>,std::allocator<char> >::~basic_string<char,std::char_traits<char>,std::allocator<char> >
__unwindfunclet$?RegisterCharacterTextTail@CPythonTextTail@@QAEXKKABUD3DXCOLOR@@M@Z$1:
  00008	8d 4d d8	 lea	 ecx, DWORD PTR _strGuildName$6[ebp]
  0000b	e9 00 00 00 00	 jmp	 ??1?$basic_string@DU?$char_traits@D@std@@V?$allocator@D@2@@std@@QAE@XZ ; std::basic_string<char,std::char_traits<char>,std::allocator<char> >::~basic_string<char,std::char_traits<char>,std::allocator<char> >
  00010	cc		 int	 3
  00011	cc		 int	 3
  00012	cc		 int	 3
  00013	cc		 int	 3
  00014	cc		 int	 3
__ehhandler$?RegisterCharacterTextTail@CPythonTextTail@@QAEXKKABUD3DXCOLOR@@M@Z:
  00015	90		 npad	 1
  00016	90		 npad	 1
  00017	8b 54 24 08	 mov	 edx, DWORD PTR [esp+8]
  0001b	8d 42 0c	 lea	 eax, DWORD PTR [edx+12]
  0001e	8b 4a a8	 mov	 ecx, DWORD PTR [edx-88]
  00021	33 c8		 xor	 ecx, eax
  00023	e8 00 00 00 00	 call	 @__security_check_cookie@4
  00028	8b 4a fc	 mov	 ecx, DWORD PTR [edx-4]
  0002b	33 c8		 xor	 ecx, eax
  0002d	e8 00 00 00 00	 call	 @__security_check_cookie@4
  00032	b8 00 00 00 00	 mov	 eax, OFFSET __ehfuncinfo$?RegisterCharacterTextTail@CPythonTextTail@@QAEXKKABUD3DXCOLOR@@M@Z
  00037	e9 00 00 00 00	 jmp	 ___CxxFrameHandler3
text$x	ENDS
?RegisterCharacterTextTail@CPythonTextTail@@QAEXKKABUD3DXCOLOR@@M@Z ENDP ; CPythonTextTail::RegisterCharacterTextTail
; Function compile flags: /Ogtp
; File D:\Metin2 Server Files\mainline\SRC_2014\Metin2Client\UserInterface\PythonTextTail.cpp
; File C:\Program Files (x86)\Microsoft Visual Studio\2019\Community\VC\Tools\MSVC\14.28.29333\include\xtree
; File C:\Program Files (x86)\Microsoft Visual Studio\2019\Community\VC\Tools\MSVC\14.28.29333\include\xstddef
; File C:\Program Files (x86)\Microsoft Visual Studio\2019\Community\VC\Tools\MSVC\14.28.29333\include\xtree
; File D:\Metin2 Server Files\mainline\SRC_2014\Metin2Client\UserInterface\PythonTextTail.cpp
; File C:\Program Files (x86)\Microsoft Visual Studio\2019\Community\VC\Tools\MSVC\14.28.29333\include\list
; File D:\Metin2 Server Files\mainline\SRC_2014\Metin2Client\UserInterface\PythonTextTail.cpp
; File C:\Program Files (x86)\Microsoft Visual Studio\2019\Community\VC\Tools\MSVC\14.28.29333\include\list
; File C:\Program Files (x86)\Microsoft Visual Studio\2019\Community\VC\Tools\MSVC\14.28.29333\include\xutility
; File C:\Program Files (x86)\Microsoft Visual Studio\2019\Community\VC\Tools\MSVC\14.28.29333\include\list
; File C:\Program Files (x86)\Microsoft Visual Studio\2019\Community\VC\Tools\MSVC\14.28.29333\include\xutility
; File C:\Program Files (x86)\Microsoft Visual Studio\2019\Community\VC\Tools\MSVC\14.28.29333\include\list
; File D:\Metin2 Server Files\mainline\SRC_2014\Metin2Client\UserInterface\PythonTextTail.cpp
;	COMDAT ?ShowItemTextTail@CPythonTextTail@@QAEXK@Z
_TEXT	SEGMENT
__Loc$1 = -12						; size = 12
_pTextTail$ = 8						; size = 4
_VirtualID$ = 8						; size = 4
?ShowItemTextTail@CPythonTextTail@@QAEXK@Z PROC		; CPythonTextTail::ShowItemTextTail, COMDAT
; _this$ = ecx

; 471  : {

  00000	55		 push	 ebp
  00001	8b ec		 mov	 ebp, esp
  00003	83 ec 0c	 sub	 esp, 12			; 0000000cH
  00006	56		 push	 esi
  00007	57		 push	 edi
  00008	8b f9		 mov	 edi, ecx
; File C:\Program Files (x86)\Microsoft Visual Studio\2019\Community\VC\Tools\MSVC\14.28.29333\include\xtree

; 1458 :         const _Tree_find_result<_Nodeptr> _Loc = _Find_lower_bound(_Keyval);

  0000a	8d 45 08	 lea	 eax, DWORD PTR _VirtualID$[ebp]
  0000d	50		 push	 eax
  0000e	8d 45 f4	 lea	 eax, DWORD PTR __Loc$1[ebp]
  00011	50		 push	 eax
  00012	8d 4f 0c	 lea	 ecx, DWORD PTR [edi+12]
  00015	e8 00 00 00 00	 call	 ??$_Find_lower_bound@K@?$_Tree@V?$_Tmap_traits@KPAUSTextTail@CPythonTextTail@@U?$less@K@std@@V?$allocator@U?$pair@$$CBKPAUSTextTail@CPythonTextTail@@@std@@@4@$0A@@std@@@std@@IBE?AU?$_Tree_find_result@PAU?$_Tree_node@U?$pair@$$CBKPAUSTextTail@CPythonTextTail@@@std@@PAX@std@@@1@ABK@Z ; std::_Tree<std::_Tmap_traits<unsigned long,CPythonTextTail::STextTail *,std::less<unsigned long>,std::allocator<std::pair<unsigned long const ,CPythonTextTail::STextTail *> >,0> >::_Find_lower_bound<unsigned long>

; 1695 :         return !_Bound->_Isnil && !_DEBUG_LT_PRED(_Getcomp(), _Keyval, _Traits::_Kfn(_Bound->_Myval));

  0001a	8b 4d fc	 mov	 ecx, DWORD PTR __Loc$1[ebp+8]
  0001d	80 79 0d 00	 cmp	 BYTE PTR [ecx+13], 0
  00021	75 38		 jne	 SHORT $LN1@ShowItemTe
; File C:\Program Files (x86)\Microsoft Visual Studio\2019\Community\VC\Tools\MSVC\14.28.29333\include\xstddef

; 127  :         return _Left < _Right;

  00023	8b 45 08	 mov	 eax, DWORD PTR _VirtualID$[ebp]
  00026	3b 41 10	 cmp	 eax, DWORD PTR [ecx+16]
; File C:\Program Files (x86)\Microsoft Visual Studio\2019\Community\VC\Tools\MSVC\14.28.29333\include\xtree

; 1695 :         return !_Bound->_Isnil && !_DEBUG_LT_PRED(_Getcomp(), _Keyval, _Traits::_Kfn(_Bound->_Myval));

  00029	72 30		 jb	 SHORT $LN1@ShowItemTe

; 39   :     _Tree_unchecked_const_iterator(_Nodeptr _Pnode, const _Mytree* _Plist) noexcept : _Ptr(_Pnode) {

  0002b	39 4f 0c	 cmp	 DWORD PTR [edi+12], ecx
; File D:\Metin2 Server Files\mainline\SRC_2014\Metin2Client\UserInterface\PythonTextTail.cpp

; 474  : 	if (m_ItemTextTailMap.end() == itor)

  0002e	74 2b		 je	 SHORT $LN1@ShowItemTe
; File C:\Program Files (x86)\Microsoft Visual Studio\2019\Community\VC\Tools\MSVC\14.28.29333\include\list

; 39   :     _List_unchecked_const_iterator(_Nodeptr _Pnode, const _Mylist* _Plist) noexcept : _Ptr(_Pnode) {

  00030	8b 57 24	 mov	 edx, DWORD PTR [edi+36]
; File D:\Metin2 Server Files\mainline\SRC_2014\Metin2Client\UserInterface\PythonTextTail.cpp

; 477  : 	TTextTail * pTextTail = itor->second;

  00033	8b 49 14	 mov	 ecx, DWORD PTR [ecx+20]
  00036	89 4d 08	 mov	 DWORD PTR _pTextTail$[ebp], ecx
; File C:\Program Files (x86)\Microsoft Visual Studio\2019\Community\VC\Tools\MSVC\14.28.29333\include\list

; 39   :     _List_unchecked_const_iterator(_Nodeptr _Pnode, const _Mylist* _Plist) noexcept : _Ptr(_Pnode) {

  00039	8b 02		 mov	 eax, DWORD PTR [edx]

; 74   :         return _Ptr == _Right._Ptr;

  0003b	3b d0		 cmp	 edx, eax
; File C:\Program Files (x86)\Microsoft Visual Studio\2019\Community\VC\Tools\MSVC\14.28.29333\include\xutility

; 5439 :     for (; _First != _Last; ++_First) {

  0003d	74 10		 je	 SHORT $LN112@ShowItemTe
  0003f	90		 npad	 1
$LL83@ShowItemTe:

; 5440 :         if (*_First == _Val) {

  00040	39 48 08	 cmp	 DWORD PTR [eax+8], ecx
  00043	74 06		 je	 SHORT $LN110@ShowItemTe
; File C:\Program Files (x86)\Microsoft Visual Studio\2019\Community\VC\Tools\MSVC\14.28.29333\include\list

; 52   :         _Ptr = _Ptr->_Next;

  00045	8b 00		 mov	 eax, DWORD PTR [eax]

; 74   :         return _Ptr == _Right._Ptr;

  00047	3b c2		 cmp	 eax, edx
; File C:\Program Files (x86)\Microsoft Visual Studio\2019\Community\VC\Tools\MSVC\14.28.29333\include\xutility

; 5439 :     for (; _First != _Last; ++_First) {

  00049	75 f5		 jne	 SHORT $LL83@ShowItemTe
$LN110@ShowItemTe:
; File C:\Program Files (x86)\Microsoft Visual Studio\2019\Community\VC\Tools\MSVC\14.28.29333\include\list

; 39   :     _List_unchecked_const_iterator(_Nodeptr _Pnode, const _Mylist* _Plist) noexcept : _Ptr(_Pnode) {

  0004b	3b d0		 cmp	 edx, eax
; File D:\Metin2 Server Files\mainline\SRC_2014\Metin2Client\UserInterface\PythonTextTail.cpp

; 479  : 	if (m_ItemTextTailList.end() != std::find(m_ItemTextTailList.begin(), m_ItemTextTailList.end(), pTextTail))

  0004d	75 0c		 jne	 SHORT $LN1@ShowItemTe
$LN112@ShowItemTe:

; 480  : 	{
; 481  : 		//Tracef("   : %d\n", VirtualID);
; 482  : 		return;
; 483  : 	}
; 484  : 
; 485  : 	m_ItemTextTailList.push_back(pTextTail);

  0004f	8d 45 08	 lea	 eax, DWORD PTR _pTextTail$[ebp]
  00052	50		 push	 eax
  00053	8d 4f 24	 lea	 ecx, DWORD PTR [edi+36]
  00056	e8 00 00 00 00	 call	 ?push_back@?$list@PAUSTextTail@CPythonTextTail@@V?$allocator@PAUSTextTail@CPythonTextTail@@@std@@@std@@QAEXABQAUSTextTail@CPythonTextTail@@@Z ; std::list<CPythonTextTail::STextTail *,std::allocator<CPythonTextTail::STextTail *> >::push_back
$LN1@ShowItemTe:

; 486  : }

  0005b	5f		 pop	 edi
  0005c	5e		 pop	 esi
  0005d	8b e5		 mov	 esp, ebp
  0005f	5d		 pop	 ebp
  00060	c2 04 00	 ret	 4
?ShowItemTextTail@CPythonTextTail@@QAEXK@Z ENDP		; CPythonTextTail::ShowItemTextTail
_TEXT	ENDS
; Function compile flags: /Ogtp
; File D:\Metin2 Server Files\mainline\SRC_2014\Metin2Client\UserInterface\PythonTextTail.cpp
; File C:\Program Files (x86)\Microsoft Visual Studio\2019\Community\VC\Tools\MSVC\14.28.29333\include\xtree
; File C:\Program Files (x86)\Microsoft Visual Studio\2019\Community\VC\Tools\MSVC\14.28.29333\include\xstddef
; File C:\Program Files (x86)\Microsoft Visual Studio\2019\Community\VC\Tools\MSVC\14.28.29333\include\xtree
; File D:\Metin2 Server Files\mainline\SRC_2014\Metin2Client\UserInterface\PythonTextTail.cpp
; File C:\Program Files (x86)\Microsoft Visual Studio\2019\Community\VC\Tools\MSVC\14.28.29333\include\list
; File D:\Metin2 Server Files\mainline\SRC_2014\Metin2Client\UserInterface\PythonTextTail.cpp
; File C:\Program Files (x86)\Microsoft Visual Studio\2019\Community\VC\Tools\MSVC\14.28.29333\include\list
; File C:\Program Files (x86)\Microsoft Visual Studio\2019\Community\VC\Tools\MSVC\14.28.29333\include\xutility
; File C:\Program Files (x86)\Microsoft Visual Studio\2019\Community\VC\Tools\MSVC\14.28.29333\include\list
; File C:\Program Files (x86)\Microsoft Visual Studio\2019\Community\VC\Tools\MSVC\14.28.29333\include\xutility
; File C:\Program Files (x86)\Microsoft Visual Studio\2019\Community\VC\Tools\MSVC\14.28.29333\include\list
; File D:\Metin2 Server Files\mainline\SRC_2014\Metin2Client\UserInterface\PythonTextTail.cpp
;	COMDAT ?ShowCharacterTextTail@CPythonTextTail@@QAEXK@Z
_TEXT	SEGMENT
__Loc$1 = -12						; size = 12
_pTextTail$ = 8						; size = 4
_VirtualID$ = 8						; size = 4
?ShowCharacterTextTail@CPythonTextTail@@QAEXK@Z PROC	; CPythonTextTail::ShowCharacterTextTail, COMDAT
; _this$ = ecx

; 440  : {

  00000	55		 push	 ebp
  00001	8b ec		 mov	 ebp, esp
  00003	83 ec 0c	 sub	 esp, 12			; 0000000cH
  00006	53		 push	 ebx
  00007	56		 push	 esi
  00008	57		 push	 edi
  00009	8b d9		 mov	 ebx, ecx
; File C:\Program Files (x86)\Microsoft Visual Studio\2019\Community\VC\Tools\MSVC\14.28.29333\include\xtree

; 1458 :         const _Tree_find_result<_Nodeptr> _Loc = _Find_lower_bound(_Keyval);

  0000b	8d 45 08	 lea	 eax, DWORD PTR _VirtualID$[ebp]
  0000e	50		 push	 eax
  0000f	8d 45 f4	 lea	 eax, DWORD PTR __Loc$1[ebp]
  00012	50		 push	 eax
  00013	8d 4b 04	 lea	 ecx, DWORD PTR [ebx+4]
  00016	e8 00 00 00 00	 call	 ??$_Find_lower_bound@K@?$_Tree@V?$_Tmap_traits@KPAUSTextTail@CPythonTextTail@@U?$less@K@std@@V?$allocator@U?$pair@$$CBKPAUSTextTail@CPythonTextTail@@@std@@@4@$0A@@std@@@std@@IBE?AU?$_Tree_find_result@PAU?$_Tree_node@U?$pair@$$CBKPAUSTextTail@CPythonTextTail@@@std@@PAX@std@@@1@ABK@Z ; std::_Tree<std::_Tmap_traits<unsigned long,CPythonTextTail::STextTail *,std::less<unsigned long>,std::allocator<std::pair<unsigned long const ,CPythonTextTail::STextTail *> >,0> >::_Find_lower_bound<unsigned long>

; 1695 :         return !_Bound->_Isnil && !_DEBUG_LT_PRED(_Getcomp(), _Keyval, _Traits::_Kfn(_Bound->_Myval));

  0001b	8b 75 fc	 mov	 esi, DWORD PTR __Loc$1[ebp+8]
  0001e	80 7e 0d 00	 cmp	 BYTE PTR [esi+13], 0
  00022	75 70		 jne	 SHORT $LN7@ShowCharac
; File C:\Program Files (x86)\Microsoft Visual Studio\2019\Community\VC\Tools\MSVC\14.28.29333\include\xstddef

; 127  :         return _Left < _Right;

  00024	8b 45 08	 mov	 eax, DWORD PTR _VirtualID$[ebp]
  00027	3b 46 10	 cmp	 eax, DWORD PTR [esi+16]
; File C:\Program Files (x86)\Microsoft Visual Studio\2019\Community\VC\Tools\MSVC\14.28.29333\include\xtree

; 1695 :         return !_Bound->_Isnil && !_DEBUG_LT_PRED(_Getcomp(), _Keyval, _Traits::_Kfn(_Bound->_Myval));

  0002a	72 68		 jb	 SHORT $LN7@ShowCharac

; 39   :     _Tree_unchecked_const_iterator(_Nodeptr _Pnode, const _Mytree* _Plist) noexcept : _Ptr(_Pnode) {

  0002c	39 73 04	 cmp	 DWORD PTR [ebx+4], esi
; File D:\Metin2 Server Files\mainline\SRC_2014\Metin2Client\UserInterface\PythonTextTail.cpp

; 443  : 	if (m_CharacterTextTailMap.end() == itor)

  0002f	74 63		 je	 SHORT $LN7@ShowCharac
; File C:\Program Files (x86)\Microsoft Visual Studio\2019\Community\VC\Tools\MSVC\14.28.29333\include\list

; 39   :     _List_unchecked_const_iterator(_Nodeptr _Pnode, const _Mylist* _Plist) noexcept : _Ptr(_Pnode) {

  00031	8b 4b 1c	 mov	 ecx, DWORD PTR [ebx+28]
; File D:\Metin2 Server Files\mainline\SRC_2014\Metin2Client\UserInterface\PythonTextTail.cpp

; 446  : 	TTextTail * pTextTail = itor->second;

  00034	8b 76 14	 mov	 esi, DWORD PTR [esi+20]
  00037	89 75 08	 mov	 DWORD PTR _pTextTail$[ebp], esi
; File C:\Program Files (x86)\Microsoft Visual Studio\2019\Community\VC\Tools\MSVC\14.28.29333\include\list

; 39   :     _List_unchecked_const_iterator(_Nodeptr _Pnode, const _Mylist* _Plist) noexcept : _Ptr(_Pnode) {

  0003a	8b 01		 mov	 eax, DWORD PTR [ecx]

; 74   :         return _Ptr == _Right._Ptr;

  0003c	3b c8		 cmp	 ecx, eax
; File C:\Program Files (x86)\Microsoft Visual Studio\2019\Community\VC\Tools\MSVC\14.28.29333\include\xutility

; 5439 :     for (; _First != _Last; ++_First) {

  0003e	74 0f		 je	 SHORT $LN116@ShowCharac
$LL87@ShowCharac:

; 5440 :         if (*_First == _Val) {

  00040	39 70 08	 cmp	 DWORD PTR [eax+8], esi
  00043	74 06		 je	 SHORT $LN114@ShowCharac
; File C:\Program Files (x86)\Microsoft Visual Studio\2019\Community\VC\Tools\MSVC\14.28.29333\include\list

; 52   :         _Ptr = _Ptr->_Next;

  00045	8b 00		 mov	 eax, DWORD PTR [eax]

; 74   :         return _Ptr == _Right._Ptr;

  00047	3b c1		 cmp	 eax, ecx
; File C:\Program Files (x86)\Microsoft Visual Studio\2019\Community\VC\Tools\MSVC\14.28.29333\include\xutility

; 5439 :     for (; _First != _Last; ++_First) {

  00049	75 f5		 jne	 SHORT $LL87@ShowCharac
$LN114@ShowCharac:
; File C:\Program Files (x86)\Microsoft Visual Studio\2019\Community\VC\Tools\MSVC\14.28.29333\include\list

; 39   :     _List_unchecked_const_iterator(_Nodeptr _Pnode, const _Mylist* _Plist) noexcept : _Ptr(_Pnode) {

  0004b	3b c8		 cmp	 ecx, eax
; File D:\Metin2 Server Files\mainline\SRC_2014\Metin2Client\UserInterface\PythonTextTail.cpp

; 448  : 	if (m_CharacterTextTailList.end() != std::find(m_CharacterTextTailList.begin(), m_CharacterTextTailList.end(), pTextTail))

  0004d	75 45		 jne	 SHORT $LN7@ShowCharac
$LN116@ShowCharac:

; 449  : 	{
; 450  : 		//Tracef("   : %d\n", VirtualID);
; 451  : 		return;
; 452  : 	}
; 453  : 
; 454  : 	// NOTE : ShowAll   Instance  Pointer       .
; 455  : 	//        CInstanceBase  TextTail         ..
; 456  : 	if (!pTextTail->pOwner->isShow())

  0004f	8b 4e 1c	 mov	 ecx, DWORD PTR [esi+28]
  00052	e8 00 00 00 00	 call	 ?isShow@CGraphicObjectInstance@@QAE_NXZ ; CGraphicObjectInstance::isShow
  00057	84 c0		 test	 al, al
  00059	74 39		 je	 SHORT $LN7@ShowCharac

; 457  : 		return;
; 458  : 	
; 459  : 	CInstanceBase * pInstance = CPythonCharacterManager::Instance().GetInstancePtr(pTextTail->dwVirtualID);

  0005b	8b 0d 00 00 00
	00		 mov	 ecx, DWORD PTR ?ms_singleton@?$CSingleton@VCPythonCharacterManager@@@@0PAVCPythonCharacterManager@@A ; CSingleton<CPythonCharacterManager>::ms_singleton
  00061	ff 76 20	 push	 DWORD PTR [esi+32]
  00064	83 c1 04	 add	 ecx, 4
  00067	8b 01		 mov	 eax, DWORD PTR [ecx]
  00069	ff 50 08	 call	 DWORD PTR [eax+8]
  0006c	8b f0		 mov	 esi, eax

; 460  : 	if (!pInstance)

  0006e	85 f6		 test	 esi, esi
  00070	74 22		 je	 SHORT $LN7@ShowCharac

; 461  : 		return;
; 462  : 
; 463  : 	if (pInstance->IsGuildWall())

  00072	8b ce		 mov	 ecx, esi
  00074	e8 00 00 00 00	 call	 ?IsGuildWall@CInstanceBase@@QAEHXZ ; CInstanceBase::IsGuildWall
  00079	85 c0		 test	 eax, eax
  0007b	75 17		 jne	 SHORT $LN7@ShowCharac

; 464  : 		return;
; 465  : 
; 466  : 	if (pInstance->CanPickInstance())

  0007d	8b ce		 mov	 ecx, esi
  0007f	e8 00 00 00 00	 call	 ?CanPickInstance@CInstanceBase@@QAE_NXZ ; CInstanceBase::CanPickInstance
  00084	84 c0		 test	 al, al
  00086	74 0c		 je	 SHORT $LN7@ShowCharac

; 467  : 		m_CharacterTextTailList.push_back(pTextTail);		

  00088	8d 45 08	 lea	 eax, DWORD PTR _pTextTail$[ebp]
  0008b	50		 push	 eax
  0008c	8d 4b 1c	 lea	 ecx, DWORD PTR [ebx+28]
  0008f	e8 00 00 00 00	 call	 ?push_back@?$list@PAUSTextTail@CPythonTextTail@@V?$allocator@PAUSTextTail@CPythonTextTail@@@std@@@std@@QAEXABQAUSTextTail@CPythonTextTail@@@Z ; std::list<CPythonTextTail::STextTail *,std::allocator<CPythonTextTail::STextTail *> >::push_back
$LN7@ShowCharac:

; 468  : }

  00094	5f		 pop	 edi
  00095	5e		 pop	 esi
  00096	5b		 pop	 ebx
  00097	8b e5		 mov	 esp, ebp
  00099	5d		 pop	 ebp
  0009a	c2 04 00	 ret	 4
?ShowCharacterTextTail@CPythonTextTail@@QAEXK@Z ENDP	; CPythonTextTail::ShowCharacterTextTail
_TEXT	ENDS
; Function compile flags: /Ogtp
; File D:\Metin2 Server Files\mainline\SRC_2014\Metin2Client\UserInterface\PythonTextTail.cpp
; File C:\Program Files (x86)\Microsoft Visual Studio\2019\Community\VC\Tools\MSVC\14.28.29333\include\xtree
; File D:\Metin2 Server Files\mainline\SRC_2014\Metin2Client\UserInterface\PythonTextTail.cpp
; File C:\Program Files (x86)\Microsoft Visual Studio\2019\Community\VC\Tools\MSVC\14.28.29333\include\xtree
; File D:\Metin2 Server Files\mainline\SRC_2014\Metin2Client\UserInterface\PythonTextTail.cpp
; File C:\Program Files (x86)\Microsoft Visual Studio\2019\Community\VC\Tools\MSVC\14.28.29333\include\xtree
; File D:\Metin2 Server Files\mainline\SRC_2014\Metin2Client\UserInterface\PythonTextTail.cpp
; File C:\Program Files (x86)\Microsoft Visual Studio\2019\Community\VC\Tools\MSVC\14.28.29333\include\xtree
; File D:\Metin2 Server Files\mainline\SRC_2014\Metin2Client\UserInterface\PythonTextTail.cpp
;	COMDAT ?ShowAllTextTail@CPythonTextTail@@QAEXXZ
_TEXT	SEGMENT
_itor$ = -4						; size = 4
?ShowAllTextTail@CPythonTextTail@@QAEXXZ PROC		; CPythonTextTail::ShowAllTextTail, COMDAT
; _this$ = ecx

; 423  : {

  00000	55		 push	 ebp
  00001	8b ec		 mov	 ebp, esp
  00003	51		 push	 ecx
  00004	56		 push	 esi
  00005	8b f1		 mov	 esi, ecx
; File C:\Program Files (x86)\Microsoft Visual Studio\2019\Community\VC\Tools\MSVC\14.28.29333\include\xtree

; 1240 :         return iterator(_Scary->_Myhead->_Left, _Scary);

  00007	8b 56 04	 mov	 edx, DWORD PTR [esi+4]

; 39   :     _Tree_unchecked_const_iterator(_Nodeptr _Pnode, const _Mytree* _Plist) noexcept : _Ptr(_Pnode) {

  0000a	8b 02		 mov	 eax, DWORD PTR [edx]
; File D:\Metin2 Server Files\mainline\SRC_2014\Metin2Client\UserInterface\PythonTextTail.cpp

; 425  : 	for (itor = m_CharacterTextTailMap.begin(); itor != m_CharacterTextTailMap.end(); ++itor)

  0000c	89 45 fc	 mov	 DWORD PTR _itor$[ebp], eax
  0000f	3b c2		 cmp	 eax, edx
  00011	74 38		 je	 SHORT $LN3@ShowAllTex
  00013	0f 1f 40 00 66
	0f 1f 84 00 00
	00 00 00	 npad	 13
$LL28@ShowAllTex:

; 426  : 	{
; 427  : 		TTextTail * pTextTail = itor->second;
; 428  : 		if (pTextTail->fDistanceFromPlayer < 3500.0f)

  00020	8b 48 14	 mov	 ecx, DWORD PTR [eax+20]
  00023	f3 0f 10 05 00
	00 00 00	 movss	 xmm0, DWORD PTR __real@455ac000
  0002b	0f 2f 41 30	 comiss	 xmm0, DWORD PTR [ecx+48]
  0002f	76 0a		 jbe	 SHORT $LN2@ShowAllTex

; 429  : 			ShowCharacterTextTail(itor->first);

  00031	ff 70 10	 push	 DWORD PTR [eax+16]
  00034	8b ce		 mov	 ecx, esi
  00036	e8 00 00 00 00	 call	 ?ShowCharacterTextTail@CPythonTextTail@@QAEXK@Z ; CPythonTextTail::ShowCharacterTextTail
$LN2@ShowAllTex:
; File C:\Program Files (x86)\Microsoft Visual Studio\2019\Community\VC\Tools\MSVC\14.28.29333\include\xtree

; 198  :         _Mybase::operator++();

  0003b	8d 4d fc	 lea	 ecx, DWORD PTR _itor$[ebp]
  0003e	e8 00 00 00 00	 call	 ??E?$_Tree_unchecked_const_iterator@V?$_Tree_val@U?$_Tree_simple_types@U?$pair@$$CBKPAUSTextTail@CPythonTextTail@@@std@@@std@@@std@@U_Iterator_base0@2@@std@@QAEAAV01@XZ ; std::_Tree_unchecked_const_iterator<std::_Tree_val<std::_Tree_simple_types<std::pair<unsigned long const ,CPythonTextTail::STextTail *> > >,std::_Iterator_base0>::operator++

; 232  :         return this->_Ptr == _Right._Ptr;

  00043	8b 45 fc	 mov	 eax, DWORD PTR _itor$[ebp]
  00046	3b 46 04	 cmp	 eax, DWORD PTR [esi+4]
; File D:\Metin2 Server Files\mainline\SRC_2014\Metin2Client\UserInterface\PythonTextTail.cpp

; 425  : 	for (itor = m_CharacterTextTailMap.begin(); itor != m_CharacterTextTailMap.end(); ++itor)

  00049	75 d5		 jne	 SHORT $LL28@ShowAllTex
$LN3@ShowAllTex:
; File C:\Program Files (x86)\Microsoft Visual Studio\2019\Community\VC\Tools\MSVC\14.28.29333\include\xtree

; 1240 :         return iterator(_Scary->_Myhead->_Left, _Scary);

  0004b	8b 4e 0c	 mov	 ecx, DWORD PTR [esi+12]

; 39   :     _Tree_unchecked_const_iterator(_Nodeptr _Pnode, const _Mytree* _Plist) noexcept : _Ptr(_Pnode) {

  0004e	8b 01		 mov	 eax, DWORD PTR [ecx]
; File D:\Metin2 Server Files\mainline\SRC_2014\Metin2Client\UserInterface\PythonTextTail.cpp

; 431  : 	for (itor = m_ItemTextTailMap.begin(); itor != m_ItemTextTailMap.end(); ++itor)

  00050	89 45 fc	 mov	 DWORD PTR _itor$[ebp], eax
  00053	3b c1		 cmp	 eax, ecx
  00055	74 34		 je	 SHORT $LN6@ShowAllTex
  00057	66 0f 1f 84 00
	00 00 00 00	 npad	 9
$LL64@ShowAllTex:

; 432  : 	{
; 433  : 		TTextTail * pTextTail = itor->second;
; 434  : 		if (pTextTail->fDistanceFromPlayer < 3500.0f)

  00060	8b 48 14	 mov	 ecx, DWORD PTR [eax+20]
  00063	f3 0f 10 05 00
	00 00 00	 movss	 xmm0, DWORD PTR __real@455ac000
  0006b	0f 2f 41 30	 comiss	 xmm0, DWORD PTR [ecx+48]
  0006f	76 0a		 jbe	 SHORT $LN5@ShowAllTex

; 435  : 			ShowItemTextTail(itor->first);

  00071	ff 70 10	 push	 DWORD PTR [eax+16]
  00074	8b ce		 mov	 ecx, esi
  00076	e8 00 00 00 00	 call	 ?ShowItemTextTail@CPythonTextTail@@QAEXK@Z ; CPythonTextTail::ShowItemTextTail
$LN5@ShowAllTex:
; File C:\Program Files (x86)\Microsoft Visual Studio\2019\Community\VC\Tools\MSVC\14.28.29333\include\xtree

; 198  :         _Mybase::operator++();

  0007b	8d 4d fc	 lea	 ecx, DWORD PTR _itor$[ebp]
  0007e	e8 00 00 00 00	 call	 ??E?$_Tree_unchecked_const_iterator@V?$_Tree_val@U?$_Tree_simple_types@U?$pair@$$CBKPAUSTextTail@CPythonTextTail@@@std@@@std@@@std@@U_Iterator_base0@2@@std@@QAEAAV01@XZ ; std::_Tree_unchecked_const_iterator<std::_Tree_val<std::_Tree_simple_types<std::pair<unsigned long const ,CPythonTextTail::STextTail *> > >,std::_Iterator_base0>::operator++

; 232  :         return this->_Ptr == _Right._Ptr;

  00083	8b 45 fc	 mov	 eax, DWORD PTR _itor$[ebp]
  00086	3b 46 0c	 cmp	 eax, DWORD PTR [esi+12]
; File D:\Metin2 Server Files\mainline\SRC_2014\Metin2Client\UserInterface\PythonTextTail.cpp

; 431  : 	for (itor = m_ItemTextTailMap.begin(); itor != m_ItemTextTailMap.end(); ++itor)

  00089	75 d5		 jne	 SHORT $LL64@ShowAllTex
$LN6@ShowAllTex:
  0008b	5e		 pop	 esi

; 436  : 	}
; 437  : }

  0008c	8b e5		 mov	 esp, ebp
  0008e	5d		 pop	 ebp
  0008f	c3		 ret	 0
?ShowAllTextTail@CPythonTextTail@@QAEXXZ ENDP		; CPythonTextTail::ShowAllTextTail
_TEXT	ENDS
; Function compile flags: /Ogtp
; File D:\Metin2 Server Files\mainline\SRC_2014\Metin2Client\UserInterface\PythonTextTail.cpp
; File C:\Program Files (x86)\Microsoft Visual Studio\2019\Community\VC\Tools\MSVC\14.28.29333\include\list
; File C:\Program Files (x86)\Microsoft Visual Studio\2019\Community\VC\Tools\MSVC\14.28.29333\include\xmemory
; File C:\Program Files (x86)\Microsoft Visual Studio\2019\Community\VC\Tools\MSVC\14.28.29333\include\list
; File C:\Program Files (x86)\Microsoft Visual Studio\2019\Community\VC\Tools\MSVC\14.28.29333\include\xmemory
; File C:\Program Files (x86)\Microsoft Visual Studio\2019\Community\VC\Tools\MSVC\14.28.29333\include\list
; File D:\Metin2 Server Files\mainline\SRC_2014\Metin2Client\UserInterface\PythonTextTail.cpp
;	COMDAT ?HideAllTextTail@CPythonTextTail@@QAEXXZ
_TEXT	SEGMENT
?HideAllTextTail@CPythonTextTail@@QAEXXZ PROC		; CPythonTextTail::HideAllTextTail, COMDAT
; _this$ = ecx

; 408  : {

  00000	56		 push	 esi
  00001	57		 push	 edi
  00002	8b f9		 mov	 edi, ecx
; File C:\Program Files (x86)\Microsoft Visual Studio\2019\Community\VC\Tools\MSVC\14.28.29333\include\list

; 1429 :         _Node::_Free_non_head(_Getal(), _My_data._Myhead);

  00004	8b 57 1c	 mov	 edx, DWORD PTR [edi+28]

; 324  :         _Head->_Prev->_Next = nullptr;

  00007	8b 42 04	 mov	 eax, DWORD PTR [edx+4]
  0000a	c7 00 00 00 00
	00		 mov	 DWORD PTR [eax], 0

; 325  : 
; 326  :         auto _Pnode = _Head->_Next;

  00010	8b 02		 mov	 eax, DWORD PTR [edx]

; 327  :         for (_Nodeptr _Pnext; _Pnode; _Pnode = _Pnext) {

  00012	85 c0		 test	 eax, eax
  00014	74 13		 je	 SHORT $LN7@HideAllTex
$LL8@HideAllTex:

; 328  :             _Pnext = _Pnode->_Next;

  00016	8b 30		 mov	 esi, DWORD PTR [eax]
; File C:\Program Files (x86)\Microsoft Visual Studio\2019\Community\VC\Tools\MSVC\14.28.29333\include\xmemory

; 696  :         _Deallocate<_New_alignof<value_type>>(_Ptr, sizeof(value_type) * _Count);

  00018	6a 0c		 push	 12			; 0000000cH
  0001a	50		 push	 eax
  0001b	e8 00 00 00 00	 call	 ??$_Deallocate@$07$0A@@std@@YAXPAXI@Z ; std::_Deallocate<8,0>
  00020	83 c4 08	 add	 esp, 8
; File C:\Program Files (x86)\Microsoft Visual Studio\2019\Community\VC\Tools\MSVC\14.28.29333\include\list

; 327  :         for (_Nodeptr _Pnext; _Pnode; _Pnode = _Pnext) {

  00023	8b c6		 mov	 eax, esi
  00025	85 f6		 test	 esi, esi
  00027	75 ed		 jne	 SHORT $LL8@HideAllTex
$LN7@HideAllTex:

; 1430 :         _My_data._Myhead->_Next = _My_data._Myhead;

  00029	8b 47 1c	 mov	 eax, DWORD PTR [edi+28]
  0002c	89 00		 mov	 DWORD PTR [eax], eax

; 1431 :         _My_data._Myhead->_Prev = _My_data._Myhead;

  0002e	8b 47 1c	 mov	 eax, DWORD PTR [edi+28]
  00031	89 40 04	 mov	 DWORD PTR [eax+4], eax

; 1432 :         _My_data._Mysize        = 0;

  00034	c7 47 20 00 00
	00 00		 mov	 DWORD PTR [edi+32], 0

; 1429 :         _Node::_Free_non_head(_Getal(), _My_data._Myhead);

  0003b	8b 4f 24	 mov	 ecx, DWORD PTR [edi+36]

; 324  :         _Head->_Prev->_Next = nullptr;

  0003e	8b 41 04	 mov	 eax, DWORD PTR [ecx+4]
  00041	c7 00 00 00 00
	00		 mov	 DWORD PTR [eax], 0

; 325  : 
; 326  :         auto _Pnode = _Head->_Next;

  00047	8b 01		 mov	 eax, DWORD PTR [ecx]

; 327  :         for (_Nodeptr _Pnext; _Pnode; _Pnode = _Pnext) {

  00049	85 c0		 test	 eax, eax
  0004b	74 16		 je	 SHORT $LN20@HideAllTex
  0004d	0f 1f 00	 npad	 3
$LL21@HideAllTex:

; 328  :             _Pnext = _Pnode->_Next;

  00050	8b 30		 mov	 esi, DWORD PTR [eax]
; File C:\Program Files (x86)\Microsoft Visual Studio\2019\Community\VC\Tools\MSVC\14.28.29333\include\xmemory

; 696  :         _Deallocate<_New_alignof<value_type>>(_Ptr, sizeof(value_type) * _Count);

  00052	6a 0c		 push	 12			; 0000000cH
  00054	50		 push	 eax
  00055	e8 00 00 00 00	 call	 ??$_Deallocate@$07$0A@@std@@YAXPAXI@Z ; std::_Deallocate<8,0>
  0005a	83 c4 08	 add	 esp, 8
; File C:\Program Files (x86)\Microsoft Visual Studio\2019\Community\VC\Tools\MSVC\14.28.29333\include\list

; 327  :         for (_Nodeptr _Pnext; _Pnode; _Pnode = _Pnext) {

  0005d	8b c6		 mov	 eax, esi
  0005f	85 f6		 test	 esi, esi
  00061	75 ed		 jne	 SHORT $LL21@HideAllTex
$LN20@HideAllTex:

; 1430 :         _My_data._Myhead->_Next = _My_data._Myhead;

  00063	8b 47 24	 mov	 eax, DWORD PTR [edi+36]
  00066	89 00		 mov	 DWORD PTR [eax], eax

; 1431 :         _My_data._Myhead->_Prev = _My_data._Myhead;

  00068	8b 47 24	 mov	 eax, DWORD PTR [edi+36]
  0006b	89 40 04	 mov	 DWORD PTR [eax+4], eax

; 1432 :         _My_data._Mysize        = 0;

  0006e	c7 47 28 00 00
	00 00		 mov	 DWORD PTR [edi+40], 0
  00075	5f		 pop	 edi
  00076	5e		 pop	 esi
; File D:\Metin2 Server Files\mainline\SRC_2014\Metin2Client\UserInterface\PythonTextTail.cpp

; 413  : }

  00077	c3		 ret	 0
?HideAllTextTail@CPythonTextTail@@QAEXXZ ENDP		; CPythonTextTail::HideAllTextTail
_TEXT	ENDS
; Function compile flags: /Ogtp
; File D:\Metin2 Server Files\mainline\SRC_2014\Metin2Client\UserInterface\PythonTextTail.cpp
; File C:\Program Files (x86)\Microsoft Visual Studio\2019\Community\VC\Tools\MSVC\14.28.29333\include\list
; File D:\Metin2 Server Files\mainline\SRC_2014\Metin2Client\UserInterface\PythonTextTail.cpp
; File C:\Program Files (x86)\Microsoft Visual Studio\2019\Community\VC\Tools\MSVC\14.28.29333\include\list
; File D:\Metin2 Server Files\mainline\SRC_2014\Metin2Client\UserInterface\PythonTextTail.cpp
; File C:\Program Files (x86)\Microsoft Visual Studio\2019\Community\VC\Tools\MSVC\14.28.29333\include\list
; File D:\Metin2 Server Files\mainline\SRC_2014\Metin2Client\UserInterface\PythonTextTail.cpp
; File C:\Program Files (x86)\Microsoft Visual Studio\2019\Community\VC\Tools\MSVC\14.28.29333\include\list
; File D:\Metin2 Server Files\mainline\SRC_2014\Metin2Client\UserInterface\PythonTextTail.cpp
; File C:\Program Files (x86)\Microsoft Visual Studio\2019\Community\VC\Tools\MSVC\14.28.29333\include\list
; File D:\Metin2 Server Files\mainline\SRC_2014\Metin2Client\UserInterface\PythonTextTail.cpp
; File C:\Program Files (x86)\Microsoft Visual Studio\2019\Community\VC\Tools\MSVC\14.28.29333\include\list
; File D:\Metin2 Server Files\mainline\SRC_2014\Metin2Client\UserInterface\PythonTextTail.cpp
; File C:\Program Files (x86)\Microsoft Visual Studio\2019\Community\VC\Tools\MSVC\14.28.29333\include\list
; File D:\Metin2 Server Files\mainline\SRC_2014\Metin2Client\UserInterface\PythonTextTail.cpp
; File C:\Program Files (x86)\Microsoft Visual Studio\2019\Community\VC\Tools\MSVC\14.28.29333\include\list
; File D:\Metin2 Server Files\mainline\SRC_2014\Metin2Client\UserInterface\PythonTextTail.cpp
; File C:\Program Files (x86)\Microsoft Visual Studio\2019\Community\VC\Tools\MSVC\14.28.29333\include\list
; File D:\Metin2 Server Files\mainline\SRC_2014\Metin2Client\UserInterface\PythonTextTail.cpp
; File C:\Program Files (x86)\Microsoft Visual Studio\2019\Community\VC\Tools\MSVC\14.28.29333\include\xtree
; File D:\Metin2 Server Files\mainline\SRC_2014\Metin2Client\UserInterface\PythonTextTail.cpp
; File C:\Program Files (x86)\Microsoft Visual Studio\2019\Community\VC\Tools\MSVC\14.28.29333\include\xtree
; File C:\Program Files (x86)\Microsoft Visual Studio\2019\Community\VC\Tools\MSVC\14.28.29333\include\xmemory
; File D:\Metin2 Server Files\mainline\SRC_2014\Metin2Client\UserInterface\PythonTextTail.cpp
; File C:\Program Files (x86)\Microsoft Visual Studio\2019\Community\VC\Tools\MSVC\14.28.29333\include\xmemory
; File D:\Metin2 Server Files\mainline\SRC_2014\Metin2Client\UserInterface\PythonTextTail.cpp
; File C:\Program Files (x86)\Microsoft Visual Studio\2019\Community\VC\Tools\MSVC\14.28.29333\include\xtree
; File D:\Metin2 Server Files\mainline\SRC_2014\M2Data\include\d3dx8math.inl
; File D:\Metin2 Server Files\mainline\SRC_2014\Metin2Client\UserInterface\PythonTextTail.cpp
; File D:\Metin2 Server Files\mainline\SRC_2014\M2Data\include\d3dx8math.inl
; File D:\Metin2 Server Files\mainline\SRC_2014\Metin2Client\UserInterface\PythonTextTail.cpp
; File C:\Program Files (x86)\Microsoft Visual Studio\2019\Community\VC\Tools\MSVC\14.28.29333\include\xtree
; File D:\Metin2 Server Files\mainline\SRC_2014\Metin2Client\UserInterface\PythonTextTail.cpp
;	COMDAT ?ArrangeTextTail@CPythonTextTail@@QAEXXZ
_TEXT	SEGMENT
_iLevelHeight$1 = -56					; size = 4
_iLevelHeight$2 = -52					; size = 4
_iTitleHeight$3 = -48					; size = 4
_iNameHeight$4 = -44					; size = 4
_iHeight$5 = -40					; size = 4
_dwTime$1$ = -36					; size = 4
tv1977 = -32						; size = 4
_iLevelWidth$6 = -32					; size = 4
_iLevelWidth$7 = -28					; size = 4
_pMarkInstance$1$ = -24					; size = 4
_iWidth$8 = -20						; size = 4
_fxAdd$1$ = -16						; size = 4
_dwR$1$ = -16						; size = 4
_pGuildNameInstance$1$ = -16				; size = 4
_pInsertTextTail$1$ = -16				; size = 4
__Successor$9 = -16					; size = 4
_LimitCount$1$ = -12					; size = 4
_itorChat$10 = -12					; size = 4
_iTitleWidth$11 = -12					; size = 4
_this$1$ = -8						; size = 4
_itor$1$ = -4						; size = 4
_iNameWidth$12 = -4					; size = 4
?ArrangeTextTail@CPythonTextTail@@QAEXXZ PROC		; CPythonTextTail::ArrangeTextTail, COMDAT
; _this$ = ecx

; 154  : {

  00000	55		 push	 ebp
  00001	8b ec		 mov	 ebp, esp
  00003	83 ec 38	 sub	 esp, 56			; 00000038H
  00006	53		 push	 ebx
  00007	56		 push	 esi
  00008	89 4d f8	 mov	 DWORD PTR _this$1$[ebp], ecx

; 158  : 	DWORD dwTime = CTimer::Instance().GetCurrentMillisecond();

  0000b	8b 0d 00 00 00
	00		 mov	 ecx, DWORD PTR ?ms_singleton@?$CSingleton@VCTimer@@@@0PAVCTimer@@A ; CSingleton<CTimer>::ms_singleton
  00011	57		 push	 edi
  00012	e8 00 00 00 00	 call	 ?GetCurrentMillisecond@CTimer@@QAEKXZ ; CTimer::GetCurrentMillisecond
; File C:\Program Files (x86)\Microsoft Visual Studio\2019\Community\VC\Tools\MSVC\14.28.29333\include\list

; 1092 :         return iterator(_Mypair._Myval2._Myhead->_Next, _STD addressof(_Mypair._Myval2));

  00017	8b 55 f8	 mov	 edx, DWORD PTR _this$1$[ebp]
; File D:\Metin2 Server Files\mainline\SRC_2014\Metin2Client\UserInterface\PythonTextTail.cpp

; 158  : 	DWORD dwTime = CTimer::Instance().GetCurrentMillisecond();

  0001a	89 45 dc	 mov	 DWORD PTR _dwTime$1$[ebp], eax
; File C:\Program Files (x86)\Microsoft Visual Studio\2019\Community\VC\Tools\MSVC\14.28.29333\include\list

; 1092 :         return iterator(_Mypair._Myval2._Myhead->_Next, _STD addressof(_Mypair._Myval2));

  0001d	8b 72 24	 mov	 esi, DWORD PTR [edx+36]

; 39   :     _List_unchecked_const_iterator(_Nodeptr _Pnode, const _Mylist* _Plist) noexcept : _Ptr(_Pnode) {

  00020	8b 06		 mov	 eax, DWORD PTR [esi]
  00022	89 45 fc	 mov	 DWORD PTR _itor$1$[ebp], eax
  00025	3b c6		 cmp	 eax, esi
; File D:\Metin2 Server Files\mainline\SRC_2014\Metin2Client\UserInterface\PythonTextTail.cpp

; 160  : 	for (itor = m_ItemTextTailList.begin(); itor != m_ItemTextTailList.end(); ++itor)

  00027	0f 84 5f 01 00
	00		 je	 $LN3@ArrangeTex
  0002d	0f 1f 00	 npad	 3
$LL62@ArrangeTex:
; File C:\Program Files (x86)\Microsoft Visual Studio\2019\Community\VC\Tools\MSVC\14.28.29333\include\list

; 39   :     _List_unchecked_const_iterator(_Nodeptr _Pnode, const _Mylist* _Plist) noexcept : _Ptr(_Pnode) {

  00030	8b 3e		 mov	 edi, DWORD PTR [esi]
; File D:\Metin2 Server Files\mainline\SRC_2014\Metin2Client\UserInterface\PythonTextTail.cpp

; 165  : 		int LimitCount = 0;

  00032	33 c9		 xor	 ecx, ecx
  00034	8b 58 08	 mov	 ebx, DWORD PTR [eax+8]
  00037	89 5d f0	 mov	 DWORD PTR _pInsertTextTail$1$[ebp], ebx
  0003a	89 4d f4	 mov	 DWORD PTR _LimitCount$1$[ebp], ecx
; File C:\Program Files (x86)\Microsoft Visual Studio\2019\Community\VC\Tools\MSVC\14.28.29333\include\list

; 39   :     _List_unchecked_const_iterator(_Nodeptr _Pnode, const _Mylist* _Plist) noexcept : _Ptr(_Pnode) {

  0003d	3b fe		 cmp	 edi, esi
; File D:\Metin2 Server Files\mainline\SRC_2014\Metin2Client\UserInterface\PythonTextTail.cpp

; 167  : 		for (itorCompare = m_ItemTextTailList.begin(); itorCompare != m_ItemTextTailList.end();)

  0003f	74 56		 je	 SHORT $LN229@ArrangeTex
$LL5@ArrangeTex:

; 168  : 		{
; 169  : 			TTextTail * pCompareTextTail = *itorCompare;

  00041	8b 5f 08	 mov	 ebx, DWORD PTR [edi+8]

; 170  : 
; 171  : 			if (*itorCompare == *itor)

  00044	3b 58 08	 cmp	 ebx, DWORD PTR [eax+8]
  00047	74 45		 je	 SHORT $LN243@ArrangeTex

; 172  : 			{
; 173  : 				++itorCompare;
; 174  : 				continue;
; 175  : 			}
; 176  : 
; 177  : 			if (LimitCount >= 20)

  00049	83 f9 14	 cmp	 ecx, 20			; 00000014H
  0004c	7d 46		 jge	 SHORT $LN242@ArrangeTex

; 178  : 				break;
; 179  : 
; 180  : 			if (isIn(pInsertTextTail, pCompareTextTail))

  0004e	53		 push	 ebx
  0004f	ff 75 f0	 push	 DWORD PTR _pInsertTextTail$1$[ebp]
  00052	8b ca		 mov	 ecx, edx
  00054	e8 00 00 00 00	 call	 ?isIn@CPythonTextTail@@IAE_NPAUSTextTail@1@0@Z ; CPythonTextTail::isIn
  00059	8b 55 f8	 mov	 edx, DWORD PTR _this$1$[ebp]
  0005c	8b 4d f4	 mov	 ecx, DWORD PTR _LimitCount$1$[ebp]
  0005f	84 c0		 test	 al, al
  00061	74 28		 je	 SHORT $LN16@ArrangeTex

; 181  : 			{
; 182  : 				pInsertTextTail->y = (pCompareTextTail->y + pCompareTextTail->yEnd + yTemp);

  00063	f3 0f 10 43 54	 movss	 xmm0, DWORD PTR [ebx+84]

; 183  : 
; 184  : 				itorCompare = m_ItemTextTailList.begin();
; 185  : 				++LimitCount;

  00068	41		 inc	 ecx
  00069	f3 0f 58 43 28	 addss	 xmm0, DWORD PTR [ebx+40]
  0006e	8b 45 f0	 mov	 eax, DWORD PTR _pInsertTextTail$1$[ebp]
  00071	89 4d f4	 mov	 DWORD PTR _LimitCount$1$[ebp], ecx
  00074	f3 0f 58 05 00
	00 00 00	 addss	 xmm0, DWORD PTR __real@40a00000
  0007c	f3 0f 11 40 28	 movss	 DWORD PTR [eax+40], xmm0
; File C:\Program Files (x86)\Microsoft Visual Studio\2019\Community\VC\Tools\MSVC\14.28.29333\include\list

; 1092 :         return iterator(_Mypair._Myval2._Myhead->_Next, _STD addressof(_Mypair._Myval2));

  00081	8b 72 24	 mov	 esi, DWORD PTR [edx+36]
; File D:\Metin2 Server Files\mainline\SRC_2014\Metin2Client\UserInterface\PythonTextTail.cpp

; 186  : 				continue;

  00084	8b 45 fc	 mov	 eax, DWORD PTR _itor$1$[ebp]
  00087	8b 3e		 mov	 edi, DWORD PTR [esi]
  00089	eb 05		 jmp	 SHORT $LN230@ArrangeTex
$LN16@ArrangeTex:
  0008b	8b 45 fc	 mov	 eax, DWORD PTR _itor$1$[ebp]
$LN243@ArrangeTex:
; File C:\Program Files (x86)\Microsoft Visual Studio\2019\Community\VC\Tools\MSVC\14.28.29333\include\list

; 199  :         return this->_Ptr == _Right._Ptr;

  0008e	8b 3f		 mov	 edi, DWORD PTR [edi]
$LN230@ArrangeTex:
  00090	3b fe		 cmp	 edi, esi
; File D:\Metin2 Server Files\mainline\SRC_2014\Metin2Client\UserInterface\PythonTextTail.cpp

; 167  : 		for (itorCompare = m_ItemTextTailList.begin(); itorCompare != m_ItemTextTailList.end();)

  00092	75 ad		 jne	 SHORT $LL5@ArrangeTex
$LN242@ArrangeTex:
  00094	8b 5d f0	 mov	 ebx, DWORD PTR _pInsertTextTail$1$[ebp]
$LN229@ArrangeTex:

; 187  : 			}
; 188  : 
; 189  : 			++itorCompare;
; 190  : 		}
; 191  : 
; 192  : 
; 193  : 		if (pInsertTextTail->pOwnerTextInstance)

  00097	8b 4b 08	 mov	 ecx, DWORD PTR [ebx+8]
  0009a	85 c9		 test	 ecx, ecx
  0009c	74 72		 je	 SHORT $LN17@ArrangeTex

; 194  : 		{
; 195  : 			pInsertTextTail->pOwnerTextInstance->SetPosition(pInsertTextTail->x, pInsertTextTail->y, pInsertTextTail->z);

  0009e	f3 0f 10 43 2c	 movss	 xmm0, DWORD PTR [ebx+44]
  000a3	83 ec 0c	 sub	 esp, 12			; 0000000cH
  000a6	f3 0f 11 44 24
	08		 movss	 DWORD PTR [esp+8], xmm0
  000ac	f3 0f 10 43 28	 movss	 xmm0, DWORD PTR [ebx+40]
  000b1	f3 0f 11 44 24
	04		 movss	 DWORD PTR [esp+4], xmm0
  000b7	f3 0f 10 43 24	 movss	 xmm0, DWORD PTR [ebx+36]
  000bc	f3 0f 11 04 24	 movss	 DWORD PTR [esp], xmm0
  000c1	e8 00 00 00 00	 call	 ?SetPosition@CGraphicTextInstance@@QAEXMMM@Z ; CGraphicTextInstance::SetPosition

; 196  : 			pInsertTextTail->pOwnerTextInstance->Update();

  000c6	8b 4b 08	 mov	 ecx, DWORD PTR [ebx+8]
  000c9	e8 00 00 00 00	 call	 ?Update@CGraphicTextInstance@@QAEXXZ ; CGraphicTextInstance::Update

; 197  : 
; 198  : 			pInsertTextTail->pTextInstance->SetColor(pInsertTextTail->Color.r, pInsertTextTail->Color.g, pInsertTextTail->Color.b);

  000ce	f3 0f 10 43 3c	 movss	 xmm0, DWORD PTR [ebx+60]
  000d3	83 ec 10	 sub	 esp, 16			; 00000010H
  000d6	8b 4b 04	 mov	 ecx, DWORD PTR [ebx+4]
  000d9	c7 44 24 0c 00
	00 80 3f	 mov	 DWORD PTR [esp+12], 1065353216 ; 3f800000H
  000e1	f3 0f 11 44 24
	08		 movss	 DWORD PTR [esp+8], xmm0
  000e7	f3 0f 10 43 38	 movss	 xmm0, DWORD PTR [ebx+56]
  000ec	f3 0f 11 44 24
	04		 movss	 DWORD PTR [esp+4], xmm0
  000f2	f3 0f 10 43 34	 movss	 xmm0, DWORD PTR [ebx+52]
  000f7	f3 0f 11 04 24	 movss	 DWORD PTR [esp], xmm0
  000fc	e8 00 00 00 00	 call	 ?SetColor@CGraphicTextInstance@@QAEXMMMM@Z ; CGraphicTextInstance::SetColor

; 199  : 			pInsertTextTail->pTextInstance->SetPosition(pInsertTextTail->x, pInsertTextTail->y + 15.0f, pInsertTextTail->z);

  00101	f3 0f 10 53 28	 movss	 xmm2, DWORD PTR [ebx+40]
  00106	f3 0f 58 15 00
	00 00 00	 addss	 xmm2, DWORD PTR __real@41700000

; 200  : 			pInsertTextTail->pTextInstance->Update();
; 201  : 
; 202  : 		}

  0010e	eb 38		 jmp	 SHORT $LN2@ArrangeTex
$LN17@ArrangeTex:

; 203  : 		else
; 204  : 		{
; 205  : 			pInsertTextTail->pTextInstance->SetColor(pInsertTextTail->Color.r, pInsertTextTail->Color.g, pInsertTextTail->Color.b);

  00110	f3 0f 10 43 3c	 movss	 xmm0, DWORD PTR [ebx+60]
  00115	83 ec 10	 sub	 esp, 16			; 00000010H
  00118	8b 4b 04	 mov	 ecx, DWORD PTR [ebx+4]
  0011b	c7 44 24 0c 00
	00 80 3f	 mov	 DWORD PTR [esp+12], 1065353216 ; 3f800000H
  00123	f3 0f 11 44 24
	08		 movss	 DWORD PTR [esp+8], xmm0
  00129	f3 0f 10 43 38	 movss	 xmm0, DWORD PTR [ebx+56]
  0012e	f3 0f 11 44 24
	04		 movss	 DWORD PTR [esp+4], xmm0
  00134	f3 0f 10 43 34	 movss	 xmm0, DWORD PTR [ebx+52]
  00139	f3 0f 11 04 24	 movss	 DWORD PTR [esp], xmm0
  0013e	e8 00 00 00 00	 call	 ?SetColor@CGraphicTextInstance@@QAEXMMMM@Z ; CGraphicTextInstance::SetColor

; 206  : 			pInsertTextTail->pTextInstance->SetPosition(pInsertTextTail->x, pInsertTextTail->y, pInsertTextTail->z);

  00143	f3 0f 10 53 28	 movss	 xmm2, DWORD PTR [ebx+40]
$LN2@ArrangeTex:
; File C:\Program Files (x86)\Microsoft Visual Studio\2019\Community\VC\Tools\MSVC\14.28.29333\include\list

; 166  :         this->_Ptr = this->_Ptr->_Next;

  00148	f3 0f 10 43 2c	 movss	 xmm0, DWORD PTR [ebx+44]
  0014d	83 ec 0c	 sub	 esp, 12			; 0000000cH
  00150	f3 0f 10 4b 24	 movss	 xmm1, DWORD PTR [ebx+36]
  00155	f3 0f 11 44 24
	08		 movss	 DWORD PTR [esp+8], xmm0
  0015b	f3 0f 11 54 24
	04		 movss	 DWORD PTR [esp+4], xmm2
  00161	f3 0f 11 0c 24	 movss	 DWORD PTR [esp], xmm1
  00166	8b 4b 04	 mov	 ecx, DWORD PTR [ebx+4]
  00169	e8 00 00 00 00	 call	 ?SetPosition@CGraphicTextInstance@@QAEXMMM@Z ; CGraphicTextInstance::SetPosition
  0016e	8b 4b 04	 mov	 ecx, DWORD PTR [ebx+4]
  00171	e8 00 00 00 00	 call	 ?Update@CGraphicTextInstance@@QAEXXZ ; CGraphicTextInstance::Update
  00176	8b 45 fc	 mov	 eax, DWORD PTR _itor$1$[ebp]

; 39   :     _List_unchecked_const_iterator(_Nodeptr _Pnode, const _Mylist* _Plist) noexcept : _Ptr(_Pnode) {

  00179	8b 55 f8	 mov	 edx, DWORD PTR _this$1$[ebp]

; 166  :         this->_Ptr = this->_Ptr->_Next;

  0017c	8b 00		 mov	 eax, DWORD PTR [eax]

; 39   :     _List_unchecked_const_iterator(_Nodeptr _Pnode, const _Mylist* _Plist) noexcept : _Ptr(_Pnode) {

  0017e	8b 72 24	 mov	 esi, DWORD PTR [edx+36]

; 166  :         this->_Ptr = this->_Ptr->_Next;

  00181	89 45 fc	 mov	 DWORD PTR _itor$1$[ebp], eax

; 199  :         return this->_Ptr == _Right._Ptr;

  00184	3b c6		 cmp	 eax, esi
; File D:\Metin2 Server Files\mainline\SRC_2014\Metin2Client\UserInterface\PythonTextTail.cpp

; 160  : 	for (itor = m_ItemTextTailList.begin(); itor != m_ItemTextTailList.end(); ++itor)

  00186	0f 85 a4 fe ff
	ff		 jne	 $LL62@ArrangeTex
$LN3@ArrangeTex:
; File C:\Program Files (x86)\Microsoft Visual Studio\2019\Community\VC\Tools\MSVC\14.28.29333\include\list

; 1092 :         return iterator(_Mypair._Myval2._Myhead->_Next, _STD addressof(_Mypair._Myval2));

  0018c	8b 42 1c	 mov	 eax, DWORD PTR [edx+28]

; 39   :     _List_unchecked_const_iterator(_Nodeptr _Pnode, const _Mylist* _Plist) noexcept : _Ptr(_Pnode) {

  0018f	8b 30		 mov	 esi, DWORD PTR [eax]
  00191	3b f0		 cmp	 esi, eax
; File D:\Metin2 Server Files\mainline\SRC_2014\Metin2Client\UserInterface\PythonTextTail.cpp

; 212  : 	for (itor = m_CharacterTextTailList.begin(); itor != m_CharacterTextTailList.end(); ++itor)

  00193	0f 84 cc 03 00
	00		 je	 $LN9@ArrangeTex
  00199	0f 1f 80 00 00
	00 00		 npad	 7
$LL138@ArrangeTex:

; 213  : 	{
; 214  : 		TTextTail * pTextTail = *itor;

  001a0	8b 5e 08	 mov	 ebx, DWORD PTR [esi+8]

; 215  : 
; 216  : 		float fxAdd = 0.0f;
; 217  : 
; 218  : 		// Mark  
; 219  : 		CGraphicMarkInstance * pMarkInstance = pTextTail->pMarkInstance;

  001a3	8b 4b 0c	 mov	 ecx, DWORD PTR [ebx+12]
  001a6	89 4d e8	 mov	 DWORD PTR _pMarkInstance$1$[ebp], ecx

; 221  : 		if (pMarkInstance && pGuildNameInstance)

  001a9	85 c9		 test	 ecx, ecx
  001ab	0f 84 c7 00 00
	00		 je	 $LN19@ArrangeTex

; 220  : 		CGraphicTextInstance * pGuildNameInstance = pTextTail->pGuildNameTextInstance;

  001b1	8b 43 10	 mov	 eax, DWORD PTR [ebx+16]
  001b4	89 45 f0	 mov	 DWORD PTR _pGuildNameInstance$1$[ebp], eax

; 221  : 		if (pMarkInstance && pGuildNameInstance)

  001b7	85 c0		 test	 eax, eax
  001b9	0f 84 b9 00 00
	00		 je	 $LN19@ArrangeTex

; 222  : 		{
; 223  : 			int iWidth, iHeight;
; 224  : 			int iImageHalfSize = pMarkInstance->GetWidth()/2 + c_fxMarkPosition;

  001bf	e8 00 00 00 00	 call	 ?GetWidth@CGraphicMarkInstance@@QAEHXZ ; CGraphicMarkInstance::GetWidth

; 225  : 			pGuildNameInstance->GetTextSize(&iWidth, &iHeight);

  001c4	8b 4d f0	 mov	 ecx, DWORD PTR _pGuildNameInstance$1$[ebp]
  001c7	99		 cdq
  001c8	2b c2		 sub	 eax, edx
  001ca	d1 f8		 sar	 eax, 1
  001cc	66 0f 6e c0	 movd	 xmm0, eax
  001d0	8d 45 d8	 lea	 eax, DWORD PTR _iHeight$5[ebp]
  001d3	0f 5b c0	 cvtdq2ps xmm0, xmm0
  001d6	50		 push	 eax
  001d7	8d 45 ec	 lea	 eax, DWORD PTR _iWidth$8[ebp]
  001da	50		 push	 eax
  001db	f3 0f 58 05 00
	00 00 00	 addss	 xmm0, DWORD PTR __real@3fc00000
  001e3	f3 0f 2c f8	 cvttss2si edi, xmm0
  001e7	e8 00 00 00 00	 call	 ?GetTextSize@CGraphicTextInstance@@QAEXPAH0@Z ; CGraphicTextInstance::GetTextSize

; 226  : 
; 227  : 			pMarkInstance->SetPosition(pTextTail->x - iWidth/2 - iImageHalfSize, pTextTail->y - c_fyMarkPosition);

  001ec	8b 45 ec	 mov	 eax, DWORD PTR _iWidth$8[ebp]
  001ef	83 ec 08	 sub	 esp, 8
  001f2	8b 4d e8	 mov	 ecx, DWORD PTR _pMarkInstance$1$[ebp]
  001f5	99		 cdq
  001f6	2b c2		 sub	 eax, edx
  001f8	d1 f8		 sar	 eax, 1
  001fa	f3 0f 10 43 28	 movss	 xmm0, DWORD PTR [ebx+40]
  001ff	f3 0f 5c 05 00
	00 00 00	 subss	 xmm0, DWORD PTR __real@41d00000
  00207	f3 0f 10 4b 24	 movss	 xmm1, DWORD PTR [ebx+36]
  0020c	66 0f 6e d7	 movd	 xmm2, edi
  00210	0f 5b d2	 cvtdq2ps xmm2, xmm2
  00213	f3 0f 11 44 24
	04		 movss	 DWORD PTR [esp+4], xmm0
  00219	66 0f 6e c0	 movd	 xmm0, eax
  0021d	0f 5b c0	 cvtdq2ps xmm0, xmm0
  00220	f3 0f 5c c8	 subss	 xmm1, xmm0
  00224	f3 0f 5c ca	 subss	 xmm1, xmm2
  00228	f3 0f 11 0c 24	 movss	 DWORD PTR [esp], xmm1
  0022d	e8 00 00 00 00	 call	 ?SetPosition@CGraphicMarkInstance@@QAEXMM@Z ; CGraphicMarkInstance::SetPosition

; 228  : 			pGuildNameInstance->SetPosition(pTextTail->x + iImageHalfSize, pTextTail->y - c_fyGuildNamePosition, pTextTail->z);

  00232	f3 0f 10 43 2c	 movss	 xmm0, DWORD PTR [ebx+44]
  00237	83 ec 0c	 sub	 esp, 12			; 0000000cH
  0023a	8b 4d f0	 mov	 ecx, DWORD PTR _pGuildNameInstance$1$[ebp]
  0023d	66 0f 6e cf	 movd	 xmm1, edi
  00241	0f 5b c9	 cvtdq2ps xmm1, xmm1
  00244	f3 0f 11 44 24
	08		 movss	 DWORD PTR [esp+8], xmm0
  0024a	f3 0f 10 43 28	 movss	 xmm0, DWORD PTR [ebx+40]
  0024f	f3 0f 5c 05 00
	00 00 00	 subss	 xmm0, DWORD PTR __real@41700000
  00257	f3 0f 11 44 24
	04		 movss	 DWORD PTR [esp+4], xmm0
  0025d	f3 0f 10 43 24	 movss	 xmm0, DWORD PTR [ebx+36]
  00262	f3 0f 58 c1	 addss	 xmm0, xmm1
  00266	f3 0f 11 04 24	 movss	 DWORD PTR [esp], xmm0
  0026b	e8 00 00 00 00	 call	 ?SetPosition@CGraphicTextInstance@@QAEXMMM@Z ; CGraphicTextInstance::SetPosition

; 229  : 			pGuildNameInstance->Update();

  00270	8b 4d f0	 mov	 ecx, DWORD PTR _pGuildNameInstance$1$[ebp]
  00273	e8 00 00 00 00	 call	 ?Update@CGraphicTextInstance@@QAEXXZ ; CGraphicTextInstance::Update
$LN19@ArrangeTex:

; 230  : 		}
; 231  : 
; 232  : 		int iNameWidth, iNameHeight;
; 233  : 		pTextTail->pTextInstance->GetTextSize(&iNameWidth, &iNameHeight);

  00278	8b 4b 04	 mov	 ecx, DWORD PTR [ebx+4]
  0027b	8d 45 d4	 lea	 eax, DWORD PTR _iNameHeight$4[ebp]
  0027e	50		 push	 eax
  0027f	8d 45 fc	 lea	 eax, DWORD PTR _iNameWidth$12[ebp]
  00282	50		 push	 eax
  00283	e8 00 00 00 00	 call	 ?GetTextSize@CGraphicTextInstance@@QAEXPAH0@Z ; CGraphicTextInstance::GetTextSize

; 234  : 
; 235  : 		// Title  
; 236  : 		CGraphicTextInstance * pTitle = pTextTail->pTitleTextInstance;

  00288	8b 7b 14	 mov	 edi, DWORD PTR [ebx+20]

; 237  : 		if (pTitle)

  0028b	85 ff		 test	 edi, edi
  0028d	0f 84 97 01 00
	00		 je	 $LN20@ArrangeTex

; 238  : 		{			
; 239  : 			int iTitleWidth, iTitleHeight;
; 240  : 			pTitle->GetTextSize(&iTitleWidth, &iTitleHeight);

  00293	8d 45 d0	 lea	 eax, DWORD PTR _iTitleHeight$3[ebp]
  00296	8b cf		 mov	 ecx, edi
  00298	50		 push	 eax
  00299	8d 45 f4	 lea	 eax, DWORD PTR _iTitleWidth$11[ebp]
  0029c	50		 push	 eax
  0029d	e8 00 00 00 00	 call	 ?GetTextSize@CGraphicTextInstance@@QAEXPAH0@Z ; CGraphicTextInstance::GetTextSize

; 241  : 
; 242  : 			fxAdd = 8.0f;

  002a2	f3 0f 10 05 00
	00 00 00	 movss	 xmm0, DWORD PTR __real@41000000
  002aa	f3 0f 11 45 f0	 movss	 DWORD PTR _fxAdd$1$[ebp], xmm0

; 243  : 
; 244  : 			if (LocaleService_IsEUROPE()) //    

  002af	e8 00 00 00 00	 call	 ?LocaleService_IsEUROPE@@YA_NXZ ; LocaleService_IsEUROPE
  002b4	84 c0		 test	 al, al
  002b6	74 55		 je	 SHORT $LN22@ArrangeTex

; 245  : 			{
; 246  : 				if( GetDefaultCodePage() == CP_ARABIC )

  002b8	e8 00 00 00 00	 call	 ?GetDefaultCodePage@@YAKXZ ; GetDefaultCodePage
  002bd	f3 0f 10 5b 2c	 movss	 xmm3, DWORD PTR [ebx+44]
  002c2	3d e8 04 00 00	 cmp	 eax, 1256		; 000004e8H
  002c7	8b 45 fc	 mov	 eax, DWORD PTR _iNameWidth$12[ebp]
  002ca	f3 0f 10 53 28	 movss	 xmm2, DWORD PTR [ebx+40]
  002cf	f3 0f 10 4b 24	 movss	 xmm1, DWORD PTR [ebx+36]
  002d4	99		 cdq
  002d5	75 25		 jne	 SHORT $LN24@ArrangeTex

; 247  : 				{
; 248  : 					pTitle->SetPosition(pTextTail->x - (iNameWidth / 2) - iTitleWidth - 4.0f, pTextTail->y, pTextTail->z);

  002d7	2b c2		 sub	 eax, edx
  002d9	d1 f8		 sar	 eax, 1
  002db	66 0f 6e c0	 movd	 xmm0, eax
  002df	0f 5b c0	 cvtdq2ps xmm0, xmm0
  002e2	f3 0f 5c c8	 subss	 xmm1, xmm0
  002e6	66 0f 6e 45 f4	 movd	 xmm0, DWORD PTR _iTitleWidth$11[ebp]
  002eb	0f 5b c0	 cvtdq2ps xmm0, xmm0
  002ee	f3 0f 5c c8	 subss	 xmm1, xmm0
  002f2	f3 0f 5c 0d 00
	00 00 00	 subss	 xmm1, DWORD PTR __real@40800000

; 249  : 				}

  002fa	eb 3b		 jmp	 SHORT $LN23@ArrangeTex
$LN24@ArrangeTex:

; 250  : 				else
; 251  : 				{
; 252  : 					pTitle->SetPosition(pTextTail->x - (iNameWidth / 2), pTextTail->y, pTextTail->z);

  002fc	2b c2		 sub	 eax, edx
  002fe	d1 f8		 sar	 eax, 1
  00300	66 0f 6e c0	 movd	 xmm0, eax
  00304	0f 5b c0	 cvtdq2ps xmm0, xmm0
  00307	f3 0f 5c c8	 subss	 xmm1, xmm0

; 253  : 				}
; 254  : 			}

  0030b	eb 2a		 jmp	 SHORT $LN23@ArrangeTex
$LN22@ArrangeTex:

; 255  : 			else
; 256  : 			{
; 257  : 				pTitle->SetPosition(pTextTail->x - (iNameWidth / 2) - fxAdd, pTextTail->y, pTextTail->z);

  0030d	8b 45 fc	 mov	 eax, DWORD PTR _iNameWidth$12[ebp]
  00310	f3 0f 10 4b 24	 movss	 xmm1, DWORD PTR [ebx+36]
  00315	f3 0f 10 53 28	 movss	 xmm2, DWORD PTR [ebx+40]
  0031a	f3 0f 10 5b 2c	 movss	 xmm3, DWORD PTR [ebx+44]
  0031f	99		 cdq
  00320	2b c2		 sub	 eax, edx
  00322	d1 f8		 sar	 eax, 1
  00324	66 0f 6e c0	 movd	 xmm0, eax
  00328	0f 5b c0	 cvtdq2ps xmm0, xmm0
  0032b	f3 0f 5c c8	 subss	 xmm1, xmm0
  0032f	f3 0f 5c 0d 00
	00 00 00	 subss	 xmm1, DWORD PTR __real@41000000
$LN23@ArrangeTex:

; 258  : 			}			
; 259  : 			pTitle->Update();

  00337	83 ec 0c	 sub	 esp, 12			; 0000000cH
  0033a	8b cf		 mov	 ecx, edi
  0033c	f3 0f 11 5c 24
	08		 movss	 DWORD PTR [esp+8], xmm3
  00342	f3 0f 11 54 24
	04		 movss	 DWORD PTR [esp+4], xmm2
  00348	f3 0f 11 0c 24	 movss	 DWORD PTR [esp], xmm1
  0034d	e8 00 00 00 00	 call	 ?SetPosition@CGraphicTextInstance@@QAEXMMM@Z ; CGraphicTextInstance::SetPosition
  00352	8b cf		 mov	 ecx, edi
  00354	e8 00 00 00 00	 call	 ?Update@CGraphicTextInstance@@QAEXXZ ; CGraphicTextInstance::Update

; 260  : 
; 261  : 			// Level  
; 262  : 			CGraphicTextInstance * pLevel = pTextTail->pLevelTextInstance;

  00359	8b 7b 18	 mov	 edi, DWORD PTR [ebx+24]

; 263  : 			if (pLevel)

  0035c	85 ff		 test	 edi, edi
  0035e	0f 84 88 01 00
	00		 je	 $LN31@ArrangeTex

; 264  : 			{
; 265  : 				int iLevelWidth, iLevelHeight;
; 266  : 				pLevel->GetTextSize(&iLevelWidth, &iLevelHeight);

  00364	8d 45 cc	 lea	 eax, DWORD PTR _iLevelHeight$2[ebp]
  00367	8b cf		 mov	 ecx, edi
  00369	50		 push	 eax
  0036a	8d 45 e4	 lea	 eax, DWORD PTR _iLevelWidth$7[ebp]
  0036d	50		 push	 eax
  0036e	e8 00 00 00 00	 call	 ?GetTextSize@CGraphicTextInstance@@QAEXPAH0@Z ; CGraphicTextInstance::GetTextSize

; 267  : 				
; 268  : 				if (LocaleService_IsEUROPE()) //    

  00373	e8 00 00 00 00	 call	 ?LocaleService_IsEUROPE@@YA_NXZ ; LocaleService_IsEUROPE
  00378	84 c0		 test	 al, al
  0037a	74 73		 je	 SHORT $LN27@ArrangeTex

; 269  : 				{
; 270  : 					if( GetDefaultCodePage() == CP_ARABIC )

  0037c	e8 00 00 00 00	 call	 ?GetDefaultCodePage@@YAKXZ ; GetDefaultCodePage
  00381	f3 0f 10 5b 2c	 movss	 xmm3, DWORD PTR [ebx+44]
  00386	3d e8 04 00 00	 cmp	 eax, 1256		; 000004e8H
  0038b	8b 45 fc	 mov	 eax, DWORD PTR _iNameWidth$12[ebp]
  0038e	f3 0f 10 53 28	 movss	 xmm2, DWORD PTR [ebx+40]
  00393	f3 0f 10 4b 24	 movss	 xmm1, DWORD PTR [ebx+36]
  00398	99		 cdq
  00399	75 34		 jne	 SHORT $LN29@ArrangeTex

; 271  : 					{
; 272  : 						pLevel->SetPosition(pTextTail->x - (iNameWidth / 2) - iLevelWidth - iTitleWidth - 8.0f, pTextTail->y, pTextTail->z);

  0039b	2b c2		 sub	 eax, edx
  0039d	d1 f8		 sar	 eax, 1
  0039f	66 0f 6e c0	 movd	 xmm0, eax
  003a3	0f 5b c0	 cvtdq2ps xmm0, xmm0
  003a6	f3 0f 5c c8	 subss	 xmm1, xmm0
  003aa	66 0f 6e 45 e4	 movd	 xmm0, DWORD PTR _iLevelWidth$7[ebp]
  003af	0f 5b c0	 cvtdq2ps xmm0, xmm0
  003b2	f3 0f 5c c8	 subss	 xmm1, xmm0
  003b6	66 0f 6e 45 f4	 movd	 xmm0, DWORD PTR _iTitleWidth$11[ebp]
  003bb	0f 5b c0	 cvtdq2ps xmm0, xmm0
  003be	f3 0f 5c c8	 subss	 xmm1, xmm0
  003c2	f3 0f 5c 0d 00
	00 00 00	 subss	 xmm1, DWORD PTR __real@41000000

; 273  : 					}

  003ca	e9 fb 00 00 00	 jmp	 $LN33@ArrangeTex
$LN29@ArrangeTex:

; 274  : 					else
; 275  : 					{
; 276  : 						pLevel->SetPosition(pTextTail->x - (iNameWidth / 2) - iTitleWidth, pTextTail->y, pTextTail->z);

  003cf	2b c2		 sub	 eax, edx
  003d1	d1 f8		 sar	 eax, 1
  003d3	66 0f 6e c0	 movd	 xmm0, eax
  003d7	0f 5b c0	 cvtdq2ps xmm0, xmm0
  003da	f3 0f 5c c8	 subss	 xmm1, xmm0

; 282  : 				}
; 283  : 
; 284  : 				pLevel->Update();

  003de	66 0f 6e 45 f4	 movd	 xmm0, DWORD PTR _iTitleWidth$11[ebp]
  003e3	0f 5b c0	 cvtdq2ps xmm0, xmm0
  003e6	f3 0f 5c c8	 subss	 xmm1, xmm0

; 285  : 			}
; 286  : 		}

  003ea	e9 db 00 00 00	 jmp	 $LN33@ArrangeTex
$LN27@ArrangeTex:

; 277  : 					}
; 278  : 				}
; 279  : 				else
; 280  : 				{
; 281  : 					pLevel->SetPosition(pTextTail->x - (iNameWidth / 2) - fxAdd - iTitleWidth, pTextTail->y, pTextTail->z);

  003ef	8b 45 fc	 mov	 eax, DWORD PTR _iNameWidth$12[ebp]
  003f2	f3 0f 10 4b 24	 movss	 xmm1, DWORD PTR [ebx+36]
  003f7	f3 0f 10 53 28	 movss	 xmm2, DWORD PTR [ebx+40]
  003fc	f3 0f 10 5b 2c	 movss	 xmm3, DWORD PTR [ebx+44]
  00401	99		 cdq
  00402	2b c2		 sub	 eax, edx
  00404	d1 f8		 sar	 eax, 1
  00406	66 0f 6e c0	 movd	 xmm0, eax
  0040a	0f 5b c0	 cvtdq2ps xmm0, xmm0
  0040d	f3 0f 5c c8	 subss	 xmm1, xmm0

; 282  : 				}
; 283  : 
; 284  : 				pLevel->Update();

  00411	66 0f 6e 45 f4	 movd	 xmm0, DWORD PTR _iTitleWidth$11[ebp]
  00416	0f 5b c0	 cvtdq2ps xmm0, xmm0
  00419	f3 0f 5c 0d 00
	00 00 00	 subss	 xmm1, DWORD PTR __real@41000000
  00421	f3 0f 5c c8	 subss	 xmm1, xmm0

; 285  : 			}
; 286  : 		}

  00425	e9 a0 00 00 00	 jmp	 $LN33@ArrangeTex
$LN20@ArrangeTex:

; 287  : 		else
; 288  : 		{
; 289  : 			fxAdd = 4.0f;

  0042a	f3 0f 10 05 00
	00 00 00	 movss	 xmm0, DWORD PTR __real@40800000

; 290  : 
; 291  : 			// Level  
; 292  : 			CGraphicTextInstance * pLevel = pTextTail->pLevelTextInstance;

  00432	8b 7b 18	 mov	 edi, DWORD PTR [ebx+24]
  00435	f3 0f 11 45 f0	 movss	 DWORD PTR _fxAdd$1$[ebp], xmm0

; 293  : 			if (pLevel)

  0043a	85 ff		 test	 edi, edi
  0043c	0f 84 aa 00 00
	00		 je	 $LN31@ArrangeTex

; 294  : 			{
; 295  : 				int iLevelWidth, iLevelHeight;
; 296  : 				pLevel->GetTextSize(&iLevelWidth, &iLevelHeight);

  00442	8d 45 c8	 lea	 eax, DWORD PTR _iLevelHeight$1[ebp]
  00445	8b cf		 mov	 ecx, edi
  00447	50		 push	 eax
  00448	8d 45 e0	 lea	 eax, DWORD PTR _iLevelWidth$6[ebp]
  0044b	50		 push	 eax
  0044c	e8 00 00 00 00	 call	 ?GetTextSize@CGraphicTextInstance@@QAEXPAH0@Z ; CGraphicTextInstance::GetTextSize

; 297  : 				
; 298  : 				if (LocaleService_IsEUROPE()) //    

  00451	e8 00 00 00 00	 call	 ?LocaleService_IsEUROPE@@YA_NXZ ; LocaleService_IsEUROPE
  00456	84 c0		 test	 al, al
  00458	74 46		 je	 SHORT $LN32@ArrangeTex

; 299  : 				{
; 300  : 					if( GetDefaultCodePage() == CP_ARABIC )

  0045a	e8 00 00 00 00	 call	 ?GetDefaultCodePage@@YAKXZ ; GetDefaultCodePage
  0045f	f3 0f 10 5b 2c	 movss	 xmm3, DWORD PTR [ebx+44]
  00464	3d e8 04 00 00	 cmp	 eax, 1256		; 000004e8H
  00469	8b 45 fc	 mov	 eax, DWORD PTR _iNameWidth$12[ebp]
  0046c	f3 0f 10 53 28	 movss	 xmm2, DWORD PTR [ebx+40]
  00471	f3 0f 10 4b 24	 movss	 xmm1, DWORD PTR [ebx+36]
  00476	99		 cdq
  00477	75 16		 jne	 SHORT $LN34@ArrangeTex

; 301  : 					{
; 302  : 						pLevel->SetPosition(pTextTail->x - (iNameWidth / 2) - iLevelWidth - 4.0f, pTextTail->y, pTextTail->z);

  00479	2b c2		 sub	 eax, edx
  0047b	d1 f8		 sar	 eax, 1
  0047d	66 0f 6e c0	 movd	 xmm0, eax
  00481	0f 5b c0	 cvtdq2ps xmm0, xmm0
  00484	f3 0f 5c c8	 subss	 xmm1, xmm0
  00488	66 0f 6e 45 e0	 movd	 xmm0, DWORD PTR _iLevelWidth$6[ebp]

; 303  : 					}

  0048d	eb 2c		 jmp	 SHORT $LN245@ArrangeTex
$LN34@ArrangeTex:

; 304  : 					else
; 305  : 					{
; 306  : 						pLevel->SetPosition(pTextTail->x - (iNameWidth / 2), pTextTail->y, pTextTail->z);

  0048f	2b c2		 sub	 eax, edx
  00491	d1 f8		 sar	 eax, 1
  00493	66 0f 6e c0	 movd	 xmm0, eax
  00497	0f 5b c0	 cvtdq2ps xmm0, xmm0
  0049a	f3 0f 5c c8	 subss	 xmm1, xmm0

; 307  : 					}
; 308  : 				}

  0049e	eb 2a		 jmp	 SHORT $LN33@ArrangeTex
$LN32@ArrangeTex:

; 309  : 				else
; 310  : 				{
; 311  : 					pLevel->SetPosition(pTextTail->x - (iNameWidth / 2) - fxAdd, pTextTail->y, pTextTail->z);

  004a0	8b 45 fc	 mov	 eax, DWORD PTR _iNameWidth$12[ebp]
  004a3	f3 0f 10 4b 24	 movss	 xmm1, DWORD PTR [ebx+36]
  004a8	f3 0f 10 53 28	 movss	 xmm2, DWORD PTR [ebx+40]
  004ad	f3 0f 10 5b 2c	 movss	 xmm3, DWORD PTR [ebx+44]
  004b2	99		 cdq
  004b3	2b c2		 sub	 eax, edx
  004b5	d1 f8		 sar	 eax, 1
  004b7	66 0f 6e c0	 movd	 xmm0, eax
$LN245@ArrangeTex:

; 312  : 				}
; 313  : 
; 314  : 				pLevel->Update();
; 315  : 			}
; 316  : 		}
; 317  : 		
; 318  : 		pTextTail->pTextInstance->SetColor(pTextTail->Color.r, pTextTail->Color.g, pTextTail->Color.b);

  004bb	0f 5b c0	 cvtdq2ps xmm0, xmm0
  004be	f3 0f 5c c8	 subss	 xmm1, xmm0
  004c2	f3 0f 5c 0d 00
	00 00 00	 subss	 xmm1, DWORD PTR __real@40800000
$LN33@ArrangeTex:
  004ca	83 ec 0c	 sub	 esp, 12			; 0000000cH
  004cd	8b cf		 mov	 ecx, edi
  004cf	f3 0f 11 5c 24
	08		 movss	 DWORD PTR [esp+8], xmm3
  004d5	f3 0f 11 54 24
	04		 movss	 DWORD PTR [esp+4], xmm2
  004db	f3 0f 11 0c 24	 movss	 DWORD PTR [esp], xmm1
  004e0	e8 00 00 00 00	 call	 ?SetPosition@CGraphicTextInstance@@QAEXMMM@Z ; CGraphicTextInstance::SetPosition
  004e5	8b cf		 mov	 ecx, edi
  004e7	e8 00 00 00 00	 call	 ?Update@CGraphicTextInstance@@QAEXXZ ; CGraphicTextInstance::Update
$LN31@ArrangeTex:
  004ec	f3 0f 10 43 3c	 movss	 xmm0, DWORD PTR [ebx+60]
  004f1	83 ec 10	 sub	 esp, 16			; 00000010H
  004f4	8b 4b 04	 mov	 ecx, DWORD PTR [ebx+4]
  004f7	c7 44 24 0c 00
	00 80 3f	 mov	 DWORD PTR [esp+12], 1065353216 ; 3f800000H
  004ff	f3 0f 11 44 24
	08		 movss	 DWORD PTR [esp+8], xmm0
  00505	f3 0f 10 43 38	 movss	 xmm0, DWORD PTR [ebx+56]
  0050a	f3 0f 11 44 24
	04		 movss	 DWORD PTR [esp+4], xmm0
  00510	f3 0f 10 43 34	 movss	 xmm0, DWORD PTR [ebx+52]
  00515	f3 0f 11 04 24	 movss	 DWORD PTR [esp], xmm0
  0051a	e8 00 00 00 00	 call	 ?SetColor@CGraphicTextInstance@@QAEXMMMM@Z ; CGraphicTextInstance::SetColor

; 319  : 		pTextTail->pTextInstance->SetPosition(pTextTail->x + fxAdd, pTextTail->y, pTextTail->z);

  0051f	f3 0f 10 43 2c	 movss	 xmm0, DWORD PTR [ebx+44]
  00524	83 ec 0c	 sub	 esp, 12			; 0000000cH
  00527	8b 4b 04	 mov	 ecx, DWORD PTR [ebx+4]
  0052a	f3 0f 11 44 24
	08		 movss	 DWORD PTR [esp+8], xmm0
  00530	f3 0f 10 43 28	 movss	 xmm0, DWORD PTR [ebx+40]
  00535	f3 0f 11 44 24
	04		 movss	 DWORD PTR [esp+4], xmm0
  0053b	f3 0f 10 43 24	 movss	 xmm0, DWORD PTR [ebx+36]
  00540	f3 0f 58 45 f0	 addss	 xmm0, DWORD PTR _fxAdd$1$[ebp]
  00545	f3 0f 11 04 24	 movss	 DWORD PTR [esp], xmm0
  0054a	e8 00 00 00 00	 call	 ?SetPosition@CGraphicTextInstance@@QAEXMMM@Z ; CGraphicTextInstance::SetPosition

; 320  : 		pTextTail->pTextInstance->Update();

  0054f	8b 4b 04	 mov	 ecx, DWORD PTR [ebx+4]
  00552	e8 00 00 00 00	 call	 ?Update@CGraphicTextInstance@@QAEXXZ ; CGraphicTextInstance::Update
; File C:\Program Files (x86)\Microsoft Visual Studio\2019\Community\VC\Tools\MSVC\14.28.29333\include\list

; 199  :         return this->_Ptr == _Right._Ptr;

  00557	8b 55 f8	 mov	 edx, DWORD PTR _this$1$[ebp]

; 166  :         this->_Ptr = this->_Ptr->_Next;

  0055a	8b 36		 mov	 esi, DWORD PTR [esi]

; 199  :         return this->_Ptr == _Right._Ptr;

  0055c	3b 72 1c	 cmp	 esi, DWORD PTR [edx+28]
; File D:\Metin2 Server Files\mainline\SRC_2014\Metin2Client\UserInterface\PythonTextTail.cpp

; 212  : 	for (itor = m_CharacterTextTailList.begin(); itor != m_CharacterTextTailList.end(); ++itor)

  0055f	0f 85 3b fc ff
	ff		 jne	 $LL138@ArrangeTex
$LN9@ArrangeTex:
; File C:\Program Files (x86)\Microsoft Visual Studio\2019\Community\VC\Tools\MSVC\14.28.29333\include\xtree

; 1240 :         return iterator(_Scary->_Myhead->_Left, _Scary);

  00565	8b 42 14	 mov	 eax, DWORD PTR [edx+20]
  00568	8d 5a 14	 lea	 ebx, DWORD PTR [edx+20]
  0056b	89 5d e0	 mov	 DWORD PTR tv1977[ebp], ebx

; 39   :     _Tree_unchecked_const_iterator(_Nodeptr _Pnode, const _Mytree* _Plist) noexcept : _Ptr(_Pnode) {

  0056e	8b 30		 mov	 esi, DWORD PTR [eax]
  00570	89 75 f4	 mov	 DWORD PTR _itorChat$10[ebp], esi
  00573	3b f0		 cmp	 esi, eax
; File D:\Metin2 Server Files\mainline\SRC_2014\Metin2Client\UserInterface\PythonTextTail.cpp

; 323  : 	for (TChatTailMap::iterator itorChat=m_ChatTailMap.begin(); itorChat!=m_ChatTailMap.end();)

  00575	0f 84 8c 01 00
	00		 je	 $LN12@ArrangeTex
  0057b	0f 1f 44 00 00	 npad	 5
$LL11@ArrangeTex:

; 324  : 	{
; 325  : 		TTextTail * pTextTail = itorChat->second;

  00580	8b 7e 14	 mov	 edi, DWORD PTR [esi+20]

; 326  : 
; 327  : 		if (pTextTail->LivingTime < dwTime)

  00583	8b 45 dc	 mov	 eax, DWORD PTR _dwTime$1$[ebp]
  00586	39 47 58	 cmp	 DWORD PTR [edi+88], eax
  00589	73 31		 jae	 SHORT $LN36@ArrangeTex

; 328  : 		{
; 329  : 			DeleteTextTail(pTextTail);

  0058b	57		 push	 edi
  0058c	8b ca		 mov	 ecx, edx
  0058e	e8 00 00 00 00	 call	 ?DeleteTextTail@CPythonTextTail@@IAEXPAUSTextTail@1@@Z ; CPythonTextTail::DeleteTextTail
; File C:\Program Files (x86)\Microsoft Visual Studio\2019\Community\VC\Tools\MSVC\14.28.29333\include\xtree

; 1388 :         ++_Successor; // save successor iterator for return

  00593	8d 4d f0	 lea	 ecx, DWORD PTR __Successor$9[ebp]
  00596	89 75 f0	 mov	 DWORD PTR __Successor$9[ebp], esi
  00599	e8 00 00 00 00	 call	 ??E?$_Tree_unchecked_const_iterator@V?$_Tree_val@U?$_Tree_simple_types@U?$pair@$$CBKPAUSTextTail@CPythonTextTail@@@std@@@std@@@std@@U_Iterator_base0@2@@std@@QAEAAV01@XZ ; std::_Tree_unchecked_const_iterator<std::_Tree_val<std::_Tree_simple_types<std::pair<unsigned long const ,CPythonTextTail::STextTail *> > >,std::_Iterator_base0>::operator++

; 1389 :         _Nodeptr _Erasednode = _Scary->_Extract(_Where); // node to erase

  0059e	56		 push	 esi
  0059f	8b cb		 mov	 ecx, ebx
  005a1	e8 00 00 00 00	 call	 ?_Extract@?$_Tree_val@U?$_Tree_simple_types@U?$pair@$$CBKPAUSTextTail@CPythonTextTail@@@std@@@std@@@std@@QAEPAU?$_Tree_node@U?$pair@$$CBKPAUSTextTail@CPythonTextTail@@@std@@PAX@2@V?$_Tree_unchecked_const_iterator@V?$_Tree_val@U?$_Tree_simple_types@U?$pair@$$CBKPAUSTextTail@CPythonTextTail@@@std@@@std@@@std@@U_Iterator_base0@2@@2@@Z ; std::_Tree_val<std::_Tree_simple_types<std::pair<unsigned long const ,CPythonTextTail::STextTail *> > >::_Extract
; File C:\Program Files (x86)\Microsoft Visual Studio\2019\Community\VC\Tools\MSVC\14.28.29333\include\xmemory

; 696  :         _Deallocate<_New_alignof<value_type>>(_Ptr, sizeof(value_type) * _Count);

  005a6	6a 18		 push	 24			; 00000018H
  005a8	50		 push	 eax
  005a9	e8 00 00 00 00	 call	 ??$_Deallocate@$07$0A@@std@@YAXPAXI@Z ; std::_Deallocate<8,0>
; File D:\Metin2 Server Files\mainline\SRC_2014\Metin2Client\UserInterface\PythonTextTail.cpp

; 330  : 			itorChat = m_ChatTailMap.erase(itorChat);

  005ae	8b 75 f0	 mov	 esi, DWORD PTR __Successor$9[ebp]
; File C:\Program Files (x86)\Microsoft Visual Studio\2019\Community\VC\Tools\MSVC\14.28.29333\include\xmemory

; 696  :         _Deallocate<_New_alignof<value_type>>(_Ptr, sizeof(value_type) * _Count);

  005b1	83 c4 08	 add	 esp, 8
; File D:\Metin2 Server Files\mainline\SRC_2014\Metin2Client\UserInterface\PythonTextTail.cpp

; 330  : 			itorChat = m_ChatTailMap.erase(itorChat);

  005b4	89 75 f4	 mov	 DWORD PTR _itorChat$10[ebp], esi

; 331  : 			continue;

  005b7	e9 40 01 00 00	 jmp	 $LN233@ArrangeTex
$LN36@ArrangeTex:
; File C:\Program Files (x86)\Microsoft Visual Studio\2019\Community\VC\Tools\MSVC\14.28.29333\include\xtree

; 198  :         _Mybase::operator++();

  005bc	8d 4d f4	 lea	 ecx, DWORD PTR _itorChat$10[ebp]
  005bf	e8 00 00 00 00	 call	 ??E?$_Tree_unchecked_const_iterator@V?$_Tree_val@U?$_Tree_simple_types@U?$pair@$$CBKPAUSTextTail@CPythonTextTail@@@std@@@std@@@std@@U_Iterator_base0@2@@std@@QAEAAV01@XZ ; std::_Tree_unchecked_const_iterator<std::_Tree_val<std::_Tree_simple_types<std::pair<unsigned long const ,CPythonTextTail::STextTail *> > >,std::_Iterator_base0>::operator++
; File D:\Metin2 Server Files\mainline\SRC_2014\M2Data\include\d3dx8math.inl

; 931  :     DWORD dwR = r >= 1.0f ? 0xff : r <= 0.0f ? 0x00 : (DWORD) (r * 255.0f + 0.5f);

  005c4	f3 0f 10 47 34	 movss	 xmm0, DWORD PTR [edi+52]
  005c9	0f 57 c9	 xorps	 xmm1, xmm1
  005cc	0f 2f 05 00 00
	00 00		 comiss	 xmm0, DWORD PTR __real@3f800000
  005d3	72 09		 jb	 SHORT $LN211@ArrangeTex
  005d5	c7 45 f0 ff 00
	00 00		 mov	 DWORD PTR _dwR$1$[ebp], 255 ; 000000ffH
  005dc	eb 29		 jmp	 SHORT $LN210@ArrangeTex
$LN211@ArrangeTex:
  005de	0f 2f c8	 comiss	 xmm1, xmm0
  005e1	72 09		 jb	 SHORT $LN209@ArrangeTex
  005e3	c7 45 f0 00 00
	00 00		 mov	 DWORD PTR _dwR$1$[ebp], 0
  005ea	eb 1b		 jmp	 SHORT $LN210@ArrangeTex
$LN209@ArrangeTex:
  005ec	f3 0f 59 05 00
	00 00 00	 mulss	 xmm0, DWORD PTR __real@437f0000
  005f4	f3 0f 58 05 00
	00 00 00	 addss	 xmm0, DWORD PTR __real@3f000000
  005fc	e8 00 00 00 00	 call	 __ftoui3
  00601	89 45 f0	 mov	 DWORD PTR _dwR$1$[ebp], eax
  00604	0f 57 c9	 xorps	 xmm1, xmm1
$LN210@ArrangeTex:

; 932  :     DWORD dwG = g >= 1.0f ? 0xff : g <= 0.0f ? 0x00 : (DWORD) (g * 255.0f + 0.5f);

  00607	f3 0f 10 47 38	 movss	 xmm0, DWORD PTR [edi+56]
  0060c	0f 2f 05 00 00
	00 00		 comiss	 xmm0, DWORD PTR __real@3f800000
  00613	72 07		 jb	 SHORT $LN215@ArrangeTex
  00615	bb ff 00 00 00	 mov	 ebx, 255		; 000000ffH
  0061a	eb 20		 jmp	 SHORT $LN214@ArrangeTex
$LN215@ArrangeTex:
  0061c	0f 2f c8	 comiss	 xmm1, xmm0
  0061f	72 04		 jb	 SHORT $LN213@ArrangeTex
  00621	33 db		 xor	 ebx, ebx
  00623	eb 17		 jmp	 SHORT $LN214@ArrangeTex
$LN213@ArrangeTex:
  00625	f3 0f 59 05 00
	00 00 00	 mulss	 xmm0, DWORD PTR __real@437f0000
  0062d	f3 0f 58 05 00
	00 00 00	 addss	 xmm0, DWORD PTR __real@3f000000
  00635	e8 00 00 00 00	 call	 __ftoui3
  0063a	8b d8		 mov	 ebx, eax
$LN214@ArrangeTex:

; 933  :     DWORD dwB = b >= 1.0f ? 0xff : b <= 0.0f ? 0x00 : (DWORD) (b * 255.0f + 0.5f);

  0063c	f3 0f 10 47 3c	 movss	 xmm0, DWORD PTR [edi+60]
  00641	0f 57 c9	 xorps	 xmm1, xmm1
  00644	0f 2f 05 00 00
	00 00		 comiss	 xmm0, DWORD PTR __real@3f800000
  0064b	72 07		 jb	 SHORT $LN219@ArrangeTex
  0064d	be ff 00 00 00	 mov	 esi, 255		; 000000ffH
  00652	eb 23		 jmp	 SHORT $LN218@ArrangeTex
$LN219@ArrangeTex:
  00654	0f 2f c8	 comiss	 xmm1, xmm0
  00657	72 04		 jb	 SHORT $LN217@ArrangeTex
  00659	33 f6		 xor	 esi, esi
  0065b	eb 1a		 jmp	 SHORT $LN218@ArrangeTex
$LN217@ArrangeTex:
  0065d	f3 0f 59 05 00
	00 00 00	 mulss	 xmm0, DWORD PTR __real@437f0000
  00665	f3 0f 58 05 00
	00 00 00	 addss	 xmm0, DWORD PTR __real@3f000000
  0066d	e8 00 00 00 00	 call	 __ftoui3
  00672	8b f0		 mov	 esi, eax
  00674	0f 57 c9	 xorps	 xmm1, xmm1
$LN218@ArrangeTex:

; 934  :     DWORD dwA = a >= 1.0f ? 0xff : a <= 0.0f ? 0x00 : (DWORD) (a * 255.0f + 0.5f);

  00677	f3 0f 10 47 40	 movss	 xmm0, DWORD PTR [edi+64]
  0067c	0f 2f 05 00 00
	00 00		 comiss	 xmm0, DWORD PTR __real@3f800000
  00683	72 07		 jb	 SHORT $LN223@ArrangeTex
  00685	b8 ff 00 00 00	 mov	 eax, 255		; 000000ffH
  0068a	eb 1e		 jmp	 SHORT $LN222@ArrangeTex
$LN223@ArrangeTex:
  0068c	0f 2f c8	 comiss	 xmm1, xmm0
  0068f	72 04		 jb	 SHORT $LN221@ArrangeTex
  00691	33 c0		 xor	 eax, eax
  00693	eb 15		 jmp	 SHORT $LN222@ArrangeTex
$LN221@ArrangeTex:
  00695	f3 0f 59 05 00
	00 00 00	 mulss	 xmm0, DWORD PTR __real@437f0000
  0069d	f3 0f 58 05 00
	00 00 00	 addss	 xmm0, DWORD PTR __real@3f000000
  006a5	e8 00 00 00 00	 call	 __ftoui3
$LN222@ArrangeTex:
; File D:\Metin2 Server Files\mainline\SRC_2014\Metin2Client\UserInterface\PythonTextTail.cpp

; 336  : 		pTextTail->pTextInstance->SetColor(pTextTail->Color);

  006aa	8b 4f 04	 mov	 ecx, DWORD PTR [edi+4]
; File D:\Metin2 Server Files\mainline\SRC_2014\M2Data\include\d3dx8math.inl

; 936  :     return (dwA << 24) | (dwR << 16) | (dwG << 8) | dwB;

  006ad	c1 e0 08	 shl	 eax, 8
  006b0	0b 45 f0	 or	 eax, DWORD PTR _dwR$1$[ebp]
  006b3	c1 e0 08	 shl	 eax, 8
  006b6	0b c3		 or	 eax, ebx
  006b8	c1 e0 08	 shl	 eax, 8
  006bb	0b c6		 or	 eax, esi
; File D:\Metin2 Server Files\mainline\SRC_2014\Metin2Client\UserInterface\PythonTextTail.cpp

; 336  : 		pTextTail->pTextInstance->SetColor(pTextTail->Color);

  006bd	50		 push	 eax
  006be	e8 00 00 00 00	 call	 ?SetColor@CGraphicTextInstance@@QAEXK@Z ; CGraphicTextInstance::SetColor

; 337  : 		pTextTail->pTextInstance->SetPosition(pTextTail->x, pTextTail->y, pTextTail->z);

  006c3	f3 0f 10 47 2c	 movss	 xmm0, DWORD PTR [edi+44]
  006c8	83 ec 0c	 sub	 esp, 12			; 0000000cH
  006cb	8b 4f 04	 mov	 ecx, DWORD PTR [edi+4]
  006ce	f3 0f 11 44 24
	08		 movss	 DWORD PTR [esp+8], xmm0
  006d4	f3 0f 10 47 28	 movss	 xmm0, DWORD PTR [edi+40]
  006d9	f3 0f 11 44 24
	04		 movss	 DWORD PTR [esp+4], xmm0
  006df	f3 0f 10 47 24	 movss	 xmm0, DWORD PTR [edi+36]
  006e4	f3 0f 11 04 24	 movss	 DWORD PTR [esp], xmm0
  006e9	e8 00 00 00 00	 call	 ?SetPosition@CGraphicTextInstance@@QAEXMMM@Z ; CGraphicTextInstance::SetPosition

; 338  : 		pTextTail->pTextInstance->Update();

  006ee	8b 4f 04	 mov	 ecx, DWORD PTR [edi+4]
  006f1	e8 00 00 00 00	 call	 ?Update@CGraphicTextInstance@@QAEXXZ ; CGraphicTextInstance::Update
  006f6	8b 75 f4	 mov	 esi, DWORD PTR _itorChat$10[ebp]
  006f9	8b 5d e0	 mov	 ebx, DWORD PTR tv1977[ebp]
$LN233@ArrangeTex:

; 323  : 	for (TChatTailMap::iterator itorChat=m_ChatTailMap.begin(); itorChat!=m_ChatTailMap.end();)

  006fc	8b 55 f8	 mov	 edx, DWORD PTR _this$1$[ebp]
; File C:\Program Files (x86)\Microsoft Visual Studio\2019\Community\VC\Tools\MSVC\14.28.29333\include\xtree

; 232  :         return this->_Ptr == _Right._Ptr;

  006ff	3b 33		 cmp	 esi, DWORD PTR [ebx]
; File D:\Metin2 Server Files\mainline\SRC_2014\Metin2Client\UserInterface\PythonTextTail.cpp

; 323  : 	for (TChatTailMap::iterator itorChat=m_ChatTailMap.begin(); itorChat!=m_ChatTailMap.end();)

  00701	0f 85 79 fe ff
	ff		 jne	 $LL11@ArrangeTex
$LN12@ArrangeTex:
  00707	5f		 pop	 edi

; 339  : 	}
; 340  : }

  00708	5e		 pop	 esi
  00709	5b		 pop	 ebx
  0070a	8b e5		 mov	 esp, ebp
  0070c	5d		 pop	 ebp
  0070d	c3		 ret	 0
?ArrangeTextTail@CPythonTextTail@@QAEXXZ ENDP		; CPythonTextTail::ArrangeTextTail
_TEXT	ENDS
; Function compile flags: /Ogtp
; File D:\Metin2 Server Files\mainline\SRC_2014\Metin2Client\UserInterface\PythonTextTail.cpp
; File C:\Program Files (x86)\Microsoft Visual Studio\2019\Community\VC\Tools\MSVC\14.28.29333\include\list
; File D:\Metin2 Server Files\mainline\SRC_2014\Metin2Client\UserInterface\PythonTextTail.cpp
; File C:\Program Files (x86)\Microsoft Visual Studio\2019\Community\VC\Tools\MSVC\14.28.29333\include\list
; File D:\Metin2 Server Files\mainline\SRC_2014\Metin2Client\UserInterface\PythonTextTail.cpp
; File C:\Program Files (x86)\Microsoft Visual Studio\2019\Community\VC\Tools\MSVC\14.28.29333\include\list
; File D:\Metin2 Server Files\mainline\SRC_2014\Metin2Client\UserInterface\PythonTextTail.cpp
; File C:\Program Files (x86)\Microsoft Visual Studio\2019\Community\VC\Tools\MSVC\14.28.29333\include\list
; File D:\Metin2 Server Files\mainline\SRC_2014\Metin2Client\UserInterface\PythonTextTail.cpp
; File C:\Program Files (x86)\Microsoft Visual Studio\2019\Community\VC\Tools\MSVC\14.28.29333\include\xtree
; File D:\Metin2 Server Files\mainline\SRC_2014\Metin2Client\UserInterface\PythonTextTail.cpp
; File C:\Program Files (x86)\Microsoft Visual Studio\2019\Community\VC\Tools\MSVC\14.28.29333\include\xtree
; File D:\Metin2 Server Files\mainline\SRC_2014\Metin2Client\UserInterface\PythonTextTail.cpp
;	COMDAT ?Render@CPythonTextTail@@QAEXXZ
_TEXT	SEGMENT
_itorChat$1 = -4					; size = 4
?Render@CPythonTextTail@@QAEXXZ PROC			; CPythonTextTail::Render, COMDAT
; _this$ = ecx

; 343  : {

  00000	55		 push	 ebp
  00001	8b ec		 mov	 ebp, esp
  00003	51		 push	 ecx
  00004	53		 push	 ebx
  00005	8b d9		 mov	 ebx, ecx
  00007	56		 push	 esi
  00008	57		 push	 edi
; File C:\Program Files (x86)\Microsoft Visual Studio\2019\Community\VC\Tools\MSVC\14.28.29333\include\list

; 1092 :         return iterator(_Mypair._Myval2._Myhead->_Next, _STD addressof(_Mypair._Myval2));

  00009	8b 43 1c	 mov	 eax, DWORD PTR [ebx+28]

; 39   :     _List_unchecked_const_iterator(_Nodeptr _Pnode, const _Mylist* _Plist) noexcept : _Ptr(_Pnode) {

  0000c	8b 30		 mov	 esi, DWORD PTR [eax]
  0000e	3b f0		 cmp	 esi, eax
; File D:\Metin2 Server Files\mainline\SRC_2014\Metin2Client\UserInterface\PythonTextTail.cpp

; 346  : 	for (itor = m_CharacterTextTailList.begin(); itor != m_CharacterTextTailList.end(); ++itor)

  00010	74 4c		 je	 SHORT $LN3@Render
$LL34@Render:

; 347  : 	{
; 348  : 		TTextTail * pTextTail = *itor;

  00012	8b 7e 08	 mov	 edi, DWORD PTR [esi+8]

; 349  : 		pTextTail->pTextInstance->Render();

  00015	6a 00		 push	 0
  00017	8b 4f 04	 mov	 ecx, DWORD PTR [edi+4]
  0001a	e8 00 00 00 00	 call	 ?Render@CGraphicTextInstance@@QAEXPAUtagRECT@@@Z ; CGraphicTextInstance::Render

; 350  : 		if (pTextTail->pMarkInstance && pTextTail->pGuildNameTextInstance)

  0001f	8b 4f 0c	 mov	 ecx, DWORD PTR [edi+12]
  00022	85 c9		 test	 ecx, ecx
  00024	74 15		 je	 SHORT $LN11@Render
  00026	83 7f 10 00	 cmp	 DWORD PTR [edi+16], 0
  0002a	74 0f		 je	 SHORT $LN11@Render

; 351  : 		{
; 352  : 			pTextTail->pMarkInstance->Render();

  0002c	e8 00 00 00 00	 call	 ?Render@CGraphicMarkInstance@@QAEXXZ ; CGraphicMarkInstance::Render

; 353  : 			pTextTail->pGuildNameTextInstance->Render();

  00031	8b 4f 10	 mov	 ecx, DWORD PTR [edi+16]
  00034	6a 00		 push	 0
  00036	e8 00 00 00 00	 call	 ?Render@CGraphicTextInstance@@QAEXPAUtagRECT@@@Z ; CGraphicTextInstance::Render
$LN11@Render:

; 354  : 		}
; 355  : 		if (pTextTail->pTitleTextInstance)

  0003b	8b 4f 14	 mov	 ecx, DWORD PTR [edi+20]
  0003e	85 c9		 test	 ecx, ecx
  00040	74 07		 je	 SHORT $LN12@Render

; 356  : 		{
; 357  : 			pTextTail->pTitleTextInstance->Render();

  00042	6a 00		 push	 0
  00044	e8 00 00 00 00	 call	 ?Render@CGraphicTextInstance@@QAEXPAUtagRECT@@@Z ; CGraphicTextInstance::Render
$LN12@Render:

; 358  : 		}
; 359  : 		if (pTextTail->pLevelTextInstance)

  00049	8b 4f 18	 mov	 ecx, DWORD PTR [edi+24]
  0004c	85 c9		 test	 ecx, ecx
  0004e	74 07		 je	 SHORT $LN2@Render

; 360  : 		{
; 361  : 			pTextTail->pLevelTextInstance->Render();

  00050	6a 00		 push	 0
  00052	e8 00 00 00 00	 call	 ?Render@CGraphicTextInstance@@QAEXPAUtagRECT@@@Z ; CGraphicTextInstance::Render
$LN2@Render:
; File C:\Program Files (x86)\Microsoft Visual Studio\2019\Community\VC\Tools\MSVC\14.28.29333\include\list

; 166  :         this->_Ptr = this->_Ptr->_Next;

  00057	8b 36		 mov	 esi, DWORD PTR [esi]

; 199  :         return this->_Ptr == _Right._Ptr;

  00059	3b 73 1c	 cmp	 esi, DWORD PTR [ebx+28]
; File D:\Metin2 Server Files\mainline\SRC_2014\Metin2Client\UserInterface\PythonTextTail.cpp

; 346  : 	for (itor = m_CharacterTextTailList.begin(); itor != m_CharacterTextTailList.end(); ++itor)

  0005c	75 b4		 jne	 SHORT $LL34@Render
$LN3@Render:
; File C:\Program Files (x86)\Microsoft Visual Studio\2019\Community\VC\Tools\MSVC\14.28.29333\include\list

; 1092 :         return iterator(_Mypair._Myval2._Myhead->_Next, _STD addressof(_Mypair._Myval2));

  0005e	8b 43 24	 mov	 eax, DWORD PTR [ebx+36]

; 39   :     _List_unchecked_const_iterator(_Nodeptr _Pnode, const _Mylist* _Plist) noexcept : _Ptr(_Pnode) {

  00061	8b 30		 mov	 esi, DWORD PTR [eax]
  00063	3b f0		 cmp	 esi, eax
; File D:\Metin2 Server Files\mainline\SRC_2014\Metin2Client\UserInterface\PythonTextTail.cpp

; 365  : 	for (itor = m_ItemTextTailList.begin(); itor != m_ItemTextTailList.end(); ++itor)

  00065	74 2a		 je	 SHORT $LN6@Render
$LL62@Render:

; 366  : 	{
; 367  : 		TTextTail * pTextTail = *itor;

  00067	8b 7e 08	 mov	 edi, DWORD PTR [esi+8]

; 368  : 
; 369  : 		RenderTextTailBox(pTextTail);

  0006a	8b cb		 mov	 ecx, ebx
  0006c	57		 push	 edi
  0006d	e8 00 00 00 00	 call	 ?RenderTextTailBox@CPythonTextTail@@IAEXPAUSTextTail@1@@Z ; CPythonTextTail::RenderTextTailBox

; 370  : 		pTextTail->pTextInstance->Render();

  00072	8b 4f 04	 mov	 ecx, DWORD PTR [edi+4]
  00075	6a 00		 push	 0
  00077	e8 00 00 00 00	 call	 ?Render@CGraphicTextInstance@@QAEXPAUtagRECT@@@Z ; CGraphicTextInstance::Render

; 371  : 		if (pTextTail->pOwnerTextInstance)

  0007c	8b 4f 08	 mov	 ecx, DWORD PTR [edi+8]
  0007f	85 c9		 test	 ecx, ecx
  00081	74 07		 je	 SHORT $LN5@Render

; 372  : 			pTextTail->pOwnerTextInstance->Render();

  00083	6a 00		 push	 0
  00085	e8 00 00 00 00	 call	 ?Render@CGraphicTextInstance@@QAEXPAUtagRECT@@@Z ; CGraphicTextInstance::Render
$LN5@Render:
; File C:\Program Files (x86)\Microsoft Visual Studio\2019\Community\VC\Tools\MSVC\14.28.29333\include\list

; 166  :         this->_Ptr = this->_Ptr->_Next;

  0008a	8b 36		 mov	 esi, DWORD PTR [esi]

; 199  :         return this->_Ptr == _Right._Ptr;

  0008c	3b 73 24	 cmp	 esi, DWORD PTR [ebx+36]
; File D:\Metin2 Server Files\mainline\SRC_2014\Metin2Client\UserInterface\PythonTextTail.cpp

; 365  : 	for (itor = m_ItemTextTailList.begin(); itor != m_ItemTextTailList.end(); ++itor)

  0008f	75 d6		 jne	 SHORT $LL62@Render
$LN6@Render:
; File C:\Program Files (x86)\Microsoft Visual Studio\2019\Community\VC\Tools\MSVC\14.28.29333\include\xtree

; 1240 :         return iterator(_Scary->_Myhead->_Left, _Scary);

  00091	8b 4b 14	 mov	 ecx, DWORD PTR [ebx+20]

; 39   :     _Tree_unchecked_const_iterator(_Nodeptr _Pnode, const _Mytree* _Plist) noexcept : _Ptr(_Pnode) {

  00094	8b 01		 mov	 eax, DWORD PTR [ecx]
  00096	89 45 fc	 mov	 DWORD PTR _itorChat$1[ebp], eax
  00099	3b c1		 cmp	 eax, ecx
; File D:\Metin2 Server Files\mainline\SRC_2014\Metin2Client\UserInterface\PythonTextTail.cpp

; 375  : 	for (TChatTailMap::iterator itorChat = m_ChatTailMap.begin(); itorChat!=m_ChatTailMap.end(); ++itorChat)

  0009b	74 2a		 je	 SHORT $LN9@Render
  0009d	0f 1f 00	 npad	 3
$LL90@Render:

; 376  : 	{
; 377  : 		TTextTail * pTextTail = itorChat->second;

  000a0	8b 70 14	 mov	 esi, DWORD PTR [eax+20]

; 378  : 		if (pTextTail->pOwner->isShow())

  000a3	8b 4e 1c	 mov	 ecx, DWORD PTR [esi+28]
  000a6	e8 00 00 00 00	 call	 ?isShow@CGraphicObjectInstance@@QAE_NXZ ; CGraphicObjectInstance::isShow
  000ab	84 c0		 test	 al, al
  000ad	74 08		 je	 SHORT $LN8@Render

; 379  : 			RenderTextTailName(pTextTail);

  000af	56		 push	 esi
  000b0	8b cb		 mov	 ecx, ebx
  000b2	e8 00 00 00 00	 call	 ?RenderTextTailName@CPythonTextTail@@IAEXPAUSTextTail@1@@Z ; CPythonTextTail::RenderTextTailName
$LN8@Render:
; File C:\Program Files (x86)\Microsoft Visual Studio\2019\Community\VC\Tools\MSVC\14.28.29333\include\xtree

; 198  :         _Mybase::operator++();

  000b7	8d 4d fc	 lea	 ecx, DWORD PTR _itorChat$1[ebp]
  000ba	e8 00 00 00 00	 call	 ??E?$_Tree_unchecked_const_iterator@V?$_Tree_val@U?$_Tree_simple_types@U?$pair@$$CBKPAUSTextTail@CPythonTextTail@@@std@@@std@@@std@@U_Iterator_base0@2@@std@@QAEAAV01@XZ ; std::_Tree_unchecked_const_iterator<std::_Tree_val<std::_Tree_simple_types<std::pair<unsigned long const ,CPythonTextTail::STextTail *> > >,std::_Iterator_base0>::operator++

; 232  :         return this->_Ptr == _Right._Ptr;

  000bf	8b 45 fc	 mov	 eax, DWORD PTR _itorChat$1[ebp]
  000c2	3b 43 14	 cmp	 eax, DWORD PTR [ebx+20]
; File D:\Metin2 Server Files\mainline\SRC_2014\Metin2Client\UserInterface\PythonTextTail.cpp

; 375  : 	for (TChatTailMap::iterator itorChat = m_ChatTailMap.begin(); itorChat!=m_ChatTailMap.end(); ++itorChat)

  000c5	75 d9		 jne	 SHORT $LL90@Render
$LN9@Render:
  000c7	5f		 pop	 edi

; 380  : 	}
; 381  : }

  000c8	5e		 pop	 esi
  000c9	5b		 pop	 ebx
  000ca	8b e5		 mov	 esp, ebp
  000cc	5d		 pop	 ebp
  000cd	c3		 ret	 0
?Render@CPythonTextTail@@QAEXXZ ENDP			; CPythonTextTail::Render
_TEXT	ENDS
; Function compile flags: /Ogtp
; File D:\Metin2 Server Files\mainline\SRC_2014\Metin2Client\UserInterface\PythonTextTail.cpp
; File C:\Program Files (x86)\Microsoft Visual Studio\2019\Community\VC\Tools\MSVC\14.28.29333\include\list
; File D:\Metin2 Server Files\mainline\SRC_2014\Metin2Client\UserInterface\PythonTextTail.cpp
; File C:\Program Files (x86)\Microsoft Visual Studio\2019\Community\VC\Tools\MSVC\14.28.29333\include\list
; File D:\Metin2 Server Files\mainline\SRC_2014\Metin2Client\UserInterface\PythonTextTail.cpp
; File C:\Program Files (x86)\Microsoft Visual Studio\2019\Community\VC\Tools\MSVC\14.28.29333\include\xtree
; File D:\Metin2 Server Files\mainline\SRC_2014\Metin2Client\UserInterface\PythonTextTail.cpp
; File C:\Program Files (x86)\Microsoft Visual Studio\2019\Community\VC\Tools\MSVC\14.28.29333\include\xtree
; File D:\Metin2 Server Files\mainline\SRC_2014\Metin2Client\UserInterface\PythonTextTail.cpp
; File C:\Program Files (x86)\Microsoft Visual Studio\2019\Community\VC\Tools\MSVC\14.28.29333\include\list
; File D:\Metin2 Server Files\mainline\SRC_2014\Metin2Client\UserInterface\PythonTextTail.cpp
; File C:\Program Files (x86)\Microsoft Visual Studio\2019\Community\VC\Tools\MSVC\14.28.29333\include\xtree
; File D:\Metin2 Server Files\mainline\SRC_2014\Metin2Client\UserInterface\PythonTextTail.cpp
; File C:\Program Files (x86)\Microsoft Visual Studio\2019\Community\VC\Tools\MSVC\14.28.29333\include\xtree
; File D:\Metin2 Server Files\mainline\SRC_2014\Metin2Client\UserInterface\PythonTextTail.cpp
; File C:\Program Files (x86)\Microsoft Visual Studio\2019\Community\VC\Tools\MSVC\14.28.29333\include\xtree
; File C:\Program Files (x86)\Microsoft Visual Studio\2019\Community\VC\Tools\MSVC\14.28.29333\include\xstddef
; File C:\Program Files (x86)\Microsoft Visual Studio\2019\Community\VC\Tools\MSVC\14.28.29333\include\xtree
; File D:\Metin2 Server Files\mainline\SRC_2014\Metin2Client\UserInterface\PythonTextTail.cpp
; File C:\Program Files (x86)\Microsoft Visual Studio\2019\Community\VC\Tools\MSVC\14.28.29333\include\list
; File D:\Metin2 Server Files\mainline\SRC_2014\Metin2Client\UserInterface\PythonTextTail.cpp
;	COMDAT ?UpdateShowingTextTail@CPythonTextTail@@QAEXXZ
_TEXT	SEGMENT
__Loc$1 = -20						; size = 12
__Keyval$1$ = -8					; size = 4
_pTextTail$1$ = -4					; size = 4
_itorChat$2 = -4					; size = 4
?UpdateShowingTextTail@CPythonTextTail@@QAEXXZ PROC	; CPythonTextTail::UpdateShowingTextTail, COMDAT
; _this$ = ecx

; 89   : {

  00000	55		 push	 ebp
  00001	8b ec		 mov	 ebp, esp
  00003	83 ec 14	 sub	 esp, 20			; 00000014H
  00006	53		 push	 ebx
  00007	56		 push	 esi
  00008	57		 push	 edi
  00009	8b f9		 mov	 edi, ecx
; File C:\Program Files (x86)\Microsoft Visual Studio\2019\Community\VC\Tools\MSVC\14.28.29333\include\list

; 1092 :         return iterator(_Mypair._Myval2._Myhead->_Next, _STD addressof(_Mypair._Myval2));

  0000b	8b 47 24	 mov	 eax, DWORD PTR [edi+36]

; 39   :     _List_unchecked_const_iterator(_Nodeptr _Pnode, const _Mylist* _Plist) noexcept : _Ptr(_Pnode) {

  0000e	8b 30		 mov	 esi, DWORD PTR [eax]
  00010	3b f0		 cmp	 esi, eax
; File D:\Metin2 Server Files\mainline\SRC_2014\Metin2Client\UserInterface\PythonTextTail.cpp

; 92   : 	for (itor = m_ItemTextTailList.begin(); itor != m_ItemTextTailList.end(); ++itor)

  00012	74 11		 je	 SHORT $LN3@UpdateShow
$LL31@UpdateShow:

; 93   : 	{
; 94   : 		UpdateTextTail(*itor);

  00014	ff 76 08	 push	 DWORD PTR [esi+8]
  00017	8b cf		 mov	 ecx, edi
  00019	e8 00 00 00 00	 call	 ?UpdateTextTail@CPythonTextTail@@IAEXPAUSTextTail@1@@Z ; CPythonTextTail::UpdateTextTail
; File C:\Program Files (x86)\Microsoft Visual Studio\2019\Community\VC\Tools\MSVC\14.28.29333\include\list

; 166  :         this->_Ptr = this->_Ptr->_Next;

  0001e	8b 36		 mov	 esi, DWORD PTR [esi]

; 199  :         return this->_Ptr == _Right._Ptr;

  00020	3b 77 24	 cmp	 esi, DWORD PTR [edi+36]
; File D:\Metin2 Server Files\mainline\SRC_2014\Metin2Client\UserInterface\PythonTextTail.cpp

; 92   : 	for (itor = m_ItemTextTailList.begin(); itor != m_ItemTextTailList.end(); ++itor)

  00023	75 ef		 jne	 SHORT $LL31@UpdateShow
$LN3@UpdateShow:
; File C:\Program Files (x86)\Microsoft Visual Studio\2019\Community\VC\Tools\MSVC\14.28.29333\include\xtree

; 1240 :         return iterator(_Scary->_Myhead->_Left, _Scary);

  00025	8b 4f 14	 mov	 ecx, DWORD PTR [edi+20]

; 39   :     _Tree_unchecked_const_iterator(_Nodeptr _Pnode, const _Mytree* _Plist) noexcept : _Ptr(_Pnode) {

  00028	8b 01		 mov	 eax, DWORD PTR [ecx]
  0002a	89 45 fc	 mov	 DWORD PTR _itorChat$2[ebp], eax
  0002d	3b c1		 cmp	 eax, ecx
; File D:\Metin2 Server Files\mainline\SRC_2014\Metin2Client\UserInterface\PythonTextTail.cpp

; 97   : 	for (TChatTailMap::iterator itorChat=m_ChatTailMap.begin(); itorChat!=m_ChatTailMap.end(); ++itorChat)

  0002f	74 1a		 je	 SHORT $LN6@UpdateShow
$LL59@UpdateShow:

; 98   : 	{
; 99   : 		UpdateTextTail(itorChat->second);

  00031	ff 70 14	 push	 DWORD PTR [eax+20]
  00034	8b cf		 mov	 ecx, edi
  00036	e8 00 00 00 00	 call	 ?UpdateTextTail@CPythonTextTail@@IAEXPAUSTextTail@1@@Z ; CPythonTextTail::UpdateTextTail
; File C:\Program Files (x86)\Microsoft Visual Studio\2019\Community\VC\Tools\MSVC\14.28.29333\include\xtree

; 198  :         _Mybase::operator++();

  0003b	8d 4d fc	 lea	 ecx, DWORD PTR _itorChat$2[ebp]
  0003e	e8 00 00 00 00	 call	 ??E?$_Tree_unchecked_const_iterator@V?$_Tree_val@U?$_Tree_simple_types@U?$pair@$$CBKPAUSTextTail@CPythonTextTail@@@std@@@std@@@std@@U_Iterator_base0@2@@std@@QAEAAV01@XZ ; std::_Tree_unchecked_const_iterator<std::_Tree_val<std::_Tree_simple_types<std::pair<unsigned long const ,CPythonTextTail::STextTail *> > >,std::_Iterator_base0>::operator++

; 232  :         return this->_Ptr == _Right._Ptr;

  00043	8b 45 fc	 mov	 eax, DWORD PTR _itorChat$2[ebp]
  00046	3b 47 14	 cmp	 eax, DWORD PTR [edi+20]
; File D:\Metin2 Server Files\mainline\SRC_2014\Metin2Client\UserInterface\PythonTextTail.cpp

; 97   : 	for (TChatTailMap::iterator itorChat=m_ChatTailMap.begin(); itorChat!=m_ChatTailMap.end(); ++itorChat)

  00049	75 e6		 jne	 SHORT $LL59@UpdateShow
$LN6@UpdateShow:
; File C:\Program Files (x86)\Microsoft Visual Studio\2019\Community\VC\Tools\MSVC\14.28.29333\include\list

; 1092 :         return iterator(_Mypair._Myval2._Myhead->_Next, _STD addressof(_Mypair._Myval2));

  0004b	8b 47 1c	 mov	 eax, DWORD PTR [edi+28]

; 39   :     _List_unchecked_const_iterator(_Nodeptr _Pnode, const _Mylist* _Plist) noexcept : _Ptr(_Pnode) {

  0004e	8b 30		 mov	 esi, DWORD PTR [eax]
  00050	3b f0		 cmp	 esi, eax
; File D:\Metin2 Server Files\mainline\SRC_2014\Metin2Client\UserInterface\PythonTextTail.cpp

; 102  : 	for (itor = m_CharacterTextTailList.begin(); itor != m_CharacterTextTailList.end(); ++itor)

  00052	74 61		 je	 SHORT $LN9@UpdateShow
$LL89@UpdateShow:

; 103  : 	{
; 104  : 		TTextTail * pTextTail = *itor;

  00054	8b 46 08	 mov	 eax, DWORD PTR [esi+8]

; 105  : 		UpdateTextTail(pTextTail);

  00057	8b cf		 mov	 ecx, edi
  00059	50		 push	 eax
  0005a	89 45 fc	 mov	 DWORD PTR _pTextTail$1$[ebp], eax
  0005d	e8 00 00 00 00	 call	 ?UpdateTextTail@CPythonTextTail@@IAEXPAUSTextTail@1@@Z ; CPythonTextTail::UpdateTextTail

; 108  : 		TChatTailMap::iterator itor = m_ChatTailMap.find(pTextTail->dwVirtualID);

  00062	8b 45 fc	 mov	 eax, DWORD PTR _pTextTail$1$[ebp]
; File C:\Program Files (x86)\Microsoft Visual Studio\2019\Community\VC\Tools\MSVC\14.28.29333\include\xtree

; 1458 :         const _Tree_find_result<_Nodeptr> _Loc = _Find_lower_bound(_Keyval);

  00065	8d 4f 14	 lea	 ecx, DWORD PTR [edi+20]
; File D:\Metin2 Server Files\mainline\SRC_2014\Metin2Client\UserInterface\PythonTextTail.cpp

; 108  : 		TChatTailMap::iterator itor = m_ChatTailMap.find(pTextTail->dwVirtualID);

  00068	83 c0 20	 add	 eax, 32			; 00000020H
; File C:\Program Files (x86)\Microsoft Visual Studio\2019\Community\VC\Tools\MSVC\14.28.29333\include\xtree

; 1458 :         const _Tree_find_result<_Nodeptr> _Loc = _Find_lower_bound(_Keyval);

  0006b	50		 push	 eax
; File D:\Metin2 Server Files\mainline\SRC_2014\Metin2Client\UserInterface\PythonTextTail.cpp

; 108  : 		TChatTailMap::iterator itor = m_ChatTailMap.find(pTextTail->dwVirtualID);

  0006c	89 45 f8	 mov	 DWORD PTR __Keyval$1$[ebp], eax
; File C:\Program Files (x86)\Microsoft Visual Studio\2019\Community\VC\Tools\MSVC\14.28.29333\include\xtree

; 1458 :         const _Tree_find_result<_Nodeptr> _Loc = _Find_lower_bound(_Keyval);

  0006f	8d 45 ec	 lea	 eax, DWORD PTR __Loc$1[ebp]
  00072	50		 push	 eax
  00073	e8 00 00 00 00	 call	 ??$_Find_lower_bound@K@?$_Tree@V?$_Tmap_traits@KPAUSTextTail@CPythonTextTail@@U?$less@K@std@@V?$allocator@U?$pair@$$CBKPAUSTextTail@CPythonTextTail@@@std@@@4@$0A@@std@@@std@@IBE?AU?$_Tree_find_result@PAU?$_Tree_node@U?$pair@$$CBKPAUSTextTail@CPythonTextTail@@@std@@PAX@std@@@1@ABK@Z ; std::_Tree<std::_Tmap_traits<unsigned long,CPythonTextTail::STextTail *,std::less<unsigned long>,std::allocator<std::pair<unsigned long const ,CPythonTextTail::STextTail *> >,0> >::_Find_lower_bound<unsigned long>

; 1695 :         return !_Bound->_Isnil && !_DEBUG_LT_PRED(_Getcomp(), _Keyval, _Traits::_Kfn(_Bound->_Myval));

  00078	8b 4d f4	 mov	 ecx, DWORD PTR __Loc$1[ebp+8]
  0007b	80 79 0d 00	 cmp	 BYTE PTR [ecx+13], 0
  0007f	75 2d		 jne	 SHORT $LN8@UpdateShow
; File C:\Program Files (x86)\Microsoft Visual Studio\2019\Community\VC\Tools\MSVC\14.28.29333\include\xstddef

; 127  :         return _Left < _Right;

  00081	8b 45 f8	 mov	 eax, DWORD PTR __Keyval$1$[ebp]
  00084	8b 00		 mov	 eax, DWORD PTR [eax]
  00086	3b 41 10	 cmp	 eax, DWORD PTR [ecx+16]
; File C:\Program Files (x86)\Microsoft Visual Studio\2019\Community\VC\Tools\MSVC\14.28.29333\include\xtree

; 1695 :         return !_Bound->_Isnil && !_DEBUG_LT_PRED(_Getcomp(), _Keyval, _Traits::_Kfn(_Bound->_Myval));

  00089	72 23		 jb	 SHORT $LN8@UpdateShow

; 39   :     _Tree_unchecked_const_iterator(_Nodeptr _Pnode, const _Mytree* _Plist) noexcept : _Ptr(_Pnode) {

  0008b	39 4f 14	 cmp	 DWORD PTR [edi+20], ecx
; File D:\Metin2 Server Files\mainline\SRC_2014\Metin2Client\UserInterface\PythonTextTail.cpp

; 109  : 		if (m_ChatTailMap.end() != itor)

  0008e	74 1e		 je	 SHORT $LN8@UpdateShow

; 110  : 		{
; 111  : 			TTextTail * pChatTail = itor->second;

  00090	8b 41 14	 mov	 eax, DWORD PTR [ecx+20]

; 112  : 			if (pChatTail->bNameFlag)

  00093	83 78 44 00	 cmp	 DWORD PTR [eax+68], 0
  00097	74 15		 je	 SHORT $LN8@UpdateShow

; 113  : 			{
; 114  : 				pTextTail->y = pChatTail->y - 17.0f;

  00099	f3 0f 10 40 28	 movss	 xmm0, DWORD PTR [eax+40]
  0009e	f3 0f 5c 05 00
	00 00 00	 subss	 xmm0, DWORD PTR __real@41880000
  000a6	8b 45 fc	 mov	 eax, DWORD PTR _pTextTail$1$[ebp]
  000a9	f3 0f 11 40 28	 movss	 DWORD PTR [eax+40], xmm0
$LN8@UpdateShow:
; File C:\Program Files (x86)\Microsoft Visual Studio\2019\Community\VC\Tools\MSVC\14.28.29333\include\list

; 166  :         this->_Ptr = this->_Ptr->_Next;

  000ae	8b 36		 mov	 esi, DWORD PTR [esi]

; 199  :         return this->_Ptr == _Right._Ptr;

  000b0	3b 77 1c	 cmp	 esi, DWORD PTR [edi+28]
; File D:\Metin2 Server Files\mainline\SRC_2014\Metin2Client\UserInterface\PythonTextTail.cpp

; 102  : 	for (itor = m_CharacterTextTailList.begin(); itor != m_CharacterTextTailList.end(); ++itor)

  000b3	75 9f		 jne	 SHORT $LL89@UpdateShow
$LN9@UpdateShow:
  000b5	5f		 pop	 edi

; 115  : 			}
; 116  : 		}
; 117  : 	}
; 118  : }

  000b6	5e		 pop	 esi
  000b7	5b		 pop	 ebx
  000b8	8b e5		 mov	 esp, ebp
  000ba	5d		 pop	 ebp
  000bb	c3		 ret	 0
?UpdateShowingTextTail@CPythonTextTail@@QAEXXZ ENDP	; CPythonTextTail::UpdateShowingTextTail
_TEXT	ENDS
; Function compile flags: /Ogtp
; File D:\Metin2 Server Files\mainline\SRC_2014\Metin2Client\UserInterface\PythonTextTail.cpp
; File C:\Program Files (x86)\Microsoft Visual Studio\2019\Community\VC\Tools\MSVC\14.28.29333\include\xtree
; File D:\Metin2 Server Files\mainline\SRC_2014\Metin2Client\UserInterface\PythonTextTail.cpp
; File C:\Program Files (x86)\Microsoft Visual Studio\2019\Community\VC\Tools\MSVC\14.28.29333\include\xtree
; File D:\Metin2 Server Files\mainline\SRC_2014\Metin2Client\UserInterface\PythonTextTail.cpp
; File C:\Program Files (x86)\Microsoft Visual Studio\2019\Community\VC\Tools\MSVC\14.28.29333\include\xtree
; File D:\Metin2 Server Files\mainline\SRC_2014\Metin2Client\UserInterface\PythonTextTail.cpp
; File C:\Program Files (x86)\Microsoft Visual Studio\2019\Community\VC\Tools\MSVC\14.28.29333\include\xtree
; File D:\Metin2 Server Files\mainline\SRC_2014\Metin2Client\UserInterface\PythonTextTail.cpp
; File C:\Program Files (x86)\Microsoft Visual Studio\2019\Community\VC\Tools\MSVC\14.28.29333\include\xtree
; File D:\Metin2 Server Files\mainline\SRC_2014\Metin2Client\UserInterface\PythonTextTail.cpp
; File C:\Program Files (x86)\Microsoft Visual Studio\2019\Community\VC\Tools\MSVC\14.28.29333\include\xtree
; File D:\Metin2 Server Files\mainline\SRC_2014\Metin2Client\UserInterface\PythonTextTail.cpp
;	COMDAT ?UpdateAllTextTail@CPythonTextTail@@QAEXXZ
_TEXT	SEGMENT
_itorChat$1 = -20					; size = 4
_itorMap$2 = -20					; size = 4
_pixelPos$3 = -16					; size = 12
__$ArrayPad$ = -4					; size = 4
?UpdateAllTextTail@CPythonTextTail@@QAEXXZ PROC		; CPythonTextTail::UpdateAllTextTail, COMDAT
; _this$ = ecx

; 55   : {

  00000	55		 push	 ebp
  00001	8b ec		 mov	 ebp, esp
  00003	83 ec 14	 sub	 esp, 20			; 00000014H
  00006	a1 00 00 00 00	 mov	 eax, DWORD PTR ___security_cookie
  0000b	33 c5		 xor	 eax, ebp
  0000d	89 45 fc	 mov	 DWORD PTR __$ArrayPad$[ebp], eax
  00010	57		 push	 edi
  00011	8b f9		 mov	 edi, ecx

; 56   : 	CInstanceBase * pInstance = CPythonCharacterManager::Instance().GetMainInstancePtr();

  00013	8b 0d 00 00 00
	00		 mov	 ecx, DWORD PTR ?ms_singleton@?$CSingleton@VCPythonCharacterManager@@@@0PAVCPythonCharacterManager@@A ; CSingleton<CPythonCharacterManager>::ms_singleton
  00019	e8 00 00 00 00	 call	 ?GetMainInstancePtr@CPythonCharacterManager@@QAEPAVCInstanceBase@@XZ ; CPythonCharacterManager::GetMainInstancePtr

; 57   : 	if (pInstance)

  0001e	85 c0		 test	 eax, eax
  00020	0f 84 ac 00 00
	00		 je	 $LN9@UpdateAllT

; 58   : 	{
; 59   : 		TPixelPosition pixelPos;
; 60   : 		pInstance->NEW_GetPixelPosition(&pixelPos);

  00026	8d 4d f0	 lea	 ecx, DWORD PTR _pixelPos$3[ebp]
  00029	51		 push	 ecx
  0002a	8b c8		 mov	 ecx, eax
  0002c	e8 00 00 00 00	 call	 ?NEW_GetPixelPosition@CInstanceBase@@QAEXPAUD3DXVECTOR3@@@Z ; CInstanceBase::NEW_GetPixelPosition
; File C:\Program Files (x86)\Microsoft Visual Studio\2019\Community\VC\Tools\MSVC\14.28.29333\include\xtree

; 1240 :         return iterator(_Scary->_Myhead->_Left, _Scary);

  00031	8b 4f 04	 mov	 ecx, DWORD PTR [edi+4]

; 39   :     _Tree_unchecked_const_iterator(_Nodeptr _Pnode, const _Mytree* _Plist) noexcept : _Ptr(_Pnode) {

  00034	8b 01		 mov	 eax, DWORD PTR [ecx]
; File D:\Metin2 Server Files\mainline\SRC_2014\Metin2Client\UserInterface\PythonTextTail.cpp

; 64   : 		for (itorMap = m_CharacterTextTailMap.begin(); itorMap != m_CharacterTextTailMap.end(); ++itorMap)

  00036	89 45 ec	 mov	 DWORD PTR _itorMap$2[ebp], eax
  00039	3b c1		 cmp	 eax, ecx
  0003b	74 21		 je	 SHORT $LN3@UpdateAllT
  0003d	0f 1f 00	 npad	 3
$LL31@UpdateAllT:

; 65   : 		{
; 66   : 			UpdateDistance(pixelPos, itorMap->second);

  00040	ff 70 14	 push	 DWORD PTR [eax+20]
  00043	8d 45 f0	 lea	 eax, DWORD PTR _pixelPos$3[ebp]
  00046	8b cf		 mov	 ecx, edi
  00048	50		 push	 eax
  00049	e8 00 00 00 00	 call	 ?UpdateDistance@CPythonTextTail@@IAEXABUD3DXVECTOR3@@PAUSTextTail@1@@Z ; CPythonTextTail::UpdateDistance
; File C:\Program Files (x86)\Microsoft Visual Studio\2019\Community\VC\Tools\MSVC\14.28.29333\include\xtree

; 198  :         _Mybase::operator++();

  0004e	8d 4d ec	 lea	 ecx, DWORD PTR _itorMap$2[ebp]
  00051	e8 00 00 00 00	 call	 ??E?$_Tree_unchecked_const_iterator@V?$_Tree_val@U?$_Tree_simple_types@U?$pair@$$CBKPAUSTextTail@CPythonTextTail@@@std@@@std@@@std@@U_Iterator_base0@2@@std@@QAEAAV01@XZ ; std::_Tree_unchecked_const_iterator<std::_Tree_val<std::_Tree_simple_types<std::pair<unsigned long const ,CPythonTextTail::STextTail *> > >,std::_Iterator_base0>::operator++

; 232  :         return this->_Ptr == _Right._Ptr;

  00056	8b 45 ec	 mov	 eax, DWORD PTR _itorMap$2[ebp]
  00059	3b 47 04	 cmp	 eax, DWORD PTR [edi+4]
; File D:\Metin2 Server Files\mainline\SRC_2014\Metin2Client\UserInterface\PythonTextTail.cpp

; 64   : 		for (itorMap = m_CharacterTextTailMap.begin(); itorMap != m_CharacterTextTailMap.end(); ++itorMap)

  0005c	75 e2		 jne	 SHORT $LL31@UpdateAllT
$LN3@UpdateAllT:
; File C:\Program Files (x86)\Microsoft Visual Studio\2019\Community\VC\Tools\MSVC\14.28.29333\include\xtree

; 1240 :         return iterator(_Scary->_Myhead->_Left, _Scary);

  0005e	8b 4f 0c	 mov	 ecx, DWORD PTR [edi+12]

; 39   :     _Tree_unchecked_const_iterator(_Nodeptr _Pnode, const _Mytree* _Plist) noexcept : _Ptr(_Pnode) {

  00061	8b 01		 mov	 eax, DWORD PTR [ecx]
; File D:\Metin2 Server Files\mainline\SRC_2014\Metin2Client\UserInterface\PythonTextTail.cpp

; 69   : 		for (itorMap = m_ItemTextTailMap.begin(); itorMap != m_ItemTextTailMap.end(); ++itorMap)

  00063	89 45 ec	 mov	 DWORD PTR _itorMap$2[ebp], eax
  00066	3b c1		 cmp	 eax, ecx
  00068	74 24		 je	 SHORT $LN6@UpdateAllT
  0006a	66 0f 1f 44 00
	00		 npad	 6
$LL61@UpdateAllT:

; 70   : 		{
; 71   : 			UpdateDistance(pixelPos, itorMap->second);

  00070	ff 70 14	 push	 DWORD PTR [eax+20]
  00073	8d 45 f0	 lea	 eax, DWORD PTR _pixelPos$3[ebp]
  00076	8b cf		 mov	 ecx, edi
  00078	50		 push	 eax
  00079	e8 00 00 00 00	 call	 ?UpdateDistance@CPythonTextTail@@IAEXABUD3DXVECTOR3@@PAUSTextTail@1@@Z ; CPythonTextTail::UpdateDistance
; File C:\Program Files (x86)\Microsoft Visual Studio\2019\Community\VC\Tools\MSVC\14.28.29333\include\xtree

; 198  :         _Mybase::operator++();

  0007e	8d 4d ec	 lea	 ecx, DWORD PTR _itorMap$2[ebp]
  00081	e8 00 00 00 00	 call	 ??E?$_Tree_unchecked_const_iterator@V?$_Tree_val@U?$_Tree_simple_types@U?$pair@$$CBKPAUSTextTail@CPythonTextTail@@@std@@@std@@@std@@U_Iterator_base0@2@@std@@QAEAAV01@XZ ; std::_Tree_unchecked_const_iterator<std::_Tree_val<std::_Tree_simple_types<std::pair<unsigned long const ,CPythonTextTail::STextTail *> > >,std::_Iterator_base0>::operator++

; 232  :         return this->_Ptr == _Right._Ptr;

  00086	8b 45 ec	 mov	 eax, DWORD PTR _itorMap$2[ebp]
  00089	3b 47 0c	 cmp	 eax, DWORD PTR [edi+12]
; File D:\Metin2 Server Files\mainline\SRC_2014\Metin2Client\UserInterface\PythonTextTail.cpp

; 69   : 		for (itorMap = m_ItemTextTailMap.begin(); itorMap != m_ItemTextTailMap.end(); ++itorMap)

  0008c	75 e2		 jne	 SHORT $LL61@UpdateAllT
$LN6@UpdateAllT:
; File C:\Program Files (x86)\Microsoft Visual Studio\2019\Community\VC\Tools\MSVC\14.28.29333\include\xtree

; 1240 :         return iterator(_Scary->_Myhead->_Left, _Scary);

  0008e	8b 47 14	 mov	 eax, DWORD PTR [edi+20]
  00091	56		 push	 esi

; 39   :     _Tree_unchecked_const_iterator(_Nodeptr _Pnode, const _Mytree* _Plist) noexcept : _Ptr(_Pnode) {

  00092	8b 30		 mov	 esi, DWORD PTR [eax]
  00094	89 75 ec	 mov	 DWORD PTR _itorChat$1[ebp], esi
  00097	3b f0		 cmp	 esi, eax
; File D:\Metin2 Server Files\mainline\SRC_2014\Metin2Client\UserInterface\PythonTextTail.cpp

; 74   : 		for (TChatTailMap::iterator itorChat=m_ChatTailMap.begin(); itorChat!=m_ChatTailMap.end(); ++itorChat)

  00099	74 36		 je	 SHORT $LN134@UpdateAllT
  0009b	0f 1f 44 00 00	 npad	 5
$LL91@UpdateAllT:

; 75   : 		{
; 76   : 			UpdateDistance(pixelPos, itorChat->second);

  000a0	ff 76 14	 push	 DWORD PTR [esi+20]
  000a3	8d 45 f0	 lea	 eax, DWORD PTR _pixelPos$3[ebp]
  000a6	8b cf		 mov	 ecx, edi
  000a8	50		 push	 eax
  000a9	e8 00 00 00 00	 call	 ?UpdateDistance@CPythonTextTail@@IAEXABUD3DXVECTOR3@@PAUSTextTail@1@@Z ; CPythonTextTail::UpdateDistance

; 77   : 
; 78   : 			// NOTE : Chat TextTail    .
; 79   : 			if (itorChat->second->bNameFlag)

  000ae	8b 46 14	 mov	 eax, DWORD PTR [esi+20]
  000b1	83 78 44 00	 cmp	 DWORD PTR [eax+68], 0
  000b5	74 0a		 je	 SHORT $LN8@UpdateAllT

; 80   : 			{
; 81   : 				DWORD dwVID = itorChat->first;
; 82   : 				ShowCharacterTextTail(dwVID);

  000b7	ff 76 10	 push	 DWORD PTR [esi+16]
  000ba	8b cf		 mov	 ecx, edi
  000bc	e8 00 00 00 00	 call	 ?ShowCharacterTextTail@CPythonTextTail@@QAEXK@Z ; CPythonTextTail::ShowCharacterTextTail
$LN8@UpdateAllT:
; File C:\Program Files (x86)\Microsoft Visual Studio\2019\Community\VC\Tools\MSVC\14.28.29333\include\xtree

; 198  :         _Mybase::operator++();

  000c1	8d 4d ec	 lea	 ecx, DWORD PTR _itorChat$1[ebp]
  000c4	e8 00 00 00 00	 call	 ??E?$_Tree_unchecked_const_iterator@V?$_Tree_val@U?$_Tree_simple_types@U?$pair@$$CBKPAUSTextTail@CPythonTextTail@@@std@@@std@@@std@@U_Iterator_base0@2@@std@@QAEAAV01@XZ ; std::_Tree_unchecked_const_iterator<std::_Tree_val<std::_Tree_simple_types<std::pair<unsigned long const ,CPythonTextTail::STextTail *> > >,std::_Iterator_base0>::operator++

; 232  :         return this->_Ptr == _Right._Ptr;

  000c9	8b 75 ec	 mov	 esi, DWORD PTR _itorChat$1[ebp]
  000cc	3b 77 14	 cmp	 esi, DWORD PTR [edi+20]
; File D:\Metin2 Server Files\mainline\SRC_2014\Metin2Client\UserInterface\PythonTextTail.cpp

; 74   : 		for (TChatTailMap::iterator itorChat=m_ChatTailMap.begin(); itorChat!=m_ChatTailMap.end(); ++itorChat)

  000cf	75 cf		 jne	 SHORT $LL91@UpdateAllT
$LN134@UpdateAllT:
  000d1	5e		 pop	 esi
$LN9@UpdateAllT:

; 83   : 			}
; 84   : 		}
; 85   : 	}
; 86   : }

  000d2	8b 4d fc	 mov	 ecx, DWORD PTR __$ArrayPad$[ebp]
  000d5	33 cd		 xor	 ecx, ebp
  000d7	5f		 pop	 edi
  000d8	e8 00 00 00 00	 call	 @__security_check_cookie@4
  000dd	8b e5		 mov	 esp, ebp
  000df	5d		 pop	 ebp
  000e0	c3		 ret	 0
?UpdateAllTextTail@CPythonTextTail@@QAEXXZ ENDP		; CPythonTextTail::UpdateAllTextTail
_TEXT	ENDS
; Function compile flags: /Ogtp
; File D:\Metin2 Server Files\mainline\SRC_2014\Metin2Client\UserInterface\PythonTextTail.cpp
; File C:\Program Files (x86)\Microsoft Visual Studio\2019\Community\VC\Tools\MSVC\14.28.29333\include\list
; File C:\Program Files (x86)\Microsoft Visual Studio\2019\Community\VC\Tools\MSVC\14.28.29333\include\xmemory
; File C:\Program Files (x86)\Microsoft Visual Studio\2019\Community\VC\Tools\MSVC\14.28.29333\include\list
; File D:\Metin2 Server Files\mainline\SRC_2014\Metin2Client\UserInterface\PythonTextTail.cpp
; File C:\Program Files (x86)\Microsoft Visual Studio\2019\Community\VC\Tools\MSVC\14.28.29333\include\list
; File D:\Metin2 Server Files\mainline\SRC_2014\Metin2Client\UserInterface\PythonTextTail.cpp
; File C:\Program Files (x86)\Microsoft Visual Studio\2019\Community\VC\Tools\MSVC\14.28.29333\include\list
; File C:\Program Files (x86)\Microsoft Visual Studio\2019\Community\VC\Tools\MSVC\14.28.29333\include\xmemory
; File C:\Program Files (x86)\Microsoft Visual Studio\2019\Community\VC\Tools\MSVC\14.28.29333\include\list
; File D:\Metin2 Server Files\mainline\SRC_2014\Metin2Client\UserInterface\PythonTextTail.cpp
; File C:\Program Files (x86)\Microsoft Visual Studio\2019\Community\VC\Tools\MSVC\14.28.29333\include\list
; File D:\Metin2 Server Files\mainline\SRC_2014\Metin2Client\UserInterface\PythonTextTail.cpp
; File C:\Program Files (x86)\Microsoft Visual Studio\2019\Community\VC\Tools\MSVC\14.28.29333\include\vector
; File C:\Program Files (x86)\Microsoft Visual Studio\2019\Community\VC\Tools\MSVC\14.28.29333\include\algorithm
; File D:\Metin2 Server Files\mainline\SRC_2014\Metin2Client\eterLib\Pool.h
; File C:\Program Files (x86)\Microsoft Visual Studio\2019\Community\VC\Tools\MSVC\14.28.29333\include\algorithm
; File D:\Metin2 Server Files\mainline\SRC_2014\Metin2Client\eterLib\Pool.h
; File D:\Metin2 Server Files\mainline\SRC_2014\Metin2Client\UserInterface\PythonTextTail.cpp
;	COMDAT ?Clear@CPythonTextTail@@QAEXXZ
_TEXT	SEGMENT
?Clear@CPythonTextTail@@QAEXXZ PROC			; CPythonTextTail::Clear, COMDAT
; _this$ = ecx

; 1010 : {

  00000	53		 push	 ebx
  00001	56		 push	 esi
  00002	57		 push	 edi
  00003	8b f9		 mov	 edi, ecx

; 1011 : 	m_CharacterTextTailMap.clear();

  00005	8d 4f 04	 lea	 ecx, DWORD PTR [edi+4]
  00008	e8 00 00 00 00	 call	 ?clear@?$_Tree@V?$_Tmap_traits@KPAUSTextTail@CPythonTextTail@@U?$less@K@std@@V?$allocator@U?$pair@$$CBKPAUSTextTail@CPythonTextTail@@@std@@@4@$0A@@std@@@std@@QAEXXZ ; std::_Tree<std::_Tmap_traits<unsigned long,CPythonTextTail::STextTail *,std::less<unsigned long>,std::allocator<std::pair<unsigned long const ,CPythonTextTail::STextTail *> >,0> >::clear
; File C:\Program Files (x86)\Microsoft Visual Studio\2019\Community\VC\Tools\MSVC\14.28.29333\include\list

; 1429 :         _Node::_Free_non_head(_Getal(), _My_data._Myhead);

  0000d	8b 57 1c	 mov	 edx, DWORD PTR [edi+28]

; 324  :         _Head->_Prev->_Next = nullptr;

  00010	8b 42 04	 mov	 eax, DWORD PTR [edx+4]
  00013	c7 00 00 00 00
	00		 mov	 DWORD PTR [eax], 0

; 325  : 
; 326  :         auto _Pnode = _Head->_Next;

  00019	8b 02		 mov	 eax, DWORD PTR [edx]

; 327  :         for (_Nodeptr _Pnext; _Pnode; _Pnode = _Pnext) {

  0001b	85 c0		 test	 eax, eax
  0001d	74 14		 je	 SHORT $LN7@Clear
  0001f	90		 npad	 1
$LL8@Clear:

; 328  :             _Pnext = _Pnode->_Next;

  00020	8b 30		 mov	 esi, DWORD PTR [eax]
; File C:\Program Files (x86)\Microsoft Visual Studio\2019\Community\VC\Tools\MSVC\14.28.29333\include\xmemory

; 696  :         _Deallocate<_New_alignof<value_type>>(_Ptr, sizeof(value_type) * _Count);

  00022	6a 0c		 push	 12			; 0000000cH
  00024	50		 push	 eax
  00025	e8 00 00 00 00	 call	 ??$_Deallocate@$07$0A@@std@@YAXPAXI@Z ; std::_Deallocate<8,0>
  0002a	83 c4 08	 add	 esp, 8
; File C:\Program Files (x86)\Microsoft Visual Studio\2019\Community\VC\Tools\MSVC\14.28.29333\include\list

; 327  :         for (_Nodeptr _Pnext; _Pnode; _Pnode = _Pnext) {

  0002d	8b c6		 mov	 eax, esi
  0002f	85 f6		 test	 esi, esi
  00031	75 ed		 jne	 SHORT $LL8@Clear
$LN7@Clear:

; 1430 :         _My_data._Myhead->_Next = _My_data._Myhead;

  00033	8b 47 1c	 mov	 eax, DWORD PTR [edi+28]
; File D:\Metin2 Server Files\mainline\SRC_2014\Metin2Client\UserInterface\PythonTextTail.cpp

; 1013 : 	m_ItemTextTailMap.clear();

  00036	8d 4f 0c	 lea	 ecx, DWORD PTR [edi+12]
; File C:\Program Files (x86)\Microsoft Visual Studio\2019\Community\VC\Tools\MSVC\14.28.29333\include\list

; 1430 :         _My_data._Myhead->_Next = _My_data._Myhead;

  00039	89 00		 mov	 DWORD PTR [eax], eax

; 1431 :         _My_data._Myhead->_Prev = _My_data._Myhead;

  0003b	8b 47 1c	 mov	 eax, DWORD PTR [edi+28]
  0003e	89 40 04	 mov	 DWORD PTR [eax+4], eax

; 1432 :         _My_data._Mysize        = 0;

  00041	c7 47 20 00 00
	00 00		 mov	 DWORD PTR [edi+32], 0
; File D:\Metin2 Server Files\mainline\SRC_2014\Metin2Client\UserInterface\PythonTextTail.cpp

; 1013 : 	m_ItemTextTailMap.clear();

  00048	e8 00 00 00 00	 call	 ?clear@?$_Tree@V?$_Tmap_traits@KPAUSTextTail@CPythonTextTail@@U?$less@K@std@@V?$allocator@U?$pair@$$CBKPAUSTextTail@CPythonTextTail@@@std@@@4@$0A@@std@@@std@@QAEXXZ ; std::_Tree<std::_Tmap_traits<unsigned long,CPythonTextTail::STextTail *,std::less<unsigned long>,std::allocator<std::pair<unsigned long const ,CPythonTextTail::STextTail *> >,0> >::clear
; File C:\Program Files (x86)\Microsoft Visual Studio\2019\Community\VC\Tools\MSVC\14.28.29333\include\list

; 1429 :         _Node::_Free_non_head(_Getal(), _My_data._Myhead);

  0004d	8b 4f 24	 mov	 ecx, DWORD PTR [edi+36]

; 324  :         _Head->_Prev->_Next = nullptr;

  00050	8b 41 04	 mov	 eax, DWORD PTR [ecx+4]
  00053	c7 00 00 00 00
	00		 mov	 DWORD PTR [eax], 0

; 325  : 
; 326  :         auto _Pnode = _Head->_Next;

  00059	8b 01		 mov	 eax, DWORD PTR [ecx]

; 327  :         for (_Nodeptr _Pnext; _Pnode; _Pnode = _Pnext) {

  0005b	85 c0		 test	 eax, eax
  0005d	74 14		 je	 SHORT $LN20@Clear
  0005f	90		 npad	 1
$LL21@Clear:

; 328  :             _Pnext = _Pnode->_Next;

  00060	8b 30		 mov	 esi, DWORD PTR [eax]
; File C:\Program Files (x86)\Microsoft Visual Studio\2019\Community\VC\Tools\MSVC\14.28.29333\include\xmemory

; 696  :         _Deallocate<_New_alignof<value_type>>(_Ptr, sizeof(value_type) * _Count);

  00062	6a 0c		 push	 12			; 0000000cH
  00064	50		 push	 eax
  00065	e8 00 00 00 00	 call	 ??$_Deallocate@$07$0A@@std@@YAXPAXI@Z ; std::_Deallocate<8,0>
  0006a	83 c4 08	 add	 esp, 8
; File C:\Program Files (x86)\Microsoft Visual Studio\2019\Community\VC\Tools\MSVC\14.28.29333\include\list

; 327  :         for (_Nodeptr _Pnext; _Pnode; _Pnode = _Pnext) {

  0006d	8b c6		 mov	 eax, esi
  0006f	85 f6		 test	 esi, esi
  00071	75 ed		 jne	 SHORT $LL21@Clear
$LN20@Clear:

; 1430 :         _My_data._Myhead->_Next = _My_data._Myhead;

  00073	8b 47 24	 mov	 eax, DWORD PTR [edi+36]
; File D:\Metin2 Server Files\mainline\SRC_2014\Metin2Client\UserInterface\PythonTextTail.cpp

; 1015 : 	m_ChatTailMap.clear();

  00076	8d 4f 14	 lea	 ecx, DWORD PTR [edi+20]
; File C:\Program Files (x86)\Microsoft Visual Studio\2019\Community\VC\Tools\MSVC\14.28.29333\include\list

; 1430 :         _My_data._Myhead->_Next = _My_data._Myhead;

  00079	89 00		 mov	 DWORD PTR [eax], eax

; 1431 :         _My_data._Myhead->_Prev = _My_data._Myhead;

  0007b	8b 47 24	 mov	 eax, DWORD PTR [edi+36]
  0007e	89 40 04	 mov	 DWORD PTR [eax+4], eax

; 1432 :         _My_data._Mysize        = 0;

  00081	c7 47 28 00 00
	00 00		 mov	 DWORD PTR [edi+40], 0
; File D:\Metin2 Server Files\mainline\SRC_2014\Metin2Client\UserInterface\PythonTextTail.cpp

; 1015 : 	m_ChatTailMap.clear();

  00088	e8 00 00 00 00	 call	 ?clear@?$_Tree@V?$_Tmap_traits@KPAUSTextTail@CPythonTextTail@@U?$less@K@std@@V?$allocator@U?$pair@$$CBKPAUSTextTail@CPythonTextTail@@@std@@@4@$0A@@std@@@std@@QAEXXZ ; std::_Tree<std::_Tmap_traits<unsigned long,CPythonTextTail::STextTail *,std::less<unsigned long>,std::allocator<std::pair<unsigned long const ,CPythonTextTail::STextTail *> >,0> >::clear
; File C:\Program Files (x86)\Microsoft Visual Studio\2019\Community\VC\Tools\MSVC\14.28.29333\include\vector

; 42   :     _Vector_const_iterator(_Tptr _Parg, const _Container_base* _Pvector) noexcept : _Ptr(_Parg) {

  0008d	8b 5f 34	 mov	 ebx, DWORD PTR [edi+52]
  00090	8b 77 30	 mov	 esi, DWORD PTR [edi+48]
; File C:\Program Files (x86)\Microsoft Visual Studio\2019\Community\VC\Tools\MSVC\14.28.29333\include\algorithm

; 307  :     for (; _UFirst != _ULast; ++_UFirst) {

  00093	3b f3		 cmp	 esi, ebx
  00095	74 16		 je	 SHORT $LN47@Clear
$LL48@Clear:
; File D:\Metin2 Server Files\mainline\SRC_2014\Metin2Client\eterLib\Pool.h

; 110  : 			delete pkData;

  00097	8b 0e		 mov	 ecx, DWORD PTR [esi]
  00099	85 c9		 test	 ecx, ecx
  0009b	74 06		 je	 SHORT $LN46@Clear
  0009d	8b 01		 mov	 eax, DWORD PTR [ecx]
  0009f	6a 01		 push	 1
  000a1	ff 10		 call	 DWORD PTR [eax]
$LN46@Clear:
; File C:\Program Files (x86)\Microsoft Visual Studio\2019\Community\VC\Tools\MSVC\14.28.29333\include\algorithm

; 307  :     for (; _UFirst != _ULast; ++_UFirst) {

  000a3	83 c6 04	 add	 esi, 4
  000a6	3b f3		 cmp	 esi, ebx
  000a8	75 ed		 jne	 SHORT $LL48@Clear
  000aa	8b 77 30	 mov	 esi, DWORD PTR [edi+48]
$LN47@Clear:
; File D:\Metin2 Server Files\mainline\SRC_2014\Metin2Client\eterLib\Pool.h

; 52   : 			m_kVct_pkFree.clear();

  000ad	8b 47 3c	 mov	 eax, DWORD PTR [edi+60]
  000b0	89 77 34	 mov	 DWORD PTR [edi+52], esi
  000b3	89 47 40	 mov	 DWORD PTR [edi+64], eax
  000b6	5f		 pop	 edi
  000b7	5e		 pop	 esi
  000b8	5b		 pop	 ebx
; File D:\Metin2 Server Files\mainline\SRC_2014\Metin2Client\UserInterface\PythonTextTail.cpp

; 1018 : }

  000b9	c3		 ret	 0
?Clear@CPythonTextTail@@QAEXXZ ENDP			; CPythonTextTail::Clear
_TEXT	ENDS
; Function compile flags: /Ogtp
; File D:\Metin2 Server Files\mainline\SRC_2014\Metin2Client\UserInterface\PythonTextTail.cpp
; File C:\Program Files (x86)\Microsoft Visual Studio\2019\Community\VC\Tools\MSVC\14.28.29333\include\vector
; File C:\Program Files (x86)\Microsoft Visual Studio\2019\Community\VC\Tools\MSVC\14.28.29333\include\algorithm
; File D:\Metin2 Server Files\mainline\SRC_2014\Metin2Client\eterLib\Pool.h
; File C:\Program Files (x86)\Microsoft Visual Studio\2019\Community\VC\Tools\MSVC\14.28.29333\include\algorithm
; File D:\Metin2 Server Files\mainline\SRC_2014\Metin2Client\eterLib\Pool.h
; File D:\Metin2 Server Files\mainline\SRC_2014\Metin2Client\UserInterface\PythonTextTail.cpp
;	COMDAT ?Destroy@CPythonTextTail@@QAEXXZ
_TEXT	SEGMENT
?Destroy@CPythonTextTail@@QAEXXZ PROC			; CPythonTextTail::Destroy, COMDAT
; _this$ = ecx

; 1005 : {

  00000	53		 push	 ebx
  00001	56		 push	 esi
  00002	57		 push	 edi
  00003	8b f9		 mov	 edi, ecx
; File C:\Program Files (x86)\Microsoft Visual Studio\2019\Community\VC\Tools\MSVC\14.28.29333\include\vector

; 42   :     _Vector_const_iterator(_Tptr _Parg, const _Container_base* _Pvector) noexcept : _Ptr(_Parg) {

  00005	8b 5f 34	 mov	 ebx, DWORD PTR [edi+52]
  00008	8b 77 30	 mov	 esi, DWORD PTR [edi+48]
; File C:\Program Files (x86)\Microsoft Visual Studio\2019\Community\VC\Tools\MSVC\14.28.29333\include\algorithm

; 307  :     for (; _UFirst != _ULast; ++_UFirst) {

  0000b	3b f3		 cmp	 esi, ebx
  0000d	74 17		 je	 SHORT $LN21@Destroy
  0000f	90		 npad	 1
$LL22@Destroy:
; File D:\Metin2 Server Files\mainline\SRC_2014\Metin2Client\eterLib\Pool.h

; 110  : 			delete pkData;

  00010	8b 0e		 mov	 ecx, DWORD PTR [esi]
  00012	85 c9		 test	 ecx, ecx
  00014	74 06		 je	 SHORT $LN20@Destroy
  00016	8b 01		 mov	 eax, DWORD PTR [ecx]
  00018	6a 01		 push	 1
  0001a	ff 10		 call	 DWORD PTR [eax]
$LN20@Destroy:
; File C:\Program Files (x86)\Microsoft Visual Studio\2019\Community\VC\Tools\MSVC\14.28.29333\include\algorithm

; 307  :     for (; _UFirst != _ULast; ++_UFirst) {

  0001c	83 c6 04	 add	 esi, 4
  0001f	3b f3		 cmp	 esi, ebx
  00021	75 ed		 jne	 SHORT $LL22@Destroy
  00023	8b 77 30	 mov	 esi, DWORD PTR [edi+48]
$LN21@Destroy:
; File D:\Metin2 Server Files\mainline\SRC_2014\Metin2Client\eterLib\Pool.h

; 52   : 			m_kVct_pkFree.clear();

  00026	8b 47 3c	 mov	 eax, DWORD PTR [edi+60]
  00029	89 77 34	 mov	 DWORD PTR [edi+52], esi
  0002c	89 47 40	 mov	 DWORD PTR [edi+64], eax
  0002f	5f		 pop	 edi
  00030	5e		 pop	 esi
  00031	5b		 pop	 ebx
; File D:\Metin2 Server Files\mainline\SRC_2014\Metin2Client\UserInterface\PythonTextTail.cpp

; 1007 : }

  00032	c3		 ret	 0
?Destroy@CPythonTextTail@@QAEXXZ ENDP			; CPythonTextTail::Destroy
_TEXT	ENDS
; Function compile flags: /Ogtp
; File D:\Metin2 Server Files\mainline\SRC_2014\Metin2Client\UserInterface\PythonTextTail.cpp
;	COMDAT ?Initialize@CPythonTextTail@@QAEXXZ
_TEXT	SEGMENT
?Initialize@CPythonTextTail@@QAEXXZ PROC		; CPythonTextTail::Initialize, COMDAT
; _this$ = ecx

; 990  : 	// DEFAULT_FONT
; 991  : 	//ms_pFont = (CGraphicText *)CResourceManager::Instance().GetTypeResourcePointer(g_strDefaultFontName.c_str());
; 992  : 
; 993  : 	CGraphicText* pkDefaultFont = static_cast<CGraphicText*>(DefaultFont_GetResource());

  00000	e8 00 00 00 00	 call	 ?DefaultFont_GetResource@@YAPAVCResource@@XZ ; DefaultFont_GetResource

; 994  : 	if (!pkDefaultFont)

  00005	85 c0		 test	 eax, eax
  00007	75 0e		 jne	 SHORT $LN2@Initialize

; 995  : 	{
; 996  : 		TraceError("CPythonTextTail::Initialize - CANNOT_FIND_DEFAULT_FONT");

  00009	68 00 00 00 00	 push	 OFFSET ??_C@_0DH@ONGBNPOP@CPythonTextTail?3?3Initialize?5?9?5C@
  0000e	e8 00 00 00 00	 call	 ?TraceError@@YAXPBDZZ	; TraceError
  00013	83 c4 04	 add	 esp, 4

; 1001 : 	// END_OF_DEFAULT_FONT
; 1002 : }

  00016	c3		 ret	 0
$LN2@Initialize:

; 997  : 		return;
; 998  : 	}	
; 999  : 
; 1000 : 	ms_pFont = pkDefaultFont;

  00017	a3 00 00 00 00	 mov	 DWORD PTR ?ms_pFont@@3PAVCGraphicText@@A, eax ; ms_pFont

; 1001 : 	// END_OF_DEFAULT_FONT
; 1002 : }

  0001c	c3		 ret	 0
?Initialize@CPythonTextTail@@QAEXXZ ENDP		; CPythonTextTail::Initialize
_TEXT	ENDS
; Function compile flags: /Ogtp
; File D:\Metin2 Server Files\mainline\SRC_2014\Metin2Client\UserInterface\PythonTextTail.cpp
; File C:\Program Files (x86)\Microsoft Visual Studio\2019\Community\VC\Tools\MSVC\14.28.29333\include\vector
; File D:\Metin2 Server Files\mainline\SRC_2014\Metin2Client\UserInterface\PythonTextTail.cpp
; File C:\Program Files (x86)\Microsoft Visual Studio\2019\Community\VC\Tools\MSVC\14.28.29333\include\vector
; File D:\Metin2 Server Files\mainline\SRC_2014\Metin2Client\UserInterface\PythonTextTail.cpp
; File C:\Program Files (x86)\Microsoft Visual Studio\2019\Community\VC\Tools\MSVC\14.28.29333\include\xstring
; File D:\Metin2 Server Files\mainline\SRC_2014\Metin2Client\UserInterface\PythonTextTail.cpp
; File C:\Program Files (x86)\Microsoft Visual Studio\2019\Community\VC\Tools\MSVC\14.28.29333\include\xstring
; File D:\Metin2 Server Files\mainline\SRC_2014\Metin2Client\UserInterface\PythonTextTail.cpp
; File C:\Program Files (x86)\Microsoft Visual Studio\2019\Community\VC\Tools\MSVC\14.28.29333\include\xstring
; File D:\Metin2 Server Files\mainline\SRC_2014\Metin2Client\UserInterface\PythonTextTail.cpp
;	COMDAT ?GetInfo@CPythonTextTail@@QAEXPAV?$basic_string@DU?$char_traits@D@std@@V?$allocator@D@2@@std@@@Z
_TEXT	SEGMENT
_szInfo$ = -260						; size = 256
__$ArrayPad$ = -4					; size = 4
_pstInfo$ = 8						; size = 4
?GetInfo@CPythonTextTail@@QAEXPAV?$basic_string@DU?$char_traits@D@std@@V?$allocator@D@2@@std@@@Z PROC ; CPythonTextTail::GetInfo, COMDAT
; _this$ = ecx

; 43   : {

  00000	55		 push	 ebp
  00001	8b ec		 mov	 ebp, esp
  00003	81 ec 04 01 00
	00		 sub	 esp, 260		; 00000104H
  00009	a1 00 00 00 00	 mov	 eax, DWORD PTR ___security_cookie
  0000e	33 c5		 xor	 eax, ebp
  00010	89 45 fc	 mov	 DWORD PTR __$ArrayPad$[ebp], eax
; File C:\Program Files (x86)\Microsoft Visual Studio\2019\Community\VC\Tools\MSVC\14.28.29333\include\vector

; 1484 :         return static_cast<size_type>(_My_data._Mylast - _My_data._Myfirst);

  00013	8b 41 34	 mov	 eax, DWORD PTR [ecx+52]
  00016	2b 41 30	 sub	 eax, DWORD PTR [ecx+48]
; File D:\Metin2 Server Files\mainline\SRC_2014\Metin2Client\UserInterface\PythonTextTail.cpp

; 43   : {

  00019	56		 push	 esi
  0001a	8b 75 08	 mov	 esi, DWORD PTR _pstInfo$[ebp]
; File C:\Program Files (x86)\Microsoft Visual Studio\2019\Community\VC\Tools\MSVC\14.28.29333\include\vector

; 1484 :         return static_cast<size_type>(_My_data._Mylast - _My_data._Myfirst);

  0001d	c1 f8 02	 sar	 eax, 2
; File D:\Metin2 Server Files\mainline\SRC_2014\Metin2Client\UserInterface\PythonTextTail.cpp

; 45   : 	sprintf(szInfo, "TextTail: ChatTail %d, ChrTail (Map %d, List %d), ItemTail (Map %d, List %d), Pool %d", 

  00020	50		 push	 eax
  00021	ff 71 28	 push	 DWORD PTR [ecx+40]
  00024	8d 85 fc fe ff
	ff		 lea	 eax, DWORD PTR _szInfo$[ebp]
  0002a	ff 71 10	 push	 DWORD PTR [ecx+16]
  0002d	ff 71 20	 push	 DWORD PTR [ecx+32]
  00030	ff 71 08	 push	 DWORD PTR [ecx+8]
  00033	ff 71 18	 push	 DWORD PTR [ecx+24]
  00036	68 00 00 00 00	 push	 OFFSET ??_C@_0FG@PPLFOIJH@TextTail?3?5ChatTail?5?$CFd?0?5ChrTail?5@
  0003b	50		 push	 eax
  0003c	e8 00 00 00 00	 call	 _sprintf
; File C:\Program Files (x86)\Microsoft Visual Studio\2019\Community\VC\Tools\MSVC\14.28.29333\include\xstring

; 389  :         return _CSTD strlen(reinterpret_cast<const char*>(_First));

  00041	8d 85 fc fe ff
	ff		 lea	 eax, DWORD PTR _szInfo$[ebp]
; File D:\Metin2 Server Files\mainline\SRC_2014\Metin2Client\UserInterface\PythonTextTail.cpp

; 45   : 	sprintf(szInfo, "TextTail: ChatTail %d, ChrTail (Map %d, List %d), ItemTail (Map %d, List %d), Pool %d", 

  00047	83 c4 20	 add	 esp, 32			; 00000020H
; File C:\Program Files (x86)\Microsoft Visual Studio\2019\Community\VC\Tools\MSVC\14.28.29333\include\xstring

; 389  :         return _CSTD strlen(reinterpret_cast<const char*>(_First));

  0004a	8d 50 01	 lea	 edx, DWORD PTR [eax+1]
  0004d	0f 1f 00	 npad	 3
$LL11@GetInfo:
  00050	8a 08		 mov	 cl, BYTE PTR [eax]
  00052	40		 inc	 eax
  00053	84 c9		 test	 cl, cl
  00055	75 f9		 jne	 SHORT $LL11@GetInfo
  00057	2b c2		 sub	 eax, edx

; 2958 :         return append(_Ptr, _Convert_size<size_type>(_Traits::length(_Ptr)));

  00059	8b ce		 mov	 ecx, esi
  0005b	50		 push	 eax
  0005c	8d 85 fc fe ff
	ff		 lea	 eax, DWORD PTR _szInfo$[ebp]
  00062	50		 push	 eax
  00063	e8 00 00 00 00	 call	 ?append@?$basic_string@DU?$char_traits@D@std@@V?$allocator@D@2@@std@@QAEAAV12@QBDI@Z ; std::basic_string<char,std::char_traits<char>,std::allocator<char> >::append
; File D:\Metin2 Server Files\mainline\SRC_2014\Metin2Client\UserInterface\PythonTextTail.cpp

; 52   : }

  00068	8b 4d fc	 mov	 ecx, DWORD PTR __$ArrayPad$[ebp]
  0006b	33 cd		 xor	 ecx, ebp
; File C:\Program Files (x86)\Microsoft Visual Studio\2019\Community\VC\Tools\MSVC\14.28.29333\include\xstring

; 2958 :         return append(_Ptr, _Convert_size<size_type>(_Traits::length(_Ptr)));

  0006d	5e		 pop	 esi
; File D:\Metin2 Server Files\mainline\SRC_2014\Metin2Client\UserInterface\PythonTextTail.cpp

; 52   : }

  0006e	e8 00 00 00 00	 call	 @__security_check_cookie@4
  00073	8b e5		 mov	 esp, ebp
  00075	5d		 pop	 ebp
  00076	c2 04 00	 ret	 4
?GetInfo@CPythonTextTail@@QAEXPAV?$basic_string@DU?$char_traits@D@std@@V?$allocator@D@2@@std@@@Z ENDP ; CPythonTextTail::GetInfo
_TEXT	ENDS
; Function compile flags: /Ogtp
; File D:\Metin2 Server Files\mainline\SRC_2014\Metin2Client\UserInterface\PythonTextTail.cpp
; File C:\Program Files (x86)\Microsoft Visual Studio\2019\Community\VC\Tools\MSVC\14.28.29333\include\list
; File C:\Program Files (x86)\Microsoft Visual Studio\2019\Community\VC\Tools\MSVC\14.28.29333\include\xmemory
; File C:\Program Files (x86)\Microsoft Visual Studio\2019\Community\VC\Tools\MSVC\14.28.29333\include\list
; File C:\Program Files (x86)\Microsoft Visual Studio\2019\Community\VC\Tools\MSVC\14.28.29333\include\xmemory
; File C:\Program Files (x86)\Microsoft Visual Studio\2019\Community\VC\Tools\MSVC\14.28.29333\include\list
; File C:\Program Files (x86)\Microsoft Visual Studio\2019\Community\VC\Tools\MSVC\14.28.29333\include\xmemory
; File C:\Program Files (x86)\Microsoft Visual Studio\2019\Community\VC\Tools\MSVC\14.28.29333\include\list
; File C:\Program Files (x86)\Microsoft Visual Studio\2019\Community\VC\Tools\MSVC\14.28.29333\include\xmemory
; File C:\Program Files (x86)\Microsoft Visual Studio\2019\Community\VC\Tools\MSVC\14.28.29333\include\list
; File C:\Program Files (x86)\Microsoft Visual Studio\2019\Community\VC\Tools\MSVC\14.28.29333\include\xmemory
; File D:\Metin2 Server Files\mainline\SRC_2014\Metin2Client\UserInterface\PythonTextTail.cpp
; File D:\Metin2 Server Files\mainline\SRC_2014\Metin2Client\eterBase\Singleton.h
; File D:\Metin2 Server Files\mainline\SRC_2014\Metin2Client\UserInterface\PythonTextTail.cpp
;	COMDAT ??1CPythonTextTail@@UAE@XZ
_TEXT	SEGMENT
??1CPythonTextTail@@UAE@XZ PROC				; CPythonTextTail::~CPythonTextTail, COMDAT
; _this$ = ecx

; 1026 : {

  00000	56		 push	 esi
  00001	57		 push	 edi
  00002	8b f9		 mov	 edi, ecx
  00004	c7 07 00 00 00
	00		 mov	 DWORD PTR [edi], OFFSET ??_7CPythonTextTail@@6B@

; 1027 : 	Destroy();

  0000a	e8 00 00 00 00	 call	 ?Destroy@CPythonTextTail@@QAEXXZ ; CPythonTextTail::Destroy

; 1028 : }

  0000f	8d 4f 2c	 lea	 ecx, DWORD PTR [edi+44]
  00012	e8 00 00 00 00	 call	 ??1?$CDynamicPool@USTextTail@CPythonTextTail@@@@UAE@XZ ; CDynamicPool<CPythonTextTail::STextTail>::~CDynamicPool<CPythonTextTail::STextTail>
; File C:\Program Files (x86)\Microsoft Visual Studio\2019\Community\VC\Tools\MSVC\14.28.29333\include\list

; 1440 :         _Node::_Free_non_head(_Al, _My_data._Myhead);

  00017	8b 4f 24	 mov	 ecx, DWORD PTR [edi+36]

; 324  :         _Head->_Prev->_Next = nullptr;

  0001a	8b 41 04	 mov	 eax, DWORD PTR [ecx+4]
  0001d	c7 00 00 00 00
	00		 mov	 DWORD PTR [eax], 0

; 325  : 
; 326  :         auto _Pnode = _Head->_Next;

  00023	8b 01		 mov	 eax, DWORD PTR [ecx]

; 327  :         for (_Nodeptr _Pnext; _Pnode; _Pnode = _Pnext) {

  00025	85 c0		 test	 eax, eax
  00027	74 1a		 je	 SHORT $LN9@CPythonTex
  00029	0f 1f 80 00 00
	00 00		 npad	 7
$LL10@CPythonTex:

; 328  :             _Pnext = _Pnode->_Next;

  00030	8b 30		 mov	 esi, DWORD PTR [eax]
; File C:\Program Files (x86)\Microsoft Visual Studio\2019\Community\VC\Tools\MSVC\14.28.29333\include\xmemory

; 696  :         _Deallocate<_New_alignof<value_type>>(_Ptr, sizeof(value_type) * _Count);

  00032	6a 0c		 push	 12			; 0000000cH
  00034	50		 push	 eax
  00035	e8 00 00 00 00	 call	 ??$_Deallocate@$07$0A@@std@@YAXPAXI@Z ; std::_Deallocate<8,0>
  0003a	83 c4 08	 add	 esp, 8
; File C:\Program Files (x86)\Microsoft Visual Studio\2019\Community\VC\Tools\MSVC\14.28.29333\include\list

; 327  :         for (_Nodeptr _Pnext; _Pnode; _Pnode = _Pnext) {

  0003d	8b c6		 mov	 eax, esi
  0003f	85 f6		 test	 esi, esi
  00041	75 ed		 jne	 SHORT $LL10@CPythonTex
$LN9@CPythonTex:
; File C:\Program Files (x86)\Microsoft Visual Studio\2019\Community\VC\Tools\MSVC\14.28.29333\include\xmemory

; 696  :         _Deallocate<_New_alignof<value_type>>(_Ptr, sizeof(value_type) * _Count);

  00043	6a 0c		 push	 12			; 0000000cH
  00045	ff 77 24	 push	 DWORD PTR [edi+36]
  00048	e8 00 00 00 00	 call	 ??$_Deallocate@$07$0A@@std@@YAXPAXI@Z ; std::_Deallocate<8,0>
; File C:\Program Files (x86)\Microsoft Visual Studio\2019\Community\VC\Tools\MSVC\14.28.29333\include\list

; 1440 :         _Node::_Free_non_head(_Al, _My_data._Myhead);

  0004d	8b 4f 1c	 mov	 ecx, DWORD PTR [edi+28]
; File C:\Program Files (x86)\Microsoft Visual Studio\2019\Community\VC\Tools\MSVC\14.28.29333\include\xmemory

; 696  :         _Deallocate<_New_alignof<value_type>>(_Ptr, sizeof(value_type) * _Count);

  00050	83 c4 08	 add	 esp, 8
; File C:\Program Files (x86)\Microsoft Visual Studio\2019\Community\VC\Tools\MSVC\14.28.29333\include\list

; 324  :         _Head->_Prev->_Next = nullptr;

  00053	8b 41 04	 mov	 eax, DWORD PTR [ecx+4]
  00056	c7 00 00 00 00
	00		 mov	 DWORD PTR [eax], 0

; 325  : 
; 326  :         auto _Pnode = _Head->_Next;

  0005c	8b 01		 mov	 eax, DWORD PTR [ecx]

; 327  :         for (_Nodeptr _Pnext; _Pnode; _Pnode = _Pnext) {

  0005e	85 c0		 test	 eax, eax
  00060	74 13		 je	 SHORT $LN28@CPythonTex
$LL29@CPythonTex:

; 328  :             _Pnext = _Pnode->_Next;

  00062	8b 30		 mov	 esi, DWORD PTR [eax]
; File C:\Program Files (x86)\Microsoft Visual Studio\2019\Community\VC\Tools\MSVC\14.28.29333\include\xmemory

; 696  :         _Deallocate<_New_alignof<value_type>>(_Ptr, sizeof(value_type) * _Count);

  00064	6a 0c		 push	 12			; 0000000cH
  00066	50		 push	 eax
  00067	e8 00 00 00 00	 call	 ??$_Deallocate@$07$0A@@std@@YAXPAXI@Z ; std::_Deallocate<8,0>
  0006c	83 c4 08	 add	 esp, 8
; File C:\Program Files (x86)\Microsoft Visual Studio\2019\Community\VC\Tools\MSVC\14.28.29333\include\list

; 327  :         for (_Nodeptr _Pnext; _Pnode; _Pnode = _Pnext) {

  0006f	8b c6		 mov	 eax, esi
  00071	85 f6		 test	 esi, esi
  00073	75 ed		 jne	 SHORT $LL29@CPythonTex
$LN28@CPythonTex:
; File C:\Program Files (x86)\Microsoft Visual Studio\2019\Community\VC\Tools\MSVC\14.28.29333\include\xmemory

; 696  :         _Deallocate<_New_alignof<value_type>>(_Ptr, sizeof(value_type) * _Count);

  00075	6a 0c		 push	 12			; 0000000cH
  00077	ff 77 1c	 push	 DWORD PTR [edi+28]
  0007a	e8 00 00 00 00	 call	 ??$_Deallocate@$07$0A@@std@@YAXPAXI@Z ; std::_Deallocate<8,0>
  0007f	83 c4 08	 add	 esp, 8
; File D:\Metin2 Server Files\mainline\SRC_2014\Metin2Client\UserInterface\PythonTextTail.cpp

; 1028 : }

  00082	8d 4f 14	 lea	 ecx, DWORD PTR [edi+20]
  00085	e8 00 00 00 00	 call	 ??1?$_Tree@V?$_Tmap_traits@KPAUSTextTail@CPythonTextTail@@U?$less@K@std@@V?$allocator@U?$pair@$$CBKPAUSTextTail@CPythonTextTail@@@std@@@4@$0A@@std@@@std@@QAE@XZ ; std::_Tree<std::_Tmap_traits<unsigned long,CPythonTextTail::STextTail *,std::less<unsigned long>,std::allocator<std::pair<unsigned long const ,CPythonTextTail::STextTail *> >,0> >::~_Tree<std::_Tmap_traits<unsigned long,CPythonTextTail::STextTail *,std::less<unsigned long>,std::allocator<std::pair<unsigned long const ,CPythonTextTail::STextTail *> >,0> >
  0008a	8d 4f 0c	 lea	 ecx, DWORD PTR [edi+12]
  0008d	e8 00 00 00 00	 call	 ??1?$_Tree@V?$_Tmap_traits@KPAUSTextTail@CPythonTextTail@@U?$less@K@std@@V?$allocator@U?$pair@$$CBKPAUSTextTail@CPythonTextTail@@@std@@@4@$0A@@std@@@std@@QAE@XZ ; std::_Tree<std::_Tmap_traits<unsigned long,CPythonTextTail::STextTail *,std::less<unsigned long>,std::allocator<std::pair<unsigned long const ,CPythonTextTail::STextTail *> >,0> >::~_Tree<std::_Tmap_traits<unsigned long,CPythonTextTail::STextTail *,std::less<unsigned long>,std::allocator<std::pair<unsigned long const ,CPythonTextTail::STextTail *> >,0> >
  00092	8d 4f 04	 lea	 ecx, DWORD PTR [edi+4]
  00095	e8 00 00 00 00	 call	 ??1?$_Tree@V?$_Tmap_traits@KPAUSTextTail@CPythonTextTail@@U?$less@K@std@@V?$allocator@U?$pair@$$CBKPAUSTextTail@CPythonTextTail@@@std@@@4@$0A@@std@@@std@@QAE@XZ ; std::_Tree<std::_Tmap_traits<unsigned long,CPythonTextTail::STextTail *,std::less<unsigned long>,std::allocator<std::pair<unsigned long const ,CPythonTextTail::STextTail *> >,0> >::~_Tree<std::_Tmap_traits<unsigned long,CPythonTextTail::STextTail *,std::less<unsigned long>,std::allocator<std::pair<unsigned long const ,CPythonTextTail::STextTail *> >,0> >
; File D:\Metin2 Server Files\mainline\SRC_2014\Metin2Client\eterBase\Singleton.h

; 19   : 	{ 

  0009a	c7 07 00 00 00
	00		 mov	 DWORD PTR [edi], OFFSET ??_7?$CSingleton@VCPythonTextTail@@@@6B@

; 20   : 		assert(ms_singleton);
; 21   : 		ms_singleton = 0; 

  000a0	5f		 pop	 edi
  000a1	c7 05 00 00 00
	00 00 00 00 00	 mov	 DWORD PTR ?ms_singleton@?$CSingleton@VCPythonTextTail@@@@0PAVCPythonTextTail@@A, 0 ; CSingleton<CPythonTextTail>::ms_singleton
  000ab	5e		 pop	 esi
; File D:\Metin2 Server Files\mainline\SRC_2014\Metin2Client\UserInterface\PythonTextTail.cpp

; 1028 : }

  000ac	c3		 ret	 0
??1CPythonTextTail@@UAE@XZ ENDP				; CPythonTextTail::~CPythonTextTail
_TEXT	ENDS
; Function compile flags: /Ogtp
; File D:\Metin2 Server Files\mainline\SRC_2014\Metin2Client\UserInterface\PythonTextTail.cpp
; File D:\Metin2 Server Files\mainline\SRC_2014\Metin2Client\eterBase\Singleton.h
; File D:\Metin2 Server Files\mainline\SRC_2014\Metin2Client\UserInterface\PythonTextTail.cpp
; File C:\Program Files (x86)\Microsoft Visual Studio\2019\Community\VC\Tools\MSVC\14.28.29333\include\xmemory
; File D:\Metin2 Server Files\mainline\SRC_2014\Metin2Client\UserInterface\PythonTextTail.cpp
; File C:\Program Files (x86)\Microsoft Visual Studio\2019\Community\VC\Tools\MSVC\14.28.29333\include\xtree
; File C:\Program Files (x86)\Microsoft Visual Studio\2019\Community\VC\Tools\MSVC\14.28.29333\include\xmemory
; File C:\Program Files (x86)\Microsoft Visual Studio\2019\Community\VC\Tools\MSVC\14.28.29333\include\xtree
; File D:\Metin2 Server Files\mainline\SRC_2014\Metin2Client\UserInterface\PythonTextTail.cpp
; File C:\Program Files (x86)\Microsoft Visual Studio\2019\Community\VC\Tools\MSVC\14.28.29333\include\xmemory
; File C:\Program Files (x86)\Microsoft Visual Studio\2019\Community\VC\Tools\MSVC\14.28.29333\include\xtree
; File C:\Program Files (x86)\Microsoft Visual Studio\2019\Community\VC\Tools\MSVC\14.28.29333\include\xmemory
; File C:\Program Files (x86)\Microsoft Visual Studio\2019\Community\VC\Tools\MSVC\14.28.29333\include\xtree
; File D:\Metin2 Server Files\mainline\SRC_2014\Metin2Client\UserInterface\PythonTextTail.cpp
; File C:\Program Files (x86)\Microsoft Visual Studio\2019\Community\VC\Tools\MSVC\14.28.29333\include\xmemory
; File C:\Program Files (x86)\Microsoft Visual Studio\2019\Community\VC\Tools\MSVC\14.28.29333\include\xtree
; File C:\Program Files (x86)\Microsoft Visual Studio\2019\Community\VC\Tools\MSVC\14.28.29333\include\xmemory
; File C:\Program Files (x86)\Microsoft Visual Studio\2019\Community\VC\Tools\MSVC\14.28.29333\include\xtree
; File C:\Program Files (x86)\Microsoft Visual Studio\2019\Community\VC\Tools\MSVC\14.28.29333\include\xmemory
; File D:\Metin2 Server Files\mainline\SRC_2014\Metin2Client\UserInterface\PythonTextTail.cpp
; File C:\Program Files (x86)\Microsoft Visual Studio\2019\Community\VC\Tools\MSVC\14.28.29333\include\list
; File C:\Program Files (x86)\Microsoft Visual Studio\2019\Community\VC\Tools\MSVC\14.28.29333\include\xmemory
; File C:\Program Files (x86)\Microsoft Visual Studio\2019\Community\VC\Tools\MSVC\14.28.29333\include\list
; File C:\Program Files (x86)\Microsoft Visual Studio\2019\Community\VC\Tools\MSVC\14.28.29333\include\xmemory
; File D:\Metin2 Server Files\mainline\SRC_2014\Metin2Client\UserInterface\PythonTextTail.cpp
; File C:\Program Files (x86)\Microsoft Visual Studio\2019\Community\VC\Tools\MSVC\14.28.29333\include\list
; File C:\Program Files (x86)\Microsoft Visual Studio\2019\Community\VC\Tools\MSVC\14.28.29333\include\xmemory
; File C:\Program Files (x86)\Microsoft Visual Studio\2019\Community\VC\Tools\MSVC\14.28.29333\include\list
; File D:\Metin2 Server Files\mainline\SRC_2014\Metin2Client\UserInterface\PythonTextTail.cpp
; File D:\Metin2 Server Files\mainline\SRC_2014\Metin2Client\eterLib\Pool.h
; File C:\Program Files (x86)\Microsoft Visual Studio\2019\Community\VC\Tools\MSVC\14.28.29333\include\vector
; File D:\Metin2 Server Files\mainline\SRC_2014\Metin2Client\eterLib\Pool.h
; File D:\Metin2 Server Files\mainline\SRC_2014\Metin2Client\UserInterface\PythonTextTail.cpp
;	COMDAT ??0CPythonTextTail@@QAE@XZ
_TEXT	SEGMENT
_this$ = -20						; size = 4
__Newhead$2 = -16					; size = 4
__Newhead$3 = -16					; size = 4
__Pnode$4 = -16						; size = 4
__Pnode$5 = -16						; size = 4
_this$ = -16						; size = 4
__Pnode$6 = -16						; size = 4
_this$ = -16						; size = 4
_this$ = -16						; size = 4
__$EHRec$ = -12						; size = 12
??0CPythonTextTail@@QAE@XZ PROC				; CPythonTextTail::CPythonTextTail, COMDAT
; _this$ = ecx

; 1021 : {

  00000	55		 push	 ebp
  00001	8b ec		 mov	 ebp, esp
  00003	6a ff		 push	 -1
  00005	68 00 00 00 00	 push	 __ehhandler$??0CPythonTextTail@@QAE@XZ
  0000a	64 a1 00 00 00
	00		 mov	 eax, DWORD PTR fs:0
  00010	50		 push	 eax
  00011	83 ec 08	 sub	 esp, 8
  00014	53		 push	 ebx
  00015	56		 push	 esi
  00016	57		 push	 edi
  00017	a1 00 00 00 00	 mov	 eax, DWORD PTR ___security_cookie
  0001c	33 c5		 xor	 eax, ebp
  0001e	50		 push	 eax
  0001f	8d 45 f4	 lea	 eax, DWORD PTR __$EHRec$[ebp]
  00022	64 a3 00 00 00
	00		 mov	 DWORD PTR fs:0, eax
  00028	8b d9		 mov	 ebx, ecx
  0002a	89 5d ec	 mov	 DWORD PTR _this$[ebp], ebx
; File D:\Metin2 Server Files\mainline\SRC_2014\Metin2Client\eterBase\Singleton.h

; 15   : 		ms_singleton = (T*) ((int) this + offset);

  0002d	89 1d 00 00 00
	00		 mov	 DWORD PTR ?ms_singleton@?$CSingleton@VCPythonTextTail@@@@0PAVCPythonTextTail@@A, ebx ; CSingleton<CPythonTextTail>::ms_singleton
; File D:\Metin2 Server Files\mainline\SRC_2014\Metin2Client\UserInterface\PythonTextTail.cpp

; 1021 : {

  00033	8d 7b 04	 lea	 edi, DWORD PTR [ebx+4]
  00036	c7 03 00 00 00
	00		 mov	 DWORD PTR [ebx], OFFSET ??_7CPythonTextTail@@6B@
  0003c	89 7d f0	 mov	 DWORD PTR _this$[ebp], edi
; File C:\Program Files (x86)\Microsoft Visual Studio\2019\Community\VC\Tools\MSVC\14.28.29333\include\xmemory

; 814  :         return static_cast<_Ty*>(_Allocate<_New_alignof<_Ty>>(_Get_size_of_n<sizeof(_Ty)>(_Count)));

  0003f	6a 18		 push	 24			; 00000018H
; File D:\Metin2 Server Files\mainline\SRC_2014\Metin2Client\UserInterface\PythonTextTail.cpp

; 1021 : {

  00041	c7 45 fc 00 00
	00 00		 mov	 DWORD PTR __$EHRec$[ebp+8], 0
; File C:\Program Files (x86)\Microsoft Visual Studio\2019\Community\VC\Tools\MSVC\14.28.29333\include\xtree

; 435  :     _Tree_val() noexcept : _Myhead(), _Mysize(0) {}

  00048	c7 07 00 00 00
	00		 mov	 DWORD PTR [edi], 0
  0004e	c7 47 04 00 00
	00 00		 mov	 DWORD PTR [edi+4], 0
; File C:\Program Files (x86)\Microsoft Visual Studio\2019\Community\VC\Tools\MSVC\14.28.29333\include\xmemory

; 814  :         return static_cast<_Ty*>(_Allocate<_New_alignof<_Ty>>(_Get_size_of_n<sizeof(_Ty)>(_Count)));

  00055	e8 00 00 00 00	 call	 ??$_Allocate@$07U_Default_allocate_traits@std@@$0A@@std@@YAPAXI@Z ; std::_Allocate<8,std::_Default_allocate_traits,0>
; File C:\Program Files (x86)\Microsoft Visual Studio\2019\Community\VC\Tools\MSVC\14.28.29333\include\xtree

; 343  :         const auto _Pnode = _Al.allocate(1);

  0005a	8b f0		 mov	 esi, eax

; 344  :         _Construct_in_place(_Pnode->_Left, _Pnode);

  0005c	8d 45 f0	 lea	 eax, DWORD PTR __Pnode$6[ebp]
  0005f	50		 push	 eax
  00060	56		 push	 esi
  00061	89 75 f0	 mov	 DWORD PTR __Pnode$6[ebp], esi
  00064	e8 00 00 00 00	 call	 ??$_Construct_in_place@PAU?$_Tree_node@U?$pair@$$CBKPAUSTextTail@CPythonTextTail@@@std@@PAX@std@@ABQAU12@@std@@YAXAAPAU?$_Tree_node@U?$pair@$$CBKPAUSTextTail@CPythonTextTail@@@std@@PAX@0@ABQAU10@@Z ; std::_Construct_in_place<std::_Tree_node<std::pair<unsigned long const ,CPythonTextTail::STextTail *>,void *> *,std::_Tree_node<std::pair<unsigned long const ,CPythonTextTail::STextTail *>,void *> * const &>

; 345  :         _Construct_in_place(_Pnode->_Parent, _Pnode);

  00069	8d 45 f0	 lea	 eax, DWORD PTR __Pnode$6[ebp]
  0006c	50		 push	 eax
  0006d	8d 4e 04	 lea	 ecx, DWORD PTR [esi+4]
  00070	51		 push	 ecx
  00071	e8 00 00 00 00	 call	 ??$_Construct_in_place@PAU?$_Tree_node@U?$pair@$$CBKPAUSTextTail@CPythonTextTail@@@std@@PAX@std@@ABQAU12@@std@@YAXAAPAU?$_Tree_node@U?$pair@$$CBKPAUSTextTail@CPythonTextTail@@@std@@PAX@0@ABQAU10@@Z ; std::_Construct_in_place<std::_Tree_node<std::pair<unsigned long const ,CPythonTextTail::STextTail *>,void *> *,std::_Tree_node<std::pair<unsigned long const ,CPythonTextTail::STextTail *>,void *> * const &>

; 346  :         _Construct_in_place(_Pnode->_Right, _Pnode);

  00076	8d 45 f0	 lea	 eax, DWORD PTR __Pnode$6[ebp]
  00079	50		 push	 eax
  0007a	8d 46 08	 lea	 eax, DWORD PTR [esi+8]
  0007d	50		 push	 eax
  0007e	e8 00 00 00 00	 call	 ??$_Construct_in_place@PAU?$_Tree_node@U?$pair@$$CBKPAUSTextTail@CPythonTextTail@@@std@@PAX@std@@ABQAU12@@std@@YAXAAPAU?$_Tree_node@U?$pair@$$CBKPAUSTextTail@CPythonTextTail@@@std@@PAX@0@ABQAU10@@Z ; std::_Construct_in_place<std::_Tree_node<std::pair<unsigned long const ,CPythonTextTail::STextTail *>,void *> *,std::_Tree_node<std::pair<unsigned long const ,CPythonTextTail::STextTail *>,void *> * const &>

; 347  :         _Pnode->_Color = _Black;

  00083	66 c7 46 0c 01
	01		 mov	 WORD PTR [esi+12], 257	; 00000101H

; 2021 :         _Scary->_Myhead = _Node::_Buyheadnode(_Getal());

  00089	89 37		 mov	 DWORD PTR [edi], esi
; File D:\Metin2 Server Files\mainline\SRC_2014\Metin2Client\UserInterface\PythonTextTail.cpp

; 1021 : {

  0008b	8d 7b 0c	 lea	 edi, DWORD PTR [ebx+12]
  0008e	c6 45 fc 01	 mov	 BYTE PTR __$EHRec$[ebp+8], 1
  00092	89 7d f0	 mov	 DWORD PTR _this$[ebp], edi
; File C:\Program Files (x86)\Microsoft Visual Studio\2019\Community\VC\Tools\MSVC\14.28.29333\include\xmemory

; 814  :         return static_cast<_Ty*>(_Allocate<_New_alignof<_Ty>>(_Get_size_of_n<sizeof(_Ty)>(_Count)));

  00095	6a 18		 push	 24			; 00000018H
; File C:\Program Files (x86)\Microsoft Visual Studio\2019\Community\VC\Tools\MSVC\14.28.29333\include\xtree

; 435  :     _Tree_val() noexcept : _Myhead(), _Mysize(0) {}

  00097	c7 07 00 00 00
	00		 mov	 DWORD PTR [edi], 0
  0009d	c7 47 04 00 00
	00 00		 mov	 DWORD PTR [edi+4], 0
; File C:\Program Files (x86)\Microsoft Visual Studio\2019\Community\VC\Tools\MSVC\14.28.29333\include\xmemory

; 814  :         return static_cast<_Ty*>(_Allocate<_New_alignof<_Ty>>(_Get_size_of_n<sizeof(_Ty)>(_Count)));

  000a4	e8 00 00 00 00	 call	 ??$_Allocate@$07U_Default_allocate_traits@std@@$0A@@std@@YAPAXI@Z ; std::_Allocate<8,std::_Default_allocate_traits,0>
; File C:\Program Files (x86)\Microsoft Visual Studio\2019\Community\VC\Tools\MSVC\14.28.29333\include\xtree

; 343  :         const auto _Pnode = _Al.allocate(1);

  000a9	8b f0		 mov	 esi, eax

; 344  :         _Construct_in_place(_Pnode->_Left, _Pnode);

  000ab	8d 45 f0	 lea	 eax, DWORD PTR __Pnode$5[ebp]
  000ae	50		 push	 eax
  000af	56		 push	 esi
  000b0	89 75 f0	 mov	 DWORD PTR __Pnode$5[ebp], esi
  000b3	e8 00 00 00 00	 call	 ??$_Construct_in_place@PAU?$_Tree_node@U?$pair@$$CBKPAUSTextTail@CPythonTextTail@@@std@@PAX@std@@ABQAU12@@std@@YAXAAPAU?$_Tree_node@U?$pair@$$CBKPAUSTextTail@CPythonTextTail@@@std@@PAX@0@ABQAU10@@Z ; std::_Construct_in_place<std::_Tree_node<std::pair<unsigned long const ,CPythonTextTail::STextTail *>,void *> *,std::_Tree_node<std::pair<unsigned long const ,CPythonTextTail::STextTail *>,void *> * const &>

; 345  :         _Construct_in_place(_Pnode->_Parent, _Pnode);

  000b8	8d 45 f0	 lea	 eax, DWORD PTR __Pnode$5[ebp]
  000bb	50		 push	 eax
  000bc	8d 4e 04	 lea	 ecx, DWORD PTR [esi+4]
  000bf	51		 push	 ecx
  000c0	e8 00 00 00 00	 call	 ??$_Construct_in_place@PAU?$_Tree_node@U?$pair@$$CBKPAUSTextTail@CPythonTextTail@@@std@@PAX@std@@ABQAU12@@std@@YAXAAPAU?$_Tree_node@U?$pair@$$CBKPAUSTextTail@CPythonTextTail@@@std@@PAX@0@ABQAU10@@Z ; std::_Construct_in_place<std::_Tree_node<std::pair<unsigned long const ,CPythonTextTail::STextTail *>,void *> *,std::_Tree_node<std::pair<unsigned long const ,CPythonTextTail::STextTail *>,void *> * const &>

; 346  :         _Construct_in_place(_Pnode->_Right, _Pnode);

  000c5	8d 45 f0	 lea	 eax, DWORD PTR __Pnode$5[ebp]
  000c8	50		 push	 eax
  000c9	8d 46 08	 lea	 eax, DWORD PTR [esi+8]
  000cc	50		 push	 eax
  000cd	e8 00 00 00 00	 call	 ??$_Construct_in_place@PAU?$_Tree_node@U?$pair@$$CBKPAUSTextTail@CPythonTextTail@@@std@@PAX@std@@ABQAU12@@std@@YAXAAPAU?$_Tree_node@U?$pair@$$CBKPAUSTextTail@CPythonTextTail@@@std@@PAX@0@ABQAU10@@Z ; std::_Construct_in_place<std::_Tree_node<std::pair<unsigned long const ,CPythonTextTail::STextTail *>,void *> *,std::_Tree_node<std::pair<unsigned long const ,CPythonTextTail::STextTail *>,void *> * const &>

; 347  :         _Pnode->_Color = _Black;

  000d2	66 c7 46 0c 01
	01		 mov	 WORD PTR [esi+12], 257	; 00000101H

; 2021 :         _Scary->_Myhead = _Node::_Buyheadnode(_Getal());

  000d8	89 37		 mov	 DWORD PTR [edi], esi
; File D:\Metin2 Server Files\mainline\SRC_2014\Metin2Client\UserInterface\PythonTextTail.cpp

; 1021 : {

  000da	8d 7b 14	 lea	 edi, DWORD PTR [ebx+20]
  000dd	c6 45 fc 02	 mov	 BYTE PTR __$EHRec$[ebp+8], 2
  000e1	89 7d f0	 mov	 DWORD PTR _this$[ebp], edi
; File C:\Program Files (x86)\Microsoft Visual Studio\2019\Community\VC\Tools\MSVC\14.28.29333\include\xmemory

; 814  :         return static_cast<_Ty*>(_Allocate<_New_alignof<_Ty>>(_Get_size_of_n<sizeof(_Ty)>(_Count)));

  000e4	6a 18		 push	 24			; 00000018H
; File C:\Program Files (x86)\Microsoft Visual Studio\2019\Community\VC\Tools\MSVC\14.28.29333\include\xtree

; 435  :     _Tree_val() noexcept : _Myhead(), _Mysize(0) {}

  000e6	c7 07 00 00 00
	00		 mov	 DWORD PTR [edi], 0
  000ec	c7 47 04 00 00
	00 00		 mov	 DWORD PTR [edi+4], 0
; File C:\Program Files (x86)\Microsoft Visual Studio\2019\Community\VC\Tools\MSVC\14.28.29333\include\xmemory

; 814  :         return static_cast<_Ty*>(_Allocate<_New_alignof<_Ty>>(_Get_size_of_n<sizeof(_Ty)>(_Count)));

  000f3	e8 00 00 00 00	 call	 ??$_Allocate@$07U_Default_allocate_traits@std@@$0A@@std@@YAPAXI@Z ; std::_Allocate<8,std::_Default_allocate_traits,0>
; File C:\Program Files (x86)\Microsoft Visual Studio\2019\Community\VC\Tools\MSVC\14.28.29333\include\xtree

; 343  :         const auto _Pnode = _Al.allocate(1);

  000f8	8b f0		 mov	 esi, eax

; 344  :         _Construct_in_place(_Pnode->_Left, _Pnode);

  000fa	8d 45 f0	 lea	 eax, DWORD PTR __Pnode$4[ebp]
  000fd	50		 push	 eax
  000fe	56		 push	 esi
  000ff	89 75 f0	 mov	 DWORD PTR __Pnode$4[ebp], esi
  00102	e8 00 00 00 00	 call	 ??$_Construct_in_place@PAU?$_Tree_node@U?$pair@$$CBKPAUSTextTail@CPythonTextTail@@@std@@PAX@std@@ABQAU12@@std@@YAXAAPAU?$_Tree_node@U?$pair@$$CBKPAUSTextTail@CPythonTextTail@@@std@@PAX@0@ABQAU10@@Z ; std::_Construct_in_place<std::_Tree_node<std::pair<unsigned long const ,CPythonTextTail::STextTail *>,void *> *,std::_Tree_node<std::pair<unsigned long const ,CPythonTextTail::STextTail *>,void *> * const &>
  00107	83 c4 44	 add	 esp, 68			; 00000044H

; 345  :         _Construct_in_place(_Pnode->_Parent, _Pnode);

  0010a	8d 45 f0	 lea	 eax, DWORD PTR __Pnode$4[ebp]
  0010d	8d 4e 04	 lea	 ecx, DWORD PTR [esi+4]
  00110	50		 push	 eax
  00111	51		 push	 ecx
  00112	e8 00 00 00 00	 call	 ??$_Construct_in_place@PAU?$_Tree_node@U?$pair@$$CBKPAUSTextTail@CPythonTextTail@@@std@@PAX@std@@ABQAU12@@std@@YAXAAPAU?$_Tree_node@U?$pair@$$CBKPAUSTextTail@CPythonTextTail@@@std@@PAX@0@ABQAU10@@Z ; std::_Construct_in_place<std::_Tree_node<std::pair<unsigned long const ,CPythonTextTail::STextTail *>,void *> *,std::_Tree_node<std::pair<unsigned long const ,CPythonTextTail::STextTail *>,void *> * const &>

; 346  :         _Construct_in_place(_Pnode->_Right, _Pnode);

  00117	8d 45 f0	 lea	 eax, DWORD PTR __Pnode$4[ebp]
  0011a	50		 push	 eax
  0011b	8d 46 08	 lea	 eax, DWORD PTR [esi+8]
  0011e	50		 push	 eax
  0011f	e8 00 00 00 00	 call	 ??$_Construct_in_place@PAU?$_Tree_node@U?$pair@$$CBKPAUSTextTail@CPythonTextTail@@@std@@PAX@std@@ABQAU12@@std@@YAXAAPAU?$_Tree_node@U?$pair@$$CBKPAUSTextTail@CPythonTextTail@@@std@@PAX@0@ABQAU10@@Z ; std::_Construct_in_place<std::_Tree_node<std::pair<unsigned long const ,CPythonTextTail::STextTail *>,void *> *,std::_Tree_node<std::pair<unsigned long const ,CPythonTextTail::STextTail *>,void *> * const &>

; 347  :         _Pnode->_Color = _Black;

  00124	66 c7 46 0c 01
	01		 mov	 WORD PTR [esi+12], 257	; 00000101H

; 2021 :         _Scary->_Myhead = _Node::_Buyheadnode(_Getal());

  0012a	89 37		 mov	 DWORD PTR [edi], esi
; File C:\Program Files (x86)\Microsoft Visual Studio\2019\Community\VC\Tools\MSVC\14.28.29333\include\xmemory

; 814  :         return static_cast<_Ty*>(_Allocate<_New_alignof<_Ty>>(_Get_size_of_n<sizeof(_Ty)>(_Count)));

  0012c	6a 0c		 push	 12			; 0000000cH
; File D:\Metin2 Server Files\mainline\SRC_2014\Metin2Client\UserInterface\PythonTextTail.cpp

; 1021 : {

  0012e	c6 45 fc 03	 mov	 BYTE PTR __$EHRec$[ebp+8], 3
; File C:\Program Files (x86)\Microsoft Visual Studio\2019\Community\VC\Tools\MSVC\14.28.29333\include\list

; 354  :     _List_val() noexcept : _Myhead(), _Mysize(0) {} // initialize data

  00132	c7 43 1c 00 00
	00 00		 mov	 DWORD PTR [ebx+28], 0
  00139	c7 43 20 00 00
	00 00		 mov	 DWORD PTR [ebx+32], 0
; File C:\Program Files (x86)\Microsoft Visual Studio\2019\Community\VC\Tools\MSVC\14.28.29333\include\xmemory

; 814  :         return static_cast<_Ty*>(_Allocate<_New_alignof<_Ty>>(_Get_size_of_n<sizeof(_Ty)>(_Count)));

  00140	e8 00 00 00 00	 call	 ??$_Allocate@$07U_Default_allocate_traits@std@@$0A@@std@@YAPAXI@Z ; std::_Allocate<8,std::_Default_allocate_traits,0>
; File C:\Program Files (x86)\Microsoft Visual Studio\2019\Community\VC\Tools\MSVC\14.28.29333\include\list

; 1775 :         auto _Newhead = _Al.allocate(1);

  00145	8b f0		 mov	 esi, eax

; 1776 :         _Construct_in_place(_Newhead->_Next, _Newhead);

  00147	8d 45 f0	 lea	 eax, DWORD PTR __Newhead$3[ebp]
  0014a	50		 push	 eax
  0014b	56		 push	 esi
  0014c	89 75 f0	 mov	 DWORD PTR __Newhead$3[ebp], esi
  0014f	e8 00 00 00 00	 call	 ??$_Construct_in_place@PAU?$_List_node@PAUSTextTail@CPythonTextTail@@PAX@std@@AAPAU12@@std@@YAXAAPAU?$_List_node@PAUSTextTail@CPythonTextTail@@PAX@0@0@Z ; std::_Construct_in_place<std::_List_node<CPythonTextTail::STextTail *,void *> *,std::_List_node<CPythonTextTail::STextTail *,void *> * &>

; 1777 :         _Construct_in_place(_Newhead->_Prev, _Newhead);

  00154	8d 45 f0	 lea	 eax, DWORD PTR __Newhead$3[ebp]
  00157	50		 push	 eax
  00158	8d 4e 04	 lea	 ecx, DWORD PTR [esi+4]
  0015b	51		 push	 ecx
  0015c	e8 00 00 00 00	 call	 ??$_Construct_in_place@PAU?$_List_node@PAUSTextTail@CPythonTextTail@@PAX@std@@AAPAU12@@std@@YAXAAPAU?$_List_node@PAUSTextTail@CPythonTextTail@@PAX@0@0@Z ; std::_Construct_in_place<std::_List_node<CPythonTextTail::STextTail *,void *> *,std::_List_node<CPythonTextTail::STextTail *,void *> * &>

; 1778 :         _Mypair._Myval2._Myhead = _Newhead;

  00161	89 73 1c	 mov	 DWORD PTR [ebx+28], esi
; File C:\Program Files (x86)\Microsoft Visual Studio\2019\Community\VC\Tools\MSVC\14.28.29333\include\xmemory

; 814  :         return static_cast<_Ty*>(_Allocate<_New_alignof<_Ty>>(_Get_size_of_n<sizeof(_Ty)>(_Count)));

  00164	6a 0c		 push	 12			; 0000000cH
; File D:\Metin2 Server Files\mainline\SRC_2014\Metin2Client\UserInterface\PythonTextTail.cpp

; 1021 : {

  00166	c6 45 fc 04	 mov	 BYTE PTR __$EHRec$[ebp+8], 4
; File C:\Program Files (x86)\Microsoft Visual Studio\2019\Community\VC\Tools\MSVC\14.28.29333\include\list

; 354  :     _List_val() noexcept : _Myhead(), _Mysize(0) {} // initialize data

  0016a	c7 43 24 00 00
	00 00		 mov	 DWORD PTR [ebx+36], 0
  00171	c7 43 28 00 00
	00 00		 mov	 DWORD PTR [ebx+40], 0
; File C:\Program Files (x86)\Microsoft Visual Studio\2019\Community\VC\Tools\MSVC\14.28.29333\include\xmemory

; 814  :         return static_cast<_Ty*>(_Allocate<_New_alignof<_Ty>>(_Get_size_of_n<sizeof(_Ty)>(_Count)));

  00178	e8 00 00 00 00	 call	 ??$_Allocate@$07U_Default_allocate_traits@std@@$0A@@std@@YAPAXI@Z ; std::_Allocate<8,std::_Default_allocate_traits,0>
; File C:\Program Files (x86)\Microsoft Visual Studio\2019\Community\VC\Tools\MSVC\14.28.29333\include\list

; 1775 :         auto _Newhead = _Al.allocate(1);

  0017d	8b f0		 mov	 esi, eax

; 1776 :         _Construct_in_place(_Newhead->_Next, _Newhead);

  0017f	8d 45 f0	 lea	 eax, DWORD PTR __Newhead$2[ebp]
  00182	50		 push	 eax
  00183	56		 push	 esi
  00184	89 75 f0	 mov	 DWORD PTR __Newhead$2[ebp], esi
  00187	e8 00 00 00 00	 call	 ??$_Construct_in_place@PAU?$_List_node@PAUSTextTail@CPythonTextTail@@PAX@std@@AAPAU12@@std@@YAXAAPAU?$_List_node@PAUSTextTail@CPythonTextTail@@PAX@0@0@Z ; std::_Construct_in_place<std::_List_node<CPythonTextTail::STextTail *,void *> *,std::_List_node<CPythonTextTail::STextTail *,void *> * &>

; 1777 :         _Construct_in_place(_Newhead->_Prev, _Newhead);

  0018c	8d 45 f0	 lea	 eax, DWORD PTR __Newhead$2[ebp]
  0018f	50		 push	 eax
  00190	8d 4e 04	 lea	 ecx, DWORD PTR [esi+4]
  00193	51		 push	 ecx
  00194	e8 00 00 00 00	 call	 ??$_Construct_in_place@PAU?$_List_node@PAUSTextTail@CPythonTextTail@@PAX@std@@AAPAU12@@std@@YAXAAPAU?$_List_node@PAUSTextTail@CPythonTextTail@@PAX@0@0@Z ; std::_Construct_in_place<std::_List_node<CPythonTextTail::STextTail *,void *> *,std::_List_node<CPythonTextTail::STextTail *,void *> * &>

; 1778 :         _Mypair._Myval2._Myhead = _Newhead;

  00199	89 73 24	 mov	 DWORD PTR [ebx+36], esi
  0019c	83 c4 38	 add	 esp, 56			; 00000038H
; File D:\Metin2 Server Files\mainline\SRC_2014\Metin2Client\UserInterface\PythonTextTail.cpp

; 1022 : 	Clear();

  0019f	8b cb		 mov	 ecx, ebx
; File D:\Metin2 Server Files\mainline\SRC_2014\Metin2Client\eterLib\Pool.h

; 12   : 		{

  001a1	c7 43 2c 00 00
	00 00		 mov	 DWORD PTR [ebx+44], OFFSET ??_7?$CDynamicPool@USTextTail@CPythonTextTail@@@@6B@
; File C:\Program Files (x86)\Microsoft Visual Studio\2019\Community\VC\Tools\MSVC\14.28.29333\include\vector

; 375  :     _Vector_val() noexcept : _Myfirst(), _Mylast(), _Myend() {}

  001a8	c7 43 30 00 00
	00 00		 mov	 DWORD PTR [ebx+48], 0
  001af	c7 43 34 00 00
	00 00		 mov	 DWORD PTR [ebx+52], 0
  001b6	c7 43 38 00 00
	00 00		 mov	 DWORD PTR [ebx+56], 0
  001bd	c7 43 3c 00 00
	00 00		 mov	 DWORD PTR [ebx+60], 0
  001c4	c7 43 40 00 00
	00 00		 mov	 DWORD PTR [ebx+64], 0
  001cb	c7 43 44 00 00
	00 00		 mov	 DWORD PTR [ebx+68], 0
; File D:\Metin2 Server Files\mainline\SRC_2014\Metin2Client\eterLib\Pool.h

; 14   : 			m_uInitCapacity=0;

  001d2	c7 43 48 00 00
	00 00		 mov	 DWORD PTR [ebx+72], 0

; 15   : 			m_uUsedCapacity=0;

  001d9	c7 43 4c 00 00
	00 00		 mov	 DWORD PTR [ebx+76], 0
; File D:\Metin2 Server Files\mainline\SRC_2014\Metin2Client\UserInterface\PythonTextTail.cpp

; 1022 : 	Clear();

  001e0	e8 00 00 00 00	 call	 ?Clear@CPythonTextTail@@QAEXXZ ; CPythonTextTail::Clear

; 1023 : }

  001e5	8b c3		 mov	 eax, ebx
  001e7	8b 4d f4	 mov	 ecx, DWORD PTR __$EHRec$[ebp]
  001ea	64 89 0d 00 00
	00 00		 mov	 DWORD PTR fs:0, ecx
  001f1	59		 pop	 ecx
  001f2	5f		 pop	 edi
  001f3	5e		 pop	 esi
  001f4	5b		 pop	 ebx
  001f5	8b e5		 mov	 esp, ebp
  001f7	5d		 pop	 ebp
  001f8	c3		 ret	 0
_TEXT	ENDS
;	COMDAT text$x
text$x	SEGMENT
__unwindfunclet$??0CPythonTextTail@@QAE@XZ$0:
  00000	8b 4d ec	 mov	 ecx, DWORD PTR _this$[ebp]
  00003	e9 00 00 00 00	 jmp	 ??1?$CSingleton@VCPythonTextTail@@@@UAE@XZ ; CSingleton<CPythonTextTail>::~CSingleton<CPythonTextTail>
__unwindfunclet$??0CPythonTextTail@@QAE@XZ$1:
  00008	8b 4d ec	 mov	 ecx, DWORD PTR _this$[ebp]
  0000b	83 c1 04	 add	 ecx, 4
  0000e	e9 00 00 00 00	 jmp	 ??1?$map@KPAUSTextTail@CPythonTextTail@@U?$less@K@std@@V?$allocator@U?$pair@$$CBKPAUSTextTail@CPythonTextTail@@@std@@@4@@std@@QAE@XZ
__unwindfunclet$??0CPythonTextTail@@QAE@XZ$2:
  00013	8b 4d ec	 mov	 ecx, DWORD PTR _this$[ebp]
  00016	83 c1 0c	 add	 ecx, 12			; 0000000cH
  00019	e9 00 00 00 00	 jmp	 ??1?$map@KPAUSTextTail@CPythonTextTail@@U?$less@K@std@@V?$allocator@U?$pair@$$CBKPAUSTextTail@CPythonTextTail@@@std@@@4@@std@@QAE@XZ
__unwindfunclet$??0CPythonTextTail@@QAE@XZ$3:
  0001e	8b 4d ec	 mov	 ecx, DWORD PTR _this$[ebp]
  00021	83 c1 14	 add	 ecx, 20			; 00000014H
  00024	e9 00 00 00 00	 jmp	 ??1?$map@KPAUSTextTail@CPythonTextTail@@U?$less@K@std@@V?$allocator@U?$pair@$$CBKPAUSTextTail@CPythonTextTail@@@std@@@4@@std@@QAE@XZ
__unwindfunclet$??0CPythonTextTail@@QAE@XZ$4:
  00029	8b 4d ec	 mov	 ecx, DWORD PTR _this$[ebp]
  0002c	83 c1 1c	 add	 ecx, 28			; 0000001cH
  0002f	e9 00 00 00 00	 jmp	 ??1?$list@PAUSTextTail@CPythonTextTail@@V?$allocator@PAUSTextTail@CPythonTextTail@@@std@@@std@@QAE@XZ ; std::list<CPythonTextTail::STextTail *,std::allocator<CPythonTextTail::STextTail *> >::~list<CPythonTextTail::STextTail *,std::allocator<CPythonTextTail::STextTail *> >
  00034	cc		 int	 3
  00035	cc		 int	 3
  00036	cc		 int	 3
  00037	cc		 int	 3
  00038	cc		 int	 3
__ehhandler$??0CPythonTextTail@@QAE@XZ:
  00039	90		 npad	 1
  0003a	90		 npad	 1
  0003b	8b 54 24 08	 mov	 edx, DWORD PTR [esp+8]
  0003f	8d 42 0c	 lea	 eax, DWORD PTR [edx+12]
  00042	8b 4a e8	 mov	 ecx, DWORD PTR [edx-24]
  00045	33 c8		 xor	 ecx, eax
  00047	e8 00 00 00 00	 call	 @__security_check_cookie@4
  0004c	b8 00 00 00 00	 mov	 eax, OFFSET __ehfuncinfo$??0CPythonTextTail@@QAE@XZ
  00051	e9 00 00 00 00	 jmp	 ___CxxFrameHandler3
text$x	ENDS
??0CPythonTextTail@@QAE@XZ ENDP				; CPythonTextTail::CPythonTextTail
; Function compile flags: /Ogtp
;	COMDAT ??_GSTextTail@CPythonTextTail@@UAEPAXI@Z
_TEXT	SEGMENT
___flags$ = 8						; size = 4
??_GSTextTail@CPythonTextTail@@UAEPAXI@Z PROC		; CPythonTextTail::STextTail::`scalar deleting destructor', COMDAT
; _this$ = ecx
  00000	55		 push	 ebp
  00001	8b ec		 mov	 ebp, esp
  00003	f6 45 08 01	 test	 BYTE PTR ___flags$[ebp], 1
  00007	56		 push	 esi
  00008	8b f1		 mov	 esi, ecx
  0000a	c7 06 00 00 00
	00		 mov	 DWORD PTR [esi], OFFSET ??_7STextTail@CPythonTextTail@@6B@
  00010	74 0b		 je	 SHORT $LN4@scalar
  00012	6a 60		 push	 96			; 00000060H
  00014	56		 push	 esi
  00015	e8 00 00 00 00	 call	 ??3@YAXPAXI@Z		; operator delete
  0001a	83 c4 08	 add	 esp, 8
$LN4@scalar:
  0001d	8b c6		 mov	 eax, esi
  0001f	5e		 pop	 esi
  00020	5d		 pop	 ebp
  00021	c2 04 00	 ret	 4
??_GSTextTail@CPythonTextTail@@UAEPAXI@Z ENDP		; CPythonTextTail::STextTail::`scalar deleting destructor'
_TEXT	ENDS
; Function compile flags: /Ogtp
; File D:\Metin2 Server Files\mainline\SRC_2014\Metin2Client\UserInterface\PythonTextTail.h
;	COMDAT ??1STextTail@CPythonTextTail@@UAE@XZ
_TEXT	SEGMENT
??1STextTail@CPythonTextTail@@UAE@XZ PROC		; CPythonTextTail::STextTail::~STextTail, COMDAT
; _this$ = ecx

; 42   : 			virtual ~STextTail() {}

  00000	c7 01 00 00 00
	00		 mov	 DWORD PTR [ecx], OFFSET ??_7STextTail@CPythonTextTail@@6B@
  00006	c3		 ret	 0
??1STextTail@CPythonTextTail@@UAE@XZ ENDP		; CPythonTextTail::STextTail::~STextTail
_TEXT	ENDS
; Function compile flags: /Ogtp
; File D:\Metin2 Server Files\mainline\SRC_2014\Metin2Client\eterBase\Singleton.h
;	COMDAT ??_G?$CSingleton@VCPythonTextTail@@@@UAEPAXI@Z
_TEXT	SEGMENT
___flags$ = 8						; size = 4
??_G?$CSingleton@VCPythonTextTail@@@@UAEPAXI@Z PROC	; CSingleton<CPythonTextTail>::`scalar deleting destructor', COMDAT
; _this$ = ecx
  00000	55		 push	 ebp
  00001	8b ec		 mov	 ebp, esp
  00003	f6 45 08 01	 test	 BYTE PTR ___flags$[ebp], 1

; 19   : 	{ 

  00007	56		 push	 esi
  00008	8b f1		 mov	 esi, ecx
  0000a	c7 06 00 00 00
	00		 mov	 DWORD PTR [esi], OFFSET ??_7?$CSingleton@VCPythonTextTail@@@@6B@

; 20   : 		assert(ms_singleton);
; 21   : 		ms_singleton = 0; 

  00010	c7 05 00 00 00
	00 00 00 00 00	 mov	 DWORD PTR ?ms_singleton@?$CSingleton@VCPythonTextTail@@@@0PAVCPythonTextTail@@A, 0 ; CSingleton<CPythonTextTail>::ms_singleton
  0001a	74 0b		 je	 SHORT $LN6@scalar
  0001c	6a 04		 push	 4
  0001e	56		 push	 esi
  0001f	e8 00 00 00 00	 call	 ??3@YAXPAXI@Z		; operator delete
  00024	83 c4 08	 add	 esp, 8
$LN6@scalar:
  00027	8b c6		 mov	 eax, esi
  00029	5e		 pop	 esi
  0002a	5d		 pop	 ebp
  0002b	c2 04 00	 ret	 4
??_G?$CSingleton@VCPythonTextTail@@@@UAEPAXI@Z ENDP	; CSingleton<CPythonTextTail>::`scalar deleting destructor'
_TEXT	ENDS
; Function compile flags: /Ogtp
; File D:\Metin2 Server Files\mainline\SRC_2014\Metin2Client\eterBase\Singleton.h
;	COMDAT ??1?$CSingleton@VCPythonTextTail@@@@UAE@XZ
_TEXT	SEGMENT
??1?$CSingleton@VCPythonTextTail@@@@UAE@XZ PROC		; CSingleton<CPythonTextTail>::~CSingleton<CPythonTextTail>, COMDAT
; _this$ = ecx

; 19   : 	{ 

  00000	c7 01 00 00 00
	00		 mov	 DWORD PTR [ecx], OFFSET ??_7?$CSingleton@VCPythonTextTail@@@@6B@

; 20   : 		assert(ms_singleton);
; 21   : 		ms_singleton = 0; 

  00006	c7 05 00 00 00
	00 00 00 00 00	 mov	 DWORD PTR ?ms_singleton@?$CSingleton@VCPythonTextTail@@@@0PAVCPythonTextTail@@A, 0 ; CSingleton<CPythonTextTail>::ms_singleton

; 22   : 	}

  00010	c3		 ret	 0
??1?$CSingleton@VCPythonTextTail@@@@UAE@XZ ENDP		; CSingleton<CPythonTextTail>::~CSingleton<CPythonTextTail>
_TEXT	ENDS
; Function compile flags: /Ogtp
; File C:\Program Files (x86)\Microsoft Visual Studio\2019\Community\VC\Tools\MSVC\14.28.29333\include\xmemory
;	COMDAT ??$_Allocate_manually_vector_aligned@U_Default_allocate_traits@std@@@std@@YAPAXI@Z
_TEXT	SEGMENT
__Bytes$ = 8						; size = 4
??$_Allocate_manually_vector_aligned@U_Default_allocate_traits@std@@@std@@YAPAXI@Z PROC ; std::_Allocate_manually_vector_aligned<std::_Default_allocate_traits>, COMDAT

; 113  : __declspec(allocator) void* _Allocate_manually_vector_aligned(const size_t _Bytes) {

  00000	55		 push	 ebp
  00001	8b ec		 mov	 ebp, esp

; 114  :     // allocate _Bytes manually aligned to at least _Big_allocation_alignment
; 115  :     const size_t _Block_size = _Non_user_size + _Bytes;

  00003	8b 45 08	 mov	 eax, DWORD PTR __Bytes$[ebp]
  00006	8d 48 23	 lea	 ecx, DWORD PTR [eax+35]

; 116  :     if (_Block_size <= _Bytes) {

  00009	3b c8		 cmp	 ecx, eax
  0000b	0f 86 00 00 00
	00		 jbe	 ?_Throw_bad_array_new_length@std@@YAXXZ ; std::_Throw_bad_array_new_length

; 77   :         return ::operator new(_Bytes);

  00011	51		 push	 ecx
  00012	e8 00 00 00 00	 call	 ??2@YAPAXI@Z		; operator new

; 117  :         _Throw_bad_array_new_length(); // add overflow
; 118  :     }
; 119  : 
; 120  :     const uintptr_t _Ptr_container = reinterpret_cast<uintptr_t>(_Traits::_Allocate(_Block_size));

  00017	8b c8		 mov	 ecx, eax

; 77   :         return ::operator new(_Bytes);

  00019	83 c4 04	 add	 esp, 4

; 121  :     _STL_VERIFY(_Ptr_container != 0, "invalid argument"); // validate even in release since we're doing p[-1]

  0001c	85 c9		 test	 ecx, ecx
  0001e	74 0b		 je	 SHORT $LN7@Allocate_m

; 122  :     void* const _Ptr = reinterpret_cast<void*>((_Ptr_container + _Non_user_size) & ~(_Big_allocation_alignment - 1));

  00020	8d 41 23	 lea	 eax, DWORD PTR [ecx+35]
  00023	83 e0 e0	 and	 eax, -32		; ffffffe0H

; 123  :     static_cast<uintptr_t*>(_Ptr)[-1] = _Ptr_container;

  00026	89 48 fc	 mov	 DWORD PTR [eax-4], ecx

; 124  : 
; 125  : #ifdef _DEBUG
; 126  :     static_cast<uintptr_t*>(_Ptr)[-2] = _Big_allocation_sentinel;
; 127  : #endif // _DEBUG
; 128  :     return _Ptr;
; 129  : }

  00029	5d		 pop	 ebp
  0002a	c3		 ret	 0
$LN7@Allocate_m:

; 121  :     _STL_VERIFY(_Ptr_container != 0, "invalid argument"); // validate even in release since we're doing p[-1]

  0002b	e9 00 00 00 00	 jmp	 __invalid_parameter_noinfo_noreturn
??$_Allocate_manually_vector_aligned@U_Default_allocate_traits@std@@@std@@YAPAXI@Z ENDP ; std::_Allocate_manually_vector_aligned<std::_Default_allocate_traits>
_TEXT	ENDS
; Function compile flags: /Ogtp
; File C:\Program Files (x86)\Microsoft Visual Studio\2019\Community\VC\Tools\MSVC\14.28.29333\include\xmemory
;	COMDAT ??$_Allocate@$07U_Default_allocate_traits@std@@$0A@@std@@YAPAXI@Z
_TEXT	SEGMENT
__Bytes$ = 8						; size = 4
??$_Allocate@$07U_Default_allocate_traits@std@@$0A@@std@@YAPAXI@Z PROC ; std::_Allocate<8,std::_Default_allocate_traits,0>, COMDAT

; 197  : __declspec(allocator) void* _Allocate(const size_t _Bytes) {

  00000	55		 push	 ebp
  00001	8b ec		 mov	 ebp, esp

; 198  :     // allocate _Bytes when !_HAS_ALIGNED_NEW || _Align <= __STDCPP_DEFAULT_NEW_ALIGNMENT__
; 199  : #if defined(_M_IX86) || defined(_M_X64)
; 200  :     if (_Bytes >= _Big_allocation_threshold) { // boost the alignment of big allocations to help autovectorization

  00003	8b 45 08	 mov	 eax, DWORD PTR __Bytes$[ebp]
  00006	3d 00 10 00 00	 cmp	 eax, 4096		; 00001000H
  0000b	72 09		 jb	 SHORT $LN2@Allocate

; 201  :         return _Allocate_manually_vector_aligned<_Traits>(_Bytes);

  0000d	89 45 08	 mov	 DWORD PTR __Bytes$[ebp], eax

; 210  : }

  00010	5d		 pop	 ebp

; 201  :         return _Allocate_manually_vector_aligned<_Traits>(_Bytes);

  00011	e9 00 00 00 00	 jmp	 ??$_Allocate_manually_vector_aligned@U_Default_allocate_traits@std@@@std@@YAPAXI@Z ; std::_Allocate_manually_vector_aligned<std::_Default_allocate_traits>
$LN2@Allocate:

; 202  :     }
; 203  : #endif // defined(_M_IX86) || defined(_M_X64)
; 204  : 
; 205  :     if (_Bytes != 0) {

  00016	85 c0		 test	 eax, eax
  00018	74 09		 je	 SHORT $LN3@Allocate

; 77   :         return ::operator new(_Bytes);

  0001a	89 45 08	 mov	 DWORD PTR __Bytes$[ebp], eax

; 210  : }

  0001d	5d		 pop	 ebp

; 77   :         return ::operator new(_Bytes);

  0001e	e9 00 00 00 00	 jmp	 ??2@YAPAXI@Z		; operator new
$LN3@Allocate:

; 206  :         return _Traits::_Allocate(_Bytes);
; 207  :     }
; 208  : 
; 209  :     return nullptr;

  00023	33 c0		 xor	 eax, eax

; 210  : }

  00025	5d		 pop	 ebp
  00026	c3		 ret	 0
??$_Allocate@$07U_Default_allocate_traits@std@@$0A@@std@@YAPAXI@Z ENDP ; std::_Allocate<8,std::_Default_allocate_traits,0>
_TEXT	ENDS
; Function compile flags: /Ogtp
; File C:\Program Files (x86)\Microsoft Visual Studio\2019\Community\VC\Tools\MSVC\14.28.29333\include\xmemory
;	COMDAT ??$_Deallocate@$07$0A@@std@@YAXPAXI@Z
_TEXT	SEGMENT
__Ptr$ = 8						; size = 4
__Bytes$ = 12						; size = 4
??$_Deallocate@$07$0A@@std@@YAXPAXI@Z PROC		; std::_Deallocate<8,0>, COMDAT

; 213  : void _Deallocate(void* _Ptr, size_t _Bytes) noexcept {

  00000	55		 push	 ebp
  00001	8b ec		 mov	 ebp, esp

; 214  :     // deallocate storage allocated by _Allocate when !_HAS_ALIGNED_NEW || _Align <= __STDCPP_DEFAULT_NEW_ALIGNMENT__
; 215  : #if defined(_M_IX86) || defined(_M_X64)
; 216  :     if (_Bytes >= _Big_allocation_threshold) { // boost the alignment of big allocations to help autovectorization

  00003	8b 4d 0c	 mov	 ecx, DWORD PTR __Bytes$[ebp]
  00006	81 f9 00 10 00
	00		 cmp	 ecx, 4096		; 00001000H
  0000c	72 18		 jb	 SHORT $LN15@Deallocate

; 137  :     const uintptr_t _Ptr_container   = _Ptr_user[-1];

  0000e	8b 45 08	 mov	 eax, DWORD PTR __Ptr$[ebp]
  00011	83 c1 23	 add	 ecx, 35			; 00000023H
  00014	8b 50 fc	 mov	 edx, DWORD PTR [eax-4]

; 138  : 
; 139  :     // If the following asserts, it likely means that we are performing
; 140  :     // an aligned delete on memory coming from an unaligned allocation.
; 141  :     _STL_ASSERT(_Ptr_user[-2] == _Big_allocation_sentinel, "invalid argument");
; 142  : 
; 143  :     // Extra paranoia on aligned allocation/deallocation; ensure _Ptr_container is
; 144  :     // in range [_Min_back_shift, _Non_user_size]
; 145  : #ifdef _DEBUG
; 146  :     constexpr uintptr_t _Min_back_shift = 2 * sizeof(void*);
; 147  : #else // ^^^ _DEBUG ^^^ // vvv !_DEBUG vvv
; 148  :     constexpr uintptr_t _Min_back_shift = sizeof(void*);
; 149  : #endif // _DEBUG
; 150  :     const uintptr_t _Back_shift = reinterpret_cast<uintptr_t>(_Ptr) - _Ptr_container;

  00017	2b c2		 sub	 eax, edx

; 151  :     _STL_VERIFY(_Back_shift >= _Min_back_shift && _Back_shift <= _Non_user_size, "invalid argument");

  00019	83 c0 fc	 add	 eax, -4			; fffffffcH
  0001c	83 f8 1f	 cmp	 eax, 31			; 0000001fH
  0001f	76 08		 jbe	 SHORT $LN13@Deallocate
  00021	e9 00 00 00 00	 jmp	 __invalid_parameter_noinfo_noreturn
$LN15@Deallocate:

; 214  :     // deallocate storage allocated by _Allocate when !_HAS_ALIGNED_NEW || _Align <= __STDCPP_DEFAULT_NEW_ALIGNMENT__
; 215  : #if defined(_M_IX86) || defined(_M_X64)
; 216  :     if (_Bytes >= _Big_allocation_threshold) { // boost the alignment of big allocations to help autovectorization

  00026	8b 55 08	 mov	 edx, DWORD PTR __Ptr$[ebp]
$LN13@Deallocate:

; 217  :         _Adjust_manually_vector_aligned(_Ptr, _Bytes);
; 218  :     }
; 219  : #endif // defined(_M_IX86) || defined(_M_X64)
; 220  : 
; 221  :     ::operator delete(_Ptr, _Bytes);

  00029	89 4d 0c	 mov	 DWORD PTR __Bytes$[ebp], ecx
  0002c	89 55 08	 mov	 DWORD PTR __Ptr$[ebp], edx

; 222  : }

  0002f	5d		 pop	 ebp

; 217  :         _Adjust_manually_vector_aligned(_Ptr, _Bytes);
; 218  :     }
; 219  : #endif // defined(_M_IX86) || defined(_M_X64)
; 220  : 
; 221  :     ::operator delete(_Ptr, _Bytes);

  00030	e9 00 00 00 00	 jmp	 ??3@YAXPAXI@Z		; operator delete
??$_Deallocate@$07$0A@@std@@YAXPAXI@Z ENDP		; std::_Deallocate<8,0>
_TEXT	ENDS
; Function compile flags: /Ogtp
; File C:\Program Files (x86)\Microsoft Visual Studio\2019\Community\VC\Tools\MSVC\14.28.29333\include\xmemory
;	COMDAT ??$_Construct_in_place@PADABQAD@std@@YAXAAPADABQAD@Z
_TEXT	SEGMENT
__Obj$ = 8						; size = 4
_<_Args_0>$ = 12					; size = 4
??$_Construct_in_place@PADABQAD@std@@YAXAAPADABQAD@Z PROC ; std::_Construct_in_place<char *,char * const &>, COMDAT

; 228  : void _Construct_in_place(_Ty& _Obj, _Types&&... _Args) noexcept(is_nothrow_constructible_v<_Ty, _Types...>) {

  00000	55		 push	 ebp
  00001	8b ec		 mov	 ebp, esp

; 229  :     ::new (const_cast<void*>(static_cast<const volatile void*>(_STD addressof(_Obj))))

  00003	8b 45 0c	 mov	 eax, DWORD PTR _<_Args_0>$[ebp]
  00006	8b 08		 mov	 ecx, DWORD PTR [eax]
  00008	8b 45 08	 mov	 eax, DWORD PTR __Obj$[ebp]
  0000b	89 08		 mov	 DWORD PTR [eax], ecx

; 230  :         _Ty(_STD forward<_Types>(_Args)...);
; 231  : }

  0000d	5d		 pop	 ebp
  0000e	c3		 ret	 0
??$_Construct_in_place@PADABQAD@std@@YAXAAPADABQAD@Z ENDP ; std::_Construct_in_place<char *,char * const &>
_TEXT	ENDS
; Function compile flags: /Ogtp
; File C:\Program Files (x86)\Microsoft Visual Studio\2019\Community\VC\Tools\MSVC\14.28.29333\include\xmemory
;	COMDAT ??$_Destroy_in_place@PAD@std@@YAXAAPAD@Z
_TEXT	SEGMENT
__Obj$ = 8						; size = 4
??$_Destroy_in_place@PAD@std@@YAXAAPAD@Z PROC		; std::_Destroy_in_place<char *>, COMDAT

; 271  : #if _HAS_IF_CONSTEXPR
; 272  :     if constexpr (is_array_v<_Ty>) {
; 273  :         _Destroy_range(_Obj, _Obj + extent_v<_Ty>);
; 274  :     } else
; 275  : #endif // _HAS_IF_CONSTEXPR
; 276  :     {
; 277  :         _Obj.~_Ty();
; 278  :     }
; 279  : }

  00000	c2 00 00	 ret	 0
??$_Destroy_in_place@PAD@std@@YAXAAPAD@Z ENDP		; std::_Destroy_in_place<char *>
_TEXT	ENDS
; Function compile flags: /Ogtp
; File C:\Program Files (x86)\Microsoft Visual Studio\2019\Community\VC\Tools\MSVC\14.28.29333\include\xtree
;	COMDAT ?_Throw_tree_length_error@std@@YAXXZ
_TEXT	SEGMENT
?_Throw_tree_length_error@std@@YAXXZ PROC		; std::_Throw_tree_length_error, COMDAT

; 415  :     _Xlength_error("map/set too long");

  00000	68 00 00 00 00	 push	 OFFSET ??_C@_0BB@GCADKGJO@map?1set?5too?5long@
  00005	e8 00 00 00 00	 call	 ?_Xlength_error@std@@YAXPBD@Z ; std::_Xlength_error
$LN3@Throw_tree:
  0000a	cc		 int	 3
?_Throw_tree_length_error@std@@YAXXZ ENDP		; std::_Throw_tree_length_error
_TEXT	ENDS
; Function compile flags: /Ogtp
; File C:\Program Files (x86)\Microsoft Visual Studio\2019\Community\VC\Tools\MSVC\14.28.29333\include\xstring
; File C:\Program Files (x86)\Microsoft Visual Studio\2019\Community\VC\Tools\MSVC\14.28.29333\include\utility
; File C:\Program Files (x86)\Microsoft Visual Studio\2019\Community\VC\Tools\MSVC\14.28.29333\include\xstring
; File C:\Program Files (x86)\Microsoft Visual Studio\2019\Community\VC\Tools\MSVC\14.28.29333\include\xmemory
; File C:\Program Files (x86)\Microsoft Visual Studio\2019\Community\VC\Tools\MSVC\14.28.29333\include\xstring
; File C:\Program Files (x86)\Microsoft Visual Studio\2019\Community\VC\Tools\MSVC\14.28.29333\include\xmemory
; File C:\Program Files (x86)\Microsoft Visual Studio\2019\Community\VC\Tools\MSVC\14.28.29333\include\xstring
;	COMDAT ?assign@?$basic_string@DU?$char_traits@D@std@@V?$allocator@D@2@@std@@QAEAAV12@QBDI@Z
_TEXT	SEGMENT
__Old$1$ = -4						; size = 4
__Ptr$ = 8						; size = 4
__New_ptr$1 = 12					; size = 4
__Count$ = 12						; size = 4
?assign@?$basic_string@DU?$char_traits@D@std@@V?$allocator@D@2@@std@@QAEAAV12@QBDI@Z PROC ; std::basic_string<char,std::char_traits<char>,std::allocator<char> >::assign, COMDAT
; _this$ = ecx

; 3042 :     basic_string& assign(_In_reads_(_Count) const _Elem* const _Ptr, _CRT_GUARDOVERFLOW const size_type _Count) {

  00000	55		 push	 ebp
  00001	8b ec		 mov	 ebp, esp
  00003	51		 push	 ecx
  00004	53		 push	 ebx
  00005	56		 push	 esi
  00006	8b f1		 mov	 esi, ecx
  00008	57		 push	 edi

; 3043 :         // assign [_Ptr, _Ptr + _Count)
; 3044 :         if (_Count <= _Mypair._Myval2._Myres) {

  00009	8b 7d 0c	 mov	 edi, DWORD PTR __Count$[ebp]
  0000c	8b 4e 14	 mov	 ecx, DWORD PTR [esi+20]
  0000f	89 4d fc	 mov	 DWORD PTR __Old$1$[ebp], ecx
  00012	3b f9		 cmp	 edi, ecx
  00014	77 28		 ja	 SHORT $LN2@assign

; 2209 :         value_type* _Result = _Bx._Buf;

  00016	8b de		 mov	 ebx, esi

; 2227 :         return _BUF_SIZE <= _Myres;

  00018	83 f9 10	 cmp	 ecx, 16			; 00000010H

; 2210 :         if (_Large_string_engaged()) {

  0001b	72 02		 jb	 SHORT $LN5@assign

; 2211 :             _Result = _Unfancy(_Bx._Ptr);

  0001d	8b 1e		 mov	 ebx, DWORD PTR [esi]
$LN5@assign:

; 119  :         _CSTD memmove(_First1, _First2, _Count * sizeof(_Elem));

  0001f	57		 push	 edi
  00020	ff 75 08	 push	 DWORD PTR __Ptr$[ebp]

; 3045 :             _Elem* const _Old_ptr   = _Mypair._Myval2._Myptr();
; 3046 :             _Mypair._Myval2._Mysize = _Count;

  00023	89 7e 10	 mov	 DWORD PTR [esi+16], edi

; 119  :         _CSTD memmove(_First1, _First2, _Count * sizeof(_Elem));

  00026	53		 push	 ebx
  00027	e8 00 00 00 00	 call	 _memmove
  0002c	83 c4 0c	 add	 esp, 12			; 0000000cH

; 3047 :             _Traits::move(_Old_ptr, _Ptr, _Count);
; 3048 :             _Traits::assign(_Old_ptr[_Count], _Elem());

  0002f	c6 04 3b 00	 mov	 BYTE PTR [ebx+edi], 0

; 3059 :     }

  00033	8b c6		 mov	 eax, esi
  00035	5f		 pop	 edi
  00036	5e		 pop	 esi
  00037	5b		 pop	 ebx
  00038	8b e5		 mov	 esp, ebp
  0003a	5d		 pop	 ebp
  0003b	c2 08 00	 ret	 8
$LN2@assign:

; 4305 :         if (_New_size > max_size()) {

  0003e	81 ff ff ff ff
	7f		 cmp	 edi, 2147483647		; 7fffffffH
  00044	0f 87 91 00 00
	00		 ja	 $LN36@assign

; 4285 :         const size_type _Masked = _Requested | _ALLOC_MASK;

  0004a	8b df		 mov	 ebx, edi
  0004c	83 cb 0f	 or	 ebx, 15			; 0000000fH
  0004f	81 fb ff ff ff
	7f		 cmp	 ebx, 2147483647		; 7fffffffH

; 4286 :         if (_Masked > _Max) { // the mask overflows, settle for max_size()

  00055	76 07		 jbe	 SHORT $LN19@assign

; 4287 :             return _Max;

  00057	bb ff ff ff 7f	 mov	 ebx, 2147483647		; 7fffffffH
  0005c	eb 1e		 jmp	 SHORT $LN18@assign
$LN19@assign:

; 4288 :         }
; 4289 : 
; 4290 :         if (_Old > _Max - _Old / 2) { // similarly, geometric overflows

  0005e	8b d1		 mov	 edx, ecx
  00060	b8 ff ff ff 7f	 mov	 eax, 2147483647		; 7fffffffH
  00065	d1 ea		 shr	 edx, 1
  00067	2b c2		 sub	 eax, edx
  00069	3b c8		 cmp	 ecx, eax
  0006b	76 07		 jbe	 SHORT $LN20@assign

; 4291 :             return _Max;

  0006d	bb ff ff ff 7f	 mov	 ebx, 2147483647		; 7fffffffH
  00072	eb 08		 jmp	 SHORT $LN18@assign
$LN20@assign:

; 4292 :         }
; 4293 : 
; 4294 :         return (_STD max)(_Masked, _Old + _Old / 2);

  00074	8d 04 0a	 lea	 eax, DWORD PTR [edx+ecx]
; File C:\Program Files (x86)\Microsoft Visual Studio\2019\Community\VC\Tools\MSVC\14.28.29333\include\utility

; 44   :     return _Left < _Right ? _Right : _Left;

  00077	3b d8		 cmp	 ebx, eax
  00079	0f 42 d8	 cmovb	 ebx, eax
$LN18@assign:
; File C:\Program Files (x86)\Microsoft Visual Studio\2019\Community\VC\Tools\MSVC\14.28.29333\include\xstring

; 4312 :         const pointer _New_ptr        = _Al.allocate(_New_capacity + 1); // throws

  0007c	8d 43 01	 lea	 eax, DWORD PTR [ebx+1]
; File C:\Program Files (x86)\Microsoft Visual Studio\2019\Community\VC\Tools\MSVC\14.28.29333\include\xmemory

; 814  :         return static_cast<_Ty*>(_Allocate<_New_alignof<_Ty>>(_Get_size_of_n<sizeof(_Ty)>(_Count)));

  0007f	50		 push	 eax
  00080	e8 00 00 00 00	 call	 ??$_Allocate@$07U_Default_allocate_traits@std@@$0A@@std@@YAPAXI@Z ; std::_Allocate<8,std::_Default_allocate_traits,0>
; File C:\Program Files (x86)\Microsoft Visual Studio\2019\Community\VC\Tools\MSVC\14.28.29333\include\xstring

; 62   :         _CSTD memcpy(_First1, _First2, _Count * sizeof(_Elem));

  00085	57		 push	 edi
  00086	ff 75 08	 push	 DWORD PTR __Ptr$[ebp]

; 4312 :         const pointer _New_ptr        = _Al.allocate(_New_capacity + 1); // throws

  00089	89 45 0c	 mov	 DWORD PTR __New_ptr$1[ebp], eax

; 62   :         _CSTD memcpy(_First1, _First2, _Count * sizeof(_Elem));

  0008c	50		 push	 eax

; 4314 :         _Mypair._Myval2._Mysize = _New_size;

  0008d	89 7e 10	 mov	 DWORD PTR [esi+16], edi

; 4315 :         _Mypair._Myval2._Myres  = _New_capacity;

  00090	89 5e 14	 mov	 DWORD PTR [esi+20], ebx

; 62   :         _CSTD memcpy(_First1, _First2, _Count * sizeof(_Elem));

  00093	e8 00 00 00 00	 call	 _memcpy

; 3056 :                 _Traits::assign(_New_ptr[_Count], _Elem());

  00098	8b 5d 0c	 mov	 ebx, DWORD PTR __New_ptr$1[ebp]

; 62   :         _CSTD memcpy(_First1, _First2, _Count * sizeof(_Elem));

  0009b	83 c4 10	 add	 esp, 16			; 00000010H

; 4317 :         if (_BUF_SIZE <= _Old_capacity) {

  0009e	8b 45 fc	 mov	 eax, DWORD PTR __Old$1$[ebp]

; 3056 :                 _Traits::assign(_New_ptr[_Count], _Elem());

  000a1	c6 04 3b 00	 mov	 BYTE PTR [ebx+edi], 0

; 4317 :         if (_BUF_SIZE <= _Old_capacity) {

  000a5	83 f8 10	 cmp	 eax, 16			; 00000010H
  000a8	72 19		 jb	 SHORT $LN13@assign

; 4318 :             _Al.deallocate(_Mypair._Myval2._Bx._Ptr, _Old_capacity + 1);

  000aa	40		 inc	 eax
; File C:\Program Files (x86)\Microsoft Visual Studio\2019\Community\VC\Tools\MSVC\14.28.29333\include\xmemory

; 810  :         _Deallocate<_New_alignof<_Ty>>(_Ptr, sizeof(_Ty) * _Count);

  000ab	50		 push	 eax
  000ac	ff 36		 push	 DWORD PTR [esi]
  000ae	e8 00 00 00 00	 call	 ??$_Deallocate@$07$0A@@std@@YAXPAXI@Z ; std::_Deallocate<8,0>
; File C:\Program Files (x86)\Microsoft Visual Studio\2019\Community\VC\Tools\MSVC\14.28.29333\include\xstring

; 3059 :     }

  000b3	83 c4 08	 add	 esp, 8

; 4319 :             _Mypair._Myval2._Bx._Ptr = _New_ptr;

  000b6	89 1e		 mov	 DWORD PTR [esi], ebx

; 3059 :     }

  000b8	8b c6		 mov	 eax, esi
  000ba	5f		 pop	 edi
  000bb	5e		 pop	 esi
  000bc	5b		 pop	 ebx
  000bd	8b e5		 mov	 esp, ebp
  000bf	5d		 pop	 ebp
  000c0	c2 08 00	 ret	 8
$LN13@assign:

; 4321 :             _Construct_in_place(_Mypair._Myval2._Bx._Ptr, _New_ptr);

  000c3	8d 45 0c	 lea	 eax, DWORD PTR __New_ptr$1[ebp]
  000c6	50		 push	 eax
  000c7	56		 push	 esi
  000c8	e8 00 00 00 00	 call	 ??$_Construct_in_place@PADABQAD@std@@YAXAAPADABQAD@Z ; std::_Construct_in_place<char *,char * const &>

; 3059 :     }

  000cd	83 c4 08	 add	 esp, 8
  000d0	8b c6		 mov	 eax, esi
  000d2	5f		 pop	 edi
  000d3	5e		 pop	 esi
  000d4	5b		 pop	 ebx
  000d5	8b e5		 mov	 esp, ebp
  000d7	5d		 pop	 ebp
  000d8	c2 08 00	 ret	 8
$LN36@assign:

; 4306 :             _Xlen_string(); // result too long

  000db	e8 00 00 00 00	 call	 ?_Xlen_string@std@@YAXXZ ; std::_Xlen_string
$LN33@assign:
  000e0	cc		 int	 3
?assign@?$basic_string@DU?$char_traits@D@std@@V?$allocator@D@2@@std@@QAEAAV12@QBDI@Z ENDP ; std::basic_string<char,std::char_traits<char>,std::allocator<char> >::assign
_TEXT	ENDS
; Function compile flags: /Ogtp
; File C:\Program Files (x86)\Microsoft Visual Studio\2019\Community\VC\Tools\MSVC\14.28.29333\include\xstring
; File C:\Program Files (x86)\Microsoft Visual Studio\2019\Community\VC\Tools\MSVC\14.28.29333\include\utility
; File C:\Program Files (x86)\Microsoft Visual Studio\2019\Community\VC\Tools\MSVC\14.28.29333\include\xstring
; File C:\Program Files (x86)\Microsoft Visual Studio\2019\Community\VC\Tools\MSVC\14.28.29333\include\xmemory
; File C:\Program Files (x86)\Microsoft Visual Studio\2019\Community\VC\Tools\MSVC\14.28.29333\include\xstring
; File C:\Program Files (x86)\Microsoft Visual Studio\2019\Community\VC\Tools\MSVC\14.28.29333\include\xmemory
; File C:\Program Files (x86)\Microsoft Visual Studio\2019\Community\VC\Tools\MSVC\14.28.29333\include\xstring
; File C:\Program Files (x86)\Microsoft Visual Studio\2019\Community\VC\Tools\MSVC\14.28.29333\include\xmemory
; File C:\Program Files (x86)\Microsoft Visual Studio\2019\Community\VC\Tools\MSVC\14.28.29333\include\xstring
;	COMDAT ?append@?$basic_string@DU?$char_traits@D@std@@V?$allocator@D@2@@std@@QAEAAV12@QBDI@Z
_TEXT	SEGMENT
__Old_size$1$ = -16					; size = 4
__New_ptr$1 = -12					; size = 4
tv448 = -8						; size = 4
__Old$1$ = -4						; size = 4
__Ptr$ = 8						; size = 4
tv452 = 12						; size = 4
tv449 = 12						; size = 4
$T2 = 12						; size = 4
__Count$ = 12						; size = 4
?append@?$basic_string@DU?$char_traits@D@std@@V?$allocator@D@2@@std@@QAEAAV12@QBDI@Z PROC ; std::basic_string<char,std::char_traits<char>,std::allocator<char> >::append, COMDAT
; _this$ = ecx

; 2935 :     basic_string& append(_In_reads_(_Count) const _Elem* const _Ptr, _CRT_GUARDOVERFLOW const size_type _Count) {

  00000	55		 push	 ebp
  00001	8b ec		 mov	 ebp, esp
  00003	83 ec 10	 sub	 esp, 16			; 00000010H
  00006	53		 push	 ebx

; 2936 :         // append [_Ptr, _Ptr + _Count)
; 2937 :         const size_type _Old_size = _Mypair._Myval2._Mysize;
; 2938 :         if (_Count <= _Mypair._Myval2._Myres - _Old_size) {

  00007	8b 5d 0c	 mov	 ebx, DWORD PTR __Count$[ebp]
  0000a	56		 push	 esi
  0000b	57		 push	 edi
  0000c	8b f9		 mov	 edi, ecx
  0000e	8b 57 14	 mov	 edx, DWORD PTR [edi+20]
  00011	8b c2		 mov	 eax, edx
  00013	8b 77 10	 mov	 esi, DWORD PTR [edi+16]
  00016	2b c6		 sub	 eax, esi
  00018	89 75 f0	 mov	 DWORD PTR __Old_size$1$[ebp], esi
  0001b	89 55 fc	 mov	 DWORD PTR __Old$1$[ebp], edx
  0001e	3b d8		 cmp	 ebx, eax
  00020	77 2d		 ja	 SHORT $LN2@append

; 2939 :             _Mypair._Myval2._Mysize = _Old_size + _Count;

  00022	8d 04 1e	 lea	 eax, DWORD PTR [esi+ebx]
  00025	89 47 10	 mov	 DWORD PTR [edi+16], eax

; 2209 :         value_type* _Result = _Bx._Buf;

  00028	8b c7		 mov	 eax, edi

; 2227 :         return _BUF_SIZE <= _Myres;

  0002a	83 fa 10	 cmp	 edx, 16			; 00000010H

; 2210 :         if (_Large_string_engaged()) {

  0002d	72 02		 jb	 SHORT $LN5@append

; 2211 :             _Result = _Unfancy(_Bx._Ptr);

  0002f	8b 07		 mov	 eax, DWORD PTR [edi]
$LN5@append:

; 119  :         _CSTD memmove(_First1, _First2, _Count * sizeof(_Elem));

  00031	53		 push	 ebx
  00032	ff 75 08	 push	 DWORD PTR __Ptr$[ebp]

; 2940 :             _Elem* const _Old_ptr   = _Mypair._Myval2._Myptr();
; 2941 :             _Traits::move(_Old_ptr + _Old_size, _Ptr, _Count);

  00035	03 f0		 add	 esi, eax

; 119  :         _CSTD memmove(_First1, _First2, _Count * sizeof(_Elem));

  00037	56		 push	 esi
  00038	e8 00 00 00 00	 call	 _memmove
  0003d	83 c4 0c	 add	 esp, 12			; 0000000cH

; 2942 :             _Traits::assign(_Old_ptr[_Old_size + _Count], _Elem());

  00040	c6 04 1e 00	 mov	 BYTE PTR [esi+ebx], 0

; 2953 :             },
; 2954 :             _Ptr, _Count);
; 2955 :     }

  00044	8b c7		 mov	 eax, edi
  00046	5f		 pop	 edi
  00047	5e		 pop	 esi
  00048	5b		 pop	 ebx
  00049	8b e5		 mov	 esp, ebp
  0004b	5d		 pop	 ebp
  0004c	c2 08 00	 ret	 8
$LN2@append:

; 4333 :         if (max_size() - _Old_size < _Size_increase) {

  0004f	b8 ff ff ff 7f	 mov	 eax, 2147483647		; 7fffffffH
  00054	2b c6		 sub	 eax, esi
  00056	3b c3		 cmp	 eax, ebx
  00058	0f 82 d6 00 00
	00		 jb	 $LN45@append

; 4335 :         }
; 4336 : 
; 4337 :         const size_type _New_size     = _Old_size + _Size_increase;

  0005e	8d 0c 1e	 lea	 ecx, DWORD PTR [esi+ebx]

; 4285 :         const size_type _Masked = _Requested | _ALLOC_MASK;

  00061	83 c9 0f	 or	 ecx, 15			; 0000000fH
  00064	81 f9 ff ff ff
	7f		 cmp	 ecx, 2147483647		; 7fffffffH

; 4286 :         if (_Masked > _Max) { // the mask overflows, settle for max_size()

  0006a	76 07		 jbe	 SHORT $LN19@append

; 4287 :             return _Max;

  0006c	b9 ff ff ff 7f	 mov	 ecx, 2147483647		; 7fffffffH
  00071	eb 24		 jmp	 SHORT $LN42@append
$LN19@append:

; 4288 :         }
; 4289 : 
; 4290 :         if (_Old > _Max - _Old / 2) { // similarly, geometric overflows

  00073	8b c2		 mov	 eax, edx
  00075	d1 e8		 shr	 eax, 1
  00077	89 45 0c	 mov	 DWORD PTR tv452[ebp], eax
  0007a	b8 ff ff ff 7f	 mov	 eax, 2147483647		; 7fffffffH
  0007f	2b 45 0c	 sub	 eax, DWORD PTR tv452[ebp]
  00082	3b d0		 cmp	 edx, eax
  00084	76 07		 jbe	 SHORT $LN20@append

; 4291 :             return _Max;

  00086	b9 ff ff ff 7f	 mov	 ecx, 2147483647		; 7fffffffH
  0008b	eb 0a		 jmp	 SHORT $LN42@append
$LN20@append:

; 4292 :         }
; 4293 : 
; 4294 :         return (_STD max)(_Masked, _Old + _Old / 2);

  0008d	8b 45 0c	 mov	 eax, DWORD PTR tv452[ebp]
  00090	03 c2		 add	 eax, edx
; File C:\Program Files (x86)\Microsoft Visual Studio\2019\Community\VC\Tools\MSVC\14.28.29333\include\utility

; 44   :     return _Left < _Right ? _Right : _Left;

  00092	3b c8		 cmp	 ecx, eax
  00094	0f 42 c8	 cmovb	 ecx, eax
$LN42@append:
; File C:\Program Files (x86)\Microsoft Visual Studio\2019\Community\VC\Tools\MSVC\14.28.29333\include\xstring

; 4341 :         const pointer _New_ptr        = _Al.allocate(_New_capacity + 1); // throws

  00097	8d 41 01	 lea	 eax, DWORD PTR [ecx+1]
  0009a	89 4d 0c	 mov	 DWORD PTR $T2[ebp], ecx
; File C:\Program Files (x86)\Microsoft Visual Studio\2019\Community\VC\Tools\MSVC\14.28.29333\include\xmemory

; 814  :         return static_cast<_Ty*>(_Allocate<_New_alignof<_Ty>>(_Get_size_of_n<sizeof(_Ty)>(_Count)));

  0009d	50		 push	 eax
  0009e	e8 00 00 00 00	 call	 ??$_Allocate@$07U_Default_allocate_traits@std@@$0A@@std@@YAPAXI@Z ; std::_Allocate<8,std::_Default_allocate_traits,0>
; File C:\Program Files (x86)\Microsoft Visual Studio\2019\Community\VC\Tools\MSVC\14.28.29333\include\xstring

; 4343 :         _My_data._Mysize      = _New_size;

  000a3	8d 0c 1e	 lea	 ecx, DWORD PTR [esi+ebx]
  000a6	89 45 f4	 mov	 DWORD PTR __New_ptr$1[ebp], eax
  000a9	89 4f 10	 mov	 DWORD PTR [edi+16], ecx
; File C:\Program Files (x86)\Microsoft Visual Studio\2019\Community\VC\Tools\MSVC\14.28.29333\include\xmemory

; 814  :         return static_cast<_Ty*>(_Allocate<_New_alignof<_Ty>>(_Get_size_of_n<sizeof(_Ty)>(_Count)));

  000ac	83 c4 04	 add	 esp, 4
; File C:\Program Files (x86)\Microsoft Visual Studio\2019\Community\VC\Tools\MSVC\14.28.29333\include\xstring

; 4344 :         _My_data._Myres       = _New_capacity;

  000af	8b 4d 0c	 mov	 ecx, DWORD PTR $T2[ebp]
  000b2	89 4f 14	 mov	 DWORD PTR [edi+20], ecx

; 4345 :         _Elem* const _Raw_new = _Unfancy(_New_ptr);

  000b5	8d 0c 30	 lea	 ecx, DWORD PTR [eax+esi]
  000b8	89 4d 0c	 mov	 DWORD PTR tv449[ebp], ecx
  000bb	03 cb		 add	 ecx, ebx

; 4346 :         if (_BUF_SIZE <= _Old_capacity) {

  000bd	83 7d fc 10	 cmp	 DWORD PTR __Old$1$[ebp], 16 ; 00000010H
  000c1	89 4d f8	 mov	 DWORD PTR tv448[ebp], ecx
  000c4	72 3c		 jb	 SHORT $LN13@append

; 62   :         _CSTD memcpy(_First1, _First2, _Count * sizeof(_Elem));

  000c6	ff 75 f0	 push	 DWORD PTR __Old_size$1$[ebp]

; 4347 :             const pointer _Old_ptr = _My_data._Bx._Ptr;

  000c9	8b 37		 mov	 esi, DWORD PTR [edi]

; 62   :         _CSTD memcpy(_First1, _First2, _Count * sizeof(_Elem));

  000cb	56		 push	 esi
  000cc	50		 push	 eax
  000cd	e8 00 00 00 00	 call	 _memcpy
  000d2	53		 push	 ebx
  000d3	ff 75 08	 push	 DWORD PTR __Ptr$[ebp]
  000d6	ff 75 0c	 push	 DWORD PTR tv449[ebp]
  000d9	e8 00 00 00 00	 call	 _memcpy

; 2952 :                 _Traits::assign(_New_ptr[_Old_size + _Count], _Elem());

  000de	8b 45 f8	 mov	 eax, DWORD PTR tv448[ebp]
  000e1	c6 00 00	 mov	 BYTE PTR [eax], 0

; 4349 :             _Al.deallocate(_Old_ptr, _Old_capacity + 1);

  000e4	8b 45 fc	 mov	 eax, DWORD PTR __Old$1$[ebp]
  000e7	40		 inc	 eax
; File C:\Program Files (x86)\Microsoft Visual Studio\2019\Community\VC\Tools\MSVC\14.28.29333\include\xmemory

; 810  :         _Deallocate<_New_alignof<_Ty>>(_Ptr, sizeof(_Ty) * _Count);

  000e8	50		 push	 eax
  000e9	56		 push	 esi
  000ea	e8 00 00 00 00	 call	 ??$_Deallocate@$07$0A@@std@@YAXPAXI@Z ; std::_Deallocate<8,0>
; File C:\Program Files (x86)\Microsoft Visual Studio\2019\Community\VC\Tools\MSVC\14.28.29333\include\xstring

; 4350 :             _My_data._Bx._Ptr = _New_ptr;

  000ef	8b 45 f4	 mov	 eax, DWORD PTR __New_ptr$1[ebp]

; 2953 :             },
; 2954 :             _Ptr, _Count);
; 2955 :     }

  000f2	83 c4 20	 add	 esp, 32			; 00000020H

; 4350 :             _My_data._Bx._Ptr = _New_ptr;

  000f5	89 07		 mov	 DWORD PTR [edi], eax

; 2953 :             },
; 2954 :             _Ptr, _Count);
; 2955 :     }

  000f7	8b c7		 mov	 eax, edi
  000f9	5f		 pop	 edi
  000fa	5e		 pop	 esi
  000fb	5b		 pop	 ebx
  000fc	8b e5		 mov	 esp, ebp
  000fe	5d		 pop	 ebp
  000ff	c2 08 00	 ret	 8
$LN13@append:

; 62   :         _CSTD memcpy(_First1, _First2, _Count * sizeof(_Elem));

  00102	56		 push	 esi
  00103	57		 push	 edi
  00104	50		 push	 eax
  00105	e8 00 00 00 00	 call	 _memcpy
  0010a	53		 push	 ebx
  0010b	ff 75 08	 push	 DWORD PTR __Ptr$[ebp]
  0010e	ff 75 0c	 push	 DWORD PTR tv449[ebp]
  00111	e8 00 00 00 00	 call	 _memcpy

; 2952 :                 _Traits::assign(_New_ptr[_Old_size + _Count], _Elem());

  00116	8b 45 f8	 mov	 eax, DWORD PTR tv448[ebp]
  00119	c6 00 00	 mov	 BYTE PTR [eax], 0

; 4353 :             _Construct_in_place(_My_data._Bx._Ptr, _New_ptr);

  0011c	8d 45 f4	 lea	 eax, DWORD PTR __New_ptr$1[ebp]
  0011f	50		 push	 eax
  00120	57		 push	 edi
  00121	e8 00 00 00 00	 call	 ??$_Construct_in_place@PADABQAD@std@@YAXAAPADABQAD@Z ; std::_Construct_in_place<char *,char * const &>

; 2953 :             },
; 2954 :             _Ptr, _Count);
; 2955 :     }

  00126	83 c4 20	 add	 esp, 32			; 00000020H
  00129	8b c7		 mov	 eax, edi
  0012b	5f		 pop	 edi
  0012c	5e		 pop	 esi
  0012d	5b		 pop	 ebx
  0012e	8b e5		 mov	 esp, ebp
  00130	5d		 pop	 ebp
  00131	c2 08 00	 ret	 8
$LN45@append:

; 4334 :             _Xlen_string(); // result too long

  00134	e8 00 00 00 00	 call	 ?_Xlen_string@std@@YAXXZ ; std::_Xlen_string
$LN41@append:
  00139	cc		 int	 3
?append@?$basic_string@DU?$char_traits@D@std@@V?$allocator@D@2@@std@@QAEAAV12@QBDI@Z ENDP ; std::basic_string<char,std::char_traits<char>,std::allocator<char> >::append
_TEXT	ENDS
; Function compile flags: /Ogtp
; File C:\Program Files (x86)\Microsoft Visual Studio\2019\Community\VC\Tools\MSVC\14.28.29333\include\xstring
; File C:\Program Files (x86)\Microsoft Visual Studio\2019\Community\VC\Tools\MSVC\14.28.29333\include\xmemory
; File C:\Program Files (x86)\Microsoft Visual Studio\2019\Community\VC\Tools\MSVC\14.28.29333\include\xstring
;	COMDAT ??1?$basic_string@DU?$char_traits@D@std@@V?$allocator@D@2@@std@@QAE@XZ
_TEXT	SEGMENT
??1?$basic_string@DU?$char_traits@D@std@@V?$allocator@D@2@@std@@QAE@XZ PROC ; std::basic_string<char,std::char_traits<char>,std::allocator<char> >::~basic_string<char,std::char_traits<char>,std::allocator<char> >, COMDAT
; _this$ = ecx

; 2800 :     ~basic_string() noexcept {

  00000	56		 push	 esi
  00001	8b f1		 mov	 esi, ecx

; 2227 :         return _BUF_SIZE <= _Myres;

  00003	8b 46 14	 mov	 eax, DWORD PTR [esi+20]
  00006	83 f8 10	 cmp	 eax, 16			; 00000010H

; 4385 :         if (_Mypair._Myval2._Large_string_engaged()) {

  00009	72 0c		 jb	 SHORT $LN4@basic_stri

; 4386 :             const pointer _Ptr = _Mypair._Myval2._Bx._Ptr;
; 4387 :             auto& _Al          = _Getal();
; 4388 :             _Destroy_in_place(_Mypair._Myval2._Bx._Ptr);
; 4389 :             _Al.deallocate(_Ptr, _Mypair._Myval2._Myres + 1);

  0000b	40		 inc	 eax
; File C:\Program Files (x86)\Microsoft Visual Studio\2019\Community\VC\Tools\MSVC\14.28.29333\include\xmemory

; 810  :         _Deallocate<_New_alignof<_Ty>>(_Ptr, sizeof(_Ty) * _Count);

  0000c	50		 push	 eax
  0000d	ff 36		 push	 DWORD PTR [esi]
  0000f	e8 00 00 00 00	 call	 ??$_Deallocate@$07$0A@@std@@YAXPAXI@Z ; std::_Deallocate<8,0>
  00014	83 c4 08	 add	 esp, 8
$LN4@basic_stri:
; File C:\Program Files (x86)\Microsoft Visual Studio\2019\Community\VC\Tools\MSVC\14.28.29333\include\xstring

; 4392 :         _Mypair._Myval2._Mysize = 0;

  00017	c7 46 10 00 00
	00 00		 mov	 DWORD PTR [esi+16], 0

; 4393 :         _Mypair._Myval2._Myres  = _BUF_SIZE - 1;

  0001e	c7 46 14 0f 00
	00 00		 mov	 DWORD PTR [esi+20], 15	; 0000000fH

; 4394 :         // the _Traits::assign is last so the codegen doesn't think the char write can alias this
; 4395 :         _Traits::assign(_Mypair._Myval2._Bx._Buf[0], _Elem());

  00025	c6 06 00	 mov	 BYTE PTR [esi], 0
  00028	5e		 pop	 esi

; 2801 :         _Tidy_deallocate();
; 2802 : #if _ITERATOR_DEBUG_LEVEL != 0
; 2803 :         auto&& _Alproxy          = _GET_PROXY_ALLOCATOR(_Alty, _Getal());
; 2804 :         const auto _To_delete    = _Mypair._Myval2._Myproxy;
; 2805 :         _Mypair._Myval2._Myproxy = nullptr;
; 2806 :         _Delete_plain_internal(_Alproxy, _To_delete);
; 2807 : #endif // _ITERATOR_DEBUG_LEVEL != 0
; 2808 :     }

  00029	c3		 ret	 0
??1?$basic_string@DU?$char_traits@D@std@@V?$allocator@D@2@@std@@QAE@XZ ENDP ; std::basic_string<char,std::char_traits<char>,std::allocator<char> >::~basic_string<char,std::char_traits<char>,std::allocator<char> >
_TEXT	ENDS
; Function compile flags: /Ogtp
; File C:\Program Files (x86)\Microsoft Visual Studio\2019\Community\VC\Tools\MSVC\14.28.29333\include\xstring
; File C:\Program Files (x86)\Microsoft Visual Studio\2019\Community\VC\Tools\MSVC\14.28.29333\include\utility
; File C:\Program Files (x86)\Microsoft Visual Studio\2019\Community\VC\Tools\MSVC\14.28.29333\include\xstring
; File C:\Program Files (x86)\Microsoft Visual Studio\2019\Community\VC\Tools\MSVC\14.28.29333\include\xmemory
; File C:\Program Files (x86)\Microsoft Visual Studio\2019\Community\VC\Tools\MSVC\14.28.29333\include\xstring
;	COMDAT ??0?$basic_string@DU?$char_traits@D@std@@V?$allocator@D@2@@std@@QAE@ABV01@@Z
_TEXT	SEGMENT
$T1 = -8						; size = 4
__New_array$2 = -4					; size = 4
__Right_size$1$ = 8					; size = 4
__Right$ = 8						; size = 4
??0?$basic_string@DU?$char_traits@D@std@@V?$allocator@D@2@@std@@QAE@ABV01@@Z PROC ; std::basic_string<char,std::char_traits<char>,std::allocator<char> >::basic_string<char,std::char_traits<char>,std::allocator<char> >, COMDAT
; _this$ = ecx

; 2351 :         : _Mypair(_One_then_variadic_args_t{}, _Alty_traits::select_on_container_copy_construction(_Right._Getal())) {

  00000	55		 push	 ebp
  00001	8b ec		 mov	 ebp, esp
  00003	83 ec 08	 sub	 esp, 8
  00006	53		 push	 ebx

; 2734 :         const size_type _Right_size   = _Right_data._Mysize;

  00007	8b 5d 08	 mov	 ebx, DWORD PTR __Right$[ebp]

; 2351 :         : _Mypair(_One_then_variadic_args_t{}, _Alty_traits::select_on_container_copy_construction(_Right._Getal())) {

  0000a	57		 push	 edi
  0000b	8b f9		 mov	 edi, ecx

; 2198 :     _String_val() noexcept : _Bx(), _Mysize(0), _Myres(0) {}

  0000d	c7 47 10 00 00
	00 00		 mov	 DWORD PTR [edi+16], 0
  00014	c7 47 14 00 00
	00 00		 mov	 DWORD PTR [edi+20], 0

; 2227 :         return _BUF_SIZE <= _Myres;

  0001b	83 7b 14 10	 cmp	 DWORD PTR [ebx+20], 16	; 00000010H

; 2734 :         const size_type _Right_size   = _Right_data._Mysize;

  0001f	8b 43 10	 mov	 eax, DWORD PTR [ebx+16]
  00022	89 45 08	 mov	 DWORD PTR __Right_size$1$[ebp], eax

; 2219 :         if (_Large_string_engaged()) {

  00025	72 02		 jb	 SHORT $LN13@basic_stri

; 2220 :             _Result = _Unfancy(_Bx._Ptr);

  00027	8b 1b		 mov	 ebx, DWORD PTR [ebx]
$LN13@basic_stri:

; 2737 :         if (_Right_size < _BUF_SIZE) { // stay small, don't allocate

  00029	83 f8 10	 cmp	 eax, 16			; 00000010H
  0002c	73 1e		 jae	 SHORT $LN10@basic_stri

; 62   :         _CSTD memcpy(_First1, _First2, _Count * sizeof(_Elem));

  0002e	0f 10 03	 movups	 xmm0, XMMWORD PTR [ebx]

; 2352 :         auto&& _Alproxy = _GET_PROXY_ALLOCATOR(_Alty, _Getal());
; 2353 :         _Container_proxy_ptr<_Alty> _Proxy(_Alproxy, _Mypair._Myval2);
; 2354 :         _Construct_lv_contents(_Right);
; 2355 :         _Proxy._Release();
; 2356 :     }

  00031	8b 4d 08	 mov	 ecx, DWORD PTR __Right_size$1$[ebp]

; 2740 :             _My_data._Myres  = _BUF_SIZE - 1;

  00034	b8 0f 00 00 00	 mov	 eax, 15			; 0000000fH

; 62   :         _CSTD memcpy(_First1, _First2, _Count * sizeof(_Elem));

  00039	0f 11 07	 movups	 XMMWORD PTR [edi], xmm0

; 2352 :         auto&& _Alproxy = _GET_PROXY_ALLOCATOR(_Alty, _Getal());
; 2353 :         _Container_proxy_ptr<_Alty> _Proxy(_Alproxy, _Mypair._Myval2);
; 2354 :         _Construct_lv_contents(_Right);
; 2355 :         _Proxy._Release();
; 2356 :     }

  0003c	89 4f 10	 mov	 DWORD PTR [edi+16], ecx
  0003f	89 47 14	 mov	 DWORD PTR [edi+20], eax
  00042	8b c7		 mov	 eax, edi
  00044	5f		 pop	 edi
  00045	5b		 pop	 ebx
  00046	8b e5		 mov	 esp, ebp
  00048	5d		 pop	 ebp
  00049	c2 04 00	 ret	 4
$LN10@basic_stri:

; 2745 :         const size_type _New_capacity = (_STD min)(_Right_size | _ALLOC_MASK, max_size());

  0004c	83 c8 0f	 or	 eax, 15			; 0000000fH
; File C:\Program Files (x86)\Microsoft Visual Studio\2019\Community\VC\Tools\MSVC\14.28.29333\include\utility

; 68   :     return _Right < _Left ? _Right : _Left;

  0004f	b9 ff ff ff 7f	 mov	 ecx, 2147483647		; 7fffffffH
  00054	3b c1		 cmp	 eax, ecx
  00056	56		 push	 esi
  00057	0f 47 c1	 cmova	 eax, ecx
  0005a	89 45 f8	 mov	 DWORD PTR $T1[ebp], eax
; File C:\Program Files (x86)\Microsoft Visual Studio\2019\Community\VC\Tools\MSVC\14.28.29333\include\xstring

; 2746 :         const pointer _New_array      = _Al.allocate(_New_capacity + 1); // throws

  0005d	40		 inc	 eax
; File C:\Program Files (x86)\Microsoft Visual Studio\2019\Community\VC\Tools\MSVC\14.28.29333\include\xmemory

; 814  :         return static_cast<_Ty*>(_Allocate<_New_alignof<_Ty>>(_Get_size_of_n<sizeof(_Ty)>(_Count)));

  0005e	50		 push	 eax
  0005f	e8 00 00 00 00	 call	 ??$_Allocate@$07U_Default_allocate_traits@std@@$0A@@std@@YAPAXI@Z ; std::_Allocate<8,std::_Default_allocate_traits,0>
; File C:\Program Files (x86)\Microsoft Visual Studio\2019\Community\VC\Tools\MSVC\14.28.29333\include\xstring

; 2746 :         const pointer _New_array      = _Al.allocate(_New_capacity + 1); // throws

  00064	8b f0		 mov	 esi, eax

; 2747 :         _Construct_in_place(_My_data._Bx._Ptr, _New_array);

  00066	8d 45 fc	 lea	 eax, DWORD PTR __New_array$2[ebp]
  00069	50		 push	 eax
  0006a	57		 push	 edi
  0006b	89 75 fc	 mov	 DWORD PTR __New_array$2[ebp], esi
  0006e	e8 00 00 00 00	 call	 ??$_Construct_in_place@PADABQAD@std@@YAXAAPADABQAD@Z ; std::_Construct_in_place<char *,char * const &>

; 2748 :         _Traits::copy(_Unfancy(_New_array), _Right_ptr, _Right_size + 1);

  00073	8b 4d 08	 mov	 ecx, DWORD PTR __Right_size$1$[ebp]
  00076	41		 inc	 ecx

; 62   :         _CSTD memcpy(_First1, _First2, _Count * sizeof(_Elem));

  00077	51		 push	 ecx
  00078	53		 push	 ebx
  00079	56		 push	 esi
  0007a	e8 00 00 00 00	 call	 _memcpy
  0007f	8b 45 f8	 mov	 eax, DWORD PTR $T1[ebp]
  00082	83 c4 18	 add	 esp, 24			; 00000018H

; 2352 :         auto&& _Alproxy = _GET_PROXY_ALLOCATOR(_Alty, _Getal());
; 2353 :         _Container_proxy_ptr<_Alty> _Proxy(_Alproxy, _Mypair._Myval2);
; 2354 :         _Construct_lv_contents(_Right);
; 2355 :         _Proxy._Release();
; 2356 :     }

  00085	8b 4d 08	 mov	 ecx, DWORD PTR __Right_size$1$[ebp]
  00088	89 4f 10	 mov	 DWORD PTR [edi+16], ecx
  0008b	89 47 14	 mov	 DWORD PTR [edi+20], eax
  0008e	8b c7		 mov	 eax, edi

; 62   :         _CSTD memcpy(_First1, _First2, _Count * sizeof(_Elem));

  00090	5e		 pop	 esi

; 2352 :         auto&& _Alproxy = _GET_PROXY_ALLOCATOR(_Alty, _Getal());
; 2353 :         _Container_proxy_ptr<_Alty> _Proxy(_Alproxy, _Mypair._Myval2);
; 2354 :         _Construct_lv_contents(_Right);
; 2355 :         _Proxy._Release();
; 2356 :     }

  00091	5f		 pop	 edi
  00092	5b		 pop	 ebx
  00093	8b e5		 mov	 esp, ebp
  00095	5d		 pop	 ebp
  00096	c2 04 00	 ret	 4
??0?$basic_string@DU?$char_traits@D@std@@V?$allocator@D@2@@std@@QAE@ABV01@@Z ENDP ; std::basic_string<char,std::char_traits<char>,std::allocator<char> >::basic_string<char,std::char_traits<char>,std::allocator<char> >
_TEXT	ENDS
; Function compile flags: /Ogtp
; File C:\Program Files (x86)\Microsoft Visual Studio\2019\Community\VC\Tools\MSVC\14.28.29333\include\xstring
;	COMDAT ?_Xlen_string@std@@YAXXZ
_TEXT	SEGMENT
?_Xlen_string@std@@YAXXZ PROC				; std::_Xlen_string, COMDAT

; 2275 :     _Xlength_error("string too long");

  00000	68 00 00 00 00	 push	 OFFSET ??_C@_0BA@JFNIOLAK@string?5too?5long@
  00005	e8 00 00 00 00	 call	 ?_Xlength_error@std@@YAXPBD@Z ; std::_Xlength_error
$LN3@Xlen_strin:
  0000a	cc		 int	 3
?_Xlen_string@std@@YAXXZ ENDP				; std::_Xlen_string
_TEXT	ENDS
; Function compile flags: /Ogtp
; File C:\Program Files (x86)\Microsoft Visual Studio\2019\Community\VC\Tools\MSVC\14.28.29333\include\exception
;	COMDAT ?_Throw_bad_array_new_length@std@@YAXXZ
_TEXT	SEGMENT
$T1 = -12						; size = 12
?_Throw_bad_array_new_length@std@@YAXXZ PROC		; std::_Throw_bad_array_new_length, COMDAT

; 320  : [[noreturn]] inline void _Throw_bad_array_new_length() {

  00000	55		 push	 ebp
  00001	8b ec		 mov	 ebp, esp
  00003	83 ec 0c	 sub	 esp, 12			; 0000000cH

; 321  :     _THROW(bad_array_new_length{});

  00006	8d 4d f4	 lea	 ecx, DWORD PTR $T1[ebp]
  00009	e8 00 00 00 00	 call	 ??0bad_array_new_length@std@@QAE@XZ ; std::bad_array_new_length::bad_array_new_length
  0000e	68 00 00 00 00	 push	 OFFSET __TI3?AVbad_array_new_length@std@@
  00013	8d 45 f4	 lea	 eax, DWORD PTR $T1[ebp]
  00016	50		 push	 eax
  00017	e8 00 00 00 00	 call	 __CxxThrowException@8
$LN3@Throw_bad_:
  0001c	cc		 int	 3
?_Throw_bad_array_new_length@std@@YAXXZ ENDP		; std::_Throw_bad_array_new_length
_TEXT	ENDS
; Function compile flags: /Ogtp
; File C:\Program Files (x86)\Microsoft Visual Studio\2019\Community\VC\Tools\MSVC\14.28.29333\include\vcruntime_exception.h
;	COMDAT ??_Gbad_array_new_length@std@@UAEPAXI@Z
_TEXT	SEGMENT
___flags$ = 8						; size = 4
??_Gbad_array_new_length@std@@UAEPAXI@Z PROC		; std::bad_array_new_length::`scalar deleting destructor', COMDAT
; _this$ = ecx
  00000	55		 push	 ebp
  00001	8b ec		 mov	 ebp, esp

; 89   :     {

  00003	56		 push	 esi
  00004	8b f1		 mov	 esi, ecx

; 90   :         __std_exception_destroy(&_Data);

  00006	8d 46 04	 lea	 eax, DWORD PTR [esi+4]
  00009	c7 06 00 00 00
	00		 mov	 DWORD PTR [esi], OFFSET ??_7exception@std@@6B@
  0000f	50		 push	 eax
  00010	e8 00 00 00 00	 call	 ___std_exception_destroy
  00015	83 c4 04	 add	 esp, 4
  00018	f6 45 08 01	 test	 BYTE PTR ___flags$[ebp], 1
  0001c	74 0b		 je	 SHORT $LN12@scalar
  0001e	6a 0c		 push	 12			; 0000000cH
  00020	56		 push	 esi
  00021	e8 00 00 00 00	 call	 ??3@YAXPAXI@Z		; operator delete
  00026	83 c4 08	 add	 esp, 8
$LN12@scalar:
  00029	8b c6		 mov	 eax, esi
  0002b	5e		 pop	 esi
  0002c	5d		 pop	 ebp
  0002d	c2 04 00	 ret	 4
??_Gbad_array_new_length@std@@UAEPAXI@Z ENDP		; std::bad_array_new_length::`scalar deleting destructor'
_TEXT	ENDS
; Function compile flags: /Ogtp
; File C:\Program Files (x86)\Microsoft Visual Studio\2019\Community\VC\Tools\MSVC\14.28.29333\include\vcruntime_exception.h
;	COMDAT ??0bad_array_new_length@std@@QAE@ABV01@@Z
_TEXT	SEGMENT
___that$ = 8						; size = 4
??0bad_array_new_length@std@@QAE@ABV01@@Z PROC		; std::bad_array_new_length::bad_array_new_length, COMDAT
; _this$ = ecx
  00000	55		 push	 ebp
  00001	8b ec		 mov	 ebp, esp

; 72   :     {

  00003	56		 push	 esi
  00004	8b f1		 mov	 esi, ecx
  00006	0f 57 c0	 xorps	 xmm0, xmm0

; 71   :         : _Data()

  00009	8d 46 04	 lea	 eax, DWORD PTR [esi+4]

; 73   :         __std_exception_copy(&_Other._Data, &_Data);

  0000c	50		 push	 eax
  0000d	c7 06 00 00 00
	00		 mov	 DWORD PTR [esi], OFFSET ??_7exception@std@@6B@
  00013	66 0f d6 00	 movq	 QWORD PTR [eax], xmm0
  00017	8b 45 08	 mov	 eax, DWORD PTR ___that$[ebp]
  0001a	83 c0 04	 add	 eax, 4
  0001d	50		 push	 eax
  0001e	e8 00 00 00 00	 call	 ___std_exception_copy
  00023	83 c4 08	 add	 esp, 8
  00026	c7 06 00 00 00
	00		 mov	 DWORD PTR [esi], OFFSET ??_7bad_array_new_length@std@@6B@
  0002c	8b c6		 mov	 eax, esi
  0002e	5e		 pop	 esi
  0002f	5d		 pop	 ebp
  00030	c2 04 00	 ret	 4
??0bad_array_new_length@std@@QAE@ABV01@@Z ENDP		; std::bad_array_new_length::bad_array_new_length
_TEXT	ENDS
; Function compile flags: /Ogtp
; File C:\Program Files (x86)\Microsoft Visual Studio\2019\Community\VC\Tools\MSVC\14.28.29333\include\vcruntime_exception.h
;	COMDAT ??1bad_array_new_length@std@@UAE@XZ
_TEXT	SEGMENT
??1bad_array_new_length@std@@UAE@XZ PROC		; std::bad_array_new_length::~bad_array_new_length, COMDAT
; _this$ = ecx

; 90   :         __std_exception_destroy(&_Data);

  00000	8d 41 04	 lea	 eax, DWORD PTR [ecx+4]
  00003	c7 01 00 00 00
	00		 mov	 DWORD PTR [ecx], OFFSET ??_7exception@std@@6B@
  00009	50		 push	 eax
  0000a	e8 00 00 00 00	 call	 ___std_exception_destroy
  0000f	59		 pop	 ecx
  00010	c3		 ret	 0
??1bad_array_new_length@std@@UAE@XZ ENDP		; std::bad_array_new_length::~bad_array_new_length
_TEXT	ENDS
; Function compile flags: /Ogtp
; File C:\Program Files (x86)\Microsoft Visual Studio\2019\Community\VC\Tools\MSVC\14.28.29333\include\vcruntime_exception.h
;	COMDAT ??0bad_array_new_length@std@@QAE@XZ
_TEXT	SEGMENT
??0bad_array_new_length@std@@QAE@XZ PROC		; std::bad_array_new_length::bad_array_new_length, COMDAT
; _this$ = ecx

; 141  :     {

  00000	0f 57 c0	 xorps	 xmm0, xmm0

; 142  :     }

  00003	8b c1		 mov	 eax, ecx

; 65   :         : _Data()

  00005	66 0f d6 41 04	 movq	 QWORD PTR [ecx+4], xmm0

; 66   :     {
; 67   :         _Data._What = _Message;

  0000a	c7 41 04 00 00
	00 00		 mov	 DWORD PTR [ecx+4], OFFSET ??_C@_0BF@KINCDENJ@bad?5array?5new?5length@

; 141  :     {

  00011	c7 01 00 00 00
	00		 mov	 DWORD PTR [ecx], OFFSET ??_7bad_array_new_length@std@@6B@

; 142  :     }

  00017	c3		 ret	 0
??0bad_array_new_length@std@@QAE@XZ ENDP		; std::bad_array_new_length::bad_array_new_length
_TEXT	ENDS
; Function compile flags: /Ogtp
; File C:\Program Files (x86)\Microsoft Visual Studio\2019\Community\VC\Tools\MSVC\14.28.29333\include\vcruntime_exception.h
;	COMDAT ??_Gbad_alloc@std@@UAEPAXI@Z
_TEXT	SEGMENT
___flags$ = 8						; size = 4
??_Gbad_alloc@std@@UAEPAXI@Z PROC			; std::bad_alloc::`scalar deleting destructor', COMDAT
; _this$ = ecx
  00000	55		 push	 ebp
  00001	8b ec		 mov	 ebp, esp

; 89   :     {

  00003	56		 push	 esi
  00004	8b f1		 mov	 esi, ecx

; 90   :         __std_exception_destroy(&_Data);

  00006	8d 46 04	 lea	 eax, DWORD PTR [esi+4]
  00009	c7 06 00 00 00
	00		 mov	 DWORD PTR [esi], OFFSET ??_7exception@std@@6B@
  0000f	50		 push	 eax
  00010	e8 00 00 00 00	 call	 ___std_exception_destroy
  00015	83 c4 04	 add	 esp, 4
  00018	f6 45 08 01	 test	 BYTE PTR ___flags$[ebp], 1
  0001c	74 0b		 je	 SHORT $LN9@scalar
  0001e	6a 0c		 push	 12			; 0000000cH
  00020	56		 push	 esi
  00021	e8 00 00 00 00	 call	 ??3@YAXPAXI@Z		; operator delete
  00026	83 c4 08	 add	 esp, 8
$LN9@scalar:
  00029	8b c6		 mov	 eax, esi
  0002b	5e		 pop	 esi
  0002c	5d		 pop	 ebp
  0002d	c2 04 00	 ret	 4
??_Gbad_alloc@std@@UAEPAXI@Z ENDP			; std::bad_alloc::`scalar deleting destructor'
_TEXT	ENDS
; Function compile flags: /Ogtp
; File C:\Program Files (x86)\Microsoft Visual Studio\2019\Community\VC\Tools\MSVC\14.28.29333\include\vcruntime_exception.h
;	COMDAT ??0bad_alloc@std@@QAE@ABV01@@Z
_TEXT	SEGMENT
___that$ = 8						; size = 4
??0bad_alloc@std@@QAE@ABV01@@Z PROC			; std::bad_alloc::bad_alloc, COMDAT
; _this$ = ecx
  00000	55		 push	 ebp
  00001	8b ec		 mov	 ebp, esp

; 72   :     {

  00003	56		 push	 esi
  00004	8b f1		 mov	 esi, ecx
  00006	0f 57 c0	 xorps	 xmm0, xmm0

; 71   :         : _Data()

  00009	8d 46 04	 lea	 eax, DWORD PTR [esi+4]

; 73   :         __std_exception_copy(&_Other._Data, &_Data);

  0000c	50		 push	 eax
  0000d	c7 06 00 00 00
	00		 mov	 DWORD PTR [esi], OFFSET ??_7exception@std@@6B@
  00013	66 0f d6 00	 movq	 QWORD PTR [eax], xmm0
  00017	8b 45 08	 mov	 eax, DWORD PTR ___that$[ebp]
  0001a	83 c0 04	 add	 eax, 4
  0001d	50		 push	 eax
  0001e	e8 00 00 00 00	 call	 ___std_exception_copy
  00023	83 c4 08	 add	 esp, 8
  00026	c7 06 00 00 00
	00		 mov	 DWORD PTR [esi], OFFSET ??_7bad_alloc@std@@6B@
  0002c	8b c6		 mov	 eax, esi
  0002e	5e		 pop	 esi
  0002f	5d		 pop	 ebp
  00030	c2 04 00	 ret	 4
??0bad_alloc@std@@QAE@ABV01@@Z ENDP			; std::bad_alloc::bad_alloc
_TEXT	ENDS
; Function compile flags: /Ogtp
; File C:\Program Files (x86)\Microsoft Visual Studio\2019\Community\VC\Tools\MSVC\14.28.29333\include\vcruntime_exception.h
;	COMDAT ??_Gexception@std@@UAEPAXI@Z
_TEXT	SEGMENT
___flags$ = 8						; size = 4
??_Gexception@std@@UAEPAXI@Z PROC			; std::exception::`scalar deleting destructor', COMDAT
; _this$ = ecx
  00000	55		 push	 ebp
  00001	8b ec		 mov	 ebp, esp

; 89   :     {

  00003	56		 push	 esi
  00004	8b f1		 mov	 esi, ecx

; 90   :         __std_exception_destroy(&_Data);

  00006	8d 46 04	 lea	 eax, DWORD PTR [esi+4]
  00009	c7 06 00 00 00
	00		 mov	 DWORD PTR [esi], OFFSET ??_7exception@std@@6B@
  0000f	50		 push	 eax
  00010	e8 00 00 00 00	 call	 ___std_exception_destroy
  00015	83 c4 04	 add	 esp, 4
  00018	f6 45 08 01	 test	 BYTE PTR ___flags$[ebp], 1
  0001c	74 0b		 je	 SHORT $LN6@scalar
  0001e	6a 0c		 push	 12			; 0000000cH
  00020	56		 push	 esi
  00021	e8 00 00 00 00	 call	 ??3@YAXPAXI@Z		; operator delete
  00026	83 c4 08	 add	 esp, 8
$LN6@scalar:
  00029	8b c6		 mov	 eax, esi
  0002b	5e		 pop	 esi
  0002c	5d		 pop	 ebp
  0002d	c2 04 00	 ret	 4
??_Gexception@std@@UAEPAXI@Z ENDP			; std::exception::`scalar deleting destructor'
_TEXT	ENDS
; Function compile flags: /Ogtp
; File C:\Program Files (x86)\Microsoft Visual Studio\2019\Community\VC\Tools\MSVC\14.28.29333\include\vcruntime_exception.h
;	COMDAT ?what@exception@std@@UBEPBDXZ
_TEXT	SEGMENT
?what@exception@std@@UBEPBDXZ PROC			; std::exception::what, COMDAT
; _this$ = ecx

; 95   :         return _Data._What ? _Data._What : "Unknown exception";

  00000	8b 49 04	 mov	 ecx, DWORD PTR [ecx+4]
  00003	b8 00 00 00 00	 mov	 eax, OFFSET ??_C@_0BC@EOODALEL@Unknown?5exception@
  00008	85 c9		 test	 ecx, ecx
  0000a	0f 45 c1	 cmovne	 eax, ecx

; 96   :     }

  0000d	c3		 ret	 0
?what@exception@std@@UBEPBDXZ ENDP			; std::exception::what
_TEXT	ENDS
; Function compile flags: /Ogtp
; File C:\Program Files (x86)\Microsoft Visual Studio\2019\Community\VC\Tools\MSVC\14.28.29333\include\vcruntime_exception.h
;	COMDAT ??1exception@std@@UAE@XZ
_TEXT	SEGMENT
??1exception@std@@UAE@XZ PROC				; std::exception::~exception, COMDAT
; _this$ = ecx

; 90   :         __std_exception_destroy(&_Data);

  00000	8d 41 04	 lea	 eax, DWORD PTR [ecx+4]
  00003	c7 01 00 00 00
	00		 mov	 DWORD PTR [ecx], OFFSET ??_7exception@std@@6B@
  00009	50		 push	 eax
  0000a	e8 00 00 00 00	 call	 ___std_exception_destroy
  0000f	59		 pop	 ecx

; 91   :     }

  00010	c3		 ret	 0
??1exception@std@@UAE@XZ ENDP				; std::exception::~exception
_TEXT	ENDS
; Function compile flags: /Ogtp
; File C:\Program Files (x86)\Microsoft Visual Studio\2019\Community\VC\Tools\MSVC\14.28.29333\include\vcruntime_exception.h
;	COMDAT ??0exception@std@@QAE@ABV01@@Z
_TEXT	SEGMENT
__Other$ = 8						; size = 4
??0exception@std@@QAE@ABV01@@Z PROC			; std::exception::exception, COMDAT
; _this$ = ecx

; 72   :     {

  00000	55		 push	 ebp
  00001	8b ec		 mov	 ebp, esp
  00003	56		 push	 esi
  00004	8b f1		 mov	 esi, ecx
  00006	0f 57 c0	 xorps	 xmm0, xmm0
  00009	8d 46 04	 lea	 eax, DWORD PTR [esi+4]

; 73   :         __std_exception_copy(&_Other._Data, &_Data);

  0000c	50		 push	 eax
  0000d	c7 06 00 00 00
	00		 mov	 DWORD PTR [esi], OFFSET ??_7exception@std@@6B@
  00013	66 0f d6 00	 movq	 QWORD PTR [eax], xmm0
  00017	8b 45 08	 mov	 eax, DWORD PTR __Other$[ebp]
  0001a	83 c0 04	 add	 eax, 4
  0001d	50		 push	 eax
  0001e	e8 00 00 00 00	 call	 ___std_exception_copy
  00023	83 c4 08	 add	 esp, 8

; 74   :     }

  00026	8b c6		 mov	 eax, esi
  00028	5e		 pop	 esi
  00029	5d		 pop	 ebp
  0002a	c2 04 00	 ret	 4
??0exception@std@@QAE@ABV01@@Z ENDP			; std::exception::exception
_TEXT	ENDS
; Function compile flags: /Ogtp
; File C:\Program Files (x86)\Windows Kits\10\Include\10.0.18362.0\ucrt\stdio.h
;	COMDAT _sprintf
_TEXT	SEGMENT
__Buffer$ = 8						; size = 4
__Format$ = 12						; size = 4
_sprintf PROC						; COMDAT

; 1781 :     {

  00000	55		 push	 ebp
  00001	8b ec		 mov	 ebp, esp

; 1390 :         int const _Result = __stdio_common_vsprintf(

  00003	8d 45 10	 lea	 eax, DWORD PTR __Format$[ebp+4]
  00006	50		 push	 eax
  00007	6a 00		 push	 0
  00009	ff 75 0c	 push	 DWORD PTR __Format$[ebp]
  0000c	6a ff		 push	 -1
  0000e	ff 75 08	 push	 DWORD PTR __Buffer$[ebp]
  00011	e8 00 00 00 00	 call	 ___local_stdio_printf_options
  00016	8b 08		 mov	 ecx, DWORD PTR [eax]
  00018	ff 70 04	 push	 DWORD PTR [eax+4]
  0001b	83 c9 01	 or	 ecx, 1
  0001e	51		 push	 ecx
  0001f	e8 00 00 00 00	 call	 ___stdio_common_vsprintf

; 1391 :             _CRT_INTERNAL_LOCAL_PRINTF_OPTIONS | _CRT_INTERNAL_PRINTF_LEGACY_VSPRINTF_NULL_TERMINATION,
; 1392 :             _Buffer, _BufferCount, _Format, _Locale, _ArgList);
; 1393 : 
; 1394 :         return _Result < 0 ? -1 : _Result;

  00024	83 c9 ff	 or	 ecx, -1
  00027	83 c4 1c	 add	 esp, 28			; 0000001cH
  0002a	85 c0		 test	 eax, eax
  0002c	0f 48 c1	 cmovs	 eax, ecx

; 1782 :         int _Result;
; 1783 :         va_list _ArgList;
; 1784 :         __crt_va_start(_ArgList, _Format);
; 1785 : 
; 1786 :         #pragma warning(push)
; 1787 :         #pragma warning(disable: 4996) // Deprecation
; 1788 :         _Result = _vsprintf_l(_Buffer, _Format, NULL, _ArgList);
; 1789 :         #pragma warning(pop)
; 1790 : 
; 1791 :         __crt_va_end(_ArgList);
; 1792 :         return _Result;
; 1793 :     }

  0002f	5d		 pop	 ebp
  00030	c3		 ret	 0
_sprintf ENDP
_TEXT	ENDS
; Function compile flags: /Ogtp
; File C:\Program Files (x86)\Windows Kits\10\Include\10.0.18362.0\ucrt\corecrt_stdio_config.h
;	COMDAT ___local_stdio_printf_options
_TEXT	SEGMENT
___local_stdio_printf_options PROC			; COMDAT

; 87   :         static unsigned __int64 _OptionsStorage;
; 88   :         return &_OptionsStorage;

  00000	b8 00 00 00 00	 mov	 eax, OFFSET ?_OptionsStorage@?1??__local_stdio_printf_options@@9@4_KA ; `__local_stdio_printf_options'::`2'::_OptionsStorage

; 89   :     }

  00005	c3		 ret	 0
___local_stdio_printf_options ENDP
_TEXT	ENDS
; Function compile flags: /Ogtp
; File D:\Metin2 Server Files\mainline\SRC_2014\Metin2Client\UserInterface\PythonTextTail.cpp
;	COMDAT ?__empty_global_delete@@YAXPAXI@Z
_TEXT	SEGMENT
___formal$ = 8						; size = 4
___formal$ = 12						; size = 4
?__empty_global_delete@@YAXPAXI@Z PROC			; __empty_global_delete, COMDAT

  00000	c2 00 00	 ret	 0
?__empty_global_delete@@YAXPAXI@Z ENDP			; __empty_global_delete
_TEXT	ENDS
; Function compile flags: /Ogtp
; File D:\Metin2 Server Files\mainline\SRC_2014\Metin2Client\UserInterface\PythonTextTail.cpp
;	COMDAT ?__empty_global_delete@@YAXPAX@Z
_TEXT	SEGMENT
___formal$ = 8						; size = 4
?__empty_global_delete@@YAXPAX@Z PROC			; __empty_global_delete, COMDAT

  00000	c2 00 00	 ret	 0
?__empty_global_delete@@YAXPAX@Z ENDP			; __empty_global_delete
_TEXT	ENDS
; Function compile flags: /Ogtp
;	COMDAT ??_H@YGXPAXIIP6EPAX0@Z@Z
_TEXT	SEGMENT
___t$ = 8						; size = 4
___s$ = 12						; size = 4
___n$ = 16						; size = 4
___f$ = 20						; size = 4
??_H@YGXPAXIIP6EPAX0@Z@Z PROC				; `vector constructor iterator', COMDAT
  00000	55		 push	 ebp
  00001	8b ec		 mov	 ebp, esp
  00003	56		 push	 esi
  00004	8b 75 10	 mov	 esi, DWORD PTR ___n$[ebp]
  00007	85 f6		 test	 esi, esi
  00009	74 16		 je	 SHORT $LN6@vector
  0000b	53		 push	 ebx
  0000c	8b 5d 14	 mov	 ebx, DWORD PTR ___f$[ebp]
  0000f	57		 push	 edi
  00010	8b 7d 08	 mov	 edi, DWORD PTR ___t$[ebp]
$LL2@vector:
  00013	8b cf		 mov	 ecx, edi
  00015	ff d3		 call	 ebx
  00017	03 7d 0c	 add	 edi, DWORD PTR ___s$[ebp]
  0001a	83 ee 01	 sub	 esi, 1
  0001d	75 f4		 jne	 SHORT $LL2@vector
  0001f	5f		 pop	 edi
  00020	5b		 pop	 ebx
$LN6@vector:
  00021	5e		 pop	 esi
  00022	5d		 pop	 ebp
  00023	c2 10 00	 ret	 16			; 00000010H
??_H@YGXPAXIIP6EPAX0@Z@Z ENDP				; `vector constructor iterator'
_TEXT	ENDS
END
