; Listing generated by Microsoft (R) Optimizing Compiler Version 19.28.29335.0 

	TITLE	D:\Metin2 Server Files\mainline\SRC_2014\Metin2Client\UserInterface\PythonCharacterModule.cpp
	.686P
	.XMM
	include listing.inc
	.model	flat

INCLUDELIB LIBCMT
INCLUDELIB OLDNAMES

PUBLIC	??_7?$CDynamicPoolEx@VCRotationDecorator@NEffectUpdateDecorator@@@@6B@ ; CDynamicPoolEx<NEffectUpdateDecorator::CRotationDecorator>::`vftable'
PUBLIC	??_G?$CDynamicPoolEx@VCRotationDecorator@NEffectUpdateDecorator@@@@UAEPAXI@Z ; CDynamicPoolEx<NEffectUpdateDecorator::CRotationDecorator>::`scalar deleting destructor'
PUBLIC	??_7?$CDynamicPoolEx@VCGravityDecorator@NEffectUpdateDecorator@@@@6B@ ; CDynamicPoolEx<NEffectUpdateDecorator::CGravityDecorator>::`vftable'
PUBLIC	??_G?$CDynamicPoolEx@VCGravityDecorator@NEffectUpdateDecorator@@@@UAEPAXI@Z ; CDynamicPoolEx<NEffectUpdateDecorator::CGravityDecorator>::`scalar deleting destructor'
PUBLIC	??_7?$CDynamicPoolEx@VCAirResistanceDecorator@NEffectUpdateDecorator@@@@6B@ ; CDynamicPoolEx<NEffectUpdateDecorator::CAirResistanceDecorator>::`vftable'
PUBLIC	??_G?$CDynamicPoolEx@VCAirResistanceDecorator@NEffectUpdateDecorator@@@@UAEPAXI@Z ; CDynamicPoolEx<NEffectUpdateDecorator::CAirResistanceDecorator>::`scalar deleting destructor'
PUBLIC	??_7?$CDynamicPoolEx@VCTextureAnimationRandomDecorator@NEffectUpdateDecorator@@@@6B@ ; CDynamicPoolEx<NEffectUpdateDecorator::CTextureAnimationRandomDecorator>::`vftable'
PUBLIC	??_G?$CDynamicPoolEx@VCTextureAnimationRandomDecorator@NEffectUpdateDecorator@@@@UAEPAXI@Z ; CDynamicPoolEx<NEffectUpdateDecorator::CTextureAnimationRandomDecorator>::`scalar deleting destructor'
PUBLIC	??_7?$CDynamicPoolEx@VCTextureAnimationCCWDecorator@NEffectUpdateDecorator@@@@6B@ ; CDynamicPoolEx<NEffectUpdateDecorator::CTextureAnimationCCWDecorator>::`vftable'
PUBLIC	??_G?$CDynamicPoolEx@VCTextureAnimationCCWDecorator@NEffectUpdateDecorator@@@@UAEPAXI@Z ; CDynamicPoolEx<NEffectUpdateDecorator::CTextureAnimationCCWDecorator>::`scalar deleting destructor'
PUBLIC	??_7?$CDynamicPoolEx@VCTextureAnimationCWDecorator@NEffectUpdateDecorator@@@@6B@ ; CDynamicPoolEx<NEffectUpdateDecorator::CTextureAnimationCWDecorator>::`vftable'
PUBLIC	??_G?$CDynamicPoolEx@VCTextureAnimationCWDecorator@NEffectUpdateDecorator@@@@UAEPAXI@Z ; CDynamicPoolEx<NEffectUpdateDecorator::CTextureAnimationCWDecorator>::`scalar deleting destructor'
PUBLIC	??_R4?$CDynamicPoolEx@VCHeaderDecorator@NEffectUpdateDecorator@@@@6B@ ; CDynamicPoolEx<NEffectUpdateDecorator::CHeaderDecorator>::`RTTI Complete Object Locator'
PUBLIC	??_R0?AV?$CDynamicPoolEx@VCHeaderDecorator@NEffectUpdateDecorator@@@@@8 ; CDynamicPoolEx<NEffectUpdateDecorator::CHeaderDecorator> `RTTI Type Descriptor'
PUBLIC	??_R3?$CDynamicPoolEx@VCHeaderDecorator@NEffectUpdateDecorator@@@@8 ; CDynamicPoolEx<NEffectUpdateDecorator::CHeaderDecorator>::`RTTI Class Hierarchy Descriptor'
PUBLIC	??_R2?$CDynamicPoolEx@VCHeaderDecorator@NEffectUpdateDecorator@@@@8 ; CDynamicPoolEx<NEffectUpdateDecorator::CHeaderDecorator>::`RTTI Base Class Array'
PUBLIC	??_R1A@?0A@EA@?$CDynamicPoolEx@VCHeaderDecorator@NEffectUpdateDecorator@@@@8 ; CDynamicPoolEx<NEffectUpdateDecorator::CHeaderDecorator>::`RTTI Base Class Descriptor at (0,-1,0,64)'
PUBLIC	??_7?$CDynamicPoolEx@VCNullDecorator@NEffectUpdateDecorator@@@@6B@ ; CDynamicPoolEx<NEffectUpdateDecorator::CNullDecorator>::`vftable'
PUBLIC	??_R4?$CDynamicPoolEx@VCNullDecorator@NEffectUpdateDecorator@@@@6B@ ; CDynamicPoolEx<NEffectUpdateDecorator::CNullDecorator>::`RTTI Complete Object Locator'
PUBLIC	??_G?$CDynamicPoolEx@VCNullDecorator@NEffectUpdateDecorator@@@@UAEPAXI@Z ; CDynamicPoolEx<NEffectUpdateDecorator::CNullDecorator>::`scalar deleting destructor'
PUBLIC	??_R0?AV?$CDynamicPoolEx@VCNullDecorator@NEffectUpdateDecorator@@@@@8 ; CDynamicPoolEx<NEffectUpdateDecorator::CNullDecorator> `RTTI Type Descriptor'
PUBLIC	??_R3?$CDynamicPoolEx@VCNullDecorator@NEffectUpdateDecorator@@@@8 ; CDynamicPoolEx<NEffectUpdateDecorator::CNullDecorator>::`RTTI Class Hierarchy Descriptor'
PUBLIC	??_R2?$CDynamicPoolEx@VCNullDecorator@NEffectUpdateDecorator@@@@8 ; CDynamicPoolEx<NEffectUpdateDecorator::CNullDecorator>::`RTTI Base Class Array'
PUBLIC	??_R1A@?0A@EA@?$CDynamicPoolEx@VCNullDecorator@NEffectUpdateDecorator@@@@8 ; CDynamicPoolEx<NEffectUpdateDecorator::CNullDecorator>::`RTTI Base Class Descriptor at (0,-1,0,64)'
PUBLIC	??_R4?$CDynamicPoolEx@VCTextureAnimationCWDecorator@NEffectUpdateDecorator@@@@6B@ ; CDynamicPoolEx<NEffectUpdateDecorator::CTextureAnimationCWDecorator>::`RTTI Complete Object Locator'
PUBLIC	??_R0?AV?$CDynamicPoolEx@VCTextureAnimationCWDecorator@NEffectUpdateDecorator@@@@@8 ; CDynamicPoolEx<NEffectUpdateDecorator::CTextureAnimationCWDecorator> `RTTI Type Descriptor'
PUBLIC	??_R3?$CDynamicPoolEx@VCTextureAnimationCWDecorator@NEffectUpdateDecorator@@@@8 ; CDynamicPoolEx<NEffectUpdateDecorator::CTextureAnimationCWDecorator>::`RTTI Class Hierarchy Descriptor'
PUBLIC	??_R2?$CDynamicPoolEx@VCTextureAnimationCWDecorator@NEffectUpdateDecorator@@@@8 ; CDynamicPoolEx<NEffectUpdateDecorator::CTextureAnimationCWDecorator>::`RTTI Base Class Array'
PUBLIC	??_R1A@?0A@EA@?$CDynamicPoolEx@VCTextureAnimationCWDecorator@NEffectUpdateDecorator@@@@8 ; CDynamicPoolEx<NEffectUpdateDecorator::CTextureAnimationCWDecorator>::`RTTI Base Class Descriptor at (0,-1,0,64)'
PUBLIC	??_R4?$CDynamicPoolEx@VCTextureAnimationCCWDecorator@NEffectUpdateDecorator@@@@6B@ ; CDynamicPoolEx<NEffectUpdateDecorator::CTextureAnimationCCWDecorator>::`RTTI Complete Object Locator'
PUBLIC	??_R0?AV?$CDynamicPoolEx@VCTextureAnimationCCWDecorator@NEffectUpdateDecorator@@@@@8 ; CDynamicPoolEx<NEffectUpdateDecorator::CTextureAnimationCCWDecorator> `RTTI Type Descriptor'
PUBLIC	??_R3?$CDynamicPoolEx@VCTextureAnimationCCWDecorator@NEffectUpdateDecorator@@@@8 ; CDynamicPoolEx<NEffectUpdateDecorator::CTextureAnimationCCWDecorator>::`RTTI Class Hierarchy Descriptor'
PUBLIC	??_R2?$CDynamicPoolEx@VCTextureAnimationCCWDecorator@NEffectUpdateDecorator@@@@8 ; CDynamicPoolEx<NEffectUpdateDecorator::CTextureAnimationCCWDecorator>::`RTTI Base Class Array'
PUBLIC	??_R1A@?0A@EA@?$CDynamicPoolEx@VCTextureAnimationCCWDecorator@NEffectUpdateDecorator@@@@8 ; CDynamicPoolEx<NEffectUpdateDecorator::CTextureAnimationCCWDecorator>::`RTTI Base Class Descriptor at (0,-1,0,64)'
PUBLIC	??_R4?$CDynamicPoolEx@VCTextureAnimationRandomDecorator@NEffectUpdateDecorator@@@@6B@ ; CDynamicPoolEx<NEffectUpdateDecorator::CTextureAnimationRandomDecorator>::`RTTI Complete Object Locator'
PUBLIC	??_R0?AV?$CDynamicPoolEx@VCTextureAnimationRandomDecorator@NEffectUpdateDecorator@@@@@8 ; CDynamicPoolEx<NEffectUpdateDecorator::CTextureAnimationRandomDecorator> `RTTI Type Descriptor'
PUBLIC	??_R3?$CDynamicPoolEx@VCTextureAnimationRandomDecorator@NEffectUpdateDecorator@@@@8 ; CDynamicPoolEx<NEffectUpdateDecorator::CTextureAnimationRandomDecorator>::`RTTI Class Hierarchy Descriptor'
PUBLIC	??_R2?$CDynamicPoolEx@VCTextureAnimationRandomDecorator@NEffectUpdateDecorator@@@@8 ; CDynamicPoolEx<NEffectUpdateDecorator::CTextureAnimationRandomDecorator>::`RTTI Base Class Array'
PUBLIC	??_R1A@?0A@EA@?$CDynamicPoolEx@VCTextureAnimationRandomDecorator@NEffectUpdateDecorator@@@@8 ; CDynamicPoolEx<NEffectUpdateDecorator::CTextureAnimationRandomDecorator>::`RTTI Base Class Descriptor at (0,-1,0,64)'
PUBLIC	??_R4?$CDynamicPoolEx@VCAirResistanceDecorator@NEffectUpdateDecorator@@@@6B@ ; CDynamicPoolEx<NEffectUpdateDecorator::CAirResistanceDecorator>::`RTTI Complete Object Locator'
PUBLIC	??_R0?AV?$CDynamicPoolEx@VCAirResistanceDecorator@NEffectUpdateDecorator@@@@@8 ; CDynamicPoolEx<NEffectUpdateDecorator::CAirResistanceDecorator> `RTTI Type Descriptor'
PUBLIC	??_R3?$CDynamicPoolEx@VCAirResistanceDecorator@NEffectUpdateDecorator@@@@8 ; CDynamicPoolEx<NEffectUpdateDecorator::CAirResistanceDecorator>::`RTTI Class Hierarchy Descriptor'
PUBLIC	??_R2?$CDynamicPoolEx@VCAirResistanceDecorator@NEffectUpdateDecorator@@@@8 ; CDynamicPoolEx<NEffectUpdateDecorator::CAirResistanceDecorator>::`RTTI Base Class Array'
PUBLIC	??_R1A@?0A@EA@?$CDynamicPoolEx@VCAirResistanceDecorator@NEffectUpdateDecorator@@@@8 ; CDynamicPoolEx<NEffectUpdateDecorator::CAirResistanceDecorator>::`RTTI Base Class Descriptor at (0,-1,0,64)'
PUBLIC	??_R4?$CDynamicPoolEx@VCGravityDecorator@NEffectUpdateDecorator@@@@6B@ ; CDynamicPoolEx<NEffectUpdateDecorator::CGravityDecorator>::`RTTI Complete Object Locator'
PUBLIC	??_R0?AV?$CDynamicPoolEx@VCGravityDecorator@NEffectUpdateDecorator@@@@@8 ; CDynamicPoolEx<NEffectUpdateDecorator::CGravityDecorator> `RTTI Type Descriptor'
PUBLIC	??_R3?$CDynamicPoolEx@VCGravityDecorator@NEffectUpdateDecorator@@@@8 ; CDynamicPoolEx<NEffectUpdateDecorator::CGravityDecorator>::`RTTI Class Hierarchy Descriptor'
PUBLIC	??_R2?$CDynamicPoolEx@VCGravityDecorator@NEffectUpdateDecorator@@@@8 ; CDynamicPoolEx<NEffectUpdateDecorator::CGravityDecorator>::`RTTI Base Class Array'
PUBLIC	??_R1A@?0A@EA@?$CDynamicPoolEx@VCGravityDecorator@NEffectUpdateDecorator@@@@8 ; CDynamicPoolEx<NEffectUpdateDecorator::CGravityDecorator>::`RTTI Base Class Descriptor at (0,-1,0,64)'
PUBLIC	??_R4?$CDynamicPoolEx@VCRotationDecorator@NEffectUpdateDecorator@@@@6B@ ; CDynamicPoolEx<NEffectUpdateDecorator::CRotationDecorator>::`RTTI Complete Object Locator'
PUBLIC	??_R0?AV?$CDynamicPoolEx@VCRotationDecorator@NEffectUpdateDecorator@@@@@8 ; CDynamicPoolEx<NEffectUpdateDecorator::CRotationDecorator> `RTTI Type Descriptor'
PUBLIC	??_R3?$CDynamicPoolEx@VCRotationDecorator@NEffectUpdateDecorator@@@@8 ; CDynamicPoolEx<NEffectUpdateDecorator::CRotationDecorator>::`RTTI Class Hierarchy Descriptor'
PUBLIC	??_R2?$CDynamicPoolEx@VCRotationDecorator@NEffectUpdateDecorator@@@@8 ; CDynamicPoolEx<NEffectUpdateDecorator::CRotationDecorator>::`RTTI Base Class Array'
PUBLIC	??_R1A@?0A@EA@?$CDynamicPoolEx@VCRotationDecorator@NEffectUpdateDecorator@@@@8 ; CDynamicPoolEx<NEffectUpdateDecorator::CRotationDecorator>::`RTTI Base Class Descriptor at (0,-1,0,64)'
PUBLIC	??_7?$CDynamicPoolEx@VCHeaderDecorator@NEffectUpdateDecorator@@@@6B@ ; CDynamicPoolEx<NEffectUpdateDecorator::CHeaderDecorator>::`vftable'
PUBLIC	??_G?$CDynamicPoolEx@VCHeaderDecorator@NEffectUpdateDecorator@@@@UAEPAXI@Z ; CDynamicPoolEx<NEffectUpdateDecorator::CHeaderDecorator>::`scalar deleting destructor'
EXTRN	??_E?$CDynamicPoolEx@VCRotationDecorator@NEffectUpdateDecorator@@@@UAEPAXI@Z:PROC ; CDynamicPoolEx<NEffectUpdateDecorator::CRotationDecorator>::`vector deleting destructor'
EXTRN	??_E?$CDynamicPoolEx@VCGravityDecorator@NEffectUpdateDecorator@@@@UAEPAXI@Z:PROC ; CDynamicPoolEx<NEffectUpdateDecorator::CGravityDecorator>::`vector deleting destructor'
EXTRN	??_E?$CDynamicPoolEx@VCAirResistanceDecorator@NEffectUpdateDecorator@@@@UAEPAXI@Z:PROC ; CDynamicPoolEx<NEffectUpdateDecorator::CAirResistanceDecorator>::`vector deleting destructor'
EXTRN	??_7type_info@@6B@:QWORD			; type_info::`vftable'
EXTRN	??_E?$CDynamicPoolEx@VCTextureAnimationRandomDecorator@NEffectUpdateDecorator@@@@UAEPAXI@Z:PROC ; CDynamicPoolEx<NEffectUpdateDecorator::CTextureAnimationRandomDecorator>::`vector deleting destructor'
EXTRN	??_E?$CDynamicPoolEx@VCTextureAnimationCCWDecorator@NEffectUpdateDecorator@@@@UAEPAXI@Z:PROC ; CDynamicPoolEx<NEffectUpdateDecorator::CTextureAnimationCCWDecorator>::`vector deleting destructor'
EXTRN	??_E?$CDynamicPoolEx@VCTextureAnimationCWDecorator@NEffectUpdateDecorator@@@@UAEPAXI@Z:PROC ; CDynamicPoolEx<NEffectUpdateDecorator::CTextureAnimationCWDecorator>::`vector deleting destructor'
EXTRN	??_E?$CDynamicPoolEx@VCNullDecorator@NEffectUpdateDecorator@@@@UAEPAXI@Z:PROC ; CDynamicPoolEx<NEffectUpdateDecorator::CNullDecorator>::`vector deleting destructor'
EXTRN	??_E?$CDynamicPoolEx@VCHeaderDecorator@NEffectUpdateDecorator@@@@UAEPAXI@Z:PROC ; CDynamicPoolEx<NEffectUpdateDecorator::CHeaderDecorator>::`vector deleting destructor'
;	COMDAT ??_7?$CDynamicPoolEx@VCHeaderDecorator@NEffectUpdateDecorator@@@@6B@
CONST	SEGMENT
??_7?$CDynamicPoolEx@VCHeaderDecorator@NEffectUpdateDecorator@@@@6B@ DD FLAT:??_R4?$CDynamicPoolEx@VCHeaderDecorator@NEffectUpdateDecorator@@@@6B@ ; CDynamicPoolEx<NEffectUpdateDecorator::CHeaderDecorator>::`vftable'
	DD	FLAT:??_E?$CDynamicPoolEx@VCHeaderDecorator@NEffectUpdateDecorator@@@@UAEPAXI@Z
CONST	ENDS
;	COMDAT ??_R1A@?0A@EA@?$CDynamicPoolEx@VCRotationDecorator@NEffectUpdateDecorator@@@@8
rdata$r	SEGMENT
??_R1A@?0A@EA@?$CDynamicPoolEx@VCRotationDecorator@NEffectUpdateDecorator@@@@8 DD FLAT:??_R0?AV?$CDynamicPoolEx@VCRotationDecorator@NEffectUpdateDecorator@@@@@8 ; CDynamicPoolEx<NEffectUpdateDecorator::CRotationDecorator>::`RTTI Base Class Descriptor at (0,-1,0,64)'
	DD	00H
	DD	00H
	DD	0ffffffffH
	DD	00H
	DD	040H
	DD	FLAT:??_R3?$CDynamicPoolEx@VCRotationDecorator@NEffectUpdateDecorator@@@@8
rdata$r	ENDS
;	COMDAT ??_R2?$CDynamicPoolEx@VCRotationDecorator@NEffectUpdateDecorator@@@@8
rdata$r	SEGMENT
??_R2?$CDynamicPoolEx@VCRotationDecorator@NEffectUpdateDecorator@@@@8 DD FLAT:??_R1A@?0A@EA@?$CDynamicPoolEx@VCRotationDecorator@NEffectUpdateDecorator@@@@8 ; CDynamicPoolEx<NEffectUpdateDecorator::CRotationDecorator>::`RTTI Base Class Array'
rdata$r	ENDS
;	COMDAT ??_R3?$CDynamicPoolEx@VCRotationDecorator@NEffectUpdateDecorator@@@@8
rdata$r	SEGMENT
??_R3?$CDynamicPoolEx@VCRotationDecorator@NEffectUpdateDecorator@@@@8 DD 00H ; CDynamicPoolEx<NEffectUpdateDecorator::CRotationDecorator>::`RTTI Class Hierarchy Descriptor'
	DD	00H
	DD	01H
	DD	FLAT:??_R2?$CDynamicPoolEx@VCRotationDecorator@NEffectUpdateDecorator@@@@8
rdata$r	ENDS
;	COMDAT ??_R0?AV?$CDynamicPoolEx@VCRotationDecorator@NEffectUpdateDecorator@@@@@8
data$rs	SEGMENT
??_R0?AV?$CDynamicPoolEx@VCRotationDecorator@NEffectUpdateDecorator@@@@@8 DD FLAT:??_7type_info@@6B@ ; CDynamicPoolEx<NEffectUpdateDecorator::CRotationDecorator> `RTTI Type Descriptor'
	DD	00H
	DB	'.?AV?$CDynamicPoolEx@VCRotationDecorator@NEffectUpdateDe'
	DB	'corator@@@@', 00H
data$rs	ENDS
;	COMDAT ??_R4?$CDynamicPoolEx@VCRotationDecorator@NEffectUpdateDecorator@@@@6B@
rdata$r	SEGMENT
??_R4?$CDynamicPoolEx@VCRotationDecorator@NEffectUpdateDecorator@@@@6B@ DD 00H ; CDynamicPoolEx<NEffectUpdateDecorator::CRotationDecorator>::`RTTI Complete Object Locator'
	DD	00H
	DD	00H
	DD	FLAT:??_R0?AV?$CDynamicPoolEx@VCRotationDecorator@NEffectUpdateDecorator@@@@@8
	DD	FLAT:??_R3?$CDynamicPoolEx@VCRotationDecorator@NEffectUpdateDecorator@@@@8
rdata$r	ENDS
;	COMDAT ??_R1A@?0A@EA@?$CDynamicPoolEx@VCGravityDecorator@NEffectUpdateDecorator@@@@8
rdata$r	SEGMENT
??_R1A@?0A@EA@?$CDynamicPoolEx@VCGravityDecorator@NEffectUpdateDecorator@@@@8 DD FLAT:??_R0?AV?$CDynamicPoolEx@VCGravityDecorator@NEffectUpdateDecorator@@@@@8 ; CDynamicPoolEx<NEffectUpdateDecorator::CGravityDecorator>::`RTTI Base Class Descriptor at (0,-1,0,64)'
	DD	00H
	DD	00H
	DD	0ffffffffH
	DD	00H
	DD	040H
	DD	FLAT:??_R3?$CDynamicPoolEx@VCGravityDecorator@NEffectUpdateDecorator@@@@8
rdata$r	ENDS
;	COMDAT ??_R2?$CDynamicPoolEx@VCGravityDecorator@NEffectUpdateDecorator@@@@8
rdata$r	SEGMENT
??_R2?$CDynamicPoolEx@VCGravityDecorator@NEffectUpdateDecorator@@@@8 DD FLAT:??_R1A@?0A@EA@?$CDynamicPoolEx@VCGravityDecorator@NEffectUpdateDecorator@@@@8 ; CDynamicPoolEx<NEffectUpdateDecorator::CGravityDecorator>::`RTTI Base Class Array'
rdata$r	ENDS
;	COMDAT ??_R3?$CDynamicPoolEx@VCGravityDecorator@NEffectUpdateDecorator@@@@8
rdata$r	SEGMENT
??_R3?$CDynamicPoolEx@VCGravityDecorator@NEffectUpdateDecorator@@@@8 DD 00H ; CDynamicPoolEx<NEffectUpdateDecorator::CGravityDecorator>::`RTTI Class Hierarchy Descriptor'
	DD	00H
	DD	01H
	DD	FLAT:??_R2?$CDynamicPoolEx@VCGravityDecorator@NEffectUpdateDecorator@@@@8
rdata$r	ENDS
;	COMDAT ??_R0?AV?$CDynamicPoolEx@VCGravityDecorator@NEffectUpdateDecorator@@@@@8
data$rs	SEGMENT
??_R0?AV?$CDynamicPoolEx@VCGravityDecorator@NEffectUpdateDecorator@@@@@8 DD FLAT:??_7type_info@@6B@ ; CDynamicPoolEx<NEffectUpdateDecorator::CGravityDecorator> `RTTI Type Descriptor'
	DD	00H
	DB	'.?AV?$CDynamicPoolEx@VCGravityDecorator@NEffectUpdateDec'
	DB	'orator@@@@', 00H
data$rs	ENDS
;	COMDAT ??_R4?$CDynamicPoolEx@VCGravityDecorator@NEffectUpdateDecorator@@@@6B@
rdata$r	SEGMENT
??_R4?$CDynamicPoolEx@VCGravityDecorator@NEffectUpdateDecorator@@@@6B@ DD 00H ; CDynamicPoolEx<NEffectUpdateDecorator::CGravityDecorator>::`RTTI Complete Object Locator'
	DD	00H
	DD	00H
	DD	FLAT:??_R0?AV?$CDynamicPoolEx@VCGravityDecorator@NEffectUpdateDecorator@@@@@8
	DD	FLAT:??_R3?$CDynamicPoolEx@VCGravityDecorator@NEffectUpdateDecorator@@@@8
rdata$r	ENDS
;	COMDAT ??_R1A@?0A@EA@?$CDynamicPoolEx@VCAirResistanceDecorator@NEffectUpdateDecorator@@@@8
rdata$r	SEGMENT
??_R1A@?0A@EA@?$CDynamicPoolEx@VCAirResistanceDecorator@NEffectUpdateDecorator@@@@8 DD FLAT:??_R0?AV?$CDynamicPoolEx@VCAirResistanceDecorator@NEffectUpdateDecorator@@@@@8 ; CDynamicPoolEx<NEffectUpdateDecorator::CAirResistanceDecorator>::`RTTI Base Class Descriptor at (0,-1,0,64)'
	DD	00H
	DD	00H
	DD	0ffffffffH
	DD	00H
	DD	040H
	DD	FLAT:??_R3?$CDynamicPoolEx@VCAirResistanceDecorator@NEffectUpdateDecorator@@@@8
rdata$r	ENDS
;	COMDAT ??_R2?$CDynamicPoolEx@VCAirResistanceDecorator@NEffectUpdateDecorator@@@@8
rdata$r	SEGMENT
??_R2?$CDynamicPoolEx@VCAirResistanceDecorator@NEffectUpdateDecorator@@@@8 DD FLAT:??_R1A@?0A@EA@?$CDynamicPoolEx@VCAirResistanceDecorator@NEffectUpdateDecorator@@@@8 ; CDynamicPoolEx<NEffectUpdateDecorator::CAirResistanceDecorator>::`RTTI Base Class Array'
rdata$r	ENDS
;	COMDAT ??_R3?$CDynamicPoolEx@VCAirResistanceDecorator@NEffectUpdateDecorator@@@@8
rdata$r	SEGMENT
??_R3?$CDynamicPoolEx@VCAirResistanceDecorator@NEffectUpdateDecorator@@@@8 DD 00H ; CDynamicPoolEx<NEffectUpdateDecorator::CAirResistanceDecorator>::`RTTI Class Hierarchy Descriptor'
	DD	00H
	DD	01H
	DD	FLAT:??_R2?$CDynamicPoolEx@VCAirResistanceDecorator@NEffectUpdateDecorator@@@@8
rdata$r	ENDS
;	COMDAT ??_R0?AV?$CDynamicPoolEx@VCAirResistanceDecorator@NEffectUpdateDecorator@@@@@8
data$rs	SEGMENT
??_R0?AV?$CDynamicPoolEx@VCAirResistanceDecorator@NEffectUpdateDecorator@@@@@8 DD FLAT:??_7type_info@@6B@ ; CDynamicPoolEx<NEffectUpdateDecorator::CAirResistanceDecorator> `RTTI Type Descriptor'
	DD	00H
	DB	'.?AV?$CDynamicPoolEx@VCAirResistanceDecorator@NEffectUpd'
	DB	'ateDecorator@@@@', 00H
data$rs	ENDS
;	COMDAT ??_R4?$CDynamicPoolEx@VCAirResistanceDecorator@NEffectUpdateDecorator@@@@6B@
rdata$r	SEGMENT
??_R4?$CDynamicPoolEx@VCAirResistanceDecorator@NEffectUpdateDecorator@@@@6B@ DD 00H ; CDynamicPoolEx<NEffectUpdateDecorator::CAirResistanceDecorator>::`RTTI Complete Object Locator'
	DD	00H
	DD	00H
	DD	FLAT:??_R0?AV?$CDynamicPoolEx@VCAirResistanceDecorator@NEffectUpdateDecorator@@@@@8
	DD	FLAT:??_R3?$CDynamicPoolEx@VCAirResistanceDecorator@NEffectUpdateDecorator@@@@8
rdata$r	ENDS
;	COMDAT ??_R1A@?0A@EA@?$CDynamicPoolEx@VCTextureAnimationRandomDecorator@NEffectUpdateDecorator@@@@8
rdata$r	SEGMENT
??_R1A@?0A@EA@?$CDynamicPoolEx@VCTextureAnimationRandomDecorator@NEffectUpdateDecorator@@@@8 DD FLAT:??_R0?AV?$CDynamicPoolEx@VCTextureAnimationRandomDecorator@NEffectUpdateDecorator@@@@@8 ; CDynamicPoolEx<NEffectUpdateDecorator::CTextureAnimationRandomDecorator>::`RTTI Base Class Descriptor at (0,-1,0,64)'
	DD	00H
	DD	00H
	DD	0ffffffffH
	DD	00H
	DD	040H
	DD	FLAT:??_R3?$CDynamicPoolEx@VCTextureAnimationRandomDecorator@NEffectUpdateDecorator@@@@8
rdata$r	ENDS
;	COMDAT ??_R2?$CDynamicPoolEx@VCTextureAnimationRandomDecorator@NEffectUpdateDecorator@@@@8
rdata$r	SEGMENT
??_R2?$CDynamicPoolEx@VCTextureAnimationRandomDecorator@NEffectUpdateDecorator@@@@8 DD FLAT:??_R1A@?0A@EA@?$CDynamicPoolEx@VCTextureAnimationRandomDecorator@NEffectUpdateDecorator@@@@8 ; CDynamicPoolEx<NEffectUpdateDecorator::CTextureAnimationRandomDecorator>::`RTTI Base Class Array'
rdata$r	ENDS
;	COMDAT ??_R3?$CDynamicPoolEx@VCTextureAnimationRandomDecorator@NEffectUpdateDecorator@@@@8
rdata$r	SEGMENT
??_R3?$CDynamicPoolEx@VCTextureAnimationRandomDecorator@NEffectUpdateDecorator@@@@8 DD 00H ; CDynamicPoolEx<NEffectUpdateDecorator::CTextureAnimationRandomDecorator>::`RTTI Class Hierarchy Descriptor'
	DD	00H
	DD	01H
	DD	FLAT:??_R2?$CDynamicPoolEx@VCTextureAnimationRandomDecorator@NEffectUpdateDecorator@@@@8
rdata$r	ENDS
;	COMDAT ??_R0?AV?$CDynamicPoolEx@VCTextureAnimationRandomDecorator@NEffectUpdateDecorator@@@@@8
data$rs	SEGMENT
??_R0?AV?$CDynamicPoolEx@VCTextureAnimationRandomDecorator@NEffectUpdateDecorator@@@@@8 DD FLAT:??_7type_info@@6B@ ; CDynamicPoolEx<NEffectUpdateDecorator::CTextureAnimationRandomDecorator> `RTTI Type Descriptor'
	DD	00H
	DB	'.?AV?$CDynamicPoolEx@VCTextureAnimationRandomDecorator@N'
	DB	'EffectUpdateDecorator@@@@', 00H
data$rs	ENDS
;	COMDAT ??_R4?$CDynamicPoolEx@VCTextureAnimationRandomDecorator@NEffectUpdateDecorator@@@@6B@
rdata$r	SEGMENT
??_R4?$CDynamicPoolEx@VCTextureAnimationRandomDecorator@NEffectUpdateDecorator@@@@6B@ DD 00H ; CDynamicPoolEx<NEffectUpdateDecorator::CTextureAnimationRandomDecorator>::`RTTI Complete Object Locator'
	DD	00H
	DD	00H
	DD	FLAT:??_R0?AV?$CDynamicPoolEx@VCTextureAnimationRandomDecorator@NEffectUpdateDecorator@@@@@8
	DD	FLAT:??_R3?$CDynamicPoolEx@VCTextureAnimationRandomDecorator@NEffectUpdateDecorator@@@@8
rdata$r	ENDS
;	COMDAT ??_R1A@?0A@EA@?$CDynamicPoolEx@VCTextureAnimationCCWDecorator@NEffectUpdateDecorator@@@@8
rdata$r	SEGMENT
??_R1A@?0A@EA@?$CDynamicPoolEx@VCTextureAnimationCCWDecorator@NEffectUpdateDecorator@@@@8 DD FLAT:??_R0?AV?$CDynamicPoolEx@VCTextureAnimationCCWDecorator@NEffectUpdateDecorator@@@@@8 ; CDynamicPoolEx<NEffectUpdateDecorator::CTextureAnimationCCWDecorator>::`RTTI Base Class Descriptor at (0,-1,0,64)'
	DD	00H
	DD	00H
	DD	0ffffffffH
	DD	00H
	DD	040H
	DD	FLAT:??_R3?$CDynamicPoolEx@VCTextureAnimationCCWDecorator@NEffectUpdateDecorator@@@@8
rdata$r	ENDS
;	COMDAT ??_R2?$CDynamicPoolEx@VCTextureAnimationCCWDecorator@NEffectUpdateDecorator@@@@8
rdata$r	SEGMENT
??_R2?$CDynamicPoolEx@VCTextureAnimationCCWDecorator@NEffectUpdateDecorator@@@@8 DD FLAT:??_R1A@?0A@EA@?$CDynamicPoolEx@VCTextureAnimationCCWDecorator@NEffectUpdateDecorator@@@@8 ; CDynamicPoolEx<NEffectUpdateDecorator::CTextureAnimationCCWDecorator>::`RTTI Base Class Array'
rdata$r	ENDS
;	COMDAT ??_R3?$CDynamicPoolEx@VCTextureAnimationCCWDecorator@NEffectUpdateDecorator@@@@8
rdata$r	SEGMENT
??_R3?$CDynamicPoolEx@VCTextureAnimationCCWDecorator@NEffectUpdateDecorator@@@@8 DD 00H ; CDynamicPoolEx<NEffectUpdateDecorator::CTextureAnimationCCWDecorator>::`RTTI Class Hierarchy Descriptor'
	DD	00H
	DD	01H
	DD	FLAT:??_R2?$CDynamicPoolEx@VCTextureAnimationCCWDecorator@NEffectUpdateDecorator@@@@8
rdata$r	ENDS
;	COMDAT ??_R0?AV?$CDynamicPoolEx@VCTextureAnimationCCWDecorator@NEffectUpdateDecorator@@@@@8
data$rs	SEGMENT
??_R0?AV?$CDynamicPoolEx@VCTextureAnimationCCWDecorator@NEffectUpdateDecorator@@@@@8 DD FLAT:??_7type_info@@6B@ ; CDynamicPoolEx<NEffectUpdateDecorator::CTextureAnimationCCWDecorator> `RTTI Type Descriptor'
	DD	00H
	DB	'.?AV?$CDynamicPoolEx@VCTextureAnimationCCWDecorator@NEff'
	DB	'ectUpdateDecorator@@@@', 00H
data$rs	ENDS
;	COMDAT ??_R4?$CDynamicPoolEx@VCTextureAnimationCCWDecorator@NEffectUpdateDecorator@@@@6B@
rdata$r	SEGMENT
??_R4?$CDynamicPoolEx@VCTextureAnimationCCWDecorator@NEffectUpdateDecorator@@@@6B@ DD 00H ; CDynamicPoolEx<NEffectUpdateDecorator::CTextureAnimationCCWDecorator>::`RTTI Complete Object Locator'
	DD	00H
	DD	00H
	DD	FLAT:??_R0?AV?$CDynamicPoolEx@VCTextureAnimationCCWDecorator@NEffectUpdateDecorator@@@@@8
	DD	FLAT:??_R3?$CDynamicPoolEx@VCTextureAnimationCCWDecorator@NEffectUpdateDecorator@@@@8
rdata$r	ENDS
;	COMDAT ??_R1A@?0A@EA@?$CDynamicPoolEx@VCTextureAnimationCWDecorator@NEffectUpdateDecorator@@@@8
rdata$r	SEGMENT
??_R1A@?0A@EA@?$CDynamicPoolEx@VCTextureAnimationCWDecorator@NEffectUpdateDecorator@@@@8 DD FLAT:??_R0?AV?$CDynamicPoolEx@VCTextureAnimationCWDecorator@NEffectUpdateDecorator@@@@@8 ; CDynamicPoolEx<NEffectUpdateDecorator::CTextureAnimationCWDecorator>::`RTTI Base Class Descriptor at (0,-1,0,64)'
	DD	00H
	DD	00H
	DD	0ffffffffH
	DD	00H
	DD	040H
	DD	FLAT:??_R3?$CDynamicPoolEx@VCTextureAnimationCWDecorator@NEffectUpdateDecorator@@@@8
rdata$r	ENDS
;	COMDAT ??_R2?$CDynamicPoolEx@VCTextureAnimationCWDecorator@NEffectUpdateDecorator@@@@8
rdata$r	SEGMENT
??_R2?$CDynamicPoolEx@VCTextureAnimationCWDecorator@NEffectUpdateDecorator@@@@8 DD FLAT:??_R1A@?0A@EA@?$CDynamicPoolEx@VCTextureAnimationCWDecorator@NEffectUpdateDecorator@@@@8 ; CDynamicPoolEx<NEffectUpdateDecorator::CTextureAnimationCWDecorator>::`RTTI Base Class Array'
rdata$r	ENDS
;	COMDAT ??_R3?$CDynamicPoolEx@VCTextureAnimationCWDecorator@NEffectUpdateDecorator@@@@8
rdata$r	SEGMENT
??_R3?$CDynamicPoolEx@VCTextureAnimationCWDecorator@NEffectUpdateDecorator@@@@8 DD 00H ; CDynamicPoolEx<NEffectUpdateDecorator::CTextureAnimationCWDecorator>::`RTTI Class Hierarchy Descriptor'
	DD	00H
	DD	01H
	DD	FLAT:??_R2?$CDynamicPoolEx@VCTextureAnimationCWDecorator@NEffectUpdateDecorator@@@@8
rdata$r	ENDS
;	COMDAT ??_R0?AV?$CDynamicPoolEx@VCTextureAnimationCWDecorator@NEffectUpdateDecorator@@@@@8
data$rs	SEGMENT
??_R0?AV?$CDynamicPoolEx@VCTextureAnimationCWDecorator@NEffectUpdateDecorator@@@@@8 DD FLAT:??_7type_info@@6B@ ; CDynamicPoolEx<NEffectUpdateDecorator::CTextureAnimationCWDecorator> `RTTI Type Descriptor'
	DD	00H
	DB	'.?AV?$CDynamicPoolEx@VCTextureAnimationCWDecorator@NEffe'
	DB	'ctUpdateDecorator@@@@', 00H
data$rs	ENDS
;	COMDAT ??_R4?$CDynamicPoolEx@VCTextureAnimationCWDecorator@NEffectUpdateDecorator@@@@6B@
rdata$r	SEGMENT
??_R4?$CDynamicPoolEx@VCTextureAnimationCWDecorator@NEffectUpdateDecorator@@@@6B@ DD 00H ; CDynamicPoolEx<NEffectUpdateDecorator::CTextureAnimationCWDecorator>::`RTTI Complete Object Locator'
	DD	00H
	DD	00H
	DD	FLAT:??_R0?AV?$CDynamicPoolEx@VCTextureAnimationCWDecorator@NEffectUpdateDecorator@@@@@8
	DD	FLAT:??_R3?$CDynamicPoolEx@VCTextureAnimationCWDecorator@NEffectUpdateDecorator@@@@8
rdata$r	ENDS
;	COMDAT ??_R1A@?0A@EA@?$CDynamicPoolEx@VCNullDecorator@NEffectUpdateDecorator@@@@8
rdata$r	SEGMENT
??_R1A@?0A@EA@?$CDynamicPoolEx@VCNullDecorator@NEffectUpdateDecorator@@@@8 DD FLAT:??_R0?AV?$CDynamicPoolEx@VCNullDecorator@NEffectUpdateDecorator@@@@@8 ; CDynamicPoolEx<NEffectUpdateDecorator::CNullDecorator>::`RTTI Base Class Descriptor at (0,-1,0,64)'
	DD	00H
	DD	00H
	DD	0ffffffffH
	DD	00H
	DD	040H
	DD	FLAT:??_R3?$CDynamicPoolEx@VCNullDecorator@NEffectUpdateDecorator@@@@8
rdata$r	ENDS
;	COMDAT ??_R2?$CDynamicPoolEx@VCNullDecorator@NEffectUpdateDecorator@@@@8
rdata$r	SEGMENT
??_R2?$CDynamicPoolEx@VCNullDecorator@NEffectUpdateDecorator@@@@8 DD FLAT:??_R1A@?0A@EA@?$CDynamicPoolEx@VCNullDecorator@NEffectUpdateDecorator@@@@8 ; CDynamicPoolEx<NEffectUpdateDecorator::CNullDecorator>::`RTTI Base Class Array'
rdata$r	ENDS
;	COMDAT ??_R3?$CDynamicPoolEx@VCNullDecorator@NEffectUpdateDecorator@@@@8
rdata$r	SEGMENT
??_R3?$CDynamicPoolEx@VCNullDecorator@NEffectUpdateDecorator@@@@8 DD 00H ; CDynamicPoolEx<NEffectUpdateDecorator::CNullDecorator>::`RTTI Class Hierarchy Descriptor'
	DD	00H
	DD	01H
	DD	FLAT:??_R2?$CDynamicPoolEx@VCNullDecorator@NEffectUpdateDecorator@@@@8
rdata$r	ENDS
;	COMDAT ??_R0?AV?$CDynamicPoolEx@VCNullDecorator@NEffectUpdateDecorator@@@@@8
data$rs	SEGMENT
??_R0?AV?$CDynamicPoolEx@VCNullDecorator@NEffectUpdateDecorator@@@@@8 DD FLAT:??_7type_info@@6B@ ; CDynamicPoolEx<NEffectUpdateDecorator::CNullDecorator> `RTTI Type Descriptor'
	DD	00H
	DB	'.?AV?$CDynamicPoolEx@VCNullDecorator@NEffectUpdateDecora'
	DB	'tor@@@@', 00H
data$rs	ENDS
;	COMDAT ??_R4?$CDynamicPoolEx@VCNullDecorator@NEffectUpdateDecorator@@@@6B@
rdata$r	SEGMENT
??_R4?$CDynamicPoolEx@VCNullDecorator@NEffectUpdateDecorator@@@@6B@ DD 00H ; CDynamicPoolEx<NEffectUpdateDecorator::CNullDecorator>::`RTTI Complete Object Locator'
	DD	00H
	DD	00H
	DD	FLAT:??_R0?AV?$CDynamicPoolEx@VCNullDecorator@NEffectUpdateDecorator@@@@@8
	DD	FLAT:??_R3?$CDynamicPoolEx@VCNullDecorator@NEffectUpdateDecorator@@@@8
rdata$r	ENDS
;	COMDAT ??_7?$CDynamicPoolEx@VCNullDecorator@NEffectUpdateDecorator@@@@6B@
CONST	SEGMENT
??_7?$CDynamicPoolEx@VCNullDecorator@NEffectUpdateDecorator@@@@6B@ DD FLAT:??_R4?$CDynamicPoolEx@VCNullDecorator@NEffectUpdateDecorator@@@@6B@ ; CDynamicPoolEx<NEffectUpdateDecorator::CNullDecorator>::`vftable'
	DD	FLAT:??_E?$CDynamicPoolEx@VCNullDecorator@NEffectUpdateDecorator@@@@UAEPAXI@Z
CONST	ENDS
;	COMDAT ??_R1A@?0A@EA@?$CDynamicPoolEx@VCHeaderDecorator@NEffectUpdateDecorator@@@@8
rdata$r	SEGMENT
??_R1A@?0A@EA@?$CDynamicPoolEx@VCHeaderDecorator@NEffectUpdateDecorator@@@@8 DD FLAT:??_R0?AV?$CDynamicPoolEx@VCHeaderDecorator@NEffectUpdateDecorator@@@@@8 ; CDynamicPoolEx<NEffectUpdateDecorator::CHeaderDecorator>::`RTTI Base Class Descriptor at (0,-1,0,64)'
	DD	00H
	DD	00H
	DD	0ffffffffH
	DD	00H
	DD	040H
	DD	FLAT:??_R3?$CDynamicPoolEx@VCHeaderDecorator@NEffectUpdateDecorator@@@@8
rdata$r	ENDS
;	COMDAT ??_R2?$CDynamicPoolEx@VCHeaderDecorator@NEffectUpdateDecorator@@@@8
rdata$r	SEGMENT
??_R2?$CDynamicPoolEx@VCHeaderDecorator@NEffectUpdateDecorator@@@@8 DD FLAT:??_R1A@?0A@EA@?$CDynamicPoolEx@VCHeaderDecorator@NEffectUpdateDecorator@@@@8 ; CDynamicPoolEx<NEffectUpdateDecorator::CHeaderDecorator>::`RTTI Base Class Array'
rdata$r	ENDS
;	COMDAT ??_R3?$CDynamicPoolEx@VCHeaderDecorator@NEffectUpdateDecorator@@@@8
rdata$r	SEGMENT
??_R3?$CDynamicPoolEx@VCHeaderDecorator@NEffectUpdateDecorator@@@@8 DD 00H ; CDynamicPoolEx<NEffectUpdateDecorator::CHeaderDecorator>::`RTTI Class Hierarchy Descriptor'
	DD	00H
	DD	01H
	DD	FLAT:??_R2?$CDynamicPoolEx@VCHeaderDecorator@NEffectUpdateDecorator@@@@8
rdata$r	ENDS
;	COMDAT ??_R0?AV?$CDynamicPoolEx@VCHeaderDecorator@NEffectUpdateDecorator@@@@@8
data$rs	SEGMENT
??_R0?AV?$CDynamicPoolEx@VCHeaderDecorator@NEffectUpdateDecorator@@@@@8 DD FLAT:??_7type_info@@6B@ ; CDynamicPoolEx<NEffectUpdateDecorator::CHeaderDecorator> `RTTI Type Descriptor'
	DD	00H
	DB	'.?AV?$CDynamicPoolEx@VCHeaderDecorator@NEffectUpdateDeco'
	DB	'rator@@@@', 00H
data$rs	ENDS
;	COMDAT ??_R4?$CDynamicPoolEx@VCHeaderDecorator@NEffectUpdateDecorator@@@@6B@
rdata$r	SEGMENT
??_R4?$CDynamicPoolEx@VCHeaderDecorator@NEffectUpdateDecorator@@@@6B@ DD 00H ; CDynamicPoolEx<NEffectUpdateDecorator::CHeaderDecorator>::`RTTI Complete Object Locator'
	DD	00H
	DD	00H
	DD	FLAT:??_R0?AV?$CDynamicPoolEx@VCHeaderDecorator@NEffectUpdateDecorator@@@@@8
	DD	FLAT:??_R3?$CDynamicPoolEx@VCHeaderDecorator@NEffectUpdateDecorator@@@@8
rdata$r	ENDS
;	COMDAT ??_7?$CDynamicPoolEx@VCTextureAnimationCWDecorator@NEffectUpdateDecorator@@@@6B@
CONST	SEGMENT
??_7?$CDynamicPoolEx@VCTextureAnimationCWDecorator@NEffectUpdateDecorator@@@@6B@ DD FLAT:??_R4?$CDynamicPoolEx@VCTextureAnimationCWDecorator@NEffectUpdateDecorator@@@@6B@ ; CDynamicPoolEx<NEffectUpdateDecorator::CTextureAnimationCWDecorator>::`vftable'
	DD	FLAT:??_E?$CDynamicPoolEx@VCTextureAnimationCWDecorator@NEffectUpdateDecorator@@@@UAEPAXI@Z
CONST	ENDS
;	COMDAT ??_7?$CDynamicPoolEx@VCTextureAnimationCCWDecorator@NEffectUpdateDecorator@@@@6B@
CONST	SEGMENT
??_7?$CDynamicPoolEx@VCTextureAnimationCCWDecorator@NEffectUpdateDecorator@@@@6B@ DD FLAT:??_R4?$CDynamicPoolEx@VCTextureAnimationCCWDecorator@NEffectUpdateDecorator@@@@6B@ ; CDynamicPoolEx<NEffectUpdateDecorator::CTextureAnimationCCWDecorator>::`vftable'
	DD	FLAT:??_E?$CDynamicPoolEx@VCTextureAnimationCCWDecorator@NEffectUpdateDecorator@@@@UAEPAXI@Z
CONST	ENDS
;	COMDAT ??_7?$CDynamicPoolEx@VCTextureAnimationRandomDecorator@NEffectUpdateDecorator@@@@6B@
CONST	SEGMENT
??_7?$CDynamicPoolEx@VCTextureAnimationRandomDecorator@NEffectUpdateDecorator@@@@6B@ DD FLAT:??_R4?$CDynamicPoolEx@VCTextureAnimationRandomDecorator@NEffectUpdateDecorator@@@@6B@ ; CDynamicPoolEx<NEffectUpdateDecorator::CTextureAnimationRandomDecorator>::`vftable'
	DD	FLAT:??_E?$CDynamicPoolEx@VCTextureAnimationRandomDecorator@NEffectUpdateDecorator@@@@UAEPAXI@Z
CONST	ENDS
;	COMDAT ??_7?$CDynamicPoolEx@VCAirResistanceDecorator@NEffectUpdateDecorator@@@@6B@
CONST	SEGMENT
??_7?$CDynamicPoolEx@VCAirResistanceDecorator@NEffectUpdateDecorator@@@@6B@ DD FLAT:??_R4?$CDynamicPoolEx@VCAirResistanceDecorator@NEffectUpdateDecorator@@@@6B@ ; CDynamicPoolEx<NEffectUpdateDecorator::CAirResistanceDecorator>::`vftable'
	DD	FLAT:??_E?$CDynamicPoolEx@VCAirResistanceDecorator@NEffectUpdateDecorator@@@@UAEPAXI@Z
CONST	ENDS
;	COMDAT ??_7?$CDynamicPoolEx@VCGravityDecorator@NEffectUpdateDecorator@@@@6B@
CONST	SEGMENT
??_7?$CDynamicPoolEx@VCGravityDecorator@NEffectUpdateDecorator@@@@6B@ DD FLAT:??_R4?$CDynamicPoolEx@VCGravityDecorator@NEffectUpdateDecorator@@@@6B@ ; CDynamicPoolEx<NEffectUpdateDecorator::CGravityDecorator>::`vftable'
	DD	FLAT:??_E?$CDynamicPoolEx@VCGravityDecorator@NEffectUpdateDecorator@@@@UAEPAXI@Z
CONST	ENDS
;	COMDAT ??_7?$CDynamicPoolEx@VCRotationDecorator@NEffectUpdateDecorator@@@@6B@
CONST	SEGMENT
??_7?$CDynamicPoolEx@VCRotationDecorator@NEffectUpdateDecorator@@@@6B@ DD FLAT:??_R4?$CDynamicPoolEx@VCRotationDecorator@NEffectUpdateDecorator@@@@6B@ ; CDynamicPoolEx<NEffectUpdateDecorator::CRotationDecorator>::`vftable'
	DD	FLAT:??_E?$CDynamicPoolEx@VCRotationDecorator@NEffectUpdateDecorator@@@@UAEPAXI@Z
CONST	ENDS
PUBLIC	??_H@YGXPAXIIP6EPAX0@Z@Z			; `vector constructor iterator'
PUBLIC	?__empty_global_delete@@YAXPAX@Z		; __empty_global_delete
PUBLIC	?__empty_global_delete@@YAXPAXI@Z		; __empty_global_delete
PUBLIC	??0exception@std@@QAE@ABV01@@Z			; std::exception::exception
PUBLIC	??1exception@std@@UAE@XZ			; std::exception::~exception
PUBLIC	?what@exception@std@@UBEPBDXZ			; std::exception::what
PUBLIC	??_Gexception@std@@UAEPAXI@Z			; std::exception::`scalar deleting destructor'
PUBLIC	??0bad_alloc@std@@QAE@ABV01@@Z			; std::bad_alloc::bad_alloc
PUBLIC	??_Gbad_alloc@std@@UAEPAXI@Z			; std::bad_alloc::`scalar deleting destructor'
PUBLIC	??0bad_array_new_length@std@@QAE@XZ		; std::bad_array_new_length::bad_array_new_length
PUBLIC	??1bad_array_new_length@std@@UAE@XZ		; std::bad_array_new_length::~bad_array_new_length
PUBLIC	??0bad_array_new_length@std@@QAE@ABV01@@Z	; std::bad_array_new_length::bad_array_new_length
PUBLIC	??_Gbad_array_new_length@std@@UAEPAXI@Z		; std::bad_array_new_length::`scalar deleting destructor'
PUBLIC	?_Throw_bad_array_new_length@std@@YAXXZ		; std::_Throw_bad_array_new_length
PUBLIC	?initchr@@YAXXZ					; initchr
PUBLIC	??$_Destroy_in_place@PAD@std@@YAXAAPAD@Z	; std::_Destroy_in_place<char *>
PUBLIC	??$_Construct_in_place@PADABQAD@std@@YAXAAPADABQAD@Z ; std::_Construct_in_place<char *,char * const &>
PUBLIC	??$_Deallocate@$07$0A@@std@@YAXPAXI@Z		; std::_Deallocate<8,0>
PUBLIC	??$_Allocate@$07U_Default_allocate_traits@std@@$0A@@std@@YAPAXI@Z ; std::_Allocate<8,std::_Default_allocate_traits,0>
PUBLIC	??$_Allocate_manually_vector_aligned@U_Default_allocate_traits@std@@@std@@YAPAXI@Z ; std::_Allocate_manually_vector_aligned<std::_Default_allocate_traits>
PUBLIC	??1SCreateData@CInstanceBase@@QAE@XZ		; CInstanceBase::SCreateData::~SCreateData
PUBLIC	?chrRaceToJob@@YAPAU_object@@PAU1@0@Z		; chrRaceToJob
PUBLIC	?chrRaceToSex@@YAPAU_object@@PAU1@0@Z		; chrRaceToSex
PUBLIC	?chrDestroy@@YAPAU_object@@PAU1@0@Z		; chrDestroy
PUBLIC	?chrUpdate@@YAPAU_object@@PAU1@0@Z		; chrUpdate
PUBLIC	?chrDeform@@YAPAU_object@@PAU1@0@Z		; chrDeform
PUBLIC	?chrRender@@YAPAU_object@@PAU1@0@Z		; chrRender
PUBLIC	?chrRenderCollision@@YAPAU_object@@PAU1@0@Z	; chrRenderCollision
PUBLIC	?chrCreateInstance@@YAPAU_object@@PAU1@0@Z	; chrCreateInstance
PUBLIC	?chrDeleteInstance@@YAPAU_object@@PAU1@0@Z	; chrDeleteInstance
PUBLIC	?chrDeleteInstanceByFade@@YAPAU_object@@PAU1@0@Z ; chrDeleteInstanceByFade
PUBLIC	?chrSelectInstance@@YAPAU_object@@PAU1@0@Z	; chrSelectInstance
PUBLIC	?chrHasInstance@@YAPAU_object@@PAU1@0@Z		; chrHasInstance
PUBLIC	?chrIsEnemy@@YAPAU_object@@PAU1@0@Z		; chrIsEnemy
PUBLIC	?chrIsNPC@@YAPAU_object@@PAU1@0@Z		; chrIsNPC
PUBLIC	?chrIsGameMaster@@YAPAU_object@@PAU1@0@Z	; chrIsGameMaster
PUBLIC	?chrIsPartyMember@@YAPAU_object@@PAU1@0@Z	; chrIsPartyMember
PUBLIC	?chrSelect@@YAPAU_object@@PAU1@0@Z		; chrSelect
PUBLIC	?chrSetAddRenderMode@@YAPAU_object@@PAU1@0@Z	; chrSetAddRenderMode
PUBLIC	?chrSetBlendRenderMode@@YAPAU_object@@PAU1@0@Z	; chrSetBlendRenderMode
PUBLIC	?chrUnselect@@YAPAU_object@@PAU1@0@Z		; chrUnselect
PUBLIC	?chrPick@@YAPAU_object@@PAU1@0@Z		; chrPick
PUBLIC	?chrHide@@YAPAU_object@@PAU1@0@Z		; chrHide
PUBLIC	?chrShow@@YAPAU_object@@PAU1@0@Z		; chrShow
PUBLIC	?chrPickAll@@YAPAU_object@@PAU1@0@Z		; chrPickAll
PUBLIC	?chrSetRace@@YAPAU_object@@PAU1@0@Z		; chrSetRace
PUBLIC	?chrSetHair@@YAPAU_object@@PAU1@0@Z		; chrSetHair
PUBLIC	?chrChangeHair@@YAPAU_object@@PAU1@0@Z		; chrChangeHair
PUBLIC	?chrSetArmor@@YAPAU_object@@PAU1@0@Z		; chrSetArmor
PUBLIC	?chrChangeShape@@YAPAU_object@@PAU1@0@Z		; chrChangeShape
PUBLIC	?chrSetWeapon@@YAPAU_object@@PAU1@0@Z		; chrSetWeapon
PUBLIC	?chrSetVirtualID@@YAPAU_object@@PAU1@0@Z	; chrSetVirtualID
PUBLIC	?chrSetNameString@@YAPAU_object@@PAU1@0@Z	; chrSetNameString
PUBLIC	?chrSetInstanceType@@YAPAU_object@@PAU1@0@Z	; chrSetInstanceType
PUBLIC	?chrAttachEffectByName@@YAPAU_object@@PAU1@0@Z	; chrAttachEffectByName
PUBLIC	?chrAttachEffectByID@@YAPAU_object@@PAU1@0@Z	; chrAttachEffectByID
PUBLIC	?chrRefresh@@YAPAU_object@@PAU1@0@Z		; chrRefresh
PUBLIC	?chrMountHorse@@YAPAU_object@@PAU1@0@Z		; chrMountHorse
PUBLIC	?chrDismountHorse@@YAPAU_object@@PAU1@0@Z	; chrDismountHorse
PUBLIC	?chrRevive@@YAPAU_object@@PAU1@0@Z		; chrRevive
PUBLIC	?chrDie@@YAPAU_object@@PAU1@0@Z			; chrDie
PUBLIC	?chrLookAt@@YAPAU_object@@PAU1@0@Z		; chrLookAt
PUBLIC	?chrSetMotionMode@@YAPAU_object@@PAU1@0@Z	; chrSetMotionMode
PUBLIC	?chrSetLoopMotion@@YAPAU_object@@PAU1@0@Z	; chrSetLoopMotion
PUBLIC	?chrBlendLoopMotion@@YAPAU_object@@PAU1@0@Z	; chrBlendLoopMotion
PUBLIC	?chrPushOnceMotion@@YAPAU_object@@PAU1@0@Z	; chrPushOnceMotion
PUBLIC	?chrPushLoopMotion@@YAPAU_object@@PAU1@0@Z	; chrPushLoopMotion
PUBLIC	?chrSetPixelPosition@@YAPAU_object@@PAU1@0@Z	; chrSetPixelPosition
PUBLIC	?chrSetDirection@@YAPAU_object@@PAU1@0@Z	; chrSetDirection
PUBLIC	?chrGetPixelPosition@@YAPAU_object@@PAU1@0@Z	; chrGetPixelPosition
PUBLIC	?chrSetRotation@@YAPAU_object@@PAU1@0@Z		; chrSetRotation
PUBLIC	?chrSetRotationAll@@YAPAU_object@@PAU1@0@Z	; chrSetRotationAll
PUBLIC	?chrBlendRotation@@YAPAU_object@@PAU1@0@Z	; chrBlendRotation
PUBLIC	?chrGetRotation@@YAPAU_object@@PAU1@0@Z		; chrGetRotation
PUBLIC	?chrGetRace@@YAPAU_object@@PAU1@0@Z		; chrGetRace
PUBLIC	?chrGetName@@YAPAU_object@@PAU1@0@Z		; chrGetName
PUBLIC	?chrGetNameByVID@@YAPAU_object@@PAU1@0@Z	; chrGetNameByVID
PUBLIC	?chrGetGuildID@@YAPAU_object@@PAU1@0@Z		; chrGetGuildID
PUBLIC	?chrGetProjectPosition@@YAPAU_object@@PAU1@0@Z	; chrGetProjectPosition
PUBLIC	?chrGetVirtualNumber@@YAPAU_object@@PAU1@0@Z	; chrGetVirtualNumber
PUBLIC	?chrGetInstanceType@@YAPAU_object@@PAU1@0@Z	; chrGetInstanceType
PUBLIC	?chrGetBoundBoxOnlyXY@@YAPAU_object@@PAU1@0@Z	; chrGetBoundBoxOnlyXY
PUBLIC	?chrtestGetPKData@@YAPAU_object@@PAU1@0@Z	; chrtestGetPKData
PUBLIC	?chrtestSetComboType@@YAPAU_object@@PAU1@0@Z	; chrtestSetComboType
PUBLIC	?chrtestSetAddRenderMode@@YAPAU_object@@PAU1@0@Z ; chrtestSetAddRenderMode
PUBLIC	?chrtestSetModulateRenderMode@@YAPAU_object@@PAU1@0@Z ; chrtestSetModulateRenderMode
PUBLIC	?chrtestSetAddRenderModeRGB@@YAPAU_object@@PAU1@0@Z ; chrtestSetAddRenderModeRGB
PUBLIC	?chrtestSetModulateRenderModeRGB@@YAPAU_object@@PAU1@0@Z ; chrtestSetModulateRenderModeRGB
PUBLIC	?chrtestSetSpecularRenderMode@@YAPAU_object@@PAU1@0@Z ; chrtestSetSpecularRenderMode
PUBLIC	?chrtestSetSpecularRenderMode2@@YAPAU_object@@PAU1@0@Z ; chrtestSetSpecularRenderMode2
PUBLIC	?chrtestRestoreRenderMode@@YAPAU_object@@PAU1@0@Z ; chrtestRestoreRenderMode
PUBLIC	?chrFaintTest@@YAPAU_object@@PAU1@0@Z		; chrFaintTest
PUBLIC	?chrSetMoveSpeed@@YAPAU_object@@PAU1@0@Z	; chrSetMoveSpeed
PUBLIC	?chrSetAttackSpeed@@YAPAU_object@@PAU1@0@Z	; chrSetAttackSpeed
PUBLIC	?chrWeaponTraceSetTexture@@YAPAU_object@@PAU1@0@Z ; chrWeaponTraceSetTexture
PUBLIC	?chrWeaponTraceUseTexture@@YAPAU_object@@PAU1@0@Z ; chrWeaponTraceUseTexture
PUBLIC	?chrWeaponTraceUseAlpha@@YAPAU_object@@PAU1@0@Z	; chrWeaponTraceUseAlpha
PUBLIC	?chrMoveToDestPosition@@YAPAU_object@@PAU1@0@Z	; chrMoveToDestPosition
PUBLIC	?chrtestSetRideMan@@YAPAU_object@@PAU1@0@Z	; chrtestSetRideMan
PUBLIC	??1?$CDynamicPoolEx@VCRotationDecorator@NEffectUpdateDecorator@@@@UAE@XZ ; CDynamicPoolEx<NEffectUpdateDecorator::CRotationDecorator>::~CDynamicPoolEx<NEffectUpdateDecorator::CRotationDecorator>
PUBLIC	?Delete@?$CDynamicPoolEx@VCRotationDecorator@NEffectUpdateDecorator@@@@KAXPAVCRotationDecorator@NEffectUpdateDecorator@@@Z ; CDynamicPoolEx<NEffectUpdateDecorator::CRotationDecorator>::Delete
PUBLIC	??1?$CDynamicPoolEx@VCGravityDecorator@NEffectUpdateDecorator@@@@UAE@XZ ; CDynamicPoolEx<NEffectUpdateDecorator::CGravityDecorator>::~CDynamicPoolEx<NEffectUpdateDecorator::CGravityDecorator>
PUBLIC	?Delete@?$CDynamicPoolEx@VCGravityDecorator@NEffectUpdateDecorator@@@@KAXPAVCGravityDecorator@NEffectUpdateDecorator@@@Z ; CDynamicPoolEx<NEffectUpdateDecorator::CGravityDecorator>::Delete
PUBLIC	??1?$CDynamicPoolEx@VCAirResistanceDecorator@NEffectUpdateDecorator@@@@UAE@XZ ; CDynamicPoolEx<NEffectUpdateDecorator::CAirResistanceDecorator>::~CDynamicPoolEx<NEffectUpdateDecorator::CAirResistanceDecorator>
PUBLIC	?Delete@?$CDynamicPoolEx@VCAirResistanceDecorator@NEffectUpdateDecorator@@@@KAXPAVCAirResistanceDecorator@NEffectUpdateDecorator@@@Z ; CDynamicPoolEx<NEffectUpdateDecorator::CAirResistanceDecorator>::Delete
PUBLIC	??1?$CDynamicPoolEx@VCTextureAnimationRandomDecorator@NEffectUpdateDecorator@@@@UAE@XZ ; CDynamicPoolEx<NEffectUpdateDecorator::CTextureAnimationRandomDecorator>::~CDynamicPoolEx<NEffectUpdateDecorator::CTextureAnimationRandomDecorator>
PUBLIC	?Delete@?$CDynamicPoolEx@VCTextureAnimationRandomDecorator@NEffectUpdateDecorator@@@@KAXPAVCTextureAnimationRandomDecorator@NEffectUpdateDecorator@@@Z ; CDynamicPoolEx<NEffectUpdateDecorator::CTextureAnimationRandomDecorator>::Delete
PUBLIC	??1?$CDynamicPoolEx@VCTextureAnimationCCWDecorator@NEffectUpdateDecorator@@@@UAE@XZ ; CDynamicPoolEx<NEffectUpdateDecorator::CTextureAnimationCCWDecorator>::~CDynamicPoolEx<NEffectUpdateDecorator::CTextureAnimationCCWDecorator>
PUBLIC	?Delete@?$CDynamicPoolEx@VCTextureAnimationCCWDecorator@NEffectUpdateDecorator@@@@KAXPAVCTextureAnimationCCWDecorator@NEffectUpdateDecorator@@@Z ; CDynamicPoolEx<NEffectUpdateDecorator::CTextureAnimationCCWDecorator>::Delete
PUBLIC	??1?$CDynamicPoolEx@VCTextureAnimationCWDecorator@NEffectUpdateDecorator@@@@UAE@XZ ; CDynamicPoolEx<NEffectUpdateDecorator::CTextureAnimationCWDecorator>::~CDynamicPoolEx<NEffectUpdateDecorator::CTextureAnimationCWDecorator>
PUBLIC	?Delete@?$CDynamicPoolEx@VCTextureAnimationCWDecorator@NEffectUpdateDecorator@@@@KAXPAVCTextureAnimationCWDecorator@NEffectUpdateDecorator@@@Z ; CDynamicPoolEx<NEffectUpdateDecorator::CTextureAnimationCWDecorator>::Delete
PUBLIC	??1?$CDynamicPoolEx@VCNullDecorator@NEffectUpdateDecorator@@@@UAE@XZ ; CDynamicPoolEx<NEffectUpdateDecorator::CNullDecorator>::~CDynamicPoolEx<NEffectUpdateDecorator::CNullDecorator>
PUBLIC	?Delete@?$CDynamicPoolEx@VCNullDecorator@NEffectUpdateDecorator@@@@KAXPAVCNullDecorator@NEffectUpdateDecorator@@@Z ; CDynamicPoolEx<NEffectUpdateDecorator::CNullDecorator>::Delete
PUBLIC	??1?$CDynamicPoolEx@VCHeaderDecorator@NEffectUpdateDecorator@@@@UAE@XZ ; CDynamicPoolEx<NEffectUpdateDecorator::CHeaderDecorator>::~CDynamicPoolEx<NEffectUpdateDecorator::CHeaderDecorator>
PUBLIC	?Delete@?$CDynamicPoolEx@VCHeaderDecorator@NEffectUpdateDecorator@@@@KAXPAVCHeaderDecorator@NEffectUpdateDecorator@@@Z ; CDynamicPoolEx<NEffectUpdateDecorator::CHeaderDecorator>::Delete
PUBLIC	??$_Destroy_range@V?$allocator@PAVCHeaderDecorator@NEffectUpdateDecorator@@@std@@@std@@YAXPAPAVCHeaderDecorator@NEffectUpdateDecorator@@QAPAV12@AAV?$allocator@PAVCHeaderDecorator@NEffectUpdateDecorator@@@0@@Z ; std::_Destroy_range<std::allocator<NEffectUpdateDecorator::CHeaderDecorator *> >
PUBLIC	??$_Destroy_range@V?$allocator@PAVCNullDecorator@NEffectUpdateDecorator@@@std@@@std@@YAXPAPAVCNullDecorator@NEffectUpdateDecorator@@QAPAV12@AAV?$allocator@PAVCNullDecorator@NEffectUpdateDecorator@@@0@@Z ; std::_Destroy_range<std::allocator<NEffectUpdateDecorator::CNullDecorator *> >
PUBLIC	??$_Destroy_range@V?$allocator@PAVCTextureAnimationCWDecorator@NEffectUpdateDecorator@@@std@@@std@@YAXPAPAVCTextureAnimationCWDecorator@NEffectUpdateDecorator@@QAPAV12@AAV?$allocator@PAVCTextureAnimationCWDecorator@NEffectUpdateDecorator@@@0@@Z ; std::_Destroy_range<std::allocator<NEffectUpdateDecorator::CTextureAnimationCWDecorator *> >
PUBLIC	??$_Destroy_range@V?$allocator@PAVCTextureAnimationCCWDecorator@NEffectUpdateDecorator@@@std@@@std@@YAXPAPAVCTextureAnimationCCWDecorator@NEffectUpdateDecorator@@QAPAV12@AAV?$allocator@PAVCTextureAnimationCCWDecorator@NEffectUpdateDecorator@@@0@@Z ; std::_Destroy_range<std::allocator<NEffectUpdateDecorator::CTextureAnimationCCWDecorator *> >
PUBLIC	??$_Destroy_range@V?$allocator@PAVCTextureAnimationRandomDecorator@NEffectUpdateDecorator@@@std@@@std@@YAXPAPAVCTextureAnimationRandomDecorator@NEffectUpdateDecorator@@QAPAV12@AAV?$allocator@PAVCTextureAnimationRandomDecorator@NEffectUpdateDecorator@@@0@@Z ; std::_Destroy_range<std::allocator<NEffectUpdateDecorator::CTextureAnimationRandomDecorator *> >
PUBLIC	??$_Destroy_range@V?$allocator@PAVCAirResistanceDecorator@NEffectUpdateDecorator@@@std@@@std@@YAXPAPAVCAirResistanceDecorator@NEffectUpdateDecorator@@QAPAV12@AAV?$allocator@PAVCAirResistanceDecorator@NEffectUpdateDecorator@@@0@@Z ; std::_Destroy_range<std::allocator<NEffectUpdateDecorator::CAirResistanceDecorator *> >
PUBLIC	??$_Destroy_range@V?$allocator@PAVCGravityDecorator@NEffectUpdateDecorator@@@std@@@std@@YAXPAPAVCGravityDecorator@NEffectUpdateDecorator@@QAPAV12@AAV?$allocator@PAVCGravityDecorator@NEffectUpdateDecorator@@@0@@Z ; std::_Destroy_range<std::allocator<NEffectUpdateDecorator::CGravityDecorator *> >
PUBLIC	??$_Destroy_range@V?$allocator@PAVCRotationDecorator@NEffectUpdateDecorator@@@std@@@std@@YAXPAPAVCRotationDecorator@NEffectUpdateDecorator@@QAPAV12@AAV?$allocator@PAVCRotationDecorator@NEffectUpdateDecorator@@@0@@Z ; std::_Destroy_range<std::allocator<NEffectUpdateDecorator::CRotationDecorator *> >
PUBLIC	??_7exception@std@@6B@				; std::exception::`vftable'
PUBLIC	??_C@_0BC@EOODALEL@Unknown?5exception@		; `string'
PUBLIC	??_7bad_alloc@std@@6B@				; std::bad_alloc::`vftable'
PUBLIC	??_7bad_array_new_length@std@@6B@		; std::bad_array_new_length::`vftable'
PUBLIC	??_C@_0BF@KINCDENJ@bad?5array?5new?5length@	; `string'
PUBLIC	__TI3?AVbad_array_new_length@std@@
PUBLIC	__CTA3?AVbad_array_new_length@std@@
PUBLIC	??_R0?AVbad_array_new_length@std@@@8		; std::bad_array_new_length `RTTI Type Descriptor'
PUBLIC	__CT??_R0?AVbad_array_new_length@std@@@8??0bad_array_new_length@std@@QAE@ABV01@@Z12
PUBLIC	??_R0?AVbad_alloc@std@@@8			; std::bad_alloc `RTTI Type Descriptor'
PUBLIC	__CT??_R0?AVbad_alloc@std@@@8??0bad_alloc@std@@QAE@ABV01@@Z12
PUBLIC	??_R0?AVexception@std@@@8			; std::exception `RTTI Type Descriptor'
PUBLIC	__CT??_R0?AVexception@std@@@8??0exception@std@@QAE@ABV01@@Z12
PUBLIC	??_C@_0BA@JFNIOLAK@string?5too?5long@		; `string'
PUBLIC	?ms_singleton@?$CSingleton@VCPythonGraphic@@@@0PAVCPythonGraphic@@A ; CSingleton<CPythonGraphic>::ms_singleton
PUBLIC	??_R4exception@std@@6B@				; std::exception::`RTTI Complete Object Locator'
PUBLIC	??_R3exception@std@@8				; std::exception::`RTTI Class Hierarchy Descriptor'
PUBLIC	??_R2exception@std@@8				; std::exception::`RTTI Base Class Array'
PUBLIC	??_R1A@?0A@EA@exception@std@@8			; std::exception::`RTTI Base Class Descriptor at (0,-1,0,64)'
PUBLIC	??_R4bad_alloc@std@@6B@				; std::bad_alloc::`RTTI Complete Object Locator'
PUBLIC	??_R3bad_alloc@std@@8				; std::bad_alloc::`RTTI Class Hierarchy Descriptor'
PUBLIC	??_R2bad_alloc@std@@8				; std::bad_alloc::`RTTI Base Class Array'
PUBLIC	??_R1A@?0A@EA@bad_alloc@std@@8			; std::bad_alloc::`RTTI Base Class Descriptor at (0,-1,0,64)'
PUBLIC	??_R4bad_array_new_length@std@@6B@		; std::bad_array_new_length::`RTTI Complete Object Locator'
PUBLIC	??_R3bad_array_new_length@std@@8		; std::bad_array_new_length::`RTTI Class Hierarchy Descriptor'
PUBLIC	??_R2bad_array_new_length@std@@8		; std::bad_array_new_length::`RTTI Base Class Array'
PUBLIC	??_R1A@?0A@EA@bad_array_new_length@std@@8	; std::bad_array_new_length::`RTTI Base Class Descriptor at (0,-1,0,64)'
PUBLIC	?ms_kPool@?$CPooledObject@VCHeaderDecorator@NEffectUpdateDecorator@@@@1V?$CDynamicPoolEx@VCHeaderDecorator@NEffectUpdateDecorator@@@@A ; CPooledObject<NEffectUpdateDecorator::CHeaderDecorator>::ms_kPool
PUBLIC	?ms_kPool@?$CPooledObject@VCNullDecorator@NEffectUpdateDecorator@@@@1V?$CDynamicPoolEx@VCNullDecorator@NEffectUpdateDecorator@@@@A ; CPooledObject<NEffectUpdateDecorator::CNullDecorator>::ms_kPool
PUBLIC	?ms_kPool@?$CPooledObject@VCTextureAnimationCWDecorator@NEffectUpdateDecorator@@@@1V?$CDynamicPoolEx@VCTextureAnimationCWDecorator@NEffectUpdateDecorator@@@@A ; CPooledObject<NEffectUpdateDecorator::CTextureAnimationCWDecorator>::ms_kPool
PUBLIC	?ms_kPool@?$CPooledObject@VCTextureAnimationCCWDecorator@NEffectUpdateDecorator@@@@1V?$CDynamicPoolEx@VCTextureAnimationCCWDecorator@NEffectUpdateDecorator@@@@A ; CPooledObject<NEffectUpdateDecorator::CTextureAnimationCCWDecorator>::ms_kPool
PUBLIC	?ms_kPool@?$CPooledObject@VCTextureAnimationRandomDecorator@NEffectUpdateDecorator@@@@1V?$CDynamicPoolEx@VCTextureAnimationRandomDecorator@NEffectUpdateDecorator@@@@A ; CPooledObject<NEffectUpdateDecorator::CTextureAnimationRandomDecorator>::ms_kPool
PUBLIC	?ms_kPool@?$CPooledObject@VCAirResistanceDecorator@NEffectUpdateDecorator@@@@1V?$CDynamicPoolEx@VCAirResistanceDecorator@NEffectUpdateDecorator@@@@A ; CPooledObject<NEffectUpdateDecorator::CAirResistanceDecorator>::ms_kPool
PUBLIC	?ms_kPool@?$CPooledObject@VCGravityDecorator@NEffectUpdateDecorator@@@@1V?$CDynamicPoolEx@VCGravityDecorator@NEffectUpdateDecorator@@@@A ; CPooledObject<NEffectUpdateDecorator::CGravityDecorator>::ms_kPool
PUBLIC	?ms_kPool@?$CPooledObject@VCRotationDecorator@NEffectUpdateDecorator@@@@1V?$CDynamicPoolEx@VCRotationDecorator@NEffectUpdateDecorator@@@@A ; CPooledObject<NEffectUpdateDecorator::CRotationDecorator>::ms_kPool
PUBLIC	?ms_singleton@?$CSingleton@VCPythonCharacterManager@@@@0PAVCPythonCharacterManager@@A ; CSingleton<CPythonCharacterManager>::ms_singleton
PUBLIC	?ms_singleton@?$CSingleton@VCPythonNonPlayer@@@@0PAVCPythonNonPlayer@@A ; CSingleton<CPythonNonPlayer>::ms_singleton
PUBLIC	??_C@_01KBJDNOO@i@				; `string'
PUBLIC	??_C@_06LJIOOKLP@NONAME@			; `string'
PUBLIC	??_C@_05DOPDBCAL@horse@				; `string'
PUBLIC	??_C@_01FJMABOPO@x@				; `string'
PUBLIC	??_C@_01EANLCPLP@y@				; `string'
PUBLIC	??_C@_03LPALPDIP@fff@				; `string'
PUBLIC	??_C@_01INIBCBCB@f@				; `string'
PUBLIC	??_C@_01LKDEMHDF@s@				; `string'
PUBLIC	??_C@_04OHJIHAFH@None@				; `string'
PUBLIC	??_C@_02PDIHAGKM@ii@				; `string'
PUBLIC	??_C@_04EOBPFJGD@ffff@				; `string'
PUBLIC	??_C@_0O@HFPHAOI@DismountHorse@			; `string'
PUBLIC	??_C@_0L@LJFIMMEM@MountHorse@			; `string'
PUBLIC	??_C@_07BDCAJABG@Destroy@			; `string'
PUBLIC	??_C@_06LMAGPFNF@Update@			; `string'
PUBLIC	??_C@_06HIPPCDGO@Deform@			; `string'
PUBLIC	??_C@_06EPLDPNDB@Render@			; `string'
PUBLIC	??_C@_0BA@OAOAOPAN@RenderCollision@		; `string'
PUBLIC	??_C@_0P@PGGGILHJ@CreateInstance@		; `string'
PUBLIC	??_C@_0P@OKILCDFI@DeleteInstance@		; `string'
PUBLIC	??_C@_0BF@EFFECMK@DeleteInstanceByFade@		; `string'
PUBLIC	??_C@_0P@HKEJIIJD@SelectInstance@		; `string'
PUBLIC	??_C@_0M@OJLCDJBP@HasInstance@			; `string'
PUBLIC	??_C@_07LKBCPMOI@IsEnemy@			; `string'
PUBLIC	??_C@_05BEDLICJP@IsNPC@				; `string'
PUBLIC	??_C@_0N@ICHIKNBJ@IsGameMaster@			; `string'
PUBLIC	??_C@_0O@FJCFNEGL@IsPartyMember@		; `string'
PUBLIC	??_C@_06HJGPBJLE@Select@			; `string'
PUBLIC	??_C@_0BB@FAHKALE@SetAddRenderMode@		; `string'
PUBLIC	??_C@_0BD@GJEGGPMO@SetBlendRenderMode@		; `string'
PUBLIC	??_C@_08DABDFNEI@Unselect@			; `string'
PUBLIC	??_C@_04EACEFPPN@Hide@				; `string'
PUBLIC	??_C@_04JLAJABDJ@Show@				; `string'
PUBLIC	??_C@_04ILHILILF@Pick@				; `string'
PUBLIC	??_C@_07BKHKMIHJ@PickAll@			; `string'
PUBLIC	??_C@_08CNNBONE@SetArmor@			; `string'
PUBLIC	??_C@_09LJGLIMMG@SetWeapon@			; `string'
PUBLIC	??_C@_0M@GMFNPFHE@ChangeShape@			; `string'
PUBLIC	??_C@_07JLBLBOHA@SetRace@			; `string'
PUBLIC	??_C@_07LJFPJABD@SetHair@			; `string'
PUBLIC	??_C@_0L@DAKFNGKA@ChangeHair@			; `string'
PUBLIC	??_C@_0N@GNEKMNPE@SetVirtualID@			; `string'
PUBLIC	??_C@_0O@OBMFICKC@SetNameString@		; `string'
PUBLIC	??_C@_0BA@OIHHKEBP@SetInstanceType@		; `string'
PUBLIC	??_C@_0BB@PNLNCHED@SetPixelPosition@		; `string'
PUBLIC	??_C@_0N@JGECPEGH@SetDirection@			; `string'
PUBLIC	??_C@_07POIENIBA@Refresh@			; `string'
PUBLIC	??_C@_06PGKKGABA@Revive@			; `string'
PUBLIC	??_C@_03JFEBIAME@Die@				; `string'
PUBLIC	??_C@_0BB@NOBBHECI@AttachEffectByID@		; `string'
PUBLIC	??_C@_0BD@HHHMIBBD@AttachEffectByName@		; `string'
PUBLIC	??_C@_06NFNEEJJI@LookAt@			; `string'
PUBLIC	??_C@_0O@MFBHEMHB@SetMotionMode@		; `string'
PUBLIC	??_C@_0O@LMHNCNAM@SetLoopMotion@		; `string'
PUBLIC	??_C@_0BA@JHKNHNFN@BlendLoopMotion@		; `string'
PUBLIC	??_C@_0P@LIJFJIGO@PushOnceMotion@		; `string'
PUBLIC	??_C@_0P@BMNKFJAK@PushLoopMotion@		; `string'
PUBLIC	??_C@_0BB@JJOEJJPB@GetPixelPosition@		; `string'
PUBLIC	??_C@_0M@GNIHGJGG@SetRotation@			; `string'
PUBLIC	??_C@_0P@CAJEFICF@SetRotationAll@		; `string'
PUBLIC	??_C@_0O@MOMBDHP@BlendRotation@			; `string'
PUBLIC	??_C@_0M@GCJJLPOF@GetRotation@			; `string'
PUBLIC	??_C@_07GDOKCBKB@GetRace@			; `string'
PUBLIC	??_C@_07MMGEHGCI@GetName@			; `string'
PUBLIC	??_C@_0N@CEBOCFNC@GetNameByVID@			; `string'
PUBLIC	??_C@_0L@EAKBLDCO@GetGuildID@			; `string'
PUBLIC	??_C@_0BD@EDCEKIDC@GetProjectPosition@		; `string'
PUBLIC	??_C@_0BB@GEKGPEHG@GetVirtualNumber@		; `string'
PUBLIC	??_C@_0BA@NKGBNGAG@GetInstanceType@		; `string'
PUBLIC	??_C@_0BC@NEGEPOJK@GetBoundBoxOnlyXY@		; `string'
PUBLIC	??_C@_09BPCAHBN@RaceToJob@			; `string'
PUBLIC	??_C@_09JBFJGAAF@RaceToSex@			; `string'
PUBLIC	??_C@_0O@NGEBABJL@testGetPKData@		; `string'
PUBLIC	??_C@_09JMNILCLH@FaintTest@			; `string'
PUBLIC	??_C@_0N@NBFDNLFE@SetMoveSpeed@			; `string'
PUBLIC	??_C@_0P@HDBEGKGG@SetAttackSpeed@		; `string'
PUBLIC	??_C@_0BG@IFMOLBHG@WeaponTraceSetTexture@	; `string'
PUBLIC	??_C@_0BE@EGNCJJPB@WeaponTraceUseAlpha@		; `string'
PUBLIC	??_C@_0BG@PMHANMKI@WeaponTraceUseTexture@	; `string'
PUBLIC	??_C@_0BD@DOJIBHBJ@MoveToDestPosition@		; `string'
PUBLIC	??_C@_0BB@DPBIMGC@testSetComboType@		; `string'
PUBLIC	??_C@_0BF@KKAOKOCP@testSetAddRenderMode@	; `string'
PUBLIC	??_C@_0BK@MMJPLJAB@testSetModulateRenderMode@	; `string'
PUBLIC	??_C@_0BI@DCLDMMPM@testSetAddRenderModeRGB@	; `string'
PUBLIC	??_C@_0BN@ICOLIADE@testSetModulateRenderModeRGB@ ; `string'
PUBLIC	??_C@_0BK@PFCOBJBF@testSetSpecularRenderMode@	; `string'
PUBLIC	??_C@_0BL@IAFIJOID@testSetSpecularRenderMode2@	; `string'
PUBLIC	??_C@_0BG@PPLDMJLI@testRestoreRenderMode@	; `string'
PUBLIC	??_C@_0P@OHFCMBLI@testSetRideMan@		; `string'
PUBLIC	??_C@_03KMOFPJOC@chr@				; `string'
PUBLIC	??_C@_0BE@BCBGONIE@PLAYER_NAME_MAX_LEN@		; `string'
PUBLIC	??_C@_0M@GHHHCAEH@MOTION_NONE@			; `string'
PUBLIC	??_C@_0N@JMBMLHMG@MOTION_SPAWN@			; `string'
PUBLIC	??_C@_0M@LMMOJHBC@MOTION_WAIT@			; `string'
PUBLIC	??_C@_0M@HHFPFLGH@MOTION_WALK@			; `string'
PUBLIC	??_C@_0L@KHKCPAAF@MOTION_RUN@			; `string'
PUBLIC	??_C@_0BF@ICKHJCNJ@MOTION_CHANGE_WEAPON@	; `string'
PUBLIC	??_C@_0O@CKDFGNMB@MOTION_DAMAGE@		; `string'
PUBLIC	??_C@_0BF@LNCKFICM@MOTION_DAMAGE_FLYING@	; `string'
PUBLIC	??_C@_0BA@IDCGGFKN@MOTION_STAND_UP@		; `string'
PUBLIC	??_C@_0BD@MNOACOOC@MOTION_DAMAGE_BACK@		; `string'
PUBLIC	??_C@_0BK@PDCLNNIP@MOTION_DAMAGE_FLYING_BACK@	; `string'
PUBLIC	??_C@_0BF@DFDDIGMI@MOTION_STAND_UP_BACK@	; `string'
PUBLIC	??_C@_0M@FADNKOPO@MOTION_DEAD@			; `string'
PUBLIC	??_C@_0BB@FBKKIAJJ@MOTION_DEAD_BACK@		; `string'
PUBLIC	??_C@_0BF@PDLLCGCI@MOTION_NORMAL_ATTACK@	; `string'
PUBLIC	??_C@_0BG@NHAANOLG@MOTION_COMBO_ATTACK_1@	; `string'
PUBLIC	??_C@_0BG@PMCNINHF@MOTION_COMBO_ATTACK_2@	; `string'
PUBLIC	??_C@_0BG@OFDGLMDE@MOTION_COMBO_ATTACK_3@	; `string'
PUBLIC	??_C@_0BG@KKHHCKPD@MOTION_COMBO_ATTACK_4@	; `string'
PUBLIC	??_C@_0BG@LDGMBLLC@MOTION_COMBO_ATTACK_5@	; `string'
PUBLIC	??_C@_0BG@JIEBEIHB@MOTION_COMBO_ATTACK_6@	; `string'
PUBLIC	??_C@_0BG@IBFKHJDA@MOTION_COMBO_ATTACK_7@	; `string'
PUBLIC	??_C@_0BG@GMCGFPP@MOTION_COMBO_ATTACK_8@	; `string'
PUBLIC	??_C@_0BC@KGBJGDBO@MOTION_INTRO_WAIT@		; `string'
PUBLIC	??_C@_0BG@KEIOCEDJ@MOTION_INTRO_SELECTED@	; `string'
PUBLIC	??_C@_0BK@BEALLN@MOTION_INTRO_NOT_SELECTED@	; `string'
PUBLIC	??_C@_0BF@CHLKIEFK@MOTION_FISHING_THROW@	; `string'
PUBLIC	??_C@_0BE@MOCHIGHH@MOTION_FISHING_WAIT@		; `string'
PUBLIC	??_C@_0BE@DMIBDOKM@MOTION_FISHING_STOP@		; `string'
PUBLIC	??_C@_0BF@GJOIPBCA@MOTION_FISHING_REACT@	; `string'
PUBLIC	??_C@_0BF@NFFCHMCO@MOTION_FISHING_CATCH@	; `string'
PUBLIC	??_C@_0BE@BBLMKABM@MOTION_FISHING_FAIL@		; `string'
PUBLIC	??_C@_0M@EOGICPMJ@MOTION_STOP@			; `string'
PUBLIC	??_C@_0N@GMNNBHKJ@MOTION_SKILL@			; `string'
PUBLIC	??_C@_0M@LBLLOKDB@MOTION_CLAP@			; `string'
PUBLIC	??_C@_0P@GNPIAPBK@MOTION_DANCE_1@		; `string'
PUBLIC	??_C@_0P@EGNFFMNJ@MOTION_DANCE_2@		; `string'
PUBLIC	??_C@_0P@FPMOGNJI@MOTION_DANCE_3@		; `string'
PUBLIC	??_C@_0P@BAIPPLFP@MOTION_DANCE_4@		; `string'
PUBLIC	??_C@_0P@JJEMKBO@MOTION_DANCE_5@		; `string'
PUBLIC	??_C@_0P@CCLJJJNN@MOTION_DANCE_6@		; `string'
PUBLIC	??_C@_0BG@BMOIGNKG@MOTION_CONGRATULATION@	; `string'
PUBLIC	??_C@_0P@PACCCPNP@MOTION_FORGIVE@		; `string'
PUBLIC	??_C@_0N@CLPBCEBE@MOTION_ANGRY@			; `string'
PUBLIC	??_C@_0BC@MOMKLPKF@MOTION_ATTRACTIVE@		; `string'
PUBLIC	??_C@_0L@PONOHEEG@MOTION_SAD@			; `string'
PUBLIC	??_C@_0L@OGDCDNF@MOTION_SHY@			; `string'
PUBLIC	??_C@_0P@KLJNPGKF@MOTION_CHEERUP@		; `string'
PUBLIC	??_C@_0O@GPIFNFHO@MOTION_BANTER@		; `string'
PUBLIC	??_C@_0L@CGDNCNEF@MOTION_JOY@			; `string'
PUBLIC	??_C@_0BA@EOHNNFMC@MOTION_CHEERS_1@		; `string'
PUBLIC	??_C@_0BA@GFFAIGAB@MOTION_CHEERS_2@		; `string'
PUBLIC	??_C@_0BJ@BNMGACEI@MOTION_KISS_WITH_WARRIOR@	; `string'
PUBLIC	??_C@_0BK@PEHNDAJC@MOTION_KISS_WITH_ASSASSIN@	; `string'
PUBLIC	??_C@_0BG@FBINLMID@MOTION_KISS_WITH_SURA@	; `string'
PUBLIC	??_C@_0BI@BPAFKDHB@MOTION_KISS_WITH_SHAMAN@	; `string'
PUBLIC	??_C@_0CA@MCOGAAOA@MOTION_FRENCH_KISS_WITH_WARRIOR@ ; `string'
PUBLIC	??_C@_0CB@CMKPDLEK@MOTION_FRENCH_KISS_WITH_ASSASSI@ ; `string'
PUBLIC	??_C@_0BN@OJCLLFKP@MOTION_FRENCH_KISS_WITH_SURA@ ; `string'
PUBLIC	??_C@_0BP@FPOIMINN@MOTION_FRENCH_KISS_WITH_SHAMAN@ ; `string'
PUBLIC	??_C@_0BN@KKCFGBMO@MOTION_SLAP_HIT_WITH_WARRIOR@ ; `string'
PUBLIC	??_C@_0BO@PABBPFOE@MOTION_SLAP_HIT_WITH_ASSASSIN@ ; `string'
PUBLIC	??_C@_0BK@BLGFNMMI@MOTION_SLAP_HIT_WITH_SURA@	; `string'
PUBLIC	??_C@_0BM@EBDKBOAP@MOTION_SLAP_HIT_WITH_SHAMAN@	; `string'
PUBLIC	??_C@_0BO@ENJIKGO@MOTION_SLAP_HURT_WITH_WARRIOR@ ; `string'
PUBLIC	??_C@_0BP@CGGJKKOH@MOTION_SLAP_HURT_WITH_ASSASSIN@ ; `string'
PUBLIC	??_C@_0BL@MNIFOENP@MOTION_SLAP_HURT_WITH_SURA@	; `string'
PUBLIC	??_C@_0BN@GMLLPEOH@MOTION_SLAP_HURT_WITH_SHAMAN@ ; `string'
PUBLIC	??_C@_0L@BGCOBJBL@MOTION_DIG@			; `string'
PUBLIC	??_C@_0BF@JPHCAJND@MOTION_MODE_RESERVED@	; `string'
PUBLIC	??_C@_0BE@PPOENDHJ@MOTION_MODE_GENERAL@		; `string'
PUBLIC	??_C@_0BK@EGEANFHJ@MOTION_MODE_ONEHAND_SWORD@	; `string'
PUBLIC	??_C@_0BK@LGGPJGKL@MOTION_MODE_TWOHAND_SWORD@	; `string'
PUBLIC	??_C@_0BL@BILJFJA@MOTION_MODE_DUALHAND_SWORD@	; `string'
PUBLIC	??_C@_0BA@BFLJJHOH@MOTION_MODE_BOW@		; `string'
PUBLIC	??_C@_0BA@LEFIEKC@MOTION_MODE_FAN@		; `string'
PUBLIC	??_C@_0BB@BNHJGCLA@MOTION_MODE_BELL@		; `string'
PUBLIC	??_C@_0BE@NMIGCCAP@MOTION_MODE_FISHING@		; `string'
PUBLIC	??_C@_0BC@KOFIOII@MOTION_MODE_HORSE@		; `string'
PUBLIC	??_C@_0CA@LBDCIFIC@MOTION_MODE_HORSE_ONEHAND_SWORD@ ; `string'
PUBLIC	??_C@_0CA@EBBNMGFA@MOTION_MODE_HORSE_TWOHAND_SWORD@ ; `string'
PUBLIC	??_C@_0CB@CLBDMMFE@MOTION_MODE_HORSE_DUALHAND_SWOR@ ; `string'
PUBLIC	??_C@_0BG@FPIIPCL@MOTION_MODE_HORSE_BOW@	; `string'
PUBLIC	??_C@_0BG@BLAEJMGO@MOTION_MODE_HORSE_FAN@	; `string'
PUBLIC	??_C@_0BH@IPLLKNDD@MOTION_MODE_HORSE_BELL@	; `string'
PUBLIC	??_C@_0BK@EFEKGCKJ@MOTION_MODE_WEDDING_DRESS@	; `string'
PUBLIC	??_C@_09OGGLMICG@DIR_NORTH@			; `string'
PUBLIC	??_C@_0O@NGBDCCOD@DIR_NORTHEAST@		; `string'
PUBLIC	??_C@_08OGFOMCPI@DIR_EAST@			; `string'
PUBLIC	??_C@_0O@OIGCBKC@DIR_SOUTHEAST@			; `string'
PUBLIC	??_C@_09MEPEOBNK@DIR_SOUTH@			; `string'
PUBLIC	??_C@_0O@JLMEHCBH@DIR_SOUTHWEST@		; `string'
PUBLIC	??_C@_08HDBMJBEN@DIR_WEST@			; `string'
PUBLIC	??_C@_0O@EDFBHBFG@DIR_NORTHWEST@		; `string'
PUBLIC	??_C@_0BF@LBEOLJOH@INSTANCE_TYPE_PLAYER@	; `string'
PUBLIC	??_C@_0BC@HPKLHBPD@INSTANCE_TYPE_NPC@		; `string'
PUBLIC	??_C@_0BE@JLNEPCAN@INSTANCE_TYPE_ENEMY@		; `string'
PUBLIC	??_C@_0BH@FNPAMCND@INSTANCE_TYPE_BUILDING@	; `string'
PUBLIC	??_C@_0BF@CFBKDGLC@INSTANCE_TYPE_OBJECT@	; `string'
PUBLIC	??_C@_0M@LDILJIBN@PART_WEAPON@			; `string'
PUBLIC	??_C@_09HAMNFDMJ@PART_HEAD@			; `string'
PUBLIC	??_C@_0BB@KENNFNCF@PART_WEAPON_LEFT@		; `string'
PUBLIC	??_C@_0O@FFCFHML@AFFECT_POISON@			; `string'
PUBLIC	??_C@_0M@LLKNMBHE@AFFECT_SLOW@			; `string'
PUBLIC	??_C@_0M@KELBDBLK@AFFECT_STUN@			; `string'
PUBLIC	??_C@_0BI@BEKPJJEK@AFFECT_MOV_SPEED_POTION@	; `string'
PUBLIC	??_C@_0BI@JFMNFFKJ@AFFECT_ATT_SPEED_POTION@	; `string'
PUBLIC	??_C@_0BB@HABGKKCK@AFFECT_FISH_MIND@		; `string'
PUBLIC	??_C@_0P@PMGJMPLA@AFFECT_JEONGWI@		; `string'
PUBLIC	??_C@_0BC@BPIBLGH@AFFECT_GEOMGYEONG@		; `string'
PUBLIC	??_C@_0BB@NMEHKBDD@AFFECT_CHEONGEUN@		; `string'
PUBLIC	??_C@_0BC@DNOFICLK@AFFECT_GYEONGGONG@		; `string'
PUBLIC	??_C@_0BB@NOAECAHF@AFFECT_EUNHYEONG@		; `string'
PUBLIC	??_C@_0P@JADECJKN@AFFECT_GWIGEOM@		; `string'
PUBLIC	??_C@_0O@MEBBDMFP@AFFECT_GONGPO@		; `string'
PUBLIC	??_C@_0P@NHIEBDHO@AFFECT_JUMAGAP@		; `string'
PUBLIC	??_C@_0N@BLOPJELK@AFFECT_HOSIN@			; `string'
PUBLIC	??_C@_0M@HDMMFOHE@AFFECT_BOHO@			; `string'
PUBLIC	??_C@_0P@HCCAECCK@AFFECT_KWAESOK@		; `string'
PUBLIC	??_C@_0P@FCGDLODF@AFFECT_HEUKSIN@		; `string'
PUBLIC	??_C@_0P@HLONBHGO@AFFECT_MUYEONG@		; `string'
PUBLIC	??_C@_0P@KPDDCJEK@AFFECT_GICHEON@		; `string'
PUBLIC	??_C@_0BC@HABANGHD@AFFECT_JEUNGRYEOK@		; `string'
PUBLIC	??_C@_0O@OJLLDADG@AFFECT_PABEOP@		; `string'
PUBLIC	??_C@_0BI@CFDHLOMB@AFFECT_FALLEN_CHEONGEUN@	; `string'
PUBLIC	??_C@_0BG@DFBDCPEK@AFFECT_CHINA_FIREWORK@	; `string'
PUBLIC	??_C@_0BA@DBLFIOAN@NEW_AFFECT_MALL@		; `string'
PUBLIC	??_C@_0BM@NOKMEHMP@NEW_AFFECT_NO_DEATH_PENALTY@	; `string'
PUBLIC	??_C@_0BM@ELPJNNPH@NEW_AFFECT_SKILL_BOOK_BONUS@	; `string'
PUBLIC	??_C@_0BP@ILCIKFOJ@NEW_AFFECT_SKILL_BOOK_NO_DELAY@ ; `string'
PUBLIC	??_C@_0BF@IGFBIBCE@NEW_AFFECT_EXP_BONUS@	; `string'
PUBLIC	??_C@_0BP@PLLCKPKL@NEW_AFFECT_EXP_BONUS_EURO_FREE@ ; `string'
PUBLIC	??_C@_0CI@CIBKFDJK@NEW_AFFECT_EXP_BONUS_EURO_FREE_@ ; `string'
PUBLIC	??_C@_0BG@GBJOJDKK@NEW_AFFECT_ITEM_BONUS@	; `string'
PUBLIC	??_C@_0BD@OLNAIOLN@NEW_AFFECT_SAFEBOX@		; `string'
PUBLIC	??_C@_0BE@OGKIHHNM@NEW_AFFECT_AUTOLOOT@		; `string'
PUBLIC	??_C@_0BF@LHIEHLCN@NEW_AFFECT_FISH_MIND@	; `string'
PUBLIC	??_C@_0BJ@DEPPJPLB@NEW_AFFECT_MARRIAGE_FAST@	; `string'
PUBLIC	??_C@_0BG@FPEKGPMD@NEW_AFFECT_GOLD_BONUS@	; `string'
PUBLIC	??_C@_0BM@DLPBDIOI@NEW_AFFECT_AUTO_HP_RECOVERY@	; `string'
PUBLIC	??_C@_0BM@EGHLHBBK@NEW_AFFECT_AUTO_SP_RECOVERY@	; `string'
PUBLIC	??_C@_0CB@MMNLNBEI@NEW_AFFECT_DRAGON_SOUL_QUALIFIE@ ; `string'
PUBLIC	??_C@_0BN@DIIGGCFL@NEW_AFFECT_DRAGON_SOUL_DECK1@ ; `string'
PUBLIC	??_C@_0BN@BDKLDBJI@NEW_AFFECT_DRAGON_SOUL_DECK2@ ; `string'
PUBLIC	__real@3b808081
PUBLIC	__real@4076800000000000
PUBLIC	__real@43340000
PUBLIC	__real@43b40000
PUBLIC	__real@44340000
PUBLIC	__xmm@3f800000000000003e99999a00000000
PUBLIC	__xmm@80000000800000008000000080000000
EXTRN	??2@YAPAXI@Z:PROC				; operator new
EXTRN	??3@YAXPAX@Z:PROC				; operator delete
EXTRN	??3@YAXPAXI@Z:PROC				; operator delete
EXTRN	_atexit:PROC
EXTRN	__invalid_parameter_noinfo_noreturn:PROC
EXTRN	___std_exception_copy:PROC
EXTRN	___std_exception_destroy:PROC
EXTRN	??_Eexception@std@@UAEPAXI@Z:PROC		; std::exception::`vector deleting destructor'
EXTRN	??_Ebad_alloc@std@@UAEPAXI@Z:PROC		; std::bad_alloc::`vector deleting destructor'
EXTRN	??_Ebad_array_new_length@std@@UAEPAXI@Z:PROC	; std::bad_array_new_length::`vector deleting destructor'
EXTRN	?_Xlength_error@std@@YAXPBD@Z:PROC		; std::_Xlength_error
EXTRN	__imp__PyLong_AsLong:PROC
EXTRN	__imp__PyTuple_Size:PROC
EXTRN	__imp__PyTuple_GetItem:PROC
EXTRN	__imp__PyDict_GetItemString:PROC
EXTRN	__imp__Py_BuildValue:PROC
EXTRN	__imp__PyModule_AddIntConstant:PROC
EXTRN	__imp__Py_InitModule4:PROC
EXTRN	?PyTuple_GetString@@YA_NPAU_object@@HPAPAD@Z:PROC ; PyTuple_GetString
EXTRN	?PyTuple_GetInteger@@YA_NPAU_object@@HPAH@Z:PROC ; PyTuple_GetInteger
EXTRN	?PyTuple_GetFloat@@YA_NPAU_object@@HPAM@Z:PROC	; PyTuple_GetFloat
EXTRN	?Py_BuildException@@YAPAU_object@@PBDZZ:PROC	; Py_BuildException
EXTRN	?Py_BadArgument@@YAPAU_object@@XZ:PROC		; Py_BadArgument
EXTRN	?Py_BuildNone@@YAPAU_object@@XZ:PROC		; Py_BuildNone
EXTRN	?ProjectPosition@CScreen@@QAEXMMMPAM00@Z:PROC	; CScreen::ProjectPosition
EXTRN	?SetFaint@CActorInstance@@QAEX_N@Z:PROC		; CActorInstance::SetFaint
EXTRN	?SetComboType@CActorInstance@@QAEXG@Z:PROC	; CActorInstance::SetComboType
EXTRN	?InterceptOnceMotion@CActorInstance@@QAE_NKMIM@Z:PROC ; CActorInstance::InterceptOnceMotion
EXTRN	?PushOnceMotion@CActorInstance@@QAE_NKMM@Z:PROC	; CActorInstance::PushOnceMotion
EXTRN	?PushLoopMotion@CActorInstance@@QAE_NKMM@Z:PROC	; CActorInstance::PushLoopMotion
EXTRN	?IsFaint@CActorInstance@@QAEHXZ:PROC		; CActorInstance::IsFaint
EXTRN	?SetRotation@CActorInstance@@QAEXM@Z:PROC	; CActorInstance::SetRotation
EXTRN	?SetXYRotation@CActorInstance@@QAEXMM@Z:PROC	; CActorInstance::SetXYRotation
EXTRN	?SetSpecularInfo@CActorInstance@@QAEXHHM@Z:PROC	; CActorInstance::SetSpecularInfo
EXTRN	?SetSpecularInfoForce@CActorInstance@@QAEXHHM@Z:PROC ; CActorInstance::SetSpecularInfoForce
EXTRN	?SetWeaponTraceTexture@CActorInstance@@QAEXPBD@Z:PROC ; CActorInstance::SetWeaponTraceTexture
EXTRN	?UseTextureWeaponTrace@CActorInstance@@QAEXXZ:PROC ; CActorInstance::UseTextureWeaponTrace
EXTRN	?UseAlphaWeaponTrace@CActorInstance@@QAEXXZ:PROC ; CActorInstance::UseAlphaWeaponTrace
EXTRN	??0CAffectFlagContainer@@QAE@XZ:PROC		; CAffectFlagContainer::CAffectFlagContainer
EXTRN	??1CAffectFlagContainer@@QAE@XZ:PROC		; CAffectFlagContainer::~CAffectFlagContainer
EXTRN	?Clear@CAffectFlagContainer@@QAEXXZ:PROC	; CAffectFlagContainer::Clear
EXTRN	?MountHorse@CInstanceBase@@QAEXI@Z:PROC		; CInstanceBase::MountHorse
EXTRN	?DismountHorse@CInstanceBase@@QAEXXZ:PROC	; CInstanceBase::DismountHorse
EXTRN	?SetAlpha@CInstanceBase@@QAEXM@Z:PROC		; CInstanceBase::SetAlpha
EXTRN	?Create@CInstanceBase@@QAE_NABUSCreateData@1@@Z:PROC ; CInstanceBase::Create
EXTRN	?RegisterBoundingSphere@CInstanceBase@@QAEXXZ:PROC ; CInstanceBase::RegisterBoundingSphere
EXTRN	?GetBoundBox@CInstanceBase@@QAEXPAUD3DXVECTOR3@@0@Z:PROC ; CInstanceBase::GetBoundBox
EXTRN	?SetNameString@CInstanceBase@@QAEXPBDH@Z:PROC	; CInstanceBase::SetNameString
EXTRN	?SetRace@CInstanceBase@@QAE_NK@Z:PROC		; CInstanceBase::SetRace
EXTRN	?SetVirtualID@CInstanceBase@@QAEXK@Z:PROC	; CInstanceBase::SetVirtualID
EXTRN	?SetInstanceType@CInstanceBase@@QAEXH@Z:PROC	; CInstanceBase::SetInstanceType
EXTRN	?SetArmor@CInstanceBase@@QAEXK@Z:PROC		; CInstanceBase::SetArmor
EXTRN	?SetHair@CInstanceBase@@QAEXK@Z:PROC		; CInstanceBase::SetHair
EXTRN	?SetWeapon@CInstanceBase@@QAE_NK@Z:PROC		; CInstanceBase::SetWeapon
EXTRN	?ChangeArmor@CInstanceBase@@QAE_NK@Z:PROC	; CInstanceBase::ChangeArmor
EXTRN	?ChangeHair@CInstanceBase@@QAEXK@Z:PROC		; CInstanceBase::ChangeHair
EXTRN	?GetNameString@CInstanceBase@@QAEPBDXZ:PROC	; CInstanceBase::GetNameString
EXTRN	?GetInstanceType@CInstanceBase@@QAEHXZ:PROC	; CInstanceBase::GetInstanceType
EXTRN	?GetRace@CInstanceBase@@QAEKXZ:PROC		; CInstanceBase::GetRace
EXTRN	?GetVirtualNumber@CInstanceBase@@QAEKXZ:PROC	; CInstanceBase::GetVirtualNumber
EXTRN	?GetGuildID@CInstanceBase@@QAEKXZ:PROC		; CInstanceBase::GetGuildID
EXTRN	?GetAlignment@CInstanceBase@@QAEHXZ:PROC	; CInstanceBase::GetAlignment
EXTRN	?GetAlignmentGrade@CInstanceBase@@QAEIXZ:PROC	; CInstanceBase::GetAlignmentGrade
EXTRN	?IsPartyMember@CInstanceBase@@QAE_NXZ:PROC	; CInstanceBase::IsPartyMember
EXTRN	?Revive@CInstanceBase@@QAEXXZ:PROC		; CInstanceBase::Revive
EXTRN	?Die@CInstanceBase@@QAEXXZ:PROC			; CInstanceBase::Die
EXTRN	?Hide@CInstanceBase@@QAEXXZ:PROC		; CInstanceBase::Hide
EXTRN	?Show@CInstanceBase@@QAEXXZ:PROC		; CInstanceBase::Show
EXTRN	?IsGameMaster@CInstanceBase@@QAEHXZ:PROC	; CInstanceBase::IsGameMaster
EXTRN	?IsEnemy@CInstanceBase@@QAEHXZ:PROC		; CInstanceBase::IsEnemy
EXTRN	?IsNPC@CInstanceBase@@QAEHXZ:PROC		; CInstanceBase::IsNPC
EXTRN	?NEW_MoveToDestPixelPositionDirection@CInstanceBase@@QAE_NABUD3DXVECTOR3@@@Z:PROC ; CInstanceBase::NEW_MoveToDestPixelPositionDirection
EXTRN	?NEW_SetPixelPosition@CInstanceBase@@QAEXABUD3DXVECTOR3@@@Z:PROC ; CInstanceBase::NEW_SetPixelPosition
EXTRN	?RestoreRenderMode@CInstanceBase@@QAEXXZ:PROC	; CInstanceBase::RestoreRenderMode
EXTRN	?SetAddRenderMode@CInstanceBase@@QAEXXZ:PROC	; CInstanceBase::SetAddRenderMode
EXTRN	?SetModulateRenderMode@CInstanceBase@@QAEXXZ:PROC ; CInstanceBase::SetModulateRenderMode
EXTRN	?SetAddColor@CInstanceBase@@QAEXABUD3DXCOLOR@@@Z:PROC ; CInstanceBase::SetAddColor
EXTRN	?SCRIPT_SetPixelPosition@CInstanceBase@@QAEXMM@Z:PROC ; CInstanceBase::SCRIPT_SetPixelPosition
EXTRN	?NEW_GetPixelPosition@CInstanceBase@@QAEXPAUD3DXVECTOR3@@@Z:PROC ; CInstanceBase::NEW_GetPixelPosition
EXTRN	?GetRotation@CInstanceBase@@QAEMXZ:PROC		; CInstanceBase::GetRotation
EXTRN	?SetRotation@CInstanceBase@@QAEXM@Z:PROC	; CInstanceBase::SetRotation
EXTRN	?BlendRotation@CInstanceBase@@QAEXMM@Z:PROC	; CInstanceBase::BlendRotation
EXTRN	?SetDirection@CInstanceBase@@QAEXH@Z:PROC	; CInstanceBase::SetDirection
EXTRN	?SetMotionMode@CInstanceBase@@QAEXH@Z:PROC	; CInstanceBase::SetMotionMode
EXTRN	?SetLoopMotion@CInstanceBase@@QAEXGMM@Z:PROC	; CInstanceBase::SetLoopMotion
EXTRN	?PushOnceMotion@CInstanceBase@@QAEXGMM@Z:PROC	; CInstanceBase::PushOnceMotion
EXTRN	?PushLoopMotion@CInstanceBase@@QAEXGMM@Z:PROC	; CInstanceBase::PushLoopMotion
EXTRN	?GetGraphicThingInstanceRef@CInstanceBase@@QAEAAVCActorInstance@@XZ:PROC ; CInstanceBase::GetGraphicThingInstanceRef
EXTRN	?OLD_GetPickedInstanceVID@CPythonCharacterManager@@QAE_NPAK@Z:PROC ; CPythonCharacterManager::OLD_GetPickedInstanceVID
EXTRN	?GetMainInstancePtr@CPythonCharacterManager@@QAEPAVCInstanceBase@@XZ:PROC ; CPythonCharacterManager::GetMainInstancePtr
EXTRN	?Update@CPythonCharacterManager@@QAEXXZ:PROC	; CPythonCharacterManager::Update
EXTRN	?Deform@CPythonCharacterManager@@QAEXXZ:PROC	; CPythonCharacterManager::Deform
EXTRN	?Render@CPythonCharacterManager@@QAEXXZ:PROC	; CPythonCharacterManager::Render
EXTRN	?RenderCollision@CPythonCharacterManager@@QAEXXZ:PROC ; CPythonCharacterManager::RenderCollision
EXTRN	?CreateInstance@CPythonCharacterManager@@QAEPAVCInstanceBase@@ABUSCreateData@2@@Z:PROC ; CPythonCharacterManager::CreateInstance
EXTRN	?RegisterInstance@CPythonCharacterManager@@QAEPAVCInstanceBase@@K@Z:PROC ; CPythonCharacterManager::RegisterInstance
EXTRN	?DeleteInstance@CPythonCharacterManager@@QAEXK@Z:PROC ; CPythonCharacterManager::DeleteInstance
EXTRN	?DeleteInstanceByFade@CPythonCharacterManager@@QAEXK@Z:PROC ; CPythonCharacterManager::DeleteInstanceByFade
EXTRN	?SelectInstance@CPythonCharacterManager@@QAEXK@Z:PROC ; CPythonCharacterManager::SelectInstance
EXTRN	?GetSelectedInstancePtr@CPythonCharacterManager@@QAEPAVCInstanceBase@@XZ:PROC ; CPythonCharacterManager::GetSelectedInstancePtr
EXTRN	?PickAll@CPythonCharacterManager@@QAEHXZ:PROC	; CPythonCharacterManager::PickAll
EXTRN	?GetEventType@CPythonNonPlayer@@QAEEK@Z:PROC	; CPythonNonPlayer::GetEventType
EXTRN	@__security_check_cookie@4:PROC
EXTRN	__CIfmod:PROC
EXTRN	__CxxThrowException@8:PROC
EXTRN	___CxxFrameHandler3:PROC
EXTRN	_memcpy:PROC
EXTRN	_memmove:PROC
EXTRN	_memset:PROC
EXTRN	___security_cookie:DWORD
EXTRN	__fltused:DWORD
;	COMDAT ?ms_singleton@?$CSingleton@VCPythonGraphic@@@@0PAVCPythonGraphic@@A
_BSS	SEGMENT
?ms_singleton@?$CSingleton@VCPythonGraphic@@@@0PAVCPythonGraphic@@A DD 01H DUP (?) ; CSingleton<CPythonGraphic>::ms_singleton
_BSS	ENDS
;	COMDAT ?ms_singleton@?$CSingleton@VCPythonCharacterManager@@@@0PAVCPythonCharacterManager@@A
_BSS	SEGMENT
?ms_singleton@?$CSingleton@VCPythonCharacterManager@@@@0PAVCPythonCharacterManager@@A DD 01H DUP (?) ; CSingleton<CPythonCharacterManager>::ms_singleton
_BSS	ENDS
;	COMDAT ?ms_singleton@?$CSingleton@VCPythonNonPlayer@@@@0PAVCPythonNonPlayer@@A
_BSS	SEGMENT
?ms_singleton@?$CSingleton@VCPythonNonPlayer@@@@0PAVCPythonNonPlayer@@A DD 01H DUP (?) ; CSingleton<CPythonNonPlayer>::ms_singleton
_BSS	ENDS
;	COMDAT CRT$XCU
CRT$XCU	SEGMENT
??ms_kPool$initializer$@?$CPooledObject@VCHeaderDecorator@NEffectUpdateDecorator@@@@1P6AXXZA@@3P6AXXZA DD FLAT:??__E?ms_kPool@?$CPooledObject@VCHeaderDecorator@NEffectUpdateDecorator@@@@1V?$CDynamicPoolEx@VCHeaderDecorator@NEffectUpdateDecorator@@@@A@@YAXXZ ; ??ms_kPool$initializer$@?$CPooledObject@VCHeaderDecorator@NEffectUpdateDecorator@@@@1P6AXXZA@@3P6AXXZA
CRT$XCU	ENDS
;	COMDAT __xmm@80000000800000008000000080000000
CONST	SEGMENT
__xmm@80000000800000008000000080000000 DB 00H, 00H, 00H, 080H, 00H, 00H, 00H
	DB	080H, 00H, 00H, 00H, 080H, 00H, 00H, 00H, 080H
CONST	ENDS
;	COMDAT __xmm@3f800000000000003e99999a00000000
CONST	SEGMENT
__xmm@3f800000000000003e99999a00000000 DB 00H, 00H, 00H, 00H, 09aH, 099H, 099H
	DB	'>', 00H, 00H, 00H, 00H, 00H, 00H, 080H, '?'
CONST	ENDS
;	COMDAT __real@44340000
CONST	SEGMENT
__real@44340000 DD 044340000r			; 720
CONST	ENDS
;	COMDAT __real@43b40000
CONST	SEGMENT
__real@43b40000 DD 043b40000r			; 360
CONST	ENDS
;	COMDAT __real@43340000
CONST	SEGMENT
__real@43340000 DD 043340000r			; 180
CONST	ENDS
;	COMDAT __real@4076800000000000
CONST	SEGMENT
__real@4076800000000000 DQ 04076800000000000r	; 360
CONST	ENDS
;	COMDAT __real@3b808081
CONST	SEGMENT
__real@3b808081 DD 03b808081r			; 0.00392157
CONST	ENDS
;	COMDAT ??_C@_0BN@BDKLDBJI@NEW_AFFECT_DRAGON_SOUL_DECK2@
CONST	SEGMENT
??_C@_0BN@BDKLDBJI@NEW_AFFECT_DRAGON_SOUL_DECK2@ DB 'NEW_AFFECT_DRAGON_SO'
	DB	'UL_DECK2', 00H				; `string'
CONST	ENDS
;	COMDAT ??_C@_0BN@DIIGGCFL@NEW_AFFECT_DRAGON_SOUL_DECK1@
CONST	SEGMENT
??_C@_0BN@DIIGGCFL@NEW_AFFECT_DRAGON_SOUL_DECK1@ DB 'NEW_AFFECT_DRAGON_SO'
	DB	'UL_DECK1', 00H				; `string'
CONST	ENDS
;	COMDAT ??_C@_0CB@MMNLNBEI@NEW_AFFECT_DRAGON_SOUL_QUALIFIE@
CONST	SEGMENT
??_C@_0CB@MMNLNBEI@NEW_AFFECT_DRAGON_SOUL_QUALIFIE@ DB 'NEW_AFFECT_DRAGON'
	DB	'_SOUL_QUALIFIED', 00H			; `string'
CONST	ENDS
;	COMDAT ??_C@_0BM@EGHLHBBK@NEW_AFFECT_AUTO_SP_RECOVERY@
CONST	SEGMENT
??_C@_0BM@EGHLHBBK@NEW_AFFECT_AUTO_SP_RECOVERY@ DB 'NEW_AFFECT_AUTO_SP_RE'
	DB	'COVERY', 00H				; `string'
CONST	ENDS
;	COMDAT ??_C@_0BM@DLPBDIOI@NEW_AFFECT_AUTO_HP_RECOVERY@
CONST	SEGMENT
??_C@_0BM@DLPBDIOI@NEW_AFFECT_AUTO_HP_RECOVERY@ DB 'NEW_AFFECT_AUTO_HP_RE'
	DB	'COVERY', 00H				; `string'
CONST	ENDS
;	COMDAT ??_C@_0BG@FPEKGPMD@NEW_AFFECT_GOLD_BONUS@
CONST	SEGMENT
??_C@_0BG@FPEKGPMD@NEW_AFFECT_GOLD_BONUS@ DB 'NEW_AFFECT_GOLD_BONUS', 00H ; `string'
CONST	ENDS
;	COMDAT ??_C@_0BJ@DEPPJPLB@NEW_AFFECT_MARRIAGE_FAST@
CONST	SEGMENT
??_C@_0BJ@DEPPJPLB@NEW_AFFECT_MARRIAGE_FAST@ DB 'NEW_AFFECT_MARRIAGE_FAST'
	DB	00H						; `string'
CONST	ENDS
;	COMDAT ??_C@_0BF@LHIEHLCN@NEW_AFFECT_FISH_MIND@
CONST	SEGMENT
??_C@_0BF@LHIEHLCN@NEW_AFFECT_FISH_MIND@ DB 'NEW_AFFECT_FISH_MIND', 00H ; `string'
CONST	ENDS
;	COMDAT ??_C@_0BE@OGKIHHNM@NEW_AFFECT_AUTOLOOT@
CONST	SEGMENT
??_C@_0BE@OGKIHHNM@NEW_AFFECT_AUTOLOOT@ DB 'NEW_AFFECT_AUTOLOOT', 00H ; `string'
CONST	ENDS
;	COMDAT ??_C@_0BD@OLNAIOLN@NEW_AFFECT_SAFEBOX@
CONST	SEGMENT
??_C@_0BD@OLNAIOLN@NEW_AFFECT_SAFEBOX@ DB 'NEW_AFFECT_SAFEBOX', 00H ; `string'
CONST	ENDS
;	COMDAT ??_C@_0BG@GBJOJDKK@NEW_AFFECT_ITEM_BONUS@
CONST	SEGMENT
??_C@_0BG@GBJOJDKK@NEW_AFFECT_ITEM_BONUS@ DB 'NEW_AFFECT_ITEM_BONUS', 00H ; `string'
CONST	ENDS
;	COMDAT ??_C@_0CI@CIBKFDJK@NEW_AFFECT_EXP_BONUS_EURO_FREE_@
CONST	SEGMENT
??_C@_0CI@CIBKFDJK@NEW_AFFECT_EXP_BONUS_EURO_FREE_@ DB 'NEW_AFFECT_EXP_BO'
	DB	'NUS_EURO_FREE_UNDER_15', 00H		; `string'
CONST	ENDS
;	COMDAT ??_C@_0BP@PLLCKPKL@NEW_AFFECT_EXP_BONUS_EURO_FREE@
CONST	SEGMENT
??_C@_0BP@PLLCKPKL@NEW_AFFECT_EXP_BONUS_EURO_FREE@ DB 'NEW_AFFECT_EXP_BON'
	DB	'US_EURO_FREE', 00H				; `string'
CONST	ENDS
;	COMDAT ??_C@_0BF@IGFBIBCE@NEW_AFFECT_EXP_BONUS@
CONST	SEGMENT
??_C@_0BF@IGFBIBCE@NEW_AFFECT_EXP_BONUS@ DB 'NEW_AFFECT_EXP_BONUS', 00H ; `string'
CONST	ENDS
;	COMDAT ??_C@_0BP@ILCIKFOJ@NEW_AFFECT_SKILL_BOOK_NO_DELAY@
CONST	SEGMENT
??_C@_0BP@ILCIKFOJ@NEW_AFFECT_SKILL_BOOK_NO_DELAY@ DB 'NEW_AFFECT_SKILL_B'
	DB	'OOK_NO_DELAY', 00H				; `string'
CONST	ENDS
;	COMDAT ??_C@_0BM@ELPJNNPH@NEW_AFFECT_SKILL_BOOK_BONUS@
CONST	SEGMENT
??_C@_0BM@ELPJNNPH@NEW_AFFECT_SKILL_BOOK_BONUS@ DB 'NEW_AFFECT_SKILL_BOOK'
	DB	'_BONUS', 00H				; `string'
CONST	ENDS
;	COMDAT ??_C@_0BM@NOKMEHMP@NEW_AFFECT_NO_DEATH_PENALTY@
CONST	SEGMENT
??_C@_0BM@NOKMEHMP@NEW_AFFECT_NO_DEATH_PENALTY@ DB 'NEW_AFFECT_NO_DEATH_P'
	DB	'ENALTY', 00H				; `string'
CONST	ENDS
;	COMDAT ??_C@_0BA@DBLFIOAN@NEW_AFFECT_MALL@
CONST	SEGMENT
??_C@_0BA@DBLFIOAN@NEW_AFFECT_MALL@ DB 'NEW_AFFECT_MALL', 00H ; `string'
CONST	ENDS
;	COMDAT ??_C@_0BG@DFBDCPEK@AFFECT_CHINA_FIREWORK@
CONST	SEGMENT
??_C@_0BG@DFBDCPEK@AFFECT_CHINA_FIREWORK@ DB 'AFFECT_CHINA_FIREWORK', 00H ; `string'
CONST	ENDS
;	COMDAT ??_C@_0BI@CFDHLOMB@AFFECT_FALLEN_CHEONGEUN@
CONST	SEGMENT
??_C@_0BI@CFDHLOMB@AFFECT_FALLEN_CHEONGEUN@ DB 'AFFECT_FALLEN_CHEONGEUN', 00H ; `string'
CONST	ENDS
;	COMDAT ??_C@_0O@OJLLDADG@AFFECT_PABEOP@
CONST	SEGMENT
??_C@_0O@OJLLDADG@AFFECT_PABEOP@ DB 'AFFECT_PABEOP', 00H ; `string'
CONST	ENDS
;	COMDAT ??_C@_0BC@HABANGHD@AFFECT_JEUNGRYEOK@
CONST	SEGMENT
??_C@_0BC@HABANGHD@AFFECT_JEUNGRYEOK@ DB 'AFFECT_JEUNGRYEOK', 00H ; `string'
CONST	ENDS
;	COMDAT ??_C@_0P@KPDDCJEK@AFFECT_GICHEON@
CONST	SEGMENT
??_C@_0P@KPDDCJEK@AFFECT_GICHEON@ DB 'AFFECT_GICHEON', 00H ; `string'
CONST	ENDS
;	COMDAT ??_C@_0P@HLONBHGO@AFFECT_MUYEONG@
CONST	SEGMENT
??_C@_0P@HLONBHGO@AFFECT_MUYEONG@ DB 'AFFECT_MUYEONG', 00H ; `string'
CONST	ENDS
;	COMDAT ??_C@_0P@FCGDLODF@AFFECT_HEUKSIN@
CONST	SEGMENT
??_C@_0P@FCGDLODF@AFFECT_HEUKSIN@ DB 'AFFECT_HEUKSIN', 00H ; `string'
CONST	ENDS
;	COMDAT ??_C@_0P@HCCAECCK@AFFECT_KWAESOK@
CONST	SEGMENT
??_C@_0P@HCCAECCK@AFFECT_KWAESOK@ DB 'AFFECT_KWAESOK', 00H ; `string'
CONST	ENDS
;	COMDAT ??_C@_0M@HDMMFOHE@AFFECT_BOHO@
CONST	SEGMENT
??_C@_0M@HDMMFOHE@AFFECT_BOHO@ DB 'AFFECT_BOHO', 00H	; `string'
CONST	ENDS
;	COMDAT ??_C@_0N@BLOPJELK@AFFECT_HOSIN@
CONST	SEGMENT
??_C@_0N@BLOPJELK@AFFECT_HOSIN@ DB 'AFFECT_HOSIN', 00H	; `string'
CONST	ENDS
;	COMDAT ??_C@_0P@NHIEBDHO@AFFECT_JUMAGAP@
CONST	SEGMENT
??_C@_0P@NHIEBDHO@AFFECT_JUMAGAP@ DB 'AFFECT_JUMAGAP', 00H ; `string'
CONST	ENDS
;	COMDAT ??_C@_0O@MEBBDMFP@AFFECT_GONGPO@
CONST	SEGMENT
??_C@_0O@MEBBDMFP@AFFECT_GONGPO@ DB 'AFFECT_GONGPO', 00H ; `string'
CONST	ENDS
;	COMDAT ??_C@_0P@JADECJKN@AFFECT_GWIGEOM@
CONST	SEGMENT
??_C@_0P@JADECJKN@AFFECT_GWIGEOM@ DB 'AFFECT_GWIGEOM', 00H ; `string'
CONST	ENDS
;	COMDAT ??_C@_0BB@NOAECAHF@AFFECT_EUNHYEONG@
CONST	SEGMENT
??_C@_0BB@NOAECAHF@AFFECT_EUNHYEONG@ DB 'AFFECT_EUNHYEONG', 00H ; `string'
CONST	ENDS
;	COMDAT ??_C@_0BC@DNOFICLK@AFFECT_GYEONGGONG@
CONST	SEGMENT
??_C@_0BC@DNOFICLK@AFFECT_GYEONGGONG@ DB 'AFFECT_GYEONGGONG', 00H ; `string'
CONST	ENDS
;	COMDAT ??_C@_0BB@NMEHKBDD@AFFECT_CHEONGEUN@
CONST	SEGMENT
??_C@_0BB@NMEHKBDD@AFFECT_CHEONGEUN@ DB 'AFFECT_CHEONGEUN', 00H ; `string'
CONST	ENDS
;	COMDAT ??_C@_0BC@BPIBLGH@AFFECT_GEOMGYEONG@
CONST	SEGMENT
??_C@_0BC@BPIBLGH@AFFECT_GEOMGYEONG@ DB 'AFFECT_GEOMGYEONG', 00H ; `string'
CONST	ENDS
;	COMDAT ??_C@_0P@PMGJMPLA@AFFECT_JEONGWI@
CONST	SEGMENT
??_C@_0P@PMGJMPLA@AFFECT_JEONGWI@ DB 'AFFECT_JEONGWI', 00H ; `string'
CONST	ENDS
;	COMDAT ??_C@_0BB@HABGKKCK@AFFECT_FISH_MIND@
CONST	SEGMENT
??_C@_0BB@HABGKKCK@AFFECT_FISH_MIND@ DB 'AFFECT_FISH_MIND', 00H ; `string'
CONST	ENDS
;	COMDAT ??_C@_0BI@JFMNFFKJ@AFFECT_ATT_SPEED_POTION@
CONST	SEGMENT
??_C@_0BI@JFMNFFKJ@AFFECT_ATT_SPEED_POTION@ DB 'AFFECT_ATT_SPEED_POTION', 00H ; `string'
CONST	ENDS
;	COMDAT ??_C@_0BI@BEKPJJEK@AFFECT_MOV_SPEED_POTION@
CONST	SEGMENT
??_C@_0BI@BEKPJJEK@AFFECT_MOV_SPEED_POTION@ DB 'AFFECT_MOV_SPEED_POTION', 00H ; `string'
CONST	ENDS
;	COMDAT ??_C@_0M@KELBDBLK@AFFECT_STUN@
CONST	SEGMENT
??_C@_0M@KELBDBLK@AFFECT_STUN@ DB 'AFFECT_STUN', 00H	; `string'
CONST	ENDS
;	COMDAT ??_C@_0M@LLKNMBHE@AFFECT_SLOW@
CONST	SEGMENT
??_C@_0M@LLKNMBHE@AFFECT_SLOW@ DB 'AFFECT_SLOW', 00H	; `string'
CONST	ENDS
;	COMDAT ??_C@_0O@FFCFHML@AFFECT_POISON@
CONST	SEGMENT
??_C@_0O@FFCFHML@AFFECT_POISON@ DB 'AFFECT_POISON', 00H	; `string'
CONST	ENDS
;	COMDAT ??_C@_0BB@KENNFNCF@PART_WEAPON_LEFT@
CONST	SEGMENT
??_C@_0BB@KENNFNCF@PART_WEAPON_LEFT@ DB 'PART_WEAPON_LEFT', 00H ; `string'
CONST	ENDS
;	COMDAT ??_C@_09HAMNFDMJ@PART_HEAD@
CONST	SEGMENT
??_C@_09HAMNFDMJ@PART_HEAD@ DB 'PART_HEAD', 00H		; `string'
CONST	ENDS
;	COMDAT ??_C@_0M@LDILJIBN@PART_WEAPON@
CONST	SEGMENT
??_C@_0M@LDILJIBN@PART_WEAPON@ DB 'PART_WEAPON', 00H	; `string'
CONST	ENDS
;	COMDAT ??_C@_0BF@CFBKDGLC@INSTANCE_TYPE_OBJECT@
CONST	SEGMENT
??_C@_0BF@CFBKDGLC@INSTANCE_TYPE_OBJECT@ DB 'INSTANCE_TYPE_OBJECT', 00H ; `string'
CONST	ENDS
;	COMDAT ??_C@_0BH@FNPAMCND@INSTANCE_TYPE_BUILDING@
CONST	SEGMENT
??_C@_0BH@FNPAMCND@INSTANCE_TYPE_BUILDING@ DB 'INSTANCE_TYPE_BUILDING', 00H ; `string'
CONST	ENDS
;	COMDAT ??_C@_0BE@JLNEPCAN@INSTANCE_TYPE_ENEMY@
CONST	SEGMENT
??_C@_0BE@JLNEPCAN@INSTANCE_TYPE_ENEMY@ DB 'INSTANCE_TYPE_ENEMY', 00H ; `string'
CONST	ENDS
;	COMDAT ??_C@_0BC@HPKLHBPD@INSTANCE_TYPE_NPC@
CONST	SEGMENT
??_C@_0BC@HPKLHBPD@INSTANCE_TYPE_NPC@ DB 'INSTANCE_TYPE_NPC', 00H ; `string'
CONST	ENDS
;	COMDAT ??_C@_0BF@LBEOLJOH@INSTANCE_TYPE_PLAYER@
CONST	SEGMENT
??_C@_0BF@LBEOLJOH@INSTANCE_TYPE_PLAYER@ DB 'INSTANCE_TYPE_PLAYER', 00H ; `string'
CONST	ENDS
;	COMDAT ??_C@_0O@EDFBHBFG@DIR_NORTHWEST@
CONST	SEGMENT
??_C@_0O@EDFBHBFG@DIR_NORTHWEST@ DB 'DIR_NORTHWEST', 00H ; `string'
CONST	ENDS
;	COMDAT ??_C@_08HDBMJBEN@DIR_WEST@
CONST	SEGMENT
??_C@_08HDBMJBEN@DIR_WEST@ DB 'DIR_WEST', 00H		; `string'
CONST	ENDS
;	COMDAT ??_C@_0O@JLMEHCBH@DIR_SOUTHWEST@
CONST	SEGMENT
??_C@_0O@JLMEHCBH@DIR_SOUTHWEST@ DB 'DIR_SOUTHWEST', 00H ; `string'
CONST	ENDS
;	COMDAT ??_C@_09MEPEOBNK@DIR_SOUTH@
CONST	SEGMENT
??_C@_09MEPEOBNK@DIR_SOUTH@ DB 'DIR_SOUTH', 00H		; `string'
CONST	ENDS
;	COMDAT ??_C@_0O@OIGCBKC@DIR_SOUTHEAST@
CONST	SEGMENT
??_C@_0O@OIGCBKC@DIR_SOUTHEAST@ DB 'DIR_SOUTHEAST', 00H	; `string'
CONST	ENDS
;	COMDAT ??_C@_08OGFOMCPI@DIR_EAST@
CONST	SEGMENT
??_C@_08OGFOMCPI@DIR_EAST@ DB 'DIR_EAST', 00H		; `string'
CONST	ENDS
;	COMDAT ??_C@_0O@NGBDCCOD@DIR_NORTHEAST@
CONST	SEGMENT
??_C@_0O@NGBDCCOD@DIR_NORTHEAST@ DB 'DIR_NORTHEAST', 00H ; `string'
CONST	ENDS
;	COMDAT ??_C@_09OGGLMICG@DIR_NORTH@
CONST	SEGMENT
??_C@_09OGGLMICG@DIR_NORTH@ DB 'DIR_NORTH', 00H		; `string'
CONST	ENDS
;	COMDAT ??_C@_0BK@EFEKGCKJ@MOTION_MODE_WEDDING_DRESS@
CONST	SEGMENT
??_C@_0BK@EFEKGCKJ@MOTION_MODE_WEDDING_DRESS@ DB 'MOTION_MODE_WEDDING_DRE'
	DB	'SS', 00H					; `string'
CONST	ENDS
;	COMDAT ??_C@_0BH@IPLLKNDD@MOTION_MODE_HORSE_BELL@
CONST	SEGMENT
??_C@_0BH@IPLLKNDD@MOTION_MODE_HORSE_BELL@ DB 'MOTION_MODE_HORSE_BELL', 00H ; `string'
CONST	ENDS
;	COMDAT ??_C@_0BG@BLAEJMGO@MOTION_MODE_HORSE_FAN@
CONST	SEGMENT
??_C@_0BG@BLAEJMGO@MOTION_MODE_HORSE_FAN@ DB 'MOTION_MODE_HORSE_FAN', 00H ; `string'
CONST	ENDS
;	COMDAT ??_C@_0BG@FPIIPCL@MOTION_MODE_HORSE_BOW@
CONST	SEGMENT
??_C@_0BG@FPIIPCL@MOTION_MODE_HORSE_BOW@ DB 'MOTION_MODE_HORSE_BOW', 00H ; `string'
CONST	ENDS
;	COMDAT ??_C@_0CB@CLBDMMFE@MOTION_MODE_HORSE_DUALHAND_SWOR@
CONST	SEGMENT
??_C@_0CB@CLBDMMFE@MOTION_MODE_HORSE_DUALHAND_SWOR@ DB 'MOTION_MODE_HORSE'
	DB	'_DUALHAND_SWORD', 00H			; `string'
CONST	ENDS
;	COMDAT ??_C@_0CA@EBBNMGFA@MOTION_MODE_HORSE_TWOHAND_SWORD@
CONST	SEGMENT
??_C@_0CA@EBBNMGFA@MOTION_MODE_HORSE_TWOHAND_SWORD@ DB 'MOTION_MODE_HORSE'
	DB	'_TWOHAND_SWORD', 00H			; `string'
CONST	ENDS
;	COMDAT ??_C@_0CA@LBDCIFIC@MOTION_MODE_HORSE_ONEHAND_SWORD@
CONST	SEGMENT
??_C@_0CA@LBDCIFIC@MOTION_MODE_HORSE_ONEHAND_SWORD@ DB 'MOTION_MODE_HORSE'
	DB	'_ONEHAND_SWORD', 00H			; `string'
CONST	ENDS
;	COMDAT ??_C@_0BC@KOFIOII@MOTION_MODE_HORSE@
CONST	SEGMENT
??_C@_0BC@KOFIOII@MOTION_MODE_HORSE@ DB 'MOTION_MODE_HORSE', 00H ; `string'
CONST	ENDS
;	COMDAT ??_C@_0BE@NMIGCCAP@MOTION_MODE_FISHING@
CONST	SEGMENT
??_C@_0BE@NMIGCCAP@MOTION_MODE_FISHING@ DB 'MOTION_MODE_FISHING', 00H ; `string'
CONST	ENDS
;	COMDAT ??_C@_0BB@BNHJGCLA@MOTION_MODE_BELL@
CONST	SEGMENT
??_C@_0BB@BNHJGCLA@MOTION_MODE_BELL@ DB 'MOTION_MODE_BELL', 00H ; `string'
CONST	ENDS
;	COMDAT ??_C@_0BA@LEFIEKC@MOTION_MODE_FAN@
CONST	SEGMENT
??_C@_0BA@LEFIEKC@MOTION_MODE_FAN@ DB 'MOTION_MODE_FAN', 00H ; `string'
CONST	ENDS
;	COMDAT ??_C@_0BA@BFLJJHOH@MOTION_MODE_BOW@
CONST	SEGMENT
??_C@_0BA@BFLJJHOH@MOTION_MODE_BOW@ DB 'MOTION_MODE_BOW', 00H ; `string'
CONST	ENDS
;	COMDAT ??_C@_0BL@BILJFJA@MOTION_MODE_DUALHAND_SWORD@
CONST	SEGMENT
??_C@_0BL@BILJFJA@MOTION_MODE_DUALHAND_SWORD@ DB 'MOTION_MODE_DUALHAND_SW'
	DB	'ORD', 00H					; `string'
CONST	ENDS
;	COMDAT ??_C@_0BK@LGGPJGKL@MOTION_MODE_TWOHAND_SWORD@
CONST	SEGMENT
??_C@_0BK@LGGPJGKL@MOTION_MODE_TWOHAND_SWORD@ DB 'MOTION_MODE_TWOHAND_SWO'
	DB	'RD', 00H					; `string'
CONST	ENDS
;	COMDAT ??_C@_0BK@EGEANFHJ@MOTION_MODE_ONEHAND_SWORD@
CONST	SEGMENT
??_C@_0BK@EGEANFHJ@MOTION_MODE_ONEHAND_SWORD@ DB 'MOTION_MODE_ONEHAND_SWO'
	DB	'RD', 00H					; `string'
CONST	ENDS
;	COMDAT ??_C@_0BE@PPOENDHJ@MOTION_MODE_GENERAL@
CONST	SEGMENT
??_C@_0BE@PPOENDHJ@MOTION_MODE_GENERAL@ DB 'MOTION_MODE_GENERAL', 00H ; `string'
CONST	ENDS
;	COMDAT ??_C@_0BF@JPHCAJND@MOTION_MODE_RESERVED@
CONST	SEGMENT
??_C@_0BF@JPHCAJND@MOTION_MODE_RESERVED@ DB 'MOTION_MODE_RESERVED', 00H ; `string'
CONST	ENDS
;	COMDAT ??_C@_0L@BGCOBJBL@MOTION_DIG@
CONST	SEGMENT
??_C@_0L@BGCOBJBL@MOTION_DIG@ DB 'MOTION_DIG', 00H	; `string'
CONST	ENDS
;	COMDAT ??_C@_0BN@GMLLPEOH@MOTION_SLAP_HURT_WITH_SHAMAN@
CONST	SEGMENT
??_C@_0BN@GMLLPEOH@MOTION_SLAP_HURT_WITH_SHAMAN@ DB 'MOTION_SLAP_HURT_WIT'
	DB	'H_SHAMAN', 00H				; `string'
CONST	ENDS
;	COMDAT ??_C@_0BL@MNIFOENP@MOTION_SLAP_HURT_WITH_SURA@
CONST	SEGMENT
??_C@_0BL@MNIFOENP@MOTION_SLAP_HURT_WITH_SURA@ DB 'MOTION_SLAP_HURT_WITH_'
	DB	'SURA', 00H					; `string'
CONST	ENDS
;	COMDAT ??_C@_0BP@CGGJKKOH@MOTION_SLAP_HURT_WITH_ASSASSIN@
CONST	SEGMENT
??_C@_0BP@CGGJKKOH@MOTION_SLAP_HURT_WITH_ASSASSIN@ DB 'MOTION_SLAP_HURT_W'
	DB	'ITH_ASSASSIN', 00H				; `string'
CONST	ENDS
;	COMDAT ??_C@_0BO@ENJIKGO@MOTION_SLAP_HURT_WITH_WARRIOR@
CONST	SEGMENT
??_C@_0BO@ENJIKGO@MOTION_SLAP_HURT_WITH_WARRIOR@ DB 'MOTION_SLAP_HURT_WIT'
	DB	'H_WARRIOR', 00H				; `string'
CONST	ENDS
;	COMDAT ??_C@_0BM@EBDKBOAP@MOTION_SLAP_HIT_WITH_SHAMAN@
CONST	SEGMENT
??_C@_0BM@EBDKBOAP@MOTION_SLAP_HIT_WITH_SHAMAN@ DB 'MOTION_SLAP_HIT_WITH_'
	DB	'SHAMAN', 00H				; `string'
CONST	ENDS
;	COMDAT ??_C@_0BK@BLGFNMMI@MOTION_SLAP_HIT_WITH_SURA@
CONST	SEGMENT
??_C@_0BK@BLGFNMMI@MOTION_SLAP_HIT_WITH_SURA@ DB 'MOTION_SLAP_HIT_WITH_SU'
	DB	'RA', 00H					; `string'
CONST	ENDS
;	COMDAT ??_C@_0BO@PABBPFOE@MOTION_SLAP_HIT_WITH_ASSASSIN@
CONST	SEGMENT
??_C@_0BO@PABBPFOE@MOTION_SLAP_HIT_WITH_ASSASSIN@ DB 'MOTION_SLAP_HIT_WIT'
	DB	'H_ASSASSIN', 00H				; `string'
CONST	ENDS
;	COMDAT ??_C@_0BN@KKCFGBMO@MOTION_SLAP_HIT_WITH_WARRIOR@
CONST	SEGMENT
??_C@_0BN@KKCFGBMO@MOTION_SLAP_HIT_WITH_WARRIOR@ DB 'MOTION_SLAP_HIT_WITH'
	DB	'_WARRIOR', 00H				; `string'
CONST	ENDS
;	COMDAT ??_C@_0BP@FPOIMINN@MOTION_FRENCH_KISS_WITH_SHAMAN@
CONST	SEGMENT
??_C@_0BP@FPOIMINN@MOTION_FRENCH_KISS_WITH_SHAMAN@ DB 'MOTION_FRENCH_KISS'
	DB	'_WITH_SHAMAN', 00H				; `string'
CONST	ENDS
;	COMDAT ??_C@_0BN@OJCLLFKP@MOTION_FRENCH_KISS_WITH_SURA@
CONST	SEGMENT
??_C@_0BN@OJCLLFKP@MOTION_FRENCH_KISS_WITH_SURA@ DB 'MOTION_FRENCH_KISS_W'
	DB	'ITH_SURA', 00H				; `string'
CONST	ENDS
;	COMDAT ??_C@_0CB@CMKPDLEK@MOTION_FRENCH_KISS_WITH_ASSASSI@
CONST	SEGMENT
??_C@_0CB@CMKPDLEK@MOTION_FRENCH_KISS_WITH_ASSASSI@ DB 'MOTION_FRENCH_KIS'
	DB	'S_WITH_ASSASSIN', 00H			; `string'
CONST	ENDS
;	COMDAT ??_C@_0CA@MCOGAAOA@MOTION_FRENCH_KISS_WITH_WARRIOR@
CONST	SEGMENT
??_C@_0CA@MCOGAAOA@MOTION_FRENCH_KISS_WITH_WARRIOR@ DB 'MOTION_FRENCH_KIS'
	DB	'S_WITH_WARRIOR', 00H			; `string'
CONST	ENDS
;	COMDAT ??_C@_0BI@BPAFKDHB@MOTION_KISS_WITH_SHAMAN@
CONST	SEGMENT
??_C@_0BI@BPAFKDHB@MOTION_KISS_WITH_SHAMAN@ DB 'MOTION_KISS_WITH_SHAMAN', 00H ; `string'
CONST	ENDS
;	COMDAT ??_C@_0BG@FBINLMID@MOTION_KISS_WITH_SURA@
CONST	SEGMENT
??_C@_0BG@FBINLMID@MOTION_KISS_WITH_SURA@ DB 'MOTION_KISS_WITH_SURA', 00H ; `string'
CONST	ENDS
;	COMDAT ??_C@_0BK@PEHNDAJC@MOTION_KISS_WITH_ASSASSIN@
CONST	SEGMENT
??_C@_0BK@PEHNDAJC@MOTION_KISS_WITH_ASSASSIN@ DB 'MOTION_KISS_WITH_ASSASS'
	DB	'IN', 00H					; `string'
CONST	ENDS
;	COMDAT ??_C@_0BJ@BNMGACEI@MOTION_KISS_WITH_WARRIOR@
CONST	SEGMENT
??_C@_0BJ@BNMGACEI@MOTION_KISS_WITH_WARRIOR@ DB 'MOTION_KISS_WITH_WARRIOR'
	DB	00H						; `string'
CONST	ENDS
;	COMDAT ??_C@_0BA@GFFAIGAB@MOTION_CHEERS_2@
CONST	SEGMENT
??_C@_0BA@GFFAIGAB@MOTION_CHEERS_2@ DB 'MOTION_CHEERS_2', 00H ; `string'
CONST	ENDS
;	COMDAT ??_C@_0BA@EOHNNFMC@MOTION_CHEERS_1@
CONST	SEGMENT
??_C@_0BA@EOHNNFMC@MOTION_CHEERS_1@ DB 'MOTION_CHEERS_1', 00H ; `string'
CONST	ENDS
;	COMDAT ??_C@_0L@CGDNCNEF@MOTION_JOY@
CONST	SEGMENT
??_C@_0L@CGDNCNEF@MOTION_JOY@ DB 'MOTION_JOY', 00H	; `string'
CONST	ENDS
;	COMDAT ??_C@_0O@GPIFNFHO@MOTION_BANTER@
CONST	SEGMENT
??_C@_0O@GPIFNFHO@MOTION_BANTER@ DB 'MOTION_BANTER', 00H ; `string'
CONST	ENDS
;	COMDAT ??_C@_0P@KLJNPGKF@MOTION_CHEERUP@
CONST	SEGMENT
??_C@_0P@KLJNPGKF@MOTION_CHEERUP@ DB 'MOTION_CHEERUP', 00H ; `string'
CONST	ENDS
;	COMDAT ??_C@_0L@OGDCDNF@MOTION_SHY@
CONST	SEGMENT
??_C@_0L@OGDCDNF@MOTION_SHY@ DB 'MOTION_SHY', 00H	; `string'
CONST	ENDS
;	COMDAT ??_C@_0L@PONOHEEG@MOTION_SAD@
CONST	SEGMENT
??_C@_0L@PONOHEEG@MOTION_SAD@ DB 'MOTION_SAD', 00H	; `string'
CONST	ENDS
;	COMDAT ??_C@_0BC@MOMKLPKF@MOTION_ATTRACTIVE@
CONST	SEGMENT
??_C@_0BC@MOMKLPKF@MOTION_ATTRACTIVE@ DB 'MOTION_ATTRACTIVE', 00H ; `string'
CONST	ENDS
;	COMDAT ??_C@_0N@CLPBCEBE@MOTION_ANGRY@
CONST	SEGMENT
??_C@_0N@CLPBCEBE@MOTION_ANGRY@ DB 'MOTION_ANGRY', 00H	; `string'
CONST	ENDS
;	COMDAT ??_C@_0P@PACCCPNP@MOTION_FORGIVE@
CONST	SEGMENT
??_C@_0P@PACCCPNP@MOTION_FORGIVE@ DB 'MOTION_FORGIVE', 00H ; `string'
CONST	ENDS
;	COMDAT ??_C@_0BG@BMOIGNKG@MOTION_CONGRATULATION@
CONST	SEGMENT
??_C@_0BG@BMOIGNKG@MOTION_CONGRATULATION@ DB 'MOTION_CONGRATULATION', 00H ; `string'
CONST	ENDS
;	COMDAT ??_C@_0P@CCLJJJNN@MOTION_DANCE_6@
CONST	SEGMENT
??_C@_0P@CCLJJJNN@MOTION_DANCE_6@ DB 'MOTION_DANCE_6', 00H ; `string'
CONST	ENDS
;	COMDAT ??_C@_0P@JJEMKBO@MOTION_DANCE_5@
CONST	SEGMENT
??_C@_0P@JJEMKBO@MOTION_DANCE_5@ DB 'MOTION_DANCE_5', 00H ; `string'
CONST	ENDS
;	COMDAT ??_C@_0P@BAIPPLFP@MOTION_DANCE_4@
CONST	SEGMENT
??_C@_0P@BAIPPLFP@MOTION_DANCE_4@ DB 'MOTION_DANCE_4', 00H ; `string'
CONST	ENDS
;	COMDAT ??_C@_0P@FPMOGNJI@MOTION_DANCE_3@
CONST	SEGMENT
??_C@_0P@FPMOGNJI@MOTION_DANCE_3@ DB 'MOTION_DANCE_3', 00H ; `string'
CONST	ENDS
;	COMDAT ??_C@_0P@EGNFFMNJ@MOTION_DANCE_2@
CONST	SEGMENT
??_C@_0P@EGNFFMNJ@MOTION_DANCE_2@ DB 'MOTION_DANCE_2', 00H ; `string'
CONST	ENDS
;	COMDAT ??_C@_0P@GNPIAPBK@MOTION_DANCE_1@
CONST	SEGMENT
??_C@_0P@GNPIAPBK@MOTION_DANCE_1@ DB 'MOTION_DANCE_1', 00H ; `string'
CONST	ENDS
;	COMDAT ??_C@_0M@LBLLOKDB@MOTION_CLAP@
CONST	SEGMENT
??_C@_0M@LBLLOKDB@MOTION_CLAP@ DB 'MOTION_CLAP', 00H	; `string'
CONST	ENDS
;	COMDAT ??_C@_0N@GMNNBHKJ@MOTION_SKILL@
CONST	SEGMENT
??_C@_0N@GMNNBHKJ@MOTION_SKILL@ DB 'MOTION_SKILL', 00H	; `string'
CONST	ENDS
;	COMDAT ??_C@_0M@EOGICPMJ@MOTION_STOP@
CONST	SEGMENT
??_C@_0M@EOGICPMJ@MOTION_STOP@ DB 'MOTION_STOP', 00H	; `string'
CONST	ENDS
;	COMDAT ??_C@_0BE@BBLMKABM@MOTION_FISHING_FAIL@
CONST	SEGMENT
??_C@_0BE@BBLMKABM@MOTION_FISHING_FAIL@ DB 'MOTION_FISHING_FAIL', 00H ; `string'
CONST	ENDS
;	COMDAT ??_C@_0BF@NFFCHMCO@MOTION_FISHING_CATCH@
CONST	SEGMENT
??_C@_0BF@NFFCHMCO@MOTION_FISHING_CATCH@ DB 'MOTION_FISHING_CATCH', 00H ; `string'
CONST	ENDS
;	COMDAT ??_C@_0BF@GJOIPBCA@MOTION_FISHING_REACT@
CONST	SEGMENT
??_C@_0BF@GJOIPBCA@MOTION_FISHING_REACT@ DB 'MOTION_FISHING_REACT', 00H ; `string'
CONST	ENDS
;	COMDAT ??_C@_0BE@DMIBDOKM@MOTION_FISHING_STOP@
CONST	SEGMENT
??_C@_0BE@DMIBDOKM@MOTION_FISHING_STOP@ DB 'MOTION_FISHING_STOP', 00H ; `string'
CONST	ENDS
;	COMDAT ??_C@_0BE@MOCHIGHH@MOTION_FISHING_WAIT@
CONST	SEGMENT
??_C@_0BE@MOCHIGHH@MOTION_FISHING_WAIT@ DB 'MOTION_FISHING_WAIT', 00H ; `string'
CONST	ENDS
;	COMDAT ??_C@_0BF@CHLKIEFK@MOTION_FISHING_THROW@
CONST	SEGMENT
??_C@_0BF@CHLKIEFK@MOTION_FISHING_THROW@ DB 'MOTION_FISHING_THROW', 00H ; `string'
CONST	ENDS
;	COMDAT ??_C@_0BK@BEALLN@MOTION_INTRO_NOT_SELECTED@
CONST	SEGMENT
??_C@_0BK@BEALLN@MOTION_INTRO_NOT_SELECTED@ DB 'MOTION_INTRO_NOT_SELECTED'
	DB	00H						; `string'
CONST	ENDS
;	COMDAT ??_C@_0BG@KEIOCEDJ@MOTION_INTRO_SELECTED@
CONST	SEGMENT
??_C@_0BG@KEIOCEDJ@MOTION_INTRO_SELECTED@ DB 'MOTION_INTRO_SELECTED', 00H ; `string'
CONST	ENDS
;	COMDAT ??_C@_0BC@KGBJGDBO@MOTION_INTRO_WAIT@
CONST	SEGMENT
??_C@_0BC@KGBJGDBO@MOTION_INTRO_WAIT@ DB 'MOTION_INTRO_WAIT', 00H ; `string'
CONST	ENDS
;	COMDAT ??_C@_0BG@GMCGFPP@MOTION_COMBO_ATTACK_8@
CONST	SEGMENT
??_C@_0BG@GMCGFPP@MOTION_COMBO_ATTACK_8@ DB 'MOTION_COMBO_ATTACK_8', 00H ; `string'
CONST	ENDS
;	COMDAT ??_C@_0BG@IBFKHJDA@MOTION_COMBO_ATTACK_7@
CONST	SEGMENT
??_C@_0BG@IBFKHJDA@MOTION_COMBO_ATTACK_7@ DB 'MOTION_COMBO_ATTACK_7', 00H ; `string'
CONST	ENDS
;	COMDAT ??_C@_0BG@JIEBEIHB@MOTION_COMBO_ATTACK_6@
CONST	SEGMENT
??_C@_0BG@JIEBEIHB@MOTION_COMBO_ATTACK_6@ DB 'MOTION_COMBO_ATTACK_6', 00H ; `string'
CONST	ENDS
;	COMDAT ??_C@_0BG@LDGMBLLC@MOTION_COMBO_ATTACK_5@
CONST	SEGMENT
??_C@_0BG@LDGMBLLC@MOTION_COMBO_ATTACK_5@ DB 'MOTION_COMBO_ATTACK_5', 00H ; `string'
CONST	ENDS
;	COMDAT ??_C@_0BG@KKHHCKPD@MOTION_COMBO_ATTACK_4@
CONST	SEGMENT
??_C@_0BG@KKHHCKPD@MOTION_COMBO_ATTACK_4@ DB 'MOTION_COMBO_ATTACK_4', 00H ; `string'
CONST	ENDS
;	COMDAT ??_C@_0BG@OFDGLMDE@MOTION_COMBO_ATTACK_3@
CONST	SEGMENT
??_C@_0BG@OFDGLMDE@MOTION_COMBO_ATTACK_3@ DB 'MOTION_COMBO_ATTACK_3', 00H ; `string'
CONST	ENDS
;	COMDAT ??_C@_0BG@PMCNINHF@MOTION_COMBO_ATTACK_2@
CONST	SEGMENT
??_C@_0BG@PMCNINHF@MOTION_COMBO_ATTACK_2@ DB 'MOTION_COMBO_ATTACK_2', 00H ; `string'
CONST	ENDS
;	COMDAT ??_C@_0BG@NHAANOLG@MOTION_COMBO_ATTACK_1@
CONST	SEGMENT
??_C@_0BG@NHAANOLG@MOTION_COMBO_ATTACK_1@ DB 'MOTION_COMBO_ATTACK_1', 00H ; `string'
CONST	ENDS
;	COMDAT ??_C@_0BF@PDLLCGCI@MOTION_NORMAL_ATTACK@
CONST	SEGMENT
??_C@_0BF@PDLLCGCI@MOTION_NORMAL_ATTACK@ DB 'MOTION_NORMAL_ATTACK', 00H ; `string'
CONST	ENDS
;	COMDAT ??_C@_0BB@FBKKIAJJ@MOTION_DEAD_BACK@
CONST	SEGMENT
??_C@_0BB@FBKKIAJJ@MOTION_DEAD_BACK@ DB 'MOTION_DEAD_BACK', 00H ; `string'
CONST	ENDS
;	COMDAT ??_C@_0M@FADNKOPO@MOTION_DEAD@
CONST	SEGMENT
??_C@_0M@FADNKOPO@MOTION_DEAD@ DB 'MOTION_DEAD', 00H	; `string'
CONST	ENDS
;	COMDAT ??_C@_0BF@DFDDIGMI@MOTION_STAND_UP_BACK@
CONST	SEGMENT
??_C@_0BF@DFDDIGMI@MOTION_STAND_UP_BACK@ DB 'MOTION_STAND_UP_BACK', 00H ; `string'
CONST	ENDS
;	COMDAT ??_C@_0BK@PDCLNNIP@MOTION_DAMAGE_FLYING_BACK@
CONST	SEGMENT
??_C@_0BK@PDCLNNIP@MOTION_DAMAGE_FLYING_BACK@ DB 'MOTION_DAMAGE_FLYING_BA'
	DB	'CK', 00H					; `string'
CONST	ENDS
;	COMDAT ??_C@_0BD@MNOACOOC@MOTION_DAMAGE_BACK@
CONST	SEGMENT
??_C@_0BD@MNOACOOC@MOTION_DAMAGE_BACK@ DB 'MOTION_DAMAGE_BACK', 00H ; `string'
CONST	ENDS
;	COMDAT ??_C@_0BA@IDCGGFKN@MOTION_STAND_UP@
CONST	SEGMENT
??_C@_0BA@IDCGGFKN@MOTION_STAND_UP@ DB 'MOTION_STAND_UP', 00H ; `string'
CONST	ENDS
;	COMDAT ??_C@_0BF@LNCKFICM@MOTION_DAMAGE_FLYING@
CONST	SEGMENT
??_C@_0BF@LNCKFICM@MOTION_DAMAGE_FLYING@ DB 'MOTION_DAMAGE_FLYING', 00H ; `string'
CONST	ENDS
;	COMDAT ??_C@_0O@CKDFGNMB@MOTION_DAMAGE@
CONST	SEGMENT
??_C@_0O@CKDFGNMB@MOTION_DAMAGE@ DB 'MOTION_DAMAGE', 00H ; `string'
CONST	ENDS
;	COMDAT ??_C@_0BF@ICKHJCNJ@MOTION_CHANGE_WEAPON@
CONST	SEGMENT
??_C@_0BF@ICKHJCNJ@MOTION_CHANGE_WEAPON@ DB 'MOTION_CHANGE_WEAPON', 00H ; `string'
CONST	ENDS
;	COMDAT ??_C@_0L@KHKCPAAF@MOTION_RUN@
CONST	SEGMENT
??_C@_0L@KHKCPAAF@MOTION_RUN@ DB 'MOTION_RUN', 00H	; `string'
CONST	ENDS
;	COMDAT ??_C@_0M@HHFPFLGH@MOTION_WALK@
CONST	SEGMENT
??_C@_0M@HHFPFLGH@MOTION_WALK@ DB 'MOTION_WALK', 00H	; `string'
CONST	ENDS
;	COMDAT ??_C@_0M@LMMOJHBC@MOTION_WAIT@
CONST	SEGMENT
??_C@_0M@LMMOJHBC@MOTION_WAIT@ DB 'MOTION_WAIT', 00H	; `string'
CONST	ENDS
;	COMDAT ??_C@_0N@JMBMLHMG@MOTION_SPAWN@
CONST	SEGMENT
??_C@_0N@JMBMLHMG@MOTION_SPAWN@ DB 'MOTION_SPAWN', 00H	; `string'
CONST	ENDS
;	COMDAT ??_C@_0M@GHHHCAEH@MOTION_NONE@
CONST	SEGMENT
??_C@_0M@GHHHCAEH@MOTION_NONE@ DB 'MOTION_NONE', 00H	; `string'
CONST	ENDS
;	COMDAT ??_C@_0BE@BCBGONIE@PLAYER_NAME_MAX_LEN@
CONST	SEGMENT
??_C@_0BE@BCBGONIE@PLAYER_NAME_MAX_LEN@ DB 'PLAYER_NAME_MAX_LEN', 00H ; `string'
CONST	ENDS
;	COMDAT ??_C@_03KMOFPJOC@chr@
CONST	SEGMENT
??_C@_03KMOFPJOC@chr@ DB 'chr', 00H			; `string'
CONST	ENDS
;	COMDAT ??_C@_0P@OHFCMBLI@testSetRideMan@
CONST	SEGMENT
??_C@_0P@OHFCMBLI@testSetRideMan@ DB 'testSetRideMan', 00H ; `string'
CONST	ENDS
;	COMDAT ??_C@_0BG@PPLDMJLI@testRestoreRenderMode@
CONST	SEGMENT
??_C@_0BG@PPLDMJLI@testRestoreRenderMode@ DB 'testRestoreRenderMode', 00H ; `string'
CONST	ENDS
;	COMDAT ??_C@_0BL@IAFIJOID@testSetSpecularRenderMode2@
CONST	SEGMENT
??_C@_0BL@IAFIJOID@testSetSpecularRenderMode2@ DB 'testSetSpecularRenderM'
	DB	'ode2', 00H					; `string'
CONST	ENDS
;	COMDAT ??_C@_0BK@PFCOBJBF@testSetSpecularRenderMode@
CONST	SEGMENT
??_C@_0BK@PFCOBJBF@testSetSpecularRenderMode@ DB 'testSetSpecularRenderMo'
	DB	'de', 00H					; `string'
CONST	ENDS
;	COMDAT ??_C@_0BN@ICOLIADE@testSetModulateRenderModeRGB@
CONST	SEGMENT
??_C@_0BN@ICOLIADE@testSetModulateRenderModeRGB@ DB 'testSetModulateRende'
	DB	'rModeRGB', 00H				; `string'
CONST	ENDS
;	COMDAT ??_C@_0BI@DCLDMMPM@testSetAddRenderModeRGB@
CONST	SEGMENT
??_C@_0BI@DCLDMMPM@testSetAddRenderModeRGB@ DB 'testSetAddRenderModeRGB', 00H ; `string'
CONST	ENDS
;	COMDAT ??_C@_0BK@MMJPLJAB@testSetModulateRenderMode@
CONST	SEGMENT
??_C@_0BK@MMJPLJAB@testSetModulateRenderMode@ DB 'testSetModulateRenderMo'
	DB	'de', 00H					; `string'
CONST	ENDS
;	COMDAT ??_C@_0BF@KKAOKOCP@testSetAddRenderMode@
CONST	SEGMENT
??_C@_0BF@KKAOKOCP@testSetAddRenderMode@ DB 'testSetAddRenderMode', 00H ; `string'
CONST	ENDS
;	COMDAT ??_C@_0BB@DPBIMGC@testSetComboType@
CONST	SEGMENT
??_C@_0BB@DPBIMGC@testSetComboType@ DB 'testSetComboType', 00H ; `string'
CONST	ENDS
;	COMDAT ??_C@_0BD@DOJIBHBJ@MoveToDestPosition@
CONST	SEGMENT
??_C@_0BD@DOJIBHBJ@MoveToDestPosition@ DB 'MoveToDestPosition', 00H ; `string'
CONST	ENDS
;	COMDAT ??_C@_0BG@PMHANMKI@WeaponTraceUseTexture@
CONST	SEGMENT
??_C@_0BG@PMHANMKI@WeaponTraceUseTexture@ DB 'WeaponTraceUseTexture', 00H ; `string'
CONST	ENDS
;	COMDAT ??_C@_0BE@EGNCJJPB@WeaponTraceUseAlpha@
CONST	SEGMENT
??_C@_0BE@EGNCJJPB@WeaponTraceUseAlpha@ DB 'WeaponTraceUseAlpha', 00H ; `string'
CONST	ENDS
;	COMDAT ??_C@_0BG@IFMOLBHG@WeaponTraceSetTexture@
CONST	SEGMENT
??_C@_0BG@IFMOLBHG@WeaponTraceSetTexture@ DB 'WeaponTraceSetTexture', 00H ; `string'
CONST	ENDS
;	COMDAT ??_C@_0P@HDBEGKGG@SetAttackSpeed@
CONST	SEGMENT
??_C@_0P@HDBEGKGG@SetAttackSpeed@ DB 'SetAttackSpeed', 00H ; `string'
CONST	ENDS
;	COMDAT ??_C@_0N@NBFDNLFE@SetMoveSpeed@
CONST	SEGMENT
??_C@_0N@NBFDNLFE@SetMoveSpeed@ DB 'SetMoveSpeed', 00H	; `string'
CONST	ENDS
;	COMDAT ??_C@_09JMNILCLH@FaintTest@
CONST	SEGMENT
??_C@_09JMNILCLH@FaintTest@ DB 'FaintTest', 00H		; `string'
CONST	ENDS
;	COMDAT ??_C@_0O@NGEBABJL@testGetPKData@
CONST	SEGMENT
??_C@_0O@NGEBABJL@testGetPKData@ DB 'testGetPKData', 00H ; `string'
CONST	ENDS
;	COMDAT ??_C@_09JBFJGAAF@RaceToSex@
CONST	SEGMENT
??_C@_09JBFJGAAF@RaceToSex@ DB 'RaceToSex', 00H		; `string'
CONST	ENDS
;	COMDAT ??_C@_09BPCAHBN@RaceToJob@
CONST	SEGMENT
??_C@_09BPCAHBN@RaceToJob@ DB 'RaceToJob', 00H		; `string'
CONST	ENDS
;	COMDAT ??_C@_0BC@NEGEPOJK@GetBoundBoxOnlyXY@
CONST	SEGMENT
??_C@_0BC@NEGEPOJK@GetBoundBoxOnlyXY@ DB 'GetBoundBoxOnlyXY', 00H ; `string'
CONST	ENDS
;	COMDAT ??_C@_0BA@NKGBNGAG@GetInstanceType@
CONST	SEGMENT
??_C@_0BA@NKGBNGAG@GetInstanceType@ DB 'GetInstanceType', 00H ; `string'
CONST	ENDS
;	COMDAT ??_C@_0BB@GEKGPEHG@GetVirtualNumber@
CONST	SEGMENT
??_C@_0BB@GEKGPEHG@GetVirtualNumber@ DB 'GetVirtualNumber', 00H ; `string'
CONST	ENDS
;	COMDAT ??_C@_0BD@EDCEKIDC@GetProjectPosition@
CONST	SEGMENT
??_C@_0BD@EDCEKIDC@GetProjectPosition@ DB 'GetProjectPosition', 00H ; `string'
CONST	ENDS
;	COMDAT ??_C@_0L@EAKBLDCO@GetGuildID@
CONST	SEGMENT
??_C@_0L@EAKBLDCO@GetGuildID@ DB 'GetGuildID', 00H	; `string'
CONST	ENDS
;	COMDAT ??_C@_0N@CEBOCFNC@GetNameByVID@
CONST	SEGMENT
??_C@_0N@CEBOCFNC@GetNameByVID@ DB 'GetNameByVID', 00H	; `string'
CONST	ENDS
;	COMDAT ??_C@_07MMGEHGCI@GetName@
CONST	SEGMENT
??_C@_07MMGEHGCI@GetName@ DB 'GetName', 00H		; `string'
CONST	ENDS
;	COMDAT ??_C@_07GDOKCBKB@GetRace@
CONST	SEGMENT
??_C@_07GDOKCBKB@GetRace@ DB 'GetRace', 00H		; `string'
CONST	ENDS
;	COMDAT ??_C@_0M@GCJJLPOF@GetRotation@
CONST	SEGMENT
??_C@_0M@GCJJLPOF@GetRotation@ DB 'GetRotation', 00H	; `string'
CONST	ENDS
;	COMDAT ??_C@_0O@MOMBDHP@BlendRotation@
CONST	SEGMENT
??_C@_0O@MOMBDHP@BlendRotation@ DB 'BlendRotation', 00H	; `string'
CONST	ENDS
;	COMDAT ??_C@_0P@CAJEFICF@SetRotationAll@
CONST	SEGMENT
??_C@_0P@CAJEFICF@SetRotationAll@ DB 'SetRotationAll', 00H ; `string'
CONST	ENDS
;	COMDAT ??_C@_0M@GNIHGJGG@SetRotation@
CONST	SEGMENT
??_C@_0M@GNIHGJGG@SetRotation@ DB 'SetRotation', 00H	; `string'
CONST	ENDS
;	COMDAT ??_C@_0BB@JJOEJJPB@GetPixelPosition@
CONST	SEGMENT
??_C@_0BB@JJOEJJPB@GetPixelPosition@ DB 'GetPixelPosition', 00H ; `string'
CONST	ENDS
;	COMDAT ??_C@_0P@BMNKFJAK@PushLoopMotion@
CONST	SEGMENT
??_C@_0P@BMNKFJAK@PushLoopMotion@ DB 'PushLoopMotion', 00H ; `string'
CONST	ENDS
;	COMDAT ??_C@_0P@LIJFJIGO@PushOnceMotion@
CONST	SEGMENT
??_C@_0P@LIJFJIGO@PushOnceMotion@ DB 'PushOnceMotion', 00H ; `string'
CONST	ENDS
;	COMDAT ??_C@_0BA@JHKNHNFN@BlendLoopMotion@
CONST	SEGMENT
??_C@_0BA@JHKNHNFN@BlendLoopMotion@ DB 'BlendLoopMotion', 00H ; `string'
CONST	ENDS
;	COMDAT ??_C@_0O@LMHNCNAM@SetLoopMotion@
CONST	SEGMENT
??_C@_0O@LMHNCNAM@SetLoopMotion@ DB 'SetLoopMotion', 00H ; `string'
CONST	ENDS
;	COMDAT ??_C@_0O@MFBHEMHB@SetMotionMode@
CONST	SEGMENT
??_C@_0O@MFBHEMHB@SetMotionMode@ DB 'SetMotionMode', 00H ; `string'
CONST	ENDS
;	COMDAT ??_C@_06NFNEEJJI@LookAt@
CONST	SEGMENT
??_C@_06NFNEEJJI@LookAt@ DB 'LookAt', 00H		; `string'
CONST	ENDS
;	COMDAT ??_C@_0BD@HHHMIBBD@AttachEffectByName@
CONST	SEGMENT
??_C@_0BD@HHHMIBBD@AttachEffectByName@ DB 'AttachEffectByName', 00H ; `string'
CONST	ENDS
;	COMDAT ??_C@_0BB@NOBBHECI@AttachEffectByID@
CONST	SEGMENT
??_C@_0BB@NOBBHECI@AttachEffectByID@ DB 'AttachEffectByID', 00H ; `string'
CONST	ENDS
;	COMDAT ??_C@_03JFEBIAME@Die@
CONST	SEGMENT
??_C@_03JFEBIAME@Die@ DB 'Die', 00H			; `string'
CONST	ENDS
;	COMDAT ??_C@_06PGKKGABA@Revive@
CONST	SEGMENT
??_C@_06PGKKGABA@Revive@ DB 'Revive', 00H		; `string'
CONST	ENDS
;	COMDAT ??_C@_07POIENIBA@Refresh@
CONST	SEGMENT
??_C@_07POIENIBA@Refresh@ DB 'Refresh', 00H		; `string'
CONST	ENDS
;	COMDAT ??_C@_0N@JGECPEGH@SetDirection@
CONST	SEGMENT
??_C@_0N@JGECPEGH@SetDirection@ DB 'SetDirection', 00H	; `string'
CONST	ENDS
;	COMDAT ??_C@_0BB@PNLNCHED@SetPixelPosition@
CONST	SEGMENT
??_C@_0BB@PNLNCHED@SetPixelPosition@ DB 'SetPixelPosition', 00H ; `string'
CONST	ENDS
;	COMDAT ??_C@_0BA@OIHHKEBP@SetInstanceType@
CONST	SEGMENT
??_C@_0BA@OIHHKEBP@SetInstanceType@ DB 'SetInstanceType', 00H ; `string'
CONST	ENDS
;	COMDAT ??_C@_0O@OBMFICKC@SetNameString@
CONST	SEGMENT
??_C@_0O@OBMFICKC@SetNameString@ DB 'SetNameString', 00H ; `string'
CONST	ENDS
;	COMDAT ??_C@_0N@GNEKMNPE@SetVirtualID@
CONST	SEGMENT
??_C@_0N@GNEKMNPE@SetVirtualID@ DB 'SetVirtualID', 00H	; `string'
CONST	ENDS
;	COMDAT ??_C@_0L@DAKFNGKA@ChangeHair@
CONST	SEGMENT
??_C@_0L@DAKFNGKA@ChangeHair@ DB 'ChangeHair', 00H	; `string'
CONST	ENDS
;	COMDAT ??_C@_07LJFPJABD@SetHair@
CONST	SEGMENT
??_C@_07LJFPJABD@SetHair@ DB 'SetHair', 00H		; `string'
CONST	ENDS
;	COMDAT ??_C@_07JLBLBOHA@SetRace@
CONST	SEGMENT
??_C@_07JLBLBOHA@SetRace@ DB 'SetRace', 00H		; `string'
CONST	ENDS
;	COMDAT ??_C@_0M@GMFNPFHE@ChangeShape@
CONST	SEGMENT
??_C@_0M@GMFNPFHE@ChangeShape@ DB 'ChangeShape', 00H	; `string'
CONST	ENDS
;	COMDAT ??_C@_09LJGLIMMG@SetWeapon@
CONST	SEGMENT
??_C@_09LJGLIMMG@SetWeapon@ DB 'SetWeapon', 00H		; `string'
CONST	ENDS
;	COMDAT ??_C@_08CNNBONE@SetArmor@
CONST	SEGMENT
??_C@_08CNNBONE@SetArmor@ DB 'SetArmor', 00H		; `string'
CONST	ENDS
;	COMDAT ??_C@_07BKHKMIHJ@PickAll@
CONST	SEGMENT
??_C@_07BKHKMIHJ@PickAll@ DB 'PickAll', 00H		; `string'
CONST	ENDS
;	COMDAT ??_C@_04ILHILILF@Pick@
CONST	SEGMENT
??_C@_04ILHILILF@Pick@ DB 'Pick', 00H			; `string'
CONST	ENDS
;	COMDAT ??_C@_04JLAJABDJ@Show@
CONST	SEGMENT
??_C@_04JLAJABDJ@Show@ DB 'Show', 00H			; `string'
CONST	ENDS
;	COMDAT ??_C@_04EACEFPPN@Hide@
CONST	SEGMENT
??_C@_04EACEFPPN@Hide@ DB 'Hide', 00H			; `string'
CONST	ENDS
;	COMDAT ??_C@_08DABDFNEI@Unselect@
CONST	SEGMENT
??_C@_08DABDFNEI@Unselect@ DB 'Unselect', 00H		; `string'
CONST	ENDS
;	COMDAT ??_C@_0BD@GJEGGPMO@SetBlendRenderMode@
CONST	SEGMENT
??_C@_0BD@GJEGGPMO@SetBlendRenderMode@ DB 'SetBlendRenderMode', 00H ; `string'
CONST	ENDS
;	COMDAT ??_C@_0BB@FAHKALE@SetAddRenderMode@
CONST	SEGMENT
??_C@_0BB@FAHKALE@SetAddRenderMode@ DB 'SetAddRenderMode', 00H ; `string'
CONST	ENDS
;	COMDAT ??_C@_06HJGPBJLE@Select@
CONST	SEGMENT
??_C@_06HJGPBJLE@Select@ DB 'Select', 00H		; `string'
CONST	ENDS
;	COMDAT ??_C@_0O@FJCFNEGL@IsPartyMember@
CONST	SEGMENT
??_C@_0O@FJCFNEGL@IsPartyMember@ DB 'IsPartyMember', 00H ; `string'
CONST	ENDS
;	COMDAT ??_C@_0N@ICHIKNBJ@IsGameMaster@
CONST	SEGMENT
??_C@_0N@ICHIKNBJ@IsGameMaster@ DB 'IsGameMaster', 00H	; `string'
CONST	ENDS
;	COMDAT ??_C@_05BEDLICJP@IsNPC@
CONST	SEGMENT
??_C@_05BEDLICJP@IsNPC@ DB 'IsNPC', 00H			; `string'
CONST	ENDS
;	COMDAT ??_C@_07LKBCPMOI@IsEnemy@
CONST	SEGMENT
??_C@_07LKBCPMOI@IsEnemy@ DB 'IsEnemy', 00H		; `string'
CONST	ENDS
;	COMDAT ??_C@_0M@OJLCDJBP@HasInstance@
CONST	SEGMENT
??_C@_0M@OJLCDJBP@HasInstance@ DB 'HasInstance', 00H	; `string'
CONST	ENDS
;	COMDAT ??_C@_0P@HKEJIIJD@SelectInstance@
CONST	SEGMENT
??_C@_0P@HKEJIIJD@SelectInstance@ DB 'SelectInstance', 00H ; `string'
CONST	ENDS
;	COMDAT ??_C@_0BF@EFFECMK@DeleteInstanceByFade@
CONST	SEGMENT
??_C@_0BF@EFFECMK@DeleteInstanceByFade@ DB 'DeleteInstanceByFade', 00H ; `string'
CONST	ENDS
;	COMDAT ??_C@_0P@OKILCDFI@DeleteInstance@
CONST	SEGMENT
??_C@_0P@OKILCDFI@DeleteInstance@ DB 'DeleteInstance', 00H ; `string'
CONST	ENDS
;	COMDAT ??_C@_0P@PGGGILHJ@CreateInstance@
CONST	SEGMENT
??_C@_0P@PGGGILHJ@CreateInstance@ DB 'CreateInstance', 00H ; `string'
CONST	ENDS
;	COMDAT ??_C@_0BA@OAOAOPAN@RenderCollision@
CONST	SEGMENT
??_C@_0BA@OAOAOPAN@RenderCollision@ DB 'RenderCollision', 00H ; `string'
CONST	ENDS
;	COMDAT ??_C@_06EPLDPNDB@Render@
CONST	SEGMENT
??_C@_06EPLDPNDB@Render@ DB 'Render', 00H		; `string'
CONST	ENDS
;	COMDAT ??_C@_06HIPPCDGO@Deform@
CONST	SEGMENT
??_C@_06HIPPCDGO@Deform@ DB 'Deform', 00H		; `string'
CONST	ENDS
;	COMDAT ??_C@_06LMAGPFNF@Update@
CONST	SEGMENT
??_C@_06LMAGPFNF@Update@ DB 'Update', 00H		; `string'
CONST	ENDS
;	COMDAT ??_C@_07BDCAJABG@Destroy@
CONST	SEGMENT
??_C@_07BDCAJABG@Destroy@ DB 'Destroy', 00H		; `string'
CONST	ENDS
;	COMDAT ??_C@_0L@LJFIMMEM@MountHorse@
CONST	SEGMENT
??_C@_0L@LJFIMMEM@MountHorse@ DB 'MountHorse', 00H	; `string'
CONST	ENDS
;	COMDAT ??_C@_0O@HFPHAOI@DismountHorse@
CONST	SEGMENT
??_C@_0O@HFPHAOI@DismountHorse@ DB 'DismountHorse', 00H	; `string'
CONST	ENDS
;	COMDAT ?s_methods@?1??initchr@@YAXXZ@4PAUPyMethodDef@@A
_DATA	SEGMENT
?s_methods@?1??initchr@@YAXXZ@4PAUPyMethodDef@@A DD FLAT:??_C@_0O@HFPHAOI@DismountHorse@ ; `initchr'::`2'::s_methods
	DD	FLAT:?chrDismountHorse@@YAPAU_object@@PAU1@0@Z
	DD	01H
	ORG $+4
	DD	FLAT:??_C@_0L@LJFIMMEM@MountHorse@
	DD	FLAT:?chrMountHorse@@YAPAU_object@@PAU1@0@Z
	DD	01H
	ORG $+4
	DD	FLAT:??_C@_07BDCAJABG@Destroy@
	DD	FLAT:?chrDestroy@@YAPAU_object@@PAU1@0@Z
	DD	01H
	ORG $+4
	DD	FLAT:??_C@_06LMAGPFNF@Update@
	DD	FLAT:?chrUpdate@@YAPAU_object@@PAU1@0@Z
	DD	01H
	ORG $+4
	DD	FLAT:??_C@_06HIPPCDGO@Deform@
	DD	FLAT:?chrDeform@@YAPAU_object@@PAU1@0@Z
	DD	01H
	ORG $+4
	DD	FLAT:??_C@_06EPLDPNDB@Render@
	DD	FLAT:?chrRender@@YAPAU_object@@PAU1@0@Z
	DD	01H
	ORG $+4
	DD	FLAT:??_C@_0BA@OAOAOPAN@RenderCollision@
	DD	FLAT:?chrRenderCollision@@YAPAU_object@@PAU1@0@Z
	DD	01H
	ORG $+4
	DD	FLAT:??_C@_0P@PGGGILHJ@CreateInstance@
	DD	FLAT:?chrCreateInstance@@YAPAU_object@@PAU1@0@Z
	DD	01H
	ORG $+4
	DD	FLAT:??_C@_0P@OKILCDFI@DeleteInstance@
	DD	FLAT:?chrDeleteInstance@@YAPAU_object@@PAU1@0@Z
	DD	01H
	ORG $+4
	DD	FLAT:??_C@_0BF@EFFECMK@DeleteInstanceByFade@
	DD	FLAT:?chrDeleteInstanceByFade@@YAPAU_object@@PAU1@0@Z
	DD	01H
	ORG $+4
	DD	FLAT:??_C@_0P@HKEJIIJD@SelectInstance@
	DD	FLAT:?chrSelectInstance@@YAPAU_object@@PAU1@0@Z
	DD	01H
	ORG $+4
	DD	FLAT:??_C@_0M@OJLCDJBP@HasInstance@
	DD	FLAT:?chrHasInstance@@YAPAU_object@@PAU1@0@Z
	DD	01H
	ORG $+4
	DD	FLAT:??_C@_07LKBCPMOI@IsEnemy@
	DD	FLAT:?chrIsEnemy@@YAPAU_object@@PAU1@0@Z
	DD	01H
	ORG $+4
	DD	FLAT:??_C@_05BEDLICJP@IsNPC@
	DD	FLAT:?chrIsNPC@@YAPAU_object@@PAU1@0@Z
	DD	01H
	ORG $+4
	DD	FLAT:??_C@_0N@ICHIKNBJ@IsGameMaster@
	DD	FLAT:?chrIsGameMaster@@YAPAU_object@@PAU1@0@Z
	DD	01H
	ORG $+4
	DD	FLAT:??_C@_0O@FJCFNEGL@IsPartyMember@
	DD	FLAT:?chrIsPartyMember@@YAPAU_object@@PAU1@0@Z
	DD	01H
	ORG $+4
	DD	FLAT:??_C@_06HJGPBJLE@Select@
	DD	FLAT:?chrSelect@@YAPAU_object@@PAU1@0@Z
	DD	01H
	ORG $+4
	DD	FLAT:??_C@_0BB@FAHKALE@SetAddRenderMode@
	DD	FLAT:?chrSetAddRenderMode@@YAPAU_object@@PAU1@0@Z
	DD	01H
	ORG $+4
	DD	FLAT:??_C@_0BD@GJEGGPMO@SetBlendRenderMode@
	DD	FLAT:?chrSetBlendRenderMode@@YAPAU_object@@PAU1@0@Z
	DD	01H
	ORG $+4
	DD	FLAT:??_C@_08DABDFNEI@Unselect@
	DD	FLAT:?chrUnselect@@YAPAU_object@@PAU1@0@Z
	DD	01H
	ORG $+4
	DD	FLAT:??_C@_04EACEFPPN@Hide@
	DD	FLAT:?chrHide@@YAPAU_object@@PAU1@0@Z
	DD	01H
	ORG $+4
	DD	FLAT:??_C@_04JLAJABDJ@Show@
	DD	FLAT:?chrShow@@YAPAU_object@@PAU1@0@Z
	DD	01H
	ORG $+4
	DD	FLAT:??_C@_04ILHILILF@Pick@
	DD	FLAT:?chrPick@@YAPAU_object@@PAU1@0@Z
	DD	01H
	ORG $+4
	DD	FLAT:??_C@_07BKHKMIHJ@PickAll@
	DD	FLAT:?chrPickAll@@YAPAU_object@@PAU1@0@Z
	DD	01H
	ORG $+4
	DD	FLAT:??_C@_08CNNBONE@SetArmor@
	DD	FLAT:?chrSetArmor@@YAPAU_object@@PAU1@0@Z
	DD	01H
	ORG $+4
	DD	FLAT:??_C@_09LJGLIMMG@SetWeapon@
	DD	FLAT:?chrSetWeapon@@YAPAU_object@@PAU1@0@Z
	DD	01H
	ORG $+4
	DD	FLAT:??_C@_0M@GMFNPFHE@ChangeShape@
	DD	FLAT:?chrChangeShape@@YAPAU_object@@PAU1@0@Z
	DD	01H
	ORG $+4
	DD	FLAT:??_C@_07JLBLBOHA@SetRace@
	DD	FLAT:?chrSetRace@@YAPAU_object@@PAU1@0@Z
	DD	01H
	ORG $+4
	DD	FLAT:??_C@_07LJFPJABD@SetHair@
	DD	FLAT:?chrSetHair@@YAPAU_object@@PAU1@0@Z
	DD	01H
	ORG $+4
	DD	FLAT:??_C@_0L@DAKFNGKA@ChangeHair@
	DD	FLAT:?chrChangeHair@@YAPAU_object@@PAU1@0@Z
	DD	01H
	ORG $+4
	DD	FLAT:??_C@_0N@GNEKMNPE@SetVirtualID@
	DD	FLAT:?chrSetVirtualID@@YAPAU_object@@PAU1@0@Z
	DD	01H
	ORG $+4
	DD	FLAT:??_C@_0O@OBMFICKC@SetNameString@
	DD	FLAT:?chrSetNameString@@YAPAU_object@@PAU1@0@Z
	DD	01H
	ORG $+4
	DD	FLAT:??_C@_0BA@OIHHKEBP@SetInstanceType@
	DD	FLAT:?chrSetInstanceType@@YAPAU_object@@PAU1@0@Z
	DD	01H
	ORG $+4
	DD	FLAT:??_C@_0BB@PNLNCHED@SetPixelPosition@
	DD	FLAT:?chrSetPixelPosition@@YAPAU_object@@PAU1@0@Z
	DD	01H
	ORG $+4
	DD	FLAT:??_C@_0N@JGECPEGH@SetDirection@
	DD	FLAT:?chrSetDirection@@YAPAU_object@@PAU1@0@Z
	DD	01H
	ORG $+4
	DD	FLAT:??_C@_07POIENIBA@Refresh@
	DD	FLAT:?chrRefresh@@YAPAU_object@@PAU1@0@Z
	DD	01H
	ORG $+4
	DD	FLAT:??_C@_06PGKKGABA@Revive@
	DD	FLAT:?chrRevive@@YAPAU_object@@PAU1@0@Z
	DD	01H
	ORG $+4
	DD	FLAT:??_C@_03JFEBIAME@Die@
	DD	FLAT:?chrDie@@YAPAU_object@@PAU1@0@Z
	DD	01H
	ORG $+4
	DD	FLAT:??_C@_0BB@NOBBHECI@AttachEffectByID@
	DD	FLAT:?chrAttachEffectByID@@YAPAU_object@@PAU1@0@Z
	DD	01H
	ORG $+4
	DD	FLAT:??_C@_0BD@HHHMIBBD@AttachEffectByName@
	DD	FLAT:?chrAttachEffectByName@@YAPAU_object@@PAU1@0@Z
	DD	01H
	ORG $+4
	DD	FLAT:??_C@_06NFNEEJJI@LookAt@
	DD	FLAT:?chrLookAt@@YAPAU_object@@PAU1@0@Z
	DD	01H
	ORG $+4
	DD	FLAT:??_C@_0O@MFBHEMHB@SetMotionMode@
	DD	FLAT:?chrSetMotionMode@@YAPAU_object@@PAU1@0@Z
	DD	01H
	ORG $+4
	DD	FLAT:??_C@_0O@LMHNCNAM@SetLoopMotion@
	DD	FLAT:?chrSetLoopMotion@@YAPAU_object@@PAU1@0@Z
	DD	01H
	ORG $+4
	DD	FLAT:??_C@_0BA@JHKNHNFN@BlendLoopMotion@
	DD	FLAT:?chrBlendLoopMotion@@YAPAU_object@@PAU1@0@Z
	DD	01H
	ORG $+4
	DD	FLAT:??_C@_0P@LIJFJIGO@PushOnceMotion@
	DD	FLAT:?chrPushOnceMotion@@YAPAU_object@@PAU1@0@Z
	DD	01H
	ORG $+4
	DD	FLAT:??_C@_0P@BMNKFJAK@PushLoopMotion@
	DD	FLAT:?chrPushLoopMotion@@YAPAU_object@@PAU1@0@Z
	DD	01H
	ORG $+4
	DD	FLAT:??_C@_0BB@JJOEJJPB@GetPixelPosition@
	DD	FLAT:?chrGetPixelPosition@@YAPAU_object@@PAU1@0@Z
	DD	01H
	ORG $+4
	DD	FLAT:??_C@_0M@GNIHGJGG@SetRotation@
	DD	FLAT:?chrSetRotation@@YAPAU_object@@PAU1@0@Z
	DD	01H
	ORG $+4
	DD	FLAT:??_C@_0P@CAJEFICF@SetRotationAll@
	DD	FLAT:?chrSetRotationAll@@YAPAU_object@@PAU1@0@Z
	DD	01H
	ORG $+4
	DD	FLAT:??_C@_0O@MOMBDHP@BlendRotation@
	DD	FLAT:?chrBlendRotation@@YAPAU_object@@PAU1@0@Z
	DD	01H
	ORG $+4
	DD	FLAT:??_C@_0M@GCJJLPOF@GetRotation@
	DD	FLAT:?chrGetRotation@@YAPAU_object@@PAU1@0@Z
	DD	01H
	ORG $+4
	DD	FLAT:??_C@_07GDOKCBKB@GetRace@
	DD	FLAT:?chrGetRace@@YAPAU_object@@PAU1@0@Z
	DD	01H
	ORG $+4
	DD	FLAT:??_C@_07MMGEHGCI@GetName@
	DD	FLAT:?chrGetName@@YAPAU_object@@PAU1@0@Z
	DD	01H
	ORG $+4
	DD	FLAT:??_C@_0N@CEBOCFNC@GetNameByVID@
	DD	FLAT:?chrGetNameByVID@@YAPAU_object@@PAU1@0@Z
	DD	01H
	ORG $+4
	DD	FLAT:??_C@_0L@EAKBLDCO@GetGuildID@
	DD	FLAT:?chrGetGuildID@@YAPAU_object@@PAU1@0@Z
	DD	01H
	ORG $+4
	DD	FLAT:??_C@_0BD@EDCEKIDC@GetProjectPosition@
	DD	FLAT:?chrGetProjectPosition@@YAPAU_object@@PAU1@0@Z
	DD	01H
	ORG $+4
	DD	FLAT:??_C@_0BB@GEKGPEHG@GetVirtualNumber@
	DD	FLAT:?chrGetVirtualNumber@@YAPAU_object@@PAU1@0@Z
	DD	01H
	ORG $+4
	DD	FLAT:??_C@_0BA@NKGBNGAG@GetInstanceType@
	DD	FLAT:?chrGetInstanceType@@YAPAU_object@@PAU1@0@Z
	DD	01H
	ORG $+4
	DD	FLAT:??_C@_0BC@NEGEPOJK@GetBoundBoxOnlyXY@
	DD	FLAT:?chrGetBoundBoxOnlyXY@@YAPAU_object@@PAU1@0@Z
	DD	01H
	ORG $+4
	DD	FLAT:??_C@_09BPCAHBN@RaceToJob@
	DD	FLAT:?chrRaceToJob@@YAPAU_object@@PAU1@0@Z
	DD	01H
	ORG $+4
	DD	FLAT:??_C@_09JBFJGAAF@RaceToSex@
	DD	FLAT:?chrRaceToSex@@YAPAU_object@@PAU1@0@Z
	DD	01H
	ORG $+4
	DD	FLAT:??_C@_0O@NGEBABJL@testGetPKData@
	DD	FLAT:?chrtestGetPKData@@YAPAU_object@@PAU1@0@Z
	DD	01H
	ORG $+4
	DD	FLAT:??_C@_09JMNILCLH@FaintTest@
	DD	FLAT:?chrFaintTest@@YAPAU_object@@PAU1@0@Z
	DD	01H
	ORG $+4
	DD	FLAT:??_C@_0N@NBFDNLFE@SetMoveSpeed@
	DD	FLAT:?chrSetMoveSpeed@@YAPAU_object@@PAU1@0@Z
	DD	01H
	ORG $+4
	DD	FLAT:??_C@_0P@HDBEGKGG@SetAttackSpeed@
	DD	FLAT:?chrSetAttackSpeed@@YAPAU_object@@PAU1@0@Z
	DD	01H
	ORG $+4
	DD	FLAT:??_C@_0BG@IFMOLBHG@WeaponTraceSetTexture@
	DD	FLAT:?chrWeaponTraceSetTexture@@YAPAU_object@@PAU1@0@Z
	DD	01H
	ORG $+4
	DD	FLAT:??_C@_0BE@EGNCJJPB@WeaponTraceUseAlpha@
	DD	FLAT:?chrWeaponTraceUseAlpha@@YAPAU_object@@PAU1@0@Z
	DD	01H
	ORG $+4
	DD	FLAT:??_C@_0BG@PMHANMKI@WeaponTraceUseTexture@
	DD	FLAT:?chrWeaponTraceUseTexture@@YAPAU_object@@PAU1@0@Z
	DD	01H
	ORG $+4
	DD	FLAT:??_C@_0BD@DOJIBHBJ@MoveToDestPosition@
	DD	FLAT:?chrMoveToDestPosition@@YAPAU_object@@PAU1@0@Z
	DD	01H
	ORG $+4
	DD	FLAT:??_C@_0BB@DPBIMGC@testSetComboType@
	DD	FLAT:?chrtestSetComboType@@YAPAU_object@@PAU1@0@Z
	DD	01H
	ORG $+4
	DD	FLAT:??_C@_0BF@KKAOKOCP@testSetAddRenderMode@
	DD	FLAT:?chrtestSetAddRenderMode@@YAPAU_object@@PAU1@0@Z
	DD	01H
	ORG $+4
	DD	FLAT:??_C@_0BK@MMJPLJAB@testSetModulateRenderMode@
	DD	FLAT:?chrtestSetModulateRenderMode@@YAPAU_object@@PAU1@0@Z
	DD	01H
	ORG $+4
	DD	FLAT:??_C@_0BI@DCLDMMPM@testSetAddRenderModeRGB@
	DD	FLAT:?chrtestSetAddRenderModeRGB@@YAPAU_object@@PAU1@0@Z
	DD	01H
	ORG $+4
	DD	FLAT:??_C@_0BN@ICOLIADE@testSetModulateRenderModeRGB@
	DD	FLAT:?chrtestSetModulateRenderModeRGB@@YAPAU_object@@PAU1@0@Z
	DD	01H
	ORG $+4
	DD	FLAT:??_C@_0BK@PFCOBJBF@testSetSpecularRenderMode@
	DD	FLAT:?chrtestSetSpecularRenderMode@@YAPAU_object@@PAU1@0@Z
	DD	01H
	ORG $+4
	DD	FLAT:??_C@_0BL@IAFIJOID@testSetSpecularRenderMode2@
	DD	FLAT:?chrtestSetSpecularRenderMode2@@YAPAU_object@@PAU1@0@Z
	DD	01H
	ORG $+4
	DD	FLAT:??_C@_0BG@PPLDMJLI@testRestoreRenderMode@
	DD	FLAT:?chrtestRestoreRenderMode@@YAPAU_object@@PAU1@0@Z
	DD	01H
	ORG $+4
	DD	FLAT:??_C@_0P@OHFCMBLI@testSetRideMan@
	DD	FLAT:?chrtestSetRideMan@@YAPAU_object@@PAU1@0@Z
	DD	01H
	ORG $+4
	DD	00H
	DD	00H
	DD	00H
	ORG $+4
_DATA	ENDS
;	COMDAT ??_C@_04EOBPFJGD@ffff@
CONST	SEGMENT
??_C@_04EOBPFJGD@ffff@ DB 'ffff', 00H			; `string'
CONST	ENDS
;	COMDAT ??_C@_02PDIHAGKM@ii@
CONST	SEGMENT
??_C@_02PDIHAGKM@ii@ DB 'ii', 00H			; `string'
CONST	ENDS
;	COMDAT ??_C@_04OHJIHAFH@None@
CONST	SEGMENT
??_C@_04OHJIHAFH@None@ DB 'None', 00H			; `string'
CONST	ENDS
;	COMDAT ??_C@_01LKDEMHDF@s@
CONST	SEGMENT
??_C@_01LKDEMHDF@s@ DB 's', 00H				; `string'
CONST	ENDS
;	COMDAT ??_C@_01INIBCBCB@f@
CONST	SEGMENT
??_C@_01INIBCBCB@f@ DB 'f', 00H				; `string'
CONST	ENDS
;	COMDAT ??_C@_03LPALPDIP@fff@
CONST	SEGMENT
??_C@_03LPALPDIP@fff@ DB 'fff', 00H			; `string'
CONST	ENDS
;	COMDAT ??_C@_01EANLCPLP@y@
CONST	SEGMENT
??_C@_01EANLCPLP@y@ DB 'y', 00H				; `string'
CONST	ENDS
;	COMDAT ??_C@_01FJMABOPO@x@
CONST	SEGMENT
??_C@_01FJMABOPO@x@ DB 'x', 00H				; `string'
CONST	ENDS
;	COMDAT ??_C@_05DOPDBCAL@horse@
CONST	SEGMENT
??_C@_05DOPDBCAL@horse@ DB 'horse', 00H			; `string'
CONST	ENDS
;	COMDAT ??_C@_06LJIOOKLP@NONAME@
CONST	SEGMENT
??_C@_06LJIOOKLP@NONAME@ DB 'NONAME', 00H		; `string'
CONST	ENDS
;	COMDAT ??_C@_01KBJDNOO@i@
CONST	SEGMENT
??_C@_01KBJDNOO@i@ DB 'i', 00H				; `string'
CONST	ENDS
;	COMDAT ?ms_kPool@?$CPooledObject@VCRotationDecorator@NEffectUpdateDecorator@@@@1V?$CDynamicPoolEx@VCRotationDecorator@NEffectUpdateDecorator@@@@A
_DATA	SEGMENT
?ms_kPool@?$CPooledObject@VCRotationDecorator@NEffectUpdateDecorator@@@@1V?$CDynamicPoolEx@VCRotationDecorator@NEffectUpdateDecorator@@@@A DD FLAT:??_7?$CDynamicPoolEx@VCRotationDecorator@NEffectUpdateDecorator@@@@6B@ ; CPooledObject<NEffectUpdateDecorator::CRotationDecorator>::ms_kPool
	DD	00H
	DD	00H
	DD	00H
	DD	00H
	DD	00H
	DD	00H
	DD	00H
	DD	00H
_DATA	ENDS
;	COMDAT ?ms_kPool@?$CPooledObject@VCGravityDecorator@NEffectUpdateDecorator@@@@1V?$CDynamicPoolEx@VCGravityDecorator@NEffectUpdateDecorator@@@@A
_DATA	SEGMENT
?ms_kPool@?$CPooledObject@VCGravityDecorator@NEffectUpdateDecorator@@@@1V?$CDynamicPoolEx@VCGravityDecorator@NEffectUpdateDecorator@@@@A DD FLAT:??_7?$CDynamicPoolEx@VCGravityDecorator@NEffectUpdateDecorator@@@@6B@ ; CPooledObject<NEffectUpdateDecorator::CGravityDecorator>::ms_kPool
	DD	00H
	DD	00H
	DD	00H
	DD	00H
	DD	00H
	DD	00H
	DD	00H
	DD	00H
_DATA	ENDS
;	COMDAT ?ms_kPool@?$CPooledObject@VCAirResistanceDecorator@NEffectUpdateDecorator@@@@1V?$CDynamicPoolEx@VCAirResistanceDecorator@NEffectUpdateDecorator@@@@A
_DATA	SEGMENT
?ms_kPool@?$CPooledObject@VCAirResistanceDecorator@NEffectUpdateDecorator@@@@1V?$CDynamicPoolEx@VCAirResistanceDecorator@NEffectUpdateDecorator@@@@A DD FLAT:??_7?$CDynamicPoolEx@VCAirResistanceDecorator@NEffectUpdateDecorator@@@@6B@ ; CPooledObject<NEffectUpdateDecorator::CAirResistanceDecorator>::ms_kPool
	DD	00H
	DD	00H
	DD	00H
	DD	00H
	DD	00H
	DD	00H
	DD	00H
	DD	00H
_DATA	ENDS
;	COMDAT ?ms_kPool@?$CPooledObject@VCTextureAnimationRandomDecorator@NEffectUpdateDecorator@@@@1V?$CDynamicPoolEx@VCTextureAnimationRandomDecorator@NEffectUpdateDecorator@@@@A
_DATA	SEGMENT
?ms_kPool@?$CPooledObject@VCTextureAnimationRandomDecorator@NEffectUpdateDecorator@@@@1V?$CDynamicPoolEx@VCTextureAnimationRandomDecorator@NEffectUpdateDecorator@@@@A DD FLAT:??_7?$CDynamicPoolEx@VCTextureAnimationRandomDecorator@NEffectUpdateDecorator@@@@6B@ ; CPooledObject<NEffectUpdateDecorator::CTextureAnimationRandomDecorator>::ms_kPool
	DD	00H
	DD	00H
	DD	00H
	DD	00H
	DD	00H
	DD	00H
	DD	00H
	DD	00H
_DATA	ENDS
;	COMDAT ?ms_kPool@?$CPooledObject@VCTextureAnimationCCWDecorator@NEffectUpdateDecorator@@@@1V?$CDynamicPoolEx@VCTextureAnimationCCWDecorator@NEffectUpdateDecorator@@@@A
_DATA	SEGMENT
?ms_kPool@?$CPooledObject@VCTextureAnimationCCWDecorator@NEffectUpdateDecorator@@@@1V?$CDynamicPoolEx@VCTextureAnimationCCWDecorator@NEffectUpdateDecorator@@@@A DD FLAT:??_7?$CDynamicPoolEx@VCTextureAnimationCCWDecorator@NEffectUpdateDecorator@@@@6B@ ; CPooledObject<NEffectUpdateDecorator::CTextureAnimationCCWDecorator>::ms_kPool
	DD	00H
	DD	00H
	DD	00H
	DD	00H
	DD	00H
	DD	00H
	DD	00H
	DD	00H
_DATA	ENDS
;	COMDAT ?ms_kPool@?$CPooledObject@VCTextureAnimationCWDecorator@NEffectUpdateDecorator@@@@1V?$CDynamicPoolEx@VCTextureAnimationCWDecorator@NEffectUpdateDecorator@@@@A
_DATA	SEGMENT
?ms_kPool@?$CPooledObject@VCTextureAnimationCWDecorator@NEffectUpdateDecorator@@@@1V?$CDynamicPoolEx@VCTextureAnimationCWDecorator@NEffectUpdateDecorator@@@@A DD FLAT:??_7?$CDynamicPoolEx@VCTextureAnimationCWDecorator@NEffectUpdateDecorator@@@@6B@ ; CPooledObject<NEffectUpdateDecorator::CTextureAnimationCWDecorator>::ms_kPool
	DD	00H
	DD	00H
	DD	00H
	DD	00H
	DD	00H
	DD	00H
	DD	00H
	DD	00H
_DATA	ENDS
;	COMDAT ?ms_kPool@?$CPooledObject@VCNullDecorator@NEffectUpdateDecorator@@@@1V?$CDynamicPoolEx@VCNullDecorator@NEffectUpdateDecorator@@@@A
_DATA	SEGMENT
?ms_kPool@?$CPooledObject@VCNullDecorator@NEffectUpdateDecorator@@@@1V?$CDynamicPoolEx@VCNullDecorator@NEffectUpdateDecorator@@@@A DD FLAT:??_7?$CDynamicPoolEx@VCNullDecorator@NEffectUpdateDecorator@@@@6B@ ; CPooledObject<NEffectUpdateDecorator::CNullDecorator>::ms_kPool
	DD	00H
	DD	00H
	DD	00H
	DD	00H
	DD	00H
	DD	00H
	DD	00H
	DD	00H
_DATA	ENDS
;	COMDAT ?ms_kPool@?$CPooledObject@VCHeaderDecorator@NEffectUpdateDecorator@@@@1V?$CDynamicPoolEx@VCHeaderDecorator@NEffectUpdateDecorator@@@@A
_DATA	SEGMENT
?ms_kPool@?$CPooledObject@VCHeaderDecorator@NEffectUpdateDecorator@@@@1V?$CDynamicPoolEx@VCHeaderDecorator@NEffectUpdateDecorator@@@@A DD FLAT:??_7?$CDynamicPoolEx@VCHeaderDecorator@NEffectUpdateDecorator@@@@6B@ ; CPooledObject<NEffectUpdateDecorator::CHeaderDecorator>::ms_kPool
	DD	00H
	DD	00H
	DD	00H
	DD	00H
	DD	00H
	DD	00H
	DD	00H
	DD	00H
_DATA	ENDS
;	COMDAT ??_R1A@?0A@EA@bad_array_new_length@std@@8
rdata$r	SEGMENT
??_R1A@?0A@EA@bad_array_new_length@std@@8 DD FLAT:??_R0?AVbad_array_new_length@std@@@8 ; std::bad_array_new_length::`RTTI Base Class Descriptor at (0,-1,0,64)'
	DD	02H
	DD	00H
	DD	0ffffffffH
	DD	00H
	DD	040H
	DD	FLAT:??_R3bad_array_new_length@std@@8
rdata$r	ENDS
;	COMDAT ??_R2bad_array_new_length@std@@8
rdata$r	SEGMENT
??_R2bad_array_new_length@std@@8 DD FLAT:??_R1A@?0A@EA@bad_array_new_length@std@@8 ; std::bad_array_new_length::`RTTI Base Class Array'
	DD	FLAT:??_R1A@?0A@EA@bad_alloc@std@@8
	DD	FLAT:??_R1A@?0A@EA@exception@std@@8
rdata$r	ENDS
;	COMDAT ??_R3bad_array_new_length@std@@8
rdata$r	SEGMENT
??_R3bad_array_new_length@std@@8 DD 00H			; std::bad_array_new_length::`RTTI Class Hierarchy Descriptor'
	DD	00H
	DD	03H
	DD	FLAT:??_R2bad_array_new_length@std@@8
rdata$r	ENDS
;	COMDAT ??_R4bad_array_new_length@std@@6B@
rdata$r	SEGMENT
??_R4bad_array_new_length@std@@6B@ DD 00H		; std::bad_array_new_length::`RTTI Complete Object Locator'
	DD	00H
	DD	00H
	DD	FLAT:??_R0?AVbad_array_new_length@std@@@8
	DD	FLAT:??_R3bad_array_new_length@std@@8
rdata$r	ENDS
;	COMDAT ??_R1A@?0A@EA@bad_alloc@std@@8
rdata$r	SEGMENT
??_R1A@?0A@EA@bad_alloc@std@@8 DD FLAT:??_R0?AVbad_alloc@std@@@8 ; std::bad_alloc::`RTTI Base Class Descriptor at (0,-1,0,64)'
	DD	01H
	DD	00H
	DD	0ffffffffH
	DD	00H
	DD	040H
	DD	FLAT:??_R3bad_alloc@std@@8
rdata$r	ENDS
;	COMDAT ??_R2bad_alloc@std@@8
rdata$r	SEGMENT
??_R2bad_alloc@std@@8 DD FLAT:??_R1A@?0A@EA@bad_alloc@std@@8 ; std::bad_alloc::`RTTI Base Class Array'
	DD	FLAT:??_R1A@?0A@EA@exception@std@@8
rdata$r	ENDS
;	COMDAT ??_R3bad_alloc@std@@8
rdata$r	SEGMENT
??_R3bad_alloc@std@@8 DD 00H				; std::bad_alloc::`RTTI Class Hierarchy Descriptor'
	DD	00H
	DD	02H
	DD	FLAT:??_R2bad_alloc@std@@8
rdata$r	ENDS
;	COMDAT ??_R4bad_alloc@std@@6B@
rdata$r	SEGMENT
??_R4bad_alloc@std@@6B@ DD 00H				; std::bad_alloc::`RTTI Complete Object Locator'
	DD	00H
	DD	00H
	DD	FLAT:??_R0?AVbad_alloc@std@@@8
	DD	FLAT:??_R3bad_alloc@std@@8
rdata$r	ENDS
;	COMDAT ??_R1A@?0A@EA@exception@std@@8
rdata$r	SEGMENT
??_R1A@?0A@EA@exception@std@@8 DD FLAT:??_R0?AVexception@std@@@8 ; std::exception::`RTTI Base Class Descriptor at (0,-1,0,64)'
	DD	00H
	DD	00H
	DD	0ffffffffH
	DD	00H
	DD	040H
	DD	FLAT:??_R3exception@std@@8
rdata$r	ENDS
;	COMDAT ??_R2exception@std@@8
rdata$r	SEGMENT
??_R2exception@std@@8 DD FLAT:??_R1A@?0A@EA@exception@std@@8 ; std::exception::`RTTI Base Class Array'
rdata$r	ENDS
;	COMDAT ??_R3exception@std@@8
rdata$r	SEGMENT
??_R3exception@std@@8 DD 00H				; std::exception::`RTTI Class Hierarchy Descriptor'
	DD	00H
	DD	01H
	DD	FLAT:??_R2exception@std@@8
rdata$r	ENDS
;	COMDAT ??_R4exception@std@@6B@
rdata$r	SEGMENT
??_R4exception@std@@6B@ DD 00H				; std::exception::`RTTI Complete Object Locator'
	DD	00H
	DD	00H
	DD	FLAT:??_R0?AVexception@std@@@8
	DD	FLAT:??_R3exception@std@@8
rdata$r	ENDS
;	COMDAT ??_C@_0BA@JFNIOLAK@string?5too?5long@
CONST	SEGMENT
??_C@_0BA@JFNIOLAK@string?5too?5long@ DB 'string too long', 00H ; `string'
CONST	ENDS
;	COMDAT __CT??_R0?AVexception@std@@@8??0exception@std@@QAE@ABV01@@Z12
xdata$x	SEGMENT
__CT??_R0?AVexception@std@@@8??0exception@std@@QAE@ABV01@@Z12 DD 00H
	DD	FLAT:??_R0?AVexception@std@@@8
	DD	00H
	DD	0ffffffffH
	ORG $+4
	DD	0cH
	DD	FLAT:??0exception@std@@QAE@ABV01@@Z
xdata$x	ENDS
;	COMDAT ??_R0?AVexception@std@@@8
data$r	SEGMENT
??_R0?AVexception@std@@@8 DD FLAT:??_7type_info@@6B@	; std::exception `RTTI Type Descriptor'
	DD	00H
	DB	'.?AVexception@std@@', 00H
data$r	ENDS
;	COMDAT __CT??_R0?AVbad_alloc@std@@@8??0bad_alloc@std@@QAE@ABV01@@Z12
xdata$x	SEGMENT
__CT??_R0?AVbad_alloc@std@@@8??0bad_alloc@std@@QAE@ABV01@@Z12 DD 010H
	DD	FLAT:??_R0?AVbad_alloc@std@@@8
	DD	00H
	DD	0ffffffffH
	ORG $+4
	DD	0cH
	DD	FLAT:??0bad_alloc@std@@QAE@ABV01@@Z
xdata$x	ENDS
;	COMDAT ??_R0?AVbad_alloc@std@@@8
data$r	SEGMENT
??_R0?AVbad_alloc@std@@@8 DD FLAT:??_7type_info@@6B@	; std::bad_alloc `RTTI Type Descriptor'
	DD	00H
	DB	'.?AVbad_alloc@std@@', 00H
data$r	ENDS
;	COMDAT __CT??_R0?AVbad_array_new_length@std@@@8??0bad_array_new_length@std@@QAE@ABV01@@Z12
xdata$x	SEGMENT
__CT??_R0?AVbad_array_new_length@std@@@8??0bad_array_new_length@std@@QAE@ABV01@@Z12 DD 00H
	DD	FLAT:??_R0?AVbad_array_new_length@std@@@8
	DD	00H
	DD	0ffffffffH
	ORG $+4
	DD	0cH
	DD	FLAT:??0bad_array_new_length@std@@QAE@ABV01@@Z
xdata$x	ENDS
;	COMDAT ??_R0?AVbad_array_new_length@std@@@8
data$r	SEGMENT
??_R0?AVbad_array_new_length@std@@@8 DD FLAT:??_7type_info@@6B@ ; std::bad_array_new_length `RTTI Type Descriptor'
	DD	00H
	DB	'.?AVbad_array_new_length@std@@', 00H
data$r	ENDS
;	COMDAT __CTA3?AVbad_array_new_length@std@@
xdata$x	SEGMENT
__CTA3?AVbad_array_new_length@std@@ DD 03H
	DD	FLAT:__CT??_R0?AVbad_array_new_length@std@@@8??0bad_array_new_length@std@@QAE@ABV01@@Z12
	DD	FLAT:__CT??_R0?AVbad_alloc@std@@@8??0bad_alloc@std@@QAE@ABV01@@Z12
	DD	FLAT:__CT??_R0?AVexception@std@@@8??0exception@std@@QAE@ABV01@@Z12
xdata$x	ENDS
;	COMDAT __TI3?AVbad_array_new_length@std@@
xdata$x	SEGMENT
__TI3?AVbad_array_new_length@std@@ DD 00H
	DD	FLAT:??1bad_array_new_length@std@@UAE@XZ
	DD	00H
	DD	FLAT:__CTA3?AVbad_array_new_length@std@@
xdata$x	ENDS
;	COMDAT ??_C@_0BF@KINCDENJ@bad?5array?5new?5length@
CONST	SEGMENT
??_C@_0BF@KINCDENJ@bad?5array?5new?5length@ DB 'bad array new length', 00H ; `string'
CONST	ENDS
;	COMDAT ??_7bad_array_new_length@std@@6B@
CONST	SEGMENT
??_7bad_array_new_length@std@@6B@ DD FLAT:??_R4bad_array_new_length@std@@6B@ ; std::bad_array_new_length::`vftable'
	DD	FLAT:??_Ebad_array_new_length@std@@UAEPAXI@Z
	DD	FLAT:?what@exception@std@@UBEPBDXZ
CONST	ENDS
;	COMDAT ??_7bad_alloc@std@@6B@
CONST	SEGMENT
??_7bad_alloc@std@@6B@ DD FLAT:??_R4bad_alloc@std@@6B@	; std::bad_alloc::`vftable'
	DD	FLAT:??_Ebad_alloc@std@@UAEPAXI@Z
	DD	FLAT:?what@exception@std@@UBEPBDXZ
CONST	ENDS
;	COMDAT ??_C@_0BC@EOODALEL@Unknown?5exception@
CONST	SEGMENT
??_C@_0BC@EOODALEL@Unknown?5exception@ DB 'Unknown exception', 00H ; `string'
CONST	ENDS
;	COMDAT ??_7exception@std@@6B@
CONST	SEGMENT
??_7exception@std@@6B@ DD FLAT:??_R4exception@std@@6B@	; std::exception::`vftable'
	DD	FLAT:??_Eexception@std@@UAEPAXI@Z
	DD	FLAT:?what@exception@std@@UBEPBDXZ
CONST	ENDS
;	COMDAT xdata$x
xdata$x	SEGMENT
__unwindtable$?chrtestSetRideMan@@YAPAU_object@@PAU1@0@Z DD 0ffffffffH
	DD	FLAT:__unwindfunclet$?chrtestSetRideMan@@YAPAU_object@@PAU1@0@Z$0
__ehfuncinfo$?chrtestSetRideMan@@YAPAU_object@@PAU1@0@Z DD 019930522H
	DD	01H
	DD	FLAT:__unwindtable$?chrtestSetRideMan@@YAPAU_object@@PAU1@0@Z
	DD	2 DUP(00H)
	DD	2 DUP(00H)
	DD	00H
	DD	01H
xdata$x	ENDS
;	COMDAT xdata$x
xdata$x	SEGMENT
__unwindtable$?chrCreateInstance@@YAPAU_object@@PAU1@0@Z DD 0ffffffffH
	DD	FLAT:__unwindfunclet$?chrCreateInstance@@YAPAU_object@@PAU1@0@Z$0
__ehfuncinfo$?chrCreateInstance@@YAPAU_object@@PAU1@0@Z DD 019930522H
	DD	01H
	DD	FLAT:__unwindtable$?chrCreateInstance@@YAPAU_object@@PAU1@0@Z
	DD	2 DUP(00H)
	DD	2 DUP(00H)
	DD	00H
	DD	01H
xdata$x	ENDS
;	COMDAT CRT$XCU
CRT$XCU	SEGMENT
??ms_kPool$initializer$@?$CPooledObject@VCNullDecorator@NEffectUpdateDecorator@@@@1P6AXXZA@@3P6AXXZA DD FLAT:??__E?ms_kPool@?$CPooledObject@VCNullDecorator@NEffectUpdateDecorator@@@@1V?$CDynamicPoolEx@VCNullDecorator@NEffectUpdateDecorator@@@@A@@YAXXZ ; ??ms_kPool$initializer$@?$CPooledObject@VCNullDecorator@NEffectUpdateDecorator@@@@1P6AXXZA@@3P6AXXZA
CRT$XCU	ENDS
;	COMDAT CRT$XCU
CRT$XCU	SEGMENT
??ms_kPool$initializer$@?$CPooledObject@VCTextureAnimationCWDecorator@NEffectUpdateDecorator@@@@1P6AXXZA@@3P6AXXZA DD FLAT:??__E?ms_kPool@?$CPooledObject@VCTextureAnimationCWDecorator@NEffectUpdateDecorator@@@@1V?$CDynamicPoolEx@VCTextureAnimationCWDecorator@NEffectUpdateDecorator@@@@A@@YAXXZ ; ??ms_kPool$initializer$@?$CPooledObject@VCTextureAnimationCWDecorator@NEffectUpdateDecorator@@@@1P6AXXZA@@3P6AXXZA
CRT$XCU	ENDS
;	COMDAT CRT$XCU
CRT$XCU	SEGMENT
??ms_kPool$initializer$@?$CPooledObject@VCTextureAnimationCCWDecorator@NEffectUpdateDecorator@@@@1P6AXXZA@@3P6AXXZA DD FLAT:??__E?ms_kPool@?$CPooledObject@VCTextureAnimationCCWDecorator@NEffectUpdateDecorator@@@@1V?$CDynamicPoolEx@VCTextureAnimationCCWDecorator@NEffectUpdateDecorator@@@@A@@YAXXZ ; ??ms_kPool$initializer$@?$CPooledObject@VCTextureAnimationCCWDecorator@NEffectUpdateDecorator@@@@1P6AXXZA@@3P6AXXZA
CRT$XCU	ENDS
;	COMDAT CRT$XCU
CRT$XCU	SEGMENT
??ms_kPool$initializer$@?$CPooledObject@VCTextureAnimationRandomDecorator@NEffectUpdateDecorator@@@@1P6AXXZA@@3P6AXXZA DD FLAT:??__E?ms_kPool@?$CPooledObject@VCTextureAnimationRandomDecorator@NEffectUpdateDecorator@@@@1V?$CDynamicPoolEx@VCTextureAnimationRandomDecorator@NEffectUpdateDecorator@@@@A@@YAXXZ ; ??ms_kPool$initializer$@?$CPooledObject@VCTextureAnimationRandomDecorator@NEffectUpdateDecorator@@@@1P6AXXZA@@3P6AXXZA
CRT$XCU	ENDS
;	COMDAT CRT$XCU
CRT$XCU	SEGMENT
??ms_kPool$initializer$@?$CPooledObject@VCAirResistanceDecorator@NEffectUpdateDecorator@@@@1P6AXXZA@@3P6AXXZA DD FLAT:??__E?ms_kPool@?$CPooledObject@VCAirResistanceDecorator@NEffectUpdateDecorator@@@@1V?$CDynamicPoolEx@VCAirResistanceDecorator@NEffectUpdateDecorator@@@@A@@YAXXZ ; ??ms_kPool$initializer$@?$CPooledObject@VCAirResistanceDecorator@NEffectUpdateDecorator@@@@1P6AXXZA@@3P6AXXZA
CRT$XCU	ENDS
;	COMDAT CRT$XCU
CRT$XCU	SEGMENT
??ms_kPool$initializer$@?$CPooledObject@VCGravityDecorator@NEffectUpdateDecorator@@@@1P6AXXZA@@3P6AXXZA DD FLAT:??__E?ms_kPool@?$CPooledObject@VCGravityDecorator@NEffectUpdateDecorator@@@@1V?$CDynamicPoolEx@VCGravityDecorator@NEffectUpdateDecorator@@@@A@@YAXXZ ; ??ms_kPool$initializer$@?$CPooledObject@VCGravityDecorator@NEffectUpdateDecorator@@@@1P6AXXZA@@3P6AXXZA
CRT$XCU	ENDS
;	COMDAT CRT$XCU
CRT$XCU	SEGMENT
??ms_kPool$initializer$@?$CPooledObject@VCRotationDecorator@NEffectUpdateDecorator@@@@1P6AXXZA@@3P6AXXZA DD FLAT:??__E?ms_kPool@?$CPooledObject@VCRotationDecorator@NEffectUpdateDecorator@@@@1V?$CDynamicPoolEx@VCRotationDecorator@NEffectUpdateDecorator@@@@A@@YAXXZ ; ??ms_kPool$initializer$@?$CPooledObject@VCRotationDecorator@NEffectUpdateDecorator@@@@1P6AXXZA@@3P6AXXZA
CRT$XCU	ENDS
; Function compile flags: /Ogtp
;	COMDAT ??__F?ms_kPool@?$CPooledObject@VCRotationDecorator@NEffectUpdateDecorator@@@@1V?$CDynamicPoolEx@VCRotationDecorator@NEffectUpdateDecorator@@@@A@@YAXXZ
text$yd	SEGMENT
??__F?ms_kPool@?$CPooledObject@VCRotationDecorator@NEffectUpdateDecorator@@@@1V?$CDynamicPoolEx@VCRotationDecorator@NEffectUpdateDecorator@@@@A@@YAXXZ PROC ; `dynamic atexit destructor for 'CPooledObject<NEffectUpdateDecorator::CRotationDecorator>::ms_kPool'', COMDAT
  00000	b9 00 00 00 00	 mov	 ecx, OFFSET ?ms_kPool@?$CPooledObject@VCRotationDecorator@NEffectUpdateDecorator@@@@1V?$CDynamicPoolEx@VCRotationDecorator@NEffectUpdateDecorator@@@@A ; CPooledObject<NEffectUpdateDecorator::CRotationDecorator>::ms_kPool
  00005	e9 00 00 00 00	 jmp	 ??1?$CDynamicPoolEx@VCRotationDecorator@NEffectUpdateDecorator@@@@UAE@XZ ; CDynamicPoolEx<NEffectUpdateDecorator::CRotationDecorator>::~CDynamicPoolEx<NEffectUpdateDecorator::CRotationDecorator>
??__F?ms_kPool@?$CPooledObject@VCRotationDecorator@NEffectUpdateDecorator@@@@1V?$CDynamicPoolEx@VCRotationDecorator@NEffectUpdateDecorator@@@@A@@YAXXZ ENDP ; `dynamic atexit destructor for 'CPooledObject<NEffectUpdateDecorator::CRotationDecorator>::ms_kPool''
text$yd	ENDS
; Function compile flags: /Ogtp
; File D:\Metin2 Server Files\mainline\SRC_2014\Metin2Client\eterLib\Pool.h
;	COMDAT ??__E?ms_kPool@?$CPooledObject@VCRotationDecorator@NEffectUpdateDecorator@@@@1V?$CDynamicPoolEx@VCRotationDecorator@NEffectUpdateDecorator@@@@A@@YAXXZ
text$di	SEGMENT
??__E?ms_kPool@?$CPooledObject@VCRotationDecorator@NEffectUpdateDecorator@@@@1V?$CDynamicPoolEx@VCRotationDecorator@NEffectUpdateDecorator@@@@A@@YAXXZ PROC ; `dynamic initializer for 'CPooledObject<NEffectUpdateDecorator::CRotationDecorator>::ms_kPool'', COMDAT

; 272  : template <class T> CDynamicPoolEx<T> CPooledObject<T>::ms_kPool;

  00000	68 00 00 00 00	 push	 OFFSET ??__F?ms_kPool@?$CPooledObject@VCRotationDecorator@NEffectUpdateDecorator@@@@1V?$CDynamicPoolEx@VCRotationDecorator@NEffectUpdateDecorator@@@@A@@YAXXZ ; `dynamic atexit destructor for 'CPooledObject<NEffectUpdateDecorator::CRotationDecorator>::ms_kPool''
  00005	e8 00 00 00 00	 call	 _atexit
  0000a	59		 pop	 ecx
  0000b	c3		 ret	 0
??__E?ms_kPool@?$CPooledObject@VCRotationDecorator@NEffectUpdateDecorator@@@@1V?$CDynamicPoolEx@VCRotationDecorator@NEffectUpdateDecorator@@@@A@@YAXXZ ENDP ; `dynamic initializer for 'CPooledObject<NEffectUpdateDecorator::CRotationDecorator>::ms_kPool''
text$di	ENDS
; Function compile flags: /Ogtp
;	COMDAT ??__F?ms_kPool@?$CPooledObject@VCGravityDecorator@NEffectUpdateDecorator@@@@1V?$CDynamicPoolEx@VCGravityDecorator@NEffectUpdateDecorator@@@@A@@YAXXZ
text$yd	SEGMENT
??__F?ms_kPool@?$CPooledObject@VCGravityDecorator@NEffectUpdateDecorator@@@@1V?$CDynamicPoolEx@VCGravityDecorator@NEffectUpdateDecorator@@@@A@@YAXXZ PROC ; `dynamic atexit destructor for 'CPooledObject<NEffectUpdateDecorator::CGravityDecorator>::ms_kPool'', COMDAT
  00000	b9 00 00 00 00	 mov	 ecx, OFFSET ?ms_kPool@?$CPooledObject@VCGravityDecorator@NEffectUpdateDecorator@@@@1V?$CDynamicPoolEx@VCGravityDecorator@NEffectUpdateDecorator@@@@A ; CPooledObject<NEffectUpdateDecorator::CGravityDecorator>::ms_kPool
  00005	e9 00 00 00 00	 jmp	 ??1?$CDynamicPoolEx@VCGravityDecorator@NEffectUpdateDecorator@@@@UAE@XZ ; CDynamicPoolEx<NEffectUpdateDecorator::CGravityDecorator>::~CDynamicPoolEx<NEffectUpdateDecorator::CGravityDecorator>
??__F?ms_kPool@?$CPooledObject@VCGravityDecorator@NEffectUpdateDecorator@@@@1V?$CDynamicPoolEx@VCGravityDecorator@NEffectUpdateDecorator@@@@A@@YAXXZ ENDP ; `dynamic atexit destructor for 'CPooledObject<NEffectUpdateDecorator::CGravityDecorator>::ms_kPool''
text$yd	ENDS
; Function compile flags: /Ogtp
; File D:\Metin2 Server Files\mainline\SRC_2014\Metin2Client\eterLib\Pool.h
;	COMDAT ??__E?ms_kPool@?$CPooledObject@VCGravityDecorator@NEffectUpdateDecorator@@@@1V?$CDynamicPoolEx@VCGravityDecorator@NEffectUpdateDecorator@@@@A@@YAXXZ
text$di	SEGMENT
??__E?ms_kPool@?$CPooledObject@VCGravityDecorator@NEffectUpdateDecorator@@@@1V?$CDynamicPoolEx@VCGravityDecorator@NEffectUpdateDecorator@@@@A@@YAXXZ PROC ; `dynamic initializer for 'CPooledObject<NEffectUpdateDecorator::CGravityDecorator>::ms_kPool'', COMDAT

; 272  : template <class T> CDynamicPoolEx<T> CPooledObject<T>::ms_kPool;

  00000	68 00 00 00 00	 push	 OFFSET ??__F?ms_kPool@?$CPooledObject@VCGravityDecorator@NEffectUpdateDecorator@@@@1V?$CDynamicPoolEx@VCGravityDecorator@NEffectUpdateDecorator@@@@A@@YAXXZ ; `dynamic atexit destructor for 'CPooledObject<NEffectUpdateDecorator::CGravityDecorator>::ms_kPool''
  00005	e8 00 00 00 00	 call	 _atexit
  0000a	59		 pop	 ecx
  0000b	c3		 ret	 0
??__E?ms_kPool@?$CPooledObject@VCGravityDecorator@NEffectUpdateDecorator@@@@1V?$CDynamicPoolEx@VCGravityDecorator@NEffectUpdateDecorator@@@@A@@YAXXZ ENDP ; `dynamic initializer for 'CPooledObject<NEffectUpdateDecorator::CGravityDecorator>::ms_kPool''
text$di	ENDS
; Function compile flags: /Ogtp
;	COMDAT ??__F?ms_kPool@?$CPooledObject@VCAirResistanceDecorator@NEffectUpdateDecorator@@@@1V?$CDynamicPoolEx@VCAirResistanceDecorator@NEffectUpdateDecorator@@@@A@@YAXXZ
text$yd	SEGMENT
??__F?ms_kPool@?$CPooledObject@VCAirResistanceDecorator@NEffectUpdateDecorator@@@@1V?$CDynamicPoolEx@VCAirResistanceDecorator@NEffectUpdateDecorator@@@@A@@YAXXZ PROC ; `dynamic atexit destructor for 'CPooledObject<NEffectUpdateDecorator::CAirResistanceDecorator>::ms_kPool'', COMDAT
  00000	b9 00 00 00 00	 mov	 ecx, OFFSET ?ms_kPool@?$CPooledObject@VCAirResistanceDecorator@NEffectUpdateDecorator@@@@1V?$CDynamicPoolEx@VCAirResistanceDecorator@NEffectUpdateDecorator@@@@A ; CPooledObject<NEffectUpdateDecorator::CAirResistanceDecorator>::ms_kPool
  00005	e9 00 00 00 00	 jmp	 ??1?$CDynamicPoolEx@VCAirResistanceDecorator@NEffectUpdateDecorator@@@@UAE@XZ ; CDynamicPoolEx<NEffectUpdateDecorator::CAirResistanceDecorator>::~CDynamicPoolEx<NEffectUpdateDecorator::CAirResistanceDecorator>
??__F?ms_kPool@?$CPooledObject@VCAirResistanceDecorator@NEffectUpdateDecorator@@@@1V?$CDynamicPoolEx@VCAirResistanceDecorator@NEffectUpdateDecorator@@@@A@@YAXXZ ENDP ; `dynamic atexit destructor for 'CPooledObject<NEffectUpdateDecorator::CAirResistanceDecorator>::ms_kPool''
text$yd	ENDS
; Function compile flags: /Ogtp
; File D:\Metin2 Server Files\mainline\SRC_2014\Metin2Client\eterLib\Pool.h
;	COMDAT ??__E?ms_kPool@?$CPooledObject@VCAirResistanceDecorator@NEffectUpdateDecorator@@@@1V?$CDynamicPoolEx@VCAirResistanceDecorator@NEffectUpdateDecorator@@@@A@@YAXXZ
text$di	SEGMENT
??__E?ms_kPool@?$CPooledObject@VCAirResistanceDecorator@NEffectUpdateDecorator@@@@1V?$CDynamicPoolEx@VCAirResistanceDecorator@NEffectUpdateDecorator@@@@A@@YAXXZ PROC ; `dynamic initializer for 'CPooledObject<NEffectUpdateDecorator::CAirResistanceDecorator>::ms_kPool'', COMDAT

; 272  : template <class T> CDynamicPoolEx<T> CPooledObject<T>::ms_kPool;

  00000	68 00 00 00 00	 push	 OFFSET ??__F?ms_kPool@?$CPooledObject@VCAirResistanceDecorator@NEffectUpdateDecorator@@@@1V?$CDynamicPoolEx@VCAirResistanceDecorator@NEffectUpdateDecorator@@@@A@@YAXXZ ; `dynamic atexit destructor for 'CPooledObject<NEffectUpdateDecorator::CAirResistanceDecorator>::ms_kPool''
  00005	e8 00 00 00 00	 call	 _atexit
  0000a	59		 pop	 ecx
  0000b	c3		 ret	 0
??__E?ms_kPool@?$CPooledObject@VCAirResistanceDecorator@NEffectUpdateDecorator@@@@1V?$CDynamicPoolEx@VCAirResistanceDecorator@NEffectUpdateDecorator@@@@A@@YAXXZ ENDP ; `dynamic initializer for 'CPooledObject<NEffectUpdateDecorator::CAirResistanceDecorator>::ms_kPool''
text$di	ENDS
; Function compile flags: /Ogtp
;	COMDAT ??__F?ms_kPool@?$CPooledObject@VCTextureAnimationRandomDecorator@NEffectUpdateDecorator@@@@1V?$CDynamicPoolEx@VCTextureAnimationRandomDecorator@NEffectUpdateDecorator@@@@A@@YAXXZ
text$yd	SEGMENT
??__F?ms_kPool@?$CPooledObject@VCTextureAnimationRandomDecorator@NEffectUpdateDecorator@@@@1V?$CDynamicPoolEx@VCTextureAnimationRandomDecorator@NEffectUpdateDecorator@@@@A@@YAXXZ PROC ; `dynamic atexit destructor for 'CPooledObject<NEffectUpdateDecorator::CTextureAnimationRandomDecorator>::ms_kPool'', COMDAT
  00000	b9 00 00 00 00	 mov	 ecx, OFFSET ?ms_kPool@?$CPooledObject@VCTextureAnimationRandomDecorator@NEffectUpdateDecorator@@@@1V?$CDynamicPoolEx@VCTextureAnimationRandomDecorator@NEffectUpdateDecorator@@@@A ; CPooledObject<NEffectUpdateDecorator::CTextureAnimationRandomDecorator>::ms_kPool
  00005	e9 00 00 00 00	 jmp	 ??1?$CDynamicPoolEx@VCTextureAnimationRandomDecorator@NEffectUpdateDecorator@@@@UAE@XZ ; CDynamicPoolEx<NEffectUpdateDecorator::CTextureAnimationRandomDecorator>::~CDynamicPoolEx<NEffectUpdateDecorator::CTextureAnimationRandomDecorator>
??__F?ms_kPool@?$CPooledObject@VCTextureAnimationRandomDecorator@NEffectUpdateDecorator@@@@1V?$CDynamicPoolEx@VCTextureAnimationRandomDecorator@NEffectUpdateDecorator@@@@A@@YAXXZ ENDP ; `dynamic atexit destructor for 'CPooledObject<NEffectUpdateDecorator::CTextureAnimationRandomDecorator>::ms_kPool''
text$yd	ENDS
; Function compile flags: /Ogtp
; File D:\Metin2 Server Files\mainline\SRC_2014\Metin2Client\eterLib\Pool.h
;	COMDAT ??__E?ms_kPool@?$CPooledObject@VCTextureAnimationRandomDecorator@NEffectUpdateDecorator@@@@1V?$CDynamicPoolEx@VCTextureAnimationRandomDecorator@NEffectUpdateDecorator@@@@A@@YAXXZ
text$di	SEGMENT
??__E?ms_kPool@?$CPooledObject@VCTextureAnimationRandomDecorator@NEffectUpdateDecorator@@@@1V?$CDynamicPoolEx@VCTextureAnimationRandomDecorator@NEffectUpdateDecorator@@@@A@@YAXXZ PROC ; `dynamic initializer for 'CPooledObject<NEffectUpdateDecorator::CTextureAnimationRandomDecorator>::ms_kPool'', COMDAT

; 272  : template <class T> CDynamicPoolEx<T> CPooledObject<T>::ms_kPool;

  00000	68 00 00 00 00	 push	 OFFSET ??__F?ms_kPool@?$CPooledObject@VCTextureAnimationRandomDecorator@NEffectUpdateDecorator@@@@1V?$CDynamicPoolEx@VCTextureAnimationRandomDecorator@NEffectUpdateDecorator@@@@A@@YAXXZ ; `dynamic atexit destructor for 'CPooledObject<NEffectUpdateDecorator::CTextureAnimationRandomDecorator>::ms_kPool''
  00005	e8 00 00 00 00	 call	 _atexit
  0000a	59		 pop	 ecx
  0000b	c3		 ret	 0
??__E?ms_kPool@?$CPooledObject@VCTextureAnimationRandomDecorator@NEffectUpdateDecorator@@@@1V?$CDynamicPoolEx@VCTextureAnimationRandomDecorator@NEffectUpdateDecorator@@@@A@@YAXXZ ENDP ; `dynamic initializer for 'CPooledObject<NEffectUpdateDecorator::CTextureAnimationRandomDecorator>::ms_kPool''
text$di	ENDS
; Function compile flags: /Ogtp
;	COMDAT ??__F?ms_kPool@?$CPooledObject@VCTextureAnimationCCWDecorator@NEffectUpdateDecorator@@@@1V?$CDynamicPoolEx@VCTextureAnimationCCWDecorator@NEffectUpdateDecorator@@@@A@@YAXXZ
text$yd	SEGMENT
??__F?ms_kPool@?$CPooledObject@VCTextureAnimationCCWDecorator@NEffectUpdateDecorator@@@@1V?$CDynamicPoolEx@VCTextureAnimationCCWDecorator@NEffectUpdateDecorator@@@@A@@YAXXZ PROC ; `dynamic atexit destructor for 'CPooledObject<NEffectUpdateDecorator::CTextureAnimationCCWDecorator>::ms_kPool'', COMDAT
  00000	b9 00 00 00 00	 mov	 ecx, OFFSET ?ms_kPool@?$CPooledObject@VCTextureAnimationCCWDecorator@NEffectUpdateDecorator@@@@1V?$CDynamicPoolEx@VCTextureAnimationCCWDecorator@NEffectUpdateDecorator@@@@A ; CPooledObject<NEffectUpdateDecorator::CTextureAnimationCCWDecorator>::ms_kPool
  00005	e9 00 00 00 00	 jmp	 ??1?$CDynamicPoolEx@VCTextureAnimationCCWDecorator@NEffectUpdateDecorator@@@@UAE@XZ ; CDynamicPoolEx<NEffectUpdateDecorator::CTextureAnimationCCWDecorator>::~CDynamicPoolEx<NEffectUpdateDecorator::CTextureAnimationCCWDecorator>
??__F?ms_kPool@?$CPooledObject@VCTextureAnimationCCWDecorator@NEffectUpdateDecorator@@@@1V?$CDynamicPoolEx@VCTextureAnimationCCWDecorator@NEffectUpdateDecorator@@@@A@@YAXXZ ENDP ; `dynamic atexit destructor for 'CPooledObject<NEffectUpdateDecorator::CTextureAnimationCCWDecorator>::ms_kPool''
text$yd	ENDS
; Function compile flags: /Ogtp
; File D:\Metin2 Server Files\mainline\SRC_2014\Metin2Client\eterLib\Pool.h
;	COMDAT ??__E?ms_kPool@?$CPooledObject@VCTextureAnimationCCWDecorator@NEffectUpdateDecorator@@@@1V?$CDynamicPoolEx@VCTextureAnimationCCWDecorator@NEffectUpdateDecorator@@@@A@@YAXXZ
text$di	SEGMENT
??__E?ms_kPool@?$CPooledObject@VCTextureAnimationCCWDecorator@NEffectUpdateDecorator@@@@1V?$CDynamicPoolEx@VCTextureAnimationCCWDecorator@NEffectUpdateDecorator@@@@A@@YAXXZ PROC ; `dynamic initializer for 'CPooledObject<NEffectUpdateDecorator::CTextureAnimationCCWDecorator>::ms_kPool'', COMDAT

; 272  : template <class T> CDynamicPoolEx<T> CPooledObject<T>::ms_kPool;

  00000	68 00 00 00 00	 push	 OFFSET ??__F?ms_kPool@?$CPooledObject@VCTextureAnimationCCWDecorator@NEffectUpdateDecorator@@@@1V?$CDynamicPoolEx@VCTextureAnimationCCWDecorator@NEffectUpdateDecorator@@@@A@@YAXXZ ; `dynamic atexit destructor for 'CPooledObject<NEffectUpdateDecorator::CTextureAnimationCCWDecorator>::ms_kPool''
  00005	e8 00 00 00 00	 call	 _atexit
  0000a	59		 pop	 ecx
  0000b	c3		 ret	 0
??__E?ms_kPool@?$CPooledObject@VCTextureAnimationCCWDecorator@NEffectUpdateDecorator@@@@1V?$CDynamicPoolEx@VCTextureAnimationCCWDecorator@NEffectUpdateDecorator@@@@A@@YAXXZ ENDP ; `dynamic initializer for 'CPooledObject<NEffectUpdateDecorator::CTextureAnimationCCWDecorator>::ms_kPool''
text$di	ENDS
; Function compile flags: /Ogtp
;	COMDAT ??__F?ms_kPool@?$CPooledObject@VCTextureAnimationCWDecorator@NEffectUpdateDecorator@@@@1V?$CDynamicPoolEx@VCTextureAnimationCWDecorator@NEffectUpdateDecorator@@@@A@@YAXXZ
text$yd	SEGMENT
??__F?ms_kPool@?$CPooledObject@VCTextureAnimationCWDecorator@NEffectUpdateDecorator@@@@1V?$CDynamicPoolEx@VCTextureAnimationCWDecorator@NEffectUpdateDecorator@@@@A@@YAXXZ PROC ; `dynamic atexit destructor for 'CPooledObject<NEffectUpdateDecorator::CTextureAnimationCWDecorator>::ms_kPool'', COMDAT
  00000	b9 00 00 00 00	 mov	 ecx, OFFSET ?ms_kPool@?$CPooledObject@VCTextureAnimationCWDecorator@NEffectUpdateDecorator@@@@1V?$CDynamicPoolEx@VCTextureAnimationCWDecorator@NEffectUpdateDecorator@@@@A ; CPooledObject<NEffectUpdateDecorator::CTextureAnimationCWDecorator>::ms_kPool
  00005	e9 00 00 00 00	 jmp	 ??1?$CDynamicPoolEx@VCTextureAnimationCWDecorator@NEffectUpdateDecorator@@@@UAE@XZ ; CDynamicPoolEx<NEffectUpdateDecorator::CTextureAnimationCWDecorator>::~CDynamicPoolEx<NEffectUpdateDecorator::CTextureAnimationCWDecorator>
??__F?ms_kPool@?$CPooledObject@VCTextureAnimationCWDecorator@NEffectUpdateDecorator@@@@1V?$CDynamicPoolEx@VCTextureAnimationCWDecorator@NEffectUpdateDecorator@@@@A@@YAXXZ ENDP ; `dynamic atexit destructor for 'CPooledObject<NEffectUpdateDecorator::CTextureAnimationCWDecorator>::ms_kPool''
text$yd	ENDS
; Function compile flags: /Ogtp
; File D:\Metin2 Server Files\mainline\SRC_2014\Metin2Client\eterLib\Pool.h
;	COMDAT ??__E?ms_kPool@?$CPooledObject@VCTextureAnimationCWDecorator@NEffectUpdateDecorator@@@@1V?$CDynamicPoolEx@VCTextureAnimationCWDecorator@NEffectUpdateDecorator@@@@A@@YAXXZ
text$di	SEGMENT
??__E?ms_kPool@?$CPooledObject@VCTextureAnimationCWDecorator@NEffectUpdateDecorator@@@@1V?$CDynamicPoolEx@VCTextureAnimationCWDecorator@NEffectUpdateDecorator@@@@A@@YAXXZ PROC ; `dynamic initializer for 'CPooledObject<NEffectUpdateDecorator::CTextureAnimationCWDecorator>::ms_kPool'', COMDAT

; 272  : template <class T> CDynamicPoolEx<T> CPooledObject<T>::ms_kPool;

  00000	68 00 00 00 00	 push	 OFFSET ??__F?ms_kPool@?$CPooledObject@VCTextureAnimationCWDecorator@NEffectUpdateDecorator@@@@1V?$CDynamicPoolEx@VCTextureAnimationCWDecorator@NEffectUpdateDecorator@@@@A@@YAXXZ ; `dynamic atexit destructor for 'CPooledObject<NEffectUpdateDecorator::CTextureAnimationCWDecorator>::ms_kPool''
  00005	e8 00 00 00 00	 call	 _atexit
  0000a	59		 pop	 ecx
  0000b	c3		 ret	 0
??__E?ms_kPool@?$CPooledObject@VCTextureAnimationCWDecorator@NEffectUpdateDecorator@@@@1V?$CDynamicPoolEx@VCTextureAnimationCWDecorator@NEffectUpdateDecorator@@@@A@@YAXXZ ENDP ; `dynamic initializer for 'CPooledObject<NEffectUpdateDecorator::CTextureAnimationCWDecorator>::ms_kPool''
text$di	ENDS
; Function compile flags: /Ogtp
;	COMDAT ??__F?ms_kPool@?$CPooledObject@VCNullDecorator@NEffectUpdateDecorator@@@@1V?$CDynamicPoolEx@VCNullDecorator@NEffectUpdateDecorator@@@@A@@YAXXZ
text$yd	SEGMENT
??__F?ms_kPool@?$CPooledObject@VCNullDecorator@NEffectUpdateDecorator@@@@1V?$CDynamicPoolEx@VCNullDecorator@NEffectUpdateDecorator@@@@A@@YAXXZ PROC ; `dynamic atexit destructor for 'CPooledObject<NEffectUpdateDecorator::CNullDecorator>::ms_kPool'', COMDAT
  00000	b9 00 00 00 00	 mov	 ecx, OFFSET ?ms_kPool@?$CPooledObject@VCNullDecorator@NEffectUpdateDecorator@@@@1V?$CDynamicPoolEx@VCNullDecorator@NEffectUpdateDecorator@@@@A ; CPooledObject<NEffectUpdateDecorator::CNullDecorator>::ms_kPool
  00005	e9 00 00 00 00	 jmp	 ??1?$CDynamicPoolEx@VCNullDecorator@NEffectUpdateDecorator@@@@UAE@XZ ; CDynamicPoolEx<NEffectUpdateDecorator::CNullDecorator>::~CDynamicPoolEx<NEffectUpdateDecorator::CNullDecorator>
??__F?ms_kPool@?$CPooledObject@VCNullDecorator@NEffectUpdateDecorator@@@@1V?$CDynamicPoolEx@VCNullDecorator@NEffectUpdateDecorator@@@@A@@YAXXZ ENDP ; `dynamic atexit destructor for 'CPooledObject<NEffectUpdateDecorator::CNullDecorator>::ms_kPool''
text$yd	ENDS
; Function compile flags: /Ogtp
; File D:\Metin2 Server Files\mainline\SRC_2014\Metin2Client\eterLib\Pool.h
;	COMDAT ??__E?ms_kPool@?$CPooledObject@VCNullDecorator@NEffectUpdateDecorator@@@@1V?$CDynamicPoolEx@VCNullDecorator@NEffectUpdateDecorator@@@@A@@YAXXZ
text$di	SEGMENT
??__E?ms_kPool@?$CPooledObject@VCNullDecorator@NEffectUpdateDecorator@@@@1V?$CDynamicPoolEx@VCNullDecorator@NEffectUpdateDecorator@@@@A@@YAXXZ PROC ; `dynamic initializer for 'CPooledObject<NEffectUpdateDecorator::CNullDecorator>::ms_kPool'', COMDAT

; 272  : template <class T> CDynamicPoolEx<T> CPooledObject<T>::ms_kPool;

  00000	68 00 00 00 00	 push	 OFFSET ??__F?ms_kPool@?$CPooledObject@VCNullDecorator@NEffectUpdateDecorator@@@@1V?$CDynamicPoolEx@VCNullDecorator@NEffectUpdateDecorator@@@@A@@YAXXZ ; `dynamic atexit destructor for 'CPooledObject<NEffectUpdateDecorator::CNullDecorator>::ms_kPool''
  00005	e8 00 00 00 00	 call	 _atexit
  0000a	59		 pop	 ecx
  0000b	c3		 ret	 0
??__E?ms_kPool@?$CPooledObject@VCNullDecorator@NEffectUpdateDecorator@@@@1V?$CDynamicPoolEx@VCNullDecorator@NEffectUpdateDecorator@@@@A@@YAXXZ ENDP ; `dynamic initializer for 'CPooledObject<NEffectUpdateDecorator::CNullDecorator>::ms_kPool''
text$di	ENDS
; Function compile flags: /Ogtp
;	COMDAT ??__F?ms_kPool@?$CPooledObject@VCHeaderDecorator@NEffectUpdateDecorator@@@@1V?$CDynamicPoolEx@VCHeaderDecorator@NEffectUpdateDecorator@@@@A@@YAXXZ
text$yd	SEGMENT
??__F?ms_kPool@?$CPooledObject@VCHeaderDecorator@NEffectUpdateDecorator@@@@1V?$CDynamicPoolEx@VCHeaderDecorator@NEffectUpdateDecorator@@@@A@@YAXXZ PROC ; `dynamic atexit destructor for 'CPooledObject<NEffectUpdateDecorator::CHeaderDecorator>::ms_kPool'', COMDAT
  00000	b9 00 00 00 00	 mov	 ecx, OFFSET ?ms_kPool@?$CPooledObject@VCHeaderDecorator@NEffectUpdateDecorator@@@@1V?$CDynamicPoolEx@VCHeaderDecorator@NEffectUpdateDecorator@@@@A ; CPooledObject<NEffectUpdateDecorator::CHeaderDecorator>::ms_kPool
  00005	e9 00 00 00 00	 jmp	 ??1?$CDynamicPoolEx@VCHeaderDecorator@NEffectUpdateDecorator@@@@UAE@XZ ; CDynamicPoolEx<NEffectUpdateDecorator::CHeaderDecorator>::~CDynamicPoolEx<NEffectUpdateDecorator::CHeaderDecorator>
??__F?ms_kPool@?$CPooledObject@VCHeaderDecorator@NEffectUpdateDecorator@@@@1V?$CDynamicPoolEx@VCHeaderDecorator@NEffectUpdateDecorator@@@@A@@YAXXZ ENDP ; `dynamic atexit destructor for 'CPooledObject<NEffectUpdateDecorator::CHeaderDecorator>::ms_kPool''
text$yd	ENDS
; Function compile flags: /Ogtp
; File D:\Metin2 Server Files\mainline\SRC_2014\Metin2Client\eterLib\Pool.h
;	COMDAT ??__E?ms_kPool@?$CPooledObject@VCHeaderDecorator@NEffectUpdateDecorator@@@@1V?$CDynamicPoolEx@VCHeaderDecorator@NEffectUpdateDecorator@@@@A@@YAXXZ
text$di	SEGMENT
??__E?ms_kPool@?$CPooledObject@VCHeaderDecorator@NEffectUpdateDecorator@@@@1V?$CDynamicPoolEx@VCHeaderDecorator@NEffectUpdateDecorator@@@@A@@YAXXZ PROC ; `dynamic initializer for 'CPooledObject<NEffectUpdateDecorator::CHeaderDecorator>::ms_kPool'', COMDAT

; 272  : template <class T> CDynamicPoolEx<T> CPooledObject<T>::ms_kPool;

  00000	68 00 00 00 00	 push	 OFFSET ??__F?ms_kPool@?$CPooledObject@VCHeaderDecorator@NEffectUpdateDecorator@@@@1V?$CDynamicPoolEx@VCHeaderDecorator@NEffectUpdateDecorator@@@@A@@YAXXZ ; `dynamic atexit destructor for 'CPooledObject<NEffectUpdateDecorator::CHeaderDecorator>::ms_kPool''
  00005	e8 00 00 00 00	 call	 _atexit
  0000a	59		 pop	 ecx
  0000b	c3		 ret	 0
??__E?ms_kPool@?$CPooledObject@VCHeaderDecorator@NEffectUpdateDecorator@@@@1V?$CDynamicPoolEx@VCHeaderDecorator@NEffectUpdateDecorator@@@@A@@YAXXZ ENDP ; `dynamic initializer for 'CPooledObject<NEffectUpdateDecorator::CHeaderDecorator>::ms_kPool''
text$di	ENDS
; Function compile flags: /Ogtp
; File C:\Program Files (x86)\Microsoft Visual Studio\2019\Community\VC\Tools\MSVC\14.28.29333\include\xmemory
;	COMDAT ??$_Destroy_range@V?$allocator@PAVCRotationDecorator@NEffectUpdateDecorator@@@std@@@std@@YAXPAPAVCRotationDecorator@NEffectUpdateDecorator@@QAPAV12@AAV?$allocator@PAVCRotationDecorator@NEffectUpdateDecorator@@@0@@Z
_TEXT	SEGMENT
__First$ = 8						; size = 4
__Last$ = 12						; size = 4
__Al$ = 16						; size = 4
??$_Destroy_range@V?$allocator@PAVCRotationDecorator@NEffectUpdateDecorator@@@std@@@std@@YAXPAPAVCRotationDecorator@NEffectUpdateDecorator@@QAPAV12@AAV?$allocator@PAVCRotationDecorator@NEffectUpdateDecorator@@@0@@Z PROC ; std::_Destroy_range<std::allocator<NEffectUpdateDecorator::CRotationDecorator *> >, COMDAT

; 963  :     // note that this is an optimization for debug mode codegen; in release mode the BE removes all of this
; 964  :     using _Ty = typename _Alloc::value_type;
; 965  :     if _CONSTEXPR_IF (!conjunction_v<is_trivially_destructible<_Ty>, _Uses_default_destroy<_Alloc, _Ty*>>) {
; 966  :         for (; _First != _Last; ++_First) {
; 967  :             allocator_traits<_Alloc>::destroy(_Al, _Unfancy(_First));
; 968  :         }
; 969  :     }
; 970  : }

  00000	c2 00 00	 ret	 0
??$_Destroy_range@V?$allocator@PAVCRotationDecorator@NEffectUpdateDecorator@@@std@@@std@@YAXPAPAVCRotationDecorator@NEffectUpdateDecorator@@QAPAV12@AAV?$allocator@PAVCRotationDecorator@NEffectUpdateDecorator@@@0@@Z ENDP ; std::_Destroy_range<std::allocator<NEffectUpdateDecorator::CRotationDecorator *> >
_TEXT	ENDS
; Function compile flags: /Ogtp
; File C:\Program Files (x86)\Microsoft Visual Studio\2019\Community\VC\Tools\MSVC\14.28.29333\include\xmemory
;	COMDAT ??$_Destroy_range@V?$allocator@PAVCGravityDecorator@NEffectUpdateDecorator@@@std@@@std@@YAXPAPAVCGravityDecorator@NEffectUpdateDecorator@@QAPAV12@AAV?$allocator@PAVCGravityDecorator@NEffectUpdateDecorator@@@0@@Z
_TEXT	SEGMENT
__First$ = 8						; size = 4
__Last$ = 12						; size = 4
__Al$ = 16						; size = 4
??$_Destroy_range@V?$allocator@PAVCGravityDecorator@NEffectUpdateDecorator@@@std@@@std@@YAXPAPAVCGravityDecorator@NEffectUpdateDecorator@@QAPAV12@AAV?$allocator@PAVCGravityDecorator@NEffectUpdateDecorator@@@0@@Z PROC ; std::_Destroy_range<std::allocator<NEffectUpdateDecorator::CGravityDecorator *> >, COMDAT

; 963  :     // note that this is an optimization for debug mode codegen; in release mode the BE removes all of this
; 964  :     using _Ty = typename _Alloc::value_type;
; 965  :     if _CONSTEXPR_IF (!conjunction_v<is_trivially_destructible<_Ty>, _Uses_default_destroy<_Alloc, _Ty*>>) {
; 966  :         for (; _First != _Last; ++_First) {
; 967  :             allocator_traits<_Alloc>::destroy(_Al, _Unfancy(_First));
; 968  :         }
; 969  :     }
; 970  : }

  00000	c2 00 00	 ret	 0
??$_Destroy_range@V?$allocator@PAVCGravityDecorator@NEffectUpdateDecorator@@@std@@@std@@YAXPAPAVCGravityDecorator@NEffectUpdateDecorator@@QAPAV12@AAV?$allocator@PAVCGravityDecorator@NEffectUpdateDecorator@@@0@@Z ENDP ; std::_Destroy_range<std::allocator<NEffectUpdateDecorator::CGravityDecorator *> >
_TEXT	ENDS
; Function compile flags: /Ogtp
; File C:\Program Files (x86)\Microsoft Visual Studio\2019\Community\VC\Tools\MSVC\14.28.29333\include\xmemory
;	COMDAT ??$_Destroy_range@V?$allocator@PAVCAirResistanceDecorator@NEffectUpdateDecorator@@@std@@@std@@YAXPAPAVCAirResistanceDecorator@NEffectUpdateDecorator@@QAPAV12@AAV?$allocator@PAVCAirResistanceDecorator@NEffectUpdateDecorator@@@0@@Z
_TEXT	SEGMENT
__First$ = 8						; size = 4
__Last$ = 12						; size = 4
__Al$ = 16						; size = 4
??$_Destroy_range@V?$allocator@PAVCAirResistanceDecorator@NEffectUpdateDecorator@@@std@@@std@@YAXPAPAVCAirResistanceDecorator@NEffectUpdateDecorator@@QAPAV12@AAV?$allocator@PAVCAirResistanceDecorator@NEffectUpdateDecorator@@@0@@Z PROC ; std::_Destroy_range<std::allocator<NEffectUpdateDecorator::CAirResistanceDecorator *> >, COMDAT

; 963  :     // note that this is an optimization for debug mode codegen; in release mode the BE removes all of this
; 964  :     using _Ty = typename _Alloc::value_type;
; 965  :     if _CONSTEXPR_IF (!conjunction_v<is_trivially_destructible<_Ty>, _Uses_default_destroy<_Alloc, _Ty*>>) {
; 966  :         for (; _First != _Last; ++_First) {
; 967  :             allocator_traits<_Alloc>::destroy(_Al, _Unfancy(_First));
; 968  :         }
; 969  :     }
; 970  : }

  00000	c2 00 00	 ret	 0
??$_Destroy_range@V?$allocator@PAVCAirResistanceDecorator@NEffectUpdateDecorator@@@std@@@std@@YAXPAPAVCAirResistanceDecorator@NEffectUpdateDecorator@@QAPAV12@AAV?$allocator@PAVCAirResistanceDecorator@NEffectUpdateDecorator@@@0@@Z ENDP ; std::_Destroy_range<std::allocator<NEffectUpdateDecorator::CAirResistanceDecorator *> >
_TEXT	ENDS
; Function compile flags: /Ogtp
; File C:\Program Files (x86)\Microsoft Visual Studio\2019\Community\VC\Tools\MSVC\14.28.29333\include\xmemory
;	COMDAT ??$_Destroy_range@V?$allocator@PAVCTextureAnimationRandomDecorator@NEffectUpdateDecorator@@@std@@@std@@YAXPAPAVCTextureAnimationRandomDecorator@NEffectUpdateDecorator@@QAPAV12@AAV?$allocator@PAVCTextureAnimationRandomDecorator@NEffectUpdateDecorator@@@0@@Z
_TEXT	SEGMENT
__First$ = 8						; size = 4
__Last$ = 12						; size = 4
__Al$ = 16						; size = 4
??$_Destroy_range@V?$allocator@PAVCTextureAnimationRandomDecorator@NEffectUpdateDecorator@@@std@@@std@@YAXPAPAVCTextureAnimationRandomDecorator@NEffectUpdateDecorator@@QAPAV12@AAV?$allocator@PAVCTextureAnimationRandomDecorator@NEffectUpdateDecorator@@@0@@Z PROC ; std::_Destroy_range<std::allocator<NEffectUpdateDecorator::CTextureAnimationRandomDecorator *> >, COMDAT

; 963  :     // note that this is an optimization for debug mode codegen; in release mode the BE removes all of this
; 964  :     using _Ty = typename _Alloc::value_type;
; 965  :     if _CONSTEXPR_IF (!conjunction_v<is_trivially_destructible<_Ty>, _Uses_default_destroy<_Alloc, _Ty*>>) {
; 966  :         for (; _First != _Last; ++_First) {
; 967  :             allocator_traits<_Alloc>::destroy(_Al, _Unfancy(_First));
; 968  :         }
; 969  :     }
; 970  : }

  00000	c2 00 00	 ret	 0
??$_Destroy_range@V?$allocator@PAVCTextureAnimationRandomDecorator@NEffectUpdateDecorator@@@std@@@std@@YAXPAPAVCTextureAnimationRandomDecorator@NEffectUpdateDecorator@@QAPAV12@AAV?$allocator@PAVCTextureAnimationRandomDecorator@NEffectUpdateDecorator@@@0@@Z ENDP ; std::_Destroy_range<std::allocator<NEffectUpdateDecorator::CTextureAnimationRandomDecorator *> >
_TEXT	ENDS
; Function compile flags: /Ogtp
; File C:\Program Files (x86)\Microsoft Visual Studio\2019\Community\VC\Tools\MSVC\14.28.29333\include\xmemory
;	COMDAT ??$_Destroy_range@V?$allocator@PAVCTextureAnimationCCWDecorator@NEffectUpdateDecorator@@@std@@@std@@YAXPAPAVCTextureAnimationCCWDecorator@NEffectUpdateDecorator@@QAPAV12@AAV?$allocator@PAVCTextureAnimationCCWDecorator@NEffectUpdateDecorator@@@0@@Z
_TEXT	SEGMENT
__First$ = 8						; size = 4
__Last$ = 12						; size = 4
__Al$ = 16						; size = 4
??$_Destroy_range@V?$allocator@PAVCTextureAnimationCCWDecorator@NEffectUpdateDecorator@@@std@@@std@@YAXPAPAVCTextureAnimationCCWDecorator@NEffectUpdateDecorator@@QAPAV12@AAV?$allocator@PAVCTextureAnimationCCWDecorator@NEffectUpdateDecorator@@@0@@Z PROC ; std::_Destroy_range<std::allocator<NEffectUpdateDecorator::CTextureAnimationCCWDecorator *> >, COMDAT

; 963  :     // note that this is an optimization for debug mode codegen; in release mode the BE removes all of this
; 964  :     using _Ty = typename _Alloc::value_type;
; 965  :     if _CONSTEXPR_IF (!conjunction_v<is_trivially_destructible<_Ty>, _Uses_default_destroy<_Alloc, _Ty*>>) {
; 966  :         for (; _First != _Last; ++_First) {
; 967  :             allocator_traits<_Alloc>::destroy(_Al, _Unfancy(_First));
; 968  :         }
; 969  :     }
; 970  : }

  00000	c2 00 00	 ret	 0
??$_Destroy_range@V?$allocator@PAVCTextureAnimationCCWDecorator@NEffectUpdateDecorator@@@std@@@std@@YAXPAPAVCTextureAnimationCCWDecorator@NEffectUpdateDecorator@@QAPAV12@AAV?$allocator@PAVCTextureAnimationCCWDecorator@NEffectUpdateDecorator@@@0@@Z ENDP ; std::_Destroy_range<std::allocator<NEffectUpdateDecorator::CTextureAnimationCCWDecorator *> >
_TEXT	ENDS
; Function compile flags: /Ogtp
; File C:\Program Files (x86)\Microsoft Visual Studio\2019\Community\VC\Tools\MSVC\14.28.29333\include\xmemory
;	COMDAT ??$_Destroy_range@V?$allocator@PAVCTextureAnimationCWDecorator@NEffectUpdateDecorator@@@std@@@std@@YAXPAPAVCTextureAnimationCWDecorator@NEffectUpdateDecorator@@QAPAV12@AAV?$allocator@PAVCTextureAnimationCWDecorator@NEffectUpdateDecorator@@@0@@Z
_TEXT	SEGMENT
__First$ = 8						; size = 4
__Last$ = 12						; size = 4
__Al$ = 16						; size = 4
??$_Destroy_range@V?$allocator@PAVCTextureAnimationCWDecorator@NEffectUpdateDecorator@@@std@@@std@@YAXPAPAVCTextureAnimationCWDecorator@NEffectUpdateDecorator@@QAPAV12@AAV?$allocator@PAVCTextureAnimationCWDecorator@NEffectUpdateDecorator@@@0@@Z PROC ; std::_Destroy_range<std::allocator<NEffectUpdateDecorator::CTextureAnimationCWDecorator *> >, COMDAT

; 963  :     // note that this is an optimization for debug mode codegen; in release mode the BE removes all of this
; 964  :     using _Ty = typename _Alloc::value_type;
; 965  :     if _CONSTEXPR_IF (!conjunction_v<is_trivially_destructible<_Ty>, _Uses_default_destroy<_Alloc, _Ty*>>) {
; 966  :         for (; _First != _Last; ++_First) {
; 967  :             allocator_traits<_Alloc>::destroy(_Al, _Unfancy(_First));
; 968  :         }
; 969  :     }
; 970  : }

  00000	c2 00 00	 ret	 0
??$_Destroy_range@V?$allocator@PAVCTextureAnimationCWDecorator@NEffectUpdateDecorator@@@std@@@std@@YAXPAPAVCTextureAnimationCWDecorator@NEffectUpdateDecorator@@QAPAV12@AAV?$allocator@PAVCTextureAnimationCWDecorator@NEffectUpdateDecorator@@@0@@Z ENDP ; std::_Destroy_range<std::allocator<NEffectUpdateDecorator::CTextureAnimationCWDecorator *> >
_TEXT	ENDS
; Function compile flags: /Ogtp
; File C:\Program Files (x86)\Microsoft Visual Studio\2019\Community\VC\Tools\MSVC\14.28.29333\include\xmemory
;	COMDAT ??$_Destroy_range@V?$allocator@PAVCNullDecorator@NEffectUpdateDecorator@@@std@@@std@@YAXPAPAVCNullDecorator@NEffectUpdateDecorator@@QAPAV12@AAV?$allocator@PAVCNullDecorator@NEffectUpdateDecorator@@@0@@Z
_TEXT	SEGMENT
__First$ = 8						; size = 4
__Last$ = 12						; size = 4
__Al$ = 16						; size = 4
??$_Destroy_range@V?$allocator@PAVCNullDecorator@NEffectUpdateDecorator@@@std@@@std@@YAXPAPAVCNullDecorator@NEffectUpdateDecorator@@QAPAV12@AAV?$allocator@PAVCNullDecorator@NEffectUpdateDecorator@@@0@@Z PROC ; std::_Destroy_range<std::allocator<NEffectUpdateDecorator::CNullDecorator *> >, COMDAT

; 963  :     // note that this is an optimization for debug mode codegen; in release mode the BE removes all of this
; 964  :     using _Ty = typename _Alloc::value_type;
; 965  :     if _CONSTEXPR_IF (!conjunction_v<is_trivially_destructible<_Ty>, _Uses_default_destroy<_Alloc, _Ty*>>) {
; 966  :         for (; _First != _Last; ++_First) {
; 967  :             allocator_traits<_Alloc>::destroy(_Al, _Unfancy(_First));
; 968  :         }
; 969  :     }
; 970  : }

  00000	c2 00 00	 ret	 0
??$_Destroy_range@V?$allocator@PAVCNullDecorator@NEffectUpdateDecorator@@@std@@@std@@YAXPAPAVCNullDecorator@NEffectUpdateDecorator@@QAPAV12@AAV?$allocator@PAVCNullDecorator@NEffectUpdateDecorator@@@0@@Z ENDP ; std::_Destroy_range<std::allocator<NEffectUpdateDecorator::CNullDecorator *> >
_TEXT	ENDS
; Function compile flags: /Ogtp
; File C:\Program Files (x86)\Microsoft Visual Studio\2019\Community\VC\Tools\MSVC\14.28.29333\include\xmemory
;	COMDAT ??$_Destroy_range@V?$allocator@PAVCHeaderDecorator@NEffectUpdateDecorator@@@std@@@std@@YAXPAPAVCHeaderDecorator@NEffectUpdateDecorator@@QAPAV12@AAV?$allocator@PAVCHeaderDecorator@NEffectUpdateDecorator@@@0@@Z
_TEXT	SEGMENT
__First$ = 8						; size = 4
__Last$ = 12						; size = 4
__Al$ = 16						; size = 4
??$_Destroy_range@V?$allocator@PAVCHeaderDecorator@NEffectUpdateDecorator@@@std@@@std@@YAXPAPAVCHeaderDecorator@NEffectUpdateDecorator@@QAPAV12@AAV?$allocator@PAVCHeaderDecorator@NEffectUpdateDecorator@@@0@@Z PROC ; std::_Destroy_range<std::allocator<NEffectUpdateDecorator::CHeaderDecorator *> >, COMDAT

; 963  :     // note that this is an optimization for debug mode codegen; in release mode the BE removes all of this
; 964  :     using _Ty = typename _Alloc::value_type;
; 965  :     if _CONSTEXPR_IF (!conjunction_v<is_trivially_destructible<_Ty>, _Uses_default_destroy<_Alloc, _Ty*>>) {
; 966  :         for (; _First != _Last; ++_First) {
; 967  :             allocator_traits<_Alloc>::destroy(_Al, _Unfancy(_First));
; 968  :         }
; 969  :     }
; 970  : }

  00000	c2 00 00	 ret	 0
??$_Destroy_range@V?$allocator@PAVCHeaderDecorator@NEffectUpdateDecorator@@@std@@@std@@YAXPAPAVCHeaderDecorator@NEffectUpdateDecorator@@QAPAV12@AAV?$allocator@PAVCHeaderDecorator@NEffectUpdateDecorator@@@0@@Z ENDP ; std::_Destroy_range<std::allocator<NEffectUpdateDecorator::CHeaderDecorator *> >
_TEXT	ENDS
; Function compile flags: /Ogtp
;	COMDAT ??_G?$CDynamicPoolEx@VCHeaderDecorator@NEffectUpdateDecorator@@@@UAEPAXI@Z
_TEXT	SEGMENT
___flags$ = 8						; size = 4
??_G?$CDynamicPoolEx@VCHeaderDecorator@NEffectUpdateDecorator@@@@UAEPAXI@Z PROC ; CDynamicPoolEx<NEffectUpdateDecorator::CHeaderDecorator>::`scalar deleting destructor', COMDAT
; _this$ = ecx
  00000	55		 push	 ebp
  00001	8b ec		 mov	 ebp, esp
  00003	56		 push	 esi
  00004	8b f1		 mov	 esi, ecx
  00006	e8 00 00 00 00	 call	 ??1?$CDynamicPoolEx@VCHeaderDecorator@NEffectUpdateDecorator@@@@UAE@XZ ; CDynamicPoolEx<NEffectUpdateDecorator::CHeaderDecorator>::~CDynamicPoolEx<NEffectUpdateDecorator::CHeaderDecorator>
  0000b	f6 45 08 01	 test	 BYTE PTR ___flags$[ebp], 1
  0000f	74 0b		 je	 SHORT $LN4@scalar
  00011	6a 24		 push	 36			; 00000024H
  00013	56		 push	 esi
  00014	e8 00 00 00 00	 call	 ??3@YAXPAXI@Z		; operator delete
  00019	83 c4 08	 add	 esp, 8
$LN4@scalar:
  0001c	8b c6		 mov	 eax, esi
  0001e	5e		 pop	 esi
  0001f	5d		 pop	 ebp
  00020	c2 04 00	 ret	 4
??_G?$CDynamicPoolEx@VCHeaderDecorator@NEffectUpdateDecorator@@@@UAEPAXI@Z ENDP ; CDynamicPoolEx<NEffectUpdateDecorator::CHeaderDecorator>::`scalar deleting destructor'
_TEXT	ENDS
; Function compile flags: /Ogtp
; File D:\Metin2 Server Files\mainline\SRC_2014\Metin2Client\eterLib\Pool.h
;	COMDAT ?Delete@?$CDynamicPoolEx@VCHeaderDecorator@NEffectUpdateDecorator@@@@KAXPAVCHeaderDecorator@NEffectUpdateDecorator@@@Z
_TEXT	SEGMENT
_pkData$ = 8						; size = 4
?Delete@?$CDynamicPoolEx@VCHeaderDecorator@NEffectUpdateDecorator@@@@KAXPAVCHeaderDecorator@NEffectUpdateDecorator@@@Z PROC ; CDynamicPoolEx<NEffectUpdateDecorator::CHeaderDecorator>::Delete, COMDAT

; 224  : 			::operator delete(pkData);

  00000	e9 00 00 00 00	 jmp	 ??3@YAXPAX@Z		; operator delete
?Delete@?$CDynamicPoolEx@VCHeaderDecorator@NEffectUpdateDecorator@@@@KAXPAVCHeaderDecorator@NEffectUpdateDecorator@@@Z ENDP ; CDynamicPoolEx<NEffectUpdateDecorator::CHeaderDecorator>::Delete
_TEXT	ENDS
; Function compile flags: /Ogtp
; File D:\Metin2 Server Files\mainline\SRC_2014\Metin2Client\eterLib\Pool.h
; File C:\Program Files (x86)\Microsoft Visual Studio\2019\Community\VC\Tools\MSVC\14.28.29333\include\vector
; File C:\Program Files (x86)\Microsoft Visual Studio\2019\Community\VC\Tools\MSVC\14.28.29333\include\algorithm
; File D:\Metin2 Server Files\mainline\SRC_2014\Metin2Client\eterLib\Pool.h
; File C:\Program Files (x86)\Microsoft Visual Studio\2019\Community\VC\Tools\MSVC\14.28.29333\include\algorithm
; File D:\Metin2 Server Files\mainline\SRC_2014\Metin2Client\eterLib\Pool.h
; File C:\Program Files (x86)\Microsoft Visual Studio\2019\Community\VC\Tools\MSVC\14.28.29333\include\algorithm
; File D:\Metin2 Server Files\mainline\SRC_2014\Metin2Client\eterLib\Pool.h
; File C:\Program Files (x86)\Microsoft Visual Studio\2019\Community\VC\Tools\MSVC\14.28.29333\include\vector
; File C:\Program Files (x86)\Microsoft Visual Studio\2019\Community\VC\Tools\MSVC\14.28.29333\include\xmemory
; File C:\Program Files (x86)\Microsoft Visual Studio\2019\Community\VC\Tools\MSVC\14.28.29333\include\vector
; File C:\Program Files (x86)\Microsoft Visual Studio\2019\Community\VC\Tools\MSVC\14.28.29333\include\xmemory
; File C:\Program Files (x86)\Microsoft Visual Studio\2019\Community\VC\Tools\MSVC\14.28.29333\include\vector
; File C:\Program Files (x86)\Microsoft Visual Studio\2019\Community\VC\Tools\MSVC\14.28.29333\include\xmemory
; File C:\Program Files (x86)\Microsoft Visual Studio\2019\Community\VC\Tools\MSVC\14.28.29333\include\vector
; File C:\Program Files (x86)\Microsoft Visual Studio\2019\Community\VC\Tools\MSVC\14.28.29333\include\xmemory
; File C:\Program Files (x86)\Microsoft Visual Studio\2019\Community\VC\Tools\MSVC\14.28.29333\include\vector
; File D:\Metin2 Server Files\mainline\SRC_2014\Metin2Client\eterLib\Pool.h
;	COMDAT ??1?$CDynamicPoolEx@VCHeaderDecorator@NEffectUpdateDecorator@@@@UAE@XZ
_TEXT	SEGMENT
??1?$CDynamicPoolEx@VCHeaderDecorator@NEffectUpdateDecorator@@@@UAE@XZ PROC ; CDynamicPoolEx<NEffectUpdateDecorator::CHeaderDecorator>::~CDynamicPoolEx<NEffectUpdateDecorator::CHeaderDecorator>, COMDAT
; _this$ = ecx

; 132  : 		{

  00000	53		 push	 ebx
  00001	56		 push	 esi
  00002	57		 push	 edi
  00003	8b f9		 mov	 edi, ecx
  00005	c7 07 00 00 00
	00		 mov	 DWORD PTR [edi], OFFSET ??_7?$CDynamicPoolEx@VCHeaderDecorator@NEffectUpdateDecorator@@@@6B@
; File C:\Program Files (x86)\Microsoft Visual Studio\2019\Community\VC\Tools\MSVC\14.28.29333\include\vector

; 42   :     _Vector_const_iterator(_Tptr _Parg, const _Container_base* _Pvector) noexcept : _Ptr(_Parg) {

  0000b	8b 5f 08	 mov	 ebx, DWORD PTR [edi+8]
  0000e	8b 77 04	 mov	 esi, DWORD PTR [edi+4]
; File C:\Program Files (x86)\Microsoft Visual Studio\2019\Community\VC\Tools\MSVC\14.28.29333\include\algorithm

; 307  :     for (; _UFirst != _ULast; ++_UFirst) {

  00011	3b f3		 cmp	 esi, ebx
  00013	74 14		 je	 SHORT $LN19@CDynamicPo
$LL20@CDynamicPo:
; File D:\Metin2 Server Files\mainline\SRC_2014\Metin2Client\eterLib\Pool.h

; 224  : 			::operator delete(pkData);

  00015	ff 36		 push	 DWORD PTR [esi]
  00017	e8 00 00 00 00	 call	 ??3@YAXPAX@Z		; operator delete
; File C:\Program Files (x86)\Microsoft Visual Studio\2019\Community\VC\Tools\MSVC\14.28.29333\include\algorithm

; 307  :     for (; _UFirst != _ULast; ++_UFirst) {

  0001c	83 c6 04	 add	 esi, 4
; File D:\Metin2 Server Files\mainline\SRC_2014\Metin2Client\eterLib\Pool.h

; 224  : 			::operator delete(pkData);

  0001f	83 c4 04	 add	 esp, 4
; File C:\Program Files (x86)\Microsoft Visual Studio\2019\Community\VC\Tools\MSVC\14.28.29333\include\algorithm

; 307  :     for (; _UFirst != _ULast; ++_UFirst) {

  00022	3b f3		 cmp	 esi, ebx
  00024	75 ef		 jne	 SHORT $LL20@CDynamicPo
  00026	8b 77 04	 mov	 esi, DWORD PTR [edi+4]
$LN19@CDynamicPo:
; File D:\Metin2 Server Files\mainline\SRC_2014\Metin2Client\eterLib\Pool.h

; 162  : 			m_kVct_pkFree.clear();

  00029	8b 4f 10	 mov	 ecx, DWORD PTR [edi+16]
  0002c	89 77 08	 mov	 DWORD PTR [edi+8], esi
  0002f	89 4f 14	 mov	 DWORD PTR [edi+20], ecx
; File C:\Program Files (x86)\Microsoft Visual Studio\2019\Community\VC\Tools\MSVC\14.28.29333\include\vector

; 1694 :         if (_Myfirst) { // destroy and deallocate old array

  00032	85 c9		 test	 ecx, ecx
  00034	74 27		 je	 SHORT $LN27@CDynamicPo

; 1695 :             _Destroy(_Myfirst, _Mylast);
; 1696 :             _Getal().deallocate(_Myfirst, static_cast<size_type>(_Myend - _Myfirst));

  00036	8b 47 18	 mov	 eax, DWORD PTR [edi+24]
  00039	2b c1		 sub	 eax, ecx
; File C:\Program Files (x86)\Microsoft Visual Studio\2019\Community\VC\Tools\MSVC\14.28.29333\include\xmemory

; 810  :         _Deallocate<_New_alignof<_Ty>>(_Ptr, sizeof(_Ty) * _Count);

  0003b	83 e0 fc	 and	 eax, -4			; fffffffcH
  0003e	50		 push	 eax
  0003f	51		 push	 ecx
  00040	e8 00 00 00 00	 call	 ??$_Deallocate@$07$0A@@std@@YAXPAXI@Z ; std::_Deallocate<8,0>
; File C:\Program Files (x86)\Microsoft Visual Studio\2019\Community\VC\Tools\MSVC\14.28.29333\include\vector

; 1698 :             _Myfirst = pointer();

  00045	c7 47 10 00 00
	00 00		 mov	 DWORD PTR [edi+16], 0
; File C:\Program Files (x86)\Microsoft Visual Studio\2019\Community\VC\Tools\MSVC\14.28.29333\include\xmemory

; 810  :         _Deallocate<_New_alignof<_Ty>>(_Ptr, sizeof(_Ty) * _Count);

  0004c	83 c4 08	 add	 esp, 8
; File C:\Program Files (x86)\Microsoft Visual Studio\2019\Community\VC\Tools\MSVC\14.28.29333\include\vector

; 1699 :             _Mylast  = pointer();

  0004f	c7 47 14 00 00
	00 00		 mov	 DWORD PTR [edi+20], 0

; 1700 :             _Myend   = pointer();

  00056	c7 47 18 00 00
	00 00		 mov	 DWORD PTR [edi+24], 0
$LN27@CDynamicPo:

; 1694 :         if (_Myfirst) { // destroy and deallocate old array

  0005d	8b 4f 04	 mov	 ecx, DWORD PTR [edi+4]
  00060	85 c9		 test	 ecx, ecx
  00062	74 27		 je	 SHORT $LN34@CDynamicPo

; 1695 :             _Destroy(_Myfirst, _Mylast);
; 1696 :             _Getal().deallocate(_Myfirst, static_cast<size_type>(_Myend - _Myfirst));

  00064	8b 47 0c	 mov	 eax, DWORD PTR [edi+12]
  00067	2b c1		 sub	 eax, ecx
; File C:\Program Files (x86)\Microsoft Visual Studio\2019\Community\VC\Tools\MSVC\14.28.29333\include\xmemory

; 810  :         _Deallocate<_New_alignof<_Ty>>(_Ptr, sizeof(_Ty) * _Count);

  00069	83 e0 fc	 and	 eax, -4			; fffffffcH
  0006c	50		 push	 eax
  0006d	51		 push	 ecx
  0006e	e8 00 00 00 00	 call	 ??$_Deallocate@$07$0A@@std@@YAXPAXI@Z ; std::_Deallocate<8,0>
; File C:\Program Files (x86)\Microsoft Visual Studio\2019\Community\VC\Tools\MSVC\14.28.29333\include\vector

; 1698 :             _Myfirst = pointer();

  00073	c7 47 04 00 00
	00 00		 mov	 DWORD PTR [edi+4], 0
; File C:\Program Files (x86)\Microsoft Visual Studio\2019\Community\VC\Tools\MSVC\14.28.29333\include\xmemory

; 810  :         _Deallocate<_New_alignof<_Ty>>(_Ptr, sizeof(_Ty) * _Count);

  0007a	83 c4 08	 add	 esp, 8
; File C:\Program Files (x86)\Microsoft Visual Studio\2019\Community\VC\Tools\MSVC\14.28.29333\include\vector

; 1699 :             _Mylast  = pointer();

  0007d	c7 47 08 00 00
	00 00		 mov	 DWORD PTR [edi+8], 0

; 1700 :             _Myend   = pointer();

  00084	c7 47 0c 00 00
	00 00		 mov	 DWORD PTR [edi+12], 0
$LN34@CDynamicPo:
  0008b	5f		 pop	 edi
; File D:\Metin2 Server Files\mainline\SRC_2014\Metin2Client\eterLib\Pool.h

; 142  : 		}

  0008c	5e		 pop	 esi
  0008d	5b		 pop	 ebx
  0008e	c3		 ret	 0
??1?$CDynamicPoolEx@VCHeaderDecorator@NEffectUpdateDecorator@@@@UAE@XZ ENDP ; CDynamicPoolEx<NEffectUpdateDecorator::CHeaderDecorator>::~CDynamicPoolEx<NEffectUpdateDecorator::CHeaderDecorator>
_TEXT	ENDS
; Function compile flags: /Ogtp
;	COMDAT ??_G?$CDynamicPoolEx@VCNullDecorator@NEffectUpdateDecorator@@@@UAEPAXI@Z
_TEXT	SEGMENT
___flags$ = 8						; size = 4
??_G?$CDynamicPoolEx@VCNullDecorator@NEffectUpdateDecorator@@@@UAEPAXI@Z PROC ; CDynamicPoolEx<NEffectUpdateDecorator::CNullDecorator>::`scalar deleting destructor', COMDAT
; _this$ = ecx
  00000	55		 push	 ebp
  00001	8b ec		 mov	 ebp, esp
  00003	56		 push	 esi
  00004	8b f1		 mov	 esi, ecx
  00006	e8 00 00 00 00	 call	 ??1?$CDynamicPoolEx@VCNullDecorator@NEffectUpdateDecorator@@@@UAE@XZ ; CDynamicPoolEx<NEffectUpdateDecorator::CNullDecorator>::~CDynamicPoolEx<NEffectUpdateDecorator::CNullDecorator>
  0000b	f6 45 08 01	 test	 BYTE PTR ___flags$[ebp], 1
  0000f	74 0b		 je	 SHORT $LN4@scalar
  00011	6a 24		 push	 36			; 00000024H
  00013	56		 push	 esi
  00014	e8 00 00 00 00	 call	 ??3@YAXPAXI@Z		; operator delete
  00019	83 c4 08	 add	 esp, 8
$LN4@scalar:
  0001c	8b c6		 mov	 eax, esi
  0001e	5e		 pop	 esi
  0001f	5d		 pop	 ebp
  00020	c2 04 00	 ret	 4
??_G?$CDynamicPoolEx@VCNullDecorator@NEffectUpdateDecorator@@@@UAEPAXI@Z ENDP ; CDynamicPoolEx<NEffectUpdateDecorator::CNullDecorator>::`scalar deleting destructor'
_TEXT	ENDS
; Function compile flags: /Ogtp
; File D:\Metin2 Server Files\mainline\SRC_2014\Metin2Client\eterLib\Pool.h
;	COMDAT ?Delete@?$CDynamicPoolEx@VCNullDecorator@NEffectUpdateDecorator@@@@KAXPAVCNullDecorator@NEffectUpdateDecorator@@@Z
_TEXT	SEGMENT
_pkData$ = 8						; size = 4
?Delete@?$CDynamicPoolEx@VCNullDecorator@NEffectUpdateDecorator@@@@KAXPAVCNullDecorator@NEffectUpdateDecorator@@@Z PROC ; CDynamicPoolEx<NEffectUpdateDecorator::CNullDecorator>::Delete, COMDAT

; 224  : 			::operator delete(pkData);

  00000	e9 00 00 00 00	 jmp	 ??3@YAXPAX@Z		; operator delete
?Delete@?$CDynamicPoolEx@VCNullDecorator@NEffectUpdateDecorator@@@@KAXPAVCNullDecorator@NEffectUpdateDecorator@@@Z ENDP ; CDynamicPoolEx<NEffectUpdateDecorator::CNullDecorator>::Delete
_TEXT	ENDS
; Function compile flags: /Ogtp
; File D:\Metin2 Server Files\mainline\SRC_2014\Metin2Client\eterLib\Pool.h
; File C:\Program Files (x86)\Microsoft Visual Studio\2019\Community\VC\Tools\MSVC\14.28.29333\include\vector
; File C:\Program Files (x86)\Microsoft Visual Studio\2019\Community\VC\Tools\MSVC\14.28.29333\include\algorithm
; File D:\Metin2 Server Files\mainline\SRC_2014\Metin2Client\eterLib\Pool.h
; File C:\Program Files (x86)\Microsoft Visual Studio\2019\Community\VC\Tools\MSVC\14.28.29333\include\algorithm
; File D:\Metin2 Server Files\mainline\SRC_2014\Metin2Client\eterLib\Pool.h
; File C:\Program Files (x86)\Microsoft Visual Studio\2019\Community\VC\Tools\MSVC\14.28.29333\include\algorithm
; File D:\Metin2 Server Files\mainline\SRC_2014\Metin2Client\eterLib\Pool.h
; File C:\Program Files (x86)\Microsoft Visual Studio\2019\Community\VC\Tools\MSVC\14.28.29333\include\vector
; File C:\Program Files (x86)\Microsoft Visual Studio\2019\Community\VC\Tools\MSVC\14.28.29333\include\xmemory
; File C:\Program Files (x86)\Microsoft Visual Studio\2019\Community\VC\Tools\MSVC\14.28.29333\include\vector
; File C:\Program Files (x86)\Microsoft Visual Studio\2019\Community\VC\Tools\MSVC\14.28.29333\include\xmemory
; File C:\Program Files (x86)\Microsoft Visual Studio\2019\Community\VC\Tools\MSVC\14.28.29333\include\vector
; File C:\Program Files (x86)\Microsoft Visual Studio\2019\Community\VC\Tools\MSVC\14.28.29333\include\xmemory
; File C:\Program Files (x86)\Microsoft Visual Studio\2019\Community\VC\Tools\MSVC\14.28.29333\include\vector
; File C:\Program Files (x86)\Microsoft Visual Studio\2019\Community\VC\Tools\MSVC\14.28.29333\include\xmemory
; File C:\Program Files (x86)\Microsoft Visual Studio\2019\Community\VC\Tools\MSVC\14.28.29333\include\vector
; File D:\Metin2 Server Files\mainline\SRC_2014\Metin2Client\eterLib\Pool.h
;	COMDAT ??1?$CDynamicPoolEx@VCNullDecorator@NEffectUpdateDecorator@@@@UAE@XZ
_TEXT	SEGMENT
??1?$CDynamicPoolEx@VCNullDecorator@NEffectUpdateDecorator@@@@UAE@XZ PROC ; CDynamicPoolEx<NEffectUpdateDecorator::CNullDecorator>::~CDynamicPoolEx<NEffectUpdateDecorator::CNullDecorator>, COMDAT
; _this$ = ecx

; 132  : 		{

  00000	53		 push	 ebx
  00001	56		 push	 esi
  00002	57		 push	 edi
  00003	8b f9		 mov	 edi, ecx
  00005	c7 07 00 00 00
	00		 mov	 DWORD PTR [edi], OFFSET ??_7?$CDynamicPoolEx@VCNullDecorator@NEffectUpdateDecorator@@@@6B@
; File C:\Program Files (x86)\Microsoft Visual Studio\2019\Community\VC\Tools\MSVC\14.28.29333\include\vector

; 42   :     _Vector_const_iterator(_Tptr _Parg, const _Container_base* _Pvector) noexcept : _Ptr(_Parg) {

  0000b	8b 5f 08	 mov	 ebx, DWORD PTR [edi+8]
  0000e	8b 77 04	 mov	 esi, DWORD PTR [edi+4]
; File C:\Program Files (x86)\Microsoft Visual Studio\2019\Community\VC\Tools\MSVC\14.28.29333\include\algorithm

; 307  :     for (; _UFirst != _ULast; ++_UFirst) {

  00011	3b f3		 cmp	 esi, ebx
  00013	74 14		 je	 SHORT $LN19@CDynamicPo
$LL20@CDynamicPo:
; File D:\Metin2 Server Files\mainline\SRC_2014\Metin2Client\eterLib\Pool.h

; 224  : 			::operator delete(pkData);

  00015	ff 36		 push	 DWORD PTR [esi]
  00017	e8 00 00 00 00	 call	 ??3@YAXPAX@Z		; operator delete
; File C:\Program Files (x86)\Microsoft Visual Studio\2019\Community\VC\Tools\MSVC\14.28.29333\include\algorithm

; 307  :     for (; _UFirst != _ULast; ++_UFirst) {

  0001c	83 c6 04	 add	 esi, 4
; File D:\Metin2 Server Files\mainline\SRC_2014\Metin2Client\eterLib\Pool.h

; 224  : 			::operator delete(pkData);

  0001f	83 c4 04	 add	 esp, 4
; File C:\Program Files (x86)\Microsoft Visual Studio\2019\Community\VC\Tools\MSVC\14.28.29333\include\algorithm

; 307  :     for (; _UFirst != _ULast; ++_UFirst) {

  00022	3b f3		 cmp	 esi, ebx
  00024	75 ef		 jne	 SHORT $LL20@CDynamicPo
  00026	8b 77 04	 mov	 esi, DWORD PTR [edi+4]
$LN19@CDynamicPo:
; File D:\Metin2 Server Files\mainline\SRC_2014\Metin2Client\eterLib\Pool.h

; 162  : 			m_kVct_pkFree.clear();

  00029	8b 4f 10	 mov	 ecx, DWORD PTR [edi+16]
  0002c	89 77 08	 mov	 DWORD PTR [edi+8], esi
  0002f	89 4f 14	 mov	 DWORD PTR [edi+20], ecx
; File C:\Program Files (x86)\Microsoft Visual Studio\2019\Community\VC\Tools\MSVC\14.28.29333\include\vector

; 1694 :         if (_Myfirst) { // destroy and deallocate old array

  00032	85 c9		 test	 ecx, ecx
  00034	74 27		 je	 SHORT $LN27@CDynamicPo

; 1695 :             _Destroy(_Myfirst, _Mylast);
; 1696 :             _Getal().deallocate(_Myfirst, static_cast<size_type>(_Myend - _Myfirst));

  00036	8b 47 18	 mov	 eax, DWORD PTR [edi+24]
  00039	2b c1		 sub	 eax, ecx
; File C:\Program Files (x86)\Microsoft Visual Studio\2019\Community\VC\Tools\MSVC\14.28.29333\include\xmemory

; 810  :         _Deallocate<_New_alignof<_Ty>>(_Ptr, sizeof(_Ty) * _Count);

  0003b	83 e0 fc	 and	 eax, -4			; fffffffcH
  0003e	50		 push	 eax
  0003f	51		 push	 ecx
  00040	e8 00 00 00 00	 call	 ??$_Deallocate@$07$0A@@std@@YAXPAXI@Z ; std::_Deallocate<8,0>
; File C:\Program Files (x86)\Microsoft Visual Studio\2019\Community\VC\Tools\MSVC\14.28.29333\include\vector

; 1698 :             _Myfirst = pointer();

  00045	c7 47 10 00 00
	00 00		 mov	 DWORD PTR [edi+16], 0
; File C:\Program Files (x86)\Microsoft Visual Studio\2019\Community\VC\Tools\MSVC\14.28.29333\include\xmemory

; 810  :         _Deallocate<_New_alignof<_Ty>>(_Ptr, sizeof(_Ty) * _Count);

  0004c	83 c4 08	 add	 esp, 8
; File C:\Program Files (x86)\Microsoft Visual Studio\2019\Community\VC\Tools\MSVC\14.28.29333\include\vector

; 1699 :             _Mylast  = pointer();

  0004f	c7 47 14 00 00
	00 00		 mov	 DWORD PTR [edi+20], 0

; 1700 :             _Myend   = pointer();

  00056	c7 47 18 00 00
	00 00		 mov	 DWORD PTR [edi+24], 0
$LN27@CDynamicPo:

; 1694 :         if (_Myfirst) { // destroy and deallocate old array

  0005d	8b 4f 04	 mov	 ecx, DWORD PTR [edi+4]
  00060	85 c9		 test	 ecx, ecx
  00062	74 27		 je	 SHORT $LN34@CDynamicPo

; 1695 :             _Destroy(_Myfirst, _Mylast);
; 1696 :             _Getal().deallocate(_Myfirst, static_cast<size_type>(_Myend - _Myfirst));

  00064	8b 47 0c	 mov	 eax, DWORD PTR [edi+12]
  00067	2b c1		 sub	 eax, ecx
; File C:\Program Files (x86)\Microsoft Visual Studio\2019\Community\VC\Tools\MSVC\14.28.29333\include\xmemory

; 810  :         _Deallocate<_New_alignof<_Ty>>(_Ptr, sizeof(_Ty) * _Count);

  00069	83 e0 fc	 and	 eax, -4			; fffffffcH
  0006c	50		 push	 eax
  0006d	51		 push	 ecx
  0006e	e8 00 00 00 00	 call	 ??$_Deallocate@$07$0A@@std@@YAXPAXI@Z ; std::_Deallocate<8,0>
; File C:\Program Files (x86)\Microsoft Visual Studio\2019\Community\VC\Tools\MSVC\14.28.29333\include\vector

; 1698 :             _Myfirst = pointer();

  00073	c7 47 04 00 00
	00 00		 mov	 DWORD PTR [edi+4], 0
; File C:\Program Files (x86)\Microsoft Visual Studio\2019\Community\VC\Tools\MSVC\14.28.29333\include\xmemory

; 810  :         _Deallocate<_New_alignof<_Ty>>(_Ptr, sizeof(_Ty) * _Count);

  0007a	83 c4 08	 add	 esp, 8
; File C:\Program Files (x86)\Microsoft Visual Studio\2019\Community\VC\Tools\MSVC\14.28.29333\include\vector

; 1699 :             _Mylast  = pointer();

  0007d	c7 47 08 00 00
	00 00		 mov	 DWORD PTR [edi+8], 0

; 1700 :             _Myend   = pointer();

  00084	c7 47 0c 00 00
	00 00		 mov	 DWORD PTR [edi+12], 0
$LN34@CDynamicPo:
  0008b	5f		 pop	 edi
; File D:\Metin2 Server Files\mainline\SRC_2014\Metin2Client\eterLib\Pool.h

; 142  : 		}

  0008c	5e		 pop	 esi
  0008d	5b		 pop	 ebx
  0008e	c3		 ret	 0
??1?$CDynamicPoolEx@VCNullDecorator@NEffectUpdateDecorator@@@@UAE@XZ ENDP ; CDynamicPoolEx<NEffectUpdateDecorator::CNullDecorator>::~CDynamicPoolEx<NEffectUpdateDecorator::CNullDecorator>
_TEXT	ENDS
; Function compile flags: /Ogtp
;	COMDAT ??_G?$CDynamicPoolEx@VCTextureAnimationCWDecorator@NEffectUpdateDecorator@@@@UAEPAXI@Z
_TEXT	SEGMENT
___flags$ = 8						; size = 4
??_G?$CDynamicPoolEx@VCTextureAnimationCWDecorator@NEffectUpdateDecorator@@@@UAEPAXI@Z PROC ; CDynamicPoolEx<NEffectUpdateDecorator::CTextureAnimationCWDecorator>::`scalar deleting destructor', COMDAT
; _this$ = ecx
  00000	55		 push	 ebp
  00001	8b ec		 mov	 ebp, esp
  00003	56		 push	 esi
  00004	8b f1		 mov	 esi, ecx
  00006	e8 00 00 00 00	 call	 ??1?$CDynamicPoolEx@VCTextureAnimationCWDecorator@NEffectUpdateDecorator@@@@UAE@XZ ; CDynamicPoolEx<NEffectUpdateDecorator::CTextureAnimationCWDecorator>::~CDynamicPoolEx<NEffectUpdateDecorator::CTextureAnimationCWDecorator>
  0000b	f6 45 08 01	 test	 BYTE PTR ___flags$[ebp], 1
  0000f	74 0b		 je	 SHORT $LN4@scalar
  00011	6a 24		 push	 36			; 00000024H
  00013	56		 push	 esi
  00014	e8 00 00 00 00	 call	 ??3@YAXPAXI@Z		; operator delete
  00019	83 c4 08	 add	 esp, 8
$LN4@scalar:
  0001c	8b c6		 mov	 eax, esi
  0001e	5e		 pop	 esi
  0001f	5d		 pop	 ebp
  00020	c2 04 00	 ret	 4
??_G?$CDynamicPoolEx@VCTextureAnimationCWDecorator@NEffectUpdateDecorator@@@@UAEPAXI@Z ENDP ; CDynamicPoolEx<NEffectUpdateDecorator::CTextureAnimationCWDecorator>::`scalar deleting destructor'
_TEXT	ENDS
; Function compile flags: /Ogtp
; File D:\Metin2 Server Files\mainline\SRC_2014\Metin2Client\eterLib\Pool.h
;	COMDAT ?Delete@?$CDynamicPoolEx@VCTextureAnimationCWDecorator@NEffectUpdateDecorator@@@@KAXPAVCTextureAnimationCWDecorator@NEffectUpdateDecorator@@@Z
_TEXT	SEGMENT
_pkData$ = 8						; size = 4
?Delete@?$CDynamicPoolEx@VCTextureAnimationCWDecorator@NEffectUpdateDecorator@@@@KAXPAVCTextureAnimationCWDecorator@NEffectUpdateDecorator@@@Z PROC ; CDynamicPoolEx<NEffectUpdateDecorator::CTextureAnimationCWDecorator>::Delete, COMDAT

; 224  : 			::operator delete(pkData);

  00000	e9 00 00 00 00	 jmp	 ??3@YAXPAX@Z		; operator delete
?Delete@?$CDynamicPoolEx@VCTextureAnimationCWDecorator@NEffectUpdateDecorator@@@@KAXPAVCTextureAnimationCWDecorator@NEffectUpdateDecorator@@@Z ENDP ; CDynamicPoolEx<NEffectUpdateDecorator::CTextureAnimationCWDecorator>::Delete
_TEXT	ENDS
; Function compile flags: /Ogtp
; File D:\Metin2 Server Files\mainline\SRC_2014\Metin2Client\eterLib\Pool.h
; File C:\Program Files (x86)\Microsoft Visual Studio\2019\Community\VC\Tools\MSVC\14.28.29333\include\vector
; File C:\Program Files (x86)\Microsoft Visual Studio\2019\Community\VC\Tools\MSVC\14.28.29333\include\algorithm
; File D:\Metin2 Server Files\mainline\SRC_2014\Metin2Client\eterLib\Pool.h
; File C:\Program Files (x86)\Microsoft Visual Studio\2019\Community\VC\Tools\MSVC\14.28.29333\include\algorithm
; File D:\Metin2 Server Files\mainline\SRC_2014\Metin2Client\eterLib\Pool.h
; File C:\Program Files (x86)\Microsoft Visual Studio\2019\Community\VC\Tools\MSVC\14.28.29333\include\algorithm
; File D:\Metin2 Server Files\mainline\SRC_2014\Metin2Client\eterLib\Pool.h
; File C:\Program Files (x86)\Microsoft Visual Studio\2019\Community\VC\Tools\MSVC\14.28.29333\include\vector
; File C:\Program Files (x86)\Microsoft Visual Studio\2019\Community\VC\Tools\MSVC\14.28.29333\include\xmemory
; File C:\Program Files (x86)\Microsoft Visual Studio\2019\Community\VC\Tools\MSVC\14.28.29333\include\vector
; File C:\Program Files (x86)\Microsoft Visual Studio\2019\Community\VC\Tools\MSVC\14.28.29333\include\xmemory
; File C:\Program Files (x86)\Microsoft Visual Studio\2019\Community\VC\Tools\MSVC\14.28.29333\include\vector
; File C:\Program Files (x86)\Microsoft Visual Studio\2019\Community\VC\Tools\MSVC\14.28.29333\include\xmemory
; File C:\Program Files (x86)\Microsoft Visual Studio\2019\Community\VC\Tools\MSVC\14.28.29333\include\vector
; File C:\Program Files (x86)\Microsoft Visual Studio\2019\Community\VC\Tools\MSVC\14.28.29333\include\xmemory
; File C:\Program Files (x86)\Microsoft Visual Studio\2019\Community\VC\Tools\MSVC\14.28.29333\include\vector
; File D:\Metin2 Server Files\mainline\SRC_2014\Metin2Client\eterLib\Pool.h
;	COMDAT ??1?$CDynamicPoolEx@VCTextureAnimationCWDecorator@NEffectUpdateDecorator@@@@UAE@XZ
_TEXT	SEGMENT
??1?$CDynamicPoolEx@VCTextureAnimationCWDecorator@NEffectUpdateDecorator@@@@UAE@XZ PROC ; CDynamicPoolEx<NEffectUpdateDecorator::CTextureAnimationCWDecorator>::~CDynamicPoolEx<NEffectUpdateDecorator::CTextureAnimationCWDecorator>, COMDAT
; _this$ = ecx

; 132  : 		{

  00000	53		 push	 ebx
  00001	56		 push	 esi
  00002	57		 push	 edi
  00003	8b f9		 mov	 edi, ecx
  00005	c7 07 00 00 00
	00		 mov	 DWORD PTR [edi], OFFSET ??_7?$CDynamicPoolEx@VCTextureAnimationCWDecorator@NEffectUpdateDecorator@@@@6B@
; File C:\Program Files (x86)\Microsoft Visual Studio\2019\Community\VC\Tools\MSVC\14.28.29333\include\vector

; 42   :     _Vector_const_iterator(_Tptr _Parg, const _Container_base* _Pvector) noexcept : _Ptr(_Parg) {

  0000b	8b 5f 08	 mov	 ebx, DWORD PTR [edi+8]
  0000e	8b 77 04	 mov	 esi, DWORD PTR [edi+4]
; File C:\Program Files (x86)\Microsoft Visual Studio\2019\Community\VC\Tools\MSVC\14.28.29333\include\algorithm

; 307  :     for (; _UFirst != _ULast; ++_UFirst) {

  00011	3b f3		 cmp	 esi, ebx
  00013	74 14		 je	 SHORT $LN19@CDynamicPo
$LL20@CDynamicPo:
; File D:\Metin2 Server Files\mainline\SRC_2014\Metin2Client\eterLib\Pool.h

; 224  : 			::operator delete(pkData);

  00015	ff 36		 push	 DWORD PTR [esi]
  00017	e8 00 00 00 00	 call	 ??3@YAXPAX@Z		; operator delete
; File C:\Program Files (x86)\Microsoft Visual Studio\2019\Community\VC\Tools\MSVC\14.28.29333\include\algorithm

; 307  :     for (; _UFirst != _ULast; ++_UFirst) {

  0001c	83 c6 04	 add	 esi, 4
; File D:\Metin2 Server Files\mainline\SRC_2014\Metin2Client\eterLib\Pool.h

; 224  : 			::operator delete(pkData);

  0001f	83 c4 04	 add	 esp, 4
; File C:\Program Files (x86)\Microsoft Visual Studio\2019\Community\VC\Tools\MSVC\14.28.29333\include\algorithm

; 307  :     for (; _UFirst != _ULast; ++_UFirst) {

  00022	3b f3		 cmp	 esi, ebx
  00024	75 ef		 jne	 SHORT $LL20@CDynamicPo
  00026	8b 77 04	 mov	 esi, DWORD PTR [edi+4]
$LN19@CDynamicPo:
; File D:\Metin2 Server Files\mainline\SRC_2014\Metin2Client\eterLib\Pool.h

; 162  : 			m_kVct_pkFree.clear();

  00029	8b 4f 10	 mov	 ecx, DWORD PTR [edi+16]
  0002c	89 77 08	 mov	 DWORD PTR [edi+8], esi
  0002f	89 4f 14	 mov	 DWORD PTR [edi+20], ecx
; File C:\Program Files (x86)\Microsoft Visual Studio\2019\Community\VC\Tools\MSVC\14.28.29333\include\vector

; 1694 :         if (_Myfirst) { // destroy and deallocate old array

  00032	85 c9		 test	 ecx, ecx
  00034	74 27		 je	 SHORT $LN27@CDynamicPo

; 1695 :             _Destroy(_Myfirst, _Mylast);
; 1696 :             _Getal().deallocate(_Myfirst, static_cast<size_type>(_Myend - _Myfirst));

  00036	8b 47 18	 mov	 eax, DWORD PTR [edi+24]
  00039	2b c1		 sub	 eax, ecx
; File C:\Program Files (x86)\Microsoft Visual Studio\2019\Community\VC\Tools\MSVC\14.28.29333\include\xmemory

; 810  :         _Deallocate<_New_alignof<_Ty>>(_Ptr, sizeof(_Ty) * _Count);

  0003b	83 e0 fc	 and	 eax, -4			; fffffffcH
  0003e	50		 push	 eax
  0003f	51		 push	 ecx
  00040	e8 00 00 00 00	 call	 ??$_Deallocate@$07$0A@@std@@YAXPAXI@Z ; std::_Deallocate<8,0>
; File C:\Program Files (x86)\Microsoft Visual Studio\2019\Community\VC\Tools\MSVC\14.28.29333\include\vector

; 1698 :             _Myfirst = pointer();

  00045	c7 47 10 00 00
	00 00		 mov	 DWORD PTR [edi+16], 0
; File C:\Program Files (x86)\Microsoft Visual Studio\2019\Community\VC\Tools\MSVC\14.28.29333\include\xmemory

; 810  :         _Deallocate<_New_alignof<_Ty>>(_Ptr, sizeof(_Ty) * _Count);

  0004c	83 c4 08	 add	 esp, 8
; File C:\Program Files (x86)\Microsoft Visual Studio\2019\Community\VC\Tools\MSVC\14.28.29333\include\vector

; 1699 :             _Mylast  = pointer();

  0004f	c7 47 14 00 00
	00 00		 mov	 DWORD PTR [edi+20], 0

; 1700 :             _Myend   = pointer();

  00056	c7 47 18 00 00
	00 00		 mov	 DWORD PTR [edi+24], 0
$LN27@CDynamicPo:

; 1694 :         if (_Myfirst) { // destroy and deallocate old array

  0005d	8b 4f 04	 mov	 ecx, DWORD PTR [edi+4]
  00060	85 c9		 test	 ecx, ecx
  00062	74 27		 je	 SHORT $LN34@CDynamicPo

; 1695 :             _Destroy(_Myfirst, _Mylast);
; 1696 :             _Getal().deallocate(_Myfirst, static_cast<size_type>(_Myend - _Myfirst));

  00064	8b 47 0c	 mov	 eax, DWORD PTR [edi+12]
  00067	2b c1		 sub	 eax, ecx
; File C:\Program Files (x86)\Microsoft Visual Studio\2019\Community\VC\Tools\MSVC\14.28.29333\include\xmemory

; 810  :         _Deallocate<_New_alignof<_Ty>>(_Ptr, sizeof(_Ty) * _Count);

  00069	83 e0 fc	 and	 eax, -4			; fffffffcH
  0006c	50		 push	 eax
  0006d	51		 push	 ecx
  0006e	e8 00 00 00 00	 call	 ??$_Deallocate@$07$0A@@std@@YAXPAXI@Z ; std::_Deallocate<8,0>
; File C:\Program Files (x86)\Microsoft Visual Studio\2019\Community\VC\Tools\MSVC\14.28.29333\include\vector

; 1698 :             _Myfirst = pointer();

  00073	c7 47 04 00 00
	00 00		 mov	 DWORD PTR [edi+4], 0
; File C:\Program Files (x86)\Microsoft Visual Studio\2019\Community\VC\Tools\MSVC\14.28.29333\include\xmemory

; 810  :         _Deallocate<_New_alignof<_Ty>>(_Ptr, sizeof(_Ty) * _Count);

  0007a	83 c4 08	 add	 esp, 8
; File C:\Program Files (x86)\Microsoft Visual Studio\2019\Community\VC\Tools\MSVC\14.28.29333\include\vector

; 1699 :             _Mylast  = pointer();

  0007d	c7 47 08 00 00
	00 00		 mov	 DWORD PTR [edi+8], 0

; 1700 :             _Myend   = pointer();

  00084	c7 47 0c 00 00
	00 00		 mov	 DWORD PTR [edi+12], 0
$LN34@CDynamicPo:
  0008b	5f		 pop	 edi
; File D:\Metin2 Server Files\mainline\SRC_2014\Metin2Client\eterLib\Pool.h

; 142  : 		}

  0008c	5e		 pop	 esi
  0008d	5b		 pop	 ebx
  0008e	c3		 ret	 0
??1?$CDynamicPoolEx@VCTextureAnimationCWDecorator@NEffectUpdateDecorator@@@@UAE@XZ ENDP ; CDynamicPoolEx<NEffectUpdateDecorator::CTextureAnimationCWDecorator>::~CDynamicPoolEx<NEffectUpdateDecorator::CTextureAnimationCWDecorator>
_TEXT	ENDS
; Function compile flags: /Ogtp
;	COMDAT ??_G?$CDynamicPoolEx@VCTextureAnimationCCWDecorator@NEffectUpdateDecorator@@@@UAEPAXI@Z
_TEXT	SEGMENT
___flags$ = 8						; size = 4
??_G?$CDynamicPoolEx@VCTextureAnimationCCWDecorator@NEffectUpdateDecorator@@@@UAEPAXI@Z PROC ; CDynamicPoolEx<NEffectUpdateDecorator::CTextureAnimationCCWDecorator>::`scalar deleting destructor', COMDAT
; _this$ = ecx
  00000	55		 push	 ebp
  00001	8b ec		 mov	 ebp, esp
  00003	56		 push	 esi
  00004	8b f1		 mov	 esi, ecx
  00006	e8 00 00 00 00	 call	 ??1?$CDynamicPoolEx@VCTextureAnimationCCWDecorator@NEffectUpdateDecorator@@@@UAE@XZ ; CDynamicPoolEx<NEffectUpdateDecorator::CTextureAnimationCCWDecorator>::~CDynamicPoolEx<NEffectUpdateDecorator::CTextureAnimationCCWDecorator>
  0000b	f6 45 08 01	 test	 BYTE PTR ___flags$[ebp], 1
  0000f	74 0b		 je	 SHORT $LN4@scalar
  00011	6a 24		 push	 36			; 00000024H
  00013	56		 push	 esi
  00014	e8 00 00 00 00	 call	 ??3@YAXPAXI@Z		; operator delete
  00019	83 c4 08	 add	 esp, 8
$LN4@scalar:
  0001c	8b c6		 mov	 eax, esi
  0001e	5e		 pop	 esi
  0001f	5d		 pop	 ebp
  00020	c2 04 00	 ret	 4
??_G?$CDynamicPoolEx@VCTextureAnimationCCWDecorator@NEffectUpdateDecorator@@@@UAEPAXI@Z ENDP ; CDynamicPoolEx<NEffectUpdateDecorator::CTextureAnimationCCWDecorator>::`scalar deleting destructor'
_TEXT	ENDS
; Function compile flags: /Ogtp
; File D:\Metin2 Server Files\mainline\SRC_2014\Metin2Client\eterLib\Pool.h
;	COMDAT ?Delete@?$CDynamicPoolEx@VCTextureAnimationCCWDecorator@NEffectUpdateDecorator@@@@KAXPAVCTextureAnimationCCWDecorator@NEffectUpdateDecorator@@@Z
_TEXT	SEGMENT
_pkData$ = 8						; size = 4
?Delete@?$CDynamicPoolEx@VCTextureAnimationCCWDecorator@NEffectUpdateDecorator@@@@KAXPAVCTextureAnimationCCWDecorator@NEffectUpdateDecorator@@@Z PROC ; CDynamicPoolEx<NEffectUpdateDecorator::CTextureAnimationCCWDecorator>::Delete, COMDAT

; 224  : 			::operator delete(pkData);

  00000	e9 00 00 00 00	 jmp	 ??3@YAXPAX@Z		; operator delete
?Delete@?$CDynamicPoolEx@VCTextureAnimationCCWDecorator@NEffectUpdateDecorator@@@@KAXPAVCTextureAnimationCCWDecorator@NEffectUpdateDecorator@@@Z ENDP ; CDynamicPoolEx<NEffectUpdateDecorator::CTextureAnimationCCWDecorator>::Delete
_TEXT	ENDS
; Function compile flags: /Ogtp
; File D:\Metin2 Server Files\mainline\SRC_2014\Metin2Client\eterLib\Pool.h
; File C:\Program Files (x86)\Microsoft Visual Studio\2019\Community\VC\Tools\MSVC\14.28.29333\include\vector
; File C:\Program Files (x86)\Microsoft Visual Studio\2019\Community\VC\Tools\MSVC\14.28.29333\include\algorithm
; File D:\Metin2 Server Files\mainline\SRC_2014\Metin2Client\eterLib\Pool.h
; File C:\Program Files (x86)\Microsoft Visual Studio\2019\Community\VC\Tools\MSVC\14.28.29333\include\algorithm
; File D:\Metin2 Server Files\mainline\SRC_2014\Metin2Client\eterLib\Pool.h
; File C:\Program Files (x86)\Microsoft Visual Studio\2019\Community\VC\Tools\MSVC\14.28.29333\include\algorithm
; File D:\Metin2 Server Files\mainline\SRC_2014\Metin2Client\eterLib\Pool.h
; File C:\Program Files (x86)\Microsoft Visual Studio\2019\Community\VC\Tools\MSVC\14.28.29333\include\vector
; File C:\Program Files (x86)\Microsoft Visual Studio\2019\Community\VC\Tools\MSVC\14.28.29333\include\xmemory
; File C:\Program Files (x86)\Microsoft Visual Studio\2019\Community\VC\Tools\MSVC\14.28.29333\include\vector
; File C:\Program Files (x86)\Microsoft Visual Studio\2019\Community\VC\Tools\MSVC\14.28.29333\include\xmemory
; File C:\Program Files (x86)\Microsoft Visual Studio\2019\Community\VC\Tools\MSVC\14.28.29333\include\vector
; File C:\Program Files (x86)\Microsoft Visual Studio\2019\Community\VC\Tools\MSVC\14.28.29333\include\xmemory
; File C:\Program Files (x86)\Microsoft Visual Studio\2019\Community\VC\Tools\MSVC\14.28.29333\include\vector
; File C:\Program Files (x86)\Microsoft Visual Studio\2019\Community\VC\Tools\MSVC\14.28.29333\include\xmemory
; File C:\Program Files (x86)\Microsoft Visual Studio\2019\Community\VC\Tools\MSVC\14.28.29333\include\vector
; File D:\Metin2 Server Files\mainline\SRC_2014\Metin2Client\eterLib\Pool.h
;	COMDAT ??1?$CDynamicPoolEx@VCTextureAnimationCCWDecorator@NEffectUpdateDecorator@@@@UAE@XZ
_TEXT	SEGMENT
??1?$CDynamicPoolEx@VCTextureAnimationCCWDecorator@NEffectUpdateDecorator@@@@UAE@XZ PROC ; CDynamicPoolEx<NEffectUpdateDecorator::CTextureAnimationCCWDecorator>::~CDynamicPoolEx<NEffectUpdateDecorator::CTextureAnimationCCWDecorator>, COMDAT
; _this$ = ecx

; 132  : 		{

  00000	53		 push	 ebx
  00001	56		 push	 esi
  00002	57		 push	 edi
  00003	8b f9		 mov	 edi, ecx
  00005	c7 07 00 00 00
	00		 mov	 DWORD PTR [edi], OFFSET ??_7?$CDynamicPoolEx@VCTextureAnimationCCWDecorator@NEffectUpdateDecorator@@@@6B@
; File C:\Program Files (x86)\Microsoft Visual Studio\2019\Community\VC\Tools\MSVC\14.28.29333\include\vector

; 42   :     _Vector_const_iterator(_Tptr _Parg, const _Container_base* _Pvector) noexcept : _Ptr(_Parg) {

  0000b	8b 5f 08	 mov	 ebx, DWORD PTR [edi+8]
  0000e	8b 77 04	 mov	 esi, DWORD PTR [edi+4]
; File C:\Program Files (x86)\Microsoft Visual Studio\2019\Community\VC\Tools\MSVC\14.28.29333\include\algorithm

; 307  :     for (; _UFirst != _ULast; ++_UFirst) {

  00011	3b f3		 cmp	 esi, ebx
  00013	74 14		 je	 SHORT $LN19@CDynamicPo
$LL20@CDynamicPo:
; File D:\Metin2 Server Files\mainline\SRC_2014\Metin2Client\eterLib\Pool.h

; 224  : 			::operator delete(pkData);

  00015	ff 36		 push	 DWORD PTR [esi]
  00017	e8 00 00 00 00	 call	 ??3@YAXPAX@Z		; operator delete
; File C:\Program Files (x86)\Microsoft Visual Studio\2019\Community\VC\Tools\MSVC\14.28.29333\include\algorithm

; 307  :     for (; _UFirst != _ULast; ++_UFirst) {

  0001c	83 c6 04	 add	 esi, 4
; File D:\Metin2 Server Files\mainline\SRC_2014\Metin2Client\eterLib\Pool.h

; 224  : 			::operator delete(pkData);

  0001f	83 c4 04	 add	 esp, 4
; File C:\Program Files (x86)\Microsoft Visual Studio\2019\Community\VC\Tools\MSVC\14.28.29333\include\algorithm

; 307  :     for (; _UFirst != _ULast; ++_UFirst) {

  00022	3b f3		 cmp	 esi, ebx
  00024	75 ef		 jne	 SHORT $LL20@CDynamicPo
  00026	8b 77 04	 mov	 esi, DWORD PTR [edi+4]
$LN19@CDynamicPo:
; File D:\Metin2 Server Files\mainline\SRC_2014\Metin2Client\eterLib\Pool.h

; 162  : 			m_kVct_pkFree.clear();

  00029	8b 4f 10	 mov	 ecx, DWORD PTR [edi+16]
  0002c	89 77 08	 mov	 DWORD PTR [edi+8], esi
  0002f	89 4f 14	 mov	 DWORD PTR [edi+20], ecx
; File C:\Program Files (x86)\Microsoft Visual Studio\2019\Community\VC\Tools\MSVC\14.28.29333\include\vector

; 1694 :         if (_Myfirst) { // destroy and deallocate old array

  00032	85 c9		 test	 ecx, ecx
  00034	74 27		 je	 SHORT $LN27@CDynamicPo

; 1695 :             _Destroy(_Myfirst, _Mylast);
; 1696 :             _Getal().deallocate(_Myfirst, static_cast<size_type>(_Myend - _Myfirst));

  00036	8b 47 18	 mov	 eax, DWORD PTR [edi+24]
  00039	2b c1		 sub	 eax, ecx
; File C:\Program Files (x86)\Microsoft Visual Studio\2019\Community\VC\Tools\MSVC\14.28.29333\include\xmemory

; 810  :         _Deallocate<_New_alignof<_Ty>>(_Ptr, sizeof(_Ty) * _Count);

  0003b	83 e0 fc	 and	 eax, -4			; fffffffcH
  0003e	50		 push	 eax
  0003f	51		 push	 ecx
  00040	e8 00 00 00 00	 call	 ??$_Deallocate@$07$0A@@std@@YAXPAXI@Z ; std::_Deallocate<8,0>
; File C:\Program Files (x86)\Microsoft Visual Studio\2019\Community\VC\Tools\MSVC\14.28.29333\include\vector

; 1698 :             _Myfirst = pointer();

  00045	c7 47 10 00 00
	00 00		 mov	 DWORD PTR [edi+16], 0
; File C:\Program Files (x86)\Microsoft Visual Studio\2019\Community\VC\Tools\MSVC\14.28.29333\include\xmemory

; 810  :         _Deallocate<_New_alignof<_Ty>>(_Ptr, sizeof(_Ty) * _Count);

  0004c	83 c4 08	 add	 esp, 8
; File C:\Program Files (x86)\Microsoft Visual Studio\2019\Community\VC\Tools\MSVC\14.28.29333\include\vector

; 1699 :             _Mylast  = pointer();

  0004f	c7 47 14 00 00
	00 00		 mov	 DWORD PTR [edi+20], 0

; 1700 :             _Myend   = pointer();

  00056	c7 47 18 00 00
	00 00		 mov	 DWORD PTR [edi+24], 0
$LN27@CDynamicPo:

; 1694 :         if (_Myfirst) { // destroy and deallocate old array

  0005d	8b 4f 04	 mov	 ecx, DWORD PTR [edi+4]
  00060	85 c9		 test	 ecx, ecx
  00062	74 27		 je	 SHORT $LN34@CDynamicPo

; 1695 :             _Destroy(_Myfirst, _Mylast);
; 1696 :             _Getal().deallocate(_Myfirst, static_cast<size_type>(_Myend - _Myfirst));

  00064	8b 47 0c	 mov	 eax, DWORD PTR [edi+12]
  00067	2b c1		 sub	 eax, ecx
; File C:\Program Files (x86)\Microsoft Visual Studio\2019\Community\VC\Tools\MSVC\14.28.29333\include\xmemory

; 810  :         _Deallocate<_New_alignof<_Ty>>(_Ptr, sizeof(_Ty) * _Count);

  00069	83 e0 fc	 and	 eax, -4			; fffffffcH
  0006c	50		 push	 eax
  0006d	51		 push	 ecx
  0006e	e8 00 00 00 00	 call	 ??$_Deallocate@$07$0A@@std@@YAXPAXI@Z ; std::_Deallocate<8,0>
; File C:\Program Files (x86)\Microsoft Visual Studio\2019\Community\VC\Tools\MSVC\14.28.29333\include\vector

; 1698 :             _Myfirst = pointer();

  00073	c7 47 04 00 00
	00 00		 mov	 DWORD PTR [edi+4], 0
; File C:\Program Files (x86)\Microsoft Visual Studio\2019\Community\VC\Tools\MSVC\14.28.29333\include\xmemory

; 810  :         _Deallocate<_New_alignof<_Ty>>(_Ptr, sizeof(_Ty) * _Count);

  0007a	83 c4 08	 add	 esp, 8
; File C:\Program Files (x86)\Microsoft Visual Studio\2019\Community\VC\Tools\MSVC\14.28.29333\include\vector

; 1699 :             _Mylast  = pointer();

  0007d	c7 47 08 00 00
	00 00		 mov	 DWORD PTR [edi+8], 0

; 1700 :             _Myend   = pointer();

  00084	c7 47 0c 00 00
	00 00		 mov	 DWORD PTR [edi+12], 0
$LN34@CDynamicPo:
  0008b	5f		 pop	 edi
; File D:\Metin2 Server Files\mainline\SRC_2014\Metin2Client\eterLib\Pool.h

; 142  : 		}

  0008c	5e		 pop	 esi
  0008d	5b		 pop	 ebx
  0008e	c3		 ret	 0
??1?$CDynamicPoolEx@VCTextureAnimationCCWDecorator@NEffectUpdateDecorator@@@@UAE@XZ ENDP ; CDynamicPoolEx<NEffectUpdateDecorator::CTextureAnimationCCWDecorator>::~CDynamicPoolEx<NEffectUpdateDecorator::CTextureAnimationCCWDecorator>
_TEXT	ENDS
; Function compile flags: /Ogtp
;	COMDAT ??_G?$CDynamicPoolEx@VCTextureAnimationRandomDecorator@NEffectUpdateDecorator@@@@UAEPAXI@Z
_TEXT	SEGMENT
___flags$ = 8						; size = 4
??_G?$CDynamicPoolEx@VCTextureAnimationRandomDecorator@NEffectUpdateDecorator@@@@UAEPAXI@Z PROC ; CDynamicPoolEx<NEffectUpdateDecorator::CTextureAnimationRandomDecorator>::`scalar deleting destructor', COMDAT
; _this$ = ecx
  00000	55		 push	 ebp
  00001	8b ec		 mov	 ebp, esp
  00003	56		 push	 esi
  00004	8b f1		 mov	 esi, ecx
  00006	e8 00 00 00 00	 call	 ??1?$CDynamicPoolEx@VCTextureAnimationRandomDecorator@NEffectUpdateDecorator@@@@UAE@XZ ; CDynamicPoolEx<NEffectUpdateDecorator::CTextureAnimationRandomDecorator>::~CDynamicPoolEx<NEffectUpdateDecorator::CTextureAnimationRandomDecorator>
  0000b	f6 45 08 01	 test	 BYTE PTR ___flags$[ebp], 1
  0000f	74 0b		 je	 SHORT $LN4@scalar
  00011	6a 24		 push	 36			; 00000024H
  00013	56		 push	 esi
  00014	e8 00 00 00 00	 call	 ??3@YAXPAXI@Z		; operator delete
  00019	83 c4 08	 add	 esp, 8
$LN4@scalar:
  0001c	8b c6		 mov	 eax, esi
  0001e	5e		 pop	 esi
  0001f	5d		 pop	 ebp
  00020	c2 04 00	 ret	 4
??_G?$CDynamicPoolEx@VCTextureAnimationRandomDecorator@NEffectUpdateDecorator@@@@UAEPAXI@Z ENDP ; CDynamicPoolEx<NEffectUpdateDecorator::CTextureAnimationRandomDecorator>::`scalar deleting destructor'
_TEXT	ENDS
; Function compile flags: /Ogtp
; File D:\Metin2 Server Files\mainline\SRC_2014\Metin2Client\eterLib\Pool.h
;	COMDAT ?Delete@?$CDynamicPoolEx@VCTextureAnimationRandomDecorator@NEffectUpdateDecorator@@@@KAXPAVCTextureAnimationRandomDecorator@NEffectUpdateDecorator@@@Z
_TEXT	SEGMENT
_pkData$ = 8						; size = 4
?Delete@?$CDynamicPoolEx@VCTextureAnimationRandomDecorator@NEffectUpdateDecorator@@@@KAXPAVCTextureAnimationRandomDecorator@NEffectUpdateDecorator@@@Z PROC ; CDynamicPoolEx<NEffectUpdateDecorator::CTextureAnimationRandomDecorator>::Delete, COMDAT

; 224  : 			::operator delete(pkData);

  00000	e9 00 00 00 00	 jmp	 ??3@YAXPAX@Z		; operator delete
?Delete@?$CDynamicPoolEx@VCTextureAnimationRandomDecorator@NEffectUpdateDecorator@@@@KAXPAVCTextureAnimationRandomDecorator@NEffectUpdateDecorator@@@Z ENDP ; CDynamicPoolEx<NEffectUpdateDecorator::CTextureAnimationRandomDecorator>::Delete
_TEXT	ENDS
; Function compile flags: /Ogtp
; File D:\Metin2 Server Files\mainline\SRC_2014\Metin2Client\eterLib\Pool.h
; File C:\Program Files (x86)\Microsoft Visual Studio\2019\Community\VC\Tools\MSVC\14.28.29333\include\vector
; File C:\Program Files (x86)\Microsoft Visual Studio\2019\Community\VC\Tools\MSVC\14.28.29333\include\algorithm
; File D:\Metin2 Server Files\mainline\SRC_2014\Metin2Client\eterLib\Pool.h
; File C:\Program Files (x86)\Microsoft Visual Studio\2019\Community\VC\Tools\MSVC\14.28.29333\include\algorithm
; File D:\Metin2 Server Files\mainline\SRC_2014\Metin2Client\eterLib\Pool.h
; File C:\Program Files (x86)\Microsoft Visual Studio\2019\Community\VC\Tools\MSVC\14.28.29333\include\algorithm
; File D:\Metin2 Server Files\mainline\SRC_2014\Metin2Client\eterLib\Pool.h
; File C:\Program Files (x86)\Microsoft Visual Studio\2019\Community\VC\Tools\MSVC\14.28.29333\include\vector
; File C:\Program Files (x86)\Microsoft Visual Studio\2019\Community\VC\Tools\MSVC\14.28.29333\include\xmemory
; File C:\Program Files (x86)\Microsoft Visual Studio\2019\Community\VC\Tools\MSVC\14.28.29333\include\vector
; File C:\Program Files (x86)\Microsoft Visual Studio\2019\Community\VC\Tools\MSVC\14.28.29333\include\xmemory
; File C:\Program Files (x86)\Microsoft Visual Studio\2019\Community\VC\Tools\MSVC\14.28.29333\include\vector
; File C:\Program Files (x86)\Microsoft Visual Studio\2019\Community\VC\Tools\MSVC\14.28.29333\include\xmemory
; File C:\Program Files (x86)\Microsoft Visual Studio\2019\Community\VC\Tools\MSVC\14.28.29333\include\vector
; File C:\Program Files (x86)\Microsoft Visual Studio\2019\Community\VC\Tools\MSVC\14.28.29333\include\xmemory
; File C:\Program Files (x86)\Microsoft Visual Studio\2019\Community\VC\Tools\MSVC\14.28.29333\include\vector
; File D:\Metin2 Server Files\mainline\SRC_2014\Metin2Client\eterLib\Pool.h
;	COMDAT ??1?$CDynamicPoolEx@VCTextureAnimationRandomDecorator@NEffectUpdateDecorator@@@@UAE@XZ
_TEXT	SEGMENT
??1?$CDynamicPoolEx@VCTextureAnimationRandomDecorator@NEffectUpdateDecorator@@@@UAE@XZ PROC ; CDynamicPoolEx<NEffectUpdateDecorator::CTextureAnimationRandomDecorator>::~CDynamicPoolEx<NEffectUpdateDecorator::CTextureAnimationRandomDecorator>, COMDAT
; _this$ = ecx

; 132  : 		{

  00000	53		 push	 ebx
  00001	56		 push	 esi
  00002	57		 push	 edi
  00003	8b f9		 mov	 edi, ecx
  00005	c7 07 00 00 00
	00		 mov	 DWORD PTR [edi], OFFSET ??_7?$CDynamicPoolEx@VCTextureAnimationRandomDecorator@NEffectUpdateDecorator@@@@6B@
; File C:\Program Files (x86)\Microsoft Visual Studio\2019\Community\VC\Tools\MSVC\14.28.29333\include\vector

; 42   :     _Vector_const_iterator(_Tptr _Parg, const _Container_base* _Pvector) noexcept : _Ptr(_Parg) {

  0000b	8b 5f 08	 mov	 ebx, DWORD PTR [edi+8]
  0000e	8b 77 04	 mov	 esi, DWORD PTR [edi+4]
; File C:\Program Files (x86)\Microsoft Visual Studio\2019\Community\VC\Tools\MSVC\14.28.29333\include\algorithm

; 307  :     for (; _UFirst != _ULast; ++_UFirst) {

  00011	3b f3		 cmp	 esi, ebx
  00013	74 14		 je	 SHORT $LN19@CDynamicPo
$LL20@CDynamicPo:
; File D:\Metin2 Server Files\mainline\SRC_2014\Metin2Client\eterLib\Pool.h

; 224  : 			::operator delete(pkData);

  00015	ff 36		 push	 DWORD PTR [esi]
  00017	e8 00 00 00 00	 call	 ??3@YAXPAX@Z		; operator delete
; File C:\Program Files (x86)\Microsoft Visual Studio\2019\Community\VC\Tools\MSVC\14.28.29333\include\algorithm

; 307  :     for (; _UFirst != _ULast; ++_UFirst) {

  0001c	83 c6 04	 add	 esi, 4
; File D:\Metin2 Server Files\mainline\SRC_2014\Metin2Client\eterLib\Pool.h

; 224  : 			::operator delete(pkData);

  0001f	83 c4 04	 add	 esp, 4
; File C:\Program Files (x86)\Microsoft Visual Studio\2019\Community\VC\Tools\MSVC\14.28.29333\include\algorithm

; 307  :     for (; _UFirst != _ULast; ++_UFirst) {

  00022	3b f3		 cmp	 esi, ebx
  00024	75 ef		 jne	 SHORT $LL20@CDynamicPo
  00026	8b 77 04	 mov	 esi, DWORD PTR [edi+4]
$LN19@CDynamicPo:
; File D:\Metin2 Server Files\mainline\SRC_2014\Metin2Client\eterLib\Pool.h

; 162  : 			m_kVct_pkFree.clear();

  00029	8b 4f 10	 mov	 ecx, DWORD PTR [edi+16]
  0002c	89 77 08	 mov	 DWORD PTR [edi+8], esi
  0002f	89 4f 14	 mov	 DWORD PTR [edi+20], ecx
; File C:\Program Files (x86)\Microsoft Visual Studio\2019\Community\VC\Tools\MSVC\14.28.29333\include\vector

; 1694 :         if (_Myfirst) { // destroy and deallocate old array

  00032	85 c9		 test	 ecx, ecx
  00034	74 27		 je	 SHORT $LN27@CDynamicPo

; 1695 :             _Destroy(_Myfirst, _Mylast);
; 1696 :             _Getal().deallocate(_Myfirst, static_cast<size_type>(_Myend - _Myfirst));

  00036	8b 47 18	 mov	 eax, DWORD PTR [edi+24]
  00039	2b c1		 sub	 eax, ecx
; File C:\Program Files (x86)\Microsoft Visual Studio\2019\Community\VC\Tools\MSVC\14.28.29333\include\xmemory

; 810  :         _Deallocate<_New_alignof<_Ty>>(_Ptr, sizeof(_Ty) * _Count);

  0003b	83 e0 fc	 and	 eax, -4			; fffffffcH
  0003e	50		 push	 eax
  0003f	51		 push	 ecx
  00040	e8 00 00 00 00	 call	 ??$_Deallocate@$07$0A@@std@@YAXPAXI@Z ; std::_Deallocate<8,0>
; File C:\Program Files (x86)\Microsoft Visual Studio\2019\Community\VC\Tools\MSVC\14.28.29333\include\vector

; 1698 :             _Myfirst = pointer();

  00045	c7 47 10 00 00
	00 00		 mov	 DWORD PTR [edi+16], 0
; File C:\Program Files (x86)\Microsoft Visual Studio\2019\Community\VC\Tools\MSVC\14.28.29333\include\xmemory

; 810  :         _Deallocate<_New_alignof<_Ty>>(_Ptr, sizeof(_Ty) * _Count);

  0004c	83 c4 08	 add	 esp, 8
; File C:\Program Files (x86)\Microsoft Visual Studio\2019\Community\VC\Tools\MSVC\14.28.29333\include\vector

; 1699 :             _Mylast  = pointer();

  0004f	c7 47 14 00 00
	00 00		 mov	 DWORD PTR [edi+20], 0

; 1700 :             _Myend   = pointer();

  00056	c7 47 18 00 00
	00 00		 mov	 DWORD PTR [edi+24], 0
$LN27@CDynamicPo:

; 1694 :         if (_Myfirst) { // destroy and deallocate old array

  0005d	8b 4f 04	 mov	 ecx, DWORD PTR [edi+4]
  00060	85 c9		 test	 ecx, ecx
  00062	74 27		 je	 SHORT $LN34@CDynamicPo

; 1695 :             _Destroy(_Myfirst, _Mylast);
; 1696 :             _Getal().deallocate(_Myfirst, static_cast<size_type>(_Myend - _Myfirst));

  00064	8b 47 0c	 mov	 eax, DWORD PTR [edi+12]
  00067	2b c1		 sub	 eax, ecx
; File C:\Program Files (x86)\Microsoft Visual Studio\2019\Community\VC\Tools\MSVC\14.28.29333\include\xmemory

; 810  :         _Deallocate<_New_alignof<_Ty>>(_Ptr, sizeof(_Ty) * _Count);

  00069	83 e0 fc	 and	 eax, -4			; fffffffcH
  0006c	50		 push	 eax
  0006d	51		 push	 ecx
  0006e	e8 00 00 00 00	 call	 ??$_Deallocate@$07$0A@@std@@YAXPAXI@Z ; std::_Deallocate<8,0>
; File C:\Program Files (x86)\Microsoft Visual Studio\2019\Community\VC\Tools\MSVC\14.28.29333\include\vector

; 1698 :             _Myfirst = pointer();

  00073	c7 47 04 00 00
	00 00		 mov	 DWORD PTR [edi+4], 0
; File C:\Program Files (x86)\Microsoft Visual Studio\2019\Community\VC\Tools\MSVC\14.28.29333\include\xmemory

; 810  :         _Deallocate<_New_alignof<_Ty>>(_Ptr, sizeof(_Ty) * _Count);

  0007a	83 c4 08	 add	 esp, 8
; File C:\Program Files (x86)\Microsoft Visual Studio\2019\Community\VC\Tools\MSVC\14.28.29333\include\vector

; 1699 :             _Mylast  = pointer();

  0007d	c7 47 08 00 00
	00 00		 mov	 DWORD PTR [edi+8], 0

; 1700 :             _Myend   = pointer();

  00084	c7 47 0c 00 00
	00 00		 mov	 DWORD PTR [edi+12], 0
$LN34@CDynamicPo:
  0008b	5f		 pop	 edi
; File D:\Metin2 Server Files\mainline\SRC_2014\Metin2Client\eterLib\Pool.h

; 142  : 		}

  0008c	5e		 pop	 esi
  0008d	5b		 pop	 ebx
  0008e	c3		 ret	 0
??1?$CDynamicPoolEx@VCTextureAnimationRandomDecorator@NEffectUpdateDecorator@@@@UAE@XZ ENDP ; CDynamicPoolEx<NEffectUpdateDecorator::CTextureAnimationRandomDecorator>::~CDynamicPoolEx<NEffectUpdateDecorator::CTextureAnimationRandomDecorator>
_TEXT	ENDS
; Function compile flags: /Ogtp
;	COMDAT ??_G?$CDynamicPoolEx@VCAirResistanceDecorator@NEffectUpdateDecorator@@@@UAEPAXI@Z
_TEXT	SEGMENT
___flags$ = 8						; size = 4
??_G?$CDynamicPoolEx@VCAirResistanceDecorator@NEffectUpdateDecorator@@@@UAEPAXI@Z PROC ; CDynamicPoolEx<NEffectUpdateDecorator::CAirResistanceDecorator>::`scalar deleting destructor', COMDAT
; _this$ = ecx
  00000	55		 push	 ebp
  00001	8b ec		 mov	 ebp, esp
  00003	56		 push	 esi
  00004	8b f1		 mov	 esi, ecx
  00006	e8 00 00 00 00	 call	 ??1?$CDynamicPoolEx@VCAirResistanceDecorator@NEffectUpdateDecorator@@@@UAE@XZ ; CDynamicPoolEx<NEffectUpdateDecorator::CAirResistanceDecorator>::~CDynamicPoolEx<NEffectUpdateDecorator::CAirResistanceDecorator>
  0000b	f6 45 08 01	 test	 BYTE PTR ___flags$[ebp], 1
  0000f	74 0b		 je	 SHORT $LN4@scalar
  00011	6a 24		 push	 36			; 00000024H
  00013	56		 push	 esi
  00014	e8 00 00 00 00	 call	 ??3@YAXPAXI@Z		; operator delete
  00019	83 c4 08	 add	 esp, 8
$LN4@scalar:
  0001c	8b c6		 mov	 eax, esi
  0001e	5e		 pop	 esi
  0001f	5d		 pop	 ebp
  00020	c2 04 00	 ret	 4
??_G?$CDynamicPoolEx@VCAirResistanceDecorator@NEffectUpdateDecorator@@@@UAEPAXI@Z ENDP ; CDynamicPoolEx<NEffectUpdateDecorator::CAirResistanceDecorator>::`scalar deleting destructor'
_TEXT	ENDS
; Function compile flags: /Ogtp
; File D:\Metin2 Server Files\mainline\SRC_2014\Metin2Client\eterLib\Pool.h
;	COMDAT ?Delete@?$CDynamicPoolEx@VCAirResistanceDecorator@NEffectUpdateDecorator@@@@KAXPAVCAirResistanceDecorator@NEffectUpdateDecorator@@@Z
_TEXT	SEGMENT
_pkData$ = 8						; size = 4
?Delete@?$CDynamicPoolEx@VCAirResistanceDecorator@NEffectUpdateDecorator@@@@KAXPAVCAirResistanceDecorator@NEffectUpdateDecorator@@@Z PROC ; CDynamicPoolEx<NEffectUpdateDecorator::CAirResistanceDecorator>::Delete, COMDAT

; 224  : 			::operator delete(pkData);

  00000	e9 00 00 00 00	 jmp	 ??3@YAXPAX@Z		; operator delete
?Delete@?$CDynamicPoolEx@VCAirResistanceDecorator@NEffectUpdateDecorator@@@@KAXPAVCAirResistanceDecorator@NEffectUpdateDecorator@@@Z ENDP ; CDynamicPoolEx<NEffectUpdateDecorator::CAirResistanceDecorator>::Delete
_TEXT	ENDS
; Function compile flags: /Ogtp
; File D:\Metin2 Server Files\mainline\SRC_2014\Metin2Client\eterLib\Pool.h
; File C:\Program Files (x86)\Microsoft Visual Studio\2019\Community\VC\Tools\MSVC\14.28.29333\include\vector
; File C:\Program Files (x86)\Microsoft Visual Studio\2019\Community\VC\Tools\MSVC\14.28.29333\include\algorithm
; File D:\Metin2 Server Files\mainline\SRC_2014\Metin2Client\eterLib\Pool.h
; File C:\Program Files (x86)\Microsoft Visual Studio\2019\Community\VC\Tools\MSVC\14.28.29333\include\algorithm
; File D:\Metin2 Server Files\mainline\SRC_2014\Metin2Client\eterLib\Pool.h
; File C:\Program Files (x86)\Microsoft Visual Studio\2019\Community\VC\Tools\MSVC\14.28.29333\include\algorithm
; File D:\Metin2 Server Files\mainline\SRC_2014\Metin2Client\eterLib\Pool.h
; File C:\Program Files (x86)\Microsoft Visual Studio\2019\Community\VC\Tools\MSVC\14.28.29333\include\vector
; File C:\Program Files (x86)\Microsoft Visual Studio\2019\Community\VC\Tools\MSVC\14.28.29333\include\xmemory
; File C:\Program Files (x86)\Microsoft Visual Studio\2019\Community\VC\Tools\MSVC\14.28.29333\include\vector
; File C:\Program Files (x86)\Microsoft Visual Studio\2019\Community\VC\Tools\MSVC\14.28.29333\include\xmemory
; File C:\Program Files (x86)\Microsoft Visual Studio\2019\Community\VC\Tools\MSVC\14.28.29333\include\vector
; File C:\Program Files (x86)\Microsoft Visual Studio\2019\Community\VC\Tools\MSVC\14.28.29333\include\xmemory
; File C:\Program Files (x86)\Microsoft Visual Studio\2019\Community\VC\Tools\MSVC\14.28.29333\include\vector
; File C:\Program Files (x86)\Microsoft Visual Studio\2019\Community\VC\Tools\MSVC\14.28.29333\include\xmemory
; File C:\Program Files (x86)\Microsoft Visual Studio\2019\Community\VC\Tools\MSVC\14.28.29333\include\vector
; File D:\Metin2 Server Files\mainline\SRC_2014\Metin2Client\eterLib\Pool.h
;	COMDAT ??1?$CDynamicPoolEx@VCAirResistanceDecorator@NEffectUpdateDecorator@@@@UAE@XZ
_TEXT	SEGMENT
??1?$CDynamicPoolEx@VCAirResistanceDecorator@NEffectUpdateDecorator@@@@UAE@XZ PROC ; CDynamicPoolEx<NEffectUpdateDecorator::CAirResistanceDecorator>::~CDynamicPoolEx<NEffectUpdateDecorator::CAirResistanceDecorator>, COMDAT
; _this$ = ecx

; 132  : 		{

  00000	53		 push	 ebx
  00001	56		 push	 esi
  00002	57		 push	 edi
  00003	8b f9		 mov	 edi, ecx
  00005	c7 07 00 00 00
	00		 mov	 DWORD PTR [edi], OFFSET ??_7?$CDynamicPoolEx@VCAirResistanceDecorator@NEffectUpdateDecorator@@@@6B@
; File C:\Program Files (x86)\Microsoft Visual Studio\2019\Community\VC\Tools\MSVC\14.28.29333\include\vector

; 42   :     _Vector_const_iterator(_Tptr _Parg, const _Container_base* _Pvector) noexcept : _Ptr(_Parg) {

  0000b	8b 5f 08	 mov	 ebx, DWORD PTR [edi+8]
  0000e	8b 77 04	 mov	 esi, DWORD PTR [edi+4]
; File C:\Program Files (x86)\Microsoft Visual Studio\2019\Community\VC\Tools\MSVC\14.28.29333\include\algorithm

; 307  :     for (; _UFirst != _ULast; ++_UFirst) {

  00011	3b f3		 cmp	 esi, ebx
  00013	74 14		 je	 SHORT $LN19@CDynamicPo
$LL20@CDynamicPo:
; File D:\Metin2 Server Files\mainline\SRC_2014\Metin2Client\eterLib\Pool.h

; 224  : 			::operator delete(pkData);

  00015	ff 36		 push	 DWORD PTR [esi]
  00017	e8 00 00 00 00	 call	 ??3@YAXPAX@Z		; operator delete
; File C:\Program Files (x86)\Microsoft Visual Studio\2019\Community\VC\Tools\MSVC\14.28.29333\include\algorithm

; 307  :     for (; _UFirst != _ULast; ++_UFirst) {

  0001c	83 c6 04	 add	 esi, 4
; File D:\Metin2 Server Files\mainline\SRC_2014\Metin2Client\eterLib\Pool.h

; 224  : 			::operator delete(pkData);

  0001f	83 c4 04	 add	 esp, 4
; File C:\Program Files (x86)\Microsoft Visual Studio\2019\Community\VC\Tools\MSVC\14.28.29333\include\algorithm

; 307  :     for (; _UFirst != _ULast; ++_UFirst) {

  00022	3b f3		 cmp	 esi, ebx
  00024	75 ef		 jne	 SHORT $LL20@CDynamicPo
  00026	8b 77 04	 mov	 esi, DWORD PTR [edi+4]
$LN19@CDynamicPo:
; File D:\Metin2 Server Files\mainline\SRC_2014\Metin2Client\eterLib\Pool.h

; 162  : 			m_kVct_pkFree.clear();

  00029	8b 4f 10	 mov	 ecx, DWORD PTR [edi+16]
  0002c	89 77 08	 mov	 DWORD PTR [edi+8], esi
  0002f	89 4f 14	 mov	 DWORD PTR [edi+20], ecx
; File C:\Program Files (x86)\Microsoft Visual Studio\2019\Community\VC\Tools\MSVC\14.28.29333\include\vector

; 1694 :         if (_Myfirst) { // destroy and deallocate old array

  00032	85 c9		 test	 ecx, ecx
  00034	74 27		 je	 SHORT $LN27@CDynamicPo

; 1695 :             _Destroy(_Myfirst, _Mylast);
; 1696 :             _Getal().deallocate(_Myfirst, static_cast<size_type>(_Myend - _Myfirst));

  00036	8b 47 18	 mov	 eax, DWORD PTR [edi+24]
  00039	2b c1		 sub	 eax, ecx
; File C:\Program Files (x86)\Microsoft Visual Studio\2019\Community\VC\Tools\MSVC\14.28.29333\include\xmemory

; 810  :         _Deallocate<_New_alignof<_Ty>>(_Ptr, sizeof(_Ty) * _Count);

  0003b	83 e0 fc	 and	 eax, -4			; fffffffcH
  0003e	50		 push	 eax
  0003f	51		 push	 ecx
  00040	e8 00 00 00 00	 call	 ??$_Deallocate@$07$0A@@std@@YAXPAXI@Z ; std::_Deallocate<8,0>
; File C:\Program Files (x86)\Microsoft Visual Studio\2019\Community\VC\Tools\MSVC\14.28.29333\include\vector

; 1698 :             _Myfirst = pointer();

  00045	c7 47 10 00 00
	00 00		 mov	 DWORD PTR [edi+16], 0
; File C:\Program Files (x86)\Microsoft Visual Studio\2019\Community\VC\Tools\MSVC\14.28.29333\include\xmemory

; 810  :         _Deallocate<_New_alignof<_Ty>>(_Ptr, sizeof(_Ty) * _Count);

  0004c	83 c4 08	 add	 esp, 8
; File C:\Program Files (x86)\Microsoft Visual Studio\2019\Community\VC\Tools\MSVC\14.28.29333\include\vector

; 1699 :             _Mylast  = pointer();

  0004f	c7 47 14 00 00
	00 00		 mov	 DWORD PTR [edi+20], 0

; 1700 :             _Myend   = pointer();

  00056	c7 47 18 00 00
	00 00		 mov	 DWORD PTR [edi+24], 0
$LN27@CDynamicPo:

; 1694 :         if (_Myfirst) { // destroy and deallocate old array

  0005d	8b 4f 04	 mov	 ecx, DWORD PTR [edi+4]
  00060	85 c9		 test	 ecx, ecx
  00062	74 27		 je	 SHORT $LN34@CDynamicPo

; 1695 :             _Destroy(_Myfirst, _Mylast);
; 1696 :             _Getal().deallocate(_Myfirst, static_cast<size_type>(_Myend - _Myfirst));

  00064	8b 47 0c	 mov	 eax, DWORD PTR [edi+12]
  00067	2b c1		 sub	 eax, ecx
; File C:\Program Files (x86)\Microsoft Visual Studio\2019\Community\VC\Tools\MSVC\14.28.29333\include\xmemory

; 810  :         _Deallocate<_New_alignof<_Ty>>(_Ptr, sizeof(_Ty) * _Count);

  00069	83 e0 fc	 and	 eax, -4			; fffffffcH
  0006c	50		 push	 eax
  0006d	51		 push	 ecx
  0006e	e8 00 00 00 00	 call	 ??$_Deallocate@$07$0A@@std@@YAXPAXI@Z ; std::_Deallocate<8,0>
; File C:\Program Files (x86)\Microsoft Visual Studio\2019\Community\VC\Tools\MSVC\14.28.29333\include\vector

; 1698 :             _Myfirst = pointer();

  00073	c7 47 04 00 00
	00 00		 mov	 DWORD PTR [edi+4], 0
; File C:\Program Files (x86)\Microsoft Visual Studio\2019\Community\VC\Tools\MSVC\14.28.29333\include\xmemory

; 810  :         _Deallocate<_New_alignof<_Ty>>(_Ptr, sizeof(_Ty) * _Count);

  0007a	83 c4 08	 add	 esp, 8
; File C:\Program Files (x86)\Microsoft Visual Studio\2019\Community\VC\Tools\MSVC\14.28.29333\include\vector

; 1699 :             _Mylast  = pointer();

  0007d	c7 47 08 00 00
	00 00		 mov	 DWORD PTR [edi+8], 0

; 1700 :             _Myend   = pointer();

  00084	c7 47 0c 00 00
	00 00		 mov	 DWORD PTR [edi+12], 0
$LN34@CDynamicPo:
  0008b	5f		 pop	 edi
; File D:\Metin2 Server Files\mainline\SRC_2014\Metin2Client\eterLib\Pool.h

; 142  : 		}

  0008c	5e		 pop	 esi
  0008d	5b		 pop	 ebx
  0008e	c3		 ret	 0
??1?$CDynamicPoolEx@VCAirResistanceDecorator@NEffectUpdateDecorator@@@@UAE@XZ ENDP ; CDynamicPoolEx<NEffectUpdateDecorator::CAirResistanceDecorator>::~CDynamicPoolEx<NEffectUpdateDecorator::CAirResistanceDecorator>
_TEXT	ENDS
; Function compile flags: /Ogtp
;	COMDAT ??_G?$CDynamicPoolEx@VCGravityDecorator@NEffectUpdateDecorator@@@@UAEPAXI@Z
_TEXT	SEGMENT
___flags$ = 8						; size = 4
??_G?$CDynamicPoolEx@VCGravityDecorator@NEffectUpdateDecorator@@@@UAEPAXI@Z PROC ; CDynamicPoolEx<NEffectUpdateDecorator::CGravityDecorator>::`scalar deleting destructor', COMDAT
; _this$ = ecx
  00000	55		 push	 ebp
  00001	8b ec		 mov	 ebp, esp
  00003	56		 push	 esi
  00004	8b f1		 mov	 esi, ecx
  00006	e8 00 00 00 00	 call	 ??1?$CDynamicPoolEx@VCGravityDecorator@NEffectUpdateDecorator@@@@UAE@XZ ; CDynamicPoolEx<NEffectUpdateDecorator::CGravityDecorator>::~CDynamicPoolEx<NEffectUpdateDecorator::CGravityDecorator>
  0000b	f6 45 08 01	 test	 BYTE PTR ___flags$[ebp], 1
  0000f	74 0b		 je	 SHORT $LN4@scalar
  00011	6a 24		 push	 36			; 00000024H
  00013	56		 push	 esi
  00014	e8 00 00 00 00	 call	 ??3@YAXPAXI@Z		; operator delete
  00019	83 c4 08	 add	 esp, 8
$LN4@scalar:
  0001c	8b c6		 mov	 eax, esi
  0001e	5e		 pop	 esi
  0001f	5d		 pop	 ebp
  00020	c2 04 00	 ret	 4
??_G?$CDynamicPoolEx@VCGravityDecorator@NEffectUpdateDecorator@@@@UAEPAXI@Z ENDP ; CDynamicPoolEx<NEffectUpdateDecorator::CGravityDecorator>::`scalar deleting destructor'
_TEXT	ENDS
; Function compile flags: /Ogtp
; File D:\Metin2 Server Files\mainline\SRC_2014\Metin2Client\eterLib\Pool.h
;	COMDAT ?Delete@?$CDynamicPoolEx@VCGravityDecorator@NEffectUpdateDecorator@@@@KAXPAVCGravityDecorator@NEffectUpdateDecorator@@@Z
_TEXT	SEGMENT
_pkData$ = 8						; size = 4
?Delete@?$CDynamicPoolEx@VCGravityDecorator@NEffectUpdateDecorator@@@@KAXPAVCGravityDecorator@NEffectUpdateDecorator@@@Z PROC ; CDynamicPoolEx<NEffectUpdateDecorator::CGravityDecorator>::Delete, COMDAT

; 224  : 			::operator delete(pkData);

  00000	e9 00 00 00 00	 jmp	 ??3@YAXPAX@Z		; operator delete
?Delete@?$CDynamicPoolEx@VCGravityDecorator@NEffectUpdateDecorator@@@@KAXPAVCGravityDecorator@NEffectUpdateDecorator@@@Z ENDP ; CDynamicPoolEx<NEffectUpdateDecorator::CGravityDecorator>::Delete
_TEXT	ENDS
; Function compile flags: /Ogtp
; File D:\Metin2 Server Files\mainline\SRC_2014\Metin2Client\eterLib\Pool.h
; File C:\Program Files (x86)\Microsoft Visual Studio\2019\Community\VC\Tools\MSVC\14.28.29333\include\vector
; File C:\Program Files (x86)\Microsoft Visual Studio\2019\Community\VC\Tools\MSVC\14.28.29333\include\algorithm
; File D:\Metin2 Server Files\mainline\SRC_2014\Metin2Client\eterLib\Pool.h
; File C:\Program Files (x86)\Microsoft Visual Studio\2019\Community\VC\Tools\MSVC\14.28.29333\include\algorithm
; File D:\Metin2 Server Files\mainline\SRC_2014\Metin2Client\eterLib\Pool.h
; File C:\Program Files (x86)\Microsoft Visual Studio\2019\Community\VC\Tools\MSVC\14.28.29333\include\algorithm
; File D:\Metin2 Server Files\mainline\SRC_2014\Metin2Client\eterLib\Pool.h
; File C:\Program Files (x86)\Microsoft Visual Studio\2019\Community\VC\Tools\MSVC\14.28.29333\include\vector
; File C:\Program Files (x86)\Microsoft Visual Studio\2019\Community\VC\Tools\MSVC\14.28.29333\include\xmemory
; File C:\Program Files (x86)\Microsoft Visual Studio\2019\Community\VC\Tools\MSVC\14.28.29333\include\vector
; File C:\Program Files (x86)\Microsoft Visual Studio\2019\Community\VC\Tools\MSVC\14.28.29333\include\xmemory
; File C:\Program Files (x86)\Microsoft Visual Studio\2019\Community\VC\Tools\MSVC\14.28.29333\include\vector
; File C:\Program Files (x86)\Microsoft Visual Studio\2019\Community\VC\Tools\MSVC\14.28.29333\include\xmemory
; File C:\Program Files (x86)\Microsoft Visual Studio\2019\Community\VC\Tools\MSVC\14.28.29333\include\vector
; File C:\Program Files (x86)\Microsoft Visual Studio\2019\Community\VC\Tools\MSVC\14.28.29333\include\xmemory
; File C:\Program Files (x86)\Microsoft Visual Studio\2019\Community\VC\Tools\MSVC\14.28.29333\include\vector
; File D:\Metin2 Server Files\mainline\SRC_2014\Metin2Client\eterLib\Pool.h
;	COMDAT ??1?$CDynamicPoolEx@VCGravityDecorator@NEffectUpdateDecorator@@@@UAE@XZ
_TEXT	SEGMENT
??1?$CDynamicPoolEx@VCGravityDecorator@NEffectUpdateDecorator@@@@UAE@XZ PROC ; CDynamicPoolEx<NEffectUpdateDecorator::CGravityDecorator>::~CDynamicPoolEx<NEffectUpdateDecorator::CGravityDecorator>, COMDAT
; _this$ = ecx

; 132  : 		{

  00000	53		 push	 ebx
  00001	56		 push	 esi
  00002	57		 push	 edi
  00003	8b f9		 mov	 edi, ecx
  00005	c7 07 00 00 00
	00		 mov	 DWORD PTR [edi], OFFSET ??_7?$CDynamicPoolEx@VCGravityDecorator@NEffectUpdateDecorator@@@@6B@
; File C:\Program Files (x86)\Microsoft Visual Studio\2019\Community\VC\Tools\MSVC\14.28.29333\include\vector

; 42   :     _Vector_const_iterator(_Tptr _Parg, const _Container_base* _Pvector) noexcept : _Ptr(_Parg) {

  0000b	8b 5f 08	 mov	 ebx, DWORD PTR [edi+8]
  0000e	8b 77 04	 mov	 esi, DWORD PTR [edi+4]
; File C:\Program Files (x86)\Microsoft Visual Studio\2019\Community\VC\Tools\MSVC\14.28.29333\include\algorithm

; 307  :     for (; _UFirst != _ULast; ++_UFirst) {

  00011	3b f3		 cmp	 esi, ebx
  00013	74 14		 je	 SHORT $LN19@CDynamicPo
$LL20@CDynamicPo:
; File D:\Metin2 Server Files\mainline\SRC_2014\Metin2Client\eterLib\Pool.h

; 224  : 			::operator delete(pkData);

  00015	ff 36		 push	 DWORD PTR [esi]
  00017	e8 00 00 00 00	 call	 ??3@YAXPAX@Z		; operator delete
; File C:\Program Files (x86)\Microsoft Visual Studio\2019\Community\VC\Tools\MSVC\14.28.29333\include\algorithm

; 307  :     for (; _UFirst != _ULast; ++_UFirst) {

  0001c	83 c6 04	 add	 esi, 4
; File D:\Metin2 Server Files\mainline\SRC_2014\Metin2Client\eterLib\Pool.h

; 224  : 			::operator delete(pkData);

  0001f	83 c4 04	 add	 esp, 4
; File C:\Program Files (x86)\Microsoft Visual Studio\2019\Community\VC\Tools\MSVC\14.28.29333\include\algorithm

; 307  :     for (; _UFirst != _ULast; ++_UFirst) {

  00022	3b f3		 cmp	 esi, ebx
  00024	75 ef		 jne	 SHORT $LL20@CDynamicPo
  00026	8b 77 04	 mov	 esi, DWORD PTR [edi+4]
$LN19@CDynamicPo:
; File D:\Metin2 Server Files\mainline\SRC_2014\Metin2Client\eterLib\Pool.h

; 162  : 			m_kVct_pkFree.clear();

  00029	8b 4f 10	 mov	 ecx, DWORD PTR [edi+16]
  0002c	89 77 08	 mov	 DWORD PTR [edi+8], esi
  0002f	89 4f 14	 mov	 DWORD PTR [edi+20], ecx
; File C:\Program Files (x86)\Microsoft Visual Studio\2019\Community\VC\Tools\MSVC\14.28.29333\include\vector

; 1694 :         if (_Myfirst) { // destroy and deallocate old array

  00032	85 c9		 test	 ecx, ecx
  00034	74 27		 je	 SHORT $LN27@CDynamicPo

; 1695 :             _Destroy(_Myfirst, _Mylast);
; 1696 :             _Getal().deallocate(_Myfirst, static_cast<size_type>(_Myend - _Myfirst));

  00036	8b 47 18	 mov	 eax, DWORD PTR [edi+24]
  00039	2b c1		 sub	 eax, ecx
; File C:\Program Files (x86)\Microsoft Visual Studio\2019\Community\VC\Tools\MSVC\14.28.29333\include\xmemory

; 810  :         _Deallocate<_New_alignof<_Ty>>(_Ptr, sizeof(_Ty) * _Count);

  0003b	83 e0 fc	 and	 eax, -4			; fffffffcH
  0003e	50		 push	 eax
  0003f	51		 push	 ecx
  00040	e8 00 00 00 00	 call	 ??$_Deallocate@$07$0A@@std@@YAXPAXI@Z ; std::_Deallocate<8,0>
; File C:\Program Files (x86)\Microsoft Visual Studio\2019\Community\VC\Tools\MSVC\14.28.29333\include\vector

; 1698 :             _Myfirst = pointer();

  00045	c7 47 10 00 00
	00 00		 mov	 DWORD PTR [edi+16], 0
; File C:\Program Files (x86)\Microsoft Visual Studio\2019\Community\VC\Tools\MSVC\14.28.29333\include\xmemory

; 810  :         _Deallocate<_New_alignof<_Ty>>(_Ptr, sizeof(_Ty) * _Count);

  0004c	83 c4 08	 add	 esp, 8
; File C:\Program Files (x86)\Microsoft Visual Studio\2019\Community\VC\Tools\MSVC\14.28.29333\include\vector

; 1699 :             _Mylast  = pointer();

  0004f	c7 47 14 00 00
	00 00		 mov	 DWORD PTR [edi+20], 0

; 1700 :             _Myend   = pointer();

  00056	c7 47 18 00 00
	00 00		 mov	 DWORD PTR [edi+24], 0
$LN27@CDynamicPo:

; 1694 :         if (_Myfirst) { // destroy and deallocate old array

  0005d	8b 4f 04	 mov	 ecx, DWORD PTR [edi+4]
  00060	85 c9		 test	 ecx, ecx
  00062	74 27		 je	 SHORT $LN34@CDynamicPo

; 1695 :             _Destroy(_Myfirst, _Mylast);
; 1696 :             _Getal().deallocate(_Myfirst, static_cast<size_type>(_Myend - _Myfirst));

  00064	8b 47 0c	 mov	 eax, DWORD PTR [edi+12]
  00067	2b c1		 sub	 eax, ecx
; File C:\Program Files (x86)\Microsoft Visual Studio\2019\Community\VC\Tools\MSVC\14.28.29333\include\xmemory

; 810  :         _Deallocate<_New_alignof<_Ty>>(_Ptr, sizeof(_Ty) * _Count);

  00069	83 e0 fc	 and	 eax, -4			; fffffffcH
  0006c	50		 push	 eax
  0006d	51		 push	 ecx
  0006e	e8 00 00 00 00	 call	 ??$_Deallocate@$07$0A@@std@@YAXPAXI@Z ; std::_Deallocate<8,0>
; File C:\Program Files (x86)\Microsoft Visual Studio\2019\Community\VC\Tools\MSVC\14.28.29333\include\vector

; 1698 :             _Myfirst = pointer();

  00073	c7 47 04 00 00
	00 00		 mov	 DWORD PTR [edi+4], 0
; File C:\Program Files (x86)\Microsoft Visual Studio\2019\Community\VC\Tools\MSVC\14.28.29333\include\xmemory

; 810  :         _Deallocate<_New_alignof<_Ty>>(_Ptr, sizeof(_Ty) * _Count);

  0007a	83 c4 08	 add	 esp, 8
; File C:\Program Files (x86)\Microsoft Visual Studio\2019\Community\VC\Tools\MSVC\14.28.29333\include\vector

; 1699 :             _Mylast  = pointer();

  0007d	c7 47 08 00 00
	00 00		 mov	 DWORD PTR [edi+8], 0

; 1700 :             _Myend   = pointer();

  00084	c7 47 0c 00 00
	00 00		 mov	 DWORD PTR [edi+12], 0
$LN34@CDynamicPo:
  0008b	5f		 pop	 edi
; File D:\Metin2 Server Files\mainline\SRC_2014\Metin2Client\eterLib\Pool.h

; 142  : 		}

  0008c	5e		 pop	 esi
  0008d	5b		 pop	 ebx
  0008e	c3		 ret	 0
??1?$CDynamicPoolEx@VCGravityDecorator@NEffectUpdateDecorator@@@@UAE@XZ ENDP ; CDynamicPoolEx<NEffectUpdateDecorator::CGravityDecorator>::~CDynamicPoolEx<NEffectUpdateDecorator::CGravityDecorator>
_TEXT	ENDS
; Function compile flags: /Ogtp
;	COMDAT ??_G?$CDynamicPoolEx@VCRotationDecorator@NEffectUpdateDecorator@@@@UAEPAXI@Z
_TEXT	SEGMENT
___flags$ = 8						; size = 4
??_G?$CDynamicPoolEx@VCRotationDecorator@NEffectUpdateDecorator@@@@UAEPAXI@Z PROC ; CDynamicPoolEx<NEffectUpdateDecorator::CRotationDecorator>::`scalar deleting destructor', COMDAT
; _this$ = ecx
  00000	55		 push	 ebp
  00001	8b ec		 mov	 ebp, esp
  00003	56		 push	 esi
  00004	8b f1		 mov	 esi, ecx
  00006	e8 00 00 00 00	 call	 ??1?$CDynamicPoolEx@VCRotationDecorator@NEffectUpdateDecorator@@@@UAE@XZ ; CDynamicPoolEx<NEffectUpdateDecorator::CRotationDecorator>::~CDynamicPoolEx<NEffectUpdateDecorator::CRotationDecorator>
  0000b	f6 45 08 01	 test	 BYTE PTR ___flags$[ebp], 1
  0000f	74 0b		 je	 SHORT $LN4@scalar
  00011	6a 24		 push	 36			; 00000024H
  00013	56		 push	 esi
  00014	e8 00 00 00 00	 call	 ??3@YAXPAXI@Z		; operator delete
  00019	83 c4 08	 add	 esp, 8
$LN4@scalar:
  0001c	8b c6		 mov	 eax, esi
  0001e	5e		 pop	 esi
  0001f	5d		 pop	 ebp
  00020	c2 04 00	 ret	 4
??_G?$CDynamicPoolEx@VCRotationDecorator@NEffectUpdateDecorator@@@@UAEPAXI@Z ENDP ; CDynamicPoolEx<NEffectUpdateDecorator::CRotationDecorator>::`scalar deleting destructor'
_TEXT	ENDS
; Function compile flags: /Ogtp
; File D:\Metin2 Server Files\mainline\SRC_2014\Metin2Client\eterLib\Pool.h
;	COMDAT ?Delete@?$CDynamicPoolEx@VCRotationDecorator@NEffectUpdateDecorator@@@@KAXPAVCRotationDecorator@NEffectUpdateDecorator@@@Z
_TEXT	SEGMENT
_pkData$ = 8						; size = 4
?Delete@?$CDynamicPoolEx@VCRotationDecorator@NEffectUpdateDecorator@@@@KAXPAVCRotationDecorator@NEffectUpdateDecorator@@@Z PROC ; CDynamicPoolEx<NEffectUpdateDecorator::CRotationDecorator>::Delete, COMDAT

; 224  : 			::operator delete(pkData);

  00000	e9 00 00 00 00	 jmp	 ??3@YAXPAX@Z		; operator delete
?Delete@?$CDynamicPoolEx@VCRotationDecorator@NEffectUpdateDecorator@@@@KAXPAVCRotationDecorator@NEffectUpdateDecorator@@@Z ENDP ; CDynamicPoolEx<NEffectUpdateDecorator::CRotationDecorator>::Delete
_TEXT	ENDS
; Function compile flags: /Ogtp
; File D:\Metin2 Server Files\mainline\SRC_2014\Metin2Client\eterLib\Pool.h
; File C:\Program Files (x86)\Microsoft Visual Studio\2019\Community\VC\Tools\MSVC\14.28.29333\include\vector
; File C:\Program Files (x86)\Microsoft Visual Studio\2019\Community\VC\Tools\MSVC\14.28.29333\include\algorithm
; File D:\Metin2 Server Files\mainline\SRC_2014\Metin2Client\eterLib\Pool.h
; File C:\Program Files (x86)\Microsoft Visual Studio\2019\Community\VC\Tools\MSVC\14.28.29333\include\algorithm
; File D:\Metin2 Server Files\mainline\SRC_2014\Metin2Client\eterLib\Pool.h
; File C:\Program Files (x86)\Microsoft Visual Studio\2019\Community\VC\Tools\MSVC\14.28.29333\include\algorithm
; File D:\Metin2 Server Files\mainline\SRC_2014\Metin2Client\eterLib\Pool.h
; File C:\Program Files (x86)\Microsoft Visual Studio\2019\Community\VC\Tools\MSVC\14.28.29333\include\vector
; File C:\Program Files (x86)\Microsoft Visual Studio\2019\Community\VC\Tools\MSVC\14.28.29333\include\xmemory
; File C:\Program Files (x86)\Microsoft Visual Studio\2019\Community\VC\Tools\MSVC\14.28.29333\include\vector
; File C:\Program Files (x86)\Microsoft Visual Studio\2019\Community\VC\Tools\MSVC\14.28.29333\include\xmemory
; File C:\Program Files (x86)\Microsoft Visual Studio\2019\Community\VC\Tools\MSVC\14.28.29333\include\vector
; File C:\Program Files (x86)\Microsoft Visual Studio\2019\Community\VC\Tools\MSVC\14.28.29333\include\xmemory
; File C:\Program Files (x86)\Microsoft Visual Studio\2019\Community\VC\Tools\MSVC\14.28.29333\include\vector
; File C:\Program Files (x86)\Microsoft Visual Studio\2019\Community\VC\Tools\MSVC\14.28.29333\include\xmemory
; File C:\Program Files (x86)\Microsoft Visual Studio\2019\Community\VC\Tools\MSVC\14.28.29333\include\vector
; File D:\Metin2 Server Files\mainline\SRC_2014\Metin2Client\eterLib\Pool.h
;	COMDAT ??1?$CDynamicPoolEx@VCRotationDecorator@NEffectUpdateDecorator@@@@UAE@XZ
_TEXT	SEGMENT
??1?$CDynamicPoolEx@VCRotationDecorator@NEffectUpdateDecorator@@@@UAE@XZ PROC ; CDynamicPoolEx<NEffectUpdateDecorator::CRotationDecorator>::~CDynamicPoolEx<NEffectUpdateDecorator::CRotationDecorator>, COMDAT
; _this$ = ecx

; 132  : 		{

  00000	53		 push	 ebx
  00001	56		 push	 esi
  00002	57		 push	 edi
  00003	8b f9		 mov	 edi, ecx
  00005	c7 07 00 00 00
	00		 mov	 DWORD PTR [edi], OFFSET ??_7?$CDynamicPoolEx@VCRotationDecorator@NEffectUpdateDecorator@@@@6B@
; File C:\Program Files (x86)\Microsoft Visual Studio\2019\Community\VC\Tools\MSVC\14.28.29333\include\vector

; 42   :     _Vector_const_iterator(_Tptr _Parg, const _Container_base* _Pvector) noexcept : _Ptr(_Parg) {

  0000b	8b 5f 08	 mov	 ebx, DWORD PTR [edi+8]
  0000e	8b 77 04	 mov	 esi, DWORD PTR [edi+4]
; File C:\Program Files (x86)\Microsoft Visual Studio\2019\Community\VC\Tools\MSVC\14.28.29333\include\algorithm

; 307  :     for (; _UFirst != _ULast; ++_UFirst) {

  00011	3b f3		 cmp	 esi, ebx
  00013	74 14		 je	 SHORT $LN19@CDynamicPo
$LL20@CDynamicPo:
; File D:\Metin2 Server Files\mainline\SRC_2014\Metin2Client\eterLib\Pool.h

; 224  : 			::operator delete(pkData);

  00015	ff 36		 push	 DWORD PTR [esi]
  00017	e8 00 00 00 00	 call	 ??3@YAXPAX@Z		; operator delete
; File C:\Program Files (x86)\Microsoft Visual Studio\2019\Community\VC\Tools\MSVC\14.28.29333\include\algorithm

; 307  :     for (; _UFirst != _ULast; ++_UFirst) {

  0001c	83 c6 04	 add	 esi, 4
; File D:\Metin2 Server Files\mainline\SRC_2014\Metin2Client\eterLib\Pool.h

; 224  : 			::operator delete(pkData);

  0001f	83 c4 04	 add	 esp, 4
; File C:\Program Files (x86)\Microsoft Visual Studio\2019\Community\VC\Tools\MSVC\14.28.29333\include\algorithm

; 307  :     for (; _UFirst != _ULast; ++_UFirst) {

  00022	3b f3		 cmp	 esi, ebx
  00024	75 ef		 jne	 SHORT $LL20@CDynamicPo
  00026	8b 77 04	 mov	 esi, DWORD PTR [edi+4]
$LN19@CDynamicPo:
; File D:\Metin2 Server Files\mainline\SRC_2014\Metin2Client\eterLib\Pool.h

; 162  : 			m_kVct_pkFree.clear();

  00029	8b 4f 10	 mov	 ecx, DWORD PTR [edi+16]
  0002c	89 77 08	 mov	 DWORD PTR [edi+8], esi
  0002f	89 4f 14	 mov	 DWORD PTR [edi+20], ecx
; File C:\Program Files (x86)\Microsoft Visual Studio\2019\Community\VC\Tools\MSVC\14.28.29333\include\vector

; 1694 :         if (_Myfirst) { // destroy and deallocate old array

  00032	85 c9		 test	 ecx, ecx
  00034	74 27		 je	 SHORT $LN27@CDynamicPo

; 1695 :             _Destroy(_Myfirst, _Mylast);
; 1696 :             _Getal().deallocate(_Myfirst, static_cast<size_type>(_Myend - _Myfirst));

  00036	8b 47 18	 mov	 eax, DWORD PTR [edi+24]
  00039	2b c1		 sub	 eax, ecx
; File C:\Program Files (x86)\Microsoft Visual Studio\2019\Community\VC\Tools\MSVC\14.28.29333\include\xmemory

; 810  :         _Deallocate<_New_alignof<_Ty>>(_Ptr, sizeof(_Ty) * _Count);

  0003b	83 e0 fc	 and	 eax, -4			; fffffffcH
  0003e	50		 push	 eax
  0003f	51		 push	 ecx
  00040	e8 00 00 00 00	 call	 ??$_Deallocate@$07$0A@@std@@YAXPAXI@Z ; std::_Deallocate<8,0>
; File C:\Program Files (x86)\Microsoft Visual Studio\2019\Community\VC\Tools\MSVC\14.28.29333\include\vector

; 1698 :             _Myfirst = pointer();

  00045	c7 47 10 00 00
	00 00		 mov	 DWORD PTR [edi+16], 0
; File C:\Program Files (x86)\Microsoft Visual Studio\2019\Community\VC\Tools\MSVC\14.28.29333\include\xmemory

; 810  :         _Deallocate<_New_alignof<_Ty>>(_Ptr, sizeof(_Ty) * _Count);

  0004c	83 c4 08	 add	 esp, 8
; File C:\Program Files (x86)\Microsoft Visual Studio\2019\Community\VC\Tools\MSVC\14.28.29333\include\vector

; 1699 :             _Mylast  = pointer();

  0004f	c7 47 14 00 00
	00 00		 mov	 DWORD PTR [edi+20], 0

; 1700 :             _Myend   = pointer();

  00056	c7 47 18 00 00
	00 00		 mov	 DWORD PTR [edi+24], 0
$LN27@CDynamicPo:

; 1694 :         if (_Myfirst) { // destroy and deallocate old array

  0005d	8b 4f 04	 mov	 ecx, DWORD PTR [edi+4]
  00060	85 c9		 test	 ecx, ecx
  00062	74 27		 je	 SHORT $LN34@CDynamicPo

; 1695 :             _Destroy(_Myfirst, _Mylast);
; 1696 :             _Getal().deallocate(_Myfirst, static_cast<size_type>(_Myend - _Myfirst));

  00064	8b 47 0c	 mov	 eax, DWORD PTR [edi+12]
  00067	2b c1		 sub	 eax, ecx
; File C:\Program Files (x86)\Microsoft Visual Studio\2019\Community\VC\Tools\MSVC\14.28.29333\include\xmemory

; 810  :         _Deallocate<_New_alignof<_Ty>>(_Ptr, sizeof(_Ty) * _Count);

  00069	83 e0 fc	 and	 eax, -4			; fffffffcH
  0006c	50		 push	 eax
  0006d	51		 push	 ecx
  0006e	e8 00 00 00 00	 call	 ??$_Deallocate@$07$0A@@std@@YAXPAXI@Z ; std::_Deallocate<8,0>
; File C:\Program Files (x86)\Microsoft Visual Studio\2019\Community\VC\Tools\MSVC\14.28.29333\include\vector

; 1698 :             _Myfirst = pointer();

  00073	c7 47 04 00 00
	00 00		 mov	 DWORD PTR [edi+4], 0
; File C:\Program Files (x86)\Microsoft Visual Studio\2019\Community\VC\Tools\MSVC\14.28.29333\include\xmemory

; 810  :         _Deallocate<_New_alignof<_Ty>>(_Ptr, sizeof(_Ty) * _Count);

  0007a	83 c4 08	 add	 esp, 8
; File C:\Program Files (x86)\Microsoft Visual Studio\2019\Community\VC\Tools\MSVC\14.28.29333\include\vector

; 1699 :             _Mylast  = pointer();

  0007d	c7 47 08 00 00
	00 00		 mov	 DWORD PTR [edi+8], 0

; 1700 :             _Myend   = pointer();

  00084	c7 47 0c 00 00
	00 00		 mov	 DWORD PTR [edi+12], 0
$LN34@CDynamicPo:
  0008b	5f		 pop	 edi
; File D:\Metin2 Server Files\mainline\SRC_2014\Metin2Client\eterLib\Pool.h

; 142  : 		}

  0008c	5e		 pop	 esi
  0008d	5b		 pop	 ebx
  0008e	c3		 ret	 0
??1?$CDynamicPoolEx@VCRotationDecorator@NEffectUpdateDecorator@@@@UAE@XZ ENDP ; CDynamicPoolEx<NEffectUpdateDecorator::CRotationDecorator>::~CDynamicPoolEx<NEffectUpdateDecorator::CRotationDecorator>
_TEXT	ENDS
; Function compile flags: /Ogtp
; File D:\Metin2 Server Files\mainline\SRC_2014\Metin2Client\UserInterface\PythonCharacterModule.cpp
; File C:\Program Files (x86)\Microsoft Visual Studio\2019\Community\VC\Tools\MSVC\14.28.29333\include\xstring
; File D:\Metin2 Server Files\mainline\SRC_2014\Metin2Client\UserInterface\PythonCharacterModule.cpp
; File C:\Program Files (x86)\Microsoft Visual Studio\2019\Community\VC\Tools\MSVC\14.28.29333\include\xstring
; File C:\Program Files (x86)\Microsoft Visual Studio\2019\Community\VC\Tools\MSVC\14.28.29333\include\xmemory
; File C:\Program Files (x86)\Microsoft Visual Studio\2019\Community\VC\Tools\MSVC\14.28.29333\include\xstring
; File D:\Metin2 Server Files\mainline\SRC_2014\Metin2Client\UserInterface\PythonCharacterModule.cpp
;	COMDAT ?chrtestSetRideMan@@YAPAU_object@@PAU1@0@Z
_TEXT	SEGMENT
_iy$ = -132						; size = 4
_ix$ = -128						; size = 4
_imount$ = -124						; size = 4
_kCreateData$ = -120					; size = 104
__$ArrayPad$ = -16					; size = 4
__$EHRec$ = -12						; size = 12
_poSelf$ = 8						; size = 4
_poArgs$ = 12						; size = 4
?chrtestSetRideMan@@YAPAU_object@@PAU1@0@Z PROC		; chrtestSetRideMan, COMDAT

; 1197 : {

  00000	55		 push	 ebp
  00001	8b ec		 mov	 ebp, esp
  00003	6a ff		 push	 -1
  00005	68 00 00 00 00	 push	 __ehhandler$?chrtestSetRideMan@@YAPAU_object@@PAU1@0@Z
  0000a	64 a1 00 00 00
	00		 mov	 eax, DWORD PTR fs:0
  00010	50		 push	 eax
  00011	83 ec 78	 sub	 esp, 120		; 00000078H
  00014	a1 00 00 00 00	 mov	 eax, DWORD PTR ___security_cookie
  00019	33 c5		 xor	 eax, ebp
  0001b	89 45 f0	 mov	 DWORD PTR __$ArrayPad$[ebp], eax
  0001e	56		 push	 esi
  0001f	50		 push	 eax
  00020	8d 45 f4	 lea	 eax, DWORD PTR __$EHRec$[ebp]
  00023	64 a3 00 00 00
	00		 mov	 DWORD PTR fs:0, eax
  00029	8b 75 0c	 mov	 esi, DWORD PTR _poArgs$[ebp]

; 1198 : 	int ix;
; 1199 : 	if (!PyTuple_GetInteger(poArgs, 0, &ix))

  0002c	8d 45 80	 lea	 eax, DWORD PTR _ix$[ebp]
  0002f	50		 push	 eax
  00030	6a 00		 push	 0
  00032	56		 push	 esi
  00033	e8 00 00 00 00	 call	 ?PyTuple_GetInteger@@YA_NPAU_object@@HPAH@Z ; PyTuple_GetInteger
  00038	83 c4 0c	 add	 esp, 12			; 0000000cH
  0003b	84 c0		 test	 al, al
  0003d	75 0a		 jne	 SHORT $LN2@chrtestSet
$LN35@chrtestSet:

; 1222 : }

  0003f	e8 00 00 00 00	 call	 ?Py_BadArgument@@YAPAU_object@@XZ ; Py_BadArgument
  00044	e9 d9 00 00 00	 jmp	 $LN1@chrtestSet
$LN2@chrtestSet:

; 1200 : 		return Py_BadArgument();
; 1201 : 	int iy;
; 1202 : 	if (!PyTuple_GetInteger(poArgs, 1, &iy))

  00049	8d 85 7c ff ff
	ff		 lea	 eax, DWORD PTR _iy$[ebp]
  0004f	50		 push	 eax
  00050	6a 01		 push	 1
  00052	56		 push	 esi
  00053	e8 00 00 00 00	 call	 ?PyTuple_GetInteger@@YA_NPAU_object@@HPAH@Z ; PyTuple_GetInteger
  00058	83 c4 0c	 add	 esp, 12			; 0000000cH
  0005b	84 c0		 test	 al, al
  0005d	74 e0		 je	 SHORT $LN35@chrtestSet

; 1203 : 		return Py_BadArgument();
; 1204 : 	int imount = 20030;
; 1205 : 	PyTuple_GetInteger(poArgs, 2, &imount);

  0005f	8d 45 84	 lea	 eax, DWORD PTR _imount$[ebp]
  00062	c7 45 84 3e 4e
	00 00		 mov	 DWORD PTR _imount$[ebp], 20030 ; 00004e3eH
  00069	50		 push	 eax
  0006a	6a 02		 push	 2
  0006c	56		 push	 esi
  0006d	e8 00 00 00 00	 call	 ?PyTuple_GetInteger@@YA_NPAU_object@@HPAH@Z ; PyTuple_GetInteger

; 1206 : 
; 1207 : 	CInstanceBase * pCharacterInstance = CPythonCharacterManager::Instance().RegisterInstance(1);

  00072	8b 0d 00 00 00
	00		 mov	 ecx, DWORD PTR ?ms_singleton@?$CSingleton@VCPythonCharacterManager@@@@0PAVCPythonCharacterManager@@A ; CSingleton<CPythonCharacterManager>::ms_singleton
  00078	83 c4 0c	 add	 esp, 12			; 0000000cH
  0007b	6a 01		 push	 1
  0007d	e8 00 00 00 00	 call	 ?RegisterInstance@CPythonCharacterManager@@QAEPAVCInstanceBase@@K@Z ; CPythonCharacterManager::RegisterInstance
  00082	8d 4d cb	 lea	 ecx, DWORD PTR _kCreateData$[ebp+67]
  00085	8b f0		 mov	 esi, eax
  00087	e8 00 00 00 00	 call	 ??0CAffectFlagContainer@@QAE@XZ ; CAffectFlagContainer::CAffectFlagContainer

; 1208 : 	CInstanceBase::SCreateData kCreateData;
; 1209 : 	ZeroMemory(&kCreateData, sizeof(kCreateData));

  0008c	6a 68		 push	 104			; 00000068H
  0008e	8d 45 88	 lea	 eax, DWORD PTR _kCreateData$[ebp]
  00091	c7 45 fc 00 00
	00 00		 mov	 DWORD PTR __$EHRec$[ebp+8], 0
  00098	6a 00		 push	 0
  0009a	50		 push	 eax
  0009b	e8 00 00 00 00	 call	 _memset

; 1210 : 	kCreateData.m_bType = CActorInstance::TYPE_PC;
; 1211 : 	kCreateData.m_dwRace = 0;
; 1212 : 	kCreateData.m_dwArmor = 0;
; 1213 : 	kCreateData.m_dwHair = 100;
; 1214 : 	kCreateData.m_dwMovSpd = 100;
; 1215 : 	kCreateData.m_dwAtkSpd = 100;
; 1216 : 	kCreateData.m_dwMountVnum = imount;

  000a0	8b 45 84	 mov	 eax, DWORD PTR _imount$[ebp]
  000a3	83 c4 0c	 add	 esp, 12			; 0000000cH
  000a6	89 45 c4	 mov	 DWORD PTR _kCreateData$[ebp+60], eax

; 1217 : 	kCreateData.m_lPosX = ix;
; 1218 : 	kCreateData.m_lPosY = iy;
; 1219 : 	pCharacterInstance->Create(kCreateData);

  000a9	8b ce		 mov	 ecx, esi
  000ab	8b 45 80	 mov	 eax, DWORD PTR _ix$[ebp]
  000ae	89 45 ac	 mov	 DWORD PTR _kCreateData$[ebp+36], eax
  000b1	8b 85 7c ff ff
	ff		 mov	 eax, DWORD PTR _iy$[ebp]
  000b7	89 45 b0	 mov	 DWORD PTR _kCreateData$[ebp+40], eax
  000ba	8d 45 88	 lea	 eax, DWORD PTR _kCreateData$[ebp]
  000bd	50		 push	 eax
  000be	c6 45 88 06	 mov	 BYTE PTR _kCreateData$[ebp], 6
  000c2	c7 45 a0 00 00
	00 00		 mov	 DWORD PTR _kCreateData$[ebp+24], 0
  000c9	c7 45 b8 00 00
	00 00		 mov	 DWORD PTR _kCreateData$[ebp+48], 0
  000d0	c7 45 c0 64 00
	00 00		 mov	 DWORD PTR _kCreateData$[ebp+56], 100 ; 00000064H
  000d7	c7 45 a4 64 00
	00 00		 mov	 DWORD PTR _kCreateData$[ebp+28], 100 ; 00000064H
  000de	c7 45 a8 64 00
	00 00		 mov	 DWORD PTR _kCreateData$[ebp+32], 100 ; 00000064H
  000e5	e8 00 00 00 00	 call	 ?Create@CInstanceBase@@QAE_NABUSCreateData@1@@Z ; CInstanceBase::Create

; 1221 : 	return Py_BuildNone();

  000ea	e8 00 00 00 00	 call	 ?Py_BuildNone@@YAPAU_object@@XZ ; Py_BuildNone
; File C:\Program Files (x86)\Microsoft Visual Studio\2019\Community\VC\Tools\MSVC\14.28.29333\include\xstring

; 2227 :         return _BUF_SIZE <= _Myres;

  000ef	8b 4d e8	 mov	 ecx, DWORD PTR _kCreateData$[ebp+96]
; File D:\Metin2 Server Files\mainline\SRC_2014\Metin2Client\UserInterface\PythonCharacterModule.cpp

; 1221 : 	return Py_BuildNone();

  000f2	8b f0		 mov	 esi, eax
; File C:\Program Files (x86)\Microsoft Visual Studio\2019\Community\VC\Tools\MSVC\14.28.29333\include\xstring

; 2227 :         return _BUF_SIZE <= _Myres;

  000f4	83 f9 10	 cmp	 ecx, 16			; 00000010H

; 4385 :         if (_Mypair._Myval2._Large_string_engaged()) {

  000f7	72 0d		 jb	 SHORT $LN28@chrtestSet

; 4386 :             const pointer _Ptr = _Mypair._Myval2._Bx._Ptr;
; 4387 :             auto& _Al          = _Getal();
; 4388 :             _Destroy_in_place(_Mypair._Myval2._Bx._Ptr);
; 4389 :             _Al.deallocate(_Ptr, _Mypair._Myval2._Myres + 1);

  000f9	41		 inc	 ecx
; File C:\Program Files (x86)\Microsoft Visual Studio\2019\Community\VC\Tools\MSVC\14.28.29333\include\xmemory

; 810  :         _Deallocate<_New_alignof<_Ty>>(_Ptr, sizeof(_Ty) * _Count);

  000fa	51		 push	 ecx
  000fb	ff 75 d4	 push	 DWORD PTR _kCreateData$[ebp+76]
  000fe	e8 00 00 00 00	 call	 ??$_Deallocate@$07$0A@@std@@YAXPAXI@Z ; std::_Deallocate<8,0>
  00103	83 c4 08	 add	 esp, 8
$LN28@chrtestSet:
  00106	8d 4d cb	 lea	 ecx, DWORD PTR _kCreateData$[ebp+67]
; File C:\Program Files (x86)\Microsoft Visual Studio\2019\Community\VC\Tools\MSVC\14.28.29333\include\xstring

; 4392 :         _Mypair._Myval2._Mysize = 0;

  00109	c7 45 e4 00 00
	00 00		 mov	 DWORD PTR _kCreateData$[ebp+92], 0

; 4393 :         _Mypair._Myval2._Myres  = _BUF_SIZE - 1;

  00110	c7 45 e8 0f 00
	00 00		 mov	 DWORD PTR _kCreateData$[ebp+96], 15 ; 0000000fH

; 4394 :         // the _Traits::assign is last so the codegen doesn't think the char write can alias this
; 4395 :         _Traits::assign(_Mypair._Myval2._Bx._Buf[0], _Elem());

  00117	c6 45 d4 00	 mov	 BYTE PTR _kCreateData$[ebp+76], 0
  0011b	e8 00 00 00 00	 call	 ??1CAffectFlagContainer@@QAE@XZ ; CAffectFlagContainer::~CAffectFlagContainer
; File D:\Metin2 Server Files\mainline\SRC_2014\Metin2Client\UserInterface\PythonCharacterModule.cpp

; 1221 : 	return Py_BuildNone();

  00120	8b c6		 mov	 eax, esi
$LN1@chrtestSet:

; 1222 : }

  00122	8b 4d f4	 mov	 ecx, DWORD PTR __$EHRec$[ebp]
  00125	64 89 0d 00 00
	00 00		 mov	 DWORD PTR fs:0, ecx
  0012c	59		 pop	 ecx
  0012d	5e		 pop	 esi
  0012e	8b 4d f0	 mov	 ecx, DWORD PTR __$ArrayPad$[ebp]
  00131	33 cd		 xor	 ecx, ebp
  00133	e8 00 00 00 00	 call	 @__security_check_cookie@4
  00138	8b e5		 mov	 esp, ebp
  0013a	5d		 pop	 ebp
  0013b	c3		 ret	 0
_TEXT	ENDS
;	COMDAT text$x
text$x	SEGMENT
__unwindfunclet$?chrtestSetRideMan@@YAPAU_object@@PAU1@0@Z$0:
  00000	8d 4d 88	 lea	 ecx, DWORD PTR _kCreateData$[ebp]
  00003	e9 00 00 00 00	 jmp	 ??1SCreateData@CInstanceBase@@QAE@XZ
  00008	cc		 int	 3
  00009	cc		 int	 3
  0000a	cc		 int	 3
  0000b	cc		 int	 3
  0000c	cc		 int	 3
__ehhandler$?chrtestSetRideMan@@YAPAU_object@@PAU1@0@Z:
  0000d	90		 npad	 1
  0000e	90		 npad	 1
  0000f	8b 54 24 08	 mov	 edx, DWORD PTR [esp+8]
  00013	8d 42 0c	 lea	 eax, DWORD PTR [edx+12]
  00016	8b 4a 80	 mov	 ecx, DWORD PTR [edx-128]
  00019	33 c8		 xor	 ecx, eax
  0001b	e8 00 00 00 00	 call	 @__security_check_cookie@4
  00020	8b 4a fc	 mov	 ecx, DWORD PTR [edx-4]
  00023	33 c8		 xor	 ecx, eax
  00025	e8 00 00 00 00	 call	 @__security_check_cookie@4
  0002a	b8 00 00 00 00	 mov	 eax, OFFSET __ehfuncinfo$?chrtestSetRideMan@@YAPAU_object@@PAU1@0@Z
  0002f	e9 00 00 00 00	 jmp	 ___CxxFrameHandler3
text$x	ENDS
?chrtestSetRideMan@@YAPAU_object@@PAU1@0@Z ENDP		; chrtestSetRideMan
; Function compile flags: /Ogtp
; File D:\Metin2 Server Files\mainline\SRC_2014\Metin2Client\UserInterface\PythonCharacterModule.cpp
; File D:\Metin2 Server Files\mainline\SRC_2014\M2Data\include\d3dx8math.inl
; File D:\Metin2 Server Files\mainline\SRC_2014\Metin2Client\UserInterface\PythonCharacterModule.cpp
; File D:\Metin2 Server Files\mainline\SRC_2014\M2Data\include\d3dx8math.inl
; File D:\Metin2 Server Files\mainline\SRC_2014\Metin2Client\UserInterface\PythonCharacterModule.cpp
;	COMDAT ?chrMoveToDestPosition@@YAPAU_object@@PAU1@0@Z
_TEXT	SEGMENT
_iy$ = -28						; size = 4
_ix$ = -24						; size = 4
_iVID$ = -20						; size = 4
$T1 = -16						; size = 12
__$ArrayPad$ = -4					; size = 4
_poSelf$ = 8						; size = 4
_poArgs$ = 12						; size = 4
?chrMoveToDestPosition@@YAPAU_object@@PAU1@0@Z PROC	; chrMoveToDestPosition, COMDAT

; 1175 : {

  00000	55		 push	 ebp
  00001	8b ec		 mov	 ebp, esp
  00003	83 ec 1c	 sub	 esp, 28			; 0000001cH
  00006	a1 00 00 00 00	 mov	 eax, DWORD PTR ___security_cookie
  0000b	33 c5		 xor	 eax, ebp
  0000d	89 45 fc	 mov	 DWORD PTR __$ArrayPad$[ebp], eax
  00010	56		 push	 esi
  00011	8b 75 0c	 mov	 esi, DWORD PTR _poArgs$[ebp]

; 1176 : 	int iVID;
; 1177 : 	if (!PyTuple_GetInteger(poArgs, 0, &iVID))

  00014	8d 45 ec	 lea	 eax, DWORD PTR _iVID$[ebp]
  00017	50		 push	 eax
  00018	6a 00		 push	 0
  0001a	56		 push	 esi
  0001b	e8 00 00 00 00	 call	 ?PyTuple_GetInteger@@YA_NPAU_object@@HPAH@Z ; PyTuple_GetInteger
  00020	83 c4 0c	 add	 esp, 12			; 0000000cH
  00023	84 c0		 test	 al, al
  00025	75 14		 jne	 SHORT $LN2@chrMoveToD
$LN10@chrMoveToD:

; 1192 : 
; 1193 : 	return Py_BuildNone();
; 1194 : }

  00027	e8 00 00 00 00	 call	 ?Py_BadArgument@@YAPAU_object@@XZ ; Py_BadArgument
  0002c	5e		 pop	 esi
  0002d	8b 4d fc	 mov	 ecx, DWORD PTR __$ArrayPad$[ebp]
  00030	33 cd		 xor	 ecx, ebp
  00032	e8 00 00 00 00	 call	 @__security_check_cookie@4
  00037	8b e5		 mov	 esp, ebp
  00039	5d		 pop	 ebp
  0003a	c3		 ret	 0
$LN2@chrMoveToD:

; 1178 : 		return Py_BadArgument();
; 1179 : 
; 1180 : 	int ix;
; 1181 : 	if (!PyTuple_GetInteger(poArgs, 1, &ix))

  0003b	8d 45 e8	 lea	 eax, DWORD PTR _ix$[ebp]
  0003e	50		 push	 eax
  0003f	6a 01		 push	 1
  00041	56		 push	 esi
  00042	e8 00 00 00 00	 call	 ?PyTuple_GetInteger@@YA_NPAU_object@@HPAH@Z ; PyTuple_GetInteger
  00047	83 c4 0c	 add	 esp, 12			; 0000000cH
  0004a	84 c0		 test	 al, al
  0004c	74 d9		 je	 SHORT $LN10@chrMoveToD

; 1182 : 		return Py_BadArgument();
; 1183 : 	int iy;
; 1184 : 	if (!PyTuple_GetInteger(poArgs, 2, &iy))

  0004e	8d 45 e4	 lea	 eax, DWORD PTR _iy$[ebp]
  00051	50		 push	 eax
  00052	6a 02		 push	 2
  00054	56		 push	 esi
  00055	e8 00 00 00 00	 call	 ?PyTuple_GetInteger@@YA_NPAU_object@@HPAH@Z ; PyTuple_GetInteger
  0005a	83 c4 0c	 add	 esp, 12			; 0000000cH
  0005d	84 c0		 test	 al, al
  0005f	74 c6		 je	 SHORT $LN10@chrMoveToD

; 1185 : 		return Py_BadArgument();
; 1186 : 
; 1187 : 	CInstanceBase * pCharacterInstance = CPythonCharacterManager::Instance().GetInstancePtr(iVID);

  00061	8b 0d 00 00 00
	00		 mov	 ecx, DWORD PTR ?ms_singleton@?$CSingleton@VCPythonCharacterManager@@@@0PAVCPythonCharacterManager@@A ; CSingleton<CPythonCharacterManager>::ms_singleton
  00067	ff 75 ec	 push	 DWORD PTR _iVID$[ebp]
  0006a	83 c1 04	 add	 ecx, 4
  0006d	8b 01		 mov	 eax, DWORD PTR [ecx]
  0006f	ff 50 08	 call	 DWORD PTR [eax+8]

; 1188 : 	if (!pCharacterInstance)

  00072	85 c0		 test	 eax, eax
  00074	74 2c		 je	 SHORT $LN9@chrMoveToD

; 1191 : 	pCharacterInstance->NEW_MoveToDestPixelPositionDirection(TPixelPosition(ix, iy, 0.0f));

  00076	66 0f 6e 45 e8	 movd	 xmm0, DWORD PTR _ix$[ebp]
  0007b	8d 4d f0	 lea	 ecx, DWORD PTR $T1[ebp]
  0007e	0f 5b c0	 cvtdq2ps xmm0, xmm0
  00081	51		 push	 ecx
  00082	8b c8		 mov	 ecx, eax
; File D:\Metin2 Server Files\mainline\SRC_2014\M2Data\include\d3dx8math.inl

; 182  :     z = fz;

  00084	c7 45 f8 00 00
	00 00		 mov	 DWORD PTR $T1[ebp+8], 0
  0008b	f3 0f 11 45 f0	 movss	 DWORD PTR $T1[ebp], xmm0
  00090	66 0f 6e 45 e4	 movd	 xmm0, DWORD PTR _iy$[ebp]
; File D:\Metin2 Server Files\mainline\SRC_2014\Metin2Client\UserInterface\PythonCharacterModule.cpp

; 1191 : 	pCharacterInstance->NEW_MoveToDestPixelPositionDirection(TPixelPosition(ix, iy, 0.0f));

  00095	0f 5b c0	 cvtdq2ps xmm0, xmm0
; File D:\Metin2 Server Files\mainline\SRC_2014\M2Data\include\d3dx8math.inl

; 181  :     y = fy;

  00098	f3 0f 11 45 f4	 movss	 DWORD PTR $T1[ebp+4], xmm0
; File D:\Metin2 Server Files\mainline\SRC_2014\Metin2Client\UserInterface\PythonCharacterModule.cpp

; 1191 : 	pCharacterInstance->NEW_MoveToDestPixelPositionDirection(TPixelPosition(ix, iy, 0.0f));

  0009d	e8 00 00 00 00	 call	 ?NEW_MoveToDestPixelPositionDirection@CInstanceBase@@QAE_NABUD3DXVECTOR3@@@Z ; CInstanceBase::NEW_MoveToDestPixelPositionDirection
$LN9@chrMoveToD:

; 1192 : 
; 1193 : 	return Py_BuildNone();
; 1194 : }

  000a2	e8 00 00 00 00	 call	 ?Py_BuildNone@@YAPAU_object@@XZ ; Py_BuildNone
  000a7	8b 4d fc	 mov	 ecx, DWORD PTR __$ArrayPad$[ebp]
  000aa	33 cd		 xor	 ecx, ebp
  000ac	5e		 pop	 esi
  000ad	e8 00 00 00 00	 call	 @__security_check_cookie@4
  000b2	8b e5		 mov	 esp, ebp
  000b4	5d		 pop	 ebp
  000b5	c3		 ret	 0
?chrMoveToDestPosition@@YAPAU_object@@PAU1@0@Z ENDP	; chrMoveToDestPosition
_TEXT	ENDS
; Function compile flags: /Ogtp
; File D:\Metin2 Server Files\mainline\SRC_2014\Metin2Client\UserInterface\PythonCharacterModule.cpp
;	COMDAT ?chrWeaponTraceUseAlpha@@YAPAU_object@@PAU1@0@Z
_TEXT	SEGMENT
_poSelf$ = 8						; size = 4
_poArgs$ = 12						; size = 4
?chrWeaponTraceUseAlpha@@YAPAU_object@@PAU1@0@Z PROC	; chrWeaponTraceUseAlpha, COMDAT

; 1166 : 	CInstanceBase * pInstance = CPythonCharacterManager::Instance().GetMainInstancePtr();

  00000	8b 0d 00 00 00
	00		 mov	 ecx, DWORD PTR ?ms_singleton@?$CSingleton@VCPythonCharacterManager@@@@0PAVCPythonCharacterManager@@A ; CSingleton<CPythonCharacterManager>::ms_singleton
  00006	e8 00 00 00 00	 call	 ?GetMainInstancePtr@CPythonCharacterManager@@QAEPAVCInstanceBase@@XZ ; CPythonCharacterManager::GetMainInstancePtr

; 1167 : 	if (pInstance)

  0000b	85 c0		 test	 eax, eax
  0000d	74 0e		 je	 SHORT $LN2@chrWeaponT

; 1168 : 	{
; 1169 : 		pInstance->GetGraphicThingInstanceRef().UseAlphaWeaponTrace();

  0000f	8b c8		 mov	 ecx, eax
  00011	e8 00 00 00 00	 call	 ?GetGraphicThingInstanceRef@CInstanceBase@@QAEAAVCActorInstance@@XZ ; CInstanceBase::GetGraphicThingInstanceRef
  00016	8b c8		 mov	 ecx, eax
  00018	e8 00 00 00 00	 call	 ?UseAlphaWeaponTrace@CActorInstance@@QAEXXZ ; CActorInstance::UseAlphaWeaponTrace
$LN2@chrWeaponT:

; 1170 : 	}
; 1171 : 	return Py_BuildNone();

  0001d	e9 00 00 00 00	 jmp	 ?Py_BuildNone@@YAPAU_object@@XZ ; Py_BuildNone
?chrWeaponTraceUseAlpha@@YAPAU_object@@PAU1@0@Z ENDP	; chrWeaponTraceUseAlpha
_TEXT	ENDS
; Function compile flags: /Ogtp
; File D:\Metin2 Server Files\mainline\SRC_2014\Metin2Client\UserInterface\PythonCharacterModule.cpp
;	COMDAT ?chrWeaponTraceUseTexture@@YAPAU_object@@PAU1@0@Z
_TEXT	SEGMENT
_poSelf$ = 8						; size = 4
_poArgs$ = 12						; size = 4
?chrWeaponTraceUseTexture@@YAPAU_object@@PAU1@0@Z PROC	; chrWeaponTraceUseTexture, COMDAT

; 1156 : 	CInstanceBase * pInstance = CPythonCharacterManager::Instance().GetMainInstancePtr();

  00000	8b 0d 00 00 00
	00		 mov	 ecx, DWORD PTR ?ms_singleton@?$CSingleton@VCPythonCharacterManager@@@@0PAVCPythonCharacterManager@@A ; CSingleton<CPythonCharacterManager>::ms_singleton
  00006	e8 00 00 00 00	 call	 ?GetMainInstancePtr@CPythonCharacterManager@@QAEPAVCInstanceBase@@XZ ; CPythonCharacterManager::GetMainInstancePtr

; 1157 : 	if (pInstance)

  0000b	85 c0		 test	 eax, eax
  0000d	74 0e		 je	 SHORT $LN2@chrWeaponT

; 1158 : 	{
; 1159 : 		pInstance->GetGraphicThingInstanceRef().UseTextureWeaponTrace();

  0000f	8b c8		 mov	 ecx, eax
  00011	e8 00 00 00 00	 call	 ?GetGraphicThingInstanceRef@CInstanceBase@@QAEAAVCActorInstance@@XZ ; CInstanceBase::GetGraphicThingInstanceRef
  00016	8b c8		 mov	 ecx, eax
  00018	e8 00 00 00 00	 call	 ?UseTextureWeaponTrace@CActorInstance@@QAEXXZ ; CActorInstance::UseTextureWeaponTrace
$LN2@chrWeaponT:

; 1160 : 	}
; 1161 : 	return Py_BuildNone();

  0001d	e9 00 00 00 00	 jmp	 ?Py_BuildNone@@YAPAU_object@@XZ ; Py_BuildNone
?chrWeaponTraceUseTexture@@YAPAU_object@@PAU1@0@Z ENDP	; chrWeaponTraceUseTexture
_TEXT	ENDS
; Function compile flags: /Ogtp
; File D:\Metin2 Server Files\mainline\SRC_2014\Metin2Client\UserInterface\PythonCharacterModule.cpp
;	COMDAT ?chrWeaponTraceSetTexture@@YAPAU_object@@PAU1@0@Z
_TEXT	SEGMENT
_szPathName$ = -4					; size = 4
_poSelf$ = 8						; size = 4
_poArgs$ = 12						; size = 4
?chrWeaponTraceSetTexture@@YAPAU_object@@PAU1@0@Z PROC	; chrWeaponTraceSetTexture, COMDAT

; 1141 : {

  00000	55		 push	 ebp
  00001	8b ec		 mov	 ebp, esp
  00003	51		 push	 ecx

; 1142 : 	char * szPathName;
; 1143 : 	if (!PyTuple_GetString(poArgs, 0, &szPathName))

  00004	8d 45 fc	 lea	 eax, DWORD PTR _szPathName$[ebp]
  00007	50		 push	 eax
  00008	6a 00		 push	 0
  0000a	ff 75 0c	 push	 DWORD PTR _poArgs$[ebp]
  0000d	e8 00 00 00 00	 call	 ?PyTuple_GetString@@YA_NPAU_object@@HPAPAD@Z ; PyTuple_GetString
  00012	83 c4 0c	 add	 esp, 12			; 0000000cH
  00015	84 c0		 test	 al, al
  00017	75 09		 jne	 SHORT $LN2@chrWeaponT

; 1144 : 		return Py_BadArgument();

  00019	e8 00 00 00 00	 call	 ?Py_BadArgument@@YAPAU_object@@XZ ; Py_BadArgument

; 1152 : }

  0001e	8b e5		 mov	 esp, ebp
  00020	5d		 pop	 ebp
  00021	c3		 ret	 0
$LN2@chrWeaponT:

; 1145 : 
; 1146 : 	CInstanceBase * pInstance = CPythonCharacterManager::Instance().GetMainInstancePtr();

  00022	8b 0d 00 00 00
	00		 mov	 ecx, DWORD PTR ?ms_singleton@?$CSingleton@VCPythonCharacterManager@@@@0PAVCPythonCharacterManager@@A ; CSingleton<CPythonCharacterManager>::ms_singleton
  00028	e8 00 00 00 00	 call	 ?GetMainInstancePtr@CPythonCharacterManager@@QAEPAVCInstanceBase@@XZ ; CPythonCharacterManager::GetMainInstancePtr

; 1147 : 	if (pInstance)

  0002d	85 c0		 test	 eax, eax
  0002f	74 11		 je	 SHORT $LN3@chrWeaponT

; 1148 : 	{
; 1149 : 		pInstance->GetGraphicThingInstanceRef().SetWeaponTraceTexture(szPathName);

  00031	ff 75 fc	 push	 DWORD PTR _szPathName$[ebp]
  00034	8b c8		 mov	 ecx, eax
  00036	e8 00 00 00 00	 call	 ?GetGraphicThingInstanceRef@CInstanceBase@@QAEAAVCActorInstance@@XZ ; CInstanceBase::GetGraphicThingInstanceRef
  0003b	8b c8		 mov	 ecx, eax
  0003d	e8 00 00 00 00	 call	 ?SetWeaponTraceTexture@CActorInstance@@QAEXPBD@Z ; CActorInstance::SetWeaponTraceTexture
$LN3@chrWeaponT:

; 1150 : 	}
; 1151 : 	return Py_BuildNone();

  00042	e8 00 00 00 00	 call	 ?Py_BuildNone@@YAPAU_object@@XZ ; Py_BuildNone

; 1152 : }

  00047	8b e5		 mov	 esp, ebp
  00049	5d		 pop	 ebp
  0004a	c3		 ret	 0
?chrWeaponTraceSetTexture@@YAPAU_object@@PAU1@0@Z ENDP	; chrWeaponTraceSetTexture
_TEXT	ENDS
; Function compile flags: /Ogtp
; File D:\Metin2 Server Files\mainline\SRC_2014\Metin2Client\UserInterface\PythonCharacterModule.cpp
;	COMDAT ?chrSetAttackSpeed@@YAPAU_object@@PAU1@0@Z
_TEXT	SEGMENT
_poSelf$ = 8						; size = 4
_poArgs$ = 12						; size = 4
?chrSetAttackSpeed@@YAPAU_object@@PAU1@0@Z PROC		; chrSetAttackSpeed, COMDAT

; 1126 : 	//int iSpeed;
; 1127 : 	//if (!PyTuple_GetInteger(poArgs, 0, &iSpeed))
; 1128 : 	//	return Py_BadArgument();
; 1129 : 
; 1130 : 	//CInstanceBase * pCharacterInstance = CPythonCharacterManager::Instance().GetSelectedInstancePtr();
; 1131 : 
; 1132 : 	//if (!pCharacterInstance)
; 1133 : 	//	return Py_BuildValue("i", 0);
; 1134 : 
; 1135 : 	//pCharacterInstance->SetAttackSpeed(iSpeed);
; 1136 : 
; 1137 : 	return Py_BuildNone();

  00000	e9 00 00 00 00	 jmp	 ?Py_BuildNone@@YAPAU_object@@XZ ; Py_BuildNone
?chrSetAttackSpeed@@YAPAU_object@@PAU1@0@Z ENDP		; chrSetAttackSpeed
_TEXT	ENDS
; Function compile flags: /Ogtp
; File D:\Metin2 Server Files\mainline\SRC_2014\Metin2Client\UserInterface\PythonCharacterModule.cpp
;	COMDAT ?chrSetMoveSpeed@@YAPAU_object@@PAU1@0@Z
_TEXT	SEGMENT
_poSelf$ = 8						; size = 4
_poArgs$ = 12						; size = 4
?chrSetMoveSpeed@@YAPAU_object@@PAU1@0@Z PROC		; chrSetMoveSpeed, COMDAT

; 1110 : 	//int iSpeed;
; 1111 : 	//if (!PyTuple_GetInteger(poArgs, 0, &iSpeed))
; 1112 : 	//	return Py_BadArgument();
; 1113 : 
; 1114 : 	//CInstanceBase * pCharacterInstance = CPythonCharacterManager::Instance().GetSelectedInstancePtr();
; 1115 : 
; 1116 : 	//if (!pCharacterInstance)
; 1117 : 	//	return Py_BuildValue("i", 0);
; 1118 : 
; 1119 : 	//pCharacterInstance->SetMoveSpeed(iSpeed);
; 1120 : 
; 1121 : 	return Py_BuildNone();

  00000	e9 00 00 00 00	 jmp	 ?Py_BuildNone@@YAPAU_object@@XZ ; Py_BuildNone
?chrSetMoveSpeed@@YAPAU_object@@PAU1@0@Z ENDP		; chrSetMoveSpeed
_TEXT	ENDS
; Function compile flags: /Ogtp
; File D:\Metin2 Server Files\mainline\SRC_2014\Metin2Client\UserInterface\PythonCharacterModule.cpp
;	COMDAT ?chrFaintTest@@YAPAU_object@@PAU1@0@Z
_TEXT	SEGMENT
_poSelf$ = 8						; size = 4
_poArgs$ = 12						; size = 4
?chrFaintTest@@YAPAU_object@@PAU1@0@Z PROC		; chrFaintTest, COMDAT

; 1089 : 	CInstanceBase * pCharacterInstance = CPythonCharacterManager::Instance().GetSelectedInstancePtr();

  00000	8b 0d 00 00 00
	00		 mov	 ecx, DWORD PTR ?ms_singleton@?$CSingleton@VCPythonCharacterManager@@@@0PAVCPythonCharacterManager@@A ; CSingleton<CPythonCharacterManager>::ms_singleton
  00006	56		 push	 esi
  00007	e8 00 00 00 00	 call	 ?GetSelectedInstancePtr@CPythonCharacterManager@@QAEPAVCInstanceBase@@XZ ; CPythonCharacterManager::GetSelectedInstancePtr
  0000c	8b f0		 mov	 esi, eax

; 1090 : 	if (pCharacterInstance)

  0000e	85 f6		 test	 esi, esi
  00010	0f 84 9e 00 00
	00		 je	 $LN4@chrFaintTe

; 1091 : 	{
; 1092 : 		if (pCharacterInstance->GetGraphicThingInstanceRef().IsFaint())

  00016	8b ce		 mov	 ecx, esi
  00018	e8 00 00 00 00	 call	 ?GetGraphicThingInstanceRef@CInstanceBase@@QAEAAVCActorInstance@@XZ ; CInstanceBase::GetGraphicThingInstanceRef
  0001d	8b c8		 mov	 ecx, eax
  0001f	e8 00 00 00 00	 call	 ?IsFaint@CActorInstance@@QAEHXZ ; CActorInstance::IsFaint
  00024	85 c0		 test	 eax, eax
  00026	74 16		 je	 SHORT $LN3@chrFaintTe

; 1093 : 		{
; 1094 : 			pCharacterInstance->GetGraphicThingInstanceRef().SetFaint(false);

  00028	6a 00		 push	 0

; 1102 : 		}
; 1103 : 	}
; 1104 : 
; 1105 : 	return Py_BuildNone();

  0002a	8b ce		 mov	 ecx, esi
  0002c	e8 00 00 00 00	 call	 ?GetGraphicThingInstanceRef@CInstanceBase@@QAEAAVCActorInstance@@XZ ; CInstanceBase::GetGraphicThingInstanceRef
  00031	8b c8		 mov	 ecx, eax
  00033	e8 00 00 00 00	 call	 ?SetFaint@CActorInstance@@QAEX_N@Z ; CActorInstance::SetFaint
  00038	5e		 pop	 esi
  00039	e9 00 00 00 00	 jmp	 ?Py_BuildNone@@YAPAU_object@@XZ ; Py_BuildNone
$LN3@chrFaintTe:

; 1095 : 		}
; 1096 : 		else
; 1097 : 		{
; 1098 : 			pCharacterInstance->GetGraphicThingInstanceRef().InterceptOnceMotion(CRaceMotionData::NAME_DAMAGE_FLYING);

  0003e	51		 push	 ecx
  0003f	c7 04 24 00 00
	80 3f		 mov	 DWORD PTR [esp], 1065353216 ; 3f800000H
  00046	6a 00		 push	 0
  00048	51		 push	 ecx
  00049	c7 04 24 cd cc
	cc 3d		 mov	 DWORD PTR [esp], 1036831949 ; 3dcccccdH
  00050	8b ce		 mov	 ecx, esi
  00052	6a 06		 push	 6
  00054	e8 00 00 00 00	 call	 ?GetGraphicThingInstanceRef@CInstanceBase@@QAEAAVCActorInstance@@XZ ; CInstanceBase::GetGraphicThingInstanceRef
  00059	8b c8		 mov	 ecx, eax
  0005b	e8 00 00 00 00	 call	 ?InterceptOnceMotion@CActorInstance@@QAE_NKMIM@Z ; CActorInstance::InterceptOnceMotion

; 1099 : 			pCharacterInstance->GetGraphicThingInstanceRef().PushOnceMotion(CRaceMotionData::NAME_STAND_UP);

  00060	83 ec 08	 sub	 esp, 8
  00063	8b ce		 mov	 ecx, esi
  00065	c7 44 24 04 00
	00 80 3f	 mov	 DWORD PTR [esp+4], 1065353216 ; 3f800000H
  0006d	c7 04 24 cd cc
	cc 3d		 mov	 DWORD PTR [esp], 1036831949 ; 3dcccccdH
  00074	6a 07		 push	 7
  00076	e8 00 00 00 00	 call	 ?GetGraphicThingInstanceRef@CInstanceBase@@QAEAAVCActorInstance@@XZ ; CInstanceBase::GetGraphicThingInstanceRef
  0007b	8b c8		 mov	 ecx, eax
  0007d	e8 00 00 00 00	 call	 ?PushOnceMotion@CActorInstance@@QAE_NKMM@Z ; CActorInstance::PushOnceMotion

; 1100 : 			pCharacterInstance->GetGraphicThingInstanceRef().PushLoopMotion(CRaceMotionData::NAME_WAIT);

  00082	83 ec 08	 sub	 esp, 8
  00085	8b ce		 mov	 ecx, esi
  00087	c7 44 24 04 00
	00 80 3f	 mov	 DWORD PTR [esp+4], 1065353216 ; 3f800000H
  0008f	c7 04 24 cd cc
	cc 3d		 mov	 DWORD PTR [esp], 1036831949 ; 3dcccccdH
  00096	6a 01		 push	 1
  00098	e8 00 00 00 00	 call	 ?GetGraphicThingInstanceRef@CInstanceBase@@QAEAAVCActorInstance@@XZ ; CInstanceBase::GetGraphicThingInstanceRef
  0009d	8b c8		 mov	 ecx, eax
  0009f	e8 00 00 00 00	 call	 ?PushLoopMotion@CActorInstance@@QAE_NKMM@Z ; CActorInstance::PushLoopMotion

; 1101 : 			pCharacterInstance->GetGraphicThingInstanceRef().SetFaint(true);

  000a4	6a 01		 push	 1

; 1102 : 		}
; 1103 : 	}
; 1104 : 
; 1105 : 	return Py_BuildNone();

  000a6	8b ce		 mov	 ecx, esi
  000a8	e8 00 00 00 00	 call	 ?GetGraphicThingInstanceRef@CInstanceBase@@QAEAAVCActorInstance@@XZ ; CInstanceBase::GetGraphicThingInstanceRef
  000ad	8b c8		 mov	 ecx, eax
  000af	e8 00 00 00 00	 call	 ?SetFaint@CActorInstance@@QAEX_N@Z ; CActorInstance::SetFaint
$LN4@chrFaintTe:
  000b4	5e		 pop	 esi
  000b5	e9 00 00 00 00	 jmp	 ?Py_BuildNone@@YAPAU_object@@XZ ; Py_BuildNone
?chrFaintTest@@YAPAU_object@@PAU1@0@Z ENDP		; chrFaintTest
_TEXT	ENDS
; Function compile flags: /Ogtp
; File D:\Metin2 Server Files\mainline\SRC_2014\Metin2Client\UserInterface\PythonCharacterModule.cpp
;	COMDAT ?chrtestRestoreRenderMode@@YAPAU_object@@PAU1@0@Z
_TEXT	SEGMENT
_iVirtualID$ = -4					; size = 4
_poSelf$ = 8						; size = 4
_poArgs$ = 12						; size = 4
?chrtestRestoreRenderMode@@YAPAU_object@@PAU1@0@Z PROC	; chrtestRestoreRenderMode, COMDAT

; 1073 : {

  00000	55		 push	 ebp
  00001	8b ec		 mov	 ebp, esp
  00003	51		 push	 ecx

; 1074 : 	int iVirtualID;
; 1075 : 	if (!PyTuple_GetInteger(poArgs, 0, &iVirtualID))

  00004	8d 45 fc	 lea	 eax, DWORD PTR _iVirtualID$[ebp]
  00007	50		 push	 eax
  00008	6a 00		 push	 0
  0000a	ff 75 0c	 push	 DWORD PTR _poArgs$[ebp]
  0000d	e8 00 00 00 00	 call	 ?PyTuple_GetInteger@@YA_NPAU_object@@HPAH@Z ; PyTuple_GetInteger
  00012	83 c4 0c	 add	 esp, 12			; 0000000cH
  00015	84 c0		 test	 al, al
  00017	75 0e		 jne	 SHORT $LN2@chrtestRes

; 1076 : 		return Py_BuildException();

  00019	6a 00		 push	 0
  0001b	e8 00 00 00 00	 call	 ?Py_BuildException@@YAPAU_object@@PBDZZ ; Py_BuildException
  00020	83 c4 04	 add	 esp, 4

; 1085 : }

  00023	8b e5		 mov	 esp, ebp
  00025	5d		 pop	 ebp
  00026	c3		 ret	 0
$LN2@chrtestRes:

; 1077 : 
; 1078 : 	CInstanceBase * pkInst = CPythonCharacterManager::Instance().GetInstancePtr(iVirtualID);

  00027	8b 0d 00 00 00
	00		 mov	 ecx, DWORD PTR ?ms_singleton@?$CSingleton@VCPythonCharacterManager@@@@0PAVCPythonCharacterManager@@A ; CSingleton<CPythonCharacterManager>::ms_singleton
  0002d	ff 75 fc	 push	 DWORD PTR _iVirtualID$[ebp]
  00030	83 c1 04	 add	 ecx, 4
  00033	8b 01		 mov	 eax, DWORD PTR [ecx]
  00035	ff 50 08	 call	 DWORD PTR [eax+8]

; 1079 : 	if (pkInst)

  00038	85 c0		 test	 eax, eax
  0003a	74 07		 je	 SHORT $LN3@chrtestRes

; 1080 : 	{
; 1081 : 		pkInst->RestoreRenderMode();

  0003c	8b c8		 mov	 ecx, eax
  0003e	e8 00 00 00 00	 call	 ?RestoreRenderMode@CInstanceBase@@QAEXXZ ; CInstanceBase::RestoreRenderMode
$LN3@chrtestRes:

; 1082 : 	}
; 1083 : 
; 1084 : 	return Py_BuildNone();

  00043	e8 00 00 00 00	 call	 ?Py_BuildNone@@YAPAU_object@@XZ ; Py_BuildNone

; 1085 : }

  00048	8b e5		 mov	 esp, ebp
  0004a	5d		 pop	 ebp
  0004b	c3		 ret	 0
?chrtestRestoreRenderMode@@YAPAU_object@@PAU1@0@Z ENDP	; chrtestRestoreRenderMode
_TEXT	ENDS
; Function compile flags: /Ogtp
; File D:\Metin2 Server Files\mainline\SRC_2014\Metin2Client\UserInterface\PythonCharacterModule.cpp
;	COMDAT ?chrtestSetSpecularRenderMode2@@YAPAU_object@@PAU1@0@Z
_TEXT	SEGMENT
_iPart$ = -12						; size = 4
_fAlpha$ = -8						; size = 4
_iVirtualID$ = -4					; size = 4
_poSelf$ = 8						; size = 4
_poArgs$ = 12						; size = 4
?chrtestSetSpecularRenderMode2@@YAPAU_object@@PAU1@0@Z PROC ; chrtestSetSpecularRenderMode2, COMDAT

; 1052 : {

  00000	55		 push	 ebp
  00001	8b ec		 mov	 ebp, esp
  00003	83 ec 0c	 sub	 esp, 12			; 0000000cH

; 1053 : 	int iVirtualID;
; 1054 : 	if (!PyTuple_GetInteger(poArgs, 0, &iVirtualID))

  00006	8d 45 fc	 lea	 eax, DWORD PTR _iVirtualID$[ebp]
  00009	56		 push	 esi
  0000a	8b 75 0c	 mov	 esi, DWORD PTR _poArgs$[ebp]
  0000d	50		 push	 eax
  0000e	6a 00		 push	 0
  00010	56		 push	 esi
  00011	e8 00 00 00 00	 call	 ?PyTuple_GetInteger@@YA_NPAU_object@@HPAH@Z ; PyTuple_GetInteger
  00016	83 c4 0c	 add	 esp, 12			; 0000000cH
  00019	84 c0		 test	 al, al
  0001b	75 0f		 jne	 SHORT $LN2@chrtestSet
$LN7@chrtestSet:

; 1070 : }

  0001d	6a 00		 push	 0
  0001f	e8 00 00 00 00	 call	 ?Py_BuildException@@YAPAU_object@@PBDZZ ; Py_BuildException
  00024	83 c4 04	 add	 esp, 4
  00027	5e		 pop	 esi
  00028	8b e5		 mov	 esp, ebp
  0002a	5d		 pop	 ebp
  0002b	c3		 ret	 0
$LN2@chrtestSet:

; 1055 : 		return Py_BuildException();
; 1056 : 	int iPart;
; 1057 : 	if (!PyTuple_GetInteger(poArgs, 1, &iPart))

  0002c	8d 45 f4	 lea	 eax, DWORD PTR _iPart$[ebp]
  0002f	50		 push	 eax
  00030	6a 01		 push	 1
  00032	56		 push	 esi
  00033	e8 00 00 00 00	 call	 ?PyTuple_GetInteger@@YA_NPAU_object@@HPAH@Z ; PyTuple_GetInteger
  00038	83 c4 0c	 add	 esp, 12			; 0000000cH
  0003b	84 c0		 test	 al, al
  0003d	74 de		 je	 SHORT $LN7@chrtestSet

; 1058 : 		return Py_BuildException();
; 1059 : 	float fAlpha;
; 1060 : 	if (!PyTuple_GetFloat(poArgs, 2, &fAlpha))

  0003f	8d 45 f8	 lea	 eax, DWORD PTR _fAlpha$[ebp]
  00042	50		 push	 eax
  00043	6a 02		 push	 2
  00045	56		 push	 esi
  00046	e8 00 00 00 00	 call	 ?PyTuple_GetFloat@@YA_NPAU_object@@HPAM@Z ; PyTuple_GetFloat
  0004b	83 c4 0c	 add	 esp, 12			; 0000000cH
  0004e	84 c0		 test	 al, al
  00050	74 cb		 je	 SHORT $LN7@chrtestSet

; 1061 : 		return Py_BuildException();
; 1062 : 
; 1063 : 	CInstanceBase * pkInst = CPythonCharacterManager::Instance().GetInstancePtr(iVirtualID);

  00052	8b 0d 00 00 00
	00		 mov	 ecx, DWORD PTR ?ms_singleton@?$CSingleton@VCPythonCharacterManager@@@@0PAVCPythonCharacterManager@@A ; CSingleton<CPythonCharacterManager>::ms_singleton
  00058	ff 75 fc	 push	 DWORD PTR _iVirtualID$[ebp]
  0005b	83 c1 04	 add	 ecx, 4
  0005e	8b 01		 mov	 eax, DWORD PTR [ecx]
  00060	ff 50 08	 call	 DWORD PTR [eax+8]

; 1064 : 	if (pkInst)

  00063	85 c0		 test	 eax, eax
  00065	74 1e		 je	 SHORT $LN5@chrtestSet

; 1065 : 	{
; 1066 : 		pkInst->GetGraphicThingInstanceRef().SetSpecularInfoForce(TRUE, iPart, fAlpha);

  00067	f3 0f 10 45 f8	 movss	 xmm0, DWORD PTR _fAlpha$[ebp]
  0006c	51		 push	 ecx
  0006d	f3 0f 11 04 24	 movss	 DWORD PTR [esp], xmm0
  00072	8b c8		 mov	 ecx, eax
  00074	ff 75 f4	 push	 DWORD PTR _iPart$[ebp]
  00077	6a 01		 push	 1
  00079	e8 00 00 00 00	 call	 ?GetGraphicThingInstanceRef@CInstanceBase@@QAEAAVCActorInstance@@XZ ; CInstanceBase::GetGraphicThingInstanceRef
  0007e	8b c8		 mov	 ecx, eax
  00080	e8 00 00 00 00	 call	 ?SetSpecularInfoForce@CActorInstance@@QAEXHHM@Z ; CActorInstance::SetSpecularInfoForce
$LN5@chrtestSet:

; 1067 : 	}
; 1068 : 
; 1069 : 	return Py_BuildNone();

  00085	e8 00 00 00 00	 call	 ?Py_BuildNone@@YAPAU_object@@XZ ; Py_BuildNone
  0008a	5e		 pop	 esi

; 1070 : }

  0008b	8b e5		 mov	 esp, ebp
  0008d	5d		 pop	 ebp
  0008e	c3		 ret	 0
?chrtestSetSpecularRenderMode2@@YAPAU_object@@PAU1@0@Z ENDP ; chrtestSetSpecularRenderMode2
_TEXT	ENDS
; Function compile flags: /Ogtp
; File D:\Metin2 Server Files\mainline\SRC_2014\Metin2Client\UserInterface\PythonCharacterModule.cpp
;	COMDAT ?chrtestSetSpecularRenderMode@@YAPAU_object@@PAU1@0@Z
_TEXT	SEGMENT
_iPart$ = -12						; size = 4
_fAlpha$ = -8						; size = 4
_iVirtualID$ = -4					; size = 4
_poSelf$ = 8						; size = 4
_poArgs$ = 12						; size = 4
?chrtestSetSpecularRenderMode@@YAPAU_object@@PAU1@0@Z PROC ; chrtestSetSpecularRenderMode, COMDAT

; 1031 : {

  00000	55		 push	 ebp
  00001	8b ec		 mov	 ebp, esp
  00003	83 ec 0c	 sub	 esp, 12			; 0000000cH

; 1032 : 	int iVirtualID;
; 1033 : 	if (!PyTuple_GetInteger(poArgs, 0, &iVirtualID))

  00006	8d 45 fc	 lea	 eax, DWORD PTR _iVirtualID$[ebp]
  00009	56		 push	 esi
  0000a	8b 75 0c	 mov	 esi, DWORD PTR _poArgs$[ebp]
  0000d	50		 push	 eax
  0000e	6a 00		 push	 0
  00010	56		 push	 esi
  00011	e8 00 00 00 00	 call	 ?PyTuple_GetInteger@@YA_NPAU_object@@HPAH@Z ; PyTuple_GetInteger
  00016	83 c4 0c	 add	 esp, 12			; 0000000cH
  00019	84 c0		 test	 al, al
  0001b	75 0f		 jne	 SHORT $LN2@chrtestSet
$LN7@chrtestSet:

; 1049 : }

  0001d	6a 00		 push	 0
  0001f	e8 00 00 00 00	 call	 ?Py_BuildException@@YAPAU_object@@PBDZZ ; Py_BuildException
  00024	83 c4 04	 add	 esp, 4
  00027	5e		 pop	 esi
  00028	8b e5		 mov	 esp, ebp
  0002a	5d		 pop	 ebp
  0002b	c3		 ret	 0
$LN2@chrtestSet:

; 1034 : 		return Py_BuildException();
; 1035 : 	int iPart;
; 1036 : 	if (!PyTuple_GetInteger(poArgs, 1, &iPart))

  0002c	8d 45 f4	 lea	 eax, DWORD PTR _iPart$[ebp]
  0002f	50		 push	 eax
  00030	6a 01		 push	 1
  00032	56		 push	 esi
  00033	e8 00 00 00 00	 call	 ?PyTuple_GetInteger@@YA_NPAU_object@@HPAH@Z ; PyTuple_GetInteger
  00038	83 c4 0c	 add	 esp, 12			; 0000000cH
  0003b	84 c0		 test	 al, al
  0003d	74 de		 je	 SHORT $LN7@chrtestSet

; 1037 : 		return Py_BuildException();
; 1038 : 	float fAlpha;
; 1039 : 	if (!PyTuple_GetFloat(poArgs, 2, &fAlpha))

  0003f	8d 45 f8	 lea	 eax, DWORD PTR _fAlpha$[ebp]
  00042	50		 push	 eax
  00043	6a 02		 push	 2
  00045	56		 push	 esi
  00046	e8 00 00 00 00	 call	 ?PyTuple_GetFloat@@YA_NPAU_object@@HPAM@Z ; PyTuple_GetFloat
  0004b	83 c4 0c	 add	 esp, 12			; 0000000cH
  0004e	84 c0		 test	 al, al
  00050	74 cb		 je	 SHORT $LN7@chrtestSet

; 1040 : 		return Py_BuildException();
; 1041 : 
; 1042 : 	CInstanceBase * pkInst = CPythonCharacterManager::Instance().GetInstancePtr(iVirtualID);

  00052	8b 0d 00 00 00
	00		 mov	 ecx, DWORD PTR ?ms_singleton@?$CSingleton@VCPythonCharacterManager@@@@0PAVCPythonCharacterManager@@A ; CSingleton<CPythonCharacterManager>::ms_singleton
  00058	ff 75 fc	 push	 DWORD PTR _iVirtualID$[ebp]
  0005b	83 c1 04	 add	 ecx, 4
  0005e	8b 01		 mov	 eax, DWORD PTR [ecx]
  00060	ff 50 08	 call	 DWORD PTR [eax+8]

; 1043 : 	if (pkInst)

  00063	85 c0		 test	 eax, eax
  00065	74 1e		 je	 SHORT $LN5@chrtestSet

; 1044 : 	{
; 1045 : 		pkInst->GetGraphicThingInstanceRef().SetSpecularInfo(TRUE, iPart, fAlpha);

  00067	f3 0f 10 45 f8	 movss	 xmm0, DWORD PTR _fAlpha$[ebp]
  0006c	51		 push	 ecx
  0006d	f3 0f 11 04 24	 movss	 DWORD PTR [esp], xmm0
  00072	8b c8		 mov	 ecx, eax
  00074	ff 75 f4	 push	 DWORD PTR _iPart$[ebp]
  00077	6a 01		 push	 1
  00079	e8 00 00 00 00	 call	 ?GetGraphicThingInstanceRef@CInstanceBase@@QAEAAVCActorInstance@@XZ ; CInstanceBase::GetGraphicThingInstanceRef
  0007e	8b c8		 mov	 ecx, eax
  00080	e8 00 00 00 00	 call	 ?SetSpecularInfo@CActorInstance@@QAEXHHM@Z ; CActorInstance::SetSpecularInfo
$LN5@chrtestSet:

; 1046 : 	}
; 1047 : 
; 1048 : 	return Py_BuildNone();

  00085	e8 00 00 00 00	 call	 ?Py_BuildNone@@YAPAU_object@@XZ ; Py_BuildNone
  0008a	5e		 pop	 esi

; 1049 : }

  0008b	8b e5		 mov	 esp, ebp
  0008d	5d		 pop	 ebp
  0008e	c3		 ret	 0
?chrtestSetSpecularRenderMode@@YAPAU_object@@PAU1@0@Z ENDP ; chrtestSetSpecularRenderMode
_TEXT	ENDS
; Function compile flags: /Ogtp
; File D:\Metin2 Server Files\mainline\SRC_2014\Metin2Client\UserInterface\PythonCharacterModule.cpp
; File D:\Metin2 Server Files\mainline\SRC_2014\M2Data\include\d3dx8math.inl
; File D:\Metin2 Server Files\mainline\SRC_2014\Metin2Client\UserInterface\PythonCharacterModule.cpp
; File D:\Metin2 Server Files\mainline\SRC_2014\M2Data\include\d3dx8math.inl
; File D:\Metin2 Server Files\mainline\SRC_2014\Metin2Client\UserInterface\PythonCharacterModule.cpp
; File D:\Metin2 Server Files\mainline\SRC_2014\M2Data\include\d3dx8math.inl
; File D:\Metin2 Server Files\mainline\SRC_2014\Metin2Client\UserInterface\PythonCharacterModule.cpp
; File D:\Metin2 Server Files\mainline\SRC_2014\M2Data\include\d3dx8math.inl
; File D:\Metin2 Server Files\mainline\SRC_2014\Metin2Client\UserInterface\PythonCharacterModule.cpp
;	COMDAT ?chrtestSetModulateRenderModeRGB@@YAPAU_object@@PAU1@0@Z
_TEXT	SEGMENT
$T1 = -32						; size = 16
_fb$ = -16						; size = 4
_fg$ = -12						; size = 4
_fr$ = -8						; size = 4
_iVirtualID$ = -4					; size = 4
_poSelf$ = 8						; size = 4
_poArgs$ = 12						; size = 4
?chrtestSetModulateRenderModeRGB@@YAPAU_object@@PAU1@0@Z PROC ; chrtestSetModulateRenderModeRGB, COMDAT

; 1006 : {

  00000	55		 push	 ebp
  00001	8b ec		 mov	 ebp, esp
  00003	83 ec 20	 sub	 esp, 32			; 00000020H

; 1007 : 	int iVirtualID;
; 1008 : 	if (!PyTuple_GetInteger(poArgs, 0, &iVirtualID))

  00006	8d 45 fc	 lea	 eax, DWORD PTR _iVirtualID$[ebp]
  00009	56		 push	 esi
  0000a	8b 75 0c	 mov	 esi, DWORD PTR _poArgs$[ebp]
  0000d	50		 push	 eax
  0000e	6a 00		 push	 0
  00010	56		 push	 esi
  00011	e8 00 00 00 00	 call	 ?PyTuple_GetInteger@@YA_NPAU_object@@HPAH@Z ; PyTuple_GetInteger
  00016	83 c4 0c	 add	 esp, 12			; 0000000cH
  00019	84 c0		 test	 al, al
  0001b	75 0f		 jne	 SHORT $LN2@chrtestSet
$LN10@chrtestSet:

; 1028 : }

  0001d	6a 00		 push	 0
  0001f	e8 00 00 00 00	 call	 ?Py_BuildException@@YAPAU_object@@PBDZZ ; Py_BuildException
  00024	83 c4 04	 add	 esp, 4
  00027	5e		 pop	 esi
  00028	8b e5		 mov	 esp, ebp
  0002a	5d		 pop	 ebp
  0002b	c3		 ret	 0
$LN2@chrtestSet:

; 1009 : 		return Py_BuildException();
; 1010 : 	float fr;
; 1011 : 	if (!PyTuple_GetFloat(poArgs, 1, &fr))

  0002c	8d 45 f8	 lea	 eax, DWORD PTR _fr$[ebp]
  0002f	50		 push	 eax
  00030	6a 01		 push	 1
  00032	56		 push	 esi
  00033	e8 00 00 00 00	 call	 ?PyTuple_GetFloat@@YA_NPAU_object@@HPAM@Z ; PyTuple_GetFloat
  00038	83 c4 0c	 add	 esp, 12			; 0000000cH
  0003b	84 c0		 test	 al, al
  0003d	74 de		 je	 SHORT $LN10@chrtestSet

; 1012 : 		return Py_BuildException();
; 1013 : 	float fg;
; 1014 : 	if (!PyTuple_GetFloat(poArgs, 2, &fg))

  0003f	8d 45 f4	 lea	 eax, DWORD PTR _fg$[ebp]
  00042	50		 push	 eax
  00043	6a 02		 push	 2
  00045	56		 push	 esi
  00046	e8 00 00 00 00	 call	 ?PyTuple_GetFloat@@YA_NPAU_object@@HPAM@Z ; PyTuple_GetFloat
  0004b	83 c4 0c	 add	 esp, 12			; 0000000cH
  0004e	84 c0		 test	 al, al
  00050	74 cb		 je	 SHORT $LN10@chrtestSet

; 1015 : 		return Py_BuildException();
; 1016 : 	float fb;
; 1017 : 	if (!PyTuple_GetFloat(poArgs, 3, &fb))

  00052	8d 45 f0	 lea	 eax, DWORD PTR _fb$[ebp]
  00055	50		 push	 eax
  00056	6a 03		 push	 3
  00058	56		 push	 esi
  00059	e8 00 00 00 00	 call	 ?PyTuple_GetFloat@@YA_NPAU_object@@HPAM@Z ; PyTuple_GetFloat
  0005e	83 c4 0c	 add	 esp, 12			; 0000000cH
  00061	84 c0		 test	 al, al
  00063	74 b8		 je	 SHORT $LN10@chrtestSet

; 1018 : 		return Py_BuildException();
; 1019 : 
; 1020 : 	CInstanceBase * pkInst = CPythonCharacterManager::Instance().GetInstancePtr(iVirtualID);

  00065	8b 0d 00 00 00
	00		 mov	 ecx, DWORD PTR ?ms_singleton@?$CSingleton@VCPythonCharacterManager@@@@0PAVCPythonCharacterManager@@A ; CSingleton<CPythonCharacterManager>::ms_singleton
  0006b	ff 75 fc	 push	 DWORD PTR _iVirtualID$[ebp]
  0006e	83 c1 04	 add	 ecx, 4
  00071	8b 01		 mov	 eax, DWORD PTR [ecx]
  00073	ff 50 08	 call	 DWORD PTR [eax+8]
  00076	8b f0		 mov	 esi, eax

; 1021 : 	if (pkInst)

  00078	85 f6		 test	 esi, esi
  0007a	74 37		 je	 SHORT $LN6@chrtestSet

; 1022 : 	{
; 1023 : 		pkInst->SetModulateRenderMode();

  0007c	8b ce		 mov	 ecx, esi
  0007e	e8 00 00 00 00	 call	 ?SetModulateRenderMode@CInstanceBase@@QAEXXZ ; CInstanceBase::SetModulateRenderMode
; File D:\Metin2 Server Files\mainline\SRC_2014\M2Data\include\d3dx8math.inl

; 920  :     r = fr;

  00083	f3 0f 10 45 f8	 movss	 xmm0, DWORD PTR _fr$[ebp]
; File D:\Metin2 Server Files\mainline\SRC_2014\Metin2Client\UserInterface\PythonCharacterModule.cpp

; 1024 : 		pkInst->SetAddColor(D3DXCOLOR(fr, fg, fb, 1.0f));

  00088	8d 45 e0	 lea	 eax, DWORD PTR $T1[ebp]
; File D:\Metin2 Server Files\mainline\SRC_2014\M2Data\include\d3dx8math.inl

; 920  :     r = fr;

  0008b	f3 0f 11 45 e0	 movss	 DWORD PTR $T1[ebp], xmm0
; File D:\Metin2 Server Files\mainline\SRC_2014\Metin2Client\UserInterface\PythonCharacterModule.cpp

; 1024 : 		pkInst->SetAddColor(D3DXCOLOR(fr, fg, fb, 1.0f));

  00090	8b ce		 mov	 ecx, esi
; File D:\Metin2 Server Files\mainline\SRC_2014\M2Data\include\d3dx8math.inl

; 921  :     g = fg;

  00092	f3 0f 10 45 f4	 movss	 xmm0, DWORD PTR _fg$[ebp]
  00097	f3 0f 11 45 e4	 movss	 DWORD PTR $T1[ebp+4], xmm0

; 922  :     b = fb;

  0009c	f3 0f 10 45 f0	 movss	 xmm0, DWORD PTR _fb$[ebp]
; File D:\Metin2 Server Files\mainline\SRC_2014\Metin2Client\UserInterface\PythonCharacterModule.cpp

; 1024 : 		pkInst->SetAddColor(D3DXCOLOR(fr, fg, fb, 1.0f));

  000a1	50		 push	 eax
; File D:\Metin2 Server Files\mainline\SRC_2014\M2Data\include\d3dx8math.inl

; 922  :     b = fb;

  000a2	f3 0f 11 45 e8	 movss	 DWORD PTR $T1[ebp+8], xmm0

; 923  :     a = fa;

  000a7	c7 45 ec 00 00
	80 3f		 mov	 DWORD PTR $T1[ebp+12], 1065353216 ; 3f800000H
; File D:\Metin2 Server Files\mainline\SRC_2014\Metin2Client\UserInterface\PythonCharacterModule.cpp

; 1024 : 		pkInst->SetAddColor(D3DXCOLOR(fr, fg, fb, 1.0f));

  000ae	e8 00 00 00 00	 call	 ?SetAddColor@CInstanceBase@@QAEXABUD3DXCOLOR@@@Z ; CInstanceBase::SetAddColor
$LN6@chrtestSet:

; 1025 : 	}
; 1026 : 
; 1027 : 	return Py_BuildNone();

  000b3	e8 00 00 00 00	 call	 ?Py_BuildNone@@YAPAU_object@@XZ ; Py_BuildNone
  000b8	5e		 pop	 esi

; 1028 : }

  000b9	8b e5		 mov	 esp, ebp
  000bb	5d		 pop	 ebp
  000bc	c3		 ret	 0
?chrtestSetModulateRenderModeRGB@@YAPAU_object@@PAU1@0@Z ENDP ; chrtestSetModulateRenderModeRGB
_TEXT	ENDS
; Function compile flags: /Ogtp
; File D:\Metin2 Server Files\mainline\SRC_2014\Metin2Client\UserInterface\PythonCharacterModule.cpp
; File D:\Metin2 Server Files\mainline\SRC_2014\M2Data\include\d3dx8math.inl
; File D:\Metin2 Server Files\mainline\SRC_2014\Metin2Client\UserInterface\PythonCharacterModule.cpp
; File D:\Metin2 Server Files\mainline\SRC_2014\M2Data\include\d3dx8math.inl
; File D:\Metin2 Server Files\mainline\SRC_2014\Metin2Client\UserInterface\PythonCharacterModule.cpp
; File D:\Metin2 Server Files\mainline\SRC_2014\M2Data\include\d3dx8math.inl
; File D:\Metin2 Server Files\mainline\SRC_2014\Metin2Client\UserInterface\PythonCharacterModule.cpp
; File D:\Metin2 Server Files\mainline\SRC_2014\M2Data\include\d3dx8math.inl
; File D:\Metin2 Server Files\mainline\SRC_2014\Metin2Client\UserInterface\PythonCharacterModule.cpp
;	COMDAT ?chrtestSetAddRenderModeRGB@@YAPAU_object@@PAU1@0@Z
_TEXT	SEGMENT
$T1 = -32						; size = 16
_fb$ = -16						; size = 4
_fg$ = -12						; size = 4
_fr$ = -8						; size = 4
_iVirtualID$ = -4					; size = 4
_poSelf$ = 8						; size = 4
_poArgs$ = 12						; size = 4
?chrtestSetAddRenderModeRGB@@YAPAU_object@@PAU1@0@Z PROC ; chrtestSetAddRenderModeRGB, COMDAT

; 981  : {

  00000	55		 push	 ebp
  00001	8b ec		 mov	 ebp, esp
  00003	83 ec 20	 sub	 esp, 32			; 00000020H

; 982  : 	int iVirtualID;
; 983  : 	if (!PyTuple_GetInteger(poArgs, 0, &iVirtualID))

  00006	8d 45 fc	 lea	 eax, DWORD PTR _iVirtualID$[ebp]
  00009	56		 push	 esi
  0000a	8b 75 0c	 mov	 esi, DWORD PTR _poArgs$[ebp]
  0000d	50		 push	 eax
  0000e	6a 00		 push	 0
  00010	56		 push	 esi
  00011	e8 00 00 00 00	 call	 ?PyTuple_GetInteger@@YA_NPAU_object@@HPAH@Z ; PyTuple_GetInteger
  00016	83 c4 0c	 add	 esp, 12			; 0000000cH
  00019	84 c0		 test	 al, al
  0001b	75 0f		 jne	 SHORT $LN2@chrtestSet
$LN10@chrtestSet:

; 1003 : }

  0001d	6a 00		 push	 0
  0001f	e8 00 00 00 00	 call	 ?Py_BuildException@@YAPAU_object@@PBDZZ ; Py_BuildException
  00024	83 c4 04	 add	 esp, 4
  00027	5e		 pop	 esi
  00028	8b e5		 mov	 esp, ebp
  0002a	5d		 pop	 ebp
  0002b	c3		 ret	 0
$LN2@chrtestSet:

; 984  : 		return Py_BuildException();
; 985  : 	float fr;
; 986  : 	if (!PyTuple_GetFloat(poArgs, 1, &fr))

  0002c	8d 45 f8	 lea	 eax, DWORD PTR _fr$[ebp]
  0002f	50		 push	 eax
  00030	6a 01		 push	 1
  00032	56		 push	 esi
  00033	e8 00 00 00 00	 call	 ?PyTuple_GetFloat@@YA_NPAU_object@@HPAM@Z ; PyTuple_GetFloat
  00038	83 c4 0c	 add	 esp, 12			; 0000000cH
  0003b	84 c0		 test	 al, al
  0003d	74 de		 je	 SHORT $LN10@chrtestSet

; 987  : 		return Py_BuildException();
; 988  : 	float fg;
; 989  : 	if (!PyTuple_GetFloat(poArgs, 2, &fg))

  0003f	8d 45 f4	 lea	 eax, DWORD PTR _fg$[ebp]
  00042	50		 push	 eax
  00043	6a 02		 push	 2
  00045	56		 push	 esi
  00046	e8 00 00 00 00	 call	 ?PyTuple_GetFloat@@YA_NPAU_object@@HPAM@Z ; PyTuple_GetFloat
  0004b	83 c4 0c	 add	 esp, 12			; 0000000cH
  0004e	84 c0		 test	 al, al
  00050	74 cb		 je	 SHORT $LN10@chrtestSet

; 990  : 		return Py_BuildException();
; 991  : 	float fb;
; 992  : 	if (!PyTuple_GetFloat(poArgs, 3, &fb))

  00052	8d 45 f0	 lea	 eax, DWORD PTR _fb$[ebp]
  00055	50		 push	 eax
  00056	6a 03		 push	 3
  00058	56		 push	 esi
  00059	e8 00 00 00 00	 call	 ?PyTuple_GetFloat@@YA_NPAU_object@@HPAM@Z ; PyTuple_GetFloat
  0005e	83 c4 0c	 add	 esp, 12			; 0000000cH
  00061	84 c0		 test	 al, al
  00063	74 b8		 je	 SHORT $LN10@chrtestSet

; 993  : 		return Py_BuildException();
; 994  : 
; 995  : 	CInstanceBase * pkInst = CPythonCharacterManager::Instance().GetInstancePtr(iVirtualID);

  00065	8b 0d 00 00 00
	00		 mov	 ecx, DWORD PTR ?ms_singleton@?$CSingleton@VCPythonCharacterManager@@@@0PAVCPythonCharacterManager@@A ; CSingleton<CPythonCharacterManager>::ms_singleton
  0006b	ff 75 fc	 push	 DWORD PTR _iVirtualID$[ebp]
  0006e	83 c1 04	 add	 ecx, 4
  00071	8b 01		 mov	 eax, DWORD PTR [ecx]
  00073	ff 50 08	 call	 DWORD PTR [eax+8]
  00076	8b f0		 mov	 esi, eax

; 996  : 	if (pkInst)

  00078	85 f6		 test	 esi, esi
  0007a	74 37		 je	 SHORT $LN6@chrtestSet

; 997  : 	{
; 998  : 		pkInst->SetAddRenderMode();

  0007c	8b ce		 mov	 ecx, esi
  0007e	e8 00 00 00 00	 call	 ?SetAddRenderMode@CInstanceBase@@QAEXXZ ; CInstanceBase::SetAddRenderMode
; File D:\Metin2 Server Files\mainline\SRC_2014\M2Data\include\d3dx8math.inl

; 920  :     r = fr;

  00083	f3 0f 10 45 f8	 movss	 xmm0, DWORD PTR _fr$[ebp]
; File D:\Metin2 Server Files\mainline\SRC_2014\Metin2Client\UserInterface\PythonCharacterModule.cpp

; 999  : 		pkInst->SetAddColor(D3DXCOLOR(fr, fg, fb, 1.0f));

  00088	8d 45 e0	 lea	 eax, DWORD PTR $T1[ebp]
; File D:\Metin2 Server Files\mainline\SRC_2014\M2Data\include\d3dx8math.inl

; 920  :     r = fr;

  0008b	f3 0f 11 45 e0	 movss	 DWORD PTR $T1[ebp], xmm0
; File D:\Metin2 Server Files\mainline\SRC_2014\Metin2Client\UserInterface\PythonCharacterModule.cpp

; 999  : 		pkInst->SetAddColor(D3DXCOLOR(fr, fg, fb, 1.0f));

  00090	8b ce		 mov	 ecx, esi
; File D:\Metin2 Server Files\mainline\SRC_2014\M2Data\include\d3dx8math.inl

; 921  :     g = fg;

  00092	f3 0f 10 45 f4	 movss	 xmm0, DWORD PTR _fg$[ebp]
  00097	f3 0f 11 45 e4	 movss	 DWORD PTR $T1[ebp+4], xmm0

; 922  :     b = fb;

  0009c	f3 0f 10 45 f0	 movss	 xmm0, DWORD PTR _fb$[ebp]
; File D:\Metin2 Server Files\mainline\SRC_2014\Metin2Client\UserInterface\PythonCharacterModule.cpp

; 999  : 		pkInst->SetAddColor(D3DXCOLOR(fr, fg, fb, 1.0f));

  000a1	50		 push	 eax
; File D:\Metin2 Server Files\mainline\SRC_2014\M2Data\include\d3dx8math.inl

; 922  :     b = fb;

  000a2	f3 0f 11 45 e8	 movss	 DWORD PTR $T1[ebp+8], xmm0

; 923  :     a = fa;

  000a7	c7 45 ec 00 00
	80 3f		 mov	 DWORD PTR $T1[ebp+12], 1065353216 ; 3f800000H
; File D:\Metin2 Server Files\mainline\SRC_2014\Metin2Client\UserInterface\PythonCharacterModule.cpp

; 999  : 		pkInst->SetAddColor(D3DXCOLOR(fr, fg, fb, 1.0f));

  000ae	e8 00 00 00 00	 call	 ?SetAddColor@CInstanceBase@@QAEXABUD3DXCOLOR@@@Z ; CInstanceBase::SetAddColor
$LN6@chrtestSet:

; 1000 : 	}
; 1001 : 
; 1002 : 	return Py_BuildNone();

  000b3	e8 00 00 00 00	 call	 ?Py_BuildNone@@YAPAU_object@@XZ ; Py_BuildNone
  000b8	5e		 pop	 esi

; 1003 : }

  000b9	8b e5		 mov	 esp, ebp
  000bb	5d		 pop	 ebp
  000bc	c3		 ret	 0
?chrtestSetAddRenderModeRGB@@YAPAU_object@@PAU1@0@Z ENDP ; chrtestSetAddRenderModeRGB
_TEXT	ENDS
; Function compile flags: /Ogtp
; File D:\Metin2 Server Files\mainline\SRC_2014\Metin2Client\UserInterface\PythonCharacterModule.cpp
; File D:\Metin2 Server Files\mainline\SRC_2014\M2Data\include\d3dx8math.inl
; File D:\Metin2 Server Files\mainline\SRC_2014\Metin2Client\UserInterface\PythonCharacterModule.cpp
; File D:\Metin2 Server Files\mainline\SRC_2014\M2Data\include\d3dx8math.inl
; File D:\Metin2 Server Files\mainline\SRC_2014\Metin2Client\UserInterface\PythonCharacterModule.cpp
; File D:\Metin2 Server Files\mainline\SRC_2014\M2Data\include\d3dx8math.inl
; File D:\Metin2 Server Files\mainline\SRC_2014\Metin2Client\UserInterface\PythonCharacterModule.cpp
; File D:\Metin2 Server Files\mainline\SRC_2014\M2Data\include\d3dx8math.inl
; File D:\Metin2 Server Files\mainline\SRC_2014\Metin2Client\UserInterface\PythonCharacterModule.cpp
; File D:\Metin2 Server Files\mainline\SRC_2014\M2Data\include\d3dx8math.inl
; File D:\Metin2 Server Files\mainline\SRC_2014\Metin2Client\UserInterface\PythonCharacterModule.cpp
;	COMDAT ?chrtestSetModulateRenderMode@@YAPAU_object@@PAU1@0@Z
_TEXT	SEGMENT
$T1 = -24						; size = 16
_iColor$ = -8						; size = 4
_iVirtualID$ = -4					; size = 4
_poSelf$ = 8						; size = 4
_poArgs$ = 12						; size = 4
?chrtestSetModulateRenderMode@@YAPAU_object@@PAU1@0@Z PROC ; chrtestSetModulateRenderMode, COMDAT

; 962  : {

  00000	55		 push	 ebp
  00001	8b ec		 mov	 ebp, esp
  00003	83 ec 18	 sub	 esp, 24			; 00000018H

; 963  : 	int iVirtualID;
; 964  : 	if (!PyTuple_GetInteger(poArgs, 0, &iVirtualID))

  00006	8d 45 fc	 lea	 eax, DWORD PTR _iVirtualID$[ebp]
  00009	56		 push	 esi
  0000a	8b 75 0c	 mov	 esi, DWORD PTR _poArgs$[ebp]
  0000d	50		 push	 eax
  0000e	6a 00		 push	 0
  00010	56		 push	 esi
  00011	e8 00 00 00 00	 call	 ?PyTuple_GetInteger@@YA_NPAU_object@@HPAH@Z ; PyTuple_GetInteger
  00016	83 c4 0c	 add	 esp, 12			; 0000000cH
  00019	84 c0		 test	 al, al
  0001b	75 0f		 jne	 SHORT $LN2@chrtestSet
$LN8@chrtestSet:

; 978  : }

  0001d	6a 00		 push	 0
  0001f	e8 00 00 00 00	 call	 ?Py_BuildException@@YAPAU_object@@PBDZZ ; Py_BuildException
  00024	83 c4 04	 add	 esp, 4
  00027	5e		 pop	 esi
  00028	8b e5		 mov	 esp, ebp
  0002a	5d		 pop	 ebp
  0002b	c3		 ret	 0
$LN2@chrtestSet:

; 965  : 		return Py_BuildException();
; 966  : 	int iColor;
; 967  : 	if (!PyTuple_GetInteger(poArgs, 1, &iColor))

  0002c	8d 45 f8	 lea	 eax, DWORD PTR _iColor$[ebp]
  0002f	50		 push	 eax
  00030	6a 01		 push	 1
  00032	56		 push	 esi
  00033	e8 00 00 00 00	 call	 ?PyTuple_GetInteger@@YA_NPAU_object@@HPAH@Z ; PyTuple_GetInteger
  00038	83 c4 0c	 add	 esp, 12			; 0000000cH
  0003b	84 c0		 test	 al, al
  0003d	74 de		 je	 SHORT $LN8@chrtestSet

; 968  : 		return Py_BuildException();
; 969  : 
; 970  : 	CInstanceBase * pkInst = CPythonCharacterManager::Instance().GetInstancePtr(iVirtualID);

  0003f	8b 0d 00 00 00
	00		 mov	 ecx, DWORD PTR ?ms_singleton@?$CSingleton@VCPythonCharacterManager@@@@0PAVCPythonCharacterManager@@A ; CSingleton<CPythonCharacterManager>::ms_singleton
  00045	ff 75 fc	 push	 DWORD PTR _iVirtualID$[ebp]
  00048	83 c1 04	 add	 ecx, 4
  0004b	8b 01		 mov	 eax, DWORD PTR [ecx]
  0004d	ff 50 08	 call	 DWORD PTR [eax+8]
  00050	8b f0		 mov	 esi, eax

; 971  : 	if (pkInst)

  00052	85 f6		 test	 esi, esi
  00054	74 79		 je	 SHORT $LN4@chrtestSet

; 972  : 	{
; 973  : 		pkInst->SetModulateRenderMode();

  00056	8b ce		 mov	 ecx, esi
  00058	e8 00 00 00 00	 call	 ?SetModulateRenderMode@CInstanceBase@@QAEXXZ ; CInstanceBase::SetModulateRenderMode

; 974  : 		pkInst->SetAddColor(0xff000000 | iColor);

  0005d	8b 55 f8	 mov	 edx, DWORD PTR _iColor$[ebp]
; File D:\Metin2 Server Files\mainline\SRC_2014\M2Data\include\d3dx8math.inl

; 888  :     r = f * (FLOAT) (unsigned char) (dw >> 16);

  00060	f3 0f 10 0d 00
	00 00 00	 movss	 xmm1, DWORD PTR __real@3b808081
; File D:\Metin2 Server Files\mainline\SRC_2014\Metin2Client\UserInterface\PythonCharacterModule.cpp

; 974  : 		pkInst->SetAddColor(0xff000000 | iColor);

  00068	81 ca 00 00 00
	ff		 or	 edx, -16777216		; ff000000H
; File D:\Metin2 Server Files\mainline\SRC_2014\M2Data\include\d3dx8math.inl

; 888  :     r = f * (FLOAT) (unsigned char) (dw >> 16);

  0006e	8b ca		 mov	 ecx, edx
  00070	c1 e9 10	 shr	 ecx, 16			; 00000010H
  00073	0f b6 c1	 movzx	 eax, cl
; File D:\Metin2 Server Files\mainline\SRC_2014\Metin2Client\UserInterface\PythonCharacterModule.cpp

; 974  : 		pkInst->SetAddColor(0xff000000 | iColor);

  00076	8b ce		 mov	 ecx, esi
  00078	66 0f 6e c0	 movd	 xmm0, eax
; File D:\Metin2 Server Files\mainline\SRC_2014\M2Data\include\d3dx8math.inl

; 889  :     g = f * (FLOAT) (unsigned char) (dw >>  8);

  0007c	8b c2		 mov	 eax, edx
  0007e	0f 5b c0	 cvtdq2ps xmm0, xmm0
  00081	c1 e8 08	 shr	 eax, 8
  00084	0f b6 c0	 movzx	 eax, al
  00087	f3 0f 59 c1	 mulss	 xmm0, xmm1
  0008b	f3 0f 11 45 e8	 movss	 DWORD PTR $T1[ebp], xmm0
  00090	66 0f 6e c0	 movd	 xmm0, eax
  00094	0f 5b c0	 cvtdq2ps xmm0, xmm0

; 890  :     b = f * (FLOAT) (unsigned char) (dw >>  0);

  00097	0f b6 c2	 movzx	 eax, dl

; 891  :     a = f * (FLOAT) (unsigned char) (dw >> 24);

  0009a	c1 ea 18	 shr	 edx, 24			; 00000018H
  0009d	f3 0f 59 c1	 mulss	 xmm0, xmm1
  000a1	f3 0f 11 45 ec	 movss	 DWORD PTR $T1[ebp+4], xmm0
  000a6	66 0f 6e c0	 movd	 xmm0, eax
; File D:\Metin2 Server Files\mainline\SRC_2014\Metin2Client\UserInterface\PythonCharacterModule.cpp

; 974  : 		pkInst->SetAddColor(0xff000000 | iColor);

  000aa	8d 45 e8	 lea	 eax, DWORD PTR $T1[ebp]
; File D:\Metin2 Server Files\mainline\SRC_2014\M2Data\include\d3dx8math.inl

; 890  :     b = f * (FLOAT) (unsigned char) (dw >>  0);

  000ad	0f 5b c0	 cvtdq2ps xmm0, xmm0
; File D:\Metin2 Server Files\mainline\SRC_2014\Metin2Client\UserInterface\PythonCharacterModule.cpp

; 974  : 		pkInst->SetAddColor(0xff000000 | iColor);

  000b0	50		 push	 eax
; File D:\Metin2 Server Files\mainline\SRC_2014\M2Data\include\d3dx8math.inl

; 890  :     b = f * (FLOAT) (unsigned char) (dw >>  0);

  000b1	f3 0f 59 c1	 mulss	 xmm0, xmm1
  000b5	f3 0f 11 45 f0	 movss	 DWORD PTR $T1[ebp+8], xmm0
  000ba	66 0f 6e c2	 movd	 xmm0, edx

; 891  :     a = f * (FLOAT) (unsigned char) (dw >> 24);

  000be	0f 5b c0	 cvtdq2ps xmm0, xmm0
  000c1	f3 0f 59 c1	 mulss	 xmm0, xmm1
  000c5	f3 0f 11 45 f4	 movss	 DWORD PTR $T1[ebp+12], xmm0
; File D:\Metin2 Server Files\mainline\SRC_2014\Metin2Client\UserInterface\PythonCharacterModule.cpp

; 974  : 		pkInst->SetAddColor(0xff000000 | iColor);

  000ca	e8 00 00 00 00	 call	 ?SetAddColor@CInstanceBase@@QAEXABUD3DXCOLOR@@@Z ; CInstanceBase::SetAddColor
$LN4@chrtestSet:

; 975  : 	}
; 976  : 
; 977  : 	return Py_BuildNone();

  000cf	e8 00 00 00 00	 call	 ?Py_BuildNone@@YAPAU_object@@XZ ; Py_BuildNone
  000d4	5e		 pop	 esi

; 978  : }

  000d5	8b e5		 mov	 esp, ebp
  000d7	5d		 pop	 ebp
  000d8	c3		 ret	 0
?chrtestSetModulateRenderMode@@YAPAU_object@@PAU1@0@Z ENDP ; chrtestSetModulateRenderMode
_TEXT	ENDS
; Function compile flags: /Ogtp
; File D:\Metin2 Server Files\mainline\SRC_2014\Metin2Client\UserInterface\PythonCharacterModule.cpp
; File D:\Metin2 Server Files\mainline\SRC_2014\M2Data\include\d3dx8math.inl
; File D:\Metin2 Server Files\mainline\SRC_2014\Metin2Client\UserInterface\PythonCharacterModule.cpp
; File D:\Metin2 Server Files\mainline\SRC_2014\M2Data\include\d3dx8math.inl
; File D:\Metin2 Server Files\mainline\SRC_2014\Metin2Client\UserInterface\PythonCharacterModule.cpp
; File D:\Metin2 Server Files\mainline\SRC_2014\M2Data\include\d3dx8math.inl
; File D:\Metin2 Server Files\mainline\SRC_2014\Metin2Client\UserInterface\PythonCharacterModule.cpp
; File D:\Metin2 Server Files\mainline\SRC_2014\M2Data\include\d3dx8math.inl
; File D:\Metin2 Server Files\mainline\SRC_2014\Metin2Client\UserInterface\PythonCharacterModule.cpp
; File D:\Metin2 Server Files\mainline\SRC_2014\M2Data\include\d3dx8math.inl
; File D:\Metin2 Server Files\mainline\SRC_2014\Metin2Client\UserInterface\PythonCharacterModule.cpp
;	COMDAT ?chrtestSetAddRenderMode@@YAPAU_object@@PAU1@0@Z
_TEXT	SEGMENT
$T1 = -24						; size = 16
_iColor$ = -8						; size = 4
_iVirtualID$ = -4					; size = 4
_poSelf$ = 8						; size = 4
_poArgs$ = 12						; size = 4
?chrtestSetAddRenderMode@@YAPAU_object@@PAU1@0@Z PROC	; chrtestSetAddRenderMode, COMDAT

; 943  : {

  00000	55		 push	 ebp
  00001	8b ec		 mov	 ebp, esp
  00003	83 ec 18	 sub	 esp, 24			; 00000018H

; 944  : 	int iVirtualID;
; 945  : 	if (!PyTuple_GetInteger(poArgs, 0, &iVirtualID))

  00006	8d 45 fc	 lea	 eax, DWORD PTR _iVirtualID$[ebp]
  00009	56		 push	 esi
  0000a	8b 75 0c	 mov	 esi, DWORD PTR _poArgs$[ebp]
  0000d	50		 push	 eax
  0000e	6a 00		 push	 0
  00010	56		 push	 esi
  00011	e8 00 00 00 00	 call	 ?PyTuple_GetInteger@@YA_NPAU_object@@HPAH@Z ; PyTuple_GetInteger
  00016	83 c4 0c	 add	 esp, 12			; 0000000cH
  00019	84 c0		 test	 al, al
  0001b	75 0f		 jne	 SHORT $LN2@chrtestSet
$LN8@chrtestSet:

; 959  : }

  0001d	6a 00		 push	 0
  0001f	e8 00 00 00 00	 call	 ?Py_BuildException@@YAPAU_object@@PBDZZ ; Py_BuildException
  00024	83 c4 04	 add	 esp, 4
  00027	5e		 pop	 esi
  00028	8b e5		 mov	 esp, ebp
  0002a	5d		 pop	 ebp
  0002b	c3		 ret	 0
$LN2@chrtestSet:

; 946  : 		return Py_BuildException();
; 947  : 	int iColor;
; 948  : 	if (!PyTuple_GetInteger(poArgs, 1, &iColor))

  0002c	8d 45 f8	 lea	 eax, DWORD PTR _iColor$[ebp]
  0002f	50		 push	 eax
  00030	6a 01		 push	 1
  00032	56		 push	 esi
  00033	e8 00 00 00 00	 call	 ?PyTuple_GetInteger@@YA_NPAU_object@@HPAH@Z ; PyTuple_GetInteger
  00038	83 c4 0c	 add	 esp, 12			; 0000000cH
  0003b	84 c0		 test	 al, al
  0003d	74 de		 je	 SHORT $LN8@chrtestSet

; 949  : 		return Py_BuildException();
; 950  : 
; 951  : 	CInstanceBase * pkInst = CPythonCharacterManager::Instance().GetInstancePtr(iVirtualID);

  0003f	8b 0d 00 00 00
	00		 mov	 ecx, DWORD PTR ?ms_singleton@?$CSingleton@VCPythonCharacterManager@@@@0PAVCPythonCharacterManager@@A ; CSingleton<CPythonCharacterManager>::ms_singleton
  00045	ff 75 fc	 push	 DWORD PTR _iVirtualID$[ebp]
  00048	83 c1 04	 add	 ecx, 4
  0004b	8b 01		 mov	 eax, DWORD PTR [ecx]
  0004d	ff 50 08	 call	 DWORD PTR [eax+8]
  00050	8b f0		 mov	 esi, eax

; 952  : 	if (pkInst)

  00052	85 f6		 test	 esi, esi
  00054	74 79		 je	 SHORT $LN4@chrtestSet

; 953  : 	{
; 954  : 		pkInst->SetAddRenderMode();

  00056	8b ce		 mov	 ecx, esi
  00058	e8 00 00 00 00	 call	 ?SetAddRenderMode@CInstanceBase@@QAEXXZ ; CInstanceBase::SetAddRenderMode

; 955  : 		pkInst->SetAddColor(0xff000000 | iColor);

  0005d	8b 55 f8	 mov	 edx, DWORD PTR _iColor$[ebp]
; File D:\Metin2 Server Files\mainline\SRC_2014\M2Data\include\d3dx8math.inl

; 888  :     r = f * (FLOAT) (unsigned char) (dw >> 16);

  00060	f3 0f 10 0d 00
	00 00 00	 movss	 xmm1, DWORD PTR __real@3b808081
; File D:\Metin2 Server Files\mainline\SRC_2014\Metin2Client\UserInterface\PythonCharacterModule.cpp

; 955  : 		pkInst->SetAddColor(0xff000000 | iColor);

  00068	81 ca 00 00 00
	ff		 or	 edx, -16777216		; ff000000H
; File D:\Metin2 Server Files\mainline\SRC_2014\M2Data\include\d3dx8math.inl

; 888  :     r = f * (FLOAT) (unsigned char) (dw >> 16);

  0006e	8b ca		 mov	 ecx, edx
  00070	c1 e9 10	 shr	 ecx, 16			; 00000010H
  00073	0f b6 c1	 movzx	 eax, cl
; File D:\Metin2 Server Files\mainline\SRC_2014\Metin2Client\UserInterface\PythonCharacterModule.cpp

; 955  : 		pkInst->SetAddColor(0xff000000 | iColor);

  00076	8b ce		 mov	 ecx, esi
  00078	66 0f 6e c0	 movd	 xmm0, eax
; File D:\Metin2 Server Files\mainline\SRC_2014\M2Data\include\d3dx8math.inl

; 889  :     g = f * (FLOAT) (unsigned char) (dw >>  8);

  0007c	8b c2		 mov	 eax, edx
  0007e	0f 5b c0	 cvtdq2ps xmm0, xmm0
  00081	c1 e8 08	 shr	 eax, 8
  00084	0f b6 c0	 movzx	 eax, al
  00087	f3 0f 59 c1	 mulss	 xmm0, xmm1
  0008b	f3 0f 11 45 e8	 movss	 DWORD PTR $T1[ebp], xmm0
  00090	66 0f 6e c0	 movd	 xmm0, eax
  00094	0f 5b c0	 cvtdq2ps xmm0, xmm0

; 890  :     b = f * (FLOAT) (unsigned char) (dw >>  0);

  00097	0f b6 c2	 movzx	 eax, dl

; 891  :     a = f * (FLOAT) (unsigned char) (dw >> 24);

  0009a	c1 ea 18	 shr	 edx, 24			; 00000018H
  0009d	f3 0f 59 c1	 mulss	 xmm0, xmm1
  000a1	f3 0f 11 45 ec	 movss	 DWORD PTR $T1[ebp+4], xmm0
  000a6	66 0f 6e c0	 movd	 xmm0, eax
; File D:\Metin2 Server Files\mainline\SRC_2014\Metin2Client\UserInterface\PythonCharacterModule.cpp

; 955  : 		pkInst->SetAddColor(0xff000000 | iColor);

  000aa	8d 45 e8	 lea	 eax, DWORD PTR $T1[ebp]
; File D:\Metin2 Server Files\mainline\SRC_2014\M2Data\include\d3dx8math.inl

; 890  :     b = f * (FLOAT) (unsigned char) (dw >>  0);

  000ad	0f 5b c0	 cvtdq2ps xmm0, xmm0
; File D:\Metin2 Server Files\mainline\SRC_2014\Metin2Client\UserInterface\PythonCharacterModule.cpp

; 955  : 		pkInst->SetAddColor(0xff000000 | iColor);

  000b0	50		 push	 eax
; File D:\Metin2 Server Files\mainline\SRC_2014\M2Data\include\d3dx8math.inl

; 890  :     b = f * (FLOAT) (unsigned char) (dw >>  0);

  000b1	f3 0f 59 c1	 mulss	 xmm0, xmm1
  000b5	f3 0f 11 45 f0	 movss	 DWORD PTR $T1[ebp+8], xmm0
  000ba	66 0f 6e c2	 movd	 xmm0, edx

; 891  :     a = f * (FLOAT) (unsigned char) (dw >> 24);

  000be	0f 5b c0	 cvtdq2ps xmm0, xmm0
  000c1	f3 0f 59 c1	 mulss	 xmm0, xmm1
  000c5	f3 0f 11 45 f4	 movss	 DWORD PTR $T1[ebp+12], xmm0
; File D:\Metin2 Server Files\mainline\SRC_2014\Metin2Client\UserInterface\PythonCharacterModule.cpp

; 955  : 		pkInst->SetAddColor(0xff000000 | iColor);

  000ca	e8 00 00 00 00	 call	 ?SetAddColor@CInstanceBase@@QAEXABUD3DXCOLOR@@@Z ; CInstanceBase::SetAddColor
$LN4@chrtestSet:

; 956  : 	}
; 957  : 
; 958  : 	return Py_BuildNone();

  000cf	e8 00 00 00 00	 call	 ?Py_BuildNone@@YAPAU_object@@XZ ; Py_BuildNone
  000d4	5e		 pop	 esi

; 959  : }

  000d5	8b e5		 mov	 esp, ebp
  000d7	5d		 pop	 ebp
  000d8	c3		 ret	 0
?chrtestSetAddRenderMode@@YAPAU_object@@PAU1@0@Z ENDP	; chrtestSetAddRenderMode
_TEXT	ENDS
; Function compile flags: /Ogtp
; File D:\Metin2 Server Files\mainline\SRC_2014\Metin2Client\UserInterface\PythonCharacterModule.cpp
;	COMDAT ?chrtestSetComboType@@YAPAU_object@@PAU1@0@Z
_TEXT	SEGMENT
_iComboType$ = -4					; size = 4
_poSelf$ = 8						; size = 4
_poArgs$ = 12						; size = 4
?chrtestSetComboType@@YAPAU_object@@PAU1@0@Z PROC	; chrtestSetComboType, COMDAT

; 928  : {

  00000	55		 push	 ebp
  00001	8b ec		 mov	 ebp, esp
  00003	51		 push	 ecx

; 929  : 	int iComboType;
; 930  : 	if (!PyTuple_GetInteger(poArgs, 0, &iComboType))

  00004	8d 45 fc	 lea	 eax, DWORD PTR _iComboType$[ebp]
  00007	50		 push	 eax
  00008	6a 00		 push	 0
  0000a	ff 75 0c	 push	 DWORD PTR _poArgs$[ebp]
  0000d	e8 00 00 00 00	 call	 ?PyTuple_GetInteger@@YA_NPAU_object@@HPAH@Z ; PyTuple_GetInteger
  00012	83 c4 0c	 add	 esp, 12			; 0000000cH
  00015	84 c0		 test	 al, al
  00017	75 0e		 jne	 SHORT $LN2@chrtestSet

; 931  : 		return Py_BuildException();

  00019	6a 00		 push	 0
  0001b	e8 00 00 00 00	 call	 ?Py_BuildException@@YAPAU_object@@PBDZZ ; Py_BuildException
  00020	83 c4 04	 add	 esp, 4

; 938  : 
; 939  : 	return Py_BuildNone();
; 940  : }

  00023	8b e5		 mov	 esp, ebp
  00025	5d		 pop	 ebp
  00026	c3		 ret	 0
$LN2@chrtestSet:

; 932  : 
; 933  : 	CInstanceBase * pkInst = CPythonCharacterManager::Instance().GetSelectedInstancePtr();

  00027	8b 0d 00 00 00
	00		 mov	 ecx, DWORD PTR ?ms_singleton@?$CSingleton@VCPythonCharacterManager@@@@0PAVCPythonCharacterManager@@A ; CSingleton<CPythonCharacterManager>::ms_singleton
  0002d	e8 00 00 00 00	 call	 ?GetSelectedInstancePtr@CPythonCharacterManager@@QAEPAVCInstanceBase@@XZ ; CPythonCharacterManager::GetSelectedInstancePtr

; 934  : 	if (!pkInst)

  00032	85 c0		 test	 eax, eax
  00034	74 11		 je	 SHORT $LN5@chrtestSet

; 935  : 		return Py_BuildNone();
; 936  : 
; 937  : 	pkInst->GetGraphicThingInstanceRef().SetComboType(iComboType);

  00036	ff 75 fc	 push	 DWORD PTR _iComboType$[ebp]
  00039	8b c8		 mov	 ecx, eax
  0003b	e8 00 00 00 00	 call	 ?GetGraphicThingInstanceRef@CInstanceBase@@QAEAAVCActorInstance@@XZ ; CInstanceBase::GetGraphicThingInstanceRef
  00040	8b c8		 mov	 ecx, eax
  00042	e8 00 00 00 00	 call	 ?SetComboType@CActorInstance@@QAEXG@Z ; CActorInstance::SetComboType
$LN5@chrtestSet:

; 938  : 
; 939  : 	return Py_BuildNone();
; 940  : }

  00047	e8 00 00 00 00	 call	 ?Py_BuildNone@@YAPAU_object@@XZ ; Py_BuildNone
  0004c	8b e5		 mov	 esp, ebp
  0004e	5d		 pop	 ebp
  0004f	c3		 ret	 0
?chrtestSetComboType@@YAPAU_object@@PAU1@0@Z ENDP	; chrtestSetComboType
_TEXT	ENDS
; Function compile flags: /Ogtp
; File D:\Metin2 Server Files\mainline\SRC_2014\Metin2Client\UserInterface\PythonCharacterModule.cpp
;	COMDAT ?chrtestGetPKData@@YAPAU_object@@PAU1@0@Z
_TEXT	SEGMENT
_poSelf$ = 8						; size = 4
_poArgs$ = 12						; size = 4
?chrtestGetPKData@@YAPAU_object@@PAU1@0@Z PROC		; chrtestGetPKData, COMDAT

; 919  : 	CInstanceBase * pkInst = CPythonCharacterManager::Instance().GetSelectedInstancePtr();

  00000	8b 0d 00 00 00
	00		 mov	 ecx, DWORD PTR ?ms_singleton@?$CSingleton@VCPythonCharacterManager@@@@0PAVCPythonCharacterManager@@A ; CSingleton<CPythonCharacterManager>::ms_singleton
  00006	56		 push	 esi
  00007	e8 00 00 00 00	 call	 ?GetSelectedInstancePtr@CPythonCharacterManager@@QAEPAVCInstanceBase@@XZ ; CPythonCharacterManager::GetSelectedInstancePtr
  0000c	8b f0		 mov	 esi, eax

; 920  : 
; 921  : 	if (!pkInst)

  0000e	85 f6		 test	 esi, esi
  00010	75 13		 jne	 SHORT $LN2@chrtestGet

; 922  : 		return Py_BuildValue("ii", 0, 4);

  00012	6a 04		 push	 4
  00014	50		 push	 eax

; 925  : }

  00015	68 00 00 00 00	 push	 OFFSET ??_C@_02PDIHAGKM@ii@
  0001a	ff 15 00 00 00
	00		 call	 DWORD PTR __imp__Py_BuildValue
  00020	83 c4 0c	 add	 esp, 12			; 0000000cH
  00023	5e		 pop	 esi
  00024	c3		 ret	 0
$LN2@chrtestGet:

; 923  : 
; 924  : 	return Py_BuildValue("ii", pkInst->GetAlignment(), pkInst->GetAlignmentGrade());

  00025	8b ce		 mov	 ecx, esi
  00027	e8 00 00 00 00	 call	 ?GetAlignmentGrade@CInstanceBase@@QAEIXZ ; CInstanceBase::GetAlignmentGrade
  0002c	50		 push	 eax
  0002d	8b ce		 mov	 ecx, esi
  0002f	e8 00 00 00 00	 call	 ?GetAlignment@CInstanceBase@@QAEHXZ ; CInstanceBase::GetAlignment
  00034	50		 push	 eax

; 925  : }

  00035	68 00 00 00 00	 push	 OFFSET ??_C@_02PDIHAGKM@ii@
  0003a	ff 15 00 00 00
	00		 call	 DWORD PTR __imp__Py_BuildValue
  00040	83 c4 0c	 add	 esp, 12			; 0000000cH
  00043	5e		 pop	 esi
  00044	c3		 ret	 0
?chrtestGetPKData@@YAPAU_object@@PAU1@0@Z ENDP		; chrtestGetPKData
_TEXT	ENDS
; Function compile flags: /Ogtp
; File D:\Metin2 Server Files\mainline\SRC_2014\Metin2Client\UserInterface\PythonCharacterModule.cpp
;	COMDAT ?chrGetBoundBoxOnlyXY@@YAPAU_object@@PAU1@0@Z
_TEXT	SEGMENT
_v3Min$ = -28						; size = 12
_v3Max$ = -16						; size = 12
__$ArrayPad$ = -4					; size = 4
_poSelf$ = 8						; size = 4
_poArgs$ = 12						; size = 4
?chrGetBoundBoxOnlyXY@@YAPAU_object@@PAU1@0@Z PROC	; chrGetBoundBoxOnlyXY, COMDAT

; 905  : {

  00000	55		 push	 ebp
  00001	8b ec		 mov	 ebp, esp
  00003	83 ec 1c	 sub	 esp, 28			; 0000001cH
  00006	a1 00 00 00 00	 mov	 eax, DWORD PTR ___security_cookie
  0000b	33 c5		 xor	 eax, ebp
  0000d	89 45 fc	 mov	 DWORD PTR __$ArrayPad$[ebp], eax

; 906  : 	CInstanceBase * pkInst = CPythonCharacterManager::Instance().GetSelectedInstancePtr();

  00010	8b 0d 00 00 00
	00		 mov	 ecx, DWORD PTR ?ms_singleton@?$CSingleton@VCPythonCharacterManager@@@@0PAVCPythonCharacterManager@@A ; CSingleton<CPythonCharacterManager>::ms_singleton
  00016	e8 00 00 00 00	 call	 ?GetSelectedInstancePtr@CPythonCharacterManager@@QAEPAVCInstanceBase@@XZ ; CPythonCharacterManager::GetSelectedInstancePtr

; 907  : 
; 908  : 	if (!pkInst)

  0001b	85 c0		 test	 eax, eax
  0001d	75 11		 jne	 SHORT $LN2@chrGetBoun

; 909  : 		return Py_BuildValue("ffff", 0.0f, 0.0f, 0.0f, 0.0f);

  0001f	83 ec 20	 sub	 esp, 32			; 00000020H
  00022	0f 57 c0	 xorps	 xmm0, xmm0
  00025	0f 11 44 24 10	 movups	 XMMWORD PTR [esp+16], xmm0
  0002a	0f 11 04 24	 movups	 XMMWORD PTR [esp], xmm0
  0002e	eb 49		 jmp	 SHORT $LN4@chrGetBoun
$LN2@chrGetBoun:

; 910  : 
; 911  : 	D3DXVECTOR3 v3Min, v3Max;
; 912  : 	pkInst->GetBoundBox(&v3Min, &v3Max);

  00030	8d 4d f0	 lea	 ecx, DWORD PTR _v3Max$[ebp]
  00033	51		 push	 ecx
  00034	8d 4d e4	 lea	 ecx, DWORD PTR _v3Min$[ebp]
  00037	51		 push	 ecx
  00038	8b c8		 mov	 ecx, eax
  0003a	e8 00 00 00 00	 call	 ?GetBoundBox@CInstanceBase@@QAEXPAUD3DXVECTOR3@@0@Z ; CInstanceBase::GetBoundBox
  0003f	f3 0f 10 45 f4	 movss	 xmm0, DWORD PTR _v3Max$[ebp+4]

; 913  : 
; 914  : 	return Py_BuildValue("ffff", v3Min.x, v3Min.y, v3Max.x, v3Max.y);

  00044	83 ec 20	 sub	 esp, 32			; 00000020H
  00047	0f 5a c0	 cvtps2pd xmm0, xmm0
  0004a	f2 0f 11 44 24
	18		 movsd	 QWORD PTR [esp+24], xmm0
  00050	f3 0f 10 45 f0	 movss	 xmm0, DWORD PTR _v3Max$[ebp]
  00055	0f 5a c0	 cvtps2pd xmm0, xmm0
  00058	f2 0f 11 44 24
	10		 movsd	 QWORD PTR [esp+16], xmm0
  0005e	f3 0f 10 45 e8	 movss	 xmm0, DWORD PTR _v3Min$[ebp+4]
  00063	0f 5a c0	 cvtps2pd xmm0, xmm0
  00066	f2 0f 11 44 24
	08		 movsd	 QWORD PTR [esp+8], xmm0
  0006c	f3 0f 10 45 e4	 movss	 xmm0, DWORD PTR _v3Min$[ebp]
  00071	0f 5a c0	 cvtps2pd xmm0, xmm0
  00074	f2 0f 11 04 24	 movsd	 QWORD PTR [esp], xmm0
$LN4@chrGetBoun:

; 915  : }

  00079	68 00 00 00 00	 push	 OFFSET ??_C@_04EOBPFJGD@ffff@
  0007e	ff 15 00 00 00
	00		 call	 DWORD PTR __imp__Py_BuildValue
  00084	8b 4d fc	 mov	 ecx, DWORD PTR __$ArrayPad$[ebp]
  00087	83 c4 24	 add	 esp, 36			; 00000024H
  0008a	33 cd		 xor	 ecx, ebp
  0008c	e8 00 00 00 00	 call	 @__security_check_cookie@4
  00091	8b e5		 mov	 esp, ebp
  00093	5d		 pop	 ebp
  00094	c3		 ret	 0
?chrGetBoundBoxOnlyXY@@YAPAU_object@@PAU1@0@Z ENDP	; chrGetBoundBoxOnlyXY
_TEXT	ENDS
; Function compile flags: /Ogtp
; File D:\Metin2 Server Files\mainline\SRC_2014\Metin2Client\UserInterface\PythonCharacterModule.cpp
;	COMDAT ?chrGetInstanceType@@YAPAU_object@@PAU1@0@Z
_TEXT	SEGMENT
_iVirtualID$ = -4					; size = 4
_poSelf$ = 8						; size = 4
_poArgs$ = 12						; size = 4
?chrGetInstanceType@@YAPAU_object@@PAU1@0@Z PROC	; chrGetInstanceType, COMDAT

; 891  : {

  00000	55		 push	 ebp
  00001	8b ec		 mov	 ebp, esp
  00003	51		 push	 ecx

; 892  : 	int iVirtualID;
; 893  : 	if (!PyTuple_GetInteger(poArgs, 0, &iVirtualID))

  00004	8d 45 fc	 lea	 eax, DWORD PTR _iVirtualID$[ebp]
  00007	50		 push	 eax
  00008	6a 00		 push	 0
  0000a	ff 75 0c	 push	 DWORD PTR _poArgs$[ebp]
  0000d	e8 00 00 00 00	 call	 ?PyTuple_GetInteger@@YA_NPAU_object@@HPAH@Z ; PyTuple_GetInteger
  00012	83 c4 0c	 add	 esp, 12			; 0000000cH
  00015	84 c0		 test	 al, al
  00017	75 0e		 jne	 SHORT $LN2@chrGetInst

; 894  : 		return Py_BuildException();

  00019	6a 00		 push	 0
  0001b	e8 00 00 00 00	 call	 ?Py_BuildException@@YAPAU_object@@PBDZZ ; Py_BuildException
  00020	83 c4 04	 add	 esp, 4

; 902  : }

  00023	8b e5		 mov	 esp, ebp
  00025	5d		 pop	 ebp
  00026	c3		 ret	 0
$LN2@chrGetInst:

; 895  : 
; 896  : 	CInstanceBase * pkInst = CPythonCharacterManager::Instance().GetInstancePtr(iVirtualID);

  00027	8b 0d 00 00 00
	00		 mov	 ecx, DWORD PTR ?ms_singleton@?$CSingleton@VCPythonCharacterManager@@@@0PAVCPythonCharacterManager@@A ; CSingleton<CPythonCharacterManager>::ms_singleton
  0002d	ff 75 fc	 push	 DWORD PTR _iVirtualID$[ebp]
  00030	83 c1 04	 add	 ecx, 4
  00033	8b 01		 mov	 eax, DWORD PTR [ecx]
  00035	ff 50 08	 call	 DWORD PTR [eax+8]

; 897  : 
; 898  : 	if (NULL != pkInst)

  00038	85 c0		 test	 eax, eax
  0003a	74 1a		 je	 SHORT $LN3@chrGetInst

; 899  : 		return Py_BuildValue("i", pkInst->GetInstanceType());

  0003c	8b c8		 mov	 ecx, eax
  0003e	e8 00 00 00 00	 call	 ?GetInstanceType@CInstanceBase@@QAEHXZ ; CInstanceBase::GetInstanceType
  00043	50		 push	 eax

; 902  : }

  00044	68 00 00 00 00	 push	 OFFSET ??_C@_01KBJDNOO@i@
  00049	ff 15 00 00 00
	00		 call	 DWORD PTR __imp__Py_BuildValue
  0004f	83 c4 08	 add	 esp, 8
  00052	8b e5		 mov	 esp, ebp
  00054	5d		 pop	 ebp
  00055	c3		 ret	 0
$LN3@chrGetInst:

; 900  : 
; 901  : 	return Py_BuildValue("i", CActorInstance::TYPE_PC);

  00056	6a 06		 push	 6

; 902  : }

  00058	68 00 00 00 00	 push	 OFFSET ??_C@_01KBJDNOO@i@
  0005d	ff 15 00 00 00
	00		 call	 DWORD PTR __imp__Py_BuildValue
  00063	83 c4 08	 add	 esp, 8
  00066	8b e5		 mov	 esp, ebp
  00068	5d		 pop	 ebp
  00069	c3		 ret	 0
?chrGetInstanceType@@YAPAU_object@@PAU1@0@Z ENDP	; chrGetInstanceType
_TEXT	ENDS
; Function compile flags: /Ogtp
; File D:\Metin2 Server Files\mainline\SRC_2014\Metin2Client\UserInterface\PythonCharacterModule.cpp
;	COMDAT ?chrGetVirtualNumber@@YAPAU_object@@PAU1@0@Z
_TEXT	SEGMENT
_iVirtualID$ = -4					; size = 4
_poSelf$ = 8						; size = 4
_poArgs$ = 12						; size = 4
?chrGetVirtualNumber@@YAPAU_object@@PAU1@0@Z PROC	; chrGetVirtualNumber, COMDAT

; 877  : {

  00000	55		 push	 ebp
  00001	8b ec		 mov	 ebp, esp
  00003	51		 push	 ecx

; 878  : 	int iVirtualID;
; 879  : 	if (!PyTuple_GetInteger(poArgs, 0, &iVirtualID))

  00004	8d 45 fc	 lea	 eax, DWORD PTR _iVirtualID$[ebp]
  00007	50		 push	 eax
  00008	6a 00		 push	 0
  0000a	ff 75 0c	 push	 DWORD PTR _poArgs$[ebp]
  0000d	e8 00 00 00 00	 call	 ?PyTuple_GetInteger@@YA_NPAU_object@@HPAH@Z ; PyTuple_GetInteger
  00012	83 c4 0c	 add	 esp, 12			; 0000000cH
  00015	84 c0		 test	 al, al
  00017	75 0e		 jne	 SHORT $LN2@chrGetVirt

; 880  : 		return Py_BuildException();

  00019	6a 00		 push	 0
  0001b	e8 00 00 00 00	 call	 ?Py_BuildException@@YAPAU_object@@PBDZZ ; Py_BuildException
  00020	83 c4 04	 add	 esp, 4

; 888  : }

  00023	8b e5		 mov	 esp, ebp
  00025	5d		 pop	 ebp
  00026	c3		 ret	 0
$LN2@chrGetVirt:

; 881  : 
; 882  : 	CInstanceBase * pkInst = CPythonCharacterManager::Instance().GetInstancePtr(iVirtualID);

  00027	8b 0d 00 00 00
	00		 mov	 ecx, DWORD PTR ?ms_singleton@?$CSingleton@VCPythonCharacterManager@@@@0PAVCPythonCharacterManager@@A ; CSingleton<CPythonCharacterManager>::ms_singleton
  0002d	ff 75 fc	 push	 DWORD PTR _iVirtualID$[ebp]
  00030	83 c1 04	 add	 ecx, 4
  00033	8b 01		 mov	 eax, DWORD PTR [ecx]
  00035	ff 50 08	 call	 DWORD PTR [eax+8]

; 883  : 
; 884  : 	if (NULL != pkInst)

  00038	85 c0		 test	 eax, eax
  0003a	74 1a		 je	 SHORT $LN3@chrGetVirt

; 885  : 		return Py_BuildValue("i", pkInst->GetVirtualNumber());

  0003c	8b c8		 mov	 ecx, eax
  0003e	e8 00 00 00 00	 call	 ?GetVirtualNumber@CInstanceBase@@QAEKXZ ; CInstanceBase::GetVirtualNumber
  00043	50		 push	 eax

; 888  : }

  00044	68 00 00 00 00	 push	 OFFSET ??_C@_01KBJDNOO@i@
  00049	ff 15 00 00 00
	00		 call	 DWORD PTR __imp__Py_BuildValue
  0004f	83 c4 08	 add	 esp, 8
  00052	8b e5		 mov	 esp, ebp
  00054	5d		 pop	 ebp
  00055	c3		 ret	 0
$LN3@chrGetVirt:

; 886  : 
; 887  : 	return Py_BuildValue("i", CActorInstance::TYPE_PC);

  00056	6a 06		 push	 6

; 888  : }

  00058	68 00 00 00 00	 push	 OFFSET ??_C@_01KBJDNOO@i@
  0005d	ff 15 00 00 00
	00		 call	 DWORD PTR __imp__Py_BuildValue
  00063	83 c4 08	 add	 esp, 8
  00066	8b e5		 mov	 esp, ebp
  00068	5d		 pop	 ebp
  00069	c3		 ret	 0
?chrGetVirtualNumber@@YAPAU_object@@PAU1@0@Z ENDP	; chrGetVirtualNumber
_TEXT	ENDS
; Function compile flags: /Ogtp
; File D:\Metin2 Server Files\mainline\SRC_2014\Metin2Client\UserInterface\PythonCharacterModule.cpp
;	COMDAT ?chrGetProjectPosition@@YAPAU_object@@PAU1@0@Z
_TEXT	SEGMENT
_fx$ = -36						; size = 4
_fy$ = -32						; size = 4
_fz$ = -28						; size = 4
_iHeight$ = -24						; size = 4
_iVirtualID$ = -20					; size = 4
_PixelPosition$ = -16					; size = 12
__$ArrayPad$ = -4					; size = 4
_poSelf$ = 8						; size = 4
_poArgs$ = 12						; size = 4
?chrGetProjectPosition@@YAPAU_object@@PAU1@0@Z PROC	; chrGetProjectPosition, COMDAT

; 846  : {

  00000	55		 push	 ebp
  00001	8b ec		 mov	 ebp, esp
  00003	83 ec 24	 sub	 esp, 36			; 00000024H
  00006	a1 00 00 00 00	 mov	 eax, DWORD PTR ___security_cookie
  0000b	33 c5		 xor	 eax, ebp
  0000d	89 45 fc	 mov	 DWORD PTR __$ArrayPad$[ebp], eax
  00010	56		 push	 esi
  00011	8b 75 0c	 mov	 esi, DWORD PTR _poArgs$[ebp]

; 847  : 	int iVirtualID;
; 848  : 	if (!PyTuple_GetInteger(poArgs, 0, &iVirtualID))

  00014	8d 45 ec	 lea	 eax, DWORD PTR _iVirtualID$[ebp]
  00017	50		 push	 eax
  00018	6a 00		 push	 0
  0001a	56		 push	 esi
  0001b	e8 00 00 00 00	 call	 ?PyTuple_GetInteger@@YA_NPAU_object@@HPAH@Z ; PyTuple_GetInteger
  00020	83 c4 0c	 add	 esp, 12			; 0000000cH
  00023	84 c0		 test	 al, al
  00025	75 19		 jne	 SHORT $LN2@chrGetProj
$LN9@chrGetProj:

; 874  : }

  00027	6a 00		 push	 0
  00029	e8 00 00 00 00	 call	 ?Py_BuildException@@YAPAU_object@@PBDZZ ; Py_BuildException
  0002e	83 c4 04	 add	 esp, 4
  00031	5e		 pop	 esi
  00032	8b 4d fc	 mov	 ecx, DWORD PTR __$ArrayPad$[ebp]
  00035	33 cd		 xor	 ecx, ebp
  00037	e8 00 00 00 00	 call	 @__security_check_cookie@4
  0003c	8b e5		 mov	 esp, ebp
  0003e	5d		 pop	 ebp
  0003f	c3		 ret	 0
$LN2@chrGetProj:

; 849  : 		return Py_BuildException();
; 850  : 	int iHeight;
; 851  : 	if (!PyTuple_GetInteger(poArgs, 1, &iHeight))

  00040	8d 45 e8	 lea	 eax, DWORD PTR _iHeight$[ebp]
  00043	50		 push	 eax
  00044	6a 01		 push	 1
  00046	56		 push	 esi
  00047	e8 00 00 00 00	 call	 ?PyTuple_GetInteger@@YA_NPAU_object@@HPAH@Z ; PyTuple_GetInteger
  0004c	83 c4 0c	 add	 esp, 12			; 0000000cH
  0004f	84 c0		 test	 al, al
  00051	74 d4		 je	 SHORT $LN9@chrGetProj

; 852  : 		return Py_BuildException();
; 853  : 
; 854  : 	CInstanceBase * pInstance = CPythonCharacterManager::Instance().GetInstancePtr(iVirtualID);

  00053	8b 0d 00 00 00
	00		 mov	 ecx, DWORD PTR ?ms_singleton@?$CSingleton@VCPythonCharacterManager@@@@0PAVCPythonCharacterManager@@A ; CSingleton<CPythonCharacterManager>::ms_singleton
  00059	ff 75 ec	 push	 DWORD PTR _iVirtualID$[ebp]
  0005c	83 c1 04	 add	 ecx, 4
  0005f	8b 01		 mov	 eax, DWORD PTR [ecx]
  00061	8b 40 08	 mov	 eax, DWORD PTR [eax+8]
  00064	ff d0		 call	 eax

; 855  : 
; 856  : 	if (!pInstance)

  00066	85 c0		 test	 eax, eax
  00068	75 06		 jne	 SHORT $LN4@chrGetProj
$LN8@chrGetProj:

; 874  : }

  0006a	6a 9c		 push	 -100			; ffffff9cH
  0006c	6a 9c		 push	 -100			; ffffff9cH
  0006e	eb 6a		 jmp	 SHORT $LN7@chrGetProj
$LN4@chrGetProj:

; 857  : 		return Py_BuildValue("ii", -100, -100);
; 858  : 
; 859  : 	TPixelPosition PixelPosition;
; 860  : 	pInstance->NEW_GetPixelPosition(&PixelPosition);

  00070	8d 4d f0	 lea	 ecx, DWORD PTR _PixelPosition$[ebp]
  00073	51		 push	 ecx
  00074	8b c8		 mov	 ecx, eax
  00076	e8 00 00 00 00	 call	 ?NEW_GetPixelPosition@CInstanceBase@@QAEXPAUD3DXVECTOR3@@@Z ; CInstanceBase::NEW_GetPixelPosition
  0007b	66 0f 6e 45 e8	 movd	 xmm0, DWORD PTR _iHeight$[ebp]

; 861  : 
; 862  : 	CPythonGraphic & rpyGraphic = CPythonGraphic::Instance();
; 863  : 
; 864  : 	float fx, fy, fz;
; 865  : 	rpyGraphic.ProjectPosition(PixelPosition.x,

  00080	8d 45 e4	 lea	 eax, DWORD PTR _fz$[ebp]
  00083	8b 0d 00 00 00
	00		 mov	 ecx, DWORD PTR ?ms_singleton@?$CSingleton@VCPythonGraphic@@@@0PAVCPythonGraphic@@A ; CSingleton<CPythonGraphic>::ms_singleton
  00089	50		 push	 eax
  0008a	0f 5b c0	 cvtdq2ps xmm0, xmm0
  0008d	8d 45 e0	 lea	 eax, DWORD PTR _fy$[ebp]
  00090	50		 push	 eax
  00091	8d 45 dc	 lea	 eax, DWORD PTR _fx$[ebp]
  00094	50		 push	 eax
  00095	83 ec 0c	 sub	 esp, 12			; 0000000cH
  00098	f3 0f 58 45 f8	 addss	 xmm0, DWORD PTR _PixelPosition$[ebp+8]
  0009d	f3 0f 11 44 24
	08		 movss	 DWORD PTR [esp+8], xmm0
  000a3	f3 0f 10 45 f4	 movss	 xmm0, DWORD PTR _PixelPosition$[ebp+4]
  000a8	0f 57 05 00 00
	00 00		 xorps	 xmm0, DWORD PTR __xmm@80000000800000008000000080000000
  000af	f3 0f 11 44 24
	04		 movss	 DWORD PTR [esp+4], xmm0
  000b5	f3 0f 10 45 f0	 movss	 xmm0, DWORD PTR _PixelPosition$[ebp]
  000ba	f3 0f 11 04 24	 movss	 DWORD PTR [esp], xmm0
  000bf	e8 00 00 00 00	 call	 ?ProjectPosition@CScreen@@QAEXMMMPAM00@Z ; CScreen::ProjectPosition

; 866  : 							   -PixelPosition.y,
; 867  : 							   PixelPosition.z + float(iHeight),
; 868  : 							   &fx, &fy, &fz);
; 869  : 
; 870  : 	if (1 == int(fz))

  000c4	f3 0f 2c 45 e4	 cvttss2si eax, DWORD PTR _fz$[ebp]
  000c9	83 f8 01	 cmp	 eax, 1
  000cc	74 9c		 je	 SHORT $LN8@chrGetProj

; 871  : 		return Py_BuildValue("ii", -100, -100);
; 872  : 
; 873  : 	return Py_BuildValue("ii", int(fx), int(fy));

  000ce	f3 0f 2c 45 e0	 cvttss2si eax, DWORD PTR _fy$[ebp]
  000d3	50		 push	 eax
  000d4	f3 0f 2c 45 dc	 cvttss2si eax, DWORD PTR _fx$[ebp]
  000d9	50		 push	 eax
$LN7@chrGetProj:

; 874  : }

  000da	68 00 00 00 00	 push	 OFFSET ??_C@_02PDIHAGKM@ii@
  000df	ff 15 00 00 00
	00		 call	 DWORD PTR __imp__Py_BuildValue
  000e5	8b 4d fc	 mov	 ecx, DWORD PTR __$ArrayPad$[ebp]
  000e8	83 c4 0c	 add	 esp, 12			; 0000000cH
  000eb	33 cd		 xor	 ecx, ebp
  000ed	5e		 pop	 esi
  000ee	e8 00 00 00 00	 call	 @__security_check_cookie@4
  000f3	8b e5		 mov	 esp, ebp
  000f5	5d		 pop	 ebp
  000f6	c3		 ret	 0
?chrGetProjectPosition@@YAPAU_object@@PAU1@0@Z ENDP	; chrGetProjectPosition
_TEXT	ENDS
; Function compile flags: /Ogtp
; File D:\Metin2 Server Files\mainline\SRC_2014\Metin2Client\UserInterface\PythonCharacterModule.cpp
;	COMDAT ?chrGetGuildID@@YAPAU_object@@PAU1@0@Z
_TEXT	SEGMENT
_iVirtualID$ = -4					; size = 4
_poSelf$ = 8						; size = 4
_poArgs$ = 12						; size = 4
?chrGetGuildID@@YAPAU_object@@PAU1@0@Z PROC		; chrGetGuildID, COMDAT

; 832  : {

  00000	55		 push	 ebp
  00001	8b ec		 mov	 ebp, esp
  00003	51		 push	 ecx

; 833  : 	int iVirtualID;
; 834  : 	if (!PyTuple_GetInteger(poArgs, 0, &iVirtualID))

  00004	8d 45 fc	 lea	 eax, DWORD PTR _iVirtualID$[ebp]
  00007	50		 push	 eax
  00008	6a 00		 push	 0
  0000a	ff 75 0c	 push	 DWORD PTR _poArgs$[ebp]
  0000d	e8 00 00 00 00	 call	 ?PyTuple_GetInteger@@YA_NPAU_object@@HPAH@Z ; PyTuple_GetInteger
  00012	83 c4 0c	 add	 esp, 12			; 0000000cH
  00015	84 c0		 test	 al, al
  00017	75 0e		 jne	 SHORT $LN2@chrGetGuil

; 835  : 		return Py_BuildException();

  00019	6a 00		 push	 0
  0001b	e8 00 00 00 00	 call	 ?Py_BuildException@@YAPAU_object@@PBDZZ ; Py_BuildException
  00020	83 c4 04	 add	 esp, 4

; 843  : }

  00023	8b e5		 mov	 esp, ebp
  00025	5d		 pop	 ebp
  00026	c3		 ret	 0
$LN2@chrGetGuil:

; 836  : 
; 837  : 	CInstanceBase * pInstance = CPythonCharacterManager::Instance().GetInstancePtr(iVirtualID);

  00027	8b 0d 00 00 00
	00		 mov	 ecx, DWORD PTR ?ms_singleton@?$CSingleton@VCPythonCharacterManager@@@@0PAVCPythonCharacterManager@@A ; CSingleton<CPythonCharacterManager>::ms_singleton
  0002d	ff 75 fc	 push	 DWORD PTR _iVirtualID$[ebp]
  00030	83 c1 04	 add	 ecx, 4
  00033	8b 01		 mov	 eax, DWORD PTR [ecx]
  00035	ff 50 08	 call	 DWORD PTR [eax+8]

; 838  : 
; 839  : 	if (!pInstance)

  00038	85 c0		 test	 eax, eax
  0003a	75 13		 jne	 SHORT $LN3@chrGetGuil

; 840  : 		return Py_BuildValue("i", 0);

  0003c	50		 push	 eax

; 843  : }

  0003d	68 00 00 00 00	 push	 OFFSET ??_C@_01KBJDNOO@i@
  00042	ff 15 00 00 00
	00		 call	 DWORD PTR __imp__Py_BuildValue
  00048	83 c4 08	 add	 esp, 8
  0004b	8b e5		 mov	 esp, ebp
  0004d	5d		 pop	 ebp
  0004e	c3		 ret	 0
$LN3@chrGetGuil:

; 841  : 
; 842  : 	return Py_BuildValue("i", pInstance->GetGuildID());

  0004f	8b c8		 mov	 ecx, eax
  00051	e8 00 00 00 00	 call	 ?GetGuildID@CInstanceBase@@QAEKXZ ; CInstanceBase::GetGuildID
  00056	50		 push	 eax

; 843  : }

  00057	68 00 00 00 00	 push	 OFFSET ??_C@_01KBJDNOO@i@
  0005c	ff 15 00 00 00
	00		 call	 DWORD PTR __imp__Py_BuildValue
  00062	83 c4 08	 add	 esp, 8
  00065	8b e5		 mov	 esp, ebp
  00067	5d		 pop	 ebp
  00068	c3		 ret	 0
?chrGetGuildID@@YAPAU_object@@PAU1@0@Z ENDP		; chrGetGuildID
_TEXT	ENDS
; Function compile flags: /Ogtp
; File D:\Metin2 Server Files\mainline\SRC_2014\Metin2Client\UserInterface\PythonCharacterModule.cpp
;	COMDAT ?chrGetNameByVID@@YAPAU_object@@PAU1@0@Z
_TEXT	SEGMENT
_iVirtualID$ = -4					; size = 4
_poSelf$ = 8						; size = 4
_poArgs$ = 12						; size = 4
?chrGetNameByVID@@YAPAU_object@@PAU1@0@Z PROC		; chrGetNameByVID, COMDAT

; 818  : {

  00000	55		 push	 ebp
  00001	8b ec		 mov	 ebp, esp
  00003	51		 push	 ecx

; 819  : 	int iVirtualID;
; 820  : 	if (!PyTuple_GetInteger(poArgs, 0, &iVirtualID))

  00004	8d 45 fc	 lea	 eax, DWORD PTR _iVirtualID$[ebp]
  00007	50		 push	 eax
  00008	6a 00		 push	 0
  0000a	ff 75 0c	 push	 DWORD PTR _poArgs$[ebp]
  0000d	e8 00 00 00 00	 call	 ?PyTuple_GetInteger@@YA_NPAU_object@@HPAH@Z ; PyTuple_GetInteger
  00012	83 c4 0c	 add	 esp, 12			; 0000000cH
  00015	84 c0		 test	 al, al
  00017	75 0e		 jne	 SHORT $LN2@chrGetName

; 821  : 		return Py_BuildException();

  00019	6a 00		 push	 0
  0001b	e8 00 00 00 00	 call	 ?Py_BuildException@@YAPAU_object@@PBDZZ ; Py_BuildException
  00020	83 c4 04	 add	 esp, 4

; 829  : }

  00023	8b e5		 mov	 esp, ebp
  00025	5d		 pop	 ebp
  00026	c3		 ret	 0
$LN2@chrGetName:

; 822  : 
; 823  : 	CInstanceBase * pInstance = CPythonCharacterManager::Instance().GetInstancePtr(iVirtualID);

  00027	8b 0d 00 00 00
	00		 mov	 ecx, DWORD PTR ?ms_singleton@?$CSingleton@VCPythonCharacterManager@@@@0PAVCPythonCharacterManager@@A ; CSingleton<CPythonCharacterManager>::ms_singleton
  0002d	ff 75 fc	 push	 DWORD PTR _iVirtualID$[ebp]
  00030	83 c1 04	 add	 ecx, 4
  00033	8b 01		 mov	 eax, DWORD PTR [ecx]
  00035	ff 50 08	 call	 DWORD PTR [eax+8]

; 824  : 
; 825  : 	if (!pInstance)

  00038	85 c0		 test	 eax, eax
  0003a	75 17		 jne	 SHORT $LN3@chrGetName

; 826  : 		return Py_BuildValue("s", "None");

  0003c	68 00 00 00 00	 push	 OFFSET ??_C@_04OHJIHAFH@None@

; 829  : }

  00041	68 00 00 00 00	 push	 OFFSET ??_C@_01LKDEMHDF@s@
  00046	ff 15 00 00 00
	00		 call	 DWORD PTR __imp__Py_BuildValue
  0004c	83 c4 08	 add	 esp, 8
  0004f	8b e5		 mov	 esp, ebp
  00051	5d		 pop	 ebp
  00052	c3		 ret	 0
$LN3@chrGetName:

; 827  : 
; 828  : 	return Py_BuildValue("s", pInstance->GetNameString());

  00053	8b c8		 mov	 ecx, eax
  00055	e8 00 00 00 00	 call	 ?GetNameString@CInstanceBase@@QAEPBDXZ ; CInstanceBase::GetNameString
  0005a	50		 push	 eax

; 829  : }

  0005b	68 00 00 00 00	 push	 OFFSET ??_C@_01LKDEMHDF@s@
  00060	ff 15 00 00 00
	00		 call	 DWORD PTR __imp__Py_BuildValue
  00066	83 c4 08	 add	 esp, 8
  00069	8b e5		 mov	 esp, ebp
  0006b	5d		 pop	 ebp
  0006c	c3		 ret	 0
?chrGetNameByVID@@YAPAU_object@@PAU1@0@Z ENDP		; chrGetNameByVID
_TEXT	ENDS
; Function compile flags: /Ogtp
; File D:\Metin2 Server Files\mainline\SRC_2014\Metin2Client\UserInterface\PythonCharacterModule.cpp
;	COMDAT ?chrGetName@@YAPAU_object@@PAU1@0@Z
_TEXT	SEGMENT
_poSelf$ = 8						; size = 4
_poArgs$ = 12						; size = 4
?chrGetName@@YAPAU_object@@PAU1@0@Z PROC		; chrGetName, COMDAT

; 809  : 	CInstanceBase * pCharacterInstance = CPythonCharacterManager::Instance().GetSelectedInstancePtr();

  00000	8b 0d 00 00 00
	00		 mov	 ecx, DWORD PTR ?ms_singleton@?$CSingleton@VCPythonCharacterManager@@@@0PAVCPythonCharacterManager@@A ; CSingleton<CPythonCharacterManager>::ms_singleton
  00006	e8 00 00 00 00	 call	 ?GetSelectedInstancePtr@CPythonCharacterManager@@QAEPAVCInstanceBase@@XZ ; CPythonCharacterManager::GetSelectedInstancePtr

; 810  : 
; 811  : 	if (!pCharacterInstance)

  0000b	85 c0		 test	 eax, eax
  0000d	75 10		 jne	 SHORT $LN2@chrGetName

; 812  : 		return Py_BuildValue("i", 0);

  0000f	50		 push	 eax
  00010	68 00 00 00 00	 push	 OFFSET ??_C@_01KBJDNOO@i@

; 815  : }

  00015	ff 15 00 00 00
	00		 call	 DWORD PTR __imp__Py_BuildValue
  0001b	83 c4 08	 add	 esp, 8
  0001e	c3		 ret	 0
$LN2@chrGetName:

; 813  : 
; 814  : 	return Py_BuildValue("s", pCharacterInstance->GetNameString());

  0001f	8b c8		 mov	 ecx, eax
  00021	e8 00 00 00 00	 call	 ?GetNameString@CInstanceBase@@QAEPBDXZ ; CInstanceBase::GetNameString
  00026	50		 push	 eax
  00027	68 00 00 00 00	 push	 OFFSET ??_C@_01LKDEMHDF@s@

; 815  : }

  0002c	ff 15 00 00 00
	00		 call	 DWORD PTR __imp__Py_BuildValue
  00032	83 c4 08	 add	 esp, 8
  00035	c3		 ret	 0
?chrGetName@@YAPAU_object@@PAU1@0@Z ENDP		; chrGetName
_TEXT	ENDS
; Function compile flags: /Ogtp
; File D:\Metin2 Server Files\mainline\SRC_2014\Metin2Client\UserInterface\PythonCharacterModule.cpp
;	COMDAT ?chrGetRace@@YAPAU_object@@PAU1@0@Z
_TEXT	SEGMENT
_poSelf$ = 8						; size = 4
_poArgs$ = 12						; size = 4
?chrGetRace@@YAPAU_object@@PAU1@0@Z PROC		; chrGetRace, COMDAT

; 799  : 	CInstanceBase * pCharacterInstance = CPythonCharacterManager::Instance().GetSelectedInstancePtr();

  00000	8b 0d 00 00 00
	00		 mov	 ecx, DWORD PTR ?ms_singleton@?$CSingleton@VCPythonCharacterManager@@@@0PAVCPythonCharacterManager@@A ; CSingleton<CPythonCharacterManager>::ms_singleton
  00006	e8 00 00 00 00	 call	 ?GetSelectedInstancePtr@CPythonCharacterManager@@QAEPAVCInstanceBase@@XZ ; CPythonCharacterManager::GetSelectedInstancePtr

; 800  : 
; 801  : 	if (!pCharacterInstance)

  0000b	85 c0		 test	 eax, eax
  0000d	75 10		 jne	 SHORT $LN2@chrGetRace

; 802  : 		return Py_BuildValue("i", 0);

  0000f	50		 push	 eax

; 805  : }

  00010	68 00 00 00 00	 push	 OFFSET ??_C@_01KBJDNOO@i@
  00015	ff 15 00 00 00
	00		 call	 DWORD PTR __imp__Py_BuildValue
  0001b	83 c4 08	 add	 esp, 8
  0001e	c3		 ret	 0
$LN2@chrGetRace:

; 803  : 
; 804  : 	return Py_BuildValue("i", pCharacterInstance->GetRace());

  0001f	8b c8		 mov	 ecx, eax
  00021	e8 00 00 00 00	 call	 ?GetRace@CInstanceBase@@QAEKXZ ; CInstanceBase::GetRace
  00026	50		 push	 eax

; 805  : }

  00027	68 00 00 00 00	 push	 OFFSET ??_C@_01KBJDNOO@i@
  0002c	ff 15 00 00 00
	00		 call	 DWORD PTR __imp__Py_BuildValue
  00032	83 c4 08	 add	 esp, 8
  00035	c3		 ret	 0
?chrGetRace@@YAPAU_object@@PAU1@0@Z ENDP		; chrGetRace
_TEXT	ENDS
; Function compile flags: /Ogtp
; File D:\Metin2 Server Files\mainline\SRC_2014\Metin2Client\UserInterface\PythonCharacterModule.cpp
;	COMDAT ?chrGetRotation@@YAPAU_object@@PAU1@0@Z
_TEXT	SEGMENT
_fRotation$ = -4					; size = 4
_poSelf$ = 8						; size = 4
_poArgs$ = 12						; size = 4
?chrGetRotation@@YAPAU_object@@PAU1@0@Z PROC		; chrGetRotation, COMDAT

; 786  : {

  00000	55		 push	 ebp
  00001	8b ec		 mov	 ebp, esp
  00003	51		 push	 ecx

; 787  : 	CInstanceBase * pCharacterInstance = CPythonCharacterManager::Instance().GetSelectedInstancePtr();

  00004	8b 0d 00 00 00
	00		 mov	 ecx, DWORD PTR ?ms_singleton@?$CSingleton@VCPythonCharacterManager@@@@0PAVCPythonCharacterManager@@A ; CSingleton<CPythonCharacterManager>::ms_singleton
  0000a	e8 00 00 00 00	 call	 ?GetSelectedInstancePtr@CPythonCharacterManager@@QAEPAVCInstanceBase@@XZ ; CPythonCharacterManager::GetSelectedInstancePtr

; 788  : 
; 789  : 	if (!pCharacterInstance)

  0000f	85 c0		 test	 eax, eax
  00011	75 05		 jne	 SHORT $LN2@chrGetRota

; 790  : 		return Py_BuildValue("f", 0.0f);

  00013	0f 57 c0	 xorps	 xmm0, xmm0
  00016	eb 1a		 jmp	 SHORT $LN4@chrGetRota
$LN2@chrGetRota:

; 791  : 
; 792  : 	float fRotation = pCharacterInstance->GetRotation();

  00018	8b c8		 mov	 ecx, eax
  0001a	e8 00 00 00 00	 call	 ?GetRotation@CInstanceBase@@QAEMXZ ; CInstanceBase::GetRotation

; 793  : 
; 794  : 	return Py_BuildValue("f", 360.0f - fRotation);

  0001f	f3 0f 10 05 00
	00 00 00	 movss	 xmm0, DWORD PTR __real@43b40000
  00027	d9 5d fc	 fstp	 DWORD PTR _fRotation$[ebp]
  0002a	f3 0f 5c 45 fc	 subss	 xmm0, DWORD PTR _fRotation$[ebp]
  0002f	0f 5a c0	 cvtps2pd xmm0, xmm0
$LN4@chrGetRota:

; 795  : }

  00032	83 ec 08	 sub	 esp, 8
  00035	f2 0f 11 04 24	 movsd	 QWORD PTR [esp], xmm0
  0003a	68 00 00 00 00	 push	 OFFSET ??_C@_01INIBCBCB@f@
  0003f	ff 15 00 00 00
	00		 call	 DWORD PTR __imp__Py_BuildValue
  00045	83 c4 0c	 add	 esp, 12			; 0000000cH
  00048	8b e5		 mov	 esp, ebp
  0004a	5d		 pop	 ebp
  0004b	c3		 ret	 0
?chrGetRotation@@YAPAU_object@@PAU1@0@Z ENDP		; chrGetRotation
_TEXT	ENDS
; Function compile flags: /Ogtp
; File D:\Metin2 Server Files\mainline\SRC_2014\Metin2Client\UserInterface\PythonCharacterModule.cpp
; File C:\Program Files (x86)\Windows Kits\10\Include\10.0.18362.0\ucrt\corecrt_math.h
; File D:\Metin2 Server Files\mainline\SRC_2014\Metin2Client\UserInterface\PythonCharacterModule.cpp
;	COMDAT ?chrBlendRotation@@YAPAU_object@@PAU1@0@Z
_TEXT	SEGMENT
_fBlendTime$ = -12					; size = 4
tv93 = -8						; size = 8
_fRotation$ = -4					; size = 4
_poSelf$ = 8						; size = 4
_poArgs$ = 12						; size = 4
?chrBlendRotation@@YAPAU_object@@PAU1@0@Z PROC		; chrBlendRotation, COMDAT

; 767  : {

  00000	55		 push	 ebp
  00001	8b ec		 mov	 ebp, esp
  00003	83 ec 0c	 sub	 esp, 12			; 0000000cH

; 768  : 	float fRotation;
; 769  : 	if (!PyTuple_GetFloat(poArgs, 0, &fRotation))

  00006	8d 45 fc	 lea	 eax, DWORD PTR _fRotation$[ebp]
  00009	50		 push	 eax
  0000a	6a 00		 push	 0
  0000c	ff 75 0c	 push	 DWORD PTR _poArgs$[ebp]
  0000f	e8 00 00 00 00	 call	 ?PyTuple_GetFloat@@YA_NPAU_object@@HPAM@Z ; PyTuple_GetFloat
  00014	83 c4 0c	 add	 esp, 12			; 0000000cH
  00017	84 c0		 test	 al, al
  00019	75 0e		 jne	 SHORT $LN2@chrBlendRo
$LN11@chrBlendRo:

; 781  : 
; 782  : 	return Py_BuildNone();
; 783  : }

  0001b	6a 00		 push	 0
  0001d	e8 00 00 00 00	 call	 ?Py_BuildException@@YAPAU_object@@PBDZZ ; Py_BuildException
  00022	83 c4 04	 add	 esp, 4
  00025	8b e5		 mov	 esp, ebp
  00027	5d		 pop	 ebp
  00028	c3		 ret	 0
$LN2@chrBlendRo:

; 770  : 		return Py_BuildException();
; 771  : 	float fBlendTime;
; 772  : 	if (!PyTuple_GetFloat(poArgs, 1, &fBlendTime))

  00029	8d 45 f4	 lea	 eax, DWORD PTR _fBlendTime$[ebp]
  0002c	50		 push	 eax
  0002d	6a 01		 push	 1
  0002f	ff 75 0c	 push	 DWORD PTR _poArgs$[ebp]
  00032	e8 00 00 00 00	 call	 ?PyTuple_GetFloat@@YA_NPAU_object@@HPAM@Z ; PyTuple_GetFloat
  00037	83 c4 0c	 add	 esp, 12			; 0000000cH
  0003a	84 c0		 test	 al, al
  0003c	74 dd		 je	 SHORT $LN11@chrBlendRo

; 773  : 		return Py_BuildException();
; 774  : 
; 775  : 	fRotation = fmod(720.0f - fRotation, 360.0f);

  0003e	f3 0f 10 05 00
	00 00 00	 movss	 xmm0, DWORD PTR __real@44340000
  00046	f3 0f 5c 45 fc	 subss	 xmm0, DWORD PTR _fRotation$[ebp]
; File C:\Program Files (x86)\Windows Kits\10\Include\10.0.18362.0\ucrt\corecrt_math.h

; 691  :             return (float)fmod(_X, _Y);

  0004b	0f 5a c0	 cvtps2pd xmm0, xmm0
  0004e	f2 0f 11 45 f8	 movsd	 QWORD PTR tv93[ebp], xmm0
  00053	dd 45 f8	 fld	 QWORD PTR tv93[ebp]
  00056	dd 05 00 00 00
	00		 fld	 QWORD PTR __real@4076800000000000
  0005c	e8 00 00 00 00	 call	 __CIfmod
; File D:\Metin2 Server Files\mainline\SRC_2014\Metin2Client\UserInterface\PythonCharacterModule.cpp

; 777  : 	CInstanceBase * pCharacterInstance = CPythonCharacterManager::Instance().GetSelectedInstancePtr();

  00061	8b 0d 00 00 00
	00		 mov	 ecx, DWORD PTR ?ms_singleton@?$CSingleton@VCPythonCharacterManager@@@@0PAVCPythonCharacterManager@@A ; CSingleton<CPythonCharacterManager>::ms_singleton
  00067	d9 5d fc	 fstp	 DWORD PTR _fRotation$[ebp]
  0006a	e8 00 00 00 00	 call	 ?GetSelectedInstancePtr@CPythonCharacterManager@@QAEPAVCInstanceBase@@XZ ; CPythonCharacterManager::GetSelectedInstancePtr

; 778  : 	if (!pCharacterInstance)

  0006f	85 c0		 test	 eax, eax
  00071	74 1f		 je	 SHORT $LN10@chrBlendRo

; 779  : 		return Py_BuildNone();
; 780  : 	pCharacterInstance->BlendRotation(fRotation, fBlendTime);

  00073	f3 0f 10 45 f4	 movss	 xmm0, DWORD PTR _fBlendTime$[ebp]
  00078	83 ec 08	 sub	 esp, 8
  0007b	8b c8		 mov	 ecx, eax
  0007d	f3 0f 11 44 24
	04		 movss	 DWORD PTR [esp+4], xmm0
  00083	f3 0f 10 45 fc	 movss	 xmm0, DWORD PTR _fRotation$[ebp]
  00088	f3 0f 11 04 24	 movss	 DWORD PTR [esp], xmm0
  0008d	e8 00 00 00 00	 call	 ?BlendRotation@CInstanceBase@@QAEXMM@Z ; CInstanceBase::BlendRotation
$LN10@chrBlendRo:

; 781  : 
; 782  : 	return Py_BuildNone();
; 783  : }

  00092	e8 00 00 00 00	 call	 ?Py_BuildNone@@YAPAU_object@@XZ ; Py_BuildNone
  00097	8b e5		 mov	 esp, ebp
  00099	5d		 pop	 ebp
  0009a	c3		 ret	 0
?chrBlendRotation@@YAPAU_object@@PAU1@0@Z ENDP		; chrBlendRotation
_TEXT	ENDS
; Function compile flags: /Ogtp
; File D:\Metin2 Server Files\mainline\SRC_2014\Metin2Client\UserInterface\PythonCharacterModule.cpp
;	COMDAT ?chrSetRotationAll@@YAPAU_object@@PAU1@0@Z
_TEXT	SEGMENT
_fRotZ$ = -12						; size = 4
_fRotX$ = -8						; size = 4
_fRotY$ = -4						; size = 4
_poSelf$ = 8						; size = 4
_poArgs$ = 12						; size = 4
?chrSetRotationAll@@YAPAU_object@@PAU1@0@Z PROC		; chrSetRotationAll, COMDAT

; 746  : {

  00000	55		 push	 ebp
  00001	8b ec		 mov	 ebp, esp
  00003	83 ec 0c	 sub	 esp, 12			; 0000000cH

; 747  : 	float fRotX;
; 748  : 	if (!PyTuple_GetFloat(poArgs, 0, &fRotX))

  00006	8d 45 f8	 lea	 eax, DWORD PTR _fRotX$[ebp]
  00009	56		 push	 esi
  0000a	8b 75 0c	 mov	 esi, DWORD PTR _poArgs$[ebp]
  0000d	50		 push	 eax
  0000e	6a 00		 push	 0
  00010	56		 push	 esi
  00011	e8 00 00 00 00	 call	 ?PyTuple_GetFloat@@YA_NPAU_object@@HPAM@Z ; PyTuple_GetFloat
  00016	83 c4 0c	 add	 esp, 12			; 0000000cH
  00019	84 c0		 test	 al, al
  0001b	75 0f		 jne	 SHORT $LN2@chrSetRota
$LN8@chrSetRota:

; 763  : 	return Py_BuildNone();
; 764  : }

  0001d	6a 00		 push	 0
  0001f	e8 00 00 00 00	 call	 ?Py_BuildException@@YAPAU_object@@PBDZZ ; Py_BuildException
  00024	83 c4 04	 add	 esp, 4
  00027	5e		 pop	 esi
  00028	8b e5		 mov	 esp, ebp
  0002a	5d		 pop	 ebp
  0002b	c3		 ret	 0
$LN2@chrSetRota:

; 749  : 		return Py_BuildException();
; 750  : 	float fRotY;
; 751  : 	if (!PyTuple_GetFloat(poArgs, 1, &fRotY))

  0002c	8d 45 fc	 lea	 eax, DWORD PTR _fRotY$[ebp]
  0002f	50		 push	 eax
  00030	6a 01		 push	 1
  00032	56		 push	 esi
  00033	e8 00 00 00 00	 call	 ?PyTuple_GetFloat@@YA_NPAU_object@@HPAM@Z ; PyTuple_GetFloat
  00038	83 c4 0c	 add	 esp, 12			; 0000000cH
  0003b	84 c0		 test	 al, al
  0003d	74 de		 je	 SHORT $LN8@chrSetRota

; 752  : 		return Py_BuildException();
; 753  : 	float fRotZ;
; 754  : 	if (!PyTuple_GetFloat(poArgs, 2, &fRotZ))

  0003f	8d 45 f4	 lea	 eax, DWORD PTR _fRotZ$[ebp]
  00042	50		 push	 eax
  00043	6a 02		 push	 2
  00045	56		 push	 esi
  00046	e8 00 00 00 00	 call	 ?PyTuple_GetFloat@@YA_NPAU_object@@HPAM@Z ; PyTuple_GetFloat
  0004b	83 c4 0c	 add	 esp, 12			; 0000000cH
  0004e	84 c0		 test	 al, al
  00050	74 cb		 je	 SHORT $LN8@chrSetRota

; 755  : 		return Py_BuildException();
; 756  : 
; 757  : 	CInstanceBase * pCharacterInstance = CPythonCharacterManager::Instance().GetSelectedInstancePtr();

  00052	8b 0d 00 00 00
	00		 mov	 ecx, DWORD PTR ?ms_singleton@?$CSingleton@VCPythonCharacterManager@@@@0PAVCPythonCharacterManager@@A ; CSingleton<CPythonCharacterManager>::ms_singleton
  00058	e8 00 00 00 00	 call	 ?GetSelectedInstancePtr@CPythonCharacterManager@@QAEPAVCInstanceBase@@XZ ; CPythonCharacterManager::GetSelectedInstancePtr
  0005d	8b f0		 mov	 esi, eax

; 758  : 	if (!pCharacterInstance)

  0005f	85 f6		 test	 esi, esi
  00061	74 3f		 je	 SHORT $LN7@chrSetRota

; 759  : 		return Py_BuildNone();
; 760  : 
; 761  : 	pCharacterInstance->GetGraphicThingInstanceRef().SetXYRotation(fRotX, fRotY);

  00063	f3 0f 10 45 fc	 movss	 xmm0, DWORD PTR _fRotY$[ebp]
  00068	83 ec 08	 sub	 esp, 8
  0006b	8b ce		 mov	 ecx, esi
  0006d	f3 0f 11 44 24
	04		 movss	 DWORD PTR [esp+4], xmm0
  00073	f3 0f 10 45 f8	 movss	 xmm0, DWORD PTR _fRotX$[ebp]
  00078	f3 0f 11 04 24	 movss	 DWORD PTR [esp], xmm0
  0007d	e8 00 00 00 00	 call	 ?GetGraphicThingInstanceRef@CInstanceBase@@QAEAAVCActorInstance@@XZ ; CInstanceBase::GetGraphicThingInstanceRef
  00082	8b c8		 mov	 ecx, eax
  00084	e8 00 00 00 00	 call	 ?SetXYRotation@CActorInstance@@QAEXMM@Z ; CActorInstance::SetXYRotation

; 762  : 	pCharacterInstance->GetGraphicThingInstanceRef().SetRotation(fRotZ);

  00089	f3 0f 10 45 f4	 movss	 xmm0, DWORD PTR _fRotZ$[ebp]
  0008e	51		 push	 ecx
  0008f	8b ce		 mov	 ecx, esi
  00091	f3 0f 11 04 24	 movss	 DWORD PTR [esp], xmm0
  00096	e8 00 00 00 00	 call	 ?GetGraphicThingInstanceRef@CInstanceBase@@QAEAAVCActorInstance@@XZ ; CInstanceBase::GetGraphicThingInstanceRef
  0009b	8b c8		 mov	 ecx, eax
  0009d	e8 00 00 00 00	 call	 ?SetRotation@CActorInstance@@QAEXM@Z ; CActorInstance::SetRotation
$LN7@chrSetRota:

; 763  : 	return Py_BuildNone();
; 764  : }

  000a2	e8 00 00 00 00	 call	 ?Py_BuildNone@@YAPAU_object@@XZ ; Py_BuildNone
  000a7	5e		 pop	 esi
  000a8	8b e5		 mov	 esp, ebp
  000aa	5d		 pop	 ebp
  000ab	c3		 ret	 0
?chrSetRotationAll@@YAPAU_object@@PAU1@0@Z ENDP		; chrSetRotationAll
_TEXT	ENDS
; Function compile flags: /Ogtp
; File D:\Metin2 Server Files\mainline\SRC_2014\Metin2Client\UserInterface\PythonCharacterModule.cpp
; File C:\Program Files (x86)\Windows Kits\10\Include\10.0.18362.0\ucrt\corecrt_math.h
; File D:\Metin2 Server Files\mainline\SRC_2014\Metin2Client\UserInterface\PythonCharacterModule.cpp
;	COMDAT ?chrSetRotation@@YAPAU_object@@PAU1@0@Z
_TEXT	SEGMENT
tv84 = -8						; size = 8
_fRotation$ = -4					; size = 4
_poSelf$ = 8						; size = 4
_poArgs$ = 12						; size = 4
?chrSetRotation@@YAPAU_object@@PAU1@0@Z PROC		; chrSetRotation, COMDAT

; 728  : {

  00000	55		 push	 ebp
  00001	8b ec		 mov	 ebp, esp
  00003	83 ec 08	 sub	 esp, 8

; 729  : 	float fRotation;
; 730  : 	if (!PyTuple_GetFloat(poArgs, 0, &fRotation))

  00006	8d 45 fc	 lea	 eax, DWORD PTR _fRotation$[ebp]
  00009	50		 push	 eax
  0000a	6a 00		 push	 0
  0000c	ff 75 0c	 push	 DWORD PTR _poArgs$[ebp]
  0000f	e8 00 00 00 00	 call	 ?PyTuple_GetFloat@@YA_NPAU_object@@HPAM@Z ; PyTuple_GetFloat
  00014	83 c4 0c	 add	 esp, 12			; 0000000cH
  00017	84 c0		 test	 al, al
  00019	75 0e		 jne	 SHORT $LN2@chrSetRota

; 731  : 		return Py_BuildException();

  0001b	6a 00		 push	 0
  0001d	e8 00 00 00 00	 call	 ?Py_BuildException@@YAPAU_object@@PBDZZ ; Py_BuildException
  00022	83 c4 04	 add	 esp, 4

; 743  : }

  00025	8b e5		 mov	 esp, ebp
  00027	5d		 pop	 ebp
  00028	c3		 ret	 0
$LN2@chrSetRota:

; 732  : 
; 733  : 	CInstanceBase * pCharacterInstance = CPythonCharacterManager::Instance().GetSelectedInstancePtr();

  00029	8b 0d 00 00 00
	00		 mov	 ecx, DWORD PTR ?ms_singleton@?$CSingleton@VCPythonCharacterManager@@@@0PAVCPythonCharacterManager@@A ; CSingleton<CPythonCharacterManager>::ms_singleton
  0002f	56		 push	 esi
  00030	e8 00 00 00 00	 call	 ?GetSelectedInstancePtr@CPythonCharacterManager@@QAEPAVCInstanceBase@@XZ ; CPythonCharacterManager::GetSelectedInstancePtr
  00035	8b f0		 mov	 esi, eax

; 734  : 
; 735  : 	if (!pCharacterInstance)

  00037	85 f6		 test	 esi, esi
  00039	74 38		 je	 SHORT $LN10@chrSetRota

; 738  : 	fRotation = fmod(fRotation + 180.0f, 360.0f);

  0003b	f3 0f 10 45 fc	 movss	 xmm0, DWORD PTR _fRotation$[ebp]
  00040	f3 0f 58 05 00
	00 00 00	 addss	 xmm0, DWORD PTR __real@43340000
; File C:\Program Files (x86)\Windows Kits\10\Include\10.0.18362.0\ucrt\corecrt_math.h

; 691  :             return (float)fmod(_X, _Y);

  00048	0f 5a c0	 cvtps2pd xmm0, xmm0
  0004b	f2 0f 11 45 f8	 movsd	 QWORD PTR tv84[ebp], xmm0
  00050	dd 45 f8	 fld	 QWORD PTR tv84[ebp]
  00053	dd 05 00 00 00
	00		 fld	 QWORD PTR __real@4076800000000000
  00059	e8 00 00 00 00	 call	 __CIfmod
; File D:\Metin2 Server Files\mainline\SRC_2014\Metin2Client\UserInterface\PythonCharacterModule.cpp

; 738  : 	fRotation = fmod(fRotation + 180.0f, 360.0f);

  0005e	d9 5d fc	 fstp	 DWORD PTR _fRotation$[ebp]

; 739  : 
; 740  : 	pCharacterInstance->SetRotation(fRotation);

  00061	f3 0f 10 45 fc	 movss	 xmm0, DWORD PTR _fRotation$[ebp]
  00066	51		 push	 ecx
  00067	8b ce		 mov	 ecx, esi
  00069	f3 0f 11 04 24	 movss	 DWORD PTR [esp], xmm0
  0006e	e8 00 00 00 00	 call	 ?SetRotation@CInstanceBase@@QAEXM@Z ; CInstanceBase::SetRotation
$LN10@chrSetRota:

; 741  : 
; 742  : 	return Py_BuildNone();

  00073	e8 00 00 00 00	 call	 ?Py_BuildNone@@YAPAU_object@@XZ ; Py_BuildNone
  00078	5e		 pop	 esi

; 743  : }

  00079	8b e5		 mov	 esp, ebp
  0007b	5d		 pop	 ebp
  0007c	c3		 ret	 0
?chrSetRotation@@YAPAU_object@@PAU1@0@Z ENDP		; chrSetRotation
_TEXT	ENDS
; Function compile flags: /Ogtp
; File D:\Metin2 Server Files\mainline\SRC_2014\Metin2Client\UserInterface\PythonCharacterModule.cpp
;	COMDAT ?chrGetPixelPosition@@YAPAU_object@@PAU1@0@Z
_TEXT	SEGMENT
_iVirtualID$ = -20					; size = 4
_PixelPosition$ = -16					; size = 12
__$ArrayPad$ = -4					; size = 4
_poSelf$ = 8						; size = 4
_poArgs$ = 12						; size = 4
?chrGetPixelPosition@@YAPAU_object@@PAU1@0@Z PROC	; chrGetPixelPosition, COMDAT

; 711  : {

  00000	55		 push	 ebp
  00001	8b ec		 mov	 ebp, esp
  00003	83 ec 14	 sub	 esp, 20			; 00000014H
  00006	a1 00 00 00 00	 mov	 eax, DWORD PTR ___security_cookie
  0000b	33 c5		 xor	 eax, ebp
  0000d	89 45 fc	 mov	 DWORD PTR __$ArrayPad$[ebp], eax
  00010	8b 45 0c	 mov	 eax, DWORD PTR _poArgs$[ebp]

; 712  : 	int iVirtualID;
; 713  : 	if (!PyTuple_GetInteger(poArgs, 0, &iVirtualID))

  00013	8d 4d ec	 lea	 ecx, DWORD PTR _iVirtualID$[ebp]
  00016	51		 push	 ecx
  00017	6a 00		 push	 0
  00019	50		 push	 eax
  0001a	e8 00 00 00 00	 call	 ?PyTuple_GetInteger@@YA_NPAU_object@@HPAH@Z ; PyTuple_GetInteger
  0001f	83 c4 0c	 add	 esp, 12			; 0000000cH
  00022	84 c0		 test	 al, al
  00024	75 18		 jne	 SHORT $LN2@chrGetPixe
$LN5@chrGetPixe:

; 725  : }

  00026	6a 00		 push	 0
  00028	e8 00 00 00 00	 call	 ?Py_BuildException@@YAPAU_object@@PBDZZ ; Py_BuildException
  0002d	83 c4 04	 add	 esp, 4
  00030	8b 4d fc	 mov	 ecx, DWORD PTR __$ArrayPad$[ebp]
  00033	33 cd		 xor	 ecx, ebp
  00035	e8 00 00 00 00	 call	 @__security_check_cookie@4
  0003a	8b e5		 mov	 esp, ebp
  0003c	5d		 pop	 ebp
  0003d	c3		 ret	 0
$LN2@chrGetPixe:

; 714  : 		return Py_BuildException();
; 715  : 
; 716  : 	CInstanceBase * pkInst = CPythonCharacterManager::Instance().GetInstancePtr(iVirtualID);

  0003e	8b 0d 00 00 00
	00		 mov	 ecx, DWORD PTR ?ms_singleton@?$CSingleton@VCPythonCharacterManager@@@@0PAVCPythonCharacterManager@@A ; CSingleton<CPythonCharacterManager>::ms_singleton
  00044	ff 75 ec	 push	 DWORD PTR _iVirtualID$[ebp]
  00047	83 c1 04	 add	 ecx, 4
  0004a	8b 01		 mov	 eax, DWORD PTR [ecx]
  0004c	ff 50 08	 call	 DWORD PTR [eax+8]

; 717  : 
; 718  : 	if (!pkInst)

  0004f	85 c0		 test	 eax, eax
  00051	74 d3		 je	 SHORT $LN5@chrGetPixe

; 719  : 		return Py_BuildException();
; 720  : 
; 721  : 	TPixelPosition PixelPosition;
; 722  : 	pkInst->NEW_GetPixelPosition(&PixelPosition);

  00053	8d 4d f0	 lea	 ecx, DWORD PTR _PixelPosition$[ebp]
  00056	51		 push	 ecx
  00057	8b c8		 mov	 ecx, eax
  00059	e8 00 00 00 00	 call	 ?NEW_GetPixelPosition@CInstanceBase@@QAEXPAUD3DXVECTOR3@@@Z ; CInstanceBase::NEW_GetPixelPosition
  0005e	f3 0f 10 45 f8	 movss	 xmm0, DWORD PTR _PixelPosition$[ebp+8]

; 723  : 
; 724  : 	return Py_BuildValue("fff", PixelPosition.x, PixelPosition.y, PixelPosition.z);

  00063	83 ec 18	 sub	 esp, 24			; 00000018H
  00066	0f 5a c0	 cvtps2pd xmm0, xmm0
  00069	f2 0f 11 44 24
	10		 movsd	 QWORD PTR [esp+16], xmm0
  0006f	f3 0f 10 45 f4	 movss	 xmm0, DWORD PTR _PixelPosition$[ebp+4]
  00074	0f 5a c0	 cvtps2pd xmm0, xmm0
  00077	f2 0f 11 44 24
	08		 movsd	 QWORD PTR [esp+8], xmm0
  0007d	f3 0f 10 45 f0	 movss	 xmm0, DWORD PTR _PixelPosition$[ebp]
  00082	0f 5a c0	 cvtps2pd xmm0, xmm0
  00085	f2 0f 11 04 24	 movsd	 QWORD PTR [esp], xmm0
  0008a	68 00 00 00 00	 push	 OFFSET ??_C@_03LPALPDIP@fff@
  0008f	ff 15 00 00 00
	00		 call	 DWORD PTR __imp__Py_BuildValue

; 725  : }

  00095	8b 4d fc	 mov	 ecx, DWORD PTR __$ArrayPad$[ebp]
  00098	83 c4 1c	 add	 esp, 28			; 0000001cH
  0009b	33 cd		 xor	 ecx, ebp
  0009d	e8 00 00 00 00	 call	 @__security_check_cookie@4
  000a2	8b e5		 mov	 esp, ebp
  000a4	5d		 pop	 ebp
  000a5	c3		 ret	 0
?chrGetPixelPosition@@YAPAU_object@@PAU1@0@Z ENDP	; chrGetPixelPosition
_TEXT	ENDS
; Function compile flags: /Ogtp
; File D:\Metin2 Server Files\mainline\SRC_2014\Metin2Client\UserInterface\PythonCharacterModule.cpp
;	COMDAT ?chrSetDirection@@YAPAU_object@@PAU1@0@Z
_TEXT	SEGMENT
_iDirection$ = -4					; size = 4
_poSelf$ = 8						; size = 4
_poArgs$ = 12						; size = 4
?chrSetDirection@@YAPAU_object@@PAU1@0@Z PROC		; chrSetDirection, COMDAT

; 700  : {

  00000	55		 push	 ebp
  00001	8b ec		 mov	 ebp, esp
  00003	51		 push	 ecx

; 701  : 	int iDirection;
; 702  : 	if (!PyTuple_GetInteger(poArgs, 0, &iDirection))

  00004	8d 45 fc	 lea	 eax, DWORD PTR _iDirection$[ebp]
  00007	50		 push	 eax
  00008	6a 00		 push	 0
  0000a	ff 75 0c	 push	 DWORD PTR _poArgs$[ebp]
  0000d	e8 00 00 00 00	 call	 ?PyTuple_GetInteger@@YA_NPAU_object@@HPAH@Z ; PyTuple_GetInteger
  00012	83 c4 0c	 add	 esp, 12			; 0000000cH
  00015	84 c0		 test	 al, al
  00017	75 0e		 jne	 SHORT $LN2@chrSetDire

; 703  : 		return Py_BuildException();

  00019	6a 00		 push	 0
  0001b	e8 00 00 00 00	 call	 ?Py_BuildException@@YAPAU_object@@PBDZZ ; Py_BuildException
  00020	83 c4 04	 add	 esp, 4

; 708  : }

  00023	8b e5		 mov	 esp, ebp
  00025	5d		 pop	 ebp
  00026	c3		 ret	 0
$LN2@chrSetDire:

; 704  : 
; 705  : 	CInstanceBase * pkInst = CPythonCharacterManager::Instance().GetSelectedInstancePtr();

  00027	8b 0d 00 00 00
	00		 mov	 ecx, DWORD PTR ?ms_singleton@?$CSingleton@VCPythonCharacterManager@@@@0PAVCPythonCharacterManager@@A ; CSingleton<CPythonCharacterManager>::ms_singleton
  0002d	e8 00 00 00 00	 call	 ?GetSelectedInstancePtr@CPythonCharacterManager@@QAEPAVCInstanceBase@@XZ ; CPythonCharacterManager::GetSelectedInstancePtr

; 706  : 	pkInst->SetDirection(iDirection);

  00032	ff 75 fc	 push	 DWORD PTR _iDirection$[ebp]
  00035	8b c8		 mov	 ecx, eax
  00037	e8 00 00 00 00	 call	 ?SetDirection@CInstanceBase@@QAEXH@Z ; CInstanceBase::SetDirection

; 707  : 	return Py_BuildNone();

  0003c	e8 00 00 00 00	 call	 ?Py_BuildNone@@YAPAU_object@@XZ ; Py_BuildNone

; 708  : }

  00041	8b e5		 mov	 esp, ebp
  00043	5d		 pop	 ebp
  00044	c3		 ret	 0
?chrSetDirection@@YAPAU_object@@PAU1@0@Z ENDP		; chrSetDirection
_TEXT	ENDS
; Function compile flags: /Ogtp
; File D:\Metin2 Server Files\mainline\SRC_2014\Metin2Client\UserInterface\PythonCharacterModule.cpp
; File D:\Metin2 Server Files\mainline\SRC_2014\M2Data\include\d3dx8math.inl
; File D:\Metin2 Server Files\mainline\SRC_2014\Metin2Client\UserInterface\PythonCharacterModule.cpp
; File D:\Metin2 Server Files\mainline\SRC_2014\M2Data\include\d3dx8math.inl
; File D:\Metin2 Server Files\mainline\SRC_2014\Metin2Client\UserInterface\PythonCharacterModule.cpp
; File D:\Metin2 Server Files\mainline\SRC_2014\M2Data\include\d3dx8math.inl
; File D:\Metin2 Server Files\mainline\SRC_2014\Metin2Client\UserInterface\PythonCharacterModule.cpp
;	COMDAT ?chrSetPixelPosition@@YAPAU_object@@PAU1@0@Z
_TEXT	SEGMENT
_iZ$ = -28						; size = 4
_iX$ = -24						; size = 4
_iY$ = -20						; size = 4
$T1 = -16						; size = 12
__$ArrayPad$ = -4					; size = 4
_poSelf$ = 8						; size = 4
_poArgs$ = 12						; size = 4
?chrSetPixelPosition@@YAPAU_object@@PAU1@0@Z PROC	; chrSetPixelPosition, COMDAT

; 675  : {

  00000	55		 push	 ebp
  00001	8b ec		 mov	 ebp, esp
  00003	83 ec 1c	 sub	 esp, 28			; 0000001cH
  00006	a1 00 00 00 00	 mov	 eax, DWORD PTR ___security_cookie
  0000b	33 c5		 xor	 eax, ebp
  0000d	89 45 fc	 mov	 DWORD PTR __$ArrayPad$[ebp], eax
  00010	56		 push	 esi
  00011	8b 75 0c	 mov	 esi, DWORD PTR _poArgs$[ebp]

; 676  : 	int iX;
; 677  : 	if (!PyTuple_GetInteger(poArgs, 0, &iX))

  00014	8d 45 e8	 lea	 eax, DWORD PTR _iX$[ebp]
  00017	50		 push	 eax
  00018	6a 00		 push	 0
  0001a	56		 push	 esi
  0001b	e8 00 00 00 00	 call	 ?PyTuple_GetInteger@@YA_NPAU_object@@HPAH@Z ; PyTuple_GetInteger
  00020	83 c4 0c	 add	 esp, 12			; 0000000cH
  00023	84 c0		 test	 al, al
  00025	75 19		 jne	 SHORT $LN2@chrSetPixe
$LN11@chrSetPixe:

; 697  : }

  00027	6a 00		 push	 0
  00029	e8 00 00 00 00	 call	 ?Py_BuildException@@YAPAU_object@@PBDZZ ; Py_BuildException
  0002e	83 c4 04	 add	 esp, 4
  00031	5e		 pop	 esi
  00032	8b 4d fc	 mov	 ecx, DWORD PTR __$ArrayPad$[ebp]
  00035	33 cd		 xor	 ecx, ebp
  00037	e8 00 00 00 00	 call	 @__security_check_cookie@4
  0003c	8b e5		 mov	 esp, ebp
  0003e	5d		 pop	 ebp
  0003f	c3		 ret	 0
$LN2@chrSetPixe:

; 678  : 		return Py_BuildException();
; 679  : 	int iY;
; 680  : 	if (!PyTuple_GetInteger(poArgs, 1, &iY))

  00040	8d 45 ec	 lea	 eax, DWORD PTR _iY$[ebp]
  00043	50		 push	 eax
  00044	6a 01		 push	 1
  00046	56		 push	 esi
  00047	e8 00 00 00 00	 call	 ?PyTuple_GetInteger@@YA_NPAU_object@@HPAH@Z ; PyTuple_GetInteger
  0004c	83 c4 0c	 add	 esp, 12			; 0000000cH
  0004f	84 c0		 test	 al, al
  00051	74 d4		 je	 SHORT $LN11@chrSetPixe

; 681  : 		return Py_BuildException();
; 682  : 
; 683  : 	CInstanceBase * pkInst = CPythonCharacterManager::Instance().GetSelectedInstancePtr();

  00053	8b 0d 00 00 00
	00		 mov	 ecx, DWORD PTR ?ms_singleton@?$CSingleton@VCPythonCharacterManager@@@@0PAVCPythonCharacterManager@@A ; CSingleton<CPythonCharacterManager>::ms_singleton
  00059	57		 push	 edi
  0005a	e8 00 00 00 00	 call	 ?GetSelectedInstancePtr@CPythonCharacterManager@@QAEPAVCInstanceBase@@XZ ; CPythonCharacterManager::GetSelectedInstancePtr
  0005f	8b f8		 mov	 edi, eax

; 684  : 	if (!pkInst)

  00061	85 ff		 test	 edi, edi
  00063	74 6a		 je	 SHORT $LN6@chrSetPixe

; 685  : 		return Py_BuildNone();
; 686  : 
; 687  : 	int iZ;
; 688  : 	if (PyTuple_GetInteger(poArgs, 2, &iZ))

  00065	8d 45 e4	 lea	 eax, DWORD PTR _iZ$[ebp]
  00068	50		 push	 eax
  00069	6a 02		 push	 2
  0006b	56		 push	 esi
  0006c	e8 00 00 00 00	 call	 ?PyTuple_GetInteger@@YA_NPAU_object@@HPAH@Z ; PyTuple_GetInteger
  00071	83 c4 0c	 add	 esp, 12			; 0000000cH
  00074	8b cf		 mov	 ecx, edi
  00076	84 c0		 test	 al, al
  00078	74 32		 je	 SHORT $LN5@chrSetPixe

; 690  : 		pkInst->NEW_SetPixelPosition(TPixelPosition(iX, iY, iZ));

  0007a	66 0f 6e 45 e8	 movd	 xmm0, DWORD PTR _iX$[ebp]
  0007f	8d 45 f0	 lea	 eax, DWORD PTR $T1[ebp]
  00082	0f 5b c0	 cvtdq2ps xmm0, xmm0
  00085	50		 push	 eax
; File D:\Metin2 Server Files\mainline\SRC_2014\M2Data\include\d3dx8math.inl

; 180  :     x = fx;

  00086	f3 0f 11 45 f0	 movss	 DWORD PTR $T1[ebp], xmm0
  0008b	66 0f 6e 45 ec	 movd	 xmm0, DWORD PTR _iY$[ebp]
; File D:\Metin2 Server Files\mainline\SRC_2014\Metin2Client\UserInterface\PythonCharacterModule.cpp

; 690  : 		pkInst->NEW_SetPixelPosition(TPixelPosition(iX, iY, iZ));

  00090	0f 5b c0	 cvtdq2ps xmm0, xmm0
; File D:\Metin2 Server Files\mainline\SRC_2014\M2Data\include\d3dx8math.inl

; 181  :     y = fy;

  00093	f3 0f 11 45 f4	 movss	 DWORD PTR $T1[ebp+4], xmm0
  00098	66 0f 6e 45 e4	 movd	 xmm0, DWORD PTR _iZ$[ebp]
; File D:\Metin2 Server Files\mainline\SRC_2014\Metin2Client\UserInterface\PythonCharacterModule.cpp

; 690  : 		pkInst->NEW_SetPixelPosition(TPixelPosition(iX, iY, iZ));

  0009d	0f 5b c0	 cvtdq2ps xmm0, xmm0
; File D:\Metin2 Server Files\mainline\SRC_2014\M2Data\include\d3dx8math.inl

; 182  :     z = fz;

  000a0	f3 0f 11 45 f8	 movss	 DWORD PTR $T1[ebp+8], xmm0
; File D:\Metin2 Server Files\mainline\SRC_2014\Metin2Client\UserInterface\PythonCharacterModule.cpp

; 690  : 		pkInst->NEW_SetPixelPosition(TPixelPosition(iX, iY, iZ));

  000a5	e8 00 00 00 00	 call	 ?NEW_SetPixelPosition@CInstanceBase@@QAEXABUD3DXVECTOR3@@@Z ; CInstanceBase::NEW_SetPixelPosition

; 691  : 	}

  000aa	eb 23		 jmp	 SHORT $LN6@chrSetPixe
$LN5@chrSetPixe:
  000ac	66 0f 6e 45 ec	 movd	 xmm0, DWORD PTR _iY$[ebp]

; 692  : 	else
; 693  : 	{
; 694  : 		pkInst->SCRIPT_SetPixelPosition(iX, iY);

  000b1	83 ec 08	 sub	 esp, 8
  000b4	0f 5b c0	 cvtdq2ps xmm0, xmm0
  000b7	f3 0f 11 44 24
	04		 movss	 DWORD PTR [esp+4], xmm0
  000bd	66 0f 6e 45 e8	 movd	 xmm0, DWORD PTR _iX$[ebp]
  000c2	0f 5b c0	 cvtdq2ps xmm0, xmm0
  000c5	f3 0f 11 04 24	 movss	 DWORD PTR [esp], xmm0
  000ca	e8 00 00 00 00	 call	 ?SCRIPT_SetPixelPosition@CInstanceBase@@QAEXMM@Z ; CInstanceBase::SCRIPT_SetPixelPosition
$LN6@chrSetPixe:

; 695  : 	}
; 696  : 	return Py_BuildNone();

  000cf	e8 00 00 00 00	 call	 ?Py_BuildNone@@YAPAU_object@@XZ ; Py_BuildNone

; 697  : }

  000d4	8b 4d fc	 mov	 ecx, DWORD PTR __$ArrayPad$[ebp]
  000d7	5f		 pop	 edi
  000d8	33 cd		 xor	 ecx, ebp
  000da	5e		 pop	 esi
  000db	e8 00 00 00 00	 call	 @__security_check_cookie@4
  000e0	8b e5		 mov	 esp, ebp
  000e2	5d		 pop	 ebp
  000e3	c3		 ret	 0
?chrSetPixelPosition@@YAPAU_object@@PAU1@0@Z ENDP	; chrSetPixelPosition
_TEXT	ENDS
; Function compile flags: /Ogtp
; File D:\Metin2 Server Files\mainline\SRC_2014\Metin2Client\UserInterface\PythonCharacterModule.cpp
;	COMDAT ?chrPushLoopMotion@@YAPAU_object@@PAU1@0@Z
_TEXT	SEGMENT
_iMotionIndex$ = -8					; size = 4
_fBlendTime$ = -4					; size = 4
_poSelf$ = 8						; size = 4
_poArgs$ = 12						; size = 4
?chrPushLoopMotion@@YAPAU_object@@PAU1@0@Z PROC		; chrPushLoopMotion, COMDAT

; 655  : {

  00000	55		 push	 ebp
  00001	8b ec		 mov	 ebp, esp
  00003	83 ec 08	 sub	 esp, 8

; 656  : 	int iMotionIndex;
; 657  : 	if (!PyTuple_GetInteger(poArgs, 0, &iMotionIndex))

  00006	8d 45 f8	 lea	 eax, DWORD PTR _iMotionIndex$[ebp]
  00009	50		 push	 eax
  0000a	6a 00		 push	 0
  0000c	ff 75 0c	 push	 DWORD PTR _poArgs$[ebp]
  0000f	e8 00 00 00 00	 call	 ?PyTuple_GetInteger@@YA_NPAU_object@@HPAH@Z ; PyTuple_GetInteger
  00014	83 c4 0c	 add	 esp, 12			; 0000000cH
  00017	84 c0		 test	 al, al
  00019	75 0e		 jne	 SHORT $LN2@chrPushLoo

; 658  : 		return Py_BuildException();

  0001b	6a 00		 push	 0
  0001d	e8 00 00 00 00	 call	 ?Py_BuildException@@YAPAU_object@@PBDZZ ; Py_BuildException
  00022	83 c4 04	 add	 esp, 4

; 670  : 
; 671  : 	return Py_BuildNone();
; 672  : }

  00025	8b e5		 mov	 esp, ebp
  00027	5d		 pop	 ebp
  00028	c3		 ret	 0
$LN2@chrPushLoo:

; 659  : 
; 660  : 	float fBlendTime;
; 661  : 	if (!PyTuple_GetFloat(poArgs, 1, &fBlendTime))

  00029	8d 45 fc	 lea	 eax, DWORD PTR _fBlendTime$[ebp]
  0002c	50		 push	 eax
  0002d	6a 01		 push	 1
  0002f	ff 75 0c	 push	 DWORD PTR _poArgs$[ebp]
  00032	e8 00 00 00 00	 call	 ?PyTuple_GetFloat@@YA_NPAU_object@@HPAM@Z ; PyTuple_GetFloat
  00037	83 c4 0c	 add	 esp, 12			; 0000000cH
  0003a	84 c0		 test	 al, al
  0003c	75 07		 jne	 SHORT $LN3@chrPushLoo

; 662  : 	{
; 663  : 		fBlendTime = 0.1f;

  0003e	c7 45 fc cd cc
	cc 3d		 mov	 DWORD PTR _fBlendTime$[ebp], 1036831949 ; 3dcccccdH
$LN3@chrPushLoo:

; 664  : 	}
; 665  : 
; 666  : 	CInstanceBase * pkInst = CPythonCharacterManager::Instance().GetSelectedInstancePtr();

  00045	8b 0d 00 00 00
	00		 mov	 ecx, DWORD PTR ?ms_singleton@?$CSingleton@VCPythonCharacterManager@@@@0PAVCPythonCharacterManager@@A ; CSingleton<CPythonCharacterManager>::ms_singleton
  0004b	e8 00 00 00 00	 call	 ?GetSelectedInstancePtr@CPythonCharacterManager@@QAEPAVCInstanceBase@@XZ ; CPythonCharacterManager::GetSelectedInstancePtr

; 667  : 	if (!pkInst)

  00050	85 c0		 test	 eax, eax
  00052	74 1f		 je	 SHORT $LN6@chrPushLoo

; 668  : 		return Py_BuildNone();
; 669  : 	pkInst->PushLoopMotion(WORD(iMotionIndex), fBlendTime);

  00054	f3 0f 10 45 fc	 movss	 xmm0, DWORD PTR _fBlendTime$[ebp]
  00059	83 ec 08	 sub	 esp, 8
  0005c	8b c8		 mov	 ecx, eax
  0005e	c7 44 24 04 00
	00 80 3f	 mov	 DWORD PTR [esp+4], 1065353216 ; 3f800000H
  00066	f3 0f 11 04 24	 movss	 DWORD PTR [esp], xmm0
  0006b	ff 75 f8	 push	 DWORD PTR _iMotionIndex$[ebp]
  0006e	e8 00 00 00 00	 call	 ?PushLoopMotion@CInstanceBase@@QAEXGMM@Z ; CInstanceBase::PushLoopMotion
$LN6@chrPushLoo:

; 670  : 
; 671  : 	return Py_BuildNone();
; 672  : }

  00073	e8 00 00 00 00	 call	 ?Py_BuildNone@@YAPAU_object@@XZ ; Py_BuildNone
  00078	8b e5		 mov	 esp, ebp
  0007a	5d		 pop	 ebp
  0007b	c3		 ret	 0
?chrPushLoopMotion@@YAPAU_object@@PAU1@0@Z ENDP		; chrPushLoopMotion
_TEXT	ENDS
; Function compile flags: /Ogtp
; File D:\Metin2 Server Files\mainline\SRC_2014\Metin2Client\UserInterface\PythonCharacterModule.cpp
;	COMDAT ?chrPushOnceMotion@@YAPAU_object@@PAU1@0@Z
_TEXT	SEGMENT
_iMotionIndex$ = -8					; size = 4
_fBlendTime$ = -4					; size = 4
_poSelf$ = 8						; size = 4
_poArgs$ = 12						; size = 4
?chrPushOnceMotion@@YAPAU_object@@PAU1@0@Z PROC		; chrPushOnceMotion, COMDAT

; 635  : {

  00000	55		 push	 ebp
  00001	8b ec		 mov	 ebp, esp
  00003	83 ec 08	 sub	 esp, 8

; 636  : 	int iMotionIndex;
; 637  : 	if (!PyTuple_GetInteger(poArgs, 0, &iMotionIndex))

  00006	8d 45 f8	 lea	 eax, DWORD PTR _iMotionIndex$[ebp]
  00009	50		 push	 eax
  0000a	6a 00		 push	 0
  0000c	ff 75 0c	 push	 DWORD PTR _poArgs$[ebp]
  0000f	e8 00 00 00 00	 call	 ?PyTuple_GetInteger@@YA_NPAU_object@@HPAH@Z ; PyTuple_GetInteger
  00014	83 c4 0c	 add	 esp, 12			; 0000000cH
  00017	84 c0		 test	 al, al
  00019	75 0e		 jne	 SHORT $LN2@chrPushOnc

; 638  : 		return Py_BuildException();

  0001b	6a 00		 push	 0
  0001d	e8 00 00 00 00	 call	 ?Py_BuildException@@YAPAU_object@@PBDZZ ; Py_BuildException
  00022	83 c4 04	 add	 esp, 4

; 650  : 
; 651  : 	return Py_BuildNone();
; 652  : }

  00025	8b e5		 mov	 esp, ebp
  00027	5d		 pop	 ebp
  00028	c3		 ret	 0
$LN2@chrPushOnc:

; 639  : 
; 640  : 	float fBlendTime;
; 641  : 	if (!PyTuple_GetFloat(poArgs, 1, &fBlendTime))

  00029	8d 45 fc	 lea	 eax, DWORD PTR _fBlendTime$[ebp]
  0002c	50		 push	 eax
  0002d	6a 01		 push	 1
  0002f	ff 75 0c	 push	 DWORD PTR _poArgs$[ebp]
  00032	e8 00 00 00 00	 call	 ?PyTuple_GetFloat@@YA_NPAU_object@@HPAM@Z ; PyTuple_GetFloat
  00037	83 c4 0c	 add	 esp, 12			; 0000000cH
  0003a	84 c0		 test	 al, al
  0003c	75 07		 jne	 SHORT $LN3@chrPushOnc

; 642  : 	{
; 643  : 		fBlendTime = 0.1f;

  0003e	c7 45 fc cd cc
	cc 3d		 mov	 DWORD PTR _fBlendTime$[ebp], 1036831949 ; 3dcccccdH
$LN3@chrPushOnc:

; 644  : 	}
; 645  : 
; 646  : 	CInstanceBase * pkInst = CPythonCharacterManager::Instance().GetSelectedInstancePtr();

  00045	8b 0d 00 00 00
	00		 mov	 ecx, DWORD PTR ?ms_singleton@?$CSingleton@VCPythonCharacterManager@@@@0PAVCPythonCharacterManager@@A ; CSingleton<CPythonCharacterManager>::ms_singleton
  0004b	e8 00 00 00 00	 call	 ?GetSelectedInstancePtr@CPythonCharacterManager@@QAEPAVCInstanceBase@@XZ ; CPythonCharacterManager::GetSelectedInstancePtr

; 647  : 	if (!pkInst)

  00050	85 c0		 test	 eax, eax
  00052	74 1f		 je	 SHORT $LN6@chrPushOnc

; 648  : 		return Py_BuildNone();
; 649  : 	pkInst->PushOnceMotion(WORD(iMotionIndex), fBlendTime);

  00054	f3 0f 10 45 fc	 movss	 xmm0, DWORD PTR _fBlendTime$[ebp]
  00059	83 ec 08	 sub	 esp, 8
  0005c	8b c8		 mov	 ecx, eax
  0005e	c7 44 24 04 00
	00 80 3f	 mov	 DWORD PTR [esp+4], 1065353216 ; 3f800000H
  00066	f3 0f 11 04 24	 movss	 DWORD PTR [esp], xmm0
  0006b	ff 75 f8	 push	 DWORD PTR _iMotionIndex$[ebp]
  0006e	e8 00 00 00 00	 call	 ?PushOnceMotion@CInstanceBase@@QAEXGMM@Z ; CInstanceBase::PushOnceMotion
$LN6@chrPushOnc:

; 650  : 
; 651  : 	return Py_BuildNone();
; 652  : }

  00073	e8 00 00 00 00	 call	 ?Py_BuildNone@@YAPAU_object@@XZ ; Py_BuildNone
  00078	8b e5		 mov	 esp, ebp
  0007a	5d		 pop	 ebp
  0007b	c3		 ret	 0
?chrPushOnceMotion@@YAPAU_object@@PAU1@0@Z ENDP		; chrPushOnceMotion
_TEXT	ENDS
; Function compile flags: /Ogtp
; File D:\Metin2 Server Files\mainline\SRC_2014\Metin2Client\UserInterface\PythonCharacterModule.cpp
;	COMDAT ?chrBlendLoopMotion@@YAPAU_object@@PAU1@0@Z
_TEXT	SEGMENT
_iMotionIndex$ = -8					; size = 4
_fBlendTime$ = -4					; size = 4
_poSelf$ = 8						; size = 4
_poArgs$ = 12						; size = 4
?chrBlendLoopMotion@@YAPAU_object@@PAU1@0@Z PROC	; chrBlendLoopMotion, COMDAT

; 618  : {

  00000	55		 push	 ebp
  00001	8b ec		 mov	 ebp, esp
  00003	83 ec 08	 sub	 esp, 8

; 619  : 	int iMotionIndex;
; 620  : 	if (!PyTuple_GetInteger(poArgs, 0, &iMotionIndex))

  00006	8d 45 f8	 lea	 eax, DWORD PTR _iMotionIndex$[ebp]
  00009	50		 push	 eax
  0000a	6a 00		 push	 0
  0000c	ff 75 0c	 push	 DWORD PTR _poArgs$[ebp]
  0000f	e8 00 00 00 00	 call	 ?PyTuple_GetInteger@@YA_NPAU_object@@HPAH@Z ; PyTuple_GetInteger
  00014	83 c4 0c	 add	 esp, 12			; 0000000cH
  00017	84 c0		 test	 al, al
  00019	75 0e		 jne	 SHORT $LN2@chrBlendLo
$LN7@chrBlendLo:

; 630  : 
; 631  : 	return Py_BuildNone();
; 632  : }

  0001b	6a 00		 push	 0
  0001d	e8 00 00 00 00	 call	 ?Py_BuildException@@YAPAU_object@@PBDZZ ; Py_BuildException
  00022	83 c4 04	 add	 esp, 4
  00025	8b e5		 mov	 esp, ebp
  00027	5d		 pop	 ebp
  00028	c3		 ret	 0
$LN2@chrBlendLo:

; 621  : 		return Py_BuildException();
; 622  : 	float fBlendTime;
; 623  : 	if (!PyTuple_GetFloat(poArgs, 1, &fBlendTime))

  00029	8d 45 fc	 lea	 eax, DWORD PTR _fBlendTime$[ebp]
  0002c	50		 push	 eax
  0002d	6a 01		 push	 1
  0002f	ff 75 0c	 push	 DWORD PTR _poArgs$[ebp]
  00032	e8 00 00 00 00	 call	 ?PyTuple_GetFloat@@YA_NPAU_object@@HPAM@Z ; PyTuple_GetFloat
  00037	83 c4 0c	 add	 esp, 12			; 0000000cH
  0003a	84 c0		 test	 al, al
  0003c	74 dd		 je	 SHORT $LN7@chrBlendLo

; 624  : 		return Py_BuildException();
; 625  : 
; 626  : 	CInstanceBase * pkInst = CPythonCharacterManager::Instance().GetSelectedInstancePtr();

  0003e	8b 0d 00 00 00
	00		 mov	 ecx, DWORD PTR ?ms_singleton@?$CSingleton@VCPythonCharacterManager@@@@0PAVCPythonCharacterManager@@A ; CSingleton<CPythonCharacterManager>::ms_singleton
  00044	e8 00 00 00 00	 call	 ?GetSelectedInstancePtr@CPythonCharacterManager@@QAEPAVCInstanceBase@@XZ ; CPythonCharacterManager::GetSelectedInstancePtr

; 627  : 	if (!pkInst)

  00049	85 c0		 test	 eax, eax
  0004b	74 1f		 je	 SHORT $LN6@chrBlendLo

; 628  : 		return Py_BuildNone();
; 629  : 	pkInst->SetLoopMotion(WORD(iMotionIndex), fBlendTime);

  0004d	f3 0f 10 45 fc	 movss	 xmm0, DWORD PTR _fBlendTime$[ebp]
  00052	83 ec 08	 sub	 esp, 8
  00055	8b c8		 mov	 ecx, eax
  00057	c7 44 24 04 00
	00 80 3f	 mov	 DWORD PTR [esp+4], 1065353216 ; 3f800000H
  0005f	f3 0f 11 04 24	 movss	 DWORD PTR [esp], xmm0
  00064	ff 75 f8	 push	 DWORD PTR _iMotionIndex$[ebp]
  00067	e8 00 00 00 00	 call	 ?SetLoopMotion@CInstanceBase@@QAEXGMM@Z ; CInstanceBase::SetLoopMotion
$LN6@chrBlendLo:

; 630  : 
; 631  : 	return Py_BuildNone();
; 632  : }

  0006c	e8 00 00 00 00	 call	 ?Py_BuildNone@@YAPAU_object@@XZ ; Py_BuildNone
  00071	8b e5		 mov	 esp, ebp
  00073	5d		 pop	 ebp
  00074	c3		 ret	 0
?chrBlendLoopMotion@@YAPAU_object@@PAU1@0@Z ENDP	; chrBlendLoopMotion
_TEXT	ENDS
; Function compile flags: /Ogtp
; File D:\Metin2 Server Files\mainline\SRC_2014\Metin2Client\UserInterface\PythonCharacterModule.cpp
;	COMDAT ?chrSetLoopMotion@@YAPAU_object@@PAU1@0@Z
_TEXT	SEGMENT
_iMotionIndex$ = -4					; size = 4
_poSelf$ = 8						; size = 4
_poArgs$ = 12						; size = 4
?chrSetLoopMotion@@YAPAU_object@@PAU1@0@Z PROC		; chrSetLoopMotion, COMDAT

; 604  : {

  00000	55		 push	 ebp
  00001	8b ec		 mov	 ebp, esp
  00003	51		 push	 ecx

; 605  : 	int iMotionIndex;
; 606  : 	if (!PyTuple_GetInteger(poArgs, 0, &iMotionIndex))

  00004	8d 45 fc	 lea	 eax, DWORD PTR _iMotionIndex$[ebp]
  00007	50		 push	 eax
  00008	6a 00		 push	 0
  0000a	ff 75 0c	 push	 DWORD PTR _poArgs$[ebp]
  0000d	e8 00 00 00 00	 call	 ?PyTuple_GetInteger@@YA_NPAU_object@@HPAH@Z ; PyTuple_GetInteger
  00012	83 c4 0c	 add	 esp, 12			; 0000000cH
  00015	84 c0		 test	 al, al
  00017	75 0e		 jne	 SHORT $LN2@chrSetLoop

; 607  : 		return Py_BuildException();

  00019	6a 00		 push	 0
  0001b	e8 00 00 00 00	 call	 ?Py_BuildException@@YAPAU_object@@PBDZZ ; Py_BuildException
  00020	83 c4 04	 add	 esp, 4

; 613  : 
; 614  : 	return Py_BuildNone();
; 615  : }

  00023	8b e5		 mov	 esp, ebp
  00025	5d		 pop	 ebp
  00026	c3		 ret	 0
$LN2@chrSetLoop:

; 608  : 
; 609  : 	CInstanceBase * pkInst = CPythonCharacterManager::Instance().GetSelectedInstancePtr();

  00027	8b 0d 00 00 00
	00		 mov	 ecx, DWORD PTR ?ms_singleton@?$CSingleton@VCPythonCharacterManager@@@@0PAVCPythonCharacterManager@@A ; CSingleton<CPythonCharacterManager>::ms_singleton
  0002d	e8 00 00 00 00	 call	 ?GetSelectedInstancePtr@CPythonCharacterManager@@QAEPAVCInstanceBase@@XZ ; CPythonCharacterManager::GetSelectedInstancePtr

; 610  : 	if (!pkInst)

  00032	85 c0		 test	 eax, eax
  00034	74 1c		 je	 SHORT $LN5@chrSetLoop

; 611  : 		return Py_BuildNone();
; 612  : 	pkInst->SetLoopMotion(WORD(iMotionIndex));

  00036	83 ec 08	 sub	 esp, 8
  00039	8b c8		 mov	 ecx, eax
  0003b	c7 44 24 04 00
	00 80 3f	 mov	 DWORD PTR [esp+4], 1065353216 ; 3f800000H
  00043	c7 04 24 cd cc
	cc 3d		 mov	 DWORD PTR [esp], 1036831949 ; 3dcccccdH
  0004a	ff 75 fc	 push	 DWORD PTR _iMotionIndex$[ebp]
  0004d	e8 00 00 00 00	 call	 ?SetLoopMotion@CInstanceBase@@QAEXGMM@Z ; CInstanceBase::SetLoopMotion
$LN5@chrSetLoop:

; 613  : 
; 614  : 	return Py_BuildNone();
; 615  : }

  00052	e8 00 00 00 00	 call	 ?Py_BuildNone@@YAPAU_object@@XZ ; Py_BuildNone
  00057	8b e5		 mov	 esp, ebp
  00059	5d		 pop	 ebp
  0005a	c3		 ret	 0
?chrSetLoopMotion@@YAPAU_object@@PAU1@0@Z ENDP		; chrSetLoopMotion
_TEXT	ENDS
; Function compile flags: /Ogtp
; File D:\Metin2 Server Files\mainline\SRC_2014\Metin2Client\UserInterface\PythonCharacterModule.cpp
;	COMDAT ?chrSetMotionMode@@YAPAU_object@@PAU1@0@Z
_TEXT	SEGMENT
_iMotionMode$ = -4					; size = 4
_poSelf$ = 8						; size = 4
_poArgs$ = 12						; size = 4
?chrSetMotionMode@@YAPAU_object@@PAU1@0@Z PROC		; chrSetMotionMode, COMDAT

; 590  : {

  00000	55		 push	 ebp
  00001	8b ec		 mov	 ebp, esp
  00003	51		 push	 ecx

; 591  : 	int iMotionMode;
; 592  : 	if (!PyTuple_GetInteger(poArgs, 0, &iMotionMode))

  00004	8d 45 fc	 lea	 eax, DWORD PTR _iMotionMode$[ebp]
  00007	50		 push	 eax
  00008	6a 00		 push	 0
  0000a	ff 75 0c	 push	 DWORD PTR _poArgs$[ebp]
  0000d	e8 00 00 00 00	 call	 ?PyTuple_GetInteger@@YA_NPAU_object@@HPAH@Z ; PyTuple_GetInteger
  00012	83 c4 0c	 add	 esp, 12			; 0000000cH
  00015	84 c0		 test	 al, al
  00017	75 0e		 jne	 SHORT $LN2@chrSetMoti

; 593  : 		return Py_BuildException();

  00019	6a 00		 push	 0
  0001b	e8 00 00 00 00	 call	 ?Py_BuildException@@YAPAU_object@@PBDZZ ; Py_BuildException
  00020	83 c4 04	 add	 esp, 4

; 600  : 	return Py_BuildNone();
; 601  : }

  00023	8b e5		 mov	 esp, ebp
  00025	5d		 pop	 ebp
  00026	c3		 ret	 0
$LN2@chrSetMoti:

; 594  : 
; 595  : 	CInstanceBase * pkInst = CPythonCharacterManager::Instance().GetSelectedInstancePtr();

  00027	8b 0d 00 00 00
	00		 mov	 ecx, DWORD PTR ?ms_singleton@?$CSingleton@VCPythonCharacterManager@@@@0PAVCPythonCharacterManager@@A ; CSingleton<CPythonCharacterManager>::ms_singleton
  0002d	e8 00 00 00 00	 call	 ?GetSelectedInstancePtr@CPythonCharacterManager@@QAEPAVCInstanceBase@@XZ ; CPythonCharacterManager::GetSelectedInstancePtr

; 596  : 	if (!pkInst)

  00032	85 c0		 test	 eax, eax
  00034	74 0a		 je	 SHORT $LN5@chrSetMoti

; 597  : 		return Py_BuildNone();
; 598  : 
; 599  : 	pkInst->SetMotionMode(iMotionMode);

  00036	ff 75 fc	 push	 DWORD PTR _iMotionMode$[ebp]
  00039	8b c8		 mov	 ecx, eax
  0003b	e8 00 00 00 00	 call	 ?SetMotionMode@CInstanceBase@@QAEXH@Z ; CInstanceBase::SetMotionMode
$LN5@chrSetMoti:

; 600  : 	return Py_BuildNone();
; 601  : }

  00040	e8 00 00 00 00	 call	 ?Py_BuildNone@@YAPAU_object@@XZ ; Py_BuildNone
  00045	8b e5		 mov	 esp, ebp
  00047	5d		 pop	 ebp
  00048	c3		 ret	 0
?chrSetMotionMode@@YAPAU_object@@PAU1@0@Z ENDP		; chrSetMotionMode
_TEXT	ENDS
; Function compile flags: /Ogtp
; File D:\Metin2 Server Files\mainline\SRC_2014\Metin2Client\UserInterface\PythonCharacterModule.cpp
;	COMDAT ?chrLookAt@@YAPAU_object@@PAU1@0@Z
_TEXT	SEGMENT
_iCellY$ = -8						; size = 4
_iCellX$ = -4						; size = 4
_poSelf$ = 8						; size = 4
_poArgs$ = 12						; size = 4
?chrLookAt@@YAPAU_object@@PAU1@0@Z PROC			; chrLookAt, COMDAT

; 573  : {

  00000	55		 push	 ebp
  00001	8b ec		 mov	 ebp, esp
  00003	83 ec 08	 sub	 esp, 8

; 574  : 	int iCellX;
; 575  : 	if (!PyTuple_GetInteger(poArgs, 0, &iCellX))

  00006	8d 45 fc	 lea	 eax, DWORD PTR _iCellX$[ebp]
  00009	50		 push	 eax
  0000a	6a 00		 push	 0
  0000c	ff 75 0c	 push	 DWORD PTR _poArgs$[ebp]
  0000f	e8 00 00 00 00	 call	 ?PyTuple_GetInteger@@YA_NPAU_object@@HPAH@Z ; PyTuple_GetInteger
  00014	83 c4 0c	 add	 esp, 12			; 0000000cH
  00017	84 c0		 test	 al, al
  00019	75 0e		 jne	 SHORT $LN2@chrLookAt
$LN6@chrLookAt:

; 583  : 	if (!pkInst)
; 584  : 		return Py_BuildNone();
; 585  : // 	pkInst->LookAt(TPixelPosition(iCellX * c_Section_xAttributeCellSize, iCellY * c_Section_xAttributeCellSize));
; 586  : 	return Py_BuildNone();
; 587  : }

  0001b	6a 00		 push	 0
  0001d	e8 00 00 00 00	 call	 ?Py_BuildException@@YAPAU_object@@PBDZZ ; Py_BuildException
  00022	83 c4 04	 add	 esp, 4
  00025	8b e5		 mov	 esp, ebp
  00027	5d		 pop	 ebp
  00028	c3		 ret	 0
$LN2@chrLookAt:

; 576  : 		return Py_BuildException();
; 577  : 
; 578  : 	int iCellY;
; 579  : 	if (!PyTuple_GetInteger(poArgs, 1, &iCellY))

  00029	8d 45 f8	 lea	 eax, DWORD PTR _iCellY$[ebp]
  0002c	50		 push	 eax
  0002d	6a 01		 push	 1
  0002f	ff 75 0c	 push	 DWORD PTR _poArgs$[ebp]
  00032	e8 00 00 00 00	 call	 ?PyTuple_GetInteger@@YA_NPAU_object@@HPAH@Z ; PyTuple_GetInteger
  00037	83 c4 0c	 add	 esp, 12			; 0000000cH
  0003a	84 c0		 test	 al, al
  0003c	74 dd		 je	 SHORT $LN6@chrLookAt

; 580  : 		return Py_BuildException();
; 581  : 
; 582  : 	CInstanceBase * pkInst = CPythonCharacterManager::Instance().GetSelectedInstancePtr();

  0003e	8b 0d 00 00 00
	00		 mov	 ecx, DWORD PTR ?ms_singleton@?$CSingleton@VCPythonCharacterManager@@@@0PAVCPythonCharacterManager@@A ; CSingleton<CPythonCharacterManager>::ms_singleton
  00044	e8 00 00 00 00	 call	 ?GetSelectedInstancePtr@CPythonCharacterManager@@QAEPAVCInstanceBase@@XZ ; CPythonCharacterManager::GetSelectedInstancePtr

; 583  : 	if (!pkInst)
; 584  : 		return Py_BuildNone();
; 585  : // 	pkInst->LookAt(TPixelPosition(iCellX * c_Section_xAttributeCellSize, iCellY * c_Section_xAttributeCellSize));
; 586  : 	return Py_BuildNone();
; 587  : }

  00049	e8 00 00 00 00	 call	 ?Py_BuildNone@@YAPAU_object@@XZ ; Py_BuildNone
  0004e	8b e5		 mov	 esp, ebp
  00050	5d		 pop	 ebp
  00051	c3		 ret	 0
?chrLookAt@@YAPAU_object@@PAU1@0@Z ENDP			; chrLookAt
_TEXT	ENDS
; Function compile flags: /Ogtp
; File D:\Metin2 Server Files\mainline\SRC_2014\Metin2Client\UserInterface\PythonCharacterModule.cpp
;	COMDAT ?chrDie@@YAPAU_object@@PAU1@0@Z
_TEXT	SEGMENT
_poSelf$ = 8						; size = 4
_poArgs$ = 12						; size = 4
?chrDie@@YAPAU_object@@PAU1@0@Z PROC			; chrDie, COMDAT

; 565  : 	CInstanceBase * pkInst = CPythonCharacterManager::Instance().GetSelectedInstancePtr();

  00000	8b 0d 00 00 00
	00		 mov	 ecx, DWORD PTR ?ms_singleton@?$CSingleton@VCPythonCharacterManager@@@@0PAVCPythonCharacterManager@@A ; CSingleton<CPythonCharacterManager>::ms_singleton
  00006	e8 00 00 00 00	 call	 ?GetSelectedInstancePtr@CPythonCharacterManager@@QAEPAVCInstanceBase@@XZ ; CPythonCharacterManager::GetSelectedInstancePtr

; 566  : 	if (!pkInst)

  0000b	85 c0		 test	 eax, eax
  0000d	0f 84 00 00 00
	00		 je	 ?Py_BuildNone@@YAPAU_object@@XZ ; Py_BuildNone

; 567  : 		return Py_BuildNone();
; 568  :  	pkInst->Die();

  00013	8b c8		 mov	 ecx, eax
  00015	e8 00 00 00 00	 call	 ?Die@CInstanceBase@@QAEXXZ ; CInstanceBase::Die

; 569  : 	return Py_BuildNone();

  0001a	e9 00 00 00 00	 jmp	 ?Py_BuildNone@@YAPAU_object@@XZ ; Py_BuildNone
?chrDie@@YAPAU_object@@PAU1@0@Z ENDP			; chrDie
_TEXT	ENDS
; Function compile flags: /Ogtp
; File D:\Metin2 Server Files\mainline\SRC_2014\Metin2Client\UserInterface\PythonCharacterModule.cpp
;	COMDAT ?chrRevive@@YAPAU_object@@PAU1@0@Z
_TEXT	SEGMENT
_poSelf$ = 8						; size = 4
_poArgs$ = 12						; size = 4
?chrRevive@@YAPAU_object@@PAU1@0@Z PROC			; chrRevive, COMDAT

; 556  : 	CInstanceBase * pkInst = CPythonCharacterManager::Instance().GetSelectedInstancePtr();

  00000	8b 0d 00 00 00
	00		 mov	 ecx, DWORD PTR ?ms_singleton@?$CSingleton@VCPythonCharacterManager@@@@0PAVCPythonCharacterManager@@A ; CSingleton<CPythonCharacterManager>::ms_singleton
  00006	e8 00 00 00 00	 call	 ?GetSelectedInstancePtr@CPythonCharacterManager@@QAEPAVCInstanceBase@@XZ ; CPythonCharacterManager::GetSelectedInstancePtr

; 557  : 	if (!pkInst)

  0000b	85 c0		 test	 eax, eax
  0000d	0f 84 00 00 00
	00		 je	 ?Py_BuildNone@@YAPAU_object@@XZ ; Py_BuildNone

; 558  : 		return Py_BuildNone();
; 559  :  	pkInst->Revive();

  00013	8b c8		 mov	 ecx, eax
  00015	e8 00 00 00 00	 call	 ?Revive@CInstanceBase@@QAEXXZ ; CInstanceBase::Revive

; 560  : 	return Py_BuildNone();

  0001a	e9 00 00 00 00	 jmp	 ?Py_BuildNone@@YAPAU_object@@XZ ; Py_BuildNone
?chrRevive@@YAPAU_object@@PAU1@0@Z ENDP			; chrRevive
_TEXT	ENDS
; Function compile flags: /Ogtp
; File D:\Metin2 Server Files\mainline\SRC_2014\Metin2Client\UserInterface\PythonCharacterModule.cpp
;	COMDAT ?chrDismountHorse@@YAPAU_object@@PAU1@0@Z
_TEXT	SEGMENT
_poSelf$ = 8						; size = 4
_poArgs$ = 12						; size = 4
?chrDismountHorse@@YAPAU_object@@PAU1@0@Z PROC		; chrDismountHorse, COMDAT

; 547  : 	CInstanceBase * pkInst = CPythonCharacterManager::Instance().GetSelectedInstancePtr();

  00000	8b 0d 00 00 00
	00		 mov	 ecx, DWORD PTR ?ms_singleton@?$CSingleton@VCPythonCharacterManager@@@@0PAVCPythonCharacterManager@@A ; CSingleton<CPythonCharacterManager>::ms_singleton
  00006	e8 00 00 00 00	 call	 ?GetSelectedInstancePtr@CPythonCharacterManager@@QAEPAVCInstanceBase@@XZ ; CPythonCharacterManager::GetSelectedInstancePtr

; 548  : 	if (!pkInst)

  0000b	85 c0		 test	 eax, eax
  0000d	0f 84 00 00 00
	00		 je	 ?Py_BuildNone@@YAPAU_object@@XZ ; Py_BuildNone

; 549  : 		return Py_BuildNone();
; 550  :  	pkInst->DismountHorse();

  00013	8b c8		 mov	 ecx, eax
  00015	e8 00 00 00 00	 call	 ?DismountHorse@CInstanceBase@@QAEXXZ ; CInstanceBase::DismountHorse

; 551  : 	return Py_BuildNone();

  0001a	e9 00 00 00 00	 jmp	 ?Py_BuildNone@@YAPAU_object@@XZ ; Py_BuildNone
?chrDismountHorse@@YAPAU_object@@PAU1@0@Z ENDP		; chrDismountHorse
_TEXT	ENDS
; Function compile flags: /Ogtp
; File D:\Metin2 Server Files\mainline\SRC_2014\Metin2Client\UserInterface\PythonCharacterModule.cpp
;	COMDAT ?chrMountHorse@@YAPAU_object@@PAU1@0@Z
_TEXT	SEGMENT
_poSelf$ = 8						; size = 4
_poArgs$ = 12						; size = 4
?chrMountHorse@@YAPAU_object@@PAU1@0@Z PROC		; chrMountHorse, COMDAT

; 538  : 	CInstanceBase * pkInst = CPythonCharacterManager::Instance().GetSelectedInstancePtr();

  00000	8b 0d 00 00 00
	00		 mov	 ecx, DWORD PTR ?ms_singleton@?$CSingleton@VCPythonCharacterManager@@@@0PAVCPythonCharacterManager@@A ; CSingleton<CPythonCharacterManager>::ms_singleton
  00006	e8 00 00 00 00	 call	 ?GetSelectedInstancePtr@CPythonCharacterManager@@QAEPAVCInstanceBase@@XZ ; CPythonCharacterManager::GetSelectedInstancePtr

; 539  : 	if (!pkInst)

  0000b	85 c0		 test	 eax, eax
  0000d	0f 84 00 00 00
	00		 je	 ?Py_BuildNone@@YAPAU_object@@XZ ; Py_BuildNone

; 540  : 		return Py_BuildNone();
; 541  :  	pkInst->MountHorse(20030);

  00013	68 3e 4e 00 00	 push	 20030			; 00004e3eH
  00018	8b c8		 mov	 ecx, eax
  0001a	e8 00 00 00 00	 call	 ?MountHorse@CInstanceBase@@QAEXI@Z ; CInstanceBase::MountHorse

; 542  : 	return Py_BuildNone();

  0001f	e9 00 00 00 00	 jmp	 ?Py_BuildNone@@YAPAU_object@@XZ ; Py_BuildNone
?chrMountHorse@@YAPAU_object@@PAU1@0@Z ENDP		; chrMountHorse
_TEXT	ENDS
; Function compile flags: /Ogtp
; File D:\Metin2 Server Files\mainline\SRC_2014\Metin2Client\UserInterface\PythonCharacterModule.cpp
;	COMDAT ?chrRefresh@@YAPAU_object@@PAU1@0@Z
_TEXT	SEGMENT
_poSelf$ = 8						; size = 4
_poArgs$ = 12						; size = 4
?chrRefresh@@YAPAU_object@@PAU1@0@Z PROC		; chrRefresh, COMDAT

; 526  : 	CInstanceBase * pkInst = CPythonCharacterManager::Instance().GetSelectedInstancePtr();

  00000	8b 0d 00 00 00
	00		 mov	 ecx, DWORD PTR ?ms_singleton@?$CSingleton@VCPythonCharacterManager@@@@0PAVCPythonCharacterManager@@A ; CSingleton<CPythonCharacterManager>::ms_singleton
  00006	e8 00 00 00 00	 call	 ?GetSelectedInstancePtr@CPythonCharacterManager@@QAEPAVCInstanceBase@@XZ ; CPythonCharacterManager::GetSelectedInstancePtr

; 527  : 
; 528  : 	if (!pkInst)
; 529  : 		return Py_BuildNone();
; 530  : 
; 531  : 	// Select  WAIT        .
; 532  : 	//pkInst->Refresh(CRaceMotionData::NAME_WAIT, true);
; 533  : 	return Py_BuildNone();
; 534  : }

  0000b	e9 00 00 00 00	 jmp	 ?Py_BuildNone@@YAPAU_object@@XZ ; Py_BuildNone
?chrRefresh@@YAPAU_object@@PAU1@0@Z ENDP		; chrRefresh
_TEXT	ENDS
; Function compile flags: /Ogtp
; File D:\Metin2 Server Files\mainline\SRC_2014\Metin2Client\UserInterface\PythonCharacterModule.cpp
;	COMDAT ?chrAttachEffectByID@@YAPAU_object@@PAU1@0@Z
_TEXT	SEGMENT
_iEffectID$ = -16					; size = 4
_iParentPartIndex$ = -12				; size = 4
_iLife$ = -8						; size = 4
_pszBoneName$ = -4					; size = 4
_poSelf$ = 8						; size = 4
_poArgs$ = 12						; size = 4
?chrAttachEffectByID@@YAPAU_object@@PAU1@0@Z PROC	; chrAttachEffectByID, COMDAT

; 490  : {

  00000	55		 push	 ebp
  00001	8b ec		 mov	 ebp, esp
  00003	83 ec 10	 sub	 esp, 16			; 00000010H

; 491  : 	int iParentPartIndex;
; 492  : 	if (!PyTuple_GetInteger(poArgs, 0, &iParentPartIndex))

  00006	8d 45 f4	 lea	 eax, DWORD PTR _iParentPartIndex$[ebp]
  00009	56		 push	 esi
  0000a	8b 75 0c	 mov	 esi, DWORD PTR _poArgs$[ebp]
  0000d	50		 push	 eax
  0000e	6a 00		 push	 0
  00010	56		 push	 esi
  00011	e8 00 00 00 00	 call	 ?PyTuple_GetInteger@@YA_NPAU_object@@HPAH@Z ; PyTuple_GetInteger
  00016	83 c4 0c	 add	 esp, 12			; 0000000cH
  00019	84 c0		 test	 al, al
  0001b	75 0f		 jne	 SHORT $LN2@chrAttachE
$LN9@chrAttachE:

; 516  : 	
; 517  : 	if (!pkInst)
; 518  : 		return Py_BuildNone();
; 519  : 	
; 520  : 	//pkInst->AttachEffectByID(iParentPartIndex, pszBoneName, iEffectID, iLife);
; 521  : 	return Py_BuildNone();
; 522  : }

  0001d	6a 00		 push	 0
  0001f	e8 00 00 00 00	 call	 ?Py_BuildException@@YAPAU_object@@PBDZZ ; Py_BuildException
  00024	83 c4 04	 add	 esp, 4
  00027	5e		 pop	 esi
  00028	8b e5		 mov	 esp, ebp
  0002a	5d		 pop	 ebp
  0002b	c3		 ret	 0
$LN2@chrAttachE:

; 493  : 		return Py_BuildException();
; 494  : 
; 495  : 	char * pszBoneName;
; 496  : 	if (!PyTuple_GetString(poArgs, 1, &pszBoneName))

  0002c	8d 45 fc	 lea	 eax, DWORD PTR _pszBoneName$[ebp]
  0002f	50		 push	 eax
  00030	6a 01		 push	 1
  00032	56		 push	 esi
  00033	e8 00 00 00 00	 call	 ?PyTuple_GetString@@YA_NPAU_object@@HPAPAD@Z ; PyTuple_GetString
  00038	8b 4d fc	 mov	 ecx, DWORD PTR _pszBoneName$[ebp]
  0003b	33 d2		 xor	 edx, edx
  0003d	84 c0		 test	 al, al

; 497  : 	{
; 498  : 		pszBoneName = NULL;
; 499  : 	}
; 500  : 	//	return Py_BuildException();
; 501  : 	
; 502  : 	// FIXME : bug or error on getting unsigned value
; 503  : 	int iEffectID;
; 504  : 	if (!PyTuple_GetInteger(poArgs, 2, &iEffectID))

  0003f	8d 45 f0	 lea	 eax, DWORD PTR _iEffectID$[ebp]
  00042	50		 push	 eax
  00043	0f 44 ca	 cmove	 ecx, edx
  00046	6a 02		 push	 2
  00048	56		 push	 esi
  00049	89 4d fc	 mov	 DWORD PTR _pszBoneName$[ebp], ecx
  0004c	e8 00 00 00 00	 call	 ?PyTuple_GetInteger@@YA_NPAU_object@@HPAH@Z ; PyTuple_GetInteger
  00051	83 c4 18	 add	 esp, 24			; 00000018H
  00054	84 c0		 test	 al, al
  00056	74 c5		 je	 SHORT $LN9@chrAttachE

; 505  : 		return Py_BuildException();
; 506  : 
; 507  : 	int iLife = CActorInstance::EFFECT_LIFE_INFINITE;
; 508  : 	
; 509  : 	if (PyTuple_Size(poArgs)==4)

  00058	56		 push	 esi
  00059	c7 45 f8 01 00
	00 00		 mov	 DWORD PTR _iLife$[ebp], 1
  00060	ff 15 00 00 00
	00		 call	 DWORD PTR __imp__PyTuple_Size
  00066	83 c4 04	 add	 esp, 4
  00069	83 f8 04	 cmp	 eax, 4
  0006c	75 13		 jne	 SHORT $LN6@chrAttachE

; 510  : 	{
; 511  : 		if (!PyTuple_GetInteger(poArgs, 3, &iLife))

  0006e	8d 45 f8	 lea	 eax, DWORD PTR _iLife$[ebp]
  00071	50		 push	 eax
  00072	6a 03		 push	 3
  00074	56		 push	 esi
  00075	e8 00 00 00 00	 call	 ?PyTuple_GetInteger@@YA_NPAU_object@@HPAH@Z ; PyTuple_GetInteger
  0007a	83 c4 0c	 add	 esp, 12			; 0000000cH
  0007d	84 c0		 test	 al, al
  0007f	74 9c		 je	 SHORT $LN9@chrAttachE
$LN6@chrAttachE:

; 512  : 			return Py_BuildException();
; 513  : 	}
; 514  : 	
; 515  : 	CInstanceBase * pkInst = CPythonCharacterManager::Instance().GetSelectedInstancePtr();

  00081	8b 0d 00 00 00
	00		 mov	 ecx, DWORD PTR ?ms_singleton@?$CSingleton@VCPythonCharacterManager@@@@0PAVCPythonCharacterManager@@A ; CSingleton<CPythonCharacterManager>::ms_singleton
  00087	e8 00 00 00 00	 call	 ?GetSelectedInstancePtr@CPythonCharacterManager@@QAEPAVCInstanceBase@@XZ ; CPythonCharacterManager::GetSelectedInstancePtr

; 516  : 	
; 517  : 	if (!pkInst)
; 518  : 		return Py_BuildNone();
; 519  : 	
; 520  : 	//pkInst->AttachEffectByID(iParentPartIndex, pszBoneName, iEffectID, iLife);
; 521  : 	return Py_BuildNone();
; 522  : }

  0008c	e8 00 00 00 00	 call	 ?Py_BuildNone@@YAPAU_object@@XZ ; Py_BuildNone
  00091	5e		 pop	 esi
  00092	8b e5		 mov	 esp, ebp
  00094	5d		 pop	 ebp
  00095	c3		 ret	 0
?chrAttachEffectByID@@YAPAU_object@@PAU1@0@Z ENDP	; chrAttachEffectByID
_TEXT	ENDS
; Function compile flags: /Ogtp
; File D:\Metin2 Server Files\mainline\SRC_2014\Metin2Client\UserInterface\PythonCharacterModule.cpp
;	COMDAT ?chrAttachEffectByName@@YAPAU_object@@PAU1@0@Z
_TEXT	SEGMENT
_pszEffectName$ = -16					; size = 4
_iParentPartIndex$ = -12				; size = 4
_iLife$ = -8						; size = 4
_pszBoneName$ = -4					; size = 4
_poSelf$ = 8						; size = 4
_poArgs$ = 12						; size = 4
?chrAttachEffectByName@@YAPAU_object@@PAU1@0@Z PROC	; chrAttachEffectByName, COMDAT

; 456  : {

  00000	55		 push	 ebp
  00001	8b ec		 mov	 ebp, esp
  00003	83 ec 10	 sub	 esp, 16			; 00000010H

; 457  : 	int iParentPartIndex;
; 458  : 	if (!PyTuple_GetInteger(poArgs, 0, &iParentPartIndex))

  00006	8d 45 f4	 lea	 eax, DWORD PTR _iParentPartIndex$[ebp]
  00009	56		 push	 esi
  0000a	8b 75 0c	 mov	 esi, DWORD PTR _poArgs$[ebp]
  0000d	50		 push	 eax
  0000e	6a 00		 push	 0
  00010	56		 push	 esi
  00011	e8 00 00 00 00	 call	 ?PyTuple_GetInteger@@YA_NPAU_object@@HPAH@Z ; PyTuple_GetInteger
  00016	83 c4 0c	 add	 esp, 12			; 0000000cH
  00019	84 c0		 test	 al, al
  0001b	75 0f		 jne	 SHORT $LN2@chrAttachE
$LN9@chrAttachE:

; 481  : 
; 482  : 	if (!pkInst)
; 483  : 		return Py_BuildNone();
; 484  : 
; 485  : 	//pkInst->AttachEffectByName(iParentPartIndex, pszBoneName, pszEffectName, iLife);
; 486  : 	return Py_BuildNone();
; 487  : }

  0001d	6a 00		 push	 0
  0001f	e8 00 00 00 00	 call	 ?Py_BuildException@@YAPAU_object@@PBDZZ ; Py_BuildException
  00024	83 c4 04	 add	 esp, 4
  00027	5e		 pop	 esi
  00028	8b e5		 mov	 esp, ebp
  0002a	5d		 pop	 ebp
  0002b	c3		 ret	 0
$LN2@chrAttachE:

; 459  : 		return Py_BuildException();
; 460  : 
; 461  : 	char * pszBoneName;
; 462  : 	if (!PyTuple_GetString(poArgs, 1, &pszBoneName))

  0002c	8d 45 fc	 lea	 eax, DWORD PTR _pszBoneName$[ebp]
  0002f	50		 push	 eax
  00030	6a 01		 push	 1
  00032	56		 push	 esi
  00033	e8 00 00 00 00	 call	 ?PyTuple_GetString@@YA_NPAU_object@@HPAPAD@Z ; PyTuple_GetString
  00038	8b 4d fc	 mov	 ecx, DWORD PTR _pszBoneName$[ebp]
  0003b	33 d2		 xor	 edx, edx
  0003d	84 c0		 test	 al, al

; 463  : 	{
; 464  : 		pszBoneName = NULL;
; 465  : 		//return Py_BuildException();
; 466  : 	}
; 467  : 
; 468  : 	char * pszEffectName;
; 469  : 	if (!PyTuple_GetString(poArgs, 2, &pszEffectName))

  0003f	8d 45 f0	 lea	 eax, DWORD PTR _pszEffectName$[ebp]
  00042	50		 push	 eax
  00043	0f 44 ca	 cmove	 ecx, edx
  00046	6a 02		 push	 2
  00048	56		 push	 esi
  00049	89 4d fc	 mov	 DWORD PTR _pszBoneName$[ebp], ecx
  0004c	e8 00 00 00 00	 call	 ?PyTuple_GetString@@YA_NPAU_object@@HPAPAD@Z ; PyTuple_GetString
  00051	83 c4 18	 add	 esp, 24			; 00000018H
  00054	84 c0		 test	 al, al
  00056	74 c5		 je	 SHORT $LN9@chrAttachE

; 470  : 		return Py_BuildException();
; 471  : 
; 472  : 	int iLife = CActorInstance::EFFECT_LIFE_INFINITE;
; 473  : 
; 474  : 	if (PyTuple_Size(poArgs)==4)

  00058	56		 push	 esi
  00059	c7 45 f8 01 00
	00 00		 mov	 DWORD PTR _iLife$[ebp], 1
  00060	ff 15 00 00 00
	00		 call	 DWORD PTR __imp__PyTuple_Size
  00066	83 c4 04	 add	 esp, 4
  00069	83 f8 04	 cmp	 eax, 4
  0006c	75 13		 jne	 SHORT $LN6@chrAttachE

; 475  : 	{
; 476  : 		if (!PyTuple_GetInteger(poArgs, 3, &iLife))

  0006e	8d 45 f8	 lea	 eax, DWORD PTR _iLife$[ebp]
  00071	50		 push	 eax
  00072	6a 03		 push	 3
  00074	56		 push	 esi
  00075	e8 00 00 00 00	 call	 ?PyTuple_GetInteger@@YA_NPAU_object@@HPAH@Z ; PyTuple_GetInteger
  0007a	83 c4 0c	 add	 esp, 12			; 0000000cH
  0007d	84 c0		 test	 al, al
  0007f	74 9c		 je	 SHORT $LN9@chrAttachE
$LN6@chrAttachE:

; 477  : 			return Py_BuildException();
; 478  : 	}
; 479  : 
; 480  : 	CInstanceBase * pkInst = CPythonCharacterManager::Instance().GetSelectedInstancePtr();

  00081	8b 0d 00 00 00
	00		 mov	 ecx, DWORD PTR ?ms_singleton@?$CSingleton@VCPythonCharacterManager@@@@0PAVCPythonCharacterManager@@A ; CSingleton<CPythonCharacterManager>::ms_singleton
  00087	e8 00 00 00 00	 call	 ?GetSelectedInstancePtr@CPythonCharacterManager@@QAEPAVCInstanceBase@@XZ ; CPythonCharacterManager::GetSelectedInstancePtr

; 481  : 
; 482  : 	if (!pkInst)
; 483  : 		return Py_BuildNone();
; 484  : 
; 485  : 	//pkInst->AttachEffectByName(iParentPartIndex, pszBoneName, pszEffectName, iLife);
; 486  : 	return Py_BuildNone();
; 487  : }

  0008c	e8 00 00 00 00	 call	 ?Py_BuildNone@@YAPAU_object@@XZ ; Py_BuildNone
  00091	5e		 pop	 esi
  00092	8b e5		 mov	 esp, ebp
  00094	5d		 pop	 ebp
  00095	c3		 ret	 0
?chrAttachEffectByName@@YAPAU_object@@PAU1@0@Z ENDP	; chrAttachEffectByName
_TEXT	ENDS
; Function compile flags: /Ogtp
; File D:\Metin2 Server Files\mainline\SRC_2014\Metin2Client\UserInterface\PythonCharacterModule.cpp
;	COMDAT ?chrSetInstanceType@@YAPAU_object@@PAU1@0@Z
_TEXT	SEGMENT
_iInstanceType$ = -4					; size = 4
_poSelf$ = 8						; size = 4
_poArgs$ = 12						; size = 4
?chrSetInstanceType@@YAPAU_object@@PAU1@0@Z PROC	; chrSetInstanceType, COMDAT

; 443  : {

  00000	55		 push	 ebp
  00001	8b ec		 mov	 ebp, esp
  00003	51		 push	 ecx

; 444  : 	int iInstanceType;
; 445  : 	if (!PyTuple_GetInteger(poArgs, 0, &iInstanceType))

  00004	8d 45 fc	 lea	 eax, DWORD PTR _iInstanceType$[ebp]
  00007	50		 push	 eax
  00008	6a 00		 push	 0
  0000a	ff 75 0c	 push	 DWORD PTR _poArgs$[ebp]
  0000d	e8 00 00 00 00	 call	 ?PyTuple_GetInteger@@YA_NPAU_object@@HPAH@Z ; PyTuple_GetInteger
  00012	83 c4 0c	 add	 esp, 12			; 0000000cH
  00015	84 c0		 test	 al, al
  00017	75 0e		 jne	 SHORT $LN2@chrSetInst

; 446  : 		return Py_BuildException();

  00019	6a 00		 push	 0
  0001b	e8 00 00 00 00	 call	 ?Py_BuildException@@YAPAU_object@@PBDZZ ; Py_BuildException
  00020	83 c4 04	 add	 esp, 4

; 452  : 	return Py_BuildNone();
; 453  : }

  00023	8b e5		 mov	 esp, ebp
  00025	5d		 pop	 ebp
  00026	c3		 ret	 0
$LN2@chrSetInst:

; 447  : 
; 448  : 	CInstanceBase * pkInst = CPythonCharacterManager::Instance().GetSelectedInstancePtr();

  00027	8b 0d 00 00 00
	00		 mov	 ecx, DWORD PTR ?ms_singleton@?$CSingleton@VCPythonCharacterManager@@@@0PAVCPythonCharacterManager@@A ; CSingleton<CPythonCharacterManager>::ms_singleton
  0002d	e8 00 00 00 00	 call	 ?GetSelectedInstancePtr@CPythonCharacterManager@@QAEPAVCInstanceBase@@XZ ; CPythonCharacterManager::GetSelectedInstancePtr

; 449  : 	if (!pkInst)

  00032	85 c0		 test	 eax, eax
  00034	74 0a		 je	 SHORT $LN5@chrSetInst

; 450  : 		return Py_BuildNone();
; 451  : 	pkInst->SetInstanceType(iInstanceType);

  00036	ff 75 fc	 push	 DWORD PTR _iInstanceType$[ebp]
  00039	8b c8		 mov	 ecx, eax
  0003b	e8 00 00 00 00	 call	 ?SetInstanceType@CInstanceBase@@QAEXH@Z ; CInstanceBase::SetInstanceType
$LN5@chrSetInst:

; 452  : 	return Py_BuildNone();
; 453  : }

  00040	e8 00 00 00 00	 call	 ?Py_BuildNone@@YAPAU_object@@XZ ; Py_BuildNone
  00045	8b e5		 mov	 esp, ebp
  00047	5d		 pop	 ebp
  00048	c3		 ret	 0
?chrSetInstanceType@@YAPAU_object@@PAU1@0@Z ENDP	; chrSetInstanceType
_TEXT	ENDS
; Function compile flags: /Ogtp
; File D:\Metin2 Server Files\mainline\SRC_2014\Metin2Client\UserInterface\PythonCharacterModule.cpp
;	COMDAT ?chrSetNameString@@YAPAU_object@@PAU1@0@Z
_TEXT	SEGMENT
_c_szName$ = -4						; size = 4
_poSelf$ = 8						; size = 4
_poArgs$ = 12						; size = 4
?chrSetNameString@@YAPAU_object@@PAU1@0@Z PROC		; chrSetNameString, COMDAT

; 430  : {

  00000	55		 push	 ebp
  00001	8b ec		 mov	 ebp, esp
  00003	51		 push	 ecx

; 431  : 	char * c_szName;
; 432  : 	if (!PyTuple_GetString(poArgs, 0, &c_szName))

  00004	8d 45 fc	 lea	 eax, DWORD PTR _c_szName$[ebp]
  00007	50		 push	 eax
  00008	6a 00		 push	 0
  0000a	ff 75 0c	 push	 DWORD PTR _poArgs$[ebp]
  0000d	e8 00 00 00 00	 call	 ?PyTuple_GetString@@YA_NPAU_object@@HPAPAD@Z ; PyTuple_GetString
  00012	83 c4 0c	 add	 esp, 12			; 0000000cH
  00015	84 c0		 test	 al, al
  00017	75 0e		 jne	 SHORT $LN2@chrSetName

; 433  : 		return Py_BuildException();

  00019	6a 00		 push	 0
  0001b	e8 00 00 00 00	 call	 ?Py_BuildException@@YAPAU_object@@PBDZZ ; Py_BuildException
  00020	83 c4 04	 add	 esp, 4

; 440  : }

  00023	8b e5		 mov	 esp, ebp
  00025	5d		 pop	 ebp
  00026	c3		 ret	 0
$LN2@chrSetName:

; 434  : 
; 435  : 	CInstanceBase * pkInst = CPythonCharacterManager::Instance().GetSelectedInstancePtr();

  00027	8b 0d 00 00 00
	00		 mov	 ecx, DWORD PTR ?ms_singleton@?$CSingleton@VCPythonCharacterManager@@@@0PAVCPythonCharacterManager@@A ; CSingleton<CPythonCharacterManager>::ms_singleton
  0002d	e8 00 00 00 00	 call	 ?GetSelectedInstancePtr@CPythonCharacterManager@@QAEPAVCInstanceBase@@XZ ; CPythonCharacterManager::GetSelectedInstancePtr
  00032	8b d0		 mov	 edx, eax

; 436  : 	if (!pkInst)

  00034	85 d2		 test	 edx, edx
  00036	75 09		 jne	 SHORT $LN3@chrSetName

; 437  : 		return Py_BuildNone();

  00038	e8 00 00 00 00	 call	 ?Py_BuildNone@@YAPAU_object@@XZ ; Py_BuildNone

; 440  : }

  0003d	8b e5		 mov	 esp, ebp
  0003f	5d		 pop	 ebp
  00040	c3		 ret	 0
$LN3@chrSetName:

; 438  : 	pkInst->SetNameString(c_szName, strlen(c_szName));

  00041	8b 4d fc	 mov	 ecx, DWORD PTR _c_szName$[ebp]
  00044	57		 push	 edi
  00045	8d 79 01	 lea	 edi, DWORD PTR [ecx+1]
$LL5@chrSetName:
  00048	8a 01		 mov	 al, BYTE PTR [ecx]
  0004a	41		 inc	 ecx
  0004b	84 c0		 test	 al, al
  0004d	75 f9		 jne	 SHORT $LL5@chrSetName
  0004f	2b cf		 sub	 ecx, edi
  00051	51		 push	 ecx
  00052	ff 75 fc	 push	 DWORD PTR _c_szName$[ebp]
  00055	8b ca		 mov	 ecx, edx
  00057	e8 00 00 00 00	 call	 ?SetNameString@CInstanceBase@@QAEXPBDH@Z ; CInstanceBase::SetNameString

; 439  : 	return Py_BuildNone();

  0005c	e8 00 00 00 00	 call	 ?Py_BuildNone@@YAPAU_object@@XZ ; Py_BuildNone
  00061	5f		 pop	 edi

; 440  : }

  00062	8b e5		 mov	 esp, ebp
  00064	5d		 pop	 ebp
  00065	c3		 ret	 0
?chrSetNameString@@YAPAU_object@@PAU1@0@Z ENDP		; chrSetNameString
_TEXT	ENDS
; Function compile flags: /Ogtp
; File D:\Metin2 Server Files\mainline\SRC_2014\Metin2Client\UserInterface\PythonCharacterModule.cpp
;	COMDAT ?chrSetVirtualID@@YAPAU_object@@PAU1@0@Z
_TEXT	SEGMENT
_iVID$ = -4						; size = 4
_poSelf$ = 8						; size = 4
_poArgs$ = 12						; size = 4
?chrSetVirtualID@@YAPAU_object@@PAU1@0@Z PROC		; chrSetVirtualID, COMDAT

; 417  : {

  00000	55		 push	 ebp
  00001	8b ec		 mov	 ebp, esp
  00003	51		 push	 ecx

; 418  : 	int iVID;
; 419  : 	if (!PyTuple_GetInteger(poArgs, 0, &iVID))

  00004	8d 45 fc	 lea	 eax, DWORD PTR _iVID$[ebp]
  00007	50		 push	 eax
  00008	6a 00		 push	 0
  0000a	ff 75 0c	 push	 DWORD PTR _poArgs$[ebp]
  0000d	e8 00 00 00 00	 call	 ?PyTuple_GetInteger@@YA_NPAU_object@@HPAH@Z ; PyTuple_GetInteger
  00012	83 c4 0c	 add	 esp, 12			; 0000000cH
  00015	84 c0		 test	 al, al
  00017	75 0e		 jne	 SHORT $LN2@chrSetVirt

; 420  : 		return Py_BuildException();

  00019	6a 00		 push	 0
  0001b	e8 00 00 00 00	 call	 ?Py_BuildException@@YAPAU_object@@PBDZZ ; Py_BuildException
  00020	83 c4 04	 add	 esp, 4

; 426  : 	return Py_BuildNone();
; 427  : }

  00023	8b e5		 mov	 esp, ebp
  00025	5d		 pop	 ebp
  00026	c3		 ret	 0
$LN2@chrSetVirt:

; 421  : 
; 422  : 	CInstanceBase * pkInst = CPythonCharacterManager::Instance().GetSelectedInstancePtr();

  00027	8b 0d 00 00 00
	00		 mov	 ecx, DWORD PTR ?ms_singleton@?$CSingleton@VCPythonCharacterManager@@@@0PAVCPythonCharacterManager@@A ; CSingleton<CPythonCharacterManager>::ms_singleton
  0002d	e8 00 00 00 00	 call	 ?GetSelectedInstancePtr@CPythonCharacterManager@@QAEPAVCInstanceBase@@XZ ; CPythonCharacterManager::GetSelectedInstancePtr

; 423  : 	if (!pkInst)

  00032	85 c0		 test	 eax, eax
  00034	74 0a		 je	 SHORT $LN5@chrSetVirt

; 424  : 		return Py_BuildNone();
; 425  : 	pkInst->SetVirtualID(iVID);

  00036	ff 75 fc	 push	 DWORD PTR _iVID$[ebp]
  00039	8b c8		 mov	 ecx, eax
  0003b	e8 00 00 00 00	 call	 ?SetVirtualID@CInstanceBase@@QAEXK@Z ; CInstanceBase::SetVirtualID
$LN5@chrSetVirt:

; 426  : 	return Py_BuildNone();
; 427  : }

  00040	e8 00 00 00 00	 call	 ?Py_BuildNone@@YAPAU_object@@XZ ; Py_BuildNone
  00045	8b e5		 mov	 esp, ebp
  00047	5d		 pop	 ebp
  00048	c3		 ret	 0
?chrSetVirtualID@@YAPAU_object@@PAU1@0@Z ENDP		; chrSetVirtualID
_TEXT	ENDS
; Function compile flags: /Ogtp
; File D:\Metin2 Server Files\mainline\SRC_2014\Metin2Client\UserInterface\PythonCharacterModule.cpp
;	COMDAT ?chrSetWeapon@@YAPAU_object@@PAU1@0@Z
_TEXT	SEGMENT
_iForm$ = -4						; size = 4
_poSelf$ = 8						; size = 4
_poArgs$ = 12						; size = 4
?chrSetWeapon@@YAPAU_object@@PAU1@0@Z PROC		; chrSetWeapon, COMDAT

; 402  : {

  00000	55		 push	 ebp
  00001	8b ec		 mov	 ebp, esp
  00003	51		 push	 ecx

; 403  : 	int iForm;
; 404  : 	if (!PyTuple_GetInteger(poArgs, 0, &iForm))

  00004	8d 45 fc	 lea	 eax, DWORD PTR _iForm$[ebp]
  00007	50		 push	 eax
  00008	6a 00		 push	 0
  0000a	ff 75 0c	 push	 DWORD PTR _poArgs$[ebp]
  0000d	e8 00 00 00 00	 call	 ?PyTuple_GetInteger@@YA_NPAU_object@@HPAH@Z ; PyTuple_GetInteger
  00012	83 c4 0c	 add	 esp, 12			; 0000000cH
  00015	84 c0		 test	 al, al
  00017	75 0e		 jne	 SHORT $LN2@chrSetWeap

; 405  : 		return Py_BuildException();

  00019	6a 00		 push	 0
  0001b	e8 00 00 00 00	 call	 ?Py_BuildException@@YAPAU_object@@PBDZZ ; Py_BuildException
  00020	83 c4 04	 add	 esp, 4

; 412  : 
; 413  : 	return Py_BuildNone();
; 414  : }

  00023	8b e5		 mov	 esp, ebp
  00025	5d		 pop	 ebp
  00026	c3		 ret	 0
$LN2@chrSetWeap:

; 406  : 
; 407  : 	CInstanceBase * pkInst = CPythonCharacterManager::Instance().GetSelectedInstancePtr();

  00027	8b 0d 00 00 00
	00		 mov	 ecx, DWORD PTR ?ms_singleton@?$CSingleton@VCPythonCharacterManager@@@@0PAVCPythonCharacterManager@@A ; CSingleton<CPythonCharacterManager>::ms_singleton
  0002d	e8 00 00 00 00	 call	 ?GetSelectedInstancePtr@CPythonCharacterManager@@QAEPAVCInstanceBase@@XZ ; CPythonCharacterManager::GetSelectedInstancePtr

; 408  : 	if (!pkInst)

  00032	85 c0		 test	 eax, eax
  00034	74 0a		 je	 SHORT $LN5@chrSetWeap

; 409  : 		return Py_BuildNone();
; 410  : 
; 411  : 	pkInst->SetWeapon(iForm);

  00036	ff 75 fc	 push	 DWORD PTR _iForm$[ebp]
  00039	8b c8		 mov	 ecx, eax
  0003b	e8 00 00 00 00	 call	 ?SetWeapon@CInstanceBase@@QAE_NK@Z ; CInstanceBase::SetWeapon
$LN5@chrSetWeap:

; 412  : 
; 413  : 	return Py_BuildNone();
; 414  : }

  00040	e8 00 00 00 00	 call	 ?Py_BuildNone@@YAPAU_object@@XZ ; Py_BuildNone
  00045	8b e5		 mov	 esp, ebp
  00047	5d		 pop	 ebp
  00048	c3		 ret	 0
?chrSetWeapon@@YAPAU_object@@PAU1@0@Z ENDP		; chrSetWeapon
_TEXT	ENDS
; Function compile flags: /Ogtp
; File D:\Metin2 Server Files\mainline\SRC_2014\Metin2Client\UserInterface\PythonCharacterModule.cpp
;	COMDAT ?chrChangeShape@@YAPAU_object@@PAU1@0@Z
_TEXT	SEGMENT
_iForm$ = -4						; size = 4
_poSelf$ = 8						; size = 4
_poArgs$ = 12						; size = 4
?chrChangeShape@@YAPAU_object@@PAU1@0@Z PROC		; chrChangeShape, COMDAT

; 387  : {

  00000	55		 push	 ebp
  00001	8b ec		 mov	 ebp, esp
  00003	51		 push	 ecx

; 388  : 	int iForm;
; 389  : 	if (!PyTuple_GetInteger(poArgs, 0, &iForm))

  00004	8d 45 fc	 lea	 eax, DWORD PTR _iForm$[ebp]
  00007	50		 push	 eax
  00008	6a 00		 push	 0
  0000a	ff 75 0c	 push	 DWORD PTR _poArgs$[ebp]
  0000d	e8 00 00 00 00	 call	 ?PyTuple_GetInteger@@YA_NPAU_object@@HPAH@Z ; PyTuple_GetInteger
  00012	83 c4 0c	 add	 esp, 12			; 0000000cH
  00015	84 c0		 test	 al, al
  00017	75 0e		 jne	 SHORT $LN2@chrChangeS

; 390  : 		return Py_BuildException();

  00019	6a 00		 push	 0
  0001b	e8 00 00 00 00	 call	 ?Py_BuildException@@YAPAU_object@@PBDZZ ; Py_BuildException
  00020	83 c4 04	 add	 esp, 4

; 397  : 
; 398  : 	return Py_BuildNone();
; 399  : }

  00023	8b e5		 mov	 esp, ebp
  00025	5d		 pop	 ebp
  00026	c3		 ret	 0
$LN2@chrChangeS:

; 391  : 
; 392  : 	CInstanceBase * pkInst = CPythonCharacterManager::Instance().GetSelectedInstancePtr();

  00027	8b 0d 00 00 00
	00		 mov	 ecx, DWORD PTR ?ms_singleton@?$CSingleton@VCPythonCharacterManager@@@@0PAVCPythonCharacterManager@@A ; CSingleton<CPythonCharacterManager>::ms_singleton
  0002d	e8 00 00 00 00	 call	 ?GetSelectedInstancePtr@CPythonCharacterManager@@QAEPAVCInstanceBase@@XZ ; CPythonCharacterManager::GetSelectedInstancePtr

; 393  : 	if (!pkInst)

  00032	85 c0		 test	 eax, eax
  00034	74 0a		 je	 SHORT $LN5@chrChangeS

; 394  : 		return Py_BuildNone();
; 395  : 
; 396  : 	pkInst->ChangeArmor(iForm);

  00036	ff 75 fc	 push	 DWORD PTR _iForm$[ebp]
  00039	8b c8		 mov	 ecx, eax
  0003b	e8 00 00 00 00	 call	 ?ChangeArmor@CInstanceBase@@QAE_NK@Z ; CInstanceBase::ChangeArmor
$LN5@chrChangeS:

; 397  : 
; 398  : 	return Py_BuildNone();
; 399  : }

  00040	e8 00 00 00 00	 call	 ?Py_BuildNone@@YAPAU_object@@XZ ; Py_BuildNone
  00045	8b e5		 mov	 esp, ebp
  00047	5d		 pop	 ebp
  00048	c3		 ret	 0
?chrChangeShape@@YAPAU_object@@PAU1@0@Z ENDP		; chrChangeShape
_TEXT	ENDS
; Function compile flags: /Ogtp
; File D:\Metin2 Server Files\mainline\SRC_2014\Metin2Client\UserInterface\PythonCharacterModule.cpp
;	COMDAT ?chrSetArmor@@YAPAU_object@@PAU1@0@Z
_TEXT	SEGMENT
_iForm$ = -4						; size = 4
_poSelf$ = 8						; size = 4
_poArgs$ = 12						; size = 4
?chrSetArmor@@YAPAU_object@@PAU1@0@Z PROC		; chrSetArmor, COMDAT

; 370  : {

  00000	55		 push	 ebp
  00001	8b ec		 mov	 ebp, esp
  00003	51		 push	 ecx

; 371  : 	int iForm;
; 372  : 	if (!PyTuple_GetInteger(poArgs, 0, &iForm))

  00004	8d 45 fc	 lea	 eax, DWORD PTR _iForm$[ebp]
  00007	50		 push	 eax
  00008	6a 00		 push	 0
  0000a	ff 75 0c	 push	 DWORD PTR _poArgs$[ebp]
  0000d	e8 00 00 00 00	 call	 ?PyTuple_GetInteger@@YA_NPAU_object@@HPAH@Z ; PyTuple_GetInteger
  00012	83 c4 0c	 add	 esp, 12			; 0000000cH
  00015	84 c0		 test	 al, al
  00017	75 0e		 jne	 SHORT $LN2@chrSetArmo

; 373  : 		return Py_BuildException();

  00019	6a 00		 push	 0
  0001b	e8 00 00 00 00	 call	 ?Py_BuildException@@YAPAU_object@@PBDZZ ; Py_BuildException
  00020	83 c4 04	 add	 esp, 4

; 384  : }

  00023	8b e5		 mov	 esp, ebp
  00025	5d		 pop	 ebp
  00026	c3		 ret	 0
$LN2@chrSetArmo:

; 374  : 
; 375  : 	CInstanceBase * pkInst = CPythonCharacterManager::Instance().GetSelectedInstancePtr();

  00027	8b 0d 00 00 00
	00		 mov	 ecx, DWORD PTR ?ms_singleton@?$CSingleton@VCPythonCharacterManager@@@@0PAVCPythonCharacterManager@@A ; CSingleton<CPythonCharacterManager>::ms_singleton
  0002d	56		 push	 esi
  0002e	e8 00 00 00 00	 call	 ?GetSelectedInstancePtr@CPythonCharacterManager@@QAEPAVCInstanceBase@@XZ ; CPythonCharacterManager::GetSelectedInstancePtr
  00033	8b f0		 mov	 esi, eax

; 376  : 	if (!pkInst)

  00035	85 f6		 test	 esi, esi
  00037	74 11		 je	 SHORT $LN6@chrSetArmo

; 377  : 		return Py_BuildNone();
; 378  : 
; 379  : 	pkInst->SetArmor(iForm);

  00039	ff 75 fc	 push	 DWORD PTR _iForm$[ebp]
  0003c	8b ce		 mov	 ecx, esi
  0003e	e8 00 00 00 00	 call	 ?SetArmor@CInstanceBase@@QAEXK@Z ; CInstanceBase::SetArmor

; 380  : 
; 381  : 	pkInst->RegisterBoundingSphere();

  00043	8b ce		 mov	 ecx, esi
  00045	e8 00 00 00 00	 call	 ?RegisterBoundingSphere@CInstanceBase@@QAEXXZ ; CInstanceBase::RegisterBoundingSphere
$LN6@chrSetArmo:

; 382  : 
; 383  : 	return Py_BuildNone();

  0004a	e8 00 00 00 00	 call	 ?Py_BuildNone@@YAPAU_object@@XZ ; Py_BuildNone
  0004f	5e		 pop	 esi

; 384  : }

  00050	8b e5		 mov	 esp, ebp
  00052	5d		 pop	 ebp
  00053	c3		 ret	 0
?chrSetArmor@@YAPAU_object@@PAU1@0@Z ENDP		; chrSetArmor
_TEXT	ENDS
; Function compile flags: /Ogtp
; File D:\Metin2 Server Files\mainline\SRC_2014\Metin2Client\UserInterface\PythonCharacterModule.cpp
;	COMDAT ?chrChangeHair@@YAPAU_object@@PAU1@0@Z
_TEXT	SEGMENT
_iHair$ = -4						; size = 4
_poSelf$ = 8						; size = 4
_poArgs$ = 12						; size = 4
?chrChangeHair@@YAPAU_object@@PAU1@0@Z PROC		; chrChangeHair, COMDAT

; 357  : {

  00000	55		 push	 ebp
  00001	8b ec		 mov	 ebp, esp
  00003	51		 push	 ecx

; 358  : 	int iHair;
; 359  : 
; 360  : 	if (!PyTuple_GetInteger(poArgs, 0, &iHair))

  00004	8d 45 fc	 lea	 eax, DWORD PTR _iHair$[ebp]
  00007	50		 push	 eax
  00008	6a 00		 push	 0
  0000a	ff 75 0c	 push	 DWORD PTR _poArgs$[ebp]
  0000d	e8 00 00 00 00	 call	 ?PyTuple_GetInteger@@YA_NPAU_object@@HPAH@Z ; PyTuple_GetInteger
  00012	83 c4 0c	 add	 esp, 12			; 0000000cH
  00015	84 c0		 test	 al, al
  00017	75 0e		 jne	 SHORT $LN2@chrChangeH

; 361  : 		return Py_BuildException();

  00019	6a 00		 push	 0
  0001b	e8 00 00 00 00	 call	 ?Py_BuildException@@YAPAU_object@@PBDZZ ; Py_BuildException
  00020	83 c4 04	 add	 esp, 4

; 366  : 	return Py_BuildNone();
; 367  : }

  00023	8b e5		 mov	 esp, ebp
  00025	5d		 pop	 ebp
  00026	c3		 ret	 0
$LN2@chrChangeH:

; 362  : 	CInstanceBase * pkInst = CPythonCharacterManager::Instance().GetSelectedInstancePtr();

  00027	8b 0d 00 00 00
	00		 mov	 ecx, DWORD PTR ?ms_singleton@?$CSingleton@VCPythonCharacterManager@@@@0PAVCPythonCharacterManager@@A ; CSingleton<CPythonCharacterManager>::ms_singleton
  0002d	e8 00 00 00 00	 call	 ?GetSelectedInstancePtr@CPythonCharacterManager@@QAEPAVCInstanceBase@@XZ ; CPythonCharacterManager::GetSelectedInstancePtr

; 363  : 	if (!pkInst)

  00032	85 c0		 test	 eax, eax
  00034	74 0a		 je	 SHORT $LN5@chrChangeH

; 364  : 		return Py_BuildNone();
; 365  : 	pkInst->ChangeHair(iHair);

  00036	ff 75 fc	 push	 DWORD PTR _iHair$[ebp]
  00039	8b c8		 mov	 ecx, eax
  0003b	e8 00 00 00 00	 call	 ?ChangeHair@CInstanceBase@@QAEXK@Z ; CInstanceBase::ChangeHair
$LN5@chrChangeH:

; 366  : 	return Py_BuildNone();
; 367  : }

  00040	e8 00 00 00 00	 call	 ?Py_BuildNone@@YAPAU_object@@XZ ; Py_BuildNone
  00045	8b e5		 mov	 esp, ebp
  00047	5d		 pop	 ebp
  00048	c3		 ret	 0
?chrChangeHair@@YAPAU_object@@PAU1@0@Z ENDP		; chrChangeHair
_TEXT	ENDS
; Function compile flags: /Ogtp
; File D:\Metin2 Server Files\mainline\SRC_2014\Metin2Client\UserInterface\PythonCharacterModule.cpp
;	COMDAT ?chrSetHair@@YAPAU_object@@PAU1@0@Z
_TEXT	SEGMENT
_iRace$ = -4						; size = 4
_poSelf$ = 8						; size = 4
_poArgs$ = 12						; size = 4
?chrSetHair@@YAPAU_object@@PAU1@0@Z PROC		; chrSetHair, COMDAT

; 342  : {

  00000	55		 push	 ebp
  00001	8b ec		 mov	 ebp, esp
  00003	51		 push	 ecx

; 343  : 	int iRace;
; 344  : 	if (!PyTuple_GetInteger(poArgs, 0, &iRace))

  00004	8d 45 fc	 lea	 eax, DWORD PTR _iRace$[ebp]
  00007	50		 push	 eax
  00008	6a 00		 push	 0
  0000a	ff 75 0c	 push	 DWORD PTR _poArgs$[ebp]
  0000d	e8 00 00 00 00	 call	 ?PyTuple_GetInteger@@YA_NPAU_object@@HPAH@Z ; PyTuple_GetInteger
  00012	83 c4 0c	 add	 esp, 12			; 0000000cH
  00015	84 c0		 test	 al, al
  00017	75 0e		 jne	 SHORT $LN2@chrSetHair

; 345  : 		return Py_BuildException();

  00019	6a 00		 push	 0
  0001b	e8 00 00 00 00	 call	 ?Py_BuildException@@YAPAU_object@@PBDZZ ; Py_BuildException
  00020	83 c4 04	 add	 esp, 4

; 352  : 
; 353  : 	return Py_BuildNone();
; 354  : }

  00023	8b e5		 mov	 esp, ebp
  00025	5d		 pop	 ebp
  00026	c3		 ret	 0
$LN2@chrSetHair:

; 346  : 
; 347  : 	CInstanceBase * pkInst = CPythonCharacterManager::Instance().GetSelectedInstancePtr();

  00027	8b 0d 00 00 00
	00		 mov	 ecx, DWORD PTR ?ms_singleton@?$CSingleton@VCPythonCharacterManager@@@@0PAVCPythonCharacterManager@@A ; CSingleton<CPythonCharacterManager>::ms_singleton
  0002d	e8 00 00 00 00	 call	 ?GetSelectedInstancePtr@CPythonCharacterManager@@QAEPAVCInstanceBase@@XZ ; CPythonCharacterManager::GetSelectedInstancePtr

; 348  : 	if (!pkInst)

  00032	85 c0		 test	 eax, eax
  00034	74 0a		 je	 SHORT $LN5@chrSetHair

; 349  : 		return Py_BuildNone();
; 350  : 
; 351  : 	pkInst->SetHair(iRace);

  00036	ff 75 fc	 push	 DWORD PTR _iRace$[ebp]
  00039	8b c8		 mov	 ecx, eax
  0003b	e8 00 00 00 00	 call	 ?SetHair@CInstanceBase@@QAEXK@Z ; CInstanceBase::SetHair
$LN5@chrSetHair:

; 352  : 
; 353  : 	return Py_BuildNone();
; 354  : }

  00040	e8 00 00 00 00	 call	 ?Py_BuildNone@@YAPAU_object@@XZ ; Py_BuildNone
  00045	8b e5		 mov	 esp, ebp
  00047	5d		 pop	 ebp
  00048	c3		 ret	 0
?chrSetHair@@YAPAU_object@@PAU1@0@Z ENDP		; chrSetHair
_TEXT	ENDS
; Function compile flags: /Ogtp
; File D:\Metin2 Server Files\mainline\SRC_2014\Metin2Client\UserInterface\PythonCharacterModule.cpp
;	COMDAT ?chrSetRace@@YAPAU_object@@PAU1@0@Z
_TEXT	SEGMENT
_iRace$ = -4						; size = 4
_poSelf$ = 8						; size = 4
_poArgs$ = 12						; size = 4
?chrSetRace@@YAPAU_object@@PAU1@0@Z PROC		; chrSetRace, COMDAT

; 327  : {

  00000	55		 push	 ebp
  00001	8b ec		 mov	 ebp, esp
  00003	51		 push	 ecx

; 328  : 	int iRace;
; 329  : 	if (!PyTuple_GetInteger(poArgs, 0, &iRace))

  00004	8d 45 fc	 lea	 eax, DWORD PTR _iRace$[ebp]
  00007	50		 push	 eax
  00008	6a 00		 push	 0
  0000a	ff 75 0c	 push	 DWORD PTR _poArgs$[ebp]
  0000d	e8 00 00 00 00	 call	 ?PyTuple_GetInteger@@YA_NPAU_object@@HPAH@Z ; PyTuple_GetInteger
  00012	83 c4 0c	 add	 esp, 12			; 0000000cH
  00015	84 c0		 test	 al, al
  00017	75 0e		 jne	 SHORT $LN2@chrSetRace

; 330  : 		return Py_BuildException();

  00019	6a 00		 push	 0
  0001b	e8 00 00 00 00	 call	 ?Py_BuildException@@YAPAU_object@@PBDZZ ; Py_BuildException
  00020	83 c4 04	 add	 esp, 4

; 337  : 
; 338  : 	return Py_BuildNone();
; 339  : }

  00023	8b e5		 mov	 esp, ebp
  00025	5d		 pop	 ebp
  00026	c3		 ret	 0
$LN2@chrSetRace:

; 331  : 
; 332  : 	CInstanceBase * pkInst = CPythonCharacterManager::Instance().GetSelectedInstancePtr();

  00027	8b 0d 00 00 00
	00		 mov	 ecx, DWORD PTR ?ms_singleton@?$CSingleton@VCPythonCharacterManager@@@@0PAVCPythonCharacterManager@@A ; CSingleton<CPythonCharacterManager>::ms_singleton
  0002d	e8 00 00 00 00	 call	 ?GetSelectedInstancePtr@CPythonCharacterManager@@QAEPAVCInstanceBase@@XZ ; CPythonCharacterManager::GetSelectedInstancePtr

; 333  : 	if (!pkInst)

  00032	85 c0		 test	 eax, eax
  00034	74 0a		 je	 SHORT $LN5@chrSetRace

; 334  : 		return Py_BuildNone();
; 335  : 
; 336  : 	pkInst->SetRace(iRace);

  00036	ff 75 fc	 push	 DWORD PTR _iRace$[ebp]
  00039	8b c8		 mov	 ecx, eax
  0003b	e8 00 00 00 00	 call	 ?SetRace@CInstanceBase@@QAE_NK@Z ; CInstanceBase::SetRace
$LN5@chrSetRace:

; 337  : 
; 338  : 	return Py_BuildNone();
; 339  : }

  00040	e8 00 00 00 00	 call	 ?Py_BuildNone@@YAPAU_object@@XZ ; Py_BuildNone
  00045	8b e5		 mov	 esp, ebp
  00047	5d		 pop	 ebp
  00048	c3		 ret	 0
?chrSetRace@@YAPAU_object@@PAU1@0@Z ENDP		; chrSetRace
_TEXT	ENDS
; Function compile flags: /Ogtp
; File D:\Metin2 Server Files\mainline\SRC_2014\Metin2Client\UserInterface\PythonCharacterModule.cpp
;	COMDAT ?chrPickAll@@YAPAU_object@@PAU1@0@Z
_TEXT	SEGMENT
_poSelf$ = 8						; size = 4
_poArgs$ = 12						; size = 4
?chrPickAll@@YAPAU_object@@PAU1@0@Z PROC		; chrPickAll, COMDAT

; 322  : 	DWORD VirtualID = CPythonCharacterManager::Instance().PickAll();

  00000	8b 0d 00 00 00
	00		 mov	 ecx, DWORD PTR ?ms_singleton@?$CSingleton@VCPythonCharacterManager@@@@0PAVCPythonCharacterManager@@A ; CSingleton<CPythonCharacterManager>::ms_singleton
  00006	e8 00 00 00 00	 call	 ?PickAll@CPythonCharacterManager@@QAEHXZ ; CPythonCharacterManager::PickAll

; 323  : 	return Py_BuildValue("i", VirtualID);

  0000b	50		 push	 eax
  0000c	68 00 00 00 00	 push	 OFFSET ??_C@_01KBJDNOO@i@
  00011	ff 15 00 00 00
	00		 call	 DWORD PTR __imp__Py_BuildValue
  00017	83 c4 08	 add	 esp, 8

; 324  : }

  0001a	c3		 ret	 0
?chrPickAll@@YAPAU_object@@PAU1@0@Z ENDP		; chrPickAll
_TEXT	ENDS
; Function compile flags: /Ogtp
; File D:\Metin2 Server Files\mainline\SRC_2014\Metin2Client\UserInterface\PythonCharacterModule.cpp
;	COMDAT ?chrShow@@YAPAU_object@@PAU1@0@Z
_TEXT	SEGMENT
_poSelf$ = 8						; size = 4
_poArgs$ = 12						; size = 4
?chrShow@@YAPAU_object@@PAU1@0@Z PROC			; chrShow, COMDAT

; 312  : 	CInstanceBase * pkInst = CPythonCharacterManager::Instance().GetSelectedInstancePtr();

  00000	8b 0d 00 00 00
	00		 mov	 ecx, DWORD PTR ?ms_singleton@?$CSingleton@VCPythonCharacterManager@@@@0PAVCPythonCharacterManager@@A ; CSingleton<CPythonCharacterManager>::ms_singleton
  00006	e8 00 00 00 00	 call	 ?GetSelectedInstancePtr@CPythonCharacterManager@@QAEPAVCInstanceBase@@XZ ; CPythonCharacterManager::GetSelectedInstancePtr

; 313  : 	if (!pkInst)

  0000b	85 c0		 test	 eax, eax
  0000d	0f 84 00 00 00
	00		 je	 ?Py_BuildNone@@YAPAU_object@@XZ ; Py_BuildNone

; 314  : 		return Py_BuildNone();
; 315  : 
; 316  : 	pkInst->Show();

  00013	8b c8		 mov	 ecx, eax
  00015	e8 00 00 00 00	 call	 ?Show@CInstanceBase@@QAEXXZ ; CInstanceBase::Show

; 317  : 	return Py_BuildNone();

  0001a	e9 00 00 00 00	 jmp	 ?Py_BuildNone@@YAPAU_object@@XZ ; Py_BuildNone
?chrShow@@YAPAU_object@@PAU1@0@Z ENDP			; chrShow
_TEXT	ENDS
; Function compile flags: /Ogtp
; File D:\Metin2 Server Files\mainline\SRC_2014\Metin2Client\UserInterface\PythonCharacterModule.cpp
;	COMDAT ?chrHide@@YAPAU_object@@PAU1@0@Z
_TEXT	SEGMENT
_poSelf$ = 8						; size = 4
_poArgs$ = 12						; size = 4
?chrHide@@YAPAU_object@@PAU1@0@Z PROC			; chrHide, COMDAT

; 302  : 	CInstanceBase * pkInst = CPythonCharacterManager::Instance().GetSelectedInstancePtr();

  00000	8b 0d 00 00 00
	00		 mov	 ecx, DWORD PTR ?ms_singleton@?$CSingleton@VCPythonCharacterManager@@@@0PAVCPythonCharacterManager@@A ; CSingleton<CPythonCharacterManager>::ms_singleton
  00006	e8 00 00 00 00	 call	 ?GetSelectedInstancePtr@CPythonCharacterManager@@QAEPAVCInstanceBase@@XZ ; CPythonCharacterManager::GetSelectedInstancePtr

; 303  : 	if (!pkInst)

  0000b	85 c0		 test	 eax, eax
  0000d	0f 84 00 00 00
	00		 je	 ?Py_BuildNone@@YAPAU_object@@XZ ; Py_BuildNone

; 304  : 		return Py_BuildNone();
; 305  : 
; 306  : 	pkInst->Hide();

  00013	8b c8		 mov	 ecx, eax
  00015	e8 00 00 00 00	 call	 ?Hide@CInstanceBase@@QAEXXZ ; CInstanceBase::Hide

; 307  : 	return Py_BuildNone();

  0001a	e9 00 00 00 00	 jmp	 ?Py_BuildNone@@YAPAU_object@@XZ ; Py_BuildNone
?chrHide@@YAPAU_object@@PAU1@0@Z ENDP			; chrHide
_TEXT	ENDS
; Function compile flags: /Ogtp
; File D:\Metin2 Server Files\mainline\SRC_2014\Metin2Client\UserInterface\PythonCharacterModule.cpp
;	COMDAT ?chrPick@@YAPAU_object@@PAU1@0@Z
_TEXT	SEGMENT
_VirtualID$ = -4					; size = 4
_poSelf$ = 8						; size = 4
_poArgs$ = 12						; size = 4
?chrPick@@YAPAU_object@@PAU1@0@Z PROC			; chrPick, COMDAT

; 292  : {

  00000	55		 push	 ebp
  00001	8b ec		 mov	 ebp, esp
  00003	51		 push	 ecx

; 293  : 	DWORD VirtualID = 0;
; 294  : 	if (CPythonCharacterManager::Instance().OLD_GetPickedInstanceVID(&VirtualID))

  00004	8b 0d 00 00 00
	00		 mov	 ecx, DWORD PTR ?ms_singleton@?$CSingleton@VCPythonCharacterManager@@@@0PAVCPythonCharacterManager@@A ; CSingleton<CPythonCharacterManager>::ms_singleton
  0000a	8d 45 fc	 lea	 eax, DWORD PTR _VirtualID$[ebp]
  0000d	50		 push	 eax
  0000e	c7 45 fc 00 00
	00 00		 mov	 DWORD PTR _VirtualID$[ebp], 0
  00015	e8 00 00 00 00	 call	 ?OLD_GetPickedInstanceVID@CPythonCharacterManager@@QAE_NPAK@Z ; CPythonCharacterManager::OLD_GetPickedInstanceVID
  0001a	84 c0		 test	 al, al
  0001c	74 15		 je	 SHORT $LN2@chrPick

; 295  : 		return Py_BuildValue("i", VirtualID);

  0001e	ff 75 fc	 push	 DWORD PTR _VirtualID$[ebp]

; 298  : }

  00021	68 00 00 00 00	 push	 OFFSET ??_C@_01KBJDNOO@i@
  00026	ff 15 00 00 00
	00		 call	 DWORD PTR __imp__Py_BuildValue
  0002c	83 c4 08	 add	 esp, 8
  0002f	8b e5		 mov	 esp, ebp
  00031	5d		 pop	 ebp
  00032	c3		 ret	 0
$LN2@chrPick:

; 296  : 	else
; 297  : 		return Py_BuildValue("i", -1);

  00033	6a ff		 push	 -1

; 298  : }

  00035	68 00 00 00 00	 push	 OFFSET ??_C@_01KBJDNOO@i@
  0003a	ff 15 00 00 00
	00		 call	 DWORD PTR __imp__Py_BuildValue
  00040	83 c4 08	 add	 esp, 8
  00043	8b e5		 mov	 esp, ebp
  00045	5d		 pop	 ebp
  00046	c3		 ret	 0
?chrPick@@YAPAU_object@@PAU1@0@Z ENDP			; chrPick
_TEXT	ENDS
; Function compile flags: /Ogtp
; File D:\Metin2 Server Files\mainline\SRC_2014\Metin2Client\UserInterface\PythonCharacterModule.cpp
;	COMDAT ?chrUnselect@@YAPAU_object@@PAU1@0@Z
_TEXT	SEGMENT
_iVirtualID$ = -4					; size = 4
_poSelf$ = 8						; size = 4
_poArgs$ = 12						; size = 4
?chrUnselect@@YAPAU_object@@PAU1@0@Z PROC		; chrUnselect, COMDAT

; 278  : {

  00000	55		 push	 ebp
  00001	8b ec		 mov	 ebp, esp
  00003	51		 push	 ecx

; 279  : 	int iVirtualID;
; 280  : 	if (!PyTuple_GetInteger(poArgs, 0, &iVirtualID))

  00004	8d 45 fc	 lea	 eax, DWORD PTR _iVirtualID$[ebp]
  00007	50		 push	 eax
  00008	6a 00		 push	 0
  0000a	ff 75 0c	 push	 DWORD PTR _poArgs$[ebp]
  0000d	e8 00 00 00 00	 call	 ?PyTuple_GetInteger@@YA_NPAU_object@@HPAH@Z ; PyTuple_GetInteger
  00012	83 c4 0c	 add	 esp, 12			; 0000000cH
  00015	84 c0		 test	 al, al
  00017	75 0e		 jne	 SHORT $LN2@chrUnselec

; 281  : 		return Py_BuildException();

  00019	6a 00		 push	 0
  0001b	e8 00 00 00 00	 call	 ?Py_BuildException@@YAPAU_object@@PBDZZ ; Py_BuildException
  00020	83 c4 04	 add	 esp, 4

; 288  : 	return Py_BuildNone();
; 289  : }

  00023	8b e5		 mov	 esp, ebp
  00025	5d		 pop	 ebp
  00026	c3		 ret	 0
$LN2@chrUnselec:

; 282  : 
; 283  : 	CInstanceBase * pkInst = CPythonCharacterManager::Instance().GetInstancePtr(iVirtualID);

  00027	8b 0d 00 00 00
	00		 mov	 ecx, DWORD PTR ?ms_singleton@?$CSingleton@VCPythonCharacterManager@@@@0PAVCPythonCharacterManager@@A ; CSingleton<CPythonCharacterManager>::ms_singleton
  0002d	ff 75 fc	 push	 DWORD PTR _iVirtualID$[ebp]
  00030	83 c1 04	 add	 ecx, 4
  00033	8b 01		 mov	 eax, DWORD PTR [ecx]
  00035	ff 50 08	 call	 DWORD PTR [eax+8]

; 284  : 	if (!pkInst)

  00038	85 c0		 test	 eax, eax
  0003a	74 07		 je	 SHORT $LN5@chrUnselec

; 285  : 		return Py_BuildNone();
; 286  : 
; 287  : 	pkInst->RestoreRenderMode();

  0003c	8b c8		 mov	 ecx, eax
  0003e	e8 00 00 00 00	 call	 ?RestoreRenderMode@CInstanceBase@@QAEXXZ ; CInstanceBase::RestoreRenderMode
$LN5@chrUnselec:

; 288  : 	return Py_BuildNone();
; 289  : }

  00043	e8 00 00 00 00	 call	 ?Py_BuildNone@@YAPAU_object@@XZ ; Py_BuildNone
  00048	8b e5		 mov	 esp, ebp
  0004a	5d		 pop	 ebp
  0004b	c3		 ret	 0
?chrUnselect@@YAPAU_object@@PAU1@0@Z ENDP		; chrUnselect
_TEXT	ENDS
; Function compile flags: /Ogtp
; File D:\Metin2 Server Files\mainline\SRC_2014\Metin2Client\UserInterface\PythonCharacterModule.cpp
;	COMDAT ?chrSetBlendRenderMode@@YAPAU_object@@PAU1@0@Z
_TEXT	SEGMENT
_fAlpha$ = -8						; size = 4
_iVirtualID$ = -4					; size = 4
_poSelf$ = 8						; size = 4
_poArgs$ = 12						; size = 4
?chrSetBlendRenderMode@@YAPAU_object@@PAU1@0@Z PROC	; chrSetBlendRenderMode, COMDAT

; 258  : {

  00000	55		 push	 ebp
  00001	8b ec		 mov	 ebp, esp
  00003	83 ec 08	 sub	 esp, 8

; 259  : 	int iVirtualID;
; 260  : 	if (!PyTuple_GetInteger(poArgs, 0, &iVirtualID))

  00006	8d 45 fc	 lea	 eax, DWORD PTR _iVirtualID$[ebp]
  00009	50		 push	 eax
  0000a	6a 00		 push	 0
  0000c	ff 75 0c	 push	 DWORD PTR _poArgs$[ebp]
  0000f	e8 00 00 00 00	 call	 ?PyTuple_GetInteger@@YA_NPAU_object@@HPAH@Z ; PyTuple_GetInteger
  00014	83 c4 0c	 add	 esp, 12			; 0000000cH
  00017	84 c0		 test	 al, al
  00019	75 0e		 jne	 SHORT $LN2@chrSetBlen
$LN7@chrSetBlen:

; 273  : 	
; 274  : 	return Py_BuildNone();
; 275  : }

  0001b	6a 00		 push	 0
  0001d	e8 00 00 00 00	 call	 ?Py_BuildException@@YAPAU_object@@PBDZZ ; Py_BuildException
  00022	83 c4 04	 add	 esp, 4
  00025	8b e5		 mov	 esp, ebp
  00027	5d		 pop	 ebp
  00028	c3		 ret	 0
$LN2@chrSetBlen:

; 261  : 		return Py_BuildException();
; 262  : 
; 263  : 	float fAlpha;
; 264  : 	if (!PyTuple_GetFloat(poArgs, 1, &fAlpha))

  00029	8d 45 f8	 lea	 eax, DWORD PTR _fAlpha$[ebp]
  0002c	50		 push	 eax
  0002d	6a 01		 push	 1
  0002f	ff 75 0c	 push	 DWORD PTR _poArgs$[ebp]
  00032	e8 00 00 00 00	 call	 ?PyTuple_GetFloat@@YA_NPAU_object@@HPAM@Z ; PyTuple_GetFloat
  00037	83 c4 0c	 add	 esp, 12			; 0000000cH
  0003a	84 c0		 test	 al, al
  0003c	74 dd		 je	 SHORT $LN7@chrSetBlen

; 265  : 		return Py_BuildException();
; 266  : 
; 267  : 	CInstanceBase * pkInst = CPythonCharacterManager::Instance().GetInstancePtr(iVirtualID);

  0003e	8b 0d 00 00 00
	00		 mov	 ecx, DWORD PTR ?ms_singleton@?$CSingleton@VCPythonCharacterManager@@@@0PAVCPythonCharacterManager@@A ; CSingleton<CPythonCharacterManager>::ms_singleton
  00044	ff 75 fc	 push	 DWORD PTR _iVirtualID$[ebp]
  00047	83 c1 04	 add	 ecx, 4
  0004a	8b 01		 mov	 eax, DWORD PTR [ecx]
  0004c	ff 50 08	 call	 DWORD PTR [eax+8]

; 268  : 
; 269  : 	if (!pkInst)

  0004f	85 c0		 test	 eax, eax
  00051	74 12		 je	 SHORT $LN6@chrSetBlen

; 270  : 		return Py_BuildNone();
; 271  : 
; 272  : 	pkInst->SetAlpha(fAlpha);

  00053	f3 0f 10 45 f8	 movss	 xmm0, DWORD PTR _fAlpha$[ebp]
  00058	51		 push	 ecx
  00059	8b c8		 mov	 ecx, eax
  0005b	f3 0f 11 04 24	 movss	 DWORD PTR [esp], xmm0
  00060	e8 00 00 00 00	 call	 ?SetAlpha@CInstanceBase@@QAEXM@Z ; CInstanceBase::SetAlpha
$LN6@chrSetBlen:

; 273  : 	
; 274  : 	return Py_BuildNone();
; 275  : }

  00065	e8 00 00 00 00	 call	 ?Py_BuildNone@@YAPAU_object@@XZ ; Py_BuildNone
  0006a	8b e5		 mov	 esp, ebp
  0006c	5d		 pop	 ebp
  0006d	c3		 ret	 0
?chrSetBlendRenderMode@@YAPAU_object@@PAU1@0@Z ENDP	; chrSetBlendRenderMode
_TEXT	ENDS
; Function compile flags: /Ogtp
; File D:\Metin2 Server Files\mainline\SRC_2014\Metin2Client\UserInterface\PythonCharacterModule.cpp
; File D:\Metin2 Server Files\mainline\SRC_2014\M2Data\include\d3dx8math.inl
; File D:\Metin2 Server Files\mainline\SRC_2014\Metin2Client\UserInterface\PythonCharacterModule.cpp
; File D:\Metin2 Server Files\mainline\SRC_2014\M2Data\include\d3dx8math.inl
; File D:\Metin2 Server Files\mainline\SRC_2014\Metin2Client\UserInterface\PythonCharacterModule.cpp
; File D:\Metin2 Server Files\mainline\SRC_2014\M2Data\include\d3dx8math.inl
; File D:\Metin2 Server Files\mainline\SRC_2014\Metin2Client\UserInterface\PythonCharacterModule.cpp
; File D:\Metin2 Server Files\mainline\SRC_2014\M2Data\include\d3dx8math.inl
; File D:\Metin2 Server Files\mainline\SRC_2014\Metin2Client\UserInterface\PythonCharacterModule.cpp
;	COMDAT ?chrSetAddRenderMode@@YAPAU_object@@PAU1@0@Z
_TEXT	SEGMENT
$T1 = -32						; size = 16
_fb$ = -16						; size = 4
_fg$ = -12						; size = 4
_fr$ = -8						; size = 4
_iVirtualID$ = -4					; size = 4
_poSelf$ = 8						; size = 4
_poArgs$ = 12						; size = 4
?chrSetAddRenderMode@@YAPAU_object@@PAU1@0@Z PROC	; chrSetAddRenderMode, COMDAT

; 231  : {

  00000	55		 push	 ebp
  00001	8b ec		 mov	 ebp, esp
  00003	83 ec 20	 sub	 esp, 32			; 00000020H

; 232  : 	int iVirtualID;
; 233  : 	if (!PyTuple_GetInteger(poArgs, 0, &iVirtualID))

  00006	8d 45 fc	 lea	 eax, DWORD PTR _iVirtualID$[ebp]
  00009	56		 push	 esi
  0000a	8b 75 0c	 mov	 esi, DWORD PTR _poArgs$[ebp]
  0000d	50		 push	 eax
  0000e	6a 00		 push	 0
  00010	56		 push	 esi
  00011	e8 00 00 00 00	 call	 ?PyTuple_GetInteger@@YA_NPAU_object@@HPAH@Z ; PyTuple_GetInteger
  00016	83 c4 0c	 add	 esp, 12			; 0000000cH
  00019	84 c0		 test	 al, al
  0001b	75 0f		 jne	 SHORT $LN2@chrSetAddR
$LN11@chrSetAddR:

; 253  : 
; 254  : 	return Py_BuildNone();
; 255  : }

  0001d	6a 00		 push	 0
  0001f	e8 00 00 00 00	 call	 ?Py_BuildException@@YAPAU_object@@PBDZZ ; Py_BuildException
  00024	83 c4 04	 add	 esp, 4
  00027	5e		 pop	 esi
  00028	8b e5		 mov	 esp, ebp
  0002a	5d		 pop	 ebp
  0002b	c3		 ret	 0
$LN2@chrSetAddR:

; 234  : 		return Py_BuildException();
; 235  : 
; 236  : 	float fr;
; 237  : 	if (!PyTuple_GetFloat(poArgs, 1, &fr))

  0002c	8d 45 f8	 lea	 eax, DWORD PTR _fr$[ebp]
  0002f	50		 push	 eax
  00030	6a 01		 push	 1
  00032	56		 push	 esi
  00033	e8 00 00 00 00	 call	 ?PyTuple_GetFloat@@YA_NPAU_object@@HPAM@Z ; PyTuple_GetFloat
  00038	83 c4 0c	 add	 esp, 12			; 0000000cH
  0003b	84 c0		 test	 al, al
  0003d	74 de		 je	 SHORT $LN11@chrSetAddR

; 238  : 		return Py_BuildException();
; 239  : 	float fg;
; 240  : 	if (!PyTuple_GetFloat(poArgs, 2, &fg))

  0003f	8d 45 f4	 lea	 eax, DWORD PTR _fg$[ebp]
  00042	50		 push	 eax
  00043	6a 02		 push	 2
  00045	56		 push	 esi
  00046	e8 00 00 00 00	 call	 ?PyTuple_GetFloat@@YA_NPAU_object@@HPAM@Z ; PyTuple_GetFloat
  0004b	83 c4 0c	 add	 esp, 12			; 0000000cH
  0004e	84 c0		 test	 al, al
  00050	74 cb		 je	 SHORT $LN11@chrSetAddR

; 241  : 		return Py_BuildException();
; 242  : 	float fb;
; 243  : 	if (!PyTuple_GetFloat(poArgs, 3, &fb))

  00052	8d 45 f0	 lea	 eax, DWORD PTR _fb$[ebp]
  00055	50		 push	 eax
  00056	6a 03		 push	 3
  00058	56		 push	 esi
  00059	e8 00 00 00 00	 call	 ?PyTuple_GetFloat@@YA_NPAU_object@@HPAM@Z ; PyTuple_GetFloat
  0005e	83 c4 0c	 add	 esp, 12			; 0000000cH
  00061	84 c0		 test	 al, al
  00063	74 b8		 je	 SHORT $LN11@chrSetAddR

; 244  : 		return Py_BuildException();
; 245  : 
; 246  : 	CInstanceBase * pkInst = CPythonCharacterManager::Instance().GetInstancePtr(iVirtualID);

  00065	8b 0d 00 00 00
	00		 mov	 ecx, DWORD PTR ?ms_singleton@?$CSingleton@VCPythonCharacterManager@@@@0PAVCPythonCharacterManager@@A ; CSingleton<CPythonCharacterManager>::ms_singleton
  0006b	ff 75 fc	 push	 DWORD PTR _iVirtualID$[ebp]
  0006e	83 c1 04	 add	 ecx, 4
  00071	8b 01		 mov	 eax, DWORD PTR [ecx]
  00073	ff 50 08	 call	 DWORD PTR [eax+8]
  00076	8b f0		 mov	 esi, eax

; 247  : 
; 248  : 	if (!pkInst)

  00078	85 f6		 test	 esi, esi
  0007a	74 37		 je	 SHORT $LN10@chrSetAddR

; 249  : 		return Py_BuildNone();
; 250  : 
; 251  : 	pkInst->SetAddRenderMode();

  0007c	8b ce		 mov	 ecx, esi
  0007e	e8 00 00 00 00	 call	 ?SetAddRenderMode@CInstanceBase@@QAEXXZ ; CInstanceBase::SetAddRenderMode
; File D:\Metin2 Server Files\mainline\SRC_2014\M2Data\include\d3dx8math.inl

; 920  :     r = fr;

  00083	f3 0f 10 45 f8	 movss	 xmm0, DWORD PTR _fr$[ebp]
; File D:\Metin2 Server Files\mainline\SRC_2014\Metin2Client\UserInterface\PythonCharacterModule.cpp

; 252  : 	pkInst->SetAddColor(D3DXCOLOR(fr, fg, fb, 1.0f));

  00088	8d 45 e0	 lea	 eax, DWORD PTR $T1[ebp]
; File D:\Metin2 Server Files\mainline\SRC_2014\M2Data\include\d3dx8math.inl

; 920  :     r = fr;

  0008b	f3 0f 11 45 e0	 movss	 DWORD PTR $T1[ebp], xmm0
; File D:\Metin2 Server Files\mainline\SRC_2014\Metin2Client\UserInterface\PythonCharacterModule.cpp

; 252  : 	pkInst->SetAddColor(D3DXCOLOR(fr, fg, fb, 1.0f));

  00090	8b ce		 mov	 ecx, esi
; File D:\Metin2 Server Files\mainline\SRC_2014\M2Data\include\d3dx8math.inl

; 921  :     g = fg;

  00092	f3 0f 10 45 f4	 movss	 xmm0, DWORD PTR _fg$[ebp]
  00097	f3 0f 11 45 e4	 movss	 DWORD PTR $T1[ebp+4], xmm0

; 922  :     b = fb;

  0009c	f3 0f 10 45 f0	 movss	 xmm0, DWORD PTR _fb$[ebp]
; File D:\Metin2 Server Files\mainline\SRC_2014\Metin2Client\UserInterface\PythonCharacterModule.cpp

; 252  : 	pkInst->SetAddColor(D3DXCOLOR(fr, fg, fb, 1.0f));

  000a1	50		 push	 eax
; File D:\Metin2 Server Files\mainline\SRC_2014\M2Data\include\d3dx8math.inl

; 922  :     b = fb;

  000a2	f3 0f 11 45 e8	 movss	 DWORD PTR $T1[ebp+8], xmm0

; 923  :     a = fa;

  000a7	c7 45 ec 00 00
	80 3f		 mov	 DWORD PTR $T1[ebp+12], 1065353216 ; 3f800000H
; File D:\Metin2 Server Files\mainline\SRC_2014\Metin2Client\UserInterface\PythonCharacterModule.cpp

; 252  : 	pkInst->SetAddColor(D3DXCOLOR(fr, fg, fb, 1.0f));

  000ae	e8 00 00 00 00	 call	 ?SetAddColor@CInstanceBase@@QAEXABUD3DXCOLOR@@@Z ; CInstanceBase::SetAddColor
$LN10@chrSetAddR:

; 253  : 
; 254  : 	return Py_BuildNone();
; 255  : }

  000b3	e8 00 00 00 00	 call	 ?Py_BuildNone@@YAPAU_object@@XZ ; Py_BuildNone
  000b8	5e		 pop	 esi
  000b9	8b e5		 mov	 esp, ebp
  000bb	5d		 pop	 ebp
  000bc	c3		 ret	 0
?chrSetAddRenderMode@@YAPAU_object@@PAU1@0@Z ENDP	; chrSetAddRenderMode
_TEXT	ENDS
; Function compile flags: /Ogtp
; File D:\Metin2 Server Files\mainline\SRC_2014\Metin2Client\UserInterface\PythonCharacterModule.cpp
; File D:\Metin2 Server Files\mainline\SRC_2014\M2Data\include\d3dx8math.inl
; File D:\Metin2 Server Files\mainline\SRC_2014\Metin2Client\UserInterface\PythonCharacterModule.cpp
; File D:\Metin2 Server Files\mainline\SRC_2014\M2Data\include\d3dx8math.inl
; File D:\Metin2 Server Files\mainline\SRC_2014\Metin2Client\UserInterface\PythonCharacterModule.cpp
;	COMDAT ?chrSelect@@YAPAU_object@@PAU1@0@Z
_TEXT	SEGMENT
$T1 = -20						; size = 16
_iVirtualID$ = -4					; size = 4
_poSelf$ = 8						; size = 4
_poArgs$ = 12						; size = 4
?chrSelect@@YAPAU_object@@PAU1@0@Z PROC			; chrSelect, COMDAT

; 204  : {

  00000	55		 push	 ebp
  00001	8b ec		 mov	 ebp, esp
  00003	83 ec 14	 sub	 esp, 20			; 00000014H

; 205  : 	int iVirtualID;
; 206  : 	if (!PyTuple_GetInteger(poArgs, 0, &iVirtualID))

  00006	8d 45 fc	 lea	 eax, DWORD PTR _iVirtualID$[ebp]
  00009	50		 push	 eax
  0000a	6a 00		 push	 0
  0000c	ff 75 0c	 push	 DWORD PTR _poArgs$[ebp]
  0000f	e8 00 00 00 00	 call	 ?PyTuple_GetInteger@@YA_NPAU_object@@HPAH@Z ; PyTuple_GetInteger
  00014	83 c4 0c	 add	 esp, 12			; 0000000cH
  00017	84 c0		 test	 al, al
  00019	75 0e		 jne	 SHORT $LN4@chrSelect

; 207  : 		return Py_BuildException();

  0001b	6a 00		 push	 0
  0001d	e8 00 00 00 00	 call	 ?Py_BuildException@@YAPAU_object@@PBDZZ ; Py_BuildException
  00022	83 c4 04	 add	 esp, 4

; 228  : }

  00025	8b e5		 mov	 esp, ebp
  00027	5d		 pop	 ebp
  00028	c3		 ret	 0
$LN4@chrSelect:

; 208  : 
; 209  : 	CInstanceBase * pkInst = CPythonCharacterManager::Instance().GetInstancePtr(iVirtualID);

  00029	8b 0d 00 00 00
	00		 mov	 ecx, DWORD PTR ?ms_singleton@?$CSingleton@VCPythonCharacterManager@@@@0PAVCPythonCharacterManager@@A ; CSingleton<CPythonCharacterManager>::ms_singleton
  0002f	83 c1 04	 add	 ecx, 4
  00032	56		 push	 esi
  00033	ff 75 fc	 push	 DWORD PTR _iVirtualID$[ebp]
  00036	8b 01		 mov	 eax, DWORD PTR [ecx]
  00038	ff 50 08	 call	 DWORD PTR [eax+8]
  0003b	8b f0		 mov	 esi, eax

; 210  : 	
; 211  : 	if (!pkInst)

  0003d	85 f6		 test	 esi, esi
  0003f	74 38		 je	 SHORT $LN7@chrSelect

; 212  : 		return Py_BuildNone();
; 213  : 
; 214  : 	switch (CPythonNonPlayer::Instance().GetEventType(pkInst->GetVirtualNumber()))

  00041	8b ce		 mov	 ecx, esi
  00043	e8 00 00 00 00	 call	 ?GetVirtualNumber@CInstanceBase@@QAEKXZ ; CInstanceBase::GetVirtualNumber
  00048	8b 0d 00 00 00
	00		 mov	 ecx, DWORD PTR ?ms_singleton@?$CSingleton@VCPythonNonPlayer@@@@0PAVCPythonNonPlayer@@A ; CSingleton<CPythonNonPlayer>::ms_singleton
  0004e	50		 push	 eax
  0004f	e8 00 00 00 00	 call	 ?GetEventType@CPythonNonPlayer@@QAEEK@Z ; CPythonNonPlayer::GetEventType
  00054	0f b6 c0	 movzx	 eax, al
  00057	83 e8 02	 sub	 eax, 2
  0005a	75 1d		 jne	 SHORT $LN7@chrSelect

; 215  : 	{
; 216  : 		case CPythonNonPlayer::ON_CLICK_EVENT_SHOP:
; 217  : 			pkInst->SetAddRenderMode();

  0005c	8b ce		 mov	 ecx, esi
  0005e	e8 00 00 00 00	 call	 ?SetAddRenderMode@CInstanceBase@@QAEXXZ ; CInstanceBase::SetAddRenderMode
; File D:\Metin2 Server Files\mainline\SRC_2014\M2Data\include\d3dx8math.inl

; 920  :     r = fr;

  00063	0f 28 05 00 00
	00 00		 movaps	 xmm0, XMMWORD PTR __xmm@3f800000000000003e99999a00000000
; File D:\Metin2 Server Files\mainline\SRC_2014\Metin2Client\UserInterface\PythonCharacterModule.cpp

; 218  : 			pkInst->SetAddColor(D3DXCOLOR(0.0f, 0.3f, 0.0f, 1.0f));

  0006a	8d 45 ec	 lea	 eax, DWORD PTR $T1[ebp]
  0006d	50		 push	 eax
  0006e	8b ce		 mov	 ecx, esi
; File D:\Metin2 Server Files\mainline\SRC_2014\M2Data\include\d3dx8math.inl

; 920  :     r = fr;

  00070	0f 11 45 ec	 movups	 XMMWORD PTR $T1[ebp], xmm0
; File D:\Metin2 Server Files\mainline\SRC_2014\Metin2Client\UserInterface\PythonCharacterModule.cpp

; 218  : 			pkInst->SetAddColor(D3DXCOLOR(0.0f, 0.3f, 0.0f, 1.0f));

  00074	e8 00 00 00 00	 call	 ?SetAddColor@CInstanceBase@@QAEXABUD3DXCOLOR@@@Z ; CInstanceBase::SetAddColor
$LN7@chrSelect:

; 219  : 			break;
; 220  : 
; 221  : 		default:
; 222  : 			// NOTE:           [cronan 040226]
; 223  : 			//pkInst->SetAddColor(D3DXCOLOR(0.3f, 0.0f, 0.0f, 1.0f));
; 224  : 			break;
; 225  : 	}
; 226  : 
; 227  : 	return Py_BuildNone();

  00079	e8 00 00 00 00	 call	 ?Py_BuildNone@@YAPAU_object@@XZ ; Py_BuildNone
  0007e	5e		 pop	 esi

; 228  : }

  0007f	8b e5		 mov	 esp, ebp
  00081	5d		 pop	 ebp
  00082	c3		 ret	 0
?chrSelect@@YAPAU_object@@PAU1@0@Z ENDP			; chrSelect
_TEXT	ENDS
; Function compile flags: /Ogtp
; File D:\Metin2 Server Files\mainline\SRC_2014\Metin2Client\UserInterface\PythonCharacterModule.cpp
;	COMDAT ?chrIsPartyMember@@YAPAU_object@@PAU1@0@Z
_TEXT	SEGMENT
_iVirtualID$ = -4					; size = 4
_poSelf$ = 8						; size = 4
_poArgs$ = 12						; size = 4
?chrIsPartyMember@@YAPAU_object@@PAU1@0@Z PROC		; chrIsPartyMember, COMDAT

; 191  : {

  00000	55		 push	 ebp
  00001	8b ec		 mov	 ebp, esp
  00003	51		 push	 ecx

; 192  : 	int iVirtualID;
; 193  : 	if (!PyTuple_GetInteger(poArgs, 0, &iVirtualID))

  00004	8d 45 fc	 lea	 eax, DWORD PTR _iVirtualID$[ebp]
  00007	50		 push	 eax
  00008	6a 00		 push	 0
  0000a	ff 75 0c	 push	 DWORD PTR _poArgs$[ebp]
  0000d	e8 00 00 00 00	 call	 ?PyTuple_GetInteger@@YA_NPAU_object@@HPAH@Z ; PyTuple_GetInteger
  00012	83 c4 0c	 add	 esp, 12			; 0000000cH
  00015	84 c0		 test	 al, al
  00017	75 0e		 jne	 SHORT $LN2@chrIsParty

; 194  : 		return Py_BuildException();

  00019	6a 00		 push	 0
  0001b	e8 00 00 00 00	 call	 ?Py_BuildException@@YAPAU_object@@PBDZZ ; Py_BuildException
  00020	83 c4 04	 add	 esp, 4

; 201  : }

  00023	8b e5		 mov	 esp, ebp
  00025	5d		 pop	 ebp
  00026	c3		 ret	 0
$LN2@chrIsParty:

; 195  : 
; 196  : 	CInstanceBase * pInstance = CPythonCharacterManager::Instance().GetInstancePtr(iVirtualID);

  00027	8b 0d 00 00 00
	00		 mov	 ecx, DWORD PTR ?ms_singleton@?$CSingleton@VCPythonCharacterManager@@@@0PAVCPythonCharacterManager@@A ; CSingleton<CPythonCharacterManager>::ms_singleton
  0002d	ff 75 fc	 push	 DWORD PTR _iVirtualID$[ebp]
  00030	83 c1 04	 add	 ecx, 4
  00033	8b 01		 mov	 eax, DWORD PTR [ecx]
  00035	ff 50 08	 call	 DWORD PTR [eax+8]

; 197  : 	if (!pInstance)

  00038	85 c0		 test	 eax, eax
  0003a	75 13		 jne	 SHORT $LN3@chrIsParty

; 198  : 		return Py_BuildValue("i", 0);

  0003c	50		 push	 eax

; 201  : }

  0003d	68 00 00 00 00	 push	 OFFSET ??_C@_01KBJDNOO@i@
  00042	ff 15 00 00 00
	00		 call	 DWORD PTR __imp__Py_BuildValue
  00048	83 c4 08	 add	 esp, 8
  0004b	8b e5		 mov	 esp, ebp
  0004d	5d		 pop	 ebp
  0004e	c3		 ret	 0
$LN3@chrIsParty:

; 199  : 
; 200  : 	return Py_BuildValue("i", pInstance->IsPartyMember());

  0004f	8b c8		 mov	 ecx, eax
  00051	e8 00 00 00 00	 call	 ?IsPartyMember@CInstanceBase@@QAE_NXZ ; CInstanceBase::IsPartyMember
  00056	0f b6 c0	 movzx	 eax, al
  00059	50		 push	 eax

; 201  : }

  0005a	68 00 00 00 00	 push	 OFFSET ??_C@_01KBJDNOO@i@
  0005f	ff 15 00 00 00
	00		 call	 DWORD PTR __imp__Py_BuildValue
  00065	83 c4 08	 add	 esp, 8
  00068	8b e5		 mov	 esp, ebp
  0006a	5d		 pop	 ebp
  0006b	c3		 ret	 0
?chrIsPartyMember@@YAPAU_object@@PAU1@0@Z ENDP		; chrIsPartyMember
_TEXT	ENDS
; Function compile flags: /Ogtp
; File D:\Metin2 Server Files\mainline\SRC_2014\Metin2Client\UserInterface\PythonCharacterModule.cpp
;	COMDAT ?chrIsGameMaster@@YAPAU_object@@PAU1@0@Z
_TEXT	SEGMENT
_iVirtualID$ = -4					; size = 4
_poSelf$ = 8						; size = 4
_poArgs$ = 12						; size = 4
?chrIsGameMaster@@YAPAU_object@@PAU1@0@Z PROC		; chrIsGameMaster, COMDAT

; 178  : {

  00000	55		 push	 ebp
  00001	8b ec		 mov	 ebp, esp
  00003	51		 push	 ecx

; 179  : 	int iVirtualID;
; 180  : 	if (!PyTuple_GetInteger(poArgs, 0, &iVirtualID))

  00004	8d 45 fc	 lea	 eax, DWORD PTR _iVirtualID$[ebp]
  00007	50		 push	 eax
  00008	6a 00		 push	 0
  0000a	ff 75 0c	 push	 DWORD PTR _poArgs$[ebp]
  0000d	e8 00 00 00 00	 call	 ?PyTuple_GetInteger@@YA_NPAU_object@@HPAH@Z ; PyTuple_GetInteger
  00012	83 c4 0c	 add	 esp, 12			; 0000000cH
  00015	84 c0		 test	 al, al
  00017	75 0e		 jne	 SHORT $LN2@chrIsGameM

; 181  : 		return Py_BuildException();

  00019	6a 00		 push	 0
  0001b	e8 00 00 00 00	 call	 ?Py_BuildException@@YAPAU_object@@PBDZZ ; Py_BuildException
  00020	83 c4 04	 add	 esp, 4

; 188  : }

  00023	8b e5		 mov	 esp, ebp
  00025	5d		 pop	 ebp
  00026	c3		 ret	 0
$LN2@chrIsGameM:

; 182  : 
; 183  : 	CInstanceBase * pInstance = CPythonCharacterManager::Instance().GetInstancePtr(iVirtualID);

  00027	8b 0d 00 00 00
	00		 mov	 ecx, DWORD PTR ?ms_singleton@?$CSingleton@VCPythonCharacterManager@@@@0PAVCPythonCharacterManager@@A ; CSingleton<CPythonCharacterManager>::ms_singleton
  0002d	ff 75 fc	 push	 DWORD PTR _iVirtualID$[ebp]
  00030	83 c1 04	 add	 ecx, 4
  00033	8b 01		 mov	 eax, DWORD PTR [ecx]
  00035	ff 50 08	 call	 DWORD PTR [eax+8]

; 184  : 	if (!pInstance)

  00038	85 c0		 test	 eax, eax
  0003a	75 13		 jne	 SHORT $LN3@chrIsGameM

; 185  : 		return Py_BuildValue("i", 0);

  0003c	50		 push	 eax

; 188  : }

  0003d	68 00 00 00 00	 push	 OFFSET ??_C@_01KBJDNOO@i@
  00042	ff 15 00 00 00
	00		 call	 DWORD PTR __imp__Py_BuildValue
  00048	83 c4 08	 add	 esp, 8
  0004b	8b e5		 mov	 esp, ebp
  0004d	5d		 pop	 ebp
  0004e	c3		 ret	 0
$LN3@chrIsGameM:

; 186  : 
; 187  : 	return Py_BuildValue("i", pInstance->IsGameMaster());

  0004f	8b c8		 mov	 ecx, eax
  00051	e8 00 00 00 00	 call	 ?IsGameMaster@CInstanceBase@@QAEHXZ ; CInstanceBase::IsGameMaster
  00056	50		 push	 eax

; 188  : }

  00057	68 00 00 00 00	 push	 OFFSET ??_C@_01KBJDNOO@i@
  0005c	ff 15 00 00 00
	00		 call	 DWORD PTR __imp__Py_BuildValue
  00062	83 c4 08	 add	 esp, 8
  00065	8b e5		 mov	 esp, ebp
  00067	5d		 pop	 ebp
  00068	c3		 ret	 0
?chrIsGameMaster@@YAPAU_object@@PAU1@0@Z ENDP		; chrIsGameMaster
_TEXT	ENDS
; Function compile flags: /Ogtp
; File D:\Metin2 Server Files\mainline\SRC_2014\Metin2Client\UserInterface\PythonCharacterModule.cpp
;	COMDAT ?chrIsNPC@@YAPAU_object@@PAU1@0@Z
_TEXT	SEGMENT
_iVirtualID$ = -4					; size = 4
_poSelf$ = 8						; size = 4
_poArgs$ = 12						; size = 4
?chrIsNPC@@YAPAU_object@@PAU1@0@Z PROC			; chrIsNPC, COMDAT

; 165  : {

  00000	55		 push	 ebp
  00001	8b ec		 mov	 ebp, esp
  00003	51		 push	 ecx

; 166  : 	int iVirtualID;
; 167  : 	if (!PyTuple_GetInteger(poArgs, 0, &iVirtualID))

  00004	8d 45 fc	 lea	 eax, DWORD PTR _iVirtualID$[ebp]
  00007	50		 push	 eax
  00008	6a 00		 push	 0
  0000a	ff 75 0c	 push	 DWORD PTR _poArgs$[ebp]
  0000d	e8 00 00 00 00	 call	 ?PyTuple_GetInteger@@YA_NPAU_object@@HPAH@Z ; PyTuple_GetInteger
  00012	83 c4 0c	 add	 esp, 12			; 0000000cH
  00015	84 c0		 test	 al, al
  00017	75 0e		 jne	 SHORT $LN2@chrIsNPC

; 168  : 		return Py_BuildException();

  00019	6a 00		 push	 0
  0001b	e8 00 00 00 00	 call	 ?Py_BuildException@@YAPAU_object@@PBDZZ ; Py_BuildException
  00020	83 c4 04	 add	 esp, 4

; 175  : }

  00023	8b e5		 mov	 esp, ebp
  00025	5d		 pop	 ebp
  00026	c3		 ret	 0
$LN2@chrIsNPC:

; 169  : 
; 170  : 	CInstanceBase * pInstance = CPythonCharacterManager::Instance().GetInstancePtr(iVirtualID);

  00027	8b 0d 00 00 00
	00		 mov	 ecx, DWORD PTR ?ms_singleton@?$CSingleton@VCPythonCharacterManager@@@@0PAVCPythonCharacterManager@@A ; CSingleton<CPythonCharacterManager>::ms_singleton
  0002d	ff 75 fc	 push	 DWORD PTR _iVirtualID$[ebp]
  00030	83 c1 04	 add	 ecx, 4
  00033	8b 01		 mov	 eax, DWORD PTR [ecx]
  00035	ff 50 08	 call	 DWORD PTR [eax+8]

; 171  : 	if (!pInstance)

  00038	85 c0		 test	 eax, eax
  0003a	75 13		 jne	 SHORT $LN3@chrIsNPC

; 172  : 		return Py_BuildValue("i", 0);

  0003c	50		 push	 eax

; 175  : }

  0003d	68 00 00 00 00	 push	 OFFSET ??_C@_01KBJDNOO@i@
  00042	ff 15 00 00 00
	00		 call	 DWORD PTR __imp__Py_BuildValue
  00048	83 c4 08	 add	 esp, 8
  0004b	8b e5		 mov	 esp, ebp
  0004d	5d		 pop	 ebp
  0004e	c3		 ret	 0
$LN3@chrIsNPC:

; 173  : 
; 174  : 	return Py_BuildValue("i", pInstance->IsNPC());

  0004f	8b c8		 mov	 ecx, eax
  00051	e8 00 00 00 00	 call	 ?IsNPC@CInstanceBase@@QAEHXZ ; CInstanceBase::IsNPC
  00056	50		 push	 eax

; 175  : }

  00057	68 00 00 00 00	 push	 OFFSET ??_C@_01KBJDNOO@i@
  0005c	ff 15 00 00 00
	00		 call	 DWORD PTR __imp__Py_BuildValue
  00062	83 c4 08	 add	 esp, 8
  00065	8b e5		 mov	 esp, ebp
  00067	5d		 pop	 ebp
  00068	c3		 ret	 0
?chrIsNPC@@YAPAU_object@@PAU1@0@Z ENDP			; chrIsNPC
_TEXT	ENDS
; Function compile flags: /Ogtp
; File D:\Metin2 Server Files\mainline\SRC_2014\Metin2Client\UserInterface\PythonCharacterModule.cpp
;	COMDAT ?chrIsEnemy@@YAPAU_object@@PAU1@0@Z
_TEXT	SEGMENT
_iVirtualID$ = -4					; size = 4
_poSelf$ = 8						; size = 4
_poArgs$ = 12						; size = 4
?chrIsEnemy@@YAPAU_object@@PAU1@0@Z PROC		; chrIsEnemy, COMDAT

; 152  : {

  00000	55		 push	 ebp
  00001	8b ec		 mov	 ebp, esp
  00003	51		 push	 ecx

; 153  : 	int iVirtualID;
; 154  : 	if (!PyTuple_GetInteger(poArgs, 0, &iVirtualID))

  00004	8d 45 fc	 lea	 eax, DWORD PTR _iVirtualID$[ebp]
  00007	50		 push	 eax
  00008	6a 00		 push	 0
  0000a	ff 75 0c	 push	 DWORD PTR _poArgs$[ebp]
  0000d	e8 00 00 00 00	 call	 ?PyTuple_GetInteger@@YA_NPAU_object@@HPAH@Z ; PyTuple_GetInteger
  00012	83 c4 0c	 add	 esp, 12			; 0000000cH
  00015	84 c0		 test	 al, al
  00017	75 0e		 jne	 SHORT $LN2@chrIsEnemy

; 155  : 		return Py_BuildException();

  00019	6a 00		 push	 0
  0001b	e8 00 00 00 00	 call	 ?Py_BuildException@@YAPAU_object@@PBDZZ ; Py_BuildException
  00020	83 c4 04	 add	 esp, 4

; 162  : }

  00023	8b e5		 mov	 esp, ebp
  00025	5d		 pop	 ebp
  00026	c3		 ret	 0
$LN2@chrIsEnemy:

; 156  : 
; 157  : 	CInstanceBase * pInstance = CPythonCharacterManager::Instance().GetInstancePtr(iVirtualID);

  00027	8b 0d 00 00 00
	00		 mov	 ecx, DWORD PTR ?ms_singleton@?$CSingleton@VCPythonCharacterManager@@@@0PAVCPythonCharacterManager@@A ; CSingleton<CPythonCharacterManager>::ms_singleton
  0002d	ff 75 fc	 push	 DWORD PTR _iVirtualID$[ebp]
  00030	83 c1 04	 add	 ecx, 4
  00033	8b 01		 mov	 eax, DWORD PTR [ecx]
  00035	ff 50 08	 call	 DWORD PTR [eax+8]

; 158  : 	if (!pInstance)

  00038	85 c0		 test	 eax, eax
  0003a	75 13		 jne	 SHORT $LN3@chrIsEnemy

; 159  : 		return Py_BuildValue("i", 0);

  0003c	50		 push	 eax

; 162  : }

  0003d	68 00 00 00 00	 push	 OFFSET ??_C@_01KBJDNOO@i@
  00042	ff 15 00 00 00
	00		 call	 DWORD PTR __imp__Py_BuildValue
  00048	83 c4 08	 add	 esp, 8
  0004b	8b e5		 mov	 esp, ebp
  0004d	5d		 pop	 ebp
  0004e	c3		 ret	 0
$LN3@chrIsEnemy:

; 160  : 
; 161  : 	return Py_BuildValue("i", pInstance->IsEnemy());

  0004f	8b c8		 mov	 ecx, eax
  00051	e8 00 00 00 00	 call	 ?IsEnemy@CInstanceBase@@QAEHXZ ; CInstanceBase::IsEnemy
  00056	50		 push	 eax

; 162  : }

  00057	68 00 00 00 00	 push	 OFFSET ??_C@_01KBJDNOO@i@
  0005c	ff 15 00 00 00
	00		 call	 DWORD PTR __imp__Py_BuildValue
  00062	83 c4 08	 add	 esp, 8
  00065	8b e5		 mov	 esp, ebp
  00067	5d		 pop	 ebp
  00068	c3		 ret	 0
?chrIsEnemy@@YAPAU_object@@PAU1@0@Z ENDP		; chrIsEnemy
_TEXT	ENDS
; Function compile flags: /Ogtp
; File D:\Metin2 Server Files\mainline\SRC_2014\Metin2Client\UserInterface\PythonCharacterModule.cpp
;	COMDAT ?chrHasInstance@@YAPAU_object@@PAU1@0@Z
_TEXT	SEGMENT
_iVirtualID$ = -4					; size = 4
_poSelf$ = 8						; size = 4
_poArgs$ = 12						; size = 4
?chrHasInstance@@YAPAU_object@@PAU1@0@Z PROC		; chrHasInstance, COMDAT

; 142  : {

  00000	55		 push	 ebp
  00001	8b ec		 mov	 ebp, esp
  00003	51		 push	 ecx

; 143  : 	int iVirtualID;
; 144  : 	if (!PyTuple_GetInteger(poArgs, 0, &iVirtualID))

  00004	8d 45 fc	 lea	 eax, DWORD PTR _iVirtualID$[ebp]
  00007	50		 push	 eax
  00008	6a 00		 push	 0
  0000a	ff 75 0c	 push	 DWORD PTR _poArgs$[ebp]
  0000d	e8 00 00 00 00	 call	 ?PyTuple_GetInteger@@YA_NPAU_object@@HPAH@Z ; PyTuple_GetInteger
  00012	83 c4 0c	 add	 esp, 12			; 0000000cH
  00015	84 c0		 test	 al, al
  00017	75 0e		 jne	 SHORT $LN2@chrHasInst

; 145  : 		return Py_BuildException();

  00019	6a 00		 push	 0
  0001b	e8 00 00 00 00	 call	 ?Py_BuildException@@YAPAU_object@@PBDZZ ; Py_BuildException
  00020	83 c4 04	 add	 esp, 4

; 149  : }

  00023	8b e5		 mov	 esp, ebp
  00025	5d		 pop	 ebp
  00026	c3		 ret	 0
$LN2@chrHasInst:

; 146  : 
; 147  : 	bool bFlag = CPythonCharacterManager::Instance().GetInstancePtr(iVirtualID) ? TRUE : FALSE;

  00027	8b 0d 00 00 00
	00		 mov	 ecx, DWORD PTR ?ms_singleton@?$CSingleton@VCPythonCharacterManager@@@@0PAVCPythonCharacterManager@@A ; CSingleton<CPythonCharacterManager>::ms_singleton
  0002d	ff 75 fc	 push	 DWORD PTR _iVirtualID$[ebp]
  00030	83 c1 04	 add	 ecx, 4
  00033	8b 01		 mov	 eax, DWORD PTR [ecx]
  00035	ff 50 08	 call	 DWORD PTR [eax+8]

; 148  : 	return Py_BuildValue("i", bFlag);

  00038	33 c9		 xor	 ecx, ecx
  0003a	85 c0		 test	 eax, eax
  0003c	0f 95 c1	 setne	 cl
  0003f	51		 push	 ecx
  00040	68 00 00 00 00	 push	 OFFSET ??_C@_01KBJDNOO@i@
  00045	ff 15 00 00 00
	00		 call	 DWORD PTR __imp__Py_BuildValue
  0004b	83 c4 08	 add	 esp, 8

; 149  : }

  0004e	8b e5		 mov	 esp, ebp
  00050	5d		 pop	 ebp
  00051	c3		 ret	 0
?chrHasInstance@@YAPAU_object@@PAU1@0@Z ENDP		; chrHasInstance
_TEXT	ENDS
; Function compile flags: /Ogtp
; File D:\Metin2 Server Files\mainline\SRC_2014\Metin2Client\UserInterface\PythonCharacterModule.cpp
;	COMDAT ?chrSelectInstance@@YAPAU_object@@PAU1@0@Z
_TEXT	SEGMENT
_iVirtualID$ = -4					; size = 4
_poSelf$ = 8						; size = 4
_poArgs$ = 12						; size = 4
?chrSelectInstance@@YAPAU_object@@PAU1@0@Z PROC		; chrSelectInstance, COMDAT

; 132  : {

  00000	55		 push	 ebp
  00001	8b ec		 mov	 ebp, esp
  00003	51		 push	 ecx

; 133  : 	int iVirtualID;
; 134  : 	if (!PyTuple_GetInteger(poArgs, 0, &iVirtualID))

  00004	8d 45 fc	 lea	 eax, DWORD PTR _iVirtualID$[ebp]
  00007	50		 push	 eax
  00008	6a 00		 push	 0
  0000a	ff 75 0c	 push	 DWORD PTR _poArgs$[ebp]
  0000d	e8 00 00 00 00	 call	 ?PyTuple_GetInteger@@YA_NPAU_object@@HPAH@Z ; PyTuple_GetInteger
  00012	83 c4 0c	 add	 esp, 12			; 0000000cH
  00015	84 c0		 test	 al, al
  00017	75 0e		 jne	 SHORT $LN2@chrSelectI

; 135  : 		return Py_BuildException();

  00019	6a 00		 push	 0
  0001b	e8 00 00 00 00	 call	 ?Py_BuildException@@YAPAU_object@@PBDZZ ; Py_BuildException
  00020	83 c4 04	 add	 esp, 4

; 139  : }

  00023	8b e5		 mov	 esp, ebp
  00025	5d		 pop	 ebp
  00026	c3		 ret	 0
$LN2@chrSelectI:

; 136  : 
; 137  : 	CPythonCharacterManager::Instance().SelectInstance(iVirtualID);

  00027	ff 75 fc	 push	 DWORD PTR _iVirtualID$[ebp]
  0002a	8b 0d 00 00 00
	00		 mov	 ecx, DWORD PTR ?ms_singleton@?$CSingleton@VCPythonCharacterManager@@@@0PAVCPythonCharacterManager@@A ; CSingleton<CPythonCharacterManager>::ms_singleton
  00030	e8 00 00 00 00	 call	 ?SelectInstance@CPythonCharacterManager@@QAEXK@Z ; CPythonCharacterManager::SelectInstance

; 138  : 	return Py_BuildNone();

  00035	e8 00 00 00 00	 call	 ?Py_BuildNone@@YAPAU_object@@XZ ; Py_BuildNone

; 139  : }

  0003a	8b e5		 mov	 esp, ebp
  0003c	5d		 pop	 ebp
  0003d	c3		 ret	 0
?chrSelectInstance@@YAPAU_object@@PAU1@0@Z ENDP		; chrSelectInstance
_TEXT	ENDS
; Function compile flags: /Ogtp
; File D:\Metin2 Server Files\mainline\SRC_2014\Metin2Client\UserInterface\PythonCharacterModule.cpp
;	COMDAT ?chrDeleteInstanceByFade@@YAPAU_object@@PAU1@0@Z
_TEXT	SEGMENT
_iVirtualID$ = -4					; size = 4
_poSelf$ = 8						; size = 4
_poArgs$ = 12						; size = 4
?chrDeleteInstanceByFade@@YAPAU_object@@PAU1@0@Z PROC	; chrDeleteInstanceByFade, COMDAT

; 122  : {

  00000	55		 push	 ebp
  00001	8b ec		 mov	 ebp, esp
  00003	51		 push	 ecx

; 123  : 	int iVirtualID;
; 124  : 	if (!PyTuple_GetInteger(poArgs, 0, &iVirtualID))

  00004	8d 45 fc	 lea	 eax, DWORD PTR _iVirtualID$[ebp]
  00007	50		 push	 eax
  00008	6a 00		 push	 0
  0000a	ff 75 0c	 push	 DWORD PTR _poArgs$[ebp]
  0000d	e8 00 00 00 00	 call	 ?PyTuple_GetInteger@@YA_NPAU_object@@HPAH@Z ; PyTuple_GetInteger
  00012	83 c4 0c	 add	 esp, 12			; 0000000cH
  00015	84 c0		 test	 al, al
  00017	75 0e		 jne	 SHORT $LN2@chrDeleteI

; 125  : 		return Py_BuildException();

  00019	6a 00		 push	 0
  0001b	e8 00 00 00 00	 call	 ?Py_BuildException@@YAPAU_object@@PBDZZ ; Py_BuildException
  00020	83 c4 04	 add	 esp, 4

; 129  : }

  00023	8b e5		 mov	 esp, ebp
  00025	5d		 pop	 ebp
  00026	c3		 ret	 0
$LN2@chrDeleteI:

; 126  : 
; 127  : 	CPythonCharacterManager::Instance().DeleteInstanceByFade(iVirtualID);

  00027	ff 75 fc	 push	 DWORD PTR _iVirtualID$[ebp]
  0002a	8b 0d 00 00 00
	00		 mov	 ecx, DWORD PTR ?ms_singleton@?$CSingleton@VCPythonCharacterManager@@@@0PAVCPythonCharacterManager@@A ; CSingleton<CPythonCharacterManager>::ms_singleton
  00030	e8 00 00 00 00	 call	 ?DeleteInstanceByFade@CPythonCharacterManager@@QAEXK@Z ; CPythonCharacterManager::DeleteInstanceByFade

; 128  : 	return Py_BuildNone();

  00035	e8 00 00 00 00	 call	 ?Py_BuildNone@@YAPAU_object@@XZ ; Py_BuildNone

; 129  : }

  0003a	8b e5		 mov	 esp, ebp
  0003c	5d		 pop	 ebp
  0003d	c3		 ret	 0
?chrDeleteInstanceByFade@@YAPAU_object@@PAU1@0@Z ENDP	; chrDeleteInstanceByFade
_TEXT	ENDS
; Function compile flags: /Ogtp
; File D:\Metin2 Server Files\mainline\SRC_2014\Metin2Client\UserInterface\PythonCharacterModule.cpp
;	COMDAT ?chrDeleteInstance@@YAPAU_object@@PAU1@0@Z
_TEXT	SEGMENT
_iVirtualID$ = -4					; size = 4
_poSelf$ = 8						; size = 4
_poArgs$ = 12						; size = 4
?chrDeleteInstance@@YAPAU_object@@PAU1@0@Z PROC		; chrDeleteInstance, COMDAT

; 112  : {

  00000	55		 push	 ebp
  00001	8b ec		 mov	 ebp, esp
  00003	51		 push	 ecx

; 113  : 	int iVirtualID;
; 114  : 	if (!PyTuple_GetInteger(poArgs, 0, &iVirtualID))

  00004	8d 45 fc	 lea	 eax, DWORD PTR _iVirtualID$[ebp]
  00007	50		 push	 eax
  00008	6a 00		 push	 0
  0000a	ff 75 0c	 push	 DWORD PTR _poArgs$[ebp]
  0000d	e8 00 00 00 00	 call	 ?PyTuple_GetInteger@@YA_NPAU_object@@HPAH@Z ; PyTuple_GetInteger
  00012	83 c4 0c	 add	 esp, 12			; 0000000cH
  00015	84 c0		 test	 al, al
  00017	75 0e		 jne	 SHORT $LN2@chrDeleteI

; 115  : 		return Py_BuildException();

  00019	6a 00		 push	 0
  0001b	e8 00 00 00 00	 call	 ?Py_BuildException@@YAPAU_object@@PBDZZ ; Py_BuildException
  00020	83 c4 04	 add	 esp, 4

; 119  : }

  00023	8b e5		 mov	 esp, ebp
  00025	5d		 pop	 ebp
  00026	c3		 ret	 0
$LN2@chrDeleteI:

; 116  : 
; 117  : 	CPythonCharacterManager::Instance().DeleteInstance(iVirtualID);

  00027	ff 75 fc	 push	 DWORD PTR _iVirtualID$[ebp]
  0002a	8b 0d 00 00 00
	00		 mov	 ecx, DWORD PTR ?ms_singleton@?$CSingleton@VCPythonCharacterManager@@@@0PAVCPythonCharacterManager@@A ; CSingleton<CPythonCharacterManager>::ms_singleton
  00030	e8 00 00 00 00	 call	 ?DeleteInstance@CPythonCharacterManager@@QAEXK@Z ; CPythonCharacterManager::DeleteInstance

; 118  : 	return Py_BuildNone();

  00035	e8 00 00 00 00	 call	 ?Py_BuildNone@@YAPAU_object@@XZ ; Py_BuildNone

; 119  : }

  0003a	8b e5		 mov	 esp, ebp
  0003c	5d		 pop	 ebp
  0003d	c3		 ret	 0
?chrDeleteInstance@@YAPAU_object@@PAU1@0@Z ENDP		; chrDeleteInstance
_TEXT	ENDS
; Function compile flags: /Ogtp
; File D:\Metin2 Server Files\mainline\SRC_2014\Metin2Client\UserInterface\PythonCharacterModule.cpp
; File C:\Program Files (x86)\Microsoft Visual Studio\2019\Community\VC\Tools\MSVC\14.28.29333\include\xstring
; File D:\Metin2 Server Files\mainline\SRC_2014\Metin2Client\UserInterface\PythonCharacterModule.cpp
; File C:\Program Files (x86)\Microsoft Visual Studio\2019\Community\VC\Tools\MSVC\14.28.29333\include\xstring
; File D:\Metin2 Server Files\mainline\SRC_2014\Metin2Client\UserInterface\PythonCharacterModule.cpp
; File C:\Program Files (x86)\Microsoft Visual Studio\2019\Community\VC\Tools\MSVC\14.28.29333\include\xstring
; File D:\Metin2 Server Files\mainline\SRC_2014\Metin2Client\UserInterface\PythonCharacterModule.cpp
;	COMDAT ?chrCreateInstance@@YAPAU_object@@PAU1@0@Z
_TEXT	SEGMENT
_iVirtualID$ = -124					; size = 4
_kCreateData$2 = -120					; size = 104
__$ArrayPad$ = -16					; size = 4
__$EHRec$ = -12						; size = 12
_poSelf$ = 8						; size = 4
_poArgs$ = 12						; size = 4
?chrCreateInstance@@YAPAU_object@@PAU1@0@Z PROC		; chrCreateInstance, COMDAT

; 55   : {

  00000	55		 push	 ebp
  00001	8b ec		 mov	 ebp, esp
  00003	6a ff		 push	 -1
  00005	68 00 00 00 00	 push	 __ehhandler$?chrCreateInstance@@YAPAU_object@@PAU1@0@Z
  0000a	64 a1 00 00 00
	00		 mov	 eax, DWORD PTR fs:0
  00010	50		 push	 eax
  00011	83 ec 70	 sub	 esp, 112		; 00000070H
  00014	a1 00 00 00 00	 mov	 eax, DWORD PTR ___security_cookie
  00019	33 c5		 xor	 eax, ebp
  0001b	89 45 f0	 mov	 DWORD PTR __$ArrayPad$[ebp], eax
  0001e	53		 push	 ebx
  0001f	56		 push	 esi
  00020	57		 push	 edi
  00021	50		 push	 eax
  00022	8d 45 f4	 lea	 eax, DWORD PTR __$EHRec$[ebp]
  00025	64 a3 00 00 00
	00		 mov	 DWORD PTR fs:0, eax
  0002b	8b 75 0c	 mov	 esi, DWORD PTR _poArgs$[ebp]

; 56   : 	int iVirtualID;
; 57   : 	if (!PyTuple_GetInteger(poArgs, 0, &iVirtualID))

  0002e	8d 45 84	 lea	 eax, DWORD PTR _iVirtualID$[ebp]
  00031	50		 push	 eax
  00032	6a 00		 push	 0
  00034	56		 push	 esi
  00035	e8 00 00 00 00	 call	 ?PyTuple_GetInteger@@YA_NPAU_object@@HPAH@Z ; PyTuple_GetInteger
  0003a	83 c4 0c	 add	 esp, 12			; 0000000cH
  0003d	84 c0		 test	 al, al
  0003f	75 0f		 jne	 SHORT $LN2@chrCreateI
$LN68@chrCreateI:

; 109  : }

  00041	6a 00		 push	 0
  00043	e8 00 00 00 00	 call	 ?Py_BuildException@@YAPAU_object@@PBDZZ ; Py_BuildException
  00048	83 c4 04	 add	 esp, 4
  0004b	e9 68 01 00 00	 jmp	 $LN1@chrCreateI
$LN2@chrCreateI:

; 58   : 		return Py_BuildException();
; 59   : 
; 60   : 	if (PyTuple_Size(poArgs)==2)

  00050	56		 push	 esi
  00051	ff 15 00 00 00
	00		 call	 DWORD PTR __imp__PyTuple_Size
  00057	83 c4 04	 add	 esp, 4
  0005a	83 f8 02	 cmp	 eax, 2
  0005d	0f 85 42 01 00
	00		 jne	 $LN3@chrCreateI

; 61   : 	{
; 62   : 		PyObject* poDict=PyTuple_GetItem(poArgs, 1);

  00063	6a 01		 push	 1
  00065	56		 push	 esi
  00066	ff 15 00 00 00
	00		 call	 DWORD PTR __imp__PyTuple_GetItem
  0006c	8b f0		 mov	 esi, eax
  0006e	83 c4 08	 add	 esp, 8

; 63   : 		if (!PyDict_Check(poDict))

  00071	8b 4e 04	 mov	 ecx, DWORD PTR [esi+4]
  00074	f7 41 54 00 00
	00 20		 test	 DWORD PTR [ecx+84], 536870912 ; 20000000H
  0007b	74 c4		 je	 SHORT $LN68@chrCreateI
  0007d	8d 4d cb	 lea	 ecx, DWORD PTR _kCreateData$2[ebp+67]
  00080	e8 00 00 00 00	 call	 ??0CAffectFlagContainer@@QAE@XZ ; CAffectFlagContainer::CAffectFlagContainer
; File C:\Program Files (x86)\Microsoft Visual Studio\2019\Community\VC\Tools\MSVC\14.28.29333\include\xstring

; 4378 :         _Mypair._Myval2._Myres  = _BUF_SIZE - 1;

  00085	c7 45 e8 0f 00
	00 00		 mov	 DWORD PTR _kCreateData$2[ebp+96], 15 ; 0000000fH
; File D:\Metin2 Server Files\mainline\SRC_2014\Metin2Client\UserInterface\PythonCharacterModule.cpp

; 71   : 		kCreateData.m_dwVID=iVirtualID;

  0008c	8b 45 84	 mov	 eax, DWORD PTR _iVirtualID$[ebp]

; 83   : 		kCreateData.m_kAffectFlags.Clear();

  0008f	8d 4d cb	 lea	 ecx, DWORD PTR _kCreateData$2[ebp+67]
  00092	89 45 9c	 mov	 DWORD PTR _kCreateData$2[ebp+20], eax
; File C:\Program Files (x86)\Microsoft Visual Studio\2019\Community\VC\Tools\MSVC\14.28.29333\include\xstring

; 119  :         _CSTD memmove(_First1, _First2, _Count * sizeof(_Elem));

  00095	a1 00 00 00 00	 mov	 eax, DWORD PTR ??_C@_06LJIOOKLP@NONAME@
  0009a	89 45 d4	 mov	 DWORD PTR _kCreateData$2[ebp+76], eax
  0009d	66 a1 04 00 00
	00		 mov	 ax, WORD PTR ??_C@_06LJIOOKLP@NONAME@+4
  000a3	66 89 45 d8	 mov	 WORD PTR _kCreateData$2[ebp+80], ax
; File D:\Metin2 Server Files\mainline\SRC_2014\Metin2Client\UserInterface\PythonCharacterModule.cpp

; 81   : 		kCreateData.m_sAlignment=0;

  000a7	33 c0		 xor	 eax, eax
  000a9	c7 45 fc 00 00
	00 00		 mov	 DWORD PTR __$EHRec$[ebp+8], 0
  000b0	c6 45 88 06	 mov	 BYTE PTR _kCreateData$2[ebp], 6
  000b4	c7 45 98 00 00
	00 00		 mov	 DWORD PTR _kCreateData$2[ebp+16], 0
  000bb	c7 45 94 00 00
	00 00		 mov	 DWORD PTR _kCreateData$2[ebp+12], 0
  000c2	c7 45 90 00 00
	00 00		 mov	 DWORD PTR _kCreateData$2[ebp+8], 0
  000c9	c7 45 c4 00 00
	00 00		 mov	 DWORD PTR _kCreateData$2[ebp+60], 0
  000d0	c7 45 a0 00 00
	00 00		 mov	 DWORD PTR _kCreateData$2[ebp+24], 0
  000d7	c7 45 b4 00 00
	00 00		 mov	 DWORD PTR _kCreateData$2[ebp+44], 0
  000de	c7 45 ac 00 00
	00 00		 mov	 DWORD PTR _kCreateData$2[ebp+36], 0
  000e5	c7 45 b0 00 00
	00 00		 mov	 DWORD PTR _kCreateData$2[ebp+40], 0
; File C:\Program Files (x86)\Microsoft Visual Studio\2019\Community\VC\Tools\MSVC\14.28.29333\include\xstring

; 3046 :             _Mypair._Myval2._Mysize = _Count;

  000ec	c7 45 e4 06 00
	00 00		 mov	 DWORD PTR _kCreateData$2[ebp+92], 6

; 3047 :             _Traits::move(_Old_ptr, _Ptr, _Count);
; 3048 :             _Traits::assign(_Old_ptr[_Count], _Elem());

  000f3	c6 45 da 00	 mov	 BYTE PTR _kCreateData$2[ebp+82], 0
; File D:\Metin2 Server Files\mainline\SRC_2014\Metin2Client\UserInterface\PythonCharacterModule.cpp

; 78   : 		kCreateData.m_dwStateFlags=0;

  000f7	c7 45 8c 00 00
	00 00		 mov	 DWORD PTR _kCreateData$2[ebp+4], 0

; 79   : 		kCreateData.m_dwMovSpd=100;

  000fe	c7 45 a4 64 00
	00 00		 mov	 DWORD PTR _kCreateData$2[ebp+28], 100 ; 00000064H

; 80   : 		kCreateData.m_dwAtkSpd=100;

  00105	c7 45 a8 64 00
	00 00		 mov	 DWORD PTR _kCreateData$2[ebp+32], 100 ; 00000064H

; 81   : 		kCreateData.m_sAlignment=0;

  0010c	66 89 45 c8	 mov	 WORD PTR _kCreateData$2[ebp+64], ax

; 82   : 		kCreateData.m_byPKMode=0;

  00110	88 45 ca	 mov	 BYTE PTR _kCreateData$2[ebp+66], al

; 83   : 		kCreateData.m_kAffectFlags.Clear();

  00113	e8 00 00 00 00	 call	 ?Clear@CAffectFlagContainer@@QAEXXZ ; CAffectFlagContainer::Clear

; 84   : 		kCreateData.m_dwArmor=8;
; 85   : 		kCreateData.m_dwWeapon=0;
; 86   : 		kCreateData.m_dwHair=0;
; 87   : 		kCreateData.m_isMain=false;
; 88   : 
; 89   : 		PyObject* poHorse=PyDict_GetItemString(poDict, "horse");

  00118	8b 1d 00 00 00
	00		 mov	 ebx, DWORD PTR __imp__PyDict_GetItemString
  0011e	68 00 00 00 00	 push	 OFFSET ??_C@_05DOPDBCAL@horse@
  00123	56		 push	 esi
  00124	c7 45 b8 08 00
	00 00		 mov	 DWORD PTR _kCreateData$2[ebp+48], 8
  0012b	c7 45 bc 00 00
	00 00		 mov	 DWORD PTR _kCreateData$2[ebp+52], 0
  00132	c7 45 c0 00 00
	00 00		 mov	 DWORD PTR _kCreateData$2[ebp+56], 0
  00139	c6 45 ec 00	 mov	 BYTE PTR _kCreateData$2[ebp+100], 0
  0013d	ff d3		 call	 ebx

; 90   : 		if (poHorse)

  0013f	8b 3d 00 00 00
	00		 mov	 edi, DWORD PTR __imp__PyLong_AsLong
  00145	83 c4 08	 add	 esp, 8
  00148	85 c0		 test	 eax, eax
  0014a	74 09		 je	 SHORT $LN6@chrCreateI

; 91   : 			kCreateData.m_dwMountVnum=PyLong_AsLong(poHorse);

  0014c	50		 push	 eax
  0014d	ff d7		 call	 edi
  0014f	83 c4 04	 add	 esp, 4
  00152	89 45 c4	 mov	 DWORD PTR _kCreateData$2[ebp+60], eax
$LN6@chrCreateI:

; 92   : 
; 93   : 		PyObject* poX=PyDict_GetItemString(poDict, "x");

  00155	68 00 00 00 00	 push	 OFFSET ??_C@_01FJMABOPO@x@
  0015a	56		 push	 esi
  0015b	ff d3		 call	 ebx
  0015d	83 c4 08	 add	 esp, 8

; 94   : 		if (poX)

  00160	85 c0		 test	 eax, eax
  00162	74 09		 je	 SHORT $LN7@chrCreateI

; 95   : 			kCreateData.m_lPosX=PyLong_AsLong(poX);

  00164	50		 push	 eax
  00165	ff d7		 call	 edi
  00167	83 c4 04	 add	 esp, 4
  0016a	89 45 ac	 mov	 DWORD PTR _kCreateData$2[ebp+36], eax
$LN7@chrCreateI:

; 96   : 
; 97   : 		PyObject* poY=PyDict_GetItemString(poDict, "y");

  0016d	68 00 00 00 00	 push	 OFFSET ??_C@_01EANLCPLP@y@
  00172	56		 push	 esi
  00173	ff d3		 call	 ebx
  00175	83 c4 08	 add	 esp, 8

; 98   : 		if (poY)

  00178	85 c0		 test	 eax, eax
  0017a	74 09		 je	 SHORT $LN8@chrCreateI

; 99   : 			kCreateData.m_lPosX=PyLong_AsLong(poY);

  0017c	50		 push	 eax
  0017d	ff d7		 call	 edi
  0017f	83 c4 04	 add	 esp, 4
  00182	89 45 ac	 mov	 DWORD PTR _kCreateData$2[ebp+36], eax
$LN8@chrCreateI:

; 100  : 
; 101  : 		CPythonCharacterManager::Instance().CreateInstance(kCreateData);

  00185	8b 0d 00 00 00
	00		 mov	 ecx, DWORD PTR ?ms_singleton@?$CSingleton@VCPythonCharacterManager@@@@0PAVCPythonCharacterManager@@A ; CSingleton<CPythonCharacterManager>::ms_singleton
  0018b	8d 45 88	 lea	 eax, DWORD PTR _kCreateData$2[ebp]
  0018e	50		 push	 eax
  0018f	e8 00 00 00 00	 call	 ?CreateInstance@CPythonCharacterManager@@QAEPAVCInstanceBase@@ABUSCreateData@2@@Z ; CPythonCharacterManager::CreateInstance

; 102  : 	}

  00194	8d 4d 88	 lea	 ecx, DWORD PTR _kCreateData$2[ebp]
  00197	c7 45 fc ff ff
	ff ff		 mov	 DWORD PTR __$EHRec$[ebp+8], -1
  0019e	e8 00 00 00 00	 call	 ??1SCreateData@CInstanceBase@@QAE@XZ
  001a3	eb 0e		 jmp	 SHORT $LN4@chrCreateI
$LN3@chrCreateI:

; 103  : 	else
; 104  : 	{
; 105  : 		CPythonCharacterManager::Instance().RegisterInstance(iVirtualID);

  001a5	ff 75 84	 push	 DWORD PTR _iVirtualID$[ebp]
  001a8	8b 0d 00 00 00
	00		 mov	 ecx, DWORD PTR ?ms_singleton@?$CSingleton@VCPythonCharacterManager@@@@0PAVCPythonCharacterManager@@A ; CSingleton<CPythonCharacterManager>::ms_singleton
  001ae	e8 00 00 00 00	 call	 ?RegisterInstance@CPythonCharacterManager@@QAEPAVCInstanceBase@@K@Z ; CPythonCharacterManager::RegisterInstance
$LN4@chrCreateI:

; 106  : 	}
; 107  : 
; 108  : 	return Py_BuildNone();

  001b3	e8 00 00 00 00	 call	 ?Py_BuildNone@@YAPAU_object@@XZ ; Py_BuildNone
$LN1@chrCreateI:

; 109  : }

  001b8	8b 4d f4	 mov	 ecx, DWORD PTR __$EHRec$[ebp]
  001bb	64 89 0d 00 00
	00 00		 mov	 DWORD PTR fs:0, ecx
  001c2	59		 pop	 ecx
  001c3	5f		 pop	 edi
  001c4	5e		 pop	 esi
  001c5	5b		 pop	 ebx
  001c6	8b 4d f0	 mov	 ecx, DWORD PTR __$ArrayPad$[ebp]
  001c9	33 cd		 xor	 ecx, ebp
  001cb	e8 00 00 00 00	 call	 @__security_check_cookie@4
  001d0	8b e5		 mov	 esp, ebp
  001d2	5d		 pop	 ebp
  001d3	c3		 ret	 0
_TEXT	ENDS
;	COMDAT text$x
text$x	SEGMENT
__unwindfunclet$?chrCreateInstance@@YAPAU_object@@PAU1@0@Z$0:
  00000	8d 4d 88	 lea	 ecx, DWORD PTR _kCreateData$2[ebp]
  00003	e9 00 00 00 00	 jmp	 ??1SCreateData@CInstanceBase@@QAE@XZ
  00008	cc		 int	 3
  00009	cc		 int	 3
  0000a	cc		 int	 3
  0000b	cc		 int	 3
  0000c	cc		 int	 3
__ehhandler$?chrCreateInstance@@YAPAU_object@@PAU1@0@Z:
  0000d	90		 npad	 1
  0000e	90		 npad	 1
  0000f	8b 54 24 08	 mov	 edx, DWORD PTR [esp+8]
  00013	8d 42 0c	 lea	 eax, DWORD PTR [edx+12]
  00016	8b 4a 80	 mov	 ecx, DWORD PTR [edx-128]
  00019	33 c8		 xor	 ecx, eax
  0001b	e8 00 00 00 00	 call	 @__security_check_cookie@4
  00020	8b 4a fc	 mov	 ecx, DWORD PTR [edx-4]
  00023	33 c8		 xor	 ecx, eax
  00025	e8 00 00 00 00	 call	 @__security_check_cookie@4
  0002a	b8 00 00 00 00	 mov	 eax, OFFSET __ehfuncinfo$?chrCreateInstance@@YAPAU_object@@PAU1@0@Z
  0002f	e9 00 00 00 00	 jmp	 ___CxxFrameHandler3
text$x	ENDS
?chrCreateInstance@@YAPAU_object@@PAU1@0@Z ENDP		; chrCreateInstance
; Function compile flags: /Ogtp
; File D:\Metin2 Server Files\mainline\SRC_2014\Metin2Client\UserInterface\PythonCharacterModule.cpp
;	COMDAT ?chrRenderCollision@@YAPAU_object@@PAU1@0@Z
_TEXT	SEGMENT
_poSelf$ = 8						; size = 4
_poArgs$ = 12						; size = 4
?chrRenderCollision@@YAPAU_object@@PAU1@0@Z PROC	; chrRenderCollision, COMDAT

; 49   : 	CPythonCharacterManager::Instance().RenderCollision();

  00000	8b 0d 00 00 00
	00		 mov	 ecx, DWORD PTR ?ms_singleton@?$CSingleton@VCPythonCharacterManager@@@@0PAVCPythonCharacterManager@@A ; CSingleton<CPythonCharacterManager>::ms_singleton
  00006	e8 00 00 00 00	 call	 ?RenderCollision@CPythonCharacterManager@@QAEXXZ ; CPythonCharacterManager::RenderCollision

; 50   : 	return Py_BuildNone();

  0000b	e9 00 00 00 00	 jmp	 ?Py_BuildNone@@YAPAU_object@@XZ ; Py_BuildNone
?chrRenderCollision@@YAPAU_object@@PAU1@0@Z ENDP	; chrRenderCollision
_TEXT	ENDS
; Function compile flags: /Ogtp
; File D:\Metin2 Server Files\mainline\SRC_2014\Metin2Client\UserInterface\PythonCharacterModule.cpp
;	COMDAT ?chrRender@@YAPAU_object@@PAU1@0@Z
_TEXT	SEGMENT
_poSelf$ = 8						; size = 4
_poArgs$ = 12						; size = 4
?chrRender@@YAPAU_object@@PAU1@0@Z PROC			; chrRender, COMDAT

; 43   : 	CPythonCharacterManager::Instance().Render();

  00000	8b 0d 00 00 00
	00		 mov	 ecx, DWORD PTR ?ms_singleton@?$CSingleton@VCPythonCharacterManager@@@@0PAVCPythonCharacterManager@@A ; CSingleton<CPythonCharacterManager>::ms_singleton
  00006	e8 00 00 00 00	 call	 ?Render@CPythonCharacterManager@@QAEXXZ ; CPythonCharacterManager::Render

; 44   : 	return Py_BuildNone();

  0000b	e9 00 00 00 00	 jmp	 ?Py_BuildNone@@YAPAU_object@@XZ ; Py_BuildNone
?chrRender@@YAPAU_object@@PAU1@0@Z ENDP			; chrRender
_TEXT	ENDS
; Function compile flags: /Ogtp
; File D:\Metin2 Server Files\mainline\SRC_2014\Metin2Client\UserInterface\PythonCharacterModule.cpp
;	COMDAT ?chrDeform@@YAPAU_object@@PAU1@0@Z
_TEXT	SEGMENT
_poSelf$ = 8						; size = 4
_poArgs$ = 12						; size = 4
?chrDeform@@YAPAU_object@@PAU1@0@Z PROC			; chrDeform, COMDAT

; 37   : 	CPythonCharacterManager::Instance().Deform();

  00000	8b 0d 00 00 00
	00		 mov	 ecx, DWORD PTR ?ms_singleton@?$CSingleton@VCPythonCharacterManager@@@@0PAVCPythonCharacterManager@@A ; CSingleton<CPythonCharacterManager>::ms_singleton
  00006	e8 00 00 00 00	 call	 ?Deform@CPythonCharacterManager@@QAEXXZ ; CPythonCharacterManager::Deform

; 38   : 	return Py_BuildNone();

  0000b	e9 00 00 00 00	 jmp	 ?Py_BuildNone@@YAPAU_object@@XZ ; Py_BuildNone
?chrDeform@@YAPAU_object@@PAU1@0@Z ENDP			; chrDeform
_TEXT	ENDS
; Function compile flags: /Ogtp
; File D:\Metin2 Server Files\mainline\SRC_2014\Metin2Client\UserInterface\PythonCharacterModule.cpp
;	COMDAT ?chrUpdate@@YAPAU_object@@PAU1@0@Z
_TEXT	SEGMENT
_poSelf$ = 8						; size = 4
_poArgs$ = 12						; size = 4
?chrUpdate@@YAPAU_object@@PAU1@0@Z PROC			; chrUpdate, COMDAT

; 31   : 	CPythonCharacterManager::Instance().Update();

  00000	8b 0d 00 00 00
	00		 mov	 ecx, DWORD PTR ?ms_singleton@?$CSingleton@VCPythonCharacterManager@@@@0PAVCPythonCharacterManager@@A ; CSingleton<CPythonCharacterManager>::ms_singleton
  00006	e8 00 00 00 00	 call	 ?Update@CPythonCharacterManager@@QAEXXZ ; CPythonCharacterManager::Update

; 32   : 	return Py_BuildNone();

  0000b	e9 00 00 00 00	 jmp	 ?Py_BuildNone@@YAPAU_object@@XZ ; Py_BuildNone
?chrUpdate@@YAPAU_object@@PAU1@0@Z ENDP			; chrUpdate
_TEXT	ENDS
; Function compile flags: /Ogtp
; File D:\Metin2 Server Files\mainline\SRC_2014\Metin2Client\UserInterface\PythonCharacterModule.cpp
;	COMDAT ?chrDestroy@@YAPAU_object@@PAU1@0@Z
_TEXT	SEGMENT
_poSelf$ = 8						; size = 4
_poArgs$ = 12						; size = 4
?chrDestroy@@YAPAU_object@@PAU1@0@Z PROC		; chrDestroy, COMDAT

; 25   : 	CPythonCharacterManager::Instance().Destroy();

  00000	8b 0d 00 00 00
	00		 mov	 ecx, DWORD PTR ?ms_singleton@?$CSingleton@VCPythonCharacterManager@@@@0PAVCPythonCharacterManager@@A ; CSingleton<CPythonCharacterManager>::ms_singleton
  00006	83 c1 04	 add	 ecx, 4
  00009	8b 01		 mov	 eax, DWORD PTR [ecx]
  0000b	ff 50 04	 call	 DWORD PTR [eax+4]

; 26   : 	return Py_BuildNone();

  0000e	e9 00 00 00 00	 jmp	 ?Py_BuildNone@@YAPAU_object@@XZ ; Py_BuildNone
?chrDestroy@@YAPAU_object@@PAU1@0@Z ENDP		; chrDestroy
_TEXT	ENDS
; Function compile flags: /Ogtp
; File D:\Metin2 Server Files\mainline\SRC_2014\Metin2Client\UserInterface\PythonCharacterModule.cpp
; File D:\Metin2 Server Files\mainline\SRC_2014\Metin2Client\UserInterface\InstanceBase.h
; File D:\Metin2 Server Files\mainline\SRC_2014\Metin2Client\UserInterface\PythonCharacterModule.cpp
;	COMDAT ?chrRaceToSex@@YAPAU_object@@PAU1@0@Z
_TEXT	SEGMENT
_race$ = -4						; size = 4
_poSelf$ = 8						; size = 4
_poArgs$ = 12						; size = 4
?chrRaceToSex@@YAPAU_object@@PAU1@0@Z PROC		; chrRaceToSex, COMDAT

; 15   : {

  00000	55		 push	 ebp
  00001	8b ec		 mov	 ebp, esp
  00003	51		 push	 ecx

; 16   : 	int race;
; 17   : 	if (!PyTuple_GetInteger(poArgs, 0, &race))

  00004	8d 45 fc	 lea	 eax, DWORD PTR _race$[ebp]
  00007	50		 push	 eax
  00008	6a 00		 push	 0
  0000a	ff 75 0c	 push	 DWORD PTR _poArgs$[ebp]
  0000d	e8 00 00 00 00	 call	 ?PyTuple_GetInteger@@YA_NPAU_object@@HPAH@Z ; PyTuple_GetInteger
  00012	83 c4 0c	 add	 esp, 12			; 0000000cH
  00015	84 c0		 test	 al, al
  00017	75 0e		 jne	 SHORT $LN2@chrRaceToS

; 18   : 		return Py_BuildException();

  00019	6a 00		 push	 0
  0001b	e8 00 00 00 00	 call	 ?Py_BuildException@@YAPAU_object@@PBDZZ ; Py_BuildException
  00020	83 c4 04	 add	 esp, 4

; 21   : }

  00023	8b e5		 mov	 esp, ebp
  00025	5d		 pop	 ebp
  00026	c3		 ret	 0
$LN2@chrRaceToS:
; File D:\Metin2 Server Files\mainline\SRC_2014\Metin2Client\UserInterface\InstanceBase.h

; 1114 : 	switch (race)

  00027	8b 45 fc	 mov	 eax, DWORD PTR _race$[ebp]
  0002a	83 f8 07	 cmp	 eax, 7
  0002d	77 26		 ja	 SHORT $LN5@chrRaceToS
  0002f	0f b6 80 00 00
	00 00		 movzx	 eax, BYTE PTR $LN10@chrRaceToS[eax]
  00036	ff 24 85 00 00
	00 00		 jmp	 DWORD PTR $LN11@chrRaceToS[eax*4]
$LN7@chrRaceToS:

; 1115 : 	{
; 1116 : 		case 0:
; 1117 : 		case 2:
; 1118 : 		case 5:
; 1119 : 		case 7:
; 1120 : 			return 1;

  0003d	b8 01 00 00 00	 mov	 eax, 1
; File D:\Metin2 Server Files\mainline\SRC_2014\Metin2Client\UserInterface\PythonCharacterModule.cpp

; 20   : 	return Py_BuildValue("i", RaceToSex(race));

  00042	50		 push	 eax
  00043	68 00 00 00 00	 push	 OFFSET ??_C@_01KBJDNOO@i@
  00048	ff 15 00 00 00
	00		 call	 DWORD PTR __imp__Py_BuildValue
  0004e	83 c4 08	 add	 esp, 8

; 21   : }

  00051	8b e5		 mov	 esp, ebp
  00053	5d		 pop	 ebp
  00054	c3		 ret	 0
$LN5@chrRaceToS:

; 20   : 	return Py_BuildValue("i", RaceToSex(race));

  00055	33 c0		 xor	 eax, eax
  00057	50		 push	 eax
  00058	68 00 00 00 00	 push	 OFFSET ??_C@_01KBJDNOO@i@
  0005d	ff 15 00 00 00
	00		 call	 DWORD PTR __imp__Py_BuildValue
  00063	83 c4 08	 add	 esp, 8

; 21   : }

  00066	8b e5		 mov	 esp, ebp
  00068	5d		 pop	 ebp
  00069	c3		 ret	 0
  0006a	66 90		 npad	 2
$LN11@chrRaceToS:
  0006c	00 00 00 00	 DD	 $LN7@chrRaceToS
  00070	00 00 00 00	 DD	 $LN5@chrRaceToS
$LN10@chrRaceToS:
  00074	00		 DB	 0
  00075	01		 DB	 1
  00076	00		 DB	 0
  00077	01		 DB	 1
  00078	01		 DB	 1
  00079	00		 DB	 0
  0007a	01		 DB	 1
  0007b	00		 DB	 0
?chrRaceToSex@@YAPAU_object@@PAU1@0@Z ENDP		; chrRaceToSex
_TEXT	ENDS
; Function compile flags: /Ogtp
; File D:\Metin2 Server Files\mainline\SRC_2014\Metin2Client\UserInterface\PythonCharacterModule.cpp
; File D:\Metin2 Server Files\mainline\SRC_2014\Metin2Client\UserInterface\InstanceBase.h
; File D:\Metin2 Server Files\mainline\SRC_2014\Metin2Client\UserInterface\PythonCharacterModule.cpp
;	COMDAT ?chrRaceToJob@@YAPAU_object@@PAU1@0@Z
_TEXT	SEGMENT
_race$ = -4						; size = 4
_poSelf$ = 8						; size = 4
_poArgs$ = 12						; size = 4
?chrRaceToJob@@YAPAU_object@@PAU1@0@Z PROC		; chrRaceToJob, COMDAT

; 6    : {

  00000	55		 push	 ebp
  00001	8b ec		 mov	 ebp, esp
  00003	51		 push	 ecx

; 7    : 	int race;
; 8    : 	if (!PyTuple_GetInteger(poArgs, 0, &race))

  00004	8d 45 fc	 lea	 eax, DWORD PTR _race$[ebp]
  00007	50		 push	 eax
  00008	6a 00		 push	 0
  0000a	ff 75 0c	 push	 DWORD PTR _poArgs$[ebp]
  0000d	e8 00 00 00 00	 call	 ?PyTuple_GetInteger@@YA_NPAU_object@@HPAH@Z ; PyTuple_GetInteger
  00012	83 c4 0c	 add	 esp, 12			; 0000000cH
  00015	84 c0		 test	 al, al
  00017	75 0e		 jne	 SHORT $LN2@chrRaceToJ

; 9    : 		return Py_BuildException();

  00019	6a 00		 push	 0
  0001b	e8 00 00 00 00	 call	 ?Py_BuildException@@YAPAU_object@@PBDZZ ; Py_BuildException
  00020	83 c4 04	 add	 esp, 4

; 12   : }

  00023	8b e5		 mov	 esp, ebp
  00025	5d		 pop	 ebp
  00026	c3		 ret	 0
$LN2@chrRaceToJ:
; File D:\Metin2 Server Files\mainline\SRC_2014\Metin2Client\UserInterface\InstanceBase.h

; 1109 : 	return race % JOB_NUM;

  00027	8b 45 fc	 mov	 eax, DWORD PTR _race$[ebp]
  0002a	25 03 00 00 80	 and	 eax, -2147483645	; 80000003H
  0002f	79 05		 jns	 SHORT $LN6@chrRaceToJ
  00031	48		 dec	 eax
  00032	83 c8 fc	 or	 eax, -4			; fffffffcH
  00035	40		 inc	 eax
$LN6@chrRaceToJ:
; File D:\Metin2 Server Files\mainline\SRC_2014\Metin2Client\UserInterface\PythonCharacterModule.cpp

; 11   : 	return Py_BuildValue("i", RaceToJob(race));

  00036	50		 push	 eax
  00037	68 00 00 00 00	 push	 OFFSET ??_C@_01KBJDNOO@i@
  0003c	ff 15 00 00 00
	00		 call	 DWORD PTR __imp__Py_BuildValue
  00042	83 c4 08	 add	 esp, 8

; 12   : }

  00045	8b e5		 mov	 esp, ebp
  00047	5d		 pop	 ebp
  00048	c3		 ret	 0
?chrRaceToJob@@YAPAU_object@@PAU1@0@Z ENDP		; chrRaceToJob
_TEXT	ENDS
; Function compile flags: /Ogtp
; File C:\Program Files (x86)\Microsoft Visual Studio\2019\Community\VC\Tools\MSVC\14.28.29333\include\xstring
; File C:\Program Files (x86)\Microsoft Visual Studio\2019\Community\VC\Tools\MSVC\14.28.29333\include\xmemory
; File C:\Program Files (x86)\Microsoft Visual Studio\2019\Community\VC\Tools\MSVC\14.28.29333\include\xstring
;	COMDAT ??1SCreateData@CInstanceBase@@QAE@XZ
_TEXT	SEGMENT
??1SCreateData@CInstanceBase@@QAE@XZ PROC		; CInstanceBase::SCreateData::~SCreateData, COMDAT
; _this$ = ecx

; 2227 :         return _BUF_SIZE <= _Myres;

  00000	56		 push	 esi
  00001	8b f1		 mov	 esi, ecx
  00003	8b 46 60	 mov	 eax, DWORD PTR [esi+96]
  00006	83 f8 10	 cmp	 eax, 16			; 00000010H

; 4385 :         if (_Mypair._Myval2._Large_string_engaged()) {

  00009	72 0d		 jb	 SHORT $LN7@SCreateDat

; 4386 :             const pointer _Ptr = _Mypair._Myval2._Bx._Ptr;
; 4387 :             auto& _Al          = _Getal();
; 4388 :             _Destroy_in_place(_Mypair._Myval2._Bx._Ptr);
; 4389 :             _Al.deallocate(_Ptr, _Mypair._Myval2._Myres + 1);

  0000b	40		 inc	 eax
; File C:\Program Files (x86)\Microsoft Visual Studio\2019\Community\VC\Tools\MSVC\14.28.29333\include\xmemory

; 810  :         _Deallocate<_New_alignof<_Ty>>(_Ptr, sizeof(_Ty) * _Count);

  0000c	50		 push	 eax
  0000d	ff 76 4c	 push	 DWORD PTR [esi+76]
  00010	e8 00 00 00 00	 call	 ??$_Deallocate@$07$0A@@std@@YAXPAXI@Z ; std::_Deallocate<8,0>
  00015	83 c4 08	 add	 esp, 8
$LN7@SCreateDat:
; File C:\Program Files (x86)\Microsoft Visual Studio\2019\Community\VC\Tools\MSVC\14.28.29333\include\xstring

; 4392 :         _Mypair._Myval2._Mysize = 0;

  00018	c7 46 5c 00 00
	00 00		 mov	 DWORD PTR [esi+92], 0
  0001f	8d 4e 43	 lea	 ecx, DWORD PTR [esi+67]

; 4393 :         _Mypair._Myval2._Myres  = _BUF_SIZE - 1;

  00022	c7 46 60 0f 00
	00 00		 mov	 DWORD PTR [esi+96], 15	; 0000000fH

; 4394 :         // the _Traits::assign is last so the codegen doesn't think the char write can alias this
; 4395 :         _Traits::assign(_Mypair._Myval2._Bx._Buf[0], _Elem());

  00029	c6 46 4c 00	 mov	 BYTE PTR [esi+76], 0
  0002d	5e		 pop	 esi
  0002e	e9 00 00 00 00	 jmp	 ??1CAffectFlagContainer@@QAE@XZ ; CAffectFlagContainer::~CAffectFlagContainer
??1SCreateData@CInstanceBase@@QAE@XZ ENDP		; CInstanceBase::SCreateData::~SCreateData
_TEXT	ENDS
; Function compile flags: /Ogtp
; File C:\Program Files (x86)\Microsoft Visual Studio\2019\Community\VC\Tools\MSVC\14.28.29333\include\xmemory
;	COMDAT ??$_Allocate_manually_vector_aligned@U_Default_allocate_traits@std@@@std@@YAPAXI@Z
_TEXT	SEGMENT
__Bytes$ = 8						; size = 4
??$_Allocate_manually_vector_aligned@U_Default_allocate_traits@std@@@std@@YAPAXI@Z PROC ; std::_Allocate_manually_vector_aligned<std::_Default_allocate_traits>, COMDAT

; 113  : __declspec(allocator) void* _Allocate_manually_vector_aligned(const size_t _Bytes) {

  00000	55		 push	 ebp
  00001	8b ec		 mov	 ebp, esp

; 114  :     // allocate _Bytes manually aligned to at least _Big_allocation_alignment
; 115  :     const size_t _Block_size = _Non_user_size + _Bytes;

  00003	8b 45 08	 mov	 eax, DWORD PTR __Bytes$[ebp]
  00006	8d 48 23	 lea	 ecx, DWORD PTR [eax+35]

; 116  :     if (_Block_size <= _Bytes) {

  00009	3b c8		 cmp	 ecx, eax
  0000b	0f 86 00 00 00
	00		 jbe	 ?_Throw_bad_array_new_length@std@@YAXXZ ; std::_Throw_bad_array_new_length

; 77   :         return ::operator new(_Bytes);

  00011	51		 push	 ecx
  00012	e8 00 00 00 00	 call	 ??2@YAPAXI@Z		; operator new

; 117  :         _Throw_bad_array_new_length(); // add overflow
; 118  :     }
; 119  : 
; 120  :     const uintptr_t _Ptr_container = reinterpret_cast<uintptr_t>(_Traits::_Allocate(_Block_size));

  00017	8b c8		 mov	 ecx, eax

; 77   :         return ::operator new(_Bytes);

  00019	83 c4 04	 add	 esp, 4

; 121  :     _STL_VERIFY(_Ptr_container != 0, "invalid argument"); // validate even in release since we're doing p[-1]

  0001c	85 c9		 test	 ecx, ecx
  0001e	74 0b		 je	 SHORT $LN7@Allocate_m

; 122  :     void* const _Ptr = reinterpret_cast<void*>((_Ptr_container + _Non_user_size) & ~(_Big_allocation_alignment - 1));

  00020	8d 41 23	 lea	 eax, DWORD PTR [ecx+35]
  00023	83 e0 e0	 and	 eax, -32		; ffffffe0H

; 123  :     static_cast<uintptr_t*>(_Ptr)[-1] = _Ptr_container;

  00026	89 48 fc	 mov	 DWORD PTR [eax-4], ecx

; 124  : 
; 125  : #ifdef _DEBUG
; 126  :     static_cast<uintptr_t*>(_Ptr)[-2] = _Big_allocation_sentinel;
; 127  : #endif // _DEBUG
; 128  :     return _Ptr;
; 129  : }

  00029	5d		 pop	 ebp
  0002a	c3		 ret	 0
$LN7@Allocate_m:

; 121  :     _STL_VERIFY(_Ptr_container != 0, "invalid argument"); // validate even in release since we're doing p[-1]

  0002b	e9 00 00 00 00	 jmp	 __invalid_parameter_noinfo_noreturn
??$_Allocate_manually_vector_aligned@U_Default_allocate_traits@std@@@std@@YAPAXI@Z ENDP ; std::_Allocate_manually_vector_aligned<std::_Default_allocate_traits>
_TEXT	ENDS
; Function compile flags: /Ogtp
; File C:\Program Files (x86)\Microsoft Visual Studio\2019\Community\VC\Tools\MSVC\14.28.29333\include\xmemory
;	COMDAT ??$_Allocate@$07U_Default_allocate_traits@std@@$0A@@std@@YAPAXI@Z
_TEXT	SEGMENT
__Bytes$ = 8						; size = 4
??$_Allocate@$07U_Default_allocate_traits@std@@$0A@@std@@YAPAXI@Z PROC ; std::_Allocate<8,std::_Default_allocate_traits,0>, COMDAT

; 197  : __declspec(allocator) void* _Allocate(const size_t _Bytes) {

  00000	55		 push	 ebp
  00001	8b ec		 mov	 ebp, esp

; 198  :     // allocate _Bytes when !_HAS_ALIGNED_NEW || _Align <= __STDCPP_DEFAULT_NEW_ALIGNMENT__
; 199  : #if defined(_M_IX86) || defined(_M_X64)
; 200  :     if (_Bytes >= _Big_allocation_threshold) { // boost the alignment of big allocations to help autovectorization

  00003	8b 45 08	 mov	 eax, DWORD PTR __Bytes$[ebp]
  00006	3d 00 10 00 00	 cmp	 eax, 4096		; 00001000H
  0000b	72 09		 jb	 SHORT $LN2@Allocate

; 201  :         return _Allocate_manually_vector_aligned<_Traits>(_Bytes);

  0000d	89 45 08	 mov	 DWORD PTR __Bytes$[ebp], eax

; 210  : }

  00010	5d		 pop	 ebp

; 201  :         return _Allocate_manually_vector_aligned<_Traits>(_Bytes);

  00011	e9 00 00 00 00	 jmp	 ??$_Allocate_manually_vector_aligned@U_Default_allocate_traits@std@@@std@@YAPAXI@Z ; std::_Allocate_manually_vector_aligned<std::_Default_allocate_traits>
$LN2@Allocate:

; 202  :     }
; 203  : #endif // defined(_M_IX86) || defined(_M_X64)
; 204  : 
; 205  :     if (_Bytes != 0) {

  00016	85 c0		 test	 eax, eax
  00018	74 09		 je	 SHORT $LN3@Allocate

; 77   :         return ::operator new(_Bytes);

  0001a	89 45 08	 mov	 DWORD PTR __Bytes$[ebp], eax

; 210  : }

  0001d	5d		 pop	 ebp

; 77   :         return ::operator new(_Bytes);

  0001e	e9 00 00 00 00	 jmp	 ??2@YAPAXI@Z		; operator new
$LN3@Allocate:

; 206  :         return _Traits::_Allocate(_Bytes);
; 207  :     }
; 208  : 
; 209  :     return nullptr;

  00023	33 c0		 xor	 eax, eax

; 210  : }

  00025	5d		 pop	 ebp
  00026	c3		 ret	 0
??$_Allocate@$07U_Default_allocate_traits@std@@$0A@@std@@YAPAXI@Z ENDP ; std::_Allocate<8,std::_Default_allocate_traits,0>
_TEXT	ENDS
; Function compile flags: /Ogtp
; File C:\Program Files (x86)\Microsoft Visual Studio\2019\Community\VC\Tools\MSVC\14.28.29333\include\xmemory
;	COMDAT ??$_Deallocate@$07$0A@@std@@YAXPAXI@Z
_TEXT	SEGMENT
__Ptr$ = 8						; size = 4
__Bytes$ = 12						; size = 4
??$_Deallocate@$07$0A@@std@@YAXPAXI@Z PROC		; std::_Deallocate<8,0>, COMDAT

; 213  : void _Deallocate(void* _Ptr, size_t _Bytes) noexcept {

  00000	55		 push	 ebp
  00001	8b ec		 mov	 ebp, esp

; 214  :     // deallocate storage allocated by _Allocate when !_HAS_ALIGNED_NEW || _Align <= __STDCPP_DEFAULT_NEW_ALIGNMENT__
; 215  : #if defined(_M_IX86) || defined(_M_X64)
; 216  :     if (_Bytes >= _Big_allocation_threshold) { // boost the alignment of big allocations to help autovectorization

  00003	8b 4d 0c	 mov	 ecx, DWORD PTR __Bytes$[ebp]
  00006	81 f9 00 10 00
	00		 cmp	 ecx, 4096		; 00001000H
  0000c	72 18		 jb	 SHORT $LN15@Deallocate

; 137  :     const uintptr_t _Ptr_container   = _Ptr_user[-1];

  0000e	8b 45 08	 mov	 eax, DWORD PTR __Ptr$[ebp]
  00011	83 c1 23	 add	 ecx, 35			; 00000023H
  00014	8b 50 fc	 mov	 edx, DWORD PTR [eax-4]

; 138  : 
; 139  :     // If the following asserts, it likely means that we are performing
; 140  :     // an aligned delete on memory coming from an unaligned allocation.
; 141  :     _STL_ASSERT(_Ptr_user[-2] == _Big_allocation_sentinel, "invalid argument");
; 142  : 
; 143  :     // Extra paranoia on aligned allocation/deallocation; ensure _Ptr_container is
; 144  :     // in range [_Min_back_shift, _Non_user_size]
; 145  : #ifdef _DEBUG
; 146  :     constexpr uintptr_t _Min_back_shift = 2 * sizeof(void*);
; 147  : #else // ^^^ _DEBUG ^^^ // vvv !_DEBUG vvv
; 148  :     constexpr uintptr_t _Min_back_shift = sizeof(void*);
; 149  : #endif // _DEBUG
; 150  :     const uintptr_t _Back_shift = reinterpret_cast<uintptr_t>(_Ptr) - _Ptr_container;

  00017	2b c2		 sub	 eax, edx

; 151  :     _STL_VERIFY(_Back_shift >= _Min_back_shift && _Back_shift <= _Non_user_size, "invalid argument");

  00019	83 c0 fc	 add	 eax, -4			; fffffffcH
  0001c	83 f8 1f	 cmp	 eax, 31			; 0000001fH
  0001f	76 08		 jbe	 SHORT $LN13@Deallocate
  00021	e9 00 00 00 00	 jmp	 __invalid_parameter_noinfo_noreturn
$LN15@Deallocate:

; 214  :     // deallocate storage allocated by _Allocate when !_HAS_ALIGNED_NEW || _Align <= __STDCPP_DEFAULT_NEW_ALIGNMENT__
; 215  : #if defined(_M_IX86) || defined(_M_X64)
; 216  :     if (_Bytes >= _Big_allocation_threshold) { // boost the alignment of big allocations to help autovectorization

  00026	8b 55 08	 mov	 edx, DWORD PTR __Ptr$[ebp]
$LN13@Deallocate:

; 217  :         _Adjust_manually_vector_aligned(_Ptr, _Bytes);
; 218  :     }
; 219  : #endif // defined(_M_IX86) || defined(_M_X64)
; 220  : 
; 221  :     ::operator delete(_Ptr, _Bytes);

  00029	89 4d 0c	 mov	 DWORD PTR __Bytes$[ebp], ecx
  0002c	89 55 08	 mov	 DWORD PTR __Ptr$[ebp], edx

; 222  : }

  0002f	5d		 pop	 ebp

; 217  :         _Adjust_manually_vector_aligned(_Ptr, _Bytes);
; 218  :     }
; 219  : #endif // defined(_M_IX86) || defined(_M_X64)
; 220  : 
; 221  :     ::operator delete(_Ptr, _Bytes);

  00030	e9 00 00 00 00	 jmp	 ??3@YAXPAXI@Z		; operator delete
??$_Deallocate@$07$0A@@std@@YAXPAXI@Z ENDP		; std::_Deallocate<8,0>
_TEXT	ENDS
; Function compile flags: /Ogtp
; File C:\Program Files (x86)\Microsoft Visual Studio\2019\Community\VC\Tools\MSVC\14.28.29333\include\xmemory
;	COMDAT ??$_Construct_in_place@PADABQAD@std@@YAXAAPADABQAD@Z
_TEXT	SEGMENT
__Obj$ = 8						; size = 4
_<_Args_0>$ = 12					; size = 4
??$_Construct_in_place@PADABQAD@std@@YAXAAPADABQAD@Z PROC ; std::_Construct_in_place<char *,char * const &>, COMDAT

; 228  : void _Construct_in_place(_Ty& _Obj, _Types&&... _Args) noexcept(is_nothrow_constructible_v<_Ty, _Types...>) {

  00000	55		 push	 ebp
  00001	8b ec		 mov	 ebp, esp

; 229  :     ::new (const_cast<void*>(static_cast<const volatile void*>(_STD addressof(_Obj))))

  00003	8b 45 0c	 mov	 eax, DWORD PTR _<_Args_0>$[ebp]
  00006	8b 08		 mov	 ecx, DWORD PTR [eax]
  00008	8b 45 08	 mov	 eax, DWORD PTR __Obj$[ebp]
  0000b	89 08		 mov	 DWORD PTR [eax], ecx

; 230  :         _Ty(_STD forward<_Types>(_Args)...);
; 231  : }

  0000d	5d		 pop	 ebp
  0000e	c3		 ret	 0
??$_Construct_in_place@PADABQAD@std@@YAXAAPADABQAD@Z ENDP ; std::_Construct_in_place<char *,char * const &>
_TEXT	ENDS
; Function compile flags: /Ogtp
; File C:\Program Files (x86)\Microsoft Visual Studio\2019\Community\VC\Tools\MSVC\14.28.29333\include\xmemory
;	COMDAT ??$_Destroy_in_place@PAD@std@@YAXAAPAD@Z
_TEXT	SEGMENT
__Obj$ = 8						; size = 4
??$_Destroy_in_place@PAD@std@@YAXAAPAD@Z PROC		; std::_Destroy_in_place<char *>, COMDAT

; 271  : #if _HAS_IF_CONSTEXPR
; 272  :     if constexpr (is_array_v<_Ty>) {
; 273  :         _Destroy_range(_Obj, _Obj + extent_v<_Ty>);
; 274  :     } else
; 275  : #endif // _HAS_IF_CONSTEXPR
; 276  :     {
; 277  :         _Obj.~_Ty();
; 278  :     }
; 279  : }

  00000	c2 00 00	 ret	 0
??$_Destroy_in_place@PAD@std@@YAXAAPAD@Z ENDP		; std::_Destroy_in_place<char *>
_TEXT	ENDS
; Function compile flags: /Ogtp
; File D:\Metin2 Server Files\mainline\SRC_2014\Metin2Client\UserInterface\PythonCharacterModule.cpp
;	COMDAT ?initchr@@YAXXZ
_TEXT	SEGMENT
?initchr@@YAXXZ PROC					; initchr, COMDAT

; 1225 : {

  00000	56		 push	 esi
  00001	57		 push	 edi

; 1226 : 	static PyMethodDef s_methods[] =
; 1227 : 	{
; 1228 : 		{ "DismountHorse",				chrDismountHorse,					METH_VARARGS },
; 1229 : 		{ "MountHorse",					chrMountHorse,						METH_VARARGS },
; 1230 : 
; 1231 : 		{ "Destroy",					chrDestroy,							METH_VARARGS },
; 1232 : 		{ "Update",						chrUpdate,							METH_VARARGS },
; 1233 : 		{ "Deform",						chrDeform,							METH_VARARGS },
; 1234 : 		{ "Render",						chrRender,							METH_VARARGS },
; 1235 : 		{ "RenderCollision",			chrRenderCollision,					METH_VARARGS },
; 1236 : 
; 1237 : 		// Functions For Python Code
; 1238 : 		{ "CreateInstance",				chrCreateInstance,					METH_VARARGS },
; 1239 : 		{ "DeleteInstance",				chrDeleteInstance,					METH_VARARGS },
; 1240 : 		{ "DeleteInstanceByFade",		chrDeleteInstanceByFade,			METH_VARARGS },
; 1241 : 		{ "SelectInstance",				chrSelectInstance,					METH_VARARGS },
; 1242 : 
; 1243 : 		{ "HasInstance",				chrHasInstance,						METH_VARARGS },
; 1244 : 		{ "IsEnemy",					chrIsEnemy,							METH_VARARGS },
; 1245 : 		{ "IsNPC",						chrIsNPC,							METH_VARARGS },
; 1246 : 		{ "IsGameMaster",				chrIsGameMaster,					METH_VARARGS },
; 1247 : 		{ "IsPartyMember",				chrIsPartyMember,					METH_VARARGS },
; 1248 : 
; 1249 : 		{ "Select",						chrSelect,							METH_VARARGS },
; 1250 : 		{ "SetAddRenderMode",			chrSetAddRenderMode,				METH_VARARGS },
; 1251 : 		{ "SetBlendRenderMode",			chrSetBlendRenderMode,				METH_VARARGS },
; 1252 : 		{ "Unselect",					chrUnselect,						METH_VARARGS },
; 1253 : 
; 1254 : 		{ "Hide",						chrHide,							METH_VARARGS },
; 1255 : 		{ "Show",						chrShow,							METH_VARARGS },
; 1256 : 		{ "Pick",						chrPick,							METH_VARARGS },
; 1257 : 		{ "PickAll",					chrPickAll,							METH_VARARGS },
; 1258 : 
; 1259 : 		{ "SetArmor",					chrSetArmor,						METH_VARARGS },
; 1260 : 		{ "SetWeapon",					chrSetWeapon,						METH_VARARGS },
; 1261 : 		{ "ChangeShape",				chrChangeShape,						METH_VARARGS },
; 1262 : 		{ "SetRace",					chrSetRace,							METH_VARARGS },
; 1263 : 		{ "SetHair",					chrSetHair,							METH_VARARGS },
; 1264 : 		{ "ChangeHair",					chrChangeHair,						METH_VARARGS },
; 1265 : 		{ "SetVirtualID",				chrSetVirtualID,					METH_VARARGS },
; 1266 : 		{ "SetNameString",				chrSetNameString,					METH_VARARGS },
; 1267 : 		{ "SetInstanceType",			chrSetInstanceType,					METH_VARARGS },
; 1268 : 
; 1269 : 		{ "SetPixelPosition",			chrSetPixelPosition,				METH_VARARGS },
; 1270 : 		{ "SetDirection",				chrSetDirection,					METH_VARARGS },
; 1271 : 		{ "Refresh",					chrRefresh,							METH_VARARGS },
; 1272 : 		{ "Revive",						chrRevive,							METH_VARARGS },
; 1273 : 		{ "Die",						chrDie,								METH_VARARGS },
; 1274 : 
; 1275 : 		{ "AttachEffectByID",			chrAttachEffectByID,				METH_VARARGS },
; 1276 : 		{ "AttachEffectByName",			chrAttachEffectByName,				METH_VARARGS },
; 1277 : 
; 1278 : 		{ "LookAt",						chrLookAt,							METH_VARARGS },
; 1279 : 		{ "SetMotionMode",				chrSetMotionMode,					METH_VARARGS },
; 1280 : 		{ "SetLoopMotion",				chrSetLoopMotion,					METH_VARARGS },
; 1281 : 		{ "BlendLoopMotion",			chrBlendLoopMotion,					METH_VARARGS },
; 1282 : 		{ "PushOnceMotion",				chrPushOnceMotion,					METH_VARARGS },
; 1283 : 		{ "PushLoopMotion",				chrPushLoopMotion,					METH_VARARGS },
; 1284 : 		{ "GetPixelPosition",			chrGetPixelPosition,				METH_VARARGS },
; 1285 : 		{ "SetRotation",				chrSetRotation,						METH_VARARGS },
; 1286 : 		{ "SetRotationAll",				chrSetRotationAll,					METH_VARARGS },
; 1287 : 		{ "BlendRotation",				chrBlendRotation,					METH_VARARGS },
; 1288 : 		{ "GetRotation",				chrGetRotation,						METH_VARARGS },
; 1289 : 		{ "GetRace",					chrGetRace,							METH_VARARGS },
; 1290 : 		{ "GetName",					chrGetName,							METH_VARARGS },
; 1291 : 		{ "GetNameByVID",				chrGetNameByVID,					METH_VARARGS },
; 1292 : 		{ "GetGuildID",					chrGetGuildID,						METH_VARARGS },
; 1293 : 		{ "GetProjectPosition",			chrGetProjectPosition,				METH_VARARGS },
; 1294 : 
; 1295 : 		{ "GetVirtualNumber",			chrGetVirtualNumber,				METH_VARARGS },
; 1296 : 		{ "GetInstanceType",			chrGetInstanceType,					METH_VARARGS },
; 1297 : 
; 1298 : 		{ "GetBoundBoxOnlyXY",			chrGetBoundBoxOnlyXY,				METH_VARARGS },
; 1299 : 
; 1300 : 		{ "RaceToJob",					chrRaceToJob,							METH_VARARGS },
; 1301 : 		{ "RaceToSex",					chrRaceToSex,							METH_VARARGS },
; 1302 : 
; 1303 : 		// For Test
; 1304 : 		{ "testGetPKData",					chrtestGetPKData,					METH_VARARGS },
; 1305 : 		{ "FaintTest",						chrFaintTest,						METH_VARARGS },
; 1306 : 		{ "SetMoveSpeed",					chrSetMoveSpeed,					METH_VARARGS },
; 1307 : 		{ "SetAttackSpeed",					chrSetAttackSpeed,					METH_VARARGS },
; 1308 : 		{ "WeaponTraceSetTexture",			chrWeaponTraceSetTexture,			METH_VARARGS },
; 1309 : 		{ "WeaponTraceUseAlpha",			chrWeaponTraceUseAlpha,				METH_VARARGS },
; 1310 : 		{ "WeaponTraceUseTexture",			chrWeaponTraceUseTexture,			METH_VARARGS },
; 1311 : 		{ "MoveToDestPosition",				chrMoveToDestPosition,				METH_VARARGS },
; 1312 : 		{ "testSetComboType",				chrtestSetComboType,				METH_VARARGS },
; 1313 : 		{ "testSetAddRenderMode",			chrtestSetAddRenderMode,			METH_VARARGS },
; 1314 : 		{ "testSetModulateRenderMode",		chrtestSetModulateRenderMode,		METH_VARARGS },
; 1315 : 		{ "testSetAddRenderModeRGB",		chrtestSetAddRenderModeRGB,			METH_VARARGS },
; 1316 : 		{ "testSetModulateRenderModeRGB",	chrtestSetModulateRenderModeRGB,	METH_VARARGS },
; 1317 : 		{ "testSetSpecularRenderMode",		chrtestSetSpecularRenderMode,		METH_VARARGS },
; 1318 : 		{ "testSetSpecularRenderMode2",		chrtestSetSpecularRenderMode2,		METH_VARARGS },
; 1319 : 		{ "testRestoreRenderMode",			chrtestRestoreRenderMode,			METH_VARARGS },
; 1320 : 		{ "testSetRideMan",					chrtestSetRideMan,					METH_VARARGS },
; 1321 : 
; 1322 : 		{ NULL,								NULL,								NULL		 },
; 1323 : 	};
; 1324 : 
; 1325 : 	PyObject * poModule = Py_InitModule("chr", s_methods);

  00002	68 f5 03 00 00	 push	 1013			; 000003f5H
  00007	6a 00		 push	 0
  00009	6a 00		 push	 0
  0000b	68 00 00 00 00	 push	 OFFSET ?s_methods@?1??initchr@@YAXXZ@4PAUPyMethodDef@@A
  00010	68 00 00 00 00	 push	 OFFSET ??_C@_03KMOFPJOC@chr@
  00015	ff 15 00 00 00
	00		 call	 DWORD PTR __imp__Py_InitModule4

; 1326 : 
; 1327 : 	// Length
; 1328 : 	PyModule_AddIntConstant(poModule, "PLAYER_NAME_MAX_LEN",				PLAYER_NAME_MAX_LEN);

  0001b	8b 35 00 00 00
	00		 mov	 esi, DWORD PTR __imp__PyModule_AddIntConstant
  00021	8b f8		 mov	 edi, eax
  00023	6a 0c		 push	 12			; 0000000cH
  00025	68 00 00 00 00	 push	 OFFSET ??_C@_0BE@BCBGONIE@PLAYER_NAME_MAX_LEN@
  0002a	57		 push	 edi
  0002b	ff d6		 call	 esi

; 1329 : 
; 1330 : 	// General
; 1331 : 	PyModule_AddIntConstant(poModule, "MOTION_NONE",						CRaceMotionData::NAME_NONE);

  0002d	6a 00		 push	 0
  0002f	68 00 00 00 00	 push	 OFFSET ??_C@_0M@GHHHCAEH@MOTION_NONE@
  00034	57		 push	 edi
  00035	ff d6		 call	 esi

; 1332 : 
; 1333 : 	PyModule_AddIntConstant(poModule, "MOTION_SPAWN",						CRaceMotionData::NAME_SPAWN);

  00037	6a 19		 push	 25			; 00000019H
  00039	68 00 00 00 00	 push	 OFFSET ??_C@_0N@JMBMLHMG@MOTION_SPAWN@
  0003e	57		 push	 edi
  0003f	ff d6		 call	 esi

; 1334 : 	PyModule_AddIntConstant(poModule, "MOTION_WAIT",						CRaceMotionData::NAME_WAIT);

  00041	6a 01		 push	 1
  00043	68 00 00 00 00	 push	 OFFSET ??_C@_0M@LMMOJHBC@MOTION_WAIT@
  00048	57		 push	 edi
  00049	ff d6		 call	 esi
  0004b	83 c4 44	 add	 esp, 68			; 00000044H

; 1335 : 	PyModule_AddIntConstant(poModule, "MOTION_WALK",						CRaceMotionData::NAME_WALK);

  0004e	6a 02		 push	 2
  00050	68 00 00 00 00	 push	 OFFSET ??_C@_0M@HHFPFLGH@MOTION_WALK@
  00055	57		 push	 edi
  00056	ff d6		 call	 esi

; 1336 : 	PyModule_AddIntConstant(poModule, "MOTION_RUN",							CRaceMotionData::NAME_RUN);

  00058	6a 03		 push	 3
  0005a	68 00 00 00 00	 push	 OFFSET ??_C@_0L@KHKCPAAF@MOTION_RUN@
  0005f	57		 push	 edi
  00060	ff d6		 call	 esi

; 1337 : 	PyModule_AddIntConstant(poModule, "MOTION_CHANGE_WEAPON",				CRaceMotionData::NAME_CHANGE_WEAPON);

  00062	6a 04		 push	 4
  00064	68 00 00 00 00	 push	 OFFSET ??_C@_0BF@ICKHJCNJ@MOTION_CHANGE_WEAPON@
  00069	57		 push	 edi
  0006a	ff d6		 call	 esi

; 1338 : 	PyModule_AddIntConstant(poModule, "MOTION_DAMAGE",						CRaceMotionData::NAME_DAMAGE);

  0006c	6a 05		 push	 5
  0006e	68 00 00 00 00	 push	 OFFSET ??_C@_0O@CKDFGNMB@MOTION_DAMAGE@
  00073	57		 push	 edi
  00074	ff d6		 call	 esi

; 1339 : 	PyModule_AddIntConstant(poModule, "MOTION_DAMAGE_FLYING",				CRaceMotionData::NAME_DAMAGE_FLYING);

  00076	6a 06		 push	 6
  00078	68 00 00 00 00	 push	 OFFSET ??_C@_0BF@LNCKFICM@MOTION_DAMAGE_FLYING@
  0007d	57		 push	 edi
  0007e	ff d6		 call	 esi

; 1340 : 	PyModule_AddIntConstant(poModule, "MOTION_STAND_UP",					CRaceMotionData::NAME_STAND_UP);

  00080	6a 07		 push	 7
  00082	68 00 00 00 00	 push	 OFFSET ??_C@_0BA@IDCGGFKN@MOTION_STAND_UP@
  00087	57		 push	 edi
  00088	ff d6		 call	 esi
  0008a	83 c4 48	 add	 esp, 72			; 00000048H

; 1341 : 	PyModule_AddIntConstant(poModule, "MOTION_DAMAGE_BACK",					CRaceMotionData::NAME_DAMAGE_BACK);

  0008d	6a 08		 push	 8
  0008f	68 00 00 00 00	 push	 OFFSET ??_C@_0BD@MNOACOOC@MOTION_DAMAGE_BACK@
  00094	57		 push	 edi
  00095	ff d6		 call	 esi

; 1342 : 	PyModule_AddIntConstant(poModule, "MOTION_DAMAGE_FLYING_BACK",			CRaceMotionData::NAME_DAMAGE_FLYING_BACK);

  00097	6a 09		 push	 9
  00099	68 00 00 00 00	 push	 OFFSET ??_C@_0BK@PDCLNNIP@MOTION_DAMAGE_FLYING_BACK@
  0009e	57		 push	 edi
  0009f	ff d6		 call	 esi

; 1343 : 	PyModule_AddIntConstant(poModule, "MOTION_STAND_UP_BACK",				CRaceMotionData::NAME_STAND_UP_BACK);

  000a1	6a 0a		 push	 10			; 0000000aH
  000a3	68 00 00 00 00	 push	 OFFSET ??_C@_0BF@DFDDIGMI@MOTION_STAND_UP_BACK@
  000a8	57		 push	 edi
  000a9	ff d6		 call	 esi

; 1344 : 	PyModule_AddIntConstant(poModule, "MOTION_DEAD",						CRaceMotionData::NAME_DEAD);

  000ab	6a 0b		 push	 11			; 0000000bH
  000ad	68 00 00 00 00	 push	 OFFSET ??_C@_0M@FADNKOPO@MOTION_DEAD@
  000b2	57		 push	 edi
  000b3	ff d6		 call	 esi

; 1345 : 	PyModule_AddIntConstant(poModule, "MOTION_DEAD_BACK",					CRaceMotionData::NAME_DEAD_BACK);

  000b5	6a 0c		 push	 12			; 0000000cH
  000b7	68 00 00 00 00	 push	 OFFSET ??_C@_0BB@FBKKIAJJ@MOTION_DEAD_BACK@
  000bc	57		 push	 edi
  000bd	ff d6		 call	 esi

; 1346 : 	PyModule_AddIntConstant(poModule, "MOTION_NORMAL_ATTACK",				CRaceMotionData::NAME_NORMAL_ATTACK);

  000bf	6a 0d		 push	 13			; 0000000dH
  000c1	68 00 00 00 00	 push	 OFFSET ??_C@_0BF@PDLLCGCI@MOTION_NORMAL_ATTACK@
  000c6	57		 push	 edi
  000c7	ff d6		 call	 esi
  000c9	83 c4 48	 add	 esp, 72			; 00000048H

; 1347 : 	PyModule_AddIntConstant(poModule, "MOTION_COMBO_ATTACK_1",				CRaceMotionData::NAME_COMBO_ATTACK_1);

  000cc	6a 0e		 push	 14			; 0000000eH
  000ce	68 00 00 00 00	 push	 OFFSET ??_C@_0BG@NHAANOLG@MOTION_COMBO_ATTACK_1@
  000d3	57		 push	 edi
  000d4	ff d6		 call	 esi

; 1348 : 	PyModule_AddIntConstant(poModule, "MOTION_COMBO_ATTACK_2",				CRaceMotionData::NAME_COMBO_ATTACK_2);

  000d6	6a 0f		 push	 15			; 0000000fH
  000d8	68 00 00 00 00	 push	 OFFSET ??_C@_0BG@PMCNINHF@MOTION_COMBO_ATTACK_2@
  000dd	57		 push	 edi
  000de	ff d6		 call	 esi

; 1349 : 	PyModule_AddIntConstant(poModule, "MOTION_COMBO_ATTACK_3",				CRaceMotionData::NAME_COMBO_ATTACK_3);

  000e0	6a 10		 push	 16			; 00000010H
  000e2	68 00 00 00 00	 push	 OFFSET ??_C@_0BG@OFDGLMDE@MOTION_COMBO_ATTACK_3@
  000e7	57		 push	 edi
  000e8	ff d6		 call	 esi

; 1350 : 	PyModule_AddIntConstant(poModule, "MOTION_COMBO_ATTACK_4",				CRaceMotionData::NAME_COMBO_ATTACK_4);

  000ea	6a 11		 push	 17			; 00000011H
  000ec	68 00 00 00 00	 push	 OFFSET ??_C@_0BG@KKHHCKPD@MOTION_COMBO_ATTACK_4@
  000f1	57		 push	 edi
  000f2	ff d6		 call	 esi

; 1351 : 	PyModule_AddIntConstant(poModule, "MOTION_COMBO_ATTACK_5",				CRaceMotionData::NAME_COMBO_ATTACK_5);

  000f4	6a 12		 push	 18			; 00000012H
  000f6	68 00 00 00 00	 push	 OFFSET ??_C@_0BG@LDGMBLLC@MOTION_COMBO_ATTACK_5@
  000fb	57		 push	 edi
  000fc	ff d6		 call	 esi

; 1352 : 	PyModule_AddIntConstant(poModule, "MOTION_COMBO_ATTACK_6",				CRaceMotionData::NAME_COMBO_ATTACK_6);

  000fe	6a 13		 push	 19			; 00000013H
  00100	68 00 00 00 00	 push	 OFFSET ??_C@_0BG@JIEBEIHB@MOTION_COMBO_ATTACK_6@
  00105	57		 push	 edi
  00106	ff d6		 call	 esi
  00108	83 c4 48	 add	 esp, 72			; 00000048H

; 1353 : 	PyModule_AddIntConstant(poModule, "MOTION_COMBO_ATTACK_7",				CRaceMotionData::NAME_COMBO_ATTACK_7);

  0010b	6a 14		 push	 20			; 00000014H
  0010d	68 00 00 00 00	 push	 OFFSET ??_C@_0BG@IBFKHJDA@MOTION_COMBO_ATTACK_7@
  00112	57		 push	 edi
  00113	ff d6		 call	 esi

; 1354 : 	PyModule_AddIntConstant(poModule, "MOTION_COMBO_ATTACK_8",				CRaceMotionData::NAME_COMBO_ATTACK_8);

  00115	6a 15		 push	 21			; 00000015H
  00117	68 00 00 00 00	 push	 OFFSET ??_C@_0BG@GMCGFPP@MOTION_COMBO_ATTACK_8@
  0011c	57		 push	 edi
  0011d	ff d6		 call	 esi

; 1355 : 	PyModule_AddIntConstant(poModule, "MOTION_INTRO_WAIT",					CRaceMotionData::NAME_INTRO_WAIT);

  0011f	6a 16		 push	 22			; 00000016H
  00121	68 00 00 00 00	 push	 OFFSET ??_C@_0BC@KGBJGDBO@MOTION_INTRO_WAIT@
  00126	57		 push	 edi
  00127	ff d6		 call	 esi

; 1356 : 	PyModule_AddIntConstant(poModule, "MOTION_INTRO_SELECTED",				CRaceMotionData::NAME_INTRO_SELECTED);

  00129	6a 17		 push	 23			; 00000017H
  0012b	68 00 00 00 00	 push	 OFFSET ??_C@_0BG@KEIOCEDJ@MOTION_INTRO_SELECTED@
  00130	57		 push	 edi
  00131	ff d6		 call	 esi

; 1357 : 	PyModule_AddIntConstant(poModule, "MOTION_INTRO_NOT_SELECTED",			CRaceMotionData::NAME_INTRO_NOT_SELECTED);

  00133	6a 18		 push	 24			; 00000018H
  00135	68 00 00 00 00	 push	 OFFSET ??_C@_0BK@BEALLN@MOTION_INTRO_NOT_SELECTED@
  0013a	57		 push	 edi
  0013b	ff d6		 call	 esi

; 1358 : 	PyModule_AddIntConstant(poModule, "MOTION_FISHING_THROW",				CRaceMotionData::NAME_FISHING_THROW);

  0013d	6a 1a		 push	 26			; 0000001aH
  0013f	68 00 00 00 00	 push	 OFFSET ??_C@_0BF@CHLKIEFK@MOTION_FISHING_THROW@
  00144	57		 push	 edi
  00145	ff d6		 call	 esi
  00147	83 c4 48	 add	 esp, 72			; 00000048H

; 1359 : 	PyModule_AddIntConstant(poModule, "MOTION_FISHING_WAIT",				CRaceMotionData::NAME_FISHING_WAIT);

  0014a	6a 1b		 push	 27			; 0000001bH
  0014c	68 00 00 00 00	 push	 OFFSET ??_C@_0BE@MOCHIGHH@MOTION_FISHING_WAIT@
  00151	57		 push	 edi
  00152	ff d6		 call	 esi

; 1360 : 	PyModule_AddIntConstant(poModule, "MOTION_FISHING_STOP",				CRaceMotionData::NAME_FISHING_STOP);

  00154	6a 1c		 push	 28			; 0000001cH
  00156	68 00 00 00 00	 push	 OFFSET ??_C@_0BE@DMIBDOKM@MOTION_FISHING_STOP@
  0015b	57		 push	 edi
  0015c	ff d6		 call	 esi

; 1361 : 	PyModule_AddIntConstant(poModule, "MOTION_FISHING_REACT",				CRaceMotionData::NAME_FISHING_REACT);

  0015e	6a 1d		 push	 29			; 0000001dH
  00160	68 00 00 00 00	 push	 OFFSET ??_C@_0BF@GJOIPBCA@MOTION_FISHING_REACT@
  00165	57		 push	 edi
  00166	ff d6		 call	 esi

; 1362 : 	PyModule_AddIntConstant(poModule, "MOTION_FISHING_CATCH",				CRaceMotionData::NAME_FISHING_CATCH);

  00168	6a 1e		 push	 30			; 0000001eH
  0016a	68 00 00 00 00	 push	 OFFSET ??_C@_0BF@NFFCHMCO@MOTION_FISHING_CATCH@
  0016f	57		 push	 edi
  00170	ff d6		 call	 esi

; 1363 : 	PyModule_AddIntConstant(poModule, "MOTION_FISHING_FAIL",				CRaceMotionData::NAME_FISHING_FAIL);

  00172	6a 1f		 push	 31			; 0000001fH
  00174	68 00 00 00 00	 push	 OFFSET ??_C@_0BE@BBLMKABM@MOTION_FISHING_FAIL@
  00179	57		 push	 edi
  0017a	ff d6		 call	 esi

; 1364 : 	PyModule_AddIntConstant(poModule, "MOTION_STOP",						CRaceMotionData::NAME_STOP);

  0017c	6a 20		 push	 32			; 00000020H
  0017e	68 00 00 00 00	 push	 OFFSET ??_C@_0M@EOGICPMJ@MOTION_STOP@
  00183	57		 push	 edi
  00184	ff d6		 call	 esi
  00186	83 c4 48	 add	 esp, 72			; 00000048H

; 1365 : 	PyModule_AddIntConstant(poModule, "MOTION_SKILL",						CRaceMotionData::NAME_SKILL);

  00189	6a 32		 push	 50			; 00000032H
  0018b	68 00 00 00 00	 push	 OFFSET ??_C@_0N@GMNNBHKJ@MOTION_SKILL@
  00190	57		 push	 edi
  00191	ff d6		 call	 esi

; 1366 : 	PyModule_AddIntConstant(poModule, "MOTION_CLAP",						CRaceMotionData::NAME_CLAP);

  00193	68 32 01 00 00	 push	 306			; 00000132H
  00198	68 00 00 00 00	 push	 OFFSET ??_C@_0M@LBLLOKDB@MOTION_CLAP@
  0019d	57		 push	 edi
  0019e	ff d6		 call	 esi

; 1367 : 	PyModule_AddIntConstant(poModule, "MOTION_DANCE_1",						CRaceMotionData::NAME_DANCE_1);

  001a0	68 46 01 00 00	 push	 326			; 00000146H
  001a5	68 00 00 00 00	 push	 OFFSET ??_C@_0P@GNPIAPBK@MOTION_DANCE_1@
  001aa	57		 push	 edi
  001ab	ff d6		 call	 esi

; 1368 : 	PyModule_AddIntConstant(poModule, "MOTION_DANCE_2",						CRaceMotionData::NAME_DANCE_2);

  001ad	68 47 01 00 00	 push	 327			; 00000147H
  001b2	68 00 00 00 00	 push	 OFFSET ??_C@_0P@EGNFFMNJ@MOTION_DANCE_2@
  001b7	57		 push	 edi
  001b8	ff d6		 call	 esi

; 1369 : 
; 1370 : 	PyModule_AddIntConstant(poModule, "MOTION_DANCE_3",						CRaceMotionData::NAME_DANCE_3);

  001ba	68 48 01 00 00	 push	 328			; 00000148H
  001bf	68 00 00 00 00	 push	 OFFSET ??_C@_0P@FPMOGNJI@MOTION_DANCE_3@
  001c4	57		 push	 edi
  001c5	ff d6		 call	 esi

; 1371 : 	PyModule_AddIntConstant(poModule, "MOTION_DANCE_4",						CRaceMotionData::NAME_DANCE_4);

  001c7	68 49 01 00 00	 push	 329			; 00000149H
  001cc	68 00 00 00 00	 push	 OFFSET ??_C@_0P@BAIPPLFP@MOTION_DANCE_4@
  001d1	57		 push	 edi
  001d2	ff d6		 call	 esi
  001d4	83 c4 48	 add	 esp, 72			; 00000048H

; 1372 : 	PyModule_AddIntConstant(poModule, "MOTION_DANCE_5",						CRaceMotionData::NAME_DANCE_5);

  001d7	68 4a 01 00 00	 push	 330			; 0000014aH
  001dc	68 00 00 00 00	 push	 OFFSET ??_C@_0P@JJEMKBO@MOTION_DANCE_5@
  001e1	57		 push	 edi
  001e2	ff d6		 call	 esi

; 1373 : 	PyModule_AddIntConstant(poModule, "MOTION_DANCE_6",						CRaceMotionData::NAME_DANCE_6);

  001e4	68 4b 01 00 00	 push	 331			; 0000014bH
  001e9	68 00 00 00 00	 push	 OFFSET ??_C@_0P@CCLJJJNN@MOTION_DANCE_6@
  001ee	57		 push	 edi
  001ef	ff d6		 call	 esi

; 1374 : 	PyModule_AddIntConstant(poModule, "MOTION_CONGRATULATION",				CRaceMotionData::NAME_CONGRATULATION);

  001f1	68 57 01 00 00	 push	 343			; 00000157H
  001f6	68 00 00 00 00	 push	 OFFSET ??_C@_0BG@BMOIGNKG@MOTION_CONGRATULATION@
  001fb	57		 push	 edi
  001fc	ff d6		 call	 esi

; 1375 : 	PyModule_AddIntConstant(poModule, "MOTION_FORGIVE",						CRaceMotionData::NAME_FORGIVE);

  001fe	68 58 01 00 00	 push	 344			; 00000158H
  00203	68 00 00 00 00	 push	 OFFSET ??_C@_0P@PACCCPNP@MOTION_FORGIVE@
  00208	57		 push	 edi
  00209	ff d6		 call	 esi

; 1376 : 	PyModule_AddIntConstant(poModule, "MOTION_ANGRY",						CRaceMotionData::NAME_ANGRY);

  0020b	68 59 01 00 00	 push	 345			; 00000159H
  00210	68 00 00 00 00	 push	 OFFSET ??_C@_0N@CLPBCEBE@MOTION_ANGRY@
  00215	57		 push	 edi
  00216	ff d6		 call	 esi

; 1377 : 	PyModule_AddIntConstant(poModule, "MOTION_ATTRACTIVE",					CRaceMotionData::NAME_ATTRACTIVE);

  00218	68 5a 01 00 00	 push	 346			; 0000015aH
  0021d	68 00 00 00 00	 push	 OFFSET ??_C@_0BC@MOMKLPKF@MOTION_ATTRACTIVE@
  00222	57		 push	 edi
  00223	ff d6		 call	 esi
  00225	83 c4 48	 add	 esp, 72			; 00000048H

; 1378 : 	PyModule_AddIntConstant(poModule, "MOTION_SAD",							CRaceMotionData::NAME_SAD);

  00228	68 5b 01 00 00	 push	 347			; 0000015bH
  0022d	68 00 00 00 00	 push	 OFFSET ??_C@_0L@PONOHEEG@MOTION_SAD@
  00232	57		 push	 edi
  00233	ff d6		 call	 esi

; 1379 : 	PyModule_AddIntConstant(poModule, "MOTION_SHY",							CRaceMotionData::NAME_SHY);

  00235	68 5c 01 00 00	 push	 348			; 0000015cH
  0023a	68 00 00 00 00	 push	 OFFSET ??_C@_0L@OGDCDNF@MOTION_SHY@
  0023f	57		 push	 edi
  00240	ff d6		 call	 esi

; 1380 : 	PyModule_AddIntConstant(poModule, "MOTION_CHEERUP",						CRaceMotionData::NAME_CHEERUP);

  00242	68 5d 01 00 00	 push	 349			; 0000015dH
  00247	68 00 00 00 00	 push	 OFFSET ??_C@_0P@KLJNPGKF@MOTION_CHEERUP@
  0024c	57		 push	 edi
  0024d	ff d6		 call	 esi

; 1381 : 	PyModule_AddIntConstant(poModule, "MOTION_BANTER",						CRaceMotionData::NAME_BANTER);

  0024f	68 5e 01 00 00	 push	 350			; 0000015eH
  00254	68 00 00 00 00	 push	 OFFSET ??_C@_0O@GPIFNFHO@MOTION_BANTER@
  00259	57		 push	 edi
  0025a	ff d6		 call	 esi

; 1382 : 	PyModule_AddIntConstant(poModule, "MOTION_JOY",							CRaceMotionData::NAME_JOY);

  0025c	68 5f 01 00 00	 push	 351			; 0000015fH
  00261	68 00 00 00 00	 push	 OFFSET ??_C@_0L@CGDNCNEF@MOTION_JOY@
  00266	57		 push	 edi
  00267	ff d6		 call	 esi

; 1383 : 	
; 1384 : 
; 1385 : 	PyModule_AddIntConstant(poModule, "MOTION_CHEERS_1",					CRaceMotionData::NAME_CHEERS_1);

  00269	68 33 01 00 00	 push	 307			; 00000133H
  0026e	68 00 00 00 00	 push	 OFFSET ??_C@_0BA@EOHNNFMC@MOTION_CHEERS_1@
  00273	57		 push	 edi
  00274	ff d6		 call	 esi
  00276	83 c4 48	 add	 esp, 72			; 00000048H

; 1386 : 	PyModule_AddIntConstant(poModule, "MOTION_CHEERS_2",					CRaceMotionData::NAME_CHEERS_2);

  00279	68 34 01 00 00	 push	 308			; 00000134H
  0027e	68 00 00 00 00	 push	 OFFSET ??_C@_0BA@GFFAIGAB@MOTION_CHEERS_2@
  00283	57		 push	 edi
  00284	ff d6		 call	 esi

; 1387 : 	PyModule_AddIntConstant(poModule, "MOTION_KISS_WITH_WARRIOR",			CRaceMotionData::NAME_KISS_WITH_WARRIOR);

  00286	68 35 01 00 00	 push	 309			; 00000135H
  0028b	68 00 00 00 00	 push	 OFFSET ??_C@_0BJ@BNMGACEI@MOTION_KISS_WITH_WARRIOR@
  00290	57		 push	 edi
  00291	ff d6		 call	 esi

; 1388 : 	PyModule_AddIntConstant(poModule, "MOTION_KISS_WITH_ASSASSIN",			CRaceMotionData::NAME_KISS_WITH_ASSASSIN);

  00293	68 36 01 00 00	 push	 310			; 00000136H
  00298	68 00 00 00 00	 push	 OFFSET ??_C@_0BK@PEHNDAJC@MOTION_KISS_WITH_ASSASSIN@
  0029d	57		 push	 edi
  0029e	ff d6		 call	 esi

; 1389 : 	PyModule_AddIntConstant(poModule, "MOTION_KISS_WITH_SURA",				CRaceMotionData::NAME_KISS_WITH_SURA);

  002a0	68 37 01 00 00	 push	 311			; 00000137H
  002a5	68 00 00 00 00	 push	 OFFSET ??_C@_0BG@FBINLMID@MOTION_KISS_WITH_SURA@
  002aa	57		 push	 edi
  002ab	ff d6		 call	 esi

; 1390 : 	PyModule_AddIntConstant(poModule, "MOTION_KISS_WITH_SHAMAN",			CRaceMotionData::NAME_KISS_WITH_SHAMAN);

  002ad	68 38 01 00 00	 push	 312			; 00000138H
  002b2	68 00 00 00 00	 push	 OFFSET ??_C@_0BI@BPAFKDHB@MOTION_KISS_WITH_SHAMAN@
  002b7	57		 push	 edi
  002b8	ff d6		 call	 esi

; 1391 : 	PyModule_AddIntConstant(poModule, "MOTION_FRENCH_KISS_WITH_WARRIOR",	CRaceMotionData::NAME_FRENCH_KISS_WITH_WARRIOR);

  002ba	68 39 01 00 00	 push	 313			; 00000139H
  002bf	68 00 00 00 00	 push	 OFFSET ??_C@_0CA@MCOGAAOA@MOTION_FRENCH_KISS_WITH_WARRIOR@
  002c4	57		 push	 edi
  002c5	ff d6		 call	 esi
  002c7	83 c4 48	 add	 esp, 72			; 00000048H

; 1392 : 	PyModule_AddIntConstant(poModule, "MOTION_FRENCH_KISS_WITH_ASSASSIN",	CRaceMotionData::NAME_FRENCH_KISS_WITH_ASSASSIN);

  002ca	68 3a 01 00 00	 push	 314			; 0000013aH
  002cf	68 00 00 00 00	 push	 OFFSET ??_C@_0CB@CMKPDLEK@MOTION_FRENCH_KISS_WITH_ASSASSI@
  002d4	57		 push	 edi
  002d5	ff d6		 call	 esi

; 1393 : 	PyModule_AddIntConstant(poModule, "MOTION_FRENCH_KISS_WITH_SURA",		CRaceMotionData::NAME_FRENCH_KISS_WITH_SURA);

  002d7	68 3b 01 00 00	 push	 315			; 0000013bH
  002dc	68 00 00 00 00	 push	 OFFSET ??_C@_0BN@OJCLLFKP@MOTION_FRENCH_KISS_WITH_SURA@
  002e1	57		 push	 edi
  002e2	ff d6		 call	 esi

; 1394 : 	PyModule_AddIntConstant(poModule, "MOTION_FRENCH_KISS_WITH_SHAMAN",		CRaceMotionData::NAME_FRENCH_KISS_WITH_SHAMAN);

  002e4	68 3c 01 00 00	 push	 316			; 0000013cH
  002e9	68 00 00 00 00	 push	 OFFSET ??_C@_0BP@FPOIMINN@MOTION_FRENCH_KISS_WITH_SHAMAN@
  002ee	57		 push	 edi
  002ef	ff d6		 call	 esi

; 1395 : 	PyModule_AddIntConstant(poModule, "MOTION_SLAP_HIT_WITH_WARRIOR",		CRaceMotionData::NAME_SLAP_HIT_WITH_WARRIOR);

  002f1	68 3d 01 00 00	 push	 317			; 0000013dH
  002f6	68 00 00 00 00	 push	 OFFSET ??_C@_0BN@KKCFGBMO@MOTION_SLAP_HIT_WITH_WARRIOR@
  002fb	57		 push	 edi
  002fc	ff d6		 call	 esi

; 1396 : 	PyModule_AddIntConstant(poModule, "MOTION_SLAP_HIT_WITH_ASSASSIN",		CRaceMotionData::NAME_SLAP_HIT_WITH_ASSASSIN);

  002fe	68 3e 01 00 00	 push	 318			; 0000013eH
  00303	68 00 00 00 00	 push	 OFFSET ??_C@_0BO@PABBPFOE@MOTION_SLAP_HIT_WITH_ASSASSIN@
  00308	57		 push	 edi
  00309	ff d6		 call	 esi

; 1397 : 	PyModule_AddIntConstant(poModule, "MOTION_SLAP_HIT_WITH_SURA",			CRaceMotionData::NAME_SLAP_HIT_WITH_SURA);

  0030b	68 3f 01 00 00	 push	 319			; 0000013fH
  00310	68 00 00 00 00	 push	 OFFSET ??_C@_0BK@BLGFNMMI@MOTION_SLAP_HIT_WITH_SURA@
  00315	57		 push	 edi
  00316	ff d6		 call	 esi
  00318	83 c4 48	 add	 esp, 72			; 00000048H

; 1398 : 	PyModule_AddIntConstant(poModule, "MOTION_SLAP_HIT_WITH_SHAMAN",		CRaceMotionData::NAME_SLAP_HIT_WITH_SHAMAN);

  0031b	68 40 01 00 00	 push	 320			; 00000140H
  00320	68 00 00 00 00	 push	 OFFSET ??_C@_0BM@EBDKBOAP@MOTION_SLAP_HIT_WITH_SHAMAN@
  00325	57		 push	 edi
  00326	ff d6		 call	 esi

; 1399 : 	PyModule_AddIntConstant(poModule, "MOTION_SLAP_HURT_WITH_WARRIOR",		CRaceMotionData::NAME_SLAP_HURT_WITH_WARRIOR);

  00328	68 41 01 00 00	 push	 321			; 00000141H
  0032d	68 00 00 00 00	 push	 OFFSET ??_C@_0BO@ENJIKGO@MOTION_SLAP_HURT_WITH_WARRIOR@
  00332	57		 push	 edi
  00333	ff d6		 call	 esi

; 1400 : 	PyModule_AddIntConstant(poModule, "MOTION_SLAP_HURT_WITH_ASSASSIN",		CRaceMotionData::NAME_SLAP_HURT_WITH_ASSASSIN);

  00335	68 42 01 00 00	 push	 322			; 00000142H
  0033a	68 00 00 00 00	 push	 OFFSET ??_C@_0BP@CGGJKKOH@MOTION_SLAP_HURT_WITH_ASSASSIN@
  0033f	57		 push	 edi
  00340	ff d6		 call	 esi

; 1401 : 	PyModule_AddIntConstant(poModule, "MOTION_SLAP_HURT_WITH_SURA",			CRaceMotionData::NAME_SLAP_HURT_WITH_SURA);

  00342	68 43 01 00 00	 push	 323			; 00000143H
  00347	68 00 00 00 00	 push	 OFFSET ??_C@_0BL@MNIFOENP@MOTION_SLAP_HURT_WITH_SURA@
  0034c	57		 push	 edi
  0034d	ff d6		 call	 esi

; 1402 : 	PyModule_AddIntConstant(poModule, "MOTION_SLAP_HURT_WITH_SHAMAN",		CRaceMotionData::NAME_SLAP_HURT_WITH_SHAMAN);

  0034f	68 44 01 00 00	 push	 324			; 00000144H
  00354	68 00 00 00 00	 push	 OFFSET ??_C@_0BN@GMLLPEOH@MOTION_SLAP_HURT_WITH_SHAMAN@
  00359	57		 push	 edi
  0035a	ff d6		 call	 esi

; 1403 : 	PyModule_AddIntConstant(poModule, "MOTION_DIG",							CRaceMotionData::NAME_DIG);

  0035c	68 45 01 00 00	 push	 325			; 00000145H
  00361	68 00 00 00 00	 push	 OFFSET ??_C@_0L@BGCOBJBL@MOTION_DIG@
  00366	57		 push	 edi
  00367	ff d6		 call	 esi
  00369	83 c4 48	 add	 esp, 72			; 00000048H

; 1404 : 
; 1405 : 	PyModule_AddIntConstant(poModule, "MOTION_MODE_RESERVED",				CRaceMotionData::MODE_RESERVED);

  0036c	6a 00		 push	 0
  0036e	68 00 00 00 00	 push	 OFFSET ??_C@_0BF@JPHCAJND@MOTION_MODE_RESERVED@
  00373	57		 push	 edi
  00374	ff d6		 call	 esi

; 1406 : 	PyModule_AddIntConstant(poModule, "MOTION_MODE_GENERAL",				CRaceMotionData::MODE_GENERAL);

  00376	6a 01		 push	 1
  00378	68 00 00 00 00	 push	 OFFSET ??_C@_0BE@PPOENDHJ@MOTION_MODE_GENERAL@
  0037d	57		 push	 edi
  0037e	ff d6		 call	 esi

; 1407 : 	PyModule_AddIntConstant(poModule, "MOTION_MODE_ONEHAND_SWORD",			CRaceMotionData::MODE_ONEHAND_SWORD);

  00380	6a 02		 push	 2
  00382	68 00 00 00 00	 push	 OFFSET ??_C@_0BK@EGEANFHJ@MOTION_MODE_ONEHAND_SWORD@
  00387	57		 push	 edi
  00388	ff d6		 call	 esi

; 1408 : 	PyModule_AddIntConstant(poModule, "MOTION_MODE_TWOHAND_SWORD",			CRaceMotionData::MODE_TWOHAND_SWORD);

  0038a	6a 03		 push	 3
  0038c	68 00 00 00 00	 push	 OFFSET ??_C@_0BK@LGGPJGKL@MOTION_MODE_TWOHAND_SWORD@
  00391	57		 push	 edi
  00392	ff d6		 call	 esi

; 1409 : 	PyModule_AddIntConstant(poModule, "MOTION_MODE_DUALHAND_SWORD",			CRaceMotionData::MODE_DUALHAND_SWORD);

  00394	6a 04		 push	 4
  00396	68 00 00 00 00	 push	 OFFSET ??_C@_0BL@BILJFJA@MOTION_MODE_DUALHAND_SWORD@
  0039b	57		 push	 edi
  0039c	ff d6		 call	 esi

; 1410 : 	PyModule_AddIntConstant(poModule, "MOTION_MODE_BOW",					CRaceMotionData::MODE_BOW);

  0039e	6a 05		 push	 5
  003a0	68 00 00 00 00	 push	 OFFSET ??_C@_0BA@BFLJJHOH@MOTION_MODE_BOW@
  003a5	57		 push	 edi
  003a6	ff d6		 call	 esi
  003a8	83 c4 48	 add	 esp, 72			; 00000048H

; 1411 : 	PyModule_AddIntConstant(poModule, "MOTION_MODE_FAN",					CRaceMotionData::MODE_FAN);

  003ab	6a 06		 push	 6
  003ad	68 00 00 00 00	 push	 OFFSET ??_C@_0BA@LEFIEKC@MOTION_MODE_FAN@
  003b2	57		 push	 edi
  003b3	ff d6		 call	 esi

; 1412 : 	PyModule_AddIntConstant(poModule, "MOTION_MODE_BELL",					CRaceMotionData::MODE_BELL);

  003b5	6a 07		 push	 7
  003b7	68 00 00 00 00	 push	 OFFSET ??_C@_0BB@BNHJGCLA@MOTION_MODE_BELL@
  003bc	57		 push	 edi
  003bd	ff d6		 call	 esi

; 1413 : 	PyModule_AddIntConstant(poModule, "MOTION_MODE_FISHING",				CRaceMotionData::MODE_FISHING);

  003bf	6a 08		 push	 8
  003c1	68 00 00 00 00	 push	 OFFSET ??_C@_0BE@NMIGCCAP@MOTION_MODE_FISHING@
  003c6	57		 push	 edi
  003c7	ff d6		 call	 esi

; 1414 : 	PyModule_AddIntConstant(poModule, "MOTION_MODE_HORSE",					CRaceMotionData::MODE_HORSE);

  003c9	6a 09		 push	 9
  003cb	68 00 00 00 00	 push	 OFFSET ??_C@_0BC@KOFIOII@MOTION_MODE_HORSE@
  003d0	57		 push	 edi
  003d1	ff d6		 call	 esi

; 1415 : 	PyModule_AddIntConstant(poModule, "MOTION_MODE_HORSE_ONEHAND_SWORD",	CRaceMotionData::MODE_HORSE_ONEHAND_SWORD);

  003d3	6a 0a		 push	 10			; 0000000aH
  003d5	68 00 00 00 00	 push	 OFFSET ??_C@_0CA@LBDCIFIC@MOTION_MODE_HORSE_ONEHAND_SWORD@
  003da	57		 push	 edi
  003db	ff d6		 call	 esi

; 1416 : 	PyModule_AddIntConstant(poModule, "MOTION_MODE_HORSE_TWOHAND_SWORD",	CRaceMotionData::MODE_HORSE_TWOHAND_SWORD);

  003dd	6a 0b		 push	 11			; 0000000bH
  003df	68 00 00 00 00	 push	 OFFSET ??_C@_0CA@EBBNMGFA@MOTION_MODE_HORSE_TWOHAND_SWORD@
  003e4	57		 push	 edi
  003e5	ff d6		 call	 esi
  003e7	83 c4 48	 add	 esp, 72			; 00000048H

; 1417 : 	PyModule_AddIntConstant(poModule, "MOTION_MODE_HORSE_DUALHAND_SWORD",	CRaceMotionData::MODE_HORSE_DUALHAND_SWORD);

  003ea	6a 0c		 push	 12			; 0000000cH
  003ec	68 00 00 00 00	 push	 OFFSET ??_C@_0CB@CLBDMMFE@MOTION_MODE_HORSE_DUALHAND_SWOR@
  003f1	57		 push	 edi
  003f2	ff d6		 call	 esi

; 1418 : 	PyModule_AddIntConstant(poModule, "MOTION_MODE_HORSE_BOW",				CRaceMotionData::MODE_HORSE_BOW);

  003f4	6a 0d		 push	 13			; 0000000dH
  003f6	68 00 00 00 00	 push	 OFFSET ??_C@_0BG@FPIIPCL@MOTION_MODE_HORSE_BOW@
  003fb	57		 push	 edi
  003fc	ff d6		 call	 esi

; 1419 : 	PyModule_AddIntConstant(poModule, "MOTION_MODE_HORSE_FAN",				CRaceMotionData::MODE_HORSE_FAN);

  003fe	6a 0e		 push	 14			; 0000000eH
  00400	68 00 00 00 00	 push	 OFFSET ??_C@_0BG@BLAEJMGO@MOTION_MODE_HORSE_FAN@
  00405	57		 push	 edi
  00406	ff d6		 call	 esi

; 1420 : 	PyModule_AddIntConstant(poModule, "MOTION_MODE_HORSE_BELL",				CRaceMotionData::MODE_HORSE_BELL);

  00408	6a 0f		 push	 15			; 0000000fH
  0040a	68 00 00 00 00	 push	 OFFSET ??_C@_0BH@IPLLKNDD@MOTION_MODE_HORSE_BELL@
  0040f	57		 push	 edi
  00410	ff d6		 call	 esi

; 1421 : 	PyModule_AddIntConstant(poModule, "MOTION_MODE_WEDDING_DRESS",			CRaceMotionData::MODE_WEDDING_DRESS);

  00412	6a 10		 push	 16			; 00000010H
  00414	68 00 00 00 00	 push	 OFFSET ??_C@_0BK@EFEKGCKJ@MOTION_MODE_WEDDING_DRESS@
  00419	57		 push	 edi
  0041a	ff d6		 call	 esi

; 1422 : 
; 1423 : 	PyModule_AddIntConstant(poModule, "DIR_NORTH",							CInstanceBase::DIR_NORTH);

  0041c	6a 00		 push	 0
  0041e	68 00 00 00 00	 push	 OFFSET ??_C@_09OGGLMICG@DIR_NORTH@
  00423	57		 push	 edi
  00424	ff d6		 call	 esi
  00426	83 c4 48	 add	 esp, 72			; 00000048H

; 1424 : 	PyModule_AddIntConstant(poModule, "DIR_NORTHEAST",						CInstanceBase::DIR_NORTHEAST);

  00429	6a 01		 push	 1
  0042b	68 00 00 00 00	 push	 OFFSET ??_C@_0O@NGBDCCOD@DIR_NORTHEAST@
  00430	57		 push	 edi
  00431	ff d6		 call	 esi

; 1425 : 	PyModule_AddIntConstant(poModule, "DIR_EAST",							CInstanceBase::DIR_EAST);

  00433	6a 02		 push	 2
  00435	68 00 00 00 00	 push	 OFFSET ??_C@_08OGFOMCPI@DIR_EAST@
  0043a	57		 push	 edi
  0043b	ff d6		 call	 esi

; 1426 : 	PyModule_AddIntConstant(poModule, "DIR_SOUTHEAST",						CInstanceBase::DIR_SOUTHEAST);

  0043d	6a 03		 push	 3
  0043f	68 00 00 00 00	 push	 OFFSET ??_C@_0O@OIGCBKC@DIR_SOUTHEAST@
  00444	57		 push	 edi
  00445	ff d6		 call	 esi

; 1427 : 	PyModule_AddIntConstant(poModule, "DIR_SOUTH",							CInstanceBase::DIR_SOUTH);

  00447	6a 04		 push	 4
  00449	68 00 00 00 00	 push	 OFFSET ??_C@_09MEPEOBNK@DIR_SOUTH@
  0044e	57		 push	 edi
  0044f	ff d6		 call	 esi

; 1428 : 	PyModule_AddIntConstant(poModule, "DIR_SOUTHWEST",						CInstanceBase::DIR_SOUTHWEST);

  00451	6a 05		 push	 5
  00453	68 00 00 00 00	 push	 OFFSET ??_C@_0O@JLMEHCBH@DIR_SOUTHWEST@
  00458	57		 push	 edi
  00459	ff d6		 call	 esi

; 1429 : 	PyModule_AddIntConstant(poModule, "DIR_WEST",							CInstanceBase::DIR_WEST);

  0045b	6a 06		 push	 6
  0045d	68 00 00 00 00	 push	 OFFSET ??_C@_08HDBMJBEN@DIR_WEST@
  00462	57		 push	 edi
  00463	ff d6		 call	 esi
  00465	83 c4 48	 add	 esp, 72			; 00000048H

; 1430 : 	PyModule_AddIntConstant(poModule, "DIR_NORTHWEST",						CInstanceBase::DIR_NORTHWEST);

  00468	6a 07		 push	 7
  0046a	68 00 00 00 00	 push	 OFFSET ??_C@_0O@EDFBHBFG@DIR_NORTHWEST@
  0046f	57		 push	 edi
  00470	ff d6		 call	 esi

; 1431 : 
; 1432 : 	PyModule_AddIntConstant(poModule, "INSTANCE_TYPE_PLAYER",				CActorInstance::TYPE_PC);

  00472	6a 06		 push	 6
  00474	68 00 00 00 00	 push	 OFFSET ??_C@_0BF@LBEOLJOH@INSTANCE_TYPE_PLAYER@
  00479	57		 push	 edi
  0047a	ff d6		 call	 esi

; 1433 : 	PyModule_AddIntConstant(poModule, "INSTANCE_TYPE_NPC",					CActorInstance::TYPE_NPC);

  0047c	6a 01		 push	 1
  0047e	68 00 00 00 00	 push	 OFFSET ??_C@_0BC@HPKLHBPD@INSTANCE_TYPE_NPC@
  00483	57		 push	 edi
  00484	ff d6		 call	 esi

; 1434 : 	PyModule_AddIntConstant(poModule, "INSTANCE_TYPE_ENEMY",				CActorInstance::TYPE_ENEMY);

  00486	6a 00		 push	 0
  00488	68 00 00 00 00	 push	 OFFSET ??_C@_0BE@JLNEPCAN@INSTANCE_TYPE_ENEMY@
  0048d	57		 push	 edi
  0048e	ff d6		 call	 esi

; 1435 : 	PyModule_AddIntConstant(poModule, "INSTANCE_TYPE_BUILDING",				CActorInstance::TYPE_BUILDING);

  00490	6a 05		 push	 5
  00492	68 00 00 00 00	 push	 OFFSET ??_C@_0BH@FNPAMCND@INSTANCE_TYPE_BUILDING@
  00497	57		 push	 edi
  00498	ff d6		 call	 esi

; 1436 : 	PyModule_AddIntConstant(poModule, "INSTANCE_TYPE_OBJECT",				CActorInstance::TYPE_OBJECT);

  0049a	6a 0a		 push	 10			; 0000000aH
  0049c	68 00 00 00 00	 push	 OFFSET ??_C@_0BF@CFBKDGLC@INSTANCE_TYPE_OBJECT@
  004a1	57		 push	 edi
  004a2	ff d6		 call	 esi
  004a4	83 c4 48	 add	 esp, 72			; 00000048H

; 1437 : 
; 1438 : 	PyModule_AddIntConstant(poModule, "PART_WEAPON",						CRaceData::PART_WEAPON);

  004a7	6a 01		 push	 1
  004a9	68 00 00 00 00	 push	 OFFSET ??_C@_0M@LDILJIBN@PART_WEAPON@
  004ae	57		 push	 edi
  004af	ff d6		 call	 esi

; 1439 : 	PyModule_AddIntConstant(poModule, "PART_HEAD",							CRaceData::PART_HEAD);

  004b1	6a 02		 push	 2
  004b3	68 00 00 00 00	 push	 OFFSET ??_C@_09HAMNFDMJ@PART_HEAD@
  004b8	57		 push	 edi
  004b9	ff d6		 call	 esi

; 1440 : 	PyModule_AddIntConstant(poModule, "PART_WEAPON_LEFT",					CRaceData::PART_WEAPON_LEFT);

  004bb	6a 03		 push	 3
  004bd	68 00 00 00 00	 push	 OFFSET ??_C@_0BB@KENNFNCF@PART_WEAPON_LEFT@
  004c2	57		 push	 edi
  004c3	ff d6		 call	 esi

; 1441 : 
; 1442 : 	/////
; 1443 : 
; 1444 : 	PyModule_AddIntConstant(poModule, "AFFECT_POISON",						CInstanceBase::AFFECT_POISON);

  004c5	6a 03		 push	 3
  004c7	68 00 00 00 00	 push	 OFFSET ??_C@_0O@FFCFHML@AFFECT_POISON@
  004cc	57		 push	 edi
  004cd	ff d6		 call	 esi

; 1445 : 	PyModule_AddIntConstant(poModule, "AFFECT_SLOW",						CInstanceBase::AFFECT_SLOW);

  004cf	6a 04		 push	 4
  004d1	68 00 00 00 00	 push	 OFFSET ??_C@_0M@LLKNMBHE@AFFECT_SLOW@
  004d6	57		 push	 edi
  004d7	ff d6		 call	 esi

; 1446 : 	PyModule_AddIntConstant(poModule, "AFFECT_STUN",						CInstanceBase::AFFECT_STUN);

  004d9	6a 05		 push	 5
  004db	68 00 00 00 00	 push	 OFFSET ??_C@_0M@KELBDBLK@AFFECT_STUN@
  004e0	57		 push	 edi
  004e1	ff d6		 call	 esi
  004e3	83 c4 48	 add	 esp, 72			; 00000048H

; 1447 : 	PyModule_AddIntConstant(poModule, "AFFECT_MOV_SPEED_POTION",			CInstanceBase::AFFECT_MOV_SPEED_POTION);

  004e6	6a 0b		 push	 11			; 0000000bH
  004e8	68 00 00 00 00	 push	 OFFSET ??_C@_0BI@BEKPJJEK@AFFECT_MOV_SPEED_POTION@
  004ed	57		 push	 edi
  004ee	ff d6		 call	 esi

; 1448 : 	PyModule_AddIntConstant(poModule, "AFFECT_ATT_SPEED_POTION",			CInstanceBase::AFFECT_ATT_SPEED_POTION);

  004f0	6a 0c		 push	 12			; 0000000cH
  004f2	68 00 00 00 00	 push	 OFFSET ??_C@_0BI@JFMNFFKJ@AFFECT_ATT_SPEED_POTION@
  004f7	57		 push	 edi
  004f8	ff d6		 call	 esi

; 1449 : 	PyModule_AddIntConstant(poModule, "AFFECT_FISH_MIND",					CInstanceBase::AFFECT_FISH_MIND);

  004fa	6a 0d		 push	 13			; 0000000dH
  004fc	68 00 00 00 00	 push	 OFFSET ??_C@_0BB@HABGKKCK@AFFECT_FISH_MIND@
  00501	57		 push	 edi
  00502	ff d6		 call	 esi

; 1450 : 
; 1451 : 	PyModule_AddIntConstant(poModule, "AFFECT_JEONGWI",						CInstanceBase::AFFECT_JEONGWI);

  00504	6a 0e		 push	 14			; 0000000eH
  00506	68 00 00 00 00	 push	 OFFSET ??_C@_0P@PMGJMPLA@AFFECT_JEONGWI@
  0050b	57		 push	 edi
  0050c	ff d6		 call	 esi

; 1452 : 	PyModule_AddIntConstant(poModule, "AFFECT_GEOMGYEONG",					CInstanceBase::AFFECT_GEOMGYEONG);

  0050e	6a 0f		 push	 15			; 0000000fH
  00510	68 00 00 00 00	 push	 OFFSET ??_C@_0BC@BPIBLGH@AFFECT_GEOMGYEONG@
  00515	57		 push	 edi
  00516	ff d6		 call	 esi

; 1453 : 	PyModule_AddIntConstant(poModule, "AFFECT_CHEONGEUN",					CInstanceBase::AFFECT_CHEONGEUN);

  00518	6a 10		 push	 16			; 00000010H
  0051a	68 00 00 00 00	 push	 OFFSET ??_C@_0BB@NMEHKBDD@AFFECT_CHEONGEUN@
  0051f	57		 push	 edi
  00520	ff d6		 call	 esi
  00522	83 c4 48	 add	 esp, 72			; 00000048H

; 1454 : 	PyModule_AddIntConstant(poModule, "AFFECT_GYEONGGONG",					CInstanceBase::AFFECT_GYEONGGONG);

  00525	6a 11		 push	 17			; 00000011H
  00527	68 00 00 00 00	 push	 OFFSET ??_C@_0BC@DNOFICLK@AFFECT_GYEONGGONG@
  0052c	57		 push	 edi
  0052d	ff d6		 call	 esi

; 1455 : 	PyModule_AddIntConstant(poModule, "AFFECT_EUNHYEONG",					CInstanceBase::AFFECT_EUNHYEONG);

  0052f	6a 12		 push	 18			; 00000012H
  00531	68 00 00 00 00	 push	 OFFSET ??_C@_0BB@NOAECAHF@AFFECT_EUNHYEONG@
  00536	57		 push	 edi
  00537	ff d6		 call	 esi

; 1456 : 	PyModule_AddIntConstant(poModule, "AFFECT_GWIGEOM",						CInstanceBase::AFFECT_GWIGEOM);

  00539	6a 13		 push	 19			; 00000013H
  0053b	68 00 00 00 00	 push	 OFFSET ??_C@_0P@JADECJKN@AFFECT_GWIGEOM@
  00540	57		 push	 edi
  00541	ff d6		 call	 esi

; 1457 : 	PyModule_AddIntConstant(poModule, "AFFECT_GONGPO",						CInstanceBase::AFFECT_GONGPO);

  00543	6a 14		 push	 20			; 00000014H
  00545	68 00 00 00 00	 push	 OFFSET ??_C@_0O@MEBBDMFP@AFFECT_GONGPO@
  0054a	57		 push	 edi
  0054b	ff d6		 call	 esi

; 1458 : 	PyModule_AddIntConstant(poModule, "AFFECT_JUMAGAP",						CInstanceBase::AFFECT_JUMAGAP);

  0054d	6a 15		 push	 21			; 00000015H
  0054f	68 00 00 00 00	 push	 OFFSET ??_C@_0P@NHIEBDHO@AFFECT_JUMAGAP@
  00554	57		 push	 edi
  00555	ff d6		 call	 esi

; 1459 : 	PyModule_AddIntConstant(poModule, "AFFECT_HOSIN",						CInstanceBase::AFFECT_HOSIN);

  00557	6a 16		 push	 22			; 00000016H
  00559	68 00 00 00 00	 push	 OFFSET ??_C@_0N@BLOPJELK@AFFECT_HOSIN@
  0055e	57		 push	 edi
  0055f	ff d6		 call	 esi
  00561	83 c4 48	 add	 esp, 72			; 00000048H

; 1460 : 	PyModule_AddIntConstant(poModule, "AFFECT_BOHO",						CInstanceBase::AFFECT_BOHO);

  00564	6a 17		 push	 23			; 00000017H
  00566	68 00 00 00 00	 push	 OFFSET ??_C@_0M@HDMMFOHE@AFFECT_BOHO@
  0056b	57		 push	 edi
  0056c	ff d6		 call	 esi

; 1461 : 	PyModule_AddIntConstant(poModule, "AFFECT_KWAESOK",						CInstanceBase::AFFECT_KWAESOK);

  0056e	6a 18		 push	 24			; 00000018H
  00570	68 00 00 00 00	 push	 OFFSET ??_C@_0P@HCCAECCK@AFFECT_KWAESOK@
  00575	57		 push	 edi
  00576	ff d6		 call	 esi

; 1462 : 	PyModule_AddIntConstant(poModule, "AFFECT_HEUKSIN",						CInstanceBase::AFFECT_HEUKSIN);

  00578	6a 19		 push	 25			; 00000019H
  0057a	68 00 00 00 00	 push	 OFFSET ??_C@_0P@FCGDLODF@AFFECT_HEUKSIN@
  0057f	57		 push	 edi
  00580	ff d6		 call	 esi

; 1463 : 	PyModule_AddIntConstant(poModule, "AFFECT_MUYEONG",						CInstanceBase::AFFECT_MUYEONG);

  00582	6a 1a		 push	 26			; 0000001aH
  00584	68 00 00 00 00	 push	 OFFSET ??_C@_0P@HLONBHGO@AFFECT_MUYEONG@
  00589	57		 push	 edi
  0058a	ff d6		 call	 esi

; 1464 : 	PyModule_AddIntConstant(poModule, "AFFECT_GICHEON",						CInstanceBase::AFFECT_GICHEON);

  0058c	6a 1d		 push	 29			; 0000001dH
  0058e	68 00 00 00 00	 push	 OFFSET ??_C@_0P@KPDDCJEK@AFFECT_GICHEON@
  00593	57		 push	 edi
  00594	ff d6		 call	 esi

; 1465 : 	PyModule_AddIntConstant(poModule, "AFFECT_JEUNGRYEOK",					CInstanceBase::AFFECT_JEUNGRYEOK);

  00596	6a 1e		 push	 30			; 0000001eH
  00598	68 00 00 00 00	 push	 OFFSET ??_C@_0BC@HABANGHD@AFFECT_JEUNGRYEOK@
  0059d	57		 push	 edi
  0059e	ff d6		 call	 esi
  005a0	83 c4 48	 add	 esp, 72			; 00000048H

; 1466 : 	PyModule_AddIntConstant(poModule, "AFFECT_PABEOP",						CInstanceBase::AFFECT_PABEOP);

  005a3	6a 20		 push	 32			; 00000020H
  005a5	68 00 00 00 00	 push	 OFFSET ??_C@_0O@OJLLDADG@AFFECT_PABEOP@
  005aa	57		 push	 edi
  005ab	ff d6		 call	 esi

; 1467 : 	PyModule_AddIntConstant(poModule, "AFFECT_FALLEN_CHEONGEUN",			CInstanceBase::AFFECT_FALLEN_CHEONGEUN);

  005ad	6a 21		 push	 33			; 00000021H
  005af	68 00 00 00 00	 push	 OFFSET ??_C@_0BI@CFDHLOMB@AFFECT_FALLEN_CHEONGEUN@
  005b4	57		 push	 edi
  005b5	ff d6		 call	 esi

; 1468 : 	PyModule_AddIntConstant(poModule, "AFFECT_CHINA_FIREWORK",				CInstanceBase::AFFECT_CHINA_FIREWORK);

  005b7	6a 26		 push	 38			; 00000026H
  005b9	68 00 00 00 00	 push	 OFFSET ??_C@_0BG@DFBDCPEK@AFFECT_CHINA_FIREWORK@
  005be	57		 push	 edi
  005bf	ff d6		 call	 esi

; 1469 : 	PyModule_AddIntConstant(poModule, "NEW_AFFECT_MALL",					CInstanceBase::NEW_AFFECT_MALL);

  005c1	68 fe 01 00 00	 push	 510			; 000001feH
  005c6	68 00 00 00 00	 push	 OFFSET ??_C@_0BA@DBLFIOAN@NEW_AFFECT_MALL@
  005cb	57		 push	 edi
  005cc	ff d6		 call	 esi

; 1470 : 	PyModule_AddIntConstant(poModule, "NEW_AFFECT_NO_DEATH_PENALTY",		CInstanceBase::NEW_AFFECT_NO_DEATH_PENALTY);

  005ce	68 ff 01 00 00	 push	 511			; 000001ffH
  005d3	68 00 00 00 00	 push	 OFFSET ??_C@_0BM@NOKMEHMP@NEW_AFFECT_NO_DEATH_PENALTY@
  005d8	57		 push	 edi
  005d9	ff d6		 call	 esi

; 1471 : 	PyModule_AddIntConstant(poModule, "NEW_AFFECT_SKILL_BOOK_BONUS",		CInstanceBase::NEW_AFFECT_SKILL_BOOK_BONUS);

  005db	68 00 02 00 00	 push	 512			; 00000200H
  005e0	68 00 00 00 00	 push	 OFFSET ??_C@_0BM@ELPJNNPH@NEW_AFFECT_SKILL_BOOK_BONUS@
  005e5	57		 push	 edi
  005e6	ff d6		 call	 esi
  005e8	83 c4 48	 add	 esp, 72			; 00000048H

; 1472 : 	PyModule_AddIntConstant(poModule, "NEW_AFFECT_SKILL_BOOK_NO_DELAY",		CInstanceBase::NEW_AFFECT_SKILL_BOOK_NO_DELAY);

  005eb	68 01 02 00 00	 push	 513			; 00000201H
  005f0	68 00 00 00 00	 push	 OFFSET ??_C@_0BP@ILCIKFOJ@NEW_AFFECT_SKILL_BOOK_NO_DELAY@
  005f5	57		 push	 edi
  005f6	ff d6		 call	 esi

; 1473 : 	PyModule_AddIntConstant(poModule, "NEW_AFFECT_EXP_BONUS",				CInstanceBase::NEW_AFFECT_EXP_BONUS);

  005f8	68 f4 01 00 00	 push	 500			; 000001f4H
  005fd	68 00 00 00 00	 push	 OFFSET ??_C@_0BF@IGFBIBCE@NEW_AFFECT_EXP_BONUS@
  00602	57		 push	 edi
  00603	ff d6		 call	 esi

; 1474 : 	PyModule_AddIntConstant(poModule, "NEW_AFFECT_EXP_BONUS_EURO_FREE",		CInstanceBase::NEW_AFFECT_EXP_BONUS_EURO_FREE);

  00605	68 04 02 00 00	 push	 516			; 00000204H
  0060a	68 00 00 00 00	 push	 OFFSET ??_C@_0BP@PLLCKPKL@NEW_AFFECT_EXP_BONUS_EURO_FREE@
  0060f	57		 push	 edi
  00610	ff d6		 call	 esi

; 1475 : 	PyModule_AddIntConstant(poModule, "NEW_AFFECT_EXP_BONUS_EURO_FREE_UNDER_15",CInstanceBase::NEW_AFFECT_EXP_BONUS_EURO_FREE_UNDER_15);

  00612	68 05 02 00 00	 push	 517			; 00000205H
  00617	68 00 00 00 00	 push	 OFFSET ??_C@_0CI@CIBKFDJK@NEW_AFFECT_EXP_BONUS_EURO_FREE_@
  0061c	57		 push	 edi
  0061d	ff d6		 call	 esi

; 1476 : 
; 1477 : 	PyModule_AddIntConstant(poModule, "NEW_AFFECT_ITEM_BONUS",				CInstanceBase::NEW_AFFECT_ITEM_BONUS);

  0061f	68 f5 01 00 00	 push	 501			; 000001f5H
  00624	68 00 00 00 00	 push	 OFFSET ??_C@_0BG@GBJOJDKK@NEW_AFFECT_ITEM_BONUS@
  00629	57		 push	 edi
  0062a	ff d6		 call	 esi

; 1478 : 	PyModule_AddIntConstant(poModule, "NEW_AFFECT_SAFEBOX",					CInstanceBase::NEW_AFFECT_SAFEBOX);

  0062c	68 f6 01 00 00	 push	 502			; 000001f6H
  00631	68 00 00 00 00	 push	 OFFSET ??_C@_0BD@OLNAIOLN@NEW_AFFECT_SAFEBOX@
  00636	57		 push	 edi
  00637	ff d6		 call	 esi
  00639	83 c4 48	 add	 esp, 72			; 00000048H

; 1479 : 	PyModule_AddIntConstant(poModule, "NEW_AFFECT_AUTOLOOT",				CInstanceBase::NEW_AFFECT_AUTOLOOT);

  0063c	68 f7 01 00 00	 push	 503			; 000001f7H
  00641	68 00 00 00 00	 push	 OFFSET ??_C@_0BE@OGKIHHNM@NEW_AFFECT_AUTOLOOT@
  00646	57		 push	 edi
  00647	ff d6		 call	 esi

; 1480 : 	PyModule_AddIntConstant(poModule, "NEW_AFFECT_FISH_MIND",				CInstanceBase::NEW_AFFECT_FISH_MIND);

  00649	68 f8 01 00 00	 push	 504			; 000001f8H
  0064e	68 00 00 00 00	 push	 OFFSET ??_C@_0BF@LHIEHLCN@NEW_AFFECT_FISH_MIND@
  00653	57		 push	 edi
  00654	ff d6		 call	 esi

; 1481 : 	PyModule_AddIntConstant(poModule, "NEW_AFFECT_MARRIAGE_FAST",			CInstanceBase::NEW_AFFECT_MARRIAGE_FAST);

  00656	68 f9 01 00 00	 push	 505			; 000001f9H
  0065b	68 00 00 00 00	 push	 OFFSET ??_C@_0BJ@DEPPJPLB@NEW_AFFECT_MARRIAGE_FAST@
  00660	57		 push	 edi
  00661	ff d6		 call	 esi

; 1482 : 	PyModule_AddIntConstant(poModule, "NEW_AFFECT_GOLD_BONUS",				CInstanceBase::NEW_AFFECT_GOLD_BONUS);

  00663	68 fa 01 00 00	 push	 506			; 000001faH
  00668	68 00 00 00 00	 push	 OFFSET ??_C@_0BG@FPEKGPMD@NEW_AFFECT_GOLD_BONUS@
  0066d	57		 push	 edi
  0066e	ff d6		 call	 esi

; 1483 : 	PyModule_AddIntConstant(poModule, "NEW_AFFECT_AUTO_HP_RECOVERY",		CInstanceBase::NEW_AFFECT_AUTO_HP_RECOVERY);

  00670	68 16 02 00 00	 push	 534			; 00000216H
  00675	68 00 00 00 00	 push	 OFFSET ??_C@_0BM@DLPBDIOI@NEW_AFFECT_AUTO_HP_RECOVERY@
  0067a	57		 push	 edi
  0067b	ff d6		 call	 esi

; 1484 : 	PyModule_AddIntConstant(poModule, "NEW_AFFECT_AUTO_SP_RECOVERY",		CInstanceBase::NEW_AFFECT_AUTO_SP_RECOVERY);

  0067d	68 17 02 00 00	 push	 535			; 00000217H
  00682	68 00 00 00 00	 push	 OFFSET ??_C@_0BM@EGHLHBBK@NEW_AFFECT_AUTO_SP_RECOVERY@
  00687	57		 push	 edi
  00688	ff d6		 call	 esi
  0068a	83 c4 48	 add	 esp, 72			; 00000048H

; 1485 : 
; 1486 : 	PyModule_AddIntConstant(poModule, "NEW_AFFECT_DRAGON_SOUL_QUALIFIED",		CInstanceBase::NEW_AFFECT_DRAGON_SOUL_QUALIFIED);

  0068d	68 1c 02 00 00	 push	 540			; 0000021cH
  00692	68 00 00 00 00	 push	 OFFSET ??_C@_0CB@MMNLNBEI@NEW_AFFECT_DRAGON_SOUL_QUALIFIE@
  00697	57		 push	 edi
  00698	ff d6		 call	 esi

; 1487 : 
; 1488 : 	PyModule_AddIntConstant(poModule, "NEW_AFFECT_DRAGON_SOUL_DECK1",		CInstanceBase::NEW_AFFECT_DRAGON_SOUL_DECK1);

  0069a	68 1d 02 00 00	 push	 541			; 0000021dH
  0069f	68 00 00 00 00	 push	 OFFSET ??_C@_0BN@DIIGGCFL@NEW_AFFECT_DRAGON_SOUL_DECK1@
  006a4	57		 push	 edi
  006a5	ff d6		 call	 esi

; 1489 : 	PyModule_AddIntConstant(poModule, "NEW_AFFECT_DRAGON_SOUL_DECK2",		CInstanceBase::NEW_AFFECT_DRAGON_SOUL_DECK2);

  006a7	68 1e 02 00 00	 push	 542			; 0000021eH
  006ac	68 00 00 00 00	 push	 OFFSET ??_C@_0BN@BDKLDBJI@NEW_AFFECT_DRAGON_SOUL_DECK2@
  006b1	57		 push	 edi
  006b2	ff d6		 call	 esi
  006b4	83 c4 24	 add	 esp, 36			; 00000024H
  006b7	5f		 pop	 edi
  006b8	5e		 pop	 esi

; 1490 : 
; 1491 : }

  006b9	c3		 ret	 0
?initchr@@YAXXZ ENDP					; initchr
_TEXT	ENDS
; Function compile flags: /Ogtp
; File C:\Program Files (x86)\Microsoft Visual Studio\2019\Community\VC\Tools\MSVC\14.28.29333\include\exception
;	COMDAT ?_Throw_bad_array_new_length@std@@YAXXZ
_TEXT	SEGMENT
$T1 = -12						; size = 12
?_Throw_bad_array_new_length@std@@YAXXZ PROC		; std::_Throw_bad_array_new_length, COMDAT

; 320  : [[noreturn]] inline void _Throw_bad_array_new_length() {

  00000	55		 push	 ebp
  00001	8b ec		 mov	 ebp, esp
  00003	83 ec 0c	 sub	 esp, 12			; 0000000cH

; 321  :     _THROW(bad_array_new_length{});

  00006	8d 4d f4	 lea	 ecx, DWORD PTR $T1[ebp]
  00009	e8 00 00 00 00	 call	 ??0bad_array_new_length@std@@QAE@XZ ; std::bad_array_new_length::bad_array_new_length
  0000e	68 00 00 00 00	 push	 OFFSET __TI3?AVbad_array_new_length@std@@
  00013	8d 45 f4	 lea	 eax, DWORD PTR $T1[ebp]
  00016	50		 push	 eax
  00017	e8 00 00 00 00	 call	 __CxxThrowException@8
$LN3@Throw_bad_:
  0001c	cc		 int	 3
?_Throw_bad_array_new_length@std@@YAXXZ ENDP		; std::_Throw_bad_array_new_length
_TEXT	ENDS
; Function compile flags: /Ogtp
; File C:\Program Files (x86)\Microsoft Visual Studio\2019\Community\VC\Tools\MSVC\14.28.29333\include\vcruntime_exception.h
;	COMDAT ??_Gbad_array_new_length@std@@UAEPAXI@Z
_TEXT	SEGMENT
___flags$ = 8						; size = 4
??_Gbad_array_new_length@std@@UAEPAXI@Z PROC		; std::bad_array_new_length::`scalar deleting destructor', COMDAT
; _this$ = ecx
  00000	55		 push	 ebp
  00001	8b ec		 mov	 ebp, esp

; 89   :     {

  00003	56		 push	 esi
  00004	8b f1		 mov	 esi, ecx

; 90   :         __std_exception_destroy(&_Data);

  00006	8d 46 04	 lea	 eax, DWORD PTR [esi+4]
  00009	c7 06 00 00 00
	00		 mov	 DWORD PTR [esi], OFFSET ??_7exception@std@@6B@
  0000f	50		 push	 eax
  00010	e8 00 00 00 00	 call	 ___std_exception_destroy
  00015	83 c4 04	 add	 esp, 4
  00018	f6 45 08 01	 test	 BYTE PTR ___flags$[ebp], 1
  0001c	74 0b		 je	 SHORT $LN12@scalar
  0001e	6a 0c		 push	 12			; 0000000cH
  00020	56		 push	 esi
  00021	e8 00 00 00 00	 call	 ??3@YAXPAXI@Z		; operator delete
  00026	83 c4 08	 add	 esp, 8
$LN12@scalar:
  00029	8b c6		 mov	 eax, esi
  0002b	5e		 pop	 esi
  0002c	5d		 pop	 ebp
  0002d	c2 04 00	 ret	 4
??_Gbad_array_new_length@std@@UAEPAXI@Z ENDP		; std::bad_array_new_length::`scalar deleting destructor'
_TEXT	ENDS
; Function compile flags: /Ogtp
; File C:\Program Files (x86)\Microsoft Visual Studio\2019\Community\VC\Tools\MSVC\14.28.29333\include\vcruntime_exception.h
;	COMDAT ??0bad_array_new_length@std@@QAE@ABV01@@Z
_TEXT	SEGMENT
___that$ = 8						; size = 4
??0bad_array_new_length@std@@QAE@ABV01@@Z PROC		; std::bad_array_new_length::bad_array_new_length, COMDAT
; _this$ = ecx
  00000	55		 push	 ebp
  00001	8b ec		 mov	 ebp, esp

; 72   :     {

  00003	56		 push	 esi
  00004	8b f1		 mov	 esi, ecx
  00006	0f 57 c0	 xorps	 xmm0, xmm0

; 71   :         : _Data()

  00009	8d 46 04	 lea	 eax, DWORD PTR [esi+4]

; 73   :         __std_exception_copy(&_Other._Data, &_Data);

  0000c	50		 push	 eax
  0000d	c7 06 00 00 00
	00		 mov	 DWORD PTR [esi], OFFSET ??_7exception@std@@6B@
  00013	66 0f d6 00	 movq	 QWORD PTR [eax], xmm0
  00017	8b 45 08	 mov	 eax, DWORD PTR ___that$[ebp]
  0001a	83 c0 04	 add	 eax, 4
  0001d	50		 push	 eax
  0001e	e8 00 00 00 00	 call	 ___std_exception_copy
  00023	83 c4 08	 add	 esp, 8
  00026	c7 06 00 00 00
	00		 mov	 DWORD PTR [esi], OFFSET ??_7bad_array_new_length@std@@6B@
  0002c	8b c6		 mov	 eax, esi
  0002e	5e		 pop	 esi
  0002f	5d		 pop	 ebp
  00030	c2 04 00	 ret	 4
??0bad_array_new_length@std@@QAE@ABV01@@Z ENDP		; std::bad_array_new_length::bad_array_new_length
_TEXT	ENDS
; Function compile flags: /Ogtp
; File C:\Program Files (x86)\Microsoft Visual Studio\2019\Community\VC\Tools\MSVC\14.28.29333\include\vcruntime_exception.h
;	COMDAT ??1bad_array_new_length@std@@UAE@XZ
_TEXT	SEGMENT
??1bad_array_new_length@std@@UAE@XZ PROC		; std::bad_array_new_length::~bad_array_new_length, COMDAT
; _this$ = ecx

; 90   :         __std_exception_destroy(&_Data);

  00000	8d 41 04	 lea	 eax, DWORD PTR [ecx+4]
  00003	c7 01 00 00 00
	00		 mov	 DWORD PTR [ecx], OFFSET ??_7exception@std@@6B@
  00009	50		 push	 eax
  0000a	e8 00 00 00 00	 call	 ___std_exception_destroy
  0000f	59		 pop	 ecx
  00010	c3		 ret	 0
??1bad_array_new_length@std@@UAE@XZ ENDP		; std::bad_array_new_length::~bad_array_new_length
_TEXT	ENDS
; Function compile flags: /Ogtp
; File C:\Program Files (x86)\Microsoft Visual Studio\2019\Community\VC\Tools\MSVC\14.28.29333\include\vcruntime_exception.h
;	COMDAT ??0bad_array_new_length@std@@QAE@XZ
_TEXT	SEGMENT
??0bad_array_new_length@std@@QAE@XZ PROC		; std::bad_array_new_length::bad_array_new_length, COMDAT
; _this$ = ecx

; 141  :     {

  00000	0f 57 c0	 xorps	 xmm0, xmm0

; 142  :     }

  00003	8b c1		 mov	 eax, ecx

; 65   :         : _Data()

  00005	66 0f d6 41 04	 movq	 QWORD PTR [ecx+4], xmm0

; 66   :     {
; 67   :         _Data._What = _Message;

  0000a	c7 41 04 00 00
	00 00		 mov	 DWORD PTR [ecx+4], OFFSET ??_C@_0BF@KINCDENJ@bad?5array?5new?5length@

; 141  :     {

  00011	c7 01 00 00 00
	00		 mov	 DWORD PTR [ecx], OFFSET ??_7bad_array_new_length@std@@6B@

; 142  :     }

  00017	c3		 ret	 0
??0bad_array_new_length@std@@QAE@XZ ENDP		; std::bad_array_new_length::bad_array_new_length
_TEXT	ENDS
; Function compile flags: /Ogtp
; File C:\Program Files (x86)\Microsoft Visual Studio\2019\Community\VC\Tools\MSVC\14.28.29333\include\vcruntime_exception.h
;	COMDAT ??_Gbad_alloc@std@@UAEPAXI@Z
_TEXT	SEGMENT
___flags$ = 8						; size = 4
??_Gbad_alloc@std@@UAEPAXI@Z PROC			; std::bad_alloc::`scalar deleting destructor', COMDAT
; _this$ = ecx
  00000	55		 push	 ebp
  00001	8b ec		 mov	 ebp, esp

; 89   :     {

  00003	56		 push	 esi
  00004	8b f1		 mov	 esi, ecx

; 90   :         __std_exception_destroy(&_Data);

  00006	8d 46 04	 lea	 eax, DWORD PTR [esi+4]
  00009	c7 06 00 00 00
	00		 mov	 DWORD PTR [esi], OFFSET ??_7exception@std@@6B@
  0000f	50		 push	 eax
  00010	e8 00 00 00 00	 call	 ___std_exception_destroy
  00015	83 c4 04	 add	 esp, 4
  00018	f6 45 08 01	 test	 BYTE PTR ___flags$[ebp], 1
  0001c	74 0b		 je	 SHORT $LN9@scalar
  0001e	6a 0c		 push	 12			; 0000000cH
  00020	56		 push	 esi
  00021	e8 00 00 00 00	 call	 ??3@YAXPAXI@Z		; operator delete
  00026	83 c4 08	 add	 esp, 8
$LN9@scalar:
  00029	8b c6		 mov	 eax, esi
  0002b	5e		 pop	 esi
  0002c	5d		 pop	 ebp
  0002d	c2 04 00	 ret	 4
??_Gbad_alloc@std@@UAEPAXI@Z ENDP			; std::bad_alloc::`scalar deleting destructor'
_TEXT	ENDS
; Function compile flags: /Ogtp
; File C:\Program Files (x86)\Microsoft Visual Studio\2019\Community\VC\Tools\MSVC\14.28.29333\include\vcruntime_exception.h
;	COMDAT ??0bad_alloc@std@@QAE@ABV01@@Z
_TEXT	SEGMENT
___that$ = 8						; size = 4
??0bad_alloc@std@@QAE@ABV01@@Z PROC			; std::bad_alloc::bad_alloc, COMDAT
; _this$ = ecx
  00000	55		 push	 ebp
  00001	8b ec		 mov	 ebp, esp

; 72   :     {

  00003	56		 push	 esi
  00004	8b f1		 mov	 esi, ecx
  00006	0f 57 c0	 xorps	 xmm0, xmm0

; 71   :         : _Data()

  00009	8d 46 04	 lea	 eax, DWORD PTR [esi+4]

; 73   :         __std_exception_copy(&_Other._Data, &_Data);

  0000c	50		 push	 eax
  0000d	c7 06 00 00 00
	00		 mov	 DWORD PTR [esi], OFFSET ??_7exception@std@@6B@
  00013	66 0f d6 00	 movq	 QWORD PTR [eax], xmm0
  00017	8b 45 08	 mov	 eax, DWORD PTR ___that$[ebp]
  0001a	83 c0 04	 add	 eax, 4
  0001d	50		 push	 eax
  0001e	e8 00 00 00 00	 call	 ___std_exception_copy
  00023	83 c4 08	 add	 esp, 8
  00026	c7 06 00 00 00
	00		 mov	 DWORD PTR [esi], OFFSET ??_7bad_alloc@std@@6B@
  0002c	8b c6		 mov	 eax, esi
  0002e	5e		 pop	 esi
  0002f	5d		 pop	 ebp
  00030	c2 04 00	 ret	 4
??0bad_alloc@std@@QAE@ABV01@@Z ENDP			; std::bad_alloc::bad_alloc
_TEXT	ENDS
; Function compile flags: /Ogtp
; File C:\Program Files (x86)\Microsoft Visual Studio\2019\Community\VC\Tools\MSVC\14.28.29333\include\vcruntime_exception.h
;	COMDAT ??_Gexception@std@@UAEPAXI@Z
_TEXT	SEGMENT
___flags$ = 8						; size = 4
??_Gexception@std@@UAEPAXI@Z PROC			; std::exception::`scalar deleting destructor', COMDAT
; _this$ = ecx
  00000	55		 push	 ebp
  00001	8b ec		 mov	 ebp, esp

; 89   :     {

  00003	56		 push	 esi
  00004	8b f1		 mov	 esi, ecx

; 90   :         __std_exception_destroy(&_Data);

  00006	8d 46 04	 lea	 eax, DWORD PTR [esi+4]
  00009	c7 06 00 00 00
	00		 mov	 DWORD PTR [esi], OFFSET ??_7exception@std@@6B@
  0000f	50		 push	 eax
  00010	e8 00 00 00 00	 call	 ___std_exception_destroy
  00015	83 c4 04	 add	 esp, 4
  00018	f6 45 08 01	 test	 BYTE PTR ___flags$[ebp], 1
  0001c	74 0b		 je	 SHORT $LN6@scalar
  0001e	6a 0c		 push	 12			; 0000000cH
  00020	56		 push	 esi
  00021	e8 00 00 00 00	 call	 ??3@YAXPAXI@Z		; operator delete
  00026	83 c4 08	 add	 esp, 8
$LN6@scalar:
  00029	8b c6		 mov	 eax, esi
  0002b	5e		 pop	 esi
  0002c	5d		 pop	 ebp
  0002d	c2 04 00	 ret	 4
??_Gexception@std@@UAEPAXI@Z ENDP			; std::exception::`scalar deleting destructor'
_TEXT	ENDS
; Function compile flags: /Ogtp
; File C:\Program Files (x86)\Microsoft Visual Studio\2019\Community\VC\Tools\MSVC\14.28.29333\include\vcruntime_exception.h
;	COMDAT ?what@exception@std@@UBEPBDXZ
_TEXT	SEGMENT
?what@exception@std@@UBEPBDXZ PROC			; std::exception::what, COMDAT
; _this$ = ecx

; 95   :         return _Data._What ? _Data._What : "Unknown exception";

  00000	8b 49 04	 mov	 ecx, DWORD PTR [ecx+4]
  00003	b8 00 00 00 00	 mov	 eax, OFFSET ??_C@_0BC@EOODALEL@Unknown?5exception@
  00008	85 c9		 test	 ecx, ecx
  0000a	0f 45 c1	 cmovne	 eax, ecx

; 96   :     }

  0000d	c3		 ret	 0
?what@exception@std@@UBEPBDXZ ENDP			; std::exception::what
_TEXT	ENDS
; Function compile flags: /Ogtp
; File C:\Program Files (x86)\Microsoft Visual Studio\2019\Community\VC\Tools\MSVC\14.28.29333\include\vcruntime_exception.h
;	COMDAT ??1exception@std@@UAE@XZ
_TEXT	SEGMENT
??1exception@std@@UAE@XZ PROC				; std::exception::~exception, COMDAT
; _this$ = ecx

; 90   :         __std_exception_destroy(&_Data);

  00000	8d 41 04	 lea	 eax, DWORD PTR [ecx+4]
  00003	c7 01 00 00 00
	00		 mov	 DWORD PTR [ecx], OFFSET ??_7exception@std@@6B@
  00009	50		 push	 eax
  0000a	e8 00 00 00 00	 call	 ___std_exception_destroy
  0000f	59		 pop	 ecx

; 91   :     }

  00010	c3		 ret	 0
??1exception@std@@UAE@XZ ENDP				; std::exception::~exception
_TEXT	ENDS
; Function compile flags: /Ogtp
; File C:\Program Files (x86)\Microsoft Visual Studio\2019\Community\VC\Tools\MSVC\14.28.29333\include\vcruntime_exception.h
;	COMDAT ??0exception@std@@QAE@ABV01@@Z
_TEXT	SEGMENT
__Other$ = 8						; size = 4
??0exception@std@@QAE@ABV01@@Z PROC			; std::exception::exception, COMDAT
; _this$ = ecx

; 72   :     {

  00000	55		 push	 ebp
  00001	8b ec		 mov	 ebp, esp
  00003	56		 push	 esi
  00004	8b f1		 mov	 esi, ecx
  00006	0f 57 c0	 xorps	 xmm0, xmm0
  00009	8d 46 04	 lea	 eax, DWORD PTR [esi+4]

; 73   :         __std_exception_copy(&_Other._Data, &_Data);

  0000c	50		 push	 eax
  0000d	c7 06 00 00 00
	00		 mov	 DWORD PTR [esi], OFFSET ??_7exception@std@@6B@
  00013	66 0f d6 00	 movq	 QWORD PTR [eax], xmm0
  00017	8b 45 08	 mov	 eax, DWORD PTR __Other$[ebp]
  0001a	83 c0 04	 add	 eax, 4
  0001d	50		 push	 eax
  0001e	e8 00 00 00 00	 call	 ___std_exception_copy
  00023	83 c4 08	 add	 esp, 8

; 74   :     }

  00026	8b c6		 mov	 eax, esi
  00028	5e		 pop	 esi
  00029	5d		 pop	 ebp
  0002a	c2 04 00	 ret	 4
??0exception@std@@QAE@ABV01@@Z ENDP			; std::exception::exception
_TEXT	ENDS
; Function compile flags: /Ogtp
; File D:\Metin2 Server Files\mainline\SRC_2014\Metin2Client\UserInterface\PythonCharacterModule.cpp
;	COMDAT ?__empty_global_delete@@YAXPAXI@Z
_TEXT	SEGMENT
___formal$ = 8						; size = 4
___formal$ = 12						; size = 4
?__empty_global_delete@@YAXPAXI@Z PROC			; __empty_global_delete, COMDAT

  00000	c2 00 00	 ret	 0
?__empty_global_delete@@YAXPAXI@Z ENDP			; __empty_global_delete
_TEXT	ENDS
; Function compile flags: /Ogtp
; File D:\Metin2 Server Files\mainline\SRC_2014\Metin2Client\UserInterface\PythonCharacterModule.cpp
;	COMDAT ?__empty_global_delete@@YAXPAX@Z
_TEXT	SEGMENT
___formal$ = 8						; size = 4
?__empty_global_delete@@YAXPAX@Z PROC			; __empty_global_delete, COMDAT

  00000	c2 00 00	 ret	 0
?__empty_global_delete@@YAXPAX@Z ENDP			; __empty_global_delete
_TEXT	ENDS
; Function compile flags: /Ogtp
;	COMDAT ??_H@YGXPAXIIP6EPAX0@Z@Z
_TEXT	SEGMENT
___t$ = 8						; size = 4
___s$ = 12						; size = 4
___n$ = 16						; size = 4
___f$ = 20						; size = 4
??_H@YGXPAXIIP6EPAX0@Z@Z PROC				; `vector constructor iterator', COMDAT
  00000	55		 push	 ebp
  00001	8b ec		 mov	 ebp, esp
  00003	56		 push	 esi
  00004	8b 75 10	 mov	 esi, DWORD PTR ___n$[ebp]
  00007	85 f6		 test	 esi, esi
  00009	74 16		 je	 SHORT $LN6@vector
  0000b	53		 push	 ebx
  0000c	8b 5d 14	 mov	 ebx, DWORD PTR ___f$[ebp]
  0000f	57		 push	 edi
  00010	8b 7d 08	 mov	 edi, DWORD PTR ___t$[ebp]
$LL2@vector:
  00013	8b cf		 mov	 ecx, edi
  00015	ff d3		 call	 ebx
  00017	03 7d 0c	 add	 edi, DWORD PTR ___s$[ebp]
  0001a	83 ee 01	 sub	 esi, 1
  0001d	75 f4		 jne	 SHORT $LL2@vector
  0001f	5f		 pop	 edi
  00020	5b		 pop	 ebx
$LN6@vector:
  00021	5e		 pop	 esi
  00022	5d		 pop	 ebp
  00023	c2 10 00	 ret	 16			; 00000010H
??_H@YGXPAXIIP6EPAX0@Z@Z ENDP				; `vector constructor iterator'
_TEXT	ENDS
END
