; Listing generated by Microsoft (R) Optimizing Compiler Version 19.28.29335.0 

	TITLE	D:\Metin2 Server Files\mainline\SRC_2014\Metin2Client\UserInterface\PythonNetworkStream.cpp
	.686P
	.XMM
	include listing.inc
	.model	flat

INCLUDELIB LIBCMT
INCLUDELIB OLDNAMES

PUBLIC	??_7?$CDynamicPoolEx@VCTextureAnimationCWDecorator@NEffectUpdateDecorator@@@@6B@ ; CDynamicPoolEx<NEffectUpdateDecorator::CTextureAnimationCWDecorator>::`vftable'
PUBLIC	??_G?$CDynamicPoolEx@VCTextureAnimationCWDecorator@NEffectUpdateDecorator@@@@UAEPAXI@Z ; CDynamicPoolEx<NEffectUpdateDecorator::CTextureAnimationCWDecorator>::`scalar deleting destructor'
PUBLIC	??_7?$CDynamicPoolEx@VCNullDecorator@NEffectUpdateDecorator@@@@6B@ ; CDynamicPoolEx<NEffectUpdateDecorator::CNullDecorator>::`vftable'
PUBLIC	??_G?$CDynamicPoolEx@VCNullDecorator@NEffectUpdateDecorator@@@@UAEPAXI@Z ; CDynamicPoolEx<NEffectUpdateDecorator::CNullDecorator>::`scalar deleting destructor'
PUBLIC	??_7?$CDynamicPoolEx@VCHeaderDecorator@NEffectUpdateDecorator@@@@6B@ ; CDynamicPoolEx<NEffectUpdateDecorator::CHeaderDecorator>::`vftable'
PUBLIC	??_G?$CDynamicPoolEx@VCHeaderDecorator@NEffectUpdateDecorator@@@@UAEPAXI@Z ; CDynamicPoolEx<NEffectUpdateDecorator::CHeaderDecorator>::`scalar deleting destructor'
PUBLIC	??_R4?$CDynamicPoolEx@VCHeaderDecorator@NEffectUpdateDecorator@@@@6B@ ; CDynamicPoolEx<NEffectUpdateDecorator::CHeaderDecorator>::`RTTI Complete Object Locator'
PUBLIC	??_R0?AV?$CDynamicPoolEx@VCHeaderDecorator@NEffectUpdateDecorator@@@@@8 ; CDynamicPoolEx<NEffectUpdateDecorator::CHeaderDecorator> `RTTI Type Descriptor'
PUBLIC	??_R3?$CDynamicPoolEx@VCHeaderDecorator@NEffectUpdateDecorator@@@@8 ; CDynamicPoolEx<NEffectUpdateDecorator::CHeaderDecorator>::`RTTI Class Hierarchy Descriptor'
PUBLIC	??_R2?$CDynamicPoolEx@VCHeaderDecorator@NEffectUpdateDecorator@@@@8 ; CDynamicPoolEx<NEffectUpdateDecorator::CHeaderDecorator>::`RTTI Base Class Array'
PUBLIC	??_R1A@?0A@EA@?$CDynamicPoolEx@VCHeaderDecorator@NEffectUpdateDecorator@@@@8 ; CDynamicPoolEx<NEffectUpdateDecorator::CHeaderDecorator>::`RTTI Base Class Descriptor at (0,-1,0,64)'
PUBLIC	??_R4?$CDynamicPoolEx@VCNullDecorator@NEffectUpdateDecorator@@@@6B@ ; CDynamicPoolEx<NEffectUpdateDecorator::CNullDecorator>::`RTTI Complete Object Locator'
PUBLIC	??_R0?AV?$CDynamicPoolEx@VCNullDecorator@NEffectUpdateDecorator@@@@@8 ; CDynamicPoolEx<NEffectUpdateDecorator::CNullDecorator> `RTTI Type Descriptor'
PUBLIC	??_R3?$CDynamicPoolEx@VCNullDecorator@NEffectUpdateDecorator@@@@8 ; CDynamicPoolEx<NEffectUpdateDecorator::CNullDecorator>::`RTTI Class Hierarchy Descriptor'
PUBLIC	??_R2?$CDynamicPoolEx@VCNullDecorator@NEffectUpdateDecorator@@@@8 ; CDynamicPoolEx<NEffectUpdateDecorator::CNullDecorator>::`RTTI Base Class Array'
PUBLIC	??_R1A@?0A@EA@?$CDynamicPoolEx@VCNullDecorator@NEffectUpdateDecorator@@@@8 ; CDynamicPoolEx<NEffectUpdateDecorator::CNullDecorator>::`RTTI Base Class Descriptor at (0,-1,0,64)'
PUBLIC	??_R4?$CDynamicPoolEx@VCTextureAnimationCWDecorator@NEffectUpdateDecorator@@@@6B@ ; CDynamicPoolEx<NEffectUpdateDecorator::CTextureAnimationCWDecorator>::`RTTI Complete Object Locator'
PUBLIC	??_R0?AV?$CDynamicPoolEx@VCTextureAnimationCWDecorator@NEffectUpdateDecorator@@@@@8 ; CDynamicPoolEx<NEffectUpdateDecorator::CTextureAnimationCWDecorator> `RTTI Type Descriptor'
PUBLIC	??_R3?$CDynamicPoolEx@VCTextureAnimationCWDecorator@NEffectUpdateDecorator@@@@8 ; CDynamicPoolEx<NEffectUpdateDecorator::CTextureAnimationCWDecorator>::`RTTI Class Hierarchy Descriptor'
PUBLIC	??_R2?$CDynamicPoolEx@VCTextureAnimationCWDecorator@NEffectUpdateDecorator@@@@8 ; CDynamicPoolEx<NEffectUpdateDecorator::CTextureAnimationCWDecorator>::`RTTI Base Class Array'
PUBLIC	??_R1A@?0A@EA@?$CDynamicPoolEx@VCTextureAnimationCWDecorator@NEffectUpdateDecorator@@@@8 ; CDynamicPoolEx<NEffectUpdateDecorator::CTextureAnimationCWDecorator>::`RTTI Base Class Descriptor at (0,-1,0,64)'
PUBLIC	??_R4?$CDynamicPoolEx@VCTextureAnimationCCWDecorator@NEffectUpdateDecorator@@@@6B@ ; CDynamicPoolEx<NEffectUpdateDecorator::CTextureAnimationCCWDecorator>::`RTTI Complete Object Locator'
PUBLIC	??_R0?AV?$CDynamicPoolEx@VCTextureAnimationCCWDecorator@NEffectUpdateDecorator@@@@@8 ; CDynamicPoolEx<NEffectUpdateDecorator::CTextureAnimationCCWDecorator> `RTTI Type Descriptor'
PUBLIC	??_R3?$CDynamicPoolEx@VCTextureAnimationCCWDecorator@NEffectUpdateDecorator@@@@8 ; CDynamicPoolEx<NEffectUpdateDecorator::CTextureAnimationCCWDecorator>::`RTTI Class Hierarchy Descriptor'
PUBLIC	??_R2?$CDynamicPoolEx@VCTextureAnimationCCWDecorator@NEffectUpdateDecorator@@@@8 ; CDynamicPoolEx<NEffectUpdateDecorator::CTextureAnimationCCWDecorator>::`RTTI Base Class Array'
PUBLIC	??_R1A@?0A@EA@?$CDynamicPoolEx@VCTextureAnimationCCWDecorator@NEffectUpdateDecorator@@@@8 ; CDynamicPoolEx<NEffectUpdateDecorator::CTextureAnimationCCWDecorator>::`RTTI Base Class Descriptor at (0,-1,0,64)'
PUBLIC	??_R4?$CDynamicPoolEx@VCTextureAnimationRandomDecorator@NEffectUpdateDecorator@@@@6B@ ; CDynamicPoolEx<NEffectUpdateDecorator::CTextureAnimationRandomDecorator>::`RTTI Complete Object Locator'
PUBLIC	??_R0?AV?$CDynamicPoolEx@VCTextureAnimationRandomDecorator@NEffectUpdateDecorator@@@@@8 ; CDynamicPoolEx<NEffectUpdateDecorator::CTextureAnimationRandomDecorator> `RTTI Type Descriptor'
PUBLIC	??_R3?$CDynamicPoolEx@VCTextureAnimationRandomDecorator@NEffectUpdateDecorator@@@@8 ; CDynamicPoolEx<NEffectUpdateDecorator::CTextureAnimationRandomDecorator>::`RTTI Class Hierarchy Descriptor'
PUBLIC	??_R2?$CDynamicPoolEx@VCTextureAnimationRandomDecorator@NEffectUpdateDecorator@@@@8 ; CDynamicPoolEx<NEffectUpdateDecorator::CTextureAnimationRandomDecorator>::`RTTI Base Class Array'
PUBLIC	??_R1A@?0A@EA@?$CDynamicPoolEx@VCTextureAnimationRandomDecorator@NEffectUpdateDecorator@@@@8 ; CDynamicPoolEx<NEffectUpdateDecorator::CTextureAnimationRandomDecorator>::`RTTI Base Class Descriptor at (0,-1,0,64)'
PUBLIC	??_R4?$CDynamicPoolEx@VCAirResistanceDecorator@NEffectUpdateDecorator@@@@6B@ ; CDynamicPoolEx<NEffectUpdateDecorator::CAirResistanceDecorator>::`RTTI Complete Object Locator'
PUBLIC	??_R0?AV?$CDynamicPoolEx@VCAirResistanceDecorator@NEffectUpdateDecorator@@@@@8 ; CDynamicPoolEx<NEffectUpdateDecorator::CAirResistanceDecorator> `RTTI Type Descriptor'
PUBLIC	??_R3?$CDynamicPoolEx@VCAirResistanceDecorator@NEffectUpdateDecorator@@@@8 ; CDynamicPoolEx<NEffectUpdateDecorator::CAirResistanceDecorator>::`RTTI Class Hierarchy Descriptor'
PUBLIC	??_R2?$CDynamicPoolEx@VCAirResistanceDecorator@NEffectUpdateDecorator@@@@8 ; CDynamicPoolEx<NEffectUpdateDecorator::CAirResistanceDecorator>::`RTTI Base Class Array'
PUBLIC	??_R1A@?0A@EA@?$CDynamicPoolEx@VCAirResistanceDecorator@NEffectUpdateDecorator@@@@8 ; CDynamicPoolEx<NEffectUpdateDecorator::CAirResistanceDecorator>::`RTTI Base Class Descriptor at (0,-1,0,64)'
PUBLIC	??_R4?$CDynamicPoolEx@VCGravityDecorator@NEffectUpdateDecorator@@@@6B@ ; CDynamicPoolEx<NEffectUpdateDecorator::CGravityDecorator>::`RTTI Complete Object Locator'
PUBLIC	??_R0?AV?$CDynamicPoolEx@VCGravityDecorator@NEffectUpdateDecorator@@@@@8 ; CDynamicPoolEx<NEffectUpdateDecorator::CGravityDecorator> `RTTI Type Descriptor'
PUBLIC	??_R3?$CDynamicPoolEx@VCGravityDecorator@NEffectUpdateDecorator@@@@8 ; CDynamicPoolEx<NEffectUpdateDecorator::CGravityDecorator>::`RTTI Class Hierarchy Descriptor'
PUBLIC	??_R2?$CDynamicPoolEx@VCGravityDecorator@NEffectUpdateDecorator@@@@8 ; CDynamicPoolEx<NEffectUpdateDecorator::CGravityDecorator>::`RTTI Base Class Array'
PUBLIC	??_R1A@?0A@EA@?$CDynamicPoolEx@VCGravityDecorator@NEffectUpdateDecorator@@@@8 ; CDynamicPoolEx<NEffectUpdateDecorator::CGravityDecorator>::`RTTI Base Class Descriptor at (0,-1,0,64)'
PUBLIC	??_R4?$CDynamicPoolEx@VCRotationDecorator@NEffectUpdateDecorator@@@@6B@ ; CDynamicPoolEx<NEffectUpdateDecorator::CRotationDecorator>::`RTTI Complete Object Locator'
PUBLIC	??_R0?AV?$CDynamicPoolEx@VCRotationDecorator@NEffectUpdateDecorator@@@@@8 ; CDynamicPoolEx<NEffectUpdateDecorator::CRotationDecorator> `RTTI Type Descriptor'
PUBLIC	??_R3?$CDynamicPoolEx@VCRotationDecorator@NEffectUpdateDecorator@@@@8 ; CDynamicPoolEx<NEffectUpdateDecorator::CRotationDecorator>::`RTTI Class Hierarchy Descriptor'
PUBLIC	??_R2?$CDynamicPoolEx@VCRotationDecorator@NEffectUpdateDecorator@@@@8 ; CDynamicPoolEx<NEffectUpdateDecorator::CRotationDecorator>::`RTTI Base Class Array'
PUBLIC	??_R1A@?0A@EA@?$CDynamicPoolEx@VCRotationDecorator@NEffectUpdateDecorator@@@@8 ; CDynamicPoolEx<NEffectUpdateDecorator::CRotationDecorator>::`RTTI Base Class Descriptor at (0,-1,0,64)'
PUBLIC	?g_iLastPacket@@3PAHA				; g_iLastPacket
PUBLIC	??_7?$CDynamicPoolEx@VCRotationDecorator@NEffectUpdateDecorator@@@@6B@ ; CDynamicPoolEx<NEffectUpdateDecorator::CRotationDecorator>::`vftable'
PUBLIC	??_G?$CDynamicPoolEx@VCRotationDecorator@NEffectUpdateDecorator@@@@UAEPAXI@Z ; CDynamicPoolEx<NEffectUpdateDecorator::CRotationDecorator>::`scalar deleting destructor'
PUBLIC	??_7?$CDynamicPoolEx@VCGravityDecorator@NEffectUpdateDecorator@@@@6B@ ; CDynamicPoolEx<NEffectUpdateDecorator::CGravityDecorator>::`vftable'
PUBLIC	??_G?$CDynamicPoolEx@VCGravityDecorator@NEffectUpdateDecorator@@@@UAEPAXI@Z ; CDynamicPoolEx<NEffectUpdateDecorator::CGravityDecorator>::`scalar deleting destructor'
PUBLIC	??_7?$CDynamicPoolEx@VCAirResistanceDecorator@NEffectUpdateDecorator@@@@6B@ ; CDynamicPoolEx<NEffectUpdateDecorator::CAirResistanceDecorator>::`vftable'
PUBLIC	??_G?$CDynamicPoolEx@VCAirResistanceDecorator@NEffectUpdateDecorator@@@@UAEPAXI@Z ; CDynamicPoolEx<NEffectUpdateDecorator::CAirResistanceDecorator>::`scalar deleting destructor'
PUBLIC	??_7?$CDynamicPoolEx@VCTextureAnimationRandomDecorator@NEffectUpdateDecorator@@@@6B@ ; CDynamicPoolEx<NEffectUpdateDecorator::CTextureAnimationRandomDecorator>::`vftable'
PUBLIC	??_G?$CDynamicPoolEx@VCTextureAnimationRandomDecorator@NEffectUpdateDecorator@@@@UAEPAXI@Z ; CDynamicPoolEx<NEffectUpdateDecorator::CTextureAnimationRandomDecorator>::`scalar deleting destructor'
PUBLIC	??_7?$CDynamicPoolEx@VCTextureAnimationCCWDecorator@NEffectUpdateDecorator@@@@6B@ ; CDynamicPoolEx<NEffectUpdateDecorator::CTextureAnimationCCWDecorator>::`vftable'
PUBLIC	??_G?$CDynamicPoolEx@VCTextureAnimationCCWDecorator@NEffectUpdateDecorator@@@@UAEPAXI@Z ; CDynamicPoolEx<NEffectUpdateDecorator::CTextureAnimationCCWDecorator>::`scalar deleting destructor'
EXTRN	??_E?$CDynamicPoolEx@VCTextureAnimationCWDecorator@NEffectUpdateDecorator@@@@UAEPAXI@Z:PROC ; CDynamicPoolEx<NEffectUpdateDecorator::CTextureAnimationCWDecorator>::`vector deleting destructor'
EXTRN	??_E?$CDynamicPoolEx@VCNullDecorator@NEffectUpdateDecorator@@@@UAEPAXI@Z:PROC ; CDynamicPoolEx<NEffectUpdateDecorator::CNullDecorator>::`vector deleting destructor'
EXTRN	??_E?$CDynamicPoolEx@VCHeaderDecorator@NEffectUpdateDecorator@@@@UAEPAXI@Z:PROC ; CDynamicPoolEx<NEffectUpdateDecorator::CHeaderDecorator>::`vector deleting destructor'
EXTRN	??_7type_info@@6B@:QWORD			; type_info::`vftable'
EXTRN	??_E?$CDynamicPoolEx@VCRotationDecorator@NEffectUpdateDecorator@@@@UAEPAXI@Z:PROC ; CDynamicPoolEx<NEffectUpdateDecorator::CRotationDecorator>::`vector deleting destructor'
EXTRN	??_E?$CDynamicPoolEx@VCGravityDecorator@NEffectUpdateDecorator@@@@UAEPAXI@Z:PROC ; CDynamicPoolEx<NEffectUpdateDecorator::CGravityDecorator>::`vector deleting destructor'
EXTRN	??_E?$CDynamicPoolEx@VCAirResistanceDecorator@NEffectUpdateDecorator@@@@UAEPAXI@Z:PROC ; CDynamicPoolEx<NEffectUpdateDecorator::CAirResistanceDecorator>::`vector deleting destructor'
EXTRN	??_E?$CDynamicPoolEx@VCTextureAnimationRandomDecorator@NEffectUpdateDecorator@@@@UAEPAXI@Z:PROC ; CDynamicPoolEx<NEffectUpdateDecorator::CTextureAnimationRandomDecorator>::`vector deleting destructor'
EXTRN	??_E?$CDynamicPoolEx@VCTextureAnimationCCWDecorator@NEffectUpdateDecorator@@@@UAEPAXI@Z:PROC ; CDynamicPoolEx<NEffectUpdateDecorator::CTextureAnimationCCWDecorator>::`vector deleting destructor'
_BSS	SEGMENT
?g_iLastPacket@@3PAHA DD 02H DUP (?)			; g_iLastPacket
_BSS	ENDS
;	COMDAT ??_7?$CDynamicPoolEx@VCTextureAnimationCCWDecorator@NEffectUpdateDecorator@@@@6B@
CONST	SEGMENT
??_7?$CDynamicPoolEx@VCTextureAnimationCCWDecorator@NEffectUpdateDecorator@@@@6B@ DD FLAT:??_R4?$CDynamicPoolEx@VCTextureAnimationCCWDecorator@NEffectUpdateDecorator@@@@6B@ ; CDynamicPoolEx<NEffectUpdateDecorator::CTextureAnimationCCWDecorator>::`vftable'
	DD	FLAT:??_E?$CDynamicPoolEx@VCTextureAnimationCCWDecorator@NEffectUpdateDecorator@@@@UAEPAXI@Z
CONST	ENDS
;	COMDAT ??_7?$CDynamicPoolEx@VCTextureAnimationRandomDecorator@NEffectUpdateDecorator@@@@6B@
CONST	SEGMENT
??_7?$CDynamicPoolEx@VCTextureAnimationRandomDecorator@NEffectUpdateDecorator@@@@6B@ DD FLAT:??_R4?$CDynamicPoolEx@VCTextureAnimationRandomDecorator@NEffectUpdateDecorator@@@@6B@ ; CDynamicPoolEx<NEffectUpdateDecorator::CTextureAnimationRandomDecorator>::`vftable'
	DD	FLAT:??_E?$CDynamicPoolEx@VCTextureAnimationRandomDecorator@NEffectUpdateDecorator@@@@UAEPAXI@Z
CONST	ENDS
;	COMDAT ??_7?$CDynamicPoolEx@VCAirResistanceDecorator@NEffectUpdateDecorator@@@@6B@
CONST	SEGMENT
??_7?$CDynamicPoolEx@VCAirResistanceDecorator@NEffectUpdateDecorator@@@@6B@ DD FLAT:??_R4?$CDynamicPoolEx@VCAirResistanceDecorator@NEffectUpdateDecorator@@@@6B@ ; CDynamicPoolEx<NEffectUpdateDecorator::CAirResistanceDecorator>::`vftable'
	DD	FLAT:??_E?$CDynamicPoolEx@VCAirResistanceDecorator@NEffectUpdateDecorator@@@@UAEPAXI@Z
CONST	ENDS
;	COMDAT ??_7?$CDynamicPoolEx@VCGravityDecorator@NEffectUpdateDecorator@@@@6B@
CONST	SEGMENT
??_7?$CDynamicPoolEx@VCGravityDecorator@NEffectUpdateDecorator@@@@6B@ DD FLAT:??_R4?$CDynamicPoolEx@VCGravityDecorator@NEffectUpdateDecorator@@@@6B@ ; CDynamicPoolEx<NEffectUpdateDecorator::CGravityDecorator>::`vftable'
	DD	FLAT:??_E?$CDynamicPoolEx@VCGravityDecorator@NEffectUpdateDecorator@@@@UAEPAXI@Z
CONST	ENDS
;	COMDAT ??_7?$CDynamicPoolEx@VCRotationDecorator@NEffectUpdateDecorator@@@@6B@
CONST	SEGMENT
??_7?$CDynamicPoolEx@VCRotationDecorator@NEffectUpdateDecorator@@@@6B@ DD FLAT:??_R4?$CDynamicPoolEx@VCRotationDecorator@NEffectUpdateDecorator@@@@6B@ ; CDynamicPoolEx<NEffectUpdateDecorator::CRotationDecorator>::`vftable'
	DD	FLAT:??_E?$CDynamicPoolEx@VCRotationDecorator@NEffectUpdateDecorator@@@@UAEPAXI@Z
CONST	ENDS
;	COMDAT ??_R1A@?0A@EA@?$CDynamicPoolEx@VCRotationDecorator@NEffectUpdateDecorator@@@@8
rdata$r	SEGMENT
??_R1A@?0A@EA@?$CDynamicPoolEx@VCRotationDecorator@NEffectUpdateDecorator@@@@8 DD FLAT:??_R0?AV?$CDynamicPoolEx@VCRotationDecorator@NEffectUpdateDecorator@@@@@8 ; CDynamicPoolEx<NEffectUpdateDecorator::CRotationDecorator>::`RTTI Base Class Descriptor at (0,-1,0,64)'
	DD	00H
	DD	00H
	DD	0ffffffffH
	DD	00H
	DD	040H
	DD	FLAT:??_R3?$CDynamicPoolEx@VCRotationDecorator@NEffectUpdateDecorator@@@@8
rdata$r	ENDS
;	COMDAT ??_R2?$CDynamicPoolEx@VCRotationDecorator@NEffectUpdateDecorator@@@@8
rdata$r	SEGMENT
??_R2?$CDynamicPoolEx@VCRotationDecorator@NEffectUpdateDecorator@@@@8 DD FLAT:??_R1A@?0A@EA@?$CDynamicPoolEx@VCRotationDecorator@NEffectUpdateDecorator@@@@8 ; CDynamicPoolEx<NEffectUpdateDecorator::CRotationDecorator>::`RTTI Base Class Array'
rdata$r	ENDS
;	COMDAT ??_R3?$CDynamicPoolEx@VCRotationDecorator@NEffectUpdateDecorator@@@@8
rdata$r	SEGMENT
??_R3?$CDynamicPoolEx@VCRotationDecorator@NEffectUpdateDecorator@@@@8 DD 00H ; CDynamicPoolEx<NEffectUpdateDecorator::CRotationDecorator>::`RTTI Class Hierarchy Descriptor'
	DD	00H
	DD	01H
	DD	FLAT:??_R2?$CDynamicPoolEx@VCRotationDecorator@NEffectUpdateDecorator@@@@8
rdata$r	ENDS
;	COMDAT ??_R0?AV?$CDynamicPoolEx@VCRotationDecorator@NEffectUpdateDecorator@@@@@8
data$rs	SEGMENT
??_R0?AV?$CDynamicPoolEx@VCRotationDecorator@NEffectUpdateDecorator@@@@@8 DD FLAT:??_7type_info@@6B@ ; CDynamicPoolEx<NEffectUpdateDecorator::CRotationDecorator> `RTTI Type Descriptor'
	DD	00H
	DB	'.?AV?$CDynamicPoolEx@VCRotationDecorator@NEffectUpdateDe'
	DB	'corator@@@@', 00H
data$rs	ENDS
;	COMDAT ??_R4?$CDynamicPoolEx@VCRotationDecorator@NEffectUpdateDecorator@@@@6B@
rdata$r	SEGMENT
??_R4?$CDynamicPoolEx@VCRotationDecorator@NEffectUpdateDecorator@@@@6B@ DD 00H ; CDynamicPoolEx<NEffectUpdateDecorator::CRotationDecorator>::`RTTI Complete Object Locator'
	DD	00H
	DD	00H
	DD	FLAT:??_R0?AV?$CDynamicPoolEx@VCRotationDecorator@NEffectUpdateDecorator@@@@@8
	DD	FLAT:??_R3?$CDynamicPoolEx@VCRotationDecorator@NEffectUpdateDecorator@@@@8
rdata$r	ENDS
;	COMDAT ??_R1A@?0A@EA@?$CDynamicPoolEx@VCGravityDecorator@NEffectUpdateDecorator@@@@8
rdata$r	SEGMENT
??_R1A@?0A@EA@?$CDynamicPoolEx@VCGravityDecorator@NEffectUpdateDecorator@@@@8 DD FLAT:??_R0?AV?$CDynamicPoolEx@VCGravityDecorator@NEffectUpdateDecorator@@@@@8 ; CDynamicPoolEx<NEffectUpdateDecorator::CGravityDecorator>::`RTTI Base Class Descriptor at (0,-1,0,64)'
	DD	00H
	DD	00H
	DD	0ffffffffH
	DD	00H
	DD	040H
	DD	FLAT:??_R3?$CDynamicPoolEx@VCGravityDecorator@NEffectUpdateDecorator@@@@8
rdata$r	ENDS
;	COMDAT ??_R2?$CDynamicPoolEx@VCGravityDecorator@NEffectUpdateDecorator@@@@8
rdata$r	SEGMENT
??_R2?$CDynamicPoolEx@VCGravityDecorator@NEffectUpdateDecorator@@@@8 DD FLAT:??_R1A@?0A@EA@?$CDynamicPoolEx@VCGravityDecorator@NEffectUpdateDecorator@@@@8 ; CDynamicPoolEx<NEffectUpdateDecorator::CGravityDecorator>::`RTTI Base Class Array'
rdata$r	ENDS
;	COMDAT ??_R3?$CDynamicPoolEx@VCGravityDecorator@NEffectUpdateDecorator@@@@8
rdata$r	SEGMENT
??_R3?$CDynamicPoolEx@VCGravityDecorator@NEffectUpdateDecorator@@@@8 DD 00H ; CDynamicPoolEx<NEffectUpdateDecorator::CGravityDecorator>::`RTTI Class Hierarchy Descriptor'
	DD	00H
	DD	01H
	DD	FLAT:??_R2?$CDynamicPoolEx@VCGravityDecorator@NEffectUpdateDecorator@@@@8
rdata$r	ENDS
;	COMDAT ??_R0?AV?$CDynamicPoolEx@VCGravityDecorator@NEffectUpdateDecorator@@@@@8
data$rs	SEGMENT
??_R0?AV?$CDynamicPoolEx@VCGravityDecorator@NEffectUpdateDecorator@@@@@8 DD FLAT:??_7type_info@@6B@ ; CDynamicPoolEx<NEffectUpdateDecorator::CGravityDecorator> `RTTI Type Descriptor'
	DD	00H
	DB	'.?AV?$CDynamicPoolEx@VCGravityDecorator@NEffectUpdateDec'
	DB	'orator@@@@', 00H
data$rs	ENDS
;	COMDAT ??_R4?$CDynamicPoolEx@VCGravityDecorator@NEffectUpdateDecorator@@@@6B@
rdata$r	SEGMENT
??_R4?$CDynamicPoolEx@VCGravityDecorator@NEffectUpdateDecorator@@@@6B@ DD 00H ; CDynamicPoolEx<NEffectUpdateDecorator::CGravityDecorator>::`RTTI Complete Object Locator'
	DD	00H
	DD	00H
	DD	FLAT:??_R0?AV?$CDynamicPoolEx@VCGravityDecorator@NEffectUpdateDecorator@@@@@8
	DD	FLAT:??_R3?$CDynamicPoolEx@VCGravityDecorator@NEffectUpdateDecorator@@@@8
rdata$r	ENDS
;	COMDAT ??_R1A@?0A@EA@?$CDynamicPoolEx@VCAirResistanceDecorator@NEffectUpdateDecorator@@@@8
rdata$r	SEGMENT
??_R1A@?0A@EA@?$CDynamicPoolEx@VCAirResistanceDecorator@NEffectUpdateDecorator@@@@8 DD FLAT:??_R0?AV?$CDynamicPoolEx@VCAirResistanceDecorator@NEffectUpdateDecorator@@@@@8 ; CDynamicPoolEx<NEffectUpdateDecorator::CAirResistanceDecorator>::`RTTI Base Class Descriptor at (0,-1,0,64)'
	DD	00H
	DD	00H
	DD	0ffffffffH
	DD	00H
	DD	040H
	DD	FLAT:??_R3?$CDynamicPoolEx@VCAirResistanceDecorator@NEffectUpdateDecorator@@@@8
rdata$r	ENDS
;	COMDAT ??_R2?$CDynamicPoolEx@VCAirResistanceDecorator@NEffectUpdateDecorator@@@@8
rdata$r	SEGMENT
??_R2?$CDynamicPoolEx@VCAirResistanceDecorator@NEffectUpdateDecorator@@@@8 DD FLAT:??_R1A@?0A@EA@?$CDynamicPoolEx@VCAirResistanceDecorator@NEffectUpdateDecorator@@@@8 ; CDynamicPoolEx<NEffectUpdateDecorator::CAirResistanceDecorator>::`RTTI Base Class Array'
rdata$r	ENDS
;	COMDAT ??_R3?$CDynamicPoolEx@VCAirResistanceDecorator@NEffectUpdateDecorator@@@@8
rdata$r	SEGMENT
??_R3?$CDynamicPoolEx@VCAirResistanceDecorator@NEffectUpdateDecorator@@@@8 DD 00H ; CDynamicPoolEx<NEffectUpdateDecorator::CAirResistanceDecorator>::`RTTI Class Hierarchy Descriptor'
	DD	00H
	DD	01H
	DD	FLAT:??_R2?$CDynamicPoolEx@VCAirResistanceDecorator@NEffectUpdateDecorator@@@@8
rdata$r	ENDS
;	COMDAT ??_R0?AV?$CDynamicPoolEx@VCAirResistanceDecorator@NEffectUpdateDecorator@@@@@8
data$rs	SEGMENT
??_R0?AV?$CDynamicPoolEx@VCAirResistanceDecorator@NEffectUpdateDecorator@@@@@8 DD FLAT:??_7type_info@@6B@ ; CDynamicPoolEx<NEffectUpdateDecorator::CAirResistanceDecorator> `RTTI Type Descriptor'
	DD	00H
	DB	'.?AV?$CDynamicPoolEx@VCAirResistanceDecorator@NEffectUpd'
	DB	'ateDecorator@@@@', 00H
data$rs	ENDS
;	COMDAT ??_R4?$CDynamicPoolEx@VCAirResistanceDecorator@NEffectUpdateDecorator@@@@6B@
rdata$r	SEGMENT
??_R4?$CDynamicPoolEx@VCAirResistanceDecorator@NEffectUpdateDecorator@@@@6B@ DD 00H ; CDynamicPoolEx<NEffectUpdateDecorator::CAirResistanceDecorator>::`RTTI Complete Object Locator'
	DD	00H
	DD	00H
	DD	FLAT:??_R0?AV?$CDynamicPoolEx@VCAirResistanceDecorator@NEffectUpdateDecorator@@@@@8
	DD	FLAT:??_R3?$CDynamicPoolEx@VCAirResistanceDecorator@NEffectUpdateDecorator@@@@8
rdata$r	ENDS
;	COMDAT ??_R1A@?0A@EA@?$CDynamicPoolEx@VCTextureAnimationRandomDecorator@NEffectUpdateDecorator@@@@8
rdata$r	SEGMENT
??_R1A@?0A@EA@?$CDynamicPoolEx@VCTextureAnimationRandomDecorator@NEffectUpdateDecorator@@@@8 DD FLAT:??_R0?AV?$CDynamicPoolEx@VCTextureAnimationRandomDecorator@NEffectUpdateDecorator@@@@@8 ; CDynamicPoolEx<NEffectUpdateDecorator::CTextureAnimationRandomDecorator>::`RTTI Base Class Descriptor at (0,-1,0,64)'
	DD	00H
	DD	00H
	DD	0ffffffffH
	DD	00H
	DD	040H
	DD	FLAT:??_R3?$CDynamicPoolEx@VCTextureAnimationRandomDecorator@NEffectUpdateDecorator@@@@8
rdata$r	ENDS
;	COMDAT ??_R2?$CDynamicPoolEx@VCTextureAnimationRandomDecorator@NEffectUpdateDecorator@@@@8
rdata$r	SEGMENT
??_R2?$CDynamicPoolEx@VCTextureAnimationRandomDecorator@NEffectUpdateDecorator@@@@8 DD FLAT:??_R1A@?0A@EA@?$CDynamicPoolEx@VCTextureAnimationRandomDecorator@NEffectUpdateDecorator@@@@8 ; CDynamicPoolEx<NEffectUpdateDecorator::CTextureAnimationRandomDecorator>::`RTTI Base Class Array'
rdata$r	ENDS
;	COMDAT ??_R3?$CDynamicPoolEx@VCTextureAnimationRandomDecorator@NEffectUpdateDecorator@@@@8
rdata$r	SEGMENT
??_R3?$CDynamicPoolEx@VCTextureAnimationRandomDecorator@NEffectUpdateDecorator@@@@8 DD 00H ; CDynamicPoolEx<NEffectUpdateDecorator::CTextureAnimationRandomDecorator>::`RTTI Class Hierarchy Descriptor'
	DD	00H
	DD	01H
	DD	FLAT:??_R2?$CDynamicPoolEx@VCTextureAnimationRandomDecorator@NEffectUpdateDecorator@@@@8
rdata$r	ENDS
;	COMDAT ??_R0?AV?$CDynamicPoolEx@VCTextureAnimationRandomDecorator@NEffectUpdateDecorator@@@@@8
data$rs	SEGMENT
??_R0?AV?$CDynamicPoolEx@VCTextureAnimationRandomDecorator@NEffectUpdateDecorator@@@@@8 DD FLAT:??_7type_info@@6B@ ; CDynamicPoolEx<NEffectUpdateDecorator::CTextureAnimationRandomDecorator> `RTTI Type Descriptor'
	DD	00H
	DB	'.?AV?$CDynamicPoolEx@VCTextureAnimationRandomDecorator@N'
	DB	'EffectUpdateDecorator@@@@', 00H
data$rs	ENDS
;	COMDAT ??_R4?$CDynamicPoolEx@VCTextureAnimationRandomDecorator@NEffectUpdateDecorator@@@@6B@
rdata$r	SEGMENT
??_R4?$CDynamicPoolEx@VCTextureAnimationRandomDecorator@NEffectUpdateDecorator@@@@6B@ DD 00H ; CDynamicPoolEx<NEffectUpdateDecorator::CTextureAnimationRandomDecorator>::`RTTI Complete Object Locator'
	DD	00H
	DD	00H
	DD	FLAT:??_R0?AV?$CDynamicPoolEx@VCTextureAnimationRandomDecorator@NEffectUpdateDecorator@@@@@8
	DD	FLAT:??_R3?$CDynamicPoolEx@VCTextureAnimationRandomDecorator@NEffectUpdateDecorator@@@@8
rdata$r	ENDS
;	COMDAT ??_R1A@?0A@EA@?$CDynamicPoolEx@VCTextureAnimationCCWDecorator@NEffectUpdateDecorator@@@@8
rdata$r	SEGMENT
??_R1A@?0A@EA@?$CDynamicPoolEx@VCTextureAnimationCCWDecorator@NEffectUpdateDecorator@@@@8 DD FLAT:??_R0?AV?$CDynamicPoolEx@VCTextureAnimationCCWDecorator@NEffectUpdateDecorator@@@@@8 ; CDynamicPoolEx<NEffectUpdateDecorator::CTextureAnimationCCWDecorator>::`RTTI Base Class Descriptor at (0,-1,0,64)'
	DD	00H
	DD	00H
	DD	0ffffffffH
	DD	00H
	DD	040H
	DD	FLAT:??_R3?$CDynamicPoolEx@VCTextureAnimationCCWDecorator@NEffectUpdateDecorator@@@@8
rdata$r	ENDS
;	COMDAT ??_R2?$CDynamicPoolEx@VCTextureAnimationCCWDecorator@NEffectUpdateDecorator@@@@8
rdata$r	SEGMENT
??_R2?$CDynamicPoolEx@VCTextureAnimationCCWDecorator@NEffectUpdateDecorator@@@@8 DD FLAT:??_R1A@?0A@EA@?$CDynamicPoolEx@VCTextureAnimationCCWDecorator@NEffectUpdateDecorator@@@@8 ; CDynamicPoolEx<NEffectUpdateDecorator::CTextureAnimationCCWDecorator>::`RTTI Base Class Array'
rdata$r	ENDS
;	COMDAT ??_R3?$CDynamicPoolEx@VCTextureAnimationCCWDecorator@NEffectUpdateDecorator@@@@8
rdata$r	SEGMENT
??_R3?$CDynamicPoolEx@VCTextureAnimationCCWDecorator@NEffectUpdateDecorator@@@@8 DD 00H ; CDynamicPoolEx<NEffectUpdateDecorator::CTextureAnimationCCWDecorator>::`RTTI Class Hierarchy Descriptor'
	DD	00H
	DD	01H
	DD	FLAT:??_R2?$CDynamicPoolEx@VCTextureAnimationCCWDecorator@NEffectUpdateDecorator@@@@8
rdata$r	ENDS
;	COMDAT ??_R0?AV?$CDynamicPoolEx@VCTextureAnimationCCWDecorator@NEffectUpdateDecorator@@@@@8
data$rs	SEGMENT
??_R0?AV?$CDynamicPoolEx@VCTextureAnimationCCWDecorator@NEffectUpdateDecorator@@@@@8 DD FLAT:??_7type_info@@6B@ ; CDynamicPoolEx<NEffectUpdateDecorator::CTextureAnimationCCWDecorator> `RTTI Type Descriptor'
	DD	00H
	DB	'.?AV?$CDynamicPoolEx@VCTextureAnimationCCWDecorator@NEff'
	DB	'ectUpdateDecorator@@@@', 00H
data$rs	ENDS
;	COMDAT ??_R4?$CDynamicPoolEx@VCTextureAnimationCCWDecorator@NEffectUpdateDecorator@@@@6B@
rdata$r	SEGMENT
??_R4?$CDynamicPoolEx@VCTextureAnimationCCWDecorator@NEffectUpdateDecorator@@@@6B@ DD 00H ; CDynamicPoolEx<NEffectUpdateDecorator::CTextureAnimationCCWDecorator>::`RTTI Complete Object Locator'
	DD	00H
	DD	00H
	DD	FLAT:??_R0?AV?$CDynamicPoolEx@VCTextureAnimationCCWDecorator@NEffectUpdateDecorator@@@@@8
	DD	FLAT:??_R3?$CDynamicPoolEx@VCTextureAnimationCCWDecorator@NEffectUpdateDecorator@@@@8
rdata$r	ENDS
;	COMDAT ??_R1A@?0A@EA@?$CDynamicPoolEx@VCTextureAnimationCWDecorator@NEffectUpdateDecorator@@@@8
rdata$r	SEGMENT
??_R1A@?0A@EA@?$CDynamicPoolEx@VCTextureAnimationCWDecorator@NEffectUpdateDecorator@@@@8 DD FLAT:??_R0?AV?$CDynamicPoolEx@VCTextureAnimationCWDecorator@NEffectUpdateDecorator@@@@@8 ; CDynamicPoolEx<NEffectUpdateDecorator::CTextureAnimationCWDecorator>::`RTTI Base Class Descriptor at (0,-1,0,64)'
	DD	00H
	DD	00H
	DD	0ffffffffH
	DD	00H
	DD	040H
	DD	FLAT:??_R3?$CDynamicPoolEx@VCTextureAnimationCWDecorator@NEffectUpdateDecorator@@@@8
rdata$r	ENDS
;	COMDAT ??_R2?$CDynamicPoolEx@VCTextureAnimationCWDecorator@NEffectUpdateDecorator@@@@8
rdata$r	SEGMENT
??_R2?$CDynamicPoolEx@VCTextureAnimationCWDecorator@NEffectUpdateDecorator@@@@8 DD FLAT:??_R1A@?0A@EA@?$CDynamicPoolEx@VCTextureAnimationCWDecorator@NEffectUpdateDecorator@@@@8 ; CDynamicPoolEx<NEffectUpdateDecorator::CTextureAnimationCWDecorator>::`RTTI Base Class Array'
rdata$r	ENDS
;	COMDAT ??_R3?$CDynamicPoolEx@VCTextureAnimationCWDecorator@NEffectUpdateDecorator@@@@8
rdata$r	SEGMENT
??_R3?$CDynamicPoolEx@VCTextureAnimationCWDecorator@NEffectUpdateDecorator@@@@8 DD 00H ; CDynamicPoolEx<NEffectUpdateDecorator::CTextureAnimationCWDecorator>::`RTTI Class Hierarchy Descriptor'
	DD	00H
	DD	01H
	DD	FLAT:??_R2?$CDynamicPoolEx@VCTextureAnimationCWDecorator@NEffectUpdateDecorator@@@@8
rdata$r	ENDS
;	COMDAT ??_R0?AV?$CDynamicPoolEx@VCTextureAnimationCWDecorator@NEffectUpdateDecorator@@@@@8
data$rs	SEGMENT
??_R0?AV?$CDynamicPoolEx@VCTextureAnimationCWDecorator@NEffectUpdateDecorator@@@@@8 DD FLAT:??_7type_info@@6B@ ; CDynamicPoolEx<NEffectUpdateDecorator::CTextureAnimationCWDecorator> `RTTI Type Descriptor'
	DD	00H
	DB	'.?AV?$CDynamicPoolEx@VCTextureAnimationCWDecorator@NEffe'
	DB	'ctUpdateDecorator@@@@', 00H
data$rs	ENDS
;	COMDAT ??_R4?$CDynamicPoolEx@VCTextureAnimationCWDecorator@NEffectUpdateDecorator@@@@6B@
rdata$r	SEGMENT
??_R4?$CDynamicPoolEx@VCTextureAnimationCWDecorator@NEffectUpdateDecorator@@@@6B@ DD 00H ; CDynamicPoolEx<NEffectUpdateDecorator::CTextureAnimationCWDecorator>::`RTTI Complete Object Locator'
	DD	00H
	DD	00H
	DD	FLAT:??_R0?AV?$CDynamicPoolEx@VCTextureAnimationCWDecorator@NEffectUpdateDecorator@@@@@8
	DD	FLAT:??_R3?$CDynamicPoolEx@VCTextureAnimationCWDecorator@NEffectUpdateDecorator@@@@8
rdata$r	ENDS
;	COMDAT ??_R1A@?0A@EA@?$CDynamicPoolEx@VCNullDecorator@NEffectUpdateDecorator@@@@8
rdata$r	SEGMENT
??_R1A@?0A@EA@?$CDynamicPoolEx@VCNullDecorator@NEffectUpdateDecorator@@@@8 DD FLAT:??_R0?AV?$CDynamicPoolEx@VCNullDecorator@NEffectUpdateDecorator@@@@@8 ; CDynamicPoolEx<NEffectUpdateDecorator::CNullDecorator>::`RTTI Base Class Descriptor at (0,-1,0,64)'
	DD	00H
	DD	00H
	DD	0ffffffffH
	DD	00H
	DD	040H
	DD	FLAT:??_R3?$CDynamicPoolEx@VCNullDecorator@NEffectUpdateDecorator@@@@8
rdata$r	ENDS
;	COMDAT ??_R2?$CDynamicPoolEx@VCNullDecorator@NEffectUpdateDecorator@@@@8
rdata$r	SEGMENT
??_R2?$CDynamicPoolEx@VCNullDecorator@NEffectUpdateDecorator@@@@8 DD FLAT:??_R1A@?0A@EA@?$CDynamicPoolEx@VCNullDecorator@NEffectUpdateDecorator@@@@8 ; CDynamicPoolEx<NEffectUpdateDecorator::CNullDecorator>::`RTTI Base Class Array'
rdata$r	ENDS
;	COMDAT ??_R3?$CDynamicPoolEx@VCNullDecorator@NEffectUpdateDecorator@@@@8
rdata$r	SEGMENT
??_R3?$CDynamicPoolEx@VCNullDecorator@NEffectUpdateDecorator@@@@8 DD 00H ; CDynamicPoolEx<NEffectUpdateDecorator::CNullDecorator>::`RTTI Class Hierarchy Descriptor'
	DD	00H
	DD	01H
	DD	FLAT:??_R2?$CDynamicPoolEx@VCNullDecorator@NEffectUpdateDecorator@@@@8
rdata$r	ENDS
;	COMDAT ??_R0?AV?$CDynamicPoolEx@VCNullDecorator@NEffectUpdateDecorator@@@@@8
data$rs	SEGMENT
??_R0?AV?$CDynamicPoolEx@VCNullDecorator@NEffectUpdateDecorator@@@@@8 DD FLAT:??_7type_info@@6B@ ; CDynamicPoolEx<NEffectUpdateDecorator::CNullDecorator> `RTTI Type Descriptor'
	DD	00H
	DB	'.?AV?$CDynamicPoolEx@VCNullDecorator@NEffectUpdateDecora'
	DB	'tor@@@@', 00H
data$rs	ENDS
;	COMDAT ??_R4?$CDynamicPoolEx@VCNullDecorator@NEffectUpdateDecorator@@@@6B@
rdata$r	SEGMENT
??_R4?$CDynamicPoolEx@VCNullDecorator@NEffectUpdateDecorator@@@@6B@ DD 00H ; CDynamicPoolEx<NEffectUpdateDecorator::CNullDecorator>::`RTTI Complete Object Locator'
	DD	00H
	DD	00H
	DD	FLAT:??_R0?AV?$CDynamicPoolEx@VCNullDecorator@NEffectUpdateDecorator@@@@@8
	DD	FLAT:??_R3?$CDynamicPoolEx@VCNullDecorator@NEffectUpdateDecorator@@@@8
rdata$r	ENDS
;	COMDAT ??_R1A@?0A@EA@?$CDynamicPoolEx@VCHeaderDecorator@NEffectUpdateDecorator@@@@8
rdata$r	SEGMENT
??_R1A@?0A@EA@?$CDynamicPoolEx@VCHeaderDecorator@NEffectUpdateDecorator@@@@8 DD FLAT:??_R0?AV?$CDynamicPoolEx@VCHeaderDecorator@NEffectUpdateDecorator@@@@@8 ; CDynamicPoolEx<NEffectUpdateDecorator::CHeaderDecorator>::`RTTI Base Class Descriptor at (0,-1,0,64)'
	DD	00H
	DD	00H
	DD	0ffffffffH
	DD	00H
	DD	040H
	DD	FLAT:??_R3?$CDynamicPoolEx@VCHeaderDecorator@NEffectUpdateDecorator@@@@8
rdata$r	ENDS
;	COMDAT ??_R2?$CDynamicPoolEx@VCHeaderDecorator@NEffectUpdateDecorator@@@@8
rdata$r	SEGMENT
??_R2?$CDynamicPoolEx@VCHeaderDecorator@NEffectUpdateDecorator@@@@8 DD FLAT:??_R1A@?0A@EA@?$CDynamicPoolEx@VCHeaderDecorator@NEffectUpdateDecorator@@@@8 ; CDynamicPoolEx<NEffectUpdateDecorator::CHeaderDecorator>::`RTTI Base Class Array'
rdata$r	ENDS
;	COMDAT ??_R3?$CDynamicPoolEx@VCHeaderDecorator@NEffectUpdateDecorator@@@@8
rdata$r	SEGMENT
??_R3?$CDynamicPoolEx@VCHeaderDecorator@NEffectUpdateDecorator@@@@8 DD 00H ; CDynamicPoolEx<NEffectUpdateDecorator::CHeaderDecorator>::`RTTI Class Hierarchy Descriptor'
	DD	00H
	DD	01H
	DD	FLAT:??_R2?$CDynamicPoolEx@VCHeaderDecorator@NEffectUpdateDecorator@@@@8
rdata$r	ENDS
;	COMDAT ??_R0?AV?$CDynamicPoolEx@VCHeaderDecorator@NEffectUpdateDecorator@@@@@8
data$rs	SEGMENT
??_R0?AV?$CDynamicPoolEx@VCHeaderDecorator@NEffectUpdateDecorator@@@@@8 DD FLAT:??_7type_info@@6B@ ; CDynamicPoolEx<NEffectUpdateDecorator::CHeaderDecorator> `RTTI Type Descriptor'
	DD	00H
	DB	'.?AV?$CDynamicPoolEx@VCHeaderDecorator@NEffectUpdateDeco'
	DB	'rator@@@@', 00H
data$rs	ENDS
;	COMDAT ??_R4?$CDynamicPoolEx@VCHeaderDecorator@NEffectUpdateDecorator@@@@6B@
rdata$r	SEGMENT
??_R4?$CDynamicPoolEx@VCHeaderDecorator@NEffectUpdateDecorator@@@@6B@ DD 00H ; CDynamicPoolEx<NEffectUpdateDecorator::CHeaderDecorator>::`RTTI Complete Object Locator'
	DD	00H
	DD	00H
	DD	FLAT:??_R0?AV?$CDynamicPoolEx@VCHeaderDecorator@NEffectUpdateDecorator@@@@@8
	DD	FLAT:??_R3?$CDynamicPoolEx@VCHeaderDecorator@NEffectUpdateDecorator@@@@8
rdata$r	ENDS
;	COMDAT ??_7?$CDynamicPoolEx@VCHeaderDecorator@NEffectUpdateDecorator@@@@6B@
CONST	SEGMENT
??_7?$CDynamicPoolEx@VCHeaderDecorator@NEffectUpdateDecorator@@@@6B@ DD FLAT:??_R4?$CDynamicPoolEx@VCHeaderDecorator@NEffectUpdateDecorator@@@@6B@ ; CDynamicPoolEx<NEffectUpdateDecorator::CHeaderDecorator>::`vftable'
	DD	FLAT:??_E?$CDynamicPoolEx@VCHeaderDecorator@NEffectUpdateDecorator@@@@UAEPAXI@Z
CONST	ENDS
;	COMDAT ??_7?$CDynamicPoolEx@VCNullDecorator@NEffectUpdateDecorator@@@@6B@
CONST	SEGMENT
??_7?$CDynamicPoolEx@VCNullDecorator@NEffectUpdateDecorator@@@@6B@ DD FLAT:??_R4?$CDynamicPoolEx@VCNullDecorator@NEffectUpdateDecorator@@@@6B@ ; CDynamicPoolEx<NEffectUpdateDecorator::CNullDecorator>::`vftable'
	DD	FLAT:??_E?$CDynamicPoolEx@VCNullDecorator@NEffectUpdateDecorator@@@@UAEPAXI@Z
CONST	ENDS
;	COMDAT ??_7?$CDynamicPoolEx@VCTextureAnimationCWDecorator@NEffectUpdateDecorator@@@@6B@
CONST	SEGMENT
??_7?$CDynamicPoolEx@VCTextureAnimationCWDecorator@NEffectUpdateDecorator@@@@6B@ DD FLAT:??_R4?$CDynamicPoolEx@VCTextureAnimationCWDecorator@NEffectUpdateDecorator@@@@6B@ ; CDynamicPoolEx<NEffectUpdateDecorator::CTextureAnimationCWDecorator>::`vftable'
	DD	FLAT:??_E?$CDynamicPoolEx@VCTextureAnimationCWDecorator@NEffectUpdateDecorator@@@@UAEPAXI@Z
CONST	ENDS
PUBLIC	??_H@YGXPAXIIP6EPAX0@Z@Z			; `vector constructor iterator'
PUBLIC	?__empty_global_delete@@YAXPAX@Z		; __empty_global_delete
PUBLIC	?__empty_global_delete@@YAXPAXI@Z		; __empty_global_delete
PUBLIC	___local_stdio_printf_options
PUBLIC	_sprintf
PUBLIC	??0exception@std@@QAE@ABV01@@Z			; std::exception::exception
PUBLIC	??1exception@std@@UAE@XZ			; std::exception::~exception
PUBLIC	?what@exception@std@@UBEPBDXZ			; std::exception::what
PUBLIC	??_Gexception@std@@UAEPAXI@Z			; std::exception::`scalar deleting destructor'
PUBLIC	??0bad_alloc@std@@QAE@ABV01@@Z			; std::bad_alloc::bad_alloc
PUBLIC	??_Gbad_alloc@std@@UAEPAXI@Z			; std::bad_alloc::`scalar deleting destructor'
PUBLIC	??0bad_array_new_length@std@@QAE@XZ		; std::bad_array_new_length::bad_array_new_length
PUBLIC	??1bad_array_new_length@std@@UAE@XZ		; std::bad_array_new_length::~bad_array_new_length
PUBLIC	??0bad_array_new_length@std@@QAE@ABV01@@Z	; std::bad_array_new_length::bad_array_new_length
PUBLIC	??_Gbad_array_new_length@std@@UAEPAXI@Z		; std::bad_array_new_length::`scalar deleting destructor'
PUBLIC	?_Throw_bad_array_new_length@std@@YAXXZ		; std::_Throw_bad_array_new_length
PUBLIC	?_Xlen_string@std@@YAXXZ			; std::_Xlen_string
PUBLIC	??0?$basic_string@DU?$char_traits@D@std@@V?$allocator@D@2@@std@@QAE@XZ ; std::basic_string<char,std::char_traits<char>,std::allocator<char> >::basic_string<char,std::char_traits<char>,std::allocator<char> >
PUBLIC	??1?$basic_string@DU?$char_traits@D@std@@V?$allocator@D@2@@std@@QAE@XZ ; std::basic_string<char,std::char_traits<char>,std::allocator<char> >::~basic_string<char,std::char_traits<char>,std::allocator<char> >
PUBLIC	?assign@?$basic_string@DU?$char_traits@D@std@@V?$allocator@D@2@@std@@QAEAAV12@QBDI@Z ; std::basic_string<char,std::char_traits<char>,std::allocator<char> >::assign
PUBLIC	??1?$vector@V?$basic_string@DU?$char_traits@D@std@@V?$allocator@D@2@@std@@V?$allocator@V?$basic_string@DU?$char_traits@D@std@@V?$allocator@D@2@@std@@@2@@std@@QAE@XZ ; std::vector<std::basic_string<char,std::char_traits<char>,std::allocator<char> >,std::allocator<std::basic_string<char,std::char_traits<char>,std::allocator<char> > > >::~vector<std::basic_string<char,std::char_traits<char>,std::allocator<char> >,std::allocator<std::basic_string<char,std::char_traits<char>,std::allocator<char> > > >
PUBLIC	??$_Destroy_in_place@PAD@std@@YAXAAPAD@Z	; std::_Destroy_in_place<char *>
PUBLIC	??$_Construct_in_place@PADABQAD@std@@YAXAAPADABQAD@Z ; std::_Construct_in_place<char *,char * const &>
PUBLIC	??$_Deallocate@$07$0A@@std@@YAXPAXI@Z		; std::_Deallocate<8,0>
PUBLIC	??$_Allocate@$07U_Default_allocate_traits@std@@$0A@@std@@YAPAXI@Z ; std::_Allocate<8,std::_Default_allocate_traits,0>
PUBLIC	??$_Allocate_manually_vector_aligned@U_Default_allocate_traits@std@@@std@@YAPAXI@Z ; std::_Allocate_manually_vector_aligned<std::_Default_allocate_traits>
PUBLIC	??1?$CSingleton@VCPythonNetworkStream@@@@UAE@XZ	; CSingleton<CPythonNetworkStream>::~CSingleton<CPythonNetworkStream>
PUBLIC	??_G?$CSingleton@VCPythonNetworkStream@@@@UAEPAXI@Z ; CSingleton<CPythonNetworkStream>::`scalar deleting destructor'
PUBLIC	??0CPythonNetworkStream@@QAE@XZ			; CPythonNetworkStream::CPythonNetworkStream
PUBLIC	??1CPythonNetworkStream@@UAE@XZ			; CPythonNetworkStream::~CPythonNetworkStream
PUBLIC	?SetWaitFlag@CPythonNetworkStream@@QAEXXZ	; CPythonNetworkStream::SetWaitFlag
PUBLIC	?SendEmoticon@CPythonNetworkStream@@QAEXI@Z	; CPythonNetworkStream::SendEmoticon
PUBLIC	?ExitApplication@CPythonNetworkStream@@QAEXXZ	; CPythonNetworkStream::ExitApplication
PUBLIC	?ExitGame@CPythonNetworkStream@@QAEXXZ		; CPythonNetworkStream::ExitGame
PUBLIC	?LogOutGame@CPythonNetworkStream@@QAEXXZ	; CPythonNetworkStream::LogOutGame
PUBLIC	?AbsoluteExitGame@CPythonNetworkStream@@QAEXXZ	; CPythonNetworkStream::AbsoluteExitGame
PUBLIC	?AbsoluteExitApplication@CPythonNetworkStream@@QAEXXZ ; CPythonNetworkStream::AbsoluteExitApplication
PUBLIC	?GetGuildID@CPythonNetworkStream@@QAEKXZ	; CPythonNetworkStream::GetGuildID
PUBLIC	?UploadMark@CPythonNetworkStream@@QAEIPBD@Z	; CPythonNetworkStream::UploadMark
PUBLIC	?UploadSymbol@CPythonNetworkStream@@QAEIPBD@Z	; CPythonNetworkStream::UploadSymbol
PUBLIC	?GetAccountCharacterSlotDatau@CPythonNetworkStream@@QAEIII@Z ; CPythonNetworkStream::GetAccountCharacterSlotDatau
PUBLIC	?GetAccountCharacterSlotDataz@CPythonNetworkStream@@QAEPBDII@Z ; CPythonNetworkStream::GetAccountCharacterSlotDataz
PUBLIC	?IsSelectedEmpire@CPythonNetworkStream@@QAE_NXZ	; CPythonNetworkStream::IsSelectedEmpire
PUBLIC	?SetMarkServer@CPythonNetworkStream@@QAEXPBDI@Z	; CPythonNetworkStream::SetMarkServer
PUBLIC	?ConnectLoginServer@CPythonNetworkStream@@QAEXPBDI@Z ; CPythonNetworkStream::ConnectLoginServer
PUBLIC	?ConnectGameServer@CPythonNetworkStream@@QAEXI@Z ; CPythonNetworkStream::ConnectGameServer
PUBLIC	?SetLoginInfo@CPythonNetworkStream@@QAEXPBD0@Z	; CPythonNetworkStream::SetLoginInfo
PUBLIC	?SetLoginKey@CPythonNetworkStream@@QAEXK@Z	; CPythonNetworkStream::SetLoginKey
PUBLIC	?ClearLoginInfo@CPythonNetworkStream@@QAEXXZ	; CPythonNetworkStream::ClearLoginInfo
PUBLIC	?SetHandler@CPythonNetworkStream@@QAEXPAU_object@@@Z ; CPythonNetworkStream::SetHandler
PUBLIC	?SetPhaseWindow@CPythonNetworkStream@@QAEXIPAU_object@@@Z ; CPythonNetworkStream::SetPhaseWindow
PUBLIC	?ClearPhaseWindow@CPythonNetworkStream@@QAEXIPAU_object@@@Z ; CPythonNetworkStream::ClearPhaseWindow
PUBLIC	?SetServerCommandParserWindow@CPythonNetworkStream@@QAEXPAU_object@@@Z ; CPythonNetworkStream::SetServerCommandParserWindow
PUBLIC	?GetMainActorVID@CPythonNetworkStream@@QAEKXZ	; CPythonNetworkStream::GetMainActorVID
PUBLIC	?GetMainActorRace@CPythonNetworkStream@@QAEKXZ	; CPythonNetworkStream::GetMainActorRace
PUBLIC	?GetMainActorEmpire@CPythonNetworkStream@@QAEKXZ ; CPythonNetworkStream::GetMainActorEmpire
PUBLIC	?GetMainActorSkillGroup@CPythonNetworkStream@@QAEKXZ ; CPythonNetworkStream::GetMainActorSkillGroup
PUBLIC	?SetEmpireID@CPythonNetworkStream@@QAEXK@Z	; CPythonNetworkStream::SetEmpireID
PUBLIC	?GetEmpireID@CPythonNetworkStream@@QAEKXZ	; CPythonNetworkStream::GetEmpireID
PUBLIC	?SetOffLinePhase@CPythonNetworkStream@@QAEXXZ	; CPythonNetworkStream::SetOffLinePhase
PUBLIC	?ClosePhase@CPythonNetworkStream@@QAEXXZ	; CPythonNetworkStream::ClosePhase
PUBLIC	?OnProcess@CPythonNetworkStream@@MAE_NXZ	; CPythonNetworkStream::OnProcess
PUBLIC	?__IsNotPing@CPythonNetworkStream@@IAE_NXZ	; CPythonNetworkStream::__IsNotPing
PUBLIC	?__DownloadMark@CPythonNetworkStream@@IAEXXZ	; CPythonNetworkStream::__DownloadMark
PUBLIC	?__DownloadSymbol@CPythonNetworkStream@@IAEXABV?$vector@KV?$allocator@K@std@@@std@@@Z ; CPythonNetworkStream::__DownloadSymbol
PUBLIC	?RecvErrorPacket@CPythonNetworkStream@@IAE_NH@Z	; CPythonNetworkStream::RecvErrorPacket
PUBLIC	?RecvPingPacket@CPythonNetworkStream@@IAE_NXZ	; CPythonNetworkStream::RecvPingPacket
PUBLIC	?RecvDefaultPacket@CPythonNetworkStream@@IAE_NH@Z ; CPythonNetworkStream::RecvDefaultPacket
PUBLIC	?RecvPhasePacket@CPythonNetworkStream@@IAE_NXZ	; CPythonNetworkStream::RecvPhasePacket
PUBLIC	?SetGameOnline@CPythonNetworkStream@@IAEXXZ	; CPythonNetworkStream::SetGameOnline
PUBLIC	?SetGameOffline@CPythonNetworkStream@@IAEXXZ	; CPythonNetworkStream::SetGameOffline
PUBLIC	?IsGameOnline@CPythonNetworkStream@@IAEHXZ	; CPythonNetworkStream::IsGameOnline
PUBLIC	?CheckPacket@CPythonNetworkStream@@IAE_NPAE@Z	; CPythonNetworkStream::CheckPacket
PUBLIC	?__InitializeMarkAuth@CPythonNetworkStream@@IAEXXZ ; CPythonNetworkStream::__InitializeMarkAuth
PUBLIC	?__LeaveOfflinePhase@CPythonNetworkStream@@IAEXXZ ; CPythonNetworkStream::__LeaveOfflinePhase
PUBLIC	?__ClearSelectCharacterData@CPythonNetworkStream@@IAEXXZ ; CPythonNetworkStream::__ClearSelectCharacterData
PUBLIC	?__ServerTimeSync_Initialize@CPythonNetworkStream@@IAEXXZ ; CPythonNetworkStream::__ServerTimeSync_Initialize
PUBLIC	??1?$CFuncObject@VCPythonNetworkStream@@@@UAE@XZ ; CFuncObject<CPythonNetworkStream>::~CFuncObject<CPythonNetworkStream>
PUBLIC	??_G?$CFuncObject@VCPythonNetworkStream@@@@UAEPAXI@Z ; CFuncObject<CPythonNetworkStream>::`scalar deleting destructor'
PUBLIC	??1?$CRef@VCNetworkActorManager@@@@QAE@XZ	; CRef<CNetworkActorManager>::~CRef<CNetworkActorManager>
PUBLIC	??1SMarkAuth@CPythonNetworkStream@@QAE@XZ	; CPythonNetworkStream::SMarkAuth::~SMarkAuth
PUBLIC	??1?$deque@V?$basic_string@DU?$char_traits@D@std@@V?$allocator@D@2@@std@@V?$allocator@V?$basic_string@DU?$char_traits@D@std@@V?$allocator@D@2@@std@@@2@@std@@QAE@XZ ; std::deque<std::basic_string<char,std::char_traits<char>,std::allocator<char> >,std::allocator<std::basic_string<char,std::char_traits<char>,std::allocator<char> > > >::~deque<std::basic_string<char,std::char_traits<char>,std::allocator<char> >,std::allocator<std::basic_string<char,std::char_traits<char>,std::allocator<char> > > >
PUBLIC	?__DirectEnterMode_Initialize@CPythonNetworkStream@@AAEXXZ ; CPythonNetworkStream::__DirectEnterMode_Initialize
PUBLIC	?__DirectEnterMode_Set@CPythonNetworkStream@@AAEXI@Z ; CPythonNetworkStream::__DirectEnterMode_Set
PUBLIC	?__DirectEnterMode_IsSet@CPythonNetworkStream@@AAE_NXZ ; CPythonNetworkStream::__DirectEnterMode_IsSet
PUBLIC	?EXPORT_GetBettingGuildWarValue@CPythonNetworkStream@@QAEKPBD@Z ; CPythonNetworkStream::EXPORT_GetBettingGuildWarValue
PUBLIC	?__BettingGuildWar_Initialize@CPythonNetworkStream@@AAEXXZ ; CPythonNetworkStream::__BettingGuildWar_Initialize
PUBLIC	?__BettingGuildWar_SetObserverCount@CPythonNetworkStream@@AAEXI@Z ; CPythonNetworkStream::__BettingGuildWar_SetObserverCount
PUBLIC	?__BettingGuildWar_SetBettingMoney@CPythonNetworkStream@@AAEXI@Z ; CPythonNetworkStream::__BettingGuildWar_SetBettingMoney
PUBLIC	??_GCPythonNetworkStream@@UAEPAXI@Z		; CPythonNetworkStream::`scalar deleting destructor'
PUBLIC	??0CMainPacketHeaderMap@@QAE@XZ			; CMainPacketHeaderMap::CMainPacketHeaderMap
PUBLIC	??_GCMainPacketHeaderMap@@UAEPAXI@Z		; CMainPacketHeaderMap::`scalar deleting destructor'
PUBLIC	??$?9DU?$char_traits@D@std@@V?$allocator@D@1@@std@@YA_NQBDABV?$basic_string@DU?$char_traits@D@std@@V?$allocator@D@2@@0@@Z ; std::operator!=<char,std::char_traits<char>,std::allocator<char> >
PUBLIC	??1?$CDynamicPoolEx@VCRotationDecorator@NEffectUpdateDecorator@@@@UAE@XZ ; CDynamicPoolEx<NEffectUpdateDecorator::CRotationDecorator>::~CDynamicPoolEx<NEffectUpdateDecorator::CRotationDecorator>
PUBLIC	?Delete@?$CDynamicPoolEx@VCRotationDecorator@NEffectUpdateDecorator@@@@KAXPAVCRotationDecorator@NEffectUpdateDecorator@@@Z ; CDynamicPoolEx<NEffectUpdateDecorator::CRotationDecorator>::Delete
PUBLIC	??1?$CDynamicPoolEx@VCGravityDecorator@NEffectUpdateDecorator@@@@UAE@XZ ; CDynamicPoolEx<NEffectUpdateDecorator::CGravityDecorator>::~CDynamicPoolEx<NEffectUpdateDecorator::CGravityDecorator>
PUBLIC	?Delete@?$CDynamicPoolEx@VCGravityDecorator@NEffectUpdateDecorator@@@@KAXPAVCGravityDecorator@NEffectUpdateDecorator@@@Z ; CDynamicPoolEx<NEffectUpdateDecorator::CGravityDecorator>::Delete
PUBLIC	??1?$CDynamicPoolEx@VCAirResistanceDecorator@NEffectUpdateDecorator@@@@UAE@XZ ; CDynamicPoolEx<NEffectUpdateDecorator::CAirResistanceDecorator>::~CDynamicPoolEx<NEffectUpdateDecorator::CAirResistanceDecorator>
PUBLIC	?Delete@?$CDynamicPoolEx@VCAirResistanceDecorator@NEffectUpdateDecorator@@@@KAXPAVCAirResistanceDecorator@NEffectUpdateDecorator@@@Z ; CDynamicPoolEx<NEffectUpdateDecorator::CAirResistanceDecorator>::Delete
PUBLIC	??1?$CDynamicPoolEx@VCTextureAnimationRandomDecorator@NEffectUpdateDecorator@@@@UAE@XZ ; CDynamicPoolEx<NEffectUpdateDecorator::CTextureAnimationRandomDecorator>::~CDynamicPoolEx<NEffectUpdateDecorator::CTextureAnimationRandomDecorator>
PUBLIC	?Delete@?$CDynamicPoolEx@VCTextureAnimationRandomDecorator@NEffectUpdateDecorator@@@@KAXPAVCTextureAnimationRandomDecorator@NEffectUpdateDecorator@@@Z ; CDynamicPoolEx<NEffectUpdateDecorator::CTextureAnimationRandomDecorator>::Delete
PUBLIC	??1?$CDynamicPoolEx@VCTextureAnimationCCWDecorator@NEffectUpdateDecorator@@@@UAE@XZ ; CDynamicPoolEx<NEffectUpdateDecorator::CTextureAnimationCCWDecorator>::~CDynamicPoolEx<NEffectUpdateDecorator::CTextureAnimationCCWDecorator>
PUBLIC	?Delete@?$CDynamicPoolEx@VCTextureAnimationCCWDecorator@NEffectUpdateDecorator@@@@KAXPAVCTextureAnimationCCWDecorator@NEffectUpdateDecorator@@@Z ; CDynamicPoolEx<NEffectUpdateDecorator::CTextureAnimationCCWDecorator>::Delete
PUBLIC	??1?$CDynamicPoolEx@VCTextureAnimationCWDecorator@NEffectUpdateDecorator@@@@UAE@XZ ; CDynamicPoolEx<NEffectUpdateDecorator::CTextureAnimationCWDecorator>::~CDynamicPoolEx<NEffectUpdateDecorator::CTextureAnimationCWDecorator>
PUBLIC	?Delete@?$CDynamicPoolEx@VCTextureAnimationCWDecorator@NEffectUpdateDecorator@@@@KAXPAVCTextureAnimationCWDecorator@NEffectUpdateDecorator@@@Z ; CDynamicPoolEx<NEffectUpdateDecorator::CTextureAnimationCWDecorator>::Delete
PUBLIC	??1?$CDynamicPoolEx@VCNullDecorator@NEffectUpdateDecorator@@@@UAE@XZ ; CDynamicPoolEx<NEffectUpdateDecorator::CNullDecorator>::~CDynamicPoolEx<NEffectUpdateDecorator::CNullDecorator>
PUBLIC	?Delete@?$CDynamicPoolEx@VCNullDecorator@NEffectUpdateDecorator@@@@KAXPAVCNullDecorator@NEffectUpdateDecorator@@@Z ; CDynamicPoolEx<NEffectUpdateDecorator::CNullDecorator>::Delete
PUBLIC	??1?$CDynamicPoolEx@VCHeaderDecorator@NEffectUpdateDecorator@@@@UAE@XZ ; CDynamicPoolEx<NEffectUpdateDecorator::CHeaderDecorator>::~CDynamicPoolEx<NEffectUpdateDecorator::CHeaderDecorator>
PUBLIC	?Delete@?$CDynamicPoolEx@VCHeaderDecorator@NEffectUpdateDecorator@@@@KAXPAVCHeaderDecorator@NEffectUpdateDecorator@@@Z ; CDynamicPoolEx<NEffectUpdateDecorator::CHeaderDecorator>::Delete
PUBLIC	??$_Delete_plain_internal@V?$allocator@U_Container_proxy@std@@@std@@@std@@YAXAAV?$allocator@U_Container_proxy@std@@@0@QAU_Container_proxy@0@@Z ; std::_Delete_plain_internal<std::allocator<std::_Container_proxy> >
PUBLIC	??$_Destroy_in_place@PAV?$basic_string@DU?$char_traits@D@std@@V?$allocator@D@2@@std@@@std@@YAXAAPAV?$basic_string@DU?$char_traits@D@std@@V?$allocator@D@2@@0@@Z ; std::_Destroy_in_place<std::basic_string<char,std::char_traits<char>,std::allocator<char> > *>
PUBLIC	??$_Destroy_range@V?$allocator@V?$basic_string@DU?$char_traits@D@std@@V?$allocator@D@2@@std@@@std@@@std@@YAXPAV?$basic_string@DU?$char_traits@D@std@@V?$allocator@D@2@@0@QAV10@AAV?$allocator@V?$basic_string@DU?$char_traits@D@std@@V?$allocator@D@2@@std@@@0@@Z ; std::_Destroy_range<std::allocator<std::basic_string<char,std::char_traits<char>,std::allocator<char> > > >
PUBLIC	??$_Destroy_range@V?$allocator@PAVCHeaderDecorator@NEffectUpdateDecorator@@@std@@@std@@YAXPAPAVCHeaderDecorator@NEffectUpdateDecorator@@QAPAV12@AAV?$allocator@PAVCHeaderDecorator@NEffectUpdateDecorator@@@0@@Z ; std::_Destroy_range<std::allocator<NEffectUpdateDecorator::CHeaderDecorator *> >
PUBLIC	??$_Destroy_range@V?$allocator@PAVCNullDecorator@NEffectUpdateDecorator@@@std@@@std@@YAXPAPAVCNullDecorator@NEffectUpdateDecorator@@QAPAV12@AAV?$allocator@PAVCNullDecorator@NEffectUpdateDecorator@@@0@@Z ; std::_Destroy_range<std::allocator<NEffectUpdateDecorator::CNullDecorator *> >
PUBLIC	??$_Destroy_range@V?$allocator@PAVCTextureAnimationCWDecorator@NEffectUpdateDecorator@@@std@@@std@@YAXPAPAVCTextureAnimationCWDecorator@NEffectUpdateDecorator@@QAPAV12@AAV?$allocator@PAVCTextureAnimationCWDecorator@NEffectUpdateDecorator@@@0@@Z ; std::_Destroy_range<std::allocator<NEffectUpdateDecorator::CTextureAnimationCWDecorator *> >
PUBLIC	??$_Destroy_range@V?$allocator@PAVCTextureAnimationCCWDecorator@NEffectUpdateDecorator@@@std@@@std@@YAXPAPAVCTextureAnimationCCWDecorator@NEffectUpdateDecorator@@QAPAV12@AAV?$allocator@PAVCTextureAnimationCCWDecorator@NEffectUpdateDecorator@@@0@@Z ; std::_Destroy_range<std::allocator<NEffectUpdateDecorator::CTextureAnimationCCWDecorator *> >
PUBLIC	??$_Destroy_range@V?$allocator@PAVCTextureAnimationRandomDecorator@NEffectUpdateDecorator@@@std@@@std@@YAXPAPAVCTextureAnimationRandomDecorator@NEffectUpdateDecorator@@QAPAV12@AAV?$allocator@PAVCTextureAnimationRandomDecorator@NEffectUpdateDecorator@@@0@@Z ; std::_Destroy_range<std::allocator<NEffectUpdateDecorator::CTextureAnimationRandomDecorator *> >
PUBLIC	??$_Destroy_range@V?$allocator@PAVCAirResistanceDecorator@NEffectUpdateDecorator@@@std@@@std@@YAXPAPAVCAirResistanceDecorator@NEffectUpdateDecorator@@QAPAV12@AAV?$allocator@PAVCAirResistanceDecorator@NEffectUpdateDecorator@@@0@@Z ; std::_Destroy_range<std::allocator<NEffectUpdateDecorator::CAirResistanceDecorator *> >
PUBLIC	??$_Destroy_range@V?$allocator@PAVCGravityDecorator@NEffectUpdateDecorator@@@std@@@std@@YAXPAPAVCGravityDecorator@NEffectUpdateDecorator@@QAPAV12@AAV?$allocator@PAVCGravityDecorator@NEffectUpdateDecorator@@@0@@Z ; std::_Destroy_range<std::allocator<NEffectUpdateDecorator::CGravityDecorator *> >
PUBLIC	??$_Destroy_range@V?$allocator@PAVCRotationDecorator@NEffectUpdateDecorator@@@std@@@std@@YAXPAPAVCRotationDecorator@NEffectUpdateDecorator@@QAPAV12@AAV?$allocator@PAVCRotationDecorator@NEffectUpdateDecorator@@@0@@Z ; std::_Destroy_range<std::allocator<NEffectUpdateDecorator::CRotationDecorator *> >
PUBLIC	??$?8DU?$char_traits@D@std@@V?$allocator@D@1@@std@@YA_NQBDABV?$basic_string@DU?$char_traits@D@std@@V?$allocator@D@2@@0@@Z ; std::operator==<char,std::char_traits<char>,std::allocator<char> >
PUBLIC	??$_Deallocate_plain@V?$allocator@U_Container_proxy@std@@@std@@@std@@YAXAAV?$allocator@U_Container_proxy@std@@@0@QAU_Container_proxy@0@@Z ; std::_Deallocate_plain<std::allocator<std::_Container_proxy> >
PUBLIC	??$_Construct_in_place@U_Container_proxy@std@@PAU_Container_base12@2@@std@@YAXAAU_Container_proxy@0@$$QAPAU_Container_base12@0@@Z ; std::_Construct_in_place<std::_Container_proxy,std::_Container_base12 *>
PUBLIC	??_ECPythonNetworkStream@@WHM@AEPAXI@Z		; [thunk]:CPythonNetworkStream::`vector deleting destructor'
PUBLIC	?_OptionsStorage@?1??__local_stdio_printf_options@@9@4_KA ; `__local_stdio_printf_options'::`2'::_OptionsStorage
PUBLIC	??_7exception@std@@6B@				; std::exception::`vftable'
PUBLIC	??_C@_0BC@EOODALEL@Unknown?5exception@		; `string'
PUBLIC	??_7bad_alloc@std@@6B@				; std::bad_alloc::`vftable'
PUBLIC	??_7bad_array_new_length@std@@6B@		; std::bad_array_new_length::`vftable'
PUBLIC	??_C@_0BF@KINCDENJ@bad?5array?5new?5length@	; `string'
PUBLIC	__TI3?AVbad_array_new_length@std@@
PUBLIC	__CTA3?AVbad_array_new_length@std@@
PUBLIC	??_R0?AVbad_array_new_length@std@@@8		; std::bad_array_new_length `RTTI Type Descriptor'
PUBLIC	__CT??_R0?AVbad_array_new_length@std@@@8??0bad_array_new_length@std@@QAE@ABV01@@Z12
PUBLIC	??_R0?AVbad_alloc@std@@@8			; std::bad_alloc `RTTI Type Descriptor'
PUBLIC	__CT??_R0?AVbad_alloc@std@@@8??0bad_alloc@std@@QAE@ABV01@@Z12
PUBLIC	??_R0?AVexception@std@@@8			; std::exception `RTTI Type Descriptor'
PUBLIC	__CT??_R0?AVexception@std@@@8??0exception@std@@QAE@ABV01@@Z12
PUBLIC	??_C@_0BA@JFNIOLAK@string?5too?5long@		; `string'
PUBLIC	??_C@_00CNPNBAHC@@				; `string'
PUBLIC	??_R4exception@std@@6B@				; std::exception::`RTTI Complete Object Locator'
PUBLIC	??_R3exception@std@@8				; std::exception::`RTTI Class Hierarchy Descriptor'
PUBLIC	??_R2exception@std@@8				; std::exception::`RTTI Base Class Array'
PUBLIC	??_R1A@?0A@EA@exception@std@@8			; std::exception::`RTTI Base Class Descriptor at (0,-1,0,64)'
PUBLIC	??_R4bad_alloc@std@@6B@				; std::bad_alloc::`RTTI Complete Object Locator'
PUBLIC	??_R3bad_alloc@std@@8				; std::bad_alloc::`RTTI Class Hierarchy Descriptor'
PUBLIC	??_R2bad_alloc@std@@8				; std::bad_alloc::`RTTI Base Class Array'
PUBLIC	??_R1A@?0A@EA@bad_alloc@std@@8			; std::bad_alloc::`RTTI Base Class Descriptor at (0,-1,0,64)'
PUBLIC	??_R4bad_array_new_length@std@@6B@		; std::bad_array_new_length::`RTTI Complete Object Locator'
PUBLIC	??_R3bad_array_new_length@std@@8		; std::bad_array_new_length::`RTTI Class Hierarchy Descriptor'
PUBLIC	??_R2bad_array_new_length@std@@8		; std::bad_array_new_length::`RTTI Base Class Array'
PUBLIC	??_R1A@?0A@EA@bad_array_new_length@std@@8	; std::bad_array_new_length::`RTTI Base Class Descriptor at (0,-1,0,64)'
PUBLIC	?ms_singleton@?$CSingleton@VCPythonNetworkStream@@@@0PAVCPythonNetworkStream@@A ; CSingleton<CPythonNetworkStream>::ms_singleton
PUBLIC	??_7?$CSingleton@VCPythonNetworkStream@@@@6B@	; CSingleton<CPythonNetworkStream>::`vftable'
PUBLIC	??_7?$CFuncObject@VCPythonNetworkStream@@@@6B@	; CFuncObject<CPythonNetworkStream>::`vftable'
PUBLIC	??_7CPythonNetworkStream@@6BCNetworkStream@@@	; CPythonNetworkStream::`vftable'
PUBLIC	??_7CPythonNetworkStream@@6B?$CSingleton@VCPythonNetworkStream@@@@@ ; CPythonNetworkStream::`vftable'
PUBLIC	?ms_kPool@?$CPooledObject@VCHeaderDecorator@NEffectUpdateDecorator@@@@1V?$CDynamicPoolEx@VCHeaderDecorator@NEffectUpdateDecorator@@@@A ; CPooledObject<NEffectUpdateDecorator::CHeaderDecorator>::ms_kPool
PUBLIC	?ms_kPool@?$CPooledObject@VCNullDecorator@NEffectUpdateDecorator@@@@1V?$CDynamicPoolEx@VCNullDecorator@NEffectUpdateDecorator@@@@A ; CPooledObject<NEffectUpdateDecorator::CNullDecorator>::ms_kPool
PUBLIC	?ms_kPool@?$CPooledObject@VCTextureAnimationCWDecorator@NEffectUpdateDecorator@@@@1V?$CDynamicPoolEx@VCTextureAnimationCWDecorator@NEffectUpdateDecorator@@@@A ; CPooledObject<NEffectUpdateDecorator::CTextureAnimationCWDecorator>::ms_kPool
PUBLIC	?ms_kPool@?$CPooledObject@VCTextureAnimationCCWDecorator@NEffectUpdateDecorator@@@@1V?$CDynamicPoolEx@VCTextureAnimationCCWDecorator@NEffectUpdateDecorator@@@@A ; CPooledObject<NEffectUpdateDecorator::CTextureAnimationCCWDecorator>::ms_kPool
PUBLIC	?ms_kPool@?$CPooledObject@VCTextureAnimationRandomDecorator@NEffectUpdateDecorator@@@@1V?$CDynamicPoolEx@VCTextureAnimationRandomDecorator@NEffectUpdateDecorator@@@@A ; CPooledObject<NEffectUpdateDecorator::CTextureAnimationRandomDecorator>::ms_kPool
PUBLIC	?ms_kPool@?$CPooledObject@VCAirResistanceDecorator@NEffectUpdateDecorator@@@@1V?$CDynamicPoolEx@VCAirResistanceDecorator@NEffectUpdateDecorator@@@@A ; CPooledObject<NEffectUpdateDecorator::CAirResistanceDecorator>::ms_kPool
PUBLIC	?ms_kPool@?$CPooledObject@VCGravityDecorator@NEffectUpdateDecorator@@@@1V?$CDynamicPoolEx@VCGravityDecorator@NEffectUpdateDecorator@@@@A ; CPooledObject<NEffectUpdateDecorator::CGravityDecorator>::ms_kPool
PUBLIC	?ms_kPool@?$CPooledObject@VCRotationDecorator@NEffectUpdateDecorator@@@@1V?$CDynamicPoolEx@VCRotationDecorator@NEffectUpdateDecorator@@@@A ; CPooledObject<NEffectUpdateDecorator::CRotationDecorator>::ms_kPool
PUBLIC	?ms_singleton@?$singleton@VCGuildMarkManager@@@@0PAVCGuildMarkManager@@A ; singleton<CGuildMarkManager>::ms_singleton
PUBLIC	?ms_singleton@?$CSingleton@VCGuildMarkDownloader@@@@0PAVCGuildMarkDownloader@@A ; CSingleton<CGuildMarkDownloader>::ms_singleton
PUBLIC	?ms_singleton@?$CSingleton@VCGuildMarkUploader@@@@0PAVCGuildMarkUploader@@A ; CSingleton<CGuildMarkUploader>::ms_singleton
PUBLIC	??_7CMainPacketHeaderMap@@6B@			; CMainPacketHeaderMap::`vftable'
PUBLIC	??_C@_05CMMBDMDD@?1quit@			; `string'
PUBLIC	??_C@_0O@ODIJHOCP@?1phase_select@		; `string'
PUBLIC	??_C@_07FOABJBDD@?1logout@			; `string'
PUBLIC	??_C@_0M@PCENNPGA@?$CFd?4?$CFd?4?$CFd?4?$CFd@	; `string'
PUBLIC	??_C@_0CH@LALGPME@Unknown?5packet?5header?3?5?$CFd?0?5last@ ; `string'
PUBLIC	??_C@_0FP@JGOINIOH@CPythonNetworkStream?3?3CheckPack@ ; `string'
PUBLIC	??_C@_0EA@JMANDMEJ@Phase?5?$CFs?5does?5not?5handle?5this?5h@ ; `string'
PUBLIC	??_C@_0CF@JLNGLGD@recv?5ping?5packet?4?5?$CIsecuritymode@ ; `string'
PUBLIC	??_C@_0CG@IOPHKJBJ@?C?$LD?$LI?$KO?$LF?G?A?v?5?$LO?J?$MA?$LK?5?F?P?E?$LG?5?G?l?$LE?u?5?$CFd?0?5sta@ ; `string'
PUBLIC	??_C@_02HCKGKOFO@?$CI?$CJ@			; `string'
PUBLIC	??_C@_0N@HHLEGKEL@SetGamePhase@			; `string'
PUBLIC	??_C@_07NNEFBBEG@OffLine@			; `string'
PUBLIC	??_C@_0BO@NMFMGDDG@?$CD?$CD?5Network?5?9?5OffLine?5Phase?5?$CD?$CD@ ; `string'
PUBLIC	??_C@_0O@PJEEOCNO@SetLoginPhase@		; `string'
PUBLIC	??_C@_0P@MDCECFOM@OBSERVER_COUNT@		; `string'
PUBLIC	??_C@_0O@FEJHKOEO@BETTING_MONEY@		; `string'
PUBLIC	??_C@_0BO@OMGIOKNA@PythonNetworkMainStream?5Clear@ ; `string'
PUBLIC	??_R4CPythonNetworkStream@@6BCNetworkStream@@@	; CPythonNetworkStream::`RTTI Complete Object Locator'
PUBLIC	??_R0?AVCPythonNetworkStream@@@8		; CPythonNetworkStream `RTTI Type Descriptor'
PUBLIC	??_R3CPythonNetworkStream@@8			; CPythonNetworkStream::`RTTI Class Hierarchy Descriptor'
PUBLIC	??_R2CPythonNetworkStream@@8			; CPythonNetworkStream::`RTTI Base Class Array'
PUBLIC	??_R1A@?0A@EA@CPythonNetworkStream@@8		; CPythonNetworkStream::`RTTI Base Class Descriptor at (0,-1,0,64)'
PUBLIC	??_R1A@?0A@EA@CNetworkStream@@8			; CNetworkStream::`RTTI Base Class Descriptor at (0,-1,0,64)'
PUBLIC	??_R0?AVCNetworkStream@@@8			; CNetworkStream `RTTI Type Descriptor'
PUBLIC	??_R3CNetworkStream@@8				; CNetworkStream::`RTTI Class Hierarchy Descriptor'
PUBLIC	??_R2CNetworkStream@@8				; CNetworkStream::`RTTI Base Class Array'
PUBLIC	??_R1HM@?0A@EA@?$CSingleton@VCPythonNetworkStream@@@@8 ; CSingleton<CPythonNetworkStream>::`RTTI Base Class Descriptor at (124,-1,0,64)'
PUBLIC	??_R0?AV?$CSingleton@VCPythonNetworkStream@@@@@8 ; CSingleton<CPythonNetworkStream> `RTTI Type Descriptor'
PUBLIC	??_R3?$CSingleton@VCPythonNetworkStream@@@@8	; CSingleton<CPythonNetworkStream>::`RTTI Class Hierarchy Descriptor'
PUBLIC	??_R2?$CSingleton@VCPythonNetworkStream@@@@8	; CSingleton<CPythonNetworkStream>::`RTTI Base Class Array'
PUBLIC	??_R1A@?0A@EA@?$CSingleton@VCPythonNetworkStream@@@@8 ; CSingleton<CPythonNetworkStream>::`RTTI Base Class Descriptor at (0,-1,0,64)'
PUBLIC	??_R4CPythonNetworkStream@@6B?$CSingleton@VCPythonNetworkStream@@@@@ ; CPythonNetworkStream::`RTTI Complete Object Locator'
PUBLIC	??_R4?$CSingleton@VCPythonNetworkStream@@@@6B@	; CSingleton<CPythonNetworkStream>::`RTTI Complete Object Locator'
PUBLIC	??_R4?$CFuncObject@VCPythonNetworkStream@@@@6B@	; CFuncObject<CPythonNetworkStream>::`RTTI Complete Object Locator'
PUBLIC	??_R0?AV?$CFuncObject@VCPythonNetworkStream@@@@@8 ; CFuncObject<CPythonNetworkStream> `RTTI Type Descriptor'
PUBLIC	??_R3?$CFuncObject@VCPythonNetworkStream@@@@8	; CFuncObject<CPythonNetworkStream>::`RTTI Class Hierarchy Descriptor'
PUBLIC	??_R2?$CFuncObject@VCPythonNetworkStream@@@@8	; CFuncObject<CPythonNetworkStream>::`RTTI Base Class Array'
PUBLIC	??_R1A@?0A@EA@?$CFuncObject@VCPythonNetworkStream@@@@8 ; CFuncObject<CPythonNetworkStream>::`RTTI Base Class Descriptor at (0,-1,0,64)'
PUBLIC	??_R4CMainPacketHeaderMap@@6B@			; CMainPacketHeaderMap::`RTTI Complete Object Locator'
PUBLIC	??_R0?AVCMainPacketHeaderMap@@@8		; CMainPacketHeaderMap `RTTI Type Descriptor'
PUBLIC	??_R3CMainPacketHeaderMap@@8			; CMainPacketHeaderMap::`RTTI Class Hierarchy Descriptor'
PUBLIC	??_R2CMainPacketHeaderMap@@8			; CMainPacketHeaderMap::`RTTI Base Class Array'
PUBLIC	??_R1A@?0A@EA@CMainPacketHeaderMap@@8		; CMainPacketHeaderMap::`RTTI Base Class Descriptor at (0,-1,0,64)'
PUBLIC	??_R1A@?0A@EA@CNetworkPacketHeaderMap@@8	; CNetworkPacketHeaderMap::`RTTI Base Class Descriptor at (0,-1,0,64)'
PUBLIC	??_R0?AVCNetworkPacketHeaderMap@@@8		; CNetworkPacketHeaderMap `RTTI Type Descriptor'
PUBLIC	??_R3CNetworkPacketHeaderMap@@8			; CNetworkPacketHeaderMap::`RTTI Class Hierarchy Descriptor'
PUBLIC	??_R2CNetworkPacketHeaderMap@@8			; CNetworkPacketHeaderMap::`RTTI Base Class Array'
EXTRN	??_L@YGXPAXIIP6EX0@Z1@Z:PROC			; `eh vector constructor iterator'
EXTRN	??_M@YGXPAXIIP6EX0@Z@Z:PROC			; `eh vector destructor iterator'
EXTRN	??2@YAPAXI@Z:PROC				; operator new
EXTRN	??3@YAXPAX@Z:PROC				; operator delete
EXTRN	??3@YAXPAXI@Z:PROC				; operator delete
EXTRN	_atexit:PROC
EXTRN	__Init_thread_header:PROC
EXTRN	__Init_thread_abort:PROC
EXTRN	__Init_thread_footer:PROC
EXTRN	___std_terminate:PROC
EXTRN	__invalid_parameter_noinfo_noreturn:PROC
EXTRN	__stricmp:PROC
EXTRN	__imp__PostQuitMessage@4:PROC
EXTRN	___stdio_common_vsprintf:PROC
EXTRN	___std_exception_copy:PROC
EXTRN	___std_exception_destroy:PROC
EXTRN	??_Eexception@std@@UAEPAXI@Z:PROC		; std::exception::`vector deleting destructor'
EXTRN	??_Ebad_alloc@std@@UAEPAXI@Z:PROC		; std::bad_alloc::`vector deleting destructor'
EXTRN	??_Ebad_array_new_length@std@@UAEPAXI@Z:PROC	; std::bad_array_new_length::`vector deleting destructor'
EXTRN	?_Xlength_error@std@@YAXPBD@Z:PROC		; std::_Xlength_error
EXTRN	?Tracen@@YAXPBD@Z:PROC				; Tracen
EXTRN	?Tracef@@YAXPBDZZ:PROC				; Tracef
EXTRN	?TraceError@@YAXPBDZZ:PROC			; TraceError
EXTRN	__imp__Py_BuildValue:PROC
EXTRN	?PyCallClassMemberFunc@@YA_NPAU_object@@PBD0@Z:PROC ; PyCallClassMemberFunc
EXTRN	?ELTimer_GetMSec@@YAKXZ:PROC			; ELTimer_GetMSec
EXTRN	?AddReference@CReferenceObject@@QAEXXZ:PROC	; CReferenceObject::AddReference
EXTRN	?Release@CReferenceObject@@QAEXXZ:PROC		; CReferenceObject::Release
EXTRN	??0CNetworkPacketHeaderMap@@QAE@XZ:PROC		; CNetworkPacketHeaderMap::CNetworkPacketHeaderMap
EXTRN	??1CNetworkPacketHeaderMap@@UAE@XZ:PROC		; CNetworkPacketHeaderMap::~CNetworkPacketHeaderMap
EXTRN	?Set@CNetworkPacketHeaderMap@@QAEXHAAUSPacketType@1@@Z:PROC ; CNetworkPacketHeaderMap::Set
EXTRN	?Get@CNetworkPacketHeaderMap@@QAE_NHPAUSPacketType@1@@Z:PROC ; CNetworkPacketHeaderMap::Get
EXTRN	??0CNetworkAddress@@QAE@XZ:PROC			; CNetworkAddress::CNetworkAddress
EXTRN	??1CNetworkAddress@@QAE@XZ:PROC			; CNetworkAddress::~CNetworkAddress
EXTRN	?Set@CNetworkAddress@@QAE_NPBDH@Z:PROC		; CNetworkAddress::Set
EXTRN	??0CNetworkStream@@QAE@XZ:PROC			; CNetworkStream::CNetworkStream
EXTRN	??1CNetworkStream@@UAE@XZ:PROC			; CNetworkStream::~CNetworkStream
EXTRN	?IsSecurityMode@CNetworkStream@@QAE_NXZ:PROC	; CNetworkStream::IsSecurityMode
EXTRN	?ClearRecvBuffer@CNetworkStream@@QAEXXZ:PROC	; CNetworkStream::ClearRecvBuffer
EXTRN	?Connect@CNetworkStream@@QAE_NPBDHH@Z:PROC	; CNetworkStream::Connect
EXTRN	?Connect@CNetworkStream@@QAE_NKHH@Z:PROC	; CNetworkStream::Connect
EXTRN	?Disconnect@CNetworkStream@@QAEXXZ:PROC		; CNetworkStream::Disconnect
EXTRN	?Peek@CNetworkStream@@QAE_NH@Z:PROC		; CNetworkStream::Peek
EXTRN	?Peek@CNetworkStream@@QAE_NHPAX@Z:PROC		; CNetworkStream::Peek
EXTRN	?Recv@CNetworkStream@@QAE_NHPAX@Z:PROC		; CNetworkStream::Recv
EXTRN	?Send@CNetworkStream@@QAE_NHPBX@Z:PROC		; CNetworkStream::Send
EXTRN	?IsOnline@CNetworkStream@@QAE_NXZ:PROC		; CNetworkStream::IsOnline
EXTRN	?SendSequence@CNetworkStream@@QAE_NXZ:PROC	; CNetworkStream::SendSequence
EXTRN	?OnConnectSuccess@CNetworkStream@@MAEXXZ:PROC	; CNetworkStream::OnConnectSuccess
EXTRN	??0CInsultChecker@@QAE@XZ:PROC			; CInsultChecker::CInsultChecker
EXTRN	??1CInsultChecker@@UAE@XZ:PROC			; CInsultChecker::~CInsultChecker
EXTRN	??_E?$CSingleton@VCPythonNetworkStream@@@@UAEPAXI@Z:PROC ; CSingleton<CPythonNetworkStream>::`vector deleting destructor'
EXTRN	?SetHandShakePhase@CPythonNetworkStream@@QAEXXZ:PROC ; CPythonNetworkStream::SetHandShakePhase
EXTRN	?SetLoginPhase@CPythonNetworkStream@@QAEXXZ:PROC ; CPythonNetworkStream::SetLoginPhase
EXTRN	?SetSelectPhase@CPythonNetworkStream@@QAEXXZ:PROC ; CPythonNetworkStream::SetSelectPhase
EXTRN	?SetLoadingPhase@CPythonNetworkStream@@QAEXXZ:PROC ; CPythonNetworkStream::SetLoadingPhase
EXTRN	?SetGamePhase@CPythonNetworkStream@@QAEXXZ:PROC	; CPythonNetworkStream::SetGamePhase
EXTRN	?SendChatPacket@CPythonNetworkStream@@QAE_NPBDE@Z:PROC ; CPythonNetworkStream::SendChatPacket
EXTRN	?OffLinePhase@CPythonNetworkStream@@IAEXXZ:PROC	; CPythonNetworkStream::OffLinePhase
EXTRN	?OnConnectFailure@CPythonNetworkStream@@MAEXXZ:PROC ; CPythonNetworkStream::OnConnectFailure
EXTRN	?OnRemoteDisconnect@CPythonNetworkStream@@MAEXXZ:PROC ; CPythonNetworkStream::OnRemoteDisconnect
EXTRN	?OnDisconnect@CPythonNetworkStream@@MAEXXZ:PROC	; CPythonNetworkStream::OnDisconnect
EXTRN	?__InitializeGamePhase@CPythonNetworkStream@@IAEXXZ:PROC ; CPythonNetworkStream::__InitializeGamePhase
EXTRN	??_E?$CFuncObject@VCPythonNetworkStream@@@@UAEPAXI@Z:PROC ; CFuncObject<CPythonNetworkStream>::`vector deleting destructor'
EXTRN	??_ECPythonNetworkStream@@UAEPAXI@Z:PROC	; CPythonNetworkStream::`vector deleting destructor'
EXTRN	??0CNetworkActorManager@@QAE@XZ:PROC		; CNetworkActorManager::CNetworkActorManager
EXTRN	?Update@CNetworkActorManager@@QAEXXZ:PROC	; CNetworkActorManager::Update
EXTRN	?GetMarkID@CGuildMarkManager@@QAEKK@Z:PROC	; CGuildMarkManager::GetMarkID
EXTRN	?Connect@CGuildMarkDownloader@@QAE_NABVCNetworkAddress@@KK@Z:PROC ; CGuildMarkDownloader::Connect
EXTRN	?ConnectToRecvSymbol@CGuildMarkDownloader@@QAE_NABVCNetworkAddress@@KKABV?$vector@KV?$allocator@K@std@@@std@@@Z:PROC ; CGuildMarkDownloader::ConnectToRecvSymbol
EXTRN	?Connect@CGuildMarkUploader@@QAE_NABVCNetworkAddress@@KKKPBDPAI@Z:PROC ; CGuildMarkUploader::Connect
EXTRN	?ConnectToSendSymbol@CGuildMarkUploader@@QAE_NABVCNetworkAddress@@KKKPBDPAI@Z:PROC ; CGuildMarkUploader::ConnectToSendSymbol
EXTRN	?BuildProcessCRC@@YAXXZ:PROC			; BuildProcessCRC
EXTRN	??_ECMainPacketHeaderMap@@UAEPAXI@Z:PROC	; CMainPacketHeaderMap::`vector deleting destructor'
EXTRN	@__security_check_cookie@4:PROC
EXTRN	__CxxThrowException@8:PROC
EXTRN	___CxxFrameHandler3:PROC
EXTRN	_memcpy:PROC
EXTRN	_memmove:PROC
EXTRN	_memset:PROC
EXTRN	__Init_thread_epoch:DWORD
EXTRN	___security_cookie:DWORD
EXTRN	__tls_array:DWORD
EXTRN	__tls_index:DWORD
;	COMDAT ?_OptionsStorage@?1??__local_stdio_printf_options@@9@4_KA
_BSS	SEGMENT
?_OptionsStorage@?1??__local_stdio_printf_options@@9@4_KA DQ 01H DUP (?) ; `__local_stdio_printf_options'::`2'::_OptionsStorage
_BSS	ENDS
;	COMDAT ?ms_singleton@?$CSingleton@VCPythonNetworkStream@@@@0PAVCPythonNetworkStream@@A
_BSS	SEGMENT
?ms_singleton@?$CSingleton@VCPythonNetworkStream@@@@0PAVCPythonNetworkStream@@A DD 01H DUP (?) ; CSingleton<CPythonNetworkStream>::ms_singleton
_BSS	ENDS
;	COMDAT ?ms_singleton@?$singleton@VCGuildMarkManager@@@@0PAVCGuildMarkManager@@A
_BSS	SEGMENT
?ms_singleton@?$singleton@VCGuildMarkManager@@@@0PAVCGuildMarkManager@@A DD 01H DUP (?) ; singleton<CGuildMarkManager>::ms_singleton
_BSS	ENDS
;	COMDAT ?ms_singleton@?$CSingleton@VCGuildMarkDownloader@@@@0PAVCGuildMarkDownloader@@A
_BSS	SEGMENT
?ms_singleton@?$CSingleton@VCGuildMarkDownloader@@@@0PAVCGuildMarkDownloader@@A DD 01H DUP (?) ; CSingleton<CGuildMarkDownloader>::ms_singleton
_BSS	ENDS
;	COMDAT ?ms_singleton@?$CSingleton@VCGuildMarkUploader@@@@0PAVCGuildMarkUploader@@A
_BSS	SEGMENT
?ms_singleton@?$CSingleton@VCGuildMarkUploader@@@@0PAVCGuildMarkUploader@@A DD 01H DUP (?) ; CSingleton<CGuildMarkUploader>::ms_singleton
_BSS	ENDS
_BSS	SEGMENT
?gs_nextDownloadMarkTime@@3KA DD 01H DUP (?)		; gs_nextDownloadMarkTime
_BSS	ENDS
;	COMDAT ?s_szAddr@?6??GetAccountCharacterSlotDataz@CPythonNetworkStream@@QAEPBDII@Z@4PADA
_BSS	SEGMENT
?s_szAddr@?6??GetAccountCharacterSlotDataz@CPythonNetworkStream@@QAEPBDII@Z@4PADA DB 0100H DUP (?) ; `CPythonNetworkStream::GetAccountCharacterSlotDataz'::`7'::s_szAddr
_BSS	ENDS
;	COMDAT ?s_packetHeaderMap@?1??CheckPacket@CPythonNetworkStream@@IAE_NPAE@Z@4VCMainPacketHeaderMap@@A
_BSS	SEGMENT
?s_packetHeaderMap@?1??CheckPacket@CPythonNetworkStream@@IAE_NPAE@Z@4VCMainPacketHeaderMap@@A DB 0cH DUP (?) ; `CPythonNetworkStream::CheckPacket'::`2'::s_packetHeaderMap
_BSS	ENDS
;	COMDAT ?$TSS0@?1??CheckPacket@CPythonNetworkStream@@IAE_NPAE@Z@4HA
_BSS	SEGMENT
?$TSS0@?1??CheckPacket@CPythonNetworkStream@@IAE_NPAE@Z@4HA DD 01H DUP (?) ; `CPythonNetworkStream::CheckPacket'::`2'::$TSS0
_BSS	ENDS
;	COMDAT CRT$XCU
CRT$XCU	SEGMENT
??ms_kPool$initializer$@?$CPooledObject@VCHeaderDecorator@NEffectUpdateDecorator@@@@1P6AXXZA@@3P6AXXZA DD FLAT:??__E?ms_kPool@?$CPooledObject@VCHeaderDecorator@NEffectUpdateDecorator@@@@1V?$CDynamicPoolEx@VCHeaderDecorator@NEffectUpdateDecorator@@@@A@@YAXXZ ; ??ms_kPool$initializer$@?$CPooledObject@VCHeaderDecorator@NEffectUpdateDecorator@@@@1P6AXXZA@@3P6AXXZA
CRT$XCU	ENDS
;	COMDAT ??_R2CNetworkPacketHeaderMap@@8
rdata$r	SEGMENT
??_R2CNetworkPacketHeaderMap@@8 DD FLAT:??_R1A@?0A@EA@CNetworkPacketHeaderMap@@8 ; CNetworkPacketHeaderMap::`RTTI Base Class Array'
rdata$r	ENDS
;	COMDAT ??_R3CNetworkPacketHeaderMap@@8
rdata$r	SEGMENT
??_R3CNetworkPacketHeaderMap@@8 DD 00H			; CNetworkPacketHeaderMap::`RTTI Class Hierarchy Descriptor'
	DD	00H
	DD	01H
	DD	FLAT:??_R2CNetworkPacketHeaderMap@@8
rdata$r	ENDS
;	COMDAT ??_R0?AVCNetworkPacketHeaderMap@@@8
data$rs	SEGMENT
??_R0?AVCNetworkPacketHeaderMap@@@8 DD FLAT:??_7type_info@@6B@ ; CNetworkPacketHeaderMap `RTTI Type Descriptor'
	DD	00H
	DB	'.?AVCNetworkPacketHeaderMap@@', 00H
data$rs	ENDS
;	COMDAT ??_R1A@?0A@EA@CNetworkPacketHeaderMap@@8
rdata$r	SEGMENT
??_R1A@?0A@EA@CNetworkPacketHeaderMap@@8 DD FLAT:??_R0?AVCNetworkPacketHeaderMap@@@8 ; CNetworkPacketHeaderMap::`RTTI Base Class Descriptor at (0,-1,0,64)'
	DD	00H
	DD	00H
	DD	0ffffffffH
	DD	00H
	DD	040H
	DD	FLAT:??_R3CNetworkPacketHeaderMap@@8
rdata$r	ENDS
;	COMDAT ??_R1A@?0A@EA@CMainPacketHeaderMap@@8
rdata$r	SEGMENT
??_R1A@?0A@EA@CMainPacketHeaderMap@@8 DD FLAT:??_R0?AVCMainPacketHeaderMap@@@8 ; CMainPacketHeaderMap::`RTTI Base Class Descriptor at (0,-1,0,64)'
	DD	01H
	DD	00H
	DD	0ffffffffH
	DD	00H
	DD	040H
	DD	FLAT:??_R3CMainPacketHeaderMap@@8
rdata$r	ENDS
;	COMDAT ??_R2CMainPacketHeaderMap@@8
rdata$r	SEGMENT
??_R2CMainPacketHeaderMap@@8 DD FLAT:??_R1A@?0A@EA@CMainPacketHeaderMap@@8 ; CMainPacketHeaderMap::`RTTI Base Class Array'
	DD	FLAT:??_R1A@?0A@EA@CNetworkPacketHeaderMap@@8
rdata$r	ENDS
;	COMDAT ??_R3CMainPacketHeaderMap@@8
rdata$r	SEGMENT
??_R3CMainPacketHeaderMap@@8 DD 00H			; CMainPacketHeaderMap::`RTTI Class Hierarchy Descriptor'
	DD	00H
	DD	02H
	DD	FLAT:??_R2CMainPacketHeaderMap@@8
rdata$r	ENDS
;	COMDAT ??_R0?AVCMainPacketHeaderMap@@@8
data$rs	SEGMENT
??_R0?AVCMainPacketHeaderMap@@@8 DD FLAT:??_7type_info@@6B@ ; CMainPacketHeaderMap `RTTI Type Descriptor'
	DD	00H
	DB	'.?AVCMainPacketHeaderMap@@', 00H
data$rs	ENDS
;	COMDAT ??_R4CMainPacketHeaderMap@@6B@
rdata$r	SEGMENT
??_R4CMainPacketHeaderMap@@6B@ DD 00H			; CMainPacketHeaderMap::`RTTI Complete Object Locator'
	DD	00H
	DD	00H
	DD	FLAT:??_R0?AVCMainPacketHeaderMap@@@8
	DD	FLAT:??_R3CMainPacketHeaderMap@@8
rdata$r	ENDS
;	COMDAT ??_R1A@?0A@EA@?$CFuncObject@VCPythonNetworkStream@@@@8
rdata$r	SEGMENT
??_R1A@?0A@EA@?$CFuncObject@VCPythonNetworkStream@@@@8 DD FLAT:??_R0?AV?$CFuncObject@VCPythonNetworkStream@@@@@8 ; CFuncObject<CPythonNetworkStream>::`RTTI Base Class Descriptor at (0,-1,0,64)'
	DD	00H
	DD	00H
	DD	0ffffffffH
	DD	00H
	DD	040H
	DD	FLAT:??_R3?$CFuncObject@VCPythonNetworkStream@@@@8
rdata$r	ENDS
;	COMDAT ??_R2?$CFuncObject@VCPythonNetworkStream@@@@8
rdata$r	SEGMENT
??_R2?$CFuncObject@VCPythonNetworkStream@@@@8 DD FLAT:??_R1A@?0A@EA@?$CFuncObject@VCPythonNetworkStream@@@@8 ; CFuncObject<CPythonNetworkStream>::`RTTI Base Class Array'
rdata$r	ENDS
;	COMDAT ??_R3?$CFuncObject@VCPythonNetworkStream@@@@8
rdata$r	SEGMENT
??_R3?$CFuncObject@VCPythonNetworkStream@@@@8 DD 00H	; CFuncObject<CPythonNetworkStream>::`RTTI Class Hierarchy Descriptor'
	DD	00H
	DD	01H
	DD	FLAT:??_R2?$CFuncObject@VCPythonNetworkStream@@@@8
rdata$r	ENDS
;	COMDAT ??_R0?AV?$CFuncObject@VCPythonNetworkStream@@@@@8
data$rs	SEGMENT
??_R0?AV?$CFuncObject@VCPythonNetworkStream@@@@@8 DD FLAT:??_7type_info@@6B@ ; CFuncObject<CPythonNetworkStream> `RTTI Type Descriptor'
	DD	00H
	DB	'.?AV?$CFuncObject@VCPythonNetworkStream@@@@', 00H
data$rs	ENDS
;	COMDAT ??_R4?$CFuncObject@VCPythonNetworkStream@@@@6B@
rdata$r	SEGMENT
??_R4?$CFuncObject@VCPythonNetworkStream@@@@6B@ DD 00H	; CFuncObject<CPythonNetworkStream>::`RTTI Complete Object Locator'
	DD	00H
	DD	00H
	DD	FLAT:??_R0?AV?$CFuncObject@VCPythonNetworkStream@@@@@8
	DD	FLAT:??_R3?$CFuncObject@VCPythonNetworkStream@@@@8
rdata$r	ENDS
;	COMDAT ??_R4?$CSingleton@VCPythonNetworkStream@@@@6B@
rdata$r	SEGMENT
??_R4?$CSingleton@VCPythonNetworkStream@@@@6B@ DD 00H	; CSingleton<CPythonNetworkStream>::`RTTI Complete Object Locator'
	DD	00H
	DD	00H
	DD	FLAT:??_R0?AV?$CSingleton@VCPythonNetworkStream@@@@@8
	DD	FLAT:??_R3?$CSingleton@VCPythonNetworkStream@@@@8
rdata$r	ENDS
;	COMDAT ??_R4CPythonNetworkStream@@6B?$CSingleton@VCPythonNetworkStream@@@@@
rdata$r	SEGMENT
??_R4CPythonNetworkStream@@6B?$CSingleton@VCPythonNetworkStream@@@@@ DD 00H ; CPythonNetworkStream::`RTTI Complete Object Locator'
	DD	07cH
	DD	00H
	DD	FLAT:??_R0?AVCPythonNetworkStream@@@8
	DD	FLAT:??_R3CPythonNetworkStream@@8
rdata$r	ENDS
;	COMDAT ??_R1A@?0A@EA@?$CSingleton@VCPythonNetworkStream@@@@8
rdata$r	SEGMENT
??_R1A@?0A@EA@?$CSingleton@VCPythonNetworkStream@@@@8 DD FLAT:??_R0?AV?$CSingleton@VCPythonNetworkStream@@@@@8 ; CSingleton<CPythonNetworkStream>::`RTTI Base Class Descriptor at (0,-1,0,64)'
	DD	00H
	DD	00H
	DD	0ffffffffH
	DD	00H
	DD	040H
	DD	FLAT:??_R3?$CSingleton@VCPythonNetworkStream@@@@8
rdata$r	ENDS
;	COMDAT ??_R2?$CSingleton@VCPythonNetworkStream@@@@8
rdata$r	SEGMENT
??_R2?$CSingleton@VCPythonNetworkStream@@@@8 DD FLAT:??_R1A@?0A@EA@?$CSingleton@VCPythonNetworkStream@@@@8 ; CSingleton<CPythonNetworkStream>::`RTTI Base Class Array'
rdata$r	ENDS
;	COMDAT ??_R3?$CSingleton@VCPythonNetworkStream@@@@8
rdata$r	SEGMENT
??_R3?$CSingleton@VCPythonNetworkStream@@@@8 DD 00H	; CSingleton<CPythonNetworkStream>::`RTTI Class Hierarchy Descriptor'
	DD	00H
	DD	01H
	DD	FLAT:??_R2?$CSingleton@VCPythonNetworkStream@@@@8
rdata$r	ENDS
;	COMDAT ??_R0?AV?$CSingleton@VCPythonNetworkStream@@@@@8
data$rs	SEGMENT
??_R0?AV?$CSingleton@VCPythonNetworkStream@@@@@8 DD FLAT:??_7type_info@@6B@ ; CSingleton<CPythonNetworkStream> `RTTI Type Descriptor'
	DD	00H
	DB	'.?AV?$CSingleton@VCPythonNetworkStream@@@@', 00H
data$rs	ENDS
;	COMDAT ??_R1HM@?0A@EA@?$CSingleton@VCPythonNetworkStream@@@@8
rdata$r	SEGMENT
??_R1HM@?0A@EA@?$CSingleton@VCPythonNetworkStream@@@@8 DD FLAT:??_R0?AV?$CSingleton@VCPythonNetworkStream@@@@@8 ; CSingleton<CPythonNetworkStream>::`RTTI Base Class Descriptor at (124,-1,0,64)'
	DD	00H
	DD	07cH
	DD	0ffffffffH
	DD	00H
	DD	040H
	DD	FLAT:??_R3?$CSingleton@VCPythonNetworkStream@@@@8
rdata$r	ENDS
;	COMDAT ??_R2CNetworkStream@@8
rdata$r	SEGMENT
??_R2CNetworkStream@@8 DD FLAT:??_R1A@?0A@EA@CNetworkStream@@8 ; CNetworkStream::`RTTI Base Class Array'
rdata$r	ENDS
;	COMDAT ??_R3CNetworkStream@@8
rdata$r	SEGMENT
??_R3CNetworkStream@@8 DD 00H				; CNetworkStream::`RTTI Class Hierarchy Descriptor'
	DD	00H
	DD	01H
	DD	FLAT:??_R2CNetworkStream@@8
rdata$r	ENDS
;	COMDAT ??_R0?AVCNetworkStream@@@8
data$rs	SEGMENT
??_R0?AVCNetworkStream@@@8 DD FLAT:??_7type_info@@6B@	; CNetworkStream `RTTI Type Descriptor'
	DD	00H
	DB	'.?AVCNetworkStream@@', 00H
data$rs	ENDS
;	COMDAT ??_R1A@?0A@EA@CNetworkStream@@8
rdata$r	SEGMENT
??_R1A@?0A@EA@CNetworkStream@@8 DD FLAT:??_R0?AVCNetworkStream@@@8 ; CNetworkStream::`RTTI Base Class Descriptor at (0,-1,0,64)'
	DD	00H
	DD	00H
	DD	0ffffffffH
	DD	00H
	DD	040H
	DD	FLAT:??_R3CNetworkStream@@8
rdata$r	ENDS
;	COMDAT ??_R1A@?0A@EA@CPythonNetworkStream@@8
rdata$r	SEGMENT
??_R1A@?0A@EA@CPythonNetworkStream@@8 DD FLAT:??_R0?AVCPythonNetworkStream@@@8 ; CPythonNetworkStream::`RTTI Base Class Descriptor at (0,-1,0,64)'
	DD	02H
	DD	00H
	DD	0ffffffffH
	DD	00H
	DD	040H
	DD	FLAT:??_R3CPythonNetworkStream@@8
rdata$r	ENDS
;	COMDAT ??_R2CPythonNetworkStream@@8
rdata$r	SEGMENT
??_R2CPythonNetworkStream@@8 DD FLAT:??_R1A@?0A@EA@CPythonNetworkStream@@8 ; CPythonNetworkStream::`RTTI Base Class Array'
	DD	FLAT:??_R1A@?0A@EA@CNetworkStream@@8
	DD	FLAT:??_R1HM@?0A@EA@?$CSingleton@VCPythonNetworkStream@@@@8
rdata$r	ENDS
;	COMDAT ??_R3CPythonNetworkStream@@8
rdata$r	SEGMENT
??_R3CPythonNetworkStream@@8 DD 00H			; CPythonNetworkStream::`RTTI Class Hierarchy Descriptor'
	DD	01H
	DD	03H
	DD	FLAT:??_R2CPythonNetworkStream@@8
rdata$r	ENDS
;	COMDAT ??_R0?AVCPythonNetworkStream@@@8
data$rs	SEGMENT
??_R0?AVCPythonNetworkStream@@@8 DD FLAT:??_7type_info@@6B@ ; CPythonNetworkStream `RTTI Type Descriptor'
	DD	00H
	DB	'.?AVCPythonNetworkStream@@', 00H
data$rs	ENDS
;	COMDAT ??_R4CPythonNetworkStream@@6BCNetworkStream@@@
rdata$r	SEGMENT
??_R4CPythonNetworkStream@@6BCNetworkStream@@@ DD 00H	; CPythonNetworkStream::`RTTI Complete Object Locator'
	DD	00H
	DD	00H
	DD	FLAT:??_R0?AVCPythonNetworkStream@@@8
	DD	FLAT:??_R3CPythonNetworkStream@@8
rdata$r	ENDS
;	COMDAT ??_C@_0BO@OMGIOKNA@PythonNetworkMainStream?5Clear@
CONST	SEGMENT
??_C@_0BO@OMGIOKNA@PythonNetworkMainStream?5Clear@ DB 'PythonNetworkMainS'
	DB	'tream Clear', 00H				; `string'
CONST	ENDS
;	COMDAT ??_C@_0O@FEJHKOEO@BETTING_MONEY@
CONST	SEGMENT
??_C@_0O@FEJHKOEO@BETTING_MONEY@ DB 'BETTING_MONEY', 00H ; `string'
CONST	ENDS
;	COMDAT ??_C@_0P@MDCECFOM@OBSERVER_COUNT@
CONST	SEGMENT
??_C@_0P@MDCECFOM@OBSERVER_COUNT@ DB 'OBSERVER_COUNT', 00H ; `string'
CONST	ENDS
;	COMDAT ??_C@_0O@PJEEOCNO@SetLoginPhase@
CONST	SEGMENT
??_C@_0O@PJEEOCNO@SetLoginPhase@ DB 'SetLoginPhase', 00H ; `string'
CONST	ENDS
;	COMDAT ??_C@_0BO@NMFMGDDG@?$CD?$CD?5Network?5?9?5OffLine?5Phase?5?$CD?$CD@
CONST	SEGMENT
??_C@_0BO@NMFMGDDG@?$CD?$CD?5Network?5?9?5OffLine?5Phase?5?$CD?$CD@ DB '#'
	DB	'# Network - OffLine Phase ##', 00H		; `string'
CONST	ENDS
;	COMDAT ??_C@_07NNEFBBEG@OffLine@
CONST	SEGMENT
??_C@_07NNEFBBEG@OffLine@ DB 'OffLine', 00H		; `string'
CONST	ENDS
;	COMDAT ??_C@_0N@HHLEGKEL@SetGamePhase@
CONST	SEGMENT
??_C@_0N@HHLEGKEL@SetGamePhase@ DB 'SetGamePhase', 00H	; `string'
CONST	ENDS
;	COMDAT ??_C@_02HCKGKOFO@?$CI?$CJ@
CONST	SEGMENT
??_C@_02HCKGKOFO@?$CI?$CJ@ DB '()', 00H			; `string'
CONST	ENDS
;	COMDAT ??_C@_0CG@IOPHKJBJ@?C?$LD?$LI?$KO?$LF?G?A?v?5?$LO?J?$MA?$LK?5?F?P?E?$LG?5?G?l?$LE?u?5?$CFd?0?5sta@
CONST	SEGMENT
??_C@_0CG@IOPHKJBJ@?C?$LD?$LI?$KO?$LF?G?A?v?5?$LO?J?$MA?$LK?5?F?P?E?$LG?5?G?l?$LE?u?5?$CFd?0?5sta@ DB 0c3H
	DB	0b3H, 0b8H, 0aeH, 0b5H, 0c7H, 0c1H, 0f6H, ' ', 0beH, 0caH, 0c0H
	DB	0baH, ' ', 0c6H, 0d0H, 0c5H, 0b6H, ' ', 0c7H, 0ecH, 0b4H, 0f5H
	DB	' %d, state %s', 0aH, 00H			; `string'
CONST	ENDS
;	COMDAT ??_C@_0CF@JLNGLGD@recv?5ping?5packet?4?5?$CIsecuritymode@
CONST	SEGMENT
??_C@_0CF@JLNGLGD@recv?5ping?5packet?4?5?$CIsecuritymode@ DB 'recv ping p'
	DB	'acket. (securitymode %u)', 0aH, 00H		; `string'
CONST	ENDS
;	COMDAT ??_C@_0EA@JMANDMEJ@Phase?5?$CFs?5does?5not?5handle?5this?5h@
CONST	SEGMENT
??_C@_0EA@JMANDMEJ@Phase?5?$CFs?5does?5not?5handle?5this?5h@ DB 'Phase %s'
	DB	' does not handle this header (header: %d, last: %d, %d)', 00H ; `string'
CONST	ENDS
;	COMDAT ??_C@_0FP@JGOINIOH@CPythonNetworkStream?3?3CheckPack@
CONST	SEGMENT
??_C@_0FP@JGOINIOH@CPythonNetworkStream?3?3CheckPack@ DB 'CPythonNetworkS'
	DB	'tream::CheckPacket - Not enough dynamic packet size: header %'
	DB	'd packet size: %d', 0aH, 00H		; `string'
CONST	ENDS
;	COMDAT ??_C@_0CH@LALGPME@Unknown?5packet?5header?3?5?$CFd?0?5last@
CONST	SEGMENT
??_C@_0CH@LALGPME@Unknown?5packet?5header?3?5?$CFd?0?5last@ DB 'Unknown p'
	DB	'acket header: %d, last: %d %d', 00H		; `string'
CONST	ENDS
;	COMDAT ??_C@_0M@PCENNPGA@?$CFd?4?$CFd?4?$CFd?4?$CFd@
CONST	SEGMENT
??_C@_0M@PCENNPGA@?$CFd?4?$CFd?4?$CFd?4?$CFd@ DB '%d.%d.%d.%d', 00H ; `string'
CONST	ENDS
;	COMDAT ?sc_szEmpty@?1??GetAccountCharacterSlotDataz@CPythonNetworkStream@@QAEPBDII@Z@4PBDB
_DATA	SEGMENT
?sc_szEmpty@?1??GetAccountCharacterSlotDataz@CPythonNetworkStream@@QAEPBDII@Z@4PBDB DD FLAT:??_C@_00CNPNBAHC@@ ; `CPythonNetworkStream::GetAccountCharacterSlotDataz'::`2'::sc_szEmpty
_DATA	ENDS
;	COMDAT ??_C@_07FOABJBDD@?1logout@
CONST	SEGMENT
??_C@_07FOABJBDD@?1logout@ DB '/logout', 00H		; `string'
CONST	ENDS
;	COMDAT ??_C@_0O@ODIJHOCP@?1phase_select@
CONST	SEGMENT
??_C@_0O@ODIJHOCP@?1phase_select@ DB '/phase_select', 00H ; `string'
CONST	ENDS
;	COMDAT ??_C@_05CMMBDMDD@?1quit@
CONST	SEGMENT
??_C@_05CMMBDMDD@?1quit@ DB '/quit', 00H		; `string'
CONST	ENDS
;	COMDAT ??_7CMainPacketHeaderMap@@6B@
CONST	SEGMENT
??_7CMainPacketHeaderMap@@6B@ DD FLAT:??_R4CMainPacketHeaderMap@@6B@ ; CMainPacketHeaderMap::`vftable'
	DD	FLAT:??_ECMainPacketHeaderMap@@UAEPAXI@Z
CONST	ENDS
;	COMDAT ?ms_kPool@?$CPooledObject@VCRotationDecorator@NEffectUpdateDecorator@@@@1V?$CDynamicPoolEx@VCRotationDecorator@NEffectUpdateDecorator@@@@A
_DATA	SEGMENT
?ms_kPool@?$CPooledObject@VCRotationDecorator@NEffectUpdateDecorator@@@@1V?$CDynamicPoolEx@VCRotationDecorator@NEffectUpdateDecorator@@@@A DD FLAT:??_7?$CDynamicPoolEx@VCRotationDecorator@NEffectUpdateDecorator@@@@6B@ ; CPooledObject<NEffectUpdateDecorator::CRotationDecorator>::ms_kPool
	DD	00H
	DD	00H
	DD	00H
	DD	00H
	DD	00H
	DD	00H
	DD	00H
	DD	00H
_DATA	ENDS
;	COMDAT ?ms_kPool@?$CPooledObject@VCGravityDecorator@NEffectUpdateDecorator@@@@1V?$CDynamicPoolEx@VCGravityDecorator@NEffectUpdateDecorator@@@@A
_DATA	SEGMENT
?ms_kPool@?$CPooledObject@VCGravityDecorator@NEffectUpdateDecorator@@@@1V?$CDynamicPoolEx@VCGravityDecorator@NEffectUpdateDecorator@@@@A DD FLAT:??_7?$CDynamicPoolEx@VCGravityDecorator@NEffectUpdateDecorator@@@@6B@ ; CPooledObject<NEffectUpdateDecorator::CGravityDecorator>::ms_kPool
	DD	00H
	DD	00H
	DD	00H
	DD	00H
	DD	00H
	DD	00H
	DD	00H
	DD	00H
_DATA	ENDS
;	COMDAT ?ms_kPool@?$CPooledObject@VCAirResistanceDecorator@NEffectUpdateDecorator@@@@1V?$CDynamicPoolEx@VCAirResistanceDecorator@NEffectUpdateDecorator@@@@A
_DATA	SEGMENT
?ms_kPool@?$CPooledObject@VCAirResistanceDecorator@NEffectUpdateDecorator@@@@1V?$CDynamicPoolEx@VCAirResistanceDecorator@NEffectUpdateDecorator@@@@A DD FLAT:??_7?$CDynamicPoolEx@VCAirResistanceDecorator@NEffectUpdateDecorator@@@@6B@ ; CPooledObject<NEffectUpdateDecorator::CAirResistanceDecorator>::ms_kPool
	DD	00H
	DD	00H
	DD	00H
	DD	00H
	DD	00H
	DD	00H
	DD	00H
	DD	00H
_DATA	ENDS
;	COMDAT ?ms_kPool@?$CPooledObject@VCTextureAnimationRandomDecorator@NEffectUpdateDecorator@@@@1V?$CDynamicPoolEx@VCTextureAnimationRandomDecorator@NEffectUpdateDecorator@@@@A
_DATA	SEGMENT
?ms_kPool@?$CPooledObject@VCTextureAnimationRandomDecorator@NEffectUpdateDecorator@@@@1V?$CDynamicPoolEx@VCTextureAnimationRandomDecorator@NEffectUpdateDecorator@@@@A DD FLAT:??_7?$CDynamicPoolEx@VCTextureAnimationRandomDecorator@NEffectUpdateDecorator@@@@6B@ ; CPooledObject<NEffectUpdateDecorator::CTextureAnimationRandomDecorator>::ms_kPool
	DD	00H
	DD	00H
	DD	00H
	DD	00H
	DD	00H
	DD	00H
	DD	00H
	DD	00H
_DATA	ENDS
;	COMDAT ?ms_kPool@?$CPooledObject@VCTextureAnimationCCWDecorator@NEffectUpdateDecorator@@@@1V?$CDynamicPoolEx@VCTextureAnimationCCWDecorator@NEffectUpdateDecorator@@@@A
_DATA	SEGMENT
?ms_kPool@?$CPooledObject@VCTextureAnimationCCWDecorator@NEffectUpdateDecorator@@@@1V?$CDynamicPoolEx@VCTextureAnimationCCWDecorator@NEffectUpdateDecorator@@@@A DD FLAT:??_7?$CDynamicPoolEx@VCTextureAnimationCCWDecorator@NEffectUpdateDecorator@@@@6B@ ; CPooledObject<NEffectUpdateDecorator::CTextureAnimationCCWDecorator>::ms_kPool
	DD	00H
	DD	00H
	DD	00H
	DD	00H
	DD	00H
	DD	00H
	DD	00H
	DD	00H
_DATA	ENDS
;	COMDAT ?ms_kPool@?$CPooledObject@VCTextureAnimationCWDecorator@NEffectUpdateDecorator@@@@1V?$CDynamicPoolEx@VCTextureAnimationCWDecorator@NEffectUpdateDecorator@@@@A
_DATA	SEGMENT
?ms_kPool@?$CPooledObject@VCTextureAnimationCWDecorator@NEffectUpdateDecorator@@@@1V?$CDynamicPoolEx@VCTextureAnimationCWDecorator@NEffectUpdateDecorator@@@@A DD FLAT:??_7?$CDynamicPoolEx@VCTextureAnimationCWDecorator@NEffectUpdateDecorator@@@@6B@ ; CPooledObject<NEffectUpdateDecorator::CTextureAnimationCWDecorator>::ms_kPool
	DD	00H
	DD	00H
	DD	00H
	DD	00H
	DD	00H
	DD	00H
	DD	00H
	DD	00H
_DATA	ENDS
;	COMDAT ?ms_kPool@?$CPooledObject@VCNullDecorator@NEffectUpdateDecorator@@@@1V?$CDynamicPoolEx@VCNullDecorator@NEffectUpdateDecorator@@@@A
_DATA	SEGMENT
?ms_kPool@?$CPooledObject@VCNullDecorator@NEffectUpdateDecorator@@@@1V?$CDynamicPoolEx@VCNullDecorator@NEffectUpdateDecorator@@@@A DD FLAT:??_7?$CDynamicPoolEx@VCNullDecorator@NEffectUpdateDecorator@@@@6B@ ; CPooledObject<NEffectUpdateDecorator::CNullDecorator>::ms_kPool
	DD	00H
	DD	00H
	DD	00H
	DD	00H
	DD	00H
	DD	00H
	DD	00H
	DD	00H
_DATA	ENDS
;	COMDAT ?ms_kPool@?$CPooledObject@VCHeaderDecorator@NEffectUpdateDecorator@@@@1V?$CDynamicPoolEx@VCHeaderDecorator@NEffectUpdateDecorator@@@@A
_DATA	SEGMENT
?ms_kPool@?$CPooledObject@VCHeaderDecorator@NEffectUpdateDecorator@@@@1V?$CDynamicPoolEx@VCHeaderDecorator@NEffectUpdateDecorator@@@@A DD FLAT:??_7?$CDynamicPoolEx@VCHeaderDecorator@NEffectUpdateDecorator@@@@6B@ ; CPooledObject<NEffectUpdateDecorator::CHeaderDecorator>::ms_kPool
	DD	00H
	DD	00H
	DD	00H
	DD	00H
	DD	00H
	DD	00H
	DD	00H
	DD	00H
_DATA	ENDS
;	COMDAT ??_7CPythonNetworkStream@@6B?$CSingleton@VCPythonNetworkStream@@@@@
CONST	SEGMENT
??_7CPythonNetworkStream@@6B?$CSingleton@VCPythonNetworkStream@@@@@ DD FLAT:??_R4CPythonNetworkStream@@6B?$CSingleton@VCPythonNetworkStream@@@@@ ; CPythonNetworkStream::`vftable'
	DD	FLAT:??_ECPythonNetworkStream@@WHM@AEPAXI@Z
CONST	ENDS
;	COMDAT ??_7CPythonNetworkStream@@6BCNetworkStream@@@
CONST	SEGMENT
??_7CPythonNetworkStream@@6BCNetworkStream@@@ DD FLAT:??_R4CPythonNetworkStream@@6BCNetworkStream@@@ ; CPythonNetworkStream::`vftable'
	DD	FLAT:??_ECPythonNetworkStream@@UAEPAXI@Z
	DD	FLAT:?OnConnectSuccess@CNetworkStream@@MAEXXZ
	DD	FLAT:?OnConnectFailure@CPythonNetworkStream@@MAEXXZ
	DD	FLAT:?OnRemoteDisconnect@CPythonNetworkStream@@MAEXXZ
	DD	FLAT:?OnDisconnect@CPythonNetworkStream@@MAEXXZ
	DD	FLAT:?OnProcess@CPythonNetworkStream@@MAE_NXZ
CONST	ENDS
;	COMDAT ??_7?$CFuncObject@VCPythonNetworkStream@@@@6B@
CONST	SEGMENT
??_7?$CFuncObject@VCPythonNetworkStream@@@@6B@ DD FLAT:??_R4?$CFuncObject@VCPythonNetworkStream@@@@6B@ ; CFuncObject<CPythonNetworkStream>::`vftable'
	DD	FLAT:??_E?$CFuncObject@VCPythonNetworkStream@@@@UAEPAXI@Z
CONST	ENDS
;	COMDAT ??_7?$CSingleton@VCPythonNetworkStream@@@@6B@
CONST	SEGMENT
??_7?$CSingleton@VCPythonNetworkStream@@@@6B@ DD FLAT:??_R4?$CSingleton@VCPythonNetworkStream@@@@6B@ ; CSingleton<CPythonNetworkStream>::`vftable'
	DD	FLAT:??_E?$CSingleton@VCPythonNetworkStream@@@@UAEPAXI@Z
CONST	ENDS
;	COMDAT ??_R1A@?0A@EA@bad_array_new_length@std@@8
rdata$r	SEGMENT
??_R1A@?0A@EA@bad_array_new_length@std@@8 DD FLAT:??_R0?AVbad_array_new_length@std@@@8 ; std::bad_array_new_length::`RTTI Base Class Descriptor at (0,-1,0,64)'
	DD	02H
	DD	00H
	DD	0ffffffffH
	DD	00H
	DD	040H
	DD	FLAT:??_R3bad_array_new_length@std@@8
rdata$r	ENDS
;	COMDAT ??_R2bad_array_new_length@std@@8
rdata$r	SEGMENT
??_R2bad_array_new_length@std@@8 DD FLAT:??_R1A@?0A@EA@bad_array_new_length@std@@8 ; std::bad_array_new_length::`RTTI Base Class Array'
	DD	FLAT:??_R1A@?0A@EA@bad_alloc@std@@8
	DD	FLAT:??_R1A@?0A@EA@exception@std@@8
rdata$r	ENDS
;	COMDAT ??_R3bad_array_new_length@std@@8
rdata$r	SEGMENT
??_R3bad_array_new_length@std@@8 DD 00H			; std::bad_array_new_length::`RTTI Class Hierarchy Descriptor'
	DD	00H
	DD	03H
	DD	FLAT:??_R2bad_array_new_length@std@@8
rdata$r	ENDS
;	COMDAT ??_R4bad_array_new_length@std@@6B@
rdata$r	SEGMENT
??_R4bad_array_new_length@std@@6B@ DD 00H		; std::bad_array_new_length::`RTTI Complete Object Locator'
	DD	00H
	DD	00H
	DD	FLAT:??_R0?AVbad_array_new_length@std@@@8
	DD	FLAT:??_R3bad_array_new_length@std@@8
rdata$r	ENDS
;	COMDAT ??_R1A@?0A@EA@bad_alloc@std@@8
rdata$r	SEGMENT
??_R1A@?0A@EA@bad_alloc@std@@8 DD FLAT:??_R0?AVbad_alloc@std@@@8 ; std::bad_alloc::`RTTI Base Class Descriptor at (0,-1,0,64)'
	DD	01H
	DD	00H
	DD	0ffffffffH
	DD	00H
	DD	040H
	DD	FLAT:??_R3bad_alloc@std@@8
rdata$r	ENDS
;	COMDAT ??_R2bad_alloc@std@@8
rdata$r	SEGMENT
??_R2bad_alloc@std@@8 DD FLAT:??_R1A@?0A@EA@bad_alloc@std@@8 ; std::bad_alloc::`RTTI Base Class Array'
	DD	FLAT:??_R1A@?0A@EA@exception@std@@8
rdata$r	ENDS
;	COMDAT ??_R3bad_alloc@std@@8
rdata$r	SEGMENT
??_R3bad_alloc@std@@8 DD 00H				; std::bad_alloc::`RTTI Class Hierarchy Descriptor'
	DD	00H
	DD	02H
	DD	FLAT:??_R2bad_alloc@std@@8
rdata$r	ENDS
;	COMDAT ??_R4bad_alloc@std@@6B@
rdata$r	SEGMENT
??_R4bad_alloc@std@@6B@ DD 00H				; std::bad_alloc::`RTTI Complete Object Locator'
	DD	00H
	DD	00H
	DD	FLAT:??_R0?AVbad_alloc@std@@@8
	DD	FLAT:??_R3bad_alloc@std@@8
rdata$r	ENDS
;	COMDAT ??_R1A@?0A@EA@exception@std@@8
rdata$r	SEGMENT
??_R1A@?0A@EA@exception@std@@8 DD FLAT:??_R0?AVexception@std@@@8 ; std::exception::`RTTI Base Class Descriptor at (0,-1,0,64)'
	DD	00H
	DD	00H
	DD	0ffffffffH
	DD	00H
	DD	040H
	DD	FLAT:??_R3exception@std@@8
rdata$r	ENDS
;	COMDAT ??_R2exception@std@@8
rdata$r	SEGMENT
??_R2exception@std@@8 DD FLAT:??_R1A@?0A@EA@exception@std@@8 ; std::exception::`RTTI Base Class Array'
rdata$r	ENDS
;	COMDAT ??_R3exception@std@@8
rdata$r	SEGMENT
??_R3exception@std@@8 DD 00H				; std::exception::`RTTI Class Hierarchy Descriptor'
	DD	00H
	DD	01H
	DD	FLAT:??_R2exception@std@@8
rdata$r	ENDS
;	COMDAT ??_R4exception@std@@6B@
rdata$r	SEGMENT
??_R4exception@std@@6B@ DD 00H				; std::exception::`RTTI Complete Object Locator'
	DD	00H
	DD	00H
	DD	FLAT:??_R0?AVexception@std@@@8
	DD	FLAT:??_R3exception@std@@8
rdata$r	ENDS
;	COMDAT ??_C@_00CNPNBAHC@@
CONST	SEGMENT
??_C@_00CNPNBAHC@@ DB 00H				; `string'
CONST	ENDS
;	COMDAT ??_C@_0BA@JFNIOLAK@string?5too?5long@
CONST	SEGMENT
??_C@_0BA@JFNIOLAK@string?5too?5long@ DB 'string too long', 00H ; `string'
CONST	ENDS
;	COMDAT __CT??_R0?AVexception@std@@@8??0exception@std@@QAE@ABV01@@Z12
xdata$x	SEGMENT
__CT??_R0?AVexception@std@@@8??0exception@std@@QAE@ABV01@@Z12 DD 00H
	DD	FLAT:??_R0?AVexception@std@@@8
	DD	00H
	DD	0ffffffffH
	ORG $+4
	DD	0cH
	DD	FLAT:??0exception@std@@QAE@ABV01@@Z
xdata$x	ENDS
;	COMDAT ??_R0?AVexception@std@@@8
data$r	SEGMENT
??_R0?AVexception@std@@@8 DD FLAT:??_7type_info@@6B@	; std::exception `RTTI Type Descriptor'
	DD	00H
	DB	'.?AVexception@std@@', 00H
data$r	ENDS
;	COMDAT __CT??_R0?AVbad_alloc@std@@@8??0bad_alloc@std@@QAE@ABV01@@Z12
xdata$x	SEGMENT
__CT??_R0?AVbad_alloc@std@@@8??0bad_alloc@std@@QAE@ABV01@@Z12 DD 010H
	DD	FLAT:??_R0?AVbad_alloc@std@@@8
	DD	00H
	DD	0ffffffffH
	ORG $+4
	DD	0cH
	DD	FLAT:??0bad_alloc@std@@QAE@ABV01@@Z
xdata$x	ENDS
;	COMDAT ??_R0?AVbad_alloc@std@@@8
data$r	SEGMENT
??_R0?AVbad_alloc@std@@@8 DD FLAT:??_7type_info@@6B@	; std::bad_alloc `RTTI Type Descriptor'
	DD	00H
	DB	'.?AVbad_alloc@std@@', 00H
data$r	ENDS
;	COMDAT __CT??_R0?AVbad_array_new_length@std@@@8??0bad_array_new_length@std@@QAE@ABV01@@Z12
xdata$x	SEGMENT
__CT??_R0?AVbad_array_new_length@std@@@8??0bad_array_new_length@std@@QAE@ABV01@@Z12 DD 00H
	DD	FLAT:??_R0?AVbad_array_new_length@std@@@8
	DD	00H
	DD	0ffffffffH
	ORG $+4
	DD	0cH
	DD	FLAT:??0bad_array_new_length@std@@QAE@ABV01@@Z
xdata$x	ENDS
;	COMDAT ??_R0?AVbad_array_new_length@std@@@8
data$r	SEGMENT
??_R0?AVbad_array_new_length@std@@@8 DD FLAT:??_7type_info@@6B@ ; std::bad_array_new_length `RTTI Type Descriptor'
	DD	00H
	DB	'.?AVbad_array_new_length@std@@', 00H
data$r	ENDS
;	COMDAT __CTA3?AVbad_array_new_length@std@@
xdata$x	SEGMENT
__CTA3?AVbad_array_new_length@std@@ DD 03H
	DD	FLAT:__CT??_R0?AVbad_array_new_length@std@@@8??0bad_array_new_length@std@@QAE@ABV01@@Z12
	DD	FLAT:__CT??_R0?AVbad_alloc@std@@@8??0bad_alloc@std@@QAE@ABV01@@Z12
	DD	FLAT:__CT??_R0?AVexception@std@@@8??0exception@std@@QAE@ABV01@@Z12
xdata$x	ENDS
;	COMDAT __TI3?AVbad_array_new_length@std@@
xdata$x	SEGMENT
__TI3?AVbad_array_new_length@std@@ DD 00H
	DD	FLAT:??1bad_array_new_length@std@@UAE@XZ
	DD	00H
	DD	FLAT:__CTA3?AVbad_array_new_length@std@@
xdata$x	ENDS
;	COMDAT ??_C@_0BF@KINCDENJ@bad?5array?5new?5length@
CONST	SEGMENT
??_C@_0BF@KINCDENJ@bad?5array?5new?5length@ DB 'bad array new length', 00H ; `string'
CONST	ENDS
;	COMDAT ??_7bad_array_new_length@std@@6B@
CONST	SEGMENT
??_7bad_array_new_length@std@@6B@ DD FLAT:??_R4bad_array_new_length@std@@6B@ ; std::bad_array_new_length::`vftable'
	DD	FLAT:??_Ebad_array_new_length@std@@UAEPAXI@Z
	DD	FLAT:?what@exception@std@@UBEPBDXZ
CONST	ENDS
;	COMDAT ??_7bad_alloc@std@@6B@
CONST	SEGMENT
??_7bad_alloc@std@@6B@ DD FLAT:??_R4bad_alloc@std@@6B@	; std::bad_alloc::`vftable'
	DD	FLAT:??_Ebad_alloc@std@@UAEPAXI@Z
	DD	FLAT:?what@exception@std@@UBEPBDXZ
CONST	ENDS
;	COMDAT ??_C@_0BC@EOODALEL@Unknown?5exception@
CONST	SEGMENT
??_C@_0BC@EOODALEL@Unknown?5exception@ DB 'Unknown exception', 00H ; `string'
CONST	ENDS
;	COMDAT ??_7exception@std@@6B@
CONST	SEGMENT
??_7exception@std@@6B@ DD FLAT:??_R4exception@std@@6B@	; std::exception::`vftable'
	DD	FLAT:??_Eexception@std@@UAEPAXI@Z
	DD	FLAT:?what@exception@std@@UBEPBDXZ
CONST	ENDS
;	COMDAT xdata$x
xdata$x	SEGMENT
__unwindtable$??0CMainPacketHeaderMap@@QAE@XZ DD 0ffffffffH
	DD	FLAT:__unwindfunclet$??0CMainPacketHeaderMap@@QAE@XZ$0
__ehfuncinfo$??0CMainPacketHeaderMap@@QAE@XZ DD 019930522H
	DD	01H
	DD	FLAT:__unwindtable$??0CMainPacketHeaderMap@@QAE@XZ
	DD	2 DUP(00H)
	DD	2 DUP(00H)
	DD	00H
	DD	01H
xdata$x	ENDS
;	COMDAT xdata$x
xdata$x	SEGMENT
__ehfuncinfo$??1?$CRef@VCNetworkActorManager@@@@QAE@XZ DD 019930522H
	DD	00H
	DD	00H
	DD	2 DUP(00H)
	DD	2 DUP(00H)
	DD	00H
	DD	05H
xdata$x	ENDS
;	COMDAT xdata$x
xdata$x	SEGMENT
__unwindtable$?CheckPacket@CPythonNetworkStream@@IAE_NPAE@Z DD 0ffffffffH
	DD	FLAT:__unwindfunclet$?CheckPacket@CPythonNetworkStream@@IAE_NPAE@Z$0
__ehfuncinfo$?CheckPacket@CPythonNetworkStream@@IAE_NPAE@Z DD 019930522H
	DD	01H
	DD	FLAT:__unwindtable$?CheckPacket@CPythonNetworkStream@@IAE_NPAE@Z
	DD	2 DUP(00H)
	DD	2 DUP(00H)
	DD	00H
	DD	01H
xdata$x	ENDS
;	COMDAT xdata$x
xdata$x	SEGMENT
__unwindtable$??1CPythonNetworkStream@@UAE@XZ DD 0ffffffffH
	DD	FLAT:___std_terminate
__ehfuncinfo$??1CPythonNetworkStream@@UAE@XZ DD 019930522H
	DD	01H
	DD	FLAT:__unwindtable$??1CPythonNetworkStream@@UAE@XZ
	DD	2 DUP(00H)
	DD	2 DUP(00H)
	DD	00H
	DD	05H
xdata$x	ENDS
;	COMDAT xdata$x
xdata$x	SEGMENT
__ehfuncinfo$??0CPythonNetworkStream@@QAE@XZ DD 019930522H
	DD	010H
	DD	FLAT:__unwindtable$??0CPythonNetworkStream@@QAE@XZ
	DD	2 DUP(00H)
	DD	2 DUP(00H)
	DD	00H
	DD	01H
__unwindtable$??0CPythonNetworkStream@@QAE@XZ DD 0ffffffffH
	DD	FLAT:__unwindfunclet$??0CPythonNetworkStream@@QAE@XZ$0
	DD	00H
	DD	FLAT:__unwindfunclet$??0CPythonNetworkStream@@QAE@XZ$1
	DD	01H
	DD	FLAT:__unwindfunclet$??0CPythonNetworkStream@@QAE@XZ$2
	DD	02H
	DD	FLAT:__unwindfunclet$??0CPythonNetworkStream@@QAE@XZ$3
	DD	03H
	DD	FLAT:__unwindfunclet$??0CPythonNetworkStream@@QAE@XZ$4
	DD	04H
	DD	FLAT:__unwindfunclet$??0CPythonNetworkStream@@QAE@XZ$5
	DD	05H
	DD	FLAT:__unwindfunclet$??0CPythonNetworkStream@@QAE@XZ$6
	DD	06H
	DD	FLAT:__unwindfunclet$??0CPythonNetworkStream@@QAE@XZ$7
	DD	07H
	DD	FLAT:__unwindfunclet$??0CPythonNetworkStream@@QAE@XZ$8
	DD	08H
	DD	FLAT:__unwindfunclet$??0CPythonNetworkStream@@QAE@XZ$9
	DD	09H
	DD	FLAT:__unwindfunclet$??0CPythonNetworkStream@@QAE@XZ$10
	DD	0aH
	DD	FLAT:__unwindfunclet$??0CPythonNetworkStream@@QAE@XZ$11
	DD	0bH
	DD	FLAT:__unwindfunclet$??0CPythonNetworkStream@@QAE@XZ$12
	DD	0cH
	DD	FLAT:__unwindfunclet$??0CPythonNetworkStream@@QAE@XZ$13
	DD	0dH
	DD	FLAT:__unwindfunclet$??0CPythonNetworkStream@@QAE@XZ$14
	DD	0eH
	DD	FLAT:__unwindfunclet$??0CPythonNetworkStream@@QAE@XZ$15
xdata$x	ENDS
;	COMDAT CRT$XCU
CRT$XCU	SEGMENT
??ms_kPool$initializer$@?$CPooledObject@VCNullDecorator@NEffectUpdateDecorator@@@@1P6AXXZA@@3P6AXXZA DD FLAT:??__E?ms_kPool@?$CPooledObject@VCNullDecorator@NEffectUpdateDecorator@@@@1V?$CDynamicPoolEx@VCNullDecorator@NEffectUpdateDecorator@@@@A@@YAXXZ ; ??ms_kPool$initializer$@?$CPooledObject@VCNullDecorator@NEffectUpdateDecorator@@@@1P6AXXZA@@3P6AXXZA
CRT$XCU	ENDS
;	COMDAT CRT$XCU
CRT$XCU	SEGMENT
??ms_kPool$initializer$@?$CPooledObject@VCTextureAnimationCWDecorator@NEffectUpdateDecorator@@@@1P6AXXZA@@3P6AXXZA DD FLAT:??__E?ms_kPool@?$CPooledObject@VCTextureAnimationCWDecorator@NEffectUpdateDecorator@@@@1V?$CDynamicPoolEx@VCTextureAnimationCWDecorator@NEffectUpdateDecorator@@@@A@@YAXXZ ; ??ms_kPool$initializer$@?$CPooledObject@VCTextureAnimationCWDecorator@NEffectUpdateDecorator@@@@1P6AXXZA@@3P6AXXZA
CRT$XCU	ENDS
;	COMDAT CRT$XCU
CRT$XCU	SEGMENT
??ms_kPool$initializer$@?$CPooledObject@VCTextureAnimationCCWDecorator@NEffectUpdateDecorator@@@@1P6AXXZA@@3P6AXXZA DD FLAT:??__E?ms_kPool@?$CPooledObject@VCTextureAnimationCCWDecorator@NEffectUpdateDecorator@@@@1V?$CDynamicPoolEx@VCTextureAnimationCCWDecorator@NEffectUpdateDecorator@@@@A@@YAXXZ ; ??ms_kPool$initializer$@?$CPooledObject@VCTextureAnimationCCWDecorator@NEffectUpdateDecorator@@@@1P6AXXZA@@3P6AXXZA
CRT$XCU	ENDS
;	COMDAT CRT$XCU
CRT$XCU	SEGMENT
??ms_kPool$initializer$@?$CPooledObject@VCTextureAnimationRandomDecorator@NEffectUpdateDecorator@@@@1P6AXXZA@@3P6AXXZA DD FLAT:??__E?ms_kPool@?$CPooledObject@VCTextureAnimationRandomDecorator@NEffectUpdateDecorator@@@@1V?$CDynamicPoolEx@VCTextureAnimationRandomDecorator@NEffectUpdateDecorator@@@@A@@YAXXZ ; ??ms_kPool$initializer$@?$CPooledObject@VCTextureAnimationRandomDecorator@NEffectUpdateDecorator@@@@1P6AXXZA@@3P6AXXZA
CRT$XCU	ENDS
;	COMDAT CRT$XCU
CRT$XCU	SEGMENT
??ms_kPool$initializer$@?$CPooledObject@VCAirResistanceDecorator@NEffectUpdateDecorator@@@@1P6AXXZA@@3P6AXXZA DD FLAT:??__E?ms_kPool@?$CPooledObject@VCAirResistanceDecorator@NEffectUpdateDecorator@@@@1V?$CDynamicPoolEx@VCAirResistanceDecorator@NEffectUpdateDecorator@@@@A@@YAXXZ ; ??ms_kPool$initializer$@?$CPooledObject@VCAirResistanceDecorator@NEffectUpdateDecorator@@@@1P6AXXZA@@3P6AXXZA
CRT$XCU	ENDS
;	COMDAT CRT$XCU
CRT$XCU	SEGMENT
??ms_kPool$initializer$@?$CPooledObject@VCGravityDecorator@NEffectUpdateDecorator@@@@1P6AXXZA@@3P6AXXZA DD FLAT:??__E?ms_kPool@?$CPooledObject@VCGravityDecorator@NEffectUpdateDecorator@@@@1V?$CDynamicPoolEx@VCGravityDecorator@NEffectUpdateDecorator@@@@A@@YAXXZ ; ??ms_kPool$initializer$@?$CPooledObject@VCGravityDecorator@NEffectUpdateDecorator@@@@1P6AXXZA@@3P6AXXZA
CRT$XCU	ENDS
;	COMDAT CRT$XCU
CRT$XCU	SEGMENT
??ms_kPool$initializer$@?$CPooledObject@VCRotationDecorator@NEffectUpdateDecorator@@@@1P6AXXZA@@3P6AXXZA DD FLAT:??__E?ms_kPool@?$CPooledObject@VCRotationDecorator@NEffectUpdateDecorator@@@@1V?$CDynamicPoolEx@VCRotationDecorator@NEffectUpdateDecorator@@@@A@@YAXXZ ; ??ms_kPool$initializer$@?$CPooledObject@VCRotationDecorator@NEffectUpdateDecorator@@@@1P6AXXZA@@3P6AXXZA
CRT$XCU	ENDS
; Function compile flags: /Odsp
;	COMDAT ??_ECPythonNetworkStream@@WHM@AEPAXI@Z
_TEXT	SEGMENT
??_ECPythonNetworkStream@@WHM@AEPAXI@Z PROC		; [thunk]:CPythonNetworkStream::`vector deleting destructor', COMDAT
  00000	83 e9 7c	 sub	 ecx, 124		; 0000007cH
  00003	e9 00 00 00 00	 jmp	 ??_ECPythonNetworkStream@@UAEPAXI@Z
??_ECPythonNetworkStream@@WHM@AEPAXI@Z ENDP		; [thunk]:CPythonNetworkStream::`vector deleting destructor'
_TEXT	ENDS
; Function compile flags: /Ogtp
; File C:\Program Files (x86)\Microsoft Visual Studio\2019\Community\VC\Tools\MSVC\14.28.29333\include\xmemory
;	COMDAT ??$_Construct_in_place@U_Container_proxy@std@@PAU_Container_base12@2@@std@@YAXAAU_Container_proxy@0@$$QAPAU_Container_base12@0@@Z
_TEXT	SEGMENT
__Obj$ = 8						; size = 4
_<_Args_0>$ = 12					; size = 4
??$_Construct_in_place@U_Container_proxy@std@@PAU_Container_base12@2@@std@@YAXAAU_Container_proxy@0@$$QAPAU_Container_base12@0@@Z PROC ; std::_Construct_in_place<std::_Container_proxy,std::_Container_base12 *>, COMDAT

; 228  : void _Construct_in_place(_Ty& _Obj, _Types&&... _Args) noexcept(is_nothrow_constructible_v<_Ty, _Types...>) {

  00000	55		 push	 ebp
  00001	8b ec		 mov	 ebp, esp

; 1089 :     _Container_proxy(_Container_base12* _Mycont_) noexcept : _Mycont(_Mycont_), _Myfirstiter(nullptr) {}

  00003	8b 45 0c	 mov	 eax, DWORD PTR _<_Args_0>$[ebp]
  00006	8b 4d 08	 mov	 ecx, DWORD PTR __Obj$[ebp]
  00009	8b 00		 mov	 eax, DWORD PTR [eax]
  0000b	89 01		 mov	 DWORD PTR [ecx], eax
  0000d	c7 41 04 00 00
	00 00		 mov	 DWORD PTR [ecx+4], 0

; 229  :     ::new (const_cast<void*>(static_cast<const volatile void*>(_STD addressof(_Obj))))
; 230  :         _Ty(_STD forward<_Types>(_Args)...);
; 231  : }

  00014	5d		 pop	 ebp
  00015	c3		 ret	 0
??$_Construct_in_place@U_Container_proxy@std@@PAU_Container_base12@2@@std@@YAXAAU_Container_proxy@0@$$QAPAU_Container_base12@0@@Z ENDP ; std::_Construct_in_place<std::_Container_proxy,std::_Container_base12 *>
_TEXT	ENDS
; Function compile flags: /Ogtp
; File C:\Program Files (x86)\Microsoft Visual Studio\2019\Community\VC\Tools\MSVC\14.28.29333\include\xmemory
;	COMDAT ??$_Deallocate_plain@V?$allocator@U_Container_proxy@std@@@std@@@std@@YAXAAV?$allocator@U_Container_proxy@std@@@0@QAU_Container_proxy@0@@Z
_TEXT	SEGMENT
__Al$ = 8						; size = 4
__Ptr$ = 12						; size = 4
??$_Deallocate_plain@V?$allocator@U_Container_proxy@std@@@std@@@std@@YAXAAV?$allocator@U_Container_proxy@std@@@0@QAU_Container_proxy@0@@Z PROC ; std::_Deallocate_plain<std::allocator<std::_Container_proxy> >, COMDAT

; 1003 : void _Deallocate_plain(_Alloc& _Al, typename _Alloc::value_type* const _Ptr) noexcept {

  00000	55		 push	 ebp
  00001	8b ec		 mov	 ebp, esp

; 696  :         _Deallocate<_New_alignof<value_type>>(_Ptr, sizeof(value_type) * _Count);

  00003	6a 08		 push	 8
  00005	ff 75 0c	 push	 DWORD PTR __Ptr$[ebp]
  00008	e8 00 00 00 00	 call	 ??$_Deallocate@$07$0A@@std@@YAXPAXI@Z ; std::_Deallocate<8,0>
  0000d	83 c4 08	 add	 esp, 8

; 1004 :     // deallocate a plain pointer using an allocator
; 1005 :     using _Alloc_traits = allocator_traits<_Alloc>;
; 1006 :     if constexpr (is_same_v<_Alloc_ptr_t<_Alloc>, typename _Alloc::value_type*>) {
; 1007 :         _Alloc_traits::deallocate(_Al, _Ptr, 1);
; 1008 :     } else {
; 1009 :         using _Ptr_traits = pointer_traits<_Alloc_ptr_t<_Alloc>>;
; 1010 :         _Alloc_traits::deallocate(_Al, _Ptr_traits::pointer_to(*_Ptr), 1);
; 1011 :     }
; 1012 : }

  00010	5d		 pop	 ebp
  00011	c3		 ret	 0
??$_Deallocate_plain@V?$allocator@U_Container_proxy@std@@@std@@@std@@YAXAAV?$allocator@U_Container_proxy@std@@@0@QAU_Container_proxy@0@@Z ENDP ; std::_Deallocate_plain<std::allocator<std::_Container_proxy> >
_TEXT	ENDS
; Function compile flags: /Ogtp
; File C:\Program Files (x86)\Microsoft Visual Studio\2019\Community\VC\Tools\MSVC\14.28.29333\include\xstring
;	COMDAT ??$?8DU?$char_traits@D@std@@V?$allocator@D@1@@std@@YA_NQBDABV?$basic_string@DU?$char_traits@D@std@@V?$allocator@D@2@@0@@Z
_TEXT	SEGMENT
__Left$ = 8						; size = 4
__Right$ = 12						; size = 4
??$?8DU?$char_traits@D@std@@V?$allocator@D@1@@std@@YA_NQBDABV?$basic_string@DU?$char_traits@D@std@@V?$allocator@D@2@@0@@Z PROC ; std::operator==<char,std::char_traits<char>,std::allocator<char> >, COMDAT

; 4559 : _NODISCARD bool operator==(_In_z_ const _Elem* const _Left, const basic_string<_Elem, _Traits, _Alloc>& _Right) {

  00000	55		 push	 ebp
  00001	8b ec		 mov	 ebp, esp
  00003	56		 push	 esi

; 389  :         return _CSTD strlen(reinterpret_cast<const char*>(_First));

  00004	8b 75 08	 mov	 esi, DWORD PTR __Left$[ebp]

; 4559 : _NODISCARD bool operator==(_In_z_ const _Elem* const _Left, const basic_string<_Elem, _Traits, _Alloc>& _Right) {

  00007	57		 push	 edi

; 389  :         return _CSTD strlen(reinterpret_cast<const char*>(_First));

  00008	8b fe		 mov	 edi, esi
  0000a	8d 4f 01	 lea	 ecx, DWORD PTR [edi+1]
  0000d	0f 1f 00	 npad	 3
$LL18@operator:
  00010	8a 07		 mov	 al, BYTE PTR [edi]
  00012	47		 inc	 edi
  00013	84 c0		 test	 al, al
  00015	75 f9		 jne	 SHORT $LL18@operator

; 2218 :         const value_type* _Result = _Bx._Buf;

  00017	8b 55 0c	 mov	 edx, DWORD PTR __Right$[ebp]

; 389  :         return _CSTD strlen(reinterpret_cast<const char*>(_First));

  0001a	2b f9		 sub	 edi, ecx

; 2218 :         const value_type* _Result = _Bx._Buf;

  0001c	8b ca		 mov	 ecx, edx

; 2227 :         return _BUF_SIZE <= _Myres;

  0001e	83 7a 14 10	 cmp	 DWORD PTR [edx+20], 16	; 00000010H

; 2219 :         if (_Large_string_engaged()) {

  00022	72 02		 jb	 SHORT $LN8@operator

; 2220 :             _Result = _Unfancy(_Bx._Ptr);

  00024	8b 0a		 mov	 ecx, DWORD PTR [edx]
$LN8@operator:

; 4180 :         return _Traits_equal<_Traits>(_Mypair._Myval2._Myptr(), _Mypair._Myval2._Mysize, _Ptr, _Traits::length(_Ptr));

  00026	8b 52 10	 mov	 edx, DWORD PTR [edx+16]

; 561  :     return _Left_size == _Right_size && _Traits::compare(_Left, _Right, _Left_size) == 0;

  00029	3b d7		 cmp	 edx, edi
  0002b	75 5b		 jne	 SHORT $LN14@operator

; 369  :         return _CSTD memcmp(_First1, _First2, _Count);

  0002d	83 ea 04	 sub	 edx, 4
  00030	72 11		 jb	 SHORT $LN21@operator
$LL22@operator:
  00032	8b 01		 mov	 eax, DWORD PTR [ecx]
  00034	3b 06		 cmp	 eax, DWORD PTR [esi]
  00036	75 10		 jne	 SHORT $LN20@operator
  00038	83 c1 04	 add	 ecx, 4
  0003b	83 c6 04	 add	 esi, 4
  0003e	83 ea 04	 sub	 edx, 4
  00041	73 ef		 jae	 SHORT $LL22@operator
$LN21@operator:
  00043	83 fa fc	 cmp	 edx, -4			; fffffffcH
  00046	74 34		 je	 SHORT $LN19@operator
$LN20@operator:
  00048	8a 01		 mov	 al, BYTE PTR [ecx]
  0004a	3a 06		 cmp	 al, BYTE PTR [esi]
  0004c	75 27		 jne	 SHORT $LN23@operator
  0004e	83 fa fd	 cmp	 edx, -3			; fffffffdH
  00051	74 29		 je	 SHORT $LN19@operator
  00053	8a 41 01	 mov	 al, BYTE PTR [ecx+1]
  00056	3a 46 01	 cmp	 al, BYTE PTR [esi+1]
  00059	75 1a		 jne	 SHORT $LN23@operator
  0005b	83 fa fe	 cmp	 edx, -2			; fffffffeH
  0005e	74 1c		 je	 SHORT $LN19@operator
  00060	8a 41 02	 mov	 al, BYTE PTR [ecx+2]
  00063	3a 46 02	 cmp	 al, BYTE PTR [esi+2]
  00066	75 0d		 jne	 SHORT $LN23@operator
  00068	83 fa ff	 cmp	 edx, -1
  0006b	74 0f		 je	 SHORT $LN19@operator
  0006d	8a 41 03	 mov	 al, BYTE PTR [ecx+3]
  00070	3a 46 03	 cmp	 al, BYTE PTR [esi+3]
  00073	74 07		 je	 SHORT $LN19@operator
$LN23@operator:
  00075	1b c0		 sbb	 eax, eax
  00077	83 c8 01	 or	 eax, 1
  0007a	eb 02		 jmp	 SHORT $LN24@operator
$LN19@operator:
  0007c	33 c0		 xor	 eax, eax
$LN24@operator:

; 561  :     return _Left_size == _Right_size && _Traits::compare(_Left, _Right, _Left_size) == 0;

  0007e	85 c0		 test	 eax, eax
  00080	75 06		 jne	 SHORT $LN14@operator
  00082	5f		 pop	 edi
  00083	b0 01		 mov	 al, 1

; 4560 :     return _Right._Equal(_Left);
; 4561 : }

  00085	5e		 pop	 esi
  00086	5d		 pop	 ebp
  00087	c3		 ret	 0
$LN14@operator:
  00088	5f		 pop	 edi

; 561  :     return _Left_size == _Right_size && _Traits::compare(_Left, _Right, _Left_size) == 0;

  00089	32 c0		 xor	 al, al

; 4560 :     return _Right._Equal(_Left);
; 4561 : }

  0008b	5e		 pop	 esi
  0008c	5d		 pop	 ebp
  0008d	c3		 ret	 0
??$?8DU?$char_traits@D@std@@V?$allocator@D@1@@std@@YA_NQBDABV?$basic_string@DU?$char_traits@D@std@@V?$allocator@D@2@@0@@Z ENDP ; std::operator==<char,std::char_traits<char>,std::allocator<char> >
_TEXT	ENDS
; Function compile flags: /Ogtp
;	COMDAT ??__F?ms_kPool@?$CPooledObject@VCRotationDecorator@NEffectUpdateDecorator@@@@1V?$CDynamicPoolEx@VCRotationDecorator@NEffectUpdateDecorator@@@@A@@YAXXZ
text$yd	SEGMENT
??__F?ms_kPool@?$CPooledObject@VCRotationDecorator@NEffectUpdateDecorator@@@@1V?$CDynamicPoolEx@VCRotationDecorator@NEffectUpdateDecorator@@@@A@@YAXXZ PROC ; `dynamic atexit destructor for 'CPooledObject<NEffectUpdateDecorator::CRotationDecorator>::ms_kPool'', COMDAT
  00000	b9 00 00 00 00	 mov	 ecx, OFFSET ?ms_kPool@?$CPooledObject@VCRotationDecorator@NEffectUpdateDecorator@@@@1V?$CDynamicPoolEx@VCRotationDecorator@NEffectUpdateDecorator@@@@A ; CPooledObject<NEffectUpdateDecorator::CRotationDecorator>::ms_kPool
  00005	e9 00 00 00 00	 jmp	 ??1?$CDynamicPoolEx@VCRotationDecorator@NEffectUpdateDecorator@@@@UAE@XZ ; CDynamicPoolEx<NEffectUpdateDecorator::CRotationDecorator>::~CDynamicPoolEx<NEffectUpdateDecorator::CRotationDecorator>
??__F?ms_kPool@?$CPooledObject@VCRotationDecorator@NEffectUpdateDecorator@@@@1V?$CDynamicPoolEx@VCRotationDecorator@NEffectUpdateDecorator@@@@A@@YAXXZ ENDP ; `dynamic atexit destructor for 'CPooledObject<NEffectUpdateDecorator::CRotationDecorator>::ms_kPool''
text$yd	ENDS
; Function compile flags: /Ogtp
; File D:\Metin2 Server Files\mainline\SRC_2014\Metin2Client\eterLib\Pool.h
;	COMDAT ??__E?ms_kPool@?$CPooledObject@VCRotationDecorator@NEffectUpdateDecorator@@@@1V?$CDynamicPoolEx@VCRotationDecorator@NEffectUpdateDecorator@@@@A@@YAXXZ
text$di	SEGMENT
??__E?ms_kPool@?$CPooledObject@VCRotationDecorator@NEffectUpdateDecorator@@@@1V?$CDynamicPoolEx@VCRotationDecorator@NEffectUpdateDecorator@@@@A@@YAXXZ PROC ; `dynamic initializer for 'CPooledObject<NEffectUpdateDecorator::CRotationDecorator>::ms_kPool'', COMDAT

; 272  : template <class T> CDynamicPoolEx<T> CPooledObject<T>::ms_kPool;

  00000	68 00 00 00 00	 push	 OFFSET ??__F?ms_kPool@?$CPooledObject@VCRotationDecorator@NEffectUpdateDecorator@@@@1V?$CDynamicPoolEx@VCRotationDecorator@NEffectUpdateDecorator@@@@A@@YAXXZ ; `dynamic atexit destructor for 'CPooledObject<NEffectUpdateDecorator::CRotationDecorator>::ms_kPool''
  00005	e8 00 00 00 00	 call	 _atexit
  0000a	59		 pop	 ecx
  0000b	c3		 ret	 0
??__E?ms_kPool@?$CPooledObject@VCRotationDecorator@NEffectUpdateDecorator@@@@1V?$CDynamicPoolEx@VCRotationDecorator@NEffectUpdateDecorator@@@@A@@YAXXZ ENDP ; `dynamic initializer for 'CPooledObject<NEffectUpdateDecorator::CRotationDecorator>::ms_kPool''
text$di	ENDS
; Function compile flags: /Ogtp
;	COMDAT ??__F?ms_kPool@?$CPooledObject@VCGravityDecorator@NEffectUpdateDecorator@@@@1V?$CDynamicPoolEx@VCGravityDecorator@NEffectUpdateDecorator@@@@A@@YAXXZ
text$yd	SEGMENT
??__F?ms_kPool@?$CPooledObject@VCGravityDecorator@NEffectUpdateDecorator@@@@1V?$CDynamicPoolEx@VCGravityDecorator@NEffectUpdateDecorator@@@@A@@YAXXZ PROC ; `dynamic atexit destructor for 'CPooledObject<NEffectUpdateDecorator::CGravityDecorator>::ms_kPool'', COMDAT
  00000	b9 00 00 00 00	 mov	 ecx, OFFSET ?ms_kPool@?$CPooledObject@VCGravityDecorator@NEffectUpdateDecorator@@@@1V?$CDynamicPoolEx@VCGravityDecorator@NEffectUpdateDecorator@@@@A ; CPooledObject<NEffectUpdateDecorator::CGravityDecorator>::ms_kPool
  00005	e9 00 00 00 00	 jmp	 ??1?$CDynamicPoolEx@VCGravityDecorator@NEffectUpdateDecorator@@@@UAE@XZ ; CDynamicPoolEx<NEffectUpdateDecorator::CGravityDecorator>::~CDynamicPoolEx<NEffectUpdateDecorator::CGravityDecorator>
??__F?ms_kPool@?$CPooledObject@VCGravityDecorator@NEffectUpdateDecorator@@@@1V?$CDynamicPoolEx@VCGravityDecorator@NEffectUpdateDecorator@@@@A@@YAXXZ ENDP ; `dynamic atexit destructor for 'CPooledObject<NEffectUpdateDecorator::CGravityDecorator>::ms_kPool''
text$yd	ENDS
; Function compile flags: /Ogtp
; File D:\Metin2 Server Files\mainline\SRC_2014\Metin2Client\eterLib\Pool.h
;	COMDAT ??__E?ms_kPool@?$CPooledObject@VCGravityDecorator@NEffectUpdateDecorator@@@@1V?$CDynamicPoolEx@VCGravityDecorator@NEffectUpdateDecorator@@@@A@@YAXXZ
text$di	SEGMENT
??__E?ms_kPool@?$CPooledObject@VCGravityDecorator@NEffectUpdateDecorator@@@@1V?$CDynamicPoolEx@VCGravityDecorator@NEffectUpdateDecorator@@@@A@@YAXXZ PROC ; `dynamic initializer for 'CPooledObject<NEffectUpdateDecorator::CGravityDecorator>::ms_kPool'', COMDAT

; 272  : template <class T> CDynamicPoolEx<T> CPooledObject<T>::ms_kPool;

  00000	68 00 00 00 00	 push	 OFFSET ??__F?ms_kPool@?$CPooledObject@VCGravityDecorator@NEffectUpdateDecorator@@@@1V?$CDynamicPoolEx@VCGravityDecorator@NEffectUpdateDecorator@@@@A@@YAXXZ ; `dynamic atexit destructor for 'CPooledObject<NEffectUpdateDecorator::CGravityDecorator>::ms_kPool''
  00005	e8 00 00 00 00	 call	 _atexit
  0000a	59		 pop	 ecx
  0000b	c3		 ret	 0
??__E?ms_kPool@?$CPooledObject@VCGravityDecorator@NEffectUpdateDecorator@@@@1V?$CDynamicPoolEx@VCGravityDecorator@NEffectUpdateDecorator@@@@A@@YAXXZ ENDP ; `dynamic initializer for 'CPooledObject<NEffectUpdateDecorator::CGravityDecorator>::ms_kPool''
text$di	ENDS
; Function compile flags: /Ogtp
;	COMDAT ??__F?ms_kPool@?$CPooledObject@VCAirResistanceDecorator@NEffectUpdateDecorator@@@@1V?$CDynamicPoolEx@VCAirResistanceDecorator@NEffectUpdateDecorator@@@@A@@YAXXZ
text$yd	SEGMENT
??__F?ms_kPool@?$CPooledObject@VCAirResistanceDecorator@NEffectUpdateDecorator@@@@1V?$CDynamicPoolEx@VCAirResistanceDecorator@NEffectUpdateDecorator@@@@A@@YAXXZ PROC ; `dynamic atexit destructor for 'CPooledObject<NEffectUpdateDecorator::CAirResistanceDecorator>::ms_kPool'', COMDAT
  00000	b9 00 00 00 00	 mov	 ecx, OFFSET ?ms_kPool@?$CPooledObject@VCAirResistanceDecorator@NEffectUpdateDecorator@@@@1V?$CDynamicPoolEx@VCAirResistanceDecorator@NEffectUpdateDecorator@@@@A ; CPooledObject<NEffectUpdateDecorator::CAirResistanceDecorator>::ms_kPool
  00005	e9 00 00 00 00	 jmp	 ??1?$CDynamicPoolEx@VCAirResistanceDecorator@NEffectUpdateDecorator@@@@UAE@XZ ; CDynamicPoolEx<NEffectUpdateDecorator::CAirResistanceDecorator>::~CDynamicPoolEx<NEffectUpdateDecorator::CAirResistanceDecorator>
??__F?ms_kPool@?$CPooledObject@VCAirResistanceDecorator@NEffectUpdateDecorator@@@@1V?$CDynamicPoolEx@VCAirResistanceDecorator@NEffectUpdateDecorator@@@@A@@YAXXZ ENDP ; `dynamic atexit destructor for 'CPooledObject<NEffectUpdateDecorator::CAirResistanceDecorator>::ms_kPool''
text$yd	ENDS
; Function compile flags: /Ogtp
; File D:\Metin2 Server Files\mainline\SRC_2014\Metin2Client\eterLib\Pool.h
;	COMDAT ??__E?ms_kPool@?$CPooledObject@VCAirResistanceDecorator@NEffectUpdateDecorator@@@@1V?$CDynamicPoolEx@VCAirResistanceDecorator@NEffectUpdateDecorator@@@@A@@YAXXZ
text$di	SEGMENT
??__E?ms_kPool@?$CPooledObject@VCAirResistanceDecorator@NEffectUpdateDecorator@@@@1V?$CDynamicPoolEx@VCAirResistanceDecorator@NEffectUpdateDecorator@@@@A@@YAXXZ PROC ; `dynamic initializer for 'CPooledObject<NEffectUpdateDecorator::CAirResistanceDecorator>::ms_kPool'', COMDAT

; 272  : template <class T> CDynamicPoolEx<T> CPooledObject<T>::ms_kPool;

  00000	68 00 00 00 00	 push	 OFFSET ??__F?ms_kPool@?$CPooledObject@VCAirResistanceDecorator@NEffectUpdateDecorator@@@@1V?$CDynamicPoolEx@VCAirResistanceDecorator@NEffectUpdateDecorator@@@@A@@YAXXZ ; `dynamic atexit destructor for 'CPooledObject<NEffectUpdateDecorator::CAirResistanceDecorator>::ms_kPool''
  00005	e8 00 00 00 00	 call	 _atexit
  0000a	59		 pop	 ecx
  0000b	c3		 ret	 0
??__E?ms_kPool@?$CPooledObject@VCAirResistanceDecorator@NEffectUpdateDecorator@@@@1V?$CDynamicPoolEx@VCAirResistanceDecorator@NEffectUpdateDecorator@@@@A@@YAXXZ ENDP ; `dynamic initializer for 'CPooledObject<NEffectUpdateDecorator::CAirResistanceDecorator>::ms_kPool''
text$di	ENDS
; Function compile flags: /Ogtp
;	COMDAT ??__F?ms_kPool@?$CPooledObject@VCTextureAnimationRandomDecorator@NEffectUpdateDecorator@@@@1V?$CDynamicPoolEx@VCTextureAnimationRandomDecorator@NEffectUpdateDecorator@@@@A@@YAXXZ
text$yd	SEGMENT
??__F?ms_kPool@?$CPooledObject@VCTextureAnimationRandomDecorator@NEffectUpdateDecorator@@@@1V?$CDynamicPoolEx@VCTextureAnimationRandomDecorator@NEffectUpdateDecorator@@@@A@@YAXXZ PROC ; `dynamic atexit destructor for 'CPooledObject<NEffectUpdateDecorator::CTextureAnimationRandomDecorator>::ms_kPool'', COMDAT
  00000	b9 00 00 00 00	 mov	 ecx, OFFSET ?ms_kPool@?$CPooledObject@VCTextureAnimationRandomDecorator@NEffectUpdateDecorator@@@@1V?$CDynamicPoolEx@VCTextureAnimationRandomDecorator@NEffectUpdateDecorator@@@@A ; CPooledObject<NEffectUpdateDecorator::CTextureAnimationRandomDecorator>::ms_kPool
  00005	e9 00 00 00 00	 jmp	 ??1?$CDynamicPoolEx@VCTextureAnimationRandomDecorator@NEffectUpdateDecorator@@@@UAE@XZ ; CDynamicPoolEx<NEffectUpdateDecorator::CTextureAnimationRandomDecorator>::~CDynamicPoolEx<NEffectUpdateDecorator::CTextureAnimationRandomDecorator>
??__F?ms_kPool@?$CPooledObject@VCTextureAnimationRandomDecorator@NEffectUpdateDecorator@@@@1V?$CDynamicPoolEx@VCTextureAnimationRandomDecorator@NEffectUpdateDecorator@@@@A@@YAXXZ ENDP ; `dynamic atexit destructor for 'CPooledObject<NEffectUpdateDecorator::CTextureAnimationRandomDecorator>::ms_kPool''
text$yd	ENDS
; Function compile flags: /Ogtp
; File D:\Metin2 Server Files\mainline\SRC_2014\Metin2Client\eterLib\Pool.h
;	COMDAT ??__E?ms_kPool@?$CPooledObject@VCTextureAnimationRandomDecorator@NEffectUpdateDecorator@@@@1V?$CDynamicPoolEx@VCTextureAnimationRandomDecorator@NEffectUpdateDecorator@@@@A@@YAXXZ
text$di	SEGMENT
??__E?ms_kPool@?$CPooledObject@VCTextureAnimationRandomDecorator@NEffectUpdateDecorator@@@@1V?$CDynamicPoolEx@VCTextureAnimationRandomDecorator@NEffectUpdateDecorator@@@@A@@YAXXZ PROC ; `dynamic initializer for 'CPooledObject<NEffectUpdateDecorator::CTextureAnimationRandomDecorator>::ms_kPool'', COMDAT

; 272  : template <class T> CDynamicPoolEx<T> CPooledObject<T>::ms_kPool;

  00000	68 00 00 00 00	 push	 OFFSET ??__F?ms_kPool@?$CPooledObject@VCTextureAnimationRandomDecorator@NEffectUpdateDecorator@@@@1V?$CDynamicPoolEx@VCTextureAnimationRandomDecorator@NEffectUpdateDecorator@@@@A@@YAXXZ ; `dynamic atexit destructor for 'CPooledObject<NEffectUpdateDecorator::CTextureAnimationRandomDecorator>::ms_kPool''
  00005	e8 00 00 00 00	 call	 _atexit
  0000a	59		 pop	 ecx
  0000b	c3		 ret	 0
??__E?ms_kPool@?$CPooledObject@VCTextureAnimationRandomDecorator@NEffectUpdateDecorator@@@@1V?$CDynamicPoolEx@VCTextureAnimationRandomDecorator@NEffectUpdateDecorator@@@@A@@YAXXZ ENDP ; `dynamic initializer for 'CPooledObject<NEffectUpdateDecorator::CTextureAnimationRandomDecorator>::ms_kPool''
text$di	ENDS
; Function compile flags: /Ogtp
;	COMDAT ??__F?ms_kPool@?$CPooledObject@VCTextureAnimationCCWDecorator@NEffectUpdateDecorator@@@@1V?$CDynamicPoolEx@VCTextureAnimationCCWDecorator@NEffectUpdateDecorator@@@@A@@YAXXZ
text$yd	SEGMENT
??__F?ms_kPool@?$CPooledObject@VCTextureAnimationCCWDecorator@NEffectUpdateDecorator@@@@1V?$CDynamicPoolEx@VCTextureAnimationCCWDecorator@NEffectUpdateDecorator@@@@A@@YAXXZ PROC ; `dynamic atexit destructor for 'CPooledObject<NEffectUpdateDecorator::CTextureAnimationCCWDecorator>::ms_kPool'', COMDAT
  00000	b9 00 00 00 00	 mov	 ecx, OFFSET ?ms_kPool@?$CPooledObject@VCTextureAnimationCCWDecorator@NEffectUpdateDecorator@@@@1V?$CDynamicPoolEx@VCTextureAnimationCCWDecorator@NEffectUpdateDecorator@@@@A ; CPooledObject<NEffectUpdateDecorator::CTextureAnimationCCWDecorator>::ms_kPool
  00005	e9 00 00 00 00	 jmp	 ??1?$CDynamicPoolEx@VCTextureAnimationCCWDecorator@NEffectUpdateDecorator@@@@UAE@XZ ; CDynamicPoolEx<NEffectUpdateDecorator::CTextureAnimationCCWDecorator>::~CDynamicPoolEx<NEffectUpdateDecorator::CTextureAnimationCCWDecorator>
??__F?ms_kPool@?$CPooledObject@VCTextureAnimationCCWDecorator@NEffectUpdateDecorator@@@@1V?$CDynamicPoolEx@VCTextureAnimationCCWDecorator@NEffectUpdateDecorator@@@@A@@YAXXZ ENDP ; `dynamic atexit destructor for 'CPooledObject<NEffectUpdateDecorator::CTextureAnimationCCWDecorator>::ms_kPool''
text$yd	ENDS
; Function compile flags: /Ogtp
; File D:\Metin2 Server Files\mainline\SRC_2014\Metin2Client\eterLib\Pool.h
;	COMDAT ??__E?ms_kPool@?$CPooledObject@VCTextureAnimationCCWDecorator@NEffectUpdateDecorator@@@@1V?$CDynamicPoolEx@VCTextureAnimationCCWDecorator@NEffectUpdateDecorator@@@@A@@YAXXZ
text$di	SEGMENT
??__E?ms_kPool@?$CPooledObject@VCTextureAnimationCCWDecorator@NEffectUpdateDecorator@@@@1V?$CDynamicPoolEx@VCTextureAnimationCCWDecorator@NEffectUpdateDecorator@@@@A@@YAXXZ PROC ; `dynamic initializer for 'CPooledObject<NEffectUpdateDecorator::CTextureAnimationCCWDecorator>::ms_kPool'', COMDAT

; 272  : template <class T> CDynamicPoolEx<T> CPooledObject<T>::ms_kPool;

  00000	68 00 00 00 00	 push	 OFFSET ??__F?ms_kPool@?$CPooledObject@VCTextureAnimationCCWDecorator@NEffectUpdateDecorator@@@@1V?$CDynamicPoolEx@VCTextureAnimationCCWDecorator@NEffectUpdateDecorator@@@@A@@YAXXZ ; `dynamic atexit destructor for 'CPooledObject<NEffectUpdateDecorator::CTextureAnimationCCWDecorator>::ms_kPool''
  00005	e8 00 00 00 00	 call	 _atexit
  0000a	59		 pop	 ecx
  0000b	c3		 ret	 0
??__E?ms_kPool@?$CPooledObject@VCTextureAnimationCCWDecorator@NEffectUpdateDecorator@@@@1V?$CDynamicPoolEx@VCTextureAnimationCCWDecorator@NEffectUpdateDecorator@@@@A@@YAXXZ ENDP ; `dynamic initializer for 'CPooledObject<NEffectUpdateDecorator::CTextureAnimationCCWDecorator>::ms_kPool''
text$di	ENDS
; Function compile flags: /Ogtp
;	COMDAT ??__F?ms_kPool@?$CPooledObject@VCTextureAnimationCWDecorator@NEffectUpdateDecorator@@@@1V?$CDynamicPoolEx@VCTextureAnimationCWDecorator@NEffectUpdateDecorator@@@@A@@YAXXZ
text$yd	SEGMENT
??__F?ms_kPool@?$CPooledObject@VCTextureAnimationCWDecorator@NEffectUpdateDecorator@@@@1V?$CDynamicPoolEx@VCTextureAnimationCWDecorator@NEffectUpdateDecorator@@@@A@@YAXXZ PROC ; `dynamic atexit destructor for 'CPooledObject<NEffectUpdateDecorator::CTextureAnimationCWDecorator>::ms_kPool'', COMDAT
  00000	b9 00 00 00 00	 mov	 ecx, OFFSET ?ms_kPool@?$CPooledObject@VCTextureAnimationCWDecorator@NEffectUpdateDecorator@@@@1V?$CDynamicPoolEx@VCTextureAnimationCWDecorator@NEffectUpdateDecorator@@@@A ; CPooledObject<NEffectUpdateDecorator::CTextureAnimationCWDecorator>::ms_kPool
  00005	e9 00 00 00 00	 jmp	 ??1?$CDynamicPoolEx@VCTextureAnimationCWDecorator@NEffectUpdateDecorator@@@@UAE@XZ ; CDynamicPoolEx<NEffectUpdateDecorator::CTextureAnimationCWDecorator>::~CDynamicPoolEx<NEffectUpdateDecorator::CTextureAnimationCWDecorator>
??__F?ms_kPool@?$CPooledObject@VCTextureAnimationCWDecorator@NEffectUpdateDecorator@@@@1V?$CDynamicPoolEx@VCTextureAnimationCWDecorator@NEffectUpdateDecorator@@@@A@@YAXXZ ENDP ; `dynamic atexit destructor for 'CPooledObject<NEffectUpdateDecorator::CTextureAnimationCWDecorator>::ms_kPool''
text$yd	ENDS
; Function compile flags: /Ogtp
; File D:\Metin2 Server Files\mainline\SRC_2014\Metin2Client\eterLib\Pool.h
;	COMDAT ??__E?ms_kPool@?$CPooledObject@VCTextureAnimationCWDecorator@NEffectUpdateDecorator@@@@1V?$CDynamicPoolEx@VCTextureAnimationCWDecorator@NEffectUpdateDecorator@@@@A@@YAXXZ
text$di	SEGMENT
??__E?ms_kPool@?$CPooledObject@VCTextureAnimationCWDecorator@NEffectUpdateDecorator@@@@1V?$CDynamicPoolEx@VCTextureAnimationCWDecorator@NEffectUpdateDecorator@@@@A@@YAXXZ PROC ; `dynamic initializer for 'CPooledObject<NEffectUpdateDecorator::CTextureAnimationCWDecorator>::ms_kPool'', COMDAT

; 272  : template <class T> CDynamicPoolEx<T> CPooledObject<T>::ms_kPool;

  00000	68 00 00 00 00	 push	 OFFSET ??__F?ms_kPool@?$CPooledObject@VCTextureAnimationCWDecorator@NEffectUpdateDecorator@@@@1V?$CDynamicPoolEx@VCTextureAnimationCWDecorator@NEffectUpdateDecorator@@@@A@@YAXXZ ; `dynamic atexit destructor for 'CPooledObject<NEffectUpdateDecorator::CTextureAnimationCWDecorator>::ms_kPool''
  00005	e8 00 00 00 00	 call	 _atexit
  0000a	59		 pop	 ecx
  0000b	c3		 ret	 0
??__E?ms_kPool@?$CPooledObject@VCTextureAnimationCWDecorator@NEffectUpdateDecorator@@@@1V?$CDynamicPoolEx@VCTextureAnimationCWDecorator@NEffectUpdateDecorator@@@@A@@YAXXZ ENDP ; `dynamic initializer for 'CPooledObject<NEffectUpdateDecorator::CTextureAnimationCWDecorator>::ms_kPool''
text$di	ENDS
; Function compile flags: /Ogtp
;	COMDAT ??__F?ms_kPool@?$CPooledObject@VCNullDecorator@NEffectUpdateDecorator@@@@1V?$CDynamicPoolEx@VCNullDecorator@NEffectUpdateDecorator@@@@A@@YAXXZ
text$yd	SEGMENT
??__F?ms_kPool@?$CPooledObject@VCNullDecorator@NEffectUpdateDecorator@@@@1V?$CDynamicPoolEx@VCNullDecorator@NEffectUpdateDecorator@@@@A@@YAXXZ PROC ; `dynamic atexit destructor for 'CPooledObject<NEffectUpdateDecorator::CNullDecorator>::ms_kPool'', COMDAT
  00000	b9 00 00 00 00	 mov	 ecx, OFFSET ?ms_kPool@?$CPooledObject@VCNullDecorator@NEffectUpdateDecorator@@@@1V?$CDynamicPoolEx@VCNullDecorator@NEffectUpdateDecorator@@@@A ; CPooledObject<NEffectUpdateDecorator::CNullDecorator>::ms_kPool
  00005	e9 00 00 00 00	 jmp	 ??1?$CDynamicPoolEx@VCNullDecorator@NEffectUpdateDecorator@@@@UAE@XZ ; CDynamicPoolEx<NEffectUpdateDecorator::CNullDecorator>::~CDynamicPoolEx<NEffectUpdateDecorator::CNullDecorator>
??__F?ms_kPool@?$CPooledObject@VCNullDecorator@NEffectUpdateDecorator@@@@1V?$CDynamicPoolEx@VCNullDecorator@NEffectUpdateDecorator@@@@A@@YAXXZ ENDP ; `dynamic atexit destructor for 'CPooledObject<NEffectUpdateDecorator::CNullDecorator>::ms_kPool''
text$yd	ENDS
; Function compile flags: /Ogtp
; File D:\Metin2 Server Files\mainline\SRC_2014\Metin2Client\eterLib\Pool.h
;	COMDAT ??__E?ms_kPool@?$CPooledObject@VCNullDecorator@NEffectUpdateDecorator@@@@1V?$CDynamicPoolEx@VCNullDecorator@NEffectUpdateDecorator@@@@A@@YAXXZ
text$di	SEGMENT
??__E?ms_kPool@?$CPooledObject@VCNullDecorator@NEffectUpdateDecorator@@@@1V?$CDynamicPoolEx@VCNullDecorator@NEffectUpdateDecorator@@@@A@@YAXXZ PROC ; `dynamic initializer for 'CPooledObject<NEffectUpdateDecorator::CNullDecorator>::ms_kPool'', COMDAT

; 272  : template <class T> CDynamicPoolEx<T> CPooledObject<T>::ms_kPool;

  00000	68 00 00 00 00	 push	 OFFSET ??__F?ms_kPool@?$CPooledObject@VCNullDecorator@NEffectUpdateDecorator@@@@1V?$CDynamicPoolEx@VCNullDecorator@NEffectUpdateDecorator@@@@A@@YAXXZ ; `dynamic atexit destructor for 'CPooledObject<NEffectUpdateDecorator::CNullDecorator>::ms_kPool''
  00005	e8 00 00 00 00	 call	 _atexit
  0000a	59		 pop	 ecx
  0000b	c3		 ret	 0
??__E?ms_kPool@?$CPooledObject@VCNullDecorator@NEffectUpdateDecorator@@@@1V?$CDynamicPoolEx@VCNullDecorator@NEffectUpdateDecorator@@@@A@@YAXXZ ENDP ; `dynamic initializer for 'CPooledObject<NEffectUpdateDecorator::CNullDecorator>::ms_kPool''
text$di	ENDS
; Function compile flags: /Ogtp
;	COMDAT ??__F?ms_kPool@?$CPooledObject@VCHeaderDecorator@NEffectUpdateDecorator@@@@1V?$CDynamicPoolEx@VCHeaderDecorator@NEffectUpdateDecorator@@@@A@@YAXXZ
text$yd	SEGMENT
??__F?ms_kPool@?$CPooledObject@VCHeaderDecorator@NEffectUpdateDecorator@@@@1V?$CDynamicPoolEx@VCHeaderDecorator@NEffectUpdateDecorator@@@@A@@YAXXZ PROC ; `dynamic atexit destructor for 'CPooledObject<NEffectUpdateDecorator::CHeaderDecorator>::ms_kPool'', COMDAT
  00000	b9 00 00 00 00	 mov	 ecx, OFFSET ?ms_kPool@?$CPooledObject@VCHeaderDecorator@NEffectUpdateDecorator@@@@1V?$CDynamicPoolEx@VCHeaderDecorator@NEffectUpdateDecorator@@@@A ; CPooledObject<NEffectUpdateDecorator::CHeaderDecorator>::ms_kPool
  00005	e9 00 00 00 00	 jmp	 ??1?$CDynamicPoolEx@VCHeaderDecorator@NEffectUpdateDecorator@@@@UAE@XZ ; CDynamicPoolEx<NEffectUpdateDecorator::CHeaderDecorator>::~CDynamicPoolEx<NEffectUpdateDecorator::CHeaderDecorator>
??__F?ms_kPool@?$CPooledObject@VCHeaderDecorator@NEffectUpdateDecorator@@@@1V?$CDynamicPoolEx@VCHeaderDecorator@NEffectUpdateDecorator@@@@A@@YAXXZ ENDP ; `dynamic atexit destructor for 'CPooledObject<NEffectUpdateDecorator::CHeaderDecorator>::ms_kPool''
text$yd	ENDS
; Function compile flags: /Ogtp
; File D:\Metin2 Server Files\mainline\SRC_2014\Metin2Client\eterLib\Pool.h
;	COMDAT ??__E?ms_kPool@?$CPooledObject@VCHeaderDecorator@NEffectUpdateDecorator@@@@1V?$CDynamicPoolEx@VCHeaderDecorator@NEffectUpdateDecorator@@@@A@@YAXXZ
text$di	SEGMENT
??__E?ms_kPool@?$CPooledObject@VCHeaderDecorator@NEffectUpdateDecorator@@@@1V?$CDynamicPoolEx@VCHeaderDecorator@NEffectUpdateDecorator@@@@A@@YAXXZ PROC ; `dynamic initializer for 'CPooledObject<NEffectUpdateDecorator::CHeaderDecorator>::ms_kPool'', COMDAT

; 272  : template <class T> CDynamicPoolEx<T> CPooledObject<T>::ms_kPool;

  00000	68 00 00 00 00	 push	 OFFSET ??__F?ms_kPool@?$CPooledObject@VCHeaderDecorator@NEffectUpdateDecorator@@@@1V?$CDynamicPoolEx@VCHeaderDecorator@NEffectUpdateDecorator@@@@A@@YAXXZ ; `dynamic atexit destructor for 'CPooledObject<NEffectUpdateDecorator::CHeaderDecorator>::ms_kPool''
  00005	e8 00 00 00 00	 call	 _atexit
  0000a	59		 pop	 ecx
  0000b	c3		 ret	 0
??__E?ms_kPool@?$CPooledObject@VCHeaderDecorator@NEffectUpdateDecorator@@@@1V?$CDynamicPoolEx@VCHeaderDecorator@NEffectUpdateDecorator@@@@A@@YAXXZ ENDP ; `dynamic initializer for 'CPooledObject<NEffectUpdateDecorator::CHeaderDecorator>::ms_kPool''
text$di	ENDS
; Function compile flags: /Ogtp
; File C:\Program Files (x86)\Microsoft Visual Studio\2019\Community\VC\Tools\MSVC\14.28.29333\include\xmemory
;	COMDAT ??$_Destroy_range@V?$allocator@PAVCRotationDecorator@NEffectUpdateDecorator@@@std@@@std@@YAXPAPAVCRotationDecorator@NEffectUpdateDecorator@@QAPAV12@AAV?$allocator@PAVCRotationDecorator@NEffectUpdateDecorator@@@0@@Z
_TEXT	SEGMENT
__First$ = 8						; size = 4
__Last$ = 12						; size = 4
__Al$ = 16						; size = 4
??$_Destroy_range@V?$allocator@PAVCRotationDecorator@NEffectUpdateDecorator@@@std@@@std@@YAXPAPAVCRotationDecorator@NEffectUpdateDecorator@@QAPAV12@AAV?$allocator@PAVCRotationDecorator@NEffectUpdateDecorator@@@0@@Z PROC ; std::_Destroy_range<std::allocator<NEffectUpdateDecorator::CRotationDecorator *> >, COMDAT

; 963  :     // note that this is an optimization for debug mode codegen; in release mode the BE removes all of this
; 964  :     using _Ty = typename _Alloc::value_type;
; 965  :     if _CONSTEXPR_IF (!conjunction_v<is_trivially_destructible<_Ty>, _Uses_default_destroy<_Alloc, _Ty*>>) {
; 966  :         for (; _First != _Last; ++_First) {
; 967  :             allocator_traits<_Alloc>::destroy(_Al, _Unfancy(_First));
; 968  :         }
; 969  :     }
; 970  : }

  00000	c2 00 00	 ret	 0
??$_Destroy_range@V?$allocator@PAVCRotationDecorator@NEffectUpdateDecorator@@@std@@@std@@YAXPAPAVCRotationDecorator@NEffectUpdateDecorator@@QAPAV12@AAV?$allocator@PAVCRotationDecorator@NEffectUpdateDecorator@@@0@@Z ENDP ; std::_Destroy_range<std::allocator<NEffectUpdateDecorator::CRotationDecorator *> >
_TEXT	ENDS
; Function compile flags: /Ogtp
; File C:\Program Files (x86)\Microsoft Visual Studio\2019\Community\VC\Tools\MSVC\14.28.29333\include\xmemory
;	COMDAT ??$_Destroy_range@V?$allocator@PAVCGravityDecorator@NEffectUpdateDecorator@@@std@@@std@@YAXPAPAVCGravityDecorator@NEffectUpdateDecorator@@QAPAV12@AAV?$allocator@PAVCGravityDecorator@NEffectUpdateDecorator@@@0@@Z
_TEXT	SEGMENT
__First$ = 8						; size = 4
__Last$ = 12						; size = 4
__Al$ = 16						; size = 4
??$_Destroy_range@V?$allocator@PAVCGravityDecorator@NEffectUpdateDecorator@@@std@@@std@@YAXPAPAVCGravityDecorator@NEffectUpdateDecorator@@QAPAV12@AAV?$allocator@PAVCGravityDecorator@NEffectUpdateDecorator@@@0@@Z PROC ; std::_Destroy_range<std::allocator<NEffectUpdateDecorator::CGravityDecorator *> >, COMDAT

; 963  :     // note that this is an optimization for debug mode codegen; in release mode the BE removes all of this
; 964  :     using _Ty = typename _Alloc::value_type;
; 965  :     if _CONSTEXPR_IF (!conjunction_v<is_trivially_destructible<_Ty>, _Uses_default_destroy<_Alloc, _Ty*>>) {
; 966  :         for (; _First != _Last; ++_First) {
; 967  :             allocator_traits<_Alloc>::destroy(_Al, _Unfancy(_First));
; 968  :         }
; 969  :     }
; 970  : }

  00000	c2 00 00	 ret	 0
??$_Destroy_range@V?$allocator@PAVCGravityDecorator@NEffectUpdateDecorator@@@std@@@std@@YAXPAPAVCGravityDecorator@NEffectUpdateDecorator@@QAPAV12@AAV?$allocator@PAVCGravityDecorator@NEffectUpdateDecorator@@@0@@Z ENDP ; std::_Destroy_range<std::allocator<NEffectUpdateDecorator::CGravityDecorator *> >
_TEXT	ENDS
; Function compile flags: /Ogtp
; File C:\Program Files (x86)\Microsoft Visual Studio\2019\Community\VC\Tools\MSVC\14.28.29333\include\xmemory
;	COMDAT ??$_Destroy_range@V?$allocator@PAVCAirResistanceDecorator@NEffectUpdateDecorator@@@std@@@std@@YAXPAPAVCAirResistanceDecorator@NEffectUpdateDecorator@@QAPAV12@AAV?$allocator@PAVCAirResistanceDecorator@NEffectUpdateDecorator@@@0@@Z
_TEXT	SEGMENT
__First$ = 8						; size = 4
__Last$ = 12						; size = 4
__Al$ = 16						; size = 4
??$_Destroy_range@V?$allocator@PAVCAirResistanceDecorator@NEffectUpdateDecorator@@@std@@@std@@YAXPAPAVCAirResistanceDecorator@NEffectUpdateDecorator@@QAPAV12@AAV?$allocator@PAVCAirResistanceDecorator@NEffectUpdateDecorator@@@0@@Z PROC ; std::_Destroy_range<std::allocator<NEffectUpdateDecorator::CAirResistanceDecorator *> >, COMDAT

; 963  :     // note that this is an optimization for debug mode codegen; in release mode the BE removes all of this
; 964  :     using _Ty = typename _Alloc::value_type;
; 965  :     if _CONSTEXPR_IF (!conjunction_v<is_trivially_destructible<_Ty>, _Uses_default_destroy<_Alloc, _Ty*>>) {
; 966  :         for (; _First != _Last; ++_First) {
; 967  :             allocator_traits<_Alloc>::destroy(_Al, _Unfancy(_First));
; 968  :         }
; 969  :     }
; 970  : }

  00000	c2 00 00	 ret	 0
??$_Destroy_range@V?$allocator@PAVCAirResistanceDecorator@NEffectUpdateDecorator@@@std@@@std@@YAXPAPAVCAirResistanceDecorator@NEffectUpdateDecorator@@QAPAV12@AAV?$allocator@PAVCAirResistanceDecorator@NEffectUpdateDecorator@@@0@@Z ENDP ; std::_Destroy_range<std::allocator<NEffectUpdateDecorator::CAirResistanceDecorator *> >
_TEXT	ENDS
; Function compile flags: /Ogtp
; File C:\Program Files (x86)\Microsoft Visual Studio\2019\Community\VC\Tools\MSVC\14.28.29333\include\xmemory
;	COMDAT ??$_Destroy_range@V?$allocator@PAVCTextureAnimationRandomDecorator@NEffectUpdateDecorator@@@std@@@std@@YAXPAPAVCTextureAnimationRandomDecorator@NEffectUpdateDecorator@@QAPAV12@AAV?$allocator@PAVCTextureAnimationRandomDecorator@NEffectUpdateDecorator@@@0@@Z
_TEXT	SEGMENT
__First$ = 8						; size = 4
__Last$ = 12						; size = 4
__Al$ = 16						; size = 4
??$_Destroy_range@V?$allocator@PAVCTextureAnimationRandomDecorator@NEffectUpdateDecorator@@@std@@@std@@YAXPAPAVCTextureAnimationRandomDecorator@NEffectUpdateDecorator@@QAPAV12@AAV?$allocator@PAVCTextureAnimationRandomDecorator@NEffectUpdateDecorator@@@0@@Z PROC ; std::_Destroy_range<std::allocator<NEffectUpdateDecorator::CTextureAnimationRandomDecorator *> >, COMDAT

; 963  :     // note that this is an optimization for debug mode codegen; in release mode the BE removes all of this
; 964  :     using _Ty = typename _Alloc::value_type;
; 965  :     if _CONSTEXPR_IF (!conjunction_v<is_trivially_destructible<_Ty>, _Uses_default_destroy<_Alloc, _Ty*>>) {
; 966  :         for (; _First != _Last; ++_First) {
; 967  :             allocator_traits<_Alloc>::destroy(_Al, _Unfancy(_First));
; 968  :         }
; 969  :     }
; 970  : }

  00000	c2 00 00	 ret	 0
??$_Destroy_range@V?$allocator@PAVCTextureAnimationRandomDecorator@NEffectUpdateDecorator@@@std@@@std@@YAXPAPAVCTextureAnimationRandomDecorator@NEffectUpdateDecorator@@QAPAV12@AAV?$allocator@PAVCTextureAnimationRandomDecorator@NEffectUpdateDecorator@@@0@@Z ENDP ; std::_Destroy_range<std::allocator<NEffectUpdateDecorator::CTextureAnimationRandomDecorator *> >
_TEXT	ENDS
; Function compile flags: /Ogtp
; File C:\Program Files (x86)\Microsoft Visual Studio\2019\Community\VC\Tools\MSVC\14.28.29333\include\xmemory
;	COMDAT ??$_Destroy_range@V?$allocator@PAVCTextureAnimationCCWDecorator@NEffectUpdateDecorator@@@std@@@std@@YAXPAPAVCTextureAnimationCCWDecorator@NEffectUpdateDecorator@@QAPAV12@AAV?$allocator@PAVCTextureAnimationCCWDecorator@NEffectUpdateDecorator@@@0@@Z
_TEXT	SEGMENT
__First$ = 8						; size = 4
__Last$ = 12						; size = 4
__Al$ = 16						; size = 4
??$_Destroy_range@V?$allocator@PAVCTextureAnimationCCWDecorator@NEffectUpdateDecorator@@@std@@@std@@YAXPAPAVCTextureAnimationCCWDecorator@NEffectUpdateDecorator@@QAPAV12@AAV?$allocator@PAVCTextureAnimationCCWDecorator@NEffectUpdateDecorator@@@0@@Z PROC ; std::_Destroy_range<std::allocator<NEffectUpdateDecorator::CTextureAnimationCCWDecorator *> >, COMDAT

; 963  :     // note that this is an optimization for debug mode codegen; in release mode the BE removes all of this
; 964  :     using _Ty = typename _Alloc::value_type;
; 965  :     if _CONSTEXPR_IF (!conjunction_v<is_trivially_destructible<_Ty>, _Uses_default_destroy<_Alloc, _Ty*>>) {
; 966  :         for (; _First != _Last; ++_First) {
; 967  :             allocator_traits<_Alloc>::destroy(_Al, _Unfancy(_First));
; 968  :         }
; 969  :     }
; 970  : }

  00000	c2 00 00	 ret	 0
??$_Destroy_range@V?$allocator@PAVCTextureAnimationCCWDecorator@NEffectUpdateDecorator@@@std@@@std@@YAXPAPAVCTextureAnimationCCWDecorator@NEffectUpdateDecorator@@QAPAV12@AAV?$allocator@PAVCTextureAnimationCCWDecorator@NEffectUpdateDecorator@@@0@@Z ENDP ; std::_Destroy_range<std::allocator<NEffectUpdateDecorator::CTextureAnimationCCWDecorator *> >
_TEXT	ENDS
; Function compile flags: /Ogtp
; File C:\Program Files (x86)\Microsoft Visual Studio\2019\Community\VC\Tools\MSVC\14.28.29333\include\xmemory
;	COMDAT ??$_Destroy_range@V?$allocator@PAVCTextureAnimationCWDecorator@NEffectUpdateDecorator@@@std@@@std@@YAXPAPAVCTextureAnimationCWDecorator@NEffectUpdateDecorator@@QAPAV12@AAV?$allocator@PAVCTextureAnimationCWDecorator@NEffectUpdateDecorator@@@0@@Z
_TEXT	SEGMENT
__First$ = 8						; size = 4
__Last$ = 12						; size = 4
__Al$ = 16						; size = 4
??$_Destroy_range@V?$allocator@PAVCTextureAnimationCWDecorator@NEffectUpdateDecorator@@@std@@@std@@YAXPAPAVCTextureAnimationCWDecorator@NEffectUpdateDecorator@@QAPAV12@AAV?$allocator@PAVCTextureAnimationCWDecorator@NEffectUpdateDecorator@@@0@@Z PROC ; std::_Destroy_range<std::allocator<NEffectUpdateDecorator::CTextureAnimationCWDecorator *> >, COMDAT

; 963  :     // note that this is an optimization for debug mode codegen; in release mode the BE removes all of this
; 964  :     using _Ty = typename _Alloc::value_type;
; 965  :     if _CONSTEXPR_IF (!conjunction_v<is_trivially_destructible<_Ty>, _Uses_default_destroy<_Alloc, _Ty*>>) {
; 966  :         for (; _First != _Last; ++_First) {
; 967  :             allocator_traits<_Alloc>::destroy(_Al, _Unfancy(_First));
; 968  :         }
; 969  :     }
; 970  : }

  00000	c2 00 00	 ret	 0
??$_Destroy_range@V?$allocator@PAVCTextureAnimationCWDecorator@NEffectUpdateDecorator@@@std@@@std@@YAXPAPAVCTextureAnimationCWDecorator@NEffectUpdateDecorator@@QAPAV12@AAV?$allocator@PAVCTextureAnimationCWDecorator@NEffectUpdateDecorator@@@0@@Z ENDP ; std::_Destroy_range<std::allocator<NEffectUpdateDecorator::CTextureAnimationCWDecorator *> >
_TEXT	ENDS
; Function compile flags: /Ogtp
; File C:\Program Files (x86)\Microsoft Visual Studio\2019\Community\VC\Tools\MSVC\14.28.29333\include\xmemory
;	COMDAT ??$_Destroy_range@V?$allocator@PAVCNullDecorator@NEffectUpdateDecorator@@@std@@@std@@YAXPAPAVCNullDecorator@NEffectUpdateDecorator@@QAPAV12@AAV?$allocator@PAVCNullDecorator@NEffectUpdateDecorator@@@0@@Z
_TEXT	SEGMENT
__First$ = 8						; size = 4
__Last$ = 12						; size = 4
__Al$ = 16						; size = 4
??$_Destroy_range@V?$allocator@PAVCNullDecorator@NEffectUpdateDecorator@@@std@@@std@@YAXPAPAVCNullDecorator@NEffectUpdateDecorator@@QAPAV12@AAV?$allocator@PAVCNullDecorator@NEffectUpdateDecorator@@@0@@Z PROC ; std::_Destroy_range<std::allocator<NEffectUpdateDecorator::CNullDecorator *> >, COMDAT

; 963  :     // note that this is an optimization for debug mode codegen; in release mode the BE removes all of this
; 964  :     using _Ty = typename _Alloc::value_type;
; 965  :     if _CONSTEXPR_IF (!conjunction_v<is_trivially_destructible<_Ty>, _Uses_default_destroy<_Alloc, _Ty*>>) {
; 966  :         for (; _First != _Last; ++_First) {
; 967  :             allocator_traits<_Alloc>::destroy(_Al, _Unfancy(_First));
; 968  :         }
; 969  :     }
; 970  : }

  00000	c2 00 00	 ret	 0
??$_Destroy_range@V?$allocator@PAVCNullDecorator@NEffectUpdateDecorator@@@std@@@std@@YAXPAPAVCNullDecorator@NEffectUpdateDecorator@@QAPAV12@AAV?$allocator@PAVCNullDecorator@NEffectUpdateDecorator@@@0@@Z ENDP ; std::_Destroy_range<std::allocator<NEffectUpdateDecorator::CNullDecorator *> >
_TEXT	ENDS
; Function compile flags: /Ogtp
; File C:\Program Files (x86)\Microsoft Visual Studio\2019\Community\VC\Tools\MSVC\14.28.29333\include\xmemory
;	COMDAT ??$_Destroy_range@V?$allocator@PAVCHeaderDecorator@NEffectUpdateDecorator@@@std@@@std@@YAXPAPAVCHeaderDecorator@NEffectUpdateDecorator@@QAPAV12@AAV?$allocator@PAVCHeaderDecorator@NEffectUpdateDecorator@@@0@@Z
_TEXT	SEGMENT
__First$ = 8						; size = 4
__Last$ = 12						; size = 4
__Al$ = 16						; size = 4
??$_Destroy_range@V?$allocator@PAVCHeaderDecorator@NEffectUpdateDecorator@@@std@@@std@@YAXPAPAVCHeaderDecorator@NEffectUpdateDecorator@@QAPAV12@AAV?$allocator@PAVCHeaderDecorator@NEffectUpdateDecorator@@@0@@Z PROC ; std::_Destroy_range<std::allocator<NEffectUpdateDecorator::CHeaderDecorator *> >, COMDAT

; 963  :     // note that this is an optimization for debug mode codegen; in release mode the BE removes all of this
; 964  :     using _Ty = typename _Alloc::value_type;
; 965  :     if _CONSTEXPR_IF (!conjunction_v<is_trivially_destructible<_Ty>, _Uses_default_destroy<_Alloc, _Ty*>>) {
; 966  :         for (; _First != _Last; ++_First) {
; 967  :             allocator_traits<_Alloc>::destroy(_Al, _Unfancy(_First));
; 968  :         }
; 969  :     }
; 970  : }

  00000	c2 00 00	 ret	 0
??$_Destroy_range@V?$allocator@PAVCHeaderDecorator@NEffectUpdateDecorator@@@std@@@std@@YAXPAPAVCHeaderDecorator@NEffectUpdateDecorator@@QAPAV12@AAV?$allocator@PAVCHeaderDecorator@NEffectUpdateDecorator@@@0@@Z ENDP ; std::_Destroy_range<std::allocator<NEffectUpdateDecorator::CHeaderDecorator *> >
_TEXT	ENDS
; Function compile flags: /Ogtp
; File C:\Program Files (x86)\Microsoft Visual Studio\2019\Community\VC\Tools\MSVC\14.28.29333\include\xmemory
; File C:\Program Files (x86)\Microsoft Visual Studio\2019\Community\VC\Tools\MSVC\14.28.29333\include\xstring
; File C:\Program Files (x86)\Microsoft Visual Studio\2019\Community\VC\Tools\MSVC\14.28.29333\include\xmemory
; File C:\Program Files (x86)\Microsoft Visual Studio\2019\Community\VC\Tools\MSVC\14.28.29333\include\xstring
; File C:\Program Files (x86)\Microsoft Visual Studio\2019\Community\VC\Tools\MSVC\14.28.29333\include\xmemory
;	COMDAT ??$_Destroy_range@V?$allocator@V?$basic_string@DU?$char_traits@D@std@@V?$allocator@D@2@@std@@@std@@@std@@YAXPAV?$basic_string@DU?$char_traits@D@std@@V?$allocator@D@2@@0@QAV10@AAV?$allocator@V?$basic_string@DU?$char_traits@D@std@@V?$allocator@D@2@@std@@@0@@Z
_TEXT	SEGMENT
__First$ = 8						; size = 4
__Last$ = 12						; size = 4
__Al$ = 16						; size = 4
??$_Destroy_range@V?$allocator@V?$basic_string@DU?$char_traits@D@std@@V?$allocator@D@2@@std@@@std@@@std@@YAXPAV?$basic_string@DU?$char_traits@D@std@@V?$allocator@D@2@@0@QAV10@AAV?$allocator@V?$basic_string@DU?$char_traits@D@std@@V?$allocator@D@2@@std@@@0@@Z PROC ; std::_Destroy_range<std::allocator<std::basic_string<char,std::char_traits<char>,std::allocator<char> > > >, COMDAT

; 962  :     _Alloc_ptr_t<_Alloc> _First, const _Alloc_ptr_t<_Alloc> _Last, _Alloc& _Al) noexcept {

  00000	55		 push	 ebp
  00001	8b ec		 mov	 ebp, esp
  00003	56		 push	 esi

; 966  :         for (; _First != _Last; ++_First) {

  00004	8b 75 08	 mov	 esi, DWORD PTR __First$[ebp]
  00007	57		 push	 edi
  00008	8b 7d 0c	 mov	 edi, DWORD PTR __Last$[ebp]
  0000b	3b f7		 cmp	 esi, edi
  0000d	74 2d		 je	 SHORT $LN3@Destroy_ra
  0000f	90		 npad	 1
$LL4@Destroy_ra:
; File C:\Program Files (x86)\Microsoft Visual Studio\2019\Community\VC\Tools\MSVC\14.28.29333\include\xstring

; 2227 :         return _BUF_SIZE <= _Myres;

  00010	8b 46 14	 mov	 eax, DWORD PTR [esi+20]
  00013	83 f8 10	 cmp	 eax, 16			; 00000010H

; 4385 :         if (_Mypair._Myval2._Large_string_engaged()) {

  00016	72 0c		 jb	 SHORT $LN15@Destroy_ra

; 4386 :             const pointer _Ptr = _Mypair._Myval2._Bx._Ptr;
; 4387 :             auto& _Al          = _Getal();
; 4388 :             _Destroy_in_place(_Mypair._Myval2._Bx._Ptr);
; 4389 :             _Al.deallocate(_Ptr, _Mypair._Myval2._Myres + 1);

  00018	40		 inc	 eax
; File C:\Program Files (x86)\Microsoft Visual Studio\2019\Community\VC\Tools\MSVC\14.28.29333\include\xmemory

; 810  :         _Deallocate<_New_alignof<_Ty>>(_Ptr, sizeof(_Ty) * _Count);

  00019	50		 push	 eax
  0001a	ff 36		 push	 DWORD PTR [esi]
  0001c	e8 00 00 00 00	 call	 ??$_Deallocate@$07$0A@@std@@YAXPAXI@Z ; std::_Deallocate<8,0>
  00021	83 c4 08	 add	 esp, 8
$LN15@Destroy_ra:
; File C:\Program Files (x86)\Microsoft Visual Studio\2019\Community\VC\Tools\MSVC\14.28.29333\include\xstring

; 4392 :         _Mypair._Myval2._Mysize = 0;

  00024	c7 46 10 00 00
	00 00		 mov	 DWORD PTR [esi+16], 0

; 4393 :         _Mypair._Myval2._Myres  = _BUF_SIZE - 1;

  0002b	c7 46 14 0f 00
	00 00		 mov	 DWORD PTR [esi+20], 15	; 0000000fH

; 4394 :         // the _Traits::assign is last so the codegen doesn't think the char write can alias this
; 4395 :         _Traits::assign(_Mypair._Myval2._Bx._Buf[0], _Elem());

  00032	c6 06 00	 mov	 BYTE PTR [esi], 0
; File C:\Program Files (x86)\Microsoft Visual Studio\2019\Community\VC\Tools\MSVC\14.28.29333\include\xmemory

; 966  :         for (; _First != _Last; ++_First) {

  00035	83 c6 18	 add	 esi, 24			; 00000018H
  00038	3b f7		 cmp	 esi, edi
  0003a	75 d4		 jne	 SHORT $LL4@Destroy_ra
$LN3@Destroy_ra:
  0003c	5f		 pop	 edi

; 967  :             allocator_traits<_Alloc>::destroy(_Al, _Unfancy(_First));
; 968  :         }
; 969  :     }
; 970  : }

  0003d	5e		 pop	 esi
  0003e	5d		 pop	 ebp
  0003f	c3		 ret	 0
??$_Destroy_range@V?$allocator@V?$basic_string@DU?$char_traits@D@std@@V?$allocator@D@2@@std@@@std@@@std@@YAXPAV?$basic_string@DU?$char_traits@D@std@@V?$allocator@D@2@@0@QAV10@AAV?$allocator@V?$basic_string@DU?$char_traits@D@std@@V?$allocator@D@2@@std@@@0@@Z ENDP ; std::_Destroy_range<std::allocator<std::basic_string<char,std::char_traits<char>,std::allocator<char> > > >
_TEXT	ENDS
; Function compile flags: /Ogtp
; File C:\Program Files (x86)\Microsoft Visual Studio\2019\Community\VC\Tools\MSVC\14.28.29333\include\xmemory
;	COMDAT ??$_Destroy_in_place@PAV?$basic_string@DU?$char_traits@D@std@@V?$allocator@D@2@@std@@@std@@YAXAAPAV?$basic_string@DU?$char_traits@D@std@@V?$allocator@D@2@@0@@Z
_TEXT	SEGMENT
__Obj$ = 8						; size = 4
??$_Destroy_in_place@PAV?$basic_string@DU?$char_traits@D@std@@V?$allocator@D@2@@std@@@std@@YAXAAPAV?$basic_string@DU?$char_traits@D@std@@V?$allocator@D@2@@0@@Z PROC ; std::_Destroy_in_place<std::basic_string<char,std::char_traits<char>,std::allocator<char> > *>, COMDAT

; 271  : #if _HAS_IF_CONSTEXPR
; 272  :     if constexpr (is_array_v<_Ty>) {
; 273  :         _Destroy_range(_Obj, _Obj + extent_v<_Ty>);
; 274  :     } else
; 275  : #endif // _HAS_IF_CONSTEXPR
; 276  :     {
; 277  :         _Obj.~_Ty();
; 278  :     }
; 279  : }

  00000	c2 00 00	 ret	 0
??$_Destroy_in_place@PAV?$basic_string@DU?$char_traits@D@std@@V?$allocator@D@2@@std@@@std@@YAXAAPAV?$basic_string@DU?$char_traits@D@std@@V?$allocator@D@2@@0@@Z ENDP ; std::_Destroy_in_place<std::basic_string<char,std::char_traits<char>,std::allocator<char> > *>
_TEXT	ENDS
; Function compile flags: /Ogtp
; File C:\Program Files (x86)\Microsoft Visual Studio\2019\Community\VC\Tools\MSVC\14.28.29333\include\xmemory
;	COMDAT ??$_Delete_plain_internal@V?$allocator@U_Container_proxy@std@@@std@@@std@@YAXAAV?$allocator@U_Container_proxy@std@@@0@QAU_Container_proxy@0@@Z
_TEXT	SEGMENT
__Al$ = 8						; size = 4
__Ptr$ = 12						; size = 4
??$_Delete_plain_internal@V?$allocator@U_Container_proxy@std@@@std@@@std@@YAXAAV?$allocator@U_Container_proxy@std@@@0@QAU_Container_proxy@0@@Z PROC ; std::_Delete_plain_internal<std::allocator<std::_Container_proxy> >, COMDAT

; 1032 :     // destroy *_Ptr in place, then deallocate _Ptr using _Al; used for internal container types the user didn't name
; 1033 :     using _Ty = typename _Alloc::value_type;
; 1034 :     _Ptr->~_Ty();
; 1035 :     _Deallocate_plain(_Al, _Ptr);

  00000	e9 00 00 00 00	 jmp	 ??$_Deallocate_plain@V?$allocator@U_Container_proxy@std@@@std@@@std@@YAXAAV?$allocator@U_Container_proxy@std@@@0@QAU_Container_proxy@0@@Z ; std::_Deallocate_plain<std::allocator<std::_Container_proxy> >
??$_Delete_plain_internal@V?$allocator@U_Container_proxy@std@@@std@@@std@@YAXAAV?$allocator@U_Container_proxy@std@@@0@QAU_Container_proxy@0@@Z ENDP ; std::_Delete_plain_internal<std::allocator<std::_Container_proxy> >
_TEXT	ENDS
; Function compile flags: /Ogtp
;	COMDAT ??_G?$CDynamicPoolEx@VCHeaderDecorator@NEffectUpdateDecorator@@@@UAEPAXI@Z
_TEXT	SEGMENT
___flags$ = 8						; size = 4
??_G?$CDynamicPoolEx@VCHeaderDecorator@NEffectUpdateDecorator@@@@UAEPAXI@Z PROC ; CDynamicPoolEx<NEffectUpdateDecorator::CHeaderDecorator>::`scalar deleting destructor', COMDAT
; _this$ = ecx
  00000	55		 push	 ebp
  00001	8b ec		 mov	 ebp, esp
  00003	56		 push	 esi
  00004	8b f1		 mov	 esi, ecx
  00006	e8 00 00 00 00	 call	 ??1?$CDynamicPoolEx@VCHeaderDecorator@NEffectUpdateDecorator@@@@UAE@XZ ; CDynamicPoolEx<NEffectUpdateDecorator::CHeaderDecorator>::~CDynamicPoolEx<NEffectUpdateDecorator::CHeaderDecorator>
  0000b	f6 45 08 01	 test	 BYTE PTR ___flags$[ebp], 1
  0000f	74 0b		 je	 SHORT $LN4@scalar
  00011	6a 24		 push	 36			; 00000024H
  00013	56		 push	 esi
  00014	e8 00 00 00 00	 call	 ??3@YAXPAXI@Z		; operator delete
  00019	83 c4 08	 add	 esp, 8
$LN4@scalar:
  0001c	8b c6		 mov	 eax, esi
  0001e	5e		 pop	 esi
  0001f	5d		 pop	 ebp
  00020	c2 04 00	 ret	 4
??_G?$CDynamicPoolEx@VCHeaderDecorator@NEffectUpdateDecorator@@@@UAEPAXI@Z ENDP ; CDynamicPoolEx<NEffectUpdateDecorator::CHeaderDecorator>::`scalar deleting destructor'
_TEXT	ENDS
; Function compile flags: /Ogtp
; File D:\Metin2 Server Files\mainline\SRC_2014\Metin2Client\eterLib\Pool.h
;	COMDAT ?Delete@?$CDynamicPoolEx@VCHeaderDecorator@NEffectUpdateDecorator@@@@KAXPAVCHeaderDecorator@NEffectUpdateDecorator@@@Z
_TEXT	SEGMENT
_pkData$ = 8						; size = 4
?Delete@?$CDynamicPoolEx@VCHeaderDecorator@NEffectUpdateDecorator@@@@KAXPAVCHeaderDecorator@NEffectUpdateDecorator@@@Z PROC ; CDynamicPoolEx<NEffectUpdateDecorator::CHeaderDecorator>::Delete, COMDAT

; 224  : 			::operator delete(pkData);

  00000	e9 00 00 00 00	 jmp	 ??3@YAXPAX@Z		; operator delete
?Delete@?$CDynamicPoolEx@VCHeaderDecorator@NEffectUpdateDecorator@@@@KAXPAVCHeaderDecorator@NEffectUpdateDecorator@@@Z ENDP ; CDynamicPoolEx<NEffectUpdateDecorator::CHeaderDecorator>::Delete
_TEXT	ENDS
; Function compile flags: /Ogtp
; File D:\Metin2 Server Files\mainline\SRC_2014\Metin2Client\eterLib\Pool.h
; File C:\Program Files (x86)\Microsoft Visual Studio\2019\Community\VC\Tools\MSVC\14.28.29333\include\vector
; File C:\Program Files (x86)\Microsoft Visual Studio\2019\Community\VC\Tools\MSVC\14.28.29333\include\algorithm
; File D:\Metin2 Server Files\mainline\SRC_2014\Metin2Client\eterLib\Pool.h
; File C:\Program Files (x86)\Microsoft Visual Studio\2019\Community\VC\Tools\MSVC\14.28.29333\include\algorithm
; File D:\Metin2 Server Files\mainline\SRC_2014\Metin2Client\eterLib\Pool.h
; File C:\Program Files (x86)\Microsoft Visual Studio\2019\Community\VC\Tools\MSVC\14.28.29333\include\algorithm
; File D:\Metin2 Server Files\mainline\SRC_2014\Metin2Client\eterLib\Pool.h
; File C:\Program Files (x86)\Microsoft Visual Studio\2019\Community\VC\Tools\MSVC\14.28.29333\include\vector
; File C:\Program Files (x86)\Microsoft Visual Studio\2019\Community\VC\Tools\MSVC\14.28.29333\include\xmemory
; File C:\Program Files (x86)\Microsoft Visual Studio\2019\Community\VC\Tools\MSVC\14.28.29333\include\vector
; File C:\Program Files (x86)\Microsoft Visual Studio\2019\Community\VC\Tools\MSVC\14.28.29333\include\xmemory
; File C:\Program Files (x86)\Microsoft Visual Studio\2019\Community\VC\Tools\MSVC\14.28.29333\include\vector
; File C:\Program Files (x86)\Microsoft Visual Studio\2019\Community\VC\Tools\MSVC\14.28.29333\include\xmemory
; File C:\Program Files (x86)\Microsoft Visual Studio\2019\Community\VC\Tools\MSVC\14.28.29333\include\vector
; File C:\Program Files (x86)\Microsoft Visual Studio\2019\Community\VC\Tools\MSVC\14.28.29333\include\xmemory
; File C:\Program Files (x86)\Microsoft Visual Studio\2019\Community\VC\Tools\MSVC\14.28.29333\include\vector
; File D:\Metin2 Server Files\mainline\SRC_2014\Metin2Client\eterLib\Pool.h
;	COMDAT ??1?$CDynamicPoolEx@VCHeaderDecorator@NEffectUpdateDecorator@@@@UAE@XZ
_TEXT	SEGMENT
??1?$CDynamicPoolEx@VCHeaderDecorator@NEffectUpdateDecorator@@@@UAE@XZ PROC ; CDynamicPoolEx<NEffectUpdateDecorator::CHeaderDecorator>::~CDynamicPoolEx<NEffectUpdateDecorator::CHeaderDecorator>, COMDAT
; _this$ = ecx

; 132  : 		{

  00000	53		 push	 ebx
  00001	56		 push	 esi
  00002	57		 push	 edi
  00003	8b f9		 mov	 edi, ecx
  00005	c7 07 00 00 00
	00		 mov	 DWORD PTR [edi], OFFSET ??_7?$CDynamicPoolEx@VCHeaderDecorator@NEffectUpdateDecorator@@@@6B@
; File C:\Program Files (x86)\Microsoft Visual Studio\2019\Community\VC\Tools\MSVC\14.28.29333\include\vector

; 42   :     _Vector_const_iterator(_Tptr _Parg, const _Container_base* _Pvector) noexcept : _Ptr(_Parg) {

  0000b	8b 5f 08	 mov	 ebx, DWORD PTR [edi+8]
  0000e	8b 77 04	 mov	 esi, DWORD PTR [edi+4]
; File C:\Program Files (x86)\Microsoft Visual Studio\2019\Community\VC\Tools\MSVC\14.28.29333\include\algorithm

; 307  :     for (; _UFirst != _ULast; ++_UFirst) {

  00011	3b f3		 cmp	 esi, ebx
  00013	74 14		 je	 SHORT $LN19@CDynamicPo
$LL20@CDynamicPo:
; File D:\Metin2 Server Files\mainline\SRC_2014\Metin2Client\eterLib\Pool.h

; 224  : 			::operator delete(pkData);

  00015	ff 36		 push	 DWORD PTR [esi]
  00017	e8 00 00 00 00	 call	 ??3@YAXPAX@Z		; operator delete
; File C:\Program Files (x86)\Microsoft Visual Studio\2019\Community\VC\Tools\MSVC\14.28.29333\include\algorithm

; 307  :     for (; _UFirst != _ULast; ++_UFirst) {

  0001c	83 c6 04	 add	 esi, 4
; File D:\Metin2 Server Files\mainline\SRC_2014\Metin2Client\eterLib\Pool.h

; 224  : 			::operator delete(pkData);

  0001f	83 c4 04	 add	 esp, 4
; File C:\Program Files (x86)\Microsoft Visual Studio\2019\Community\VC\Tools\MSVC\14.28.29333\include\algorithm

; 307  :     for (; _UFirst != _ULast; ++_UFirst) {

  00022	3b f3		 cmp	 esi, ebx
  00024	75 ef		 jne	 SHORT $LL20@CDynamicPo
  00026	8b 77 04	 mov	 esi, DWORD PTR [edi+4]
$LN19@CDynamicPo:
; File D:\Metin2 Server Files\mainline\SRC_2014\Metin2Client\eterLib\Pool.h

; 162  : 			m_kVct_pkFree.clear();

  00029	8b 4f 10	 mov	 ecx, DWORD PTR [edi+16]
  0002c	89 77 08	 mov	 DWORD PTR [edi+8], esi
  0002f	89 4f 14	 mov	 DWORD PTR [edi+20], ecx
; File C:\Program Files (x86)\Microsoft Visual Studio\2019\Community\VC\Tools\MSVC\14.28.29333\include\vector

; 1694 :         if (_Myfirst) { // destroy and deallocate old array

  00032	85 c9		 test	 ecx, ecx
  00034	74 27		 je	 SHORT $LN27@CDynamicPo

; 1695 :             _Destroy(_Myfirst, _Mylast);
; 1696 :             _Getal().deallocate(_Myfirst, static_cast<size_type>(_Myend - _Myfirst));

  00036	8b 47 18	 mov	 eax, DWORD PTR [edi+24]
  00039	2b c1		 sub	 eax, ecx
; File C:\Program Files (x86)\Microsoft Visual Studio\2019\Community\VC\Tools\MSVC\14.28.29333\include\xmemory

; 810  :         _Deallocate<_New_alignof<_Ty>>(_Ptr, sizeof(_Ty) * _Count);

  0003b	83 e0 fc	 and	 eax, -4			; fffffffcH
  0003e	50		 push	 eax
  0003f	51		 push	 ecx
  00040	e8 00 00 00 00	 call	 ??$_Deallocate@$07$0A@@std@@YAXPAXI@Z ; std::_Deallocate<8,0>
; File C:\Program Files (x86)\Microsoft Visual Studio\2019\Community\VC\Tools\MSVC\14.28.29333\include\vector

; 1698 :             _Myfirst = pointer();

  00045	c7 47 10 00 00
	00 00		 mov	 DWORD PTR [edi+16], 0
; File C:\Program Files (x86)\Microsoft Visual Studio\2019\Community\VC\Tools\MSVC\14.28.29333\include\xmemory

; 810  :         _Deallocate<_New_alignof<_Ty>>(_Ptr, sizeof(_Ty) * _Count);

  0004c	83 c4 08	 add	 esp, 8
; File C:\Program Files (x86)\Microsoft Visual Studio\2019\Community\VC\Tools\MSVC\14.28.29333\include\vector

; 1699 :             _Mylast  = pointer();

  0004f	c7 47 14 00 00
	00 00		 mov	 DWORD PTR [edi+20], 0

; 1700 :             _Myend   = pointer();

  00056	c7 47 18 00 00
	00 00		 mov	 DWORD PTR [edi+24], 0
$LN27@CDynamicPo:

; 1694 :         if (_Myfirst) { // destroy and deallocate old array

  0005d	8b 4f 04	 mov	 ecx, DWORD PTR [edi+4]
  00060	85 c9		 test	 ecx, ecx
  00062	74 27		 je	 SHORT $LN34@CDynamicPo

; 1695 :             _Destroy(_Myfirst, _Mylast);
; 1696 :             _Getal().deallocate(_Myfirst, static_cast<size_type>(_Myend - _Myfirst));

  00064	8b 47 0c	 mov	 eax, DWORD PTR [edi+12]
  00067	2b c1		 sub	 eax, ecx
; File C:\Program Files (x86)\Microsoft Visual Studio\2019\Community\VC\Tools\MSVC\14.28.29333\include\xmemory

; 810  :         _Deallocate<_New_alignof<_Ty>>(_Ptr, sizeof(_Ty) * _Count);

  00069	83 e0 fc	 and	 eax, -4			; fffffffcH
  0006c	50		 push	 eax
  0006d	51		 push	 ecx
  0006e	e8 00 00 00 00	 call	 ??$_Deallocate@$07$0A@@std@@YAXPAXI@Z ; std::_Deallocate<8,0>
; File C:\Program Files (x86)\Microsoft Visual Studio\2019\Community\VC\Tools\MSVC\14.28.29333\include\vector

; 1698 :             _Myfirst = pointer();

  00073	c7 47 04 00 00
	00 00		 mov	 DWORD PTR [edi+4], 0
; File C:\Program Files (x86)\Microsoft Visual Studio\2019\Community\VC\Tools\MSVC\14.28.29333\include\xmemory

; 810  :         _Deallocate<_New_alignof<_Ty>>(_Ptr, sizeof(_Ty) * _Count);

  0007a	83 c4 08	 add	 esp, 8
; File C:\Program Files (x86)\Microsoft Visual Studio\2019\Community\VC\Tools\MSVC\14.28.29333\include\vector

; 1699 :             _Mylast  = pointer();

  0007d	c7 47 08 00 00
	00 00		 mov	 DWORD PTR [edi+8], 0

; 1700 :             _Myend   = pointer();

  00084	c7 47 0c 00 00
	00 00		 mov	 DWORD PTR [edi+12], 0
$LN34@CDynamicPo:
  0008b	5f		 pop	 edi
; File D:\Metin2 Server Files\mainline\SRC_2014\Metin2Client\eterLib\Pool.h

; 142  : 		}

  0008c	5e		 pop	 esi
  0008d	5b		 pop	 ebx
  0008e	c3		 ret	 0
??1?$CDynamicPoolEx@VCHeaderDecorator@NEffectUpdateDecorator@@@@UAE@XZ ENDP ; CDynamicPoolEx<NEffectUpdateDecorator::CHeaderDecorator>::~CDynamicPoolEx<NEffectUpdateDecorator::CHeaderDecorator>
_TEXT	ENDS
; Function compile flags: /Ogtp
;	COMDAT ??_G?$CDynamicPoolEx@VCNullDecorator@NEffectUpdateDecorator@@@@UAEPAXI@Z
_TEXT	SEGMENT
___flags$ = 8						; size = 4
??_G?$CDynamicPoolEx@VCNullDecorator@NEffectUpdateDecorator@@@@UAEPAXI@Z PROC ; CDynamicPoolEx<NEffectUpdateDecorator::CNullDecorator>::`scalar deleting destructor', COMDAT
; _this$ = ecx
  00000	55		 push	 ebp
  00001	8b ec		 mov	 ebp, esp
  00003	56		 push	 esi
  00004	8b f1		 mov	 esi, ecx
  00006	e8 00 00 00 00	 call	 ??1?$CDynamicPoolEx@VCNullDecorator@NEffectUpdateDecorator@@@@UAE@XZ ; CDynamicPoolEx<NEffectUpdateDecorator::CNullDecorator>::~CDynamicPoolEx<NEffectUpdateDecorator::CNullDecorator>
  0000b	f6 45 08 01	 test	 BYTE PTR ___flags$[ebp], 1
  0000f	74 0b		 je	 SHORT $LN4@scalar
  00011	6a 24		 push	 36			; 00000024H
  00013	56		 push	 esi
  00014	e8 00 00 00 00	 call	 ??3@YAXPAXI@Z		; operator delete
  00019	83 c4 08	 add	 esp, 8
$LN4@scalar:
  0001c	8b c6		 mov	 eax, esi
  0001e	5e		 pop	 esi
  0001f	5d		 pop	 ebp
  00020	c2 04 00	 ret	 4
??_G?$CDynamicPoolEx@VCNullDecorator@NEffectUpdateDecorator@@@@UAEPAXI@Z ENDP ; CDynamicPoolEx<NEffectUpdateDecorator::CNullDecorator>::`scalar deleting destructor'
_TEXT	ENDS
; Function compile flags: /Ogtp
; File D:\Metin2 Server Files\mainline\SRC_2014\Metin2Client\eterLib\Pool.h
;	COMDAT ?Delete@?$CDynamicPoolEx@VCNullDecorator@NEffectUpdateDecorator@@@@KAXPAVCNullDecorator@NEffectUpdateDecorator@@@Z
_TEXT	SEGMENT
_pkData$ = 8						; size = 4
?Delete@?$CDynamicPoolEx@VCNullDecorator@NEffectUpdateDecorator@@@@KAXPAVCNullDecorator@NEffectUpdateDecorator@@@Z PROC ; CDynamicPoolEx<NEffectUpdateDecorator::CNullDecorator>::Delete, COMDAT

; 224  : 			::operator delete(pkData);

  00000	e9 00 00 00 00	 jmp	 ??3@YAXPAX@Z		; operator delete
?Delete@?$CDynamicPoolEx@VCNullDecorator@NEffectUpdateDecorator@@@@KAXPAVCNullDecorator@NEffectUpdateDecorator@@@Z ENDP ; CDynamicPoolEx<NEffectUpdateDecorator::CNullDecorator>::Delete
_TEXT	ENDS
; Function compile flags: /Ogtp
; File D:\Metin2 Server Files\mainline\SRC_2014\Metin2Client\eterLib\Pool.h
; File C:\Program Files (x86)\Microsoft Visual Studio\2019\Community\VC\Tools\MSVC\14.28.29333\include\vector
; File C:\Program Files (x86)\Microsoft Visual Studio\2019\Community\VC\Tools\MSVC\14.28.29333\include\algorithm
; File D:\Metin2 Server Files\mainline\SRC_2014\Metin2Client\eterLib\Pool.h
; File C:\Program Files (x86)\Microsoft Visual Studio\2019\Community\VC\Tools\MSVC\14.28.29333\include\algorithm
; File D:\Metin2 Server Files\mainline\SRC_2014\Metin2Client\eterLib\Pool.h
; File C:\Program Files (x86)\Microsoft Visual Studio\2019\Community\VC\Tools\MSVC\14.28.29333\include\algorithm
; File D:\Metin2 Server Files\mainline\SRC_2014\Metin2Client\eterLib\Pool.h
; File C:\Program Files (x86)\Microsoft Visual Studio\2019\Community\VC\Tools\MSVC\14.28.29333\include\vector
; File C:\Program Files (x86)\Microsoft Visual Studio\2019\Community\VC\Tools\MSVC\14.28.29333\include\xmemory
; File C:\Program Files (x86)\Microsoft Visual Studio\2019\Community\VC\Tools\MSVC\14.28.29333\include\vector
; File C:\Program Files (x86)\Microsoft Visual Studio\2019\Community\VC\Tools\MSVC\14.28.29333\include\xmemory
; File C:\Program Files (x86)\Microsoft Visual Studio\2019\Community\VC\Tools\MSVC\14.28.29333\include\vector
; File C:\Program Files (x86)\Microsoft Visual Studio\2019\Community\VC\Tools\MSVC\14.28.29333\include\xmemory
; File C:\Program Files (x86)\Microsoft Visual Studio\2019\Community\VC\Tools\MSVC\14.28.29333\include\vector
; File C:\Program Files (x86)\Microsoft Visual Studio\2019\Community\VC\Tools\MSVC\14.28.29333\include\xmemory
; File C:\Program Files (x86)\Microsoft Visual Studio\2019\Community\VC\Tools\MSVC\14.28.29333\include\vector
; File D:\Metin2 Server Files\mainline\SRC_2014\Metin2Client\eterLib\Pool.h
;	COMDAT ??1?$CDynamicPoolEx@VCNullDecorator@NEffectUpdateDecorator@@@@UAE@XZ
_TEXT	SEGMENT
??1?$CDynamicPoolEx@VCNullDecorator@NEffectUpdateDecorator@@@@UAE@XZ PROC ; CDynamicPoolEx<NEffectUpdateDecorator::CNullDecorator>::~CDynamicPoolEx<NEffectUpdateDecorator::CNullDecorator>, COMDAT
; _this$ = ecx

; 132  : 		{

  00000	53		 push	 ebx
  00001	56		 push	 esi
  00002	57		 push	 edi
  00003	8b f9		 mov	 edi, ecx
  00005	c7 07 00 00 00
	00		 mov	 DWORD PTR [edi], OFFSET ??_7?$CDynamicPoolEx@VCNullDecorator@NEffectUpdateDecorator@@@@6B@
; File C:\Program Files (x86)\Microsoft Visual Studio\2019\Community\VC\Tools\MSVC\14.28.29333\include\vector

; 42   :     _Vector_const_iterator(_Tptr _Parg, const _Container_base* _Pvector) noexcept : _Ptr(_Parg) {

  0000b	8b 5f 08	 mov	 ebx, DWORD PTR [edi+8]
  0000e	8b 77 04	 mov	 esi, DWORD PTR [edi+4]
; File C:\Program Files (x86)\Microsoft Visual Studio\2019\Community\VC\Tools\MSVC\14.28.29333\include\algorithm

; 307  :     for (; _UFirst != _ULast; ++_UFirst) {

  00011	3b f3		 cmp	 esi, ebx
  00013	74 14		 je	 SHORT $LN19@CDynamicPo
$LL20@CDynamicPo:
; File D:\Metin2 Server Files\mainline\SRC_2014\Metin2Client\eterLib\Pool.h

; 224  : 			::operator delete(pkData);

  00015	ff 36		 push	 DWORD PTR [esi]
  00017	e8 00 00 00 00	 call	 ??3@YAXPAX@Z		; operator delete
; File C:\Program Files (x86)\Microsoft Visual Studio\2019\Community\VC\Tools\MSVC\14.28.29333\include\algorithm

; 307  :     for (; _UFirst != _ULast; ++_UFirst) {

  0001c	83 c6 04	 add	 esi, 4
; File D:\Metin2 Server Files\mainline\SRC_2014\Metin2Client\eterLib\Pool.h

; 224  : 			::operator delete(pkData);

  0001f	83 c4 04	 add	 esp, 4
; File C:\Program Files (x86)\Microsoft Visual Studio\2019\Community\VC\Tools\MSVC\14.28.29333\include\algorithm

; 307  :     for (; _UFirst != _ULast; ++_UFirst) {

  00022	3b f3		 cmp	 esi, ebx
  00024	75 ef		 jne	 SHORT $LL20@CDynamicPo
  00026	8b 77 04	 mov	 esi, DWORD PTR [edi+4]
$LN19@CDynamicPo:
; File D:\Metin2 Server Files\mainline\SRC_2014\Metin2Client\eterLib\Pool.h

; 162  : 			m_kVct_pkFree.clear();

  00029	8b 4f 10	 mov	 ecx, DWORD PTR [edi+16]
  0002c	89 77 08	 mov	 DWORD PTR [edi+8], esi
  0002f	89 4f 14	 mov	 DWORD PTR [edi+20], ecx
; File C:\Program Files (x86)\Microsoft Visual Studio\2019\Community\VC\Tools\MSVC\14.28.29333\include\vector

; 1694 :         if (_Myfirst) { // destroy and deallocate old array

  00032	85 c9		 test	 ecx, ecx
  00034	74 27		 je	 SHORT $LN27@CDynamicPo

; 1695 :             _Destroy(_Myfirst, _Mylast);
; 1696 :             _Getal().deallocate(_Myfirst, static_cast<size_type>(_Myend - _Myfirst));

  00036	8b 47 18	 mov	 eax, DWORD PTR [edi+24]
  00039	2b c1		 sub	 eax, ecx
; File C:\Program Files (x86)\Microsoft Visual Studio\2019\Community\VC\Tools\MSVC\14.28.29333\include\xmemory

; 810  :         _Deallocate<_New_alignof<_Ty>>(_Ptr, sizeof(_Ty) * _Count);

  0003b	83 e0 fc	 and	 eax, -4			; fffffffcH
  0003e	50		 push	 eax
  0003f	51		 push	 ecx
  00040	e8 00 00 00 00	 call	 ??$_Deallocate@$07$0A@@std@@YAXPAXI@Z ; std::_Deallocate<8,0>
; File C:\Program Files (x86)\Microsoft Visual Studio\2019\Community\VC\Tools\MSVC\14.28.29333\include\vector

; 1698 :             _Myfirst = pointer();

  00045	c7 47 10 00 00
	00 00		 mov	 DWORD PTR [edi+16], 0
; File C:\Program Files (x86)\Microsoft Visual Studio\2019\Community\VC\Tools\MSVC\14.28.29333\include\xmemory

; 810  :         _Deallocate<_New_alignof<_Ty>>(_Ptr, sizeof(_Ty) * _Count);

  0004c	83 c4 08	 add	 esp, 8
; File C:\Program Files (x86)\Microsoft Visual Studio\2019\Community\VC\Tools\MSVC\14.28.29333\include\vector

; 1699 :             _Mylast  = pointer();

  0004f	c7 47 14 00 00
	00 00		 mov	 DWORD PTR [edi+20], 0

; 1700 :             _Myend   = pointer();

  00056	c7 47 18 00 00
	00 00		 mov	 DWORD PTR [edi+24], 0
$LN27@CDynamicPo:

; 1694 :         if (_Myfirst) { // destroy and deallocate old array

  0005d	8b 4f 04	 mov	 ecx, DWORD PTR [edi+4]
  00060	85 c9		 test	 ecx, ecx
  00062	74 27		 je	 SHORT $LN34@CDynamicPo

; 1695 :             _Destroy(_Myfirst, _Mylast);
; 1696 :             _Getal().deallocate(_Myfirst, static_cast<size_type>(_Myend - _Myfirst));

  00064	8b 47 0c	 mov	 eax, DWORD PTR [edi+12]
  00067	2b c1		 sub	 eax, ecx
; File C:\Program Files (x86)\Microsoft Visual Studio\2019\Community\VC\Tools\MSVC\14.28.29333\include\xmemory

; 810  :         _Deallocate<_New_alignof<_Ty>>(_Ptr, sizeof(_Ty) * _Count);

  00069	83 e0 fc	 and	 eax, -4			; fffffffcH
  0006c	50		 push	 eax
  0006d	51		 push	 ecx
  0006e	e8 00 00 00 00	 call	 ??$_Deallocate@$07$0A@@std@@YAXPAXI@Z ; std::_Deallocate<8,0>
; File C:\Program Files (x86)\Microsoft Visual Studio\2019\Community\VC\Tools\MSVC\14.28.29333\include\vector

; 1698 :             _Myfirst = pointer();

  00073	c7 47 04 00 00
	00 00		 mov	 DWORD PTR [edi+4], 0
; File C:\Program Files (x86)\Microsoft Visual Studio\2019\Community\VC\Tools\MSVC\14.28.29333\include\xmemory

; 810  :         _Deallocate<_New_alignof<_Ty>>(_Ptr, sizeof(_Ty) * _Count);

  0007a	83 c4 08	 add	 esp, 8
; File C:\Program Files (x86)\Microsoft Visual Studio\2019\Community\VC\Tools\MSVC\14.28.29333\include\vector

; 1699 :             _Mylast  = pointer();

  0007d	c7 47 08 00 00
	00 00		 mov	 DWORD PTR [edi+8], 0

; 1700 :             _Myend   = pointer();

  00084	c7 47 0c 00 00
	00 00		 mov	 DWORD PTR [edi+12], 0
$LN34@CDynamicPo:
  0008b	5f		 pop	 edi
; File D:\Metin2 Server Files\mainline\SRC_2014\Metin2Client\eterLib\Pool.h

; 142  : 		}

  0008c	5e		 pop	 esi
  0008d	5b		 pop	 ebx
  0008e	c3		 ret	 0
??1?$CDynamicPoolEx@VCNullDecorator@NEffectUpdateDecorator@@@@UAE@XZ ENDP ; CDynamicPoolEx<NEffectUpdateDecorator::CNullDecorator>::~CDynamicPoolEx<NEffectUpdateDecorator::CNullDecorator>
_TEXT	ENDS
; Function compile flags: /Ogtp
;	COMDAT ??_G?$CDynamicPoolEx@VCTextureAnimationCWDecorator@NEffectUpdateDecorator@@@@UAEPAXI@Z
_TEXT	SEGMENT
___flags$ = 8						; size = 4
??_G?$CDynamicPoolEx@VCTextureAnimationCWDecorator@NEffectUpdateDecorator@@@@UAEPAXI@Z PROC ; CDynamicPoolEx<NEffectUpdateDecorator::CTextureAnimationCWDecorator>::`scalar deleting destructor', COMDAT
; _this$ = ecx
  00000	55		 push	 ebp
  00001	8b ec		 mov	 ebp, esp
  00003	56		 push	 esi
  00004	8b f1		 mov	 esi, ecx
  00006	e8 00 00 00 00	 call	 ??1?$CDynamicPoolEx@VCTextureAnimationCWDecorator@NEffectUpdateDecorator@@@@UAE@XZ ; CDynamicPoolEx<NEffectUpdateDecorator::CTextureAnimationCWDecorator>::~CDynamicPoolEx<NEffectUpdateDecorator::CTextureAnimationCWDecorator>
  0000b	f6 45 08 01	 test	 BYTE PTR ___flags$[ebp], 1
  0000f	74 0b		 je	 SHORT $LN4@scalar
  00011	6a 24		 push	 36			; 00000024H
  00013	56		 push	 esi
  00014	e8 00 00 00 00	 call	 ??3@YAXPAXI@Z		; operator delete
  00019	83 c4 08	 add	 esp, 8
$LN4@scalar:
  0001c	8b c6		 mov	 eax, esi
  0001e	5e		 pop	 esi
  0001f	5d		 pop	 ebp
  00020	c2 04 00	 ret	 4
??_G?$CDynamicPoolEx@VCTextureAnimationCWDecorator@NEffectUpdateDecorator@@@@UAEPAXI@Z ENDP ; CDynamicPoolEx<NEffectUpdateDecorator::CTextureAnimationCWDecorator>::`scalar deleting destructor'
_TEXT	ENDS
; Function compile flags: /Ogtp
; File D:\Metin2 Server Files\mainline\SRC_2014\Metin2Client\eterLib\Pool.h
;	COMDAT ?Delete@?$CDynamicPoolEx@VCTextureAnimationCWDecorator@NEffectUpdateDecorator@@@@KAXPAVCTextureAnimationCWDecorator@NEffectUpdateDecorator@@@Z
_TEXT	SEGMENT
_pkData$ = 8						; size = 4
?Delete@?$CDynamicPoolEx@VCTextureAnimationCWDecorator@NEffectUpdateDecorator@@@@KAXPAVCTextureAnimationCWDecorator@NEffectUpdateDecorator@@@Z PROC ; CDynamicPoolEx<NEffectUpdateDecorator::CTextureAnimationCWDecorator>::Delete, COMDAT

; 224  : 			::operator delete(pkData);

  00000	e9 00 00 00 00	 jmp	 ??3@YAXPAX@Z		; operator delete
?Delete@?$CDynamicPoolEx@VCTextureAnimationCWDecorator@NEffectUpdateDecorator@@@@KAXPAVCTextureAnimationCWDecorator@NEffectUpdateDecorator@@@Z ENDP ; CDynamicPoolEx<NEffectUpdateDecorator::CTextureAnimationCWDecorator>::Delete
_TEXT	ENDS
; Function compile flags: /Ogtp
; File D:\Metin2 Server Files\mainline\SRC_2014\Metin2Client\eterLib\Pool.h
; File C:\Program Files (x86)\Microsoft Visual Studio\2019\Community\VC\Tools\MSVC\14.28.29333\include\vector
; File C:\Program Files (x86)\Microsoft Visual Studio\2019\Community\VC\Tools\MSVC\14.28.29333\include\algorithm
; File D:\Metin2 Server Files\mainline\SRC_2014\Metin2Client\eterLib\Pool.h
; File C:\Program Files (x86)\Microsoft Visual Studio\2019\Community\VC\Tools\MSVC\14.28.29333\include\algorithm
; File D:\Metin2 Server Files\mainline\SRC_2014\Metin2Client\eterLib\Pool.h
; File C:\Program Files (x86)\Microsoft Visual Studio\2019\Community\VC\Tools\MSVC\14.28.29333\include\algorithm
; File D:\Metin2 Server Files\mainline\SRC_2014\Metin2Client\eterLib\Pool.h
; File C:\Program Files (x86)\Microsoft Visual Studio\2019\Community\VC\Tools\MSVC\14.28.29333\include\vector
; File C:\Program Files (x86)\Microsoft Visual Studio\2019\Community\VC\Tools\MSVC\14.28.29333\include\xmemory
; File C:\Program Files (x86)\Microsoft Visual Studio\2019\Community\VC\Tools\MSVC\14.28.29333\include\vector
; File C:\Program Files (x86)\Microsoft Visual Studio\2019\Community\VC\Tools\MSVC\14.28.29333\include\xmemory
; File C:\Program Files (x86)\Microsoft Visual Studio\2019\Community\VC\Tools\MSVC\14.28.29333\include\vector
; File C:\Program Files (x86)\Microsoft Visual Studio\2019\Community\VC\Tools\MSVC\14.28.29333\include\xmemory
; File C:\Program Files (x86)\Microsoft Visual Studio\2019\Community\VC\Tools\MSVC\14.28.29333\include\vector
; File C:\Program Files (x86)\Microsoft Visual Studio\2019\Community\VC\Tools\MSVC\14.28.29333\include\xmemory
; File C:\Program Files (x86)\Microsoft Visual Studio\2019\Community\VC\Tools\MSVC\14.28.29333\include\vector
; File D:\Metin2 Server Files\mainline\SRC_2014\Metin2Client\eterLib\Pool.h
;	COMDAT ??1?$CDynamicPoolEx@VCTextureAnimationCWDecorator@NEffectUpdateDecorator@@@@UAE@XZ
_TEXT	SEGMENT
??1?$CDynamicPoolEx@VCTextureAnimationCWDecorator@NEffectUpdateDecorator@@@@UAE@XZ PROC ; CDynamicPoolEx<NEffectUpdateDecorator::CTextureAnimationCWDecorator>::~CDynamicPoolEx<NEffectUpdateDecorator::CTextureAnimationCWDecorator>, COMDAT
; _this$ = ecx

; 132  : 		{

  00000	53		 push	 ebx
  00001	56		 push	 esi
  00002	57		 push	 edi
  00003	8b f9		 mov	 edi, ecx
  00005	c7 07 00 00 00
	00		 mov	 DWORD PTR [edi], OFFSET ??_7?$CDynamicPoolEx@VCTextureAnimationCWDecorator@NEffectUpdateDecorator@@@@6B@
; File C:\Program Files (x86)\Microsoft Visual Studio\2019\Community\VC\Tools\MSVC\14.28.29333\include\vector

; 42   :     _Vector_const_iterator(_Tptr _Parg, const _Container_base* _Pvector) noexcept : _Ptr(_Parg) {

  0000b	8b 5f 08	 mov	 ebx, DWORD PTR [edi+8]
  0000e	8b 77 04	 mov	 esi, DWORD PTR [edi+4]
; File C:\Program Files (x86)\Microsoft Visual Studio\2019\Community\VC\Tools\MSVC\14.28.29333\include\algorithm

; 307  :     for (; _UFirst != _ULast; ++_UFirst) {

  00011	3b f3		 cmp	 esi, ebx
  00013	74 14		 je	 SHORT $LN19@CDynamicPo
$LL20@CDynamicPo:
; File D:\Metin2 Server Files\mainline\SRC_2014\Metin2Client\eterLib\Pool.h

; 224  : 			::operator delete(pkData);

  00015	ff 36		 push	 DWORD PTR [esi]
  00017	e8 00 00 00 00	 call	 ??3@YAXPAX@Z		; operator delete
; File C:\Program Files (x86)\Microsoft Visual Studio\2019\Community\VC\Tools\MSVC\14.28.29333\include\algorithm

; 307  :     for (; _UFirst != _ULast; ++_UFirst) {

  0001c	83 c6 04	 add	 esi, 4
; File D:\Metin2 Server Files\mainline\SRC_2014\Metin2Client\eterLib\Pool.h

; 224  : 			::operator delete(pkData);

  0001f	83 c4 04	 add	 esp, 4
; File C:\Program Files (x86)\Microsoft Visual Studio\2019\Community\VC\Tools\MSVC\14.28.29333\include\algorithm

; 307  :     for (; _UFirst != _ULast; ++_UFirst) {

  00022	3b f3		 cmp	 esi, ebx
  00024	75 ef		 jne	 SHORT $LL20@CDynamicPo
  00026	8b 77 04	 mov	 esi, DWORD PTR [edi+4]
$LN19@CDynamicPo:
; File D:\Metin2 Server Files\mainline\SRC_2014\Metin2Client\eterLib\Pool.h

; 162  : 			m_kVct_pkFree.clear();

  00029	8b 4f 10	 mov	 ecx, DWORD PTR [edi+16]
  0002c	89 77 08	 mov	 DWORD PTR [edi+8], esi
  0002f	89 4f 14	 mov	 DWORD PTR [edi+20], ecx
; File C:\Program Files (x86)\Microsoft Visual Studio\2019\Community\VC\Tools\MSVC\14.28.29333\include\vector

; 1694 :         if (_Myfirst) { // destroy and deallocate old array

  00032	85 c9		 test	 ecx, ecx
  00034	74 27		 je	 SHORT $LN27@CDynamicPo

; 1695 :             _Destroy(_Myfirst, _Mylast);
; 1696 :             _Getal().deallocate(_Myfirst, static_cast<size_type>(_Myend - _Myfirst));

  00036	8b 47 18	 mov	 eax, DWORD PTR [edi+24]
  00039	2b c1		 sub	 eax, ecx
; File C:\Program Files (x86)\Microsoft Visual Studio\2019\Community\VC\Tools\MSVC\14.28.29333\include\xmemory

; 810  :         _Deallocate<_New_alignof<_Ty>>(_Ptr, sizeof(_Ty) * _Count);

  0003b	83 e0 fc	 and	 eax, -4			; fffffffcH
  0003e	50		 push	 eax
  0003f	51		 push	 ecx
  00040	e8 00 00 00 00	 call	 ??$_Deallocate@$07$0A@@std@@YAXPAXI@Z ; std::_Deallocate<8,0>
; File C:\Program Files (x86)\Microsoft Visual Studio\2019\Community\VC\Tools\MSVC\14.28.29333\include\vector

; 1698 :             _Myfirst = pointer();

  00045	c7 47 10 00 00
	00 00		 mov	 DWORD PTR [edi+16], 0
; File C:\Program Files (x86)\Microsoft Visual Studio\2019\Community\VC\Tools\MSVC\14.28.29333\include\xmemory

; 810  :         _Deallocate<_New_alignof<_Ty>>(_Ptr, sizeof(_Ty) * _Count);

  0004c	83 c4 08	 add	 esp, 8
; File C:\Program Files (x86)\Microsoft Visual Studio\2019\Community\VC\Tools\MSVC\14.28.29333\include\vector

; 1699 :             _Mylast  = pointer();

  0004f	c7 47 14 00 00
	00 00		 mov	 DWORD PTR [edi+20], 0

; 1700 :             _Myend   = pointer();

  00056	c7 47 18 00 00
	00 00		 mov	 DWORD PTR [edi+24], 0
$LN27@CDynamicPo:

; 1694 :         if (_Myfirst) { // destroy and deallocate old array

  0005d	8b 4f 04	 mov	 ecx, DWORD PTR [edi+4]
  00060	85 c9		 test	 ecx, ecx
  00062	74 27		 je	 SHORT $LN34@CDynamicPo

; 1695 :             _Destroy(_Myfirst, _Mylast);
; 1696 :             _Getal().deallocate(_Myfirst, static_cast<size_type>(_Myend - _Myfirst));

  00064	8b 47 0c	 mov	 eax, DWORD PTR [edi+12]
  00067	2b c1		 sub	 eax, ecx
; File C:\Program Files (x86)\Microsoft Visual Studio\2019\Community\VC\Tools\MSVC\14.28.29333\include\xmemory

; 810  :         _Deallocate<_New_alignof<_Ty>>(_Ptr, sizeof(_Ty) * _Count);

  00069	83 e0 fc	 and	 eax, -4			; fffffffcH
  0006c	50		 push	 eax
  0006d	51		 push	 ecx
  0006e	e8 00 00 00 00	 call	 ??$_Deallocate@$07$0A@@std@@YAXPAXI@Z ; std::_Deallocate<8,0>
; File C:\Program Files (x86)\Microsoft Visual Studio\2019\Community\VC\Tools\MSVC\14.28.29333\include\vector

; 1698 :             _Myfirst = pointer();

  00073	c7 47 04 00 00
	00 00		 mov	 DWORD PTR [edi+4], 0
; File C:\Program Files (x86)\Microsoft Visual Studio\2019\Community\VC\Tools\MSVC\14.28.29333\include\xmemory

; 810  :         _Deallocate<_New_alignof<_Ty>>(_Ptr, sizeof(_Ty) * _Count);

  0007a	83 c4 08	 add	 esp, 8
; File C:\Program Files (x86)\Microsoft Visual Studio\2019\Community\VC\Tools\MSVC\14.28.29333\include\vector

; 1699 :             _Mylast  = pointer();

  0007d	c7 47 08 00 00
	00 00		 mov	 DWORD PTR [edi+8], 0

; 1700 :             _Myend   = pointer();

  00084	c7 47 0c 00 00
	00 00		 mov	 DWORD PTR [edi+12], 0
$LN34@CDynamicPo:
  0008b	5f		 pop	 edi
; File D:\Metin2 Server Files\mainline\SRC_2014\Metin2Client\eterLib\Pool.h

; 142  : 		}

  0008c	5e		 pop	 esi
  0008d	5b		 pop	 ebx
  0008e	c3		 ret	 0
??1?$CDynamicPoolEx@VCTextureAnimationCWDecorator@NEffectUpdateDecorator@@@@UAE@XZ ENDP ; CDynamicPoolEx<NEffectUpdateDecorator::CTextureAnimationCWDecorator>::~CDynamicPoolEx<NEffectUpdateDecorator::CTextureAnimationCWDecorator>
_TEXT	ENDS
; Function compile flags: /Ogtp
;	COMDAT ??_G?$CDynamicPoolEx@VCTextureAnimationCCWDecorator@NEffectUpdateDecorator@@@@UAEPAXI@Z
_TEXT	SEGMENT
___flags$ = 8						; size = 4
??_G?$CDynamicPoolEx@VCTextureAnimationCCWDecorator@NEffectUpdateDecorator@@@@UAEPAXI@Z PROC ; CDynamicPoolEx<NEffectUpdateDecorator::CTextureAnimationCCWDecorator>::`scalar deleting destructor', COMDAT
; _this$ = ecx
  00000	55		 push	 ebp
  00001	8b ec		 mov	 ebp, esp
  00003	56		 push	 esi
  00004	8b f1		 mov	 esi, ecx
  00006	e8 00 00 00 00	 call	 ??1?$CDynamicPoolEx@VCTextureAnimationCCWDecorator@NEffectUpdateDecorator@@@@UAE@XZ ; CDynamicPoolEx<NEffectUpdateDecorator::CTextureAnimationCCWDecorator>::~CDynamicPoolEx<NEffectUpdateDecorator::CTextureAnimationCCWDecorator>
  0000b	f6 45 08 01	 test	 BYTE PTR ___flags$[ebp], 1
  0000f	74 0b		 je	 SHORT $LN4@scalar
  00011	6a 24		 push	 36			; 00000024H
  00013	56		 push	 esi
  00014	e8 00 00 00 00	 call	 ??3@YAXPAXI@Z		; operator delete
  00019	83 c4 08	 add	 esp, 8
$LN4@scalar:
  0001c	8b c6		 mov	 eax, esi
  0001e	5e		 pop	 esi
  0001f	5d		 pop	 ebp
  00020	c2 04 00	 ret	 4
??_G?$CDynamicPoolEx@VCTextureAnimationCCWDecorator@NEffectUpdateDecorator@@@@UAEPAXI@Z ENDP ; CDynamicPoolEx<NEffectUpdateDecorator::CTextureAnimationCCWDecorator>::`scalar deleting destructor'
_TEXT	ENDS
; Function compile flags: /Ogtp
; File D:\Metin2 Server Files\mainline\SRC_2014\Metin2Client\eterLib\Pool.h
;	COMDAT ?Delete@?$CDynamicPoolEx@VCTextureAnimationCCWDecorator@NEffectUpdateDecorator@@@@KAXPAVCTextureAnimationCCWDecorator@NEffectUpdateDecorator@@@Z
_TEXT	SEGMENT
_pkData$ = 8						; size = 4
?Delete@?$CDynamicPoolEx@VCTextureAnimationCCWDecorator@NEffectUpdateDecorator@@@@KAXPAVCTextureAnimationCCWDecorator@NEffectUpdateDecorator@@@Z PROC ; CDynamicPoolEx<NEffectUpdateDecorator::CTextureAnimationCCWDecorator>::Delete, COMDAT

; 224  : 			::operator delete(pkData);

  00000	e9 00 00 00 00	 jmp	 ??3@YAXPAX@Z		; operator delete
?Delete@?$CDynamicPoolEx@VCTextureAnimationCCWDecorator@NEffectUpdateDecorator@@@@KAXPAVCTextureAnimationCCWDecorator@NEffectUpdateDecorator@@@Z ENDP ; CDynamicPoolEx<NEffectUpdateDecorator::CTextureAnimationCCWDecorator>::Delete
_TEXT	ENDS
; Function compile flags: /Ogtp
; File D:\Metin2 Server Files\mainline\SRC_2014\Metin2Client\eterLib\Pool.h
; File C:\Program Files (x86)\Microsoft Visual Studio\2019\Community\VC\Tools\MSVC\14.28.29333\include\vector
; File C:\Program Files (x86)\Microsoft Visual Studio\2019\Community\VC\Tools\MSVC\14.28.29333\include\algorithm
; File D:\Metin2 Server Files\mainline\SRC_2014\Metin2Client\eterLib\Pool.h
; File C:\Program Files (x86)\Microsoft Visual Studio\2019\Community\VC\Tools\MSVC\14.28.29333\include\algorithm
; File D:\Metin2 Server Files\mainline\SRC_2014\Metin2Client\eterLib\Pool.h
; File C:\Program Files (x86)\Microsoft Visual Studio\2019\Community\VC\Tools\MSVC\14.28.29333\include\algorithm
; File D:\Metin2 Server Files\mainline\SRC_2014\Metin2Client\eterLib\Pool.h
; File C:\Program Files (x86)\Microsoft Visual Studio\2019\Community\VC\Tools\MSVC\14.28.29333\include\vector
; File C:\Program Files (x86)\Microsoft Visual Studio\2019\Community\VC\Tools\MSVC\14.28.29333\include\xmemory
; File C:\Program Files (x86)\Microsoft Visual Studio\2019\Community\VC\Tools\MSVC\14.28.29333\include\vector
; File C:\Program Files (x86)\Microsoft Visual Studio\2019\Community\VC\Tools\MSVC\14.28.29333\include\xmemory
; File C:\Program Files (x86)\Microsoft Visual Studio\2019\Community\VC\Tools\MSVC\14.28.29333\include\vector
; File C:\Program Files (x86)\Microsoft Visual Studio\2019\Community\VC\Tools\MSVC\14.28.29333\include\xmemory
; File C:\Program Files (x86)\Microsoft Visual Studio\2019\Community\VC\Tools\MSVC\14.28.29333\include\vector
; File C:\Program Files (x86)\Microsoft Visual Studio\2019\Community\VC\Tools\MSVC\14.28.29333\include\xmemory
; File C:\Program Files (x86)\Microsoft Visual Studio\2019\Community\VC\Tools\MSVC\14.28.29333\include\vector
; File D:\Metin2 Server Files\mainline\SRC_2014\Metin2Client\eterLib\Pool.h
;	COMDAT ??1?$CDynamicPoolEx@VCTextureAnimationCCWDecorator@NEffectUpdateDecorator@@@@UAE@XZ
_TEXT	SEGMENT
??1?$CDynamicPoolEx@VCTextureAnimationCCWDecorator@NEffectUpdateDecorator@@@@UAE@XZ PROC ; CDynamicPoolEx<NEffectUpdateDecorator::CTextureAnimationCCWDecorator>::~CDynamicPoolEx<NEffectUpdateDecorator::CTextureAnimationCCWDecorator>, COMDAT
; _this$ = ecx

; 132  : 		{

  00000	53		 push	 ebx
  00001	56		 push	 esi
  00002	57		 push	 edi
  00003	8b f9		 mov	 edi, ecx
  00005	c7 07 00 00 00
	00		 mov	 DWORD PTR [edi], OFFSET ??_7?$CDynamicPoolEx@VCTextureAnimationCCWDecorator@NEffectUpdateDecorator@@@@6B@
; File C:\Program Files (x86)\Microsoft Visual Studio\2019\Community\VC\Tools\MSVC\14.28.29333\include\vector

; 42   :     _Vector_const_iterator(_Tptr _Parg, const _Container_base* _Pvector) noexcept : _Ptr(_Parg) {

  0000b	8b 5f 08	 mov	 ebx, DWORD PTR [edi+8]
  0000e	8b 77 04	 mov	 esi, DWORD PTR [edi+4]
; File C:\Program Files (x86)\Microsoft Visual Studio\2019\Community\VC\Tools\MSVC\14.28.29333\include\algorithm

; 307  :     for (; _UFirst != _ULast; ++_UFirst) {

  00011	3b f3		 cmp	 esi, ebx
  00013	74 14		 je	 SHORT $LN19@CDynamicPo
$LL20@CDynamicPo:
; File D:\Metin2 Server Files\mainline\SRC_2014\Metin2Client\eterLib\Pool.h

; 224  : 			::operator delete(pkData);

  00015	ff 36		 push	 DWORD PTR [esi]
  00017	e8 00 00 00 00	 call	 ??3@YAXPAX@Z		; operator delete
; File C:\Program Files (x86)\Microsoft Visual Studio\2019\Community\VC\Tools\MSVC\14.28.29333\include\algorithm

; 307  :     for (; _UFirst != _ULast; ++_UFirst) {

  0001c	83 c6 04	 add	 esi, 4
; File D:\Metin2 Server Files\mainline\SRC_2014\Metin2Client\eterLib\Pool.h

; 224  : 			::operator delete(pkData);

  0001f	83 c4 04	 add	 esp, 4
; File C:\Program Files (x86)\Microsoft Visual Studio\2019\Community\VC\Tools\MSVC\14.28.29333\include\algorithm

; 307  :     for (; _UFirst != _ULast; ++_UFirst) {

  00022	3b f3		 cmp	 esi, ebx
  00024	75 ef		 jne	 SHORT $LL20@CDynamicPo
  00026	8b 77 04	 mov	 esi, DWORD PTR [edi+4]
$LN19@CDynamicPo:
; File D:\Metin2 Server Files\mainline\SRC_2014\Metin2Client\eterLib\Pool.h

; 162  : 			m_kVct_pkFree.clear();

  00029	8b 4f 10	 mov	 ecx, DWORD PTR [edi+16]
  0002c	89 77 08	 mov	 DWORD PTR [edi+8], esi
  0002f	89 4f 14	 mov	 DWORD PTR [edi+20], ecx
; File C:\Program Files (x86)\Microsoft Visual Studio\2019\Community\VC\Tools\MSVC\14.28.29333\include\vector

; 1694 :         if (_Myfirst) { // destroy and deallocate old array

  00032	85 c9		 test	 ecx, ecx
  00034	74 27		 je	 SHORT $LN27@CDynamicPo

; 1695 :             _Destroy(_Myfirst, _Mylast);
; 1696 :             _Getal().deallocate(_Myfirst, static_cast<size_type>(_Myend - _Myfirst));

  00036	8b 47 18	 mov	 eax, DWORD PTR [edi+24]
  00039	2b c1		 sub	 eax, ecx
; File C:\Program Files (x86)\Microsoft Visual Studio\2019\Community\VC\Tools\MSVC\14.28.29333\include\xmemory

; 810  :         _Deallocate<_New_alignof<_Ty>>(_Ptr, sizeof(_Ty) * _Count);

  0003b	83 e0 fc	 and	 eax, -4			; fffffffcH
  0003e	50		 push	 eax
  0003f	51		 push	 ecx
  00040	e8 00 00 00 00	 call	 ??$_Deallocate@$07$0A@@std@@YAXPAXI@Z ; std::_Deallocate<8,0>
; File C:\Program Files (x86)\Microsoft Visual Studio\2019\Community\VC\Tools\MSVC\14.28.29333\include\vector

; 1698 :             _Myfirst = pointer();

  00045	c7 47 10 00 00
	00 00		 mov	 DWORD PTR [edi+16], 0
; File C:\Program Files (x86)\Microsoft Visual Studio\2019\Community\VC\Tools\MSVC\14.28.29333\include\xmemory

; 810  :         _Deallocate<_New_alignof<_Ty>>(_Ptr, sizeof(_Ty) * _Count);

  0004c	83 c4 08	 add	 esp, 8
; File C:\Program Files (x86)\Microsoft Visual Studio\2019\Community\VC\Tools\MSVC\14.28.29333\include\vector

; 1699 :             _Mylast  = pointer();

  0004f	c7 47 14 00 00
	00 00		 mov	 DWORD PTR [edi+20], 0

; 1700 :             _Myend   = pointer();

  00056	c7 47 18 00 00
	00 00		 mov	 DWORD PTR [edi+24], 0
$LN27@CDynamicPo:

; 1694 :         if (_Myfirst) { // destroy and deallocate old array

  0005d	8b 4f 04	 mov	 ecx, DWORD PTR [edi+4]
  00060	85 c9		 test	 ecx, ecx
  00062	74 27		 je	 SHORT $LN34@CDynamicPo

; 1695 :             _Destroy(_Myfirst, _Mylast);
; 1696 :             _Getal().deallocate(_Myfirst, static_cast<size_type>(_Myend - _Myfirst));

  00064	8b 47 0c	 mov	 eax, DWORD PTR [edi+12]
  00067	2b c1		 sub	 eax, ecx
; File C:\Program Files (x86)\Microsoft Visual Studio\2019\Community\VC\Tools\MSVC\14.28.29333\include\xmemory

; 810  :         _Deallocate<_New_alignof<_Ty>>(_Ptr, sizeof(_Ty) * _Count);

  00069	83 e0 fc	 and	 eax, -4			; fffffffcH
  0006c	50		 push	 eax
  0006d	51		 push	 ecx
  0006e	e8 00 00 00 00	 call	 ??$_Deallocate@$07$0A@@std@@YAXPAXI@Z ; std::_Deallocate<8,0>
; File C:\Program Files (x86)\Microsoft Visual Studio\2019\Community\VC\Tools\MSVC\14.28.29333\include\vector

; 1698 :             _Myfirst = pointer();

  00073	c7 47 04 00 00
	00 00		 mov	 DWORD PTR [edi+4], 0
; File C:\Program Files (x86)\Microsoft Visual Studio\2019\Community\VC\Tools\MSVC\14.28.29333\include\xmemory

; 810  :         _Deallocate<_New_alignof<_Ty>>(_Ptr, sizeof(_Ty) * _Count);

  0007a	83 c4 08	 add	 esp, 8
; File C:\Program Files (x86)\Microsoft Visual Studio\2019\Community\VC\Tools\MSVC\14.28.29333\include\vector

; 1699 :             _Mylast  = pointer();

  0007d	c7 47 08 00 00
	00 00		 mov	 DWORD PTR [edi+8], 0

; 1700 :             _Myend   = pointer();

  00084	c7 47 0c 00 00
	00 00		 mov	 DWORD PTR [edi+12], 0
$LN34@CDynamicPo:
  0008b	5f		 pop	 edi
; File D:\Metin2 Server Files\mainline\SRC_2014\Metin2Client\eterLib\Pool.h

; 142  : 		}

  0008c	5e		 pop	 esi
  0008d	5b		 pop	 ebx
  0008e	c3		 ret	 0
??1?$CDynamicPoolEx@VCTextureAnimationCCWDecorator@NEffectUpdateDecorator@@@@UAE@XZ ENDP ; CDynamicPoolEx<NEffectUpdateDecorator::CTextureAnimationCCWDecorator>::~CDynamicPoolEx<NEffectUpdateDecorator::CTextureAnimationCCWDecorator>
_TEXT	ENDS
; Function compile flags: /Ogtp
;	COMDAT ??_G?$CDynamicPoolEx@VCTextureAnimationRandomDecorator@NEffectUpdateDecorator@@@@UAEPAXI@Z
_TEXT	SEGMENT
___flags$ = 8						; size = 4
??_G?$CDynamicPoolEx@VCTextureAnimationRandomDecorator@NEffectUpdateDecorator@@@@UAEPAXI@Z PROC ; CDynamicPoolEx<NEffectUpdateDecorator::CTextureAnimationRandomDecorator>::`scalar deleting destructor', COMDAT
; _this$ = ecx
  00000	55		 push	 ebp
  00001	8b ec		 mov	 ebp, esp
  00003	56		 push	 esi
  00004	8b f1		 mov	 esi, ecx
  00006	e8 00 00 00 00	 call	 ??1?$CDynamicPoolEx@VCTextureAnimationRandomDecorator@NEffectUpdateDecorator@@@@UAE@XZ ; CDynamicPoolEx<NEffectUpdateDecorator::CTextureAnimationRandomDecorator>::~CDynamicPoolEx<NEffectUpdateDecorator::CTextureAnimationRandomDecorator>
  0000b	f6 45 08 01	 test	 BYTE PTR ___flags$[ebp], 1
  0000f	74 0b		 je	 SHORT $LN4@scalar
  00011	6a 24		 push	 36			; 00000024H
  00013	56		 push	 esi
  00014	e8 00 00 00 00	 call	 ??3@YAXPAXI@Z		; operator delete
  00019	83 c4 08	 add	 esp, 8
$LN4@scalar:
  0001c	8b c6		 mov	 eax, esi
  0001e	5e		 pop	 esi
  0001f	5d		 pop	 ebp
  00020	c2 04 00	 ret	 4
??_G?$CDynamicPoolEx@VCTextureAnimationRandomDecorator@NEffectUpdateDecorator@@@@UAEPAXI@Z ENDP ; CDynamicPoolEx<NEffectUpdateDecorator::CTextureAnimationRandomDecorator>::`scalar deleting destructor'
_TEXT	ENDS
; Function compile flags: /Ogtp
; File D:\Metin2 Server Files\mainline\SRC_2014\Metin2Client\eterLib\Pool.h
;	COMDAT ?Delete@?$CDynamicPoolEx@VCTextureAnimationRandomDecorator@NEffectUpdateDecorator@@@@KAXPAVCTextureAnimationRandomDecorator@NEffectUpdateDecorator@@@Z
_TEXT	SEGMENT
_pkData$ = 8						; size = 4
?Delete@?$CDynamicPoolEx@VCTextureAnimationRandomDecorator@NEffectUpdateDecorator@@@@KAXPAVCTextureAnimationRandomDecorator@NEffectUpdateDecorator@@@Z PROC ; CDynamicPoolEx<NEffectUpdateDecorator::CTextureAnimationRandomDecorator>::Delete, COMDAT

; 224  : 			::operator delete(pkData);

  00000	e9 00 00 00 00	 jmp	 ??3@YAXPAX@Z		; operator delete
?Delete@?$CDynamicPoolEx@VCTextureAnimationRandomDecorator@NEffectUpdateDecorator@@@@KAXPAVCTextureAnimationRandomDecorator@NEffectUpdateDecorator@@@Z ENDP ; CDynamicPoolEx<NEffectUpdateDecorator::CTextureAnimationRandomDecorator>::Delete
_TEXT	ENDS
; Function compile flags: /Ogtp
; File D:\Metin2 Server Files\mainline\SRC_2014\Metin2Client\eterLib\Pool.h
; File C:\Program Files (x86)\Microsoft Visual Studio\2019\Community\VC\Tools\MSVC\14.28.29333\include\vector
; File C:\Program Files (x86)\Microsoft Visual Studio\2019\Community\VC\Tools\MSVC\14.28.29333\include\algorithm
; File D:\Metin2 Server Files\mainline\SRC_2014\Metin2Client\eterLib\Pool.h
; File C:\Program Files (x86)\Microsoft Visual Studio\2019\Community\VC\Tools\MSVC\14.28.29333\include\algorithm
; File D:\Metin2 Server Files\mainline\SRC_2014\Metin2Client\eterLib\Pool.h
; File C:\Program Files (x86)\Microsoft Visual Studio\2019\Community\VC\Tools\MSVC\14.28.29333\include\algorithm
; File D:\Metin2 Server Files\mainline\SRC_2014\Metin2Client\eterLib\Pool.h
; File C:\Program Files (x86)\Microsoft Visual Studio\2019\Community\VC\Tools\MSVC\14.28.29333\include\vector
; File C:\Program Files (x86)\Microsoft Visual Studio\2019\Community\VC\Tools\MSVC\14.28.29333\include\xmemory
; File C:\Program Files (x86)\Microsoft Visual Studio\2019\Community\VC\Tools\MSVC\14.28.29333\include\vector
; File C:\Program Files (x86)\Microsoft Visual Studio\2019\Community\VC\Tools\MSVC\14.28.29333\include\xmemory
; File C:\Program Files (x86)\Microsoft Visual Studio\2019\Community\VC\Tools\MSVC\14.28.29333\include\vector
; File C:\Program Files (x86)\Microsoft Visual Studio\2019\Community\VC\Tools\MSVC\14.28.29333\include\xmemory
; File C:\Program Files (x86)\Microsoft Visual Studio\2019\Community\VC\Tools\MSVC\14.28.29333\include\vector
; File C:\Program Files (x86)\Microsoft Visual Studio\2019\Community\VC\Tools\MSVC\14.28.29333\include\xmemory
; File C:\Program Files (x86)\Microsoft Visual Studio\2019\Community\VC\Tools\MSVC\14.28.29333\include\vector
; File D:\Metin2 Server Files\mainline\SRC_2014\Metin2Client\eterLib\Pool.h
;	COMDAT ??1?$CDynamicPoolEx@VCTextureAnimationRandomDecorator@NEffectUpdateDecorator@@@@UAE@XZ
_TEXT	SEGMENT
??1?$CDynamicPoolEx@VCTextureAnimationRandomDecorator@NEffectUpdateDecorator@@@@UAE@XZ PROC ; CDynamicPoolEx<NEffectUpdateDecorator::CTextureAnimationRandomDecorator>::~CDynamicPoolEx<NEffectUpdateDecorator::CTextureAnimationRandomDecorator>, COMDAT
; _this$ = ecx

; 132  : 		{

  00000	53		 push	 ebx
  00001	56		 push	 esi
  00002	57		 push	 edi
  00003	8b f9		 mov	 edi, ecx
  00005	c7 07 00 00 00
	00		 mov	 DWORD PTR [edi], OFFSET ??_7?$CDynamicPoolEx@VCTextureAnimationRandomDecorator@NEffectUpdateDecorator@@@@6B@
; File C:\Program Files (x86)\Microsoft Visual Studio\2019\Community\VC\Tools\MSVC\14.28.29333\include\vector

; 42   :     _Vector_const_iterator(_Tptr _Parg, const _Container_base* _Pvector) noexcept : _Ptr(_Parg) {

  0000b	8b 5f 08	 mov	 ebx, DWORD PTR [edi+8]
  0000e	8b 77 04	 mov	 esi, DWORD PTR [edi+4]
; File C:\Program Files (x86)\Microsoft Visual Studio\2019\Community\VC\Tools\MSVC\14.28.29333\include\algorithm

; 307  :     for (; _UFirst != _ULast; ++_UFirst) {

  00011	3b f3		 cmp	 esi, ebx
  00013	74 14		 je	 SHORT $LN19@CDynamicPo
$LL20@CDynamicPo:
; File D:\Metin2 Server Files\mainline\SRC_2014\Metin2Client\eterLib\Pool.h

; 224  : 			::operator delete(pkData);

  00015	ff 36		 push	 DWORD PTR [esi]
  00017	e8 00 00 00 00	 call	 ??3@YAXPAX@Z		; operator delete
; File C:\Program Files (x86)\Microsoft Visual Studio\2019\Community\VC\Tools\MSVC\14.28.29333\include\algorithm

; 307  :     for (; _UFirst != _ULast; ++_UFirst) {

  0001c	83 c6 04	 add	 esi, 4
; File D:\Metin2 Server Files\mainline\SRC_2014\Metin2Client\eterLib\Pool.h

; 224  : 			::operator delete(pkData);

  0001f	83 c4 04	 add	 esp, 4
; File C:\Program Files (x86)\Microsoft Visual Studio\2019\Community\VC\Tools\MSVC\14.28.29333\include\algorithm

; 307  :     for (; _UFirst != _ULast; ++_UFirst) {

  00022	3b f3		 cmp	 esi, ebx
  00024	75 ef		 jne	 SHORT $LL20@CDynamicPo
  00026	8b 77 04	 mov	 esi, DWORD PTR [edi+4]
$LN19@CDynamicPo:
; File D:\Metin2 Server Files\mainline\SRC_2014\Metin2Client\eterLib\Pool.h

; 162  : 			m_kVct_pkFree.clear();

  00029	8b 4f 10	 mov	 ecx, DWORD PTR [edi+16]
  0002c	89 77 08	 mov	 DWORD PTR [edi+8], esi
  0002f	89 4f 14	 mov	 DWORD PTR [edi+20], ecx
; File C:\Program Files (x86)\Microsoft Visual Studio\2019\Community\VC\Tools\MSVC\14.28.29333\include\vector

; 1694 :         if (_Myfirst) { // destroy and deallocate old array

  00032	85 c9		 test	 ecx, ecx
  00034	74 27		 je	 SHORT $LN27@CDynamicPo

; 1695 :             _Destroy(_Myfirst, _Mylast);
; 1696 :             _Getal().deallocate(_Myfirst, static_cast<size_type>(_Myend - _Myfirst));

  00036	8b 47 18	 mov	 eax, DWORD PTR [edi+24]
  00039	2b c1		 sub	 eax, ecx
; File C:\Program Files (x86)\Microsoft Visual Studio\2019\Community\VC\Tools\MSVC\14.28.29333\include\xmemory

; 810  :         _Deallocate<_New_alignof<_Ty>>(_Ptr, sizeof(_Ty) * _Count);

  0003b	83 e0 fc	 and	 eax, -4			; fffffffcH
  0003e	50		 push	 eax
  0003f	51		 push	 ecx
  00040	e8 00 00 00 00	 call	 ??$_Deallocate@$07$0A@@std@@YAXPAXI@Z ; std::_Deallocate<8,0>
; File C:\Program Files (x86)\Microsoft Visual Studio\2019\Community\VC\Tools\MSVC\14.28.29333\include\vector

; 1698 :             _Myfirst = pointer();

  00045	c7 47 10 00 00
	00 00		 mov	 DWORD PTR [edi+16], 0
; File C:\Program Files (x86)\Microsoft Visual Studio\2019\Community\VC\Tools\MSVC\14.28.29333\include\xmemory

; 810  :         _Deallocate<_New_alignof<_Ty>>(_Ptr, sizeof(_Ty) * _Count);

  0004c	83 c4 08	 add	 esp, 8
; File C:\Program Files (x86)\Microsoft Visual Studio\2019\Community\VC\Tools\MSVC\14.28.29333\include\vector

; 1699 :             _Mylast  = pointer();

  0004f	c7 47 14 00 00
	00 00		 mov	 DWORD PTR [edi+20], 0

; 1700 :             _Myend   = pointer();

  00056	c7 47 18 00 00
	00 00		 mov	 DWORD PTR [edi+24], 0
$LN27@CDynamicPo:

; 1694 :         if (_Myfirst) { // destroy and deallocate old array

  0005d	8b 4f 04	 mov	 ecx, DWORD PTR [edi+4]
  00060	85 c9		 test	 ecx, ecx
  00062	74 27		 je	 SHORT $LN34@CDynamicPo

; 1695 :             _Destroy(_Myfirst, _Mylast);
; 1696 :             _Getal().deallocate(_Myfirst, static_cast<size_type>(_Myend - _Myfirst));

  00064	8b 47 0c	 mov	 eax, DWORD PTR [edi+12]
  00067	2b c1		 sub	 eax, ecx
; File C:\Program Files (x86)\Microsoft Visual Studio\2019\Community\VC\Tools\MSVC\14.28.29333\include\xmemory

; 810  :         _Deallocate<_New_alignof<_Ty>>(_Ptr, sizeof(_Ty) * _Count);

  00069	83 e0 fc	 and	 eax, -4			; fffffffcH
  0006c	50		 push	 eax
  0006d	51		 push	 ecx
  0006e	e8 00 00 00 00	 call	 ??$_Deallocate@$07$0A@@std@@YAXPAXI@Z ; std::_Deallocate<8,0>
; File C:\Program Files (x86)\Microsoft Visual Studio\2019\Community\VC\Tools\MSVC\14.28.29333\include\vector

; 1698 :             _Myfirst = pointer();

  00073	c7 47 04 00 00
	00 00		 mov	 DWORD PTR [edi+4], 0
; File C:\Program Files (x86)\Microsoft Visual Studio\2019\Community\VC\Tools\MSVC\14.28.29333\include\xmemory

; 810  :         _Deallocate<_New_alignof<_Ty>>(_Ptr, sizeof(_Ty) * _Count);

  0007a	83 c4 08	 add	 esp, 8
; File C:\Program Files (x86)\Microsoft Visual Studio\2019\Community\VC\Tools\MSVC\14.28.29333\include\vector

; 1699 :             _Mylast  = pointer();

  0007d	c7 47 08 00 00
	00 00		 mov	 DWORD PTR [edi+8], 0

; 1700 :             _Myend   = pointer();

  00084	c7 47 0c 00 00
	00 00		 mov	 DWORD PTR [edi+12], 0
$LN34@CDynamicPo:
  0008b	5f		 pop	 edi
; File D:\Metin2 Server Files\mainline\SRC_2014\Metin2Client\eterLib\Pool.h

; 142  : 		}

  0008c	5e		 pop	 esi
  0008d	5b		 pop	 ebx
  0008e	c3		 ret	 0
??1?$CDynamicPoolEx@VCTextureAnimationRandomDecorator@NEffectUpdateDecorator@@@@UAE@XZ ENDP ; CDynamicPoolEx<NEffectUpdateDecorator::CTextureAnimationRandomDecorator>::~CDynamicPoolEx<NEffectUpdateDecorator::CTextureAnimationRandomDecorator>
_TEXT	ENDS
; Function compile flags: /Ogtp
;	COMDAT ??_G?$CDynamicPoolEx@VCAirResistanceDecorator@NEffectUpdateDecorator@@@@UAEPAXI@Z
_TEXT	SEGMENT
___flags$ = 8						; size = 4
??_G?$CDynamicPoolEx@VCAirResistanceDecorator@NEffectUpdateDecorator@@@@UAEPAXI@Z PROC ; CDynamicPoolEx<NEffectUpdateDecorator::CAirResistanceDecorator>::`scalar deleting destructor', COMDAT
; _this$ = ecx
  00000	55		 push	 ebp
  00001	8b ec		 mov	 ebp, esp
  00003	56		 push	 esi
  00004	8b f1		 mov	 esi, ecx
  00006	e8 00 00 00 00	 call	 ??1?$CDynamicPoolEx@VCAirResistanceDecorator@NEffectUpdateDecorator@@@@UAE@XZ ; CDynamicPoolEx<NEffectUpdateDecorator::CAirResistanceDecorator>::~CDynamicPoolEx<NEffectUpdateDecorator::CAirResistanceDecorator>
  0000b	f6 45 08 01	 test	 BYTE PTR ___flags$[ebp], 1
  0000f	74 0b		 je	 SHORT $LN4@scalar
  00011	6a 24		 push	 36			; 00000024H
  00013	56		 push	 esi
  00014	e8 00 00 00 00	 call	 ??3@YAXPAXI@Z		; operator delete
  00019	83 c4 08	 add	 esp, 8
$LN4@scalar:
  0001c	8b c6		 mov	 eax, esi
  0001e	5e		 pop	 esi
  0001f	5d		 pop	 ebp
  00020	c2 04 00	 ret	 4
??_G?$CDynamicPoolEx@VCAirResistanceDecorator@NEffectUpdateDecorator@@@@UAEPAXI@Z ENDP ; CDynamicPoolEx<NEffectUpdateDecorator::CAirResistanceDecorator>::`scalar deleting destructor'
_TEXT	ENDS
; Function compile flags: /Ogtp
; File D:\Metin2 Server Files\mainline\SRC_2014\Metin2Client\eterLib\Pool.h
;	COMDAT ?Delete@?$CDynamicPoolEx@VCAirResistanceDecorator@NEffectUpdateDecorator@@@@KAXPAVCAirResistanceDecorator@NEffectUpdateDecorator@@@Z
_TEXT	SEGMENT
_pkData$ = 8						; size = 4
?Delete@?$CDynamicPoolEx@VCAirResistanceDecorator@NEffectUpdateDecorator@@@@KAXPAVCAirResistanceDecorator@NEffectUpdateDecorator@@@Z PROC ; CDynamicPoolEx<NEffectUpdateDecorator::CAirResistanceDecorator>::Delete, COMDAT

; 224  : 			::operator delete(pkData);

  00000	e9 00 00 00 00	 jmp	 ??3@YAXPAX@Z		; operator delete
?Delete@?$CDynamicPoolEx@VCAirResistanceDecorator@NEffectUpdateDecorator@@@@KAXPAVCAirResistanceDecorator@NEffectUpdateDecorator@@@Z ENDP ; CDynamicPoolEx<NEffectUpdateDecorator::CAirResistanceDecorator>::Delete
_TEXT	ENDS
; Function compile flags: /Ogtp
; File D:\Metin2 Server Files\mainline\SRC_2014\Metin2Client\eterLib\Pool.h
; File C:\Program Files (x86)\Microsoft Visual Studio\2019\Community\VC\Tools\MSVC\14.28.29333\include\vector
; File C:\Program Files (x86)\Microsoft Visual Studio\2019\Community\VC\Tools\MSVC\14.28.29333\include\algorithm
; File D:\Metin2 Server Files\mainline\SRC_2014\Metin2Client\eterLib\Pool.h
; File C:\Program Files (x86)\Microsoft Visual Studio\2019\Community\VC\Tools\MSVC\14.28.29333\include\algorithm
; File D:\Metin2 Server Files\mainline\SRC_2014\Metin2Client\eterLib\Pool.h
; File C:\Program Files (x86)\Microsoft Visual Studio\2019\Community\VC\Tools\MSVC\14.28.29333\include\algorithm
; File D:\Metin2 Server Files\mainline\SRC_2014\Metin2Client\eterLib\Pool.h
; File C:\Program Files (x86)\Microsoft Visual Studio\2019\Community\VC\Tools\MSVC\14.28.29333\include\vector
; File C:\Program Files (x86)\Microsoft Visual Studio\2019\Community\VC\Tools\MSVC\14.28.29333\include\xmemory
; File C:\Program Files (x86)\Microsoft Visual Studio\2019\Community\VC\Tools\MSVC\14.28.29333\include\vector
; File C:\Program Files (x86)\Microsoft Visual Studio\2019\Community\VC\Tools\MSVC\14.28.29333\include\xmemory
; File C:\Program Files (x86)\Microsoft Visual Studio\2019\Community\VC\Tools\MSVC\14.28.29333\include\vector
; File C:\Program Files (x86)\Microsoft Visual Studio\2019\Community\VC\Tools\MSVC\14.28.29333\include\xmemory
; File C:\Program Files (x86)\Microsoft Visual Studio\2019\Community\VC\Tools\MSVC\14.28.29333\include\vector
; File C:\Program Files (x86)\Microsoft Visual Studio\2019\Community\VC\Tools\MSVC\14.28.29333\include\xmemory
; File C:\Program Files (x86)\Microsoft Visual Studio\2019\Community\VC\Tools\MSVC\14.28.29333\include\vector
; File D:\Metin2 Server Files\mainline\SRC_2014\Metin2Client\eterLib\Pool.h
;	COMDAT ??1?$CDynamicPoolEx@VCAirResistanceDecorator@NEffectUpdateDecorator@@@@UAE@XZ
_TEXT	SEGMENT
??1?$CDynamicPoolEx@VCAirResistanceDecorator@NEffectUpdateDecorator@@@@UAE@XZ PROC ; CDynamicPoolEx<NEffectUpdateDecorator::CAirResistanceDecorator>::~CDynamicPoolEx<NEffectUpdateDecorator::CAirResistanceDecorator>, COMDAT
; _this$ = ecx

; 132  : 		{

  00000	53		 push	 ebx
  00001	56		 push	 esi
  00002	57		 push	 edi
  00003	8b f9		 mov	 edi, ecx
  00005	c7 07 00 00 00
	00		 mov	 DWORD PTR [edi], OFFSET ??_7?$CDynamicPoolEx@VCAirResistanceDecorator@NEffectUpdateDecorator@@@@6B@
; File C:\Program Files (x86)\Microsoft Visual Studio\2019\Community\VC\Tools\MSVC\14.28.29333\include\vector

; 42   :     _Vector_const_iterator(_Tptr _Parg, const _Container_base* _Pvector) noexcept : _Ptr(_Parg) {

  0000b	8b 5f 08	 mov	 ebx, DWORD PTR [edi+8]
  0000e	8b 77 04	 mov	 esi, DWORD PTR [edi+4]
; File C:\Program Files (x86)\Microsoft Visual Studio\2019\Community\VC\Tools\MSVC\14.28.29333\include\algorithm

; 307  :     for (; _UFirst != _ULast; ++_UFirst) {

  00011	3b f3		 cmp	 esi, ebx
  00013	74 14		 je	 SHORT $LN19@CDynamicPo
$LL20@CDynamicPo:
; File D:\Metin2 Server Files\mainline\SRC_2014\Metin2Client\eterLib\Pool.h

; 224  : 			::operator delete(pkData);

  00015	ff 36		 push	 DWORD PTR [esi]
  00017	e8 00 00 00 00	 call	 ??3@YAXPAX@Z		; operator delete
; File C:\Program Files (x86)\Microsoft Visual Studio\2019\Community\VC\Tools\MSVC\14.28.29333\include\algorithm

; 307  :     for (; _UFirst != _ULast; ++_UFirst) {

  0001c	83 c6 04	 add	 esi, 4
; File D:\Metin2 Server Files\mainline\SRC_2014\Metin2Client\eterLib\Pool.h

; 224  : 			::operator delete(pkData);

  0001f	83 c4 04	 add	 esp, 4
; File C:\Program Files (x86)\Microsoft Visual Studio\2019\Community\VC\Tools\MSVC\14.28.29333\include\algorithm

; 307  :     for (; _UFirst != _ULast; ++_UFirst) {

  00022	3b f3		 cmp	 esi, ebx
  00024	75 ef		 jne	 SHORT $LL20@CDynamicPo
  00026	8b 77 04	 mov	 esi, DWORD PTR [edi+4]
$LN19@CDynamicPo:
; File D:\Metin2 Server Files\mainline\SRC_2014\Metin2Client\eterLib\Pool.h

; 162  : 			m_kVct_pkFree.clear();

  00029	8b 4f 10	 mov	 ecx, DWORD PTR [edi+16]
  0002c	89 77 08	 mov	 DWORD PTR [edi+8], esi
  0002f	89 4f 14	 mov	 DWORD PTR [edi+20], ecx
; File C:\Program Files (x86)\Microsoft Visual Studio\2019\Community\VC\Tools\MSVC\14.28.29333\include\vector

; 1694 :         if (_Myfirst) { // destroy and deallocate old array

  00032	85 c9		 test	 ecx, ecx
  00034	74 27		 je	 SHORT $LN27@CDynamicPo

; 1695 :             _Destroy(_Myfirst, _Mylast);
; 1696 :             _Getal().deallocate(_Myfirst, static_cast<size_type>(_Myend - _Myfirst));

  00036	8b 47 18	 mov	 eax, DWORD PTR [edi+24]
  00039	2b c1		 sub	 eax, ecx
; File C:\Program Files (x86)\Microsoft Visual Studio\2019\Community\VC\Tools\MSVC\14.28.29333\include\xmemory

; 810  :         _Deallocate<_New_alignof<_Ty>>(_Ptr, sizeof(_Ty) * _Count);

  0003b	83 e0 fc	 and	 eax, -4			; fffffffcH
  0003e	50		 push	 eax
  0003f	51		 push	 ecx
  00040	e8 00 00 00 00	 call	 ??$_Deallocate@$07$0A@@std@@YAXPAXI@Z ; std::_Deallocate<8,0>
; File C:\Program Files (x86)\Microsoft Visual Studio\2019\Community\VC\Tools\MSVC\14.28.29333\include\vector

; 1698 :             _Myfirst = pointer();

  00045	c7 47 10 00 00
	00 00		 mov	 DWORD PTR [edi+16], 0
; File C:\Program Files (x86)\Microsoft Visual Studio\2019\Community\VC\Tools\MSVC\14.28.29333\include\xmemory

; 810  :         _Deallocate<_New_alignof<_Ty>>(_Ptr, sizeof(_Ty) * _Count);

  0004c	83 c4 08	 add	 esp, 8
; File C:\Program Files (x86)\Microsoft Visual Studio\2019\Community\VC\Tools\MSVC\14.28.29333\include\vector

; 1699 :             _Mylast  = pointer();

  0004f	c7 47 14 00 00
	00 00		 mov	 DWORD PTR [edi+20], 0

; 1700 :             _Myend   = pointer();

  00056	c7 47 18 00 00
	00 00		 mov	 DWORD PTR [edi+24], 0
$LN27@CDynamicPo:

; 1694 :         if (_Myfirst) { // destroy and deallocate old array

  0005d	8b 4f 04	 mov	 ecx, DWORD PTR [edi+4]
  00060	85 c9		 test	 ecx, ecx
  00062	74 27		 je	 SHORT $LN34@CDynamicPo

; 1695 :             _Destroy(_Myfirst, _Mylast);
; 1696 :             _Getal().deallocate(_Myfirst, static_cast<size_type>(_Myend - _Myfirst));

  00064	8b 47 0c	 mov	 eax, DWORD PTR [edi+12]
  00067	2b c1		 sub	 eax, ecx
; File C:\Program Files (x86)\Microsoft Visual Studio\2019\Community\VC\Tools\MSVC\14.28.29333\include\xmemory

; 810  :         _Deallocate<_New_alignof<_Ty>>(_Ptr, sizeof(_Ty) * _Count);

  00069	83 e0 fc	 and	 eax, -4			; fffffffcH
  0006c	50		 push	 eax
  0006d	51		 push	 ecx
  0006e	e8 00 00 00 00	 call	 ??$_Deallocate@$07$0A@@std@@YAXPAXI@Z ; std::_Deallocate<8,0>
; File C:\Program Files (x86)\Microsoft Visual Studio\2019\Community\VC\Tools\MSVC\14.28.29333\include\vector

; 1698 :             _Myfirst = pointer();

  00073	c7 47 04 00 00
	00 00		 mov	 DWORD PTR [edi+4], 0
; File C:\Program Files (x86)\Microsoft Visual Studio\2019\Community\VC\Tools\MSVC\14.28.29333\include\xmemory

; 810  :         _Deallocate<_New_alignof<_Ty>>(_Ptr, sizeof(_Ty) * _Count);

  0007a	83 c4 08	 add	 esp, 8
; File C:\Program Files (x86)\Microsoft Visual Studio\2019\Community\VC\Tools\MSVC\14.28.29333\include\vector

; 1699 :             _Mylast  = pointer();

  0007d	c7 47 08 00 00
	00 00		 mov	 DWORD PTR [edi+8], 0

; 1700 :             _Myend   = pointer();

  00084	c7 47 0c 00 00
	00 00		 mov	 DWORD PTR [edi+12], 0
$LN34@CDynamicPo:
  0008b	5f		 pop	 edi
; File D:\Metin2 Server Files\mainline\SRC_2014\Metin2Client\eterLib\Pool.h

; 142  : 		}

  0008c	5e		 pop	 esi
  0008d	5b		 pop	 ebx
  0008e	c3		 ret	 0
??1?$CDynamicPoolEx@VCAirResistanceDecorator@NEffectUpdateDecorator@@@@UAE@XZ ENDP ; CDynamicPoolEx<NEffectUpdateDecorator::CAirResistanceDecorator>::~CDynamicPoolEx<NEffectUpdateDecorator::CAirResistanceDecorator>
_TEXT	ENDS
; Function compile flags: /Ogtp
;	COMDAT ??_G?$CDynamicPoolEx@VCGravityDecorator@NEffectUpdateDecorator@@@@UAEPAXI@Z
_TEXT	SEGMENT
___flags$ = 8						; size = 4
??_G?$CDynamicPoolEx@VCGravityDecorator@NEffectUpdateDecorator@@@@UAEPAXI@Z PROC ; CDynamicPoolEx<NEffectUpdateDecorator::CGravityDecorator>::`scalar deleting destructor', COMDAT
; _this$ = ecx
  00000	55		 push	 ebp
  00001	8b ec		 mov	 ebp, esp
  00003	56		 push	 esi
  00004	8b f1		 mov	 esi, ecx
  00006	e8 00 00 00 00	 call	 ??1?$CDynamicPoolEx@VCGravityDecorator@NEffectUpdateDecorator@@@@UAE@XZ ; CDynamicPoolEx<NEffectUpdateDecorator::CGravityDecorator>::~CDynamicPoolEx<NEffectUpdateDecorator::CGravityDecorator>
  0000b	f6 45 08 01	 test	 BYTE PTR ___flags$[ebp], 1
  0000f	74 0b		 je	 SHORT $LN4@scalar
  00011	6a 24		 push	 36			; 00000024H
  00013	56		 push	 esi
  00014	e8 00 00 00 00	 call	 ??3@YAXPAXI@Z		; operator delete
  00019	83 c4 08	 add	 esp, 8
$LN4@scalar:
  0001c	8b c6		 mov	 eax, esi
  0001e	5e		 pop	 esi
  0001f	5d		 pop	 ebp
  00020	c2 04 00	 ret	 4
??_G?$CDynamicPoolEx@VCGravityDecorator@NEffectUpdateDecorator@@@@UAEPAXI@Z ENDP ; CDynamicPoolEx<NEffectUpdateDecorator::CGravityDecorator>::`scalar deleting destructor'
_TEXT	ENDS
; Function compile flags: /Ogtp
; File D:\Metin2 Server Files\mainline\SRC_2014\Metin2Client\eterLib\Pool.h
;	COMDAT ?Delete@?$CDynamicPoolEx@VCGravityDecorator@NEffectUpdateDecorator@@@@KAXPAVCGravityDecorator@NEffectUpdateDecorator@@@Z
_TEXT	SEGMENT
_pkData$ = 8						; size = 4
?Delete@?$CDynamicPoolEx@VCGravityDecorator@NEffectUpdateDecorator@@@@KAXPAVCGravityDecorator@NEffectUpdateDecorator@@@Z PROC ; CDynamicPoolEx<NEffectUpdateDecorator::CGravityDecorator>::Delete, COMDAT

; 224  : 			::operator delete(pkData);

  00000	e9 00 00 00 00	 jmp	 ??3@YAXPAX@Z		; operator delete
?Delete@?$CDynamicPoolEx@VCGravityDecorator@NEffectUpdateDecorator@@@@KAXPAVCGravityDecorator@NEffectUpdateDecorator@@@Z ENDP ; CDynamicPoolEx<NEffectUpdateDecorator::CGravityDecorator>::Delete
_TEXT	ENDS
; Function compile flags: /Ogtp
; File D:\Metin2 Server Files\mainline\SRC_2014\Metin2Client\eterLib\Pool.h
; File C:\Program Files (x86)\Microsoft Visual Studio\2019\Community\VC\Tools\MSVC\14.28.29333\include\vector
; File C:\Program Files (x86)\Microsoft Visual Studio\2019\Community\VC\Tools\MSVC\14.28.29333\include\algorithm
; File D:\Metin2 Server Files\mainline\SRC_2014\Metin2Client\eterLib\Pool.h
; File C:\Program Files (x86)\Microsoft Visual Studio\2019\Community\VC\Tools\MSVC\14.28.29333\include\algorithm
; File D:\Metin2 Server Files\mainline\SRC_2014\Metin2Client\eterLib\Pool.h
; File C:\Program Files (x86)\Microsoft Visual Studio\2019\Community\VC\Tools\MSVC\14.28.29333\include\algorithm
; File D:\Metin2 Server Files\mainline\SRC_2014\Metin2Client\eterLib\Pool.h
; File C:\Program Files (x86)\Microsoft Visual Studio\2019\Community\VC\Tools\MSVC\14.28.29333\include\vector
; File C:\Program Files (x86)\Microsoft Visual Studio\2019\Community\VC\Tools\MSVC\14.28.29333\include\xmemory
; File C:\Program Files (x86)\Microsoft Visual Studio\2019\Community\VC\Tools\MSVC\14.28.29333\include\vector
; File C:\Program Files (x86)\Microsoft Visual Studio\2019\Community\VC\Tools\MSVC\14.28.29333\include\xmemory
; File C:\Program Files (x86)\Microsoft Visual Studio\2019\Community\VC\Tools\MSVC\14.28.29333\include\vector
; File C:\Program Files (x86)\Microsoft Visual Studio\2019\Community\VC\Tools\MSVC\14.28.29333\include\xmemory
; File C:\Program Files (x86)\Microsoft Visual Studio\2019\Community\VC\Tools\MSVC\14.28.29333\include\vector
; File C:\Program Files (x86)\Microsoft Visual Studio\2019\Community\VC\Tools\MSVC\14.28.29333\include\xmemory
; File C:\Program Files (x86)\Microsoft Visual Studio\2019\Community\VC\Tools\MSVC\14.28.29333\include\vector
; File D:\Metin2 Server Files\mainline\SRC_2014\Metin2Client\eterLib\Pool.h
;	COMDAT ??1?$CDynamicPoolEx@VCGravityDecorator@NEffectUpdateDecorator@@@@UAE@XZ
_TEXT	SEGMENT
??1?$CDynamicPoolEx@VCGravityDecorator@NEffectUpdateDecorator@@@@UAE@XZ PROC ; CDynamicPoolEx<NEffectUpdateDecorator::CGravityDecorator>::~CDynamicPoolEx<NEffectUpdateDecorator::CGravityDecorator>, COMDAT
; _this$ = ecx

; 132  : 		{

  00000	53		 push	 ebx
  00001	56		 push	 esi
  00002	57		 push	 edi
  00003	8b f9		 mov	 edi, ecx
  00005	c7 07 00 00 00
	00		 mov	 DWORD PTR [edi], OFFSET ??_7?$CDynamicPoolEx@VCGravityDecorator@NEffectUpdateDecorator@@@@6B@
; File C:\Program Files (x86)\Microsoft Visual Studio\2019\Community\VC\Tools\MSVC\14.28.29333\include\vector

; 42   :     _Vector_const_iterator(_Tptr _Parg, const _Container_base* _Pvector) noexcept : _Ptr(_Parg) {

  0000b	8b 5f 08	 mov	 ebx, DWORD PTR [edi+8]
  0000e	8b 77 04	 mov	 esi, DWORD PTR [edi+4]
; File C:\Program Files (x86)\Microsoft Visual Studio\2019\Community\VC\Tools\MSVC\14.28.29333\include\algorithm

; 307  :     for (; _UFirst != _ULast; ++_UFirst) {

  00011	3b f3		 cmp	 esi, ebx
  00013	74 14		 je	 SHORT $LN19@CDynamicPo
$LL20@CDynamicPo:
; File D:\Metin2 Server Files\mainline\SRC_2014\Metin2Client\eterLib\Pool.h

; 224  : 			::operator delete(pkData);

  00015	ff 36		 push	 DWORD PTR [esi]
  00017	e8 00 00 00 00	 call	 ??3@YAXPAX@Z		; operator delete
; File C:\Program Files (x86)\Microsoft Visual Studio\2019\Community\VC\Tools\MSVC\14.28.29333\include\algorithm

; 307  :     for (; _UFirst != _ULast; ++_UFirst) {

  0001c	83 c6 04	 add	 esi, 4
; File D:\Metin2 Server Files\mainline\SRC_2014\Metin2Client\eterLib\Pool.h

; 224  : 			::operator delete(pkData);

  0001f	83 c4 04	 add	 esp, 4
; File C:\Program Files (x86)\Microsoft Visual Studio\2019\Community\VC\Tools\MSVC\14.28.29333\include\algorithm

; 307  :     for (; _UFirst != _ULast; ++_UFirst) {

  00022	3b f3		 cmp	 esi, ebx
  00024	75 ef		 jne	 SHORT $LL20@CDynamicPo
  00026	8b 77 04	 mov	 esi, DWORD PTR [edi+4]
$LN19@CDynamicPo:
; File D:\Metin2 Server Files\mainline\SRC_2014\Metin2Client\eterLib\Pool.h

; 162  : 			m_kVct_pkFree.clear();

  00029	8b 4f 10	 mov	 ecx, DWORD PTR [edi+16]
  0002c	89 77 08	 mov	 DWORD PTR [edi+8], esi
  0002f	89 4f 14	 mov	 DWORD PTR [edi+20], ecx
; File C:\Program Files (x86)\Microsoft Visual Studio\2019\Community\VC\Tools\MSVC\14.28.29333\include\vector

; 1694 :         if (_Myfirst) { // destroy and deallocate old array

  00032	85 c9		 test	 ecx, ecx
  00034	74 27		 je	 SHORT $LN27@CDynamicPo

; 1695 :             _Destroy(_Myfirst, _Mylast);
; 1696 :             _Getal().deallocate(_Myfirst, static_cast<size_type>(_Myend - _Myfirst));

  00036	8b 47 18	 mov	 eax, DWORD PTR [edi+24]
  00039	2b c1		 sub	 eax, ecx
; File C:\Program Files (x86)\Microsoft Visual Studio\2019\Community\VC\Tools\MSVC\14.28.29333\include\xmemory

; 810  :         _Deallocate<_New_alignof<_Ty>>(_Ptr, sizeof(_Ty) * _Count);

  0003b	83 e0 fc	 and	 eax, -4			; fffffffcH
  0003e	50		 push	 eax
  0003f	51		 push	 ecx
  00040	e8 00 00 00 00	 call	 ??$_Deallocate@$07$0A@@std@@YAXPAXI@Z ; std::_Deallocate<8,0>
; File C:\Program Files (x86)\Microsoft Visual Studio\2019\Community\VC\Tools\MSVC\14.28.29333\include\vector

; 1698 :             _Myfirst = pointer();

  00045	c7 47 10 00 00
	00 00		 mov	 DWORD PTR [edi+16], 0
; File C:\Program Files (x86)\Microsoft Visual Studio\2019\Community\VC\Tools\MSVC\14.28.29333\include\xmemory

; 810  :         _Deallocate<_New_alignof<_Ty>>(_Ptr, sizeof(_Ty) * _Count);

  0004c	83 c4 08	 add	 esp, 8
; File C:\Program Files (x86)\Microsoft Visual Studio\2019\Community\VC\Tools\MSVC\14.28.29333\include\vector

; 1699 :             _Mylast  = pointer();

  0004f	c7 47 14 00 00
	00 00		 mov	 DWORD PTR [edi+20], 0

; 1700 :             _Myend   = pointer();

  00056	c7 47 18 00 00
	00 00		 mov	 DWORD PTR [edi+24], 0
$LN27@CDynamicPo:

; 1694 :         if (_Myfirst) { // destroy and deallocate old array

  0005d	8b 4f 04	 mov	 ecx, DWORD PTR [edi+4]
  00060	85 c9		 test	 ecx, ecx
  00062	74 27		 je	 SHORT $LN34@CDynamicPo

; 1695 :             _Destroy(_Myfirst, _Mylast);
; 1696 :             _Getal().deallocate(_Myfirst, static_cast<size_type>(_Myend - _Myfirst));

  00064	8b 47 0c	 mov	 eax, DWORD PTR [edi+12]
  00067	2b c1		 sub	 eax, ecx
; File C:\Program Files (x86)\Microsoft Visual Studio\2019\Community\VC\Tools\MSVC\14.28.29333\include\xmemory

; 810  :         _Deallocate<_New_alignof<_Ty>>(_Ptr, sizeof(_Ty) * _Count);

  00069	83 e0 fc	 and	 eax, -4			; fffffffcH
  0006c	50		 push	 eax
  0006d	51		 push	 ecx
  0006e	e8 00 00 00 00	 call	 ??$_Deallocate@$07$0A@@std@@YAXPAXI@Z ; std::_Deallocate<8,0>
; File C:\Program Files (x86)\Microsoft Visual Studio\2019\Community\VC\Tools\MSVC\14.28.29333\include\vector

; 1698 :             _Myfirst = pointer();

  00073	c7 47 04 00 00
	00 00		 mov	 DWORD PTR [edi+4], 0
; File C:\Program Files (x86)\Microsoft Visual Studio\2019\Community\VC\Tools\MSVC\14.28.29333\include\xmemory

; 810  :         _Deallocate<_New_alignof<_Ty>>(_Ptr, sizeof(_Ty) * _Count);

  0007a	83 c4 08	 add	 esp, 8
; File C:\Program Files (x86)\Microsoft Visual Studio\2019\Community\VC\Tools\MSVC\14.28.29333\include\vector

; 1699 :             _Mylast  = pointer();

  0007d	c7 47 08 00 00
	00 00		 mov	 DWORD PTR [edi+8], 0

; 1700 :             _Myend   = pointer();

  00084	c7 47 0c 00 00
	00 00		 mov	 DWORD PTR [edi+12], 0
$LN34@CDynamicPo:
  0008b	5f		 pop	 edi
; File D:\Metin2 Server Files\mainline\SRC_2014\Metin2Client\eterLib\Pool.h

; 142  : 		}

  0008c	5e		 pop	 esi
  0008d	5b		 pop	 ebx
  0008e	c3		 ret	 0
??1?$CDynamicPoolEx@VCGravityDecorator@NEffectUpdateDecorator@@@@UAE@XZ ENDP ; CDynamicPoolEx<NEffectUpdateDecorator::CGravityDecorator>::~CDynamicPoolEx<NEffectUpdateDecorator::CGravityDecorator>
_TEXT	ENDS
; Function compile flags: /Ogtp
;	COMDAT ??_G?$CDynamicPoolEx@VCRotationDecorator@NEffectUpdateDecorator@@@@UAEPAXI@Z
_TEXT	SEGMENT
___flags$ = 8						; size = 4
??_G?$CDynamicPoolEx@VCRotationDecorator@NEffectUpdateDecorator@@@@UAEPAXI@Z PROC ; CDynamicPoolEx<NEffectUpdateDecorator::CRotationDecorator>::`scalar deleting destructor', COMDAT
; _this$ = ecx
  00000	55		 push	 ebp
  00001	8b ec		 mov	 ebp, esp
  00003	56		 push	 esi
  00004	8b f1		 mov	 esi, ecx
  00006	e8 00 00 00 00	 call	 ??1?$CDynamicPoolEx@VCRotationDecorator@NEffectUpdateDecorator@@@@UAE@XZ ; CDynamicPoolEx<NEffectUpdateDecorator::CRotationDecorator>::~CDynamicPoolEx<NEffectUpdateDecorator::CRotationDecorator>
  0000b	f6 45 08 01	 test	 BYTE PTR ___flags$[ebp], 1
  0000f	74 0b		 je	 SHORT $LN4@scalar
  00011	6a 24		 push	 36			; 00000024H
  00013	56		 push	 esi
  00014	e8 00 00 00 00	 call	 ??3@YAXPAXI@Z		; operator delete
  00019	83 c4 08	 add	 esp, 8
$LN4@scalar:
  0001c	8b c6		 mov	 eax, esi
  0001e	5e		 pop	 esi
  0001f	5d		 pop	 ebp
  00020	c2 04 00	 ret	 4
??_G?$CDynamicPoolEx@VCRotationDecorator@NEffectUpdateDecorator@@@@UAEPAXI@Z ENDP ; CDynamicPoolEx<NEffectUpdateDecorator::CRotationDecorator>::`scalar deleting destructor'
_TEXT	ENDS
; Function compile flags: /Ogtp
; File D:\Metin2 Server Files\mainline\SRC_2014\Metin2Client\eterLib\Pool.h
;	COMDAT ?Delete@?$CDynamicPoolEx@VCRotationDecorator@NEffectUpdateDecorator@@@@KAXPAVCRotationDecorator@NEffectUpdateDecorator@@@Z
_TEXT	SEGMENT
_pkData$ = 8						; size = 4
?Delete@?$CDynamicPoolEx@VCRotationDecorator@NEffectUpdateDecorator@@@@KAXPAVCRotationDecorator@NEffectUpdateDecorator@@@Z PROC ; CDynamicPoolEx<NEffectUpdateDecorator::CRotationDecorator>::Delete, COMDAT

; 224  : 			::operator delete(pkData);

  00000	e9 00 00 00 00	 jmp	 ??3@YAXPAX@Z		; operator delete
?Delete@?$CDynamicPoolEx@VCRotationDecorator@NEffectUpdateDecorator@@@@KAXPAVCRotationDecorator@NEffectUpdateDecorator@@@Z ENDP ; CDynamicPoolEx<NEffectUpdateDecorator::CRotationDecorator>::Delete
_TEXT	ENDS
; Function compile flags: /Ogtp
; File D:\Metin2 Server Files\mainline\SRC_2014\Metin2Client\eterLib\Pool.h
; File C:\Program Files (x86)\Microsoft Visual Studio\2019\Community\VC\Tools\MSVC\14.28.29333\include\vector
; File C:\Program Files (x86)\Microsoft Visual Studio\2019\Community\VC\Tools\MSVC\14.28.29333\include\algorithm
; File D:\Metin2 Server Files\mainline\SRC_2014\Metin2Client\eterLib\Pool.h
; File C:\Program Files (x86)\Microsoft Visual Studio\2019\Community\VC\Tools\MSVC\14.28.29333\include\algorithm
; File D:\Metin2 Server Files\mainline\SRC_2014\Metin2Client\eterLib\Pool.h
; File C:\Program Files (x86)\Microsoft Visual Studio\2019\Community\VC\Tools\MSVC\14.28.29333\include\algorithm
; File D:\Metin2 Server Files\mainline\SRC_2014\Metin2Client\eterLib\Pool.h
; File C:\Program Files (x86)\Microsoft Visual Studio\2019\Community\VC\Tools\MSVC\14.28.29333\include\vector
; File C:\Program Files (x86)\Microsoft Visual Studio\2019\Community\VC\Tools\MSVC\14.28.29333\include\xmemory
; File C:\Program Files (x86)\Microsoft Visual Studio\2019\Community\VC\Tools\MSVC\14.28.29333\include\vector
; File C:\Program Files (x86)\Microsoft Visual Studio\2019\Community\VC\Tools\MSVC\14.28.29333\include\xmemory
; File C:\Program Files (x86)\Microsoft Visual Studio\2019\Community\VC\Tools\MSVC\14.28.29333\include\vector
; File C:\Program Files (x86)\Microsoft Visual Studio\2019\Community\VC\Tools\MSVC\14.28.29333\include\xmemory
; File C:\Program Files (x86)\Microsoft Visual Studio\2019\Community\VC\Tools\MSVC\14.28.29333\include\vector
; File C:\Program Files (x86)\Microsoft Visual Studio\2019\Community\VC\Tools\MSVC\14.28.29333\include\xmemory
; File C:\Program Files (x86)\Microsoft Visual Studio\2019\Community\VC\Tools\MSVC\14.28.29333\include\vector
; File D:\Metin2 Server Files\mainline\SRC_2014\Metin2Client\eterLib\Pool.h
;	COMDAT ??1?$CDynamicPoolEx@VCRotationDecorator@NEffectUpdateDecorator@@@@UAE@XZ
_TEXT	SEGMENT
??1?$CDynamicPoolEx@VCRotationDecorator@NEffectUpdateDecorator@@@@UAE@XZ PROC ; CDynamicPoolEx<NEffectUpdateDecorator::CRotationDecorator>::~CDynamicPoolEx<NEffectUpdateDecorator::CRotationDecorator>, COMDAT
; _this$ = ecx

; 132  : 		{

  00000	53		 push	 ebx
  00001	56		 push	 esi
  00002	57		 push	 edi
  00003	8b f9		 mov	 edi, ecx
  00005	c7 07 00 00 00
	00		 mov	 DWORD PTR [edi], OFFSET ??_7?$CDynamicPoolEx@VCRotationDecorator@NEffectUpdateDecorator@@@@6B@
; File C:\Program Files (x86)\Microsoft Visual Studio\2019\Community\VC\Tools\MSVC\14.28.29333\include\vector

; 42   :     _Vector_const_iterator(_Tptr _Parg, const _Container_base* _Pvector) noexcept : _Ptr(_Parg) {

  0000b	8b 5f 08	 mov	 ebx, DWORD PTR [edi+8]
  0000e	8b 77 04	 mov	 esi, DWORD PTR [edi+4]
; File C:\Program Files (x86)\Microsoft Visual Studio\2019\Community\VC\Tools\MSVC\14.28.29333\include\algorithm

; 307  :     for (; _UFirst != _ULast; ++_UFirst) {

  00011	3b f3		 cmp	 esi, ebx
  00013	74 14		 je	 SHORT $LN19@CDynamicPo
$LL20@CDynamicPo:
; File D:\Metin2 Server Files\mainline\SRC_2014\Metin2Client\eterLib\Pool.h

; 224  : 			::operator delete(pkData);

  00015	ff 36		 push	 DWORD PTR [esi]
  00017	e8 00 00 00 00	 call	 ??3@YAXPAX@Z		; operator delete
; File C:\Program Files (x86)\Microsoft Visual Studio\2019\Community\VC\Tools\MSVC\14.28.29333\include\algorithm

; 307  :     for (; _UFirst != _ULast; ++_UFirst) {

  0001c	83 c6 04	 add	 esi, 4
; File D:\Metin2 Server Files\mainline\SRC_2014\Metin2Client\eterLib\Pool.h

; 224  : 			::operator delete(pkData);

  0001f	83 c4 04	 add	 esp, 4
; File C:\Program Files (x86)\Microsoft Visual Studio\2019\Community\VC\Tools\MSVC\14.28.29333\include\algorithm

; 307  :     for (; _UFirst != _ULast; ++_UFirst) {

  00022	3b f3		 cmp	 esi, ebx
  00024	75 ef		 jne	 SHORT $LL20@CDynamicPo
  00026	8b 77 04	 mov	 esi, DWORD PTR [edi+4]
$LN19@CDynamicPo:
; File D:\Metin2 Server Files\mainline\SRC_2014\Metin2Client\eterLib\Pool.h

; 162  : 			m_kVct_pkFree.clear();

  00029	8b 4f 10	 mov	 ecx, DWORD PTR [edi+16]
  0002c	89 77 08	 mov	 DWORD PTR [edi+8], esi
  0002f	89 4f 14	 mov	 DWORD PTR [edi+20], ecx
; File C:\Program Files (x86)\Microsoft Visual Studio\2019\Community\VC\Tools\MSVC\14.28.29333\include\vector

; 1694 :         if (_Myfirst) { // destroy and deallocate old array

  00032	85 c9		 test	 ecx, ecx
  00034	74 27		 je	 SHORT $LN27@CDynamicPo

; 1695 :             _Destroy(_Myfirst, _Mylast);
; 1696 :             _Getal().deallocate(_Myfirst, static_cast<size_type>(_Myend - _Myfirst));

  00036	8b 47 18	 mov	 eax, DWORD PTR [edi+24]
  00039	2b c1		 sub	 eax, ecx
; File C:\Program Files (x86)\Microsoft Visual Studio\2019\Community\VC\Tools\MSVC\14.28.29333\include\xmemory

; 810  :         _Deallocate<_New_alignof<_Ty>>(_Ptr, sizeof(_Ty) * _Count);

  0003b	83 e0 fc	 and	 eax, -4			; fffffffcH
  0003e	50		 push	 eax
  0003f	51		 push	 ecx
  00040	e8 00 00 00 00	 call	 ??$_Deallocate@$07$0A@@std@@YAXPAXI@Z ; std::_Deallocate<8,0>
; File C:\Program Files (x86)\Microsoft Visual Studio\2019\Community\VC\Tools\MSVC\14.28.29333\include\vector

; 1698 :             _Myfirst = pointer();

  00045	c7 47 10 00 00
	00 00		 mov	 DWORD PTR [edi+16], 0
; File C:\Program Files (x86)\Microsoft Visual Studio\2019\Community\VC\Tools\MSVC\14.28.29333\include\xmemory

; 810  :         _Deallocate<_New_alignof<_Ty>>(_Ptr, sizeof(_Ty) * _Count);

  0004c	83 c4 08	 add	 esp, 8
; File C:\Program Files (x86)\Microsoft Visual Studio\2019\Community\VC\Tools\MSVC\14.28.29333\include\vector

; 1699 :             _Mylast  = pointer();

  0004f	c7 47 14 00 00
	00 00		 mov	 DWORD PTR [edi+20], 0

; 1700 :             _Myend   = pointer();

  00056	c7 47 18 00 00
	00 00		 mov	 DWORD PTR [edi+24], 0
$LN27@CDynamicPo:

; 1694 :         if (_Myfirst) { // destroy and deallocate old array

  0005d	8b 4f 04	 mov	 ecx, DWORD PTR [edi+4]
  00060	85 c9		 test	 ecx, ecx
  00062	74 27		 je	 SHORT $LN34@CDynamicPo

; 1695 :             _Destroy(_Myfirst, _Mylast);
; 1696 :             _Getal().deallocate(_Myfirst, static_cast<size_type>(_Myend - _Myfirst));

  00064	8b 47 0c	 mov	 eax, DWORD PTR [edi+12]
  00067	2b c1		 sub	 eax, ecx
; File C:\Program Files (x86)\Microsoft Visual Studio\2019\Community\VC\Tools\MSVC\14.28.29333\include\xmemory

; 810  :         _Deallocate<_New_alignof<_Ty>>(_Ptr, sizeof(_Ty) * _Count);

  00069	83 e0 fc	 and	 eax, -4			; fffffffcH
  0006c	50		 push	 eax
  0006d	51		 push	 ecx
  0006e	e8 00 00 00 00	 call	 ??$_Deallocate@$07$0A@@std@@YAXPAXI@Z ; std::_Deallocate<8,0>
; File C:\Program Files (x86)\Microsoft Visual Studio\2019\Community\VC\Tools\MSVC\14.28.29333\include\vector

; 1698 :             _Myfirst = pointer();

  00073	c7 47 04 00 00
	00 00		 mov	 DWORD PTR [edi+4], 0
; File C:\Program Files (x86)\Microsoft Visual Studio\2019\Community\VC\Tools\MSVC\14.28.29333\include\xmemory

; 810  :         _Deallocate<_New_alignof<_Ty>>(_Ptr, sizeof(_Ty) * _Count);

  0007a	83 c4 08	 add	 esp, 8
; File C:\Program Files (x86)\Microsoft Visual Studio\2019\Community\VC\Tools\MSVC\14.28.29333\include\vector

; 1699 :             _Mylast  = pointer();

  0007d	c7 47 08 00 00
	00 00		 mov	 DWORD PTR [edi+8], 0

; 1700 :             _Myend   = pointer();

  00084	c7 47 0c 00 00
	00 00		 mov	 DWORD PTR [edi+12], 0
$LN34@CDynamicPo:
  0008b	5f		 pop	 edi
; File D:\Metin2 Server Files\mainline\SRC_2014\Metin2Client\eterLib\Pool.h

; 142  : 		}

  0008c	5e		 pop	 esi
  0008d	5b		 pop	 ebx
  0008e	c3		 ret	 0
??1?$CDynamicPoolEx@VCRotationDecorator@NEffectUpdateDecorator@@@@UAE@XZ ENDP ; CDynamicPoolEx<NEffectUpdateDecorator::CRotationDecorator>::~CDynamicPoolEx<NEffectUpdateDecorator::CRotationDecorator>
_TEXT	ENDS
; Function compile flags: /Ogtp
; File C:\Program Files (x86)\Microsoft Visual Studio\2019\Community\VC\Tools\MSVC\14.28.29333\include\xstring
;	COMDAT ??$?9DU?$char_traits@D@std@@V?$allocator@D@1@@std@@YA_NQBDABV?$basic_string@DU?$char_traits@D@std@@V?$allocator@D@2@@0@@Z
_TEXT	SEGMENT
__Left$ = 8						; size = 4
__Right$ = 12						; size = 4
??$?9DU?$char_traits@D@std@@V?$allocator@D@1@@std@@YA_NQBDABV?$basic_string@DU?$char_traits@D@std@@V?$allocator@D@2@@0@@Z PROC ; std::operator!=<char,std::char_traits<char>,std::allocator<char> >, COMDAT

; 4575 : _NODISCARD bool operator!=(_In_z_ const _Elem* const _Left, const basic_string<_Elem, _Traits, _Alloc>& _Right) {

  00000	55		 push	 ebp
  00001	8b ec		 mov	 ebp, esp

; 4576 :     return !(_Left == _Right);

  00003	ff 75 0c	 push	 DWORD PTR __Right$[ebp]
  00006	ff 75 08	 push	 DWORD PTR __Left$[ebp]
  00009	e8 00 00 00 00	 call	 ??$?8DU?$char_traits@D@std@@V?$allocator@D@1@@std@@YA_NQBDABV?$basic_string@DU?$char_traits@D@std@@V?$allocator@D@2@@0@@Z ; std::operator==<char,std::char_traits<char>,std::allocator<char> >
  0000e	83 c4 08	 add	 esp, 8
  00011	34 01		 xor	 al, 1

; 4577 : }

  00013	5d		 pop	 ebp
  00014	c3		 ret	 0
??$?9DU?$char_traits@D@std@@V?$allocator@D@1@@std@@YA_NQBDABV?$basic_string@DU?$char_traits@D@std@@V?$allocator@D@2@@0@@Z ENDP ; std::operator!=<char,std::char_traits<char>,std::allocator<char> >
_TEXT	ENDS
; Function compile flags: /Ogtp
;	COMDAT ??__Fs_packetHeaderMap@?1??CheckPacket@CPythonNetworkStream@@IAE_NPAE@Z@YAXXZ
text$yd	SEGMENT
??__Fs_packetHeaderMap@?1??CheckPacket@CPythonNetworkStream@@IAE_NPAE@Z@YAXXZ PROC ; `CPythonNetworkStream::CheckPacket'::`2'::`dynamic atexit destructor for 's_packetHeaderMap'', COMDAT
  00000	b9 00 00 00 00	 mov	 ecx, OFFSET ?s_packetHeaderMap@?1??CheckPacket@CPythonNetworkStream@@IAE_NPAE@Z@4VCMainPacketHeaderMap@@A
  00005	e9 00 00 00 00	 jmp	 ??1CNetworkPacketHeaderMap@@UAE@XZ ; CNetworkPacketHeaderMap::~CNetworkPacketHeaderMap
??__Fs_packetHeaderMap@?1??CheckPacket@CPythonNetworkStream@@IAE_NPAE@Z@YAXXZ ENDP ; `CPythonNetworkStream::CheckPacket'::`2'::`dynamic atexit destructor for 's_packetHeaderMap''
text$yd	ENDS
; Function compile flags: /Ogtp
;	COMDAT ??_GCMainPacketHeaderMap@@UAEPAXI@Z
_TEXT	SEGMENT
___flags$ = 8						; size = 4
??_GCMainPacketHeaderMap@@UAEPAXI@Z PROC		; CMainPacketHeaderMap::`scalar deleting destructor', COMDAT
; _this$ = ecx
  00000	55		 push	 ebp
  00001	8b ec		 mov	 ebp, esp
  00003	56		 push	 esi
  00004	8b f1		 mov	 esi, ecx
  00006	e8 00 00 00 00	 call	 ??1CNetworkPacketHeaderMap@@UAE@XZ ; CNetworkPacketHeaderMap::~CNetworkPacketHeaderMap
  0000b	f6 45 08 01	 test	 BYTE PTR ___flags$[ebp], 1
  0000f	74 0b		 je	 SHORT $LN7@scalar
  00011	6a 0c		 push	 12			; 0000000cH
  00013	56		 push	 esi
  00014	e8 00 00 00 00	 call	 ??3@YAXPAXI@Z		; operator delete
  00019	83 c4 08	 add	 esp, 8
$LN7@scalar:
  0001c	8b c6		 mov	 eax, esi
  0001e	5e		 pop	 esi
  0001f	5d		 pop	 ebp
  00020	c2 04 00	 ret	 4
??_GCMainPacketHeaderMap@@UAEPAXI@Z ENDP		; CMainPacketHeaderMap::`scalar deleting destructor'
_TEXT	ENDS
; Function compile flags: /Ogtp
; File D:\Metin2 Server Files\mainline\SRC_2014\Metin2Client\UserInterface\PythonNetworkStream.cpp
; File D:\Metin2 Server Files\mainline\SRC_2014\Metin2Client\eterLib\NetPacketHeaderMap.h
; File D:\Metin2 Server Files\mainline\SRC_2014\Metin2Client\UserInterface\PythonNetworkStream.cpp
; File D:\Metin2 Server Files\mainline\SRC_2014\Metin2Client\eterLib\NetPacketHeaderMap.h
; File D:\Metin2 Server Files\mainline\SRC_2014\Metin2Client\UserInterface\PythonNetworkStream.cpp
; File D:\Metin2 Server Files\mainline\SRC_2014\Metin2Client\eterLib\NetPacketHeaderMap.h
; File D:\Metin2 Server Files\mainline\SRC_2014\Metin2Client\UserInterface\PythonNetworkStream.cpp
; File D:\Metin2 Server Files\mainline\SRC_2014\Metin2Client\eterLib\NetPacketHeaderMap.h
; File D:\Metin2 Server Files\mainline\SRC_2014\Metin2Client\UserInterface\PythonNetworkStream.cpp
; File D:\Metin2 Server Files\mainline\SRC_2014\Metin2Client\eterLib\NetPacketHeaderMap.h
; File D:\Metin2 Server Files\mainline\SRC_2014\Metin2Client\UserInterface\PythonNetworkStream.cpp
; File D:\Metin2 Server Files\mainline\SRC_2014\Metin2Client\eterLib\NetPacketHeaderMap.h
; File D:\Metin2 Server Files\mainline\SRC_2014\Metin2Client\UserInterface\PythonNetworkStream.cpp
; File D:\Metin2 Server Files\mainline\SRC_2014\Metin2Client\eterLib\NetPacketHeaderMap.h
; File D:\Metin2 Server Files\mainline\SRC_2014\Metin2Client\UserInterface\PythonNetworkStream.cpp
; File D:\Metin2 Server Files\mainline\SRC_2014\Metin2Client\eterLib\NetPacketHeaderMap.h
; File D:\Metin2 Server Files\mainline\SRC_2014\Metin2Client\UserInterface\PythonNetworkStream.cpp
; File D:\Metin2 Server Files\mainline\SRC_2014\Metin2Client\eterLib\NetPacketHeaderMap.h
; File D:\Metin2 Server Files\mainline\SRC_2014\Metin2Client\UserInterface\PythonNetworkStream.cpp
; File D:\Metin2 Server Files\mainline\SRC_2014\Metin2Client\eterLib\NetPacketHeaderMap.h
; File D:\Metin2 Server Files\mainline\SRC_2014\Metin2Client\UserInterface\PythonNetworkStream.cpp
; File D:\Metin2 Server Files\mainline\SRC_2014\Metin2Client\eterLib\NetPacketHeaderMap.h
; File D:\Metin2 Server Files\mainline\SRC_2014\Metin2Client\UserInterface\PythonNetworkStream.cpp
; File D:\Metin2 Server Files\mainline\SRC_2014\Metin2Client\eterLib\NetPacketHeaderMap.h
; File D:\Metin2 Server Files\mainline\SRC_2014\Metin2Client\UserInterface\PythonNetworkStream.cpp
; File D:\Metin2 Server Files\mainline\SRC_2014\Metin2Client\eterLib\NetPacketHeaderMap.h
; File D:\Metin2 Server Files\mainline\SRC_2014\Metin2Client\UserInterface\PythonNetworkStream.cpp
; File D:\Metin2 Server Files\mainline\SRC_2014\Metin2Client\eterLib\NetPacketHeaderMap.h
; File D:\Metin2 Server Files\mainline\SRC_2014\Metin2Client\UserInterface\PythonNetworkStream.cpp
; File D:\Metin2 Server Files\mainline\SRC_2014\Metin2Client\eterLib\NetPacketHeaderMap.h
; File D:\Metin2 Server Files\mainline\SRC_2014\Metin2Client\UserInterface\PythonNetworkStream.cpp
; File D:\Metin2 Server Files\mainline\SRC_2014\Metin2Client\eterLib\NetPacketHeaderMap.h
; File D:\Metin2 Server Files\mainline\SRC_2014\Metin2Client\UserInterface\PythonNetworkStream.cpp
; File D:\Metin2 Server Files\mainline\SRC_2014\Metin2Client\eterLib\NetPacketHeaderMap.h
; File D:\Metin2 Server Files\mainline\SRC_2014\Metin2Client\UserInterface\PythonNetworkStream.cpp
; File D:\Metin2 Server Files\mainline\SRC_2014\Metin2Client\eterLib\NetPacketHeaderMap.h
; File D:\Metin2 Server Files\mainline\SRC_2014\Metin2Client\UserInterface\PythonNetworkStream.cpp
; File D:\Metin2 Server Files\mainline\SRC_2014\Metin2Client\eterLib\NetPacketHeaderMap.h
; File D:\Metin2 Server Files\mainline\SRC_2014\Metin2Client\UserInterface\PythonNetworkStream.cpp
; File D:\Metin2 Server Files\mainline\SRC_2014\Metin2Client\eterLib\NetPacketHeaderMap.h
; File D:\Metin2 Server Files\mainline\SRC_2014\Metin2Client\UserInterface\PythonNetworkStream.cpp
; File D:\Metin2 Server Files\mainline\SRC_2014\Metin2Client\eterLib\NetPacketHeaderMap.h
; File D:\Metin2 Server Files\mainline\SRC_2014\Metin2Client\UserInterface\PythonNetworkStream.cpp
; File D:\Metin2 Server Files\mainline\SRC_2014\Metin2Client\eterLib\NetPacketHeaderMap.h
; File D:\Metin2 Server Files\mainline\SRC_2014\Metin2Client\UserInterface\PythonNetworkStream.cpp
; File D:\Metin2 Server Files\mainline\SRC_2014\Metin2Client\eterLib\NetPacketHeaderMap.h
; File D:\Metin2 Server Files\mainline\SRC_2014\Metin2Client\UserInterface\PythonNetworkStream.cpp
; File D:\Metin2 Server Files\mainline\SRC_2014\Metin2Client\eterLib\NetPacketHeaderMap.h
; File D:\Metin2 Server Files\mainline\SRC_2014\Metin2Client\UserInterface\PythonNetworkStream.cpp
; File D:\Metin2 Server Files\mainline\SRC_2014\Metin2Client\eterLib\NetPacketHeaderMap.h
; File D:\Metin2 Server Files\mainline\SRC_2014\Metin2Client\UserInterface\PythonNetworkStream.cpp
; File D:\Metin2 Server Files\mainline\SRC_2014\Metin2Client\eterLib\NetPacketHeaderMap.h
; File D:\Metin2 Server Files\mainline\SRC_2014\Metin2Client\UserInterface\PythonNetworkStream.cpp
; File D:\Metin2 Server Files\mainline\SRC_2014\Metin2Client\eterLib\NetPacketHeaderMap.h
; File D:\Metin2 Server Files\mainline\SRC_2014\Metin2Client\UserInterface\PythonNetworkStream.cpp
; File D:\Metin2 Server Files\mainline\SRC_2014\Metin2Client\eterLib\NetPacketHeaderMap.h
; File D:\Metin2 Server Files\mainline\SRC_2014\Metin2Client\UserInterface\PythonNetworkStream.cpp
; File D:\Metin2 Server Files\mainline\SRC_2014\Metin2Client\eterLib\NetPacketHeaderMap.h
; File D:\Metin2 Server Files\mainline\SRC_2014\Metin2Client\UserInterface\PythonNetworkStream.cpp
; File D:\Metin2 Server Files\mainline\SRC_2014\Metin2Client\eterLib\NetPacketHeaderMap.h
; File D:\Metin2 Server Files\mainline\SRC_2014\Metin2Client\UserInterface\PythonNetworkStream.cpp
; File D:\Metin2 Server Files\mainline\SRC_2014\Metin2Client\eterLib\NetPacketHeaderMap.h
; File D:\Metin2 Server Files\mainline\SRC_2014\Metin2Client\UserInterface\PythonNetworkStream.cpp
; File D:\Metin2 Server Files\mainline\SRC_2014\Metin2Client\eterLib\NetPacketHeaderMap.h
; File D:\Metin2 Server Files\mainline\SRC_2014\Metin2Client\UserInterface\PythonNetworkStream.cpp
; File D:\Metin2 Server Files\mainline\SRC_2014\Metin2Client\eterLib\NetPacketHeaderMap.h
; File D:\Metin2 Server Files\mainline\SRC_2014\Metin2Client\UserInterface\PythonNetworkStream.cpp
; File D:\Metin2 Server Files\mainline\SRC_2014\Metin2Client\eterLib\NetPacketHeaderMap.h
; File D:\Metin2 Server Files\mainline\SRC_2014\Metin2Client\UserInterface\PythonNetworkStream.cpp
; File D:\Metin2 Server Files\mainline\SRC_2014\Metin2Client\eterLib\NetPacketHeaderMap.h
; File D:\Metin2 Server Files\mainline\SRC_2014\Metin2Client\UserInterface\PythonNetworkStream.cpp
; File D:\Metin2 Server Files\mainline\SRC_2014\Metin2Client\eterLib\NetPacketHeaderMap.h
; File D:\Metin2 Server Files\mainline\SRC_2014\Metin2Client\UserInterface\PythonNetworkStream.cpp
; File D:\Metin2 Server Files\mainline\SRC_2014\Metin2Client\eterLib\NetPacketHeaderMap.h
; File D:\Metin2 Server Files\mainline\SRC_2014\Metin2Client\UserInterface\PythonNetworkStream.cpp
; File D:\Metin2 Server Files\mainline\SRC_2014\Metin2Client\eterLib\NetPacketHeaderMap.h
; File D:\Metin2 Server Files\mainline\SRC_2014\Metin2Client\UserInterface\PythonNetworkStream.cpp
; File D:\Metin2 Server Files\mainline\SRC_2014\Metin2Client\eterLib\NetPacketHeaderMap.h
; File D:\Metin2 Server Files\mainline\SRC_2014\Metin2Client\UserInterface\PythonNetworkStream.cpp
; File D:\Metin2 Server Files\mainline\SRC_2014\Metin2Client\eterLib\NetPacketHeaderMap.h
; File D:\Metin2 Server Files\mainline\SRC_2014\Metin2Client\UserInterface\PythonNetworkStream.cpp
; File D:\Metin2 Server Files\mainline\SRC_2014\Metin2Client\eterLib\NetPacketHeaderMap.h
; File D:\Metin2 Server Files\mainline\SRC_2014\Metin2Client\UserInterface\PythonNetworkStream.cpp
; File D:\Metin2 Server Files\mainline\SRC_2014\Metin2Client\eterLib\NetPacketHeaderMap.h
; File D:\Metin2 Server Files\mainline\SRC_2014\Metin2Client\UserInterface\PythonNetworkStream.cpp
; File D:\Metin2 Server Files\mainline\SRC_2014\Metin2Client\eterLib\NetPacketHeaderMap.h
; File D:\Metin2 Server Files\mainline\SRC_2014\Metin2Client\UserInterface\PythonNetworkStream.cpp
; File D:\Metin2 Server Files\mainline\SRC_2014\Metin2Client\eterLib\NetPacketHeaderMap.h
; File D:\Metin2 Server Files\mainline\SRC_2014\Metin2Client\UserInterface\PythonNetworkStream.cpp
; File D:\Metin2 Server Files\mainline\SRC_2014\Metin2Client\eterLib\NetPacketHeaderMap.h
; File D:\Metin2 Server Files\mainline\SRC_2014\Metin2Client\UserInterface\PythonNetworkStream.cpp
; File D:\Metin2 Server Files\mainline\SRC_2014\Metin2Client\eterLib\NetPacketHeaderMap.h
; File D:\Metin2 Server Files\mainline\SRC_2014\Metin2Client\UserInterface\PythonNetworkStream.cpp
; File D:\Metin2 Server Files\mainline\SRC_2014\Metin2Client\eterLib\NetPacketHeaderMap.h
; File D:\Metin2 Server Files\mainline\SRC_2014\Metin2Client\UserInterface\PythonNetworkStream.cpp
; File D:\Metin2 Server Files\mainline\SRC_2014\Metin2Client\eterLib\NetPacketHeaderMap.h
; File D:\Metin2 Server Files\mainline\SRC_2014\Metin2Client\UserInterface\PythonNetworkStream.cpp
; File D:\Metin2 Server Files\mainline\SRC_2014\Metin2Client\eterLib\NetPacketHeaderMap.h
; File D:\Metin2 Server Files\mainline\SRC_2014\Metin2Client\UserInterface\PythonNetworkStream.cpp
; File D:\Metin2 Server Files\mainline\SRC_2014\Metin2Client\eterLib\NetPacketHeaderMap.h
; File D:\Metin2 Server Files\mainline\SRC_2014\Metin2Client\UserInterface\PythonNetworkStream.cpp
; File D:\Metin2 Server Files\mainline\SRC_2014\Metin2Client\eterLib\NetPacketHeaderMap.h
; File D:\Metin2 Server Files\mainline\SRC_2014\Metin2Client\UserInterface\PythonNetworkStream.cpp
; File D:\Metin2 Server Files\mainline\SRC_2014\Metin2Client\eterLib\NetPacketHeaderMap.h
; File D:\Metin2 Server Files\mainline\SRC_2014\Metin2Client\UserInterface\PythonNetworkStream.cpp
; File D:\Metin2 Server Files\mainline\SRC_2014\Metin2Client\eterLib\NetPacketHeaderMap.h
; File D:\Metin2 Server Files\mainline\SRC_2014\Metin2Client\UserInterface\PythonNetworkStream.cpp
; File D:\Metin2 Server Files\mainline\SRC_2014\Metin2Client\eterLib\NetPacketHeaderMap.h
; File D:\Metin2 Server Files\mainline\SRC_2014\Metin2Client\UserInterface\PythonNetworkStream.cpp
; File D:\Metin2 Server Files\mainline\SRC_2014\Metin2Client\eterLib\NetPacketHeaderMap.h
; File D:\Metin2 Server Files\mainline\SRC_2014\Metin2Client\UserInterface\PythonNetworkStream.cpp
; File D:\Metin2 Server Files\mainline\SRC_2014\Metin2Client\eterLib\NetPacketHeaderMap.h
; File D:\Metin2 Server Files\mainline\SRC_2014\Metin2Client\UserInterface\PythonNetworkStream.cpp
; File D:\Metin2 Server Files\mainline\SRC_2014\Metin2Client\eterLib\NetPacketHeaderMap.h
; File D:\Metin2 Server Files\mainline\SRC_2014\Metin2Client\UserInterface\PythonNetworkStream.cpp
; File D:\Metin2 Server Files\mainline\SRC_2014\Metin2Client\eterLib\NetPacketHeaderMap.h
; File D:\Metin2 Server Files\mainline\SRC_2014\Metin2Client\UserInterface\PythonNetworkStream.cpp
; File D:\Metin2 Server Files\mainline\SRC_2014\Metin2Client\eterLib\NetPacketHeaderMap.h
; File D:\Metin2 Server Files\mainline\SRC_2014\Metin2Client\UserInterface\PythonNetworkStream.cpp
; File D:\Metin2 Server Files\mainline\SRC_2014\Metin2Client\eterLib\NetPacketHeaderMap.h
; File D:\Metin2 Server Files\mainline\SRC_2014\Metin2Client\UserInterface\PythonNetworkStream.cpp
; File D:\Metin2 Server Files\mainline\SRC_2014\Metin2Client\eterLib\NetPacketHeaderMap.h
; File D:\Metin2 Server Files\mainline\SRC_2014\Metin2Client\UserInterface\PythonNetworkStream.cpp
; File D:\Metin2 Server Files\mainline\SRC_2014\Metin2Client\eterLib\NetPacketHeaderMap.h
; File D:\Metin2 Server Files\mainline\SRC_2014\Metin2Client\UserInterface\PythonNetworkStream.cpp
; File D:\Metin2 Server Files\mainline\SRC_2014\Metin2Client\eterLib\NetPacketHeaderMap.h
; File D:\Metin2 Server Files\mainline\SRC_2014\Metin2Client\UserInterface\PythonNetworkStream.cpp
; File D:\Metin2 Server Files\mainline\SRC_2014\Metin2Client\eterLib\NetPacketHeaderMap.h
; File D:\Metin2 Server Files\mainline\SRC_2014\Metin2Client\UserInterface\PythonNetworkStream.cpp
; File D:\Metin2 Server Files\mainline\SRC_2014\Metin2Client\eterLib\NetPacketHeaderMap.h
; File D:\Metin2 Server Files\mainline\SRC_2014\Metin2Client\UserInterface\PythonNetworkStream.cpp
; File D:\Metin2 Server Files\mainline\SRC_2014\Metin2Client\eterLib\NetPacketHeaderMap.h
; File D:\Metin2 Server Files\mainline\SRC_2014\Metin2Client\UserInterface\PythonNetworkStream.cpp
; File D:\Metin2 Server Files\mainline\SRC_2014\Metin2Client\eterLib\NetPacketHeaderMap.h
; File D:\Metin2 Server Files\mainline\SRC_2014\Metin2Client\UserInterface\PythonNetworkStream.cpp
; File D:\Metin2 Server Files\mainline\SRC_2014\Metin2Client\eterLib\NetPacketHeaderMap.h
; File D:\Metin2 Server Files\mainline\SRC_2014\Metin2Client\UserInterface\PythonNetworkStream.cpp
; File D:\Metin2 Server Files\mainline\SRC_2014\Metin2Client\eterLib\NetPacketHeaderMap.h
; File D:\Metin2 Server Files\mainline\SRC_2014\Metin2Client\UserInterface\PythonNetworkStream.cpp
; File D:\Metin2 Server Files\mainline\SRC_2014\Metin2Client\eterLib\NetPacketHeaderMap.h
; File D:\Metin2 Server Files\mainline\SRC_2014\Metin2Client\UserInterface\PythonNetworkStream.cpp
; File D:\Metin2 Server Files\mainline\SRC_2014\Metin2Client\eterLib\NetPacketHeaderMap.h
; File D:\Metin2 Server Files\mainline\SRC_2014\Metin2Client\UserInterface\PythonNetworkStream.cpp
; File D:\Metin2 Server Files\mainline\SRC_2014\Metin2Client\eterLib\NetPacketHeaderMap.h
; File D:\Metin2 Server Files\mainline\SRC_2014\Metin2Client\UserInterface\PythonNetworkStream.cpp
; File D:\Metin2 Server Files\mainline\SRC_2014\Metin2Client\eterLib\NetPacketHeaderMap.h
; File D:\Metin2 Server Files\mainline\SRC_2014\Metin2Client\UserInterface\PythonNetworkStream.cpp
; File D:\Metin2 Server Files\mainline\SRC_2014\Metin2Client\eterLib\NetPacketHeaderMap.h
; File D:\Metin2 Server Files\mainline\SRC_2014\Metin2Client\UserInterface\PythonNetworkStream.cpp
; File D:\Metin2 Server Files\mainline\SRC_2014\Metin2Client\eterLib\NetPacketHeaderMap.h
; File D:\Metin2 Server Files\mainline\SRC_2014\Metin2Client\UserInterface\PythonNetworkStream.cpp
; File D:\Metin2 Server Files\mainline\SRC_2014\Metin2Client\eterLib\NetPacketHeaderMap.h
; File D:\Metin2 Server Files\mainline\SRC_2014\Metin2Client\UserInterface\PythonNetworkStream.cpp
; File D:\Metin2 Server Files\mainline\SRC_2014\Metin2Client\eterLib\NetPacketHeaderMap.h
; File D:\Metin2 Server Files\mainline\SRC_2014\Metin2Client\UserInterface\PythonNetworkStream.cpp
; File D:\Metin2 Server Files\mainline\SRC_2014\Metin2Client\eterLib\NetPacketHeaderMap.h
; File D:\Metin2 Server Files\mainline\SRC_2014\Metin2Client\UserInterface\PythonNetworkStream.cpp
; File D:\Metin2 Server Files\mainline\SRC_2014\Metin2Client\eterLib\NetPacketHeaderMap.h
; File D:\Metin2 Server Files\mainline\SRC_2014\Metin2Client\UserInterface\PythonNetworkStream.cpp
; File D:\Metin2 Server Files\mainline\SRC_2014\Metin2Client\eterLib\NetPacketHeaderMap.h
; File D:\Metin2 Server Files\mainline\SRC_2014\Metin2Client\UserInterface\PythonNetworkStream.cpp
; File D:\Metin2 Server Files\mainline\SRC_2014\Metin2Client\eterLib\NetPacketHeaderMap.h
; File D:\Metin2 Server Files\mainline\SRC_2014\Metin2Client\UserInterface\PythonNetworkStream.cpp
; File D:\Metin2 Server Files\mainline\SRC_2014\Metin2Client\eterLib\NetPacketHeaderMap.h
; File D:\Metin2 Server Files\mainline\SRC_2014\Metin2Client\UserInterface\PythonNetworkStream.cpp
; File D:\Metin2 Server Files\mainline\SRC_2014\Metin2Client\eterLib\NetPacketHeaderMap.h
; File D:\Metin2 Server Files\mainline\SRC_2014\Metin2Client\UserInterface\PythonNetworkStream.cpp
; File D:\Metin2 Server Files\mainline\SRC_2014\Metin2Client\eterLib\NetPacketHeaderMap.h
; File D:\Metin2 Server Files\mainline\SRC_2014\Metin2Client\UserInterface\PythonNetworkStream.cpp
; File D:\Metin2 Server Files\mainline\SRC_2014\Metin2Client\eterLib\NetPacketHeaderMap.h
; File D:\Metin2 Server Files\mainline\SRC_2014\Metin2Client\UserInterface\PythonNetworkStream.cpp
; File D:\Metin2 Server Files\mainline\SRC_2014\Metin2Client\eterLib\NetPacketHeaderMap.h
; File D:\Metin2 Server Files\mainline\SRC_2014\Metin2Client\UserInterface\PythonNetworkStream.cpp
; File D:\Metin2 Server Files\mainline\SRC_2014\Metin2Client\eterLib\NetPacketHeaderMap.h
; File D:\Metin2 Server Files\mainline\SRC_2014\Metin2Client\UserInterface\PythonNetworkStream.cpp
; File D:\Metin2 Server Files\mainline\SRC_2014\Metin2Client\eterLib\NetPacketHeaderMap.h
; File D:\Metin2 Server Files\mainline\SRC_2014\Metin2Client\UserInterface\PythonNetworkStream.cpp
; File D:\Metin2 Server Files\mainline\SRC_2014\Metin2Client\eterLib\NetPacketHeaderMap.h
; File D:\Metin2 Server Files\mainline\SRC_2014\Metin2Client\UserInterface\PythonNetworkStream.cpp
; File D:\Metin2 Server Files\mainline\SRC_2014\Metin2Client\eterLib\NetPacketHeaderMap.h
; File D:\Metin2 Server Files\mainline\SRC_2014\Metin2Client\UserInterface\PythonNetworkStream.cpp
; File D:\Metin2 Server Files\mainline\SRC_2014\Metin2Client\eterLib\NetPacketHeaderMap.h
; File D:\Metin2 Server Files\mainline\SRC_2014\Metin2Client\UserInterface\PythonNetworkStream.cpp
; File D:\Metin2 Server Files\mainline\SRC_2014\Metin2Client\eterLib\NetPacketHeaderMap.h
; File D:\Metin2 Server Files\mainline\SRC_2014\Metin2Client\UserInterface\PythonNetworkStream.cpp
; File D:\Metin2 Server Files\mainline\SRC_2014\Metin2Client\eterLib\NetPacketHeaderMap.h
; File D:\Metin2 Server Files\mainline\SRC_2014\Metin2Client\UserInterface\PythonNetworkStream.cpp
; File D:\Metin2 Server Files\mainline\SRC_2014\Metin2Client\eterLib\NetPacketHeaderMap.h
; File D:\Metin2 Server Files\mainline\SRC_2014\Metin2Client\UserInterface\PythonNetworkStream.cpp
; File D:\Metin2 Server Files\mainline\SRC_2014\Metin2Client\eterLib\NetPacketHeaderMap.h
; File D:\Metin2 Server Files\mainline\SRC_2014\Metin2Client\UserInterface\PythonNetworkStream.cpp
; File D:\Metin2 Server Files\mainline\SRC_2014\Metin2Client\eterLib\NetPacketHeaderMap.h
; File D:\Metin2 Server Files\mainline\SRC_2014\Metin2Client\UserInterface\PythonNetworkStream.cpp
; File D:\Metin2 Server Files\mainline\SRC_2014\Metin2Client\eterLib\NetPacketHeaderMap.h
; File D:\Metin2 Server Files\mainline\SRC_2014\Metin2Client\UserInterface\PythonNetworkStream.cpp
; File D:\Metin2 Server Files\mainline\SRC_2014\Metin2Client\eterLib\NetPacketHeaderMap.h
; File D:\Metin2 Server Files\mainline\SRC_2014\Metin2Client\UserInterface\PythonNetworkStream.cpp
; File D:\Metin2 Server Files\mainline\SRC_2014\Metin2Client\eterLib\NetPacketHeaderMap.h
; File D:\Metin2 Server Files\mainline\SRC_2014\Metin2Client\UserInterface\PythonNetworkStream.cpp
; File D:\Metin2 Server Files\mainline\SRC_2014\Metin2Client\eterLib\NetPacketHeaderMap.h
; File D:\Metin2 Server Files\mainline\SRC_2014\Metin2Client\UserInterface\PythonNetworkStream.cpp
; File D:\Metin2 Server Files\mainline\SRC_2014\Metin2Client\eterLib\NetPacketHeaderMap.h
; File D:\Metin2 Server Files\mainline\SRC_2014\Metin2Client\UserInterface\PythonNetworkStream.cpp
; File D:\Metin2 Server Files\mainline\SRC_2014\Metin2Client\eterLib\NetPacketHeaderMap.h
; File D:\Metin2 Server Files\mainline\SRC_2014\Metin2Client\UserInterface\PythonNetworkStream.cpp
; File D:\Metin2 Server Files\mainline\SRC_2014\Metin2Client\eterLib\NetPacketHeaderMap.h
; File D:\Metin2 Server Files\mainline\SRC_2014\Metin2Client\UserInterface\PythonNetworkStream.cpp
; File D:\Metin2 Server Files\mainline\SRC_2014\Metin2Client\eterLib\NetPacketHeaderMap.h
; File D:\Metin2 Server Files\mainline\SRC_2014\Metin2Client\UserInterface\PythonNetworkStream.cpp
; File D:\Metin2 Server Files\mainline\SRC_2014\Metin2Client\eterLib\NetPacketHeaderMap.h
; File D:\Metin2 Server Files\mainline\SRC_2014\Metin2Client\UserInterface\PythonNetworkStream.cpp
; File D:\Metin2 Server Files\mainline\SRC_2014\Metin2Client\eterLib\NetPacketHeaderMap.h
; File D:\Metin2 Server Files\mainline\SRC_2014\Metin2Client\UserInterface\PythonNetworkStream.cpp
; File D:\Metin2 Server Files\mainline\SRC_2014\Metin2Client\eterLib\NetPacketHeaderMap.h
; File D:\Metin2 Server Files\mainline\SRC_2014\Metin2Client\UserInterface\PythonNetworkStream.cpp
; File D:\Metin2 Server Files\mainline\SRC_2014\Metin2Client\eterLib\NetPacketHeaderMap.h
; File D:\Metin2 Server Files\mainline\SRC_2014\Metin2Client\UserInterface\PythonNetworkStream.cpp
; File D:\Metin2 Server Files\mainline\SRC_2014\Metin2Client\eterLib\NetPacketHeaderMap.h
; File D:\Metin2 Server Files\mainline\SRC_2014\Metin2Client\UserInterface\PythonNetworkStream.cpp
; File D:\Metin2 Server Files\mainline\SRC_2014\Metin2Client\eterLib\NetPacketHeaderMap.h
; File D:\Metin2 Server Files\mainline\SRC_2014\Metin2Client\UserInterface\PythonNetworkStream.cpp
; File D:\Metin2 Server Files\mainline\SRC_2014\Metin2Client\eterLib\NetPacketHeaderMap.h
; File D:\Metin2 Server Files\mainline\SRC_2014\Metin2Client\UserInterface\PythonNetworkStream.cpp
; File D:\Metin2 Server Files\mainline\SRC_2014\Metin2Client\eterLib\NetPacketHeaderMap.h
; File D:\Metin2 Server Files\mainline\SRC_2014\Metin2Client\UserInterface\PythonNetworkStream.cpp
; File D:\Metin2 Server Files\mainline\SRC_2014\Metin2Client\eterLib\NetPacketHeaderMap.h
; File D:\Metin2 Server Files\mainline\SRC_2014\Metin2Client\UserInterface\PythonNetworkStream.cpp
; File D:\Metin2 Server Files\mainline\SRC_2014\Metin2Client\eterLib\NetPacketHeaderMap.h
; File D:\Metin2 Server Files\mainline\SRC_2014\Metin2Client\UserInterface\PythonNetworkStream.cpp
; File D:\Metin2 Server Files\mainline\SRC_2014\Metin2Client\eterLib\NetPacketHeaderMap.h
; File D:\Metin2 Server Files\mainline\SRC_2014\Metin2Client\UserInterface\PythonNetworkStream.cpp
; File D:\Metin2 Server Files\mainline\SRC_2014\Metin2Client\eterLib\NetPacketHeaderMap.h
; File D:\Metin2 Server Files\mainline\SRC_2014\Metin2Client\UserInterface\PythonNetworkStream.cpp
; File D:\Metin2 Server Files\mainline\SRC_2014\Metin2Client\eterLib\NetPacketHeaderMap.h
; File D:\Metin2 Server Files\mainline\SRC_2014\Metin2Client\UserInterface\PythonNetworkStream.cpp
; File D:\Metin2 Server Files\mainline\SRC_2014\Metin2Client\eterLib\NetPacketHeaderMap.h
; File D:\Metin2 Server Files\mainline\SRC_2014\Metin2Client\UserInterface\PythonNetworkStream.cpp
; File D:\Metin2 Server Files\mainline\SRC_2014\Metin2Client\eterLib\NetPacketHeaderMap.h
; File D:\Metin2 Server Files\mainline\SRC_2014\Metin2Client\UserInterface\PythonNetworkStream.cpp
; File D:\Metin2 Server Files\mainline\SRC_2014\Metin2Client\eterLib\NetPacketHeaderMap.h
; File D:\Metin2 Server Files\mainline\SRC_2014\Metin2Client\UserInterface\PythonNetworkStream.cpp
; File D:\Metin2 Server Files\mainline\SRC_2014\Metin2Client\eterLib\NetPacketHeaderMap.h
; File D:\Metin2 Server Files\mainline\SRC_2014\Metin2Client\UserInterface\PythonNetworkStream.cpp
; File D:\Metin2 Server Files\mainline\SRC_2014\Metin2Client\eterLib\NetPacketHeaderMap.h
; File D:\Metin2 Server Files\mainline\SRC_2014\Metin2Client\UserInterface\PythonNetworkStream.cpp
; File D:\Metin2 Server Files\mainline\SRC_2014\Metin2Client\eterLib\NetPacketHeaderMap.h
; File D:\Metin2 Server Files\mainline\SRC_2014\Metin2Client\UserInterface\PythonNetworkStream.cpp
; File D:\Metin2 Server Files\mainline\SRC_2014\Metin2Client\eterLib\NetPacketHeaderMap.h
; File D:\Metin2 Server Files\mainline\SRC_2014\Metin2Client\UserInterface\PythonNetworkStream.cpp
; File D:\Metin2 Server Files\mainline\SRC_2014\Metin2Client\eterLib\NetPacketHeaderMap.h
; File D:\Metin2 Server Files\mainline\SRC_2014\Metin2Client\UserInterface\PythonNetworkStream.cpp
; File D:\Metin2 Server Files\mainline\SRC_2014\Metin2Client\eterLib\NetPacketHeaderMap.h
; File D:\Metin2 Server Files\mainline\SRC_2014\Metin2Client\UserInterface\PythonNetworkStream.cpp
; File D:\Metin2 Server Files\mainline\SRC_2014\Metin2Client\eterLib\NetPacketHeaderMap.h
; File D:\Metin2 Server Files\mainline\SRC_2014\Metin2Client\UserInterface\PythonNetworkStream.cpp
; File D:\Metin2 Server Files\mainline\SRC_2014\Metin2Client\eterLib\NetPacketHeaderMap.h
; File D:\Metin2 Server Files\mainline\SRC_2014\Metin2Client\UserInterface\PythonNetworkStream.cpp
; File D:\Metin2 Server Files\mainline\SRC_2014\Metin2Client\eterLib\NetPacketHeaderMap.h
; File D:\Metin2 Server Files\mainline\SRC_2014\Metin2Client\UserInterface\PythonNetworkStream.cpp
; File D:\Metin2 Server Files\mainline\SRC_2014\Metin2Client\eterLib\NetPacketHeaderMap.h
; File D:\Metin2 Server Files\mainline\SRC_2014\Metin2Client\UserInterface\PythonNetworkStream.cpp
; File D:\Metin2 Server Files\mainline\SRC_2014\Metin2Client\eterLib\NetPacketHeaderMap.h
; File D:\Metin2 Server Files\mainline\SRC_2014\Metin2Client\UserInterface\PythonNetworkStream.cpp
; File D:\Metin2 Server Files\mainline\SRC_2014\Metin2Client\eterLib\NetPacketHeaderMap.h
; File D:\Metin2 Server Files\mainline\SRC_2014\Metin2Client\UserInterface\PythonNetworkStream.cpp
; File D:\Metin2 Server Files\mainline\SRC_2014\Metin2Client\eterLib\NetPacketHeaderMap.h
; File D:\Metin2 Server Files\mainline\SRC_2014\Metin2Client\UserInterface\PythonNetworkStream.cpp
; File D:\Metin2 Server Files\mainline\SRC_2014\Metin2Client\eterLib\NetPacketHeaderMap.h
; File D:\Metin2 Server Files\mainline\SRC_2014\Metin2Client\UserInterface\PythonNetworkStream.cpp
; File D:\Metin2 Server Files\mainline\SRC_2014\Metin2Client\eterLib\NetPacketHeaderMap.h
; File D:\Metin2 Server Files\mainline\SRC_2014\Metin2Client\UserInterface\PythonNetworkStream.cpp
; File D:\Metin2 Server Files\mainline\SRC_2014\Metin2Client\eterLib\NetPacketHeaderMap.h
; File D:\Metin2 Server Files\mainline\SRC_2014\Metin2Client\UserInterface\PythonNetworkStream.cpp
; File D:\Metin2 Server Files\mainline\SRC_2014\Metin2Client\eterLib\NetPacketHeaderMap.h
; File D:\Metin2 Server Files\mainline\SRC_2014\Metin2Client\UserInterface\PythonNetworkStream.cpp
; File D:\Metin2 Server Files\mainline\SRC_2014\Metin2Client\eterLib\NetPacketHeaderMap.h
; File D:\Metin2 Server Files\mainline\SRC_2014\Metin2Client\UserInterface\PythonNetworkStream.cpp
; File D:\Metin2 Server Files\mainline\SRC_2014\Metin2Client\eterLib\NetPacketHeaderMap.h
; File D:\Metin2 Server Files\mainline\SRC_2014\Metin2Client\UserInterface\PythonNetworkStream.cpp
; File D:\Metin2 Server Files\mainline\SRC_2014\Metin2Client\eterLib\NetPacketHeaderMap.h
; File D:\Metin2 Server Files\mainline\SRC_2014\Metin2Client\UserInterface\PythonNetworkStream.cpp
; File D:\Metin2 Server Files\mainline\SRC_2014\Metin2Client\eterLib\NetPacketHeaderMap.h
; File D:\Metin2 Server Files\mainline\SRC_2014\Metin2Client\UserInterface\PythonNetworkStream.cpp
; File D:\Metin2 Server Files\mainline\SRC_2014\Metin2Client\eterLib\NetPacketHeaderMap.h
; File D:\Metin2 Server Files\mainline\SRC_2014\Metin2Client\UserInterface\PythonNetworkStream.cpp
; File D:\Metin2 Server Files\mainline\SRC_2014\Metin2Client\eterLib\NetPacketHeaderMap.h
; File D:\Metin2 Server Files\mainline\SRC_2014\Metin2Client\UserInterface\PythonNetworkStream.cpp
; File D:\Metin2 Server Files\mainline\SRC_2014\Metin2Client\eterLib\NetPacketHeaderMap.h
; File D:\Metin2 Server Files\mainline\SRC_2014\Metin2Client\UserInterface\PythonNetworkStream.cpp
; File D:\Metin2 Server Files\mainline\SRC_2014\Metin2Client\eterLib\NetPacketHeaderMap.h
; File D:\Metin2 Server Files\mainline\SRC_2014\Metin2Client\UserInterface\PythonNetworkStream.cpp
; File D:\Metin2 Server Files\mainline\SRC_2014\Metin2Client\eterLib\NetPacketHeaderMap.h
; File D:\Metin2 Server Files\mainline\SRC_2014\Metin2Client\UserInterface\PythonNetworkStream.cpp
; File D:\Metin2 Server Files\mainline\SRC_2014\Metin2Client\eterLib\NetPacketHeaderMap.h
; File D:\Metin2 Server Files\mainline\SRC_2014\Metin2Client\UserInterface\PythonNetworkStream.cpp
; File D:\Metin2 Server Files\mainline\SRC_2014\Metin2Client\eterLib\NetPacketHeaderMap.h
; File D:\Metin2 Server Files\mainline\SRC_2014\Metin2Client\UserInterface\PythonNetworkStream.cpp
; File D:\Metin2 Server Files\mainline\SRC_2014\Metin2Client\eterLib\NetPacketHeaderMap.h
; File D:\Metin2 Server Files\mainline\SRC_2014\Metin2Client\UserInterface\PythonNetworkStream.cpp
; File D:\Metin2 Server Files\mainline\SRC_2014\Metin2Client\eterLib\NetPacketHeaderMap.h
; File D:\Metin2 Server Files\mainline\SRC_2014\Metin2Client\UserInterface\PythonNetworkStream.cpp
; File D:\Metin2 Server Files\mainline\SRC_2014\Metin2Client\eterLib\NetPacketHeaderMap.h
; File D:\Metin2 Server Files\mainline\SRC_2014\Metin2Client\UserInterface\PythonNetworkStream.cpp
; File D:\Metin2 Server Files\mainline\SRC_2014\Metin2Client\eterLib\NetPacketHeaderMap.h
; File D:\Metin2 Server Files\mainline\SRC_2014\Metin2Client\UserInterface\PythonNetworkStream.cpp
; File D:\Metin2 Server Files\mainline\SRC_2014\Metin2Client\eterLib\NetPacketHeaderMap.h
; File D:\Metin2 Server Files\mainline\SRC_2014\Metin2Client\UserInterface\PythonNetworkStream.cpp
; File D:\Metin2 Server Files\mainline\SRC_2014\Metin2Client\eterLib\NetPacketHeaderMap.h
; File D:\Metin2 Server Files\mainline\SRC_2014\Metin2Client\UserInterface\PythonNetworkStream.cpp
; File D:\Metin2 Server Files\mainline\SRC_2014\Metin2Client\eterLib\NetPacketHeaderMap.h
; File D:\Metin2 Server Files\mainline\SRC_2014\Metin2Client\UserInterface\PythonNetworkStream.cpp
; File D:\Metin2 Server Files\mainline\SRC_2014\Metin2Client\eterLib\NetPacketHeaderMap.h
; File D:\Metin2 Server Files\mainline\SRC_2014\Metin2Client\UserInterface\PythonNetworkStream.cpp
; File D:\Metin2 Server Files\mainline\SRC_2014\Metin2Client\eterLib\NetPacketHeaderMap.h
; File D:\Metin2 Server Files\mainline\SRC_2014\Metin2Client\UserInterface\PythonNetworkStream.cpp
; File D:\Metin2 Server Files\mainline\SRC_2014\Metin2Client\eterLib\NetPacketHeaderMap.h
; File D:\Metin2 Server Files\mainline\SRC_2014\Metin2Client\UserInterface\PythonNetworkStream.cpp
; File D:\Metin2 Server Files\mainline\SRC_2014\Metin2Client\eterLib\NetPacketHeaderMap.h
; File D:\Metin2 Server Files\mainline\SRC_2014\Metin2Client\UserInterface\PythonNetworkStream.cpp
; File D:\Metin2 Server Files\mainline\SRC_2014\Metin2Client\eterLib\NetPacketHeaderMap.h
; File D:\Metin2 Server Files\mainline\SRC_2014\Metin2Client\UserInterface\PythonNetworkStream.cpp
; File D:\Metin2 Server Files\mainline\SRC_2014\Metin2Client\eterLib\NetPacketHeaderMap.h
; File D:\Metin2 Server Files\mainline\SRC_2014\Metin2Client\UserInterface\PythonNetworkStream.cpp
; File D:\Metin2 Server Files\mainline\SRC_2014\Metin2Client\eterLib\NetPacketHeaderMap.h
; File D:\Metin2 Server Files\mainline\SRC_2014\Metin2Client\UserInterface\PythonNetworkStream.cpp
; File D:\Metin2 Server Files\mainline\SRC_2014\Metin2Client\eterLib\NetPacketHeaderMap.h
; File D:\Metin2 Server Files\mainline\SRC_2014\Metin2Client\UserInterface\PythonNetworkStream.cpp
; File D:\Metin2 Server Files\mainline\SRC_2014\Metin2Client\eterLib\NetPacketHeaderMap.h
; File D:\Metin2 Server Files\mainline\SRC_2014\Metin2Client\UserInterface\PythonNetworkStream.cpp
; File D:\Metin2 Server Files\mainline\SRC_2014\Metin2Client\eterLib\NetPacketHeaderMap.h
; File D:\Metin2 Server Files\mainline\SRC_2014\Metin2Client\UserInterface\PythonNetworkStream.cpp
; File D:\Metin2 Server Files\mainline\SRC_2014\Metin2Client\eterLib\NetPacketHeaderMap.h
; File D:\Metin2 Server Files\mainline\SRC_2014\Metin2Client\UserInterface\PythonNetworkStream.cpp
; File D:\Metin2 Server Files\mainline\SRC_2014\Metin2Client\eterLib\NetPacketHeaderMap.h
; File D:\Metin2 Server Files\mainline\SRC_2014\Metin2Client\UserInterface\PythonNetworkStream.cpp
; File D:\Metin2 Server Files\mainline\SRC_2014\Metin2Client\eterLib\NetPacketHeaderMap.h
; File D:\Metin2 Server Files\mainline\SRC_2014\Metin2Client\UserInterface\PythonNetworkStream.cpp
; File D:\Metin2 Server Files\mainline\SRC_2014\Metin2Client\eterLib\NetPacketHeaderMap.h
; File D:\Metin2 Server Files\mainline\SRC_2014\Metin2Client\UserInterface\PythonNetworkStream.cpp
; File D:\Metin2 Server Files\mainline\SRC_2014\Metin2Client\eterLib\NetPacketHeaderMap.h
; File D:\Metin2 Server Files\mainline\SRC_2014\Metin2Client\UserInterface\PythonNetworkStream.cpp
; File D:\Metin2 Server Files\mainline\SRC_2014\Metin2Client\eterLib\NetPacketHeaderMap.h
; File D:\Metin2 Server Files\mainline\SRC_2014\Metin2Client\UserInterface\PythonNetworkStream.cpp
; File D:\Metin2 Server Files\mainline\SRC_2014\Metin2Client\eterLib\NetPacketHeaderMap.h
; File D:\Metin2 Server Files\mainline\SRC_2014\Metin2Client\UserInterface\PythonNetworkStream.cpp
; File D:\Metin2 Server Files\mainline\SRC_2014\Metin2Client\eterLib\NetPacketHeaderMap.h
; File D:\Metin2 Server Files\mainline\SRC_2014\Metin2Client\UserInterface\PythonNetworkStream.cpp
; File D:\Metin2 Server Files\mainline\SRC_2014\Metin2Client\eterLib\NetPacketHeaderMap.h
; File D:\Metin2 Server Files\mainline\SRC_2014\Metin2Client\UserInterface\PythonNetworkStream.cpp
; File D:\Metin2 Server Files\mainline\SRC_2014\Metin2Client\eterLib\NetPacketHeaderMap.h
; File D:\Metin2 Server Files\mainline\SRC_2014\Metin2Client\UserInterface\PythonNetworkStream.cpp
; File D:\Metin2 Server Files\mainline\SRC_2014\Metin2Client\eterLib\NetPacketHeaderMap.h
; File D:\Metin2 Server Files\mainline\SRC_2014\Metin2Client\UserInterface\PythonNetworkStream.cpp
; File D:\Metin2 Server Files\mainline\SRC_2014\Metin2Client\eterLib\NetPacketHeaderMap.h
; File D:\Metin2 Server Files\mainline\SRC_2014\Metin2Client\UserInterface\PythonNetworkStream.cpp
; File D:\Metin2 Server Files\mainline\SRC_2014\Metin2Client\eterLib\NetPacketHeaderMap.h
; File D:\Metin2 Server Files\mainline\SRC_2014\Metin2Client\UserInterface\PythonNetworkStream.cpp
; File D:\Metin2 Server Files\mainline\SRC_2014\Metin2Client\eterLib\NetPacketHeaderMap.h
; File D:\Metin2 Server Files\mainline\SRC_2014\Metin2Client\UserInterface\PythonNetworkStream.cpp
; File D:\Metin2 Server Files\mainline\SRC_2014\Metin2Client\eterLib\NetPacketHeaderMap.h
; File D:\Metin2 Server Files\mainline\SRC_2014\Metin2Client\UserInterface\PythonNetworkStream.cpp
; File D:\Metin2 Server Files\mainline\SRC_2014\Metin2Client\eterLib\NetPacketHeaderMap.h
; File D:\Metin2 Server Files\mainline\SRC_2014\Metin2Client\UserInterface\PythonNetworkStream.cpp
; File D:\Metin2 Server Files\mainline\SRC_2014\Metin2Client\eterLib\NetPacketHeaderMap.h
; File D:\Metin2 Server Files\mainline\SRC_2014\Metin2Client\UserInterface\PythonNetworkStream.cpp
; File D:\Metin2 Server Files\mainline\SRC_2014\Metin2Client\eterLib\NetPacketHeaderMap.h
; File D:\Metin2 Server Files\mainline\SRC_2014\Metin2Client\UserInterface\PythonNetworkStream.cpp
; File D:\Metin2 Server Files\mainline\SRC_2014\Metin2Client\eterLib\NetPacketHeaderMap.h
; File D:\Metin2 Server Files\mainline\SRC_2014\Metin2Client\UserInterface\PythonNetworkStream.cpp
; File D:\Metin2 Server Files\mainline\SRC_2014\Metin2Client\eterLib\NetPacketHeaderMap.h
; File D:\Metin2 Server Files\mainline\SRC_2014\Metin2Client\UserInterface\PythonNetworkStream.cpp
; File D:\Metin2 Server Files\mainline\SRC_2014\Metin2Client\eterLib\NetPacketHeaderMap.h
; File D:\Metin2 Server Files\mainline\SRC_2014\Metin2Client\UserInterface\PythonNetworkStream.cpp
; File D:\Metin2 Server Files\mainline\SRC_2014\Metin2Client\eterLib\NetPacketHeaderMap.h
; File D:\Metin2 Server Files\mainline\SRC_2014\Metin2Client\UserInterface\PythonNetworkStream.cpp
; File D:\Metin2 Server Files\mainline\SRC_2014\Metin2Client\eterLib\NetPacketHeaderMap.h
; File D:\Metin2 Server Files\mainline\SRC_2014\Metin2Client\UserInterface\PythonNetworkStream.cpp
; File D:\Metin2 Server Files\mainline\SRC_2014\Metin2Client\eterLib\NetPacketHeaderMap.h
; File D:\Metin2 Server Files\mainline\SRC_2014\Metin2Client\UserInterface\PythonNetworkStream.cpp
; File D:\Metin2 Server Files\mainline\SRC_2014\Metin2Client\eterLib\NetPacketHeaderMap.h
; File D:\Metin2 Server Files\mainline\SRC_2014\Metin2Client\UserInterface\PythonNetworkStream.cpp
; File D:\Metin2 Server Files\mainline\SRC_2014\Metin2Client\eterLib\NetPacketHeaderMap.h
; File D:\Metin2 Server Files\mainline\SRC_2014\Metin2Client\UserInterface\PythonNetworkStream.cpp
; File D:\Metin2 Server Files\mainline\SRC_2014\Metin2Client\eterLib\NetPacketHeaderMap.h
; File D:\Metin2 Server Files\mainline\SRC_2014\Metin2Client\UserInterface\PythonNetworkStream.cpp
; File D:\Metin2 Server Files\mainline\SRC_2014\Metin2Client\eterLib\NetPacketHeaderMap.h
; File D:\Metin2 Server Files\mainline\SRC_2014\Metin2Client\UserInterface\PythonNetworkStream.cpp
; File D:\Metin2 Server Files\mainline\SRC_2014\Metin2Client\eterLib\NetPacketHeaderMap.h
; File D:\Metin2 Server Files\mainline\SRC_2014\Metin2Client\UserInterface\PythonNetworkStream.cpp
; File D:\Metin2 Server Files\mainline\SRC_2014\Metin2Client\eterLib\NetPacketHeaderMap.h
; File D:\Metin2 Server Files\mainline\SRC_2014\Metin2Client\UserInterface\PythonNetworkStream.cpp
; File D:\Metin2 Server Files\mainline\SRC_2014\Metin2Client\eterLib\NetPacketHeaderMap.h
; File D:\Metin2 Server Files\mainline\SRC_2014\Metin2Client\UserInterface\PythonNetworkStream.cpp
; File D:\Metin2 Server Files\mainline\SRC_2014\Metin2Client\eterLib\NetPacketHeaderMap.h
; File D:\Metin2 Server Files\mainline\SRC_2014\Metin2Client\UserInterface\PythonNetworkStream.cpp
; File D:\Metin2 Server Files\mainline\SRC_2014\Metin2Client\eterLib\NetPacketHeaderMap.h
; File D:\Metin2 Server Files\mainline\SRC_2014\Metin2Client\UserInterface\PythonNetworkStream.cpp
; File D:\Metin2 Server Files\mainline\SRC_2014\Metin2Client\eterLib\NetPacketHeaderMap.h
; File D:\Metin2 Server Files\mainline\SRC_2014\Metin2Client\UserInterface\PythonNetworkStream.cpp
; File D:\Metin2 Server Files\mainline\SRC_2014\Metin2Client\eterLib\NetPacketHeaderMap.h
; File D:\Metin2 Server Files\mainline\SRC_2014\Metin2Client\UserInterface\PythonNetworkStream.cpp
; File D:\Metin2 Server Files\mainline\SRC_2014\Metin2Client\eterLib\NetPacketHeaderMap.h
; File D:\Metin2 Server Files\mainline\SRC_2014\Metin2Client\UserInterface\PythonNetworkStream.cpp
; File D:\Metin2 Server Files\mainline\SRC_2014\Metin2Client\eterLib\NetPacketHeaderMap.h
; File D:\Metin2 Server Files\mainline\SRC_2014\Metin2Client\UserInterface\PythonNetworkStream.cpp
; File D:\Metin2 Server Files\mainline\SRC_2014\Metin2Client\eterLib\NetPacketHeaderMap.h
; File D:\Metin2 Server Files\mainline\SRC_2014\Metin2Client\UserInterface\PythonNetworkStream.cpp
; File D:\Metin2 Server Files\mainline\SRC_2014\Metin2Client\eterLib\NetPacketHeaderMap.h
; File D:\Metin2 Server Files\mainline\SRC_2014\Metin2Client\UserInterface\PythonNetworkStream.cpp
; File D:\Metin2 Server Files\mainline\SRC_2014\Metin2Client\eterLib\NetPacketHeaderMap.h
; File D:\Metin2 Server Files\mainline\SRC_2014\Metin2Client\UserInterface\PythonNetworkStream.cpp
; File D:\Metin2 Server Files\mainline\SRC_2014\Metin2Client\eterLib\NetPacketHeaderMap.h
; File D:\Metin2 Server Files\mainline\SRC_2014\Metin2Client\UserInterface\PythonNetworkStream.cpp
; File D:\Metin2 Server Files\mainline\SRC_2014\Metin2Client\eterLib\NetPacketHeaderMap.h
; File D:\Metin2 Server Files\mainline\SRC_2014\Metin2Client\UserInterface\PythonNetworkStream.cpp
; File D:\Metin2 Server Files\mainline\SRC_2014\Metin2Client\eterLib\NetPacketHeaderMap.h
; File D:\Metin2 Server Files\mainline\SRC_2014\Metin2Client\UserInterface\PythonNetworkStream.cpp
; File D:\Metin2 Server Files\mainline\SRC_2014\Metin2Client\eterLib\NetPacketHeaderMap.h
; File D:\Metin2 Server Files\mainline\SRC_2014\Metin2Client\UserInterface\PythonNetworkStream.cpp
; File D:\Metin2 Server Files\mainline\SRC_2014\Metin2Client\eterLib\NetPacketHeaderMap.h
; File D:\Metin2 Server Files\mainline\SRC_2014\Metin2Client\UserInterface\PythonNetworkStream.cpp
; File D:\Metin2 Server Files\mainline\SRC_2014\Metin2Client\eterLib\NetPacketHeaderMap.h
; File D:\Metin2 Server Files\mainline\SRC_2014\Metin2Client\UserInterface\PythonNetworkStream.cpp
; File D:\Metin2 Server Files\mainline\SRC_2014\Metin2Client\eterLib\NetPacketHeaderMap.h
; File D:\Metin2 Server Files\mainline\SRC_2014\Metin2Client\UserInterface\PythonNetworkStream.cpp
; File D:\Metin2 Server Files\mainline\SRC_2014\Metin2Client\eterLib\NetPacketHeaderMap.h
; File D:\Metin2 Server Files\mainline\SRC_2014\Metin2Client\UserInterface\PythonNetworkStream.cpp
; File D:\Metin2 Server Files\mainline\SRC_2014\Metin2Client\eterLib\NetPacketHeaderMap.h
; File D:\Metin2 Server Files\mainline\SRC_2014\Metin2Client\UserInterface\PythonNetworkStream.cpp
; File D:\Metin2 Server Files\mainline\SRC_2014\Metin2Client\eterLib\NetPacketHeaderMap.h
; File D:\Metin2 Server Files\mainline\SRC_2014\Metin2Client\UserInterface\PythonNetworkStream.cpp
; File D:\Metin2 Server Files\mainline\SRC_2014\Metin2Client\eterLib\NetPacketHeaderMap.h
; File D:\Metin2 Server Files\mainline\SRC_2014\Metin2Client\UserInterface\PythonNetworkStream.cpp
; File D:\Metin2 Server Files\mainline\SRC_2014\Metin2Client\eterLib\NetPacketHeaderMap.h
; File D:\Metin2 Server Files\mainline\SRC_2014\Metin2Client\UserInterface\PythonNetworkStream.cpp
; File D:\Metin2 Server Files\mainline\SRC_2014\Metin2Client\eterLib\NetPacketHeaderMap.h
; File D:\Metin2 Server Files\mainline\SRC_2014\Metin2Client\UserInterface\PythonNetworkStream.cpp
; File D:\Metin2 Server Files\mainline\SRC_2014\Metin2Client\eterLib\NetPacketHeaderMap.h
; File D:\Metin2 Server Files\mainline\SRC_2014\Metin2Client\UserInterface\PythonNetworkStream.cpp
; File D:\Metin2 Server Files\mainline\SRC_2014\Metin2Client\eterLib\NetPacketHeaderMap.h
; File D:\Metin2 Server Files\mainline\SRC_2014\Metin2Client\UserInterface\PythonNetworkStream.cpp
; File D:\Metin2 Server Files\mainline\SRC_2014\Metin2Client\eterLib\NetPacketHeaderMap.h
; File D:\Metin2 Server Files\mainline\SRC_2014\Metin2Client\UserInterface\PythonNetworkStream.cpp
; File D:\Metin2 Server Files\mainline\SRC_2014\Metin2Client\eterLib\NetPacketHeaderMap.h
; File D:\Metin2 Server Files\mainline\SRC_2014\Metin2Client\UserInterface\PythonNetworkStream.cpp
; File D:\Metin2 Server Files\mainline\SRC_2014\Metin2Client\eterLib\NetPacketHeaderMap.h
; File D:\Metin2 Server Files\mainline\SRC_2014\Metin2Client\UserInterface\PythonNetworkStream.cpp
; File D:\Metin2 Server Files\mainline\SRC_2014\Metin2Client\eterLib\NetPacketHeaderMap.h
; File D:\Metin2 Server Files\mainline\SRC_2014\Metin2Client\UserInterface\PythonNetworkStream.cpp
; File D:\Metin2 Server Files\mainline\SRC_2014\Metin2Client\eterLib\NetPacketHeaderMap.h
; File D:\Metin2 Server Files\mainline\SRC_2014\Metin2Client\UserInterface\PythonNetworkStream.cpp
; File D:\Metin2 Server Files\mainline\SRC_2014\Metin2Client\eterLib\NetPacketHeaderMap.h
; File D:\Metin2 Server Files\mainline\SRC_2014\Metin2Client\UserInterface\PythonNetworkStream.cpp
; File D:\Metin2 Server Files\mainline\SRC_2014\Metin2Client\eterLib\NetPacketHeaderMap.h
; File D:\Metin2 Server Files\mainline\SRC_2014\Metin2Client\UserInterface\PythonNetworkStream.cpp
; File D:\Metin2 Server Files\mainline\SRC_2014\Metin2Client\eterLib\NetPacketHeaderMap.h
; File D:\Metin2 Server Files\mainline\SRC_2014\Metin2Client\UserInterface\PythonNetworkStream.cpp
; File D:\Metin2 Server Files\mainline\SRC_2014\Metin2Client\eterLib\NetPacketHeaderMap.h
; File D:\Metin2 Server Files\mainline\SRC_2014\Metin2Client\UserInterface\PythonNetworkStream.cpp
; File D:\Metin2 Server Files\mainline\SRC_2014\Metin2Client\eterLib\NetPacketHeaderMap.h
; File D:\Metin2 Server Files\mainline\SRC_2014\Metin2Client\UserInterface\PythonNetworkStream.cpp
;	COMDAT ??0CMainPacketHeaderMap@@QAE@XZ
_TEXT	SEGMENT
$T2 = -24						; size = 8
$T3 = -24						; size = 8
$T4 = -24						; size = 8
$T5 = -24						; size = 8
$T6 = -24						; size = 8
$T7 = -24						; size = 8
$T8 = -24						; size = 8
$T9 = -24						; size = 8
$T10 = -24						; size = 8
$T11 = -24						; size = 8
$T12 = -24						; size = 8
$T13 = -24						; size = 8
$T14 = -24						; size = 8
$T15 = -24						; size = 8
$T16 = -24						; size = 8
$T17 = -24						; size = 8
$T18 = -24						; size = 8
$T19 = -24						; size = 8
$T20 = -24						; size = 8
$T21 = -24						; size = 8
$T22 = -24						; size = 8
$T23 = -24						; size = 8
$T24 = -24						; size = 8
$T25 = -24						; size = 8
$T26 = -24						; size = 8
$T27 = -24						; size = 8
$T28 = -24						; size = 8
$T29 = -24						; size = 8
$T30 = -24						; size = 8
$T31 = -24						; size = 8
$T32 = -24						; size = 8
$T33 = -24						; size = 8
$T34 = -24						; size = 8
$T35 = -24						; size = 8
$T36 = -24						; size = 8
$T37 = -24						; size = 8
$T38 = -24						; size = 8
$T39 = -24						; size = 8
$T40 = -24						; size = 8
$T41 = -24						; size = 8
$T42 = -24						; size = 8
$T43 = -24						; size = 8
$T44 = -24						; size = 8
$T45 = -24						; size = 8
$T46 = -24						; size = 8
$T47 = -24						; size = 8
$T48 = -24						; size = 8
$T49 = -24						; size = 8
$T50 = -24						; size = 8
$T51 = -24						; size = 8
$T52 = -24						; size = 8
$T53 = -24						; size = 8
$T54 = -24						; size = 8
$T55 = -24						; size = 8
$T56 = -24						; size = 8
$T57 = -24						; size = 8
$T58 = -24						; size = 8
$T59 = -24						; size = 8
$T60 = -24						; size = 8
$T61 = -24						; size = 8
$T62 = -24						; size = 8
$T63 = -24						; size = 8
$T64 = -24						; size = 8
$T65 = -24						; size = 8
$T66 = -24						; size = 8
$T67 = -24						; size = 8
$T68 = -24						; size = 8
$T69 = -24						; size = 8
$T70 = -24						; size = 8
$T71 = -24						; size = 8
$T72 = -24						; size = 8
$T73 = -24						; size = 8
$T74 = -24						; size = 8
$T75 = -24						; size = 8
$T76 = -24						; size = 8
$T77 = -24						; size = 8
$T78 = -24						; size = 8
$T79 = -24						; size = 8
$T80 = -24						; size = 8
$T81 = -24						; size = 8
$T82 = -24						; size = 8
$T83 = -24						; size = 8
$T84 = -24						; size = 8
$T85 = -24						; size = 8
$T86 = -24						; size = 8
$T87 = -24						; size = 8
$T88 = -24						; size = 8
$T89 = -24						; size = 8
$T90 = -24						; size = 8
$T91 = -24						; size = 8
$T92 = -24						; size = 8
$T93 = -24						; size = 8
$T94 = -24						; size = 8
$T95 = -24						; size = 8
$T96 = -24						; size = 8
$T97 = -24						; size = 8
$T98 = -24						; size = 8
$T99 = -24						; size = 8
$T100 = -24						; size = 8
$T101 = -24						; size = 8
$T102 = -24						; size = 8
$T103 = -24						; size = 8
$T104 = -24						; size = 8
$T105 = -24						; size = 8
$T106 = -24						; size = 8
$T107 = -24						; size = 8
$T108 = -24						; size = 8
$T109 = -24						; size = 8
$T110 = -24						; size = 8
$T111 = -24						; size = 8
$T112 = -24						; size = 8
$T113 = -24						; size = 8
$T114 = -24						; size = 8
$T115 = -24						; size = 8
$T116 = -24						; size = 8
$T117 = -24						; size = 8
$T118 = -24						; size = 8
_this$ = -16						; size = 4
__$EHRec$ = -12						; size = 12
??0CMainPacketHeaderMap@@QAE@XZ PROC			; CMainPacketHeaderMap::CMainPacketHeaderMap, COMDAT
; _this$ = ecx

; 29   : 		CMainPacketHeaderMap()

  00000	55		 push	 ebp
  00001	8b ec		 mov	 ebp, esp
  00003	6a ff		 push	 -1
  00005	68 00 00 00 00	 push	 __ehhandler$??0CMainPacketHeaderMap@@QAE@XZ
  0000a	64 a1 00 00 00
	00		 mov	 eax, DWORD PTR fs:0
  00010	50		 push	 eax
  00011	83 ec 0c	 sub	 esp, 12			; 0000000cH
  00014	56		 push	 esi
  00015	a1 00 00 00 00	 mov	 eax, DWORD PTR ___security_cookie
  0001a	33 c5		 xor	 eax, ebp
  0001c	50		 push	 eax
  0001d	8d 45 f4	 lea	 eax, DWORD PTR __$EHRec$[ebp]
  00020	64 a3 00 00 00
	00		 mov	 DWORD PTR fs:0, eax
  00026	8b f1		 mov	 esi, ecx
  00028	89 75 f0	 mov	 DWORD PTR _this$[ebp], esi
  0002b	e8 00 00 00 00	 call	 ??0CNetworkPacketHeaderMap@@QAE@XZ ; CNetworkPacketHeaderMap::CNetworkPacketHeaderMap

; 31   : 			Set(HEADER_GC_EMPIRE,				CNetworkPacketHeaderMap::TPacketType(sizeof(TPacketGCEmpire), STATIC_SIZE_PACKET));

  00030	8d 45 e8	 lea	 eax, DWORD PTR $T118[ebp]
  00033	c7 45 fc 00 00
	00 00		 mov	 DWORD PTR __$EHRec$[ebp+8], 0
  0003a	50		 push	 eax
  0003b	6a 5a		 push	 90			; 0000005aH
  0003d	8b ce		 mov	 ecx, esi
  0003f	c7 06 00 00 00
	00		 mov	 DWORD PTR [esi], OFFSET ??_7CMainPacketHeaderMap@@6B@
; File D:\Metin2 Server Files\mainline\SRC_2014\Metin2Client\eterLib\NetPacketHeaderMap.h

; 12   : 				iPacketSize = iSize;

  00045	c7 45 e8 02 00
	00 00		 mov	 DWORD PTR $T118[ebp], 2

; 13   : 				isDynamicSizePacket = bFlag;

  0004c	c6 45 ec 00	 mov	 BYTE PTR $T118[ebp+4], 0
; File D:\Metin2 Server Files\mainline\SRC_2014\Metin2Client\UserInterface\PythonNetworkStream.cpp

; 31   : 			Set(HEADER_GC_EMPIRE,				CNetworkPacketHeaderMap::TPacketType(sizeof(TPacketGCEmpire), STATIC_SIZE_PACKET));

  00050	e8 00 00 00 00	 call	 ?Set@CNetworkPacketHeaderMap@@QAEXHAAUSPacketType@1@@Z ; CNetworkPacketHeaderMap::Set

; 32   : 			Set(HEADER_GC_WARP,					CNetworkPacketHeaderMap::TPacketType(sizeof(TPacketGCWarp), STATIC_SIZE_PACKET));

  00055	8d 45 e8	 lea	 eax, DWORD PTR $T117[ebp]
; File D:\Metin2 Server Files\mainline\SRC_2014\Metin2Client\eterLib\NetPacketHeaderMap.h

; 12   : 				iPacketSize = iSize;

  00058	c7 45 e8 0f 00
	00 00		 mov	 DWORD PTR $T117[ebp], 15 ; 0000000fH
; File D:\Metin2 Server Files\mainline\SRC_2014\Metin2Client\UserInterface\PythonNetworkStream.cpp

; 32   : 			Set(HEADER_GC_WARP,					CNetworkPacketHeaderMap::TPacketType(sizeof(TPacketGCWarp), STATIC_SIZE_PACKET));

  0005f	50		 push	 eax
  00060	6a 41		 push	 65			; 00000041H
  00062	8b ce		 mov	 ecx, esi
; File D:\Metin2 Server Files\mainline\SRC_2014\Metin2Client\eterLib\NetPacketHeaderMap.h

; 13   : 				isDynamicSizePacket = bFlag;

  00064	c6 45 ec 00	 mov	 BYTE PTR $T117[ebp+4], 0
; File D:\Metin2 Server Files\mainline\SRC_2014\Metin2Client\UserInterface\PythonNetworkStream.cpp

; 32   : 			Set(HEADER_GC_WARP,					CNetworkPacketHeaderMap::TPacketType(sizeof(TPacketGCWarp), STATIC_SIZE_PACKET));

  00068	e8 00 00 00 00	 call	 ?Set@CNetworkPacketHeaderMap@@QAEXHAAUSPacketType@1@@Z ; CNetworkPacketHeaderMap::Set

; 33   : 			Set(HEADER_GC_SKILL_COOLTIME_END,	CNetworkPacketHeaderMap::TPacketType(sizeof(TPacketGCSkillCoolTimeEnd), STATIC_SIZE_PACKET));

  0006d	8d 45 e8	 lea	 eax, DWORD PTR $T116[ebp]
; File D:\Metin2 Server Files\mainline\SRC_2014\Metin2Client\eterLib\NetPacketHeaderMap.h

; 12   : 				iPacketSize = iSize;

  00070	c7 45 e8 02 00
	00 00		 mov	 DWORD PTR $T116[ebp], 2
; File D:\Metin2 Server Files\mainline\SRC_2014\Metin2Client\UserInterface\PythonNetworkStream.cpp

; 33   : 			Set(HEADER_GC_SKILL_COOLTIME_END,	CNetworkPacketHeaderMap::TPacketType(sizeof(TPacketGCSkillCoolTimeEnd), STATIC_SIZE_PACKET));

  00077	50		 push	 eax
  00078	6a 49		 push	 73			; 00000049H
  0007a	8b ce		 mov	 ecx, esi
; File D:\Metin2 Server Files\mainline\SRC_2014\Metin2Client\eterLib\NetPacketHeaderMap.h

; 13   : 				isDynamicSizePacket = bFlag;

  0007c	c6 45 ec 00	 mov	 BYTE PTR $T116[ebp+4], 0
; File D:\Metin2 Server Files\mainline\SRC_2014\Metin2Client\UserInterface\PythonNetworkStream.cpp

; 33   : 			Set(HEADER_GC_SKILL_COOLTIME_END,	CNetworkPacketHeaderMap::TPacketType(sizeof(TPacketGCSkillCoolTimeEnd), STATIC_SIZE_PACKET));

  00080	e8 00 00 00 00	 call	 ?Set@CNetworkPacketHeaderMap@@QAEXHAAUSPacketType@1@@Z ; CNetworkPacketHeaderMap::Set

; 34   : 			Set(HEADER_GC_QUEST_INFO,			CNetworkPacketHeaderMap::TPacketType(sizeof(TPacketGCQuestInfo), DYNAMIC_SIZE_PACKET));

  00085	8d 45 e8	 lea	 eax, DWORD PTR $T115[ebp]
; File D:\Metin2 Server Files\mainline\SRC_2014\Metin2Client\eterLib\NetPacketHeaderMap.h

; 12   : 				iPacketSize = iSize;

  00088	c7 45 e8 06 00
	00 00		 mov	 DWORD PTR $T115[ebp], 6
; File D:\Metin2 Server Files\mainline\SRC_2014\Metin2Client\UserInterface\PythonNetworkStream.cpp

; 34   : 			Set(HEADER_GC_QUEST_INFO,			CNetworkPacketHeaderMap::TPacketType(sizeof(TPacketGCQuestInfo), DYNAMIC_SIZE_PACKET));

  0008f	50		 push	 eax
  00090	6a 51		 push	 81			; 00000051H
  00092	8b ce		 mov	 ecx, esi
; File D:\Metin2 Server Files\mainline\SRC_2014\Metin2Client\eterLib\NetPacketHeaderMap.h

; 13   : 				isDynamicSizePacket = bFlag;

  00094	c6 45 ec 01	 mov	 BYTE PTR $T115[ebp+4], 1
; File D:\Metin2 Server Files\mainline\SRC_2014\Metin2Client\UserInterface\PythonNetworkStream.cpp

; 34   : 			Set(HEADER_GC_QUEST_INFO,			CNetworkPacketHeaderMap::TPacketType(sizeof(TPacketGCQuestInfo), DYNAMIC_SIZE_PACKET));

  00098	e8 00 00 00 00	 call	 ?Set@CNetworkPacketHeaderMap@@QAEXHAAUSPacketType@1@@Z ; CNetworkPacketHeaderMap::Set

; 35   : 			Set(HEADER_GC_REQUEST_MAKE_GUILD,	CNetworkPacketHeaderMap::TPacketType(sizeof(TPacketGCBlank), STATIC_SIZE_PACKET));

  0009d	8d 45 e8	 lea	 eax, DWORD PTR $T114[ebp]
; File D:\Metin2 Server Files\mainline\SRC_2014\Metin2Client\eterLib\NetPacketHeaderMap.h

; 12   : 				iPacketSize = iSize;

  000a0	c7 45 e8 01 00
	00 00		 mov	 DWORD PTR $T114[ebp], 1
; File D:\Metin2 Server Files\mainline\SRC_2014\Metin2Client\UserInterface\PythonNetworkStream.cpp

; 35   : 			Set(HEADER_GC_REQUEST_MAKE_GUILD,	CNetworkPacketHeaderMap::TPacketType(sizeof(TPacketGCBlank), STATIC_SIZE_PACKET));

  000a7	50		 push	 eax
  000a8	6a 52		 push	 82			; 00000052H
  000aa	8b ce		 mov	 ecx, esi
; File D:\Metin2 Server Files\mainline\SRC_2014\Metin2Client\eterLib\NetPacketHeaderMap.h

; 13   : 				isDynamicSizePacket = bFlag;

  000ac	c6 45 ec 00	 mov	 BYTE PTR $T114[ebp+4], 0
; File D:\Metin2 Server Files\mainline\SRC_2014\Metin2Client\UserInterface\PythonNetworkStream.cpp

; 35   : 			Set(HEADER_GC_REQUEST_MAKE_GUILD,	CNetworkPacketHeaderMap::TPacketType(sizeof(TPacketGCBlank), STATIC_SIZE_PACKET));

  000b0	e8 00 00 00 00	 call	 ?Set@CNetworkPacketHeaderMap@@QAEXHAAUSPacketType@1@@Z ; CNetworkPacketHeaderMap::Set

; 36   : 			Set(HEADER_GC_PVP,					CNetworkPacketHeaderMap::TPacketType(sizeof(TPacketGCPVP), STATIC_SIZE_PACKET));

  000b5	8d 45 e8	 lea	 eax, DWORD PTR $T113[ebp]
; File D:\Metin2 Server Files\mainline\SRC_2014\Metin2Client\eterLib\NetPacketHeaderMap.h

; 12   : 				iPacketSize = iSize;

  000b8	c7 45 e8 0a 00
	00 00		 mov	 DWORD PTR $T113[ebp], 10 ; 0000000aH
; File D:\Metin2 Server Files\mainline\SRC_2014\Metin2Client\UserInterface\PythonNetworkStream.cpp

; 36   : 			Set(HEADER_GC_PVP,					CNetworkPacketHeaderMap::TPacketType(sizeof(TPacketGCPVP), STATIC_SIZE_PACKET));

  000bf	50		 push	 eax
  000c0	6a 29		 push	 41			; 00000029H
  000c2	8b ce		 mov	 ecx, esi
; File D:\Metin2 Server Files\mainline\SRC_2014\Metin2Client\eterLib\NetPacketHeaderMap.h

; 13   : 				isDynamicSizePacket = bFlag;

  000c4	c6 45 ec 00	 mov	 BYTE PTR $T113[ebp+4], 0
; File D:\Metin2 Server Files\mainline\SRC_2014\Metin2Client\UserInterface\PythonNetworkStream.cpp

; 36   : 			Set(HEADER_GC_PVP,					CNetworkPacketHeaderMap::TPacketType(sizeof(TPacketGCPVP), STATIC_SIZE_PACKET));

  000c8	e8 00 00 00 00	 call	 ?Set@CNetworkPacketHeaderMap@@QAEXHAAUSPacketType@1@@Z ; CNetworkPacketHeaderMap::Set

; 37   : 			Set(HEADER_GC_DUEL_START,			CNetworkPacketHeaderMap::TPacketType(sizeof(TPacketGCDuelStart), DYNAMIC_SIZE_PACKET));

  000cd	8d 45 e8	 lea	 eax, DWORD PTR $T112[ebp]
; File D:\Metin2 Server Files\mainline\SRC_2014\Metin2Client\eterLib\NetPacketHeaderMap.h

; 12   : 				iPacketSize = iSize;

  000d0	c7 45 e8 03 00
	00 00		 mov	 DWORD PTR $T112[ebp], 3
; File D:\Metin2 Server Files\mainline\SRC_2014\Metin2Client\UserInterface\PythonNetworkStream.cpp

; 37   : 			Set(HEADER_GC_DUEL_START,			CNetworkPacketHeaderMap::TPacketType(sizeof(TPacketGCDuelStart), DYNAMIC_SIZE_PACKET));

  000d7	50		 push	 eax
  000d8	6a 28		 push	 40			; 00000028H
  000da	8b ce		 mov	 ecx, esi
; File D:\Metin2 Server Files\mainline\SRC_2014\Metin2Client\eterLib\NetPacketHeaderMap.h

; 13   : 				isDynamicSizePacket = bFlag;

  000dc	c6 45 ec 01	 mov	 BYTE PTR $T112[ebp+4], 1
; File D:\Metin2 Server Files\mainline\SRC_2014\Metin2Client\UserInterface\PythonNetworkStream.cpp

; 37   : 			Set(HEADER_GC_DUEL_START,			CNetworkPacketHeaderMap::TPacketType(sizeof(TPacketGCDuelStart), DYNAMIC_SIZE_PACKET));

  000e0	e8 00 00 00 00	 call	 ?Set@CNetworkPacketHeaderMap@@QAEXHAAUSPacketType@1@@Z ; CNetworkPacketHeaderMap::Set

; 38   : 			Set(HEADER_GC_CHARACTER_ADD,		CNetworkPacketHeaderMap::TPacketType(sizeof(TPacketGCCharacterAdd), STATIC_SIZE_PACKET));

  000e5	8d 45 e8	 lea	 eax, DWORD PTR $T111[ebp]
; File D:\Metin2 Server Files\mainline\SRC_2014\Metin2Client\eterLib\NetPacketHeaderMap.h

; 12   : 				iPacketSize = iSize;

  000e8	c7 45 e8 23 00
	00 00		 mov	 DWORD PTR $T111[ebp], 35 ; 00000023H
; File D:\Metin2 Server Files\mainline\SRC_2014\Metin2Client\UserInterface\PythonNetworkStream.cpp

; 38   : 			Set(HEADER_GC_CHARACTER_ADD,		CNetworkPacketHeaderMap::TPacketType(sizeof(TPacketGCCharacterAdd), STATIC_SIZE_PACKET));

  000ef	50		 push	 eax
  000f0	6a 01		 push	 1
  000f2	8b ce		 mov	 ecx, esi
; File D:\Metin2 Server Files\mainline\SRC_2014\Metin2Client\eterLib\NetPacketHeaderMap.h

; 13   : 				isDynamicSizePacket = bFlag;

  000f4	c6 45 ec 00	 mov	 BYTE PTR $T111[ebp+4], 0
; File D:\Metin2 Server Files\mainline\SRC_2014\Metin2Client\UserInterface\PythonNetworkStream.cpp

; 38   : 			Set(HEADER_GC_CHARACTER_ADD,		CNetworkPacketHeaderMap::TPacketType(sizeof(TPacketGCCharacterAdd), STATIC_SIZE_PACKET));

  000f8	e8 00 00 00 00	 call	 ?Set@CNetworkPacketHeaderMap@@QAEXHAAUSPacketType@1@@Z ; CNetworkPacketHeaderMap::Set

; 39   : 			Set(HEADER_GC_CHAR_ADDITIONAL_INFO,	CNetworkPacketHeaderMap::TPacketType(sizeof(TPacketGCCharacterAdditionalInfo), STATIC_SIZE_PACKET));

  000fd	8d 45 e8	 lea	 eax, DWORD PTR $T110[ebp]
; File D:\Metin2 Server Files\mainline\SRC_2014\Metin2Client\eterLib\NetPacketHeaderMap.h

; 12   : 				iPacketSize = iSize;

  00100	c7 45 e8 36 00
	00 00		 mov	 DWORD PTR $T110[ebp], 54 ; 00000036H
; File D:\Metin2 Server Files\mainline\SRC_2014\Metin2Client\UserInterface\PythonNetworkStream.cpp

; 39   : 			Set(HEADER_GC_CHAR_ADDITIONAL_INFO,	CNetworkPacketHeaderMap::TPacketType(sizeof(TPacketGCCharacterAdditionalInfo), STATIC_SIZE_PACKET));

  00107	50		 push	 eax
  00108	68 88 00 00 00	 push	 136			; 00000088H
  0010d	8b ce		 mov	 ecx, esi
; File D:\Metin2 Server Files\mainline\SRC_2014\Metin2Client\eterLib\NetPacketHeaderMap.h

; 13   : 				isDynamicSizePacket = bFlag;

  0010f	c6 45 ec 00	 mov	 BYTE PTR $T110[ebp+4], 0
; File D:\Metin2 Server Files\mainline\SRC_2014\Metin2Client\UserInterface\PythonNetworkStream.cpp

; 39   : 			Set(HEADER_GC_CHAR_ADDITIONAL_INFO,	CNetworkPacketHeaderMap::TPacketType(sizeof(TPacketGCCharacterAdditionalInfo), STATIC_SIZE_PACKET));

  00113	e8 00 00 00 00	 call	 ?Set@CNetworkPacketHeaderMap@@QAEXHAAUSPacketType@1@@Z ; CNetworkPacketHeaderMap::Set

; 40   : 			Set(HEADER_GC_CHARACTER_ADD2,		CNetworkPacketHeaderMap::TPacketType(sizeof(TPacketGCCharacterAdd2), STATIC_SIZE_PACKET));

  00118	8d 45 e8	 lea	 eax, DWORD PTR $T109[ebp]
; File D:\Metin2 Server Files\mainline\SRC_2014\Metin2Client\eterLib\NetPacketHeaderMap.h

; 12   : 				iPacketSize = iSize;

  0011b	c7 45 e8 50 00
	00 00		 mov	 DWORD PTR $T109[ebp], 80 ; 00000050H
; File D:\Metin2 Server Files\mainline\SRC_2014\Metin2Client\UserInterface\PythonNetworkStream.cpp

; 40   : 			Set(HEADER_GC_CHARACTER_ADD2,		CNetworkPacketHeaderMap::TPacketType(sizeof(TPacketGCCharacterAdd2), STATIC_SIZE_PACKET));

  00122	50		 push	 eax
  00123	6a 78		 push	 120			; 00000078H
  00125	8b ce		 mov	 ecx, esi
; File D:\Metin2 Server Files\mainline\SRC_2014\Metin2Client\eterLib\NetPacketHeaderMap.h

; 13   : 				isDynamicSizePacket = bFlag;

  00127	c6 45 ec 00	 mov	 BYTE PTR $T109[ebp+4], 0
; File D:\Metin2 Server Files\mainline\SRC_2014\Metin2Client\UserInterface\PythonNetworkStream.cpp

; 40   : 			Set(HEADER_GC_CHARACTER_ADD2,		CNetworkPacketHeaderMap::TPacketType(sizeof(TPacketGCCharacterAdd2), STATIC_SIZE_PACKET));

  0012b	e8 00 00 00 00	 call	 ?Set@CNetworkPacketHeaderMap@@QAEXHAAUSPacketType@1@@Z ; CNetworkPacketHeaderMap::Set

; 41   : 			Set(HEADER_GC_CHARACTER_UPDATE,		CNetworkPacketHeaderMap::TPacketType(sizeof(TPacketGCCharacterUpdate), STATIC_SIZE_PACKET));

  00130	8d 45 e8	 lea	 eax, DWORD PTR $T108[ebp]
; File D:\Metin2 Server Files\mainline\SRC_2014\Metin2Client\eterLib\NetPacketHeaderMap.h

; 12   : 				iPacketSize = iSize;

  00133	c7 45 e8 23 00
	00 00		 mov	 DWORD PTR $T108[ebp], 35 ; 00000023H
; File D:\Metin2 Server Files\mainline\SRC_2014\Metin2Client\UserInterface\PythonNetworkStream.cpp

; 41   : 			Set(HEADER_GC_CHARACTER_UPDATE,		CNetworkPacketHeaderMap::TPacketType(sizeof(TPacketGCCharacterUpdate), STATIC_SIZE_PACKET));

  0013a	50		 push	 eax
  0013b	6a 13		 push	 19			; 00000013H
  0013d	8b ce		 mov	 ecx, esi
; File D:\Metin2 Server Files\mainline\SRC_2014\Metin2Client\eterLib\NetPacketHeaderMap.h

; 13   : 				isDynamicSizePacket = bFlag;

  0013f	c6 45 ec 00	 mov	 BYTE PTR $T108[ebp+4], 0
; File D:\Metin2 Server Files\mainline\SRC_2014\Metin2Client\UserInterface\PythonNetworkStream.cpp

; 41   : 			Set(HEADER_GC_CHARACTER_UPDATE,		CNetworkPacketHeaderMap::TPacketType(sizeof(TPacketGCCharacterUpdate), STATIC_SIZE_PACKET));

  00143	e8 00 00 00 00	 call	 ?Set@CNetworkPacketHeaderMap@@QAEXHAAUSPacketType@1@@Z ; CNetworkPacketHeaderMap::Set

; 42   : 			Set(HEADER_GC_CHARACTER_UPDATE2,	CNetworkPacketHeaderMap::TPacketType(sizeof(TPacketGCCharacterUpdate2), STATIC_SIZE_PACKET));

  00148	8d 45 e8	 lea	 eax, DWORD PTR $T107[ebp]
; File D:\Metin2 Server Files\mainline\SRC_2014\Metin2Client\eterLib\NetPacketHeaderMap.h

; 12   : 				iPacketSize = iSize;

  0014b	c7 45 e8 23 00
	00 00		 mov	 DWORD PTR $T107[ebp], 35 ; 00000023H
; File D:\Metin2 Server Files\mainline\SRC_2014\Metin2Client\UserInterface\PythonNetworkStream.cpp

; 42   : 			Set(HEADER_GC_CHARACTER_UPDATE2,	CNetworkPacketHeaderMap::TPacketType(sizeof(TPacketGCCharacterUpdate2), STATIC_SIZE_PACKET));

  00152	50		 push	 eax
  00153	6a 75		 push	 117			; 00000075H
  00155	8b ce		 mov	 ecx, esi
; File D:\Metin2 Server Files\mainline\SRC_2014\Metin2Client\eterLib\NetPacketHeaderMap.h

; 13   : 				isDynamicSizePacket = bFlag;

  00157	c6 45 ec 00	 mov	 BYTE PTR $T107[ebp+4], 0
; File D:\Metin2 Server Files\mainline\SRC_2014\Metin2Client\UserInterface\PythonNetworkStream.cpp

; 42   : 			Set(HEADER_GC_CHARACTER_UPDATE2,	CNetworkPacketHeaderMap::TPacketType(sizeof(TPacketGCCharacterUpdate2), STATIC_SIZE_PACKET));

  0015b	e8 00 00 00 00	 call	 ?Set@CNetworkPacketHeaderMap@@QAEXHAAUSPacketType@1@@Z ; CNetworkPacketHeaderMap::Set

; 43   : 			Set(HEADER_GC_CHARACTER_DEL,		CNetworkPacketHeaderMap::TPacketType(sizeof(TPacketGCCharacterDelete), STATIC_SIZE_PACKET));

  00160	8d 45 e8	 lea	 eax, DWORD PTR $T106[ebp]
; File D:\Metin2 Server Files\mainline\SRC_2014\Metin2Client\eterLib\NetPacketHeaderMap.h

; 12   : 				iPacketSize = iSize;

  00163	c7 45 e8 05 00
	00 00		 mov	 DWORD PTR $T106[ebp], 5
; File D:\Metin2 Server Files\mainline\SRC_2014\Metin2Client\UserInterface\PythonNetworkStream.cpp

; 43   : 			Set(HEADER_GC_CHARACTER_DEL,		CNetworkPacketHeaderMap::TPacketType(sizeof(TPacketGCCharacterDelete), STATIC_SIZE_PACKET));

  0016a	50		 push	 eax
  0016b	6a 02		 push	 2
  0016d	8b ce		 mov	 ecx, esi
; File D:\Metin2 Server Files\mainline\SRC_2014\Metin2Client\eterLib\NetPacketHeaderMap.h

; 13   : 				isDynamicSizePacket = bFlag;

  0016f	c6 45 ec 00	 mov	 BYTE PTR $T106[ebp+4], 0
; File D:\Metin2 Server Files\mainline\SRC_2014\Metin2Client\UserInterface\PythonNetworkStream.cpp

; 43   : 			Set(HEADER_GC_CHARACTER_DEL,		CNetworkPacketHeaderMap::TPacketType(sizeof(TPacketGCCharacterDelete), STATIC_SIZE_PACKET));

  00173	e8 00 00 00 00	 call	 ?Set@CNetworkPacketHeaderMap@@QAEXHAAUSPacketType@1@@Z ; CNetworkPacketHeaderMap::Set

; 44   : 			Set(HEADER_GC_CHARACTER_MOVE,		CNetworkPacketHeaderMap::TPacketType(sizeof(TPacketGCMove), STATIC_SIZE_PACKET));

  00178	8d 45 e8	 lea	 eax, DWORD PTR $T105[ebp]
; File D:\Metin2 Server Files\mainline\SRC_2014\Metin2Client\eterLib\NetPacketHeaderMap.h

; 12   : 				iPacketSize = iSize;

  0017b	c7 45 e8 18 00
	00 00		 mov	 DWORD PTR $T105[ebp], 24 ; 00000018H
; File D:\Metin2 Server Files\mainline\SRC_2014\Metin2Client\UserInterface\PythonNetworkStream.cpp

; 44   : 			Set(HEADER_GC_CHARACTER_MOVE,		CNetworkPacketHeaderMap::TPacketType(sizeof(TPacketGCMove), STATIC_SIZE_PACKET));

  00182	50		 push	 eax
  00183	6a 03		 push	 3
  00185	8b ce		 mov	 ecx, esi
; File D:\Metin2 Server Files\mainline\SRC_2014\Metin2Client\eterLib\NetPacketHeaderMap.h

; 13   : 				isDynamicSizePacket = bFlag;

  00187	c6 45 ec 00	 mov	 BYTE PTR $T105[ebp+4], 0
; File D:\Metin2 Server Files\mainline\SRC_2014\Metin2Client\UserInterface\PythonNetworkStream.cpp

; 44   : 			Set(HEADER_GC_CHARACTER_MOVE,		CNetworkPacketHeaderMap::TPacketType(sizeof(TPacketGCMove), STATIC_SIZE_PACKET));

  0018b	e8 00 00 00 00	 call	 ?Set@CNetworkPacketHeaderMap@@QAEXHAAUSPacketType@1@@Z ; CNetworkPacketHeaderMap::Set

; 45   : 			Set(HEADER_GC_CHAT,					CNetworkPacketHeaderMap::TPacketType(sizeof(TPacketGCChat), DYNAMIC_SIZE_PACKET));

  00190	8d 45 e8	 lea	 eax, DWORD PTR $T104[ebp]
; File D:\Metin2 Server Files\mainline\SRC_2014\Metin2Client\eterLib\NetPacketHeaderMap.h

; 12   : 				iPacketSize = iSize;

  00193	c7 45 e8 09 00
	00 00		 mov	 DWORD PTR $T104[ebp], 9
; File D:\Metin2 Server Files\mainline\SRC_2014\Metin2Client\UserInterface\PythonNetworkStream.cpp

; 45   : 			Set(HEADER_GC_CHAT,					CNetworkPacketHeaderMap::TPacketType(sizeof(TPacketGCChat), DYNAMIC_SIZE_PACKET));

  0019a	50		 push	 eax
  0019b	6a 04		 push	 4
  0019d	8b ce		 mov	 ecx, esi
; File D:\Metin2 Server Files\mainline\SRC_2014\Metin2Client\eterLib\NetPacketHeaderMap.h

; 13   : 				isDynamicSizePacket = bFlag;

  0019f	c6 45 ec 01	 mov	 BYTE PTR $T104[ebp+4], 1
; File D:\Metin2 Server Files\mainline\SRC_2014\Metin2Client\UserInterface\PythonNetworkStream.cpp

; 45   : 			Set(HEADER_GC_CHAT,					CNetworkPacketHeaderMap::TPacketType(sizeof(TPacketGCChat), DYNAMIC_SIZE_PACKET));

  001a3	e8 00 00 00 00	 call	 ?Set@CNetworkPacketHeaderMap@@QAEXHAAUSPacketType@1@@Z ; CNetworkPacketHeaderMap::Set

; 47   : 			Set(HEADER_GC_SYNC_POSITION,		CNetworkPacketHeaderMap::TPacketType(sizeof(TPacketGCC2C), DYNAMIC_SIZE_PACKET));

  001a8	8d 45 e8	 lea	 eax, DWORD PTR $T103[ebp]
; File D:\Metin2 Server Files\mainline\SRC_2014\Metin2Client\eterLib\NetPacketHeaderMap.h

; 12   : 				iPacketSize = iSize;

  001ab	c7 45 e8 03 00
	00 00		 mov	 DWORD PTR $T103[ebp], 3
; File D:\Metin2 Server Files\mainline\SRC_2014\Metin2Client\UserInterface\PythonNetworkStream.cpp

; 47   : 			Set(HEADER_GC_SYNC_POSITION,		CNetworkPacketHeaderMap::TPacketType(sizeof(TPacketGCC2C), DYNAMIC_SIZE_PACKET));

  001b2	50		 push	 eax
  001b3	6a 05		 push	 5
  001b5	8b ce		 mov	 ecx, esi
; File D:\Metin2 Server Files\mainline\SRC_2014\Metin2Client\eterLib\NetPacketHeaderMap.h

; 13   : 				isDynamicSizePacket = bFlag;

  001b7	c6 45 ec 01	 mov	 BYTE PTR $T103[ebp+4], 1
; File D:\Metin2 Server Files\mainline\SRC_2014\Metin2Client\UserInterface\PythonNetworkStream.cpp

; 47   : 			Set(HEADER_GC_SYNC_POSITION,		CNetworkPacketHeaderMap::TPacketType(sizeof(TPacketGCC2C), DYNAMIC_SIZE_PACKET));

  001bb	e8 00 00 00 00	 call	 ?Set@CNetworkPacketHeaderMap@@QAEXHAAUSPacketType@1@@Z ; CNetworkPacketHeaderMap::Set

; 49   : 			Set(HEADER_GC_LOGIN_SUCCESS3,		CNetworkPacketHeaderMap::TPacketType(sizeof(TPacketGCLoginSuccess3), STATIC_SIZE_PACKET));

  001c0	8d 45 e8	 lea	 eax, DWORD PTR $T102[ebp]
; File D:\Metin2 Server Files\mainline\SRC_2014\Metin2Client\eterLib\NetPacketHeaderMap.h

; 12   : 				iPacketSize = iSize;

  001c3	c7 45 e8 f9 00
	00 00		 mov	 DWORD PTR $T102[ebp], 249 ; 000000f9H
; File D:\Metin2 Server Files\mainline\SRC_2014\Metin2Client\UserInterface\PythonNetworkStream.cpp

; 49   : 			Set(HEADER_GC_LOGIN_SUCCESS3,		CNetworkPacketHeaderMap::TPacketType(sizeof(TPacketGCLoginSuccess3), STATIC_SIZE_PACKET));

  001ca	50		 push	 eax
  001cb	6a 06		 push	 6
  001cd	8b ce		 mov	 ecx, esi
; File D:\Metin2 Server Files\mainline\SRC_2014\Metin2Client\eterLib\NetPacketHeaderMap.h

; 13   : 				isDynamicSizePacket = bFlag;

  001cf	c6 45 ec 00	 mov	 BYTE PTR $T102[ebp+4], 0
; File D:\Metin2 Server Files\mainline\SRC_2014\Metin2Client\UserInterface\PythonNetworkStream.cpp

; 49   : 			Set(HEADER_GC_LOGIN_SUCCESS3,		CNetworkPacketHeaderMap::TPacketType(sizeof(TPacketGCLoginSuccess3), STATIC_SIZE_PACKET));

  001d3	e8 00 00 00 00	 call	 ?Set@CNetworkPacketHeaderMap@@QAEXHAAUSPacketType@1@@Z ; CNetworkPacketHeaderMap::Set

; 50   : 			Set(HEADER_GC_LOGIN_SUCCESS4,		CNetworkPacketHeaderMap::TPacketType(sizeof(TPacketGCLoginSuccess4), STATIC_SIZE_PACKET));

  001d8	8d 45 e8	 lea	 eax, DWORD PTR $T101[ebp]
; File D:\Metin2 Server Files\mainline\SRC_2014\Metin2Client\eterLib\NetPacketHeaderMap.h

; 12   : 				iPacketSize = iSize;

  001db	c7 45 e8 49 01
	00 00		 mov	 DWORD PTR $T101[ebp], 329 ; 00000149H
; File D:\Metin2 Server Files\mainline\SRC_2014\Metin2Client\UserInterface\PythonNetworkStream.cpp

; 50   : 			Set(HEADER_GC_LOGIN_SUCCESS4,		CNetworkPacketHeaderMap::TPacketType(sizeof(TPacketGCLoginSuccess4), STATIC_SIZE_PACKET));

  001e2	50		 push	 eax
  001e3	6a 20		 push	 32			; 00000020H
  001e5	8b ce		 mov	 ecx, esi
; File D:\Metin2 Server Files\mainline\SRC_2014\Metin2Client\eterLib\NetPacketHeaderMap.h

; 13   : 				isDynamicSizePacket = bFlag;

  001e7	c6 45 ec 00	 mov	 BYTE PTR $T101[ebp+4], 0
; File D:\Metin2 Server Files\mainline\SRC_2014\Metin2Client\UserInterface\PythonNetworkStream.cpp

; 50   : 			Set(HEADER_GC_LOGIN_SUCCESS4,		CNetworkPacketHeaderMap::TPacketType(sizeof(TPacketGCLoginSuccess4), STATIC_SIZE_PACKET));

  001eb	e8 00 00 00 00	 call	 ?Set@CNetworkPacketHeaderMap@@QAEXHAAUSPacketType@1@@Z ; CNetworkPacketHeaderMap::Set

; 51   : 			Set(HEADER_GC_LOGIN_FAILURE,		CNetworkPacketHeaderMap::TPacketType(sizeof(TPacketGCLoginFailure), STATIC_SIZE_PACKET));

  001f0	8d 45 e8	 lea	 eax, DWORD PTR $T100[ebp]
; File D:\Metin2 Server Files\mainline\SRC_2014\Metin2Client\eterLib\NetPacketHeaderMap.h

; 12   : 				iPacketSize = iSize;

  001f3	c7 45 e8 0a 00
	00 00		 mov	 DWORD PTR $T100[ebp], 10 ; 0000000aH
; File D:\Metin2 Server Files\mainline\SRC_2014\Metin2Client\UserInterface\PythonNetworkStream.cpp

; 51   : 			Set(HEADER_GC_LOGIN_FAILURE,		CNetworkPacketHeaderMap::TPacketType(sizeof(TPacketGCLoginFailure), STATIC_SIZE_PACKET));

  001fa	50		 push	 eax
  001fb	6a 07		 push	 7
  001fd	8b ce		 mov	 ecx, esi
; File D:\Metin2 Server Files\mainline\SRC_2014\Metin2Client\eterLib\NetPacketHeaderMap.h

; 13   : 				isDynamicSizePacket = bFlag;

  001ff	c6 45 ec 00	 mov	 BYTE PTR $T100[ebp+4], 0
; File D:\Metin2 Server Files\mainline\SRC_2014\Metin2Client\UserInterface\PythonNetworkStream.cpp

; 51   : 			Set(HEADER_GC_LOGIN_FAILURE,		CNetworkPacketHeaderMap::TPacketType(sizeof(TPacketGCLoginFailure), STATIC_SIZE_PACKET));

  00203	e8 00 00 00 00	 call	 ?Set@CNetworkPacketHeaderMap@@QAEXHAAUSPacketType@1@@Z ; CNetworkPacketHeaderMap::Set

; 53   : 			Set(HEADER_GC_PLAYER_CREATE_SUCCESS,		 CNetworkPacketHeaderMap::TPacketType(sizeof(TPacketGCPlayerCreateSuccess), STATIC_SIZE_PACKET));

  00208	8d 45 e8	 lea	 eax, DWORD PTR $T99[ebp]
; File D:\Metin2 Server Files\mainline\SRC_2014\Metin2Client\eterLib\NetPacketHeaderMap.h

; 12   : 				iPacketSize = iSize;

  0020b	c7 45 e8 41 00
	00 00		 mov	 DWORD PTR $T99[ebp], 65	; 00000041H
; File D:\Metin2 Server Files\mainline\SRC_2014\Metin2Client\UserInterface\PythonNetworkStream.cpp

; 53   : 			Set(HEADER_GC_PLAYER_CREATE_SUCCESS,		 CNetworkPacketHeaderMap::TPacketType(sizeof(TPacketGCPlayerCreateSuccess), STATIC_SIZE_PACKET));

  00212	50		 push	 eax
  00213	6a 08		 push	 8
  00215	8b ce		 mov	 ecx, esi
; File D:\Metin2 Server Files\mainline\SRC_2014\Metin2Client\eterLib\NetPacketHeaderMap.h

; 13   : 				isDynamicSizePacket = bFlag;

  00217	c6 45 ec 00	 mov	 BYTE PTR $T99[ebp+4], 0
; File D:\Metin2 Server Files\mainline\SRC_2014\Metin2Client\UserInterface\PythonNetworkStream.cpp

; 53   : 			Set(HEADER_GC_PLAYER_CREATE_SUCCESS,		 CNetworkPacketHeaderMap::TPacketType(sizeof(TPacketGCPlayerCreateSuccess), STATIC_SIZE_PACKET));

  0021b	e8 00 00 00 00	 call	 ?Set@CNetworkPacketHeaderMap@@QAEXHAAUSPacketType@1@@Z ; CNetworkPacketHeaderMap::Set

; 54   : 			Set(HEADER_GC_PLAYER_CREATE_FAILURE,		 CNetworkPacketHeaderMap::TPacketType(sizeof(TPacketGCCreateFailure), STATIC_SIZE_PACKET));

  00220	8d 45 e8	 lea	 eax, DWORD PTR $T98[ebp]
; File D:\Metin2 Server Files\mainline\SRC_2014\Metin2Client\eterLib\NetPacketHeaderMap.h

; 12   : 				iPacketSize = iSize;

  00223	c7 45 e8 02 00
	00 00		 mov	 DWORD PTR $T98[ebp], 2
; File D:\Metin2 Server Files\mainline\SRC_2014\Metin2Client\UserInterface\PythonNetworkStream.cpp

; 54   : 			Set(HEADER_GC_PLAYER_CREATE_FAILURE,		 CNetworkPacketHeaderMap::TPacketType(sizeof(TPacketGCCreateFailure), STATIC_SIZE_PACKET));

  0022a	50		 push	 eax
  0022b	6a 09		 push	 9
  0022d	8b ce		 mov	 ecx, esi
; File D:\Metin2 Server Files\mainline\SRC_2014\Metin2Client\eterLib\NetPacketHeaderMap.h

; 13   : 				isDynamicSizePacket = bFlag;

  0022f	c6 45 ec 00	 mov	 BYTE PTR $T98[ebp+4], 0
; File D:\Metin2 Server Files\mainline\SRC_2014\Metin2Client\UserInterface\PythonNetworkStream.cpp

; 54   : 			Set(HEADER_GC_PLAYER_CREATE_FAILURE,		 CNetworkPacketHeaderMap::TPacketType(sizeof(TPacketGCCreateFailure), STATIC_SIZE_PACKET));

  00233	e8 00 00 00 00	 call	 ?Set@CNetworkPacketHeaderMap@@QAEXHAAUSPacketType@1@@Z ; CNetworkPacketHeaderMap::Set

; 55   : 			Set(HEADER_GC_PLAYER_DELETE_SUCCESS,		 CNetworkPacketHeaderMap::TPacketType(sizeof(TPacketGCBlank), STATIC_SIZE_PACKET));

  00238	8d 45 e8	 lea	 eax, DWORD PTR $T97[ebp]
; File D:\Metin2 Server Files\mainline\SRC_2014\Metin2Client\eterLib\NetPacketHeaderMap.h

; 12   : 				iPacketSize = iSize;

  0023b	c7 45 e8 01 00
	00 00		 mov	 DWORD PTR $T97[ebp], 1
; File D:\Metin2 Server Files\mainline\SRC_2014\Metin2Client\UserInterface\PythonNetworkStream.cpp

; 55   : 			Set(HEADER_GC_PLAYER_DELETE_SUCCESS,		 CNetworkPacketHeaderMap::TPacketType(sizeof(TPacketGCBlank), STATIC_SIZE_PACKET));

  00242	50		 push	 eax
  00243	6a 0a		 push	 10			; 0000000aH
  00245	8b ce		 mov	 ecx, esi
; File D:\Metin2 Server Files\mainline\SRC_2014\Metin2Client\eterLib\NetPacketHeaderMap.h

; 13   : 				isDynamicSizePacket = bFlag;

  00247	c6 45 ec 00	 mov	 BYTE PTR $T97[ebp+4], 0
; File D:\Metin2 Server Files\mainline\SRC_2014\Metin2Client\UserInterface\PythonNetworkStream.cpp

; 55   : 			Set(HEADER_GC_PLAYER_DELETE_SUCCESS,		 CNetworkPacketHeaderMap::TPacketType(sizeof(TPacketGCBlank), STATIC_SIZE_PACKET));

  0024b	e8 00 00 00 00	 call	 ?Set@CNetworkPacketHeaderMap@@QAEXHAAUSPacketType@1@@Z ; CNetworkPacketHeaderMap::Set

; 56   : 			Set(HEADER_GC_PLAYER_DELETE_WRONG_SOCIAL_ID, CNetworkPacketHeaderMap::TPacketType(sizeof(TPacketGCBlank), STATIC_SIZE_PACKET));

  00250	8d 45 e8	 lea	 eax, DWORD PTR $T96[ebp]
; File D:\Metin2 Server Files\mainline\SRC_2014\Metin2Client\eterLib\NetPacketHeaderMap.h

; 12   : 				iPacketSize = iSize;

  00253	c7 45 e8 01 00
	00 00		 mov	 DWORD PTR $T96[ebp], 1

; 13   : 				isDynamicSizePacket = bFlag;

  0025a	c6 45 ec 00	 mov	 BYTE PTR $T96[ebp+4], 0
; File D:\Metin2 Server Files\mainline\SRC_2014\Metin2Client\UserInterface\PythonNetworkStream.cpp

; 56   : 			Set(HEADER_GC_PLAYER_DELETE_WRONG_SOCIAL_ID, CNetworkPacketHeaderMap::TPacketType(sizeof(TPacketGCBlank), STATIC_SIZE_PACKET));

  0025e	50		 push	 eax
  0025f	6a 0b		 push	 11			; 0000000bH
  00261	8b ce		 mov	 ecx, esi
  00263	e8 00 00 00 00	 call	 ?Set@CNetworkPacketHeaderMap@@QAEXHAAUSPacketType@1@@Z ; CNetworkPacketHeaderMap::Set

; 58   : 			Set(HEADER_GC_STUN,					CNetworkPacketHeaderMap::TPacketType(sizeof(TPacketGCStun), STATIC_SIZE_PACKET));

  00268	8d 45 e8	 lea	 eax, DWORD PTR $T95[ebp]
; File D:\Metin2 Server Files\mainline\SRC_2014\Metin2Client\eterLib\NetPacketHeaderMap.h

; 12   : 				iPacketSize = iSize;

  0026b	c7 45 e8 05 00
	00 00		 mov	 DWORD PTR $T95[ebp], 5
; File D:\Metin2 Server Files\mainline\SRC_2014\Metin2Client\UserInterface\PythonNetworkStream.cpp

; 58   : 			Set(HEADER_GC_STUN,					CNetworkPacketHeaderMap::TPacketType(sizeof(TPacketGCStun), STATIC_SIZE_PACKET));

  00272	50		 push	 eax
  00273	6a 0d		 push	 13			; 0000000dH
  00275	8b ce		 mov	 ecx, esi
; File D:\Metin2 Server Files\mainline\SRC_2014\Metin2Client\eterLib\NetPacketHeaderMap.h

; 13   : 				isDynamicSizePacket = bFlag;

  00277	c6 45 ec 00	 mov	 BYTE PTR $T95[ebp+4], 0
; File D:\Metin2 Server Files\mainline\SRC_2014\Metin2Client\UserInterface\PythonNetworkStream.cpp

; 58   : 			Set(HEADER_GC_STUN,					CNetworkPacketHeaderMap::TPacketType(sizeof(TPacketGCStun), STATIC_SIZE_PACKET));

  0027b	e8 00 00 00 00	 call	 ?Set@CNetworkPacketHeaderMap@@QAEXHAAUSPacketType@1@@Z ; CNetworkPacketHeaderMap::Set

; 59   : 			Set(HEADER_GC_DEAD,					CNetworkPacketHeaderMap::TPacketType(sizeof(TPacketGCDead), STATIC_SIZE_PACKET));

  00280	8d 45 e8	 lea	 eax, DWORD PTR $T94[ebp]
; File D:\Metin2 Server Files\mainline\SRC_2014\Metin2Client\eterLib\NetPacketHeaderMap.h

; 12   : 				iPacketSize = iSize;

  00283	c7 45 e8 05 00
	00 00		 mov	 DWORD PTR $T94[ebp], 5
; File D:\Metin2 Server Files\mainline\SRC_2014\Metin2Client\UserInterface\PythonNetworkStream.cpp

; 59   : 			Set(HEADER_GC_DEAD,					CNetworkPacketHeaderMap::TPacketType(sizeof(TPacketGCDead), STATIC_SIZE_PACKET));

  0028a	50		 push	 eax
  0028b	6a 0e		 push	 14			; 0000000eH
  0028d	8b ce		 mov	 ecx, esi
; File D:\Metin2 Server Files\mainline\SRC_2014\Metin2Client\eterLib\NetPacketHeaderMap.h

; 13   : 				isDynamicSizePacket = bFlag;

  0028f	c6 45 ec 00	 mov	 BYTE PTR $T94[ebp+4], 0
; File D:\Metin2 Server Files\mainline\SRC_2014\Metin2Client\UserInterface\PythonNetworkStream.cpp

; 59   : 			Set(HEADER_GC_DEAD,					CNetworkPacketHeaderMap::TPacketType(sizeof(TPacketGCDead), STATIC_SIZE_PACKET));

  00293	e8 00 00 00 00	 call	 ?Set@CNetworkPacketHeaderMap@@QAEXHAAUSPacketType@1@@Z ; CNetworkPacketHeaderMap::Set

; 61   : 			Set(HEADER_GC_MAIN_CHARACTER,			CNetworkPacketHeaderMap::TPacketType(sizeof(TPacketGCMainCharacter), STATIC_SIZE_PACKET));

  00298	8d 45 e8	 lea	 eax, DWORD PTR $T93[ebp]
; File D:\Metin2 Server Files\mainline\SRC_2014\Metin2Client\eterLib\NetPacketHeaderMap.h

; 12   : 				iPacketSize = iSize;

  0029b	c7 45 e8 2d 00
	00 00		 mov	 DWORD PTR $T93[ebp], 45	; 0000002dH
; File D:\Metin2 Server Files\mainline\SRC_2014\Metin2Client\UserInterface\PythonNetworkStream.cpp

; 61   : 			Set(HEADER_GC_MAIN_CHARACTER,			CNetworkPacketHeaderMap::TPacketType(sizeof(TPacketGCMainCharacter), STATIC_SIZE_PACKET));

  002a2	50		 push	 eax
  002a3	6a 0f		 push	 15			; 0000000fH
  002a5	8b ce		 mov	 ecx, esi
; File D:\Metin2 Server Files\mainline\SRC_2014\Metin2Client\eterLib\NetPacketHeaderMap.h

; 13   : 				isDynamicSizePacket = bFlag;

  002a7	c6 45 ec 00	 mov	 BYTE PTR $T93[ebp+4], 0
; File D:\Metin2 Server Files\mainline\SRC_2014\Metin2Client\UserInterface\PythonNetworkStream.cpp

; 61   : 			Set(HEADER_GC_MAIN_CHARACTER,			CNetworkPacketHeaderMap::TPacketType(sizeof(TPacketGCMainCharacter), STATIC_SIZE_PACKET));

  002ab	e8 00 00 00 00	 call	 ?Set@CNetworkPacketHeaderMap@@QAEXHAAUSPacketType@1@@Z ; CNetworkPacketHeaderMap::Set

; 64   : 			Set(HEADER_GC_MAIN_CHARACTER2_EMPIRE,	CNetworkPacketHeaderMap::TPacketType(sizeof(TPacketGCMainCharacter2_EMPIRE), STATIC_SIZE_PACKET));

  002b0	8d 45 e8	 lea	 eax, DWORD PTR $T92[ebp]
; File D:\Metin2 Server Files\mainline\SRC_2014\Metin2Client\eterLib\NetPacketHeaderMap.h

; 12   : 				iPacketSize = iSize;

  002b3	c7 45 e8 2e 00
	00 00		 mov	 DWORD PTR $T92[ebp], 46	; 0000002eH
; File D:\Metin2 Server Files\mainline\SRC_2014\Metin2Client\UserInterface\PythonNetworkStream.cpp

; 64   : 			Set(HEADER_GC_MAIN_CHARACTER2_EMPIRE,	CNetworkPacketHeaderMap::TPacketType(sizeof(TPacketGCMainCharacter2_EMPIRE), STATIC_SIZE_PACKET));

  002ba	50		 push	 eax
  002bb	6a 71		 push	 113			; 00000071H
  002bd	8b ce		 mov	 ecx, esi
; File D:\Metin2 Server Files\mainline\SRC_2014\Metin2Client\eterLib\NetPacketHeaderMap.h

; 13   : 				isDynamicSizePacket = bFlag;

  002bf	c6 45 ec 00	 mov	 BYTE PTR $T92[ebp+4], 0
; File D:\Metin2 Server Files\mainline\SRC_2014\Metin2Client\UserInterface\PythonNetworkStream.cpp

; 64   : 			Set(HEADER_GC_MAIN_CHARACTER2_EMPIRE,	CNetworkPacketHeaderMap::TPacketType(sizeof(TPacketGCMainCharacter2_EMPIRE), STATIC_SIZE_PACKET));

  002c3	e8 00 00 00 00	 call	 ?Set@CNetworkPacketHeaderMap@@QAEXHAAUSPacketType@1@@Z ; CNetworkPacketHeaderMap::Set

; 65   : 			Set(HEADER_GC_MAIN_CHARACTER3_BGM,		CNetworkPacketHeaderMap::TPacketType(sizeof(TPacketGCMainCharacter3_BGM), STATIC_SIZE_PACKET));

  002c8	8d 45 e8	 lea	 eax, DWORD PTR $T91[ebp]
; File D:\Metin2 Server Files\mainline\SRC_2014\Metin2Client\eterLib\NetPacketHeaderMap.h

; 12   : 				iPacketSize = iSize;

  002cb	c7 45 e8 47 00
	00 00		 mov	 DWORD PTR $T91[ebp], 71	; 00000047H
; File D:\Metin2 Server Files\mainline\SRC_2014\Metin2Client\UserInterface\PythonNetworkStream.cpp

; 65   : 			Set(HEADER_GC_MAIN_CHARACTER3_BGM,		CNetworkPacketHeaderMap::TPacketType(sizeof(TPacketGCMainCharacter3_BGM), STATIC_SIZE_PACKET));

  002d2	50		 push	 eax
  002d3	68 89 00 00 00	 push	 137			; 00000089H
  002d8	8b ce		 mov	 ecx, esi
; File D:\Metin2 Server Files\mainline\SRC_2014\Metin2Client\eterLib\NetPacketHeaderMap.h

; 13   : 				isDynamicSizePacket = bFlag;

  002da	c6 45 ec 00	 mov	 BYTE PTR $T91[ebp+4], 0
; File D:\Metin2 Server Files\mainline\SRC_2014\Metin2Client\UserInterface\PythonNetworkStream.cpp

; 65   : 			Set(HEADER_GC_MAIN_CHARACTER3_BGM,		CNetworkPacketHeaderMap::TPacketType(sizeof(TPacketGCMainCharacter3_BGM), STATIC_SIZE_PACKET));

  002de	e8 00 00 00 00	 call	 ?Set@CNetworkPacketHeaderMap@@QAEXHAAUSPacketType@1@@Z ; CNetworkPacketHeaderMap::Set

; 66   : 			Set(HEADER_GC_MAIN_CHARACTER4_BGM_VOL,	CNetworkPacketHeaderMap::TPacketType(sizeof(TPacketGCMainCharacter4_BGM_VOL), STATIC_SIZE_PACKET));

  002e3	8d 45 e8	 lea	 eax, DWORD PTR $T90[ebp]
; File D:\Metin2 Server Files\mainline\SRC_2014\Metin2Client\eterLib\NetPacketHeaderMap.h

; 12   : 				iPacketSize = iSize;

  002e6	c7 45 e8 4b 00
	00 00		 mov	 DWORD PTR $T90[ebp], 75	; 0000004bH
; File D:\Metin2 Server Files\mainline\SRC_2014\Metin2Client\UserInterface\PythonNetworkStream.cpp

; 66   : 			Set(HEADER_GC_MAIN_CHARACTER4_BGM_VOL,	CNetworkPacketHeaderMap::TPacketType(sizeof(TPacketGCMainCharacter4_BGM_VOL), STATIC_SIZE_PACKET));

  002ed	50		 push	 eax
  002ee	68 8a 00 00 00	 push	 138			; 0000008aH
  002f3	8b ce		 mov	 ecx, esi
; File D:\Metin2 Server Files\mainline\SRC_2014\Metin2Client\eterLib\NetPacketHeaderMap.h

; 13   : 				isDynamicSizePacket = bFlag;

  002f5	c6 45 ec 00	 mov	 BYTE PTR $T90[ebp+4], 0
; File D:\Metin2 Server Files\mainline\SRC_2014\Metin2Client\UserInterface\PythonNetworkStream.cpp

; 66   : 			Set(HEADER_GC_MAIN_CHARACTER4_BGM_VOL,	CNetworkPacketHeaderMap::TPacketType(sizeof(TPacketGCMainCharacter4_BGM_VOL), STATIC_SIZE_PACKET));

  002f9	e8 00 00 00 00	 call	 ?Set@CNetworkPacketHeaderMap@@QAEXHAAUSPacketType@1@@Z ; CNetworkPacketHeaderMap::Set

; 69   : 			Set(HEADER_GC_PLAYER_POINTS,		CNetworkPacketHeaderMap::TPacketType(sizeof(TPacketGCPoints), STATIC_SIZE_PACKET));

  002fe	8d 45 e8	 lea	 eax, DWORD PTR $T89[ebp]
; File D:\Metin2 Server Files\mainline\SRC_2014\Metin2Client\eterLib\NetPacketHeaderMap.h

; 12   : 				iPacketSize = iSize;

  00301	c7 45 e8 fd 03
	00 00		 mov	 DWORD PTR $T89[ebp], 1021 ; 000003fdH
; File D:\Metin2 Server Files\mainline\SRC_2014\Metin2Client\UserInterface\PythonNetworkStream.cpp

; 69   : 			Set(HEADER_GC_PLAYER_POINTS,		CNetworkPacketHeaderMap::TPacketType(sizeof(TPacketGCPoints), STATIC_SIZE_PACKET));

  00308	50		 push	 eax
  00309	6a 10		 push	 16			; 00000010H
  0030b	8b ce		 mov	 ecx, esi
; File D:\Metin2 Server Files\mainline\SRC_2014\Metin2Client\eterLib\NetPacketHeaderMap.h

; 13   : 				isDynamicSizePacket = bFlag;

  0030d	c6 45 ec 00	 mov	 BYTE PTR $T89[ebp+4], 0
; File D:\Metin2 Server Files\mainline\SRC_2014\Metin2Client\UserInterface\PythonNetworkStream.cpp

; 69   : 			Set(HEADER_GC_PLAYER_POINTS,		CNetworkPacketHeaderMap::TPacketType(sizeof(TPacketGCPoints), STATIC_SIZE_PACKET));

  00311	e8 00 00 00 00	 call	 ?Set@CNetworkPacketHeaderMap@@QAEXHAAUSPacketType@1@@Z ; CNetworkPacketHeaderMap::Set

; 70   : 			Set(HEADER_GC_PLAYER_POINT_CHANGE,	CNetworkPacketHeaderMap::TPacketType(sizeof(TPacketGCPointChange), STATIC_SIZE_PACKET));

  00316	8d 45 e8	 lea	 eax, DWORD PTR $T88[ebp]
; File D:\Metin2 Server Files\mainline\SRC_2014\Metin2Client\eterLib\NetPacketHeaderMap.h

; 12   : 				iPacketSize = iSize;

  00319	c7 45 e8 11 00
	00 00		 mov	 DWORD PTR $T88[ebp], 17	; 00000011H
; File D:\Metin2 Server Files\mainline\SRC_2014\Metin2Client\UserInterface\PythonNetworkStream.cpp

; 70   : 			Set(HEADER_GC_PLAYER_POINT_CHANGE,	CNetworkPacketHeaderMap::TPacketType(sizeof(TPacketGCPointChange), STATIC_SIZE_PACKET));

  00320	50		 push	 eax
  00321	6a 11		 push	 17			; 00000011H
  00323	8b ce		 mov	 ecx, esi
; File D:\Metin2 Server Files\mainline\SRC_2014\Metin2Client\eterLib\NetPacketHeaderMap.h

; 13   : 				isDynamicSizePacket = bFlag;

  00325	c6 45 ec 00	 mov	 BYTE PTR $T88[ebp+4], 0
; File D:\Metin2 Server Files\mainline\SRC_2014\Metin2Client\UserInterface\PythonNetworkStream.cpp

; 70   : 			Set(HEADER_GC_PLAYER_POINT_CHANGE,	CNetworkPacketHeaderMap::TPacketType(sizeof(TPacketGCPointChange), STATIC_SIZE_PACKET));

  00329	e8 00 00 00 00	 call	 ?Set@CNetworkPacketHeaderMap@@QAEXHAAUSPacketType@1@@Z ; CNetworkPacketHeaderMap::Set

; 72   : 			Set(HEADER_GC_ITEM_SET,				CNetworkPacketHeaderMap::TPacketType(sizeof(TPacketGCItemSet), STATIC_SIZE_PACKET));

  0032e	8d 45 e8	 lea	 eax, DWORD PTR $T87[ebp]
; File D:\Metin2 Server Files\mainline\SRC_2014\Metin2Client\eterLib\NetPacketHeaderMap.h

; 12   : 				iPacketSize = iSize;

  00331	c7 45 e8 2a 00
	00 00		 mov	 DWORD PTR $T87[ebp], 42	; 0000002aH
; File D:\Metin2 Server Files\mainline\SRC_2014\Metin2Client\UserInterface\PythonNetworkStream.cpp

; 72   : 			Set(HEADER_GC_ITEM_SET,				CNetworkPacketHeaderMap::TPacketType(sizeof(TPacketGCItemSet), STATIC_SIZE_PACKET));

  00338	50		 push	 eax
  00339	6a 14		 push	 20			; 00000014H
  0033b	8b ce		 mov	 ecx, esi
; File D:\Metin2 Server Files\mainline\SRC_2014\Metin2Client\eterLib\NetPacketHeaderMap.h

; 13   : 				isDynamicSizePacket = bFlag;

  0033d	c6 45 ec 00	 mov	 BYTE PTR $T87[ebp+4], 0
; File D:\Metin2 Server Files\mainline\SRC_2014\Metin2Client\UserInterface\PythonNetworkStream.cpp

; 72   : 			Set(HEADER_GC_ITEM_SET,				CNetworkPacketHeaderMap::TPacketType(sizeof(TPacketGCItemSet), STATIC_SIZE_PACKET));

  00341	e8 00 00 00 00	 call	 ?Set@CNetworkPacketHeaderMap@@QAEXHAAUSPacketType@1@@Z ; CNetworkPacketHeaderMap::Set

; 73   : 			Set(HEADER_GC_ITEM_SET2,			CNetworkPacketHeaderMap::TPacketType(sizeof(TPacketGCItemSet2), STATIC_SIZE_PACKET));

  00346	8d 45 e8	 lea	 eax, DWORD PTR $T86[ebp]
; File D:\Metin2 Server Files\mainline\SRC_2014\Metin2Client\eterLib\NetPacketHeaderMap.h

; 12   : 				iPacketSize = iSize;

  00349	c7 45 e8 33 00
	00 00		 mov	 DWORD PTR $T86[ebp], 51	; 00000033H
; File D:\Metin2 Server Files\mainline\SRC_2014\Metin2Client\UserInterface\PythonNetworkStream.cpp

; 73   : 			Set(HEADER_GC_ITEM_SET2,			CNetworkPacketHeaderMap::TPacketType(sizeof(TPacketGCItemSet2), STATIC_SIZE_PACKET));

  00350	50		 push	 eax
  00351	6a 15		 push	 21			; 00000015H
  00353	8b ce		 mov	 ecx, esi
; File D:\Metin2 Server Files\mainline\SRC_2014\Metin2Client\eterLib\NetPacketHeaderMap.h

; 13   : 				isDynamicSizePacket = bFlag;

  00355	c6 45 ec 00	 mov	 BYTE PTR $T86[ebp+4], 0
; File D:\Metin2 Server Files\mainline\SRC_2014\Metin2Client\UserInterface\PythonNetworkStream.cpp

; 73   : 			Set(HEADER_GC_ITEM_SET2,			CNetworkPacketHeaderMap::TPacketType(sizeof(TPacketGCItemSet2), STATIC_SIZE_PACKET));

  00359	e8 00 00 00 00	 call	 ?Set@CNetworkPacketHeaderMap@@QAEXHAAUSPacketType@1@@Z ; CNetworkPacketHeaderMap::Set

; 75   : 			Set(HEADER_GC_ITEM_USE,				CNetworkPacketHeaderMap::TPacketType(sizeof(TPacketGCItemUse), STATIC_SIZE_PACKET));

  0035e	8d 45 e8	 lea	 eax, DWORD PTR $T85[ebp]
; File D:\Metin2 Server Files\mainline\SRC_2014\Metin2Client\eterLib\NetPacketHeaderMap.h

; 12   : 				iPacketSize = iSize;

  00361	c7 45 e8 10 00
	00 00		 mov	 DWORD PTR $T85[ebp], 16	; 00000010H
; File D:\Metin2 Server Files\mainline\SRC_2014\Metin2Client\UserInterface\PythonNetworkStream.cpp

; 75   : 			Set(HEADER_GC_ITEM_USE,				CNetworkPacketHeaderMap::TPacketType(sizeof(TPacketGCItemUse), STATIC_SIZE_PACKET));

  00368	50		 push	 eax
  00369	6a 16		 push	 22			; 00000016H
  0036b	8b ce		 mov	 ecx, esi
; File D:\Metin2 Server Files\mainline\SRC_2014\Metin2Client\eterLib\NetPacketHeaderMap.h

; 13   : 				isDynamicSizePacket = bFlag;

  0036d	c6 45 ec 00	 mov	 BYTE PTR $T85[ebp+4], 0
; File D:\Metin2 Server Files\mainline\SRC_2014\Metin2Client\UserInterface\PythonNetworkStream.cpp

; 75   : 			Set(HEADER_GC_ITEM_USE,				CNetworkPacketHeaderMap::TPacketType(sizeof(TPacketGCItemUse), STATIC_SIZE_PACKET));

  00371	e8 00 00 00 00	 call	 ?Set@CNetworkPacketHeaderMap@@QAEXHAAUSPacketType@1@@Z ; CNetworkPacketHeaderMap::Set
; File D:\Metin2 Server Files\mainline\SRC_2014\Metin2Client\eterLib\NetPacketHeaderMap.h

; 12   : 				iPacketSize = iSize;

  00376	c7 45 e8 26 00
	00 00		 mov	 DWORD PTR $T84[ebp], 38	; 00000026H
; File D:\Metin2 Server Files\mainline\SRC_2014\Metin2Client\UserInterface\PythonNetworkStream.cpp

; 76   : 			Set(HEADER_GC_ITEM_UPDATE,			CNetworkPacketHeaderMap::TPacketType(sizeof(TPacketGCItemUpdate), STATIC_SIZE_PACKET));

  0037d	8d 45 e8	 lea	 eax, DWORD PTR $T84[ebp]
; File D:\Metin2 Server Files\mainline\SRC_2014\Metin2Client\eterLib\NetPacketHeaderMap.h

; 13   : 				isDynamicSizePacket = bFlag;

  00380	c6 45 ec 00	 mov	 BYTE PTR $T84[ebp+4], 0
; File D:\Metin2 Server Files\mainline\SRC_2014\Metin2Client\UserInterface\PythonNetworkStream.cpp

; 76   : 			Set(HEADER_GC_ITEM_UPDATE,			CNetworkPacketHeaderMap::TPacketType(sizeof(TPacketGCItemUpdate), STATIC_SIZE_PACKET));

  00384	50		 push	 eax
  00385	6a 19		 push	 25			; 00000019H
  00387	8b ce		 mov	 ecx, esi
  00389	e8 00 00 00 00	 call	 ?Set@CNetworkPacketHeaderMap@@QAEXHAAUSPacketType@1@@Z ; CNetworkPacketHeaderMap::Set

; 78   : 			Set(HEADER_GC_ITEM_GROUND_ADD,		CNetworkPacketHeaderMap::TPacketType(sizeof(TPacketGCItemGroundAdd), STATIC_SIZE_PACKET));

  0038e	8d 45 e8	 lea	 eax, DWORD PTR $T83[ebp]
; File D:\Metin2 Server Files\mainline\SRC_2014\Metin2Client\eterLib\NetPacketHeaderMap.h

; 12   : 				iPacketSize = iSize;

  00391	c7 45 e8 15 00
	00 00		 mov	 DWORD PTR $T83[ebp], 21	; 00000015H
; File D:\Metin2 Server Files\mainline\SRC_2014\Metin2Client\UserInterface\PythonNetworkStream.cpp

; 78   : 			Set(HEADER_GC_ITEM_GROUND_ADD,		CNetworkPacketHeaderMap::TPacketType(sizeof(TPacketGCItemGroundAdd), STATIC_SIZE_PACKET));

  00398	50		 push	 eax
  00399	6a 1a		 push	 26			; 0000001aH
  0039b	8b ce		 mov	 ecx, esi
; File D:\Metin2 Server Files\mainline\SRC_2014\Metin2Client\eterLib\NetPacketHeaderMap.h

; 13   : 				isDynamicSizePacket = bFlag;

  0039d	c6 45 ec 00	 mov	 BYTE PTR $T83[ebp+4], 0
; File D:\Metin2 Server Files\mainline\SRC_2014\Metin2Client\UserInterface\PythonNetworkStream.cpp

; 78   : 			Set(HEADER_GC_ITEM_GROUND_ADD,		CNetworkPacketHeaderMap::TPacketType(sizeof(TPacketGCItemGroundAdd), STATIC_SIZE_PACKET));

  003a1	e8 00 00 00 00	 call	 ?Set@CNetworkPacketHeaderMap@@QAEXHAAUSPacketType@1@@Z ; CNetworkPacketHeaderMap::Set

; 79   : 			Set(HEADER_GC_ITEM_GROUND_DEL,		CNetworkPacketHeaderMap::TPacketType(sizeof(TPacketGCItemGroundDel), STATIC_SIZE_PACKET));

  003a6	8d 45 e8	 lea	 eax, DWORD PTR $T82[ebp]
; File D:\Metin2 Server Files\mainline\SRC_2014\Metin2Client\eterLib\NetPacketHeaderMap.h

; 12   : 				iPacketSize = iSize;

  003a9	c7 45 e8 05 00
	00 00		 mov	 DWORD PTR $T82[ebp], 5
; File D:\Metin2 Server Files\mainline\SRC_2014\Metin2Client\UserInterface\PythonNetworkStream.cpp

; 79   : 			Set(HEADER_GC_ITEM_GROUND_DEL,		CNetworkPacketHeaderMap::TPacketType(sizeof(TPacketGCItemGroundDel), STATIC_SIZE_PACKET));

  003b0	50		 push	 eax
  003b1	6a 1b		 push	 27			; 0000001bH
  003b3	8b ce		 mov	 ecx, esi
; File D:\Metin2 Server Files\mainline\SRC_2014\Metin2Client\eterLib\NetPacketHeaderMap.h

; 13   : 				isDynamicSizePacket = bFlag;

  003b5	c6 45 ec 00	 mov	 BYTE PTR $T82[ebp+4], 0
; File D:\Metin2 Server Files\mainline\SRC_2014\Metin2Client\UserInterface\PythonNetworkStream.cpp

; 79   : 			Set(HEADER_GC_ITEM_GROUND_DEL,		CNetworkPacketHeaderMap::TPacketType(sizeof(TPacketGCItemGroundDel), STATIC_SIZE_PACKET));

  003b9	e8 00 00 00 00	 call	 ?Set@CNetworkPacketHeaderMap@@QAEXHAAUSPacketType@1@@Z ; CNetworkPacketHeaderMap::Set

; 80   : 			Set(HEADER_GC_ITEM_OWNERSHIP,		CNetworkPacketHeaderMap::TPacketType(sizeof(TPacketGCItemOwnership), STATIC_SIZE_PACKET));

  003be	8d 45 e8	 lea	 eax, DWORD PTR $T81[ebp]
; File D:\Metin2 Server Files\mainline\SRC_2014\Metin2Client\eterLib\NetPacketHeaderMap.h

; 12   : 				iPacketSize = iSize;

  003c1	c7 45 e8 1e 00
	00 00		 mov	 DWORD PTR $T81[ebp], 30	; 0000001eH
; File D:\Metin2 Server Files\mainline\SRC_2014\Metin2Client\UserInterface\PythonNetworkStream.cpp

; 80   : 			Set(HEADER_GC_ITEM_OWNERSHIP,		CNetworkPacketHeaderMap::TPacketType(sizeof(TPacketGCItemOwnership), STATIC_SIZE_PACKET));

  003c8	50		 push	 eax
  003c9	6a 1f		 push	 31			; 0000001fH
  003cb	8b ce		 mov	 ecx, esi
; File D:\Metin2 Server Files\mainline\SRC_2014\Metin2Client\eterLib\NetPacketHeaderMap.h

; 13   : 				isDynamicSizePacket = bFlag;

  003cd	c6 45 ec 00	 mov	 BYTE PTR $T81[ebp+4], 0
; File D:\Metin2 Server Files\mainline\SRC_2014\Metin2Client\UserInterface\PythonNetworkStream.cpp

; 80   : 			Set(HEADER_GC_ITEM_OWNERSHIP,		CNetworkPacketHeaderMap::TPacketType(sizeof(TPacketGCItemOwnership), STATIC_SIZE_PACKET));

  003d1	e8 00 00 00 00	 call	 ?Set@CNetworkPacketHeaderMap@@QAEXHAAUSPacketType@1@@Z ; CNetworkPacketHeaderMap::Set

; 82   : 			Set(HEADER_GC_QUICKSLOT_ADD,		CNetworkPacketHeaderMap::TPacketType(sizeof(TPacketGCQuickSlotAdd), STATIC_SIZE_PACKET));

  003d6	8d 45 e8	 lea	 eax, DWORD PTR $T80[ebp]
; File D:\Metin2 Server Files\mainline\SRC_2014\Metin2Client\eterLib\NetPacketHeaderMap.h

; 12   : 				iPacketSize = iSize;

  003d9	c7 45 e8 04 00
	00 00		 mov	 DWORD PTR $T80[ebp], 4
; File D:\Metin2 Server Files\mainline\SRC_2014\Metin2Client\UserInterface\PythonNetworkStream.cpp

; 82   : 			Set(HEADER_GC_QUICKSLOT_ADD,		CNetworkPacketHeaderMap::TPacketType(sizeof(TPacketGCQuickSlotAdd), STATIC_SIZE_PACKET));

  003e0	50		 push	 eax
  003e1	6a 1c		 push	 28			; 0000001cH
  003e3	8b ce		 mov	 ecx, esi
; File D:\Metin2 Server Files\mainline\SRC_2014\Metin2Client\eterLib\NetPacketHeaderMap.h

; 13   : 				isDynamicSizePacket = bFlag;

  003e5	c6 45 ec 00	 mov	 BYTE PTR $T80[ebp+4], 0
; File D:\Metin2 Server Files\mainline\SRC_2014\Metin2Client\UserInterface\PythonNetworkStream.cpp

; 82   : 			Set(HEADER_GC_QUICKSLOT_ADD,		CNetworkPacketHeaderMap::TPacketType(sizeof(TPacketGCQuickSlotAdd), STATIC_SIZE_PACKET));

  003e9	e8 00 00 00 00	 call	 ?Set@CNetworkPacketHeaderMap@@QAEXHAAUSPacketType@1@@Z ; CNetworkPacketHeaderMap::Set

; 83   : 			Set(HEADER_GC_QUICKSLOT_DEL,		CNetworkPacketHeaderMap::TPacketType(sizeof(TPacketGCQuickSlotDel), STATIC_SIZE_PACKET));

  003ee	8d 45 e8	 lea	 eax, DWORD PTR $T79[ebp]
; File D:\Metin2 Server Files\mainline\SRC_2014\Metin2Client\eterLib\NetPacketHeaderMap.h

; 12   : 				iPacketSize = iSize;

  003f1	c7 45 e8 02 00
	00 00		 mov	 DWORD PTR $T79[ebp], 2
; File D:\Metin2 Server Files\mainline\SRC_2014\Metin2Client\UserInterface\PythonNetworkStream.cpp

; 83   : 			Set(HEADER_GC_QUICKSLOT_DEL,		CNetworkPacketHeaderMap::TPacketType(sizeof(TPacketGCQuickSlotDel), STATIC_SIZE_PACKET));

  003f8	50		 push	 eax
  003f9	6a 1d		 push	 29			; 0000001dH
  003fb	8b ce		 mov	 ecx, esi
; File D:\Metin2 Server Files\mainline\SRC_2014\Metin2Client\eterLib\NetPacketHeaderMap.h

; 13   : 				isDynamicSizePacket = bFlag;

  003fd	c6 45 ec 00	 mov	 BYTE PTR $T79[ebp+4], 0
; File D:\Metin2 Server Files\mainline\SRC_2014\Metin2Client\UserInterface\PythonNetworkStream.cpp

; 83   : 			Set(HEADER_GC_QUICKSLOT_DEL,		CNetworkPacketHeaderMap::TPacketType(sizeof(TPacketGCQuickSlotDel), STATIC_SIZE_PACKET));

  00401	e8 00 00 00 00	 call	 ?Set@CNetworkPacketHeaderMap@@QAEXHAAUSPacketType@1@@Z ; CNetworkPacketHeaderMap::Set

; 84   : 			Set(HEADER_GC_QUICKSLOT_SWAP,		CNetworkPacketHeaderMap::TPacketType(sizeof(TPacketGCQuickSlotSwap), STATIC_SIZE_PACKET));

  00406	8d 45 e8	 lea	 eax, DWORD PTR $T78[ebp]
; File D:\Metin2 Server Files\mainline\SRC_2014\Metin2Client\eterLib\NetPacketHeaderMap.h

; 12   : 				iPacketSize = iSize;

  00409	c7 45 e8 03 00
	00 00		 mov	 DWORD PTR $T78[ebp], 3
; File D:\Metin2 Server Files\mainline\SRC_2014\Metin2Client\UserInterface\PythonNetworkStream.cpp

; 84   : 			Set(HEADER_GC_QUICKSLOT_SWAP,		CNetworkPacketHeaderMap::TPacketType(sizeof(TPacketGCQuickSlotSwap), STATIC_SIZE_PACKET));

  00410	50		 push	 eax
  00411	6a 1e		 push	 30			; 0000001eH
  00413	8b ce		 mov	 ecx, esi
; File D:\Metin2 Server Files\mainline\SRC_2014\Metin2Client\eterLib\NetPacketHeaderMap.h

; 13   : 				isDynamicSizePacket = bFlag;

  00415	c6 45 ec 00	 mov	 BYTE PTR $T78[ebp+4], 0
; File D:\Metin2 Server Files\mainline\SRC_2014\Metin2Client\UserInterface\PythonNetworkStream.cpp

; 84   : 			Set(HEADER_GC_QUICKSLOT_SWAP,		CNetworkPacketHeaderMap::TPacketType(sizeof(TPacketGCQuickSlotSwap), STATIC_SIZE_PACKET));

  00419	e8 00 00 00 00	 call	 ?Set@CNetworkPacketHeaderMap@@QAEXHAAUSPacketType@1@@Z ; CNetworkPacketHeaderMap::Set

; 86   : 			Set(HEADER_GC_WHISPER,				CNetworkPacketHeaderMap::TPacketType(sizeof(TPacketGCWhisper), STATIC_SIZE_PACKET));

  0041e	8d 45 e8	 lea	 eax, DWORD PTR $T77[ebp]
; File D:\Metin2 Server Files\mainline\SRC_2014\Metin2Client\eterLib\NetPacketHeaderMap.h

; 12   : 				iPacketSize = iSize;

  00421	c7 45 e8 1d 00
	00 00		 mov	 DWORD PTR $T77[ebp], 29	; 0000001dH
; File D:\Metin2 Server Files\mainline\SRC_2014\Metin2Client\UserInterface\PythonNetworkStream.cpp

; 86   : 			Set(HEADER_GC_WHISPER,				CNetworkPacketHeaderMap::TPacketType(sizeof(TPacketGCWhisper), STATIC_SIZE_PACKET));

  00428	50		 push	 eax
  00429	6a 22		 push	 34			; 00000022H
  0042b	8b ce		 mov	 ecx, esi
; File D:\Metin2 Server Files\mainline\SRC_2014\Metin2Client\eterLib\NetPacketHeaderMap.h

; 13   : 				isDynamicSizePacket = bFlag;

  0042d	c6 45 ec 00	 mov	 BYTE PTR $T77[ebp+4], 0
; File D:\Metin2 Server Files\mainline\SRC_2014\Metin2Client\UserInterface\PythonNetworkStream.cpp

; 86   : 			Set(HEADER_GC_WHISPER,				CNetworkPacketHeaderMap::TPacketType(sizeof(TPacketGCWhisper), STATIC_SIZE_PACKET));

  00431	e8 00 00 00 00	 call	 ?Set@CNetworkPacketHeaderMap@@QAEXHAAUSPacketType@1@@Z ; CNetworkPacketHeaderMap::Set

; 88   : 			Set(HEADER_GC_CHARACTER_POSITION,	CNetworkPacketHeaderMap::TPacketType(sizeof(TPacketGCPosition), STATIC_SIZE_PACKET));

  00436	8d 45 e8	 lea	 eax, DWORD PTR $T76[ebp]
; File D:\Metin2 Server Files\mainline\SRC_2014\Metin2Client\eterLib\NetPacketHeaderMap.h

; 12   : 				iPacketSize = iSize;

  00439	c7 45 e8 06 00
	00 00		 mov	 DWORD PTR $T76[ebp], 6
; File D:\Metin2 Server Files\mainline\SRC_2014\Metin2Client\UserInterface\PythonNetworkStream.cpp

; 88   : 			Set(HEADER_GC_CHARACTER_POSITION,	CNetworkPacketHeaderMap::TPacketType(sizeof(TPacketGCPosition), STATIC_SIZE_PACKET));

  00440	50		 push	 eax
  00441	6a 2b		 push	 43			; 0000002bH
  00443	8b ce		 mov	 ecx, esi
; File D:\Metin2 Server Files\mainline\SRC_2014\Metin2Client\eterLib\NetPacketHeaderMap.h

; 13   : 				isDynamicSizePacket = bFlag;

  00445	c6 45 ec 00	 mov	 BYTE PTR $T76[ebp+4], 0
; File D:\Metin2 Server Files\mainline\SRC_2014\Metin2Client\UserInterface\PythonNetworkStream.cpp

; 88   : 			Set(HEADER_GC_CHARACTER_POSITION,	CNetworkPacketHeaderMap::TPacketType(sizeof(TPacketGCPosition), STATIC_SIZE_PACKET));

  00449	e8 00 00 00 00	 call	 ?Set@CNetworkPacketHeaderMap@@QAEXHAAUSPacketType@1@@Z ; CNetworkPacketHeaderMap::Set

; 89   : 			Set(HEADER_GC_MOTION,				CNetworkPacketHeaderMap::TPacketType(sizeof(TPacketGCMotion), STATIC_SIZE_PACKET));

  0044e	8d 45 e8	 lea	 eax, DWORD PTR $T75[ebp]
; File D:\Metin2 Server Files\mainline\SRC_2014\Metin2Client\eterLib\NetPacketHeaderMap.h

; 12   : 				iPacketSize = iSize;

  00451	c7 45 e8 0b 00
	00 00		 mov	 DWORD PTR $T75[ebp], 11	; 0000000bH
; File D:\Metin2 Server Files\mainline\SRC_2014\Metin2Client\UserInterface\PythonNetworkStream.cpp

; 89   : 			Set(HEADER_GC_MOTION,				CNetworkPacketHeaderMap::TPacketType(sizeof(TPacketGCMotion), STATIC_SIZE_PACKET));

  00458	50		 push	 eax
  00459	6a 24		 push	 36			; 00000024H
  0045b	8b ce		 mov	 ecx, esi
; File D:\Metin2 Server Files\mainline\SRC_2014\Metin2Client\eterLib\NetPacketHeaderMap.h

; 13   : 				isDynamicSizePacket = bFlag;

  0045d	c6 45 ec 00	 mov	 BYTE PTR $T75[ebp+4], 0
; File D:\Metin2 Server Files\mainline\SRC_2014\Metin2Client\UserInterface\PythonNetworkStream.cpp

; 89   : 			Set(HEADER_GC_MOTION,				CNetworkPacketHeaderMap::TPacketType(sizeof(TPacketGCMotion), STATIC_SIZE_PACKET));

  00461	e8 00 00 00 00	 call	 ?Set@CNetworkPacketHeaderMap@@QAEXHAAUSPacketType@1@@Z ; CNetworkPacketHeaderMap::Set

; 91   : 			Set(HEADER_GC_SHOP,			CNetworkPacketHeaderMap::TPacketType(sizeof(TPacketGCShop), DYNAMIC_SIZE_PACKET));

  00466	8d 45 e8	 lea	 eax, DWORD PTR $T74[ebp]
; File D:\Metin2 Server Files\mainline\SRC_2014\Metin2Client\eterLib\NetPacketHeaderMap.h

; 12   : 				iPacketSize = iSize;

  00469	c7 45 e8 04 00
	00 00		 mov	 DWORD PTR $T74[ebp], 4
; File D:\Metin2 Server Files\mainline\SRC_2014\Metin2Client\UserInterface\PythonNetworkStream.cpp

; 91   : 			Set(HEADER_GC_SHOP,			CNetworkPacketHeaderMap::TPacketType(sizeof(TPacketGCShop), DYNAMIC_SIZE_PACKET));

  00470	50		 push	 eax
  00471	6a 26		 push	 38			; 00000026H
  00473	8b ce		 mov	 ecx, esi
; File D:\Metin2 Server Files\mainline\SRC_2014\Metin2Client\eterLib\NetPacketHeaderMap.h

; 13   : 				isDynamicSizePacket = bFlag;

  00475	c6 45 ec 01	 mov	 BYTE PTR $T74[ebp+4], 1
; File D:\Metin2 Server Files\mainline\SRC_2014\Metin2Client\UserInterface\PythonNetworkStream.cpp

; 91   : 			Set(HEADER_GC_SHOP,			CNetworkPacketHeaderMap::TPacketType(sizeof(TPacketGCShop), DYNAMIC_SIZE_PACKET));

  00479	e8 00 00 00 00	 call	 ?Set@CNetworkPacketHeaderMap@@QAEXHAAUSPacketType@1@@Z ; CNetworkPacketHeaderMap::Set

; 92   : 			Set(HEADER_GC_SHOP_SIGN,	CNetworkPacketHeaderMap::TPacketType(sizeof(TPacketGCShopSign), STATIC_SIZE_PACKET));

  0047e	8d 45 e8	 lea	 eax, DWORD PTR $T73[ebp]
; File D:\Metin2 Server Files\mainline\SRC_2014\Metin2Client\eterLib\NetPacketHeaderMap.h

; 12   : 				iPacketSize = iSize;

  00481	c7 45 e8 26 00
	00 00		 mov	 DWORD PTR $T73[ebp], 38	; 00000026H
; File D:\Metin2 Server Files\mainline\SRC_2014\Metin2Client\UserInterface\PythonNetworkStream.cpp

; 92   : 			Set(HEADER_GC_SHOP_SIGN,	CNetworkPacketHeaderMap::TPacketType(sizeof(TPacketGCShopSign), STATIC_SIZE_PACKET));

  00488	50		 push	 eax
; File D:\Metin2 Server Files\mainline\SRC_2014\Metin2Client\eterLib\NetPacketHeaderMap.h

; 13   : 				isDynamicSizePacket = bFlag;

  00489	c6 45 ec 00	 mov	 BYTE PTR $T73[ebp+4], 0
; File D:\Metin2 Server Files\mainline\SRC_2014\Metin2Client\UserInterface\PythonNetworkStream.cpp

; 92   : 			Set(HEADER_GC_SHOP_SIGN,	CNetworkPacketHeaderMap::TPacketType(sizeof(TPacketGCShopSign), STATIC_SIZE_PACKET));

  0048d	6a 27		 push	 39			; 00000027H
  0048f	8b ce		 mov	 ecx, esi
  00491	e8 00 00 00 00	 call	 ?Set@CNetworkPacketHeaderMap@@QAEXHAAUSPacketType@1@@Z ; CNetworkPacketHeaderMap::Set

; 93   : 			Set(HEADER_GC_EXCHANGE,		CNetworkPacketHeaderMap::TPacketType(sizeof(TPacketGCExchange), STATIC_SIZE_PACKET));

  00496	8d 45 e8	 lea	 eax, DWORD PTR $T72[ebp]
; File D:\Metin2 Server Files\mainline\SRC_2014\Metin2Client\eterLib\NetPacketHeaderMap.h

; 12   : 				iPacketSize = iSize;

  00499	c7 45 e8 2f 00
	00 00		 mov	 DWORD PTR $T72[ebp], 47	; 0000002fH
; File D:\Metin2 Server Files\mainline\SRC_2014\Metin2Client\UserInterface\PythonNetworkStream.cpp

; 93   : 			Set(HEADER_GC_EXCHANGE,		CNetworkPacketHeaderMap::TPacketType(sizeof(TPacketGCExchange), STATIC_SIZE_PACKET));

  004a0	50		 push	 eax
  004a1	6a 2a		 push	 42			; 0000002aH
  004a3	8b ce		 mov	 ecx, esi
; File D:\Metin2 Server Files\mainline\SRC_2014\Metin2Client\eterLib\NetPacketHeaderMap.h

; 13   : 				isDynamicSizePacket = bFlag;

  004a5	c6 45 ec 00	 mov	 BYTE PTR $T72[ebp+4], 0
; File D:\Metin2 Server Files\mainline\SRC_2014\Metin2Client\UserInterface\PythonNetworkStream.cpp

; 93   : 			Set(HEADER_GC_EXCHANGE,		CNetworkPacketHeaderMap::TPacketType(sizeof(TPacketGCExchange), STATIC_SIZE_PACKET));

  004a9	e8 00 00 00 00	 call	 ?Set@CNetworkPacketHeaderMap@@QAEXHAAUSPacketType@1@@Z ; CNetworkPacketHeaderMap::Set

; 95   : 			Set(HEADER_GC_PING,			CNetworkPacketHeaderMap::TPacketType(sizeof(TPacketGCPing), STATIC_SIZE_PACKET));

  004ae	8d 45 e8	 lea	 eax, DWORD PTR $T71[ebp]
; File D:\Metin2 Server Files\mainline\SRC_2014\Metin2Client\eterLib\NetPacketHeaderMap.h

; 12   : 				iPacketSize = iSize;

  004b1	c7 45 e8 01 00
	00 00		 mov	 DWORD PTR $T71[ebp], 1
; File D:\Metin2 Server Files\mainline\SRC_2014\Metin2Client\UserInterface\PythonNetworkStream.cpp

; 95   : 			Set(HEADER_GC_PING,			CNetworkPacketHeaderMap::TPacketType(sizeof(TPacketGCPing), STATIC_SIZE_PACKET));

  004b8	50		 push	 eax
  004b9	6a 2c		 push	 44			; 0000002cH
  004bb	8b ce		 mov	 ecx, esi
; File D:\Metin2 Server Files\mainline\SRC_2014\Metin2Client\eterLib\NetPacketHeaderMap.h

; 13   : 				isDynamicSizePacket = bFlag;

  004bd	c6 45 ec 00	 mov	 BYTE PTR $T71[ebp+4], 0
; File D:\Metin2 Server Files\mainline\SRC_2014\Metin2Client\UserInterface\PythonNetworkStream.cpp

; 95   : 			Set(HEADER_GC_PING,			CNetworkPacketHeaderMap::TPacketType(sizeof(TPacketGCPing), STATIC_SIZE_PACKET));

  004c1	e8 00 00 00 00	 call	 ?Set@CNetworkPacketHeaderMap@@QAEXHAAUSPacketType@1@@Z ; CNetworkPacketHeaderMap::Set

; 97   : 			Set(HEADER_GC_SCRIPT,			CNetworkPacketHeaderMap::TPacketType(sizeof(TPacketGCScript), DYNAMIC_SIZE_PACKET));

  004c6	8d 45 e8	 lea	 eax, DWORD PTR $T70[ebp]
; File D:\Metin2 Server Files\mainline\SRC_2014\Metin2Client\eterLib\NetPacketHeaderMap.h

; 12   : 				iPacketSize = iSize;

  004c9	c7 45 e8 06 00
	00 00		 mov	 DWORD PTR $T70[ebp], 6
; File D:\Metin2 Server Files\mainline\SRC_2014\Metin2Client\UserInterface\PythonNetworkStream.cpp

; 97   : 			Set(HEADER_GC_SCRIPT,			CNetworkPacketHeaderMap::TPacketType(sizeof(TPacketGCScript), DYNAMIC_SIZE_PACKET));

  004d0	50		 push	 eax
  004d1	6a 2d		 push	 45			; 0000002dH
  004d3	8b ce		 mov	 ecx, esi
; File D:\Metin2 Server Files\mainline\SRC_2014\Metin2Client\eterLib\NetPacketHeaderMap.h

; 13   : 				isDynamicSizePacket = bFlag;

  004d5	c6 45 ec 01	 mov	 BYTE PTR $T70[ebp+4], 1
; File D:\Metin2 Server Files\mainline\SRC_2014\Metin2Client\UserInterface\PythonNetworkStream.cpp

; 97   : 			Set(HEADER_GC_SCRIPT,			CNetworkPacketHeaderMap::TPacketType(sizeof(TPacketGCScript), DYNAMIC_SIZE_PACKET));

  004d9	e8 00 00 00 00	 call	 ?Set@CNetworkPacketHeaderMap@@QAEXHAAUSPacketType@1@@Z ; CNetworkPacketHeaderMap::Set

; 98   : 			Set(HEADER_GC_QUEST_CONFIRM,	CNetworkPacketHeaderMap::TPacketType(sizeof(TPacketGCQuestConfirm), STATIC_SIZE_PACKET));

  004de	8d 45 e8	 lea	 eax, DWORD PTR $T69[ebp]
; File D:\Metin2 Server Files\mainline\SRC_2014\Metin2Client\eterLib\NetPacketHeaderMap.h

; 12   : 				iPacketSize = iSize;

  004e1	c7 45 e8 4a 00
	00 00		 mov	 DWORD PTR $T69[ebp], 74	; 0000004aH
; File D:\Metin2 Server Files\mainline\SRC_2014\Metin2Client\UserInterface\PythonNetworkStream.cpp

; 98   : 			Set(HEADER_GC_QUEST_CONFIRM,	CNetworkPacketHeaderMap::TPacketType(sizeof(TPacketGCQuestConfirm), STATIC_SIZE_PACKET));

  004e8	50		 push	 eax
  004e9	6a 2e		 push	 46			; 0000002eH
  004eb	8b ce		 mov	 ecx, esi
; File D:\Metin2 Server Files\mainline\SRC_2014\Metin2Client\eterLib\NetPacketHeaderMap.h

; 13   : 				isDynamicSizePacket = bFlag;

  004ed	c6 45 ec 00	 mov	 BYTE PTR $T69[ebp+4], 0
; File D:\Metin2 Server Files\mainline\SRC_2014\Metin2Client\UserInterface\PythonNetworkStream.cpp

; 98   : 			Set(HEADER_GC_QUEST_CONFIRM,	CNetworkPacketHeaderMap::TPacketType(sizeof(TPacketGCQuestConfirm), STATIC_SIZE_PACKET));

  004f1	e8 00 00 00 00	 call	 ?Set@CNetworkPacketHeaderMap@@QAEXHAAUSPacketType@1@@Z ; CNetworkPacketHeaderMap::Set

; 100  : 			Set(HEADER_GC_TARGET,		CNetworkPacketHeaderMap::TPacketType(sizeof(TPacketGCTarget), STATIC_SIZE_PACKET));

  004f6	8d 45 e8	 lea	 eax, DWORD PTR $T68[ebp]
; File D:\Metin2 Server Files\mainline\SRC_2014\Metin2Client\eterLib\NetPacketHeaderMap.h

; 12   : 				iPacketSize = iSize;

  004f9	c7 45 e8 06 00
	00 00		 mov	 DWORD PTR $T68[ebp], 6
; File D:\Metin2 Server Files\mainline\SRC_2014\Metin2Client\UserInterface\PythonNetworkStream.cpp

; 100  : 			Set(HEADER_GC_TARGET,		CNetworkPacketHeaderMap::TPacketType(sizeof(TPacketGCTarget), STATIC_SIZE_PACKET));

  00500	50		 push	 eax
  00501	6a 3f		 push	 63			; 0000003fH
  00503	8b ce		 mov	 ecx, esi
; File D:\Metin2 Server Files\mainline\SRC_2014\Metin2Client\eterLib\NetPacketHeaderMap.h

; 13   : 				isDynamicSizePacket = bFlag;

  00505	c6 45 ec 00	 mov	 BYTE PTR $T68[ebp+4], 0
; File D:\Metin2 Server Files\mainline\SRC_2014\Metin2Client\UserInterface\PythonNetworkStream.cpp

; 100  : 			Set(HEADER_GC_TARGET,		CNetworkPacketHeaderMap::TPacketType(sizeof(TPacketGCTarget), STATIC_SIZE_PACKET));

  00509	e8 00 00 00 00	 call	 ?Set@CNetworkPacketHeaderMap@@QAEXHAAUSPacketType@1@@Z ; CNetworkPacketHeaderMap::Set

; 101  : 			Set(HEADER_GC_MOUNT,		CNetworkPacketHeaderMap::TPacketType(sizeof(TPacketGCMount), STATIC_SIZE_PACKET));

  0050e	8d 45 e8	 lea	 eax, DWORD PTR $T67[ebp]
; File D:\Metin2 Server Files\mainline\SRC_2014\Metin2Client\eterLib\NetPacketHeaderMap.h

; 12   : 				iPacketSize = iSize;

  00511	c7 45 e8 12 00
	00 00		 mov	 DWORD PTR $T67[ebp], 18	; 00000012H
; File D:\Metin2 Server Files\mainline\SRC_2014\Metin2Client\UserInterface\PythonNetworkStream.cpp

; 101  : 			Set(HEADER_GC_MOUNT,		CNetworkPacketHeaderMap::TPacketType(sizeof(TPacketGCMount), STATIC_SIZE_PACKET));

  00518	50		 push	 eax
  00519	6a 3d		 push	 61			; 0000003dH
  0051b	8b ce		 mov	 ecx, esi
; File D:\Metin2 Server Files\mainline\SRC_2014\Metin2Client\eterLib\NetPacketHeaderMap.h

; 13   : 				isDynamicSizePacket = bFlag;

  0051d	c6 45 ec 00	 mov	 BYTE PTR $T67[ebp+4], 0
; File D:\Metin2 Server Files\mainline\SRC_2014\Metin2Client\UserInterface\PythonNetworkStream.cpp

; 101  : 			Set(HEADER_GC_MOUNT,		CNetworkPacketHeaderMap::TPacketType(sizeof(TPacketGCMount), STATIC_SIZE_PACKET));

  00521	e8 00 00 00 00	 call	 ?Set@CNetworkPacketHeaderMap@@QAEXHAAUSPacketType@1@@Z ; CNetworkPacketHeaderMap::Set

; 103  : 			Set(HEADER_GC_CHANGE_SPEED,	CNetworkPacketHeaderMap::TPacketType(sizeof(TPacketGCChangeSpeed), STATIC_SIZE_PACKET));

  00526	8d 45 e8	 lea	 eax, DWORD PTR $T66[ebp]
; File D:\Metin2 Server Files\mainline\SRC_2014\Metin2Client\eterLib\NetPacketHeaderMap.h

; 12   : 				iPacketSize = iSize;

  00529	c7 45 e8 07 00
	00 00		 mov	 DWORD PTR $T66[ebp], 7
; File D:\Metin2 Server Files\mainline\SRC_2014\Metin2Client\UserInterface\PythonNetworkStream.cpp

; 103  : 			Set(HEADER_GC_CHANGE_SPEED,	CNetworkPacketHeaderMap::TPacketType(sizeof(TPacketGCChangeSpeed), STATIC_SIZE_PACKET));

  00530	50		 push	 eax
  00531	6a 12		 push	 18			; 00000012H
  00533	8b ce		 mov	 ecx, esi
; File D:\Metin2 Server Files\mainline\SRC_2014\Metin2Client\eterLib\NetPacketHeaderMap.h

; 13   : 				isDynamicSizePacket = bFlag;

  00535	c6 45 ec 00	 mov	 BYTE PTR $T66[ebp+4], 0
; File D:\Metin2 Server Files\mainline\SRC_2014\Metin2Client\UserInterface\PythonNetworkStream.cpp

; 103  : 			Set(HEADER_GC_CHANGE_SPEED,	CNetworkPacketHeaderMap::TPacketType(sizeof(TPacketGCChangeSpeed), STATIC_SIZE_PACKET));

  00539	e8 00 00 00 00	 call	 ?Set@CNetworkPacketHeaderMap@@QAEXHAAUSPacketType@1@@Z ; CNetworkPacketHeaderMap::Set

; 105  : 			Set(HEADER_GC_HANDSHAKE,	CNetworkPacketHeaderMap::TPacketType(sizeof(TPacketGCHandshake), STATIC_SIZE_PACKET));

  0053e	8d 45 e8	 lea	 eax, DWORD PTR $T65[ebp]
; File D:\Metin2 Server Files\mainline\SRC_2014\Metin2Client\eterLib\NetPacketHeaderMap.h

; 12   : 				iPacketSize = iSize;

  00541	c7 45 e8 0d 00
	00 00		 mov	 DWORD PTR $T65[ebp], 13	; 0000000dH
; File D:\Metin2 Server Files\mainline\SRC_2014\Metin2Client\UserInterface\PythonNetworkStream.cpp

; 105  : 			Set(HEADER_GC_HANDSHAKE,	CNetworkPacketHeaderMap::TPacketType(sizeof(TPacketGCHandshake), STATIC_SIZE_PACKET));

  00548	50		 push	 eax
  00549	68 ff 00 00 00	 push	 255			; 000000ffH
  0054e	8b ce		 mov	 ecx, esi
; File D:\Metin2 Server Files\mainline\SRC_2014\Metin2Client\eterLib\NetPacketHeaderMap.h

; 13   : 				isDynamicSizePacket = bFlag;

  00550	c6 45 ec 00	 mov	 BYTE PTR $T65[ebp+4], 0
; File D:\Metin2 Server Files\mainline\SRC_2014\Metin2Client\UserInterface\PythonNetworkStream.cpp

; 105  : 			Set(HEADER_GC_HANDSHAKE,	CNetworkPacketHeaderMap::TPacketType(sizeof(TPacketGCHandshake), STATIC_SIZE_PACKET));

  00554	e8 00 00 00 00	 call	 ?Set@CNetworkPacketHeaderMap@@QAEXHAAUSPacketType@1@@Z ; CNetworkPacketHeaderMap::Set

; 106  : 			Set(HEADER_GC_HANDSHAKE_OK,	CNetworkPacketHeaderMap::TPacketType(sizeof(TPacketGCBlank), STATIC_SIZE_PACKET));

  00559	8d 45 e8	 lea	 eax, DWORD PTR $T64[ebp]
; File D:\Metin2 Server Files\mainline\SRC_2014\Metin2Client\eterLib\NetPacketHeaderMap.h

; 12   : 				iPacketSize = iSize;

  0055c	c7 45 e8 01 00
	00 00		 mov	 DWORD PTR $T64[ebp], 1
; File D:\Metin2 Server Files\mainline\SRC_2014\Metin2Client\UserInterface\PythonNetworkStream.cpp

; 106  : 			Set(HEADER_GC_HANDSHAKE_OK,	CNetworkPacketHeaderMap::TPacketType(sizeof(TPacketGCBlank), STATIC_SIZE_PACKET));

  00563	50		 push	 eax
  00564	68 fc 00 00 00	 push	 252			; 000000fcH
  00569	8b ce		 mov	 ecx, esi
; File D:\Metin2 Server Files\mainline\SRC_2014\Metin2Client\eterLib\NetPacketHeaderMap.h

; 13   : 				isDynamicSizePacket = bFlag;

  0056b	c6 45 ec 00	 mov	 BYTE PTR $T64[ebp+4], 0
; File D:\Metin2 Server Files\mainline\SRC_2014\Metin2Client\UserInterface\PythonNetworkStream.cpp

; 106  : 			Set(HEADER_GC_HANDSHAKE_OK,	CNetworkPacketHeaderMap::TPacketType(sizeof(TPacketGCBlank), STATIC_SIZE_PACKET));

  0056f	e8 00 00 00 00	 call	 ?Set@CNetworkPacketHeaderMap@@QAEXHAAUSPacketType@1@@Z ; CNetworkPacketHeaderMap::Set

; 107  : 			Set(HEADER_GC_BINDUDP,		CNetworkPacketHeaderMap::TPacketType(sizeof(TPacketGCBindUDP), STATIC_SIZE_PACKET));

  00574	8d 45 e8	 lea	 eax, DWORD PTR $T63[ebp]
; File D:\Metin2 Server Files\mainline\SRC_2014\Metin2Client\eterLib\NetPacketHeaderMap.h

; 12   : 				iPacketSize = iSize;

  00577	c7 45 e8 07 00
	00 00		 mov	 DWORD PTR $T63[ebp], 7
; File D:\Metin2 Server Files\mainline\SRC_2014\Metin2Client\UserInterface\PythonNetworkStream.cpp

; 107  : 			Set(HEADER_GC_BINDUDP,		CNetworkPacketHeaderMap::TPacketType(sizeof(TPacketGCBindUDP), STATIC_SIZE_PACKET));

  0057e	50		 push	 eax
  0057f	68 fe 00 00 00	 push	 254			; 000000feH
  00584	8b ce		 mov	 ecx, esi
; File D:\Metin2 Server Files\mainline\SRC_2014\Metin2Client\eterLib\NetPacketHeaderMap.h

; 13   : 				isDynamicSizePacket = bFlag;

  00586	c6 45 ec 00	 mov	 BYTE PTR $T63[ebp+4], 0
; File D:\Metin2 Server Files\mainline\SRC_2014\Metin2Client\UserInterface\PythonNetworkStream.cpp

; 107  : 			Set(HEADER_GC_BINDUDP,		CNetworkPacketHeaderMap::TPacketType(sizeof(TPacketGCBindUDP), STATIC_SIZE_PACKET));

  0058a	e8 00 00 00 00	 call	 ?Set@CNetworkPacketHeaderMap@@QAEXHAAUSPacketType@1@@Z ; CNetworkPacketHeaderMap::Set

; 108  : 			Set(HEADER_GC_OWNERSHIP,	CNetworkPacketHeaderMap::TPacketType(sizeof(TPacketGCOwnership), STATIC_SIZE_PACKET));

  0058f	8d 45 e8	 lea	 eax, DWORD PTR $T62[ebp]
; File D:\Metin2 Server Files\mainline\SRC_2014\Metin2Client\eterLib\NetPacketHeaderMap.h

; 12   : 				iPacketSize = iSize;

  00592	c7 45 e8 09 00
	00 00		 mov	 DWORD PTR $T62[ebp], 9
; File D:\Metin2 Server Files\mainline\SRC_2014\Metin2Client\UserInterface\PythonNetworkStream.cpp

; 108  : 			Set(HEADER_GC_OWNERSHIP,	CNetworkPacketHeaderMap::TPacketType(sizeof(TPacketGCOwnership), STATIC_SIZE_PACKET));

  00599	50		 push	 eax
  0059a	6a 3e		 push	 62			; 0000003eH
  0059c	8b ce		 mov	 ecx, esi
; File D:\Metin2 Server Files\mainline\SRC_2014\Metin2Client\eterLib\NetPacketHeaderMap.h

; 13   : 				isDynamicSizePacket = bFlag;

  0059e	c6 45 ec 00	 mov	 BYTE PTR $T62[ebp+4], 0
; File D:\Metin2 Server Files\mainline\SRC_2014\Metin2Client\UserInterface\PythonNetworkStream.cpp

; 108  : 			Set(HEADER_GC_OWNERSHIP,	CNetworkPacketHeaderMap::TPacketType(sizeof(TPacketGCOwnership), STATIC_SIZE_PACKET));

  005a2	e8 00 00 00 00	 call	 ?Set@CNetworkPacketHeaderMap@@QAEXHAAUSPacketType@1@@Z ; CNetworkPacketHeaderMap::Set
; File D:\Metin2 Server Files\mainline\SRC_2014\Metin2Client\eterLib\NetPacketHeaderMap.h

; 12   : 				iPacketSize = iSize;

  005a7	c7 45 e8 0a 00
	00 00		 mov	 DWORD PTR $T61[ebp], 10	; 0000000aH

; 13   : 				isDynamicSizePacket = bFlag;

  005ae	c6 45 ec 00	 mov	 BYTE PTR $T61[ebp+4], 0
; File D:\Metin2 Server Files\mainline\SRC_2014\Metin2Client\UserInterface\PythonNetworkStream.cpp

; 109  : 			Set(HEADER_GC_CREATE_FLY,	CNetworkPacketHeaderMap::TPacketType(sizeof(TPacketGCCreateFly), STATIC_SIZE_PACKET));

  005b2	8d 45 e8	 lea	 eax, DWORD PTR $T61[ebp]
  005b5	8b ce		 mov	 ecx, esi
  005b7	50		 push	 eax
  005b8	6a 46		 push	 70			; 00000046H
  005ba	e8 00 00 00 00	 call	 ?Set@CNetworkPacketHeaderMap@@QAEXHAAUSPacketType@1@@Z ; CNetworkPacketHeaderMap::Set

; 111  : 			Set(HEADER_GC_KEY_AGREEMENT, CNetworkPacketHeaderMap::TPacketType(sizeof(TPacketKeyAgreement), STATIC_SIZE_PACKET));

  005bf	8d 45 e8	 lea	 eax, DWORD PTR $T60[ebp]
; File D:\Metin2 Server Files\mainline\SRC_2014\Metin2Client\eterLib\NetPacketHeaderMap.h

; 12   : 				iPacketSize = iSize;

  005c2	c7 45 e8 05 01
	00 00		 mov	 DWORD PTR $T60[ebp], 261 ; 00000105H
; File D:\Metin2 Server Files\mainline\SRC_2014\Metin2Client\UserInterface\PythonNetworkStream.cpp

; 111  : 			Set(HEADER_GC_KEY_AGREEMENT, CNetworkPacketHeaderMap::TPacketType(sizeof(TPacketKeyAgreement), STATIC_SIZE_PACKET));

  005c9	50		 push	 eax
  005ca	68 fb 00 00 00	 push	 251			; 000000fbH
  005cf	8b ce		 mov	 ecx, esi
; File D:\Metin2 Server Files\mainline\SRC_2014\Metin2Client\eterLib\NetPacketHeaderMap.h

; 13   : 				isDynamicSizePacket = bFlag;

  005d1	c6 45 ec 00	 mov	 BYTE PTR $T60[ebp+4], 0
; File D:\Metin2 Server Files\mainline\SRC_2014\Metin2Client\UserInterface\PythonNetworkStream.cpp

; 111  : 			Set(HEADER_GC_KEY_AGREEMENT, CNetworkPacketHeaderMap::TPacketType(sizeof(TPacketKeyAgreement), STATIC_SIZE_PACKET));

  005d5	e8 00 00 00 00	 call	 ?Set@CNetworkPacketHeaderMap@@QAEXHAAUSPacketType@1@@Z ; CNetworkPacketHeaderMap::Set

; 112  : 			Set(HEADER_GC_KEY_AGREEMENT_COMPLETED, CNetworkPacketHeaderMap::TPacketType(sizeof(TPacketKeyAgreementCompleted), STATIC_SIZE_PACKET));

  005da	8d 45 e8	 lea	 eax, DWORD PTR $T59[ebp]
; File D:\Metin2 Server Files\mainline\SRC_2014\Metin2Client\eterLib\NetPacketHeaderMap.h

; 12   : 				iPacketSize = iSize;

  005dd	c7 45 e8 04 00
	00 00		 mov	 DWORD PTR $T59[ebp], 4
; File D:\Metin2 Server Files\mainline\SRC_2014\Metin2Client\UserInterface\PythonNetworkStream.cpp

; 112  : 			Set(HEADER_GC_KEY_AGREEMENT_COMPLETED, CNetworkPacketHeaderMap::TPacketType(sizeof(TPacketKeyAgreementCompleted), STATIC_SIZE_PACKET));

  005e4	50		 push	 eax
  005e5	68 fa 00 00 00	 push	 250			; 000000faH
  005ea	8b ce		 mov	 ecx, esi
; File D:\Metin2 Server Files\mainline\SRC_2014\Metin2Client\eterLib\NetPacketHeaderMap.h

; 13   : 				isDynamicSizePacket = bFlag;

  005ec	c6 45 ec 00	 mov	 BYTE PTR $T59[ebp+4], 0
; File D:\Metin2 Server Files\mainline\SRC_2014\Metin2Client\UserInterface\PythonNetworkStream.cpp

; 112  : 			Set(HEADER_GC_KEY_AGREEMENT_COMPLETED, CNetworkPacketHeaderMap::TPacketType(sizeof(TPacketKeyAgreementCompleted), STATIC_SIZE_PACKET));

  005f0	e8 00 00 00 00	 call	 ?Set@CNetworkPacketHeaderMap@@QAEXHAAUSPacketType@1@@Z ; CNetworkPacketHeaderMap::Set

; 114  : 			Set(HEADER_GC_ADD_FLY_TARGETING, CNetworkPacketHeaderMap::TPacketType(sizeof(TPacketGCFlyTargeting), STATIC_SIZE_PACKET));

  005f5	8d 45 e8	 lea	 eax, DWORD PTR $T58[ebp]
; File D:\Metin2 Server Files\mainline\SRC_2014\Metin2Client\eterLib\NetPacketHeaderMap.h

; 12   : 				iPacketSize = iSize;

  005f8	c7 45 e8 11 00
	00 00		 mov	 DWORD PTR $T58[ebp], 17	; 00000011H
; File D:\Metin2 Server Files\mainline\SRC_2014\Metin2Client\UserInterface\PythonNetworkStream.cpp

; 114  : 			Set(HEADER_GC_ADD_FLY_TARGETING, CNetworkPacketHeaderMap::TPacketType(sizeof(TPacketGCFlyTargeting), STATIC_SIZE_PACKET));

  005ff	50		 push	 eax
  00600	6a 45		 push	 69			; 00000045H
  00602	8b ce		 mov	 ecx, esi
; File D:\Metin2 Server Files\mainline\SRC_2014\Metin2Client\eterLib\NetPacketHeaderMap.h

; 13   : 				isDynamicSizePacket = bFlag;

  00604	c6 45 ec 00	 mov	 BYTE PTR $T58[ebp+4], 0
; File D:\Metin2 Server Files\mainline\SRC_2014\Metin2Client\UserInterface\PythonNetworkStream.cpp

; 114  : 			Set(HEADER_GC_ADD_FLY_TARGETING, CNetworkPacketHeaderMap::TPacketType(sizeof(TPacketGCFlyTargeting), STATIC_SIZE_PACKET));

  00608	e8 00 00 00 00	 call	 ?Set@CNetworkPacketHeaderMap@@QAEXHAAUSPacketType@1@@Z ; CNetworkPacketHeaderMap::Set

; 115  : 			Set(HEADER_GC_FLY_TARGETING, CNetworkPacketHeaderMap::TPacketType(sizeof(TPacketGCFlyTargeting), STATIC_SIZE_PACKET));

  0060d	8d 45 e8	 lea	 eax, DWORD PTR $T57[ebp]
; File D:\Metin2 Server Files\mainline\SRC_2014\Metin2Client\eterLib\NetPacketHeaderMap.h

; 12   : 				iPacketSize = iSize;

  00610	c7 45 e8 11 00
	00 00		 mov	 DWORD PTR $T57[ebp], 17	; 00000011H
; File D:\Metin2 Server Files\mainline\SRC_2014\Metin2Client\UserInterface\PythonNetworkStream.cpp

; 115  : 			Set(HEADER_GC_FLY_TARGETING, CNetworkPacketHeaderMap::TPacketType(sizeof(TPacketGCFlyTargeting), STATIC_SIZE_PACKET));

  00617	50		 push	 eax
  00618	6a 47		 push	 71			; 00000047H
  0061a	8b ce		 mov	 ecx, esi
; File D:\Metin2 Server Files\mainline\SRC_2014\Metin2Client\eterLib\NetPacketHeaderMap.h

; 13   : 				isDynamicSizePacket = bFlag;

  0061c	c6 45 ec 00	 mov	 BYTE PTR $T57[ebp+4], 0
; File D:\Metin2 Server Files\mainline\SRC_2014\Metin2Client\UserInterface\PythonNetworkStream.cpp

; 115  : 			Set(HEADER_GC_FLY_TARGETING, CNetworkPacketHeaderMap::TPacketType(sizeof(TPacketGCFlyTargeting), STATIC_SIZE_PACKET));

  00620	e8 00 00 00 00	 call	 ?Set@CNetworkPacketHeaderMap@@QAEXHAAUSPacketType@1@@Z ; CNetworkPacketHeaderMap::Set

; 117  : 			Set(HEADER_GC_PHASE,		CNetworkPacketHeaderMap::TPacketType(sizeof(TPacketGCPhase), STATIC_SIZE_PACKET));

  00625	8d 45 e8	 lea	 eax, DWORD PTR $T56[ebp]
; File D:\Metin2 Server Files\mainline\SRC_2014\Metin2Client\eterLib\NetPacketHeaderMap.h

; 12   : 				iPacketSize = iSize;

  00628	c7 45 e8 02 00
	00 00		 mov	 DWORD PTR $T56[ebp], 2
; File D:\Metin2 Server Files\mainline\SRC_2014\Metin2Client\UserInterface\PythonNetworkStream.cpp

; 117  : 			Set(HEADER_GC_PHASE,		CNetworkPacketHeaderMap::TPacketType(sizeof(TPacketGCPhase), STATIC_SIZE_PACKET));

  0062f	50		 push	 eax
  00630	68 fd 00 00 00	 push	 253			; 000000fdH
  00635	8b ce		 mov	 ecx, esi
; File D:\Metin2 Server Files\mainline\SRC_2014\Metin2Client\eterLib\NetPacketHeaderMap.h

; 13   : 				isDynamicSizePacket = bFlag;

  00637	c6 45 ec 00	 mov	 BYTE PTR $T56[ebp+4], 0
; File D:\Metin2 Server Files\mainline\SRC_2014\Metin2Client\UserInterface\PythonNetworkStream.cpp

; 117  : 			Set(HEADER_GC_PHASE,		CNetworkPacketHeaderMap::TPacketType(sizeof(TPacketGCPhase), STATIC_SIZE_PACKET));

  0063b	e8 00 00 00 00	 call	 ?Set@CNetworkPacketHeaderMap@@QAEXHAAUSPacketType@1@@Z ; CNetworkPacketHeaderMap::Set

; 118  : 			Set(HEADER_GC_SKILL_LEVEL,	CNetworkPacketHeaderMap::TPacketType(sizeof(TPacketGCSkillLevel), STATIC_SIZE_PACKET));

  00640	8d 45 e8	 lea	 eax, DWORD PTR $T55[ebp]
; File D:\Metin2 Server Files\mainline\SRC_2014\Metin2Client\eterLib\NetPacketHeaderMap.h

; 12   : 				iPacketSize = iSize;

  00643	c7 45 e8 00 01
	00 00		 mov	 DWORD PTR $T55[ebp], 256 ; 00000100H
; File D:\Metin2 Server Files\mainline\SRC_2014\Metin2Client\UserInterface\PythonNetworkStream.cpp

; 118  : 			Set(HEADER_GC_SKILL_LEVEL,	CNetworkPacketHeaderMap::TPacketType(sizeof(TPacketGCSkillLevel), STATIC_SIZE_PACKET));

  0064a	50		 push	 eax
  0064b	6a 48		 push	 72			; 00000048H
  0064d	8b ce		 mov	 ecx, esi
; File D:\Metin2 Server Files\mainline\SRC_2014\Metin2Client\eterLib\NetPacketHeaderMap.h

; 13   : 				isDynamicSizePacket = bFlag;

  0064f	c6 45 ec 00	 mov	 BYTE PTR $T55[ebp+4], 0
; File D:\Metin2 Server Files\mainline\SRC_2014\Metin2Client\UserInterface\PythonNetworkStream.cpp

; 118  : 			Set(HEADER_GC_SKILL_LEVEL,	CNetworkPacketHeaderMap::TPacketType(sizeof(TPacketGCSkillLevel), STATIC_SIZE_PACKET));

  00653	e8 00 00 00 00	 call	 ?Set@CNetworkPacketHeaderMap@@QAEXHAAUSPacketType@1@@Z ; CNetworkPacketHeaderMap::Set

; 119  : 			Set(HEADER_GC_SKILL_LEVEL_NEW,	CNetworkPacketHeaderMap::TPacketType(sizeof(TPacketGCSkillLevelNew), STATIC_SIZE_PACKET));

  00658	8d 45 e8	 lea	 eax, DWORD PTR $T54[ebp]
; File D:\Metin2 Server Files\mainline\SRC_2014\Metin2Client\eterLib\NetPacketHeaderMap.h

; 12   : 				iPacketSize = iSize;

  0065b	c7 45 e8 fb 05
	00 00		 mov	 DWORD PTR $T54[ebp], 1531 ; 000005fbH
; File D:\Metin2 Server Files\mainline\SRC_2014\Metin2Client\UserInterface\PythonNetworkStream.cpp

; 119  : 			Set(HEADER_GC_SKILL_LEVEL_NEW,	CNetworkPacketHeaderMap::TPacketType(sizeof(TPacketGCSkillLevelNew), STATIC_SIZE_PACKET));

  00662	50		 push	 eax
  00663	6a 4c		 push	 76			; 0000004cH
  00665	8b ce		 mov	 ecx, esi
; File D:\Metin2 Server Files\mainline\SRC_2014\Metin2Client\eterLib\NetPacketHeaderMap.h

; 13   : 				isDynamicSizePacket = bFlag;

  00667	c6 45 ec 00	 mov	 BYTE PTR $T54[ebp+4], 0
; File D:\Metin2 Server Files\mainline\SRC_2014\Metin2Client\UserInterface\PythonNetworkStream.cpp

; 119  : 			Set(HEADER_GC_SKILL_LEVEL_NEW,	CNetworkPacketHeaderMap::TPacketType(sizeof(TPacketGCSkillLevelNew), STATIC_SIZE_PACKET));

  0066b	e8 00 00 00 00	 call	 ?Set@CNetworkPacketHeaderMap@@QAEXHAAUSPacketType@1@@Z ; CNetworkPacketHeaderMap::Set

; 121  : 			Set(HEADER_GC_MESSENGER,	CNetworkPacketHeaderMap::TPacketType(sizeof(TPacketGCMessenger), DYNAMIC_SIZE_PACKET));

  00670	8d 45 e8	 lea	 eax, DWORD PTR $T53[ebp]
; File D:\Metin2 Server Files\mainline\SRC_2014\Metin2Client\eterLib\NetPacketHeaderMap.h

; 12   : 				iPacketSize = iSize;

  00673	c7 45 e8 04 00
	00 00		 mov	 DWORD PTR $T53[ebp], 4
; File D:\Metin2 Server Files\mainline\SRC_2014\Metin2Client\UserInterface\PythonNetworkStream.cpp

; 121  : 			Set(HEADER_GC_MESSENGER,	CNetworkPacketHeaderMap::TPacketType(sizeof(TPacketGCMessenger), DYNAMIC_SIZE_PACKET));

  0067a	50		 push	 eax
  0067b	6a 4a		 push	 74			; 0000004aH
  0067d	8b ce		 mov	 ecx, esi
; File D:\Metin2 Server Files\mainline\SRC_2014\Metin2Client\eterLib\NetPacketHeaderMap.h

; 13   : 				isDynamicSizePacket = bFlag;

  0067f	c6 45 ec 01	 mov	 BYTE PTR $T53[ebp+4], 1
; File D:\Metin2 Server Files\mainline\SRC_2014\Metin2Client\UserInterface\PythonNetworkStream.cpp

; 121  : 			Set(HEADER_GC_MESSENGER,	CNetworkPacketHeaderMap::TPacketType(sizeof(TPacketGCMessenger), DYNAMIC_SIZE_PACKET));

  00683	e8 00 00 00 00	 call	 ?Set@CNetworkPacketHeaderMap@@QAEXHAAUSPacketType@1@@Z ; CNetworkPacketHeaderMap::Set

; 122  : 			Set(HEADER_GC_GUILD,		CNetworkPacketHeaderMap::TPacketType(sizeof(TPacketGCGuild), DYNAMIC_SIZE_PACKET));

  00688	8d 45 e8	 lea	 eax, DWORD PTR $T52[ebp]
; File D:\Metin2 Server Files\mainline\SRC_2014\Metin2Client\eterLib\NetPacketHeaderMap.h

; 12   : 				iPacketSize = iSize;

  0068b	c7 45 e8 04 00
	00 00		 mov	 DWORD PTR $T52[ebp], 4
; File D:\Metin2 Server Files\mainline\SRC_2014\Metin2Client\UserInterface\PythonNetworkStream.cpp

; 122  : 			Set(HEADER_GC_GUILD,		CNetworkPacketHeaderMap::TPacketType(sizeof(TPacketGCGuild), DYNAMIC_SIZE_PACKET));

  00692	50		 push	 eax
  00693	6a 4b		 push	 75			; 0000004bH
  00695	8b ce		 mov	 ecx, esi
; File D:\Metin2 Server Files\mainline\SRC_2014\Metin2Client\eterLib\NetPacketHeaderMap.h

; 13   : 				isDynamicSizePacket = bFlag;

  00697	c6 45 ec 01	 mov	 BYTE PTR $T52[ebp+4], 1
; File D:\Metin2 Server Files\mainline\SRC_2014\Metin2Client\UserInterface\PythonNetworkStream.cpp

; 122  : 			Set(HEADER_GC_GUILD,		CNetworkPacketHeaderMap::TPacketType(sizeof(TPacketGCGuild), DYNAMIC_SIZE_PACKET));

  0069b	e8 00 00 00 00	 call	 ?Set@CNetworkPacketHeaderMap@@QAEXHAAUSPacketType@1@@Z ; CNetworkPacketHeaderMap::Set

; 124  : 			Set(HEADER_GC_PARTY_INVITE,	CNetworkPacketHeaderMap::TPacketType(sizeof(TPacketGCPartyInvite), STATIC_SIZE_PACKET));

  006a0	8d 45 e8	 lea	 eax, DWORD PTR $T51[ebp]
; File D:\Metin2 Server Files\mainline\SRC_2014\Metin2Client\eterLib\NetPacketHeaderMap.h

; 12   : 				iPacketSize = iSize;

  006a3	c7 45 e8 05 00
	00 00		 mov	 DWORD PTR $T51[ebp], 5
; File D:\Metin2 Server Files\mainline\SRC_2014\Metin2Client\UserInterface\PythonNetworkStream.cpp

; 124  : 			Set(HEADER_GC_PARTY_INVITE,	CNetworkPacketHeaderMap::TPacketType(sizeof(TPacketGCPartyInvite), STATIC_SIZE_PACKET));

  006aa	50		 push	 eax
  006ab	6a 4d		 push	 77			; 0000004dH
  006ad	8b ce		 mov	 ecx, esi
; File D:\Metin2 Server Files\mainline\SRC_2014\Metin2Client\eterLib\NetPacketHeaderMap.h

; 13   : 				isDynamicSizePacket = bFlag;

  006af	c6 45 ec 00	 mov	 BYTE PTR $T51[ebp+4], 0
; File D:\Metin2 Server Files\mainline\SRC_2014\Metin2Client\UserInterface\PythonNetworkStream.cpp

; 124  : 			Set(HEADER_GC_PARTY_INVITE,	CNetworkPacketHeaderMap::TPacketType(sizeof(TPacketGCPartyInvite), STATIC_SIZE_PACKET));

  006b3	e8 00 00 00 00	 call	 ?Set@CNetworkPacketHeaderMap@@QAEXHAAUSPacketType@1@@Z ; CNetworkPacketHeaderMap::Set

; 125  : 			Set(HEADER_GC_PARTY_ADD,	CNetworkPacketHeaderMap::TPacketType(sizeof(TPacketGCPartyAdd), STATIC_SIZE_PACKET));

  006b8	8d 45 e8	 lea	 eax, DWORD PTR $T50[ebp]
; File D:\Metin2 Server Files\mainline\SRC_2014\Metin2Client\eterLib\NetPacketHeaderMap.h

; 12   : 				iPacketSize = iSize;

  006bb	c7 45 e8 1e 00
	00 00		 mov	 DWORD PTR $T50[ebp], 30	; 0000001eH
; File D:\Metin2 Server Files\mainline\SRC_2014\Metin2Client\UserInterface\PythonNetworkStream.cpp

; 125  : 			Set(HEADER_GC_PARTY_ADD,	CNetworkPacketHeaderMap::TPacketType(sizeof(TPacketGCPartyAdd), STATIC_SIZE_PACKET));

  006c2	50		 push	 eax
; File D:\Metin2 Server Files\mainline\SRC_2014\Metin2Client\eterLib\NetPacketHeaderMap.h

; 13   : 				isDynamicSizePacket = bFlag;

  006c3	c6 45 ec 00	 mov	 BYTE PTR $T50[ebp+4], 0
; File D:\Metin2 Server Files\mainline\SRC_2014\Metin2Client\UserInterface\PythonNetworkStream.cpp

; 125  : 			Set(HEADER_GC_PARTY_ADD,	CNetworkPacketHeaderMap::TPacketType(sizeof(TPacketGCPartyAdd), STATIC_SIZE_PACKET));

  006c7	8b ce		 mov	 ecx, esi
  006c9	6a 4e		 push	 78			; 0000004eH
  006cb	e8 00 00 00 00	 call	 ?Set@CNetworkPacketHeaderMap@@QAEXHAAUSPacketType@1@@Z ; CNetworkPacketHeaderMap::Set

; 126  : 			Set(HEADER_GC_PARTY_UPDATE,	CNetworkPacketHeaderMap::TPacketType(sizeof(TPacketGCPartyUpdate), STATIC_SIZE_PACKET));

  006d0	8d 45 e8	 lea	 eax, DWORD PTR $T49[ebp]
; File D:\Metin2 Server Files\mainline\SRC_2014\Metin2Client\eterLib\NetPacketHeaderMap.h

; 12   : 				iPacketSize = iSize;

  006d3	c7 45 e8 15 00
	00 00		 mov	 DWORD PTR $T49[ebp], 21	; 00000015H
; File D:\Metin2 Server Files\mainline\SRC_2014\Metin2Client\UserInterface\PythonNetworkStream.cpp

; 126  : 			Set(HEADER_GC_PARTY_UPDATE,	CNetworkPacketHeaderMap::TPacketType(sizeof(TPacketGCPartyUpdate), STATIC_SIZE_PACKET));

  006da	50		 push	 eax
  006db	6a 4f		 push	 79			; 0000004fH
  006dd	8b ce		 mov	 ecx, esi
; File D:\Metin2 Server Files\mainline\SRC_2014\Metin2Client\eterLib\NetPacketHeaderMap.h

; 13   : 				isDynamicSizePacket = bFlag;

  006df	c6 45 ec 00	 mov	 BYTE PTR $T49[ebp+4], 0
; File D:\Metin2 Server Files\mainline\SRC_2014\Metin2Client\UserInterface\PythonNetworkStream.cpp

; 126  : 			Set(HEADER_GC_PARTY_UPDATE,	CNetworkPacketHeaderMap::TPacketType(sizeof(TPacketGCPartyUpdate), STATIC_SIZE_PACKET));

  006e3	e8 00 00 00 00	 call	 ?Set@CNetworkPacketHeaderMap@@QAEXHAAUSPacketType@1@@Z ; CNetworkPacketHeaderMap::Set

; 127  : 			Set(HEADER_GC_PARTY_REMOVE,	CNetworkPacketHeaderMap::TPacketType(sizeof(TPacketGCPartyRemove), STATIC_SIZE_PACKET));

  006e8	8d 45 e8	 lea	 eax, DWORD PTR $T48[ebp]
; File D:\Metin2 Server Files\mainline\SRC_2014\Metin2Client\eterLib\NetPacketHeaderMap.h

; 12   : 				iPacketSize = iSize;

  006eb	c7 45 e8 05 00
	00 00		 mov	 DWORD PTR $T48[ebp], 5
; File D:\Metin2 Server Files\mainline\SRC_2014\Metin2Client\UserInterface\PythonNetworkStream.cpp

; 127  : 			Set(HEADER_GC_PARTY_REMOVE,	CNetworkPacketHeaderMap::TPacketType(sizeof(TPacketGCPartyRemove), STATIC_SIZE_PACKET));

  006f2	50		 push	 eax
  006f3	6a 50		 push	 80			; 00000050H
  006f5	8b ce		 mov	 ecx, esi
; File D:\Metin2 Server Files\mainline\SRC_2014\Metin2Client\eterLib\NetPacketHeaderMap.h

; 13   : 				isDynamicSizePacket = bFlag;

  006f7	c6 45 ec 00	 mov	 BYTE PTR $T48[ebp+4], 0
; File D:\Metin2 Server Files\mainline\SRC_2014\Metin2Client\UserInterface\PythonNetworkStream.cpp

; 127  : 			Set(HEADER_GC_PARTY_REMOVE,	CNetworkPacketHeaderMap::TPacketType(sizeof(TPacketGCPartyRemove), STATIC_SIZE_PACKET));

  006fb	e8 00 00 00 00	 call	 ?Set@CNetworkPacketHeaderMap@@QAEXHAAUSPacketType@1@@Z ; CNetworkPacketHeaderMap::Set

; 128  : 			Set(HEADER_GC_PARTY_LINK,	CNetworkPacketHeaderMap::TPacketType(sizeof(TPacketGCPartyLink), STATIC_SIZE_PACKET));

  00700	8d 45 e8	 lea	 eax, DWORD PTR $T47[ebp]
; File D:\Metin2 Server Files\mainline\SRC_2014\Metin2Client\eterLib\NetPacketHeaderMap.h

; 12   : 				iPacketSize = iSize;

  00703	c7 45 e8 09 00
	00 00		 mov	 DWORD PTR $T47[ebp], 9
; File D:\Metin2 Server Files\mainline\SRC_2014\Metin2Client\UserInterface\PythonNetworkStream.cpp

; 128  : 			Set(HEADER_GC_PARTY_LINK,	CNetworkPacketHeaderMap::TPacketType(sizeof(TPacketGCPartyLink), STATIC_SIZE_PACKET));

  0070a	50		 push	 eax
  0070b	6a 5b		 push	 91			; 0000005bH
  0070d	8b ce		 mov	 ecx, esi
; File D:\Metin2 Server Files\mainline\SRC_2014\Metin2Client\eterLib\NetPacketHeaderMap.h

; 13   : 				isDynamicSizePacket = bFlag;

  0070f	c6 45 ec 00	 mov	 BYTE PTR $T47[ebp+4], 0
; File D:\Metin2 Server Files\mainline\SRC_2014\Metin2Client\UserInterface\PythonNetworkStream.cpp

; 128  : 			Set(HEADER_GC_PARTY_LINK,	CNetworkPacketHeaderMap::TPacketType(sizeof(TPacketGCPartyLink), STATIC_SIZE_PACKET));

  00713	e8 00 00 00 00	 call	 ?Set@CNetworkPacketHeaderMap@@QAEXHAAUSPacketType@1@@Z ; CNetworkPacketHeaderMap::Set

; 129  : 			Set(HEADER_GC_PARTY_UNLINK,	CNetworkPacketHeaderMap::TPacketType(sizeof(TPacketGCPartyUnlink), STATIC_SIZE_PACKET));

  00718	8d 45 e8	 lea	 eax, DWORD PTR $T46[ebp]
; File D:\Metin2 Server Files\mainline\SRC_2014\Metin2Client\eterLib\NetPacketHeaderMap.h

; 12   : 				iPacketSize = iSize;

  0071b	c7 45 e8 09 00
	00 00		 mov	 DWORD PTR $T46[ebp], 9
; File D:\Metin2 Server Files\mainline\SRC_2014\Metin2Client\UserInterface\PythonNetworkStream.cpp

; 129  : 			Set(HEADER_GC_PARTY_UNLINK,	CNetworkPacketHeaderMap::TPacketType(sizeof(TPacketGCPartyUnlink), STATIC_SIZE_PACKET));

  00722	50		 push	 eax
  00723	6a 5c		 push	 92			; 0000005cH
  00725	8b ce		 mov	 ecx, esi
; File D:\Metin2 Server Files\mainline\SRC_2014\Metin2Client\eterLib\NetPacketHeaderMap.h

; 13   : 				isDynamicSizePacket = bFlag;

  00727	c6 45 ec 00	 mov	 BYTE PTR $T46[ebp+4], 0
; File D:\Metin2 Server Files\mainline\SRC_2014\Metin2Client\UserInterface\PythonNetworkStream.cpp

; 129  : 			Set(HEADER_GC_PARTY_UNLINK,	CNetworkPacketHeaderMap::TPacketType(sizeof(TPacketGCPartyUnlink), STATIC_SIZE_PACKET));

  0072b	e8 00 00 00 00	 call	 ?Set@CNetworkPacketHeaderMap@@QAEXHAAUSPacketType@1@@Z ; CNetworkPacketHeaderMap::Set

; 130  : 			Set(HEADER_GC_PARTY_PARAMETER,	CNetworkPacketHeaderMap::TPacketType(sizeof(TPacketGCPartyParameter), STATIC_SIZE_PACKET));

  00730	8d 45 e8	 lea	 eax, DWORD PTR $T45[ebp]
; File D:\Metin2 Server Files\mainline\SRC_2014\Metin2Client\eterLib\NetPacketHeaderMap.h

; 12   : 				iPacketSize = iSize;

  00733	c7 45 e8 02 00
	00 00		 mov	 DWORD PTR $T45[ebp], 2
; File D:\Metin2 Server Files\mainline\SRC_2014\Metin2Client\UserInterface\PythonNetworkStream.cpp

; 130  : 			Set(HEADER_GC_PARTY_PARAMETER,	CNetworkPacketHeaderMap::TPacketType(sizeof(TPacketGCPartyParameter), STATIC_SIZE_PACKET));

  0073a	50		 push	 eax
  0073b	6a 53		 push	 83			; 00000053H
  0073d	8b ce		 mov	 ecx, esi
; File D:\Metin2 Server Files\mainline\SRC_2014\Metin2Client\eterLib\NetPacketHeaderMap.h

; 13   : 				isDynamicSizePacket = bFlag;

  0073f	c6 45 ec 00	 mov	 BYTE PTR $T45[ebp+4], 0
; File D:\Metin2 Server Files\mainline\SRC_2014\Metin2Client\UserInterface\PythonNetworkStream.cpp

; 130  : 			Set(HEADER_GC_PARTY_PARAMETER,	CNetworkPacketHeaderMap::TPacketType(sizeof(TPacketGCPartyParameter), STATIC_SIZE_PACKET));

  00743	e8 00 00 00 00	 call	 ?Set@CNetworkPacketHeaderMap@@QAEXHAAUSPacketType@1@@Z ; CNetworkPacketHeaderMap::Set

; 132  : 			Set(HEADER_GC_SAFEBOX_SET,	CNetworkPacketHeaderMap::TPacketType(sizeof(TPacketGCItemSet), STATIC_SIZE_PACKET));

  00748	8d 45 e8	 lea	 eax, DWORD PTR $T44[ebp]
; File D:\Metin2 Server Files\mainline\SRC_2014\Metin2Client\eterLib\NetPacketHeaderMap.h

; 12   : 				iPacketSize = iSize;

  0074b	c7 45 e8 2a 00
	00 00		 mov	 DWORD PTR $T44[ebp], 42	; 0000002aH
; File D:\Metin2 Server Files\mainline\SRC_2014\Metin2Client\UserInterface\PythonNetworkStream.cpp

; 132  : 			Set(HEADER_GC_SAFEBOX_SET,	CNetworkPacketHeaderMap::TPacketType(sizeof(TPacketGCItemSet), STATIC_SIZE_PACKET));

  00752	50		 push	 eax
  00753	6a 55		 push	 85			; 00000055H
  00755	8b ce		 mov	 ecx, esi
; File D:\Metin2 Server Files\mainline\SRC_2014\Metin2Client\eterLib\NetPacketHeaderMap.h

; 13   : 				isDynamicSizePacket = bFlag;

  00757	c6 45 ec 00	 mov	 BYTE PTR $T44[ebp+4], 0
; File D:\Metin2 Server Files\mainline\SRC_2014\Metin2Client\UserInterface\PythonNetworkStream.cpp

; 132  : 			Set(HEADER_GC_SAFEBOX_SET,	CNetworkPacketHeaderMap::TPacketType(sizeof(TPacketGCItemSet), STATIC_SIZE_PACKET));

  0075b	e8 00 00 00 00	 call	 ?Set@CNetworkPacketHeaderMap@@QAEXHAAUSPacketType@1@@Z ; CNetworkPacketHeaderMap::Set

; 133  : 			Set(HEADER_GC_SAFEBOX_DEL,	CNetworkPacketHeaderMap::TPacketType(sizeof(TPacketGCItemDel), STATIC_SIZE_PACKET));

  00760	8d 45 e8	 lea	 eax, DWORD PTR $T43[ebp]
; File D:\Metin2 Server Files\mainline\SRC_2014\Metin2Client\eterLib\NetPacketHeaderMap.h

; 12   : 				iPacketSize = iSize;

  00763	c7 45 e8 02 00
	00 00		 mov	 DWORD PTR $T43[ebp], 2
; File D:\Metin2 Server Files\mainline\SRC_2014\Metin2Client\UserInterface\PythonNetworkStream.cpp

; 133  : 			Set(HEADER_GC_SAFEBOX_DEL,	CNetworkPacketHeaderMap::TPacketType(sizeof(TPacketGCItemDel), STATIC_SIZE_PACKET));

  0076a	50		 push	 eax
  0076b	6a 56		 push	 86			; 00000056H
  0076d	8b ce		 mov	 ecx, esi
; File D:\Metin2 Server Files\mainline\SRC_2014\Metin2Client\eterLib\NetPacketHeaderMap.h

; 13   : 				isDynamicSizePacket = bFlag;

  0076f	c6 45 ec 00	 mov	 BYTE PTR $T43[ebp+4], 0
; File D:\Metin2 Server Files\mainline\SRC_2014\Metin2Client\UserInterface\PythonNetworkStream.cpp

; 133  : 			Set(HEADER_GC_SAFEBOX_DEL,	CNetworkPacketHeaderMap::TPacketType(sizeof(TPacketGCItemDel), STATIC_SIZE_PACKET));

  00773	e8 00 00 00 00	 call	 ?Set@CNetworkPacketHeaderMap@@QAEXHAAUSPacketType@1@@Z ; CNetworkPacketHeaderMap::Set

; 134  : 			Set(HEADER_GC_SAFEBOX_WRONG_PASSWORD,	CNetworkPacketHeaderMap::TPacketType(sizeof(TPacketGCSafeboxWrongPassword), STATIC_SIZE_PACKET));

  00778	8d 45 e8	 lea	 eax, DWORD PTR $T42[ebp]
; File D:\Metin2 Server Files\mainline\SRC_2014\Metin2Client\eterLib\NetPacketHeaderMap.h

; 12   : 				iPacketSize = iSize;

  0077b	c7 45 e8 01 00
	00 00		 mov	 DWORD PTR $T42[ebp], 1
; File D:\Metin2 Server Files\mainline\SRC_2014\Metin2Client\UserInterface\PythonNetworkStream.cpp

; 134  : 			Set(HEADER_GC_SAFEBOX_WRONG_PASSWORD,	CNetworkPacketHeaderMap::TPacketType(sizeof(TPacketGCSafeboxWrongPassword), STATIC_SIZE_PACKET));

  00782	50		 push	 eax
  00783	6a 57		 push	 87			; 00000057H
  00785	8b ce		 mov	 ecx, esi
; File D:\Metin2 Server Files\mainline\SRC_2014\Metin2Client\eterLib\NetPacketHeaderMap.h

; 13   : 				isDynamicSizePacket = bFlag;

  00787	c6 45 ec 00	 mov	 BYTE PTR $T42[ebp+4], 0
; File D:\Metin2 Server Files\mainline\SRC_2014\Metin2Client\UserInterface\PythonNetworkStream.cpp

; 134  : 			Set(HEADER_GC_SAFEBOX_WRONG_PASSWORD,	CNetworkPacketHeaderMap::TPacketType(sizeof(TPacketGCSafeboxWrongPassword), STATIC_SIZE_PACKET));

  0078b	e8 00 00 00 00	 call	 ?Set@CNetworkPacketHeaderMap@@QAEXHAAUSPacketType@1@@Z ; CNetworkPacketHeaderMap::Set

; 135  : 			Set(HEADER_GC_SAFEBOX_SIZE,	CNetworkPacketHeaderMap::TPacketType(sizeof(TPacketGCSafeboxSize), STATIC_SIZE_PACKET));

  00790	8d 45 e8	 lea	 eax, DWORD PTR $T41[ebp]
; File D:\Metin2 Server Files\mainline\SRC_2014\Metin2Client\eterLib\NetPacketHeaderMap.h

; 12   : 				iPacketSize = iSize;

  00793	c7 45 e8 02 00
	00 00		 mov	 DWORD PTR $T41[ebp], 2
; File D:\Metin2 Server Files\mainline\SRC_2014\Metin2Client\UserInterface\PythonNetworkStream.cpp

; 135  : 			Set(HEADER_GC_SAFEBOX_SIZE,	CNetworkPacketHeaderMap::TPacketType(sizeof(TPacketGCSafeboxSize), STATIC_SIZE_PACKET));

  0079a	50		 push	 eax
  0079b	6a 58		 push	 88			; 00000058H
  0079d	8b ce		 mov	 ecx, esi
; File D:\Metin2 Server Files\mainline\SRC_2014\Metin2Client\eterLib\NetPacketHeaderMap.h

; 13   : 				isDynamicSizePacket = bFlag;

  0079f	c6 45 ec 00	 mov	 BYTE PTR $T41[ebp+4], 0
; File D:\Metin2 Server Files\mainline\SRC_2014\Metin2Client\UserInterface\PythonNetworkStream.cpp

; 135  : 			Set(HEADER_GC_SAFEBOX_SIZE,	CNetworkPacketHeaderMap::TPacketType(sizeof(TPacketGCSafeboxSize), STATIC_SIZE_PACKET));

  007a3	e8 00 00 00 00	 call	 ?Set@CNetworkPacketHeaderMap@@QAEXHAAUSPacketType@1@@Z ; CNetworkPacketHeaderMap::Set

; 136  : 			Set(HEADER_GC_SAFEBOX_MONEY_CHANGE,	CNetworkPacketHeaderMap::TPacketType(sizeof(TPacketGCSafeboxMoneyChange), STATIC_SIZE_PACKET));

  007a8	8d 45 e8	 lea	 eax, DWORD PTR $T40[ebp]
; File D:\Metin2 Server Files\mainline\SRC_2014\Metin2Client\eterLib\NetPacketHeaderMap.h

; 12   : 				iPacketSize = iSize;

  007ab	c7 45 e8 05 00
	00 00		 mov	 DWORD PTR $T40[ebp], 5
; File D:\Metin2 Server Files\mainline\SRC_2014\Metin2Client\UserInterface\PythonNetworkStream.cpp

; 136  : 			Set(HEADER_GC_SAFEBOX_MONEY_CHANGE,	CNetworkPacketHeaderMap::TPacketType(sizeof(TPacketGCSafeboxMoneyChange), STATIC_SIZE_PACKET));

  007b2	50		 push	 eax
  007b3	6a 54		 push	 84			; 00000054H
  007b5	8b ce		 mov	 ecx, esi
; File D:\Metin2 Server Files\mainline\SRC_2014\Metin2Client\eterLib\NetPacketHeaderMap.h

; 13   : 				isDynamicSizePacket = bFlag;

  007b7	c6 45 ec 00	 mov	 BYTE PTR $T40[ebp+4], 0
; File D:\Metin2 Server Files\mainline\SRC_2014\Metin2Client\UserInterface\PythonNetworkStream.cpp

; 136  : 			Set(HEADER_GC_SAFEBOX_MONEY_CHANGE,	CNetworkPacketHeaderMap::TPacketType(sizeof(TPacketGCSafeboxMoneyChange), STATIC_SIZE_PACKET));

  007bb	e8 00 00 00 00	 call	 ?Set@CNetworkPacketHeaderMap@@QAEXHAAUSPacketType@1@@Z ; CNetworkPacketHeaderMap::Set

; 138  : 			Set(HEADER_GC_FISHING,	CNetworkPacketHeaderMap::TPacketType(sizeof(TPacketGCFishing), STATIC_SIZE_PACKET));

  007c0	8d 45 e8	 lea	 eax, DWORD PTR $T39[ebp]
; File D:\Metin2 Server Files\mainline\SRC_2014\Metin2Client\eterLib\NetPacketHeaderMap.h

; 12   : 				iPacketSize = iSize;

  007c3	c7 45 e8 07 00
	00 00		 mov	 DWORD PTR $T39[ebp], 7
; File D:\Metin2 Server Files\mainline\SRC_2014\Metin2Client\UserInterface\PythonNetworkStream.cpp

; 138  : 			Set(HEADER_GC_FISHING,	CNetworkPacketHeaderMap::TPacketType(sizeof(TPacketGCFishing), STATIC_SIZE_PACKET));

  007ca	50		 push	 eax
  007cb	6a 59		 push	 89			; 00000059H
  007cd	8b ce		 mov	 ecx, esi
; File D:\Metin2 Server Files\mainline\SRC_2014\Metin2Client\eterLib\NetPacketHeaderMap.h

; 13   : 				isDynamicSizePacket = bFlag;

  007cf	c6 45 ec 00	 mov	 BYTE PTR $T39[ebp+4], 0
; File D:\Metin2 Server Files\mainline\SRC_2014\Metin2Client\UserInterface\PythonNetworkStream.cpp

; 138  : 			Set(HEADER_GC_FISHING,	CNetworkPacketHeaderMap::TPacketType(sizeof(TPacketGCFishing), STATIC_SIZE_PACKET));

  007d3	e8 00 00 00 00	 call	 ?Set@CNetworkPacketHeaderMap@@QAEXHAAUSPacketType@1@@Z ; CNetworkPacketHeaderMap::Set
; File D:\Metin2 Server Files\mainline\SRC_2014\Metin2Client\eterLib\NetPacketHeaderMap.h

; 12   : 				iPacketSize = iSize;

  007d8	c7 45 e8 04 00
	00 00		 mov	 DWORD PTR $T38[ebp], 4
; File D:\Metin2 Server Files\mainline\SRC_2014\Metin2Client\UserInterface\PythonNetworkStream.cpp

; 139  : 			Set(HEADER_GC_DUNGEON, CNetworkPacketHeaderMap::TPacketType(sizeof(TPacketGCDungeon), DYNAMIC_SIZE_PACKET));

  007df	8d 45 e8	 lea	 eax, DWORD PTR $T38[ebp]
; File D:\Metin2 Server Files\mainline\SRC_2014\Metin2Client\eterLib\NetPacketHeaderMap.h

; 13   : 				isDynamicSizePacket = bFlag;

  007e2	c6 45 ec 01	 mov	 BYTE PTR $T38[ebp+4], 1
; File D:\Metin2 Server Files\mainline\SRC_2014\Metin2Client\UserInterface\PythonNetworkStream.cpp

; 139  : 			Set(HEADER_GC_DUNGEON, CNetworkPacketHeaderMap::TPacketType(sizeof(TPacketGCDungeon), DYNAMIC_SIZE_PACKET));

  007e6	50		 push	 eax
  007e7	6a 6e		 push	 110			; 0000006eH
  007e9	8b ce		 mov	 ecx, esi
  007eb	e8 00 00 00 00	 call	 ?Set@CNetworkPacketHeaderMap@@QAEXHAAUSPacketType@1@@Z ; CNetworkPacketHeaderMap::Set

; 141  : 			Set(HEADER_GC_TIME, CNetworkPacketHeaderMap::TPacketType(sizeof(TPacketGCTime), STATIC_SIZE_PACKET));

  007f0	8d 45 e8	 lea	 eax, DWORD PTR $T37[ebp]
; File D:\Metin2 Server Files\mainline\SRC_2014\Metin2Client\eterLib\NetPacketHeaderMap.h

; 12   : 				iPacketSize = iSize;

  007f3	c7 45 e8 05 00
	00 00		 mov	 DWORD PTR $T37[ebp], 5
; File D:\Metin2 Server Files\mainline\SRC_2014\Metin2Client\UserInterface\PythonNetworkStream.cpp

; 141  : 			Set(HEADER_GC_TIME, CNetworkPacketHeaderMap::TPacketType(sizeof(TPacketGCTime), STATIC_SIZE_PACKET));

  007fa	50		 push	 eax
  007fb	6a 6a		 push	 106			; 0000006aH
  007fd	8b ce		 mov	 ecx, esi
; File D:\Metin2 Server Files\mainline\SRC_2014\Metin2Client\eterLib\NetPacketHeaderMap.h

; 13   : 				isDynamicSizePacket = bFlag;

  007ff	c6 45 ec 00	 mov	 BYTE PTR $T37[ebp+4], 0
; File D:\Metin2 Server Files\mainline\SRC_2014\Metin2Client\UserInterface\PythonNetworkStream.cpp

; 141  : 			Set(HEADER_GC_TIME, CNetworkPacketHeaderMap::TPacketType(sizeof(TPacketGCTime), STATIC_SIZE_PACKET));

  00803	e8 00 00 00 00	 call	 ?Set@CNetworkPacketHeaderMap@@QAEXHAAUSPacketType@1@@Z ; CNetworkPacketHeaderMap::Set

; 142  : 			Set(HEADER_GC_WALK_MODE, CNetworkPacketHeaderMap::TPacketType(sizeof(TPacketGCWalkMode), STATIC_SIZE_PACKET));

  00808	8d 45 e8	 lea	 eax, DWORD PTR $T36[ebp]
; File D:\Metin2 Server Files\mainline\SRC_2014\Metin2Client\eterLib\NetPacketHeaderMap.h

; 12   : 				iPacketSize = iSize;

  0080b	c7 45 e8 06 00
	00 00		 mov	 DWORD PTR $T36[ebp], 6
; File D:\Metin2 Server Files\mainline\SRC_2014\Metin2Client\UserInterface\PythonNetworkStream.cpp

; 142  : 			Set(HEADER_GC_WALK_MODE, CNetworkPacketHeaderMap::TPacketType(sizeof(TPacketGCWalkMode), STATIC_SIZE_PACKET));

  00812	50		 push	 eax
  00813	6a 6f		 push	 111			; 0000006fH
  00815	8b ce		 mov	 ecx, esi
; File D:\Metin2 Server Files\mainline\SRC_2014\Metin2Client\eterLib\NetPacketHeaderMap.h

; 13   : 				isDynamicSizePacket = bFlag;

  00817	c6 45 ec 00	 mov	 BYTE PTR $T36[ebp+4], 0
; File D:\Metin2 Server Files\mainline\SRC_2014\Metin2Client\UserInterface\PythonNetworkStream.cpp

; 142  : 			Set(HEADER_GC_WALK_MODE, CNetworkPacketHeaderMap::TPacketType(sizeof(TPacketGCWalkMode), STATIC_SIZE_PACKET));

  0081b	e8 00 00 00 00	 call	 ?Set@CNetworkPacketHeaderMap@@QAEXHAAUSPacketType@1@@Z ; CNetworkPacketHeaderMap::Set

; 143  : 			Set(HEADER_GC_CHANGE_SKILL_GROUP, CNetworkPacketHeaderMap::TPacketType(sizeof(TPacketGCChangeSkillGroup), STATIC_SIZE_PACKET));

  00820	8d 45 e8	 lea	 eax, DWORD PTR $T35[ebp]
; File D:\Metin2 Server Files\mainline\SRC_2014\Metin2Client\eterLib\NetPacketHeaderMap.h

; 12   : 				iPacketSize = iSize;

  00823	c7 45 e8 02 00
	00 00		 mov	 DWORD PTR $T35[ebp], 2
; File D:\Metin2 Server Files\mainline\SRC_2014\Metin2Client\UserInterface\PythonNetworkStream.cpp

; 143  : 			Set(HEADER_GC_CHANGE_SKILL_GROUP, CNetworkPacketHeaderMap::TPacketType(sizeof(TPacketGCChangeSkillGroup), STATIC_SIZE_PACKET));

  0082a	50		 push	 eax
  0082b	6a 70		 push	 112			; 00000070H
  0082d	8b ce		 mov	 ecx, esi
; File D:\Metin2 Server Files\mainline\SRC_2014\Metin2Client\eterLib\NetPacketHeaderMap.h

; 13   : 				isDynamicSizePacket = bFlag;

  0082f	c6 45 ec 00	 mov	 BYTE PTR $T35[ebp+4], 0
; File D:\Metin2 Server Files\mainline\SRC_2014\Metin2Client\UserInterface\PythonNetworkStream.cpp

; 143  : 			Set(HEADER_GC_CHANGE_SKILL_GROUP, CNetworkPacketHeaderMap::TPacketType(sizeof(TPacketGCChangeSkillGroup), STATIC_SIZE_PACKET));

  00833	e8 00 00 00 00	 call	 ?Set@CNetworkPacketHeaderMap@@QAEXHAAUSPacketType@1@@Z ; CNetworkPacketHeaderMap::Set

; 144  : 			Set(HEADER_GC_REFINE_INFORMATION, CNetworkPacketHeaderMap::TPacketType(sizeof(TPacketGCRefineInformation), STATIC_SIZE_PACKET));

  00838	8d 45 e8	 lea	 eax, DWORD PTR $T34[ebp]
; File D:\Metin2 Server Files\mainline\SRC_2014\Metin2Client\eterLib\NetPacketHeaderMap.h

; 12   : 				iPacketSize = iSize;

  0083b	c7 45 e8 3b 00
	00 00		 mov	 DWORD PTR $T34[ebp], 59	; 0000003bH
; File D:\Metin2 Server Files\mainline\SRC_2014\Metin2Client\UserInterface\PythonNetworkStream.cpp

; 144  : 			Set(HEADER_GC_REFINE_INFORMATION, CNetworkPacketHeaderMap::TPacketType(sizeof(TPacketGCRefineInformation), STATIC_SIZE_PACKET));

  00842	50		 push	 eax
  00843	6a 5f		 push	 95			; 0000005fH
  00845	8b ce		 mov	 ecx, esi
; File D:\Metin2 Server Files\mainline\SRC_2014\Metin2Client\eterLib\NetPacketHeaderMap.h

; 13   : 				isDynamicSizePacket = bFlag;

  00847	c6 45 ec 00	 mov	 BYTE PTR $T34[ebp+4], 0
; File D:\Metin2 Server Files\mainline\SRC_2014\Metin2Client\UserInterface\PythonNetworkStream.cpp

; 144  : 			Set(HEADER_GC_REFINE_INFORMATION, CNetworkPacketHeaderMap::TPacketType(sizeof(TPacketGCRefineInformation), STATIC_SIZE_PACKET));

  0084b	e8 00 00 00 00	 call	 ?Set@CNetworkPacketHeaderMap@@QAEXHAAUSPacketType@1@@Z ; CNetworkPacketHeaderMap::Set

; 145  : 			Set(HEADER_GC_REFINE_INFORMATION_NEW, CNetworkPacketHeaderMap::TPacketType(sizeof(TPacketGCRefineInformationNew), STATIC_SIZE_PACKET));

  00850	8d 45 e8	 lea	 eax, DWORD PTR $T33[ebp]
; File D:\Metin2 Server Files\mainline\SRC_2014\Metin2Client\eterLib\NetPacketHeaderMap.h

; 12   : 				iPacketSize = iSize;

  00853	c7 45 e8 3c 00
	00 00		 mov	 DWORD PTR $T33[ebp], 60	; 0000003cH
; File D:\Metin2 Server Files\mainline\SRC_2014\Metin2Client\UserInterface\PythonNetworkStream.cpp

; 145  : 			Set(HEADER_GC_REFINE_INFORMATION_NEW, CNetworkPacketHeaderMap::TPacketType(sizeof(TPacketGCRefineInformationNew), STATIC_SIZE_PACKET));

  0085a	50		 push	 eax
  0085b	6a 77		 push	 119			; 00000077H
  0085d	8b ce		 mov	 ecx, esi
; File D:\Metin2 Server Files\mainline\SRC_2014\Metin2Client\eterLib\NetPacketHeaderMap.h

; 13   : 				isDynamicSizePacket = bFlag;

  0085f	c6 45 ec 00	 mov	 BYTE PTR $T33[ebp+4], 0
; File D:\Metin2 Server Files\mainline\SRC_2014\Metin2Client\UserInterface\PythonNetworkStream.cpp

; 145  : 			Set(HEADER_GC_REFINE_INFORMATION_NEW, CNetworkPacketHeaderMap::TPacketType(sizeof(TPacketGCRefineInformationNew), STATIC_SIZE_PACKET));

  00863	e8 00 00 00 00	 call	 ?Set@CNetworkPacketHeaderMap@@QAEXHAAUSPacketType@1@@Z ; CNetworkPacketHeaderMap::Set

; 146  : 			Set(HEADER_GC_SEPCIAL_EFFECT, CNetworkPacketHeaderMap::TPacketType(sizeof(TPacketGCSpecialEffect), STATIC_SIZE_PACKET));

  00868	8d 45 e8	 lea	 eax, DWORD PTR $T32[ebp]
; File D:\Metin2 Server Files\mainline\SRC_2014\Metin2Client\eterLib\NetPacketHeaderMap.h

; 12   : 				iPacketSize = iSize;

  0086b	c7 45 e8 06 00
	00 00		 mov	 DWORD PTR $T32[ebp], 6
; File D:\Metin2 Server Files\mainline\SRC_2014\Metin2Client\UserInterface\PythonNetworkStream.cpp

; 146  : 			Set(HEADER_GC_SEPCIAL_EFFECT, CNetworkPacketHeaderMap::TPacketType(sizeof(TPacketGCSpecialEffect), STATIC_SIZE_PACKET));

  00872	50		 push	 eax
  00873	6a 72		 push	 114			; 00000072H
  00875	8b ce		 mov	 ecx, esi
; File D:\Metin2 Server Files\mainline\SRC_2014\Metin2Client\eterLib\NetPacketHeaderMap.h

; 13   : 				isDynamicSizePacket = bFlag;

  00877	c6 45 ec 00	 mov	 BYTE PTR $T32[ebp+4], 0
; File D:\Metin2 Server Files\mainline\SRC_2014\Metin2Client\UserInterface\PythonNetworkStream.cpp

; 146  : 			Set(HEADER_GC_SEPCIAL_EFFECT, CNetworkPacketHeaderMap::TPacketType(sizeof(TPacketGCSpecialEffect), STATIC_SIZE_PACKET));

  0087b	e8 00 00 00 00	 call	 ?Set@CNetworkPacketHeaderMap@@QAEXHAAUSPacketType@1@@Z ; CNetworkPacketHeaderMap::Set

; 147  : 			Set(HEADER_GC_NPC_POSITION, CNetworkPacketHeaderMap::TPacketType(sizeof(TPacketGCNPCPosition), DYNAMIC_SIZE_PACKET));

  00880	8d 45 e8	 lea	 eax, DWORD PTR $T31[ebp]
; File D:\Metin2 Server Files\mainline\SRC_2014\Metin2Client\eterLib\NetPacketHeaderMap.h

; 12   : 				iPacketSize = iSize;

  00883	c7 45 e8 05 00
	00 00		 mov	 DWORD PTR $T31[ebp], 5
; File D:\Metin2 Server Files\mainline\SRC_2014\Metin2Client\UserInterface\PythonNetworkStream.cpp

; 147  : 			Set(HEADER_GC_NPC_POSITION, CNetworkPacketHeaderMap::TPacketType(sizeof(TPacketGCNPCPosition), DYNAMIC_SIZE_PACKET));

  0088a	50		 push	 eax
  0088b	6a 73		 push	 115			; 00000073H
  0088d	8b ce		 mov	 ecx, esi
; File D:\Metin2 Server Files\mainline\SRC_2014\Metin2Client\eterLib\NetPacketHeaderMap.h

; 13   : 				isDynamicSizePacket = bFlag;

  0088f	c6 45 ec 01	 mov	 BYTE PTR $T31[ebp+4], 1
; File D:\Metin2 Server Files\mainline\SRC_2014\Metin2Client\UserInterface\PythonNetworkStream.cpp

; 147  : 			Set(HEADER_GC_NPC_POSITION, CNetworkPacketHeaderMap::TPacketType(sizeof(TPacketGCNPCPosition), DYNAMIC_SIZE_PACKET));

  00893	e8 00 00 00 00	 call	 ?Set@CNetworkPacketHeaderMap@@QAEXHAAUSPacketType@1@@Z ; CNetworkPacketHeaderMap::Set

; 148  : 			Set(HEADER_GC_CHANGE_NAME, CNetworkPacketHeaderMap::TPacketType(sizeof(TPacketGCChangeName), STATIC_SIZE_PACKET));

  00898	8d 45 e8	 lea	 eax, DWORD PTR $T30[ebp]
; File D:\Metin2 Server Files\mainline\SRC_2014\Metin2Client\eterLib\NetPacketHeaderMap.h

; 12   : 				iPacketSize = iSize;

  0089b	c7 45 e8 1e 00
	00 00		 mov	 DWORD PTR $T30[ebp], 30	; 0000001eH
; File D:\Metin2 Server Files\mainline\SRC_2014\Metin2Client\UserInterface\PythonNetworkStream.cpp

; 148  : 			Set(HEADER_GC_CHANGE_NAME, CNetworkPacketHeaderMap::TPacketType(sizeof(TPacketGCChangeName), STATIC_SIZE_PACKET));

  008a2	50		 push	 eax
  008a3	6a 6b		 push	 107			; 0000006bH
  008a5	8b ce		 mov	 ecx, esi
; File D:\Metin2 Server Files\mainline\SRC_2014\Metin2Client\eterLib\NetPacketHeaderMap.h

; 13   : 				isDynamicSizePacket = bFlag;

  008a7	c6 45 ec 00	 mov	 BYTE PTR $T30[ebp+4], 0
; File D:\Metin2 Server Files\mainline\SRC_2014\Metin2Client\UserInterface\PythonNetworkStream.cpp

; 148  : 			Set(HEADER_GC_CHANGE_NAME, CNetworkPacketHeaderMap::TPacketType(sizeof(TPacketGCChangeName), STATIC_SIZE_PACKET));

  008ab	e8 00 00 00 00	 call	 ?Set@CNetworkPacketHeaderMap@@QAEXHAAUSPacketType@1@@Z ; CNetworkPacketHeaderMap::Set

; 150  : 			Set(HEADER_GC_CHINA_MATRIX_CARD, CNetworkPacketHeaderMap::TPacketType(sizeof(TPacketGCChinaMatrixCard), STATIC_SIZE_PACKET));

  008b0	8d 45 e8	 lea	 eax, DWORD PTR $T29[ebp]
; File D:\Metin2 Server Files\mainline\SRC_2014\Metin2Client\eterLib\NetPacketHeaderMap.h

; 12   : 				iPacketSize = iSize;

  008b3	c7 45 e8 09 00
	00 00		 mov	 DWORD PTR $T29[ebp], 9
; File D:\Metin2 Server Files\mainline\SRC_2014\Metin2Client\UserInterface\PythonNetworkStream.cpp

; 150  : 			Set(HEADER_GC_CHINA_MATRIX_CARD, CNetworkPacketHeaderMap::TPacketType(sizeof(TPacketGCChinaMatrixCard), STATIC_SIZE_PACKET));

  008ba	50		 push	 eax
  008bb	6a 74		 push	 116			; 00000074H
  008bd	8b ce		 mov	 ecx, esi
; File D:\Metin2 Server Files\mainline\SRC_2014\Metin2Client\eterLib\NetPacketHeaderMap.h

; 13   : 				isDynamicSizePacket = bFlag;

  008bf	c6 45 ec 00	 mov	 BYTE PTR $T29[ebp+4], 0
; File D:\Metin2 Server Files\mainline\SRC_2014\Metin2Client\UserInterface\PythonNetworkStream.cpp

; 150  : 			Set(HEADER_GC_CHINA_MATRIX_CARD, CNetworkPacketHeaderMap::TPacketType(sizeof(TPacketGCChinaMatrixCard), STATIC_SIZE_PACKET));

  008c3	e8 00 00 00 00	 call	 ?Set@CNetworkPacketHeaderMap@@QAEXHAAUSPacketType@1@@Z ; CNetworkPacketHeaderMap::Set

; 151  : 			Set(HEADER_GC_RUNUP_MATRIX_QUIZ, CNetworkPacketHeaderMap::TPacketType(sizeof(TPacketGCRunupMatrixQuiz), STATIC_SIZE_PACKET));

  008c8	8d 45 e8	 lea	 eax, DWORD PTR $T28[ebp]
; File D:\Metin2 Server Files\mainline\SRC_2014\Metin2Client\eterLib\NetPacketHeaderMap.h

; 12   : 				iPacketSize = iSize;

  008cb	c7 45 e8 0a 00
	00 00		 mov	 DWORD PTR $T28[ebp], 10	; 0000000aH
; File D:\Metin2 Server Files\mainline\SRC_2014\Metin2Client\UserInterface\PythonNetworkStream.cpp

; 151  : 			Set(HEADER_GC_RUNUP_MATRIX_QUIZ, CNetworkPacketHeaderMap::TPacketType(sizeof(TPacketGCRunupMatrixQuiz), STATIC_SIZE_PACKET));

  008d2	50		 push	 eax
  008d3	68 c9 00 00 00	 push	 201			; 000000c9H
  008d8	8b ce		 mov	 ecx, esi
; File D:\Metin2 Server Files\mainline\SRC_2014\Metin2Client\eterLib\NetPacketHeaderMap.h

; 13   : 				isDynamicSizePacket = bFlag;

  008da	c6 45 ec 00	 mov	 BYTE PTR $T28[ebp+4], 0
; File D:\Metin2 Server Files\mainline\SRC_2014\Metin2Client\UserInterface\PythonNetworkStream.cpp

; 151  : 			Set(HEADER_GC_RUNUP_MATRIX_QUIZ, CNetworkPacketHeaderMap::TPacketType(sizeof(TPacketGCRunupMatrixQuiz), STATIC_SIZE_PACKET));

  008de	e8 00 00 00 00	 call	 ?Set@CNetworkPacketHeaderMap@@QAEXHAAUSPacketType@1@@Z ; CNetworkPacketHeaderMap::Set

; 152  : 			Set(HEADER_GC_NEWCIBN_PASSPOD_REQUEST, CNetworkPacketHeaderMap::TPacketType(sizeof(TPacketGCNEWCIBNPasspodRequest), STATIC_SIZE_PACKET));

  008e3	8d 45 e8	 lea	 eax, DWORD PTR $T27[ebp]
; File D:\Metin2 Server Files\mainline\SRC_2014\Metin2Client\eterLib\NetPacketHeaderMap.h

; 12   : 				iPacketSize = iSize;

  008e6	c7 45 e8 01 00
	00 00		 mov	 DWORD PTR $T27[ebp], 1
; File D:\Metin2 Server Files\mainline\SRC_2014\Metin2Client\UserInterface\PythonNetworkStream.cpp

; 152  : 			Set(HEADER_GC_NEWCIBN_PASSPOD_REQUEST, CNetworkPacketHeaderMap::TPacketType(sizeof(TPacketGCNEWCIBNPasspodRequest), STATIC_SIZE_PACKET));

  008ed	50		 push	 eax
  008ee	68 ca 00 00 00	 push	 202			; 000000caH
  008f3	8b ce		 mov	 ecx, esi
; File D:\Metin2 Server Files\mainline\SRC_2014\Metin2Client\eterLib\NetPacketHeaderMap.h

; 13   : 				isDynamicSizePacket = bFlag;

  008f5	c6 45 ec 00	 mov	 BYTE PTR $T27[ebp+4], 0
; File D:\Metin2 Server Files\mainline\SRC_2014\Metin2Client\UserInterface\PythonNetworkStream.cpp

; 152  : 			Set(HEADER_GC_NEWCIBN_PASSPOD_REQUEST, CNetworkPacketHeaderMap::TPacketType(sizeof(TPacketGCNEWCIBNPasspodRequest), STATIC_SIZE_PACKET));

  008f9	e8 00 00 00 00	 call	 ?Set@CNetworkPacketHeaderMap@@QAEXHAAUSPacketType@1@@Z ; CNetworkPacketHeaderMap::Set

; 153  : 			Set(HEADER_GC_NEWCIBN_PASSPOD_FAILURE, CNetworkPacketHeaderMap::TPacketType(sizeof(TPacketGCNEWCIBNPasspodFailure), STATIC_SIZE_PACKET));

  008fe	8d 45 e8	 lea	 eax, DWORD PTR $T26[ebp]
; File D:\Metin2 Server Files\mainline\SRC_2014\Metin2Client\eterLib\NetPacketHeaderMap.h

; 12   : 				iPacketSize = iSize;

  00901	c7 45 e8 82 00
	00 00		 mov	 DWORD PTR $T26[ebp], 130 ; 00000082H
; File D:\Metin2 Server Files\mainline\SRC_2014\Metin2Client\UserInterface\PythonNetworkStream.cpp

; 153  : 			Set(HEADER_GC_NEWCIBN_PASSPOD_FAILURE, CNetworkPacketHeaderMap::TPacketType(sizeof(TPacketGCNEWCIBNPasspodFailure), STATIC_SIZE_PACKET));

  00908	50		 push	 eax
  00909	68 cb 00 00 00	 push	 203			; 000000cbH
  0090e	8b ce		 mov	 ecx, esi
; File D:\Metin2 Server Files\mainline\SRC_2014\Metin2Client\eterLib\NetPacketHeaderMap.h

; 13   : 				isDynamicSizePacket = bFlag;

  00910	c6 45 ec 00	 mov	 BYTE PTR $T26[ebp+4], 0
; File D:\Metin2 Server Files\mainline\SRC_2014\Metin2Client\UserInterface\PythonNetworkStream.cpp

; 153  : 			Set(HEADER_GC_NEWCIBN_PASSPOD_FAILURE, CNetworkPacketHeaderMap::TPacketType(sizeof(TPacketGCNEWCIBNPasspodFailure), STATIC_SIZE_PACKET));

  00914	e8 00 00 00 00	 call	 ?Set@CNetworkPacketHeaderMap@@QAEXHAAUSPacketType@1@@Z ; CNetworkPacketHeaderMap::Set

; 154  : 			Set(HEADER_GC_LOGIN_KEY, CNetworkPacketHeaderMap::TPacketType(sizeof(TPacketGCLoginKey), STATIC_SIZE_PACKET));

  00919	8d 45 e8	 lea	 eax, DWORD PTR $T25[ebp]
; File D:\Metin2 Server Files\mainline\SRC_2014\Metin2Client\eterLib\NetPacketHeaderMap.h

; 12   : 				iPacketSize = iSize;

  0091c	c7 45 e8 05 00
	00 00		 mov	 DWORD PTR $T25[ebp], 5
; File D:\Metin2 Server Files\mainline\SRC_2014\Metin2Client\UserInterface\PythonNetworkStream.cpp

; 154  : 			Set(HEADER_GC_LOGIN_KEY, CNetworkPacketHeaderMap::TPacketType(sizeof(TPacketGCLoginKey), STATIC_SIZE_PACKET));

  00923	50		 push	 eax
  00924	6a 76		 push	 118			; 00000076H
  00926	8b ce		 mov	 ecx, esi
; File D:\Metin2 Server Files\mainline\SRC_2014\Metin2Client\eterLib\NetPacketHeaderMap.h

; 13   : 				isDynamicSizePacket = bFlag;

  00928	c6 45 ec 00	 mov	 BYTE PTR $T25[ebp+4], 0
; File D:\Metin2 Server Files\mainline\SRC_2014\Metin2Client\UserInterface\PythonNetworkStream.cpp

; 154  : 			Set(HEADER_GC_LOGIN_KEY, CNetworkPacketHeaderMap::TPacketType(sizeof(TPacketGCLoginKey), STATIC_SIZE_PACKET));

  0092c	e8 00 00 00 00	 call	 ?Set@CNetworkPacketHeaderMap@@QAEXHAAUSPacketType@1@@Z ; CNetworkPacketHeaderMap::Set

; 156  : 			Set(HEADER_GC_AUTH_SUCCESS, CNetworkPacketHeaderMap::TPacketType(sizeof(TPacketGCAuthSuccess), STATIC_SIZE_PACKET));

  00931	8d 45 e8	 lea	 eax, DWORD PTR $T24[ebp]
; File D:\Metin2 Server Files\mainline\SRC_2014\Metin2Client\eterLib\NetPacketHeaderMap.h

; 12   : 				iPacketSize = iSize;

  00934	c7 45 e8 06 00
	00 00		 mov	 DWORD PTR $T24[ebp], 6
; File D:\Metin2 Server Files\mainline\SRC_2014\Metin2Client\UserInterface\PythonNetworkStream.cpp

; 156  : 			Set(HEADER_GC_AUTH_SUCCESS, CNetworkPacketHeaderMap::TPacketType(sizeof(TPacketGCAuthSuccess), STATIC_SIZE_PACKET));

  0093b	50		 push	 eax
  0093c	68 96 00 00 00	 push	 150			; 00000096H
  00941	8b ce		 mov	 ecx, esi
; File D:\Metin2 Server Files\mainline\SRC_2014\Metin2Client\eterLib\NetPacketHeaderMap.h

; 13   : 				isDynamicSizePacket = bFlag;

  00943	c6 45 ec 00	 mov	 BYTE PTR $T24[ebp+4], 0
; File D:\Metin2 Server Files\mainline\SRC_2014\Metin2Client\UserInterface\PythonNetworkStream.cpp

; 156  : 			Set(HEADER_GC_AUTH_SUCCESS, CNetworkPacketHeaderMap::TPacketType(sizeof(TPacketGCAuthSuccess), STATIC_SIZE_PACKET));

  00947	e8 00 00 00 00	 call	 ?Set@CNetworkPacketHeaderMap@@QAEXHAAUSPacketType@1@@Z ; CNetworkPacketHeaderMap::Set

; 157  : 			Set(HEADER_GC_AUTH_SUCCESS_OPENID, CNetworkPacketHeaderMap::TPacketType(sizeof(TPacketGCAuthSuccessOpenID), STATIC_SIZE_PACKET));

  0094c	8d 45 e8	 lea	 eax, DWORD PTR $T23[ebp]
; File D:\Metin2 Server Files\mainline\SRC_2014\Metin2Client\eterLib\NetPacketHeaderMap.h

; 12   : 				iPacketSize = iSize;

  0094f	c7 45 e8 25 00
	00 00		 mov	 DWORD PTR $T23[ebp], 37	; 00000025H
; File D:\Metin2 Server Files\mainline\SRC_2014\Metin2Client\UserInterface\PythonNetworkStream.cpp

; 157  : 			Set(HEADER_GC_AUTH_SUCCESS_OPENID, CNetworkPacketHeaderMap::TPacketType(sizeof(TPacketGCAuthSuccessOpenID), STATIC_SIZE_PACKET));

  00956	50		 push	 eax
  00957	68 9a 00 00 00	 push	 154			; 0000009aH
  0095c	8b ce		 mov	 ecx, esi
; File D:\Metin2 Server Files\mainline\SRC_2014\Metin2Client\eterLib\NetPacketHeaderMap.h

; 13   : 				isDynamicSizePacket = bFlag;

  0095e	c6 45 ec 00	 mov	 BYTE PTR $T23[ebp+4], 0
; File D:\Metin2 Server Files\mainline\SRC_2014\Metin2Client\UserInterface\PythonNetworkStream.cpp

; 157  : 			Set(HEADER_GC_AUTH_SUCCESS_OPENID, CNetworkPacketHeaderMap::TPacketType(sizeof(TPacketGCAuthSuccessOpenID), STATIC_SIZE_PACKET));

  00962	e8 00 00 00 00	 call	 ?Set@CNetworkPacketHeaderMap@@QAEXHAAUSPacketType@1@@Z ; CNetworkPacketHeaderMap::Set

; 158  : 			Set(HEADER_GC_CHANNEL, CNetworkPacketHeaderMap::TPacketType(sizeof(TPacketGCChannel), STATIC_SIZE_PACKET));

  00967	8d 45 e8	 lea	 eax, DWORD PTR $T22[ebp]
; File D:\Metin2 Server Files\mainline\SRC_2014\Metin2Client\eterLib\NetPacketHeaderMap.h

; 12   : 				iPacketSize = iSize;

  0096a	c7 45 e8 02 00
	00 00		 mov	 DWORD PTR $T22[ebp], 2
; File D:\Metin2 Server Files\mainline\SRC_2014\Metin2Client\UserInterface\PythonNetworkStream.cpp

; 158  : 			Set(HEADER_GC_CHANNEL, CNetworkPacketHeaderMap::TPacketType(sizeof(TPacketGCChannel), STATIC_SIZE_PACKET));

  00971	50		 push	 eax
  00972	6a 79		 push	 121			; 00000079H
  00974	8b ce		 mov	 ecx, esi
; File D:\Metin2 Server Files\mainline\SRC_2014\Metin2Client\eterLib\NetPacketHeaderMap.h

; 13   : 				isDynamicSizePacket = bFlag;

  00976	c6 45 ec 00	 mov	 BYTE PTR $T22[ebp+4], 0
; File D:\Metin2 Server Files\mainline\SRC_2014\Metin2Client\UserInterface\PythonNetworkStream.cpp

; 158  : 			Set(HEADER_GC_CHANNEL, CNetworkPacketHeaderMap::TPacketType(sizeof(TPacketGCChannel), STATIC_SIZE_PACKET));

  0097a	e8 00 00 00 00	 call	 ?Set@CNetworkPacketHeaderMap@@QAEXHAAUSPacketType@1@@Z ; CNetworkPacketHeaderMap::Set

; 159  : 			Set(HEADER_GC_VIEW_EQUIP, CNetworkPacketHeaderMap::TPacketType(sizeof(TPacketGCViewEquip), STATIC_SIZE_PACKET));

  0097f	8d 45 e8	 lea	 eax, DWORD PTR $T21[ebp]
; File D:\Metin2 Server Files\mainline\SRC_2014\Metin2Client\eterLib\NetPacketHeaderMap.h

; 12   : 				iPacketSize = iSize;

  00982	c7 45 e8 a7 01
	00 00		 mov	 DWORD PTR $T21[ebp], 423 ; 000001a7H
; File D:\Metin2 Server Files\mainline\SRC_2014\Metin2Client\UserInterface\PythonNetworkStream.cpp

; 159  : 			Set(HEADER_GC_VIEW_EQUIP, CNetworkPacketHeaderMap::TPacketType(sizeof(TPacketGCViewEquip), STATIC_SIZE_PACKET));

  00989	50		 push	 eax
  0098a	6a 63		 push	 99			; 00000063H
  0098c	8b ce		 mov	 ecx, esi
; File D:\Metin2 Server Files\mainline\SRC_2014\Metin2Client\eterLib\NetPacketHeaderMap.h

; 13   : 				isDynamicSizePacket = bFlag;

  0098e	c6 45 ec 00	 mov	 BYTE PTR $T21[ebp+4], 0
; File D:\Metin2 Server Files\mainline\SRC_2014\Metin2Client\UserInterface\PythonNetworkStream.cpp

; 159  : 			Set(HEADER_GC_VIEW_EQUIP, CNetworkPacketHeaderMap::TPacketType(sizeof(TPacketGCViewEquip), STATIC_SIZE_PACKET));

  00992	e8 00 00 00 00	 call	 ?Set@CNetworkPacketHeaderMap@@QAEXHAAUSPacketType@1@@Z ; CNetworkPacketHeaderMap::Set

; 160  : 			Set(HEADER_GC_LAND_LIST, CNetworkPacketHeaderMap::TPacketType(sizeof(TPacketGCLandList), DYNAMIC_SIZE_PACKET));

  00997	8d 45 e8	 lea	 eax, DWORD PTR $T20[ebp]
; File D:\Metin2 Server Files\mainline\SRC_2014\Metin2Client\eterLib\NetPacketHeaderMap.h

; 12   : 				iPacketSize = iSize;

  0099a	c7 45 e8 03 00
	00 00		 mov	 DWORD PTR $T20[ebp], 3
; File D:\Metin2 Server Files\mainline\SRC_2014\Metin2Client\UserInterface\PythonNetworkStream.cpp

; 160  : 			Set(HEADER_GC_LAND_LIST, CNetworkPacketHeaderMap::TPacketType(sizeof(TPacketGCLandList), DYNAMIC_SIZE_PACKET));

  009a1	50		 push	 eax
  009a2	68 82 00 00 00	 push	 130			; 00000082H
  009a7	8b ce		 mov	 ecx, esi
; File D:\Metin2 Server Files\mainline\SRC_2014\Metin2Client\eterLib\NetPacketHeaderMap.h

; 13   : 				isDynamicSizePacket = bFlag;

  009a9	c6 45 ec 01	 mov	 BYTE PTR $T20[ebp+4], 1
; File D:\Metin2 Server Files\mainline\SRC_2014\Metin2Client\UserInterface\PythonNetworkStream.cpp

; 160  : 			Set(HEADER_GC_LAND_LIST, CNetworkPacketHeaderMap::TPacketType(sizeof(TPacketGCLandList), DYNAMIC_SIZE_PACKET));

  009ad	e8 00 00 00 00	 call	 ?Set@CNetworkPacketHeaderMap@@QAEXHAAUSPacketType@1@@Z ; CNetworkPacketHeaderMap::Set

; 163  : 			Set(HEADER_GC_TARGET_UPDATE, CNetworkPacketHeaderMap::TPacketType(sizeof(TPacketGCTargetUpdate), STATIC_SIZE_PACKET));

  009b2	8d 45 e8	 lea	 eax, DWORD PTR $T19[ebp]
; File D:\Metin2 Server Files\mainline\SRC_2014\Metin2Client\eterLib\NetPacketHeaderMap.h

; 12   : 				iPacketSize = iSize;

  009b5	c7 45 e8 0d 00
	00 00		 mov	 DWORD PTR $T19[ebp], 13	; 0000000dH
; File D:\Metin2 Server Files\mainline\SRC_2014\Metin2Client\UserInterface\PythonNetworkStream.cpp

; 163  : 			Set(HEADER_GC_TARGET_UPDATE, CNetworkPacketHeaderMap::TPacketType(sizeof(TPacketGCTargetUpdate), STATIC_SIZE_PACKET));

  009bc	50		 push	 eax
  009bd	6a 7b		 push	 123			; 0000007bH
  009bf	8b ce		 mov	 ecx, esi
; File D:\Metin2 Server Files\mainline\SRC_2014\Metin2Client\eterLib\NetPacketHeaderMap.h

; 13   : 				isDynamicSizePacket = bFlag;

  009c1	c6 45 ec 00	 mov	 BYTE PTR $T19[ebp+4], 0
; File D:\Metin2 Server Files\mainline\SRC_2014\Metin2Client\UserInterface\PythonNetworkStream.cpp

; 163  : 			Set(HEADER_GC_TARGET_UPDATE, CNetworkPacketHeaderMap::TPacketType(sizeof(TPacketGCTargetUpdate), STATIC_SIZE_PACKET));

  009c5	e8 00 00 00 00	 call	 ?Set@CNetworkPacketHeaderMap@@QAEXHAAUSPacketType@1@@Z ; CNetworkPacketHeaderMap::Set

; 164  : 			Set(HEADER_GC_TARGET_DELETE, CNetworkPacketHeaderMap::TPacketType(sizeof(TPacketGCTargetDelete), STATIC_SIZE_PACKET));

  009ca	8d 45 e8	 lea	 eax, DWORD PTR $T18[ebp]
; File D:\Metin2 Server Files\mainline\SRC_2014\Metin2Client\eterLib\NetPacketHeaderMap.h

; 12   : 				iPacketSize = iSize;

  009cd	c7 45 e8 05 00
	00 00		 mov	 DWORD PTR $T18[ebp], 5
; File D:\Metin2 Server Files\mainline\SRC_2014\Metin2Client\UserInterface\PythonNetworkStream.cpp

; 164  : 			Set(HEADER_GC_TARGET_DELETE, CNetworkPacketHeaderMap::TPacketType(sizeof(TPacketGCTargetDelete), STATIC_SIZE_PACKET));

  009d4	50		 push	 eax
  009d5	6a 7c		 push	 124			; 0000007cH
  009d7	8b ce		 mov	 ecx, esi
; File D:\Metin2 Server Files\mainline\SRC_2014\Metin2Client\eterLib\NetPacketHeaderMap.h

; 13   : 				isDynamicSizePacket = bFlag;

  009d9	c6 45 ec 00	 mov	 BYTE PTR $T18[ebp+4], 0
; File D:\Metin2 Server Files\mainline\SRC_2014\Metin2Client\UserInterface\PythonNetworkStream.cpp

; 164  : 			Set(HEADER_GC_TARGET_DELETE, CNetworkPacketHeaderMap::TPacketType(sizeof(TPacketGCTargetDelete), STATIC_SIZE_PACKET));

  009dd	e8 00 00 00 00	 call	 ?Set@CNetworkPacketHeaderMap@@QAEXHAAUSPacketType@1@@Z ; CNetworkPacketHeaderMap::Set

; 165  : 			Set(HEADER_GC_TARGET_CREATE_NEW, CNetworkPacketHeaderMap::TPacketType(sizeof(TPacketGCTargetCreateNew), STATIC_SIZE_PACKET));

  009e2	8d 45 e8	 lea	 eax, DWORD PTR $T17[ebp]
; File D:\Metin2 Server Files\mainline\SRC_2014\Metin2Client\eterLib\NetPacketHeaderMap.h

; 12   : 				iPacketSize = iSize;

  009e5	c7 45 e8 2b 00
	00 00		 mov	 DWORD PTR $T17[ebp], 43	; 0000002bH
; File D:\Metin2 Server Files\mainline\SRC_2014\Metin2Client\UserInterface\PythonNetworkStream.cpp

; 165  : 			Set(HEADER_GC_TARGET_CREATE_NEW, CNetworkPacketHeaderMap::TPacketType(sizeof(TPacketGCTargetCreateNew), STATIC_SIZE_PACKET));

  009ec	50		 push	 eax
  009ed	6a 7d		 push	 125			; 0000007dH
  009ef	8b ce		 mov	 ecx, esi
; File D:\Metin2 Server Files\mainline\SRC_2014\Metin2Client\eterLib\NetPacketHeaderMap.h

; 13   : 				isDynamicSizePacket = bFlag;

  009f1	c6 45 ec 00	 mov	 BYTE PTR $T17[ebp+4], 0
; File D:\Metin2 Server Files\mainline\SRC_2014\Metin2Client\UserInterface\PythonNetworkStream.cpp

; 165  : 			Set(HEADER_GC_TARGET_CREATE_NEW, CNetworkPacketHeaderMap::TPacketType(sizeof(TPacketGCTargetCreateNew), STATIC_SIZE_PACKET));

  009f5	e8 00 00 00 00	 call	 ?Set@CNetworkPacketHeaderMap@@QAEXHAAUSPacketType@1@@Z ; CNetworkPacketHeaderMap::Set

; 167  : 			Set(HEADER_GC_AFFECT_ADD, CNetworkPacketHeaderMap::TPacketType(sizeof(TPacketGCAffectAdd), STATIC_SIZE_PACKET));

  009fa	8d 45 e8	 lea	 eax, DWORD PTR $T16[ebp]
; File D:\Metin2 Server Files\mainline\SRC_2014\Metin2Client\eterLib\NetPacketHeaderMap.h

; 12   : 				iPacketSize = iSize;

  009fd	c7 45 e8 16 00
	00 00		 mov	 DWORD PTR $T16[ebp], 22	; 00000016H
; File D:\Metin2 Server Files\mainline\SRC_2014\Metin2Client\UserInterface\PythonNetworkStream.cpp

; 167  : 			Set(HEADER_GC_AFFECT_ADD, CNetworkPacketHeaderMap::TPacketType(sizeof(TPacketGCAffectAdd), STATIC_SIZE_PACKET));

  00a04	50		 push	 eax
  00a05	6a 7e		 push	 126			; 0000007eH
  00a07	8b ce		 mov	 ecx, esi
; File D:\Metin2 Server Files\mainline\SRC_2014\Metin2Client\eterLib\NetPacketHeaderMap.h

; 13   : 				isDynamicSizePacket = bFlag;

  00a09	c6 45 ec 00	 mov	 BYTE PTR $T16[ebp+4], 0
; File D:\Metin2 Server Files\mainline\SRC_2014\Metin2Client\UserInterface\PythonNetworkStream.cpp

; 167  : 			Set(HEADER_GC_AFFECT_ADD, CNetworkPacketHeaderMap::TPacketType(sizeof(TPacketGCAffectAdd), STATIC_SIZE_PACKET));

  00a0d	e8 00 00 00 00	 call	 ?Set@CNetworkPacketHeaderMap@@QAEXHAAUSPacketType@1@@Z ; CNetworkPacketHeaderMap::Set

; 168  : 			Set(HEADER_GC_AFFECT_REMOVE, CNetworkPacketHeaderMap::TPacketType(sizeof(TPacketGCAffectRemove), STATIC_SIZE_PACKET));

  00a12	8d 45 e8	 lea	 eax, DWORD PTR $T15[ebp]
; File D:\Metin2 Server Files\mainline\SRC_2014\Metin2Client\eterLib\NetPacketHeaderMap.h

; 12   : 				iPacketSize = iSize;

  00a15	c7 45 e8 06 00
	00 00		 mov	 DWORD PTR $T15[ebp], 6

; 13   : 				isDynamicSizePacket = bFlag;

  00a1c	c6 45 ec 00	 mov	 BYTE PTR $T15[ebp+4], 0
; File D:\Metin2 Server Files\mainline\SRC_2014\Metin2Client\UserInterface\PythonNetworkStream.cpp

; 168  : 			Set(HEADER_GC_AFFECT_REMOVE, CNetworkPacketHeaderMap::TPacketType(sizeof(TPacketGCAffectRemove), STATIC_SIZE_PACKET));

  00a20	50		 push	 eax
  00a21	6a 7f		 push	 127			; 0000007fH
  00a23	8b ce		 mov	 ecx, esi
  00a25	e8 00 00 00 00	 call	 ?Set@CNetworkPacketHeaderMap@@QAEXHAAUSPacketType@1@@Z ; CNetworkPacketHeaderMap::Set

; 170  : 			Set(HEADER_GC_MALL_OPEN, CNetworkPacketHeaderMap::TPacketType(sizeof(TPacketGCMallOpen), STATIC_SIZE_PACKET));

  00a2a	8d 45 e8	 lea	 eax, DWORD PTR $T14[ebp]
; File D:\Metin2 Server Files\mainline\SRC_2014\Metin2Client\eterLib\NetPacketHeaderMap.h

; 12   : 				iPacketSize = iSize;

  00a2d	c7 45 e8 02 00
	00 00		 mov	 DWORD PTR $T14[ebp], 2
; File D:\Metin2 Server Files\mainline\SRC_2014\Metin2Client\UserInterface\PythonNetworkStream.cpp

; 170  : 			Set(HEADER_GC_MALL_OPEN, CNetworkPacketHeaderMap::TPacketType(sizeof(TPacketGCMallOpen), STATIC_SIZE_PACKET));

  00a34	50		 push	 eax
  00a35	6a 7a		 push	 122			; 0000007aH
  00a37	8b ce		 mov	 ecx, esi
; File D:\Metin2 Server Files\mainline\SRC_2014\Metin2Client\eterLib\NetPacketHeaderMap.h

; 13   : 				isDynamicSizePacket = bFlag;

  00a39	c6 45 ec 00	 mov	 BYTE PTR $T14[ebp+4], 0
; File D:\Metin2 Server Files\mainline\SRC_2014\Metin2Client\UserInterface\PythonNetworkStream.cpp

; 170  : 			Set(HEADER_GC_MALL_OPEN, CNetworkPacketHeaderMap::TPacketType(sizeof(TPacketGCMallOpen), STATIC_SIZE_PACKET));

  00a3d	e8 00 00 00 00	 call	 ?Set@CNetworkPacketHeaderMap@@QAEXHAAUSPacketType@1@@Z ; CNetworkPacketHeaderMap::Set

; 171  : 			Set(HEADER_GC_MALL_SET, CNetworkPacketHeaderMap::TPacketType(sizeof(TPacketGCItemSet), STATIC_SIZE_PACKET));

  00a42	8d 45 e8	 lea	 eax, DWORD PTR $T13[ebp]
; File D:\Metin2 Server Files\mainline\SRC_2014\Metin2Client\eterLib\NetPacketHeaderMap.h

; 12   : 				iPacketSize = iSize;

  00a45	c7 45 e8 2a 00
	00 00		 mov	 DWORD PTR $T13[ebp], 42	; 0000002aH
; File D:\Metin2 Server Files\mainline\SRC_2014\Metin2Client\UserInterface\PythonNetworkStream.cpp

; 171  : 			Set(HEADER_GC_MALL_SET, CNetworkPacketHeaderMap::TPacketType(sizeof(TPacketGCItemSet), STATIC_SIZE_PACKET));

  00a4c	50		 push	 eax
  00a4d	68 80 00 00 00	 push	 128			; 00000080H
  00a52	8b ce		 mov	 ecx, esi
; File D:\Metin2 Server Files\mainline\SRC_2014\Metin2Client\eterLib\NetPacketHeaderMap.h

; 13   : 				isDynamicSizePacket = bFlag;

  00a54	c6 45 ec 00	 mov	 BYTE PTR $T13[ebp+4], 0
; File D:\Metin2 Server Files\mainline\SRC_2014\Metin2Client\UserInterface\PythonNetworkStream.cpp

; 171  : 			Set(HEADER_GC_MALL_SET, CNetworkPacketHeaderMap::TPacketType(sizeof(TPacketGCItemSet), STATIC_SIZE_PACKET));

  00a58	e8 00 00 00 00	 call	 ?Set@CNetworkPacketHeaderMap@@QAEXHAAUSPacketType@1@@Z ; CNetworkPacketHeaderMap::Set

; 172  : 			Set(HEADER_GC_MALL_DEL, CNetworkPacketHeaderMap::TPacketType(sizeof(TPacketGCItemDel), STATIC_SIZE_PACKET));

  00a5d	8d 45 e8	 lea	 eax, DWORD PTR $T12[ebp]
; File D:\Metin2 Server Files\mainline\SRC_2014\Metin2Client\eterLib\NetPacketHeaderMap.h

; 12   : 				iPacketSize = iSize;

  00a60	c7 45 e8 02 00
	00 00		 mov	 DWORD PTR $T12[ebp], 2
; File D:\Metin2 Server Files\mainline\SRC_2014\Metin2Client\UserInterface\PythonNetworkStream.cpp

; 172  : 			Set(HEADER_GC_MALL_DEL, CNetworkPacketHeaderMap::TPacketType(sizeof(TPacketGCItemDel), STATIC_SIZE_PACKET));

  00a67	50		 push	 eax
  00a68	68 81 00 00 00	 push	 129			; 00000081H
  00a6d	8b ce		 mov	 ecx, esi
; File D:\Metin2 Server Files\mainline\SRC_2014\Metin2Client\eterLib\NetPacketHeaderMap.h

; 13   : 				isDynamicSizePacket = bFlag;

  00a6f	c6 45 ec 00	 mov	 BYTE PTR $T12[ebp+4], 0
; File D:\Metin2 Server Files\mainline\SRC_2014\Metin2Client\UserInterface\PythonNetworkStream.cpp

; 172  : 			Set(HEADER_GC_MALL_DEL, CNetworkPacketHeaderMap::TPacketType(sizeof(TPacketGCItemDel), STATIC_SIZE_PACKET));

  00a73	e8 00 00 00 00	 call	 ?Set@CNetworkPacketHeaderMap@@QAEXHAAUSPacketType@1@@Z ; CNetworkPacketHeaderMap::Set

; 174  : 			Set(HEADER_GC_LOVER_INFO, CNetworkPacketHeaderMap::TPacketType(sizeof(TPacketGCLoverInfo), STATIC_SIZE_PACKET));

  00a78	8d 45 e8	 lea	 eax, DWORD PTR $T11[ebp]
; File D:\Metin2 Server Files\mainline\SRC_2014\Metin2Client\eterLib\NetPacketHeaderMap.h

; 12   : 				iPacketSize = iSize;

  00a7b	c7 45 e8 1b 00
	00 00		 mov	 DWORD PTR $T11[ebp], 27	; 0000001bH
; File D:\Metin2 Server Files\mainline\SRC_2014\Metin2Client\UserInterface\PythonNetworkStream.cpp

; 174  : 			Set(HEADER_GC_LOVER_INFO, CNetworkPacketHeaderMap::TPacketType(sizeof(TPacketGCLoverInfo), STATIC_SIZE_PACKET));

  00a82	50		 push	 eax
  00a83	68 83 00 00 00	 push	 131			; 00000083H
  00a88	8b ce		 mov	 ecx, esi
; File D:\Metin2 Server Files\mainline\SRC_2014\Metin2Client\eterLib\NetPacketHeaderMap.h

; 13   : 				isDynamicSizePacket = bFlag;

  00a8a	c6 45 ec 00	 mov	 BYTE PTR $T11[ebp+4], 0
; File D:\Metin2 Server Files\mainline\SRC_2014\Metin2Client\UserInterface\PythonNetworkStream.cpp

; 174  : 			Set(HEADER_GC_LOVER_INFO, CNetworkPacketHeaderMap::TPacketType(sizeof(TPacketGCLoverInfo), STATIC_SIZE_PACKET));

  00a8e	e8 00 00 00 00	 call	 ?Set@CNetworkPacketHeaderMap@@QAEXHAAUSPacketType@1@@Z ; CNetworkPacketHeaderMap::Set

; 175  : 			Set(HEADER_GC_LOVE_POINT_UPDATE, CNetworkPacketHeaderMap::TPacketType(sizeof(TPacketGCLovePointUpdate), STATIC_SIZE_PACKET));

  00a93	8d 45 e8	 lea	 eax, DWORD PTR $T10[ebp]
; File D:\Metin2 Server Files\mainline\SRC_2014\Metin2Client\eterLib\NetPacketHeaderMap.h

; 12   : 				iPacketSize = iSize;

  00a96	c7 45 e8 02 00
	00 00		 mov	 DWORD PTR $T10[ebp], 2
; File D:\Metin2 Server Files\mainline\SRC_2014\Metin2Client\UserInterface\PythonNetworkStream.cpp

; 175  : 			Set(HEADER_GC_LOVE_POINT_UPDATE, CNetworkPacketHeaderMap::TPacketType(sizeof(TPacketGCLovePointUpdate), STATIC_SIZE_PACKET));

  00a9d	50		 push	 eax
  00a9e	68 84 00 00 00	 push	 132			; 00000084H
  00aa3	8b ce		 mov	 ecx, esi
; File D:\Metin2 Server Files\mainline\SRC_2014\Metin2Client\eterLib\NetPacketHeaderMap.h

; 13   : 				isDynamicSizePacket = bFlag;

  00aa5	c6 45 ec 00	 mov	 BYTE PTR $T10[ebp+4], 0
; File D:\Metin2 Server Files\mainline\SRC_2014\Metin2Client\UserInterface\PythonNetworkStream.cpp

; 175  : 			Set(HEADER_GC_LOVE_POINT_UPDATE, CNetworkPacketHeaderMap::TPacketType(sizeof(TPacketGCLovePointUpdate), STATIC_SIZE_PACKET));

  00aa9	e8 00 00 00 00	 call	 ?Set@CNetworkPacketHeaderMap@@QAEXHAAUSPacketType@1@@Z ; CNetworkPacketHeaderMap::Set

; 177  : 			Set(HEADER_GC_DIG_MOTION, CNetworkPacketHeaderMap::TPacketType(sizeof(TPacketGCDigMotion), STATIC_SIZE_PACKET));

  00aae	8d 45 e8	 lea	 eax, DWORD PTR $T9[ebp]
; File D:\Metin2 Server Files\mainline\SRC_2014\Metin2Client\eterLib\NetPacketHeaderMap.h

; 12   : 				iPacketSize = iSize;

  00ab1	c7 45 e8 0a 00
	00 00		 mov	 DWORD PTR $T9[ebp], 10	; 0000000aH
; File D:\Metin2 Server Files\mainline\SRC_2014\Metin2Client\UserInterface\PythonNetworkStream.cpp

; 177  : 			Set(HEADER_GC_DIG_MOTION, CNetworkPacketHeaderMap::TPacketType(sizeof(TPacketGCDigMotion), STATIC_SIZE_PACKET));

  00ab8	50		 push	 eax
  00ab9	68 86 00 00 00	 push	 134			; 00000086H
  00abe	8b ce		 mov	 ecx, esi
; File D:\Metin2 Server Files\mainline\SRC_2014\Metin2Client\eterLib\NetPacketHeaderMap.h

; 13   : 				isDynamicSizePacket = bFlag;

  00ac0	c6 45 ec 00	 mov	 BYTE PTR $T9[ebp+4], 0
; File D:\Metin2 Server Files\mainline\SRC_2014\Metin2Client\UserInterface\PythonNetworkStream.cpp

; 177  : 			Set(HEADER_GC_DIG_MOTION, CNetworkPacketHeaderMap::TPacketType(sizeof(TPacketGCDigMotion), STATIC_SIZE_PACKET));

  00ac4	e8 00 00 00 00	 call	 ?Set@CNetworkPacketHeaderMap@@QAEXHAAUSPacketType@1@@Z ; CNetworkPacketHeaderMap::Set

; 178  : 			Set(HEADER_GC_DAMAGE_INFO, CNetworkPacketHeaderMap::TPacketType(sizeof(TPacketGCDamageInfo), STATIC_SIZE_PACKET));

  00ac9	8d 45 e8	 lea	 eax, DWORD PTR $T8[ebp]
; File D:\Metin2 Server Files\mainline\SRC_2014\Metin2Client\eterLib\NetPacketHeaderMap.h

; 12   : 				iPacketSize = iSize;

  00acc	c7 45 e8 0a 00
	00 00		 mov	 DWORD PTR $T8[ebp], 10	; 0000000aH
; File D:\Metin2 Server Files\mainline\SRC_2014\Metin2Client\UserInterface\PythonNetworkStream.cpp

; 178  : 			Set(HEADER_GC_DAMAGE_INFO, CNetworkPacketHeaderMap::TPacketType(sizeof(TPacketGCDamageInfo), STATIC_SIZE_PACKET));

  00ad3	50		 push	 eax
  00ad4	68 87 00 00 00	 push	 135			; 00000087H
  00ad9	8b ce		 mov	 ecx, esi
; File D:\Metin2 Server Files\mainline\SRC_2014\Metin2Client\eterLib\NetPacketHeaderMap.h

; 13   : 				isDynamicSizePacket = bFlag;

  00adb	c6 45 ec 00	 mov	 BYTE PTR $T8[ebp+4], 0
; File D:\Metin2 Server Files\mainline\SRC_2014\Metin2Client\UserInterface\PythonNetworkStream.cpp

; 178  : 			Set(HEADER_GC_DAMAGE_INFO, CNetworkPacketHeaderMap::TPacketType(sizeof(TPacketGCDamageInfo), STATIC_SIZE_PACKET));

  00adf	e8 00 00 00 00	 call	 ?Set@CNetworkPacketHeaderMap@@QAEXHAAUSPacketType@1@@Z ; CNetworkPacketHeaderMap::Set

; 180  : 			Set(HEADER_GC_HS_REQUEST, CNetworkPacketHeaderMap::TPacketType(sizeof(TPacketHSCheck), STATIC_SIZE_PACKET));

  00ae4	8d 45 e8	 lea	 eax, DWORD PTR $T7[ebp]
; File D:\Metin2 Server Files\mainline\SRC_2014\Metin2Client\eterLib\NetPacketHeaderMap.h

; 12   : 				iPacketSize = iSize;

  00ae7	c7 45 e8 93 01
	00 00		 mov	 DWORD PTR $T7[ebp], 403	; 00000193H
; File D:\Metin2 Server Files\mainline\SRC_2014\Metin2Client\UserInterface\PythonNetworkStream.cpp

; 180  : 			Set(HEADER_GC_HS_REQUEST, CNetworkPacketHeaderMap::TPacketType(sizeof(TPacketHSCheck), STATIC_SIZE_PACKET));

  00aee	50		 push	 eax
  00aef	68 cc 00 00 00	 push	 204			; 000000ccH
  00af4	8b ce		 mov	 ecx, esi
; File D:\Metin2 Server Files\mainline\SRC_2014\Metin2Client\eterLib\NetPacketHeaderMap.h

; 13   : 				isDynamicSizePacket = bFlag;

  00af6	c6 45 ec 00	 mov	 BYTE PTR $T7[ebp+4], 0
; File D:\Metin2 Server Files\mainline\SRC_2014\Metin2Client\UserInterface\PythonNetworkStream.cpp

; 180  : 			Set(HEADER_GC_HS_REQUEST, CNetworkPacketHeaderMap::TPacketType(sizeof(TPacketHSCheck), STATIC_SIZE_PACKET));

  00afa	e8 00 00 00 00	 call	 ?Set@CNetworkPacketHeaderMap@@QAEXHAAUSPacketType@1@@Z ; CNetworkPacketHeaderMap::Set

; 181  : 			Set(HEADER_GC_XTRAP_CS1_REQUEST, CNetworkPacketHeaderMap::TPacketType(sizeof(TPacketXTrapCSVerify), STATIC_SIZE_PACKET));

  00aff	8d 45 e8	 lea	 eax, DWORD PTR $T6[ebp]
; File D:\Metin2 Server Files\mainline\SRC_2014\Metin2Client\eterLib\NetPacketHeaderMap.h

; 12   : 				iPacketSize = iSize;

  00b02	c7 45 e8 81 00
	00 00		 mov	 DWORD PTR $T6[ebp], 129	; 00000081H
; File D:\Metin2 Server Files\mainline\SRC_2014\Metin2Client\UserInterface\PythonNetworkStream.cpp

; 181  : 			Set(HEADER_GC_XTRAP_CS1_REQUEST, CNetworkPacketHeaderMap::TPacketType(sizeof(TPacketXTrapCSVerify), STATIC_SIZE_PACKET));

  00b09	50		 push	 eax
  00b0a	68 cd 00 00 00	 push	 205			; 000000cdH
  00b0f	8b ce		 mov	 ecx, esi
; File D:\Metin2 Server Files\mainline\SRC_2014\Metin2Client\eterLib\NetPacketHeaderMap.h

; 13   : 				isDynamicSizePacket = bFlag;

  00b11	c6 45 ec 00	 mov	 BYTE PTR $T6[ebp+4], 0
; File D:\Metin2 Server Files\mainline\SRC_2014\Metin2Client\UserInterface\PythonNetworkStream.cpp

; 181  : 			Set(HEADER_GC_XTRAP_CS1_REQUEST, CNetworkPacketHeaderMap::TPacketType(sizeof(TPacketXTrapCSVerify), STATIC_SIZE_PACKET));

  00b15	e8 00 00 00 00	 call	 ?Set@CNetworkPacketHeaderMap@@QAEXHAAUSPacketType@1@@Z ; CNetworkPacketHeaderMap::Set

; 183  : 			Set(HEADER_GC_HYBRIDCRYPT_KEYS,	CNetworkPacketHeaderMap::TPacketType(sizeof(TPacketGCHybridCryptKeys), DYNAMIC_SIZE_PACKET));

  00b1a	8d 45 e8	 lea	 eax, DWORD PTR $T5[ebp]
; File D:\Metin2 Server Files\mainline\SRC_2014\Metin2Client\eterLib\NetPacketHeaderMap.h

; 12   : 				iPacketSize = iSize;

  00b1d	c7 45 e8 0b 00
	00 00		 mov	 DWORD PTR $T5[ebp], 11	; 0000000bH
; File D:\Metin2 Server Files\mainline\SRC_2014\Metin2Client\UserInterface\PythonNetworkStream.cpp

; 183  : 			Set(HEADER_GC_HYBRIDCRYPT_KEYS,	CNetworkPacketHeaderMap::TPacketType(sizeof(TPacketGCHybridCryptKeys), DYNAMIC_SIZE_PACKET));

  00b24	50		 push	 eax
  00b25	68 98 00 00 00	 push	 152			; 00000098H
  00b2a	8b ce		 mov	 ecx, esi
; File D:\Metin2 Server Files\mainline\SRC_2014\Metin2Client\eterLib\NetPacketHeaderMap.h

; 13   : 				isDynamicSizePacket = bFlag;

  00b2c	c6 45 ec 01	 mov	 BYTE PTR $T5[ebp+4], 1
; File D:\Metin2 Server Files\mainline\SRC_2014\Metin2Client\UserInterface\PythonNetworkStream.cpp

; 183  : 			Set(HEADER_GC_HYBRIDCRYPT_KEYS,	CNetworkPacketHeaderMap::TPacketType(sizeof(TPacketGCHybridCryptKeys), DYNAMIC_SIZE_PACKET));

  00b30	e8 00 00 00 00	 call	 ?Set@CNetworkPacketHeaderMap@@QAEXHAAUSPacketType@1@@Z ; CNetworkPacketHeaderMap::Set

; 184  : 			Set(HEADER_GC_HYBRIDCRYPT_SDB,	CNetworkPacketHeaderMap::TPacketType(sizeof(TPacketGCHybridSDB), DYNAMIC_SIZE_PACKET));

  00b35	8d 45 e8	 lea	 eax, DWORD PTR $T4[ebp]
; File D:\Metin2 Server Files\mainline\SRC_2014\Metin2Client\eterLib\NetPacketHeaderMap.h

; 12   : 				iPacketSize = iSize;

  00b38	c7 45 e8 0b 00
	00 00		 mov	 DWORD PTR $T4[ebp], 11	; 0000000bH
; File D:\Metin2 Server Files\mainline\SRC_2014\Metin2Client\UserInterface\PythonNetworkStream.cpp

; 184  : 			Set(HEADER_GC_HYBRIDCRYPT_SDB,	CNetworkPacketHeaderMap::TPacketType(sizeof(TPacketGCHybridSDB), DYNAMIC_SIZE_PACKET));

  00b3f	50		 push	 eax
  00b40	68 99 00 00 00	 push	 153			; 00000099H
  00b45	8b ce		 mov	 ecx, esi
; File D:\Metin2 Server Files\mainline\SRC_2014\Metin2Client\eterLib\NetPacketHeaderMap.h

; 13   : 				isDynamicSizePacket = bFlag;

  00b47	c6 45 ec 01	 mov	 BYTE PTR $T4[ebp+4], 1
; File D:\Metin2 Server Files\mainline\SRC_2014\Metin2Client\UserInterface\PythonNetworkStream.cpp

; 184  : 			Set(HEADER_GC_HYBRIDCRYPT_SDB,	CNetworkPacketHeaderMap::TPacketType(sizeof(TPacketGCHybridSDB), DYNAMIC_SIZE_PACKET));

  00b4b	e8 00 00 00 00	 call	 ?Set@CNetworkPacketHeaderMap@@QAEXHAAUSPacketType@1@@Z ; CNetworkPacketHeaderMap::Set
; File D:\Metin2 Server Files\mainline\SRC_2014\Metin2Client\eterLib\NetPacketHeaderMap.h

; 12   : 				iPacketSize = iSize;

  00b50	c7 45 e8 85 00
	00 00		 mov	 DWORD PTR $T3[ebp], 133	; 00000085H
; File D:\Metin2 Server Files\mainline\SRC_2014\Metin2Client\UserInterface\PythonNetworkStream.cpp

; 185  : 			Set(HEADER_GC_SPECIFIC_EFFECT,	CNetworkPacketHeaderMap::TPacketType(sizeof(TPacketGCSpecificEffect), STATIC_SIZE_PACKET));

  00b57	8d 45 e8	 lea	 eax, DWORD PTR $T3[ebp]
; File D:\Metin2 Server Files\mainline\SRC_2014\Metin2Client\eterLib\NetPacketHeaderMap.h

; 13   : 				isDynamicSizePacket = bFlag;

  00b5a	c6 45 ec 00	 mov	 BYTE PTR $T3[ebp+4], 0
; File D:\Metin2 Server Files\mainline\SRC_2014\Metin2Client\UserInterface\PythonNetworkStream.cpp

; 185  : 			Set(HEADER_GC_SPECIFIC_EFFECT,	CNetworkPacketHeaderMap::TPacketType(sizeof(TPacketGCSpecificEffect), STATIC_SIZE_PACKET));

  00b5e	50		 push	 eax
  00b5f	68 d0 00 00 00	 push	 208			; 000000d0H
  00b64	8b ce		 mov	 ecx, esi
  00b66	e8 00 00 00 00	 call	 ?Set@CNetworkPacketHeaderMap@@QAEXHAAUSPacketType@1@@Z ; CNetworkPacketHeaderMap::Set

; 186  : 			Set(HEADER_GC_DRAGON_SOUL_REFINE,		CNetworkPacketHeaderMap::TPacketType(sizeof(TPacketGCDragonSoulRefine), STATIC_SIZE_PACKET));

  00b6b	8d 45 e8	 lea	 eax, DWORD PTR $T2[ebp]
; File D:\Metin2 Server Files\mainline\SRC_2014\Metin2Client\eterLib\NetPacketHeaderMap.h

; 12   : 				iPacketSize = iSize;

  00b6e	c7 45 e8 05 00
	00 00		 mov	 DWORD PTR $T2[ebp], 5
; File D:\Metin2 Server Files\mainline\SRC_2014\Metin2Client\UserInterface\PythonNetworkStream.cpp

; 186  : 			Set(HEADER_GC_DRAGON_SOUL_REFINE,		CNetworkPacketHeaderMap::TPacketType(sizeof(TPacketGCDragonSoulRefine), STATIC_SIZE_PACKET));

  00b75	50		 push	 eax
  00b76	68 d1 00 00 00	 push	 209			; 000000d1H
  00b7b	8b ce		 mov	 ecx, esi
; File D:\Metin2 Server Files\mainline\SRC_2014\Metin2Client\eterLib\NetPacketHeaderMap.h

; 13   : 				isDynamicSizePacket = bFlag;

  00b7d	c6 45 ec 00	 mov	 BYTE PTR $T2[ebp+4], 0
; File D:\Metin2 Server Files\mainline\SRC_2014\Metin2Client\UserInterface\PythonNetworkStream.cpp

; 186  : 			Set(HEADER_GC_DRAGON_SOUL_REFINE,		CNetworkPacketHeaderMap::TPacketType(sizeof(TPacketGCDragonSoulRefine), STATIC_SIZE_PACKET));

  00b81	e8 00 00 00 00	 call	 ?Set@CNetworkPacketHeaderMap@@QAEXHAAUSPacketType@1@@Z ; CNetworkPacketHeaderMap::Set

; 187  : 			
; 188  : 		}

  00b86	8b c6		 mov	 eax, esi
  00b88	8b 4d f4	 mov	 ecx, DWORD PTR __$EHRec$[ebp]
  00b8b	64 89 0d 00 00
	00 00		 mov	 DWORD PTR fs:0, ecx
  00b92	59		 pop	 ecx
  00b93	5e		 pop	 esi
  00b94	8b e5		 mov	 esp, ebp
  00b96	5d		 pop	 ebp
  00b97	c3		 ret	 0
_TEXT	ENDS
;	COMDAT text$x
text$x	SEGMENT
__unwindfunclet$??0CMainPacketHeaderMap@@QAE@XZ$0:
  00000	8b 4d f0	 mov	 ecx, DWORD PTR _this$[ebp]
  00003	e9 00 00 00 00	 jmp	 ??1CNetworkPacketHeaderMap@@UAE@XZ ; CNetworkPacketHeaderMap::~CNetworkPacketHeaderMap
  00008	cc		 int	 3
  00009	cc		 int	 3
  0000a	cc		 int	 3
  0000b	cc		 int	 3
  0000c	cc		 int	 3
__ehhandler$??0CMainPacketHeaderMap@@QAE@XZ:
  0000d	90		 npad	 1
  0000e	90		 npad	 1
  0000f	8b 54 24 08	 mov	 edx, DWORD PTR [esp+8]
  00013	8d 42 0c	 lea	 eax, DWORD PTR [edx+12]
  00016	8b 4a ec	 mov	 ecx, DWORD PTR [edx-20]
  00019	33 c8		 xor	 ecx, eax
  0001b	e8 00 00 00 00	 call	 @__security_check_cookie@4
  00020	b8 00 00 00 00	 mov	 eax, OFFSET __ehfuncinfo$??0CMainPacketHeaderMap@@QAE@XZ
  00025	e9 00 00 00 00	 jmp	 ___CxxFrameHandler3
text$x	ENDS
??0CMainPacketHeaderMap@@QAE@XZ ENDP			; CMainPacketHeaderMap::CMainPacketHeaderMap
; Function compile flags: /Ogtp
;	COMDAT ??_GCPythonNetworkStream@@UAEPAXI@Z
_TEXT	SEGMENT
___flags$ = 8						; size = 4
??_GCPythonNetworkStream@@UAEPAXI@Z PROC		; CPythonNetworkStream::`scalar deleting destructor', COMDAT
; _this$ = ecx
  00000	55		 push	 ebp
  00001	8b ec		 mov	 ebp, esp
  00003	56		 push	 esi
  00004	8b f1		 mov	 esi, ecx
  00006	e8 00 00 00 00	 call	 ??1CPythonNetworkStream@@UAE@XZ ; CPythonNetworkStream::~CPythonNetworkStream
  0000b	f6 45 08 01	 test	 BYTE PTR ___flags$[ebp], 1
  0000f	74 0e		 je	 SHORT $LN4@scalar
  00011	68 50 79 00 00	 push	 31056			; 00007950H
  00016	56		 push	 esi
  00017	e8 00 00 00 00	 call	 ??3@YAXPAXI@Z		; operator delete
  0001c	83 c4 08	 add	 esp, 8
$LN4@scalar:
  0001f	8b c6		 mov	 eax, esi
  00021	5e		 pop	 esi
  00022	5d		 pop	 ebp
  00023	c2 04 00	 ret	 4
??_GCPythonNetworkStream@@UAEPAXI@Z ENDP		; CPythonNetworkStream::`scalar deleting destructor'
_TEXT	ENDS
; Function compile flags: /Ogtp
; File D:\Metin2 Server Files\mainline\SRC_2014\Metin2Client\UserInterface\PythonNetworkStream.cpp
;	COMDAT ?__BettingGuildWar_SetBettingMoney@CPythonNetworkStream@@AAEXI@Z
_TEXT	SEGMENT
_uBettingMoney$ = 8					; size = 4
?__BettingGuildWar_SetBettingMoney@CPythonNetworkStream@@AAEXI@Z PROC ; CPythonNetworkStream::__BettingGuildWar_SetBettingMoney, COMDAT
; _this$ = ecx

; 826  : {

  00000	55		 push	 ebp
  00001	8b ec		 mov	 ebp, esp

; 827  : 	m_kBettingGuildWar.m_dwBettingMoney=uBettingMoney;

  00003	8b 45 08	 mov	 eax, DWORD PTR _uBettingMoney$[ebp]
  00006	89 81 40 79 00
	00		 mov	 DWORD PTR [ecx+31040], eax

; 828  : }

  0000c	5d		 pop	 ebp
  0000d	c2 04 00	 ret	 4
?__BettingGuildWar_SetBettingMoney@CPythonNetworkStream@@AAEXI@Z ENDP ; CPythonNetworkStream::__BettingGuildWar_SetBettingMoney
_TEXT	ENDS
; Function compile flags: /Ogtp
; File D:\Metin2 Server Files\mainline\SRC_2014\Metin2Client\UserInterface\PythonNetworkStream.cpp
;	COMDAT ?__BettingGuildWar_SetObserverCount@CPythonNetworkStream@@AAEXI@Z
_TEXT	SEGMENT
_uObserverCount$ = 8					; size = 4
?__BettingGuildWar_SetObserverCount@CPythonNetworkStream@@AAEXI@Z PROC ; CPythonNetworkStream::__BettingGuildWar_SetObserverCount, COMDAT
; _this$ = ecx

; 821  : {

  00000	55		 push	 ebp
  00001	8b ec		 mov	 ebp, esp

; 822  : 	m_kBettingGuildWar.m_dwObserverCount=uObserverCount;

  00003	8b 45 08	 mov	 eax, DWORD PTR _uObserverCount$[ebp]
  00006	89 81 44 79 00
	00		 mov	 DWORD PTR [ecx+31044], eax

; 823  : }

  0000c	5d		 pop	 ebp
  0000d	c2 04 00	 ret	 4
?__BettingGuildWar_SetObserverCount@CPythonNetworkStream@@AAEXI@Z ENDP ; CPythonNetworkStream::__BettingGuildWar_SetObserverCount
_TEXT	ENDS
; Function compile flags: /Ogtp
; File D:\Metin2 Server Files\mainline\SRC_2014\Metin2Client\UserInterface\PythonNetworkStream.cpp
;	COMDAT ?__BettingGuildWar_Initialize@CPythonNetworkStream@@AAEXXZ
_TEXT	SEGMENT
?__BettingGuildWar_Initialize@CPythonNetworkStream@@AAEXXZ PROC ; CPythonNetworkStream::__BettingGuildWar_Initialize, COMDAT
; _this$ = ecx

; 816  : 	m_kBettingGuildWar.m_dwBettingMoney=0;

  00000	c7 81 40 79 00
	00 00 00 00 00	 mov	 DWORD PTR [ecx+31040], 0

; 817  : 	m_kBettingGuildWar.m_dwObserverCount=0;

  0000a	c7 81 44 79 00
	00 00 00 00 00	 mov	 DWORD PTR [ecx+31044], 0

; 818  : }

  00014	c3		 ret	 0
?__BettingGuildWar_Initialize@CPythonNetworkStream@@AAEXXZ ENDP ; CPythonNetworkStream::__BettingGuildWar_Initialize
_TEXT	ENDS
; Function compile flags: /Ogtp
; File D:\Metin2 Server Files\mainline\SRC_2014\Metin2Client\UserInterface\PythonNetworkStream.cpp
;	COMDAT ?EXPORT_GetBettingGuildWarValue@CPythonNetworkStream@@QAEKPBD@Z
_TEXT	SEGMENT
_c_szValueName$ = 8					; size = 4
?EXPORT_GetBettingGuildWarValue@CPythonNetworkStream@@QAEKPBD@Z PROC ; CPythonNetworkStream::EXPORT_GetBettingGuildWarValue, COMDAT
; _this$ = ecx

; 831  : {

  00000	55		 push	 ebp
  00001	8b ec		 mov	 ebp, esp
  00003	56		 push	 esi

; 832  : 	if (stricmp(c_szValueName, "OBSERVER_COUNT") == 0)

  00004	68 00 00 00 00	 push	 OFFSET ??_C@_0P@MDCECFOM@OBSERVER_COUNT@
  00009	ff 75 08	 push	 DWORD PTR _c_szValueName$[ebp]
  0000c	8b f1		 mov	 esi, ecx
  0000e	e8 00 00 00 00	 call	 __stricmp
  00013	83 c4 08	 add	 esp, 8
  00016	85 c0		 test	 eax, eax
  00018	75 0b		 jne	 SHORT $LN2@EXPORT_Get

; 833  : 		return m_kBettingGuildWar.m_dwObserverCount;

  0001a	8b 86 44 79 00
	00		 mov	 eax, DWORD PTR [esi+31044]
  00020	5e		 pop	 esi

; 839  : }

  00021	5d		 pop	 ebp
  00022	c2 04 00	 ret	 4
$LN2@EXPORT_Get:

; 834  : 
; 835  : 	if (stricmp(c_szValueName, "BETTING_MONEY") == 0)

  00025	68 00 00 00 00	 push	 OFFSET ??_C@_0O@FEJHKOEO@BETTING_MONEY@
  0002a	ff 75 08	 push	 DWORD PTR _c_szValueName$[ebp]
  0002d	e8 00 00 00 00	 call	 __stricmp
  00032	83 c4 08	 add	 esp, 8
  00035	85 c0		 test	 eax, eax
  00037	75 0b		 jne	 SHORT $LN3@EXPORT_Get

; 836  : 		return m_kBettingGuildWar.m_dwBettingMoney;

  00039	8b 86 40 79 00
	00		 mov	 eax, DWORD PTR [esi+31040]
  0003f	5e		 pop	 esi

; 839  : }

  00040	5d		 pop	 ebp
  00041	c2 04 00	 ret	 4
$LN3@EXPORT_Get:

; 837  : 
; 838  : 	return 0;

  00044	33 c0		 xor	 eax, eax
  00046	5e		 pop	 esi

; 839  : }

  00047	5d		 pop	 ebp
  00048	c2 04 00	 ret	 4
?EXPORT_GetBettingGuildWarValue@CPythonNetworkStream@@QAEKPBD@Z ENDP ; CPythonNetworkStream::EXPORT_GetBettingGuildWarValue
_TEXT	ENDS
; Function compile flags: /Ogtp
; File D:\Metin2 Server Files\mainline\SRC_2014\Metin2Client\UserInterface\PythonNetworkStream.cpp
;	COMDAT ?__DirectEnterMode_IsSet@CPythonNetworkStream@@AAE_NXZ
_TEXT	SEGMENT
?__DirectEnterMode_IsSet@CPythonNetworkStream@@AAE_NXZ PROC ; CPythonNetworkStream::__DirectEnterMode_IsSet, COMDAT
; _this$ = ecx

; 805  : 	return m_kDirectEnterMode.m_isSet;

  00000	8a 81 38 79 00
	00		 mov	 al, BYTE PTR [ecx+31032]

; 806  : }

  00006	c3		 ret	 0
?__DirectEnterMode_IsSet@CPythonNetworkStream@@AAE_NXZ ENDP ; CPythonNetworkStream::__DirectEnterMode_IsSet
_TEXT	ENDS
; Function compile flags: /Ogtp
; File D:\Metin2 Server Files\mainline\SRC_2014\Metin2Client\UserInterface\PythonNetworkStream.cpp
;	COMDAT ?__DirectEnterMode_Set@CPythonNetworkStream@@AAEXI@Z
_TEXT	SEGMENT
_uChrSlotIndex$ = 8					; size = 4
?__DirectEnterMode_Set@CPythonNetworkStream@@AAEXI@Z PROC ; CPythonNetworkStream::__DirectEnterMode_Set, COMDAT
; _this$ = ecx

; 798  : {

  00000	55		 push	 ebp
  00001	8b ec		 mov	 ebp, esp

; 799  : 	m_kDirectEnterMode.m_isSet=true;
; 800  : 	m_kDirectEnterMode.m_dwChrSlotIndex=uChrSlotIndex;

  00003	8b 45 08	 mov	 eax, DWORD PTR _uChrSlotIndex$[ebp]
  00006	c6 81 38 79 00
	00 01		 mov	 BYTE PTR [ecx+31032], 1
  0000d	89 81 3c 79 00
	00		 mov	 DWORD PTR [ecx+31036], eax

; 801  : }

  00013	5d		 pop	 ebp
  00014	c2 04 00	 ret	 4
?__DirectEnterMode_Set@CPythonNetworkStream@@AAEXI@Z ENDP ; CPythonNetworkStream::__DirectEnterMode_Set
_TEXT	ENDS
; Function compile flags: /Ogtp
; File D:\Metin2 Server Files\mainline\SRC_2014\Metin2Client\UserInterface\PythonNetworkStream.cpp
;	COMDAT ?__DirectEnterMode_Initialize@CPythonNetworkStream@@AAEXXZ
_TEXT	SEGMENT
?__DirectEnterMode_Initialize@CPythonNetworkStream@@AAEXXZ PROC ; CPythonNetworkStream::__DirectEnterMode_Initialize, COMDAT
; _this$ = ecx

; 793  : 	m_kDirectEnterMode.m_isSet=false;

  00000	c6 81 38 79 00
	00 00		 mov	 BYTE PTR [ecx+31032], 0

; 794  : 	m_kDirectEnterMode.m_dwChrSlotIndex=0;	

  00007	c7 81 3c 79 00
	00 00 00 00 00	 mov	 DWORD PTR [ecx+31036], 0

; 795  : }

  00011	c3		 ret	 0
?__DirectEnterMode_Initialize@CPythonNetworkStream@@AAEXXZ ENDP ; CPythonNetworkStream::__DirectEnterMode_Initialize
_TEXT	ENDS
; Function compile flags: /Ogtp
; File C:\Program Files (x86)\Microsoft Visual Studio\2019\Community\VC\Tools\MSVC\14.28.29333\include\deque
; File C:\Program Files (x86)\Microsoft Visual Studio\2019\Community\VC\Tools\MSVC\14.28.29333\include\xstring
; File C:\Program Files (x86)\Microsoft Visual Studio\2019\Community\VC\Tools\MSVC\14.28.29333\include\xmemory
; File C:\Program Files (x86)\Microsoft Visual Studio\2019\Community\VC\Tools\MSVC\14.28.29333\include\xstring
; File C:\Program Files (x86)\Microsoft Visual Studio\2019\Community\VC\Tools\MSVC\14.28.29333\include\deque
; File C:\Program Files (x86)\Microsoft Visual Studio\2019\Community\VC\Tools\MSVC\14.28.29333\include\xmemory
; File C:\Program Files (x86)\Microsoft Visual Studio\2019\Community\VC\Tools\MSVC\14.28.29333\include\deque
; File C:\Program Files (x86)\Microsoft Visual Studio\2019\Community\VC\Tools\MSVC\14.28.29333\include\xmemory
; File C:\Program Files (x86)\Microsoft Visual Studio\2019\Community\VC\Tools\MSVC\14.28.29333\include\utility
; File C:\Program Files (x86)\Microsoft Visual Studio\2019\Community\VC\Tools\MSVC\14.28.29333\include\deque
; File C:\Program Files (x86)\Microsoft Visual Studio\2019\Community\VC\Tools\MSVC\14.28.29333\include\utility
; File C:\Program Files (x86)\Microsoft Visual Studio\2019\Community\VC\Tools\MSVC\14.28.29333\include\deque
;	COMDAT ??1?$deque@V?$basic_string@DU?$char_traits@D@std@@V?$allocator@D@2@@std@@V?$allocator@V?$basic_string@DU?$char_traits@D@std@@V?$allocator@D@2@@std@@@2@@std@@QAE@XZ
_TEXT	SEGMENT
__Proxy_allocator$ = -1					; size = 1
??1?$deque@V?$basic_string@DU?$char_traits@D@std@@V?$allocator@D@2@@std@@V?$allocator@V?$basic_string@DU?$char_traits@D@std@@V?$allocator@D@2@@std@@@2@@std@@QAE@XZ PROC ; std::deque<std::basic_string<char,std::char_traits<char>,std::allocator<char> >,std::allocator<std::basic_string<char,std::char_traits<char>,std::allocator<char> > > >::~deque<std::basic_string<char,std::char_traits<char>,std::allocator<char> >,std::allocator<std::basic_string<char,std::char_traits<char>,std::allocator<char> > > >, COMDAT
; _this$ = ecx

; 869  :     ~deque() noexcept {

  00000	55		 push	 ebp
  00001	8b ec		 mov	 ebp, esp
  00003	51		 push	 ecx
  00004	56		 push	 esi
  00005	8b f1		 mov	 esi, ecx
  00007	57		 push	 edi

; 1010 :         return _Mysize() == 0;

  00008	8b 4e 10	 mov	 ecx, DWORD PTR [esi+16]
  0000b	85 c9		 test	 ecx, ecx

; 1473 :         while (!empty()) {

  0000d	74 4e		 je	 SHORT $LN5@deque
  0000f	90		 npad	 1
$LL4@deque:

; 548  :         return (_Off / _DEQUESIZ) & (_Mapsize - 1);

  00010	8b 46 0c	 mov	 eax, DWORD PTR [esi+12]
  00013	48		 dec	 eax
  00014	03 c8		 add	 ecx, eax
  00016	8b 46 08	 mov	 eax, DWORD PTR [esi+8]
  00019	48		 dec	 eax
  0001a	23 c8		 and	 ecx, eax

; 1143 :         _Alty_traits::destroy(_Getal(), _Unfancy(_Map()[_Block] + _Newoff % _DEQUESIZ));

  0001c	8b 46 04	 mov	 eax, DWORD PTR [esi+4]
  0001f	8b 3c 88	 mov	 edi, DWORD PTR [eax+ecx*4]
; File C:\Program Files (x86)\Microsoft Visual Studio\2019\Community\VC\Tools\MSVC\14.28.29333\include\xstring

; 2227 :         return _BUF_SIZE <= _Myres;

  00022	8b 47 14	 mov	 eax, DWORD PTR [edi+20]
  00025	83 f8 10	 cmp	 eax, 16			; 00000010H

; 4385 :         if (_Mypair._Myval2._Large_string_engaged()) {

  00028	72 0c		 jb	 SHORT $LN30@deque

; 4386 :             const pointer _Ptr = _Mypair._Myval2._Bx._Ptr;
; 4387 :             auto& _Al          = _Getal();
; 4388 :             _Destroy_in_place(_Mypair._Myval2._Bx._Ptr);
; 4389 :             _Al.deallocate(_Ptr, _Mypair._Myval2._Myres + 1);

  0002a	40		 inc	 eax
; File C:\Program Files (x86)\Microsoft Visual Studio\2019\Community\VC\Tools\MSVC\14.28.29333\include\xmemory

; 810  :         _Deallocate<_New_alignof<_Ty>>(_Ptr, sizeof(_Ty) * _Count);

  0002b	50		 push	 eax
  0002c	ff 37		 push	 DWORD PTR [edi]
  0002e	e8 00 00 00 00	 call	 ??$_Deallocate@$07$0A@@std@@YAXPAXI@Z ; std::_Deallocate<8,0>
  00033	83 c4 08	 add	 esp, 8
$LN30@deque:
; File C:\Program Files (x86)\Microsoft Visual Studio\2019\Community\VC\Tools\MSVC\14.28.29333\include\xstring

; 4392 :         _Mypair._Myval2._Mysize = 0;

  00036	c7 47 10 00 00
	00 00		 mov	 DWORD PTR [edi+16], 0

; 4393 :         _Mypair._Myval2._Myres  = _BUF_SIZE - 1;

  0003d	c7 47 14 0f 00
	00 00		 mov	 DWORD PTR [edi+20], 15	; 0000000fH

; 4394 :         // the _Traits::assign is last so the codegen doesn't think the char write can alias this
; 4395 :         _Traits::assign(_Mypair._Myval2._Bx._Buf[0], _Elem());

  00044	c6 07 00	 mov	 BYTE PTR [edi], 0
; File C:\Program Files (x86)\Microsoft Visual Studio\2019\Community\VC\Tools\MSVC\14.28.29333\include\deque

; 1144 :         if (--_Mysize() == 0) {

  00047	8b 4e 10	 mov	 ecx, DWORD PTR [esi+16]
  0004a	83 e9 01	 sub	 ecx, 1
  0004d	89 4e 10	 mov	 DWORD PTR [esi+16], ecx
  00050	75 07		 jne	 SHORT $LN50@deque

; 1145 :             _Myoff() = 0;

  00052	c7 46 0c 00 00
	00 00		 mov	 DWORD PTR [esi+12], 0
$LN50@deque:

; 1010 :         return _Mysize() == 0;

  00059	85 c9		 test	 ecx, ecx

; 1473 :         while (!empty()) {

  0005b	75 b3		 jne	 SHORT $LL4@deque
$LN5@deque:

; 1477 :         for (size_type _Block = _Mapsize(); 0 < _Block;) { // free storage for a block and destroy pointer

  0005d	8b 7e 08	 mov	 edi, DWORD PTR [esi+8]
  00060	85 ff		 test	 edi, edi
  00062	74 1a		 je	 SHORT $LN7@deque
$LL44@deque:

; 1478 :             if (_Map()[--_Block]) { // free block and destroy its pointer

  00064	8b 46 04	 mov	 eax, DWORD PTR [esi+4]
  00067	4f		 dec	 edi
  00068	8b 04 b8	 mov	 eax, DWORD PTR [eax+edi*4]
  0006b	85 c0		 test	 eax, eax
  0006d	74 0b		 je	 SHORT $LN9@deque
; File C:\Program Files (x86)\Microsoft Visual Studio\2019\Community\VC\Tools\MSVC\14.28.29333\include\xmemory

; 810  :         _Deallocate<_New_alignof<_Ty>>(_Ptr, sizeof(_Ty) * _Count);

  0006f	6a 18		 push	 24			; 00000018H
  00071	50		 push	 eax
  00072	e8 00 00 00 00	 call	 ??$_Deallocate@$07$0A@@std@@YAXPAXI@Z ; std::_Deallocate<8,0>
  00077	83 c4 08	 add	 esp, 8
$LN9@deque:
; File C:\Program Files (x86)\Microsoft Visual Studio\2019\Community\VC\Tools\MSVC\14.28.29333\include\deque

; 1477 :         for (size_type _Block = _Mapsize(); 0 < _Block;) { // free storage for a block and destroy pointer

  0007a	85 ff		 test	 edi, edi
  0007c	75 e6		 jne	 SHORT $LL44@deque
$LN7@deque:

; 1479 :                 _Getal().deallocate(_Map()[_Block], _DEQUESIZ);
; 1480 :                 _Destroy_in_place(_Map()[_Block]);
; 1481 :             }
; 1482 :         }
; 1483 : 
; 1484 :         if (_Map() != _Mapptr()) {

  0007e	8b 4e 04	 mov	 ecx, DWORD PTR [esi+4]
  00081	85 c9		 test	 ecx, ecx
  00083	74 10		 je	 SHORT $LN10@deque
; File C:\Program Files (x86)\Microsoft Visual Studio\2019\Community\VC\Tools\MSVC\14.28.29333\include\xmemory

; 810  :         _Deallocate<_New_alignof<_Ty>>(_Ptr, sizeof(_Ty) * _Count);

  00085	8b 46 08	 mov	 eax, DWORD PTR [esi+8]
  00088	c1 e0 02	 shl	 eax, 2
  0008b	50		 push	 eax
  0008c	51		 push	 ecx
  0008d	e8 00 00 00 00	 call	 ??$_Deallocate@$07$0A@@std@@YAXPAXI@Z ; std::_Deallocate<8,0>
  00092	83 c4 08	 add	 esp, 8
$LN10@deque:
; File C:\Program Files (x86)\Microsoft Visual Studio\2019\Community\VC\Tools\MSVC\14.28.29333\include\utility

; 598  :     _Ty _Old_val = static_cast<_Ty&&>(_Val);

  00095	8b 06		 mov	 eax, DWORD PTR [esi]
; File C:\Program Files (x86)\Microsoft Visual Studio\2019\Community\VC\Tools\MSVC\14.28.29333\include\deque

; 872  :         _Delete_plain_internal(_Proxy_allocator, _STD exchange(_Get_data()._Myproxy, nullptr));

  00097	50		 push	 eax
  00098	8d 45 ff	 lea	 eax, DWORD PTR __Proxy_allocator$[ebp]

; 1488 :         _Mapsize() = 0;

  0009b	c7 46 08 00 00
	00 00		 mov	 DWORD PTR [esi+8], 0

; 872  :         _Delete_plain_internal(_Proxy_allocator, _STD exchange(_Get_data()._Myproxy, nullptr));

  000a2	50		 push	 eax

; 1489 :         _Map()     = _Mapptr();

  000a3	c7 46 04 00 00
	00 00		 mov	 DWORD PTR [esi+4], 0
; File C:\Program Files (x86)\Microsoft Visual Studio\2019\Community\VC\Tools\MSVC\14.28.29333\include\utility

; 599  :     _Val         = static_cast<_Other&&>(_New_val);

  000aa	c7 06 00 00 00
	00		 mov	 DWORD PTR [esi], 0
; File C:\Program Files (x86)\Microsoft Visual Studio\2019\Community\VC\Tools\MSVC\14.28.29333\include\deque

; 872  :         _Delete_plain_internal(_Proxy_allocator, _STD exchange(_Get_data()._Myproxy, nullptr));

  000b0	e8 00 00 00 00	 call	 ??$_Delete_plain_internal@V?$allocator@U_Container_proxy@std@@@std@@@std@@YAXAAV?$allocator@U_Container_proxy@std@@@0@QAU_Container_proxy@0@@Z ; std::_Delete_plain_internal<std::allocator<std::_Container_proxy> >
  000b5	83 c4 08	 add	 esp, 8
  000b8	5f		 pop	 edi
  000b9	5e		 pop	 esi

; 873  :     }

  000ba	8b e5		 mov	 esp, ebp
  000bc	5d		 pop	 ebp
  000bd	c3		 ret	 0
??1?$deque@V?$basic_string@DU?$char_traits@D@std@@V?$allocator@D@2@@std@@V?$allocator@V?$basic_string@DU?$char_traits@D@std@@V?$allocator@D@2@@std@@@2@@std@@QAE@XZ ENDP ; std::deque<std::basic_string<char,std::char_traits<char>,std::allocator<char> >,std::allocator<std::basic_string<char,std::char_traits<char>,std::allocator<char> > > >::~deque<std::basic_string<char,std::char_traits<char>,std::allocator<char> >,std::allocator<std::basic_string<char,std::char_traits<char>,std::allocator<char> > > >
_TEXT	ENDS
; Function compile flags: /Ogtp
;	COMDAT ??1SMarkAuth@CPythonNetworkStream@@QAE@XZ
_TEXT	SEGMENT
??1SMarkAuth@CPythonNetworkStream@@QAE@XZ PROC		; CPythonNetworkStream::SMarkAuth::~SMarkAuth, COMDAT
; _this$ = ecx
  00000	e9 00 00 00 00	 jmp	 ??1CNetworkAddress@@QAE@XZ ; CNetworkAddress::~CNetworkAddress
??1SMarkAuth@CPythonNetworkStream@@QAE@XZ ENDP		; CPythonNetworkStream::SMarkAuth::~SMarkAuth
_TEXT	ENDS
; Function compile flags: /Ogtp
; File D:\Metin2 Server Files\mainline\SRC_2014\Metin2Client\eterlib\Ref.h
;	COMDAT ??1?$CRef@VCNetworkActorManager@@@@QAE@XZ
_TEXT	SEGMENT
__$EHRec$ = -12						; size = 12
??1?$CRef@VCNetworkActorManager@@@@QAE@XZ PROC		; CRef<CNetworkActorManager>::~CRef<CNetworkActorManager>, COMDAT
; _this$ = ecx

; 37   : 		{

  00000	55		 push	 ebp
  00001	8b ec		 mov	 ebp, esp
  00003	6a ff		 push	 -1
  00005	68 00 00 00 00	 push	 __ehhandler$??1?$CRef@VCNetworkActorManager@@@@QAE@XZ
  0000a	64 a1 00 00 00
	00		 mov	 eax, DWORD PTR fs:0
  00010	50		 push	 eax
  00011	56		 push	 esi
  00012	a1 00 00 00 00	 mov	 eax, DWORD PTR ___security_cookie
  00017	33 c5		 xor	 eax, ebp
  00019	50		 push	 eax
  0001a	8d 45 f4	 lea	 eax, DWORD PTR __$EHRec$[ebp]
  0001d	64 a3 00 00 00
	00		 mov	 DWORD PTR fs:0, eax
  00023	8b f1		 mov	 esi, ecx

; 53   : 			if (m_pObject)

  00025	8b 0e		 mov	 ecx, DWORD PTR [esi]
  00027	85 c9		 test	 ecx, ecx
  00029	74 0b		 je	 SHORT $LN4@CRef

; 54   : 			{
; 55   : 				m_pObject->Release();

  0002b	e8 00 00 00 00	 call	 ?Release@CReferenceObject@@QAEXXZ ; CReferenceObject::Release

; 56   : 				m_pObject = NULL;

  00030	c7 06 00 00 00
	00		 mov	 DWORD PTR [esi], 0
$LN4@CRef:

; 38   : 			Clear();
; 39   : 		}

  00036	8b 4d f4	 mov	 ecx, DWORD PTR __$EHRec$[ebp]
  00039	64 89 0d 00 00
	00 00		 mov	 DWORD PTR fs:0, ecx
  00040	59		 pop	 ecx
  00041	5e		 pop	 esi
  00042	8b e5		 mov	 esp, ebp
  00044	5d		 pop	 ebp
  00045	c3		 ret	 0
  00046	cc		 int	 3
  00047	cc		 int	 3
  00048	cc		 int	 3
  00049	cc		 int	 3
  0004a	cc		 int	 3
_TEXT	ENDS
;	COMDAT text$x
text$x	SEGMENT
__ehhandler$??1?$CRef@VCNetworkActorManager@@@@QAE@XZ:
  00000	90		 npad	 1
  00001	90		 npad	 1
  00002	8b 54 24 08	 mov	 edx, DWORD PTR [esp+8]
  00006	8d 42 0c	 lea	 eax, DWORD PTR [edx+12]
  00009	8b 4a f8	 mov	 ecx, DWORD PTR [edx-8]
  0000c	33 c8		 xor	 ecx, eax
  0000e	e8 00 00 00 00	 call	 @__security_check_cookie@4
  00013	b8 00 00 00 00	 mov	 eax, OFFSET __ehfuncinfo$??1?$CRef@VCNetworkActorManager@@@@QAE@XZ
  00018	e9 00 00 00 00	 jmp	 ___CxxFrameHandler3
text$x	ENDS
??1?$CRef@VCNetworkActorManager@@@@QAE@XZ ENDP		; CRef<CNetworkActorManager>::~CRef<CNetworkActorManager>
; Function compile flags: /Ogtp
;	COMDAT ??_G?$CFuncObject@VCPythonNetworkStream@@@@UAEPAXI@Z
_TEXT	SEGMENT
___flags$ = 8						; size = 4
??_G?$CFuncObject@VCPythonNetworkStream@@@@UAEPAXI@Z PROC ; CFuncObject<CPythonNetworkStream>::`scalar deleting destructor', COMDAT
; _this$ = ecx
  00000	55		 push	 ebp
  00001	8b ec		 mov	 ebp, esp
  00003	f6 45 08 01	 test	 BYTE PTR ___flags$[ebp], 1
  00007	56		 push	 esi
  00008	8b f1		 mov	 esi, ecx
  0000a	c7 06 00 00 00
	00		 mov	 DWORD PTR [esi], OFFSET ??_7?$CFuncObject@VCPythonNetworkStream@@@@6B@
  00010	74 0b		 je	 SHORT $LN4@scalar
  00012	6a 18		 push	 24			; 00000018H
  00014	56		 push	 esi
  00015	e8 00 00 00 00	 call	 ??3@YAXPAXI@Z		; operator delete
  0001a	83 c4 08	 add	 esp, 8
$LN4@scalar:
  0001d	8b c6		 mov	 eax, esi
  0001f	5e		 pop	 esi
  00020	5d		 pop	 ebp
  00021	c2 04 00	 ret	 4
??_G?$CFuncObject@VCPythonNetworkStream@@@@UAEPAXI@Z ENDP ; CFuncObject<CPythonNetworkStream>::`scalar deleting destructor'
_TEXT	ENDS
; Function compile flags: /Ogtp
; File D:\Metin2 Server Files\mainline\SRC_2014\Metin2Client\eterLib\FuncObject.h
;	COMDAT ??1?$CFuncObject@VCPythonNetworkStream@@@@UAE@XZ
_TEXT	SEGMENT
??1?$CFuncObject@VCPythonNetworkStream@@@@UAE@XZ PROC	; CFuncObject<CPythonNetworkStream>::~CFuncObject<CPythonNetworkStream>, COMDAT
; _this$ = ecx

; 13   : 		{

  00000	c7 01 00 00 00
	00		 mov	 DWORD PTR [ecx], OFFSET ??_7?$CFuncObject@VCPythonNetworkStream@@@@6B@

; 14   : 		}

  00006	c3		 ret	 0
??1?$CFuncObject@VCPythonNetworkStream@@@@UAE@XZ ENDP	; CFuncObject<CPythonNetworkStream>::~CFuncObject<CPythonNetworkStream>
_TEXT	ENDS
; Function compile flags: /Ogtp
; File D:\Metin2 Server Files\mainline\SRC_2014\Metin2Client\UserInterface\PythonNetworkStream.cpp
;	COMDAT ?__ServerTimeSync_Initialize@CPythonNetworkStream@@IAEXXZ
_TEXT	SEGMENT
?__ServerTimeSync_Initialize@CPythonNetworkStream@@IAEXXZ PROC ; CPythonNetworkStream::__ServerTimeSync_Initialize, COMDAT
; _this$ = ecx

; 843  : 	m_kServerTimeSync.m_dwChangeClientTime=0;

  00000	c7 81 bc 00 00
	00 00 00 00 00	 mov	 DWORD PTR [ecx+188], 0

; 844  : 	m_kServerTimeSync.m_dwChangeServerTime=0;

  0000a	c7 81 b8 00 00
	00 00 00 00 00	 mov	 DWORD PTR [ecx+184], 0

; 845  : }

  00014	c3		 ret	 0
?__ServerTimeSync_Initialize@CPythonNetworkStream@@IAEXXZ ENDP ; CPythonNetworkStream::__ServerTimeSync_Initialize
_TEXT	ENDS
; Function compile flags: /Ogtp
; File D:\Metin2 Server Files\mainline\SRC_2014\Metin2Client\UserInterface\PythonNetworkStream.cpp
; File C:\Program Files (x86)\Microsoft Visual Studio\2019\Community\VC\Tools\MSVC\14.28.29333\include\xstring
; File D:\Metin2 Server Files\mainline\SRC_2014\Metin2Client\UserInterface\PythonNetworkStream.cpp
; File C:\Program Files (x86)\Microsoft Visual Studio\2019\Community\VC\Tools\MSVC\14.28.29333\include\xstring
; File D:\Metin2 Server Files\mainline\SRC_2014\Metin2Client\UserInterface\PythonNetworkStream.cpp
;	COMDAT ?__ClearSelectCharacterData@CPythonNetworkStream@@IAEXXZ
_TEXT	SEGMENT
_this$1$ = -4						; size = 4
?__ClearSelectCharacterData@CPythonNetworkStream@@IAEXXZ PROC ; CPythonNetworkStream::__ClearSelectCharacterData, COMDAT
; _this$ = ecx

; 779  : {

  00000	55		 push	 ebp
  00001	8b ec		 mov	 ebp, esp
  00003	51		 push	 ecx
  00004	53		 push	 ebx
  00005	56		 push	 esi
  00006	57		 push	 edi
  00007	89 4d fc	 mov	 DWORD PTR _this$1$[ebp], ecx

; 780  : 	NANOBEGIN

  0000a	eb		 DB	 -21			; ffffffebH
  0000b	03		 DB	 3
  0000c	d6		 DB	 -42			; ffffffd6H
  0000d	d7		 DB	 -41			; ffffffd7H
  0000e	01		 DB	 1
  0000f	8b 5d fc	 mov	 ebx, DWORD PTR _this$1$[ebp]
  00012	68 fc 00 00 00	 push	 252			; 000000fcH
  00017	6a 00		 push	 0
  00019	8d 83 9c 01 00
	00		 lea	 eax, DWORD PTR [ebx+412]
  0001f	50		 push	 eax
  00020	e8 00 00 00 00	 call	 _memset
  00025	8d bb a8 02 00
	00		 lea	 edi, DWORD PTR [ebx+680]
  0002b	83 c4 0c	 add	 esp, 12			; 0000000cH
  0002e	8d b3 98 02 00
	00		 lea	 esi, DWORD PTR [ebx+664]
  00034	bb 04 00 00 00	 mov	 ebx, 4
  00039	0f 1f 80 00 00
	00 00		 npad	 7
$LL4@ClearSelec:
; File C:\Program Files (x86)\Microsoft Visual Studio\2019\Community\VC\Tools\MSVC\14.28.29333\include\xstring

; 3062 :         return assign(_Ptr, _Convert_size<size_type>(_Traits::length(_Ptr)));

  00040	6a 00		 push	 0
  00042	68 00 00 00 00	 push	 OFFSET ??_C@_00CNPNBAHC@@
  00047	8b cf		 mov	 ecx, edi
; File D:\Metin2 Server Files\mainline\SRC_2014\Metin2Client\UserInterface\PythonNetworkStream.cpp

; 785  : 		m_adwGuildID[i] = 0;

  00049	c7 06 00 00 00
	00		 mov	 DWORD PTR [esi], 0
; File C:\Program Files (x86)\Microsoft Visual Studio\2019\Community\VC\Tools\MSVC\14.28.29333\include\xstring

; 3062 :         return assign(_Ptr, _Convert_size<size_type>(_Traits::length(_Ptr)));

  0004f	e8 00 00 00 00	 call	 ?assign@?$basic_string@DU?$char_traits@D@std@@V?$allocator@D@2@@std@@QAEAAV12@QBDI@Z ; std::basic_string<char,std::char_traits<char>,std::allocator<char> >::assign
; File D:\Metin2 Server Files\mainline\SRC_2014\Metin2Client\UserInterface\PythonNetworkStream.cpp

; 783  : 	for (int i = 0; i < PLAYER_PER_ACCOUNT4; ++i)

  00054	83 c7 18	 add	 edi, 24			; 00000018H
  00057	8d 76 04	 lea	 esi, DWORD PTR [esi+4]
  0005a	83 eb 01	 sub	 ebx, 1
  0005d	75 e1		 jne	 SHORT $LL4@ClearSelec

; 786  : 		m_astrGuildName[i] = "";
; 787  : 	}
; 788  : 	NANOEND

  0005f	eb		 DB	 -21			; ffffffebH
  00060	03		 DB	 3
  00061	d6		 DB	 -42			; ffffffd6H
  00062	d7		 DB	 -41			; ffffffd7H
  00063	00		 DB	 0
  00064	5f		 pop	 edi
  00065	5e		 pop	 esi
  00066	5b		 pop	 ebx
  00067	8b e5		 mov	 esp, ebp
  00069	5d		 pop	 ebp
  0006a	c3		 ret	 0
?__ClearSelectCharacterData@CPythonNetworkStream@@IAEXXZ ENDP ; CPythonNetworkStream::__ClearSelectCharacterData
_TEXT	ENDS
; Function compile flags: /Ogtp
; File D:\Metin2 Server Files\mainline\SRC_2014\Metin2Client\UserInterface\PythonNetworkStream.h
;	COMDAT ?__LeaveOfflinePhase@CPythonNetworkStream@@IAEXXZ
_TEXT	SEGMENT
?__LeaveOfflinePhase@CPythonNetworkStream@@IAEXXZ PROC	; CPythonNetworkStream::__LeaveOfflinePhase, COMDAT
; _this$ = ecx

; 589  : 		void __LeaveOfflinePhase() {}

  00000	c2 00 00	 ret	 0
?__LeaveOfflinePhase@CPythonNetworkStream@@IAEXXZ ENDP	; CPythonNetworkStream::__LeaveOfflinePhase
_TEXT	ENDS
; Function compile flags: /Ogtp
; File D:\Metin2 Server Files\mainline\SRC_2014\Metin2Client\UserInterface\PythonNetworkStream.cpp
;	COMDAT ?__InitializeMarkAuth@CPythonNetworkStream@@IAEXXZ
_TEXT	SEGMENT
?__InitializeMarkAuth@CPythonNetworkStream@@IAEXXZ PROC	; CPythonNetworkStream::__InitializeMarkAuth, COMDAT
; _this$ = ecx

; 810  : 	m_kMarkAuth.m_dwHandle=0;

  00000	c7 81 08 79 00
	00 00 00 00 00	 mov	 DWORD PTR [ecx+30984], 0

; 811  : 	m_kMarkAuth.m_dwRandomKey=0;

  0000a	c7 81 0c 79 00
	00 00 00 00 00	 mov	 DWORD PTR [ecx+30988], 0

; 812  : }

  00014	c3		 ret	 0
?__InitializeMarkAuth@CPythonNetworkStream@@IAEXXZ ENDP	; CPythonNetworkStream::__InitializeMarkAuth
_TEXT	ENDS
; Function compile flags: /Ogtp
; File D:\Metin2 Server Files\mainline\SRC_2014\Metin2Client\UserInterface\PythonNetworkStream.cpp
; File D:\Metin2 Server Files\mainline\SRC_2014\Metin2Client\eterLib\NetPacketHeaderMap.h
; File D:\Metin2 Server Files\mainline\SRC_2014\Metin2Client\UserInterface\PythonNetworkStream.cpp
;	COMDAT ?CheckPacket@CPythonNetworkStream@@IAE_NPAE@Z
_TEXT	SEGMENT
_PacketType$ = -24					; size = 8
_DynamicSizePacketHeader$2 = -16			; size = 3
__$EHRec$ = -12						; size = 12
_pRetHeader$ = 8					; size = 4
_header$ = 11						; size = 1
?CheckPacket@CPythonNetworkStream@@IAE_NPAE@Z PROC	; CPythonNetworkStream::CheckPacket, COMDAT
; _this$ = ecx

; 499  : {

  00000	55		 push	 ebp
  00001	8b ec		 mov	 ebp, esp
  00003	6a ff		 push	 -1
  00005	68 00 00 00 00	 push	 __ehhandler$?CheckPacket@CPythonNetworkStream@@IAE_NPAE@Z
  0000a	64 a1 00 00 00
	00		 mov	 eax, DWORD PTR fs:0
  00010	50		 push	 eax
  00011	83 ec 0c	 sub	 esp, 12			; 0000000cH
  00014	56		 push	 esi
  00015	57		 push	 edi
  00016	a1 00 00 00 00	 mov	 eax, DWORD PTR ___security_cookie
  0001b	33 c5		 xor	 eax, ebp
  0001d	50		 push	 eax
  0001e	8d 45 f4	 lea	 eax, DWORD PTR __$EHRec$[ebp]
  00021	64 a3 00 00 00
	00		 mov	 DWORD PTR fs:0, eax
  00027	8b f1		 mov	 esi, ecx

; 500  : 	*pRetHeader = 0;
; 501  : 
; 502  : 	static CMainPacketHeaderMap s_packetHeaderMap;

  00029	64 a1 00 00 00
	00		 mov	 eax, DWORD PTR fs:__tls_array
  0002f	8b 15 00 00 00
	00		 mov	 edx, DWORD PTR __tls_index
  00035	8b 7d 08	 mov	 edi, DWORD PTR _pRetHeader$[ebp]
  00038	8b 14 90	 mov	 edx, DWORD PTR [eax+edx*4]
  0003b	c6 07 00	 mov	 BYTE PTR [edi], 0
  0003e	a1 00 00 00 00	 mov	 eax, DWORD PTR ?$TSS0@?1??CheckPacket@CPythonNetworkStream@@IAE_NPAE@Z@4HA
  00043	3b 82 00 00 00
	00		 cmp	 eax, DWORD PTR __Init_thread_epoch[edx]
  00049	0f 8f 51 01 00
	00		 jg	 $LN30@CheckPacke
$LN2@CheckPacke:

; 503  : 
; 504  : 	TPacketHeader header;
; 505  : 
; 506  : 	if (!Peek(sizeof(TPacketHeader), &header))

  0004f	8d 45 0b	 lea	 eax, DWORD PTR _header$[ebp]
  00052	8b ce		 mov	 ecx, esi
  00054	50		 push	 eax
  00055	6a 01		 push	 1
  00057	e8 00 00 00 00	 call	 ?Peek@CNetworkStream@@QAE_NHPAX@Z ; CNetworkStream::Peek
  0005c	84 c0		 test	 al, al
  0005e	0f 84 ab 00 00
	00		 je	 $LN27@CheckPacke

; 507  : 		return false;
; 508  : 
; 509  : 	if (0 == header)

  00064	8a 45 0b	 mov	 al, BYTE PTR _header$[ebp]
  00067	84 c0		 test	 al, al
  00069	75 56		 jne	 SHORT $LN11@CheckPacke

; 510  : 	{
; 511  : 		if (!Recv(sizeof(TPacketHeader), &header))

  0006b	8d 45 0b	 lea	 eax, DWORD PTR _header$[ebp]
  0006e	8b ce		 mov	 ecx, esi
  00070	50		 push	 eax
  00071	6a 01		 push	 1
  00073	e8 00 00 00 00	 call	 ?Recv@CNetworkStream@@QAE_NHPAX@Z ; CNetworkStream::Recv
  00078	84 c0		 test	 al, al
  0007a	0f 84 8f 00 00
	00		 je	 $LN27@CheckPacke

; 512  : 			return false;
; 513  : 		
; 514  : 		while (Peek(sizeof(TPacketHeader), &header))

  00080	8d 45 0b	 lea	 eax, DWORD PTR _header$[ebp]
  00083	8b ce		 mov	 ecx, esi
  00085	50		 push	 eax
  00086	6a 01		 push	 1
  00088	e8 00 00 00 00	 call	 ?Peek@CNetworkStream@@QAE_NHPAX@Z ; CNetworkStream::Peek
  0008d	84 c0		 test	 al, al
  0008f	74 29		 je	 SHORT $LN8@CheckPacke
$LL3@CheckPacke:

; 515  : 		{
; 516  : 			if (0 == header)

  00091	8a 45 0b	 mov	 al, BYTE PTR _header$[ebp]
  00094	84 c0		 test	 al, al
  00096	75 29		 jne	 SHORT $LN11@CheckPacke

; 517  : 			{
; 518  : 				if (!Recv(sizeof(TPacketHeader), &header))

  00098	8d 45 0b	 lea	 eax, DWORD PTR _header$[ebp]
  0009b	8b ce		 mov	 ecx, esi
  0009d	50		 push	 eax
  0009e	6a 01		 push	 1
  000a0	e8 00 00 00 00	 call	 ?Recv@CNetworkStream@@QAE_NHPAX@Z ; CNetworkStream::Recv
  000a5	84 c0		 test	 al, al
  000a7	74 66		 je	 SHORT $LN27@CheckPacke

; 512  : 			return false;
; 513  : 		
; 514  : 		while (Peek(sizeof(TPacketHeader), &header))

  000a9	8d 45 0b	 lea	 eax, DWORD PTR _header$[ebp]
  000ac	8b ce		 mov	 ecx, esi
  000ae	50		 push	 eax
  000af	6a 01		 push	 1
  000b1	e8 00 00 00 00	 call	 ?Peek@CNetworkStream@@QAE_NHPAX@Z ; CNetworkStream::Peek
  000b6	84 c0		 test	 al, al
  000b8	75 d7		 jne	 SHORT $LL3@CheckPacke
$LN8@CheckPacke:

; 519  : 					return false;
; 520  : 			}
; 521  : 			else
; 522  : 			{
; 523  : 				break;
; 524  : 			}
; 525  : 		}
; 526  : 
; 527  : 		if (0 == header)

  000ba	8a 45 0b	 mov	 al, BYTE PTR _header$[ebp]
  000bd	84 c0		 test	 al, al
  000bf	74 4e		 je	 SHORT $LN27@CheckPacke
$LN11@CheckPacke:

; 533  : 	if (!s_packetHeaderMap.Get(header, &PacketType))

  000c1	8d 55 e8	 lea	 edx, DWORD PTR _PacketType$[ebp]
  000c4	0f b6 c0	 movzx	 eax, al
  000c7	52		 push	 edx
  000c8	50		 push	 eax
  000c9	b9 00 00 00 00	 mov	 ecx, OFFSET ?s_packetHeaderMap@?1??CheckPacket@CPythonNetworkStream@@IAE_NPAE@Z@4VCMainPacketHeaderMap@@A
; File D:\Metin2 Server Files\mainline\SRC_2014\Metin2Client\eterLib\NetPacketHeaderMap.h

; 12   : 				iPacketSize = iSize;

  000ce	c7 45 e8 00 00
	00 00		 mov	 DWORD PTR _PacketType$[ebp], 0

; 13   : 				isDynamicSizePacket = bFlag;

  000d5	c6 45 ec 00	 mov	 BYTE PTR _PacketType$[ebp+4], 0
; File D:\Metin2 Server Files\mainline\SRC_2014\Metin2Client\UserInterface\PythonNetworkStream.cpp

; 533  : 	if (!s_packetHeaderMap.Get(header, &PacketType))

  000d9	e8 00 00 00 00	 call	 ?Get@CNetworkPacketHeaderMap@@QAE_NHPAUSPacketType@1@@Z ; CNetworkPacketHeaderMap::Get
  000de	84 c0		 test	 al, al
  000e0	75 42		 jne	 SHORT $LN12@CheckPacke

; 534  : 	{
; 535  : 		TraceError("Unknown packet header: %d, last: %d %d", header, g_iLastPacket[0], g_iLastPacket[1]);

  000e2	ff 35 04 00 00
	00		 push	 DWORD PTR ?g_iLastPacket@@3PAHA+4
  000e8	0f b6 45 0b	 movzx	 eax, BYTE PTR _header$[ebp]
  000ec	ff 35 00 00 00
	00		 push	 DWORD PTR ?g_iLastPacket@@3PAHA
  000f2	50		 push	 eax
  000f3	68 00 00 00 00	 push	 OFFSET ??_C@_0CH@LALGPME@Unknown?5packet?5header?3?5?$CFd?0?5last@
  000f8	e8 00 00 00 00	 call	 ?TraceError@@YAXPBDZZ	; TraceError
  000fd	83 c4 10	 add	 esp, 16			; 00000010H

; 536  : 		ClearRecvBuffer();

  00100	8b ce		 mov	 ecx, esi
  00102	e8 00 00 00 00	 call	 ?ClearRecvBuffer@CNetworkStream@@QAEXXZ ; CNetworkStream::ClearRecvBuffer

; 537  : 
; 538  : 		PostQuitMessage(0);

  00107	6a 00		 push	 0
  00109	ff 15 00 00 00
	00		 call	 DWORD PTR __imp__PostQuitMessage@4
$LN27@CheckPacke:

; 580  : }

  0010f	32 c0		 xor	 al, al
  00111	8b 4d f4	 mov	 ecx, DWORD PTR __$EHRec$[ebp]
  00114	64 89 0d 00 00
	00 00		 mov	 DWORD PTR fs:0, ecx
  0011b	59		 pop	 ecx
  0011c	5f		 pop	 edi
  0011d	5e		 pop	 esi
  0011e	8b e5		 mov	 esp, ebp
  00120	5d		 pop	 ebp
  00121	c2 04 00	 ret	 4
$LN12@CheckPacke:

; 539  : 		return false;
; 540  : 	}
; 541  : 
; 542  : 	// Code for dynamic size packet
; 543  : 	if (PacketType.isDynamicSizePacket)

  00124	80 7d ec 00	 cmp	 BYTE PTR _PacketType$[ebp+4], 0
  00128	8b ce		 mov	 ecx, esi
  0012a	74 38		 je	 SHORT $LN13@CheckPacke

; 544  : 	{
; 545  : 		TDynamicSizePacketHeader DynamicSizePacketHeader;
; 546  : 
; 547  : 		if (!Peek(sizeof(TDynamicSizePacketHeader), &DynamicSizePacketHeader))

  0012c	8d 45 f0	 lea	 eax, DWORD PTR _DynamicSizePacketHeader$2[ebp]
  0012f	50		 push	 eax
  00130	6a 03		 push	 3
  00132	e8 00 00 00 00	 call	 ?Peek@CNetworkStream@@QAE_NHPAX@Z ; CNetworkStream::Peek
  00137	84 c0		 test	 al, al
  00139	74 d4		 je	 SHORT $LN27@CheckPacke

; 548  : 			return false;
; 549  : 
; 550  : 		if (!Peek(DynamicSizePacketHeader.size))

  0013b	0f b7 45 f1	 movzx	 eax, WORD PTR _DynamicSizePacketHeader$2[ebp+1]
  0013f	8b ce		 mov	 ecx, esi
  00141	50		 push	 eax
  00142	e8 00 00 00 00	 call	 ?Peek@CNetworkStream@@QAE_NH@Z ; CNetworkStream::Peek
  00147	84 c0		 test	 al, al
  00149	75 25		 jne	 SHORT $LN17@CheckPacke

; 551  : 		{
; 552  : 			Tracef("CPythonNetworkStream::CheckPacket - Not enough dynamic packet size: header %d packet size: %d\n", 

  0014b	0f b7 45 f1	 movzx	 eax, WORD PTR _DynamicSizePacketHeader$2[ebp+1]
  0014f	50		 push	 eax
  00150	0f b6 45 f0	 movzx	 eax, BYTE PTR _DynamicSizePacketHeader$2[ebp]
  00154	50		 push	 eax
  00155	68 00 00 00 00	 push	 OFFSET ??_C@_0FP@JGOINIOH@CPythonNetworkStream?3?3CheckPack@
  0015a	e8 00 00 00 00	 call	 ?Tracef@@YAXPBDZZ	; Tracef
  0015f	83 c4 0c	 add	 esp, 12			; 0000000cH

; 553  : 				DynamicSizePacketHeader.header,
; 554  : 				DynamicSizePacketHeader.size);
; 555  : 			return false;

  00162	eb ab		 jmp	 SHORT $LN27@CheckPacke
$LN13@CheckPacke:

; 556  : 		}
; 557  : 	}
; 558  : 	else
; 559  : 	{
; 560  : 		if (!Peek(PacketType.iPacketSize))

  00164	ff 75 e8	 push	 DWORD PTR _PacketType$[ebp]
  00167	e8 00 00 00 00	 call	 ?Peek@CNetworkStream@@QAE_NH@Z ; CNetworkStream::Peek
  0016c	84 c0		 test	 al, al
  0016e	74 9f		 je	 SHORT $LN27@CheckPacke
$LN17@CheckPacke:

; 561  : 		{
; 562  : 			//Tracef("Not enough packet size: header %d packet size: %d, recv buffer size: %d",
; 563  : 			//	header,
; 564  : 			//	PacketType.iPacketSize,
; 565  : 			//	GetRecvBufferSize());
; 566  : 			return false;
; 567  : 		}
; 568  : 	}
; 569  : 
; 570  : 	if (!header)

  00170	8a 4d 0b	 mov	 cl, BYTE PTR _header$[ebp]
  00173	84 c9		 test	 cl, cl
  00175	74 98		 je	 SHORT $LN27@CheckPacke

; 571  : 		return false;
; 572  : 
; 573  : 	*pRetHeader = header;	

  00177	88 0f		 mov	 BYTE PTR [edi], cl

; 574  : 
; 575  : 	g_iLastPacket[0] = g_iLastPacket[1];

  00179	a1 04 00 00 00	 mov	 eax, DWORD PTR ?g_iLastPacket@@3PAHA+4
  0017e	a3 00 00 00 00	 mov	 DWORD PTR ?g_iLastPacket@@3PAHA, eax

; 576  : 	g_iLastPacket[1] = header;

  00183	0f b6 c1	 movzx	 eax, cl
  00186	a3 04 00 00 00	 mov	 DWORD PTR ?g_iLastPacket@@3PAHA+4, eax

; 577  : 	//Tracenf("header %d size %d", header, PacketType.iPacketSize);
; 578  : 	//Tracenf("header %d size %d outputpos[%d] security %u", header, PacketType.iPacketSize, m_recvBufOutputPos, IsSecurityMode());
; 579  : 	return true;

  0018b	b0 01		 mov	 al, 1

; 580  : }

  0018d	8b 4d f4	 mov	 ecx, DWORD PTR __$EHRec$[ebp]
  00190	64 89 0d 00 00
	00 00		 mov	 DWORD PTR fs:0, ecx
  00197	59		 pop	 ecx
  00198	5f		 pop	 edi
  00199	5e		 pop	 esi
  0019a	8b e5		 mov	 esp, ebp
  0019c	5d		 pop	 ebp
  0019d	c2 04 00	 ret	 4
$LN30@CheckPacke:

; 500  : 	*pRetHeader = 0;
; 501  : 
; 502  : 	static CMainPacketHeaderMap s_packetHeaderMap;

  001a0	68 00 00 00 00	 push	 OFFSET ?$TSS0@?1??CheckPacket@CPythonNetworkStream@@IAE_NPAE@Z@4HA
  001a5	e8 00 00 00 00	 call	 __Init_thread_header
  001aa	83 c4 04	 add	 esp, 4
  001ad	83 3d 00 00 00
	00 ff		 cmp	 DWORD PTR ?$TSS0@?1??CheckPacket@CPythonNetworkStream@@IAE_NPAE@Z@4HA, -1
  001b4	0f 85 95 fe ff
	ff		 jne	 $LN2@CheckPacke
  001ba	b9 00 00 00 00	 mov	 ecx, OFFSET ?s_packetHeaderMap@?1??CheckPacket@CPythonNetworkStream@@IAE_NPAE@Z@4VCMainPacketHeaderMap@@A
  001bf	c7 45 fc 00 00
	00 00		 mov	 DWORD PTR __$EHRec$[ebp+8], 0
  001c6	e8 00 00 00 00	 call	 ??0CMainPacketHeaderMap@@QAE@XZ ; CMainPacketHeaderMap::CMainPacketHeaderMap
  001cb	68 00 00 00 00	 push	 OFFSET ??__Fs_packetHeaderMap@?1??CheckPacket@CPythonNetworkStream@@IAE_NPAE@Z@YAXXZ ; `CPythonNetworkStream::CheckPacket'::`2'::`dynamic atexit destructor for 's_packetHeaderMap''
  001d0	e8 00 00 00 00	 call	 _atexit
  001d5	68 00 00 00 00	 push	 OFFSET ?$TSS0@?1??CheckPacket@CPythonNetworkStream@@IAE_NPAE@Z@4HA
  001da	c7 45 fc ff ff
	ff ff		 mov	 DWORD PTR __$EHRec$[ebp+8], -1
  001e1	e8 00 00 00 00	 call	 __Init_thread_footer
  001e6	83 c4 08	 add	 esp, 8
  001e9	e9 61 fe ff ff	 jmp	 $LN2@CheckPacke
_TEXT	ENDS
;	COMDAT text$x
text$x	SEGMENT
__unwindfunclet$?CheckPacket@CPythonNetworkStream@@IAE_NPAE@Z$0:
  00000	68 00 00 00 00	 push	 OFFSET ?$TSS0@?1??CheckPacket@CPythonNetworkStream@@IAE_NPAE@Z@4HA
  00005	e8 00 00 00 00	 call	 __Init_thread_abort
  0000a	59		 pop	 ecx
  0000b	c3		 ret	 0
  0000c	cc		 int	 3
  0000d	cc		 int	 3
  0000e	cc		 int	 3
  0000f	cc		 int	 3
  00010	cc		 int	 3
__ehhandler$?CheckPacket@CPythonNetworkStream@@IAE_NPAE@Z:
  00011	90		 npad	 1
  00012	90		 npad	 1
  00013	8b 54 24 08	 mov	 edx, DWORD PTR [esp+8]
  00017	8d 42 0c	 lea	 eax, DWORD PTR [edx+12]
  0001a	8b 4a e8	 mov	 ecx, DWORD PTR [edx-24]
  0001d	33 c8		 xor	 ecx, eax
  0001f	e8 00 00 00 00	 call	 @__security_check_cookie@4
  00024	b8 00 00 00 00	 mov	 eax, OFFSET __ehfuncinfo$?CheckPacket@CPythonNetworkStream@@IAE_NPAE@Z
  00029	e9 00 00 00 00	 jmp	 ___CxxFrameHandler3
text$x	ENDS
?CheckPacket@CPythonNetworkStream@@IAE_NPAE@Z ENDP	; CPythonNetworkStream::CheckPacket
; Function compile flags: /Ogtp
; File D:\Metin2 Server Files\mainline\SRC_2014\Metin2Client\UserInterface\PythonNetworkStream.cpp
;	COMDAT ?IsGameOnline@CPythonNetworkStream@@IAEHXZ
_TEXT	SEGMENT
?IsGameOnline@CPythonNetworkStream@@IAEHXZ PROC		; CPythonNetworkStream::IsGameOnline, COMDAT
; _this$ = ecx

; 738  : 	return m_isGameOnline;

  00000	8b 81 a8 00 00
	00		 mov	 eax, DWORD PTR [ecx+168]

; 739  : }

  00006	c3		 ret	 0
?IsGameOnline@CPythonNetworkStream@@IAEHXZ ENDP		; CPythonNetworkStream::IsGameOnline
_TEXT	ENDS
; Function compile flags: /Ogtp
; File D:\Metin2 Server Files\mainline\SRC_2014\Metin2Client\UserInterface\PythonNetworkStream.cpp
;	COMDAT ?SetGameOffline@CPythonNetworkStream@@IAEXXZ
_TEXT	SEGMENT
?SetGameOffline@CPythonNetworkStream@@IAEXXZ PROC	; CPythonNetworkStream::SetGameOffline, COMDAT
; _this$ = ecx

; 733  : 	m_isGameOnline = FALSE;

  00000	c7 81 a8 00 00
	00 00 00 00 00	 mov	 DWORD PTR [ecx+168], 0

; 734  : }

  0000a	c3		 ret	 0
?SetGameOffline@CPythonNetworkStream@@IAEXXZ ENDP	; CPythonNetworkStream::SetGameOffline
_TEXT	ENDS
; Function compile flags: /Ogtp
; File D:\Metin2 Server Files\mainline\SRC_2014\Metin2Client\UserInterface\PythonNetworkStream.cpp
;	COMDAT ?SetGameOnline@CPythonNetworkStream@@IAEXXZ
_TEXT	SEGMENT
?SetGameOnline@CPythonNetworkStream@@IAEXXZ PROC	; CPythonNetworkStream::SetGameOnline, COMDAT
; _this$ = ecx

; 728  : 	m_isGameOnline = TRUE;

  00000	c7 81 a8 00 00
	00 01 00 00 00	 mov	 DWORD PTR [ecx+168], 1

; 729  : }

  0000a	c3		 ret	 0
?SetGameOnline@CPythonNetworkStream@@IAEXXZ ENDP	; CPythonNetworkStream::SetGameOnline
_TEXT	ENDS
; Function compile flags: /Ogtp
; File D:\Metin2 Server Files\mainline\SRC_2014\Metin2Client\UserInterface\PythonNetworkStream.cpp
;	COMDAT ?RecvPhasePacket@CPythonNetworkStream@@IAE_NXZ
_TEXT	SEGMENT
_packet_phase$ = -4					; size = 2
?RecvPhasePacket@CPythonNetworkStream@@IAE_NXZ PROC	; CPythonNetworkStream::RecvPhasePacket, COMDAT
; _this$ = ecx

; 592  : {

  00000	55		 push	 ebp
  00001	8b ec		 mov	 ebp, esp
  00003	51		 push	 ecx
  00004	56		 push	 esi

; 593  : 	TPacketGCPhase packet_phase;
; 594  : 
; 595  : 	if (!Recv(sizeof(TPacketGCPhase), &packet_phase))

  00005	8d 45 fc	 lea	 eax, DWORD PTR _packet_phase$[ebp]
  00008	8b f1		 mov	 esi, ecx
  0000a	50		 push	 eax
  0000b	6a 02		 push	 2
  0000d	e8 00 00 00 00	 call	 ?Recv@CNetworkStream@@QAE_NHPAX@Z ; CNetworkStream::Recv
  00012	84 c0		 test	 al, al
  00014	75 05		 jne	 SHORT $LN4@RecvPhaseP
  00016	5e		 pop	 esi

; 635  : }

  00017	8b e5		 mov	 esp, ebp
  00019	5d		 pop	 ebp
  0001a	c3		 ret	 0
$LN4@RecvPhaseP:

; 596  : 		return false;
; 597  : 
; 598  : 	switch (packet_phase.phase)

  0001b	0f b6 45 fd	 movzx	 eax, BYTE PTR _packet_phase$[ebp+1]
  0001f	83 f8 05	 cmp	 eax, 5
  00022	77 60		 ja	 SHORT $LN11@RecvPhaseP
  00024	ff 24 85 00 00
	00 00		 jmp	 DWORD PTR $LN13@RecvPhaseP[eax*4]
$LN5@RecvPhaseP:

; 599  : 	{
; 600  : 		case PHASE_CLOSE:				//   (   )
; 601  : 			ClosePhase();

  0002b	8b ce		 mov	 ecx, esi
  0002d	e8 00 00 00 00	 call	 ?ClosePhase@CPythonNetworkStream@@QAEXXZ ; CPythonNetworkStream::ClosePhase

; 628  : 			break;
; 629  : 
; 630  : 		case PHASE_DEAD:				//  .. (    ..)
; 631  : 			break;
; 632  : 	}
; 633  : 
; 634  : 	return true;

  00032	b0 01		 mov	 al, 1
  00034	5e		 pop	 esi

; 635  : }

  00035	8b e5		 mov	 esp, ebp
  00037	5d		 pop	 ebp
  00038	c3		 ret	 0
$LN6@RecvPhaseP:

; 602  : 			break;
; 603  : 
; 604  : 		case PHASE_HANDSHAKE:			// ..;;
; 605  : 			SetHandShakePhase();

  00039	8b ce		 mov	 ecx, esi
  0003b	e8 00 00 00 00	 call	 ?SetHandShakePhase@CPythonNetworkStream@@QAEXXZ ; CPythonNetworkStream::SetHandShakePhase

; 628  : 			break;
; 629  : 
; 630  : 		case PHASE_DEAD:				//  .. (    ..)
; 631  : 			break;
; 632  : 	}
; 633  : 
; 634  : 	return true;

  00040	b0 01		 mov	 al, 1
  00042	5e		 pop	 esi

; 635  : }

  00043	8b e5		 mov	 esp, ebp
  00045	5d		 pop	 ebp
  00046	c3		 ret	 0
$LN7@RecvPhaseP:

; 606  : 			break;
; 607  : 
; 608  : 		case PHASE_LOGIN:				//  
; 609  : 			SetLoginPhase();

  00047	8b ce		 mov	 ecx, esi
  00049	e8 00 00 00 00	 call	 ?SetLoginPhase@CPythonNetworkStream@@QAEXXZ ; CPythonNetworkStream::SetLoginPhase

; 628  : 			break;
; 629  : 
; 630  : 		case PHASE_DEAD:				//  .. (    ..)
; 631  : 			break;
; 632  : 	}
; 633  : 
; 634  : 	return true;

  0004e	b0 01		 mov	 al, 1
  00050	5e		 pop	 esi

; 635  : }

  00051	8b e5		 mov	 esp, ebp
  00053	5d		 pop	 ebp
  00054	c3		 ret	 0
$LN8@RecvPhaseP:

; 610  : 			break;
; 611  : 
; 612  : 		case PHASE_SELECT:				//   
; 613  : 			SetSelectPhase();

  00055	8b ce		 mov	 ecx, esi
  00057	e8 00 00 00 00	 call	 ?SetSelectPhase@CPythonNetworkStream@@QAEXXZ ; CPythonNetworkStream::SetSelectPhase

; 614  : 
; 615  : 			BuildProcessCRC();

  0005c	e8 00 00 00 00	 call	 ?BuildProcessCRC@@YAXXZ	; BuildProcessCRC

; 616  : 	
; 617  : 			// MARK_BUG_FIX
; 618  : 			__DownloadMark();

  00061	8b ce		 mov	 ecx, esi
  00063	e8 00 00 00 00	 call	 ?__DownloadMark@CPythonNetworkStream@@IAEXXZ ; CPythonNetworkStream::__DownloadMark

; 628  : 			break;
; 629  : 
; 630  : 		case PHASE_DEAD:				//  .. (    ..)
; 631  : 			break;
; 632  : 	}
; 633  : 
; 634  : 	return true;

  00068	b0 01		 mov	 al, 1
  0006a	5e		 pop	 esi

; 635  : }

  0006b	8b e5		 mov	 esp, ebp
  0006d	5d		 pop	 ebp
  0006e	c3		 ret	 0
$LN9@RecvPhaseP:

; 619  : 			// END_OF_MARK_BUG_FIX
; 620  : 			break;
; 621  : 
; 622  : 		case PHASE_LOADING:				//    
; 623  : 			SetLoadingPhase();

  0006f	8b ce		 mov	 ecx, esi
  00071	e8 00 00 00 00	 call	 ?SetLoadingPhase@CPythonNetworkStream@@QAEXXZ ; CPythonNetworkStream::SetLoadingPhase

; 628  : 			break;
; 629  : 
; 630  : 		case PHASE_DEAD:				//  .. (    ..)
; 631  : 			break;
; 632  : 	}
; 633  : 
; 634  : 	return true;

  00076	b0 01		 mov	 al, 1
  00078	5e		 pop	 esi

; 635  : }

  00079	8b e5		 mov	 esp, ebp
  0007b	5d		 pop	 ebp
  0007c	c3		 ret	 0
$LN10@RecvPhaseP:

; 624  : 			break;
; 625  : 
; 626  : 		case PHASE_GAME:				//  
; 627  : 			SetGamePhase();

  0007d	8b ce		 mov	 ecx, esi
  0007f	e8 00 00 00 00	 call	 ?SetGamePhase@CPythonNetworkStream@@QAEXXZ ; CPythonNetworkStream::SetGamePhase
$LN11@RecvPhaseP:

; 628  : 			break;
; 629  : 
; 630  : 		case PHASE_DEAD:				//  .. (    ..)
; 631  : 			break;
; 632  : 	}
; 633  : 
; 634  : 	return true;

  00084	b0 01		 mov	 al, 1
  00086	5e		 pop	 esi

; 635  : }

  00087	8b e5		 mov	 esp, ebp
  00089	5d		 pop	 ebp
  0008a	c3		 ret	 0
  0008b	90		 npad	 1
$LN13@RecvPhaseP:
  0008c	00 00 00 00	 DD	 $LN5@RecvPhaseP
  00090	00 00 00 00	 DD	 $LN6@RecvPhaseP
  00094	00 00 00 00	 DD	 $LN7@RecvPhaseP
  00098	00 00 00 00	 DD	 $LN8@RecvPhaseP
  0009c	00 00 00 00	 DD	 $LN9@RecvPhaseP
  000a0	00 00 00 00	 DD	 $LN10@RecvPhaseP
?RecvPhasePacket@CPythonNetworkStream@@IAE_NXZ ENDP	; CPythonNetworkStream::RecvPhasePacket
_TEXT	ENDS
; Function compile flags: /Ogtp
; File D:\Metin2 Server Files\mainline\SRC_2014\Metin2Client\UserInterface\PythonNetworkStream.cpp
; File C:\Program Files (x86)\Microsoft Visual Studio\2019\Community\VC\Tools\MSVC\14.28.29333\include\xstring
; File D:\Metin2 Server Files\mainline\SRC_2014\Metin2Client\UserInterface\PythonNetworkStream.cpp
;	COMDAT ?RecvDefaultPacket@CPythonNetworkStream@@IAE_NH@Z
_TEXT	SEGMENT
_header$ = 8						; size = 4
?RecvDefaultPacket@CPythonNetworkStream@@IAE_NH@Z PROC	; CPythonNetworkStream::RecvDefaultPacket, COMDAT
; _this$ = ecx

; 661  : {

  00000	55		 push	 ebp
  00001	8b ec		 mov	 ebp, esp

; 662  : 	if (!header)

  00003	8b 55 08	 mov	 edx, DWORD PTR _header$[ebp]
  00006	56		 push	 esi
  00007	8b f1		 mov	 esi, ecx
  00009	85 d2		 test	 edx, edx
  0000b	74 27		 je	 SHORT $LN11@RecvDefaul
; File C:\Program Files (x86)\Microsoft Visual Studio\2019\Community\VC\Tools\MSVC\14.28.29333\include\xstring

; 2227 :         return _BUF_SIZE <= _Myres;

  0000d	83 be 20 01 00
	00 10		 cmp	 DWORD PTR [esi+288], 16	; 00000010H

; 3752 :         return _Mypair._Myval2._Myptr();

  00014	8d 86 0c 01 00
	00		 lea	 eax, DWORD PTR [esi+268]

; 2219 :         if (_Large_string_engaged()) {

  0001a	72 02		 jb	 SHORT $LN7@RecvDefaul

; 2220 :             _Result = _Unfancy(_Bx._Ptr);

  0001c	8b 00		 mov	 eax, DWORD PTR [eax]
$LN7@RecvDefaul:
; File D:\Metin2 Server Files\mainline\SRC_2014\Metin2Client\UserInterface\PythonNetworkStream.cpp

; 665  : 	TraceError("    %d, state %s\n", header, m_strPhase.c_str());

  0001e	50		 push	 eax
  0001f	52		 push	 edx
  00020	68 00 00 00 00	 push	 OFFSET ??_C@_0CG@IOPHKJBJ@?C?$LD?$LI?$KO?$LF?G?A?v?5?$LO?J?$MA?$LK?5?F?P?E?$LG?5?G?l?$LE?u?5?$CFd?0?5sta@
  00025	e8 00 00 00 00	 call	 ?TraceError@@YAXPBDZZ	; TraceError
  0002a	83 c4 0c	 add	 esp, 12			; 0000000cH

; 666  : 	ClearRecvBuffer();

  0002d	8b ce		 mov	 ecx, esi
  0002f	e8 00 00 00 00	 call	 ?ClearRecvBuffer@CNetworkStream@@QAEXXZ ; CNetworkStream::ClearRecvBuffer
$LN11@RecvDefaul:

; 667  : 	return true;
; 668  : }

  00034	b0 01		 mov	 al, 1
  00036	5e		 pop	 esi
  00037	5d		 pop	 ebp
  00038	c2 04 00	 ret	 4
?RecvDefaultPacket@CPythonNetworkStream@@IAE_NH@Z ENDP	; CPythonNetworkStream::RecvDefaultPacket
_TEXT	ENDS
; Function compile flags: /Ogtp
; File D:\Metin2 Server Files\mainline\SRC_2014\Metin2Client\UserInterface\PythonNetworkStream.cpp
;	COMDAT ?RecvPingPacket@CPythonNetworkStream@@IAE_NXZ
_TEXT	SEGMENT
_kPacketPing$ = -2					; size = 1
_kPacketPong$ = -1					; size = 1
?RecvPingPacket@CPythonNetworkStream@@IAE_NXZ PROC	; CPythonNetworkStream::RecvPingPacket, COMDAT
; _this$ = ecx

; 638  : {

  00000	55		 push	 ebp
  00001	8b ec		 mov	 ebp, esp
  00003	51		 push	 ecx
  00004	56		 push	 esi
  00005	8b f1		 mov	 esi, ecx

; 639  : 	Tracef("recv ping packet. (securitymode %u)\n", IsSecurityMode());

  00007	e8 00 00 00 00	 call	 ?IsSecurityMode@CNetworkStream@@QAE_NXZ ; CNetworkStream::IsSecurityMode
  0000c	0f b6 c0	 movzx	 eax, al
  0000f	50		 push	 eax
  00010	68 00 00 00 00	 push	 OFFSET ??_C@_0CF@JLNGLGD@recv?5ping?5packet?4?5?$CIsecuritymode@
  00015	e8 00 00 00 00	 call	 ?Tracef@@YAXPBDZZ	; Tracef
  0001a	83 c4 08	 add	 esp, 8

; 640  : 
; 641  : 	TPacketGCPing kPacketPing;
; 642  : 
; 643  : 	if (!Recv(sizeof(TPacketGCPing), &kPacketPing))

  0001d	8d 45 fe	 lea	 eax, DWORD PTR _kPacketPing$[ebp]
  00020	8b ce		 mov	 ecx, esi
  00022	50		 push	 eax
  00023	6a 01		 push	 1
  00025	e8 00 00 00 00	 call	 ?Recv@CNetworkStream@@QAE_NHPAX@Z ; CNetworkStream::Recv
  0002a	84 c0		 test	 al, al
  0002c	74 3e		 je	 SHORT $LN7@RecvPingPa

; 644  : 		return false;
; 645  : 
; 646  : 	m_dwLastGamePingTime = ELTimer_GetMSec();

  0002e	e8 00 00 00 00	 call	 ?ELTimer_GetMSec@@YAKXZ	; ELTimer_GetMSec
  00033	89 86 c0 00 00
	00		 mov	 DWORD PTR [esi+192], eax

; 647  : 
; 648  : 	TPacketCGPong kPacketPong;
; 649  : 	kPacketPong.bHeader = HEADER_CG_PONG;
; 650  : 
; 651  : 	if (!Send(sizeof(TPacketCGPong), &kPacketPong))

  00039	8b ce		 mov	 ecx, esi
  0003b	8d 45 ff	 lea	 eax, DWORD PTR _kPacketPong$[ebp]
  0003e	c6 45 ff fe	 mov	 BYTE PTR _kPacketPong$[ebp], 254 ; 000000feH
  00042	50		 push	 eax
  00043	6a 01		 push	 1
  00045	e8 00 00 00 00	 call	 ?Send@CNetworkStream@@QAE_NHPBX@Z ; CNetworkStream::Send
  0004a	84 c0		 test	 al, al
  0004c	74 1e		 je	 SHORT $LN7@RecvPingPa

; 653  : 
; 654  : 	if (IsSecurityMode())

  0004e	8b ce		 mov	 ecx, esi
  00050	e8 00 00 00 00	 call	 ?IsSecurityMode@CNetworkStream@@QAE_NXZ ; CNetworkStream::IsSecurityMode
  00055	84 c0		 test	 al, al
  00057	74 0c		 je	 SHORT $LN4@RecvPingPa

; 655  : 		return SendSequence();

  00059	8b ce		 mov	 ecx, esi
  0005b	e8 00 00 00 00	 call	 ?SendSequence@CNetworkStream@@QAE_NXZ ; CNetworkStream::SendSequence
  00060	5e		 pop	 esi

; 658  : }

  00061	8b e5		 mov	 esp, ebp
  00063	5d		 pop	 ebp
  00064	c3		 ret	 0
$LN4@RecvPingPa:

; 656  : 	else
; 657  : 		return true;

  00065	b0 01		 mov	 al, 1
  00067	5e		 pop	 esi

; 658  : }

  00068	8b e5		 mov	 esp, ebp
  0006a	5d		 pop	 ebp
  0006b	c3		 ret	 0
$LN7@RecvPingPa:

; 652  : 		return false;

  0006c	32 c0		 xor	 al, al
  0006e	5e		 pop	 esi

; 658  : }

  0006f	8b e5		 mov	 esp, ebp
  00071	5d		 pop	 ebp
  00072	c3		 ret	 0
?RecvPingPacket@CPythonNetworkStream@@IAE_NXZ ENDP	; CPythonNetworkStream::RecvPingPacket
_TEXT	ENDS
; Function compile flags: /Ogtp
; File D:\Metin2 Server Files\mainline\SRC_2014\Metin2Client\UserInterface\PythonNetworkStream.cpp
; File C:\Program Files (x86)\Microsoft Visual Studio\2019\Community\VC\Tools\MSVC\14.28.29333\include\xstring
; File D:\Metin2 Server Files\mainline\SRC_2014\Metin2Client\UserInterface\PythonNetworkStream.cpp
;	COMDAT ?RecvErrorPacket@CPythonNetworkStream@@IAE_NH@Z
_TEXT	SEGMENT
_header$ = 8						; size = 4
?RecvErrorPacket@CPythonNetworkStream@@IAE_NH@Z PROC	; CPythonNetworkStream::RecvErrorPacket, COMDAT
; _this$ = ecx

; 583  : {

  00000	55		 push	 ebp
  00001	8b ec		 mov	 ebp, esp
  00003	56		 push	 esi
  00004	8b f1		 mov	 esi, ecx
; File C:\Program Files (x86)\Microsoft Visual Studio\2019\Community\VC\Tools\MSVC\14.28.29333\include\xstring

; 2227 :         return _BUF_SIZE <= _Myres;

  00006	83 be 20 01 00
	00 10		 cmp	 DWORD PTR [esi+288], 16	; 00000010H

; 3752 :         return _Mypair._Myval2._Myptr();

  0000d	8d 86 0c 01 00
	00		 lea	 eax, DWORD PTR [esi+268]

; 2219 :         if (_Large_string_engaged()) {

  00013	72 02		 jb	 SHORT $LN6@RecvErrorP

; 2220 :             _Result = _Unfancy(_Bx._Ptr);

  00015	8b 00		 mov	 eax, DWORD PTR [eax]
$LN6@RecvErrorP:
; File D:\Metin2 Server Files\mainline\SRC_2014\Metin2Client\UserInterface\PythonNetworkStream.cpp

; 584  : 	TraceError("Phase %s does not handle this header (header: %d, last: %d, %d)",

  00017	ff 35 04 00 00
	00		 push	 DWORD PTR ?g_iLastPacket@@3PAHA+4
  0001d	ff 35 00 00 00
	00		 push	 DWORD PTR ?g_iLastPacket@@3PAHA
  00023	ff 75 08	 push	 DWORD PTR _header$[ebp]
  00026	50		 push	 eax
  00027	68 00 00 00 00	 push	 OFFSET ??_C@_0EA@JMANDMEJ@Phase?5?$CFs?5does?5not?5handle?5this?5h@
  0002c	e8 00 00 00 00	 call	 ?TraceError@@YAXPBDZZ	; TraceError
  00031	83 c4 14	 add	 esp, 20			; 00000014H

; 585  : 		m_strPhase.c_str(), header, g_iLastPacket[0], g_iLastPacket[1]);
; 586  : 
; 587  : 	ClearRecvBuffer();

  00034	8b ce		 mov	 ecx, esi
  00036	e8 00 00 00 00	 call	 ?ClearRecvBuffer@CNetworkStream@@QAEXXZ ; CNetworkStream::ClearRecvBuffer

; 588  : 	return true;

  0003b	b0 01		 mov	 al, 1
  0003d	5e		 pop	 esi

; 589  : }

  0003e	5d		 pop	 ebp
  0003f	c2 04 00	 ret	 4
?RecvErrorPacket@CPythonNetworkStream@@IAE_NH@Z ENDP	; CPythonNetworkStream::RecvErrorPacket
_TEXT	ENDS
; Function compile flags: /Ogtp
; File D:\Metin2 Server Files\mainline\SRC_2014\Metin2Client\UserInterface\PythonNetworkStream.cpp
;	COMDAT ?__DownloadSymbol@CPythonNetworkStream@@IAEXABV?$vector@KV?$allocator@K@std@@@std@@@Z
_TEXT	SEGMENT
_c_rkVec_dwGuildID$ = 8					; size = 4
?__DownloadSymbol@CPythonNetworkStream@@IAEXABV?$vector@KV?$allocator@K@std@@@std@@@Z PROC ; CPythonNetworkStream::__DownloadSymbol, COMDAT
; _this$ = ecx

; 341  : {

  00000	55		 push	 ebp
  00001	8b ec		 mov	 ebp, esp

; 342  : 	CGuildMarkDownloader& rkGuildMarkDownloader=CGuildMarkDownloader::Instance();
; 343  : 	rkGuildMarkDownloader.ConnectToRecvSymbol(m_kMarkAuth.m_kNetAddr, m_kMarkAuth.m_dwHandle, m_kMarkAuth.m_dwRandomKey, c_rkVec_dwGuildID);

  00003	ff 75 08	 push	 DWORD PTR _c_rkVec_dwGuildID$[ebp]
  00006	8d 81 f8 78 00
	00		 lea	 eax, DWORD PTR [ecx+30968]
  0000c	ff b1 0c 79 00
	00		 push	 DWORD PTR [ecx+30988]
  00012	ff b1 08 79 00
	00		 push	 DWORD PTR [ecx+30984]
  00018	8b 0d 00 00 00
	00		 mov	 ecx, DWORD PTR ?ms_singleton@?$CSingleton@VCGuildMarkDownloader@@@@0PAVCGuildMarkDownloader@@A ; CSingleton<CGuildMarkDownloader>::ms_singleton
  0001e	50		 push	 eax
  0001f	e8 00 00 00 00	 call	 ?ConnectToRecvSymbol@CGuildMarkDownloader@@QAE_NABVCNetworkAddress@@KKABV?$vector@KV?$allocator@K@std@@@std@@@Z ; CGuildMarkDownloader::ConnectToRecvSymbol

; 344  : }

  00024	5d		 pop	 ebp
  00025	c2 04 00	 ret	 4
?__DownloadSymbol@CPythonNetworkStream@@IAEXABV?$vector@KV?$allocator@K@std@@@std@@@Z ENDP ; CPythonNetworkStream::__DownloadSymbol
_TEXT	ENDS
; Function compile flags: /Ogtp
; File D:\Metin2 Server Files\mainline\SRC_2014\Metin2Client\UserInterface\PythonNetworkStream.cpp
;	COMDAT ?__DownloadMark@CPythonNetworkStream@@IAEXXZ
_TEXT	SEGMENT
?__DownloadMark@CPythonNetworkStream@@IAEXXZ PROC	; CPythonNetworkStream::__DownloadMark, COMDAT
; _this$ = ecx

; 327  : {

  00000	56		 push	 esi
  00001	8b f1		 mov	 esi, ecx

; 328  : 	// 3    .
; 329  : 	DWORD curTime = ELTimer_GetMSec();

  00003	e8 00 00 00 00	 call	 ?ELTimer_GetMSec@@YAKXZ	; ELTimer_GetMSec

; 330  : 
; 331  : 	if (curTime < gs_nextDownloadMarkTime)

  00008	3b 05 00 00 00
	00		 cmp	 eax, DWORD PTR ?gs_nextDownloadMarkTime@@3KA
  0000e	72 28		 jb	 SHORT $LN1@DownloadMa

; 332  : 		return;
; 333  : 
; 334  : 	gs_nextDownloadMarkTime = curTime + 60000 * 3; // 3
; 335  : 
; 336  : 	CGuildMarkDownloader& rkGuildMarkDownloader = CGuildMarkDownloader::Instance();
; 337  : 	rkGuildMarkDownloader.Connect(m_kMarkAuth.m_kNetAddr, m_kMarkAuth.m_dwHandle, m_kMarkAuth.m_dwRandomKey);

  00010	ff b6 0c 79 00
	00		 push	 DWORD PTR [esi+30988]
  00016	8b 0d 00 00 00
	00		 mov	 ecx, DWORD PTR ?ms_singleton@?$CSingleton@VCGuildMarkDownloader@@@@0PAVCGuildMarkDownloader@@A ; CSingleton<CGuildMarkDownloader>::ms_singleton
  0001c	05 20 bf 02 00	 add	 eax, 180000		; 0002bf20H
  00021	ff b6 08 79 00
	00		 push	 DWORD PTR [esi+30984]
  00027	a3 00 00 00 00	 mov	 DWORD PTR ?gs_nextDownloadMarkTime@@3KA, eax
  0002c	8d 86 f8 78 00
	00		 lea	 eax, DWORD PTR [esi+30968]
  00032	50		 push	 eax
  00033	e8 00 00 00 00	 call	 ?Connect@CGuildMarkDownloader@@QAE_NABVCNetworkAddress@@KK@Z ; CGuildMarkDownloader::Connect
$LN1@DownloadMa:

; 338  : }

  00038	5e		 pop	 esi
  00039	c3		 ret	 0
?__DownloadMark@CPythonNetworkStream@@IAEXXZ ENDP	; CPythonNetworkStream::__DownloadMark
_TEXT	ENDS
; Function compile flags: /Ogtp
; File D:\Metin2 Server Files\mainline\SRC_2014\Metin2Client\UserInterface\PythonNetworkStream.cpp
;	COMDAT ?__IsNotPing@CPythonNetworkStream@@IAE_NXZ
_TEXT	SEGMENT
?__IsNotPing@CPythonNetworkStream@@IAE_NXZ PROC		; CPythonNetworkStream::__IsNotPing, COMDAT
; _this$ = ecx

; 246  : 	//        .
; 247  : 	return false;

  00000	32 c0		 xor	 al, al

; 248  : }

  00002	c3		 ret	 0
?__IsNotPing@CPythonNetworkStream@@IAE_NXZ ENDP		; CPythonNetworkStream::__IsNotPing
_TEXT	ENDS
; Function compile flags: /Ogtp
; File D:\Metin2 Server Files\mainline\SRC_2014\Metin2Client\UserInterface\PythonNetworkStream.cpp
; File D:\Metin2 Server Files\mainline\SRC_2014\Metin2Client\eterLib\FuncObject.h
; File D:\Metin2 Server Files\mainline\SRC_2014\Metin2Client\UserInterface\PythonNetworkStream.cpp
;	COMDAT ?OnProcess@CPythonNetworkStream@@MAE_NXZ
_TEXT	SEGMENT
?OnProcess@CPythonNetworkStream@@MAE_NXZ PROC		; CPythonNetworkStream::OnProcess, COMDAT
; _this$ = ecx

; 671  : {

  00000	56		 push	 esi
  00001	8b f1		 mov	 esi, ecx

; 672  : 	if (m_isStartGame)

  00003	83 be ac 00 00
	00 00		 cmp	 DWORD PTR [esi+172], 0
  0000a	74 29		 je	 SHORT $LN2@OnProcess

; 673  : 	{
; 674  : 		m_isStartGame = FALSE;
; 675  : 
; 676  : 		PyCallClassMemberFunc(m_poHandler, "SetGamePhase", Py_BuildValue("()"));

  0000c	68 00 00 00 00	 push	 OFFSET ??_C@_02HCKGKOFO@?$CI?$CJ@
  00011	c7 86 ac 00 00
	00 00 00 00 00	 mov	 DWORD PTR [esi+172], 0
  0001b	ff 15 00 00 00
	00		 call	 DWORD PTR __imp__Py_BuildValue
  00021	50		 push	 eax
  00022	68 00 00 00 00	 push	 OFFSET ??_C@_0N@HHLEGKEL@SetGamePhase@
  00027	ff b6 78 01 00
	00		 push	 DWORD PTR [esi+376]
  0002d	e8 00 00 00 00	 call	 ?PyCallClassMemberFunc@@YA_NPAU_object@@PBD0@Z ; PyCallClassMemberFunc
  00032	83 c4 10	 add	 esp, 16			; 00000010H
$LN2@OnProcess:

; 677  : //		PyCallClassMemberFunc(m_apoPhaseWnd[PHASE_WINDOW_GAME], "StartGame", Py_BuildValue("()"));
; 678  : 	}
; 679  : 	
; 680  : 	m_rokNetActorMgr->Update();

  00035	8b 8e 0c 03 00
	00		 mov	 ecx, DWORD PTR [esi+780]
  0003b	e8 00 00 00 00	 call	 ?Update@CNetworkActorManager@@QAEXXZ ; CNetworkActorManager::Update
; File D:\Metin2 Server Files\mainline\SRC_2014\Metin2Client\eterLib\FuncObject.h

; 30   : 			if (m_pSelfObject != NULL)

  00040	8b 96 50 01 00
	00		 mov	 edx, DWORD PTR [esi+336]
  00046	85 d2		 test	 edx, edx
  00048	74 14		 je	 SHORT $LN26@OnProcess

; 42   : 				if (m_pFuncObject)

  0004a	8b 86 58 01 00
	00		 mov	 eax, DWORD PTR [esi+344]
  00050	85 c0		 test	 eax, eax
  00052	74 0a		 je	 SHORT $LN26@OnProcess

; 43   : 					(m_pSelfObject->*m_pFuncObject)();

  00054	8b 8e 5c 01 00
	00		 mov	 ecx, DWORD PTR [esi+348]
  0005a	03 ca		 add	 ecx, edx
  0005c	ff d0		 call	 eax
$LN26@OnProcess:
; File D:\Metin2 Server Files\mainline\SRC_2014\Metin2Client\UserInterface\PythonNetworkStream.cpp

; 692  : }

  0005e	b0 01		 mov	 al, 1
  00060	5e		 pop	 esi
  00061	c3		 ret	 0
?OnProcess@CPythonNetworkStream@@MAE_NXZ ENDP		; CPythonNetworkStream::OnProcess
_TEXT	ENDS
; Function compile flags: /Ogtp
; File D:\Metin2 Server Files\mainline\SRC_2014\Metin2Client\UserInterface\PythonNetworkStream.cpp
;	COMDAT ?ClosePhase@CPythonNetworkStream@@QAEXXZ
_TEXT	SEGMENT
?ClosePhase@CPythonNetworkStream@@QAEXXZ PROC		; CPythonNetworkStream::ClosePhase, COMDAT
; _this$ = ecx

; 721  : {

  00000	56		 push	 esi

; 722  : 	PyCallClassMemberFunc(m_poHandler, "SetLoginPhase", Py_BuildValue("()"));

  00001	68 00 00 00 00	 push	 OFFSET ??_C@_02HCKGKOFO@?$CI?$CJ@
  00006	8b f1		 mov	 esi, ecx
  00008	ff 15 00 00 00
	00		 call	 DWORD PTR __imp__Py_BuildValue
  0000e	50		 push	 eax
  0000f	68 00 00 00 00	 push	 OFFSET ??_C@_0O@PJEEOCNO@SetLoginPhase@
  00014	ff b6 78 01 00
	00		 push	 DWORD PTR [esi+376]
  0001a	e8 00 00 00 00	 call	 ?PyCallClassMemberFunc@@YA_NPAU_object@@PBD0@Z ; PyCallClassMemberFunc
  0001f	83 c4 10	 add	 esp, 16			; 00000010H
  00022	5e		 pop	 esi

; 723  : }

  00023	c3		 ret	 0
?ClosePhase@CPythonNetworkStream@@QAEXXZ ENDP		; CPythonNetworkStream::ClosePhase
_TEXT	ENDS
; Function compile flags: /Ogtp
; File D:\Metin2 Server Files\mainline\SRC_2014\Metin2Client\UserInterface\PythonNetworkStream.cpp
; File D:\Metin2 Server Files\mainline\SRC_2014\Metin2Client\eterLib\FuncObject.h
; File C:\Program Files (x86)\Microsoft Visual Studio\2019\Community\VC\Tools\MSVC\14.28.29333\include\xstring
; File D:\Metin2 Server Files\mainline\SRC_2014\Metin2Client\UserInterface\PythonNetworkStream.cpp
; File D:\Metin2 Server Files\mainline\SRC_2014\Metin2Client\eterLib\FuncObject.h
; File D:\Metin2 Server Files\mainline\SRC_2014\Metin2Client\UserInterface\PythonNetworkStream.cpp
;	COMDAT ?SetOffLinePhase@CPythonNetworkStream@@QAEXXZ
_TEXT	SEGMENT
?SetOffLinePhase@CPythonNetworkStream@@QAEXXZ PROC	; CPythonNetworkStream::SetOffLinePhase, COMDAT
; _this$ = ecx

; 697  : {

  00000	56		 push	 esi
  00001	8b f1		 mov	 esi, ecx
  00003	57		 push	 edi

; 698  : 	if ("OffLine" != m_strPhase)

  00004	8d be 0c 01 00
	00		 lea	 edi, DWORD PTR [esi+268]
  0000a	57		 push	 edi
  0000b	68 00 00 00 00	 push	 OFFSET ??_C@_07NNEFBBEG@OffLine@
  00010	e8 00 00 00 00	 call	 ??$?9DU?$char_traits@D@std@@V?$allocator@D@1@@std@@YA_NQBDABV?$basic_string@DU?$char_traits@D@std@@V?$allocator@D@2@@0@@Z ; std::operator!=<char,std::char_traits<char>,std::allocator<char> >
  00015	83 c4 08	 add	 esp, 8
  00018	84 c0		 test	 al, al
  0001a	74 1e		 je	 SHORT $LN6@SetOffLine
; File D:\Metin2 Server Files\mainline\SRC_2014\Metin2Client\eterLib\FuncObject.h

; 41   : 			if (m_pSelfObject)

  0001c	8b 86 68 01 00
	00		 mov	 eax, DWORD PTR [esi+360]
  00022	85 c0		 test	 eax, eax
  00024	74 14		 je	 SHORT $LN6@SetOffLine

; 42   : 				if (m_pFuncObject)

  00026	8b 96 70 01 00
	00		 mov	 edx, DWORD PTR [esi+368]
  0002c	85 d2		 test	 edx, edx
  0002e	74 0a		 je	 SHORT $LN6@SetOffLine

; 43   : 					(m_pSelfObject->*m_pFuncObject)();

  00030	8b 8e 74 01 00
	00		 mov	 ecx, DWORD PTR [esi+372]
  00036	03 c8		 add	 ecx, eax
  00038	ff d2		 call	 edx
$LN6@SetOffLine:
; File C:\Program Files (x86)\Microsoft Visual Studio\2019\Community\VC\Tools\MSVC\14.28.29333\include\xstring

; 3062 :         return assign(_Ptr, _Convert_size<size_type>(_Traits::length(_Ptr)));

  0003a	6a 07		 push	 7
  0003c	68 00 00 00 00	 push	 OFFSET ??_C@_07NNEFBBEG@OffLine@
  00041	8b cf		 mov	 ecx, edi
  00043	e8 00 00 00 00	 call	 ?assign@?$basic_string@DU?$char_traits@D@std@@V?$allocator@D@2@@std@@QAEAAV12@QBDI@Z ; std::basic_string<char,std::char_traits<char>,std::allocator<char> >::assign
; File D:\Metin2 Server Files\mainline\SRC_2014\Metin2Client\UserInterface\PythonNetworkStream.cpp

; 703  : 	Tracen("");

  00048	68 00 00 00 00	 push	 OFFSET ??_C@_00CNPNBAHC@@
  0004d	e8 00 00 00 00	 call	 ?Tracen@@YAXPBD@Z	; Tracen

; 704  : 	Tracen("## Network - OffLine Phase ##");	

  00052	68 00 00 00 00	 push	 OFFSET ??_C@_0BO@NMFMGDDG@?$CD?$CD?5Network?5?9?5OffLine?5Phase?5?$CD?$CD@
  00057	e8 00 00 00 00	 call	 ?Tracen@@YAXPBD@Z	; Tracen

; 705  : 	Tracen("");

  0005c	68 00 00 00 00	 push	 OFFSET ??_C@_00CNPNBAHC@@
  00061	e8 00 00 00 00	 call	 ?Tracen@@YAXPBD@Z	; Tracen
  00066	83 c4 0c	 add	 esp, 12			; 0000000cH

; 706  : 
; 707  : 	m_dwChangingPhaseTime = ELTimer_GetMSec();

  00069	e8 00 00 00 00	 call	 ?ELTimer_GetMSec@@YAKXZ	; ELTimer_GetMSec
  0006e	89 86 90 00 00
	00		 mov	 DWORD PTR [esi+144], eax

; 711  : 	SetGameOffline();

  00074	8b ce		 mov	 ecx, esi
; File D:\Metin2 Server Files\mainline\SRC_2014\Metin2Client\eterLib\FuncObject.h

; 24   : 			m_pSelfObject = pSelfObject;

  00076	89 b6 50 01 00
	00		 mov	 DWORD PTR [esi+336], esi

; 25   : 			m_pFuncObject = pFuncObject;

  0007c	c7 86 58 01 00
	00 00 00 00 00	 mov	 DWORD PTR [esi+344], OFFSET ?OffLinePhase@CPythonNetworkStream@@IAEXXZ ; CPythonNetworkStream::OffLinePhase
  00086	c7 86 5c 01 00
	00 00 00 00 00	 mov	 DWORD PTR [esi+348], 0

; 24   : 			m_pSelfObject = pSelfObject;

  00090	89 b6 68 01 00
	00		 mov	 DWORD PTR [esi+360], esi

; 25   : 			m_pFuncObject = pFuncObject;

  00096	c7 86 70 01 00
	00 00 00 00 00	 mov	 DWORD PTR [esi+368], OFFSET ?__LeaveOfflinePhase@CPythonNetworkStream@@IAEXXZ ; CPythonNetworkStream::__LeaveOfflinePhase
  000a0	c7 86 74 01 00
	00 00 00 00 00	 mov	 DWORD PTR [esi+372], 0
; File D:\Metin2 Server Files\mainline\SRC_2014\Metin2Client\UserInterface\PythonNetworkStream.cpp

; 711  : 	SetGameOffline();

  000aa	e8 00 00 00 00	 call	 ?SetGameOffline@CPythonNetworkStream@@IAEXXZ ; CPythonNetworkStream::SetGameOffline

; 712  : 
; 713  : 	m_dwSelectedCharacterIndex = 0;
; 714  : 
; 715  : 	__DirectEnterMode_Initialize();

  000af	8b ce		 mov	 ecx, esi
  000b1	c7 86 10 79 00
	00 00 00 00 00	 mov	 DWORD PTR [esi+30992], 0
  000bb	e8 00 00 00 00	 call	 ?__DirectEnterMode_Initialize@CPythonNetworkStream@@AAEXXZ ; CPythonNetworkStream::__DirectEnterMode_Initialize

; 716  : 	__BettingGuildWar_Initialize();

  000c0	5f		 pop	 edi
  000c1	8b ce		 mov	 ecx, esi
  000c3	5e		 pop	 esi
  000c4	e9 00 00 00 00	 jmp	 ?__BettingGuildWar_Initialize@CPythonNetworkStream@@AAEXXZ ; CPythonNetworkStream::__BettingGuildWar_Initialize
?SetOffLinePhase@CPythonNetworkStream@@QAEXXZ ENDP	; CPythonNetworkStream::SetOffLinePhase
_TEXT	ENDS
; Function compile flags: /Ogtp
; File D:\Metin2 Server Files\mainline\SRC_2014\Metin2Client\UserInterface\PythonNetworkStream.cpp
;	COMDAT ?GetEmpireID@CPythonNetworkStream@@QAEKXZ
_TEXT	SEGMENT
?GetEmpireID@CPythonNetworkStream@@QAEKXZ PROC		; CPythonNetworkStream::GetEmpireID, COMDAT
; _this$ = ecx

; 775  : 	return m_dwEmpireID;

  00000	8b 81 b4 00 00
	00		 mov	 eax, DWORD PTR [ecx+180]

; 776  : }

  00006	c3		 ret	 0
?GetEmpireID@CPythonNetworkStream@@QAEKXZ ENDP		; CPythonNetworkStream::GetEmpireID
_TEXT	ENDS
; Function compile flags: /Ogtp
; File D:\Metin2 Server Files\mainline\SRC_2014\Metin2Client\UserInterface\PythonNetworkStream.cpp
;	COMDAT ?SetEmpireID@CPythonNetworkStream@@QAEXK@Z
_TEXT	SEGMENT
_dwEmpireID$ = 8					; size = 4
?SetEmpireID@CPythonNetworkStream@@QAEXK@Z PROC		; CPythonNetworkStream::SetEmpireID, COMDAT
; _this$ = ecx

; 769  : {

  00000	55		 push	 ebp
  00001	8b ec		 mov	 ebp, esp

; 770  : 	m_dwEmpireID = dwEmpireID;

  00003	8b 45 08	 mov	 eax, DWORD PTR _dwEmpireID$[ebp]
  00006	89 81 b4 00 00
	00		 mov	 DWORD PTR [ecx+180], eax

; 771  : }

  0000c	5d		 pop	 ebp
  0000d	c2 04 00	 ret	 4
?SetEmpireID@CPythonNetworkStream@@QAEXK@Z ENDP		; CPythonNetworkStream::SetEmpireID
_TEXT	ENDS
; Function compile flags: /Ogtp
; File D:\Metin2 Server Files\mainline\SRC_2014\Metin2Client\UserInterface\PythonNetworkStream.cpp
;	COMDAT ?GetMainActorSkillGroup@CPythonNetworkStream@@QAEKXZ
_TEXT	SEGMENT
?GetMainActorSkillGroup@CPythonNetworkStream@@QAEKXZ PROC ; CPythonNetworkStream::GetMainActorSkillGroup, COMDAT
; _this$ = ecx

; 765  : 	return m_dwMainActorSkillGroup;

  00000	8b 81 a4 00 00
	00		 mov	 eax, DWORD PTR [ecx+164]

; 766  : }

  00006	c3		 ret	 0
?GetMainActorSkillGroup@CPythonNetworkStream@@QAEKXZ ENDP ; CPythonNetworkStream::GetMainActorSkillGroup
_TEXT	ENDS
; Function compile flags: /Ogtp
; File D:\Metin2 Server Files\mainline\SRC_2014\Metin2Client\UserInterface\PythonNetworkStream.cpp
;	COMDAT ?GetMainActorEmpire@CPythonNetworkStream@@QAEKXZ
_TEXT	SEGMENT
?GetMainActorEmpire@CPythonNetworkStream@@QAEKXZ PROC	; CPythonNetworkStream::GetMainActorEmpire, COMDAT
; _this$ = ecx

; 760  : 	return m_dwMainActorEmpire;

  00000	8b 81 a0 00 00
	00		 mov	 eax, DWORD PTR [ecx+160]

; 761  : }

  00006	c3		 ret	 0
?GetMainActorEmpire@CPythonNetworkStream@@QAEKXZ ENDP	; CPythonNetworkStream::GetMainActorEmpire
_TEXT	ENDS
; Function compile flags: /Ogtp
; File D:\Metin2 Server Files\mainline\SRC_2014\Metin2Client\UserInterface\PythonNetworkStream.cpp
;	COMDAT ?GetMainActorRace@CPythonNetworkStream@@QAEKXZ
_TEXT	SEGMENT
?GetMainActorRace@CPythonNetworkStream@@QAEKXZ PROC	; CPythonNetworkStream::GetMainActorRace, COMDAT
; _this$ = ecx

; 755  : 	return m_dwMainActorRace;

  00000	8b 81 9c 00 00
	00		 mov	 eax, DWORD PTR [ecx+156]

; 756  : }

  00006	c3		 ret	 0
?GetMainActorRace@CPythonNetworkStream@@QAEKXZ ENDP	; CPythonNetworkStream::GetMainActorRace
_TEXT	ENDS
; Function compile flags: /Ogtp
; File D:\Metin2 Server Files\mainline\SRC_2014\Metin2Client\UserInterface\PythonNetworkStream.cpp
;	COMDAT ?GetMainActorVID@CPythonNetworkStream@@QAEKXZ
_TEXT	SEGMENT
?GetMainActorVID@CPythonNetworkStream@@QAEKXZ PROC	; CPythonNetworkStream::GetMainActorVID, COMDAT
; _this$ = ecx

; 750  : 	return m_dwMainActorVID;

  00000	8b 81 98 00 00
	00		 mov	 eax, DWORD PTR [ecx+152]

; 751  : }

  00006	c3		 ret	 0
?GetMainActorVID@CPythonNetworkStream@@QAEKXZ ENDP	; CPythonNetworkStream::GetMainActorVID
_TEXT	ENDS
; Function compile flags: /Ogtp
; File D:\Metin2 Server Files\mainline\SRC_2014\Metin2Client\UserInterface\PythonNetworkStream.cpp
;	COMDAT ?SetServerCommandParserWindow@CPythonNetworkStream@@QAEXPAU_object@@@Z
_TEXT	SEGMENT
_poWnd$ = 8						; size = 4
?SetServerCommandParserWindow@CPythonNetworkStream@@QAEXPAU_object@@@Z PROC ; CPythonNetworkStream::SetServerCommandParserWindow, COMDAT
; _this$ = ecx

; 366  : {

  00000	55		 push	 ebp
  00001	8b ec		 mov	 ebp, esp

; 367  : 	m_poSerCommandParserWnd = poWnd;

  00003	8b 45 08	 mov	 eax, DWORD PTR _poWnd$[ebp]
  00006	89 81 98 01 00
	00		 mov	 DWORD PTR [ecx+408], eax

; 368  : }

  0000c	5d		 pop	 ebp
  0000d	c2 04 00	 ret	 4
?SetServerCommandParserWindow@CPythonNetworkStream@@QAEXPAU_object@@@Z ENDP ; CPythonNetworkStream::SetServerCommandParserWindow
_TEXT	ENDS
; Function compile flags: /Ogtp
; File D:\Metin2 Server Files\mainline\SRC_2014\Metin2Client\UserInterface\PythonNetworkStream.cpp
;	COMDAT ?ClearPhaseWindow@CPythonNetworkStream@@QAEXIPAU_object@@@Z
_TEXT	SEGMENT
_ePhaseWnd$ = 8						; size = 4
_poPhaseWnd$ = 12					; size = 4
?ClearPhaseWindow@CPythonNetworkStream@@QAEXIPAU_object@@@Z PROC ; CPythonNetworkStream::ClearPhaseWindow, COMDAT
; _this$ = ecx

; 355  : {

  00000	55		 push	 ebp
  00001	8b ec		 mov	 ebp, esp

; 356  : 	if (ePhaseWnd>=PHASE_WINDOW_NUM)

  00003	8b 55 08	 mov	 edx, DWORD PTR _ePhaseWnd$[ebp]
  00006	83 fa 07	 cmp	 edx, 7
  00009	73 17		 jae	 SHORT $LN1@ClearPhase

; 357  : 		return;
; 358  : 
; 359  : 	if (poPhaseWnd != m_apoPhaseWnd[ePhaseWnd])

  0000b	8b 45 0c	 mov	 eax, DWORD PTR _poPhaseWnd$[ebp]
  0000e	3b 84 91 7c 01
	00 00		 cmp	 eax, DWORD PTR [ecx+edx*4+380]
  00015	75 0b		 jne	 SHORT $LN1@ClearPhase

; 360  : 		return;
; 361  : 
; 362  : 	m_apoPhaseWnd[ePhaseWnd]=0;

  00017	c7 84 91 7c 01
	00 00 00 00 00
	00		 mov	 DWORD PTR [ecx+edx*4+380], 0
$LN1@ClearPhase:

; 363  : }

  00022	5d		 pop	 ebp
  00023	c2 08 00	 ret	 8
?ClearPhaseWindow@CPythonNetworkStream@@QAEXIPAU_object@@@Z ENDP ; CPythonNetworkStream::ClearPhaseWindow
_TEXT	ENDS
; Function compile flags: /Ogtp
; File D:\Metin2 Server Files\mainline\SRC_2014\Metin2Client\UserInterface\PythonNetworkStream.cpp
;	COMDAT ?SetPhaseWindow@CPythonNetworkStream@@QAEXIPAU_object@@@Z
_TEXT	SEGMENT
_ePhaseWnd$ = 8						; size = 4
_poPhaseWnd$ = 12					; size = 4
?SetPhaseWindow@CPythonNetworkStream@@QAEXIPAU_object@@@Z PROC ; CPythonNetworkStream::SetPhaseWindow, COMDAT
; _this$ = ecx

; 347  : {

  00000	55		 push	 ebp
  00001	8b ec		 mov	 ebp, esp

; 348  : 	if (ePhaseWnd>=PHASE_WINDOW_NUM)

  00003	8b 55 08	 mov	 edx, DWORD PTR _ePhaseWnd$[ebp]
  00006	83 fa 07	 cmp	 edx, 7
  00009	73 0a		 jae	 SHORT $LN1@SetPhaseWi

; 349  : 		return;
; 350  : 
; 351  : 	m_apoPhaseWnd[ePhaseWnd]=poPhaseWnd;

  0000b	8b 45 0c	 mov	 eax, DWORD PTR _poPhaseWnd$[ebp]
  0000e	89 84 91 7c 01
	00 00		 mov	 DWORD PTR [ecx+edx*4+380], eax
$LN1@SetPhaseWi:

; 352  : }

  00015	5d		 pop	 ebp
  00016	c2 08 00	 ret	 8
?SetPhaseWindow@CPythonNetworkStream@@QAEXIPAU_object@@@Z ENDP ; CPythonNetworkStream::SetPhaseWindow
_TEXT	ENDS
; Function compile flags: /Ogtp
; File D:\Metin2 Server Files\mainline\SRC_2014\Metin2Client\UserInterface\PythonNetworkStream.cpp
;	COMDAT ?SetHandler@CPythonNetworkStream@@QAEXPAU_object@@@Z
_TEXT	SEGMENT
_poHandler$ = 8						; size = 4
?SetHandler@CPythonNetworkStream@@QAEXPAU_object@@@Z PROC ; CPythonNetworkStream::SetHandler, COMDAT
; _this$ = ecx

; 743  : {

  00000	55		 push	 ebp
  00001	8b ec		 mov	 ebp, esp

; 744  : 	m_poHandler = poHandler;

  00003	8b 45 08	 mov	 eax, DWORD PTR _poHandler$[ebp]
  00006	89 81 78 01 00
	00		 mov	 DWORD PTR [ecx+376], eax

; 745  : }

  0000c	5d		 pop	 ebp
  0000d	c2 04 00	 ret	 4
?SetHandler@CPythonNetworkStream@@QAEXPAU_object@@@Z ENDP ; CPythonNetworkStream::SetHandler
_TEXT	ENDS
; Function compile flags: /Ogtp
; File D:\Metin2 Server Files\mainline\SRC_2014\Metin2Client\UserInterface\PythonNetworkStream.cpp
; File C:\Program Files (x86)\Microsoft Visual Studio\2019\Community\VC\Tools\MSVC\14.28.29333\include\xstring
; File D:\Metin2 Server Files\mainline\SRC_2014\Metin2Client\UserInterface\PythonNetworkStream.cpp
; File C:\Program Files (x86)\Microsoft Visual Studio\2019\Community\VC\Tools\MSVC\14.28.29333\include\xstring
; File D:\Metin2 Server Files\mainline\SRC_2014\Metin2Client\UserInterface\PythonNetworkStream.cpp
;	COMDAT ?ClearLoginInfo@CPythonNetworkStream@@QAEXXZ
_TEXT	SEGMENT
?ClearLoginInfo@CPythonNetworkStream@@QAEXXZ PROC	; CPythonNetworkStream::ClearLoginInfo, COMDAT
; _this$ = ecx
; File C:\Program Files (x86)\Microsoft Visual Studio\2019\Community\VC\Tools\MSVC\14.28.29333\include\xstring

; 3062 :         return assign(_Ptr, _Convert_size<size_type>(_Traits::length(_Ptr)));

  00000	6a 00		 push	 0
  00002	68 00 00 00 00	 push	 OFFSET ??_C@_00CNPNBAHC@@
; File D:\Metin2 Server Files\mainline\SRC_2014\Metin2Client\UserInterface\PythonNetworkStream.cpp

; 490  : 	m_stPassword = "";

  00007	81 c1 dc 00 00
	00		 add	 ecx, 220		; 000000dcH
; File C:\Program Files (x86)\Microsoft Visual Studio\2019\Community\VC\Tools\MSVC\14.28.29333\include\xstring

; 3062 :         return assign(_Ptr, _Convert_size<size_type>(_Traits::length(_Ptr)));

  0000d	e8 00 00 00 00	 call	 ?assign@?$basic_string@DU?$char_traits@D@std@@V?$allocator@D@2@@std@@QAEAAV12@QBDI@Z ; std::basic_string<char,std::char_traits<char>,std::allocator<char> >::assign
; File D:\Metin2 Server Files\mainline\SRC_2014\Metin2Client\UserInterface\PythonNetworkStream.cpp

; 491  : }

  00012	c3		 ret	 0
?ClearLoginInfo@CPythonNetworkStream@@QAEXXZ ENDP	; CPythonNetworkStream::ClearLoginInfo
_TEXT	ENDS
; Function compile flags: /Ogtp
; File D:\Metin2 Server Files\mainline\SRC_2014\Metin2Client\UserInterface\PythonNetworkStream.cpp
;	COMDAT ?SetLoginKey@CPythonNetworkStream@@QAEXK@Z
_TEXT	SEGMENT
_dwLoginKey$ = 8					; size = 4
?SetLoginKey@CPythonNetworkStream@@QAEXK@Z PROC		; CPythonNetworkStream::SetLoginKey, COMDAT
; _this$ = ecx

; 494  : {

  00000	55		 push	 ebp
  00001	8b ec		 mov	 ebp, esp

; 495  : 	m_dwLoginKey = dwLoginKey;

  00003	8b 45 08	 mov	 eax, DWORD PTR _dwLoginKey$[ebp]
  00006	89 81 24 01 00
	00		 mov	 DWORD PTR [ecx+292], eax

; 496  : }

  0000c	5d		 pop	 ebp
  0000d	c2 04 00	 ret	 4
?SetLoginKey@CPythonNetworkStream@@QAEXK@Z ENDP		; CPythonNetworkStream::SetLoginKey
_TEXT	ENDS
; Function compile flags: /Ogtp
; File D:\Metin2 Server Files\mainline\SRC_2014\Metin2Client\UserInterface\PythonNetworkStream.cpp
; File C:\Program Files (x86)\Microsoft Visual Studio\2019\Community\VC\Tools\MSVC\14.28.29333\include\xstring
; File D:\Metin2 Server Files\mainline\SRC_2014\Metin2Client\UserInterface\PythonNetworkStream.cpp
; File C:\Program Files (x86)\Microsoft Visual Studio\2019\Community\VC\Tools\MSVC\14.28.29333\include\xstring
; File D:\Metin2 Server Files\mainline\SRC_2014\Metin2Client\UserInterface\PythonNetworkStream.cpp
; File C:\Program Files (x86)\Microsoft Visual Studio\2019\Community\VC\Tools\MSVC\14.28.29333\include\xstring
; File D:\Metin2 Server Files\mainline\SRC_2014\Metin2Client\UserInterface\PythonNetworkStream.cpp
; File C:\Program Files (x86)\Microsoft Visual Studio\2019\Community\VC\Tools\MSVC\14.28.29333\include\xstring
; File D:\Metin2 Server Files\mainline\SRC_2014\Metin2Client\UserInterface\PythonNetworkStream.cpp
;	COMDAT ?SetLoginInfo@CPythonNetworkStream@@QAEXPBD0@Z
_TEXT	SEGMENT
_c_szID$ = 8						; size = 4
_c_szPassword$ = 12					; size = 4
?SetLoginInfo@CPythonNetworkStream@@QAEXPBD0@Z PROC	; CPythonNetworkStream::SetLoginInfo, COMDAT
; _this$ = ecx

; 483  : {

  00000	55		 push	 ebp
  00001	8b ec		 mov	 ebp, esp
  00003	56		 push	 esi
; File C:\Program Files (x86)\Microsoft Visual Studio\2019\Community\VC\Tools\MSVC\14.28.29333\include\xstring

; 389  :         return _CSTD strlen(reinterpret_cast<const char*>(_First));

  00004	8b 75 08	 mov	 esi, DWORD PTR _c_szID$[ebp]
  00007	8b d6		 mov	 edx, esi
; File D:\Metin2 Server Files\mainline\SRC_2014\Metin2Client\UserInterface\PythonNetworkStream.cpp

; 483  : {

  00009	57		 push	 edi
  0000a	8b f9		 mov	 edi, ecx
; File C:\Program Files (x86)\Microsoft Visual Studio\2019\Community\VC\Tools\MSVC\14.28.29333\include\xstring

; 389  :         return _CSTD strlen(reinterpret_cast<const char*>(_First));

  0000c	8d 4a 01	 lea	 ecx, DWORD PTR [edx+1]
  0000f	90		 npad	 1
$LL15@SetLoginIn:
  00010	8a 02		 mov	 al, BYTE PTR [edx]
  00012	42		 inc	 edx
  00013	84 c0		 test	 al, al
  00015	75 f9		 jne	 SHORT $LL15@SetLoginIn
  00017	2b d1		 sub	 edx, ecx
; File D:\Metin2 Server Files\mainline\SRC_2014\Metin2Client\UserInterface\PythonNetworkStream.cpp

; 484  : 	m_stID=c_szID;

  00019	8d 8f c4 00 00
	00		 lea	 ecx, DWORD PTR [edi+196]
; File C:\Program Files (x86)\Microsoft Visual Studio\2019\Community\VC\Tools\MSVC\14.28.29333\include\xstring

; 3062 :         return assign(_Ptr, _Convert_size<size_type>(_Traits::length(_Ptr)));

  0001f	52		 push	 edx
  00020	56		 push	 esi
  00021	e8 00 00 00 00	 call	 ?assign@?$basic_string@DU?$char_traits@D@std@@V?$allocator@D@2@@std@@QAEAAV12@QBDI@Z ; std::basic_string<char,std::char_traits<char>,std::allocator<char> >::assign

; 389  :         return _CSTD strlen(reinterpret_cast<const char*>(_First));

  00026	8b 55 0c	 mov	 edx, DWORD PTR _c_szPassword$[ebp]
  00029	8b c2		 mov	 eax, edx
  0002b	8d 70 01	 lea	 esi, DWORD PTR [eax+1]
  0002e	66 90		 npad	 2
$LL16@SetLoginIn:
  00030	8a 08		 mov	 cl, BYTE PTR [eax]
  00032	40		 inc	 eax
  00033	84 c9		 test	 cl, cl
  00035	75 f9		 jne	 SHORT $LL16@SetLoginIn
  00037	2b c6		 sub	 eax, esi
; File D:\Metin2 Server Files\mainline\SRC_2014\Metin2Client\UserInterface\PythonNetworkStream.cpp

; 485  : 	m_stPassword=c_szPassword;

  00039	8d 8f dc 00 00
	00		 lea	 ecx, DWORD PTR [edi+220]
; File C:\Program Files (x86)\Microsoft Visual Studio\2019\Community\VC\Tools\MSVC\14.28.29333\include\xstring

; 3062 :         return assign(_Ptr, _Convert_size<size_type>(_Traits::length(_Ptr)));

  0003f	50		 push	 eax
  00040	52		 push	 edx
  00041	e8 00 00 00 00	 call	 ?assign@?$basic_string@DU?$char_traits@D@std@@V?$allocator@D@2@@std@@QAEAAV12@QBDI@Z ; std::basic_string<char,std::char_traits<char>,std::allocator<char> >::assign
  00046	5f		 pop	 edi
  00047	5e		 pop	 esi
; File D:\Metin2 Server Files\mainline\SRC_2014\Metin2Client\UserInterface\PythonNetworkStream.cpp

; 486  : }

  00048	5d		 pop	 ebp
  00049	c2 08 00	 ret	 8
?SetLoginInfo@CPythonNetworkStream@@QAEXPBD0@Z ENDP	; CPythonNetworkStream::SetLoginInfo
_TEXT	ENDS
; Function compile flags: /Ogtp
; File D:\Metin2 Server Files\mainline\SRC_2014\Metin2Client\UserInterface\PythonNetworkStream.cpp
;	COMDAT ?ConnectGameServer@CPythonNetworkStream@@QAEXI@Z
_TEXT	SEGMENT
_iChrSlot$ = 8						; size = 4
?ConnectGameServer@CPythonNetworkStream@@QAEXI@Z PROC	; CPythonNetworkStream::ConnectGameServer, COMDAT
; _this$ = ecx

; 470  : {

  00000	55		 push	 ebp
  00001	8b ec		 mov	 ebp, esp
  00003	56		 push	 esi

; 471  : 	if (iChrSlot >= PLAYER_PER_ACCOUNT4)

  00004	8b 75 08	 mov	 esi, DWORD PTR _iChrSlot$[ebp]
  00007	57		 push	 edi
  00008	8b f9		 mov	 edi, ecx
  0000a	83 fe 04	 cmp	 esi, 4
  0000d	73 2c		 jae	 SHORT $LN1@ConnectGam

; 472  : 		return;
; 473  : 
; 474  : 	m_dwSelectedCharacterIndex = iChrSlot;
; 475  : 
; 476  : 	__DirectEnterMode_Set(iChrSlot);

  0000f	56		 push	 esi
  00010	89 b7 10 79 00
	00		 mov	 DWORD PTR [edi+30992], esi
  00016	e8 00 00 00 00	 call	 ?__DirectEnterMode_Set@CPythonNetworkStream@@AAEXI@Z ; CPythonNetworkStream::__DirectEnterMode_Set

; 477  : 
; 478  : 	TSimplePlayerInformation&	rkSimplePlayerInfo=m_akSimplePlayerInfo[iChrSlot];	

  0001b	8b ce		 mov	 ecx, esi
  0001d	c1 e1 06	 shl	 ecx, 6
  00020	2b ce		 sub	 ecx, esi

; 479  : 	CNetworkStream::Connect((DWORD)rkSimplePlayerInfo.lAddr, rkSimplePlayerInfo.wPort);

  00022	6a 03		 push	 3
  00024	0f b7 84 39 d8
	01 00 00	 movzx	 eax, WORD PTR [ecx+edi+472]
  0002c	50		 push	 eax
  0002d	ff b4 39 d4 01
	00 00		 push	 DWORD PTR [ecx+edi+468]
  00034	8b cf		 mov	 ecx, edi
  00036	e8 00 00 00 00	 call	 ?Connect@CNetworkStream@@QAE_NKHH@Z ; CNetworkStream::Connect
$LN1@ConnectGam:

; 480  : }

  0003b	5f		 pop	 edi
  0003c	5e		 pop	 esi
  0003d	5d		 pop	 ebp
  0003e	c2 04 00	 ret	 4
?ConnectGameServer@CPythonNetworkStream@@QAEXI@Z ENDP	; CPythonNetworkStream::ConnectGameServer
_TEXT	ENDS
; Function compile flags: /Ogtp
; File D:\Metin2 Server Files\mainline\SRC_2014\Metin2Client\UserInterface\PythonNetworkStream.cpp
;	COMDAT ?ConnectLoginServer@CPythonNetworkStream@@QAEXPBDI@Z
_TEXT	SEGMENT
_c_szAddr$ = 8						; size = 4
_uPort$ = 12						; size = 4
?ConnectLoginServer@CPythonNetworkStream@@QAEXPBDI@Z PROC ; CPythonNetworkStream::ConnectLoginServer, COMDAT
; _this$ = ecx

; 460  : {

  00000	55		 push	 ebp
  00001	8b ec		 mov	 ebp, esp

; 461  : 	CNetworkStream::Connect(c_szAddr, uPort);		

  00003	6a 03		 push	 3
  00005	ff 75 0c	 push	 DWORD PTR _uPort$[ebp]
  00008	ff 75 08	 push	 DWORD PTR _c_szAddr$[ebp]
  0000b	e8 00 00 00 00	 call	 ?Connect@CNetworkStream@@QAE_NPBDHH@Z ; CNetworkStream::Connect

; 462  : }

  00010	5d		 pop	 ebp
  00011	c2 08 00	 ret	 8
?ConnectLoginServer@CPythonNetworkStream@@QAEXPBDI@Z ENDP ; CPythonNetworkStream::ConnectLoginServer
_TEXT	ENDS
; Function compile flags: /Ogtp
; File D:\Metin2 Server Files\mainline\SRC_2014\Metin2Client\UserInterface\PythonNetworkStream.cpp
;	COMDAT ?SetMarkServer@CPythonNetworkStream@@QAEXPBDI@Z
_TEXT	SEGMENT
_c_szAddr$ = 8						; size = 4
_uPort$ = 12						; size = 4
?SetMarkServer@CPythonNetworkStream@@QAEXPBDI@Z PROC	; CPythonNetworkStream::SetMarkServer, COMDAT
; _this$ = ecx

; 465  : {

  00000	55		 push	 ebp
  00001	8b ec		 mov	 ebp, esp

; 466  : 	m_kMarkAuth.m_kNetAddr.Set(c_szAddr, uPort);

  00003	81 c1 f8 78 00
	00		 add	 ecx, 30968		; 000078f8H

; 467  : }

  00009	5d		 pop	 ebp

; 466  : 	m_kMarkAuth.m_kNetAddr.Set(c_szAddr, uPort);

  0000a	e9 00 00 00 00	 jmp	 ?Set@CNetworkAddress@@QAE_NPBDH@Z ; CNetworkAddress::Set
?SetMarkServer@CPythonNetworkStream@@QAEXPBDI@Z ENDP	; CPythonNetworkStream::SetMarkServer
_TEXT	ENDS
; Function compile flags: /Ogtp
; File D:\Metin2 Server Files\mainline\SRC_2014\Metin2Client\UserInterface\PythonNetworkStream.cpp
;	COMDAT ?IsSelectedEmpire@CPythonNetworkStream@@QAE_NXZ
_TEXT	SEGMENT
?IsSelectedEmpire@CPythonNetworkStream@@QAE_NXZ PROC	; CPythonNetworkStream::IsSelectedEmpire, COMDAT
; _this$ = ecx

; 372  : 	if (m_dwEmpireID)

  00000	83 b9 b4 00 00
	00 00		 cmp	 DWORD PTR [ecx+180], 0
  00007	0f 95 c0	 setne	 al

; 373  : 		return true;
; 374  : 	
; 375  : 	return false;
; 376  : }

  0000a	c3		 ret	 0
?IsSelectedEmpire@CPythonNetworkStream@@QAE_NXZ ENDP	; CPythonNetworkStream::IsSelectedEmpire
_TEXT	ENDS
; Function compile flags: /Ogtp
; File D:\Metin2 Server Files\mainline\SRC_2014\Metin2Client\UserInterface\PythonNetworkStream.cpp
; File C:\Program Files (x86)\Microsoft Visual Studio\2019\Community\VC\Tools\MSVC\14.28.29333\include\xstring
; File D:\Metin2 Server Files\mainline\SRC_2014\Metin2Client\UserInterface\PythonNetworkStream.cpp
;	COMDAT ?GetAccountCharacterSlotDataz@CPythonNetworkStream@@QAEPBDII@Z
_TEXT	SEGMENT
_iSlot$ = 8						; size = 4
_ip$1$sroa$383$1$ = 11					; size = 1
_eType$ = 12						; size = 4
?GetAccountCharacterSlotDataz@CPythonNetworkStream@@QAEPBDII@Z PROC ; CPythonNetworkStream::GetAccountCharacterSlotDataz, COMDAT
; _this$ = ecx

; 422  : {

  00000	55		 push	 ebp
  00001	8b ec		 mov	 ebp, esp

; 423  : 	static const char* sc_szEmpty="";
; 424  : 
; 425  : 	if (iSlot >= PLAYER_PER_ACCOUNT4)

  00003	8b 55 08	 mov	 edx, DWORD PTR _iSlot$[ebp]
  00006	83 fa 04	 cmp	 edx, 4
  00009	72 09		 jb	 SHORT $LN7@GetAccount

; 426  : 		return sc_szEmpty;

  0000b	a1 00 00 00 00	 mov	 eax, DWORD PTR ?sc_szEmpty@?1??GetAccountCharacterSlotDataz@CPythonNetworkStream@@QAEPBDII@Z@4PBDB

; 457  : }

  00010	5d		 pop	 ebp
  00011	c2 08 00	 ret	 8
$LN7@GetAccount:

; 427  : 		
; 428  : 	TSimplePlayerInformation&	rkSimplePlayerInfo=m_akSimplePlayerInfo[iSlot];
; 429  : 	
; 430  : 	switch (eType)

  00014	8b 45 0c	 mov	 eax, DWORD PTR _eType$[ebp]
  00017	56		 push	 esi
  00018	8b f2		 mov	 esi, edx
  0001a	c1 e6 06	 shl	 esi, 6
  0001d	2b f2		 sub	 esi, edx
  0001f	03 f1		 add	 esi, ecx
  00021	83 e8 01	 sub	 eax, 1
  00024	0f 84 84 00 00
	00		 je	 $LN9@GetAccount
  0002a	83 e8 09	 sub	 eax, 9
  0002d	74 29		 je	 SHORT $LN8@GetAccount
  0002f	83 e8 03	 sub	 eax, 3
  00032	74 0a		 je	 SHORT $LN10@GetAccount

; 454  : 			break;
; 455  : 	}
; 456  : 	return sc_szEmpty;

  00034	a1 00 00 00 00	 mov	 eax, DWORD PTR ?sc_szEmpty@?1??GetAccountCharacterSlotDataz@CPythonNetworkStream@@QAEPBDII@Z@4PBDB
  00039	5e		 pop	 esi

; 457  : }

  0003a	5d		 pop	 ebp
  0003b	c2 08 00	 ret	 8
$LN10@GetAccount:

; 451  : 			break;		
; 452  : 		case ACCOUNT_CHARACTER_SLOT_GUILD_NAME:
; 453  : 			return m_astrGuildName[iSlot].c_str();

  0003e	8d 04 55 55 00
	00 00		 lea	 eax, DWORD PTR [edx*2+85]
; File C:\Program Files (x86)\Microsoft Visual Studio\2019\Community\VC\Tools\MSVC\14.28.29333\include\xstring

; 3752 :         return _Mypair._Myval2._Myptr();

  00045	03 c2		 add	 eax, edx

; 2227 :         return _BUF_SIZE <= _Myres;

  00047	83 7c c1 14 10	 cmp	 DWORD PTR [ecx+eax*8+20], 16 ; 00000010H

; 3752 :         return _Mypair._Myval2._Myptr();

  0004c	8d 04 c1	 lea	 eax, DWORD PTR [ecx+eax*8]

; 2219 :         if (_Large_string_engaged()) {

  0004f	72 63		 jb	 SHORT $LN27@GetAccount

; 2220 :             _Result = _Unfancy(_Bx._Ptr);

  00051	8b 00		 mov	 eax, DWORD PTR [eax]
  00053	5e		 pop	 esi
; File D:\Metin2 Server Files\mainline\SRC_2014\Metin2Client\UserInterface\PythonNetworkStream.cpp

; 457  : }

  00054	5d		 pop	 ebp
  00055	c2 08 00	 ret	 8
$LN8@GetAccount:

; 431  : 	{
; 432  : 		case ACCOUNT_CHARACTER_SLOT_ADDR:
; 433  : 			{				
; 434  : 				BYTE ip[4];
; 435  : 
; 436  : 				const int LEN = 4;
; 437  : 				for (int i = 0; i < LEN; i++)
; 438  : 				{
; 439  : 					ip[i] = BYTE(rkSimplePlayerInfo.lAddr&0xff);

  00058	8a 86 d4 01 00
	00		 mov	 al, BYTE PTR [esi+468]
  0005e	53		 push	 ebx

; 440  : 					rkSimplePlayerInfo.lAddr>>=8;

  0005f	8b 9e d4 01 00
	00		 mov	 ebx, DWORD PTR [esi+468]
  00065	c1 fb 08	 sar	 ebx, 8
  00068	8b d3		 mov	 edx, ebx
  0006a	88 45 0b	 mov	 BYTE PTR _ip$1$sroa$383$1$[ebp], al
  0006d	c1 fa 08	 sar	 edx, 8
  00070	8b ca		 mov	 ecx, edx
  00072	c1 f9 08	 sar	 ecx, 8
  00075	8b c1		 mov	 eax, ecx
  00077	c1 f8 08	 sar	 eax, 8
  0007a	89 86 d4 01 00
	00		 mov	 DWORD PTR [esi+468], eax

; 441  : 				}
; 442  : 
; 443  : 
; 444  : 				static char s_szAddr[256];
; 445  : 				sprintf(s_szAddr, "%d.%d.%d.%d", ip[0], ip[1], ip[2], ip[3]);

  00080	0f b6 c1	 movzx	 eax, cl
  00083	50		 push	 eax
  00084	0f b6 c2	 movzx	 eax, dl
  00087	50		 push	 eax
  00088	0f b6 c3	 movzx	 eax, bl
  0008b	50		 push	 eax
  0008c	0f b6 45 0b	 movzx	 eax, BYTE PTR _ip$1$sroa$383$1$[ebp]
  00090	50		 push	 eax
  00091	68 00 00 00 00	 push	 OFFSET ??_C@_0M@PCENNPGA@?$CFd?4?$CFd?4?$CFd?4?$CFd@
  00096	68 00 00 00 00	 push	 OFFSET ?s_szAddr@?6??GetAccountCharacterSlotDataz@CPythonNetworkStream@@QAEPBDII@Z@4PADA
  0009b	e8 00 00 00 00	 call	 _sprintf
  000a0	83 c4 18	 add	 esp, 24			; 00000018H

; 446  : 				return s_szAddr;

  000a3	b8 00 00 00 00	 mov	 eax, OFFSET ?s_szAddr@?6??GetAccountCharacterSlotDataz@CPythonNetworkStream@@QAEPBDII@Z@4PADA
  000a8	5b		 pop	 ebx
  000a9	5e		 pop	 esi

; 457  : }

  000aa	5d		 pop	 ebp
  000ab	c2 08 00	 ret	 8
$LN9@GetAccount:

; 447  : 			}
; 448  : 			break;
; 449  : 		case ACCOUNT_CHARACTER_SLOT_NAME:
; 450  : 			return rkSimplePlayerInfo.szName;

  000ae	8d 86 a0 01 00
	00		 lea	 eax, DWORD PTR [esi+416]
$LN27@GetAccount:
  000b4	5e		 pop	 esi

; 457  : }

  000b5	5d		 pop	 ebp
  000b6	c2 08 00	 ret	 8
?GetAccountCharacterSlotDataz@CPythonNetworkStream@@QAEPBDII@Z ENDP ; CPythonNetworkStream::GetAccountCharacterSlotDataz
_TEXT	ENDS
; Function compile flags: /Ogtp
; File D:\Metin2 Server Files\mainline\SRC_2014\Metin2Client\UserInterface\PythonNetworkStream.cpp
;	COMDAT ?GetAccountCharacterSlotDatau@CPythonNetworkStream@@QAEIII@Z
_TEXT	SEGMENT
_iSlot$ = 8						; size = 4
_eType$ = 12						; size = 4
?GetAccountCharacterSlotDatau@CPythonNetworkStream@@QAEIII@Z PROC ; CPythonNetworkStream::GetAccountCharacterSlotDatau, COMDAT
; _this$ = ecx

; 379  : {

  00000	55		 push	 ebp
  00001	8b ec		 mov	 ebp, esp

; 380  : 	if (iSlot >= PLAYER_PER_ACCOUNT4)

  00003	8b 55 08	 mov	 edx, DWORD PTR _iSlot$[ebp]
  00006	56		 push	 esi
  00007	83 fa 04	 cmp	 edx, 4
  0000a	0f 83 92 00 00
	00		 jae	 $LN2@GetAccount

; 381  : 		return 0;
; 382  : 		
; 383  : 	TSimplePlayerInformation&	rkSimplePlayerInfo=m_akSimplePlayerInfo[iSlot];
; 384  : 	
; 385  : 	switch (eType)

  00010	8b 75 0c	 mov	 esi, DWORD PTR _eType$[ebp]
  00013	8b c2		 mov	 eax, edx
  00015	c1 e0 06	 shl	 eax, 6
  00018	2b c2		 sub	 eax, edx
  0001a	05 9c 01 00 00	 add	 eax, 412		; 0000019cH
  0001f	03 c1		 add	 eax, ecx
  00021	83 fe 0f	 cmp	 esi, 15			; 0000000fH
  00024	77 7c		 ja	 SHORT $LN2@GetAccount
  00026	ff 24 b5 00 00
	00 00		 jmp	 DWORD PTR $LN19@GetAccount[esi*4]
$LN5@GetAccount:

; 386  : 	{
; 387  : 		case ACCOUNT_CHARACTER_SLOT_ID:
; 388  : 			return rkSimplePlayerInfo.dwID;

  0002d	8b 00		 mov	 eax, DWORD PTR [eax]
  0002f	5e		 pop	 esi

; 419  : }

  00030	5d		 pop	 ebp
  00031	c2 08 00	 ret	 8
$LN6@GetAccount:

; 389  : 		case ACCOUNT_CHARACTER_SLOT_RACE:
; 390  : 			return rkSimplePlayerInfo.byJob;

  00034	0f b6 40 1d	 movzx	 eax, BYTE PTR [eax+29]
  00038	5e		 pop	 esi

; 419  : }

  00039	5d		 pop	 ebp
  0003a	c2 08 00	 ret	 8
$LN7@GetAccount:

; 391  : 		case ACCOUNT_CHARACTER_SLOT_LEVEL:
; 392  : 			return rkSimplePlayerInfo.byLevel;

  0003d	0f b6 40 1e	 movzx	 eax, BYTE PTR [eax+30]
  00041	5e		 pop	 esi

; 419  : }

  00042	5d		 pop	 ebp
  00043	c2 08 00	 ret	 8
$LN8@GetAccount:

; 393  : 		case ACCOUNT_CHARACTER_SLOT_STR:
; 394  : 			return rkSimplePlayerInfo.byST;

  00046	0f b6 40 23	 movzx	 eax, BYTE PTR [eax+35]
  0004a	5e		 pop	 esi

; 419  : }

  0004b	5d		 pop	 ebp
  0004c	c2 08 00	 ret	 8
$LN9@GetAccount:

; 395  : 		case ACCOUNT_CHARACTER_SLOT_DEX:
; 396  : 			return rkSimplePlayerInfo.byDX;

  0004f	0f b6 40 25	 movzx	 eax, BYTE PTR [eax+37]
  00053	5e		 pop	 esi

; 419  : }

  00054	5d		 pop	 ebp
  00055	c2 08 00	 ret	 8
$LN10@GetAccount:

; 397  : 		case ACCOUNT_CHARACTER_SLOT_HTH:
; 398  : 			return rkSimplePlayerInfo.byHT;

  00058	0f b6 40 24	 movzx	 eax, BYTE PTR [eax+36]
  0005c	5e		 pop	 esi

; 419  : }

  0005d	5d		 pop	 ebp
  0005e	c2 08 00	 ret	 8
$LN11@GetAccount:

; 399  : 		case ACCOUNT_CHARACTER_SLOT_INT:			
; 400  : 			return rkSimplePlayerInfo.byIQ;

  00061	0f b6 40 26	 movzx	 eax, BYTE PTR [eax+38]
  00065	5e		 pop	 esi

; 419  : }

  00066	5d		 pop	 ebp
  00067	c2 08 00	 ret	 8
$LN12@GetAccount:

; 401  : 		case ACCOUNT_CHARACTER_SLOT_PLAYTIME:
; 402  : 			return rkSimplePlayerInfo.dwPlayMinutes;

  0006a	8b 40 1f	 mov	 eax, DWORD PTR [eax+31]
  0006d	5e		 pop	 esi

; 419  : }

  0006e	5d		 pop	 ebp
  0006f	c2 08 00	 ret	 8
$LN13@GetAccount:

; 403  : 		case ACCOUNT_CHARACTER_SLOT_FORM:
; 404  : //			return rkSimplePlayerInfo.wParts[CRaceData::PART_MAIN];
; 405  : 			return rkSimplePlayerInfo.wMainPart;

  00072	0f b7 40 27	 movzx	 eax, WORD PTR [eax+39]
  00076	5e		 pop	 esi

; 419  : }

  00077	5d		 pop	 ebp
  00078	c2 08 00	 ret	 8
$LN14@GetAccount:

; 406  : 		case ACCOUNT_CHARACTER_SLOT_PORT:
; 407  : 			return rkSimplePlayerInfo.wPort;

  0007b	0f b7 40 3c	 movzx	 eax, WORD PTR [eax+60]
  0007f	5e		 pop	 esi

; 419  : }

  00080	5d		 pop	 ebp
  00081	c2 08 00	 ret	 8
$LN15@GetAccount:

; 408  : 		case ACCOUNT_CHARACTER_SLOT_GUILD_ID:
; 409  : 			return m_adwGuildID[iSlot];

  00084	8b 84 91 98 02
	00 00		 mov	 eax, DWORD PTR [ecx+edx*4+664]
  0008b	5e		 pop	 esi

; 419  : }

  0008c	5d		 pop	 ebp
  0008d	c2 08 00	 ret	 8
$LN16@GetAccount:

; 410  : 			break;
; 411  : 		case ACCOUNT_CHARACTER_SLOT_CHANGE_NAME_FLAG:
; 412  : 			return rkSimplePlayerInfo.bChangeName;

  00090	0f b6 40 29	 movzx	 eax, BYTE PTR [eax+41]
  00094	5e		 pop	 esi

; 419  : }

  00095	5d		 pop	 ebp
  00096	c2 08 00	 ret	 8
$LN17@GetAccount:

; 413  : 			break;
; 414  : 		case ACCOUNT_CHARACTER_SLOT_HAIR:
; 415  : 			return rkSimplePlayerInfo.wHairPart;

  00099	0f b7 40 2a	 movzx	 eax, WORD PTR [eax+42]
  0009d	5e		 pop	 esi

; 419  : }

  0009e	5d		 pop	 ebp
  0009f	c2 08 00	 ret	 8
$LN2@GetAccount:

; 416  : 			break;
; 417  : 	}
; 418  : 	return 0;

  000a2	33 c0		 xor	 eax, eax
  000a4	5e		 pop	 esi

; 419  : }

  000a5	5d		 pop	 ebp
  000a6	c2 08 00	 ret	 8
  000a9	0f 1f 00	 npad	 3
$LN19@GetAccount:
  000ac	00 00 00 00	 DD	 $LN5@GetAccount
  000b0	00 00 00 00	 DD	 $LN2@GetAccount
  000b4	00 00 00 00	 DD	 $LN6@GetAccount
  000b8	00 00 00 00	 DD	 $LN7@GetAccount
  000bc	00 00 00 00	 DD	 $LN8@GetAccount
  000c0	00 00 00 00	 DD	 $LN9@GetAccount
  000c4	00 00 00 00	 DD	 $LN10@GetAccount
  000c8	00 00 00 00	 DD	 $LN11@GetAccount
  000cc	00 00 00 00	 DD	 $LN12@GetAccount
  000d0	00 00 00 00	 DD	 $LN13@GetAccount
  000d4	00 00 00 00	 DD	 $LN2@GetAccount
  000d8	00 00 00 00	 DD	 $LN14@GetAccount
  000dc	00 00 00 00	 DD	 $LN15@GetAccount
  000e0	00 00 00 00	 DD	 $LN2@GetAccount
  000e4	00 00 00 00	 DD	 $LN16@GetAccount
  000e8	00 00 00 00	 DD	 $LN17@GetAccount
?GetAccountCharacterSlotDatau@CPythonNetworkStream@@QAEIII@Z ENDP ; CPythonNetworkStream::GetAccountCharacterSlotDatau
_TEXT	ENDS
; Function compile flags: /Ogtp
; File D:\Metin2 Server Files\mainline\SRC_2014\Metin2Client\UserInterface\PythonNetworkStream.cpp
;	COMDAT ?UploadSymbol@CPythonNetworkStream@@QAEIPBD@Z
_TEXT	SEGMENT
_uError$ = -4						; size = 4
_c_szImageFileName$ = 8					; size = 4
?UploadSymbol@CPythonNetworkStream@@QAEIPBD@Z PROC	; CPythonNetworkStream::UploadSymbol, COMDAT
; _this$ = ecx

; 299  : {

  00000	55		 push	 ebp
  00001	8b ec		 mov	 ebp, esp
  00003	51		 push	 ecx

; 300  : 	UINT uError=ERROR_UNKNOWN;
; 301  : 	CGuildMarkUploader& rkGuildMarkUploader=CGuildMarkUploader::Instance();
; 302  : 	if (!rkGuildMarkUploader.ConnectToSendSymbol(m_kMarkAuth.m_kNetAddr, m_kMarkAuth.m_dwHandle, m_kMarkAuth.m_dwRandomKey, m_dwGuildID, c_szImageFileName, &uError))

  00004	8d 45 fc	 lea	 eax, DWORD PTR _uError$[ebp]
  00007	c7 45 fc 01 00
	00 00		 mov	 DWORD PTR _uError$[ebp], 1
  0000e	50		 push	 eax
  0000f	ff 75 08	 push	 DWORD PTR _c_szImageFileName$[ebp]
  00012	8d 81 f8 78 00
	00		 lea	 eax, DWORD PTR [ecx+30968]
  00018	ff b1 b0 00 00
	00		 push	 DWORD PTR [ecx+176]
  0001e	ff b1 0c 79 00
	00		 push	 DWORD PTR [ecx+30988]
  00024	ff b1 08 79 00
	00		 push	 DWORD PTR [ecx+30984]
  0002a	8b 0d 00 00 00
	00		 mov	 ecx, DWORD PTR ?ms_singleton@?$CSingleton@VCGuildMarkUploader@@@@0PAVCGuildMarkUploader@@A ; CSingleton<CGuildMarkUploader>::ms_singleton
  00030	50		 push	 eax
  00031	e8 00 00 00 00	 call	 ?ConnectToSendSymbol@CGuildMarkUploader@@QAE_NABVCNetworkAddress@@KKKPBDPAI@Z ; CGuildMarkUploader::ConnectToSendSymbol
  00036	84 c0		 test	 al, al
  00038	75 47		 jne	 SHORT $LN2@UploadSymb

; 303  : 	{
; 304  : 		switch (uError)

  0003a	8b 45 fc	 mov	 eax, DWORD PTR _uError$[ebp]
  0003d	48		 dec	 eax
  0003e	83 f8 03	 cmp	 eax, 3
  00041	77 33		 ja	 SHORT $LN9@UploadSymb
  00043	ff 24 85 00 00
	00 00		 jmp	 DWORD PTR $LN11@UploadSymb[eax*4]
$LN5@UploadSymb:

; 305  : 		{
; 306  : 			case CGuildMarkUploader::ERROR_CONNECT:
; 307  : 				return ERROR_CONNECT_MARK_SERVER;

  0004a	b8 02 00 00 00	 mov	 eax, 2

; 324  : }

  0004f	8b e5		 mov	 esp, ebp
  00051	5d		 pop	 ebp
  00052	c2 04 00	 ret	 4
$LN6@UploadSymb:

; 308  : 				break;
; 309  : 			case CGuildMarkUploader::ERROR_LOAD:
; 310  : 				return ERROR_LOAD_MARK;

  00055	b8 03 00 00 00	 mov	 eax, 3

; 324  : }

  0005a	8b e5		 mov	 esp, ebp
  0005c	5d		 pop	 ebp
  0005d	c2 04 00	 ret	 4
$LN7@UploadSymb:

; 311  : 				break;
; 312  : 			case CGuildMarkUploader::ERROR_WIDTH:
; 313  : 				return ERROR_MARK_WIDTH;

  00060	b8 04 00 00 00	 mov	 eax, 4

; 324  : }

  00065	8b e5		 mov	 esp, ebp
  00067	5d		 pop	 ebp
  00068	c2 04 00	 ret	 4
$LN8@UploadSymb:

; 314  : 				break;
; 315  : 			case CGuildMarkUploader::ERROR_HEIGHT:
; 316  : 				return ERROR_MARK_HEIGHT;

  0006b	b8 05 00 00 00	 mov	 eax, 5

; 324  : }

  00070	8b e5		 mov	 esp, ebp
  00072	5d		 pop	 ebp
  00073	c2 04 00	 ret	 4
$LN9@UploadSymb:

; 317  : 				break;
; 318  : 			default:
; 319  : 				return ERROR_UNKNOWN;

  00076	b8 01 00 00 00	 mov	 eax, 1

; 324  : }

  0007b	8b e5		 mov	 esp, ebp
  0007d	5d		 pop	 ebp
  0007e	c2 04 00	 ret	 4
$LN2@UploadSymb:

; 320  : 		}
; 321  : 	}
; 322  : 
; 323  : 	return ERROR_NONE;

  00081	33 c0		 xor	 eax, eax

; 324  : }

  00083	8b e5		 mov	 esp, ebp
  00085	5d		 pop	 ebp
  00086	c2 04 00	 ret	 4
  00089	0f 1f 00	 npad	 3
$LN11@UploadSymb:
  0008c	00 00 00 00	 DD	 $LN5@UploadSymb
  00090	00 00 00 00	 DD	 $LN6@UploadSymb
  00094	00 00 00 00	 DD	 $LN7@UploadSymb
  00098	00 00 00 00	 DD	 $LN8@UploadSymb
?UploadSymbol@CPythonNetworkStream@@QAEIPBD@Z ENDP	; CPythonNetworkStream::UploadSymbol
_TEXT	ENDS
; Function compile flags: /Ogtp
; File D:\Metin2 Server Files\mainline\SRC_2014\Metin2Client\UserInterface\PythonNetworkStream.cpp
;	COMDAT ?UploadMark@CPythonNetworkStream@@QAEIPBD@Z
_TEXT	SEGMENT
_uError$ = -4						; size = 4
_c_szImageFileName$ = 8					; size = 4
?UploadMark@CPythonNetworkStream@@QAEIPBD@Z PROC	; CPythonNetworkStream::UploadMark, COMDAT
; _this$ = ecx

; 256  : {

  00000	55		 push	 ebp
  00001	8b ec		 mov	 ebp, esp
  00003	51		 push	 ecx
  00004	56		 push	 esi
  00005	8b f1		 mov	 esi, ecx

; 257  : 	// MARK_BUG_FIX
; 258  : 	//      0.
; 259  : 	if (0 == m_dwGuildID)

  00007	8b 86 b0 00 00
	00		 mov	 eax, DWORD PTR [esi+176]
  0000d	85 c0		 test	 eax, eax
  0000f	75 0c		 jne	 SHORT $LN4@UploadMark

; 260  : 		return ERROR_MARK_UPLOAD_NEED_RECONNECT;

  00011	b8 06 00 00 00	 mov	 eax, 6
  00016	5e		 pop	 esi

; 293  : 		return ERROR_MARK_CHECK_NEED_RECONNECT;
; 294  : 
; 295  : 	return ERROR_NONE;
; 296  : }

  00017	8b e5		 mov	 esp, ebp
  00019	5d		 pop	 ebp
  0001a	c2 04 00	 ret	 4
$LN4@UploadMark:

; 261  : 
; 262  : 	gs_nextDownloadMarkTime = 0;
; 263  : 	// END_OF_MARK_BUG_FIX
; 264  : 
; 265  : 	UINT uError=ERROR_UNKNOWN;
; 266  : 	CGuildMarkUploader& rkGuildMarkUploader=CGuildMarkUploader::Instance();
; 267  : 	if (!rkGuildMarkUploader.Connect(m_kMarkAuth.m_kNetAddr, m_kMarkAuth.m_dwHandle, m_kMarkAuth.m_dwRandomKey, m_dwGuildID, c_szImageFileName, &uError))

  0001d	8d 4d fc	 lea	 ecx, DWORD PTR _uError$[ebp]
  00020	c7 05 00 00 00
	00 00 00 00 00	 mov	 DWORD PTR ?gs_nextDownloadMarkTime@@3KA, 0
  0002a	51		 push	 ecx
  0002b	ff 75 08	 push	 DWORD PTR _c_szImageFileName$[ebp]
  0002e	8b 0d 00 00 00
	00		 mov	 ecx, DWORD PTR ?ms_singleton@?$CSingleton@VCGuildMarkUploader@@@@0PAVCGuildMarkUploader@@A ; CSingleton<CGuildMarkUploader>::ms_singleton
  00034	50		 push	 eax
  00035	ff b6 0c 79 00
	00		 push	 DWORD PTR [esi+30988]
  0003b	8d 86 f8 78 00
	00		 lea	 eax, DWORD PTR [esi+30968]
  00041	c7 45 fc 01 00
	00 00		 mov	 DWORD PTR _uError$[ebp], 1
  00048	ff b6 08 79 00
	00		 push	 DWORD PTR [esi+30984]
  0004e	50		 push	 eax
  0004f	e8 00 00 00 00	 call	 ?Connect@CGuildMarkUploader@@QAE_NABVCNetworkAddress@@KKKPBDPAI@Z ; CGuildMarkUploader::Connect
  00054	84 c0		 test	 al, al
  00056	75 4c		 jne	 SHORT $LN2@UploadMark

; 268  : 	{
; 269  : 		switch (uError)

  00058	8b 45 fc	 mov	 eax, DWORD PTR _uError$[ebp]
  0005b	48		 dec	 eax
  0005c	83 f8 03	 cmp	 eax, 3
  0005f	77 37		 ja	 SHORT $LN10@UploadMark
  00061	ff 24 85 00 00
	00 00		 jmp	 DWORD PTR $LN13@UploadMark[eax*4]
$LN6@UploadMark:

; 270  : 		{
; 271  : 			case CGuildMarkUploader::ERROR_CONNECT:
; 272  : 				return ERROR_CONNECT_MARK_SERVER;

  00068	b8 02 00 00 00	 mov	 eax, 2
  0006d	5e		 pop	 esi

; 293  : 		return ERROR_MARK_CHECK_NEED_RECONNECT;
; 294  : 
; 295  : 	return ERROR_NONE;
; 296  : }

  0006e	8b e5		 mov	 esp, ebp
  00070	5d		 pop	 ebp
  00071	c2 04 00	 ret	 4
$LN7@UploadMark:

; 273  : 				break;
; 274  : 			case CGuildMarkUploader::ERROR_LOAD:
; 275  : 				return ERROR_LOAD_MARK;

  00074	b8 03 00 00 00	 mov	 eax, 3
  00079	5e		 pop	 esi

; 293  : 		return ERROR_MARK_CHECK_NEED_RECONNECT;
; 294  : 
; 295  : 	return ERROR_NONE;
; 296  : }

  0007a	8b e5		 mov	 esp, ebp
  0007c	5d		 pop	 ebp
  0007d	c2 04 00	 ret	 4
$LN8@UploadMark:

; 276  : 				break;
; 277  : 			case CGuildMarkUploader::ERROR_WIDTH:
; 278  : 				return ERROR_MARK_WIDTH;

  00080	b8 04 00 00 00	 mov	 eax, 4
  00085	5e		 pop	 esi

; 293  : 		return ERROR_MARK_CHECK_NEED_RECONNECT;
; 294  : 
; 295  : 	return ERROR_NONE;
; 296  : }

  00086	8b e5		 mov	 esp, ebp
  00088	5d		 pop	 ebp
  00089	c2 04 00	 ret	 4
$LN9@UploadMark:

; 279  : 				break;
; 280  : 			case CGuildMarkUploader::ERROR_HEIGHT:
; 281  : 				return ERROR_MARK_HEIGHT;

  0008c	b8 05 00 00 00	 mov	 eax, 5
  00091	5e		 pop	 esi

; 293  : 		return ERROR_MARK_CHECK_NEED_RECONNECT;
; 294  : 
; 295  : 	return ERROR_NONE;
; 296  : }

  00092	8b e5		 mov	 esp, ebp
  00094	5d		 pop	 ebp
  00095	c2 04 00	 ret	 4
$LN10@UploadMark:

; 282  : 				break;
; 283  : 			default:
; 284  : 				return ERROR_UNKNOWN;

  00098	b8 01 00 00 00	 mov	 eax, 1
  0009d	5e		 pop	 esi

; 293  : 		return ERROR_MARK_CHECK_NEED_RECONNECT;
; 294  : 
; 295  : 	return ERROR_NONE;
; 296  : }

  0009e	8b e5		 mov	 esp, ebp
  000a0	5d		 pop	 ebp
  000a1	c2 04 00	 ret	 4
$LN2@UploadMark:

; 285  : 		}
; 286  : 	}
; 287  : 
; 288  : 	// MARK_BUG_FIX	
; 289  : 	__DownloadMark();

  000a4	8b ce		 mov	 ecx, esi
  000a6	e8 00 00 00 00	 call	 ?__DownloadMark@CPythonNetworkStream@@IAEXXZ ; CPythonNetworkStream::__DownloadMark

; 290  : 	// END_OF_MARK_BUG_FIX
; 291  : 	
; 292  : 	if (CGuildMarkManager::INVALID_MARK_ID == CGuildMarkManager::Instance().GetMarkID(m_dwGuildID))

  000ab	ff b6 b0 00 00
	00		 push	 DWORD PTR [esi+176]
  000b1	8b 0d 00 00 00
	00		 mov	 ecx, DWORD PTR ?ms_singleton@?$singleton@VCGuildMarkManager@@@@0PAVCGuildMarkManager@@A ; singleton<CGuildMarkManager>::ms_singleton
  000b7	e8 00 00 00 00	 call	 ?GetMarkID@CGuildMarkManager@@QAEKK@Z ; CGuildMarkManager::GetMarkID
  000bc	33 c9		 xor	 ecx, ecx
  000be	ba 07 00 00 00	 mov	 edx, 7
  000c3	83 f8 ff	 cmp	 eax, -1
  000c6	5e		 pop	 esi
  000c7	0f 44 ca	 cmove	 ecx, edx
  000ca	8b c1		 mov	 eax, ecx

; 293  : 		return ERROR_MARK_CHECK_NEED_RECONNECT;
; 294  : 
; 295  : 	return ERROR_NONE;
; 296  : }

  000cc	8b e5		 mov	 esp, ebp
  000ce	5d		 pop	 ebp
  000cf	c2 04 00	 ret	 4
  000d2	66 90		 npad	 2
$LN13@UploadMark:
  000d4	00 00 00 00	 DD	 $LN6@UploadMark
  000d8	00 00 00 00	 DD	 $LN7@UploadMark
  000dc	00 00 00 00	 DD	 $LN8@UploadMark
  000e0	00 00 00 00	 DD	 $LN9@UploadMark
?UploadMark@CPythonNetworkStream@@QAEIPBD@Z ENDP	; CPythonNetworkStream::UploadMark
_TEXT	ENDS
; Function compile flags: /Ogtp
; File D:\Metin2 Server Files\mainline\SRC_2014\Metin2Client\UserInterface\PythonNetworkStream.cpp
;	COMDAT ?GetGuildID@CPythonNetworkStream@@QAEKXZ
_TEXT	SEGMENT
?GetGuildID@CPythonNetworkStream@@QAEKXZ PROC		; CPythonNetworkStream::GetGuildID, COMDAT
; _this$ = ecx

; 252  : 	return m_dwGuildID;

  00000	8b 81 b0 00 00
	00		 mov	 eax, DWORD PTR [ecx+176]

; 253  : }

  00006	c3		 ret	 0
?GetGuildID@CPythonNetworkStream@@QAEKXZ ENDP		; CPythonNetworkStream::GetGuildID
_TEXT	ENDS
; Function compile flags: /Ogtp
; File D:\Metin2 Server Files\mainline\SRC_2014\Metin2Client\UserInterface\PythonNetworkStream.cpp
;	COMDAT ?AbsoluteExitApplication@CPythonNetworkStream@@QAEXXZ
_TEXT	SEGMENT
?AbsoluteExitApplication@CPythonNetworkStream@@QAEXXZ PROC ; CPythonNetworkStream::AbsoluteExitApplication, COMDAT
; _this$ = ecx

; 241  : 	PostQuitMessage(0);

  00000	6a 00		 push	 0
  00002	ff 15 00 00 00
	00		 call	 DWORD PTR __imp__PostQuitMessage@4

; 242  : }

  00008	c3		 ret	 0
?AbsoluteExitApplication@CPythonNetworkStream@@QAEXXZ ENDP ; CPythonNetworkStream::AbsoluteExitApplication
_TEXT	ENDS
; Function compile flags: /Ogtp
; File D:\Metin2 Server Files\mainline\SRC_2014\Metin2Client\UserInterface\PythonNetworkStream.cpp
;	COMDAT ?AbsoluteExitGame@CPythonNetworkStream@@QAEXXZ
_TEXT	SEGMENT
?AbsoluteExitGame@CPythonNetworkStream@@QAEXXZ PROC	; CPythonNetworkStream::AbsoluteExitGame, COMDAT
; _this$ = ecx

; 231  : {

  00000	56		 push	 esi
  00001	8b f1		 mov	 esi, ecx

; 232  : 	if (!IsOnline())

  00003	e8 00 00 00 00	 call	 ?IsOnline@CNetworkStream@@QAE_NXZ ; CNetworkStream::IsOnline
  00008	84 c0		 test	 al, al
  0000a	74 0f		 je	 SHORT $LN1@AbsoluteEx

; 233  : 		return;
; 234  : 
; 235  : 	OnRemoteDisconnect();		

  0000c	8b 06		 mov	 eax, DWORD PTR [esi]
  0000e	8b ce		 mov	 ecx, esi
  00010	ff 50 0c	 call	 DWORD PTR [eax+12]

; 236  : 	Disconnect();

  00013	8b ce		 mov	 ecx, esi
  00015	5e		 pop	 esi
  00016	e9 00 00 00 00	 jmp	 ?Disconnect@CNetworkStream@@QAEXXZ ; CNetworkStream::Disconnect
$LN1@AbsoluteEx:
  0001b	5e		 pop	 esi

; 237  : }

  0001c	c3		 ret	 0
?AbsoluteExitGame@CPythonNetworkStream@@QAEXXZ ENDP	; CPythonNetworkStream::AbsoluteExitGame
_TEXT	ENDS
; Function compile flags: /Ogtp
; File D:\Metin2 Server Files\mainline\SRC_2014\Metin2Client\UserInterface\PythonNetworkStream.cpp
;	COMDAT ?LogOutGame@CPythonNetworkStream@@QAEXXZ
_TEXT	SEGMENT
?LogOutGame@CPythonNetworkStream@@QAEXXZ PROC		; CPythonNetworkStream::LogOutGame, COMDAT
; _this$ = ecx

; 219  : {

  00000	56		 push	 esi
  00001	8b f1		 mov	 esi, ecx

; 220  : 	if (__IsNotPing())

  00003	e8 00 00 00 00	 call	 ?__IsNotPing@CPythonNetworkStream@@IAE_NXZ ; CPythonNetworkStream::__IsNotPing
  00008	8b ce		 mov	 ecx, esi
  0000a	84 c0		 test	 al, al
  0000c	74 06		 je	 SHORT $LN2@LogOutGame
  0000e	5e		 pop	 esi

; 221  : 	{		
; 222  : 		AbsoluteExitGame();

  0000f	e9 00 00 00 00	 jmp	 ?AbsoluteExitGame@CPythonNetworkStream@@QAEXXZ ; CPythonNetworkStream::AbsoluteExitGame
$LN2@LogOutGame:

; 223  : 	}	
; 224  : 	else
; 225  : 	{
; 226  : 		SendChatPacket("/logout");

  00014	6a 00		 push	 0
  00016	68 00 00 00 00	 push	 OFFSET ??_C@_07FOABJBDD@?1logout@
  0001b	e8 00 00 00 00	 call	 ?SendChatPacket@CPythonNetworkStream@@QAE_NPBDE@Z ; CPythonNetworkStream::SendChatPacket
  00020	5e		 pop	 esi

; 227  : 	}
; 228  : }

  00021	c3		 ret	 0
?LogOutGame@CPythonNetworkStream@@QAEXXZ ENDP		; CPythonNetworkStream::LogOutGame
_TEXT	ENDS
; Function compile flags: /Ogtp
; File D:\Metin2 Server Files\mainline\SRC_2014\Metin2Client\UserInterface\PythonNetworkStream.cpp
;	COMDAT ?ExitGame@CPythonNetworkStream@@QAEXXZ
_TEXT	SEGMENT
?ExitGame@CPythonNetworkStream@@QAEXXZ PROC		; CPythonNetworkStream::ExitGame, COMDAT
; _this$ = ecx

; 206  : {

  00000	56		 push	 esi
  00001	8b f1		 mov	 esi, ecx

; 207  : 	if (__IsNotPing())

  00003	e8 00 00 00 00	 call	 ?__IsNotPing@CPythonNetworkStream@@IAE_NXZ ; CPythonNetworkStream::__IsNotPing
  00008	8b ce		 mov	 ecx, esi
  0000a	84 c0		 test	 al, al
  0000c	74 06		 je	 SHORT $LN2@ExitGame
  0000e	5e		 pop	 esi

; 208  : 	{
; 209  : 		LogOutGame();

  0000f	e9 00 00 00 00	 jmp	 ?LogOutGame@CPythonNetworkStream@@QAEXXZ ; CPythonNetworkStream::LogOutGame
$LN2@ExitGame:

; 210  : 	}
; 211  : 	else
; 212  : 	{
; 213  : 		SendChatPacket("/phase_select");

  00014	6a 00		 push	 0
  00016	68 00 00 00 00	 push	 OFFSET ??_C@_0O@ODIJHOCP@?1phase_select@
  0001b	e8 00 00 00 00	 call	 ?SendChatPacket@CPythonNetworkStream@@QAE_NPBDE@Z ; CPythonNetworkStream::SendChatPacket
  00020	5e		 pop	 esi

; 214  : 	}
; 215  : }

  00021	c3		 ret	 0
?ExitGame@CPythonNetworkStream@@QAEXXZ ENDP		; CPythonNetworkStream::ExitGame
_TEXT	ENDS
; Function compile flags: /Ogtp
; File D:\Metin2 Server Files\mainline\SRC_2014\Metin2Client\UserInterface\PythonNetworkStream.cpp
;	COMDAT ?ExitApplication@CPythonNetworkStream@@QAEXXZ
_TEXT	SEGMENT
?ExitApplication@CPythonNetworkStream@@QAEXXZ PROC	; CPythonNetworkStream::ExitApplication, COMDAT
; _this$ = ecx

; 194  : {

  00000	56		 push	 esi
  00001	8b f1		 mov	 esi, ecx

; 195  : 	if (__IsNotPing())

  00003	e8 00 00 00 00	 call	 ?__IsNotPing@CPythonNetworkStream@@IAE_NXZ ; CPythonNetworkStream::__IsNotPing
  00008	8b ce		 mov	 ecx, esi
  0000a	84 c0		 test	 al, al
  0000c	74 06		 je	 SHORT $LN2@ExitApplic
  0000e	5e		 pop	 esi

; 196  : 	{
; 197  : 		AbsoluteExitApplication();

  0000f	e9 00 00 00 00	 jmp	 ?AbsoluteExitApplication@CPythonNetworkStream@@QAEXXZ ; CPythonNetworkStream::AbsoluteExitApplication
$LN2@ExitApplic:

; 198  : 	}
; 199  : 	else
; 200  : 	{
; 201  : 		SendChatPacket("/quit");

  00014	6a 00		 push	 0
  00016	68 00 00 00 00	 push	 OFFSET ??_C@_05CMMBDMDD@?1quit@
  0001b	e8 00 00 00 00	 call	 ?SendChatPacket@CPythonNetworkStream@@QAE_NPBDE@Z ; CPythonNetworkStream::SendChatPacket
  00020	5e		 pop	 esi

; 202  : 	}
; 203  : }

  00021	c3		 ret	 0
?ExitApplication@CPythonNetworkStream@@QAEXXZ ENDP	; CPythonNetworkStream::ExitApplication
_TEXT	ENDS
; Function compile flags: /Ogtp
; File D:\Metin2 Server Files\mainline\SRC_2014\Metin2Client\UserInterface\PythonNetworkStream.cpp
; File C:\Program Files (x86)\Microsoft Visual Studio\2019\Community\VC\Tools\MSVC\14.28.29333\include\vector
; File D:\Metin2 Server Files\mainline\SRC_2014\Metin2Client\UserInterface\PythonNetworkStream.cpp
; File C:\Program Files (x86)\Microsoft Visual Studio\2019\Community\VC\Tools\MSVC\14.28.29333\include\vector
; File D:\Metin2 Server Files\mainline\SRC_2014\Metin2Client\UserInterface\PythonNetworkStream.cpp
; File C:\Program Files (x86)\Microsoft Visual Studio\2019\Community\VC\Tools\MSVC\14.28.29333\include\vector
; File C:\Program Files (x86)\Microsoft Visual Studio\2019\Community\VC\Tools\MSVC\14.28.29333\include\xstring
; File C:\Program Files (x86)\Microsoft Visual Studio\2019\Community\VC\Tools\MSVC\14.28.29333\include\vector
; File C:\Program Files (x86)\Microsoft Visual Studio\2019\Community\VC\Tools\MSVC\14.28.29333\include\xstring
; File D:\Metin2 Server Files\mainline\SRC_2014\Metin2Client\UserInterface\PythonNetworkStream.cpp
;	COMDAT ?SendEmoticon@CPythonNetworkStream@@QAEXI@Z
_TEXT	SEGMENT
_eEmoticon$ = 8						; size = 4
?SendEmoticon@CPythonNetworkStream@@QAEXI@Z PROC	; CPythonNetworkStream::SendEmoticon, COMDAT
; _this$ = ecx

; 853  : {

  00000	55		 push	 ebp
  00001	8b ec		 mov	 ebp, esp
  00003	56		 push	 esi
  00004	8b f1		 mov	 esi, ecx
; File C:\Program Files (x86)\Microsoft Visual Studio\2019\Community\VC\Tools\MSVC\14.28.29333\include\vector

; 1484 :         return static_cast<size_type>(_My_data._Mylast - _My_data._Myfirst);

  00006	b8 ab aa aa 2a	 mov	 eax, 715827883		; 2aaaaaabH
; File D:\Metin2 Server Files\mainline\SRC_2014\Metin2Client\UserInterface\PythonNetworkStream.cpp

; 854  : 	if(eEmoticon < m_EmoticonStringVector.size())

  0000b	8b 4d 08	 mov	 ecx, DWORD PTR _eEmoticon$[ebp]
  0000e	57		 push	 edi
; File C:\Program Files (x86)\Microsoft Visual Studio\2019\Community\VC\Tools\MSVC\14.28.29333\include\vector

; 1484 :         return static_cast<size_type>(_My_data._Mylast - _My_data._Myfirst);

  0000f	8b 96 24 03 00
	00		 mov	 edx, DWORD PTR [esi+804]
  00015	8b be 20 03 00
	00		 mov	 edi, DWORD PTR [esi+800]
  0001b	2b d7		 sub	 edx, edi
  0001d	f7 ea		 imul	 edx
  0001f	c1 fa 02	 sar	 edx, 2
  00022	8b c2		 mov	 eax, edx
  00024	c1 e8 1f	 shr	 eax, 31			; 0000001fH
  00027	03 c2		 add	 eax, edx
; File D:\Metin2 Server Files\mainline\SRC_2014\Metin2Client\UserInterface\PythonNetworkStream.cpp

; 854  : 	if(eEmoticon < m_EmoticonStringVector.size())

  00029	3b c8		 cmp	 ecx, eax
  0002b	73 19		 jae	 SHORT $LN2@SendEmotic
; File C:\Program Files (x86)\Microsoft Visual Studio\2019\Community\VC\Tools\MSVC\14.28.29333\include\vector

; 1504 :         return _My_data._Myfirst[_Pos];

  0002d	8d 04 49	 lea	 eax, DWORD PTR [ecx+ecx*2]
; File C:\Program Files (x86)\Microsoft Visual Studio\2019\Community\VC\Tools\MSVC\14.28.29333\include\xstring

; 2227 :         return _BUF_SIZE <= _Myres;

  00030	83 7c c7 14 10	 cmp	 DWORD PTR [edi+eax*8+20], 16 ; 00000010H
; File C:\Program Files (x86)\Microsoft Visual Studio\2019\Community\VC\Tools\MSVC\14.28.29333\include\vector

; 1504 :         return _My_data._Myfirst[_Pos];

  00035	8d 04 c7	 lea	 eax, DWORD PTR [edi+eax*8]
; File C:\Program Files (x86)\Microsoft Visual Studio\2019\Community\VC\Tools\MSVC\14.28.29333\include\xstring

; 2219 :         if (_Large_string_engaged()) {

  00038	72 02		 jb	 SHORT $LN12@SendEmotic

; 2220 :             _Result = _Unfancy(_Bx._Ptr);

  0003a	8b 00		 mov	 eax, DWORD PTR [eax]
$LN12@SendEmotic:
; File D:\Metin2 Server Files\mainline\SRC_2014\Metin2Client\UserInterface\PythonNetworkStream.cpp

; 855  : 		SendChatPacket(m_EmoticonStringVector[eEmoticon].c_str());

  0003c	6a 00		 push	 0
  0003e	50		 push	 eax
  0003f	8b ce		 mov	 ecx, esi
  00041	e8 00 00 00 00	 call	 ?SendChatPacket@CPythonNetworkStream@@QAE_NPBDE@Z ; CPythonNetworkStream::SendChatPacket
$LN2@SendEmotic:

; 856  : 	else
; 857  : 		assert(false && "SendEmoticon Error");
; 858  : }

  00046	5f		 pop	 edi
  00047	5e		 pop	 esi
  00048	5d		 pop	 ebp
  00049	c2 04 00	 ret	 4
?SendEmoticon@CPythonNetworkStream@@QAEXI@Z ENDP	; CPythonNetworkStream::SendEmoticon
_TEXT	ENDS
; Function compile flags: /Ogtp
; File D:\Metin2 Server Files\mainline\SRC_2014\Metin2Client\UserInterface\PythonNetworkStream.cpp
;	COMDAT ?SetWaitFlag@CPythonNetworkStream@@QAEXXZ
_TEXT	SEGMENT
?SetWaitFlag@CPythonNetworkStream@@QAEXXZ PROC		; CPythonNetworkStream::SetWaitFlag, COMDAT
; _this$ = ecx

; 849  : 	m_isWaitLoginKey = TRUE;

  00000	c7 81 28 01 00
	00 01 00 00 00	 mov	 DWORD PTR [ecx+296], 1

; 850  : }

  0000a	c3		 ret	 0
?SetWaitFlag@CPythonNetworkStream@@QAEXXZ ENDP		; CPythonNetworkStream::SetWaitFlag
_TEXT	ENDS
; Function compile flags: /Ogtp
; File D:\Metin2 Server Files\mainline\SRC_2014\Metin2Client\UserInterface\PythonNetworkStream.cpp
; File C:\Program Files (x86)\Microsoft Visual Studio\2019\Community\VC\Tools\MSVC\14.28.29333\include\vector
; File D:\Metin2 Server Files\mainline\SRC_2014\Metin2Client\UserInterface\PythonNetworkStream.cpp
; File C:\Program Files (x86)\Microsoft Visual Studio\2019\Community\VC\Tools\MSVC\14.28.29333\include\vector
; File C:\Program Files (x86)\Microsoft Visual Studio\2019\Community\VC\Tools\MSVC\14.28.29333\include\xmemory
; File C:\Program Files (x86)\Microsoft Visual Studio\2019\Community\VC\Tools\MSVC\14.28.29333\include\vector
; File C:\Program Files (x86)\Microsoft Visual Studio\2019\Community\VC\Tools\MSVC\14.28.29333\include\xmemory
; File C:\Program Files (x86)\Microsoft Visual Studio\2019\Community\VC\Tools\MSVC\14.28.29333\include\vector
; File D:\Metin2 Server Files\mainline\SRC_2014\Metin2Client\eterlib\Ref.h
; File D:\Metin2 Server Files\mainline\SRC_2014\Metin2Client\UserInterface\PythonNetworkStream.cpp
; File D:\Metin2 Server Files\mainline\SRC_2014\Metin2Client\eterlib\Ref.h
; File D:\Metin2 Server Files\mainline\SRC_2014\Metin2Client\UserInterface\PythonNetworkStream.cpp
; File C:\Program Files (x86)\Microsoft Visual Studio\2019\Community\VC\Tools\MSVC\14.28.29333\include\xstring
; File C:\Program Files (x86)\Microsoft Visual Studio\2019\Community\VC\Tools\MSVC\14.28.29333\include\xmemory
; File C:\Program Files (x86)\Microsoft Visual Studio\2019\Community\VC\Tools\MSVC\14.28.29333\include\xstring
; File C:\Program Files (x86)\Microsoft Visual Studio\2019\Community\VC\Tools\MSVC\14.28.29333\include\xmemory
; File C:\Program Files (x86)\Microsoft Visual Studio\2019\Community\VC\Tools\MSVC\14.28.29333\include\xstring
; File C:\Program Files (x86)\Microsoft Visual Studio\2019\Community\VC\Tools\MSVC\14.28.29333\include\xmemory
; File C:\Program Files (x86)\Microsoft Visual Studio\2019\Community\VC\Tools\MSVC\14.28.29333\include\xstring
; File C:\Program Files (x86)\Microsoft Visual Studio\2019\Community\VC\Tools\MSVC\14.28.29333\include\xmemory
; File C:\Program Files (x86)\Microsoft Visual Studio\2019\Community\VC\Tools\MSVC\14.28.29333\include\xstring
; File C:\Program Files (x86)\Microsoft Visual Studio\2019\Community\VC\Tools\MSVC\14.28.29333\include\xmemory
; File C:\Program Files (x86)\Microsoft Visual Studio\2019\Community\VC\Tools\MSVC\14.28.29333\include\xstring
; File D:\Metin2 Server Files\mainline\SRC_2014\Metin2Client\UserInterface\PythonNetworkStream.cpp
; File C:\Program Files (x86)\Microsoft Visual Studio\2019\Community\VC\Tools\MSVC\14.28.29333\include\xstring
; File D:\Metin2 Server Files\mainline\SRC_2014\Metin2Client\eterBase\Singleton.h
; File D:\Metin2 Server Files\mainline\SRC_2014\Metin2Client\UserInterface\PythonNetworkStream.cpp
;	COMDAT ??1CPythonNetworkStream@@UAE@XZ
_TEXT	SEGMENT
__$EHRec$ = -12						; size = 12
??1CPythonNetworkStream@@UAE@XZ PROC			; CPythonNetworkStream::~CPythonNetworkStream, COMDAT
; _this$ = ecx

; 899  : {

  00000	55		 push	 ebp
  00001	8b ec		 mov	 ebp, esp
  00003	6a ff		 push	 -1
  00005	68 00 00 00 00	 push	 __ehhandler$??1CPythonNetworkStream@@UAE@XZ
  0000a	64 a1 00 00 00
	00		 mov	 eax, DWORD PTR fs:0
  00010	50		 push	 eax
  00011	53		 push	 ebx
  00012	57		 push	 edi
  00013	a1 00 00 00 00	 mov	 eax, DWORD PTR ___security_cookie
  00018	33 c5		 xor	 eax, ebp
  0001a	50		 push	 eax
  0001b	8d 45 f4	 lea	 eax, DWORD PTR __$EHRec$[ebp]
  0001e	64 a3 00 00 00
	00		 mov	 DWORD PTR fs:0, eax
  00024	8b f9		 mov	 edi, ecx

; 900  : 	Tracen("PythonNetworkMainStream Clear");

  00026	68 00 00 00 00	 push	 OFFSET ??_C@_0BO@OMGIOKNA@PythonNetworkMainStream?5Clear@
  0002b	c7 07 00 00 00
	00		 mov	 DWORD PTR [edi], OFFSET ??_7CPythonNetworkStream@@6BCNetworkStream@@@
  00031	c7 47 7c 00 00
	00 00		 mov	 DWORD PTR [edi+124], OFFSET ??_7CPythonNetworkStream@@6B?$CSingleton@VCPythonNetworkStream@@@@@
  00038	e8 00 00 00 00	 call	 ?Tracen@@YAXPBD@Z	; Tracen
  0003d	83 c4 04	 add	 esp, 4

; 901  : }

  00040	8d 8f 24 79 00
	00		 lea	 ecx, DWORD PTR [edi+31012]
  00046	e8 00 00 00 00	 call	 ??1?$deque@V?$basic_string@DU?$char_traits@D@std@@V?$allocator@D@2@@std@@V?$allocator@V?$basic_string@DU?$char_traits@D@std@@V?$allocator@D@2@@std@@@2@@std@@QAE@XZ ; std::deque<std::basic_string<char,std::char_traits<char>,std::allocator<char> >,std::allocator<std::basic_string<char,std::char_traits<char>,std::allocator<char> > > >::~deque<std::basic_string<char,std::char_traits<char>,std::allocator<char> >,std::allocator<std::basic_string<char,std::char_traits<char>,std::allocator<char> > > >
  0004b	8d 8f 14 79 00
	00		 lea	 ecx, DWORD PTR [edi+30996]
  00051	e8 00 00 00 00	 call	 ??1CInsultChecker@@UAE@XZ ; CInsultChecker::~CInsultChecker
  00056	8d 8f f8 78 00
	00		 lea	 ecx, DWORD PTR [edi+30968]
  0005c	e8 00 00 00 00	 call	 ??1CNetworkAddress@@QAE@XZ ; CNetworkAddress::~CNetworkAddress
; File C:\Program Files (x86)\Microsoft Visual Studio\2019\Community\VC\Tools\MSVC\14.28.29333\include\vector

; 1694 :         if (_Myfirst) { // destroy and deallocate old array

  00061	8b 87 20 03 00
	00		 mov	 eax, DWORD PTR [edi+800]
; File D:\Metin2 Server Files\mainline\SRC_2014\Metin2Client\UserInterface\PythonNetworkStream.cpp

; 901  : }

  00067	8d 9f 20 03 00
	00		 lea	 ebx, DWORD PTR [edi+800]
; File C:\Program Files (x86)\Microsoft Visual Studio\2019\Community\VC\Tools\MSVC\14.28.29333\include\vector

; 1694 :         if (_Myfirst) { // destroy and deallocate old array

  0006d	85 c0		 test	 eax, eax
  0006f	74 45		 je	 SHORT $LN9@CPythonNet

; 1612 :         _Destroy_range(_First, _Last, _Getal());

  00071	53		 push	 ebx
  00072	ff 73 04	 push	 DWORD PTR [ebx+4]
  00075	50		 push	 eax
  00076	e8 00 00 00 00	 call	 ??$_Destroy_range@V?$allocator@V?$basic_string@DU?$char_traits@D@std@@V?$allocator@D@2@@std@@@std@@@std@@YAXPAV?$basic_string@DU?$char_traits@D@std@@V?$allocator@D@2@@0@QAV10@AAV?$allocator@V?$basic_string@DU?$char_traits@D@std@@V?$allocator@D@2@@std@@@0@@Z ; std::_Destroy_range<std::allocator<std::basic_string<char,std::char_traits<char>,std::allocator<char> > > >

; 1696 :             _Getal().deallocate(_Myfirst, static_cast<size_type>(_Myend - _Myfirst));

  0007b	8b 4b 08	 mov	 ecx, DWORD PTR [ebx+8]
  0007e	b8 ab aa aa 2a	 mov	 eax, 715827883		; 2aaaaaabH
  00083	2b 0b		 sub	 ecx, DWORD PTR [ebx]
  00085	f7 e9		 imul	 ecx
  00087	c1 fa 02	 sar	 edx, 2
  0008a	8b c2		 mov	 eax, edx
  0008c	c1 e8 1f	 shr	 eax, 31			; 0000001fH
  0008f	03 c2		 add	 eax, edx
; File C:\Program Files (x86)\Microsoft Visual Studio\2019\Community\VC\Tools\MSVC\14.28.29333\include\xmemory

; 810  :         _Deallocate<_New_alignof<_Ty>>(_Ptr, sizeof(_Ty) * _Count);

  00091	8d 04 40	 lea	 eax, DWORD PTR [eax+eax*2]
  00094	c1 e0 03	 shl	 eax, 3
  00097	50		 push	 eax
  00098	ff 33		 push	 DWORD PTR [ebx]
  0009a	e8 00 00 00 00	 call	 ??$_Deallocate@$07$0A@@std@@YAXPAXI@Z ; std::_Deallocate<8,0>
; File C:\Program Files (x86)\Microsoft Visual Studio\2019\Community\VC\Tools\MSVC\14.28.29333\include\vector

; 1698 :             _Myfirst = pointer();

  0009f	c7 03 00 00 00
	00		 mov	 DWORD PTR [ebx], 0
; File C:\Program Files (x86)\Microsoft Visual Studio\2019\Community\VC\Tools\MSVC\14.28.29333\include\xmemory

; 810  :         _Deallocate<_New_alignof<_Ty>>(_Ptr, sizeof(_Ty) * _Count);

  000a5	83 c4 14	 add	 esp, 20			; 00000014H
; File C:\Program Files (x86)\Microsoft Visual Studio\2019\Community\VC\Tools\MSVC\14.28.29333\include\vector

; 1699 :             _Mylast  = pointer();

  000a8	c7 43 04 00 00
	00 00		 mov	 DWORD PTR [ebx+4], 0

; 1700 :             _Myend   = pointer();

  000af	c7 43 08 00 00
	00 00		 mov	 DWORD PTR [ebx+8], 0
$LN9@CPythonNet:
; File D:\Metin2 Server Files\mainline\SRC_2014\Metin2Client\eterlib\Ref.h

; 53   : 			if (m_pObject)

  000b6	8b 8f 0c 03 00
	00		 mov	 ecx, DWORD PTR [edi+780]

; 37   : 		{

  000bc	c7 45 fc 00 00
	00 00		 mov	 DWORD PTR __$EHRec$[ebp+8], 0

; 53   : 			if (m_pObject)

  000c3	85 c9		 test	 ecx, ecx
  000c5	74 0f		 je	 SHORT $LN19@CPythonNet

; 54   : 			{
; 55   : 				m_pObject->Release();

  000c7	e8 00 00 00 00	 call	 ?Release@CReferenceObject@@QAEXXZ ; CReferenceObject::Release

; 56   : 				m_pObject = NULL;

  000cc	c7 87 0c 03 00
	00 00 00 00 00	 mov	 DWORD PTR [edi+780], 0
$LN19@CPythonNet:
; File D:\Metin2 Server Files\mainline\SRC_2014\Metin2Client\UserInterface\PythonNetworkStream.cpp

; 901  : }

  000d6	68 00 00 00 00	 push	 OFFSET ??1?$basic_string@DU?$char_traits@D@std@@V?$allocator@D@2@@std@@QAE@XZ ; std::basic_string<char,std::char_traits<char>,std::allocator<char> >::~basic_string<char,std::char_traits<char>,std::allocator<char> >
  000db	6a 04		 push	 4
  000dd	6a 18		 push	 24			; 00000018H
  000df	8d 87 a8 02 00
	00		 lea	 eax, DWORD PTR [edi+680]
; File D:\Metin2 Server Files\mainline\SRC_2014\Metin2Client\eterlib\Ref.h

; 39   : 		}

  000e5	c7 45 fc ff ff
	ff ff		 mov	 DWORD PTR __$EHRec$[ebp+8], -1
; File D:\Metin2 Server Files\mainline\SRC_2014\Metin2Client\UserInterface\PythonNetworkStream.cpp

; 901  : }

  000ec	50		 push	 eax
  000ed	e8 00 00 00 00	 call	 ??_M@YGXPAXIIP6EX0@Z@Z
  000f2	c7 87 60 01 00
	00 00 00 00 00	 mov	 DWORD PTR [edi+352], OFFSET ??_7?$CFuncObject@VCPythonNetworkStream@@@@6B@
  000fc	c7 87 48 01 00
	00 00 00 00 00	 mov	 DWORD PTR [edi+328], OFFSET ??_7?$CFuncObject@VCPythonNetworkStream@@@@6B@
; File C:\Program Files (x86)\Microsoft Visual Studio\2019\Community\VC\Tools\MSVC\14.28.29333\include\xstring

; 2227 :         return _BUF_SIZE <= _Myres;

  00106	8b 87 40 01 00
	00		 mov	 eax, DWORD PTR [edi+320]
  0010c	83 f8 10	 cmp	 eax, 16			; 00000010H

; 4385 :         if (_Mypair._Myval2._Large_string_engaged()) {

  0010f	72 10		 jb	 SHORT $LN25@CPythonNet

; 4386 :             const pointer _Ptr = _Mypair._Myval2._Bx._Ptr;
; 4387 :             auto& _Al          = _Getal();
; 4388 :             _Destroy_in_place(_Mypair._Myval2._Bx._Ptr);
; 4389 :             _Al.deallocate(_Ptr, _Mypair._Myval2._Myres + 1);

  00111	40		 inc	 eax
; File C:\Program Files (x86)\Microsoft Visual Studio\2019\Community\VC\Tools\MSVC\14.28.29333\include\xmemory

; 810  :         _Deallocate<_New_alignof<_Ty>>(_Ptr, sizeof(_Ty) * _Count);

  00112	50		 push	 eax
  00113	ff b7 2c 01 00
	00		 push	 DWORD PTR [edi+300]
  00119	e8 00 00 00 00	 call	 ??$_Deallocate@$07$0A@@std@@YAXPAXI@Z ; std::_Deallocate<8,0>
  0011e	83 c4 08	 add	 esp, 8
$LN25@CPythonNet:
; File C:\Program Files (x86)\Microsoft Visual Studio\2019\Community\VC\Tools\MSVC\14.28.29333\include\xstring

; 4392 :         _Mypair._Myval2._Mysize = 0;

  00121	c7 87 3c 01 00
	00 00 00 00 00	 mov	 DWORD PTR [edi+316], 0

; 4393 :         _Mypair._Myval2._Myres  = _BUF_SIZE - 1;

  0012b	c7 87 40 01 00
	00 0f 00 00 00	 mov	 DWORD PTR [edi+320], 15	; 0000000fH

; 4394 :         // the _Traits::assign is last so the codegen doesn't think the char write can alias this
; 4395 :         _Traits::assign(_Mypair._Myval2._Bx._Buf[0], _Elem());

  00135	c6 87 2c 01 00
	00 00		 mov	 BYTE PTR [edi+300], 0

; 2227 :         return _BUF_SIZE <= _Myres;

  0013c	8b 87 20 01 00
	00		 mov	 eax, DWORD PTR [edi+288]
  00142	83 f8 10	 cmp	 eax, 16			; 00000010H

; 4385 :         if (_Mypair._Myval2._Large_string_engaged()) {

  00145	72 10		 jb	 SHORT $LN35@CPythonNet

; 4386 :             const pointer _Ptr = _Mypair._Myval2._Bx._Ptr;
; 4387 :             auto& _Al          = _Getal();
; 4388 :             _Destroy_in_place(_Mypair._Myval2._Bx._Ptr);
; 4389 :             _Al.deallocate(_Ptr, _Mypair._Myval2._Myres + 1);

  00147	40		 inc	 eax
; File C:\Program Files (x86)\Microsoft Visual Studio\2019\Community\VC\Tools\MSVC\14.28.29333\include\xmemory

; 810  :         _Deallocate<_New_alignof<_Ty>>(_Ptr, sizeof(_Ty) * _Count);

  00148	50		 push	 eax
  00149	ff b7 0c 01 00
	00		 push	 DWORD PTR [edi+268]
  0014f	e8 00 00 00 00	 call	 ??$_Deallocate@$07$0A@@std@@YAXPAXI@Z ; std::_Deallocate<8,0>
  00154	83 c4 08	 add	 esp, 8
$LN35@CPythonNet:
; File C:\Program Files (x86)\Microsoft Visual Studio\2019\Community\VC\Tools\MSVC\14.28.29333\include\xstring

; 4392 :         _Mypair._Myval2._Mysize = 0;

  00157	c7 87 1c 01 00
	00 00 00 00 00	 mov	 DWORD PTR [edi+284], 0

; 4393 :         _Mypair._Myval2._Myres  = _BUF_SIZE - 1;

  00161	c7 87 20 01 00
	00 0f 00 00 00	 mov	 DWORD PTR [edi+288], 15	; 0000000fH

; 4394 :         // the _Traits::assign is last so the codegen doesn't think the char write can alias this
; 4395 :         _Traits::assign(_Mypair._Myval2._Bx._Buf[0], _Elem());

  0016b	c6 87 0c 01 00
	00 00		 mov	 BYTE PTR [edi+268], 0

; 2227 :         return _BUF_SIZE <= _Myres;

  00172	8b 87 08 01 00
	00		 mov	 eax, DWORD PTR [edi+264]
  00178	83 f8 10	 cmp	 eax, 16			; 00000010H

; 4385 :         if (_Mypair._Myval2._Large_string_engaged()) {

  0017b	72 10		 jb	 SHORT $LN45@CPythonNet

; 4386 :             const pointer _Ptr = _Mypair._Myval2._Bx._Ptr;
; 4387 :             auto& _Al          = _Getal();
; 4388 :             _Destroy_in_place(_Mypair._Myval2._Bx._Ptr);
; 4389 :             _Al.deallocate(_Ptr, _Mypair._Myval2._Myres + 1);

  0017d	40		 inc	 eax
; File C:\Program Files (x86)\Microsoft Visual Studio\2019\Community\VC\Tools\MSVC\14.28.29333\include\xmemory

; 810  :         _Deallocate<_New_alignof<_Ty>>(_Ptr, sizeof(_Ty) * _Count);

  0017e	50		 push	 eax
  0017f	ff b7 f4 00 00
	00		 push	 DWORD PTR [edi+244]
  00185	e8 00 00 00 00	 call	 ??$_Deallocate@$07$0A@@std@@YAXPAXI@Z ; std::_Deallocate<8,0>
  0018a	83 c4 08	 add	 esp, 8
$LN45@CPythonNet:
; File C:\Program Files (x86)\Microsoft Visual Studio\2019\Community\VC\Tools\MSVC\14.28.29333\include\xstring

; 4392 :         _Mypair._Myval2._Mysize = 0;

  0018d	c7 87 04 01 00
	00 00 00 00 00	 mov	 DWORD PTR [edi+260], 0

; 4393 :         _Mypair._Myval2._Myres  = _BUF_SIZE - 1;

  00197	c7 87 08 01 00
	00 0f 00 00 00	 mov	 DWORD PTR [edi+264], 15	; 0000000fH

; 4394 :         // the _Traits::assign is last so the codegen doesn't think the char write can alias this
; 4395 :         _Traits::assign(_Mypair._Myval2._Bx._Buf[0], _Elem());

  001a1	c6 87 f4 00 00
	00 00		 mov	 BYTE PTR [edi+244], 0

; 2227 :         return _BUF_SIZE <= _Myres;

  001a8	8b 87 f0 00 00
	00		 mov	 eax, DWORD PTR [edi+240]
  001ae	83 f8 10	 cmp	 eax, 16			; 00000010H

; 4385 :         if (_Mypair._Myval2._Large_string_engaged()) {

  001b1	72 10		 jb	 SHORT $LN55@CPythonNet

; 4386 :             const pointer _Ptr = _Mypair._Myval2._Bx._Ptr;
; 4387 :             auto& _Al          = _Getal();
; 4388 :             _Destroy_in_place(_Mypair._Myval2._Bx._Ptr);
; 4389 :             _Al.deallocate(_Ptr, _Mypair._Myval2._Myres + 1);

  001b3	40		 inc	 eax
; File C:\Program Files (x86)\Microsoft Visual Studio\2019\Community\VC\Tools\MSVC\14.28.29333\include\xmemory

; 810  :         _Deallocate<_New_alignof<_Ty>>(_Ptr, sizeof(_Ty) * _Count);

  001b4	50		 push	 eax
  001b5	ff b7 dc 00 00
	00		 push	 DWORD PTR [edi+220]
  001bb	e8 00 00 00 00	 call	 ??$_Deallocate@$07$0A@@std@@YAXPAXI@Z ; std::_Deallocate<8,0>
  001c0	83 c4 08	 add	 esp, 8
$LN55@CPythonNet:
; File C:\Program Files (x86)\Microsoft Visual Studio\2019\Community\VC\Tools\MSVC\14.28.29333\include\xstring

; 4392 :         _Mypair._Myval2._Mysize = 0;

  001c3	c7 87 ec 00 00
	00 00 00 00 00	 mov	 DWORD PTR [edi+236], 0

; 4393 :         _Mypair._Myval2._Myres  = _BUF_SIZE - 1;

  001cd	c7 87 f0 00 00
	00 0f 00 00 00	 mov	 DWORD PTR [edi+240], 15	; 0000000fH

; 4394 :         // the _Traits::assign is last so the codegen doesn't think the char write can alias this
; 4395 :         _Traits::assign(_Mypair._Myval2._Bx._Buf[0], _Elem());

  001d7	c6 87 dc 00 00
	00 00		 mov	 BYTE PTR [edi+220], 0

; 2227 :         return _BUF_SIZE <= _Myres;

  001de	8b 87 d8 00 00
	00		 mov	 eax, DWORD PTR [edi+216]
  001e4	83 f8 10	 cmp	 eax, 16			; 00000010H

; 4385 :         if (_Mypair._Myval2._Large_string_engaged()) {

  001e7	72 10		 jb	 SHORT $LN65@CPythonNet

; 4386 :             const pointer _Ptr = _Mypair._Myval2._Bx._Ptr;
; 4387 :             auto& _Al          = _Getal();
; 4388 :             _Destroy_in_place(_Mypair._Myval2._Bx._Ptr);
; 4389 :             _Al.deallocate(_Ptr, _Mypair._Myval2._Myres + 1);

  001e9	40		 inc	 eax
; File C:\Program Files (x86)\Microsoft Visual Studio\2019\Community\VC\Tools\MSVC\14.28.29333\include\xmemory

; 810  :         _Deallocate<_New_alignof<_Ty>>(_Ptr, sizeof(_Ty) * _Count);

  001ea	50		 push	 eax
  001eb	ff b7 c4 00 00
	00		 push	 DWORD PTR [edi+196]
  001f1	e8 00 00 00 00	 call	 ??$_Deallocate@$07$0A@@std@@YAXPAXI@Z ; std::_Deallocate<8,0>
  001f6	83 c4 08	 add	 esp, 8
$LN65@CPythonNet:
; File C:\Program Files (x86)\Microsoft Visual Studio\2019\Community\VC\Tools\MSVC\14.28.29333\include\xstring

; 4392 :         _Mypair._Myval2._Mysize = 0;

  001f9	c7 87 d4 00 00
	00 00 00 00 00	 mov	 DWORD PTR [edi+212], 0
; File D:\Metin2 Server Files\mainline\SRC_2014\Metin2Client\UserInterface\PythonNetworkStream.cpp

; 901  : }

  00203	8b cf		 mov	 ecx, edi
; File C:\Program Files (x86)\Microsoft Visual Studio\2019\Community\VC\Tools\MSVC\14.28.29333\include\xstring

; 4393 :         _Mypair._Myval2._Myres  = _BUF_SIZE - 1;

  00205	c7 87 d8 00 00
	00 0f 00 00 00	 mov	 DWORD PTR [edi+216], 15	; 0000000fH

; 4394 :         // the _Traits::assign is last so the codegen doesn't think the char write can alias this
; 4395 :         _Traits::assign(_Mypair._Myval2._Bx._Buf[0], _Elem());

  0020f	c6 87 c4 00 00
	00 00		 mov	 BYTE PTR [edi+196], 0
; File D:\Metin2 Server Files\mainline\SRC_2014\Metin2Client\eterBase\Singleton.h

; 19   : 	{ 

  00216	c7 47 7c 00 00
	00 00		 mov	 DWORD PTR [edi+124], OFFSET ??_7?$CSingleton@VCPythonNetworkStream@@@@6B@

; 20   : 		assert(ms_singleton);
; 21   : 		ms_singleton = 0; 

  0021d	c7 05 00 00 00
	00 00 00 00 00	 mov	 DWORD PTR ?ms_singleton@?$CSingleton@VCPythonNetworkStream@@@@0PAVCPythonNetworkStream@@A, 0 ; CSingleton<CPythonNetworkStream>::ms_singleton
; File D:\Metin2 Server Files\mainline\SRC_2014\Metin2Client\UserInterface\PythonNetworkStream.cpp

; 901  : }

  00227	e8 00 00 00 00	 call	 ??1CNetworkStream@@UAE@XZ ; CNetworkStream::~CNetworkStream
  0022c	8b 4d f4	 mov	 ecx, DWORD PTR __$EHRec$[ebp]
  0022f	64 89 0d 00 00
	00 00		 mov	 DWORD PTR fs:0, ecx
  00236	59		 pop	 ecx
  00237	5f		 pop	 edi
  00238	5b		 pop	 ebx
  00239	8b e5		 mov	 esp, ebp
  0023b	5d		 pop	 ebp
  0023c	c3		 ret	 0
  0023d	cc		 int	 3
  0023e	cc		 int	 3
  0023f	cc		 int	 3
  00240	cc		 int	 3
  00241	cc		 int	 3
_TEXT	ENDS
;	COMDAT text$x
text$x	SEGMENT
__ehhandler$??1CPythonNetworkStream@@UAE@XZ:
  00000	90		 npad	 1
  00001	90		 npad	 1
  00002	8b 54 24 08	 mov	 edx, DWORD PTR [esp+8]
  00006	8d 42 0c	 lea	 eax, DWORD PTR [edx+12]
  00009	8b 4a f4	 mov	 ecx, DWORD PTR [edx-12]
  0000c	33 c8		 xor	 ecx, eax
  0000e	e8 00 00 00 00	 call	 @__security_check_cookie@4
  00013	b8 00 00 00 00	 mov	 eax, OFFSET __ehfuncinfo$??1CPythonNetworkStream@@UAE@XZ
  00018	e9 00 00 00 00	 jmp	 ___CxxFrameHandler3
text$x	ENDS
??1CPythonNetworkStream@@UAE@XZ ENDP			; CPythonNetworkStream::~CPythonNetworkStream
; Function compile flags: /Ogtp
; File D:\Metin2 Server Files\mainline\SRC_2014\Metin2Client\UserInterface\PythonNetworkStream.cpp
; File D:\Metin2 Server Files\mainline\SRC_2014\Metin2Client\eterBase\Singleton.h
; File D:\Metin2 Server Files\mainline\SRC_2014\Metin2Client\UserInterface\PythonNetworkStream.cpp
; File D:\Metin2 Server Files\mainline\SRC_2014\Metin2Client\eterBase\Singleton.h
; File D:\Metin2 Server Files\mainline\SRC_2014\Metin2Client\UserInterface\PythonNetworkStream.cpp
; File C:\Program Files (x86)\Microsoft Visual Studio\2019\Community\VC\Tools\MSVC\14.28.29333\include\xstring
; File D:\Metin2 Server Files\mainline\SRC_2014\Metin2Client\eterLib\FuncObject.h
; File D:\Metin2 Server Files\mainline\SRC_2014\Metin2Client\UserInterface\PythonNetworkStream.cpp
; File D:\Metin2 Server Files\mainline\SRC_2014\Metin2Client\eterlib\Ref.h
; File C:\Program Files (x86)\Microsoft Visual Studio\2019\Community\VC\Tools\MSVC\14.28.29333\include\vector
; File D:\Metin2 Server Files\mainline\SRC_2014\Metin2Client\UserInterface\PythonNetworkStream.cpp
; File C:\Program Files (x86)\Microsoft Visual Studio\2019\Community\VC\Tools\MSVC\14.28.29333\include\xmemory
; File C:\Program Files (x86)\Microsoft Visual Studio\2019\Community\VC\Tools\MSVC\14.28.29333\include\deque
; File C:\Program Files (x86)\Microsoft Visual Studio\2019\Community\VC\Tools\MSVC\14.28.29333\include\xmemory
; File D:\Metin2 Server Files\mainline\SRC_2014\Metin2Client\UserInterface\PythonNetworkStream.cpp
; File D:\Metin2 Server Files\mainline\SRC_2014\Metin2Client\eterlib\Ref.h
; File D:\Metin2 Server Files\mainline\SRC_2014\Metin2Client\UserInterface\PythonNetworkStream.cpp
; File D:\Metin2 Server Files\mainline\SRC_2014\Metin2Client\eterlib\Ref.h
; File D:\Metin2 Server Files\mainline\SRC_2014\Metin2Client\UserInterface\PythonNetworkStream.cpp
; File D:\Metin2 Server Files\mainline\SRC_2014\Metin2Client\eterLib\FuncObject.h
; File C:\Program Files (x86)\Microsoft Visual Studio\2019\Community\VC\Tools\MSVC\14.28.29333\include\xstring
; File D:\Metin2 Server Files\mainline\SRC_2014\Metin2Client\eterLib\FuncObject.h
; File D:\Metin2 Server Files\mainline\SRC_2014\Metin2Client\UserInterface\PythonNetworkStream.cpp
; File D:\Metin2 Server Files\mainline\SRC_2014\Metin2Client\eterLib\FuncObject.h
; File D:\Metin2 Server Files\mainline\SRC_2014\Metin2Client\UserInterface\PythonNetworkStream.cpp
; File C:\Program Files (x86)\Microsoft Visual Studio\2019\Community\VC\Tools\MSVC\14.28.29333\include\xstring
; File C:\Program Files (x86)\Microsoft Visual Studio\2019\Community\VC\Tools\MSVC\14.28.29333\include\utility
; File C:\Program Files (x86)\Microsoft Visual Studio\2019\Community\VC\Tools\MSVC\14.28.29333\include\xstring
; File C:\Program Files (x86)\Microsoft Visual Studio\2019\Community\VC\Tools\MSVC\14.28.29333\include\xmemory
; File C:\Program Files (x86)\Microsoft Visual Studio\2019\Community\VC\Tools\MSVC\14.28.29333\include\xstring
; File D:\Metin2 Server Files\mainline\SRC_2014\Metin2Client\UserInterface\PythonNetworkStream.cpp
; File C:\Program Files (x86)\Microsoft Visual Studio\2019\Community\VC\Tools\MSVC\14.28.29333\include\xutility
; File D:\Metin2 Server Files\mainline\SRC_2014\Metin2Client\UserInterface\PythonNetworkStream.cpp
;	COMDAT ??0CPythonNetworkStream@@QAE@XZ
_TEXT	SEGMENT
_this$ = -20						; size = 4
__New_ptr$2 = -16					; size = 4
$T3 = -16						; size = 4
_this$ = -16						; size = 4
$T4 = -16						; size = 4
__$EHRec$ = -12						; size = 12
??0CPythonNetworkStream@@QAE@XZ PROC			; CPythonNetworkStream::CPythonNetworkStream, COMDAT
; _this$ = ecx

; 861  : {

  00000	55		 push	 ebp
  00001	8b ec		 mov	 ebp, esp
  00003	6a ff		 push	 -1
  00005	68 00 00 00 00	 push	 __ehhandler$??0CPythonNetworkStream@@QAE@XZ
  0000a	64 a1 00 00 00
	00		 mov	 eax, DWORD PTR fs:0
  00010	50		 push	 eax
  00011	83 ec 08	 sub	 esp, 8
  00014	53		 push	 ebx
  00015	56		 push	 esi
  00016	57		 push	 edi
  00017	a1 00 00 00 00	 mov	 eax, DWORD PTR ___security_cookie
  0001c	33 c5		 xor	 eax, ebp
  0001e	50		 push	 eax
  0001f	8d 45 f4	 lea	 eax, DWORD PTR __$EHRec$[ebp]
  00022	64 a3 00 00 00
	00		 mov	 DWORD PTR fs:0, eax
  00028	8b d9		 mov	 ebx, ecx
  0002a	89 5d ec	 mov	 DWORD PTR _this$[ebp], ebx
  0002d	e8 00 00 00 00	 call	 ??0CNetworkStream@@QAE@XZ ; CNetworkStream::CNetworkStream
; File D:\Metin2 Server Files\mainline\SRC_2014\Metin2Client\eterBase\Singleton.h

; 15   : 		ms_singleton = (T*) ((int) this + offset);

  00032	8b c3		 mov	 eax, ebx
  00034	c7 43 7c 00 00
	00 00		 mov	 DWORD PTR [ebx+124], OFFSET ??_7?$CSingleton@VCPythonNetworkStream@@@@6B@
; File D:\Metin2 Server Files\mainline\SRC_2014\Metin2Client\UserInterface\PythonNetworkStream.cpp

; 861  : {

  0003b	c7 45 fc 00 00
	00 00		 mov	 DWORD PTR __$EHRec$[ebp+8], 0
; File D:\Metin2 Server Files\mainline\SRC_2014\Metin2Client\eterBase\Singleton.h

; 15   : 		ms_singleton = (T*) ((int) this + offset);

  00042	a3 00 00 00 00	 mov	 DWORD PTR ?ms_singleton@?$CSingleton@VCPythonNetworkStream@@@@0PAVCPythonNetworkStream@@A, eax ; CSingleton<CPythonNetworkStream>::ms_singleton
; File D:\Metin2 Server Files\mainline\SRC_2014\Metin2Client\UserInterface\PythonNetworkStream.cpp

; 861  : {

  00047	c7 03 00 00 00
	00		 mov	 DWORD PTR [ebx], OFFSET ??_7CPythonNetworkStream@@6BCNetworkStream@@@
  0004d	c7 43 7c 00 00
	00 00		 mov	 DWORD PTR [ebx+124], OFFSET ??_7CPythonNetworkStream@@6B?$CSingleton@VCPythonNetworkStream@@@@@
; File C:\Program Files (x86)\Microsoft Visual Studio\2019\Community\VC\Tools\MSVC\14.28.29333\include\xstring

; 4377 :         _Mypair._Myval2._Mysize = 0;

  00054	c7 83 d4 00 00
	00 00 00 00 00	 mov	 DWORD PTR [ebx+212], 0

; 4378 :         _Mypair._Myval2._Myres  = _BUF_SIZE - 1;

  0005e	c7 83 d8 00 00
	00 0f 00 00 00	 mov	 DWORD PTR [ebx+216], 15	; 0000000fH

; 4379 :         // the _Traits::assign is last so the codegen doesn't think the char write can alias this
; 4380 :         _Traits::assign(_Mypair._Myval2._Bx._Buf[0], _Elem());

  00068	c6 83 c4 00 00
	00 00		 mov	 BYTE PTR [ebx+196], 0

; 4377 :         _Mypair._Myval2._Mysize = 0;

  0006f	c7 83 ec 00 00
	00 00 00 00 00	 mov	 DWORD PTR [ebx+236], 0

; 4378 :         _Mypair._Myval2._Myres  = _BUF_SIZE - 1;

  00079	c7 83 f0 00 00
	00 0f 00 00 00	 mov	 DWORD PTR [ebx+240], 15	; 0000000fH

; 4379 :         // the _Traits::assign is last so the codegen doesn't think the char write can alias this
; 4380 :         _Traits::assign(_Mypair._Myval2._Bx._Buf[0], _Elem());

  00083	c6 83 dc 00 00
	00 00		 mov	 BYTE PTR [ebx+220], 0

; 4377 :         _Mypair._Myval2._Mysize = 0;

  0008a	c7 83 04 01 00
	00 00 00 00 00	 mov	 DWORD PTR [ebx+260], 0

; 4378 :         _Mypair._Myval2._Myres  = _BUF_SIZE - 1;

  00094	c7 83 08 01 00
	00 0f 00 00 00	 mov	 DWORD PTR [ebx+264], 15	; 0000000fH

; 4379 :         // the _Traits::assign is last so the codegen doesn't think the char write can alias this
; 4380 :         _Traits::assign(_Mypair._Myval2._Bx._Buf[0], _Elem());

  0009e	c6 83 f4 00 00
	00 00		 mov	 BYTE PTR [ebx+244], 0

; 4377 :         _Mypair._Myval2._Mysize = 0;

  000a5	c7 83 1c 01 00
	00 00 00 00 00	 mov	 DWORD PTR [ebx+284], 0

; 4378 :         _Mypair._Myval2._Myres  = _BUF_SIZE - 1;

  000af	c7 83 20 01 00
	00 0f 00 00 00	 mov	 DWORD PTR [ebx+288], 15	; 0000000fH

; 4379 :         // the _Traits::assign is last so the codegen doesn't think the char write can alias this
; 4380 :         _Traits::assign(_Mypair._Myval2._Bx._Buf[0], _Elem());

  000b9	c6 83 0c 01 00
	00 00		 mov	 BYTE PTR [ebx+268], 0

; 4377 :         _Mypair._Myval2._Mysize = 0;

  000c0	c7 83 3c 01 00
	00 00 00 00 00	 mov	 DWORD PTR [ebx+316], 0

; 4378 :         _Mypair._Myval2._Myres  = _BUF_SIZE - 1;

  000ca	c7 83 40 01 00
	00 0f 00 00 00	 mov	 DWORD PTR [ebx+320], 15	; 0000000fH

; 4379 :         // the _Traits::assign is last so the codegen doesn't think the char write can alias this
; 4380 :         _Traits::assign(_Mypair._Myval2._Bx._Buf[0], _Elem());

  000d4	c6 83 2c 01 00
	00 00		 mov	 BYTE PTR [ebx+300], 0
; File D:\Metin2 Server Files\mainline\SRC_2014\Metin2Client\eterLib\FuncObject.h

; 8    : 		{

  000db	c7 83 48 01 00
	00 00 00 00 00	 mov	 DWORD PTR [ebx+328], OFFSET ??_7?$CFuncObject@VCPythonNetworkStream@@@@6B@

; 18   : 			m_pSelfObject = NULL;

  000e5	c7 83 50 01 00
	00 00 00 00 00	 mov	 DWORD PTR [ebx+336], 0

; 19   : 			m_pFuncObject = NULL;

  000ef	c7 83 58 01 00
	00 00 00 00 00	 mov	 DWORD PTR [ebx+344], 0
  000f9	c7 83 5c 01 00
	00 00 00 00 00	 mov	 DWORD PTR [ebx+348], 0

; 8    : 		{

  00103	c7 83 60 01 00
	00 00 00 00 00	 mov	 DWORD PTR [ebx+352], OFFSET ??_7?$CFuncObject@VCPythonNetworkStream@@@@6B@

; 18   : 			m_pSelfObject = NULL;

  0010d	c7 83 68 01 00
	00 00 00 00 00	 mov	 DWORD PTR [ebx+360], 0

; 19   : 			m_pFuncObject = NULL;

  00117	c7 83 70 01 00
	00 00 00 00 00	 mov	 DWORD PTR [ebx+368], 0
  00121	c7 83 74 01 00
	00 00 00 00 00	 mov	 DWORD PTR [ebx+372], 0
; File D:\Metin2 Server Files\mainline\SRC_2014\Metin2Client\UserInterface\PythonNetworkStream.cpp

; 861  : {

  0012b	68 00 00 00 00	 push	 OFFSET ??1?$basic_string@DU?$char_traits@D@std@@V?$allocator@D@2@@std@@QAE@XZ ; std::basic_string<char,std::char_traits<char>,std::allocator<char> >::~basic_string<char,std::char_traits<char>,std::allocator<char> >
  00130	68 00 00 00 00	 push	 OFFSET ??0?$basic_string@DU?$char_traits@D@std@@V?$allocator@D@2@@std@@QAE@XZ ; std::basic_string<char,std::char_traits<char>,std::allocator<char> >::basic_string<char,std::char_traits<char>,std::allocator<char> >
  00135	6a 04		 push	 4
  00137	6a 18		 push	 24			; 00000018H
  00139	8d 83 a8 02 00
	00		 lea	 eax, DWORD PTR [ebx+680]
  0013f	c6 45 fc 08	 mov	 BYTE PTR __$EHRec$[ebp+8], 8
  00143	50		 push	 eax
  00144	e8 00 00 00 00	 call	 ??_L@YGXPAXIIP6EX0@Z1@Z
; File D:\Metin2 Server Files\mainline\SRC_2014\Metin2Client\eterlib\Ref.h

; 20   : 		CRef() : m_pObject(NULL)

  00149	c7 83 0c 03 00
	00 00 00 00 00	 mov	 DWORD PTR [ebx+780], 0
; File C:\Program Files (x86)\Microsoft Visual Studio\2019\Community\VC\Tools\MSVC\14.28.29333\include\vector

; 375  :     _Vector_val() noexcept : _Myfirst(), _Mylast(), _Myend() {}

  00153	c7 83 20 03 00
	00 00 00 00 00	 mov	 DWORD PTR [ebx+800], 0
  0015d	c7 83 24 03 00
	00 00 00 00 00	 mov	 DWORD PTR [ebx+804], 0
  00167	c7 83 28 03 00
	00 00 00 00 00	 mov	 DWORD PTR [ebx+808], 0
; File D:\Metin2 Server Files\mainline\SRC_2014\Metin2Client\UserInterface\PythonNetworkStream.cpp

; 861  : {

  00171	8d 8b f8 78 00
	00		 lea	 ecx, DWORD PTR [ebx+30968]
  00177	c6 45 fc 0b	 mov	 BYTE PTR __$EHRec$[ebp+8], 11 ; 0000000bH
  0017b	89 4d f0	 mov	 DWORD PTR _this$[ebp], ecx
  0017e	e8 00 00 00 00	 call	 ??0CNetworkAddress@@QAE@XZ ; CNetworkAddress::CNetworkAddress
  00183	8d 8b 14 79 00
	00		 lea	 ecx, DWORD PTR [ebx+30996]
  00189	c6 45 fc 0c	 mov	 BYTE PTR __$EHRec$[ebp+8], 12 ; 0000000cH
  0018d	e8 00 00 00 00	 call	 ??0CInsultChecker@@QAE@XZ ; CInsultChecker::CInsultChecker
  00192	8d bb 24 79 00
	00		 lea	 edi, DWORD PTR [ebx+31012]
  00198	c6 45 fc 0d	 mov	 BYTE PTR __$EHRec$[ebp+8], 13 ; 0000000dH
; File C:\Program Files (x86)\Microsoft Visual Studio\2019\Community\VC\Tools\MSVC\14.28.29333\include\xmemory

; 814  :         return static_cast<_Ty*>(_Allocate<_New_alignof<_Ty>>(_Get_size_of_n<sizeof(_Ty)>(_Count)));

  0019c	6a 08		 push	 8

; 1097 :     _Container_base12() noexcept : _Myproxy(nullptr) {}

  0019e	c7 07 00 00 00
	00		 mov	 DWORD PTR [edi], 0
; File C:\Program Files (x86)\Microsoft Visual Studio\2019\Community\VC\Tools\MSVC\14.28.29333\include\deque

; 544  :     _Deque_val() noexcept : _Map(), _Mapsize(0), _Myoff(0), _Mysize(0) {}

  001a4	c7 47 04 00 00
	00 00		 mov	 DWORD PTR [edi+4], 0
  001ab	c7 47 08 00 00
	00 00		 mov	 DWORD PTR [edi+8], 0
  001b2	c7 47 0c 00 00
	00 00		 mov	 DWORD PTR [edi+12], 0
  001b9	c7 47 10 00 00
	00 00		 mov	 DWORD PTR [edi+16], 0
; File C:\Program Files (x86)\Microsoft Visual Studio\2019\Community\VC\Tools\MSVC\14.28.29333\include\xmemory

; 814  :         return static_cast<_Ty*>(_Allocate<_New_alignof<_Ty>>(_Get_size_of_n<sizeof(_Ty)>(_Count)));

  001c0	e8 00 00 00 00	 call	 ??$_Allocate@$07U_Default_allocate_traits@std@@$0A@@std@@YAPAXI@Z ; std::_Allocate<8,std::_Default_allocate_traits,0>

; 1107 :         _Container_proxy* const _New_proxy = _Unfancy(_Al.allocate(1));

  001c5	8b f0		 mov	 esi, eax

; 1108 :         _Construct_in_place(*_New_proxy, this);

  001c7	89 7d f0	 mov	 DWORD PTR $T3[ebp], edi
  001ca	8d 45 f0	 lea	 eax, DWORD PTR $T3[ebp]
  001cd	50		 push	 eax
  001ce	56		 push	 esi
  001cf	e8 00 00 00 00	 call	 ??$_Construct_in_place@U_Container_proxy@std@@PAU_Container_base12@2@@std@@YAXAAU_Container_proxy@0@$$QAPAU_Container_base12@0@@Z ; std::_Construct_in_place<std::_Container_proxy,std::_Container_base12 *>

; 1109 :         _Myproxy            = _New_proxy;

  001d4	89 37		 mov	 DWORD PTR [edi], esi

; 1110 :         _New_proxy->_Mycont = this;

  001d6	89 3e		 mov	 DWORD PTR [esi], edi
; File D:\Metin2 Server Files\mainline\SRC_2014\Metin2Client\UserInterface\PythonNetworkStream.cpp

; 862  : 	m_rokNetActorMgr=new CNetworkActorManager;

  001d8	6a 20		 push	 32			; 00000020H
  001da	c6 45 fc 0e	 mov	 BYTE PTR __$EHRec$[ebp+8], 14 ; 0000000eH
  001de	e8 00 00 00 00	 call	 ??2@YAPAXI@Z		; operator new
  001e3	83 c4 10	 add	 esp, 16			; 00000010H
  001e6	89 45 f0	 mov	 DWORD PTR $T4[ebp], eax
  001e9	c6 45 fc 0f	 mov	 BYTE PTR __$EHRec$[ebp+8], 15 ; 0000000fH
  001ed	85 c0		 test	 eax, eax
  001ef	74 09		 je	 SHORT $LN3@CPythonNet
  001f1	8b c8		 mov	 ecx, eax
  001f3	e8 00 00 00 00	 call	 ??0CNetworkActorManager@@QAE@XZ ; CNetworkActorManager::CNetworkActorManager
  001f8	eb 02		 jmp	 SHORT $LN4@CPythonNet
$LN3@CPythonNet:
  001fa	33 c0		 xor	 eax, eax
$LN4@CPythonNet:
; File D:\Metin2 Server Files\mainline\SRC_2014\Metin2Client\eterlib\Ref.h

; 67   : 			CReferenceObject* pOldObject = m_pObject;

  001fc	8b b3 0c 03 00
	00		 mov	 esi, DWORD PTR [ebx+780]
; File D:\Metin2 Server Files\mainline\SRC_2014\Metin2Client\UserInterface\PythonNetworkStream.cpp

; 862  : 	m_rokNetActorMgr=new CNetworkActorManager;

  00202	c6 45 fc 0e	 mov	 BYTE PTR __$EHRec$[ebp+8], 14 ; 0000000eH
; File D:\Metin2 Server Files\mainline\SRC_2014\Metin2Client\eterlib\Ref.h

; 69   : 			m_pObject = pObject;

  00206	89 83 0c 03 00
	00		 mov	 DWORD PTR [ebx+780], eax

; 70   : 
; 71   : 			if (m_pObject)

  0020c	85 c0		 test	 eax, eax
  0020e	74 07		 je	 SHORT $LN121@CPythonNet

; 72   : 				m_pObject->AddReference();

  00210	8b c8		 mov	 ecx, eax
  00212	e8 00 00 00 00	 call	 ?AddReference@CReferenceObject@@QAEXXZ ; CReferenceObject::AddReference
$LN121@CPythonNet:

; 73   : 
; 74   : 			if (pOldObject)

  00217	85 f6		 test	 esi, esi
  00219	74 07		 je	 SHORT $LN122@CPythonNet

; 75   : 				pOldObject->Release();

  0021b	8b ce		 mov	 ecx, esi
  0021d	e8 00 00 00 00	 call	 ?Release@CReferenceObject@@QAEXXZ ; CReferenceObject::Release
$LN122@CPythonNet:
; File D:\Metin2 Server Files\mainline\SRC_2014\Metin2Client\UserInterface\PythonNetworkStream.cpp

; 864  : 	memset(m_akSimplePlayerInfo, 0, sizeof(m_akSimplePlayerInfo));

  00222	68 fc 00 00 00	 push	 252			; 000000fcH
  00227	8d 83 9c 01 00
	00		 lea	 eax, DWORD PTR [ebx+412]
  0022d	6a 00		 push	 0
  0022f	50		 push	 eax
  00230	e8 00 00 00 00	 call	 _memset
; File D:\Metin2 Server Files\mainline\SRC_2014\Metin2Client\eterLib\FuncObject.h

; 18   : 			m_pSelfObject = NULL;

  00235	c7 83 50 01 00
	00 00 00 00 00	 mov	 DWORD PTR [ebx+336], 0
; File C:\Program Files (x86)\Microsoft Visual Studio\2019\Community\VC\Tools\MSVC\14.28.29333\include\xstring

; 3044 :         if (_Count <= _Mypair._Myval2._Myres) {

  0023f	8d b3 0c 01 00
	00		 lea	 esi, DWORD PTR [ebx+268]
; File D:\Metin2 Server Files\mainline\SRC_2014\Metin2Client\eterLib\FuncObject.h

; 19   : 			m_pFuncObject = NULL;

  00245	c7 83 58 01 00
	00 00 00 00 00	 mov	 DWORD PTR [ebx+344], 0
; File D:\Metin2 Server Files\mainline\SRC_2014\Metin2Client\UserInterface\PythonNetworkStream.cpp

; 864  : 	memset(m_akSimplePlayerInfo, 0, sizeof(m_akSimplePlayerInfo));

  0024f	83 c4 0c	 add	 esp, 12			; 0000000cH
; File D:\Metin2 Server Files\mainline\SRC_2014\Metin2Client\eterLib\FuncObject.h

; 19   : 			m_pFuncObject = NULL;

  00252	c7 83 5c 01 00
	00 00 00 00 00	 mov	 DWORD PTR [ebx+348], 0
; File D:\Metin2 Server Files\mainline\SRC_2014\Metin2Client\UserInterface\PythonNetworkStream.cpp

; 868  : 	m_dwEmpireID = 0;

  0025c	c7 83 b4 00 00
	00 00 00 00 00	 mov	 DWORD PTR [ebx+180], 0

; 869  : 	m_dwGuildID = 0;

  00266	c7 83 b0 00 00
	00 00 00 00 00	 mov	 DWORD PTR [ebx+176], 0

; 870  : 
; 871  : 	m_dwMainActorVID = 0;

  00270	c7 83 98 00 00
	00 00 00 00 00	 mov	 DWORD PTR [ebx+152], 0

; 872  : 	m_dwMainActorRace = 0;

  0027a	c7 83 9c 00 00
	00 00 00 00 00	 mov	 DWORD PTR [ebx+156], 0

; 873  : 	m_dwMainActorEmpire = 0;

  00284	c7 83 a0 00 00
	00 00 00 00 00	 mov	 DWORD PTR [ebx+160], 0

; 874  : 	m_dwMainActorSkillGroup = 0;

  0028e	c7 83 a4 00 00
	00 00 00 00 00	 mov	 DWORD PTR [ebx+164], 0

; 875  : 	m_poHandler = NULL;

  00298	c7 83 78 01 00
	00 00 00 00 00	 mov	 DWORD PTR [ebx+376], 0

; 876  : 
; 877  : 	m_dwLastGamePingTime = 0;

  002a2	c7 83 c0 00 00
	00 00 00 00 00	 mov	 DWORD PTR [ebx+192], 0

; 878  : 
; 879  : 	m_dwLoginKey = 0;

  002ac	c7 83 24 01 00
	00 00 00 00 00	 mov	 DWORD PTR [ebx+292], 0

; 880  : 	m_isWaitLoginKey = FALSE;

  002b6	c7 83 28 01 00
	00 00 00 00 00	 mov	 DWORD PTR [ebx+296], 0

; 881  : 	m_isStartGame = FALSE;

  002c0	c7 83 ac 00 00
	00 00 00 00 00	 mov	 DWORD PTR [ebx+172], 0

; 882  : 	m_isEnableChatInsultFilter = FALSE;

  002ca	66 c7 83 20 79
	00 00 00 00	 mov	 WORD PTR [ebx+31008], 0
; File C:\Program Files (x86)\Microsoft Visual Studio\2019\Community\VC\Tools\MSVC\14.28.29333\include\xstring

; 3044 :         if (_Count <= _Mypair._Myval2._Myres) {

  002d3	8b 4e 14	 mov	 ecx, DWORD PTR [esi+20]
  002d6	83 f9 07	 cmp	 ecx, 7
  002d9	72 23		 jb	 SHORT $LN143@CPythonNet

; 2209 :         value_type* _Result = _Bx._Buf;

  002db	8b fe		 mov	 edi, esi

; 2227 :         return _BUF_SIZE <= _Myres;

  002dd	83 f9 10	 cmp	 ecx, 16			; 00000010H

; 2210 :         if (_Large_string_engaged()) {

  002e0	72 02		 jb	 SHORT $LN136@CPythonNet

; 2211 :             _Result = _Unfancy(_Bx._Ptr);

  002e2	8b 3e		 mov	 edi, DWORD PTR [esi]
$LN136@CPythonNet:

; 119  :         _CSTD memmove(_First1, _First2, _Count * sizeof(_Elem));

  002e4	6a 07		 push	 7
  002e6	68 00 00 00 00	 push	 OFFSET ??_C@_07NNEFBBEG@OffLine@
  002eb	57		 push	 edi

; 3046 :             _Mypair._Myval2._Mysize = _Count;

  002ec	c7 46 10 07 00
	00 00		 mov	 DWORD PTR [esi+16], 7

; 119  :         _CSTD memmove(_First1, _First2, _Count * sizeof(_Elem));

  002f3	e8 00 00 00 00	 call	 _memmove

; 3048 :             _Traits::assign(_Old_ptr[_Count], _Elem());

  002f8	c6 47 07 00	 mov	 BYTE PTR [edi+7], 0

; 3049 :             return *this;

  002fc	eb 63		 jmp	 SHORT $LN176@CPythonNet
$LN143@CPythonNet:

; 4290 :         if (_Old > _Max - _Old / 2) { // similarly, geometric overflows

  002fe	8b d1		 mov	 edx, ecx
  00300	b8 ff ff ff 7f	 mov	 eax, 2147483647		; 7fffffffH
  00305	d1 ea		 shr	 edx, 1
  00307	2b c2		 sub	 eax, edx
  00309	3b c8		 cmp	 ecx, eax
  0030b	76 07		 jbe	 SHORT $LN151@CPythonNet

; 4291 :             return _Max;

  0030d	bf ff ff ff 7f	 mov	 edi, 2147483647		; 7fffffffH
  00312	eb 0d		 jmp	 SHORT $LN149@CPythonNet
$LN151@CPythonNet:

; 4292 :         }
; 4293 : 
; 4294 :         return (_STD max)(_Masked, _Old + _Old / 2);

  00314	8d 04 0a	 lea	 eax, DWORD PTR [edx+ecx]
; File C:\Program Files (x86)\Microsoft Visual Studio\2019\Community\VC\Tools\MSVC\14.28.29333\include\utility

; 44   :     return _Left < _Right ? _Right : _Left;

  00317	bf 0f 00 00 00	 mov	 edi, 15			; 0000000fH
  0031c	3b c7		 cmp	 eax, edi
  0031e	0f 47 f8	 cmova	 edi, eax
$LN149@CPythonNet:
; File C:\Program Files (x86)\Microsoft Visual Studio\2019\Community\VC\Tools\MSVC\14.28.29333\include\xstring

; 4312 :         const pointer _New_ptr        = _Al.allocate(_New_capacity + 1); // throws

  00321	8d 47 01	 lea	 eax, DWORD PTR [edi+1]
; File C:\Program Files (x86)\Microsoft Visual Studio\2019\Community\VC\Tools\MSVC\14.28.29333\include\xmemory

; 814  :         return static_cast<_Ty*>(_Allocate<_New_alignof<_Ty>>(_Get_size_of_n<sizeof(_Ty)>(_Count)));

  00324	50		 push	 eax
  00325	e8 00 00 00 00	 call	 ??$_Allocate@$07U_Default_allocate_traits@std@@$0A@@std@@YAPAXI@Z ; std::_Allocate<8,std::_Default_allocate_traits,0>
; File C:\Program Files (x86)\Microsoft Visual Studio\2019\Community\VC\Tools\MSVC\14.28.29333\include\xstring

; 4314 :         _Mypair._Myval2._Mysize = _New_size;

  0032a	c7 46 10 07 00
	00 00		 mov	 DWORD PTR [esi+16], 7

; 4315 :         _Mypair._Myval2._Myres  = _New_capacity;

  00331	89 7e 14	 mov	 DWORD PTR [esi+20], edi

; 62   :         _CSTD memcpy(_First1, _First2, _Count * sizeof(_Elem));

  00334	8b 0d 00 00 00
	00		 mov	 ecx, DWORD PTR ??_C@_07NNEFBBEG@OffLine@
  0033a	89 08		 mov	 DWORD PTR [eax], ecx
  0033c	66 8b 0d 04 00
	00 00		 mov	 cx, WORD PTR ??_C@_07NNEFBBEG@OffLine@+4
  00343	66 89 48 04	 mov	 WORD PTR [eax+4], cx
  00347	8a 0d 06 00 00
	00		 mov	 cl, BYTE PTR ??_C@_07NNEFBBEG@OffLine@+6
  0034d	88 48 06	 mov	 BYTE PTR [eax+6], cl

; 4312 :         const pointer _New_ptr        = _Al.allocate(_New_capacity + 1); // throws

  00350	89 45 f0	 mov	 DWORD PTR __New_ptr$2[ebp], eax

; 3056 :                 _Traits::assign(_New_ptr[_Count], _Elem());

  00353	c6 40 07 00	 mov	 BYTE PTR [eax+7], 0

; 4321 :             _Construct_in_place(_Mypair._Myval2._Bx._Ptr, _New_ptr);

  00357	8d 45 f0	 lea	 eax, DWORD PTR __New_ptr$2[ebp]
  0035a	50		 push	 eax
  0035b	56		 push	 esi
  0035c	e8 00 00 00 00	 call	 ??$_Construct_in_place@PADABQAD@std@@YAXAAPADABQAD@Z ; std::_Construct_in_place<char *,char * const &>
$LN176@CPythonNet:
; File D:\Metin2 Server Files\mainline\SRC_2014\Metin2Client\UserInterface\PythonNetworkStream.cpp

; 886  : 	__InitializeGamePhase();

  00361	83 c4 0c	 add	 esp, 12			; 0000000cH
  00364	8b cb		 mov	 ecx, ebx
  00366	e8 00 00 00 00	 call	 ?__InitializeGamePhase@CPythonNetworkStream@@IAEXXZ ; CPythonNetworkStream::__InitializeGamePhase

; 887  : 	__InitializeMarkAuth();

  0036b	8b cb		 mov	 ecx, ebx
  0036d	e8 00 00 00 00	 call	 ?__InitializeMarkAuth@CPythonNetworkStream@@IAEXXZ ; CPythonNetworkStream::__InitializeMarkAuth

; 888  : 
; 889  : 	__DirectEnterMode_Initialize();

  00372	8b cb		 mov	 ecx, ebx
  00374	e8 00 00 00 00	 call	 ?__DirectEnterMode_Initialize@CPythonNetworkStream@@AAEXXZ ; CPythonNetworkStream::__DirectEnterMode_Initialize

; 890  : 	__BettingGuildWar_Initialize();

  00379	8b cb		 mov	 ecx, ebx
  0037b	e8 00 00 00 00	 call	 ?__BettingGuildWar_Initialize@CPythonNetworkStream@@AAEXXZ ; CPythonNetworkStream::__BettingGuildWar_Initialize

; 891  : 
; 892  : 	std::fill(m_apoPhaseWnd, m_apoPhaseWnd+PHASE_WINDOW_NUM, (PyObject*)NULL);

  00380	8d bb 7c 01 00
	00		 lea	 edi, DWORD PTR [ebx+380]
  00386	8d 93 98 01 00
	00		 lea	 edx, DWORD PTR [ebx+408]
  0038c	3b d7		 cmp	 edx, edi
  0038e	1b c9		 sbb	 ecx, ecx
  00390	83 e1 f9	 and	 ecx, -7			; fffffff9H
  00393	83 c1 07	 add	 ecx, 7
; File C:\Program Files (x86)\Microsoft Visual Studio\2019\Community\VC\Tools\MSVC\14.28.29333\include\xutility

; 4816 :         for (; _UFirst != _ULast; ++_UFirst) {

  00396	3b fa		 cmp	 edi, edx
  00398	77 04		 ja	 SHORT $LN168@CPythonNet
; File D:\Metin2 Server Files\mainline\SRC_2014\Metin2Client\UserInterface\PythonNetworkStream.cpp

; 886  : 	__InitializeGamePhase();

  0039a	33 c0		 xor	 eax, eax
  0039c	f3 ab		 rep stosd
$LN168@CPythonNet:

; 893  : 	m_poSerCommandParserWnd = NULL;
; 894  : 
; 895  : 	SetOffLinePhase();

  0039e	8b cb		 mov	 ecx, ebx
  003a0	c7 02 00 00 00
	00		 mov	 DWORD PTR [edx], 0
  003a6	e8 00 00 00 00	 call	 ?SetOffLinePhase@CPythonNetworkStream@@QAEXXZ ; CPythonNetworkStream::SetOffLinePhase

; 896  : }

  003ab	8b c3		 mov	 eax, ebx
  003ad	8b 4d f4	 mov	 ecx, DWORD PTR __$EHRec$[ebp]
  003b0	64 89 0d 00 00
	00 00		 mov	 DWORD PTR fs:0, ecx
  003b7	59		 pop	 ecx
  003b8	5f		 pop	 edi
  003b9	5e		 pop	 esi
  003ba	5b		 pop	 ebx
  003bb	8b e5		 mov	 esp, ebp
  003bd	5d		 pop	 ebp
  003be	c3		 ret	 0
_TEXT	ENDS
;	COMDAT text$x
text$x	SEGMENT
__unwindfunclet$??0CPythonNetworkStream@@QAE@XZ$0:
  00000	8b 4d ec	 mov	 ecx, DWORD PTR _this$[ebp]
  00003	e9 00 00 00 00	 jmp	 ??1CNetworkStream@@UAE@XZ ; CNetworkStream::~CNetworkStream
__unwindfunclet$??0CPythonNetworkStream@@QAE@XZ$1:
  00008	8b 4d ec	 mov	 ecx, DWORD PTR _this$[ebp]
  0000b	83 c1 7c	 add	 ecx, 124		; 0000007cH
  0000e	e9 00 00 00 00	 jmp	 ??1?$CSingleton@VCPythonNetworkStream@@@@UAE@XZ ; CSingleton<CPythonNetworkStream>::~CSingleton<CPythonNetworkStream>
__unwindfunclet$??0CPythonNetworkStream@@QAE@XZ$2:
  00013	8b 4d ec	 mov	 ecx, DWORD PTR _this$[ebp]
  00016	81 c1 c4 00 00
	00		 add	 ecx, 196		; 000000c4H
  0001c	e9 00 00 00 00	 jmp	 ??1?$basic_string@DU?$char_traits@D@std@@V?$allocator@D@2@@std@@QAE@XZ ; std::basic_string<char,std::char_traits<char>,std::allocator<char> >::~basic_string<char,std::char_traits<char>,std::allocator<char> >
__unwindfunclet$??0CPythonNetworkStream@@QAE@XZ$3:
  00021	8b 4d ec	 mov	 ecx, DWORD PTR _this$[ebp]
  00024	81 c1 dc 00 00
	00		 add	 ecx, 220		; 000000dcH
  0002a	e9 00 00 00 00	 jmp	 ??1?$basic_string@DU?$char_traits@D@std@@V?$allocator@D@2@@std@@QAE@XZ ; std::basic_string<char,std::char_traits<char>,std::allocator<char> >::~basic_string<char,std::char_traits<char>,std::allocator<char> >
__unwindfunclet$??0CPythonNetworkStream@@QAE@XZ$4:
  0002f	8b 4d ec	 mov	 ecx, DWORD PTR _this$[ebp]
  00032	81 c1 f4 00 00
	00		 add	 ecx, 244		; 000000f4H
  00038	e9 00 00 00 00	 jmp	 ??1?$basic_string@DU?$char_traits@D@std@@V?$allocator@D@2@@std@@QAE@XZ ; std::basic_string<char,std::char_traits<char>,std::allocator<char> >::~basic_string<char,std::char_traits<char>,std::allocator<char> >
__unwindfunclet$??0CPythonNetworkStream@@QAE@XZ$5:
  0003d	8b 4d ec	 mov	 ecx, DWORD PTR _this$[ebp]
  00040	81 c1 0c 01 00
	00		 add	 ecx, 268		; 0000010cH
  00046	e9 00 00 00 00	 jmp	 ??1?$basic_string@DU?$char_traits@D@std@@V?$allocator@D@2@@std@@QAE@XZ ; std::basic_string<char,std::char_traits<char>,std::allocator<char> >::~basic_string<char,std::char_traits<char>,std::allocator<char> >
__unwindfunclet$??0CPythonNetworkStream@@QAE@XZ$6:
  0004b	8b 4d ec	 mov	 ecx, DWORD PTR _this$[ebp]
  0004e	81 c1 2c 01 00
	00		 add	 ecx, 300		; 0000012cH
  00054	e9 00 00 00 00	 jmp	 ??1?$basic_string@DU?$char_traits@D@std@@V?$allocator@D@2@@std@@QAE@XZ ; std::basic_string<char,std::char_traits<char>,std::allocator<char> >::~basic_string<char,std::char_traits<char>,std::allocator<char> >
__unwindfunclet$??0CPythonNetworkStream@@QAE@XZ$7:
  00059	8b 4d ec	 mov	 ecx, DWORD PTR _this$[ebp]
  0005c	81 c1 48 01 00
	00		 add	 ecx, 328		; 00000148H
  00062	e9 00 00 00 00	 jmp	 ??1?$CFuncObject@VCPythonNetworkStream@@@@UAE@XZ ; CFuncObject<CPythonNetworkStream>::~CFuncObject<CPythonNetworkStream>
__unwindfunclet$??0CPythonNetworkStream@@QAE@XZ$8:
  00067	8b 4d ec	 mov	 ecx, DWORD PTR _this$[ebp]
  0006a	81 c1 60 01 00
	00		 add	 ecx, 352		; 00000160H
  00070	e9 00 00 00 00	 jmp	 ??1?$CFuncObject@VCPythonNetworkStream@@@@UAE@XZ ; CFuncObject<CPythonNetworkStream>::~CFuncObject<CPythonNetworkStream>
__unwindfunclet$??0CPythonNetworkStream@@QAE@XZ$9:
  00075	68 00 00 00 00	 push	 OFFSET ??1?$basic_string@DU?$char_traits@D@std@@V?$allocator@D@2@@std@@QAE@XZ ; std::basic_string<char,std::char_traits<char>,std::allocator<char> >::~basic_string<char,std::char_traits<char>,std::allocator<char> >
  0007a	6a 04		 push	 4
  0007c	6a 18		 push	 24			; 00000018H
  0007e	8b 45 ec	 mov	 eax, DWORD PTR _this$[ebp]
  00081	05 a8 02 00 00	 add	 eax, 680		; 000002a8H
  00086	50		 push	 eax
  00087	e8 00 00 00 00	 call	 ??_M@YGXPAXIIP6EX0@Z@Z
  0008c	c3		 ret	 0
__unwindfunclet$??0CPythonNetworkStream@@QAE@XZ$10:
  0008d	8b 4d ec	 mov	 ecx, DWORD PTR _this$[ebp]
  00090	81 c1 0c 03 00
	00		 add	 ecx, 780		; 0000030cH
  00096	e9 00 00 00 00	 jmp	 ??1?$CRef@VCNetworkActorManager@@@@QAE@XZ ; CRef<CNetworkActorManager>::~CRef<CNetworkActorManager>
__unwindfunclet$??0CPythonNetworkStream@@QAE@XZ$11:
  0009b	8b 4d ec	 mov	 ecx, DWORD PTR _this$[ebp]
  0009e	81 c1 20 03 00
	00		 add	 ecx, 800		; 00000320H
  000a4	e9 00 00 00 00	 jmp	 ??1?$vector@V?$basic_string@DU?$char_traits@D@std@@V?$allocator@D@2@@std@@V?$allocator@V?$basic_string@DU?$char_traits@D@std@@V?$allocator@D@2@@std@@@2@@std@@QAE@XZ ; std::vector<std::basic_string<char,std::char_traits<char>,std::allocator<char> >,std::allocator<std::basic_string<char,std::char_traits<char>,std::allocator<char> > > >::~vector<std::basic_string<char,std::char_traits<char>,std::allocator<char> >,std::allocator<std::basic_string<char,std::char_traits<char>,std::allocator<char> > > >
__unwindfunclet$??0CPythonNetworkStream@@QAE@XZ$12:
  000a9	8b 4d ec	 mov	 ecx, DWORD PTR _this$[ebp]
  000ac	81 c1 f8 78 00
	00		 add	 ecx, 30968		; 000078f8H
  000b2	e9 00 00 00 00	 jmp	 ??1SMarkAuth@CPythonNetworkStream@@QAE@XZ
__unwindfunclet$??0CPythonNetworkStream@@QAE@XZ$13:
  000b7	8b 4d ec	 mov	 ecx, DWORD PTR _this$[ebp]
  000ba	81 c1 14 79 00
	00		 add	 ecx, 30996		; 00007914H
  000c0	e9 00 00 00 00	 jmp	 ??1CInsultChecker@@UAE@XZ ; CInsultChecker::~CInsultChecker
__unwindfunclet$??0CPythonNetworkStream@@QAE@XZ$14:
  000c5	8b 4d ec	 mov	 ecx, DWORD PTR _this$[ebp]
  000c8	81 c1 24 79 00
	00		 add	 ecx, 31012		; 00007924H
  000ce	e9 00 00 00 00	 jmp	 ??1?$deque@V?$basic_string@DU?$char_traits@D@std@@V?$allocator@D@2@@std@@V?$allocator@V?$basic_string@DU?$char_traits@D@std@@V?$allocator@D@2@@std@@@2@@std@@QAE@XZ ; std::deque<std::basic_string<char,std::char_traits<char>,std::allocator<char> >,std::allocator<std::basic_string<char,std::char_traits<char>,std::allocator<char> > > >::~deque<std::basic_string<char,std::char_traits<char>,std::allocator<char> >,std::allocator<std::basic_string<char,std::char_traits<char>,std::allocator<char> > > >
__unwindfunclet$??0CPythonNetworkStream@@QAE@XZ$15:
  000d3	6a 20		 push	 32			; 00000020H
  000d5	8b 45 f0	 mov	 eax, DWORD PTR $T4[ebp]
  000d8	50		 push	 eax
  000d9	e8 00 00 00 00	 call	 ??3@YAXPAXI@Z		; operator delete
  000de	83 c4 08	 add	 esp, 8
  000e1	c3		 ret	 0
  000e2	cc		 int	 3
  000e3	cc		 int	 3
  000e4	cc		 int	 3
  000e5	cc		 int	 3
  000e6	cc		 int	 3
__ehhandler$??0CPythonNetworkStream@@QAE@XZ:
  000e7	90		 npad	 1
  000e8	90		 npad	 1
  000e9	8b 54 24 08	 mov	 edx, DWORD PTR [esp+8]
  000ed	8d 42 0c	 lea	 eax, DWORD PTR [edx+12]
  000f0	8b 4a e8	 mov	 ecx, DWORD PTR [edx-24]
  000f3	33 c8		 xor	 ecx, eax
  000f5	e8 00 00 00 00	 call	 @__security_check_cookie@4
  000fa	b8 00 00 00 00	 mov	 eax, OFFSET __ehfuncinfo$??0CPythonNetworkStream@@QAE@XZ
  000ff	e9 00 00 00 00	 jmp	 ___CxxFrameHandler3
text$x	ENDS
??0CPythonNetworkStream@@QAE@XZ ENDP			; CPythonNetworkStream::CPythonNetworkStream
; Function compile flags: /Ogtp
; File D:\Metin2 Server Files\mainline\SRC_2014\Metin2Client\eterBase\Singleton.h
;	COMDAT ??_G?$CSingleton@VCPythonNetworkStream@@@@UAEPAXI@Z
_TEXT	SEGMENT
___flags$ = 8						; size = 4
??_G?$CSingleton@VCPythonNetworkStream@@@@UAEPAXI@Z PROC ; CSingleton<CPythonNetworkStream>::`scalar deleting destructor', COMDAT
; _this$ = ecx
  00000	55		 push	 ebp
  00001	8b ec		 mov	 ebp, esp
  00003	f6 45 08 01	 test	 BYTE PTR ___flags$[ebp], 1

; 19   : 	{ 

  00007	56		 push	 esi
  00008	8b f1		 mov	 esi, ecx
  0000a	c7 06 00 00 00
	00		 mov	 DWORD PTR [esi], OFFSET ??_7?$CSingleton@VCPythonNetworkStream@@@@6B@

; 20   : 		assert(ms_singleton);
; 21   : 		ms_singleton = 0; 

  00010	c7 05 00 00 00
	00 00 00 00 00	 mov	 DWORD PTR ?ms_singleton@?$CSingleton@VCPythonNetworkStream@@@@0PAVCPythonNetworkStream@@A, 0 ; CSingleton<CPythonNetworkStream>::ms_singleton
  0001a	74 0b		 je	 SHORT $LN6@scalar
  0001c	6a 04		 push	 4
  0001e	56		 push	 esi
  0001f	e8 00 00 00 00	 call	 ??3@YAXPAXI@Z		; operator delete
  00024	83 c4 08	 add	 esp, 8
$LN6@scalar:
  00027	8b c6		 mov	 eax, esi
  00029	5e		 pop	 esi
  0002a	5d		 pop	 ebp
  0002b	c2 04 00	 ret	 4
??_G?$CSingleton@VCPythonNetworkStream@@@@UAEPAXI@Z ENDP ; CSingleton<CPythonNetworkStream>::`scalar deleting destructor'
_TEXT	ENDS
; Function compile flags: /Ogtp
; File D:\Metin2 Server Files\mainline\SRC_2014\Metin2Client\eterBase\Singleton.h
;	COMDAT ??1?$CSingleton@VCPythonNetworkStream@@@@UAE@XZ
_TEXT	SEGMENT
??1?$CSingleton@VCPythonNetworkStream@@@@UAE@XZ PROC	; CSingleton<CPythonNetworkStream>::~CSingleton<CPythonNetworkStream>, COMDAT
; _this$ = ecx

; 19   : 	{ 

  00000	c7 01 00 00 00
	00		 mov	 DWORD PTR [ecx], OFFSET ??_7?$CSingleton@VCPythonNetworkStream@@@@6B@

; 20   : 		assert(ms_singleton);
; 21   : 		ms_singleton = 0; 

  00006	c7 05 00 00 00
	00 00 00 00 00	 mov	 DWORD PTR ?ms_singleton@?$CSingleton@VCPythonNetworkStream@@@@0PAVCPythonNetworkStream@@A, 0 ; CSingleton<CPythonNetworkStream>::ms_singleton

; 22   : 	}

  00010	c3		 ret	 0
??1?$CSingleton@VCPythonNetworkStream@@@@UAE@XZ ENDP	; CSingleton<CPythonNetworkStream>::~CSingleton<CPythonNetworkStream>
_TEXT	ENDS
; Function compile flags: /Ogtp
; File C:\Program Files (x86)\Microsoft Visual Studio\2019\Community\VC\Tools\MSVC\14.28.29333\include\xmemory
;	COMDAT ??$_Allocate_manually_vector_aligned@U_Default_allocate_traits@std@@@std@@YAPAXI@Z
_TEXT	SEGMENT
__Bytes$ = 8						; size = 4
??$_Allocate_manually_vector_aligned@U_Default_allocate_traits@std@@@std@@YAPAXI@Z PROC ; std::_Allocate_manually_vector_aligned<std::_Default_allocate_traits>, COMDAT

; 113  : __declspec(allocator) void* _Allocate_manually_vector_aligned(const size_t _Bytes) {

  00000	55		 push	 ebp
  00001	8b ec		 mov	 ebp, esp

; 114  :     // allocate _Bytes manually aligned to at least _Big_allocation_alignment
; 115  :     const size_t _Block_size = _Non_user_size + _Bytes;

  00003	8b 45 08	 mov	 eax, DWORD PTR __Bytes$[ebp]
  00006	8d 48 23	 lea	 ecx, DWORD PTR [eax+35]

; 116  :     if (_Block_size <= _Bytes) {

  00009	3b c8		 cmp	 ecx, eax
  0000b	0f 86 00 00 00
	00		 jbe	 ?_Throw_bad_array_new_length@std@@YAXXZ ; std::_Throw_bad_array_new_length

; 77   :         return ::operator new(_Bytes);

  00011	51		 push	 ecx
  00012	e8 00 00 00 00	 call	 ??2@YAPAXI@Z		; operator new

; 117  :         _Throw_bad_array_new_length(); // add overflow
; 118  :     }
; 119  : 
; 120  :     const uintptr_t _Ptr_container = reinterpret_cast<uintptr_t>(_Traits::_Allocate(_Block_size));

  00017	8b c8		 mov	 ecx, eax

; 77   :         return ::operator new(_Bytes);

  00019	83 c4 04	 add	 esp, 4

; 121  :     _STL_VERIFY(_Ptr_container != 0, "invalid argument"); // validate even in release since we're doing p[-1]

  0001c	85 c9		 test	 ecx, ecx
  0001e	74 0b		 je	 SHORT $LN7@Allocate_m

; 122  :     void* const _Ptr = reinterpret_cast<void*>((_Ptr_container + _Non_user_size) & ~(_Big_allocation_alignment - 1));

  00020	8d 41 23	 lea	 eax, DWORD PTR [ecx+35]
  00023	83 e0 e0	 and	 eax, -32		; ffffffe0H

; 123  :     static_cast<uintptr_t*>(_Ptr)[-1] = _Ptr_container;

  00026	89 48 fc	 mov	 DWORD PTR [eax-4], ecx

; 124  : 
; 125  : #ifdef _DEBUG
; 126  :     static_cast<uintptr_t*>(_Ptr)[-2] = _Big_allocation_sentinel;
; 127  : #endif // _DEBUG
; 128  :     return _Ptr;
; 129  : }

  00029	5d		 pop	 ebp
  0002a	c3		 ret	 0
$LN7@Allocate_m:

; 121  :     _STL_VERIFY(_Ptr_container != 0, "invalid argument"); // validate even in release since we're doing p[-1]

  0002b	e9 00 00 00 00	 jmp	 __invalid_parameter_noinfo_noreturn
??$_Allocate_manually_vector_aligned@U_Default_allocate_traits@std@@@std@@YAPAXI@Z ENDP ; std::_Allocate_manually_vector_aligned<std::_Default_allocate_traits>
_TEXT	ENDS
; Function compile flags: /Ogtp
; File C:\Program Files (x86)\Microsoft Visual Studio\2019\Community\VC\Tools\MSVC\14.28.29333\include\xmemory
;	COMDAT ??$_Allocate@$07U_Default_allocate_traits@std@@$0A@@std@@YAPAXI@Z
_TEXT	SEGMENT
__Bytes$ = 8						; size = 4
??$_Allocate@$07U_Default_allocate_traits@std@@$0A@@std@@YAPAXI@Z PROC ; std::_Allocate<8,std::_Default_allocate_traits,0>, COMDAT

; 197  : __declspec(allocator) void* _Allocate(const size_t _Bytes) {

  00000	55		 push	 ebp
  00001	8b ec		 mov	 ebp, esp

; 198  :     // allocate _Bytes when !_HAS_ALIGNED_NEW || _Align <= __STDCPP_DEFAULT_NEW_ALIGNMENT__
; 199  : #if defined(_M_IX86) || defined(_M_X64)
; 200  :     if (_Bytes >= _Big_allocation_threshold) { // boost the alignment of big allocations to help autovectorization

  00003	8b 45 08	 mov	 eax, DWORD PTR __Bytes$[ebp]
  00006	3d 00 10 00 00	 cmp	 eax, 4096		; 00001000H
  0000b	72 09		 jb	 SHORT $LN2@Allocate

; 201  :         return _Allocate_manually_vector_aligned<_Traits>(_Bytes);

  0000d	89 45 08	 mov	 DWORD PTR __Bytes$[ebp], eax

; 210  : }

  00010	5d		 pop	 ebp

; 201  :         return _Allocate_manually_vector_aligned<_Traits>(_Bytes);

  00011	e9 00 00 00 00	 jmp	 ??$_Allocate_manually_vector_aligned@U_Default_allocate_traits@std@@@std@@YAPAXI@Z ; std::_Allocate_manually_vector_aligned<std::_Default_allocate_traits>
$LN2@Allocate:

; 202  :     }
; 203  : #endif // defined(_M_IX86) || defined(_M_X64)
; 204  : 
; 205  :     if (_Bytes != 0) {

  00016	85 c0		 test	 eax, eax
  00018	74 09		 je	 SHORT $LN3@Allocate

; 77   :         return ::operator new(_Bytes);

  0001a	89 45 08	 mov	 DWORD PTR __Bytes$[ebp], eax

; 210  : }

  0001d	5d		 pop	 ebp

; 77   :         return ::operator new(_Bytes);

  0001e	e9 00 00 00 00	 jmp	 ??2@YAPAXI@Z		; operator new
$LN3@Allocate:

; 206  :         return _Traits::_Allocate(_Bytes);
; 207  :     }
; 208  : 
; 209  :     return nullptr;

  00023	33 c0		 xor	 eax, eax

; 210  : }

  00025	5d		 pop	 ebp
  00026	c3		 ret	 0
??$_Allocate@$07U_Default_allocate_traits@std@@$0A@@std@@YAPAXI@Z ENDP ; std::_Allocate<8,std::_Default_allocate_traits,0>
_TEXT	ENDS
; Function compile flags: /Ogtp
; File C:\Program Files (x86)\Microsoft Visual Studio\2019\Community\VC\Tools\MSVC\14.28.29333\include\xmemory
;	COMDAT ??$_Deallocate@$07$0A@@std@@YAXPAXI@Z
_TEXT	SEGMENT
__Ptr$ = 8						; size = 4
__Bytes$ = 12						; size = 4
??$_Deallocate@$07$0A@@std@@YAXPAXI@Z PROC		; std::_Deallocate<8,0>, COMDAT

; 213  : void _Deallocate(void* _Ptr, size_t _Bytes) noexcept {

  00000	55		 push	 ebp
  00001	8b ec		 mov	 ebp, esp

; 214  :     // deallocate storage allocated by _Allocate when !_HAS_ALIGNED_NEW || _Align <= __STDCPP_DEFAULT_NEW_ALIGNMENT__
; 215  : #if defined(_M_IX86) || defined(_M_X64)
; 216  :     if (_Bytes >= _Big_allocation_threshold) { // boost the alignment of big allocations to help autovectorization

  00003	8b 4d 0c	 mov	 ecx, DWORD PTR __Bytes$[ebp]
  00006	81 f9 00 10 00
	00		 cmp	 ecx, 4096		; 00001000H
  0000c	72 18		 jb	 SHORT $LN15@Deallocate

; 137  :     const uintptr_t _Ptr_container   = _Ptr_user[-1];

  0000e	8b 45 08	 mov	 eax, DWORD PTR __Ptr$[ebp]
  00011	83 c1 23	 add	 ecx, 35			; 00000023H
  00014	8b 50 fc	 mov	 edx, DWORD PTR [eax-4]

; 138  : 
; 139  :     // If the following asserts, it likely means that we are performing
; 140  :     // an aligned delete on memory coming from an unaligned allocation.
; 141  :     _STL_ASSERT(_Ptr_user[-2] == _Big_allocation_sentinel, "invalid argument");
; 142  : 
; 143  :     // Extra paranoia on aligned allocation/deallocation; ensure _Ptr_container is
; 144  :     // in range [_Min_back_shift, _Non_user_size]
; 145  : #ifdef _DEBUG
; 146  :     constexpr uintptr_t _Min_back_shift = 2 * sizeof(void*);
; 147  : #else // ^^^ _DEBUG ^^^ // vvv !_DEBUG vvv
; 148  :     constexpr uintptr_t _Min_back_shift = sizeof(void*);
; 149  : #endif // _DEBUG
; 150  :     const uintptr_t _Back_shift = reinterpret_cast<uintptr_t>(_Ptr) - _Ptr_container;

  00017	2b c2		 sub	 eax, edx

; 151  :     _STL_VERIFY(_Back_shift >= _Min_back_shift && _Back_shift <= _Non_user_size, "invalid argument");

  00019	83 c0 fc	 add	 eax, -4			; fffffffcH
  0001c	83 f8 1f	 cmp	 eax, 31			; 0000001fH
  0001f	76 08		 jbe	 SHORT $LN13@Deallocate
  00021	e9 00 00 00 00	 jmp	 __invalid_parameter_noinfo_noreturn
$LN15@Deallocate:

; 214  :     // deallocate storage allocated by _Allocate when !_HAS_ALIGNED_NEW || _Align <= __STDCPP_DEFAULT_NEW_ALIGNMENT__
; 215  : #if defined(_M_IX86) || defined(_M_X64)
; 216  :     if (_Bytes >= _Big_allocation_threshold) { // boost the alignment of big allocations to help autovectorization

  00026	8b 55 08	 mov	 edx, DWORD PTR __Ptr$[ebp]
$LN13@Deallocate:

; 217  :         _Adjust_manually_vector_aligned(_Ptr, _Bytes);
; 218  :     }
; 219  : #endif // defined(_M_IX86) || defined(_M_X64)
; 220  : 
; 221  :     ::operator delete(_Ptr, _Bytes);

  00029	89 4d 0c	 mov	 DWORD PTR __Bytes$[ebp], ecx
  0002c	89 55 08	 mov	 DWORD PTR __Ptr$[ebp], edx

; 222  : }

  0002f	5d		 pop	 ebp

; 217  :         _Adjust_manually_vector_aligned(_Ptr, _Bytes);
; 218  :     }
; 219  : #endif // defined(_M_IX86) || defined(_M_X64)
; 220  : 
; 221  :     ::operator delete(_Ptr, _Bytes);

  00030	e9 00 00 00 00	 jmp	 ??3@YAXPAXI@Z		; operator delete
??$_Deallocate@$07$0A@@std@@YAXPAXI@Z ENDP		; std::_Deallocate<8,0>
_TEXT	ENDS
; Function compile flags: /Ogtp
; File C:\Program Files (x86)\Microsoft Visual Studio\2019\Community\VC\Tools\MSVC\14.28.29333\include\xmemory
;	COMDAT ??$_Construct_in_place@PADABQAD@std@@YAXAAPADABQAD@Z
_TEXT	SEGMENT
__Obj$ = 8						; size = 4
_<_Args_0>$ = 12					; size = 4
??$_Construct_in_place@PADABQAD@std@@YAXAAPADABQAD@Z PROC ; std::_Construct_in_place<char *,char * const &>, COMDAT

; 228  : void _Construct_in_place(_Ty& _Obj, _Types&&... _Args) noexcept(is_nothrow_constructible_v<_Ty, _Types...>) {

  00000	55		 push	 ebp
  00001	8b ec		 mov	 ebp, esp

; 229  :     ::new (const_cast<void*>(static_cast<const volatile void*>(_STD addressof(_Obj))))

  00003	8b 45 0c	 mov	 eax, DWORD PTR _<_Args_0>$[ebp]
  00006	8b 08		 mov	 ecx, DWORD PTR [eax]
  00008	8b 45 08	 mov	 eax, DWORD PTR __Obj$[ebp]
  0000b	89 08		 mov	 DWORD PTR [eax], ecx

; 230  :         _Ty(_STD forward<_Types>(_Args)...);
; 231  : }

  0000d	5d		 pop	 ebp
  0000e	c3		 ret	 0
??$_Construct_in_place@PADABQAD@std@@YAXAAPADABQAD@Z ENDP ; std::_Construct_in_place<char *,char * const &>
_TEXT	ENDS
; Function compile flags: /Ogtp
; File C:\Program Files (x86)\Microsoft Visual Studio\2019\Community\VC\Tools\MSVC\14.28.29333\include\xmemory
;	COMDAT ??$_Destroy_in_place@PAD@std@@YAXAAPAD@Z
_TEXT	SEGMENT
__Obj$ = 8						; size = 4
??$_Destroy_in_place@PAD@std@@YAXAAPAD@Z PROC		; std::_Destroy_in_place<char *>, COMDAT

; 271  : #if _HAS_IF_CONSTEXPR
; 272  :     if constexpr (is_array_v<_Ty>) {
; 273  :         _Destroy_range(_Obj, _Obj + extent_v<_Ty>);
; 274  :     } else
; 275  : #endif // _HAS_IF_CONSTEXPR
; 276  :     {
; 277  :         _Obj.~_Ty();
; 278  :     }
; 279  : }

  00000	c2 00 00	 ret	 0
??$_Destroy_in_place@PAD@std@@YAXAAPAD@Z ENDP		; std::_Destroy_in_place<char *>
_TEXT	ENDS
; Function compile flags: /Ogtp
; File C:\Program Files (x86)\Microsoft Visual Studio\2019\Community\VC\Tools\MSVC\14.28.29333\include\vector
; File C:\Program Files (x86)\Microsoft Visual Studio\2019\Community\VC\Tools\MSVC\14.28.29333\include\xmemory
; File C:\Program Files (x86)\Microsoft Visual Studio\2019\Community\VC\Tools\MSVC\14.28.29333\include\vector
; File C:\Program Files (x86)\Microsoft Visual Studio\2019\Community\VC\Tools\MSVC\14.28.29333\include\xmemory
; File C:\Program Files (x86)\Microsoft Visual Studio\2019\Community\VC\Tools\MSVC\14.28.29333\include\vector
;	COMDAT ??1?$vector@V?$basic_string@DU?$char_traits@D@std@@V?$allocator@D@2@@std@@V?$allocator@V?$basic_string@DU?$char_traits@D@std@@V?$allocator@D@2@@std@@@2@@std@@QAE@XZ
_TEXT	SEGMENT
??1?$vector@V?$basic_string@DU?$char_traits@D@std@@V?$allocator@D@2@@std@@V?$allocator@V?$basic_string@DU?$char_traits@D@std@@V?$allocator@D@2@@std@@@2@@std@@QAE@XZ PROC ; std::vector<std::basic_string<char,std::char_traits<char>,std::allocator<char> >,std::allocator<std::basic_string<char,std::char_traits<char>,std::allocator<char> > > >::~vector<std::basic_string<char,std::char_traits<char>,std::allocator<char> >,std::allocator<std::basic_string<char,std::char_traits<char>,std::allocator<char> > > >, COMDAT
; _this$ = ecx

; 672  :     ~vector() noexcept {

  00000	57		 push	 edi
  00001	8b f9		 mov	 edi, ecx

; 1694 :         if (_Myfirst) { // destroy and deallocate old array

  00003	8b 07		 mov	 eax, DWORD PTR [edi]
  00005	85 c0		 test	 eax, eax
  00007	74 45		 je	 SHORT $LN4@vector

; 1612 :         _Destroy_range(_First, _Last, _Getal());

  00009	57		 push	 edi
  0000a	ff 77 04	 push	 DWORD PTR [edi+4]
  0000d	50		 push	 eax
  0000e	e8 00 00 00 00	 call	 ??$_Destroy_range@V?$allocator@V?$basic_string@DU?$char_traits@D@std@@V?$allocator@D@2@@std@@@std@@@std@@YAXPAV?$basic_string@DU?$char_traits@D@std@@V?$allocator@D@2@@0@QAV10@AAV?$allocator@V?$basic_string@DU?$char_traits@D@std@@V?$allocator@D@2@@std@@@0@@Z ; std::_Destroy_range<std::allocator<std::basic_string<char,std::char_traits<char>,std::allocator<char> > > >

; 1696 :             _Getal().deallocate(_Myfirst, static_cast<size_type>(_Myend - _Myfirst));

  00013	8b 4f 08	 mov	 ecx, DWORD PTR [edi+8]
  00016	b8 ab aa aa 2a	 mov	 eax, 715827883		; 2aaaaaabH
  0001b	2b 0f		 sub	 ecx, DWORD PTR [edi]
  0001d	f7 e9		 imul	 ecx
  0001f	c1 fa 02	 sar	 edx, 2
  00022	8b c2		 mov	 eax, edx
  00024	c1 e8 1f	 shr	 eax, 31			; 0000001fH
  00027	03 c2		 add	 eax, edx
; File C:\Program Files (x86)\Microsoft Visual Studio\2019\Community\VC\Tools\MSVC\14.28.29333\include\xmemory

; 810  :         _Deallocate<_New_alignof<_Ty>>(_Ptr, sizeof(_Ty) * _Count);

  00029	8d 04 40	 lea	 eax, DWORD PTR [eax+eax*2]
  0002c	c1 e0 03	 shl	 eax, 3
  0002f	50		 push	 eax
  00030	ff 37		 push	 DWORD PTR [edi]
  00032	e8 00 00 00 00	 call	 ??$_Deallocate@$07$0A@@std@@YAXPAXI@Z ; std::_Deallocate<8,0>
; File C:\Program Files (x86)\Microsoft Visual Studio\2019\Community\VC\Tools\MSVC\14.28.29333\include\vector

; 1698 :             _Myfirst = pointer();

  00037	c7 07 00 00 00
	00		 mov	 DWORD PTR [edi], 0
; File C:\Program Files (x86)\Microsoft Visual Studio\2019\Community\VC\Tools\MSVC\14.28.29333\include\xmemory

; 810  :         _Deallocate<_New_alignof<_Ty>>(_Ptr, sizeof(_Ty) * _Count);

  0003d	83 c4 14	 add	 esp, 20			; 00000014H
; File C:\Program Files (x86)\Microsoft Visual Studio\2019\Community\VC\Tools\MSVC\14.28.29333\include\vector

; 1699 :             _Mylast  = pointer();

  00040	c7 47 04 00 00
	00 00		 mov	 DWORD PTR [edi+4], 0

; 1700 :             _Myend   = pointer();

  00047	c7 47 08 00 00
	00 00		 mov	 DWORD PTR [edi+8], 0
$LN4@vector:
  0004e	5f		 pop	 edi

; 673  :         _Tidy();
; 674  : #if _ITERATOR_DEBUG_LEVEL != 0
; 675  :         auto&& _Alproxy = _GET_PROXY_ALLOCATOR(_Alty, _Getal());
; 676  :         _Delete_plain_internal(_Alproxy, _STD exchange(_Mypair._Myval2._Myproxy, nullptr));
; 677  : #endif // _ITERATOR_DEBUG_LEVEL != 0
; 678  :     }

  0004f	c3		 ret	 0
??1?$vector@V?$basic_string@DU?$char_traits@D@std@@V?$allocator@D@2@@std@@V?$allocator@V?$basic_string@DU?$char_traits@D@std@@V?$allocator@D@2@@std@@@2@@std@@QAE@XZ ENDP ; std::vector<std::basic_string<char,std::char_traits<char>,std::allocator<char> >,std::allocator<std::basic_string<char,std::char_traits<char>,std::allocator<char> > > >::~vector<std::basic_string<char,std::char_traits<char>,std::allocator<char> >,std::allocator<std::basic_string<char,std::char_traits<char>,std::allocator<char> > > >
_TEXT	ENDS
; Function compile flags: /Ogtp
; File C:\Program Files (x86)\Microsoft Visual Studio\2019\Community\VC\Tools\MSVC\14.28.29333\include\xstring
; File C:\Program Files (x86)\Microsoft Visual Studio\2019\Community\VC\Tools\MSVC\14.28.29333\include\utility
; File C:\Program Files (x86)\Microsoft Visual Studio\2019\Community\VC\Tools\MSVC\14.28.29333\include\xstring
; File C:\Program Files (x86)\Microsoft Visual Studio\2019\Community\VC\Tools\MSVC\14.28.29333\include\xmemory
; File C:\Program Files (x86)\Microsoft Visual Studio\2019\Community\VC\Tools\MSVC\14.28.29333\include\xstring
; File C:\Program Files (x86)\Microsoft Visual Studio\2019\Community\VC\Tools\MSVC\14.28.29333\include\xmemory
; File C:\Program Files (x86)\Microsoft Visual Studio\2019\Community\VC\Tools\MSVC\14.28.29333\include\xstring
;	COMDAT ?assign@?$basic_string@DU?$char_traits@D@std@@V?$allocator@D@2@@std@@QAEAAV12@QBDI@Z
_TEXT	SEGMENT
__Old$1$ = -4						; size = 4
__Ptr$ = 8						; size = 4
__New_ptr$1 = 12					; size = 4
__Count$ = 12						; size = 4
?assign@?$basic_string@DU?$char_traits@D@std@@V?$allocator@D@2@@std@@QAEAAV12@QBDI@Z PROC ; std::basic_string<char,std::char_traits<char>,std::allocator<char> >::assign, COMDAT
; _this$ = ecx

; 3042 :     basic_string& assign(_In_reads_(_Count) const _Elem* const _Ptr, _CRT_GUARDOVERFLOW const size_type _Count) {

  00000	55		 push	 ebp
  00001	8b ec		 mov	 ebp, esp
  00003	51		 push	 ecx
  00004	53		 push	 ebx
  00005	56		 push	 esi
  00006	8b f1		 mov	 esi, ecx
  00008	57		 push	 edi

; 3043 :         // assign [_Ptr, _Ptr + _Count)
; 3044 :         if (_Count <= _Mypair._Myval2._Myres) {

  00009	8b 7d 0c	 mov	 edi, DWORD PTR __Count$[ebp]
  0000c	8b 4e 14	 mov	 ecx, DWORD PTR [esi+20]
  0000f	89 4d fc	 mov	 DWORD PTR __Old$1$[ebp], ecx
  00012	3b f9		 cmp	 edi, ecx
  00014	77 28		 ja	 SHORT $LN2@assign

; 2209 :         value_type* _Result = _Bx._Buf;

  00016	8b de		 mov	 ebx, esi

; 2227 :         return _BUF_SIZE <= _Myres;

  00018	83 f9 10	 cmp	 ecx, 16			; 00000010H

; 2210 :         if (_Large_string_engaged()) {

  0001b	72 02		 jb	 SHORT $LN5@assign

; 2211 :             _Result = _Unfancy(_Bx._Ptr);

  0001d	8b 1e		 mov	 ebx, DWORD PTR [esi]
$LN5@assign:

; 119  :         _CSTD memmove(_First1, _First2, _Count * sizeof(_Elem));

  0001f	57		 push	 edi
  00020	ff 75 08	 push	 DWORD PTR __Ptr$[ebp]

; 3045 :             _Elem* const _Old_ptr   = _Mypair._Myval2._Myptr();
; 3046 :             _Mypair._Myval2._Mysize = _Count;

  00023	89 7e 10	 mov	 DWORD PTR [esi+16], edi

; 119  :         _CSTD memmove(_First1, _First2, _Count * sizeof(_Elem));

  00026	53		 push	 ebx
  00027	e8 00 00 00 00	 call	 _memmove
  0002c	83 c4 0c	 add	 esp, 12			; 0000000cH

; 3047 :             _Traits::move(_Old_ptr, _Ptr, _Count);
; 3048 :             _Traits::assign(_Old_ptr[_Count], _Elem());

  0002f	c6 04 3b 00	 mov	 BYTE PTR [ebx+edi], 0

; 3059 :     }

  00033	8b c6		 mov	 eax, esi
  00035	5f		 pop	 edi
  00036	5e		 pop	 esi
  00037	5b		 pop	 ebx
  00038	8b e5		 mov	 esp, ebp
  0003a	5d		 pop	 ebp
  0003b	c2 08 00	 ret	 8
$LN2@assign:

; 4305 :         if (_New_size > max_size()) {

  0003e	81 ff ff ff ff
	7f		 cmp	 edi, 2147483647		; 7fffffffH
  00044	0f 87 91 00 00
	00		 ja	 $LN36@assign

; 4285 :         const size_type _Masked = _Requested | _ALLOC_MASK;

  0004a	8b df		 mov	 ebx, edi
  0004c	83 cb 0f	 or	 ebx, 15			; 0000000fH
  0004f	81 fb ff ff ff
	7f		 cmp	 ebx, 2147483647		; 7fffffffH

; 4286 :         if (_Masked > _Max) { // the mask overflows, settle for max_size()

  00055	76 07		 jbe	 SHORT $LN19@assign

; 4287 :             return _Max;

  00057	bb ff ff ff 7f	 mov	 ebx, 2147483647		; 7fffffffH
  0005c	eb 1e		 jmp	 SHORT $LN18@assign
$LN19@assign:

; 4288 :         }
; 4289 : 
; 4290 :         if (_Old > _Max - _Old / 2) { // similarly, geometric overflows

  0005e	8b d1		 mov	 edx, ecx
  00060	b8 ff ff ff 7f	 mov	 eax, 2147483647		; 7fffffffH
  00065	d1 ea		 shr	 edx, 1
  00067	2b c2		 sub	 eax, edx
  00069	3b c8		 cmp	 ecx, eax
  0006b	76 07		 jbe	 SHORT $LN20@assign

; 4291 :             return _Max;

  0006d	bb ff ff ff 7f	 mov	 ebx, 2147483647		; 7fffffffH
  00072	eb 08		 jmp	 SHORT $LN18@assign
$LN20@assign:

; 4292 :         }
; 4293 : 
; 4294 :         return (_STD max)(_Masked, _Old + _Old / 2);

  00074	8d 04 0a	 lea	 eax, DWORD PTR [edx+ecx]
; File C:\Program Files (x86)\Microsoft Visual Studio\2019\Community\VC\Tools\MSVC\14.28.29333\include\utility

; 44   :     return _Left < _Right ? _Right : _Left;

  00077	3b d8		 cmp	 ebx, eax
  00079	0f 42 d8	 cmovb	 ebx, eax
$LN18@assign:
; File C:\Program Files (x86)\Microsoft Visual Studio\2019\Community\VC\Tools\MSVC\14.28.29333\include\xstring

; 4312 :         const pointer _New_ptr        = _Al.allocate(_New_capacity + 1); // throws

  0007c	8d 43 01	 lea	 eax, DWORD PTR [ebx+1]
; File C:\Program Files (x86)\Microsoft Visual Studio\2019\Community\VC\Tools\MSVC\14.28.29333\include\xmemory

; 814  :         return static_cast<_Ty*>(_Allocate<_New_alignof<_Ty>>(_Get_size_of_n<sizeof(_Ty)>(_Count)));

  0007f	50		 push	 eax
  00080	e8 00 00 00 00	 call	 ??$_Allocate@$07U_Default_allocate_traits@std@@$0A@@std@@YAPAXI@Z ; std::_Allocate<8,std::_Default_allocate_traits,0>
; File C:\Program Files (x86)\Microsoft Visual Studio\2019\Community\VC\Tools\MSVC\14.28.29333\include\xstring

; 62   :         _CSTD memcpy(_First1, _First2, _Count * sizeof(_Elem));

  00085	57		 push	 edi
  00086	ff 75 08	 push	 DWORD PTR __Ptr$[ebp]

; 4312 :         const pointer _New_ptr        = _Al.allocate(_New_capacity + 1); // throws

  00089	89 45 0c	 mov	 DWORD PTR __New_ptr$1[ebp], eax

; 62   :         _CSTD memcpy(_First1, _First2, _Count * sizeof(_Elem));

  0008c	50		 push	 eax

; 4314 :         _Mypair._Myval2._Mysize = _New_size;

  0008d	89 7e 10	 mov	 DWORD PTR [esi+16], edi

; 4315 :         _Mypair._Myval2._Myres  = _New_capacity;

  00090	89 5e 14	 mov	 DWORD PTR [esi+20], ebx

; 62   :         _CSTD memcpy(_First1, _First2, _Count * sizeof(_Elem));

  00093	e8 00 00 00 00	 call	 _memcpy

; 3056 :                 _Traits::assign(_New_ptr[_Count], _Elem());

  00098	8b 5d 0c	 mov	 ebx, DWORD PTR __New_ptr$1[ebp]

; 62   :         _CSTD memcpy(_First1, _First2, _Count * sizeof(_Elem));

  0009b	83 c4 10	 add	 esp, 16			; 00000010H

; 4317 :         if (_BUF_SIZE <= _Old_capacity) {

  0009e	8b 45 fc	 mov	 eax, DWORD PTR __Old$1$[ebp]

; 3056 :                 _Traits::assign(_New_ptr[_Count], _Elem());

  000a1	c6 04 3b 00	 mov	 BYTE PTR [ebx+edi], 0

; 4317 :         if (_BUF_SIZE <= _Old_capacity) {

  000a5	83 f8 10	 cmp	 eax, 16			; 00000010H
  000a8	72 19		 jb	 SHORT $LN13@assign

; 4318 :             _Al.deallocate(_Mypair._Myval2._Bx._Ptr, _Old_capacity + 1);

  000aa	40		 inc	 eax
; File C:\Program Files (x86)\Microsoft Visual Studio\2019\Community\VC\Tools\MSVC\14.28.29333\include\xmemory

; 810  :         _Deallocate<_New_alignof<_Ty>>(_Ptr, sizeof(_Ty) * _Count);

  000ab	50		 push	 eax
  000ac	ff 36		 push	 DWORD PTR [esi]
  000ae	e8 00 00 00 00	 call	 ??$_Deallocate@$07$0A@@std@@YAXPAXI@Z ; std::_Deallocate<8,0>
; File C:\Program Files (x86)\Microsoft Visual Studio\2019\Community\VC\Tools\MSVC\14.28.29333\include\xstring

; 3059 :     }

  000b3	83 c4 08	 add	 esp, 8

; 4319 :             _Mypair._Myval2._Bx._Ptr = _New_ptr;

  000b6	89 1e		 mov	 DWORD PTR [esi], ebx

; 3059 :     }

  000b8	8b c6		 mov	 eax, esi
  000ba	5f		 pop	 edi
  000bb	5e		 pop	 esi
  000bc	5b		 pop	 ebx
  000bd	8b e5		 mov	 esp, ebp
  000bf	5d		 pop	 ebp
  000c0	c2 08 00	 ret	 8
$LN13@assign:

; 4321 :             _Construct_in_place(_Mypair._Myval2._Bx._Ptr, _New_ptr);

  000c3	8d 45 0c	 lea	 eax, DWORD PTR __New_ptr$1[ebp]
  000c6	50		 push	 eax
  000c7	56		 push	 esi
  000c8	e8 00 00 00 00	 call	 ??$_Construct_in_place@PADABQAD@std@@YAXAAPADABQAD@Z ; std::_Construct_in_place<char *,char * const &>

; 3059 :     }

  000cd	83 c4 08	 add	 esp, 8
  000d0	8b c6		 mov	 eax, esi
  000d2	5f		 pop	 edi
  000d3	5e		 pop	 esi
  000d4	5b		 pop	 ebx
  000d5	8b e5		 mov	 esp, ebp
  000d7	5d		 pop	 ebp
  000d8	c2 08 00	 ret	 8
$LN36@assign:

; 4306 :             _Xlen_string(); // result too long

  000db	e8 00 00 00 00	 call	 ?_Xlen_string@std@@YAXXZ ; std::_Xlen_string
$LN33@assign:
  000e0	cc		 int	 3
?assign@?$basic_string@DU?$char_traits@D@std@@V?$allocator@D@2@@std@@QAEAAV12@QBDI@Z ENDP ; std::basic_string<char,std::char_traits<char>,std::allocator<char> >::assign
_TEXT	ENDS
; Function compile flags: /Ogtp
; File C:\Program Files (x86)\Microsoft Visual Studio\2019\Community\VC\Tools\MSVC\14.28.29333\include\xstring
; File C:\Program Files (x86)\Microsoft Visual Studio\2019\Community\VC\Tools\MSVC\14.28.29333\include\xmemory
; File C:\Program Files (x86)\Microsoft Visual Studio\2019\Community\VC\Tools\MSVC\14.28.29333\include\xstring
;	COMDAT ??1?$basic_string@DU?$char_traits@D@std@@V?$allocator@D@2@@std@@QAE@XZ
_TEXT	SEGMENT
??1?$basic_string@DU?$char_traits@D@std@@V?$allocator@D@2@@std@@QAE@XZ PROC ; std::basic_string<char,std::char_traits<char>,std::allocator<char> >::~basic_string<char,std::char_traits<char>,std::allocator<char> >, COMDAT
; _this$ = ecx

; 2800 :     ~basic_string() noexcept {

  00000	56		 push	 esi
  00001	8b f1		 mov	 esi, ecx

; 2227 :         return _BUF_SIZE <= _Myres;

  00003	8b 46 14	 mov	 eax, DWORD PTR [esi+20]
  00006	83 f8 10	 cmp	 eax, 16			; 00000010H

; 4385 :         if (_Mypair._Myval2._Large_string_engaged()) {

  00009	72 0c		 jb	 SHORT $LN4@basic_stri

; 4386 :             const pointer _Ptr = _Mypair._Myval2._Bx._Ptr;
; 4387 :             auto& _Al          = _Getal();
; 4388 :             _Destroy_in_place(_Mypair._Myval2._Bx._Ptr);
; 4389 :             _Al.deallocate(_Ptr, _Mypair._Myval2._Myres + 1);

  0000b	40		 inc	 eax
; File C:\Program Files (x86)\Microsoft Visual Studio\2019\Community\VC\Tools\MSVC\14.28.29333\include\xmemory

; 810  :         _Deallocate<_New_alignof<_Ty>>(_Ptr, sizeof(_Ty) * _Count);

  0000c	50		 push	 eax
  0000d	ff 36		 push	 DWORD PTR [esi]
  0000f	e8 00 00 00 00	 call	 ??$_Deallocate@$07$0A@@std@@YAXPAXI@Z ; std::_Deallocate<8,0>
  00014	83 c4 08	 add	 esp, 8
$LN4@basic_stri:
; File C:\Program Files (x86)\Microsoft Visual Studio\2019\Community\VC\Tools\MSVC\14.28.29333\include\xstring

; 4392 :         _Mypair._Myval2._Mysize = 0;

  00017	c7 46 10 00 00
	00 00		 mov	 DWORD PTR [esi+16], 0

; 4393 :         _Mypair._Myval2._Myres  = _BUF_SIZE - 1;

  0001e	c7 46 14 0f 00
	00 00		 mov	 DWORD PTR [esi+20], 15	; 0000000fH

; 4394 :         // the _Traits::assign is last so the codegen doesn't think the char write can alias this
; 4395 :         _Traits::assign(_Mypair._Myval2._Bx._Buf[0], _Elem());

  00025	c6 06 00	 mov	 BYTE PTR [esi], 0
  00028	5e		 pop	 esi

; 2801 :         _Tidy_deallocate();
; 2802 : #if _ITERATOR_DEBUG_LEVEL != 0
; 2803 :         auto&& _Alproxy          = _GET_PROXY_ALLOCATOR(_Alty, _Getal());
; 2804 :         const auto _To_delete    = _Mypair._Myval2._Myproxy;
; 2805 :         _Mypair._Myval2._Myproxy = nullptr;
; 2806 :         _Delete_plain_internal(_Alproxy, _To_delete);
; 2807 : #endif // _ITERATOR_DEBUG_LEVEL != 0
; 2808 :     }

  00029	c3		 ret	 0
??1?$basic_string@DU?$char_traits@D@std@@V?$allocator@D@2@@std@@QAE@XZ ENDP ; std::basic_string<char,std::char_traits<char>,std::allocator<char> >::~basic_string<char,std::char_traits<char>,std::allocator<char> >
_TEXT	ENDS
; Function compile flags: /Ogtp
; File C:\Program Files (x86)\Microsoft Visual Studio\2019\Community\VC\Tools\MSVC\14.28.29333\include\xstring
;	COMDAT ??0?$basic_string@DU?$char_traits@D@std@@V?$allocator@D@2@@std@@QAE@XZ
_TEXT	SEGMENT
??0?$basic_string@DU?$char_traits@D@std@@V?$allocator@D@2@@std@@QAE@XZ PROC ; std::basic_string<char,std::char_traits<char>,std::allocator<char> >::basic_string<char,std::char_traits<char>,std::allocator<char> >, COMDAT
; _this$ = ecx

; 4377 :         _Mypair._Myval2._Mysize = 0;

  00000	c7 41 10 00 00
	00 00		 mov	 DWORD PTR [ecx+16], 0

; 2366 :         _Mypair._Myval2._Alloc_proxy(_GET_PROXY_ALLOCATOR(_Alty, _Getal()));
; 2367 :         _Tidy_init();
; 2368 :     }

  00007	8b c1		 mov	 eax, ecx

; 4378 :         _Mypair._Myval2._Myres  = _BUF_SIZE - 1;

  00009	c7 41 14 0f 00
	00 00		 mov	 DWORD PTR [ecx+20], 15	; 0000000fH

; 4379 :         // the _Traits::assign is last so the codegen doesn't think the char write can alias this
; 4380 :         _Traits::assign(_Mypair._Myval2._Bx._Buf[0], _Elem());

  00010	c6 01 00	 mov	 BYTE PTR [ecx], 0

; 2366 :         _Mypair._Myval2._Alloc_proxy(_GET_PROXY_ALLOCATOR(_Alty, _Getal()));
; 2367 :         _Tidy_init();
; 2368 :     }

  00013	c3		 ret	 0
??0?$basic_string@DU?$char_traits@D@std@@V?$allocator@D@2@@std@@QAE@XZ ENDP ; std::basic_string<char,std::char_traits<char>,std::allocator<char> >::basic_string<char,std::char_traits<char>,std::allocator<char> >
_TEXT	ENDS
; Function compile flags: /Ogtp
; File C:\Program Files (x86)\Microsoft Visual Studio\2019\Community\VC\Tools\MSVC\14.28.29333\include\xstring
;	COMDAT ?_Xlen_string@std@@YAXXZ
_TEXT	SEGMENT
?_Xlen_string@std@@YAXXZ PROC				; std::_Xlen_string, COMDAT

; 2275 :     _Xlength_error("string too long");

  00000	68 00 00 00 00	 push	 OFFSET ??_C@_0BA@JFNIOLAK@string?5too?5long@
  00005	e8 00 00 00 00	 call	 ?_Xlength_error@std@@YAXPBD@Z ; std::_Xlength_error
$LN3@Xlen_strin:
  0000a	cc		 int	 3
?_Xlen_string@std@@YAXXZ ENDP				; std::_Xlen_string
_TEXT	ENDS
; Function compile flags: /Ogtp
; File C:\Program Files (x86)\Microsoft Visual Studio\2019\Community\VC\Tools\MSVC\14.28.29333\include\exception
;	COMDAT ?_Throw_bad_array_new_length@std@@YAXXZ
_TEXT	SEGMENT
$T1 = -12						; size = 12
?_Throw_bad_array_new_length@std@@YAXXZ PROC		; std::_Throw_bad_array_new_length, COMDAT

; 320  : [[noreturn]] inline void _Throw_bad_array_new_length() {

  00000	55		 push	 ebp
  00001	8b ec		 mov	 ebp, esp
  00003	83 ec 0c	 sub	 esp, 12			; 0000000cH

; 321  :     _THROW(bad_array_new_length{});

  00006	8d 4d f4	 lea	 ecx, DWORD PTR $T1[ebp]
  00009	e8 00 00 00 00	 call	 ??0bad_array_new_length@std@@QAE@XZ ; std::bad_array_new_length::bad_array_new_length
  0000e	68 00 00 00 00	 push	 OFFSET __TI3?AVbad_array_new_length@std@@
  00013	8d 45 f4	 lea	 eax, DWORD PTR $T1[ebp]
  00016	50		 push	 eax
  00017	e8 00 00 00 00	 call	 __CxxThrowException@8
$LN3@Throw_bad_:
  0001c	cc		 int	 3
?_Throw_bad_array_new_length@std@@YAXXZ ENDP		; std::_Throw_bad_array_new_length
_TEXT	ENDS
; Function compile flags: /Ogtp
; File C:\Program Files (x86)\Microsoft Visual Studio\2019\Community\VC\Tools\MSVC\14.28.29333\include\vcruntime_exception.h
;	COMDAT ??_Gbad_array_new_length@std@@UAEPAXI@Z
_TEXT	SEGMENT
___flags$ = 8						; size = 4
??_Gbad_array_new_length@std@@UAEPAXI@Z PROC		; std::bad_array_new_length::`scalar deleting destructor', COMDAT
; _this$ = ecx
  00000	55		 push	 ebp
  00001	8b ec		 mov	 ebp, esp

; 89   :     {

  00003	56		 push	 esi
  00004	8b f1		 mov	 esi, ecx

; 90   :         __std_exception_destroy(&_Data);

  00006	8d 46 04	 lea	 eax, DWORD PTR [esi+4]
  00009	c7 06 00 00 00
	00		 mov	 DWORD PTR [esi], OFFSET ??_7exception@std@@6B@
  0000f	50		 push	 eax
  00010	e8 00 00 00 00	 call	 ___std_exception_destroy
  00015	83 c4 04	 add	 esp, 4
  00018	f6 45 08 01	 test	 BYTE PTR ___flags$[ebp], 1
  0001c	74 0b		 je	 SHORT $LN12@scalar
  0001e	6a 0c		 push	 12			; 0000000cH
  00020	56		 push	 esi
  00021	e8 00 00 00 00	 call	 ??3@YAXPAXI@Z		; operator delete
  00026	83 c4 08	 add	 esp, 8
$LN12@scalar:
  00029	8b c6		 mov	 eax, esi
  0002b	5e		 pop	 esi
  0002c	5d		 pop	 ebp
  0002d	c2 04 00	 ret	 4
??_Gbad_array_new_length@std@@UAEPAXI@Z ENDP		; std::bad_array_new_length::`scalar deleting destructor'
_TEXT	ENDS
; Function compile flags: /Ogtp
; File C:\Program Files (x86)\Microsoft Visual Studio\2019\Community\VC\Tools\MSVC\14.28.29333\include\vcruntime_exception.h
;	COMDAT ??0bad_array_new_length@std@@QAE@ABV01@@Z
_TEXT	SEGMENT
___that$ = 8						; size = 4
??0bad_array_new_length@std@@QAE@ABV01@@Z PROC		; std::bad_array_new_length::bad_array_new_length, COMDAT
; _this$ = ecx
  00000	55		 push	 ebp
  00001	8b ec		 mov	 ebp, esp

; 72   :     {

  00003	56		 push	 esi
  00004	8b f1		 mov	 esi, ecx
  00006	0f 57 c0	 xorps	 xmm0, xmm0

; 71   :         : _Data()

  00009	8d 46 04	 lea	 eax, DWORD PTR [esi+4]

; 73   :         __std_exception_copy(&_Other._Data, &_Data);

  0000c	50		 push	 eax
  0000d	c7 06 00 00 00
	00		 mov	 DWORD PTR [esi], OFFSET ??_7exception@std@@6B@
  00013	66 0f d6 00	 movq	 QWORD PTR [eax], xmm0
  00017	8b 45 08	 mov	 eax, DWORD PTR ___that$[ebp]
  0001a	83 c0 04	 add	 eax, 4
  0001d	50		 push	 eax
  0001e	e8 00 00 00 00	 call	 ___std_exception_copy
  00023	83 c4 08	 add	 esp, 8
  00026	c7 06 00 00 00
	00		 mov	 DWORD PTR [esi], OFFSET ??_7bad_array_new_length@std@@6B@
  0002c	8b c6		 mov	 eax, esi
  0002e	5e		 pop	 esi
  0002f	5d		 pop	 ebp
  00030	c2 04 00	 ret	 4
??0bad_array_new_length@std@@QAE@ABV01@@Z ENDP		; std::bad_array_new_length::bad_array_new_length
_TEXT	ENDS
; Function compile flags: /Ogtp
; File C:\Program Files (x86)\Microsoft Visual Studio\2019\Community\VC\Tools\MSVC\14.28.29333\include\vcruntime_exception.h
;	COMDAT ??1bad_array_new_length@std@@UAE@XZ
_TEXT	SEGMENT
??1bad_array_new_length@std@@UAE@XZ PROC		; std::bad_array_new_length::~bad_array_new_length, COMDAT
; _this$ = ecx

; 90   :         __std_exception_destroy(&_Data);

  00000	8d 41 04	 lea	 eax, DWORD PTR [ecx+4]
  00003	c7 01 00 00 00
	00		 mov	 DWORD PTR [ecx], OFFSET ??_7exception@std@@6B@
  00009	50		 push	 eax
  0000a	e8 00 00 00 00	 call	 ___std_exception_destroy
  0000f	59		 pop	 ecx
  00010	c3		 ret	 0
??1bad_array_new_length@std@@UAE@XZ ENDP		; std::bad_array_new_length::~bad_array_new_length
_TEXT	ENDS
; Function compile flags: /Ogtp
; File C:\Program Files (x86)\Microsoft Visual Studio\2019\Community\VC\Tools\MSVC\14.28.29333\include\vcruntime_exception.h
;	COMDAT ??0bad_array_new_length@std@@QAE@XZ
_TEXT	SEGMENT
??0bad_array_new_length@std@@QAE@XZ PROC		; std::bad_array_new_length::bad_array_new_length, COMDAT
; _this$ = ecx

; 141  :     {

  00000	0f 57 c0	 xorps	 xmm0, xmm0

; 142  :     }

  00003	8b c1		 mov	 eax, ecx

; 65   :         : _Data()

  00005	66 0f d6 41 04	 movq	 QWORD PTR [ecx+4], xmm0

; 66   :     {
; 67   :         _Data._What = _Message;

  0000a	c7 41 04 00 00
	00 00		 mov	 DWORD PTR [ecx+4], OFFSET ??_C@_0BF@KINCDENJ@bad?5array?5new?5length@

; 141  :     {

  00011	c7 01 00 00 00
	00		 mov	 DWORD PTR [ecx], OFFSET ??_7bad_array_new_length@std@@6B@

; 142  :     }

  00017	c3		 ret	 0
??0bad_array_new_length@std@@QAE@XZ ENDP		; std::bad_array_new_length::bad_array_new_length
_TEXT	ENDS
; Function compile flags: /Ogtp
; File C:\Program Files (x86)\Microsoft Visual Studio\2019\Community\VC\Tools\MSVC\14.28.29333\include\vcruntime_exception.h
;	COMDAT ??_Gbad_alloc@std@@UAEPAXI@Z
_TEXT	SEGMENT
___flags$ = 8						; size = 4
??_Gbad_alloc@std@@UAEPAXI@Z PROC			; std::bad_alloc::`scalar deleting destructor', COMDAT
; _this$ = ecx
  00000	55		 push	 ebp
  00001	8b ec		 mov	 ebp, esp

; 89   :     {

  00003	56		 push	 esi
  00004	8b f1		 mov	 esi, ecx

; 90   :         __std_exception_destroy(&_Data);

  00006	8d 46 04	 lea	 eax, DWORD PTR [esi+4]
  00009	c7 06 00 00 00
	00		 mov	 DWORD PTR [esi], OFFSET ??_7exception@std@@6B@
  0000f	50		 push	 eax
  00010	e8 00 00 00 00	 call	 ___std_exception_destroy
  00015	83 c4 04	 add	 esp, 4
  00018	f6 45 08 01	 test	 BYTE PTR ___flags$[ebp], 1
  0001c	74 0b		 je	 SHORT $LN9@scalar
  0001e	6a 0c		 push	 12			; 0000000cH
  00020	56		 push	 esi
  00021	e8 00 00 00 00	 call	 ??3@YAXPAXI@Z		; operator delete
  00026	83 c4 08	 add	 esp, 8
$LN9@scalar:
  00029	8b c6		 mov	 eax, esi
  0002b	5e		 pop	 esi
  0002c	5d		 pop	 ebp
  0002d	c2 04 00	 ret	 4
??_Gbad_alloc@std@@UAEPAXI@Z ENDP			; std::bad_alloc::`scalar deleting destructor'
_TEXT	ENDS
; Function compile flags: /Ogtp
; File C:\Program Files (x86)\Microsoft Visual Studio\2019\Community\VC\Tools\MSVC\14.28.29333\include\vcruntime_exception.h
;	COMDAT ??0bad_alloc@std@@QAE@ABV01@@Z
_TEXT	SEGMENT
___that$ = 8						; size = 4
??0bad_alloc@std@@QAE@ABV01@@Z PROC			; std::bad_alloc::bad_alloc, COMDAT
; _this$ = ecx
  00000	55		 push	 ebp
  00001	8b ec		 mov	 ebp, esp

; 72   :     {

  00003	56		 push	 esi
  00004	8b f1		 mov	 esi, ecx
  00006	0f 57 c0	 xorps	 xmm0, xmm0

; 71   :         : _Data()

  00009	8d 46 04	 lea	 eax, DWORD PTR [esi+4]

; 73   :         __std_exception_copy(&_Other._Data, &_Data);

  0000c	50		 push	 eax
  0000d	c7 06 00 00 00
	00		 mov	 DWORD PTR [esi], OFFSET ??_7exception@std@@6B@
  00013	66 0f d6 00	 movq	 QWORD PTR [eax], xmm0
  00017	8b 45 08	 mov	 eax, DWORD PTR ___that$[ebp]
  0001a	83 c0 04	 add	 eax, 4
  0001d	50		 push	 eax
  0001e	e8 00 00 00 00	 call	 ___std_exception_copy
  00023	83 c4 08	 add	 esp, 8
  00026	c7 06 00 00 00
	00		 mov	 DWORD PTR [esi], OFFSET ??_7bad_alloc@std@@6B@
  0002c	8b c6		 mov	 eax, esi
  0002e	5e		 pop	 esi
  0002f	5d		 pop	 ebp
  00030	c2 04 00	 ret	 4
??0bad_alloc@std@@QAE@ABV01@@Z ENDP			; std::bad_alloc::bad_alloc
_TEXT	ENDS
; Function compile flags: /Ogtp
; File C:\Program Files (x86)\Microsoft Visual Studio\2019\Community\VC\Tools\MSVC\14.28.29333\include\vcruntime_exception.h
;	COMDAT ??_Gexception@std@@UAEPAXI@Z
_TEXT	SEGMENT
___flags$ = 8						; size = 4
??_Gexception@std@@UAEPAXI@Z PROC			; std::exception::`scalar deleting destructor', COMDAT
; _this$ = ecx
  00000	55		 push	 ebp
  00001	8b ec		 mov	 ebp, esp

; 89   :     {

  00003	56		 push	 esi
  00004	8b f1		 mov	 esi, ecx

; 90   :         __std_exception_destroy(&_Data);

  00006	8d 46 04	 lea	 eax, DWORD PTR [esi+4]
  00009	c7 06 00 00 00
	00		 mov	 DWORD PTR [esi], OFFSET ??_7exception@std@@6B@
  0000f	50		 push	 eax
  00010	e8 00 00 00 00	 call	 ___std_exception_destroy
  00015	83 c4 04	 add	 esp, 4
  00018	f6 45 08 01	 test	 BYTE PTR ___flags$[ebp], 1
  0001c	74 0b		 je	 SHORT $LN6@scalar
  0001e	6a 0c		 push	 12			; 0000000cH
  00020	56		 push	 esi
  00021	e8 00 00 00 00	 call	 ??3@YAXPAXI@Z		; operator delete
  00026	83 c4 08	 add	 esp, 8
$LN6@scalar:
  00029	8b c6		 mov	 eax, esi
  0002b	5e		 pop	 esi
  0002c	5d		 pop	 ebp
  0002d	c2 04 00	 ret	 4
??_Gexception@std@@UAEPAXI@Z ENDP			; std::exception::`scalar deleting destructor'
_TEXT	ENDS
; Function compile flags: /Ogtp
; File C:\Program Files (x86)\Microsoft Visual Studio\2019\Community\VC\Tools\MSVC\14.28.29333\include\vcruntime_exception.h
;	COMDAT ?what@exception@std@@UBEPBDXZ
_TEXT	SEGMENT
?what@exception@std@@UBEPBDXZ PROC			; std::exception::what, COMDAT
; _this$ = ecx

; 95   :         return _Data._What ? _Data._What : "Unknown exception";

  00000	8b 49 04	 mov	 ecx, DWORD PTR [ecx+4]
  00003	b8 00 00 00 00	 mov	 eax, OFFSET ??_C@_0BC@EOODALEL@Unknown?5exception@
  00008	85 c9		 test	 ecx, ecx
  0000a	0f 45 c1	 cmovne	 eax, ecx

; 96   :     }

  0000d	c3		 ret	 0
?what@exception@std@@UBEPBDXZ ENDP			; std::exception::what
_TEXT	ENDS
; Function compile flags: /Ogtp
; File C:\Program Files (x86)\Microsoft Visual Studio\2019\Community\VC\Tools\MSVC\14.28.29333\include\vcruntime_exception.h
;	COMDAT ??1exception@std@@UAE@XZ
_TEXT	SEGMENT
??1exception@std@@UAE@XZ PROC				; std::exception::~exception, COMDAT
; _this$ = ecx

; 90   :         __std_exception_destroy(&_Data);

  00000	8d 41 04	 lea	 eax, DWORD PTR [ecx+4]
  00003	c7 01 00 00 00
	00		 mov	 DWORD PTR [ecx], OFFSET ??_7exception@std@@6B@
  00009	50		 push	 eax
  0000a	e8 00 00 00 00	 call	 ___std_exception_destroy
  0000f	59		 pop	 ecx

; 91   :     }

  00010	c3		 ret	 0
??1exception@std@@UAE@XZ ENDP				; std::exception::~exception
_TEXT	ENDS
; Function compile flags: /Ogtp
; File C:\Program Files (x86)\Microsoft Visual Studio\2019\Community\VC\Tools\MSVC\14.28.29333\include\vcruntime_exception.h
;	COMDAT ??0exception@std@@QAE@ABV01@@Z
_TEXT	SEGMENT
__Other$ = 8						; size = 4
??0exception@std@@QAE@ABV01@@Z PROC			; std::exception::exception, COMDAT
; _this$ = ecx

; 72   :     {

  00000	55		 push	 ebp
  00001	8b ec		 mov	 ebp, esp
  00003	56		 push	 esi
  00004	8b f1		 mov	 esi, ecx
  00006	0f 57 c0	 xorps	 xmm0, xmm0
  00009	8d 46 04	 lea	 eax, DWORD PTR [esi+4]

; 73   :         __std_exception_copy(&_Other._Data, &_Data);

  0000c	50		 push	 eax
  0000d	c7 06 00 00 00
	00		 mov	 DWORD PTR [esi], OFFSET ??_7exception@std@@6B@
  00013	66 0f d6 00	 movq	 QWORD PTR [eax], xmm0
  00017	8b 45 08	 mov	 eax, DWORD PTR __Other$[ebp]
  0001a	83 c0 04	 add	 eax, 4
  0001d	50		 push	 eax
  0001e	e8 00 00 00 00	 call	 ___std_exception_copy
  00023	83 c4 08	 add	 esp, 8

; 74   :     }

  00026	8b c6		 mov	 eax, esi
  00028	5e		 pop	 esi
  00029	5d		 pop	 ebp
  0002a	c2 04 00	 ret	 4
??0exception@std@@QAE@ABV01@@Z ENDP			; std::exception::exception
_TEXT	ENDS
; Function compile flags: /Ogtp
; File C:\Program Files (x86)\Windows Kits\10\Include\10.0.18362.0\ucrt\stdio.h
;	COMDAT _sprintf
_TEXT	SEGMENT
__Buffer$ = 8						; size = 4
__Format$ = 12						; size = 4
_sprintf PROC						; COMDAT

; 1781 :     {

  00000	55		 push	 ebp
  00001	8b ec		 mov	 ebp, esp

; 1390 :         int const _Result = __stdio_common_vsprintf(

  00003	8d 45 10	 lea	 eax, DWORD PTR __Format$[ebp+4]
  00006	50		 push	 eax
  00007	6a 00		 push	 0
  00009	ff 75 0c	 push	 DWORD PTR __Format$[ebp]
  0000c	6a ff		 push	 -1
  0000e	ff 75 08	 push	 DWORD PTR __Buffer$[ebp]
  00011	e8 00 00 00 00	 call	 ___local_stdio_printf_options
  00016	8b 08		 mov	 ecx, DWORD PTR [eax]
  00018	ff 70 04	 push	 DWORD PTR [eax+4]
  0001b	83 c9 01	 or	 ecx, 1
  0001e	51		 push	 ecx
  0001f	e8 00 00 00 00	 call	 ___stdio_common_vsprintf

; 1391 :             _CRT_INTERNAL_LOCAL_PRINTF_OPTIONS | _CRT_INTERNAL_PRINTF_LEGACY_VSPRINTF_NULL_TERMINATION,
; 1392 :             _Buffer, _BufferCount, _Format, _Locale, _ArgList);
; 1393 : 
; 1394 :         return _Result < 0 ? -1 : _Result;

  00024	83 c9 ff	 or	 ecx, -1
  00027	83 c4 1c	 add	 esp, 28			; 0000001cH
  0002a	85 c0		 test	 eax, eax
  0002c	0f 48 c1	 cmovs	 eax, ecx

; 1782 :         int _Result;
; 1783 :         va_list _ArgList;
; 1784 :         __crt_va_start(_ArgList, _Format);
; 1785 : 
; 1786 :         #pragma warning(push)
; 1787 :         #pragma warning(disable: 4996) // Deprecation
; 1788 :         _Result = _vsprintf_l(_Buffer, _Format, NULL, _ArgList);
; 1789 :         #pragma warning(pop)
; 1790 : 
; 1791 :         __crt_va_end(_ArgList);
; 1792 :         return _Result;
; 1793 :     }

  0002f	5d		 pop	 ebp
  00030	c3		 ret	 0
_sprintf ENDP
_TEXT	ENDS
; Function compile flags: /Ogtp
; File C:\Program Files (x86)\Windows Kits\10\Include\10.0.18362.0\ucrt\corecrt_stdio_config.h
;	COMDAT ___local_stdio_printf_options
_TEXT	SEGMENT
___local_stdio_printf_options PROC			; COMDAT

; 87   :         static unsigned __int64 _OptionsStorage;
; 88   :         return &_OptionsStorage;

  00000	b8 00 00 00 00	 mov	 eax, OFFSET ?_OptionsStorage@?1??__local_stdio_printf_options@@9@4_KA ; `__local_stdio_printf_options'::`2'::_OptionsStorage

; 89   :     }

  00005	c3		 ret	 0
___local_stdio_printf_options ENDP
_TEXT	ENDS
; Function compile flags: /Ogtp
; File D:\Metin2 Server Files\mainline\SRC_2014\Metin2Client\UserInterface\PythonNetworkStream.cpp
;	COMDAT ?__empty_global_delete@@YAXPAXI@Z
_TEXT	SEGMENT
___formal$ = 8						; size = 4
___formal$ = 12						; size = 4
?__empty_global_delete@@YAXPAXI@Z PROC			; __empty_global_delete, COMDAT

  00000	c2 00 00	 ret	 0
?__empty_global_delete@@YAXPAXI@Z ENDP			; __empty_global_delete
_TEXT	ENDS
; Function compile flags: /Ogtp
; File D:\Metin2 Server Files\mainline\SRC_2014\Metin2Client\UserInterface\PythonNetworkStream.cpp
;	COMDAT ?__empty_global_delete@@YAXPAX@Z
_TEXT	SEGMENT
___formal$ = 8						; size = 4
?__empty_global_delete@@YAXPAX@Z PROC			; __empty_global_delete, COMDAT

  00000	c2 00 00	 ret	 0
?__empty_global_delete@@YAXPAX@Z ENDP			; __empty_global_delete
_TEXT	ENDS
; Function compile flags: /Ogtp
;	COMDAT ??_H@YGXPAXIIP6EPAX0@Z@Z
_TEXT	SEGMENT
___t$ = 8						; size = 4
___s$ = 12						; size = 4
___n$ = 16						; size = 4
___f$ = 20						; size = 4
??_H@YGXPAXIIP6EPAX0@Z@Z PROC				; `vector constructor iterator', COMDAT
  00000	55		 push	 ebp
  00001	8b ec		 mov	 ebp, esp
  00003	56		 push	 esi
  00004	8b 75 10	 mov	 esi, DWORD PTR ___n$[ebp]
  00007	85 f6		 test	 esi, esi
  00009	74 16		 je	 SHORT $LN6@vector
  0000b	53		 push	 ebx
  0000c	8b 5d 14	 mov	 ebx, DWORD PTR ___f$[ebp]
  0000f	57		 push	 edi
  00010	8b 7d 08	 mov	 edi, DWORD PTR ___t$[ebp]
$LL2@vector:
  00013	8b cf		 mov	 ecx, edi
  00015	ff d3		 call	 ebx
  00017	03 7d 0c	 add	 edi, DWORD PTR ___s$[ebp]
  0001a	83 ee 01	 sub	 esi, 1
  0001d	75 f4		 jne	 SHORT $LL2@vector
  0001f	5f		 pop	 edi
  00020	5b		 pop	 ebx
$LN6@vector:
  00021	5e		 pop	 esi
  00022	5d		 pop	 ebp
  00023	c2 10 00	 ret	 16			; 00000010H
??_H@YGXPAXIIP6EPAX0@Z@Z ENDP				; `vector constructor iterator'
_TEXT	ENDS
END
