; Listing generated by Microsoft (R) Optimizing Compiler Version 19.28.29335.0 

	TITLE	D:\Metin2 Server Files\mainline\SRC_2014\Metin2Client\UserInterface\PythonChat.cpp
	.686P
	.XMM
	include listing.inc
	.model	flat

INCLUDELIB LIBCMT
INCLUDELIB OLDNAMES

PUBLIC	??_7?$CDynamicPoolEx@VCRotationDecorator@NEffectUpdateDecorator@@@@6B@ ; CDynamicPoolEx<NEffectUpdateDecorator::CRotationDecorator>::`vftable'
PUBLIC	??_G?$CDynamicPoolEx@VCRotationDecorator@NEffectUpdateDecorator@@@@UAEPAXI@Z ; CDynamicPoolEx<NEffectUpdateDecorator::CRotationDecorator>::`scalar deleting destructor'
PUBLIC	??_7?$CDynamicPoolEx@VCGravityDecorator@NEffectUpdateDecorator@@@@6B@ ; CDynamicPoolEx<NEffectUpdateDecorator::CGravityDecorator>::`vftable'
PUBLIC	??_G?$CDynamicPoolEx@VCGravityDecorator@NEffectUpdateDecorator@@@@UAEPAXI@Z ; CDynamicPoolEx<NEffectUpdateDecorator::CGravityDecorator>::`scalar deleting destructor'
PUBLIC	??_7?$CDynamicPoolEx@VCAirResistanceDecorator@NEffectUpdateDecorator@@@@6B@ ; CDynamicPoolEx<NEffectUpdateDecorator::CAirResistanceDecorator>::`vftable'
PUBLIC	??_G?$CDynamicPoolEx@VCAirResistanceDecorator@NEffectUpdateDecorator@@@@UAEPAXI@Z ; CDynamicPoolEx<NEffectUpdateDecorator::CAirResistanceDecorator>::`scalar deleting destructor'
PUBLIC	??_7?$CDynamicPoolEx@VCTextureAnimationRandomDecorator@NEffectUpdateDecorator@@@@6B@ ; CDynamicPoolEx<NEffectUpdateDecorator::CTextureAnimationRandomDecorator>::`vftable'
PUBLIC	??_G?$CDynamicPoolEx@VCTextureAnimationRandomDecorator@NEffectUpdateDecorator@@@@UAEPAXI@Z ; CDynamicPoolEx<NEffectUpdateDecorator::CTextureAnimationRandomDecorator>::`scalar deleting destructor'
PUBLIC	??_7?$CDynamicPoolEx@VCTextureAnimationCCWDecorator@NEffectUpdateDecorator@@@@6B@ ; CDynamicPoolEx<NEffectUpdateDecorator::CTextureAnimationCCWDecorator>::`vftable'
PUBLIC	??_G?$CDynamicPoolEx@VCTextureAnimationCCWDecorator@NEffectUpdateDecorator@@@@UAEPAXI@Z ; CDynamicPoolEx<NEffectUpdateDecorator::CTextureAnimationCCWDecorator>::`scalar deleting destructor'
PUBLIC	??_7?$CDynamicPoolEx@VCTextureAnimationCWDecorator@NEffectUpdateDecorator@@@@6B@ ; CDynamicPoolEx<NEffectUpdateDecorator::CTextureAnimationCWDecorator>::`vftable'
PUBLIC	??_G?$CDynamicPoolEx@VCTextureAnimationCWDecorator@NEffectUpdateDecorator@@@@UAEPAXI@Z ; CDynamicPoolEx<NEffectUpdateDecorator::CTextureAnimationCWDecorator>::`scalar deleting destructor'
PUBLIC	??_7?$CDynamicPool@USChatLine@CPythonChat@@@@6B@ ; CDynamicPool<CPythonChat::SChatLine>::`vftable'
PUBLIC	??_G?$CDynamicPool@USChatLine@CPythonChat@@@@UAEPAXI@Z ; CDynamicPool<CPythonChat::SChatLine>::`scalar deleting destructor'
PUBLIC	??_R4?$CDynamicPool@USChatLine@CWhisper@@@@6B@	; CDynamicPool<CWhisper::SChatLine>::`RTTI Complete Object Locator'
PUBLIC	??_R0?AV?$CDynamicPool@USChatLine@CWhisper@@@@@8 ; CDynamicPool<CWhisper::SChatLine> `RTTI Type Descriptor'
PUBLIC	??_R3?$CDynamicPool@USChatLine@CWhisper@@@@8	; CDynamicPool<CWhisper::SChatLine>::`RTTI Class Hierarchy Descriptor'
PUBLIC	??_R2?$CDynamicPool@USChatLine@CWhisper@@@@8	; CDynamicPool<CWhisper::SChatLine>::`RTTI Base Class Array'
PUBLIC	??_R1A@?0A@EA@?$CDynamicPool@USChatLine@CWhisper@@@@8 ; CDynamicPool<CWhisper::SChatLine>::`RTTI Base Class Descriptor at (0,-1,0,64)'
PUBLIC	??_R4?$CDynamicPool@VCWhisper@@@@6B@		; CDynamicPool<CWhisper>::`RTTI Complete Object Locator'
PUBLIC	??_R0?AV?$CDynamicPool@VCWhisper@@@@@8		; CDynamicPool<CWhisper> `RTTI Type Descriptor'
PUBLIC	??_R3?$CDynamicPool@VCWhisper@@@@8		; CDynamicPool<CWhisper>::`RTTI Class Hierarchy Descriptor'
PUBLIC	??_R2?$CDynamicPool@VCWhisper@@@@8		; CDynamicPool<CWhisper>::`RTTI Base Class Array'
PUBLIC	??_R1A@?0A@EA@?$CDynamicPool@VCWhisper@@@@8	; CDynamicPool<CWhisper>::`RTTI Base Class Descriptor at (0,-1,0,64)'
PUBLIC	??_R4?$CDynamicPool@USChatLine@CPythonChat@@@@6B@ ; CDynamicPool<CPythonChat::SChatLine>::`RTTI Complete Object Locator'
PUBLIC	??_R0?AV?$CDynamicPool@USChatLine@CPythonChat@@@@@8 ; CDynamicPool<CPythonChat::SChatLine> `RTTI Type Descriptor'
PUBLIC	??_R3?$CDynamicPool@USChatLine@CPythonChat@@@@8	; CDynamicPool<CPythonChat::SChatLine>::`RTTI Class Hierarchy Descriptor'
PUBLIC	??_R2?$CDynamicPool@USChatLine@CPythonChat@@@@8	; CDynamicPool<CPythonChat::SChatLine>::`RTTI Base Class Array'
PUBLIC	??_R1A@?0A@EA@?$CDynamicPool@USChatLine@CPythonChat@@@@8 ; CDynamicPool<CPythonChat::SChatLine>::`RTTI Base Class Descriptor at (0,-1,0,64)'
PUBLIC	??_R4?$CDynamicPoolEx@VCHeaderDecorator@NEffectUpdateDecorator@@@@6B@ ; CDynamicPoolEx<NEffectUpdateDecorator::CHeaderDecorator>::`RTTI Complete Object Locator'
PUBLIC	??_R0?AV?$CDynamicPoolEx@VCHeaderDecorator@NEffectUpdateDecorator@@@@@8 ; CDynamicPoolEx<NEffectUpdateDecorator::CHeaderDecorator> `RTTI Type Descriptor'
PUBLIC	??_R3?$CDynamicPoolEx@VCHeaderDecorator@NEffectUpdateDecorator@@@@8 ; CDynamicPoolEx<NEffectUpdateDecorator::CHeaderDecorator>::`RTTI Class Hierarchy Descriptor'
PUBLIC	??_R2?$CDynamicPoolEx@VCHeaderDecorator@NEffectUpdateDecorator@@@@8 ; CDynamicPoolEx<NEffectUpdateDecorator::CHeaderDecorator>::`RTTI Base Class Array'
PUBLIC	??_R1A@?0A@EA@?$CDynamicPoolEx@VCHeaderDecorator@NEffectUpdateDecorator@@@@8 ; CDynamicPoolEx<NEffectUpdateDecorator::CHeaderDecorator>::`RTTI Base Class Descriptor at (0,-1,0,64)'
PUBLIC	??_R4?$CDynamicPoolEx@VCNullDecorator@NEffectUpdateDecorator@@@@6B@ ; CDynamicPoolEx<NEffectUpdateDecorator::CNullDecorator>::`RTTI Complete Object Locator'
PUBLIC	??_R0?AV?$CDynamicPoolEx@VCNullDecorator@NEffectUpdateDecorator@@@@@8 ; CDynamicPoolEx<NEffectUpdateDecorator::CNullDecorator> `RTTI Type Descriptor'
PUBLIC	??_R3?$CDynamicPoolEx@VCNullDecorator@NEffectUpdateDecorator@@@@8 ; CDynamicPoolEx<NEffectUpdateDecorator::CNullDecorator>::`RTTI Class Hierarchy Descriptor'
PUBLIC	??_R2?$CDynamicPoolEx@VCNullDecorator@NEffectUpdateDecorator@@@@8 ; CDynamicPoolEx<NEffectUpdateDecorator::CNullDecorator>::`RTTI Base Class Array'
PUBLIC	??_R1A@?0A@EA@?$CDynamicPoolEx@VCNullDecorator@NEffectUpdateDecorator@@@@8 ; CDynamicPoolEx<NEffectUpdateDecorator::CNullDecorator>::`RTTI Base Class Descriptor at (0,-1,0,64)'
PUBLIC	??_7?$CDynamicPoolEx@VCNullDecorator@NEffectUpdateDecorator@@@@6B@ ; CDynamicPoolEx<NEffectUpdateDecorator::CNullDecorator>::`vftable'
PUBLIC	??_G?$CDynamicPoolEx@VCNullDecorator@NEffectUpdateDecorator@@@@UAEPAXI@Z ; CDynamicPoolEx<NEffectUpdateDecorator::CNullDecorator>::`scalar deleting destructor'
PUBLIC	??_R4?$CDynamicPoolEx@VCTextureAnimationCWDecorator@NEffectUpdateDecorator@@@@6B@ ; CDynamicPoolEx<NEffectUpdateDecorator::CTextureAnimationCWDecorator>::`RTTI Complete Object Locator'
PUBLIC	??_R0?AV?$CDynamicPoolEx@VCTextureAnimationCWDecorator@NEffectUpdateDecorator@@@@@8 ; CDynamicPoolEx<NEffectUpdateDecorator::CTextureAnimationCWDecorator> `RTTI Type Descriptor'
PUBLIC	??_R3?$CDynamicPoolEx@VCTextureAnimationCWDecorator@NEffectUpdateDecorator@@@@8 ; CDynamicPoolEx<NEffectUpdateDecorator::CTextureAnimationCWDecorator>::`RTTI Class Hierarchy Descriptor'
PUBLIC	??_R2?$CDynamicPoolEx@VCTextureAnimationCWDecorator@NEffectUpdateDecorator@@@@8 ; CDynamicPoolEx<NEffectUpdateDecorator::CTextureAnimationCWDecorator>::`RTTI Base Class Array'
PUBLIC	??_R1A@?0A@EA@?$CDynamicPoolEx@VCTextureAnimationCWDecorator@NEffectUpdateDecorator@@@@8 ; CDynamicPoolEx<NEffectUpdateDecorator::CTextureAnimationCWDecorator>::`RTTI Base Class Descriptor at (0,-1,0,64)'
PUBLIC	??_R4?$CDynamicPoolEx@VCTextureAnimationCCWDecorator@NEffectUpdateDecorator@@@@6B@ ; CDynamicPoolEx<NEffectUpdateDecorator::CTextureAnimationCCWDecorator>::`RTTI Complete Object Locator'
PUBLIC	??_R0?AV?$CDynamicPoolEx@VCTextureAnimationCCWDecorator@NEffectUpdateDecorator@@@@@8 ; CDynamicPoolEx<NEffectUpdateDecorator::CTextureAnimationCCWDecorator> `RTTI Type Descriptor'
PUBLIC	??_R3?$CDynamicPoolEx@VCTextureAnimationCCWDecorator@NEffectUpdateDecorator@@@@8 ; CDynamicPoolEx<NEffectUpdateDecorator::CTextureAnimationCCWDecorator>::`RTTI Class Hierarchy Descriptor'
PUBLIC	??_R2?$CDynamicPoolEx@VCTextureAnimationCCWDecorator@NEffectUpdateDecorator@@@@8 ; CDynamicPoolEx<NEffectUpdateDecorator::CTextureAnimationCCWDecorator>::`RTTI Base Class Array'
PUBLIC	??_R1A@?0A@EA@?$CDynamicPoolEx@VCTextureAnimationCCWDecorator@NEffectUpdateDecorator@@@@8 ; CDynamicPoolEx<NEffectUpdateDecorator::CTextureAnimationCCWDecorator>::`RTTI Base Class Descriptor at (0,-1,0,64)'
PUBLIC	??_R4?$CDynamicPoolEx@VCTextureAnimationRandomDecorator@NEffectUpdateDecorator@@@@6B@ ; CDynamicPoolEx<NEffectUpdateDecorator::CTextureAnimationRandomDecorator>::`RTTI Complete Object Locator'
PUBLIC	??_R0?AV?$CDynamicPoolEx@VCTextureAnimationRandomDecorator@NEffectUpdateDecorator@@@@@8 ; CDynamicPoolEx<NEffectUpdateDecorator::CTextureAnimationRandomDecorator> `RTTI Type Descriptor'
PUBLIC	??_R3?$CDynamicPoolEx@VCTextureAnimationRandomDecorator@NEffectUpdateDecorator@@@@8 ; CDynamicPoolEx<NEffectUpdateDecorator::CTextureAnimationRandomDecorator>::`RTTI Class Hierarchy Descriptor'
PUBLIC	??_R2?$CDynamicPoolEx@VCTextureAnimationRandomDecorator@NEffectUpdateDecorator@@@@8 ; CDynamicPoolEx<NEffectUpdateDecorator::CTextureAnimationRandomDecorator>::`RTTI Base Class Array'
PUBLIC	??_R1A@?0A@EA@?$CDynamicPoolEx@VCTextureAnimationRandomDecorator@NEffectUpdateDecorator@@@@8 ; CDynamicPoolEx<NEffectUpdateDecorator::CTextureAnimationRandomDecorator>::`RTTI Base Class Descriptor at (0,-1,0,64)'
PUBLIC	??_R4?$CDynamicPoolEx@VCAirResistanceDecorator@NEffectUpdateDecorator@@@@6B@ ; CDynamicPoolEx<NEffectUpdateDecorator::CAirResistanceDecorator>::`RTTI Complete Object Locator'
PUBLIC	??_R0?AV?$CDynamicPoolEx@VCAirResistanceDecorator@NEffectUpdateDecorator@@@@@8 ; CDynamicPoolEx<NEffectUpdateDecorator::CAirResistanceDecorator> `RTTI Type Descriptor'
PUBLIC	??_R3?$CDynamicPoolEx@VCAirResistanceDecorator@NEffectUpdateDecorator@@@@8 ; CDynamicPoolEx<NEffectUpdateDecorator::CAirResistanceDecorator>::`RTTI Class Hierarchy Descriptor'
PUBLIC	??_R2?$CDynamicPoolEx@VCAirResistanceDecorator@NEffectUpdateDecorator@@@@8 ; CDynamicPoolEx<NEffectUpdateDecorator::CAirResistanceDecorator>::`RTTI Base Class Array'
PUBLIC	??_R1A@?0A@EA@?$CDynamicPoolEx@VCAirResistanceDecorator@NEffectUpdateDecorator@@@@8 ; CDynamicPoolEx<NEffectUpdateDecorator::CAirResistanceDecorator>::`RTTI Base Class Descriptor at (0,-1,0,64)'
PUBLIC	??_R4?$CDynamicPoolEx@VCGravityDecorator@NEffectUpdateDecorator@@@@6B@ ; CDynamicPoolEx<NEffectUpdateDecorator::CGravityDecorator>::`RTTI Complete Object Locator'
PUBLIC	??_R0?AV?$CDynamicPoolEx@VCGravityDecorator@NEffectUpdateDecorator@@@@@8 ; CDynamicPoolEx<NEffectUpdateDecorator::CGravityDecorator> `RTTI Type Descriptor'
PUBLIC	??_R3?$CDynamicPoolEx@VCGravityDecorator@NEffectUpdateDecorator@@@@8 ; CDynamicPoolEx<NEffectUpdateDecorator::CGravityDecorator>::`RTTI Class Hierarchy Descriptor'
PUBLIC	??_R2?$CDynamicPoolEx@VCGravityDecorator@NEffectUpdateDecorator@@@@8 ; CDynamicPoolEx<NEffectUpdateDecorator::CGravityDecorator>::`RTTI Base Class Array'
PUBLIC	??_R1A@?0A@EA@?$CDynamicPoolEx@VCGravityDecorator@NEffectUpdateDecorator@@@@8 ; CDynamicPoolEx<NEffectUpdateDecorator::CGravityDecorator>::`RTTI Base Class Descriptor at (0,-1,0,64)'
PUBLIC	??_R4?$CDynamicPoolEx@VCRotationDecorator@NEffectUpdateDecorator@@@@6B@ ; CDynamicPoolEx<NEffectUpdateDecorator::CRotationDecorator>::`RTTI Complete Object Locator'
PUBLIC	??_R0?AV?$CDynamicPoolEx@VCRotationDecorator@NEffectUpdateDecorator@@@@@8 ; CDynamicPoolEx<NEffectUpdateDecorator::CRotationDecorator> `RTTI Type Descriptor'
PUBLIC	??_R3?$CDynamicPoolEx@VCRotationDecorator@NEffectUpdateDecorator@@@@8 ; CDynamicPoolEx<NEffectUpdateDecorator::CRotationDecorator>::`RTTI Class Hierarchy Descriptor'
PUBLIC	??_R2?$CDynamicPoolEx@VCRotationDecorator@NEffectUpdateDecorator@@@@8 ; CDynamicPoolEx<NEffectUpdateDecorator::CRotationDecorator>::`RTTI Base Class Array'
PUBLIC	??_R1A@?0A@EA@?$CDynamicPoolEx@VCRotationDecorator@NEffectUpdateDecorator@@@@8 ; CDynamicPoolEx<NEffectUpdateDecorator::CRotationDecorator>::`RTTI Base Class Descriptor at (0,-1,0,64)'
PUBLIC	??_7?$CDynamicPoolEx@VCHeaderDecorator@NEffectUpdateDecorator@@@@6B@ ; CDynamicPoolEx<NEffectUpdateDecorator::CHeaderDecorator>::`vftable'
PUBLIC	??_G?$CDynamicPoolEx@VCHeaderDecorator@NEffectUpdateDecorator@@@@UAEPAXI@Z ; CDynamicPoolEx<NEffectUpdateDecorator::CHeaderDecorator>::`scalar deleting destructor'
PUBLIC	??_7?$CDynamicPool@VCWhisper@@@@6B@		; CDynamicPool<CWhisper>::`vftable'
PUBLIC	??_G?$CDynamicPool@VCWhisper@@@@UAEPAXI@Z	; CDynamicPool<CWhisper>::`scalar deleting destructor'
PUBLIC	?ms_iChatModeSize@SChatSet@CPythonChat@@2HA	; CPythonChat::SChatSet::ms_iChatModeSize
PUBLIC	??_7?$CDynamicPool@USChatLine@CWhisper@@@@6B@	; CDynamicPool<CWhisper::SChatLine>::`vftable'
PUBLIC	??_G?$CDynamicPool@USChatLine@CWhisper@@@@UAEPAXI@Z ; CDynamicPool<CWhisper::SChatLine>::`scalar deleting destructor'
EXTRN	??_E?$CDynamicPoolEx@VCRotationDecorator@NEffectUpdateDecorator@@@@UAEPAXI@Z:PROC ; CDynamicPoolEx<NEffectUpdateDecorator::CRotationDecorator>::`vector deleting destructor'
EXTRN	??_E?$CDynamicPoolEx@VCGravityDecorator@NEffectUpdateDecorator@@@@UAEPAXI@Z:PROC ; CDynamicPoolEx<NEffectUpdateDecorator::CGravityDecorator>::`vector deleting destructor'
EXTRN	??_E?$CDynamicPoolEx@VCAirResistanceDecorator@NEffectUpdateDecorator@@@@UAEPAXI@Z:PROC ; CDynamicPoolEx<NEffectUpdateDecorator::CAirResistanceDecorator>::`vector deleting destructor'
EXTRN	??_E?$CDynamicPoolEx@VCTextureAnimationRandomDecorator@NEffectUpdateDecorator@@@@UAEPAXI@Z:PROC ; CDynamicPoolEx<NEffectUpdateDecorator::CTextureAnimationRandomDecorator>::`vector deleting destructor'
EXTRN	??_E?$CDynamicPoolEx@VCTextureAnimationCCWDecorator@NEffectUpdateDecorator@@@@UAEPAXI@Z:PROC ; CDynamicPoolEx<NEffectUpdateDecorator::CTextureAnimationCCWDecorator>::`vector deleting destructor'
EXTRN	??_E?$CDynamicPoolEx@VCTextureAnimationCWDecorator@NEffectUpdateDecorator@@@@UAEPAXI@Z:PROC ; CDynamicPoolEx<NEffectUpdateDecorator::CTextureAnimationCWDecorator>::`vector deleting destructor'
EXTRN	??_E?$CDynamicPool@USChatLine@CPythonChat@@@@UAEPAXI@Z:PROC ; CDynamicPool<CPythonChat::SChatLine>::`vector deleting destructor'
EXTRN	??_E?$CDynamicPoolEx@VCNullDecorator@NEffectUpdateDecorator@@@@UAEPAXI@Z:PROC ; CDynamicPoolEx<NEffectUpdateDecorator::CNullDecorator>::`vector deleting destructor'
EXTRN	??_7type_info@@6B@:QWORD			; type_info::`vftable'
EXTRN	??_E?$CDynamicPoolEx@VCHeaderDecorator@NEffectUpdateDecorator@@@@UAEPAXI@Z:PROC ; CDynamicPoolEx<NEffectUpdateDecorator::CHeaderDecorator>::`vector deleting destructor'
EXTRN	??_E?$CDynamicPool@VCWhisper@@@@UAEPAXI@Z:PROC	; CDynamicPool<CWhisper>::`vector deleting destructor'
EXTRN	??_E?$CDynamicPool@USChatLine@CWhisper@@@@UAEPAXI@Z:PROC ; CDynamicPool<CWhisper::SChatLine>::`vector deleting destructor'
;	COMDAT ??_7?$CDynamicPool@USChatLine@CWhisper@@@@6B@
CONST	SEGMENT
??_7?$CDynamicPool@USChatLine@CWhisper@@@@6B@ DD FLAT:??_R4?$CDynamicPool@USChatLine@CWhisper@@@@6B@ ; CDynamicPool<CWhisper::SChatLine>::`vftable'
	DD	FLAT:??_E?$CDynamicPool@USChatLine@CWhisper@@@@UAEPAXI@Z
CONST	ENDS
_DATA	SEGMENT
?ms_iChatModeSize@SChatSet@CPythonChat@@2HA DD 09H	; CPythonChat::SChatSet::ms_iChatModeSize
_DATA	ENDS
;	COMDAT ??_7?$CDynamicPool@VCWhisper@@@@6B@
CONST	SEGMENT
??_7?$CDynamicPool@VCWhisper@@@@6B@ DD FLAT:??_R4?$CDynamicPool@VCWhisper@@@@6B@ ; CDynamicPool<CWhisper>::`vftable'
	DD	FLAT:??_E?$CDynamicPool@VCWhisper@@@@UAEPAXI@Z
CONST	ENDS
;	COMDAT ??_7?$CDynamicPoolEx@VCHeaderDecorator@NEffectUpdateDecorator@@@@6B@
CONST	SEGMENT
??_7?$CDynamicPoolEx@VCHeaderDecorator@NEffectUpdateDecorator@@@@6B@ DD FLAT:??_R4?$CDynamicPoolEx@VCHeaderDecorator@NEffectUpdateDecorator@@@@6B@ ; CDynamicPoolEx<NEffectUpdateDecorator::CHeaderDecorator>::`vftable'
	DD	FLAT:??_E?$CDynamicPoolEx@VCHeaderDecorator@NEffectUpdateDecorator@@@@UAEPAXI@Z
CONST	ENDS
;	COMDAT ??_R1A@?0A@EA@?$CDynamicPoolEx@VCRotationDecorator@NEffectUpdateDecorator@@@@8
rdata$r	SEGMENT
??_R1A@?0A@EA@?$CDynamicPoolEx@VCRotationDecorator@NEffectUpdateDecorator@@@@8 DD FLAT:??_R0?AV?$CDynamicPoolEx@VCRotationDecorator@NEffectUpdateDecorator@@@@@8 ; CDynamicPoolEx<NEffectUpdateDecorator::CRotationDecorator>::`RTTI Base Class Descriptor at (0,-1,0,64)'
	DD	00H
	DD	00H
	DD	0ffffffffH
	DD	00H
	DD	040H
	DD	FLAT:??_R3?$CDynamicPoolEx@VCRotationDecorator@NEffectUpdateDecorator@@@@8
rdata$r	ENDS
;	COMDAT ??_R2?$CDynamicPoolEx@VCRotationDecorator@NEffectUpdateDecorator@@@@8
rdata$r	SEGMENT
??_R2?$CDynamicPoolEx@VCRotationDecorator@NEffectUpdateDecorator@@@@8 DD FLAT:??_R1A@?0A@EA@?$CDynamicPoolEx@VCRotationDecorator@NEffectUpdateDecorator@@@@8 ; CDynamicPoolEx<NEffectUpdateDecorator::CRotationDecorator>::`RTTI Base Class Array'
rdata$r	ENDS
;	COMDAT ??_R3?$CDynamicPoolEx@VCRotationDecorator@NEffectUpdateDecorator@@@@8
rdata$r	SEGMENT
??_R3?$CDynamicPoolEx@VCRotationDecorator@NEffectUpdateDecorator@@@@8 DD 00H ; CDynamicPoolEx<NEffectUpdateDecorator::CRotationDecorator>::`RTTI Class Hierarchy Descriptor'
	DD	00H
	DD	01H
	DD	FLAT:??_R2?$CDynamicPoolEx@VCRotationDecorator@NEffectUpdateDecorator@@@@8
rdata$r	ENDS
;	COMDAT ??_R0?AV?$CDynamicPoolEx@VCRotationDecorator@NEffectUpdateDecorator@@@@@8
data$rs	SEGMENT
??_R0?AV?$CDynamicPoolEx@VCRotationDecorator@NEffectUpdateDecorator@@@@@8 DD FLAT:??_7type_info@@6B@ ; CDynamicPoolEx<NEffectUpdateDecorator::CRotationDecorator> `RTTI Type Descriptor'
	DD	00H
	DB	'.?AV?$CDynamicPoolEx@VCRotationDecorator@NEffectUpdateDe'
	DB	'corator@@@@', 00H
data$rs	ENDS
;	COMDAT ??_R4?$CDynamicPoolEx@VCRotationDecorator@NEffectUpdateDecorator@@@@6B@
rdata$r	SEGMENT
??_R4?$CDynamicPoolEx@VCRotationDecorator@NEffectUpdateDecorator@@@@6B@ DD 00H ; CDynamicPoolEx<NEffectUpdateDecorator::CRotationDecorator>::`RTTI Complete Object Locator'
	DD	00H
	DD	00H
	DD	FLAT:??_R0?AV?$CDynamicPoolEx@VCRotationDecorator@NEffectUpdateDecorator@@@@@8
	DD	FLAT:??_R3?$CDynamicPoolEx@VCRotationDecorator@NEffectUpdateDecorator@@@@8
rdata$r	ENDS
;	COMDAT ??_R1A@?0A@EA@?$CDynamicPoolEx@VCGravityDecorator@NEffectUpdateDecorator@@@@8
rdata$r	SEGMENT
??_R1A@?0A@EA@?$CDynamicPoolEx@VCGravityDecorator@NEffectUpdateDecorator@@@@8 DD FLAT:??_R0?AV?$CDynamicPoolEx@VCGravityDecorator@NEffectUpdateDecorator@@@@@8 ; CDynamicPoolEx<NEffectUpdateDecorator::CGravityDecorator>::`RTTI Base Class Descriptor at (0,-1,0,64)'
	DD	00H
	DD	00H
	DD	0ffffffffH
	DD	00H
	DD	040H
	DD	FLAT:??_R3?$CDynamicPoolEx@VCGravityDecorator@NEffectUpdateDecorator@@@@8
rdata$r	ENDS
;	COMDAT ??_R2?$CDynamicPoolEx@VCGravityDecorator@NEffectUpdateDecorator@@@@8
rdata$r	SEGMENT
??_R2?$CDynamicPoolEx@VCGravityDecorator@NEffectUpdateDecorator@@@@8 DD FLAT:??_R1A@?0A@EA@?$CDynamicPoolEx@VCGravityDecorator@NEffectUpdateDecorator@@@@8 ; CDynamicPoolEx<NEffectUpdateDecorator::CGravityDecorator>::`RTTI Base Class Array'
rdata$r	ENDS
;	COMDAT ??_R3?$CDynamicPoolEx@VCGravityDecorator@NEffectUpdateDecorator@@@@8
rdata$r	SEGMENT
??_R3?$CDynamicPoolEx@VCGravityDecorator@NEffectUpdateDecorator@@@@8 DD 00H ; CDynamicPoolEx<NEffectUpdateDecorator::CGravityDecorator>::`RTTI Class Hierarchy Descriptor'
	DD	00H
	DD	01H
	DD	FLAT:??_R2?$CDynamicPoolEx@VCGravityDecorator@NEffectUpdateDecorator@@@@8
rdata$r	ENDS
;	COMDAT ??_R0?AV?$CDynamicPoolEx@VCGravityDecorator@NEffectUpdateDecorator@@@@@8
data$rs	SEGMENT
??_R0?AV?$CDynamicPoolEx@VCGravityDecorator@NEffectUpdateDecorator@@@@@8 DD FLAT:??_7type_info@@6B@ ; CDynamicPoolEx<NEffectUpdateDecorator::CGravityDecorator> `RTTI Type Descriptor'
	DD	00H
	DB	'.?AV?$CDynamicPoolEx@VCGravityDecorator@NEffectUpdateDec'
	DB	'orator@@@@', 00H
data$rs	ENDS
;	COMDAT ??_R4?$CDynamicPoolEx@VCGravityDecorator@NEffectUpdateDecorator@@@@6B@
rdata$r	SEGMENT
??_R4?$CDynamicPoolEx@VCGravityDecorator@NEffectUpdateDecorator@@@@6B@ DD 00H ; CDynamicPoolEx<NEffectUpdateDecorator::CGravityDecorator>::`RTTI Complete Object Locator'
	DD	00H
	DD	00H
	DD	FLAT:??_R0?AV?$CDynamicPoolEx@VCGravityDecorator@NEffectUpdateDecorator@@@@@8
	DD	FLAT:??_R3?$CDynamicPoolEx@VCGravityDecorator@NEffectUpdateDecorator@@@@8
rdata$r	ENDS
;	COMDAT ??_R1A@?0A@EA@?$CDynamicPoolEx@VCAirResistanceDecorator@NEffectUpdateDecorator@@@@8
rdata$r	SEGMENT
??_R1A@?0A@EA@?$CDynamicPoolEx@VCAirResistanceDecorator@NEffectUpdateDecorator@@@@8 DD FLAT:??_R0?AV?$CDynamicPoolEx@VCAirResistanceDecorator@NEffectUpdateDecorator@@@@@8 ; CDynamicPoolEx<NEffectUpdateDecorator::CAirResistanceDecorator>::`RTTI Base Class Descriptor at (0,-1,0,64)'
	DD	00H
	DD	00H
	DD	0ffffffffH
	DD	00H
	DD	040H
	DD	FLAT:??_R3?$CDynamicPoolEx@VCAirResistanceDecorator@NEffectUpdateDecorator@@@@8
rdata$r	ENDS
;	COMDAT ??_R2?$CDynamicPoolEx@VCAirResistanceDecorator@NEffectUpdateDecorator@@@@8
rdata$r	SEGMENT
??_R2?$CDynamicPoolEx@VCAirResistanceDecorator@NEffectUpdateDecorator@@@@8 DD FLAT:??_R1A@?0A@EA@?$CDynamicPoolEx@VCAirResistanceDecorator@NEffectUpdateDecorator@@@@8 ; CDynamicPoolEx<NEffectUpdateDecorator::CAirResistanceDecorator>::`RTTI Base Class Array'
rdata$r	ENDS
;	COMDAT ??_R3?$CDynamicPoolEx@VCAirResistanceDecorator@NEffectUpdateDecorator@@@@8
rdata$r	SEGMENT
??_R3?$CDynamicPoolEx@VCAirResistanceDecorator@NEffectUpdateDecorator@@@@8 DD 00H ; CDynamicPoolEx<NEffectUpdateDecorator::CAirResistanceDecorator>::`RTTI Class Hierarchy Descriptor'
	DD	00H
	DD	01H
	DD	FLAT:??_R2?$CDynamicPoolEx@VCAirResistanceDecorator@NEffectUpdateDecorator@@@@8
rdata$r	ENDS
;	COMDAT ??_R0?AV?$CDynamicPoolEx@VCAirResistanceDecorator@NEffectUpdateDecorator@@@@@8
data$rs	SEGMENT
??_R0?AV?$CDynamicPoolEx@VCAirResistanceDecorator@NEffectUpdateDecorator@@@@@8 DD FLAT:??_7type_info@@6B@ ; CDynamicPoolEx<NEffectUpdateDecorator::CAirResistanceDecorator> `RTTI Type Descriptor'
	DD	00H
	DB	'.?AV?$CDynamicPoolEx@VCAirResistanceDecorator@NEffectUpd'
	DB	'ateDecorator@@@@', 00H
data$rs	ENDS
;	COMDAT ??_R4?$CDynamicPoolEx@VCAirResistanceDecorator@NEffectUpdateDecorator@@@@6B@
rdata$r	SEGMENT
??_R4?$CDynamicPoolEx@VCAirResistanceDecorator@NEffectUpdateDecorator@@@@6B@ DD 00H ; CDynamicPoolEx<NEffectUpdateDecorator::CAirResistanceDecorator>::`RTTI Complete Object Locator'
	DD	00H
	DD	00H
	DD	FLAT:??_R0?AV?$CDynamicPoolEx@VCAirResistanceDecorator@NEffectUpdateDecorator@@@@@8
	DD	FLAT:??_R3?$CDynamicPoolEx@VCAirResistanceDecorator@NEffectUpdateDecorator@@@@8
rdata$r	ENDS
;	COMDAT ??_R1A@?0A@EA@?$CDynamicPoolEx@VCTextureAnimationRandomDecorator@NEffectUpdateDecorator@@@@8
rdata$r	SEGMENT
??_R1A@?0A@EA@?$CDynamicPoolEx@VCTextureAnimationRandomDecorator@NEffectUpdateDecorator@@@@8 DD FLAT:??_R0?AV?$CDynamicPoolEx@VCTextureAnimationRandomDecorator@NEffectUpdateDecorator@@@@@8 ; CDynamicPoolEx<NEffectUpdateDecorator::CTextureAnimationRandomDecorator>::`RTTI Base Class Descriptor at (0,-1,0,64)'
	DD	00H
	DD	00H
	DD	0ffffffffH
	DD	00H
	DD	040H
	DD	FLAT:??_R3?$CDynamicPoolEx@VCTextureAnimationRandomDecorator@NEffectUpdateDecorator@@@@8
rdata$r	ENDS
;	COMDAT ??_R2?$CDynamicPoolEx@VCTextureAnimationRandomDecorator@NEffectUpdateDecorator@@@@8
rdata$r	SEGMENT
??_R2?$CDynamicPoolEx@VCTextureAnimationRandomDecorator@NEffectUpdateDecorator@@@@8 DD FLAT:??_R1A@?0A@EA@?$CDynamicPoolEx@VCTextureAnimationRandomDecorator@NEffectUpdateDecorator@@@@8 ; CDynamicPoolEx<NEffectUpdateDecorator::CTextureAnimationRandomDecorator>::`RTTI Base Class Array'
rdata$r	ENDS
;	COMDAT ??_R3?$CDynamicPoolEx@VCTextureAnimationRandomDecorator@NEffectUpdateDecorator@@@@8
rdata$r	SEGMENT
??_R3?$CDynamicPoolEx@VCTextureAnimationRandomDecorator@NEffectUpdateDecorator@@@@8 DD 00H ; CDynamicPoolEx<NEffectUpdateDecorator::CTextureAnimationRandomDecorator>::`RTTI Class Hierarchy Descriptor'
	DD	00H
	DD	01H
	DD	FLAT:??_R2?$CDynamicPoolEx@VCTextureAnimationRandomDecorator@NEffectUpdateDecorator@@@@8
rdata$r	ENDS
;	COMDAT ??_R0?AV?$CDynamicPoolEx@VCTextureAnimationRandomDecorator@NEffectUpdateDecorator@@@@@8
data$rs	SEGMENT
??_R0?AV?$CDynamicPoolEx@VCTextureAnimationRandomDecorator@NEffectUpdateDecorator@@@@@8 DD FLAT:??_7type_info@@6B@ ; CDynamicPoolEx<NEffectUpdateDecorator::CTextureAnimationRandomDecorator> `RTTI Type Descriptor'
	DD	00H
	DB	'.?AV?$CDynamicPoolEx@VCTextureAnimationRandomDecorator@N'
	DB	'EffectUpdateDecorator@@@@', 00H
data$rs	ENDS
;	COMDAT ??_R4?$CDynamicPoolEx@VCTextureAnimationRandomDecorator@NEffectUpdateDecorator@@@@6B@
rdata$r	SEGMENT
??_R4?$CDynamicPoolEx@VCTextureAnimationRandomDecorator@NEffectUpdateDecorator@@@@6B@ DD 00H ; CDynamicPoolEx<NEffectUpdateDecorator::CTextureAnimationRandomDecorator>::`RTTI Complete Object Locator'
	DD	00H
	DD	00H
	DD	FLAT:??_R0?AV?$CDynamicPoolEx@VCTextureAnimationRandomDecorator@NEffectUpdateDecorator@@@@@8
	DD	FLAT:??_R3?$CDynamicPoolEx@VCTextureAnimationRandomDecorator@NEffectUpdateDecorator@@@@8
rdata$r	ENDS
;	COMDAT ??_R1A@?0A@EA@?$CDynamicPoolEx@VCTextureAnimationCCWDecorator@NEffectUpdateDecorator@@@@8
rdata$r	SEGMENT
??_R1A@?0A@EA@?$CDynamicPoolEx@VCTextureAnimationCCWDecorator@NEffectUpdateDecorator@@@@8 DD FLAT:??_R0?AV?$CDynamicPoolEx@VCTextureAnimationCCWDecorator@NEffectUpdateDecorator@@@@@8 ; CDynamicPoolEx<NEffectUpdateDecorator::CTextureAnimationCCWDecorator>::`RTTI Base Class Descriptor at (0,-1,0,64)'
	DD	00H
	DD	00H
	DD	0ffffffffH
	DD	00H
	DD	040H
	DD	FLAT:??_R3?$CDynamicPoolEx@VCTextureAnimationCCWDecorator@NEffectUpdateDecorator@@@@8
rdata$r	ENDS
;	COMDAT ??_R2?$CDynamicPoolEx@VCTextureAnimationCCWDecorator@NEffectUpdateDecorator@@@@8
rdata$r	SEGMENT
??_R2?$CDynamicPoolEx@VCTextureAnimationCCWDecorator@NEffectUpdateDecorator@@@@8 DD FLAT:??_R1A@?0A@EA@?$CDynamicPoolEx@VCTextureAnimationCCWDecorator@NEffectUpdateDecorator@@@@8 ; CDynamicPoolEx<NEffectUpdateDecorator::CTextureAnimationCCWDecorator>::`RTTI Base Class Array'
rdata$r	ENDS
;	COMDAT ??_R3?$CDynamicPoolEx@VCTextureAnimationCCWDecorator@NEffectUpdateDecorator@@@@8
rdata$r	SEGMENT
??_R3?$CDynamicPoolEx@VCTextureAnimationCCWDecorator@NEffectUpdateDecorator@@@@8 DD 00H ; CDynamicPoolEx<NEffectUpdateDecorator::CTextureAnimationCCWDecorator>::`RTTI Class Hierarchy Descriptor'
	DD	00H
	DD	01H
	DD	FLAT:??_R2?$CDynamicPoolEx@VCTextureAnimationCCWDecorator@NEffectUpdateDecorator@@@@8
rdata$r	ENDS
;	COMDAT ??_R0?AV?$CDynamicPoolEx@VCTextureAnimationCCWDecorator@NEffectUpdateDecorator@@@@@8
data$rs	SEGMENT
??_R0?AV?$CDynamicPoolEx@VCTextureAnimationCCWDecorator@NEffectUpdateDecorator@@@@@8 DD FLAT:??_7type_info@@6B@ ; CDynamicPoolEx<NEffectUpdateDecorator::CTextureAnimationCCWDecorator> `RTTI Type Descriptor'
	DD	00H
	DB	'.?AV?$CDynamicPoolEx@VCTextureAnimationCCWDecorator@NEff'
	DB	'ectUpdateDecorator@@@@', 00H
data$rs	ENDS
;	COMDAT ??_R4?$CDynamicPoolEx@VCTextureAnimationCCWDecorator@NEffectUpdateDecorator@@@@6B@
rdata$r	SEGMENT
??_R4?$CDynamicPoolEx@VCTextureAnimationCCWDecorator@NEffectUpdateDecorator@@@@6B@ DD 00H ; CDynamicPoolEx<NEffectUpdateDecorator::CTextureAnimationCCWDecorator>::`RTTI Complete Object Locator'
	DD	00H
	DD	00H
	DD	FLAT:??_R0?AV?$CDynamicPoolEx@VCTextureAnimationCCWDecorator@NEffectUpdateDecorator@@@@@8
	DD	FLAT:??_R3?$CDynamicPoolEx@VCTextureAnimationCCWDecorator@NEffectUpdateDecorator@@@@8
rdata$r	ENDS
;	COMDAT ??_R1A@?0A@EA@?$CDynamicPoolEx@VCTextureAnimationCWDecorator@NEffectUpdateDecorator@@@@8
rdata$r	SEGMENT
??_R1A@?0A@EA@?$CDynamicPoolEx@VCTextureAnimationCWDecorator@NEffectUpdateDecorator@@@@8 DD FLAT:??_R0?AV?$CDynamicPoolEx@VCTextureAnimationCWDecorator@NEffectUpdateDecorator@@@@@8 ; CDynamicPoolEx<NEffectUpdateDecorator::CTextureAnimationCWDecorator>::`RTTI Base Class Descriptor at (0,-1,0,64)'
	DD	00H
	DD	00H
	DD	0ffffffffH
	DD	00H
	DD	040H
	DD	FLAT:??_R3?$CDynamicPoolEx@VCTextureAnimationCWDecorator@NEffectUpdateDecorator@@@@8
rdata$r	ENDS
;	COMDAT ??_R2?$CDynamicPoolEx@VCTextureAnimationCWDecorator@NEffectUpdateDecorator@@@@8
rdata$r	SEGMENT
??_R2?$CDynamicPoolEx@VCTextureAnimationCWDecorator@NEffectUpdateDecorator@@@@8 DD FLAT:??_R1A@?0A@EA@?$CDynamicPoolEx@VCTextureAnimationCWDecorator@NEffectUpdateDecorator@@@@8 ; CDynamicPoolEx<NEffectUpdateDecorator::CTextureAnimationCWDecorator>::`RTTI Base Class Array'
rdata$r	ENDS
;	COMDAT ??_R3?$CDynamicPoolEx@VCTextureAnimationCWDecorator@NEffectUpdateDecorator@@@@8
rdata$r	SEGMENT
??_R3?$CDynamicPoolEx@VCTextureAnimationCWDecorator@NEffectUpdateDecorator@@@@8 DD 00H ; CDynamicPoolEx<NEffectUpdateDecorator::CTextureAnimationCWDecorator>::`RTTI Class Hierarchy Descriptor'
	DD	00H
	DD	01H
	DD	FLAT:??_R2?$CDynamicPoolEx@VCTextureAnimationCWDecorator@NEffectUpdateDecorator@@@@8
rdata$r	ENDS
;	COMDAT ??_R0?AV?$CDynamicPoolEx@VCTextureAnimationCWDecorator@NEffectUpdateDecorator@@@@@8
data$rs	SEGMENT
??_R0?AV?$CDynamicPoolEx@VCTextureAnimationCWDecorator@NEffectUpdateDecorator@@@@@8 DD FLAT:??_7type_info@@6B@ ; CDynamicPoolEx<NEffectUpdateDecorator::CTextureAnimationCWDecorator> `RTTI Type Descriptor'
	DD	00H
	DB	'.?AV?$CDynamicPoolEx@VCTextureAnimationCWDecorator@NEffe'
	DB	'ctUpdateDecorator@@@@', 00H
data$rs	ENDS
;	COMDAT ??_R4?$CDynamicPoolEx@VCTextureAnimationCWDecorator@NEffectUpdateDecorator@@@@6B@
rdata$r	SEGMENT
??_R4?$CDynamicPoolEx@VCTextureAnimationCWDecorator@NEffectUpdateDecorator@@@@6B@ DD 00H ; CDynamicPoolEx<NEffectUpdateDecorator::CTextureAnimationCWDecorator>::`RTTI Complete Object Locator'
	DD	00H
	DD	00H
	DD	FLAT:??_R0?AV?$CDynamicPoolEx@VCTextureAnimationCWDecorator@NEffectUpdateDecorator@@@@@8
	DD	FLAT:??_R3?$CDynamicPoolEx@VCTextureAnimationCWDecorator@NEffectUpdateDecorator@@@@8
rdata$r	ENDS
;	COMDAT ??_7?$CDynamicPoolEx@VCNullDecorator@NEffectUpdateDecorator@@@@6B@
CONST	SEGMENT
??_7?$CDynamicPoolEx@VCNullDecorator@NEffectUpdateDecorator@@@@6B@ DD FLAT:??_R4?$CDynamicPoolEx@VCNullDecorator@NEffectUpdateDecorator@@@@6B@ ; CDynamicPoolEx<NEffectUpdateDecorator::CNullDecorator>::`vftable'
	DD	FLAT:??_E?$CDynamicPoolEx@VCNullDecorator@NEffectUpdateDecorator@@@@UAEPAXI@Z
CONST	ENDS
;	COMDAT ??_R1A@?0A@EA@?$CDynamicPoolEx@VCNullDecorator@NEffectUpdateDecorator@@@@8
rdata$r	SEGMENT
??_R1A@?0A@EA@?$CDynamicPoolEx@VCNullDecorator@NEffectUpdateDecorator@@@@8 DD FLAT:??_R0?AV?$CDynamicPoolEx@VCNullDecorator@NEffectUpdateDecorator@@@@@8 ; CDynamicPoolEx<NEffectUpdateDecorator::CNullDecorator>::`RTTI Base Class Descriptor at (0,-1,0,64)'
	DD	00H
	DD	00H
	DD	0ffffffffH
	DD	00H
	DD	040H
	DD	FLAT:??_R3?$CDynamicPoolEx@VCNullDecorator@NEffectUpdateDecorator@@@@8
rdata$r	ENDS
;	COMDAT ??_R2?$CDynamicPoolEx@VCNullDecorator@NEffectUpdateDecorator@@@@8
rdata$r	SEGMENT
??_R2?$CDynamicPoolEx@VCNullDecorator@NEffectUpdateDecorator@@@@8 DD FLAT:??_R1A@?0A@EA@?$CDynamicPoolEx@VCNullDecorator@NEffectUpdateDecorator@@@@8 ; CDynamicPoolEx<NEffectUpdateDecorator::CNullDecorator>::`RTTI Base Class Array'
rdata$r	ENDS
;	COMDAT ??_R3?$CDynamicPoolEx@VCNullDecorator@NEffectUpdateDecorator@@@@8
rdata$r	SEGMENT
??_R3?$CDynamicPoolEx@VCNullDecorator@NEffectUpdateDecorator@@@@8 DD 00H ; CDynamicPoolEx<NEffectUpdateDecorator::CNullDecorator>::`RTTI Class Hierarchy Descriptor'
	DD	00H
	DD	01H
	DD	FLAT:??_R2?$CDynamicPoolEx@VCNullDecorator@NEffectUpdateDecorator@@@@8
rdata$r	ENDS
;	COMDAT ??_R0?AV?$CDynamicPoolEx@VCNullDecorator@NEffectUpdateDecorator@@@@@8
data$rs	SEGMENT
??_R0?AV?$CDynamicPoolEx@VCNullDecorator@NEffectUpdateDecorator@@@@@8 DD FLAT:??_7type_info@@6B@ ; CDynamicPoolEx<NEffectUpdateDecorator::CNullDecorator> `RTTI Type Descriptor'
	DD	00H
	DB	'.?AV?$CDynamicPoolEx@VCNullDecorator@NEffectUpdateDecora'
	DB	'tor@@@@', 00H
data$rs	ENDS
;	COMDAT ??_R4?$CDynamicPoolEx@VCNullDecorator@NEffectUpdateDecorator@@@@6B@
rdata$r	SEGMENT
??_R4?$CDynamicPoolEx@VCNullDecorator@NEffectUpdateDecorator@@@@6B@ DD 00H ; CDynamicPoolEx<NEffectUpdateDecorator::CNullDecorator>::`RTTI Complete Object Locator'
	DD	00H
	DD	00H
	DD	FLAT:??_R0?AV?$CDynamicPoolEx@VCNullDecorator@NEffectUpdateDecorator@@@@@8
	DD	FLAT:??_R3?$CDynamicPoolEx@VCNullDecorator@NEffectUpdateDecorator@@@@8
rdata$r	ENDS
;	COMDAT ??_R1A@?0A@EA@?$CDynamicPoolEx@VCHeaderDecorator@NEffectUpdateDecorator@@@@8
rdata$r	SEGMENT
??_R1A@?0A@EA@?$CDynamicPoolEx@VCHeaderDecorator@NEffectUpdateDecorator@@@@8 DD FLAT:??_R0?AV?$CDynamicPoolEx@VCHeaderDecorator@NEffectUpdateDecorator@@@@@8 ; CDynamicPoolEx<NEffectUpdateDecorator::CHeaderDecorator>::`RTTI Base Class Descriptor at (0,-1,0,64)'
	DD	00H
	DD	00H
	DD	0ffffffffH
	DD	00H
	DD	040H
	DD	FLAT:??_R3?$CDynamicPoolEx@VCHeaderDecorator@NEffectUpdateDecorator@@@@8
rdata$r	ENDS
;	COMDAT ??_R2?$CDynamicPoolEx@VCHeaderDecorator@NEffectUpdateDecorator@@@@8
rdata$r	SEGMENT
??_R2?$CDynamicPoolEx@VCHeaderDecorator@NEffectUpdateDecorator@@@@8 DD FLAT:??_R1A@?0A@EA@?$CDynamicPoolEx@VCHeaderDecorator@NEffectUpdateDecorator@@@@8 ; CDynamicPoolEx<NEffectUpdateDecorator::CHeaderDecorator>::`RTTI Base Class Array'
rdata$r	ENDS
;	COMDAT ??_R3?$CDynamicPoolEx@VCHeaderDecorator@NEffectUpdateDecorator@@@@8
rdata$r	SEGMENT
??_R3?$CDynamicPoolEx@VCHeaderDecorator@NEffectUpdateDecorator@@@@8 DD 00H ; CDynamicPoolEx<NEffectUpdateDecorator::CHeaderDecorator>::`RTTI Class Hierarchy Descriptor'
	DD	00H
	DD	01H
	DD	FLAT:??_R2?$CDynamicPoolEx@VCHeaderDecorator@NEffectUpdateDecorator@@@@8
rdata$r	ENDS
;	COMDAT ??_R0?AV?$CDynamicPoolEx@VCHeaderDecorator@NEffectUpdateDecorator@@@@@8
data$rs	SEGMENT
??_R0?AV?$CDynamicPoolEx@VCHeaderDecorator@NEffectUpdateDecorator@@@@@8 DD FLAT:??_7type_info@@6B@ ; CDynamicPoolEx<NEffectUpdateDecorator::CHeaderDecorator> `RTTI Type Descriptor'
	DD	00H
	DB	'.?AV?$CDynamicPoolEx@VCHeaderDecorator@NEffectUpdateDeco'
	DB	'rator@@@@', 00H
data$rs	ENDS
;	COMDAT ??_R4?$CDynamicPoolEx@VCHeaderDecorator@NEffectUpdateDecorator@@@@6B@
rdata$r	SEGMENT
??_R4?$CDynamicPoolEx@VCHeaderDecorator@NEffectUpdateDecorator@@@@6B@ DD 00H ; CDynamicPoolEx<NEffectUpdateDecorator::CHeaderDecorator>::`RTTI Complete Object Locator'
	DD	00H
	DD	00H
	DD	FLAT:??_R0?AV?$CDynamicPoolEx@VCHeaderDecorator@NEffectUpdateDecorator@@@@@8
	DD	FLAT:??_R3?$CDynamicPoolEx@VCHeaderDecorator@NEffectUpdateDecorator@@@@8
rdata$r	ENDS
;	COMDAT ??_R1A@?0A@EA@?$CDynamicPool@USChatLine@CPythonChat@@@@8
rdata$r	SEGMENT
??_R1A@?0A@EA@?$CDynamicPool@USChatLine@CPythonChat@@@@8 DD FLAT:??_R0?AV?$CDynamicPool@USChatLine@CPythonChat@@@@@8 ; CDynamicPool<CPythonChat::SChatLine>::`RTTI Base Class Descriptor at (0,-1,0,64)'
	DD	00H
	DD	00H
	DD	0ffffffffH
	DD	00H
	DD	040H
	DD	FLAT:??_R3?$CDynamicPool@USChatLine@CPythonChat@@@@8
rdata$r	ENDS
;	COMDAT ??_R2?$CDynamicPool@USChatLine@CPythonChat@@@@8
rdata$r	SEGMENT
??_R2?$CDynamicPool@USChatLine@CPythonChat@@@@8 DD FLAT:??_R1A@?0A@EA@?$CDynamicPool@USChatLine@CPythonChat@@@@8 ; CDynamicPool<CPythonChat::SChatLine>::`RTTI Base Class Array'
rdata$r	ENDS
;	COMDAT ??_R3?$CDynamicPool@USChatLine@CPythonChat@@@@8
rdata$r	SEGMENT
??_R3?$CDynamicPool@USChatLine@CPythonChat@@@@8 DD 00H	; CDynamicPool<CPythonChat::SChatLine>::`RTTI Class Hierarchy Descriptor'
	DD	00H
	DD	01H
	DD	FLAT:??_R2?$CDynamicPool@USChatLine@CPythonChat@@@@8
rdata$r	ENDS
;	COMDAT ??_R0?AV?$CDynamicPool@USChatLine@CPythonChat@@@@@8
data$rs	SEGMENT
??_R0?AV?$CDynamicPool@USChatLine@CPythonChat@@@@@8 DD FLAT:??_7type_info@@6B@ ; CDynamicPool<CPythonChat::SChatLine> `RTTI Type Descriptor'
	DD	00H
	DB	'.?AV?$CDynamicPool@USChatLine@CPythonChat@@@@', 00H
data$rs	ENDS
;	COMDAT ??_R4?$CDynamicPool@USChatLine@CPythonChat@@@@6B@
rdata$r	SEGMENT
??_R4?$CDynamicPool@USChatLine@CPythonChat@@@@6B@ DD 00H ; CDynamicPool<CPythonChat::SChatLine>::`RTTI Complete Object Locator'
	DD	00H
	DD	00H
	DD	FLAT:??_R0?AV?$CDynamicPool@USChatLine@CPythonChat@@@@@8
	DD	FLAT:??_R3?$CDynamicPool@USChatLine@CPythonChat@@@@8
rdata$r	ENDS
;	COMDAT ??_R1A@?0A@EA@?$CDynamicPool@VCWhisper@@@@8
rdata$r	SEGMENT
??_R1A@?0A@EA@?$CDynamicPool@VCWhisper@@@@8 DD FLAT:??_R0?AV?$CDynamicPool@VCWhisper@@@@@8 ; CDynamicPool<CWhisper>::`RTTI Base Class Descriptor at (0,-1,0,64)'
	DD	00H
	DD	00H
	DD	0ffffffffH
	DD	00H
	DD	040H
	DD	FLAT:??_R3?$CDynamicPool@VCWhisper@@@@8
rdata$r	ENDS
;	COMDAT ??_R2?$CDynamicPool@VCWhisper@@@@8
rdata$r	SEGMENT
??_R2?$CDynamicPool@VCWhisper@@@@8 DD FLAT:??_R1A@?0A@EA@?$CDynamicPool@VCWhisper@@@@8 ; CDynamicPool<CWhisper>::`RTTI Base Class Array'
rdata$r	ENDS
;	COMDAT ??_R3?$CDynamicPool@VCWhisper@@@@8
rdata$r	SEGMENT
??_R3?$CDynamicPool@VCWhisper@@@@8 DD 00H		; CDynamicPool<CWhisper>::`RTTI Class Hierarchy Descriptor'
	DD	00H
	DD	01H
	DD	FLAT:??_R2?$CDynamicPool@VCWhisper@@@@8
rdata$r	ENDS
;	COMDAT ??_R0?AV?$CDynamicPool@VCWhisper@@@@@8
data$rs	SEGMENT
??_R0?AV?$CDynamicPool@VCWhisper@@@@@8 DD FLAT:??_7type_info@@6B@ ; CDynamicPool<CWhisper> `RTTI Type Descriptor'
	DD	00H
	DB	'.?AV?$CDynamicPool@VCWhisper@@@@', 00H
data$rs	ENDS
;	COMDAT ??_R4?$CDynamicPool@VCWhisper@@@@6B@
rdata$r	SEGMENT
??_R4?$CDynamicPool@VCWhisper@@@@6B@ DD 00H		; CDynamicPool<CWhisper>::`RTTI Complete Object Locator'
	DD	00H
	DD	00H
	DD	FLAT:??_R0?AV?$CDynamicPool@VCWhisper@@@@@8
	DD	FLAT:??_R3?$CDynamicPool@VCWhisper@@@@8
rdata$r	ENDS
;	COMDAT ??_R1A@?0A@EA@?$CDynamicPool@USChatLine@CWhisper@@@@8
rdata$r	SEGMENT
??_R1A@?0A@EA@?$CDynamicPool@USChatLine@CWhisper@@@@8 DD FLAT:??_R0?AV?$CDynamicPool@USChatLine@CWhisper@@@@@8 ; CDynamicPool<CWhisper::SChatLine>::`RTTI Base Class Descriptor at (0,-1,0,64)'
	DD	00H
	DD	00H
	DD	0ffffffffH
	DD	00H
	DD	040H
	DD	FLAT:??_R3?$CDynamicPool@USChatLine@CWhisper@@@@8
rdata$r	ENDS
;	COMDAT ??_R2?$CDynamicPool@USChatLine@CWhisper@@@@8
rdata$r	SEGMENT
??_R2?$CDynamicPool@USChatLine@CWhisper@@@@8 DD FLAT:??_R1A@?0A@EA@?$CDynamicPool@USChatLine@CWhisper@@@@8 ; CDynamicPool<CWhisper::SChatLine>::`RTTI Base Class Array'
rdata$r	ENDS
;	COMDAT ??_R3?$CDynamicPool@USChatLine@CWhisper@@@@8
rdata$r	SEGMENT
??_R3?$CDynamicPool@USChatLine@CWhisper@@@@8 DD 00H	; CDynamicPool<CWhisper::SChatLine>::`RTTI Class Hierarchy Descriptor'
	DD	00H
	DD	01H
	DD	FLAT:??_R2?$CDynamicPool@USChatLine@CWhisper@@@@8
rdata$r	ENDS
;	COMDAT ??_R0?AV?$CDynamicPool@USChatLine@CWhisper@@@@@8
data$rs	SEGMENT
??_R0?AV?$CDynamicPool@USChatLine@CWhisper@@@@@8 DD FLAT:??_7type_info@@6B@ ; CDynamicPool<CWhisper::SChatLine> `RTTI Type Descriptor'
	DD	00H
	DB	'.?AV?$CDynamicPool@USChatLine@CWhisper@@@@', 00H
data$rs	ENDS
;	COMDAT ??_R4?$CDynamicPool@USChatLine@CWhisper@@@@6B@
rdata$r	SEGMENT
??_R4?$CDynamicPool@USChatLine@CWhisper@@@@6B@ DD 00H	; CDynamicPool<CWhisper::SChatLine>::`RTTI Complete Object Locator'
	DD	00H
	DD	00H
	DD	FLAT:??_R0?AV?$CDynamicPool@USChatLine@CWhisper@@@@@8
	DD	FLAT:??_R3?$CDynamicPool@USChatLine@CWhisper@@@@8
rdata$r	ENDS
;	COMDAT ??_7?$CDynamicPool@USChatLine@CPythonChat@@@@6B@
CONST	SEGMENT
??_7?$CDynamicPool@USChatLine@CPythonChat@@@@6B@ DD FLAT:??_R4?$CDynamicPool@USChatLine@CPythonChat@@@@6B@ ; CDynamicPool<CPythonChat::SChatLine>::`vftable'
	DD	FLAT:??_E?$CDynamicPool@USChatLine@CPythonChat@@@@UAEPAXI@Z
CONST	ENDS
;	COMDAT ??_7?$CDynamicPoolEx@VCTextureAnimationCWDecorator@NEffectUpdateDecorator@@@@6B@
CONST	SEGMENT
??_7?$CDynamicPoolEx@VCTextureAnimationCWDecorator@NEffectUpdateDecorator@@@@6B@ DD FLAT:??_R4?$CDynamicPoolEx@VCTextureAnimationCWDecorator@NEffectUpdateDecorator@@@@6B@ ; CDynamicPoolEx<NEffectUpdateDecorator::CTextureAnimationCWDecorator>::`vftable'
	DD	FLAT:??_E?$CDynamicPoolEx@VCTextureAnimationCWDecorator@NEffectUpdateDecorator@@@@UAEPAXI@Z
CONST	ENDS
;	COMDAT ??_7?$CDynamicPoolEx@VCTextureAnimationCCWDecorator@NEffectUpdateDecorator@@@@6B@
CONST	SEGMENT
??_7?$CDynamicPoolEx@VCTextureAnimationCCWDecorator@NEffectUpdateDecorator@@@@6B@ DD FLAT:??_R4?$CDynamicPoolEx@VCTextureAnimationCCWDecorator@NEffectUpdateDecorator@@@@6B@ ; CDynamicPoolEx<NEffectUpdateDecorator::CTextureAnimationCCWDecorator>::`vftable'
	DD	FLAT:??_E?$CDynamicPoolEx@VCTextureAnimationCCWDecorator@NEffectUpdateDecorator@@@@UAEPAXI@Z
CONST	ENDS
;	COMDAT ??_7?$CDynamicPoolEx@VCTextureAnimationRandomDecorator@NEffectUpdateDecorator@@@@6B@
CONST	SEGMENT
??_7?$CDynamicPoolEx@VCTextureAnimationRandomDecorator@NEffectUpdateDecorator@@@@6B@ DD FLAT:??_R4?$CDynamicPoolEx@VCTextureAnimationRandomDecorator@NEffectUpdateDecorator@@@@6B@ ; CDynamicPoolEx<NEffectUpdateDecorator::CTextureAnimationRandomDecorator>::`vftable'
	DD	FLAT:??_E?$CDynamicPoolEx@VCTextureAnimationRandomDecorator@NEffectUpdateDecorator@@@@UAEPAXI@Z
CONST	ENDS
;	COMDAT ??_7?$CDynamicPoolEx@VCAirResistanceDecorator@NEffectUpdateDecorator@@@@6B@
CONST	SEGMENT
??_7?$CDynamicPoolEx@VCAirResistanceDecorator@NEffectUpdateDecorator@@@@6B@ DD FLAT:??_R4?$CDynamicPoolEx@VCAirResistanceDecorator@NEffectUpdateDecorator@@@@6B@ ; CDynamicPoolEx<NEffectUpdateDecorator::CAirResistanceDecorator>::`vftable'
	DD	FLAT:??_E?$CDynamicPoolEx@VCAirResistanceDecorator@NEffectUpdateDecorator@@@@UAEPAXI@Z
CONST	ENDS
;	COMDAT ??_7?$CDynamicPoolEx@VCGravityDecorator@NEffectUpdateDecorator@@@@6B@
CONST	SEGMENT
??_7?$CDynamicPoolEx@VCGravityDecorator@NEffectUpdateDecorator@@@@6B@ DD FLAT:??_R4?$CDynamicPoolEx@VCGravityDecorator@NEffectUpdateDecorator@@@@6B@ ; CDynamicPoolEx<NEffectUpdateDecorator::CGravityDecorator>::`vftable'
	DD	FLAT:??_E?$CDynamicPoolEx@VCGravityDecorator@NEffectUpdateDecorator@@@@UAEPAXI@Z
CONST	ENDS
;	COMDAT ??_7?$CDynamicPoolEx@VCRotationDecorator@NEffectUpdateDecorator@@@@6B@
CONST	SEGMENT
??_7?$CDynamicPoolEx@VCRotationDecorator@NEffectUpdateDecorator@@@@6B@ DD FLAT:??_R4?$CDynamicPoolEx@VCRotationDecorator@NEffectUpdateDecorator@@@@6B@ ; CDynamicPoolEx<NEffectUpdateDecorator::CRotationDecorator>::`vftable'
	DD	FLAT:??_E?$CDynamicPoolEx@VCRotationDecorator@NEffectUpdateDecorator@@@@UAEPAXI@Z
CONST	ENDS
PUBLIC	??_H@YGXPAXIIP6EPAX0@Z@Z			; `vector constructor iterator'
PUBLIC	?__empty_global_delete@@YAXPAX@Z		; __empty_global_delete
PUBLIC	?__empty_global_delete@@YAXPAXI@Z		; __empty_global_delete
PUBLIC	??0D3DXCOLOR@@QAE@XZ				; D3DXCOLOR::D3DXCOLOR
PUBLIC	??0exception@std@@QAE@ABV01@@Z			; std::exception::exception
PUBLIC	??1exception@std@@UAE@XZ			; std::exception::~exception
PUBLIC	?what@exception@std@@UBEPBDXZ			; std::exception::what
PUBLIC	??_Gexception@std@@UAEPAXI@Z			; std::exception::`scalar deleting destructor'
PUBLIC	??0bad_alloc@std@@QAE@ABV01@@Z			; std::bad_alloc::bad_alloc
PUBLIC	??_Gbad_alloc@std@@UAEPAXI@Z			; std::bad_alloc::`scalar deleting destructor'
PUBLIC	??0bad_array_new_length@std@@QAE@XZ		; std::bad_array_new_length::bad_array_new_length
PUBLIC	??1bad_array_new_length@std@@UAE@XZ		; std::bad_array_new_length::~bad_array_new_length
PUBLIC	??0bad_array_new_length@std@@QAE@ABV01@@Z	; std::bad_array_new_length::bad_array_new_length
PUBLIC	??_Gbad_array_new_length@std@@UAEPAXI@Z		; std::bad_array_new_length::`scalar deleting destructor'
PUBLIC	?_Throw_bad_array_new_length@std@@YAXXZ		; std::_Throw_bad_array_new_length
PUBLIC	?_Xlen_string@std@@YAXXZ			; std::_Xlen_string
PUBLIC	??0?$basic_string@DU?$char_traits@D@std@@V?$allocator@D@2@@std@@QAE@ABV01@@Z ; std::basic_string<char,std::char_traits<char>,std::allocator<char> >::basic_string<char,std::char_traits<char>,std::allocator<char> >
PUBLIC	??1?$basic_string@DU?$char_traits@D@std@@V?$allocator@D@2@@std@@QAE@XZ ; std::basic_string<char,std::char_traits<char>,std::allocator<char> >::~basic_string<char,std::char_traits<char>,std::allocator<char> >
PUBLIC	?assign@?$basic_string@DU?$char_traits@D@std@@V?$allocator@D@2@@std@@QAEAAV12@QBDI@Z ; std::basic_string<char,std::char_traits<char>,std::allocator<char> >::assign
PUBLIC	?_Throw_tree_length_error@std@@YAXXZ		; std::_Throw_tree_length_error
PUBLIC	??$_Destroy_in_place@PAD@std@@YAXAAPAD@Z	; std::_Destroy_in_place<char *>
PUBLIC	??$_Construct_in_place@PADABQAD@std@@YAXAAPADABQAD@Z ; std::_Construct_in_place<char *,char * const &>
PUBLIC	??$_Deallocate@$07$0A@@std@@YAXPAXI@Z		; std::_Deallocate<8,0>
PUBLIC	??$_Allocate@$07U_Default_allocate_traits@std@@$0A@@std@@YAPAXI@Z ; std::_Allocate<8,std::_Default_allocate_traits,0>
PUBLIC	??$_Allocate_manually_vector_aligned@U_Default_allocate_traits@std@@@std@@YAPAXI@Z ; std::_Allocate_manually_vector_aligned<std::_Default_allocate_traits>
PUBLIC	??1?$TAbstractSingleton@VIAbstractChat@@@@UAE@XZ ; TAbstractSingleton<IAbstractChat>::~TAbstractSingleton<IAbstractChat>
PUBLIC	??_G?$TAbstractSingleton@VIAbstractChat@@@@UAEPAXI@Z ; TAbstractSingleton<IAbstractChat>::`scalar deleting destructor'
PUBLIC	??1IAbstractChat@@UAE@XZ			; IAbstractChat::~IAbstractChat
PUBLIC	??_GIAbstractChat@@UAEPAXI@Z			; IAbstractChat::`scalar deleting destructor'
PUBLIC	?DestroySystem@SChatLine@CWhisper@@SAXXZ	; CWhisper::SChatLine::DestroySystem
PUBLIC	?New@SChatLine@CWhisper@@SAPAU12@XZ		; CWhisper::SChatLine::New
PUBLIC	?Delete@SChatLine@CWhisper@@SAXPAU12@@Z		; CWhisper::SChatLine::Delete
PUBLIC	??0CWhisper@@QAE@XZ				; CWhisper::CWhisper
PUBLIC	??1CWhisper@@QAE@XZ				; CWhisper::~CWhisper
PUBLIC	?Destroy@CWhisper@@QAEXXZ			; CWhisper::Destroy
PUBLIC	?SetPosition@CWhisper@@QAEXM@Z			; CWhisper::SetPosition
PUBLIC	?SetBoxSize@CWhisper@@QAEXMM@Z			; CWhisper::SetBoxSize
PUBLIC	?AppendChat@CWhisper@@QAEXHPBD@Z		; CWhisper::AppendChat
PUBLIC	?Render@CWhisper@@QAEXMM@Z			; CWhisper::Render
PUBLIC	?__Initialize@CWhisper@@IAEXXZ			; CWhisper::__Initialize
PUBLIC	?__ArrangeChat@CWhisper@@IAEXXZ			; CWhisper::__ArrangeChat
PUBLIC	??1?$deque@PAUSChatLine@CWhisper@@V?$allocator@PAUSChatLine@CWhisper@@@std@@@std@@QAE@XZ ; std::deque<CWhisper::SChatLine *,std::allocator<CWhisper::SChatLine *> >::~deque<CWhisper::SChatLine *,std::allocator<CWhisper::SChatLine *> >
PUBLIC	?_Xlen@?$deque@PAUSChatLine@CWhisper@@V?$allocator@PAUSChatLine@CWhisper@@@std@@@std@@ABEXXZ ; std::deque<CWhisper::SChatLine *,std::allocator<CWhisper::SChatLine *> >::_Xlen
PUBLIC	?_Tidy@?$deque@PAUSChatLine@CWhisper@@V?$allocator@PAUSChatLine@CWhisper@@@std@@@std@@AAEXXZ ; std::deque<CWhisper::SChatLine *,std::allocator<CWhisper::SChatLine *> >::_Tidy
PUBLIC	?DestroySystem@CWhisper@@SAXXZ			; CWhisper::DestroySystem
PUBLIC	?New@CWhisper@@SAPAV1@XZ			; CWhisper::New
PUBLIC	?Delete@CWhisper@@SAXPAV1@@Z			; CWhisper::Delete
PUBLIC	??1?$CSingleton@VCPythonChat@@@@UAE@XZ		; CSingleton<CPythonChat>::~CSingleton<CPythonChat>
PUBLIC	??_G?$CSingleton@VCPythonChat@@@@UAEPAXI@Z	; CSingleton<CPythonChat>::`scalar deleting destructor'
PUBLIC	??0SChatLine@CPythonChat@@QAE@XZ		; CPythonChat::SChatLine::SChatLine
PUBLIC	??1SChatLine@CPythonChat@@UAE@XZ		; CPythonChat::SChatLine::~SChatLine
PUBLIC	?SetColor@SChatLine@CPythonChat@@QAEXKK@Z	; CPythonChat::SChatLine::SetColor
PUBLIC	?SetColorAll@SChatLine@CPythonChat@@QAEXK@Z	; CPythonChat::SChatLine::SetColorAll
PUBLIC	?GetColorRef@SChatLine@CPythonChat@@QAEAAUD3DXCOLOR@@K@Z ; CPythonChat::SChatLine::GetColorRef
PUBLIC	?DestroySystem@SChatLine@CPythonChat@@SAXXZ	; CPythonChat::SChatLine::DestroySystem
PUBLIC	?New@SChatLine@CPythonChat@@SAPAU12@XZ		; CPythonChat::SChatLine::New
PUBLIC	?Delete@SChatLine@CPythonChat@@SAXPAU12@@Z	; CPythonChat::SChatLine::Delete
PUBLIC	??_GSChatLine@CPythonChat@@UAEPAXI@Z		; CPythonChat::SChatLine::`scalar deleting destructor'
PUBLIC	??1SWaitChat@CPythonChat@@QAE@XZ		; CPythonChat::SWaitChat::~SWaitChat
PUBLIC	??1?$vector@HV?$allocator@H@std@@@std@@QAE@XZ	; std::vector<int,std::allocator<int> >::~vector<int,std::allocator<int> >
PUBLIC	?_Xlength@?$vector@HV?$allocator@H@std@@@std@@CAXXZ ; std::vector<int,std::allocator<int> >::_Xlength
PUBLIC	??1?$list@PAUSChatLine@CPythonChat@@V?$allocator@PAUSChatLine@CPythonChat@@@std@@@std@@QAE@XZ ; std::list<CPythonChat::SChatLine *,std::allocator<CPythonChat::SChatLine *> >::~list<CPythonChat::SChatLine *,std::allocator<CPythonChat::SChatLine *> >
PUBLIC	?clear@?$list@PAUSChatLine@CPythonChat@@V?$allocator@PAUSChatLine@CPythonChat@@@std@@@std@@QAEXXZ ; std::list<CPythonChat::SChatLine *,std::allocator<CPythonChat::SChatLine *> >::clear
PUBLIC	??1SChatSet@CPythonChat@@QAE@XZ			; CPythonChat::SChatSet::~SChatSet
PUBLIC	??0SChatSet@CPythonChat@@QAE@$$QAU01@@Z		; CPythonChat::SChatSet::SChatSet
PUBLIC	??0CPythonChat@@QAE@XZ				; CPythonChat::CPythonChat
PUBLIC	??1CPythonChat@@UAE@XZ				; CPythonChat::~CPythonChat
PUBLIC	?SetChatColor@CPythonChat@@QAEXIIII@Z		; CPythonChat::SetChatColor
PUBLIC	?Destroy@CPythonChat@@QAEXXZ			; CPythonChat::Destroy
PUBLIC	?Close@CPythonChat@@QAEXXZ			; CPythonChat::Close
PUBLIC	?CreateChatSet@CPythonChat@@QAEHK@Z		; CPythonChat::CreateChatSet
PUBLIC	?Update@CPythonChat@@QAEXK@Z			; CPythonChat::Update
PUBLIC	?Render@CPythonChat@@QAEXK@Z			; CPythonChat::Render
PUBLIC	?SetBoardState@CPythonChat@@QAEXKH@Z		; CPythonChat::SetBoardState
PUBLIC	?SetPosition@CPythonChat@@QAEXKHH@Z		; CPythonChat::SetPosition
PUBLIC	?SetHeight@CPythonChat@@QAEXKH@Z		; CPythonChat::SetHeight
PUBLIC	?SetStep@CPythonChat@@QAEXKH@Z			; CPythonChat::SetStep
PUBLIC	?ToggleChatMode@CPythonChat@@QAEXKH@Z		; CPythonChat::ToggleChatMode
PUBLIC	?EnableChatMode@CPythonChat@@QAEXKH@Z		; CPythonChat::EnableChatMode
PUBLIC	?DisableChatMode@CPythonChat@@QAEXKH@Z		; CPythonChat::DisableChatMode
PUBLIC	?SetEndPos@CPythonChat@@QAEXKM@Z		; CPythonChat::SetEndPos
PUBLIC	?GetVisibleLineCount@CPythonChat@@QAEHK@Z	; CPythonChat::GetVisibleLineCount
PUBLIC	?GetEditableLineCount@CPythonChat@@QAEHK@Z	; CPythonChat::GetEditableLineCount
PUBLIC	?GetLineCount@CPythonChat@@QAEHK@Z		; CPythonChat::GetLineCount
PUBLIC	?GetLineStep@CPythonChat@@QAEHK@Z		; CPythonChat::GetLineStep
PUBLIC	?AppendChat@CPythonChat@@UAEXHPBD@Z		; CPythonChat::AppendChat
PUBLIC	?AppendChatWithDelay@CPythonChat@@QAEXHPBDH@Z	; CPythonChat::AppendChatWithDelay
PUBLIC	?ArrangeShowingChat@CPythonChat@@QAEXK@Z	; CPythonChat::ArrangeShowingChat
PUBLIC	?IgnoreCharacter@CPythonChat@@QAEXPBD@Z		; CPythonChat::IgnoreCharacter
PUBLIC	?IsIgnoreCharacter@CPythonChat@@QAEHPBD@Z	; CPythonChat::IsIgnoreCharacter
PUBLIC	?CreateWhisper@CPythonChat@@QAEPAVCWhisper@@PBD@Z ; CPythonChat::CreateWhisper
PUBLIC	?AppendWhisper@CPythonChat@@QAEXHPBD0@Z		; CPythonChat::AppendWhisper
PUBLIC	?ClearWhisper@CPythonChat@@QAEXPBD@Z		; CPythonChat::ClearWhisper
PUBLIC	?GetWhisper@CPythonChat@@QAEHPBDPAPAVCWhisper@@@Z ; CPythonChat::GetWhisper
PUBLIC	?InitWhisper@CPythonChat@@QAEXPAU_object@@@Z	; CPythonChat::InitWhisper
PUBLIC	?__Initialize@CPythonChat@@IAEXXZ		; CPythonChat::__Initialize
PUBLIC	?__DestroyWhisperMap@CPythonChat@@IAEXXZ	; CPythonChat::__DestroyWhisperMap
PUBLIC	?GetChatLineListPtr@CPythonChat@@IAEPAV?$list@PAUSChatLine@CPythonChat@@V?$allocator@PAUSChatLine@CPythonChat@@@std@@@std@@K@Z ; CPythonChat::GetChatLineListPtr
PUBLIC	?GetChatSetPtr@CPythonChat@@IAEPAUSChatSet@1@K@Z ; CPythonChat::GetChatSetPtr
PUBLIC	?UpdateViewMode@CPythonChat@@IAEXK@Z		; CPythonChat::UpdateViewMode
PUBLIC	?UpdateEditMode@CPythonChat@@IAEXK@Z		; CPythonChat::UpdateEditMode
PUBLIC	?UpdateLogMode@CPythonChat@@IAEXK@Z		; CPythonChat::UpdateLogMode
PUBLIC	?GetChatColor@CPythonChat@@IAEKH@Z		; CPythonChat::GetChatColor
PUBLIC	??1?$deque@PAUSChatLine@CPythonChat@@V?$allocator@PAUSChatLine@CPythonChat@@@std@@@std@@QAE@XZ ; std::deque<CPythonChat::SChatLine *,std::allocator<CPythonChat::SChatLine *> >::~deque<CPythonChat::SChatLine *,std::allocator<CPythonChat::SChatLine *> >
PUBLIC	?_Xlen@?$deque@PAUSChatLine@CPythonChat@@V?$allocator@PAUSChatLine@CPythonChat@@@std@@@std@@ABEXXZ ; std::deque<CPythonChat::SChatLine *,std::allocator<CPythonChat::SChatLine *> >::_Xlen
PUBLIC	?_Tidy@?$deque@PAUSChatLine@CPythonChat@@V?$allocator@PAUSChatLine@CPythonChat@@@std@@@std@@AAEXXZ ; std::deque<CPythonChat::SChatLine *,std::allocator<CPythonChat::SChatLine *> >::_Tidy
PUBLIC	?_Insert_node@?$_Tree_val@U?$_Tree_simple_types@U?$pair@$$CBHUSChatSet@CPythonChat@@@std@@@std@@@std@@QAEPAU?$_Tree_node@U?$pair@$$CBHUSChatSet@CPythonChat@@@std@@PAX@2@U?$_Tree_id@PAU?$_Tree_node@U?$pair@$$CBHUSChatSet@CPythonChat@@@std@@PAX@std@@@2@QAU32@@Z ; std::_Tree_val<std::_Tree_simple_types<std::pair<int const ,CPythonChat::SChatSet> > >::_Insert_node
PUBLIC	??1?$map@HUSChatSet@CPythonChat@@U?$less@H@std@@V?$allocator@U?$pair@$$CBHUSChatSet@CPythonChat@@@std@@@4@@std@@QAE@XZ ; std::map<int,CPythonChat::SChatSet,std::less<int>,std::allocator<std::pair<int const ,CPythonChat::SChatSet> > >::~map<int,CPythonChat::SChatSet,std::less<int>,std::allocator<std::pair<int const ,CPythonChat::SChatSet> > >
PUBLIC	?_Lrotate@?$_Tree_val@U?$_Tree_simple_types@U?$pair@$$CBV?$basic_string@DU?$char_traits@D@std@@V?$allocator@D@2@@std@@PAVCWhisper@@@std@@@std@@@std@@QAEXPAU?$_Tree_node@U?$pair@$$CBV?$basic_string@DU?$char_traits@D@std@@V?$allocator@D@2@@std@@PAVCWhisper@@@std@@PAX@2@@Z ; std::_Tree_val<std::_Tree_simple_types<std::pair<std::basic_string<char,std::char_traits<char>,std::allocator<char> > const ,CWhisper *> > >::_Lrotate
PUBLIC	?_Rrotate@?$_Tree_val@U?$_Tree_simple_types@U?$pair@$$CBV?$basic_string@DU?$char_traits@D@std@@V?$allocator@D@2@@std@@PAVCWhisper@@@std@@@std@@@std@@QAEXPAU?$_Tree_node@U?$pair@$$CBV?$basic_string@DU?$char_traits@D@std@@V?$allocator@D@2@@std@@PAVCWhisper@@@std@@PAX@2@@Z ; std::_Tree_val<std::_Tree_simple_types<std::pair<std::basic_string<char,std::char_traits<char>,std::allocator<char> > const ,CWhisper *> > >::_Rrotate
PUBLIC	?_Extract@?$_Tree_val@U?$_Tree_simple_types@U?$pair@$$CBV?$basic_string@DU?$char_traits@D@std@@V?$allocator@D@2@@std@@PAVCWhisper@@@std@@@std@@@std@@QAEPAU?$_Tree_node@U?$pair@$$CBV?$basic_string@DU?$char_traits@D@std@@V?$allocator@D@2@@std@@PAVCWhisper@@@std@@PAX@2@V?$_Tree_unchecked_const_iterator@V?$_Tree_val@U?$_Tree_simple_types@U?$pair@$$CBV?$basic_string@DU?$char_traits@D@std@@V?$allocator@D@2@@std@@PAVCWhisper@@@std@@@std@@@std@@U_Iterator_base0@2@@2@@Z ; std::_Tree_val<std::_Tree_simple_types<std::pair<std::basic_string<char,std::char_traits<char>,std::allocator<char> > const ,CWhisper *> > >::_Extract
PUBLIC	?_Insert_node@?$_Tree_val@U?$_Tree_simple_types@U?$pair@$$CBV?$basic_string@DU?$char_traits@D@std@@V?$allocator@D@2@@std@@PAVCWhisper@@@std@@@std@@@std@@QAEPAU?$_Tree_node@U?$pair@$$CBV?$basic_string@DU?$char_traits@D@std@@V?$allocator@D@2@@std@@PAVCWhisper@@@std@@PAX@2@U?$_Tree_id@PAU?$_Tree_node@U?$pair@$$CBV?$basic_string@DU?$char_traits@D@std@@V?$allocator@D@2@@std@@PAVCWhisper@@@std@@PAX@std@@@2@QAU32@@Z ; std::_Tree_val<std::_Tree_simple_types<std::pair<std::basic_string<char,std::char_traits<char>,std::allocator<char> > const ,CWhisper *> > >::_Insert_node
PUBLIC	??1?$map@V?$basic_string@DU?$char_traits@D@std@@V?$allocator@D@2@@std@@PAVCWhisper@@U?$less@V?$basic_string@DU?$char_traits@D@std@@V?$allocator@D@2@@std@@@2@V?$allocator@U?$pair@$$CBV?$basic_string@DU?$char_traits@D@std@@V?$allocator@D@2@@std@@PAVCWhisper@@@std@@@2@@std@@QAE@XZ ; std::map<std::basic_string<char,std::char_traits<char>,std::allocator<char> >,CWhisper *,std::less<std::basic_string<char,std::char_traits<char>,std::allocator<char> > >,std::allocator<std::pair<std::basic_string<char,std::char_traits<char>,std::allocator<char> > const ,CWhisper *> > >::~map<std::basic_string<char,std::char_traits<char>,std::allocator<char> >,CWhisper *,std::less<std::basic_string<char,std::char_traits<char>,std::allocator<char> > >,std::allocator<std::pair<std::basic_string<char,std::char_traits<char>,std::allocator<char> > const ,CWhisper *> > >
PUBLIC	?_Lrotate@?$_Tree_val@U?$_Tree_simple_types@V?$basic_string@DU?$char_traits@D@std@@V?$allocator@D@2@@std@@@std@@@std@@QAEXPAU?$_Tree_node@V?$basic_string@DU?$char_traits@D@std@@V?$allocator@D@2@@std@@PAX@2@@Z ; std::_Tree_val<std::_Tree_simple_types<std::basic_string<char,std::char_traits<char>,std::allocator<char> > > >::_Lrotate
PUBLIC	?_Rrotate@?$_Tree_val@U?$_Tree_simple_types@V?$basic_string@DU?$char_traits@D@std@@V?$allocator@D@2@@std@@@std@@@std@@QAEXPAU?$_Tree_node@V?$basic_string@DU?$char_traits@D@std@@V?$allocator@D@2@@std@@PAX@2@@Z ; std::_Tree_val<std::_Tree_simple_types<std::basic_string<char,std::char_traits<char>,std::allocator<char> > > >::_Rrotate
PUBLIC	?_Extract@?$_Tree_val@U?$_Tree_simple_types@V?$basic_string@DU?$char_traits@D@std@@V?$allocator@D@2@@std@@@std@@@std@@QAEPAU?$_Tree_node@V?$basic_string@DU?$char_traits@D@std@@V?$allocator@D@2@@std@@PAX@2@V?$_Tree_unchecked_const_iterator@V?$_Tree_val@U?$_Tree_simple_types@V?$basic_string@DU?$char_traits@D@std@@V?$allocator@D@2@@std@@@std@@@std@@U_Iterator_base0@2@@2@@Z ; std::_Tree_val<std::_Tree_simple_types<std::basic_string<char,std::char_traits<char>,std::allocator<char> > > >::_Extract
PUBLIC	?_Insert_node@?$_Tree_val@U?$_Tree_simple_types@V?$basic_string@DU?$char_traits@D@std@@V?$allocator@D@2@@std@@@std@@@std@@QAEPAU?$_Tree_node@V?$basic_string@DU?$char_traits@D@std@@V?$allocator@D@2@@std@@PAX@2@U?$_Tree_id@PAU?$_Tree_node@V?$basic_string@DU?$char_traits@D@std@@V?$allocator@D@2@@std@@PAX@std@@@2@QAU32@@Z ; std::_Tree_val<std::_Tree_simple_types<std::basic_string<char,std::char_traits<char>,std::allocator<char> > > >::_Insert_node
PUBLIC	??1?$set@V?$basic_string@DU?$char_traits@D@std@@V?$allocator@D@2@@std@@U?$less@V?$basic_string@DU?$char_traits@D@std@@V?$allocator@D@2@@std@@@2@V?$allocator@V?$basic_string@DU?$char_traits@D@std@@V?$allocator@D@2@@std@@@2@@std@@QAE@XZ ; std::set<std::basic_string<char,std::char_traits<char>,std::allocator<char> >,std::less<std::basic_string<char,std::char_traits<char>,std::allocator<char> > >,std::allocator<std::basic_string<char,std::char_traits<char>,std::allocator<char> > > >::~set<std::basic_string<char,std::char_traits<char>,std::allocator<char> >,std::less<std::basic_string<char,std::char_traits<char>,std::allocator<char> > >,std::allocator<std::basic_string<char,std::char_traits<char>,std::allocator<char> > > >
PUBLIC	??1?$list@USWaitChat@CPythonChat@@V?$allocator@USWaitChat@CPythonChat@@@std@@@std@@QAE@XZ ; std::list<CPythonChat::SWaitChat,std::allocator<CPythonChat::SWaitChat> >::~list<CPythonChat::SWaitChat,std::allocator<CPythonChat::SWaitChat> >
PUBLIC	??_GCPythonChat@@UAEPAXI@Z			; CPythonChat::`scalar deleting destructor'
PUBLIC	??1?$CDynamicPool@USChatLine@CPythonChat@@@@UAE@XZ ; CDynamicPool<CPythonChat::SChatLine>::~CDynamicPool<CPythonChat::SChatLine>
PUBLIC	?Delete@?$CDynamicPool@USChatLine@CPythonChat@@@@KAXPAUSChatLine@CPythonChat@@@Z ; CDynamicPool<CPythonChat::SChatLine>::Delete
PUBLIC	?_Xlength@?$vector@PAUSChatLine@CPythonChat@@V?$allocator@PAUSChatLine@CPythonChat@@@std@@@std@@CAXXZ ; std::vector<CPythonChat::SChatLine *,std::allocator<CPythonChat::SChatLine *> >::_Xlength
PUBLIC	??1?$pair@KUSChatSet@CPythonChat@@@std@@QAE@XZ	; std::pair<unsigned long,CPythonChat::SChatSet>::~pair<unsigned long,CPythonChat::SChatSet>
PUBLIC	??E?$_Tree_unchecked_const_iterator@V?$_Tree_val@U?$_Tree_simple_types@V?$basic_string@DU?$char_traits@D@std@@V?$allocator@D@2@@std@@@std@@@std@@U_Iterator_base0@2@@std@@QAEAAV01@XZ ; std::_Tree_unchecked_const_iterator<std::_Tree_val<std::_Tree_simple_types<std::basic_string<char,std::char_traits<char>,std::allocator<char> > > >,std::_Iterator_base0>::operator++
PUBLIC	??1?$pair@$$CBV?$basic_string@DU?$char_traits@D@std@@V?$allocator@D@2@@std@@PAVCWhisper@@@std@@QAE@XZ ; std::pair<std::basic_string<char,std::char_traits<char>,std::allocator<char> > const ,CWhisper *>::~pair<std::basic_string<char,std::char_traits<char>,std::allocator<char> > const ,CWhisper *>
PUBLIC	??E?$_Tree_unchecked_const_iterator@V?$_Tree_val@U?$_Tree_simple_types@U?$pair@$$CBV?$basic_string@DU?$char_traits@D@std@@V?$allocator@D@2@@std@@PAVCWhisper@@@std@@@std@@@std@@U_Iterator_base0@2@@std@@QAEAAV01@XZ ; std::_Tree_unchecked_const_iterator<std::_Tree_val<std::_Tree_simple_types<std::pair<std::basic_string<char,std::char_traits<char>,std::allocator<char> > const ,CWhisper *> > >,std::_Iterator_base0>::operator++
PUBLIC	??1?$CDynamicPool@VCWhisper@@@@UAE@XZ		; CDynamicPool<CWhisper>::~CDynamicPool<CWhisper>
PUBLIC	?Delete@?$CDynamicPool@VCWhisper@@@@KAXPAVCWhisper@@@Z ; CDynamicPool<CWhisper>::Delete
PUBLIC	?_Xlength@?$vector@PAVCWhisper@@V?$allocator@PAVCWhisper@@@std@@@std@@CAXXZ ; std::vector<CWhisper *,std::allocator<CWhisper *> >::_Xlength
PUBLIC	??1?$CDynamicPool@USChatLine@CWhisper@@@@UAE@XZ	; CDynamicPool<CWhisper::SChatLine>::~CDynamicPool<CWhisper::SChatLine>
PUBLIC	?Delete@?$CDynamicPool@USChatLine@CWhisper@@@@KAXPAUSChatLine@CWhisper@@@Z ; CDynamicPool<CWhisper::SChatLine>::Delete
PUBLIC	?_Xlength@?$vector@PAUSChatLine@CWhisper@@V?$allocator@PAUSChatLine@CWhisper@@@std@@@std@@CAXXZ ; std::vector<CWhisper::SChatLine *,std::allocator<CWhisper::SChatLine *> >::_Xlength
PUBLIC	??1?$CDynamicPoolEx@VCRotationDecorator@NEffectUpdateDecorator@@@@UAE@XZ ; CDynamicPoolEx<NEffectUpdateDecorator::CRotationDecorator>::~CDynamicPoolEx<NEffectUpdateDecorator::CRotationDecorator>
PUBLIC	?Delete@?$CDynamicPoolEx@VCRotationDecorator@NEffectUpdateDecorator@@@@KAXPAVCRotationDecorator@NEffectUpdateDecorator@@@Z ; CDynamicPoolEx<NEffectUpdateDecorator::CRotationDecorator>::Delete
PUBLIC	??1?$CDynamicPoolEx@VCGravityDecorator@NEffectUpdateDecorator@@@@UAE@XZ ; CDynamicPoolEx<NEffectUpdateDecorator::CGravityDecorator>::~CDynamicPoolEx<NEffectUpdateDecorator::CGravityDecorator>
PUBLIC	?Delete@?$CDynamicPoolEx@VCGravityDecorator@NEffectUpdateDecorator@@@@KAXPAVCGravityDecorator@NEffectUpdateDecorator@@@Z ; CDynamicPoolEx<NEffectUpdateDecorator::CGravityDecorator>::Delete
PUBLIC	??1?$CDynamicPoolEx@VCAirResistanceDecorator@NEffectUpdateDecorator@@@@UAE@XZ ; CDynamicPoolEx<NEffectUpdateDecorator::CAirResistanceDecorator>::~CDynamicPoolEx<NEffectUpdateDecorator::CAirResistanceDecorator>
PUBLIC	?Delete@?$CDynamicPoolEx@VCAirResistanceDecorator@NEffectUpdateDecorator@@@@KAXPAVCAirResistanceDecorator@NEffectUpdateDecorator@@@Z ; CDynamicPoolEx<NEffectUpdateDecorator::CAirResistanceDecorator>::Delete
PUBLIC	??1?$CDynamicPoolEx@VCTextureAnimationRandomDecorator@NEffectUpdateDecorator@@@@UAE@XZ ; CDynamicPoolEx<NEffectUpdateDecorator::CTextureAnimationRandomDecorator>::~CDynamicPoolEx<NEffectUpdateDecorator::CTextureAnimationRandomDecorator>
PUBLIC	?Delete@?$CDynamicPoolEx@VCTextureAnimationRandomDecorator@NEffectUpdateDecorator@@@@KAXPAVCTextureAnimationRandomDecorator@NEffectUpdateDecorator@@@Z ; CDynamicPoolEx<NEffectUpdateDecorator::CTextureAnimationRandomDecorator>::Delete
PUBLIC	??1?$CDynamicPoolEx@VCTextureAnimationCCWDecorator@NEffectUpdateDecorator@@@@UAE@XZ ; CDynamicPoolEx<NEffectUpdateDecorator::CTextureAnimationCCWDecorator>::~CDynamicPoolEx<NEffectUpdateDecorator::CTextureAnimationCCWDecorator>
PUBLIC	?Delete@?$CDynamicPoolEx@VCTextureAnimationCCWDecorator@NEffectUpdateDecorator@@@@KAXPAVCTextureAnimationCCWDecorator@NEffectUpdateDecorator@@@Z ; CDynamicPoolEx<NEffectUpdateDecorator::CTextureAnimationCCWDecorator>::Delete
PUBLIC	??1?$CDynamicPoolEx@VCTextureAnimationCWDecorator@NEffectUpdateDecorator@@@@UAE@XZ ; CDynamicPoolEx<NEffectUpdateDecorator::CTextureAnimationCWDecorator>::~CDynamicPoolEx<NEffectUpdateDecorator::CTextureAnimationCWDecorator>
PUBLIC	?Delete@?$CDynamicPoolEx@VCTextureAnimationCWDecorator@NEffectUpdateDecorator@@@@KAXPAVCTextureAnimationCWDecorator@NEffectUpdateDecorator@@@Z ; CDynamicPoolEx<NEffectUpdateDecorator::CTextureAnimationCWDecorator>::Delete
PUBLIC	??1?$CDynamicPoolEx@VCNullDecorator@NEffectUpdateDecorator@@@@UAE@XZ ; CDynamicPoolEx<NEffectUpdateDecorator::CNullDecorator>::~CDynamicPoolEx<NEffectUpdateDecorator::CNullDecorator>
PUBLIC	?Delete@?$CDynamicPoolEx@VCNullDecorator@NEffectUpdateDecorator@@@@KAXPAVCNullDecorator@NEffectUpdateDecorator@@@Z ; CDynamicPoolEx<NEffectUpdateDecorator::CNullDecorator>::Delete
PUBLIC	??1?$CDynamicPoolEx@VCHeaderDecorator@NEffectUpdateDecorator@@@@UAE@XZ ; CDynamicPoolEx<NEffectUpdateDecorator::CHeaderDecorator>::~CDynamicPoolEx<NEffectUpdateDecorator::CHeaderDecorator>
PUBLIC	?Delete@?$CDynamicPoolEx@VCHeaderDecorator@NEffectUpdateDecorator@@@@KAXPAVCHeaderDecorator@NEffectUpdateDecorator@@@Z ; CDynamicPoolEx<NEffectUpdateDecorator::CHeaderDecorator>::Delete
PUBLIC	??$_Erase_tree@V?$allocator@U?$_Tree_node@U?$pair@$$CBV?$basic_string@DU?$char_traits@D@std@@V?$allocator@D@2@@std@@PAVCWhisper@@@std@@PAX@std@@@std@@@?$_Tree_val@U?$_Tree_simple_types@U?$pair@$$CBV?$basic_string@DU?$char_traits@D@std@@V?$allocator@D@2@@std@@PAVCWhisper@@@std@@@std@@@std@@QAEXAAV?$allocator@U?$_Tree_node@U?$pair@$$CBV?$basic_string@DU?$char_traits@D@std@@V?$allocator@D@2@@std@@PAVCWhisper@@@std@@PAX@std@@@1@PAU?$_Tree_node@U?$pair@$$CBV?$basic_string@DU?$char_traits@D@std@@V?$allocator@D@2@@std@@PAVCWhisper@@@std@@PAX@1@@Z ; std::_Tree_val<std::_Tree_simple_types<std::pair<std::basic_string<char,std::char_traits<char>,std::allocator<char> > const ,CWhisper *> > >::_Erase_tree<std::allocator<std::_Tree_node<std::pair<std::basic_string<char,std::char_traits<char>,std::allocator<char> > const ,CWhisper *>,void *> > >
PUBLIC	??$_Erase_tree@V?$allocator@U?$_Tree_node@U?$pair@$$CBHUSChatSet@CPythonChat@@@std@@PAX@std@@@std@@@?$_Tree_val@U?$_Tree_simple_types@U?$pair@$$CBHUSChatSet@CPythonChat@@@std@@@std@@@std@@QAEXAAV?$allocator@U?$_Tree_node@U?$pair@$$CBHUSChatSet@CPythonChat@@@std@@PAX@std@@@1@PAU?$_Tree_node@U?$pair@$$CBHUSChatSet@CPythonChat@@@std@@PAX@1@@Z ; std::_Tree_val<std::_Tree_simple_types<std::pair<int const ,CPythonChat::SChatSet> > >::_Erase_tree<std::allocator<std::_Tree_node<std::pair<int const ,CPythonChat::SChatSet>,void *> > >
PUBLIC	??$_Emplace_back_internal@ABQAUSChatLine@CPythonChat@@@?$deque@PAUSChatLine@CPythonChat@@V?$allocator@PAUSChatLine@CPythonChat@@@std@@@std@@AAEXABQAUSChatLine@CPythonChat@@@Z ; std::deque<CPythonChat::SChatLine *,std::allocator<CPythonChat::SChatLine *> >::_Emplace_back_internal<CPythonChat::SChatLine * const &>
PUBLIC	??$_Delete_plain_internal@V?$allocator@U_Container_proxy@std@@@std@@@std@@YAXAAV?$allocator@U_Container_proxy@std@@@0@QAU_Container_proxy@0@@Z ; std::_Delete_plain_internal<std::allocator<std::_Container_proxy> >
PUBLIC	??$_Emplace@ABQAUSChatLine@CPythonChat@@@?$list@PAUSChatLine@CPythonChat@@V?$allocator@PAUSChatLine@CPythonChat@@@std@@@std@@QAEPAU?$_List_node@PAUSChatLine@CPythonChat@@PAX@1@QAU21@ABQAUSChatLine@CPythonChat@@@Z ; std::list<CPythonChat::SChatLine *,std::allocator<CPythonChat::SChatLine *> >::_Emplace<CPythonChat::SChatLine * const &>
PUBLIC	??$_Emplace_back_internal@ABQAUSChatLine@CWhisper@@@?$deque@PAUSChatLine@CWhisper@@V?$allocator@PAUSChatLine@CWhisper@@@std@@@std@@AAEXABQAUSChatLine@CWhisper@@@Z ; std::deque<CWhisper::SChatLine *,std::allocator<CWhisper::SChatLine *> >::_Emplace_back_internal<CWhisper::SChatLine * const &>
PUBLIC	??$_Emplace_reallocate@ABQAUSChatLine@CWhisper@@@?$vector@PAUSChatLine@CWhisper@@V?$allocator@PAUSChatLine@CWhisper@@@std@@@std@@QAEPAPAUSChatLine@CWhisper@@QAPAU23@ABQAU23@@Z ; std::vector<CWhisper::SChatLine *,std::allocator<CWhisper::SChatLine *> >::_Emplace_reallocate<CWhisper::SChatLine * const &>
PUBLIC	??$_Emplace_reallocate@ABQAVCWhisper@@@?$vector@PAVCWhisper@@V?$allocator@PAVCWhisper@@@std@@@std@@QAEPAPAVCWhisper@@QAPAV2@ABQAV2@@Z ; std::vector<CWhisper *,std::allocator<CWhisper *> >::_Emplace_reallocate<CWhisper * const &>
PUBLIC	??$_Emplace_reallocate@ABQAUSChatLine@CPythonChat@@@?$vector@PAUSChatLine@CPythonChat@@V?$allocator@PAUSChatLine@CPythonChat@@@std@@@std@@QAEPAPAUSChatLine@CPythonChat@@QAPAU23@ABQAU23@@Z ; std::vector<CPythonChat::SChatLine *,std::allocator<CPythonChat::SChatLine *> >::_Emplace_reallocate<CPythonChat::SChatLine * const &>
PUBLIC	??$_Construct_in_place@PAU?$_List_node@USWaitChat@CPythonChat@@PAX@std@@AAPAU12@@std@@YAXAAPAU?$_List_node@USWaitChat@CPythonChat@@PAX@0@0@Z ; std::_Construct_in_place<std::_List_node<CPythonChat::SWaitChat,void *> *,std::_List_node<CPythonChat::SWaitChat,void *> * &>
PUBLIC	??$_Destroy_in_place@PAPAUSChatLine@CPythonChat@@@std@@YAXAAPAPAUSChatLine@CPythonChat@@@Z ; std::_Destroy_in_place<CPythonChat::SChatLine * *>
PUBLIC	??$_Construct_in_place@PAU?$_List_node@PAUSChatLine@CPythonChat@@PAX@std@@AAPAU12@@std@@YAXAAPAU?$_List_node@PAUSChatLine@CPythonChat@@PAX@0@0@Z ; std::_Construct_in_place<std::_List_node<CPythonChat::SChatLine *,void *> *,std::_List_node<CPythonChat::SChatLine *,void *> * &>
PUBLIC	??$_Destroy_range@V?$allocator@H@std@@@std@@YAXPAHQAHAAV?$allocator@H@0@@Z ; std::_Destroy_range<std::allocator<int> >
PUBLIC	??$_Construct_in_place@PAU?$_List_node@PAUSChatLine@CWhisper@@PAX@std@@AAPAU12@@std@@YAXAAPAU?$_List_node@PAUSChatLine@CWhisper@@PAX@0@0@Z ; std::_Construct_in_place<std::_List_node<CWhisper::SChatLine *,void *> *,std::_List_node<CWhisper::SChatLine *,void *> * &>
PUBLIC	??$_Destroy_in_place@PAPAUSChatLine@CWhisper@@@std@@YAXAAPAPAUSChatLine@CWhisper@@@Z ; std::_Destroy_in_place<CWhisper::SChatLine * *>
PUBLIC	??$_Destroy_range@V?$allocator@PAUSChatLine@CWhisper@@@std@@@std@@YAXPAPAUSChatLine@CWhisper@@QAPAU12@AAV?$allocator@PAUSChatLine@CWhisper@@@0@@Z ; std::_Destroy_range<std::allocator<CWhisper::SChatLine *> >
PUBLIC	??$_Destroy_range@V?$allocator@PAVCWhisper@@@std@@@std@@YAXPAPAVCWhisper@@QAPAV1@AAV?$allocator@PAVCWhisper@@@0@@Z ; std::_Destroy_range<std::allocator<CWhisper *> >
PUBLIC	??$_Destroy_range@V?$allocator@PAUSChatLine@CPythonChat@@@std@@@std@@YAXPAPAUSChatLine@CPythonChat@@QAPAU12@AAV?$allocator@PAUSChatLine@CPythonChat@@@0@@Z ; std::_Destroy_range<std::allocator<CPythonChat::SChatLine *> >
PUBLIC	??$_Destroy_range@V?$allocator@PAVCHeaderDecorator@NEffectUpdateDecorator@@@std@@@std@@YAXPAPAVCHeaderDecorator@NEffectUpdateDecorator@@QAPAV12@AAV?$allocator@PAVCHeaderDecorator@NEffectUpdateDecorator@@@0@@Z ; std::_Destroy_range<std::allocator<NEffectUpdateDecorator::CHeaderDecorator *> >
PUBLIC	??$_Destroy_range@V?$allocator@PAVCNullDecorator@NEffectUpdateDecorator@@@std@@@std@@YAXPAPAVCNullDecorator@NEffectUpdateDecorator@@QAPAV12@AAV?$allocator@PAVCNullDecorator@NEffectUpdateDecorator@@@0@@Z ; std::_Destroy_range<std::allocator<NEffectUpdateDecorator::CNullDecorator *> >
PUBLIC	??$_Destroy_range@V?$allocator@PAVCTextureAnimationCWDecorator@NEffectUpdateDecorator@@@std@@@std@@YAXPAPAVCTextureAnimationCWDecorator@NEffectUpdateDecorator@@QAPAV12@AAV?$allocator@PAVCTextureAnimationCWDecorator@NEffectUpdateDecorator@@@0@@Z ; std::_Destroy_range<std::allocator<NEffectUpdateDecorator::CTextureAnimationCWDecorator *> >
PUBLIC	??$_Destroy_range@V?$allocator@PAVCTextureAnimationCCWDecorator@NEffectUpdateDecorator@@@std@@@std@@YAXPAPAVCTextureAnimationCCWDecorator@NEffectUpdateDecorator@@QAPAV12@AAV?$allocator@PAVCTextureAnimationCCWDecorator@NEffectUpdateDecorator@@@0@@Z ; std::_Destroy_range<std::allocator<NEffectUpdateDecorator::CTextureAnimationCCWDecorator *> >
PUBLIC	??$_Destroy_range@V?$allocator@PAVCTextureAnimationRandomDecorator@NEffectUpdateDecorator@@@std@@@std@@YAXPAPAVCTextureAnimationRandomDecorator@NEffectUpdateDecorator@@QAPAV12@AAV?$allocator@PAVCTextureAnimationRandomDecorator@NEffectUpdateDecorator@@@0@@Z ; std::_Destroy_range<std::allocator<NEffectUpdateDecorator::CTextureAnimationRandomDecorator *> >
PUBLIC	??$_Destroy_range@V?$allocator@PAVCAirResistanceDecorator@NEffectUpdateDecorator@@@std@@@std@@YAXPAPAVCAirResistanceDecorator@NEffectUpdateDecorator@@QAPAV12@AAV?$allocator@PAVCAirResistanceDecorator@NEffectUpdateDecorator@@@0@@Z ; std::_Destroy_range<std::allocator<NEffectUpdateDecorator::CAirResistanceDecorator *> >
PUBLIC	??$_Destroy_range@V?$allocator@PAVCGravityDecorator@NEffectUpdateDecorator@@@std@@@std@@YAXPAPAVCGravityDecorator@NEffectUpdateDecorator@@QAPAV12@AAV?$allocator@PAVCGravityDecorator@NEffectUpdateDecorator@@@0@@Z ; std::_Destroy_range<std::allocator<NEffectUpdateDecorator::CGravityDecorator *> >
PUBLIC	??$_Destroy_range@V?$allocator@PAVCRotationDecorator@NEffectUpdateDecorator@@@std@@@std@@YAXPAPAVCRotationDecorator@NEffectUpdateDecorator@@QAPAV12@AAV?$allocator@PAVCRotationDecorator@NEffectUpdateDecorator@@@0@@Z ; std::_Destroy_range<std::allocator<NEffectUpdateDecorator::CRotationDecorator *> >
PUBLIC	??1?$_Alloc_construct_ptr@V?$allocator@U?$_List_node@USWaitChat@CPythonChat@@PAX@std@@@std@@@std@@QAE@XZ ; std::_Alloc_construct_ptr<std::allocator<std::_List_node<CPythonChat::SWaitChat,void *> > >::~_Alloc_construct_ptr<std::allocator<std::_List_node<CPythonChat::SWaitChat,void *> > >
PUBLIC	??$_Find_lower_bound@V?$basic_string@DU?$char_traits@D@std@@V?$allocator@D@2@@std@@@?$_Tree@V?$_Tset_traits@V?$basic_string@DU?$char_traits@D@std@@V?$allocator@D@2@@std@@U?$less@V?$basic_string@DU?$char_traits@D@std@@V?$allocator@D@2@@std@@@2@V?$allocator@V?$basic_string@DU?$char_traits@D@std@@V?$allocator@D@2@@std@@@2@$0A@@std@@@std@@IBE?AU?$_Tree_find_result@PAU?$_Tree_node@V?$basic_string@DU?$char_traits@D@std@@V?$allocator@D@2@@std@@PAX@std@@@1@ABV?$basic_string@DU?$char_traits@D@std@@V?$allocator@D@2@@1@@Z ; std::_Tree<std::_Tset_traits<std::basic_string<char,std::char_traits<char>,std::allocator<char> >,std::less<std::basic_string<char,std::char_traits<char>,std::allocator<char> > >,std::allocator<std::basic_string<char,std::char_traits<char>,std::allocator<char> > >,0> >::_Find_lower_bound<std::basic_string<char,std::char_traits<char>,std::allocator<char> > >
PUBLIC	??$_Erase_tree@V?$allocator@U?$_Tree_node@V?$basic_string@DU?$char_traits@D@std@@V?$allocator@D@2@@std@@PAX@std@@@std@@@?$_Tree_val@U?$_Tree_simple_types@V?$basic_string@DU?$char_traits@D@std@@V?$allocator@D@2@@std@@@std@@@std@@QAEXAAV?$allocator@U?$_Tree_node@V?$basic_string@DU?$char_traits@D@std@@V?$allocator@D@2@@std@@PAX@std@@@1@PAU?$_Tree_node@V?$basic_string@DU?$char_traits@D@std@@V?$allocator@D@2@@std@@PAX@1@@Z ; std::_Tree_val<std::_Tree_simple_types<std::basic_string<char,std::char_traits<char>,std::allocator<char> > > >::_Erase_tree<std::allocator<std::_Tree_node<std::basic_string<char,std::char_traits<char>,std::allocator<char> >,void *> > >
PUBLIC	??$_Find_lower_bound@V?$basic_string@DU?$char_traits@D@std@@V?$allocator@D@2@@std@@@?$_Tree@V?$_Tmap_traits@V?$basic_string@DU?$char_traits@D@std@@V?$allocator@D@2@@std@@PAVCWhisper@@U?$less@V?$basic_string@DU?$char_traits@D@std@@V?$allocator@D@2@@std@@@2@V?$allocator@U?$pair@$$CBV?$basic_string@DU?$char_traits@D@std@@V?$allocator@D@2@@std@@PAVCWhisper@@@std@@@2@$0A@@std@@@std@@IBE?AU?$_Tree_find_result@PAU?$_Tree_node@U?$pair@$$CBV?$basic_string@DU?$char_traits@D@std@@V?$allocator@D@2@@std@@PAVCWhisper@@@std@@PAX@std@@@1@ABV?$basic_string@DU?$char_traits@D@std@@V?$allocator@D@2@@1@@Z ; std::_Tree<std::_Tmap_traits<std::basic_string<char,std::char_traits<char>,std::allocator<char> >,CWhisper *,std::less<std::basic_string<char,std::char_traits<char>,std::allocator<char> > >,std::allocator<std::pair<std::basic_string<char,std::char_traits<char>,std::allocator<char> > const ,CWhisper *> >,0> >::_Find_lower_bound<std::basic_string<char,std::char_traits<char>,std::allocator<char> > >
PUBLIC	??$_Find_lower_bound@H@?$_Tree@V?$_Tmap_traits@HUSChatSet@CPythonChat@@U?$less@H@std@@V?$allocator@U?$pair@$$CBHUSChatSet@CPythonChat@@@std@@@4@$0A@@std@@@std@@IBE?AU?$_Tree_find_result@PAU?$_Tree_node@U?$pair@$$CBHUSChatSet@CPythonChat@@@std@@PAX@std@@@1@ABH@Z ; std::_Tree<std::_Tmap_traits<int,CPythonChat::SChatSet,std::less<int>,std::allocator<std::pair<int const ,CPythonChat::SChatSet> >,0> >::_Find_lower_bound<int>
PUBLIC	??$_Deallocate_plain@V?$allocator@U_Container_proxy@std@@@std@@@std@@YAXAAV?$allocator@U_Container_proxy@std@@@0@QAU_Container_proxy@0@@Z ; std::_Deallocate_plain<std::allocator<std::_Container_proxy> >
PUBLIC	??$_Construct_in_place@U_Container_proxy@std@@PAU_Container_base12@2@@std@@YAXAAU_Container_proxy@0@$$QAPAU_Container_base12@0@@Z ; std::_Construct_in_place<std::_Container_proxy,std::_Container_base12 *>
PUBLIC	??1?$_Alloc_construct_ptr@V?$allocator@U?$_List_node@PAUSChatLine@CPythonChat@@PAX@std@@@std@@@std@@QAE@XZ ; std::_Alloc_construct_ptr<std::allocator<std::_List_node<CPythonChat::SChatLine *,void *> > >::~_Alloc_construct_ptr<std::allocator<std::_List_node<CPythonChat::SChatLine *,void *> > >
PUBLIC	??$_Resize_reallocate@H@?$vector@HV?$allocator@H@std@@@std@@AAEXIABH@Z ; std::vector<int,std::allocator<int> >::_Resize_reallocate<int>
PUBLIC	??$_Destroy_in_place@PAU?$_List_node@USWaitChat@CPythonChat@@PAX@std@@@std@@YAXAAPAU?$_List_node@USWaitChat@CPythonChat@@PAX@0@@Z ; std::_Destroy_in_place<std::_List_node<CPythonChat::SWaitChat,void *> *>
PUBLIC	??$_Destroy_in_place@PAU?$_List_node@PAUSChatLine@CPythonChat@@PAX@std@@@std@@YAXAAPAU?$_List_node@PAUSChatLine@CPythonChat@@PAX@0@@Z ; std::_Destroy_in_place<std::_List_node<CPythonChat::SChatLine *,void *> *>
PUBLIC	??$_Destroy_in_place@PAU?$_List_node@PAUSChatLine@CWhisper@@PAX@std@@@std@@YAXAAPAU?$_List_node@PAUSChatLine@CWhisper@@PAX@0@@Z ; std::_Destroy_in_place<std::_List_node<CWhisper::SChatLine *,void *> *>
PUBLIC	??$_Construct_in_place@PAU?$_Tree_node@V?$basic_string@DU?$char_traits@D@std@@V?$allocator@D@2@@std@@PAX@std@@ABQAU12@@std@@YAXAAPAU?$_Tree_node@V?$basic_string@DU?$char_traits@D@std@@V?$allocator@D@2@@std@@PAX@0@ABQAU10@@Z ; std::_Construct_in_place<std::_Tree_node<std::basic_string<char,std::char_traits<char>,std::allocator<char> >,void *> *,std::_Tree_node<std::basic_string<char,std::char_traits<char>,std::allocator<char> >,void *> * const &>
PUBLIC	??$_Construct_in_place@PAU?$_Tree_node@U?$pair@$$CBV?$basic_string@DU?$char_traits@D@std@@V?$allocator@D@2@@std@@PAVCWhisper@@@std@@PAX@std@@ABQAU12@@std@@YAXAAPAU?$_Tree_node@U?$pair@$$CBV?$basic_string@DU?$char_traits@D@std@@V?$allocator@D@2@@std@@PAVCWhisper@@@std@@PAX@0@ABQAU10@@Z ; std::_Construct_in_place<std::_Tree_node<std::pair<std::basic_string<char,std::char_traits<char>,std::allocator<char> > const ,CWhisper *>,void *> *,std::_Tree_node<std::pair<std::basic_string<char,std::char_traits<char>,std::allocator<char> > const ,CWhisper *>,void *> * const &>
PUBLIC	??$_Construct_in_place@PAU?$_Tree_node@U?$pair@$$CBHUSChatSet@CPythonChat@@@std@@PAX@std@@ABQAU12@@std@@YAXAAPAU?$_Tree_node@U?$pair@$$CBHUSChatSet@CPythonChat@@@std@@PAX@0@ABQAU10@@Z ; std::_Construct_in_place<std::_Tree_node<std::pair<int const ,CPythonChat::SChatSet>,void *> *,std::_Tree_node<std::pair<int const ,CPythonChat::SChatSet>,void *> * const &>
PUBLIC	??$_Construct_in_place@PAU?$_List_node@PAUSChatLine@CPythonChat@@PAX@std@@ABQAU12@@std@@YAXAAPAU?$_List_node@PAUSChatLine@CPythonChat@@PAX@0@ABQAU10@@Z ; std::_Construct_in_place<std::_List_node<CPythonChat::SChatLine *,void *> *,std::_List_node<CPythonChat::SChatLine *,void *> * const &>
PUBLIC	??$_Construct_in_place@PAU?$_List_node@USWaitChat@CPythonChat@@PAX@std@@ABQAU12@@std@@YAXAAPAU?$_List_node@USWaitChat@CPythonChat@@PAX@0@ABQAU10@@Z ; std::_Construct_in_place<std::_List_node<CPythonChat::SWaitChat,void *> *,std::_List_node<CPythonChat::SWaitChat,void *> * const &>
PUBLIC	??$_Uninitialized_move@PAPAUSChatLine@CWhisper@@V?$allocator@PAUSChatLine@CWhisper@@@std@@@std@@YAPAPAUSChatLine@CWhisper@@QAPAU12@0PAPAU12@AAV?$allocator@PAUSChatLine@CWhisper@@@0@@Z ; std::_Uninitialized_move<CWhisper::SChatLine * *,std::allocator<CWhisper::SChatLine *> >
PUBLIC	??$_Uninitialized_move@PAPAVCWhisper@@V?$allocator@PAVCWhisper@@@std@@@std@@YAPAPAVCWhisper@@QAPAV1@0PAPAV1@AAV?$allocator@PAVCWhisper@@@0@@Z ; std::_Uninitialized_move<CWhisper * *,std::allocator<CWhisper *> >
PUBLIC	??$_Uninitialized_move@PAPAUSChatLine@CPythonChat@@V?$allocator@PAUSChatLine@CPythonChat@@@std@@@std@@YAPAPAUSChatLine@CPythonChat@@QAPAU12@0PAPAU12@AAV?$allocator@PAUSChatLine@CPythonChat@@@0@@Z ; std::_Uninitialized_move<CPythonChat::SChatLine * *,std::allocator<CPythonChat::SChatLine *> >
PUBLIC	??$uninitialized_copy@PAPAPAUSChatLine@CPythonChat@@PAPAPAU12@@std@@YAPAPAPAUSChatLine@CPythonChat@@QAPAPAU12@0PAPAPAU12@@Z ; std::uninitialized_copy<CPythonChat::SChatLine * * *,CPythonChat::SChatLine * * *>
PUBLIC	??$_Uninitialized_value_construct_n_unchecked1@PAPAPAUSChatLine@CPythonChat@@I@std@@YAPAPAPAUSChatLine@CPythonChat@@PAPAPAU12@I@Z ; std::_Uninitialized_value_construct_n_unchecked1<CPythonChat::SChatLine * * *,unsigned int>
PUBLIC	??$_Destroy_range@PAPAPAUSChatLine@CPythonChat@@PAPAPAU12@@std@@YAXPAPAPAUSChatLine@CPythonChat@@QAPAPAU12@@Z ; std::_Destroy_range<CPythonChat::SChatLine * * *,CPythonChat::SChatLine * * *>
PUBLIC	??$_Uninitialized_fill_n@V?$allocator@H@std@@@std@@YAPAHPAHIABHAAV?$allocator@H@0@@Z ; std::_Uninitialized_fill_n<std::allocator<int> >
PUBLIC	??$uninitialized_copy@PAPAPAUSChatLine@CWhisper@@PAPAPAU12@@std@@YAPAPAPAUSChatLine@CWhisper@@QAPAPAU12@0PAPAPAU12@@Z ; std::uninitialized_copy<CWhisper::SChatLine * * *,CWhisper::SChatLine * * *>
PUBLIC	??$_Uninitialized_value_construct_n_unchecked1@PAPAPAUSChatLine@CWhisper@@I@std@@YAPAPAPAUSChatLine@CWhisper@@PAPAPAU12@I@Z ; std::_Uninitialized_value_construct_n_unchecked1<CWhisper::SChatLine * * *,unsigned int>
PUBLIC	??$_Destroy_range@PAPAPAUSChatLine@CWhisper@@PAPAPAU12@@std@@YAXPAPAPAUSChatLine@CWhisper@@QAPAPAU12@@Z ; std::_Destroy_range<CWhisper::SChatLine * * *,CWhisper::SChatLine * * *>
PUBLIC	??1?$_Alloc_construct_ptr@V?$allocator@U?$_Tree_node@V?$basic_string@DU?$char_traits@D@std@@V?$allocator@D@2@@std@@PAX@std@@@std@@@std@@QAE@XZ ; std::_Alloc_construct_ptr<std::allocator<std::_Tree_node<std::basic_string<char,std::char_traits<char>,std::allocator<char> >,void *> > >::~_Alloc_construct_ptr<std::allocator<std::_Tree_node<std::basic_string<char,std::char_traits<char>,std::allocator<char> >,void *> > >
PUBLIC	??1?$_Alloc_construct_ptr@V?$allocator@U?$_Tree_node@U?$pair@$$CBV?$basic_string@DU?$char_traits@D@std@@V?$allocator@D@2@@std@@PAVCWhisper@@@std@@PAX@std@@@std@@@std@@QAE@XZ ; std::_Alloc_construct_ptr<std::allocator<std::_Tree_node<std::pair<std::basic_string<char,std::char_traits<char>,std::allocator<char> > const ,CWhisper *>,void *> > >::~_Alloc_construct_ptr<std::allocator<std::_Tree_node<std::pair<std::basic_string<char,std::char_traits<char>,std::allocator<char> > const ,CWhisper *>,void *> > >
PUBLIC	??1?$_Tree_temp_node_alloc@V?$allocator@U?$_Tree_node@U?$pair@$$CBV?$basic_string@DU?$char_traits@D@std@@V?$allocator@D@2@@std@@PAVCWhisper@@@std@@PAX@std@@@std@@@std@@QAE@XZ ; std::_Tree_temp_node_alloc<std::allocator<std::_Tree_node<std::pair<std::basic_string<char,std::char_traits<char>,std::allocator<char> > const ,CWhisper *>,void *> > >::~_Tree_temp_node_alloc<std::allocator<std::_Tree_node<std::pair<std::basic_string<char,std::char_traits<char>,std::allocator<char> > const ,CWhisper *>,void *> > >
PUBLIC	??$_Destroy_in_place@PAU?$_Tree_node@V?$basic_string@DU?$char_traits@D@std@@V?$allocator@D@2@@std@@PAX@std@@@std@@YAXAAPAU?$_Tree_node@V?$basic_string@DU?$char_traits@D@std@@V?$allocator@D@2@@std@@PAX@0@@Z ; std::_Destroy_in_place<std::_Tree_node<std::basic_string<char,std::char_traits<char>,std::allocator<char> >,void *> *>
PUBLIC	??$_Destroy_in_place@PAU?$_Tree_node@U?$pair@$$CBV?$basic_string@DU?$char_traits@D@std@@V?$allocator@D@2@@std@@PAVCWhisper@@@std@@PAX@std@@@std@@YAXAAPAU?$_Tree_node@U?$pair@$$CBV?$basic_string@DU?$char_traits@D@std@@V?$allocator@D@2@@std@@PAVCWhisper@@@std@@PAX@0@@Z ; std::_Destroy_in_place<std::_Tree_node<std::pair<std::basic_string<char,std::char_traits<char>,std::allocator<char> > const ,CWhisper *>,void *> *>
PUBLIC	??$_Destroy_in_place@PAU?$_Tree_node@U?$pair@$$CBHUSChatSet@CPythonChat@@@std@@PAX@std@@@std@@YAXAAPAU?$_Tree_node@U?$pair@$$CBHUSChatSet@CPythonChat@@@std@@PAX@0@@Z ; std::_Destroy_in_place<std::_Tree_node<std::pair<int const ,CPythonChat::SChatSet>,void *> *>
PUBLIC	??$_Copy_memmove@PAPAUSChatLine@CWhisper@@PAPAU12@@std@@YAPAPAUSChatLine@CWhisper@@PAPAU12@00@Z ; std::_Copy_memmove<CWhisper::SChatLine * *,CWhisper::SChatLine * *>
PUBLIC	??$_Copy_memmove@PAPAVCWhisper@@PAPAV1@@std@@YAPAPAVCWhisper@@PAPAV1@00@Z ; std::_Copy_memmove<CWhisper * *,CWhisper * *>
PUBLIC	??$_Copy_memmove@PAPAUSChatLine@CPythonChat@@PAPAU12@@std@@YAPAPAUSChatLine@CPythonChat@@PAPAU12@00@Z ; std::_Copy_memmove<CPythonChat::SChatLine * *,CPythonChat::SChatLine * *>
PUBLIC	??$_Copy_memmove@PAPAPAUSChatLine@CPythonChat@@PAPAPAU12@@std@@YAPAPAPAUSChatLine@CPythonChat@@PAPAPAU12@00@Z ; std::_Copy_memmove<CPythonChat::SChatLine * * *,CPythonChat::SChatLine * * *>
PUBLIC	??$_Zero_range@PAPAPAUSChatLine@CPythonChat@@@std@@YAPAPAPAUSChatLine@CPythonChat@@QAPAPAU12@0@Z ; std::_Zero_range<CPythonChat::SChatLine * * *>
PUBLIC	??$_Copy_memmove@PAPAPAUSChatLine@CWhisper@@PAPAPAU12@@std@@YAPAPAPAUSChatLine@CWhisper@@PAPAPAU12@00@Z ; std::_Copy_memmove<CWhisper::SChatLine * * *,CWhisper::SChatLine * * *>
PUBLIC	??$_Zero_range@PAPAPAUSChatLine@CWhisper@@@std@@YAPAPAPAUSChatLine@CWhisper@@QAPAPAU12@0@Z ; std::_Zero_range<CWhisper::SChatLine * * *>
PUBLIC	??$?MDU?$char_traits@D@std@@V?$allocator@D@1@@std@@YA_NABV?$basic_string@DU?$char_traits@D@std@@V?$allocator@D@2@@0@0@Z ; std::operator<<char,std::char_traits<char>,std::allocator<char> >
PUBLIC	??$_Uninitialized_move@PAHV?$allocator@H@std@@@std@@YAPAHQAH0PAHAAV?$allocator@H@0@@Z ; std::_Uninitialized_move<int *,std::allocator<int> >
PUBLIC	??1?$_Alloc_construct_ptr@V?$allocator@U?$_Tree_node@U?$pair@$$CBHUSChatSet@CPythonChat@@@std@@PAX@std@@@std@@@std@@QAE@XZ ; std::_Alloc_construct_ptr<std::allocator<std::_Tree_node<std::pair<int const ,CPythonChat::SChatSet>,void *> > >::~_Alloc_construct_ptr<std::allocator<std::_Tree_node<std::pair<int const ,CPythonChat::SChatSet>,void *> > >
PUBLIC	??1?$_Tree_temp_node_alloc@V?$allocator@U?$_Tree_node@U?$pair@$$CBHUSChatSet@CPythonChat@@@std@@PAX@std@@@std@@@std@@QAE@XZ ; std::_Tree_temp_node_alloc<std::allocator<std::_Tree_node<std::pair<int const ,CPythonChat::SChatSet>,void *> > >::~_Tree_temp_node_alloc<std::allocator<std::_Tree_node<std::pair<int const ,CPythonChat::SChatSet>,void *> > >
PUBLIC	??1?$_Tree_temp_node@V?$allocator@U?$_Tree_node@U?$pair@$$CBHUSChatSet@CPythonChat@@@std@@PAX@std@@@std@@@std@@QAE@XZ ; std::_Tree_temp_node<std::allocator<std::_Tree_node<std::pair<int const ,CPythonChat::SChatSet>,void *> > >::~_Tree_temp_node<std::allocator<std::_Tree_node<std::pair<int const ,CPythonChat::SChatSet>,void *> > >
PUBLIC	??$_Construct_in_place@PAU?$_Tree_node@V?$basic_string@DU?$char_traits@D@std@@V?$allocator@D@2@@std@@PAX@std@@AAPAU12@@std@@YAXAAPAU?$_Tree_node@V?$basic_string@DU?$char_traits@D@std@@V?$allocator@D@2@@std@@PAX@0@0@Z ; std::_Construct_in_place<std::_Tree_node<std::basic_string<char,std::char_traits<char>,std::allocator<char> >,void *> *,std::_Tree_node<std::basic_string<char,std::char_traits<char>,std::allocator<char> >,void *> * &>
PUBLIC	??$_Construct_in_place@PAU?$_Tree_node@U?$pair@$$CBV?$basic_string@DU?$char_traits@D@std@@V?$allocator@D@2@@std@@PAVCWhisper@@@std@@PAX@std@@AAPAU12@@std@@YAXAAPAU?$_Tree_node@U?$pair@$$CBV?$basic_string@DU?$char_traits@D@std@@V?$allocator@D@2@@std@@PAVCWhisper@@@std@@PAX@0@0@Z ; std::_Construct_in_place<std::_Tree_node<std::pair<std::basic_string<char,std::char_traits<char>,std::allocator<char> > const ,CWhisper *>,void *> *,std::_Tree_node<std::pair<std::basic_string<char,std::char_traits<char>,std::allocator<char> > const ,CWhisper *>,void *> * &>
PUBLIC	??$_Copy_memmove@PAHPAH@std@@YAPAHPAH00@Z	; std::_Copy_memmove<int *,int *>
PUBLIC	??$_Construct_in_place@PAU?$_Tree_node@U?$pair@$$CBHUSChatSet@CPythonChat@@@std@@PAX@std@@AAPAU12@@std@@YAXAAPAU?$_Tree_node@U?$pair@$$CBHUSChatSet@CPythonChat@@@std@@PAX@0@0@Z ; std::_Construct_in_place<std::_Tree_node<std::pair<int const ,CPythonChat::SChatSet>,void *> *,std::_Tree_node<std::pair<int const ,CPythonChat::SChatSet>,void *> * &>
PUBLIC	??_ECPythonChat@@W3AEPAXI@Z			; [thunk]:CPythonChat::`vector deleting destructor'
PUBLIC	??_7exception@std@@6B@				; std::exception::`vftable'
PUBLIC	??_C@_0BC@EOODALEL@Unknown?5exception@		; `string'
PUBLIC	??_7bad_alloc@std@@6B@				; std::bad_alloc::`vftable'
PUBLIC	??_7bad_array_new_length@std@@6B@		; std::bad_array_new_length::`vftable'
PUBLIC	??_C@_0BF@KINCDENJ@bad?5array?5new?5length@	; `string'
PUBLIC	__TI3?AVbad_array_new_length@std@@
PUBLIC	__CTA3?AVbad_array_new_length@std@@
PUBLIC	??_R0?AVbad_array_new_length@std@@@8		; std::bad_array_new_length `RTTI Type Descriptor'
PUBLIC	__CT??_R0?AVbad_array_new_length@std@@@8??0bad_array_new_length@std@@QAE@ABV01@@Z12
PUBLIC	??_R0?AVbad_alloc@std@@@8			; std::bad_alloc `RTTI Type Descriptor'
PUBLIC	__CT??_R0?AVbad_alloc@std@@@8??0bad_alloc@std@@QAE@ABV01@@Z12
PUBLIC	??_R0?AVexception@std@@@8			; std::exception `RTTI Type Descriptor'
PUBLIC	__CT??_R0?AVexception@std@@@8??0exception@std@@QAE@ABV01@@Z12
PUBLIC	??_C@_0BA@JFNIOLAK@string?5too?5long@		; `string'
PUBLIC	??_C@_0BB@GCADKGJO@map?1set?5too?5long@		; `string'
PUBLIC	?ms_singleton@?$CSingleton@VCTimer@@@@0PAVCTimer@@A ; CSingleton<CTimer>::ms_singleton
PUBLIC	??_C@_0BA@FOIKENOD@vector?5too?5long@		; `string'
PUBLIC	??_R4exception@std@@6B@				; std::exception::`RTTI Complete Object Locator'
PUBLIC	??_R3exception@std@@8				; std::exception::`RTTI Class Hierarchy Descriptor'
PUBLIC	??_R2exception@std@@8				; std::exception::`RTTI Base Class Array'
PUBLIC	??_R1A@?0A@EA@exception@std@@8			; std::exception::`RTTI Base Class Descriptor at (0,-1,0,64)'
PUBLIC	??_R4bad_alloc@std@@6B@				; std::bad_alloc::`RTTI Complete Object Locator'
PUBLIC	??_R3bad_alloc@std@@8				; std::bad_alloc::`RTTI Class Hierarchy Descriptor'
PUBLIC	??_R2bad_alloc@std@@8				; std::bad_alloc::`RTTI Base Class Array'
PUBLIC	??_R1A@?0A@EA@bad_alloc@std@@8			; std::bad_alloc::`RTTI Base Class Descriptor at (0,-1,0,64)'
PUBLIC	??_R4bad_array_new_length@std@@6B@		; std::bad_array_new_length::`RTTI Complete Object Locator'
PUBLIC	??_R3bad_array_new_length@std@@8		; std::bad_array_new_length::`RTTI Class Hierarchy Descriptor'
PUBLIC	??_R2bad_array_new_length@std@@8		; std::bad_array_new_length::`RTTI Base Class Array'
PUBLIC	??_R1A@?0A@EA@bad_array_new_length@std@@8	; std::bad_array_new_length::`RTTI Base Class Descriptor at (0,-1,0,64)'
PUBLIC	?ms_singleton@?$TAbstractSingleton@VIAbstractChat@@@@0PAVIAbstractChat@@A ; TAbstractSingleton<IAbstractChat>::ms_singleton
PUBLIC	??_7?$TAbstractSingleton@VIAbstractChat@@@@6B@	; TAbstractSingleton<IAbstractChat>::`vftable'
PUBLIC	??_7IAbstractChat@@6B@				; IAbstractChat::`vftable'
PUBLIC	?ms_kPool@SChatLine@CWhisper@@2V?$CDynamicPool@USChatLine@CWhisper@@@@A ; CWhisper::SChatLine::ms_kPool
PUBLIC	?ms_kPool@CWhisper@@2V?$CDynamicPool@VCWhisper@@@@A ; CWhisper::ms_kPool
PUBLIC	?ms_singleton@?$CSingleton@VCPythonChat@@@@0PAVCPythonChat@@A ; CSingleton<CPythonChat>::ms_singleton
PUBLIC	??_7?$CSingleton@VCPythonChat@@@@6B@		; CSingleton<CPythonChat>::`vftable'
PUBLIC	?ms_kPool@SChatLine@CPythonChat@@2V?$CDynamicPool@USChatLine@CPythonChat@@@@A ; CPythonChat::SChatLine::ms_kPool
PUBLIC	??_7SChatLine@CPythonChat@@6B@			; CPythonChat::SChatLine::`vftable'
PUBLIC	??_7CPythonChat@@6B?$CSingleton@VCPythonChat@@@@@ ; CPythonChat::`vftable'
PUBLIC	??_7CPythonChat@@6BIAbstractChat@@@		; CPythonChat::`vftable'
PUBLIC	?ms_singleton@?$TAbstractSingleton@VIAbstractApplication@@@@0PAVIAbstractApplication@@A ; TAbstractSingleton<IAbstractApplication>::ms_singleton
PUBLIC	?ms_kPool@?$CPooledObject@VCHeaderDecorator@NEffectUpdateDecorator@@@@1V?$CDynamicPoolEx@VCHeaderDecorator@NEffectUpdateDecorator@@@@A ; CPooledObject<NEffectUpdateDecorator::CHeaderDecorator>::ms_kPool
PUBLIC	?ms_kPool@?$CPooledObject@VCNullDecorator@NEffectUpdateDecorator@@@@1V?$CDynamicPoolEx@VCNullDecorator@NEffectUpdateDecorator@@@@A ; CPooledObject<NEffectUpdateDecorator::CNullDecorator>::ms_kPool
PUBLIC	?ms_kPool@?$CPooledObject@VCTextureAnimationCWDecorator@NEffectUpdateDecorator@@@@1V?$CDynamicPoolEx@VCTextureAnimationCWDecorator@NEffectUpdateDecorator@@@@A ; CPooledObject<NEffectUpdateDecorator::CTextureAnimationCWDecorator>::ms_kPool
PUBLIC	?ms_kPool@?$CPooledObject@VCTextureAnimationCCWDecorator@NEffectUpdateDecorator@@@@1V?$CDynamicPoolEx@VCTextureAnimationCCWDecorator@NEffectUpdateDecorator@@@@A ; CPooledObject<NEffectUpdateDecorator::CTextureAnimationCCWDecorator>::ms_kPool
PUBLIC	?ms_kPool@?$CPooledObject@VCTextureAnimationRandomDecorator@NEffectUpdateDecorator@@@@1V?$CDynamicPoolEx@VCTextureAnimationRandomDecorator@NEffectUpdateDecorator@@@@A ; CPooledObject<NEffectUpdateDecorator::CTextureAnimationRandomDecorator>::ms_kPool
PUBLIC	?ms_kPool@?$CPooledObject@VCAirResistanceDecorator@NEffectUpdateDecorator@@@@1V?$CDynamicPoolEx@VCAirResistanceDecorator@NEffectUpdateDecorator@@@@A ; CPooledObject<NEffectUpdateDecorator::CAirResistanceDecorator>::ms_kPool
PUBLIC	?ms_kPool@?$CPooledObject@VCGravityDecorator@NEffectUpdateDecorator@@@@1V?$CDynamicPoolEx@VCGravityDecorator@NEffectUpdateDecorator@@@@A ; CPooledObject<NEffectUpdateDecorator::CGravityDecorator>::ms_kPool
PUBLIC	?ms_kPool@?$CPooledObject@VCRotationDecorator@NEffectUpdateDecorator@@@@1V?$CDynamicPoolEx@VCRotationDecorator@NEffectUpdateDecorator@@@@A ; CPooledObject<NEffectUpdateDecorator::CRotationDecorator>::ms_kPool
PUBLIC	??_C@_0DD@ICBOAHOH@CPythonChat?3?3AppendChat?5?9?5CANNO@ ; `string'
PUBLIC	??_C@_03KJMMOONA@?$CIs?$CJ@			; `string'
PUBLIC	??_C@_0BC@CFOGNAGP@MakeWhisperButton@		; `string'
PUBLIC	??_C@_0DA@OLBPLOPJ@CWhisper?3?3AppendChat?5?9?5CANNOT_F@ ; `string'
PUBLIC	??_C@_0O@NKNMEGII@list?5too?5long@		; `string'
PUBLIC	??_C@_0BC@KBDMBKEH@deque?$DMT?$DO?5too?5long@	; `string'
PUBLIC	??_R4IAbstractChat@@6B@				; IAbstractChat::`RTTI Complete Object Locator'
PUBLIC	??_R0?AVIAbstractChat@@@8			; IAbstractChat `RTTI Type Descriptor'
PUBLIC	??_R3IAbstractChat@@8				; IAbstractChat::`RTTI Class Hierarchy Descriptor'
PUBLIC	??_R2IAbstractChat@@8				; IAbstractChat::`RTTI Base Class Array'
PUBLIC	??_R1A@?0A@EA@IAbstractChat@@8			; IAbstractChat::`RTTI Base Class Descriptor at (0,-1,0,64)'
PUBLIC	??_R1A@?0A@EA@?$TAbstractSingleton@VIAbstractChat@@@@8 ; TAbstractSingleton<IAbstractChat>::`RTTI Base Class Descriptor at (0,-1,0,64)'
PUBLIC	??_R0?AV?$TAbstractSingleton@VIAbstractChat@@@@@8 ; TAbstractSingleton<IAbstractChat> `RTTI Type Descriptor'
PUBLIC	??_R3?$TAbstractSingleton@VIAbstractChat@@@@8	; TAbstractSingleton<IAbstractChat>::`RTTI Class Hierarchy Descriptor'
PUBLIC	??_R2?$TAbstractSingleton@VIAbstractChat@@@@8	; TAbstractSingleton<IAbstractChat>::`RTTI Base Class Array'
PUBLIC	??_R4?$TAbstractSingleton@VIAbstractChat@@@@6B@	; TAbstractSingleton<IAbstractChat>::`RTTI Complete Object Locator'
PUBLIC	??_R4CPythonChat@@6B?$CSingleton@VCPythonChat@@@@@ ; CPythonChat::`RTTI Complete Object Locator'
PUBLIC	??_R0?AVCPythonChat@@@8				; CPythonChat `RTTI Type Descriptor'
PUBLIC	??_R3CPythonChat@@8				; CPythonChat::`RTTI Class Hierarchy Descriptor'
PUBLIC	??_R2CPythonChat@@8				; CPythonChat::`RTTI Base Class Array'
PUBLIC	??_R1A@?0A@EA@CPythonChat@@8			; CPythonChat::`RTTI Base Class Descriptor at (0,-1,0,64)'
PUBLIC	??_R1A@?0A@EA@?$CSingleton@VCPythonChat@@@@8	; CSingleton<CPythonChat>::`RTTI Base Class Descriptor at (0,-1,0,64)'
PUBLIC	??_R0?AV?$CSingleton@VCPythonChat@@@@@8		; CSingleton<CPythonChat> `RTTI Type Descriptor'
PUBLIC	??_R3?$CSingleton@VCPythonChat@@@@8		; CSingleton<CPythonChat>::`RTTI Class Hierarchy Descriptor'
PUBLIC	??_R2?$CSingleton@VCPythonChat@@@@8		; CSingleton<CPythonChat>::`RTTI Base Class Array'
PUBLIC	??_R13?0A@EA@IAbstractChat@@8			; IAbstractChat::`RTTI Base Class Descriptor at (4,-1,0,64)'
PUBLIC	??_R13?0A@EA@?$TAbstractSingleton@VIAbstractChat@@@@8 ; TAbstractSingleton<IAbstractChat>::`RTTI Base Class Descriptor at (4,-1,0,64)'
PUBLIC	??_R4CPythonChat@@6BIAbstractChat@@@		; CPythonChat::`RTTI Complete Object Locator'
PUBLIC	??_R4?$CSingleton@VCPythonChat@@@@6B@		; CSingleton<CPythonChat>::`RTTI Complete Object Locator'
PUBLIC	??_R4SChatLine@CPythonChat@@6B@			; CPythonChat::SChatLine::`RTTI Complete Object Locator'
PUBLIC	??_R0?AUSChatLine@CPythonChat@@@8		; CPythonChat::SChatLine `RTTI Type Descriptor'
PUBLIC	??_R3SChatLine@CPythonChat@@8			; CPythonChat::SChatLine::`RTTI Class Hierarchy Descriptor'
PUBLIC	??_R2SChatLine@CPythonChat@@8			; CPythonChat::SChatLine::`RTTI Base Class Array'
PUBLIC	??_R1A@?0A@EA@SChatLine@CPythonChat@@8		; CPythonChat::SChatLine::`RTTI Base Class Descriptor at (0,-1,0,64)'
PUBLIC	__real@3b808081
PUBLIC	__real@3d4ccccd
PUBLIC	__real@3dcccccd
PUBLIC	__real@3f000000
PUBLIC	__real@3f800000
PUBLIC	__real@40a00000
PUBLIC	__real@41200000
PUBLIC	__real@437f0000
PUBLIC	__xmm@3f8000003e9494953f61e1e33e949495
PUBLIC	__xmm@3f8000003f3ae1483f66e9793f800000
PUBLIC	__xmm@3f8000003f48f5c33f48f5c33f800000
PUBLIC	__xmm@3f8000003f55c28f3f8000003f2872b0
PUBLIC	__xmm@3f8000003f72f1aa3f8000003f0ac083
PUBLIC	__xmm@3f8000003f8000003f58d4fe3f67ef9e
PUBLIC	__xmm@3f8000003f8000003f8000003f800000
EXTRN	__purecall:PROC
EXTRN	??2@YAPAXI@Z:PROC				; operator new
EXTRN	??3@YAXPAX@Z:PROC				; operator delete
EXTRN	??3@YAXPAXI@Z:PROC				; operator delete
EXTRN	_atexit:PROC
EXTRN	___std_terminate:PROC
EXTRN	__invalid_parameter_noinfo_noreturn:PROC
EXTRN	___std_exception_copy:PROC
EXTRN	___std_exception_destroy:PROC
EXTRN	??_Eexception@std@@UAEPAXI@Z:PROC		; std::exception::`vector deleting destructor'
EXTRN	??_Ebad_alloc@std@@UAEPAXI@Z:PROC		; std::bad_alloc::`vector deleting destructor'
EXTRN	??_Ebad_array_new_length@std@@UAEPAXI@Z:PROC	; std::bad_array_new_length::`vector deleting destructor'
EXTRN	?_Xlength_error@std@@YAXPBD@Z:PROC		; std::_Xlength_error
EXTRN	?TraceError@@YAXPBDZZ:PROC			; TraceError
EXTRN	?fMIN@@YAMMM@Z:PROC				; fMIN
EXTRN	__imp__Py_BuildValue:PROC
EXTRN	?PyCallClassMemberFunc@@YA_NPAU_object@@PBD0@Z:PROC ; PyCallClassMemberFunc
EXTRN	?GetCurrentMillisecond@CTimer@@QAEKXZ:PROC	; CTimer::GetCurrentMillisecond
EXTRN	??0CGraphicTextInstance@@QAE@XZ:PROC		; CGraphicTextInstance::CGraphicTextInstance
EXTRN	??1CGraphicTextInstance@@UAE@XZ:PROC		; CGraphicTextInstance::~CGraphicTextInstance
EXTRN	?Destroy@CGraphicTextInstance@@QAEXXZ:PROC	; CGraphicTextInstance::Destroy
EXTRN	?Update@CGraphicTextInstance@@QAEXXZ:PROC	; CGraphicTextInstance::Update
EXTRN	?Render@CGraphicTextInstance@@QAEXPAUtagRECT@@@Z:PROC ; CGraphicTextInstance::Render
EXTRN	?SetColor@CGraphicTextInstance@@QAEXK@Z:PROC	; CGraphicTextInstance::SetColor
EXTRN	?SetTextPointer@CGraphicTextInstance@@QAEXPAVCGraphicText@@@Z:PROC ; CGraphicTextInstance::SetTextPointer
EXTRN	?SetValue@CGraphicTextInstance@@QAEXPBDI@Z:PROC	; CGraphicTextInstance::SetValue
EXTRN	?SetPosition@CGraphicTextInstance@@QAEXMMM@Z:PROC ; CGraphicTextInstance::SetPosition
EXTRN	?SetMultiLine@CGraphicTextInstance@@QAEX_N@Z:PROC ; CGraphicTextInstance::SetMultiLine
EXTRN	?SetLimitWidth@CGraphicTextInstance@@QAEXM@Z:PROC ; CGraphicTextInstance::SetLimitWidth
EXTRN	?GetTextLineCount@CGraphicTextInstance@@QAEGXZ:PROC ; CGraphicTextInstance::GetTextLineCount
EXTRN	?DefaultFont_GetResource@@YAPAVCResource@@XZ:PROC ; DefaultFont_GetResource
EXTRN	?DefaultItalicFont_GetResource@@YAPAVCResource@@XZ:PROC ; DefaultItalicFont_GetResource
EXTRN	??_E?$TAbstractSingleton@VIAbstractChat@@@@UAEPAXI@Z:PROC ; TAbstractSingleton<IAbstractChat>::`vector deleting destructor'
EXTRN	??_EIAbstractChat@@UAEPAXI@Z:PROC		; IAbstractChat::`vector deleting destructor'
EXTRN	??_E?$CSingleton@VCPythonChat@@@@UAEPAXI@Z:PROC	; CSingleton<CPythonChat>::`vector deleting destructor'
EXTRN	??_ESChatLine@CPythonChat@@UAEPAXI@Z:PROC	; CPythonChat::SChatLine::`vector deleting destructor'
EXTRN	??_ECPythonChat@@UAEPAXI@Z:PROC			; CPythonChat::`vector deleting destructor'
EXTRN	@__security_check_cookie@4:PROC
EXTRN	__CxxThrowException@8:PROC
EXTRN	___CxxFrameHandler3:PROC
EXTRN	__ftoui3:PROC
EXTRN	_memcpy:PROC
EXTRN	_memmove:PROC
EXTRN	_memset:PROC
EXTRN	___security_cookie:DWORD
EXTRN	__fltused:DWORD
EXTRN	__tls_array:DWORD
EXTRN	__tls_index:DWORD
;	COMDAT ?ms_singleton@?$CSingleton@VCTimer@@@@0PAVCTimer@@A
_BSS	SEGMENT
?ms_singleton@?$CSingleton@VCTimer@@@@0PAVCTimer@@A DD 01H DUP (?) ; CSingleton<CTimer>::ms_singleton
_BSS	ENDS
;	COMDAT ?ms_singleton@?$TAbstractSingleton@VIAbstractChat@@@@0PAVIAbstractChat@@A
_BSS	SEGMENT
?ms_singleton@?$TAbstractSingleton@VIAbstractChat@@@@0PAVIAbstractChat@@A DD 01H DUP (?) ; TAbstractSingleton<IAbstractChat>::ms_singleton
_BSS	ENDS
;	COMDAT ?ms_singleton@?$CSingleton@VCPythonChat@@@@0PAVCPythonChat@@A
_BSS	SEGMENT
?ms_singleton@?$CSingleton@VCPythonChat@@@@0PAVCPythonChat@@A DD 01H DUP (?) ; CSingleton<CPythonChat>::ms_singleton
_BSS	ENDS
;	COMDAT ?ms_singleton@?$TAbstractSingleton@VIAbstractApplication@@@@0PAVIAbstractApplication@@A
_BSS	SEGMENT
?ms_singleton@?$TAbstractSingleton@VIAbstractApplication@@@@0PAVIAbstractApplication@@A DD 01H DUP (?) ; TAbstractSingleton<IAbstractApplication>::ms_singleton
_BSS	ENDS
CRT$XCU	SEGMENT
??ms_kPool$initializer$@SChatLine@CPythonChat@@2P6AXXZA@@3P6AXXZA DD FLAT:??__E?ms_kPool@SChatLine@CPythonChat@@2V?$CDynamicPool@USChatLine@CPythonChat@@@@A@@YAXXZ ; ??ms_kPool$initializer$@SChatLine@CPythonChat@@2P6AXXZA@@3P6AXXZA
CRT$XCU	ENDS
;	COMDAT __xmm@3f8000003f8000003f8000003f800000
CONST	SEGMENT
__xmm@3f8000003f8000003f8000003f800000 DB 00H, 00H, 080H, '?', 00H, 00H, 080H
	DB	'?', 00H, 00H, 080H, '?', 00H, 00H, 080H, '?'
CONST	ENDS
;	COMDAT __xmm@3f8000003f8000003f58d4fe3f67ef9e
CONST	SEGMENT
__xmm@3f8000003f8000003f58d4fe3f67ef9e DB 09eH, 0efH, 'g?', 0feH, 0d4H, 'X'
	DB	'?', 00H, 00H, 080H, '?', 00H, 00H, 080H, '?'
CONST	ENDS
;	COMDAT __xmm@3f8000003f72f1aa3f8000003f0ac083
CONST	SEGMENT
__xmm@3f8000003f72f1aa3f8000003f0ac083 DB 083H, 0c0H, 0aH, '?', 00H, 00H, 080H
	DB	'?', 0aaH, 0f1H, 'r?', 00H, 00H, 080H, '?'
CONST	ENDS
;	COMDAT __xmm@3f8000003f55c28f3f8000003f2872b0
CONST	SEGMENT
__xmm@3f8000003f55c28f3f8000003f2872b0 DB 0b0H, 'r(?', 00H, 00H, 080H, '?'
	DB	08fH, 0c2H, 'U?', 00H, 00H, 080H, '?'
CONST	ENDS
;	COMDAT __xmm@3f8000003f48f5c33f48f5c33f800000
CONST	SEGMENT
__xmm@3f8000003f48f5c33f48f5c33f800000 DB 00H, 00H, 080H, '?', 0c3H, 0f5H
	DB	'H?', 0c3H, 0f5H, 'H?', 00H, 00H, 080H, '?'
CONST	ENDS
;	COMDAT __xmm@3f8000003f3ae1483f66e9793f800000
CONST	SEGMENT
__xmm@3f8000003f3ae1483f66e9793f800000 DB 00H, 00H, 080H, '?y', 0e9H, 'f?'
	DB	'H', 0e1H, ':?', 00H, 00H, 080H, '?'
CONST	ENDS
;	COMDAT __xmm@3f8000003e9494953f61e1e33e949495
CONST	SEGMENT
__xmm@3f8000003e9494953f61e1e33e949495 DB 095H, 094H, 094H, '>', 0e3H, 0e1H
	DB	'a?', 095H, 094H, 094H, '>', 00H, 00H, 080H, '?'
CONST	ENDS
;	COMDAT __real@437f0000
CONST	SEGMENT
__real@437f0000 DD 0437f0000r			; 255
CONST	ENDS
;	COMDAT __real@41200000
CONST	SEGMENT
__real@41200000 DD 041200000r			; 10
CONST	ENDS
;	COMDAT __real@40a00000
CONST	SEGMENT
__real@40a00000 DD 040a00000r			; 5
CONST	ENDS
;	COMDAT __real@3f800000
CONST	SEGMENT
__real@3f800000 DD 03f800000r			; 1
CONST	ENDS
;	COMDAT __real@3f000000
CONST	SEGMENT
__real@3f000000 DD 03f000000r			; 0.5
CONST	ENDS
;	COMDAT __real@3dcccccd
CONST	SEGMENT
__real@3dcccccd DD 03dcccccdr			; 0.1
CONST	ENDS
;	COMDAT __real@3d4ccccd
CONST	SEGMENT
__real@3d4ccccd DD 03d4ccccdr			; 0.05
CONST	ENDS
;	COMDAT __real@3b808081
CONST	SEGMENT
__real@3b808081 DD 03b808081r			; 0.00392157
CONST	ENDS
;	COMDAT ??_R1A@?0A@EA@SChatLine@CPythonChat@@8
rdata$r	SEGMENT
??_R1A@?0A@EA@SChatLine@CPythonChat@@8 DD FLAT:??_R0?AUSChatLine@CPythonChat@@@8 ; CPythonChat::SChatLine::`RTTI Base Class Descriptor at (0,-1,0,64)'
	DD	00H
	DD	00H
	DD	0ffffffffH
	DD	00H
	DD	040H
	DD	FLAT:??_R3SChatLine@CPythonChat@@8
rdata$r	ENDS
;	COMDAT ??_R2SChatLine@CPythonChat@@8
rdata$r	SEGMENT
??_R2SChatLine@CPythonChat@@8 DD FLAT:??_R1A@?0A@EA@SChatLine@CPythonChat@@8 ; CPythonChat::SChatLine::`RTTI Base Class Array'
rdata$r	ENDS
;	COMDAT ??_R3SChatLine@CPythonChat@@8
rdata$r	SEGMENT
??_R3SChatLine@CPythonChat@@8 DD 00H			; CPythonChat::SChatLine::`RTTI Class Hierarchy Descriptor'
	DD	00H
	DD	01H
	DD	FLAT:??_R2SChatLine@CPythonChat@@8
rdata$r	ENDS
;	COMDAT ??_R0?AUSChatLine@CPythonChat@@@8
data$rs	SEGMENT
??_R0?AUSChatLine@CPythonChat@@@8 DD FLAT:??_7type_info@@6B@ ; CPythonChat::SChatLine `RTTI Type Descriptor'
	DD	00H
	DB	'.?AUSChatLine@CPythonChat@@', 00H
data$rs	ENDS
;	COMDAT ??_R4SChatLine@CPythonChat@@6B@
rdata$r	SEGMENT
??_R4SChatLine@CPythonChat@@6B@ DD 00H			; CPythonChat::SChatLine::`RTTI Complete Object Locator'
	DD	00H
	DD	00H
	DD	FLAT:??_R0?AUSChatLine@CPythonChat@@@8
	DD	FLAT:??_R3SChatLine@CPythonChat@@8
rdata$r	ENDS
;	COMDAT ??_R4?$CSingleton@VCPythonChat@@@@6B@
rdata$r	SEGMENT
??_R4?$CSingleton@VCPythonChat@@@@6B@ DD 00H		; CSingleton<CPythonChat>::`RTTI Complete Object Locator'
	DD	00H
	DD	00H
	DD	FLAT:??_R0?AV?$CSingleton@VCPythonChat@@@@@8
	DD	FLAT:??_R3?$CSingleton@VCPythonChat@@@@8
rdata$r	ENDS
;	COMDAT ??_R4CPythonChat@@6BIAbstractChat@@@
rdata$r	SEGMENT
??_R4CPythonChat@@6BIAbstractChat@@@ DD 00H		; CPythonChat::`RTTI Complete Object Locator'
	DD	04H
	DD	00H
	DD	FLAT:??_R0?AVCPythonChat@@@8
	DD	FLAT:??_R3CPythonChat@@8
rdata$r	ENDS
;	COMDAT ??_R13?0A@EA@?$TAbstractSingleton@VIAbstractChat@@@@8
rdata$r	SEGMENT
??_R13?0A@EA@?$TAbstractSingleton@VIAbstractChat@@@@8 DD FLAT:??_R0?AV?$TAbstractSingleton@VIAbstractChat@@@@@8 ; TAbstractSingleton<IAbstractChat>::`RTTI Base Class Descriptor at (4,-1,0,64)'
	DD	00H
	DD	04H
	DD	0ffffffffH
	DD	00H
	DD	040H
	DD	FLAT:??_R3?$TAbstractSingleton@VIAbstractChat@@@@8
rdata$r	ENDS
;	COMDAT ??_R13?0A@EA@IAbstractChat@@8
rdata$r	SEGMENT
??_R13?0A@EA@IAbstractChat@@8 DD FLAT:??_R0?AVIAbstractChat@@@8 ; IAbstractChat::`RTTI Base Class Descriptor at (4,-1,0,64)'
	DD	01H
	DD	04H
	DD	0ffffffffH
	DD	00H
	DD	040H
	DD	FLAT:??_R3IAbstractChat@@8
rdata$r	ENDS
;	COMDAT ??_R2?$CSingleton@VCPythonChat@@@@8
rdata$r	SEGMENT
??_R2?$CSingleton@VCPythonChat@@@@8 DD FLAT:??_R1A@?0A@EA@?$CSingleton@VCPythonChat@@@@8 ; CSingleton<CPythonChat>::`RTTI Base Class Array'
rdata$r	ENDS
;	COMDAT ??_R3?$CSingleton@VCPythonChat@@@@8
rdata$r	SEGMENT
??_R3?$CSingleton@VCPythonChat@@@@8 DD 00H		; CSingleton<CPythonChat>::`RTTI Class Hierarchy Descriptor'
	DD	00H
	DD	01H
	DD	FLAT:??_R2?$CSingleton@VCPythonChat@@@@8
rdata$r	ENDS
;	COMDAT ??_R0?AV?$CSingleton@VCPythonChat@@@@@8
data$rs	SEGMENT
??_R0?AV?$CSingleton@VCPythonChat@@@@@8 DD FLAT:??_7type_info@@6B@ ; CSingleton<CPythonChat> `RTTI Type Descriptor'
	DD	00H
	DB	'.?AV?$CSingleton@VCPythonChat@@@@', 00H
data$rs	ENDS
;	COMDAT ??_R1A@?0A@EA@?$CSingleton@VCPythonChat@@@@8
rdata$r	SEGMENT
??_R1A@?0A@EA@?$CSingleton@VCPythonChat@@@@8 DD FLAT:??_R0?AV?$CSingleton@VCPythonChat@@@@@8 ; CSingleton<CPythonChat>::`RTTI Base Class Descriptor at (0,-1,0,64)'
	DD	00H
	DD	00H
	DD	0ffffffffH
	DD	00H
	DD	040H
	DD	FLAT:??_R3?$CSingleton@VCPythonChat@@@@8
rdata$r	ENDS
;	COMDAT ??_R1A@?0A@EA@CPythonChat@@8
rdata$r	SEGMENT
??_R1A@?0A@EA@CPythonChat@@8 DD FLAT:??_R0?AVCPythonChat@@@8 ; CPythonChat::`RTTI Base Class Descriptor at (0,-1,0,64)'
	DD	03H
	DD	00H
	DD	0ffffffffH
	DD	00H
	DD	040H
	DD	FLAT:??_R3CPythonChat@@8
rdata$r	ENDS
;	COMDAT ??_R2CPythonChat@@8
rdata$r	SEGMENT
??_R2CPythonChat@@8 DD FLAT:??_R1A@?0A@EA@CPythonChat@@8 ; CPythonChat::`RTTI Base Class Array'
	DD	FLAT:??_R1A@?0A@EA@?$CSingleton@VCPythonChat@@@@8
	DD	FLAT:??_R13?0A@EA@IAbstractChat@@8
	DD	FLAT:??_R13?0A@EA@?$TAbstractSingleton@VIAbstractChat@@@@8
rdata$r	ENDS
;	COMDAT ??_R3CPythonChat@@8
rdata$r	SEGMENT
??_R3CPythonChat@@8 DD 00H				; CPythonChat::`RTTI Class Hierarchy Descriptor'
	DD	01H
	DD	04H
	DD	FLAT:??_R2CPythonChat@@8
rdata$r	ENDS
;	COMDAT ??_R0?AVCPythonChat@@@8
data$rs	SEGMENT
??_R0?AVCPythonChat@@@8 DD FLAT:??_7type_info@@6B@	; CPythonChat `RTTI Type Descriptor'
	DD	00H
	DB	'.?AVCPythonChat@@', 00H
data$rs	ENDS
;	COMDAT ??_R4CPythonChat@@6B?$CSingleton@VCPythonChat@@@@@
rdata$r	SEGMENT
??_R4CPythonChat@@6B?$CSingleton@VCPythonChat@@@@@ DD 00H ; CPythonChat::`RTTI Complete Object Locator'
	DD	00H
	DD	00H
	DD	FLAT:??_R0?AVCPythonChat@@@8
	DD	FLAT:??_R3CPythonChat@@8
rdata$r	ENDS
;	COMDAT ??_R4?$TAbstractSingleton@VIAbstractChat@@@@6B@
rdata$r	SEGMENT
??_R4?$TAbstractSingleton@VIAbstractChat@@@@6B@ DD 00H	; TAbstractSingleton<IAbstractChat>::`RTTI Complete Object Locator'
	DD	00H
	DD	00H
	DD	FLAT:??_R0?AV?$TAbstractSingleton@VIAbstractChat@@@@@8
	DD	FLAT:??_R3?$TAbstractSingleton@VIAbstractChat@@@@8
rdata$r	ENDS
;	COMDAT ??_R2?$TAbstractSingleton@VIAbstractChat@@@@8
rdata$r	SEGMENT
??_R2?$TAbstractSingleton@VIAbstractChat@@@@8 DD FLAT:??_R1A@?0A@EA@?$TAbstractSingleton@VIAbstractChat@@@@8 ; TAbstractSingleton<IAbstractChat>::`RTTI Base Class Array'
rdata$r	ENDS
;	COMDAT ??_R3?$TAbstractSingleton@VIAbstractChat@@@@8
rdata$r	SEGMENT
??_R3?$TAbstractSingleton@VIAbstractChat@@@@8 DD 00H	; TAbstractSingleton<IAbstractChat>::`RTTI Class Hierarchy Descriptor'
	DD	00H
	DD	01H
	DD	FLAT:??_R2?$TAbstractSingleton@VIAbstractChat@@@@8
rdata$r	ENDS
;	COMDAT ??_R0?AV?$TAbstractSingleton@VIAbstractChat@@@@@8
data$rs	SEGMENT
??_R0?AV?$TAbstractSingleton@VIAbstractChat@@@@@8 DD FLAT:??_7type_info@@6B@ ; TAbstractSingleton<IAbstractChat> `RTTI Type Descriptor'
	DD	00H
	DB	'.?AV?$TAbstractSingleton@VIAbstractChat@@@@', 00H
data$rs	ENDS
;	COMDAT ??_R1A@?0A@EA@?$TAbstractSingleton@VIAbstractChat@@@@8
rdata$r	SEGMENT
??_R1A@?0A@EA@?$TAbstractSingleton@VIAbstractChat@@@@8 DD FLAT:??_R0?AV?$TAbstractSingleton@VIAbstractChat@@@@@8 ; TAbstractSingleton<IAbstractChat>::`RTTI Base Class Descriptor at (0,-1,0,64)'
	DD	00H
	DD	00H
	DD	0ffffffffH
	DD	00H
	DD	040H
	DD	FLAT:??_R3?$TAbstractSingleton@VIAbstractChat@@@@8
rdata$r	ENDS
;	COMDAT ??_R1A@?0A@EA@IAbstractChat@@8
rdata$r	SEGMENT
??_R1A@?0A@EA@IAbstractChat@@8 DD FLAT:??_R0?AVIAbstractChat@@@8 ; IAbstractChat::`RTTI Base Class Descriptor at (0,-1,0,64)'
	DD	01H
	DD	00H
	DD	0ffffffffH
	DD	00H
	DD	040H
	DD	FLAT:??_R3IAbstractChat@@8
rdata$r	ENDS
;	COMDAT ??_R2IAbstractChat@@8
rdata$r	SEGMENT
??_R2IAbstractChat@@8 DD FLAT:??_R1A@?0A@EA@IAbstractChat@@8 ; IAbstractChat::`RTTI Base Class Array'
	DD	FLAT:??_R1A@?0A@EA@?$TAbstractSingleton@VIAbstractChat@@@@8
rdata$r	ENDS
;	COMDAT ??_R3IAbstractChat@@8
rdata$r	SEGMENT
??_R3IAbstractChat@@8 DD 00H				; IAbstractChat::`RTTI Class Hierarchy Descriptor'
	DD	00H
	DD	02H
	DD	FLAT:??_R2IAbstractChat@@8
rdata$r	ENDS
;	COMDAT ??_R0?AVIAbstractChat@@@8
data$rs	SEGMENT
??_R0?AVIAbstractChat@@@8 DD FLAT:??_7type_info@@6B@	; IAbstractChat `RTTI Type Descriptor'
	DD	00H
	DB	'.?AVIAbstractChat@@', 00H
data$rs	ENDS
;	COMDAT ??_R4IAbstractChat@@6B@
rdata$r	SEGMENT
??_R4IAbstractChat@@6B@ DD 00H				; IAbstractChat::`RTTI Complete Object Locator'
	DD	00H
	DD	00H
	DD	FLAT:??_R0?AVIAbstractChat@@@8
	DD	FLAT:??_R3IAbstractChat@@8
rdata$r	ENDS
;	COMDAT ??_C@_0BC@KBDMBKEH@deque?$DMT?$DO?5too?5long@
CONST	SEGMENT
??_C@_0BC@KBDMBKEH@deque?$DMT?$DO?5too?5long@ DB 'deque<T> too long', 00H ; `string'
CONST	ENDS
;	COMDAT ??_C@_0O@NKNMEGII@list?5too?5long@
CONST	SEGMENT
??_C@_0O@NKNMEGII@list?5too?5long@ DB 'list too long', 00H ; `string'
CONST	ENDS
;	COMDAT ??_C@_0DA@OLBPLOPJ@CWhisper?3?3AppendChat?5?9?5CANNOT_F@
CONST	SEGMENT
??_C@_0DA@OLBPLOPJ@CWhisper?3?3AppendChat?5?9?5CANNOT_F@ DB 'CWhisper::Ap'
	DB	'pendChat - CANNOT_FIND_DEFAULT_FONT', 00H	; `string'
CONST	ENDS
;	COMDAT ??_C@_0BC@CFOGNAGP@MakeWhisperButton@
CONST	SEGMENT
??_C@_0BC@CFOGNAGP@MakeWhisperButton@ DB 'MakeWhisperButton', 00H ; `string'
CONST	ENDS
;	COMDAT ??_C@_03KJMMOONA@?$CIs?$CJ@
CONST	SEGMENT
??_C@_03KJMMOONA@?$CIs?$CJ@ DB '(s)', 00H		; `string'
CONST	ENDS
;	COMDAT ??_C@_0DD@ICBOAHOH@CPythonChat?3?3AppendChat?5?9?5CANNO@
CONST	SEGMENT
??_C@_0DD@ICBOAHOH@CPythonChat?3?3AppendChat?5?9?5CANNO@ DB 'CPythonChat:'
	DB	':AppendChat - CANNOT_FIND_DEFAULT_FONT', 00H ; `string'
CONST	ENDS
;	COMDAT ?color@?4??GetColorRef@SChatLine@CPythonChat@@QAEAAUD3DXCOLOR@@K@Z@4U4@A
_DATA	SEGMENT
?color@?4??GetColorRef@SChatLine@CPythonChat@@QAEAAUD3DXCOLOR@@K@Z@4U4@A DD 03f800000r ; 1 ; `CPythonChat::SChatLine::GetColorRef'::`5'::color
	DD	000000000r			; 0
	DD	000000000r			; 0
	DD	03f800000r			; 1
_DATA	ENDS
;	COMDAT ?ms_kPool@?$CPooledObject@VCRotationDecorator@NEffectUpdateDecorator@@@@1V?$CDynamicPoolEx@VCRotationDecorator@NEffectUpdateDecorator@@@@A
_DATA	SEGMENT
?ms_kPool@?$CPooledObject@VCRotationDecorator@NEffectUpdateDecorator@@@@1V?$CDynamicPoolEx@VCRotationDecorator@NEffectUpdateDecorator@@@@A DD FLAT:??_7?$CDynamicPoolEx@VCRotationDecorator@NEffectUpdateDecorator@@@@6B@ ; CPooledObject<NEffectUpdateDecorator::CRotationDecorator>::ms_kPool
	DD	00H
	DD	00H
	DD	00H
	DD	00H
	DD	00H
	DD	00H
	DD	00H
	DD	00H
_DATA	ENDS
;	COMDAT ?ms_kPool@?$CPooledObject@VCGravityDecorator@NEffectUpdateDecorator@@@@1V?$CDynamicPoolEx@VCGravityDecorator@NEffectUpdateDecorator@@@@A
_DATA	SEGMENT
?ms_kPool@?$CPooledObject@VCGravityDecorator@NEffectUpdateDecorator@@@@1V?$CDynamicPoolEx@VCGravityDecorator@NEffectUpdateDecorator@@@@A DD FLAT:??_7?$CDynamicPoolEx@VCGravityDecorator@NEffectUpdateDecorator@@@@6B@ ; CPooledObject<NEffectUpdateDecorator::CGravityDecorator>::ms_kPool
	DD	00H
	DD	00H
	DD	00H
	DD	00H
	DD	00H
	DD	00H
	DD	00H
	DD	00H
_DATA	ENDS
;	COMDAT ?ms_kPool@?$CPooledObject@VCAirResistanceDecorator@NEffectUpdateDecorator@@@@1V?$CDynamicPoolEx@VCAirResistanceDecorator@NEffectUpdateDecorator@@@@A
_DATA	SEGMENT
?ms_kPool@?$CPooledObject@VCAirResistanceDecorator@NEffectUpdateDecorator@@@@1V?$CDynamicPoolEx@VCAirResistanceDecorator@NEffectUpdateDecorator@@@@A DD FLAT:??_7?$CDynamicPoolEx@VCAirResistanceDecorator@NEffectUpdateDecorator@@@@6B@ ; CPooledObject<NEffectUpdateDecorator::CAirResistanceDecorator>::ms_kPool
	DD	00H
	DD	00H
	DD	00H
	DD	00H
	DD	00H
	DD	00H
	DD	00H
	DD	00H
_DATA	ENDS
;	COMDAT ?ms_kPool@?$CPooledObject@VCTextureAnimationRandomDecorator@NEffectUpdateDecorator@@@@1V?$CDynamicPoolEx@VCTextureAnimationRandomDecorator@NEffectUpdateDecorator@@@@A
_DATA	SEGMENT
?ms_kPool@?$CPooledObject@VCTextureAnimationRandomDecorator@NEffectUpdateDecorator@@@@1V?$CDynamicPoolEx@VCTextureAnimationRandomDecorator@NEffectUpdateDecorator@@@@A DD FLAT:??_7?$CDynamicPoolEx@VCTextureAnimationRandomDecorator@NEffectUpdateDecorator@@@@6B@ ; CPooledObject<NEffectUpdateDecorator::CTextureAnimationRandomDecorator>::ms_kPool
	DD	00H
	DD	00H
	DD	00H
	DD	00H
	DD	00H
	DD	00H
	DD	00H
	DD	00H
_DATA	ENDS
;	COMDAT ?ms_kPool@?$CPooledObject@VCTextureAnimationCCWDecorator@NEffectUpdateDecorator@@@@1V?$CDynamicPoolEx@VCTextureAnimationCCWDecorator@NEffectUpdateDecorator@@@@A
_DATA	SEGMENT
?ms_kPool@?$CPooledObject@VCTextureAnimationCCWDecorator@NEffectUpdateDecorator@@@@1V?$CDynamicPoolEx@VCTextureAnimationCCWDecorator@NEffectUpdateDecorator@@@@A DD FLAT:??_7?$CDynamicPoolEx@VCTextureAnimationCCWDecorator@NEffectUpdateDecorator@@@@6B@ ; CPooledObject<NEffectUpdateDecorator::CTextureAnimationCCWDecorator>::ms_kPool
	DD	00H
	DD	00H
	DD	00H
	DD	00H
	DD	00H
	DD	00H
	DD	00H
	DD	00H
_DATA	ENDS
;	COMDAT ?ms_kPool@?$CPooledObject@VCTextureAnimationCWDecorator@NEffectUpdateDecorator@@@@1V?$CDynamicPoolEx@VCTextureAnimationCWDecorator@NEffectUpdateDecorator@@@@A
_DATA	SEGMENT
?ms_kPool@?$CPooledObject@VCTextureAnimationCWDecorator@NEffectUpdateDecorator@@@@1V?$CDynamicPoolEx@VCTextureAnimationCWDecorator@NEffectUpdateDecorator@@@@A DD FLAT:??_7?$CDynamicPoolEx@VCTextureAnimationCWDecorator@NEffectUpdateDecorator@@@@6B@ ; CPooledObject<NEffectUpdateDecorator::CTextureAnimationCWDecorator>::ms_kPool
	DD	00H
	DD	00H
	DD	00H
	DD	00H
	DD	00H
	DD	00H
	DD	00H
	DD	00H
_DATA	ENDS
;	COMDAT ?ms_kPool@?$CPooledObject@VCNullDecorator@NEffectUpdateDecorator@@@@1V?$CDynamicPoolEx@VCNullDecorator@NEffectUpdateDecorator@@@@A
_DATA	SEGMENT
?ms_kPool@?$CPooledObject@VCNullDecorator@NEffectUpdateDecorator@@@@1V?$CDynamicPoolEx@VCNullDecorator@NEffectUpdateDecorator@@@@A DD FLAT:??_7?$CDynamicPoolEx@VCNullDecorator@NEffectUpdateDecorator@@@@6B@ ; CPooledObject<NEffectUpdateDecorator::CNullDecorator>::ms_kPool
	DD	00H
	DD	00H
	DD	00H
	DD	00H
	DD	00H
	DD	00H
	DD	00H
	DD	00H
_DATA	ENDS
;	COMDAT ?ms_kPool@?$CPooledObject@VCHeaderDecorator@NEffectUpdateDecorator@@@@1V?$CDynamicPoolEx@VCHeaderDecorator@NEffectUpdateDecorator@@@@A
_DATA	SEGMENT
?ms_kPool@?$CPooledObject@VCHeaderDecorator@NEffectUpdateDecorator@@@@1V?$CDynamicPoolEx@VCHeaderDecorator@NEffectUpdateDecorator@@@@A DD FLAT:??_7?$CDynamicPoolEx@VCHeaderDecorator@NEffectUpdateDecorator@@@@6B@ ; CPooledObject<NEffectUpdateDecorator::CHeaderDecorator>::ms_kPool
	DD	00H
	DD	00H
	DD	00H
	DD	00H
	DD	00H
	DD	00H
	DD	00H
	DD	00H
_DATA	ENDS
;	COMDAT ??_7CPythonChat@@6BIAbstractChat@@@
CONST	SEGMENT
??_7CPythonChat@@6BIAbstractChat@@@ DD FLAT:??_R4CPythonChat@@6BIAbstractChat@@@ ; CPythonChat::`vftable'
	DD	FLAT:??_ECPythonChat@@W3AEPAXI@Z
	DD	FLAT:?AppendChat@CPythonChat@@UAEXHPBD@Z
CONST	ENDS
;	COMDAT ??_7CPythonChat@@6B?$CSingleton@VCPythonChat@@@@@
CONST	SEGMENT
??_7CPythonChat@@6B?$CSingleton@VCPythonChat@@@@@ DD FLAT:??_R4CPythonChat@@6B?$CSingleton@VCPythonChat@@@@@ ; CPythonChat::`vftable'
	DD	FLAT:??_ECPythonChat@@UAEPAXI@Z
CONST	ENDS
;	COMDAT ??_7SChatLine@CPythonChat@@6B@
CONST	SEGMENT
??_7SChatLine@CPythonChat@@6B@ DD FLAT:??_R4SChatLine@CPythonChat@@6B@ ; CPythonChat::SChatLine::`vftable'
	DD	FLAT:??_ESChatLine@CPythonChat@@UAEPAXI@Z
CONST	ENDS
;	COMDAT ??_7?$CSingleton@VCPythonChat@@@@6B@
CONST	SEGMENT
??_7?$CSingleton@VCPythonChat@@@@6B@ DD FLAT:??_R4?$CSingleton@VCPythonChat@@@@6B@ ; CSingleton<CPythonChat>::`vftable'
	DD	FLAT:??_E?$CSingleton@VCPythonChat@@@@UAEPAXI@Z
CONST	ENDS
_DATA	SEGMENT
?ms_kPool@SChatLine@CWhisper@@2V?$CDynamicPool@USChatLine@CWhisper@@@@A DD FLAT:??_7?$CDynamicPool@USChatLine@CWhisper@@@@6B@ ; CWhisper::SChatLine::ms_kPool
	DD	00H
	DD	00H
	DD	00H
	DD	00H
	DD	00H
	DD	00H
	DD	00H
	DD	00H
?ms_kPool@CWhisper@@2V?$CDynamicPool@VCWhisper@@@@A DD FLAT:??_7?$CDynamicPool@VCWhisper@@@@6B@ ; CWhisper::ms_kPool
	DD	00H
	DD	00H
	DD	00H
	DD	00H
	DD	00H
	DD	00H
	DD	00H
	DD	00H
?ms_kPool@SChatLine@CPythonChat@@2V?$CDynamicPool@USChatLine@CPythonChat@@@@A DD FLAT:??_7?$CDynamicPool@USChatLine@CPythonChat@@@@6B@ ; CPythonChat::SChatLine::ms_kPool
	DD	00H
	DD	00H
	DD	00H
	DD	00H
	DD	00H
	DD	00H
	DD	00H
	DD	00H
_DATA	ENDS
;	COMDAT ??_7IAbstractChat@@6B@
CONST	SEGMENT
??_7IAbstractChat@@6B@ DD FLAT:??_R4IAbstractChat@@6B@	; IAbstractChat::`vftable'
	DD	FLAT:??_EIAbstractChat@@UAEPAXI@Z
	DD	FLAT:__purecall
CONST	ENDS
;	COMDAT ??_7?$TAbstractSingleton@VIAbstractChat@@@@6B@
CONST	SEGMENT
??_7?$TAbstractSingleton@VIAbstractChat@@@@6B@ DD FLAT:??_R4?$TAbstractSingleton@VIAbstractChat@@@@6B@ ; TAbstractSingleton<IAbstractChat>::`vftable'
	DD	FLAT:??_E?$TAbstractSingleton@VIAbstractChat@@@@UAEPAXI@Z
CONST	ENDS
;	COMDAT ??_R1A@?0A@EA@bad_array_new_length@std@@8
rdata$r	SEGMENT
??_R1A@?0A@EA@bad_array_new_length@std@@8 DD FLAT:??_R0?AVbad_array_new_length@std@@@8 ; std::bad_array_new_length::`RTTI Base Class Descriptor at (0,-1,0,64)'
	DD	02H
	DD	00H
	DD	0ffffffffH
	DD	00H
	DD	040H
	DD	FLAT:??_R3bad_array_new_length@std@@8
rdata$r	ENDS
;	COMDAT ??_R2bad_array_new_length@std@@8
rdata$r	SEGMENT
??_R2bad_array_new_length@std@@8 DD FLAT:??_R1A@?0A@EA@bad_array_new_length@std@@8 ; std::bad_array_new_length::`RTTI Base Class Array'
	DD	FLAT:??_R1A@?0A@EA@bad_alloc@std@@8
	DD	FLAT:??_R1A@?0A@EA@exception@std@@8
rdata$r	ENDS
;	COMDAT ??_R3bad_array_new_length@std@@8
rdata$r	SEGMENT
??_R3bad_array_new_length@std@@8 DD 00H			; std::bad_array_new_length::`RTTI Class Hierarchy Descriptor'
	DD	00H
	DD	03H
	DD	FLAT:??_R2bad_array_new_length@std@@8
rdata$r	ENDS
;	COMDAT ??_R4bad_array_new_length@std@@6B@
rdata$r	SEGMENT
??_R4bad_array_new_length@std@@6B@ DD 00H		; std::bad_array_new_length::`RTTI Complete Object Locator'
	DD	00H
	DD	00H
	DD	FLAT:??_R0?AVbad_array_new_length@std@@@8
	DD	FLAT:??_R3bad_array_new_length@std@@8
rdata$r	ENDS
;	COMDAT ??_R1A@?0A@EA@bad_alloc@std@@8
rdata$r	SEGMENT
??_R1A@?0A@EA@bad_alloc@std@@8 DD FLAT:??_R0?AVbad_alloc@std@@@8 ; std::bad_alloc::`RTTI Base Class Descriptor at (0,-1,0,64)'
	DD	01H
	DD	00H
	DD	0ffffffffH
	DD	00H
	DD	040H
	DD	FLAT:??_R3bad_alloc@std@@8
rdata$r	ENDS
;	COMDAT ??_R2bad_alloc@std@@8
rdata$r	SEGMENT
??_R2bad_alloc@std@@8 DD FLAT:??_R1A@?0A@EA@bad_alloc@std@@8 ; std::bad_alloc::`RTTI Base Class Array'
	DD	FLAT:??_R1A@?0A@EA@exception@std@@8
rdata$r	ENDS
;	COMDAT ??_R3bad_alloc@std@@8
rdata$r	SEGMENT
??_R3bad_alloc@std@@8 DD 00H				; std::bad_alloc::`RTTI Class Hierarchy Descriptor'
	DD	00H
	DD	02H
	DD	FLAT:??_R2bad_alloc@std@@8
rdata$r	ENDS
;	COMDAT ??_R4bad_alloc@std@@6B@
rdata$r	SEGMENT
??_R4bad_alloc@std@@6B@ DD 00H				; std::bad_alloc::`RTTI Complete Object Locator'
	DD	00H
	DD	00H
	DD	FLAT:??_R0?AVbad_alloc@std@@@8
	DD	FLAT:??_R3bad_alloc@std@@8
rdata$r	ENDS
;	COMDAT ??_R1A@?0A@EA@exception@std@@8
rdata$r	SEGMENT
??_R1A@?0A@EA@exception@std@@8 DD FLAT:??_R0?AVexception@std@@@8 ; std::exception::`RTTI Base Class Descriptor at (0,-1,0,64)'
	DD	00H
	DD	00H
	DD	0ffffffffH
	DD	00H
	DD	040H
	DD	FLAT:??_R3exception@std@@8
rdata$r	ENDS
;	COMDAT ??_R2exception@std@@8
rdata$r	SEGMENT
??_R2exception@std@@8 DD FLAT:??_R1A@?0A@EA@exception@std@@8 ; std::exception::`RTTI Base Class Array'
rdata$r	ENDS
;	COMDAT ??_R3exception@std@@8
rdata$r	SEGMENT
??_R3exception@std@@8 DD 00H				; std::exception::`RTTI Class Hierarchy Descriptor'
	DD	00H
	DD	01H
	DD	FLAT:??_R2exception@std@@8
rdata$r	ENDS
;	COMDAT ??_R4exception@std@@6B@
rdata$r	SEGMENT
??_R4exception@std@@6B@ DD 00H				; std::exception::`RTTI Complete Object Locator'
	DD	00H
	DD	00H
	DD	FLAT:??_R0?AVexception@std@@@8
	DD	FLAT:??_R3exception@std@@8
rdata$r	ENDS
;	COMDAT ??_C@_0BA@FOIKENOD@vector?5too?5long@
CONST	SEGMENT
??_C@_0BA@FOIKENOD@vector?5too?5long@ DB 'vector too long', 00H ; `string'
CONST	ENDS
;	COMDAT ??_C@_0BB@GCADKGJO@map?1set?5too?5long@
CONST	SEGMENT
??_C@_0BB@GCADKGJO@map?1set?5too?5long@ DB 'map/set too long', 00H ; `string'
CONST	ENDS
;	COMDAT ??_C@_0BA@JFNIOLAK@string?5too?5long@
CONST	SEGMENT
??_C@_0BA@JFNIOLAK@string?5too?5long@ DB 'string too long', 00H ; `string'
CONST	ENDS
;	COMDAT __CT??_R0?AVexception@std@@@8??0exception@std@@QAE@ABV01@@Z12
xdata$x	SEGMENT
__CT??_R0?AVexception@std@@@8??0exception@std@@QAE@ABV01@@Z12 DD 00H
	DD	FLAT:??_R0?AVexception@std@@@8
	DD	00H
	DD	0ffffffffH
	ORG $+4
	DD	0cH
	DD	FLAT:??0exception@std@@QAE@ABV01@@Z
xdata$x	ENDS
;	COMDAT ??_R0?AVexception@std@@@8
data$r	SEGMENT
??_R0?AVexception@std@@@8 DD FLAT:??_7type_info@@6B@	; std::exception `RTTI Type Descriptor'
	DD	00H
	DB	'.?AVexception@std@@', 00H
data$r	ENDS
;	COMDAT __CT??_R0?AVbad_alloc@std@@@8??0bad_alloc@std@@QAE@ABV01@@Z12
xdata$x	SEGMENT
__CT??_R0?AVbad_alloc@std@@@8??0bad_alloc@std@@QAE@ABV01@@Z12 DD 010H
	DD	FLAT:??_R0?AVbad_alloc@std@@@8
	DD	00H
	DD	0ffffffffH
	ORG $+4
	DD	0cH
	DD	FLAT:??0bad_alloc@std@@QAE@ABV01@@Z
xdata$x	ENDS
;	COMDAT ??_R0?AVbad_alloc@std@@@8
data$r	SEGMENT
??_R0?AVbad_alloc@std@@@8 DD FLAT:??_7type_info@@6B@	; std::bad_alloc `RTTI Type Descriptor'
	DD	00H
	DB	'.?AVbad_alloc@std@@', 00H
data$r	ENDS
;	COMDAT __CT??_R0?AVbad_array_new_length@std@@@8??0bad_array_new_length@std@@QAE@ABV01@@Z12
xdata$x	SEGMENT
__CT??_R0?AVbad_array_new_length@std@@@8??0bad_array_new_length@std@@QAE@ABV01@@Z12 DD 00H
	DD	FLAT:??_R0?AVbad_array_new_length@std@@@8
	DD	00H
	DD	0ffffffffH
	ORG $+4
	DD	0cH
	DD	FLAT:??0bad_array_new_length@std@@QAE@ABV01@@Z
xdata$x	ENDS
;	COMDAT ??_R0?AVbad_array_new_length@std@@@8
data$r	SEGMENT
??_R0?AVbad_array_new_length@std@@@8 DD FLAT:??_7type_info@@6B@ ; std::bad_array_new_length `RTTI Type Descriptor'
	DD	00H
	DB	'.?AVbad_array_new_length@std@@', 00H
data$r	ENDS
;	COMDAT __CTA3?AVbad_array_new_length@std@@
xdata$x	SEGMENT
__CTA3?AVbad_array_new_length@std@@ DD 03H
	DD	FLAT:__CT??_R0?AVbad_array_new_length@std@@@8??0bad_array_new_length@std@@QAE@ABV01@@Z12
	DD	FLAT:__CT??_R0?AVbad_alloc@std@@@8??0bad_alloc@std@@QAE@ABV01@@Z12
	DD	FLAT:__CT??_R0?AVexception@std@@@8??0exception@std@@QAE@ABV01@@Z12
xdata$x	ENDS
;	COMDAT __TI3?AVbad_array_new_length@std@@
xdata$x	SEGMENT
__TI3?AVbad_array_new_length@std@@ DD 00H
	DD	FLAT:??1bad_array_new_length@std@@UAE@XZ
	DD	00H
	DD	FLAT:__CTA3?AVbad_array_new_length@std@@
xdata$x	ENDS
;	COMDAT ??_C@_0BF@KINCDENJ@bad?5array?5new?5length@
CONST	SEGMENT
??_C@_0BF@KINCDENJ@bad?5array?5new?5length@ DB 'bad array new length', 00H ; `string'
CONST	ENDS
;	COMDAT ??_7bad_array_new_length@std@@6B@
CONST	SEGMENT
??_7bad_array_new_length@std@@6B@ DD FLAT:??_R4bad_array_new_length@std@@6B@ ; std::bad_array_new_length::`vftable'
	DD	FLAT:??_Ebad_array_new_length@std@@UAEPAXI@Z
	DD	FLAT:?what@exception@std@@UBEPBDXZ
CONST	ENDS
;	COMDAT ??_7bad_alloc@std@@6B@
CONST	SEGMENT
??_7bad_alloc@std@@6B@ DD FLAT:??_R4bad_alloc@std@@6B@	; std::bad_alloc::`vftable'
	DD	FLAT:??_Ebad_alloc@std@@UAEPAXI@Z
	DD	FLAT:?what@exception@std@@UBEPBDXZ
CONST	ENDS
;	COMDAT ??_C@_0BC@EOODALEL@Unknown?5exception@
CONST	SEGMENT
??_C@_0BC@EOODALEL@Unknown?5exception@ DB 'Unknown exception', 00H ; `string'
CONST	ENDS
;	COMDAT ??_7exception@std@@6B@
CONST	SEGMENT
??_7exception@std@@6B@ DD FLAT:??_R4exception@std@@6B@	; std::exception::`vftable'
	DD	FLAT:??_Eexception@std@@UAEPAXI@Z
	DD	FLAT:?what@exception@std@@UBEPBDXZ
CONST	ENDS
;	COMDAT xdata$x
xdata$x	SEGMENT
__unwindtable$??$?0U?$pair@KUSChatSet@CPythonChat@@@std@@@?$_Tree_temp_node@V?$allocator@U?$_Tree_node@U?$pair@$$CBHUSChatSet@CPythonChat@@@std@@PAX@std@@@std@@@std@@QAE@AAV?$allocator@U?$_Tree_node@U?$pair@$$CBHUSChatSet@CPythonChat@@@std@@PAX@std@@@1@PAU?$_Tree_node@U?$pair@$$CBHUSChatSet@CPythonChat@@@std@@PAX@1@$$QAU?$pair@KUSChatSet@CPythonChat@@@1@@Z DD 0ffffffffH
	DD	FLAT:__unwindfunclet$??$?0U?$pair@KUSChatSet@CPythonChat@@@std@@@?$_Tree_temp_node@V?$allocator@U?$_Tree_node@U?$pair@$$CBHUSChatSet@CPythonChat@@@std@@PAX@std@@@std@@@std@@QAE@AAV?$allocator@U?$_Tree_node@U?$pair@$$CBHUSChatSet@CPythonChat@@@std@@PAX@std@@@1@PAU?$_Tree_node@U?$pair@$$CBHUSChatSet@CPythonChat@@@std@@PAX@1@$$QAU?$pair@KUSChatSet@CPythonChat@@@1@@Z$1
	DD	0ffffffffH
	DD	FLAT:__unwindfunclet$??$?0U?$pair@KUSChatSet@CPythonChat@@@std@@@?$_Tree_temp_node@V?$allocator@U?$_Tree_node@U?$pair@$$CBHUSChatSet@CPythonChat@@@std@@PAX@std@@@std@@@std@@QAE@AAV?$allocator@U?$_Tree_node@U?$pair@$$CBHUSChatSet@CPythonChat@@@std@@PAX@std@@@1@PAU?$_Tree_node@U?$pair@$$CBHUSChatSet@CPythonChat@@@std@@PAX@1@$$QAU?$pair@KUSChatSet@CPythonChat@@@1@@Z$0
__ehfuncinfo$??$?0U?$pair@KUSChatSet@CPythonChat@@@std@@@?$_Tree_temp_node@V?$allocator@U?$_Tree_node@U?$pair@$$CBHUSChatSet@CPythonChat@@@std@@PAX@std@@@std@@@std@@QAE@AAV?$allocator@U?$_Tree_node@U?$pair@$$CBHUSChatSet@CPythonChat@@@std@@PAX@std@@@1@PAU?$_Tree_node@U?$pair@$$CBHUSChatSet@CPythonChat@@@std@@PAX@1@$$QAU?$pair@KUSChatSet@CPythonChat@@@1@@Z DD 019930522H
	DD	02H
	DD	FLAT:__unwindtable$??$?0U?$pair@KUSChatSet@CPythonChat@@@std@@@?$_Tree_temp_node@V?$allocator@U?$_Tree_node@U?$pair@$$CBHUSChatSet@CPythonChat@@@std@@PAX@std@@@std@@@std@@QAE@AAV?$allocator@U?$_Tree_node@U?$pair@$$CBHUSChatSet@CPythonChat@@@std@@PAX@std@@@1@PAU?$_Tree_node@U?$pair@$$CBHUSChatSet@CPythonChat@@@std@@PAX@1@$$QAU?$pair@KUSChatSet@CPythonChat@@@1@@Z
	DD	2 DUP(00H)
	DD	2 DUP(00H)
	DD	00H
	DD	01H
xdata$x	ENDS
;	COMDAT xdata$x
xdata$x	SEGMENT
__unwindtable$??0?$_Tree_temp_node_alloc@V?$allocator@U?$_Tree_node@U?$pair@$$CBHUSChatSet@CPythonChat@@@std@@PAX@std@@@std@@@std@@QAE@AAV?$allocator@U?$_Tree_node@U?$pair@$$CBHUSChatSet@CPythonChat@@@std@@PAX@std@@@1@@Z DD 0ffffffffH
	DD	FLAT:__unwindfunclet$??0?$_Tree_temp_node_alloc@V?$allocator@U?$_Tree_node@U?$pair@$$CBHUSChatSet@CPythonChat@@@std@@PAX@std@@@std@@@std@@QAE@AAV?$allocator@U?$_Tree_node@U?$pair@$$CBHUSChatSet@CPythonChat@@@std@@PAX@std@@@1@@Z$0
__ehfuncinfo$??0?$_Tree_temp_node_alloc@V?$allocator@U?$_Tree_node@U?$pair@$$CBHUSChatSet@CPythonChat@@@std@@PAX@std@@@std@@@std@@QAE@AAV?$allocator@U?$_Tree_node@U?$pair@$$CBHUSChatSet@CPythonChat@@@std@@PAX@std@@@1@@Z DD 019930522H
	DD	01H
	DD	FLAT:__unwindtable$??0?$_Tree_temp_node_alloc@V?$allocator@U?$_Tree_node@U?$pair@$$CBHUSChatSet@CPythonChat@@@std@@PAX@std@@@std@@@std@@QAE@AAV?$allocator@U?$_Tree_node@U?$pair@$$CBHUSChatSet@CPythonChat@@@std@@PAX@std@@@1@@Z
	DD	2 DUP(00H)
	DD	2 DUP(00H)
	DD	00H
	DD	01H
xdata$x	ENDS
;	COMDAT xdata$x
xdata$x	SEGMENT
__unwindtable$??$?0U?$pair@$$CBV?$basic_string@DU?$char_traits@D@std@@V?$allocator@D@2@@std@@PAVCWhisper@@@std@@@?$_Tree_temp_node@V?$allocator@U?$_Tree_node@U?$pair@$$CBV?$basic_string@DU?$char_traits@D@std@@V?$allocator@D@2@@std@@PAVCWhisper@@@std@@PAX@std@@@std@@@std@@QAE@AAV?$allocator@U?$_Tree_node@U?$pair@$$CBV?$basic_string@DU?$char_traits@D@std@@V?$allocator@D@2@@std@@PAVCWhisper@@@std@@PAX@std@@@1@PAU?$_Tree_node@U?$pair@$$CBV?$basic_string@DU?$char_traits@D@std@@V?$allocator@D@2@@std@@PAVCWhisper@@@std@@PAX@1@$$QAU?$pair@$$CBV?$basic_string@DU?$char_traits@D@std@@V?$allocator@D@2@@std@@PAVCWhisper@@@1@@Z DD 0ffffffffH
	DD	FLAT:__unwindfunclet$??$?0U?$pair@$$CBV?$basic_string@DU?$char_traits@D@std@@V?$allocator@D@2@@std@@PAVCWhisper@@@std@@@?$_Tree_temp_node@V?$allocator@U?$_Tree_node@U?$pair@$$CBV?$basic_string@DU?$char_traits@D@std@@V?$allocator@D@2@@std@@PAVCWhisper@@@std@@PAX@std@@@std@@@std@@QAE@AAV?$allocator@U?$_Tree_node@U?$pair@$$CBV?$basic_string@DU?$char_traits@D@std@@V?$allocator@D@2@@std@@PAVCWhisper@@@std@@PAX@std@@@1@PAU?$_Tree_node@U?$pair@$$CBV?$basic_string@DU?$char_traits@D@std@@V?$allocator@D@2@@std@@PAVCWhisper@@@std@@PAX@1@$$QAU?$pair@$$CBV?$basic_string@DU?$char_traits@D@std@@V?$allocator@D@2@@std@@PAVCWhisper@@@1@@Z$1
	DD	0ffffffffH
	DD	FLAT:__unwindfunclet$??$?0U?$pair@$$CBV?$basic_string@DU?$char_traits@D@std@@V?$allocator@D@2@@std@@PAVCWhisper@@@std@@@?$_Tree_temp_node@V?$allocator@U?$_Tree_node@U?$pair@$$CBV?$basic_string@DU?$char_traits@D@std@@V?$allocator@D@2@@std@@PAVCWhisper@@@std@@PAX@std@@@std@@@std@@QAE@AAV?$allocator@U?$_Tree_node@U?$pair@$$CBV?$basic_string@DU?$char_traits@D@std@@V?$allocator@D@2@@std@@PAVCWhisper@@@std@@PAX@std@@@1@PAU?$_Tree_node@U?$pair@$$CBV?$basic_string@DU?$char_traits@D@std@@V?$allocator@D@2@@std@@PAVCWhisper@@@std@@PAX@1@$$QAU?$pair@$$CBV?$basic_string@DU?$char_traits@D@std@@V?$allocator@D@2@@std@@PAVCWhisper@@@1@@Z$0
__ehfuncinfo$??$?0U?$pair@$$CBV?$basic_string@DU?$char_traits@D@std@@V?$allocator@D@2@@std@@PAVCWhisper@@@std@@@?$_Tree_temp_node@V?$allocator@U?$_Tree_node@U?$pair@$$CBV?$basic_string@DU?$char_traits@D@std@@V?$allocator@D@2@@std@@PAVCWhisper@@@std@@PAX@std@@@std@@@std@@QAE@AAV?$allocator@U?$_Tree_node@U?$pair@$$CBV?$basic_string@DU?$char_traits@D@std@@V?$allocator@D@2@@std@@PAVCWhisper@@@std@@PAX@std@@@1@PAU?$_Tree_node@U?$pair@$$CBV?$basic_string@DU?$char_traits@D@std@@V?$allocator@D@2@@std@@PAVCWhisper@@@std@@PAX@1@$$QAU?$pair@$$CBV?$basic_string@DU?$char_traits@D@std@@V?$allocator@D@2@@std@@PAVCWhisper@@@1@@Z DD 019930522H
	DD	02H
	DD	FLAT:__unwindtable$??$?0U?$pair@$$CBV?$basic_string@DU?$char_traits@D@std@@V?$allocator@D@2@@std@@PAVCWhisper@@@std@@@?$_Tree_temp_node@V?$allocator@U?$_Tree_node@U?$pair@$$CBV?$basic_string@DU?$char_traits@D@std@@V?$allocator@D@2@@std@@PAVCWhisper@@@std@@PAX@std@@@std@@@std@@QAE@AAV?$allocator@U?$_Tree_node@U?$pair@$$CBV?$basic_string@DU?$char_traits@D@std@@V?$allocator@D@2@@std@@PAVCWhisper@@@std@@PAX@std@@@1@PAU?$_Tree_node@U?$pair@$$CBV?$basic_string@DU?$char_traits@D@std@@V?$allocator@D@2@@std@@PAVCWhisper@@@std@@PAX@1@$$QAU?$pair@$$CBV?$basic_string@DU?$char_traits@D@std@@V?$allocator@D@2@@std@@PAVCWhisper@@@1@@Z
	DD	2 DUP(00H)
	DD	2 DUP(00H)
	DD	00H
	DD	01H
xdata$x	ENDS
;	COMDAT xdata$x
xdata$x	SEGMENT
__unwindtable$??0?$_Tree_temp_node_alloc@V?$allocator@U?$_Tree_node@U?$pair@$$CBV?$basic_string@DU?$char_traits@D@std@@V?$allocator@D@2@@std@@PAVCWhisper@@@std@@PAX@std@@@std@@@std@@QAE@AAV?$allocator@U?$_Tree_node@U?$pair@$$CBV?$basic_string@DU?$char_traits@D@std@@V?$allocator@D@2@@std@@PAVCWhisper@@@std@@PAX@std@@@1@@Z DD 0ffffffffH
	DD	FLAT:__unwindfunclet$??0?$_Tree_temp_node_alloc@V?$allocator@U?$_Tree_node@U?$pair@$$CBV?$basic_string@DU?$char_traits@D@std@@V?$allocator@D@2@@std@@PAVCWhisper@@@std@@PAX@std@@@std@@@std@@QAE@AAV?$allocator@U?$_Tree_node@U?$pair@$$CBV?$basic_string@DU?$char_traits@D@std@@V?$allocator@D@2@@std@@PAVCWhisper@@@std@@PAX@std@@@1@@Z$0
__ehfuncinfo$??0?$_Tree_temp_node_alloc@V?$allocator@U?$_Tree_node@U?$pair@$$CBV?$basic_string@DU?$char_traits@D@std@@V?$allocator@D@2@@std@@PAVCWhisper@@@std@@PAX@std@@@std@@@std@@QAE@AAV?$allocator@U?$_Tree_node@U?$pair@$$CBV?$basic_string@DU?$char_traits@D@std@@V?$allocator@D@2@@std@@PAVCWhisper@@@std@@PAX@std@@@1@@Z DD 019930522H
	DD	01H
	DD	FLAT:__unwindtable$??0?$_Tree_temp_node_alloc@V?$allocator@U?$_Tree_node@U?$pair@$$CBV?$basic_string@DU?$char_traits@D@std@@V?$allocator@D@2@@std@@PAVCWhisper@@@std@@PAX@std@@@std@@@std@@QAE@AAV?$allocator@U?$_Tree_node@U?$pair@$$CBV?$basic_string@DU?$char_traits@D@std@@V?$allocator@D@2@@std@@PAVCWhisper@@@std@@PAX@std@@@1@@Z
	DD	2 DUP(00H)
	DD	2 DUP(00H)
	DD	00H
	DD	01H
xdata$x	ENDS
;	COMDAT xdata$x
xdata$x	SEGMENT
__unwindtable$??$?0V?$basic_string@DU?$char_traits@D@std@@V?$allocator@D@2@@std@@@?$_Tree_temp_node@V?$allocator@U?$_Tree_node@V?$basic_string@DU?$char_traits@D@std@@V?$allocator@D@2@@std@@PAX@std@@@std@@@std@@QAE@AAV?$allocator@U?$_Tree_node@V?$basic_string@DU?$char_traits@D@std@@V?$allocator@D@2@@std@@PAX@std@@@1@PAU?$_Tree_node@V?$basic_string@DU?$char_traits@D@std@@V?$allocator@D@2@@std@@PAX@1@$$QAV?$basic_string@DU?$char_traits@D@std@@V?$allocator@D@2@@1@@Z DD 0ffffffffH
	DD	FLAT:__unwindfunclet$??$?0V?$basic_string@DU?$char_traits@D@std@@V?$allocator@D@2@@std@@@?$_Tree_temp_node@V?$allocator@U?$_Tree_node@V?$basic_string@DU?$char_traits@D@std@@V?$allocator@D@2@@std@@PAX@std@@@std@@@std@@QAE@AAV?$allocator@U?$_Tree_node@V?$basic_string@DU?$char_traits@D@std@@V?$allocator@D@2@@std@@PAX@std@@@1@PAU?$_Tree_node@V?$basic_string@DU?$char_traits@D@std@@V?$allocator@D@2@@std@@PAX@1@$$QAV?$basic_string@DU?$char_traits@D@std@@V?$allocator@D@2@@1@@Z$1
__ehfuncinfo$??$?0V?$basic_string@DU?$char_traits@D@std@@V?$allocator@D@2@@std@@@?$_Tree_temp_node@V?$allocator@U?$_Tree_node@V?$basic_string@DU?$char_traits@D@std@@V?$allocator@D@2@@std@@PAX@std@@@std@@@std@@QAE@AAV?$allocator@U?$_Tree_node@V?$basic_string@DU?$char_traits@D@std@@V?$allocator@D@2@@std@@PAX@std@@@1@PAU?$_Tree_node@V?$basic_string@DU?$char_traits@D@std@@V?$allocator@D@2@@std@@PAX@1@$$QAV?$basic_string@DU?$char_traits@D@std@@V?$allocator@D@2@@1@@Z DD 019930522H
	DD	01H
	DD	FLAT:__unwindtable$??$?0V?$basic_string@DU?$char_traits@D@std@@V?$allocator@D@2@@std@@@?$_Tree_temp_node@V?$allocator@U?$_Tree_node@V?$basic_string@DU?$char_traits@D@std@@V?$allocator@D@2@@std@@PAX@std@@@std@@@std@@QAE@AAV?$allocator@U?$_Tree_node@V?$basic_string@DU?$char_traits@D@std@@V?$allocator@D@2@@std@@PAX@std@@@1@PAU?$_Tree_node@V?$basic_string@DU?$char_traits@D@std@@V?$allocator@D@2@@std@@PAX@1@$$QAV?$basic_string@DU?$char_traits@D@std@@V?$allocator@D@2@@1@@Z
	DD	2 DUP(00H)
	DD	2 DUP(00H)
	DD	00H
	DD	01H
xdata$x	ENDS
;	COMDAT xdata$x
xdata$x	SEGMENT
__unwindtable$??0?$_Tree_temp_node_alloc@V?$allocator@U?$_Tree_node@V?$basic_string@DU?$char_traits@D@std@@V?$allocator@D@2@@std@@PAX@std@@@std@@@std@@QAE@AAV?$allocator@U?$_Tree_node@V?$basic_string@DU?$char_traits@D@std@@V?$allocator@D@2@@std@@PAX@std@@@1@@Z DD 0ffffffffH
	DD	FLAT:__unwindfunclet$??0?$_Tree_temp_node_alloc@V?$allocator@U?$_Tree_node@V?$basic_string@DU?$char_traits@D@std@@V?$allocator@D@2@@std@@PAX@std@@@std@@@std@@QAE@AAV?$allocator@U?$_Tree_node@V?$basic_string@DU?$char_traits@D@std@@V?$allocator@D@2@@std@@PAX@std@@@1@@Z$0
__ehfuncinfo$??0?$_Tree_temp_node_alloc@V?$allocator@U?$_Tree_node@V?$basic_string@DU?$char_traits@D@std@@V?$allocator@D@2@@std@@PAX@std@@@std@@@std@@QAE@AAV?$allocator@U?$_Tree_node@V?$basic_string@DU?$char_traits@D@std@@V?$allocator@D@2@@std@@PAX@std@@@1@@Z DD 019930522H
	DD	01H
	DD	FLAT:__unwindtable$??0?$_Tree_temp_node_alloc@V?$allocator@U?$_Tree_node@V?$basic_string@DU?$char_traits@D@std@@V?$allocator@D@2@@std@@PAX@std@@@std@@@std@@QAE@AAV?$allocator@U?$_Tree_node@V?$basic_string@DU?$char_traits@D@std@@V?$allocator@D@2@@std@@PAX@std@@@1@@Z
	DD	2 DUP(00H)
	DD	2 DUP(00H)
	DD	00H
	DD	01H
xdata$x	ENDS
;	COMDAT xdata$x
xdata$x	SEGMENT
__unwindtable$??$_Emplace@U?$pair@KUSChatSet@CPythonChat@@@std@@@?$_Tree@V?$_Tmap_traits@HUSChatSet@CPythonChat@@U?$less@H@std@@V?$allocator@U?$pair@$$CBHUSChatSet@CPythonChat@@@std@@@4@$0A@@std@@@std@@IAE?AU?$pair@PAU?$_Tree_node@U?$pair@$$CBHUSChatSet@CPythonChat@@@std@@PAX@std@@_N@1@$$QAU?$pair@KUSChatSet@CPythonChat@@@1@@Z DD 0ffffffffH
	DD	FLAT:__unwindfunclet$??$_Emplace@U?$pair@KUSChatSet@CPythonChat@@@std@@@?$_Tree@V?$_Tmap_traits@HUSChatSet@CPythonChat@@U?$less@H@std@@V?$allocator@U?$pair@$$CBHUSChatSet@CPythonChat@@@std@@@4@$0A@@std@@@std@@IAE?AU?$pair@PAU?$_Tree_node@U?$pair@$$CBHUSChatSet@CPythonChat@@@std@@PAX@std@@_N@1@$$QAU?$pair@KUSChatSet@CPythonChat@@@1@@Z$2
	DD	0ffffffffH
	DD	FLAT:__unwindfunclet$??$_Emplace@U?$pair@KUSChatSet@CPythonChat@@@std@@@?$_Tree@V?$_Tmap_traits@HUSChatSet@CPythonChat@@U?$less@H@std@@V?$allocator@U?$pair@$$CBHUSChatSet@CPythonChat@@@std@@@4@$0A@@std@@@std@@IAE?AU?$pair@PAU?$_Tree_node@U?$pair@$$CBHUSChatSet@CPythonChat@@@std@@PAX@std@@_N@1@$$QAU?$pair@KUSChatSet@CPythonChat@@@1@@Z$1
	DD	0ffffffffH
	DD	FLAT:__unwindfunclet$??$_Emplace@U?$pair@KUSChatSet@CPythonChat@@@std@@@?$_Tree@V?$_Tmap_traits@HUSChatSet@CPythonChat@@U?$less@H@std@@V?$allocator@U?$pair@$$CBHUSChatSet@CPythonChat@@@std@@@4@$0A@@std@@@std@@IAE?AU?$pair@PAU?$_Tree_node@U?$pair@$$CBHUSChatSet@CPythonChat@@@std@@PAX@std@@_N@1@$$QAU?$pair@KUSChatSet@CPythonChat@@@1@@Z$0
__ehfuncinfo$??$_Emplace@U?$pair@KUSChatSet@CPythonChat@@@std@@@?$_Tree@V?$_Tmap_traits@HUSChatSet@CPythonChat@@U?$less@H@std@@V?$allocator@U?$pair@$$CBHUSChatSet@CPythonChat@@@std@@@4@$0A@@std@@@std@@IAE?AU?$pair@PAU?$_Tree_node@U?$pair@$$CBHUSChatSet@CPythonChat@@@std@@PAX@std@@_N@1@$$QAU?$pair@KUSChatSet@CPythonChat@@@1@@Z DD 019930522H
	DD	03H
	DD	FLAT:__unwindtable$??$_Emplace@U?$pair@KUSChatSet@CPythonChat@@@std@@@?$_Tree@V?$_Tmap_traits@HUSChatSet@CPythonChat@@U?$less@H@std@@V?$allocator@U?$pair@$$CBHUSChatSet@CPythonChat@@@std@@@4@$0A@@std@@@std@@IAE?AU?$pair@PAU?$_Tree_node@U?$pair@$$CBHUSChatSet@CPythonChat@@@std@@PAX@std@@_N@1@$$QAU?$pair@KUSChatSet@CPythonChat@@@1@@Z
	DD	2 DUP(00H)
	DD	2 DUP(00H)
	DD	00H
	DD	01H
xdata$x	ENDS
;	COMDAT xdata$x
xdata$x	SEGMENT
__unwindtable$??$?0ABQAUSChatLine@CPythonChat@@@?$_List_node_emplace_op2@V?$allocator@U?$_List_node@PAUSChatLine@CPythonChat@@PAX@std@@@std@@@std@@QAE@AAV?$allocator@U?$_List_node@PAUSChatLine@CPythonChat@@PAX@std@@@1@ABQAUSChatLine@CPythonChat@@@Z DD 0ffffffffH
	DD	FLAT:__unwindfunclet$??$?0ABQAUSChatLine@CPythonChat@@@?$_List_node_emplace_op2@V?$allocator@U?$_List_node@PAUSChatLine@CPythonChat@@PAX@std@@@std@@@std@@QAE@AAV?$allocator@U?$_List_node@PAUSChatLine@CPythonChat@@PAX@std@@@1@ABQAUSChatLine@CPythonChat@@@Z$0
__ehfuncinfo$??$?0ABQAUSChatLine@CPythonChat@@@?$_List_node_emplace_op2@V?$allocator@U?$_List_node@PAUSChatLine@CPythonChat@@PAX@std@@@std@@@std@@QAE@AAV?$allocator@U?$_List_node@PAUSChatLine@CPythonChat@@PAX@std@@@1@ABQAUSChatLine@CPythonChat@@@Z DD 019930522H
	DD	01H
	DD	FLAT:__unwindtable$??$?0ABQAUSChatLine@CPythonChat@@@?$_List_node_emplace_op2@V?$allocator@U?$_List_node@PAUSChatLine@CPythonChat@@PAX@std@@@std@@@std@@QAE@AAV?$allocator@U?$_List_node@PAUSChatLine@CPythonChat@@PAX@std@@@1@ABQAUSChatLine@CPythonChat@@@Z
	DD	2 DUP(00H)
	DD	2 DUP(00H)
	DD	00H
	DD	01H
xdata$x	ENDS
;	COMDAT xdata$x
xdata$x	SEGMENT
__unwindtable$??$?0ABUSWaitChat@CPythonChat@@@?$_List_node_emplace_op2@V?$allocator@U?$_List_node@USWaitChat@CPythonChat@@PAX@std@@@std@@@std@@QAE@AAV?$allocator@U?$_List_node@USWaitChat@CPythonChat@@PAX@std@@@1@ABUSWaitChat@CPythonChat@@@Z DD 0ffffffffH
	DD	FLAT:__unwindfunclet$??$?0ABUSWaitChat@CPythonChat@@@?$_List_node_emplace_op2@V?$allocator@U?$_List_node@USWaitChat@CPythonChat@@PAX@std@@@std@@@std@@QAE@AAV?$allocator@U?$_List_node@USWaitChat@CPythonChat@@PAX@std@@@1@ABUSWaitChat@CPythonChat@@@Z$0
__ehfuncinfo$??$?0ABUSWaitChat@CPythonChat@@@?$_List_node_emplace_op2@V?$allocator@U?$_List_node@USWaitChat@CPythonChat@@PAX@std@@@std@@@std@@QAE@AAV?$allocator@U?$_List_node@USWaitChat@CPythonChat@@PAX@std@@@1@ABUSWaitChat@CPythonChat@@@Z DD 019930522H
	DD	01H
	DD	FLAT:__unwindtable$??$?0ABUSWaitChat@CPythonChat@@@?$_List_node_emplace_op2@V?$allocator@U?$_List_node@USWaitChat@CPythonChat@@PAX@std@@@std@@@std@@QAE@AAV?$allocator@U?$_List_node@USWaitChat@CPythonChat@@PAX@std@@@1@ABUSWaitChat@CPythonChat@@@Z
	DD	2 DUP(00H)
	DD	2 DUP(00H)
	DD	00H
	DD	01H
xdata$x	ENDS
;	COMDAT xdata$x
xdata$x	SEGMENT
__unwindtable$??$_Emplace@U?$pair@$$CBV?$basic_string@DU?$char_traits@D@std@@V?$allocator@D@2@@std@@PAVCWhisper@@@std@@@?$_Tree@V?$_Tmap_traits@V?$basic_string@DU?$char_traits@D@std@@V?$allocator@D@2@@std@@PAVCWhisper@@U?$less@V?$basic_string@DU?$char_traits@D@std@@V?$allocator@D@2@@std@@@2@V?$allocator@U?$pair@$$CBV?$basic_string@DU?$char_traits@D@std@@V?$allocator@D@2@@std@@PAVCWhisper@@@std@@@2@$0A@@std@@@std@@IAE?AU?$pair@PAU?$_Tree_node@U?$pair@$$CBV?$basic_string@DU?$char_traits@D@std@@V?$allocator@D@2@@std@@PAVCWhisper@@@std@@PAX@std@@_N@1@$$QAU?$pair@$$CBV?$basic_string@DU?$char_traits@D@std@@V?$allocator@D@2@@std@@PAVCWhisper@@@1@@Z DD 0ffffffffH
	DD	FLAT:__unwindfunclet$??$_Emplace@U?$pair@$$CBV?$basic_string@DU?$char_traits@D@std@@V?$allocator@D@2@@std@@PAVCWhisper@@@std@@@?$_Tree@V?$_Tmap_traits@V?$basic_string@DU?$char_traits@D@std@@V?$allocator@D@2@@std@@PAVCWhisper@@U?$less@V?$basic_string@DU?$char_traits@D@std@@V?$allocator@D@2@@std@@@2@V?$allocator@U?$pair@$$CBV?$basic_string@DU?$char_traits@D@std@@V?$allocator@D@2@@std@@PAVCWhisper@@@std@@@2@$0A@@std@@@std@@IAE?AU?$pair@PAU?$_Tree_node@U?$pair@$$CBV?$basic_string@DU?$char_traits@D@std@@V?$allocator@D@2@@std@@PAVCWhisper@@@std@@PAX@std@@_N@1@$$QAU?$pair@$$CBV?$basic_string@DU?$char_traits@D@std@@V?$allocator@D@2@@std@@PAVCWhisper@@@1@@Z$2
	DD	0ffffffffH
	DD	FLAT:__unwindfunclet$??$_Emplace@U?$pair@$$CBV?$basic_string@DU?$char_traits@D@std@@V?$allocator@D@2@@std@@PAVCWhisper@@@std@@@?$_Tree@V?$_Tmap_traits@V?$basic_string@DU?$char_traits@D@std@@V?$allocator@D@2@@std@@PAVCWhisper@@U?$less@V?$basic_string@DU?$char_traits@D@std@@V?$allocator@D@2@@std@@@2@V?$allocator@U?$pair@$$CBV?$basic_string@DU?$char_traits@D@std@@V?$allocator@D@2@@std@@PAVCWhisper@@@std@@@2@$0A@@std@@@std@@IAE?AU?$pair@PAU?$_Tree_node@U?$pair@$$CBV?$basic_string@DU?$char_traits@D@std@@V?$allocator@D@2@@std@@PAVCWhisper@@@std@@PAX@std@@_N@1@$$QAU?$pair@$$CBV?$basic_string@DU?$char_traits@D@std@@V?$allocator@D@2@@std@@PAVCWhisper@@@1@@Z$1
__ehfuncinfo$??$_Emplace@U?$pair@$$CBV?$basic_string@DU?$char_traits@D@std@@V?$allocator@D@2@@std@@PAVCWhisper@@@std@@@?$_Tree@V?$_Tmap_traits@V?$basic_string@DU?$char_traits@D@std@@V?$allocator@D@2@@std@@PAVCWhisper@@U?$less@V?$basic_string@DU?$char_traits@D@std@@V?$allocator@D@2@@std@@@2@V?$allocator@U?$pair@$$CBV?$basic_string@DU?$char_traits@D@std@@V?$allocator@D@2@@std@@PAVCWhisper@@@std@@@2@$0A@@std@@@std@@IAE?AU?$pair@PAU?$_Tree_node@U?$pair@$$CBV?$basic_string@DU?$char_traits@D@std@@V?$allocator@D@2@@std@@PAVCWhisper@@@std@@PAX@std@@_N@1@$$QAU?$pair@$$CBV?$basic_string@DU?$char_traits@D@std@@V?$allocator@D@2@@std@@PAVCWhisper@@@1@@Z DD 019930522H
	DD	02H
	DD	FLAT:__unwindtable$??$_Emplace@U?$pair@$$CBV?$basic_string@DU?$char_traits@D@std@@V?$allocator@D@2@@std@@PAVCWhisper@@@std@@@?$_Tree@V?$_Tmap_traits@V?$basic_string@DU?$char_traits@D@std@@V?$allocator@D@2@@std@@PAVCWhisper@@U?$less@V?$basic_string@DU?$char_traits@D@std@@V?$allocator@D@2@@std@@@2@V?$allocator@U?$pair@$$CBV?$basic_string@DU?$char_traits@D@std@@V?$allocator@D@2@@std@@PAVCWhisper@@@std@@@2@$0A@@std@@@std@@IAE?AU?$pair@PAU?$_Tree_node@U?$pair@$$CBV?$basic_string@DU?$char_traits@D@std@@V?$allocator@D@2@@std@@PAVCWhisper@@@std@@PAX@std@@_N@1@$$QAU?$pair@$$CBV?$basic_string@DU?$char_traits@D@std@@V?$allocator@D@2@@std@@PAVCWhisper@@@1@@Z
	DD	2 DUP(00H)
	DD	2 DUP(00H)
	DD	00H
	DD	01H
xdata$x	ENDS
;	COMDAT xdata$x
xdata$x	SEGMENT
__unwindtable$??$_Emplace@V?$basic_string@DU?$char_traits@D@std@@V?$allocator@D@2@@std@@@?$_Tree@V?$_Tset_traits@V?$basic_string@DU?$char_traits@D@std@@V?$allocator@D@2@@std@@U?$less@V?$basic_string@DU?$char_traits@D@std@@V?$allocator@D@2@@std@@@2@V?$allocator@V?$basic_string@DU?$char_traits@D@std@@V?$allocator@D@2@@std@@@2@$0A@@std@@@std@@IAE?AU?$pair@PAU?$_Tree_node@V?$basic_string@DU?$char_traits@D@std@@V?$allocator@D@2@@std@@PAX@std@@_N@1@$$QAV?$basic_string@DU?$char_traits@D@std@@V?$allocator@D@2@@1@@Z DD 0ffffffffH
	DD	FLAT:__unwindfunclet$??$_Emplace@V?$basic_string@DU?$char_traits@D@std@@V?$allocator@D@2@@std@@@?$_Tree@V?$_Tset_traits@V?$basic_string@DU?$char_traits@D@std@@V?$allocator@D@2@@std@@U?$less@V?$basic_string@DU?$char_traits@D@std@@V?$allocator@D@2@@std@@@2@V?$allocator@V?$basic_string@DU?$char_traits@D@std@@V?$allocator@D@2@@std@@@2@$0A@@std@@@std@@IAE?AU?$pair@PAU?$_Tree_node@V?$basic_string@DU?$char_traits@D@std@@V?$allocator@D@2@@std@@PAX@std@@_N@1@$$QAV?$basic_string@DU?$char_traits@D@std@@V?$allocator@D@2@@1@@Z$2
__ehfuncinfo$??$_Emplace@V?$basic_string@DU?$char_traits@D@std@@V?$allocator@D@2@@std@@@?$_Tree@V?$_Tset_traits@V?$basic_string@DU?$char_traits@D@std@@V?$allocator@D@2@@std@@U?$less@V?$basic_string@DU?$char_traits@D@std@@V?$allocator@D@2@@std@@@2@V?$allocator@V?$basic_string@DU?$char_traits@D@std@@V?$allocator@D@2@@std@@@2@$0A@@std@@@std@@IAE?AU?$pair@PAU?$_Tree_node@V?$basic_string@DU?$char_traits@D@std@@V?$allocator@D@2@@std@@PAX@std@@_N@1@$$QAV?$basic_string@DU?$char_traits@D@std@@V?$allocator@D@2@@1@@Z DD 019930522H
	DD	01H
	DD	FLAT:__unwindtable$??$_Emplace@V?$basic_string@DU?$char_traits@D@std@@V?$allocator@D@2@@std@@@?$_Tree@V?$_Tset_traits@V?$basic_string@DU?$char_traits@D@std@@V?$allocator@D@2@@std@@U?$less@V?$basic_string@DU?$char_traits@D@std@@V?$allocator@D@2@@std@@@2@V?$allocator@V?$basic_string@DU?$char_traits@D@std@@V?$allocator@D@2@@std@@@2@$0A@@std@@@std@@IAE?AU?$pair@PAU?$_Tree_node@V?$basic_string@DU?$char_traits@D@std@@V?$allocator@D@2@@std@@PAX@std@@_N@1@$$QAV?$basic_string@DU?$char_traits@D@std@@V?$allocator@D@2@@1@@Z
	DD	2 DUP(00H)
	DD	2 DUP(00H)
	DD	00H
	DD	01H
xdata$x	ENDS
;	COMDAT xdata$x
xdata$x	SEGMENT
__unwindtable$??$emplace@U?$pair@KUSChatSet@CPythonChat@@@std@@@?$_Tree@V?$_Tmap_traits@HUSChatSet@CPythonChat@@U?$less@H@std@@V?$allocator@U?$pair@$$CBHUSChatSet@CPythonChat@@@std@@@4@$0A@@std@@@std@@QAE?AU?$pair@V?$_Tree_iterator@V?$_Tree_val@U?$_Tree_simple_types@U?$pair@$$CBHUSChatSet@CPythonChat@@@std@@@std@@@std@@@std@@_N@1@$$QAU?$pair@KUSChatSet@CPythonChat@@@1@@Z DD 0ffffffffH
	DD	FLAT:__unwindfunclet$??$emplace@U?$pair@KUSChatSet@CPythonChat@@@std@@@?$_Tree@V?$_Tmap_traits@HUSChatSet@CPythonChat@@U?$less@H@std@@V?$allocator@U?$pair@$$CBHUSChatSet@CPythonChat@@@std@@@4@$0A@@std@@@std@@QAE?AU?$pair@V?$_Tree_iterator@V?$_Tree_val@U?$_Tree_simple_types@U?$pair@$$CBHUSChatSet@CPythonChat@@@std@@@std@@@std@@@std@@_N@1@$$QAU?$pair@KUSChatSet@CPythonChat@@@1@@Z$2
	DD	0ffffffffH
	DD	FLAT:__unwindfunclet$??$emplace@U?$pair@KUSChatSet@CPythonChat@@@std@@@?$_Tree@V?$_Tmap_traits@HUSChatSet@CPythonChat@@U?$less@H@std@@V?$allocator@U?$pair@$$CBHUSChatSet@CPythonChat@@@std@@@4@$0A@@std@@@std@@QAE?AU?$pair@V?$_Tree_iterator@V?$_Tree_val@U?$_Tree_simple_types@U?$pair@$$CBHUSChatSet@CPythonChat@@@std@@@std@@@std@@@std@@_N@1@$$QAU?$pair@KUSChatSet@CPythonChat@@@1@@Z$1
	DD	0ffffffffH
	DD	FLAT:__unwindfunclet$??$emplace@U?$pair@KUSChatSet@CPythonChat@@@std@@@?$_Tree@V?$_Tmap_traits@HUSChatSet@CPythonChat@@U?$less@H@std@@V?$allocator@U?$pair@$$CBHUSChatSet@CPythonChat@@@std@@@4@$0A@@std@@@std@@QAE?AU?$pair@V?$_Tree_iterator@V?$_Tree_val@U?$_Tree_simple_types@U?$pair@$$CBHUSChatSet@CPythonChat@@@std@@@std@@@std@@@std@@_N@1@$$QAU?$pair@KUSChatSet@CPythonChat@@@1@@Z$0
__ehfuncinfo$??$emplace@U?$pair@KUSChatSet@CPythonChat@@@std@@@?$_Tree@V?$_Tmap_traits@HUSChatSet@CPythonChat@@U?$less@H@std@@V?$allocator@U?$pair@$$CBHUSChatSet@CPythonChat@@@std@@@4@$0A@@std@@@std@@QAE?AU?$pair@V?$_Tree_iterator@V?$_Tree_val@U?$_Tree_simple_types@U?$pair@$$CBHUSChatSet@CPythonChat@@@std@@@std@@@std@@@std@@_N@1@$$QAU?$pair@KUSChatSet@CPythonChat@@@1@@Z DD 019930522H
	DD	03H
	DD	FLAT:__unwindtable$??$emplace@U?$pair@KUSChatSet@CPythonChat@@@std@@@?$_Tree@V?$_Tmap_traits@HUSChatSet@CPythonChat@@U?$less@H@std@@V?$allocator@U?$pair@$$CBHUSChatSet@CPythonChat@@@std@@@4@$0A@@std@@@std@@QAE?AU?$pair@V?$_Tree_iterator@V?$_Tree_val@U?$_Tree_simple_types@U?$pair@$$CBHUSChatSet@CPythonChat@@@std@@@std@@@std@@@std@@_N@1@$$QAU?$pair@KUSChatSet@CPythonChat@@@1@@Z
	DD	2 DUP(00H)
	DD	2 DUP(00H)
	DD	00H
	DD	01H
xdata$x	ENDS
;	COMDAT xdata$x
xdata$x	SEGMENT
__unwindtable$??$_Emplace@ABQAUSChatLine@CPythonChat@@@?$list@PAUSChatLine@CPythonChat@@V?$allocator@PAUSChatLine@CPythonChat@@@std@@@std@@QAEPAU?$_List_node@PAUSChatLine@CPythonChat@@PAX@1@QAU21@ABQAUSChatLine@CPythonChat@@@Z DD 0ffffffffH
	DD	FLAT:__unwindfunclet$??$_Emplace@ABQAUSChatLine@CPythonChat@@@?$list@PAUSChatLine@CPythonChat@@V?$allocator@PAUSChatLine@CPythonChat@@@std@@@std@@QAEPAU?$_List_node@PAUSChatLine@CPythonChat@@PAX@1@QAU21@ABQAUSChatLine@CPythonChat@@@Z$1
__ehfuncinfo$??$_Emplace@ABQAUSChatLine@CPythonChat@@@?$list@PAUSChatLine@CPythonChat@@V?$allocator@PAUSChatLine@CPythonChat@@@std@@@std@@QAEPAU?$_List_node@PAUSChatLine@CPythonChat@@PAX@1@QAU21@ABQAUSChatLine@CPythonChat@@@Z DD 019930522H
	DD	01H
	DD	FLAT:__unwindtable$??$_Emplace@ABQAUSChatLine@CPythonChat@@@?$list@PAUSChatLine@CPythonChat@@V?$allocator@PAUSChatLine@CPythonChat@@@std@@@std@@QAEPAU?$_List_node@PAUSChatLine@CPythonChat@@PAX@1@QAU21@ABQAUSChatLine@CPythonChat@@@Z
	DD	2 DUP(00H)
	DD	2 DUP(00H)
	DD	00H
	DD	01H
xdata$x	ENDS
;	COMDAT xdata$x
xdata$x	SEGMENT
__unwindtable$??$_Emplace@ABUSWaitChat@CPythonChat@@@?$list@USWaitChat@CPythonChat@@V?$allocator@USWaitChat@CPythonChat@@@std@@@std@@QAEPAU?$_List_node@USWaitChat@CPythonChat@@PAX@1@QAU21@ABUSWaitChat@CPythonChat@@@Z DD 0ffffffffH
	DD	FLAT:__unwindfunclet$??$_Emplace@ABUSWaitChat@CPythonChat@@@?$list@USWaitChat@CPythonChat@@V?$allocator@USWaitChat@CPythonChat@@@std@@@std@@QAEPAU?$_List_node@USWaitChat@CPythonChat@@PAX@1@QAU21@ABUSWaitChat@CPythonChat@@@Z$1
__ehfuncinfo$??$_Emplace@ABUSWaitChat@CPythonChat@@@?$list@USWaitChat@CPythonChat@@V?$allocator@USWaitChat@CPythonChat@@@std@@@std@@QAEPAU?$_List_node@USWaitChat@CPythonChat@@PAX@1@QAU21@ABUSWaitChat@CPythonChat@@@Z DD 019930522H
	DD	01H
	DD	FLAT:__unwindtable$??$_Emplace@ABUSWaitChat@CPythonChat@@@?$list@USWaitChat@CPythonChat@@V?$allocator@USWaitChat@CPythonChat@@@std@@@std@@QAEPAU?$_List_node@USWaitChat@CPythonChat@@PAX@1@QAU21@ABUSWaitChat@CPythonChat@@@Z
	DD	2 DUP(00H)
	DD	2 DUP(00H)
	DD	00H
	DD	01H
xdata$x	ENDS
;	COMDAT xdata$x
xdata$x	SEGMENT
__unwindtable$?Delete@?$CDynamicPool@USChatLine@CWhisper@@@@KAXPAUSChatLine@CWhisper@@@Z DD 0ffffffffH
	DD	FLAT:___std_terminate
__ehfuncinfo$?Delete@?$CDynamicPool@USChatLine@CWhisper@@@@KAXPAUSChatLine@CWhisper@@@Z DD 019930522H
	DD	01H
	DD	FLAT:__unwindtable$?Delete@?$CDynamicPool@USChatLine@CWhisper@@@@KAXPAUSChatLine@CWhisper@@@Z
	DD	2 DUP(00H)
	DD	2 DUP(00H)
	DD	00H
	DD	01H
xdata$x	ENDS
;	COMDAT xdata$x
xdata$x	SEGMENT
__unwindtable$?Alloc@?$CDynamicPool@USChatLine@CWhisper@@@@QAEPAUSChatLine@CWhisper@@XZ DD 0ffffffffH
	DD	FLAT:__unwindfunclet$?Alloc@?$CDynamicPool@USChatLine@CWhisper@@@@QAEPAUSChatLine@CWhisper@@XZ$0
__ehfuncinfo$?Alloc@?$CDynamicPool@USChatLine@CWhisper@@@@QAEPAUSChatLine@CWhisper@@XZ DD 019930522H
	DD	01H
	DD	FLAT:__unwindtable$?Alloc@?$CDynamicPool@USChatLine@CWhisper@@@@QAEPAUSChatLine@CWhisper@@XZ
	DD	2 DUP(00H)
	DD	2 DUP(00H)
	DD	00H
	DD	01H
xdata$x	ENDS
;	COMDAT xdata$x
xdata$x	SEGMENT
__unwindtable$?Destroy@?$CDynamicPool@USChatLine@CWhisper@@@@QAEXXZ DD 0ffffffffH
	DD	FLAT:___std_terminate
__ehfuncinfo$?Destroy@?$CDynamicPool@USChatLine@CWhisper@@@@QAEXXZ DD 019930522H
	DD	01H
	DD	FLAT:__unwindtable$?Destroy@?$CDynamicPool@USChatLine@CWhisper@@@@QAEXXZ
	DD	2 DUP(00H)
	DD	2 DUP(00H)
	DD	00H
	DD	01H
xdata$x	ENDS
;	COMDAT xdata$x
xdata$x	SEGMENT
__unwindtable$?Alloc@?$CDynamicPool@VCWhisper@@@@QAEPAVCWhisper@@XZ DD 0ffffffffH
	DD	FLAT:__unwindfunclet$?Alloc@?$CDynamicPool@VCWhisper@@@@QAEPAVCWhisper@@XZ$0
__ehfuncinfo$?Alloc@?$CDynamicPool@VCWhisper@@@@QAEPAVCWhisper@@XZ DD 019930522H
	DD	01H
	DD	FLAT:__unwindtable$?Alloc@?$CDynamicPool@VCWhisper@@@@QAEPAVCWhisper@@XZ
	DD	2 DUP(00H)
	DD	2 DUP(00H)
	DD	00H
	DD	01H
xdata$x	ENDS
;	COMDAT xdata$x
xdata$x	SEGMENT
__unwindtable$??$insert@$0A@$0A@@?$_Tree@V?$_Tmap_traits@V?$basic_string@DU?$char_traits@D@std@@V?$allocator@D@2@@std@@PAVCWhisper@@U?$less@V?$basic_string@DU?$char_traits@D@std@@V?$allocator@D@2@@std@@@2@V?$allocator@U?$pair@$$CBV?$basic_string@DU?$char_traits@D@std@@V?$allocator@D@2@@std@@PAVCWhisper@@@std@@@2@$0A@@std@@@std@@QAE?AU?$pair@V?$_Tree_iterator@V?$_Tree_val@U?$_Tree_simple_types@U?$pair@$$CBV?$basic_string@DU?$char_traits@D@std@@V?$allocator@D@2@@std@@PAVCWhisper@@@std@@@std@@@std@@@std@@_N@1@$$QAU?$pair@$$CBV?$basic_string@DU?$char_traits@D@std@@V?$allocator@D@2@@std@@PAVCWhisper@@@1@@Z DD 0ffffffffH
	DD	FLAT:__unwindfunclet$??$insert@$0A@$0A@@?$_Tree@V?$_Tmap_traits@V?$basic_string@DU?$char_traits@D@std@@V?$allocator@D@2@@std@@PAVCWhisper@@U?$less@V?$basic_string@DU?$char_traits@D@std@@V?$allocator@D@2@@std@@@2@V?$allocator@U?$pair@$$CBV?$basic_string@DU?$char_traits@D@std@@V?$allocator@D@2@@std@@PAVCWhisper@@@std@@@2@$0A@@std@@@std@@QAE?AU?$pair@V?$_Tree_iterator@V?$_Tree_val@U?$_Tree_simple_types@U?$pair@$$CBV?$basic_string@DU?$char_traits@D@std@@V?$allocator@D@2@@std@@PAVCWhisper@@@std@@@std@@@std@@@std@@_N@1@$$QAU?$pair@$$CBV?$basic_string@DU?$char_traits@D@std@@V?$allocator@D@2@@std@@PAVCWhisper@@@1@@Z$2
	DD	0ffffffffH
	DD	FLAT:__unwindfunclet$??$insert@$0A@$0A@@?$_Tree@V?$_Tmap_traits@V?$basic_string@DU?$char_traits@D@std@@V?$allocator@D@2@@std@@PAVCWhisper@@U?$less@V?$basic_string@DU?$char_traits@D@std@@V?$allocator@D@2@@std@@@2@V?$allocator@U?$pair@$$CBV?$basic_string@DU?$char_traits@D@std@@V?$allocator@D@2@@std@@PAVCWhisper@@@std@@@2@$0A@@std@@@std@@QAE?AU?$pair@V?$_Tree_iterator@V?$_Tree_val@U?$_Tree_simple_types@U?$pair@$$CBV?$basic_string@DU?$char_traits@D@std@@V?$allocator@D@2@@std@@PAVCWhisper@@@std@@@std@@@std@@@std@@_N@1@$$QAU?$pair@$$CBV?$basic_string@DU?$char_traits@D@std@@V?$allocator@D@2@@std@@PAVCWhisper@@@1@@Z$1
__ehfuncinfo$??$insert@$0A@$0A@@?$_Tree@V?$_Tmap_traits@V?$basic_string@DU?$char_traits@D@std@@V?$allocator@D@2@@std@@PAVCWhisper@@U?$less@V?$basic_string@DU?$char_traits@D@std@@V?$allocator@D@2@@std@@@2@V?$allocator@U?$pair@$$CBV?$basic_string@DU?$char_traits@D@std@@V?$allocator@D@2@@std@@PAVCWhisper@@@std@@@2@$0A@@std@@@std@@QAE?AU?$pair@V?$_Tree_iterator@V?$_Tree_val@U?$_Tree_simple_types@U?$pair@$$CBV?$basic_string@DU?$char_traits@D@std@@V?$allocator@D@2@@std@@PAVCWhisper@@@std@@@std@@@std@@@std@@_N@1@$$QAU?$pair@$$CBV?$basic_string@DU?$char_traits@D@std@@V?$allocator@D@2@@std@@PAVCWhisper@@@1@@Z DD 019930522H
	DD	02H
	DD	FLAT:__unwindtable$??$insert@$0A@$0A@@?$_Tree@V?$_Tmap_traits@V?$basic_string@DU?$char_traits@D@std@@V?$allocator@D@2@@std@@PAVCWhisper@@U?$less@V?$basic_string@DU?$char_traits@D@std@@V?$allocator@D@2@@std@@@2@V?$allocator@U?$pair@$$CBV?$basic_string@DU?$char_traits@D@std@@V?$allocator@D@2@@std@@PAVCWhisper@@@std@@@2@$0A@@std@@@std@@QAE?AU?$pair@V?$_Tree_iterator@V?$_Tree_val@U?$_Tree_simple_types@U?$pair@$$CBV?$basic_string@DU?$char_traits@D@std@@V?$allocator@D@2@@std@@PAVCWhisper@@@std@@@std@@@std@@@std@@_N@1@$$QAU?$pair@$$CBV?$basic_string@DU?$char_traits@D@std@@V?$allocator@D@2@@std@@PAVCWhisper@@@1@@Z
	DD	2 DUP(00H)
	DD	2 DUP(00H)
	DD	00H
	DD	01H
xdata$x	ENDS
;	COMDAT xdata$x
xdata$x	SEGMENT
__unwindtable$??$insert@$0A@$0A@@?$_Tree@V?$_Tset_traits@V?$basic_string@DU?$char_traits@D@std@@V?$allocator@D@2@@std@@U?$less@V?$basic_string@DU?$char_traits@D@std@@V?$allocator@D@2@@std@@@2@V?$allocator@V?$basic_string@DU?$char_traits@D@std@@V?$allocator@D@2@@std@@@2@$0A@@std@@@std@@QAE?AU?$pair@V?$_Tree_const_iterator@V?$_Tree_val@U?$_Tree_simple_types@V?$basic_string@DU?$char_traits@D@std@@V?$allocator@D@2@@std@@@std@@@std@@@std@@_N@1@$$QAV?$basic_string@DU?$char_traits@D@std@@V?$allocator@D@2@@1@@Z DD 0ffffffffH
	DD	FLAT:__unwindfunclet$??$insert@$0A@$0A@@?$_Tree@V?$_Tset_traits@V?$basic_string@DU?$char_traits@D@std@@V?$allocator@D@2@@std@@U?$less@V?$basic_string@DU?$char_traits@D@std@@V?$allocator@D@2@@std@@@2@V?$allocator@V?$basic_string@DU?$char_traits@D@std@@V?$allocator@D@2@@std@@@2@$0A@@std@@@std@@QAE?AU?$pair@V?$_Tree_const_iterator@V?$_Tree_val@U?$_Tree_simple_types@V?$basic_string@DU?$char_traits@D@std@@V?$allocator@D@2@@std@@@std@@@std@@@std@@_N@1@$$QAV?$basic_string@DU?$char_traits@D@std@@V?$allocator@D@2@@1@@Z$2
__ehfuncinfo$??$insert@$0A@$0A@@?$_Tree@V?$_Tset_traits@V?$basic_string@DU?$char_traits@D@std@@V?$allocator@D@2@@std@@U?$less@V?$basic_string@DU?$char_traits@D@std@@V?$allocator@D@2@@std@@@2@V?$allocator@V?$basic_string@DU?$char_traits@D@std@@V?$allocator@D@2@@std@@@2@$0A@@std@@@std@@QAE?AU?$pair@V?$_Tree_const_iterator@V?$_Tree_val@U?$_Tree_simple_types@V?$basic_string@DU?$char_traits@D@std@@V?$allocator@D@2@@std@@@std@@@std@@@std@@_N@1@$$QAV?$basic_string@DU?$char_traits@D@std@@V?$allocator@D@2@@1@@Z DD 019930522H
	DD	01H
	DD	FLAT:__unwindtable$??$insert@$0A@$0A@@?$_Tree@V?$_Tset_traits@V?$basic_string@DU?$char_traits@D@std@@V?$allocator@D@2@@std@@U?$less@V?$basic_string@DU?$char_traits@D@std@@V?$allocator@D@2@@std@@@2@V?$allocator@V?$basic_string@DU?$char_traits@D@std@@V?$allocator@D@2@@std@@@2@$0A@@std@@@std@@QAE?AU?$pair@V?$_Tree_const_iterator@V?$_Tree_val@U?$_Tree_simple_types@V?$basic_string@DU?$char_traits@D@std@@V?$allocator@D@2@@std@@@std@@@std@@@std@@_N@1@$$QAV?$basic_string@DU?$char_traits@D@std@@V?$allocator@D@2@@1@@Z
	DD	2 DUP(00H)
	DD	2 DUP(00H)
	DD	00H
	DD	01H
xdata$x	ENDS
;	COMDAT xdata$x
xdata$x	SEGMENT
__unwindtable$??$insert@U?$pair@KUSChatSet@CPythonChat@@@std@@$0A@@?$map@HUSChatSet@CPythonChat@@U?$less@H@std@@V?$allocator@U?$pair@$$CBHUSChatSet@CPythonChat@@@std@@@4@@std@@QAE?AU?$pair@V?$_Tree_iterator@V?$_Tree_val@U?$_Tree_simple_types@U?$pair@$$CBHUSChatSet@CPythonChat@@@std@@@std@@@std@@@std@@_N@1@$$QAU?$pair@KUSChatSet@CPythonChat@@@1@@Z DD 0ffffffffH
	DD	FLAT:__unwindfunclet$??$insert@U?$pair@KUSChatSet@CPythonChat@@@std@@$0A@@?$map@HUSChatSet@CPythonChat@@U?$less@H@std@@V?$allocator@U?$pair@$$CBHUSChatSet@CPythonChat@@@std@@@4@@std@@QAE?AU?$pair@V?$_Tree_iterator@V?$_Tree_val@U?$_Tree_simple_types@U?$pair@$$CBHUSChatSet@CPythonChat@@@std@@@std@@@std@@@std@@_N@1@$$QAU?$pair@KUSChatSet@CPythonChat@@@1@@Z$2
	DD	0ffffffffH
	DD	FLAT:__unwindfunclet$??$insert@U?$pair@KUSChatSet@CPythonChat@@@std@@$0A@@?$map@HUSChatSet@CPythonChat@@U?$less@H@std@@V?$allocator@U?$pair@$$CBHUSChatSet@CPythonChat@@@std@@@4@@std@@QAE?AU?$pair@V?$_Tree_iterator@V?$_Tree_val@U?$_Tree_simple_types@U?$pair@$$CBHUSChatSet@CPythonChat@@@std@@@std@@@std@@@std@@_N@1@$$QAU?$pair@KUSChatSet@CPythonChat@@@1@@Z$1
	DD	0ffffffffH
	DD	FLAT:__unwindfunclet$??$insert@U?$pair@KUSChatSet@CPythonChat@@@std@@$0A@@?$map@HUSChatSet@CPythonChat@@U?$less@H@std@@V?$allocator@U?$pair@$$CBHUSChatSet@CPythonChat@@@std@@@4@@std@@QAE?AU?$pair@V?$_Tree_iterator@V?$_Tree_val@U?$_Tree_simple_types@U?$pair@$$CBHUSChatSet@CPythonChat@@@std@@@std@@@std@@@std@@_N@1@$$QAU?$pair@KUSChatSet@CPythonChat@@@1@@Z$0
__ehfuncinfo$??$insert@U?$pair@KUSChatSet@CPythonChat@@@std@@$0A@@?$map@HUSChatSet@CPythonChat@@U?$less@H@std@@V?$allocator@U?$pair@$$CBHUSChatSet@CPythonChat@@@std@@@4@@std@@QAE?AU?$pair@V?$_Tree_iterator@V?$_Tree_val@U?$_Tree_simple_types@U?$pair@$$CBHUSChatSet@CPythonChat@@@std@@@std@@@std@@@std@@_N@1@$$QAU?$pair@KUSChatSet@CPythonChat@@@1@@Z DD 019930522H
	DD	03H
	DD	FLAT:__unwindtable$??$insert@U?$pair@KUSChatSet@CPythonChat@@@std@@$0A@@?$map@HUSChatSet@CPythonChat@@U?$less@H@std@@V?$allocator@U?$pair@$$CBHUSChatSet@CPythonChat@@@std@@@4@@std@@QAE?AU?$pair@V?$_Tree_iterator@V?$_Tree_val@U?$_Tree_simple_types@U?$pair@$$CBHUSChatSet@CPythonChat@@@std@@@std@@@std@@@std@@_N@1@$$QAU?$pair@KUSChatSet@CPythonChat@@@1@@Z
	DD	2 DUP(00H)
	DD	2 DUP(00H)
	DD	00H
	DD	01H
xdata$x	ENDS
;	COMDAT xdata$x
xdata$x	SEGMENT
__unwindtable$?Alloc@?$CDynamicPool@USChatLine@CPythonChat@@@@QAEPAUSChatLine@CPythonChat@@XZ DD 0ffffffffH
	DD	FLAT:__unwindfunclet$?Alloc@?$CDynamicPool@USChatLine@CPythonChat@@@@QAEPAUSChatLine@CPythonChat@@XZ$0
__ehfuncinfo$?Alloc@?$CDynamicPool@USChatLine@CPythonChat@@@@QAEPAUSChatLine@CPythonChat@@XZ DD 019930522H
	DD	01H
	DD	FLAT:__unwindtable$?Alloc@?$CDynamicPool@USChatLine@CPythonChat@@@@QAEPAUSChatLine@CPythonChat@@XZ
	DD	2 DUP(00H)
	DD	2 DUP(00H)
	DD	00H
	DD	01H
xdata$x	ENDS
;	COMDAT xdata$x
xdata$x	SEGMENT
__unwindtable$?push_back@?$list@USWaitChat@CPythonChat@@V?$allocator@USWaitChat@CPythonChat@@@std@@@std@@QAEXABUSWaitChat@CPythonChat@@@Z DD 0ffffffffH
	DD	FLAT:__unwindfunclet$?push_back@?$list@USWaitChat@CPythonChat@@V?$allocator@USWaitChat@CPythonChat@@@std@@@std@@QAEXABUSWaitChat@CPythonChat@@@Z$1
__ehfuncinfo$?push_back@?$list@USWaitChat@CPythonChat@@V?$allocator@USWaitChat@CPythonChat@@@std@@@std@@QAEXABUSWaitChat@CPythonChat@@@Z DD 019930522H
	DD	01H
	DD	FLAT:__unwindtable$?push_back@?$list@USWaitChat@CPythonChat@@V?$allocator@USWaitChat@CPythonChat@@@std@@@std@@QAEXABUSWaitChat@CPythonChat@@@Z
	DD	2 DUP(00H)
	DD	2 DUP(00H)
	DD	00H
	DD	01H
xdata$x	ENDS
;	COMDAT xdata$x
xdata$x	SEGMENT
__unwindtable$?InitWhisper@CPythonChat@@QAEXPAU_object@@@Z DD 0ffffffffH
	DD	FLAT:__unwindfunclet$?InitWhisper@CPythonChat@@QAEXPAU_object@@@Z$0
__ehfuncinfo$?InitWhisper@CPythonChat@@QAEXPAU_object@@@Z DD 019930522H
	DD	01H
	DD	FLAT:__unwindtable$?InitWhisper@CPythonChat@@QAEXPAU_object@@@Z
	DD	2 DUP(00H)
	DD	2 DUP(00H)
	DD	00H
	DD	01H
xdata$x	ENDS
;	COMDAT xdata$x
xdata$x	SEGMENT
__unwindtable$?CreateWhisper@CPythonChat@@QAEPAVCWhisper@@PBD@Z DD 0ffffffffH
	DD	FLAT:__unwindfunclet$?CreateWhisper@CPythonChat@@QAEPAVCWhisper@@PBD@Z$0
	DD	00H
	DD	FLAT:__unwindfunclet$?CreateWhisper@CPythonChat@@QAEPAVCWhisper@@PBD@Z$6
	DD	00H
	DD	FLAT:__unwindfunclet$?CreateWhisper@CPythonChat@@QAEPAVCWhisper@@PBD@Z$5
__ehfuncinfo$?CreateWhisper@CPythonChat@@QAEPAVCWhisper@@PBD@Z DD 019930522H
	DD	03H
	DD	FLAT:__unwindtable$?CreateWhisper@CPythonChat@@QAEPAVCWhisper@@PBD@Z
	DD	2 DUP(00H)
	DD	2 DUP(00H)
	DD	00H
	DD	01H
xdata$x	ENDS
;	COMDAT xdata$x
xdata$x	SEGMENT
__unwindtable$?IgnoreCharacter@CPythonChat@@QAEXPBD@Z DD 0ffffffffH
	DD	FLAT:__unwindfunclet$?IgnoreCharacter@CPythonChat@@QAEXPBD@Z$1
	DD	00H
	DD	FLAT:__unwindfunclet$?IgnoreCharacter@CPythonChat@@QAEXPBD@Z$10
__ehfuncinfo$?IgnoreCharacter@CPythonChat@@QAEXPBD@Z DD 019930522H
	DD	02H
	DD	FLAT:__unwindtable$?IgnoreCharacter@CPythonChat@@QAEXPBD@Z
	DD	2 DUP(00H)
	DD	2 DUP(00H)
	DD	00H
	DD	01H
xdata$x	ENDS
;	COMDAT xdata$x
xdata$x	SEGMENT
__unwindtable$?ArrangeShowingChat@CPythonChat@@QAEXK@Z DD 0ffffffffH
	DD	FLAT:__unwindfunclet$?ArrangeShowingChat@CPythonChat@@QAEXK@Z$0
__ehfuncinfo$?ArrangeShowingChat@CPythonChat@@QAEXK@Z DD 019930522H
	DD	01H
	DD	FLAT:__unwindtable$?ArrangeShowingChat@CPythonChat@@QAEXK@Z
	DD	2 DUP(00H)
	DD	2 DUP(00H)
	DD	00H
	DD	01H
xdata$x	ENDS
;	COMDAT xdata$x
xdata$x	SEGMENT
__unwindtable$?AppendChatWithDelay@CPythonChat@@QAEXHPBDH@Z DD 0ffffffffH
	DD	FLAT:__unwindfunclet$?AppendChatWithDelay@CPythonChat@@QAEXHPBDH@Z$0
	DD	00H
	DD	FLAT:__unwindfunclet$?AppendChatWithDelay@CPythonChat@@QAEXHPBDH@Z$6
__ehfuncinfo$?AppendChatWithDelay@CPythonChat@@QAEXHPBDH@Z DD 019930522H
	DD	02H
	DD	FLAT:__unwindtable$?AppendChatWithDelay@CPythonChat@@QAEXHPBDH@Z
	DD	2 DUP(00H)
	DD	2 DUP(00H)
	DD	00H
	DD	01H
xdata$x	ENDS
;	COMDAT xdata$x
xdata$x	SEGMENT
__ehfuncinfo$?CreateChatSet@CPythonChat@@QAEHK@Z DD 019930522H
	DD	07H
	DD	FLAT:__unwindtable$?CreateChatSet@CPythonChat@@QAEHK@Z
	DD	2 DUP(00H)
	DD	2 DUP(00H)
	DD	00H
	DD	01H
__unwindtable$?CreateChatSet@CPythonChat@@QAEHK@Z DD 0ffffffffH
	DD	FLAT:__unwindfunclet$?CreateChatSet@CPythonChat@@QAEHK@Z$2
	DD	00H
	DD	FLAT:__unwindfunclet$?CreateChatSet@CPythonChat@@QAEHK@Z$3
	DD	0ffffffffH
	DD	FLAT:__unwindfunclet$?CreateChatSet@CPythonChat@@QAEHK@Z$0
	DD	02H
	DD	FLAT:__unwindfunclet$?CreateChatSet@CPythonChat@@QAEHK@Z$1
	DD	03H
	DD	FLAT:__unwindfunclet$?CreateChatSet@CPythonChat@@QAEHK@Z$8
	DD	03H
	DD	FLAT:__unwindfunclet$?CreateChatSet@CPythonChat@@QAEHK@Z$7
	DD	03H
	DD	FLAT:__unwindfunclet$?CreateChatSet@CPythonChat@@QAEHK@Z$6
xdata$x	ENDS
;	COMDAT xdata$x
xdata$x	SEGMENT
__ehfuncinfo$??0CPythonChat@@QAE@XZ DD 019930522H
	DD	07H
	DD	FLAT:__unwindtable$??0CPythonChat@@QAE@XZ
	DD	2 DUP(00H)
	DD	2 DUP(00H)
	DD	00H
	DD	01H
__unwindtable$??0CPythonChat@@QAE@XZ DD 0ffffffffH
	DD	FLAT:__unwindfunclet$??0CPythonChat@@QAE@XZ$0
	DD	00H
	DD	FLAT:__unwindfunclet$??0CPythonChat@@QAE@XZ$1
	DD	01H
	DD	FLAT:__unwindfunclet$??0CPythonChat@@QAE@XZ$2
	DD	02H
	DD	FLAT:__unwindfunclet$??0CPythonChat@@QAE@XZ$3
	DD	03H
	DD	FLAT:__unwindfunclet$??0CPythonChat@@QAE@XZ$4
	DD	04H
	DD	FLAT:__unwindfunclet$??0CPythonChat@@QAE@XZ$5
	DD	05H
	DD	FLAT:__unwindfunclet$??0CPythonChat@@QAE@XZ$6
xdata$x	ENDS
;	COMDAT xdata$x
xdata$x	SEGMENT
__unwindtable$??0SChatSet@CPythonChat@@QAE@$$QAU01@@Z DD 0ffffffffH
	DD	FLAT:__unwindfunclet$??0SChatSet@CPythonChat@@QAE@$$QAU01@@Z$0
__ehfuncinfo$??0SChatSet@CPythonChat@@QAE@$$QAU01@@Z DD 019930522H
	DD	01H
	DD	FLAT:__unwindtable$??0SChatSet@CPythonChat@@QAE@$$QAU01@@Z
	DD	2 DUP(00H)
	DD	2 DUP(00H)
	DD	00H
	DD	01H
xdata$x	ENDS
;	COMDAT xdata$x
xdata$x	SEGMENT
__unwindtable$??0SChatSet@CPythonChat@@QAE@XZ DD 0ffffffffH
	DD	FLAT:__unwindfunclet$??0SChatSet@CPythonChat@@QAE@XZ$0
	DD	00H
	DD	FLAT:__unwindfunclet$??0SChatSet@CPythonChat@@QAE@XZ$1
__ehfuncinfo$??0SChatSet@CPythonChat@@QAE@XZ DD 019930522H
	DD	02H
	DD	FLAT:__unwindtable$??0SChatSet@CPythonChat@@QAE@XZ
	DD	2 DUP(00H)
	DD	2 DUP(00H)
	DD	00H
	DD	01H
xdata$x	ENDS
;	COMDAT xdata$x
xdata$x	SEGMENT
__unwindtable$?New@SChatLine@CPythonChat@@SAPAU12@XZ DD 0ffffffffH
	DD	FLAT:__unwindfunclet$?New@SChatLine@CPythonChat@@SAPAU12@XZ$0
__ehfuncinfo$?New@SChatLine@CPythonChat@@SAPAU12@XZ DD 019930522H
	DD	01H
	DD	FLAT:__unwindtable$?New@SChatLine@CPythonChat@@SAPAU12@XZ
	DD	2 DUP(00H)
	DD	2 DUP(00H)
	DD	00H
	DD	01H
xdata$x	ENDS
;	COMDAT xdata$x
xdata$x	SEGMENT
__ehfuncinfo$??1SChatLine@CPythonChat@@UAE@XZ DD 019930522H
	DD	00H
	DD	00H
	DD	2 DUP(00H)
	DD	2 DUP(00H)
	DD	00H
	DD	05H
xdata$x	ENDS
;	COMDAT xdata$x
xdata$x	SEGMENT
__unwindtable$?New@CWhisper@@SAPAV1@XZ DD 0ffffffffH
	DD	FLAT:__unwindfunclet$?New@CWhisper@@SAPAV1@XZ$0
__ehfuncinfo$?New@CWhisper@@SAPAV1@XZ DD 019930522H
	DD	01H
	DD	FLAT:__unwindtable$?New@CWhisper@@SAPAV1@XZ
	DD	2 DUP(00H)
	DD	2 DUP(00H)
	DD	00H
	DD	01H
xdata$x	ENDS
;	COMDAT xdata$x
xdata$x	SEGMENT
__ehfuncinfo$??1CWhisper@@QAE@XZ DD 019930522H
	DD	00H
	DD	00H
	DD	2 DUP(00H)
	DD	2 DUP(00H)
	DD	00H
	DD	05H
xdata$x	ENDS
;	COMDAT xdata$x
xdata$x	SEGMENT
__unwindtable$??0CWhisper@@QAE@XZ DD 0ffffffffH
	DD	FLAT:__unwindfunclet$??0CWhisper@@QAE@XZ$0
__ehfuncinfo$??0CWhisper@@QAE@XZ DD 019930522H
	DD	01H
	DD	FLAT:__unwindtable$??0CWhisper@@QAE@XZ
	DD	2 DUP(00H)
	DD	2 DUP(00H)
	DD	00H
	DD	01H
xdata$x	ENDS
;	COMDAT xdata$x
xdata$x	SEGMENT
__unwindtable$??_GSChatLine@CWhisper@@QAEPAXI@Z DD 0ffffffffH
	DD	FLAT:___std_terminate
__ehfuncinfo$??_GSChatLine@CWhisper@@QAEPAXI@Z DD 019930522H
	DD	01H
	DD	FLAT:__unwindtable$??_GSChatLine@CWhisper@@QAEPAXI@Z
	DD	2 DUP(00H)
	DD	2 DUP(00H)
	DD	00H
	DD	05H
xdata$x	ENDS
;	COMDAT xdata$x
xdata$x	SEGMENT
__unwindtable$?New@SChatLine@CWhisper@@SAPAU12@XZ DD 0ffffffffH
	DD	FLAT:__unwindfunclet$?New@SChatLine@CWhisper@@SAPAU12@XZ$0
__ehfuncinfo$?New@SChatLine@CWhisper@@SAPAU12@XZ DD 019930522H
	DD	01H
	DD	FLAT:__unwindtable$?New@SChatLine@CWhisper@@SAPAU12@XZ
	DD	2 DUP(00H)
	DD	2 DUP(00H)
	DD	00H
	DD	01H
xdata$x	ENDS
;	COMDAT xdata$x
xdata$x	SEGMENT
__unwindtable$?DestroySystem@SChatLine@CWhisper@@SAXXZ DD 0ffffffffH
	DD	FLAT:___std_terminate
__ehfuncinfo$?DestroySystem@SChatLine@CWhisper@@SAXXZ DD 019930522H
	DD	01H
	DD	FLAT:__unwindtable$?DestroySystem@SChatLine@CWhisper@@SAXXZ
	DD	2 DUP(00H)
	DD	2 DUP(00H)
	DD	00H
	DD	01H
xdata$x	ENDS
;	COMDAT xdata$x
xdata$x	SEGMENT
__ehfuncinfo$??1SChatLine@CWhisper@@QAE@XZ DD 019930522H
	DD	00H
	DD	00H
	DD	2 DUP(00H)
	DD	2 DUP(00H)
	DD	00H
	DD	05H
xdata$x	ENDS
CRT$XCU	SEGMENT
??ms_kPool$initializer$@CWhisper@@2P6AXXZA@@3P6AXXZA DD FLAT:??__E?ms_kPool@CWhisper@@2V?$CDynamicPool@VCWhisper@@@@A@@YAXXZ ; ??ms_kPool$initializer$@CWhisper@@2P6AXXZA@@3P6AXXZA
CRT$XCU	ENDS
CRT$XCU	SEGMENT
??ms_kPool$initializer$@SChatLine@CWhisper@@2P6AXXZA@@3P6AXXZA DD FLAT:??__E?ms_kPool@SChatLine@CWhisper@@2V?$CDynamicPool@USChatLine@CWhisper@@@@A@@YAXXZ ; ??ms_kPool$initializer$@SChatLine@CWhisper@@2P6AXXZA@@3P6AXXZA
CRT$XCU	ENDS
;	COMDAT CRT$XCU
CRT$XCU	SEGMENT
??ms_kPool$initializer$@?$CPooledObject@VCHeaderDecorator@NEffectUpdateDecorator@@@@1P6AXXZA@@3P6AXXZA DD FLAT:??__E?ms_kPool@?$CPooledObject@VCHeaderDecorator@NEffectUpdateDecorator@@@@1V?$CDynamicPoolEx@VCHeaderDecorator@NEffectUpdateDecorator@@@@A@@YAXXZ ; ??ms_kPool$initializer$@?$CPooledObject@VCHeaderDecorator@NEffectUpdateDecorator@@@@1P6AXXZA@@3P6AXXZA
CRT$XCU	ENDS
;	COMDAT CRT$XCU
CRT$XCU	SEGMENT
??ms_kPool$initializer$@?$CPooledObject@VCNullDecorator@NEffectUpdateDecorator@@@@1P6AXXZA@@3P6AXXZA DD FLAT:??__E?ms_kPool@?$CPooledObject@VCNullDecorator@NEffectUpdateDecorator@@@@1V?$CDynamicPoolEx@VCNullDecorator@NEffectUpdateDecorator@@@@A@@YAXXZ ; ??ms_kPool$initializer$@?$CPooledObject@VCNullDecorator@NEffectUpdateDecorator@@@@1P6AXXZA@@3P6AXXZA
CRT$XCU	ENDS
;	COMDAT CRT$XCU
CRT$XCU	SEGMENT
??ms_kPool$initializer$@?$CPooledObject@VCTextureAnimationCWDecorator@NEffectUpdateDecorator@@@@1P6AXXZA@@3P6AXXZA DD FLAT:??__E?ms_kPool@?$CPooledObject@VCTextureAnimationCWDecorator@NEffectUpdateDecorator@@@@1V?$CDynamicPoolEx@VCTextureAnimationCWDecorator@NEffectUpdateDecorator@@@@A@@YAXXZ ; ??ms_kPool$initializer$@?$CPooledObject@VCTextureAnimationCWDecorator@NEffectUpdateDecorator@@@@1P6AXXZA@@3P6AXXZA
CRT$XCU	ENDS
;	COMDAT CRT$XCU
CRT$XCU	SEGMENT
??ms_kPool$initializer$@?$CPooledObject@VCTextureAnimationCCWDecorator@NEffectUpdateDecorator@@@@1P6AXXZA@@3P6AXXZA DD FLAT:??__E?ms_kPool@?$CPooledObject@VCTextureAnimationCCWDecorator@NEffectUpdateDecorator@@@@1V?$CDynamicPoolEx@VCTextureAnimationCCWDecorator@NEffectUpdateDecorator@@@@A@@YAXXZ ; ??ms_kPool$initializer$@?$CPooledObject@VCTextureAnimationCCWDecorator@NEffectUpdateDecorator@@@@1P6AXXZA@@3P6AXXZA
CRT$XCU	ENDS
;	COMDAT CRT$XCU
CRT$XCU	SEGMENT
??ms_kPool$initializer$@?$CPooledObject@VCTextureAnimationRandomDecorator@NEffectUpdateDecorator@@@@1P6AXXZA@@3P6AXXZA DD FLAT:??__E?ms_kPool@?$CPooledObject@VCTextureAnimationRandomDecorator@NEffectUpdateDecorator@@@@1V?$CDynamicPoolEx@VCTextureAnimationRandomDecorator@NEffectUpdateDecorator@@@@A@@YAXXZ ; ??ms_kPool$initializer$@?$CPooledObject@VCTextureAnimationRandomDecorator@NEffectUpdateDecorator@@@@1P6AXXZA@@3P6AXXZA
CRT$XCU	ENDS
;	COMDAT CRT$XCU
CRT$XCU	SEGMENT
??ms_kPool$initializer$@?$CPooledObject@VCAirResistanceDecorator@NEffectUpdateDecorator@@@@1P6AXXZA@@3P6AXXZA DD FLAT:??__E?ms_kPool@?$CPooledObject@VCAirResistanceDecorator@NEffectUpdateDecorator@@@@1V?$CDynamicPoolEx@VCAirResistanceDecorator@NEffectUpdateDecorator@@@@A@@YAXXZ ; ??ms_kPool$initializer$@?$CPooledObject@VCAirResistanceDecorator@NEffectUpdateDecorator@@@@1P6AXXZA@@3P6AXXZA
CRT$XCU	ENDS
;	COMDAT CRT$XCU
CRT$XCU	SEGMENT
??ms_kPool$initializer$@?$CPooledObject@VCGravityDecorator@NEffectUpdateDecorator@@@@1P6AXXZA@@3P6AXXZA DD FLAT:??__E?ms_kPool@?$CPooledObject@VCGravityDecorator@NEffectUpdateDecorator@@@@1V?$CDynamicPoolEx@VCGravityDecorator@NEffectUpdateDecorator@@@@A@@YAXXZ ; ??ms_kPool$initializer$@?$CPooledObject@VCGravityDecorator@NEffectUpdateDecorator@@@@1P6AXXZA@@3P6AXXZA
CRT$XCU	ENDS
;	COMDAT CRT$XCU
CRT$XCU	SEGMENT
??ms_kPool$initializer$@?$CPooledObject@VCRotationDecorator@NEffectUpdateDecorator@@@@1P6AXXZA@@3P6AXXZA DD FLAT:??__E?ms_kPool@?$CPooledObject@VCRotationDecorator@NEffectUpdateDecorator@@@@1V?$CDynamicPoolEx@VCRotationDecorator@NEffectUpdateDecorator@@@@A@@YAXXZ ; ??ms_kPool$initializer$@?$CPooledObject@VCRotationDecorator@NEffectUpdateDecorator@@@@1P6AXXZA@@3P6AXXZA
CRT$XCU	ENDS
; Function compile flags: /Odsp
;	COMDAT ??_ECPythonChat@@W3AEPAXI@Z
_TEXT	SEGMENT
??_ECPythonChat@@W3AEPAXI@Z PROC			; [thunk]:CPythonChat::`vector deleting destructor', COMDAT
  00000	83 e9 04	 sub	 ecx, 4
  00003	e9 00 00 00 00	 jmp	 ??_ECPythonChat@@UAEPAXI@Z
??_ECPythonChat@@W3AEPAXI@Z ENDP			; [thunk]:CPythonChat::`vector deleting destructor'
_TEXT	ENDS
; Function compile flags: /Ogtp
; File C:\Program Files (x86)\Microsoft Visual Studio\2019\Community\VC\Tools\MSVC\14.28.29333\include\xmemory
;	COMDAT ??$_Construct_in_place@PAU?$_Tree_node@U?$pair@$$CBHUSChatSet@CPythonChat@@@std@@PAX@std@@AAPAU12@@std@@YAXAAPAU?$_Tree_node@U?$pair@$$CBHUSChatSet@CPythonChat@@@std@@PAX@0@0@Z
_TEXT	SEGMENT
__Obj$ = 8						; size = 4
_<_Args_0>$ = 12					; size = 4
??$_Construct_in_place@PAU?$_Tree_node@U?$pair@$$CBHUSChatSet@CPythonChat@@@std@@PAX@std@@AAPAU12@@std@@YAXAAPAU?$_Tree_node@U?$pair@$$CBHUSChatSet@CPythonChat@@@std@@PAX@0@0@Z PROC ; std::_Construct_in_place<std::_Tree_node<std::pair<int const ,CPythonChat::SChatSet>,void *> *,std::_Tree_node<std::pair<int const ,CPythonChat::SChatSet>,void *> * &>, COMDAT

; 228  : void _Construct_in_place(_Ty& _Obj, _Types&&... _Args) noexcept(is_nothrow_constructible_v<_Ty, _Types...>) {

  00000	55		 push	 ebp
  00001	8b ec		 mov	 ebp, esp

; 229  :     ::new (const_cast<void*>(static_cast<const volatile void*>(_STD addressof(_Obj))))

  00003	8b 45 0c	 mov	 eax, DWORD PTR _<_Args_0>$[ebp]
  00006	8b 08		 mov	 ecx, DWORD PTR [eax]
  00008	8b 45 08	 mov	 eax, DWORD PTR __Obj$[ebp]
  0000b	89 08		 mov	 DWORD PTR [eax], ecx

; 230  :         _Ty(_STD forward<_Types>(_Args)...);
; 231  : }

  0000d	5d		 pop	 ebp
  0000e	c3		 ret	 0
??$_Construct_in_place@PAU?$_Tree_node@U?$pair@$$CBHUSChatSet@CPythonChat@@@std@@PAX@std@@AAPAU12@@std@@YAXAAPAU?$_Tree_node@U?$pair@$$CBHUSChatSet@CPythonChat@@@std@@PAX@0@0@Z ENDP ; std::_Construct_in_place<std::_Tree_node<std::pair<int const ,CPythonChat::SChatSet>,void *> *,std::_Tree_node<std::pair<int const ,CPythonChat::SChatSet>,void *> * &>
_TEXT	ENDS
; Function compile flags: /Ogtp
; File C:\Program Files (x86)\Microsoft Visual Studio\2019\Community\VC\Tools\MSVC\14.28.29333\include\xutility
;	COMDAT ??$_Copy_memmove@PAHPAH@std@@YAPAHPAH00@Z
_TEXT	SEGMENT
__First$ = 8						; size = 4
__Last$ = 12						; size = 4
__Dest$ = 16						; size = 4
??$_Copy_memmove@PAHPAH@std@@YAPAHPAH00@Z PROC		; std::_Copy_memmove<int *,int *>, COMDAT

; 4360 : _OutIt _Copy_memmove(_InIt _First, _InIt _Last, _OutIt _Dest) {

  00000	55		 push	 ebp
  00001	8b ec		 mov	 ebp, esp

; 4361 :     const char* const _First_ch = const_cast<const char*>(reinterpret_cast<const volatile char*>(_First));
; 4362 :     const char* const _Last_ch  = const_cast<const char*>(reinterpret_cast<const volatile char*>(_Last));
; 4363 :     char* const _Dest_ch        = const_cast<char*>(reinterpret_cast<volatile char*>(_Dest));
; 4364 :     const auto _Count           = static_cast<size_t>(_Last_ch - _First_ch);

  00003	8b 45 08	 mov	 eax, DWORD PTR __First$[ebp]
  00006	56		 push	 esi

; 4365 :     _CSTD memmove(_Dest_ch, _First_ch, _Count);

  00007	8b 75 10	 mov	 esi, DWORD PTR __Dest$[ebp]
  0000a	57		 push	 edi
  0000b	8b 7d 0c	 mov	 edi, DWORD PTR __Last$[ebp]
  0000e	2b f8		 sub	 edi, eax
  00010	57		 push	 edi
  00011	50		 push	 eax
  00012	56		 push	 esi
  00013	e8 00 00 00 00	 call	 _memmove
  00018	83 c4 0c	 add	 esp, 12			; 0000000cH

; 4366 :     return reinterpret_cast<_OutIt>(_Dest_ch + _Count);

  0001b	8d 04 37	 lea	 eax, DWORD PTR [edi+esi]
  0001e	5f		 pop	 edi
  0001f	5e		 pop	 esi

; 4367 : }

  00020	5d		 pop	 ebp
  00021	c3		 ret	 0
??$_Copy_memmove@PAHPAH@std@@YAPAHPAH00@Z ENDP		; std::_Copy_memmove<int *,int *>
_TEXT	ENDS
; Function compile flags: /Ogtp
; File C:\Program Files (x86)\Microsoft Visual Studio\2019\Community\VC\Tools\MSVC\14.28.29333\include\xmemory
;	COMDAT ??$_Construct_in_place@PAU?$_Tree_node@U?$pair@$$CBV?$basic_string@DU?$char_traits@D@std@@V?$allocator@D@2@@std@@PAVCWhisper@@@std@@PAX@std@@AAPAU12@@std@@YAXAAPAU?$_Tree_node@U?$pair@$$CBV?$basic_string@DU?$char_traits@D@std@@V?$allocator@D@2@@std@@PAVCWhisper@@@std@@PAX@0@0@Z
_TEXT	SEGMENT
__Obj$ = 8						; size = 4
_<_Args_0>$ = 12					; size = 4
??$_Construct_in_place@PAU?$_Tree_node@U?$pair@$$CBV?$basic_string@DU?$char_traits@D@std@@V?$allocator@D@2@@std@@PAVCWhisper@@@std@@PAX@std@@AAPAU12@@std@@YAXAAPAU?$_Tree_node@U?$pair@$$CBV?$basic_string@DU?$char_traits@D@std@@V?$allocator@D@2@@std@@PAVCWhisper@@@std@@PAX@0@0@Z PROC ; std::_Construct_in_place<std::_Tree_node<std::pair<std::basic_string<char,std::char_traits<char>,std::allocator<char> > const ,CWhisper *>,void *> *,std::_Tree_node<std::pair<std::basic_string<char,std::char_traits<char>,std::allocator<char> > const ,CWhisper *>,void *> * &>, COMDAT

; 228  : void _Construct_in_place(_Ty& _Obj, _Types&&... _Args) noexcept(is_nothrow_constructible_v<_Ty, _Types...>) {

  00000	55		 push	 ebp
  00001	8b ec		 mov	 ebp, esp

; 229  :     ::new (const_cast<void*>(static_cast<const volatile void*>(_STD addressof(_Obj))))

  00003	8b 45 0c	 mov	 eax, DWORD PTR _<_Args_0>$[ebp]
  00006	8b 08		 mov	 ecx, DWORD PTR [eax]
  00008	8b 45 08	 mov	 eax, DWORD PTR __Obj$[ebp]
  0000b	89 08		 mov	 DWORD PTR [eax], ecx

; 230  :         _Ty(_STD forward<_Types>(_Args)...);
; 231  : }

  0000d	5d		 pop	 ebp
  0000e	c3		 ret	 0
??$_Construct_in_place@PAU?$_Tree_node@U?$pair@$$CBV?$basic_string@DU?$char_traits@D@std@@V?$allocator@D@2@@std@@PAVCWhisper@@@std@@PAX@std@@AAPAU12@@std@@YAXAAPAU?$_Tree_node@U?$pair@$$CBV?$basic_string@DU?$char_traits@D@std@@V?$allocator@D@2@@std@@PAVCWhisper@@@std@@PAX@0@0@Z ENDP ; std::_Construct_in_place<std::_Tree_node<std::pair<std::basic_string<char,std::char_traits<char>,std::allocator<char> > const ,CWhisper *>,void *> *,std::_Tree_node<std::pair<std::basic_string<char,std::char_traits<char>,std::allocator<char> > const ,CWhisper *>,void *> * &>
_TEXT	ENDS
; Function compile flags: /Ogtp
; File C:\Program Files (x86)\Microsoft Visual Studio\2019\Community\VC\Tools\MSVC\14.28.29333\include\xmemory
;	COMDAT ??$_Construct_in_place@PAU?$_Tree_node@V?$basic_string@DU?$char_traits@D@std@@V?$allocator@D@2@@std@@PAX@std@@AAPAU12@@std@@YAXAAPAU?$_Tree_node@V?$basic_string@DU?$char_traits@D@std@@V?$allocator@D@2@@std@@PAX@0@0@Z
_TEXT	SEGMENT
__Obj$ = 8						; size = 4
_<_Args_0>$ = 12					; size = 4
??$_Construct_in_place@PAU?$_Tree_node@V?$basic_string@DU?$char_traits@D@std@@V?$allocator@D@2@@std@@PAX@std@@AAPAU12@@std@@YAXAAPAU?$_Tree_node@V?$basic_string@DU?$char_traits@D@std@@V?$allocator@D@2@@std@@PAX@0@0@Z PROC ; std::_Construct_in_place<std::_Tree_node<std::basic_string<char,std::char_traits<char>,std::allocator<char> >,void *> *,std::_Tree_node<std::basic_string<char,std::char_traits<char>,std::allocator<char> >,void *> * &>, COMDAT

; 228  : void _Construct_in_place(_Ty& _Obj, _Types&&... _Args) noexcept(is_nothrow_constructible_v<_Ty, _Types...>) {

  00000	55		 push	 ebp
  00001	8b ec		 mov	 ebp, esp

; 229  :     ::new (const_cast<void*>(static_cast<const volatile void*>(_STD addressof(_Obj))))

  00003	8b 45 0c	 mov	 eax, DWORD PTR _<_Args_0>$[ebp]
  00006	8b 08		 mov	 ecx, DWORD PTR [eax]
  00008	8b 45 08	 mov	 eax, DWORD PTR __Obj$[ebp]
  0000b	89 08		 mov	 DWORD PTR [eax], ecx

; 230  :         _Ty(_STD forward<_Types>(_Args)...);
; 231  : }

  0000d	5d		 pop	 ebp
  0000e	c3		 ret	 0
??$_Construct_in_place@PAU?$_Tree_node@V?$basic_string@DU?$char_traits@D@std@@V?$allocator@D@2@@std@@PAX@std@@AAPAU12@@std@@YAXAAPAU?$_Tree_node@V?$basic_string@DU?$char_traits@D@std@@V?$allocator@D@2@@std@@PAX@0@0@Z ENDP ; std::_Construct_in_place<std::_Tree_node<std::basic_string<char,std::char_traits<char>,std::allocator<char> >,void *> *,std::_Tree_node<std::basic_string<char,std::char_traits<char>,std::allocator<char> >,void *> * &>
_TEXT	ENDS
; Function compile flags: /Ogtp
; File C:\Program Files (x86)\Microsoft Visual Studio\2019\Community\VC\Tools\MSVC\14.28.29333\include\xtree
; File C:\Program Files (x86)\Microsoft Visual Studio\2019\Community\VC\Tools\MSVC\14.28.29333\include\xmemory
; File C:\Program Files (x86)\Microsoft Visual Studio\2019\Community\VC\Tools\MSVC\14.28.29333\include\xtree
;	COMDAT ??1?$_Tree_temp_node@V?$allocator@U?$_Tree_node@U?$pair@$$CBHUSChatSet@CPythonChat@@@std@@PAX@std@@@std@@@std@@QAE@XZ
_TEXT	SEGMENT
??1?$_Tree_temp_node@V?$allocator@U?$_Tree_node@U?$pair@$$CBHUSChatSet@CPythonChat@@@std@@PAX@std@@@std@@@std@@QAE@XZ PROC ; std::_Tree_temp_node<std::allocator<std::_Tree_node<std::pair<int const ,CPythonChat::SChatSet>,void *> > >::~_Tree_temp_node<std::allocator<std::_Tree_node<std::pair<int const ,CPythonChat::SChatSet>,void *> > >, COMDAT
; _this$ = ecx

; 817  :     ~_Tree_temp_node() {

  00000	56		 push	 esi
  00001	8b f1		 mov	 esi, ecx

; 818  :         if (this->_Ptr) {

  00003	8b 46 04	 mov	 eax, DWORD PTR [esi+4]
  00006	85 c0		 test	 eax, eax
  00008	74 0b		 je	 SHORT $LN7@Tree_temp_

; 819  :             _Destroy_in_place(this->_Ptr->_Left);
; 820  :             _Destroy_in_place(this->_Ptr->_Parent);
; 821  :             _Destroy_in_place(this->_Ptr->_Right);
; 822  :             _Alnode_traits::destroy(this->_Al, _STD addressof(this->_Ptr->_Myval));

  0000a	8d 48 14	 lea	 ecx, DWORD PTR [eax+20]
  0000d	e8 00 00 00 00	 call	 ??1SChatSet@CPythonChat@@QAE@XZ
  00012	8b 46 04	 mov	 eax, DWORD PTR [esi+4]
$LN7@Tree_temp_:
  00015	5e		 pop	 esi
; File C:\Program Files (x86)\Microsoft Visual Studio\2019\Community\VC\Tools\MSVC\14.28.29333\include\xmemory

; 1057 :         if (_Ptr) {

  00016	85 c0		 test	 eax, eax
  00018	74 0b		 je	 SHORT $LN16@Tree_temp_

; 810  :         _Deallocate<_New_alignof<_Ty>>(_Ptr, sizeof(_Ty) * _Count);

  0001a	6a 40		 push	 64			; 00000040H
  0001c	50		 push	 eax
  0001d	e8 00 00 00 00	 call	 ??$_Deallocate@$07$0A@@std@@YAXPAXI@Z ; std::_Deallocate<8,0>
  00022	83 c4 08	 add	 esp, 8
$LN16@Tree_temp_:
; File C:\Program Files (x86)\Microsoft Visual Studio\2019\Community\VC\Tools\MSVC\14.28.29333\include\xtree

; 824  :     }

  00025	c3		 ret	 0
??1?$_Tree_temp_node@V?$allocator@U?$_Tree_node@U?$pair@$$CBHUSChatSet@CPythonChat@@@std@@PAX@std@@@std@@@std@@QAE@XZ ENDP ; std::_Tree_temp_node<std::allocator<std::_Tree_node<std::pair<int const ,CPythonChat::SChatSet>,void *> > >::~_Tree_temp_node<std::allocator<std::_Tree_node<std::pair<int const ,CPythonChat::SChatSet>,void *> > >
_TEXT	ENDS
; Function compile flags: /Ogtp
; File C:\Program Files (x86)\Microsoft Visual Studio\2019\Community\VC\Tools\MSVC\14.28.29333\include\xmemory
;	COMDAT ??1?$_Tree_temp_node_alloc@V?$allocator@U?$_Tree_node@U?$pair@$$CBHUSChatSet@CPythonChat@@@std@@PAX@std@@@std@@@std@@QAE@XZ
_TEXT	SEGMENT
??1?$_Tree_temp_node_alloc@V?$allocator@U?$_Tree_node@U?$pair@$$CBHUSChatSet@CPythonChat@@@std@@PAX@std@@@std@@@std@@QAE@XZ PROC ; std::_Tree_temp_node_alloc<std::allocator<std::_Tree_node<std::pair<int const ,CPythonChat::SChatSet>,void *> > >::~_Tree_temp_node_alloc<std::allocator<std::_Tree_node<std::pair<int const ,CPythonChat::SChatSet>,void *> > >, COMDAT
; _this$ = ecx

; 1057 :         if (_Ptr) {

  00000	8b 41 04	 mov	 eax, DWORD PTR [ecx+4]
  00003	85 c0		 test	 eax, eax
  00005	74 0b		 je	 SHORT $LN4@Tree_temp_

; 810  :         _Deallocate<_New_alignof<_Ty>>(_Ptr, sizeof(_Ty) * _Count);

  00007	6a 40		 push	 64			; 00000040H
  00009	50		 push	 eax
  0000a	e8 00 00 00 00	 call	 ??$_Deallocate@$07$0A@@std@@YAXPAXI@Z ; std::_Deallocate<8,0>
  0000f	83 c4 08	 add	 esp, 8
$LN4@Tree_temp_:
  00012	c3		 ret	 0
??1?$_Tree_temp_node_alloc@V?$allocator@U?$_Tree_node@U?$pair@$$CBHUSChatSet@CPythonChat@@@std@@PAX@std@@@std@@@std@@QAE@XZ ENDP ; std::_Tree_temp_node_alloc<std::allocator<std::_Tree_node<std::pair<int const ,CPythonChat::SChatSet>,void *> > >::~_Tree_temp_node_alloc<std::allocator<std::_Tree_node<std::pair<int const ,CPythonChat::SChatSet>,void *> > >
_TEXT	ENDS
; Function compile flags: /Ogtp
; File C:\Program Files (x86)\Microsoft Visual Studio\2019\Community\VC\Tools\MSVC\14.28.29333\include\xmemory
;	COMDAT ??1?$_Alloc_construct_ptr@V?$allocator@U?$_Tree_node@U?$pair@$$CBHUSChatSet@CPythonChat@@@std@@PAX@std@@@std@@@std@@QAE@XZ
_TEXT	SEGMENT
??1?$_Alloc_construct_ptr@V?$allocator@U?$_Tree_node@U?$pair@$$CBHUSChatSet@CPythonChat@@@std@@PAX@std@@@std@@@std@@QAE@XZ PROC ; std::_Alloc_construct_ptr<std::allocator<std::_Tree_node<std::pair<int const ,CPythonChat::SChatSet>,void *> > >::~_Alloc_construct_ptr<std::allocator<std::_Tree_node<std::pair<int const ,CPythonChat::SChatSet>,void *> > >, COMDAT
; _this$ = ecx

; 1057 :         if (_Ptr) {

  00000	8b 41 04	 mov	 eax, DWORD PTR [ecx+4]
  00003	85 c0		 test	 eax, eax
  00005	74 0b		 je	 SHORT $LN2@Alloc_cons

; 810  :         _Deallocate<_New_alignof<_Ty>>(_Ptr, sizeof(_Ty) * _Count);

  00007	6a 40		 push	 64			; 00000040H
  00009	50		 push	 eax
  0000a	e8 00 00 00 00	 call	 ??$_Deallocate@$07$0A@@std@@YAXPAXI@Z ; std::_Deallocate<8,0>
  0000f	83 c4 08	 add	 esp, 8
$LN2@Alloc_cons:

; 1058 :             _Al.deallocate(_Ptr, 1);
; 1059 :         }
; 1060 :     }

  00012	c3		 ret	 0
??1?$_Alloc_construct_ptr@V?$allocator@U?$_Tree_node@U?$pair@$$CBHUSChatSet@CPythonChat@@@std@@PAX@std@@@std@@@std@@QAE@XZ ENDP ; std::_Alloc_construct_ptr<std::allocator<std::_Tree_node<std::pair<int const ,CPythonChat::SChatSet>,void *> > >::~_Alloc_construct_ptr<std::allocator<std::_Tree_node<std::pair<int const ,CPythonChat::SChatSet>,void *> > >
_TEXT	ENDS
; Function compile flags: /Ogtp
; File C:\Program Files (x86)\Microsoft Visual Studio\2019\Community\VC\Tools\MSVC\14.28.29333\include\xmemory
;	COMDAT ??$_Uninitialized_move@PAHV?$allocator@H@std@@@std@@YAPAHQAH0PAHAAV?$allocator@H@0@@Z
_TEXT	SEGMENT
__First$ = 8						; size = 4
__Last$ = 12						; size = 4
__Dest$ = 16						; size = 4
__Al$ = 20						; size = 4
??$_Uninitialized_move@PAHV?$allocator@H@std@@@std@@YAPAHQAH0PAHAAV?$allocator@H@0@@Z PROC ; std::_Uninitialized_move<int *,std::allocator<int> >, COMDAT

; 1685 :     const _InIt _First, const _InIt _Last, _Alloc_ptr_t<_Alloc> _Dest, _Alloc& _Al) {

  00000	55		 push	 ebp
  00001	8b ec		 mov	 ebp, esp
  00003	53		 push	 ebx

; 1686 :     // move [_First, _Last) to raw _Dest, using _Al
; 1687 :     // note: only called internally from elsewhere in the STL
; 1688 :     using _Ptrval     = typename _Alloc::value_type*;
; 1689 :     auto _UFirst      = _Get_unwrapped(_First);
; 1690 :     const auto _ULast = _Get_unwrapped(_Last);
; 1691 :     if constexpr (conjunction_v<bool_constant<_Ptr_move_cat<decltype(_UFirst), _Ptrval>::_Really_trivial>,
; 1692 :                       _Uses_default_construct<_Alloc, _Ptrval, decltype(_STD move(*_UFirst))>>) {
; 1693 :         _Copy_memmove(_UFirst, _ULast, _Unfancy(_Dest));

  00004	8b 5d 10	 mov	 ebx, DWORD PTR __Dest$[ebp]
  00007	57		 push	 edi
  00008	8b 7d 0c	 mov	 edi, DWORD PTR __Last$[ebp]
  0000b	53		 push	 ebx
  0000c	57		 push	 edi
  0000d	ff 75 08	 push	 DWORD PTR __First$[ebp]
  00010	e8 00 00 00 00	 call	 ??$_Copy_memmove@PAHPAH@std@@YAPAHPAH00@Z ; std::_Copy_memmove<int *,int *>

; 1694 :         return _Dest + (_ULast - _UFirst);

  00015	2b 7d 08	 sub	 edi, DWORD PTR __First$[ebp]
  00018	83 c4 0c	 add	 esp, 12			; 0000000cH
  0001b	c1 ff 02	 sar	 edi, 2
  0001e	8d 04 bb	 lea	 eax, DWORD PTR [ebx+edi*4]
  00021	5f		 pop	 edi
  00022	5b		 pop	 ebx

; 1695 :     } else {
; 1696 :         _Uninitialized_backout_al<_Alloc> _Backout{_Dest, _Al};
; 1697 :         for (; _UFirst != _ULast; ++_UFirst) {
; 1698 :             _Backout._Emplace_back(_STD move(*_UFirst));
; 1699 :         }
; 1700 : 
; 1701 :         return _Backout._Release();
; 1702 :     }
; 1703 : }

  00023	5d		 pop	 ebp
  00024	c3		 ret	 0
??$_Uninitialized_move@PAHV?$allocator@H@std@@@std@@YAPAHQAH0PAHAAV?$allocator@H@0@@Z ENDP ; std::_Uninitialized_move<int *,std::allocator<int> >
_TEXT	ENDS
; Function compile flags: /Ogtp
; File C:\Program Files (x86)\Microsoft Visual Studio\2019\Community\VC\Tools\MSVC\14.28.29333\include\xstring
; File C:\Program Files (x86)\Microsoft Visual Studio\2019\Community\VC\Tools\MSVC\14.28.29333\include\utility
; File C:\Program Files (x86)\Microsoft Visual Studio\2019\Community\VC\Tools\MSVC\14.28.29333\include\xstring
; File C:\Program Files (x86)\Microsoft Visual Studio\2019\Community\VC\Tools\MSVC\14.28.29333\include\utility
; File C:\Program Files (x86)\Microsoft Visual Studio\2019\Community\VC\Tools\MSVC\14.28.29333\include\xstring
;	COMDAT ??$?MDU?$char_traits@D@std@@V?$allocator@D@1@@std@@YA_NABV?$basic_string@DU?$char_traits@D@std@@V?$allocator@D@2@@0@0@Z
_TEXT	SEGMENT
__Left$ = 8						; size = 4
__Right$ = 12						; size = 4
??$?MDU?$char_traits@D@std@@V?$allocator@D@1@@std@@YA_NABV?$basic_string@DU?$char_traits@D@std@@V?$allocator@D@2@@0@0@Z PROC ; std::operator<<char,std::char_traits<char>,std::allocator<char> >, COMDAT

; 4586 :     const basic_string<_Elem, _Traits, _Alloc>& _Left, const basic_string<_Elem, _Traits, _Alloc>& _Right) noexcept {

  00000	55		 push	 ebp
  00001	8b ec		 mov	 ebp, esp

; 2218 :         const value_type* _Result = _Bx._Buf;

  00003	8b 45 0c	 mov	 eax, DWORD PTR __Right$[ebp]
  00006	8b c8		 mov	 ecx, eax

; 2227 :         return _BUF_SIZE <= _Myres;

  00008	83 78 14 10	 cmp	 DWORD PTR [eax+20], 16	; 00000010H

; 2219 :         if (_Large_string_engaged()) {

  0000c	72 02		 jb	 SHORT $LN6@operator

; 2220 :             _Result = _Unfancy(_Bx._Ptr);

  0000e	8b 08		 mov	 ecx, DWORD PTR [eax]
$LN6@operator:
  00010	53		 push	 ebx
  00011	56		 push	 esi

; 2218 :         const value_type* _Result = _Bx._Buf;

  00012	8b 75 08	 mov	 esi, DWORD PTR __Left$[ebp]
  00015	8b d6		 mov	 edx, esi
  00017	57		 push	 edi

; 2227 :         return _BUF_SIZE <= _Myres;

  00018	83 7e 14 10	 cmp	 DWORD PTR [esi+20], 16	; 00000010H

; 2219 :         if (_Large_string_engaged()) {

  0001c	72 02		 jb	 SHORT $LN11@operator

; 2220 :             _Result = _Unfancy(_Bx._Ptr);

  0001e	8b 16		 mov	 edx, DWORD PTR [esi]
$LN11@operator:

; 4213 :         return _Traits_compare<_Traits>(_Mypair._Myval2._Myptr(), _Mypair._Myval2._Mysize,

  00020	8b 5e 10	 mov	 ebx, DWORD PTR [esi+16]
; File C:\Program Files (x86)\Microsoft Visual Studio\2019\Community\VC\Tools\MSVC\14.28.29333\include\utility

; 68   :     return _Right < _Left ? _Right : _Left;

  00023	8b f3		 mov	 esi, ebx
; File C:\Program Files (x86)\Microsoft Visual Studio\2019\Community\VC\Tools\MSVC\14.28.29333\include\xstring

; 4213 :         return _Traits_compare<_Traits>(_Mypair._Myval2._Myptr(), _Mypair._Myval2._Mysize,

  00025	8b 78 10	 mov	 edi, DWORD PTR [eax+16]
; File C:\Program Files (x86)\Microsoft Visual Studio\2019\Community\VC\Tools\MSVC\14.28.29333\include\utility

; 68   :     return _Right < _Left ? _Right : _Left;

  00028	3b fb		 cmp	 edi, ebx
  0002a	0f 42 f7	 cmovb	 esi, edi
; File C:\Program Files (x86)\Microsoft Visual Studio\2019\Community\VC\Tools\MSVC\14.28.29333\include\xstring

; 369  :         return _CSTD memcmp(_First1, _First2, _Count);

  0002d	83 ee 04	 sub	 esi, 4
  00030	72 11		 jb	 SHORT $LN26@operator
$LL27@operator:
  00032	8b 02		 mov	 eax, DWORD PTR [edx]
  00034	3b 01		 cmp	 eax, DWORD PTR [ecx]
  00036	75 10		 jne	 SHORT $LN25@operator
  00038	83 c2 04	 add	 edx, 4
  0003b	83 c1 04	 add	 ecx, 4
  0003e	83 ee 04	 sub	 esi, 4
  00041	73 ef		 jae	 SHORT $LL27@operator
$LN26@operator:
  00043	83 fe fc	 cmp	 esi, -4			; fffffffcH
  00046	74 34		 je	 SHORT $LN24@operator
$LN25@operator:
  00048	8a 02		 mov	 al, BYTE PTR [edx]
  0004a	3a 01		 cmp	 al, BYTE PTR [ecx]
  0004c	75 27		 jne	 SHORT $LN28@operator
  0004e	83 fe fd	 cmp	 esi, -3			; fffffffdH
  00051	74 29		 je	 SHORT $LN24@operator
  00053	8a 42 01	 mov	 al, BYTE PTR [edx+1]
  00056	3a 41 01	 cmp	 al, BYTE PTR [ecx+1]
  00059	75 1a		 jne	 SHORT $LN28@operator
  0005b	83 fe fe	 cmp	 esi, -2			; fffffffeH
  0005e	74 1c		 je	 SHORT $LN24@operator
  00060	8a 42 02	 mov	 al, BYTE PTR [edx+2]
  00063	3a 41 02	 cmp	 al, BYTE PTR [ecx+2]
  00066	75 0d		 jne	 SHORT $LN28@operator
  00068	83 fe ff	 cmp	 esi, -1
  0006b	74 0f		 je	 SHORT $LN24@operator
  0006d	8a 42 03	 mov	 al, BYTE PTR [edx+3]
  00070	3a 41 03	 cmp	 al, BYTE PTR [ecx+3]
  00073	74 07		 je	 SHORT $LN24@operator
$LN28@operator:
  00075	1b c0		 sbb	 eax, eax
  00077	83 c8 01	 or	 eax, 1
  0007a	eb 02		 jmp	 SHORT $LN29@operator
$LN24@operator:
  0007c	33 c0		 xor	 eax, eax
$LN29@operator:

; 570  :     if (_Ans != 0) {

  0007e	85 c0		 test	 eax, eax
  00080	75 13		 jne	 SHORT $LN18@operator

; 571  :         return _Ans;
; 572  :     }
; 573  : 
; 574  :     if (_Left_size < _Right_size) {

  00082	3b fb		 cmp	 edi, ebx
  00084	76 0b		 jbe	 SHORT $LN30@operator

; 4587 :     return _Left.compare(_Right) < 0;

  00086	5f		 pop	 edi

; 575  :         return -1;

  00087	83 c8 ff	 or	 eax, -1

; 4587 :     return _Left.compare(_Right) < 0;

  0008a	5e		 pop	 esi
  0008b	c1 e8 1f	 shr	 eax, 31			; 0000001fH
  0008e	5b		 pop	 ebx

; 4588 : }

  0008f	5d		 pop	 ebp
  00090	c3		 ret	 0
$LN30@operator:

; 578  :     if (_Left_size > _Right_size) {

  00091	1b c0		 sbb	 eax, eax
  00093	f7 d8		 neg	 eax
$LN18@operator:

; 4587 :     return _Left.compare(_Right) < 0;

  00095	5f		 pop	 edi
  00096	5e		 pop	 esi
  00097	c1 e8 1f	 shr	 eax, 31			; 0000001fH
  0009a	5b		 pop	 ebx

; 4588 : }

  0009b	5d		 pop	 ebp
  0009c	c3		 ret	 0
??$?MDU?$char_traits@D@std@@V?$allocator@D@1@@std@@YA_NABV?$basic_string@DU?$char_traits@D@std@@V?$allocator@D@2@@0@0@Z ENDP ; std::operator<<char,std::char_traits<char>,std::allocator<char> >
_TEXT	ENDS
; Function compile flags: /Ogtp
; File C:\Program Files (x86)\Microsoft Visual Studio\2019\Community\VC\Tools\MSVC\14.28.29333\include\xmemory
;	COMDAT ??$_Zero_range@PAPAPAUSChatLine@CWhisper@@@std@@YAPAPAPAUSChatLine@CWhisper@@QAPAPAU12@0@Z
_TEXT	SEGMENT
__First$ = 8						; size = 4
__Last$ = 12						; size = 4
??$_Zero_range@PAPAPAUSChatLine@CWhisper@@@std@@YAPAPAPAUSChatLine@CWhisper@@QAPAPAU12@0@Z PROC ; std::_Zero_range<CWhisper::SChatLine * * *>, COMDAT

; 1852 : _Ptr _Zero_range(const _Ptr _First, const _Ptr _Last) { // fill [_First, _Last) with zeroes

  00000	55		 push	 ebp
  00001	8b ec		 mov	 ebp, esp

; 1853 :     char* const _First_ch = reinterpret_cast<char*>(_First);
; 1854 :     char* const _Last_ch  = reinterpret_cast<char*>(_Last);
; 1855 :     _CSTD memset(_First_ch, 0, static_cast<size_t>(_Last_ch - _First_ch));

  00003	8b 55 08	 mov	 edx, DWORD PTR __First$[ebp]
  00006	8b 4d 0c	 mov	 ecx, DWORD PTR __Last$[ebp]
  00009	2b ca		 sub	 ecx, edx
  0000b	51		 push	 ecx
  0000c	6a 00		 push	 0
  0000e	52		 push	 edx
  0000f	e8 00 00 00 00	 call	 _memset

; 1856 :     return _Last;

  00014	8b 45 0c	 mov	 eax, DWORD PTR __Last$[ebp]
  00017	83 c4 0c	 add	 esp, 12			; 0000000cH

; 1857 : }

  0001a	5d		 pop	 ebp
  0001b	c3		 ret	 0
??$_Zero_range@PAPAPAUSChatLine@CWhisper@@@std@@YAPAPAPAUSChatLine@CWhisper@@QAPAPAU12@0@Z ENDP ; std::_Zero_range<CWhisper::SChatLine * * *>
_TEXT	ENDS
; Function compile flags: /Ogtp
; File C:\Program Files (x86)\Microsoft Visual Studio\2019\Community\VC\Tools\MSVC\14.28.29333\include\xutility
;	COMDAT ??$_Copy_memmove@PAPAPAUSChatLine@CWhisper@@PAPAPAU12@@std@@YAPAPAPAUSChatLine@CWhisper@@PAPAPAU12@00@Z
_TEXT	SEGMENT
__First$ = 8						; size = 4
__Last$ = 12						; size = 4
__Dest$ = 16						; size = 4
??$_Copy_memmove@PAPAPAUSChatLine@CWhisper@@PAPAPAU12@@std@@YAPAPAPAUSChatLine@CWhisper@@PAPAPAU12@00@Z PROC ; std::_Copy_memmove<CWhisper::SChatLine * * *,CWhisper::SChatLine * * *>, COMDAT

; 4360 : _OutIt _Copy_memmove(_InIt _First, _InIt _Last, _OutIt _Dest) {

  00000	55		 push	 ebp
  00001	8b ec		 mov	 ebp, esp

; 4361 :     const char* const _First_ch = const_cast<const char*>(reinterpret_cast<const volatile char*>(_First));
; 4362 :     const char* const _Last_ch  = const_cast<const char*>(reinterpret_cast<const volatile char*>(_Last));
; 4363 :     char* const _Dest_ch        = const_cast<char*>(reinterpret_cast<volatile char*>(_Dest));
; 4364 :     const auto _Count           = static_cast<size_t>(_Last_ch - _First_ch);

  00003	8b 45 08	 mov	 eax, DWORD PTR __First$[ebp]
  00006	56		 push	 esi

; 4365 :     _CSTD memmove(_Dest_ch, _First_ch, _Count);

  00007	8b 75 10	 mov	 esi, DWORD PTR __Dest$[ebp]
  0000a	57		 push	 edi
  0000b	8b 7d 0c	 mov	 edi, DWORD PTR __Last$[ebp]
  0000e	2b f8		 sub	 edi, eax
  00010	57		 push	 edi
  00011	50		 push	 eax
  00012	56		 push	 esi
  00013	e8 00 00 00 00	 call	 _memmove
  00018	83 c4 0c	 add	 esp, 12			; 0000000cH

; 4366 :     return reinterpret_cast<_OutIt>(_Dest_ch + _Count);

  0001b	8d 04 37	 lea	 eax, DWORD PTR [edi+esi]
  0001e	5f		 pop	 edi
  0001f	5e		 pop	 esi

; 4367 : }

  00020	5d		 pop	 ebp
  00021	c3		 ret	 0
??$_Copy_memmove@PAPAPAUSChatLine@CWhisper@@PAPAPAU12@@std@@YAPAPAPAUSChatLine@CWhisper@@PAPAPAU12@00@Z ENDP ; std::_Copy_memmove<CWhisper::SChatLine * * *,CWhisper::SChatLine * * *>
_TEXT	ENDS
; Function compile flags: /Ogtp
; File C:\Program Files (x86)\Microsoft Visual Studio\2019\Community\VC\Tools\MSVC\14.28.29333\include\xmemory
;	COMDAT ??$_Zero_range@PAPAPAUSChatLine@CPythonChat@@@std@@YAPAPAPAUSChatLine@CPythonChat@@QAPAPAU12@0@Z
_TEXT	SEGMENT
__First$ = 8						; size = 4
__Last$ = 12						; size = 4
??$_Zero_range@PAPAPAUSChatLine@CPythonChat@@@std@@YAPAPAPAUSChatLine@CPythonChat@@QAPAPAU12@0@Z PROC ; std::_Zero_range<CPythonChat::SChatLine * * *>, COMDAT

; 1852 : _Ptr _Zero_range(const _Ptr _First, const _Ptr _Last) { // fill [_First, _Last) with zeroes

  00000	55		 push	 ebp
  00001	8b ec		 mov	 ebp, esp

; 1853 :     char* const _First_ch = reinterpret_cast<char*>(_First);
; 1854 :     char* const _Last_ch  = reinterpret_cast<char*>(_Last);
; 1855 :     _CSTD memset(_First_ch, 0, static_cast<size_t>(_Last_ch - _First_ch));

  00003	8b 55 08	 mov	 edx, DWORD PTR __First$[ebp]
  00006	8b 4d 0c	 mov	 ecx, DWORD PTR __Last$[ebp]
  00009	2b ca		 sub	 ecx, edx
  0000b	51		 push	 ecx
  0000c	6a 00		 push	 0
  0000e	52		 push	 edx
  0000f	e8 00 00 00 00	 call	 _memset

; 1856 :     return _Last;

  00014	8b 45 0c	 mov	 eax, DWORD PTR __Last$[ebp]
  00017	83 c4 0c	 add	 esp, 12			; 0000000cH

; 1857 : }

  0001a	5d		 pop	 ebp
  0001b	c3		 ret	 0
??$_Zero_range@PAPAPAUSChatLine@CPythonChat@@@std@@YAPAPAPAUSChatLine@CPythonChat@@QAPAPAU12@0@Z ENDP ; std::_Zero_range<CPythonChat::SChatLine * * *>
_TEXT	ENDS
; Function compile flags: /Ogtp
; File C:\Program Files (x86)\Microsoft Visual Studio\2019\Community\VC\Tools\MSVC\14.28.29333\include\xutility
;	COMDAT ??$_Copy_memmove@PAPAPAUSChatLine@CPythonChat@@PAPAPAU12@@std@@YAPAPAPAUSChatLine@CPythonChat@@PAPAPAU12@00@Z
_TEXT	SEGMENT
__First$ = 8						; size = 4
__Last$ = 12						; size = 4
__Dest$ = 16						; size = 4
??$_Copy_memmove@PAPAPAUSChatLine@CPythonChat@@PAPAPAU12@@std@@YAPAPAPAUSChatLine@CPythonChat@@PAPAPAU12@00@Z PROC ; std::_Copy_memmove<CPythonChat::SChatLine * * *,CPythonChat::SChatLine * * *>, COMDAT

; 4360 : _OutIt _Copy_memmove(_InIt _First, _InIt _Last, _OutIt _Dest) {

  00000	55		 push	 ebp
  00001	8b ec		 mov	 ebp, esp

; 4361 :     const char* const _First_ch = const_cast<const char*>(reinterpret_cast<const volatile char*>(_First));
; 4362 :     const char* const _Last_ch  = const_cast<const char*>(reinterpret_cast<const volatile char*>(_Last));
; 4363 :     char* const _Dest_ch        = const_cast<char*>(reinterpret_cast<volatile char*>(_Dest));
; 4364 :     const auto _Count           = static_cast<size_t>(_Last_ch - _First_ch);

  00003	8b 45 08	 mov	 eax, DWORD PTR __First$[ebp]
  00006	56		 push	 esi

; 4365 :     _CSTD memmove(_Dest_ch, _First_ch, _Count);

  00007	8b 75 10	 mov	 esi, DWORD PTR __Dest$[ebp]
  0000a	57		 push	 edi
  0000b	8b 7d 0c	 mov	 edi, DWORD PTR __Last$[ebp]
  0000e	2b f8		 sub	 edi, eax
  00010	57		 push	 edi
  00011	50		 push	 eax
  00012	56		 push	 esi
  00013	e8 00 00 00 00	 call	 _memmove
  00018	83 c4 0c	 add	 esp, 12			; 0000000cH

; 4366 :     return reinterpret_cast<_OutIt>(_Dest_ch + _Count);

  0001b	8d 04 37	 lea	 eax, DWORD PTR [edi+esi]
  0001e	5f		 pop	 edi
  0001f	5e		 pop	 esi

; 4367 : }

  00020	5d		 pop	 ebp
  00021	c3		 ret	 0
??$_Copy_memmove@PAPAPAUSChatLine@CPythonChat@@PAPAPAU12@@std@@YAPAPAPAUSChatLine@CPythonChat@@PAPAPAU12@00@Z ENDP ; std::_Copy_memmove<CPythonChat::SChatLine * * *,CPythonChat::SChatLine * * *>
_TEXT	ENDS
; Function compile flags: /Ogtp
; File C:\Program Files (x86)\Microsoft Visual Studio\2019\Community\VC\Tools\MSVC\14.28.29333\include\xutility
;	COMDAT ??$_Copy_memmove@PAPAUSChatLine@CPythonChat@@PAPAU12@@std@@YAPAPAUSChatLine@CPythonChat@@PAPAU12@00@Z
_TEXT	SEGMENT
__First$ = 8						; size = 4
__Last$ = 12						; size = 4
__Dest$ = 16						; size = 4
??$_Copy_memmove@PAPAUSChatLine@CPythonChat@@PAPAU12@@std@@YAPAPAUSChatLine@CPythonChat@@PAPAU12@00@Z PROC ; std::_Copy_memmove<CPythonChat::SChatLine * *,CPythonChat::SChatLine * *>, COMDAT

; 4360 : _OutIt _Copy_memmove(_InIt _First, _InIt _Last, _OutIt _Dest) {

  00000	55		 push	 ebp
  00001	8b ec		 mov	 ebp, esp

; 4361 :     const char* const _First_ch = const_cast<const char*>(reinterpret_cast<const volatile char*>(_First));
; 4362 :     const char* const _Last_ch  = const_cast<const char*>(reinterpret_cast<const volatile char*>(_Last));
; 4363 :     char* const _Dest_ch        = const_cast<char*>(reinterpret_cast<volatile char*>(_Dest));
; 4364 :     const auto _Count           = static_cast<size_t>(_Last_ch - _First_ch);

  00003	8b 45 08	 mov	 eax, DWORD PTR __First$[ebp]
  00006	56		 push	 esi

; 4365 :     _CSTD memmove(_Dest_ch, _First_ch, _Count);

  00007	8b 75 10	 mov	 esi, DWORD PTR __Dest$[ebp]
  0000a	57		 push	 edi
  0000b	8b 7d 0c	 mov	 edi, DWORD PTR __Last$[ebp]
  0000e	2b f8		 sub	 edi, eax
  00010	57		 push	 edi
  00011	50		 push	 eax
  00012	56		 push	 esi
  00013	e8 00 00 00 00	 call	 _memmove
  00018	83 c4 0c	 add	 esp, 12			; 0000000cH

; 4366 :     return reinterpret_cast<_OutIt>(_Dest_ch + _Count);

  0001b	8d 04 37	 lea	 eax, DWORD PTR [edi+esi]
  0001e	5f		 pop	 edi
  0001f	5e		 pop	 esi

; 4367 : }

  00020	5d		 pop	 ebp
  00021	c3		 ret	 0
??$_Copy_memmove@PAPAUSChatLine@CPythonChat@@PAPAU12@@std@@YAPAPAUSChatLine@CPythonChat@@PAPAU12@00@Z ENDP ; std::_Copy_memmove<CPythonChat::SChatLine * *,CPythonChat::SChatLine * *>
_TEXT	ENDS
; Function compile flags: /Ogtp
; File C:\Program Files (x86)\Microsoft Visual Studio\2019\Community\VC\Tools\MSVC\14.28.29333\include\xutility
;	COMDAT ??$_Copy_memmove@PAPAVCWhisper@@PAPAV1@@std@@YAPAPAVCWhisper@@PAPAV1@00@Z
_TEXT	SEGMENT
__First$ = 8						; size = 4
__Last$ = 12						; size = 4
__Dest$ = 16						; size = 4
??$_Copy_memmove@PAPAVCWhisper@@PAPAV1@@std@@YAPAPAVCWhisper@@PAPAV1@00@Z PROC ; std::_Copy_memmove<CWhisper * *,CWhisper * *>, COMDAT

; 4360 : _OutIt _Copy_memmove(_InIt _First, _InIt _Last, _OutIt _Dest) {

  00000	55		 push	 ebp
  00001	8b ec		 mov	 ebp, esp

; 4361 :     const char* const _First_ch = const_cast<const char*>(reinterpret_cast<const volatile char*>(_First));
; 4362 :     const char* const _Last_ch  = const_cast<const char*>(reinterpret_cast<const volatile char*>(_Last));
; 4363 :     char* const _Dest_ch        = const_cast<char*>(reinterpret_cast<volatile char*>(_Dest));
; 4364 :     const auto _Count           = static_cast<size_t>(_Last_ch - _First_ch);

  00003	8b 45 08	 mov	 eax, DWORD PTR __First$[ebp]
  00006	56		 push	 esi

; 4365 :     _CSTD memmove(_Dest_ch, _First_ch, _Count);

  00007	8b 75 10	 mov	 esi, DWORD PTR __Dest$[ebp]
  0000a	57		 push	 edi
  0000b	8b 7d 0c	 mov	 edi, DWORD PTR __Last$[ebp]
  0000e	2b f8		 sub	 edi, eax
  00010	57		 push	 edi
  00011	50		 push	 eax
  00012	56		 push	 esi
  00013	e8 00 00 00 00	 call	 _memmove
  00018	83 c4 0c	 add	 esp, 12			; 0000000cH

; 4366 :     return reinterpret_cast<_OutIt>(_Dest_ch + _Count);

  0001b	8d 04 37	 lea	 eax, DWORD PTR [edi+esi]
  0001e	5f		 pop	 edi
  0001f	5e		 pop	 esi

; 4367 : }

  00020	5d		 pop	 ebp
  00021	c3		 ret	 0
??$_Copy_memmove@PAPAVCWhisper@@PAPAV1@@std@@YAPAPAVCWhisper@@PAPAV1@00@Z ENDP ; std::_Copy_memmove<CWhisper * *,CWhisper * *>
_TEXT	ENDS
; Function compile flags: /Ogtp
; File C:\Program Files (x86)\Microsoft Visual Studio\2019\Community\VC\Tools\MSVC\14.28.29333\include\xutility
;	COMDAT ??$_Copy_memmove@PAPAUSChatLine@CWhisper@@PAPAU12@@std@@YAPAPAUSChatLine@CWhisper@@PAPAU12@00@Z
_TEXT	SEGMENT
__First$ = 8						; size = 4
__Last$ = 12						; size = 4
__Dest$ = 16						; size = 4
??$_Copy_memmove@PAPAUSChatLine@CWhisper@@PAPAU12@@std@@YAPAPAUSChatLine@CWhisper@@PAPAU12@00@Z PROC ; std::_Copy_memmove<CWhisper::SChatLine * *,CWhisper::SChatLine * *>, COMDAT

; 4360 : _OutIt _Copy_memmove(_InIt _First, _InIt _Last, _OutIt _Dest) {

  00000	55		 push	 ebp
  00001	8b ec		 mov	 ebp, esp

; 4361 :     const char* const _First_ch = const_cast<const char*>(reinterpret_cast<const volatile char*>(_First));
; 4362 :     const char* const _Last_ch  = const_cast<const char*>(reinterpret_cast<const volatile char*>(_Last));
; 4363 :     char* const _Dest_ch        = const_cast<char*>(reinterpret_cast<volatile char*>(_Dest));
; 4364 :     const auto _Count           = static_cast<size_t>(_Last_ch - _First_ch);

  00003	8b 45 08	 mov	 eax, DWORD PTR __First$[ebp]
  00006	56		 push	 esi

; 4365 :     _CSTD memmove(_Dest_ch, _First_ch, _Count);

  00007	8b 75 10	 mov	 esi, DWORD PTR __Dest$[ebp]
  0000a	57		 push	 edi
  0000b	8b 7d 0c	 mov	 edi, DWORD PTR __Last$[ebp]
  0000e	2b f8		 sub	 edi, eax
  00010	57		 push	 edi
  00011	50		 push	 eax
  00012	56		 push	 esi
  00013	e8 00 00 00 00	 call	 _memmove
  00018	83 c4 0c	 add	 esp, 12			; 0000000cH

; 4366 :     return reinterpret_cast<_OutIt>(_Dest_ch + _Count);

  0001b	8d 04 37	 lea	 eax, DWORD PTR [edi+esi]
  0001e	5f		 pop	 edi
  0001f	5e		 pop	 esi

; 4367 : }

  00020	5d		 pop	 ebp
  00021	c3		 ret	 0
??$_Copy_memmove@PAPAUSChatLine@CWhisper@@PAPAU12@@std@@YAPAPAUSChatLine@CWhisper@@PAPAU12@00@Z ENDP ; std::_Copy_memmove<CWhisper::SChatLine * *,CWhisper::SChatLine * *>
_TEXT	ENDS
; Function compile flags: /Ogtp
; File C:\Program Files (x86)\Microsoft Visual Studio\2019\Community\VC\Tools\MSVC\14.28.29333\include\xmemory
;	COMDAT ??$_Destroy_in_place@PAU?$_Tree_node@U?$pair@$$CBHUSChatSet@CPythonChat@@@std@@PAX@std@@@std@@YAXAAPAU?$_Tree_node@U?$pair@$$CBHUSChatSet@CPythonChat@@@std@@PAX@0@@Z
_TEXT	SEGMENT
__Obj$ = 8						; size = 4
??$_Destroy_in_place@PAU?$_Tree_node@U?$pair@$$CBHUSChatSet@CPythonChat@@@std@@PAX@std@@@std@@YAXAAPAU?$_Tree_node@U?$pair@$$CBHUSChatSet@CPythonChat@@@std@@PAX@0@@Z PROC ; std::_Destroy_in_place<std::_Tree_node<std::pair<int const ,CPythonChat::SChatSet>,void *> *>, COMDAT

; 271  : #if _HAS_IF_CONSTEXPR
; 272  :     if constexpr (is_array_v<_Ty>) {
; 273  :         _Destroy_range(_Obj, _Obj + extent_v<_Ty>);
; 274  :     } else
; 275  : #endif // _HAS_IF_CONSTEXPR
; 276  :     {
; 277  :         _Obj.~_Ty();
; 278  :     }
; 279  : }

  00000	c2 00 00	 ret	 0
??$_Destroy_in_place@PAU?$_Tree_node@U?$pair@$$CBHUSChatSet@CPythonChat@@@std@@PAX@std@@@std@@YAXAAPAU?$_Tree_node@U?$pair@$$CBHUSChatSet@CPythonChat@@@std@@PAX@0@@Z ENDP ; std::_Destroy_in_place<std::_Tree_node<std::pair<int const ,CPythonChat::SChatSet>,void *> *>
_TEXT	ENDS
; Function compile flags: /Ogtp
; File C:\Program Files (x86)\Microsoft Visual Studio\2019\Community\VC\Tools\MSVC\14.28.29333\include\xmemory
;	COMDAT ??$_Destroy_in_place@PAU?$_Tree_node@U?$pair@$$CBV?$basic_string@DU?$char_traits@D@std@@V?$allocator@D@2@@std@@PAVCWhisper@@@std@@PAX@std@@@std@@YAXAAPAU?$_Tree_node@U?$pair@$$CBV?$basic_string@DU?$char_traits@D@std@@V?$allocator@D@2@@std@@PAVCWhisper@@@std@@PAX@0@@Z
_TEXT	SEGMENT
__Obj$ = 8						; size = 4
??$_Destroy_in_place@PAU?$_Tree_node@U?$pair@$$CBV?$basic_string@DU?$char_traits@D@std@@V?$allocator@D@2@@std@@PAVCWhisper@@@std@@PAX@std@@@std@@YAXAAPAU?$_Tree_node@U?$pair@$$CBV?$basic_string@DU?$char_traits@D@std@@V?$allocator@D@2@@std@@PAVCWhisper@@@std@@PAX@0@@Z PROC ; std::_Destroy_in_place<std::_Tree_node<std::pair<std::basic_string<char,std::char_traits<char>,std::allocator<char> > const ,CWhisper *>,void *> *>, COMDAT

; 271  : #if _HAS_IF_CONSTEXPR
; 272  :     if constexpr (is_array_v<_Ty>) {
; 273  :         _Destroy_range(_Obj, _Obj + extent_v<_Ty>);
; 274  :     } else
; 275  : #endif // _HAS_IF_CONSTEXPR
; 276  :     {
; 277  :         _Obj.~_Ty();
; 278  :     }
; 279  : }

  00000	c2 00 00	 ret	 0
??$_Destroy_in_place@PAU?$_Tree_node@U?$pair@$$CBV?$basic_string@DU?$char_traits@D@std@@V?$allocator@D@2@@std@@PAVCWhisper@@@std@@PAX@std@@@std@@YAXAAPAU?$_Tree_node@U?$pair@$$CBV?$basic_string@DU?$char_traits@D@std@@V?$allocator@D@2@@std@@PAVCWhisper@@@std@@PAX@0@@Z ENDP ; std::_Destroy_in_place<std::_Tree_node<std::pair<std::basic_string<char,std::char_traits<char>,std::allocator<char> > const ,CWhisper *>,void *> *>
_TEXT	ENDS
; Function compile flags: /Ogtp
; File C:\Program Files (x86)\Microsoft Visual Studio\2019\Community\VC\Tools\MSVC\14.28.29333\include\xmemory
;	COMDAT ??$_Destroy_in_place@PAU?$_Tree_node@V?$basic_string@DU?$char_traits@D@std@@V?$allocator@D@2@@std@@PAX@std@@@std@@YAXAAPAU?$_Tree_node@V?$basic_string@DU?$char_traits@D@std@@V?$allocator@D@2@@std@@PAX@0@@Z
_TEXT	SEGMENT
__Obj$ = 8						; size = 4
??$_Destroy_in_place@PAU?$_Tree_node@V?$basic_string@DU?$char_traits@D@std@@V?$allocator@D@2@@std@@PAX@std@@@std@@YAXAAPAU?$_Tree_node@V?$basic_string@DU?$char_traits@D@std@@V?$allocator@D@2@@std@@PAX@0@@Z PROC ; std::_Destroy_in_place<std::_Tree_node<std::basic_string<char,std::char_traits<char>,std::allocator<char> >,void *> *>, COMDAT

; 271  : #if _HAS_IF_CONSTEXPR
; 272  :     if constexpr (is_array_v<_Ty>) {
; 273  :         _Destroy_range(_Obj, _Obj + extent_v<_Ty>);
; 274  :     } else
; 275  : #endif // _HAS_IF_CONSTEXPR
; 276  :     {
; 277  :         _Obj.~_Ty();
; 278  :     }
; 279  : }

  00000	c2 00 00	 ret	 0
??$_Destroy_in_place@PAU?$_Tree_node@V?$basic_string@DU?$char_traits@D@std@@V?$allocator@D@2@@std@@PAX@std@@@std@@YAXAAPAU?$_Tree_node@V?$basic_string@DU?$char_traits@D@std@@V?$allocator@D@2@@std@@PAX@0@@Z ENDP ; std::_Destroy_in_place<std::_Tree_node<std::basic_string<char,std::char_traits<char>,std::allocator<char> >,void *> *>
_TEXT	ENDS
; Function compile flags: /Ogtp
; File C:\Program Files (x86)\Microsoft Visual Studio\2019\Community\VC\Tools\MSVC\14.28.29333\include\xmemory
;	COMDAT ??1?$_Tree_temp_node_alloc@V?$allocator@U?$_Tree_node@U?$pair@$$CBV?$basic_string@DU?$char_traits@D@std@@V?$allocator@D@2@@std@@PAVCWhisper@@@std@@PAX@std@@@std@@@std@@QAE@XZ
_TEXT	SEGMENT
??1?$_Tree_temp_node_alloc@V?$allocator@U?$_Tree_node@U?$pair@$$CBV?$basic_string@DU?$char_traits@D@std@@V?$allocator@D@2@@std@@PAVCWhisper@@@std@@PAX@std@@@std@@@std@@QAE@XZ PROC ; std::_Tree_temp_node_alloc<std::allocator<std::_Tree_node<std::pair<std::basic_string<char,std::char_traits<char>,std::allocator<char> > const ,CWhisper *>,void *> > >::~_Tree_temp_node_alloc<std::allocator<std::_Tree_node<std::pair<std::basic_string<char,std::char_traits<char>,std::allocator<char> > const ,CWhisper *>,void *> > >, COMDAT
; _this$ = ecx

; 1057 :         if (_Ptr) {

  00000	8b 41 04	 mov	 eax, DWORD PTR [ecx+4]
  00003	85 c0		 test	 eax, eax
  00005	74 0b		 je	 SHORT $LN4@Tree_temp_

; 810  :         _Deallocate<_New_alignof<_Ty>>(_Ptr, sizeof(_Ty) * _Count);

  00007	6a 2c		 push	 44			; 0000002cH
  00009	50		 push	 eax
  0000a	e8 00 00 00 00	 call	 ??$_Deallocate@$07$0A@@std@@YAXPAXI@Z ; std::_Deallocate<8,0>
  0000f	83 c4 08	 add	 esp, 8
$LN4@Tree_temp_:
  00012	c3		 ret	 0
??1?$_Tree_temp_node_alloc@V?$allocator@U?$_Tree_node@U?$pair@$$CBV?$basic_string@DU?$char_traits@D@std@@V?$allocator@D@2@@std@@PAVCWhisper@@@std@@PAX@std@@@std@@@std@@QAE@XZ ENDP ; std::_Tree_temp_node_alloc<std::allocator<std::_Tree_node<std::pair<std::basic_string<char,std::char_traits<char>,std::allocator<char> > const ,CWhisper *>,void *> > >::~_Tree_temp_node_alloc<std::allocator<std::_Tree_node<std::pair<std::basic_string<char,std::char_traits<char>,std::allocator<char> > const ,CWhisper *>,void *> > >
_TEXT	ENDS
; Function compile flags: /Ogtp
; File C:\Program Files (x86)\Microsoft Visual Studio\2019\Community\VC\Tools\MSVC\14.28.29333\include\xmemory
;	COMDAT ??1?$_Alloc_construct_ptr@V?$allocator@U?$_Tree_node@U?$pair@$$CBV?$basic_string@DU?$char_traits@D@std@@V?$allocator@D@2@@std@@PAVCWhisper@@@std@@PAX@std@@@std@@@std@@QAE@XZ
_TEXT	SEGMENT
??1?$_Alloc_construct_ptr@V?$allocator@U?$_Tree_node@U?$pair@$$CBV?$basic_string@DU?$char_traits@D@std@@V?$allocator@D@2@@std@@PAVCWhisper@@@std@@PAX@std@@@std@@@std@@QAE@XZ PROC ; std::_Alloc_construct_ptr<std::allocator<std::_Tree_node<std::pair<std::basic_string<char,std::char_traits<char>,std::allocator<char> > const ,CWhisper *>,void *> > >::~_Alloc_construct_ptr<std::allocator<std::_Tree_node<std::pair<std::basic_string<char,std::char_traits<char>,std::allocator<char> > const ,CWhisper *>,void *> > >, COMDAT
; _this$ = ecx

; 1057 :         if (_Ptr) {

  00000	8b 41 04	 mov	 eax, DWORD PTR [ecx+4]
  00003	85 c0		 test	 eax, eax
  00005	74 0b		 je	 SHORT $LN2@Alloc_cons

; 810  :         _Deallocate<_New_alignof<_Ty>>(_Ptr, sizeof(_Ty) * _Count);

  00007	6a 2c		 push	 44			; 0000002cH
  00009	50		 push	 eax
  0000a	e8 00 00 00 00	 call	 ??$_Deallocate@$07$0A@@std@@YAXPAXI@Z ; std::_Deallocate<8,0>
  0000f	83 c4 08	 add	 esp, 8
$LN2@Alloc_cons:

; 1058 :             _Al.deallocate(_Ptr, 1);
; 1059 :         }
; 1060 :     }

  00012	c3		 ret	 0
??1?$_Alloc_construct_ptr@V?$allocator@U?$_Tree_node@U?$pair@$$CBV?$basic_string@DU?$char_traits@D@std@@V?$allocator@D@2@@std@@PAVCWhisper@@@std@@PAX@std@@@std@@@std@@QAE@XZ ENDP ; std::_Alloc_construct_ptr<std::allocator<std::_Tree_node<std::pair<std::basic_string<char,std::char_traits<char>,std::allocator<char> > const ,CWhisper *>,void *> > >::~_Alloc_construct_ptr<std::allocator<std::_Tree_node<std::pair<std::basic_string<char,std::char_traits<char>,std::allocator<char> > const ,CWhisper *>,void *> > >
_TEXT	ENDS
; Function compile flags: /Ogtp
; File C:\Program Files (x86)\Microsoft Visual Studio\2019\Community\VC\Tools\MSVC\14.28.29333\include\xmemory
;	COMDAT ??1?$_Alloc_construct_ptr@V?$allocator@U?$_Tree_node@V?$basic_string@DU?$char_traits@D@std@@V?$allocator@D@2@@std@@PAX@std@@@std@@@std@@QAE@XZ
_TEXT	SEGMENT
??1?$_Alloc_construct_ptr@V?$allocator@U?$_Tree_node@V?$basic_string@DU?$char_traits@D@std@@V?$allocator@D@2@@std@@PAX@std@@@std@@@std@@QAE@XZ PROC ; std::_Alloc_construct_ptr<std::allocator<std::_Tree_node<std::basic_string<char,std::char_traits<char>,std::allocator<char> >,void *> > >::~_Alloc_construct_ptr<std::allocator<std::_Tree_node<std::basic_string<char,std::char_traits<char>,std::allocator<char> >,void *> > >, COMDAT
; _this$ = ecx

; 1057 :         if (_Ptr) {

  00000	8b 41 04	 mov	 eax, DWORD PTR [ecx+4]
  00003	85 c0		 test	 eax, eax
  00005	74 0b		 je	 SHORT $LN2@Alloc_cons

; 810  :         _Deallocate<_New_alignof<_Ty>>(_Ptr, sizeof(_Ty) * _Count);

  00007	6a 28		 push	 40			; 00000028H
  00009	50		 push	 eax
  0000a	e8 00 00 00 00	 call	 ??$_Deallocate@$07$0A@@std@@YAXPAXI@Z ; std::_Deallocate<8,0>
  0000f	83 c4 08	 add	 esp, 8
$LN2@Alloc_cons:

; 1058 :             _Al.deallocate(_Ptr, 1);
; 1059 :         }
; 1060 :     }

  00012	c3		 ret	 0
??1?$_Alloc_construct_ptr@V?$allocator@U?$_Tree_node@V?$basic_string@DU?$char_traits@D@std@@V?$allocator@D@2@@std@@PAX@std@@@std@@@std@@QAE@XZ ENDP ; std::_Alloc_construct_ptr<std::allocator<std::_Tree_node<std::basic_string<char,std::char_traits<char>,std::allocator<char> >,void *> > >::~_Alloc_construct_ptr<std::allocator<std::_Tree_node<std::basic_string<char,std::char_traits<char>,std::allocator<char> >,void *> > >
_TEXT	ENDS
; Function compile flags: /Ogtp
; File C:\Program Files (x86)\Microsoft Visual Studio\2019\Community\VC\Tools\MSVC\14.28.29333\include\xmemory
;	COMDAT ??$_Destroy_range@PAPAPAUSChatLine@CWhisper@@PAPAPAU12@@std@@YAXPAPAPAUSChatLine@CWhisper@@QAPAPAU12@@Z
_TEXT	SEGMENT
__First$ = 8						; size = 4
__Last$ = 12						; size = 4
??$_Destroy_range@PAPAPAUSChatLine@CWhisper@@PAPAPAU12@@std@@YAXPAPAPAUSChatLine@CWhisper@@QAPAPAU12@@Z PROC ; std::_Destroy_range<CWhisper::SChatLine * * *,CWhisper::SChatLine * * *>, COMDAT

; 975  :     // note that this is an optimization for debug mode codegen; in release mode the BE removes all of this
; 976  :     if _CONSTEXPR_IF (!is_trivially_destructible_v<_Iter_value_t<_NoThrowFwdIt>>) {
; 977  :         for (; _First != _Last; ++_First) {
; 978  :             _Destroy_in_place(*_First);
; 979  :         }
; 980  :     }
; 981  : }

  00000	c2 00 00	 ret	 0
??$_Destroy_range@PAPAPAUSChatLine@CWhisper@@PAPAPAU12@@std@@YAXPAPAPAUSChatLine@CWhisper@@QAPAPAU12@@Z ENDP ; std::_Destroy_range<CWhisper::SChatLine * * *,CWhisper::SChatLine * * *>
_TEXT	ENDS
; Function compile flags: /Ogtp
; File C:\Program Files (x86)\Microsoft Visual Studio\2019\Community\VC\Tools\MSVC\14.28.29333\include\xmemory
;	COMDAT ??$_Uninitialized_value_construct_n_unchecked1@PAPAPAUSChatLine@CWhisper@@I@std@@YAPAPAPAUSChatLine@CWhisper@@PAPAPAU12@I@Z
_TEXT	SEGMENT
__UFirst$ = 8						; size = 4
__Count$ = 12						; size = 4
??$_Uninitialized_value_construct_n_unchecked1@PAPAPAUSChatLine@CWhisper@@I@std@@YAPAPAPAUSChatLine@CWhisper@@PAPAPAU12@I@Z PROC ; std::_Uninitialized_value_construct_n_unchecked1<CWhisper::SChatLine * * *,unsigned int>, COMDAT

; 1912 : _NoThrowFwdIt _Uninitialized_value_construct_n_unchecked1(_NoThrowFwdIt _UFirst, _Diff _Count) {

  00000	55		 push	 ebp
  00001	8b ec		 mov	 ebp, esp

; 1913 :     // value-initialize all elements in [_UFirst, _UFirst + _Count_raw)
; 1914 :     _STL_INTERNAL_CHECK(_Count >= 0);
; 1915 :     if constexpr (_Use_memset_value_construct_v<_NoThrowFwdIt>) {
; 1916 :         return _Zero_range(_UFirst, _UFirst + _Count);

  00003	8b 4d 08	 mov	 ecx, DWORD PTR __UFirst$[ebp]
  00006	8b 45 0c	 mov	 eax, DWORD PTR __Count$[ebp]
  00009	8d 04 81	 lea	 eax, DWORD PTR [ecx+eax*4]
  0000c	89 45 0c	 mov	 DWORD PTR __Count$[ebp], eax
  0000f	89 4d 08	 mov	 DWORD PTR __UFirst$[ebp], ecx

; 1917 :     } else {
; 1918 :         _Uninitialized_backout<_NoThrowFwdIt> _Backout{_UFirst};
; 1919 :         for (; 0 < _Count; --_Count) {
; 1920 :             _Backout._Emplace_back();
; 1921 :         }
; 1922 : 
; 1923 :         return _Backout._Release();
; 1924 :     }
; 1925 : }

  00012	5d		 pop	 ebp

; 1913 :     // value-initialize all elements in [_UFirst, _UFirst + _Count_raw)
; 1914 :     _STL_INTERNAL_CHECK(_Count >= 0);
; 1915 :     if constexpr (_Use_memset_value_construct_v<_NoThrowFwdIt>) {
; 1916 :         return _Zero_range(_UFirst, _UFirst + _Count);

  00013	e9 00 00 00 00	 jmp	 ??$_Zero_range@PAPAPAUSChatLine@CWhisper@@@std@@YAPAPAPAUSChatLine@CWhisper@@QAPAPAU12@0@Z ; std::_Zero_range<CWhisper::SChatLine * * *>
??$_Uninitialized_value_construct_n_unchecked1@PAPAPAUSChatLine@CWhisper@@I@std@@YAPAPAPAUSChatLine@CWhisper@@PAPAPAU12@I@Z ENDP ; std::_Uninitialized_value_construct_n_unchecked1<CWhisper::SChatLine * * *,unsigned int>
_TEXT	ENDS
; Function compile flags: /Ogtp
; File C:\Program Files (x86)\Microsoft Visual Studio\2019\Community\VC\Tools\MSVC\14.28.29333\include\xmemory
;	COMDAT ??$uninitialized_copy@PAPAPAUSChatLine@CWhisper@@PAPAPAU12@@std@@YAPAPAPAUSChatLine@CWhisper@@QAPAPAU12@0PAPAPAU12@@Z
_TEXT	SEGMENT
__First$ = 8						; size = 4
__Last$ = 12						; size = 4
__Dest$ = 16						; size = 4
??$uninitialized_copy@PAPAPAUSChatLine@CWhisper@@PAPAPAU12@@std@@YAPAPAPAUSChatLine@CWhisper@@QAPAPAU12@0PAPAPAU12@@Z PROC ; std::uninitialized_copy<CWhisper::SChatLine * * *,CWhisper::SChatLine * * *>, COMDAT

; 1629 : _NoThrowFwdIt uninitialized_copy(const _InIt _First, const _InIt _Last, _NoThrowFwdIt _Dest) {

  00000	55		 push	 ebp
  00001	8b ec		 mov	 ebp, esp

; 1637 :     } else {
; 1638 :         _Uninitialized_backout<decltype(_UDest)> _Backout{_UDest};
; 1639 :         for (; _UFirst != _ULast; ++_UFirst) {
; 1640 :             _Backout._Emplace_back(*_UFirst);
; 1641 :         }
; 1642 : 
; 1643 :         _UDest = _Backout._Release();
; 1644 :     }
; 1645 : 
; 1646 :     _Seek_wrapped(_Dest, _UDest);
; 1647 :     return _Dest;
; 1648 : }

  00003	5d		 pop	 ebp

; 1630 :     // copy [_First, _Last) to raw [_Dest, ...)
; 1631 :     _Adl_verify_range(_First, _Last);
; 1632 :     auto _UFirst      = _Get_unwrapped(_First);
; 1633 :     const auto _ULast = _Get_unwrapped(_Last);
; 1634 :     auto _UDest       = _Get_unwrapped_n(_Dest, _Idl_distance<_InIt>(_UFirst, _ULast));
; 1635 :     if constexpr (_Ptr_copy_cat<decltype(_UFirst), decltype(_UDest)>::_Really_trivial) {
; 1636 :         _UDest = _Copy_memmove(_UFirst, _ULast, _UDest);

  00004	e9 00 00 00 00	 jmp	 ??$_Copy_memmove@PAPAPAUSChatLine@CWhisper@@PAPAPAU12@@std@@YAPAPAPAUSChatLine@CWhisper@@PAPAPAU12@00@Z ; std::_Copy_memmove<CWhisper::SChatLine * * *,CWhisper::SChatLine * * *>
??$uninitialized_copy@PAPAPAUSChatLine@CWhisper@@PAPAPAU12@@std@@YAPAPAPAUSChatLine@CWhisper@@QAPAPAU12@0PAPAPAU12@@Z ENDP ; std::uninitialized_copy<CWhisper::SChatLine * * *,CWhisper::SChatLine * * *>
_TEXT	ENDS
; Function compile flags: /Ogtp
; File C:\Program Files (x86)\Microsoft Visual Studio\2019\Community\VC\Tools\MSVC\14.28.29333\include\xmemory
;	COMDAT ??$_Uninitialized_fill_n@V?$allocator@H@std@@@std@@YAPAHPAHIABHAAV?$allocator@H@0@@Z
_TEXT	SEGMENT
__First$ = 8						; size = 4
__Count$ = 12						; size = 4
__Val$ = 16						; size = 4
__Al$ = 20						; size = 4
??$_Uninitialized_fill_n@V?$allocator@H@std@@@std@@YAPAHPAHIABHAAV?$allocator@H@0@@Z PROC ; std::_Uninitialized_fill_n<std::allocator<int> >, COMDAT

; 1750 :     _Alloc_ptr_t<_Alloc> _First, _Alloc_size_t<_Alloc> _Count, const typename _Alloc::value_type& _Val, _Alloc& _Al) {

  00000	55		 push	 ebp
  00001	8b ec		 mov	 ebp, esp

; 1751 :     // copy _Count copies of _Val to raw _First, using _Al
; 1752 :     using _Ty = typename _Alloc::value_type;
; 1753 :     if constexpr (_Fill_memset_is_safe<_Ty*, _Ty> && _Uses_default_construct<_Alloc, _Ty*, _Ty>::value) {
; 1754 :         _Fill_memset(_Unfancy(_First), _Val, static_cast<size_t>(_Count));
; 1755 :         return _First + _Count;
; 1756 :     } else {
; 1757 :         _Uninitialized_backout_al<_Alloc> _Backout{_First, _Al};
; 1758 :         for (; 0 < _Count; --_Count) {

  00003	8b 55 0c	 mov	 edx, DWORD PTR __Count$[ebp]

; 1535 :     _Uninitialized_backout_al(pointer _Dest, _Alloc& _Al_) : _First(_Dest), _Last(_Dest), _Al(_Al_) {}

  00006	8b 45 08	 mov	 eax, DWORD PTR __First$[ebp]

; 1751 :     // copy _Count copies of _Val to raw _First, using _Al
; 1752 :     using _Ty = typename _Alloc::value_type;
; 1753 :     if constexpr (_Fill_memset_is_safe<_Ty*, _Ty> && _Uses_default_construct<_Alloc, _Ty*, _Ty>::value) {
; 1754 :         _Fill_memset(_Unfancy(_First), _Val, static_cast<size_t>(_Count));
; 1755 :         return _First + _Count;
; 1756 :     } else {
; 1757 :         _Uninitialized_backout_al<_Alloc> _Backout{_First, _Al};
; 1758 :         for (; 0 < _Count; --_Count) {

  00009	85 d2		 test	 edx, edx
  0000b	74 11		 je	 SHORT $LN3@Uninitiali
  0000d	56		 push	 esi
  0000e	8b 75 10	 mov	 esi, DWORD PTR __Val$[ebp]
$LL4@Uninitiali:

; 1546 :         allocator_traits<_Alloc>::construct(_Al, _Unfancy(_Last), _STD forward<_Types>(_Vals)...);

  00011	8b 0e		 mov	 ecx, DWORD PTR [esi]
  00013	89 08		 mov	 DWORD PTR [eax], ecx

; 1547 :         ++_Last;

  00015	83 c0 04	 add	 eax, 4

; 1751 :     // copy _Count copies of _Val to raw _First, using _Al
; 1752 :     using _Ty = typename _Alloc::value_type;
; 1753 :     if constexpr (_Fill_memset_is_safe<_Ty*, _Ty> && _Uses_default_construct<_Alloc, _Ty*, _Ty>::value) {
; 1754 :         _Fill_memset(_Unfancy(_First), _Val, static_cast<size_t>(_Count));
; 1755 :         return _First + _Count;
; 1756 :     } else {
; 1757 :         _Uninitialized_backout_al<_Alloc> _Backout{_First, _Al};
; 1758 :         for (; 0 < _Count; --_Count) {

  00018	83 ea 01	 sub	 edx, 1
  0001b	75 f4		 jne	 SHORT $LL4@Uninitiali

; 1759 :             _Backout._Emplace_back(_Val);
; 1760 :         }
; 1761 : 
; 1762 :         return _Backout._Release();

  0001d	5e		 pop	 esi
$LN3@Uninitiali:

; 1763 :     }
; 1764 : }

  0001e	5d		 pop	 ebp
  0001f	c3		 ret	 0
??$_Uninitialized_fill_n@V?$allocator@H@std@@@std@@YAPAHPAHIABHAAV?$allocator@H@0@@Z ENDP ; std::_Uninitialized_fill_n<std::allocator<int> >
_TEXT	ENDS
; Function compile flags: /Ogtp
; File C:\Program Files (x86)\Microsoft Visual Studio\2019\Community\VC\Tools\MSVC\14.28.29333\include\xmemory
;	COMDAT ??$_Destroy_range@PAPAPAUSChatLine@CPythonChat@@PAPAPAU12@@std@@YAXPAPAPAUSChatLine@CPythonChat@@QAPAPAU12@@Z
_TEXT	SEGMENT
__First$ = 8						; size = 4
__Last$ = 12						; size = 4
??$_Destroy_range@PAPAPAUSChatLine@CPythonChat@@PAPAPAU12@@std@@YAXPAPAPAUSChatLine@CPythonChat@@QAPAPAU12@@Z PROC ; std::_Destroy_range<CPythonChat::SChatLine * * *,CPythonChat::SChatLine * * *>, COMDAT

; 975  :     // note that this is an optimization for debug mode codegen; in release mode the BE removes all of this
; 976  :     if _CONSTEXPR_IF (!is_trivially_destructible_v<_Iter_value_t<_NoThrowFwdIt>>) {
; 977  :         for (; _First != _Last; ++_First) {
; 978  :             _Destroy_in_place(*_First);
; 979  :         }
; 980  :     }
; 981  : }

  00000	c2 00 00	 ret	 0
??$_Destroy_range@PAPAPAUSChatLine@CPythonChat@@PAPAPAU12@@std@@YAXPAPAPAUSChatLine@CPythonChat@@QAPAPAU12@@Z ENDP ; std::_Destroy_range<CPythonChat::SChatLine * * *,CPythonChat::SChatLine * * *>
_TEXT	ENDS
; Function compile flags: /Ogtp
; File C:\Program Files (x86)\Microsoft Visual Studio\2019\Community\VC\Tools\MSVC\14.28.29333\include\xmemory
;	COMDAT ??$_Uninitialized_value_construct_n_unchecked1@PAPAPAUSChatLine@CPythonChat@@I@std@@YAPAPAPAUSChatLine@CPythonChat@@PAPAPAU12@I@Z
_TEXT	SEGMENT
__UFirst$ = 8						; size = 4
__Count$ = 12						; size = 4
??$_Uninitialized_value_construct_n_unchecked1@PAPAPAUSChatLine@CPythonChat@@I@std@@YAPAPAPAUSChatLine@CPythonChat@@PAPAPAU12@I@Z PROC ; std::_Uninitialized_value_construct_n_unchecked1<CPythonChat::SChatLine * * *,unsigned int>, COMDAT

; 1912 : _NoThrowFwdIt _Uninitialized_value_construct_n_unchecked1(_NoThrowFwdIt _UFirst, _Diff _Count) {

  00000	55		 push	 ebp
  00001	8b ec		 mov	 ebp, esp

; 1913 :     // value-initialize all elements in [_UFirst, _UFirst + _Count_raw)
; 1914 :     _STL_INTERNAL_CHECK(_Count >= 0);
; 1915 :     if constexpr (_Use_memset_value_construct_v<_NoThrowFwdIt>) {
; 1916 :         return _Zero_range(_UFirst, _UFirst + _Count);

  00003	8b 4d 08	 mov	 ecx, DWORD PTR __UFirst$[ebp]
  00006	8b 45 0c	 mov	 eax, DWORD PTR __Count$[ebp]
  00009	8d 04 81	 lea	 eax, DWORD PTR [ecx+eax*4]
  0000c	89 45 0c	 mov	 DWORD PTR __Count$[ebp], eax
  0000f	89 4d 08	 mov	 DWORD PTR __UFirst$[ebp], ecx

; 1917 :     } else {
; 1918 :         _Uninitialized_backout<_NoThrowFwdIt> _Backout{_UFirst};
; 1919 :         for (; 0 < _Count; --_Count) {
; 1920 :             _Backout._Emplace_back();
; 1921 :         }
; 1922 : 
; 1923 :         return _Backout._Release();
; 1924 :     }
; 1925 : }

  00012	5d		 pop	 ebp

; 1913 :     // value-initialize all elements in [_UFirst, _UFirst + _Count_raw)
; 1914 :     _STL_INTERNAL_CHECK(_Count >= 0);
; 1915 :     if constexpr (_Use_memset_value_construct_v<_NoThrowFwdIt>) {
; 1916 :         return _Zero_range(_UFirst, _UFirst + _Count);

  00013	e9 00 00 00 00	 jmp	 ??$_Zero_range@PAPAPAUSChatLine@CPythonChat@@@std@@YAPAPAPAUSChatLine@CPythonChat@@QAPAPAU12@0@Z ; std::_Zero_range<CPythonChat::SChatLine * * *>
??$_Uninitialized_value_construct_n_unchecked1@PAPAPAUSChatLine@CPythonChat@@I@std@@YAPAPAPAUSChatLine@CPythonChat@@PAPAPAU12@I@Z ENDP ; std::_Uninitialized_value_construct_n_unchecked1<CPythonChat::SChatLine * * *,unsigned int>
_TEXT	ENDS
; Function compile flags: /Ogtp
; File C:\Program Files (x86)\Microsoft Visual Studio\2019\Community\VC\Tools\MSVC\14.28.29333\include\xmemory
;	COMDAT ??$uninitialized_copy@PAPAPAUSChatLine@CPythonChat@@PAPAPAU12@@std@@YAPAPAPAUSChatLine@CPythonChat@@QAPAPAU12@0PAPAPAU12@@Z
_TEXT	SEGMENT
__First$ = 8						; size = 4
__Last$ = 12						; size = 4
__Dest$ = 16						; size = 4
??$uninitialized_copy@PAPAPAUSChatLine@CPythonChat@@PAPAPAU12@@std@@YAPAPAPAUSChatLine@CPythonChat@@QAPAPAU12@0PAPAPAU12@@Z PROC ; std::uninitialized_copy<CPythonChat::SChatLine * * *,CPythonChat::SChatLine * * *>, COMDAT

; 1629 : _NoThrowFwdIt uninitialized_copy(const _InIt _First, const _InIt _Last, _NoThrowFwdIt _Dest) {

  00000	55		 push	 ebp
  00001	8b ec		 mov	 ebp, esp

; 1637 :     } else {
; 1638 :         _Uninitialized_backout<decltype(_UDest)> _Backout{_UDest};
; 1639 :         for (; _UFirst != _ULast; ++_UFirst) {
; 1640 :             _Backout._Emplace_back(*_UFirst);
; 1641 :         }
; 1642 : 
; 1643 :         _UDest = _Backout._Release();
; 1644 :     }
; 1645 : 
; 1646 :     _Seek_wrapped(_Dest, _UDest);
; 1647 :     return _Dest;
; 1648 : }

  00003	5d		 pop	 ebp

; 1630 :     // copy [_First, _Last) to raw [_Dest, ...)
; 1631 :     _Adl_verify_range(_First, _Last);
; 1632 :     auto _UFirst      = _Get_unwrapped(_First);
; 1633 :     const auto _ULast = _Get_unwrapped(_Last);
; 1634 :     auto _UDest       = _Get_unwrapped_n(_Dest, _Idl_distance<_InIt>(_UFirst, _ULast));
; 1635 :     if constexpr (_Ptr_copy_cat<decltype(_UFirst), decltype(_UDest)>::_Really_trivial) {
; 1636 :         _UDest = _Copy_memmove(_UFirst, _ULast, _UDest);

  00004	e9 00 00 00 00	 jmp	 ??$_Copy_memmove@PAPAPAUSChatLine@CPythonChat@@PAPAPAU12@@std@@YAPAPAPAUSChatLine@CPythonChat@@PAPAPAU12@00@Z ; std::_Copy_memmove<CPythonChat::SChatLine * * *,CPythonChat::SChatLine * * *>
??$uninitialized_copy@PAPAPAUSChatLine@CPythonChat@@PAPAPAU12@@std@@YAPAPAPAUSChatLine@CPythonChat@@QAPAPAU12@0PAPAPAU12@@Z ENDP ; std::uninitialized_copy<CPythonChat::SChatLine * * *,CPythonChat::SChatLine * * *>
_TEXT	ENDS
; Function compile flags: /Ogtp
; File C:\Program Files (x86)\Microsoft Visual Studio\2019\Community\VC\Tools\MSVC\14.28.29333\include\xmemory
;	COMDAT ??$_Uninitialized_move@PAPAUSChatLine@CPythonChat@@V?$allocator@PAUSChatLine@CPythonChat@@@std@@@std@@YAPAPAUSChatLine@CPythonChat@@QAPAU12@0PAPAU12@AAV?$allocator@PAUSChatLine@CPythonChat@@@0@@Z
_TEXT	SEGMENT
__First$ = 8						; size = 4
__Last$ = 12						; size = 4
__Dest$ = 16						; size = 4
__Al$ = 20						; size = 4
??$_Uninitialized_move@PAPAUSChatLine@CPythonChat@@V?$allocator@PAUSChatLine@CPythonChat@@@std@@@std@@YAPAPAUSChatLine@CPythonChat@@QAPAU12@0PAPAU12@AAV?$allocator@PAUSChatLine@CPythonChat@@@0@@Z PROC ; std::_Uninitialized_move<CPythonChat::SChatLine * *,std::allocator<CPythonChat::SChatLine *> >, COMDAT

; 1685 :     const _InIt _First, const _InIt _Last, _Alloc_ptr_t<_Alloc> _Dest, _Alloc& _Al) {

  00000	55		 push	 ebp
  00001	8b ec		 mov	 ebp, esp
  00003	53		 push	 ebx

; 1686 :     // move [_First, _Last) to raw _Dest, using _Al
; 1687 :     // note: only called internally from elsewhere in the STL
; 1688 :     using _Ptrval     = typename _Alloc::value_type*;
; 1689 :     auto _UFirst      = _Get_unwrapped(_First);
; 1690 :     const auto _ULast = _Get_unwrapped(_Last);
; 1691 :     if constexpr (conjunction_v<bool_constant<_Ptr_move_cat<decltype(_UFirst), _Ptrval>::_Really_trivial>,
; 1692 :                       _Uses_default_construct<_Alloc, _Ptrval, decltype(_STD move(*_UFirst))>>) {
; 1693 :         _Copy_memmove(_UFirst, _ULast, _Unfancy(_Dest));

  00004	8b 5d 10	 mov	 ebx, DWORD PTR __Dest$[ebp]
  00007	57		 push	 edi
  00008	8b 7d 0c	 mov	 edi, DWORD PTR __Last$[ebp]
  0000b	53		 push	 ebx
  0000c	57		 push	 edi
  0000d	ff 75 08	 push	 DWORD PTR __First$[ebp]
  00010	e8 00 00 00 00	 call	 ??$_Copy_memmove@PAPAUSChatLine@CPythonChat@@PAPAU12@@std@@YAPAPAUSChatLine@CPythonChat@@PAPAU12@00@Z ; std::_Copy_memmove<CPythonChat::SChatLine * *,CPythonChat::SChatLine * *>

; 1694 :         return _Dest + (_ULast - _UFirst);

  00015	2b 7d 08	 sub	 edi, DWORD PTR __First$[ebp]
  00018	83 c4 0c	 add	 esp, 12			; 0000000cH
  0001b	c1 ff 02	 sar	 edi, 2
  0001e	8d 04 bb	 lea	 eax, DWORD PTR [ebx+edi*4]
  00021	5f		 pop	 edi
  00022	5b		 pop	 ebx

; 1695 :     } else {
; 1696 :         _Uninitialized_backout_al<_Alloc> _Backout{_Dest, _Al};
; 1697 :         for (; _UFirst != _ULast; ++_UFirst) {
; 1698 :             _Backout._Emplace_back(_STD move(*_UFirst));
; 1699 :         }
; 1700 : 
; 1701 :         return _Backout._Release();
; 1702 :     }
; 1703 : }

  00023	5d		 pop	 ebp
  00024	c3		 ret	 0
??$_Uninitialized_move@PAPAUSChatLine@CPythonChat@@V?$allocator@PAUSChatLine@CPythonChat@@@std@@@std@@YAPAPAUSChatLine@CPythonChat@@QAPAU12@0PAPAU12@AAV?$allocator@PAUSChatLine@CPythonChat@@@0@@Z ENDP ; std::_Uninitialized_move<CPythonChat::SChatLine * *,std::allocator<CPythonChat::SChatLine *> >
_TEXT	ENDS
; Function compile flags: /Ogtp
; File C:\Program Files (x86)\Microsoft Visual Studio\2019\Community\VC\Tools\MSVC\14.28.29333\include\xmemory
;	COMDAT ??$_Uninitialized_move@PAPAVCWhisper@@V?$allocator@PAVCWhisper@@@std@@@std@@YAPAPAVCWhisper@@QAPAV1@0PAPAV1@AAV?$allocator@PAVCWhisper@@@0@@Z
_TEXT	SEGMENT
__First$ = 8						; size = 4
__Last$ = 12						; size = 4
__Dest$ = 16						; size = 4
__Al$ = 20						; size = 4
??$_Uninitialized_move@PAPAVCWhisper@@V?$allocator@PAVCWhisper@@@std@@@std@@YAPAPAVCWhisper@@QAPAV1@0PAPAV1@AAV?$allocator@PAVCWhisper@@@0@@Z PROC ; std::_Uninitialized_move<CWhisper * *,std::allocator<CWhisper *> >, COMDAT

; 1685 :     const _InIt _First, const _InIt _Last, _Alloc_ptr_t<_Alloc> _Dest, _Alloc& _Al) {

  00000	55		 push	 ebp
  00001	8b ec		 mov	 ebp, esp
  00003	53		 push	 ebx

; 1686 :     // move [_First, _Last) to raw _Dest, using _Al
; 1687 :     // note: only called internally from elsewhere in the STL
; 1688 :     using _Ptrval     = typename _Alloc::value_type*;
; 1689 :     auto _UFirst      = _Get_unwrapped(_First);
; 1690 :     const auto _ULast = _Get_unwrapped(_Last);
; 1691 :     if constexpr (conjunction_v<bool_constant<_Ptr_move_cat<decltype(_UFirst), _Ptrval>::_Really_trivial>,
; 1692 :                       _Uses_default_construct<_Alloc, _Ptrval, decltype(_STD move(*_UFirst))>>) {
; 1693 :         _Copy_memmove(_UFirst, _ULast, _Unfancy(_Dest));

  00004	8b 5d 10	 mov	 ebx, DWORD PTR __Dest$[ebp]
  00007	57		 push	 edi
  00008	8b 7d 0c	 mov	 edi, DWORD PTR __Last$[ebp]
  0000b	53		 push	 ebx
  0000c	57		 push	 edi
  0000d	ff 75 08	 push	 DWORD PTR __First$[ebp]
  00010	e8 00 00 00 00	 call	 ??$_Copy_memmove@PAPAVCWhisper@@PAPAV1@@std@@YAPAPAVCWhisper@@PAPAV1@00@Z ; std::_Copy_memmove<CWhisper * *,CWhisper * *>

; 1694 :         return _Dest + (_ULast - _UFirst);

  00015	2b 7d 08	 sub	 edi, DWORD PTR __First$[ebp]
  00018	83 c4 0c	 add	 esp, 12			; 0000000cH
  0001b	c1 ff 02	 sar	 edi, 2
  0001e	8d 04 bb	 lea	 eax, DWORD PTR [ebx+edi*4]
  00021	5f		 pop	 edi
  00022	5b		 pop	 ebx

; 1695 :     } else {
; 1696 :         _Uninitialized_backout_al<_Alloc> _Backout{_Dest, _Al};
; 1697 :         for (; _UFirst != _ULast; ++_UFirst) {
; 1698 :             _Backout._Emplace_back(_STD move(*_UFirst));
; 1699 :         }
; 1700 : 
; 1701 :         return _Backout._Release();
; 1702 :     }
; 1703 : }

  00023	5d		 pop	 ebp
  00024	c3		 ret	 0
??$_Uninitialized_move@PAPAVCWhisper@@V?$allocator@PAVCWhisper@@@std@@@std@@YAPAPAVCWhisper@@QAPAV1@0PAPAV1@AAV?$allocator@PAVCWhisper@@@0@@Z ENDP ; std::_Uninitialized_move<CWhisper * *,std::allocator<CWhisper *> >
_TEXT	ENDS
; Function compile flags: /Ogtp
; File C:\Program Files (x86)\Microsoft Visual Studio\2019\Community\VC\Tools\MSVC\14.28.29333\include\xmemory
;	COMDAT ??$_Uninitialized_move@PAPAUSChatLine@CWhisper@@V?$allocator@PAUSChatLine@CWhisper@@@std@@@std@@YAPAPAUSChatLine@CWhisper@@QAPAU12@0PAPAU12@AAV?$allocator@PAUSChatLine@CWhisper@@@0@@Z
_TEXT	SEGMENT
__First$ = 8						; size = 4
__Last$ = 12						; size = 4
__Dest$ = 16						; size = 4
__Al$ = 20						; size = 4
??$_Uninitialized_move@PAPAUSChatLine@CWhisper@@V?$allocator@PAUSChatLine@CWhisper@@@std@@@std@@YAPAPAUSChatLine@CWhisper@@QAPAU12@0PAPAU12@AAV?$allocator@PAUSChatLine@CWhisper@@@0@@Z PROC ; std::_Uninitialized_move<CWhisper::SChatLine * *,std::allocator<CWhisper::SChatLine *> >, COMDAT

; 1685 :     const _InIt _First, const _InIt _Last, _Alloc_ptr_t<_Alloc> _Dest, _Alloc& _Al) {

  00000	55		 push	 ebp
  00001	8b ec		 mov	 ebp, esp
  00003	53		 push	 ebx

; 1686 :     // move [_First, _Last) to raw _Dest, using _Al
; 1687 :     // note: only called internally from elsewhere in the STL
; 1688 :     using _Ptrval     = typename _Alloc::value_type*;
; 1689 :     auto _UFirst      = _Get_unwrapped(_First);
; 1690 :     const auto _ULast = _Get_unwrapped(_Last);
; 1691 :     if constexpr (conjunction_v<bool_constant<_Ptr_move_cat<decltype(_UFirst), _Ptrval>::_Really_trivial>,
; 1692 :                       _Uses_default_construct<_Alloc, _Ptrval, decltype(_STD move(*_UFirst))>>) {
; 1693 :         _Copy_memmove(_UFirst, _ULast, _Unfancy(_Dest));

  00004	8b 5d 10	 mov	 ebx, DWORD PTR __Dest$[ebp]
  00007	57		 push	 edi
  00008	8b 7d 0c	 mov	 edi, DWORD PTR __Last$[ebp]
  0000b	53		 push	 ebx
  0000c	57		 push	 edi
  0000d	ff 75 08	 push	 DWORD PTR __First$[ebp]
  00010	e8 00 00 00 00	 call	 ??$_Copy_memmove@PAPAUSChatLine@CWhisper@@PAPAU12@@std@@YAPAPAUSChatLine@CWhisper@@PAPAU12@00@Z ; std::_Copy_memmove<CWhisper::SChatLine * *,CWhisper::SChatLine * *>

; 1694 :         return _Dest + (_ULast - _UFirst);

  00015	2b 7d 08	 sub	 edi, DWORD PTR __First$[ebp]
  00018	83 c4 0c	 add	 esp, 12			; 0000000cH
  0001b	c1 ff 02	 sar	 edi, 2
  0001e	8d 04 bb	 lea	 eax, DWORD PTR [ebx+edi*4]
  00021	5f		 pop	 edi
  00022	5b		 pop	 ebx

; 1695 :     } else {
; 1696 :         _Uninitialized_backout_al<_Alloc> _Backout{_Dest, _Al};
; 1697 :         for (; _UFirst != _ULast; ++_UFirst) {
; 1698 :             _Backout._Emplace_back(_STD move(*_UFirst));
; 1699 :         }
; 1700 : 
; 1701 :         return _Backout._Release();
; 1702 :     }
; 1703 : }

  00023	5d		 pop	 ebp
  00024	c3		 ret	 0
??$_Uninitialized_move@PAPAUSChatLine@CWhisper@@V?$allocator@PAUSChatLine@CWhisper@@@std@@@std@@YAPAPAUSChatLine@CWhisper@@QAPAU12@0PAPAU12@AAV?$allocator@PAUSChatLine@CWhisper@@@0@@Z ENDP ; std::_Uninitialized_move<CWhisper::SChatLine * *,std::allocator<CWhisper::SChatLine *> >
_TEXT	ENDS
; Function compile flags: /Ogtp
; File C:\Program Files (x86)\Microsoft Visual Studio\2019\Community\VC\Tools\MSVC\14.28.29333\include\xmemory
;	COMDAT ??$_Construct_in_place@PAU?$_List_node@USWaitChat@CPythonChat@@PAX@std@@ABQAU12@@std@@YAXAAPAU?$_List_node@USWaitChat@CPythonChat@@PAX@0@ABQAU10@@Z
_TEXT	SEGMENT
__Obj$ = 8						; size = 4
_<_Args_0>$ = 12					; size = 4
??$_Construct_in_place@PAU?$_List_node@USWaitChat@CPythonChat@@PAX@std@@ABQAU12@@std@@YAXAAPAU?$_List_node@USWaitChat@CPythonChat@@PAX@0@ABQAU10@@Z PROC ; std::_Construct_in_place<std::_List_node<CPythonChat::SWaitChat,void *> *,std::_List_node<CPythonChat::SWaitChat,void *> * const &>, COMDAT

; 228  : void _Construct_in_place(_Ty& _Obj, _Types&&... _Args) noexcept(is_nothrow_constructible_v<_Ty, _Types...>) {

  00000	55		 push	 ebp
  00001	8b ec		 mov	 ebp, esp

; 229  :     ::new (const_cast<void*>(static_cast<const volatile void*>(_STD addressof(_Obj))))

  00003	8b 45 0c	 mov	 eax, DWORD PTR _<_Args_0>$[ebp]
  00006	8b 08		 mov	 ecx, DWORD PTR [eax]
  00008	8b 45 08	 mov	 eax, DWORD PTR __Obj$[ebp]
  0000b	89 08		 mov	 DWORD PTR [eax], ecx

; 230  :         _Ty(_STD forward<_Types>(_Args)...);
; 231  : }

  0000d	5d		 pop	 ebp
  0000e	c3		 ret	 0
??$_Construct_in_place@PAU?$_List_node@USWaitChat@CPythonChat@@PAX@std@@ABQAU12@@std@@YAXAAPAU?$_List_node@USWaitChat@CPythonChat@@PAX@0@ABQAU10@@Z ENDP ; std::_Construct_in_place<std::_List_node<CPythonChat::SWaitChat,void *> *,std::_List_node<CPythonChat::SWaitChat,void *> * const &>
_TEXT	ENDS
; Function compile flags: /Ogtp
; File C:\Program Files (x86)\Microsoft Visual Studio\2019\Community\VC\Tools\MSVC\14.28.29333\include\xmemory
;	COMDAT ??$_Construct_in_place@PAU?$_List_node@PAUSChatLine@CPythonChat@@PAX@std@@ABQAU12@@std@@YAXAAPAU?$_List_node@PAUSChatLine@CPythonChat@@PAX@0@ABQAU10@@Z
_TEXT	SEGMENT
__Obj$ = 8						; size = 4
_<_Args_0>$ = 12					; size = 4
??$_Construct_in_place@PAU?$_List_node@PAUSChatLine@CPythonChat@@PAX@std@@ABQAU12@@std@@YAXAAPAU?$_List_node@PAUSChatLine@CPythonChat@@PAX@0@ABQAU10@@Z PROC ; std::_Construct_in_place<std::_List_node<CPythonChat::SChatLine *,void *> *,std::_List_node<CPythonChat::SChatLine *,void *> * const &>, COMDAT

; 228  : void _Construct_in_place(_Ty& _Obj, _Types&&... _Args) noexcept(is_nothrow_constructible_v<_Ty, _Types...>) {

  00000	55		 push	 ebp
  00001	8b ec		 mov	 ebp, esp

; 229  :     ::new (const_cast<void*>(static_cast<const volatile void*>(_STD addressof(_Obj))))

  00003	8b 45 0c	 mov	 eax, DWORD PTR _<_Args_0>$[ebp]
  00006	8b 08		 mov	 ecx, DWORD PTR [eax]
  00008	8b 45 08	 mov	 eax, DWORD PTR __Obj$[ebp]
  0000b	89 08		 mov	 DWORD PTR [eax], ecx

; 230  :         _Ty(_STD forward<_Types>(_Args)...);
; 231  : }

  0000d	5d		 pop	 ebp
  0000e	c3		 ret	 0
??$_Construct_in_place@PAU?$_List_node@PAUSChatLine@CPythonChat@@PAX@std@@ABQAU12@@std@@YAXAAPAU?$_List_node@PAUSChatLine@CPythonChat@@PAX@0@ABQAU10@@Z ENDP ; std::_Construct_in_place<std::_List_node<CPythonChat::SChatLine *,void *> *,std::_List_node<CPythonChat::SChatLine *,void *> * const &>
_TEXT	ENDS
; Function compile flags: /Ogtp
; File C:\Program Files (x86)\Microsoft Visual Studio\2019\Community\VC\Tools\MSVC\14.28.29333\include\xmemory
;	COMDAT ??$_Construct_in_place@PAU?$_Tree_node@U?$pair@$$CBHUSChatSet@CPythonChat@@@std@@PAX@std@@ABQAU12@@std@@YAXAAPAU?$_Tree_node@U?$pair@$$CBHUSChatSet@CPythonChat@@@std@@PAX@0@ABQAU10@@Z
_TEXT	SEGMENT
__Obj$ = 8						; size = 4
_<_Args_0>$ = 12					; size = 4
??$_Construct_in_place@PAU?$_Tree_node@U?$pair@$$CBHUSChatSet@CPythonChat@@@std@@PAX@std@@ABQAU12@@std@@YAXAAPAU?$_Tree_node@U?$pair@$$CBHUSChatSet@CPythonChat@@@std@@PAX@0@ABQAU10@@Z PROC ; std::_Construct_in_place<std::_Tree_node<std::pair<int const ,CPythonChat::SChatSet>,void *> *,std::_Tree_node<std::pair<int const ,CPythonChat::SChatSet>,void *> * const &>, COMDAT

; 228  : void _Construct_in_place(_Ty& _Obj, _Types&&... _Args) noexcept(is_nothrow_constructible_v<_Ty, _Types...>) {

  00000	55		 push	 ebp
  00001	8b ec		 mov	 ebp, esp

; 229  :     ::new (const_cast<void*>(static_cast<const volatile void*>(_STD addressof(_Obj))))

  00003	8b 45 0c	 mov	 eax, DWORD PTR _<_Args_0>$[ebp]
  00006	8b 08		 mov	 ecx, DWORD PTR [eax]
  00008	8b 45 08	 mov	 eax, DWORD PTR __Obj$[ebp]
  0000b	89 08		 mov	 DWORD PTR [eax], ecx

; 230  :         _Ty(_STD forward<_Types>(_Args)...);
; 231  : }

  0000d	5d		 pop	 ebp
  0000e	c3		 ret	 0
??$_Construct_in_place@PAU?$_Tree_node@U?$pair@$$CBHUSChatSet@CPythonChat@@@std@@PAX@std@@ABQAU12@@std@@YAXAAPAU?$_Tree_node@U?$pair@$$CBHUSChatSet@CPythonChat@@@std@@PAX@0@ABQAU10@@Z ENDP ; std::_Construct_in_place<std::_Tree_node<std::pair<int const ,CPythonChat::SChatSet>,void *> *,std::_Tree_node<std::pair<int const ,CPythonChat::SChatSet>,void *> * const &>
_TEXT	ENDS
; Function compile flags: /Ogtp
; File C:\Program Files (x86)\Microsoft Visual Studio\2019\Community\VC\Tools\MSVC\14.28.29333\include\xmemory
;	COMDAT ??$_Construct_in_place@PAU?$_Tree_node@U?$pair@$$CBV?$basic_string@DU?$char_traits@D@std@@V?$allocator@D@2@@std@@PAVCWhisper@@@std@@PAX@std@@ABQAU12@@std@@YAXAAPAU?$_Tree_node@U?$pair@$$CBV?$basic_string@DU?$char_traits@D@std@@V?$allocator@D@2@@std@@PAVCWhisper@@@std@@PAX@0@ABQAU10@@Z
_TEXT	SEGMENT
__Obj$ = 8						; size = 4
_<_Args_0>$ = 12					; size = 4
??$_Construct_in_place@PAU?$_Tree_node@U?$pair@$$CBV?$basic_string@DU?$char_traits@D@std@@V?$allocator@D@2@@std@@PAVCWhisper@@@std@@PAX@std@@ABQAU12@@std@@YAXAAPAU?$_Tree_node@U?$pair@$$CBV?$basic_string@DU?$char_traits@D@std@@V?$allocator@D@2@@std@@PAVCWhisper@@@std@@PAX@0@ABQAU10@@Z PROC ; std::_Construct_in_place<std::_Tree_node<std::pair<std::basic_string<char,std::char_traits<char>,std::allocator<char> > const ,CWhisper *>,void *> *,std::_Tree_node<std::pair<std::basic_string<char,std::char_traits<char>,std::allocator<char> > const ,CWhisper *>,void *> * const &>, COMDAT

; 228  : void _Construct_in_place(_Ty& _Obj, _Types&&... _Args) noexcept(is_nothrow_constructible_v<_Ty, _Types...>) {

  00000	55		 push	 ebp
  00001	8b ec		 mov	 ebp, esp

; 229  :     ::new (const_cast<void*>(static_cast<const volatile void*>(_STD addressof(_Obj))))

  00003	8b 45 0c	 mov	 eax, DWORD PTR _<_Args_0>$[ebp]
  00006	8b 08		 mov	 ecx, DWORD PTR [eax]
  00008	8b 45 08	 mov	 eax, DWORD PTR __Obj$[ebp]
  0000b	89 08		 mov	 DWORD PTR [eax], ecx

; 230  :         _Ty(_STD forward<_Types>(_Args)...);
; 231  : }

  0000d	5d		 pop	 ebp
  0000e	c3		 ret	 0
??$_Construct_in_place@PAU?$_Tree_node@U?$pair@$$CBV?$basic_string@DU?$char_traits@D@std@@V?$allocator@D@2@@std@@PAVCWhisper@@@std@@PAX@std@@ABQAU12@@std@@YAXAAPAU?$_Tree_node@U?$pair@$$CBV?$basic_string@DU?$char_traits@D@std@@V?$allocator@D@2@@std@@PAVCWhisper@@@std@@PAX@0@ABQAU10@@Z ENDP ; std::_Construct_in_place<std::_Tree_node<std::pair<std::basic_string<char,std::char_traits<char>,std::allocator<char> > const ,CWhisper *>,void *> *,std::_Tree_node<std::pair<std::basic_string<char,std::char_traits<char>,std::allocator<char> > const ,CWhisper *>,void *> * const &>
_TEXT	ENDS
; Function compile flags: /Ogtp
; File C:\Program Files (x86)\Microsoft Visual Studio\2019\Community\VC\Tools\MSVC\14.28.29333\include\xmemory
;	COMDAT ??$_Construct_in_place@PAU?$_Tree_node@V?$basic_string@DU?$char_traits@D@std@@V?$allocator@D@2@@std@@PAX@std@@ABQAU12@@std@@YAXAAPAU?$_Tree_node@V?$basic_string@DU?$char_traits@D@std@@V?$allocator@D@2@@std@@PAX@0@ABQAU10@@Z
_TEXT	SEGMENT
__Obj$ = 8						; size = 4
_<_Args_0>$ = 12					; size = 4
??$_Construct_in_place@PAU?$_Tree_node@V?$basic_string@DU?$char_traits@D@std@@V?$allocator@D@2@@std@@PAX@std@@ABQAU12@@std@@YAXAAPAU?$_Tree_node@V?$basic_string@DU?$char_traits@D@std@@V?$allocator@D@2@@std@@PAX@0@ABQAU10@@Z PROC ; std::_Construct_in_place<std::_Tree_node<std::basic_string<char,std::char_traits<char>,std::allocator<char> >,void *> *,std::_Tree_node<std::basic_string<char,std::char_traits<char>,std::allocator<char> >,void *> * const &>, COMDAT

; 228  : void _Construct_in_place(_Ty& _Obj, _Types&&... _Args) noexcept(is_nothrow_constructible_v<_Ty, _Types...>) {

  00000	55		 push	 ebp
  00001	8b ec		 mov	 ebp, esp

; 229  :     ::new (const_cast<void*>(static_cast<const volatile void*>(_STD addressof(_Obj))))

  00003	8b 45 0c	 mov	 eax, DWORD PTR _<_Args_0>$[ebp]
  00006	8b 08		 mov	 ecx, DWORD PTR [eax]
  00008	8b 45 08	 mov	 eax, DWORD PTR __Obj$[ebp]
  0000b	89 08		 mov	 DWORD PTR [eax], ecx

; 230  :         _Ty(_STD forward<_Types>(_Args)...);
; 231  : }

  0000d	5d		 pop	 ebp
  0000e	c3		 ret	 0
??$_Construct_in_place@PAU?$_Tree_node@V?$basic_string@DU?$char_traits@D@std@@V?$allocator@D@2@@std@@PAX@std@@ABQAU12@@std@@YAXAAPAU?$_Tree_node@V?$basic_string@DU?$char_traits@D@std@@V?$allocator@D@2@@std@@PAX@0@ABQAU10@@Z ENDP ; std::_Construct_in_place<std::_Tree_node<std::basic_string<char,std::char_traits<char>,std::allocator<char> >,void *> *,std::_Tree_node<std::basic_string<char,std::char_traits<char>,std::allocator<char> >,void *> * const &>
_TEXT	ENDS
; Function compile flags: /Ogtp
; File C:\Program Files (x86)\Microsoft Visual Studio\2019\Community\VC\Tools\MSVC\14.28.29333\include\xmemory
;	COMDAT ??$_Destroy_in_place@PAU?$_List_node@PAUSChatLine@CWhisper@@PAX@std@@@std@@YAXAAPAU?$_List_node@PAUSChatLine@CWhisper@@PAX@0@@Z
_TEXT	SEGMENT
__Obj$ = 8						; size = 4
??$_Destroy_in_place@PAU?$_List_node@PAUSChatLine@CWhisper@@PAX@std@@@std@@YAXAAPAU?$_List_node@PAUSChatLine@CWhisper@@PAX@0@@Z PROC ; std::_Destroy_in_place<std::_List_node<CWhisper::SChatLine *,void *> *>, COMDAT

; 271  : #if _HAS_IF_CONSTEXPR
; 272  :     if constexpr (is_array_v<_Ty>) {
; 273  :         _Destroy_range(_Obj, _Obj + extent_v<_Ty>);
; 274  :     } else
; 275  : #endif // _HAS_IF_CONSTEXPR
; 276  :     {
; 277  :         _Obj.~_Ty();
; 278  :     }
; 279  : }

  00000	c2 00 00	 ret	 0
??$_Destroy_in_place@PAU?$_List_node@PAUSChatLine@CWhisper@@PAX@std@@@std@@YAXAAPAU?$_List_node@PAUSChatLine@CWhisper@@PAX@0@@Z ENDP ; std::_Destroy_in_place<std::_List_node<CWhisper::SChatLine *,void *> *>
_TEXT	ENDS
; Function compile flags: /Ogtp
; File C:\Program Files (x86)\Microsoft Visual Studio\2019\Community\VC\Tools\MSVC\14.28.29333\include\xmemory
;	COMDAT ??$_Destroy_in_place@PAU?$_List_node@PAUSChatLine@CPythonChat@@PAX@std@@@std@@YAXAAPAU?$_List_node@PAUSChatLine@CPythonChat@@PAX@0@@Z
_TEXT	SEGMENT
__Obj$ = 8						; size = 4
??$_Destroy_in_place@PAU?$_List_node@PAUSChatLine@CPythonChat@@PAX@std@@@std@@YAXAAPAU?$_List_node@PAUSChatLine@CPythonChat@@PAX@0@@Z PROC ; std::_Destroy_in_place<std::_List_node<CPythonChat::SChatLine *,void *> *>, COMDAT

; 271  : #if _HAS_IF_CONSTEXPR
; 272  :     if constexpr (is_array_v<_Ty>) {
; 273  :         _Destroy_range(_Obj, _Obj + extent_v<_Ty>);
; 274  :     } else
; 275  : #endif // _HAS_IF_CONSTEXPR
; 276  :     {
; 277  :         _Obj.~_Ty();
; 278  :     }
; 279  : }

  00000	c2 00 00	 ret	 0
??$_Destroy_in_place@PAU?$_List_node@PAUSChatLine@CPythonChat@@PAX@std@@@std@@YAXAAPAU?$_List_node@PAUSChatLine@CPythonChat@@PAX@0@@Z ENDP ; std::_Destroy_in_place<std::_List_node<CPythonChat::SChatLine *,void *> *>
_TEXT	ENDS
; Function compile flags: /Ogtp
; File C:\Program Files (x86)\Microsoft Visual Studio\2019\Community\VC\Tools\MSVC\14.28.29333\include\xmemory
;	COMDAT ??$_Destroy_in_place@PAU?$_List_node@USWaitChat@CPythonChat@@PAX@std@@@std@@YAXAAPAU?$_List_node@USWaitChat@CPythonChat@@PAX@0@@Z
_TEXT	SEGMENT
__Obj$ = 8						; size = 4
??$_Destroy_in_place@PAU?$_List_node@USWaitChat@CPythonChat@@PAX@std@@@std@@YAXAAPAU?$_List_node@USWaitChat@CPythonChat@@PAX@0@@Z PROC ; std::_Destroy_in_place<std::_List_node<CPythonChat::SWaitChat,void *> *>, COMDAT

; 271  : #if _HAS_IF_CONSTEXPR
; 272  :     if constexpr (is_array_v<_Ty>) {
; 273  :         _Destroy_range(_Obj, _Obj + extent_v<_Ty>);
; 274  :     } else
; 275  : #endif // _HAS_IF_CONSTEXPR
; 276  :     {
; 277  :         _Obj.~_Ty();
; 278  :     }
; 279  : }

  00000	c2 00 00	 ret	 0
??$_Destroy_in_place@PAU?$_List_node@USWaitChat@CPythonChat@@PAX@std@@@std@@YAXAAPAU?$_List_node@USWaitChat@CPythonChat@@PAX@0@@Z ENDP ; std::_Destroy_in_place<std::_List_node<CPythonChat::SWaitChat,void *> *>
_TEXT	ENDS
; Function compile flags: /Ogtp
; File C:\Program Files (x86)\Microsoft Visual Studio\2019\Community\VC\Tools\MSVC\14.28.29333\include\vector
; File C:\Program Files (x86)\Microsoft Visual Studio\2019\Community\VC\Tools\MSVC\14.28.29333\include\xmemory
; File C:\Program Files (x86)\Microsoft Visual Studio\2019\Community\VC\Tools\MSVC\14.28.29333\include\vector
; File C:\Program Files (x86)\Microsoft Visual Studio\2019\Community\VC\Tools\MSVC\14.28.29333\include\xmemory
; File C:\Program Files (x86)\Microsoft Visual Studio\2019\Community\VC\Tools\MSVC\14.28.29333\include\vector
; File C:\Program Files (x86)\Microsoft Visual Studio\2019\Community\VC\Tools\MSVC\14.28.29333\include\xmemory
; File C:\Program Files (x86)\Microsoft Visual Studio\2019\Community\VC\Tools\MSVC\14.28.29333\include\vector
; File C:\Program Files (x86)\Microsoft Visual Studio\2019\Community\VC\Tools\MSVC\14.28.29333\include\xmemory
