; Listing generated by Microsoft (R) Optimizing Compiler Version 19.28.29335.0 

	TITLE	D:\Metin2 Server Files\mainline\SRC_2014\Metin2Client\UserInterface\PythonBackground.cpp
	.686P
	.XMM
	include listing.inc
	.model	flat

INCLUDELIB LIBCMT
INCLUDELIB OLDNAMES

PUBLIC	??_7?$CDynamicPoolEx@VCTextureAnimationCWDecorator@NEffectUpdateDecorator@@@@6B@ ; CDynamicPoolEx<NEffectUpdateDecorator::CTextureAnimationCWDecorator>::`vftable'
PUBLIC	??_G?$CDynamicPoolEx@VCTextureAnimationCWDecorator@NEffectUpdateDecorator@@@@UAEPAXI@Z ; CDynamicPoolEx<NEffectUpdateDecorator::CTextureAnimationCWDecorator>::`scalar deleting destructor'
PUBLIC	??_R4?$CDynamicPoolEx@VCHeaderDecorator@NEffectUpdateDecorator@@@@6B@ ; CDynamicPoolEx<NEffectUpdateDecorator::CHeaderDecorator>::`RTTI Complete Object Locator'
PUBLIC	??_R0?AV?$CDynamicPoolEx@VCHeaderDecorator@NEffectUpdateDecorator@@@@@8 ; CDynamicPoolEx<NEffectUpdateDecorator::CHeaderDecorator> `RTTI Type Descriptor'
PUBLIC	??_R3?$CDynamicPoolEx@VCHeaderDecorator@NEffectUpdateDecorator@@@@8 ; CDynamicPoolEx<NEffectUpdateDecorator::CHeaderDecorator>::`RTTI Class Hierarchy Descriptor'
PUBLIC	??_R2?$CDynamicPoolEx@VCHeaderDecorator@NEffectUpdateDecorator@@@@8 ; CDynamicPoolEx<NEffectUpdateDecorator::CHeaderDecorator>::`RTTI Base Class Array'
PUBLIC	??_R1A@?0A@EA@?$CDynamicPoolEx@VCHeaderDecorator@NEffectUpdateDecorator@@@@8 ; CDynamicPoolEx<NEffectUpdateDecorator::CHeaderDecorator>::`RTTI Base Class Descriptor at (0,-1,0,64)'
PUBLIC	??_R4?$CDynamicPoolEx@VCNullDecorator@NEffectUpdateDecorator@@@@6B@ ; CDynamicPoolEx<NEffectUpdateDecorator::CNullDecorator>::`RTTI Complete Object Locator'
PUBLIC	??_R0?AV?$CDynamicPoolEx@VCNullDecorator@NEffectUpdateDecorator@@@@@8 ; CDynamicPoolEx<NEffectUpdateDecorator::CNullDecorator> `RTTI Type Descriptor'
PUBLIC	??_R3?$CDynamicPoolEx@VCNullDecorator@NEffectUpdateDecorator@@@@8 ; CDynamicPoolEx<NEffectUpdateDecorator::CNullDecorator>::`RTTI Class Hierarchy Descriptor'
PUBLIC	??_R2?$CDynamicPoolEx@VCNullDecorator@NEffectUpdateDecorator@@@@8 ; CDynamicPoolEx<NEffectUpdateDecorator::CNullDecorator>::`RTTI Base Class Array'
PUBLIC	??_R1A@?0A@EA@?$CDynamicPoolEx@VCNullDecorator@NEffectUpdateDecorator@@@@8 ; CDynamicPoolEx<NEffectUpdateDecorator::CNullDecorator>::`RTTI Base Class Descriptor at (0,-1,0,64)'
PUBLIC	??_R4?$CDynamicPoolEx@VCTextureAnimationCWDecorator@NEffectUpdateDecorator@@@@6B@ ; CDynamicPoolEx<NEffectUpdateDecorator::CTextureAnimationCWDecorator>::`RTTI Complete Object Locator'
PUBLIC	??_R0?AV?$CDynamicPoolEx@VCTextureAnimationCWDecorator@NEffectUpdateDecorator@@@@@8 ; CDynamicPoolEx<NEffectUpdateDecorator::CTextureAnimationCWDecorator> `RTTI Type Descriptor'
PUBLIC	??_R3?$CDynamicPoolEx@VCTextureAnimationCWDecorator@NEffectUpdateDecorator@@@@8 ; CDynamicPoolEx<NEffectUpdateDecorator::CTextureAnimationCWDecorator>::`RTTI Class Hierarchy Descriptor'
PUBLIC	??_R2?$CDynamicPoolEx@VCTextureAnimationCWDecorator@NEffectUpdateDecorator@@@@8 ; CDynamicPoolEx<NEffectUpdateDecorator::CTextureAnimationCWDecorator>::`RTTI Base Class Array'
PUBLIC	??_R1A@?0A@EA@?$CDynamicPoolEx@VCTextureAnimationCWDecorator@NEffectUpdateDecorator@@@@8 ; CDynamicPoolEx<NEffectUpdateDecorator::CTextureAnimationCWDecorator>::`RTTI Base Class Descriptor at (0,-1,0,64)'
PUBLIC	??_R4?$CDynamicPoolEx@VCTextureAnimationCCWDecorator@NEffectUpdateDecorator@@@@6B@ ; CDynamicPoolEx<NEffectUpdateDecorator::CTextureAnimationCCWDecorator>::`RTTI Complete Object Locator'
PUBLIC	??_R0?AV?$CDynamicPoolEx@VCTextureAnimationCCWDecorator@NEffectUpdateDecorator@@@@@8 ; CDynamicPoolEx<NEffectUpdateDecorator::CTextureAnimationCCWDecorator> `RTTI Type Descriptor'
PUBLIC	??_R3?$CDynamicPoolEx@VCTextureAnimationCCWDecorator@NEffectUpdateDecorator@@@@8 ; CDynamicPoolEx<NEffectUpdateDecorator::CTextureAnimationCCWDecorator>::`RTTI Class Hierarchy Descriptor'
PUBLIC	??_R2?$CDynamicPoolEx@VCTextureAnimationCCWDecorator@NEffectUpdateDecorator@@@@8 ; CDynamicPoolEx<NEffectUpdateDecorator::CTextureAnimationCCWDecorator>::`RTTI Base Class Array'
PUBLIC	??_R1A@?0A@EA@?$CDynamicPoolEx@VCTextureAnimationCCWDecorator@NEffectUpdateDecorator@@@@8 ; CDynamicPoolEx<NEffectUpdateDecorator::CTextureAnimationCCWDecorator>::`RTTI Base Class Descriptor at (0,-1,0,64)'
PUBLIC	??_R4?$CDynamicPoolEx@VCTextureAnimationRandomDecorator@NEffectUpdateDecorator@@@@6B@ ; CDynamicPoolEx<NEffectUpdateDecorator::CTextureAnimationRandomDecorator>::`RTTI Complete Object Locator'
PUBLIC	??_R0?AV?$CDynamicPoolEx@VCTextureAnimationRandomDecorator@NEffectUpdateDecorator@@@@@8 ; CDynamicPoolEx<NEffectUpdateDecorator::CTextureAnimationRandomDecorator> `RTTI Type Descriptor'
PUBLIC	??_R3?$CDynamicPoolEx@VCTextureAnimationRandomDecorator@NEffectUpdateDecorator@@@@8 ; CDynamicPoolEx<NEffectUpdateDecorator::CTextureAnimationRandomDecorator>::`RTTI Class Hierarchy Descriptor'
PUBLIC	??_R2?$CDynamicPoolEx@VCTextureAnimationRandomDecorator@NEffectUpdateDecorator@@@@8 ; CDynamicPoolEx<NEffectUpdateDecorator::CTextureAnimationRandomDecorator>::`RTTI Base Class Array'
PUBLIC	??_R1A@?0A@EA@?$CDynamicPoolEx@VCTextureAnimationRandomDecorator@NEffectUpdateDecorator@@@@8 ; CDynamicPoolEx<NEffectUpdateDecorator::CTextureAnimationRandomDecorator>::`RTTI Base Class Descriptor at (0,-1,0,64)'
PUBLIC	??_R4?$CDynamicPoolEx@VCAirResistanceDecorator@NEffectUpdateDecorator@@@@6B@ ; CDynamicPoolEx<NEffectUpdateDecorator::CAirResistanceDecorator>::`RTTI Complete Object Locator'
PUBLIC	??_R0?AV?$CDynamicPoolEx@VCAirResistanceDecorator@NEffectUpdateDecorator@@@@@8 ; CDynamicPoolEx<NEffectUpdateDecorator::CAirResistanceDecorator> `RTTI Type Descriptor'
PUBLIC	??_R3?$CDynamicPoolEx@VCAirResistanceDecorator@NEffectUpdateDecorator@@@@8 ; CDynamicPoolEx<NEffectUpdateDecorator::CAirResistanceDecorator>::`RTTI Class Hierarchy Descriptor'
PUBLIC	??_R2?$CDynamicPoolEx@VCAirResistanceDecorator@NEffectUpdateDecorator@@@@8 ; CDynamicPoolEx<NEffectUpdateDecorator::CAirResistanceDecorator>::`RTTI Base Class Array'
PUBLIC	??_R1A@?0A@EA@?$CDynamicPoolEx@VCAirResistanceDecorator@NEffectUpdateDecorator@@@@8 ; CDynamicPoolEx<NEffectUpdateDecorator::CAirResistanceDecorator>::`RTTI Base Class Descriptor at (0,-1,0,64)'
PUBLIC	??_R4?$CDynamicPoolEx@VCGravityDecorator@NEffectUpdateDecorator@@@@6B@ ; CDynamicPoolEx<NEffectUpdateDecorator::CGravityDecorator>::`RTTI Complete Object Locator'
PUBLIC	??_R0?AV?$CDynamicPoolEx@VCGravityDecorator@NEffectUpdateDecorator@@@@@8 ; CDynamicPoolEx<NEffectUpdateDecorator::CGravityDecorator> `RTTI Type Descriptor'
PUBLIC	??_R3?$CDynamicPoolEx@VCGravityDecorator@NEffectUpdateDecorator@@@@8 ; CDynamicPoolEx<NEffectUpdateDecorator::CGravityDecorator>::`RTTI Class Hierarchy Descriptor'
PUBLIC	??_R2?$CDynamicPoolEx@VCGravityDecorator@NEffectUpdateDecorator@@@@8 ; CDynamicPoolEx<NEffectUpdateDecorator::CGravityDecorator>::`RTTI Base Class Array'
PUBLIC	??_R1A@?0A@EA@?$CDynamicPoolEx@VCGravityDecorator@NEffectUpdateDecorator@@@@8 ; CDynamicPoolEx<NEffectUpdateDecorator::CGravityDecorator>::`RTTI Base Class Descriptor at (0,-1,0,64)'
PUBLIC	??_R4?$CDynamicPoolEx@VCRotationDecorator@NEffectUpdateDecorator@@@@6B@ ; CDynamicPoolEx<NEffectUpdateDecorator::CRotationDecorator>::`RTTI Complete Object Locator'
PUBLIC	??_R0?AV?$CDynamicPoolEx@VCRotationDecorator@NEffectUpdateDecorator@@@@@8 ; CDynamicPoolEx<NEffectUpdateDecorator::CRotationDecorator> `RTTI Type Descriptor'
PUBLIC	??_R3?$CDynamicPoolEx@VCRotationDecorator@NEffectUpdateDecorator@@@@8 ; CDynamicPoolEx<NEffectUpdateDecorator::CRotationDecorator>::`RTTI Class Hierarchy Descriptor'
PUBLIC	??_R2?$CDynamicPoolEx@VCRotationDecorator@NEffectUpdateDecorator@@@@8 ; CDynamicPoolEx<NEffectUpdateDecorator::CRotationDecorator>::`RTTI Base Class Array'
PUBLIC	??_R1A@?0A@EA@?$CDynamicPoolEx@VCRotationDecorator@NEffectUpdateDecorator@@@@8 ; CDynamicPoolEx<NEffectUpdateDecorator::CRotationDecorator>::`RTTI Base Class Descriptor at (0,-1,0,64)'
PUBLIC	??_7?$CDynamicPoolEx@VCNullDecorator@NEffectUpdateDecorator@@@@6B@ ; CDynamicPoolEx<NEffectUpdateDecorator::CNullDecorator>::`vftable'
PUBLIC	??_G?$CDynamicPoolEx@VCNullDecorator@NEffectUpdateDecorator@@@@UAEPAXI@Z ; CDynamicPoolEx<NEffectUpdateDecorator::CNullDecorator>::`scalar deleting destructor'
PUBLIC	??_7?$CDynamicPoolEx@VCHeaderDecorator@NEffectUpdateDecorator@@@@6B@ ; CDynamicPoolEx<NEffectUpdateDecorator::CHeaderDecorator>::`vftable'
PUBLIC	??_G?$CDynamicPoolEx@VCHeaderDecorator@NEffectUpdateDecorator@@@@UAEPAXI@Z ; CDynamicPoolEx<NEffectUpdateDecorator::CHeaderDecorator>::`scalar deleting destructor'
PUBLIC	??_C@_0DF@GEMPMAOP@d?3?1ymir?5work?1effect?1etc?1directi@ ; `string'
PUBLIC	??_7?$CDynamicPoolEx@VCRotationDecorator@NEffectUpdateDecorator@@@@6B@ ; CDynamicPoolEx<NEffectUpdateDecorator::CRotationDecorator>::`vftable'
PUBLIC	??_G?$CDynamicPoolEx@VCRotationDecorator@NEffectUpdateDecorator@@@@UAEPAXI@Z ; CDynamicPoolEx<NEffectUpdateDecorator::CRotationDecorator>::`scalar deleting destructor'
PUBLIC	??_7?$CDynamicPoolEx@VCGravityDecorator@NEffectUpdateDecorator@@@@6B@ ; CDynamicPoolEx<NEffectUpdateDecorator::CGravityDecorator>::`vftable'
PUBLIC	??_G?$CDynamicPoolEx@VCGravityDecorator@NEffectUpdateDecorator@@@@UAEPAXI@Z ; CDynamicPoolEx<NEffectUpdateDecorator::CGravityDecorator>::`scalar deleting destructor'
PUBLIC	??_7?$CDynamicPoolEx@VCAirResistanceDecorator@NEffectUpdateDecorator@@@@6B@ ; CDynamicPoolEx<NEffectUpdateDecorator::CAirResistanceDecorator>::`vftable'
PUBLIC	??_G?$CDynamicPoolEx@VCAirResistanceDecorator@NEffectUpdateDecorator@@@@UAEPAXI@Z ; CDynamicPoolEx<NEffectUpdateDecorator::CAirResistanceDecorator>::`scalar deleting destructor'
PUBLIC	??_7?$CDynamicPoolEx@VCTextureAnimationRandomDecorator@NEffectUpdateDecorator@@@@6B@ ; CDynamicPoolEx<NEffectUpdateDecorator::CTextureAnimationRandomDecorator>::`vftable'
PUBLIC	??_G?$CDynamicPoolEx@VCTextureAnimationRandomDecorator@NEffectUpdateDecorator@@@@UAEPAXI@Z ; CDynamicPoolEx<NEffectUpdateDecorator::CTextureAnimationRandomDecorator>::`scalar deleting destructor'
PUBLIC	??_7?$CDynamicPoolEx@VCTextureAnimationCCWDecorator@NEffectUpdateDecorator@@@@6B@ ; CDynamicPoolEx<NEffectUpdateDecorator::CTextureAnimationCCWDecorator>::`vftable'
PUBLIC	??_G?$CDynamicPoolEx@VCTextureAnimationCCWDecorator@NEffectUpdateDecorator@@@@UAEPAXI@Z ; CDynamicPoolEx<NEffectUpdateDecorator::CTextureAnimationCCWDecorator>::`scalar deleting destructor'
EXTRN	??_E?$CDynamicPoolEx@VCTextureAnimationCWDecorator@NEffectUpdateDecorator@@@@UAEPAXI@Z:PROC ; CDynamicPoolEx<NEffectUpdateDecorator::CTextureAnimationCWDecorator>::`vector deleting destructor'
EXTRN	??_E?$CDynamicPoolEx@VCNullDecorator@NEffectUpdateDecorator@@@@UAEPAXI@Z:PROC ; CDynamicPoolEx<NEffectUpdateDecorator::CNullDecorator>::`vector deleting destructor'
EXTRN	??_E?$CDynamicPoolEx@VCHeaderDecorator@NEffectUpdateDecorator@@@@UAEPAXI@Z:PROC ; CDynamicPoolEx<NEffectUpdateDecorator::CHeaderDecorator>::`vector deleting destructor'
EXTRN	??_7type_info@@6B@:QWORD			; type_info::`vftable'
EXTRN	??_E?$CDynamicPoolEx@VCRotationDecorator@NEffectUpdateDecorator@@@@UAEPAXI@Z:PROC ; CDynamicPoolEx<NEffectUpdateDecorator::CRotationDecorator>::`vector deleting destructor'
EXTRN	??_E?$CDynamicPoolEx@VCGravityDecorator@NEffectUpdateDecorator@@@@UAEPAXI@Z:PROC ; CDynamicPoolEx<NEffectUpdateDecorator::CGravityDecorator>::`vector deleting destructor'
EXTRN	??_E?$CDynamicPoolEx@VCAirResistanceDecorator@NEffectUpdateDecorator@@@@UAEPAXI@Z:PROC ; CDynamicPoolEx<NEffectUpdateDecorator::CAirResistanceDecorator>::`vector deleting destructor'
EXTRN	??_E?$CDynamicPoolEx@VCTextureAnimationRandomDecorator@NEffectUpdateDecorator@@@@UAEPAXI@Z:PROC ; CDynamicPoolEx<NEffectUpdateDecorator::CTextureAnimationRandomDecorator>::`vector deleting destructor'
EXTRN	??_E?$CDynamicPoolEx@VCTextureAnimationCCWDecorator@NEffectUpdateDecorator@@@@UAEPAXI@Z:PROC ; CDynamicPoolEx<NEffectUpdateDecorator::CTextureAnimationCCWDecorator>::`vector deleting destructor'
;	COMDAT ??_7?$CDynamicPoolEx@VCTextureAnimationCCWDecorator@NEffectUpdateDecorator@@@@6B@
CONST	SEGMENT
??_7?$CDynamicPoolEx@VCTextureAnimationCCWDecorator@NEffectUpdateDecorator@@@@6B@ DD FLAT:??_R4?$CDynamicPoolEx@VCTextureAnimationCCWDecorator@NEffectUpdateDecorator@@@@6B@ ; CDynamicPoolEx<NEffectUpdateDecorator::CTextureAnimationCCWDecorator>::`vftable'
	DD	FLAT:??_E?$CDynamicPoolEx@VCTextureAnimationCCWDecorator@NEffectUpdateDecorator@@@@UAEPAXI@Z
CONST	ENDS
;	COMDAT ??_7?$CDynamicPoolEx@VCTextureAnimationRandomDecorator@NEffectUpdateDecorator@@@@6B@
CONST	SEGMENT
??_7?$CDynamicPoolEx@VCTextureAnimationRandomDecorator@NEffectUpdateDecorator@@@@6B@ DD FLAT:??_R4?$CDynamicPoolEx@VCTextureAnimationRandomDecorator@NEffectUpdateDecorator@@@@6B@ ; CDynamicPoolEx<NEffectUpdateDecorator::CTextureAnimationRandomDecorator>::`vftable'
	DD	FLAT:??_E?$CDynamicPoolEx@VCTextureAnimationRandomDecorator@NEffectUpdateDecorator@@@@UAEPAXI@Z
CONST	ENDS
;	COMDAT ??_7?$CDynamicPoolEx@VCAirResistanceDecorator@NEffectUpdateDecorator@@@@6B@
CONST	SEGMENT
??_7?$CDynamicPoolEx@VCAirResistanceDecorator@NEffectUpdateDecorator@@@@6B@ DD FLAT:??_R4?$CDynamicPoolEx@VCAirResistanceDecorator@NEffectUpdateDecorator@@@@6B@ ; CDynamicPoolEx<NEffectUpdateDecorator::CAirResistanceDecorator>::`vftable'
	DD	FLAT:??_E?$CDynamicPoolEx@VCAirResistanceDecorator@NEffectUpdateDecorator@@@@UAEPAXI@Z
CONST	ENDS
;	COMDAT ??_7?$CDynamicPoolEx@VCGravityDecorator@NEffectUpdateDecorator@@@@6B@
CONST	SEGMENT
??_7?$CDynamicPoolEx@VCGravityDecorator@NEffectUpdateDecorator@@@@6B@ DD FLAT:??_R4?$CDynamicPoolEx@VCGravityDecorator@NEffectUpdateDecorator@@@@6B@ ; CDynamicPoolEx<NEffectUpdateDecorator::CGravityDecorator>::`vftable'
	DD	FLAT:??_E?$CDynamicPoolEx@VCGravityDecorator@NEffectUpdateDecorator@@@@UAEPAXI@Z
CONST	ENDS
;	COMDAT ??_7?$CDynamicPoolEx@VCRotationDecorator@NEffectUpdateDecorator@@@@6B@
CONST	SEGMENT
??_7?$CDynamicPoolEx@VCRotationDecorator@NEffectUpdateDecorator@@@@6B@ DD FLAT:??_R4?$CDynamicPoolEx@VCRotationDecorator@NEffectUpdateDecorator@@@@6B@ ; CDynamicPoolEx<NEffectUpdateDecorator::CRotationDecorator>::`vftable'
	DD	FLAT:??_E?$CDynamicPoolEx@VCRotationDecorator@NEffectUpdateDecorator@@@@UAEPAXI@Z
CONST	ENDS
;	COMDAT ??_C@_0DF@GEMPMAOP@d?3?1ymir?5work?1effect?1etc?1directi@
CONST	SEGMENT
??_C@_0DF@GEMPMAOP@d?3?1ymir?5work?1effect?1etc?1directi@ DB 'd:/ymir wor'
	DB	'k/effect/etc/direction/direction_land.mse', 00H ; `string'
CONST	ENDS
;	COMDAT ??_7?$CDynamicPoolEx@VCHeaderDecorator@NEffectUpdateDecorator@@@@6B@
CONST	SEGMENT
??_7?$CDynamicPoolEx@VCHeaderDecorator@NEffectUpdateDecorator@@@@6B@ DD FLAT:??_R4?$CDynamicPoolEx@VCHeaderDecorator@NEffectUpdateDecorator@@@@6B@ ; CDynamicPoolEx<NEffectUpdateDecorator::CHeaderDecorator>::`vftable'
	DD	FLAT:??_E?$CDynamicPoolEx@VCHeaderDecorator@NEffectUpdateDecorator@@@@UAEPAXI@Z
CONST	ENDS
;	COMDAT ??_7?$CDynamicPoolEx@VCNullDecorator@NEffectUpdateDecorator@@@@6B@
CONST	SEGMENT
??_7?$CDynamicPoolEx@VCNullDecorator@NEffectUpdateDecorator@@@@6B@ DD FLAT:??_R4?$CDynamicPoolEx@VCNullDecorator@NEffectUpdateDecorator@@@@6B@ ; CDynamicPoolEx<NEffectUpdateDecorator::CNullDecorator>::`vftable'
	DD	FLAT:??_E?$CDynamicPoolEx@VCNullDecorator@NEffectUpdateDecorator@@@@UAEPAXI@Z
CONST	ENDS
;	COMDAT ??_R1A@?0A@EA@?$CDynamicPoolEx@VCRotationDecorator@NEffectUpdateDecorator@@@@8
rdata$r	SEGMENT
??_R1A@?0A@EA@?$CDynamicPoolEx@VCRotationDecorator@NEffectUpdateDecorator@@@@8 DD FLAT:??_R0?AV?$CDynamicPoolEx@VCRotationDecorator@NEffectUpdateDecorator@@@@@8 ; CDynamicPoolEx<NEffectUpdateDecorator::CRotationDecorator>::`RTTI Base Class Descriptor at (0,-1,0,64)'
	DD	00H
	DD	00H
	DD	0ffffffffH
	DD	00H
	DD	040H
	DD	FLAT:??_R3?$CDynamicPoolEx@VCRotationDecorator@NEffectUpdateDecorator@@@@8
rdata$r	ENDS
;	COMDAT ??_R2?$CDynamicPoolEx@VCRotationDecorator@NEffectUpdateDecorator@@@@8
rdata$r	SEGMENT
??_R2?$CDynamicPoolEx@VCRotationDecorator@NEffectUpdateDecorator@@@@8 DD FLAT:??_R1A@?0A@EA@?$CDynamicPoolEx@VCRotationDecorator@NEffectUpdateDecorator@@@@8 ; CDynamicPoolEx<NEffectUpdateDecorator::CRotationDecorator>::`RTTI Base Class Array'
rdata$r	ENDS
;	COMDAT ??_R3?$CDynamicPoolEx@VCRotationDecorator@NEffectUpdateDecorator@@@@8
rdata$r	SEGMENT
??_R3?$CDynamicPoolEx@VCRotationDecorator@NEffectUpdateDecorator@@@@8 DD 00H ; CDynamicPoolEx<NEffectUpdateDecorator::CRotationDecorator>::`RTTI Class Hierarchy Descriptor'
	DD	00H
	DD	01H
	DD	FLAT:??_R2?$CDynamicPoolEx@VCRotationDecorator@NEffectUpdateDecorator@@@@8
rdata$r	ENDS
;	COMDAT ??_R0?AV?$CDynamicPoolEx@VCRotationDecorator@NEffectUpdateDecorator@@@@@8
data$rs	SEGMENT
??_R0?AV?$CDynamicPoolEx@VCRotationDecorator@NEffectUpdateDecorator@@@@@8 DD FLAT:??_7type_info@@6B@ ; CDynamicPoolEx<NEffectUpdateDecorator::CRotationDecorator> `RTTI Type Descriptor'
	DD	00H
	DB	'.?AV?$CDynamicPoolEx@VCRotationDecorator@NEffectUpdateDe'
	DB	'corator@@@@', 00H
data$rs	ENDS
;	COMDAT ??_R4?$CDynamicPoolEx@VCRotationDecorator@NEffectUpdateDecorator@@@@6B@
rdata$r	SEGMENT
??_R4?$CDynamicPoolEx@VCRotationDecorator@NEffectUpdateDecorator@@@@6B@ DD 00H ; CDynamicPoolEx<NEffectUpdateDecorator::CRotationDecorator>::`RTTI Complete Object Locator'
	DD	00H
	DD	00H
	DD	FLAT:??_R0?AV?$CDynamicPoolEx@VCRotationDecorator@NEffectUpdateDecorator@@@@@8
	DD	FLAT:??_R3?$CDynamicPoolEx@VCRotationDecorator@NEffectUpdateDecorator@@@@8
rdata$r	ENDS
;	COMDAT ??_R1A@?0A@EA@?$CDynamicPoolEx@VCGravityDecorator@NEffectUpdateDecorator@@@@8
rdata$r	SEGMENT
??_R1A@?0A@EA@?$CDynamicPoolEx@VCGravityDecorator@NEffectUpdateDecorator@@@@8 DD FLAT:??_R0?AV?$CDynamicPoolEx@VCGravityDecorator@NEffectUpdateDecorator@@@@@8 ; CDynamicPoolEx<NEffectUpdateDecorator::CGravityDecorator>::`RTTI Base Class Descriptor at (0,-1,0,64)'
	DD	00H
	DD	00H
	DD	0ffffffffH
	DD	00H
	DD	040H
	DD	FLAT:??_R3?$CDynamicPoolEx@VCGravityDecorator@NEffectUpdateDecorator@@@@8
rdata$r	ENDS
;	COMDAT ??_R2?$CDynamicPoolEx@VCGravityDecorator@NEffectUpdateDecorator@@@@8
rdata$r	SEGMENT
??_R2?$CDynamicPoolEx@VCGravityDecorator@NEffectUpdateDecorator@@@@8 DD FLAT:??_R1A@?0A@EA@?$CDynamicPoolEx@VCGravityDecorator@NEffectUpdateDecorator@@@@8 ; CDynamicPoolEx<NEffectUpdateDecorator::CGravityDecorator>::`RTTI Base Class Array'
rdata$r	ENDS
;	COMDAT ??_R3?$CDynamicPoolEx@VCGravityDecorator@NEffectUpdateDecorator@@@@8
rdata$r	SEGMENT
??_R3?$CDynamicPoolEx@VCGravityDecorator@NEffectUpdateDecorator@@@@8 DD 00H ; CDynamicPoolEx<NEffectUpdateDecorator::CGravityDecorator>::`RTTI Class Hierarchy Descriptor'
	DD	00H
	DD	01H
	DD	FLAT:??_R2?$CDynamicPoolEx@VCGravityDecorator@NEffectUpdateDecorator@@@@8
rdata$r	ENDS
;	COMDAT ??_R0?AV?$CDynamicPoolEx@VCGravityDecorator@NEffectUpdateDecorator@@@@@8
data$rs	SEGMENT
??_R0?AV?$CDynamicPoolEx@VCGravityDecorator@NEffectUpdateDecorator@@@@@8 DD FLAT:??_7type_info@@6B@ ; CDynamicPoolEx<NEffectUpdateDecorator::CGravityDecorator> `RTTI Type Descriptor'
	DD	00H
	DB	'.?AV?$CDynamicPoolEx@VCGravityDecorator@NEffectUpdateDec'
	DB	'orator@@@@', 00H
data$rs	ENDS
;	COMDAT ??_R4?$CDynamicPoolEx@VCGravityDecorator@NEffectUpdateDecorator@@@@6B@
rdata$r	SEGMENT
??_R4?$CDynamicPoolEx@VCGravityDecorator@NEffectUpdateDecorator@@@@6B@ DD 00H ; CDynamicPoolEx<NEffectUpdateDecorator::CGravityDecorator>::`RTTI Complete Object Locator'
	DD	00H
	DD	00H
	DD	FLAT:??_R0?AV?$CDynamicPoolEx@VCGravityDecorator@NEffectUpdateDecorator@@@@@8
	DD	FLAT:??_R3?$CDynamicPoolEx@VCGravityDecorator@NEffectUpdateDecorator@@@@8
rdata$r	ENDS
;	COMDAT ??_R1A@?0A@EA@?$CDynamicPoolEx@VCAirResistanceDecorator@NEffectUpdateDecorator@@@@8
rdata$r	SEGMENT
??_R1A@?0A@EA@?$CDynamicPoolEx@VCAirResistanceDecorator@NEffectUpdateDecorator@@@@8 DD FLAT:??_R0?AV?$CDynamicPoolEx@VCAirResistanceDecorator@NEffectUpdateDecorator@@@@@8 ; CDynamicPoolEx<NEffectUpdateDecorator::CAirResistanceDecorator>::`RTTI Base Class Descriptor at (0,-1,0,64)'
	DD	00H
	DD	00H
	DD	0ffffffffH
	DD	00H
	DD	040H
	DD	FLAT:??_R3?$CDynamicPoolEx@VCAirResistanceDecorator@NEffectUpdateDecorator@@@@8
rdata$r	ENDS
;	COMDAT ??_R2?$CDynamicPoolEx@VCAirResistanceDecorator@NEffectUpdateDecorator@@@@8
rdata$r	SEGMENT
??_R2?$CDynamicPoolEx@VCAirResistanceDecorator@NEffectUpdateDecorator@@@@8 DD FLAT:??_R1A@?0A@EA@?$CDynamicPoolEx@VCAirResistanceDecorator@NEffectUpdateDecorator@@@@8 ; CDynamicPoolEx<NEffectUpdateDecorator::CAirResistanceDecorator>::`RTTI Base Class Array'
rdata$r	ENDS
;	COMDAT ??_R3?$CDynamicPoolEx@VCAirResistanceDecorator@NEffectUpdateDecorator@@@@8
rdata$r	SEGMENT
??_R3?$CDynamicPoolEx@VCAirResistanceDecorator@NEffectUpdateDecorator@@@@8 DD 00H ; CDynamicPoolEx<NEffectUpdateDecorator::CAirResistanceDecorator>::`RTTI Class Hierarchy Descriptor'
	DD	00H
	DD	01H
	DD	FLAT:??_R2?$CDynamicPoolEx@VCAirResistanceDecorator@NEffectUpdateDecorator@@@@8
rdata$r	ENDS
;	COMDAT ??_R0?AV?$CDynamicPoolEx@VCAirResistanceDecorator@NEffectUpdateDecorator@@@@@8
data$rs	SEGMENT
??_R0?AV?$CDynamicPoolEx@VCAirResistanceDecorator@NEffectUpdateDecorator@@@@@8 DD FLAT:??_7type_info@@6B@ ; CDynamicPoolEx<NEffectUpdateDecorator::CAirResistanceDecorator> `RTTI Type Descriptor'
	DD	00H
	DB	'.?AV?$CDynamicPoolEx@VCAirResistanceDecorator@NEffectUpd'
	DB	'ateDecorator@@@@', 00H
data$rs	ENDS
;	COMDAT ??_R4?$CDynamicPoolEx@VCAirResistanceDecorator@NEffectUpdateDecorator@@@@6B@
rdata$r	SEGMENT
??_R4?$CDynamicPoolEx@VCAirResistanceDecorator@NEffectUpdateDecorator@@@@6B@ DD 00H ; CDynamicPoolEx<NEffectUpdateDecorator::CAirResistanceDecorator>::`RTTI Complete Object Locator'
	DD	00H
	DD	00H
	DD	FLAT:??_R0?AV?$CDynamicPoolEx@VCAirResistanceDecorator@NEffectUpdateDecorator@@@@@8
	DD	FLAT:??_R3?$CDynamicPoolEx@VCAirResistanceDecorator@NEffectUpdateDecorator@@@@8
rdata$r	ENDS
;	COMDAT ??_R1A@?0A@EA@?$CDynamicPoolEx@VCTextureAnimationRandomDecorator@NEffectUpdateDecorator@@@@8
rdata$r	SEGMENT
??_R1A@?0A@EA@?$CDynamicPoolEx@VCTextureAnimationRandomDecorator@NEffectUpdateDecorator@@@@8 DD FLAT:??_R0?AV?$CDynamicPoolEx@VCTextureAnimationRandomDecorator@NEffectUpdateDecorator@@@@@8 ; CDynamicPoolEx<NEffectUpdateDecorator::CTextureAnimationRandomDecorator>::`RTTI Base Class Descriptor at (0,-1,0,64)'
	DD	00H
	DD	00H
	DD	0ffffffffH
	DD	00H
	DD	040H
	DD	FLAT:??_R3?$CDynamicPoolEx@VCTextureAnimationRandomDecorator@NEffectUpdateDecorator@@@@8
rdata$r	ENDS
;	COMDAT ??_R2?$CDynamicPoolEx@VCTextureAnimationRandomDecorator@NEffectUpdateDecorator@@@@8
rdata$r	SEGMENT
??_R2?$CDynamicPoolEx@VCTextureAnimationRandomDecorator@NEffectUpdateDecorator@@@@8 DD FLAT:??_R1A@?0A@EA@?$CDynamicPoolEx@VCTextureAnimationRandomDecorator@NEffectUpdateDecorator@@@@8 ; CDynamicPoolEx<NEffectUpdateDecorator::CTextureAnimationRandomDecorator>::`RTTI Base Class Array'
rdata$r	ENDS
;	COMDAT ??_R3?$CDynamicPoolEx@VCTextureAnimationRandomDecorator@NEffectUpdateDecorator@@@@8
rdata$r	SEGMENT
??_R3?$CDynamicPoolEx@VCTextureAnimationRandomDecorator@NEffectUpdateDecorator@@@@8 DD 00H ; CDynamicPoolEx<NEffectUpdateDecorator::CTextureAnimationRandomDecorator>::`RTTI Class Hierarchy Descriptor'
	DD	00H
	DD	01H
	DD	FLAT:??_R2?$CDynamicPoolEx@VCTextureAnimationRandomDecorator@NEffectUpdateDecorator@@@@8
rdata$r	ENDS
;	COMDAT ??_R0?AV?$CDynamicPoolEx@VCTextureAnimationRandomDecorator@NEffectUpdateDecorator@@@@@8
data$rs	SEGMENT
??_R0?AV?$CDynamicPoolEx@VCTextureAnimationRandomDecorator@NEffectUpdateDecorator@@@@@8 DD FLAT:??_7type_info@@6B@ ; CDynamicPoolEx<NEffectUpdateDecorator::CTextureAnimationRandomDecorator> `RTTI Type Descriptor'
	DD	00H
	DB	'.?AV?$CDynamicPoolEx@VCTextureAnimationRandomDecorator@N'
	DB	'EffectUpdateDecorator@@@@', 00H
data$rs	ENDS
;	COMDAT ??_R4?$CDynamicPoolEx@VCTextureAnimationRandomDecorator@NEffectUpdateDecorator@@@@6B@
rdata$r	SEGMENT
??_R4?$CDynamicPoolEx@VCTextureAnimationRandomDecorator@NEffectUpdateDecorator@@@@6B@ DD 00H ; CDynamicPoolEx<NEffectUpdateDecorator::CTextureAnimationRandomDecorator>::`RTTI Complete Object Locator'
	DD	00H
	DD	00H
	DD	FLAT:??_R0?AV?$CDynamicPoolEx@VCTextureAnimationRandomDecorator@NEffectUpdateDecorator@@@@@8
	DD	FLAT:??_R3?$CDynamicPoolEx@VCTextureAnimationRandomDecorator@NEffectUpdateDecorator@@@@8
rdata$r	ENDS
;	COMDAT ??_R1A@?0A@EA@?$CDynamicPoolEx@VCTextureAnimationCCWDecorator@NEffectUpdateDecorator@@@@8
rdata$r	SEGMENT
??_R1A@?0A@EA@?$CDynamicPoolEx@VCTextureAnimationCCWDecorator@NEffectUpdateDecorator@@@@8 DD FLAT:??_R0?AV?$CDynamicPoolEx@VCTextureAnimationCCWDecorator@NEffectUpdateDecorator@@@@@8 ; CDynamicPoolEx<NEffectUpdateDecorator::CTextureAnimationCCWDecorator>::`RTTI Base Class Descriptor at (0,-1,0,64)'
	DD	00H
	DD	00H
	DD	0ffffffffH
	DD	00H
	DD	040H
	DD	FLAT:??_R3?$CDynamicPoolEx@VCTextureAnimationCCWDecorator@NEffectUpdateDecorator@@@@8
rdata$r	ENDS
;	COMDAT ??_R2?$CDynamicPoolEx@VCTextureAnimationCCWDecorator@NEffectUpdateDecorator@@@@8
rdata$r	SEGMENT
??_R2?$CDynamicPoolEx@VCTextureAnimationCCWDecorator@NEffectUpdateDecorator@@@@8 DD FLAT:??_R1A@?0A@EA@?$CDynamicPoolEx@VCTextureAnimationCCWDecorator@NEffectUpdateDecorator@@@@8 ; CDynamicPoolEx<NEffectUpdateDecorator::CTextureAnimationCCWDecorator>::`RTTI Base Class Array'
rdata$r	ENDS
;	COMDAT ??_R3?$CDynamicPoolEx@VCTextureAnimationCCWDecorator@NEffectUpdateDecorator@@@@8
rdata$r	SEGMENT
??_R3?$CDynamicPoolEx@VCTextureAnimationCCWDecorator@NEffectUpdateDecorator@@@@8 DD 00H ; CDynamicPoolEx<NEffectUpdateDecorator::CTextureAnimationCCWDecorator>::`RTTI Class Hierarchy Descriptor'
	DD	00H
	DD	01H
	DD	FLAT:??_R2?$CDynamicPoolEx@VCTextureAnimationCCWDecorator@NEffectUpdateDecorator@@@@8
rdata$r	ENDS
;	COMDAT ??_R0?AV?$CDynamicPoolEx@VCTextureAnimationCCWDecorator@NEffectUpdateDecorator@@@@@8
data$rs	SEGMENT
??_R0?AV?$CDynamicPoolEx@VCTextureAnimationCCWDecorator@NEffectUpdateDecorator@@@@@8 DD FLAT:??_7type_info@@6B@ ; CDynamicPoolEx<NEffectUpdateDecorator::CTextureAnimationCCWDecorator> `RTTI Type Descriptor'
	DD	00H
	DB	'.?AV?$CDynamicPoolEx@VCTextureAnimationCCWDecorator@NEff'
	DB	'ectUpdateDecorator@@@@', 00H
data$rs	ENDS
;	COMDAT ??_R4?$CDynamicPoolEx@VCTextureAnimationCCWDecorator@NEffectUpdateDecorator@@@@6B@
rdata$r	SEGMENT
??_R4?$CDynamicPoolEx@VCTextureAnimationCCWDecorator@NEffectUpdateDecorator@@@@6B@ DD 00H ; CDynamicPoolEx<NEffectUpdateDecorator::CTextureAnimationCCWDecorator>::`RTTI Complete Object Locator'
	DD	00H
	DD	00H
	DD	FLAT:??_R0?AV?$CDynamicPoolEx@VCTextureAnimationCCWDecorator@NEffectUpdateDecorator@@@@@8
	DD	FLAT:??_R3?$CDynamicPoolEx@VCTextureAnimationCCWDecorator@NEffectUpdateDecorator@@@@8
rdata$r	ENDS
;	COMDAT ??_R1A@?0A@EA@?$CDynamicPoolEx@VCTextureAnimationCWDecorator@NEffectUpdateDecorator@@@@8
rdata$r	SEGMENT
??_R1A@?0A@EA@?$CDynamicPoolEx@VCTextureAnimationCWDecorator@NEffectUpdateDecorator@@@@8 DD FLAT:??_R0?AV?$CDynamicPoolEx@VCTextureAnimationCWDecorator@NEffectUpdateDecorator@@@@@8 ; CDynamicPoolEx<NEffectUpdateDecorator::CTextureAnimationCWDecorator>::`RTTI Base Class Descriptor at (0,-1,0,64)'
	DD	00H
	DD	00H
	DD	0ffffffffH
	DD	00H
	DD	040H
	DD	FLAT:??_R3?$CDynamicPoolEx@VCTextureAnimationCWDecorator@NEffectUpdateDecorator@@@@8
rdata$r	ENDS
;	COMDAT ??_R2?$CDynamicPoolEx@VCTextureAnimationCWDecorator@NEffectUpdateDecorator@@@@8
rdata$r	SEGMENT
??_R2?$CDynamicPoolEx@VCTextureAnimationCWDecorator@NEffectUpdateDecorator@@@@8 DD FLAT:??_R1A@?0A@EA@?$CDynamicPoolEx@VCTextureAnimationCWDecorator@NEffectUpdateDecorator@@@@8 ; CDynamicPoolEx<NEffectUpdateDecorator::CTextureAnimationCWDecorator>::`RTTI Base Class Array'
rdata$r	ENDS
;	COMDAT ??_R3?$CDynamicPoolEx@VCTextureAnimationCWDecorator@NEffectUpdateDecorator@@@@8
rdata$r	SEGMENT
??_R3?$CDynamicPoolEx@VCTextureAnimationCWDecorator@NEffectUpdateDecorator@@@@8 DD 00H ; CDynamicPoolEx<NEffectUpdateDecorator::CTextureAnimationCWDecorator>::`RTTI Class Hierarchy Descriptor'
	DD	00H
	DD	01H
	DD	FLAT:??_R2?$CDynamicPoolEx@VCTextureAnimationCWDecorator@NEffectUpdateDecorator@@@@8
rdata$r	ENDS
;	COMDAT ??_R0?AV?$CDynamicPoolEx@VCTextureAnimationCWDecorator@NEffectUpdateDecorator@@@@@8
data$rs	SEGMENT
??_R0?AV?$CDynamicPoolEx@VCTextureAnimationCWDecorator@NEffectUpdateDecorator@@@@@8 DD FLAT:??_7type_info@@6B@ ; CDynamicPoolEx<NEffectUpdateDecorator::CTextureAnimationCWDecorator> `RTTI Type Descriptor'
	DD	00H
	DB	'.?AV?$CDynamicPoolEx@VCTextureAnimationCWDecorator@NEffe'
	DB	'ctUpdateDecorator@@@@', 00H
data$rs	ENDS
;	COMDAT ??_R4?$CDynamicPoolEx@VCTextureAnimationCWDecorator@NEffectUpdateDecorator@@@@6B@
rdata$r	SEGMENT
??_R4?$CDynamicPoolEx@VCTextureAnimationCWDecorator@NEffectUpdateDecorator@@@@6B@ DD 00H ; CDynamicPoolEx<NEffectUpdateDecorator::CTextureAnimationCWDecorator>::`RTTI Complete Object Locator'
	DD	00H
	DD	00H
	DD	FLAT:??_R0?AV?$CDynamicPoolEx@VCTextureAnimationCWDecorator@NEffectUpdateDecorator@@@@@8
	DD	FLAT:??_R3?$CDynamicPoolEx@VCTextureAnimationCWDecorator@NEffectUpdateDecorator@@@@8
rdata$r	ENDS
;	COMDAT ??_R1A@?0A@EA@?$CDynamicPoolEx@VCNullDecorator@NEffectUpdateDecorator@@@@8
rdata$r	SEGMENT
??_R1A@?0A@EA@?$CDynamicPoolEx@VCNullDecorator@NEffectUpdateDecorator@@@@8 DD FLAT:??_R0?AV?$CDynamicPoolEx@VCNullDecorator@NEffectUpdateDecorator@@@@@8 ; CDynamicPoolEx<NEffectUpdateDecorator::CNullDecorator>::`RTTI Base Class Descriptor at (0,-1,0,64)'
	DD	00H
	DD	00H
	DD	0ffffffffH
	DD	00H
	DD	040H
	DD	FLAT:??_R3?$CDynamicPoolEx@VCNullDecorator@NEffectUpdateDecorator@@@@8
rdata$r	ENDS
;	COMDAT ??_R2?$CDynamicPoolEx@VCNullDecorator@NEffectUpdateDecorator@@@@8
rdata$r	SEGMENT
??_R2?$CDynamicPoolEx@VCNullDecorator@NEffectUpdateDecorator@@@@8 DD FLAT:??_R1A@?0A@EA@?$CDynamicPoolEx@VCNullDecorator@NEffectUpdateDecorator@@@@8 ; CDynamicPoolEx<NEffectUpdateDecorator::CNullDecorator>::`RTTI Base Class Array'
rdata$r	ENDS
;	COMDAT ??_R3?$CDynamicPoolEx@VCNullDecorator@NEffectUpdateDecorator@@@@8
rdata$r	SEGMENT
??_R3?$CDynamicPoolEx@VCNullDecorator@NEffectUpdateDecorator@@@@8 DD 00H ; CDynamicPoolEx<NEffectUpdateDecorator::CNullDecorator>::`RTTI Class Hierarchy Descriptor'
	DD	00H
	DD	01H
	DD	FLAT:??_R2?$CDynamicPoolEx@VCNullDecorator@NEffectUpdateDecorator@@@@8
rdata$r	ENDS
;	COMDAT ??_R0?AV?$CDynamicPoolEx@VCNullDecorator@NEffectUpdateDecorator@@@@@8
data$rs	SEGMENT
??_R0?AV?$CDynamicPoolEx@VCNullDecorator@NEffectUpdateDecorator@@@@@8 DD FLAT:??_7type_info@@6B@ ; CDynamicPoolEx<NEffectUpdateDecorator::CNullDecorator> `RTTI Type Descriptor'
	DD	00H
	DB	'.?AV?$CDynamicPoolEx@VCNullDecorator@NEffectUpdateDecora'
	DB	'tor@@@@', 00H
data$rs	ENDS
;	COMDAT ??_R4?$CDynamicPoolEx@VCNullDecorator@NEffectUpdateDecorator@@@@6B@
rdata$r	SEGMENT
??_R4?$CDynamicPoolEx@VCNullDecorator@NEffectUpdateDecorator@@@@6B@ DD 00H ; CDynamicPoolEx<NEffectUpdateDecorator::CNullDecorator>::`RTTI Complete Object Locator'
	DD	00H
	DD	00H
	DD	FLAT:??_R0?AV?$CDynamicPoolEx@VCNullDecorator@NEffectUpdateDecorator@@@@@8
	DD	FLAT:??_R3?$CDynamicPoolEx@VCNullDecorator@NEffectUpdateDecorator@@@@8
rdata$r	ENDS
;	COMDAT ??_R1A@?0A@EA@?$CDynamicPoolEx@VCHeaderDecorator@NEffectUpdateDecorator@@@@8
rdata$r	SEGMENT
??_R1A@?0A@EA@?$CDynamicPoolEx@VCHeaderDecorator@NEffectUpdateDecorator@@@@8 DD FLAT:??_R0?AV?$CDynamicPoolEx@VCHeaderDecorator@NEffectUpdateDecorator@@@@@8 ; CDynamicPoolEx<NEffectUpdateDecorator::CHeaderDecorator>::`RTTI Base Class Descriptor at (0,-1,0,64)'
	DD	00H
	DD	00H
	DD	0ffffffffH
	DD	00H
	DD	040H
	DD	FLAT:??_R3?$CDynamicPoolEx@VCHeaderDecorator@NEffectUpdateDecorator@@@@8
rdata$r	ENDS
;	COMDAT ??_R2?$CDynamicPoolEx@VCHeaderDecorator@NEffectUpdateDecorator@@@@8
rdata$r	SEGMENT
??_R2?$CDynamicPoolEx@VCHeaderDecorator@NEffectUpdateDecorator@@@@8 DD FLAT:??_R1A@?0A@EA@?$CDynamicPoolEx@VCHeaderDecorator@NEffectUpdateDecorator@@@@8 ; CDynamicPoolEx<NEffectUpdateDecorator::CHeaderDecorator>::`RTTI Base Class Array'
rdata$r	ENDS
;	COMDAT ??_R3?$CDynamicPoolEx@VCHeaderDecorator@NEffectUpdateDecorator@@@@8
rdata$r	SEGMENT
??_R3?$CDynamicPoolEx@VCHeaderDecorator@NEffectUpdateDecorator@@@@8 DD 00H ; CDynamicPoolEx<NEffectUpdateDecorator::CHeaderDecorator>::`RTTI Class Hierarchy Descriptor'
	DD	00H
	DD	01H
	DD	FLAT:??_R2?$CDynamicPoolEx@VCHeaderDecorator@NEffectUpdateDecorator@@@@8
rdata$r	ENDS
;	COMDAT ??_R0?AV?$CDynamicPoolEx@VCHeaderDecorator@NEffectUpdateDecorator@@@@@8
data$rs	SEGMENT
??_R0?AV?$CDynamicPoolEx@VCHeaderDecorator@NEffectUpdateDecorator@@@@@8 DD FLAT:??_7type_info@@6B@ ; CDynamicPoolEx<NEffectUpdateDecorator::CHeaderDecorator> `RTTI Type Descriptor'
	DD	00H
	DB	'.?AV?$CDynamicPoolEx@VCHeaderDecorator@NEffectUpdateDeco'
	DB	'rator@@@@', 00H
data$rs	ENDS
;	COMDAT ??_R4?$CDynamicPoolEx@VCHeaderDecorator@NEffectUpdateDecorator@@@@6B@
rdata$r	SEGMENT
??_R4?$CDynamicPoolEx@VCHeaderDecorator@NEffectUpdateDecorator@@@@6B@ DD 00H ; CDynamicPoolEx<NEffectUpdateDecorator::CHeaderDecorator>::`RTTI Complete Object Locator'
	DD	00H
	DD	00H
	DD	FLAT:??_R0?AV?$CDynamicPoolEx@VCHeaderDecorator@NEffectUpdateDecorator@@@@@8
	DD	FLAT:??_R3?$CDynamicPoolEx@VCHeaderDecorator@NEffectUpdateDecorator@@@@8
rdata$r	ENDS
;	COMDAT ??_7?$CDynamicPoolEx@VCTextureAnimationCWDecorator@NEffectUpdateDecorator@@@@6B@
CONST	SEGMENT
??_7?$CDynamicPoolEx@VCTextureAnimationCWDecorator@NEffectUpdateDecorator@@@@6B@ DD FLAT:??_R4?$CDynamicPoolEx@VCTextureAnimationCWDecorator@NEffectUpdateDecorator@@@@6B@ ; CDynamicPoolEx<NEffectUpdateDecorator::CTextureAnimationCWDecorator>::`vftable'
	DD	FLAT:??_E?$CDynamicPoolEx@VCTextureAnimationCWDecorator@NEffectUpdateDecorator@@@@UAEPAXI@Z
CONST	ENDS
PUBLIC	??_H@YGXPAXIIP6EPAX0@Z@Z			; `vector constructor iterator'
PUBLIC	?__empty_global_delete@@YAXPAX@Z		; __empty_global_delete
PUBLIC	?__empty_global_delete@@YAXPAXI@Z		; __empty_global_delete
PUBLIC	??0D3DXMATRIX@@QAE@XZ				; D3DXMATRIX::D3DXMATRIX
PUBLIC	??0exception@std@@QAE@ABV01@@Z			; std::exception::exception
PUBLIC	??1exception@std@@UAE@XZ			; std::exception::~exception
PUBLIC	?what@exception@std@@UBEPBDXZ			; std::exception::what
PUBLIC	??_Gexception@std@@UAEPAXI@Z			; std::exception::`scalar deleting destructor'
PUBLIC	??0bad_alloc@std@@QAE@ABV01@@Z			; std::bad_alloc::bad_alloc
PUBLIC	??_Gbad_alloc@std@@UAEPAXI@Z			; std::bad_alloc::`scalar deleting destructor'
PUBLIC	??0bad_array_new_length@std@@QAE@XZ		; std::bad_array_new_length::bad_array_new_length
PUBLIC	??1bad_array_new_length@std@@UAE@XZ		; std::bad_array_new_length::~bad_array_new_length
PUBLIC	??0bad_array_new_length@std@@QAE@ABV01@@Z	; std::bad_array_new_length::bad_array_new_length
PUBLIC	??_Gbad_array_new_length@std@@UAEPAXI@Z		; std::bad_array_new_length::`scalar deleting destructor'
PUBLIC	?_Throw_bad_array_new_length@std@@YAXXZ		; std::_Throw_bad_array_new_length
PUBLIC	?_Xlen_string@std@@YAXXZ			; std::_Xlen_string
PUBLIC	??1?$basic_string@DU?$char_traits@D@std@@V?$allocator@D@2@@std@@QAE@XZ ; std::basic_string<char,std::char_traits<char>,std::allocator<char> >::~basic_string<char,std::char_traits<char>,std::allocator<char> >
PUBLIC	?append@?$basic_string@DU?$char_traits@D@std@@V?$allocator@D@2@@std@@QAEAAV12@QBDI@Z ; std::basic_string<char,std::char_traits<char>,std::allocator<char> >::append
PUBLIC	?assign@?$basic_string@DU?$char_traits@D@std@@V?$allocator@D@2@@std@@QAEAAV12@QBDI@Z ; std::basic_string<char,std::char_traits<char>,std::allocator<char> >::assign
PUBLIC	?_Throw_tree_length_error@std@@YAXXZ		; std::_Throw_tree_length_error
PUBLIC	??1SpherePackCallback@@UAE@XZ			; SpherePackCallback::~SpherePackCallback
PUBLIC	?VisibilityCallback@SpherePackCallback@@UAEXABVFrustum@@PAVSpherePack@@W4ViewState@@@Z ; SpherePackCallback::VisibilityCallback
PUBLIC	?RayTraceCallback@SpherePackCallback@@UAEXABVVector3d@@0M0PAVSpherePack@@@Z ; SpherePackCallback::RayTraceCallback
PUBLIC	?RangeTestCallback@SpherePackCallback@@UAEXABVVector3d@@MPAVSpherePack@@W4ViewState@@@Z ; SpherePackCallback::RangeTestCallback
PUBLIC	?PointTest2dCallback@SpherePackCallback@@UAEXABVVector3d@@PAVSpherePack@@W4ViewState@@@Z ; SpherePackCallback::PointTest2dCallback
PUBLIC	??_GSpherePackCallback@@UAEPAXI@Z		; SpherePackCallback::`scalar deleting destructor'
PUBLIC	??$_Destroy_in_place@PAD@std@@YAXAAPAD@Z	; std::_Destroy_in_place<char *>
PUBLIC	??$_Construct_in_place@PADABQAD@std@@YAXAAPADABQAD@Z ; std::_Construct_in_place<char *,char * const &>
PUBLIC	??$_Deallocate@$07$0A@@std@@YAXPAXI@Z		; std::_Deallocate<8,0>
PUBLIC	??$_Allocate@$07U_Default_allocate_traits@std@@$0A@@std@@YAPAXI@Z ; std::_Allocate<8,std::_Default_allocate_traits,0>
PUBLIC	??$_Allocate_manually_vector_aligned@U_Default_allocate_traits@std@@@std@@YAPAXI@Z ; std::_Allocate_manually_vector_aligned<std::_Default_allocate_traits>
PUBLIC	??1?$_Tree@V?$_Tset_traits@HU?$less@H@std@@V?$allocator@H@2@$0A@@std@@@std@@QAE@XZ ; std::_Tree<std::_Tset_traits<int,std::less<int>,std::allocator<int>,0> >::~_Tree<std::_Tset_traits<int,std::less<int>,std::allocator<int>,0> >
PUBLIC	?clear@?$_Tree@V?$_Tset_traits@HU?$less@H@std@@V?$allocator@H@2@$0A@@std@@@std@@QAEXXZ ; std::_Tree<std::_Tset_traits<int,std::less<int>,std::allocator<int>,0> >::clear
PUBLIC	?_Getal@?$_Tree@V?$_Tset_traits@HU?$less@H@std@@V?$allocator@H@2@$0A@@std@@@std@@IAEAAV?$allocator@U?$_Tree_node@HPAX@std@@@2@XZ ; std::_Tree<std::_Tset_traits<int,std::less<int>,std::allocator<int>,0> >::_Getal
PUBLIC	?_Insert_node@?$_Tree_val@U?$_Tree_simple_types@H@std@@@std@@QAEPAU?$_Tree_node@HPAX@2@U?$_Tree_id@PAU?$_Tree_node@HPAX@std@@@2@QAU32@@Z ; std::_Tree_val<std::_Tree_simple_types<int> >::_Insert_node
PUBLIC	??1?$set@HU?$less@H@std@@V?$allocator@H@2@@std@@QAE@XZ ; std::set<int,std::less<int>,std::allocator<int> >::~set<int,std::less<int>,std::allocator<int> >
PUBLIC	??1?$CSingleton@VCPythonBackground@@@@UAE@XZ	; CSingleton<CPythonBackground>::~CSingleton<CPythonBackground>
PUBLIC	??_G?$CSingleton@VCPythonBackground@@@@UAEPAXI@Z ; CSingleton<CPythonBackground>::`scalar deleting destructor'
PUBLIC	??0SVIEWDISTANCESET@CPythonBackground@@QAE@XZ	; CPythonBackground::SVIEWDISTANCESET::SVIEWDISTANCESET
PUBLIC	??0CPythonBackground@@QAE@XZ			; CPythonBackground::CPythonBackground
PUBLIC	??1CPythonBackground@@UAE@XZ			; CPythonBackground::~CPythonBackground
PUBLIC	?Initialize@CPythonBackground@@QAEXXZ		; CPythonBackground::Initialize
PUBLIC	?Destroy@CPythonBackground@@QAEXXZ		; CPythonBackground::Destroy
PUBLIC	?Create@CPythonBackground@@QAEXXZ		; CPythonBackground::Create
PUBLIC	?GlobalPositionToLocalPosition@CPythonBackground@@QAEXAAJ0@Z ; CPythonBackground::GlobalPositionToLocalPosition
PUBLIC	?LocalPositionToGlobalPosition@CPythonBackground@@QAEXAAJ0@Z ; CPythonBackground::LocalPositionToGlobalPosition
PUBLIC	?EnableTerrainOnlyForHeight@CPythonBackground@@QAEXXZ ; CPythonBackground::EnableTerrainOnlyForHeight
PUBLIC	?SetSplatLimit@CPythonBackground@@QAE_NH@Z	; CPythonBackground::SetSplatLimit
PUBLIC	?SetVisiblePart@CPythonBackground@@QAE_NH_N@Z	; CPythonBackground::SetVisiblePart
PUBLIC	?SetShadowLevel@CPythonBackground@@QAE_NH@Z	; CPythonBackground::SetShadowLevel
PUBLIC	?RefreshShadowLevel@CPythonBackground@@QAEXXZ	; CPythonBackground::RefreshShadowLevel
PUBLIC	?SelectViewDistanceNum@CPythonBackground@@QAEXH@Z ; CPythonBackground::SelectViewDistanceNum
PUBLIC	?SetViewDistanceSet@CPythonBackground@@QAEXHM@Z	; CPythonBackground::SetViewDistanceSet
PUBLIC	?GetFarClip@CPythonBackground@@QAEMXZ		; CPythonBackground::GetFarClip
PUBLIC	?GetRenderShadowTime@CPythonBackground@@QAEKXZ	; CPythonBackground::GetRenderShadowTime
PUBLIC	?GetDistanceSetInfo@CPythonBackground@@QAEXPAHPAM11@Z ; CPythonBackground::GetDistanceSetInfo
PUBLIC	?GetPickingPoint@CPythonBackground@@QAE_NPAUD3DXVECTOR3@@@Z ; CPythonBackground::GetPickingPoint
PUBLIC	?GetPickingPointWithRay@CPythonBackground@@QAE_NABVCRay@@PAUD3DXVECTOR3@@@Z ; CPythonBackground::GetPickingPointWithRay
PUBLIC	?GetPickingPointWithRayOnlyTerrain@CPythonBackground@@QAE_NABVCRay@@PAUD3DXVECTOR3@@@Z ; CPythonBackground::GetPickingPointWithRayOnlyTerrain
PUBLIC	?GetLightDirection@CPythonBackground@@QAEHAAUD3DXVECTOR3@@@Z ; CPythonBackground::GetLightDirection
PUBLIC	?Update@CPythonBackground@@QAEXMMM@Z		; CPythonBackground::Update
PUBLIC	?CreateCharacterShadowTexture@CPythonBackground@@QAEXXZ ; CPythonBackground::CreateCharacterShadowTexture
PUBLIC	?ReleaseCharacterShadowTexture@CPythonBackground@@QAEXXZ ; CPythonBackground::ReleaseCharacterShadowTexture
PUBLIC	?Render@CPythonBackground@@QAEXXZ		; CPythonBackground::Render
PUBLIC	?RenderSnow@CPythonBackground@@QAEXXZ		; CPythonBackground::RenderSnow
PUBLIC	?RenderPCBlocker@CPythonBackground@@QAEXXZ	; CPythonBackground::RenderPCBlocker
PUBLIC	?RenderCollision@CPythonBackground@@QAEXXZ	; CPythonBackground::RenderCollision
PUBLIC	?RenderCharacterShadowToTexture@CPythonBackground@@QAEXXZ ; CPythonBackground::RenderCharacterShadowToTexture
PUBLIC	?RenderSky@CPythonBackground@@QAEXXZ		; CPythonBackground::RenderSky
PUBLIC	?RenderCloud@CPythonBackground@@QAEXXZ		; CPythonBackground::RenderCloud
PUBLIC	?RenderWater@CPythonBackground@@QAEXXZ		; CPythonBackground::RenderWater
PUBLIC	?RenderEffect@CPythonBackground@@QAEXXZ		; CPythonBackground::RenderEffect
PUBLIC	?RenderBeforeLensFlare@CPythonBackground@@QAEXXZ ; CPythonBackground::RenderBeforeLensFlare
PUBLIC	?RenderAfterLensFlare@CPythonBackground@@QAEXXZ	; CPythonBackground::RenderAfterLensFlare
PUBLIC	?CheckAdvancing@CPythonBackground@@QAE_NPAVCInstanceBase@@@Z ; CPythonBackground::CheckAdvancing
PUBLIC	?SetCharacterDirLight@CPythonBackground@@QAEXXZ	; CPythonBackground::SetCharacterDirLight
PUBLIC	?SetBackgroundDirLight@CPythonBackground@@QAEXXZ ; CPythonBackground::SetBackgroundDirLight
PUBLIC	?ChangeToDay@CPythonBackground@@QAEXXZ		; CPythonBackground::ChangeToDay
PUBLIC	?ChangeToNight@CPythonBackground@@QAEXXZ	; CPythonBackground::ChangeToNight
PUBLIC	?EnableSnowEnvironment@CPythonBackground@@QAEXXZ ; CPythonBackground::EnableSnowEnvironment
PUBLIC	?DisableSnowEnvironment@CPythonBackground@@QAEXXZ ; CPythonBackground::DisableSnowEnvironment
PUBLIC	?SetXMaxTree@CPythonBackground@@QAEXH@Z		; CPythonBackground::SetXMaxTree
PUBLIC	?ClearGuildArea@CPythonBackground@@QAEXXZ	; CPythonBackground::ClearGuildArea
PUBLIC	?RegisterGuildArea@CPythonBackground@@QAEXHHHH@Z ; CPythonBackground::RegisterGuildArea
PUBLIC	?CreateTargetEffect@CPythonBackground@@QAEXKK@Z	; CPythonBackground::CreateTargetEffect
PUBLIC	?CreateTargetEffect@CPythonBackground@@QAEXKJJ@Z ; CPythonBackground::CreateTargetEffect
PUBLIC	?DeleteTargetEffect@CPythonBackground@@QAEXK@Z	; CPythonBackground::DeleteTargetEffect
PUBLIC	?CreateSpecialEffect@CPythonBackground@@QAEXKMMMPBD@Z ; CPythonBackground::CreateSpecialEffect
PUBLIC	?DeleteSpecialEffect@CPythonBackground@@QAEXK@Z	; CPythonBackground::DeleteSpecialEffect
PUBLIC	?Warp@CPythonBackground@@QAEXKK@Z		; CPythonBackground::Warp
PUBLIC	?VisibleGuildArea@CPythonBackground@@QAEXXZ	; CPythonBackground::VisibleGuildArea
PUBLIC	?DisableGuildArea@CPythonBackground@@QAEXXZ	; CPythonBackground::DisableGuildArea
PUBLIC	?RegisterDungeonMapName@CPythonBackground@@QAEXPBD@Z ; CPythonBackground::RegisterDungeonMapName
PUBLIC	?GlobalPositionToMapInfo@CPythonBackground@@QAEPAUTMapInfo@CMapManager@@KK@Z ; CPythonBackground::GlobalPositionToMapInfo
PUBLIC	?GetWarpMapName@CPythonBackground@@QAEPBDXZ	; CPythonBackground::GetWarpMapName
PUBLIC	?__CreateProperty@CPythonBackground@@IAEXXZ	; CPythonBackground::__CreateProperty
PUBLIC	?__IsSame@CPythonBackground@@IAE_NAAV?$set@HU?$less@H@std@@V?$allocator@H@2@@std@@0@Z ; CPythonBackground::__IsSame
PUBLIC	?_Insert_node@?$_Tree_val@U?$_Tree_simple_types@V?$basic_string@DU?$char_traits@D@std@@V?$allocator@D@2@@std@@@std@@@std@@QAEPAU?$_Tree_node@V?$basic_string@DU?$char_traits@D@std@@V?$allocator@D@2@@std@@PAX@2@U?$_Tree_id@PAU?$_Tree_node@V?$basic_string@DU?$char_traits@D@std@@V?$allocator@D@2@@std@@PAX@std@@@2@QAU32@@Z ; std::_Tree_val<std::_Tree_simple_types<std::basic_string<char,std::char_traits<char>,std::allocator<char> > > >::_Insert_node
PUBLIC	??1?$set@V?$basic_string@DU?$char_traits@D@std@@V?$allocator@D@2@@std@@U?$less@V?$basic_string@DU?$char_traits@D@std@@V?$allocator@D@2@@std@@@2@V?$allocator@V?$basic_string@DU?$char_traits@D@std@@V?$allocator@D@2@@std@@@2@@std@@QAE@XZ ; std::set<std::basic_string<char,std::char_traits<char>,std::allocator<char> >,std::less<std::basic_string<char,std::char_traits<char>,std::allocator<char> > >,std::allocator<std::basic_string<char,std::char_traits<char>,std::allocator<char> > > >::~set<std::basic_string<char,std::char_traits<char>,std::allocator<char> >,std::less<std::basic_string<char,std::char_traits<char>,std::allocator<char> > >,std::allocator<std::basic_string<char,std::char_traits<char>,std::allocator<char> > > >
PUBLIC	??1?$_Tree@V?$_Tmap_traits@KKU?$less@K@std@@V?$allocator@U?$pair@$$CBKK@std@@@2@$0A@@std@@@std@@QAE@XZ ; std::_Tree<std::_Tmap_traits<unsigned long,unsigned long,std::less<unsigned long>,std::allocator<std::pair<unsigned long const ,unsigned long> >,0> >::~_Tree<std::_Tmap_traits<unsigned long,unsigned long,std::less<unsigned long>,std::allocator<std::pair<unsigned long const ,unsigned long> >,0> >
PUBLIC	?clear@?$_Tree@V?$_Tmap_traits@KKU?$less@K@std@@V?$allocator@U?$pair@$$CBKK@std@@@2@$0A@@std@@@std@@QAEXXZ ; std::_Tree<std::_Tmap_traits<unsigned long,unsigned long,std::less<unsigned long>,std::allocator<std::pair<unsigned long const ,unsigned long> >,0> >::clear
PUBLIC	?_Lrotate@?$_Tree_val@U?$_Tree_simple_types@U?$pair@$$CBKK@std@@@std@@@std@@QAEXPAU?$_Tree_node@U?$pair@$$CBKK@std@@PAX@2@@Z ; std::_Tree_val<std::_Tree_simple_types<std::pair<unsigned long const ,unsigned long> > >::_Lrotate
PUBLIC	?_Rrotate@?$_Tree_val@U?$_Tree_simple_types@U?$pair@$$CBKK@std@@@std@@@std@@QAEXPAU?$_Tree_node@U?$pair@$$CBKK@std@@PAX@2@@Z ; std::_Tree_val<std::_Tree_simple_types<std::pair<unsigned long const ,unsigned long> > >::_Rrotate
PUBLIC	?_Extract@?$_Tree_val@U?$_Tree_simple_types@U?$pair@$$CBKK@std@@@std@@@std@@QAEPAU?$_Tree_node@U?$pair@$$CBKK@std@@PAX@2@V?$_Tree_unchecked_const_iterator@V?$_Tree_val@U?$_Tree_simple_types@U?$pair@$$CBKK@std@@@std@@@std@@U_Iterator_base0@2@@2@@Z ; std::_Tree_val<std::_Tree_simple_types<std::pair<unsigned long const ,unsigned long> > >::_Extract
PUBLIC	?_Insert_node@?$_Tree_val@U?$_Tree_simple_types@U?$pair@$$CBKK@std@@@std@@@std@@QAEPAU?$_Tree_node@U?$pair@$$CBKK@std@@PAX@2@U?$_Tree_id@PAU?$_Tree_node@U?$pair@$$CBKK@std@@PAX@std@@@2@QAU32@@Z ; std::_Tree_val<std::_Tree_simple_types<std::pair<unsigned long const ,unsigned long> > >::_Insert_node
PUBLIC	??1?$map@KKU?$less@K@std@@V?$allocator@U?$pair@$$CBKK@std@@@2@@std@@QAE@XZ ; std::map<unsigned long,unsigned long,std::less<unsigned long>,std::allocator<std::pair<unsigned long const ,unsigned long> > >::~map<unsigned long,unsigned long,std::less<unsigned long>,std::allocator<std::pair<unsigned long const ,unsigned long> > >
PUBLIC	??1?$_Tree@V?$_Tmap_traits@KUSReserveTargetEffect@CPythonBackground@@U?$less@K@std@@V?$allocator@U?$pair@$$CBKUSReserveTargetEffect@CPythonBackground@@@std@@@4@$0A@@std@@@std@@QAE@XZ ; std::_Tree<std::_Tmap_traits<unsigned long,CPythonBackground::SReserveTargetEffect,std::less<unsigned long>,std::allocator<std::pair<unsigned long const ,CPythonBackground::SReserveTargetEffect> >,0> >::~_Tree<std::_Tmap_traits<unsigned long,CPythonBackground::SReserveTargetEffect,std::less<unsigned long>,std::allocator<std::pair<unsigned long const ,CPythonBackground::SReserveTargetEffect> >,0> >
PUBLIC	?clear@?$_Tree@V?$_Tmap_traits@KUSReserveTargetEffect@CPythonBackground@@U?$less@K@std@@V?$allocator@U?$pair@$$CBKUSReserveTargetEffect@CPythonBackground@@@std@@@4@$0A@@std@@@std@@QAEXXZ ; std::_Tree<std::_Tmap_traits<unsigned long,CPythonBackground::SReserveTargetEffect,std::less<unsigned long>,std::allocator<std::pair<unsigned long const ,CPythonBackground::SReserveTargetEffect> >,0> >::clear
PUBLIC	?_Lrotate@?$_Tree_val@U?$_Tree_simple_types@U?$pair@$$CBKUSReserveTargetEffect@CPythonBackground@@@std@@@std@@@std@@QAEXPAU?$_Tree_node@U?$pair@$$CBKUSReserveTargetEffect@CPythonBackground@@@std@@PAX@2@@Z ; std::_Tree_val<std::_Tree_simple_types<std::pair<unsigned long const ,CPythonBackground::SReserveTargetEffect> > >::_Lrotate
PUBLIC	?_Rrotate@?$_Tree_val@U?$_Tree_simple_types@U?$pair@$$CBKUSReserveTargetEffect@CPythonBackground@@@std@@@std@@@std@@QAEXPAU?$_Tree_node@U?$pair@$$CBKUSReserveTargetEffect@CPythonBackground@@@std@@PAX@2@@Z ; std::_Tree_val<std::_Tree_simple_types<std::pair<unsigned long const ,CPythonBackground::SReserveTargetEffect> > >::_Rrotate
PUBLIC	?_Extract@?$_Tree_val@U?$_Tree_simple_types@U?$pair@$$CBKUSReserveTargetEffect@CPythonBackground@@@std@@@std@@@std@@QAEPAU?$_Tree_node@U?$pair@$$CBKUSReserveTargetEffect@CPythonBackground@@@std@@PAX@2@V?$_Tree_unchecked_const_iterator@V?$_Tree_val@U?$_Tree_simple_types@U?$pair@$$CBKUSReserveTargetEffect@CPythonBackground@@@std@@@std@@@std@@U_Iterator_base0@2@@2@@Z ; std::_Tree_val<std::_Tree_simple_types<std::pair<unsigned long const ,CPythonBackground::SReserveTargetEffect> > >::_Extract
PUBLIC	?_Insert_node@?$_Tree_val@U?$_Tree_simple_types@U?$pair@$$CBKUSReserveTargetEffect@CPythonBackground@@@std@@@std@@@std@@QAEPAU?$_Tree_node@U?$pair@$$CBKUSReserveTargetEffect@CPythonBackground@@@std@@PAX@2@U?$_Tree_id@PAU?$_Tree_node@U?$pair@$$CBKUSReserveTargetEffect@CPythonBackground@@@std@@PAX@std@@@2@QAU32@@Z ; std::_Tree_val<std::_Tree_simple_types<std::pair<unsigned long const ,CPythonBackground::SReserveTargetEffect> > >::_Insert_node
PUBLIC	??1?$map@KUSReserveTargetEffect@CPythonBackground@@U?$less@K@std@@V?$allocator@U?$pair@$$CBKUSReserveTargetEffect@CPythonBackground@@@std@@@4@@std@@QAE@XZ ; std::map<unsigned long,CPythonBackground::SReserveTargetEffect,std::less<unsigned long>,std::allocator<std::pair<unsigned long const ,CPythonBackground::SReserveTargetEffect> > >::~map<unsigned long,CPythonBackground::SReserveTargetEffect,std::less<unsigned long>,std::allocator<std::pair<unsigned long const ,CPythonBackground::SReserveTargetEffect> > >
PUBLIC	??_GCPythonBackground@@UAEPAXI@Z		; CPythonBackground::`scalar deleting destructor'
PUBLIC	??RFGetPortalID@@QAEXPAVCGraphicObjectInstance@@@Z ; FGetPortalID::operator()
PUBLIC	??1FGetPortalID@@QAE@XZ				; FGetPortalID::~FGetPortalID
PUBLIC	??E?$_Tree_const_iterator@V?$_Tree_val@U?$_Tree_simple_types@H@std@@@std@@@std@@QAEAAV01@XZ ; std::_Tree_const_iterator<std::_Tree_val<std::_Tree_simple_types<int> > >::operator++
PUBLIC	??E?$_Tree_unchecked_const_iterator@V?$_Tree_val@U?$_Tree_simple_types@U?$pair@$$CBKK@std@@@std@@@std@@U_Iterator_base0@2@@std@@QAEAAV01@XZ ; std::_Tree_unchecked_const_iterator<std::_Tree_val<std::_Tree_simple_types<std::pair<unsigned long const ,unsigned long> > >,std::_Iterator_base0>::operator++
PUBLIC	??E?$_Tree_unchecked_const_iterator@V?$_Tree_val@U?$_Tree_simple_types@U?$pair@$$CBKUSReserveTargetEffect@CPythonBackground@@@std@@@std@@@std@@U_Iterator_base0@2@@std@@QAEAAV01@XZ ; std::_Tree_unchecked_const_iterator<std::_Tree_val<std::_Tree_simple_types<std::pair<unsigned long const ,CPythonBackground::SReserveTargetEffect> > >,std::_Iterator_base0>::operator++
PUBLIC	??$?9DU?$char_traits@D@std@@V?$allocator@D@1@@std@@YA_NQBDABV?$basic_string@DU?$char_traits@D@std@@V?$allocator@D@2@@0@@Z ; std::operator!=<char,std::char_traits<char>,std::allocator<char> >
PUBLIC	??1?$CDynamicPoolEx@VCRotationDecorator@NEffectUpdateDecorator@@@@UAE@XZ ; CDynamicPoolEx<NEffectUpdateDecorator::CRotationDecorator>::~CDynamicPoolEx<NEffectUpdateDecorator::CRotationDecorator>
PUBLIC	?Delete@?$CDynamicPoolEx@VCRotationDecorator@NEffectUpdateDecorator@@@@KAXPAVCRotationDecorator@NEffectUpdateDecorator@@@Z ; CDynamicPoolEx<NEffectUpdateDecorator::CRotationDecorator>::Delete
PUBLIC	??1?$CDynamicPoolEx@VCGravityDecorator@NEffectUpdateDecorator@@@@UAE@XZ ; CDynamicPoolEx<NEffectUpdateDecorator::CGravityDecorator>::~CDynamicPoolEx<NEffectUpdateDecorator::CGravityDecorator>
PUBLIC	?Delete@?$CDynamicPoolEx@VCGravityDecorator@NEffectUpdateDecorator@@@@KAXPAVCGravityDecorator@NEffectUpdateDecorator@@@Z ; CDynamicPoolEx<NEffectUpdateDecorator::CGravityDecorator>::Delete
PUBLIC	??1?$CDynamicPoolEx@VCAirResistanceDecorator@NEffectUpdateDecorator@@@@UAE@XZ ; CDynamicPoolEx<NEffectUpdateDecorator::CAirResistanceDecorator>::~CDynamicPoolEx<NEffectUpdateDecorator::CAirResistanceDecorator>
PUBLIC	?Delete@?$CDynamicPoolEx@VCAirResistanceDecorator@NEffectUpdateDecorator@@@@KAXPAVCAirResistanceDecorator@NEffectUpdateDecorator@@@Z ; CDynamicPoolEx<NEffectUpdateDecorator::CAirResistanceDecorator>::Delete
PUBLIC	??1?$CDynamicPoolEx@VCTextureAnimationRandomDecorator@NEffectUpdateDecorator@@@@UAE@XZ ; CDynamicPoolEx<NEffectUpdateDecorator::CTextureAnimationRandomDecorator>::~CDynamicPoolEx<NEffectUpdateDecorator::CTextureAnimationRandomDecorator>
PUBLIC	?Delete@?$CDynamicPoolEx@VCTextureAnimationRandomDecorator@NEffectUpdateDecorator@@@@KAXPAVCTextureAnimationRandomDecorator@NEffectUpdateDecorator@@@Z ; CDynamicPoolEx<NEffectUpdateDecorator::CTextureAnimationRandomDecorator>::Delete
PUBLIC	??1?$CDynamicPoolEx@VCTextureAnimationCCWDecorator@NEffectUpdateDecorator@@@@UAE@XZ ; CDynamicPoolEx<NEffectUpdateDecorator::CTextureAnimationCCWDecorator>::~CDynamicPoolEx<NEffectUpdateDecorator::CTextureAnimationCCWDecorator>
PUBLIC	?Delete@?$CDynamicPoolEx@VCTextureAnimationCCWDecorator@NEffectUpdateDecorator@@@@KAXPAVCTextureAnimationCCWDecorator@NEffectUpdateDecorator@@@Z ; CDynamicPoolEx<NEffectUpdateDecorator::CTextureAnimationCCWDecorator>::Delete
PUBLIC	??1?$CDynamicPoolEx@VCTextureAnimationCWDecorator@NEffectUpdateDecorator@@@@UAE@XZ ; CDynamicPoolEx<NEffectUpdateDecorator::CTextureAnimationCWDecorator>::~CDynamicPoolEx<NEffectUpdateDecorator::CTextureAnimationCWDecorator>
PUBLIC	?Delete@?$CDynamicPoolEx@VCTextureAnimationCWDecorator@NEffectUpdateDecorator@@@@KAXPAVCTextureAnimationCWDecorator@NEffectUpdateDecorator@@@Z ; CDynamicPoolEx<NEffectUpdateDecorator::CTextureAnimationCWDecorator>::Delete
PUBLIC	??1?$CDynamicPoolEx@VCNullDecorator@NEffectUpdateDecorator@@@@UAE@XZ ; CDynamicPoolEx<NEffectUpdateDecorator::CNullDecorator>::~CDynamicPoolEx<NEffectUpdateDecorator::CNullDecorator>
PUBLIC	?Delete@?$CDynamicPoolEx@VCNullDecorator@NEffectUpdateDecorator@@@@KAXPAVCNullDecorator@NEffectUpdateDecorator@@@Z ; CDynamicPoolEx<NEffectUpdateDecorator::CNullDecorator>::Delete
PUBLIC	??1?$CDynamicPoolEx@VCHeaderDecorator@NEffectUpdateDecorator@@@@UAE@XZ ; CDynamicPoolEx<NEffectUpdateDecorator::CHeaderDecorator>::~CDynamicPoolEx<NEffectUpdateDecorator::CHeaderDecorator>
PUBLIC	?Delete@?$CDynamicPoolEx@VCHeaderDecorator@NEffectUpdateDecorator@@@@KAXPAVCHeaderDecorator@NEffectUpdateDecorator@@@Z ; CDynamicPoolEx<NEffectUpdateDecorator::CHeaderDecorator>::Delete
PUBLIC	??$_Erase_tree@V?$allocator@U?$_Tree_node@U?$pair@$$CBKUSReserveTargetEffect@CPythonBackground@@@std@@PAX@std@@@std@@@?$_Tree_val@U?$_Tree_simple_types@U?$pair@$$CBKUSReserveTargetEffect@CPythonBackground@@@std@@@std@@@std@@QAEXAAV?$allocator@U?$_Tree_node@U?$pair@$$CBKUSReserveTargetEffect@CPythonBackground@@@std@@PAX@std@@@1@PAU?$_Tree_node@U?$pair@$$CBKUSReserveTargetEffect@CPythonBackground@@@std@@PAX@1@@Z ; std::_Tree_val<std::_Tree_simple_types<std::pair<unsigned long const ,CPythonBackground::SReserveTargetEffect> > >::_Erase_tree<std::allocator<std::_Tree_node<std::pair<unsigned long const ,CPythonBackground::SReserveTargetEffect>,void *> > >
PUBLIC	??$_Erase_tree@V?$allocator@U?$_Tree_node@U?$pair@$$CBKK@std@@PAX@std@@@std@@@?$_Tree_val@U?$_Tree_simple_types@U?$pair@$$CBKK@std@@@std@@@std@@QAEXAAV?$allocator@U?$_Tree_node@U?$pair@$$CBKK@std@@PAX@std@@@1@PAU?$_Tree_node@U?$pair@$$CBKK@std@@PAX@1@@Z ; std::_Tree_val<std::_Tree_simple_types<std::pair<unsigned long const ,unsigned long> > >::_Erase_tree<std::allocator<std::_Tree_node<std::pair<unsigned long const ,unsigned long>,void *> > >
PUBLIC	??$_Erase_tree@V?$allocator@U?$_Tree_node@HPAX@std@@@std@@@?$_Tree_val@U?$_Tree_simple_types@H@std@@@std@@QAEXAAV?$allocator@U?$_Tree_node@HPAX@std@@@1@PAU?$_Tree_node@HPAX@1@@Z ; std::_Tree_val<std::_Tree_simple_types<int> >::_Erase_tree<std::allocator<std::_Tree_node<int,void *> > >
PUBLIC	??$_Pocca@V?$allocator@D@std@@@std@@YAXAAV?$allocator@D@0@ABV10@@Z ; std::_Pocca<std::allocator<char> >
PUBLIC	??$_Pocca@V?$allocator@U?$_Tree_node@HPAX@std@@@std@@@std@@YAXAAV?$allocator@U?$_Tree_node@HPAX@std@@@0@ABV10@@Z ; std::_Pocca<std::allocator<std::_Tree_node<int,void *> > >
PUBLIC	??$_Destroy_range@V?$allocator@PAVCHeaderDecorator@NEffectUpdateDecorator@@@std@@@std@@YAXPAPAVCHeaderDecorator@NEffectUpdateDecorator@@QAPAV12@AAV?$allocator@PAVCHeaderDecorator@NEffectUpdateDecorator@@@0@@Z ; std::_Destroy_range<std::allocator<NEffectUpdateDecorator::CHeaderDecorator *> >
PUBLIC	??$_Destroy_range@V?$allocator@PAVCNullDecorator@NEffectUpdateDecorator@@@std@@@std@@YAXPAPAVCNullDecorator@NEffectUpdateDecorator@@QAPAV12@AAV?$allocator@PAVCNullDecorator@NEffectUpdateDecorator@@@0@@Z ; std::_Destroy_range<std::allocator<NEffectUpdateDecorator::CNullDecorator *> >
PUBLIC	??$_Destroy_range@V?$allocator@PAVCTextureAnimationCWDecorator@NEffectUpdateDecorator@@@std@@@std@@YAXPAPAVCTextureAnimationCWDecorator@NEffectUpdateDecorator@@QAPAV12@AAV?$allocator@PAVCTextureAnimationCWDecorator@NEffectUpdateDecorator@@@0@@Z ; std::_Destroy_range<std::allocator<NEffectUpdateDecorator::CTextureAnimationCWDecorator *> >
PUBLIC	??$_Destroy_range@V?$allocator@PAVCTextureAnimationCCWDecorator@NEffectUpdateDecorator@@@std@@@std@@YAXPAPAVCTextureAnimationCCWDecorator@NEffectUpdateDecorator@@QAPAV12@AAV?$allocator@PAVCTextureAnimationCCWDecorator@NEffectUpdateDecorator@@@0@@Z ; std::_Destroy_range<std::allocator<NEffectUpdateDecorator::CTextureAnimationCCWDecorator *> >
PUBLIC	??$_Destroy_range@V?$allocator@PAVCTextureAnimationRandomDecorator@NEffectUpdateDecorator@@@std@@@std@@YAXPAPAVCTextureAnimationRandomDecorator@NEffectUpdateDecorator@@QAPAV12@AAV?$allocator@PAVCTextureAnimationRandomDecorator@NEffectUpdateDecorator@@@0@@Z ; std::_Destroy_range<std::allocator<NEffectUpdateDecorator::CTextureAnimationRandomDecorator *> >
PUBLIC	??$_Destroy_range@V?$allocator@PAVCAirResistanceDecorator@NEffectUpdateDecorator@@@std@@@std@@YAXPAPAVCAirResistanceDecorator@NEffectUpdateDecorator@@QAPAV12@AAV?$allocator@PAVCAirResistanceDecorator@NEffectUpdateDecorator@@@0@@Z ; std::_Destroy_range<std::allocator<NEffectUpdateDecorator::CAirResistanceDecorator *> >
PUBLIC	??$_Destroy_range@V?$allocator@PAVCGravityDecorator@NEffectUpdateDecorator@@@std@@@std@@YAXPAPAVCGravityDecorator@NEffectUpdateDecorator@@QAPAV12@AAV?$allocator@PAVCGravityDecorator@NEffectUpdateDecorator@@@0@@Z ; std::_Destroy_range<std::allocator<NEffectUpdateDecorator::CGravityDecorator *> >
PUBLIC	??$_Destroy_range@V?$allocator@PAVCRotationDecorator@NEffectUpdateDecorator@@@std@@@std@@YAXPAPAVCRotationDecorator@NEffectUpdateDecorator@@QAPAV12@AAV?$allocator@PAVCRotationDecorator@NEffectUpdateDecorator@@@0@@Z ; std::_Destroy_range<std::allocator<NEffectUpdateDecorator::CRotationDecorator *> >
PUBLIC	??1?$RangeTester@UFGetPortalID@@@@UAE@XZ	; RangeTester<FGetPortalID>::~RangeTester<FGetPortalID>
PUBLIC	?RayTraceCallback@?$RangeTester@UFGetPortalID@@@@UAEXABVVector3d@@0M0PAVSpherePack@@@Z ; RangeTester<FGetPortalID>::RayTraceCallback
PUBLIC	?VisibilityCallback@?$RangeTester@UFGetPortalID@@@@UAEXABVFrustum@@PAVSpherePack@@W4ViewState@@@Z ; RangeTester<FGetPortalID>::VisibilityCallback
PUBLIC	?RangeTestCallback@?$RangeTester@UFGetPortalID@@@@UAEXABVVector3d@@MPAVSpherePack@@W4ViewState@@@Z ; RangeTester<FGetPortalID>::RangeTestCallback
PUBLIC	?PointTest2dCallback@?$RangeTester@UFGetPortalID@@@@UAEXABVVector3d@@PAVSpherePack@@W4ViewState@@@Z ; RangeTester<FGetPortalID>::PointTest2dCallback
PUBLIC	??_G?$RangeTester@UFGetPortalID@@@@UAEPAXI@Z	; RangeTester<FGetPortalID>::`scalar deleting destructor'
PUBLIC	??1?$RangeTester@UCollisionAdjustChecker@@@@UAE@XZ ; RangeTester<CollisionAdjustChecker>::~RangeTester<CollisionAdjustChecker>
PUBLIC	?RayTraceCallback@?$RangeTester@UCollisionAdjustChecker@@@@UAEXABVVector3d@@0M0PAVSpherePack@@@Z ; RangeTester<CollisionAdjustChecker>::RayTraceCallback
PUBLIC	?VisibilityCallback@?$RangeTester@UCollisionAdjustChecker@@@@UAEXABVFrustum@@PAVSpherePack@@W4ViewState@@@Z ; RangeTester<CollisionAdjustChecker>::VisibilityCallback
PUBLIC	?RangeTestCallback@?$RangeTester@UCollisionAdjustChecker@@@@UAEXABVVector3d@@MPAVSpherePack@@W4ViewState@@@Z ; RangeTester<CollisionAdjustChecker>::RangeTestCallback
PUBLIC	?PointTest2dCallback@?$RangeTester@UCollisionAdjustChecker@@@@UAEXABVVector3d@@PAVSpherePack@@W4ViewState@@@Z ; RangeTester<CollisionAdjustChecker>::PointTest2dCallback
PUBLIC	??_G?$RangeTester@UCollisionAdjustChecker@@@@UAEPAXI@Z ; RangeTester<CollisionAdjustChecker>::`scalar deleting destructor'
PUBLIC	??1?$RangeTester@UCollisionChecker@@@@UAE@XZ	; RangeTester<CollisionChecker>::~RangeTester<CollisionChecker>
PUBLIC	?RayTraceCallback@?$RangeTester@UCollisionChecker@@@@UAEXABVVector3d@@0M0PAVSpherePack@@@Z ; RangeTester<CollisionChecker>::RayTraceCallback
PUBLIC	?VisibilityCallback@?$RangeTester@UCollisionChecker@@@@UAEXABVFrustum@@PAVSpherePack@@W4ViewState@@@Z ; RangeTester<CollisionChecker>::VisibilityCallback
PUBLIC	?RangeTestCallback@?$RangeTester@UCollisionChecker@@@@UAEXABVVector3d@@MPAVSpherePack@@W4ViewState@@@Z ; RangeTester<CollisionChecker>::RangeTestCallback
PUBLIC	?PointTest2dCallback@?$RangeTester@UCollisionChecker@@@@UAEXABVVector3d@@PAVSpherePack@@W4ViewState@@@Z ; RangeTester<CollisionChecker>::PointTest2dCallback
PUBLIC	??_G?$RangeTester@UCollisionChecker@@@@UAEPAXI@Z ; RangeTester<CollisionChecker>::`scalar deleting destructor'
PUBLIC	??$?8DU?$char_traits@D@std@@V?$allocator@D@1@@std@@YA_NQBDABV?$basic_string@DU?$char_traits@D@std@@V?$allocator@D@2@@0@@Z ; std::operator==<char,std::char_traits<char>,std::allocator<char> >
PUBLIC	??$_Find_lower_bound@K@?$_Tree@V?$_Tmap_traits@KUSReserveTargetEffect@CPythonBackground@@U?$less@K@std@@V?$allocator@U?$pair@$$CBKUSReserveTargetEffect@CPythonBackground@@@std@@@4@$0A@@std@@@std@@IBE?AU?$_Tree_find_result@PAU?$_Tree_node@U?$pair@$$CBKUSReserveTargetEffect@CPythonBackground@@@std@@PAX@std@@@1@ABK@Z ; std::_Tree<std::_Tmap_traits<unsigned long,CPythonBackground::SReserveTargetEffect,std::less<unsigned long>,std::allocator<std::pair<unsigned long const ,CPythonBackground::SReserveTargetEffect> >,0> >::_Find_lower_bound<unsigned long>
PUBLIC	??$_Find_lower_bound@K@?$_Tree@V?$_Tmap_traits@KKU?$less@K@std@@V?$allocator@U?$pair@$$CBKK@std@@@2@$0A@@std@@@std@@IBE?AU?$_Tree_find_result@PAU?$_Tree_node@U?$pair@$$CBKK@std@@PAX@std@@@1@ABK@Z ; std::_Tree<std::_Tmap_traits<unsigned long,unsigned long,std::less<unsigned long>,std::allocator<std::pair<unsigned long const ,unsigned long> >,0> >::_Find_lower_bound<unsigned long>
PUBLIC	??$_Find_lower_bound@V?$basic_string@DU?$char_traits@D@std@@V?$allocator@D@2@@std@@@?$_Tree@V?$_Tset_traits@V?$basic_string@DU?$char_traits@D@std@@V?$allocator@D@2@@std@@U?$less@V?$basic_string@DU?$char_traits@D@std@@V?$allocator@D@2@@std@@@2@V?$allocator@V?$basic_string@DU?$char_traits@D@std@@V?$allocator@D@2@@std@@@2@$0A@@std@@@std@@IBE?AU?$_Tree_find_result@PAU?$_Tree_node@V?$basic_string@DU?$char_traits@D@std@@V?$allocator@D@2@@std@@PAX@std@@@1@ABV?$basic_string@DU?$char_traits@D@std@@V?$allocator@D@2@@1@@Z ; std::_Tree<std::_Tset_traits<std::basic_string<char,std::char_traits<char>,std::allocator<char> >,std::less<std::basic_string<char,std::char_traits<char>,std::allocator<char> > >,std::allocator<std::basic_string<char,std::char_traits<char>,std::allocator<char> > >,0> >::_Find_lower_bound<std::basic_string<char,std::char_traits<char>,std::allocator<char> > >
PUBLIC	??$_Erase_tree@V?$allocator@U?$_Tree_node@V?$basic_string@DU?$char_traits@D@std@@V?$allocator@D@2@@std@@PAX@std@@@std@@@?$_Tree_val@U?$_Tree_simple_types@V?$basic_string@DU?$char_traits@D@std@@V?$allocator@D@2@@std@@@std@@@std@@QAEXAAV?$allocator@U?$_Tree_node@V?$basic_string@DU?$char_traits@D@std@@V?$allocator@D@2@@std@@PAX@std@@@1@PAU?$_Tree_node@V?$basic_string@DU?$char_traits@D@std@@V?$allocator@D@2@@std@@PAX@1@@Z ; std::_Tree_val<std::_Tree_simple_types<std::basic_string<char,std::char_traits<char>,std::allocator<char> > > >::_Erase_tree<std::allocator<std::_Tree_node<std::basic_string<char,std::char_traits<char>,std::allocator<char> >,void *> > >
PUBLIC	??$_Find_lower_bound@H@?$_Tree@V?$_Tset_traits@HU?$less@H@std@@V?$allocator@H@2@$0A@@std@@@std@@IBE?AU?$_Tree_find_result@PAU?$_Tree_node@HPAX@std@@@1@ABH@Z ; std::_Tree<std::_Tset_traits<int,std::less<int>,std::allocator<int>,0> >::_Find_lower_bound<int>
PUBLIC	??$_Construct_in_place@PAU?$_Tree_node@U?$pair@$$CBKUSReserveTargetEffect@CPythonBackground@@@std@@PAX@std@@ABQAU12@@std@@YAXAAPAU?$_Tree_node@U?$pair@$$CBKUSReserveTargetEffect@CPythonBackground@@@std@@PAX@0@ABQAU10@@Z ; std::_Construct_in_place<std::_Tree_node<std::pair<unsigned long const ,CPythonBackground::SReserveTargetEffect>,void *> *,std::_Tree_node<std::pair<unsigned long const ,CPythonBackground::SReserveTargetEffect>,void *> * const &>
PUBLIC	??$_Construct_in_place@PAU?$_Tree_node@U?$pair@$$CBKK@std@@PAX@std@@ABQAU12@@std@@YAXAAPAU?$_Tree_node@U?$pair@$$CBKK@std@@PAX@0@ABQAU10@@Z ; std::_Construct_in_place<std::_Tree_node<std::pair<unsigned long const ,unsigned long>,void *> *,std::_Tree_node<std::pair<unsigned long const ,unsigned long>,void *> * const &>
PUBLIC	??$_Construct_in_place@PAU?$_Tree_node@V?$basic_string@DU?$char_traits@D@std@@V?$allocator@D@2@@std@@PAX@std@@ABQAU12@@std@@YAXAAPAU?$_Tree_node@V?$basic_string@DU?$char_traits@D@std@@V?$allocator@D@2@@std@@PAX@0@ABQAU10@@Z ; std::_Construct_in_place<std::_Tree_node<std::basic_string<char,std::char_traits<char>,std::allocator<char> >,void *> *,std::_Tree_node<std::basic_string<char,std::char_traits<char>,std::allocator<char> >,void *> * const &>
PUBLIC	??$_Construct_in_place@PAU?$_Tree_node@HPAX@std@@ABQAU12@@std@@YAXAAPAU?$_Tree_node@HPAX@0@ABQAU10@@Z ; std::_Construct_in_place<std::_Tree_node<int,void *> *,std::_Tree_node<int,void *> * const &>
PUBLIC	??$_Copy_nodes@U_Copy_tag@?$_Tree@V?$_Tset_traits@HU?$less@H@std@@V?$allocator@H@2@$0A@@std@@@std@@@?$_Tree@V?$_Tset_traits@HU?$less@H@std@@V?$allocator@H@2@$0A@@std@@@std@@IAEPAU?$_Tree_node@HPAX@1@PAU21@0U_Copy_tag@01@@Z ; std::_Tree<std::_Tset_traits<int,std::less<int>,std::allocator<int>,0> >::_Copy_nodes<std::_Tree<std::_Tset_traits<int,std::less<int>,std::allocator<int>,0> >::_Copy_tag>
PUBLIC	??$_Traits_equal@U?$char_traits@D@std@@@std@@YA_NQBDI0I@Z ; std::_Traits_equal<std::char_traits<char> >
PUBLIC	??1?$_Alloc_construct_ptr@V?$allocator@U?$_Tree_node@HPAX@std@@@std@@@std@@QAE@XZ ; std::_Alloc_construct_ptr<std::allocator<std::_Tree_node<int,void *> > >::~_Alloc_construct_ptr<std::allocator<std::_Tree_node<int,void *> > >
PUBLIC	??1?$_Alloc_construct_ptr@V?$allocator@U?$_Tree_node@V?$basic_string@DU?$char_traits@D@std@@V?$allocator@D@2@@std@@PAX@std@@@std@@@std@@QAE@XZ ; std::_Alloc_construct_ptr<std::allocator<std::_Tree_node<std::basic_string<char,std::char_traits<char>,std::allocator<char> >,void *> > >::~_Alloc_construct_ptr<std::allocator<std::_Tree_node<std::basic_string<char,std::char_traits<char>,std::allocator<char> >,void *> > >
PUBLIC	??$_Destroy_in_place@PAU?$_Tree_node@U?$pair@$$CBKUSReserveTargetEffect@CPythonBackground@@@std@@PAX@std@@@std@@YAXAAPAU?$_Tree_node@U?$pair@$$CBKUSReserveTargetEffect@CPythonBackground@@@std@@PAX@0@@Z ; std::_Destroy_in_place<std::_Tree_node<std::pair<unsigned long const ,CPythonBackground::SReserveTargetEffect>,void *> *>
PUBLIC	??$_Destroy_in_place@PAU?$_Tree_node@U?$pair@$$CBKK@std@@PAX@std@@@std@@YAXAAPAU?$_Tree_node@U?$pair@$$CBKK@std@@PAX@0@@Z ; std::_Destroy_in_place<std::_Tree_node<std::pair<unsigned long const ,unsigned long>,void *> *>
PUBLIC	??$_Destroy_in_place@PAU?$_Tree_node@V?$basic_string@DU?$char_traits@D@std@@V?$allocator@D@2@@std@@PAX@std@@@std@@YAXAAPAU?$_Tree_node@V?$basic_string@DU?$char_traits@D@std@@V?$allocator@D@2@@std@@PAX@0@@Z ; std::_Destroy_in_place<std::_Tree_node<std::basic_string<char,std::char_traits<char>,std::allocator<char> >,void *> *>
PUBLIC	??$_Destroy_in_place@PAU?$_Tree_node@HPAX@std@@@std@@YAXAAPAU?$_Tree_node@HPAX@0@@Z ; std::_Destroy_in_place<std::_Tree_node<int,void *> *>
PUBLIC	??$_Erase_tree_and_orphan@V?$allocator@U?$_Tree_node@HPAX@std@@@std@@@?$_Tree_val@U?$_Tree_simple_types@H@std@@@std@@QAEXAAV?$allocator@U?$_Tree_node@HPAX@std@@@1@PAU?$_Tree_node@HPAX@1@@Z ; std::_Tree_val<std::_Tree_simple_types<int> >::_Erase_tree_and_orphan<std::allocator<std::_Tree_node<int,void *> > >
PUBLIC	??$_Refancy@PAUTMapInfo@CMapManager@@$0A@@std@@YAPAUTMapInfo@CMapManager@@PAU12@@Z ; std::_Refancy<CMapManager::TMapInfo *,0>
PUBLIC	??$?MDU?$char_traits@D@std@@V?$allocator@D@1@@std@@YA_NABV?$basic_string@DU?$char_traits@D@std@@V?$allocator@D@2@@0@0@Z ; std::operator<<char,std::char_traits<char>,std::allocator<char> >
PUBLIC	??$_Construct_in_place@PAU?$_Tree_node@HPAX@std@@AAPAU12@@std@@YAXAAPAU?$_Tree_node@HPAX@0@0@Z ; std::_Construct_in_place<std::_Tree_node<int,void *> *,std::_Tree_node<int,void *> * &>
PUBLIC	??$_Construct_in_place@PAU?$_Tree_node@V?$basic_string@DU?$char_traits@D@std@@V?$allocator@D@2@@std@@PAX@std@@AAPAU12@@std@@YAXAAPAU?$_Tree_node@V?$basic_string@DU?$char_traits@D@std@@V?$allocator@D@2@@std@@PAX@0@0@Z ; std::_Construct_in_place<std::_Tree_node<std::basic_string<char,std::char_traits<char>,std::allocator<char> >,void *> *,std::_Tree_node<std::basic_string<char,std::char_traits<char>,std::allocator<char> >,void *> * &>
PUBLIC	??1?$_Alloc_construct_ptr@V?$allocator@U?$_Tree_node@U?$pair@$$CBKK@std@@PAX@std@@@std@@@std@@QAE@XZ ; std::_Alloc_construct_ptr<std::allocator<std::_Tree_node<std::pair<unsigned long const ,unsigned long>,void *> > >::~_Alloc_construct_ptr<std::allocator<std::_Tree_node<std::pair<unsigned long const ,unsigned long>,void *> > >
PUBLIC	??1?$_Alloc_construct_ptr@V?$allocator@U?$_Tree_node@U?$pair@$$CBKUSReserveTargetEffect@CPythonBackground@@@std@@PAX@std@@@std@@@std@@QAE@XZ ; std::_Alloc_construct_ptr<std::allocator<std::_Tree_node<std::pair<unsigned long const ,CPythonBackground::SReserveTargetEffect>,void *> > >::~_Alloc_construct_ptr<std::allocator<std::_Tree_node<std::pair<unsigned long const ,CPythonBackground::SReserveTargetEffect>,void *> > >
PUBLIC	??$_Construct_in_place@PAU?$_Tree_node@U?$pair@$$CBKK@std@@PAX@std@@AAPAU12@@std@@YAXAAPAU?$_Tree_node@U?$pair@$$CBKK@std@@PAX@0@0@Z ; std::_Construct_in_place<std::_Tree_node<std::pair<unsigned long const ,unsigned long>,void *> *,std::_Tree_node<std::pair<unsigned long const ,unsigned long>,void *> * &>
PUBLIC	??$_Construct_in_place@PAU?$_Tree_node@U?$pair@$$CBKUSReserveTargetEffect@CPythonBackground@@@std@@PAX@std@@AAPAU12@@std@@YAXAAPAU?$_Tree_node@U?$pair@$$CBKUSReserveTargetEffect@CPythonBackground@@@std@@PAX@0@0@Z ; std::_Construct_in_place<std::_Tree_node<std::pair<unsigned long const ,CPythonBackground::SReserveTargetEffect>,void *> *,std::_Tree_node<std::pair<unsigned long const ,CPythonBackground::SReserveTargetEffect>,void *> * &>
PUBLIC	??_ECPythonBackground@@W3AEPAXI@Z		; [thunk]:CPythonBackground::`vector deleting destructor'
PUBLIC	??_ECPythonBackground@@WBENM@AEPAXI@Z		; [thunk]:CPythonBackground::`vector deleting destructor'
PUBLIC	??_7exception@std@@6B@				; std::exception::`vftable'
PUBLIC	??_C@_0BC@EOODALEL@Unknown?5exception@		; `string'
PUBLIC	??_7bad_alloc@std@@6B@				; std::bad_alloc::`vftable'
PUBLIC	??_7bad_array_new_length@std@@6B@		; std::bad_array_new_length::`vftable'
PUBLIC	??_C@_0BF@KINCDENJ@bad?5array?5new?5length@	; `string'
PUBLIC	__TI3?AVbad_array_new_length@std@@
PUBLIC	__CTA3?AVbad_array_new_length@std@@
PUBLIC	??_R0?AVbad_array_new_length@std@@@8		; std::bad_array_new_length `RTTI Type Descriptor'
PUBLIC	__CT??_R0?AVbad_array_new_length@std@@@8??0bad_array_new_length@std@@QAE@ABV01@@Z12
PUBLIC	??_R0?AVbad_alloc@std@@@8			; std::bad_alloc `RTTI Type Descriptor'
PUBLIC	__CT??_R0?AVbad_alloc@std@@@8??0bad_alloc@std@@QAE@ABV01@@Z12
PUBLIC	??_R0?AVexception@std@@@8			; std::exception `RTTI Type Descriptor'
PUBLIC	__CT??_R0?AVexception@std@@@8??0exception@std@@QAE@ABV01@@Z12
PUBLIC	??_C@_0BA@JFNIOLAK@string?5too?5long@		; `string'
PUBLIC	??_C@_0BB@GCADKGJO@map?1set?5too?5long@		; `string'
PUBLIC	??_7SpherePackCallback@@6B@			; SpherePackCallback::`vftable'
PUBLIC	?ms_singleton@?$CSingleton@VCCullingManager@@@@0PAVCCullingManager@@A ; CSingleton<CCullingManager>::ms_singleton
PUBLIC	??_R4exception@std@@6B@				; std::exception::`RTTI Complete Object Locator'
PUBLIC	??_R3exception@std@@8				; std::exception::`RTTI Class Hierarchy Descriptor'
PUBLIC	??_R2exception@std@@8				; std::exception::`RTTI Base Class Array'
PUBLIC	??_R1A@?0A@EA@exception@std@@8			; std::exception::`RTTI Base Class Descriptor at (0,-1,0,64)'
PUBLIC	??_R4bad_alloc@std@@6B@				; std::bad_alloc::`RTTI Complete Object Locator'
PUBLIC	??_R3bad_alloc@std@@8				; std::bad_alloc::`RTTI Class Hierarchy Descriptor'
PUBLIC	??_R2bad_alloc@std@@8				; std::bad_alloc::`RTTI Base Class Array'
PUBLIC	??_R1A@?0A@EA@bad_alloc@std@@8			; std::bad_alloc::`RTTI Base Class Descriptor at (0,-1,0,64)'
PUBLIC	??_R4bad_array_new_length@std@@6B@		; std::bad_array_new_length::`RTTI Complete Object Locator'
PUBLIC	??_R3bad_array_new_length@std@@8		; std::bad_array_new_length::`RTTI Class Hierarchy Descriptor'
PUBLIC	??_R2bad_array_new_length@std@@8		; std::bad_array_new_length::`RTTI Base Class Array'
PUBLIC	??_R1A@?0A@EA@bad_array_new_length@std@@8	; std::bad_array_new_length::`RTTI Base Class Descriptor at (0,-1,0,64)'
PUBLIC	??_R4SpherePackCallback@@6B@			; SpherePackCallback::`RTTI Complete Object Locator'
PUBLIC	??_R0?AVSpherePackCallback@@@8			; SpherePackCallback `RTTI Type Descriptor'
PUBLIC	??_R3SpherePackCallback@@8			; SpherePackCallback::`RTTI Class Hierarchy Descriptor'
PUBLIC	??_R2SpherePackCallback@@8			; SpherePackCallback::`RTTI Base Class Array'
PUBLIC	??_R1A@?0A@EA@SpherePackCallback@@8		; SpherePackCallback::`RTTI Base Class Descriptor at (0,-1,0,64)'
PUBLIC	?ms_singleton@?$CSingleton@VCEterPackManager@@@@0PAVCEterPackManager@@A ; CSingleton<CEterPackManager>::ms_singleton
PUBLIC	?ms_singleton@?$CSingleton@VCPythonBackground@@@@0PAVCPythonBackground@@A ; CSingleton<CPythonBackground>::ms_singleton
PUBLIC	??_7?$CSingleton@VCPythonBackground@@@@6B@	; CSingleton<CPythonBackground>::`vftable'
PUBLIC	??_7CPythonBackground@@6BCScreen@@@		; CPythonBackground::`vftable'
PUBLIC	??_7CPythonBackground@@6BIPhysicsWorld@@@	; CPythonBackground::`vftable'
PUBLIC	??_7CPythonBackground@@6B@			; CPythonBackground::`vftable'
PUBLIC	?ms_kPool@?$CPooledObject@VCHeaderDecorator@NEffectUpdateDecorator@@@@1V?$CDynamicPoolEx@VCHeaderDecorator@NEffectUpdateDecorator@@@@A ; CPooledObject<NEffectUpdateDecorator::CHeaderDecorator>::ms_kPool
PUBLIC	?ms_kPool@?$CPooledObject@VCNullDecorator@NEffectUpdateDecorator@@@@1V?$CDynamicPoolEx@VCNullDecorator@NEffectUpdateDecorator@@@@A ; CPooledObject<NEffectUpdateDecorator::CNullDecorator>::ms_kPool
PUBLIC	?ms_kPool@?$CPooledObject@VCTextureAnimationCWDecorator@NEffectUpdateDecorator@@@@1V?$CDynamicPoolEx@VCTextureAnimationCWDecorator@NEffectUpdateDecorator@@@@A ; CPooledObject<NEffectUpdateDecorator::CTextureAnimationCWDecorator>::ms_kPool
PUBLIC	?ms_kPool@?$CPooledObject@VCTextureAnimationCCWDecorator@NEffectUpdateDecorator@@@@1V?$CDynamicPoolEx@VCTextureAnimationCCWDecorator@NEffectUpdateDecorator@@@@A ; CPooledObject<NEffectUpdateDecorator::CTextureAnimationCCWDecorator>::ms_kPool
PUBLIC	?ms_kPool@?$CPooledObject@VCTextureAnimationRandomDecorator@NEffectUpdateDecorator@@@@1V?$CDynamicPoolEx@VCTextureAnimationRandomDecorator@NEffectUpdateDecorator@@@@A ; CPooledObject<NEffectUpdateDecorator::CTextureAnimationRandomDecorator>::ms_kPool
PUBLIC	?ms_kPool@?$CPooledObject@VCAirResistanceDecorator@NEffectUpdateDecorator@@@@1V?$CDynamicPoolEx@VCAirResistanceDecorator@NEffectUpdateDecorator@@@@A ; CPooledObject<NEffectUpdateDecorator::CAirResistanceDecorator>::ms_kPool
PUBLIC	?ms_kPool@?$CPooledObject@VCGravityDecorator@NEffectUpdateDecorator@@@@1V?$CDynamicPoolEx@VCGravityDecorator@NEffectUpdateDecorator@@@@A ; CPooledObject<NEffectUpdateDecorator::CGravityDecorator>::ms_kPool
PUBLIC	?ms_kPool@?$CPooledObject@VCRotationDecorator@NEffectUpdateDecorator@@@@1V?$CDynamicPoolEx@VCRotationDecorator@NEffectUpdateDecorator@@@@A ; CPooledObject<NEffectUpdateDecorator::CRotationDecorator>::ms_kPool
PUBLIC	?ms_singleton@?$CSingleton@VCStateManager@@@@0PAVCStateManager@@A ; CSingleton<CStateManager>::ms_singleton
PUBLIC	?ms_singleton@?$CSingleton@VCPythonCharacterManager@@@@0PAVCPythonCharacterManager@@A ; CSingleton<CPythonCharacterManager>::ms_singleton
PUBLIC	?ms_singleton@?$CSingleton@VCPythonMiniMap@@@@0PAVCPythonMiniMap@@A ; CSingleton<CPythonMiniMap>::ms_singleton
PUBLIC	?ms_singleton@?$CSingleton@VCPythonSystem@@@@0PAVCPythonSystem@@A ; CSingleton<CPythonSystem>::ms_singleton
PUBLIC	?g_strEffectName@@3V?$basic_string@DU?$char_traits@D@std@@V?$allocator@D@2@@std@@A ; g_strEffectName
PUBLIC	??_C@_0FF@DMIGEFGG@CPythonBackground?3?3SelectViewDi@ ; `string'
PUBLIC	??_C@_0DE@ELMEDMBE@CPythonBackground?3?3GetFarClip?5m@ ; `string'
PUBLIC	??_C@_0BI@FJAIMBEC@CPythonBackground?5Clear@	; `string'
PUBLIC	??_C@_0P@NOGPLHFF@?1AtlasInfo?4txt@		; `string'
PUBLIC	??_C@_08EMBNBNLN@property@			; `string'
PUBLIC	??_C@_08MOOMJPBO@Property@			; `string'
PUBLIC	??_C@_03EMIMMIHL@?$CK?4?$CK@			; `string'
PUBLIC	??_C@_0O@NAMKDHJD@pack?1property@		; `string'
PUBLIC	??_C@_0CC@FDBLKFI@NOT_FOUND_GLOBAL_POSITION?$CI?$CFd?0?5?$CF@ ; `string'
PUBLIC	??_C@_0P@EOAEHOGM@map_n_snowm_01@		; `string'
PUBLIC	??_C@_0CF@PCFPEOFC@d?3?1ymir?5work?1tree?1christmastree@ ; `string'
PUBLIC	??_C@_0CF@HEMLDMPM@d?3?1ymir?5work?1tree?1christmastree@ ; `string'
PUBLIC	??_C@_0CF@LPJHOPFJ@d?3?1ymir?5work?1tree?1christmastree@ ; `string'
PUBLIC	??_C@_0DD@NHFFJCJH@d?3?1ymir?5work?1effect?1etc?1christm@ ; `string'
PUBLIC	??_C@_0DD@OGLNIIAK@d?3?1ymir?5work?1effect?1etc?1christm@ ; `string'
PUBLIC	??_C@_0DD@EAMKIDLO@d?3?1ymir?5work?1effect?1etc?1christm@ ; `string'
PUBLIC	??_7?$RangeTester@UFGetPortalID@@@@6B@		; RangeTester<FGetPortalID>::`vftable'
PUBLIC	??_7?$RangeTester@UCollisionAdjustChecker@@@@6B@ ; RangeTester<CollisionAdjustChecker>::`vftable'
PUBLIC	??_7?$RangeTester@UCollisionChecker@@@@6B@	; RangeTester<CollisionChecker>::`vftable'
PUBLIC	??_R1A@?0A@EA@CScreen@@8			; CScreen::`RTTI Base Class Descriptor at (0,-1,0,64)'
PUBLIC	??_R0?AVCScreen@@@8				; CScreen `RTTI Type Descriptor'
PUBLIC	??_R3CScreen@@8					; CScreen::`RTTI Class Hierarchy Descriptor'
PUBLIC	??_R2CScreen@@8					; CScreen::`RTTI Base Class Array'
PUBLIC	??_R1A@?0A@EA@CGraphicCollisionObject@@8	; CGraphicCollisionObject::`RTTI Base Class Descriptor at (0,-1,0,64)'
PUBLIC	??_R0?AVCGraphicCollisionObject@@@8		; CGraphicCollisionObject `RTTI Type Descriptor'
PUBLIC	??_R3CGraphicCollisionObject@@8			; CGraphicCollisionObject::`RTTI Class Hierarchy Descriptor'
PUBLIC	??_R2CGraphicCollisionObject@@8			; CGraphicCollisionObject::`RTTI Base Class Array'
PUBLIC	??_R1A@?0A@EA@CGraphicBase@@8			; CGraphicBase::`RTTI Base Class Descriptor at (0,-1,0,64)'
PUBLIC	??_R0?AVCGraphicBase@@@8			; CGraphicBase `RTTI Type Descriptor'
PUBLIC	??_R3CGraphicBase@@8				; CGraphicBase::`RTTI Class Hierarchy Descriptor'
PUBLIC	??_R2CGraphicBase@@8				; CGraphicBase::`RTTI Base Class Array'
PUBLIC	??_R0?AVIPhysicsWorld@@@8			; IPhysicsWorld `RTTI Type Descriptor'
PUBLIC	??_R3IPhysicsWorld@@8				; IPhysicsWorld::`RTTI Class Hierarchy Descriptor'
PUBLIC	??_R2IPhysicsWorld@@8				; IPhysicsWorld::`RTTI Base Class Array'
PUBLIC	??_R1A@?0A@EA@IPhysicsWorld@@8			; IPhysicsWorld::`RTTI Base Class Descriptor at (0,-1,0,64)'
PUBLIC	??_R4CPythonBackground@@6BCScreen@@@		; CPythonBackground::`RTTI Complete Object Locator'
PUBLIC	??_R0?AVCPythonBackground@@@8			; CPythonBackground `RTTI Type Descriptor'
PUBLIC	??_R3CPythonBackground@@8			; CPythonBackground::`RTTI Class Hierarchy Descriptor'
PUBLIC	??_R2CPythonBackground@@8			; CPythonBackground::`RTTI Base Class Array'
PUBLIC	??_R1A@?0A@EA@CPythonBackground@@8		; CPythonBackground::`RTTI Base Class Descriptor at (0,-1,0,64)'
PUBLIC	??_R1A@?0A@EA@CMapManager@@8			; CMapManager::`RTTI Base Class Descriptor at (0,-1,0,64)'
PUBLIC	??_R0?AVCMapManager@@@8				; CMapManager `RTTI Type Descriptor'
PUBLIC	??_R3CMapManager@@8				; CMapManager::`RTTI Class Hierarchy Descriptor'
PUBLIC	??_R2CMapManager@@8				; CMapManager::`RTTI Base Class Array'
PUBLIC	??_R13?0A@EA@IPhysicsWorld@@8			; IPhysicsWorld::`RTTI Base Class Descriptor at (4,-1,0,64)'
PUBLIC	??_R1BENM@?0A@EA@?$CSingleton@VCPythonBackground@@@@8 ; CSingleton<CPythonBackground>::`RTTI Base Class Descriptor at (5340,-1,0,64)'
PUBLIC	??_R0?AV?$CSingleton@VCPythonBackground@@@@@8	; CSingleton<CPythonBackground> `RTTI Type Descriptor'
PUBLIC	??_R3?$CSingleton@VCPythonBackground@@@@8	; CSingleton<CPythonBackground>::`RTTI Class Hierarchy Descriptor'
PUBLIC	??_R2?$CSingleton@VCPythonBackground@@@@8	; CSingleton<CPythonBackground>::`RTTI Base Class Array'
PUBLIC	??_R1A@?0A@EA@?$CSingleton@VCPythonBackground@@@@8 ; CSingleton<CPythonBackground>::`RTTI Base Class Descriptor at (0,-1,0,64)'
PUBLIC	??_R4CPythonBackground@@6BIPhysicsWorld@@@	; CPythonBackground::`RTTI Complete Object Locator'
PUBLIC	??_R4CPythonBackground@@6B@			; CPythonBackground::`RTTI Complete Object Locator'
PUBLIC	??_R4?$CSingleton@VCPythonBackground@@@@6B@	; CSingleton<CPythonBackground>::`RTTI Complete Object Locator'
PUBLIC	??_R4?$RangeTester@UFGetPortalID@@@@6B@		; RangeTester<FGetPortalID>::`RTTI Complete Object Locator'
PUBLIC	??_R0?AU?$RangeTester@UFGetPortalID@@@@@8	; RangeTester<FGetPortalID> `RTTI Type Descriptor'
PUBLIC	??_R3?$RangeTester@UFGetPortalID@@@@8		; RangeTester<FGetPortalID>::`RTTI Class Hierarchy Descriptor'
PUBLIC	??_R2?$RangeTester@UFGetPortalID@@@@8		; RangeTester<FGetPortalID>::`RTTI Base Class Array'
PUBLIC	??_R1A@?0A@EA@?$RangeTester@UFGetPortalID@@@@8	; RangeTester<FGetPortalID>::`RTTI Base Class Descriptor at (0,-1,0,64)'
PUBLIC	??_R4?$RangeTester@UCollisionAdjustChecker@@@@6B@ ; RangeTester<CollisionAdjustChecker>::`RTTI Complete Object Locator'
PUBLIC	??_R0?AU?$RangeTester@UCollisionAdjustChecker@@@@@8 ; RangeTester<CollisionAdjustChecker> `RTTI Type Descriptor'
PUBLIC	??_R3?$RangeTester@UCollisionAdjustChecker@@@@8	; RangeTester<CollisionAdjustChecker>::`RTTI Class Hierarchy Descriptor'
PUBLIC	??_R2?$RangeTester@UCollisionAdjustChecker@@@@8	; RangeTester<CollisionAdjustChecker>::`RTTI Base Class Array'
PUBLIC	??_R1A@?0A@EA@?$RangeTester@UCollisionAdjustChecker@@@@8 ; RangeTester<CollisionAdjustChecker>::`RTTI Base Class Descriptor at (0,-1,0,64)'
PUBLIC	??_R4?$RangeTester@UCollisionChecker@@@@6B@	; RangeTester<CollisionChecker>::`RTTI Complete Object Locator'
PUBLIC	??_R0?AU?$RangeTester@UCollisionChecker@@@@@8	; RangeTester<CollisionChecker> `RTTI Type Descriptor'
PUBLIC	??_R3?$RangeTester@UCollisionChecker@@@@8	; RangeTester<CollisionChecker>::`RTTI Class Hierarchy Descriptor'
PUBLIC	??_R2?$RangeTester@UCollisionChecker@@@@8	; RangeTester<CollisionChecker>::`RTTI Base Class Array'
PUBLIC	??_R1A@?0A@EA@?$RangeTester@UCollisionChecker@@@@8 ; RangeTester<CollisionChecker>::`RTTI Base Class Descriptor at (0,-1,0,64)'
PUBLIC	__real@00000000
PUBLIC	__real@3f000000
PUBLIC	__real@3f19999a
PUBLIC	__real@3f333333
PUBLIC	__real@47435000
PUBLIC	__xmm@41f00000000000000000000000000000
PUBLIC	__xmm@80000000800000008000000080000000
EXTRN	??_M@YGXPAXIIP6EX0@Z@Z:PROC			; `eh vector destructor iterator'
EXTRN	??2@YAPAXI@Z:PROC				; operator new
EXTRN	??3@YAXPAX@Z:PROC				; operator delete
EXTRN	??3@YAXPAXI@Z:PROC				; operator delete
EXTRN	_atexit:PROC
EXTRN	__Init_thread_header:PROC
EXTRN	__Init_thread_footer:PROC
EXTRN	__invalid_parameter_noinfo_noreturn:PROC
EXTRN	__imp__PostQuitMessage@4:PROC
EXTRN	___std_exception_copy:PROC
EXTRN	___std_exception_destroy:PROC
EXTRN	??_Eexception@std@@UAEPAXI@Z:PROC		; std::exception::`vector deleting destructor'
EXTRN	??_Ebad_alloc@std@@UAEPAXI@Z:PROC		; std::bad_alloc::`vector deleting destructor'
EXTRN	??_Ebad_array_new_length@std@@UAEPAXI@Z:PROC	; std::bad_array_new_length::`vector deleting destructor'
EXTRN	?_Xlength_error@std@@YAXPBD@Z:PROC		; std::_Xlength_error
EXTRN	?Tracen@@YAXPBD@Z:PROC				; Tracen
EXTRN	?TraceError@@YAXPBDZZ:PROC			; TraceError
EXTRN	__access:PROC
EXTRN	?ELTimer_GetMSec@@YAKXZ:PROC			; ELTimer_GetMSec
EXTRN	??_ESpherePackCallback@@UAEPAXI@Z:PROC		; SpherePackCallback::`vector deleting destructor'
EXTRN	?RayTrace@SpherePackFactory@@QAEXABVVector3d@@0PAVSpherePackCallback@@@Z:PROC ; SpherePackFactory::RayTrace
EXTRN	?RangeTest@SpherePackFactory@@QAEXABVVector3d@@MPAVSpherePackCallback@@@Z:PROC ; SpherePackFactory::RangeTest
EXTRN	?GetPortal@CGraphicObjectInstance@@QAEHK@Z:PROC	; CGraphicObjectInstance::GetPortal
EXTRN	?LocaleService_GetLocalePath@@YAPBDXZ:PROC	; LocaleService_GetLocalePath
EXTRN	?GetSearchMode@CEterPackManager@@QAEHXZ:PROC	; CEterPackManager::GetSearchMode
EXTRN	?Render@CMapBase@@QAEXXZ:PROC			; CMapBase::Render
EXTRN	?SetVisiblePart@CMapOutdoor@@QAEXH_N@Z:PROC	; CMapOutdoor::SetVisiblePart
EXTRN	?SetSplatLimit@CMapOutdoor@@QAEXH@Z:PROC	; CMapOutdoor::SetSplatLimit
EXTRN	?SetEnvironmentSkyBox@CMapOutdoor@@QAEXXZ:PROC	; CMapOutdoor::SetEnvironmentSkyBox
EXTRN	?CreateCharacterShadowTexture@CMapOutdoor@@QAEXXZ:PROC ; CMapOutdoor::CreateCharacterShadowTexture
EXTRN	?ReleaseCharacterShadowTexture@CMapOutdoor@@QAEXXZ:PROC ; CMapOutdoor::ReleaseCharacterShadowTexture
EXTRN	?SetShadowTextureSize@CMapOutdoor@@QAEXG@Z:PROC	; CMapOutdoor::SetShadowTextureSize
EXTRN	?BeginRenderCharacterShadowToTexture@CMapOutdoor@@QAE_NXZ:PROC ; CMapOutdoor::BeginRenderCharacterShadowToTexture
EXTRN	?EndRenderCharacterShadowToTexture@CMapOutdoor@@QAEXXZ:PROC ; CMapOutdoor::EndRenderCharacterShadowToTexture
EXTRN	?RenderWater@CMapOutdoor@@QAEXXZ:PROC		; CMapOutdoor::RenderWater
EXTRN	?RenderMarkedArea@CMapOutdoor@@QAEXXZ:PROC	; CMapOutdoor::RenderMarkedArea
EXTRN	?ClearGuildArea@CMapOutdoor@@QAEXXZ:PROC	; CMapOutdoor::ClearGuildArea
EXTRN	?RegisterGuildArea@CMapOutdoor@@QAEXHHHH@Z:PROC	; CMapOutdoor::RegisterGuildArea
EXTRN	?VisibleMarkedArea@CMapOutdoor@@QAEXXZ:PROC	; CMapOutdoor::VisibleMarkedArea
EXTRN	?DisableMarkedArea@CMapOutdoor@@QAEXXZ:PROC	; CMapOutdoor::DisableMarkedArea
EXTRN	?RenderCollision@CMapOutdoor@@QAEXXZ:PROC	; CMapOutdoor::RenderCollision
EXTRN	?RenderSky@CMapOutdoor@@QAEXXZ:PROC		; CMapOutdoor::RenderSky
EXTRN	?RenderCloud@CMapOutdoor@@QAEXXZ:PROC		; CMapOutdoor::RenderCloud
EXTRN	?RenderBeforeLensFlare@CMapOutdoor@@QAEXXZ:PROC	; CMapOutdoor::RenderBeforeLensFlare
EXTRN	?RenderAfterLensFlare@CMapOutdoor@@QAEXXZ:PROC	; CMapOutdoor::RenderAfterLensFlare
EXTRN	?GetPickingPointWithRay@CMapOutdoor@@QAE_NABVCRay@@PAUD3DXVECTOR3@@@Z:PROC ; CMapOutdoor::GetPickingPointWithRay
EXTRN	?GetPickingPointWithRayOnlyTerrain@CMapOutdoor@@QAE_NABVCRay@@PAUD3DXVECTOR3@@@Z:PROC ; CMapOutdoor::GetPickingPointWithRayOnlyTerrain
EXTRN	?GetPickingPoint@CMapOutdoor@@QAE_NPAUD3DXVECTOR3@@@Z:PROC ; CMapOutdoor::GetPickingPoint
EXTRN	?SetDrawShadow@CMapOutdoor@@QAEX_N@Z:PROC	; CMapOutdoor::SetDrawShadow
EXTRN	?SetDrawCharacterShadow@CMapOutdoor@@QAEX_N@Z:PROC ; CMapOutdoor::SetDrawCharacterShadow
EXTRN	?RenderEffect@CMapOutdoor@@QAEXXZ:PROC		; CMapOutdoor::RenderEffect
EXTRN	?RenderPCBlocker@CMapOutdoor@@QAEXXZ:PROC	; CMapOutdoor::RenderPCBlocker
EXTRN	?GetBaseXY@CMapOutdoor@@QAEXPAK0@Z:PROC		; CMapOutdoor::GetBaseXY
EXTRN	?EnablePortal@CMapOutdoor@@QAEX_N@Z:PROC	; CMapOutdoor::EnablePortal
EXTRN	?XMasTree_Destroy@CMapOutdoor@@QAEXXZ:PROC	; CMapOutdoor::XMasTree_Destroy
EXTRN	?XMasTree_Set@CMapOutdoor@@QAEXMMMPBD0@Z:PROC	; CMapOutdoor::XMasTree_Set
EXTRN	?SpecialEffect_Create@CMapOutdoor@@QAEXKMMMPBD@Z:PROC ; CMapOutdoor::SpecialEffect_Create
EXTRN	?SpecialEffect_Delete@CMapOutdoor@@QAEXK@Z:PROC	; CMapOutdoor::SpecialEffect_Delete
EXTRN	?Create@CDir@@QAE_NPBD0H@Z:PROC			; CDir::Create
EXTRN	??0CPropertyLoader@@QAE@XZ:PROC			; CPropertyLoader::CPropertyLoader
EXTRN	??1CPropertyLoader@@UAE@XZ:PROC			; CPropertyLoader::~CPropertyLoader
EXTRN	?SetPropertyManager@CPropertyLoader@@QAEXPAVCPropertyManager@@@Z:PROC ; CPropertyLoader::SetPropertyManager
EXTRN	?Initialize@CPropertyManager@@QAE_NPBD@Z:PROC	; CPropertyManager::Initialize
EXTRN	??0CMapManager@@QAE@XZ:PROC			; CMapManager::CMapManager
EXTRN	??1CMapManager@@UAE@XZ:PROC			; CMapManager::~CMapManager
EXTRN	?GetMapOutdoorRef@CMapManager@@QAEAAVCMapOutdoor@@XZ:PROC ; CMapManager::GetMapOutdoorRef
EXTRN	?Initialize@CMapManager@@QAEXXZ:PROC		; CMapManager::Initialize
EXTRN	?Destroy@CMapManager@@QAEXXZ:PROC		; CMapManager::Destroy
EXTRN	?Create@CMapManager@@QAEXXZ:PROC		; CMapManager::Create
EXTRN	?Clear@CMapManager@@UAEXXZ:PROC			; CMapManager::Clear
EXTRN	?AllocMap@CMapManager@@UAEPAVCMapBase@@XZ:PROC	; CMapManager::AllocMap
EXTRN	?IsMapReady@CMapManager@@QAE_NXZ:PROC		; CMapManager::IsMapReady
EXTRN	?LoadMap@CMapManager@@UAE_NABV?$basic_string@DU?$char_traits@D@std@@V?$allocator@D@2@@std@@MMM@Z:PROC ; CMapManager::LoadMap
EXTRN	?UpdateMap@CMapManager@@QAE_NMMM@Z:PROC		; CMapManager::UpdateMap
EXTRN	?UpdateAroundAmbience@CMapManager@@QAEXMMM@Z:PROC ; CMapManager::UpdateAroundAmbience
EXTRN	?RefreshPortal@CMapManager@@QAEXXZ:PROC		; CMapManager::RefreshPortal
EXTRN	?ClearPortal@CMapManager@@QAEXXZ:PROC		; CMapManager::ClearPortal
EXTRN	?AddShowingPortalID@CMapManager@@QAEXH@Z:PROC	; CMapManager::AddShowingPortalID
EXTRN	?isPhysicalCollision@CMapManager@@UAE_NABUD3DXVECTOR3@@@Z:PROC ; CMapManager::isPhysicalCollision
EXTRN	??0CSnowEnvironment@@QAE@XZ:PROC		; CSnowEnvironment::CSnowEnvironment
EXTRN	??1CSnowEnvironment@@UAE@XZ:PROC		; CSnowEnvironment::~CSnowEnvironment
EXTRN	?Create@CSnowEnvironment@@QAE_NXZ:PROC		; CSnowEnvironment::Create
EXTRN	?Destroy@CSnowEnvironment@@QAEXXZ:PROC		; CSnowEnvironment::Destroy
EXTRN	?Enable@CSnowEnvironment@@QAEXXZ:PROC		; CSnowEnvironment::Enable
EXTRN	?Disable@CSnowEnvironment@@QAEXXZ:PROC		; CSnowEnvironment::Disable
EXTRN	?Update@CSnowEnvironment@@QAEXABUD3DXVECTOR3@@@Z:PROC ; CSnowEnvironment::Update
EXTRN	?Deform@CSnowEnvironment@@QAEXXZ:PROC		; CSnowEnvironment::Deform
EXTRN	?Render@CSnowEnvironment@@QAEXXZ:PROC		; CSnowEnvironment::Render
EXTRN	??_E?$CSingleton@VCPythonBackground@@@@UAEPAXI@Z:PROC ; CSingleton<CPythonBackground>::`vector deleting destructor'
EXTRN	??_ECPythonBackground@@UAEPAXI@Z:PROC		; CPythonBackground::`vector deleting destructor'
EXTRN	?SetLight@CStateManager@@QAEXKPBU_D3DLIGHT8@@@Z:PROC ; CStateManager::SetLight
EXTRN	?SetTransform@CStateManager@@QAEXW4_D3DTRANSFORMSTATETYPE@@PBU_D3DMATRIX@@@Z:PROC ; CStateManager::SetTransform
EXTRN	?GetTransform@CStateManager@@QAEXW4_D3DTRANSFORMSTATETYPE@@PAU_D3DMATRIX@@@Z:PROC ; CStateManager::GetTransform
EXTRN	?NEW_MoveToDestPixelPositionDirection@CInstanceBase@@QAE_NABUD3DXVECTOR3@@@Z:PROC ; CInstanceBase::NEW_MoveToDestPixelPositionDirection
EXTRN	?AvoidObject@CInstanceBase@@QAE_NABVCGraphicObjectInstance@@@Z:PROC ; CInstanceBase::AvoidObject
EXTRN	?IsBlockObject@CInstanceBase@@QAE_NABVCGraphicObjectInstance@@@Z:PROC ; CInstanceBase::IsBlockObject
EXTRN	?BlockMovement@CInstanceBase@@QAEXXZ:PROC	; CInstanceBase::BlockMovement
EXTRN	?NEW_GetPixelPosition@CInstanceBase@@QAEXPAUD3DXVECTOR3@@@Z:PROC ; CInstanceBase::NEW_GetPixelPosition
EXTRN	?GetGraphicThingInstanceRef@CInstanceBase@@QAEAAVCActorInstance@@XZ:PROC ; CInstanceBase::GetGraphicThingInstanceRef
EXTRN	?NEW_GetDstPixelPositionRef@CInstanceBase@@QAEABUD3DXVECTOR3@@XZ:PROC ; CInstanceBase::NEW_GetDstPixelPositionRef
EXTRN	?RenderShadowMainInstance@CPythonCharacterManager@@QAEXXZ:PROC ; CPythonCharacterManager::RenderShadowMainInstance
EXTRN	?RenderShadowAllInstances@CPythonCharacterManager@@QAEXXZ:PROC ; CPythonCharacterManager::RenderShadowAllInstances
EXTRN	?LoadAtlas@CPythonMiniMap@@QAE_NXZ:PROC		; CPythonMiniMap::LoadAtlas
EXTRN	?GetShadowLevel@CPythonSystem@@QAEHXZ:PROC	; CPythonSystem::GetShadowLevel
EXTRN	??_E?$RangeTester@UFGetPortalID@@@@UAEPAXI@Z:PROC ; RangeTester<FGetPortalID>::`vector deleting destructor'
EXTRN	??_E?$RangeTester@UCollisionAdjustChecker@@@@UAEPAXI@Z:PROC ; RangeTester<CollisionAdjustChecker>::`vector deleting destructor'
EXTRN	??_E?$RangeTester@UCollisionChecker@@@@UAEPAXI@Z:PROC ; RangeTester<CollisionChecker>::`vector deleting destructor'
EXTRN	@__security_check_cookie@4:PROC
EXTRN	__CxxThrowException@8:PROC
EXTRN	___CxxFrameHandler3:PROC
EXTRN	_memcpy:PROC
EXTRN	_memmove:PROC
EXTRN	__Init_thread_epoch:DWORD
EXTRN	?GRAPHICS_CAPS_CAN_NOT_DRAW_SHADOW@@3_NA:BYTE	; GRAPHICS_CAPS_CAN_NOT_DRAW_SHADOW
EXTRN	___security_cookie:DWORD
EXTRN	__fltused:DWORD
EXTRN	__tls_array:DWORD
EXTRN	__tls_index:DWORD
;	COMDAT ?ms_singleton@?$CSingleton@VCCullingManager@@@@0PAVCCullingManager@@A
_BSS	SEGMENT
?ms_singleton@?$CSingleton@VCCullingManager@@@@0PAVCCullingManager@@A DD 01H DUP (?) ; CSingleton<CCullingManager>::ms_singleton
_BSS	ENDS
;	COMDAT ?ms_singleton@?$CSingleton@VCEterPackManager@@@@0PAVCEterPackManager@@A
_BSS	SEGMENT
?ms_singleton@?$CSingleton@VCEterPackManager@@@@0PAVCEterPackManager@@A DD 01H DUP (?) ; CSingleton<CEterPackManager>::ms_singleton
_BSS	ENDS
;	COMDAT ?ms_singleton@?$CSingleton@VCPythonBackground@@@@0PAVCPythonBackground@@A
_BSS	SEGMENT
?ms_singleton@?$CSingleton@VCPythonBackground@@@@0PAVCPythonBackground@@A DD 01H DUP (?) ; CSingleton<CPythonBackground>::ms_singleton
_BSS	ENDS
;	COMDAT ?ms_singleton@?$CSingleton@VCStateManager@@@@0PAVCStateManager@@A
_BSS	SEGMENT
?ms_singleton@?$CSingleton@VCStateManager@@@@0PAVCStateManager@@A DD 01H DUP (?) ; CSingleton<CStateManager>::ms_singleton
_BSS	ENDS
;	COMDAT ?ms_singleton@?$CSingleton@VCPythonCharacterManager@@@@0PAVCPythonCharacterManager@@A
_BSS	SEGMENT
?ms_singleton@?$CSingleton@VCPythonCharacterManager@@@@0PAVCPythonCharacterManager@@A DD 01H DUP (?) ; CSingleton<CPythonCharacterManager>::ms_singleton
_BSS	ENDS
;	COMDAT ?ms_singleton@?$CSingleton@VCPythonMiniMap@@@@0PAVCPythonMiniMap@@A
_BSS	SEGMENT
?ms_singleton@?$CSingleton@VCPythonMiniMap@@@@0PAVCPythonMiniMap@@A DD 01H DUP (?) ; CSingleton<CPythonMiniMap>::ms_singleton
_BSS	ENDS
;	COMDAT ?ms_singleton@?$CSingleton@VCPythonSystem@@@@0PAVCPythonSystem@@A
_BSS	SEGMENT
?ms_singleton@?$CSingleton@VCPythonSystem@@@@0PAVCPythonSystem@@A DD 01H DUP (?) ; CSingleton<CPythonSystem>::ms_singleton
_BSS	ENDS
;	COMDAT ?s_isCreateProperty@?1??Create@CPythonBackground@@QAEXXZ@4HA
_BSS	SEGMENT
?s_isCreateProperty@?1??Create@CPythonBackground@@QAEXXZ@4HA DD 01H DUP (?) ; `CPythonBackground::Create'::`2'::s_isCreateProperty
_BSS	ENDS
;	COMDAT ?$TSS0@?1??SetXMaxTree@CPythonBackground@@QAEXH@Z@4HA
_BSS	SEGMENT
?$TSS0@?1??SetXMaxTree@CPythonBackground@@QAEXH@Z@4HA DD 01H DUP (?) ; `CPythonBackground::SetXMaxTree'::`2'::$TSS0
_BSS	ENDS
;	COMDAT ?$TSS1@?1??SetXMaxTree@CPythonBackground@@QAEXH@Z@4HA
_BSS	SEGMENT
?$TSS1@?1??SetXMaxTree@CPythonBackground@@QAEXH@Z@4HA DD 01H DUP (?) ; `CPythonBackground::SetXMaxTree'::`2'::$TSS1
_BSS	ENDS
CRT$XCU	SEGMENT
?g_strEffectName$initializer$@@3P6AXXZA DD FLAT:??__Eg_strEffectName@@YAXXZ ; g_strEffectName$initializer$
CRT$XCU	ENDS
;	COMDAT __xmm@80000000800000008000000080000000
CONST	SEGMENT
__xmm@80000000800000008000000080000000 DB 00H, 00H, 00H, 080H, 00H, 00H, 00H
	DB	080H, 00H, 00H, 00H, 080H, 00H, 00H, 00H, 080H
CONST	ENDS
;	COMDAT __xmm@41f00000000000000000000000000000
CONST	SEGMENT
__xmm@41f00000000000000000000000000000 DB 00H, 00H, 00H, 00H, 00H, 00H, 00H
	DB	00H, 00H, 00H, 00H, 00H, 00H, 00H, 0f0H, 'A'
CONST	ENDS
;	COMDAT __real@47435000
CONST	SEGMENT
__real@47435000 DD 047435000r			; 50000
CONST	ENDS
;	COMDAT __real@3f333333
CONST	SEGMENT
__real@3f333333 DD 03f333333r			; 0.7
CONST	ENDS
;	COMDAT __real@3f19999a
CONST	SEGMENT
__real@3f19999a DD 03f19999ar			; 0.6
CONST	ENDS
;	COMDAT __real@3f000000
CONST	SEGMENT
__real@3f000000 DD 03f000000r			; 0.5
CONST	ENDS
;	COMDAT __real@00000000
CONST	SEGMENT
__real@00000000 DD 000000000r			; 0
CONST	ENDS
;	COMDAT ??_R1A@?0A@EA@?$RangeTester@UCollisionChecker@@@@8
rdata$r	SEGMENT
??_R1A@?0A@EA@?$RangeTester@UCollisionChecker@@@@8 DD FLAT:??_R0?AU?$RangeTester@UCollisionChecker@@@@@8 ; RangeTester<CollisionChecker>::`RTTI Base Class Descriptor at (0,-1,0,64)'
	DD	01H
	DD	00H
	DD	0ffffffffH
	DD	00H
	DD	040H
	DD	FLAT:??_R3?$RangeTester@UCollisionChecker@@@@8
rdata$r	ENDS
;	COMDAT ??_R2?$RangeTester@UCollisionChecker@@@@8
rdata$r	SEGMENT
??_R2?$RangeTester@UCollisionChecker@@@@8 DD FLAT:??_R1A@?0A@EA@?$RangeTester@UCollisionChecker@@@@8 ; RangeTester<CollisionChecker>::`RTTI Base Class Array'
	DD	FLAT:??_R1A@?0A@EA@SpherePackCallback@@8
rdata$r	ENDS
;	COMDAT ??_R3?$RangeTester@UCollisionChecker@@@@8
rdata$r	SEGMENT
??_R3?$RangeTester@UCollisionChecker@@@@8 DD 00H	; RangeTester<CollisionChecker>::`RTTI Class Hierarchy Descriptor'
	DD	00H
	DD	02H
	DD	FLAT:??_R2?$RangeTester@UCollisionChecker@@@@8
rdata$r	ENDS
;	COMDAT ??_R0?AU?$RangeTester@UCollisionChecker@@@@@8
data$rs	SEGMENT
??_R0?AU?$RangeTester@UCollisionChecker@@@@@8 DD FLAT:??_7type_info@@6B@ ; RangeTester<CollisionChecker> `RTTI Type Descriptor'
	DD	00H
	DB	'.?AU?$RangeTester@UCollisionChecker@@@@', 00H
data$rs	ENDS
;	COMDAT ??_R4?$RangeTester@UCollisionChecker@@@@6B@
rdata$r	SEGMENT
??_R4?$RangeTester@UCollisionChecker@@@@6B@ DD 00H	; RangeTester<CollisionChecker>::`RTTI Complete Object Locator'
	DD	00H
	DD	00H
	DD	FLAT:??_R0?AU?$RangeTester@UCollisionChecker@@@@@8
	DD	FLAT:??_R3?$RangeTester@UCollisionChecker@@@@8
rdata$r	ENDS
;	COMDAT ??_R1A@?0A@EA@?$RangeTester@UCollisionAdjustChecker@@@@8
rdata$r	SEGMENT
??_R1A@?0A@EA@?$RangeTester@UCollisionAdjustChecker@@@@8 DD FLAT:??_R0?AU?$RangeTester@UCollisionAdjustChecker@@@@@8 ; RangeTester<CollisionAdjustChecker>::`RTTI Base Class Descriptor at (0,-1,0,64)'
	DD	01H
	DD	00H
	DD	0ffffffffH
	DD	00H
	DD	040H
	DD	FLAT:??_R3?$RangeTester@UCollisionAdjustChecker@@@@8
rdata$r	ENDS
;	COMDAT ??_R2?$RangeTester@UCollisionAdjustChecker@@@@8
rdata$r	SEGMENT
??_R2?$RangeTester@UCollisionAdjustChecker@@@@8 DD FLAT:??_R1A@?0A@EA@?$RangeTester@UCollisionAdjustChecker@@@@8 ; RangeTester<CollisionAdjustChecker>::`RTTI Base Class Array'
	DD	FLAT:??_R1A@?0A@EA@SpherePackCallback@@8
rdata$r	ENDS
;	COMDAT ??_R3?$RangeTester@UCollisionAdjustChecker@@@@8
rdata$r	SEGMENT
??_R3?$RangeTester@UCollisionAdjustChecker@@@@8 DD 00H	; RangeTester<CollisionAdjustChecker>::`RTTI Class Hierarchy Descriptor'
	DD	00H
	DD	02H
	DD	FLAT:??_R2?$RangeTester@UCollisionAdjustChecker@@@@8
rdata$r	ENDS
;	COMDAT ??_R0?AU?$RangeTester@UCollisionAdjustChecker@@@@@8
data$rs	SEGMENT
??_R0?AU?$RangeTester@UCollisionAdjustChecker@@@@@8 DD FLAT:??_7type_info@@6B@ ; RangeTester<CollisionAdjustChecker> `RTTI Type Descriptor'
	DD	00H
	DB	'.?AU?$RangeTester@UCollisionAdjustChecker@@@@', 00H
data$rs	ENDS
;	COMDAT ??_R4?$RangeTester@UCollisionAdjustChecker@@@@6B@
rdata$r	SEGMENT
??_R4?$RangeTester@UCollisionAdjustChecker@@@@6B@ DD 00H ; RangeTester<CollisionAdjustChecker>::`RTTI Complete Object Locator'
	DD	00H
	DD	00H
	DD	FLAT:??_R0?AU?$RangeTester@UCollisionAdjustChecker@@@@@8
	DD	FLAT:??_R3?$RangeTester@UCollisionAdjustChecker@@@@8
rdata$r	ENDS
;	COMDAT ??_R1A@?0A@EA@?$RangeTester@UFGetPortalID@@@@8
rdata$r	SEGMENT
??_R1A@?0A@EA@?$RangeTester@UFGetPortalID@@@@8 DD FLAT:??_R0?AU?$RangeTester@UFGetPortalID@@@@@8 ; RangeTester<FGetPortalID>::`RTTI Base Class Descriptor at (0,-1,0,64)'
	DD	01H
	DD	00H
	DD	0ffffffffH
	DD	00H
	DD	040H
	DD	FLAT:??_R3?$RangeTester@UFGetPortalID@@@@8
rdata$r	ENDS
;	COMDAT ??_R2?$RangeTester@UFGetPortalID@@@@8
rdata$r	SEGMENT
??_R2?$RangeTester@UFGetPortalID@@@@8 DD FLAT:??_R1A@?0A@EA@?$RangeTester@UFGetPortalID@@@@8 ; RangeTester<FGetPortalID>::`RTTI Base Class Array'
	DD	FLAT:??_R1A@?0A@EA@SpherePackCallback@@8
rdata$r	ENDS
;	COMDAT ??_R3?$RangeTester@UFGetPortalID@@@@8
rdata$r	SEGMENT
??_R3?$RangeTester@UFGetPortalID@@@@8 DD 00H		; RangeTester<FGetPortalID>::`RTTI Class Hierarchy Descriptor'
	DD	00H
	DD	02H
	DD	FLAT:??_R2?$RangeTester@UFGetPortalID@@@@8
rdata$r	ENDS
;	COMDAT ??_R0?AU?$RangeTester@UFGetPortalID@@@@@8
data$rs	SEGMENT
??_R0?AU?$RangeTester@UFGetPortalID@@@@@8 DD FLAT:??_7type_info@@6B@ ; RangeTester<FGetPortalID> `RTTI Type Descriptor'
	DD	00H
	DB	'.?AU?$RangeTester@UFGetPortalID@@@@', 00H
data$rs	ENDS
;	COMDAT ??_R4?$RangeTester@UFGetPortalID@@@@6B@
rdata$r	SEGMENT
??_R4?$RangeTester@UFGetPortalID@@@@6B@ DD 00H		; RangeTester<FGetPortalID>::`RTTI Complete Object Locator'
	DD	00H
	DD	00H
	DD	FLAT:??_R0?AU?$RangeTester@UFGetPortalID@@@@@8
	DD	FLAT:??_R3?$RangeTester@UFGetPortalID@@@@8
rdata$r	ENDS
;	COMDAT ??_R4?$CSingleton@VCPythonBackground@@@@6B@
rdata$r	SEGMENT
??_R4?$CSingleton@VCPythonBackground@@@@6B@ DD 00H	; CSingleton<CPythonBackground>::`RTTI Complete Object Locator'
	DD	00H
	DD	00H
	DD	FLAT:??_R0?AV?$CSingleton@VCPythonBackground@@@@@8
	DD	FLAT:??_R3?$CSingleton@VCPythonBackground@@@@8
rdata$r	ENDS
;	COMDAT ??_R4CPythonBackground@@6B@
rdata$r	SEGMENT
??_R4CPythonBackground@@6B@ DD 00H			; CPythonBackground::`RTTI Complete Object Locator'
	DD	014dcH
	DD	00H
	DD	FLAT:??_R0?AVCPythonBackground@@@8
	DD	FLAT:??_R3CPythonBackground@@8
rdata$r	ENDS
;	COMDAT ??_R4CPythonBackground@@6BIPhysicsWorld@@@
rdata$r	SEGMENT
??_R4CPythonBackground@@6BIPhysicsWorld@@@ DD 00H	; CPythonBackground::`RTTI Complete Object Locator'
	DD	04H
	DD	00H
	DD	FLAT:??_R0?AVCPythonBackground@@@8
	DD	FLAT:??_R3CPythonBackground@@8
rdata$r	ENDS
;	COMDAT ??_R1A@?0A@EA@?$CSingleton@VCPythonBackground@@@@8
rdata$r	SEGMENT
??_R1A@?0A@EA@?$CSingleton@VCPythonBackground@@@@8 DD FLAT:??_R0?AV?$CSingleton@VCPythonBackground@@@@@8 ; CSingleton<CPythonBackground>::`RTTI Base Class Descriptor at (0,-1,0,64)'
	DD	00H
	DD	00H
	DD	0ffffffffH
	DD	00H
	DD	040H
	DD	FLAT:??_R3?$CSingleton@VCPythonBackground@@@@8
rdata$r	ENDS
;	COMDAT ??_R2?$CSingleton@VCPythonBackground@@@@8
rdata$r	SEGMENT
??_R2?$CSingleton@VCPythonBackground@@@@8 DD FLAT:??_R1A@?0A@EA@?$CSingleton@VCPythonBackground@@@@8 ; CSingleton<CPythonBackground>::`RTTI Base Class Array'
rdata$r	ENDS
;	COMDAT ??_R3?$CSingleton@VCPythonBackground@@@@8
rdata$r	SEGMENT
??_R3?$CSingleton@VCPythonBackground@@@@8 DD 00H	; CSingleton<CPythonBackground>::`RTTI Class Hierarchy Descriptor'
	DD	00H
	DD	01H
	DD	FLAT:??_R2?$CSingleton@VCPythonBackground@@@@8
rdata$r	ENDS
;	COMDAT ??_R0?AV?$CSingleton@VCPythonBackground@@@@@8
data$rs	SEGMENT
??_R0?AV?$CSingleton@VCPythonBackground@@@@@8 DD FLAT:??_7type_info@@6B@ ; CSingleton<CPythonBackground> `RTTI Type Descriptor'
	DD	00H
	DB	'.?AV?$CSingleton@VCPythonBackground@@@@', 00H
data$rs	ENDS
;	COMDAT ??_R1BENM@?0A@EA@?$CSingleton@VCPythonBackground@@@@8
rdata$r	SEGMENT
??_R1BENM@?0A@EA@?$CSingleton@VCPythonBackground@@@@8 DD FLAT:??_R0?AV?$CSingleton@VCPythonBackground@@@@@8 ; CSingleton<CPythonBackground>::`RTTI Base Class Descriptor at (5340,-1,0,64)'
	DD	00H
	DD	014dcH
	DD	0ffffffffH
	DD	00H
	DD	040H
	DD	FLAT:??_R3?$CSingleton@VCPythonBackground@@@@8
rdata$r	ENDS
;	COMDAT ??_R13?0A@EA@IPhysicsWorld@@8
rdata$r	SEGMENT
??_R13?0A@EA@IPhysicsWorld@@8 DD FLAT:??_R0?AVIPhysicsWorld@@@8 ; IPhysicsWorld::`RTTI Base Class Descriptor at (4,-1,0,64)'
	DD	00H
	DD	04H
	DD	0ffffffffH
	DD	00H
	DD	040H
	DD	FLAT:??_R3IPhysicsWorld@@8
rdata$r	ENDS
;	COMDAT ??_R2CMapManager@@8
rdata$r	SEGMENT
??_R2CMapManager@@8 DD FLAT:??_R1A@?0A@EA@CMapManager@@8 ; CMapManager::`RTTI Base Class Array'
	DD	FLAT:??_R1A@?0A@EA@CScreen@@8
	DD	FLAT:??_R1A@?0A@EA@CGraphicCollisionObject@@8
	DD	FLAT:??_R1A@?0A@EA@CGraphicBase@@8
	DD	FLAT:??_R13?0A@EA@IPhysicsWorld@@8
rdata$r	ENDS
;	COMDAT ??_R3CMapManager@@8
rdata$r	SEGMENT
??_R3CMapManager@@8 DD 00H				; CMapManager::`RTTI Class Hierarchy Descriptor'
	DD	01H
	DD	05H
	DD	FLAT:??_R2CMapManager@@8
rdata$r	ENDS
;	COMDAT ??_R0?AVCMapManager@@@8
data$rs	SEGMENT
??_R0?AVCMapManager@@@8 DD FLAT:??_7type_info@@6B@	; CMapManager `RTTI Type Descriptor'
	DD	00H
	DB	'.?AVCMapManager@@', 00H
data$rs	ENDS
;	COMDAT ??_R1A@?0A@EA@CMapManager@@8
rdata$r	SEGMENT
??_R1A@?0A@EA@CMapManager@@8 DD FLAT:??_R0?AVCMapManager@@@8 ; CMapManager::`RTTI Base Class Descriptor at (0,-1,0,64)'
	DD	04H
	DD	00H
	DD	0ffffffffH
	DD	00H
	DD	040H
	DD	FLAT:??_R3CMapManager@@8
rdata$r	ENDS
;	COMDAT ??_R1A@?0A@EA@CPythonBackground@@8
rdata$r	SEGMENT
??_R1A@?0A@EA@CPythonBackground@@8 DD FLAT:??_R0?AVCPythonBackground@@@8 ; CPythonBackground::`RTTI Base Class Descriptor at (0,-1,0,64)'
	DD	06H
	DD	00H
	DD	0ffffffffH
	DD	00H
	DD	040H
	DD	FLAT:??_R3CPythonBackground@@8
rdata$r	ENDS
;	COMDAT ??_R2CPythonBackground@@8
rdata$r	SEGMENT
??_R2CPythonBackground@@8 DD FLAT:??_R1A@?0A@EA@CPythonBackground@@8 ; CPythonBackground::`RTTI Base Class Array'
	DD	FLAT:??_R1A@?0A@EA@CMapManager@@8
	DD	FLAT:??_R1A@?0A@EA@CScreen@@8
	DD	FLAT:??_R1A@?0A@EA@CGraphicCollisionObject@@8
	DD	FLAT:??_R1A@?0A@EA@CGraphicBase@@8
	DD	FLAT:??_R13?0A@EA@IPhysicsWorld@@8
	DD	FLAT:??_R1BENM@?0A@EA@?$CSingleton@VCPythonBackground@@@@8
rdata$r	ENDS
;	COMDAT ??_R3CPythonBackground@@8
rdata$r	SEGMENT
??_R3CPythonBackground@@8 DD 00H			; CPythonBackground::`RTTI Class Hierarchy Descriptor'
	DD	01H
	DD	07H
	DD	FLAT:??_R2CPythonBackground@@8
rdata$r	ENDS
;	COMDAT ??_R0?AVCPythonBackground@@@8
data$rs	SEGMENT
??_R0?AVCPythonBackground@@@8 DD FLAT:??_7type_info@@6B@ ; CPythonBackground `RTTI Type Descriptor'
	DD	00H
	DB	'.?AVCPythonBackground@@', 00H
data$rs	ENDS
;	COMDAT ??_R4CPythonBackground@@6BCScreen@@@
rdata$r	SEGMENT
??_R4CPythonBackground@@6BCScreen@@@ DD 00H		; CPythonBackground::`RTTI Complete Object Locator'
	DD	00H
	DD	00H
	DD	FLAT:??_R0?AVCPythonBackground@@@8
	DD	FLAT:??_R3CPythonBackground@@8
rdata$r	ENDS
;	COMDAT ??_R1A@?0A@EA@IPhysicsWorld@@8
rdata$r	SEGMENT
??_R1A@?0A@EA@IPhysicsWorld@@8 DD FLAT:??_R0?AVIPhysicsWorld@@@8 ; IPhysicsWorld::`RTTI Base Class Descriptor at (0,-1,0,64)'
	DD	00H
	DD	00H
	DD	0ffffffffH
	DD	00H
	DD	040H
	DD	FLAT:??_R3IPhysicsWorld@@8
rdata$r	ENDS
;	COMDAT ??_R2IPhysicsWorld@@8
rdata$r	SEGMENT
??_R2IPhysicsWorld@@8 DD FLAT:??_R1A@?0A@EA@IPhysicsWorld@@8 ; IPhysicsWorld::`RTTI Base Class Array'
rdata$r	ENDS
;	COMDAT ??_R3IPhysicsWorld@@8
rdata$r	SEGMENT
??_R3IPhysicsWorld@@8 DD 00H				; IPhysicsWorld::`RTTI Class Hierarchy Descriptor'
	DD	00H
	DD	01H
	DD	FLAT:??_R2IPhysicsWorld@@8
rdata$r	ENDS
;	COMDAT ??_R0?AVIPhysicsWorld@@@8
data$rs	SEGMENT
??_R0?AVIPhysicsWorld@@@8 DD FLAT:??_7type_info@@6B@	; IPhysicsWorld `RTTI Type Descriptor'
	DD	00H
	DB	'.?AVIPhysicsWorld@@', 00H
data$rs	ENDS
;	COMDAT ??_R2CGraphicBase@@8
rdata$r	SEGMENT
??_R2CGraphicBase@@8 DD FLAT:??_R1A@?0A@EA@CGraphicBase@@8 ; CGraphicBase::`RTTI Base Class Array'
rdata$r	ENDS
;	COMDAT ??_R3CGraphicBase@@8
rdata$r	SEGMENT
??_R3CGraphicBase@@8 DD 00H				; CGraphicBase::`RTTI Class Hierarchy Descriptor'
	DD	00H
	DD	01H
	DD	FLAT:??_R2CGraphicBase@@8
rdata$r	ENDS
;	COMDAT ??_R0?AVCGraphicBase@@@8
data$rs	SEGMENT
??_R0?AVCGraphicBase@@@8 DD FLAT:??_7type_info@@6B@	; CGraphicBase `RTTI Type Descriptor'
	DD	00H
	DB	'.?AVCGraphicBase@@', 00H
data$rs	ENDS
;	COMDAT ??_R1A@?0A@EA@CGraphicBase@@8
rdata$r	SEGMENT
??_R1A@?0A@EA@CGraphicBase@@8 DD FLAT:??_R0?AVCGraphicBase@@@8 ; CGraphicBase::`RTTI Base Class Descriptor at (0,-1,0,64)'
	DD	00H
	DD	00H
	DD	0ffffffffH
	DD	00H
	DD	040H
	DD	FLAT:??_R3CGraphicBase@@8
rdata$r	ENDS
;	COMDAT ??_R2CGraphicCollisionObject@@8
rdata$r	SEGMENT
??_R2CGraphicCollisionObject@@8 DD FLAT:??_R1A@?0A@EA@CGraphicCollisionObject@@8 ; CGraphicCollisionObject::`RTTI Base Class Array'
	DD	FLAT:??_R1A@?0A@EA@CGraphicBase@@8
rdata$r	ENDS
;	COMDAT ??_R3CGraphicCollisionObject@@8
rdata$r	SEGMENT
??_R3CGraphicCollisionObject@@8 DD 00H			; CGraphicCollisionObject::`RTTI Class Hierarchy Descriptor'
	DD	00H
	DD	02H
	DD	FLAT:??_R2CGraphicCollisionObject@@8
rdata$r	ENDS
;	COMDAT ??_R0?AVCGraphicCollisionObject@@@8
data$rs	SEGMENT
??_R0?AVCGraphicCollisionObject@@@8 DD FLAT:??_7type_info@@6B@ ; CGraphicCollisionObject `RTTI Type Descriptor'
	DD	00H
	DB	'.?AVCGraphicCollisionObject@@', 00H
data$rs	ENDS
;	COMDAT ??_R1A@?0A@EA@CGraphicCollisionObject@@8
rdata$r	SEGMENT
??_R1A@?0A@EA@CGraphicCollisionObject@@8 DD FLAT:??_R0?AVCGraphicCollisionObject@@@8 ; CGraphicCollisionObject::`RTTI Base Class Descriptor at (0,-1,0,64)'
	DD	01H
	DD	00H
	DD	0ffffffffH
	DD	00H
	DD	040H
	DD	FLAT:??_R3CGraphicCollisionObject@@8
rdata$r	ENDS
;	COMDAT ??_R2CScreen@@8
rdata$r	SEGMENT
??_R2CScreen@@8 DD FLAT:??_R1A@?0A@EA@CScreen@@8	; CScreen::`RTTI Base Class Array'
	DD	FLAT:??_R1A@?0A@EA@CGraphicCollisionObject@@8
	DD	FLAT:??_R1A@?0A@EA@CGraphicBase@@8
rdata$r	ENDS
;	COMDAT ??_R3CScreen@@8
rdata$r	SEGMENT
??_R3CScreen@@8 DD 00H					; CScreen::`RTTI Class Hierarchy Descriptor'
	DD	00H
	DD	03H
	DD	FLAT:??_R2CScreen@@8
rdata$r	ENDS
;	COMDAT ??_R0?AVCScreen@@@8
data$rs	SEGMENT
??_R0?AVCScreen@@@8 DD FLAT:??_7type_info@@6B@		; CScreen `RTTI Type Descriptor'
	DD	00H
	DB	'.?AVCScreen@@', 00H
data$rs	ENDS
;	COMDAT ??_R1A@?0A@EA@CScreen@@8
rdata$r	SEGMENT
??_R1A@?0A@EA@CScreen@@8 DD FLAT:??_R0?AVCScreen@@@8	; CScreen::`RTTI Base Class Descriptor at (0,-1,0,64)'
	DD	02H
	DD	00H
	DD	0ffffffffH
	DD	00H
	DD	040H
	DD	FLAT:??_R3CScreen@@8
rdata$r	ENDS
;	COMDAT ??_7?$RangeTester@UCollisionChecker@@@@6B@
CONST	SEGMENT
??_7?$RangeTester@UCollisionChecker@@@@6B@ DD FLAT:??_R4?$RangeTester@UCollisionChecker@@@@6B@ ; RangeTester<CollisionChecker>::`vftable'
	DD	FLAT:??_E?$RangeTester@UCollisionChecker@@@@UAEPAXI@Z
	DD	FLAT:?VisibilityCallback@?$RangeTester@UCollisionChecker@@@@UAEXABVFrustum@@PAVSpherePack@@W4ViewState@@@Z
	DD	FLAT:?RayTraceCallback@?$RangeTester@UCollisionChecker@@@@UAEXABVVector3d@@0M0PAVSpherePack@@@Z
	DD	FLAT:?RangeTestCallback@?$RangeTester@UCollisionChecker@@@@UAEXABVVector3d@@MPAVSpherePack@@W4ViewState@@@Z
	DD	FLAT:?PointTest2dCallback@?$RangeTester@UCollisionChecker@@@@UAEXABVVector3d@@PAVSpherePack@@W4ViewState@@@Z
CONST	ENDS
;	COMDAT ??_7?$RangeTester@UCollisionAdjustChecker@@@@6B@
CONST	SEGMENT
??_7?$RangeTester@UCollisionAdjustChecker@@@@6B@ DD FLAT:??_R4?$RangeTester@UCollisionAdjustChecker@@@@6B@ ; RangeTester<CollisionAdjustChecker>::`vftable'
	DD	FLAT:??_E?$RangeTester@UCollisionAdjustChecker@@@@UAEPAXI@Z
	DD	FLAT:?VisibilityCallback@?$RangeTester@UCollisionAdjustChecker@@@@UAEXABVFrustum@@PAVSpherePack@@W4ViewState@@@Z
	DD	FLAT:?RayTraceCallback@?$RangeTester@UCollisionAdjustChecker@@@@UAEXABVVector3d@@0M0PAVSpherePack@@@Z
	DD	FLAT:?RangeTestCallback@?$RangeTester@UCollisionAdjustChecker@@@@UAEXABVVector3d@@MPAVSpherePack@@W4ViewState@@@Z
	DD	FLAT:?PointTest2dCallback@?$RangeTester@UCollisionAdjustChecker@@@@UAEXABVVector3d@@PAVSpherePack@@W4ViewState@@@Z
CONST	ENDS
;	COMDAT ??_7?$RangeTester@UFGetPortalID@@@@6B@
CONST	SEGMENT
??_7?$RangeTester@UFGetPortalID@@@@6B@ DD FLAT:??_R4?$RangeTester@UFGetPortalID@@@@6B@ ; RangeTester<FGetPortalID>::`vftable'
	DD	FLAT:??_E?$RangeTester@UFGetPortalID@@@@UAEPAXI@Z
	DD	FLAT:?VisibilityCallback@?$RangeTester@UFGetPortalID@@@@UAEXABVFrustum@@PAVSpherePack@@W4ViewState@@@Z
	DD	FLAT:?RayTraceCallback@?$RangeTester@UFGetPortalID@@@@UAEXABVVector3d@@0M0PAVSpherePack@@@Z
	DD	FLAT:?RangeTestCallback@?$RangeTester@UFGetPortalID@@@@UAEXABVVector3d@@MPAVSpherePack@@W4ViewState@@@Z
	DD	FLAT:?PointTest2dCallback@?$RangeTester@UFGetPortalID@@@@UAEXABVVector3d@@PAVSpherePack@@W4ViewState@@@Z
CONST	ENDS
;	COMDAT ??_C@_0DD@EAMKIDLO@d?3?1ymir?5work?1effect?1etc?1christm@
CONST	SEGMENT
??_C@_0DD@EAMKIDLO@d?3?1ymir?5work?1effect?1etc?1christm@ DB 'd:/ymir wor'
	DB	'k/effect/etc/christmas_tree/tree_3s.mse', 00H ; `string'
CONST	ENDS
;	COMDAT ??_C@_0DD@OGLNIIAK@d?3?1ymir?5work?1effect?1etc?1christm@
CONST	SEGMENT
??_C@_0DD@OGLNIIAK@d?3?1ymir?5work?1effect?1etc?1christm@ DB 'd:/ymir wor'
	DB	'k/effect/etc/christmas_tree/tree_2s.mse', 00H ; `string'
CONST	ENDS
;	COMDAT ??_C@_0DD@NHFFJCJH@d?3?1ymir?5work?1effect?1etc?1christm@
CONST	SEGMENT
??_C@_0DD@NHFFJCJH@d?3?1ymir?5work?1effect?1etc?1christm@ DB 'd:/ymir wor'
	DB	'k/effect/etc/christmas_tree/tree_1s.mse', 00H ; `string'
CONST	ENDS
;	COMDAT ??_C@_0CF@LPJHOPFJ@d?3?1ymir?5work?1tree?1christmastree@
CONST	SEGMENT
??_C@_0CF@LPJHOPFJ@d?3?1ymir?5work?1tree?1christmastree@ DB 'd:/ymir work'
	DB	'/tree/christmastree3.spt', 00H		; `string'
CONST	ENDS
;	COMDAT ??_C@_0CF@HEMLDMPM@d?3?1ymir?5work?1tree?1christmastree@
CONST	SEGMENT
??_C@_0CF@HEMLDMPM@d?3?1ymir?5work?1tree?1christmastree@ DB 'd:/ymir work'
	DB	'/tree/christmastree2.spt', 00H		; `string'
CONST	ENDS
;	COMDAT ??_C@_0CF@PCFPEOFC@d?3?1ymir?5work?1tree?1christmastree@
CONST	SEGMENT
??_C@_0CF@PCFPEOFC@d?3?1ymir?5work?1tree?1christmastree@ DB 'd:/ymir work'
	DB	'/tree/christmastree1.spt', 00H		; `string'
CONST	ENDS
;	COMDAT ??_C@_0P@EOAEHOGM@map_n_snowm_01@
CONST	SEGMENT
??_C@_0P@EOAEHOGM@map_n_snowm_01@ DB 'map_n_snowm_01', 00H ; `string'
CONST	ENDS
;	COMDAT ?s_strEffectName@?1??SetXMaxTree@CPythonBackground@@QAEXH@Z@4PAV?$basic_string@DU?$char_traits@D@std@@V?$allocator@D@2@@std@@A
_DATA	SEGMENT
?s_strEffectName@?1??SetXMaxTree@CPythonBackground@@QAEXH@Z@4PAV?$basic_string@DU?$char_traits@D@std@@V?$allocator@D@2@@std@@A DB 00H ; `CPythonBackground::SetXMaxTree'::`2'::s_strEffectName
	DB	19 DUP(00H)
	DD	0fH
_DATA	ENDS
;	COMDAT ?s_strTreeName@?1??SetXMaxTree@CPythonBackground@@QAEXH@Z@4PAV?$basic_string@DU?$char_traits@D@std@@V?$allocator@D@2@@std@@A
_DATA	SEGMENT
?s_strTreeName@?1??SetXMaxTree@CPythonBackground@@QAEXH@Z@4PAV?$basic_string@DU?$char_traits@D@std@@V?$allocator@D@2@@std@@A DB 00H ; `CPythonBackground::SetXMaxTree'::`2'::s_strTreeName
	DB	19 DUP(00H)
	DD	0fH
_DATA	ENDS
;	COMDAT ??_C@_0CC@FDBLKFI@NOT_FOUND_GLOBAL_POSITION?$CI?$CFd?0?5?$CF@
CONST	SEGMENT
??_C@_0CC@FDBLKFI@NOT_FOUND_GLOBAL_POSITION?$CI?$CFd?0?5?$CF@ DB 'NOT_FOU'
	DB	'ND_GLOBAL_POSITION(%d, %d)', 00H		; `string'
CONST	ENDS
;	COMDAT ??_C@_0O@NAMKDHJD@pack?1property@
CONST	SEGMENT
??_C@_0O@NAMKDHJD@pack?1property@ DB 'pack/property', 00H ; `string'
CONST	ENDS
;	COMDAT ??_C@_03EMIMMIHL@?$CK?4?$CK@
CONST	SEGMENT
??_C@_03EMIMMIHL@?$CK?4?$CK@ DB '*.*', 00H		; `string'
CONST	ENDS
;	COMDAT ??_C@_08MOOMJPBO@Property@
CONST	SEGMENT
??_C@_08MOOMJPBO@Property@ DB 'Property', 00H		; `string'
CONST	ENDS
;	COMDAT ??_C@_08EMBNBNLN@property@
CONST	SEGMENT
??_C@_08EMBNBNLN@property@ DB 'property', 00H		; `string'
CONST	ENDS
;	COMDAT ??_C@_0P@NOGPLHFF@?1AtlasInfo?4txt@
CONST	SEGMENT
??_C@_0P@NOGPLHFF@?1AtlasInfo?4txt@ DB '/AtlasInfo.txt', 00H ; `string'
CONST	ENDS
;	COMDAT ??_C@_0BI@FJAIMBEC@CPythonBackground?5Clear@
CONST	SEGMENT
??_C@_0BI@FJAIMBEC@CPythonBackground?5Clear@ DB 'CPythonBackground Clear', 00H ; `string'
CONST	ENDS
;	COMDAT ??_C@_0DE@ELMEDMBE@CPythonBackground?3?3GetFarClip?5m@
CONST	SEGMENT
??_C@_0DE@ELMEDMBE@CPythonBackground?3?3GetFarClip?5m@ DB 'CPythonBackgro'
	DB	'und::GetFarClip m_eViewDistanceNum=%d', 00H	; `string'
CONST	ENDS
;	COMDAT ??_C@_0FF@DMIGEFGG@CPythonBackground?3?3SelectViewDi@
CONST	SEGMENT
??_C@_0FF@DMIGEFGG@CPythonBackground?3?3SelectViewDi@ DB 'CPythonBackgrou'
	DB	'nd::SelectViewDistanceNum(int eNum=%d) mc_pcurEnvironmentData'
	DB	' is NULL', 00H				; `string'
CONST	ENDS
_DATA	SEGMENT
?g_strEffectName@@3V?$basic_string@DU?$char_traits@D@std@@V?$allocator@D@2@@std@@A DB 00H ; g_strEffectName
	DB	19 DUP(00H)
	DD	0fH
?c_v3TreePos@@3UD3DXVECTOR3@@B DD 047956a00r	; 76500	; c_v3TreePos
	DD	0c76de400r			; -60900
	DD	0469dee00r			; 20215
_DATA	ENDS
;	COMDAT ?ms_kPool@?$CPooledObject@VCRotationDecorator@NEffectUpdateDecorator@@@@1V?$CDynamicPoolEx@VCRotationDecorator@NEffectUpdateDecorator@@@@A
_DATA	SEGMENT
?ms_kPool@?$CPooledObject@VCRotationDecorator@NEffectUpdateDecorator@@@@1V?$CDynamicPoolEx@VCRotationDecorator@NEffectUpdateDecorator@@@@A DD FLAT:??_7?$CDynamicPoolEx@VCRotationDecorator@NEffectUpdateDecorator@@@@6B@ ; CPooledObject<NEffectUpdateDecorator::CRotationDecorator>::ms_kPool
	DD	00H
	DD	00H
	DD	00H
	DD	00H
	DD	00H
	DD	00H
	DD	00H
	DD	00H
_DATA	ENDS
;	COMDAT ?ms_kPool@?$CPooledObject@VCGravityDecorator@NEffectUpdateDecorator@@@@1V?$CDynamicPoolEx@VCGravityDecorator@NEffectUpdateDecorator@@@@A
_DATA	SEGMENT
?ms_kPool@?$CPooledObject@VCGravityDecorator@NEffectUpdateDecorator@@@@1V?$CDynamicPoolEx@VCGravityDecorator@NEffectUpdateDecorator@@@@A DD FLAT:??_7?$CDynamicPoolEx@VCGravityDecorator@NEffectUpdateDecorator@@@@6B@ ; CPooledObject<NEffectUpdateDecorator::CGravityDecorator>::ms_kPool
	DD	00H
	DD	00H
	DD	00H
	DD	00H
	DD	00H
	DD	00H
	DD	00H
	DD	00H
_DATA	ENDS
;	COMDAT ?ms_kPool@?$CPooledObject@VCAirResistanceDecorator@NEffectUpdateDecorator@@@@1V?$CDynamicPoolEx@VCAirResistanceDecorator@NEffectUpdateDecorator@@@@A
_DATA	SEGMENT
?ms_kPool@?$CPooledObject@VCAirResistanceDecorator@NEffectUpdateDecorator@@@@1V?$CDynamicPoolEx@VCAirResistanceDecorator@NEffectUpdateDecorator@@@@A DD FLAT:??_7?$CDynamicPoolEx@VCAirResistanceDecorator@NEffectUpdateDecorator@@@@6B@ ; CPooledObject<NEffectUpdateDecorator::CAirResistanceDecorator>::ms_kPool
	DD	00H
	DD	00H
	DD	00H
	DD	00H
	DD	00H
	DD	00H
	DD	00H
	DD	00H
_DATA	ENDS
;	COMDAT ?ms_kPool@?$CPooledObject@VCTextureAnimationRandomDecorator@NEffectUpdateDecorator@@@@1V?$CDynamicPoolEx@VCTextureAnimationRandomDecorator@NEffectUpdateDecorator@@@@A
_DATA	SEGMENT
?ms_kPool@?$CPooledObject@VCTextureAnimationRandomDecorator@NEffectUpdateDecorator@@@@1V?$CDynamicPoolEx@VCTextureAnimationRandomDecorator@NEffectUpdateDecorator@@@@A DD FLAT:??_7?$CDynamicPoolEx@VCTextureAnimationRandomDecorator@NEffectUpdateDecorator@@@@6B@ ; CPooledObject<NEffectUpdateDecorator::CTextureAnimationRandomDecorator>::ms_kPool
	DD	00H
	DD	00H
	DD	00H
	DD	00H
	DD	00H
	DD	00H
	DD	00H
	DD	00H
_DATA	ENDS
;	COMDAT ?ms_kPool@?$CPooledObject@VCTextureAnimationCCWDecorator@NEffectUpdateDecorator@@@@1V?$CDynamicPoolEx@VCTextureAnimationCCWDecorator@NEffectUpdateDecorator@@@@A
_DATA	SEGMENT
?ms_kPool@?$CPooledObject@VCTextureAnimationCCWDecorator@NEffectUpdateDecorator@@@@1V?$CDynamicPoolEx@VCTextureAnimationCCWDecorator@NEffectUpdateDecorator@@@@A DD FLAT:??_7?$CDynamicPoolEx@VCTextureAnimationCCWDecorator@NEffectUpdateDecorator@@@@6B@ ; CPooledObject<NEffectUpdateDecorator::CTextureAnimationCCWDecorator>::ms_kPool
	DD	00H
	DD	00H
	DD	00H
	DD	00H
	DD	00H
	DD	00H
	DD	00H
	DD	00H
_DATA	ENDS
;	COMDAT ?ms_kPool@?$CPooledObject@VCTextureAnimationCWDecorator@NEffectUpdateDecorator@@@@1V?$CDynamicPoolEx@VCTextureAnimationCWDecorator@NEffectUpdateDecorator@@@@A
_DATA	SEGMENT
?ms_kPool@?$CPooledObject@VCTextureAnimationCWDecorator@NEffectUpdateDecorator@@@@1V?$CDynamicPoolEx@VCTextureAnimationCWDecorator@NEffectUpdateDecorator@@@@A DD FLAT:??_7?$CDynamicPoolEx@VCTextureAnimationCWDecorator@NEffectUpdateDecorator@@@@6B@ ; CPooledObject<NEffectUpdateDecorator::CTextureAnimationCWDecorator>::ms_kPool
	DD	00H
	DD	00H
	DD	00H
	DD	00H
	DD	00H
	DD	00H
	DD	00H
	DD	00H
_DATA	ENDS
;	COMDAT ?ms_kPool@?$CPooledObject@VCNullDecorator@NEffectUpdateDecorator@@@@1V?$CDynamicPoolEx@VCNullDecorator@NEffectUpdateDecorator@@@@A
_DATA	SEGMENT
?ms_kPool@?$CPooledObject@VCNullDecorator@NEffectUpdateDecorator@@@@1V?$CDynamicPoolEx@VCNullDecorator@NEffectUpdateDecorator@@@@A DD FLAT:??_7?$CDynamicPoolEx@VCNullDecorator@NEffectUpdateDecorator@@@@6B@ ; CPooledObject<NEffectUpdateDecorator::CNullDecorator>::ms_kPool
	DD	00H
	DD	00H
	DD	00H
	DD	00H
	DD	00H
	DD	00H
	DD	00H
	DD	00H
_DATA	ENDS
;	COMDAT ?ms_kPool@?$CPooledObject@VCHeaderDecorator@NEffectUpdateDecorator@@@@1V?$CDynamicPoolEx@VCHeaderDecorator@NEffectUpdateDecorator@@@@A
_DATA	SEGMENT
?ms_kPool@?$CPooledObject@VCHeaderDecorator@NEffectUpdateDecorator@@@@1V?$CDynamicPoolEx@VCHeaderDecorator@NEffectUpdateDecorator@@@@A DD FLAT:??_7?$CDynamicPoolEx@VCHeaderDecorator@NEffectUpdateDecorator@@@@6B@ ; CPooledObject<NEffectUpdateDecorator::CHeaderDecorator>::ms_kPool
	DD	00H
	DD	00H
	DD	00H
	DD	00H
	DD	00H
	DD	00H
	DD	00H
	DD	00H
_DATA	ENDS
;	COMDAT ??_7CPythonBackground@@6B@
CONST	SEGMENT
??_7CPythonBackground@@6B@ DD FLAT:??_R4CPythonBackground@@6B@ ; CPythonBackground::`vftable'
	DD	FLAT:??_ECPythonBackground@@WBENM@AEPAXI@Z
CONST	ENDS
;	COMDAT ??_7CPythonBackground@@6BIPhysicsWorld@@@
CONST	SEGMENT
??_7CPythonBackground@@6BIPhysicsWorld@@@ DD FLAT:??_R4CPythonBackground@@6BIPhysicsWorld@@@ ; CPythonBackground::`vftable'
	DD	FLAT:??_ECPythonBackground@@W3AEPAXI@Z
	DD	FLAT:?isPhysicalCollision@CMapManager@@UAE_NABUD3DXVECTOR3@@@Z
CONST	ENDS
;	COMDAT ??_7CPythonBackground@@6BCScreen@@@
CONST	SEGMENT
??_7CPythonBackground@@6BCScreen@@@ DD FLAT:??_R4CPythonBackground@@6BCScreen@@@ ; CPythonBackground::`vftable'
	DD	FLAT:??_ECPythonBackground@@UAEPAXI@Z
	DD	FLAT:?Clear@CMapManager@@UAEXXZ
	DD	FLAT:?AllocMap@CMapManager@@UAEPAVCMapBase@@XZ
	DD	FLAT:?LoadMap@CMapManager@@UAE_NABV?$basic_string@DU?$char_traits@D@std@@V?$allocator@D@2@@std@@MMM@Z
CONST	ENDS
;	COMDAT ??_7?$CSingleton@VCPythonBackground@@@@6B@
CONST	SEGMENT
??_7?$CSingleton@VCPythonBackground@@@@6B@ DD FLAT:??_R4?$CSingleton@VCPythonBackground@@@@6B@ ; CSingleton<CPythonBackground>::`vftable'
	DD	FLAT:??_E?$CSingleton@VCPythonBackground@@@@UAEPAXI@Z
CONST	ENDS
;	COMDAT ??_R1A@?0A@EA@SpherePackCallback@@8
rdata$r	SEGMENT
??_R1A@?0A@EA@SpherePackCallback@@8 DD FLAT:??_R0?AVSpherePackCallback@@@8 ; SpherePackCallback::`RTTI Base Class Descriptor at (0,-1,0,64)'
	DD	00H
	DD	00H
	DD	0ffffffffH
	DD	00H
	DD	040H
	DD	FLAT:??_R3SpherePackCallback@@8
rdata$r	ENDS
;	COMDAT ??_R2SpherePackCallback@@8
rdata$r	SEGMENT
??_R2SpherePackCallback@@8 DD FLAT:??_R1A@?0A@EA@SpherePackCallback@@8 ; SpherePackCallback::`RTTI Base Class Array'
rdata$r	ENDS
;	COMDAT ??_R3SpherePackCallback@@8
rdata$r	SEGMENT
??_R3SpherePackCallback@@8 DD 00H			; SpherePackCallback::`RTTI Class Hierarchy Descriptor'
	DD	00H
	DD	01H
	DD	FLAT:??_R2SpherePackCallback@@8
rdata$r	ENDS
;	COMDAT ??_R0?AVSpherePackCallback@@@8
data$rs	SEGMENT
??_R0?AVSpherePackCallback@@@8 DD FLAT:??_7type_info@@6B@ ; SpherePackCallback `RTTI Type Descriptor'
	DD	00H
	DB	'.?AVSpherePackCallback@@', 00H
data$rs	ENDS
;	COMDAT ??_R4SpherePackCallback@@6B@
rdata$r	SEGMENT
??_R4SpherePackCallback@@6B@ DD 00H			; SpherePackCallback::`RTTI Complete Object Locator'
	DD	00H
	DD	00H
	DD	FLAT:??_R0?AVSpherePackCallback@@@8
	DD	FLAT:??_R3SpherePackCallback@@8
rdata$r	ENDS
;	COMDAT ??_R1A@?0A@EA@bad_array_new_length@std@@8
rdata$r	SEGMENT
??_R1A@?0A@EA@bad_array_new_length@std@@8 DD FLAT:??_R0?AVbad_array_new_length@std@@@8 ; std::bad_array_new_length::`RTTI Base Class Descriptor at (0,-1,0,64)'
	DD	02H
	DD	00H
	DD	0ffffffffH
	DD	00H
	DD	040H
	DD	FLAT:??_R3bad_array_new_length@std@@8
rdata$r	ENDS
;	COMDAT ??_R2bad_array_new_length@std@@8
rdata$r	SEGMENT
??_R2bad_array_new_length@std@@8 DD FLAT:??_R1A@?0A@EA@bad_array_new_length@std@@8 ; std::bad_array_new_length::`RTTI Base Class Array'
	DD	FLAT:??_R1A@?0A@EA@bad_alloc@std@@8
	DD	FLAT:??_R1A@?0A@EA@exception@std@@8
rdata$r	ENDS
;	COMDAT ??_R3bad_array_new_length@std@@8
rdata$r	SEGMENT
??_R3bad_array_new_length@std@@8 DD 00H			; std::bad_array_new_length::`RTTI Class Hierarchy Descriptor'
	DD	00H
	DD	03H
	DD	FLAT:??_R2bad_array_new_length@std@@8
rdata$r	ENDS
;	COMDAT ??_R4bad_array_new_length@std@@6B@
rdata$r	SEGMENT
??_R4bad_array_new_length@std@@6B@ DD 00H		; std::bad_array_new_length::`RTTI Complete Object Locator'
	DD	00H
	DD	00H
	DD	FLAT:??_R0?AVbad_array_new_length@std@@@8
	DD	FLAT:??_R3bad_array_new_length@std@@8
rdata$r	ENDS
;	COMDAT ??_R1A@?0A@EA@bad_alloc@std@@8
rdata$r	SEGMENT
??_R1A@?0A@EA@bad_alloc@std@@8 DD FLAT:??_R0?AVbad_alloc@std@@@8 ; std::bad_alloc::`RTTI Base Class Descriptor at (0,-1,0,64)'
	DD	01H
	DD	00H
	DD	0ffffffffH
	DD	00H
	DD	040H
	DD	FLAT:??_R3bad_alloc@std@@8
rdata$r	ENDS
;	COMDAT ??_R2bad_alloc@std@@8
rdata$r	SEGMENT
??_R2bad_alloc@std@@8 DD FLAT:??_R1A@?0A@EA@bad_alloc@std@@8 ; std::bad_alloc::`RTTI Base Class Array'
	DD	FLAT:??_R1A@?0A@EA@exception@std@@8
rdata$r	ENDS
;	COMDAT ??_R3bad_alloc@std@@8
rdata$r	SEGMENT
??_R3bad_alloc@std@@8 DD 00H				; std::bad_alloc::`RTTI Class Hierarchy Descriptor'
	DD	00H
	DD	02H
	DD	FLAT:??_R2bad_alloc@std@@8
rdata$r	ENDS
;	COMDAT ??_R4bad_alloc@std@@6B@
rdata$r	SEGMENT
??_R4bad_alloc@std@@6B@ DD 00H				; std::bad_alloc::`RTTI Complete Object Locator'
	DD	00H
	DD	00H
	DD	FLAT:??_R0?AVbad_alloc@std@@@8
	DD	FLAT:??_R3bad_alloc@std@@8
rdata$r	ENDS
;	COMDAT ??_R1A@?0A@EA@exception@std@@8
rdata$r	SEGMENT
??_R1A@?0A@EA@exception@std@@8 DD FLAT:??_R0?AVexception@std@@@8 ; std::exception::`RTTI Base Class Descriptor at (0,-1,0,64)'
	DD	00H
	DD	00H
	DD	0ffffffffH
	DD	00H
	DD	040H
	DD	FLAT:??_R3exception@std@@8
rdata$r	ENDS
;	COMDAT ??_R2exception@std@@8
rdata$r	SEGMENT
??_R2exception@std@@8 DD FLAT:??_R1A@?0A@EA@exception@std@@8 ; std::exception::`RTTI Base Class Array'
rdata$r	ENDS
;	COMDAT ??_R3exception@std@@8
rdata$r	SEGMENT
??_R3exception@std@@8 DD 00H				; std::exception::`RTTI Class Hierarchy Descriptor'
	DD	00H
	DD	01H
	DD	FLAT:??_R2exception@std@@8
rdata$r	ENDS
;	COMDAT ??_R4exception@std@@6B@
rdata$r	SEGMENT
??_R4exception@std@@6B@ DD 00H				; std::exception::`RTTI Complete Object Locator'
	DD	00H
	DD	00H
	DD	FLAT:??_R0?AVexception@std@@@8
	DD	FLAT:??_R3exception@std@@8
rdata$r	ENDS
;	COMDAT ??_7SpherePackCallback@@6B@
CONST	SEGMENT
??_7SpherePackCallback@@6B@ DD FLAT:??_R4SpherePackCallback@@6B@ ; SpherePackCallback::`vftable'
	DD	FLAT:??_ESpherePackCallback@@UAEPAXI@Z
	DD	FLAT:?VisibilityCallback@SpherePackCallback@@UAEXABVFrustum@@PAVSpherePack@@W4ViewState@@@Z
	DD	FLAT:?RayTraceCallback@SpherePackCallback@@UAEXABVVector3d@@0M0PAVSpherePack@@@Z
	DD	FLAT:?RangeTestCallback@SpherePackCallback@@UAEXABVVector3d@@MPAVSpherePack@@W4ViewState@@@Z
	DD	FLAT:?PointTest2dCallback@SpherePackCallback@@UAEXABVVector3d@@PAVSpherePack@@W4ViewState@@@Z
CONST	ENDS
;	COMDAT ??_C@_0BB@GCADKGJO@map?1set?5too?5long@
CONST	SEGMENT
??_C@_0BB@GCADKGJO@map?1set?5too?5long@ DB 'map/set too long', 00H ; `string'
CONST	ENDS
;	COMDAT ??_C@_0BA@JFNIOLAK@string?5too?5long@
CONST	SEGMENT
??_C@_0BA@JFNIOLAK@string?5too?5long@ DB 'string too long', 00H ; `string'
CONST	ENDS
;	COMDAT __CT??_R0?AVexception@std@@@8??0exception@std@@QAE@ABV01@@Z12
xdata$x	SEGMENT
__CT??_R0?AVexception@std@@@8??0exception@std@@QAE@ABV01@@Z12 DD 00H
	DD	FLAT:??_R0?AVexception@std@@@8
	DD	00H
	DD	0ffffffffH
	ORG $+4
	DD	0cH
	DD	FLAT:??0exception@std@@QAE@ABV01@@Z
xdata$x	ENDS
;	COMDAT ??_R0?AVexception@std@@@8
data$r	SEGMENT
??_R0?AVexception@std@@@8 DD FLAT:??_7type_info@@6B@	; std::exception `RTTI Type Descriptor'
	DD	00H
	DB	'.?AVexception@std@@', 00H
data$r	ENDS
;	COMDAT __CT??_R0?AVbad_alloc@std@@@8??0bad_alloc@std@@QAE@ABV01@@Z12
xdata$x	SEGMENT
__CT??_R0?AVbad_alloc@std@@@8??0bad_alloc@std@@QAE@ABV01@@Z12 DD 010H
	DD	FLAT:??_R0?AVbad_alloc@std@@@8
	DD	00H
	DD	0ffffffffH
	ORG $+4
	DD	0cH
	DD	FLAT:??0bad_alloc@std@@QAE@ABV01@@Z
xdata$x	ENDS
;	COMDAT ??_R0?AVbad_alloc@std@@@8
data$r	SEGMENT
??_R0?AVbad_alloc@std@@@8 DD FLAT:??_7type_info@@6B@	; std::bad_alloc `RTTI Type Descriptor'
	DD	00H
	DB	'.?AVbad_alloc@std@@', 00H
data$r	ENDS
;	COMDAT __CT??_R0?AVbad_array_new_length@std@@@8??0bad_array_new_length@std@@QAE@ABV01@@Z12
xdata$x	SEGMENT
__CT??_R0?AVbad_array_new_length@std@@@8??0bad_array_new_length@std@@QAE@ABV01@@Z12 DD 00H
	DD	FLAT:??_R0?AVbad_array_new_length@std@@@8
	DD	00H
	DD	0ffffffffH
	ORG $+4
	DD	0cH
	DD	FLAT:??0bad_array_new_length@std@@QAE@ABV01@@Z
xdata$x	ENDS
;	COMDAT ??_R0?AVbad_array_new_length@std@@@8
data$r	SEGMENT
??_R0?AVbad_array_new_length@std@@@8 DD FLAT:??_7type_info@@6B@ ; std::bad_array_new_length `RTTI Type Descriptor'
	DD	00H
	DB	'.?AVbad_array_new_length@std@@', 00H
data$r	ENDS
;	COMDAT __CTA3?AVbad_array_new_length@std@@
xdata$x	SEGMENT
__CTA3?AVbad_array_new_length@std@@ DD 03H
	DD	FLAT:__CT??_R0?AVbad_array_new_length@std@@@8??0bad_array_new_length@std@@QAE@ABV01@@Z12
	DD	FLAT:__CT??_R0?AVbad_alloc@std@@@8??0bad_alloc@std@@QAE@ABV01@@Z12
	DD	FLAT:__CT??_R0?AVexception@std@@@8??0exception@std@@QAE@ABV01@@Z12
xdata$x	ENDS
;	COMDAT __TI3?AVbad_array_new_length@std@@
xdata$x	SEGMENT
__TI3?AVbad_array_new_length@std@@ DD 00H
	DD	FLAT:??1bad_array_new_length@std@@UAE@XZ
	DD	00H
	DD	FLAT:__CTA3?AVbad_array_new_length@std@@
xdata$x	ENDS
;	COMDAT ??_C@_0BF@KINCDENJ@bad?5array?5new?5length@
CONST	SEGMENT
??_C@_0BF@KINCDENJ@bad?5array?5new?5length@ DB 'bad array new length', 00H ; `string'
CONST	ENDS
;	COMDAT ??_7bad_array_new_length@std@@6B@
CONST	SEGMENT
??_7bad_array_new_length@std@@6B@ DD FLAT:??_R4bad_array_new_length@std@@6B@ ; std::bad_array_new_length::`vftable'
	DD	FLAT:??_Ebad_array_new_length@std@@UAEPAXI@Z
	DD	FLAT:?what@exception@std@@UBEPBDXZ
CONST	ENDS
;	COMDAT ??_7bad_alloc@std@@6B@
CONST	SEGMENT
??_7bad_alloc@std@@6B@ DD FLAT:??_R4bad_alloc@std@@6B@	; std::bad_alloc::`vftable'
	DD	FLAT:??_Ebad_alloc@std@@UAEPAXI@Z
	DD	FLAT:?what@exception@std@@UBEPBDXZ
CONST	ENDS
;	COMDAT ??_C@_0BC@EOODALEL@Unknown?5exception@
CONST	SEGMENT
??_C@_0BC@EOODALEL@Unknown?5exception@ DB 'Unknown exception', 00H ; `string'
CONST	ENDS
;	COMDAT ??_7exception@std@@6B@
CONST	SEGMENT
??_7exception@std@@6B@ DD FLAT:??_R4exception@std@@6B@	; std::exception::`vftable'
	DD	FLAT:??_Eexception@std@@UAEPAXI@Z
	DD	FLAT:?what@exception@std@@UBEPBDXZ
CONST	ENDS
;	COMDAT xdata$x
xdata$x	SEGMENT
__unwindtable$??$_Buynode@V?$allocator@U?$_Tree_node@HPAX@std@@@std@@AAH@?$_Tree_node@HPAX@std@@SAPAU01@AAV?$allocator@U?$_Tree_node@HPAX@std@@@1@PAU01@AAH@Z DD 0ffffffffH
	DD	FLAT:__unwindfunclet$??$_Buynode@V?$allocator@U?$_Tree_node@HPAX@std@@@std@@AAH@?$_Tree_node@HPAX@std@@SAPAU01@AAV?$allocator@U?$_Tree_node@HPAX@std@@@1@PAU01@AAH@Z$0
__ehfuncinfo$??$_Buynode@V?$allocator@U?$_Tree_node@HPAX@std@@@std@@AAH@?$_Tree_node@HPAX@std@@SAPAU01@AAV?$allocator@U?$_Tree_node@HPAX@std@@@1@PAU01@AAH@Z DD 019930522H
	DD	01H
	DD	FLAT:__unwindtable$??$_Buynode@V?$allocator@U?$_Tree_node@HPAX@std@@@std@@AAH@?$_Tree_node@HPAX@std@@SAPAU01@AAV?$allocator@U?$_Tree_node@HPAX@std@@@1@PAU01@AAH@Z
	DD	2 DUP(00H)
	DD	2 DUP(00H)
	DD	00H
	DD	01H
xdata$x	ENDS
;	COMDAT xdata$x
xdata$x	SEGMENT
__unwindtable$??$_Buynode@AAH@?$_Tree@V?$_Tset_traits@HU?$less@H@std@@V?$allocator@H@2@$0A@@std@@@std@@IAEPAU?$_Tree_node@HPAX@1@AAH@Z DD 0ffffffffH
	DD	FLAT:__unwindfunclet$??$_Buynode@AAH@?$_Tree@V?$_Tset_traits@HU?$less@H@std@@V?$allocator@H@2@$0A@@std@@@std@@IAEPAU?$_Tree_node@HPAX@1@AAH@Z$0
__ehfuncinfo$??$_Buynode@AAH@?$_Tree@V?$_Tset_traits@HU?$less@H@std@@V?$allocator@H@2@$0A@@std@@@std@@IAEPAU?$_Tree_node@HPAX@1@AAH@Z DD 019930522H
	DD	01H
	DD	FLAT:__unwindtable$??$_Buynode@AAH@?$_Tree@V?$_Tset_traits@HU?$less@H@std@@V?$allocator@H@2@$0A@@std@@@std@@IAEPAU?$_Tree_node@HPAX@1@AAH@Z
	DD	2 DUP(00H)
	DD	2 DUP(00H)
	DD	00H
	DD	01H
xdata$x	ENDS
;	COMDAT xdata$x
xdata$x	SEGMENT
__unwindtable$??$?0U?$pair@KUSReserveTargetEffect@CPythonBackground@@@std@@@?$_Tree_temp_node@V?$allocator@U?$_Tree_node@U?$pair@$$CBKUSReserveTargetEffect@CPythonBackground@@@std@@PAX@std@@@std@@@std@@QAE@AAV?$allocator@U?$_Tree_node@U?$pair@$$CBKUSReserveTargetEffect@CPythonBackground@@@std@@PAX@std@@@1@PAU?$_Tree_node@U?$pair@$$CBKUSReserveTargetEffect@CPythonBackground@@@std@@PAX@1@$$QAU?$pair@KUSReserveTargetEffect@CPythonBackground@@@1@@Z DD 0ffffffffH
	DD	FLAT:__unwindfunclet$??$?0U?$pair@KUSReserveTargetEffect@CPythonBackground@@@std@@@?$_Tree_temp_node@V?$allocator@U?$_Tree_node@U?$pair@$$CBKUSReserveTargetEffect@CPythonBackground@@@std@@PAX@std@@@std@@@std@@QAE@AAV?$allocator@U?$_Tree_node@U?$pair@$$CBKUSReserveTargetEffect@CPythonBackground@@@std@@PAX@std@@@1@PAU?$_Tree_node@U?$pair@$$CBKUSReserveTargetEffect@CPythonBackground@@@std@@PAX@1@$$QAU?$pair@KUSReserveTargetEffect@CPythonBackground@@@1@@Z$1
__ehfuncinfo$??$?0U?$pair@KUSReserveTargetEffect@CPythonBackground@@@std@@@?$_Tree_temp_node@V?$allocator@U?$_Tree_node@U?$pair@$$CBKUSReserveTargetEffect@CPythonBackground@@@std@@PAX@std@@@std@@@std@@QAE@AAV?$allocator@U?$_Tree_node@U?$pair@$$CBKUSReserveTargetEffect@CPythonBackground@@@std@@PAX@std@@@1@PAU?$_Tree_node@U?$pair@$$CBKUSReserveTargetEffect@CPythonBackground@@@std@@PAX@1@$$QAU?$pair@KUSReserveTargetEffect@CPythonBackground@@@1@@Z DD 019930522H
	DD	01H
	DD	FLAT:__unwindtable$??$?0U?$pair@KUSReserveTargetEffect@CPythonBackground@@@std@@@?$_Tree_temp_node@V?$allocator@U?$_Tree_node@U?$pair@$$CBKUSReserveTargetEffect@CPythonBackground@@@std@@PAX@std@@@std@@@std@@QAE@AAV?$allocator@U?$_Tree_node@U?$pair@$$CBKUSReserveTargetEffect@CPythonBackground@@@std@@PAX@std@@@1@PAU?$_Tree_node@U?$pair@$$CBKUSReserveTargetEffect@CPythonBackground@@@std@@PAX@1@$$QAU?$pair@KUSReserveTargetEffect@CPythonBackground@@@1@@Z
	DD	2 DUP(00H)
	DD	2 DUP(00H)
	DD	00H
	DD	01H
xdata$x	ENDS
;	COMDAT xdata$x
xdata$x	SEGMENT
__unwindtable$??0?$_Tree_temp_node_alloc@V?$allocator@U?$_Tree_node@U?$pair@$$CBKUSReserveTargetEffect@CPythonBackground@@@std@@PAX@std@@@std@@@std@@QAE@AAV?$allocator@U?$_Tree_node@U?$pair@$$CBKUSReserveTargetEffect@CPythonBackground@@@std@@PAX@std@@@1@@Z DD 0ffffffffH
	DD	FLAT:__unwindfunclet$??0?$_Tree_temp_node_alloc@V?$allocator@U?$_Tree_node@U?$pair@$$CBKUSReserveTargetEffect@CPythonBackground@@@std@@PAX@std@@@std@@@std@@QAE@AAV?$allocator@U?$_Tree_node@U?$pair@$$CBKUSReserveTargetEffect@CPythonBackground@@@std@@PAX@std@@@1@@Z$0
__ehfuncinfo$??0?$_Tree_temp_node_alloc@V?$allocator@U?$_Tree_node@U?$pair@$$CBKUSReserveTargetEffect@CPythonBackground@@@std@@PAX@std@@@std@@@std@@QAE@AAV?$allocator@U?$_Tree_node@U?$pair@$$CBKUSReserveTargetEffect@CPythonBackground@@@std@@PAX@std@@@1@@Z DD 019930522H
	DD	01H
	DD	FLAT:__unwindtable$??0?$_Tree_temp_node_alloc@V?$allocator@U?$_Tree_node@U?$pair@$$CBKUSReserveTargetEffect@CPythonBackground@@@std@@PAX@std@@@std@@@std@@QAE@AAV?$allocator@U?$_Tree_node@U?$pair@$$CBKUSReserveTargetEffect@CPythonBackground@@@std@@PAX@std@@@1@@Z
	DD	2 DUP(00H)
	DD	2 DUP(00H)
	DD	00H
	DD	01H
xdata$x	ENDS
;	COMDAT xdata$x
xdata$x	SEGMENT
__unwindtable$??$?0U?$pair@KK@std@@@?$_Tree_temp_node@V?$allocator@U?$_Tree_node@U?$pair@$$CBKK@std@@PAX@std@@@std@@@std@@QAE@AAV?$allocator@U?$_Tree_node@U?$pair@$$CBKK@std@@PAX@std@@@1@PAU?$_Tree_node@U?$pair@$$CBKK@std@@PAX@1@$$QAU?$pair@KK@1@@Z DD 0ffffffffH
	DD	FLAT:__unwindfunclet$??$?0U?$pair@KK@std@@@?$_Tree_temp_node@V?$allocator@U?$_Tree_node@U?$pair@$$CBKK@std@@PAX@std@@@std@@@std@@QAE@AAV?$allocator@U?$_Tree_node@U?$pair@$$CBKK@std@@PAX@std@@@1@PAU?$_Tree_node@U?$pair@$$CBKK@std@@PAX@1@$$QAU?$pair@KK@1@@Z$1
__ehfuncinfo$??$?0U?$pair@KK@std@@@?$_Tree_temp_node@V?$allocator@U?$_Tree_node@U?$pair@$$CBKK@std@@PAX@std@@@std@@@std@@QAE@AAV?$allocator@U?$_Tree_node@U?$pair@$$CBKK@std@@PAX@std@@@1@PAU?$_Tree_node@U?$pair@$$CBKK@std@@PAX@1@$$QAU?$pair@KK@1@@Z DD 019930522H
	DD	01H
	DD	FLAT:__unwindtable$??$?0U?$pair@KK@std@@@?$_Tree_temp_node@V?$allocator@U?$_Tree_node@U?$pair@$$CBKK@std@@PAX@std@@@std@@@std@@QAE@AAV?$allocator@U?$_Tree_node@U?$pair@$$CBKK@std@@PAX@std@@@1@PAU?$_Tree_node@U?$pair@$$CBKK@std@@PAX@1@$$QAU?$pair@KK@1@@Z
	DD	2 DUP(00H)
	DD	2 DUP(00H)
	DD	00H
	DD	01H
xdata$x	ENDS
;	COMDAT xdata$x
xdata$x	SEGMENT
__unwindtable$??0?$_Tree_temp_node_alloc@V?$allocator@U?$_Tree_node@U?$pair@$$CBKK@std@@PAX@std@@@std@@@std@@QAE@AAV?$allocator@U?$_Tree_node@U?$pair@$$CBKK@std@@PAX@std@@@1@@Z DD 0ffffffffH
	DD	FLAT:__unwindfunclet$??0?$_Tree_temp_node_alloc@V?$allocator@U?$_Tree_node@U?$pair@$$CBKK@std@@PAX@std@@@std@@@std@@QAE@AAV?$allocator@U?$_Tree_node@U?$pair@$$CBKK@std@@PAX@std@@@1@@Z$0
__ehfuncinfo$??0?$_Tree_temp_node_alloc@V?$allocator@U?$_Tree_node@U?$pair@$$CBKK@std@@PAX@std@@@std@@@std@@QAE@AAV?$allocator@U?$_Tree_node@U?$pair@$$CBKK@std@@PAX@std@@@1@@Z DD 019930522H
	DD	01H
	DD	FLAT:__unwindtable$??0?$_Tree_temp_node_alloc@V?$allocator@U?$_Tree_node@U?$pair@$$CBKK@std@@PAX@std@@@std@@@std@@QAE@AAV?$allocator@U?$_Tree_node@U?$pair@$$CBKK@std@@PAX@std@@@1@@Z
	DD	2 DUP(00H)
	DD	2 DUP(00H)
	DD	00H
	DD	01H
xdata$x	ENDS
;	COMDAT xdata$x
xdata$x	SEGMENT
__unwindtable$??$_Copy_or_move@HU?$integral_constant@_N$00@std@@@?$_Tree@V?$_Tset_traits@HU?$less@H@std@@V?$allocator@H@2@$0A@@std@@@std@@IAEPAU?$_Tree_node@HPAX@1@AAHU_Copy_tag@01@U?$integral_constant@_N$00@1@@Z DD 0ffffffffH
	DD	FLAT:__unwindfunclet$??$_Copy_or_move@HU?$integral_constant@_N$00@std@@@?$_Tree@V?$_Tset_traits@HU?$less@H@std@@V?$allocator@H@2@$0A@@std@@@std@@IAEPAU?$_Tree_node@HPAX@1@AAHU_Copy_tag@01@U?$integral_constant@_N$00@1@@Z$0
__ehfuncinfo$??$_Copy_or_move@HU?$integral_constant@_N$00@std@@@?$_Tree@V?$_Tset_traits@HU?$less@H@std@@V?$allocator@H@2@$0A@@std@@@std@@IAEPAU?$_Tree_node@HPAX@1@AAHU_Copy_tag@01@U?$integral_constant@_N$00@1@@Z DD 019930522H
	DD	01H
	DD	FLAT:__unwindtable$??$_Copy_or_move@HU?$integral_constant@_N$00@std@@@?$_Tree@V?$_Tset_traits@HU?$less@H@std@@V?$allocator@H@2@$0A@@std@@@std@@IAEPAU?$_Tree_node@HPAX@1@AAHU_Copy_tag@01@U?$integral_constant@_N$00@1@@Z
	DD	2 DUP(00H)
	DD	2 DUP(00H)
	DD	00H
	DD	01H
xdata$x	ENDS
;	COMDAT xdata$x
xdata$x	SEGMENT
__unwindtable$??$_Emplace@U?$pair@KUSReserveTargetEffect@CPythonBackground@@@std@@@?$_Tree@V?$_Tmap_traits@KUSReserveTargetEffect@CPythonBackground@@U?$less@K@std@@V?$allocator@U?$pair@$$CBKUSReserveTargetEffect@CPythonBackground@@@std@@@4@$0A@@std@@@std@@IAE?AU?$pair@PAU?$_Tree_node@U?$pair@$$CBKUSReserveTargetEffect@CPythonBackground@@@std@@PAX@std@@_N@1@$$QAU?$pair@KUSReserveTargetEffect@CPythonBackground@@@1@@Z DD 0ffffffffH
	DD	FLAT:__unwindfunclet$??$_Emplace@U?$pair@KUSReserveTargetEffect@CPythonBackground@@@std@@@?$_Tree@V?$_Tmap_traits@KUSReserveTargetEffect@CPythonBackground@@U?$less@K@std@@V?$allocator@U?$pair@$$CBKUSReserveTargetEffect@CPythonBackground@@@std@@@4@$0A@@std@@@std@@IAE?AU?$pair@PAU?$_Tree_node@U?$pair@$$CBKUSReserveTargetEffect@CPythonBackground@@@std@@PAX@std@@_N@1@$$QAU?$pair@KUSReserveTargetEffect@CPythonBackground@@@1@@Z$2
__ehfuncinfo$??$_Emplace@U?$pair@KUSReserveTargetEffect@CPythonBackground@@@std@@@?$_Tree@V?$_Tmap_traits@KUSReserveTargetEffect@CPythonBackground@@U?$less@K@std@@V?$allocator@U?$pair@$$CBKUSReserveTargetEffect@CPythonBackground@@@std@@@4@$0A@@std@@@std@@IAE?AU?$pair@PAU?$_Tree_node@U?$pair@$$CBKUSReserveTargetEffect@CPythonBackground@@@std@@PAX@std@@_N@1@$$QAU?$pair@KUSReserveTargetEffect@CPythonBackground@@@1@@Z DD 019930522H
	DD	01H
	DD	FLAT:__unwindtable$??$_Emplace@U?$pair@KUSReserveTargetEffect@CPythonBackground@@@std@@@?$_Tree@V?$_Tmap_traits@KUSReserveTargetEffect@CPythonBackground@@U?$less@K@std@@V?$allocator@U?$pair@$$CBKUSReserveTargetEffect@CPythonBackground@@@std@@@4@$0A@@std@@@std@@IAE?AU?$pair@PAU?$_Tree_node@U?$pair@$$CBKUSReserveTargetEffect@CPythonBackground@@@std@@PAX@std@@_N@1@$$QAU?$pair@KUSReserveTargetEffect@CPythonBackground@@@1@@Z
	DD	2 DUP(00H)
	DD	2 DUP(00H)
	DD	00H
	DD	01H
xdata$x	ENDS
;	COMDAT xdata$x
xdata$x	SEGMENT
__unwindtable$??$_Emplace@U?$pair@KK@std@@@?$_Tree@V?$_Tmap_traits@KKU?$less@K@std@@V?$allocator@U?$pair@$$CBKK@std@@@2@$0A@@std@@@std@@IAE?AU?$pair@PAU?$_Tree_node@U?$pair@$$CBKK@std@@PAX@std@@_N@1@$$QAU?$pair@KK@1@@Z DD 0ffffffffH
	DD	FLAT:__unwindfunclet$??$_Emplace@U?$pair@KK@std@@@?$_Tree@V?$_Tmap_traits@KKU?$less@K@std@@V?$allocator@U?$pair@$$CBKK@std@@@2@$0A@@std@@@std@@IAE?AU?$pair@PAU?$_Tree_node@U?$pair@$$CBKK@std@@PAX@std@@_N@1@$$QAU?$pair@KK@1@@Z$2
__ehfuncinfo$??$_Emplace@U?$pair@KK@std@@@?$_Tree@V?$_Tmap_traits@KKU?$less@K@std@@V?$allocator@U?$pair@$$CBKK@std@@@2@$0A@@std@@@std@@IAE?AU?$pair@PAU?$_Tree_node@U?$pair@$$CBKK@std@@PAX@std@@_N@1@$$QAU?$pair@KK@1@@Z DD 019930522H
	DD	01H
	DD	FLAT:__unwindtable$??$_Emplace@U?$pair@KK@std@@@?$_Tree@V?$_Tmap_traits@KKU?$less@K@std@@V?$allocator@U?$pair@$$CBKK@std@@@2@$0A@@std@@@std@@IAE?AU?$pair@PAU?$_Tree_node@U?$pair@$$CBKK@std@@PAX@std@@_N@1@$$QAU?$pair@KK@1@@Z
	DD	2 DUP(00H)
	DD	2 DUP(00H)
	DD	00H
	DD	01H
xdata$x	ENDS
;	COMDAT xdata$x
xdata$x	SEGMENT
__unwindtable$??$?0V?$basic_string@DU?$char_traits@D@std@@V?$allocator@D@2@@std@@@?$_Tree_temp_node@V?$allocator@U?$_Tree_node@V?$basic_string@DU?$char_traits@D@std@@V?$allocator@D@2@@std@@PAX@std@@@std@@@std@@QAE@AAV?$allocator@U?$_Tree_node@V?$basic_string@DU?$char_traits@D@std@@V?$allocator@D@2@@std@@PAX@std@@@1@PAU?$_Tree_node@V?$basic_string@DU?$char_traits@D@std@@V?$allocator@D@2@@std@@PAX@1@$$QAV?$basic_string@DU?$char_traits@D@std@@V?$allocator@D@2@@1@@Z DD 0ffffffffH
	DD	FLAT:__unwindfunclet$??$?0V?$basic_string@DU?$char_traits@D@std@@V?$allocator@D@2@@std@@@?$_Tree_temp_node@V?$allocator@U?$_Tree_node@V?$basic_string@DU?$char_traits@D@std@@V?$allocator@D@2@@std@@PAX@std@@@std@@@std@@QAE@AAV?$allocator@U?$_Tree_node@V?$basic_string@DU?$char_traits@D@std@@V?$allocator@D@2@@std@@PAX@std@@@1@PAU?$_Tree_node@V?$basic_string@DU?$char_traits@D@std@@V?$allocator@D@2@@std@@PAX@1@$$QAV?$basic_string@DU?$char_traits@D@std@@V?$allocator@D@2@@1@@Z$1
__ehfuncinfo$??$?0V?$basic_string@DU?$char_traits@D@std@@V?$allocator@D@2@@std@@@?$_Tree_temp_node@V?$allocator@U?$_Tree_node@V?$basic_string@DU?$char_traits@D@std@@V?$allocator@D@2@@std@@PAX@std@@@std@@@std@@QAE@AAV?$allocator@U?$_Tree_node@V?$basic_string@DU?$char_traits@D@std@@V?$allocator@D@2@@std@@PAX@std@@@1@PAU?$_Tree_node@V?$basic_string@DU?$char_traits@D@std@@V?$allocator@D@2@@std@@PAX@1@$$QAV?$basic_string@DU?$char_traits@D@std@@V?$allocator@D@2@@1@@Z DD 019930522H
	DD	01H
	DD	FLAT:__unwindtable$??$?0V?$basic_string@DU?$char_traits@D@std@@V?$allocator@D@2@@std@@@?$_Tree_temp_node@V?$allocator@U?$_Tree_node@V?$basic_string@DU?$char_traits@D@std@@V?$allocator@D@2@@std@@PAX@std@@@std@@@std@@QAE@AAV?$allocator@U?$_Tree_node@V?$basic_string@DU?$char_traits@D@std@@V?$allocator@D@2@@std@@PAX@std@@@1@PAU?$_Tree_node@V?$basic_string@DU?$char_traits@D@std@@V?$allocator@D@2@@std@@PAX@1@$$QAV?$basic_string@DU?$char_traits@D@std@@V?$allocator@D@2@@1@@Z
	DD	2 DUP(00H)
	DD	2 DUP(00H)
	DD	00H
	DD	01H
xdata$x	ENDS
;	COMDAT xdata$x
xdata$x	SEGMENT
__unwindtable$??0?$_Tree_temp_node_alloc@V?$allocator@U?$_Tree_node@V?$basic_string@DU?$char_traits@D@std@@V?$allocator@D@2@@std@@PAX@std@@@std@@@std@@QAE@AAV?$allocator@U?$_Tree_node@V?$basic_string@DU?$char_traits@D@std@@V?$allocator@D@2@@std@@PAX@std@@@1@@Z DD 0ffffffffH
	DD	FLAT:__unwindfunclet$??0?$_Tree_temp_node_alloc@V?$allocator@U?$_Tree_node@V?$basic_string@DU?$char_traits@D@std@@V?$allocator@D@2@@std@@PAX@std@@@std@@@std@@QAE@AAV?$allocator@U?$_Tree_node@V?$basic_string@DU?$char_traits@D@std@@V?$allocator@D@2@@std@@PAX@std@@@1@@Z$0
__ehfuncinfo$??0?$_Tree_temp_node_alloc@V?$allocator@U?$_Tree_node@V?$basic_string@DU?$char_traits@D@std@@V?$allocator@D@2@@std@@PAX@std@@@std@@@std@@QAE@AAV?$allocator@U?$_Tree_node@V?$basic_string@DU?$char_traits@D@std@@V?$allocator@D@2@@std@@PAX@std@@@1@@Z DD 019930522H
	DD	01H
	DD	FLAT:__unwindtable$??0?$_Tree_temp_node_alloc@V?$allocator@U?$_Tree_node@V?$basic_string@DU?$char_traits@D@std@@V?$allocator@D@2@@std@@PAX@std@@@std@@@std@@QAE@AAV?$allocator@U?$_Tree_node@V?$basic_string@DU?$char_traits@D@std@@V?$allocator@D@2@@std@@PAX@std@@@1@@Z
	DD	2 DUP(00H)
	DD	2 DUP(00H)
	DD	00H
	DD	01H
xdata$x	ENDS
;	COMDAT xdata$x
xdata$x	SEGMENT
__unwindtable$??$?0ABH@?$_Tree_temp_node@V?$allocator@U?$_Tree_node@HPAX@std@@@std@@@std@@QAE@AAV?$allocator@U?$_Tree_node@HPAX@std@@@1@PAU?$_Tree_node@HPAX@1@ABH@Z DD 0ffffffffH
	DD	FLAT:__unwindfunclet$??$?0ABH@?$_Tree_temp_node@V?$allocator@U?$_Tree_node@HPAX@std@@@std@@@std@@QAE@AAV?$allocator@U?$_Tree_node@HPAX@std@@@1@PAU?$_Tree_node@HPAX@1@ABH@Z$1
__ehfuncinfo$??$?0ABH@?$_Tree_temp_node@V?$allocator@U?$_Tree_node@HPAX@std@@@std@@@std@@QAE@AAV?$allocator@U?$_Tree_node@HPAX@std@@@1@PAU?$_Tree_node@HPAX@1@ABH@Z DD 019930522H
	DD	01H
	DD	FLAT:__unwindtable$??$?0ABH@?$_Tree_temp_node@V?$allocator@U?$_Tree_node@HPAX@std@@@std@@@std@@QAE@AAV?$allocator@U?$_Tree_node@HPAX@std@@@1@PAU?$_Tree_node@HPAX@1@ABH@Z
	DD	2 DUP(00H)
	DD	2 DUP(00H)
	DD	00H
	DD	01H
xdata$x	ENDS
;	COMDAT xdata$x
xdata$x	SEGMENT
__unwindtable$??0?$_Tree_temp_node_alloc@V?$allocator@U?$_Tree_node@HPAX@std@@@std@@@std@@QAE@AAV?$allocator@U?$_Tree_node@HPAX@std@@@1@@Z DD 0ffffffffH
	DD	FLAT:__unwindfunclet$??0?$_Tree_temp_node_alloc@V?$allocator@U?$_Tree_node@HPAX@std@@@std@@@std@@QAE@AAV?$allocator@U?$_Tree_node@HPAX@std@@@1@@Z$0
__ehfuncinfo$??0?$_Tree_temp_node_alloc@V?$allocator@U?$_Tree_node@HPAX@std@@@std@@@std@@QAE@AAV?$allocator@U?$_Tree_node@HPAX@std@@@1@@Z DD 019930522H
	DD	01H
	DD	FLAT:__unwindtable$??0?$_Tree_temp_node_alloc@V?$allocator@U?$_Tree_node@HPAX@std@@@std@@@std@@QAE@AAV?$allocator@U?$_Tree_node@HPAX@std@@@1@@Z
	DD	2 DUP(00H)
	DD	2 DUP(00H)
	DD	00H
	DD	01H
xdata$x	ENDS
;	COMDAT xdata$x
xdata$x	SEGMENT
__catchsym$??$_Copy_nodes@U_Copy_tag@?$_Tree@V?$_Tset_traits@HU?$less@H@std@@V?$allocator@H@2@$0A@@std@@@std@@@?$_Tree@V?$_Tset_traits@HU?$less@H@std@@V?$allocator@H@2@$0A@@std@@@std@@IAEPAU?$_Tree_node@HPAX@1@PAU21@0U_Copy_tag@01@@Z$3 DD 040H
	DD	00H
	DD	00H
	DD	FLAT:__catch$??$_Copy_nodes@U_Copy_tag@?$_Tree@V?$_Tset_traits@HU?$less@H@std@@V?$allocator@H@2@$0A@@std@@@std@@@?$_Tree@V?$_Tset_traits@HU?$less@H@std@@V?$allocator@H@2@$0A@@std@@@std@@IAEPAU?$_Tree_node@HPAX@1@PAU21@0U_Copy_tag@01@@Z$0
__tryblocktable$??$_Copy_nodes@U_Copy_tag@?$_Tree@V?$_Tset_traits@HU?$less@H@std@@V?$allocator@H@2@$0A@@std@@@std@@@?$_Tree@V?$_Tset_traits@HU?$less@H@std@@V?$allocator@H@2@$0A@@std@@@std@@IAEPAU?$_Tree_node@HPAX@1@PAU21@0U_Copy_tag@01@@Z DD 01H
	DD	01H
	DD	02H
	DD	01H
	DD	FLAT:__catchsym$??$_Copy_nodes@U_Copy_tag@?$_Tree@V?$_Tset_traits@HU?$less@H@std@@V?$allocator@H@2@$0A@@std@@@std@@@?$_Tree@V?$_Tset_traits@HU?$less@H@std@@V?$allocator@H@2@$0A@@std@@@std@@IAEPAU?$_Tree_node@HPAX@1@PAU21@0U_Copy_tag@01@@Z$3
__unwindtable$??$_Copy_nodes@U_Copy_tag@?$_Tree@V?$_Tset_traits@HU?$less@H@std@@V?$allocator@H@2@$0A@@std@@@std@@@?$_Tree@V?$_Tset_traits@HU?$less@H@std@@V?$allocator@H@2@$0A@@std@@@std@@IAEPAU?$_Tree_node@HPAX@1@PAU21@0U_Copy_tag@01@@Z DD 0ffffffffH
	DD	FLAT:__unwindfunclet$??$_Copy_nodes@U_Copy_tag@?$_Tree@V?$_Tset_traits@HU?$less@H@std@@V?$allocator@H@2@$0A@@std@@@std@@@?$_Tree@V?$_Tset_traits@HU?$less@H@std@@V?$allocator@H@2@$0A@@std@@@std@@IAEPAU?$_Tree_node@HPAX@1@PAU21@0U_Copy_tag@01@@Z$2
	DD	0ffffffffH
	DD	00H
	DD	0ffffffffH
	DD	00H
__ehfuncinfo$??$_Copy_nodes@U_Copy_tag@?$_Tree@V?$_Tset_traits@HU?$less@H@std@@V?$allocator@H@2@$0A@@std@@@std@@@?$_Tree@V?$_Tset_traits@HU?$less@H@std@@V?$allocator@H@2@$0A@@std@@@std@@IAEPAU?$_Tree_node@HPAX@1@PAU21@0U_Copy_tag@01@@Z DD 019930522H
	DD	03H
	DD	FLAT:__unwindtable$??$_Copy_nodes@U_Copy_tag@?$_Tree@V?$_Tset_traits@HU?$less@H@std@@V?$allocator@H@2@$0A@@std@@@std@@@?$_Tree@V?$_Tset_traits@HU?$less@H@std@@V?$allocator@H@2@$0A@@std@@@std@@IAEPAU?$_Tree_node@HPAX@1@PAU21@0U_Copy_tag@01@@Z
	DD	01H
	DD	FLAT:__tryblocktable$??$_Copy_nodes@U_Copy_tag@?$_Tree@V?$_Tset_traits@HU?$less@H@std@@V?$allocator@H@2@$0A@@std@@@std@@@?$_Tree@V?$_Tset_traits@HU?$less@H@std@@V?$allocator@H@2@$0A@@std@@@std@@IAEPAU?$_Tree_node@HPAX@1@PAU21@0U_Copy_tag@01@@Z
	DD	2 DUP(00H)
	DD	00H
	DD	01H
xdata$x	ENDS
;	COMDAT xdata$x
xdata$x	SEGMENT
__unwindtable$??$emplace@U?$pair@KUSReserveTargetEffect@CPythonBackground@@@std@@@?$_Tree@V?$_Tmap_traits@KUSReserveTargetEffect@CPythonBackground@@U?$less@K@std@@V?$allocator@U?$pair@$$CBKUSReserveTargetEffect@CPythonBackground@@@std@@@4@$0A@@std@@@std@@QAE?AU?$pair@V?$_Tree_iterator@V?$_Tree_val@U?$_Tree_simple_types@U?$pair@$$CBKUSReserveTargetEffect@CPythonBackground@@@std@@@std@@@std@@@std@@_N@1@$$QAU?$pair@KUSReserveTargetEffect@CPythonBackground@@@1@@Z DD 0ffffffffH
	DD	FLAT:__unwindfunclet$??$emplace@U?$pair@KUSReserveTargetEffect@CPythonBackground@@@std@@@?$_Tree@V?$_Tmap_traits@KUSReserveTargetEffect@CPythonBackground@@U?$less@K@std@@V?$allocator@U?$pair@$$CBKUSReserveTargetEffect@CPythonBackground@@@std@@@4@$0A@@std@@@std@@QAE?AU?$pair@V?$_Tree_iterator@V?$_Tree_val@U?$_Tree_simple_types@U?$pair@$$CBKUSReserveTargetEffect@CPythonBackground@@@std@@@std@@@std@@@std@@_N@1@$$QAU?$pair@KUSReserveTargetEffect@CPythonBackground@@@1@@Z$2
__ehfuncinfo$??$emplace@U?$pair@KUSReserveTargetEffect@CPythonBackground@@@std@@@?$_Tree@V?$_Tmap_traits@KUSReserveTargetEffect@CPythonBackground@@U?$less@K@std@@V?$allocator@U?$pair@$$CBKUSReserveTargetEffect@CPythonBackground@@@std@@@4@$0A@@std@@@std@@QAE?AU?$pair@V?$_Tree_iterator@V?$_Tree_val@U?$_Tree_simple_types@U?$pair@$$CBKUSReserveTargetEffect@CPythonBackground@@@std@@@std@@@std@@@std@@_N@1@$$QAU?$pair@KUSReserveTargetEffect@CPythonBackground@@@1@@Z DD 019930522H
	DD	01H
	DD	FLAT:__unwindtable$??$emplace@U?$pair@KUSReserveTargetEffect@CPythonBackground@@@std@@@?$_Tree@V?$_Tmap_traits@KUSReserveTargetEffect@CPythonBackground@@U?$less@K@std@@V?$allocator@U?$pair@$$CBKUSReserveTargetEffect@CPythonBackground@@@std@@@4@$0A@@std@@@std@@QAE?AU?$pair@V?$_Tree_iterator@V?$_Tree_val@U?$_Tree_simple_types@U?$pair@$$CBKUSReserveTargetEffect@CPythonBackground@@@std@@@std@@@std@@@std@@_N@1@$$QAU?$pair@KUSReserveTargetEffect@CPythonBackground@@@1@@Z
	DD	2 DUP(00H)
	DD	2 DUP(00H)
	DD	00H
	DD	01H
xdata$x	ENDS
;	COMDAT xdata$x
xdata$x	SEGMENT
__unwindtable$??$emplace@U?$pair@KK@std@@@?$_Tree@V?$_Tmap_traits@KKU?$less@K@std@@V?$allocator@U?$pair@$$CBKK@std@@@2@$0A@@std@@@std@@QAE?AU?$pair@V?$_Tree_iterator@V?$_Tree_val@U?$_Tree_simple_types@U?$pair@$$CBKK@std@@@std@@@std@@@std@@_N@1@$$QAU?$pair@KK@1@@Z DD 0ffffffffH
	DD	FLAT:__unwindfunclet$??$emplace@U?$pair@KK@std@@@?$_Tree@V?$_Tmap_traits@KKU?$less@K@std@@V?$allocator@U?$pair@$$CBKK@std@@@2@$0A@@std@@@std@@QAE?AU?$pair@V?$_Tree_iterator@V?$_Tree_val@U?$_Tree_simple_types@U?$pair@$$CBKK@std@@@std@@@std@@@std@@_N@1@$$QAU?$pair@KK@1@@Z$2
__ehfuncinfo$??$emplace@U?$pair@KK@std@@@?$_Tree@V?$_Tmap_traits@KKU?$less@K@std@@V?$allocator@U?$pair@$$CBKK@std@@@2@$0A@@std@@@std@@QAE?AU?$pair@V?$_Tree_iterator@V?$_Tree_val@U?$_Tree_simple_types@U?$pair@$$CBKK@std@@@std@@@std@@@std@@_N@1@$$QAU?$pair@KK@1@@Z DD 019930522H
	DD	01H
	DD	FLAT:__unwindtable$??$emplace@U?$pair@KK@std@@@?$_Tree@V?$_Tmap_traits@KKU?$less@K@std@@V?$allocator@U?$pair@$$CBKK@std@@@2@$0A@@std@@@std@@QAE?AU?$pair@V?$_Tree_iterator@V?$_Tree_val@U?$_Tree_simple_types@U?$pair@$$CBKK@std@@@std@@@std@@@std@@_N@1@$$QAU?$pair@KK@1@@Z
	DD	2 DUP(00H)
	DD	2 DUP(00H)
	DD	00H
	DD	01H
xdata$x	ENDS
;	COMDAT xdata$x
xdata$x	SEGMENT
__unwindtable$??$_Emplace@V?$basic_string@DU?$char_traits@D@std@@V?$allocator@D@2@@std@@@?$_Tree@V?$_Tset_traits@V?$basic_string@DU?$char_traits@D@std@@V?$allocator@D@2@@std@@U?$less@V?$basic_string@DU?$char_traits@D@std@@V?$allocator@D@2@@std@@@2@V?$allocator@V?$basic_string@DU?$char_traits@D@std@@V?$allocator@D@2@@std@@@2@$0A@@std@@@std@@IAE?AU?$pair@PAU?$_Tree_node@V?$basic_string@DU?$char_traits@D@std@@V?$allocator@D@2@@std@@PAX@std@@_N@1@$$QAV?$basic_string@DU?$char_traits@D@std@@V?$allocator@D@2@@1@@Z DD 0ffffffffH
	DD	FLAT:__unwindfunclet$??$_Emplace@V?$basic_string@DU?$char_traits@D@std@@V?$allocator@D@2@@std@@@?$_Tree@V?$_Tset_traits@V?$basic_string@DU?$char_traits@D@std@@V?$allocator@D@2@@std@@U?$less@V?$basic_string@DU?$char_traits@D@std@@V?$allocator@D@2@@std@@@2@V?$allocator@V?$basic_string@DU?$char_traits@D@std@@V?$allocator@D@2@@std@@@2@$0A@@std@@@std@@IAE?AU?$pair@PAU?$_Tree_node@V?$basic_string@DU?$char_traits@D@std@@V?$allocator@D@2@@std@@PAX@std@@_N@1@$$QAV?$basic_string@DU?$char_traits@D@std@@V?$allocator@D@2@@1@@Z$2
__ehfuncinfo$??$_Emplace@V?$basic_string@DU?$char_traits@D@std@@V?$allocator@D@2@@std@@@?$_Tree@V?$_Tset_traits@V?$basic_string@DU?$char_traits@D@std@@V?$allocator@D@2@@std@@U?$less@V?$basic_string@DU?$char_traits@D@std@@V?$allocator@D@2@@std@@@2@V?$allocator@V?$basic_string@DU?$char_traits@D@std@@V?$allocator@D@2@@std@@@2@$0A@@std@@@std@@IAE?AU?$pair@PAU?$_Tree_node@V?$basic_string@DU?$char_traits@D@std@@V?$allocator@D@2@@std@@PAX@std@@_N@1@$$QAV?$basic_string@DU?$char_traits@D@std@@V?$allocator@D@2@@1@@Z DD 019930522H
	DD	01H
	DD	FLAT:__unwindtable$??$_Emplace@V?$basic_string@DU?$char_traits@D@std@@V?$allocator@D@2@@std@@@?$_Tree@V?$_Tset_traits@V?$basic_string@DU?$char_traits@D@std@@V?$allocator@D@2@@std@@U?$less@V?$basic_string@DU?$char_traits@D@std@@V?$allocator@D@2@@std@@@2@V?$allocator@V?$basic_string@DU?$char_traits@D@std@@V?$allocator@D@2@@std@@@2@$0A@@std@@@std@@IAE?AU?$pair@PAU?$_Tree_node@V?$basic_string@DU?$char_traits@D@std@@V?$allocator@D@2@@std@@PAX@std@@_N@1@$$QAV?$basic_string@DU?$char_traits@D@std@@V?$allocator@D@2@@1@@Z
	DD	2 DUP(00H)
	DD	2 DUP(00H)
	DD	00H
	DD	01H
xdata$x	ENDS
;	COMDAT xdata$x
xdata$x	SEGMENT
__unwindtable$??$_Emplace@ABH@?$_Tree@V?$_Tset_traits@HU?$less@H@std@@V?$allocator@H@2@$0A@@std@@@std@@IAE?AU?$pair@PAU?$_Tree_node@HPAX@std@@_N@1@ABH@Z DD 0ffffffffH
	DD	FLAT:__unwindfunclet$??$_Emplace@ABH@?$_Tree@V?$_Tset_traits@HU?$less@H@std@@V?$allocator@H@2@$0A@@std@@@std@@IAE?AU?$pair@PAU?$_Tree_node@HPAX@std@@_N@1@ABH@Z$2
__ehfuncinfo$??$_Emplace@ABH@?$_Tree@V?$_Tset_traits@HU?$less@H@std@@V?$allocator@H@2@$0A@@std@@@std@@IAE?AU?$pair@PAU?$_Tree_node@HPAX@std@@_N@1@ABH@Z DD 019930522H
	DD	01H
	DD	FLAT:__unwindtable$??$_Emplace@ABH@?$_Tree@V?$_Tset_traits@HU?$less@H@std@@V?$allocator@H@2@$0A@@std@@@std@@IAE?AU?$pair@PAU?$_Tree_node@HPAX@std@@_N@1@ABH@Z
	DD	2 DUP(00H)
	DD	2 DUP(00H)
	DD	00H
	DD	01H
xdata$x	ENDS
;	COMDAT xdata$x
xdata$x	SEGMENT
__unwindtable$??$insert@U?$pair@KUSReserveTargetEffect@CPythonBackground@@@std@@$0A@@?$map@KUSReserveTargetEffect@CPythonBackground@@U?$less@K@std@@V?$allocator@U?$pair@$$CBKUSReserveTargetEffect@CPythonBackground@@@std@@@4@@std@@QAE?AU?$pair@V?$_Tree_iterator@V?$_Tree_val@U?$_Tree_simple_types@U?$pair@$$CBKUSReserveTargetEffect@CPythonBackground@@@std@@@std@@@std@@@std@@_N@1@$$QAU?$pair@KUSReserveTargetEffect@CPythonBackground@@@1@@Z DD 0ffffffffH
	DD	FLAT:__unwindfunclet$??$insert@U?$pair@KUSReserveTargetEffect@CPythonBackground@@@std@@$0A@@?$map@KUSReserveTargetEffect@CPythonBackground@@U?$less@K@std@@V?$allocator@U?$pair@$$CBKUSReserveTargetEffect@CPythonBackground@@@std@@@4@@std@@QAE?AU?$pair@V?$_Tree_iterator@V?$_Tree_val@U?$_Tree_simple_types@U?$pair@$$CBKUSReserveTargetEffect@CPythonBackground@@@std@@@std@@@std@@@std@@_N@1@$$QAU?$pair@KUSReserveTargetEffect@CPythonBackground@@@1@@Z$2
__ehfuncinfo$??$insert@U?$pair@KUSReserveTargetEffect@CPythonBackground@@@std@@$0A@@?$map@KUSReserveTargetEffect@CPythonBackground@@U?$less@K@std@@V?$allocator@U?$pair@$$CBKUSReserveTargetEffect@CPythonBackground@@@std@@@4@@std@@QAE?AU?$pair@V?$_Tree_iterator@V?$_Tree_val@U?$_Tree_simple_types@U?$pair@$$CBKUSReserveTargetEffect@CPythonBackground@@@std@@@std@@@std@@@std@@_N@1@$$QAU?$pair@KUSReserveTargetEffect@CPythonBackground@@@1@@Z DD 019930522H
	DD	01H
	DD	FLAT:__unwindtable$??$insert@U?$pair@KUSReserveTargetEffect@CPythonBackground@@@std@@$0A@@?$map@KUSReserveTargetEffect@CPythonBackground@@U?$less@K@std@@V?$allocator@U?$pair@$$CBKUSReserveTargetEffect@CPythonBackground@@@std@@@4@@std@@QAE?AU?$pair@V?$_Tree_iterator@V?$_Tree_val@U?$_Tree_simple_types@U?$pair@$$CBKUSReserveTargetEffect@CPythonBackground@@@std@@@std@@@std@@@std@@_N@1@$$QAU?$pair@KUSReserveTargetEffect@CPythonBackground@@@1@@Z
	DD	2 DUP(00H)
	DD	2 DUP(00H)
	DD	00H
	DD	01H
xdata$x	ENDS
;	COMDAT xdata$x
xdata$x	SEGMENT
__unwindtable$??$insert@U?$pair@KK@std@@$0A@@?$map@KKU?$less@K@std@@V?$allocator@U?$pair@$$CBKK@std@@@2@@std@@QAE?AU?$pair@V?$_Tree_iterator@V?$_Tree_val@U?$_Tree_simple_types@U?$pair@$$CBKK@std@@@std@@@std@@@std@@_N@1@$$QAU?$pair@KK@1@@Z DD 0ffffffffH
	DD	FLAT:__unwindfunclet$??$insert@U?$pair@KK@std@@$0A@@?$map@KKU?$less@K@std@@V?$allocator@U?$pair@$$CBKK@std@@@2@@std@@QAE?AU?$pair@V?$_Tree_iterator@V?$_Tree_val@U?$_Tree_simple_types@U?$pair@$$CBKK@std@@@std@@@std@@@std@@_N@1@$$QAU?$pair@KK@1@@Z$2
__ehfuncinfo$??$insert@U?$pair@KK@std@@$0A@@?$map@KKU?$less@K@std@@V?$allocator@U?$pair@$$CBKK@std@@@2@@std@@QAE?AU?$pair@V?$_Tree_iterator@V?$_Tree_val@U?$_Tree_simple_types@U?$pair@$$CBKK@std@@@std@@@std@@@std@@_N@1@$$QAU?$pair@KK@1@@Z DD 019930522H
	DD	01H
	DD	FLAT:__unwindtable$??$insert@U?$pair@KK@std@@$0A@@?$map@KKU?$less@K@std@@V?$allocator@U?$pair@$$CBKK@std@@@2@@std@@QAE?AU?$pair@V?$_Tree_iterator@V?$_Tree_val@U?$_Tree_simple_types@U?$pair@$$CBKK@std@@@std@@@std@@@std@@_N@1@$$QAU?$pair@KK@1@@Z
	DD	2 DUP(00H)
	DD	2 DUP(00H)
	DD	00H
	DD	01H
xdata$x	ENDS
;	COMDAT xdata$x
xdata$x	SEGMENT
__unwindtable$??$insert@$0A@$0A@@?$_Tree@V?$_Tset_traits@V?$basic_string@DU?$char_traits@D@std@@V?$allocator@D@2@@std@@U?$less@V?$basic_string@DU?$char_traits@D@std@@V?$allocator@D@2@@std@@@2@V?$allocator@V?$basic_string@DU?$char_traits@D@std@@V?$allocator@D@2@@std@@@2@$0A@@std@@@std@@QAE?AU?$pair@V?$_Tree_const_iterator@V?$_Tree_val@U?$_Tree_simple_types@V?$basic_string@DU?$char_traits@D@std@@V?$allocator@D@2@@std@@@std@@@std@@@std@@_N@1@$$QAV?$basic_string@DU?$char_traits@D@std@@V?$allocator@D@2@@1@@Z DD 0ffffffffH
	DD	FLAT:__unwindfunclet$??$insert@$0A@$0A@@?$_Tree@V?$_Tset_traits@V?$basic_string@DU?$char_traits@D@std@@V?$allocator@D@2@@std@@U?$less@V?$basic_string@DU?$char_traits@D@std@@V?$allocator@D@2@@std@@@2@V?$allocator@V?$basic_string@DU?$char_traits@D@std@@V?$allocator@D@2@@std@@@2@$0A@@std@@@std@@QAE?AU?$pair@V?$_Tree_const_iterator@V?$_Tree_val@U?$_Tree_simple_types@V?$basic_string@DU?$char_traits@D@std@@V?$allocator@D@2@@std@@@std@@@std@@@std@@_N@1@$$QAV?$basic_string@DU?$char_traits@D@std@@V?$allocator@D@2@@1@@Z$2
__ehfuncinfo$??$insert@$0A@$0A@@?$_Tree@V?$_Tset_traits@V?$basic_string@DU?$char_traits@D@std@@V?$allocator@D@2@@std@@U?$less@V?$basic_string@DU?$char_traits@D@std@@V?$allocator@D@2@@std@@@2@V?$allocator@V?$basic_string@DU?$char_traits@D@std@@V?$allocator@D@2@@std@@@2@$0A@@std@@@std@@QAE?AU?$pair@V?$_Tree_const_iterator@V?$_Tree_val@U?$_Tree_simple_types@V?$basic_string@DU?$char_traits@D@std@@V?$allocator@D@2@@std@@@std@@@std@@@std@@_N@1@$$QAV?$basic_string@DU?$char_traits@D@std@@V?$allocator@D@2@@1@@Z DD 019930522H
	DD	01H
	DD	FLAT:__unwindtable$??$insert@$0A@$0A@@?$_Tree@V?$_Tset_traits@V?$basic_string@DU?$char_traits@D@std@@V?$allocator@D@2@@std@@U?$less@V?$basic_string@DU?$char_traits@D@std@@V?$allocator@D@2@@std@@@2@V?$allocator@V?$basic_string@DU?$char_traits@D@std@@V?$allocator@D@2@@std@@@2@$0A@@std@@@std@@QAE?AU?$pair@V?$_Tree_const_iterator@V?$_Tree_val@U?$_Tree_simple_types@V?$basic_string@DU?$char_traits@D@std@@V?$allocator@D@2@@std@@@std@@@std@@@std@@_N@1@$$QAV?$basic_string@DU?$char_traits@D@std@@V?$allocator@D@2@@1@@Z
	DD	2 DUP(00H)
	DD	2 DUP(00H)
	DD	00H
	DD	01H
xdata$x	ENDS
;	COMDAT xdata$x
xdata$x	SEGMENT
__unwindtable$??$ForInRange@UCollisionChecker@@@CCullingManager@@QAEXABVVector3d@@MPAUCollisionChecker@@@Z DD 0ffffffffH
	DD	FLAT:__unwindfunclet$??$ForInRange@UCollisionChecker@@@CCullingManager@@QAEXABVVector3d@@MPAUCollisionChecker@@@Z$0
__ehfuncinfo$??$ForInRange@UCollisionChecker@@@CCullingManager@@QAEXABVVector3d@@MPAUCollisionChecker@@@Z DD 019930522H
	DD	01H
	DD	FLAT:__unwindtable$??$ForInRange@UCollisionChecker@@@CCullingManager@@QAEXABVVector3d@@MPAUCollisionChecker@@@Z
	DD	2 DUP(00H)
	DD	2 DUP(00H)
	DD	00H
	DD	01H
xdata$x	ENDS
;	COMDAT xdata$x
xdata$x	SEGMENT
__unwindtable$??$ForInRange@UCollisionAdjustChecker@@@CCullingManager@@QAEXABVVector3d@@MPAUCollisionAdjustChecker@@@Z DD 0ffffffffH
	DD	FLAT:__unwindfunclet$??$ForInRange@UCollisionAdjustChecker@@@CCullingManager@@QAEXABVVector3d@@MPAUCollisionAdjustChecker@@@Z$0
__ehfuncinfo$??$ForInRange@UCollisionAdjustChecker@@@CCullingManager@@QAEXABVVector3d@@MPAUCollisionAdjustChecker@@@Z DD 019930522H
	DD	01H
	DD	FLAT:__unwindtable$??$ForInRange@UCollisionAdjustChecker@@@CCullingManager@@QAEXABVVector3d@@MPAUCollisionAdjustChecker@@@Z
	DD	2 DUP(00H)
	DD	2 DUP(00H)
	DD	00H
	DD	01H
xdata$x	ENDS
;	COMDAT xdata$x
xdata$x	SEGMENT
__unwindtable$??$ForInRay@UFGetPortalID@@@CCullingManager@@QAEXABVVector3d@@0PAUFGetPortalID@@@Z DD 0ffffffffH
	DD	FLAT:__unwindfunclet$??$ForInRay@UFGetPortalID@@@CCullingManager@@QAEXABVVector3d@@0PAUFGetPortalID@@@Z$0
__ehfuncinfo$??$ForInRay@UFGetPortalID@@@CCullingManager@@QAEXABVVector3d@@0PAUFGetPortalID@@@Z DD 019930522H
	DD	01H
	DD	FLAT:__unwindtable$??$ForInRay@UFGetPortalID@@@CCullingManager@@QAEXABVVector3d@@0PAUFGetPortalID@@@Z
	DD	2 DUP(00H)
	DD	2 DUP(00H)
	DD	00H
	DD	01H
xdata$x	ENDS
;	COMDAT xdata$x
xdata$x	SEGMENT
__unwindtable$??$insert@$0A@$0A@@?$_Tree@V?$_Tset_traits@HU?$less@H@std@@V?$allocator@H@2@$0A@@std@@@std@@QAE?AU?$pair@V?$_Tree_const_iterator@V?$_Tree_val@U?$_Tree_simple_types@H@std@@@std@@@std@@_N@1@ABH@Z DD 0ffffffffH
	DD	FLAT:__unwindfunclet$??$insert@$0A@$0A@@?$_Tree@V?$_Tset_traits@HU?$less@H@std@@V?$allocator@H@2@$0A@@std@@@std@@QAE?AU?$pair@V?$_Tree_const_iterator@V?$_Tree_val@U?$_Tree_simple_types@H@std@@@std@@@std@@_N@1@ABH@Z$2
__ehfuncinfo$??$insert@$0A@$0A@@?$_Tree@V?$_Tset_traits@HU?$less@H@std@@V?$allocator@H@2@$0A@@std@@@std@@QAE?AU?$pair@V?$_Tree_const_iterator@V?$_Tree_val@U?$_Tree_simple_types@H@std@@@std@@@std@@_N@1@ABH@Z DD 019930522H
	DD	01H
	DD	FLAT:__unwindtable$??$insert@$0A@$0A@@?$_Tree@V?$_Tset_traits@HU?$less@H@std@@V?$allocator@H@2@$0A@@std@@@std@@QAE?AU?$pair@V?$_Tree_const_iterator@V?$_Tree_val@U?$_Tree_simple_types@H@std@@@std@@@std@@_N@1@ABH@Z
	DD	2 DUP(00H)
	DD	2 DUP(00H)
	DD	00H
	DD	01H
xdata$x	ENDS
;	COMDAT xdata$x
xdata$x	SEGMENT
__unwindtable$??RFGetPortalID@@QAEXPAVCGraphicObjectInstance@@@Z DD 0ffffffffH
	DD	FLAT:__unwindfunclet$??RFGetPortalID@@QAEXPAVCGraphicObjectInstance@@@Z$2
__ehfuncinfo$??RFGetPortalID@@QAEXPAVCGraphicObjectInstance@@@Z DD 019930522H
	DD	01H
	DD	FLAT:__unwindtable$??RFGetPortalID@@QAEXPAVCGraphicObjectInstance@@@Z
	DD	2 DUP(00H)
	DD	2 DUP(00H)
	DD	00H
	DD	01H
xdata$x	ENDS
;	COMDAT xdata$x
xdata$x	SEGMENT
__unwindtable$?__CreateProperty@CPythonBackground@@IAEXXZ DD 0ffffffffH
	DD	FLAT:__unwindfunclet$?__CreateProperty@CPythonBackground@@IAEXXZ$0
__ehfuncinfo$?__CreateProperty@CPythonBackground@@IAEXXZ DD 019930522H
	DD	01H
	DD	FLAT:__unwindtable$?__CreateProperty@CPythonBackground@@IAEXXZ
	DD	2 DUP(00H)
	DD	2 DUP(00H)
	DD	00H
	DD	01H
xdata$x	ENDS
;	COMDAT xdata$x
xdata$x	SEGMENT
__unwindtable$?RegisterDungeonMapName@CPythonBackground@@QAEXPBD@Z DD 0ffffffffH
	DD	FLAT:__unwindfunclet$?RegisterDungeonMapName@CPythonBackground@@QAEXPBD@Z$0
	DD	00H
	DD	FLAT:__unwindfunclet$?RegisterDungeonMapName@CPythonBackground@@QAEXPBD@Z$5
__ehfuncinfo$?RegisterDungeonMapName@CPythonBackground@@QAEXPBD@Z DD 019930522H
	DD	02H
	DD	FLAT:__unwindtable$?RegisterDungeonMapName@CPythonBackground@@QAEXPBD@Z
	DD	2 DUP(00H)
	DD	2 DUP(00H)
	DD	00H
	DD	01H
xdata$x	ENDS
;	COMDAT xdata$x
xdata$x	SEGMENT
__unwindtable$?CreateTargetEffect@CPythonBackground@@QAEXKJJ@Z DD 0ffffffffH
	DD	FLAT:__unwindfunclet$?CreateTargetEffect@CPythonBackground@@QAEXKJJ@Z$2
__ehfuncinfo$?CreateTargetEffect@CPythonBackground@@QAEXKJJ@Z DD 019930522H
	DD	01H
	DD	FLAT:__unwindtable$?CreateTargetEffect@CPythonBackground@@QAEXKJJ@Z
	DD	2 DUP(00H)
	DD	2 DUP(00H)
	DD	00H
	DD	01H
xdata$x	ENDS
;	COMDAT xdata$x
xdata$x	SEGMENT
__unwindtable$?CreateTargetEffect@CPythonBackground@@QAEXKK@Z DD 0ffffffffH
	DD	FLAT:__unwindfunclet$?CreateTargetEffect@CPythonBackground@@QAEXKK@Z$2
__ehfuncinfo$?CreateTargetEffect@CPythonBackground@@QAEXKK@Z DD 019930522H
	DD	01H
	DD	FLAT:__unwindtable$?CreateTargetEffect@CPythonBackground@@QAEXKK@Z
	DD	2 DUP(00H)
	DD	2 DUP(00H)
	DD	00H
	DD	01H
xdata$x	ENDS
;	COMDAT xdata$x
xdata$x	SEGMENT
__unwindtable$?SetXMaxTree@CPythonBackground@@QAEXH@Z DD 0ffffffffH
	DD	FLAT:__unwindfunclet$?SetXMaxTree@CPythonBackground@@QAEXH@Z$0
	DD	00H
	DD	FLAT:__unwindfunclet$?SetXMaxTree@CPythonBackground@@QAEXH@Z$1
	DD	0ffffffffH
	DD	FLAT:__unwindfunclet$?SetXMaxTree@CPythonBackground@@QAEXH@Z$3
	DD	02H
	DD	FLAT:__unwindfunclet$?SetXMaxTree@CPythonBackground@@QAEXH@Z$4
__ehfuncinfo$?SetXMaxTree@CPythonBackground@@QAEXH@Z DD 019930522H
	DD	04H
	DD	FLAT:__unwindtable$?SetXMaxTree@CPythonBackground@@QAEXH@Z
	DD	2 DUP(00H)
	DD	2 DUP(00H)
	DD	00H
	DD	01H
xdata$x	ENDS
;	COMDAT xdata$x
xdata$x	SEGMENT
__unwindtable$?CheckAdvancing@CPythonBackground@@QAE_NPAVCInstanceBase@@@Z DD 0ffffffffH
	DD	FLAT:__unwindfunclet$?CheckAdvancing@CPythonBackground@@QAE_NPAVCInstanceBase@@@Z$0
	DD	0ffffffffH
	DD	FLAT:__unwindfunclet$?CheckAdvancing@CPythonBackground@@QAE_NPAVCInstanceBase@@@Z$1
__ehfuncinfo$?CheckAdvancing@CPythonBackground@@QAE_NPAVCInstanceBase@@@Z DD 019930522H
	DD	02H
	DD	FLAT:__unwindtable$?CheckAdvancing@CPythonBackground@@QAE_NPAVCInstanceBase@@@Z
	DD	2 DUP(00H)
	DD	2 DUP(00H)
	DD	00H
	DD	01H
xdata$x	ENDS
;	COMDAT xdata$x
xdata$x	SEGMENT
__unwindtable$?Update@CPythonBackground@@QAEXMMM@Z DD 0ffffffffH
	DD	FLAT:__unwindfunclet$?Update@CPythonBackground@@QAEXMMM@Z$0
	DD	00H
	DD	FLAT:__unwindfunclet$?Update@CPythonBackground@@QAEXMMM@Z$3
__ehfuncinfo$?Update@CPythonBackground@@QAEXMMM@Z DD 019930522H
	DD	02H
	DD	FLAT:__unwindtable$?Update@CPythonBackground@@QAEXMMM@Z
	DD	2 DUP(00H)
	DD	2 DUP(00H)
	DD	00H
	DD	01H
xdata$x	ENDS
;	COMDAT xdata$x
xdata$x	SEGMENT
__unwindtable$?Initialize@CPythonBackground@@QAEXXZ DD 0ffffffffH
	DD	FLAT:__unwindfunclet$?Initialize@CPythonBackground@@QAEXXZ$0
__ehfuncinfo$?Initialize@CPythonBackground@@QAEXXZ DD 019930522H
	DD	01H
	DD	FLAT:__unwindtable$?Initialize@CPythonBackground@@QAEXXZ
	DD	2 DUP(00H)
	DD	2 DUP(00H)
	DD	00H
	DD	01H
xdata$x	ENDS
;	COMDAT xdata$x
xdata$x	SEGMENT
__ehfuncinfo$??1CPythonBackground@@UAE@XZ DD 019930522H
	DD	00H
	DD	00H
	DD	2 DUP(00H)
	DD	2 DUP(00H)
	DD	00H
	DD	05H
xdata$x	ENDS
;	COMDAT xdata$x
xdata$x	SEGMENT
__ehfuncinfo$??0CPythonBackground@@QAE@XZ DD 019930522H
	DD	08H
	DD	FLAT:__unwindtable$??0CPythonBackground@@QAE@XZ
	DD	2 DUP(00H)
	DD	2 DUP(00H)
	DD	00H
	DD	01H
__unwindtable$??0CPythonBackground@@QAE@XZ DD 0ffffffffH
	DD	FLAT:__unwindfunclet$??0CPythonBackground@@QAE@XZ$0
	DD	00H
	DD	FLAT:__unwindfunclet$??0CPythonBackground@@QAE@XZ$1
	DD	01H
	DD	FLAT:__unwindfunclet$??0CPythonBackground@@QAE@XZ$2
	DD	02H
	DD	FLAT:__unwindfunclet$??0CPythonBackground@@QAE@XZ$3
	DD	03H
	DD	FLAT:__unwindfunclet$??0CPythonBackground@@QAE@XZ$4
	DD	04H
	DD	FLAT:__unwindfunclet$??0CPythonBackground@@QAE@XZ$5
	DD	05H
	DD	FLAT:__unwindfunclet$??0CPythonBackground@@QAE@XZ$6
	DD	06H
	DD	FLAT:__unwindfunclet$??0CPythonBackground@@QAE@XZ$7
xdata$x	ENDS
;	COMDAT CRT$XCU
CRT$XCU	SEGMENT
??ms_kPool$initializer$@?$CPooledObject@VCHeaderDecorator@NEffectUpdateDecorator@@@@1P6AXXZA@@3P6AXXZA DD FLAT:??__E?ms_kPool@?$CPooledObject@VCHeaderDecorator@NEffectUpdateDecorator@@@@1V?$CDynamicPoolEx@VCHeaderDecorator@NEffectUpdateDecorator@@@@A@@YAXXZ ; ??ms_kPool$initializer$@?$CPooledObject@VCHeaderDecorator@NEffectUpdateDecorator@@@@1P6AXXZA@@3P6AXXZA
CRT$XCU	ENDS
;	COMDAT CRT$XCU
CRT$XCU	SEGMENT
??ms_kPool$initializer$@?$CPooledObject@VCNullDecorator@NEffectUpdateDecorator@@@@1P6AXXZA@@3P6AXXZA DD FLAT:??__E?ms_kPool@?$CPooledObject@VCNullDecorator@NEffectUpdateDecorator@@@@1V?$CDynamicPoolEx@VCNullDecorator@NEffectUpdateDecorator@@@@A@@YAXXZ ; ??ms_kPool$initializer$@?$CPooledObject@VCNullDecorator@NEffectUpdateDecorator@@@@1P6AXXZA@@3P6AXXZA
CRT$XCU	ENDS
;	COMDAT CRT$XCU
CRT$XCU	SEGMENT
??ms_kPool$initializer$@?$CPooledObject@VCTextureAnimationCWDecorator@NEffectUpdateDecorator@@@@1P6AXXZA@@3P6AXXZA DD FLAT:??__E?ms_kPool@?$CPooledObject@VCTextureAnimationCWDecorator@NEffectUpdateDecorator@@@@1V?$CDynamicPoolEx@VCTextureAnimationCWDecorator@NEffectUpdateDecorator@@@@A@@YAXXZ ; ??ms_kPool$initializer$@?$CPooledObject@VCTextureAnimationCWDecorator@NEffectUpdateDecorator@@@@1P6AXXZA@@3P6AXXZA
CRT$XCU	ENDS
;	COMDAT CRT$XCU
CRT$XCU	SEGMENT
??ms_kPool$initializer$@?$CPooledObject@VCTextureAnimationCCWDecorator@NEffectUpdateDecorator@@@@1P6AXXZA@@3P6AXXZA DD FLAT:??__E?ms_kPool@?$CPooledObject@VCTextureAnimationCCWDecorator@NEffectUpdateDecorator@@@@1V?$CDynamicPoolEx@VCTextureAnimationCCWDecorator@NEffectUpdateDecorator@@@@A@@YAXXZ ; ??ms_kPool$initializer$@?$CPooledObject@VCTextureAnimationCCWDecorator@NEffectUpdateDecorator@@@@1P6AXXZA@@3P6AXXZA
CRT$XCU	ENDS
;	COMDAT CRT$XCU
CRT$XCU	SEGMENT
??ms_kPool$initializer$@?$CPooledObject@VCTextureAnimationRandomDecorator@NEffectUpdateDecorator@@@@1P6AXXZA@@3P6AXXZA DD FLAT:??__E?ms_kPool@?$CPooledObject@VCTextureAnimationRandomDecorator@NEffectUpdateDecorator@@@@1V?$CDynamicPoolEx@VCTextureAnimationRandomDecorator@NEffectUpdateDecorator@@@@A@@YAXXZ ; ??ms_kPool$initializer$@?$CPooledObject@VCTextureAnimationRandomDecorator@NEffectUpdateDecorator@@@@1P6AXXZA@@3P6AXXZA
CRT$XCU	ENDS
;	COMDAT CRT$XCU
CRT$XCU	SEGMENT
??ms_kPool$initializer$@?$CPooledObject@VCAirResistanceDecorator@NEffectUpdateDecorator@@@@1P6AXXZA@@3P6AXXZA DD FLAT:??__E?ms_kPool@?$CPooledObject@VCAirResistanceDecorator@NEffectUpdateDecorator@@@@1V?$CDynamicPoolEx@VCAirResistanceDecorator@NEffectUpdateDecorator@@@@A@@YAXXZ ; ??ms_kPool$initializer$@?$CPooledObject@VCAirResistanceDecorator@NEffectUpdateDecorator@@@@1P6AXXZA@@3P6AXXZA
CRT$XCU	ENDS
;	COMDAT CRT$XCU
CRT$XCU	SEGMENT
??ms_kPool$initializer$@?$CPooledObject@VCGravityDecorator@NEffectUpdateDecorator@@@@1P6AXXZA@@3P6AXXZA DD FLAT:??__E?ms_kPool@?$CPooledObject@VCGravityDecorator@NEffectUpdateDecorator@@@@1V?$CDynamicPoolEx@VCGravityDecorator@NEffectUpdateDecorator@@@@A@@YAXXZ ; ??ms_kPool$initializer$@?$CPooledObject@VCGravityDecorator@NEffectUpdateDecorator@@@@1P6AXXZA@@3P6AXXZA
CRT$XCU	ENDS
;	COMDAT CRT$XCU
CRT$XCU	SEGMENT
??ms_kPool$initializer$@?$CPooledObject@VCRotationDecorator@NEffectUpdateDecorator@@@@1P6AXXZA@@3P6AXXZA DD FLAT:??__E?ms_kPool@?$CPooledObject@VCRotationDecorator@NEffectUpdateDecorator@@@@1V?$CDynamicPoolEx@VCRotationDecorator@NEffectUpdateDecorator@@@@A@@YAXXZ ; ??ms_kPool$initializer$@?$CPooledObject@VCRotationDecorator@NEffectUpdateDecorator@@@@1P6AXXZA@@3P6AXXZA
CRT$XCU	ENDS
; Function compile flags: /Odsp
;	COMDAT ??_ECPythonBackground@@WBENM@AEPAXI@Z
_TEXT	SEGMENT
??_ECPythonBackground@@WBENM@AEPAXI@Z PROC		; [thunk]:CPythonBackground::`vector deleting destructor', COMDAT
  00000	81 e9 dc 14 00
	00		 sub	 ecx, 5340		; 000014dcH
  00006	e9 00 00 00 00	 jmp	 ??_ECPythonBackground@@UAEPAXI@Z
??_ECPythonBackground@@WBENM@AEPAXI@Z ENDP		; [thunk]:CPythonBackground::`vector deleting destructor'
_TEXT	ENDS
; Function compile flags: /Odsp
;	COMDAT ??_ECPythonBackground@@W3AEPAXI@Z
_TEXT	SEGMENT
??_ECPythonBackground@@W3AEPAXI@Z PROC			; [thunk]:CPythonBackground::`vector deleting destructor', COMDAT
  00000	83 e9 04	 sub	 ecx, 4
  00003	e9 00 00 00 00	 jmp	 ??_ECPythonBackground@@UAEPAXI@Z
??_ECPythonBackground@@W3AEPAXI@Z ENDP			; [thunk]:CPythonBackground::`vector deleting destructor'
_TEXT	ENDS
; Function compile flags: /Ogtp
; File C:\Program Files (x86)\Microsoft Visual Studio\2019\Community\VC\Tools\MSVC\14.28.29333\include\xmemory
;	COMDAT ??$_Construct_in_place@PAU?$_Tree_node@U?$pair@$$CBKUSReserveTargetEffect@CPythonBackground@@@std@@PAX@std@@AAPAU12@@std@@YAXAAPAU?$_Tree_node@U?$pair@$$CBKUSReserveTargetEffect@CPythonBackground@@@std@@PAX@0@0@Z
_TEXT	SEGMENT
__Obj$ = 8						; size = 4
_<_Args_0>$ = 12					; size = 4
??$_Construct_in_place@PAU?$_Tree_node@U?$pair@$$CBKUSReserveTargetEffect@CPythonBackground@@@std@@PAX@std@@AAPAU12@@std@@YAXAAPAU?$_Tree_node@U?$pair@$$CBKUSReserveTargetEffect@CPythonBackground@@@std@@PAX@0@0@Z PROC ; std::_Construct_in_place<std::_Tree_node<std::pair<unsigned long const ,CPythonBackground::SReserveTargetEffect>,void *> *,std::_Tree_node<std::pair<unsigned long const ,CPythonBackground::SReserveTargetEffect>,void *> * &>, COMDAT

; 228  : void _Construct_in_place(_Ty& _Obj, _Types&&... _Args) noexcept(is_nothrow_constructible_v<_Ty, _Types...>) {

  00000	55		 push	 ebp
  00001	8b ec		 mov	 ebp, esp

; 229  :     ::new (const_cast<void*>(static_cast<const volatile void*>(_STD addressof(_Obj))))

  00003	8b 45 0c	 mov	 eax, DWORD PTR _<_Args_0>$[ebp]
  00006	8b 08		 mov	 ecx, DWORD PTR [eax]
  00008	8b 45 08	 mov	 eax, DWORD PTR __Obj$[ebp]
  0000b	89 08		 mov	 DWORD PTR [eax], ecx

; 230  :         _Ty(_STD forward<_Types>(_Args)...);
; 231  : }

  0000d	5d		 pop	 ebp
  0000e	c3		 ret	 0
??$_Construct_in_place@PAU?$_Tree_node@U?$pair@$$CBKUSReserveTargetEffect@CPythonBackground@@@std@@PAX@std@@AAPAU12@@std@@YAXAAPAU?$_Tree_node@U?$pair@$$CBKUSReserveTargetEffect@CPythonBackground@@@std@@PAX@0@0@Z ENDP ; std::_Construct_in_place<std::_Tree_node<std::pair<unsigned long const ,CPythonBackground::SReserveTargetEffect>,void *> *,std::_Tree_node<std::pair<unsigned long const ,CPythonBackground::SReserveTargetEffect>,void *> * &>
_TEXT	ENDS
; Function compile flags: /Ogtp
; File C:\Program Files (x86)\Microsoft Visual Studio\2019\Community\VC\Tools\MSVC\14.28.29333\include\xmemory
;	COMDAT ??$_Construct_in_place@PAU?$_Tree_node@U?$pair@$$CBKK@std@@PAX@std@@AAPAU12@@std@@YAXAAPAU?$_Tree_node@U?$pair@$$CBKK@std@@PAX@0@0@Z
_TEXT	SEGMENT
__Obj$ = 8						; size = 4
_<_Args_0>$ = 12					; size = 4
??$_Construct_in_place@PAU?$_Tree_node@U?$pair@$$CBKK@std@@PAX@std@@AAPAU12@@std@@YAXAAPAU?$_Tree_node@U?$pair@$$CBKK@std@@PAX@0@0@Z PROC ; std::_Construct_in_place<std::_Tree_node<std::pair<unsigned long const ,unsigned long>,void *> *,std::_Tree_node<std::pair<unsigned long const ,unsigned long>,void *> * &>, COMDAT

; 228  : void _Construct_in_place(_Ty& _Obj, _Types&&... _Args) noexcept(is_nothrow_constructible_v<_Ty, _Types...>) {

  00000	55		 push	 ebp
  00001	8b ec		 mov	 ebp, esp

; 229  :     ::new (const_cast<void*>(static_cast<const volatile void*>(_STD addressof(_Obj))))

  00003	8b 45 0c	 mov	 eax, DWORD PTR _<_Args_0>$[ebp]
  00006	8b 08		 mov	 ecx, DWORD PTR [eax]
  00008	8b 45 08	 mov	 eax, DWORD PTR __Obj$[ebp]
  0000b	89 08		 mov	 DWORD PTR [eax], ecx

; 230  :         _Ty(_STD forward<_Types>(_Args)...);
; 231  : }

  0000d	5d		 pop	 ebp
  0000e	c3		 ret	 0
??$_Construct_in_place@PAU?$_Tree_node@U?$pair@$$CBKK@std@@PAX@std@@AAPAU12@@std@@YAXAAPAU?$_Tree_node@U?$pair@$$CBKK@std@@PAX@0@0@Z ENDP ; std::_Construct_in_place<std::_Tree_node<std::pair<unsigned long const ,unsigned long>,void *> *,std::_Tree_node<std::pair<unsigned long const ,unsigned long>,void *> * &>
_TEXT	ENDS
; Function compile flags: /Ogtp
; File C:\Program Files (x86)\Microsoft Visual Studio\2019\Community\VC\Tools\MSVC\14.28.29333\include\xmemory
;	COMDAT ??1?$_Alloc_construct_ptr@V?$allocator@U?$_Tree_node@U?$pair@$$CBKUSReserveTargetEffect@CPythonBackground@@@std@@PAX@std@@@std@@@std@@QAE@XZ
_TEXT	SEGMENT
??1?$_Alloc_construct_ptr@V?$allocator@U?$_Tree_node@U?$pair@$$CBKUSReserveTargetEffect@CPythonBackground@@@std@@PAX@std@@@std@@@std@@QAE@XZ PROC ; std::_Alloc_construct_ptr<std::allocator<std::_Tree_node<std::pair<unsigned long const ,CPythonBackground::SReserveTargetEffect>,void *> > >::~_Alloc_construct_ptr<std::allocator<std::_Tree_node<std::pair<unsigned long const ,CPythonBackground::SReserveTargetEffect>,void *> > >, COMDAT
; _this$ = ecx

; 1057 :         if (_Ptr) {

  00000	8b 41 04	 mov	 eax, DWORD PTR [ecx+4]
  00003	85 c0		 test	 eax, eax
  00005	74 0b		 je	 SHORT $LN2@Alloc_cons

; 810  :         _Deallocate<_New_alignof<_Ty>>(_Ptr, sizeof(_Ty) * _Count);

  00007	6a 1c		 push	 28			; 0000001cH
  00009	50		 push	 eax
  0000a	e8 00 00 00 00	 call	 ??$_Deallocate@$07$0A@@std@@YAXPAXI@Z ; std::_Deallocate<8,0>
  0000f	83 c4 08	 add	 esp, 8
$LN2@Alloc_cons:

; 1058 :             _Al.deallocate(_Ptr, 1);
; 1059 :         }
; 1060 :     }

  00012	c3		 ret	 0
??1?$_Alloc_construct_ptr@V?$allocator@U?$_Tree_node@U?$pair@$$CBKUSReserveTargetEffect@CPythonBackground@@@std@@PAX@std@@@std@@@std@@QAE@XZ ENDP ; std::_Alloc_construct_ptr<std::allocator<std::_Tree_node<std::pair<unsigned long const ,CPythonBackground::SReserveTargetEffect>,void *> > >::~_Alloc_construct_ptr<std::allocator<std::_Tree_node<std::pair<unsigned long const ,CPythonBackground::SReserveTargetEffect>,void *> > >
_TEXT	ENDS
; Function compile flags: /Ogtp
; File C:\Program Files (x86)\Microsoft Visual Studio\2019\Community\VC\Tools\MSVC\14.28.29333\include\xmemory
;	COMDAT ??1?$_Alloc_construct_ptr@V?$allocator@U?$_Tree_node@U?$pair@$$CBKK@std@@PAX@std@@@std@@@std@@QAE@XZ
_TEXT	SEGMENT
??1?$_Alloc_construct_ptr@V?$allocator@U?$_Tree_node@U?$pair@$$CBKK@std@@PAX@std@@@std@@@std@@QAE@XZ PROC ; std::_Alloc_construct_ptr<std::allocator<std::_Tree_node<std::pair<unsigned long const ,unsigned long>,void *> > >::~_Alloc_construct_ptr<std::allocator<std::_Tree_node<std::pair<unsigned long const ,unsigned long>,void *> > >, COMDAT
; _this$ = ecx

; 1057 :         if (_Ptr) {

  00000	8b 41 04	 mov	 eax, DWORD PTR [ecx+4]
  00003	85 c0		 test	 eax, eax
  00005	74 0b		 je	 SHORT $LN2@Alloc_cons

; 810  :         _Deallocate<_New_alignof<_Ty>>(_Ptr, sizeof(_Ty) * _Count);

  00007	6a 18		 push	 24			; 00000018H
  00009	50		 push	 eax
  0000a	e8 00 00 00 00	 call	 ??$_Deallocate@$07$0A@@std@@YAXPAXI@Z ; std::_Deallocate<8,0>
  0000f	83 c4 08	 add	 esp, 8
$LN2@Alloc_cons:

; 1058 :             _Al.deallocate(_Ptr, 1);
; 1059 :         }
; 1060 :     }

  00012	c3		 ret	 0
??1?$_Alloc_construct_ptr@V?$allocator@U?$_Tree_node@U?$pair@$$CBKK@std@@PAX@std@@@std@@@std@@QAE@XZ ENDP ; std::_Alloc_construct_ptr<std::allocator<std::_Tree_node<std::pair<unsigned long const ,unsigned long>,void *> > >::~_Alloc_construct_ptr<std::allocator<std::_Tree_node<std::pair<unsigned long const ,unsigned long>,void *> > >
_TEXT	ENDS
; Function compile flags: /Ogtp
; File C:\Program Files (x86)\Microsoft Visual Studio\2019\Community\VC\Tools\MSVC\14.28.29333\include\xmemory
;	COMDAT ??$_Construct_in_place@PAU?$_Tree_node@V?$basic_string@DU?$char_traits@D@std@@V?$allocator@D@2@@std@@PAX@std@@AAPAU12@@std@@YAXAAPAU?$_Tree_node@V?$basic_string@DU?$char_traits@D@std@@V?$allocator@D@2@@std@@PAX@0@0@Z
_TEXT	SEGMENT
__Obj$ = 8						; size = 4
_<_Args_0>$ = 12					; size = 4
??$_Construct_in_place@PAU?$_Tree_node@V?$basic_string@DU?$char_traits@D@std@@V?$allocator@D@2@@std@@PAX@std@@AAPAU12@@std@@YAXAAPAU?$_Tree_node@V?$basic_string@DU?$char_traits@D@std@@V?$allocator@D@2@@std@@PAX@0@0@Z PROC ; std::_Construct_in_place<std::_Tree_node<std::basic_string<char,std::char_traits<char>,std::allocator<char> >,void *> *,std::_Tree_node<std::basic_string<char,std::char_traits<char>,std::allocator<char> >,void *> * &>, COMDAT

; 228  : void _Construct_in_place(_Ty& _Obj, _Types&&... _Args) noexcept(is_nothrow_constructible_v<_Ty, _Types...>) {

  00000	55		 push	 ebp
  00001	8b ec		 mov	 ebp, esp

; 229  :     ::new (const_cast<void*>(static_cast<const volatile void*>(_STD addressof(_Obj))))

  00003	8b 45 0c	 mov	 eax, DWORD PTR _<_Args_0>$[ebp]
  00006	8b 08		 mov	 ecx, DWORD PTR [eax]
  00008	8b 45 08	 mov	 eax, DWORD PTR __Obj$[ebp]
  0000b	89 08		 mov	 DWORD PTR [eax], ecx

; 230  :         _Ty(_STD forward<_Types>(_Args)...);
; 231  : }

  0000d	5d		 pop	 ebp
  0000e	c3		 ret	 0
??$_Construct_in_place@PAU?$_Tree_node@V?$basic_string@DU?$char_traits@D@std@@V?$allocator@D@2@@std@@PAX@std@@AAPAU12@@std@@YAXAAPAU?$_Tree_node@V?$basic_string@DU?$char_traits@D@std@@V?$allocator@D@2@@std@@PAX@0@0@Z ENDP ; std::_Construct_in_place<std::_Tree_node<std::basic_string<char,std::char_traits<char>,std::allocator<char> >,void *> *,std::_Tree_node<std::basic_string<char,std::char_traits<char>,std::allocator<char> >,void *> * &>
_TEXT	ENDS
; Function compile flags: /Ogtp
; File C:\Program Files (x86)\Microsoft Visual Studio\2019\Community\VC\Tools\MSVC\14.28.29333\include\xmemory
;	COMDAT ??$_Construct_in_place@PAU?$_Tree_node@HPAX@std@@AAPAU12@@std@@YAXAAPAU?$_Tree_node@HPAX@0@0@Z
_TEXT	SEGMENT
__Obj$ = 8						; size = 4
_<_Args_0>$ = 12					; size = 4
??$_Construct_in_place@PAU?$_Tree_node@HPAX@std@@AAPAU12@@std@@YAXAAPAU?$_Tree_node@HPAX@0@0@Z PROC ; std::_Construct_in_place<std::_Tree_node<int,void *> *,std::_Tree_node<int,void *> * &>, COMDAT

; 228  : void _Construct_in_place(_Ty& _Obj, _Types&&... _Args) noexcept(is_nothrow_constructible_v<_Ty, _Types...>) {

  00000	55		 push	 ebp
  00001	8b ec		 mov	 ebp, esp

; 229  :     ::new (const_cast<void*>(static_cast<const volatile void*>(_STD addressof(_Obj))))

  00003	8b 45 0c	 mov	 eax, DWORD PTR _<_Args_0>$[ebp]
  00006	8b 08		 mov	 ecx, DWORD PTR [eax]
  00008	8b 45 08	 mov	 eax, DWORD PTR __Obj$[ebp]
  0000b	89 08		 mov	 DWORD PTR [eax], ecx

; 230  :         _Ty(_STD forward<_Types>(_Args)...);
; 231  : }

  0000d	5d		 pop	 ebp
  0000e	c3		 ret	 0
??$_Construct_in_place@PAU?$_Tree_node@HPAX@std@@AAPAU12@@std@@YAXAAPAU?$_Tree_node@HPAX@0@0@Z ENDP ; std::_Construct_in_place<std::_Tree_node<int,void *> *,std::_Tree_node<int,void *> * &>
_TEXT	ENDS
; Function compile flags: /Ogtp
; File C:\Program Files (x86)\Microsoft Visual Studio\2019\Community\VC\Tools\MSVC\14.28.29333\include\xstring
; File C:\Program Files (x86)\Microsoft Visual Studio\2019\Community\VC\Tools\MSVC\14.28.29333\include\utility
; File C:\Program Files (x86)\Microsoft Visual Studio\2019\Community\VC\Tools\MSVC\14.28.29333\include\xstring
; File C:\Program Files (x86)\Microsoft Visual Studio\2019\Community\VC\Tools\MSVC\14.28.29333\include\utility
; File C:\Program Files (x86)\Microsoft Visual Studio\2019\Community\VC\Tools\MSVC\14.28.29333\include\xstring
;	COMDAT ??$?MDU?$char_traits@D@std@@V?$allocator@D@1@@std@@YA_NABV?$basic_string@DU?$char_traits@D@std@@V?$allocator@D@2@@0@0@Z
_TEXT	SEGMENT
__Left$ = 8						; size = 4
__Right$ = 12						; size = 4
??$?MDU?$char_traits@D@std@@V?$allocator@D@1@@std@@YA_NABV?$basic_string@DU?$char_traits@D@std@@V?$allocator@D@2@@0@0@Z PROC ; std::operator<<char,std::char_traits<char>,std::allocator<char> >, COMDAT

; 4586 :     const basic_string<_Elem, _Traits, _Alloc>& _Left, const basic_string<_Elem, _Traits, _Alloc>& _Right) noexcept {

  00000	55		 push	 ebp
  00001	8b ec		 mov	 ebp, esp

; 2218 :         const value_type* _Result = _Bx._Buf;

  00003	8b 45 0c	 mov	 eax, DWORD PTR __Right$[ebp]
  00006	8b c8		 mov	 ecx, eax

; 2227 :         return _BUF_SIZE <= _Myres;

  00008	83 78 14 10	 cmp	 DWORD PTR [eax+20], 16	; 00000010H

; 2219 :         if (_Large_string_engaged()) {

  0000c	72 02		 jb	 SHORT $LN6@operator

; 2220 :             _Result = _Unfancy(_Bx._Ptr);

  0000e	8b 08		 mov	 ecx, DWORD PTR [eax]
$LN6@operator:
  00010	53		 push	 ebx
  00011	56		 push	 esi

; 2218 :         const value_type* _Result = _Bx._Buf;

  00012	8b 75 08	 mov	 esi, DWORD PTR __Left$[ebp]
  00015	8b d6		 mov	 edx, esi
  00017	57		 push	 edi

; 2227 :         return _BUF_SIZE <= _Myres;

  00018	83 7e 14 10	 cmp	 DWORD PTR [esi+20], 16	; 00000010H

; 2219 :         if (_Large_string_engaged()) {

  0001c	72 02		 jb	 SHORT $LN11@operator

; 2220 :             _Result = _Unfancy(_Bx._Ptr);

  0001e	8b 16		 mov	 edx, DWORD PTR [esi]
$LN11@operator:

; 4213 :         return _Traits_compare<_Traits>(_Mypair._Myval2._Myptr(), _Mypair._Myval2._Mysize,

  00020	8b 5e 10	 mov	 ebx, DWORD PTR [esi+16]
; File C:\Program Files (x86)\Microsoft Visual Studio\2019\Community\VC\Tools\MSVC\14.28.29333\include\utility

; 68   :     return _Right < _Left ? _Right : _Left;

  00023	8b f3		 mov	 esi, ebx
; File C:\Program Files (x86)\Microsoft Visual Studio\2019\Community\VC\Tools\MSVC\14.28.29333\include\xstring

; 4213 :         return _Traits_compare<_Traits>(_Mypair._Myval2._Myptr(), _Mypair._Myval2._Mysize,

  00025	8b 78 10	 mov	 edi, DWORD PTR [eax+16]
; File C:\Program Files (x86)\Microsoft Visual Studio\2019\Community\VC\Tools\MSVC\14.28.29333\include\utility

; 68   :     return _Right < _Left ? _Right : _Left;

  00028	3b fb		 cmp	 edi, ebx
  0002a	0f 42 f7	 cmovb	 esi, edi
; File C:\Program Files (x86)\Microsoft Visual Studio\2019\Community\VC\Tools\MSVC\14.28.29333\include\xstring

; 369  :         return _CSTD memcmp(_First1, _First2, _Count);

  0002d	83 ee 04	 sub	 esi, 4
  00030	72 11		 jb	 SHORT $LN26@operator
$LL27@operator:
  00032	8b 02		 mov	 eax, DWORD PTR [edx]
  00034	3b 01		 cmp	 eax, DWORD PTR [ecx]
  00036	75 10		 jne	 SHORT $LN25@operator
  00038	83 c2 04	 add	 edx, 4
  0003b	83 c1 04	 add	 ecx, 4
  0003e	83 ee 04	 sub	 esi, 4
  00041	73 ef		 jae	 SHORT $LL27@operator
$LN26@operator:
  00043	83 fe fc	 cmp	 esi, -4			; fffffffcH
  00046	74 34		 je	 SHORT $LN24@operator
$LN25@operator:
  00048	8a 02		 mov	 al, BYTE PTR [edx]
  0004a	3a 01		 cmp	 al, BYTE PTR [ecx]
  0004c	75 27		 jne	 SHORT $LN28@operator
  0004e	83 fe fd	 cmp	 esi, -3			; fffffffdH
  00051	74 29		 je	 SHORT $LN24@operator
  00053	8a 42 01	 mov	 al, BYTE PTR [edx+1]
  00056	3a 41 01	 cmp	 al, BYTE PTR [ecx+1]
  00059	75 1a		 jne	 SHORT $LN28@operator
  0005b	83 fe fe	 cmp	 esi, -2			; fffffffeH
  0005e	74 1c		 je	 SHORT $LN24@operator
  00060	8a 42 02	 mov	 al, BYTE PTR [edx+2]
  00063	3a 41 02	 cmp	 al, BYTE PTR [ecx+2]
  00066	75 0d		 jne	 SHORT $LN28@operator
  00068	83 fe ff	 cmp	 esi, -1
  0006b	74 0f		 je	 SHORT $LN24@operator
  0006d	8a 42 03	 mov	 al, BYTE PTR [edx+3]
  00070	3a 41 03	 cmp	 al, BYTE PTR [ecx+3]
  00073	74 07		 je	 SHORT $LN24@operator
$LN28@operator:
  00075	1b c0		 sbb	 eax, eax
  00077	83 c8 01	 or	 eax, 1
  0007a	eb 02		 jmp	 SHORT $LN29@operator
$LN24@operator:
  0007c	33 c0		 xor	 eax, eax
$LN29@operator:

; 570  :     if (_Ans != 0) {

  0007e	85 c0		 test	 eax, eax
  00080	75 13		 jne	 SHORT $LN18@operator

; 571  :         return _Ans;
; 572  :     }
; 573  : 
; 574  :     if (_Left_size < _Right_size) {

  00082	3b fb		 cmp	 edi, ebx
  00084	76 0b		 jbe	 SHORT $LN30@operator

; 4587 :     return _Left.compare(_Right) < 0;

  00086	5f		 pop	 edi

; 575  :         return -1;

  00087	83 c8 ff	 or	 eax, -1

; 4587 :     return _Left.compare(_Right) < 0;

  0008a	5e		 pop	 esi
  0008b	c1 e8 1f	 shr	 eax, 31			; 0000001fH
  0008e	5b		 pop	 ebx

; 4588 : }

  0008f	5d		 pop	 ebp
  00090	c3		 ret	 0
$LN30@operator:

; 578  :     if (_Left_size > _Right_size) {

  00091	1b c0		 sbb	 eax, eax
  00093	f7 d8		 neg	 eax
$LN18@operator:

; 4587 :     return _Left.compare(_Right) < 0;

  00095	5f		 pop	 edi
  00096	5e		 pop	 esi
  00097	c1 e8 1f	 shr	 eax, 31			; 0000001fH
  0009a	5b		 pop	 ebx

; 4588 : }

  0009b	5d		 pop	 ebp
  0009c	c3		 ret	 0
??$?MDU?$char_traits@D@std@@V?$allocator@D@1@@std@@YA_NABV?$basic_string@DU?$char_traits@D@std@@V?$allocator@D@2@@0@0@Z ENDP ; std::operator<<char,std::char_traits<char>,std::allocator<char> >
_TEXT	ENDS
; Function compile flags: /Ogtp
; File C:\Program Files (x86)\Microsoft Visual Studio\2019\Community\VC\Tools\MSVC\14.28.29333\include\xmemory
;	COMDAT ??$_Refancy@PAUTMapInfo@CMapManager@@$0A@@std@@YAPAUTMapInfo@CMapManager@@PAU12@@Z
_TEXT	SEGMENT
__Ptr$ = 8						; size = 4
??$_Refancy@PAUTMapInfo@CMapManager@@$0A@@std@@YAPAUTMapInfo@CMapManager@@PAU12@@Z PROC ; std::_Refancy<CMapManager::TMapInfo *,0>, COMDAT

; 261  : _Pointer _Refancy(_Pointer _Ptr) noexcept {

  00000	55		 push	 ebp
  00001	8b ec		 mov	 ebp, esp

; 262  :     return _Ptr;

  00003	8b 45 08	 mov	 eax, DWORD PTR __Ptr$[ebp]

; 263  : }

  00006	5d		 pop	 ebp
  00007	c3		 ret	 0
??$_Refancy@PAUTMapInfo@CMapManager@@$0A@@std@@YAPAUTMapInfo@CMapManager@@PAU12@@Z ENDP ; std::_Refancy<CMapManager::TMapInfo *,0>
_TEXT	ENDS
; Function compile flags: /Ogtp
; File C:\Program Files (x86)\Microsoft Visual Studio\2019\Community\VC\Tools\MSVC\14.28.29333\include\xtree
; File C:\Program Files (x86)\Microsoft Visual Studio\2019\Community\VC\Tools\MSVC\14.28.29333\include\utility
; File C:\Program Files (x86)\Microsoft Visual Studio\2019\Community\VC\Tools\MSVC\14.28.29333\include\xmemory
; File C:\Program Files (x86)\Microsoft Visual Studio\2019\Community\VC\Tools\MSVC\14.28.29333\include\xtree
;	COMDAT ??$_Erase_tree_and_orphan@V?$allocator@U?$_Tree_node@HPAX@std@@@std@@@?$_Tree_val@U?$_Tree_simple_types@H@std@@@std@@QAEXAAV?$allocator@U?$_Tree_node@HPAX@std@@@1@PAU?$_Tree_node@HPAX@1@@Z
_TEXT	SEGMENT
__Al$ = 8						; size = 4
__Rootnode$ = 12					; size = 4
??$_Erase_tree_and_orphan@V?$allocator@U?$_Tree_node@HPAX@std@@@std@@@?$_Tree_val@U?$_Tree_simple_types@H@std@@@std@@QAEXAAV?$allocator@U?$_Tree_node@HPAX@std@@@1@PAU?$_Tree_node@HPAX@1@@Z PROC ; std::_Tree_val<std::_Tree_simple_types<int> >::_Erase_tree_and_orphan<std::allocator<std::_Tree_node<int,void *> > >, COMDAT
; _this$ = ecx

; 732  :     void _Erase_tree_and_orphan(_Alnode& _Al, _Nodeptr _Rootnode) noexcept {

  00000	55		 push	 ebp
  00001	8b ec		 mov	 ebp, esp
  00003	53		 push	 ebx
  00004	56		 push	 esi

; 733  :         while (!_Rootnode->_Isnil) { // free subtrees, then node

  00005	8b 75 0c	 mov	 esi, DWORD PTR __Rootnode$[ebp]
  00008	8b d9		 mov	 ebx, ecx
  0000a	80 7e 0d 00	 cmp	 BYTE PTR [esi+13], 0
  0000e	75 25		 jne	 SHORT $LN3@Erase_tree
  00010	57		 push	 edi
  00011	8b 7d 08	 mov	 edi, DWORD PTR __Al$[ebp]
$LL2@Erase_tree:

; 734  :             _Erase_tree_and_orphan(_Al, _Rootnode->_Right);

  00014	ff 76 08	 push	 DWORD PTR [esi+8]
  00017	8b cb		 mov	 ecx, ebx
  00019	57		 push	 edi
  0001a	e8 00 00 00 00	 call	 ??$_Erase_tree_and_orphan@V?$allocator@U?$_Tree_node@HPAX@std@@@std@@@?$_Tree_val@U?$_Tree_simple_types@H@std@@@std@@QAEXAAV?$allocator@U?$_Tree_node@HPAX@std@@@1@PAU?$_Tree_node@HPAX@1@@Z ; std::_Tree_val<std::_Tree_simple_types<int> >::_Erase_tree_and_orphan<std::allocator<std::_Tree_node<int,void *> > >
; File C:\Program Files (x86)\Microsoft Visual Studio\2019\Community\VC\Tools\MSVC\14.28.29333\include\utility

; 598  :     _Ty _Old_val = static_cast<_Ty&&>(_Val);

  0001f	8b c6		 mov	 eax, esi

; 599  :     _Val         = static_cast<_Other&&>(_New_val);

  00021	8b 36		 mov	 esi, DWORD PTR [esi]
; File C:\Program Files (x86)\Microsoft Visual Studio\2019\Community\VC\Tools\MSVC\14.28.29333\include\xmemory

; 696  :         _Deallocate<_New_alignof<value_type>>(_Ptr, sizeof(value_type) * _Count);

  00023	6a 14		 push	 20			; 00000014H
  00025	50		 push	 eax
  00026	e8 00 00 00 00	 call	 ??$_Deallocate@$07$0A@@std@@YAXPAXI@Z ; std::_Deallocate<8,0>
  0002b	83 c4 08	 add	 esp, 8
; File C:\Program Files (x86)\Microsoft Visual Studio\2019\Community\VC\Tools\MSVC\14.28.29333\include\xtree

; 733  :         while (!_Rootnode->_Isnil) { // free subtrees, then node

  0002e	80 7e 0d 00	 cmp	 BYTE PTR [esi+13], 0
  00032	74 e0		 je	 SHORT $LL2@Erase_tree
  00034	5f		 pop	 edi
$LN3@Erase_tree:
  00035	5e		 pop	 esi

; 735  :             auto _To_delete = _STD exchange(_Rootnode, _Rootnode->_Left);
; 736  :             _Orphan_ptr(_To_delete);
; 737  :             _Alnode::value_type::_Freenode(_Al, _To_delete);
; 738  :         }
; 739  :     }

  00036	5b		 pop	 ebx
  00037	5d		 pop	 ebp
  00038	c2 08 00	 ret	 8
??$_Erase_tree_and_orphan@V?$allocator@U?$_Tree_node@HPAX@std@@@std@@@?$_Tree_val@U?$_Tree_simple_types@H@std@@@std@@QAEXAAV?$allocator@U?$_Tree_node@HPAX@std@@@1@PAU?$_Tree_node@HPAX@1@@Z ENDP ; std::_Tree_val<std::_Tree_simple_types<int> >::_Erase_tree_and_orphan<std::allocator<std::_Tree_node<int,void *> > >
_TEXT	ENDS
; Function compile flags: /Ogtp
; File C:\Program Files (x86)\Microsoft Visual Studio\2019\Community\VC\Tools\MSVC\14.28.29333\include\xmemory
;	COMDAT ??$_Destroy_in_place@PAU?$_Tree_node@HPAX@std@@@std@@YAXAAPAU?$_Tree_node@HPAX@0@@Z
_TEXT	SEGMENT
__Obj$ = 8						; size = 4
??$_Destroy_in_place@PAU?$_Tree_node@HPAX@std@@@std@@YAXAAPAU?$_Tree_node@HPAX@0@@Z PROC ; std::_Destroy_in_place<std::_Tree_node<int,void *> *>, COMDAT

; 271  : #if _HAS_IF_CONSTEXPR
; 272  :     if constexpr (is_array_v<_Ty>) {
; 273  :         _Destroy_range(_Obj, _Obj + extent_v<_Ty>);
; 274  :     } else
; 275  : #endif // _HAS_IF_CONSTEXPR
; 276  :     {
; 277  :         _Obj.~_Ty();
; 278  :     }
; 279  : }

  00000	c2 00 00	 ret	 0
??$_Destroy_in_place@PAU?$_Tree_node@HPAX@std@@@std@@YAXAAPAU?$_Tree_node@HPAX@0@@Z ENDP ; std::_Destroy_in_place<std::_Tree_node<int,void *> *>
_TEXT	ENDS
; Function compile flags: /Ogtp
; File C:\Program Files (x86)\Microsoft Visual Studio\2019\Community\VC\Tools\MSVC\14.28.29333\include\xmemory
;	COMDAT ??$_Destroy_in_place@PAU?$_Tree_node@V?$basic_string@DU?$char_traits@D@std@@V?$allocator@D@2@@std@@PAX@std@@@std@@YAXAAPAU?$_Tree_node@V?$basic_string@DU?$char_traits@D@std@@V?$allocator@D@2@@std@@PAX@0@@Z
_TEXT	SEGMENT
__Obj$ = 8						; size = 4
??$_Destroy_in_place@PAU?$_Tree_node@V?$basic_string@DU?$char_traits@D@std@@V?$allocator@D@2@@std@@PAX@std@@@std@@YAXAAPAU?$_Tree_node@V?$basic_string@DU?$char_traits@D@std@@V?$allocator@D@2@@std@@PAX@0@@Z PROC ; std::_Destroy_in_place<std::_Tree_node<std::basic_string<char,std::char_traits<char>,std::allocator<char> >,void *> *>, COMDAT

; 271  : #if _HAS_IF_CONSTEXPR
; 272  :     if constexpr (is_array_v<_Ty>) {
; 273  :         _Destroy_range(_Obj, _Obj + extent_v<_Ty>);
; 274  :     } else
; 275  : #endif // _HAS_IF_CONSTEXPR
; 276  :     {
; 277  :         _Obj.~_Ty();
; 278  :     }
; 279  : }

  00000	c2 00 00	 ret	 0
??$_Destroy_in_place@PAU?$_Tree_node@V?$basic_string@DU?$char_traits@D@std@@V?$allocator@D@2@@std@@PAX@std@@@std@@YAXAAPAU?$_Tree_node@V?$basic_string@DU?$char_traits@D@std@@V?$allocator@D@2@@std@@PAX@0@@Z ENDP ; std::_Destroy_in_place<std::_Tree_node<std::basic_string<char,std::char_traits<char>,std::allocator<char> >,void *> *>
_TEXT	ENDS
; Function compile flags: /Ogtp
; File C:\Program Files (x86)\Microsoft Visual Studio\2019\Community\VC\Tools\MSVC\14.28.29333\include\xmemory
;	COMDAT ??$_Destroy_in_place@PAU?$_Tree_node@U?$pair@$$CBKK@std@@PAX@std@@@std@@YAXAAPAU?$_Tree_node@U?$pair@$$CBKK@std@@PAX@0@@Z
_TEXT	SEGMENT
__Obj$ = 8						; size = 4
??$_Destroy_in_place@PAU?$_Tree_node@U?$pair@$$CBKK@std@@PAX@std@@@std@@YAXAAPAU?$_Tree_node@U?$pair@$$CBKK@std@@PAX@0@@Z PROC ; std::_Destroy_in_place<std::_Tree_node<std::pair<unsigned long const ,unsigned long>,void *> *>, COMDAT

; 271  : #if _HAS_IF_CONSTEXPR
; 272  :     if constexpr (is_array_v<_Ty>) {
; 273  :         _Destroy_range(_Obj, _Obj + extent_v<_Ty>);
; 274  :     } else
; 275  : #endif // _HAS_IF_CONSTEXPR
; 276  :     {
; 277  :         _Obj.~_Ty();
; 278  :     }
; 279  : }

  00000	c2 00 00	 ret	 0
??$_Destroy_in_place@PAU?$_Tree_node@U?$pair@$$CBKK@std@@PAX@std@@@std@@YAXAAPAU?$_Tree_node@U?$pair@$$CBKK@std@@PAX@0@@Z ENDP ; std::_Destroy_in_place<std::_Tree_node<std::pair<unsigned long const ,unsigned long>,void *> *>
_TEXT	ENDS
; Function compile flags: /Ogtp
; File C:\Program Files (x86)\Microsoft Visual Studio\2019\Community\VC\Tools\MSVC\14.28.29333\include\xmemory
;	COMDAT ??$_Destroy_in_place@PAU?$_Tree_node@U?$pair@$$CBKUSReserveTargetEffect@CPythonBackground@@@std@@PAX@std@@@std@@YAXAAPAU?$_Tree_node@U?$pair@$$CBKUSReserveTargetEffect@CPythonBackground@@@std@@PAX@0@@Z
_TEXT	SEGMENT
__Obj$ = 8						; size = 4
??$_Destroy_in_place@PAU?$_Tree_node@U?$pair@$$CBKUSReserveTargetEffect@CPythonBackground@@@std@@PAX@std@@@std@@YAXAAPAU?$_Tree_node@U?$pair@$$CBKUSReserveTargetEffect@CPythonBackground@@@std@@PAX@0@@Z PROC ; std::_Destroy_in_place<std::_Tree_node<std::pair<unsigned long const ,CPythonBackground::SReserveTargetEffect>,void *> *>, COMDAT

; 271  : #if _HAS_IF_CONSTEXPR
; 272  :     if constexpr (is_array_v<_Ty>) {
; 273  :         _Destroy_range(_Obj, _Obj + extent_v<_Ty>);
; 274  :     } else
; 275  : #endif // _HAS_IF_CONSTEXPR
; 276  :     {
; 277  :         _Obj.~_Ty();
; 278  :     }
; 279  : }

  00000	c2 00 00	 ret	 0
??$_Destroy_in_place@PAU?$_Tree_node@U?$pair@$$CBKUSReserveTargetEffect@CPythonBackground@@@std@@PAX@std@@@std@@YAXAAPAU?$_Tree_node@U?$pair@$$CBKUSReserveTargetEffect@CPythonBackground@@@std@@PAX@0@@Z ENDP ; std::_Destroy_in_place<std::_Tree_node<std::pair<unsigned long const ,CPythonBackground::SReserveTargetEffect>,void *> *>
_TEXT	ENDS
; Function compile flags: /Ogtp
; File C:\Program Files (x86)\Microsoft Visual Studio\2019\Community\VC\Tools\MSVC\14.28.29333\include\xmemory
;	COMDAT ??1?$_Alloc_construct_ptr@V?$allocator@U?$_Tree_node@V?$basic_string@DU?$char_traits@D@std@@V?$allocator@D@2@@std@@PAX@std@@@std@@@std@@QAE@XZ
_TEXT	SEGMENT
??1?$_Alloc_construct_ptr@V?$allocator@U?$_Tree_node@V?$basic_string@DU?$char_traits@D@std@@V?$allocator@D@2@@std@@PAX@std@@@std@@@std@@QAE@XZ PROC ; std::_Alloc_construct_ptr<std::allocator<std::_Tree_node<std::basic_string<char,std::char_traits<char>,std::allocator<char> >,void *> > >::~_Alloc_construct_ptr<std::allocator<std::_Tree_node<std::basic_string<char,std::char_traits<char>,std::allocator<char> >,void *> > >, COMDAT
; _this$ = ecx

; 1057 :         if (_Ptr) {

  00000	8b 41 04	 mov	 eax, DWORD PTR [ecx+4]
  00003	85 c0		 test	 eax, eax
  00005	74 0b		 je	 SHORT $LN2@Alloc_cons

; 810  :         _Deallocate<_New_alignof<_Ty>>(_Ptr, sizeof(_Ty) * _Count);

  00007	6a 28		 push	 40			; 00000028H
  00009	50		 push	 eax
  0000a	e8 00 00 00 00	 call	 ??$_Deallocate@$07$0A@@std@@YAXPAXI@Z ; std::_Deallocate<8,0>
  0000f	83 c4 08	 add	 esp, 8
$LN2@Alloc_cons:

; 1058 :             _Al.deallocate(_Ptr, 1);
; 1059 :         }
; 1060 :     }

  00012	c3		 ret	 0
??1?$_Alloc_construct_ptr@V?$allocator@U?$_Tree_node@V?$basic_string@DU?$char_traits@D@std@@V?$allocator@D@2@@std@@PAX@std@@@std@@@std@@QAE@XZ ENDP ; std::_Alloc_construct_ptr<std::allocator<std::_Tree_node<std::basic_string<char,std::char_traits<char>,std::allocator<char> >,void *> > >::~_Alloc_construct_ptr<std::allocator<std::_Tree_node<std::basic_string<char,std::char_traits<char>,std::allocator<char> >,void *> > >
_TEXT	ENDS
; Function compile flags: /Ogtp
; File C:\Program Files (x86)\Microsoft Visual Studio\2019\Community\VC\Tools\MSVC\14.28.29333\include\xmemory
;	COMDAT ??1?$_Alloc_construct_ptr@V?$allocator@U?$_Tree_node@HPAX@std@@@std@@@std@@QAE@XZ
_TEXT	SEGMENT
??1?$_Alloc_construct_ptr@V?$allocator@U?$_Tree_node@HPAX@std@@@std@@@std@@QAE@XZ PROC ; std::_Alloc_construct_ptr<std::allocator<std::_Tree_node<int,void *> > >::~_Alloc_construct_ptr<std::allocator<std::_Tree_node<int,void *> > >, COMDAT
; _this$ = ecx

; 1057 :         if (_Ptr) {

  00000	8b 41 04	 mov	 eax, DWORD PTR [ecx+4]
  00003	85 c0		 test	 eax, eax
  00005	74 0b		 je	 SHORT $LN2@Alloc_cons

; 810  :         _Deallocate<_New_alignof<_Ty>>(_Ptr, sizeof(_Ty) * _Count);

  00007	6a 14		 push	 20			; 00000014H
  00009	50		 push	 eax
  0000a	e8 00 00 00 00	 call	 ??$_Deallocate@$07$0A@@std@@YAXPAXI@Z ; std::_Deallocate<8,0>
  0000f	83 c4 08	 add	 esp, 8
$LN2@Alloc_cons:

; 1058 :             _Al.deallocate(_Ptr, 1);
; 1059 :         }
; 1060 :     }

  00012	c3		 ret	 0
??1?$_Alloc_construct_ptr@V?$allocator@U?$_Tree_node@HPAX@std@@@std@@@std@@QAE@XZ ENDP ; std::_Alloc_construct_ptr<std::allocator<std::_Tree_node<int,void *> > >::~_Alloc_construct_ptr<std::allocator<std::_Tree_node<int,void *> > >
_TEXT	ENDS
; Function compile flags: /Ogtp
; File C:\Program Files (x86)\Microsoft Visual Studio\2019\Community\VC\Tools\MSVC\14.28.29333\include\xstring
;	COMDAT ??$_Traits_equal@U?$char_traits@D@std@@@std@@YA_NQBDI0I@Z
_TEXT	SEGMENT
__Left$ = 8						; size = 4
__Left_size$ = 12					; size = 4
__Right$ = 16						; size = 4
__Right_size$ = 20					; size = 4
??$_Traits_equal@U?$char_traits@D@std@@@std@@YA_NQBDI0I@Z PROC ; std::_Traits_equal<std::char_traits<char> >, COMDAT

; 559  :     _In_reads_(_Right_size) const _Traits_ptr_t<_Traits> _Right, const size_t _Right_size) noexcept {

  00000	55		 push	 ebp
  00001	8b ec		 mov	 ebp, esp

; 560  :     // compare [_Left, _Left + _Left_size) to [_Right, _Right + _Right_size) for equality using _Traits
; 561  :     return _Left_size == _Right_size && _Traits::compare(_Left, _Right, _Left_size) == 0;

  00003	8b 4d 0c	 mov	 ecx, DWORD PTR __Left_size$[ebp]
  00006	3b 4d 14	 cmp	 ecx, DWORD PTR __Right_size$[ebp]
  00009	75 61		 jne	 SHORT $LN3@Traits_equ

; 369  :         return _CSTD memcmp(_First1, _First2, _Count);

  0000b	8b 55 08	 mov	 edx, DWORD PTR __Left$[ebp]
  0000e	56		 push	 esi
  0000f	8b 75 10	 mov	 esi, DWORD PTR __Right$[ebp]
  00012	83 e9 04	 sub	 ecx, 4
  00015	72 11		 jb	 SHORT $LN9@Traits_equ
$LL10@Traits_equ:
  00017	8b 02		 mov	 eax, DWORD PTR [edx]
  00019	3b 06		 cmp	 eax, DWORD PTR [esi]
  0001b	75 10		 jne	 SHORT $LN8@Traits_equ
  0001d	83 c2 04	 add	 edx, 4
  00020	83 c6 04	 add	 esi, 4
  00023	83 e9 04	 sub	 ecx, 4
  00026	73 ef		 jae	 SHORT $LL10@Traits_equ
$LN9@Traits_equ:
  00028	83 f9 fc	 cmp	 ecx, -4			; fffffffcH
  0002b	74 34		 je	 SHORT $LN7@Traits_equ
$LN8@Traits_equ:
  0002d	8a 02		 mov	 al, BYTE PTR [edx]
  0002f	3a 06		 cmp	 al, BYTE PTR [esi]
  00031	75 27		 jne	 SHORT $LN11@Traits_equ
  00033	83 f9 fd	 cmp	 ecx, -3			; fffffffdH
  00036	74 29		 je	 SHORT $LN7@Traits_equ
  00038	8a 42 01	 mov	 al, BYTE PTR [edx+1]
  0003b	3a 46 01	 cmp	 al, BYTE PTR [esi+1]
  0003e	75 1a		 jne	 SHORT $LN11@Traits_equ
  00040	83 f9 fe	 cmp	 ecx, -2			; fffffffeH
  00043	74 1c		 je	 SHORT $LN7@Traits_equ
  00045	8a 42 02	 mov	 al, BYTE PTR [edx+2]
  00048	3a 46 02	 cmp	 al, BYTE PTR [esi+2]
  0004b	75 0d		 jne	 SHORT $LN11@Traits_equ
  0004d	83 f9 ff	 cmp	 ecx, -1
  00050	74 0f		 je	 SHORT $LN7@Traits_equ
  00052	8a 42 03	 mov	 al, BYTE PTR [edx+3]
  00055	3a 46 03	 cmp	 al, BYTE PTR [esi+3]
  00058	74 07		 je	 SHORT $LN7@Traits_equ
$LN11@Traits_equ:
  0005a	1b c0		 sbb	 eax, eax
  0005c	83 c8 01	 or	 eax, 1
  0005f	eb 02		 jmp	 SHORT $LN12@Traits_equ
$LN7@Traits_equ:
  00061	33 c0		 xor	 eax, eax
$LN12@Traits_equ:
  00063	5e		 pop	 esi

; 560  :     // compare [_Left, _Left + _Left_size) to [_Right, _Right + _Right_size) for equality using _Traits
; 561  :     return _Left_size == _Right_size && _Traits::compare(_Left, _Right, _Left_size) == 0;

  00064	85 c0		 test	 eax, eax
  00066	75 04		 jne	 SHORT $LN3@Traits_equ
  00068	b0 01		 mov	 al, 1

; 562  : }

  0006a	5d		 pop	 ebp
  0006b	c3		 ret	 0
$LN3@Traits_equ:

; 560  :     // compare [_Left, _Left + _Left_size) to [_Right, _Right + _Right_size) for equality using _Traits
; 561  :     return _Left_size == _Right_size && _Traits::compare(_Left, _Right, _Left_size) == 0;

  0006c	32 c0		 xor	 al, al

; 562  : }

  0006e	5d		 pop	 ebp
  0006f	c3		 ret	 0
??$_Traits_equal@U?$char_traits@D@std@@@std@@YA_NQBDI0I@Z ENDP ; std::_Traits_equal<std::char_traits<char> >
_TEXT	ENDS
; Function compile flags: /Ogtp
; File C:\Program Files (x86)\Microsoft Visual Studio\2019\Community\VC\Tools\MSVC\14.28.29333\include\xtree
; File C:\Program Files (x86)\Microsoft Visual Studio\2019\Community\VC\Tools\MSVC\14.28.29333\include\xmemory
; File C:\Program Files (x86)\Microsoft Visual Studio\2019\Community\VC\Tools\MSVC\14.28.29333\include\xtree
; File C:\Program Files (x86)\Microsoft Visual Studio\2019\Community\VC\Tools\MSVC\14.28.29333\include\xmemory
; File C:\Program Files (x86)\Microsoft Visual Studio\2019\Community\VC\Tools\MSVC\14.28.29333\include\xtree
;	COMDAT ??$_Copy_nodes@U_Copy_tag@?$_Tree@V?$_Tset_traits@HU?$less@H@std@@V?$allocator@H@2@$0A@@std@@@std@@@?$_Tree@V?$_Tset_traits@HU?$less@H@std@@V?$allocator@H@2@$0A@@std@@@std@@IAEPAU?$_Tree_node@HPAX@1@PAU21@0U_Copy_tag@01@@Z
_TEXT	SEGMENT
__Newnode$2 = -36					; size = 8
_this$ = -28						; size = 4
__Newroot$1$ = -24					; size = 4
__Myhead$3 = -20					; size = 4
__$EHRec$ = -16						; size = 16
__Newroot$ = 8						; size = 4
__Rootnode$ = 8						; size = 4
__Wherenode$ = 12					; size = 4
__Movefl$ = 16						; size = 1
??$_Copy_nodes@U_Copy_tag@?$_Tree@V?$_Tset_traits@HU?$less@H@std@@V?$allocator@H@2@$0A@@std@@@std@@@?$_Tree@V?$_Tset_traits@HU?$less@H@std@@V?$allocator@H@2@$0A@@std@@@std@@IAEPAU?$_Tree_node@HPAX@1@PAU21@0U_Copy_tag@01@@Z PROC ; std::_Tree<std::_Tset_traits<int,std::less<int>,std::allocator<int>,0> >::_Copy_nodes<std::_Tree<std::_Tset_traits<int,std::less<int>,std::allocator<int>,0> >::_Copy_tag>, COMDAT
; _this$ = ecx

; 1755 :     _Nodeptr _Copy_nodes(_Nodeptr _Rootnode, _Nodeptr _Wherenode, _Moveit _Movefl) {

  00000	55		 push	 ebp
  00001	8b ec		 mov	 ebp, esp
  00003	6a ff		 push	 -1
  00005	68 00 00 00 00	 push	 __ehhandler$??$_Copy_nodes@U_Copy_tag@?$_Tree@V?$_Tset_traits@HU?$less@H@std@@V?$allocator@H@2@$0A@@std@@@std@@@?$_Tree@V?$_Tset_traits@HU?$less@H@std@@V?$allocator@H@2@$0A@@std@@@std@@IAEPAU?$_Tree_node@HPAX@1@PAU21@0U_Copy_tag@01@@Z
  0000a	64 a1 00 00 00
	00		 mov	 eax, DWORD PTR fs:0
  00010	50		 push	 eax
  00011	83 ec 18	 sub	 esp, 24			; 00000018H
  00014	53		 push	 ebx
  00015	56		 push	 esi
  00016	57		 push	 edi
  00017	a1 00 00 00 00	 mov	 eax, DWORD PTR ___security_cookie
  0001c	33 c5		 xor	 eax, ebp
  0001e	50		 push	 eax
  0001f	8d 45 f4	 lea	 eax, DWORD PTR __$EHRec$[ebp+4]
  00022	64 a3 00 00 00
	00		 mov	 DWORD PTR fs:0, eax
  00028	89 65 f0	 mov	 DWORD PTR __$EHRec$[ebp], esp
  0002b	8b f9		 mov	 edi, ecx
  0002d	89 7d e4	 mov	 DWORD PTR _this$[ebp], edi

; 1756 :         // copy entire subtree, recursively
; 1757 :         const auto _Scary = _Get_scary();
; 1758 :         _Nodeptr _Newroot = _Scary->_Myhead; // point at nil node
; 1759 : 
; 1760 :         if (!_Rootnode->_Isnil) { // copy or move a node, then any subtrees

  00030	8b 75 08	 mov	 esi, DWORD PTR __Rootnode$[ebp]
  00033	8b 07		 mov	 eax, DWORD PTR [edi]
  00035	89 45 e8	 mov	 DWORD PTR __Newroot$1$[ebp], eax
  00038	80 7e 0d 00	 cmp	 BYTE PTR [esi+13], 0
  0003c	0f 85 98 00 00
	00		 jne	 $LN5@Copy_nodes

; 2027 :         return _Node::_Buynode(_Getal(), _Get_scary()->_Myhead, _STD forward<_Valty>(_Val)...);

  00042	89 45 ec	 mov	 DWORD PTR __Myhead$3[ebp], eax
; File C:\Program Files (x86)\Microsoft Visual Studio\2019\Community\VC\Tools\MSVC\14.28.29333\include\xmemory

; 1045 :     explicit _Alloc_construct_ptr(_Alloc& _Al_) : _Al(_Al_), _Ptr(nullptr) {}

  00045	89 7d dc	 mov	 DWORD PTR __Newnode$2[ebp], edi

; 814  :         return static_cast<_Ty*>(_Allocate<_New_alignof<_Ty>>(_Get_size_of_n<sizeof(_Ty)>(_Count)));

  00048	6a 14		 push	 20			; 00000014H
; File C:\Program Files (x86)\Microsoft Visual Studio\2019\Community\VC\Tools\MSVC\14.28.29333\include\xtree

; 356  :         _Alloc_construct_ptr<_Alloc> _Newnode(_Al);

  0004a	c7 45 fc 00 00
	00 00		 mov	 DWORD PTR __$EHRec$[ebp+12], 0
; File C:\Program Files (x86)\Microsoft Visual Studio\2019\Community\VC\Tools\MSVC\14.28.29333\include\xmemory

; 1052 :         _Ptr = nullptr; // if allocate throws, prevents double-free

  00051	c7 45 e0 00 00
	00 00		 mov	 DWORD PTR __Newnode$2[ebp+4], 0

; 814  :         return static_cast<_Ty*>(_Allocate<_New_alignof<_Ty>>(_Get_size_of_n<sizeof(_Ty)>(_Count)));

  00058	e8 00 00 00 00	 call	 ??$_Allocate@$07U_Default_allocate_traits@std@@$0A@@std@@YAPAXI@Z ; std::_Allocate<8,std::_Default_allocate_traits,0>

; 1053 :         _Ptr = _Al.allocate(1);

  0005d	8b d8		 mov	 ebx, eax
; File C:\Program Files (x86)\Microsoft Visual Studio\2019\Community\VC\Tools\MSVC\14.28.29333\include\xtree

; 358  :         allocator_traits<_Alloc>::construct(_Al, _STD addressof(_Newnode._Ptr->_Myval), _STD forward<_Valty>(_Val)...);

  0005f	8b 46 10	 mov	 eax, DWORD PTR [esi+16]
  00062	89 43 10	 mov	 DWORD PTR [ebx+16], eax

; 359  :         _Construct_in_place(_Newnode._Ptr->_Left, _Myhead);

  00065	8d 45 ec	 lea	 eax, DWORD PTR __Myhead$3[ebp]
  00068	50		 push	 eax
  00069	53		 push	 ebx
  0006a	e8 00 00 00 00	 call	 ??$_Construct_in_place@PAU?$_Tree_node@HPAX@std@@AAPAU12@@std@@YAXAAPAU?$_Tree_node@HPAX@0@0@Z ; std::_Construct_in_place<std::_Tree_node<int,void *> *,std::_Tree_node<int,void *> * &>

; 360  :         _Construct_in_place(_Newnode._Ptr->_Parent, _Myhead);

  0006f	8d 45 ec	 lea	 eax, DWORD PTR __Myhead$3[ebp]
  00072	50		 push	 eax
  00073	8d 73 04	 lea	 esi, DWORD PTR [ebx+4]
  00076	56		 push	 esi
  00077	e8 00 00 00 00	 call	 ??$_Construct_in_place@PAU?$_Tree_node@HPAX@std@@AAPAU12@@std@@YAXAAPAU?$_Tree_node@HPAX@0@0@Z ; std::_Construct_in_place<std::_Tree_node<int,void *> *,std::_Tree_node<int,void *> * &>

; 361  :         _Construct_in_place(_Newnode._Ptr->_Right, _Myhead);

  0007c	8d 4d ec	 lea	 ecx, DWORD PTR __Myhead$3[ebp]
  0007f	8d 43 08	 lea	 eax, DWORD PTR [ebx+8]
  00082	51		 push	 ecx
  00083	50		 push	 eax
  00084	e8 00 00 00 00	 call	 ??$_Construct_in_place@PAU?$_Tree_node@HPAX@std@@AAPAU12@@std@@YAXAAPAU?$_Tree_node@HPAX@0@0@Z ; std::_Construct_in_place<std::_Tree_node<int,void *> *,std::_Tree_node<int,void *> * &>

; 1761 :             typename is_same<key_type, value_type>::type _Is_set;
; 1762 :             _Nodeptr _Pnode = _Copy_or_move(_Rootnode->_Myval, _Movefl, _Is_set);
; 1763 :             _Pnode->_Parent = _Wherenode;

  00089	8b 45 0c	 mov	 eax, DWORD PTR __Wherenode$[ebp]

; 361  :         _Construct_in_place(_Newnode._Ptr->_Right, _Myhead);

  0008c	83 c4 1c	 add	 esp, 28			; 0000001cH

; 362  :         _Newnode._Ptr->_Color = _Red;

  0008f	66 c7 43 0c 00
	00		 mov	 WORD PTR [ebx+12], 0

; 1764 :             _Pnode->_Color  = _Rootnode->_Color;
; 1765 :             if (_Newroot->_Isnil) {
; 1766 :                 _Newroot = _Pnode; // memorize new root
; 1767 :             }
; 1768 : 
; 1769 :             _TRY_BEGIN
; 1770 :             _Pnode->_Left  = _Copy_nodes(_Rootnode->_Left, _Pnode, _Movefl);

  00095	8b cf		 mov	 ecx, edi
  00097	89 06		 mov	 DWORD PTR [esi], eax
  00099	8b 75 08	 mov	 esi, DWORD PTR __Rootnode$[ebp]
  0009c	c7 45 fc 01 00
	00 00		 mov	 DWORD PTR __$EHRec$[ebp+12], 1
  000a3	8a 46 0c	 mov	 al, BYTE PTR [esi+12]
  000a6	88 43 0c	 mov	 BYTE PTR [ebx+12], al
  000a9	8b 45 e8	 mov	 eax, DWORD PTR __Newroot$1$[ebp]
  000ac	ff 75 10	 push	 DWORD PTR __Movefl$[ebp]
  000af	53		 push	 ebx
  000b0	80 78 0d 00	 cmp	 BYTE PTR [eax+13], 0
  000b4	ff 36		 push	 DWORD PTR [esi]
  000b6	0f 45 c3	 cmovne	 eax, ebx
  000b9	89 45 e8	 mov	 DWORD PTR __Newroot$1$[ebp], eax
  000bc	89 45 08	 mov	 DWORD PTR __Newroot$[ebp], eax
  000bf	e8 00 00 00 00	 call	 ??$_Copy_nodes@U_Copy_tag@?$_Tree@V?$_Tset_traits@HU?$less@H@std@@V?$allocator@H@2@$0A@@std@@@std@@@?$_Tree@V?$_Tset_traits@HU?$less@H@std@@V?$allocator@H@2@$0A@@std@@@std@@IAEPAU?$_Tree_node@HPAX@1@PAU21@0U_Copy_tag@01@@Z ; std::_Tree<std::_Tset_traits<int,std::less<int>,std::allocator<int>,0> >::_Copy_nodes<std::_Tree<std::_Tset_traits<int,std::less<int>,std::allocator<int>,0> >::_Copy_tag>
  000c4	89 03		 mov	 DWORD PTR [ebx], eax

; 1771 :             _Pnode->_Right = _Copy_nodes(_Rootnode->_Right, _Pnode, _Movefl);

  000c6	8b cf		 mov	 ecx, edi
  000c8	ff 75 10	 push	 DWORD PTR __Movefl$[ebp]
  000cb	53		 push	 ebx
  000cc	ff 76 08	 push	 DWORD PTR [esi+8]
  000cf	e8 00 00 00 00	 call	 ??$_Copy_nodes@U_Copy_tag@?$_Tree@V?$_Tset_traits@HU?$less@H@std@@V?$allocator@H@2@$0A@@std@@@std@@@?$_Tree@V?$_Tset_traits@HU?$less@H@std@@V?$allocator@H@2@$0A@@std@@@std@@IAEPAU?$_Tree_node@HPAX@1@PAU21@0U_Copy_tag@01@@Z ; std::_Tree<std::_Tset_traits<int,std::less<int>,std::allocator<int>,0> >::_Copy_nodes<std::_Tree<std::_Tset_traits<int,std::less<int>,std::allocator<int>,0> >::_Copy_tag>
  000d4	89 43 08	 mov	 DWORD PTR [ebx+8], eax
  000d7	8b 45 e8	 mov	 eax, DWORD PTR __Newroot$1$[ebp]
$LN5@Copy_nodes:

; 1775 :             _CATCH_END
; 1776 :         }
; 1777 : 
; 1778 :         return _Newroot; // return newly constructed tree
; 1779 :     }

  000da	8b 4d f4	 mov	 ecx, DWORD PTR __$EHRec$[ebp+4]
  000dd	64 89 0d 00 00
	00 00		 mov	 DWORD PTR fs:0, ecx
  000e4	59		 pop	 ecx
  000e5	5f		 pop	 edi
  000e6	5e		 pop	 esi
  000e7	5b		 pop	 ebx
  000e8	8b e5		 mov	 esp, ebp
  000ea	5d		 pop	 ebp
  000eb	c2 0c 00	 ret	 12			; 0000000cH
__catch$??$_Copy_nodes@U_Copy_tag@?$_Tree@V?$_Tset_traits@HU?$less@H@std@@V?$allocator@H@2@$0A@@std@@@std@@@?$_Tree@V?$_Tset_traits@HU?$less@H@std@@V?$allocator@H@2@$0A@@std@@@std@@IAEPAU?$_Tree_node@HPAX@1@PAU21@0U_Copy_tag@01@@Z$0:

; 1772 :             _CATCH_ALL
; 1773 :             _Scary->_Erase_tree_and_orphan(_Getal(), _Newroot); // subtree copy failed, bail out

  000ee	ff 75 08	 push	 DWORD PTR __Newroot$[ebp]
  000f1	8b 4d e4	 mov	 ecx, DWORD PTR _this$[ebp]
  000f4	e8 00 00 00 00	 call	 ?_Getal@?$_Tree@V?$_Tset_traits@HU?$less@H@std@@V?$allocator@H@2@$0A@@std@@@std@@IAEAAV?$allocator@U?$_Tree_node@HPAX@std@@@2@XZ ; std::_Tree<std::_Tset_traits<int,std::less<int>,std::allocator<int>,0> >::_Getal
  000f9	8b 4d e4	 mov	 ecx, DWORD PTR _this$[ebp]
  000fc	50		 push	 eax
  000fd	e8 00 00 00 00	 call	 ??$_Erase_tree_and_orphan@V?$allocator@U?$_Tree_node@HPAX@std@@@std@@@?$_Tree_val@U?$_Tree_simple_types@H@std@@@std@@QAEXAAV?$allocator@U?$_Tree_node@HPAX@std@@@1@PAU?$_Tree_node@HPAX@1@@Z ; std::_Tree_val<std::_Tree_simple_types<int> >::_Erase_tree_and_orphan<std::allocator<std::_Tree_node<int,void *> > >

; 1774 :             _RERAISE;

  00102	6a 00		 push	 0
  00104	6a 00		 push	 0
  00106	e8 00 00 00 00	 call	 __CxxThrowException@8
$LN42@Copy_nodes:
  0010b	cc		 int	 3
_TEXT	ENDS
;	COMDAT text$x
text$x	SEGMENT
__unwindfunclet$??$_Copy_nodes@U_Copy_tag@?$_Tree@V?$_Tset_traits@HU?$less@H@std@@V?$allocator@H@2@$0A@@std@@@std@@@?$_Tree@V?$_Tset_traits@HU?$less@H@std@@V?$allocator@H@2@$0A@@std@@@std@@IAEPAU?$_Tree_node@HPAX@1@PAU21@0U_Copy_tag@01@@Z$2:
  00000	8d 4d dc	 lea	 ecx, DWORD PTR __Newnode$2[ebp]
  00003	e9 00 00 00 00	 jmp	 ??1?$_Alloc_construct_ptr@V?$allocator@U?$_Tree_node@HPAX@std@@@std@@@std@@QAE@XZ ; std::_Alloc_construct_ptr<std::allocator<std::_Tree_node<int,void *> > >::~_Alloc_construct_ptr<std::allocator<std::_Tree_node<int,void *> > >
  00008	cc		 int	 3
  00009	cc		 int	 3
  0000a	cc		 int	 3
  0000b	cc		 int	 3
  0000c	cc		 int	 3
__ehhandler$??$_Copy_nodes@U_Copy_tag@?$_Tree@V?$_Tset_traits@HU?$less@H@std@@V?$allocator@H@2@$0A@@std@@@std@@@?$_Tree@V?$_Tset_traits@HU?$less@H@std@@V?$allocator@H@2@$0A@@std@@@std@@IAEPAU?$_Tree_node@HPAX@1@PAU21@0U_Copy_tag@01@@Z:
  0000d	90		 npad	 1
  0000e	90		 npad	 1
  0000f	8b 54 24 08	 mov	 edx, DWORD PTR [esp+8]
  00013	8d 42 0c	 lea	 eax, DWORD PTR [edx+12]
  00016	8b 4a d8	 mov	 ecx, DWORD PTR [edx-40]
  00019	33 c8		 xor	 ecx, eax
  0001b	e8 00 00 00 00	 call	 @__security_check_cookie@4
  00020	b8 00 00 00 00	 mov	 eax, OFFSET __ehfuncinfo$??$_Copy_nodes@U_Copy_tag@?$_Tree@V?$_Tset_traits@HU?$less@H@std@@V?$allocator@H@2@$0A@@std@@@std@@@?$_Tree@V?$_Tset_traits@HU?$less@H@std@@V?$allocator@H@2@$0A@@std@@@std@@IAEPAU?$_Tree_node@HPAX@1@PAU21@0U_Copy_tag@01@@Z
  00025	e9 00 00 00 00	 jmp	 ___CxxFrameHandler3
text$x	ENDS
??$_Copy_nodes@U_Copy_tag@?$_Tree@V?$_Tset_traits@HU?$less@H@std@@V?$allocator@H@2@$0A@@std@@@std@@@?$_Tree@V?$_Tset_traits@HU?$less@H@std@@V?$allocator@H@2@$0A@@std@@@std@@IAEPAU?$_Tree_node@HPAX@1@PAU21@0U_Copy_tag@01@@Z ENDP ; std::_Tree<std::_Tset_traits<int,std::less<int>,std::allocator<int>,0> >::_Copy_nodes<std::_Tree<std::_Tset_traits<int,std::less<int>,std::allocator<int>,0> >::_Copy_tag>
; Function compile flags: /Ogtp
; File C:\Program Files (x86)\Microsoft Visual Studio\2019\Community\VC\Tools\MSVC\14.28.29333\include\xmemory
;	COMDAT ??$_Construct_in_place@PAU?$_Tree_node@HPAX@std@@ABQAU12@@std@@YAXAAPAU?$_Tree_node@HPAX@0@ABQAU10@@Z
_TEXT	SEGMENT
__Obj$ = 8						; size = 4
_<_Args_0>$ = 12					; size = 4
??$_Construct_in_place@PAU?$_Tree_node@HPAX@std@@ABQAU12@@std@@YAXAAPAU?$_Tree_node@HPAX@0@ABQAU10@@Z PROC ; std::_Construct_in_place<std::_Tree_node<int,void *> *,std::_Tree_node<int,void *> * const &>, COMDAT

; 228  : void _Construct_in_place(_Ty& _Obj, _Types&&... _Args) noexcept(is_nothrow_constructible_v<_Ty, _Types...>) {

  00000	55		 push	 ebp
  00001	8b ec		 mov	 ebp, esp

; 229  :     ::new (const_cast<void*>(static_cast<const volatile void*>(_STD addressof(_Obj))))

  00003	8b 45 0c	 mov	 eax, DWORD PTR _<_Args_0>$[ebp]
  00006	8b 08		 mov	 ecx, DWORD PTR [eax]
  00008	8b 45 08	 mov	 eax, DWORD PTR __Obj$[ebp]
  0000b	89 08		 mov	 DWORD PTR [eax], ecx

; 230  :         _Ty(_STD forward<_Types>(_Args)...);
; 231  : }

  0000d	5d		 pop	 ebp
  0000e	c3		 ret	 0
??$_Construct_in_place@PAU?$_Tree_node@HPAX@std@@ABQAU12@@std@@YAXAAPAU?$_Tree_node@HPAX@0@ABQAU10@@Z ENDP ; std::_Construct_in_place<std::_Tree_node<int,void *> *,std::_Tree_node<int,void *> * const &>
_TEXT	ENDS
; Function compile flags: /Ogtp
; File C:\Program Files (x86)\Microsoft Visual Studio\2019\Community\VC\Tools\MSVC\14.28.29333\include\xmemory
;	COMDAT ??$_Construct_in_place@PAU?$_Tree_node@V?$basic_string@DU?$char_traits@D@std@@V?$allocator@D@2@@std@@PAX@std@@ABQAU12@@std@@YAXAAPAU?$_Tree_node@V?$basic_string@DU?$char_traits@D@std@@V?$allocator@D@2@@std@@PAX@0@ABQAU10@@Z
_TEXT	SEGMENT
__Obj$ = 8						; size = 4
_<_Args_0>$ = 12					; size = 4
??$_Construct_in_place@PAU?$_Tree_node@V?$basic_string@DU?$char_traits@D@std@@V?$allocator@D@2@@std@@PAX@std@@ABQAU12@@std@@YAXAAPAU?$_Tree_node@V?$basic_string@DU?$char_traits@D@std@@V?$allocator@D@2@@std@@PAX@0@ABQAU10@@Z PROC ; std::_Construct_in_place<std::_Tree_node<std::basic_string<char,std::char_traits<char>,std::allocator<char> >,void *> *,std::_Tree_node<std::basic_string<char,std::char_traits<char>,std::allocator<char> >,void *> * const &>, COMDAT

; 228  : void _Construct_in_place(_Ty& _Obj, _Types&&... _Args) noexcept(is_nothrow_constructible_v<_Ty, _Types...>) {

  00000	55		 push	 ebp
  00001	8b ec		 mov	 ebp, esp

; 229  :     ::new (const_cast<void*>(static_cast<const volatile void*>(_STD addressof(_Obj))))

  00003	8b 45 0c	 mov	 eax, DWORD PTR _<_Args_0>$[ebp]
  00006	8b 08		 mov	 ecx, DWORD PTR [eax]
  00008	8b 45 08	 mov	 eax, DWORD PTR __Obj$[ebp]
  0000b	89 08		 mov	 DWORD PTR [eax], ecx

; 230  :         _Ty(_STD forward<_Types>(_Args)...);
; 231  : }

  0000d	5d		 pop	 ebp
  0000e	c3		 ret	 0
??$_Construct_in_place@PAU?$_Tree_node@V?$basic_string@DU?$char_traits@D@std@@V?$allocator@D@2@@std@@PAX@std@@ABQAU12@@std@@YAXAAPAU?$_Tree_node@V?$basic_string@DU?$char_traits@D@std@@V?$allocator@D@2@@std@@PAX@0@ABQAU10@@Z ENDP ; std::_Construct_in_place<std::_Tree_node<std::basic_string<char,std::char_traits<char>,std::allocator<char> >,void *> *,std::_Tree_node<std::basic_string<char,std::char_traits<char>,std::allocator<char> >,void *> * const &>
_TEXT	ENDS
; Function compile flags: /Ogtp
; File C:\Program Files (x86)\Microsoft Visual Studio\2019\Community\VC\Tools\MSVC\14.28.29333\include\xmemory
;	COMDAT ??$_Construct_in_place@PAU?$_Tree_node@U?$pair@$$CBKK@std@@PAX@std@@ABQAU12@@std@@YAXAAPAU?$_Tree_node@U?$pair@$$CBKK@std@@PAX@0@ABQAU10@@Z
_TEXT	SEGMENT
__Obj$ = 8						; size = 4
_<_Args_0>$ = 12					; size = 4
??$_Construct_in_place@PAU?$_Tree_node@U?$pair@$$CBKK@std@@PAX@std@@ABQAU12@@std@@YAXAAPAU?$_Tree_node@U?$pair@$$CBKK@std@@PAX@0@ABQAU10@@Z PROC ; std::_Construct_in_place<std::_Tree_node<std::pair<unsigned long const ,unsigned long>,void *> *,std::_Tree_node<std::pair<unsigned long const ,unsigned long>,void *> * const &>, COMDAT

; 228  : void _Construct_in_place(_Ty& _Obj, _Types&&... _Args) noexcept(is_nothrow_constructible_v<_Ty, _Types...>) {

  00000	55		 push	 ebp
  00001	8b ec		 mov	 ebp, esp

; 229  :     ::new (const_cast<void*>(static_cast<const volatile void*>(_STD addressof(_Obj))))

  00003	8b 45 0c	 mov	 eax, DWORD PTR _<_Args_0>$[ebp]
  00006	8b 08		 mov	 ecx, DWORD PTR [eax]
  00008	8b 45 08	 mov	 eax, DWORD PTR __Obj$[ebp]
  0000b	89 08		 mov	 DWORD PTR [eax], ecx

; 230  :         _Ty(_STD forward<_Types>(_Args)...);
; 231  : }

  0000d	5d		 pop	 ebp
  0000e	c3		 ret	 0
??$_Construct_in_place@PAU?$_Tree_node@U?$pair@$$CBKK@std@@PAX@std@@ABQAU12@@std@@YAXAAPAU?$_Tree_node@U?$pair@$$CBKK@std@@PAX@0@ABQAU10@@Z ENDP ; std::_Construct_in_place<std::_Tree_node<std::pair<unsigned long const ,unsigned long>,void *> *,std::_Tree_node<std::pair<unsigned long const ,unsigned long>,void *> * const &>
_TEXT	ENDS
; Function compile flags: /Ogtp
; File C:\Program Files (x86)\Microsoft Visual Studio\2019\Community\VC\Tools\MSVC\14.28.29333\include\xmemory
;	COMDAT ??$_Construct_in_place@PAU?$_Tree_node@U?$pair@$$CBKUSReserveTargetEffect@CPythonBackground@@@std@@PAX@std@@ABQAU12@@std@@YAXAAPAU?$_Tree_node@U?$pair@$$CBKUSReserveTargetEffect@CPythonBackground@@@std@@PAX@0@ABQAU10@@Z
_TEXT	SEGMENT
__Obj$ = 8						; size = 4
_<_Args_0>$ = 12					; size = 4
??$_Construct_in_place@PAU?$_Tree_node@U?$pair@$$CBKUSReserveTargetEffect@CPythonBackground@@@std@@PAX@std@@ABQAU12@@std@@YAXAAPAU?$_Tree_node@U?$pair@$$CBKUSReserveTargetEffect@CPythonBackground@@@std@@PAX@0@ABQAU10@@Z PROC ; std::_Construct_in_place<std::_Tree_node<std::pair<unsigned long const ,CPythonBackground::SReserveTargetEffect>,void *> *,std::_Tree_node<std::pair<unsigned long const ,CPythonBackground::SReserveTargetEffect>,void *> * const &>, COMDAT

; 228  : void _Construct_in_place(_Ty& _Obj, _Types&&... _Args) noexcept(is_nothrow_constructible_v<_Ty, _Types...>) {

  00000	55		 push	 ebp
  00001	8b ec		 mov	 ebp, esp

; 229  :     ::new (const_cast<void*>(static_cast<const volatile void*>(_STD addressof(_Obj))))

  00003	8b 45 0c	 mov	 eax, DWORD PTR _<_Args_0>$[ebp]
  00006	8b 08		 mov	 ecx, DWORD PTR [eax]
  00008	8b 45 08	 mov	 eax, DWORD PTR __Obj$[ebp]
  0000b	89 08		 mov	 DWORD PTR [eax], ecx

; 230  :         _Ty(_STD forward<_Types>(_Args)...);
; 231  : }

  0000d	5d		 pop	 ebp
  0000e	c3		 ret	 0
??$_Construct_in_place@PAU?$_Tree_node@U?$pair@$$CBKUSReserveTargetEffect@CPythonBackground@@@std@@PAX@std@@ABQAU12@@std@@YAXAAPAU?$_Tree_node@U?$pair@$$CBKUSReserveTargetEffect@CPythonBackground@@@std@@PAX@0@ABQAU10@@Z ENDP ; std::_Construct_in_place<std::_Tree_node<std::pair<unsigned long const ,CPythonBackground::SReserveTargetEffect>,void *> *,std::_Tree_node<std::pair<unsigned long const ,CPythonBackground::SReserveTargetEffect>,void *> * const &>
_TEXT	ENDS
; Function compile flags: /Ogtp
; File C:\Program Files (x86)\Microsoft Visual Studio\2019\Community\VC\Tools\MSVC\14.28.29333\include\xtree
; File C:\Program Files (x86)\Microsoft Visual Studio\2019\Community\VC\Tools\MSVC\14.28.29333\include\xstddef
; File C:\Program Files (x86)\Microsoft Visual Studio\2019\Community\VC\Tools\MSVC\14.28.29333\include\xtree
; File C:\Program Files (x86)\Microsoft Visual Studio\2019\Community\VC\Tools\MSVC\14.28.29333\include\xstddef
; File C:\Program Files (x86)\Microsoft Visual Studio\2019\Community\VC\Tools\MSVC\14.28.29333\include\xtree
;	COMDAT ??$_Find_lower_bound@H@?$_Tree@V?$_Tset_traits@HU?$less@H@std@@V?$allocator@H@2@$0A@@std@@@std@@IBE?AU?$_Tree_find_result@PAU?$_Tree_node@HPAX@std@@@1@ABH@Z
_TEXT	SEGMENT
___$ReturnUdt$ = 8					; size = 4
__Keyval$ = 12						; size = 4
??$_Find_lower_bound@H@?$_Tree@V?$_Tset_traits@HU?$less@H@std@@V?$allocator@H@2@$0A@@std@@@std@@IBE?AU?$_Tree_find_result@PAU?$_Tree_node@HPAX@std@@@1@ABH@Z PROC ; std::_Tree<std::_Tset_traits<int,std::less<int>,std::allocator<int>,0> >::_Find_lower_bound<int>, COMDAT
; _this$ = ecx

; 1699 :     _Tree_find_result<_Nodeptr> _Find_lower_bound(const _Keyty& _Keyval) const {

  00000	55		 push	 ebp
  00001	8b ec		 mov	 ebp, esp

; 1700 :         const auto _Scary = _Get_scary();
; 1701 :         _Tree_find_result<_Nodeptr> _Result{{_Scary->_Myhead->_Parent, _Tree_child::_Right}, _Scary->_Myhead};

  00003	8b 09		 mov	 ecx, DWORD PTR [ecx]
  00005	8b 55 08	 mov	 edx, DWORD PTR ___$ReturnUdt$[ebp]
  00008	8b 41 04	 mov	 eax, DWORD PTR [ecx+4]
  0000b	89 02		 mov	 DWORD PTR [edx], eax
  0000d	c7 42 04 00 00
	00 00		 mov	 DWORD PTR [edx+4], 0
  00014	89 4a 08	 mov	 DWORD PTR [edx+8], ecx

; 1702 :         _Nodeptr _Trynode = _Result._Location._Parent;
; 1703 :         while (!_Trynode->_Isnil) {

  00017	80 78 0d 00	 cmp	 BYTE PTR [eax+13], 0
  0001b	75 28		 jne	 SHORT $LN12@Find_lower
; File C:\Program Files (x86)\Microsoft Visual Studio\2019\Community\VC\Tools\MSVC\14.28.29333\include\xstddef

; 127  :         return _Left < _Right;

  0001d	8b 4d 0c	 mov	 ecx, DWORD PTR __Keyval$[ebp]
  00020	56		 push	 esi
  00021	8b 31		 mov	 esi, DWORD PTR [ecx]
$LL2@Find_lower:
; File C:\Program Files (x86)\Microsoft Visual Studio\2019\Community\VC\Tools\MSVC\14.28.29333\include\xtree

; 1704 :             _Result._Location._Parent = _Trynode;

  00023	89 02		 mov	 DWORD PTR [edx], eax
; File C:\Program Files (x86)\Microsoft Visual Studio\2019\Community\VC\Tools\MSVC\14.28.29333\include\xstddef

; 127  :         return _Left < _Right;

  00025	39 70 10	 cmp	 DWORD PTR [eax+16], esi
; File C:\Program Files (x86)\Microsoft Visual Studio\2019\Community\VC\Tools\MSVC\14.28.29333\include\xtree

; 1705 :             if (_DEBUG_LT_PRED(_Getcomp(), _Traits::_Kfn(_Trynode->_Myval), _Keyval)) {

  00028	7d 07		 jge	 SHORT $LN4@Find_lower

; 1706 :                 _Result._Location._Child = _Tree_child::_Right;
; 1707 :                 _Trynode                 = _Trynode->_Right;

  0002a	8b 40 08	 mov	 eax, DWORD PTR [eax+8]
  0002d	33 c9		 xor	 ecx, ecx

; 1708 :             } else {

  0002f	eb 0a		 jmp	 SHORT $LN5@Find_lower
$LN4@Find_lower:

; 1709 :                 _Result._Location._Child = _Tree_child::_Left;
; 1710 :                 _Result._Bound           = _Trynode;

  00031	89 42 08	 mov	 DWORD PTR [edx+8], eax

; 1711 :                 _Trynode                 = _Trynode->_Left;

  00034	b9 01 00 00 00	 mov	 ecx, 1
  00039	8b 00		 mov	 eax, DWORD PTR [eax]
$LN5@Find_lower:

; 1702 :         _Nodeptr _Trynode = _Result._Location._Parent;
; 1703 :         while (!_Trynode->_Isnil) {

  0003b	89 4a 04	 mov	 DWORD PTR [edx+4], ecx
  0003e	80 78 0d 00	 cmp	 BYTE PTR [eax+13], 0
  00042	74 df		 je	 SHORT $LL2@Find_lower

; 1712 :             }
; 1713 :         }
; 1714 : 
; 1715 :         return _Result;

  00044	5e		 pop	 esi
$LN12@Find_lower:

; 1716 :     }

  00045	8b c2		 mov	 eax, edx
  00047	5d		 pop	 ebp
  00048	c2 08 00	 ret	 8
??$_Find_lower_bound@H@?$_Tree@V?$_Tset_traits@HU?$less@H@std@@V?$allocator@H@2@$0A@@std@@@std@@IBE?AU?$_Tree_find_result@PAU?$_Tree_node@HPAX@std@@@1@ABH@Z ENDP ; std::_Tree<std::_Tset_traits<int,std::less<int>,std::allocator<int>,0> >::_Find_lower_bound<int>
_TEXT	ENDS
; Function compile flags: /Ogtp
; File C:\Program Files (x86)\Microsoft Visual Studio\2019\Community\VC\Tools\MSVC\14.28.29333\include\xtree
; File C:\Program Files (x86)\Microsoft Visual Studio\2019\Community\VC\Tools\MSVC\14.28.29333\include\utility
; File C:\Program Files (x86)\Microsoft Visual Studio\2019\Community\VC\Tools\MSVC\14.28.29333\include\xstring
; File C:\Program Files (x86)\Microsoft Visual Studio\2019\Community\VC\Tools\MSVC\14.28.29333\include\xmemory
; File C:\Program Files (x86)\Microsoft Visual Studio\2019\Community\VC\Tools\MSVC\14.28.29333\include\xstring
; File C:\Program Files (x86)\Microsoft Visual Studio\2019\Community\VC\Tools\MSVC\14.28.29333\include\xmemory
; File C:\Program Files (x86)\Microsoft Visual Studio\2019\Community\VC\Tools\MSVC\14.28.29333\include\xtree
; File C:\Program Files (x86)\Microsoft Visual Studio\2019\Community\VC\Tools\MSVC\14.28.29333\include\xmemory
; File C:\Program Files (x86)\Microsoft Visual Studio\2019\Community\VC\Tools\MSVC\14.28.29333\include\xtree
;	COMDAT ??$_Erase_tree@V?$allocator@U?$_Tree_node@V?$basic_string@DU?$char_traits@D@std@@V?$allocator@D@2@@std@@PAX@std@@@std@@@?$_Tree_val@U?$_Tree_simple_types@V?$basic_string@DU?$char_traits@D@std@@V?$allocator@D@2@@std@@@std@@@std@@QAEXAAV?$allocator@U?$_Tree_node@V?$basic_string@DU?$char_traits@D@std@@V?$allocator@D@2@@std@@PAX@std@@@1@PAU?$_Tree_node@V?$basic_string@DU?$char_traits@D@std@@V?$allocator@D@2@@std@@PAX@1@@Z
_TEXT	SEGMENT
_this$1$ = -4						; size = 4
__Al$ = 8						; size = 4
__Rootnode$ = 12					; size = 4
??$_Erase_tree@V?$allocator@U?$_Tree_node@V?$basic_string@DU?$char_traits@D@std@@V?$allocator@D@2@@std@@PAX@std@@@std@@@?$_Tree_val@U?$_Tree_simple_types@V?$basic_string@DU?$char_traits@D@std@@V?$allocator@D@2@@std@@@std@@@std@@QAEXAAV?$allocator@U?$_Tree_node@V?$basic_string@DU?$char_traits@D@std@@V?$allocator@D@2@@std@@PAX@std@@@1@PAU?$_Tree_node@V?$basic_string@DU?$char_traits@D@std@@V?$allocator@D@2@@std@@PAX@1@@Z PROC ; std::_Tree_val<std::_Tree_simple_types<std::basic_string<char,std::char_traits<char>,std::allocator<char> > > >::_Erase_tree<std::allocator<std::_Tree_node<std::basic_string<char,std::char_traits<char>,std::allocator<char> >,void *> > >, COMDAT
; _this$ = ecx

; 742  :     void _Erase_tree(_Alnode& _Al, _Nodeptr _Rootnode) noexcept {

  00000	55		 push	 ebp
  00001	8b ec		 mov	 ebp, esp
  00003	51		 push	 ecx
  00004	57		 push	 edi

; 743  :         while (!_Rootnode->_Isnil) { // free subtrees, then node

  00005	8b 7d 0c	 mov	 edi, DWORD PTR __Rootnode$[ebp]
  00008	8b c1		 mov	 eax, ecx
  0000a	89 45 fc	 mov	 DWORD PTR _this$1$[ebp], eax
  0000d	80 7f 0d 00	 cmp	 BYTE PTR [edi+13], 0
  00011	75 51		 jne	 SHORT $LN3@Erase_tree
  00013	53		 push	 ebx
  00014	8b 5d 08	 mov	 ebx, DWORD PTR __Al$[ebp]
  00017	56		 push	 esi
$LL2@Erase_tree:

; 744  :             _Erase_tree(_Al, _Rootnode->_Right);

  00018	ff 77 08	 push	 DWORD PTR [edi+8]
  0001b	8b c8		 mov	 ecx, eax
  0001d	53		 push	 ebx
  0001e	e8 00 00 00 00	 call	 ??$_Erase_tree@V?$allocator@U?$_Tree_node@V?$basic_string@DU?$char_traits@D@std@@V?$allocator@D@2@@std@@PAX@std@@@std@@@?$_Tree_val@U?$_Tree_simple_types@V?$basic_string@DU?$char_traits@D@std@@V?$allocator@D@2@@std@@@std@@@std@@QAEXAAV?$allocator@U?$_Tree_node@V?$basic_string@DU?$char_traits@D@std@@V?$allocator@D@2@@std@@PAX@std@@@1@PAU?$_Tree_node@V?$basic_string@DU?$char_traits@D@std@@V?$allocator@D@2@@std@@PAX@1@@Z ; std::_Tree_val<std::_Tree_simple_types<std::basic_string<char,std::char_traits<char>,std::allocator<char> > > >::_Erase_tree<std::allocator<std::_Tree_node<std::basic_string<char,std::char_traits<char>,std::allocator<char> >,void *> > >
; File C:\Program Files (x86)\Microsoft Visual Studio\2019\Community\VC\Tools\MSVC\14.28.29333\include\utility

; 598  :     _Ty _Old_val = static_cast<_Ty&&>(_Val);

  00023	8b f7		 mov	 esi, edi

; 599  :     _Val         = static_cast<_Other&&>(_New_val);

  00025	8b 3f		 mov	 edi, DWORD PTR [edi]
; File C:\Program Files (x86)\Microsoft Visual Studio\2019\Community\VC\Tools\MSVC\14.28.29333\include\xstring

; 2227 :         return _BUF_SIZE <= _Myres;

  00027	8b 46 24	 mov	 eax, DWORD PTR [esi+36]
  0002a	83 f8 10	 cmp	 eax, 16			; 00000010H

; 4385 :         if (_Mypair._Myval2._Large_string_engaged()) {

  0002d	72 0d		 jb	 SHORT $LN18@Erase_tree

; 4386 :             const pointer _Ptr = _Mypair._Myval2._Bx._Ptr;
; 4387 :             auto& _Al          = _Getal();
; 4388 :             _Destroy_in_place(_Mypair._Myval2._Bx._Ptr);
; 4389 :             _Al.deallocate(_Ptr, _Mypair._Myval2._Myres + 1);

  0002f	40		 inc	 eax
; File C:\Program Files (x86)\Microsoft Visual Studio\2019\Community\VC\Tools\MSVC\14.28.29333\include\xmemory

; 810  :         _Deallocate<_New_alignof<_Ty>>(_Ptr, sizeof(_Ty) * _Count);

  00030	50		 push	 eax
  00031	ff 76 10	 push	 DWORD PTR [esi+16]
  00034	e8 00 00 00 00	 call	 ??$_Deallocate@$07$0A@@std@@YAXPAXI@Z ; std::_Deallocate<8,0>
  00039	83 c4 08	 add	 esp, 8
$LN18@Erase_tree:

; 696  :         _Deallocate<_New_alignof<value_type>>(_Ptr, sizeof(value_type) * _Count);

  0003c	6a 28		 push	 40			; 00000028H
  0003e	56		 push	 esi
; File C:\Program Files (x86)\Microsoft Visual Studio\2019\Community\VC\Tools\MSVC\14.28.29333\include\xstring

; 4392 :         _Mypair._Myval2._Mysize = 0;

  0003f	c7 46 20 00 00
	00 00		 mov	 DWORD PTR [esi+32], 0

; 4393 :         _Mypair._Myval2._Myres  = _BUF_SIZE - 1;

  00046	c7 46 24 0f 00
	00 00		 mov	 DWORD PTR [esi+36], 15	; 0000000fH

; 4394 :         // the _Traits::assign is last so the codegen doesn't think the char write can alias this
; 4395 :         _Traits::assign(_Mypair._Myval2._Bx._Buf[0], _Elem());

  0004d	c6 46 10 00	 mov	 BYTE PTR [esi+16], 0
; File C:\Program Files (x86)\Microsoft Visual Studio\2019\Community\VC\Tools\MSVC\14.28.29333\include\xmemory

; 696  :         _Deallocate<_New_alignof<value_type>>(_Ptr, sizeof(value_type) * _Count);

  00051	e8 00 00 00 00	 call	 ??$_Deallocate@$07$0A@@std@@YAXPAXI@Z ; std::_Deallocate<8,0>
; File C:\Program Files (x86)\Microsoft Visual Studio\2019\Community\VC\Tools\MSVC\14.28.29333\include\xtree

; 743  :         while (!_Rootnode->_Isnil) { // free subtrees, then node

  00056	8b 45 fc	 mov	 eax, DWORD PTR _this$1$[ebp]
; File C:\Program Files (x86)\Microsoft Visual Studio\2019\Community\VC\Tools\MSVC\14.28.29333\include\xmemory

; 696  :         _Deallocate<_New_alignof<value_type>>(_Ptr, sizeof(value_type) * _Count);

  00059	83 c4 08	 add	 esp, 8
; File C:\Program Files (x86)\Microsoft Visual Studio\2019\Community\VC\Tools\MSVC\14.28.29333\include\xtree

; 743  :         while (!_Rootnode->_Isnil) { // free subtrees, then node

  0005c	80 7f 0d 00	 cmp	 BYTE PTR [edi+13], 0
  00060	74 b6		 je	 SHORT $LL2@Erase_tree
  00062	5e		 pop	 esi
  00063	5b		 pop	 ebx
$LN3@Erase_tree:
  00064	5f		 pop	 edi

; 745  :             _Alnode::value_type::_Freenode(_Al, _STD exchange(_Rootnode, _Rootnode->_Left));
; 746  :         }
; 747  :     }

  00065	8b e5		 mov	 esp, ebp
  00067	5d		 pop	 ebp
  00068	c2 08 00	 ret	 8
??$_Erase_tree@V?$allocator@U?$_Tree_node@V?$basic_string@DU?$char_traits@D@std@@V?$allocator@D@2@@std@@PAX@std@@@std@@@?$_Tree_val@U?$_Tree_simple_types@V?$basic_string@DU?$char_traits@D@std@@V?$allocator@D@2@@std@@@std@@@std@@QAEXAAV?$allocator@U?$_Tree_node@V?$basic_string@DU?$char_traits@D@std@@V?$allocator@D@2@@std@@PAX@std@@@1@PAU?$_Tree_node@V?$basic_string@DU?$char_traits@D@std@@V?$allocator@D@2@@std@@PAX@1@@Z ENDP ; std::_Tree_val<std::_Tree_simple_types<std::basic_string<char,std::char_traits<char>,std::allocator<char> > > >::_Erase_tree<std::allocator<std::_Tree_node<std::basic_string<char,std::char_traits<char>,std::allocator<char> >,void *> > >
_TEXT	ENDS
; Function compile flags: /Ogtp
; File C:\Program Files (x86)\Microsoft Visual Studio\2019\Community\VC\Tools\MSVC\14.28.29333\include\xtree
; File C:\Program Files (x86)\Microsoft Visual Studio\2019\Community\VC\Tools\MSVC\14.28.29333\include\xstddef
; File C:\Program Files (x86)\Microsoft Visual Studio\2019\Community\VC\Tools\MSVC\14.28.29333\include\xtree
;	COMDAT ??$_Find_lower_bound@V?$basic_string@DU?$char_traits@D@std@@V?$allocator@D@2@@std@@@?$_Tree@V?$_Tset_traits@V?$basic_string@DU?$char_traits@D@std@@V?$allocator@D@2@@std@@U?$less@V?$basic_string@DU?$char_traits@D@std@@V?$allocator@D@2@@std@@@2@V?$allocator@V?$basic_string@DU?$char_traits@D@std@@V?$allocator@D@2@@std@@@2@$0A@@std@@@std@@IBE?AU?$_Tree_find_result@PAU?$_Tree_node@V?$basic_string@DU?$char_traits@D@std@@V?$allocator@D@2@@std@@PAX@std@@@1@ABV?$basic_string@DU?$char_traits@D@std@@V?$allocator@D@2@@1@@Z
_TEXT	SEGMENT
___$ReturnUdt$ = 8					; size = 4
__Keyval$ = 12						; size = 4
??$_Find_lower_bound@V?$basic_string@DU?$char_traits@D@std@@V?$allocator@D@2@@std@@@?$_Tree@V?$_Tset_traits@V?$basic_string@DU?$char_traits@D@std@@V?$allocator@D@2@@std@@U?$less@V?$basic_string@DU?$char_traits@D@std@@V?$allocator@D@2@@std@@@2@V?$allocator@V?$basic_string@DU?$char_traits@D@std@@V?$allocator@D@2@@std@@@2@$0A@@std@@@std@@IBE?AU?$_Tree_find_result@PAU?$_Tree_node@V?$basic_string@DU?$char_traits@D@std@@V?$allocator@D@2@@std@@PAX@std@@@1@ABV?$basic_string@DU?$char_traits@D@std@@V?$allocator@D@2@@1@@Z PROC ; std::_Tree<std::_Tset_traits<std::basic_string<char,std::char_traits<char>,std::allocator<char> >,std::less<std::basic_string<char,std::char_traits<char>,std::allocator<char> > >,std::allocator<std::basic_string<char,std::char_traits<char>,std::allocator<char> > >,0> >::_Find_lower_bound<std::basic_string<char,std::char_traits<char>,std::allocator<char> > >, COMDAT
; _this$ = ecx

; 1699 :     _Tree_find_result<_Nodeptr> _Find_lower_bound(const _Keyty& _Keyval) const {

  00000	55		 push	 ebp
  00001	8b ec		 mov	 ebp, esp

; 1700 :         const auto _Scary = _Get_scary();
; 1701 :         _Tree_find_result<_Nodeptr> _Result{{_Scary->_Myhead->_Parent, _Tree_child::_Right}, _Scary->_Myhead};

  00003	8b 01		 mov	 eax, DWORD PTR [ecx]
  00005	56		 push	 esi
  00006	57		 push	 edi
  00007	8b 7d 08	 mov	 edi, DWORD PTR ___$ReturnUdt$[ebp]
  0000a	8b 70 04	 mov	 esi, DWORD PTR [eax+4]
  0000d	89 37		 mov	 DWORD PTR [edi], esi

; 1702 :         _Nodeptr _Trynode = _Result._Location._Parent;
; 1703 :         while (!_Trynode->_Isnil) {

  0000f	80 7e 0d 00	 cmp	 BYTE PTR [esi+13], 0
  00013	c7 47 04 00 00
	00 00		 mov	 DWORD PTR [edi+4], 0
  0001a	89 47 08	 mov	 DWORD PTR [edi+8], eax
  0001d	75 32		 jne	 SHORT $LN12@Find_lower
  0001f	53		 push	 ebx
  00020	8b 5d 0c	 mov	 ebx, DWORD PTR __Keyval$[ebp]
$LL2@Find_lower:

; 1705 :             if (_DEBUG_LT_PRED(_Getcomp(), _Traits::_Kfn(_Trynode->_Myval), _Keyval)) {

  00023	8d 46 10	 lea	 eax, DWORD PTR [esi+16]
  00026	89 37		 mov	 DWORD PTR [edi], esi
; File C:\Program Files (x86)\Microsoft Visual Studio\2019\Community\VC\Tools\MSVC\14.28.29333\include\xstddef

; 127  :         return _Left < _Right;

  00028	53		 push	 ebx
  00029	50		 push	 eax
  0002a	e8 00 00 00 00	 call	 ??$?MDU?$char_traits@D@std@@V?$allocator@D@1@@std@@YA_NABV?$basic_string@DU?$char_traits@D@std@@V?$allocator@D@2@@0@0@Z ; std::operator<<char,std::char_traits<char>,std::allocator<char> >
  0002f	83 c4 08	 add	 esp, 8
; File C:\Program Files (x86)\Microsoft Visual Studio\2019\Community\VC\Tools\MSVC\14.28.29333\include\xtree

; 1705 :             if (_DEBUG_LT_PRED(_Getcomp(), _Traits::_Kfn(_Trynode->_Myval), _Keyval)) {

  00032	84 c0		 test	 al, al
  00034	74 07		 je	 SHORT $LN4@Find_lower

; 1706 :                 _Result._Location._Child = _Tree_child::_Right;
; 1707 :                 _Trynode                 = _Trynode->_Right;

  00036	8b 76 08	 mov	 esi, DWORD PTR [esi+8]
  00039	33 c0		 xor	 eax, eax

; 1708 :             } else {

  0003b	eb 0a		 jmp	 SHORT $LN5@Find_lower
$LN4@Find_lower:

; 1709 :                 _Result._Location._Child = _Tree_child::_Left;
; 1710 :                 _Result._Bound           = _Trynode;

  0003d	89 77 08	 mov	 DWORD PTR [edi+8], esi

; 1711 :                 _Trynode                 = _Trynode->_Left;

  00040	b8 01 00 00 00	 mov	 eax, 1
  00045	8b 36		 mov	 esi, DWORD PTR [esi]
$LN5@Find_lower:

; 1702 :         _Nodeptr _Trynode = _Result._Location._Parent;
; 1703 :         while (!_Trynode->_Isnil) {

  00047	89 47 04	 mov	 DWORD PTR [edi+4], eax
  0004a	80 7e 0d 00	 cmp	 BYTE PTR [esi+13], 0
  0004e	74 d3		 je	 SHORT $LL2@Find_lower

; 1712 :             }
; 1713 :         }
; 1714 : 
; 1715 :         return _Result;

  00050	5b		 pop	 ebx
$LN12@Find_lower:

; 1716 :     }

  00051	8b c7		 mov	 eax, edi
  00053	5f		 pop	 edi
  00054	5e		 pop	 esi
  00055	5d		 pop	 ebp
  00056	c2 08 00	 ret	 8
??$_Find_lower_bound@V?$basic_string@DU?$char_traits@D@std@@V?$allocator@D@2@@std@@@?$_Tree@V?$_Tset_traits@V?$basic_string@DU?$char_traits@D@std@@V?$allocator@D@2@@std@@U?$less@V?$basic_string@DU?$char_traits@D@std@@V?$allocator@D@2@@std@@@2@V?$allocator@V?$basic_string@DU?$char_traits@D@std@@V?$allocator@D@2@@std@@@2@$0A@@std@@@std@@IBE?AU?$_Tree_find_result@PAU?$_Tree_node@V?$basic_string@DU?$char_traits@D@std@@V?$allocator@D@2@@std@@PAX@std@@@1@ABV?$basic_string@DU?$char_traits@D@std@@V?$allocator@D@2@@1@@Z ENDP ; std::_Tree<std::_Tset_traits<std::basic_string<char,std::char_traits<char>,std::allocator<char> >,std::less<std::basic_string<char,std::char_traits<char>,std::allocator<char> > >,std::allocator<std::basic_string<char,std::char_traits<char>,std::allocator<char> > >,0> >::_Find_lower_bound<std::basic_string<char,std::char_traits<char>,std::allocator<char> > >
_TEXT	ENDS
; Function compile flags: /Ogtp
; File C:\Program Files (x86)\Microsoft Visual Studio\2019\Community\VC\Tools\MSVC\14.28.29333\include\xtree
; File C:\Program Files (x86)\Microsoft Visual Studio\2019\Community\VC\Tools\MSVC\14.28.29333\include\xstddef
; File C:\Program Files (x86)\Microsoft Visual Studio\2019\Community\VC\Tools\MSVC\14.28.29333\include\xtree
; File C:\Program Files (x86)\Microsoft Visual Studio\2019\Community\VC\Tools\MSVC\14.28.29333\include\xstddef
; File C:\Program Files (x86)\Microsoft Visual Studio\2019\Community\VC\Tools\MSVC\14.28.29333\include\xtree
;	COMDAT ??$_Find_lower_bound@K@?$_Tree@V?$_Tmap_traits@KKU?$less@K@std@@V?$allocator@U?$pair@$$CBKK@std@@@2@$0A@@std@@@std@@IBE?AU?$_Tree_find_result@PAU?$_Tree_node@U?$pair@$$CBKK@std@@PAX@std@@@1@ABK@Z
_TEXT	SEGMENT
___$ReturnUdt$ = 8					; size = 4
__Keyval$ = 12						; size = 4
??$_Find_lower_bound@K@?$_Tree@V?$_Tmap_traits@KKU?$less@K@std@@V?$allocator@U?$pair@$$CBKK@std@@@2@$0A@@std@@@std@@IBE?AU?$_Tree_find_result@PAU?$_Tree_node@U?$pair@$$CBKK@std@@PAX@std@@@1@ABK@Z PROC ; std::_Tree<std::_Tmap_traits<unsigned long,unsigned long,std::less<unsigned long>,std::allocator<std::pair<unsigned long const ,unsigned long> >,0> >::_Find_lower_bound<unsigned long>, COMDAT
; _this$ = ecx

; 1699 :     _Tree_find_result<_Nodeptr> _Find_lower_bound(const _Keyty& _Keyval) const {

  00000	55		 push	 ebp
  00001	8b ec		 mov	 ebp, esp

; 1700 :         const auto _Scary = _Get_scary();
; 1701 :         _Tree_find_result<_Nodeptr> _Result{{_Scary->_Myhead->_Parent, _Tree_child::_Right}, _Scary->_Myhead};

  00003	8b 09		 mov	 ecx, DWORD PTR [ecx]
  00005	8b 55 08	 mov	 edx, DWORD PTR ___$ReturnUdt$[ebp]
  00008	8b 41 04	 mov	 eax, DWORD PTR [ecx+4]
  0000b	89 02		 mov	 DWORD PTR [edx], eax
  0000d	c7 42 04 00 00
	00 00		 mov	 DWORD PTR [edx+4], 0
  00014	89 4a 08	 mov	 DWORD PTR [edx+8], ecx

; 1702 :         _Nodeptr _Trynode = _Result._Location._Parent;
; 1703 :         while (!_Trynode->_Isnil) {

  00017	80 78 0d 00	 cmp	 BYTE PTR [eax+13], 0
  0001b	75 28		 jne	 SHORT $LN12@Find_lower
; File C:\Program Files (x86)\Microsoft Visual Studio\2019\Community\VC\Tools\MSVC\14.28.29333\include\xstddef

; 127  :         return _Left < _Right;

  0001d	8b 4d 0c	 mov	 ecx, DWORD PTR __Keyval$[ebp]
  00020	56		 push	 esi
  00021	8b 31		 mov	 esi, DWORD PTR [ecx]
$LL2@Find_lower:
; File C:\Program Files (x86)\Microsoft Visual Studio\2019\Community\VC\Tools\MSVC\14.28.29333\include\xtree

; 1704 :             _Result._Location._Parent = _Trynode;

  00023	89 02		 mov	 DWORD PTR [edx], eax
; File C:\Program Files (x86)\Microsoft Visual Studio\2019\Community\VC\Tools\MSVC\14.28.29333\include\xstddef

; 127  :         return _Left < _Right;

  00025	39 70 10	 cmp	 DWORD PTR [eax+16], esi
; File C:\Program Files (x86)\Microsoft Visual Studio\2019\Community\VC\Tools\MSVC\14.28.29333\include\xtree

; 1705 :             if (_DEBUG_LT_PRED(_Getcomp(), _Traits::_Kfn(_Trynode->_Myval), _Keyval)) {

  00028	73 07		 jae	 SHORT $LN4@Find_lower

; 1706 :                 _Result._Location._Child = _Tree_child::_Right;
; 1707 :                 _Trynode                 = _Trynode->_Right;

  0002a	8b 40 08	 mov	 eax, DWORD PTR [eax+8]
  0002d	33 c9		 xor	 ecx, ecx

; 1708 :             } else {

  0002f	eb 0a		 jmp	 SHORT $LN5@Find_lower
$LN4@Find_lower:

; 1709 :                 _Result._Location._Child = _Tree_child::_Left;
; 1710 :                 _Result._Bound           = _Trynode;

  00031	89 42 08	 mov	 DWORD PTR [edx+8], eax

; 1711 :                 _Trynode                 = _Trynode->_Left;

  00034	b9 01 00 00 00	 mov	 ecx, 1
  00039	8b 00		 mov	 eax, DWORD PTR [eax]
$LN5@Find_lower:

; 1702 :         _Nodeptr _Trynode = _Result._Location._Parent;
; 1703 :         while (!_Trynode->_Isnil) {

  0003b	89 4a 04	 mov	 DWORD PTR [edx+4], ecx
  0003e	80 78 0d 00	 cmp	 BYTE PTR [eax+13], 0
  00042	74 df		 je	 SHORT $LL2@Find_lower

; 1712 :             }
; 1713 :         }
; 1714 : 
; 1715 :         return _Result;

  00044	5e		 pop	 esi
$LN12@Find_lower:

; 1716 :     }

  00045	8b c2		 mov	 eax, edx
  00047	5d		 pop	 ebp
  00048	c2 08 00	 ret	 8
??$_Find_lower_bound@K@?$_Tree@V?$_Tmap_traits@KKU?$less@K@std@@V?$allocator@U?$pair@$$CBKK@std@@@2@$0A@@std@@@std@@IBE?AU?$_Tree_find_result@PAU?$_Tree_node@U?$pair@$$CBKK@std@@PAX@std@@@1@ABK@Z ENDP ; std::_Tree<std::_Tmap_traits<unsigned long,unsigned long,std::less<unsigned long>,std::allocator<std::pair<unsigned long const ,unsigned long> >,0> >::_Find_lower_bound<unsigned long>
_TEXT	ENDS
; Function compile flags: /Ogtp
; File C:\Program Files (x86)\Microsoft Visual Studio\2019\Community\VC\Tools\MSVC\14.28.29333\include\xtree
; File C:\Program Files (x86)\Microsoft Visual Studio\2019\Community\VC\Tools\MSVC\14.28.29333\include\xstddef
; File C:\Program Files (x86)\Microsoft Visual Studio\2019\Community\VC\Tools\MSVC\14.28.29333\include\xtree
; File C:\Program Files (x86)\Microsoft Visual Studio\2019\Community\VC\Tools\MSVC\14.28.29333\include\xstddef
; File C:\Program Files (x86)\Microsoft Visual Studio\2019\Community\VC\Tools\MSVC\14.28.29333\include\xtree
;	COMDAT ??$_Find_lower_bound@K@?$_Tree@V?$_Tmap_traits@KUSReserveTargetEffect@CPythonBackground@@U?$less@K@std@@V?$allocator@U?$pair@$$CBKUSReserveTargetEffect@CPythonBackground@@@std@@@4@$0A@@std@@@std@@IBE?AU?$_Tree_find_result@PAU?$_Tree_node@U?$pair@$$CBKUSReserveTargetEffect@CPythonBackground@@@std@@PAX@std@@@1@ABK@Z
_TEXT	SEGMENT
___$ReturnUdt$ = 8					; size = 4
__Keyval$ = 12						; size = 4
??$_Find_lower_bound@K@?$_Tree@V?$_Tmap_traits@KUSReserveTargetEffect@CPythonBackground@@U?$less@K@std@@V?$allocator@U?$pair@$$CBKUSReserveTargetEffect@CPythonBackground@@@std@@@4@$0A@@std@@@std@@IBE?AU?$_Tree_find_result@PAU?$_Tree_node@U?$pair@$$CBKUSReserveTargetEffect@CPythonBackground@@@std@@PAX@std@@@1@ABK@Z PROC ; std::_Tree<std::_Tmap_traits<unsigned long,CPythonBackground::SReserveTargetEffect,std::less<unsigned long>,std::allocator<std::pair<unsigned long const ,CPythonBackground::SReserveTargetEffect> >,0> >::_Find_lower_bound<unsigned long>, COMDAT
; _this$ = ecx

; 1699 :     _Tree_find_result<_Nodeptr> _Find_lower_bound(const _Keyty& _Keyval) const {

  00000	55		 push	 ebp
  00001	8b ec		 mov	 ebp, esp

; 1700 :         const auto _Scary = _Get_scary();
; 1701 :         _Tree_find_result<_Nodeptr> _Result{{_Scary->_Myhead->_Parent, _Tree_child::_Right}, _Scary->_Myhead};

  00003	8b 09		 mov	 ecx, DWORD PTR [ecx]
  00005	8b 55 08	 mov	 edx, DWORD PTR ___$ReturnUdt$[ebp]
  00008	8b 41 04	 mov	 eax, DWORD PTR [ecx+4]
  0000b	89 02		 mov	 DWORD PTR [edx], eax
  0000d	c7 42 04 00 00
	00 00		 mov	 DWORD PTR [edx+4], 0
  00014	89 4a 08	 mov	 DWORD PTR [edx+8], ecx

; 1702 :         _Nodeptr _Trynode = _Result._Location._Parent;
; 1703 :         while (!_Trynode->_Isnil) {

  00017	80 78 0d 00	 cmp	 BYTE PTR [eax+13], 0
  0001b	75 28		 jne	 SHORT $LN12@Find_lower
; File C:\Program Files (x86)\Microsoft Visual Studio\2019\Community\VC\Tools\MSVC\14.28.29333\include\xstddef

; 127  :         return _Left < _Right;

  0001d	8b 4d 0c	 mov	 ecx, DWORD PTR __Keyval$[ebp]
  00020	56		 push	 esi
  00021	8b 31		 mov	 esi, DWORD PTR [ecx]
$LL2@Find_lower:
; File C:\Program Files (x86)\Microsoft Visual Studio\2019\Community\VC\Tools\MSVC\14.28.29333\include\xtree

; 1704 :             _Result._Location._Parent = _Trynode;

  00023	89 02		 mov	 DWORD PTR [edx], eax
; File C:\Program Files (x86)\Microsoft Visual Studio\2019\Community\VC\Tools\MSVC\14.28.29333\include\xstddef

; 127  :         return _Left < _Right;

  00025	39 70 10	 cmp	 DWORD PTR [eax+16], esi
; File C:\Program Files (x86)\Microsoft Visual Studio\2019\Community\VC\Tools\MSVC\14.28.29333\include\xtree

; 1705 :             if (_DEBUG_LT_PRED(_Getcomp(), _Traits::_Kfn(_Trynode->_Myval), _Keyval)) {

  00028	73 07		 jae	 SHORT $LN4@Find_lower

; 1706 :                 _Result._Location._Child = _Tree_child::_Right;
; 1707 :                 _Trynode                 = _Trynode->_Right;

  0002a	8b 40 08	 mov	 eax, DWORD PTR [eax+8]
  0002d	33 c9		 xor	 ecx, ecx

; 1708 :             } else {

  0002f	eb 0a		 jmp	 SHORT $LN5@Find_lower
$LN4@Find_lower:

; 1709 :                 _Result._Location._Child = _Tree_child::_Left;
; 1710 :                 _Result._Bound           = _Trynode;

  00031	89 42 08	 mov	 DWORD PTR [edx+8], eax

; 1711 :                 _Trynode                 = _Trynode->_Left;

  00034	b9 01 00 00 00	 mov	 ecx, 1
  00039	8b 00		 mov	 eax, DWORD PTR [eax]
$LN5@Find_lower:

; 1702 :         _Nodeptr _Trynode = _Result._Location._Parent;
; 1703 :         while (!_Trynode->_Isnil) {

  0003b	89 4a 04	 mov	 DWORD PTR [edx+4], ecx
  0003e	80 78 0d 00	 cmp	 BYTE PTR [eax+13], 0
  00042	74 df		 je	 SHORT $LL2@Find_lower

; 1712 :             }
; 1713 :         }
; 1714 : 
; 1715 :         return _Result;

  00044	5e		 pop	 esi
$LN12@Find_lower:

; 1716 :     }

  00045	8b c2		 mov	 eax, edx
  00047	5d		 pop	 ebp
  00048	c2 08 00	 ret	 8
??$_Find_lower_bound@K@?$_Tree@V?$_Tmap_traits@KUSReserveTargetEffect@CPythonBackground@@U?$less@K@std@@V?$allocator@U?$pair@$$CBKUSReserveTargetEffect@CPythonBackground@@@std@@@4@$0A@@std@@@std@@IBE?AU?$_Tree_find_result@PAU?$_Tree_node@U?$pair@$$CBKUSReserveTargetEffect@CPythonBackground@@@std@@PAX@std@@@1@ABK@Z ENDP ; std::_Tree<std::_Tmap_traits<unsigned long,CPythonBackground::SReserveTargetEffect,std::less<unsigned long>,std::allocator<std::pair<unsigned long const ,CPythonBackground::SReserveTargetEffect> >,0> >::_Find_lower_bound<unsigned long>
_TEXT	ENDS
; Function compile flags: /Ogtp
; File C:\Program Files (x86)\Microsoft Visual Studio\2019\Community\VC\Tools\MSVC\14.28.29333\include\xstring
;	COMDAT ??$?8DU?$char_traits@D@std@@V?$allocator@D@1@@std@@YA_NQBDABV?$basic_string@DU?$char_traits@D@std@@V?$allocator@D@2@@0@@Z
_TEXT	SEGMENT
__Left$ = 8						; size = 4
__Right$ = 12						; size = 4
??$?8DU?$char_traits@D@std@@V?$allocator@D@1@@std@@YA_NQBDABV?$basic_string@DU?$char_traits@D@std@@V?$allocator@D@2@@0@@Z PROC ; std::operator==<char,std::char_traits<char>,std::allocator<char> >, COMDAT

; 4559 : _NODISCARD bool operator==(_In_z_ const _Elem* const _Left, const basic_string<_Elem, _Traits, _Alloc>& _Right) {

  00000	55		 push	 ebp
  00001	8b ec		 mov	 ebp, esp

; 389  :         return _CSTD strlen(reinterpret_cast<const char*>(_First));

  00003	8b 4d 08	 mov	 ecx, DWORD PTR __Left$[ebp]
  00006	8d 51 01	 lea	 edx, DWORD PTR [ecx+1]
  00009	0f 1f 80 00 00
	00 00		 npad	 7
$LL12@operator:
  00010	8a 01		 mov	 al, BYTE PTR [ecx]
  00012	41		 inc	 ecx
  00013	84 c0		 test	 al, al
  00015	75 f9		 jne	 SHORT $LL12@operator

; 2218 :         const value_type* _Result = _Bx._Buf;

  00017	8b 45 0c	 mov	 eax, DWORD PTR __Right$[ebp]

; 389  :         return _CSTD strlen(reinterpret_cast<const char*>(_First));

  0001a	2b ca		 sub	 ecx, edx

; 2218 :         const value_type* _Result = _Bx._Buf;

  0001c	8b d0		 mov	 edx, eax

; 2227 :         return _BUF_SIZE <= _Myres;

  0001e	83 78 14 10	 cmp	 DWORD PTR [eax+20], 16	; 00000010H

; 2219 :         if (_Large_string_engaged()) {

  00022	72 02		 jb	 SHORT $LN8@operator

; 2220 :             _Result = _Unfancy(_Bx._Ptr);

  00024	8b 10		 mov	 edx, DWORD PTR [eax]
$LN8@operator:

; 4180 :         return _Traits_equal<_Traits>(_Mypair._Myval2._Myptr(), _Mypair._Myval2._Mysize, _Ptr, _Traits::length(_Ptr));

  00026	51		 push	 ecx
  00027	ff 75 08	 push	 DWORD PTR __Left$[ebp]
  0002a	ff 70 10	 push	 DWORD PTR [eax+16]
  0002d	52		 push	 edx
  0002e	e8 00 00 00 00	 call	 ??$_Traits_equal@U?$char_traits@D@std@@@std@@YA_NQBDI0I@Z ; std::_Traits_equal<std::char_traits<char> >
  00033	83 c4 10	 add	 esp, 16			; 00000010H

; 4560 :     return _Right._Equal(_Left);
; 4561 : }

  00036	5d		 pop	 ebp
  00037	c3		 ret	 0
??$?8DU?$char_traits@D@std@@V?$allocator@D@1@@std@@YA_NQBDABV?$basic_string@DU?$char_traits@D@std@@V?$allocator@D@2@@0@@Z ENDP ; std::operator==<char,std::char_traits<char>,std::allocator<char> >
_TEXT	ENDS
; Function compile flags: /Ogtp
;	COMDAT ??_G?$RangeTester@UCollisionChecker@@@@UAEPAXI@Z
_TEXT	SEGMENT
___flags$ = 8						; size = 4
??_G?$RangeTester@UCollisionChecker@@@@UAEPAXI@Z PROC	; RangeTester<CollisionChecker>::`scalar deleting destructor', COMDAT
; _this$ = ecx
  00000	55		 push	 ebp
  00001	8b ec		 mov	 ebp, esp
  00003	f6 45 08 01	 test	 BYTE PTR ___flags$[ebp], 1
  00007	56		 push	 esi
  00008	8b f1		 mov	 esi, ecx
  0000a	c7 06 00 00 00
	00		 mov	 DWORD PTR [esi], OFFSET ??_7SpherePackCallback@@6B@
  00010	74 0b		 je	 SHORT $LN4@scalar
  00012	6a 0c		 push	 12			; 0000000cH
  00014	56		 push	 esi
  00015	e8 00 00 00 00	 call	 ??3@YAXPAXI@Z		; operator delete
  0001a	83 c4 08	 add	 esp, 8
$LN4@scalar:
  0001d	8b c6		 mov	 eax, esi
  0001f	5e		 pop	 esi
  00020	5d		 pop	 ebp
  00021	c2 04 00	 ret	 4
??_G?$RangeTester@UCollisionChecker@@@@UAEPAXI@Z ENDP	; RangeTester<CollisionChecker>::`scalar deleting destructor'
_TEXT	ENDS
; Function compile flags: /Ogtp
; File D:\Metin2 Server Files\mainline\SRC_2014\Metin2Client\eterlib\CullingManager.h
; File D:\Metin2 Server Files\mainline\SRC_2014\Metin2Client\UserInterface\PythonBackground.cpp
; File D:\Metin2 Server Files\mainline\SRC_2014\Metin2Client\eterlib\CullingManager.h
; File D:\Metin2 Server Files\mainline\SRC_2014\Metin2Client\UserInterface\PythonBackground.cpp
; File D:\Metin2 Server Files\mainline\SRC_2014\Metin2Client\eterlib\CullingManager.h
;	COMDAT ?PointTest2dCallback@?$RangeTester@UCollisionChecker@@@@UAEXABVVector3d@@PAVSpherePack@@W4ViewState@@@Z
_TEXT	SEGMENT
_p$ = 8							; size = 4
_sphere$ = 12						; size = 4
_state$ = 16						; size = 4
?PointTest2dCallback@?$RangeTester@UCollisionChecker@@@@UAEXABVVector3d@@PAVSpherePack@@W4ViewState@@@Z PROC ; RangeTester<CollisionChecker>::PointTest2dCallback, COMDAT
; _this$ = ecx

; 50   : 	{

  00000	55		 push	 ebp
  00001	8b ec		 mov	 ebp, esp

; 51   : #ifdef SPHERELIB_STRICT
; 52   : 		if (sphere->IS_SPHERE)
; 53   : 			puts("RangeTester::PointTest2dCallback");	
; 54   : #endif
; 55   : 		if (state!=VS_OUTSIDE)

  00003	83 7d 10 02	 cmp	 DWORD PTR _state$[ebp], 2
  00007	74 24		 je	 SHORT $LN7@PointTest2

; 60   : 			(*f)((CGraphicObjectInstance *)sphere->GetUserData());

  00009	56		 push	 esi
  0000a	8b 71 04	 mov	 esi, DWORD PTR [ecx+4]
; File D:\Metin2 Server Files\mainline\SRC_2014\Metin2Client\UserInterface\PythonBackground.cpp

; 555  : 		if (isBlocked)

  0000d	80 3e 00	 cmp	 BYTE PTR [esi], 0
  00010	75 1a		 jne	 SHORT $LN9@PointTest2
; File D:\Metin2 Server Files\mainline\SRC_2014\Metin2Client\eterlib\CullingManager.h

; 60   : 			(*f)((CGraphicObjectInstance *)sphere->GetUserData());

  00012	8b 45 0c	 mov	 eax, DWORD PTR _sphere$[ebp]
  00015	8b 40 44	 mov	 eax, DWORD PTR [eax+68]
; File D:\Metin2 Server Files\mainline\SRC_2014\Metin2Client\UserInterface\PythonBackground.cpp

; 558  : 		if (!pOpponent)

  00018	85 c0		 test	 eax, eax
  0001a	74 10		 je	 SHORT $LN9@PointTest2

; 559  : 			return;
; 560  : 
; 561  : 		if (pInstance->IsBlockObject(*pOpponent))

  0001c	8b 4e 04	 mov	 ecx, DWORD PTR [esi+4]
  0001f	50		 push	 eax
  00020	e8 00 00 00 00	 call	 ?IsBlockObject@CInstanceBase@@QAE_NABVCGraphicObjectInstance@@@Z ; CInstanceBase::IsBlockObject
  00025	84 c0		 test	 al, al
  00027	74 03		 je	 SHORT $LN9@PointTest2

; 562  : 			isBlocked=true;

  00029	c6 06 01	 mov	 BYTE PTR [esi], 1
$LN9@PointTest2:
  0002c	5e		 pop	 esi
$LN7@PointTest2:
; File D:\Metin2 Server Files\mainline\SRC_2014\Metin2Client\eterlib\CullingManager.h

; 62   : 	}

  0002d	5d		 pop	 ebp
  0002e	c2 0c 00	 ret	 12			; 0000000cH
?PointTest2dCallback@?$RangeTester@UCollisionChecker@@@@UAEXABVVector3d@@PAVSpherePack@@W4ViewState@@@Z ENDP ; RangeTester<CollisionChecker>::PointTest2dCallback
_TEXT	ENDS
; Function compile flags: /Ogtp
; File D:\Metin2 Server Files\mainline\SRC_2014\Metin2Client\eterlib\CullingManager.h
; File D:\Metin2 Server Files\mainline\SRC_2014\Metin2Client\UserInterface\PythonBackground.cpp
; File D:\Metin2 Server Files\mainline\SRC_2014\Metin2Client\eterlib\CullingManager.h
; File D:\Metin2 Server Files\mainline\SRC_2014\Metin2Client\UserInterface\PythonBackground.cpp
; File D:\Metin2 Server Files\mainline\SRC_2014\Metin2Client\eterlib\CullingManager.h
;	COMDAT ?RangeTestCallback@?$RangeTester@UCollisionChecker@@@@UAEXABVVector3d@@MPAVSpherePack@@W4ViewState@@@Z
_TEXT	SEGMENT
_p$ = 8							; size = 4
_distance$ = 12						; size = 4
_sphere$ = 16						; size = 4
_state$ = 20						; size = 4
?RangeTestCallback@?$RangeTester@UCollisionChecker@@@@UAEXABVVector3d@@MPAVSpherePack@@W4ViewState@@@Z PROC ; RangeTester<CollisionChecker>::RangeTestCallback, COMDAT
; _this$ = ecx

; 40   : 	{

  00000	55		 push	 ebp
  00001	8b ec		 mov	 ebp, esp

; 41   : #ifdef SPHERELIB_STRICT
; 42   : 		if (sphere->IS_SPHERE)
; 43   : 			puts("RangeTester::RangeTestCallback");
; 44   : #endif	
; 45   : 		if (state!=VS_OUTSIDE)

  00003	83 7d 14 02	 cmp	 DWORD PTR _state$[ebp], 2
  00007	74 24		 je	 SHORT $LN7@RangeTestC

; 46   : 			(*f)((CGraphicObjectInstance *)sphere->GetUserData());

  00009	56		 push	 esi
  0000a	8b 71 04	 mov	 esi, DWORD PTR [ecx+4]
; File D:\Metin2 Server Files\mainline\SRC_2014\Metin2Client\UserInterface\PythonBackground.cpp

; 555  : 		if (isBlocked)

  0000d	80 3e 00	 cmp	 BYTE PTR [esi], 0
  00010	75 1a		 jne	 SHORT $LN9@RangeTestC
; File D:\Metin2 Server Files\mainline\SRC_2014\Metin2Client\eterlib\CullingManager.h

; 46   : 			(*f)((CGraphicObjectInstance *)sphere->GetUserData());

  00012	8b 45 10	 mov	 eax, DWORD PTR _sphere$[ebp]
  00015	8b 40 44	 mov	 eax, DWORD PTR [eax+68]
; File D:\Metin2 Server Files\mainline\SRC_2014\Metin2Client\UserInterface\PythonBackground.cpp

; 558  : 		if (!pOpponent)

  00018	85 c0		 test	 eax, eax
  0001a	74 10		 je	 SHORT $LN9@RangeTestC

; 559  : 			return;
; 560  : 
; 561  : 		if (pInstance->IsBlockObject(*pOpponent))

  0001c	8b 4e 04	 mov	 ecx, DWORD PTR [esi+4]
  0001f	50		 push	 eax
  00020	e8 00 00 00 00	 call	 ?IsBlockObject@CInstanceBase@@QAE_NABVCGraphicObjectInstance@@@Z ; CInstanceBase::IsBlockObject
  00025	84 c0		 test	 al, al
  00027	74 03		 je	 SHORT $LN9@RangeTestC

; 562  : 			isBlocked=true;

  00029	c6 06 01	 mov	 BYTE PTR [esi], 1
$LN9@RangeTestC:
  0002c	5e		 pop	 esi
$LN7@RangeTestC:
; File D:\Metin2 Server Files\mainline\SRC_2014\Metin2Client\eterlib\CullingManager.h

; 47   : 	}

  0002d	5d		 pop	 ebp
  0002e	c2 10 00	 ret	 16			; 00000010H
?RangeTestCallback@?$RangeTester@UCollisionChecker@@@@UAEXABVVector3d@@MPAVSpherePack@@W4ViewState@@@Z ENDP ; RangeTester<CollisionChecker>::RangeTestCallback
_TEXT	ENDS
; Function compile flags: /Ogtp
; File D:\Metin2 Server Files\mainline\SRC_2014\Metin2Client\eterlib\CullingManager.h
;	COMDAT ?VisibilityCallback@?$RangeTester@UCollisionChecker@@@@UAEXABVFrustum@@PAVSpherePack@@W4ViewState@@@Z
_TEXT	SEGMENT
_f$ = 8							; size = 4
_sphere$ = 12						; size = 4
_state$ = 16						; size = 4
?VisibilityCallback@?$RangeTester@UCollisionChecker@@@@UAEXABVFrustum@@PAVSpherePack@@W4ViewState@@@Z PROC ; RangeTester<CollisionChecker>::VisibilityCallback, COMDAT
; _this$ = ecx

; 37   : 	virtual void VisibilityCallback(const Frustum &f,SpherePack *sphere,ViewState state){};

  00000	c2 0c 00	 ret	 12			; 0000000cH
?VisibilityCallback@?$RangeTester@UCollisionChecker@@@@UAEXABVFrustum@@PAVSpherePack@@W4ViewState@@@Z ENDP ; RangeTester<CollisionChecker>::VisibilityCallback
_TEXT	ENDS
; Function compile flags: /Ogtp
; File D:\Metin2 Server Files\mainline\SRC_2014\Metin2Client\eterlib\CullingManager.h
; File D:\Metin2 Server Files\mainline\SRC_2014\Metin2Client\UserInterface\PythonBackground.cpp
; File D:\Metin2 Server Files\mainline\SRC_2014\Metin2Client\eterlib\CullingManager.h
; File D:\Metin2 Server Files\mainline\SRC_2014\Metin2Client\UserInterface\PythonBackground.cpp
; File D:\Metin2 Server Files\mainline\SRC_2014\Metin2Client\eterlib\CullingManager.h
;	COMDAT ?RayTraceCallback@?$RangeTester@UCollisionChecker@@@@UAEXABVVector3d@@0M0PAVSpherePack@@@Z
_TEXT	SEGMENT
_p1$ = 8						; size = 4
_dir$ = 12						; size = 4
_distance$ = 16						; size = 4
_sect$ = 20						; size = 4
_sphere$ = 24						; size = 4
?RayTraceCallback@?$RangeTester@UCollisionChecker@@@@UAEXABVVector3d@@0M0PAVSpherePack@@@Z PROC ; RangeTester<CollisionChecker>::RayTraceCallback, COMDAT
; _this$ = ecx

; 27   : 	{

  00000	55		 push	 ebp
  00001	8b ec		 mov	 ebp, esp

; 28   : #ifdef SPHERELIB_STRICT
; 29   : 		if (sphere->IS_SPHERE)
; 30   : 			puts("RangeTester::RayTraceCallback");
; 31   : #endif	
; 32   : 		if (dist<=0.0f || dist>=distance)

  00003	f3 0f 10 49 08	 movss	 xmm1, DWORD PTR [ecx+8]
  00008	0f 57 c0	 xorps	 xmm0, xmm0
  0000b	0f 2f c1	 comiss	 xmm0, xmm1
  0000e	73 06		 jae	 SHORT $LN3@RayTraceCa
  00010	0f 2f 4d 10	 comiss	 xmm1, DWORD PTR _distance$[ebp]
  00014	72 24		 jb	 SHORT $LN8@RayTraceCa
$LN3@RayTraceCa:
  00016	56		 push	 esi

; 33   : 			(*f)((CGraphicObjectInstance *)sphere->GetUserData());

  00017	8b 71 04	 mov	 esi, DWORD PTR [ecx+4]
; File D:\Metin2 Server Files\mainline\SRC_2014\Metin2Client\UserInterface\PythonBackground.cpp

; 555  : 		if (isBlocked)

  0001a	80 3e 00	 cmp	 BYTE PTR [esi], 0
  0001d	75 1a		 jne	 SHORT $LN10@RayTraceCa
; File D:\Metin2 Server Files\mainline\SRC_2014\Metin2Client\eterlib\CullingManager.h

; 33   : 			(*f)((CGraphicObjectInstance *)sphere->GetUserData());

  0001f	8b 45 18	 mov	 eax, DWORD PTR _sphere$[ebp]
  00022	8b 40 44	 mov	 eax, DWORD PTR [eax+68]
; File D:\Metin2 Server Files\mainline\SRC_2014\Metin2Client\UserInterface\PythonBackground.cpp

; 558  : 		if (!pOpponent)

  00025	85 c0		 test	 eax, eax
  00027	74 10		 je	 SHORT $LN10@RayTraceCa

; 559  : 			return;
; 560  : 
; 561  : 		if (pInstance->IsBlockObject(*pOpponent))

  00029	8b 4e 04	 mov	 ecx, DWORD PTR [esi+4]
  0002c	50		 push	 eax
  0002d	e8 00 00 00 00	 call	 ?IsBlockObject@CInstanceBase@@QAE_NABVCGraphicObjectInstance@@@Z ; CInstanceBase::IsBlockObject
  00032	84 c0		 test	 al, al
  00034	74 03		 je	 SHORT $LN10@RayTraceCa

; 562  : 			isBlocked=true;

  00036	c6 06 01	 mov	 BYTE PTR [esi], 1
$LN10@RayTraceCa:
  00039	5e		 pop	 esi
$LN8@RayTraceCa:
; File D:\Metin2 Server Files\mainline\SRC_2014\Metin2Client\eterlib\CullingManager.h

; 34   : 	};

  0003a	5d		 pop	 ebp
  0003b	c2 14 00	 ret	 20			; 00000014H
?RayTraceCallback@?$RangeTester@UCollisionChecker@@@@UAEXABVVector3d@@0M0PAVSpherePack@@@Z ENDP ; RangeTester<CollisionChecker>::RayTraceCallback
_TEXT	ENDS
; Function compile flags: /Ogtp
; File D:\Metin2 Server Files\mainline\SRC_2014\Metin2Client\eterlib\CullingManager.h
;	COMDAT ??1?$RangeTester@UCollisionChecker@@@@UAE@XZ
_TEXT	SEGMENT
??1?$RangeTester@UCollisionChecker@@@@UAE@XZ PROC	; RangeTester<CollisionChecker>::~RangeTester<CollisionChecker>, COMDAT
; _this$ = ecx

; 19   : 	{}

  00000	c7 01 00 00 00
	00		 mov	 DWORD PTR [ecx], OFFSET ??_7SpherePackCallback@@6B@
  00006	c3		 ret	 0
??1?$RangeTester@UCollisionChecker@@@@UAE@XZ ENDP	; RangeTester<CollisionChecker>::~RangeTester<CollisionChecker>
_TEXT	ENDS
; Function compile flags: /Ogtp
;	COMDAT ??_G?$RangeTester@UCollisionAdjustChecker@@@@UAEPAXI@Z
_TEXT	SEGMENT
___flags$ = 8						; size = 4
??_G?$RangeTester@UCollisionAdjustChecker@@@@UAEPAXI@Z PROC ; RangeTester<CollisionAdjustChecker>::`scalar deleting destructor', COMDAT
; _this$ = ecx
  00000	55		 push	 ebp
  00001	8b ec		 mov	 ebp, esp
  00003	f6 45 08 01	 test	 BYTE PTR ___flags$[ebp], 1
  00007	56		 push	 esi
  00008	8b f1		 mov	 esi, ecx
  0000a	c7 06 00 00 00
	00		 mov	 DWORD PTR [esi], OFFSET ??_7SpherePackCallback@@6B@
  00010	74 0b		 je	 SHORT $LN4@scalar
  00012	6a 0c		 push	 12			; 0000000cH
  00014	56		 push	 esi
  00015	e8 00 00 00 00	 call	 ??3@YAXPAXI@Z		; operator delete
  0001a	83 c4 08	 add	 esp, 8
$LN4@scalar:
  0001d	8b c6		 mov	 eax, esi
  0001f	5e		 pop	 esi
  00020	5d		 pop	 ebp
  00021	c2 04 00	 ret	 4
??_G?$RangeTester@UCollisionAdjustChecker@@@@UAEPAXI@Z ENDP ; RangeTester<CollisionAdjustChecker>::`scalar deleting destructor'
_TEXT	ENDS
; Function compile flags: /Ogtp
; File D:\Metin2 Server Files\mainline\SRC_2014\Metin2Client\eterlib\CullingManager.h
; File D:\Metin2 Server Files\mainline\SRC_2014\Metin2Client\UserInterface\PythonBackground.cpp
; File D:\Metin2 Server Files\mainline\SRC_2014\Metin2Client\eterlib\CullingManager.h
; File D:\Metin2 Server Files\mainline\SRC_2014\Metin2Client\UserInterface\PythonBackground.cpp
; File D:\Metin2 Server Files\mainline\SRC_2014\Metin2Client\eterlib\CullingManager.h
;	COMDAT ?PointTest2dCallback@?$RangeTester@UCollisionAdjustChecker@@@@UAEXABVVector3d@@PAVSpherePack@@W4ViewState@@@Z
_TEXT	SEGMENT
_p$ = 8							; size = 4
_sphere$ = 12						; size = 4
_state$ = 16						; size = 4
?PointTest2dCallback@?$RangeTester@UCollisionAdjustChecker@@@@UAEXABVVector3d@@PAVSpherePack@@W4ViewState@@@Z PROC ; RangeTester<CollisionAdjustChecker>::PointTest2dCallback, COMDAT
; _this$ = ecx

; 50   : 	{

  00000	55		 push	 ebp
  00001	8b ec		 mov	 ebp, esp

; 51   : #ifdef SPHERELIB_STRICT
; 52   : 		if (sphere->IS_SPHERE)
; 53   : 			puts("RangeTester::PointTest2dCallback");	
; 54   : #endif
; 55   : 		if (state!=VS_OUTSIDE)

  00003	83 7d 10 02	 cmp	 DWORD PTR _state$[ebp], 2
  00007	74 1f		 je	 SHORT $LN6@PointTest2

; 60   : 			(*f)((CGraphicObjectInstance *)sphere->GetUserData());

  00009	8b 45 0c	 mov	 eax, DWORD PTR _sphere$[ebp]
  0000c	8b 40 44	 mov	 eax, DWORD PTR [eax+68]
; File D:\Metin2 Server Files\mainline\SRC_2014\Metin2Client\UserInterface\PythonBackground.cpp

; 573  : 		if (!pOpponent)

  0000f	85 c0		 test	 eax, eax
  00011	74 15		 je	 SHORT $LN6@PointTest2
; File D:\Metin2 Server Files\mainline\SRC_2014\Metin2Client\eterlib\CullingManager.h

; 60   : 			(*f)((CGraphicObjectInstance *)sphere->GetUserData());

  00013	56		 push	 esi
  00014	8b 71 04	 mov	 esi, DWORD PTR [ecx+4]
; File D:\Metin2 Server Files\mainline\SRC_2014\Metin2Client\UserInterface\PythonBackground.cpp

; 576  : 		if (pInstance->AvoidObject(*pOpponent))

  00017	50		 push	 eax
  00018	8b 4e 04	 mov	 ecx, DWORD PTR [esi+4]
  0001b	e8 00 00 00 00	 call	 ?AvoidObject@CInstanceBase@@QAE_NABVCGraphicObjectInstance@@@Z ; CInstanceBase::AvoidObject
  00020	84 c0		 test	 al, al
  00022	74 03		 je	 SHORT $LN8@PointTest2

; 577  : 			isBlocked=true;

  00024	c6 06 01	 mov	 BYTE PTR [esi], 1
$LN8@PointTest2:
  00027	5e		 pop	 esi
$LN6@PointTest2:
; File D:\Metin2 Server Files\mainline\SRC_2014\Metin2Client\eterlib\CullingManager.h

; 62   : 	}

  00028	5d		 pop	 ebp
  00029	c2 0c 00	 ret	 12			; 0000000cH
?PointTest2dCallback@?$RangeTester@UCollisionAdjustChecker@@@@UAEXABVVector3d@@PAVSpherePack@@W4ViewState@@@Z ENDP ; RangeTester<CollisionAdjustChecker>::PointTest2dCallback
_TEXT	ENDS
; Function compile flags: /Ogtp
; File D:\Metin2 Server Files\mainline\SRC_2014\Metin2Client\eterlib\CullingManager.h
; File D:\Metin2 Server Files\mainline\SRC_2014\Metin2Client\UserInterface\PythonBackground.cpp
; File D:\Metin2 Server Files\mainline\SRC_2014\Metin2Client\eterlib\CullingManager.h
; File D:\Metin2 Server Files\mainline\SRC_2014\Metin2Client\UserInterface\PythonBackground.cpp
; File D:\Metin2 Server Files\mainline\SRC_2014\Metin2Client\eterlib\CullingManager.h
;	COMDAT ?RangeTestCallback@?$RangeTester@UCollisionAdjustChecker@@@@UAEXABVVector3d@@MPAVSpherePack@@W4ViewState@@@Z
_TEXT	SEGMENT
_p$ = 8							; size = 4
_distance$ = 12						; size = 4
_sphere$ = 16						; size = 4
_state$ = 20						; size = 4
?RangeTestCallback@?$RangeTester@UCollisionAdjustChecker@@@@UAEXABVVector3d@@MPAVSpherePack@@W4ViewState@@@Z PROC ; RangeTester<CollisionAdjustChecker>::RangeTestCallback, COMDAT
; _this$ = ecx

; 40   : 	{

  00000	55		 push	 ebp
  00001	8b ec		 mov	 ebp, esp

; 41   : #ifdef SPHERELIB_STRICT
; 42   : 		if (sphere->IS_SPHERE)
; 43   : 			puts("RangeTester::RangeTestCallback");
; 44   : #endif	
; 45   : 		if (state!=VS_OUTSIDE)

  00003	83 7d 14 02	 cmp	 DWORD PTR _state$[ebp], 2
  00007	74 1f		 je	 SHORT $LN6@RangeTestC

; 46   : 			(*f)((CGraphicObjectInstance *)sphere->GetUserData());

  00009	8b 45 10	 mov	 eax, DWORD PTR _sphere$[ebp]
  0000c	8b 40 44	 mov	 eax, DWORD PTR [eax+68]
; File D:\Metin2 Server Files\mainline\SRC_2014\Metin2Client\UserInterface\PythonBackground.cpp

; 573  : 		if (!pOpponent)

  0000f	85 c0		 test	 eax, eax
  00011	74 15		 je	 SHORT $LN6@RangeTestC
; File D:\Metin2 Server Files\mainline\SRC_2014\Metin2Client\eterlib\CullingManager.h

; 46   : 			(*f)((CGraphicObjectInstance *)sphere->GetUserData());

  00013	56		 push	 esi
  00014	8b 71 04	 mov	 esi, DWORD PTR [ecx+4]
; File D:\Metin2 Server Files\mainline\SRC_2014\Metin2Client\UserInterface\PythonBackground.cpp

; 576  : 		if (pInstance->AvoidObject(*pOpponent))

  00017	50		 push	 eax
  00018	8b 4e 04	 mov	 ecx, DWORD PTR [esi+4]
  0001b	e8 00 00 00 00	 call	 ?AvoidObject@CInstanceBase@@QAE_NABVCGraphicObjectInstance@@@Z ; CInstanceBase::AvoidObject
  00020	84 c0		 test	 al, al
  00022	74 03		 je	 SHORT $LN8@RangeTestC

; 577  : 			isBlocked=true;

  00024	c6 06 01	 mov	 BYTE PTR [esi], 1
$LN8@RangeTestC:
  00027	5e		 pop	 esi
$LN6@RangeTestC:
; File D:\Metin2 Server Files\mainline\SRC_2014\Metin2Client\eterlib\CullingManager.h

; 47   : 	}

  00028	5d		 pop	 ebp
  00029	c2 10 00	 ret	 16			; 00000010H
?RangeTestCallback@?$RangeTester@UCollisionAdjustChecker@@@@UAEXABVVector3d@@MPAVSpherePack@@W4ViewState@@@Z ENDP ; RangeTester<CollisionAdjustChecker>::RangeTestCallback
_TEXT	ENDS
; Function compile flags: /Ogtp
; File D:\Metin2 Server Files\mainline\SRC_2014\Metin2Client\eterlib\CullingManager.h
;	COMDAT ?VisibilityCallback@?$RangeTester@UCollisionAdjustChecker@@@@UAEXABVFrustum@@PAVSpherePack@@W4ViewState@@@Z
_TEXT	SEGMENT
_f$ = 8							; size = 4
_sphere$ = 12						; size = 4
_state$ = 16						; size = 4
?VisibilityCallback@?$RangeTester@UCollisionAdjustChecker@@@@UAEXABVFrustum@@PAVSpherePack@@W4ViewState@@@Z PROC ; RangeTester<CollisionAdjustChecker>::VisibilityCallback, COMDAT
; _this$ = ecx

; 37   : 	virtual void VisibilityCallback(const Frustum &f,SpherePack *sphere,ViewState state){};

  00000	c2 0c 00	 ret	 12			; 0000000cH
?VisibilityCallback@?$RangeTester@UCollisionAdjustChecker@@@@UAEXABVFrustum@@PAVSpherePack@@W4ViewState@@@Z ENDP ; RangeTester<CollisionAdjustChecker>::VisibilityCallback
_TEXT	ENDS
; Function compile flags: /Ogtp
; File D:\Metin2 Server Files\mainline\SRC_2014\Metin2Client\eterlib\CullingManager.h
; File D:\Metin2 Server Files\mainline\SRC_2014\Metin2Client\UserInterface\PythonBackground.cpp
; File D:\Metin2 Server Files\mainline\SRC_2014\Metin2Client\eterlib\CullingManager.h
; File D:\Metin2 Server Files\mainline\SRC_2014\Metin2Client\UserInterface\PythonBackground.cpp
; File D:\Metin2 Server Files\mainline\SRC_2014\Metin2Client\eterlib\CullingManager.h
;	COMDAT ?RayTraceCallback@?$RangeTester@UCollisionAdjustChecker@@@@UAEXABVVector3d@@0M0PAVSpherePack@@@Z
_TEXT	SEGMENT
_p1$ = 8						; size = 4
_dir$ = 12						; size = 4
_distance$ = 16						; size = 4
_sect$ = 20						; size = 4
_sphere$ = 24						; size = 4
?RayTraceCallback@?$RangeTester@UCollisionAdjustChecker@@@@UAEXABVVector3d@@0M0PAVSpherePack@@@Z PROC ; RangeTester<CollisionAdjustChecker>::RayTraceCallback, COMDAT
; _this$ = ecx

; 27   : 	{

  00000	55		 push	 ebp
  00001	8b ec		 mov	 ebp, esp

; 28   : #ifdef SPHERELIB_STRICT
; 29   : 		if (sphere->IS_SPHERE)
; 30   : 			puts("RangeTester::RayTraceCallback");
; 31   : #endif	
; 32   : 		if (dist<=0.0f || dist>=distance)

  00003	f3 0f 10 49 08	 movss	 xmm1, DWORD PTR [ecx+8]
  00008	0f 57 c0	 xorps	 xmm0, xmm0
  0000b	0f 2f c1	 comiss	 xmm0, xmm1
  0000e	73 06		 jae	 SHORT $LN3@RayTraceCa
  00010	0f 2f 4d 10	 comiss	 xmm1, DWORD PTR _distance$[ebp]
  00014	72 1f		 jb	 SHORT $LN7@RayTraceCa
$LN3@RayTraceCa:

; 33   : 			(*f)((CGraphicObjectInstance *)sphere->GetUserData());

  00016	8b 45 18	 mov	 eax, DWORD PTR _sphere$[ebp]
  00019	8b 40 44	 mov	 eax, DWORD PTR [eax+68]
; File D:\Metin2 Server Files\mainline\SRC_2014\Metin2Client\UserInterface\PythonBackground.cpp

; 573  : 		if (!pOpponent)

  0001c	85 c0		 test	 eax, eax
  0001e	74 15		 je	 SHORT $LN7@RayTraceCa
; File D:\Metin2 Server Files\mainline\SRC_2014\Metin2Client\eterlib\CullingManager.h

; 33   : 			(*f)((CGraphicObjectInstance *)sphere->GetUserData());

  00020	56		 push	 esi
  00021	8b 71 04	 mov	 esi, DWORD PTR [ecx+4]
; File D:\Metin2 Server Files\mainline\SRC_2014\Metin2Client\UserInterface\PythonBackground.cpp

; 576  : 		if (pInstance->AvoidObject(*pOpponent))

  00024	50		 push	 eax
  00025	8b 4e 04	 mov	 ecx, DWORD PTR [esi+4]
  00028	e8 00 00 00 00	 call	 ?AvoidObject@CInstanceBase@@QAE_NABVCGraphicObjectInstance@@@Z ; CInstanceBase::AvoidObject
  0002d	84 c0		 test	 al, al
  0002f	74 03		 je	 SHORT $LN9@RayTraceCa

; 577  : 			isBlocked=true;

  00031	c6 06 01	 mov	 BYTE PTR [esi], 1
$LN9@RayTraceCa:
  00034	5e		 pop	 esi
$LN7@RayTraceCa:
; File D:\Metin2 Server Files\mainline\SRC_2014\Metin2Client\eterlib\CullingManager.h

; 34   : 	};

  00035	5d		 pop	 ebp
  00036	c2 14 00	 ret	 20			; 00000014H
?RayTraceCallback@?$RangeTester@UCollisionAdjustChecker@@@@UAEXABVVector3d@@0M0PAVSpherePack@@@Z ENDP ; RangeTester<CollisionAdjustChecker>::RayTraceCallback
_TEXT	ENDS
; Function compile flags: /Ogtp
; File D:\Metin2 Server Files\mainline\SRC_2014\Metin2Client\eterlib\CullingManager.h
;	COMDAT ??1?$RangeTester@UCollisionAdjustChecker@@@@UAE@XZ
_TEXT	SEGMENT
??1?$RangeTester@UCollisionAdjustChecker@@@@UAE@XZ PROC	; RangeTester<CollisionAdjustChecker>::~RangeTester<CollisionAdjustChecker>, COMDAT
; _this$ = ecx

; 19   : 	{}

  00000	c7 01 00 00 00
	00		 mov	 DWORD PTR [ecx], OFFSET ??_7SpherePackCallback@@6B@
  00006	c3		 ret	 0
??1?$RangeTester@UCollisionAdjustChecker@@@@UAE@XZ ENDP	; RangeTester<CollisionAdjustChecker>::~RangeTester<CollisionAdjustChecker>
_TEXT	ENDS
; Function compile flags: /Ogtp
;	COMDAT ??_G?$RangeTester@UFGetPortalID@@@@UAEPAXI@Z
_TEXT	SEGMENT
___flags$ = 8						; size = 4
??_G?$RangeTester@UFGetPortalID@@@@UAEPAXI@Z PROC	; RangeTester<FGetPortalID>::`scalar deleting destructor', COMDAT
; _this$ = ecx
  00000	55		 push	 ebp
  00001	8b ec		 mov	 ebp, esp
  00003	f6 45 08 01	 test	 BYTE PTR ___flags$[ebp], 1
  00007	56		 push	 esi
  00008	8b f1		 mov	 esi, ecx
  0000a	c7 06 00 00 00
	00		 mov	 DWORD PTR [esi], OFFSET ??_7SpherePackCallback@@6B@
  00010	74 0b		 je	 SHORT $LN4@scalar
  00012	6a 0c		 push	 12			; 0000000cH
  00014	56		 push	 esi
  00015	e8 00 00 00 00	 call	 ??3@YAXPAXI@Z		; operator delete
  0001a	83 c4 08	 add	 esp, 8
$LN4@scalar:
  0001d	8b c6		 mov	 eax, esi
  0001f	5e		 pop	 esi
  00020	5d		 pop	 ebp
  00021	c2 04 00	 ret	 4
??_G?$RangeTester@UFGetPortalID@@@@UAEPAXI@Z ENDP	; RangeTester<FGetPortalID>::`scalar deleting destructor'
_TEXT	ENDS
; Function compile flags: /Ogtp
; File D:\Metin2 Server Files\mainline\SRC_2014\Metin2Client\eterlib\CullingManager.h
;	COMDAT ?PointTest2dCallback@?$RangeTester@UFGetPortalID@@@@UAEXABVVector3d@@PAVSpherePack@@W4ViewState@@@Z
_TEXT	SEGMENT
_p$ = 8							; size = 4
_sphere$ = 12						; size = 4
_state$ = 16						; size = 4
?PointTest2dCallback@?$RangeTester@UFGetPortalID@@@@UAEXABVVector3d@@PAVSpherePack@@W4ViewState@@@Z PROC ; RangeTester<FGetPortalID>::PointTest2dCallback, COMDAT
; _this$ = ecx

; 50   : 	{

  00000	55		 push	 ebp
  00001	8b ec		 mov	 ebp, esp

; 51   : #ifdef SPHERELIB_STRICT
; 52   : 		if (sphere->IS_SPHERE)
; 53   : 			puts("RangeTester::PointTest2dCallback");	
; 54   : #endif
; 55   : 		if (state!=VS_OUTSIDE)

  00003	83 7d 10 02	 cmp	 DWORD PTR _state$[ebp], 2
  00007	74 0e		 je	 SHORT $LN2@PointTest2

; 56   : 		{
; 57   : #ifdef SPHERELIB_STRICT
; 58   : 			puts("FIND!!");
; 59   : #endif
; 60   : 			(*f)((CGraphicObjectInstance *)sphere->GetUserData());

  00009	8b 45 0c	 mov	 eax, DWORD PTR _sphere$[ebp]
  0000c	8b 49 04	 mov	 ecx, DWORD PTR [ecx+4]
  0000f	ff 70 44	 push	 DWORD PTR [eax+68]
  00012	e8 00 00 00 00	 call	 ??RFGetPortalID@@QAEXPAVCGraphicObjectInstance@@@Z ; FGetPortalID::operator()
$LN2@PointTest2:

; 61   : 		}
; 62   : 	}

  00017	5d		 pop	 ebp
  00018	c2 0c 00	 ret	 12			; 0000000cH
?PointTest2dCallback@?$RangeTester@UFGetPortalID@@@@UAEXABVVector3d@@PAVSpherePack@@W4ViewState@@@Z ENDP ; RangeTester<FGetPortalID>::PointTest2dCallback
_TEXT	ENDS
; Function compile flags: /Ogtp
; File D:\Metin2 Server Files\mainline\SRC_2014\Metin2Client\eterlib\CullingManager.h
;	COMDAT ?RangeTestCallback@?$RangeTester@UFGetPortalID@@@@UAEXABVVector3d@@MPAVSpherePack@@W4ViewState@@@Z
_TEXT	SEGMENT
_p$ = 8							; size = 4
_distance$ = 12						; size = 4
_sphere$ = 16						; size = 4
_state$ = 20						; size = 4
?RangeTestCallback@?$RangeTester@UFGetPortalID@@@@UAEXABVVector3d@@MPAVSpherePack@@W4ViewState@@@Z PROC ; RangeTester<FGetPortalID>::RangeTestCallback, COMDAT
; _this$ = ecx

; 40   : 	{

  00000	55		 push	 ebp
  00001	8b ec		 mov	 ebp, esp

; 41   : #ifdef SPHERELIB_STRICT
; 42   : 		if (sphere->IS_SPHERE)
; 43   : 			puts("RangeTester::RangeTestCallback");
; 44   : #endif	
; 45   : 		if (state!=VS_OUTSIDE)

  00003	83 7d 14 02	 cmp	 DWORD PTR _state$[ebp], 2
  00007	74 0e		 je	 SHORT $LN2@RangeTestC

; 46   : 			(*f)((CGraphicObjectInstance *)sphere->GetUserData());

  00009	8b 45 10	 mov	 eax, DWORD PTR _sphere$[ebp]
  0000c	8b 49 04	 mov	 ecx, DWORD PTR [ecx+4]
  0000f	ff 70 44	 push	 DWORD PTR [eax+68]
  00012	e8 00 00 00 00	 call	 ??RFGetPortalID@@QAEXPAVCGraphicObjectInstance@@@Z ; FGetPortalID::operator()
$LN2@RangeTestC:

; 47   : 	}

  00017	5d		 pop	 ebp
  00018	c2 10 00	 ret	 16			; 00000010H
?RangeTestCallback@?$RangeTester@UFGetPortalID@@@@UAEXABVVector3d@@MPAVSpherePack@@W4ViewState@@@Z ENDP ; RangeTester<FGetPortalID>::RangeTestCallback
_TEXT	ENDS
; Function compile flags: /Ogtp
; File D:\Metin2 Server Files\mainline\SRC_2014\Metin2Client\eterlib\CullingManager.h
;	COMDAT ?VisibilityCallback@?$RangeTester@UFGetPortalID@@@@UAEXABVFrustum@@PAVSpherePack@@W4ViewState@@@Z
_TEXT	SEGMENT
_f$ = 8							; size = 4
_sphere$ = 12						; size = 4
_state$ = 16						; size = 4
?VisibilityCallback@?$RangeTester@UFGetPortalID@@@@UAEXABVFrustum@@PAVSpherePack@@W4ViewState@@@Z PROC ; RangeTester<FGetPortalID>::VisibilityCallback, COMDAT
; _this$ = ecx

; 37   : 	virtual void VisibilityCallback(const Frustum &f,SpherePack *sphere,ViewState state){};

  00000	c2 0c 00	 ret	 12			; 0000000cH
?VisibilityCallback@?$RangeTester@UFGetPortalID@@@@UAEXABVFrustum@@PAVSpherePack@@W4ViewState@@@Z ENDP ; RangeTester<FGetPortalID>::VisibilityCallback
_TEXT	ENDS
; Function compile flags: /Ogtp
; File D:\Metin2 Server Files\mainline\SRC_2014\Metin2Client\eterlib\CullingManager.h
;	COMDAT ?RayTraceCallback@?$RangeTester@UFGetPortalID@@@@UAEXABVVector3d@@0M0PAVSpherePack@@@Z
_TEXT	SEGMENT
_p1$ = 8						; size = 4
_dir$ = 12						; size = 4
_distance$ = 16						; size = 4
_sect$ = 20						; size = 4
_sphere$ = 24						; size = 4
?RayTraceCallback@?$RangeTester@UFGetPortalID@@@@UAEXABVVector3d@@0M0PAVSpherePack@@@Z PROC ; RangeTester<FGetPortalID>::RayTraceCallback, COMDAT
; _this$ = ecx

; 27   : 	{

  00000	55		 push	 ebp
  00001	8b ec		 mov	 ebp, esp

; 28   : #ifdef SPHERELIB_STRICT
; 29   : 		if (sphere->IS_SPHERE)
; 30   : 			puts("RangeTester::RayTraceCallback");
; 31   : #endif	
; 32   : 		if (dist<=0.0f || dist>=distance)

  00003	f3 0f 10 49 08	 movss	 xmm1, DWORD PTR [ecx+8]
  00008	0f 57 c0	 xorps	 xmm0, xmm0
  0000b	0f 2f c1	 comiss	 xmm0, xmm1
  0000e	73 06		 jae	 SHORT $LN3@RayTraceCa
  00010	0f 2f 4d 10	 comiss	 xmm1, DWORD PTR _distance$[ebp]
  00014	72 0e		 jb	 SHORT $LN2@RayTraceCa
$LN3@RayTraceCa:

; 33   : 			(*f)((CGraphicObjectInstance *)sphere->GetUserData());

  00016	8b 45 18	 mov	 eax, DWORD PTR _sphere$[ebp]
  00019	8b 49 04	 mov	 ecx, DWORD PTR [ecx+4]
  0001c	ff 70 44	 push	 DWORD PTR [eax+68]
  0001f	e8 00 00 00 00	 call	 ??RFGetPortalID@@QAEXPAVCGraphicObjectInstance@@@Z ; FGetPortalID::operator()
$LN2@RayTraceCa:

; 34   : 	};

  00024	5d		 pop	 ebp
  00025	c2 14 00	 ret	 20			; 00000014H
?RayTraceCallback@?$RangeTester@UFGetPortalID@@@@UAEXABVVector3d@@0M0PAVSpherePack@@@Z ENDP ; RangeTester<FGetPortalID>::RayTraceCallback
_TEXT	ENDS
; Function compile flags: /Ogtp
; File D:\Metin2 Server Files\mainline\SRC_2014\Metin2Client\eterlib\CullingManager.h
;	COMDAT ??1?$RangeTester@UFGetPortalID@@@@UAE@XZ
_TEXT	SEGMENT
??1?$RangeTester@UFGetPortalID@@@@UAE@XZ PROC		; RangeTester<FGetPortalID>::~RangeTester<FGetPortalID>, COMDAT
; _this$ = ecx

; 19   : 	{}

  00000	c7 01 00 00 00
	00		 mov	 DWORD PTR [ecx], OFFSET ??_7SpherePackCallback@@6B@
  00006	c3		 ret	 0
??1?$RangeTester@UFGetPortalID@@@@UAE@XZ ENDP		; RangeTester<FGetPortalID>::~RangeTester<FGetPortalID>
_TEXT	ENDS
; Function compile flags: /Ogtp
;	COMDAT ??__F?ms_kPool@?$CPooledObject@VCRotationDecorator@NEffectUpdateDecorator@@@@1V?$CDynamicPoolEx@VCRotationDecorator@NEffectUpdateDecorator@@@@A@@YAXXZ
text$yd	SEGMENT
??__F?ms_kPool@?$CPooledObject@VCRotationDecorator@NEffectUpdateDecorator@@@@1V?$CDynamicPoolEx@VCRotationDecorator@NEffectUpdateDecorator@@@@A@@YAXXZ PROC ; `dynamic atexit destructor for 'CPooledObject<NEffectUpdateDecorator::CRotationDecorator>::ms_kPool'', COMDAT
  00000	b9 00 00 00 00	 mov	 ecx, OFFSET ?ms_kPool@?$CPooledObject@VCRotationDecorator@NEffectUpdateDecorator@@@@1V?$CDynamicPoolEx@VCRotationDecorator@NEffectUpdateDecorator@@@@A ; CPooledObject<NEffectUpdateDecorator::CRotationDecorator>::ms_kPool
  00005	e9 00 00 00 00	 jmp	 ??1?$CDynamicPoolEx@VCRotationDecorator@NEffectUpdateDecorator@@@@UAE@XZ ; CDynamicPoolEx<NEffectUpdateDecorator::CRotationDecorator>::~CDynamicPoolEx<NEffectUpdateDecorator::CRotationDecorator>
??__F?ms_kPool@?$CPooledObject@VCRotationDecorator@NEffectUpdateDecorator@@@@1V?$CDynamicPoolEx@VCRotationDecorator@NEffectUpdateDecorator@@@@A@@YAXXZ ENDP ; `dynamic atexit destructor for 'CPooledObject<NEffectUpdateDecorator::CRotationDecorator>::ms_kPool''
text$yd	ENDS
; Function compile flags: /Ogtp
; File D:\Metin2 Server Files\mainline\SRC_2014\Metin2Client\eterLib\Pool.h
;	COMDAT ??__E?ms_kPool@?$CPooledObject@VCRotationDecorator@NEffectUpdateDecorator@@@@1V?$CDynamicPoolEx@VCRotationDecorator@NEffectUpdateDecorator@@@@A@@YAXXZ
text$di	SEGMENT
??__E?ms_kPool@?$CPooledObject@VCRotationDecorator@NEffectUpdateDecorator@@@@1V?$CDynamicPoolEx@VCRotationDecorator@NEffectUpdateDecorator@@@@A@@YAXXZ PROC ; `dynamic initializer for 'CPooledObject<NEffectUpdateDecorator::CRotationDecorator>::ms_kPool'', COMDAT

; 272  : template <class T> CDynamicPoolEx<T> CPooledObject<T>::ms_kPool;

  00000	68 00 00 00 00	 push	 OFFSET ??__F?ms_kPool@?$CPooledObject@VCRotationDecorator@NEffectUpdateDecorator@@@@1V?$CDynamicPoolEx@VCRotationDecorator@NEffectUpdateDecorator@@@@A@@YAXXZ ; `dynamic atexit destructor for 'CPooledObject<NEffectUpdateDecorator::CRotationDecorator>::ms_kPool''
  00005	e8 00 00 00 00	 call	 _atexit
  0000a	59		 pop	 ecx
  0000b	c3		 ret	 0
??__E?ms_kPool@?$CPooledObject@VCRotationDecorator@NEffectUpdateDecorator@@@@1V?$CDynamicPoolEx@VCRotationDecorator@NEffectUpdateDecorator@@@@A@@YAXXZ ENDP ; `dynamic initializer for 'CPooledObject<NEffectUpdateDecorator::CRotationDecorator>::ms_kPool''
text$di	ENDS
; Function compile flags: /Ogtp
;	COMDAT ??__F?ms_kPool@?$CPooledObject@VCGravityDecorator@NEffectUpdateDecorator@@@@1V?$CDynamicPoolEx@VCGravityDecorator@NEffectUpdateDecorator@@@@A@@YAXXZ
text$yd	SEGMENT
??__F?ms_kPool@?$CPooledObject@VCGravityDecorator@NEffectUpdateDecorator@@@@1V?$CDynamicPoolEx@VCGravityDecorator@NEffectUpdateDecorator@@@@A@@YAXXZ PROC ; `dynamic atexit destructor for 'CPooledObject<NEffectUpdateDecorator::CGravityDecorator>::ms_kPool'', COMDAT
  00000	b9 00 00 00 00	 mov	 ecx, OFFSET ?ms_kPool@?$CPooledObject@VCGravityDecorator@NEffectUpdateDecorator@@@@1V?$CDynamicPoolEx@VCGravityDecorator@NEffectUpdateDecorator@@@@A ; CPooledObject<NEffectUpdateDecorator::CGravityDecorator>::ms_kPool
  00005	e9 00 00 00 00	 jmp	 ??1?$CDynamicPoolEx@VCGravityDecorator@NEffectUpdateDecorator@@@@UAE@XZ ; CDynamicPoolEx<NEffectUpdateDecorator::CGravityDecorator>::~CDynamicPoolEx<NEffectUpdateDecorator::CGravityDecorator>
??__F?ms_kPool@?$CPooledObject@VCGravityDecorator@NEffectUpdateDecorator@@@@1V?$CDynamicPoolEx@VCGravityDecorator@NEffectUpdateDecorator@@@@A@@YAXXZ ENDP ; `dynamic atexit destructor for 'CPooledObject<NEffectUpdateDecorator::CGravityDecorator>::ms_kPool''
text$yd	ENDS
; Function compile flags: /Ogtp
; File D:\Metin2 Server Files\mainline\SRC_2014\Metin2Client\eterLib\Pool.h
;	COMDAT ??__E?ms_kPool@?$CPooledObject@VCGravityDecorator@NEffectUpdateDecorator@@@@1V?$CDynamicPoolEx@VCGravityDecorator@NEffectUpdateDecorator@@@@A@@YAXXZ
text$di	SEGMENT
??__E?ms_kPool@?$CPooledObject@VCGravityDecorator@NEffectUpdateDecorator@@@@1V?$CDynamicPoolEx@VCGravityDecorator@NEffectUpdateDecorator@@@@A@@YAXXZ PROC ; `dynamic initializer for 'CPooledObject<NEffectUpdateDecorator::CGravityDecorator>::ms_kPool'', COMDAT

; 272  : template <class T> CDynamicPoolEx<T> CPooledObject<T>::ms_kPool;

  00000	68 00 00 00 00	 push	 OFFSET ??__F?ms_kPool@?$CPooledObject@VCGravityDecorator@NEffectUpdateDecorator@@@@1V?$CDynamicPoolEx@VCGravityDecorator@NEffectUpdateDecorator@@@@A@@YAXXZ ; `dynamic atexit destructor for 'CPooledObject<NEffectUpdateDecorator::CGravityDecorator>::ms_kPool''
  00005	e8 00 00 00 00	 call	 _atexit
  0000a	59		 pop	 ecx
  0000b	c3		 ret	 0
??__E?ms_kPool@?$CPooledObject@VCGravityDecorator@NEffectUpdateDecorator@@@@1V?$CDynamicPoolEx@VCGravityDecorator@NEffectUpdateDecorator@@@@A@@YAXXZ ENDP ; `dynamic initializer for 'CPooledObject<NEffectUpdateDecorator::CGravityDecorator>::ms_kPool''
text$di	ENDS
; Function compile flags: /Ogtp
;	COMDAT ??__F?ms_kPool@?$CPooledObject@VCAirResistanceDecorator@NEffectUpdateDecorator@@@@1V?$CDynamicPoolEx@VCAirResistanceDecorator@NEffectUpdateDecorator@@@@A@@YAXXZ
text$yd	SEGMENT
??__F?ms_kPool@?$CPooledObject@VCAirResistanceDecorator@NEffectUpdateDecorator@@@@1V?$CDynamicPoolEx@VCAirResistanceDecorator@NEffectUpdateDecorator@@@@A@@YAXXZ PROC ; `dynamic atexit destructor for 'CPooledObject<NEffectUpdateDecorator::CAirResistanceDecorator>::ms_kPool'', COMDAT
  00000	b9 00 00 00 00	 mov	 ecx, OFFSET ?ms_kPool@?$CPooledObject@VCAirResistanceDecorator@NEffectUpdateDecorator@@@@1V?$CDynamicPoolEx@VCAirResistanceDecorator@NEffectUpdateDecorator@@@@A ; CPooledObject<NEffectUpdateDecorator::CAirResistanceDecorator>::ms_kPool
  00005	e9 00 00 00 00	 jmp	 ??1?$CDynamicPoolEx@VCAirResistanceDecorator@NEffectUpdateDecorator@@@@UAE@XZ ; CDynamicPoolEx<NEffectUpdateDecorator::CAirResistanceDecorator>::~CDynamicPoolEx<NEffectUpdateDecorator::CAirResistanceDecorator>
??__F?ms_kPool@?$CPooledObject@VCAirResistanceDecorator@NEffectUpdateDecorator@@@@1V?$CDynamicPoolEx@VCAirResistanceDecorator@NEffectUpdateDecorator@@@@A@@YAXXZ ENDP ; `dynamic atexit destructor for 'CPooledObject<NEffectUpdateDecorator::CAirResistanceDecorator>::ms_kPool''
text$yd	ENDS
; Function compile flags: /Ogtp
; File D:\Metin2 Server Files\mainline\SRC_2014\Metin2Client\eterLib\Pool.h
;	COMDAT ??__E?ms_kPool@?$CPooledObject@VCAirResistanceDecorator@NEffectUpdateDecorator@@@@1V?$CDynamicPoolEx@VCAirResistanceDecorator@NEffectUpdateDecorator@@@@A@@YAXXZ
text$di	SEGMENT
??__E?ms_kPool@?$CPooledObject@VCAirResistanceDecorator@NEffectUpdateDecorator@@@@1V?$CDynamicPoolEx@VCAirResistanceDecorator@NEffectUpdateDecorator@@@@A@@YAXXZ PROC ; `dynamic initializer for 'CPooledObject<NEffectUpdateDecorator::CAirResistanceDecorator>::ms_kPool'', COMDAT

; 272  : template <class T> CDynamicPoolEx<T> CPooledObject<T>::ms_kPool;

  00000	68 00 00 00 00	 push	 OFFSET ??__F?ms_kPool@?$CPooledObject@VCAirResistanceDecorator@NEffectUpdateDecorator@@@@1V?$CDynamicPoolEx@VCAirResistanceDecorator@NEffectUpdateDecorator@@@@A@@YAXXZ ; `dynamic atexit destructor for 'CPooledObject<NEffectUpdateDecorator::CAirResistanceDecorator>::ms_kPool''
  00005	e8 00 00 00 00	 call	 _atexit
  0000a	59		 pop	 ecx
  0000b	c3		 ret	 0
??__E?ms_kPool@?$CPooledObject@VCAirResistanceDecorator@NEffectUpdateDecorator@@@@1V?$CDynamicPoolEx@VCAirResistanceDecorator@NEffectUpdateDecorator@@@@A@@YAXXZ ENDP ; `dynamic initializer for 'CPooledObject<NEffectUpdateDecorator::CAirResistanceDecorator>::ms_kPool''
text$di	ENDS
; Function compile flags: /Ogtp
;	COMDAT ??__F?ms_kPool@?$CPooledObject@VCTextureAnimationRandomDecorator@NEffectUpdateDecorator@@@@1V?$CDynamicPoolEx@VCTextureAnimationRandomDecorator@NEffectUpdateDecorator@@@@A@@YAXXZ
text$yd	SEGMENT
??__F?ms_kPool@?$CPooledObject@VCTextureAnimationRandomDecorator@NEffectUpdateDecorator@@@@1V?$CDynamicPoolEx@VCTextureAnimationRandomDecorator@NEffectUpdateDecorator@@@@A@@YAXXZ PROC ; `dynamic atexit destructor for 'CPooledObject<NEffectUpdateDecorator::CTextureAnimationRandomDecorator>::ms_kPool'', COMDAT
  00000	b9 00 00 00 00	 mov	 ecx, OFFSET ?ms_kPool@?$CPooledObject@VCTextureAnimationRandomDecorator@NEffectUpdateDecorator@@@@1V?$CDynamicPoolEx@VCTextureAnimationRandomDecorator@NEffectUpdateDecorator@@@@A ; CPooledObject<NEffectUpdateDecorator::CTextureAnimationRandomDecorator>::ms_kPool
  00005	e9 00 00 00 00	 jmp	 ??1?$CDynamicPoolEx@VCTextureAnimationRandomDecorator@NEffectUpdateDecorator@@@@UAE@XZ ; CDynamicPoolEx<NEffectUpdateDecorator::CTextureAnimationRandomDecorator>::~CDynamicPoolEx<NEffectUpdateDecorator::CTextureAnimationRandomDecorator>
??__F?ms_kPool@?$CPooledObject@VCTextureAnimationRandomDecorator@NEffectUpdateDecorator@@@@1V?$CDynamicPoolEx@VCTextureAnimationRandomDecorator@NEffectUpdateDecorator@@@@A@@YAXXZ ENDP ; `dynamic atexit destructor for 'CPooledObject<NEffectUpdateDecorator::CTextureAnimationRandomDecorator>::ms_kPool''
text$yd	ENDS
; Function compile flags: /Ogtp
; File D:\Metin2 Server Files\mainline\SRC_2014\Metin2Client\eterLib\Pool.h
;	COMDAT ??__E?ms_kPool@?$CPooledObject@VCTextureAnimationRandomDecorator@NEffectUpdateDecorator@@@@1V?$CDynamicPoolEx@VCTextureAnimationRandomDecorator@NEffectUpdateDecorator@@@@A@@YAXXZ
text$di	SEGMENT
??__E?ms_kPool@?$CPooledObject@VCTextureAnimationRandomDecorator@NEffectUpdateDecorator@@@@1V?$CDynamicPoolEx@VCTextureAnimationRandomDecorator@NEffectUpdateDecorator@@@@A@@YAXXZ PROC ; `dynamic initializer for 'CPooledObject<NEffectUpdateDecorator::CTextureAnimationRandomDecorator>::ms_kPool'', COMDAT

; 272  : template <class T> CDynamicPoolEx<T> CPooledObject<T>::ms_kPool;

  00000	68 00 00 00 00	 push	 OFFSET ??__F?ms_kPool@?$CPooledObject@VCTextureAnimationRandomDecorator@NEffectUpdateDecorator@@@@1V?$CDynamicPoolEx@VCTextureAnimationRandomDecorator@NEffectUpdateDecorator@@@@A@@YAXXZ ; `dynamic atexit destructor for 'CPooledObject<NEffectUpdateDecorator::CTextureAnimationRandomDecorator>::ms_kPool''
  00005	e8 00 00 00 00	 call	 _atexit
  0000a	59		 pop	 ecx
  0000b	c3		 ret	 0
??__E?ms_kPool@?$CPooledObject@VCTextureAnimationRandomDecorator@NEffectUpdateDecorator@@@@1V?$CDynamicPoolEx@VCTextureAnimationRandomDecorator@NEffectUpdateDecorator@@@@A@@YAXXZ ENDP ; `dynamic initializer for 'CPooledObject<NEffectUpdateDecorator::CTextureAnimationRandomDecorator>::ms_kPool''
text$di	ENDS
; Function compile flags: /Ogtp
;	COMDAT ??__F?ms_kPool@?$CPooledObject@VCTextureAnimationCCWDecorator@NEffectUpdateDecorator@@@@1V?$CDynamicPoolEx@VCTextureAnimationCCWDecorator@NEffectUpdateDecorator@@@@A@@YAXXZ
text$yd	SEGMENT
??__F?ms_kPool@?$CPooledObject@VCTextureAnimationCCWDecorator@NEffectUpdateDecorator@@@@1V?$CDynamicPoolEx@VCTextureAnimationCCWDecorator@NEffectUpdateDecorator@@@@A@@YAXXZ PROC ; `dynamic atexit destructor for 'CPooledObject<NEffectUpdateDecorator::CTextureAnimationCCWDecorator>::ms_kPool'', COMDAT
  00000	b9 00 00 00 00	 mov	 ecx, OFFSET ?ms_kPool@?$CPooledObject@VCTextureAnimationCCWDecorator@NEffectUpdateDecorator@@@@1V?$CDynamicPoolEx@VCTextureAnimationCCWDecorator@NEffectUpdateDecorator@@@@A ; CPooledObject<NEffectUpdateDecorator::CTextureAnimationCCWDecorator>::ms_kPool
  00005	e9 00 00 00 00	 jmp	 ??1?$CDynamicPoolEx@VCTextureAnimationCCWDecorator@NEffectUpdateDecorator@@@@UAE@XZ ; CDynamicPoolEx<NEffectUpdateDecorator::CTextureAnimationCCWDecorator>::~CDynamicPoolEx<NEffectUpdateDecorator::CTextureAnimationCCWDecorator>
??__F?ms_kPool@?$CPooledObject@VCTextureAnimationCCWDecorator@NEffectUpdateDecorator@@@@1V?$CDynamicPoolEx@VCTextureAnimationCCWDecorator@NEffectUpdateDecorator@@@@A@@YAXXZ ENDP ; `dynamic atexit destructor for 'CPooledObject<NEffectUpdateDecorator::CTextureAnimationCCWDecorator>::ms_kPool''
text$yd	ENDS
; Function compile flags: /Ogtp
; File D:\Metin2 Server Files\mainline\SRC_2014\Metin2Client\eterLib\Pool.h
;	COMDAT ??__E?ms_kPool@?$CPooledObject@VCTextureAnimationCCWDecorator@NEffectUpdateDecorator@@@@1V?$CDynamicPoolEx@VCTextureAnimationCCWDecorator@NEffectUpdateDecorator@@@@A@@YAXXZ
text$di	SEGMENT
??__E?ms_kPool@?$CPooledObject@VCTextureAnimationCCWDecorator@NEffectUpdateDecorator@@@@1V?$CDynamicPoolEx@VCTextureAnimationCCWDecorator@NEffectUpdateDecorator@@@@A@@YAXXZ PROC ; `dynamic initializer for 'CPooledObject<NEffectUpdateDecorator::CTextureAnimationCCWDecorator>::ms_kPool'', COMDAT

; 272  : template <class T> CDynamicPoolEx<T> CPooledObject<T>::ms_kPool;

  00000	68 00 00 00 00	 push	 OFFSET ??__F?ms_kPool@?$CPooledObject@VCTextureAnimationCCWDecorator@NEffectUpdateDecorator@@@@1V?$CDynamicPoolEx@VCTextureAnimationCCWDecorator@NEffectUpdateDecorator@@@@A@@YAXXZ ; `dynamic atexit destructor for 'CPooledObject<NEffectUpdateDecorator::CTextureAnimationCCWDecorator>::ms_kPool''
  00005	e8 00 00 00 00	 call	 _atexit
  0000a	59		 pop	 ecx
  0000b	c3		 ret	 0
??__E?ms_kPool@?$CPooledObject@VCTextureAnimationCCWDecorator@NEffectUpdateDecorator@@@@1V?$CDynamicPoolEx@VCTextureAnimationCCWDecorator@NEffectUpdateDecorator@@@@A@@YAXXZ ENDP ; `dynamic initializer for 'CPooledObject<NEffectUpdateDecorator::CTextureAnimationCCWDecorator>::ms_kPool''
text$di	ENDS
; Function compile flags: /Ogtp
;	COMDAT ??__F?ms_kPool@?$CPooledObject@VCTextureAnimationCWDecorator@NEffectUpdateDecorator@@@@1V?$CDynamicPoolEx@VCTextureAnimationCWDecorator@NEffectUpdateDecorator@@@@A@@YAXXZ
text$yd	SEGMENT
??__F?ms_kPool@?$CPooledObject@VCTextureAnimationCWDecorator@NEffectUpdateDecorator@@@@1V?$CDynamicPoolEx@VCTextureAnimationCWDecorator@NEffectUpdateDecorator@@@@A@@YAXXZ PROC ; `dynamic atexit destructor for 'CPooledObject<NEffectUpdateDecorator::CTextureAnimationCWDecorator>::ms_kPool'', COMDAT
  00000	b9 00 00 00 00	 mov	 ecx, OFFSET ?ms_kPool@?$CPooledObject@VCTextureAnimationCWDecorator@NEffectUpdateDecorator@@@@1V?$CDynamicPoolEx@VCTextureAnimationCWDecorator@NEffectUpdateDecorator@@@@A ; CPooledObject<NEffectUpdateDecorator::CTextureAnimationCWDecorator>::ms_kPool
  00005	e9 00 00 00 00	 jmp	 ??1?$CDynamicPoolEx@VCTextureAnimationCWDecorator@NEffectUpdateDecorator@@@@UAE@XZ ; CDynamicPoolEx<NEffectUpdateDecorator::CTextureAnimationCWDecorator>::~CDynamicPoolEx<NEffectUpdateDecorator::CTextureAnimationCWDecorator>
??__F?ms_kPool@?$CPooledObject@VCTextureAnimationCWDecorator@NEffectUpdateDecorator@@@@1V?$CDynamicPoolEx@VCTextureAnimationCWDecorator@NEffectUpdateDecorator@@@@A@@YAXXZ ENDP ; `dynamic atexit destructor for 'CPooledObject<NEffectUpdateDecorator::CTextureAnimationCWDecorator>::ms_kPool''
text$yd	ENDS
; Function compile flags: /Ogtp
; File D:\Metin2 Server Files\mainline\SRC_2014\Metin2Client\eterLib\Pool.h
;	COMDAT ??__E?ms_kPool@?$CPooledObject@VCTextureAnimationCWDecorator@NEffectUpdateDecorator@@@@1V?$CDynamicPoolEx@VCTextureAnimationCWDecorator@NEffectUpdateDecorator@@@@A@@YAXXZ
text$di	SEGMENT
??__E?ms_kPool@?$CPooledObject@VCTextureAnimationCWDecorator@NEffectUpdateDecorator@@@@1V?$CDynamicPoolEx@VCTextureAnimationCWDecorator@NEffectUpdateDecorator@@@@A@@YAXXZ PROC ; `dynamic initializer for 'CPooledObject<NEffectUpdateDecorator::CTextureAnimationCWDecorator>::ms_kPool'', COMDAT

; 272  : template <class T> CDynamicPoolEx<T> CPooledObject<T>::ms_kPool;

  00000	68 00 00 00 00	 push	 OFFSET ??__F?ms_kPool@?$CPooledObject@VCTextureAnimationCWDecorator@NEffectUpdateDecorator@@@@1V?$CDynamicPoolEx@VCTextureAnimationCWDecorator@NEffectUpdateDecorator@@@@A@@YAXXZ ; `dynamic atexit destructor for 'CPooledObject<NEffectUpdateDecorator::CTextureAnimationCWDecorator>::ms_kPool''
  00005	e8 00 00 00 00	 call	 _atexit
  0000a	59		 pop	 ecx
  0000b	c3		 ret	 0
??__E?ms_kPool@?$CPooledObject@VCTextureAnimationCWDecorator@NEffectUpdateDecorator@@@@1V?$CDynamicPoolEx@VCTextureAnimationCWDecorator@NEffectUpdateDecorator@@@@A@@YAXXZ ENDP ; `dynamic initializer for 'CPooledObject<NEffectUpdateDecorator::CTextureAnimationCWDecorator>::ms_kPool''
text$di	ENDS
; Function compile flags: /Ogtp
;	COMDAT ??__F?ms_kPool@?$CPooledObject@VCNullDecorator@NEffectUpdateDecorator@@@@1V?$CDynamicPoolEx@VCNullDecorator@NEffectUpdateDecorator@@@@A@@YAXXZ
text$yd	SEGMENT
??__F?ms_kPool@?$CPooledObject@VCNullDecorator@NEffectUpdateDecorator@@@@1V?$CDynamicPoolEx@VCNullDecorator@NEffectUpdateDecorator@@@@A@@YAXXZ PROC ; `dynamic atexit destructor for 'CPooledObject<NEffectUpdateDecorator::CNullDecorator>::ms_kPool'', COMDAT
  00000	b9 00 00 00 00	 mov	 ecx, OFFSET ?ms_kPool@?$CPooledObject@VCNullDecorator@NEffectUpdateDecorator@@@@1V?$CDynamicPoolEx@VCNullDecorator@NEffectUpdateDecorator@@@@A ; CPooledObject<NEffectUpdateDecorator::CNullDecorator>::ms_kPool
  00005	e9 00 00 00 00	 jmp	 ??1?$CDynamicPoolEx@VCNullDecorator@NEffectUpdateDecorator@@@@UAE@XZ ; CDynamicPoolEx<NEffectUpdateDecorator::CNullDecorator>::~CDynamicPoolEx<NEffectUpdateDecorator::CNullDecorator>
??__F?ms_kPool@?$CPooledObject@VCNullDecorator@NEffectUpdateDecorator@@@@1V?$CDynamicPoolEx@VCNullDecorator@NEffectUpdateDecorator@@@@A@@YAXXZ ENDP ; `dynamic atexit destructor for 'CPooledObject<NEffectUpdateDecorator::CNullDecorator>::ms_kPool''
text$yd	ENDS
; Function compile flags: /Ogtp
; File D:\Metin2 Server Files\mainline\SRC_2014\Metin2Client\eterLib\Pool.h
;	COMDAT ??__E?ms_kPool@?$CPooledObject@VCNullDecorator@NEffectUpdateDecorator@@@@1V?$CDynamicPoolEx@VCNullDecorator@NEffectUpdateDecorator@@@@A@@YAXXZ
text$di	SEGMENT
??__E?ms_kPool@?$CPooledObject@VCNullDecorator@NEffectUpdateDecorator@@@@1V?$CDynamicPoolEx@VCNullDecorator@NEffectUpdateDecorator@@@@A@@YAXXZ PROC ; `dynamic initializer for 'CPooledObject<NEffectUpdateDecorator::CNullDecorator>::ms_kPool'', COMDAT

; 272  : template <class T> CDynamicPoolEx<T> CPooledObject<T>::ms_kPool;

  00000	68 00 00 00 00	 push	 OFFSET ??__F?ms_kPool@?$CPooledObject@VCNullDecorator@NEffectUpdateDecorator@@@@1V?$CDynamicPoolEx@VCNullDecorator@NEffectUpdateDecorator@@@@A@@YAXXZ ; `dynamic atexit destructor for 'CPooledObject<NEffectUpdateDecorator::CNullDecorator>::ms_kPool''
  00005	e8 00 00 00 00	 call	 _atexit
  0000a	59		 pop	 ecx
  0000b	c3		 ret	 0
??__E?ms_kPool@?$CPooledObject@VCNullDecorator@NEffectUpdateDecorator@@@@1V?$CDynamicPoolEx@VCNullDecorator@NEffectUpdateDecorator@@@@A@@YAXXZ ENDP ; `dynamic initializer for 'CPooledObject<NEffectUpdateDecorator::CNullDecorator>::ms_kPool''
text$di	ENDS
; Function compile flags: /Ogtp
;	COMDAT ??__F?ms_kPool@?$CPooledObject@VCHeaderDecorator@NEffectUpdateDecorator@@@@1V?$CDynamicPoolEx@VCHeaderDecorator@NEffectUpdateDecorator@@@@A@@YAXXZ
text$yd	SEGMENT
??__F?ms_kPool@?$CPooledObject@VCHeaderDecorator@NEffectUpdateDecorator@@@@1V?$CDynamicPoolEx@VCHeaderDecorator@NEffectUpdateDecorator@@@@A@@YAXXZ PROC ; `dynamic atexit destructor for 'CPooledObject<NEffectUpdateDecorator::CHeaderDecorator>::ms_kPool'', COMDAT
  00000	b9 00 00 00 00	 mov	 ecx, OFFSET ?ms_kPool@?$CPooledObject@VCHeaderDecorator@NEffectUpdateDecorator@@@@1V?$CDynamicPoolEx@VCHeaderDecorator@NEffectUpdateDecorator@@@@A ; CPooledObject<NEffectUpdateDecorator::CHeaderDecorator>::ms_kPool
  00005	e9 00 00 00 00	 jmp	 ??1?$CDynamicPoolEx@VCHeaderDecorator@NEffectUpdateDecorator@@@@UAE@XZ ; CDynamicPoolEx<NEffectUpdateDecorator::CHeaderDecorator>::~CDynamicPoolEx<NEffectUpdateDecorator::CHeaderDecorator>
??__F?ms_kPool@?$CPooledObject@VCHeaderDecorator@NEffectUpdateDecorator@@@@1V?$CDynamicPoolEx@VCHeaderDecorator@NEffectUpdateDecorator@@@@A@@YAXXZ ENDP ; `dynamic atexit destructor for 'CPooledObject<NEffectUpdateDecorator::CHeaderDecorator>::ms_kPool''
text$yd	ENDS
; Function compile flags: /Ogtp
; File D:\Metin2 Server Files\mainline\SRC_2014\Metin2Client\eterLib\Pool.h
;	COMDAT ??__E?ms_kPool@?$CPooledObject@VCHeaderDecorator@NEffectUpdateDecorator@@@@1V?$CDynamicPoolEx@VCHeaderDecorator@NEffectUpdateDecorator@@@@A@@YAXXZ
text$di	SEGMENT
??__E?ms_kPool@?$CPooledObject@VCHeaderDecorator@NEffectUpdateDecorator@@@@1V?$CDynamicPoolEx@VCHeaderDecorator@NEffectUpdateDecorator@@@@A@@YAXXZ PROC ; `dynamic initializer for 'CPooledObject<NEffectUpdateDecorator::CHeaderDecorator>::ms_kPool'', COMDAT

; 272  : template <class T> CDynamicPoolEx<T> CPooledObject<T>::ms_kPool;

  00000	68 00 00 00 00	 push	 OFFSET ??__F?ms_kPool@?$CPooledObject@VCHeaderDecorator@NEffectUpdateDecorator@@@@1V?$CDynamicPoolEx@VCHeaderDecorator@NEffectUpdateDecorator@@@@A@@YAXXZ ; `dynamic atexit destructor for 'CPooledObject<NEffectUpdateDecorator::CHeaderDecorator>::ms_kPool''
  00005	e8 00 00 00 00	 call	 _atexit
  0000a	59		 pop	 ecx
  0000b	c3		 ret	 0
??__E?ms_kPool@?$CPooledObject@VCHeaderDecorator@NEffectUpdateDecorator@@@@1V?$CDynamicPoolEx@VCHeaderDecorator@NEffectUpdateDecorator@@@@A@@YAXXZ ENDP ; `dynamic initializer for 'CPooledObject<NEffectUpdateDecorator::CHeaderDecorator>::ms_kPool''
text$di	ENDS
; Function compile flags: /Ogtp
; File C:\Program Files (x86)\Microsoft Visual Studio\2019\Community\VC\Tools\MSVC\14.28.29333\include\xmemory
;	COMDAT ??$_Destroy_range@V?$allocator@PAVCRotationDecorator@NEffectUpdateDecorator@@@std@@@std@@YAXPAPAVCRotationDecorator@NEffectUpdateDecorator@@QAPAV12@AAV?$allocator@PAVCRotationDecorator@NEffectUpdateDecorator@@@0@@Z
_TEXT	SEGMENT
__First$ = 8						; size = 4
__Last$ = 12						; size = 4
__Al$ = 16						; size = 4
??$_Destroy_range@V?$allocator@PAVCRotationDecorator@NEffectUpdateDecorator@@@std@@@std@@YAXPAPAVCRotationDecorator@NEffectUpdateDecorator@@QAPAV12@AAV?$allocator@PAVCRotationDecorator@NEffectUpdateDecorator@@@0@@Z PROC ; std::_Destroy_range<std::allocator<NEffectUpdateDecorator::CRotationDecorator *> >, COMDAT

; 963  :     // note that this is an optimization for debug mode codegen; in release mode the BE removes all of this
; 964  :     using _Ty = typename _Alloc::value_type;
; 965  :     if _CONSTEXPR_IF (!conjunction_v<is_trivially_destructible<_Ty>, _Uses_default_destroy<_Alloc, _Ty*>>) {
; 966  :         for (; _First != _Last; ++_First) {
; 967  :             allocator_traits<_Alloc>::destroy(_Al, _Unfancy(_First));
; 968  :         }
; 969  :     }
; 970  : }

  00000	c2 00 00	 ret	 0
??$_Destroy_range@V?$allocator@PAVCRotationDecorator@NEffectUpdateDecorator@@@std@@@std@@YAXPAPAVCRotationDecorator@NEffectUpdateDecorator@@QAPAV12@AAV?$allocator@PAVCRotationDecorator@NEffectUpdateDecorator@@@0@@Z ENDP ; std::_Destroy_range<std::allocator<NEffectUpdateDecorator::CRotationDecorator *> >
_TEXT	ENDS
; Function compile flags: /Ogtp
; File C:\Program Files (x86)\Microsoft Visual Studio\2019\Community\VC\Tools\MSVC\14.28.29333\include\xmemory
;	COMDAT ??$_Destroy_range@V?$allocator@PAVCGravityDecorator@NEffectUpdateDecorator@@@std@@@std@@YAXPAPAVCGravityDecorator@NEffectUpdateDecorator@@QAPAV12@AAV?$allocator@PAVCGravityDecorator@NEffectUpdateDecorator@@@0@@Z
_TEXT	SEGMENT
__First$ = 8						; size = 4
__Last$ = 12						; size = 4
__Al$ = 16						; size = 4
??$_Destroy_range@V?$allocator@PAVCGravityDecorator@NEffectUpdateDecorator@@@std@@@std@@YAXPAPAVCGravityDecorator@NEffectUpdateDecorator@@QAPAV12@AAV?$allocator@PAVCGravityDecorator@NEffectUpdateDecorator@@@0@@Z PROC ; std::_Destroy_range<std::allocator<NEffectUpdateDecorator::CGravityDecorator *> >, COMDAT

; 963  :     // note that this is an optimization for debug mode codegen; in release mode the BE removes all of this
; 964  :     using _Ty = typename _Alloc::value_type;
; 965  :     if _CONSTEXPR_IF (!conjunction_v<is_trivially_destructible<_Ty>, _Uses_default_destroy<_Alloc, _Ty*>>) {
; 966  :         for (; _First != _Last; ++_First) {
; 967  :             allocator_traits<_Alloc>::destroy(_Al, _Unfancy(_First));
; 968  :         }
; 969  :     }
; 970  : }

  00000	c2 00 00	 ret	 0
??$_Destroy_range@V?$allocator@PAVCGravityDecorator@NEffectUpdateDecorator@@@std@@@std@@YAXPAPAVCGravityDecorator@NEffectUpdateDecorator@@QAPAV12@AAV?$allocator@PAVCGravityDecorator@NEffectUpdateDecorator@@@0@@Z ENDP ; std::_Destroy_range<std::allocator<NEffectUpdateDecorator::CGravityDecorator *> >
_TEXT	ENDS
; Function compile flags: /Ogtp
; File C:\Program Files (x86)\Microsoft Visual Studio\2019\Community\VC\Tools\MSVC\14.28.29333\include\xmemory
;	COMDAT ??$_Destroy_range@V?$allocator@PAVCAirResistanceDecorator@NEffectUpdateDecorator@@@std@@@std@@YAXPAPAVCAirResistanceDecorator@NEffectUpdateDecorator@@QAPAV12@AAV?$allocator@PAVCAirResistanceDecorator@NEffectUpdateDecorator@@@0@@Z
_TEXT	SEGMENT
__First$ = 8						; size = 4
__Last$ = 12						; size = 4
__Al$ = 16						; size = 4
??$_Destroy_range@V?$allocator@PAVCAirResistanceDecorator@NEffectUpdateDecorator@@@std@@@std@@YAXPAPAVCAirResistanceDecorator@NEffectUpdateDecorator@@QAPAV12@AAV?$allocator@PAVCAirResistanceDecorator@NEffectUpdateDecorator@@@0@@Z PROC ; std::_Destroy_range<std::allocator<NEffectUpdateDecorator::CAirResistanceDecorator *> >, COMDAT

; 963  :     // note that this is an optimization for debug mode codegen; in release mode the BE removes all of this
; 964  :     using _Ty = typename _Alloc::value_type;
; 965  :     if _CONSTEXPR_IF (!conjunction_v<is_trivially_destructible<_Ty>, _Uses_default_destroy<_Alloc, _Ty*>>) {
; 966  :         for (; _First != _Last; ++_First) {
; 967  :             allocator_traits<_Alloc>::destroy(_Al, _Unfancy(_First));
; 968  :         }
; 969  :     }
; 970  : }

  00000	c2 00 00	 ret	 0
??$_Destroy_range@V?$allocator@PAVCAirResistanceDecorator@NEffectUpdateDecorator@@@std@@@std@@YAXPAPAVCAirResistanceDecorator@NEffectUpdateDecorator@@QAPAV12@AAV?$allocator@PAVCAirResistanceDecorator@NEffectUpdateDecorator@@@0@@Z ENDP ; std::_Destroy_range<std::allocator<NEffectUpdateDecorator::CAirResistanceDecorator *> >
_TEXT	ENDS
; Function compile flags: /Ogtp
; File C:\Program Files (x86)\Microsoft Visual Studio\2019\Community\VC\Tools\MSVC\14.28.29333\include\xmemory
;	COMDAT ??$_Destroy_range@V?$allocator@PAVCTextureAnimationRandomDecorator@NEffectUpdateDecorator@@@std@@@std@@YAXPAPAVCTextureAnimationRandomDecorator@NEffectUpdateDecorator@@QAPAV12@AAV?$allocator@PAVCTextureAnimationRandomDecorator@NEffectUpdateDecorator@@@0@@Z
_TEXT	SEGMENT
__First$ = 8						; size = 4
__Last$ = 12						; size = 4
__Al$ = 16						; size = 4
??$_Destroy_range@V?$allocator@PAVCTextureAnimationRandomDecorator@NEffectUpdateDecorator@@@std@@@std@@YAXPAPAVCTextureAnimationRandomDecorator@NEffectUpdateDecorator@@QAPAV12@AAV?$allocator@PAVCTextureAnimationRandomDecorator@NEffectUpdateDecorator@@@0@@Z PROC ; std::_Destroy_range<std::allocator<NEffectUpdateDecorator::CTextureAnimationRandomDecorator *> >, COMDAT

; 963  :     // note that this is an optimization for debug mode codegen; in release mode the BE removes all of this
; 964  :     using _Ty = typename _Alloc::value_type;
; 965  :     if _CONSTEXPR_IF (!conjunction_v<is_trivially_destructible<_Ty>, _Uses_default_destroy<_Alloc, _Ty*>>) {
; 966  :         for (; _First != _Last; ++_First) {
; 967  :             allocator_traits<_Alloc>::destroy(_Al, _Unfancy(_First));
; 968  :         }
; 969  :     }
; 970  : }

  00000	c2 00 00	 ret	 0
??$_Destroy_range@V?$allocator@PAVCTextureAnimationRandomDecorator@NEffectUpdateDecorator@@@std@@@std@@YAXPAPAVCTextureAnimationRandomDecorator@NEffectUpdateDecorator@@QAPAV12@AAV?$allocator@PAVCTextureAnimationRandomDecorator@NEffectUpdateDecorator@@@0@@Z ENDP ; std::_Destroy_range<std::allocator<NEffectUpdateDecorator::CTextureAnimationRandomDecorator *> >
_TEXT	ENDS
; Function compile flags: /Ogtp
; File C:\Program Files (x86)\Microsoft Visual Studio\2019\Community\VC\Tools\MSVC\14.28.29333\include\xmemory
;	COMDAT ??$_Destroy_range@V?$allocator@PAVCTextureAnimationCCWDecorator@NEffectUpdateDecorator@@@std@@@std@@YAXPAPAVCTextureAnimationCCWDecorator@NEffectUpdateDecorator@@QAPAV12@AAV?$allocator@PAVCTextureAnimationCCWDecorator@NEffectUpdateDecorator@@@0@@Z
_TEXT	SEGMENT
__First$ = 8						; size = 4
__Last$ = 12						; size = 4
__Al$ = 16						; size = 4
??$_Destroy_range@V?$allocator@PAVCTextureAnimationCCWDecorator@NEffectUpdateDecorator@@@std@@@std@@YAXPAPAVCTextureAnimationCCWDecorator@NEffectUpdateDecorator@@QAPAV12@AAV?$allocator@PAVCTextureAnimationCCWDecorator@NEffectUpdateDecorator@@@0@@Z PROC ; std::_Destroy_range<std::allocator<NEffectUpdateDecorator::CTextureAnimationCCWDecorator *> >, COMDAT

; 963  :     // note that this is an optimization for debug mode codegen; in release mode the BE removes all of this
; 964  :     using _Ty = typename _Alloc::value_type;
; 965  :     if _CONSTEXPR_IF (!conjunction_v<is_trivially_destructible<_Ty>, _Uses_default_destroy<_Alloc, _Ty*>>) {
; 966  :         for (; _First != _Last; ++_First) {
; 967  :             allocator_traits<_Alloc>::destroy(_Al, _Unfancy(_First));
; 968  :         }
; 969  :     }
; 970  : }

  00000	c2 00 00	 ret	 0
??$_Destroy_range@V?$allocator@PAVCTextureAnimationCCWDecorator@NEffectUpdateDecorator@@@std@@@std@@YAXPAPAVCTextureAnimationCCWDecorator@NEffectUpdateDecorator@@QAPAV12@AAV?$allocator@PAVCTextureAnimationCCWDecorator@NEffectUpdateDecorator@@@0@@Z ENDP ; std::_Destroy_range<std::allocator<NEffectUpdateDecorator::CTextureAnimationCCWDecorator *> >
_TEXT	ENDS
; Function compile flags: /Ogtp
; File C:\Program Files (x86)\Microsoft Visual Studio\2019\Community\VC\Tools\MSVC\14.28.29333\include\xmemory
;	COMDAT ??$_Destroy_range@V?$allocator@PAVCTextureAnimationCWDecorator@NEffectUpdateDecorator@@@std@@@std@@YAXPAPAVCTextureAnimationCWDecorator@NEffectUpdateDecorator@@QAPAV12@AAV?$allocator@PAVCTextureAnimationCWDecorator@NEffectUpdateDecorator@@@0@@Z
_TEXT	SEGMENT
__First$ = 8						; size = 4
__Last$ = 12						; size = 4
__Al$ = 16						; size = 4
??$_Destroy_range@V?$allocator@PAVCTextureAnimationCWDecorator@NEffectUpdateDecorator@@@std@@@std@@YAXPAPAVCTextureAnimationCWDecorator@NEffectUpdateDecorator@@QAPAV12@AAV?$allocator@PAVCTextureAnimationCWDecorator@NEffectUpdateDecorator@@@0@@Z PROC ; std::_Destroy_range<std::allocator<NEffectUpdateDecorator::CTextureAnimationCWDecorator *> >, COMDAT

; 963  :     // note that this is an optimization for debug mode codegen; in release mode the BE removes all of this
; 964  :     using _Ty = typename _Alloc::value_type;
; 965  :     if _CONSTEXPR_IF (!conjunction_v<is_trivially_destructible<_Ty>, _Uses_default_destroy<_Alloc, _Ty*>>) {
; 966  :         for (; _First != _Last; ++_First) {
; 967  :             allocator_traits<_Alloc>::destroy(_Al, _Unfancy(_First));
; 968  :         }
; 969  :     }
; 970  : }

  00000	c2 00 00	 ret	 0
??$_Destroy_range@V?$allocator@PAVCTextureAnimationCWDecorator@NEffectUpdateDecorator@@@std@@@std@@YAXPAPAVCTextureAnimationCWDecorator@NEffectUpdateDecorator@@QAPAV12@AAV?$allocator@PAVCTextureAnimationCWDecorator@NEffectUpdateDecorator@@@0@@Z ENDP ; std::_Destroy_range<std::allocator<NEffectUpdateDecorator::CTextureAnimationCWDecorator *> >
_TEXT	ENDS
; Function compile flags: /Ogtp
; File C:\Program Files (x86)\Microsoft Visual Studio\2019\Community\VC\Tools\MSVC\14.28.29333\include\xmemory
;	COMDAT ??$_Destroy_range@V?$allocator@PAVCNullDecorator@NEffectUpdateDecorator@@@std@@@std@@YAXPAPAVCNullDecorator@NEffectUpdateDecorator@@QAPAV12@AAV?$allocator@PAVCNullDecorator@NEffectUpdateDecorator@@@0@@Z
_TEXT	SEGMENT
__First$ = 8						; size = 4
__Last$ = 12						; size = 4
__Al$ = 16						; size = 4
??$_Destroy_range@V?$allocator@PAVCNullDecorator@NEffectUpdateDecorator@@@std@@@std@@YAXPAPAVCNullDecorator@NEffectUpdateDecorator@@QAPAV12@AAV?$allocator@PAVCNullDecorator@NEffectUpdateDecorator@@@0@@Z PROC ; std::_Destroy_range<std::allocator<NEffectUpdateDecorator::CNullDecorator *> >, COMDAT

; 963  :     // note that this is an optimization for debug mode codegen; in release mode the BE removes all of this
; 964  :     using _Ty = typename _Alloc::value_type;
; 965  :     if _CONSTEXPR_IF (!conjunction_v<is_trivially_destructible<_Ty>, _Uses_default_destroy<_Alloc, _Ty*>>) {
; 966  :         for (; _First != _Last; ++_First) {
; 967  :             allocator_traits<_Alloc>::destroy(_Al, _Unfancy(_First));
; 968  :         }
; 969  :     }
; 970  : }

  00000	c2 00 00	 ret	 0
??$_Destroy_range@V?$allocator@PAVCNullDecorator@NEffectUpdateDecorator@@@std@@@std@@YAXPAPAVCNullDecorator@NEffectUpdateDecorator@@QAPAV12@AAV?$allocator@PAVCNullDecorator@NEffectUpdateDecorator@@@0@@Z ENDP ; std::_Destroy_range<std::allocator<NEffectUpdateDecorator::CNullDecorator *> >
_TEXT	ENDS
; Function compile flags: /Ogtp
; File C:\Program Files (x86)\Microsoft Visual Studio\2019\Community\VC\Tools\MSVC\14.28.29333\include\xmemory
;	COMDAT ??$_Destroy_range@V?$allocator@PAVCHeaderDecorator@NEffectUpdateDecorator@@@std@@@std@@YAXPAPAVCHeaderDecorator@NEffectUpdateDecorator@@QAPAV12@AAV?$allocator@PAVCHeaderDecorator@NEffectUpdateDecorator@@@0@@Z
_TEXT	SEGMENT
__First$ = 8						; size = 4
__Last$ = 12						; size = 4
__Al$ = 16						; size = 4
??$_Destroy_range@V?$allocator@PAVCHeaderDecorator@NEffectUpdateDecorator@@@std@@@std@@YAXPAPAVCHeaderDecorator@NEffectUpdateDecorator@@QAPAV12@AAV?$allocator@PAVCHeaderDecorator@NEffectUpdateDecorator@@@0@@Z PROC ; std::_Destroy_range<std::allocator<NEffectUpdateDecorator::CHeaderDecorator *> >, COMDAT

; 963  :     // note that this is an optimization for debug mode codegen; in release mode the BE removes all of this
; 964  :     using _Ty = typename _Alloc::value_type;
; 965  :     if _CONSTEXPR_IF (!conjunction_v<is_trivially_destructible<_Ty>, _Uses_default_destroy<_Alloc, _Ty*>>) {
; 966  :         for (; _First != _Last; ++_First) {
; 967  :             allocator_traits<_Alloc>::destroy(_Al, _Unfancy(_First));
; 968  :         }
; 969  :     }
; 970  : }

  00000	c2 00 00	 ret	 0
??$_Destroy_range@V?$allocator@PAVCHeaderDecorator@NEffectUpdateDecorator@@@std@@@std@@YAXPAPAVCHeaderDecorator@NEffectUpdateDecorator@@QAPAV12@AAV?$allocator@PAVCHeaderDecorator@NEffectUpdateDecorator@@@0@@Z ENDP ; std::_Destroy_range<std::allocator<NEffectUpdateDecorator::CHeaderDecorator *> >
_TEXT	ENDS
; Function compile flags: /Ogtp
; File C:\Program Files (x86)\Microsoft Visual Studio\2019\Community\VC\Tools\MSVC\14.28.29333\include\xmemory
;	COMDAT ??$_Pocca@V?$allocator@U?$_Tree_node@HPAX@std@@@std@@@std@@YAXAAV?$allocator@U?$_Tree_node@HPAX@std@@@0@ABV10@@Z
_TEXT	SEGMENT
__Left$ = 8						; size = 4
__Right$ = 12						; size = 4
??$_Pocca@V?$allocator@U?$_Tree_node@HPAX@std@@@std@@@std@@YAXAAV?$allocator@U?$_Tree_node@HPAX@std@@@0@ABV10@@Z PROC ; std::_Pocca<std::allocator<std::_Tree_node<int,void *> > >, COMDAT

; 886  :     if constexpr (allocator_traits<_Alloc>::propagate_on_container_copy_assignment::value) {
; 887  :         _Left = _Right;
; 888  :     }
; 889  : }

  00000	c2 00 00	 ret	 0
??$_Pocca@V?$allocator@U?$_Tree_node@HPAX@std@@@std@@@std@@YAXAAV?$allocator@U?$_Tree_node@HPAX@std@@@0@ABV10@@Z ENDP ; std::_Pocca<std::allocator<std::_Tree_node<int,void *> > >
_TEXT	ENDS
; Function compile flags: /Ogtp
; File C:\Program Files (x86)\Microsoft Visual Studio\2019\Community\VC\Tools\MSVC\14.28.29333\include\xmemory
;	COMDAT ??$_Pocca@V?$allocator@D@std@@@std@@YAXAAV?$allocator@D@0@ABV10@@Z
_TEXT	SEGMENT
__Left$ = 8						; size = 4
__Right$ = 12						; size = 4
??$_Pocca@V?$allocator@D@std@@@std@@YAXAAV?$allocator@D@0@ABV10@@Z PROC ; std::_Pocca<std::allocator<char> >, COMDAT

; 886  :     if constexpr (allocator_traits<_Alloc>::propagate_on_container_copy_assignment::value) {
; 887  :         _Left = _Right;
; 888  :     }
; 889  : }

  00000	c2 00 00	 ret	 0
??$_Pocca@V?$allocator@D@std@@@std@@YAXAAV?$allocator@D@0@ABV10@@Z ENDP ; std::_Pocca<std::allocator<char> >
_TEXT	ENDS
; Function compile flags: /Ogtp
; File C:\Program Files (x86)\Microsoft Visual Studio\2019\Community\VC\Tools\MSVC\14.28.29333\include\xtree
; File C:\Program Files (x86)\Microsoft Visual Studio\2019\Community\VC\Tools\MSVC\14.28.29333\include\utility
; File C:\Program Files (x86)\Microsoft Visual Studio\2019\Community\VC\Tools\MSVC\14.28.29333\include\xmemory
; File C:\Program Files (x86)\Microsoft Visual Studio\2019\Community\VC\Tools\MSVC\14.28.29333\include\xtree
;	COMDAT ??$_Erase_tree@V?$allocator@U?$_Tree_node@HPAX@std@@@std@@@?$_Tree_val@U?$_Tree_simple_types@H@std@@@std@@QAEXAAV?$allocator@U?$_Tree_node@HPAX@std@@@1@PAU?$_Tree_node@HPAX@1@@Z
_TEXT	SEGMENT
__Al$ = 8						; size = 4
__Rootnode$ = 12					; size = 4
??$_Erase_tree@V?$allocator@U?$_Tree_node@HPAX@std@@@std@@@?$_Tree_val@U?$_Tree_simple_types@H@std@@@std@@QAEXAAV?$allocator@U?$_Tree_node@HPAX@std@@@1@PAU?$_Tree_node@HPAX@1@@Z PROC ; std::_Tree_val<std::_Tree_simple_types<int> >::_Erase_tree<std::allocator<std::_Tree_node<int,void *> > >, COMDAT
; _this$ = ecx

; 742  :     void _Erase_tree(_Alnode& _Al, _Nodeptr _Rootnode) noexcept {

  00000	55		 push	 ebp
  00001	8b ec		 mov	 ebp, esp
  00003	53		 push	 ebx
  00004	56		 push	 esi

; 743  :         while (!_Rootnode->_Isnil) { // free subtrees, then node

  00005	8b 75 0c	 mov	 esi, DWORD PTR __Rootnode$[ebp]
  00008	8b d9		 mov	 ebx, ecx
  0000a	80 7e 0d 00	 cmp	 BYTE PTR [esi+13], 0
  0000e	75 25		 jne	 SHORT $LN3@Erase_tree
  00010	57		 push	 edi
  00011	8b 7d 08	 mov	 edi, DWORD PTR __Al$[ebp]
$LL2@Erase_tree:

; 744  :             _Erase_tree(_Al, _Rootnode->_Right);

  00014	ff 76 08	 push	 DWORD PTR [esi+8]
  00017	8b cb		 mov	 ecx, ebx
  00019	57		 push	 edi
  0001a	e8 00 00 00 00	 call	 ??$_Erase_tree@V?$allocator@U?$_Tree_node@HPAX@std@@@std@@@?$_Tree_val@U?$_Tree_simple_types@H@std@@@std@@QAEXAAV?$allocator@U?$_Tree_node@HPAX@std@@@1@PAU?$_Tree_node@HPAX@1@@Z ; std::_Tree_val<std::_Tree_simple_types<int> >::_Erase_tree<std::allocator<std::_Tree_node<int,void *> > >
; File C:\Program Files (x86)\Microsoft Visual Studio\2019\Community\VC\Tools\MSVC\14.28.29333\include\utility

; 598  :     _Ty _Old_val = static_cast<_Ty&&>(_Val);

  0001f	8b c6		 mov	 eax, esi

; 599  :     _Val         = static_cast<_Other&&>(_New_val);

  00021	8b 36		 mov	 esi, DWORD PTR [esi]
; File C:\Program Files (x86)\Microsoft Visual Studio\2019\Community\VC\Tools\MSVC\14.28.29333\include\xmemory

; 696  :         _Deallocate<_New_alignof<value_type>>(_Ptr, sizeof(value_type) * _Count);

  00023	6a 14		 push	 20			; 00000014H
  00025	50		 push	 eax
  00026	e8 00 00 00 00	 call	 ??$_Deallocate@$07$0A@@std@@YAXPAXI@Z ; std::_Deallocate<8,0>
  0002b	83 c4 08	 add	 esp, 8
; File C:\Program Files (x86)\Microsoft Visual Studio\2019\Community\VC\Tools\MSVC\14.28.29333\include\xtree

; 743  :         while (!_Rootnode->_Isnil) { // free subtrees, then node

  0002e	80 7e 0d 00	 cmp	 BYTE PTR [esi+13], 0
  00032	74 e0		 je	 SHORT $LL2@Erase_tree
  00034	5f		 pop	 edi
$LN3@Erase_tree:
  00035	5e		 pop	 esi

; 745  :             _Alnode::value_type::_Freenode(_Al, _STD exchange(_Rootnode, _Rootnode->_Left));
; 746  :         }
; 747  :     }

  00036	5b		 pop	 ebx
  00037	5d		 pop	 ebp
  00038	c2 08 00	 ret	 8
??$_Erase_tree@V?$allocator@U?$_Tree_node@HPAX@std@@@std@@@?$_Tree_val@U?$_Tree_simple_types@H@std@@@std@@QAEXAAV?$allocator@U?$_Tree_node@HPAX@std@@@1@PAU?$_Tree_node@HPAX@1@@Z ENDP ; std::_Tree_val<std::_Tree_simple_types<int> >::_Erase_tree<std::allocator<std::_Tree_node<int,void *> > >
_TEXT	ENDS
; Function compile flags: /Ogtp
; File C:\Program Files (x86)\Microsoft Visual Studio\2019\Community\VC\Tools\MSVC\14.28.29333\include\xtree
; File C:\Program Files (x86)\Microsoft Visual Studio\2019\Community\VC\Tools\MSVC\14.28.29333\include\utility
; File C:\Program Files (x86)\Microsoft Visual Studio\2019\Community\VC\Tools\MSVC\14.28.29333\include\xmemory
; File C:\Program Files (x86)\Microsoft Visual Studio\2019\Community\VC\Tools\MSVC\14.28.29333\include\xtree
;	COMDAT ??$_Erase_tree@V?$allocator@U?$_Tree_node@U?$pair@$$CBKK@std@@PAX@std@@@std@@@?$_Tree_val@U?$_Tree_simple_types@U?$pair@$$CBKK@std@@@std@@@std@@QAEXAAV?$allocator@U?$_Tree_node@U?$pair@$$CBKK@std@@PAX@std@@@1@PAU?$_Tree_node@U?$pair@$$CBKK@std@@PAX@1@@Z
_TEXT	SEGMENT
__Al$ = 8						; size = 4
__Rootnode$ = 12					; size = 4
??$_Erase_tree@V?$allocator@U?$_Tree_node@U?$pair@$$CBKK@std@@PAX@std@@@std@@@?$_Tree_val@U?$_Tree_simple_types@U?$pair@$$CBKK@std@@@std@@@std@@QAEXAAV?$allocator@U?$_Tree_node@U?$pair@$$CBKK@std@@PAX@std@@@1@PAU?$_Tree_node@U?$pair@$$CBKK@std@@PAX@1@@Z PROC ; std::_Tree_val<std::_Tree_simple_types<std::pair<unsigned long const ,unsigned long> > >::_Erase_tree<std::allocator<std::_Tree_node<std::pair<unsigned long const ,unsigned long>,void *> > >, COMDAT
; _this$ = ecx

; 742  :     void _Erase_tree(_Alnode& _Al, _Nodeptr _Rootnode) noexcept {

  00000	55		 push	 ebp
  00001	8b ec		 mov	 ebp, esp
  00003	53		 push	 ebx
  00004	56		 push	 esi

; 743  :         while (!_Rootnode->_Isnil) { // free subtrees, then node

  00005	8b 75 0c	 mov	 esi, DWORD PTR __Rootnode$[ebp]
  00008	8b d9		 mov	 ebx, ecx
  0000a	80 7e 0d 00	 cmp	 BYTE PTR [esi+13], 0
  0000e	75 25		 jne	 SHORT $LN3@Erase_tree
  00010	57		 push	 edi
  00011	8b 7d 08	 mov	 edi, DWORD PTR __Al$[ebp]
$LL2@Erase_tree:

; 744  :             _Erase_tree(_Al, _Rootnode->_Right);

  00014	ff 76 08	 push	 DWORD PTR [esi+8]
  00017	8b cb		 mov	 ecx, ebx
  00019	57		 push	 edi
  0001a	e8 00 00 00 00	 call	 ??$_Erase_tree@V?$allocator@U?$_Tree_node@U?$pair@$$CBKK@std@@PAX@std@@@std@@@?$_Tree_val@U?$_Tree_simple_types@U?$pair@$$CBKK@std@@@std@@@std@@QAEXAAV?$allocator@U?$_Tree_node@U?$pair@$$CBKK@std@@PAX@std@@@1@PAU?$_Tree_node@U?$pair@$$CBKK@std@@PAX@1@@Z ; std::_Tree_val<std::_Tree_simple_types<std::pair<unsigned long const ,unsigned long> > >::_Erase_tree<std::allocator<std::_Tree_node<std::pair<unsigned long const ,unsigned long>,void *> > >
; File C:\Program Files (x86)\Microsoft Visual Studio\2019\Community\VC\Tools\MSVC\14.28.29333\include\utility

; 598  :     _Ty _Old_val = static_cast<_Ty&&>(_Val);

  0001f	8b c6		 mov	 eax, esi

; 599  :     _Val         = static_cast<_Other&&>(_New_val);

  00021	8b 36		 mov	 esi, DWORD PTR [esi]
; File C:\Program Files (x86)\Microsoft Visual Studio\2019\Community\VC\Tools\MSVC\14.28.29333\include\xmemory

; 696  :         _Deallocate<_New_alignof<value_type>>(_Ptr, sizeof(value_type) * _Count);

  00023	6a 18		 push	 24			; 00000018H
  00025	50		 push	 eax
  00026	e8 00 00 00 00	 call	 ??$_Deallocate@$07$0A@@std@@YAXPAXI@Z ; std::_Deallocate<8,0>
  0002b	83 c4 08	 add	 esp, 8
; File C:\Program Files (x86)\Microsoft Visual Studio\2019\Community\VC\Tools\MSVC\14.28.29333\include\xtree

; 743  :         while (!_Rootnode->_Isnil) { // free subtrees, then node

  0002e	80 7e 0d 00	 cmp	 BYTE PTR [esi+13], 0
  00032	74 e0		 je	 SHORT $LL2@Erase_tree
  00034	5f		 pop	 edi
$LN3@Erase_tree:
  00035	5e		 pop	 esi

; 745  :             _Alnode::value_type::_Freenode(_Al, _STD exchange(_Rootnode, _Rootnode->_Left));
; 746  :         }
; 747  :     }

  00036	5b		 pop	 ebx
  00037	5d		 pop	 ebp
  00038	c2 08 00	 ret	 8
??$_Erase_tree@V?$allocator@U?$_Tree_node@U?$pair@$$CBKK@std@@PAX@std@@@std@@@?$_Tree_val@U?$_Tree_simple_types@U?$pair@$$CBKK@std@@@std@@@std@@QAEXAAV?$allocator@U?$_Tree_node@U?$pair@$$CBKK@std@@PAX@std@@@1@PAU?$_Tree_node@U?$pair@$$CBKK@std@@PAX@1@@Z ENDP ; std::_Tree_val<std::_Tree_simple_types<std::pair<unsigned long const ,unsigned long> > >::_Erase_tree<std::allocator<std::_Tree_node<std::pair<unsigned long const ,unsigned long>,void *> > >
_TEXT	ENDS
; Function compile flags: /Ogtp
; File C:\Program Files (x86)\Microsoft Visual Studio\2019\Community\VC\Tools\MSVC\14.28.29333\include\xtree
; File C:\Program Files (x86)\Microsoft Visual Studio\2019\Community\VC\Tools\MSVC\14.28.29333\include\utility
; File C:\Program Files (x86)\Microsoft Visual Studio\2019\Community\VC\Tools\MSVC\14.28.29333\include\xmemory
; File C:\Program Files (x86)\Microsoft Visual Studio\2019\Community\VC\Tools\MSVC\14.28.29333\include\xtree
;	COMDAT ??$_Erase_tree@V?$allocator@U?$_Tree_node@U?$pair@$$CBKUSReserveTargetEffect@CPythonBackground@@@std@@PAX@std@@@std@@@?$_Tree_val@U?$_Tree_simple_types@U?$pair@$$CBKUSReserveTargetEffect@CPythonBackground@@@std@@@std@@@std@@QAEXAAV?$allocator@U?$_Tree_node@U?$pair@$$CBKUSReserveTargetEffect@CPythonBackground@@@std@@PAX@std@@@1@PAU?$_Tree_node@U?$pair@$$CBKUSReserveTargetEffect@CPythonBackground@@@std@@PAX@1@@Z
_TEXT	SEGMENT
__Al$ = 8						; size = 4
__Rootnode$ = 12					; size = 4
??$_Erase_tree@V?$allocator@U?$_Tree_node@U?$pair@$$CBKUSReserveTargetEffect@CPythonBackground@@@std@@PAX@std@@@std@@@?$_Tree_val@U?$_Tree_simple_types@U?$pair@$$CBKUSReserveTargetEffect@CPythonBackground@@@std@@@std@@@std@@QAEXAAV?$allocator@U?$_Tree_node@U?$pair@$$CBKUSReserveTargetEffect@CPythonBackground@@@std@@PAX@std@@@1@PAU?$_Tree_node@U?$pair@$$CBKUSReserveTargetEffect@CPythonBackground@@@std@@PAX@1@@Z PROC ; std::_Tree_val<std::_Tree_simple_types<std::pair<unsigned long const ,CPythonBackground::SReserveTargetEffect> > >::_Erase_tree<std::allocator<std::_Tree_node<std::pair<unsigned long const ,CPythonBackground::SReserveTargetEffect>,void *> > >, COMDAT
; _this$ = ecx

; 742  :     void _Erase_tree(_Alnode& _Al, _Nodeptr _Rootnode) noexcept {

  00000	55		 push	 ebp
  00001	8b ec		 mov	 ebp, esp
  00003	53		 push	 ebx
  00004	56		 push	 esi

; 743  :         while (!_Rootnode->_Isnil) { // free subtrees, then node

  00005	8b 75 0c	 mov	 esi, DWORD PTR __Rootnode$[ebp]
  00008	8b d9		 mov	 ebx, ecx
  0000a	80 7e 0d 00	 cmp	 BYTE PTR [esi+13], 0
  0000e	75 25		 jne	 SHORT $LN3@Erase_tree
  00010	57		 push	 edi
  00011	8b 7d 08	 mov	 edi, DWORD PTR __Al$[ebp]
$LL2@Erase_tree:

; 744  :             _Erase_tree(_Al, _Rootnode->_Right);

  00014	ff 76 08	 push	 DWORD PTR [esi+8]
  00017	8b cb		 mov	 ecx, ebx
  00019	57		 push	 edi
  0001a	e8 00 00 00 00	 call	 ??$_Erase_tree@V?$allocator@U?$_Tree_node@U?$pair@$$CBKUSReserveTargetEffect@CPythonBackground@@@std@@PAX@std@@@std@@@?$_Tree_val@U?$_Tree_simple_types@U?$pair@$$CBKUSReserveTargetEffect@CPythonBackground@@@std@@@std@@@std@@QAEXAAV?$allocator@U?$_Tree_node@U?$pair@$$CBKUSReserveTargetEffect@CPythonBackground@@@std@@PAX@std@@@1@PAU?$_Tree_node@U?$pair@$$CBKUSReserveTargetEffect@CPythonBackground@@@std@@PAX@1@@Z ; std::_Tree_val<std::_Tree_simple_types<std::pair<unsigned long const ,CPythonBackground::SReserveTargetEffect> > >::_Erase_tree<std::allocator<std::_Tree_node<std::pair<unsigned long const ,CPythonBackground::SReserveTargetEffect>,void *> > >
; File C:\Program Files (x86)\Microsoft Visual Studio\2019\Community\VC\Tools\MSVC\14.28.29333\include\utility

; 598  :     _Ty _Old_val = static_cast<_Ty&&>(_Val);

  0001f	8b c6		 mov	 eax, esi

; 599  :     _Val         = static_cast<_Other&&>(_New_val);

  00021	8b 36		 mov	 esi, DWORD PTR [esi]
; File C:\Program Files (x86)\Microsoft Visual Studio\2019\Community\VC\Tools\MSVC\14.28.29333\include\xmemory

; 696  :         _Deallocate<_New_alignof<value_type>>(_Ptr, sizeof(value_type) * _Count);

  00023	6a 1c		 push	 28			; 0000001cH
  00025	50		 push	 eax
  00026	e8 00 00 00 00	 call	 ??$_Deallocate@$07$0A@@std@@YAXPAXI@Z ; std::_Deallocate<8,0>
  0002b	83 c4 08	 add	 esp, 8
; File C:\Program Files (x86)\Microsoft Visual Studio\2019\Community\VC\Tools\MSVC\14.28.29333\include\xtree

; 743  :         while (!_Rootnode->_Isnil) { // free subtrees, then node

  0002e	80 7e 0d 00	 cmp	 BYTE PTR [esi+13], 0
  00032	74 e0		 je	 SHORT $LL2@Erase_tree
  00034	5f		 pop	 edi
$LN3@Erase_tree:
  00035	5e		 pop	 esi

; 745  :             _Alnode::value_type::_Freenode(_Al, _STD exchange(_Rootnode, _Rootnode->_Left));
; 746  :         }
; 747  :     }

  00036	5b		 pop	 ebx
  00037	5d		 pop	 ebp
  00038	c2 08 00	 ret	 8
??$_Erase_tree@V?$allocator@U?$_Tree_node@U?$pair@$$CBKUSReserveTargetEffect@CPythonBackground@@@std@@PAX@std@@@std@@@?$_Tree_val@U?$_Tree_simple_types@U?$pair@$$CBKUSReserveTargetEffect@CPythonBackground@@@std@@@std@@@std@@QAEXAAV?$allocator@U?$_Tree_node@U?$pair@$$CBKUSReserveTargetEffect@CPythonBackground@@@std@@PAX@std@@@1@PAU?$_Tree_node@U?$pair@$$CBKUSReserveTargetEffect@CPythonBackground@@@std@@PAX@1@@Z ENDP ; std::_Tree_val<std::_Tree_simple_types<std::pair<unsigned long const ,CPythonBackground::SReserveTargetEffect> > >::_Erase_tree<std::allocator<std::_Tree_node<std::pair<unsigned long const ,CPythonBackground::SReserveTargetEffect>,void *> > >
_TEXT	ENDS
; Function compile flags: /Ogtp
;	COMDAT ??_G?$CDynamicPoolEx@VCHeaderDecorator@NEffectUpdateDecorator@@@@UAEPAXI@Z
_TEXT	SEGMENT
___flags$ = 8						; size = 4
??_G?$CDynamicPoolEx@VCHeaderDecorator@NEffectUpdateDecorator@@@@UAEPAXI@Z PROC ; CDynamicPoolEx<NEffectUpdateDecorator::CHeaderDecorator>::`scalar deleting destructor', COMDAT
; _this$ = ecx
  00000	55		 push	 ebp
  00001	8b ec		 mov	 ebp, esp
  00003	56		 push	 esi
  00004	8b f1		 mov	 esi, ecx
  00006	e8 00 00 00 00	 call	 ??1?$CDynamicPoolEx@VCHeaderDecorator@NEffectUpdateDecorator@@@@UAE@XZ ; CDynamicPoolEx<NEffectUpdateDecorator::CHeaderDecorator>::~CDynamicPoolEx<NEffectUpdateDecorator::CHeaderDecorator>
  0000b	f6 45 08 01	 test	 BYTE PTR ___flags$[ebp], 1
  0000f	74 0b		 je	 SHORT $LN4@scalar
  00011	6a 24		 push	 36			; 00000024H
  00013	56		 push	 esi
  00014	e8 00 00 00 00	 call	 ??3@YAXPAXI@Z		; operator delete
  00019	83 c4 08	 add	 esp, 8
$LN4@scalar:
  0001c	8b c6		 mov	 eax, esi
  0001e	5e		 pop	 esi
  0001f	5d		 pop	 ebp
  00020	c2 04 00	 ret	 4
??_G?$CDynamicPoolEx@VCHeaderDecorator@NEffectUpdateDecorator@@@@UAEPAXI@Z ENDP ; CDynamicPoolEx<NEffectUpdateDecorator::CHeaderDecorator>::`scalar deleting destructor'
_TEXT	ENDS
; Function compile flags: /Ogtp
; File D:\Metin2 Server Files\mainline\SRC_2014\Metin2Client\eterLib\Pool.h
;	COMDAT ?Delete@?$CDynamicPoolEx@VCHeaderDecorator@NEffectUpdateDecorator@@@@KAXPAVCHeaderDecorator@NEffectUpdateDecorator@@@Z
_TEXT	SEGMENT
_pkData$ = 8						; size = 4
?Delete@?$CDynamicPoolEx@VCHeaderDecorator@NEffectUpdateDecorator@@@@KAXPAVCHeaderDecorator@NEffectUpdateDecorator@@@Z PROC ; CDynamicPoolEx<NEffectUpdateDecorator::CHeaderDecorator>::Delete, COMDAT

; 224  : 			::operator delete(pkData);

  00000	e9 00 00 00 00	 jmp	 ??3@YAXPAX@Z		; operator delete
?Delete@?$CDynamicPoolEx@VCHeaderDecorator@NEffectUpdateDecorator@@@@KAXPAVCHeaderDecorator@NEffectUpdateDecorator@@@Z ENDP ; CDynamicPoolEx<NEffectUpdateDecorator::CHeaderDecorator>::Delete
_TEXT	ENDS
; Function compile flags: /Ogtp
; File D:\Metin2 Server Files\mainline\SRC_2014\Metin2Client\eterLib\Pool.h
; File C:\Program Files (x86)\Microsoft Visual Studio\2019\Community\VC\Tools\MSVC\14.28.29333\include\vector
; File C:\Program Files (x86)\Microsoft Visual Studio\2019\Community\VC\Tools\MSVC\14.28.29333\include\algorithm
; File D:\Metin2 Server Files\mainline\SRC_2014\Metin2Client\eterLib\Pool.h
; File C:\Program Files (x86)\Microsoft Visual Studio\2019\Community\VC\Tools\MSVC\14.28.29333\include\algorithm
; File D:\Metin2 Server Files\mainline\SRC_2014\Metin2Client\eterLib\Pool.h
; File C:\Program Files (x86)\Microsoft Visual Studio\2019\Community\VC\Tools\MSVC\14.28.29333\include\algorithm
; File D:\Metin2 Server Files\mainline\SRC_2014\Metin2Client\eterLib\Pool.h
; File C:\Program Files (x86)\Microsoft Visual Studio\2019\Community\VC\Tools\MSVC\14.28.29333\include\vector
; File C:\Program Files (x86)\Microsoft Visual Studio\2019\Community\VC\Tools\MSVC\14.28.29333\include\xmemory
; File C:\Program Files (x86)\Microsoft Visual Studio\2019\Community\VC\Tools\MSVC\14.28.29333\include\vector
; File C:\Program Files (x86)\Microsoft Visual Studio\2019\Community\VC\Tools\MSVC\14.28.29333\include\xmemory
; File C:\Program Files (x86)\Microsoft Visual Studio\2019\Community\VC\Tools\MSVC\14.28.29333\include\vector
; File C:\Program Files (x86)\Microsoft Visual Studio\2019\Community\VC\Tools\MSVC\14.28.29333\include\xmemory
; File C:\Program Files (x86)\Microsoft Visual Studio\2019\Community\VC\Tools\MSVC\14.28.29333\include\vector
; File C:\Program Files (x86)\Microsoft Visual Studio\2019\Community\VC\Tools\MSVC\14.28.29333\include\xmemory
; File C:\Program Files (x86)\Microsoft Visual Studio\2019\Community\VC\Tools\MSVC\14.28.29333\include\vector
; File D:\Metin2 Server Files\mainline\SRC_2014\Metin2Client\eterLib\Pool.h
;	COMDAT ??1?$CDynamicPoolEx@VCHeaderDecorator@NEffectUpdateDecorator@@@@UAE@XZ
_TEXT	SEGMENT
??1?$CDynamicPoolEx@VCHeaderDecorator@NEffectUpdateDecorator@@@@UAE@XZ PROC ; CDynamicPoolEx<NEffectUpdateDecorator::CHeaderDecorator>::~CDynamicPoolEx<NEffectUpdateDecorator::CHeaderDecorator>, COMDAT
; _this$ = ecx

; 132  : 		{

  00000	53		 push	 ebx
  00001	56		 push	 esi
  00002	57		 push	 edi
  00003	8b f9		 mov	 edi, ecx
  00005	c7 07 00 00 00
	00		 mov	 DWORD PTR [edi], OFFSET ??_7?$CDynamicPoolEx@VCHeaderDecorator@NEffectUpdateDecorator@@@@6B@
; File C:\Program Files (x86)\Microsoft Visual Studio\2019\Community\VC\Tools\MSVC\14.28.29333\include\vector

; 42   :     _Vector_const_iterator(_Tptr _Parg, const _Container_base* _Pvector) noexcept : _Ptr(_Parg) {

  0000b	8b 5f 08	 mov	 ebx, DWORD PTR [edi+8]
  0000e	8b 77 04	 mov	 esi, DWORD PTR [edi+4]
; File C:\Program Files (x86)\Microsoft Visual Studio\2019\Community\VC\Tools\MSVC\14.28.29333\include\algorithm

; 307  :     for (; _UFirst != _ULast; ++_UFirst) {

  00011	3b f3		 cmp	 esi, ebx
  00013	74 14		 je	 SHORT $LN19@CDynamicPo
$LL20@CDynamicPo:
; File D:\Metin2 Server Files\mainline\SRC_2014\Metin2Client\eterLib\Pool.h

; 224  : 			::operator delete(pkData);

  00015	ff 36		 push	 DWORD PTR [esi]
  00017	e8 00 00 00 00	 call	 ??3@YAXPAX@Z		; operator delete
; File C:\Program Files (x86)\Microsoft Visual Studio\2019\Community\VC\Tools\MSVC\14.28.29333\include\algorithm

; 307  :     for (; _UFirst != _ULast; ++_UFirst) {

  0001c	83 c6 04	 add	 esi, 4
; File D:\Metin2 Server Files\mainline\SRC_2014\Metin2Client\eterLib\Pool.h

; 224  : 			::operator delete(pkData);

  0001f	83 c4 04	 add	 esp, 4
; File C:\Program Files (x86)\Microsoft Visual Studio\2019\Community\VC\Tools\MSVC\14.28.29333\include\algorithm

; 307  :     for (; _UFirst != _ULast; ++_UFirst) {

  00022	3b f3		 cmp	 esi, ebx
  00024	75 ef		 jne	 SHORT $LL20@CDynamicPo
  00026	8b 77 04	 mov	 esi, DWORD PTR [edi+4]
$LN19@CDynamicPo:
; File D:\Metin2 Server Files\mainline\SRC_2014\Metin2Client\eterLib\Pool.h

; 162  : 			m_kVct_pkFree.clear();

  00029	8b 4f 10	 mov	 ecx, DWORD PTR [edi+16]
  0002c	89 77 08	 mov	 DWORD PTR [edi+8], esi
  0002f	89 4f 14	 mov	 DWORD PTR [edi+20], ecx
; File C:\Program Files (x86)\Microsoft Visual Studio\2019\Community\VC\Tools\MSVC\14.28.29333\include\vector

; 1694 :         if (_Myfirst) { // destroy and deallocate old array

  00032	85 c9		 test	 ecx, ecx
  00034	74 27		 je	 SHORT $LN27@CDynamicPo

; 1695 :             _Destroy(_Myfirst, _Mylast);
; 1696 :             _Getal().deallocate(_Myfirst, static_cast<size_type>(_Myend - _Myfirst));

  00036	8b 47 18	 mov	 eax, DWORD PTR [edi+24]
  00039	2b c1		 sub	 eax, ecx
; File C:\Program Files (x86)\Microsoft Visual Studio\2019\Community\VC\Tools\MSVC\14.28.29333\include\xmemory

; 810  :         _Deallocate<_New_alignof<_Ty>>(_Ptr, sizeof(_Ty) * _Count);

  0003b	83 e0 fc	 and	 eax, -4			; fffffffcH
  0003e	50		 push	 eax
  0003f	51		 push	 ecx
  00040	e8 00 00 00 00	 call	 ??$_Deallocate@$07$0A@@std@@YAXPAXI@Z ; std::_Deallocate<8,0>
; File C:\Program Files (x86)\Microsoft Visual Studio\2019\Community\VC\Tools\MSVC\14.28.29333\include\vector

; 1698 :             _Myfirst = pointer();

  00045	c7 47 10 00 00
	00 00		 mov	 DWORD PTR [edi+16], 0
; File C:\Program Files (x86)\Microsoft Visual Studio\2019\Community\VC\Tools\MSVC\14.28.29333\include\xmemory

; 810  :         _Deallocate<_New_alignof<_Ty>>(_Ptr, sizeof(_Ty) * _Count);

  0004c	83 c4 08	 add	 esp, 8
; File C:\Program Files (x86)\Microsoft Visual Studio\2019\Community\VC\Tools\MSVC\14.28.29333\include\vector

; 1699 :             _Mylast  = pointer();

  0004f	c7 47 14 00 00
	00 00		 mov	 DWORD PTR [edi+20], 0

; 1700 :             _Myend   = pointer();

  00056	c7 47 18 00 00
	00 00		 mov	 DWORD PTR [edi+24], 0
$LN27@CDynamicPo:

; 1694 :         if (_Myfirst) { // destroy and deallocate old array

  0005d	8b 4f 04	 mov	 ecx, DWORD PTR [edi+4]
  00060	85 c9		 test	 ecx, ecx
  00062	74 27		 je	 SHORT $LN34@CDynamicPo

; 1695 :             _Destroy(_Myfirst, _Mylast);
; 1696 :             _Getal().deallocate(_Myfirst, static_cast<size_type>(_Myend - _Myfirst));

  00064	8b 47 0c	 mov	 eax, DWORD PTR [edi+12]
  00067	2b c1		 sub	 eax, ecx
; File C:\Program Files (x86)\Microsoft Visual Studio\2019\Community\VC\Tools\MSVC\14.28.29333\include\xmemory

; 810  :         _Deallocate<_New_alignof<_Ty>>(_Ptr, sizeof(_Ty) * _Count);

  00069	83 e0 fc	 and	 eax, -4			; fffffffcH
  0006c	50		 push	 eax
  0006d	51		 push	 ecx
  0006e	e8 00 00 00 00	 call	 ??$_Deallocate@$07$0A@@std@@YAXPAXI@Z ; std::_Deallocate<8,0>
; File C:\Program Files (x86)\Microsoft Visual Studio\2019\Community\VC\Tools\MSVC\14.28.29333\include\vector

; 1698 :             _Myfirst = pointer();

  00073	c7 47 04 00 00
	00 00		 mov	 DWORD PTR [edi+4], 0
; File C:\Program Files (x86)\Microsoft Visual Studio\2019\Community\VC\Tools\MSVC\14.28.29333\include\xmemory

; 810  :         _Deallocate<_New_alignof<_Ty>>(_Ptr, sizeof(_Ty) * _Count);

  0007a	83 c4 08	 add	 esp, 8
; File C:\Program Files (x86)\Microsoft Visual Studio\2019\Community\VC\Tools\MSVC\14.28.29333\include\vector

; 1699 :             _Mylast  = pointer();

  0007d	c7 47 08 00 00
	00 00		 mov	 DWORD PTR [edi+8], 0

; 1700 :             _Myend   = pointer();

  00084	c7 47 0c 00 00
	00 00		 mov	 DWORD PTR [edi+12], 0
$LN34@CDynamicPo:
  0008b	5f		 pop	 edi
; File D:\Metin2 Server Files\mainline\SRC_2014\Metin2Client\eterLib\Pool.h

; 142  : 		}

  0008c	5e		 pop	 esi
  0008d	5b		 pop	 ebx
  0008e	c3		 ret	 0
??1?$CDynamicPoolEx@VCHeaderDecorator@NEffectUpdateDecorator@@@@UAE@XZ ENDP ; CDynamicPoolEx<NEffectUpdateDecorator::CHeaderDecorator>::~CDynamicPoolEx<NEffectUpdateDecorator::CHeaderDecorator>
_TEXT	ENDS
; Function compile flags: /Ogtp
;	COMDAT ??_G?$CDynamicPoolEx@VCNullDecorator@NEffectUpdateDecorator@@@@UAEPAXI@Z
_TEXT	SEGMENT
___flags$ = 8						; size = 4
??_G?$CDynamicPoolEx@VCNullDecorator@NEffectUpdateDecorator@@@@UAEPAXI@Z PROC ; CDynamicPoolEx<NEffectUpdateDecorator::CNullDecorator>::`scalar deleting destructor', COMDAT
; _this$ = ecx
  00000	55		 push	 ebp
  00001	8b ec		 mov	 ebp, esp
  00003	56		 push	 esi
  00004	8b f1		 mov	 esi, ecx
  00006	e8 00 00 00 00	 call	 ??1?$CDynamicPoolEx@VCNullDecorator@NEffectUpdateDecorator@@@@UAE@XZ ; CDynamicPoolEx<NEffectUpdateDecorator::CNullDecorator>::~CDynamicPoolEx<NEffectUpdateDecorator::CNullDecorator>
  0000b	f6 45 08 01	 test	 BYTE PTR ___flags$[ebp], 1
  0000f	74 0b		 je	 SHORT $LN4@scalar
  00011	6a 24		 push	 36			; 00000024H
  00013	56		 push	 esi
  00014	e8 00 00 00 00	 call	 ??3@YAXPAXI@Z		; operator delete
  00019	83 c4 08	 add	 esp, 8
$LN4@scalar:
  0001c	8b c6		 mov	 eax, esi
  0001e	5e		 pop	 esi
  0001f	5d		 pop	 ebp
  00020	c2 04 00	 ret	 4
??_G?$CDynamicPoolEx@VCNullDecorator@NEffectUpdateDecorator@@@@UAEPAXI@Z ENDP ; CDynamicPoolEx<NEffectUpdateDecorator::CNullDecorator>::`scalar deleting destructor'
_TEXT	ENDS
; Function compile flags: /Ogtp
; File D:\Metin2 Server Files\mainline\SRC_2014\Metin2Client\eterLib\Pool.h
;	COMDAT ?Delete@?$CDynamicPoolEx@VCNullDecorator@NEffectUpdateDecorator@@@@KAXPAVCNullDecorator@NEffectUpdateDecorator@@@Z
_TEXT	SEGMENT
_pkData$ = 8						; size = 4
?Delete@?$CDynamicPoolEx@VCNullDecorator@NEffectUpdateDecorator@@@@KAXPAVCNullDecorator@NEffectUpdateDecorator@@@Z PROC ; CDynamicPoolEx<NEffectUpdateDecorator::CNullDecorator>::Delete, COMDAT

; 224  : 			::operator delete(pkData);

  00000	e9 00 00 00 00	 jmp	 ??3@YAXPAX@Z		; operator delete
?Delete@?$CDynamicPoolEx@VCNullDecorator@NEffectUpdateDecorator@@@@KAXPAVCNullDecorator@NEffectUpdateDecorator@@@Z ENDP ; CDynamicPoolEx<NEffectUpdateDecorator::CNullDecorator>::Delete
_TEXT	ENDS
; Function compile flags: /Ogtp
; File D:\Metin2 Server Files\mainline\SRC_2014\Metin2Client\eterLib\Pool.h
; File C:\Program Files (x86)\Microsoft Visual Studio\2019\Community\VC\Tools\MSVC\14.28.29333\include\vector
; File C:\Program Files (x86)\Microsoft Visual Studio\2019\Community\VC\Tools\MSVC\14.28.29333\include\algorithm
; File D:\Metin2 Server Files\mainline\SRC_2014\Metin2Client\eterLib\Pool.h
; File C:\Program Files (x86)\Microsoft Visual Studio\2019\Community\VC\Tools\MSVC\14.28.29333\include\algorithm
; File D:\Metin2 Server Files\mainline\SRC_2014\Metin2Client\eterLib\Pool.h
; File C:\Program Files (x86)\Microsoft Visual Studio\2019\Community\VC\Tools\MSVC\14.28.29333\include\algorithm
; File D:\Metin2 Server Files\mainline\SRC_2014\Metin2Client\eterLib\Pool.h
; File C:\Program Files (x86)\Microsoft Visual Studio\2019\Community\VC\Tools\MSVC\14.28.29333\include\vector
; File C:\Program Files (x86)\Microsoft Visual Studio\2019\Community\VC\Tools\MSVC\14.28.29333\include\xmemory
; File C:\Program Files (x86)\Microsoft Visual Studio\2019\Community\VC\Tools\MSVC\14.28.29333\include\vector
; File C:\Program Files (x86)\Microsoft Visual Studio\2019\Community\VC\Tools\MSVC\14.28.29333\include\xmemory
; File C:\Program Files (x86)\Microsoft Visual Studio\2019\Community\VC\Tools\MSVC\14.28.29333\include\vector
; File C:\Program Files (x86)\Microsoft Visual Studio\2019\Community\VC\Tools\MSVC\14.28.29333\include\xmemory
; File C:\Program Files (x86)\Microsoft Visual Studio\2019\Community\VC\Tools\MSVC\14.28.29333\include\vector
; File C:\Program Files (x86)\Microsoft Visual Studio\2019\Community\VC\Tools\MSVC\14.28.29333\include\xmemory
; File C:\Program Files (x86)\Microsoft Visual Studio\2019\Community\VC\Tools\MSVC\14.28.29333\include\vector
; File D:\Metin2 Server Files\mainline\SRC_2014\Metin2Client\eterLib\Pool.h
;	COMDAT ??1?$CDynamicPoolEx@VCNullDecorator@NEffectUpdateDecorator@@@@UAE@XZ
_TEXT	SEGMENT
??1?$CDynamicPoolEx@VCNullDecorator@NEffectUpdateDecorator@@@@UAE@XZ PROC ; CDynamicPoolEx<NEffectUpdateDecorator::CNullDecorator>::~CDynamicPoolEx<NEffectUpdateDecorator::CNullDecorator>, COMDAT
; _this$ = ecx

; 132  : 		{

  00000	53		 push	 ebx
  00001	56		 push	 esi
  00002	57		 push	 edi
  00003	8b f9		 mov	 edi, ecx
  00005	c7 07 00 00 00
	00		 mov	 DWORD PTR [edi], OFFSET ??_7?$CDynamicPoolEx@VCNullDecorator@NEffectUpdateDecorator@@@@6B@
; File C:\Program Files (x86)\Microsoft Visual Studio\2019\Community\VC\Tools\MSVC\14.28.29333\include\vector

; 42   :     _Vector_const_iterator(_Tptr _Parg, const _Container_base* _Pvector) noexcept : _Ptr(_Parg) {

  0000b	8b 5f 08	 mov	 ebx, DWORD PTR [edi+8]
  0000e	8b 77 04	 mov	 esi, DWORD PTR [edi+4]
; File C:\Program Files (x86)\Microsoft Visual Studio\2019\Community\VC\Tools\MSVC\14.28.29333\include\algorithm

; 307  :     for (; _UFirst != _ULast; ++_UFirst) {

  00011	3b f3		 cmp	 esi, ebx
  00013	74 14		 je	 SHORT $LN19@CDynamicPo
$LL20@CDynamicPo:
; File D:\Metin2 Server Files\mainline\SRC_2014\Metin2Client\eterLib\Pool.h

; 224  : 			::operator delete(pkData);

  00015	ff 36		 push	 DWORD PTR [esi]
  00017	e8 00 00 00 00	 call	 ??3@YAXPAX@Z		; operator delete
; File C:\Program Files (x86)\Microsoft Visual Studio\2019\Community\VC\Tools\MSVC\14.28.29333\include\algorithm

; 307  :     for (; _UFirst != _ULast; ++_UFirst) {

  0001c	83 c6 04	 add	 esi, 4
; File D:\Metin2 Server Files\mainline\SRC_2014\Metin2Client\eterLib\Pool.h

; 224  : 			::operator delete(pkData);

  0001f	83 c4 04	 add	 esp, 4
; File C:\Program Files (x86)\Microsoft Visual Studio\2019\Community\VC\Tools\MSVC\14.28.29333\include\algorithm

; 307  :     for (; _UFirst != _ULast; ++_UFirst) {

  00022	3b f3		 cmp	 esi, ebx
  00024	75 ef		 jne	 SHORT $LL20@CDynamicPo
  00026	8b 77 04	 mov	 esi, DWORD PTR [edi+4]
$LN19@CDynamicPo:
; File D:\Metin2 Server Files\mainline\SRC_2014\Metin2Client\eterLib\Pool.h

; 162  : 			m_kVct_pkFree.clear();

  00029	8b 4f 10	 mov	 ecx, DWORD PTR [edi+16]
  0002c	89 77 08	 mov	 DWORD PTR [edi+8], esi
  0002f	89 4f 14	 mov	 DWORD PTR [edi+20], ecx
; File C:\Program Files (x86)\Microsoft Visual Studio\2019\Community\VC\Tools\MSVC\14.28.29333\include\vector

; 1694 :         if (_Myfirst) { // destroy and deallocate old array

  00032	85 c9		 test	 ecx, ecx
  00034	74 27		 je	 SHORT $LN27@CDynamicPo

; 1695 :             _Destroy(_Myfirst, _Mylast);
; 1696 :             _Getal().deallocate(_Myfirst, static_cast<size_type>(_Myend - _Myfirst));

  00036	8b 47 18	 mov	 eax, DWORD PTR [edi+24]
  00039	2b c1		 sub	 eax, ecx
; File C:\Program Files (x86)\Microsoft Visual Studio\2019\Community\VC\Tools\MSVC\14.28.29333\include\xmemory

; 810  :         _Deallocate<_New_alignof<_Ty>>(_Ptr, sizeof(_Ty) * _Count);

  0003b	83 e0 fc	 and	 eax, -4			; fffffffcH
  0003e	50		 push	 eax
  0003f	51		 push	 ecx
  00040	e8 00 00 00 00	 call	 ??$_Deallocate@$07$0A@@std@@YAXPAXI@Z ; std::_Deallocate<8,0>
; File C:\Program Files (x86)\Microsoft Visual Studio\2019\Community\VC\Tools\MSVC\14.28.29333\include\vector

; 1698 :             _Myfirst = pointer();

  00045	c7 47 10 00 00
	00 00		 mov	 DWORD PTR [edi+16], 0
; File C:\Program Files (x86)\Microsoft Visual Studio\2019\Community\VC\Tools\MSVC\14.28.29333\include\xmemory

; 810  :         _Deallocate<_New_alignof<_Ty>>(_Ptr, sizeof(_Ty) * _Count);

  0004c	83 c4 08	 add	 esp, 8
; File C:\Program Files (x86)\Microsoft Visual Studio\2019\Community\VC\Tools\MSVC\14.28.29333\include\vector

; 1699 :             _Mylast  = pointer();

  0004f	c7 47 14 00 00
	00 00		 mov	 DWORD PTR [edi+20], 0

; 1700 :             _Myend   = pointer();

  00056	c7 47 18 00 00
	00 00		 mov	 DWORD PTR [edi+24], 0
$LN27@CDynamicPo:

; 1694 :         if (_Myfirst) { // destroy and deallocate old array

  0005d	8b 4f 04	 mov	 ecx, DWORD PTR [edi+4]
  00060	85 c9		 test	 ecx, ecx
  00062	74 27		 je	 SHORT $LN34@CDynamicPo

; 1695 :             _Destroy(_Myfirst, _Mylast);
; 1696 :             _Getal().deallocate(_Myfirst, static_cast<size_type>(_Myend - _Myfirst));

  00064	8b 47 0c	 mov	 eax, DWORD PTR [edi+12]
  00067	2b c1		 sub	 eax, ecx
; File C:\Program Files (x86)\Microsoft Visual Studio\2019\Community\VC\Tools\MSVC\14.28.29333\include\xmemory

; 810  :         _Deallocate<_New_alignof<_Ty>>(_Ptr, sizeof(_Ty) * _Count);

  00069	83 e0 fc	 and	 eax, -4			; fffffffcH
  0006c	50		 push	 eax
  0006d	51		 push	 ecx
  0006e	e8 00 00 00 00	 call	 ??$_Deallocate@$07$0A@@std@@YAXPAXI@Z ; std::_Deallocate<8,0>
; File C:\Program Files (x86)\Microsoft Visual Studio\2019\Community\VC\Tools\MSVC\14.28.29333\include\vector

; 1698 :             _Myfirst = pointer();

  00073	c7 47 04 00 00
	00 00		 mov	 DWORD PTR [edi+4], 0
; File C:\Program Files (x86)\Microsoft Visual Studio\2019\Community\VC\Tools\MSVC\14.28.29333\include\xmemory

; 810  :         _Deallocate<_New_alignof<_Ty>>(_Ptr, sizeof(_Ty) * _Count);

  0007a	83 c4 08	 add	 esp, 8
; File C:\Program Files (x86)\Microsoft Visual Studio\2019\Community\VC\Tools\MSVC\14.28.29333\include\vector

; 1699 :             _Mylast  = pointer();

  0007d	c7 47 08 00 00
	00 00		 mov	 DWORD PTR [edi+8], 0

; 1700 :             _Myend   = pointer();

  00084	c7 47 0c 00 00
	00 00		 mov	 DWORD PTR [edi+12], 0
$LN34@CDynamicPo:
  0008b	5f		 pop	 edi
; File D:\Metin2 Server Files\mainline\SRC_2014\Metin2Client\eterLib\Pool.h

; 142  : 		}

  0008c	5e		 pop	 esi
  0008d	5b		 pop	 ebx
  0008e	c3		 ret	 0
??1?$CDynamicPoolEx@VCNullDecorator@NEffectUpdateDecorator@@@@UAE@XZ ENDP ; CDynamicPoolEx<NEffectUpdateDecorator::CNullDecorator>::~CDynamicPoolEx<NEffectUpdateDecorator::CNullDecorator>
_TEXT	ENDS
; Function compile flags: /Ogtp
;	COMDAT ??_G?$CDynamicPoolEx@VCTextureAnimationCWDecorator@NEffectUpdateDecorator@@@@UAEPAXI@Z
_TEXT	SEGMENT
___flags$ = 8						; size = 4
??_G?$CDynamicPoolEx@VCTextureAnimationCWDecorator@NEffectUpdateDecorator@@@@UAEPAXI@Z PROC ; CDynamicPoolEx<NEffectUpdateDecorator::CTextureAnimationCWDecorator>::`scalar deleting destructor', COMDAT
; _this$ = ecx
  00000	55		 push	 ebp
  00001	8b ec		 mov	 ebp, esp
  00003	56		 push	 esi
  00004	8b f1		 mov	 esi, ecx
  00006	e8 00 00 00 00	 call	 ??1?$CDynamicPoolEx@VCTextureAnimationCWDecorator@NEffectUpdateDecorator@@@@UAE@XZ ; CDynamicPoolEx<NEffectUpdateDecorator::CTextureAnimationCWDecorator>::~CDynamicPoolEx<NEffectUpdateDecorator::CTextureAnimationCWDecorator>
  0000b	f6 45 08 01	 test	 BYTE PTR ___flags$[ebp], 1
  0000f	74 0b		 je	 SHORT $LN4@scalar
  00011	6a 24		 push	 36			; 00000024H
  00013	56		 push	 esi
  00014	e8 00 00 00 00	 call	 ??3@YAXPAXI@Z		; operator delete
  00019	83 c4 08	 add	 esp, 8
$LN4@scalar:
  0001c	8b c6		 mov	 eax, esi
  0001e	5e		 pop	 esi
  0001f	5d		 pop	 ebp
  00020	c2 04 00	 ret	 4
??_G?$CDynamicPoolEx@VCTextureAnimationCWDecorator@NEffectUpdateDecorator@@@@UAEPAXI@Z ENDP ; CDynamicPoolEx<NEffectUpdateDecorator::CTextureAnimationCWDecorator>::`scalar deleting destructor'
_TEXT	ENDS
; Function compile flags: /Ogtp
; File D:\Metin2 Server Files\mainline\SRC_2014\Metin2Client\eterLib\Pool.h
;	COMDAT ?Delete@?$CDynamicPoolEx@VCTextureAnimationCWDecorator@NEffectUpdateDecorator@@@@KAXPAVCTextureAnimationCWDecorator@NEffectUpdateDecorator@@@Z
_TEXT	SEGMENT
_pkData$ = 8						; size = 4
?Delete@?$CDynamicPoolEx@VCTextureAnimationCWDecorator@NEffectUpdateDecorator@@@@KAXPAVCTextureAnimationCWDecorator@NEffectUpdateDecorator@@@Z PROC ; CDynamicPoolEx<NEffectUpdateDecorator::CTextureAnimationCWDecorator>::Delete, COMDAT

; 224  : 			::operator delete(pkData);

  00000	e9 00 00 00 00	 jmp	 ??3@YAXPAX@Z		; operator delete
?Delete@?$CDynamicPoolEx@VCTextureAnimationCWDecorator@NEffectUpdateDecorator@@@@KAXPAVCTextureAnimationCWDecorator@NEffectUpdateDecorator@@@Z ENDP ; CDynamicPoolEx<NEffectUpdateDecorator::CTextureAnimationCWDecorator>::Delete
_TEXT	ENDS
; Function compile flags: /Ogtp
; File D:\Metin2 Server Files\mainline\SRC_2014\Metin2Client\eterLib\Pool.h
; File C:\Program Files (x86)\Microsoft Visual Studio\2019\Community\VC\Tools\MSVC\14.28.29333\include\vector
; File C:\Program Files (x86)\Microsoft Visual Studio\2019\Community\VC\Tools\MSVC\14.28.29333\include\algorithm
; File D:\Metin2 Server Files\mainline\SRC_2014\Metin2Client\eterLib\Pool.h
; File C:\Program Files (x86)\Microsoft Visual Studio\2019\Community\VC\Tools\MSVC\14.28.29333\include\algorithm
; File D:\Metin2 Server Files\mainline\SRC_2014\Metin2Client\eterLib\Pool.h
; File C:\Program Files (x86)\Microsoft Visual Studio\2019\Community\VC\Tools\MSVC\14.28.29333\include\algorithm
; File D:\Metin2 Server Files\mainline\SRC_2014\Metin2Client\eterLib\Pool.h
; File C:\Program Files (x86)\Microsoft Visual Studio\2019\Community\VC\Tools\MSVC\14.28.29333\include\vector
; File C:\Program Files (x86)\Microsoft Visual Studio\2019\Community\VC\Tools\MSVC\14.28.29333\include\xmemory
; File C:\Program Files (x86)\Microsoft Visual Studio\2019\Community\VC\Tools\MSVC\14.28.29333\include\vector
; File C:\Program Files (x86)\Microsoft Visual Studio\2019\Community\VC\Tools\MSVC\14.28.29333\include\xmemory
; File C:\Program Files (x86)\Microsoft Visual Studio\2019\Community\VC\Tools\MSVC\14.28.29333\include\vector
; File C:\Program Files (x86)\Microsoft Visual Studio\2019\Community\VC\Tools\MSVC\14.28.29333\include\xmemory
; File C:\Program Files (x86)\Microsoft Visual Studio\2019\Community\VC\Tools\MSVC\14.28.29333\include\vector
; File C:\Program Files (x86)\Microsoft Visual Studio\2019\Community\VC\Tools\MSVC\14.28.29333\include\xmemory
; File C:\Program Files (x86)\Microsoft Visual Studio\2019\Community\VC\Tools\MSVC\14.28.29333\include\vector
; File D:\Metin2 Server Files\mainline\SRC_2014\Metin2Client\eterLib\Pool.h
;	COMDAT ??1?$CDynamicPoolEx@VCTextureAnimationCWDecorator@NEffectUpdateDecorator@@@@UAE@XZ
_TEXT	SEGMENT
??1?$CDynamicPoolEx@VCTextureAnimationCWDecorator@NEffectUpdateDecorator@@@@UAE@XZ PROC ; CDynamicPoolEx<NEffectUpdateDecorator::CTextureAnimationCWDecorator>::~CDynamicPoolEx<NEffectUpdateDecorator::CTextureAnimationCWDecorator>, COMDAT
; _this$ = ecx

; 132  : 		{

  00000	53		 push	 ebx
  00001	56		 push	 esi
  00002	57		 push	 edi
  00003	8b f9		 mov	 edi, ecx
  00005	c7 07 00 00 00
	00		 mov	 DWORD PTR [edi], OFFSET ??_7?$CDynamicPoolEx@VCTextureAnimationCWDecorator@NEffectUpdateDecorator@@@@6B@
; File C:\Program Files (x86)\Microsoft Visual Studio\2019\Community\VC\Tools\MSVC\14.28.29333\include\vector

; 42   :     _Vector_const_iterator(_Tptr _Parg, const _Container_base* _Pvector) noexcept : _Ptr(_Parg) {

  0000b	8b 5f 08	 mov	 ebx, DWORD PTR [edi+8]
  0000e	8b 77 04	 mov	 esi, DWORD PTR [edi+4]
; File C:\Program Files (x86)\Microsoft Visual Studio\2019\Community\VC\Tools\MSVC\14.28.29333\include\algorithm

; 307  :     for (; _UFirst != _ULast; ++_UFirst) {

  00011	3b f3		 cmp	 esi, ebx
  00013	74 14		 je	 SHORT $LN19@CDynamicPo
$LL20@CDynamicPo:
; File D:\Metin2 Server Files\mainline\SRC_2014\Metin2Client\eterLib\Pool.h

; 224  : 			::operator delete(pkData);

  00015	ff 36		 push	 DWORD PTR [esi]
  00017	e8 00 00 00 00	 call	 ??3@YAXPAX@Z		; operator delete
; File C:\Program Files (x86)\Microsoft Visual Studio\2019\Community\VC\Tools\MSVC\14.28.29333\include\algorithm

; 307  :     for (; _UFirst != _ULast; ++_UFirst) {

  0001c	83 c6 04	 add	 esi, 4
; File D:\Metin2 Server Files\mainline\SRC_2014\Metin2Client\eterLib\Pool.h

; 224  : 			::operator delete(pkData);

  0001f	83 c4 04	 add	 esp, 4
; File C:\Program Files (x86)\Microsoft Visual Studio\2019\Community\VC\Tools\MSVC\14.28.29333\include\algorithm

; 307  :     for (; _UFirst != _ULast; ++_UFirst) {

  00022	3b f3		 cmp	 esi, ebx
  00024	75 ef		 jne	 SHORT $LL20@CDynamicPo
  00026	8b 77 04	 mov	 esi, DWORD PTR [edi+4]
$LN19@CDynamicPo:
; File D:\Metin2 Server Files\mainline\SRC_2014\Metin2Client\eterLib\Pool.h

; 162  : 			m_kVct_pkFree.clear();

  00029	8b 4f 10	 mov	 ecx, DWORD PTR [edi+16]
  0002c	89 77 08	 mov	 DWORD PTR [edi+8], esi
  0002f	89 4f 14	 mov	 DWORD PTR [edi+20], ecx
; File C:\Program Files (x86)\Microsoft Visual Studio\2019\Community\VC\Tools\MSVC\14.28.29333\include\vector

; 1694 :         if (_Myfirst) { // destroy and deallocate old array

  00032	85 c9		 test	 ecx, ecx
  00034	74 27		 je	 SHORT $LN27@CDynamicPo

; 1695 :             _Destroy(_Myfirst, _Mylast);
; 1696 :             _Getal().deallocate(_Myfirst, static_cast<size_type>(_Myend - _Myfirst));

  00036	8b 47 18	 mov	 eax, DWORD PTR [edi+24]
  00039	2b c1		 sub	 eax, ecx
; File C:\Program Files (x86)\Microsoft Visual Studio\2019\Community\VC\Tools\MSVC\14.28.29333\include\xmemory

; 810  :         _Deallocate<_New_alignof<_Ty>>(_Ptr, sizeof(_Ty) * _Count);

  0003b	83 e0 fc	 and	 eax, -4			; fffffffcH
  0003e	50		 push	 eax
  0003f	51		 push	 ecx
  00040	e8 00 00 00 00	 call	 ??$_Deallocate@$07$0A@@std@@YAXPAXI@Z ; std::_Deallocate<8,0>
; File C:\Program Files (x86)\Microsoft Visual Studio\2019\Community\VC\Tools\MSVC\14.28.29333\include\vector

; 1698 :             _Myfirst = pointer();

  00045	c7 47 10 00 00
	00 00		 mov	 DWORD PTR [edi+16], 0
; File C:\Program Files (x86)\Microsoft Visual Studio\2019\Community\VC\Tools\MSVC\14.28.29333\include\xmemory

; 810  :         _Deallocate<_New_alignof<_Ty>>(_Ptr, sizeof(_Ty) * _Count);

  0004c	83 c4 08	 add	 esp, 8
; File C:\Program Files (x86)\Microsoft Visual Studio\2019\Community\VC\Tools\MSVC\14.28.29333\include\vector

; 1699 :             _Mylast  = pointer();

  0004f	c7 47 14 00 00
	00 00		 mov	 DWORD PTR [edi+20], 0

; 1700 :             _Myend   = pointer();

  00056	c7 47 18 00 00
	00 00		 mov	 DWORD PTR [edi+24], 0
$LN27@CDynamicPo:

; 1694 :         if (_Myfirst) { // destroy and deallocate old array

  0005d	8b 4f 04	 mov	 ecx, DWORD PTR [edi+4]
  00060	85 c9		 test	 ecx, ecx
  00062	74 27		 je	 SHORT $LN34@CDynamicPo

; 1695 :             _Destroy(_Myfirst, _Mylast);
; 1696 :             _Getal().deallocate(_Myfirst, static_cast<size_type>(_Myend - _Myfirst));

  00064	8b 47 0c	 mov	 eax, DWORD PTR [edi+12]
  00067	2b c1		 sub	 eax, ecx
; File C:\Program Files (x86)\Microsoft Visual Studio\2019\Community\VC\Tools\MSVC\14.28.29333\include\xmemory

; 810  :         _Deallocate<_New_alignof<_Ty>>(_Ptr, sizeof(_Ty) * _Count);

  00069	83 e0 fc	 and	 eax, -4			; fffffffcH
  0006c	50		 push	 eax
  0006d	51		 push	 ecx
  0006e	e8 00 00 00 00	 call	 ??$_Deallocate@$07$0A@@std@@YAXPAXI@Z ; std::_Deallocate<8,0>
; File C:\Program Files (x86)\Microsoft Visual Studio\2019\Community\VC\Tools\MSVC\14.28.29333\include\vector

; 1698 :             _Myfirst = pointer();

  00073	c7 47 04 00 00
	00 00		 mov	 DWORD PTR [edi+4], 0
; File C:\Program Files (x86)\Microsoft Visual Studio\2019\Community\VC\Tools\MSVC\14.28.29333\include\xmemory

; 810  :         _Deallocate<_New_alignof<_Ty>>(_Ptr, sizeof(_Ty) * _Count);

  0007a	83 c4 08	 add	 esp, 8
; File C:\Program Files (x86)\Microsoft Visual Studio\2019\Community\VC\Tools\MSVC\14.28.29333\include\vector

; 1699 :             _Mylast  = pointer();

  0007d	c7 47 08 00 00
	00 00		 mov	 DWORD PTR [edi+8], 0

; 1700 :             _Myend   = pointer();

  00084	c7 47 0c 00 00
	00 00		 mov	 DWORD PTR [edi+12], 0
$LN34@CDynamicPo:
  0008b	5f		 pop	 edi
; File D:\Metin2 Server Files\mainline\SRC_2014\Metin2Client\eterLib\Pool.h

; 142  : 		}

  0008c	5e		 pop	 esi
  0008d	5b		 pop	 ebx
  0008e	c3		 ret	 0
??1?$CDynamicPoolEx@VCTextureAnimationCWDecorator@NEffectUpdateDecorator@@@@UAE@XZ ENDP ; CDynamicPoolEx<NEffectUpdateDecorator::CTextureAnimationCWDecorator>::~CDynamicPoolEx<NEffectUpdateDecorator::CTextureAnimationCWDecorator>
_TEXT	ENDS
; Function compile flags: /Ogtp
;	COMDAT ??_G?$CDynamicPoolEx@VCTextureAnimationCCWDecorator@NEffectUpdateDecorator@@@@UAEPAXI@Z
_TEXT	SEGMENT
___flags$ = 8						; size = 4
??_G?$CDynamicPoolEx@VCTextureAnimationCCWDecorator@NEffectUpdateDecorator@@@@UAEPAXI@Z PROC ; CDynamicPoolEx<NEffectUpdateDecorator::CTextureAnimationCCWDecorator>::`scalar deleting destructor', COMDAT
; _this$ = ecx
  00000	55		 push	 ebp
  00001	8b ec		 mov	 ebp, esp
  00003	56		 push	 esi
  00004	8b f1		 mov	 esi, ecx
  00006	e8 00 00 00 00	 call	 ??1?$CDynamicPoolEx@VCTextureAnimationCCWDecorator@NEffectUpdateDecorator@@@@UAE@XZ ; CDynamicPoolEx<NEffectUpdateDecorator::CTextureAnimationCCWDecorator>::~CDynamicPoolEx<NEffectUpdateDecorator::CTextureAnimationCCWDecorator>
  0000b	f6 45 08 01	 test	 BYTE PTR ___flags$[ebp], 1
  0000f	74 0b		 je	 SHORT $LN4@scalar
  00011	6a 24		 push	 36			; 00000024H
  00013	56		 push	 esi
  00014	e8 00 00 00 00	 call	 ??3@YAXPAXI@Z		; operator delete
  00019	83 c4 08	 add	 esp, 8
$LN4@scalar:
  0001c	8b c6		 mov	 eax, esi
  0001e	5e		 pop	 esi
  0001f	5d		 pop	 ebp
  00020	c2 04 00	 ret	 4
??_G?$CDynamicPoolEx@VCTextureAnimationCCWDecorator@NEffectUpdateDecorator@@@@UAEPAXI@Z ENDP ; CDynamicPoolEx<NEffectUpdateDecorator::CTextureAnimationCCWDecorator>::`scalar deleting destructor'
_TEXT	ENDS
; Function compile flags: /Ogtp
; File D:\Metin2 Server Files\mainline\SRC_2014\Metin2Client\eterLib\Pool.h
;	COMDAT ?Delete@?$CDynamicPoolEx@VCTextureAnimationCCWDecorator@NEffectUpdateDecorator@@@@KAXPAVCTextureAnimationCCWDecorator@NEffectUpdateDecorator@@@Z
_TEXT	SEGMENT
_pkData$ = 8						; size = 4
?Delete@?$CDynamicPoolEx@VCTextureAnimationCCWDecorator@NEffectUpdateDecorator@@@@KAXPAVCTextureAnimationCCWDecorator@NEffectUpdateDecorator@@@Z PROC ; CDynamicPoolEx<NEffectUpdateDecorator::CTextureAnimationCCWDecorator>::Delete, COMDAT

; 224  : 			::operator delete(pkData);

  00000	e9 00 00 00 00	 jmp	 ??3@YAXPAX@Z		; operator delete
?Delete@?$CDynamicPoolEx@VCTextureAnimationCCWDecorator@NEffectUpdateDecorator@@@@KAXPAVCTextureAnimationCCWDecorator@NEffectUpdateDecorator@@@Z ENDP ; CDynamicPoolEx<NEffectUpdateDecorator::CTextureAnimationCCWDecorator>::Delete
_TEXT	ENDS
; Function compile flags: /Ogtp
; File D:\Metin2 Server Files\mainline\SRC_2014\Metin2Client\eterLib\Pool.h
; File C:\Program Files (x86)\Microsoft Visual Studio\2019\Community\VC\Tools\MSVC\14.28.29333\include\vector
; File C:\Program Files (x86)\Microsoft Visual Studio\2019\Community\VC\Tools\MSVC\14.28.29333\include\algorithm
; File D:\Metin2 Server Files\mainline\SRC_2014\Metin2Client\eterLib\Pool.h
; File C:\Program Files (x86)\Microsoft Visual Studio\2019\Community\VC\Tools\MSVC\14.28.29333\include\algorithm
; File D:\Metin2 Server Files\mainline\SRC_2014\Metin2Client\eterLib\Pool.h
; File C:\Program Files (x86)\Microsoft Visual Studio\2019\Community\VC\Tools\MSVC\14.28.29333\include\algorithm
; File D:\Metin2 Server Files\mainline\SRC_2014\Metin2Client\eterLib\Pool.h
; File C:\Program Files (x86)\Microsoft Visual Studio\2019\Community\VC\Tools\MSVC\14.28.29333\include\vector
; File C:\Program Files (x86)\Microsoft Visual Studio\2019\Community\VC\Tools\MSVC\14.28.29333\include\xmemory
; File C:\Program Files (x86)\Microsoft Visual Studio\2019\Community\VC\Tools\MSVC\14.28.29333\include\vector
; File C:\Program Files (x86)\Microsoft Visual Studio\2019\Community\VC\Tools\MSVC\14.28.29333\include\xmemory
; File C:\Program Files (x86)\Microsoft Visual Studio\2019\Community\VC\Tools\MSVC\14.28.29333\include\vector
; File C:\Program Files (x86)\Microsoft Visual Studio\2019\Community\VC\Tools\MSVC\14.28.29333\include\xmemory
; File C:\Program Files (x86)\Microsoft Visual Studio\2019\Community\VC\Tools\MSVC\14.28.29333\include\vector
; File C:\Program Files (x86)\Microsoft Visual Studio\2019\Community\VC\Tools\MSVC\14.28.29333\include\xmemory
; File C:\Program Files (x86)\Microsoft Visual Studio\2019\Community\VC\Tools\MSVC\14.28.29333\include\vector
; File D:\Metin2 Server Files\mainline\SRC_2014\Metin2Client\eterLib\Pool.h
;	COMDAT ??1?$CDynamicPoolEx@VCTextureAnimationCCWDecorator@NEffectUpdateDecorator@@@@UAE@XZ
_TEXT	SEGMENT
??1?$CDynamicPoolEx@VCTextureAnimationCCWDecorator@NEffectUpdateDecorator@@@@UAE@XZ PROC ; CDynamicPoolEx<NEffectUpdateDecorator::CTextureAnimationCCWDecorator>::~CDynamicPoolEx<NEffectUpdateDecorator::CTextureAnimationCCWDecorator>, COMDAT
; _this$ = ecx

; 132  : 		{

  00000	53		 push	 ebx
  00001	56		 push	 esi
  00002	57		 push	 edi
  00003	8b f9		 mov	 edi, ecx
  00005	c7 07 00 00 00
	00		 mov	 DWORD PTR [edi], OFFSET ??_7?$CDynamicPoolEx@VCTextureAnimationCCWDecorator@NEffectUpdateDecorator@@@@6B@
; File C:\Program Files (x86)\Microsoft Visual Studio\2019\Community\VC\Tools\MSVC\14.28.29333\include\vector

; 42   :     _Vector_const_iterator(_Tptr _Parg, const _Container_base* _Pvector) noexcept : _Ptr(_Parg) {

  0000b	8b 5f 08	 mov	 ebx, DWORD PTR [edi+8]
  0000e	8b 77 04	 mov	 esi, DWORD PTR [edi+4]
; File C:\Program Files (x86)\Microsoft Visual Studio\2019\Community\VC\Tools\MSVC\14.28.29333\include\algorithm

; 307  :     for (; _UFirst != _ULast; ++_UFirst) {

  00011	3b f3		 cmp	 esi, ebx
  00013	74 14		 je	 SHORT $LN19@CDynamicPo
$LL20@CDynamicPo:
; File D:\Metin2 Server Files\mainline\SRC_2014\Metin2Client\eterLib\Pool.h

; 224  : 			::operator delete(pkData);

  00015	ff 36		 push	 DWORD PTR [esi]
  00017	e8 00 00 00 00	 call	 ??3@YAXPAX@Z		; operator delete
; File C:\Program Files (x86)\Microsoft Visual Studio\2019\Community\VC\Tools\MSVC\14.28.29333\include\algorithm

; 307  :     for (; _UFirst != _ULast; ++_UFirst) {

  0001c	83 c6 04	 add	 esi, 4
; File D:\Metin2 Server Files\mainline\SRC_2014\Metin2Client\eterLib\Pool.h

; 224  : 			::operator delete(pkData);

  0001f	83 c4 04	 add	 esp, 4
; File C:\Program Files (x86)\Microsoft Visual Studio\2019\Community\VC\Tools\MSVC\14.28.29333\include\algorithm

; 307  :     for (; _UFirst != _ULast; ++_UFirst) {

  00022	3b f3		 cmp	 esi, ebx
  00024	75 ef		 jne	 SHORT $LL20@CDynamicPo
  00026	8b 77 04	 mov	 esi, DWORD PTR [edi+4]
$LN19@CDynamicPo:
; File D:\Metin2 Server Files\mainline\SRC_2014\Metin2Client\eterLib\Pool.h

; 162  : 			m_kVct_pkFree.clear();

  00029	8b 4f 10	 mov	 ecx, DWORD PTR [edi+16]
  0002c	89 77 08	 mov	 DWORD PTR [edi+8], esi
  0002f	89 4f 14	 mov	 DWORD PTR [edi+20], ecx
; File C:\Program Files (x86)\Microsoft Visual Studio\2019\Community\VC\Tools\MSVC\14.28.29333\include\vector

; 1694 :         if (_Myfirst) { // destroy and deallocate old array

  00032	85 c9		 test	 ecx, ecx
  00034	74 27		 je	 SHORT $LN27@CDynamicPo

; 1695 :             _Destroy(_Myfirst, _Mylast);
; 1696 :             _Getal().deallocate(_Myfirst, static_cast<size_type>(_Myend - _Myfirst));

  00036	8b 47 18	 mov	 eax, DWORD PTR [edi+24]
  00039	2b c1		 sub	 eax, ecx
; File C:\Program Files (x86)\Microsoft Visual Studio\2019\Community\VC\Tools\MSVC\14.28.29333\include\xmemory

; 810  :         _Deallocate<_New_alignof<_Ty>>(_Ptr, sizeof(_Ty) * _Count);

  0003b	83 e0 fc	 and	 eax, -4			; fffffffcH
  0003e	50		 push	 eax
  0003f	51		 push	 ecx
  00040	e8 00 00 00 00	 call	 ??$_Deallocate@$07$0A@@std@@YAXPAXI@Z ; std::_Deallocate<8,0>
; File C:\Program Files (x86)\Microsoft Visual Studio\2019\Community\VC\Tools\MSVC\14.28.29333\include\vector

; 1698 :             _Myfirst = pointer();

  00045	c7 47 10 00 00
	00 00		 mov	 DWORD PTR [edi+16], 0
; File C:\Program Files (x86)\Microsoft Visual Studio\2019\Community\VC\Tools\MSVC\14.28.29333\include\xmemory

; 810  :         _Deallocate<_New_alignof<_Ty>>(_Ptr, sizeof(_Ty) * _Count);

  0004c	83 c4 08	 add	 esp, 8
; File C:\Program Files (x86)\Microsoft Visual Studio\2019\Community\VC\Tools\MSVC\14.28.29333\include\vector

; 1699 :             _Mylast  = pointer();

  0004f	c7 47 14 00 00
	00 00		 mov	 DWORD PTR [edi+20], 0

; 1700 :             _Myend   = pointer();

  00056	c7 47 18 00 00
	00 00		 mov	 DWORD PTR [edi+24], 0
$LN27@CDynamicPo:

; 1694 :         if (_Myfirst) { // destroy and deallocate old array

  0005d	8b 4f 04	 mov	 ecx, DWORD PTR [edi+4]
  00060	85 c9		 test	 ecx, ecx
  00062	74 27		 je	 SHORT $LN34@CDynamicPo

; 1695 :             _Destroy(_Myfirst, _Mylast);
; 1696 :             _Getal().deallocate(_Myfirst, static_cast<size_type>(_Myend - _Myfirst));

  00064	8b 47 0c	 mov	 eax, DWORD PTR [edi+12]
  00067	2b c1		 sub	 eax, ecx
; File C:\Program Files (x86)\Microsoft Visual Studio\2019\Community\VC\Tools\MSVC\14.28.29333\include\xmemory

; 810  :         _Deallocate<_New_alignof<_Ty>>(_Ptr, sizeof(_Ty) * _Count);

  00069	83 e0 fc	 and	 eax, -4			; fffffffcH
  0006c	50		 push	 eax
  0006d	51		 push	 ecx
  0006e	e8 00 00 00 00	 call	 ??$_Deallocate@$07$0A@@std@@YAXPAXI@Z ; std::_Deallocate<8,0>
; File C:\Program Files (x86)\Microsoft Visual Studio\2019\Community\VC\Tools\MSVC\14.28.29333\include\vector

; 1698 :             _Myfirst = pointer();

  00073	c7 47 04 00 00
	00 00		 mov	 DWORD PTR [edi+4], 0
; File C:\Program Files (x86)\Microsoft Visual Studio\2019\Community\VC\Tools\MSVC\14.28.29333\include\xmemory

; 810  :         _Deallocate<_New_alignof<_Ty>>(_Ptr, sizeof(_Ty) * _Count);

  0007a	83 c4 08	 add	 esp, 8
; File C:\Program Files (x86)\Microsoft Visual Studio\2019\Community\VC\Tools\MSVC\14.28.29333\include\vector

; 1699 :             _Mylast  = pointer();

  0007d	c7 47 08 00 00
	00 00		 mov	 DWORD PTR [edi+8], 0

; 1700 :             _Myend   = pointer();

  00084	c7 47 0c 00 00
	00 00		 mov	 DWORD PTR [edi+12], 0
$LN34@CDynamicPo:
  0008b	5f		 pop	 edi
; File D:\Metin2 Server Files\mainline\SRC_2014\Metin2Client\eterLib\Pool.h

; 142  : 		}

  0008c	5e		 pop	 esi
  0008d	5b		 pop	 ebx
  0008e	c3		 ret	 0
??1?$CDynamicPoolEx@VCTextureAnimationCCWDecorator@NEffectUpdateDecorator@@@@UAE@XZ ENDP ; CDynamicPoolEx<NEffectUpdateDecorator::CTextureAnimationCCWDecorator>::~CDynamicPoolEx<NEffectUpdateDecorator::CTextureAnimationCCWDecorator>
_TEXT	ENDS
; Function compile flags: /Ogtp
;	COMDAT ??_G?$CDynamicPoolEx@VCTextureAnimationRandomDecorator@NEffectUpdateDecorator@@@@UAEPAXI@Z
_TEXT	SEGMENT
___flags$ = 8						; size = 4
??_G?$CDynamicPoolEx@VCTextureAnimationRandomDecorator@NEffectUpdateDecorator@@@@UAEPAXI@Z PROC ; CDynamicPoolEx<NEffectUpdateDecorator::CTextureAnimationRandomDecorator>::`scalar deleting destructor', COMDAT
; _this$ = ecx
  00000	55		 push	 ebp
  00001	8b ec		 mov	 ebp, esp
  00003	56		 push	 esi
  00004	8b f1		 mov	 esi, ecx
  00006	e8 00 00 00 00	 call	 ??1?$CDynamicPoolEx@VCTextureAnimationRandomDecorator@NEffectUpdateDecorator@@@@UAE@XZ ; CDynamicPoolEx<NEffectUpdateDecorator::CTextureAnimationRandomDecorator>::~CDynamicPoolEx<NEffectUpdateDecorator::CTextureAnimationRandomDecorator>
  0000b	f6 45 08 01	 test	 BYTE PTR ___flags$[ebp], 1
  0000f	74 0b		 je	 SHORT $LN4@scalar
  00011	6a 24		 push	 36			; 00000024H
  00013	56		 push	 esi
  00014	e8 00 00 00 00	 call	 ??3@YAXPAXI@Z		; operator delete
  00019	83 c4 08	 add	 esp, 8
$LN4@scalar:
  0001c	8b c6		 mov	 eax, esi
  0001e	5e		 pop	 esi
  0001f	5d		 pop	 ebp
  00020	c2 04 00	 ret	 4
??_G?$CDynamicPoolEx@VCTextureAnimationRandomDecorator@NEffectUpdateDecorator@@@@UAEPAXI@Z ENDP ; CDynamicPoolEx<NEffectUpdateDecorator::CTextureAnimationRandomDecorator>::`scalar deleting destructor'
_TEXT	ENDS
; Function compile flags: /Ogtp
; File D:\Metin2 Server Files\mainline\SRC_2014\Metin2Client\eterLib\Pool.h
;	COMDAT ?Delete@?$CDynamicPoolEx@VCTextureAnimationRandomDecorator@NEffectUpdateDecorator@@@@KAXPAVCTextureAnimationRandomDecorator@NEffectUpdateDecorator@@@Z
_TEXT	SEGMENT
_pkData$ = 8						; size = 4
?Delete@?$CDynamicPoolEx@VCTextureAnimationRandomDecorator@NEffectUpdateDecorator@@@@KAXPAVCTextureAnimationRandomDecorator@NEffectUpdateDecorator@@@Z PROC ; CDynamicPoolEx<NEffectUpdateDecorator::CTextureAnimationRandomDecorator>::Delete, COMDAT

; 224  : 			::operator delete(pkData);

  00000	e9 00 00 00 00	 jmp	 ??3@YAXPAX@Z		; operator delete
?Delete@?$CDynamicPoolEx@VCTextureAnimationRandomDecorator@NEffectUpdateDecorator@@@@KAXPAVCTextureAnimationRandomDecorator@NEffectUpdateDecorator@@@Z ENDP ; CDynamicPoolEx<NEffectUpdateDecorator::CTextureAnimationRandomDecorator>::Delete
_TEXT	ENDS
; Function compile flags: /Ogtp
; File D:\Metin2 Server Files\mainline\SRC_2014\Metin2Client\eterLib\Pool.h
; File C:\Program Files (x86)\Microsoft Visual Studio\2019\Community\VC\Tools\MSVC\14.28.29333\include\vector
; File C:\Program Files (x86)\Microsoft Visual Studio\2019\Community\VC\Tools\MSVC\14.28.29333\include\algorithm
; File D:\Metin2 Server Files\mainline\SRC_2014\Metin2Client\eterLib\Pool.h
; File C:\Program Files (x86)\Microsoft Visual Studio\2019\Community\VC\Tools\MSVC\14.28.29333\include\algorithm
; File D:\Metin2 Server Files\mainline\SRC_2014\Metin2Client\eterLib\Pool.h
; File C:\Program Files (x86)\Microsoft Visual Studio\2019\Community\VC\Tools\MSVC\14.28.29333\include\algorithm
; File D:\Metin2 Server Files\mainline\SRC_2014\Metin2Client\eterLib\Pool.h
; File C:\Program Files (x86)\Microsoft Visual Studio\2019\Community\VC\Tools\MSVC\14.28.29333\include\vector
; File C:\Program Files (x86)\Microsoft Visual Studio\2019\Community\VC\Tools\MSVC\14.28.29333\include\xmemory
; File C:\Program Files (x86)\Microsoft Visual Studio\2019\Community\VC\Tools\MSVC\14.28.29333\include\vector
; File C:\Program Files (x86)\Microsoft Visual Studio\2019\Community\VC\Tools\MSVC\14.28.29333\include\xmemory
; File C:\Program Files (x86)\Microsoft Visual Studio\2019\Community\VC\Tools\MSVC\14.28.29333\include\vector
; File C:\Program Files (x86)\Microsoft Visual Studio\2019\Community\VC\Tools\MSVC\14.28.29333\include\xmemory
; File C:\Program Files (x86)\Microsoft Visual Studio\2019\Community\VC\Tools\MSVC\14.28.29333\include\vector
; File C:\Program Files (x86)\Microsoft Visual Studio\2019\Community\VC\Tools\MSVC\14.28.29333\include\xmemory
; File C:\Program Files (x86)\Microsoft Visual Studio\2019\Community\VC\Tools\MSVC\14.28.29333\include\vector
; File D:\Metin2 Server Files\mainline\SRC_2014\Metin2Client\eterLib\Pool.h
;	COMDAT ??1?$CDynamicPoolEx@VCTextureAnimationRandomDecorator@NEffectUpdateDecorator@@@@UAE@XZ
_TEXT	SEGMENT
??1?$CDynamicPoolEx@VCTextureAnimationRandomDecorator@NEffectUpdateDecorator@@@@UAE@XZ PROC ; CDynamicPoolEx<NEffectUpdateDecorator::CTextureAnimationRandomDecorator>::~CDynamicPoolEx<NEffectUpdateDecorator::CTextureAnimationRandomDecorator>, COMDAT
; _this$ = ecx

; 132  : 		{

  00000	53		 push	 ebx
  00001	56		 push	 esi
  00002	57		 push	 edi
  00003	8b f9		 mov	 edi, ecx
  00005	c7 07 00 00 00
	00		 mov	 DWORD PTR [edi], OFFSET ??_7?$CDynamicPoolEx@VCTextureAnimationRandomDecorator@NEffectUpdateDecorator@@@@6B@
; File C:\Program Files (x86)\Microsoft Visual Studio\2019\Community\VC\Tools\MSVC\14.28.29333\include\vector

; 42   :     _Vector_const_iterator(_Tptr _Parg, const _Container_base* _Pvector) noexcept : _Ptr(_Parg) {

  0000b	8b 5f 08	 mov	 ebx, DWORD PTR [edi+8]
  0000e	8b 77 04	 mov	 esi, DWORD PTR [edi+4]
; File C:\Program Files (x86)\Microsoft Visual Studio\2019\Community\VC\Tools\MSVC\14.28.29333\include\algorithm

; 307  :     for (; _UFirst != _ULast; ++_UFirst) {

  00011	3b f3		 cmp	 esi, ebx
  00013	74 14		 je	 SHORT $LN19@CDynamicPo
$LL20@CDynamicPo:
; File D:\Metin2 Server Files\mainline\SRC_2014\Metin2Client\eterLib\Pool.h

; 224  : 			::operator delete(pkData);

  00015	ff 36		 push	 DWORD PTR [esi]
  00017	e8 00 00 00 00	 call	 ??3@YAXPAX@Z		; operator delete
; File C:\Program Files (x86)\Microsoft Visual Studio\2019\Community\VC\Tools\MSVC\14.28.29333\include\algorithm

; 307  :     for (; _UFirst != _ULast; ++_UFirst) {

  0001c	83 c6 04	 add	 esi, 4
; File D:\Metin2 Server Files\mainline\SRC_2014\Metin2Client\eterLib\Pool.h

; 224  : 			::operator delete(pkData);

  0001f	83 c4 04	 add	 esp, 4
; File C:\Program Files (x86)\Microsoft Visual Studio\2019\Community\VC\Tools\MSVC\14.28.29333\include\algorithm

; 307  :     for (; _UFirst != _ULast; ++_UFirst) {

  00022	3b f3		 cmp	 esi, ebx
  00024	75 ef		 jne	 SHORT $LL20@CDynamicPo
  00026	8b 77 04	 mov	 esi, DWORD PTR [edi+4]
$LN19@CDynamicPo:
; File D:\Metin2 Server Files\mainline\SRC_2014\Metin2Client\eterLib\Pool.h

; 162  : 			m_kVct_pkFree.clear();

  00029	8b 4f 10	 mov	 ecx, DWORD PTR [edi+16]
  0002c	89 77 08	 mov	 DWORD PTR [edi+8], esi
  0002f	89 4f 14	 mov	 DWORD PTR [edi+20], ecx
; File C:\Program Files (x86)\Microsoft Visual Studio\2019\Community\VC\Tools\MSVC\14.28.29333\include\vector

; 1694 :         if (_Myfirst) { // destroy and deallocate old array

  00032	85 c9		 test	 ecx, ecx
  00034	74 27		 je	 SHORT $LN27@CDynamicPo

; 1695 :             _Destroy(_Myfirst, _Mylast);
; 1696 :             _Getal().deallocate(_Myfirst, static_cast<size_type>(_Myend - _Myfirst));

  00036	8b 47 18	 mov	 eax, DWORD PTR [edi+24]
  00039	2b c1		 sub	 eax, ecx
; File C:\Program Files (x86)\Microsoft Visual Studio\2019\Community\VC\Tools\MSVC\14.28.29333\include\xmemory

; 810  :         _Deallocate<_New_alignof<_Ty>>(_Ptr, sizeof(_Ty) * _Count);

  0003b	83 e0 fc	 and	 eax, -4			; fffffffcH
  0003e	50		 push	 eax
  0003f	51		 push	 ecx
  00040	e8 00 00 00 00	 call	 ??$_Deallocate@$07$0A@@std@@YAXPAXI@Z ; std::_Deallocate<8,0>
; File C:\Program Files (x86)\Microsoft Visual Studio\2019\Community\VC\Tools\MSVC\14.28.29333\include\vector

; 1698 :             _Myfirst = pointer();

  00045	c7 47 10 00 00
	00 00		 mov	 DWORD PTR [edi+16], 0
; File C:\Program Files (x86)\Microsoft Visual Studio\2019\Community\VC\Tools\MSVC\14.28.29333\include\xmemory

; 810  :         _Deallocate<_New_alignof<_Ty>>(_Ptr, sizeof(_Ty) * _Count);

  0004c	83 c4 08	 add	 esp, 8
; File C:\Program Files (x86)\Microsoft Visual Studio\2019\Community\VC\Tools\MSVC\14.28.29333\include\vector

; 1699 :             _Mylast  = pointer();

  0004f	c7 47 14 00 00
	00 00		 mov	 DWORD PTR [edi+20], 0

; 1700 :             _Myend   = pointer();

  00056	c7 47 18 00 00
	00 00		 mov	 DWORD PTR [edi+24], 0
$LN27@CDynamicPo:

; 1694 :         if (_Myfirst) { // destroy and deallocate old array

  0005d	8b 4f 04	 mov	 ecx, DWORD PTR [edi+4]
  00060	85 c9		 test	 ecx, ecx
  00062	74 27		 je	 SHORT $LN34@CDynamicPo

; 1695 :             _Destroy(_Myfirst, _Mylast);
; 1696 :             _Getal().deallocate(_Myfirst, static_cast<size_type>(_Myend - _Myfirst));

  00064	8b 47 0c	 mov	 eax, DWORD PTR [edi+12]
  00067	2b c1		 sub	 eax, ecx
; File C:\Program Files (x86)\Microsoft Visual Studio\2019\Community\VC\Tools\MSVC\14.28.29333\include\xmemory

; 810  :         _Deallocate<_New_alignof<_Ty>>(_Ptr, sizeof(_Ty) * _Count);

  00069	83 e0 fc	 and	 eax, -4			; fffffffcH
  0006c	50		 push	 eax
  0006d	51		 push	 ecx
  0006e	e8 00 00 00 00	 call	 ??$_Deallocate@$07$0A@@std@@YAXPAXI@Z ; std::_Deallocate<8,0>
; File C:\Program Files (x86)\Microsoft Visual Studio\2019\Community\VC\Tools\MSVC\14.28.29333\include\vector

; 1698 :             _Myfirst = pointer();

  00073	c7 47 04 00 00
	00 00		 mov	 DWORD PTR [edi+4], 0
; File C:\Program Files (x86)\Microsoft Visual Studio\2019\Community\VC\Tools\MSVC\14.28.29333\include\xmemory

; 810  :         _Deallocate<_New_alignof<_Ty>>(_Ptr, sizeof(_Ty) * _Count);

  0007a	83 c4 08	 add	 esp, 8
; File C:\Program Files (x86)\Microsoft Visual Studio\2019\Community\VC\Tools\MSVC\14.28.29333\include\vector

; 1699 :             _Mylast  = pointer();

  0007d	c7 47 08 00 00
	00 00		 mov	 DWORD PTR [edi+8], 0

; 1700 :             _Myend   = pointer();

  00084	c7 47 0c 00 00
	00 00		 mov	 DWORD PTR [edi+12], 0
$LN34@CDynamicPo:
  0008b	5f		 pop	 edi
; File D:\Metin2 Server Files\mainline\SRC_2014\Metin2Client\eterLib\Pool.h

; 142  : 		}

  0008c	5e		 pop	 esi
  0008d	5b		 pop	 ebx
  0008e	c3		 ret	 0
??1?$CDynamicPoolEx@VCTextureAnimationRandomDecorator@NEffectUpdateDecorator@@@@UAE@XZ ENDP ; CDynamicPoolEx<NEffectUpdateDecorator::CTextureAnimationRandomDecorator>::~CDynamicPoolEx<NEffectUpdateDecorator::CTextureAnimationRandomDecorator>
_TEXT	ENDS
; Function compile flags: /Ogtp
;	COMDAT ??_G?$CDynamicPoolEx@VCAirResistanceDecorator@NEffectUpdateDecorator@@@@UAEPAXI@Z
_TEXT	SEGMENT
___flags$ = 8						; size = 4
??_G?$CDynamicPoolEx@VCAirResistanceDecorator@NEffectUpdateDecorator@@@@UAEPAXI@Z PROC ; CDynamicPoolEx<NEffectUpdateDecorator::CAirResistanceDecorator>::`scalar deleting destructor', COMDAT
; _this$ = ecx
  00000	55		 push	 ebp
  00001	8b ec		 mov	 ebp, esp
  00003	56		 push	 esi
  00004	8b f1		 mov	 esi, ecx
  00006	e8 00 00 00 00	 call	 ??1?$CDynamicPoolEx@VCAirResistanceDecorator@NEffectUpdateDecorator@@@@UAE@XZ ; CDynamicPoolEx<NEffectUpdateDecorator::CAirResistanceDecorator>::~CDynamicPoolEx<NEffectUpdateDecorator::CAirResistanceDecorator>
  0000b	f6 45 08 01	 test	 BYTE PTR ___flags$[ebp], 1
  0000f	74 0b		 je	 SHORT $LN4@scalar
  00011	6a 24		 push	 36			; 00000024H
  00013	56		 push	 esi
  00014	e8 00 00 00 00	 call	 ??3@YAXPAXI@Z		; operator delete
  00019	83 c4 08	 add	 esp, 8
$LN4@scalar:
  0001c	8b c6		 mov	 eax, esi
  0001e	5e		 pop	 esi
  0001f	5d		 pop	 ebp
  00020	c2 04 00	 ret	 4
??_G?$CDynamicPoolEx@VCAirResistanceDecorator@NEffectUpdateDecorator@@@@UAEPAXI@Z ENDP ; CDynamicPoolEx<NEffectUpdateDecorator::CAirResistanceDecorator>::`scalar deleting destructor'
_TEXT	ENDS
; Function compile flags: /Ogtp
; File D:\Metin2 Server Files\mainline\SRC_2014\Metin2Client\eterLib\Pool.h
;	COMDAT ?Delete@?$CDynamicPoolEx@VCAirResistanceDecorator@NEffectUpdateDecorator@@@@KAXPAVCAirResistanceDecorator@NEffectUpdateDecorator@@@Z
_TEXT	SEGMENT
_pkData$ = 8						; size = 4
?Delete@?$CDynamicPoolEx@VCAirResistanceDecorator@NEffectUpdateDecorator@@@@KAXPAVCAirResistanceDecorator@NEffectUpdateDecorator@@@Z PROC ; CDynamicPoolEx<NEffectUpdateDecorator::CAirResistanceDecorator>::Delete, COMDAT

; 224  : 			::operator delete(pkData);

  00000	e9 00 00 00 00	 jmp	 ??3@YAXPAX@Z		; operator delete
?Delete@?$CDynamicPoolEx@VCAirResistanceDecorator@NEffectUpdateDecorator@@@@KAXPAVCAirResistanceDecorator@NEffectUpdateDecorator@@@Z ENDP ; CDynamicPoolEx<NEffectUpdateDecorator::CAirResistanceDecorator>::Delete
_TEXT	ENDS
; Function compile flags: /Ogtp
; File D:\Metin2 Server Files\mainline\SRC_2014\Metin2Client\eterLib\Pool.h
; File C:\Program Files (x86)\Microsoft Visual Studio\2019\Community\VC\Tools\MSVC\14.28.29333\include\vector
; File C:\Program Files (x86)\Microsoft Visual Studio\2019\Community\VC\Tools\MSVC\14.28.29333\include\algorithm
; File D:\Metin2 Server Files\mainline\SRC_2014\Metin2Client\eterLib\Pool.h
; File C:\Program Files (x86)\Microsoft Visual Studio\2019\Community\VC\Tools\MSVC\14.28.29333\include\algorithm
; File D:\Metin2 Server Files\mainline\SRC_2014\Metin2Client\eterLib\Pool.h
; File C:\Program Files (x86)\Microsoft Visual Studio\2019\Community\VC\Tools\MSVC\14.28.29333\include\algorithm
; File D:\Metin2 Server Files\mainline\SRC_2014\Metin2Client\eterLib\Pool.h
; File C:\Program Files (x86)\Microsoft Visual Studio\2019\Community\VC\Tools\MSVC\14.28.29333\include\vector
; File C:\Program Files (x86)\Microsoft Visual Studio\2019\Community\VC\Tools\MSVC\14.28.29333\include\xmemory
; File C:\Program Files (x86)\Microsoft Visual Studio\2019\Community\VC\Tools\MSVC\14.28.29333\include\vector
; File C:\Program Files (x86)\Microsoft Visual Studio\2019\Community\VC\Tools\MSVC\14.28.29333\include\xmemory
; File C:\Program Files (x86)\Microsoft Visual Studio\2019\Community\VC\Tools\MSVC\14.28.29333\include\vector
; File C:\Program Files (x86)\Microsoft Visual Studio\2019\Community\VC\Tools\MSVC\14.28.29333\include\xmemory
; File C:\Program Files (x86)\Microsoft Visual Studio\2019\Community\VC\Tools\MSVC\14.28.29333\include\vector
; File C:\Program Files (x86)\Microsoft Visual Studio\2019\Community\VC\Tools\MSVC\14.28.29333\include\xmemory
; File C:\Program Files (x86)\Microsoft Visual Studio\2019\Community\VC\Tools\MSVC\14.28.29333\include\vector
; File D:\Metin2 Server Files\mainline\SRC_2014\Metin2Client\eterLib\Pool.h
;	COMDAT ??1?$CDynamicPoolEx@VCAirResistanceDecorator@NEffectUpdateDecorator@@@@UAE@XZ
_TEXT	SEGMENT
??1?$CDynamicPoolEx@VCAirResistanceDecorator@NEffectUpdateDecorator@@@@UAE@XZ PROC ; CDynamicPoolEx<NEffectUpdateDecorator::CAirResistanceDecorator>::~CDynamicPoolEx<NEffectUpdateDecorator::CAirResistanceDecorator>, COMDAT
; _this$ = ecx

; 132  : 		{

  00000	53		 push	 ebx
  00001	56		 push	 esi
  00002	57		 push	 edi
  00003	8b f9		 mov	 edi, ecx
  00005	c7 07 00 00 00
	00		 mov	 DWORD PTR [edi], OFFSET ??_7?$CDynamicPoolEx@VCAirResistanceDecorator@NEffectUpdateDecorator@@@@6B@
; File C:\Program Files (x86)\Microsoft Visual Studio\2019\Community\VC\Tools\MSVC\14.28.29333\include\vector

; 42   :     _Vector_const_iterator(_Tptr _Parg, const _Container_base* _Pvector) noexcept : _Ptr(_Parg) {

  0000b	8b 5f 08	 mov	 ebx, DWORD PTR [edi+8]
  0000e	8b 77 04	 mov	 esi, DWORD PTR [edi+4]
; File C:\Program Files (x86)\Microsoft Visual Studio\2019\Community\VC\Tools\MSVC\14.28.29333\include\algorithm

; 307  :     for (; _UFirst != _ULast; ++_UFirst) {

  00011	3b f3		 cmp	 esi, ebx
  00013	74 14		 je	 SHORT $LN19@CDynamicPo
$LL20@CDynamicPo:
; File D:\Metin2 Server Files\mainline\SRC_2014\Metin2Client\eterLib\Pool.h

; 224  : 			::operator delete(pkData);

  00015	ff 36		 push	 DWORD PTR [esi]
  00017	e8 00 00 00 00	 call	 ??3@YAXPAX@Z		; operator delete
; File C:\Program Files (x86)\Microsoft Visual Studio\2019\Community\VC\Tools\MSVC\14.28.29333\include\algorithm

; 307  :     for (; _UFirst != _ULast; ++_UFirst) {

  0001c	83 c6 04	 add	 esi, 4
; File D:\Metin2 Server Files\mainline\SRC_2014\Metin2Client\eterLib\Pool.h

; 224  : 			::operator delete(pkData);

  0001f	83 c4 04	 add	 esp, 4
; File C:\Program Files (x86)\Microsoft Visual Studio\2019\Community\VC\Tools\MSVC\14.28.29333\include\algorithm

; 307  :     for (; _UFirst != _ULast; ++_UFirst) {

  00022	3b f3		 cmp	 esi, ebx
  00024	75 ef		 jne	 SHORT $LL20@CDynamicPo
  00026	8b 77 04	 mov	 esi, DWORD PTR [edi+4]
$LN19@CDynamicPo:
; File D:\Metin2 Server Files\mainline\SRC_2014\Metin2Client\eterLib\Pool.h

; 162  : 			m_kVct_pkFree.clear();

  00029	8b 4f 10	 mov	 ecx, DWORD PTR [edi+16]
  0002c	89 77 08	 mov	 DWORD PTR [edi+8], esi
  0002f	89 4f 14	 mov	 DWORD PTR [edi+20], ecx
; File C:\Program Files (x86)\Microsoft Visual Studio\2019\Community\VC\Tools\MSVC\14.28.29333\include\vector

; 1694 :         if (_Myfirst) { // destroy and deallocate old array

  00032	85 c9		 test	 ecx, ecx
  00034	74 27		 je	 SHORT $LN27@CDynamicPo

; 1695 :             _Destroy(_Myfirst, _Mylast);
; 1696 :             _Getal().deallocate(_Myfirst, static_cast<size_type>(_Myend - _Myfirst));

  00036	8b 47 18	 mov	 eax, DWORD PTR [edi+24]
  00039	2b c1		 sub	 eax, ecx
; File C:\Program Files (x86)\Microsoft Visual Studio\2019\Community\VC\Tools\MSVC\14.28.29333\include\xmemory

; 810  :         _Deallocate<_New_alignof<_Ty>>(_Ptr, sizeof(_Ty) * _Count);

  0003b	83 e0 fc	 and	 eax, -4			; fffffffcH
  0003e	50		 push	 eax
  0003f	51		 push	 ecx
  00040	e8 00 00 00 00	 call	 ??$_Deallocate@$07$0A@@std@@YAXPAXI@Z ; std::_Deallocate<8,0>
; File C:\Program Files (x86)\Microsoft Visual Studio\2019\Community\VC\Tools\MSVC\14.28.29333\include\vector

; 1698 :             _Myfirst = pointer();

  00045	c7 47 10 00 00
	00 00		 mov	 DWORD PTR [edi+16], 0
; File C:\Program Files (x86)\Microsoft Visual Studio\2019\Community\VC\Tools\MSVC\14.28.29333\include\xmemory

; 810  :         _Deallocate<_New_alignof<_Ty>>(_Ptr, sizeof(_Ty) * _Count);

  0004c	83 c4 08	 add	 esp, 8
; File C:\Program Files (x86)\Microsoft Visual Studio\2019\Community\VC\Tools\MSVC\14.28.29333\include\vector

; 1699 :             _Mylast  = pointer();

  0004f	c7 47 14 00 00
	00 00		 mov	 DWORD PTR [edi+20], 0

; 1700 :             _Myend   = pointer();

  00056	c7 47 18 00 00
	00 00		 mov	 DWORD PTR [edi+24], 0
$LN27@CDynamicPo:

; 1694 :         if (_Myfirst) { // destroy and deallocate old array

  0005d	8b 4f 04	 mov	 ecx, DWORD PTR [edi+4]
  00060	85 c9		 test	 ecx, ecx
  00062	74 27		 je	 SHORT $LN34@CDynamicPo

; 1695 :             _Destroy(_Myfirst, _Mylast);
; 1696 :             _Getal().deallocate(_Myfirst, static_cast<size_type>(_Myend - _Myfirst));

  00064	8b 47 0c	 mov	 eax, DWORD PTR [edi+12]
  00067	2b c1		 sub	 eax, ecx
; File C:\Program Files (x86)\Microsoft Visual Studio\2019\Community\VC\Tools\MSVC\14.28.29333\include\xmemory

; 810  :         _Deallocate<_New_alignof<_Ty>>(_Ptr, sizeof(_Ty) * _Count);

  00069	83 e0 fc	 and	 eax, -4			; fffffffcH
  0006c	50		 push	 eax
  0006d	51		 push	 ecx
  0006e	e8 00 00 00 00	 call	 ??$_Deallocate@$07$0A@@std@@YAXPAXI@Z ; std::_Deallocate<8,0>
; File C:\Program Files (x86)\Microsoft Visual Studio\2019\Community\VC\Tools\MSVC\14.28.29333\include\vector

; 1698 :             _Myfirst = pointer();

  00073	c7 47 04 00 00
	00 00		 mov	 DWORD PTR [edi+4], 0
; File C:\Program Files (x86)\Microsoft Visual Studio\2019\Community\VC\Tools\MSVC\14.28.29333\include\xmemory

; 810  :         _Deallocate<_New_alignof<_Ty>>(_Ptr, sizeof(_Ty) * _Count);

  0007a	83 c4 08	 add	 esp, 8
; File C:\Program Files (x86)\Microsoft Visual Studio\2019\Community\VC\Tools\MSVC\14.28.29333\include\vector

; 1699 :             _Mylast  = pointer();

  0007d	c7 47 08 00 00
	00 00		 mov	 DWORD PTR [edi+8], 0

; 1700 :             _Myend   = pointer();

  00084	c7 47 0c 00 00
	00 00		 mov	 DWORD PTR [edi+12], 0
$LN34@CDynamicPo:
  0008b	5f		 pop	 edi
; File D:\Metin2 Server Files\mainline\SRC_2014\Metin2Client\eterLib\Pool.h

; 142  : 		}

  0008c	5e		 pop	 esi
  0008d	5b		 pop	 ebx
  0008e	c3		 ret	 0
??1?$CDynamicPoolEx@VCAirResistanceDecorator@NEffectUpdateDecorator@@@@UAE@XZ ENDP ; CDynamicPoolEx<NEffectUpdateDecorator::CAirResistanceDecorator>::~CDynamicPoolEx<NEffectUpdateDecorator::CAirResistanceDecorator>
_TEXT	ENDS
; Function compile flags: /Ogtp
;	COMDAT ??_G?$CDynamicPoolEx@VCGravityDecorator@NEffectUpdateDecorator@@@@UAEPAXI@Z
_TEXT	SEGMENT
___flags$ = 8						; size = 4
??_G?$CDynamicPoolEx@VCGravityDecorator@NEffectUpdateDecorator@@@@UAEPAXI@Z PROC ; CDynamicPoolEx<NEffectUpdateDecorator::CGravityDecorator>::`scalar deleting destructor', COMDAT
; _this$ = ecx
  00000	55		 push	 ebp
  00001	8b ec		 mov	 ebp, esp
  00003	56		 push	 esi
  00004	8b f1		 mov	 esi, ecx
  00006	e8 00 00 00 00	 call	 ??1?$CDynamicPoolEx@VCGravityDecorator@NEffectUpdateDecorator@@@@UAE@XZ ; CDynamicPoolEx<NEffectUpdateDecorator::CGravityDecorator>::~CDynamicPoolEx<NEffectUpdateDecorator::CGravityDecorator>
  0000b	f6 45 08 01	 test	 BYTE PTR ___flags$[ebp], 1
  0000f	74 0b		 je	 SHORT $LN4@scalar
  00011	6a 24		 push	 36			; 00000024H
  00013	56		 push	 esi
  00014	e8 00 00 00 00	 call	 ??3@YAXPAXI@Z		; operator delete
  00019	83 c4 08	 add	 esp, 8
$LN4@scalar:
  0001c	8b c6		 mov	 eax, esi
  0001e	5e		 pop	 esi
  0001f	5d		 pop	 ebp
  00020	c2 04 00	 ret	 4
??_G?$CDynamicPoolEx@VCGravityDecorator@NEffectUpdateDecorator@@@@UAEPAXI@Z ENDP ; CDynamicPoolEx<NEffectUpdateDecorator::CGravityDecorator>::`scalar deleting destructor'
_TEXT	ENDS
; Function compile flags: /Ogtp
; File D:\Metin2 Server Files\mainline\SRC_2014\Metin2Client\eterLib\Pool.h
;	COMDAT ?Delete@?$CDynamicPoolEx@VCGravityDecorator@NEffectUpdateDecorator@@@@KAXPAVCGravityDecorator@NEffectUpdateDecorator@@@Z
_TEXT	SEGMENT
_pkData$ = 8						; size = 4
?Delete@?$CDynamicPoolEx@VCGravityDecorator@NEffectUpdateDecorator@@@@KAXPAVCGravityDecorator@NEffectUpdateDecorator@@@Z PROC ; CDynamicPoolEx<NEffectUpdateDecorator::CGravityDecorator>::Delete, COMDAT

; 224  : 			::operator delete(pkData);

  00000	e9 00 00 00 00	 jmp	 ??3@YAXPAX@Z		; operator delete
?Delete@?$CDynamicPoolEx@VCGravityDecorator@NEffectUpdateDecorator@@@@KAXPAVCGravityDecorator@NEffectUpdateDecorator@@@Z ENDP ; CDynamicPoolEx<NEffectUpdateDecorator::CGravityDecorator>::Delete
_TEXT	ENDS
; Function compile flags: /Ogtp
; File D:\Metin2 Server Files\mainline\SRC_2014\Metin2Client\eterLib\Pool.h
; File C:\Program Files (x86)\Microsoft Visual Studio\2019\Community\VC\Tools\MSVC\14.28.29333\include\vector
; File C:\Program Files (x86)\Microsoft Visual Studio\2019\Community\VC\Tools\MSVC\14.28.29333\include\algorithm
; File D:\Metin2 Server Files\mainline\SRC_2014\Metin2Client\eterLib\Pool.h
; File C:\Program Files (x86)\Microsoft Visual Studio\2019\Community\VC\Tools\MSVC\14.28.29333\include\algorithm
; File D:\Metin2 Server Files\mainline\SRC_2014\Metin2Client\eterLib\Pool.h
; File C:\Program Files (x86)\Microsoft Visual Studio\2019\Community\VC\Tools\MSVC\14.28.29333\include\algorithm
; File D:\Metin2 Server Files\mainline\SRC_2014\Metin2Client\eterLib\Pool.h
; File C:\Program Files (x86)\Microsoft Visual Studio\2019\Community\VC\Tools\MSVC\14.28.29333\include\vector
; File C:\Program Files (x86)\Microsoft Visual Studio\2019\Community\VC\Tools\MSVC\14.28.29333\include\xmemory
; File C:\Program Files (x86)\Microsoft Visual Studio\2019\Community\VC\Tools\MSVC\14.28.29333\include\vector
; File C:\Program Files (x86)\Microsoft Visual Studio\2019\Community\VC\Tools\MSVC\14.28.29333\include\xmemory
; File C:\Program Files (x86)\Microsoft Visual Studio\2019\Community\VC\Tools\MSVC\14.28.29333\include\vector
; File C:\Program Files (x86)\Microsoft Visual Studio\2019\Community\VC\Tools\MSVC\14.28.29333\include\xmemory
; File C:\Program Files (x86)\Microsoft Visual Studio\2019\Community\VC\Tools\MSVC\14.28.29333\include\vector
; File C:\Program Files (x86)\Microsoft Visual Studio\2019\Community\VC\Tools\MSVC\14.28.29333\include\xmemory
; File C:\Program Files (x86)\Microsoft Visual Studio\2019\Community\VC\Tools\MSVC\14.28.29333\include\vector
; File D:\Metin2 Server Files\mainline\SRC_2014\Metin2Client\eterLib\Pool.h
;	COMDAT ??1?$CDynamicPoolEx@VCGravityDecorator@NEffectUpdateDecorator@@@@UAE@XZ
_TEXT	SEGMENT
??1?$CDynamicPoolEx@VCGravityDecorator@NEffectUpdateDecorator@@@@UAE@XZ PROC ; CDynamicPoolEx<NEffectUpdateDecorator::CGravityDecorator>::~CDynamicPoolEx<NEffectUpdateDecorator::CGravityDecorator>, COMDAT
; _this$ = ecx

; 132  : 		{

  00000	53		 push	 ebx
  00001	56		 push	 esi
  00002	57		 push	 edi
  00003	8b f9		 mov	 edi, ecx
  00005	c7 07 00 00 00
	00		 mov	 DWORD PTR [edi], OFFSET ??_7?$CDynamicPoolEx@VCGravityDecorator@NEffectUpdateDecorator@@@@6B@
; File C:\Program Files (x86)\Microsoft Visual Studio\2019\Community\VC\Tools\MSVC\14.28.29333\include\vector

; 42   :     _Vector_const_iterator(_Tptr _Parg, const _Container_base* _Pvector) noexcept : _Ptr(_Parg) {

  0000b	8b 5f 08	 mov	 ebx, DWORD PTR [edi+8]
  0000e	8b 77 04	 mov	 esi, DWORD PTR [edi+4]
; File C:\Program Files (x86)\Microsoft Visual Studio\2019\Community\VC\Tools\MSVC\14.28.29333\include\algorithm

; 307  :     for (; _UFirst != _ULast; ++_UFirst) {

  00011	3b f3		 cmp	 esi, ebx
  00013	74 14		 je	 SHORT $LN19@CDynamicPo
$LL20@CDynamicPo:
; File D:\Metin2 Server Files\mainline\SRC_2014\Metin2Client\eterLib\Pool.h

; 224  : 			::operator delete(pkData);

  00015	ff 36		 push	 DWORD PTR [esi]
  00017	e8 00 00 00 00	 call	 ??3@YAXPAX@Z		; operator delete
; File C:\Program Files (x86)\Microsoft Visual Studio\2019\Community\VC\Tools\MSVC\14.28.29333\include\algorithm

; 307  :     for (; _UFirst != _ULast; ++_UFirst) {

  0001c	83 c6 04	 add	 esi, 4
; File D:\Metin2 Server Files\mainline\SRC_2014\Metin2Client\eterLib\Pool.h

; 224  : 			::operator delete(pkData);

  0001f	83 c4 04	 add	 esp, 4
; File C:\Program Files (x86)\Microsoft Visual Studio\2019\Community\VC\Tools\MSVC\14.28.29333\include\algorithm

; 307  :     for (; _UFirst != _ULast; ++_UFirst) {

  00022	3b f3		 cmp	 esi, ebx
  00024	75 ef		 jne	 SHORT $LL20@CDynamicPo
  00026	8b 77 04	 mov	 esi, DWORD PTR [edi+4]
$LN19@CDynamicPo:
; File D:\Metin2 Server Files\mainline\SRC_2014\Metin2Client\eterLib\Pool.h

; 162  : 			m_kVct_pkFree.clear();

  00029	8b 4f 10	 mov	 ecx, DWORD PTR [edi+16]
  0002c	89 77 08	 mov	 DWORD PTR [edi+8], esi
  0002f	89 4f 14	 mov	 DWORD PTR [edi+20], ecx
; File C:\Program Files (x86)\Microsoft Visual Studio\2019\Community\VC\Tools\MSVC\14.28.29333\include\vector

; 1694 :         if (_Myfirst) { // destroy and deallocate old array

  00032	85 c9		 test	 ecx, ecx
  00034	74 27		 je	 SHORT $LN27@CDynamicPo

; 1695 :             _Destroy(_Myfirst, _Mylast);
; 1696 :             _Getal().deallocate(_Myfirst, static_cast<size_type>(_Myend - _Myfirst));

  00036	8b 47 18	 mov	 eax, DWORD PTR [edi+24]
  00039	2b c1		 sub	 eax, ecx
; File C:\Program Files (x86)\Microsoft Visual Studio\2019\Community\VC\Tools\MSVC\14.28.29333\include\xmemory

; 810  :         _Deallocate<_New_alignof<_Ty>>(_Ptr, sizeof(_Ty) * _Count);

  0003b	83 e0 fc	 and	 eax, -4			; fffffffcH
  0003e	50		 push	 eax
  0003f	51		 push	 ecx
  00040	e8 00 00 00 00	 call	 ??$_Deallocate@$07$0A@@std@@YAXPAXI@Z ; std::_Deallocate<8,0>
; File C:\Program Files (x86)\Microsoft Visual Studio\2019\Community\VC\Tools\MSVC\14.28.29333\include\vector

; 1698 :             _Myfirst = pointer();

  00045	c7 47 10 00 00
	00 00		 mov	 DWORD PTR [edi+16], 0
; File C:\Program Files (x86)\Microsoft Visual Studio\2019\Community\VC\Tools\MSVC\14.28.29333\include\xmemory

; 810  :         _Deallocate<_New_alignof<_Ty>>(_Ptr, sizeof(_Ty) * _Count);

  0004c	83 c4 08	 add	 esp, 8
; File C:\Program Files (x86)\Microsoft Visual Studio\2019\Community\VC\Tools\MSVC\14.28.29333\include\vector

; 1699 :             _Mylast  = pointer();

  0004f	c7 47 14 00 00
	00 00		 mov	 DWORD PTR [edi+20], 0

; 1700 :             _Myend   = pointer();

  00056	c7 47 18 00 00
	00 00		 mov	 DWORD PTR [edi+24], 0
$LN27@CDynamicPo:

; 1694 :         if (_Myfirst) { // destroy and deallocate old array

  0005d	8b 4f 04	 mov	 ecx, DWORD PTR [edi+4]
  00060	85 c9		 test	 ecx, ecx
  00062	74 27		 je	 SHORT $LN34@CDynamicPo

; 1695 :             _Destroy(_Myfirst, _Mylast);
; 1696 :             _Getal().deallocate(_Myfirst, static_cast<size_type>(_Myend - _Myfirst));

  00064	8b 47 0c	 mov	 eax, DWORD PTR [edi+12]
  00067	2b c1		 sub	 eax, ecx
; File C:\Program Files (x86)\Microsoft Visual Studio\2019\Community\VC\Tools\MSVC\14.28.29333\include\xmemory

; 810  :         _Deallocate<_New_alignof<_Ty>>(_Ptr, sizeof(_Ty) * _Count);

  00069	83 e0 fc	 and	 eax, -4			; fffffffcH
  0006c	50		 push	 eax
  0006d	51		 push	 ecx
  0006e	e8 00 00 00 00	 call	 ??$_Deallocate@$07$0A@@std@@YAXPAXI@Z ; std::_Deallocate<8,0>
; File C:\Program Files (x86)\Microsoft Visual Studio\2019\Community\VC\Tools\MSVC\14.28.29333\include\vector

; 1698 :             _Myfirst = pointer();

  00073	c7 47 04 00 00
	00 00		 mov	 DWORD PTR [edi+4], 0
; File C:\Program Files (x86)\Microsoft Visual Studio\2019\Community\VC\Tools\MSVC\14.28.29333\include\xmemory

; 810  :         _Deallocate<_New_alignof<_Ty>>(_Ptr, sizeof(_Ty) * _Count);

  0007a	83 c4 08	 add	 esp, 8
; File C:\Program Files (x86)\Microsoft Visual Studio\2019\Community\VC\Tools\MSVC\14.28.29333\include\vector

; 1699 :             _Mylast  = pointer();

  0007d	c7 47 08 00 00
	00 00		 mov	 DWORD PTR [edi+8], 0

; 1700 :             _Myend   = pointer();

  00084	c7 47 0c 00 00
	00 00		 mov	 DWORD PTR [edi+12], 0
$LN34@CDynamicPo:
  0008b	5f		 pop	 edi
; File D:\Metin2 Server Files\mainline\SRC_2014\Metin2Client\eterLib\Pool.h

; 142  : 		}

  0008c	5e		 pop	 esi
  0008d	5b		 pop	 ebx
  0008e	c3		 ret	 0
??1?$CDynamicPoolEx@VCGravityDecorator@NEffectUpdateDecorator@@@@UAE@XZ ENDP ; CDynamicPoolEx<NEffectUpdateDecorator::CGravityDecorator>::~CDynamicPoolEx<NEffectUpdateDecorator::CGravityDecorator>
_TEXT	ENDS
; Function compile flags: /Ogtp
;	COMDAT ??_G?$CDynamicPoolEx@VCRotationDecorator@NEffectUpdateDecorator@@@@UAEPAXI@Z
_TEXT	SEGMENT
___flags$ = 8						; size = 4
??_G?$CDynamicPoolEx@VCRotationDecorator@NEffectUpdateDecorator@@@@UAEPAXI@Z PROC ; CDynamicPoolEx<NEffectUpdateDecorator::CRotationDecorator>::`scalar deleting destructor', COMDAT
; _this$ = ecx
  00000	55		 push	 ebp
  00001	8b ec		 mov	 ebp, esp
  00003	56		 push	 esi
  00004	8b f1		 mov	 esi, ecx
  00006	e8 00 00 00 00	 call	 ??1?$CDynamicPoolEx@VCRotationDecorator@NEffectUpdateDecorator@@@@UAE@XZ ; CDynamicPoolEx<NEffectUpdateDecorator::CRotationDecorator>::~CDynamicPoolEx<NEffectUpdateDecorator::CRotationDecorator>
  0000b	f6 45 08 01	 test	 BYTE PTR ___flags$[ebp], 1
  0000f	74 0b		 je	 SHORT $LN4@scalar
  00011	6a 24		 push	 36			; 00000024H
  00013	56		 push	 esi
  00014	e8 00 00 00 00	 call	 ??3@YAXPAXI@Z		; operator delete
  00019	83 c4 08	 add	 esp, 8
$LN4@scalar:
  0001c	8b c6		 mov	 eax, esi
  0001e	5e		 pop	 esi
  0001f	5d		 pop	 ebp
  00020	c2 04 00	 ret	 4
??_G?$CDynamicPoolEx@VCRotationDecorator@NEffectUpdateDecorator@@@@UAEPAXI@Z ENDP ; CDynamicPoolEx<NEffectUpdateDecorator::CRotationDecorator>::`scalar deleting destructor'
_TEXT	ENDS
; Function compile flags: /Ogtp
; File D:\Metin2 Server Files\mainline\SRC_2014\Metin2Client\eterLib\Pool.h
;	COMDAT ?Delete@?$CDynamicPoolEx@VCRotationDecorator@NEffectUpdateDecorator@@@@KAXPAVCRotationDecorator@NEffectUpdateDecorator@@@Z
_TEXT	SEGMENT
_pkData$ = 8						; size = 4
?Delete@?$CDynamicPoolEx@VCRotationDecorator@NEffectUpdateDecorator@@@@KAXPAVCRotationDecorator@NEffectUpdateDecorator@@@Z PROC ; CDynamicPoolEx<NEffectUpdateDecorator::CRotationDecorator>::Delete, COMDAT

; 224  : 			::operator delete(pkData);

  00000	e9 00 00 00 00	 jmp	 ??3@YAXPAX@Z		; operator delete
?Delete@?$CDynamicPoolEx@VCRotationDecorator@NEffectUpdateDecorator@@@@KAXPAVCRotationDecorator@NEffectUpdateDecorator@@@Z ENDP ; CDynamicPoolEx<NEffectUpdateDecorator::CRotationDecorator>::Delete
_TEXT	ENDS
; Function compile flags: /Ogtp
; File D:\Metin2 Server Files\mainline\SRC_2014\Metin2Client\eterLib\Pool.h
; File C:\Program Files (x86)\Microsoft Visual Studio\2019\Community\VC\Tools\MSVC\14.28.29333\include\vector
; File C:\Program Files (x86)\Microsoft Visual Studio\2019\Community\VC\Tools\MSVC\14.28.29333\include\algorithm
; File D:\Metin2 Server Files\mainline\SRC_2014\Metin2Client\eterLib\Pool.h
; File C:\Program Files (x86)\Microsoft Visual Studio\2019\Community\VC\Tools\MSVC\14.28.29333\include\algorithm
; File D:\Metin2 Server Files\mainline\SRC_2014\Metin2Client\eterLib\Pool.h
; File C:\Program Files (x86)\Microsoft Visual Studio\2019\Community\VC\Tools\MSVC\14.28.29333\include\algorithm
; File D:\Metin2 Server Files\mainline\SRC_2014\Metin2Client\eterLib\Pool.h
; File C:\Program Files (x86)\Microsoft Visual Studio\2019\Community\VC\Tools\MSVC\14.28.29333\include\vector
; File C:\Program Files (x86)\Microsoft Visual Studio\2019\Community\VC\Tools\MSVC\14.28.29333\include\xmemory
; File C:\Program Files (x86)\Microsoft Visual Studio\2019\Community\VC\Tools\MSVC\14.28.29333\include\vector
; File C:\Program Files (x86)\Microsoft Visual Studio\2019\Community\VC\Tools\MSVC\14.28.29333\include\xmemory
; File C:\Program Files (x86)\Microsoft Visual Studio\2019\Community\VC\Tools\MSVC\14.28.29333\include\vector
; File C:\Program Files (x86)\Microsoft Visual Studio\2019\Community\VC\Tools\MSVC\14.28.29333\include\xmemory
; File C:\Program Files (x86)\Microsoft Visual Studio\2019\Community\VC\Tools\MSVC\14.28.29333\include\vector
; File C:\Program Files (x86)\Microsoft Visual Studio\2019\Community\VC\Tools\MSVC\14.28.29333\include\xmemory
; File C:\Program Files (x86)\Microsoft Visual Studio\2019\Community\VC\Tools\MSVC\14.28.29333\include\vector
; File D:\Metin2 Server Files\mainline\SRC_2014\Metin2Client\eterLib\Pool.h
;	COMDAT ??1?$CDynamicPoolEx@VCRotationDecorator@NEffectUpdateDecorator@@@@UAE@XZ
_TEXT	SEGMENT
??1?$CDynamicPoolEx@VCRotationDecorator@NEffectUpdateDecorator@@@@UAE@XZ PROC ; CDynamicPoolEx<NEffectUpdateDecorator::CRotationDecorator>::~CDynamicPoolEx<NEffectUpdateDecorator::CRotationDecorator>, COMDAT
; _this$ = ecx

; 132  : 		{

  00000	53		 push	 ebx
  00001	56		 push	 esi
  00002	57		 push	 edi
  00003	8b f9		 mov	 edi, ecx
  00005	c7 07 00 00 00
	00		 mov	 DWORD PTR [edi], OFFSET ??_7?$CDynamicPoolEx@VCRotationDecorator@NEffectUpdateDecorator@@@@6B@
; File C:\Program Files (x86)\Microsoft Visual Studio\2019\Community\VC\Tools\MSVC\14.28.29333\include\vector

; 42   :     _Vector_const_iterator(_Tptr _Parg, const _Container_base* _Pvector) noexcept : _Ptr(_Parg) {

  0000b	8b 5f 08	 mov	 ebx, DWORD PTR [edi+8]
  0000e	8b 77 04	 mov	 esi, DWORD PTR [edi+4]
; File C:\Program Files (x86)\Microsoft Visual Studio\2019\Community\VC\Tools\MSVC\14.28.29333\include\algorithm

; 307  :     for (; _UFirst != _ULast; ++_UFirst) {

  00011	3b f3		 cmp	 esi, ebx
  00013	74 14		 je	 SHORT $LN19@CDynamicPo
$LL20@CDynamicPo:
; File D:\Metin2 Server Files\mainline\SRC_2014\Metin2Client\eterLib\Pool.h

; 224  : 			::operator delete(pkData);

  00015	ff 36		 push	 DWORD PTR [esi]
  00017	e8 00 00 00 00	 call	 ??3@YAXPAX@Z		; operator delete
; File C:\Program Files (x86)\Microsoft Visual Studio\2019\Community\VC\Tools\MSVC\14.28.29333\include\algorithm

; 307  :     for (; _UFirst != _ULast; ++_UFirst) {

  0001c	83 c6 04	 add	 esi, 4
; File D:\Metin2 Server Files\mainline\SRC_2014\Metin2Client\eterLib\Pool.h

; 224  : 			::operator delete(pkData);

  0001f	83 c4 04	 add	 esp, 4
; File C:\Program Files (x86)\Microsoft Visual Studio\2019\Community\VC\Tools\MSVC\14.28.29333\include\algorithm

; 307  :     for (; _UFirst != _ULast; ++_UFirst) {

  00022	3b f3		 cmp	 esi, ebx
  00024	75 ef		 jne	 SHORT $LL20@CDynamicPo
  00026	8b 77 04	 mov	 esi, DWORD PTR [edi+4]
$LN19@CDynamicPo:
; File D:\Metin2 Server Files\mainline\SRC_2014\Metin2Client\eterLib\Pool.h

; 162  : 			m_kVct_pkFree.clear();

  00029	8b 4f 10	 mov	 ecx, DWORD PTR [edi+16]
  0002c	89 77 08	 mov	 DWORD PTR [edi+8], esi
  0002f	89 4f 14	 mov	 DWORD PTR [edi+20], ecx
; File C:\Program Files (x86)\Microsoft Visual Studio\2019\Community\VC\Tools\MSVC\14.28.29333\include\vector

; 1694 :         if (_Myfirst) { // destroy and deallocate old array

  00032	85 c9		 test	 ecx, ecx
  00034	74 27		 je	 SHORT $LN27@CDynamicPo

; 1695 :             _Destroy(_Myfirst, _Mylast);
; 1696 :             _Getal().deallocate(_Myfirst, static_cast<size_type>(_Myend - _Myfirst));

  00036	8b 47 18	 mov	 eax, DWORD PTR [edi+24]
  00039	2b c1		 sub	 eax, ecx
; File C:\Program Files (x86)\Microsoft Visual Studio\2019\Community\VC\Tools\MSVC\14.28.29333\include\xmemory

; 810  :         _Deallocate<_New_alignof<_Ty>>(_Ptr, sizeof(_Ty) * _Count);

  0003b	83 e0 fc	 and	 eax, -4			; fffffffcH
  0003e	50		 push	 eax
  0003f	51		 push	 ecx
  00040	e8 00 00 00 00	 call	 ??$_Deallocate@$07$0A@@std@@YAXPAXI@Z ; std::_Deallocate<8,0>
; File C:\Program Files (x86)\Microsoft Visual Studio\2019\Community\VC\Tools\MSVC\14.28.29333\include\vector

; 1698 :             _Myfirst = pointer();

  00045	c7 47 10 00 00
	00 00		 mov	 DWORD PTR [edi+16], 0
; File C:\Program Files (x86)\Microsoft Visual Studio\2019\Community\VC\Tools\MSVC\14.28.29333\include\xmemory

; 810  :         _Deallocate<_New_alignof<_Ty>>(_Ptr, sizeof(_Ty) * _Count);

  0004c	83 c4 08	 add	 esp, 8
; File C:\Program Files (x86)\Microsoft Visual Studio\2019\Community\VC\Tools\MSVC\14.28.29333\include\vector

; 1699 :             _Mylast  = pointer();

  0004f	c7 47 14 00 00
	00 00		 mov	 DWORD PTR [edi+20], 0

; 1700 :             _Myend   = pointer();

  00056	c7 47 18 00 00
	00 00		 mov	 DWORD PTR [edi+24], 0
$LN27@CDynamicPo:

; 1694 :         if (_Myfirst) { // destroy and deallocate old array

  0005d	8b 4f 04	 mov	 ecx, DWORD PTR [edi+4]
  00060	85 c9		 test	 ecx, ecx
  00062	74 27		 je	 SHORT $LN34@CDynamicPo

; 1695 :             _Destroy(_Myfirst, _Mylast);
; 1696 :             _Getal().deallocate(_Myfirst, static_cast<size_type>(_Myend - _Myfirst));

  00064	8b 47 0c	 mov	 eax, DWORD PTR [edi+12]
  00067	2b c1		 sub	 eax, ecx
; File C:\Program Files (x86)\Microsoft Visual Studio\2019\Community\VC\Tools\MSVC\14.28.29333\include\xmemory

; 810  :         _Deallocate<_New_alignof<_Ty>>(_Ptr, sizeof(_Ty) * _Count);

  00069	83 e0 fc	 and	 eax, -4			; fffffffcH
  0006c	50		 push	 eax
  0006d	51		 push	 ecx
  0006e	e8 00 00 00 00	 call	 ??$_Deallocate@$07$0A@@std@@YAXPAXI@Z ; std::_Deallocate<8,0>
; File C:\Program Files (x86)\Microsoft Visual Studio\2019\Community\VC\Tools\MSVC\14.28.29333\include\vector

; 1698 :             _Myfirst = pointer();

  00073	c7 47 04 00 00
	00 00		 mov	 DWORD PTR [edi+4], 0
; File C:\Program Files (x86)\Microsoft Visual Studio\2019\Community\VC\Tools\MSVC\14.28.29333\include\xmemory

; 810  :         _Deallocate<_New_alignof<_Ty>>(_Ptr, sizeof(_Ty) * _Count);

  0007a	83 c4 08	 add	 esp, 8
; File C:\Program Files (x86)\Microsoft Visual Studio\2019\Community\VC\Tools\MSVC\14.28.29333\include\vector

; 1699 :             _Mylast  = pointer();

  0007d	c7 47 08 00 00
	00 00		 mov	 DWORD PTR [edi+8], 0

; 1700 :             _Myend   = pointer();

  00084	c7 47 0c 00 00
	00 00		 mov	 DWORD PTR [edi+12], 0
$LN34@CDynamicPo:
  0008b	5f		 pop	 edi
; File D:\Metin2 Server Files\mainline\SRC_2014\Metin2Client\eterLib\Pool.h

; 142  : 		}

  0008c	5e		 pop	 esi
  0008d	5b		 pop	 ebx
  0008e	c3		 ret	 0
??1?$CDynamicPoolEx@VCRotationDecorator@NEffectUpdateDecorator@@@@UAE@XZ ENDP ; CDynamicPoolEx<NEffectUpdateDecorator::CRotationDecorator>::~CDynamicPoolEx<NEffectUpdateDecorator::CRotationDecorator>
_TEXT	ENDS
; Function compile flags: /Ogtp
;	COMDAT ??__Fs_strEffectName@?1??SetXMaxTree@CPythonBackground@@QAEXH@Z@YAXXZ
text$yd	SEGMENT
??__Fs_strEffectName@?1??SetXMaxTree@CPythonBackground@@QAEXH@Z@YAXXZ PROC ; `CPythonBackground::SetXMaxTree'::`2'::`dynamic atexit destructor for 's_strEffectName'', COMDAT
  00000	68 00 00 00 00	 push	 OFFSET ??1?$basic_string@DU?$char_traits@D@std@@V?$allocator@D@2@@std@@QAE@XZ ; std::basic_string<char,std::char_traits<char>,std::allocator<char> >::~basic_string<char,std::char_traits<char>,std::allocator<char> >
  00005	6a 03		 push	 3
  00007	6a 18		 push	 24			; 00000018H
  00009	68 00 00 00 00	 push	 OFFSET ?s_strEffectName@?1??SetXMaxTree@CPythonBackground@@QAEXH@Z@4PAV?$basic_string@DU?$char_traits@D@std@@V?$allocator@D@2@@std@@A
  0000e	e8 00 00 00 00	 call	 ??_M@YGXPAXIIP6EX0@Z@Z
  00013	c3		 ret	 0
??__Fs_strEffectName@?1??SetXMaxTree@CPythonBackground@@QAEXH@Z@YAXXZ ENDP ; `CPythonBackground::SetXMaxTree'::`2'::`dynamic atexit destructor for 's_strEffectName''
text$yd	ENDS
; Function compile flags: /Ogtp
;	COMDAT ??__Fs_strTreeName@?1??SetXMaxTree@CPythonBackground@@QAEXH@Z@YAXXZ
text$yd	SEGMENT
??__Fs_strTreeName@?1??SetXMaxTree@CPythonBackground@@QAEXH@Z@YAXXZ PROC ; `CPythonBackground::SetXMaxTree'::`2'::`dynamic atexit destructor for 's_strTreeName'', COMDAT
  00000	68 00 00 00 00	 push	 OFFSET ??1?$basic_string@DU?$char_traits@D@std@@V?$allocator@D@2@@std@@QAE@XZ ; std::basic_string<char,std::char_traits<char>,std::allocator<char> >::~basic_string<char,std::char_traits<char>,std::allocator<char> >
  00005	6a 03		 push	 3
  00007	6a 18		 push	 24			; 00000018H
  00009	68 00 00 00 00	 push	 OFFSET ?s_strTreeName@?1??SetXMaxTree@CPythonBackground@@QAEXH@Z@4PAV?$basic_string@DU?$char_traits@D@std@@V?$allocator@D@2@@std@@A
  0000e	e8 00 00 00 00	 call	 ??_M@YGXPAXIIP6EX0@Z@Z
  00013	c3		 ret	 0
??__Fs_strTreeName@?1??SetXMaxTree@CPythonBackground@@QAEXH@Z@YAXXZ ENDP ; `CPythonBackground::SetXMaxTree'::`2'::`dynamic atexit destructor for 's_strTreeName''
text$yd	ENDS
; Function compile flags: /Ogtp
; File C:\Program Files (x86)\Microsoft Visual Studio\2019\Community\VC\Tools\MSVC\14.28.29333\include\xstring
;	COMDAT ??$?9DU?$char_traits@D@std@@V?$allocator@D@1@@std@@YA_NQBDABV?$basic_string@DU?$char_traits@D@std@@V?$allocator@D@2@@0@@Z
_TEXT	SEGMENT
__Left$ = 8						; size = 4
__Right$ = 12						; size = 4
??$?9DU?$char_traits@D@std@@V?$allocator@D@1@@std@@YA_NQBDABV?$basic_string@DU?$char_traits@D@std@@V?$allocator@D@2@@0@@Z PROC ; std::operator!=<char,std::char_traits<char>,std::allocator<char> >, COMDAT

; 4575 : _NODISCARD bool operator!=(_In_z_ const _Elem* const _Left, const basic_string<_Elem, _Traits, _Alloc>& _Right) {

  00000	55		 push	 ebp
  00001	8b ec		 mov	 ebp, esp

; 4576 :     return !(_Left == _Right);

  00003	ff 75 0c	 push	 DWORD PTR __Right$[ebp]
  00006	ff 75 08	 push	 DWORD PTR __Left$[ebp]
  00009	e8 00 00 00 00	 call	 ??$?8DU?$char_traits@D@std@@V?$allocator@D@1@@std@@YA_NQBDABV?$basic_string@DU?$char_traits@D@std@@V?$allocator@D@2@@0@@Z ; std::operator==<char,std::char_traits<char>,std::allocator<char> >
  0000e	83 c4 08	 add	 esp, 8
  00011	34 01		 xor	 al, 1

; 4577 : }

  00013	5d		 pop	 ebp
  00014	c3		 ret	 0
??$?9DU?$char_traits@D@std@@V?$allocator@D@1@@std@@YA_NQBDABV?$basic_string@DU?$char_traits@D@std@@V?$allocator@D@2@@0@@Z ENDP ; std::operator!=<char,std::char_traits<char>,std::allocator<char> >
_TEXT	ENDS
; Function compile flags: /Ogtp
; File C:\Program Files (x86)\Microsoft Visual Studio\2019\Community\VC\Tools\MSVC\14.28.29333\include\xtree
;	COMDAT ??E?$_Tree_unchecked_const_iterator@V?$_Tree_val@U?$_Tree_simple_types@U?$pair@$$CBKUSReserveTargetEffect@CPythonBackground@@@std@@@std@@@std@@U_Iterator_base0@2@@std@@QAEAAV01@XZ
_TEXT	SEGMENT
??E?$_Tree_unchecked_const_iterator@V?$_Tree_val@U?$_Tree_simple_types@U?$pair@$$CBKUSReserveTargetEffect@CPythonBackground@@@std@@@std@@@std@@U_Iterator_base0@2@@std@@QAEAAV01@XZ PROC ; std::_Tree_unchecked_const_iterator<std::_Tree_val<std::_Tree_simple_types<std::pair<unsigned long const ,CPythonBackground::SReserveTargetEffect> > >,std::_Iterator_base0>::operator++, COMDAT
; _this$ = ecx

; 51   :     _Tree_unchecked_const_iterator& operator++() noexcept {

  00000	56		 push	 esi
  00001	8b f1		 mov	 esi, ecx
  00003	57		 push	 edi

; 52   :         if (_Ptr->_Right->_Isnil) { // climb looking for right subtree

  00004	8b 16		 mov	 edx, DWORD PTR [esi]
  00006	8b 7a 08	 mov	 edi, DWORD PTR [edx+8]
  00009	80 7f 0d 00	 cmp	 BYTE PTR [edi+13], 0
  0000d	74 22		 je	 SHORT $LN4@operator

; 53   :             _Nodeptr _Pnode;
; 54   :             while (!(_Pnode = _Ptr->_Parent)->_Isnil && _Ptr == _Pnode->_Right) {

  0000f	8b 42 04	 mov	 eax, DWORD PTR [edx+4]
  00012	80 78 0d 00	 cmp	 BYTE PTR [eax+13], 0
  00016	75 12		 jne	 SHORT $LN19@operator
$LL2@operator:
  00018	3b 50 08	 cmp	 edx, DWORD PTR [eax+8]
  0001b	75 0d		 jne	 SHORT $LN19@operator

; 55   :                 _Ptr = _Pnode; // ==> parent while right subtree

  0001d	89 06		 mov	 DWORD PTR [esi], eax
  0001f	8b d0		 mov	 edx, eax
  00021	8b 40 04	 mov	 eax, DWORD PTR [eax+4]
  00024	80 78 0d 00	 cmp	 BYTE PTR [eax+13], 0
  00028	74 ee		 je	 SHORT $LL2@operator
$LN19@operator:

; 56   :             }
; 57   : 
; 58   :             _Ptr = _Pnode; // ==> parent (head if end())
; 59   :         } else {
; 60   :             _Ptr = _Mytree::_Min(_Ptr->_Right); // ==> smallest of right subtree
; 61   :         }
; 62   : 
; 63   :         return *this;

  0002a	89 06		 mov	 DWORD PTR [esi], eax

; 64   :     }

  0002c	8b c6		 mov	 eax, esi
  0002e	5f		 pop	 edi
  0002f	5e		 pop	 esi
  00030	c3		 ret	 0
$LN4@operator:

; 451  :         while (!_Pnode->_Left->_Isnil) {

  00031	8b 0f		 mov	 ecx, DWORD PTR [edi]
  00033	80 79 0d 00	 cmp	 BYTE PTR [ecx+13], 0
  00037	75 13		 jne	 SHORT $LN9@operator
  00039	0f 1f 80 00 00
	00 00		 npad	 7
$LL8@operator:
  00040	8b 01		 mov	 eax, DWORD PTR [ecx]

; 452  :             _Pnode = _Pnode->_Left;

  00042	8b f9		 mov	 edi, ecx
  00044	8b c8		 mov	 ecx, eax
  00046	80 78 0d 00	 cmp	 BYTE PTR [eax+13], 0
  0004a	74 f4		 je	 SHORT $LL8@operator
$LN9@operator:

; 56   :             }
; 57   : 
; 58   :             _Ptr = _Pnode; // ==> parent (head if end())
; 59   :         } else {
; 60   :             _Ptr = _Mytree::_Min(_Ptr->_Right); // ==> smallest of right subtree
; 61   :         }
; 62   : 
; 63   :         return *this;

  0004c	89 3e		 mov	 DWORD PTR [esi], edi

; 64   :     }

  0004e	8b c6		 mov	 eax, esi
  00050	5f		 pop	 edi
  00051	5e		 pop	 esi
  00052	c3		 ret	 0
??E?$_Tree_unchecked_const_iterator@V?$_Tree_val@U?$_Tree_simple_types@U?$pair@$$CBKUSReserveTargetEffect@CPythonBackground@@@std@@@std@@@std@@U_Iterator_base0@2@@std@@QAEAAV01@XZ ENDP ; std::_Tree_unchecked_const_iterator<std::_Tree_val<std::_Tree_simple_types<std::pair<unsigned long const ,CPythonBackground::SReserveTargetEffect> > >,std::_Iterator_base0>::operator++
_TEXT	ENDS
; Function compile flags: /Ogtp
; File C:\Program Files (x86)\Microsoft Visual Studio\2019\Community\VC\Tools\MSVC\14.28.29333\include\xtree
;	COMDAT ??E?$_Tree_unchecked_const_iterator@V?$_Tree_val@U?$_Tree_simple_types@U?$pair@$$CBKK@std@@@std@@@std@@U_Iterator_base0@2@@std@@QAEAAV01@XZ
_TEXT	SEGMENT
??E?$_Tree_unchecked_const_iterator@V?$_Tree_val@U?$_Tree_simple_types@U?$pair@$$CBKK@std@@@std@@@std@@U_Iterator_base0@2@@std@@QAEAAV01@XZ PROC ; std::_Tree_unchecked_const_iterator<std::_Tree_val<std::_Tree_simple_types<std::pair<unsigned long const ,unsigned long> > >,std::_Iterator_base0>::operator++, COMDAT
; _this$ = ecx

; 51   :     _Tree_unchecked_const_iterator& operator++() noexcept {

  00000	56		 push	 esi
  00001	8b f1		 mov	 esi, ecx
  00003	57		 push	 edi

; 52   :         if (_Ptr->_Right->_Isnil) { // climb looking for right subtree

  00004	8b 16		 mov	 edx, DWORD PTR [esi]
  00006	8b 7a 08	 mov	 edi, DWORD PTR [edx+8]
  00009	80 7f 0d 00	 cmp	 BYTE PTR [edi+13], 0
  0000d	74 22		 je	 SHORT $LN4@operator

; 53   :             _Nodeptr _Pnode;
; 54   :             while (!(_Pnode = _Ptr->_Parent)->_Isnil && _Ptr == _Pnode->_Right) {

  0000f	8b 42 04	 mov	 eax, DWORD PTR [edx+4]
  00012	80 78 0d 00	 cmp	 BYTE PTR [eax+13], 0
  00016	75 12		 jne	 SHORT $LN19@operator
$LL2@operator:
  00018	3b 50 08	 cmp	 edx, DWORD PTR [eax+8]
  0001b	75 0d		 jne	 SHORT $LN19@operator

; 55   :                 _Ptr = _Pnode; // ==> parent while right subtree

  0001d	89 06		 mov	 DWORD PTR [esi], eax
  0001f	8b d0		 mov	 edx, eax
  00021	8b 40 04	 mov	 eax, DWORD PTR [eax+4]
  00024	80 78 0d 00	 cmp	 BYTE PTR [eax+13], 0
  00028	74 ee		 je	 SHORT $LL2@operator
$LN19@operator:

; 56   :             }
; 57   : 
; 58   :             _Ptr = _Pnode; // ==> parent (head if end())
; 59   :         } else {
; 60   :             _Ptr = _Mytree::_Min(_Ptr->_Right); // ==> smallest of right subtree
; 61   :         }
; 62   : 
; 63   :         return *this;

  0002a	89 06		 mov	 DWORD PTR [esi], eax

; 64   :     }

  0002c	8b c6		 mov	 eax, esi
  0002e	5f		 pop	 edi
  0002f	5e		 pop	 esi
  00030	c3		 ret	 0
$LN4@operator:

; 451  :         while (!_Pnode->_Left->_Isnil) {

  00031	8b 0f		 mov	 ecx, DWORD PTR [edi]
  00033	80 79 0d 00	 cmp	 BYTE PTR [ecx+13], 0
  00037	75 13		 jne	 SHORT $LN9@operator
  00039	0f 1f 80 00 00
	00 00		 npad	 7
$LL8@operator:
  00040	8b 01		 mov	 eax, DWORD PTR [ecx]

; 452  :             _Pnode = _Pnode->_Left;

  00042	8b f9		 mov	 edi, ecx
  00044	8b c8		 mov	 ecx, eax
  00046	80 78 0d 00	 cmp	 BYTE PTR [eax+13], 0
  0004a	74 f4		 je	 SHORT $LL8@operator
$LN9@operator:

; 56   :             }
; 57   : 
; 58   :             _Ptr = _Pnode; // ==> parent (head if end())
; 59   :         } else {
; 60   :             _Ptr = _Mytree::_Min(_Ptr->_Right); // ==> smallest of right subtree
; 61   :         }
; 62   : 
; 63   :         return *this;

  0004c	89 3e		 mov	 DWORD PTR [esi], edi

; 64   :     }

  0004e	8b c6		 mov	 eax, esi
  00050	5f		 pop	 edi
  00051	5e		 pop	 esi
  00052	c3		 ret	 0
??E?$_Tree_unchecked_const_iterator@V?$_Tree_val@U?$_Tree_simple_types@U?$pair@$$CBKK@std@@@std@@@std@@U_Iterator_base0@2@@std@@QAEAAV01@XZ ENDP ; std::_Tree_unchecked_const_iterator<std::_Tree_val<std::_Tree_simple_types<std::pair<unsigned long const ,unsigned long> > >,std::_Iterator_base0>::operator++
_TEXT	ENDS
; Function compile flags: /Ogtp
; File C:\Program Files (x86)\Microsoft Visual Studio\2019\Community\VC\Tools\MSVC\14.28.29333\include\xtree
;	COMDAT ??E?$_Tree_const_iterator@V?$_Tree_val@U?$_Tree_simple_types@H@std@@@std@@@std@@QAEAAV01@XZ
_TEXT	SEGMENT
??E?$_Tree_const_iterator@V?$_Tree_val@U?$_Tree_simple_types@H@std@@@std@@@std@@QAEAAV01@XZ PROC ; std::_Tree_const_iterator<std::_Tree_val<std::_Tree_simple_types<int> > >::operator++, COMDAT
; _this$ = ecx

; 192  :     _Tree_const_iterator& operator++() noexcept {

  00000	56		 push	 esi
  00001	8b f1		 mov	 esi, ecx
  00003	57		 push	 edi

; 52   :         if (_Ptr->_Right->_Isnil) { // climb looking for right subtree

  00004	8b 16		 mov	 edx, DWORD PTR [esi]
  00006	8b 7a 08	 mov	 edi, DWORD PTR [edx+8]
  00009	80 7f 0d 00	 cmp	 BYTE PTR [edi+13], 0
  0000d	74 22		 je	 SHORT $LN6@operator

; 53   :             _Nodeptr _Pnode;
; 54   :             while (!(_Pnode = _Ptr->_Parent)->_Isnil && _Ptr == _Pnode->_Right) {

  0000f	8b 42 04	 mov	 eax, DWORD PTR [edx+4]
  00012	80 78 0d 00	 cmp	 BYTE PTR [eax+13], 0
  00016	75 12		 jne	 SHORT $LN21@operator
$LL4@operator:
  00018	3b 50 08	 cmp	 edx, DWORD PTR [eax+8]
  0001b	75 0d		 jne	 SHORT $LN21@operator

; 55   :                 _Ptr = _Pnode; // ==> parent while right subtree

  0001d	89 06		 mov	 DWORD PTR [esi], eax
  0001f	8b d0		 mov	 edx, eax
  00021	8b 40 04	 mov	 eax, DWORD PTR [eax+4]
  00024	80 78 0d 00	 cmp	 BYTE PTR [eax+13], 0
  00028	74 ee		 je	 SHORT $LL4@operator
$LN21@operator:

; 193  : #if _ITERATOR_DEBUG_LEVEL == 2
; 194  :         _STL_VERIFY(this->_Getcont(), "cannot increment value-initialized map/set iterator");
; 195  :         _STL_VERIFY(!this->_Ptr->_Isnil, "cannot increment end map/set iterator");
; 196  : #endif // _ITERATOR_DEBUG_LEVEL == 2
; 197  : 
; 198  :         _Mybase::operator++();
; 199  :         return *this;

  0002a	89 06		 mov	 DWORD PTR [esi], eax

; 200  :     }

  0002c	8b c6		 mov	 eax, esi
  0002e	5f		 pop	 edi
  0002f	5e		 pop	 esi
  00030	c3		 ret	 0
$LN6@operator:

; 451  :         while (!_Pnode->_Left->_Isnil) {

  00031	8b 0f		 mov	 ecx, DWORD PTR [edi]
  00033	80 79 0d 00	 cmp	 BYTE PTR [ecx+13], 0
  00037	75 13		 jne	 SHORT $LN11@operator
  00039	0f 1f 80 00 00
	00 00		 npad	 7
$LL10@operator:
  00040	8b 01		 mov	 eax, DWORD PTR [ecx]

; 452  :             _Pnode = _Pnode->_Left;

  00042	8b f9		 mov	 edi, ecx
  00044	8b c8		 mov	 ecx, eax
  00046	80 78 0d 00	 cmp	 BYTE PTR [eax+13], 0
  0004a	74 f4		 je	 SHORT $LL10@operator
$LN11@operator:

; 193  : #if _ITERATOR_DEBUG_LEVEL == 2
; 194  :         _STL_VERIFY(this->_Getcont(), "cannot increment value-initialized map/set iterator");
; 195  :         _STL_VERIFY(!this->_Ptr->_Isnil, "cannot increment end map/set iterator");
; 196  : #endif // _ITERATOR_DEBUG_LEVEL == 2
; 197  : 
; 198  :         _Mybase::operator++();
; 199  :         return *this;

  0004c	89 3e		 mov	 DWORD PTR [esi], edi

; 200  :     }

  0004e	8b c6		 mov	 eax, esi
  00050	5f		 pop	 edi
  00051	5e		 pop	 esi
  00052	c3		 ret	 0
??E?$_Tree_const_iterator@V?$_Tree_val@U?$_Tree_simple_types@H@std@@@std@@@std@@QAEAAV01@XZ ENDP ; std::_Tree_const_iterator<std::_Tree_val<std::_Tree_simple_types<int> > >::operator++
_TEXT	ENDS
; Function compile flags: /Ogtp
;	COMDAT ??1FGetPortalID@@QAE@XZ
_TEXT	SEGMENT
??1FGetPortalID@@QAE@XZ PROC				; FGetPortalID::~FGetPortalID, COMDAT
; _this$ = ecx
  00000	83 c1 08	 add	 ecx, 8
  00003	e9 00 00 00 00	 jmp	 ??1?$_Tree@V?$_Tset_traits@HU?$less@H@std@@V?$allocator@H@2@$0A@@std@@@std@@QAE@XZ ; std::_Tree<std::_Tset_traits<int,std::less<int>,std::allocator<int>,0> >::~_Tree<std::_Tset_traits<int,std::less<int>,std::allocator<int>,0> >
??1FGetPortalID@@QAE@XZ ENDP				; FGetPortalID::~FGetPortalID
_TEXT	ENDS
; Function compile flags: /Ogtp
; File D:\Metin2 Server Files\mainline\SRC_2014\Metin2Client\UserInterface\PythonBackground.cpp
; File C:\Program Files (x86)\Microsoft Visual Studio\2019\Community\VC\Tools\MSVC\14.28.29333\include\xtree
; File D:\Metin2 Server Files\mainline\SRC_2014\Metin2Client\UserInterface\PythonBackground.cpp
; File C:\Program Files (x86)\Microsoft Visual Studio\2019\Community\VC\Tools\MSVC\14.28.29333\include\xtree
; File C:\Program Files (x86)\Microsoft Visual Studio\2019\Community\VC\Tools\MSVC\14.28.29333\include\xstddef
; File C:\Program Files (x86)\Microsoft Visual Studio\2019\Community\VC\Tools\MSVC\14.28.29333\include\xtree
; File C:\Program Files (x86)\Microsoft Visual Studio\2019\Community\VC\Tools\MSVC\14.28.29333\include\xmemory
; File C:\Program Files (x86)\Microsoft Visual Studio\2019\Community\VC\Tools\MSVC\14.28.29333\include\xtree
; File C:\Program Files (x86)\Microsoft Visual Studio\2019\Community\VC\Tools\MSVC\14.28.29333\include\xmemory
; File C:\Program Files (x86)\Microsoft Visual Studio\2019\Community\VC\Tools\MSVC\14.28.29333\include\xtree
; File C:\Program Files (x86)\Microsoft Visual Studio\2019\Community\VC\Tools\MSVC\14.28.29333\include\utility
; File C:\Program Files (x86)\Microsoft Visual Studio\2019\Community\VC\Tools\MSVC\14.28.29333\include\xtree
; File D:\Metin2 Server Files\mainline\SRC_2014\Metin2Client\UserInterface\PythonBackground.cpp
; File C:\Program Files (x86)\Microsoft Visual Studio\2019\Community\VC\Tools\MSVC\14.28.29333\include\xtree
; File D:\Metin2 Server Files\mainline\SRC_2014\Metin2Client\UserInterface\PythonBackground.cpp
;	COMDAT ??RFGetPortalID@@QAEXPAVCGraphicObjectInstance@@@Z
_TEXT	SEGMENT
$T2 = -52						; size = 12
__Loc$3 = -40						; size = 12
$T4 = -28						; size = 8
_this$1$ = -20						; size = 4
__Myhead$5 = -16					; size = 4
_iID$6 = -16						; size = 4
__$EHRec$ = -12						; size = 12
_pObject$ = 8						; size = 4
??RFGetPortalID@@QAEXPAVCGraphicObjectInstance@@@Z PROC	; FGetPortalID::operator(), COMDAT
; _this$ = ecx

; 327  : 	{

  00000	55		 push	 ebp
  00001	8b ec		 mov	 ebp, esp
  00003	6a ff		 push	 -1
  00005	68 00 00 00 00	 push	 __ehhandler$??RFGetPortalID@@QAEXPAVCGraphicObjectInstance@@@Z
  0000a	64 a1 00 00 00
	00		 mov	 eax, DWORD PTR fs:0
  00010	50		 push	 eax
  00011	83 ec 28	 sub	 esp, 40			; 00000028H
  00014	53		 push	 ebx
  00015	56		 push	 esi
  00016	57		 push	 edi
  00017	a1 00 00 00 00	 mov	 eax, DWORD PTR ___security_cookie
  0001c	33 c5		 xor	 eax, ebp
  0001e	50		 push	 eax
  0001f	8d 45 f4	 lea	 eax, DWORD PTR __$EHRec$[ebp]
  00022	64 a3 00 00 00
	00		 mov	 DWORD PTR fs:0, eax
  00028	8b f9		 mov	 edi, ecx
  0002a	89 7d ec	 mov	 DWORD PTR _this$1$[ebp], edi

; 328  : 		for (int i = 0; i < PORTAL_ID_MAX_NUM; ++i)

  0002d	33 f6		 xor	 esi, esi
  0002f	90		 npad	 1
$LL4@operator:

; 329  : 		{
; 330  : 			int iID = pObject->GetPortal(i);

  00030	8b 4d 08	 mov	 ecx, DWORD PTR _pObject$[ebp]
  00033	56		 push	 esi
  00034	e8 00 00 00 00	 call	 ?GetPortal@CGraphicObjectInstance@@QAEHK@Z ; CGraphicObjectInstance::GetPortal
  00039	8b d8		 mov	 ebx, eax
  0003b	89 5d f0	 mov	 DWORD PTR _iID$6[ebp], ebx

; 331  : 			if (0 == iID)

  0003e	85 db		 test	 ebx, ebx
  00040	0f 84 b4 00 00
	00		 je	 $LN3@operator
; File C:\Program Files (x86)\Microsoft Visual Studio\2019\Community\VC\Tools\MSVC\14.28.29333\include\xtree

; 1009 :             _Loc                = _Find_lower_bound(_Keyval);

  00046	8d 45 f0	 lea	 eax, DWORD PTR _iID$6[ebp]
; File D:\Metin2 Server Files\mainline\SRC_2014\Metin2Client\UserInterface\PythonBackground.cpp

; 334  : 			m_kSet_iPortalID.insert(iID);

  00049	83 c7 08	 add	 edi, 8
; File C:\Program Files (x86)\Microsoft Visual Studio\2019\Community\VC\Tools\MSVC\14.28.29333\include\xtree

; 1009 :             _Loc                = _Find_lower_bound(_Keyval);

  0004c	50		 push	 eax
  0004d	8d 45 cc	 lea	 eax, DWORD PTR $T2[ebp]
  00050	8b cf		 mov	 ecx, edi
  00052	50		 push	 eax
  00053	e8 00 00 00 00	 call	 ??$_Find_lower_bound@H@?$_Tree@V?$_Tset_traits@HU?$less@H@std@@V?$allocator@H@2@$0A@@std@@@std@@IBE?AU?$_Tree_find_result@PAU?$_Tree_node@HPAX@std@@@1@ABH@Z ; std::_Tree<std::_Tset_traits<int,std::less<int>,std::allocator<int>,0> >::_Find_lower_bound<int>
  00058	f3 0f 7e 00	 movq	 xmm0, QWORD PTR [eax]
  0005c	8b 40 08	 mov	 eax, DWORD PTR [eax+8]
  0005f	66 0f d6 45 d8	 movq	 QWORD PTR __Loc$3[ebp], xmm0

; 1695 :         return !_Bound->_Isnil && !_DEBUG_LT_PRED(_Getcomp(), _Keyval, _Traits::_Kfn(_Bound->_Myval));

  00064	80 78 0d 00	 cmp	 BYTE PTR [eax+13], 0
  00068	75 05		 jne	 SHORT $LN15@operator
; File C:\Program Files (x86)\Microsoft Visual Studio\2019\Community\VC\Tools\MSVC\14.28.29333\include\xstddef

; 127  :         return _Left < _Right;

  0006a	3b 58 10	 cmp	 ebx, DWORD PTR [eax+16]
; File C:\Program Files (x86)\Microsoft Visual Studio\2019\Community\VC\Tools\MSVC\14.28.29333\include\xtree

; 1695 :         return !_Bound->_Isnil && !_DEBUG_LT_PRED(_Getcomp(), _Keyval, _Traits::_Kfn(_Bound->_Myval));

  0006d	7d 7e		 jge	 SHORT $LN77@operator
$LN15@operator:

; 1719 :         if (max_size() == _Get_scary()->_Mysize) {

  0006f	81 7f 04 cc cc
	cc 0c		 cmp	 DWORD PTR [edi+4], 214748364 ; 0cccccccH
  00076	0f 84 92 00 00
	00		 je	 $LN72@operator

; 1015 :             _Inserted = _Tree_temp_node<_Alnode>(_Getal(), _Scary->_Myhead, _STD forward<_Valtys>(_Vals)...)._Release();

  0007c	8b 07		 mov	 eax, DWORD PTR [edi]
  0007e	89 45 f0	 mov	 DWORD PTR __Myhead$5[ebp], eax
; File C:\Program Files (x86)\Microsoft Visual Studio\2019\Community\VC\Tools\MSVC\14.28.29333\include\xmemory

; 1045 :     explicit _Alloc_construct_ptr(_Alloc& _Al_) : _Al(_Al_), _Ptr(nullptr) {}

  00081	89 7d e4	 mov	 DWORD PTR $T4[ebp], edi

; 814  :         return static_cast<_Ty*>(_Allocate<_New_alignof<_Ty>>(_Get_size_of_n<sizeof(_Ty)>(_Count)));

  00084	6a 14		 push	 20			; 00000014H
; File C:\Program Files (x86)\Microsoft Visual Studio\2019\Community\VC\Tools\MSVC\14.28.29333\include\xtree

; 784  :     explicit _Tree_temp_node_alloc(_Alnode& _Al_) : _Alloc_construct_ptr<_Alnode>(_Al_) {

  00086	c7 45 fc 00 00
	00 00		 mov	 DWORD PTR __$EHRec$[ebp+8], 0
; File C:\Program Files (x86)\Microsoft Visual Studio\2019\Community\VC\Tools\MSVC\14.28.29333\include\xmemory

; 1052 :         _Ptr = nullptr; // if allocate throws, prevents double-free

  0008d	c7 45 e8 00 00
	00 00		 mov	 DWORD PTR $T4[ebp+4], 0

; 814  :         return static_cast<_Ty*>(_Allocate<_New_alignof<_Ty>>(_Get_size_of_n<sizeof(_Ty)>(_Count)));

  00094	e8 00 00 00 00	 call	 ??$_Allocate@$07U_Default_allocate_traits@std@@$0A@@std@@YAPAXI@Z ; std::_Allocate<8,std::_Default_allocate_traits,0>

; 1053 :         _Ptr = _Al.allocate(1);

  00099	8b f8		 mov	 edi, eax
; File C:\Program Files (x86)\Microsoft Visual Studio\2019\Community\VC\Tools\MSVC\14.28.29333\include\xtree

; 786  :     }

  0009b	c7 45 fc ff ff
	ff ff		 mov	 DWORD PTR __$EHRec$[ebp+8], -1

; 807  :         _Construct_in_place(this->_Ptr->_Left, _Myhead);

  000a2	8d 45 f0	 lea	 eax, DWORD PTR __Myhead$5[ebp]
  000a5	50		 push	 eax
  000a6	57		 push	 edi
  000a7	89 5f 10	 mov	 DWORD PTR [edi+16], ebx
  000aa	e8 00 00 00 00	 call	 ??$_Construct_in_place@PAU?$_Tree_node@HPAX@std@@AAPAU12@@std@@YAXAAPAU?$_Tree_node@HPAX@0@0@Z ; std::_Construct_in_place<std::_Tree_node<int,void *> *,std::_Tree_node<int,void *> * &>

; 808  :         _Construct_in_place(this->_Ptr->_Parent, _Myhead);

  000af	8d 45 f0	 lea	 eax, DWORD PTR __Myhead$5[ebp]
  000b2	50		 push	 eax
  000b3	8d 47 04	 lea	 eax, DWORD PTR [edi+4]
  000b6	50		 push	 eax
  000b7	e8 00 00 00 00	 call	 ??$_Construct_in_place@PAU?$_Tree_node@HPAX@std@@AAPAU12@@std@@YAXAAPAU?$_Tree_node@HPAX@0@0@Z ; std::_Construct_in_place<std::_Tree_node<int,void *> *,std::_Tree_node<int,void *> * &>

; 809  :         _Construct_in_place(this->_Ptr->_Right, _Myhead);

  000bc	8d 45 f0	 lea	 eax, DWORD PTR __Myhead$5[ebp]
  000bf	50		 push	 eax
  000c0	8d 47 08	 lea	 eax, DWORD PTR [edi+8]
  000c3	50		 push	 eax
  000c4	e8 00 00 00 00	 call	 ??$_Construct_in_place@PAU?$_Tree_node@HPAX@std@@AAPAU12@@std@@YAXAAPAU?$_Tree_node@HPAX@0@0@Z ; std::_Construct_in_place<std::_Tree_node<int,void *> *,std::_Tree_node<int,void *> * &>
  000c9	83 c4 1c	 add	 esp, 28			; 0000001cH

; 810  :         this->_Ptr->_Color = _Red;

  000cc	66 c7 47 0c 00
	00		 mov	 WORD PTR [edi+12], 0
; File C:\Program Files (x86)\Microsoft Visual Studio\2019\Community\VC\Tools\MSVC\14.28.29333\include\utility

; 599  :     _Val         = static_cast<_Other&&>(_New_val);

  000d2	c7 45 e8 00 00
	00 00		 mov	 DWORD PTR $T4[ebp+4], 0
; File C:\Program Files (x86)\Microsoft Visual Studio\2019\Community\VC\Tools\MSVC\14.28.29333\include\xtree

; 1034 :         return {_Scary->_Insert_node(_Loc._Location, _Inserted), true};

  000d9	57		 push	 edi
  000da	ff 75 dc	 push	 DWORD PTR __Loc$3[ebp+4]
  000dd	8b 7d ec	 mov	 edi, DWORD PTR _this$1$[ebp]
  000e0	ff 75 d8	 push	 DWORD PTR __Loc$3[ebp]
  000e3	8d 4f 08	 lea	 ecx, DWORD PTR [edi+8]
  000e6	e8 00 00 00 00	 call	 ?_Insert_node@?$_Tree_val@U?$_Tree_simple_types@H@std@@@std@@QAEPAU?$_Tree_node@HPAX@2@U?$_Tree_id@PAU?$_Tree_node@HPAX@std@@@2@QAU32@@Z ; std::_Tree_val<std::_Tree_simple_types<int> >::_Insert_node

; 1695 :         return !_Bound->_Isnil && !_DEBUG_LT_PRED(_Getcomp(), _Keyval, _Traits::_Kfn(_Bound->_Myval));

  000eb	eb 03		 jmp	 SHORT $LN61@operator
$LN77@operator:
  000ed	8b 7d ec	 mov	 edi, DWORD PTR _this$1$[ebp]
$LN61@operator:
; File D:\Metin2 Server Files\mainline\SRC_2014\Metin2Client\UserInterface\PythonBackground.cpp

; 328  : 		for (int i = 0; i < PORTAL_ID_MAX_NUM; ++i)

  000f0	46		 inc	 esi
  000f1	83 fe 08	 cmp	 esi, 8
  000f4	0f 8c 36 ff ff
	ff		 jl	 $LL4@operator
$LN3@operator:

; 336  : 	}

  000fa	8b 4d f4	 mov	 ecx, DWORD PTR __$EHRec$[ebp]
  000fd	64 89 0d 00 00
	00 00		 mov	 DWORD PTR fs:0, ecx
  00104	59		 pop	 ecx
  00105	5f		 pop	 edi
  00106	5e		 pop	 esi
  00107	5b		 pop	 ebx
  00108	8b e5		 mov	 esp, ebp
  0010a	5d		 pop	 ebp
  0010b	c2 04 00	 ret	 4
$LN72@operator:
; File C:\Program Files (x86)\Microsoft Visual Studio\2019\Community\VC\Tools\MSVC\14.28.29333\include\xtree

; 1720 :             _Throw_tree_length_error();

  0010e	e8 00 00 00 00	 call	 ?_Throw_tree_length_error@std@@YAXXZ ; std::_Throw_tree_length_error
$LN79@operator:
  00113	cc		 int	 3
_TEXT	ENDS
;	COMDAT text$x
text$x	SEGMENT
__unwindfunclet$??RFGetPortalID@@QAEXPAVCGraphicObjectInstance@@@Z$2:
  00000	8d 4d e4	 lea	 ecx, DWORD PTR $T4[ebp]
  00003	e9 00 00 00 00	 jmp	 ??1?$_Alloc_construct_ptr@V?$allocator@U?$_Tree_node@HPAX@std@@@std@@@std@@QAE@XZ ; std::_Alloc_construct_ptr<std::allocator<std::_Tree_node<int,void *> > >::~_Alloc_construct_ptr<std::allocator<std::_Tree_node<int,void *> > >
  00008	cc		 int	 3
  00009	cc		 int	 3
  0000a	cc		 int	 3
  0000b	cc		 int	 3
  0000c	cc		 int	 3
__ehhandler$??RFGetPortalID@@QAEXPAVCGraphicObjectInstance@@@Z:
  0000d	90		 npad	 1
  0000e	90		 npad	 1
  0000f	8b 54 24 08	 mov	 edx, DWORD PTR [esp+8]
  00013	8d 42 0c	 lea	 eax, DWORD PTR [edx+12]
  00016	8b 4a c8	 mov	 ecx, DWORD PTR [edx-56]
  00019	33 c8		 xor	 ecx, eax
  0001b	e8 00 00 00 00	 call	 @__security_check_cookie@4
  00020	b8 00 00 00 00	 mov	 eax, OFFSET __ehfuncinfo$??RFGetPortalID@@QAEXPAVCGraphicObjectInstance@@@Z
  00025	e9 00 00 00 00	 jmp	 ___CxxFrameHandler3
text$x	ENDS
??RFGetPortalID@@QAEXPAVCGraphicObjectInstance@@@Z ENDP	; FGetPortalID::operator()
; Function compile flags: /Ogtp
; File C:\Program Files (x86)\Microsoft Visual Studio\2019\Community\VC\Tools\MSVC\14.28.29333\include\xstring
; File C:\Program Files (x86)\Microsoft Visual Studio\2019\Community\VC\Tools\MSVC\14.28.29333\include\xmemory
; File C:\Program Files (x86)\Microsoft Visual Studio\2019\Community\VC\Tools\MSVC\14.28.29333\include\xstring
;	COMDAT ??__Fg_strEffectName@@YAXXZ
text$yd	SEGMENT
??__Fg_strEffectName@@YAXXZ PROC			; `dynamic atexit destructor for 'g_strEffectName'', COMDAT

; 2227 :         return _BUF_SIZE <= _Myres;

  00000	83 3d 14 00 00
	00 10		 cmp	 DWORD PTR ?g_strEffectName@@3V?$basic_string@DU?$char_traits@D@std@@V?$allocator@D@2@@std@@A+20, 16 ; 00000010H

; 4385 :         if (_Mypair._Myval2._Large_string_engaged()) {

  00007	72 22		 jb	 SHORT $LN7@dynamic

; 4386 :             const pointer _Ptr = _Mypair._Myval2._Bx._Ptr;

  00009	56		 push	 esi
  0000a	8b 35 00 00 00
	00		 mov	 esi, DWORD PTR ?g_strEffectName@@3V?$basic_string@DU?$char_traits@D@std@@V?$allocator@D@2@@std@@A

; 4387 :             auto& _Al          = _Getal();
; 4388 :             _Destroy_in_place(_Mypair._Myval2._Bx._Ptr);

  00010	68 00 00 00 00	 push	 OFFSET ?g_strEffectName@@3V?$basic_string@DU?$char_traits@D@std@@V?$allocator@D@2@@std@@A ; g_strEffectName
  00015	e8 00 00 00 00	 call	 ??$_Destroy_in_place@PAD@std@@YAXAAPAD@Z ; std::_Destroy_in_place<char *>

; 4389 :             _Al.deallocate(_Ptr, _Mypair._Myval2._Myres + 1);

  0001a	a1 14 00 00 00	 mov	 eax, DWORD PTR ?g_strEffectName@@3V?$basic_string@DU?$char_traits@D@std@@V?$allocator@D@2@@std@@A+20
  0001f	40		 inc	 eax
; File C:\Program Files (x86)\Microsoft Visual Studio\2019\Community\VC\Tools\MSVC\14.28.29333\include\xmemory

; 810  :         _Deallocate<_New_alignof<_Ty>>(_Ptr, sizeof(_Ty) * _Count);

  00020	50		 push	 eax
  00021	56		 push	 esi
  00022	e8 00 00 00 00	 call	 ??$_Deallocate@$07$0A@@std@@YAXPAXI@Z ; std::_Deallocate<8,0>
  00027	83 c4 0c	 add	 esp, 12			; 0000000cH
  0002a	5e		 pop	 esi
$LN7@dynamic:
; File C:\Program Files (x86)\Microsoft Visual Studio\2019\Community\VC\Tools\MSVC\14.28.29333\include\xstring

; 4392 :         _Mypair._Myval2._Mysize = 0;

  0002b	c7 05 10 00 00
	00 00 00 00 00	 mov	 DWORD PTR ?g_strEffectName@@3V?$basic_string@DU?$char_traits@D@std@@V?$allocator@D@2@@std@@A+16, 0

; 4393 :         _Mypair._Myval2._Myres  = _BUF_SIZE - 1;

  00035	c7 05 14 00 00
	00 0f 00 00 00	 mov	 DWORD PTR ?g_strEffectName@@3V?$basic_string@DU?$char_traits@D@std@@V?$allocator@D@2@@std@@A+20, 15 ; 0000000fH

; 4394 :         // the _Traits::assign is last so the codegen doesn't think the char write can alias this
; 4395 :         _Traits::assign(_Mypair._Myval2._Bx._Buf[0], _Elem());

  0003f	c6 05 00 00 00
	00 00		 mov	 BYTE PTR ?g_strEffectName@@3V?$basic_string@DU?$char_traits@D@std@@V?$allocator@D@2@@std@@A, 0
  00046	c3		 ret	 0
??__Fg_strEffectName@@YAXXZ ENDP			; `dynamic atexit destructor for 'g_strEffectName''
text$yd	ENDS
; Function compile flags: /Ogtp
; File D:\Metin2 Server Files\mainline\SRC_2014\Metin2Client\UserInterface\PythonBackground.cpp
; File C:\Program Files (x86)\Microsoft Visual Studio\2019\Community\VC\Tools\MSVC\14.28.29333\include\xmemory
; File C:\Program Files (x86)\Microsoft Visual Studio\2019\Community\VC\Tools\MSVC\14.28.29333\include\xstring
; File D:\Metin2 Server Files\mainline\SRC_2014\Metin2Client\UserInterface\PythonBackground.cpp
;	COMDAT ??__Eg_strEffectName@@YAXXZ
text$di	SEGMENT
__New_ptr$1 = -4					; size = 4
??__Eg_strEffectName@@YAXXZ PROC			; `dynamic initializer for 'g_strEffectName'', COMDAT

; 18   : std::string g_strEffectName = "d:/ymir work/effect/etc/direction/direction_land.mse";

  00000	55		 push	 ebp
  00001	8b ec		 mov	 ebp, esp
  00003	51		 push	 ecx
; File C:\Program Files (x86)\Microsoft Visual Studio\2019\Community\VC\Tools\MSVC\14.28.29333\include\xmemory

; 814  :         return static_cast<_Ty*>(_Allocate<_New_alignof<_Ty>>(_Get_size_of_n<sizeof(_Ty)>(_Count)));

  00004	6a 40		 push	 64			; 00000040H
  00006	e8 00 00 00 00	 call	 ??$_Allocate@$07U_Default_allocate_traits@std@@$0A@@std@@YAPAXI@Z ; std::_Allocate<8,std::_Default_allocate_traits,0>
; File C:\Program Files (x86)\Microsoft Visual Studio\2019\Community\VC\Tools\MSVC\14.28.29333\include\xstring

; 62   :         _CSTD memcpy(_First1, _First2, _Count * sizeof(_Elem));

  0000b	0f 10 05 00 00
	00 00		 movups	 xmm0, XMMWORD PTR ??_C@_0DF@GEMPMAOP@d?3?1ymir?5work?1effect?1etc?1directi@

; 4312 :         const pointer _New_ptr        = _Al.allocate(_New_capacity + 1); // throws

  00012	8b c8		 mov	 ecx, eax

; 4313 :         _Mypair._Myval2._Orphan_all();
; 4314 :         _Mypair._Myval2._Mysize = _New_size;

  00014	c7 05 10 00 00
	00 34 00 00 00	 mov	 DWORD PTR ?g_strEffectName@@3V?$basic_string@DU?$char_traits@D@std@@V?$allocator@D@2@@std@@A+16, 52 ; 00000034H
  0001e	89 4d fc	 mov	 DWORD PTR __New_ptr$1[ebp], ecx

; 4315 :         _Mypair._Myval2._Myres  = _New_capacity;

  00021	c7 05 14 00 00
	00 3f 00 00 00	 mov	 DWORD PTR ?g_strEffectName@@3V?$basic_string@DU?$char_traits@D@std@@V?$allocator@D@2@@std@@A+20, 63 ; 0000003fH

; 62   :         _CSTD memcpy(_First1, _First2, _Count * sizeof(_Elem));

  0002b	0f 11 01	 movups	 XMMWORD PTR [ecx], xmm0
  0002e	0f 10 05 10 00
	00 00		 movups	 xmm0, XMMWORD PTR ??_C@_0DF@GEMPMAOP@d?3?1ymir?5work?1effect?1etc?1directi@+16
  00035	0f 11 41 10	 movups	 XMMWORD PTR [ecx+16], xmm0
  00039	0f 10 05 20 00
	00 00		 movups	 xmm0, XMMWORD PTR ??_C@_0DF@GEMPMAOP@d?3?1ymir?5work?1effect?1etc?1directi@+32
  00040	0f 11 41 20	 movups	 XMMWORD PTR [ecx+32], xmm0
  00044	a1 30 00 00 00	 mov	 eax, DWORD PTR ??_C@_0DF@GEMPMAOP@d?3?1ymir?5work?1effect?1etc?1directi@+48
  00049	89 41 30	 mov	 DWORD PTR [ecx+48], eax

; 4321 :             _Construct_in_place(_Mypair._Myval2._Bx._Ptr, _New_ptr);

  0004c	8d 45 fc	 lea	 eax, DWORD PTR __New_ptr$1[ebp]
  0004f	50		 push	 eax
  00050	68 00 00 00 00	 push	 OFFSET ?g_strEffectName@@3V?$basic_string@DU?$char_traits@D@std@@V?$allocator@D@2@@std@@A ; g_strEffectName

; 3056 :                 _Traits::assign(_New_ptr[_Count], _Elem());

  00055	c6 41 34 00	 mov	 BYTE PTR [ecx+52], 0

; 4321 :             _Construct_in_place(_Mypair._Myval2._Bx._Ptr, _New_ptr);

  00059	e8 00 00 00 00	 call	 ??$_Construct_in_place@PADABQAD@std@@YAXAAPADABQAD@Z ; std::_Construct_in_place<char *,char * const &>
; File D:\Metin2 Server Files\mainline\SRC_2014\Metin2Client\UserInterface\PythonBackground.cpp

; 18   : std::string g_strEffectName = "d:/ymir work/effect/etc/direction/direction_land.mse";

  0005e	68 00 00 00 00	 push	 OFFSET ??__Fg_strEffectName@@YAXXZ ; `dynamic atexit destructor for 'g_strEffectName''
  00063	e8 00 00 00 00	 call	 _atexit
  00068	83 c4 10	 add	 esp, 16			; 00000010H
  0006b	8b e5		 mov	 esp, ebp
  0006d	5d		 pop	 ebp
  0006e	c3		 ret	 0
??__Eg_strEffectName@@YAXXZ ENDP			; `dynamic initializer for 'g_strEffectName''
text$di	ENDS
; Function compile flags: /Ogtp
;	COMDAT ??_GCPythonBackground@@UAEPAXI@Z
_TEXT	SEGMENT
___flags$ = 8						; size = 4
??_GCPythonBackground@@UAEPAXI@Z PROC			; CPythonBackground::`scalar deleting destructor', COMDAT
; _this$ = ecx
  00000	55		 push	 ebp
  00001	8b ec		 mov	 ebp, esp
  00003	56		 push	 esi
  00004	8b f1		 mov	 esi, ecx
  00006	e8 00 00 00 00	 call	 ??1CPythonBackground@@UAE@XZ ; CPythonBackground::~CPythonBackground
  0000b	f6 45 08 01	 test	 BYTE PTR ___flags$[ebp], 1
  0000f	74 0e		 je	 SHORT $LN4@scalar
  00011	68 08 16 00 00	 push	 5640			; 00001608H
  00016	56		 push	 esi
  00017	e8 00 00 00 00	 call	 ??3@YAXPAXI@Z		; operator delete
  0001c	83 c4 08	 add	 esp, 8
$LN4@scalar:
  0001f	8b c6		 mov	 eax, esi
  00021	5e		 pop	 esi
  00022	5d		 pop	 ebp
  00023	c2 04 00	 ret	 4
??_GCPythonBackground@@UAEPAXI@Z ENDP			; CPythonBackground::`scalar deleting destructor'
_TEXT	ENDS
; Function compile flags: /Ogtp
;	COMDAT ??1?$map@KUSReserveTargetEffect@CPythonBackground@@U?$less@K@std@@V?$allocator@U?$pair@$$CBKUSReserveTargetEffect@CPythonBackground@@@std@@@4@@std@@QAE@XZ
_TEXT	SEGMENT
??1?$map@KUSReserveTargetEffect@CPythonBackground@@U?$less@K@std@@V?$allocator@U?$pair@$$CBKUSReserveTargetEffect@CPythonBackground@@@std@@@4@@std@@QAE@XZ PROC ; std::map<unsigned long,CPythonBackground::SReserveTargetEffect,std::less<unsigned long>,std::allocator<std::pair<unsigned long const ,CPythonBackground::SReserveTargetEffect> > >::~map<unsigned long,CPythonBackground::SReserveTargetEffect,std::less<unsigned long>,std::allocator<std::pair<unsigned long const ,CPythonBackground::SReserveTargetEffect> > >, COMDAT
; _this$ = ecx
  00000	e9 00 00 00 00	 jmp	 ??1?$_Tree@V?$_Tmap_traits@KUSReserveTargetEffect@CPythonBackground@@U?$less@K@std@@V?$allocator@U?$pair@$$CBKUSReserveTargetEffect@CPythonBackground@@@std@@@4@$0A@@std@@@std@@QAE@XZ ; std::_Tree<std::_Tmap_traits<unsigned long,CPythonBackground::SReserveTargetEffect,std::less<unsigned long>,std::allocator<std::pair<unsigned long const ,CPythonBackground::SReserveTargetEffect> >,0> >::~_Tree<std::_Tmap_traits<unsigned long,CPythonBackground::SReserveTargetEffect,std::less<unsigned long>,std::allocator<std::pair<unsigned long const ,CPythonBackground::SReserveTargetEffect> >,0> >
??1?$map@KUSReserveTargetEffect@CPythonBackground@@U?$less@K@std@@V?$allocator@U?$pair@$$CBKUSReserveTargetEffect@CPythonBackground@@@std@@@4@@std@@QAE@XZ ENDP ; std::map<unsigned long,CPythonBackground::SReserveTargetEffect,std::less<unsigned long>,std::allocator<std::pair<unsigned long const ,CPythonBackground::SReserveTargetEffect> > >::~map<unsigned long,CPythonBackground::SReserveTargetEffect,std::less<unsigned long>,std::allocator<std::pair<unsigned long const ,CPythonBackground::SReserveTargetEffect> > >
_TEXT	ENDS
; Function compile flags: /Ogtp
; File C:\Program Files (x86)\Microsoft Visual Studio\2019\Community\VC\Tools\MSVC\14.28.29333\include\xtree
;	COMDAT ?_Insert_node@?$_Tree_val@U?$_Tree_simple_types@U?$pair@$$CBKUSReserveTargetEffect@CPythonBackground@@@std@@@std@@@std@@QAEPAU?$_Tree_node@U?$pair@$$CBKUSReserveTargetEffect@CPythonBackground@@@std@@PAX@2@U?$_Tree_id@PAU?$_Tree_node@U?$pair@$$CBKUSReserveTargetEffect@CPythonBackground@@@std@@PAX@std@@@2@QAU32@@Z
_TEXT	SEGMENT
__Head$1$ = -8						; size = 4
_this$1$ = -4						; size = 4
__Loc$ = 8						; size = 8
__Newnode$ = 16						; size = 4
?_Insert_node@?$_Tree_val@U?$_Tree_simple_types@U?$pair@$$CBKUSReserveTargetEffect@CPythonBackground@@@std@@@std@@@std@@QAEPAU?$_Tree_node@U?$pair@$$CBKUSReserveTargetEffect@CPythonBackground@@@std@@PAX@2@U?$_Tree_id@PAU?$_Tree_node@U?$pair@$$CBKUSReserveTargetEffect@CPythonBackground@@@std@@PAX@std@@@2@QAU32@@Z PROC ; std::_Tree_val<std::_Tree_simple_types<std::pair<unsigned long const ,CPythonBackground::SReserveTargetEffect> > >::_Insert_node, COMDAT
; _this$ = ecx

; 644  :     _Nodeptr _Insert_node(const _Tree_id<_Nodeptr> _Loc, const _Nodeptr _Newnode) noexcept {

  00000	55		 push	 ebp
  00001	8b ec		 mov	 ebp, esp
  00003	83 ec 08	 sub	 esp, 8

; 645  :         ++_Mysize;
; 646  :         const auto _Head  = _Myhead;
; 647  :         _Newnode->_Parent = _Loc._Parent;

  00006	8b 55 08	 mov	 edx, DWORD PTR __Loc$[ebp]
  00009	8b c1		 mov	 eax, ecx
  0000b	89 45 fc	 mov	 DWORD PTR _this$1$[ebp], eax
  0000e	8b 08		 mov	 ecx, DWORD PTR [eax]
  00010	ff 40 04	 inc	 DWORD PTR [eax+4]
  00013	8b 45 10	 mov	 eax, DWORD PTR __Newnode$[ebp]
  00016	89 4d f8	 mov	 DWORD PTR __Head$1$[ebp], ecx
  00019	89 50 04	 mov	 DWORD PTR [eax+4], edx

; 648  :         if (_Loc._Parent == _Head) { // first node in tree, just set head values

  0001c	3b d1		 cmp	 edx, ecx
  0001e	75 12		 jne	 SHORT $LN5@Insert_nod

; 649  :             _Head->_Left     = _Newnode;

  00020	89 01		 mov	 DWORD PTR [ecx], eax

; 650  :             _Head->_Parent   = _Newnode;

  00022	89 41 04	 mov	 DWORD PTR [ecx+4], eax

; 651  :             _Head->_Right    = _Newnode;

  00025	89 41 08	 mov	 DWORD PTR [ecx+8], eax

; 652  :             _Newnode->_Color = _Black; // the root is black

  00028	c6 40 0c 01	 mov	 BYTE PTR [eax+12], 1

; 711  :     }

  0002c	8b e5		 mov	 esp, ebp
  0002e	5d		 pop	 ebp
  0002f	c2 0c 00	 ret	 12			; 0000000cH
$LN5@Insert_nod:

; 653  :             return _Newnode;
; 654  :         }
; 655  : 
; 656  :         _STL_INTERNAL_CHECK(_Loc._Child != _Tree_child::_Unused);
; 657  :         if (_Loc._Child == _Tree_child::_Right) { // add to right of _Loc._Parent

  00032	83 7d 0c 00	 cmp	 DWORD PTR __Loc$[ebp+4], 0
  00036	75 0d		 jne	 SHORT $LN6@Insert_nod

; 658  :             _STL_INTERNAL_CHECK(_Loc._Parent->_Right->_Isnil);
; 659  :             _Loc._Parent->_Right = _Newnode;

  00038	89 42 08	 mov	 DWORD PTR [edx+8], eax

; 660  :             if (_Loc._Parent == _Head->_Right) { // remember rightmost node

  0003b	3b 51 08	 cmp	 edx, DWORD PTR [ecx+8]
  0003e	75 0d		 jne	 SHORT $LN9@Insert_nod

; 661  :                 _Head->_Right = _Newnode;

  00040	89 41 08	 mov	 DWORD PTR [ecx+8], eax

; 662  :             }
; 663  :         } else { // add to left of _Loc._Parent

  00043	eb 08		 jmp	 SHORT $LN9@Insert_nod
$LN6@Insert_nod:

; 664  :             _STL_INTERNAL_CHECK(_Loc._Parent->_Left->_Isnil);
; 665  :             _Loc._Parent->_Left = _Newnode;

  00045	89 02		 mov	 DWORD PTR [edx], eax

; 666  :             if (_Loc._Parent == _Head->_Left) { // remember leftmost node

  00047	3b 11		 cmp	 edx, DWORD PTR [ecx]
  00049	75 02		 jne	 SHORT $LN9@Insert_nod

; 667  :                 _Head->_Left = _Newnode;

  0004b	89 01		 mov	 DWORD PTR [ecx], eax
$LN9@Insert_nod:

; 668  :             }
; 669  :         }
; 670  : 
; 671  :         for (_Nodeptr _Pnode = _Newnode; _Pnode->_Parent->_Color == _Red;) {

  0004d	8b d0		 mov	 edx, eax
  0004f	8b 40 04	 mov	 eax, DWORD PTR [eax+4]
  00052	80 78 0c 00	 cmp	 BYTE PTR [eax+12], 0
  00056	0f 85 99 01 00
	00		 jne	 $LN3@Insert_nod
  0005c	53		 push	 ebx
  0005d	56		 push	 esi
  0005e	57		 push	 edi
  0005f	90		 npad	 1
$LL2@Insert_nod:

; 672  :             if (_Pnode->_Parent == _Pnode->_Parent->_Parent->_Left) { // fixup red-red in left subtree

  00060	8b 4a 04	 mov	 ecx, DWORD PTR [edx+4]
  00063	8d 7a 04	 lea	 edi, DWORD PTR [edx+4]
  00066	8b 71 04	 mov	 esi, DWORD PTR [ecx+4]
  00069	8d 59 04	 lea	 ebx, DWORD PTR [ecx+4]
  0006c	8b 06		 mov	 eax, DWORD PTR [esi]
  0006e	3b c8		 cmp	 ecx, eax
  00070	0f 85 ba 00 00
	00		 jne	 $LN10@Insert_nod

; 673  :                 const auto _Parent_sibling = _Pnode->_Parent->_Parent->_Right;

  00076	8b 46 08	 mov	 eax, DWORD PTR [esi+8]

; 674  :                 if (_Parent_sibling->_Color == _Red) { // parent's sibling has two red children, blacken both

  00079	80 78 0c 00	 cmp	 BYTE PTR [eax+12], 0
  0007d	0f 84 b3 00 00
	00		 je	 $LN53@Insert_nod

; 675  :                     _Pnode->_Parent->_Color          = _Black;
; 676  :                     _Parent_sibling->_Color          = _Black;
; 677  :                     _Pnode->_Parent->_Parent->_Color = _Red;
; 678  :                     _Pnode                           = _Pnode->_Parent->_Parent;
; 679  :                 } else { // parent's sibling has red and black children
; 680  :                     if (_Pnode == _Pnode->_Parent->_Right) { // rotate right child to left

  00083	8b 71 08	 mov	 esi, DWORD PTR [ecx+8]
  00086	3b d6		 cmp	 edx, esi
  00088	75 47		 jne	 SHORT $LN51@Insert_nod

; 460  :         _Wherenode->_Right = _Pnode->_Left;

  0008a	8b 06		 mov	 eax, DWORD PTR [esi]

; 681  :                         _Pnode = _Pnode->_Parent;

  0008c	8b d1		 mov	 edx, ecx

; 460  :         _Wherenode->_Right = _Pnode->_Left;

  0008e	89 42 08	 mov	 DWORD PTR [edx+8], eax

; 461  : 
; 462  :         if (!_Pnode->_Left->_Isnil) {

  00091	8b 06		 mov	 eax, DWORD PTR [esi]
  00093	80 78 0d 00	 cmp	 BYTE PTR [eax+13], 0
  00097	75 03		 jne	 SHORT $LN20@Insert_nod

; 463  :             _Pnode->_Left->_Parent = _Wherenode;

  00099	89 50 04	 mov	 DWORD PTR [eax+4], edx
$LN20@Insert_nod:

; 464  :         }
; 465  : 
; 466  :         _Pnode->_Parent = _Wherenode->_Parent;

  0009c	8b 03		 mov	 eax, DWORD PTR [ebx]
  0009e	89 46 04	 mov	 DWORD PTR [esi+4], eax

; 467  : 
; 468  :         if (_Wherenode == _Myhead->_Parent) {

  000a1	8b 45 fc	 mov	 eax, DWORD PTR _this$1$[ebp]
  000a4	8b 00		 mov	 eax, DWORD PTR [eax]
  000a6	3b 50 04	 cmp	 edx, DWORD PTR [eax+4]
  000a9	75 0b		 jne	 SHORT $LN21@Insert_nod

; 469  :             _Myhead->_Parent = _Pnode;

  000ab	89 70 04	 mov	 DWORD PTR [eax+4], esi

; 477  :         _Wherenode->_Parent = _Pnode;

  000ae	8b fb		 mov	 edi, ebx
  000b0	89 16		 mov	 DWORD PTR [esi], edx
  000b2	89 33		 mov	 DWORD PTR [ebx], esi
  000b4	eb 1d		 jmp	 SHORT $LN49@Insert_nod
$LN21@Insert_nod:

; 470  :         } else if (_Wherenode == _Wherenode->_Parent->_Left) {

  000b6	8b 03		 mov	 eax, DWORD PTR [ebx]
  000b8	3b 10		 cmp	 edx, DWORD PTR [eax]
  000ba	75 0a		 jne	 SHORT $LN23@Insert_nod

; 471  :             _Wherenode->_Parent->_Left = _Pnode;

  000bc	89 30		 mov	 DWORD PTR [eax], esi

; 477  :         _Wherenode->_Parent = _Pnode;

  000be	8b fb		 mov	 edi, ebx
  000c0	89 16		 mov	 DWORD PTR [esi], edx
  000c2	89 33		 mov	 DWORD PTR [ebx], esi
  000c4	eb 0d		 jmp	 SHORT $LN49@Insert_nod
$LN23@Insert_nod:

; 473  :             _Wherenode->_Parent->_Right = _Pnode;

  000c6	89 70 08	 mov	 DWORD PTR [eax+8], esi

; 477  :         _Wherenode->_Parent = _Pnode;

  000c9	8b fb		 mov	 edi, ebx
  000cb	89 16		 mov	 DWORD PTR [esi], edx
  000cd	89 33		 mov	 DWORD PTR [ebx], esi
  000cf	eb 02		 jmp	 SHORT $LN49@Insert_nod
$LN51@Insert_nod:
  000d1	8b f1		 mov	 esi, ecx
$LN49@Insert_nod:

; 682  :                         _Lrotate(_Pnode);
; 683  :                     }
; 684  : 
; 685  :                     _Pnode->_Parent->_Color          = _Black; // propagate red up

  000d3	c6 46 0c 01	 mov	 BYTE PTR [esi+12], 1

; 686  :                     _Pnode->_Parent->_Parent->_Color = _Red;

  000d7	8b 07		 mov	 eax, DWORD PTR [edi]
  000d9	8b 40 04	 mov	 eax, DWORD PTR [eax+4]
  000dc	c6 40 0c 00	 mov	 BYTE PTR [eax+12], 0

; 687  :                     _Rrotate(_Pnode->_Parent->_Parent);

  000e0	8b 07		 mov	 eax, DWORD PTR [edi]
  000e2	8b 48 04	 mov	 ecx, DWORD PTR [eax+4]

; 481  :         _Nodeptr _Pnode   = _Wherenode->_Left;

  000e5	8b 31		 mov	 esi, DWORD PTR [ecx]

; 482  :         _Wherenode->_Left = _Pnode->_Right;

  000e7	8b 46 08	 mov	 eax, DWORD PTR [esi+8]
  000ea	89 01		 mov	 DWORD PTR [ecx], eax

; 483  : 
; 484  :         if (!_Pnode->_Right->_Isnil) {

  000ec	8b 46 08	 mov	 eax, DWORD PTR [esi+8]
  000ef	80 78 0d 00	 cmp	 BYTE PTR [eax+13], 0
  000f3	75 03		 jne	 SHORT $LN27@Insert_nod

; 485  :             _Pnode->_Right->_Parent = _Wherenode;

  000f5	89 48 04	 mov	 DWORD PTR [eax+4], ecx
$LN27@Insert_nod:

; 486  :         }
; 487  : 
; 488  :         _Pnode->_Parent = _Wherenode->_Parent;

  000f8	8b 41 04	 mov	 eax, DWORD PTR [ecx+4]
  000fb	89 46 04	 mov	 DWORD PTR [esi+4], eax

; 489  : 
; 490  :         if (_Wherenode == _Myhead->_Parent) {

  000fe	8b 45 fc	 mov	 eax, DWORD PTR _this$1$[ebp]
  00101	8b 00		 mov	 eax, DWORD PTR [eax]
  00103	3b 48 04	 cmp	 ecx, DWORD PTR [eax+4]
  00106	75 0b		 jne	 SHORT $LN28@Insert_nod

; 491  :             _Myhead->_Parent = _Pnode;

  00108	89 70 04	 mov	 DWORD PTR [eax+4], esi

; 496  :         }
; 497  : 
; 498  :         _Pnode->_Right      = _Wherenode;

  0010b	89 4e 08	 mov	 DWORD PTR [esi+8], ecx

; 688  :                 }
; 689  :             } else { // fixup red-red in right subtree

  0010e	e9 cc 00 00 00	 jmp	 $LN52@Insert_nod
$LN28@Insert_nod:

; 492  :         } else if (_Wherenode == _Wherenode->_Parent->_Right) {

  00113	8b 41 04	 mov	 eax, DWORD PTR [ecx+4]
  00116	3b 48 08	 cmp	 ecx, DWORD PTR [eax+8]
  00119	75 0b		 jne	 SHORT $LN30@Insert_nod

; 493  :             _Wherenode->_Parent->_Right = _Pnode;

  0011b	89 70 08	 mov	 DWORD PTR [eax+8], esi

; 496  :         }
; 497  : 
; 498  :         _Pnode->_Right      = _Wherenode;

  0011e	89 4e 08	 mov	 DWORD PTR [esi+8], ecx

; 688  :                 }
; 689  :             } else { // fixup red-red in right subtree

  00121	e9 b9 00 00 00	 jmp	 $LN52@Insert_nod
$LN30@Insert_nod:

; 495  :             _Wherenode->_Parent->_Left = _Pnode;

  00126	89 30		 mov	 DWORD PTR [eax], esi

; 496  :         }
; 497  : 
; 498  :         _Pnode->_Right      = _Wherenode;

  00128	89 4e 08	 mov	 DWORD PTR [esi+8], ecx

; 688  :                 }
; 689  :             } else { // fixup red-red in right subtree

  0012b	e9 af 00 00 00	 jmp	 $LN52@Insert_nod
$LN10@Insert_nod:

; 690  :                 const auto _Parent_sibling = _Pnode->_Parent->_Parent->_Left;
; 691  :                 if (_Parent_sibling->_Color == _Red) { // parent's sibling has two red children, blacken both

  00130	80 78 0c 00	 cmp	 BYTE PTR [eax+12], 0
  00134	75 1b		 jne	 SHORT $LN15@Insert_nod
$LN53@Insert_nod:

; 668  :             }
; 669  :         }
; 670  : 
; 671  :         for (_Nodeptr _Pnode = _Newnode; _Pnode->_Parent->_Color == _Red;) {

  00136	c6 41 0c 01	 mov	 BYTE PTR [ecx+12], 1
  0013a	c6 40 0c 01	 mov	 BYTE PTR [eax+12], 1
  0013e	8b 07		 mov	 eax, DWORD PTR [edi]
  00140	8b 40 04	 mov	 eax, DWORD PTR [eax+4]
  00143	c6 40 0c 00	 mov	 BYTE PTR [eax+12], 0
  00147	8b 07		 mov	 eax, DWORD PTR [edi]
  00149	8b 50 04	 mov	 edx, DWORD PTR [eax+4]
  0014c	e9 91 00 00 00	 jmp	 $LN46@Insert_nod
$LN15@Insert_nod:

; 692  :                     _Pnode->_Parent->_Color          = _Black;
; 693  :                     _Parent_sibling->_Color          = _Black;
; 694  :                     _Pnode->_Parent->_Parent->_Color = _Red;
; 695  :                     _Pnode                           = _Pnode->_Parent->_Parent;
; 696  :                 } else { // parent's sibling has red and black children
; 697  :                     if (_Pnode == _Pnode->_Parent->_Left) { // rotate left child to right

  00151	8b 01		 mov	 eax, DWORD PTR [ecx]
  00153	3b d0		 cmp	 edx, eax
  00155	75 3e		 jne	 SHORT $LN39@Insert_nod

; 698  :                         _Pnode = _Pnode->_Parent;

  00157	8b d1		 mov	 edx, ecx

; 481  :         _Nodeptr _Pnode   = _Wherenode->_Left;

  00159	8b c8		 mov	 ecx, eax

; 482  :         _Wherenode->_Left = _Pnode->_Right;

  0015b	8b 41 08	 mov	 eax, DWORD PTR [ecx+8]
  0015e	89 02		 mov	 DWORD PTR [edx], eax

; 483  : 
; 484  :         if (!_Pnode->_Right->_Isnil) {

  00160	8b 41 08	 mov	 eax, DWORD PTR [ecx+8]
  00163	80 78 0d 00	 cmp	 BYTE PTR [eax+13], 0
  00167	75 03		 jne	 SHORT $LN34@Insert_nod

; 485  :             _Pnode->_Right->_Parent = _Wherenode;

  00169	89 50 04	 mov	 DWORD PTR [eax+4], edx
$LN34@Insert_nod:

; 486  :         }
; 487  : 
; 488  :         _Pnode->_Parent = _Wherenode->_Parent;

  0016c	8b 03		 mov	 eax, DWORD PTR [ebx]
  0016e	89 41 04	 mov	 DWORD PTR [ecx+4], eax

; 489  : 
; 490  :         if (_Wherenode == _Myhead->_Parent) {

  00171	8b 45 fc	 mov	 eax, DWORD PTR _this$1$[ebp]
  00174	8b 00		 mov	 eax, DWORD PTR [eax]
  00176	3b 50 04	 cmp	 edx, DWORD PTR [eax+4]
  00179	75 05		 jne	 SHORT $LN35@Insert_nod

; 491  :             _Myhead->_Parent = _Pnode;

  0017b	89 48 04	 mov	 DWORD PTR [eax+4], ecx
  0017e	eb 0e		 jmp	 SHORT $LN38@Insert_nod
$LN35@Insert_nod:

; 492  :         } else if (_Wherenode == _Wherenode->_Parent->_Right) {

  00180	8b 03		 mov	 eax, DWORD PTR [ebx]
  00182	3b 50 08	 cmp	 edx, DWORD PTR [eax+8]
  00185	75 05		 jne	 SHORT $LN37@Insert_nod

; 493  :             _Wherenode->_Parent->_Right = _Pnode;

  00187	89 48 08	 mov	 DWORD PTR [eax+8], ecx

; 494  :         } else {

  0018a	eb 02		 jmp	 SHORT $LN38@Insert_nod
$LN37@Insert_nod:

; 495  :             _Wherenode->_Parent->_Left = _Pnode;

  0018c	89 08		 mov	 DWORD PTR [eax], ecx
$LN38@Insert_nod:

; 496  :         }
; 497  : 
; 498  :         _Pnode->_Right      = _Wherenode;

  0018e	89 51 08	 mov	 DWORD PTR [ecx+8], edx

; 499  :         _Wherenode->_Parent = _Pnode;

  00191	8b fb		 mov	 edi, ebx
  00193	89 0b		 mov	 DWORD PTR [ebx], ecx
$LN39@Insert_nod:

; 699  :                         _Rrotate(_Pnode);
; 700  :                     }
; 701  : 
; 702  :                     _Pnode->_Parent->_Color          = _Black; // propagate red up

  00195	c6 41 0c 01	 mov	 BYTE PTR [ecx+12], 1

; 703  :                     _Pnode->_Parent->_Parent->_Color = _Red;

  00199	8b 07		 mov	 eax, DWORD PTR [edi]
  0019b	8b 40 04	 mov	 eax, DWORD PTR [eax+4]
  0019e	c6 40 0c 00	 mov	 BYTE PTR [eax+12], 0

; 704  :                     _Lrotate(_Pnode->_Parent->_Parent);

  001a2	8b 07		 mov	 eax, DWORD PTR [edi]
  001a4	8b 48 04	 mov	 ecx, DWORD PTR [eax+4]

; 459  :         _Nodeptr _Pnode    = _Wherenode->_Right;

  001a7	8b 71 08	 mov	 esi, DWORD PTR [ecx+8]

; 460  :         _Wherenode->_Right = _Pnode->_Left;

  001aa	8b 06		 mov	 eax, DWORD PTR [esi]
  001ac	89 41 08	 mov	 DWORD PTR [ecx+8], eax

; 461  : 
; 462  :         if (!_Pnode->_Left->_Isnil) {

  001af	8b 06		 mov	 eax, DWORD PTR [esi]
  001b1	80 78 0d 00	 cmp	 BYTE PTR [eax+13], 0
  001b5	75 03		 jne	 SHORT $LN41@Insert_nod

; 463  :             _Pnode->_Left->_Parent = _Wherenode;

  001b7	89 48 04	 mov	 DWORD PTR [eax+4], ecx
$LN41@Insert_nod:

; 464  :         }
; 465  : 
; 466  :         _Pnode->_Parent = _Wherenode->_Parent;

  001ba	8b 41 04	 mov	 eax, DWORD PTR [ecx+4]
  001bd	89 46 04	 mov	 DWORD PTR [esi+4], eax

; 467  : 
; 468  :         if (_Wherenode == _Myhead->_Parent) {

  001c0	8b 45 fc	 mov	 eax, DWORD PTR _this$1$[ebp]
  001c3	8b 00		 mov	 eax, DWORD PTR [eax]
  001c5	3b 48 04	 cmp	 ecx, DWORD PTR [eax+4]
  001c8	75 05		 jne	 SHORT $LN42@Insert_nod

; 469  :             _Myhead->_Parent = _Pnode;

  001ca	89 70 04	 mov	 DWORD PTR [eax+4], esi
  001cd	eb 0e		 jmp	 SHORT $LN45@Insert_nod
$LN42@Insert_nod:

; 470  :         } else if (_Wherenode == _Wherenode->_Parent->_Left) {

  001cf	8b 41 04	 mov	 eax, DWORD PTR [ecx+4]
  001d2	3b 08		 cmp	 ecx, DWORD PTR [eax]
  001d4	75 04		 jne	 SHORT $LN44@Insert_nod

; 471  :             _Wherenode->_Parent->_Left = _Pnode;

  001d6	89 30		 mov	 DWORD PTR [eax], esi

; 472  :         } else {

  001d8	eb 03		 jmp	 SHORT $LN45@Insert_nod
$LN44@Insert_nod:

; 473  :             _Wherenode->_Parent->_Right = _Pnode;

  001da	89 70 08	 mov	 DWORD PTR [eax+8], esi
$LN45@Insert_nod:

; 474  :         }
; 475  : 
; 476  :         _Pnode->_Left       = _Wherenode;

  001dd	89 0e		 mov	 DWORD PTR [esi], ecx
$LN52@Insert_nod:

; 668  :             }
; 669  :         }
; 670  : 
; 671  :         for (_Nodeptr _Pnode = _Newnode; _Pnode->_Parent->_Color == _Red;) {

  001df	89 71 04	 mov	 DWORD PTR [ecx+4], esi
$LN46@Insert_nod:
  001e2	8b 42 04	 mov	 eax, DWORD PTR [edx+4]
  001e5	80 78 0c 00	 cmp	 BYTE PTR [eax+12], 0
  001e9	0f 84 71 fe ff
	ff		 je	 $LL2@Insert_nod
  001ef	8b 4d f8	 mov	 ecx, DWORD PTR __Head$1$[ebp]
  001f2	5f		 pop	 edi
  001f3	5e		 pop	 esi
  001f4	5b		 pop	 ebx
$LN3@Insert_nod:

; 705  :                 }
; 706  :             }
; 707  :         }
; 708  : 
; 709  :         _Head->_Parent->_Color = _Black; // root is always black

  001f5	8b 41 04	 mov	 eax, DWORD PTR [ecx+4]
  001f8	c6 40 0c 01	 mov	 BYTE PTR [eax+12], 1

; 710  :         return _Newnode;

  001fc	8b 45 10	 mov	 eax, DWORD PTR __Newnode$[ebp]

; 711  :     }

  001ff	8b e5		 mov	 esp, ebp
  00201	5d		 pop	 ebp
  00202	c2 0c 00	 ret	 12			; 0000000cH
?_Insert_node@?$_Tree_val@U?$_Tree_simple_types@U?$pair@$$CBKUSReserveTargetEffect@CPythonBackground@@@std@@@std@@@std@@QAEPAU?$_Tree_node@U?$pair@$$CBKUSReserveTargetEffect@CPythonBackground@@@std@@PAX@2@U?$_Tree_id@PAU?$_Tree_node@U?$pair@$$CBKUSReserveTargetEffect@CPythonBackground@@@std@@PAX@std@@@2@QAU32@@Z ENDP ; std::_Tree_val<std::_Tree_simple_types<std::pair<unsigned long const ,CPythonBackground::SReserveTargetEffect> > >::_Insert_node
_TEXT	ENDS
; Function compile flags: /Ogtp
; File C:\Program Files (x86)\Microsoft Visual Studio\2019\Community\VC\Tools\MSVC\14.28.29333\include\xtree
; File C:\Program Files (x86)\Microsoft Visual Studio\2019\Community\VC\Tools\MSVC\14.28.29333\include\utility
; File C:\Program Files (x86)\Microsoft Visual Studio\2019\Community\VC\Tools\MSVC\14.28.29333\include\xtree
; File C:\Program Files (x86)\Microsoft Visual Studio\2019\Community\VC\Tools\MSVC\14.28.29333\include\utility
; File C:\Program Files (x86)\Microsoft Visual Studio\2019\Community\VC\Tools\MSVC\14.28.29333\include\xtree
;	COMDAT ?_Extract@?$_Tree_val@U?$_Tree_simple_types@U?$pair@$$CBKUSReserveTargetEffect@CPythonBackground@@@std@@@std@@@std@@QAEPAU?$_Tree_node@U?$pair@$$CBKUSReserveTargetEffect@CPythonBackground@@@std@@PAX@2@V?$_Tree_unchecked_const_iterator@V?$_Tree_val@U?$_Tree_simple_types@U?$pair@$$CBKUSReserveTargetEffect@CPythonBackground@@@std@@@std@@@std@@U_Iterator_base0@2@@2@@Z
_TEXT	SEGMENT
tv1186 = -8						; size = 4
tv1182 = -8						; size = 4
tv1149 = -8						; size = 4
__Erasednode$1$ = -4					; size = 4
__Where$ = 8						; size = 4
?_Extract@?$_Tree_val@U?$_Tree_simple_types@U?$pair@$$CBKUSReserveTargetEffect@CPythonBackground@@@std@@@std@@@std@@QAEPAU?$_Tree_node@U?$pair@$$CBKUSReserveTargetEffect@CPythonBackground@@@std@@PAX@2@V?$_Tree_unchecked_const_iterator@V?$_Tree_val@U?$_Tree_simple_types@U?$pair@$$CBKUSReserveTargetEffect@CPythonBackground@@@std@@@std@@@std@@U_Iterator_base0@2@@2@@Z PROC ; std::_Tree_val<std::_Tree_simple_types<std::pair<unsigned long const ,CPythonBackground::SReserveTargetEffect> > >::_Extract, COMDAT
; _this$ = ecx

; 502  :     _Nodeptr _Extract(_Unchecked_const_iterator _Where) noexcept {

  00000	55		 push	 ebp
  00001	8b ec		 mov	 ebp, esp
  00003	83 ec 08	 sub	 esp, 8

; 503  :         _Nodeptr _Erasednode = _Where._Ptr; // node to erase

  00006	8b 45 08	 mov	 eax, DWORD PTR __Where$[ebp]
  00009	53		 push	 ebx
  0000a	56		 push	 esi
  0000b	8b d9		 mov	 ebx, ecx
  0000d	89 45 fc	 mov	 DWORD PTR __Erasednode$1$[ebp], eax
  00010	57		 push	 edi

; 504  :         ++_Where; // save successor iterator for return

  00011	8d 4d 08	 lea	 ecx, DWORD PTR __Where$[ebp]
  00014	e8 00 00 00 00	 call	 ??E?$_Tree_unchecked_const_iterator@V?$_Tree_val@U?$_Tree_simple_types@U?$pair@$$CBKUSReserveTargetEffect@CPythonBackground@@@std@@@std@@@std@@U_Iterator_base0@2@@std@@QAEAAV01@XZ ; std::_Tree_unchecked_const_iterator<std::_Tree_val<std::_Tree_simple_types<std::pair<unsigned long const ,CPythonBackground::SReserveTargetEffect> > >,std::_Iterator_base0>::operator++

; 505  : 
; 506  :         _Nodeptr _Fixnode; // the node to recolor as needed
; 507  :         _Nodeptr _Fixnodeparent; // parent of _Fixnode (which may be nil)
; 508  :         _Nodeptr _Pnode = _Erasednode;
; 509  : 
; 510  :         if (_Pnode->_Left->_Isnil) {

  00019	8b 55 fc	 mov	 edx, DWORD PTR __Erasednode$1$[ebp]
  0001c	8b 02		 mov	 eax, DWORD PTR [edx]
  0001e	8b 7a 08	 mov	 edi, DWORD PTR [edx+8]
  00021	80 78 0d 00	 cmp	 BYTE PTR [eax+13], 0
  00025	75 18		 jne	 SHORT $LN86@Extract

; 511  :             _Fixnode = _Pnode->_Right; // stitch up right subtree
; 512  :         } else if (_Pnode->_Right->_Isnil) {

  00027	80 7f 0d 00	 cmp	 BYTE PTR [edi+13], 0
  0002b	74 04		 je	 SHORT $LN7@Extract

; 513  :             _Fixnode = _Pnode->_Left; // stitch up left subtree

  0002d	8b f8		 mov	 edi, eax

; 514  :         } else { // two subtrees, must lift successor node to replace erased

  0002f	eb 0e		 jmp	 SHORT $LN86@Extract
$LN7@Extract:

; 515  :             _Pnode   = _Where._Ptr; // _Pnode is successor node

  00031	8b 4d 08	 mov	 ecx, DWORD PTR __Where$[ebp]

; 516  :             _Fixnode = _Pnode->_Right; // _Fixnode is only subtree

  00034	8b 79 08	 mov	 edi, DWORD PTR [ecx+8]
  00037	3b ca		 cmp	 ecx, edx

; 517  :         }
; 518  : 
; 519  :         if (_Pnode == _Erasednode) { // at most one subtree, relink it

  00039	0f 85 8b 00 00
	00		 jne	 $LN9@Extract
$LN86@Extract:

; 520  :             _Fixnodeparent = _Erasednode->_Parent;
; 521  :             if (!_Fixnode->_Isnil) {

  0003f	80 7f 0d 00	 cmp	 BYTE PTR [edi+13], 0
  00043	8b 72 04	 mov	 esi, DWORD PTR [edx+4]
  00046	75 03		 jne	 SHORT $LN11@Extract

; 522  :                 _Fixnode->_Parent = _Fixnodeparent; // link up

  00048	89 77 04	 mov	 DWORD PTR [edi+4], esi
$LN11@Extract:

; 523  :             }
; 524  : 
; 525  :             if (_Myhead->_Parent == _Erasednode) {

  0004b	8b 03		 mov	 eax, DWORD PTR [ebx]
  0004d	39 50 04	 cmp	 DWORD PTR [eax+4], edx
  00050	75 05		 jne	 SHORT $LN12@Extract

; 526  :                 _Myhead->_Parent = _Fixnode; // link down from root

  00052	89 78 04	 mov	 DWORD PTR [eax+4], edi
  00055	eb 0b		 jmp	 SHORT $LN15@Extract
$LN12@Extract:

; 527  :             } else if (_Fixnodeparent->_Left == _Erasednode) {

  00057	39 16		 cmp	 DWORD PTR [esi], edx
  00059	75 04		 jne	 SHORT $LN14@Extract

; 528  :                 _Fixnodeparent->_Left = _Fixnode; // link down to left

  0005b	89 3e		 mov	 DWORD PTR [esi], edi

; 529  :             } else {

  0005d	eb 03		 jmp	 SHORT $LN15@Extract
$LN14@Extract:

; 530  :                 _Fixnodeparent->_Right = _Fixnode; // link down to right

  0005f	89 7e 08	 mov	 DWORD PTR [esi+8], edi
$LN15@Extract:

; 531  :             }
; 532  : 
; 533  :             if (_Myhead->_Left == _Erasednode) {

  00062	8b 03		 mov	 eax, DWORD PTR [ebx]
  00064	39 10		 cmp	 DWORD PTR [eax], edx
  00066	75 2b		 jne	 SHORT $LN16@Extract

; 534  :                 _Myhead->_Left = _Fixnode->_Isnil ? _Fixnodeparent // smallest is parent of erased node

  00068	80 7f 0d 00	 cmp	 BYTE PTR [edi+13], 0
  0006c	74 04		 je	 SHORT $LN42@Extract
  0006e	8b d6		 mov	 edx, esi
  00070	eb 1c		 jmp	 SHORT $LN48@Extract
$LN42@Extract:

; 451  :         while (!_Pnode->_Left->_Isnil) {

  00072	8b 0f		 mov	 ecx, DWORD PTR [edi]

; 534  :                 _Myhead->_Left = _Fixnode->_Isnil ? _Fixnodeparent // smallest is parent of erased node

  00074	8b d7		 mov	 edx, edi

; 451  :         while (!_Pnode->_Left->_Isnil) {

  00076	80 79 0d 00	 cmp	 BYTE PTR [ecx+13], 0
  0007a	75 12		 jne	 SHORT $LN48@Extract
  0007c	0f 1f 40 00	 npad	 4
$LL47@Extract:
  00080	8b 01		 mov	 eax, DWORD PTR [ecx]

; 452  :             _Pnode = _Pnode->_Left;

  00082	8b d1		 mov	 edx, ecx
  00084	8b c8		 mov	 ecx, eax
  00086	80 78 0d 00	 cmp	 BYTE PTR [eax+13], 0
  0008a	74 f4		 je	 SHORT $LL47@Extract
  0008c	8b 03		 mov	 eax, DWORD PTR [ebx]
$LN48@Extract:

; 534  :                 _Myhead->_Left = _Fixnode->_Isnil ? _Fixnodeparent // smallest is parent of erased node

  0008e	89 10		 mov	 DWORD PTR [eax], edx
  00090	8b 55 fc	 mov	 edx, DWORD PTR __Erasednode$1$[ebp]
$LN16@Extract:

; 535  :                                                   : _Min(_Fixnode); // smallest in relinked subtree
; 536  :             }
; 537  : 
; 538  :             if (_Myhead->_Right == _Erasednode) {

  00093	8b 03		 mov	 eax, DWORD PTR [ebx]
  00095	39 50 08	 cmp	 DWORD PTR [eax+8], edx
  00098	75 2b		 jne	 SHORT $LN17@Extract

; 539  :                 _Myhead->_Right = _Fixnode->_Isnil ? _Fixnodeparent // largest is parent of erased node

  0009a	80 7f 0d 00	 cmp	 BYTE PTR [edi+13], 0
  0009e	74 0a		 je	 SHORT $LN44@Extract
  000a0	8b ce		 mov	 ecx, esi
  000a2	89 48 08	 mov	 DWORD PTR [eax+8], ecx

; 540  :                                                    : _Max(_Fixnode); // largest in relinked subtree
; 541  :             }
; 542  :         } else { // erased has two subtrees, _Pnode is successor to erased

  000a5	8a 52 0c	 mov	 dl, BYTE PTR [edx+12]
  000a8	eb 7c		 jmp	 SHORT $LN55@Extract
$LN44@Extract:

; 443  :         while (!_Pnode->_Right->_Isnil) {

  000aa	8b 47 08	 mov	 eax, DWORD PTR [edi+8]

; 539  :                 _Myhead->_Right = _Fixnode->_Isnil ? _Fixnodeparent // largest is parent of erased node

  000ad	8b cf		 mov	 ecx, edi

; 443  :         while (!_Pnode->_Right->_Isnil) {

  000af	80 78 0d 00	 cmp	 BYTE PTR [eax+13], 0
  000b3	75 0b		 jne	 SHORT $LN52@Extract
$LL51@Extract:

; 444  :             _Pnode = _Pnode->_Right;

  000b5	8b c8		 mov	 ecx, eax
  000b7	8b 41 08	 mov	 eax, DWORD PTR [ecx+8]
  000ba	80 78 0d 00	 cmp	 BYTE PTR [eax+13], 0
  000be	74 f5		 je	 SHORT $LL51@Extract
$LN52@Extract:
  000c0	8b 03		 mov	 eax, DWORD PTR [ebx]

; 539  :                 _Myhead->_Right = _Fixnode->_Isnil ? _Fixnodeparent // largest is parent of erased node

  000c2	89 48 08	 mov	 DWORD PTR [eax+8], ecx
$LN17@Extract:

; 540  :                                                    : _Max(_Fixnode); // largest in relinked subtree
; 541  :             }
; 542  :         } else { // erased has two subtrees, _Pnode is successor to erased

  000c5	8a 52 0c	 mov	 dl, BYTE PTR [edx+12]
  000c8	eb 5c		 jmp	 SHORT $LN55@Extract
$LN9@Extract:

; 543  :             _Erasednode->_Left->_Parent = _Pnode; // link left up

  000ca	89 48 04	 mov	 DWORD PTR [eax+4], ecx

; 544  :             _Pnode->_Left               = _Erasednode->_Left; // link successor down

  000cd	8b 02		 mov	 eax, DWORD PTR [edx]
  000cf	89 01		 mov	 DWORD PTR [ecx], eax

; 545  : 
; 546  :             if (_Pnode == _Erasednode->_Right) {

  000d1	3b 4a 08	 cmp	 ecx, DWORD PTR [edx+8]
  000d4	75 04		 jne	 SHORT $LN18@Extract

; 547  :                 _Fixnodeparent = _Pnode; // successor is next to erased

  000d6	8b f1		 mov	 esi, ecx

; 548  :             } else { // successor further down, link in place of erased

  000d8	eb 1a		 jmp	 SHORT $LN19@Extract
$LN18@Extract:

; 549  :                 _Fixnodeparent = _Pnode->_Parent; // parent is successor's
; 550  :                 if (!_Fixnode->_Isnil) {

  000da	80 7f 0d 00	 cmp	 BYTE PTR [edi+13], 0
  000de	8b 71 04	 mov	 esi, DWORD PTR [ecx+4]
  000e1	75 03		 jne	 SHORT $LN20@Extract

; 551  :                     _Fixnode->_Parent = _Fixnodeparent; // link fix up

  000e3	89 77 04	 mov	 DWORD PTR [edi+4], esi
$LN20@Extract:

; 552  :                 }
; 553  : 
; 554  :                 _Fixnodeparent->_Left        = _Fixnode; // link fix down

  000e6	89 3e		 mov	 DWORD PTR [esi], edi

; 555  :                 _Pnode->_Right               = _Erasednode->_Right; // link next down

  000e8	8b 42 08	 mov	 eax, DWORD PTR [edx+8]
  000eb	89 41 08	 mov	 DWORD PTR [ecx+8], eax

; 556  :                 _Erasednode->_Right->_Parent = _Pnode; // right up

  000ee	8b 42 08	 mov	 eax, DWORD PTR [edx+8]
  000f1	89 48 04	 mov	 DWORD PTR [eax+4], ecx
$LN19@Extract:

; 557  :             }
; 558  : 
; 559  :             if (_Myhead->_Parent == _Erasednode) {

  000f4	8b 03		 mov	 eax, DWORD PTR [ebx]
  000f6	39 50 04	 cmp	 DWORD PTR [eax+4], edx
  000f9	75 05		 jne	 SHORT $LN21@Extract

; 560  :                 _Myhead->_Parent = _Pnode; // link down from root

  000fb	89 48 04	 mov	 DWORD PTR [eax+4], ecx
  000fe	eb 0e		 jmp	 SHORT $LN24@Extract
$LN21@Extract:

; 561  :             } else if (_Erasednode->_Parent->_Left == _Erasednode) {

  00100	8b 42 04	 mov	 eax, DWORD PTR [edx+4]
  00103	39 10		 cmp	 DWORD PTR [eax], edx
  00105	75 04		 jne	 SHORT $LN23@Extract

; 562  :                 _Erasednode->_Parent->_Left = _Pnode; // link down to left

  00107	89 08		 mov	 DWORD PTR [eax], ecx

; 563  :             } else {

  00109	eb 03		 jmp	 SHORT $LN24@Extract
$LN23@Extract:

; 564  :                 _Erasednode->_Parent->_Right = _Pnode; // link down to right

  0010b	89 48 08	 mov	 DWORD PTR [eax+8], ecx
$LN24@Extract:

; 567  :             _Pnode->_Parent = _Erasednode->_Parent; // link successor up

  0010e	8b 42 04	 mov	 eax, DWORD PTR [edx+4]
; File C:\Program Files (x86)\Microsoft Visual Studio\2019\Community\VC\Tools\MSVC\14.28.29333\include\utility

; 104  :     _Ty _Tmp = _STD move(_Left);

  00111	8a 51 0c	 mov	 dl, BYTE PTR [ecx+12]
; File C:\Program Files (x86)\Microsoft Visual Studio\2019\Community\VC\Tools\MSVC\14.28.29333\include\xtree

; 567  :             _Pnode->_Parent = _Erasednode->_Parent; // link successor up

  00114	89 41 04	 mov	 DWORD PTR [ecx+4], eax
; File C:\Program Files (x86)\Microsoft Visual Studio\2019\Community\VC\Tools\MSVC\14.28.29333\include\utility

; 105  :     _Left    = _STD move(_Right);

  00117	8b 45 fc	 mov	 eax, DWORD PTR __Erasednode$1$[ebp]
  0011a	8a 40 0c	 mov	 al, BYTE PTR [eax+12]
  0011d	88 41 0c	 mov	 BYTE PTR [ecx+12], al

; 106  :     _Right   = _STD move(_Tmp);

  00120	8b 45 fc	 mov	 eax, DWORD PTR __Erasednode$1$[ebp]
  00123	88 50 0c	 mov	 BYTE PTR [eax+12], dl
$LN55@Extract:
; File C:\Program Files (x86)\Microsoft Visual Studio\2019\Community\VC\Tools\MSVC\14.28.29333\include\xtree

; 571  :         if (_Erasednode->_Color == _Black) { // erasing black link, must recolor/rebalance tree

  00126	80 fa 01	 cmp	 dl, 1
  00129	0f 85 46 01 00
	00		 jne	 $LN25@Extract

; 572  :             for (; _Fixnode != _Myhead->_Parent && _Fixnode->_Color == _Black; _Fixnodeparent = _Fixnode->_Parent) {

  0012f	8b 03		 mov	 eax, DWORD PTR [ebx]
  00131	3b 78 04	 cmp	 edi, DWORD PTR [eax+4]
  00134	0f 84 37 01 00
	00		 je	 $LN3@Extract
  0013a	66 0f 1f 44 00
	00		 npad	 6
$LL4@Extract:
  00140	80 7f 0c 01	 cmp	 BYTE PTR [edi+12], 1
  00144	89 75 f8	 mov	 DWORD PTR tv1186[ebp], esi
  00147	0f 85 24 01 00
	00		 jne	 $LN3@Extract

; 573  :                 if (_Fixnode == _Fixnodeparent->_Left) { // fixup left subtree

  0014d	8b 0e		 mov	 ecx, DWORD PTR [esi]
  0014f	3b f9		 cmp	 edi, ecx
  00151	0f 85 a2 00 00
	00		 jne	 $LN26@Extract

; 574  :                     _Pnode = _Fixnodeparent->_Right;

  00157	8b 4e 08	 mov	 ecx, DWORD PTR [esi+8]

; 575  :                     if (_Pnode->_Color == _Red) { // rotate red up from right subtree

  0015a	80 79 0c 00	 cmp	 BYTE PTR [ecx+12], 0
  0015e	75 43		 jne	 SHORT $LN87@Extract

; 576  :                         _Pnode->_Color         = _Black;

  00160	c6 41 0c 01	 mov	 BYTE PTR [ecx+12], 1

; 459  :         _Nodeptr _Pnode    = _Wherenode->_Right;

  00164	8b 4e 08	 mov	 ecx, DWORD PTR [esi+8]

; 577  :                         _Fixnodeparent->_Color = _Red;

  00167	c6 46 0c 00	 mov	 BYTE PTR [esi+12], 0

; 460  :         _Wherenode->_Right = _Pnode->_Left;

  0016b	8b 01		 mov	 eax, DWORD PTR [ecx]
  0016d	89 46 08	 mov	 DWORD PTR [esi+8], eax

; 461  : 
; 462  :         if (!_Pnode->_Left->_Isnil) {

  00170	8b 01		 mov	 eax, DWORD PTR [ecx]
  00172	80 78 0d 00	 cmp	 BYTE PTR [eax+13], 0
  00176	75 03		 jne	 SHORT $LN57@Extract

; 463  :             _Pnode->_Left->_Parent = _Wherenode;

  00178	89 70 04	 mov	 DWORD PTR [eax+4], esi
$LN57@Extract:

; 464  :         }
; 465  : 
; 466  :         _Pnode->_Parent = _Wherenode->_Parent;

  0017b	8b 46 04	 mov	 eax, DWORD PTR [esi+4]
  0017e	89 41 04	 mov	 DWORD PTR [ecx+4], eax

; 467  : 
; 468  :         if (_Wherenode == _Myhead->_Parent) {

  00181	8b 03		 mov	 eax, DWORD PTR [ebx]
  00183	3b 70 04	 cmp	 esi, DWORD PTR [eax+4]
  00186	75 05		 jne	 SHORT $LN58@Extract

; 469  :             _Myhead->_Parent = _Pnode;

  00188	89 48 04	 mov	 DWORD PTR [eax+4], ecx
  0018b	eb 0e		 jmp	 SHORT $LN61@Extract
$LN58@Extract:

; 470  :         } else if (_Wherenode == _Wherenode->_Parent->_Left) {

  0018d	8b 46 04	 mov	 eax, DWORD PTR [esi+4]
  00190	3b 30		 cmp	 esi, DWORD PTR [eax]
  00192	75 04		 jne	 SHORT $LN60@Extract

; 471  :             _Wherenode->_Parent->_Left = _Pnode;

  00194	89 08		 mov	 DWORD PTR [eax], ecx

; 472  :         } else {

  00196	eb 03		 jmp	 SHORT $LN61@Extract
$LN60@Extract:

; 473  :             _Wherenode->_Parent->_Right = _Pnode;

  00198	89 48 08	 mov	 DWORD PTR [eax+8], ecx
$LN61@Extract:

; 474  :         }
; 475  : 
; 476  :         _Pnode->_Left       = _Wherenode;

  0019b	89 31		 mov	 DWORD PTR [ecx], esi

; 477  :         _Wherenode->_Parent = _Pnode;

  0019d	89 4e 04	 mov	 DWORD PTR [esi+4], ecx

; 578  :                         _Lrotate(_Fixnodeparent);
; 579  :                         _Pnode = _Fixnodeparent->_Right;

  001a0	8b 4e 08	 mov	 ecx, DWORD PTR [esi+8]
$LN87@Extract:

; 580  :                     }
; 581  : 
; 582  :                     if (_Pnode->_Isnil) {

  001a3	80 79 0d 00	 cmp	 BYTE PTR [ecx+13], 0
  001a7	0f 85 b1 00 00
	00		 jne	 $LN2@Extract

; 583  :                         _Fixnode = _Fixnodeparent; // shouldn't happen
; 584  :                     } else if (_Pnode->_Left->_Color == _Black
; 585  :                                && _Pnode->_Right->_Color == _Black) { // redden right subtree with black children

  001ad	8b 11		 mov	 edx, DWORD PTR [ecx]
  001af	80 7a 0c 01	 cmp	 BYTE PTR [edx+12], 1
  001b3	75 0d		 jne	 SHORT $LN89@Extract
  001b5	8b 41 08	 mov	 eax, DWORD PTR [ecx+8]
  001b8	80 78 0c 01	 cmp	 BYTE PTR [eax+12], 1
  001bc	0f 84 98 00 00
	00		 je	 $LN93@Extract
$LN89@Extract:

; 586  :                         _Pnode->_Color = _Red;
; 587  :                         _Fixnode       = _Fixnodeparent;
; 588  :                     } else { // must rearrange right subtree
; 589  :                         if (_Pnode->_Right->_Color == _Black) { // rotate red up from left sub-subtree

  001c2	8b 41 08	 mov	 eax, DWORD PTR [ecx+8]
  001c5	80 78 0c 01	 cmp	 BYTE PTR [eax+12], 1
  001c9	75 13		 jne	 SHORT $LN33@Extract

; 590  :                             _Pnode->_Left->_Color = _Black;

  001cb	c6 42 0c 01	 mov	 BYTE PTR [edx+12], 1

; 591  :                             _Pnode->_Color        = _Red;

  001cf	c6 41 0c 00	 mov	 BYTE PTR [ecx+12], 0

; 592  :                             _Rrotate(_Pnode);

  001d3	51		 push	 ecx
  001d4	8b cb		 mov	 ecx, ebx
  001d6	e8 00 00 00 00	 call	 ?_Rrotate@?$_Tree_val@U?$_Tree_simple_types@U?$pair@$$CBKUSReserveTargetEffect@CPythonBackground@@@std@@@std@@@std@@QAEXPAU?$_Tree_node@U?$pair@$$CBKUSReserveTargetEffect@CPythonBackground@@@std@@PAX@2@@Z ; std::_Tree_val<std::_Tree_simple_types<std::pair<unsigned long const ,CPythonBackground::SReserveTargetEffect> > >::_Rrotate

; 593  :                             _Pnode = _Fixnodeparent->_Right;

  001db	8b 4e 08	 mov	 ecx, DWORD PTR [esi+8]
$LN33@Extract:

; 594  :                         }
; 595  : 
; 596  :                         _Pnode->_Color         = _Fixnodeparent->_Color;

  001de	8a 46 0c	 mov	 al, BYTE PTR [esi+12]
  001e1	88 41 0c	 mov	 BYTE PTR [ecx+12], al

; 597  :                         _Fixnodeparent->_Color = _Black;

  001e4	c6 46 0c 01	 mov	 BYTE PTR [esi+12], 1

; 598  :                         _Pnode->_Right->_Color = _Black;

  001e8	8b 41 08	 mov	 eax, DWORD PTR [ecx+8]

; 599  :                         _Lrotate(_Fixnodeparent);

  001eb	8b cb		 mov	 ecx, ebx
  001ed	56		 push	 esi
  001ee	c6 40 0c 01	 mov	 BYTE PTR [eax+12], 1
  001f2	e8 00 00 00 00	 call	 ?_Lrotate@?$_Tree_val@U?$_Tree_simple_types@U?$pair@$$CBKUSReserveTargetEffect@CPythonBackground@@@std@@@std@@@std@@QAEXPAU?$_Tree_node@U?$pair@$$CBKUSReserveTargetEffect@CPythonBackground@@@std@@PAX@2@@Z ; std::_Tree_val<std::_Tree_simple_types<std::pair<unsigned long const ,CPythonBackground::SReserveTargetEffect> > >::_Lrotate

; 600  :                         break; // tree now recolored/rebalanced

  001f7	eb 78		 jmp	 SHORT $LN3@Extract
$LN26@Extract:

; 601  :                     }
; 602  :                 } else { // fixup right subtree
; 603  :                     _Pnode = _Fixnodeparent->_Left;
; 604  :                     if (_Pnode->_Color == _Red) { // rotate red up from left subtree

  001f9	80 79 0c 00	 cmp	 BYTE PTR [ecx+12], 0
  001fd	75 44		 jne	 SHORT $LN88@Extract

; 605  :                         _Pnode->_Color         = _Black;

  001ff	c6 41 0c 01	 mov	 BYTE PTR [ecx+12], 1

; 481  :         _Nodeptr _Pnode   = _Wherenode->_Left;

  00203	8b 0e		 mov	 ecx, DWORD PTR [esi]

; 606  :                         _Fixnodeparent->_Color = _Red;

  00205	c6 46 0c 00	 mov	 BYTE PTR [esi+12], 0

; 482  :         _Wherenode->_Left = _Pnode->_Right;

  00209	8b 41 08	 mov	 eax, DWORD PTR [ecx+8]
  0020c	89 06		 mov	 DWORD PTR [esi], eax

; 483  : 
; 484  :         if (!_Pnode->_Right->_Isnil) {

  0020e	8b 41 08	 mov	 eax, DWORD PTR [ecx+8]
  00211	80 78 0d 00	 cmp	 BYTE PTR [eax+13], 0
  00215	75 03		 jne	 SHORT $LN64@Extract

; 485  :             _Pnode->_Right->_Parent = _Wherenode;

  00217	89 70 04	 mov	 DWORD PTR [eax+4], esi
$LN64@Extract:

; 486  :         }
; 487  : 
; 488  :         _Pnode->_Parent = _Wherenode->_Parent;

  0021a	8b 46 04	 mov	 eax, DWORD PTR [esi+4]
  0021d	89 41 04	 mov	 DWORD PTR [ecx+4], eax

; 489  : 
; 490  :         if (_Wherenode == _Myhead->_Parent) {

  00220	8b 03		 mov	 eax, DWORD PTR [ebx]
  00222	3b 70 04	 cmp	 esi, DWORD PTR [eax+4]
  00225	75 05		 jne	 SHORT $LN65@Extract

; 491  :             _Myhead->_Parent = _Pnode;

  00227	89 48 04	 mov	 DWORD PTR [eax+4], ecx
  0022a	eb 0f		 jmp	 SHORT $LN68@Extract
$LN65@Extract:

; 492  :         } else if (_Wherenode == _Wherenode->_Parent->_Right) {

  0022c	8b 46 04	 mov	 eax, DWORD PTR [esi+4]
  0022f	3b 70 08	 cmp	 esi, DWORD PTR [eax+8]
  00232	75 05		 jne	 SHORT $LN67@Extract

; 493  :             _Wherenode->_Parent->_Right = _Pnode;

  00234	89 48 08	 mov	 DWORD PTR [eax+8], ecx

; 494  :         } else {

  00237	eb 02		 jmp	 SHORT $LN68@Extract
$LN67@Extract:

; 495  :             _Wherenode->_Parent->_Left = _Pnode;

  00239	89 08		 mov	 DWORD PTR [eax], ecx
$LN68@Extract:

; 496  :         }
; 497  : 
; 498  :         _Pnode->_Right      = _Wherenode;

  0023b	89 71 08	 mov	 DWORD PTR [ecx+8], esi

; 499  :         _Wherenode->_Parent = _Pnode;

  0023e	89 4e 04	 mov	 DWORD PTR [esi+4], ecx

; 607  :                         _Rrotate(_Fixnodeparent);
; 608  :                         _Pnode = _Fixnodeparent->_Left;

  00241	8b 0e		 mov	 ecx, DWORD PTR [esi]
$LN88@Extract:

; 609  :                     }
; 610  : 
; 611  :                     if (_Pnode->_Isnil) {

  00243	80 79 0d 00	 cmp	 BYTE PTR [ecx+13], 0
  00247	75 15		 jne	 SHORT $LN2@Extract

; 612  :                         _Fixnode = _Fixnodeparent; // shouldn't happen
; 613  :                     } else if (_Pnode->_Right->_Color == _Black
; 614  :                                && _Pnode->_Left->_Color == _Black) { // redden left subtree with black children

  00249	8b 51 08	 mov	 edx, DWORD PTR [ecx+8]
  0024c	80 7a 0c 01	 cmp	 BYTE PTR [edx+12], 1
  00250	75 3a		 jne	 SHORT $LN90@Extract
  00252	8b 01		 mov	 eax, DWORD PTR [ecx]
  00254	80 78 0c 01	 cmp	 BYTE PTR [eax+12], 1
  00258	75 32		 jne	 SHORT $LN90@Extract
$LN93@Extract:

; 572  :             for (; _Fixnode != _Myhead->_Parent && _Fixnode->_Color == _Black; _Fixnodeparent = _Fixnode->_Parent) {

  0025a	c6 41 0c 00	 mov	 BYTE PTR [ecx+12], 0
$LN2@Extract:
  0025e	8b 03		 mov	 eax, DWORD PTR [ebx]
  00260	8b 4d f8	 mov	 ecx, DWORD PTR tv1186[ebp]
  00263	8b f9		 mov	 edi, ecx
  00265	8b 76 04	 mov	 esi, DWORD PTR [esi+4]
  00268	3b 48 04	 cmp	 ecx, DWORD PTR [eax+4]
  0026b	0f 85 cf fe ff
	ff		 jne	 $LL4@Extract
$LN3@Extract:

; 629  :                         break; // tree now recolored/rebalanced
; 630  :                     }
; 631  :                 }
; 632  :             }
; 633  : 
; 634  :             _Fixnode->_Color = _Black; // stopping node is black

  00271	c6 47 0c 01	 mov	 BYTE PTR [edi+12], 1
$LN25@Extract:

; 635  :         }
; 636  : 
; 637  :         if (0 < _Mysize) {

  00275	8b 4b 04	 mov	 ecx, DWORD PTR [ebx+4]
  00278	8b 45 fc	 mov	 eax, DWORD PTR __Erasednode$1$[ebp]
  0027b	85 c9		 test	 ecx, ecx
  0027d	74 04		 je	 SHORT $LN40@Extract

; 638  :             --_Mysize;

  0027f	49		 dec	 ecx
  00280	89 4b 04	 mov	 DWORD PTR [ebx+4], ecx
$LN40@Extract:

; 639  :         }
; 640  : 
; 641  :         return _Erasednode;
; 642  :     }

  00283	5f		 pop	 edi
  00284	5e		 pop	 esi
  00285	5b		 pop	 ebx
  00286	8b e5		 mov	 esp, ebp
  00288	5d		 pop	 ebp
  00289	c2 04 00	 ret	 4
$LN90@Extract:

; 615  :                         _Pnode->_Color = _Red;
; 616  :                         _Fixnode       = _Fixnodeparent;
; 617  :                     } else { // must rearrange left subtree
; 618  :                         if (_Pnode->_Left->_Color == _Black) { // rotate red up from right sub-subtree

  0028c	8b 01		 mov	 eax, DWORD PTR [ecx]
  0028e	80 78 0c 01	 cmp	 BYTE PTR [eax+12], 1
  00292	75 12		 jne	 SHORT $LN39@Extract

; 619  :                             _Pnode->_Right->_Color = _Black;

  00294	c6 42 0c 01	 mov	 BYTE PTR [edx+12], 1

; 620  :                             _Pnode->_Color         = _Red;

  00298	c6 41 0c 00	 mov	 BYTE PTR [ecx+12], 0

; 621  :                             _Lrotate(_Pnode);

  0029c	51		 push	 ecx
  0029d	8b cb		 mov	 ecx, ebx
  0029f	e8 00 00 00 00	 call	 ?_Lrotate@?$_Tree_val@U?$_Tree_simple_types@U?$pair@$$CBKUSReserveTargetEffect@CPythonBackground@@@std@@@std@@@std@@QAEXPAU?$_Tree_node@U?$pair@$$CBKUSReserveTargetEffect@CPythonBackground@@@std@@PAX@2@@Z ; std::_Tree_val<std::_Tree_simple_types<std::pair<unsigned long const ,CPythonBackground::SReserveTargetEffect> > >::_Lrotate

; 622  :                             _Pnode = _Fixnodeparent->_Left;

  002a4	8b 0e		 mov	 ecx, DWORD PTR [esi]
$LN39@Extract:

; 623  :                         }
; 624  : 
; 625  :                         _Pnode->_Color         = _Fixnodeparent->_Color;

  002a6	8a 46 0c	 mov	 al, BYTE PTR [esi+12]
  002a9	88 41 0c	 mov	 BYTE PTR [ecx+12], al

; 626  :                         _Fixnodeparent->_Color = _Black;

  002ac	c6 46 0c 01	 mov	 BYTE PTR [esi+12], 1

; 627  :                         _Pnode->_Left->_Color  = _Black;

  002b0	8b 01		 mov	 eax, DWORD PTR [ecx]

; 628  :                         _Rrotate(_Fixnodeparent);

  002b2	8b cb		 mov	 ecx, ebx
  002b4	56		 push	 esi
  002b5	c6 40 0c 01	 mov	 BYTE PTR [eax+12], 1
  002b9	e8 00 00 00 00	 call	 ?_Rrotate@?$_Tree_val@U?$_Tree_simple_types@U?$pair@$$CBKUSReserveTargetEffect@CPythonBackground@@@std@@@std@@@std@@QAEXPAU?$_Tree_node@U?$pair@$$CBKUSReserveTargetEffect@CPythonBackground@@@std@@PAX@2@@Z ; std::_Tree_val<std::_Tree_simple_types<std::pair<unsigned long const ,CPythonBackground::SReserveTargetEffect> > >::_Rrotate
  002be	eb b1		 jmp	 SHORT $LN3@Extract
?_Extract@?$_Tree_val@U?$_Tree_simple_types@U?$pair@$$CBKUSReserveTargetEffect@CPythonBackground@@@std@@@std@@@std@@QAEPAU?$_Tree_node@U?$pair@$$CBKUSReserveTargetEffect@CPythonBackground@@@std@@PAX@2@V?$_Tree_unchecked_const_iterator@V?$_Tree_val@U?$_Tree_simple_types@U?$pair@$$CBKUSReserveTargetEffect@CPythonBackground@@@std@@@std@@@std@@U_Iterator_base0@2@@2@@Z ENDP ; std::_Tree_val<std::_Tree_simple_types<std::pair<unsigned long const ,CPythonBackground::SReserveTargetEffect> > >::_Extract
_TEXT	ENDS
; Function compile flags: /Ogtp
; File C:\Program Files (x86)\Microsoft Visual Studio\2019\Community\VC\Tools\MSVC\14.28.29333\include\xtree
;	COMDAT ?_Rrotate@?$_Tree_val@U?$_Tree_simple_types@U?$pair@$$CBKUSReserveTargetEffect@CPythonBackground@@@std@@@std@@@std@@QAEXPAU?$_Tree_node@U?$pair@$$CBKUSReserveTargetEffect@CPythonBackground@@@std@@PAX@2@@Z
_TEXT	SEGMENT
__Wherenode$ = 8					; size = 4
?_Rrotate@?$_Tree_val@U?$_Tree_simple_types@U?$pair@$$CBKUSReserveTargetEffect@CPythonBackground@@@std@@@std@@@std@@QAEXPAU?$_Tree_node@U?$pair@$$CBKUSReserveTargetEffect@CPythonBackground@@@std@@PAX@2@@Z PROC ; std::_Tree_val<std::_Tree_simple_types<std::pair<unsigned long const ,CPythonBackground::SReserveTargetEffect> > >::_Rrotate, COMDAT
; _this$ = ecx

; 480  :     void _Rrotate(_Nodeptr _Wherenode) noexcept { // promote left node to root of subtree

  00000	55		 push	 ebp
  00001	8b ec		 mov	 ebp, esp

; 481  :         _Nodeptr _Pnode   = _Wherenode->_Left;

  00003	8b 55 08	 mov	 edx, DWORD PTR __Wherenode$[ebp]
  00006	56		 push	 esi
  00007	8b 32		 mov	 esi, DWORD PTR [edx]

; 482  :         _Wherenode->_Left = _Pnode->_Right;

  00009	8b 46 08	 mov	 eax, DWORD PTR [esi+8]
  0000c	89 02		 mov	 DWORD PTR [edx], eax

; 483  : 
; 484  :         if (!_Pnode->_Right->_Isnil) {

  0000e	8b 46 08	 mov	 eax, DWORD PTR [esi+8]
  00011	80 78 0d 00	 cmp	 BYTE PTR [eax+13], 0
  00015	75 03		 jne	 SHORT $LN2@Rrotate

; 485  :             _Pnode->_Right->_Parent = _Wherenode;

  00017	89 50 04	 mov	 DWORD PTR [eax+4], edx
$LN2@Rrotate:

; 486  :         }
; 487  : 
; 488  :         _Pnode->_Parent = _Wherenode->_Parent;

  0001a	8b 42 04	 mov	 eax, DWORD PTR [edx+4]
  0001d	89 46 04	 mov	 DWORD PTR [esi+4], eax

; 489  : 
; 490  :         if (_Wherenode == _Myhead->_Parent) {

  00020	8b 01		 mov	 eax, DWORD PTR [ecx]
  00022	3b 50 04	 cmp	 edx, DWORD PTR [eax+4]
  00025	75 0e		 jne	 SHORT $LN3@Rrotate

; 491  :             _Myhead->_Parent = _Pnode;

  00027	89 70 04	 mov	 DWORD PTR [eax+4], esi

; 496  :         }
; 497  : 
; 498  :         _Pnode->_Right      = _Wherenode;
; 499  :         _Wherenode->_Parent = _Pnode;
; 500  :     }

  0002a	89 56 08	 mov	 DWORD PTR [esi+8], edx
  0002d	89 72 04	 mov	 DWORD PTR [edx+4], esi
  00030	5e		 pop	 esi
  00031	5d		 pop	 ebp
  00032	c2 04 00	 ret	 4
$LN3@Rrotate:

; 492  :         } else if (_Wherenode == _Wherenode->_Parent->_Right) {

  00035	8b 42 04	 mov	 eax, DWORD PTR [edx+4]
  00038	3b 50 08	 cmp	 edx, DWORD PTR [eax+8]
  0003b	75 0e		 jne	 SHORT $LN5@Rrotate

; 493  :             _Wherenode->_Parent->_Right = _Pnode;

  0003d	89 70 08	 mov	 DWORD PTR [eax+8], esi

; 496  :         }
; 497  : 
; 498  :         _Pnode->_Right      = _Wherenode;
; 499  :         _Wherenode->_Parent = _Pnode;
; 500  :     }

  00040	89 56 08	 mov	 DWORD PTR [esi+8], edx
  00043	89 72 04	 mov	 DWORD PTR [edx+4], esi
  00046	5e		 pop	 esi
  00047	5d		 pop	 ebp
  00048	c2 04 00	 ret	 4
$LN5@Rrotate:

; 494  :         } else {
; 495  :             _Wherenode->_Parent->_Left = _Pnode;

  0004b	89 30		 mov	 DWORD PTR [eax], esi

; 496  :         }
; 497  : 
; 498  :         _Pnode->_Right      = _Wherenode;
; 499  :         _Wherenode->_Parent = _Pnode;
; 500  :     }

  0004d	89 56 08	 mov	 DWORD PTR [esi+8], edx
  00050	89 72 04	 mov	 DWORD PTR [edx+4], esi
  00053	5e		 pop	 esi
  00054	5d		 pop	 ebp
  00055	c2 04 00	 ret	 4
?_Rrotate@?$_Tree_val@U?$_Tree_simple_types@U?$pair@$$CBKUSReserveTargetEffect@CPythonBackground@@@std@@@std@@@std@@QAEXPAU?$_Tree_node@U?$pair@$$CBKUSReserveTargetEffect@CPythonBackground@@@std@@PAX@2@@Z ENDP ; std::_Tree_val<std::_Tree_simple_types<std::pair<unsigned long const ,CPythonBackground::SReserveTargetEffect> > >::_Rrotate
_TEXT	ENDS
; Function compile flags: /Ogtp
; File C:\Program Files (x86)\Microsoft Visual Studio\2019\Community\VC\Tools\MSVC\14.28.29333\include\xtree
;	COMDAT ?_Lrotate@?$_Tree_val@U?$_Tree_simple_types@U?$pair@$$CBKUSReserveTargetEffect@CPythonBackground@@@std@@@std@@@std@@QAEXPAU?$_Tree_node@U?$pair@$$CBKUSReserveTargetEffect@CPythonBackground@@@std@@PAX@2@@Z
_TEXT	SEGMENT
__Wherenode$ = 8					; size = 4
?_Lrotate@?$_Tree_val@U?$_Tree_simple_types@U?$pair@$$CBKUSReserveTargetEffect@CPythonBackground@@@std@@@std@@@std@@QAEXPAU?$_Tree_node@U?$pair@$$CBKUSReserveTargetEffect@CPythonBackground@@@std@@PAX@2@@Z PROC ; std::_Tree_val<std::_Tree_simple_types<std::pair<unsigned long const ,CPythonBackground::SReserveTargetEffect> > >::_Lrotate, COMDAT
; _this$ = ecx

; 458  :     void _Lrotate(_Nodeptr _Wherenode) noexcept { // promote right node to root of subtree

  00000	55		 push	 ebp
  00001	8b ec		 mov	 ebp, esp

; 459  :         _Nodeptr _Pnode    = _Wherenode->_Right;

  00003	8b 55 08	 mov	 edx, DWORD PTR __Wherenode$[ebp]
  00006	56		 push	 esi
  00007	8b 72 08	 mov	 esi, DWORD PTR [edx+8]

; 460  :         _Wherenode->_Right = _Pnode->_Left;

  0000a	8b 06		 mov	 eax, DWORD PTR [esi]
  0000c	89 42 08	 mov	 DWORD PTR [edx+8], eax

; 461  : 
; 462  :         if (!_Pnode->_Left->_Isnil) {

  0000f	8b 06		 mov	 eax, DWORD PTR [esi]
  00011	80 78 0d 00	 cmp	 BYTE PTR [eax+13], 0
  00015	75 03		 jne	 SHORT $LN2@Lrotate

; 463  :             _Pnode->_Left->_Parent = _Wherenode;

  00017	89 50 04	 mov	 DWORD PTR [eax+4], edx
$LN2@Lrotate:

; 464  :         }
; 465  : 
; 466  :         _Pnode->_Parent = _Wherenode->_Parent;

  0001a	8b 42 04	 mov	 eax, DWORD PTR [edx+4]
  0001d	89 46 04	 mov	 DWORD PTR [esi+4], eax

; 467  : 
; 468  :         if (_Wherenode == _Myhead->_Parent) {

  00020	8b 01		 mov	 eax, DWORD PTR [ecx]
  00022	3b 50 04	 cmp	 edx, DWORD PTR [eax+4]
  00025	75 0d		 jne	 SHORT $LN3@Lrotate

; 469  :             _Myhead->_Parent = _Pnode;

  00027	89 70 04	 mov	 DWORD PTR [eax+4], esi

; 474  :         }
; 475  : 
; 476  :         _Pnode->_Left       = _Wherenode;
; 477  :         _Wherenode->_Parent = _Pnode;
; 478  :     }

  0002a	89 16		 mov	 DWORD PTR [esi], edx
  0002c	89 72 04	 mov	 DWORD PTR [edx+4], esi
  0002f	5e		 pop	 esi
  00030	5d		 pop	 ebp
  00031	c2 04 00	 ret	 4
$LN3@Lrotate:

; 470  :         } else if (_Wherenode == _Wherenode->_Parent->_Left) {

  00034	8b 42 04	 mov	 eax, DWORD PTR [edx+4]
  00037	3b 10		 cmp	 edx, DWORD PTR [eax]
  00039	75 0c		 jne	 SHORT $LN5@Lrotate

; 471  :             _Wherenode->_Parent->_Left = _Pnode;

  0003b	89 30		 mov	 DWORD PTR [eax], esi

; 474  :         }
; 475  : 
; 476  :         _Pnode->_Left       = _Wherenode;
; 477  :         _Wherenode->_Parent = _Pnode;
; 478  :     }

  0003d	89 16		 mov	 DWORD PTR [esi], edx
  0003f	89 72 04	 mov	 DWORD PTR [edx+4], esi
  00042	5e		 pop	 esi
  00043	5d		 pop	 ebp
  00044	c2 04 00	 ret	 4
$LN5@Lrotate:

; 472  :         } else {
; 473  :             _Wherenode->_Parent->_Right = _Pnode;

  00047	89 70 08	 mov	 DWORD PTR [eax+8], esi

; 474  :         }
; 475  : 
; 476  :         _Pnode->_Left       = _Wherenode;
; 477  :         _Wherenode->_Parent = _Pnode;
; 478  :     }

  0004a	89 16		 mov	 DWORD PTR [esi], edx
  0004c	89 72 04	 mov	 DWORD PTR [edx+4], esi
  0004f	5e		 pop	 esi
  00050	5d		 pop	 ebp
  00051	c2 04 00	 ret	 4
?_Lrotate@?$_Tree_val@U?$_Tree_simple_types@U?$pair@$$CBKUSReserveTargetEffect@CPythonBackground@@@std@@@std@@@std@@QAEXPAU?$_Tree_node@U?$pair@$$CBKUSReserveTargetEffect@CPythonBackground@@@std@@PAX@2@@Z ENDP ; std::_Tree_val<std::_Tree_simple_types<std::pair<unsigned long const ,CPythonBackground::SReserveTargetEffect> > >::_Lrotate
_TEXT	ENDS
; Function compile flags: /Ogtp
; File C:\Program Files (x86)\Microsoft Visual Studio\2019\Community\VC\Tools\MSVC\14.28.29333\include\xtree
; File C:\Program Files (x86)\Microsoft Visual Studio\2019\Community\VC\Tools\MSVC\14.28.29333\include\utility
; File C:\Program Files (x86)\Microsoft Visual Studio\2019\Community\VC\Tools\MSVC\14.28.29333\include\xmemory
; File C:\Program Files (x86)\Microsoft Visual Studio\2019\Community\VC\Tools\MSVC\14.28.29333\include\xtree
;	COMDAT ?clear@?$_Tree@V?$_Tmap_traits@KUSReserveTargetEffect@CPythonBackground@@U?$less@K@std@@V?$allocator@U?$pair@$$CBKUSReserveTargetEffect@CPythonBackground@@@std@@@4@$0A@@std@@@std@@QAEXXZ
_TEXT	SEGMENT
?clear@?$_Tree@V?$_Tmap_traits@KUSReserveTargetEffect@CPythonBackground@@U?$less@K@std@@V?$allocator@U?$pair@$$CBKUSReserveTargetEffect@CPythonBackground@@@std@@@4@$0A@@std@@@std@@QAEXXZ PROC ; std::_Tree<std::_Tmap_traits<unsigned long,CPythonBackground::SReserveTargetEffect,std::less<unsigned long>,std::allocator<std::pair<unsigned long const ,CPythonBackground::SReserveTargetEffect> >,0> >::clear, COMDAT
; _this$ = ecx

; 1444 :     void clear() noexcept {

  00000	53		 push	 ebx
  00001	8b d9		 mov	 ebx, ecx
  00003	56		 push	 esi
  00004	57		 push	 edi

; 1445 :         const auto _Scary = _Get_scary();
; 1446 :         _Scary->_Orphan_ptr(nullptr);
; 1447 :         auto _Head = _Scary->_Myhead;

  00005	8b 3b		 mov	 edi, DWORD PTR [ebx]

; 1448 :         _Scary->_Erase_tree(_Getal(), _Head->_Parent);

  00007	8b 77 04	 mov	 esi, DWORD PTR [edi+4]

; 743  :         while (!_Rootnode->_Isnil) { // free subtrees, then node

  0000a	80 7e 0d 00	 cmp	 BYTE PTR [esi+13], 0
  0000e	75 20		 jne	 SHORT $LN5@clear
$LL4@clear:

; 744  :             _Erase_tree(_Al, _Rootnode->_Right);

  00010	ff 76 08	 push	 DWORD PTR [esi+8]
  00013	8b cb		 mov	 ecx, ebx
  00015	53		 push	 ebx
  00016	e8 00 00 00 00	 call	 ??$_Erase_tree@V?$allocator@U?$_Tree_node@U?$pair@$$CBKUSReserveTargetEffect@CPythonBackground@@@std@@PAX@std@@@std@@@?$_Tree_val@U?$_Tree_simple_types@U?$pair@$$CBKUSReserveTargetEffect@CPythonBackground@@@std@@@std@@@std@@QAEXAAV?$allocator@U?$_Tree_node@U?$pair@$$CBKUSReserveTargetEffect@CPythonBackground@@@std@@PAX@std@@@1@PAU?$_Tree_node@U?$pair@$$CBKUSReserveTargetEffect@CPythonBackground@@@std@@PAX@1@@Z ; std::_Tree_val<std::_Tree_simple_types<std::pair<unsigned long const ,CPythonBackground::SReserveTargetEffect> > >::_Erase_tree<std::allocator<std::_Tree_node<std::pair<unsigned long const ,CPythonBackground::SReserveTargetEffect>,void *> > >
; File C:\Program Files (x86)\Microsoft Visual Studio\2019\Community\VC\Tools\MSVC\14.28.29333\include\utility

; 598  :     _Ty _Old_val = static_cast<_Ty&&>(_Val);

  0001b	8b c6		 mov	 eax, esi

; 599  :     _Val         = static_cast<_Other&&>(_New_val);

  0001d	8b 36		 mov	 esi, DWORD PTR [esi]
; File C:\Program Files (x86)\Microsoft Visual Studio\2019\Community\VC\Tools\MSVC\14.28.29333\include\xmemory

; 696  :         _Deallocate<_New_alignof<value_type>>(_Ptr, sizeof(value_type) * _Count);

  0001f	6a 1c		 push	 28			; 0000001cH
  00021	50		 push	 eax
  00022	e8 00 00 00 00	 call	 ??$_Deallocate@$07$0A@@std@@YAXPAXI@Z ; std::_Deallocate<8,0>
  00027	83 c4 08	 add	 esp, 8
; File C:\Program Files (x86)\Microsoft Visual Studio\2019\Community\VC\Tools\MSVC\14.28.29333\include\xtree

; 743  :         while (!_Rootnode->_Isnil) { // free subtrees, then node

  0002a	80 7e 0d 00	 cmp	 BYTE PTR [esi+13], 0
  0002e	74 e0		 je	 SHORT $LL4@clear
$LN5@clear:

; 1449 :         _Head->_Parent  = _Head;

  00030	89 7f 04	 mov	 DWORD PTR [edi+4], edi

; 1450 :         _Head->_Left    = _Head;

  00033	89 3f		 mov	 DWORD PTR [edi], edi

; 1451 :         _Head->_Right   = _Head;

  00035	89 7f 08	 mov	 DWORD PTR [edi+8], edi

; 1452 :         _Scary->_Mysize = 0;

  00038	5f		 pop	 edi
  00039	5e		 pop	 esi
  0003a	c7 43 04 00 00
	00 00		 mov	 DWORD PTR [ebx+4], 0
  00041	5b		 pop	 ebx

; 1453 :     }

  00042	c3		 ret	 0
?clear@?$_Tree@V?$_Tmap_traits@KUSReserveTargetEffect@CPythonBackground@@U?$less@K@std@@V?$allocator@U?$pair@$$CBKUSReserveTargetEffect@CPythonBackground@@@std@@@4@$0A@@std@@@std@@QAEXXZ ENDP ; std::_Tree<std::_Tmap_traits<unsigned long,CPythonBackground::SReserveTargetEffect,std::less<unsigned long>,std::allocator<std::pair<unsigned long const ,CPythonBackground::SReserveTargetEffect> >,0> >::clear
_TEXT	ENDS
; Function compile flags: /Ogtp
; File C:\Program Files (x86)\Microsoft Visual Studio\2019\Community\VC\Tools\MSVC\14.28.29333\include\xtree
; File C:\Program Files (x86)\Microsoft Visual Studio\2019\Community\VC\Tools\MSVC\14.28.29333\include\utility
; File C:\Program Files (x86)\Microsoft Visual Studio\2019\Community\VC\Tools\MSVC\14.28.29333\include\xmemory
; File C:\Program Files (x86)\Microsoft Visual Studio\2019\Community\VC\Tools\MSVC\14.28.29333\include\xtree
; File C:\Program Files (x86)\Microsoft Visual Studio\2019\Community\VC\Tools\MSVC\14.28.29333\include\xmemory
; File C:\Program Files (x86)\Microsoft Visual Studio\2019\Community\VC\Tools\MSVC\14.28.29333\include\xtree
;	COMDAT ??1?$_Tree@V?$_Tmap_traits@KUSReserveTargetEffect@CPythonBackground@@U?$less@K@std@@V?$allocator@U?$pair@$$CBKUSReserveTargetEffect@CPythonBackground@@@std@@@4@$0A@@std@@@std@@QAE@XZ
_TEXT	SEGMENT
??1?$_Tree@V?$_Tmap_traits@KUSReserveTargetEffect@CPythonBackground@@U?$less@K@std@@V?$allocator@U?$pair@$$CBKUSReserveTargetEffect@CPythonBackground@@@std@@@4@$0A@@std@@@std@@QAE@XZ PROC ; std::_Tree<std::_Tmap_traits<unsigned long,CPythonBackground::SReserveTargetEffect,std::less<unsigned long>,std::allocator<std::pair<unsigned long const ,CPythonBackground::SReserveTargetEffect> >,0> >::~_Tree<std::_Tmap_traits<unsigned long,CPythonBackground::SReserveTargetEffect,std::less<unsigned long>,std::allocator<std::pair<unsigned long const ,CPythonBackground::SReserveTargetEffect> >,0> >, COMDAT
; _this$ = ecx

; 1189 :     ~_Tree() noexcept {

  00000	56		 push	 esi
  00001	57		 push	 edi
  00002	8b f9		 mov	 edi, ecx

; 752  :         _Erase_tree(_Al, _Myhead->_Parent);

  00004	8b 07		 mov	 eax, DWORD PTR [edi]
  00006	8b 70 04	 mov	 esi, DWORD PTR [eax+4]

; 743  :         while (!_Rootnode->_Isnil) { // free subtrees, then node

  00009	80 7e 0d 00	 cmp	 BYTE PTR [esi+13], 0
  0000d	75 23		 jne	 SHORT $LN7@Tree
  0000f	90		 npad	 1
$LL6@Tree:

; 744  :             _Erase_tree(_Al, _Rootnode->_Right);

  00010	ff 76 08	 push	 DWORD PTR [esi+8]
  00013	8b cf		 mov	 ecx, edi
  00015	57		 push	 edi
  00016	e8 00 00 00 00	 call	 ??$_Erase_tree@V?$allocator@U?$_Tree_node@U?$pair@$$CBKUSReserveTargetEffect@CPythonBackground@@@std@@PAX@std@@@std@@@?$_Tree_val@U?$_Tree_simple_types@U?$pair@$$CBKUSReserveTargetEffect@CPythonBackground@@@std@@@std@@@std@@QAEXAAV?$allocator@U?$_Tree_node@U?$pair@$$CBKUSReserveTargetEffect@CPythonBackground@@@std@@PAX@std@@@1@PAU?$_Tree_node@U?$pair@$$CBKUSReserveTargetEffect@CPythonBackground@@@std@@PAX@1@@Z ; std::_Tree_val<std::_Tree_simple_types<std::pair<unsigned long const ,CPythonBackground::SReserveTargetEffect> > >::_Erase_tree<std::allocator<std::_Tree_node<std::pair<unsigned long const ,CPythonBackground::SReserveTargetEffect>,void *> > >
; File C:\Program Files (x86)\Microsoft Visual Studio\2019\Community\VC\Tools\MSVC\14.28.29333\include\utility

; 598  :     _Ty _Old_val = static_cast<_Ty&&>(_Val);

  0001b	8b c6		 mov	 eax, esi

; 599  :     _Val         = static_cast<_Other&&>(_New_val);

  0001d	8b 36		 mov	 esi, DWORD PTR [esi]
; File C:\Program Files (x86)\Microsoft Visual Studio\2019\Community\VC\Tools\MSVC\14.28.29333\include\xmemory

; 696  :         _Deallocate<_New_alignof<value_type>>(_Ptr, sizeof(value_type) * _Count);

  0001f	6a 1c		 push	 28			; 0000001cH
  00021	50		 push	 eax
  00022	e8 00 00 00 00	 call	 ??$_Deallocate@$07$0A@@std@@YAXPAXI@Z ; std::_Deallocate<8,0>
  00027	83 c4 08	 add	 esp, 8
; File C:\Program Files (x86)\Microsoft Visual Studio\2019\Community\VC\Tools\MSVC\14.28.29333\include\xtree

; 743  :         while (!_Rootnode->_Isnil) { // free subtrees, then node

  0002a	80 7e 0d 00	 cmp	 BYTE PTR [esi+13], 0
  0002e	74 e0		 je	 SHORT $LL6@Tree
  00030	8b 07		 mov	 eax, DWORD PTR [edi]
$LN7@Tree:
; File C:\Program Files (x86)\Microsoft Visual Studio\2019\Community\VC\Tools\MSVC\14.28.29333\include\xmemory

; 696  :         _Deallocate<_New_alignof<value_type>>(_Ptr, sizeof(value_type) * _Count);

  00032	6a 1c		 push	 28			; 0000001cH
  00034	50		 push	 eax
  00035	e8 00 00 00 00	 call	 ??$_Deallocate@$07$0A@@std@@YAXPAXI@Z ; std::_Deallocate<8,0>
  0003a	83 c4 08	 add	 esp, 8
  0003d	5f		 pop	 edi
  0003e	5e		 pop	 esi
; File C:\Program Files (x86)\Microsoft Visual Studio\2019\Community\VC\Tools\MSVC\14.28.29333\include\xtree

; 1196 :     }

  0003f	c3		 ret	 0
??1?$_Tree@V?$_Tmap_traits@KUSReserveTargetEffect@CPythonBackground@@U?$less@K@std@@V?$allocator@U?$pair@$$CBKUSReserveTargetEffect@CPythonBackground@@@std@@@4@$0A@@std@@@std@@QAE@XZ ENDP ; std::_Tree<std::_Tmap_traits<unsigned long,CPythonBackground::SReserveTargetEffect,std::less<unsigned long>,std::allocator<std::pair<unsigned long const ,CPythonBackground::SReserveTargetEffect> >,0> >::~_Tree<std::_Tmap_traits<unsigned long,CPythonBackground::SReserveTargetEffect,std::less<unsigned long>,std::allocator<std::pair<unsigned long const ,CPythonBackground::SReserveTargetEffect> >,0> >
_TEXT	ENDS
; Function compile flags: /Ogtp
;	COMDAT ??1?$map@KKU?$less@K@std@@V?$allocator@U?$pair@$$CBKK@std@@@2@@std@@QAE@XZ
_TEXT	SEGMENT
??1?$map@KKU?$less@K@std@@V?$allocator@U?$pair@$$CBKK@std@@@2@@std@@QAE@XZ PROC ; std::map<unsigned long,unsigned long,std::less<unsigned long>,std::allocator<std::pair<unsigned long const ,unsigned long> > >::~map<unsigned long,unsigned long,std::less<unsigned long>,std::allocator<std::pair<unsigned long const ,unsigned long> > >, COMDAT
; _this$ = ecx
  00000	e9 00 00 00 00	 jmp	 ??1?$_Tree@V?$_Tmap_traits@KKU?$less@K@std@@V?$allocator@U?$pair@$$CBKK@std@@@2@$0A@@std@@@std@@QAE@XZ ; std::_Tree<std::_Tmap_traits<unsigned long,unsigned long,std::less<unsigned long>,std::allocator<std::pair<unsigned long const ,unsigned long> >,0> >::~_Tree<std::_Tmap_traits<unsigned long,unsigned long,std::less<unsigned long>,std::allocator<std::pair<unsigned long const ,unsigned long> >,0> >
??1?$map@KKU?$less@K@std@@V?$allocator@U?$pair@$$CBKK@std@@@2@@std@@QAE@XZ ENDP ; std::map<unsigned long,unsigned long,std::less<unsigned long>,std::allocator<std::pair<unsigned long const ,unsigned long> > >::~map<unsigned long,unsigned long,std::less<unsigned long>,std::allocator<std::pair<unsigned long const ,unsigned long> > >
_TEXT	ENDS
; Function compile flags: /Ogtp
; File C:\Program Files (x86)\Microsoft Visual Studio\2019\Community\VC\Tools\MSVC\14.28.29333\include\xtree
;	COMDAT ?_Insert_node@?$_Tree_val@U?$_Tree_simple_types@U?$pair@$$CBKK@std@@@std@@@std@@QAEPAU?$_Tree_node@U?$pair@$$CBKK@std@@PAX@2@U?$_Tree_id@PAU?$_Tree_node@U?$pair@$$CBKK@std@@PAX@std@@@2@QAU32@@Z
_TEXT	SEGMENT
__Head$1$ = -8						; size = 4
_this$1$ = -4						; size = 4
__Loc$ = 8						; size = 8
__Newnode$ = 16						; size = 4
?_Insert_node@?$_Tree_val@U?$_Tree_simple_types@U?$pair@$$CBKK@std@@@std@@@std@@QAEPAU?$_Tree_node@U?$pair@$$CBKK@std@@PAX@2@U?$_Tree_id@PAU?$_Tree_node@U?$pair@$$CBKK@std@@PAX@std@@@2@QAU32@@Z PROC ; std::_Tree_val<std::_Tree_simple_types<std::pair<unsigned long const ,unsigned long> > >::_Insert_node, COMDAT
; _this$ = ecx

; 644  :     _Nodeptr _Insert_node(const _Tree_id<_Nodeptr> _Loc, const _Nodeptr _Newnode) noexcept {

  00000	55		 push	 ebp
  00001	8b ec		 mov	 ebp, esp
  00003	83 ec 08	 sub	 esp, 8

; 645  :         ++_Mysize;
; 646  :         const auto _Head  = _Myhead;
; 647  :         _Newnode->_Parent = _Loc._Parent;

  00006	8b 55 08	 mov	 edx, DWORD PTR __Loc$[ebp]
  00009	8b c1		 mov	 eax, ecx
  0000b	89 45 fc	 mov	 DWORD PTR _this$1$[ebp], eax
  0000e	8b 08		 mov	 ecx, DWORD PTR [eax]
  00010	ff 40 04	 inc	 DWORD PTR [eax+4]
  00013	8b 45 10	 mov	 eax, DWORD PTR __Newnode$[ebp]
  00016	89 4d f8	 mov	 DWORD PTR __Head$1$[ebp], ecx
  00019	89 50 04	 mov	 DWORD PTR [eax+4], edx

; 648  :         if (_Loc._Parent == _Head) { // first node in tree, just set head values

  0001c	3b d1		 cmp	 edx, ecx
  0001e	75 12		 jne	 SHORT $LN5@Insert_nod

; 649  :             _Head->_Left     = _Newnode;

  00020	89 01		 mov	 DWORD PTR [ecx], eax

; 650  :             _Head->_Parent   = _Newnode;

  00022	89 41 04	 mov	 DWORD PTR [ecx+4], eax

; 651  :             _Head->_Right    = _Newnode;

  00025	89 41 08	 mov	 DWORD PTR [ecx+8], eax

; 652  :             _Newnode->_Color = _Black; // the root is black

  00028	c6 40 0c 01	 mov	 BYTE PTR [eax+12], 1

; 711  :     }

  0002c	8b e5		 mov	 esp, ebp
  0002e	5d		 pop	 ebp
  0002f	c2 0c 00	 ret	 12			; 0000000cH
$LN5@Insert_nod:

; 653  :             return _Newnode;
; 654  :         }
; 655  : 
; 656  :         _STL_INTERNAL_CHECK(_Loc._Child != _Tree_child::_Unused);
; 657  :         if (_Loc._Child == _Tree_child::_Right) { // add to right of _Loc._Parent

  00032	83 7d 0c 00	 cmp	 DWORD PTR __Loc$[ebp+4], 0
  00036	75 0d		 jne	 SHORT $LN6@Insert_nod

; 658  :             _STL_INTERNAL_CHECK(_Loc._Parent->_Right->_Isnil);
; 659  :             _Loc._Parent->_Right = _Newnode;

  00038	89 42 08	 mov	 DWORD PTR [edx+8], eax

; 660  :             if (_Loc._Parent == _Head->_Right) { // remember rightmost node

  0003b	3b 51 08	 cmp	 edx, DWORD PTR [ecx+8]
  0003e	75 0d		 jne	 SHORT $LN9@Insert_nod

; 661  :                 _Head->_Right = _Newnode;

  00040	89 41 08	 mov	 DWORD PTR [ecx+8], eax

; 662  :             }
; 663  :         } else { // add to left of _Loc._Parent

  00043	eb 08		 jmp	 SHORT $LN9@Insert_nod
$LN6@Insert_nod:

; 664  :             _STL_INTERNAL_CHECK(_Loc._Parent->_Left->_Isnil);
; 665  :             _Loc._Parent->_Left = _Newnode;

  00045	89 02		 mov	 DWORD PTR [edx], eax

; 666  :             if (_Loc._Parent == _Head->_Left) { // remember leftmost node

  00047	3b 11		 cmp	 edx, DWORD PTR [ecx]
  00049	75 02		 jne	 SHORT $LN9@Insert_nod

; 667  :                 _Head->_Left = _Newnode;

  0004b	89 01		 mov	 DWORD PTR [ecx], eax
$LN9@Insert_nod:

; 668  :             }
; 669  :         }
; 670  : 
; 671  :         for (_Nodeptr _Pnode = _Newnode; _Pnode->_Parent->_Color == _Red;) {

  0004d	8b d0		 mov	 edx, eax
  0004f	8b 40 04	 mov	 eax, DWORD PTR [eax+4]
  00052	80 78 0c 00	 cmp	 BYTE PTR [eax+12], 0
  00056	0f 85 99 01 00
	00		 jne	 $LN3@Insert_nod
  0005c	53		 push	 ebx
  0005d	56		 push	 esi
  0005e	57		 push	 edi
  0005f	90		 npad	 1
$LL2@Insert_nod:

; 672  :             if (_Pnode->_Parent == _Pnode->_Parent->_Parent->_Left) { // fixup red-red in left subtree

  00060	8b 4a 04	 mov	 ecx, DWORD PTR [edx+4]
  00063	8d 7a 04	 lea	 edi, DWORD PTR [edx+4]
  00066	8b 71 04	 mov	 esi, DWORD PTR [ecx+4]
  00069	8d 59 04	 lea	 ebx, DWORD PTR [ecx+4]
  0006c	8b 06		 mov	 eax, DWORD PTR [esi]
  0006e	3b c8		 cmp	 ecx, eax
  00070	0f 85 ba 00 00
	00		 jne	 $LN10@Insert_nod

; 673  :                 const auto _Parent_sibling = _Pnode->_Parent->_Parent->_Right;

  00076	8b 46 08	 mov	 eax, DWORD PTR [esi+8]

; 674  :                 if (_Parent_sibling->_Color == _Red) { // parent's sibling has two red children, blacken both

  00079	80 78 0c 00	 cmp	 BYTE PTR [eax+12], 0
  0007d	0f 84 b3 00 00
	00		 je	 $LN53@Insert_nod

; 675  :                     _Pnode->_Parent->_Color          = _Black;
; 676  :                     _Parent_sibling->_Color          = _Black;
; 677  :                     _Pnode->_Parent->_Parent->_Color = _Red;
; 678  :                     _Pnode                           = _Pnode->_Parent->_Parent;
; 679  :                 } else { // parent's sibling has red and black children
; 680  :                     if (_Pnode == _Pnode->_Parent->_Right) { // rotate right child to left

  00083	8b 71 08	 mov	 esi, DWORD PTR [ecx+8]
  00086	3b d6		 cmp	 edx, esi
  00088	75 47		 jne	 SHORT $LN51@Insert_nod

; 460  :         _Wherenode->_Right = _Pnode->_Left;

  0008a	8b 06		 mov	 eax, DWORD PTR [esi]

; 681  :                         _Pnode = _Pnode->_Parent;

  0008c	8b d1		 mov	 edx, ecx

; 460  :         _Wherenode->_Right = _Pnode->_Left;

  0008e	89 42 08	 mov	 DWORD PTR [edx+8], eax

; 461  : 
; 462  :         if (!_Pnode->_Left->_Isnil) {

  00091	8b 06		 mov	 eax, DWORD PTR [esi]
  00093	80 78 0d 00	 cmp	 BYTE PTR [eax+13], 0
  00097	75 03		 jne	 SHORT $LN20@Insert_nod

; 463  :             _Pnode->_Left->_Parent = _Wherenode;

  00099	89 50 04	 mov	 DWORD PTR [eax+4], edx
$LN20@Insert_nod:

; 464  :         }
; 465  : 
; 466  :         _Pnode->_Parent = _Wherenode->_Parent;

  0009c	8b 03		 mov	 eax, DWORD PTR [ebx]
  0009e	89 46 04	 mov	 DWORD PTR [esi+4], eax

; 467  : 
; 468  :         if (_Wherenode == _Myhead->_Parent) {

  000a1	8b 45 fc	 mov	 eax, DWORD PTR _this$1$[ebp]
  000a4	8b 00		 mov	 eax, DWORD PTR [eax]
  000a6	3b 50 04	 cmp	 edx, DWORD PTR [eax+4]
  000a9	75 0b		 jne	 SHORT $LN21@Insert_nod

; 469  :             _Myhead->_Parent = _Pnode;

  000ab	89 70 04	 mov	 DWORD PTR [eax+4], esi

; 477  :         _Wherenode->_Parent = _Pnode;

  000ae	8b fb		 mov	 edi, ebx
  000b0	89 16		 mov	 DWORD PTR [esi], edx
  000b2	89 33		 mov	 DWORD PTR [ebx], esi
  000b4	eb 1d		 jmp	 SHORT $LN49@Insert_nod
$LN21@Insert_nod:

; 470  :         } else if (_Wherenode == _Wherenode->_Parent->_Left) {

  000b6	8b 03		 mov	 eax, DWORD PTR [ebx]
  000b8	3b 10		 cmp	 edx, DWORD PTR [eax]
  000ba	75 0a		 jne	 SHORT $LN23@Insert_nod

; 471  :             _Wherenode->_Parent->_Left = _Pnode;

  000bc	89 30		 mov	 DWORD PTR [eax], esi

; 477  :         _Wherenode->_Parent = _Pnode;

  000be	8b fb		 mov	 edi, ebx
  000c0	89 16		 mov	 DWORD PTR [esi], edx
  000c2	89 33		 mov	 DWORD PTR [ebx], esi
  000c4	eb 0d		 jmp	 SHORT $LN49@Insert_nod
$LN23@Insert_nod:

; 473  :             _Wherenode->_Parent->_Right = _Pnode;

  000c6	89 70 08	 mov	 DWORD PTR [eax+8], esi

; 477  :         _Wherenode->_Parent = _Pnode;

  000c9	8b fb		 mov	 edi, ebx
  000cb	89 16		 mov	 DWORD PTR [esi], edx
  000cd	89 33		 mov	 DWORD PTR [ebx], esi
  000cf	eb 02		 jmp	 SHORT $LN49@Insert_nod
$LN51@Insert_nod:
  000d1	8b f1		 mov	 esi, ecx
$LN49@Insert_nod:

; 682  :                         _Lrotate(_Pnode);
; 683  :                     }
; 684  : 
; 685  :                     _Pnode->_Parent->_Color          = _Black; // propagate red up

  000d3	c6 46 0c 01	 mov	 BYTE PTR [esi+12], 1

; 686  :                     _Pnode->_Parent->_Parent->_Color = _Red;

  000d7	8b 07		 mov	 eax, DWORD PTR [edi]
  000d9	8b 40 04	 mov	 eax, DWORD PTR [eax+4]
  000dc	c6 40 0c 00	 mov	 BYTE PTR [eax+12], 0

; 687  :                     _Rrotate(_Pnode->_Parent->_Parent);

  000e0	8b 07		 mov	 eax, DWORD PTR [edi]
  000e2	8b 48 04	 mov	 ecx, DWORD PTR [eax+4]

; 481  :         _Nodeptr _Pnode   = _Wherenode->_Left;

  000e5	8b 31		 mov	 esi, DWORD PTR [ecx]

; 482  :         _Wherenode->_Left = _Pnode->_Right;

  000e7	8b 46 08	 mov	 eax, DWORD PTR [esi+8]
  000ea	89 01		 mov	 DWORD PTR [ecx], eax

; 483  : 
; 484  :         if (!_Pnode->_Right->_Isnil) {

  000ec	8b 46 08	 mov	 eax, DWORD PTR [esi+8]
  000ef	80 78 0d 00	 cmp	 BYTE PTR [eax+13], 0
  000f3	75 03		 jne	 SHORT $LN27@Insert_nod

; 485  :             _Pnode->_Right->_Parent = _Wherenode;

  000f5	89 48 04	 mov	 DWORD PTR [eax+4], ecx
$LN27@Insert_nod:

; 486  :         }
; 487  : 
; 488  :         _Pnode->_Parent = _Wherenode->_Parent;

  000f8	8b 41 04	 mov	 eax, DWORD PTR [ecx+4]
  000fb	89 46 04	 mov	 DWORD PTR [esi+4], eax

; 489  : 
; 490  :         if (_Wherenode == _Myhead->_Parent) {

  000fe	8b 45 fc	 mov	 eax, DWORD PTR _this$1$[ebp]
  00101	8b 00		 mov	 eax, DWORD PTR [eax]
  00103	3b 48 04	 cmp	 ecx, DWORD PTR [eax+4]
  00106	75 0b		 jne	 SHORT $LN28@Insert_nod

; 491  :             _Myhead->_Parent = _Pnode;

  00108	89 70 04	 mov	 DWORD PTR [eax+4], esi

; 496  :         }
; 497  : 
; 498  :         _Pnode->_Right      = _Wherenode;

  0010b	89 4e 08	 mov	 DWORD PTR [esi+8], ecx

; 688  :                 }
; 689  :             } else { // fixup red-red in right subtree

  0010e	e9 cc 00 00 00	 jmp	 $LN52@Insert_nod
$LN28@Insert_nod:

; 492  :         } else if (_Wherenode == _Wherenode->_Parent->_Right) {

  00113	8b 41 04	 mov	 eax, DWORD PTR [ecx+4]
  00116	3b 48 08	 cmp	 ecx, DWORD PTR [eax+8]
  00119	75 0b		 jne	 SHORT $LN30@Insert_nod

; 493  :             _Wherenode->_Parent->_Right = _Pnode;

  0011b	89 70 08	 mov	 DWORD PTR [eax+8], esi

; 496  :         }
; 497  : 
; 498  :         _Pnode->_Right      = _Wherenode;

  0011e	89 4e 08	 mov	 DWORD PTR [esi+8], ecx

; 688  :                 }
; 689  :             } else { // fixup red-red in right subtree

  00121	e9 b9 00 00 00	 jmp	 $LN52@Insert_nod
$LN30@Insert_nod:

; 495  :             _Wherenode->_Parent->_Left = _Pnode;

  00126	89 30		 mov	 DWORD PTR [eax], esi

; 496  :         }
; 497  : 
; 498  :         _Pnode->_Right      = _Wherenode;

  00128	89 4e 08	 mov	 DWORD PTR [esi+8], ecx

; 688  :                 }
; 689  :             } else { // fixup red-red in right subtree

  0012b	e9 af 00 00 00	 jmp	 $LN52@Insert_nod
$LN10@Insert_nod:

; 690  :                 const auto _Parent_sibling = _Pnode->_Parent->_Parent->_Left;
; 691  :                 if (_Parent_sibling->_Color == _Red) { // parent's sibling has two red children, blacken both

  00130	80 78 0c 00	 cmp	 BYTE PTR [eax+12], 0
  00134	75 1b		 jne	 SHORT $LN15@Insert_nod
$LN53@Insert_nod:

; 668  :             }
; 669  :         }
; 670  : 
; 671  :         for (_Nodeptr _Pnode = _Newnode; _Pnode->_Parent->_Color == _Red;) {

  00136	c6 41 0c 01	 mov	 BYTE PTR [ecx+12], 1
  0013a	c6 40 0c 01	 mov	 BYTE PTR [eax+12], 1
  0013e	8b 07		 mov	 eax, DWORD PTR [edi]
  00140	8b 40 04	 mov	 eax, DWORD PTR [eax+4]
  00143	c6 40 0c 00	 mov	 BYTE PTR [eax+12], 0
  00147	8b 07		 mov	 eax, DWORD PTR [edi]
  00149	8b 50 04	 mov	 edx, DWORD PTR [eax+4]
  0014c	e9 91 00 00 00	 jmp	 $LN46@Insert_nod
$LN15@Insert_nod:

; 692  :                     _Pnode->_Parent->_Color          = _Black;
; 693  :                     _Parent_sibling->_Color          = _Black;
; 694  :                     _Pnode->_Parent->_Parent->_Color = _Red;
; 695  :                     _Pnode                           = _Pnode->_Parent->_Parent;
; 696  :                 } else { // parent's sibling has red and black children
; 697  :                     if (_Pnode == _Pnode->_Parent->_Left) { // rotate left child to right

  00151	8b 01		 mov	 eax, DWORD PTR [ecx]
  00153	3b d0		 cmp	 edx, eax
  00155	75 3e		 jne	 SHORT $LN39@Insert_nod

; 698  :                         _Pnode = _Pnode->_Parent;

  00157	8b d1		 mov	 edx, ecx

; 481  :         _Nodeptr _Pnode   = _Wherenode->_Left;

  00159	8b c8		 mov	 ecx, eax

; 482  :         _Wherenode->_Left = _Pnode->_Right;

  0015b	8b 41 08	 mov	 eax, DWORD PTR [ecx+8]
  0015e	89 02		 mov	 DWORD PTR [edx], eax

; 483  : 
; 484  :         if (!_Pnode->_Right->_Isnil) {

  00160	8b 41 08	 mov	 eax, DWORD PTR [ecx+8]
  00163	80 78 0d 00	 cmp	 BYTE PTR [eax+13], 0
  00167	75 03		 jne	 SHORT $LN34@Insert_nod

; 485  :             _Pnode->_Right->_Parent = _Wherenode;

  00169	89 50 04	 mov	 DWORD PTR [eax+4], edx
$LN34@Insert_nod:

; 486  :         }
; 487  : 
; 488  :         _Pnode->_Parent = _Wherenode->_Parent;

  0016c	8b 03		 mov	 eax, DWORD PTR [ebx]
  0016e	89 41 04	 mov	 DWORD PTR [ecx+4], eax

; 489  : 
; 490  :         if (_Wherenode == _Myhead->_Parent) {

  00171	8b 45 fc	 mov	 eax, DWORD PTR _this$1$[ebp]
  00174	8b 00		 mov	 eax, DWORD PTR [eax]
  00176	3b 50 04	 cmp	 edx, DWORD PTR [eax+4]
  00179	75 05		 jne	 SHORT $LN35@Insert_nod

; 491  :             _Myhead->_Parent = _Pnode;

  0017b	89 48 04	 mov	 DWORD PTR [eax+4], ecx
  0017e	eb 0e		 jmp	 SHORT $LN38@Insert_nod
$LN35@Insert_nod:

; 492  :         } else if (_Wherenode == _Wherenode->_Parent->_Right) {

  00180	8b 03		 mov	 eax, DWORD PTR [ebx]
  00182	3b 50 08	 cmp	 edx, DWORD PTR [eax+8]
  00185	75 05		 jne	 SHORT $LN37@Insert_nod

; 493  :             _Wherenode->_Parent->_Right = _Pnode;

  00187	89 48 08	 mov	 DWORD PTR [eax+8], ecx

; 494  :         } else {

  0018a	eb 02		 jmp	 SHORT $LN38@Insert_nod
$LN37@Insert_nod:

; 495  :             _Wherenode->_Parent->_Left = _Pnode;

  0018c	89 08		 mov	 DWORD PTR [eax], ecx
$LN38@Insert_nod:

; 496  :         }
; 497  : 
; 498  :         _Pnode->_Right      = _Wherenode;

  0018e	89 51 08	 mov	 DWORD PTR [ecx+8], edx

; 499  :         _Wherenode->_Parent = _Pnode;

  00191	8b fb		 mov	 edi, ebx
  00193	89 0b		 mov	 DWORD PTR [ebx], ecx
$LN39@Insert_nod:

; 699  :                         _Rrotate(_Pnode);
; 700  :                     }
; 701  : 
; 702  :                     _Pnode->_Parent->_Color          = _Black; // propagate red up

  00195	c6 41 0c 01	 mov	 BYTE PTR [ecx+12], 1

; 703  :                     _Pnode->_Parent->_Parent->_Color = _Red;

  00199	8b 07		 mov	 eax, DWORD PTR [edi]
  0019b	8b 40 04	 mov	 eax, DWORD PTR [eax+4]
  0019e	c6 40 0c 00	 mov	 BYTE PTR [eax+12], 0

; 704  :                     _Lrotate(_Pnode->_Parent->_Parent);

  001a2	8b 07		 mov	 eax, DWORD PTR [edi]
  001a4	8b 48 04	 mov	 ecx, DWORD PTR [eax+4]

; 459  :         _Nodeptr _Pnode    = _Wherenode->_Right;

  001a7	8b 71 08	 mov	 esi, DWORD PTR [ecx+8]

; 460  :         _Wherenode->_Right = _Pnode->_Left;

  001aa	8b 06		 mov	 eax, DWORD PTR [esi]
  001ac	89 41 08	 mov	 DWORD PTR [ecx+8], eax

; 461  : 
; 462  :         if (!_Pnode->_Left->_Isnil) {

  001af	8b 06		 mov	 eax, DWORD PTR [esi]
  001b1	80 78 0d 00	 cmp	 BYTE PTR [eax+13], 0
  001b5	75 03		 jne	 SHORT $LN41@Insert_nod

; 463  :             _Pnode->_Left->_Parent = _Wherenode;

  001b7	89 48 04	 mov	 DWORD PTR [eax+4], ecx
$LN41@Insert_nod:

; 464  :         }
; 465  : 
; 466  :         _Pnode->_Parent = _Wherenode->_Parent;

  001ba	8b 41 04	 mov	 eax, DWORD PTR [ecx+4]
  001bd	89 46 04	 mov	 DWORD PTR [esi+4], eax

; 467  : 
; 468  :         if (_Wherenode == _Myhead->_Parent) {

  001c0	8b 45 fc	 mov	 eax, DWORD PTR _this$1$[ebp]
  001c3	8b 00		 mov	 eax, DWORD PTR [eax]
  001c5	3b 48 04	 cmp	 ecx, DWORD PTR [eax+4]
  001c8	75 05		 jne	 SHORT $LN42@Insert_nod

; 469  :             _Myhead->_Parent = _Pnode;

  001ca	89 70 04	 mov	 DWORD PTR [eax+4], esi
  001cd	eb 0e		 jmp	 SHORT $LN45@Insert_nod
$LN42@Insert_nod:

; 470  :         } else if (_Wherenode == _Wherenode->_Parent->_Left) {

  001cf	8b 41 04	 mov	 eax, DWORD PTR [ecx+4]
  001d2	3b 08		 cmp	 ecx, DWORD PTR [eax]
  001d4	75 04		 jne	 SHORT $LN44@Insert_nod

; 471  :             _Wherenode->_Parent->_Left = _Pnode;

  001d6	89 30		 mov	 DWORD PTR [eax], esi

; 472  :         } else {

  001d8	eb 03		 jmp	 SHORT $LN45@Insert_nod
$LN44@Insert_nod:

; 473  :             _Wherenode->_Parent->_Right = _Pnode;

  001da	89 70 08	 mov	 DWORD PTR [eax+8], esi
$LN45@Insert_nod:

; 474  :         }
; 475  : 
; 476  :         _Pnode->_Left       = _Wherenode;

  001dd	89 0e		 mov	 DWORD PTR [esi], ecx
$LN52@Insert_nod:

; 668  :             }
; 669  :         }
; 670  : 
; 671  :         for (_Nodeptr _Pnode = _Newnode; _Pnode->_Parent->_Color == _Red;) {

  001df	89 71 04	 mov	 DWORD PTR [ecx+4], esi
$LN46@Insert_nod:
  001e2	8b 42 04	 mov	 eax, DWORD PTR [edx+4]
  001e5	80 78 0c 00	 cmp	 BYTE PTR [eax+12], 0
  001e9	0f 84 71 fe ff
	ff		 je	 $LL2@Insert_nod
  001ef	8b 4d f8	 mov	 ecx, DWORD PTR __Head$1$[ebp]
  001f2	5f		 pop	 edi
  001f3	5e		 pop	 esi
  001f4	5b		 pop	 ebx
$LN3@Insert_nod:

; 705  :                 }
; 706  :             }
; 707  :         }
; 708  : 
; 709  :         _Head->_Parent->_Color = _Black; // root is always black

  001f5	8b 41 04	 mov	 eax, DWORD PTR [ecx+4]
  001f8	c6 40 0c 01	 mov	 BYTE PTR [eax+12], 1

; 710  :         return _Newnode;

  001fc	8b 45 10	 mov	 eax, DWORD PTR __Newnode$[ebp]

; 711  :     }

  001ff	8b e5		 mov	 esp, ebp
  00201	5d		 pop	 ebp
  00202	c2 0c 00	 ret	 12			; 0000000cH
?_Insert_node@?$_Tree_val@U?$_Tree_simple_types@U?$pair@$$CBKK@std@@@std@@@std@@QAEPAU?$_Tree_node@U?$pair@$$CBKK@std@@PAX@2@U?$_Tree_id@PAU?$_Tree_node@U?$pair@$$CBKK@std@@PAX@std@@@2@QAU32@@Z ENDP ; std::_Tree_val<std::_Tree_simple_types<std::pair<unsigned long const ,unsigned long> > >::_Insert_node
_TEXT	ENDS
; Function compile flags: /Ogtp
; File C:\Program Files (x86)\Microsoft Visual Studio\2019\Community\VC\Tools\MSVC\14.28.29333\include\xtree
; File C:\Program Files (x86)\Microsoft Visual Studio\2019\Community\VC\Tools\MSVC\14.28.29333\include\utility
; File C:\Program Files (x86)\Microsoft Visual Studio\2019\Community\VC\Tools\MSVC\14.28.29333\include\xtree
; File C:\Program Files (x86)\Microsoft Visual Studio\2019\Community\VC\Tools\MSVC\14.28.29333\include\utility
; File C:\Program Files (x86)\Microsoft Visual Studio\2019\Community\VC\Tools\MSVC\14.28.29333\include\xtree
;	COMDAT ?_Extract@?$_Tree_val@U?$_Tree_simple_types@U?$pair@$$CBKK@std@@@std@@@std@@QAEPAU?$_Tree_node@U?$pair@$$CBKK@std@@PAX@2@V?$_Tree_unchecked_const_iterator@V?$_Tree_val@U?$_Tree_simple_types@U?$pair@$$CBKK@std@@@std@@@std@@U_Iterator_base0@2@@2@@Z
_TEXT	SEGMENT
tv1186 = -8						; size = 4
tv1182 = -8						; size = 4
tv1149 = -8						; size = 4
__Erasednode$1$ = -4					; size = 4
__Where$ = 8						; size = 4
?_Extract@?$_Tree_val@U?$_Tree_simple_types@U?$pair@$$CBKK@std@@@std@@@std@@QAEPAU?$_Tree_node@U?$pair@$$CBKK@std@@PAX@2@V?$_Tree_unchecked_const_iterator@V?$_Tree_val@U?$_Tree_simple_types@U?$pair@$$CBKK@std@@@std@@@std@@U_Iterator_base0@2@@2@@Z PROC ; std::_Tree_val<std::_Tree_simple_types<std::pair<unsigned long const ,unsigned long> > >::_Extract, COMDAT
; _this$ = ecx

; 502  :     _Nodeptr _Extract(_Unchecked_const_iterator _Where) noexcept {

  00000	55		 push	 ebp
  00001	8b ec		 mov	 ebp, esp
  00003	83 ec 08	 sub	 esp, 8

; 503  :         _Nodeptr _Erasednode = _Where._Ptr; // node to erase

  00006	8b 45 08	 mov	 eax, DWORD PTR __Where$[ebp]
  00009	53		 push	 ebx
  0000a	56		 push	 esi
  0000b	8b d9		 mov	 ebx, ecx
  0000d	89 45 fc	 mov	 DWORD PTR __Erasednode$1$[ebp], eax
  00010	57		 push	 edi

; 504  :         ++_Where; // save successor iterator for return

  00011	8d 4d 08	 lea	 ecx, DWORD PTR __Where$[ebp]
  00014	e8 00 00 00 00	 call	 ??E?$_Tree_unchecked_const_iterator@V?$_Tree_val@U?$_Tree_simple_types@U?$pair@$$CBKK@std@@@std@@@std@@U_Iterator_base0@2@@std@@QAEAAV01@XZ ; std::_Tree_unchecked_const_iterator<std::_Tree_val<std::_Tree_simple_types<std::pair<unsigned long const ,unsigned long> > >,std::_Iterator_base0>::operator++

; 505  : 
; 506  :         _Nodeptr _Fixnode; // the node to recolor as needed
; 507  :         _Nodeptr _Fixnodeparent; // parent of _Fixnode (which may be nil)
; 508  :         _Nodeptr _Pnode = _Erasednode;
; 509  : 
; 510  :         if (_Pnode->_Left->_Isnil) {

  00019	8b 55 fc	 mov	 edx, DWORD PTR __Erasednode$1$[ebp]
  0001c	8b 02		 mov	 eax, DWORD PTR [edx]
  0001e	8b 7a 08	 mov	 edi, DWORD PTR [edx+8]
  00021	80 78 0d 00	 cmp	 BYTE PTR [eax+13], 0
  00025	75 18		 jne	 SHORT $LN86@Extract

; 511  :             _Fixnode = _Pnode->_Right; // stitch up right subtree
; 512  :         } else if (_Pnode->_Right->_Isnil) {

  00027	80 7f 0d 00	 cmp	 BYTE PTR [edi+13], 0
  0002b	74 04		 je	 SHORT $LN7@Extract

; 513  :             _Fixnode = _Pnode->_Left; // stitch up left subtree

  0002d	8b f8		 mov	 edi, eax

; 514  :         } else { // two subtrees, must lift successor node to replace erased

  0002f	eb 0e		 jmp	 SHORT $LN86@Extract
$LN7@Extract:

; 515  :             _Pnode   = _Where._Ptr; // _Pnode is successor node

  00031	8b 4d 08	 mov	 ecx, DWORD PTR __Where$[ebp]

; 516  :             _Fixnode = _Pnode->_Right; // _Fixnode is only subtree

  00034	8b 79 08	 mov	 edi, DWORD PTR [ecx+8]
  00037	3b ca		 cmp	 ecx, edx

; 517  :         }
; 518  : 
; 519  :         if (_Pnode == _Erasednode) { // at most one subtree, relink it

  00039	0f 85 8b 00 00
	00		 jne	 $LN9@Extract
$LN86@Extract:

; 520  :             _Fixnodeparent = _Erasednode->_Parent;
; 521  :             if (!_Fixnode->_Isnil) {

  0003f	80 7f 0d 00	 cmp	 BYTE PTR [edi+13], 0
  00043	8b 72 04	 mov	 esi, DWORD PTR [edx+4]
  00046	75 03		 jne	 SHORT $LN11@Extract

; 522  :                 _Fixnode->_Parent = _Fixnodeparent; // link up

  00048	89 77 04	 mov	 DWORD PTR [edi+4], esi
$LN11@Extract:

; 523  :             }
; 524  : 
; 525  :             if (_Myhead->_Parent == _Erasednode) {

  0004b	8b 03		 mov	 eax, DWORD PTR [ebx]
  0004d	39 50 04	 cmp	 DWORD PTR [eax+4], edx
  00050	75 05		 jne	 SHORT $LN12@Extract

; 526  :                 _Myhead->_Parent = _Fixnode; // link down from root

  00052	89 78 04	 mov	 DWORD PTR [eax+4], edi
  00055	eb 0b		 jmp	 SHORT $LN15@Extract
$LN12@Extract:

; 527  :             } else if (_Fixnodeparent->_Left == _Erasednode) {

  00057	39 16		 cmp	 DWORD PTR [esi], edx
  00059	75 04		 jne	 SHORT $LN14@Extract

; 528  :                 _Fixnodeparent->_Left = _Fixnode; // link down to left

  0005b	89 3e		 mov	 DWORD PTR [esi], edi

; 529  :             } else {

  0005d	eb 03		 jmp	 SHORT $LN15@Extract
$LN14@Extract:

; 530  :                 _Fixnodeparent->_Right = _Fixnode; // link down to right

  0005f	89 7e 08	 mov	 DWORD PTR [esi+8], edi
$LN15@Extract:

; 531  :             }
; 532  : 
; 533  :             if (_Myhead->_Left == _Erasednode) {

  00062	8b 03		 mov	 eax, DWORD PTR [ebx]
  00064	39 10		 cmp	 DWORD PTR [eax], edx
  00066	75 2b		 jne	 SHORT $LN16@Extract

; 534  :                 _Myhead->_Left = _Fixnode->_Isnil ? _Fixnodeparent // smallest is parent of erased node

  00068	80 7f 0d 00	 cmp	 BYTE PTR [edi+13], 0
  0006c	74 04		 je	 SHORT $LN42@Extract
  0006e	8b d6		 mov	 edx, esi
  00070	eb 1c		 jmp	 SHORT $LN48@Extract
$LN42@Extract:

; 451  :         while (!_Pnode->_Left->_Isnil) {

  00072	8b 0f		 mov	 ecx, DWORD PTR [edi]

; 534  :                 _Myhead->_Left = _Fixnode->_Isnil ? _Fixnodeparent // smallest is parent of erased node

  00074	8b d7		 mov	 edx, edi

; 451  :         while (!_Pnode->_Left->_Isnil) {

  00076	80 79 0d 00	 cmp	 BYTE PTR [ecx+13], 0
  0007a	75 12		 jne	 SHORT $LN48@Extract
  0007c	0f 1f 40 00	 npad	 4
$LL47@Extract:
  00080	8b 01		 mov	 eax, DWORD PTR [ecx]

; 452  :             _Pnode = _Pnode->_Left;

  00082	8b d1		 mov	 edx, ecx
  00084	8b c8		 mov	 ecx, eax
  00086	80 78 0d 00	 cmp	 BYTE PTR [eax+13], 0
  0008a	74 f4		 je	 SHORT $LL47@Extract
  0008c	8b 03		 mov	 eax, DWORD PTR [ebx]
$LN48@Extract:

; 534  :                 _Myhead->_Left = _Fixnode->_Isnil ? _Fixnodeparent // smallest is parent of erased node

  0008e	89 10		 mov	 DWORD PTR [eax], edx
  00090	8b 55 fc	 mov	 edx, DWORD PTR __Erasednode$1$[ebp]
$LN16@Extract:

; 535  :                                                   : _Min(_Fixnode); // smallest in relinked subtree
; 536  :             }
; 537  : 
; 538  :             if (_Myhead->_Right == _Erasednode) {

  00093	8b 03		 mov	 eax, DWORD PTR [ebx]
  00095	39 50 08	 cmp	 DWORD PTR [eax+8], edx
  00098	75 2b		 jne	 SHORT $LN17@Extract

; 539  :                 _Myhead->_Right = _Fixnode->_Isnil ? _Fixnodeparent // largest is parent of erased node

  0009a	80 7f 0d 00	 cmp	 BYTE PTR [edi+13], 0
  0009e	74 0a		 je	 SHORT $LN44@Extract
  000a0	8b ce		 mov	 ecx, esi
  000a2	89 48 08	 mov	 DWORD PTR [eax+8], ecx

; 540  :                                                    : _Max(_Fixnode); // largest in relinked subtree
; 541  :             }
; 542  :         } else { // erased has two subtrees, _Pnode is successor to erased

  000a5	8a 52 0c	 mov	 dl, BYTE PTR [edx+12]
  000a8	eb 7c		 jmp	 SHORT $LN55@Extract
$LN44@Extract:

; 443  :         while (!_Pnode->_Right->_Isnil) {

  000aa	8b 47 08	 mov	 eax, DWORD PTR [edi+8]

; 539  :                 _Myhead->_Right = _Fixnode->_Isnil ? _Fixnodeparent // largest is parent of erased node

  000ad	8b cf		 mov	 ecx, edi

; 443  :         while (!_Pnode->_Right->_Isnil) {

  000af	80 78 0d 00	 cmp	 BYTE PTR [eax+13], 0
  000b3	75 0b		 jne	 SHORT $LN52@Extract
$LL51@Extract:

; 444  :             _Pnode = _Pnode->_Right;

  000b5	8b c8		 mov	 ecx, eax
  000b7	8b 41 08	 mov	 eax, DWORD PTR [ecx+8]
  000ba	80 78 0d 00	 cmp	 BYTE PTR [eax+13], 0
  000be	74 f5		 je	 SHORT $LL51@Extract
$LN52@Extract:
  000c0	8b 03		 mov	 eax, DWORD PTR [ebx]

; 539  :                 _Myhead->_Right = _Fixnode->_Isnil ? _Fixnodeparent // largest is parent of erased node

  000c2	89 48 08	 mov	 DWORD PTR [eax+8], ecx
$LN17@Extract:

; 540  :                                                    : _Max(_Fixnode); // largest in relinked subtree
; 541  :             }
; 542  :         } else { // erased has two subtrees, _Pnode is successor to erased

  000c5	8a 52 0c	 mov	 dl, BYTE PTR [edx+12]
  000c8	eb 5c		 jmp	 SHORT $LN55@Extract
$LN9@Extract:

; 543  :             _Erasednode->_Left->_Parent = _Pnode; // link left up

  000ca	89 48 04	 mov	 DWORD PTR [eax+4], ecx

; 544  :             _Pnode->_Left               = _Erasednode->_Left; // link successor down

  000cd	8b 02		 mov	 eax, DWORD PTR [edx]
  000cf	89 01		 mov	 DWORD PTR [ecx], eax

; 545  : 
; 546  :             if (_Pnode == _Erasednode->_Right) {

  000d1	3b 4a 08	 cmp	 ecx, DWORD PTR [edx+8]
  000d4	75 04		 jne	 SHORT $LN18@Extract

; 547  :                 _Fixnodeparent = _Pnode; // successor is next to erased

  000d6	8b f1		 mov	 esi, ecx

; 548  :             } else { // successor further down, link in place of erased

  000d8	eb 1a		 jmp	 SHORT $LN19@Extract
$LN18@Extract:

; 549  :                 _Fixnodeparent = _Pnode->_Parent; // parent is successor's
; 550  :                 if (!_Fixnode->_Isnil) {

  000da	80 7f 0d 00	 cmp	 BYTE PTR [edi+13], 0
  000de	8b 71 04	 mov	 esi, DWORD PTR [ecx+4]
  000e1	75 03		 jne	 SHORT $LN20@Extract

; 551  :                     _Fixnode->_Parent = _Fixnodeparent; // link fix up

  000e3	89 77 04	 mov	 DWORD PTR [edi+4], esi
$LN20@Extract:

; 552  :                 }
; 553  : 
; 554  :                 _Fixnodeparent->_Left        = _Fixnode; // link fix down

  000e6	89 3e		 mov	 DWORD PTR [esi], edi

; 555  :                 _Pnode->_Right               = _Erasednode->_Right; // link next down

  000e8	8b 42 08	 mov	 eax, DWORD PTR [edx+8]
  000eb	89 41 08	 mov	 DWORD PTR [ecx+8], eax

; 556  :                 _Erasednode->_Right->_Parent = _Pnode; // right up

  000ee	8b 42 08	 mov	 eax, DWORD PTR [edx+8]
  000f1	89 48 04	 mov	 DWORD PTR [eax+4], ecx
$LN19@Extract:

; 557  :             }
; 558  : 
; 559  :             if (_Myhead->_Parent == _Erasednode) {

  000f4	8b 03		 mov	 eax, DWORD PTR [ebx]
  000f6	39 50 04	 cmp	 DWORD PTR [eax+4], edx
  000f9	75 05		 jne	 SHORT $LN21@Extract

; 560  :                 _Myhead->_Parent = _Pnode; // link down from root

  000fb	89 48 04	 mov	 DWORD PTR [eax+4], ecx
  000fe	eb 0e		 jmp	 SHORT $LN24@Extract
$LN21@Extract:

; 561  :             } else if (_Erasednode->_Parent->_Left == _Erasednode) {

  00100	8b 42 04	 mov	 eax, DWORD PTR [edx+4]
  00103	39 10		 cmp	 DWORD PTR [eax], edx
  00105	75 04		 jne	 SHORT $LN23@Extract

; 562  :                 _Erasednode->_Parent->_Left = _Pnode; // link down to left

  00107	89 08		 mov	 DWORD PTR [eax], ecx

; 563  :             } else {

  00109	eb 03		 jmp	 SHORT $LN24@Extract
$LN23@Extract:

; 564  :                 _Erasednode->_Parent->_Right = _Pnode; // link down to right

  0010b	89 48 08	 mov	 DWORD PTR [eax+8], ecx
$LN24@Extract:

; 567  :             _Pnode->_Parent = _Erasednode->_Parent; // link successor up

  0010e	8b 42 04	 mov	 eax, DWORD PTR [edx+4]
; File C:\Program Files (x86)\Microsoft Visual Studio\2019\Community\VC\Tools\MSVC\14.28.29333\include\utility

; 104  :     _Ty _Tmp = _STD move(_Left);

  00111	8a 51 0c	 mov	 dl, BYTE PTR [ecx+12]
; File C:\Program Files (x86)\Microsoft Visual Studio\2019\Community\VC\Tools\MSVC\14.28.29333\include\xtree

; 567  :             _Pnode->_Parent = _Erasednode->_Parent; // link successor up

  00114	89 41 04	 mov	 DWORD PTR [ecx+4], eax
; File C:\Program Files (x86)\Microsoft Visual Studio\2019\Community\VC\Tools\MSVC\14.28.29333\include\utility

; 105  :     _Left    = _STD move(_Right);

  00117	8b 45 fc	 mov	 eax, DWORD PTR __Erasednode$1$[ebp]
  0011a	8a 40 0c	 mov	 al, BYTE PTR [eax+12]
  0011d	88 41 0c	 mov	 BYTE PTR [ecx+12], al

; 106  :     _Right   = _STD move(_Tmp);

  00120	8b 45 fc	 mov	 eax, DWORD PTR __Erasednode$1$[ebp]
  00123	88 50 0c	 mov	 BYTE PTR [eax+12], dl
$LN55@Extract:
; File C:\Program Files (x86)\Microsoft Visual Studio\2019\Community\VC\Tools\MSVC\14.28.29333\include\xtree

; 571  :         if (_Erasednode->_Color == _Black) { // erasing black link, must recolor/rebalance tree

  00126	80 fa 01	 cmp	 dl, 1
  00129	0f 85 46 01 00
	00		 jne	 $LN25@Extract

; 572  :             for (; _Fixnode != _Myhead->_Parent && _Fixnode->_Color == _Black; _Fixnodeparent = _Fixnode->_Parent) {

  0012f	8b 03		 mov	 eax, DWORD PTR [ebx]
  00131	3b 78 04	 cmp	 edi, DWORD PTR [eax+4]
  00134	0f 84 37 01 00
	00		 je	 $LN3@Extract
  0013a	66 0f 1f 44 00
	00		 npad	 6
$LL4@Extract:
  00140	80 7f 0c 01	 cmp	 BYTE PTR [edi+12], 1
  00144	89 75 f8	 mov	 DWORD PTR tv1186[ebp], esi
  00147	0f 85 24 01 00
	00		 jne	 $LN3@Extract

; 573  :                 if (_Fixnode == _Fixnodeparent->_Left) { // fixup left subtree

  0014d	8b 0e		 mov	 ecx, DWORD PTR [esi]
  0014f	3b f9		 cmp	 edi, ecx
  00151	0f 85 a2 00 00
	00		 jne	 $LN26@Extract

; 574  :                     _Pnode = _Fixnodeparent->_Right;

  00157	8b 4e 08	 mov	 ecx, DWORD PTR [esi+8]

; 575  :                     if (_Pnode->_Color == _Red) { // rotate red up from right subtree

  0015a	80 79 0c 00	 cmp	 BYTE PTR [ecx+12], 0
  0015e	75 43		 jne	 SHORT $LN87@Extract

; 576  :                         _Pnode->_Color         = _Black;

  00160	c6 41 0c 01	 mov	 BYTE PTR [ecx+12], 1

; 459  :         _Nodeptr _Pnode    = _Wherenode->_Right;

  00164	8b 4e 08	 mov	 ecx, DWORD PTR [esi+8]

; 577  :                         _Fixnodeparent->_Color = _Red;

  00167	c6 46 0c 00	 mov	 BYTE PTR [esi+12], 0

; 460  :         _Wherenode->_Right = _Pnode->_Left;

  0016b	8b 01		 mov	 eax, DWORD PTR [ecx]
  0016d	89 46 08	 mov	 DWORD PTR [esi+8], eax

; 461  : 
; 462  :         if (!_Pnode->_Left->_Isnil) {

  00170	8b 01		 mov	 eax, DWORD PTR [ecx]
  00172	80 78 0d 00	 cmp	 BYTE PTR [eax+13], 0
  00176	75 03		 jne	 SHORT $LN57@Extract

; 463  :             _Pnode->_Left->_Parent = _Wherenode;

  00178	89 70 04	 mov	 DWORD PTR [eax+4], esi
$LN57@Extract:

; 464  :         }
; 465  : 
; 466  :         _Pnode->_Parent = _Wherenode->_Parent;

  0017b	8b 46 04	 mov	 eax, DWORD PTR [esi+4]
  0017e	89 41 04	 mov	 DWORD PTR [ecx+4], eax

; 467  : 
; 468  :         if (_Wherenode == _Myhead->_Parent) {

  00181	8b 03		 mov	 eax, DWORD PTR [ebx]
  00183	3b 70 04	 cmp	 esi, DWORD PTR [eax+4]
  00186	75 05		 jne	 SHORT $LN58@Extract

; 469  :             _Myhead->_Parent = _Pnode;

  00188	89 48 04	 mov	 DWORD PTR [eax+4], ecx
  0018b	eb 0e		 jmp	 SHORT $LN61@Extract
$LN58@Extract:

; 470  :         } else if (_Wherenode == _Wherenode->_Parent->_Left) {

  0018d	8b 46 04	 mov	 eax, DWORD PTR [esi+4]
  00190	3b 30		 cmp	 esi, DWORD PTR [eax]
  00192	75 04		 jne	 SHORT $LN60@Extract

; 471  :             _Wherenode->_Parent->_Left = _Pnode;

  00194	89 08		 mov	 DWORD PTR [eax], ecx

; 472  :         } else {

  00196	eb 03		 jmp	 SHORT $LN61@Extract
$LN60@Extract:

; 473  :             _Wherenode->_Parent->_Right = _Pnode;

  00198	89 48 08	 mov	 DWORD PTR [eax+8], ecx
$LN61@Extract:

; 474  :         }
; 475  : 
; 476  :         _Pnode->_Left       = _Wherenode;

  0019b	89 31		 mov	 DWORD PTR [ecx], esi

; 477  :         _Wherenode->_Parent = _Pnode;

  0019d	89 4e 04	 mov	 DWORD PTR [esi+4], ecx

; 578  :                         _Lrotate(_Fixnodeparent);
; 579  :                         _Pnode = _Fixnodeparent->_Right;

  001a0	8b 4e 08	 mov	 ecx, DWORD PTR [esi+8]
$LN87@Extract:

; 580  :                     }
; 581  : 
; 582  :                     if (_Pnode->_Isnil) {

  001a3	80 79 0d 00	 cmp	 BYTE PTR [ecx+13], 0
  001a7	0f 85 b1 00 00
	00		 jne	 $LN2@Extract

; 583  :                         _Fixnode = _Fixnodeparent; // shouldn't happen
; 584  :                     } else if (_Pnode->_Left->_Color == _Black
; 585  :                                && _Pnode->_Right->_Color == _Black) { // redden right subtree with black children

  001ad	8b 11		 mov	 edx, DWORD PTR [ecx]
  001af	80 7a 0c 01	 cmp	 BYTE PTR [edx+12], 1
  001b3	75 0d		 jne	 SHORT $LN89@Extract
  001b5	8b 41 08	 mov	 eax, DWORD PTR [ecx+8]
  001b8	80 78 0c 01	 cmp	 BYTE PTR [eax+12], 1
  001bc	0f 84 98 00 00
	00		 je	 $LN93@Extract
$LN89@Extract:

; 586  :                         _Pnode->_Color = _Red;
; 587  :                         _Fixnode       = _Fixnodeparent;
; 588  :                     } else { // must rearrange right subtree
; 589  :                         if (_Pnode->_Right->_Color == _Black) { // rotate red up from left sub-subtree

  001c2	8b 41 08	 mov	 eax, DWORD PTR [ecx+8]
  001c5	80 78 0c 01	 cmp	 BYTE PTR [eax+12], 1
  001c9	75 13		 jne	 SHORT $LN33@Extract

; 590  :                             _Pnode->_Left->_Color = _Black;

  001cb	c6 42 0c 01	 mov	 BYTE PTR [edx+12], 1

; 591  :                             _Pnode->_Color        = _Red;

  001cf	c6 41 0c 00	 mov	 BYTE PTR [ecx+12], 0

; 592  :                             _Rrotate(_Pnode);

  001d3	51		 push	 ecx
  001d4	8b cb		 mov	 ecx, ebx
  001d6	e8 00 00 00 00	 call	 ?_Rrotate@?$_Tree_val@U?$_Tree_simple_types@U?$pair@$$CBKK@std@@@std@@@std@@QAEXPAU?$_Tree_node@U?$pair@$$CBKK@std@@PAX@2@@Z ; std::_Tree_val<std::_Tree_simple_types<std::pair<unsigned long const ,unsigned long> > >::_Rrotate

; 593  :                             _Pnode = _Fixnodeparent->_Right;

  001db	8b 4e 08	 mov	 ecx, DWORD PTR [esi+8]
$LN33@Extract:

; 594  :                         }
; 595  : 
; 596  :                         _Pnode->_Color         = _Fixnodeparent->_Color;

  001de	8a 46 0c	 mov	 al, BYTE PTR [esi+12]
  001e1	88 41 0c	 mov	 BYTE PTR [ecx+12], al

; 597  :                         _Fixnodeparent->_Color = _Black;

  001e4	c6 46 0c 01	 mov	 BYTE PTR [esi+12], 1

; 598  :                         _Pnode->_Right->_Color = _Black;

  001e8	8b 41 08	 mov	 eax, DWORD PTR [ecx+8]

; 599  :                         _Lrotate(_Fixnodeparent);

  001eb	8b cb		 mov	 ecx, ebx
  001ed	56		 push	 esi
  001ee	c6 40 0c 01	 mov	 BYTE PTR [eax+12], 1
  001f2	e8 00 00 00 00	 call	 ?_Lrotate@?$_Tree_val@U?$_Tree_simple_types@U?$pair@$$CBKK@std@@@std@@@std@@QAEXPAU?$_Tree_node@U?$pair@$$CBKK@std@@PAX@2@@Z ; std::_Tree_val<std::_Tree_simple_types<std::pair<unsigned long const ,unsigned long> > >::_Lrotate

; 600  :                         break; // tree now recolored/rebalanced

  001f7	eb 78		 jmp	 SHORT $LN3@Extract
$LN26@Extract:

; 601  :                     }
; 602  :                 } else { // fixup right subtree
; 603  :                     _Pnode = _Fixnodeparent->_Left;
; 604  :                     if (_Pnode->_Color == _Red) { // rotate red up from left subtree

  001f9	80 79 0c 00	 cmp	 BYTE PTR [ecx+12], 0
  001fd	75 44		 jne	 SHORT $LN88@Extract

; 605  :                         _Pnode->_Color         = _Black;

  001ff	c6 41 0c 01	 mov	 BYTE PTR [ecx+12], 1

; 481  :         _Nodeptr _Pnode   = _Wherenode->_Left;

  00203	8b 0e		 mov	 ecx, DWORD PTR [esi]

; 606  :                         _Fixnodeparent->_Color = _Red;

  00205	c6 46 0c 00	 mov	 BYTE PTR [esi+12], 0

; 482  :         _Wherenode->_Left = _Pnode->_Right;

  00209	8b 41 08	 mov	 eax, DWORD PTR [ecx+8]
  0020c	89 06		 mov	 DWORD PTR [esi], eax

; 483  : 
; 484  :         if (!_Pnode->_Right->_Isnil) {

  0020e	8b 41 08	 mov	 eax, DWORD PTR [ecx+8]
  00211	80 78 0d 00	 cmp	 BYTE PTR [eax+13], 0
  00215	75 03		 jne	 SHORT $LN64@Extract

; 485  :             _Pnode->_Right->_Parent = _Wherenode;

  00217	89 70 04	 mov	 DWORD PTR [eax+4], esi
$LN64@Extract:

; 486  :         }
; 487  : 
; 488  :         _Pnode->_Parent = _Wherenode->_Parent;

  0021a	8b 46 04	 mov	 eax, DWORD PTR [esi+4]
  0021d	89 41 04	 mov	 DWORD PTR [ecx+4], eax

; 489  : 
; 490  :         if (_Wherenode == _Myhead->_Parent) {

  00220	8b 03		 mov	 eax, DWORD PTR [ebx]
  00222	3b 70 04	 cmp	 esi, DWORD PTR [eax+4]
  00225	75 05		 jne	 SHORT $LN65@Extract

; 491  :             _Myhead->_Parent = _Pnode;

  00227	89 48 04	 mov	 DWORD PTR [eax+4], ecx
  0022a	eb 0f		 jmp	 SHORT $LN68@Extract
$LN65@Extract:

; 492  :         } else if (_Wherenode == _Wherenode->_Parent->_Right) {

  0022c	8b 46 04	 mov	 eax, DWORD PTR [esi+4]
  0022f	3b 70 08	 cmp	 esi, DWORD PTR [eax+8]
  00232	75 05		 jne	 SHORT $LN67@Extract

; 493  :             _Wherenode->_Parent->_Right = _Pnode;

  00234	89 48 08	 mov	 DWORD PTR [eax+8], ecx

; 494  :         } else {

  00237	eb 02		 jmp	 SHORT $LN68@Extract
$LN67@Extract:

; 495  :             _Wherenode->_Parent->_Left = _Pnode;

  00239	89 08		 mov	 DWORD PTR [eax], ecx
$LN68@Extract:

; 496  :         }
; 497  : 
; 498  :         _Pnode->_Right      = _Wherenode;

  0023b	89 71 08	 mov	 DWORD PTR [ecx+8], esi

; 499  :         _Wherenode->_Parent = _Pnode;

  0023e	89 4e 04	 mov	 DWORD PTR [esi+4], ecx

; 607  :                         _Rrotate(_Fixnodeparent);
; 608  :                         _Pnode = _Fixnodeparent->_Left;

  00241	8b 0e		 mov	 ecx, DWORD PTR [esi]
$LN88@Extract:

; 609  :                     }
; 610  : 
; 611  :                     if (_Pnode->_Isnil) {

  00243	80 79 0d 00	 cmp	 BYTE PTR [ecx+13], 0
  00247	75 15		 jne	 SHORT $LN2@Extract

; 612  :                         _Fixnode = _Fixnodeparent; // shouldn't happen
; 613  :                     } else if (_Pnode->_Right->_Color == _Black
; 614  :                                && _Pnode->_Left->_Color == _Black) { // redden left subtree with black children

  00249	8b 51 08	 mov	 edx, DWORD PTR [ecx+8]
  0024c	80 7a 0c 01	 cmp	 BYTE PTR [edx+12], 1
  00250	75 3a		 jne	 SHORT $LN90@Extract
  00252	8b 01		 mov	 eax, DWORD PTR [ecx]
  00254	80 78 0c 01	 cmp	 BYTE PTR [eax+12], 1
  00258	75 32		 jne	 SHORT $LN90@Extract
$LN93@Extract:

; 572  :             for (; _Fixnode != _Myhead->_Parent && _Fixnode->_Color == _Black; _Fixnodeparent = _Fixnode->_Parent) {

  0025a	c6 41 0c 00	 mov	 BYTE PTR [ecx+12], 0
$LN2@Extract:
  0025e	8b 03		 mov	 eax, DWORD PTR [ebx]
  00260	8b 4d f8	 mov	 ecx, DWORD PTR tv1186[ebp]
  00263	8b f9		 mov	 edi, ecx
  00265	8b 76 04	 mov	 esi, DWORD PTR [esi+4]
  00268	3b 48 04	 cmp	 ecx, DWORD PTR [eax+4]
  0026b	0f 85 cf fe ff
	ff		 jne	 $LL4@Extract
$LN3@Extract:

; 629  :                         break; // tree now recolored/rebalanced
; 630  :                     }
; 631  :                 }
; 632  :             }
; 633  : 
; 634  :             _Fixnode->_Color = _Black; // stopping node is black

  00271	c6 47 0c 01	 mov	 BYTE PTR [edi+12], 1
$LN25@Extract:

; 635  :         }
; 636  : 
; 637  :         if (0 < _Mysize) {

  00275	8b 4b 04	 mov	 ecx, DWORD PTR [ebx+4]
  00278	8b 45 fc	 mov	 eax, DWORD PTR __Erasednode$1$[ebp]
  0027b	85 c9		 test	 ecx, ecx
  0027d	74 04		 je	 SHORT $LN40@Extract

; 638  :             --_Mysize;

  0027f	49		 dec	 ecx
  00280	89 4b 04	 mov	 DWORD PTR [ebx+4], ecx
$LN40@Extract:

; 639  :         }
; 640  : 
; 641  :         return _Erasednode;
; 642  :     }

  00283	5f		 pop	 edi
  00284	5e		 pop	 esi
  00285	5b		 pop	 ebx
  00286	8b e5		 mov	 esp, ebp
  00288	5d		 pop	 ebp
  00289	c2 04 00	 ret	 4
$LN90@Extract:

; 615  :                         _Pnode->_Color = _Red;
; 616  :                         _Fixnode       = _Fixnodeparent;
; 617  :                     } else { // must rearrange left subtree
; 618  :                         if (_Pnode->_Left->_Color == _Black) { // rotate red up from right sub-subtree

  0028c	8b 01		 mov	 eax, DWORD PTR [ecx]
  0028e	80 78 0c 01	 cmp	 BYTE PTR [eax+12], 1
  00292	75 12		 jne	 SHORT $LN39@Extract

; 619  :                             _Pnode->_Right->_Color = _Black;

  00294	c6 42 0c 01	 mov	 BYTE PTR [edx+12], 1

; 620  :                             _Pnode->_Color         = _Red;

  00298	c6 41 0c 00	 mov	 BYTE PTR [ecx+12], 0

; 621  :                             _Lrotate(_Pnode);

  0029c	51		 push	 ecx
  0029d	8b cb		 mov	 ecx, ebx
  0029f	e8 00 00 00 00	 call	 ?_Lrotate@?$_Tree_val@U?$_Tree_simple_types@U?$pair@$$CBKK@std@@@std@@@std@@QAEXPAU?$_Tree_node@U?$pair@$$CBKK@std@@PAX@2@@Z ; std::_Tree_val<std::_Tree_simple_types<std::pair<unsigned long const ,unsigned long> > >::_Lrotate

; 622  :                             _Pnode = _Fixnodeparent->_Left;

  002a4	8b 0e		 mov	 ecx, DWORD PTR [esi]
$LN39@Extract:

; 623  :                         }
; 624  : 
; 625  :                         _Pnode->_Color         = _Fixnodeparent->_Color;

  002a6	8a 46 0c	 mov	 al, BYTE PTR [esi+12]
  002a9	88 41 0c	 mov	 BYTE PTR [ecx+12], al

; 626  :                         _Fixnodeparent->_Color = _Black;

  002ac	c6 46 0c 01	 mov	 BYTE PTR [esi+12], 1

; 627  :                         _Pnode->_Left->_Color  = _Black;

  002b0	8b 01		 mov	 eax, DWORD PTR [ecx]

; 628  :                         _Rrotate(_Fixnodeparent);

  002b2	8b cb		 mov	 ecx, ebx
  002b4	56		 push	 esi
  002b5	c6 40 0c 01	 mov	 BYTE PTR [eax+12], 1
  002b9	e8 00 00 00 00	 call	 ?_Rrotate@?$_Tree_val@U?$_Tree_simple_types@U?$pair@$$CBKK@std@@@std@@@std@@QAEXPAU?$_Tree_node@U?$pair@$$CBKK@std@@PAX@2@@Z ; std::_Tree_val<std::_Tree_simple_types<std::pair<unsigned long const ,unsigned long> > >::_Rrotate
  002be	eb b1		 jmp	 SHORT $LN3@Extract
?_Extract@?$_Tree_val@U?$_Tree_simple_types@U?$pair@$$CBKK@std@@@std@@@std@@QAEPAU?$_Tree_node@U?$pair@$$CBKK@std@@PAX@2@V?$_Tree_unchecked_const_iterator@V?$_Tree_val@U?$_Tree_simple_types@U?$pair@$$CBKK@std@@@std@@@std@@U_Iterator_base0@2@@2@@Z ENDP ; std::_Tree_val<std::_Tree_simple_types<std::pair<unsigned long const ,unsigned long> > >::_Extract
_TEXT	ENDS
; Function compile flags: /Ogtp
; File C:\Program Files (x86)\Microsoft Visual Studio\2019\Community\VC\Tools\MSVC\14.28.29333\include\xtree
;	COMDAT ?_Rrotate@?$_Tree_val@U?$_Tree_simple_types@U?$pair@$$CBKK@std@@@std@@@std@@QAEXPAU?$_Tree_node@U?$pair@$$CBKK@std@@PAX@2@@Z
_TEXT	SEGMENT
__Wherenode$ = 8					; size = 4
?_Rrotate@?$_Tree_val@U?$_Tree_simple_types@U?$pair@$$CBKK@std@@@std@@@std@@QAEXPAU?$_Tree_node@U?$pair@$$CBKK@std@@PAX@2@@Z PROC ; std::_Tree_val<std::_Tree_simple_types<std::pair<unsigned long const ,unsigned long> > >::_Rrotate, COMDAT
; _this$ = ecx

; 480  :     void _Rrotate(_Nodeptr _Wherenode) noexcept { // promote left node to root of subtree

  00000	55		 push	 ebp
  00001	8b ec		 mov	 ebp, esp

; 481  :         _Nodeptr _Pnode   = _Wherenode->_Left;

  00003	8b 55 08	 mov	 edx, DWORD PTR __Wherenode$[ebp]
  00006	56		 push	 esi
  00007	8b 32		 mov	 esi, DWORD PTR [edx]

; 482  :         _Wherenode->_Left = _Pnode->_Right;

  00009	8b 46 08	 mov	 eax, DWORD PTR [esi+8]
  0000c	89 02		 mov	 DWORD PTR [edx], eax

; 483  : 
; 484  :         if (!_Pnode->_Right->_Isnil) {

  0000e	8b 46 08	 mov	 eax, DWORD PTR [esi+8]
  00011	80 78 0d 00	 cmp	 BYTE PTR [eax+13], 0
  00015	75 03		 jne	 SHORT $LN2@Rrotate

; 485  :             _Pnode->_Right->_Parent = _Wherenode;

  00017	89 50 04	 mov	 DWORD PTR [eax+4], edx
$LN2@Rrotate:

; 486  :         }
; 487  : 
; 488  :         _Pnode->_Parent = _Wherenode->_Parent;

  0001a	8b 42 04	 mov	 eax, DWORD PTR [edx+4]
  0001d	89 46 04	 mov	 DWORD PTR [esi+4], eax

; 489  : 
; 490  :         if (_Wherenode == _Myhead->_Parent) {

  00020	8b 01		 mov	 eax, DWORD PTR [ecx]
  00022	3b 50 04	 cmp	 edx, DWORD PTR [eax+4]
  00025	75 0e		 jne	 SHORT $LN3@Rrotate

; 491  :             _Myhead->_Parent = _Pnode;

  00027	89 70 04	 mov	 DWORD PTR [eax+4], esi

; 496  :         }
; 497  : 
; 498  :         _Pnode->_Right      = _Wherenode;
; 499  :         _Wherenode->_Parent = _Pnode;
; 500  :     }

  0002a	89 56 08	 mov	 DWORD PTR [esi+8], edx
  0002d	89 72 04	 mov	 DWORD PTR [edx+4], esi
  00030	5e		 pop	 esi
  00031	5d		 pop	 ebp
  00032	c2 04 00	 ret	 4
$LN3@Rrotate:

; 492  :         } else if (_Wherenode == _Wherenode->_Parent->_Right) {

  00035	8b 42 04	 mov	 eax, DWORD PTR [edx+4]
  00038	3b 50 08	 cmp	 edx, DWORD PTR [eax+8]
  0003b	75 0e		 jne	 SHORT $LN5@Rrotate

; 493  :             _Wherenode->_Parent->_Right = _Pnode;

  0003d	89 70 08	 mov	 DWORD PTR [eax+8], esi

; 496  :         }
; 497  : 
; 498  :         _Pnode->_Right      = _Wherenode;
; 499  :         _Wherenode->_Parent = _Pnode;
; 500  :     }

  00040	89 56 08	 mov	 DWORD PTR [esi+8], edx
  00043	89 72 04	 mov	 DWORD PTR [edx+4], esi
  00046	5e		 pop	 esi
  00047	5d		 pop	 ebp
  00048	c2 04 00	 ret	 4
$LN5@Rrotate:

; 494  :         } else {
; 495  :             _Wherenode->_Parent->_Left = _Pnode;

  0004b	89 30		 mov	 DWORD PTR [eax], esi

; 496  :         }
; 497  : 
; 498  :         _Pnode->_Right      = _Wherenode;
; 499  :         _Wherenode->_Parent = _Pnode;
; 500  :     }

  0004d	89 56 08	 mov	 DWORD PTR [esi+8], edx
  00050	89 72 04	 mov	 DWORD PTR [edx+4], esi
  00053	5e		 pop	 esi
  00054	5d		 pop	 ebp
  00055	c2 04 00	 ret	 4
?_Rrotate@?$_Tree_val@U?$_Tree_simple_types@U?$pair@$$CBKK@std@@@std@@@std@@QAEXPAU?$_Tree_node@U?$pair@$$CBKK@std@@PAX@2@@Z ENDP ; std::_Tree_val<std::_Tree_simple_types<std::pair<unsigned long const ,unsigned long> > >::_Rrotate
_TEXT	ENDS
; Function compile flags: /Ogtp
; File C:\Program Files (x86)\Microsoft Visual Studio\2019\Community\VC\Tools\MSVC\14.28.29333\include\xtree
;	COMDAT ?_Lrotate@?$_Tree_val@U?$_Tree_simple_types@U?$pair@$$CBKK@std@@@std@@@std@@QAEXPAU?$_Tree_node@U?$pair@$$CBKK@std@@PAX@2@@Z
_TEXT	SEGMENT
__Wherenode$ = 8					; size = 4
?_Lrotate@?$_Tree_val@U?$_Tree_simple_types@U?$pair@$$CBKK@std@@@std@@@std@@QAEXPAU?$_Tree_node@U?$pair@$$CBKK@std@@PAX@2@@Z PROC ; std::_Tree_val<std::_Tree_simple_types<std::pair<unsigned long const ,unsigned long> > >::_Lrotate, COMDAT
; _this$ = ecx

; 458  :     void _Lrotate(_Nodeptr _Wherenode) noexcept { // promote right node to root of subtree

  00000	55		 push	 ebp
  00001	8b ec		 mov	 ebp, esp

; 459  :         _Nodeptr _Pnode    = _Wherenode->_Right;

  00003	8b 55 08	 mov	 edx, DWORD PTR __Wherenode$[ebp]
  00006	56		 push	 esi
  00007	8b 72 08	 mov	 esi, DWORD PTR [edx+8]

; 460  :         _Wherenode->_Right = _Pnode->_Left;

  0000a	8b 06		 mov	 eax, DWORD PTR [esi]
  0000c	89 42 08	 mov	 DWORD PTR [edx+8], eax

; 461  : 
; 462  :         if (!_Pnode->_Left->_Isnil) {

  0000f	8b 06		 mov	 eax, DWORD PTR [esi]
  00011	80 78 0d 00	 cmp	 BYTE PTR [eax+13], 0
  00015	75 03		 jne	 SHORT $LN2@Lrotate

; 463  :             _Pnode->_Left->_Parent = _Wherenode;

  00017	89 50 04	 mov	 DWORD PTR [eax+4], edx
$LN2@Lrotate:

; 464  :         }
; 465  : 
; 466  :         _Pnode->_Parent = _Wherenode->_Parent;

  0001a	8b 42 04	 mov	 eax, DWORD PTR [edx+4]
  0001d	89 46 04	 mov	 DWORD PTR [esi+4], eax

; 467  : 
; 468  :         if (_Wherenode == _Myhead->_Parent) {

  00020	8b 01		 mov	 eax, DWORD PTR [ecx]
  00022	3b 50 04	 cmp	 edx, DWORD PTR [eax+4]
  00025	75 0d		 jne	 SHORT $LN3@Lrotate

; 469  :             _Myhead->_Parent = _Pnode;

  00027	89 70 04	 mov	 DWORD PTR [eax+4], esi

; 474  :         }
; 475  : 
; 476  :         _Pnode->_Left       = _Wherenode;
; 477  :         _Wherenode->_Parent = _Pnode;
; 478  :     }

  0002a	89 16		 mov	 DWORD PTR [esi], edx
  0002c	89 72 04	 mov	 DWORD PTR [edx+4], esi
  0002f	5e		 pop	 esi
  00030	5d		 pop	 ebp
  00031	c2 04 00	 ret	 4
$LN3@Lrotate:

; 470  :         } else if (_Wherenode == _Wherenode->_Parent->_Left) {

  00034	8b 42 04	 mov	 eax, DWORD PTR [edx+4]
  00037	3b 10		 cmp	 edx, DWORD PTR [eax]
  00039	75 0c		 jne	 SHORT $LN5@Lrotate

; 471  :             _Wherenode->_Parent->_Left = _Pnode;

  0003b	89 30		 mov	 DWORD PTR [eax], esi

; 474  :         }
; 475  : 
; 476  :         _Pnode->_Left       = _Wherenode;
; 477  :         _Wherenode->_Parent = _Pnode;
; 478  :     }

  0003d	89 16		 mov	 DWORD PTR [esi], edx
  0003f	89 72 04	 mov	 DWORD PTR [edx+4], esi
  00042	5e		 pop	 esi
  00043	5d		 pop	 ebp
  00044	c2 04 00	 ret	 4
$LN5@Lrotate:

; 472  :         } else {
; 473  :             _Wherenode->_Parent->_Right = _Pnode;

  00047	89 70 08	 mov	 DWORD PTR [eax+8], esi

; 474  :         }
; 475  : 
; 476  :         _Pnode->_Left       = _Wherenode;
; 477  :         _Wherenode->_Parent = _Pnode;
; 478  :     }

  0004a	89 16		 mov	 DWORD PTR [esi], edx
  0004c	89 72 04	 mov	 DWORD PTR [edx+4], esi
  0004f	5e		 pop	 esi
  00050	5d		 pop	 ebp
  00051	c2 04 00	 ret	 4
?_Lrotate@?$_Tree_val@U?$_Tree_simple_types@U?$pair@$$CBKK@std@@@std@@@std@@QAEXPAU?$_Tree_node@U?$pair@$$CBKK@std@@PAX@2@@Z ENDP ; std::_Tree_val<std::_Tree_simple_types<std::pair<unsigned long const ,unsigned long> > >::_Lrotate
_TEXT	ENDS
; Function compile flags: /Ogtp
; File C:\Program Files (x86)\Microsoft Visual Studio\2019\Community\VC\Tools\MSVC\14.28.29333\include\xtree
; File C:\Program Files (x86)\Microsoft Visual Studio\2019\Community\VC\Tools\MSVC\14.28.29333\include\utility
; File C:\Program Files (x86)\Microsoft Visual Studio\2019\Community\VC\Tools\MSVC\14.28.29333\include\xmemory
; File C:\Program Files (x86)\Microsoft Visual Studio\2019\Community\VC\Tools\MSVC\14.28.29333\include\xtree
;	COMDAT ?clear@?$_Tree@V?$_Tmap_traits@KKU?$less@K@std@@V?$allocator@U?$pair@$$CBKK@std@@@2@$0A@@std@@@std@@QAEXXZ
_TEXT	SEGMENT
?clear@?$_Tree@V?$_Tmap_traits@KKU?$less@K@std@@V?$allocator@U?$pair@$$CBKK@std@@@2@$0A@@std@@@std@@QAEXXZ PROC ; std::_Tree<std::_Tmap_traits<unsigned long,unsigned long,std::less<unsigned long>,std::allocator<std::pair<unsigned long const ,unsigned long> >,0> >::clear, COMDAT
; _this$ = ecx

; 1444 :     void clear() noexcept {

  00000	53		 push	 ebx
  00001	8b d9		 mov	 ebx, ecx
  00003	56		 push	 esi
  00004	57		 push	 edi

; 1445 :         const auto _Scary = _Get_scary();
; 1446 :         _Scary->_Orphan_ptr(nullptr);
; 1447 :         auto _Head = _Scary->_Myhead;

  00005	8b 3b		 mov	 edi, DWORD PTR [ebx]

; 1448 :         _Scary->_Erase_tree(_Getal(), _Head->_Parent);

  00007	8b 77 04	 mov	 esi, DWORD PTR [edi+4]

; 743  :         while (!_Rootnode->_Isnil) { // free subtrees, then node

  0000a	80 7e 0d 00	 cmp	 BYTE PTR [esi+13], 0
  0000e	75 20		 jne	 SHORT $LN5@clear
$LL4@clear:

; 744  :             _Erase_tree(_Al, _Rootnode->_Right);

  00010	ff 76 08	 push	 DWORD PTR [esi+8]
  00013	8b cb		 mov	 ecx, ebx
  00015	53		 push	 ebx
  00016	e8 00 00 00 00	 call	 ??$_Erase_tree@V?$allocator@U?$_Tree_node@U?$pair@$$CBKK@std@@PAX@std@@@std@@@?$_Tree_val@U?$_Tree_simple_types@U?$pair@$$CBKK@std@@@std@@@std@@QAEXAAV?$allocator@U?$_Tree_node@U?$pair@$$CBKK@std@@PAX@std@@@1@PAU?$_Tree_node@U?$pair@$$CBKK@std@@PAX@1@@Z ; std::_Tree_val<std::_Tree_simple_types<std::pair<unsigned long const ,unsigned long> > >::_Erase_tree<std::allocator<std::_Tree_node<std::pair<unsigned long const ,unsigned long>,void *> > >
; File C:\Program Files (x86)\Microsoft Visual Studio\2019\Community\VC\Tools\MSVC\14.28.29333\include\utility

; 598  :     _Ty _Old_val = static_cast<_Ty&&>(_Val);

  0001b	8b c6		 mov	 eax, esi

; 599  :     _Val         = static_cast<_Other&&>(_New_val);

  0001d	8b 36		 mov	 esi, DWORD PTR [esi]
; File C:\Program Files (x86)\Microsoft Visual Studio\2019\Community\VC\Tools\MSVC\14.28.29333\include\xmemory

; 696  :         _Deallocate<_New_alignof<value_type>>(_Ptr, sizeof(value_type) * _Count);

  0001f	6a 18		 push	 24			; 00000018H
  00021	50		 push	 eax
  00022	e8 00 00 00 00	 call	 ??$_Deallocate@$07$0A@@std@@YAXPAXI@Z ; std::_Deallocate<8,0>
  00027	83 c4 08	 add	 esp, 8
; File C:\Program Files (x86)\Microsoft Visual Studio\2019\Community\VC\Tools\MSVC\14.28.29333\include\xtree

; 743  :         while (!_Rootnode->_Isnil) { // free subtrees, then node

  0002a	80 7e 0d 00	 cmp	 BYTE PTR [esi+13], 0
  0002e	74 e0		 je	 SHORT $LL4@clear
$LN5@clear:

; 1449 :         _Head->_Parent  = _Head;

  00030	89 7f 04	 mov	 DWORD PTR [edi+4], edi

; 1450 :         _Head->_Left    = _Head;

  00033	89 3f		 mov	 DWORD PTR [edi], edi

; 1451 :         _Head->_Right   = _Head;

  00035	89 7f 08	 mov	 DWORD PTR [edi+8], edi

; 1452 :         _Scary->_Mysize = 0;

  00038	5f		 pop	 edi
  00039	5e		 pop	 esi
  0003a	c7 43 04 00 00
	00 00		 mov	 DWORD PTR [ebx+4], 0
  00041	5b		 pop	 ebx

; 1453 :     }

  00042	c3		 ret	 0
?clear@?$_Tree@V?$_Tmap_traits@KKU?$less@K@std@@V?$allocator@U?$pair@$$CBKK@std@@@2@$0A@@std@@@std@@QAEXXZ ENDP ; std::_Tree<std::_Tmap_traits<unsigned long,unsigned long,std::less<unsigned long>,std::allocator<std::pair<unsigned long const ,unsigned long> >,0> >::clear
_TEXT	ENDS
; Function compile flags: /Ogtp
; File C:\Program Files (x86)\Microsoft Visual Studio\2019\Community\VC\Tools\MSVC\14.28.29333\include\xtree
; File C:\Program Files (x86)\Microsoft Visual Studio\2019\Community\VC\Tools\MSVC\14.28.29333\include\utility
; File C:\Program Files (x86)\Microsoft Visual Studio\2019\Community\VC\Tools\MSVC\14.28.29333\include\xmemory
; File C:\Program Files (x86)\Microsoft Visual Studio\2019\Community\VC\Tools\MSVC\14.28.29333\include\xtree
; File C:\Program Files (x86)\Microsoft Visual Studio\2019\Community\VC\Tools\MSVC\14.28.29333\include\xmemory
; File C:\Program Files (x86)\Microsoft Visual Studio\2019\Community\VC\Tools\MSVC\14.28.29333\include\xtree
;	COMDAT ??1?$_Tree@V?$_Tmap_traits@KKU?$less@K@std@@V?$allocator@U?$pair@$$CBKK@std@@@2@$0A@@std@@@std@@QAE@XZ
_TEXT	SEGMENT
??1?$_Tree@V?$_Tmap_traits@KKU?$less@K@std@@V?$allocator@U?$pair@$$CBKK@std@@@2@$0A@@std@@@std@@QAE@XZ PROC ; std::_Tree<std::_Tmap_traits<unsigned long,unsigned long,std::less<unsigned long>,std::allocator<std::pair<unsigned long const ,unsigned long> >,0> >::~_Tree<std::_Tmap_traits<unsigned long,unsigned long,std::less<unsigned long>,std::allocator<std::pair<unsigned long const ,unsigned long> >,0> >, COMDAT
; _this$ = ecx

; 1189 :     ~_Tree() noexcept {

  00000	56		 push	 esi
  00001	57		 push	 edi
  00002	8b f9		 mov	 edi, ecx

; 752  :         _Erase_tree(_Al, _Myhead->_Parent);

  00004	8b 07		 mov	 eax, DWORD PTR [edi]
  00006	8b 70 04	 mov	 esi, DWORD PTR [eax+4]

; 743  :         while (!_Rootnode->_Isnil) { // free subtrees, then node

  00009	80 7e 0d 00	 cmp	 BYTE PTR [esi+13], 0
  0000d	75 23		 jne	 SHORT $LN7@Tree
  0000f	90		 npad	 1
$LL6@Tree:

; 744  :             _Erase_tree(_Al, _Rootnode->_Right);

  00010	ff 76 08	 push	 DWORD PTR [esi+8]
  00013	8b cf		 mov	 ecx, edi
  00015	57		 push	 edi
  00016	e8 00 00 00 00	 call	 ??$_Erase_tree@V?$allocator@U?$_Tree_node@U?$pair@$$CBKK@std@@PAX@std@@@std@@@?$_Tree_val@U?$_Tree_simple_types@U?$pair@$$CBKK@std@@@std@@@std@@QAEXAAV?$allocator@U?$_Tree_node@U?$pair@$$CBKK@std@@PAX@std@@@1@PAU?$_Tree_node@U?$pair@$$CBKK@std@@PAX@1@@Z ; std::_Tree_val<std::_Tree_simple_types<std::pair<unsigned long const ,unsigned long> > >::_Erase_tree<std::allocator<std::_Tree_node<std::pair<unsigned long const ,unsigned long>,void *> > >
; File C:\Program Files (x86)\Microsoft Visual Studio\2019\Community\VC\Tools\MSVC\14.28.29333\include\utility

; 598  :     _Ty _Old_val = static_cast<_Ty&&>(_Val);

  0001b	8b c6		 mov	 eax, esi

; 599  :     _Val         = static_cast<_Other&&>(_New_val);

  0001d	8b 36		 mov	 esi, DWORD PTR [esi]
; File C:\Program Files (x86)\Microsoft Visual Studio\2019\Community\VC\Tools\MSVC\14.28.29333\include\xmemory

; 696  :         _Deallocate<_New_alignof<value_type>>(_Ptr, sizeof(value_type) * _Count);

  0001f	6a 18		 push	 24			; 00000018H
  00021	50		 push	 eax
  00022	e8 00 00 00 00	 call	 ??$_Deallocate@$07$0A@@std@@YAXPAXI@Z ; std::_Deallocate<8,0>
  00027	83 c4 08	 add	 esp, 8
; File C:\Program Files (x86)\Microsoft Visual Studio\2019\Community\VC\Tools\MSVC\14.28.29333\include\xtree

; 743  :         while (!_Rootnode->_Isnil) { // free subtrees, then node

  0002a	80 7e 0d 00	 cmp	 BYTE PTR [esi+13], 0
  0002e	74 e0		 je	 SHORT $LL6@Tree
  00030	8b 07		 mov	 eax, DWORD PTR [edi]
$LN7@Tree:
; File C:\Program Files (x86)\Microsoft Visual Studio\2019\Community\VC\Tools\MSVC\14.28.29333\include\xmemory

; 696  :         _Deallocate<_New_alignof<value_type>>(_Ptr, sizeof(value_type) * _Count);

  00032	6a 18		 push	 24			; 00000018H
  00034	50		 push	 eax
  00035	e8 00 00 00 00	 call	 ??$_Deallocate@$07$0A@@std@@YAXPAXI@Z ; std::_Deallocate<8,0>
  0003a	83 c4 08	 add	 esp, 8
  0003d	5f		 pop	 edi
  0003e	5e		 pop	 esi
; File C:\Program Files (x86)\Microsoft Visual Studio\2019\Community\VC\Tools\MSVC\14.28.29333\include\xtree

; 1196 :     }

  0003f	c3		 ret	 0
??1?$_Tree@V?$_Tmap_traits@KKU?$less@K@std@@V?$allocator@U?$pair@$$CBKK@std@@@2@$0A@@std@@@std@@QAE@XZ ENDP ; std::_Tree<std::_Tmap_traits<unsigned long,unsigned long,std::less<unsigned long>,std::allocator<std::pair<unsigned long const ,unsigned long> >,0> >::~_Tree<std::_Tmap_traits<unsigned long,unsigned long,std::less<unsigned long>,std::allocator<std::pair<unsigned long const ,unsigned long> >,0> >
_TEXT	ENDS
; Function compile flags: /Ogtp
; File C:\Program Files (x86)\Microsoft Visual Studio\2019\Community\VC\Tools\MSVC\14.28.29333\include\xtree
; File C:\Program Files (x86)\Microsoft Visual Studio\2019\Community\VC\Tools\MSVC\14.28.29333\include\xmemory
;	COMDAT ??1?$set@V?$basic_string@DU?$char_traits@D@std@@V?$allocator@D@2@@std@@U?$less@V?$basic_string@DU?$char_traits@D@std@@V?$allocator@D@2@@std@@@2@V?$allocator@V?$basic_string@DU?$char_traits@D@std@@V?$allocator@D@2@@std@@@2@@std@@QAE@XZ
_TEXT	SEGMENT
??1?$set@V?$basic_string@DU?$char_traits@D@std@@V?$allocator@D@2@@std@@U?$less@V?$basic_string@DU?$char_traits@D@std@@V?$allocator@D@2@@std@@@2@V?$allocator@V?$basic_string@DU?$char_traits@D@std@@V?$allocator@D@2@@std@@@2@@std@@QAE@XZ PROC ; std::set<std::basic_string<char,std::char_traits<char>,std::allocator<char> >,std::less<std::basic_string<char,std::char_traits<char>,std::allocator<char> > >,std::allocator<std::basic_string<char,std::char_traits<char>,std::allocator<char> > > >::~set<std::basic_string<char,std::char_traits<char>,std::allocator<char> >,std::less<std::basic_string<char,std::char_traits<char>,std::allocator<char> > >,std::allocator<std::basic_string<char,std::char_traits<char>,std::allocator<char> > > >, COMDAT
; _this$ = ecx
; File C:\Program Files (x86)\Microsoft Visual Studio\2019\Community\VC\Tools\MSVC\14.28.29333\include\xtree

; 752  :         _Erase_tree(_Al, _Myhead->_Parent);

  00000	56		 push	 esi
  00001	8b f1		 mov	 esi, ecx
  00003	8b 06		 mov	 eax, DWORD PTR [esi]
  00005	ff 70 04	 push	 DWORD PTR [eax+4]
  00008	56		 push	 esi
  00009	e8 00 00 00 00	 call	 ??$_Erase_tree@V?$allocator@U?$_Tree_node@V?$basic_string@DU?$char_traits@D@std@@V?$allocator@D@2@@std@@PAX@std@@@std@@@?$_Tree_val@U?$_Tree_simple_types@V?$basic_string@DU?$char_traits@D@std@@V?$allocator@D@2@@std@@@std@@@std@@QAEXAAV?$allocator@U?$_Tree_node@V?$basic_string@DU?$char_traits@D@std@@V?$allocator@D@2@@std@@PAX@std@@@1@PAU?$_Tree_node@V?$basic_string@DU?$char_traits@D@std@@V?$allocator@D@2@@std@@PAX@1@@Z ; std::_Tree_val<std::_Tree_simple_types<std::basic_string<char,std::char_traits<char>,std::allocator<char> > > >::_Erase_tree<std::allocator<std::_Tree_node<std::basic_string<char,std::char_traits<char>,std::allocator<char> >,void *> > >
; File C:\Program Files (x86)\Microsoft Visual Studio\2019\Community\VC\Tools\MSVC\14.28.29333\include\xmemory

; 696  :         _Deallocate<_New_alignof<value_type>>(_Ptr, sizeof(value_type) * _Count);

  0000e	6a 28		 push	 40			; 00000028H
  00010	ff 36		 push	 DWORD PTR [esi]
  00012	e8 00 00 00 00	 call	 ??$_Deallocate@$07$0A@@std@@YAXPAXI@Z ; std::_Deallocate<8,0>
  00017	83 c4 08	 add	 esp, 8
  0001a	5e		 pop	 esi
  0001b	c3		 ret	 0
??1?$set@V?$basic_string@DU?$char_traits@D@std@@V?$allocator@D@2@@std@@U?$less@V?$basic_string@DU?$char_traits@D@std@@V?$allocator@D@2@@std@@@2@V?$allocator@V?$basic_string@DU?$char_traits@D@std@@V?$allocator@D@2@@std@@@2@@std@@QAE@XZ ENDP ; std::set<std::basic_string<char,std::char_traits<char>,std::allocator<char> >,std::less<std::basic_string<char,std::char_traits<char>,std::allocator<char> > >,std::allocator<std::basic_string<char,std::char_traits<char>,std::allocator<char> > > >::~set<std::basic_string<char,std::char_traits<char>,std::allocator<char> >,std::less<std::basic_string<char,std::char_traits<char>,std::allocator<char> > >,std::allocator<std::basic_string<char,std::char_traits<char>,std::allocator<char> > > >
_TEXT	ENDS
; Function compile flags: /Ogtp
; File C:\Program Files (x86)\Microsoft Visual Studio\2019\Community\VC\Tools\MSVC\14.28.29333\include\xtree
;	COMDAT ?_Insert_node@?$_Tree_val@U?$_Tree_simple_types@V?$basic_string@DU?$char_traits@D@std@@V?$allocator@D@2@@std@@@std@@@std@@QAEPAU?$_Tree_node@V?$basic_string@DU?$char_traits@D@std@@V?$allocator@D@2@@std@@PAX@2@U?$_Tree_id@PAU?$_Tree_node@V?$basic_string@DU?$char_traits@D@std@@V?$allocator@D@2@@std@@PAX@std@@@2@QAU32@@Z
_TEXT	SEGMENT
__Head$1$ = -8						; size = 4
_this$1$ = -4						; size = 4
__Loc$ = 8						; size = 8
__Newnode$ = 16						; size = 4
?_Insert_node@?$_Tree_val@U?$_Tree_simple_types@V?$basic_string@DU?$char_traits@D@std@@V?$allocator@D@2@@std@@@std@@@std@@QAEPAU?$_Tree_node@V?$basic_string@DU?$char_traits@D@std@@V?$allocator@D@2@@std@@PAX@2@U?$_Tree_id@PAU?$_Tree_node@V?$basic_string@DU?$char_traits@D@std@@V?$allocator@D@2@@std@@PAX@std@@@2@QAU32@@Z PROC ; std::_Tree_val<std::_Tree_simple_types<std::basic_string<char,std::char_traits<char>,std::allocator<char> > > >::_Insert_node, COMDAT
; _this$ = ecx

; 644  :     _Nodeptr _Insert_node(const _Tree_id<_Nodeptr> _Loc, const _Nodeptr _Newnode) noexcept {

  00000	55		 push	 ebp
  00001	8b ec		 mov	 ebp, esp
  00003	83 ec 08	 sub	 esp, 8

; 645  :         ++_Mysize;
; 646  :         const auto _Head  = _Myhead;
; 647  :         _Newnode->_Parent = _Loc._Parent;

  00006	8b 55 08	 mov	 edx, DWORD PTR __Loc$[ebp]
  00009	8b c1		 mov	 eax, ecx
  0000b	89 45 fc	 mov	 DWORD PTR _this$1$[ebp], eax
  0000e	8b 08		 mov	 ecx, DWORD PTR [eax]
  00010	ff 40 04	 inc	 DWORD PTR [eax+4]
  00013	8b 45 10	 mov	 eax, DWORD PTR __Newnode$[ebp]
  00016	89 4d f8	 mov	 DWORD PTR __Head$1$[ebp], ecx
  00019	89 50 04	 mov	 DWORD PTR [eax+4], edx

; 648  :         if (_Loc._Parent == _Head) { // first node in tree, just set head values

  0001c	3b d1		 cmp	 edx, ecx
  0001e	75 12		 jne	 SHORT $LN5@Insert_nod

; 649  :             _Head->_Left     = _Newnode;

  00020	89 01		 mov	 DWORD PTR [ecx], eax

; 650  :             _Head->_Parent   = _Newnode;

  00022	89 41 04	 mov	 DWORD PTR [ecx+4], eax

; 651  :             _Head->_Right    = _Newnode;

  00025	89 41 08	 mov	 DWORD PTR [ecx+8], eax

; 652  :             _Newnode->_Color = _Black; // the root is black

  00028	c6 40 0c 01	 mov	 BYTE PTR [eax+12], 1

; 711  :     }

  0002c	8b e5		 mov	 esp, ebp
  0002e	5d		 pop	 ebp
  0002f	c2 0c 00	 ret	 12			; 0000000cH
$LN5@Insert_nod:

; 653  :             return _Newnode;
; 654  :         }
; 655  : 
; 656  :         _STL_INTERNAL_CHECK(_Loc._Child != _Tree_child::_Unused);
; 657  :         if (_Loc._Child == _Tree_child::_Right) { // add to right of _Loc._Parent

  00032	83 7d 0c 00	 cmp	 DWORD PTR __Loc$[ebp+4], 0
  00036	75 0d		 jne	 SHORT $LN6@Insert_nod

; 658  :             _STL_INTERNAL_CHECK(_Loc._Parent->_Right->_Isnil);
; 659  :             _Loc._Parent->_Right = _Newnode;

  00038	89 42 08	 mov	 DWORD PTR [edx+8], eax

; 660  :             if (_Loc._Parent == _Head->_Right) { // remember rightmost node

  0003b	3b 51 08	 cmp	 edx, DWORD PTR [ecx+8]
  0003e	75 0d		 jne	 SHORT $LN9@Insert_nod

; 661  :                 _Head->_Right = _Newnode;

  00040	89 41 08	 mov	 DWORD PTR [ecx+8], eax

; 662  :             }
; 663  :         } else { // add to left of _Loc._Parent

  00043	eb 08		 jmp	 SHORT $LN9@Insert_nod
$LN6@Insert_nod:

; 664  :             _STL_INTERNAL_CHECK(_Loc._Parent->_Left->_Isnil);
; 665  :             _Loc._Parent->_Left = _Newnode;

  00045	89 02		 mov	 DWORD PTR [edx], eax

; 666  :             if (_Loc._Parent == _Head->_Left) { // remember leftmost node

  00047	3b 11		 cmp	 edx, DWORD PTR [ecx]
  00049	75 02		 jne	 SHORT $LN9@Insert_nod

; 667  :                 _Head->_Left = _Newnode;

  0004b	89 01		 mov	 DWORD PTR [ecx], eax
$LN9@Insert_nod:

; 668  :             }
; 669  :         }
; 670  : 
; 671  :         for (_Nodeptr _Pnode = _Newnode; _Pnode->_Parent->_Color == _Red;) {

  0004d	8b d0		 mov	 edx, eax
  0004f	8b 40 04	 mov	 eax, DWORD PTR [eax+4]
  00052	80 78 0c 00	 cmp	 BYTE PTR [eax+12], 0
  00056	0f 85 99 01 00
	00		 jne	 $LN3@Insert_nod
  0005c	53		 push	 ebx
  0005d	56		 push	 esi
  0005e	57		 push	 edi
  0005f	90		 npad	 1
$LL2@Insert_nod:

; 672  :             if (_Pnode->_Parent == _Pnode->_Parent->_Parent->_Left) { // fixup red-red in left subtree

  00060	8b 4a 04	 mov	 ecx, DWORD PTR [edx+4]
  00063	8d 7a 04	 lea	 edi, DWORD PTR [edx+4]
  00066	8b 71 04	 mov	 esi, DWORD PTR [ecx+4]
  00069	8d 59 04	 lea	 ebx, DWORD PTR [ecx+4]
  0006c	8b 06		 mov	 eax, DWORD PTR [esi]
  0006e	3b c8		 cmp	 ecx, eax
  00070	0f 85 ba 00 00
	00		 jne	 $LN10@Insert_nod

; 673  :                 const auto _Parent_sibling = _Pnode->_Parent->_Parent->_Right;

  00076	8b 46 08	 mov	 eax, DWORD PTR [esi+8]

; 674  :                 if (_Parent_sibling->_Color == _Red) { // parent's sibling has two red children, blacken both

  00079	80 78 0c 00	 cmp	 BYTE PTR [eax+12], 0
  0007d	0f 84 b3 00 00
	00		 je	 $LN53@Insert_nod

; 675  :                     _Pnode->_Parent->_Color          = _Black;
; 676  :                     _Parent_sibling->_Color          = _Black;
; 677  :                     _Pnode->_Parent->_Parent->_Color = _Red;
; 678  :                     _Pnode                           = _Pnode->_Parent->_Parent;
; 679  :                 } else { // parent's sibling has red and black children
; 680  :                     if (_Pnode == _Pnode->_Parent->_Right) { // rotate right child to left

  00083	8b 71 08	 mov	 esi, DWORD PTR [ecx+8]
  00086	3b d6		 cmp	 edx, esi
  00088	75 47		 jne	 SHORT $LN51@Insert_nod

; 460  :         _Wherenode->_Right = _Pnode->_Left;

  0008a	8b 06		 mov	 eax, DWORD PTR [esi]

; 681  :                         _Pnode = _Pnode->_Parent;

  0008c	8b d1		 mov	 edx, ecx

; 460  :         _Wherenode->_Right = _Pnode->_Left;

  0008e	89 42 08	 mov	 DWORD PTR [edx+8], eax

; 461  : 
; 462  :         if (!_Pnode->_Left->_Isnil) {

  00091	8b 06		 mov	 eax, DWORD PTR [esi]
  00093	80 78 0d 00	 cmp	 BYTE PTR [eax+13], 0
  00097	75 03		 jne	 SHORT $LN20@Insert_nod

; 463  :             _Pnode->_Left->_Parent = _Wherenode;

  00099	89 50 04	 mov	 DWORD PTR [eax+4], edx
$LN20@Insert_nod:

; 464  :         }
; 465  : 
; 466  :         _Pnode->_Parent = _Wherenode->_Parent;

  0009c	8b 03		 mov	 eax, DWORD PTR [ebx]
  0009e	89 46 04	 mov	 DWORD PTR [esi+4], eax

; 467  : 
; 468  :         if (_Wherenode == _Myhead->_Parent) {

  000a1	8b 45 fc	 mov	 eax, DWORD PTR _this$1$[ebp]
  000a4	8b 00		 mov	 eax, DWORD PTR [eax]
  000a6	3b 50 04	 cmp	 edx, DWORD PTR [eax+4]
  000a9	75 0b		 jne	 SHORT $LN21@Insert_nod

; 469  :             _Myhead->_Parent = _Pnode;

  000ab	89 70 04	 mov	 DWORD PTR [eax+4], esi

; 477  :         _Wherenode->_Parent = _Pnode;

  000ae	8b fb		 mov	 edi, ebx
  000b0	89 16		 mov	 DWORD PTR [esi], edx
  000b2	89 33		 mov	 DWORD PTR [ebx], esi
  000b4	eb 1d		 jmp	 SHORT $LN49@Insert_nod
$LN21@Insert_nod:

; 470  :         } else if (_Wherenode == _Wherenode->_Parent->_Left) {

  000b6	8b 03		 mov	 eax, DWORD PTR [ebx]
  000b8	3b 10		 cmp	 edx, DWORD PTR [eax]
  000ba	75 0a		 jne	 SHORT $LN23@Insert_nod

; 471  :             _Wherenode->_Parent->_Left = _Pnode;

  000bc	89 30		 mov	 DWORD PTR [eax], esi

; 477  :         _Wherenode->_Parent = _Pnode;

  000be	8b fb		 mov	 edi, ebx
  000c0	89 16		 mov	 DWORD PTR [esi], edx
  000c2	89 33		 mov	 DWORD PTR [ebx], esi
  000c4	eb 0d		 jmp	 SHORT $LN49@Insert_nod
$LN23@Insert_nod:

; 473  :             _Wherenode->_Parent->_Right = _Pnode;

  000c6	89 70 08	 mov	 DWORD PTR [eax+8], esi

; 477  :         _Wherenode->_Parent = _Pnode;

  000c9	8b fb		 mov	 edi, ebx
  000cb	89 16		 mov	 DWORD PTR [esi], edx
  000cd	89 33		 mov	 DWORD PTR [ebx], esi
  000cf	eb 02		 jmp	 SHORT $LN49@Insert_nod
$LN51@Insert_nod:
  000d1	8b f1		 mov	 esi, ecx
$LN49@Insert_nod:

; 682  :                         _Lrotate(_Pnode);
; 683  :                     }
; 684  : 
; 685  :                     _Pnode->_Parent->_Color          = _Black; // propagate red up

  000d3	c6 46 0c 01	 mov	 BYTE PTR [esi+12], 1

; 686  :                     _Pnode->_Parent->_Parent->_Color = _Red;

  000d7	8b 07		 mov	 eax, DWORD PTR [edi]
  000d9	8b 40 04	 mov	 eax, DWORD PTR [eax+4]
  000dc	c6 40 0c 00	 mov	 BYTE PTR [eax+12], 0

; 687  :                     _Rrotate(_Pnode->_Parent->_Parent);

  000e0	8b 07		 mov	 eax, DWORD PTR [edi]
  000e2	8b 48 04	 mov	 ecx, DWORD PTR [eax+4]

; 481  :         _Nodeptr _Pnode   = _Wherenode->_Left;

  000e5	8b 31		 mov	 esi, DWORD PTR [ecx]

; 482  :         _Wherenode->_Left = _Pnode->_Right;

  000e7	8b 46 08	 mov	 eax, DWORD PTR [esi+8]
  000ea	89 01		 mov	 DWORD PTR [ecx], eax

; 483  : 
; 484  :         if (!_Pnode->_Right->_Isnil) {

  000ec	8b 46 08	 mov	 eax, DWORD PTR [esi+8]
  000ef	80 78 0d 00	 cmp	 BYTE PTR [eax+13], 0
  000f3	75 03		 jne	 SHORT $LN27@Insert_nod

; 485  :             _Pnode->_Right->_Parent = _Wherenode;

  000f5	89 48 04	 mov	 DWORD PTR [eax+4], ecx
$LN27@Insert_nod:

; 486  :         }
; 487  : 
; 488  :         _Pnode->_Parent = _Wherenode->_Parent;

  000f8	8b 41 04	 mov	 eax, DWORD PTR [ecx+4]
  000fb	89 46 04	 mov	 DWORD PTR [esi+4], eax

; 489  : 
; 490  :         if (_Wherenode == _Myhead->_Parent) {

  000fe	8b 45 fc	 mov	 eax, DWORD PTR _this$1$[ebp]
  00101	8b 00		 mov	 eax, DWORD PTR [eax]
  00103	3b 48 04	 cmp	 ecx, DWORD PTR [eax+4]
  00106	75 0b		 jne	 SHORT $LN28@Insert_nod

; 491  :             _Myhead->_Parent = _Pnode;

  00108	89 70 04	 mov	 DWORD PTR [eax+4], esi

; 496  :         }
; 497  : 
; 498  :         _Pnode->_Right      = _Wherenode;

  0010b	89 4e 08	 mov	 DWORD PTR [esi+8], ecx

; 688  :                 }
; 689  :             } else { // fixup red-red in right subtree

  0010e	e9 cc 00 00 00	 jmp	 $LN52@Insert_nod
$LN28@Insert_nod:

; 492  :         } else if (_Wherenode == _Wherenode->_Parent->_Right) {

  00113	8b 41 04	 mov	 eax, DWORD PTR [ecx+4]
  00116	3b 48 08	 cmp	 ecx, DWORD PTR [eax+8]
  00119	75 0b		 jne	 SHORT $LN30@Insert_nod

; 493  :             _Wherenode->_Parent->_Right = _Pnode;

  0011b	89 70 08	 mov	 DWORD PTR [eax+8], esi

; 496  :         }
; 497  : 
; 498  :         _Pnode->_Right      = _Wherenode;

  0011e	89 4e 08	 mov	 DWORD PTR [esi+8], ecx

; 688  :                 }
; 689  :             } else { // fixup red-red in right subtree

  00121	e9 b9 00 00 00	 jmp	 $LN52@Insert_nod
$LN30@Insert_nod:

; 495  :             _Wherenode->_Parent->_Left = _Pnode;

  00126	89 30		 mov	 DWORD PTR [eax], esi

; 496  :         }
; 497  : 
; 498  :         _Pnode->_Right      = _Wherenode;

  00128	89 4e 08	 mov	 DWORD PTR [esi+8], ecx

; 688  :                 }
; 689  :             } else { // fixup red-red in right subtree

  0012b	e9 af 00 00 00	 jmp	 $LN52@Insert_nod
$LN10@Insert_nod:

; 690  :                 const auto _Parent_sibling = _Pnode->_Parent->_Parent->_Left;
; 691  :                 if (_Parent_sibling->_Color == _Red) { // parent's sibling has two red children, blacken both

  00130	80 78 0c 00	 cmp	 BYTE PTR [eax+12], 0
  00134	75 1b		 jne	 SHORT $LN15@Insert_nod
$LN53@Insert_nod:

; 668  :             }
; 669  :         }
; 670  : 
; 671  :         for (_Nodeptr _Pnode = _Newnode; _Pnode->_Parent->_Color == _Red;) {

  00136	c6 41 0c 01	 mov	 BYTE PTR [ecx+12], 1
  0013a	c6 40 0c 01	 mov	 BYTE PTR [eax+12], 1
  0013e	8b 07		 mov	 eax, DWORD PTR [edi]
  00140	8b 40 04	 mov	 eax, DWORD PTR [eax+4]
  00143	c6 40 0c 00	 mov	 BYTE PTR [eax+12], 0
  00147	8b 07		 mov	 eax, DWORD PTR [edi]
  00149	8b 50 04	 mov	 edx, DWORD PTR [eax+4]
  0014c	e9 91 00 00 00	 jmp	 $LN46@Insert_nod
$LN15@Insert_nod:

; 692  :                     _Pnode->_Parent->_Color          = _Black;
; 693  :                     _Parent_sibling->_Color          = _Black;
; 694  :                     _Pnode->_Parent->_Parent->_Color = _Red;
; 695  :                     _Pnode                           = _Pnode->_Parent->_Parent;
; 696  :                 } else { // parent's sibling has red and black children
; 697  :                     if (_Pnode == _Pnode->_Parent->_Left) { // rotate left child to right

  00151	8b 01		 mov	 eax, DWORD PTR [ecx]
  00153	3b d0		 cmp	 edx, eax
  00155	75 3e		 jne	 SHORT $LN39@Insert_nod

; 698  :                         _Pnode = _Pnode->_Parent;

  00157	8b d1		 mov	 edx, ecx

; 481  :         _Nodeptr _Pnode   = _Wherenode->_Left;

  00159	8b c8		 mov	 ecx, eax

; 482  :         _Wherenode->_Left = _Pnode->_Right;

  0015b	8b 41 08	 mov	 eax, DWORD PTR [ecx+8]
  0015e	89 02		 mov	 DWORD PTR [edx], eax

; 483  : 
; 484  :         if (!_Pnode->_Right->_Isnil) {

  00160	8b 41 08	 mov	 eax, DWORD PTR [ecx+8]
  00163	80 78 0d 00	 cmp	 BYTE PTR [eax+13], 0
  00167	75 03		 jne	 SHORT $LN34@Insert_nod

; 485  :             _Pnode->_Right->_Parent = _Wherenode;

  00169	89 50 04	 mov	 DWORD PTR [eax+4], edx
$LN34@Insert_nod:

; 486  :         }
; 487  : 
; 488  :         _Pnode->_Parent = _Wherenode->_Parent;

  0016c	8b 03		 mov	 eax, DWORD PTR [ebx]
  0016e	89 41 04	 mov	 DWORD PTR [ecx+4], eax

; 489  : 
; 490  :         if (_Wherenode == _Myhead->_Parent) {

  00171	8b 45 fc	 mov	 eax, DWORD PTR _this$1$[ebp]
  00174	8b 00		 mov	 eax, DWORD PTR [eax]
  00176	3b 50 04	 cmp	 edx, DWORD PTR [eax+4]
  00179	75 05		 jne	 SHORT $LN35@Insert_nod

; 491  :             _Myhead->_Parent = _Pnode;

  0017b	89 48 04	 mov	 DWORD PTR [eax+4], ecx
  0017e	eb 0e		 jmp	 SHORT $LN38@Insert_nod
$LN35@Insert_nod:

; 492  :         } else if (_Wherenode == _Wherenode->_Parent->_Right) {

  00180	8b 03		 mov	 eax, DWORD PTR [ebx]
  00182	3b 50 08	 cmp	 edx, DWORD PTR [eax+8]
  00185	75 05		 jne	 SHORT $LN37@Insert_nod

; 493  :             _Wherenode->_Parent->_Right = _Pnode;

  00187	89 48 08	 mov	 DWORD PTR [eax+8], ecx

; 494  :         } else {

  0018a	eb 02		 jmp	 SHORT $LN38@Insert_nod
$LN37@Insert_nod:

; 495  :             _Wherenode->_Parent->_Left = _Pnode;

  0018c	89 08		 mov	 DWORD PTR [eax], ecx
$LN38@Insert_nod:

; 496  :         }
; 497  : 
; 498  :         _Pnode->_Right      = _Wherenode;

  0018e	89 51 08	 mov	 DWORD PTR [ecx+8], edx

; 499  :         _Wherenode->_Parent = _Pnode;

  00191	8b fb		 mov	 edi, ebx
  00193	89 0b		 mov	 DWORD PTR [ebx], ecx
$LN39@Insert_nod:

; 699  :                         _Rrotate(_Pnode);
; 700  :                     }
; 701  : 
; 702  :                     _Pnode->_Parent->_Color          = _Black; // propagate red up

  00195	c6 41 0c 01	 mov	 BYTE PTR [ecx+12], 1

; 703  :                     _Pnode->_Parent->_Parent->_Color = _Red;

  00199	8b 07		 mov	 eax, DWORD PTR [edi]
  0019b	8b 40 04	 mov	 eax, DWORD PTR [eax+4]
  0019e	c6 40 0c 00	 mov	 BYTE PTR [eax+12], 0

; 704  :                     _Lrotate(_Pnode->_Parent->_Parent);

  001a2	8b 07		 mov	 eax, DWORD PTR [edi]
  001a4	8b 48 04	 mov	 ecx, DWORD PTR [eax+4]

; 459  :         _Nodeptr _Pnode    = _Wherenode->_Right;

  001a7	8b 71 08	 mov	 esi, DWORD PTR [ecx+8]

; 460  :         _Wherenode->_Right = _Pnode->_Left;

  001aa	8b 06		 mov	 eax, DWORD PTR [esi]
  001ac	89 41 08	 mov	 DWORD PTR [ecx+8], eax

; 461  : 
; 462  :         if (!_Pnode->_Left->_Isnil) {

  001af	8b 06		 mov	 eax, DWORD PTR [esi]
  001b1	80 78 0d 00	 cmp	 BYTE PTR [eax+13], 0
  001b5	75 03		 jne	 SHORT $LN41@Insert_nod

; 463  :             _Pnode->_Left->_Parent = _Wherenode;

  001b7	89 48 04	 mov	 DWORD PTR [eax+4], ecx
$LN41@Insert_nod:

; 464  :         }
; 465  : 
; 466  :         _Pnode->_Parent = _Wherenode->_Parent;

  001ba	8b 41 04	 mov	 eax, DWORD PTR [ecx+4]
  001bd	89 46 04	 mov	 DWORD PTR [esi+4], eax

; 467  : 
; 468  :         if (_Wherenode == _Myhead->_Parent) {

  001c0	8b 45 fc	 mov	 eax, DWORD PTR _this$1$[ebp]
  001c3	8b 00		 mov	 eax, DWORD PTR [eax]
  001c5	3b 48 04	 cmp	 ecx, DWORD PTR [eax+4]
  001c8	75 05		 jne	 SHORT $LN42@Insert_nod

; 469  :             _Myhead->_Parent = _Pnode;

  001ca	89 70 04	 mov	 DWORD PTR [eax+4], esi
  001cd	eb 0e		 jmp	 SHORT $LN45@Insert_nod
$LN42@Insert_nod:

; 470  :         } else if (_Wherenode == _Wherenode->_Parent->_Left) {

  001cf	8b 41 04	 mov	 eax, DWORD PTR [ecx+4]
  001d2	3b 08		 cmp	 ecx, DWORD PTR [eax]
  001d4	75 04		 jne	 SHORT $LN44@Insert_nod

; 471  :             _Wherenode->_Parent->_Left = _Pnode;

  001d6	89 30		 mov	 DWORD PTR [eax], esi

; 472  :         } else {

  001d8	eb 03		 jmp	 SHORT $LN45@Insert_nod
$LN44@Insert_nod:

; 473  :             _Wherenode->_Parent->_Right = _Pnode;

  001da	89 70 08	 mov	 DWORD PTR [eax+8], esi
$LN45@Insert_nod:

; 474  :         }
; 475  : 
; 476  :         _Pnode->_Left       = _Wherenode;

  001dd	89 0e		 mov	 DWORD PTR [esi], ecx
$LN52@Insert_nod:

; 668  :             }
; 669  :         }
; 670  : 
; 671  :         for (_Nodeptr _Pnode = _Newnode; _Pnode->_Parent->_Color == _Red;) {

  001df	89 71 04	 mov	 DWORD PTR [ecx+4], esi
$LN46@Insert_nod:
  001e2	8b 42 04	 mov	 eax, DWORD PTR [edx+4]
  001e5	80 78 0c 00	 cmp	 BYTE PTR [eax+12], 0
  001e9	0f 84 71 fe ff
	ff		 je	 $LL2@Insert_nod
  001ef	8b 4d f8	 mov	 ecx, DWORD PTR __Head$1$[ebp]
  001f2	5f		 pop	 edi
  001f3	5e		 pop	 esi
  001f4	5b		 pop	 ebx
$LN3@Insert_nod:

; 705  :                 }
; 706  :             }
; 707  :         }
; 708  : 
; 709  :         _Head->_Parent->_Color = _Black; // root is always black

  001f5	8b 41 04	 mov	 eax, DWORD PTR [ecx+4]
  001f8	c6 40 0c 01	 mov	 BYTE PTR [eax+12], 1

; 710  :         return _Newnode;

  001fc	8b 45 10	 mov	 eax, DWORD PTR __Newnode$[ebp]

; 711  :     }

  001ff	8b e5		 mov	 esp, ebp
  00201	5d		 pop	 ebp
  00202	c2 0c 00	 ret	 12			; 0000000cH
?_Insert_node@?$_Tree_val@U?$_Tree_simple_types@V?$basic_string@DU?$char_traits@D@std@@V?$allocator@D@2@@std@@@std@@@std@@QAEPAU?$_Tree_node@V?$basic_string@DU?$char_traits@D@std@@V?$allocator@D@2@@std@@PAX@2@U?$_Tree_id@PAU?$_Tree_node@V?$basic_string@DU?$char_traits@D@std@@V?$allocator@D@2@@std@@PAX@std@@@2@QAU32@@Z ENDP ; std::_Tree_val<std::_Tree_simple_types<std::basic_string<char,std::char_traits<char>,std::allocator<char> > > >::_Insert_node
_TEXT	ENDS
; Function compile flags: /Ogtp
; File D:\Metin2 Server Files\mainline\SRC_2014\Metin2Client\UserInterface\PythonBackground.cpp
; File C:\Program Files (x86)\Microsoft Visual Studio\2019\Community\VC\Tools\MSVC\14.28.29333\include\xtree
; File D:\Metin2 Server Files\mainline\SRC_2014\Metin2Client\UserInterface\PythonBackground.cpp
; File C:\Program Files (x86)\Microsoft Visual Studio\2019\Community\VC\Tools\MSVC\14.28.29333\include\xtree
; File D:\Metin2 Server Files\mainline\SRC_2014\Metin2Client\UserInterface\PythonBackground.cpp
; File C:\Program Files (x86)\Microsoft Visual Studio\2019\Community\VC\Tools\MSVC\14.28.29333\include\xtree
; File C:\Program Files (x86)\Microsoft Visual Studio\2019\Community\VC\Tools\MSVC\14.28.29333\include\xstddef
; File C:\Program Files (x86)\Microsoft Visual Studio\2019\Community\VC\Tools\MSVC\14.28.29333\include\xtree
; File D:\Metin2 Server Files\mainline\SRC_2014\Metin2Client\UserInterface\PythonBackground.cpp
; File C:\Program Files (x86)\Microsoft Visual Studio\2019\Community\VC\Tools\MSVC\14.28.29333\include\xtree
; File D:\Metin2 Server Files\mainline\SRC_2014\Metin2Client\UserInterface\PythonBackground.cpp
; File C:\Program Files (x86)\Microsoft Visual Studio\2019\Community\VC\Tools\MSVC\14.28.29333\include\xtree
; File D:\Metin2 Server Files\mainline\SRC_2014\Metin2Client\UserInterface\PythonBackground.cpp
; File C:\Program Files (x86)\Microsoft Visual Studio\2019\Community\VC\Tools\MSVC\14.28.29333\include\xtree
; File D:\Metin2 Server Files\mainline\SRC_2014\Metin2Client\UserInterface\PythonBackground.cpp
; File C:\Program Files (x86)\Microsoft Visual Studio\2019\Community\VC\Tools\MSVC\14.28.29333\include\xtree
; File C:\Program Files (x86)\Microsoft Visual Studio\2019\Community\VC\Tools\MSVC\14.28.29333\include\xstddef
; File C:\Program Files (x86)\Microsoft Visual Studio\2019\Community\VC\Tools\MSVC\14.28.29333\include\xtree
; File D:\Metin2 Server Files\mainline\SRC_2014\Metin2Client\UserInterface\PythonBackground.cpp
; File C:\Program Files (x86)\Microsoft Visual Studio\2019\Community\VC\Tools\MSVC\14.28.29333\include\xtree
; File D:\Metin2 Server Files\mainline\SRC_2014\Metin2Client\UserInterface\PythonBackground.cpp
; File C:\Program Files (x86)\Microsoft Visual Studio\2019\Community\VC\Tools\MSVC\14.28.29333\include\xtree
; File D:\Metin2 Server Files\mainline\SRC_2014\Metin2Client\UserInterface\PythonBackground.cpp
;	COMDAT ?__IsSame@CPythonBackground@@IAE_NAAV?$set@HU?$less@H@std@@V?$allocator@H@2@@std@@0@Z
_TEXT	SEGMENT
__Loc$1 = -16						; size = 12
__Loc$2 = -16						; size = 12
tv1014 = -4						; size = 4
_rleft$ = 8						; size = 4
_rright$ = 12						; size = 4
?__IsSame@CPythonBackground@@IAE_NAAV?$set@HU?$less@H@std@@V?$allocator@H@2@@std@@0@Z PROC ; CPythonBackground::__IsSame, COMDAT
; _this$ = ecx

; 449  : {

  00000	55		 push	 ebp
  00001	8b ec		 mov	 ebp, esp
; File C:\Program Files (x86)\Microsoft Visual Studio\2019\Community\VC\Tools\MSVC\14.28.29333\include\xtree

; 1240 :         return iterator(_Scary->_Myhead->_Left, _Scary);

  00003	8b 45 08	 mov	 eax, DWORD PTR _rleft$[ebp]
; File D:\Metin2 Server Files\mainline\SRC_2014\Metin2Client\UserInterface\PythonBackground.cpp

; 449  : {

  00006	83 ec 10	 sub	 esp, 16			; 00000010H
  00009	53		 push	 ebx
  0000a	56		 push	 esi
  0000b	57		 push	 edi
; File C:\Program Files (x86)\Microsoft Visual Studio\2019\Community\VC\Tools\MSVC\14.28.29333\include\xtree

; 1240 :         return iterator(_Scary->_Myhead->_Left, _Scary);

  0000c	8b 38		 mov	 edi, DWORD PTR [eax]

; 39   :     _Tree_unchecked_const_iterator(_Nodeptr _Pnode, const _Mytree* _Plist) noexcept : _Ptr(_Pnode) {

  0000e	8b 37		 mov	 esi, DWORD PTR [edi]
  00010	3b f7		 cmp	 esi, edi
; File D:\Metin2 Server Files\mainline\SRC_2014\Metin2Client\UserInterface\PythonBackground.cpp

; 453  : 	for (itor_l=rleft.begin(); itor_l!=rleft.end(); ++itor_l)

  00012	0f 84 7e 00 00
	00		 je	 $LN3@IsSame
; File C:\Program Files (x86)\Microsoft Visual Studio\2019\Community\VC\Tools\MSVC\14.28.29333\include\xtree

; 1250 :         return iterator(_Scary->_Myhead, _Scary);

  00018	8b 45 0c	 mov	 eax, DWORD PTR _rright$[ebp]
  0001b	8b 08		 mov	 ecx, DWORD PTR [eax]
  0001d	89 4d fc	 mov	 DWORD PTR tv1014[ebp], ecx
$LL31@IsSame:

; 185  :         return this->_Ptr->_Myval;

  00020	8d 5e 10	 lea	 ebx, DWORD PTR [esi+16]

; 1458 :         const _Tree_find_result<_Nodeptr> _Loc = _Find_lower_bound(_Keyval);

  00023	53		 push	 ebx
  00024	8d 4d f0	 lea	 ecx, DWORD PTR __Loc$2[ebp]
  00027	51		 push	 ecx
  00028	8b c8		 mov	 ecx, eax
  0002a	e8 00 00 00 00	 call	 ??$_Find_lower_bound@H@?$_Tree@V?$_Tset_traits@HU?$less@H@std@@V?$allocator@H@2@$0A@@std@@@std@@IBE?AU?$_Tree_find_result@PAU?$_Tree_node@HPAX@std@@@1@ABH@Z ; std::_Tree<std::_Tset_traits<int,std::less<int>,std::allocator<int>,0> >::_Find_lower_bound<int>

; 1695 :         return !_Bound->_Isnil && !_DEBUG_LT_PRED(_Getcomp(), _Keyval, _Traits::_Kfn(_Bound->_Myval));

  0002f	8b 4d f8	 mov	 ecx, DWORD PTR __Loc$2[ebp+8]
  00032	80 79 0d 00	 cmp	 BYTE PTR [ecx+13], 0
  00036	0f 85 e2 00 00
	00		 jne	 $LN132@IsSame
; File C:\Program Files (x86)\Microsoft Visual Studio\2019\Community\VC\Tools\MSVC\14.28.29333\include\xstddef

; 127  :         return _Left < _Right;

  0003c	8b 03		 mov	 eax, DWORD PTR [ebx]
  0003e	3b 41 10	 cmp	 eax, DWORD PTR [ecx+16]
; File C:\Program Files (x86)\Microsoft Visual Studio\2019\Community\VC\Tools\MSVC\14.28.29333\include\xtree

; 1695 :         return !_Bound->_Isnil && !_DEBUG_LT_PRED(_Getcomp(), _Keyval, _Traits::_Kfn(_Bound->_Myval));

  00041	0f 8c d7 00 00
	00		 jl	 $LN132@IsSame

; 39   :     _Tree_unchecked_const_iterator(_Nodeptr _Pnode, const _Mytree* _Plist) noexcept : _Ptr(_Pnode) {

  00047	39 4d fc	 cmp	 DWORD PTR tv1014[ebp], ecx
; File D:\Metin2 Server Files\mainline\SRC_2014\Metin2Client\UserInterface\PythonBackground.cpp

; 455  : 		if (rright.end() == rright.find(*itor_l))

  0004a	0f 84 ce 00 00
	00		 je	 $LN132@IsSame
; File C:\Program Files (x86)\Microsoft Visual Studio\2019\Community\VC\Tools\MSVC\14.28.29333\include\xtree

; 52   :         if (_Ptr->_Right->_Isnil) { // climb looking for right subtree

  00050	8b 46 08	 mov	 eax, DWORD PTR [esi+8]
  00053	80 78 0d 00	 cmp	 BYTE PTR [eax+13], 0
  00057	74 1d		 je	 SHORT $LN30@IsSame

; 53   :             _Nodeptr _Pnode;
; 54   :             while (!(_Pnode = _Ptr->_Parent)->_Isnil && _Ptr == _Pnode->_Right) {

  00059	8b 46 04	 mov	 eax, DWORD PTR [esi+4]
  0005c	80 78 0d 00	 cmp	 BYTE PTR [eax+13], 0
  00060	75 10		 jne	 SHORT $LN154@IsSame
$LL28@IsSame:
  00062	3b 70 08	 cmp	 esi, DWORD PTR [eax+8]
  00065	75 0b		 jne	 SHORT $LN154@IsSame

; 55   :                 _Ptr = _Pnode; // ==> parent while right subtree

  00067	8b f0		 mov	 esi, eax
  00069	8b 40 04	 mov	 eax, DWORD PTR [eax+4]
  0006c	80 78 0d 00	 cmp	 BYTE PTR [eax+13], 0
  00070	74 f0		 je	 SHORT $LL28@IsSame
$LN154@IsSame:

; 56   :             }
; 57   : 
; 58   :             _Ptr = _Pnode; // ==> parent (head if end())

  00072	8b f0		 mov	 esi, eax

; 59   :         } else {

  00074	eb 16		 jmp	 SHORT $LN35@IsSame
$LN30@IsSame:

; 60   :             _Ptr = _Mytree::_Min(_Ptr->_Right); // ==> smallest of right subtree

  00076	8b f0		 mov	 esi, eax

; 451  :         while (!_Pnode->_Left->_Isnil) {

  00078	8b 0e		 mov	 ecx, DWORD PTR [esi]
  0007a	80 79 0d 00	 cmp	 BYTE PTR [ecx+13], 0
  0007e	75 0c		 jne	 SHORT $LN35@IsSame
$LL34@IsSame:
  00080	8b 01		 mov	 eax, DWORD PTR [ecx]

; 452  :             _Pnode = _Pnode->_Left;

  00082	8b f1		 mov	 esi, ecx
  00084	8b c8		 mov	 ecx, eax
  00086	80 78 0d 00	 cmp	 BYTE PTR [eax+13], 0
  0008a	74 f4		 je	 SHORT $LL34@IsSame
$LN35@IsSame:
; File D:\Metin2 Server Files\mainline\SRC_2014\Metin2Client\UserInterface\PythonBackground.cpp

; 453  : 	for (itor_l=rleft.begin(); itor_l!=rleft.end(); ++itor_l)

  0008c	8b 45 0c	 mov	 eax, DWORD PTR _rright$[ebp]
; File C:\Program Files (x86)\Microsoft Visual Studio\2019\Community\VC\Tools\MSVC\14.28.29333\include\xtree

; 232  :         return this->_Ptr == _Right._Ptr;

  0008f	3b f7		 cmp	 esi, edi
; File D:\Metin2 Server Files\mainline\SRC_2014\Metin2Client\UserInterface\PythonBackground.cpp

; 453  : 	for (itor_l=rleft.begin(); itor_l!=rleft.end(); ++itor_l)

  00091	75 8d		 jne	 SHORT $LL31@IsSame
  00093	8b 45 08	 mov	 eax, DWORD PTR _rleft$[ebp]
$LN3@IsSame:
; File C:\Program Files (x86)\Microsoft Visual Studio\2019\Community\VC\Tools\MSVC\14.28.29333\include\xtree

; 1240 :         return iterator(_Scary->_Myhead->_Left, _Scary);

  00096	8b 7d 0c	 mov	 edi, DWORD PTR _rright$[ebp]
  00099	8b 3f		 mov	 edi, DWORD PTR [edi]

; 39   :     _Tree_unchecked_const_iterator(_Nodeptr _Pnode, const _Mytree* _Plist) noexcept : _Ptr(_Pnode) {

  0009b	8b 37		 mov	 esi, DWORD PTR [edi]
  0009d	3b f7		 cmp	 esi, edi
; File D:\Metin2 Server Files\mainline\SRC_2014\Metin2Client\UserInterface\PythonBackground.cpp

; 459  : 	for (itor_r=rright.begin(); itor_r!=rright.end(); ++itor_r)

  0009f	74 72		 je	 SHORT $LN6@IsSame
$LL84@IsSame:
; File C:\Program Files (x86)\Microsoft Visual Studio\2019\Community\VC\Tools\MSVC\14.28.29333\include\xtree

; 185  :         return this->_Ptr->_Myval;

  000a1	8d 5e 10	 lea	 ebx, DWORD PTR [esi+16]

; 1458 :         const _Tree_find_result<_Nodeptr> _Loc = _Find_lower_bound(_Keyval);

  000a4	53		 push	 ebx
  000a5	8d 4d f0	 lea	 ecx, DWORD PTR __Loc$1[ebp]
  000a8	51		 push	 ecx
  000a9	8b c8		 mov	 ecx, eax
  000ab	e8 00 00 00 00	 call	 ??$_Find_lower_bound@H@?$_Tree@V?$_Tset_traits@HU?$less@H@std@@V?$allocator@H@2@$0A@@std@@@std@@IBE?AU?$_Tree_find_result@PAU?$_Tree_node@HPAX@std@@@1@ABH@Z ; std::_Tree<std::_Tset_traits<int,std::less<int>,std::allocator<int>,0> >::_Find_lower_bound<int>

; 1695 :         return !_Bound->_Isnil && !_DEBUG_LT_PRED(_Getcomp(), _Keyval, _Traits::_Kfn(_Bound->_Myval));

  000b0	8b 4d f8	 mov	 ecx, DWORD PTR __Loc$1[ebp+8]
  000b3	80 79 0d 00	 cmp	 BYTE PTR [ecx+13], 0
  000b7	75 65		 jne	 SHORT $LN132@IsSame
; File C:\Program Files (x86)\Microsoft Visual Studio\2019\Community\VC\Tools\MSVC\14.28.29333\include\xstddef

; 127  :         return _Left < _Right;

  000b9	8b 03		 mov	 eax, DWORD PTR [ebx]
  000bb	3b 41 10	 cmp	 eax, DWORD PTR [ecx+16]
; File C:\Program Files (x86)\Microsoft Visual Studio\2019\Community\VC\Tools\MSVC\14.28.29333\include\xtree

; 1695 :         return !_Bound->_Isnil && !_DEBUG_LT_PRED(_Getcomp(), _Keyval, _Traits::_Kfn(_Bound->_Myval));

  000be	7c 5e		 jl	 SHORT $LN132@IsSame

; 39   :     _Tree_unchecked_const_iterator(_Nodeptr _Pnode, const _Mytree* _Plist) noexcept : _Ptr(_Pnode) {

  000c0	8b 45 08	 mov	 eax, DWORD PTR _rleft$[ebp]
  000c3	39 08		 cmp	 DWORD PTR [eax], ecx
; File D:\Metin2 Server Files\mainline\SRC_2014\Metin2Client\UserInterface\PythonBackground.cpp

; 461  : 		if (rleft.end() == rleft.find(*itor_r))

  000c5	74 57		 je	 SHORT $LN132@IsSame
; File C:\Program Files (x86)\Microsoft Visual Studio\2019\Community\VC\Tools\MSVC\14.28.29333\include\xtree

; 52   :         if (_Ptr->_Right->_Isnil) { // climb looking for right subtree

  000c7	8b 46 08	 mov	 eax, DWORD PTR [esi+8]
  000ca	80 78 0d 00	 cmp	 BYTE PTR [eax+13], 0
  000ce	74 24		 je	 SHORT $LN83@IsSame

; 53   :             _Nodeptr _Pnode;
; 54   :             while (!(_Pnode = _Ptr->_Parent)->_Isnil && _Ptr == _Pnode->_Right) {

  000d0	8b 46 04	 mov	 eax, DWORD PTR [esi+4]
  000d3	80 78 0d 00	 cmp	 BYTE PTR [eax+13], 0
  000d7	75 17		 jne	 SHORT $LN155@IsSame
  000d9	0f 1f 80 00 00
	00 00		 npad	 7
$LL81@IsSame:
  000e0	3b 70 08	 cmp	 esi, DWORD PTR [eax+8]
  000e3	75 0b		 jne	 SHORT $LN155@IsSame

; 55   :                 _Ptr = _Pnode; // ==> parent while right subtree

  000e5	8b f0		 mov	 esi, eax
  000e7	8b 40 04	 mov	 eax, DWORD PTR [eax+4]
  000ea	80 78 0d 00	 cmp	 BYTE PTR [eax+13], 0
  000ee	74 f0		 je	 SHORT $LL81@IsSame
$LN155@IsSame:

; 56   :             }
; 57   : 
; 58   :             _Ptr = _Pnode; // ==> parent (head if end())

  000f0	8b f0		 mov	 esi, eax

; 59   :         } else {

  000f2	eb 18		 jmp	 SHORT $LN88@IsSame
$LN83@IsSame:

; 60   :             _Ptr = _Mytree::_Min(_Ptr->_Right); // ==> smallest of right subtree

  000f4	8b f0		 mov	 esi, eax

; 451  :         while (!_Pnode->_Left->_Isnil) {

  000f6	8b 0e		 mov	 ecx, DWORD PTR [esi]
  000f8	80 79 0d 00	 cmp	 BYTE PTR [ecx+13], 0
  000fc	75 0e		 jne	 SHORT $LN88@IsSame
  000fe	66 90		 npad	 2
$LL87@IsSame:
  00100	8b 01		 mov	 eax, DWORD PTR [ecx]

; 452  :             _Pnode = _Pnode->_Left;

  00102	8b f1		 mov	 esi, ecx
  00104	8b c8		 mov	 ecx, eax
  00106	80 78 0d 00	 cmp	 BYTE PTR [eax+13], 0
  0010a	74 f4		 je	 SHORT $LL87@IsSame
$LN88@IsSame:
; File D:\Metin2 Server Files\mainline\SRC_2014\Metin2Client\UserInterface\PythonBackground.cpp

; 459  : 	for (itor_r=rright.begin(); itor_r!=rright.end(); ++itor_r)

  0010c	8b 45 08	 mov	 eax, DWORD PTR _rleft$[ebp]
; File C:\Program Files (x86)\Microsoft Visual Studio\2019\Community\VC\Tools\MSVC\14.28.29333\include\xtree

; 232  :         return this->_Ptr == _Right._Ptr;

  0010f	3b f7		 cmp	 esi, edi
; File D:\Metin2 Server Files\mainline\SRC_2014\Metin2Client\UserInterface\PythonBackground.cpp

; 459  : 	for (itor_r=rright.begin(); itor_r!=rright.end(); ++itor_r)

  00111	75 8e		 jne	 SHORT $LL84@IsSame
$LN6@IsSame:
  00113	5f		 pop	 edi

; 462  : 			return false;
; 463  : 	}
; 464  : 
; 465  : 	return true;
; 466  : }

  00114	5e		 pop	 esi
  00115	b0 01		 mov	 al, 1
  00117	5b		 pop	 ebx
  00118	8b e5		 mov	 esp, ebp
  0011a	5d		 pop	 ebp
  0011b	c2 08 00	 ret	 8
$LN132@IsSame:
  0011e	5f		 pop	 edi
  0011f	5e		 pop	 esi
  00120	32 c0		 xor	 al, al
  00122	5b		 pop	 ebx
  00123	8b e5		 mov	 esp, ebp
  00125	5d		 pop	 ebp
  00126	c2 08 00	 ret	 8
?__IsSame@CPythonBackground@@IAE_NAAV?$set@HU?$less@H@std@@V?$allocator@H@2@@std@@0@Z ENDP ; CPythonBackground::__IsSame
_TEXT	ENDS
; Function compile flags: /Ogtp
; File D:\Metin2 Server Files\mainline\SRC_2014\Metin2Client\UserInterface\PythonBackground.cpp
;	COMDAT ?__CreateProperty@CPythonBackground@@IAEXXZ
_TEXT	SEGMENT
_PropertyLoader$2 = -348				; size = 332
__$ArrayPad$ = -16					; size = 4
__$EHRec$ = -12						; size = 12
?__CreateProperty@CPythonBackground@@IAEXXZ PROC	; CPythonBackground::__CreateProperty, COMDAT
; _this$ = ecx

; 243  : {

  00000	55		 push	 ebp
  00001	8b ec		 mov	 ebp, esp
  00003	6a ff		 push	 -1
  00005	68 00 00 00 00	 push	 __ehhandler$?__CreateProperty@CPythonBackground@@IAEXXZ
  0000a	64 a1 00 00 00
	00		 mov	 eax, DWORD PTR fs:0
  00010	50		 push	 eax
  00011	81 ec 50 01 00
	00		 sub	 esp, 336		; 00000150H
  00017	a1 00 00 00 00	 mov	 eax, DWORD PTR ___security_cookie
  0001c	33 c5		 xor	 eax, ebp
  0001e	89 45 f0	 mov	 DWORD PTR __$ArrayPad$[ebp], eax
  00021	56		 push	 esi
  00022	50		 push	 eax
  00023	8d 45 f4	 lea	 eax, DWORD PTR __$EHRec$[ebp]
  00026	64 a3 00 00 00
	00		 mov	 DWORD PTR fs:0, eax
  0002c	8b f1		 mov	 esi, ecx

; 244  : 	if (CEterPackManager::SEARCH_FILE_FIRST == CEterPackManager::Instance().GetSearchMode() &&

  0002e	8b 0d 00 00 00
	00		 mov	 ecx, DWORD PTR ?ms_singleton@?$CSingleton@VCEterPackManager@@@@0PAVCEterPackManager@@A ; CSingleton<CEterPackManager>::ms_singleton
  00034	e8 00 00 00 00	 call	 ?GetSearchMode@CEterPackManager@@QAEHXZ ; CEterPackManager::GetSearchMode
  00039	85 c0		 test	 eax, eax
  0003b	75 5f		 jne	 SHORT $LN2@CreateProp
  0003d	50		 push	 eax
  0003e	68 00 00 00 00	 push	 OFFSET ??_C@_08EMBNBNLN@property@
  00043	e8 00 00 00 00	 call	 __access
  00048	83 c4 08	 add	 esp, 8
  0004b	85 c0		 test	 eax, eax
  0004d	75 4d		 jne	 SHORT $LN2@CreateProp

; 245  : 		_access("property", 0) == 0)
; 246  : 	{
; 247  : 		m_PropertyManager.Initialize(NULL);

  0004f	83 c6 08	 add	 esi, 8
  00052	50		 push	 eax
  00053	8b ce		 mov	 ecx, esi
  00055	e8 00 00 00 00	 call	 ?Initialize@CPropertyManager@@QAE_NPBD@Z ; CPropertyManager::Initialize

; 248  : 
; 249  : 		CPropertyLoader PropertyLoader;

  0005a	8d 8d a4 fe ff
	ff		 lea	 ecx, DWORD PTR _PropertyLoader$2[ebp]
  00060	e8 00 00 00 00	 call	 ??0CPropertyLoader@@QAE@XZ ; CPropertyLoader::CPropertyLoader

; 250  : 		PropertyLoader.SetPropertyManager(&m_PropertyManager);

  00065	56		 push	 esi
  00066	8d 8d a4 fe ff
	ff		 lea	 ecx, DWORD PTR _PropertyLoader$2[ebp]
  0006c	c7 45 fc 00 00
	00 00		 mov	 DWORD PTR __$EHRec$[ebp+8], 0
  00073	e8 00 00 00 00	 call	 ?SetPropertyManager@CPropertyLoader@@QAEXPAVCPropertyManager@@@Z ; CPropertyLoader::SetPropertyManager

; 251  : 		PropertyLoader.Create("*.*", "Property");

  00078	6a 00		 push	 0
  0007a	68 00 00 00 00	 push	 OFFSET ??_C@_08MOOMJPBO@Property@
  0007f	68 00 00 00 00	 push	 OFFSET ??_C@_03EMIMMIHL@?$CK?4?$CK@
  00084	8d 8d a4 fe ff
	ff		 lea	 ecx, DWORD PTR _PropertyLoader$2[ebp]
  0008a	e8 00 00 00 00	 call	 ?Create@CDir@@QAE_NPBD0H@Z ; CDir::Create

; 252  : 	}

  0008f	8d 8d a4 fe ff
	ff		 lea	 ecx, DWORD PTR _PropertyLoader$2[ebp]
  00095	e8 00 00 00 00	 call	 ??1CPropertyLoader@@UAE@XZ ; CPropertyLoader::~CPropertyLoader
  0009a	eb 0d		 jmp	 SHORT $LN3@CreateProp
$LN2@CreateProp:

; 253  : 	else
; 254  : 	{
; 255  : 		m_PropertyManager.Initialize("pack/property");

  0009c	68 00 00 00 00	 push	 OFFSET ??_C@_0O@NAMKDHJD@pack?1property@
  000a1	8d 4e 08	 lea	 ecx, DWORD PTR [esi+8]
  000a4	e8 00 00 00 00	 call	 ?Initialize@CPropertyManager@@QAE_NPBD@Z ; CPropertyManager::Initialize
$LN3@CreateProp:

; 256  : 	}
; 257  : }

  000a9	8b 4d f4	 mov	 ecx, DWORD PTR __$EHRec$[ebp]
  000ac	64 89 0d 00 00
	00 00		 mov	 DWORD PTR fs:0, ecx
  000b3	59		 pop	 ecx
  000b4	5e		 pop	 esi
  000b5	8b 4d f0	 mov	 ecx, DWORD PTR __$ArrayPad$[ebp]
  000b8	33 cd		 xor	 ecx, ebp
  000ba	e8 00 00 00 00	 call	 @__security_check_cookie@4
  000bf	8b e5		 mov	 esp, ebp
  000c1	5d		 pop	 ebp
  000c2	c3		 ret	 0
_TEXT	ENDS
;	COMDAT text$x
text$x	SEGMENT
__unwindfunclet$?__CreateProperty@CPythonBackground@@IAEXXZ$0:
  00000	8d 8d a4 fe ff
	ff		 lea	 ecx, DWORD PTR _PropertyLoader$2[ebp]
  00006	e9 00 00 00 00	 jmp	 ??1CPropertyLoader@@UAE@XZ ; CPropertyLoader::~CPropertyLoader
  0000b	cc		 int	 3
  0000c	cc		 int	 3
  0000d	cc		 int	 3
  0000e	cc		 int	 3
  0000f	cc		 int	 3
__ehhandler$?__CreateProperty@CPythonBackground@@IAEXXZ:
  00010	90		 npad	 1
  00011	90		 npad	 1
  00012	8b 54 24 08	 mov	 edx, DWORD PTR [esp+8]
  00016	8d 42 0c	 lea	 eax, DWORD PTR [edx+12]
  00019	8b 8a a8 fe ff
	ff		 mov	 ecx, DWORD PTR [edx-344]
  0001f	33 c8		 xor	 ecx, eax
  00021	e8 00 00 00 00	 call	 @__security_check_cookie@4
  00026	8b 4a fc	 mov	 ecx, DWORD PTR [edx-4]
  00029	33 c8		 xor	 ecx, eax
  0002b	e8 00 00 00 00	 call	 @__security_check_cookie@4
  00030	b8 00 00 00 00	 mov	 eax, OFFSET __ehfuncinfo$?__CreateProperty@CPythonBackground@@IAEXXZ
  00035	e9 00 00 00 00	 jmp	 ___CxxFrameHandler3
text$x	ENDS
?__CreateProperty@CPythonBackground@@IAEXXZ ENDP	; CPythonBackground::__CreateProperty
; Function compile flags: /Ogtp
; File D:\Metin2 Server Files\mainline\SRC_2014\Metin2Client\UserInterface\PythonBackground.cpp
; File C:\Program Files (x86)\Microsoft Visual Studio\2019\Community\VC\Tools\MSVC\14.28.29333\include\xstring
; File D:\Metin2 Server Files\mainline\SRC_2014\Metin2Client\UserInterface\PythonBackground.cpp
;	COMDAT ?GetWarpMapName@CPythonBackground@@QAEPBDXZ
_TEXT	SEGMENT
?GetWarpMapName@CPythonBackground@@QAEPBDXZ PROC	; CPythonBackground::GetWarpMapName, COMDAT
; _this$ = ecx
; File C:\Program Files (x86)\Microsoft Visual Studio\2019\Community\VC\Tools\MSVC\14.28.29333\include\xstring

; 2227 :         return _BUF_SIZE <= _Myres;

  00000	83 b9 f4 14 00
	00 10		 cmp	 DWORD PTR [ecx+5364], 16 ; 00000010H

; 3752 :         return _Mypair._Myval2._Myptr();

  00007	8d 81 e0 14 00
	00		 lea	 eax, DWORD PTR [ecx+5344]

; 2219 :         if (_Large_string_engaged()) {

  0000d	72 02		 jb	 SHORT $LN6@GetWarpMap
; File D:\Metin2 Server Files\mainline\SRC_2014\Metin2Client\UserInterface\PythonBackground.cpp

; 798  : 	return m_strMapName.c_str();

  0000f	8b 00		 mov	 eax, DWORD PTR [eax]
$LN6@GetWarpMap:

; 799  : }

  00011	c3		 ret	 0
?GetWarpMapName@CPythonBackground@@QAEPBDXZ ENDP	; CPythonBackground::GetWarpMapName
_TEXT	ENDS
; Function compile flags: /Ogtp
; File D:\Metin2 Server Files\mainline\SRC_2014\Metin2Client\UserInterface\PythonBackground.cpp
; File C:\Program Files (x86)\Microsoft Visual Studio\2019\Community\VC\Tools\MSVC\14.28.29333\include\vector
; File D:\Metin2 Server Files\mainline\SRC_2014\Metin2Client\UserInterface\PythonBackground.cpp
; File C:\Program Files (x86)\Microsoft Visual Studio\2019\Community\VC\Tools\MSVC\14.28.29333\include\vector
; File C:\Program Files (x86)\Microsoft Visual Studio\2019\Community\VC\Tools\MSVC\14.28.29333\include\xutility
; File D:\Metin2 Server Files\mainline\SRC_2014\Metin2Client\UserInterface\PythonBackground.h
; File C:\Program Files (x86)\Microsoft Visual Studio\2019\Community\VC\Tools\MSVC\14.28.29333\include\xutility
; File C:\Program Files (x86)\Microsoft Visual Studio\2019\Community\VC\Tools\MSVC\14.28.29333\include\vector
; File D:\Metin2 Server Files\mainline\SRC_2014\Metin2Client\UserInterface\PythonBackground.cpp
; File C:\Program Files (x86)\Microsoft Visual Studio\2019\Community\VC\Tools\MSVC\14.28.29333\include\vector
; File D:\Metin2 Server Files\mainline\SRC_2014\Metin2Client\UserInterface\PythonBackground.cpp
;	COMDAT ?GlobalPositionToMapInfo@CPythonBackground@@QAEPAUTMapInfo@CMapManager@@KK@Z
_TEXT	SEGMENT
_dwGlobalX$ = 8						; size = 4
_dwGlobalY$ = 12					; size = 4
?GlobalPositionToMapInfo@CPythonBackground@@QAEPAUTMapInfo@CMapManager@@KK@Z PROC ; CPythonBackground::GlobalPositionToMapInfo, COMDAT
; _this$ = ecx

; 723  : {

  00000	55		 push	 ebp
  00001	8b ec		 mov	 ebp, esp
; File C:\Program Files (x86)\Microsoft Visual Studio\2019\Community\VC\Tools\MSVC\14.28.29333\include\vector

; 42   :     _Vector_const_iterator(_Tptr _Parg, const _Container_base* _Pvector) noexcept : _Ptr(_Parg) {

  00003	8b 81 b4 14 00
	00		 mov	 eax, DWORD PTR [ecx+5300]
; File D:\Metin2 Server Files\mainline\SRC_2014\Metin2Client\UserInterface\PythonBackground.cpp

; 723  : {

  00009	56		 push	 esi
; File C:\Program Files (x86)\Microsoft Visual Studio\2019\Community\VC\Tools\MSVC\14.28.29333\include\vector

; 42   :     _Vector_const_iterator(_Tptr _Parg, const _Container_base* _Pvector) noexcept : _Ptr(_Parg) {

  0000a	8b b1 b8 14 00
	00		 mov	 esi, DWORD PTR [ecx+5304]
; File C:\Program Files (x86)\Microsoft Visual Studio\2019\Community\VC\Tools\MSVC\14.28.29333\include\xutility

; 5791 :     for (; _UFirst != _ULast; ++_UFirst) {

  00010	3b c6		 cmp	 eax, esi
  00012	74 27		 je	 SHORT $LN47@GlobalPosi
  00014	8b 4d 0c	 mov	 ecx, DWORD PTR _dwGlobalY$[ebp]
  00017	8b 55 08	 mov	 edx, DWORD PTR _dwGlobalX$[ebp]
  0001a	66 0f 1f 44 00
	00		 npad	 6
$LL21@GlobalPosi:
; File D:\Metin2 Server Files\mainline\SRC_2014\Metin2Client\UserInterface\PythonBackground.h

; 176  : 			if (m_dwX < rMapInfo.m_dwBaseX || m_dwX >= rMapInfo.m_dwEndX || m_dwY < rMapInfo.m_dwBaseY || m_dwY >= rMapInfo.m_dwEndY)

  00020	3b 50 18	 cmp	 edx, DWORD PTR [eax+24]
  00023	72 0f		 jb	 SHORT $LN26@GlobalPosi
  00025	3b 50 28	 cmp	 edx, DWORD PTR [eax+40]
  00028	73 0a		 jae	 SHORT $LN26@GlobalPosi
  0002a	3b 48 1c	 cmp	 ecx, DWORD PTR [eax+28]
  0002d	72 05		 jb	 SHORT $LN26@GlobalPosi
  0002f	3b 48 2c	 cmp	 ecx, DWORD PTR [eax+44]
  00032	72 07		 jb	 SHORT $LN47@GlobalPosi
$LN26@GlobalPosi:
; File C:\Program Files (x86)\Microsoft Visual Studio\2019\Community\VC\Tools\MSVC\14.28.29333\include\xutility

; 5791 :     for (; _UFirst != _ULast; ++_UFirst) {

  00034	83 c0 30	 add	 eax, 48			; 00000030H
  00037	3b c6		 cmp	 eax, esi
  00039	75 e5		 jne	 SHORT $LL21@GlobalPosi
$LN47@GlobalPosi:
; File C:\Program Files (x86)\Microsoft Visual Studio\2019\Community\VC\Tools\MSVC\14.28.29333\include\vector

; 195  :         _Ptr = _Refancy<_Tptr>(const_cast<value_type*>(_It));

  0003b	50		 push	 eax
  0003c	e8 00 00 00 00	 call	 ??$_Refancy@PAUTMapInfo@CMapManager@@$0A@@std@@YAPAUTMapInfo@CMapManager@@PAU12@@Z ; std::_Refancy<CMapManager::TMapInfo *,0>
  00041	83 c4 04	 add	 esp, 4
; File D:\Metin2 Server Files\mainline\SRC_2014\Metin2Client\UserInterface\PythonBackground.cpp

; 725  : 	if (f == m_kVct_kMapInfo.end())

  00044	33 c9		 xor	 ecx, ecx
; File C:\Program Files (x86)\Microsoft Visual Studio\2019\Community\VC\Tools\MSVC\14.28.29333\include\vector

; 42   :     _Vector_const_iterator(_Tptr _Parg, const _Container_base* _Pvector) noexcept : _Ptr(_Parg) {

  00046	3b c6		 cmp	 eax, esi
; File D:\Metin2 Server Files\mainline\SRC_2014\Metin2Client\UserInterface\PythonBackground.cpp

; 725  : 	if (f == m_kVct_kMapInfo.end())

  00048	0f 44 c1	 cmove	 eax, ecx
  0004b	5e		 pop	 esi

; 726  : 		return NULL;
; 727  : 
; 728  : 	return &(*f);
; 729  : }

  0004c	5d		 pop	 ebp
  0004d	c2 08 00	 ret	 8
?GlobalPositionToMapInfo@CPythonBackground@@QAEPAUTMapInfo@CMapManager@@KK@Z ENDP ; CPythonBackground::GlobalPositionToMapInfo
_TEXT	ENDS
; Function compile flags: /Ogtp
; File D:\Metin2 Server Files\mainline\SRC_2014\Metin2Client\UserInterface\PythonBackground.cpp
; File C:\Program Files (x86)\Microsoft Visual Studio\2019\Community\VC\Tools\MSVC\14.28.29333\include\xstring
; File C:\Program Files (x86)\Microsoft Visual Studio\2019\Community\VC\Tools\MSVC\14.28.29333\include\xtree
; File D:\Metin2 Server Files\mainline\SRC_2014\Metin2Client\UserInterface\PythonBackground.cpp
; File C:\Program Files (x86)\Microsoft Visual Studio\2019\Community\VC\Tools\MSVC\14.28.29333\include\xtree
; File D:\Metin2 Server Files\mainline\SRC_2014\Metin2Client\UserInterface\PythonBackground.cpp
; File C:\Program Files (x86)\Microsoft Visual Studio\2019\Community\VC\Tools\MSVC\14.28.29333\include\xtree
; File C:\Program Files (x86)\Microsoft Visual Studio\2019\Community\VC\Tools\MSVC\14.28.29333\include\xstddef
; File C:\Program Files (x86)\Microsoft Visual Studio\2019\Community\VC\Tools\MSVC\14.28.29333\include\xtree
; File C:\Program Files (x86)\Microsoft Visual Studio\2019\Community\VC\Tools\MSVC\14.28.29333\include\xstring
; File C:\Program Files (x86)\Microsoft Visual Studio\2019\Community\VC\Tools\MSVC\14.28.29333\include\xmemory
; File C:\Program Files (x86)\Microsoft Visual Studio\2019\Community\VC\Tools\MSVC\14.28.29333\include\xtree
; File C:\Program Files (x86)\Microsoft Visual Studio\2019\Community\VC\Tools\MSVC\14.28.29333\include\xmemory
; File C:\Program Files (x86)\Microsoft Visual Studio\2019\Community\VC\Tools\MSVC\14.28.29333\include\xtree
; File C:\Program Files (x86)\Microsoft Visual Studio\2019\Community\VC\Tools\MSVC\14.28.29333\include\xmemory
; File C:\Program Files (x86)\Microsoft Visual Studio\2019\Community\VC\Tools\MSVC\14.28.29333\include\xstring
; File C:\Program Files (x86)\Microsoft Visual Studio\2019\Community\VC\Tools\MSVC\14.28.29333\include\xmemory
; File C:\Program Files (x86)\Microsoft Visual Studio\2019\Community\VC\Tools\MSVC\14.28.29333\include\xtree
; File C:\Program Files (x86)\Microsoft Visual Studio\2019\Community\VC\Tools\MSVC\14.28.29333\include\xstring
; File C:\Program Files (x86)\Microsoft Visual Studio\2019\Community\VC\Tools\MSVC\14.28.29333\include\xtree
; File D:\Metin2 Server Files\mainline\SRC_2014\Metin2Client\UserInterface\PythonBackground.cpp
; File C:\Program Files (x86)\Microsoft Visual Studio\2019\Community\VC\Tools\MSVC\14.28.29333\include\xtree
; File D:\Metin2 Server Files\mainline\SRC_2014\Metin2Client\UserInterface\PythonBackground.cpp
;	COMDAT ?RegisterDungeonMapName@CPythonBackground@@QAEXPBD@Z
_TEXT	SEGMENT
__Loc$2 = -68						; size = 12
$T3 = -56						; size = 12
$T4 = -52						; size = 8
__Myhead$5 = -44					; size = 4
$T6 = -40						; size = 24
__$ArrayPad$ = -16					; size = 4
__$EHRec$ = -12						; size = 12
_c_szMapName$ = 8					; size = 4
?RegisterDungeonMapName@CPythonBackground@@QAEXPBD@Z PROC ; CPythonBackground::RegisterDungeonMapName, COMDAT
; _this$ = ecx

; 718  : {

  00000	55		 push	 ebp
  00001	8b ec		 mov	 ebp, esp
  00003	6a ff		 push	 -1
  00005	68 00 00 00 00	 push	 __ehhandler$?RegisterDungeonMapName@CPythonBackground@@QAEXPBD@Z
  0000a	64 a1 00 00 00
	00		 mov	 eax, DWORD PTR fs:0
  00010	50		 push	 eax
  00011	83 ec 38	 sub	 esp, 56			; 00000038H
  00014	a1 00 00 00 00	 mov	 eax, DWORD PTR ___security_cookie
  00019	33 c5		 xor	 eax, ebp
  0001b	89 45 f0	 mov	 DWORD PTR __$ArrayPad$[ebp], eax
  0001e	56		 push	 esi
  0001f	57		 push	 edi
  00020	50		 push	 eax
  00021	8d 45 f4	 lea	 eax, DWORD PTR __$EHRec$[ebp]
  00024	64 a3 00 00 00
	00		 mov	 DWORD PTR fs:0, eax
  0002a	8b f9		 mov	 edi, ecx
  0002c	8b 75 08	 mov	 esi, DWORD PTR _c_szMapName$[ebp]
; File C:\Program Files (x86)\Microsoft Visual Studio\2019\Community\VC\Tools\MSVC\14.28.29333\include\xstring

; 389  :         return _CSTD strlen(reinterpret_cast<const char*>(_First));

  0002f	8b d6		 mov	 edx, esi

; 4377 :         _Mypair._Myval2._Mysize = 0;

  00031	c7 45 e8 00 00
	00 00		 mov	 DWORD PTR $T6[ebp+16], 0

; 4378 :         _Mypair._Myval2._Myres  = _BUF_SIZE - 1;

  00038	c7 45 ec 0f 00
	00 00		 mov	 DWORD PTR $T6[ebp+20], 15 ; 0000000fH

; 4379 :         // the _Traits::assign is last so the codegen doesn't think the char write can alias this
; 4380 :         _Traits::assign(_Mypair._Myval2._Bx._Buf[0], _Elem());

  0003f	c6 45 d8 00	 mov	 BYTE PTR $T6[ebp], 0

; 389  :         return _CSTD strlen(reinterpret_cast<const char*>(_First));

  00043	8d 4a 01	 lea	 ecx, DWORD PTR [edx+1]
$LL124@RegisterDu:
  00046	8a 02		 mov	 al, BYTE PTR [edx]
  00048	42		 inc	 edx
  00049	84 c0		 test	 al, al
  0004b	75 f9		 jne	 SHORT $LL124@RegisterDu
  0004d	2b d1		 sub	 edx, ecx

; 3062 :         return assign(_Ptr, _Convert_size<size_type>(_Traits::length(_Ptr)));

  0004f	8d 4d d8	 lea	 ecx, DWORD PTR $T6[ebp]
  00052	52		 push	 edx
  00053	56		 push	 esi
  00054	e8 00 00 00 00	 call	 ?assign@?$basic_string@DU?$char_traits@D@std@@V?$allocator@D@2@@std@@QAEAAV12@QBDI@Z ; std::basic_string<char,std::char_traits<char>,std::allocator<char> >::assign
; File C:\Program Files (x86)\Microsoft Visual Studio\2019\Community\VC\Tools\MSVC\14.28.29333\include\xtree

; 1009 :             _Loc                = _Find_lower_bound(_Keyval);

  00059	8d 45 d8	 lea	 eax, DWORD PTR $T6[ebp]
; File D:\Metin2 Server Files\mainline\SRC_2014\Metin2Client\UserInterface\PythonBackground.cpp

; 719  : 	m_kSet_strDungeonMapName.insert(c_szMapName);

  0005c	c7 45 fc 00 00
	00 00		 mov	 DWORD PTR __$EHRec$[ebp+8], 0
; File C:\Program Files (x86)\Microsoft Visual Studio\2019\Community\VC\Tools\MSVC\14.28.29333\include\xtree

; 1009 :             _Loc                = _Find_lower_bound(_Keyval);

  00063	50		 push	 eax
  00064	8d 45 c8	 lea	 eax, DWORD PTR $T3[ebp]
; File D:\Metin2 Server Files\mainline\SRC_2014\Metin2Client\UserInterface\PythonBackground.cpp

; 719  : 	m_kSet_strDungeonMapName.insert(c_szMapName);

  00067	81 c7 f0 15 00
	00		 add	 edi, 5616		; 000015f0H
; File C:\Program Files (x86)\Microsoft Visual Studio\2019\Community\VC\Tools\MSVC\14.28.29333\include\xtree

; 1009 :             _Loc                = _Find_lower_bound(_Keyval);

  0006d	50		 push	 eax
  0006e	8b cf		 mov	 ecx, edi
  00070	e8 00 00 00 00	 call	 ??$_Find_lower_bound@V?$basic_string@DU?$char_traits@D@std@@V?$allocator@D@2@@std@@@?$_Tree@V?$_Tset_traits@V?$basic_string@DU?$char_traits@D@std@@V?$allocator@D@2@@std@@U?$less@V?$basic_string@DU?$char_traits@D@std@@V?$allocator@D@2@@std@@@2@V?$allocator@V?$basic_string@DU?$char_traits@D@std@@V?$allocator@D@2@@std@@@2@$0A@@std@@@std@@IBE?AU?$_Tree_find_result@PAU?$_Tree_node@V?$basic_string@DU?$char_traits@D@std@@V?$allocator@D@2@@std@@PAX@std@@@1@ABV?$basic_string@DU?$char_traits@D@std@@V?$allocator@D@2@@1@@Z ; std::_Tree<std::_Tset_traits<std::basic_string<char,std::char_traits<char>,std::allocator<char> >,std::less<std::basic_string<char,std::char_traits<char>,std::allocator<char> > >,std::allocator<std::basic_string<char,std::char_traits<char>,std::allocator<char> > >,0> >::_Find_lower_bound<std::basic_string<char,std::char_traits<char>,std::allocator<char> > >
  00075	f3 0f 7e 00	 movq	 xmm0, QWORD PTR [eax]
  00079	8b 40 08	 mov	 eax, DWORD PTR [eax+8]
  0007c	66 0f d6 45 bc	 movq	 QWORD PTR __Loc$2[ebp], xmm0

; 1695 :         return !_Bound->_Isnil && !_DEBUG_LT_PRED(_Getcomp(), _Keyval, _Traits::_Kfn(_Bound->_Myval));

  00081	80 78 0d 00	 cmp	 BYTE PTR [eax+13], 0
  00085	75 32		 jne	 SHORT $LN26@RegisterDu
  00087	83 c0 10	 add	 eax, 16			; 00000010H
; File C:\Program Files (x86)\Microsoft Visual Studio\2019\Community\VC\Tools\MSVC\14.28.29333\include\xstddef

; 127  :         return _Left < _Right;

  0008a	50		 push	 eax
  0008b	8d 45 d8	 lea	 eax, DWORD PTR $T6[ebp]
  0008e	50		 push	 eax
  0008f	e8 00 00 00 00	 call	 ??$?MDU?$char_traits@D@std@@V?$allocator@D@1@@std@@YA_NABV?$basic_string@DU?$char_traits@D@std@@V?$allocator@D@2@@0@0@Z ; std::operator<<char,std::char_traits<char>,std::allocator<char> >
  00094	83 c4 08	 add	 esp, 8
; File C:\Program Files (x86)\Microsoft Visual Studio\2019\Community\VC\Tools\MSVC\14.28.29333\include\xtree

; 1695 :         return !_Bound->_Isnil && !_DEBUG_LT_PRED(_Getcomp(), _Keyval, _Traits::_Kfn(_Bound->_Myval));

  00097	84 c0		 test	 al, al
  00099	75 1e		 jne	 SHORT $LN26@RegisterDu
; File C:\Program Files (x86)\Microsoft Visual Studio\2019\Community\VC\Tools\MSVC\14.28.29333\include\xstring

; 2227 :         return _BUF_SIZE <= _Myres;

  0009b	8b 45 ec	 mov	 eax, DWORD PTR $T6[ebp+20]
  0009e	83 f8 10	 cmp	 eax, 16			; 00000010H

; 4385 :         if (_Mypair._Myval2._Large_string_engaged()) {

  000a1	0f 82 96 00 00
	00		 jb	 $LN117@RegisterDu

; 4386 :             const pointer _Ptr = _Mypair._Myval2._Bx._Ptr;
; 4387 :             auto& _Al          = _Getal();
; 4388 :             _Destroy_in_place(_Mypair._Myval2._Bx._Ptr);
; 4389 :             _Al.deallocate(_Ptr, _Mypair._Myval2._Myres + 1);

  000a7	40		 inc	 eax
; File C:\Program Files (x86)\Microsoft Visual Studio\2019\Community\VC\Tools\MSVC\14.28.29333\include\xmemory

; 810  :         _Deallocate<_New_alignof<_Ty>>(_Ptr, sizeof(_Ty) * _Count);

  000a8	50		 push	 eax
  000a9	ff 75 d8	 push	 DWORD PTR $T6[ebp]
  000ac	e8 00 00 00 00	 call	 ??$_Deallocate@$07$0A@@std@@YAXPAXI@Z ; std::_Deallocate<8,0>
  000b1	83 c4 08	 add	 esp, 8
  000b4	e9 84 00 00 00	 jmp	 $LN117@RegisterDu
$LN26@RegisterDu:
; File C:\Program Files (x86)\Microsoft Visual Studio\2019\Community\VC\Tools\MSVC\14.28.29333\include\xtree

; 1719 :         if (max_size() == _Get_scary()->_Mysize) {

  000b9	81 7f 04 66 66
	66 06		 cmp	 DWORD PTR [edi+4], 107374182 ; 06666666H
  000c0	0f 84 94 00 00
	00		 je	 $LN128@RegisterDu

; 1015 :             _Inserted = _Tree_temp_node<_Alnode>(_Getal(), _Scary->_Myhead, _STD forward<_Valtys>(_Vals)...)._Release();

  000c6	8b 07		 mov	 eax, DWORD PTR [edi]
  000c8	89 45 d4	 mov	 DWORD PTR __Myhead$5[ebp], eax
; File C:\Program Files (x86)\Microsoft Visual Studio\2019\Community\VC\Tools\MSVC\14.28.29333\include\xmemory

; 1045 :     explicit _Alloc_construct_ptr(_Alloc& _Al_) : _Al(_Al_), _Ptr(nullptr) {}

  000cb	89 7d cc	 mov	 DWORD PTR $T4[ebp], edi

; 814  :         return static_cast<_Ty*>(_Allocate<_New_alignof<_Ty>>(_Get_size_of_n<sizeof(_Ty)>(_Count)));

  000ce	6a 28		 push	 40			; 00000028H
; File C:\Program Files (x86)\Microsoft Visual Studio\2019\Community\VC\Tools\MSVC\14.28.29333\include\xtree

; 784  :     explicit _Tree_temp_node_alloc(_Alnode& _Al_) : _Alloc_construct_ptr<_Alnode>(_Al_) {

  000d0	c6 45 fc 01	 mov	 BYTE PTR __$EHRec$[ebp+8], 1
; File C:\Program Files (x86)\Microsoft Visual Studio\2019\Community\VC\Tools\MSVC\14.28.29333\include\xmemory

; 1052 :         _Ptr = nullptr; // if allocate throws, prevents double-free

  000d4	c7 45 d0 00 00
	00 00		 mov	 DWORD PTR $T4[ebp+4], 0

; 814  :         return static_cast<_Ty*>(_Allocate<_New_alignof<_Ty>>(_Get_size_of_n<sizeof(_Ty)>(_Count)));

  000db	e8 00 00 00 00	 call	 ??$_Allocate@$07U_Default_allocate_traits@std@@$0A@@std@@YAPAXI@Z ; std::_Allocate<8,std::_Default_allocate_traits,0>
; File C:\Program Files (x86)\Microsoft Visual Studio\2019\Community\VC\Tools\MSVC\14.28.29333\include\xstring

; 2684 :         _CSTD memcpy(_My_data_mem, _Right_data_mem, _Memcpy_val_size);

  000e0	0f 10 45 d8	 movups	 xmm0, XMMWORD PTR $T6[ebp]
; File C:\Program Files (x86)\Microsoft Visual Studio\2019\Community\VC\Tools\MSVC\14.28.29333\include\xmemory

; 1053 :         _Ptr = _Al.allocate(1);

  000e4	8b f0		 mov	 esi, eax
; File C:\Program Files (x86)\Microsoft Visual Studio\2019\Community\VC\Tools\MSVC\14.28.29333\include\xtree

; 807  :         _Construct_in_place(this->_Ptr->_Left, _Myhead);

  000e6	8d 45 d4	 lea	 eax, DWORD PTR __Myhead$5[ebp]
  000e9	50		 push	 eax
  000ea	56		 push	 esi
; File C:\Program Files (x86)\Microsoft Visual Studio\2019\Community\VC\Tools\MSVC\14.28.29333\include\xstring

; 2198 :     _String_val() noexcept : _Bx(), _Mysize(0), _Myres(0) {}

  000eb	c7 46 20 00 00
	00 00		 mov	 DWORD PTR [esi+32], 0
  000f2	c7 46 24 00 00
	00 00		 mov	 DWORD PTR [esi+36], 0

; 2684 :         _CSTD memcpy(_My_data_mem, _Right_data_mem, _Memcpy_val_size);

  000f9	0f 11 46 10	 movups	 XMMWORD PTR [esi+16], xmm0
  000fd	f3 0f 7e 45 e8	 movq	 xmm0, QWORD PTR $T6[ebp+16]
  00102	66 0f d6 46 20	 movq	 QWORD PTR [esi+32], xmm0
; File C:\Program Files (x86)\Microsoft Visual Studio\2019\Community\VC\Tools\MSVC\14.28.29333\include\xtree

; 807  :         _Construct_in_place(this->_Ptr->_Left, _Myhead);

  00107	e8 00 00 00 00	 call	 ??$_Construct_in_place@PAU?$_Tree_node@V?$basic_string@DU?$char_traits@D@std@@V?$allocator@D@2@@std@@PAX@std@@AAPAU12@@std@@YAXAAPAU?$_Tree_node@V?$basic_string@DU?$char_traits@D@std@@V?$allocator@D@2@@std@@PAX@0@0@Z ; std::_Construct_in_place<std::_Tree_node<std::basic_string<char,std::char_traits<char>,std::allocator<char> >,void *> *,std::_Tree_node<std::basic_string<char,std::char_traits<char>,std::allocator<char> >,void *> * &>

; 808  :         _Construct_in_place(this->_Ptr->_Parent, _Myhead);

  0010c	8d 45 d4	 lea	 eax, DWORD PTR __Myhead$5[ebp]
  0010f	50		 push	 eax
  00110	8d 46 04	 lea	 eax, DWORD PTR [esi+4]
  00113	50		 push	 eax
  00114	e8 00 00 00 00	 call	 ??$_Construct_in_place@PAU?$_Tree_node@V?$basic_string@DU?$char_traits@D@std@@V?$allocator@D@2@@std@@PAX@std@@AAPAU12@@std@@YAXAAPAU?$_Tree_node@V?$basic_string@DU?$char_traits@D@std@@V?$allocator@D@2@@std@@PAX@0@0@Z ; std::_Construct_in_place<std::_Tree_node<std::basic_string<char,std::char_traits<char>,std::allocator<char> >,void *> *,std::_Tree_node<std::basic_string<char,std::char_traits<char>,std::allocator<char> >,void *> * &>

; 809  :         _Construct_in_place(this->_Ptr->_Right, _Myhead);

  00119	8d 45 d4	 lea	 eax, DWORD PTR __Myhead$5[ebp]
  0011c	50		 push	 eax
  0011d	8d 46 08	 lea	 eax, DWORD PTR [esi+8]
  00120	50		 push	 eax
  00121	e8 00 00 00 00	 call	 ??$_Construct_in_place@PAU?$_Tree_node@V?$basic_string@DU?$char_traits@D@std@@V?$allocator@D@2@@std@@PAX@std@@AAPAU12@@std@@YAXAAPAU?$_Tree_node@V?$basic_string@DU?$char_traits@D@std@@V?$allocator@D@2@@std@@PAX@0@0@Z ; std::_Construct_in_place<std::_Tree_node<std::basic_string<char,std::char_traits<char>,std::allocator<char> >,void *> *,std::_Tree_node<std::basic_string<char,std::char_traits<char>,std::allocator<char> >,void *> * &>
  00126	83 c4 1c	 add	 esp, 28			; 0000001cH

; 810  :         this->_Ptr->_Color = _Red;

  00129	66 c7 46 0c 00
	00		 mov	 WORD PTR [esi+12], 0

; 1034 :         return {_Scary->_Insert_node(_Loc._Location, _Inserted), true};

  0012f	8b cf		 mov	 ecx, edi
  00131	56		 push	 esi
  00132	ff 75 c0	 push	 DWORD PTR __Loc$2[ebp+4]
  00135	ff 75 bc	 push	 DWORD PTR __Loc$2[ebp]
  00138	e8 00 00 00 00	 call	 ?_Insert_node@?$_Tree_val@U?$_Tree_simple_types@V?$basic_string@DU?$char_traits@D@std@@V?$allocator@D@2@@std@@@std@@@std@@QAEPAU?$_Tree_node@V?$basic_string@DU?$char_traits@D@std@@V?$allocator@D@2@@std@@PAX@2@U?$_Tree_id@PAU?$_Tree_node@V?$basic_string@DU?$char_traits@D@std@@V?$allocator@D@2@@std@@PAX@std@@@2@QAU32@@Z ; std::_Tree_val<std::_Tree_simple_types<std::basic_string<char,std::char_traits<char>,std::allocator<char> > > >::_Insert_node
$LN117@RegisterDu:
; File D:\Metin2 Server Files\mainline\SRC_2014\Metin2Client\UserInterface\PythonBackground.cpp

; 720  : }

  0013d	8b 4d f4	 mov	 ecx, DWORD PTR __$EHRec$[ebp]
  00140	64 89 0d 00 00
	00 00		 mov	 DWORD PTR fs:0, ecx
  00147	59		 pop	 ecx
  00148	5f		 pop	 edi
  00149	5e		 pop	 esi
  0014a	8b 4d f0	 mov	 ecx, DWORD PTR __$ArrayPad$[ebp]
  0014d	33 cd		 xor	 ecx, ebp
  0014f	e8 00 00 00 00	 call	 @__security_check_cookie@4
  00154	8b e5		 mov	 esp, ebp
  00156	5d		 pop	 ebp
  00157	c2 04 00	 ret	 4
$LN128@RegisterDu:
; File C:\Program Files (x86)\Microsoft Visual Studio\2019\Community\VC\Tools\MSVC\14.28.29333\include\xtree

; 1720 :             _Throw_tree_length_error();

  0015a	e8 00 00 00 00	 call	 ?_Throw_tree_length_error@std@@YAXXZ ; std::_Throw_tree_length_error
$LN126@RegisterDu:
  0015f	cc		 int	 3
_TEXT	ENDS
;	COMDAT text$x
text$x	SEGMENT
__unwindfunclet$?RegisterDungeonMapName@CPythonBackground@@QAEXPBD@Z$0:
  00000	8d 4d d8	 lea	 ecx, DWORD PTR $T6[ebp]
  00003	e9 00 00 00 00	 jmp	 ??1?$basic_string@DU?$char_traits@D@std@@V?$allocator@D@2@@std@@QAE@XZ ; std::basic_string<char,std::char_traits<char>,std::allocator<char> >::~basic_string<char,std::char_traits<char>,std::allocator<char> >
__unwindfunclet$?RegisterDungeonMapName@CPythonBackground@@QAEXPBD@Z$5:
  00008	8d 4d cc	 lea	 ecx, DWORD PTR $T4[ebp]
  0000b	e9 00 00 00 00	 jmp	 ??1?$_Alloc_construct_ptr@V?$allocator@U?$_Tree_node@V?$basic_string@DU?$char_traits@D@std@@V?$allocator@D@2@@std@@PAX@std@@@std@@@std@@QAE@XZ ; std::_Alloc_construct_ptr<std::allocator<std::_Tree_node<std::basic_string<char,std::char_traits<char>,std::allocator<char> >,void *> > >::~_Alloc_construct_ptr<std::allocator<std::_Tree_node<std::basic_string<char,std::char_traits<char>,std::allocator<char> >,void *> > >
  00010	cc		 int	 3
  00011	cc		 int	 3
  00012	cc		 int	 3
  00013	cc		 int	 3
  00014	cc		 int	 3
__ehhandler$?RegisterDungeonMapName@CPythonBackground@@QAEXPBD@Z:
  00015	90		 npad	 1
  00016	90		 npad	 1
  00017	8b 54 24 08	 mov	 edx, DWORD PTR [esp+8]
  0001b	8d 42 0c	 lea	 eax, DWORD PTR [edx+12]
  0001e	8b 4a bc	 mov	 ecx, DWORD PTR [edx-68]
  00021	33 c8		 xor	 ecx, eax
  00023	e8 00 00 00 00	 call	 @__security_check_cookie@4
  00028	8b 4a fc	 mov	 ecx, DWORD PTR [edx-4]
  0002b	33 c8		 xor	 ecx, eax
  0002d	e8 00 00 00 00	 call	 @__security_check_cookie@4
  00032	b8 00 00 00 00	 mov	 eax, OFFSET __ehfuncinfo$?RegisterDungeonMapName@CPythonBackground@@QAEXPBD@Z
  00037	e9 00 00 00 00	 jmp	 ___CxxFrameHandler3
text$x	ENDS
?RegisterDungeonMapName@CPythonBackground@@QAEXPBD@Z ENDP ; CPythonBackground::RegisterDungeonMapName
; Function compile flags: /Ogtp
; File D:\Metin2 Server Files\mainline\SRC_2014\Metin2Client\UserInterface\PythonBackground.cpp
;	COMDAT ?DisableGuildArea@CPythonBackground@@QAEXXZ
_TEXT	SEGMENT
?DisableGuildArea@CPythonBackground@@QAEXXZ PROC	; CPythonBackground::DisableGuildArea, COMDAT
; _this$ = ecx

; 786  : {

  00000	56		 push	 esi
  00001	8b f1		 mov	 esi, ecx

; 787  : 	if (!IsMapReady())

  00003	e8 00 00 00 00	 call	 ?IsMapReady@CMapManager@@QAE_NXZ ; CMapManager::IsMapReady
  00008	84 c0		 test	 al, al
  0000a	74 18		 je	 SHORT $LN1@DisableGui

; 788  : 		return;
; 789  : 
; 790  : 	CMapOutdoor& rkMap=GetMapOutdoorRef();

  0000c	8b ce		 mov	 ecx, esi
  0000e	e8 00 00 00 00	 call	 ?GetMapOutdoorRef@CMapManager@@QAEAAVCMapOutdoor@@XZ ; CMapManager::GetMapOutdoorRef

; 791  : 	rkMap.DisableMarkedArea();

  00013	8b c8		 mov	 ecx, eax
  00015	e8 00 00 00 00	 call	 ?DisableMarkedArea@CMapOutdoor@@QAEXXZ ; CMapOutdoor::DisableMarkedArea

; 792  : 
; 793  : 	m_bVisibleGuildArea = FALSE;

  0001a	c7 86 60 15 00
	00 00 00 00 00	 mov	 DWORD PTR [esi+5472], 0
$LN1@DisableGui:

; 794  : }

  00024	5e		 pop	 esi
  00025	c3		 ret	 0
?DisableGuildArea@CPythonBackground@@QAEXXZ ENDP	; CPythonBackground::DisableGuildArea
_TEXT	ENDS
; Function compile flags: /Ogtp
; File D:\Metin2 Server Files\mainline\SRC_2014\Metin2Client\UserInterface\PythonBackground.cpp
;	COMDAT ?VisibleGuildArea@CPythonBackground@@QAEXXZ
_TEXT	SEGMENT
?VisibleGuildArea@CPythonBackground@@QAEXXZ PROC	; CPythonBackground::VisibleGuildArea, COMDAT
; _this$ = ecx

; 775  : {

  00000	56		 push	 esi
  00001	8b f1		 mov	 esi, ecx

; 776  : 	if (!IsMapReady())

  00003	e8 00 00 00 00	 call	 ?IsMapReady@CMapManager@@QAE_NXZ ; CMapManager::IsMapReady
  00008	84 c0		 test	 al, al
  0000a	74 18		 je	 SHORT $LN1@VisibleGui

; 777  : 		return;
; 778  : 
; 779  : 	CMapOutdoor& rkMap=GetMapOutdoorRef();

  0000c	8b ce		 mov	 ecx, esi
  0000e	e8 00 00 00 00	 call	 ?GetMapOutdoorRef@CMapManager@@QAEAAVCMapOutdoor@@XZ ; CMapManager::GetMapOutdoorRef

; 780  : 	rkMap.VisibleMarkedArea();

  00013	8b c8		 mov	 ecx, eax
  00015	e8 00 00 00 00	 call	 ?VisibleMarkedArea@CMapOutdoor@@QAEXXZ ; CMapOutdoor::VisibleMarkedArea

; 781  : 
; 782  : 	m_bVisibleGuildArea = TRUE;

  0001a	c7 86 60 15 00
	00 01 00 00 00	 mov	 DWORD PTR [esi+5472], 1
$LN1@VisibleGui:

; 783  : }

  00024	5e		 pop	 esi
  00025	c3		 ret	 0
?VisibleGuildArea@CPythonBackground@@QAEXXZ ENDP	; CPythonBackground::VisibleGuildArea
_TEXT	ENDS
; Function compile flags: /Ogtp
; File D:\Metin2 Server Files\mainline\SRC_2014\Metin2Client\UserInterface\PythonBackground.cpp
; File C:\Program Files (x86)\Microsoft Visual Studio\2019\Community\VC\Tools\MSVC\14.28.29333\include\xstring
; File D:\Metin2 Server Files\mainline\SRC_2014\Metin2Client\UserInterface\PythonBackground.cpp
; File C:\Program Files (x86)\Microsoft Visual Studio\2019\Community\VC\Tools\MSVC\14.28.29333\include\xtree
; File C:\Program Files (x86)\Microsoft Visual Studio\2019\Community\VC\Tools\MSVC\14.28.29333\include\xstddef
; File C:\Program Files (x86)\Microsoft Visual Studio\2019\Community\VC\Tools\MSVC\14.28.29333\include\xtree
; File D:\Metin2 Server Files\mainline\SRC_2014\Metin2Client\UserInterface\PythonBackground.cpp
;	COMDAT ?Warp@CPythonBackground@@QAEXKK@Z
_TEXT	SEGMENT
__Loc$1 = -12						; size = 12
_dwX$ = 8						; size = 4
_dwY$ = 12						; size = 4
?Warp@CPythonBackground@@QAEXKK@Z PROC			; CPythonBackground::Warp, COMDAT
; _this$ = ecx

; 732  : {

  00000	55		 push	 ebp
  00001	8b ec		 mov	 ebp, esp
  00003	83 ec 0c	 sub	 esp, 12			; 0000000cH
  00006	53		 push	 ebx

; 733  : 	TMapInfo* pkMapInfo = GlobalPositionToMapInfo(dwX, dwY);

  00007	8b 5d 0c	 mov	 ebx, DWORD PTR _dwY$[ebp]
  0000a	56		 push	 esi
  0000b	57		 push	 edi
  0000c	53		 push	 ebx
  0000d	ff 75 08	 push	 DWORD PTR _dwX$[ebp]
  00010	8b f1		 mov	 esi, ecx
  00012	e8 00 00 00 00	 call	 ?GlobalPositionToMapInfo@CPythonBackground@@QAEPAUTMapInfo@CMapManager@@KK@Z ; CPythonBackground::GlobalPositionToMapInfo
  00017	8b f8		 mov	 edi, eax

; 734  : 	if (!pkMapInfo)

  00019	85 ff		 test	 edi, edi
  0001b	75 1a		 jne	 SHORT $LN2@Warp

; 735  : 	{
; 736  : 		TraceError("NOT_FOUND_GLOBAL_POSITION(%d, %d)", dwX, dwY);

  0001d	53		 push	 ebx
  0001e	ff 75 08	 push	 DWORD PTR _dwX$[ebp]
  00021	68 00 00 00 00	 push	 OFFSET ??_C@_0CC@FDBLKFI@NOT_FOUND_GLOBAL_POSITION?$CI?$CFd?0?5?$CF@
  00026	e8 00 00 00 00	 call	 ?TraceError@@YAXPBDZZ	; TraceError
  0002b	83 c4 0c	 add	 esp, 12			; 0000000cH
  0002e	5f		 pop	 edi

; 772  : }

  0002f	5e		 pop	 esi
  00030	5b		 pop	 ebx
  00031	8b e5		 mov	 esp, ebp
  00033	5d		 pop	 ebp
  00034	c2 08 00	 ret	 8
$LN2@Warp:

; 737  : 		return;
; 738  : 	}
; 739  : 
; 740  : 	RefreshShadowLevel();

  00037	8b ce		 mov	 ecx, esi
  00039	e8 00 00 00 00	 call	 ?RefreshShadowLevel@CPythonBackground@@QAEXXZ ; CPythonBackground::RefreshShadowLevel

; 741  : 	TMapInfo & rMapInfo = *pkMapInfo;
; 742  : 	assert( (dwX >= rMapInfo.m_dwBaseX) && (dwY >= rMapInfo.m_dwBaseY) );
; 743  : 
; 744  : 	if (!LoadMap(rMapInfo.m_strName, float(dwX - rMapInfo.m_dwBaseX), float(dwY - rMapInfo.m_dwBaseY), 0))

  0003e	2b 5f 1c	 sub	 ebx, DWORD PTR [edi+28]
  00041	83 ec 0c	 sub	 esp, 12			; 0000000cH
  00044	8b 4d 08	 mov	 ecx, DWORD PTR _dwX$[ebp]
  00047	2b 4f 18	 sub	 ecx, DWORD PTR [edi+24]
  0004a	8b 06		 mov	 eax, DWORD PTR [esi]
  0004c	66 0f 6e c3	 movd	 xmm0, ebx
  00050	f3 0f e6 c0	 cvtdq2pd xmm0, xmm0
  00054	c7 44 24 08 00
	00 00 00	 mov	 DWORD PTR [esp+8], 0
  0005c	c1 eb 1f	 shr	 ebx, 31			; 0000001fH
  0005f	8b 40 0c	 mov	 eax, DWORD PTR [eax+12]
  00062	f2 0f 58 04 dd
	00 00 00 00	 addsd	 xmm0, QWORD PTR __xmm@41f00000000000000000000000000000[ebx*8]
  0006b	66 0f 5a c0	 cvtpd2ps xmm0, xmm0
  0006f	f3 0f 11 44 24
	04		 movss	 DWORD PTR [esp+4], xmm0
  00075	66 0f 6e c1	 movd	 xmm0, ecx
  00079	f3 0f e6 c0	 cvtdq2pd xmm0, xmm0
  0007d	c1 e9 1f	 shr	 ecx, 31			; 0000001fH
  00080	f2 0f 58 04 cd
	00 00 00 00	 addsd	 xmm0, QWORD PTR __xmm@41f00000000000000000000000000000[ecx*8]
  00089	8b ce		 mov	 ecx, esi
  0008b	66 0f 5a c0	 cvtpd2ps xmm0, xmm0
  0008f	f3 0f 11 04 24	 movss	 DWORD PTR [esp], xmm0
  00094	57		 push	 edi
  00095	ff d0		 call	 eax
  00097	84 c0		 test	 al, al
  00099	75 11		 jne	 SHORT $LN3@Warp

; 745  : 	{
; 746  : 		// LOAD_MAP_ERROR_HANDLING
; 747  : 		PostQuitMessage(0);

  0009b	6a 00		 push	 0
  0009d	ff 15 00 00 00
	00		 call	 DWORD PTR __imp__PostQuitMessage@4
  000a3	5f		 pop	 edi

; 772  : }

  000a4	5e		 pop	 esi
  000a5	5b		 pop	 ebx
  000a6	8b e5		 mov	 esp, ebp
  000a8	5d		 pop	 ebp
  000a9	c2 08 00	 ret	 8
$LN3@Warp:

; 748  : 		// END_OF_LOAD_MAP_ERROR_HANDLING
; 749  : 		return;
; 750  : 	}
; 751  : 
; 752  : 	CPythonMiniMap::Instance().LoadAtlas();

  000ac	8b 0d 00 00 00
	00		 mov	 ecx, DWORD PTR ?ms_singleton@?$CSingleton@VCPythonMiniMap@@@@0PAVCPythonMiniMap@@A ; CSingleton<CPythonMiniMap>::ms_singleton
  000b2	e8 00 00 00 00	 call	 ?LoadAtlas@CPythonMiniMap@@QAE_NXZ ; CPythonMiniMap::LoadAtlas

; 753  : 
; 754  : 	m_dwBaseX=rMapInfo.m_dwBaseX;

  000b7	8b 47 18	 mov	 eax, DWORD PTR [edi+24]

; 755  : 	m_dwBaseY=rMapInfo.m_dwBaseY;
; 756  : 
; 757  : 	m_strMapName = rMapInfo.m_strName;

  000ba	8d 9e e0 14 00
	00		 lea	 ebx, DWORD PTR [esi+5344]
  000c0	89 86 68 15 00
	00		 mov	 DWORD PTR [esi+5480], eax
  000c6	8b 47 1c	 mov	 eax, DWORD PTR [edi+28]
  000c9	89 86 6c 15 00
	00		 mov	 DWORD PTR [esi+5484], eax
; File C:\Program Files (x86)\Microsoft Visual Studio\2019\Community\VC\Tools\MSVC\14.28.29333\include\xstring

; 2863 :         if (this != _STD addressof(_Right)) {

  000cf	3b df		 cmp	 ebx, edi
  000d1	74 15		 je	 SHORT $LN7@Warp

; 2227 :         return _BUF_SIZE <= _Myres;

  000d3	83 7f 14 10	 cmp	 DWORD PTR [edi+20], 16	; 00000010H

; 2218 :         const value_type* _Result = _Bx._Buf;

  000d7	8b c7		 mov	 eax, edi

; 2219 :         if (_Large_string_engaged()) {

  000d9	72 02		 jb	 SHORT $LN12@Warp

; 2220 :             _Result = _Unfancy(_Bx._Ptr);

  000db	8b 07		 mov	 eax, DWORD PTR [edi]
$LN12@Warp:

; 2828 :         assign(_Right._Mypair._Myval2._Myptr(), _Right._Mypair._Myval2._Mysize);

  000dd	ff 77 10	 push	 DWORD PTR [edi+16]
  000e0	8b cb		 mov	 ecx, ebx
  000e2	50		 push	 eax
  000e3	e8 00 00 00 00	 call	 ?assign@?$basic_string@DU?$char_traits@D@std@@V?$allocator@D@2@@std@@QAEAAV12@QBDI@Z ; std::basic_string<char,std::char_traits<char>,std::allocator<char> >::assign
$LN7@Warp:
; File D:\Metin2 Server Files\mainline\SRC_2014\Metin2Client\UserInterface\PythonBackground.cpp

; 759  : 	SetXMaxTree(m_iXMasTreeGrade);

  000e8	ff b6 54 15 00
	00		 push	 DWORD PTR [esi+5460]
  000ee	8b ce		 mov	 ecx, esi
  000f0	e8 00 00 00 00	 call	 ?SetXMaxTree@CPythonBackground@@QAEXH@Z ; CPythonBackground::SetXMaxTree
; File C:\Program Files (x86)\Microsoft Visual Studio\2019\Community\VC\Tools\MSVC\14.28.29333\include\xtree

; 1458 :         const _Tree_find_result<_Nodeptr> _Loc = _Find_lower_bound(_Keyval);

  000f5	53		 push	 ebx
  000f6	8d 4d f4	 lea	 ecx, DWORD PTR __Loc$1[ebp]
  000f9	51		 push	 ecx
  000fa	8d 8e f0 15 00
	00		 lea	 ecx, DWORD PTR [esi+5616]
  00100	e8 00 00 00 00	 call	 ??$_Find_lower_bound@V?$basic_string@DU?$char_traits@D@std@@V?$allocator@D@2@@std@@@?$_Tree@V?$_Tset_traits@V?$basic_string@DU?$char_traits@D@std@@V?$allocator@D@2@@std@@U?$less@V?$basic_string@DU?$char_traits@D@std@@V?$allocator@D@2@@std@@@2@V?$allocator@V?$basic_string@DU?$char_traits@D@std@@V?$allocator@D@2@@std@@@2@$0A@@std@@@std@@IBE?AU?$_Tree_find_result@PAU?$_Tree_node@V?$basic_string@DU?$char_traits@D@std@@V?$allocator@D@2@@std@@PAX@std@@@1@ABV?$basic_string@DU?$char_traits@D@std@@V?$allocator@D@2@@1@@Z ; std::_Tree<std::_Tset_traits<std::basic_string<char,std::char_traits<char>,std::allocator<char> >,std::less<std::basic_string<char,std::char_traits<char>,std::allocator<char> > >,std::allocator<std::basic_string<char,std::char_traits<char>,std::allocator<char> > >,0> >::_Find_lower_bound<std::basic_string<char,std::char_traits<char>,std::allocator<char> > >

; 1695 :         return !_Bound->_Isnil && !_DEBUG_LT_PRED(_Getcomp(), _Keyval, _Traits::_Kfn(_Bound->_Myval));

  00105	8b 7d fc	 mov	 edi, DWORD PTR __Loc$1[ebp+8]
  00108	80 7f 0d 00	 cmp	 BYTE PTR [edi+13], 0
  0010c	75 30		 jne	 SHORT $LN4@Warp
  0010e	8d 47 10	 lea	 eax, DWORD PTR [edi+16]
; File C:\Program Files (x86)\Microsoft Visual Studio\2019\Community\VC\Tools\MSVC\14.28.29333\include\xstddef

; 127  :         return _Left < _Right;

  00111	50		 push	 eax
  00112	53		 push	 ebx
  00113	e8 00 00 00 00	 call	 ??$?MDU?$char_traits@D@std@@V?$allocator@D@1@@std@@YA_NABV?$basic_string@DU?$char_traits@D@std@@V?$allocator@D@2@@0@0@Z ; std::operator<<char,std::char_traits<char>,std::allocator<char> >
  00118	83 c4 08	 add	 esp, 8
; File C:\Program Files (x86)\Microsoft Visual Studio\2019\Community\VC\Tools\MSVC\14.28.29333\include\xtree

; 1695 :         return !_Bound->_Isnil && !_DEBUG_LT_PRED(_Getcomp(), _Keyval, _Traits::_Kfn(_Bound->_Myval));

  0011b	84 c0		 test	 al, al
  0011d	75 1f		 jne	 SHORT $LN4@Warp

; 232  :         return this->_Ptr == _Right._Ptr;

  0011f	39 be f0 15 00
	00		 cmp	 DWORD PTR [esi+5616], edi
; File D:\Metin2 Server Files\mainline\SRC_2014\Metin2Client\UserInterface\PythonBackground.cpp

; 761  : 	if (m_kSet_strDungeonMapName.end() != m_kSet_strDungeonMapName.find(m_strMapName))

  00125	74 17		 je	 SHORT $LN4@Warp

; 762  : 	{
; 763  : 		EnableTerrainOnlyForHeight();

  00127	8b ce		 mov	 ecx, esi
  00129	e8 00 00 00 00	 call	 ?EnableTerrainOnlyForHeight@CPythonBackground@@QAEXXZ ; CPythonBackground::EnableTerrainOnlyForHeight

; 764  : 
; 765  : 		CMapOutdoor& rkMap=GetMapOutdoorRef();

  0012e	8b ce		 mov	 ecx, esi
  00130	e8 00 00 00 00	 call	 ?GetMapOutdoorRef@CMapManager@@QAEAAVCMapOutdoor@@XZ ; CMapManager::GetMapOutdoorRef

; 766  : 		rkMap.EnablePortal(TRUE);

  00135	6a 01		 push	 1
  00137	8b c8		 mov	 ecx, eax
  00139	e8 00 00 00 00	 call	 ?EnablePortal@CMapOutdoor@@QAEX_N@Z ; CMapOutdoor::EnablePortal
$LN4@Warp:

; 767  : 	}
; 768  : 
; 769  : 	m_kSet_iShowingPortalID.clear();

  0013e	8d 8e e8 15 00
	00		 lea	 ecx, DWORD PTR [esi+5608]
  00144	e8 00 00 00 00	 call	 ?clear@?$_Tree@V?$_Tset_traits@HU?$less@H@std@@V?$allocator@H@2@$0A@@std@@@std@@QAEXXZ ; std::_Tree<std::_Tset_traits<int,std::less<int>,std::allocator<int>,0> >::clear

; 770  : 	m_kMap_dwTargetID_dwChrID.clear();

  00149	8d 8e f8 15 00
	00		 lea	 ecx, DWORD PTR [esi+5624]
  0014f	e8 00 00 00 00	 call	 ?clear@?$_Tree@V?$_Tmap_traits@KKU?$less@K@std@@V?$allocator@U?$pair@$$CBKK@std@@@2@$0A@@std@@@std@@QAEXXZ ; std::_Tree<std::_Tmap_traits<unsigned long,unsigned long,std::less<unsigned long>,std::allocator<std::pair<unsigned long const ,unsigned long> >,0> >::clear

; 771  : 	m_kMap_dwID_kReserveTargetEffect.clear();

  00154	8d 8e 00 16 00
	00		 lea	 ecx, DWORD PTR [esi+5632]
  0015a	e8 00 00 00 00	 call	 ?clear@?$_Tree@V?$_Tmap_traits@KUSReserveTargetEffect@CPythonBackground@@U?$less@K@std@@V?$allocator@U?$pair@$$CBKUSReserveTargetEffect@CPythonBackground@@@std@@@4@$0A@@std@@@std@@QAEXXZ ; std::_Tree<std::_Tmap_traits<unsigned long,CPythonBackground::SReserveTargetEffect,std::less<unsigned long>,std::allocator<std::pair<unsigned long const ,CPythonBackground::SReserveTargetEffect> >,0> >::clear
  0015f	5f		 pop	 edi

; 772  : }

  00160	5e		 pop	 esi
  00161	5b		 pop	 ebx
  00162	8b e5		 mov	 esp, ebp
  00164	5d		 pop	 ebp
  00165	c2 08 00	 ret	 8
?Warp@CPythonBackground@@QAEXKK@Z ENDP			; CPythonBackground::Warp
_TEXT	ENDS
; Function compile flags: /Ogtp
; File D:\Metin2 Server Files\mainline\SRC_2014\Metin2Client\UserInterface\PythonBackground.cpp
;	COMDAT ?DeleteSpecialEffect@CPythonBackground@@QAEXK@Z
_TEXT	SEGMENT
_dwID$ = 8						; size = 4
?DeleteSpecialEffect@CPythonBackground@@QAEXK@Z PROC	; CPythonBackground::DeleteSpecialEffect, COMDAT
; _this$ = ecx

; 918  : {

  00000	55		 push	 ebp
  00001	8b ec		 mov	 ebp, esp

; 919  : 	CMapOutdoor& rkMap=GetMapOutdoorRef();

  00003	e8 00 00 00 00	 call	 ?GetMapOutdoorRef@CMapManager@@QAEAAVCMapOutdoor@@XZ ; CMapManager::GetMapOutdoorRef

; 920  : 	rkMap.SpecialEffect_Delete(dwID);

  00008	8b c8		 mov	 ecx, eax

; 921  : }

  0000a	5d		 pop	 ebp

; 920  : 	rkMap.SpecialEffect_Delete(dwID);

  0000b	e9 00 00 00 00	 jmp	 ?SpecialEffect_Delete@CMapOutdoor@@QAEXK@Z ; CMapOutdoor::SpecialEffect_Delete
?DeleteSpecialEffect@CPythonBackground@@QAEXK@Z ENDP	; CPythonBackground::DeleteSpecialEffect
_TEXT	ENDS
; Function compile flags: /Ogtp
; File D:\Metin2 Server Files\mainline\SRC_2014\Metin2Client\UserInterface\PythonBackground.cpp
;	COMDAT ?CreateSpecialEffect@CPythonBackground@@QAEXKMMMPBD@Z
_TEXT	SEGMENT
_dwID$ = 8						; size = 4
_fx$ = 12						; size = 4
_fy$ = 16						; size = 4
_fz$ = 20						; size = 4
_c_szFileName$ = 24					; size = 4
?CreateSpecialEffect@CPythonBackground@@QAEXKMMMPBD@Z PROC ; CPythonBackground::CreateSpecialEffect, COMDAT
; _this$ = ecx

; 912  : {

  00000	55		 push	 ebp
  00001	8b ec		 mov	 ebp, esp

; 913  : 	CMapOutdoor& rkMap=GetMapOutdoorRef();

  00003	e8 00 00 00 00	 call	 ?GetMapOutdoorRef@CMapManager@@QAEAAVCMapOutdoor@@XZ ; CMapManager::GetMapOutdoorRef

; 914  : 	rkMap.SpecialEffect_Create(dwID, fx, fy, fz, c_szFileName);

  00008	ff 75 18	 push	 DWORD PTR _c_szFileName$[ebp]
  0000b	f3 0f 10 45 14	 movss	 xmm0, DWORD PTR _fz$[ebp]
  00010	8b c8		 mov	 ecx, eax
  00012	83 ec 0c	 sub	 esp, 12			; 0000000cH
  00015	f3 0f 11 44 24
	08		 movss	 DWORD PTR [esp+8], xmm0
  0001b	f3 0f 10 45 10	 movss	 xmm0, DWORD PTR _fy$[ebp]
  00020	f3 0f 11 44 24
	04		 movss	 DWORD PTR [esp+4], xmm0
  00026	f3 0f 10 45 0c	 movss	 xmm0, DWORD PTR _fx$[ebp]
  0002b	f3 0f 11 04 24	 movss	 DWORD PTR [esp], xmm0
  00030	ff 75 08	 push	 DWORD PTR _dwID$[ebp]
  00033	e8 00 00 00 00	 call	 ?SpecialEffect_Create@CMapOutdoor@@QAEXKMMMPBD@Z ; CMapOutdoor::SpecialEffect_Create

; 915  : }

  00038	5d		 pop	 ebp
  00039	c2 14 00	 ret	 20			; 00000014H
?CreateSpecialEffect@CPythonBackground@@QAEXKMMMPBD@Z ENDP ; CPythonBackground::CreateSpecialEffect
_TEXT	ENDS
; Function compile flags: /Ogtp
; File D:\Metin2 Server Files\mainline\SRC_2014\Metin2Client\UserInterface\PythonBackground.cpp
; File C:\Program Files (x86)\Microsoft Visual Studio\2019\Community\VC\Tools\MSVC\14.28.29333\include\xtree
; File D:\Metin2 Server Files\mainline\SRC_2014\Metin2Client\UserInterface\PythonBackground.cpp
; File C:\Program Files (x86)\Microsoft Visual Studio\2019\Community\VC\Tools\MSVC\14.28.29333\include\xtree
; File C:\Program Files (x86)\Microsoft Visual Studio\2019\Community\VC\Tools\MSVC\14.28.29333\include\xstddef
; File C:\Program Files (x86)\Microsoft Visual Studio\2019\Community\VC\Tools\MSVC\14.28.29333\include\xtree
; File D:\Metin2 Server Files\mainline\SRC_2014\Metin2Client\UserInterface\PythonBackground.cpp
; File C:\Program Files (x86)\Microsoft Visual Studio\2019\Community\VC\Tools\MSVC\14.28.29333\include\xtree
; File C:\Program Files (x86)\Microsoft Visual Studio\2019\Community\VC\Tools\MSVC\14.28.29333\include\xstddef
; File C:\Program Files (x86)\Microsoft Visual Studio\2019\Community\VC\Tools\MSVC\14.28.29333\include\xtree
; File C:\Program Files (x86)\Microsoft Visual Studio\2019\Community\VC\Tools\MSVC\14.28.29333\include\xstddef
; File C:\Program Files (x86)\Microsoft Visual Studio\2019\Community\VC\Tools\MSVC\14.28.29333\include\xtree
; File C:\Program Files (x86)\Microsoft Visual Studio\2019\Community\VC\Tools\MSVC\14.28.29333\include\xstddef
; File C:\Program Files (x86)\Microsoft Visual Studio\2019\Community\VC\Tools\MSVC\14.28.29333\include\xtree
; File C:\Program Files (x86)\Microsoft Visual Studio\2019\Community\VC\Tools\MSVC\14.28.29333\include\xutility
; File C:\Program Files (x86)\Microsoft Visual Studio\2019\Community\VC\Tools\MSVC\14.28.29333\include\xtree
; File C:\Program Files (x86)\Microsoft Visual Studio\2019\Community\VC\Tools\MSVC\14.28.29333\include\xutility
; File C:\Program Files (x86)\Microsoft Visual Studio\2019\Community\VC\Tools\MSVC\14.28.29333\include\xtree
; File C:\Program Files (x86)\Microsoft Visual Studio\2019\Community\VC\Tools\MSVC\14.28.29333\include\xutility
; File C:\Program Files (x86)\Microsoft Visual Studio\2019\Community\VC\Tools\MSVC\14.28.29333\include\xtree
; File C:\Program Files (x86)\Microsoft Visual Studio\2019\Community\VC\Tools\MSVC\14.28.29333\include\xmemory
; File C:\Program Files (x86)\Microsoft Visual Studio\2019\Community\VC\Tools\MSVC\14.28.29333\include\xtree
; File C:\Program Files (x86)\Microsoft Visual Studio\2019\Community\VC\Tools\MSVC\14.28.29333\include\xmemory
; File C:\Program Files (x86)\Microsoft Visual Studio\2019\Community\VC\Tools\MSVC\14.28.29333\include\xtree
; File D:\Metin2 Server Files\mainline\SRC_2014\Metin2Client\UserInterface\PythonBackground.cpp
; File C:\Program Files (x86)\Microsoft Visual Studio\2019\Community\VC\Tools\MSVC\14.28.29333\include\xtree
; File D:\Metin2 Server Files\mainline\SRC_2014\Metin2Client\UserInterface\PythonBackground.cpp
; File C:\Program Files (x86)\Microsoft Visual Studio\2019\Community\VC\Tools\MSVC\14.28.29333\include\xtree
; File D:\Metin2 Server Files\mainline\SRC_2014\Metin2Client\UserInterface\PythonBackground.cpp
; File C:\Program Files (x86)\Microsoft Visual Studio\2019\Community\VC\Tools\MSVC\14.28.29333\include\xtree
; File C:\Program Files (x86)\Microsoft Visual Studio\2019\Community\VC\Tools\MSVC\14.28.29333\include\xstddef
; File C:\Program Files (x86)\Microsoft Visual Studio\2019\Community\VC\Tools\MSVC\14.28.29333\include\xtree
; File D:\Metin2 Server Files\mainline\SRC_2014\Metin2Client\UserInterface\PythonBackground.cpp
; File C:\Program Files (x86)\Microsoft Visual Studio\2019\Community\VC\Tools\MSVC\14.28.29333\include\xtree
; File C:\Program Files (x86)\Microsoft Visual Studio\2019\Community\VC\Tools\MSVC\14.28.29333\include\xstddef
; File C:\Program Files (x86)\Microsoft Visual Studio\2019\Community\VC\Tools\MSVC\14.28.29333\include\xtree
; File C:\Program Files (x86)\Microsoft Visual Studio\2019\Community\VC\Tools\MSVC\14.28.29333\include\xstddef
; File C:\Program Files (x86)\Microsoft Visual Studio\2019\Community\VC\Tools\MSVC\14.28.29333\include\xtree
; File C:\Program Files (x86)\Microsoft Visual Studio\2019\Community\VC\Tools\MSVC\14.28.29333\include\xstddef
; File C:\Program Files (x86)\Microsoft Visual Studio\2019\Community\VC\Tools\MSVC\14.28.29333\include\xtree
; File C:\Program Files (x86)\Microsoft Visual Studio\2019\Community\VC\Tools\MSVC\14.28.29333\include\xutility
; File C:\Program Files (x86)\Microsoft Visual Studio\2019\Community\VC\Tools\MSVC\14.28.29333\include\xtree
; File C:\Program Files (x86)\Microsoft Visual Studio\2019\Community\VC\Tools\MSVC\14.28.29333\include\xutility
; File C:\Program Files (x86)\Microsoft Visual Studio\2019\Community\VC\Tools\MSVC\14.28.29333\include\xtree
; File C:\Program Files (x86)\Microsoft Visual Studio\2019\Community\VC\Tools\MSVC\14.28.29333\include\xutility
; File C:\Program Files (x86)\Microsoft Visual Studio\2019\Community\VC\Tools\MSVC\14.28.29333\include\xtree
; File D:\Metin2 Server Files\mainline\SRC_2014\Metin2Client\UserInterface\PythonBackground.cpp
; File C:\Program Files (x86)\Microsoft Visual Studio\2019\Community\VC\Tools\MSVC\14.28.29333\include\xtree
; File C:\Program Files (x86)\Microsoft Visual Studio\2019\Community\VC\Tools\MSVC\14.28.29333\include\xmemory
; File C:\Program Files (x86)\Microsoft Visual Studio\2019\Community\VC\Tools\MSVC\14.28.29333\include\xtree
; File C:\Program Files (x86)\Microsoft Visual Studio\2019\Community\VC\Tools\MSVC\14.28.29333\include\xmemory
; File C:\Program Files (x86)\Microsoft Visual Studio\2019\Community\VC\Tools\MSVC\14.28.29333\include\xtree
; File D:\Metin2 Server Files\mainline\SRC_2014\Metin2Client\UserInterface\PythonBackground.cpp
;	COMDAT ?DeleteTargetEffect@CPythonBackground@@QAEXK@Z
_TEXT	SEGMENT
__Loc$1 = -24						; size = 12
__Loc$2 = -24						; size = 12
_this$1$ = -12						; size = 4
_this$1$ = -8						; size = 4
__First$ = -8						; size = 4
_this$1$ = -4						; size = 4
__First$ = -4						; size = 4
_dwID$ = 8						; size = 4
?DeleteTargetEffect@CPythonBackground@@QAEXK@Z PROC	; CPythonBackground::DeleteTargetEffect, COMDAT
; _this$ = ecx

; 898  : {

  00000	55		 push	 ebp
  00001	8b ec		 mov	 ebp, esp
  00003	83 ec 18	 sub	 esp, 24			; 00000018H
  00006	8b c1		 mov	 eax, ecx
  00008	53		 push	 ebx
  00009	56		 push	 esi
  0000a	89 45 f4	 mov	 DWORD PTR _this$1$[ebp], eax

; 899  : 	if (m_kMap_dwID_kReserveTargetEffect.end() != m_kMap_dwID_kReserveTargetEffect.find(dwID))

  0000d	8d b0 00 16 00
	00		 lea	 esi, DWORD PTR [eax+5632]
  00013	57		 push	 edi
; File C:\Program Files (x86)\Microsoft Visual Studio\2019\Community\VC\Tools\MSVC\14.28.29333\include\xtree

; 1458 :         const _Tree_find_result<_Nodeptr> _Loc = _Find_lower_bound(_Keyval);

  00014	8d 45 08	 lea	 eax, DWORD PTR _dwID$[ebp]
; File D:\Metin2 Server Files\mainline\SRC_2014\Metin2Client\UserInterface\PythonBackground.cpp

; 899  : 	if (m_kMap_dwID_kReserveTargetEffect.end() != m_kMap_dwID_kReserveTargetEffect.find(dwID))

  00017	89 75 fc	 mov	 DWORD PTR _this$1$[ebp], esi
; File C:\Program Files (x86)\Microsoft Visual Studio\2019\Community\VC\Tools\MSVC\14.28.29333\include\xtree

; 1458 :         const _Tree_find_result<_Nodeptr> _Loc = _Find_lower_bound(_Keyval);

  0001a	50		 push	 eax
  0001b	8d 45 e8	 lea	 eax, DWORD PTR __Loc$2[ebp]
  0001e	8b ce		 mov	 ecx, esi
  00020	50		 push	 eax
  00021	e8 00 00 00 00	 call	 ??$_Find_lower_bound@K@?$_Tree@V?$_Tmap_traits@KUSReserveTargetEffect@CPythonBackground@@U?$less@K@std@@V?$allocator@U?$pair@$$CBKUSReserveTargetEffect@CPythonBackground@@@std@@@4@$0A@@std@@@std@@IBE?AU?$_Tree_find_result@PAU?$_Tree_node@U?$pair@$$CBKUSReserveTargetEffect@CPythonBackground@@@std@@PAX@std@@@1@ABK@Z ; std::_Tree<std::_Tmap_traits<unsigned long,CPythonBackground::SReserveTargetEffect,std::less<unsigned long>,std::allocator<std::pair<unsigned long const ,CPythonBackground::SReserveTargetEffect> >,0> >::_Find_lower_bound<unsigned long>

; 1695 :         return !_Bound->_Isnil && !_DEBUG_LT_PRED(_Getcomp(), _Keyval, _Traits::_Kfn(_Bound->_Myval));

  00026	8b 45 f0	 mov	 eax, DWORD PTR __Loc$2[ebp+8]
  00029	8b 5d 08	 mov	 ebx, DWORD PTR _dwID$[ebp]
  0002c	80 78 0d 00	 cmp	 BYTE PTR [eax+13], 0
  00030	0f 85 ef 00 00
	00		 jne	 $LN82@DeleteTarg
; File C:\Program Files (x86)\Microsoft Visual Studio\2019\Community\VC\Tools\MSVC\14.28.29333\include\xstddef

; 127  :         return _Left < _Right;

  00036	3b 58 10	 cmp	 ebx, DWORD PTR [eax+16]
; File C:\Program Files (x86)\Microsoft Visual Studio\2019\Community\VC\Tools\MSVC\14.28.29333\include\xtree

; 1695 :         return !_Bound->_Isnil && !_DEBUG_LT_PRED(_Getcomp(), _Keyval, _Traits::_Kfn(_Bound->_Myval));

  00039	0f 82 e6 00 00
	00		 jb	 $LN82@DeleteTarg

; 1460 :             return _Loc._Bound;

  0003f	8b 36		 mov	 esi, DWORD PTR [esi]

; 39   :     _Tree_unchecked_const_iterator(_Nodeptr _Pnode, const _Mytree* _Plist) noexcept : _Ptr(_Pnode) {

  00041	3b f0		 cmp	 esi, eax
; File D:\Metin2 Server Files\mainline\SRC_2014\Metin2Client\UserInterface\PythonBackground.cpp

; 899  : 	if (m_kMap_dwID_kReserveTargetEffect.end() != m_kMap_dwID_kReserveTargetEffect.find(dwID))

  00043	0f 84 dc 00 00
	00		 je	 $LN82@DeleteTarg
; File C:\Program Files (x86)\Microsoft Visual Studio\2019\Community\VC\Tools\MSVC\14.28.29333\include\xtree

; 1787 :         _Nodeptr _Pnode   = _Scary->_Myhead->_Parent;

  00049	8b 46 04	 mov	 eax, DWORD PTR [esi+4]

; 1788 :         _Nodeptr _Lonode  = _Scary->_Myhead; // end() if search fails
; 1789 :         _Nodeptr _Hinode  = _Scary->_Myhead; // end() if search fails

  0004c	8b fe		 mov	 edi, esi
  0004e	8b c8		 mov	 ecx, eax

; 1790 : 
; 1791 :         while (!_Pnode->_Isnil) {

  00050	80 79 0d 00	 cmp	 BYTE PTR [ecx+13], 0
  00054	75 21		 jne	 SHORT $LN38@DeleteTarg
$LL37@DeleteTarg:
; File C:\Program Files (x86)\Microsoft Visual Studio\2019\Community\VC\Tools\MSVC\14.28.29333\include\xstddef

; 127  :         return _Left < _Right;

  00056	8b 51 10	 mov	 edx, DWORD PTR [ecx+16]
  00059	3b d3		 cmp	 edx, ebx
; File C:\Program Files (x86)\Microsoft Visual Studio\2019\Community\VC\Tools\MSVC\14.28.29333\include\xtree

; 1793 :             if (_DEBUG_LT_PRED(_Comp, _Nodekey, _Keyval)) {

  0005b	73 05		 jae	 SHORT $LN41@DeleteTarg

; 1794 :                 _Pnode = _Pnode->_Right; // descend right subtree

  0005d	8b 49 08	 mov	 ecx, DWORD PTR [ecx+8]

; 1795 :             } else { // _Pnode not less than _Keyval, remember it

  00060	eb 0f		 jmp	 SHORT $LN42@DeleteTarg
$LN41@DeleteTarg:

; 1796 :                 if (_Hinode->_Isnil && _DEBUG_LT_PRED(_Comp, _Keyval, _Nodekey)) {

  00062	80 7f 0d 00	 cmp	 BYTE PTR [edi+13], 0
  00066	74 05		 je	 SHORT $LN43@DeleteTarg
; File C:\Program Files (x86)\Microsoft Visual Studio\2019\Community\VC\Tools\MSVC\14.28.29333\include\xstddef

; 127  :         return _Left < _Right;

  00068	3b da		 cmp	 ebx, edx
; File C:\Program Files (x86)\Microsoft Visual Studio\2019\Community\VC\Tools\MSVC\14.28.29333\include\xtree

; 1796 :                 if (_Hinode->_Isnil && _DEBUG_LT_PRED(_Comp, _Keyval, _Nodekey)) {

  0006a	0f 42 f9	 cmovb	 edi, ecx
$LN43@DeleteTarg:

; 1797 :                     _Hinode = _Pnode; // _Pnode greater, remember it
; 1798 :                 }
; 1799 : 
; 1800 :                 _Lonode = _Pnode;

  0006d	8b f1		 mov	 esi, ecx

; 1801 :                 _Pnode  = _Pnode->_Left; // descend left subtree

  0006f	8b 09		 mov	 ecx, DWORD PTR [ecx]
$LN42@DeleteTarg:

; 1790 : 
; 1791 :         while (!_Pnode->_Isnil) {

  00071	80 79 0d 00	 cmp	 BYTE PTR [ecx+13], 0
  00075	74 df		 je	 SHORT $LL37@DeleteTarg
$LN38@DeleteTarg:

; 1802 :             }
; 1803 :         }
; 1804 : 
; 1805 :         _Pnode = _Hinode->_Isnil ? _Scary->_Myhead->_Parent : _Hinode->_Left; // continue scan for upper bound

  00077	80 7f 0d 00	 cmp	 BYTE PTR [edi+13], 0
  0007b	75 02		 jne	 SHORT $LN48@DeleteTarg
  0007d	8b 07		 mov	 eax, DWORD PTR [edi]
$LN48@DeleteTarg:

; 1806 :         while (!_Pnode->_Isnil) {

  0007f	80 78 0d 00	 cmp	 BYTE PTR [eax+13], 0
  00083	75 14		 jne	 SHORT $LN40@DeleteTarg
$LL39@DeleteTarg:
; File C:\Program Files (x86)\Microsoft Visual Studio\2019\Community\VC\Tools\MSVC\14.28.29333\include\xstddef

; 127  :         return _Left < _Right;

  00085	3b 58 10	 cmp	 ebx, DWORD PTR [eax+16]
; File C:\Program Files (x86)\Microsoft Visual Studio\2019\Community\VC\Tools\MSVC\14.28.29333\include\xtree

; 1807 :             if (_DEBUG_LT_PRED(_Getcomp(), _Keyval, _Traits::_Kfn(_Pnode->_Myval))) {

  00088	73 06		 jae	 SHORT $LN44@DeleteTarg

; 1808 :                 // _Pnode greater than _Keyval, remember it
; 1809 :                 _Hinode = _Pnode;

  0008a	8b f8		 mov	 edi, eax

; 1810 :                 _Pnode  = _Pnode->_Left; // descend left subtree

  0008c	8b 00		 mov	 eax, DWORD PTR [eax]

; 1811 :             } else {

  0008e	eb 03		 jmp	 SHORT $LN45@DeleteTarg
$LN44@DeleteTarg:

; 1812 :                 _Pnode = _Pnode->_Right; // descend right subtree

  00090	8b 40 08	 mov	 eax, DWORD PTR [eax+8]
$LN45@DeleteTarg:

; 1806 :         while (!_Pnode->_Isnil) {

  00093	80 78 0d 00	 cmp	 BYTE PTR [eax+13], 0
  00097	74 ec		 je	 SHORT $LL39@DeleteTarg
$LN40@DeleteTarg:
; File C:\Program Files (x86)\Microsoft Visual Studio\2019\Community\VC\Tools\MSVC\14.28.29333\include\xutility

; 1797 :         auto _UFirst             = _Get_unwrapped(_First);

  00099	8b c6		 mov	 eax, esi
; File C:\Program Files (x86)\Microsoft Visual Studio\2019\Community\VC\Tools\MSVC\14.28.29333\include\xtree

; 98   :         return _Ptr == _Right._Ptr;

  0009b	3b f7		 cmp	 esi, edi
; File C:\Program Files (x86)\Microsoft Visual Studio\2019\Community\VC\Tools\MSVC\14.28.29333\include\xutility

; 1800 :         for (; _UFirst != _ULast; ++_UFirst) {

  0009d	74 41		 je	 SHORT $LN63@DeleteTarg
  0009f	90		 npad	 1
$LL70@DeleteTarg:
; File C:\Program Files (x86)\Microsoft Visual Studio\2019\Community\VC\Tools\MSVC\14.28.29333\include\xtree

; 52   :         if (_Ptr->_Right->_Isnil) { // climb looking for right subtree

  000a0	8b 48 08	 mov	 ecx, DWORD PTR [eax+8]
  000a3	80 79 0d 00	 cmp	 BYTE PTR [ecx+13], 0
  000a7	74 1d		 je	 SHORT $LN69@DeleteTarg

; 53   :             _Nodeptr _Pnode;
; 54   :             while (!(_Pnode = _Ptr->_Parent)->_Isnil && _Ptr == _Pnode->_Right) {

  000a9	8b 48 04	 mov	 ecx, DWORD PTR [eax+4]
  000ac	80 79 0d 00	 cmp	 BYTE PTR [ecx+13], 0
  000b0	75 10		 jne	 SHORT $LN255@DeleteTarg
$LL67@DeleteTarg:
  000b2	3b 41 08	 cmp	 eax, DWORD PTR [ecx+8]
  000b5	75 0b		 jne	 SHORT $LN255@DeleteTarg

; 55   :                 _Ptr = _Pnode; // ==> parent while right subtree

  000b7	8b c1		 mov	 eax, ecx
  000b9	8b 49 04	 mov	 ecx, DWORD PTR [ecx+4]
  000bc	80 79 0d 00	 cmp	 BYTE PTR [ecx+13], 0
  000c0	74 f0		 je	 SHORT $LL67@DeleteTarg
$LN255@DeleteTarg:

; 56   :             }
; 57   : 
; 58   :             _Ptr = _Pnode; // ==> parent (head if end())

  000c2	8b c1		 mov	 eax, ecx

; 59   :         } else {

  000c4	eb 16		 jmp	 SHORT $LN74@DeleteTarg
$LN69@DeleteTarg:

; 60   :             _Ptr = _Mytree::_Min(_Ptr->_Right); // ==> smallest of right subtree

  000c6	8b c1		 mov	 eax, ecx

; 451  :         while (!_Pnode->_Left->_Isnil) {

  000c8	8b 10		 mov	 edx, DWORD PTR [eax]
  000ca	80 7a 0d 00	 cmp	 BYTE PTR [edx+13], 0
  000ce	75 0c		 jne	 SHORT $LN74@DeleteTarg
$LL73@DeleteTarg:
  000d0	8b 0a		 mov	 ecx, DWORD PTR [edx]

; 452  :             _Pnode = _Pnode->_Left;

  000d2	8b c2		 mov	 eax, edx
  000d4	8b d1		 mov	 edx, ecx
  000d6	80 79 0d 00	 cmp	 BYTE PTR [ecx+13], 0
  000da	74 f4		 je	 SHORT $LL73@DeleteTarg
$LN74@DeleteTarg:

; 98   :         return _Ptr == _Right._Ptr;

  000dc	3b c7		 cmp	 eax, edi
; File C:\Program Files (x86)\Microsoft Visual Studio\2019\Community\VC\Tools\MSVC\14.28.29333\include\xutility

; 1800 :         for (; _UFirst != _ULast; ++_UFirst) {

  000de	75 c0		 jne	 SHORT $LL70@DeleteTarg
$LN63@DeleteTarg:
; File C:\Program Files (x86)\Microsoft Visual Studio\2019\Community\VC\Tools\MSVC\14.28.29333\include\xtree

; 1259 :         return _Unchecked_iterator(_Get_scary()->_Myhead->_Left, nullptr);

  000e0	8b 4d fc	 mov	 ecx, DWORD PTR _this$1$[ebp]

; 1440 :         _Erase_unchecked(_First, _Last);

  000e3	89 75 f8	 mov	 DWORD PTR __First$[ebp], esi

; 1259 :         return _Unchecked_iterator(_Get_scary()->_Myhead->_Left, nullptr);

  000e6	8b 01		 mov	 eax, DWORD PTR [ecx]

; 98   :         return _Ptr == _Right._Ptr;

  000e8	3b 30		 cmp	 esi, DWORD PTR [eax]

; 1397 :         if (_First == _Begin && _Last._Ptr->_Isnil) {

  000ea	75 0d		 jne	 SHORT $LN214@DeleteTarg
  000ec	80 7f 0d 00	 cmp	 BYTE PTR [edi+13], 0
  000f0	74 07		 je	 SHORT $LN214@DeleteTarg

; 1398 :             // erase all
; 1399 :             clear();

  000f2	e8 00 00 00 00	 call	 ?clear@?$_Tree@V?$_Tmap_traits@KUSReserveTargetEffect@CPythonBackground@@U?$less@K@std@@V?$allocator@U?$pair@$$CBKUSReserveTargetEffect@CPythonBackground@@@std@@@4@$0A@@std@@@std@@QAEXXZ ; std::_Tree<std::_Tmap_traits<unsigned long,CPythonBackground::SReserveTargetEffect,std::less<unsigned long>,std::allocator<std::pair<unsigned long const ,CPythonBackground::SReserveTargetEffect> >,0> >::clear

; 1400 :             return _Last._Ptr;

  000f7	eb 2c		 jmp	 SHORT $LN82@DeleteTarg
$LN214@DeleteTarg:

; 98   :         return _Ptr == _Right._Ptr;

  000f9	3b f7		 cmp	 esi, edi

; 1404 :         while (_First != _Last) {

  000fb	74 28		 je	 SHORT $LN82@DeleteTarg
  000fd	8b d9		 mov	 ebx, ecx
  000ff	90		 npad	 1
$LL81@DeleteTarg:

; 68   :         ++*this;

  00100	8d 4d f8	 lea	 ecx, DWORD PTR __First$[ebp]
  00103	e8 00 00 00 00	 call	 ??E?$_Tree_unchecked_const_iterator@V?$_Tree_val@U?$_Tree_simple_types@U?$pair@$$CBKUSReserveTargetEffect@CPythonBackground@@@std@@@std@@@std@@U_Iterator_base0@2@@std@@QAEAAV01@XZ ; std::_Tree_unchecked_const_iterator<std::_Tree_val<std::_Tree_simple_types<std::pair<unsigned long const ,CPythonBackground::SReserveTargetEffect> > >,std::_Iterator_base0>::operator++

; 1389 :         _Nodeptr _Erasednode = _Scary->_Extract(_Where); // node to erase

  00108	56		 push	 esi
  00109	8b cb		 mov	 ecx, ebx
  0010b	e8 00 00 00 00	 call	 ?_Extract@?$_Tree_val@U?$_Tree_simple_types@U?$pair@$$CBKUSReserveTargetEffect@CPythonBackground@@@std@@@std@@@std@@QAEPAU?$_Tree_node@U?$pair@$$CBKUSReserveTargetEffect@CPythonBackground@@@std@@PAX@2@V?$_Tree_unchecked_const_iterator@V?$_Tree_val@U?$_Tree_simple_types@U?$pair@$$CBKUSReserveTargetEffect@CPythonBackground@@@std@@@std@@@std@@U_Iterator_base0@2@@2@@Z ; std::_Tree_val<std::_Tree_simple_types<std::pair<unsigned long const ,CPythonBackground::SReserveTargetEffect> > >::_Extract
; File C:\Program Files (x86)\Microsoft Visual Studio\2019\Community\VC\Tools\MSVC\14.28.29333\include\xmemory

; 696  :         _Deallocate<_New_alignof<value_type>>(_Ptr, sizeof(value_type) * _Count);

  00110	6a 1c		 push	 28			; 0000001cH
  00112	50		 push	 eax
  00113	e8 00 00 00 00	 call	 ??$_Deallocate@$07$0A@@std@@YAXPAXI@Z ; std::_Deallocate<8,0>
; File C:\Program Files (x86)\Microsoft Visual Studio\2019\Community\VC\Tools\MSVC\14.28.29333\include\xtree

; 98   :         return _Ptr == _Right._Ptr;

  00118	8b 75 f8	 mov	 esi, DWORD PTR __First$[ebp]
; File C:\Program Files (x86)\Microsoft Visual Studio\2019\Community\VC\Tools\MSVC\14.28.29333\include\xmemory

; 696  :         _Deallocate<_New_alignof<value_type>>(_Ptr, sizeof(value_type) * _Count);

  0011b	83 c4 08	 add	 esp, 8
; File C:\Program Files (x86)\Microsoft Visual Studio\2019\Community\VC\Tools\MSVC\14.28.29333\include\xtree

; 98   :         return _Ptr == _Right._Ptr;

  0011e	3b f7		 cmp	 esi, edi

; 1404 :         while (_First != _Last) {

  00120	75 de		 jne	 SHORT $LL81@DeleteTarg
  00122	8b 5d 08	 mov	 ebx, DWORD PTR _dwID$[ebp]
$LN82@DeleteTarg:
; File D:\Metin2 Server Files\mainline\SRC_2014\Metin2Client\UserInterface\PythonBackground.cpp

; 903  : 	if (m_kMap_dwTargetID_dwChrID.end() != m_kMap_dwTargetID_dwChrID.find(dwID))

  00125	8b 75 f4	 mov	 esi, DWORD PTR _this$1$[ebp]
; File C:\Program Files (x86)\Microsoft Visual Studio\2019\Community\VC\Tools\MSVC\14.28.29333\include\xtree

; 1458 :         const _Tree_find_result<_Nodeptr> _Loc = _Find_lower_bound(_Keyval);

  00128	8d 45 08	 lea	 eax, DWORD PTR _dwID$[ebp]
  0012b	50		 push	 eax
; File D:\Metin2 Server Files\mainline\SRC_2014\Metin2Client\UserInterface\PythonBackground.cpp

; 903  : 	if (m_kMap_dwTargetID_dwChrID.end() != m_kMap_dwTargetID_dwChrID.find(dwID))

  0012c	81 c6 f8 15 00
	00		 add	 esi, 5624		; 000015f8H
; File C:\Program Files (x86)\Microsoft Visual Studio\2019\Community\VC\Tools\MSVC\14.28.29333\include\xtree

; 1458 :         const _Tree_find_result<_Nodeptr> _Loc = _Find_lower_bound(_Keyval);

  00132	8d 45 e8	 lea	 eax, DWORD PTR __Loc$1[ebp]
  00135	50		 push	 eax
  00136	8b ce		 mov	 ecx, esi
; File D:\Metin2 Server Files\mainline\SRC_2014\Metin2Client\UserInterface\PythonBackground.cpp

; 903  : 	if (m_kMap_dwTargetID_dwChrID.end() != m_kMap_dwTargetID_dwChrID.find(dwID))

  00138	89 75 f8	 mov	 DWORD PTR _this$1$[ebp], esi
; File C:\Program Files (x86)\Microsoft Visual Studio\2019\Community\VC\Tools\MSVC\14.28.29333\include\xtree

; 1458 :         const _Tree_find_result<_Nodeptr> _Loc = _Find_lower_bound(_Keyval);

  0013b	e8 00 00 00 00	 call	 ??$_Find_lower_bound@K@?$_Tree@V?$_Tmap_traits@KKU?$less@K@std@@V?$allocator@U?$pair@$$CBKK@std@@@2@$0A@@std@@@std@@IBE?AU?$_Tree_find_result@PAU?$_Tree_node@U?$pair@$$CBKK@std@@PAX@std@@@1@ABK@Z ; std::_Tree<std::_Tmap_traits<unsigned long,unsigned long,std::less<unsigned long>,std::allocator<std::pair<unsigned long const ,unsigned long> >,0> >::_Find_lower_bound<unsigned long>

; 1695 :         return !_Bound->_Isnil && !_DEBUG_LT_PRED(_Getcomp(), _Keyval, _Traits::_Kfn(_Bound->_Myval));

  00140	8b 45 f0	 mov	 eax, DWORD PTR __Loc$1[ebp+8]
  00143	80 78 0d 00	 cmp	 BYTE PTR [eax+13], 0
  00147	0f 85 08 01 00
	00		 jne	 $LN184@DeleteTarg
; File C:\Program Files (x86)\Microsoft Visual Studio\2019\Community\VC\Tools\MSVC\14.28.29333\include\xstddef

; 127  :         return _Left < _Right;

  0014d	3b 58 10	 cmp	 ebx, DWORD PTR [eax+16]
; File C:\Program Files (x86)\Microsoft Visual Studio\2019\Community\VC\Tools\MSVC\14.28.29333\include\xtree

; 1695 :         return !_Bound->_Isnil && !_DEBUG_LT_PRED(_Getcomp(), _Keyval, _Traits::_Kfn(_Bound->_Myval));

  00150	0f 82 ff 00 00
	00		 jb	 $LN184@DeleteTarg

; 1460 :             return _Loc._Bound;

  00156	8b 36		 mov	 esi, DWORD PTR [esi]

; 39   :     _Tree_unchecked_const_iterator(_Nodeptr _Pnode, const _Mytree* _Plist) noexcept : _Ptr(_Pnode) {

  00158	3b f0		 cmp	 esi, eax
; File D:\Metin2 Server Files\mainline\SRC_2014\Metin2Client\UserInterface\PythonBackground.cpp

; 903  : 	if (m_kMap_dwTargetID_dwChrID.end() != m_kMap_dwTargetID_dwChrID.find(dwID))

  0015a	0f 84 f5 00 00
	00		 je	 $LN184@DeleteTarg
; File C:\Program Files (x86)\Microsoft Visual Studio\2019\Community\VC\Tools\MSVC\14.28.29333\include\xtree

; 1787 :         _Nodeptr _Pnode   = _Scary->_Myhead->_Parent;

  00160	8b 46 04	 mov	 eax, DWORD PTR [esi+4]

; 1788 :         _Nodeptr _Lonode  = _Scary->_Myhead; // end() if search fails
; 1789 :         _Nodeptr _Hinode  = _Scary->_Myhead; // end() if search fails

  00163	8b fe		 mov	 edi, esi
  00165	8b c8		 mov	 ecx, eax

; 1790 : 
; 1791 :         while (!_Pnode->_Isnil) {

  00167	80 79 0d 00	 cmp	 BYTE PTR [ecx+13], 0
  0016b	75 24		 jne	 SHORT $LN140@DeleteTarg
  0016d	0f 1f 00	 npad	 3
$LL139@DeleteTarg:
; File C:\Program Files (x86)\Microsoft Visual Studio\2019\Community\VC\Tools\MSVC\14.28.29333\include\xstddef

; 127  :         return _Left < _Right;

  00170	8b 51 10	 mov	 edx, DWORD PTR [ecx+16]
  00173	3b d3		 cmp	 edx, ebx
; File C:\Program Files (x86)\Microsoft Visual Studio\2019\Community\VC\Tools\MSVC\14.28.29333\include\xtree

; 1793 :             if (_DEBUG_LT_PRED(_Comp, _Nodekey, _Keyval)) {

  00175	73 05		 jae	 SHORT $LN143@DeleteTarg

; 1794 :                 _Pnode = _Pnode->_Right; // descend right subtree

  00177	8b 49 08	 mov	 ecx, DWORD PTR [ecx+8]

; 1795 :             } else { // _Pnode not less than _Keyval, remember it

  0017a	eb 0f		 jmp	 SHORT $LN144@DeleteTarg
$LN143@DeleteTarg:

; 1796 :                 if (_Hinode->_Isnil && _DEBUG_LT_PRED(_Comp, _Keyval, _Nodekey)) {

  0017c	80 7f 0d 00	 cmp	 BYTE PTR [edi+13], 0
  00180	74 05		 je	 SHORT $LN145@DeleteTarg
; File C:\Program Files (x86)\Microsoft Visual Studio\2019\Community\VC\Tools\MSVC\14.28.29333\include\xstddef

; 127  :         return _Left < _Right;

  00182	3b da		 cmp	 ebx, edx
; File C:\Program Files (x86)\Microsoft Visual Studio\2019\Community\VC\Tools\MSVC\14.28.29333\include\xtree

; 1796 :                 if (_Hinode->_Isnil && _DEBUG_LT_PRED(_Comp, _Keyval, _Nodekey)) {

  00184	0f 42 f9	 cmovb	 edi, ecx
$LN145@DeleteTarg:

; 1797 :                     _Hinode = _Pnode; // _Pnode greater, remember it
; 1798 :                 }
; 1799 : 
; 1800 :                 _Lonode = _Pnode;

  00187	8b f1		 mov	 esi, ecx

; 1801 :                 _Pnode  = _Pnode->_Left; // descend left subtree

  00189	8b 09		 mov	 ecx, DWORD PTR [ecx]
$LN144@DeleteTarg:

; 1790 : 
; 1791 :         while (!_Pnode->_Isnil) {

  0018b	80 79 0d 00	 cmp	 BYTE PTR [ecx+13], 0
  0018f	74 df		 je	 SHORT $LL139@DeleteTarg
$LN140@DeleteTarg:

; 1802 :             }
; 1803 :         }
; 1804 : 
; 1805 :         _Pnode = _Hinode->_Isnil ? _Scary->_Myhead->_Parent : _Hinode->_Left; // continue scan for upper bound

  00191	80 7f 0d 00	 cmp	 BYTE PTR [edi+13], 0
  00195	75 02		 jne	 SHORT $LN150@DeleteTarg
  00197	8b 07		 mov	 eax, DWORD PTR [edi]
$LN150@DeleteTarg:

; 1806 :         while (!_Pnode->_Isnil) {

  00199	80 78 0d 00	 cmp	 BYTE PTR [eax+13], 0
  0019d	75 15		 jne	 SHORT $LN142@DeleteTarg
  0019f	90		 npad	 1
$LL141@DeleteTarg:
; File C:\Program Files (x86)\Microsoft Visual Studio\2019\Community\VC\Tools\MSVC\14.28.29333\include\xstddef

; 127  :         return _Left < _Right;

  001a0	3b 58 10	 cmp	 ebx, DWORD PTR [eax+16]
; File C:\Program Files (x86)\Microsoft Visual Studio\2019\Community\VC\Tools\MSVC\14.28.29333\include\xtree

; 1807 :             if (_DEBUG_LT_PRED(_Getcomp(), _Keyval, _Traits::_Kfn(_Pnode->_Myval))) {

  001a3	73 06		 jae	 SHORT $LN146@DeleteTarg

; 1808 :                 // _Pnode greater than _Keyval, remember it
; 1809 :                 _Hinode = _Pnode;

  001a5	8b f8		 mov	 edi, eax

; 1810 :                 _Pnode  = _Pnode->_Left; // descend left subtree

  001a7	8b 00		 mov	 eax, DWORD PTR [eax]

; 1811 :             } else {

  001a9	eb 03		 jmp	 SHORT $LN147@DeleteTarg
$LN146@DeleteTarg:

; 1812 :                 _Pnode = _Pnode->_Right; // descend right subtree

  001ab	8b 40 08	 mov	 eax, DWORD PTR [eax+8]
$LN147@DeleteTarg:

; 1806 :         while (!_Pnode->_Isnil) {

  001ae	80 78 0d 00	 cmp	 BYTE PTR [eax+13], 0
  001b2	74 ec		 je	 SHORT $LL141@DeleteTarg
$LN142@DeleteTarg:
; File C:\Program Files (x86)\Microsoft Visual Studio\2019\Community\VC\Tools\MSVC\14.28.29333\include\xutility

; 1797 :         auto _UFirst             = _Get_unwrapped(_First);

  001b4	8b c6		 mov	 eax, esi
; File C:\Program Files (x86)\Microsoft Visual Studio\2019\Community\VC\Tools\MSVC\14.28.29333\include\xtree

; 98   :         return _Ptr == _Right._Ptr;

  001b6	3b f7		 cmp	 esi, edi
; File C:\Program Files (x86)\Microsoft Visual Studio\2019\Community\VC\Tools\MSVC\14.28.29333\include\xutility

; 1800 :         for (; _UFirst != _ULast; ++_UFirst) {

  001b8	74 46		 je	 SHORT $LN165@DeleteTarg
  001ba	66 0f 1f 44 00
	00		 npad	 6
$LL172@DeleteTarg:
; File C:\Program Files (x86)\Microsoft Visual Studio\2019\Community\VC\Tools\MSVC\14.28.29333\include\xtree

; 52   :         if (_Ptr->_Right->_Isnil) { // climb looking for right subtree

  001c0	8b 48 08	 mov	 ecx, DWORD PTR [eax+8]
  001c3	80 79 0d 00	 cmp	 BYTE PTR [ecx+13], 0
  001c7	74 1d		 je	 SHORT $LN171@DeleteTarg

; 53   :             _Nodeptr _Pnode;
; 54   :             while (!(_Pnode = _Ptr->_Parent)->_Isnil && _Ptr == _Pnode->_Right) {

  001c9	8b 48 04	 mov	 ecx, DWORD PTR [eax+4]
  001cc	80 79 0d 00	 cmp	 BYTE PTR [ecx+13], 0
  001d0	75 10		 jne	 SHORT $LN256@DeleteTarg
$LL169@DeleteTarg:
  001d2	3b 41 08	 cmp	 eax, DWORD PTR [ecx+8]
  001d5	75 0b		 jne	 SHORT $LN256@DeleteTarg

; 55   :                 _Ptr = _Pnode; // ==> parent while right subtree

  001d7	8b c1		 mov	 eax, ecx
  001d9	8b 49 04	 mov	 ecx, DWORD PTR [ecx+4]
  001dc	80 79 0d 00	 cmp	 BYTE PTR [ecx+13], 0
  001e0	74 f0		 je	 SHORT $LL169@DeleteTarg
$LN256@DeleteTarg:

; 56   :             }
; 57   : 
; 58   :             _Ptr = _Pnode; // ==> parent (head if end())

  001e2	8b c1		 mov	 eax, ecx

; 59   :         } else {

  001e4	eb 16		 jmp	 SHORT $LN176@DeleteTarg
$LN171@DeleteTarg:

; 60   :             _Ptr = _Mytree::_Min(_Ptr->_Right); // ==> smallest of right subtree

  001e6	8b c1		 mov	 eax, ecx

; 451  :         while (!_Pnode->_Left->_Isnil) {

  001e8	8b 10		 mov	 edx, DWORD PTR [eax]
  001ea	80 7a 0d 00	 cmp	 BYTE PTR [edx+13], 0
  001ee	75 0c		 jne	 SHORT $LN176@DeleteTarg
$LL175@DeleteTarg:
  001f0	8b 0a		 mov	 ecx, DWORD PTR [edx]

; 452  :             _Pnode = _Pnode->_Left;

  001f2	8b c2		 mov	 eax, edx
  001f4	8b d1		 mov	 edx, ecx
  001f6	80 79 0d 00	 cmp	 BYTE PTR [ecx+13], 0
  001fa	74 f4		 je	 SHORT $LL175@DeleteTarg
$LN176@DeleteTarg:

; 98   :         return _Ptr == _Right._Ptr;

  001fc	3b c7		 cmp	 eax, edi
; File C:\Program Files (x86)\Microsoft Visual Studio\2019\Community\VC\Tools\MSVC\14.28.29333\include\xutility

; 1800 :         for (; _UFirst != _ULast; ++_UFirst) {

  001fe	75 c0		 jne	 SHORT $LL172@DeleteTarg
$LN165@DeleteTarg:
; File C:\Program Files (x86)\Microsoft Visual Studio\2019\Community\VC\Tools\MSVC\14.28.29333\include\xtree

; 1259 :         return _Unchecked_iterator(_Get_scary()->_Myhead->_Left, nullptr);

  00200	8b 4d f8	 mov	 ecx, DWORD PTR _this$1$[ebp]

; 1440 :         _Erase_unchecked(_First, _Last);

  00203	89 75 fc	 mov	 DWORD PTR __First$[ebp], esi

; 1259 :         return _Unchecked_iterator(_Get_scary()->_Myhead->_Left, nullptr);

  00206	8b 01		 mov	 eax, DWORD PTR [ecx]

; 98   :         return _Ptr == _Right._Ptr;

  00208	3b 30		 cmp	 esi, DWORD PTR [eax]

; 1397 :         if (_First == _Begin && _Last._Ptr->_Isnil) {

  0020a	75 1d		 jne	 SHORT $LN220@DeleteTarg
  0020c	80 7f 0d 00	 cmp	 BYTE PTR [edi+13], 0
  00210	74 17		 je	 SHORT $LN220@DeleteTarg

; 1398 :             // erase all
; 1399 :             clear();

  00212	e8 00 00 00 00	 call	 ?clear@?$_Tree@V?$_Tmap_traits@KKU?$less@K@std@@V?$allocator@U?$pair@$$CBKK@std@@@2@$0A@@std@@@std@@QAEXXZ ; std::_Tree<std::_Tmap_traits<unsigned long,unsigned long,std::less<unsigned long>,std::allocator<std::pair<unsigned long const ,unsigned long> >,0> >::clear
; File D:\Metin2 Server Files\mainline\SRC_2014\Metin2Client\UserInterface\PythonBackground.cpp

; 908  : 	DeleteSpecialEffect(dwID);

  00217	8b 4d f4	 mov	 ecx, DWORD PTR _this$1$[ebp]
  0021a	53		 push	 ebx
  0021b	e8 00 00 00 00	 call	 ?DeleteSpecialEffect@CPythonBackground@@QAEXK@Z ; CPythonBackground::DeleteSpecialEffect
  00220	5f		 pop	 edi
  00221	5e		 pop	 esi
  00222	5b		 pop	 ebx

; 909  : }

  00223	8b e5		 mov	 esp, ebp
  00225	5d		 pop	 ebp
  00226	c2 04 00	 ret	 4
$LN220@DeleteTarg:
; File C:\Program Files (x86)\Microsoft Visual Studio\2019\Community\VC\Tools\MSVC\14.28.29333\include\xtree

; 98   :         return _Ptr == _Right._Ptr;

  00229	3b f7		 cmp	 esi, edi

; 1404 :         while (_First != _Last) {

  0022b	74 28		 je	 SHORT $LN184@DeleteTarg
  0022d	8b d9		 mov	 ebx, ecx
  0022f	90		 npad	 1
$LL183@DeleteTarg:

; 68   :         ++*this;

  00230	8d 4d fc	 lea	 ecx, DWORD PTR __First$[ebp]
  00233	e8 00 00 00 00	 call	 ??E?$_Tree_unchecked_const_iterator@V?$_Tree_val@U?$_Tree_simple_types@U?$pair@$$CBKK@std@@@std@@@std@@U_Iterator_base0@2@@std@@QAEAAV01@XZ ; std::_Tree_unchecked_const_iterator<std::_Tree_val<std::_Tree_simple_types<std::pair<unsigned long const ,unsigned long> > >,std::_Iterator_base0>::operator++

; 1389 :         _Nodeptr _Erasednode = _Scary->_Extract(_Where); // node to erase

  00238	56		 push	 esi
  00239	8b cb		 mov	 ecx, ebx
  0023b	e8 00 00 00 00	 call	 ?_Extract@?$_Tree_val@U?$_Tree_simple_types@U?$pair@$$CBKK@std@@@std@@@std@@QAEPAU?$_Tree_node@U?$pair@$$CBKK@std@@PAX@2@V?$_Tree_unchecked_const_iterator@V?$_Tree_val@U?$_Tree_simple_types@U?$pair@$$CBKK@std@@@std@@@std@@U_Iterator_base0@2@@2@@Z ; std::_Tree_val<std::_Tree_simple_types<std::pair<unsigned long const ,unsigned long> > >::_Extract
; File C:\Program Files (x86)\Microsoft Visual Studio\2019\Community\VC\Tools\MSVC\14.28.29333\include\xmemory

; 696  :         _Deallocate<_New_alignof<value_type>>(_Ptr, sizeof(value_type) * _Count);

  00240	6a 18		 push	 24			; 00000018H
  00242	50		 push	 eax
  00243	e8 00 00 00 00	 call	 ??$_Deallocate@$07$0A@@std@@YAXPAXI@Z ; std::_Deallocate<8,0>
; File C:\Program Files (x86)\Microsoft Visual Studio\2019\Community\VC\Tools\MSVC\14.28.29333\include\xtree

; 98   :         return _Ptr == _Right._Ptr;

  00248	8b 75 fc	 mov	 esi, DWORD PTR __First$[ebp]
; File C:\Program Files (x86)\Microsoft Visual Studio\2019\Community\VC\Tools\MSVC\14.28.29333\include\xmemory

; 696  :         _Deallocate<_New_alignof<value_type>>(_Ptr, sizeof(value_type) * _Count);

  0024b	83 c4 08	 add	 esp, 8
; File C:\Program Files (x86)\Microsoft Visual Studio\2019\Community\VC\Tools\MSVC\14.28.29333\include\xtree

; 98   :         return _Ptr == _Right._Ptr;

  0024e	3b f7		 cmp	 esi, edi

; 1404 :         while (_First != _Last) {

  00250	75 de		 jne	 SHORT $LL183@DeleteTarg
  00252	8b 5d 08	 mov	 ebx, DWORD PTR _dwID$[ebp]
$LN184@DeleteTarg:
; File D:\Metin2 Server Files\mainline\SRC_2014\Metin2Client\UserInterface\PythonBackground.cpp

; 908  : 	DeleteSpecialEffect(dwID);

  00255	8b 4d f4	 mov	 ecx, DWORD PTR _this$1$[ebp]
  00258	53		 push	 ebx
  00259	e8 00 00 00 00	 call	 ?DeleteSpecialEffect@CPythonBackground@@QAEXK@Z ; CPythonBackground::DeleteSpecialEffect
  0025e	5f		 pop	 edi
  0025f	5e		 pop	 esi
  00260	5b		 pop	 ebx

; 909  : }

  00261	8b e5		 mov	 esp, ebp
  00263	5d		 pop	 ebp
  00264	c2 04 00	 ret	 4
?DeleteTargetEffect@CPythonBackground@@QAEXK@Z ENDP	; CPythonBackground::DeleteTargetEffect
_TEXT	ENDS
; Function compile flags: /Ogtp
; File D:\Metin2 Server Files\mainline\SRC_2014\Metin2Client\UserInterface\PythonBackground.cpp
; File C:\Program Files (x86)\Microsoft Visual Studio\2019\Community\VC\Tools\MSVC\14.28.29333\include\xtree
; File C:\Program Files (x86)\Microsoft Visual Studio\2019\Community\VC\Tools\MSVC\14.28.29333\include\xstddef
; File C:\Program Files (x86)\Microsoft Visual Studio\2019\Community\VC\Tools\MSVC\14.28.29333\include\xtree
; File D:\Metin2 Server Files\mainline\SRC_2014\Metin2Client\UserInterface\PythonBackground.cpp
; File C:\Program Files (x86)\Microsoft Visual Studio\2019\Community\VC\Tools\MSVC\14.28.29333\include\utility
; File D:\Metin2 Server Files\mainline\SRC_2014\Metin2Client\UserInterface\PythonBackground.cpp
; File C:\Program Files (x86)\Microsoft Visual Studio\2019\Community\VC\Tools\MSVC\14.28.29333\include\utility
; File C:\Program Files (x86)\Microsoft Visual Studio\2019\Community\VC\Tools\MSVC\14.28.29333\include\xtree
; File C:\Program Files (x86)\Microsoft Visual Studio\2019\Community\VC\Tools\MSVC\14.28.29333\include\utility
; File C:\Program Files (x86)\Microsoft Visual Studio\2019\Community\VC\Tools\MSVC\14.28.29333\include\xtree
; File C:\Program Files (x86)\Microsoft Visual Studio\2019\Community\VC\Tools\MSVC\14.28.29333\include\utility
; File C:\Program Files (x86)\Microsoft Visual Studio\2019\Community\VC\Tools\MSVC\14.28.29333\include\xtree
; File C:\Program Files (x86)\Microsoft Visual Studio\2019\Community\VC\Tools\MSVC\14.28.29333\include\xstddef
; File C:\Program Files (x86)\Microsoft Visual Studio\2019\Community\VC\Tools\MSVC\14.28.29333\include\xtree
; File C:\Program Files (x86)\Microsoft Visual Studio\2019\Community\VC\Tools\MSVC\14.28.29333\include\xmemory
; File C:\Program Files (x86)\Microsoft Visual Studio\2019\Community\VC\Tools\MSVC\14.28.29333\include\xtree
; File C:\Program Files (x86)\Microsoft Visual Studio\2019\Community\VC\Tools\MSVC\14.28.29333\include\xmemory
; File C:\Program Files (x86)\Microsoft Visual Studio\2019\Community\VC\Tools\MSVC\14.28.29333\include\utility
; File C:\Program Files (x86)\Microsoft Visual Studio\2019\Community\VC\Tools\MSVC\14.28.29333\include\xtree
; File C:\Program Files (x86)\Microsoft Visual Studio\2019\Community\VC\Tools\MSVC\14.28.29333\include\utility
; File C:\Program Files (x86)\Microsoft Visual Studio\2019\Community\VC\Tools\MSVC\14.28.29333\include\xtree
; File D:\Metin2 Server Files\mainline\SRC_2014\Metin2Client\UserInterface\PythonBackground.cpp
; File C:\Program Files (x86)\Microsoft Visual Studio\2019\Community\VC\Tools\MSVC\14.28.29333\include\xstring
; File D:\Metin2 Server Files\mainline\SRC_2014\Metin2Client\UserInterface\PythonBackground.cpp
; File C:\Program Files (x86)\Microsoft Visual Studio\2019\Community\VC\Tools\MSVC\14.28.29333\include\xstring
; File D:\Metin2 Server Files\mainline\SRC_2014\Metin2Client\UserInterface\PythonBackground.cpp
; File C:\Program Files (x86)\Microsoft Visual Studio\2019\Community\VC\Tools\MSVC\14.28.29333\include\xtree
; File D:\Metin2 Server Files\mainline\SRC_2014\Metin2Client\UserInterface\PythonBackground.cpp
;	COMDAT ?CreateTargetEffect@CPythonBackground@@QAEXKJJ@Z
_TEXT	SEGMENT
$T2 = -56						; size = 12
__Loc$3 = -44						; size = 12
__Loc$4 = -44						; size = 12
$T5 = -32						; size = 12
$T6 = -28						; size = 8
_dwBaseY$ = -20						; size = 4
_dwBaseX$ = -16						; size = 4
__$EHRec$ = -12						; size = 12
__Myhead$7 = 8						; size = 4
_fHeight$ = 8						; size = 4
_dwID$ = 8						; size = 4
_lx$ = 12						; size = 4
_ReserveTargetEffect$2$ = 16				; size = 4
_ly$ = 16						; size = 4
?CreateTargetEffect@CPythonBackground@@QAEXKJJ@Z PROC	; CPythonBackground::CreateTargetEffect, COMDAT
; _this$ = ecx

; 870  : {

  00000	55		 push	 ebp
  00001	8b ec		 mov	 ebp, esp
  00003	6a ff		 push	 -1
  00005	68 00 00 00 00	 push	 __ehhandler$?CreateTargetEffect@CPythonBackground@@QAEXKJJ@Z
  0000a	64 a1 00 00 00
	00		 mov	 eax, DWORD PTR fs:0
  00010	50		 push	 eax
  00011	83 ec 2c	 sub	 esp, 44			; 0000002cH
  00014	53		 push	 ebx
  00015	56		 push	 esi
  00016	57		 push	 edi
  00017	a1 00 00 00 00	 mov	 eax, DWORD PTR ___security_cookie
  0001c	33 c5		 xor	 eax, ebp
  0001e	50		 push	 eax
  0001f	8d 45 f4	 lea	 eax, DWORD PTR __$EHRec$[ebp]
  00022	64 a3 00 00 00
	00		 mov	 DWORD PTR fs:0, eax
  00028	8b d9		 mov	 ebx, ecx
; File C:\Program Files (x86)\Microsoft Visual Studio\2019\Community\VC\Tools\MSVC\14.28.29333\include\xtree

; 1458 :         const _Tree_find_result<_Nodeptr> _Loc = _Find_lower_bound(_Keyval);

  0002a	8d 45 08	 lea	 eax, DWORD PTR _dwID$[ebp]
  0002d	50		 push	 eax
  0002e	8d 45 d4	 lea	 eax, DWORD PTR __Loc$4[ebp]
  00031	50		 push	 eax
  00032	8d 8b f8 15 00
	00		 lea	 ecx, DWORD PTR [ebx+5624]
  00038	e8 00 00 00 00	 call	 ??$_Find_lower_bound@K@?$_Tree@V?$_Tmap_traits@KKU?$less@K@std@@V?$allocator@U?$pair@$$CBKK@std@@@2@$0A@@std@@@std@@IBE?AU?$_Tree_find_result@PAU?$_Tree_node@U?$pair@$$CBKK@std@@PAX@std@@@1@ABK@Z ; std::_Tree<std::_Tmap_traits<unsigned long,unsigned long,std::less<unsigned long>,std::allocator<std::pair<unsigned long const ,unsigned long> >,0> >::_Find_lower_bound<unsigned long>

; 1695 :         return !_Bound->_Isnil && !_DEBUG_LT_PRED(_Getcomp(), _Keyval, _Traits::_Kfn(_Bound->_Myval));

  0003d	8b 45 dc	 mov	 eax, DWORD PTR __Loc$4[ebp+8]
  00040	8b 7d 08	 mov	 edi, DWORD PTR _dwID$[ebp]
  00043	80 78 0d 00	 cmp	 BYTE PTR [eax+13], 0
  00047	75 05		 jne	 SHORT $LN8@CreateTarg
; File C:\Program Files (x86)\Microsoft Visual Studio\2019\Community\VC\Tools\MSVC\14.28.29333\include\xstddef

; 127  :         return _Left < _Right;

  00049	3b 78 10	 cmp	 edi, DWORD PTR [eax+16]
; File C:\Program Files (x86)\Microsoft Visual Studio\2019\Community\VC\Tools\MSVC\14.28.29333\include\xtree

; 1695 :         return !_Bound->_Isnil && !_DEBUG_LT_PRED(_Getcomp(), _Keyval, _Traits::_Kfn(_Bound->_Myval));

  0004c	73 06		 jae	 SHORT $LN7@CreateTarg
$LN8@CreateTarg:

; 1463 :         return _Get_scary()->_Myhead;

  0004e	8b 83 f8 15 00
	00		 mov	 eax, DWORD PTR [ebx+5624]
$LN7@CreateTarg:
; File D:\Metin2 Server Files\mainline\SRC_2014\Metin2Client\UserInterface\PythonBackground.cpp

; 871  : 	if (m_kMap_dwTargetID_dwChrID.end() != m_kMap_dwTargetID_dwChrID.find(dwID))

  00054	39 83 f8 15 00
	00		 cmp	 DWORD PTR [ebx+5624], eax
  0005a	0f 85 70 01 00
	00		 jne	 $LN1@CreateTarg

; 872  : 		return;
; 873  : 
; 874  : 	CMapOutdoor& rkMap=GetMapOutdoorRef();

  00060	8b cb		 mov	 ecx, ebx
  00062	e8 00 00 00 00	 call	 ?GetMapOutdoorRef@CMapManager@@QAEAAVCMapOutdoor@@XZ ; CMapManager::GetMapOutdoorRef
  00067	8b f0		 mov	 esi, eax

; 875  : 
; 876  : 	DWORD dwBaseX;
; 877  : 	DWORD dwBaseY;
; 878  : 	rkMap.GetBaseXY(&dwBaseX, &dwBaseY);

  00069	8d 45 ec	 lea	 eax, DWORD PTR _dwBaseY$[ebp]
  0006c	50		 push	 eax
  0006d	8d 45 f0	 lea	 eax, DWORD PTR _dwBaseX$[ebp]
  00070	8b ce		 mov	 ecx, esi
  00072	50		 push	 eax
  00073	e8 00 00 00 00	 call	 ?GetBaseXY@CMapOutdoor@@QAEXPAK0@Z ; CMapOutdoor::GetBaseXY

; 879  : 
; 880  : 	int ilx = +(lx-int(dwBaseX));
; 881  : 	int ily = -(ly-int(dwBaseY));

  00078	8b 4d ec	 mov	 ecx, DWORD PTR _dwBaseY$[ebp]

; 882  : 
; 883  : 	float fHeight = rkMap.GetHeight(float(ilx), float(ily));

  0007b	83 ec 08	 sub	 esp, 8
  0007e	2b 4d 10	 sub	 ecx, DWORD PTR _ly$[ebp]
  00081	8b 45 0c	 mov	 eax, DWORD PTR _lx$[ebp]
  00084	2b 45 f0	 sub	 eax, DWORD PTR _dwBaseX$[ebp]
  00087	89 45 0c	 mov	 DWORD PTR _lx$[ebp], eax
  0008a	66 0f 6e c1	 movd	 xmm0, ecx
  0008e	0f 5b c0	 cvtdq2ps xmm0, xmm0
  00091	89 4d 10	 mov	 DWORD PTR _ReserveTargetEffect$2$[ebp], ecx
  00094	8b ce		 mov	 ecx, esi
  00096	66 0f 6e c8	 movd	 xmm1, eax
  0009a	8b 06		 mov	 eax, DWORD PTR [esi]
  0009c	0f 5b c9	 cvtdq2ps xmm1, xmm1
  0009f	8b 40 1c	 mov	 eax, DWORD PTR [eax+28]
  000a2	f3 0f 11 44 24
	04		 movss	 DWORD PTR [esp+4], xmm0
  000a8	f3 0f 11 0c 24	 movss	 DWORD PTR [esp], xmm1
  000ad	ff d0		 call	 eax
  000af	d9 5d 08	 fstp	 DWORD PTR _fHeight$[ebp]

; 884  : 
; 885  : 	if (0.0f == fHeight)

  000b2	f3 0f 10 4d 08	 movss	 xmm1, DWORD PTR _fHeight$[ebp]
  000b7	0f 57 c0	 xorps	 xmm0, xmm0
  000ba	0f 2e c1	 ucomiss xmm0, xmm1
  000bd	9f		 lahf
  000be	f6 c4 44	 test	 ah, 68			; 00000044H
  000c1	0f 8a c9 00 00
	00		 jp	 $LN3@CreateTarg
; File C:\Program Files (x86)\Microsoft Visual Studio\2019\Community\VC\Tools\MSVC\14.28.29333\include\utility

; 190  :         : first(_STD forward<_Other1>(_Val1)), second(_STD forward<_Other2>(_Val2)) {}

  000c7	8b 45 0c	 mov	 eax, DWORD PTR _lx$[ebp]
; File D:\Metin2 Server Files\mainline\SRC_2014\Metin2Client\UserInterface\PythonBackground.cpp

; 890  : 		m_kMap_dwID_kReserveTargetEffect.insert(make_pair(dwID, ReserveTargetEffect));

  000ca	81 c3 00 16 00
	00		 add	 ebx, 5632		; 00001600H
; File C:\Program Files (x86)\Microsoft Visual Studio\2019\Community\VC\Tools\MSVC\14.28.29333\include\utility

; 190  :         : first(_STD forward<_Other1>(_Val1)), second(_STD forward<_Other2>(_Val2)) {}

  000d0	89 45 e4	 mov	 DWORD PTR $T5[ebp+4], eax
; File C:\Program Files (x86)\Microsoft Visual Studio\2019\Community\VC\Tools\MSVC\14.28.29333\include\xtree

; 1009 :             _Loc                = _Find_lower_bound(_Keyval);

  000d3	8b cb		 mov	 ecx, ebx
; File C:\Program Files (x86)\Microsoft Visual Studio\2019\Community\VC\Tools\MSVC\14.28.29333\include\utility

; 190  :         : first(_STD forward<_Other1>(_Val1)), second(_STD forward<_Other2>(_Val2)) {}

  000d5	8b 45 10	 mov	 eax, DWORD PTR _ReserveTargetEffect$2$[ebp]
  000d8	89 45 e8	 mov	 DWORD PTR $T5[ebp+8], eax
; File C:\Program Files (x86)\Microsoft Visual Studio\2019\Community\VC\Tools\MSVC\14.28.29333\include\xtree

; 1009 :             _Loc                = _Find_lower_bound(_Keyval);

  000db	8d 45 e0	 lea	 eax, DWORD PTR $T5[ebp]
  000de	50		 push	 eax
  000df	8d 45 c8	 lea	 eax, DWORD PTR $T2[ebp]
; File C:\Program Files (x86)\Microsoft Visual Studio\2019\Community\VC\Tools\MSVC\14.28.29333\include\utility

; 190  :         : first(_STD forward<_Other1>(_Val1)), second(_STD forward<_Other2>(_Val2)) {}

  000e2	89 7d e0	 mov	 DWORD PTR $T5[ebp], edi
; File C:\Program Files (x86)\Microsoft Visual Studio\2019\Community\VC\Tools\MSVC\14.28.29333\include\xtree

; 1009 :             _Loc                = _Find_lower_bound(_Keyval);

  000e5	50		 push	 eax
  000e6	e8 00 00 00 00	 call	 ??$_Find_lower_bound@K@?$_Tree@V?$_Tmap_traits@KUSReserveTargetEffect@CPythonBackground@@U?$less@K@std@@V?$allocator@U?$pair@$$CBKUSReserveTargetEffect@CPythonBackground@@@std@@@4@$0A@@std@@@std@@IBE?AU?$_Tree_find_result@PAU?$_Tree_node@U?$pair@$$CBKUSReserveTargetEffect@CPythonBackground@@@std@@PAX@std@@@1@ABK@Z ; std::_Tree<std::_Tmap_traits<unsigned long,CPythonBackground::SReserveTargetEffect,std::less<unsigned long>,std::allocator<std::pair<unsigned long const ,CPythonBackground::SReserveTargetEffect> >,0> >::_Find_lower_bound<unsigned long>
  000eb	f3 0f 7e 00	 movq	 xmm0, QWORD PTR [eax]
  000ef	8b 40 08	 mov	 eax, DWORD PTR [eax+8]
  000f2	66 0f d6 45 d4	 movq	 QWORD PTR __Loc$3[ebp], xmm0

; 1695 :         return !_Bound->_Isnil && !_DEBUG_LT_PRED(_Getcomp(), _Keyval, _Traits::_Kfn(_Bound->_Myval));

  000f7	80 78 0d 00	 cmp	 BYTE PTR [eax+13], 0
  000fb	75 09		 jne	 SHORT $LN48@CreateTarg
; File C:\Program Files (x86)\Microsoft Visual Studio\2019\Community\VC\Tools\MSVC\14.28.29333\include\xstddef

; 127  :         return _Left < _Right;

  000fd	3b 78 10	 cmp	 edi, DWORD PTR [eax+16]
; File C:\Program Files (x86)\Microsoft Visual Studio\2019\Community\VC\Tools\MSVC\14.28.29333\include\xtree

; 1695 :         return !_Bound->_Isnil && !_DEBUG_LT_PRED(_Getcomp(), _Keyval, _Traits::_Kfn(_Bound->_Myval));

  00100	0f 83 ca 00 00
	00		 jae	 $LN1@CreateTarg
$LN48@CreateTarg:

; 1719 :         if (max_size() == _Get_scary()->_Mysize) {

  00106	81 7b 04 49 92
	24 09		 cmp	 DWORD PTR [ebx+4], 153391689 ; 09249249H
  0010d	0f 84 d1 00 00
	00		 je	 $LN122@CreateTarg

; 1015 :             _Inserted = _Tree_temp_node<_Alnode>(_Getal(), _Scary->_Myhead, _STD forward<_Valtys>(_Vals)...)._Release();

  00113	8b 03		 mov	 eax, DWORD PTR [ebx]
  00115	89 45 08	 mov	 DWORD PTR __Myhead$7[ebp], eax
; File C:\Program Files (x86)\Microsoft Visual Studio\2019\Community\VC\Tools\MSVC\14.28.29333\include\xmemory

; 1045 :     explicit _Alloc_construct_ptr(_Alloc& _Al_) : _Al(_Al_), _Ptr(nullptr) {}

  00118	89 5d e4	 mov	 DWORD PTR $T6[ebp], ebx

; 814  :         return static_cast<_Ty*>(_Allocate<_New_alignof<_Ty>>(_Get_size_of_n<sizeof(_Ty)>(_Count)));

  0011b	6a 1c		 push	 28			; 0000001cH
; File C:\Program Files (x86)\Microsoft Visual Studio\2019\Community\VC\Tools\MSVC\14.28.29333\include\xtree

; 784  :     explicit _Tree_temp_node_alloc(_Alnode& _Al_) : _Alloc_construct_ptr<_Alnode>(_Al_) {

  0011d	c7 45 fc 00 00
	00 00		 mov	 DWORD PTR __$EHRec$[ebp+8], 0
; File C:\Program Files (x86)\Microsoft Visual Studio\2019\Community\VC\Tools\MSVC\14.28.29333\include\xmemory

; 1052 :         _Ptr = nullptr; // if allocate throws, prevents double-free

  00124	c7 45 e8 00 00
	00 00		 mov	 DWORD PTR $T6[ebp+4], 0

; 814  :         return static_cast<_Ty*>(_Allocate<_New_alignof<_Ty>>(_Get_size_of_n<sizeof(_Ty)>(_Count)));

  0012b	e8 00 00 00 00	 call	 ??$_Allocate@$07U_Default_allocate_traits@std@@$0A@@std@@YAPAXI@Z ; std::_Allocate<8,std::_Default_allocate_traits,0>

; 1053 :         _Ptr = _Al.allocate(1);

  00130	8b f0		 mov	 esi, eax
; File C:\Program Files (x86)\Microsoft Visual Studio\2019\Community\VC\Tools\MSVC\14.28.29333\include\utility

; 246  :         : first(_STD forward<_Other1>(_Right.first)), second(_STD forward<_Other2>(_Right.second)) {}

  00132	8b 45 0c	 mov	 eax, DWORD PTR _lx$[ebp]
  00135	89 46 14	 mov	 DWORD PTR [esi+20], eax
  00138	8b 45 10	 mov	 eax, DWORD PTR _ReserveTargetEffect$2$[ebp]
  0013b	89 46 18	 mov	 DWORD PTR [esi+24], eax
; File C:\Program Files (x86)\Microsoft Visual Studio\2019\Community\VC\Tools\MSVC\14.28.29333\include\xtree

; 807  :         _Construct_in_place(this->_Ptr->_Left, _Myhead);

  0013e	8d 45 08	 lea	 eax, DWORD PTR __Myhead$7[ebp]
  00141	50		 push	 eax
  00142	56		 push	 esi
; File C:\Program Files (x86)\Microsoft Visual Studio\2019\Community\VC\Tools\MSVC\14.28.29333\include\utility

; 246  :         : first(_STD forward<_Other1>(_Right.first)), second(_STD forward<_Other2>(_Right.second)) {}

  00143	89 7e 10	 mov	 DWORD PTR [esi+16], edi
; File C:\Program Files (x86)\Microsoft Visual Studio\2019\Community\VC\Tools\MSVC\14.28.29333\include\xtree

; 807  :         _Construct_in_place(this->_Ptr->_Left, _Myhead);

  00146	e8 00 00 00 00	 call	 ??$_Construct_in_place@PAU?$_Tree_node@U?$pair@$$CBKUSReserveTargetEffect@CPythonBackground@@@std@@PAX@std@@AAPAU12@@std@@YAXAAPAU?$_Tree_node@U?$pair@$$CBKUSReserveTargetEffect@CPythonBackground@@@std@@PAX@0@0@Z ; std::_Construct_in_place<std::_Tree_node<std::pair<unsigned long const ,CPythonBackground::SReserveTargetEffect>,void *> *,std::_Tree_node<std::pair<unsigned long const ,CPythonBackground::SReserveTargetEffect>,void *> * &>

; 808  :         _Construct_in_place(this->_Ptr->_Parent, _Myhead);

  0014b	8d 45 08	 lea	 eax, DWORD PTR __Myhead$7[ebp]
  0014e	50		 push	 eax
  0014f	8d 46 04	 lea	 eax, DWORD PTR [esi+4]
  00152	50		 push	 eax
  00153	e8 00 00 00 00	 call	 ??$_Construct_in_place@PAU?$_Tree_node@U?$pair@$$CBKUSReserveTargetEffect@CPythonBackground@@@std@@PAX@std@@AAPAU12@@std@@YAXAAPAU?$_Tree_node@U?$pair@$$CBKUSReserveTargetEffect@CPythonBackground@@@std@@PAX@0@0@Z ; std::_Construct_in_place<std::_Tree_node<std::pair<unsigned long const ,CPythonBackground::SReserveTargetEffect>,void *> *,std::_Tree_node<std::pair<unsigned long const ,CPythonBackground::SReserveTargetEffect>,void *> * &>

; 809  :         _Construct_in_place(this->_Ptr->_Right, _Myhead);

  00158	8d 45 08	 lea	 eax, DWORD PTR __Myhead$7[ebp]
  0015b	50		 push	 eax
  0015c	8d 46 08	 lea	 eax, DWORD PTR [esi+8]
  0015f	50		 push	 eax
  00160	e8 00 00 00 00	 call	 ??$_Construct_in_place@PAU?$_Tree_node@U?$pair@$$CBKUSReserveTargetEffect@CPythonBackground@@@std@@PAX@std@@AAPAU12@@std@@YAXAAPAU?$_Tree_node@U?$pair@$$CBKUSReserveTargetEffect@CPythonBackground@@@std@@PAX@0@0@Z ; std::_Construct_in_place<std::_Tree_node<std::pair<unsigned long const ,CPythonBackground::SReserveTargetEffect>,void *> *,std::_Tree_node<std::pair<unsigned long const ,CPythonBackground::SReserveTargetEffect>,void *> * &>
  00165	83 c4 1c	 add	 esp, 28			; 0000001cH

; 810  :         this->_Ptr->_Color = _Red;

  00168	66 c7 46 0c 00
	00		 mov	 WORD PTR [esi+12], 0

; 1034 :         return {_Scary->_Insert_node(_Loc._Location, _Inserted), true};

  0016e	8b cb		 mov	 ecx, ebx
  00170	56		 push	 esi
  00171	ff 75 d8	 push	 DWORD PTR __Loc$3[ebp+4]
  00174	ff 75 d4	 push	 DWORD PTR __Loc$3[ebp]
  00177	e8 00 00 00 00	 call	 ?_Insert_node@?$_Tree_val@U?$_Tree_simple_types@U?$pair@$$CBKUSReserveTargetEffect@CPythonBackground@@@std@@@std@@@std@@QAEPAU?$_Tree_node@U?$pair@$$CBKUSReserveTargetEffect@CPythonBackground@@@std@@PAX@2@U?$_Tree_id@PAU?$_Tree_node@U?$pair@$$CBKUSReserveTargetEffect@CPythonBackground@@@std@@PAX@std@@@2@QAU32@@Z ; std::_Tree_val<std::_Tree_simple_types<std::pair<unsigned long const ,CPythonBackground::SReserveTargetEffect> > >::_Insert_node
; File D:\Metin2 Server Files\mainline\SRC_2014\Metin2Client\UserInterface\PythonBackground.cpp

; 895  : }

  0017c	8b 4d f4	 mov	 ecx, DWORD PTR __$EHRec$[ebp]
  0017f	64 89 0d 00 00
	00 00		 mov	 DWORD PTR fs:0, ecx
  00186	59		 pop	 ecx
  00187	5f		 pop	 edi
  00188	5e		 pop	 esi
  00189	5b		 pop	 ebx
  0018a	8b e5		 mov	 esp, ebp
  0018c	5d		 pop	 ebp
  0018d	c2 0c 00	 ret	 12			; 0000000cH
$LN3@CreateTarg:
; File C:\Program Files (x86)\Microsoft Visual Studio\2019\Community\VC\Tools\MSVC\14.28.29333\include\xstring

; 2227 :         return _BUF_SIZE <= _Myres;

  00190	83 3d 14 00 00
	00 10		 cmp	 DWORD PTR ?g_strEffectName@@3V?$basic_string@DU?$char_traits@D@std@@V?$allocator@D@2@@std@@A+20, 16 ; 00000010H

; 2218 :         const value_type* _Result = _Bx._Buf;

  00197	b8 00 00 00 00	 mov	 eax, OFFSET ?g_strEffectName@@3V?$basic_string@DU?$char_traits@D@std@@V?$allocator@D@2@@std@@A ; g_strEffectName
  0019c	66 0f 6e 45 10	 movd	 xmm0, DWORD PTR _ReserveTargetEffect$2$[ebp]
; File D:\Metin2 Server Files\mainline\SRC_2014\Metin2Client\UserInterface\PythonBackground.cpp

; 894  : 	CreateSpecialEffect(dwID, ilx, ily, fHeight, g_strEffectName.c_str());

  001a1	8b cb		 mov	 ecx, ebx
; File C:\Program Files (x86)\Microsoft Visual Studio\2019\Community\VC\Tools\MSVC\14.28.29333\include\xstring

; 2219 :         if (_Large_string_engaged()) {

  001a3	0f 43 05 00 00
	00 00		 cmovae	 eax, DWORD PTR ?g_strEffectName@@3V?$basic_string@DU?$char_traits@D@std@@V?$allocator@D@2@@std@@A
; File D:\Metin2 Server Files\mainline\SRC_2014\Metin2Client\UserInterface\PythonBackground.cpp

; 894  : 	CreateSpecialEffect(dwID, ilx, ily, fHeight, g_strEffectName.c_str());

  001aa	50		 push	 eax
  001ab	83 ec 0c	 sub	 esp, 12			; 0000000cH
  001ae	0f 5b c0	 cvtdq2ps xmm0, xmm0
  001b1	f3 0f 11 4c 24
	08		 movss	 DWORD PTR [esp+8], xmm1
  001b7	f3 0f 11 44 24
	04		 movss	 DWORD PTR [esp+4], xmm0
  001bd	66 0f 6e 45 0c	 movd	 xmm0, DWORD PTR _lx$[ebp]
  001c2	0f 5b c0	 cvtdq2ps xmm0, xmm0
  001c5	f3 0f 11 04 24	 movss	 DWORD PTR [esp], xmm0
  001ca	57		 push	 edi
  001cb	e8 00 00 00 00	 call	 ?CreateSpecialEffect@CPythonBackground@@QAEXKMMMPBD@Z ; CPythonBackground::CreateSpecialEffect
$LN1@CreateTarg:

; 895  : }

  001d0	8b 4d f4	 mov	 ecx, DWORD PTR __$EHRec$[ebp]
  001d3	64 89 0d 00 00
	00 00		 mov	 DWORD PTR fs:0, ecx
  001da	59		 pop	 ecx
  001db	5f		 pop	 edi
  001dc	5e		 pop	 esi
  001dd	5b		 pop	 ebx
  001de	8b e5		 mov	 esp, ebp
  001e0	5d		 pop	 ebp
  001e1	c2 0c 00	 ret	 12			; 0000000cH
$LN122@CreateTarg:
; File C:\Program Files (x86)\Microsoft Visual Studio\2019\Community\VC\Tools\MSVC\14.28.29333\include\xtree

; 1720 :             _Throw_tree_length_error();

  001e4	e8 00 00 00 00	 call	 ?_Throw_tree_length_error@std@@YAXXZ ; std::_Throw_tree_length_error
$LN120@CreateTarg:
  001e9	cc		 int	 3
_TEXT	ENDS
;	COMDAT text$x
text$x	SEGMENT
__unwindfunclet$?CreateTargetEffect@CPythonBackground@@QAEXKJJ@Z$2:
  00000	8d 4d e4	 lea	 ecx, DWORD PTR $T6[ebp]
  00003	e9 00 00 00 00	 jmp	 ??1?$_Alloc_construct_ptr@V?$allocator@U?$_Tree_node@U?$pair@$$CBKUSReserveTargetEffect@CPythonBackground@@@std@@PAX@std@@@std@@@std@@QAE@XZ ; std::_Alloc_construct_ptr<std::allocator<std::_Tree_node<std::pair<unsigned long const ,CPythonBackground::SReserveTargetEffect>,void *> > >::~_Alloc_construct_ptr<std::allocator<std::_Tree_node<std::pair<unsigned long const ,CPythonBackground::SReserveTargetEffect>,void *> > >
  00008	cc		 int	 3
  00009	cc		 int	 3
  0000a	cc		 int	 3
  0000b	cc		 int	 3
  0000c	cc		 int	 3
__ehhandler$?CreateTargetEffect@CPythonBackground@@QAEXKJJ@Z:
  0000d	90		 npad	 1
  0000e	90		 npad	 1
  0000f	8b 54 24 08	 mov	 edx, DWORD PTR [esp+8]
  00013	8d 42 0c	 lea	 eax, DWORD PTR [edx+12]
  00016	8b 4a c4	 mov	 ecx, DWORD PTR [edx-60]
  00019	33 c8		 xor	 ecx, eax
  0001b	e8 00 00 00 00	 call	 @__security_check_cookie@4
  00020	b8 00 00 00 00	 mov	 eax, OFFSET __ehfuncinfo$?CreateTargetEffect@CPythonBackground@@QAEXKJJ@Z
  00025	e9 00 00 00 00	 jmp	 ___CxxFrameHandler3
text$x	ENDS
?CreateTargetEffect@CPythonBackground@@QAEXKJJ@Z ENDP	; CPythonBackground::CreateTargetEffect
; Function compile flags: /Ogtp
; File D:\Metin2 Server Files\mainline\SRC_2014\Metin2Client\UserInterface\PythonBackground.cpp
; File C:\Program Files (x86)\Microsoft Visual Studio\2019\Community\VC\Tools\MSVC\14.28.29333\include\utility
; File D:\Metin2 Server Files\mainline\SRC_2014\Metin2Client\UserInterface\PythonBackground.cpp
; File C:\Program Files (x86)\Microsoft Visual Studio\2019\Community\VC\Tools\MSVC\14.28.29333\include\utility
; File C:\Program Files (x86)\Microsoft Visual Studio\2019\Community\VC\Tools\MSVC\14.28.29333\include\xtree
; File C:\Program Files (x86)\Microsoft Visual Studio\2019\Community\VC\Tools\MSVC\14.28.29333\include\utility
; File C:\Program Files (x86)\Microsoft Visual Studio\2019\Community\VC\Tools\MSVC\14.28.29333\include\xtree
; File C:\Program Files (x86)\Microsoft Visual Studio\2019\Community\VC\Tools\MSVC\14.28.29333\include\utility
; File C:\Program Files (x86)\Microsoft Visual Studio\2019\Community\VC\Tools\MSVC\14.28.29333\include\xtree
; File C:\Program Files (x86)\Microsoft Visual Studio\2019\Community\VC\Tools\MSVC\14.28.29333\include\xstddef
; File C:\Program Files (x86)\Microsoft Visual Studio\2019\Community\VC\Tools\MSVC\14.28.29333\include\xtree
; File C:\Program Files (x86)\Microsoft Visual Studio\2019\Community\VC\Tools\MSVC\14.28.29333\include\xmemory
; File C:\Program Files (x86)\Microsoft Visual Studio\2019\Community\VC\Tools\MSVC\14.28.29333\include\xtree
; File C:\Program Files (x86)\Microsoft Visual Studio\2019\Community\VC\Tools\MSVC\14.28.29333\include\xmemory
; File C:\Program Files (x86)\Microsoft Visual Studio\2019\Community\VC\Tools\MSVC\14.28.29333\include\utility
; File C:\Program Files (x86)\Microsoft Visual Studio\2019\Community\VC\Tools\MSVC\14.28.29333\include\xtree
; File C:\Program Files (x86)\Microsoft Visual Studio\2019\Community\VC\Tools\MSVC\14.28.29333\include\utility
; File C:\Program Files (x86)\Microsoft Visual Studio\2019\Community\VC\Tools\MSVC\14.28.29333\include\xtree
; File D:\Metin2 Server Files\mainline\SRC_2014\Metin2Client\UserInterface\PythonBackground.cpp
; File C:\Program Files (x86)\Microsoft Visual Studio\2019\Community\VC\Tools\MSVC\14.28.29333\include\xtree
; File D:\Metin2 Server Files\mainline\SRC_2014\Metin2Client\UserInterface\PythonBackground.cpp
;	COMDAT ?CreateTargetEffect@CPythonBackground@@QAEXKK@Z
_TEXT	SEGMENT
$T2 = -44						; size = 12
__Loc$3 = -32						; size = 12
$T4 = -20						; size = 8
$T5 = -20						; size = 8
__$EHRec$ = -12						; size = 12
__Myhead$6 = 8						; size = 4
_dwID$ = 8						; size = 4
_dwChrVID$ = 12						; size = 4
?CreateTargetEffect@CPythonBackground@@QAEXKK@Z PROC	; CPythonBackground::CreateTargetEffect, COMDAT
; _this$ = ecx

; 865  : {

  00000	55		 push	 ebp
  00001	8b ec		 mov	 ebp, esp
  00003	6a ff		 push	 -1
  00005	68 00 00 00 00	 push	 __ehhandler$?CreateTargetEffect@CPythonBackground@@QAEXKK@Z
  0000a	64 a1 00 00 00
	00		 mov	 eax, DWORD PTR fs:0
  00010	50		 push	 eax
  00011	83 ec 20	 sub	 esp, 32			; 00000020H
  00014	53		 push	 ebx
  00015	56		 push	 esi
  00016	57		 push	 edi
  00017	a1 00 00 00 00	 mov	 eax, DWORD PTR ___security_cookie
  0001c	33 c5		 xor	 eax, ebp
  0001e	50		 push	 eax
  0001f	8d 45 f4	 lea	 eax, DWORD PTR __$EHRec$[ebp]
  00022	64 a3 00 00 00
	00		 mov	 DWORD PTR fs:0, eax
; File C:\Program Files (x86)\Microsoft Visual Studio\2019\Community\VC\Tools\MSVC\14.28.29333\include\utility

; 190  :         : first(_STD forward<_Other1>(_Val1)), second(_STD forward<_Other2>(_Val2)) {}

  00028	8b 45 0c	 mov	 eax, DWORD PTR _dwChrVID$[ebp]
; File D:\Metin2 Server Files\mainline\SRC_2014\Metin2Client\UserInterface\PythonBackground.cpp

; 866  : 	m_kMap_dwTargetID_dwChrID.insert(make_pair(dwID, dwChrVID));

  0002b	8d b9 f8 15 00
	00		 lea	 edi, DWORD PTR [ecx+5624]
; File C:\Program Files (x86)\Microsoft Visual Studio\2019\Community\VC\Tools\MSVC\14.28.29333\include\utility

; 190  :         : first(_STD forward<_Other1>(_Val1)), second(_STD forward<_Other2>(_Val2)) {}

  00031	8b 5d 08	 mov	 ebx, DWORD PTR _dwID$[ebp]
; File C:\Program Files (x86)\Microsoft Visual Studio\2019\Community\VC\Tools\MSVC\14.28.29333\include\xtree

; 1009 :             _Loc                = _Find_lower_bound(_Keyval);

  00034	8b cf		 mov	 ecx, edi
; File C:\Program Files (x86)\Microsoft Visual Studio\2019\Community\VC\Tools\MSVC\14.28.29333\include\utility

; 190  :         : first(_STD forward<_Other1>(_Val1)), second(_STD forward<_Other2>(_Val2)) {}

  00036	89 45 f0	 mov	 DWORD PTR $T5[ebp+4], eax
; File C:\Program Files (x86)\Microsoft Visual Studio\2019\Community\VC\Tools\MSVC\14.28.29333\include\xtree

; 1009 :             _Loc                = _Find_lower_bound(_Keyval);

  00039	8d 45 ec	 lea	 eax, DWORD PTR $T5[ebp]
  0003c	50		 push	 eax
  0003d	8d 45 d4	 lea	 eax, DWORD PTR $T2[ebp]
; File C:\Program Files (x86)\Microsoft Visual Studio\2019\Community\VC\Tools\MSVC\14.28.29333\include\utility

; 190  :         : first(_STD forward<_Other1>(_Val1)), second(_STD forward<_Other2>(_Val2)) {}

  00040	89 5d ec	 mov	 DWORD PTR $T5[ebp], ebx
; File C:\Program Files (x86)\Microsoft Visual Studio\2019\Community\VC\Tools\MSVC\14.28.29333\include\xtree

; 1009 :             _Loc                = _Find_lower_bound(_Keyval);

  00043	50		 push	 eax
  00044	e8 00 00 00 00	 call	 ??$_Find_lower_bound@K@?$_Tree@V?$_Tmap_traits@KKU?$less@K@std@@V?$allocator@U?$pair@$$CBKK@std@@@2@$0A@@std@@@std@@IBE?AU?$_Tree_find_result@PAU?$_Tree_node@U?$pair@$$CBKK@std@@PAX@std@@@1@ABK@Z ; std::_Tree<std::_Tmap_traits<unsigned long,unsigned long,std::less<unsigned long>,std::allocator<std::pair<unsigned long const ,unsigned long> >,0> >::_Find_lower_bound<unsigned long>
  00049	f3 0f 7e 00	 movq	 xmm0, QWORD PTR [eax]
  0004d	8b 40 08	 mov	 eax, DWORD PTR [eax+8]
  00050	66 0f d6 45 e0	 movq	 QWORD PTR __Loc$3[ebp], xmm0

; 1695 :         return !_Bound->_Isnil && !_DEBUG_LT_PRED(_Getcomp(), _Keyval, _Traits::_Kfn(_Bound->_Myval));

  00055	80 78 0d 00	 cmp	 BYTE PTR [eax+13], 0
  00059	75 05		 jne	 SHORT $LN17@CreateTarg
; File C:\Program Files (x86)\Microsoft Visual Studio\2019\Community\VC\Tools\MSVC\14.28.29333\include\xstddef

; 127  :         return _Left < _Right;

  0005b	3b 58 10	 cmp	 ebx, DWORD PTR [eax+16]
; File C:\Program Files (x86)\Microsoft Visual Studio\2019\Community\VC\Tools\MSVC\14.28.29333\include\xtree

; 1695 :         return !_Bound->_Isnil && !_DEBUG_LT_PRED(_Getcomp(), _Keyval, _Traits::_Kfn(_Bound->_Myval));

  0005e	73 6c		 jae	 SHORT $LN67@CreateTarg
$LN17@CreateTarg:

; 1719 :         if (max_size() == _Get_scary()->_Mysize) {

  00060	81 7f 04 aa aa
	aa 0a		 cmp	 DWORD PTR [edi+4], 178956970 ; 0aaaaaaaH
  00067	74 77		 je	 SHORT $LN83@CreateTarg

; 1015 :             _Inserted = _Tree_temp_node<_Alnode>(_Getal(), _Scary->_Myhead, _STD forward<_Valtys>(_Vals)...)._Release();

  00069	8b 07		 mov	 eax, DWORD PTR [edi]
  0006b	89 45 08	 mov	 DWORD PTR __Myhead$6[ebp], eax
; File C:\Program Files (x86)\Microsoft Visual Studio\2019\Community\VC\Tools\MSVC\14.28.29333\include\xmemory

; 1045 :     explicit _Alloc_construct_ptr(_Alloc& _Al_) : _Al(_Al_), _Ptr(nullptr) {}

  0006e	89 7d ec	 mov	 DWORD PTR $T4[ebp], edi

; 814  :         return static_cast<_Ty*>(_Allocate<_New_alignof<_Ty>>(_Get_size_of_n<sizeof(_Ty)>(_Count)));

  00071	6a 18		 push	 24			; 00000018H
; File C:\Program Files (x86)\Microsoft Visual Studio\2019\Community\VC\Tools\MSVC\14.28.29333\include\xtree

; 784  :     explicit _Tree_temp_node_alloc(_Alnode& _Al_) : _Alloc_construct_ptr<_Alnode>(_Al_) {

  00073	c7 45 fc 00 00
	00 00		 mov	 DWORD PTR __$EHRec$[ebp+8], 0
; File C:\Program Files (x86)\Microsoft Visual Studio\2019\Community\VC\Tools\MSVC\14.28.29333\include\xmemory

; 1052 :         _Ptr = nullptr; // if allocate throws, prevents double-free

  0007a	c7 45 f0 00 00
	00 00		 mov	 DWORD PTR $T4[ebp+4], 0

; 814  :         return static_cast<_Ty*>(_Allocate<_New_alignof<_Ty>>(_Get_size_of_n<sizeof(_Ty)>(_Count)));

  00081	e8 00 00 00 00	 call	 ??$_Allocate@$07U_Default_allocate_traits@std@@$0A@@std@@YAPAXI@Z ; std::_Allocate<8,std::_Default_allocate_traits,0>

; 1053 :         _Ptr = _Al.allocate(1);

  00086	8b f0		 mov	 esi, eax
; File C:\Program Files (x86)\Microsoft Visual Studio\2019\Community\VC\Tools\MSVC\14.28.29333\include\utility

; 246  :         : first(_STD forward<_Other1>(_Right.first)), second(_STD forward<_Other2>(_Right.second)) {}

  00088	8b 45 0c	 mov	 eax, DWORD PTR _dwChrVID$[ebp]
  0008b	89 46 14	 mov	 DWORD PTR [esi+20], eax
; File C:\Program Files (x86)\Microsoft Visual Studio\2019\Community\VC\Tools\MSVC\14.28.29333\include\xtree

; 807  :         _Construct_in_place(this->_Ptr->_Left, _Myhead);

  0008e	8d 45 08	 lea	 eax, DWORD PTR __Myhead$6[ebp]
  00091	50		 push	 eax
  00092	56		 push	 esi
; File C:\Program Files (x86)\Microsoft Visual Studio\2019\Community\VC\Tools\MSVC\14.28.29333\include\utility

; 246  :         : first(_STD forward<_Other1>(_Right.first)), second(_STD forward<_Other2>(_Right.second)) {}

  00093	89 5e 10	 mov	 DWORD PTR [esi+16], ebx
; File C:\Program Files (x86)\Microsoft Visual Studio\2019\Community\VC\Tools\MSVC\14.28.29333\include\xtree

; 807  :         _Construct_in_place(this->_Ptr->_Left, _Myhead);

  00096	e8 00 00 00 00	 call	 ??$_Construct_in_place@PAU?$_Tree_node@U?$pair@$$CBKK@std@@PAX@std@@AAPAU12@@std@@YAXAAPAU?$_Tree_node@U?$pair@$$CBKK@std@@PAX@0@0@Z ; std::_Construct_in_place<std::_Tree_node<std::pair<unsigned long const ,unsigned long>,void *> *,std::_Tree_node<std::pair<unsigned long const ,unsigned long>,void *> * &>

; 808  :         _Construct_in_place(this->_Ptr->_Parent, _Myhead);

  0009b	8d 45 08	 lea	 eax, DWORD PTR __Myhead$6[ebp]
  0009e	50		 push	 eax
  0009f	8d 46 04	 lea	 eax, DWORD PTR [esi+4]
  000a2	50		 push	 eax
  000a3	e8 00 00 00 00	 call	 ??$_Construct_in_place@PAU?$_Tree_node@U?$pair@$$CBKK@std@@PAX@std@@AAPAU12@@std@@YAXAAPAU?$_Tree_node@U?$pair@$$CBKK@std@@PAX@0@0@Z ; std::_Construct_in_place<std::_Tree_node<std::pair<unsigned long const ,unsigned long>,void *> *,std::_Tree_node<std::pair<unsigned long const ,unsigned long>,void *> * &>

; 809  :         _Construct_in_place(this->_Ptr->_Right, _Myhead);

  000a8	8d 45 08	 lea	 eax, DWORD PTR __Myhead$6[ebp]
  000ab	50		 push	 eax
  000ac	8d 46 08	 lea	 eax, DWORD PTR [esi+8]
  000af	50		 push	 eax
  000b0	e8 00 00 00 00	 call	 ??$_Construct_in_place@PAU?$_Tree_node@U?$pair@$$CBKK@std@@PAX@std@@AAPAU12@@std@@YAXAAPAU?$_Tree_node@U?$pair@$$CBKK@std@@PAX@0@0@Z ; std::_Construct_in_place<std::_Tree_node<std::pair<unsigned long const ,unsigned long>,void *> *,std::_Tree_node<std::pair<unsigned long const ,unsigned long>,void *> * &>
  000b5	83 c4 1c	 add	 esp, 28			; 0000001cH

; 810  :         this->_Ptr->_Color = _Red;

  000b8	66 c7 46 0c 00
	00		 mov	 WORD PTR [esi+12], 0

; 1034 :         return {_Scary->_Insert_node(_Loc._Location, _Inserted), true};

  000be	8b cf		 mov	 ecx, edi
  000c0	56		 push	 esi
  000c1	ff 75 e4	 push	 DWORD PTR __Loc$3[ebp+4]
  000c4	ff 75 e0	 push	 DWORD PTR __Loc$3[ebp]
  000c7	e8 00 00 00 00	 call	 ?_Insert_node@?$_Tree_val@U?$_Tree_simple_types@U?$pair@$$CBKK@std@@@std@@@std@@QAEPAU?$_Tree_node@U?$pair@$$CBKK@std@@PAX@2@U?$_Tree_id@PAU?$_Tree_node@U?$pair@$$CBKK@std@@PAX@std@@@2@QAU32@@Z ; std::_Tree_val<std::_Tree_simple_types<std::pair<unsigned long const ,unsigned long> > >::_Insert_node
$LN67@CreateTarg:
; File D:\Metin2 Server Files\mainline\SRC_2014\Metin2Client\UserInterface\PythonBackground.cpp

; 867  : }

  000cc	8b 4d f4	 mov	 ecx, DWORD PTR __$EHRec$[ebp]
  000cf	64 89 0d 00 00
	00 00		 mov	 DWORD PTR fs:0, ecx
  000d6	59		 pop	 ecx
  000d7	5f		 pop	 edi
  000d8	5e		 pop	 esi
  000d9	5b		 pop	 ebx
  000da	8b e5		 mov	 esp, ebp
  000dc	5d		 pop	 ebp
  000dd	c2 08 00	 ret	 8
$LN83@CreateTarg:
; File C:\Program Files (x86)\Microsoft Visual Studio\2019\Community\VC\Tools\MSVC\14.28.29333\include\xtree

; 1720 :             _Throw_tree_length_error();

  000e0	e8 00 00 00 00	 call	 ?_Throw_tree_length_error@std@@YAXXZ ; std::_Throw_tree_length_error
$LN81@CreateTarg:
  000e5	cc		 int	 3
_TEXT	ENDS
;	COMDAT text$x
text$x	SEGMENT
__unwindfunclet$?CreateTargetEffect@CPythonBackground@@QAEXKK@Z$2:
  00000	8d 4d ec	 lea	 ecx, DWORD PTR $T4[ebp]
  00003	e9 00 00 00 00	 jmp	 ??1?$_Alloc_construct_ptr@V?$allocator@U?$_Tree_node@U?$pair@$$CBKK@std@@PAX@std@@@std@@@std@@QAE@XZ ; std::_Alloc_construct_ptr<std::allocator<std::_Tree_node<std::pair<unsigned long const ,unsigned long>,void *> > >::~_Alloc_construct_ptr<std::allocator<std::_Tree_node<std::pair<unsigned long const ,unsigned long>,void *> > >
  00008	cc		 int	 3
  00009	cc		 int	 3
  0000a	cc		 int	 3
  0000b	cc		 int	 3
  0000c	cc		 int	 3
__ehhandler$?CreateTargetEffect@CPythonBackground@@QAEXKK@Z:
  0000d	90		 npad	 1
  0000e	90		 npad	 1
  0000f	8b 54 24 08	 mov	 edx, DWORD PTR [esp+8]
  00013	8d 42 0c	 lea	 eax, DWORD PTR [edx+12]
  00016	8b 4a d0	 mov	 ecx, DWORD PTR [edx-48]
  00019	33 c8		 xor	 ecx, eax
  0001b	e8 00 00 00 00	 call	 @__security_check_cookie@4
  00020	b8 00 00 00 00	 mov	 eax, OFFSET __ehfuncinfo$?CreateTargetEffect@CPythonBackground@@QAEXKK@Z
  00025	e9 00 00 00 00	 jmp	 ___CxxFrameHandler3
text$x	ENDS
?CreateTargetEffect@CPythonBackground@@QAEXKK@Z ENDP	; CPythonBackground::CreateTargetEffect
; Function compile flags: /Ogtp
; File D:\Metin2 Server Files\mainline\SRC_2014\Metin2Client\UserInterface\PythonBackground.cpp
;	COMDAT ?RegisterGuildArea@CPythonBackground@@QAEXHHHH@Z
_TEXT	SEGMENT
_isx$ = 8						; size = 4
_isy$ = 12						; size = 4
_iex$ = 16						; size = 4
_iey$ = 20						; size = 4
?RegisterGuildArea@CPythonBackground@@QAEXHHHH@Z PROC	; CPythonBackground::RegisterGuildArea, COMDAT
; _this$ = ecx

; 676  : {

  00000	55		 push	 ebp
  00001	8b ec		 mov	 ebp, esp
  00003	56		 push	 esi
  00004	8b f1		 mov	 esi, ecx

; 677  : 	if (!IsMapReady())

  00006	e8 00 00 00 00	 call	 ?IsMapReady@CMapManager@@QAE_NXZ ; CMapManager::IsMapReady
  0000b	84 c0		 test	 al, al
  0000d	74 10		 je	 SHORT $LN1@RegisterGu

; 678  : 		return;
; 679  : 
; 680  : 	CMapOutdoor& rkMap=GetMapOutdoorRef();

  0000f	8b ce		 mov	 ecx, esi
  00011	e8 00 00 00 00	 call	 ?GetMapOutdoorRef@CMapManager@@QAEAAVCMapOutdoor@@XZ ; CMapManager::GetMapOutdoorRef
  00016	5e		 pop	 esi

; 681  : 	rkMap.RegisterGuildArea(isx, isy, iex, iey);

  00017	8b c8		 mov	 ecx, eax

; 682  : }

  00019	5d		 pop	 ebp

; 681  : 	rkMap.RegisterGuildArea(isx, isy, iex, iey);

  0001a	e9 00 00 00 00	 jmp	 ?RegisterGuildArea@CMapOutdoor@@QAEXHHHH@Z ; CMapOutdoor::RegisterGuildArea
$LN1@RegisterGu:
  0001f	5e		 pop	 esi

; 682  : }

  00020	5d		 pop	 ebp
  00021	c2 10 00	 ret	 16			; 00000010H
?RegisterGuildArea@CPythonBackground@@QAEXHHHH@Z ENDP	; CPythonBackground::RegisterGuildArea
_TEXT	ENDS
; Function compile flags: /Ogtp
; File D:\Metin2 Server Files\mainline\SRC_2014\Metin2Client\UserInterface\PythonBackground.cpp
;	COMDAT ?ClearGuildArea@CPythonBackground@@QAEXXZ
_TEXT	SEGMENT
?ClearGuildArea@CPythonBackground@@QAEXXZ PROC		; CPythonBackground::ClearGuildArea, COMDAT
; _this$ = ecx

; 667  : {

  00000	56		 push	 esi
  00001	8b f1		 mov	 esi, ecx

; 668  : 	if (!IsMapReady())

  00003	e8 00 00 00 00	 call	 ?IsMapReady@CMapManager@@QAE_NXZ ; CMapManager::IsMapReady
  00008	84 c0		 test	 al, al
  0000a	74 0f		 je	 SHORT $LN1@ClearGuild

; 669  : 		return;
; 670  : 
; 671  : 	CMapOutdoor& rkMap=GetMapOutdoorRef();

  0000c	8b ce		 mov	 ecx, esi
  0000e	e8 00 00 00 00	 call	 ?GetMapOutdoorRef@CMapManager@@QAEAAVCMapOutdoor@@XZ ; CMapManager::GetMapOutdoorRef

; 672  : 	rkMap.ClearGuildArea();

  00013	8b c8		 mov	 ecx, eax
  00015	5e		 pop	 esi
  00016	e9 00 00 00 00	 jmp	 ?ClearGuildArea@CMapOutdoor@@QAEXXZ ; CMapOutdoor::ClearGuildArea
$LN1@ClearGuild:
  0001b	5e		 pop	 esi

; 673  : }

  0001c	c3		 ret	 0
?ClearGuildArea@CPythonBackground@@QAEXXZ ENDP		; CPythonBackground::ClearGuildArea
_TEXT	ENDS
; Function compile flags: /Ogtp
; File D:\Metin2 Server Files\mainline\SRC_2014\Metin2Client\UserInterface\PythonBackground.cpp
; File C:\Program Files (x86)\Microsoft Visual Studio\2019\Community\VC\Tools\MSVC\14.28.29333\include\xstring
; File D:\Metin2 Server Files\mainline\SRC_2014\Metin2Client\UserInterface\PythonBackground.cpp
; File C:\Program Files (x86)\Microsoft Visual Studio\2019\Community\VC\Tools\MSVC\14.28.29333\include\xmemory
; File C:\Program Files (x86)\Microsoft Visual Studio\2019\Community\VC\Tools\MSVC\14.28.29333\include\xstring
; File C:\Program Files (x86)\Microsoft Visual Studio\2019\Community\VC\Tools\MSVC\14.28.29333\include\xmemory
; File D:\Metin2 Server Files\mainline\SRC_2014\Metin2Client\UserInterface\PythonBackground.cpp
; File C:\Program Files (x86)\Microsoft Visual Studio\2019\Community\VC\Tools\MSVC\14.28.29333\include\xstring
; File C:\Program Files (x86)\Microsoft Visual Studio\2019\Community\VC\Tools\MSVC\14.28.29333\include\xmemory
; File C:\Program Files (x86)\Microsoft Visual Studio\2019\Community\VC\Tools\MSVC\14.28.29333\include\xstring
; File C:\Program Files (x86)\Microsoft Visual Studio\2019\Community\VC\Tools\MSVC\14.28.29333\include\xmemory
; File D:\Metin2 Server Files\mainline\SRC_2014\Metin2Client\UserInterface\PythonBackground.cpp
; File C:\Program Files (x86)\Microsoft Visual Studio\2019\Community\VC\Tools\MSVC\14.28.29333\include\xstring
; File C:\Program Files (x86)\Microsoft Visual Studio\2019\Community\VC\Tools\MSVC\14.28.29333\include\xmemory
; File C:\Program Files (x86)\Microsoft Visual Studio\2019\Community\VC\Tools\MSVC\14.28.29333\include\xstring
; File D:\Metin2 Server Files\mainline\SRC_2014\Metin2Client\UserInterface\PythonBackground.cpp
; File C:\Program Files (x86)\Microsoft Visual Studio\2019\Community\VC\Tools\MSVC\14.28.29333\include\xmemory
; File C:\Program Files (x86)\Microsoft Visual Studio\2019\Community\VC\Tools\MSVC\14.28.29333\include\xstring
; File C:\Program Files (x86)\Microsoft Visual Studio\2019\Community\VC\Tools\MSVC\14.28.29333\include\xmemory
; File D:\Metin2 Server Files\mainline\SRC_2014\Metin2Client\UserInterface\PythonBackground.cpp
; File C:\Program Files (x86)\Microsoft Visual Studio\2019\Community\VC\Tools\MSVC\14.28.29333\include\xstring
; File C:\Program Files (x86)\Microsoft Visual Studio\2019\Community\VC\Tools\MSVC\14.28.29333\include\xmemory
; File C:\Program Files (x86)\Microsoft Visual Studio\2019\Community\VC\Tools\MSVC\14.28.29333\include\xstring
; File C:\Program Files (x86)\Microsoft Visual Studio\2019\Community\VC\Tools\MSVC\14.28.29333\include\xmemory
; File D:\Metin2 Server Files\mainline\SRC_2014\Metin2Client\UserInterface\PythonBackground.cpp
; File C:\Program Files (x86)\Microsoft Visual Studio\2019\Community\VC\Tools\MSVC\14.28.29333\include\xstring
; File C:\Program Files (x86)\Microsoft Visual Studio\2019\Community\VC\Tools\MSVC\14.28.29333\include\xmemory
; File C:\Program Files (x86)\Microsoft Visual Studio\2019\Community\VC\Tools\MSVC\14.28.29333\include\xstring
; File D:\Metin2 Server Files\mainline\SRC_2014\Metin2Client\UserInterface\PythonBackground.cpp
;	COMDAT ?SetXMaxTree@CPythonBackground@@QAEXH@Z
_TEXT	SEGMENT
__New_ptr$2 = -16					; size = 4
__New_ptr$3 = -16					; size = 4
__New_ptr$4 = -16					; size = 4
__New_ptr$5 = -16					; size = 4
__New_ptr$6 = -16					; size = 4
__New_ptr$7 = -16					; size = 4
__$EHRec$ = -12						; size = 12
_rkMap$1$ = 8						; size = 4
_iGrade$ = 8						; size = 4
?SetXMaxTree@CPythonBackground@@QAEXH@Z PROC		; CPythonBackground::SetXMaxTree, COMDAT
; _this$ = ecx

; 824  : {

  00000	55		 push	 ebp
  00001	8b ec		 mov	 ebp, esp
  00003	6a ff		 push	 -1
  00005	68 00 00 00 00	 push	 __ehhandler$?SetXMaxTree@CPythonBackground@@QAEXH@Z
  0000a	64 a1 00 00 00
	00		 mov	 eax, DWORD PTR fs:0
  00010	50		 push	 eax
  00011	51		 push	 ecx
  00012	56		 push	 esi
  00013	57		 push	 edi
  00014	a1 00 00 00 00	 mov	 eax, DWORD PTR ___security_cookie
  00019	33 c5		 xor	 eax, ebp
  0001b	50		 push	 eax
  0001c	8d 45 f4	 lea	 eax, DWORD PTR __$EHRec$[ebp]
  0001f	64 a3 00 00 00
	00		 mov	 DWORD PTR fs:0, eax
  00025	8b f9		 mov	 edi, ecx

; 825  : 	if (!m_pkMap)

  00027	83 bf 30 14 00
	00 00		 cmp	 DWORD PTR [edi+5168], 0
  0002e	0f 84 f2 00 00
	00		 je	 $LN1@SetXMaxTre

; 826  : 		return;
; 827  : 
; 828  : 	assert(iGrade >= 0 && iGrade <= 3);
; 829  : 	m_iXMasTreeGrade = iGrade;

  00034	8b 75 08	 mov	 esi, DWORD PTR _iGrade$[ebp]
  00037	89 b7 54 15 00
	00		 mov	 DWORD PTR [edi+5460], esi

; 830  : 
; 831  : 	CMapOutdoor& rkMap=GetMapOutdoorRef();

  0003d	e8 00 00 00 00	 call	 ?GetMapOutdoorRef@CMapManager@@QAEAAVCMapOutdoor@@XZ ; CMapManager::GetMapOutdoorRef

; 832  : 
; 833  : 	if ("map_n_snowm_01" != m_strMapName)

  00042	8d 8f e0 14 00
	00		 lea	 ecx, DWORD PTR [edi+5344]
  00048	89 45 08	 mov	 DWORD PTR _rkMap$1$[ebp], eax
  0004b	51		 push	 ecx
  0004c	68 00 00 00 00	 push	 OFFSET ??_C@_0P@EOAEHOGM@map_n_snowm_01@
  00051	e8 00 00 00 00	 call	 ??$?9DU?$char_traits@D@std@@V?$allocator@D@1@@std@@YA_NQBDABV?$basic_string@DU?$char_traits@D@std@@V?$allocator@D@2@@0@@Z ; std::operator!=<char,std::char_traits<char>,std::allocator<char> >
  00056	83 c4 08	 add	 esp, 8
  00059	84 c0		 test	 al, al
  0005b	0f 85 bd 00 00
	00		 jne	 $LN317@SetXMaxTre

; 834  : 	{
; 835  : 		rkMap.XMasTree_Destroy();
; 836  : 		return;
; 837  : 	}
; 838  : 
; 839  : 	if (0 == iGrade)

  00061	85 f6		 test	 esi, esi
  00063	0f 84 b5 00 00
	00		 je	 $LN317@SetXMaxTre

; 851  : 	static std::string s_strTreeName[3] = {

  00069	8b 0d 00 00 00
	00		 mov	 ecx, DWORD PTR __tls_index
  0006f	4e		 dec	 esi
  00070	33 c0		 xor	 eax, eax
  00072	85 f6		 test	 esi, esi
  00074	0f 4f c6	 cmovg	 eax, esi
  00077	be 02 00 00 00	 mov	 esi, 2
  0007c	3b c6		 cmp	 eax, esi
  0007e	0f 4c f0	 cmovl	 esi, eax
  00081	64 a1 00 00 00
	00		 mov	 eax, DWORD PTR fs:__tls_array
  00087	8b 3c 88	 mov	 edi, DWORD PTR [eax+ecx*4]
  0008a	a1 00 00 00 00	 mov	 eax, DWORD PTR ?$TSS0@?1??SetXMaxTree@CPythonBackground@@QAEXH@Z@4HA
  0008f	3b 87 00 00 00
	00		 cmp	 eax, DWORD PTR __Init_thread_epoch[edi]
  00095	0f 8f 9e 00 00
	00		 jg	 $LN320@SetXMaxTre
$LN2@SetXMaxTre:

; 856  : 	static std::string s_strEffectName[3] = {

  0009b	a1 00 00 00 00	 mov	 eax, DWORD PTR ?$TSS1@?1??SetXMaxTree@CPythonBackground@@QAEXH@Z@4HA
  000a0	3b 87 00 00 00
	00		 cmp	 eax, DWORD PTR __Init_thread_epoch[edi]
  000a6	0f 8f f5 01 00
	00		 jg	 $LN321@SetXMaxTre
$LN3@SetXMaxTre:

; 861  : 	rkMap.XMasTree_Set(c_v3TreePos.x, c_v3TreePos.y, c_v3TreePos.z, s_strTreeName[iGrade].c_str(), s_strEffectName[iGrade].c_str());

  000ac	8d 04 76	 lea	 eax, DWORD PTR [esi+esi*2]
; File C:\Program Files (x86)\Microsoft Visual Studio\2019\Community\VC\Tools\MSVC\14.28.29333\include\xstring

; 2227 :         return _BUF_SIZE <= _Myres;

  000af	83 3c c5 14 00
	00 00 10	 cmp	 DWORD PTR ?s_strEffectName@?1??SetXMaxTree@CPythonBackground@@QAEXH@Z@4PAV?$basic_string@DU?$char_traits@D@std@@V?$allocator@D@2@@std@@A[eax*8+20], 16 ; 00000010H

; 3752 :         return _Mypair._Myval2._Myptr();

  000b7	8d 0c c5 00 00
	00 00		 lea	 ecx, DWORD PTR ?s_strEffectName@?1??SetXMaxTree@CPythonBackground@@QAEXH@Z@4PAV?$basic_string@DU?$char_traits@D@std@@V?$allocator@D@2@@std@@A[eax*8]

; 2219 :         if (_Large_string_engaged()) {

  000be	72 02		 jb	 SHORT $LN306@SetXMaxTre

; 2220 :             _Result = _Unfancy(_Bx._Ptr);

  000c0	8b 09		 mov	 ecx, DWORD PTR [ecx]
$LN306@SetXMaxTre:

; 2227 :         return _BUF_SIZE <= _Myres;

  000c2	83 3c c5 14 00
	00 00 10	 cmp	 DWORD PTR ?s_strTreeName@?1??SetXMaxTree@CPythonBackground@@QAEXH@Z@4PAV?$basic_string@DU?$char_traits@D@std@@V?$allocator@D@2@@std@@A[eax*8+20], 16 ; 00000010H

; 3752 :         return _Mypair._Myval2._Myptr();

  000ca	8d 04 c5 00 00
	00 00		 lea	 eax, DWORD PTR ?s_strTreeName@?1??SetXMaxTree@CPythonBackground@@QAEXH@Z@4PAV?$basic_string@DU?$char_traits@D@std@@V?$allocator@D@2@@std@@A[eax*8]

; 2219 :         if (_Large_string_engaged()) {

  000d1	72 02		 jb	 SHORT $LN313@SetXMaxTre

; 2220 :             _Result = _Unfancy(_Bx._Ptr);

  000d3	8b 00		 mov	 eax, DWORD PTR [eax]
$LN313@SetXMaxTre:
; File D:\Metin2 Server Files\mainline\SRC_2014\Metin2Client\UserInterface\PythonBackground.cpp

; 861  : 	rkMap.XMasTree_Set(c_v3TreePos.x, c_v3TreePos.y, c_v3TreePos.z, s_strTreeName[iGrade].c_str(), s_strEffectName[iGrade].c_str());

  000d5	f3 0f 10 05 08
	00 00 00	 movss	 xmm0, DWORD PTR ?c_v3TreePos@@3UD3DXVECTOR3@@B+8
  000dd	51		 push	 ecx
  000de	8b 4d 08	 mov	 ecx, DWORD PTR _rkMap$1$[ebp]
  000e1	50		 push	 eax
  000e2	83 ec 0c	 sub	 esp, 12			; 0000000cH
  000e5	f3 0f 11 44 24
	08		 movss	 DWORD PTR [esp+8], xmm0
  000eb	f3 0f 10 05 04
	00 00 00	 movss	 xmm0, DWORD PTR ?c_v3TreePos@@3UD3DXVECTOR3@@B+4
  000f3	f3 0f 11 44 24
	04		 movss	 DWORD PTR [esp+4], xmm0
  000f9	f3 0f 10 05 00
	00 00 00	 movss	 xmm0, DWORD PTR ?c_v3TreePos@@3UD3DXVECTOR3@@B
  00101	f3 0f 11 04 24	 movss	 DWORD PTR [esp], xmm0
  00106	e8 00 00 00 00	 call	 ?XMasTree_Set@CMapOutdoor@@QAEXMMMPBD0@Z ; CMapOutdoor::XMasTree_Set

; 862  : }

  0010b	8b 4d f4	 mov	 ecx, DWORD PTR __$EHRec$[ebp]
  0010e	64 89 0d 00 00
	00 00		 mov	 DWORD PTR fs:0, ecx
  00115	59		 pop	 ecx
  00116	5f		 pop	 edi
  00117	5e		 pop	 esi
  00118	8b e5		 mov	 esp, ebp
  0011a	5d		 pop	 ebp
  0011b	c2 04 00	 ret	 4
$LN317@SetXMaxTre:

; 840  : 	{
; 841  : 		rkMap.XMasTree_Destroy();

  0011e	8b 4d 08	 mov	 ecx, DWORD PTR _rkMap$1$[ebp]
  00121	e8 00 00 00 00	 call	 ?XMasTree_Destroy@CMapOutdoor@@QAEXXZ ; CMapOutdoor::XMasTree_Destroy
$LN1@SetXMaxTre:

; 862  : }

  00126	8b 4d f4	 mov	 ecx, DWORD PTR __$EHRec$[ebp]
  00129	64 89 0d 00 00
	00 00		 mov	 DWORD PTR fs:0, ecx
  00130	59		 pop	 ecx
  00131	5f		 pop	 edi
  00132	5e		 pop	 esi
  00133	8b e5		 mov	 esp, ebp
  00135	5d		 pop	 ebp
  00136	c2 04 00	 ret	 4
$LN320@SetXMaxTre:

; 851  : 	static std::string s_strTreeName[3] = {

  00139	68 00 00 00 00	 push	 OFFSET ?$TSS0@?1??SetXMaxTree@CPythonBackground@@QAEXH@Z@4HA
  0013e	e8 00 00 00 00	 call	 __Init_thread_header
  00143	83 c4 04	 add	 esp, 4
  00146	83 3d 00 00 00
	00 ff		 cmp	 DWORD PTR ?$TSS0@?1??SetXMaxTree@CPythonBackground@@QAEXH@Z@4HA, -1
  0014d	0f 85 48 ff ff
	ff		 jne	 $LN2@SetXMaxTre
; File C:\Program Files (x86)\Microsoft Visual Studio\2019\Community\VC\Tools\MSVC\14.28.29333\include\xmemory

; 814  :         return static_cast<_Ty*>(_Allocate<_New_alignof<_Ty>>(_Get_size_of_n<sizeof(_Ty)>(_Count)));

  00153	6a 30		 push	 48			; 00000030H
  00155	e8 00 00 00 00	 call	 ??$_Allocate@$07U_Default_allocate_traits@std@@$0A@@std@@YAPAXI@Z ; std::_Allocate<8,std::_Default_allocate_traits,0>
; File C:\Program Files (x86)\Microsoft Visual Studio\2019\Community\VC\Tools\MSVC\14.28.29333\include\xstring

; 62   :         _CSTD memcpy(_First1, _First2, _Count * sizeof(_Elem));

  0015a	0f 10 05 00 00
	00 00		 movups	 xmm0, XMMWORD PTR ??_C@_0CF@PCFPEOFC@d?3?1ymir?5work?1tree?1christmastree@

; 4314 :         _Mypair._Myval2._Mysize = _New_size;

  00161	c7 05 10 00 00
	00 24 00 00 00	 mov	 DWORD PTR ?s_strTreeName@?1??SetXMaxTree@CPythonBackground@@QAEXH@Z@4PAV?$basic_string@DU?$char_traits@D@std@@V?$allocator@D@2@@std@@A+16, 36 ; 00000024H

; 4315 :         _Mypair._Myval2._Myres  = _New_capacity;

  0016b	c7 05 14 00 00
	00 2f 00 00 00	 mov	 DWORD PTR ?s_strTreeName@?1??SetXMaxTree@CPythonBackground@@QAEXH@Z@4PAV?$basic_string@DU?$char_traits@D@std@@V?$allocator@D@2@@std@@A+20, 47 ; 0000002fH

; 62   :         _CSTD memcpy(_First1, _First2, _Count * sizeof(_Elem));

  00175	0f 11 00	 movups	 XMMWORD PTR [eax], xmm0

; 4312 :         const pointer _New_ptr        = _Al.allocate(_New_capacity + 1); // throws

  00178	89 45 f0	 mov	 DWORD PTR __New_ptr$7[ebp], eax

; 62   :         _CSTD memcpy(_First1, _First2, _Count * sizeof(_Elem));

  0017b	0f 10 05 10 00
	00 00		 movups	 xmm0, XMMWORD PTR ??_C@_0CF@PCFPEOFC@d?3?1ymir?5work?1tree?1christmastree@+16
  00182	0f 11 40 10	 movups	 XMMWORD PTR [eax+16], xmm0
  00186	8b 0d 20 00 00
	00		 mov	 ecx, DWORD PTR ??_C@_0CF@PCFPEOFC@d?3?1ymir?5work?1tree?1christmastree@+32
  0018c	89 48 20	 mov	 DWORD PTR [eax+32], ecx

; 3056 :                 _Traits::assign(_New_ptr[_Count], _Elem());

  0018f	c6 40 24 00	 mov	 BYTE PTR [eax+36], 0

; 4321 :             _Construct_in_place(_Mypair._Myval2._Bx._Ptr, _New_ptr);

  00193	8d 45 f0	 lea	 eax, DWORD PTR __New_ptr$7[ebp]
  00196	50		 push	 eax
  00197	68 00 00 00 00	 push	 OFFSET ?s_strTreeName@?1??SetXMaxTree@CPythonBackground@@QAEXH@Z@4PAV?$basic_string@DU?$char_traits@D@std@@V?$allocator@D@2@@std@@A
  0019c	e8 00 00 00 00	 call	 ??$_Construct_in_place@PADABQAD@std@@YAXAAPADABQAD@Z ; std::_Construct_in_place<char *,char * const &>
; File C:\Program Files (x86)\Microsoft Visual Studio\2019\Community\VC\Tools\MSVC\14.28.29333\include\xmemory

; 814  :         return static_cast<_Ty*>(_Allocate<_New_alignof<_Ty>>(_Get_size_of_n<sizeof(_Ty)>(_Count)));

  001a1	6a 30		 push	 48			; 00000030H
; File D:\Metin2 Server Files\mainline\SRC_2014\Metin2Client\UserInterface\PythonBackground.cpp

; 852  : 		"d:/ymir work/tree/christmastree1.spt",

  001a3	c7 45 fc 00 00
	00 00		 mov	 DWORD PTR __$EHRec$[ebp+8], 0
; File C:\Program Files (x86)\Microsoft Visual Studio\2019\Community\VC\Tools\MSVC\14.28.29333\include\xstring

; 4377 :         _Mypair._Myval2._Mysize = 0;

  001aa	c7 05 28 00 00
	00 00 00 00 00	 mov	 DWORD PTR ?s_strTreeName@?1??SetXMaxTree@CPythonBackground@@QAEXH@Z@4PAV?$basic_string@DU?$char_traits@D@std@@V?$allocator@D@2@@std@@A+40, 0

; 4378 :         _Mypair._Myval2._Myres  = _BUF_SIZE - 1;

  001b4	c7 05 2c 00 00
	00 0f 00 00 00	 mov	 DWORD PTR ?s_strTreeName@?1??SetXMaxTree@CPythonBackground@@QAEXH@Z@4PAV?$basic_string@DU?$char_traits@D@std@@V?$allocator@D@2@@std@@A+44, 15 ; 0000000fH

; 4379 :         // the _Traits::assign is last so the codegen doesn't think the char write can alias this
; 4380 :         _Traits::assign(_Mypair._Myval2._Bx._Buf[0], _Elem());

  001be	c6 05 18 00 00
	00 00		 mov	 BYTE PTR ?s_strTreeName@?1??SetXMaxTree@CPythonBackground@@QAEXH@Z@4PAV?$basic_string@DU?$char_traits@D@std@@V?$allocator@D@2@@std@@A+24, 0
; File C:\Program Files (x86)\Microsoft Visual Studio\2019\Community\VC\Tools\MSVC\14.28.29333\include\xmemory

; 814  :         return static_cast<_Ty*>(_Allocate<_New_alignof<_Ty>>(_Get_size_of_n<sizeof(_Ty)>(_Count)));

  001c5	e8 00 00 00 00	 call	 ??$_Allocate@$07U_Default_allocate_traits@std@@$0A@@std@@YAPAXI@Z ; std::_Allocate<8,std::_Default_allocate_traits,0>
; File C:\Program Files (x86)\Microsoft Visual Studio\2019\Community\VC\Tools\MSVC\14.28.29333\include\xstring

; 62   :         _CSTD memcpy(_First1, _First2, _Count * sizeof(_Elem));

  001ca	0f 10 05 00 00
	00 00		 movups	 xmm0, XMMWORD PTR ??_C@_0CF@HEMLDMPM@d?3?1ymir?5work?1tree?1christmastree@

; 4314 :         _Mypair._Myval2._Mysize = _New_size;

  001d1	c7 05 28 00 00
	00 24 00 00 00	 mov	 DWORD PTR ?s_strTreeName@?1??SetXMaxTree@CPythonBackground@@QAEXH@Z@4PAV?$basic_string@DU?$char_traits@D@std@@V?$allocator@D@2@@std@@A+40, 36 ; 00000024H

; 4315 :         _Mypair._Myval2._Myres  = _New_capacity;

  001db	c7 05 2c 00 00
	00 2f 00 00 00	 mov	 DWORD PTR ?s_strTreeName@?1??SetXMaxTree@CPythonBackground@@QAEXH@Z@4PAV?$basic_string@DU?$char_traits@D@std@@V?$allocator@D@2@@std@@A+44, 47 ; 0000002fH

; 62   :         _CSTD memcpy(_First1, _First2, _Count * sizeof(_Elem));

  001e5	0f 11 00	 movups	 XMMWORD PTR [eax], xmm0

; 4312 :         const pointer _New_ptr        = _Al.allocate(_New_capacity + 1); // throws

  001e8	89 45 f0	 mov	 DWORD PTR __New_ptr$6[ebp], eax

; 62   :         _CSTD memcpy(_First1, _First2, _Count * sizeof(_Elem));

  001eb	0f 10 05 10 00
	00 00		 movups	 xmm0, XMMWORD PTR ??_C@_0CF@HEMLDMPM@d?3?1ymir?5work?1tree?1christmastree@+16
  001f2	0f 11 40 10	 movups	 XMMWORD PTR [eax+16], xmm0
  001f6	8b 0d 20 00 00
	00		 mov	 ecx, DWORD PTR ??_C@_0CF@HEMLDMPM@d?3?1ymir?5work?1tree?1christmastree@+32
  001fc	89 48 20	 mov	 DWORD PTR [eax+32], ecx

; 3056 :                 _Traits::assign(_New_ptr[_Count], _Elem());

  001ff	c6 40 24 00	 mov	 BYTE PTR [eax+36], 0

; 4321 :             _Construct_in_place(_Mypair._Myval2._Bx._Ptr, _New_ptr);

  00203	8d 45 f0	 lea	 eax, DWORD PTR __New_ptr$6[ebp]
  00206	50		 push	 eax
  00207	68 18 00 00 00	 push	 OFFSET ?s_strTreeName@?1??SetXMaxTree@CPythonBackground@@QAEXH@Z@4PAV?$basic_string@DU?$char_traits@D@std@@V?$allocator@D@2@@std@@A+24
  0020c	e8 00 00 00 00	 call	 ??$_Construct_in_place@PADABQAD@std@@YAXAAPADABQAD@Z ; std::_Construct_in_place<char *,char * const &>
; File C:\Program Files (x86)\Microsoft Visual Studio\2019\Community\VC\Tools\MSVC\14.28.29333\include\xmemory

; 814  :         return static_cast<_Ty*>(_Allocate<_New_alignof<_Ty>>(_Get_size_of_n<sizeof(_Ty)>(_Count)));

  00211	6a 30		 push	 48			; 00000030H
; File D:\Metin2 Server Files\mainline\SRC_2014\Metin2Client\UserInterface\PythonBackground.cpp

; 853  : 		"d:/ymir work/tree/christmastree2.spt",

  00213	c6 45 fc 01	 mov	 BYTE PTR __$EHRec$[ebp+8], 1
; File C:\Program Files (x86)\Microsoft Visual Studio\2019\Community\VC\Tools\MSVC\14.28.29333\include\xstring

; 4377 :         _Mypair._Myval2._Mysize = 0;

  00217	c7 05 40 00 00
	00 00 00 00 00	 mov	 DWORD PTR ?s_strTreeName@?1??SetXMaxTree@CPythonBackground@@QAEXH@Z@4PAV?$basic_string@DU?$char_traits@D@std@@V?$allocator@D@2@@std@@A+64, 0

; 4378 :         _Mypair._Myval2._Myres  = _BUF_SIZE - 1;

  00221	c7 05 44 00 00
	00 0f 00 00 00	 mov	 DWORD PTR ?s_strTreeName@?1??SetXMaxTree@CPythonBackground@@QAEXH@Z@4PAV?$basic_string@DU?$char_traits@D@std@@V?$allocator@D@2@@std@@A+68, 15 ; 0000000fH

; 4379 :         // the _Traits::assign is last so the codegen doesn't think the char write can alias this
; 4380 :         _Traits::assign(_Mypair._Myval2._Bx._Buf[0], _Elem());

  0022b	c6 05 30 00 00
	00 00		 mov	 BYTE PTR ?s_strTreeName@?1??SetXMaxTree@CPythonBackground@@QAEXH@Z@4PAV?$basic_string@DU?$char_traits@D@std@@V?$allocator@D@2@@std@@A+48, 0
; File C:\Program Files (x86)\Microsoft Visual Studio\2019\Community\VC\Tools\MSVC\14.28.29333\include\xmemory

; 814  :         return static_cast<_Ty*>(_Allocate<_New_alignof<_Ty>>(_Get_size_of_n<sizeof(_Ty)>(_Count)));

  00232	e8 00 00 00 00	 call	 ??$_Allocate@$07U_Default_allocate_traits@std@@$0A@@std@@YAPAXI@Z ; std::_Allocate<8,std::_Default_allocate_traits,0>
; File C:\Program Files (x86)\Microsoft Visual Studio\2019\Community\VC\Tools\MSVC\14.28.29333\include\xstring

; 62   :         _CSTD memcpy(_First1, _First2, _Count * sizeof(_Elem));

  00237	0f 10 05 00 00
	00 00		 movups	 xmm0, XMMWORD PTR ??_C@_0CF@LPJHOPFJ@d?3?1ymir?5work?1tree?1christmastree@

; 4314 :         _Mypair._Myval2._Mysize = _New_size;

  0023e	c7 05 40 00 00
	00 24 00 00 00	 mov	 DWORD PTR ?s_strTreeName@?1??SetXMaxTree@CPythonBackground@@QAEXH@Z@4PAV?$basic_string@DU?$char_traits@D@std@@V?$allocator@D@2@@std@@A+64, 36 ; 00000024H

; 4315 :         _Mypair._Myval2._Myres  = _New_capacity;

  00248	c7 05 44 00 00
	00 2f 00 00 00	 mov	 DWORD PTR ?s_strTreeName@?1??SetXMaxTree@CPythonBackground@@QAEXH@Z@4PAV?$basic_string@DU?$char_traits@D@std@@V?$allocator@D@2@@std@@A+68, 47 ; 0000002fH

; 62   :         _CSTD memcpy(_First1, _First2, _Count * sizeof(_Elem));

  00252	0f 11 00	 movups	 XMMWORD PTR [eax], xmm0

; 4312 :         const pointer _New_ptr        = _Al.allocate(_New_capacity + 1); // throws

  00255	89 45 f0	 mov	 DWORD PTR __New_ptr$5[ebp], eax

; 62   :         _CSTD memcpy(_First1, _First2, _Count * sizeof(_Elem));

  00258	0f 10 05 10 00
	00 00		 movups	 xmm0, XMMWORD PTR ??_C@_0CF@LPJHOPFJ@d?3?1ymir?5work?1tree?1christmastree@+16
  0025f	0f 11 40 10	 movups	 XMMWORD PTR [eax+16], xmm0
  00263	8b 0d 20 00 00
	00		 mov	 ecx, DWORD PTR ??_C@_0CF@LPJHOPFJ@d?3?1ymir?5work?1tree?1christmastree@+32
  00269	89 48 20	 mov	 DWORD PTR [eax+32], ecx

; 3056 :                 _Traits::assign(_New_ptr[_Count], _Elem());

  0026c	c6 40 24 00	 mov	 BYTE PTR [eax+36], 0

; 4321 :             _Construct_in_place(_Mypair._Myval2._Bx._Ptr, _New_ptr);

  00270	8d 45 f0	 lea	 eax, DWORD PTR __New_ptr$5[ebp]
  00273	50		 push	 eax
  00274	68 30 00 00 00	 push	 OFFSET ?s_strTreeName@?1??SetXMaxTree@CPythonBackground@@QAEXH@Z@4PAV?$basic_string@DU?$char_traits@D@std@@V?$allocator@D@2@@std@@A+48
  00279	e8 00 00 00 00	 call	 ??$_Construct_in_place@PADABQAD@std@@YAXAAPADABQAD@Z ; std::_Construct_in_place<char *,char * const &>
; File D:\Metin2 Server Files\mainline\SRC_2014\Metin2Client\UserInterface\PythonBackground.cpp

; 851  : 	static std::string s_strTreeName[3] = {

  0027e	68 00 00 00 00	 push	 OFFSET ??__Fs_strTreeName@?1??SetXMaxTree@CPythonBackground@@QAEXH@Z@YAXXZ ; `CPythonBackground::SetXMaxTree'::`2'::`dynamic atexit destructor for 's_strTreeName''
  00283	c7 45 fc ff ff
	ff ff		 mov	 DWORD PTR __$EHRec$[ebp+8], -1
  0028a	e8 00 00 00 00	 call	 _atexit
  0028f	68 00 00 00 00	 push	 OFFSET ?$TSS0@?1??SetXMaxTree@CPythonBackground@@QAEXH@Z@4HA
  00294	e8 00 00 00 00	 call	 __Init_thread_footer
  00299	83 c4 2c	 add	 esp, 44			; 0000002cH
  0029c	e9 fa fd ff ff	 jmp	 $LN2@SetXMaxTre
$LN321@SetXMaxTre:

; 856  : 	static std::string s_strEffectName[3] = {

  002a1	68 00 00 00 00	 push	 OFFSET ?$TSS1@?1??SetXMaxTree@CPythonBackground@@QAEXH@Z@4HA
  002a6	e8 00 00 00 00	 call	 __Init_thread_header
  002ab	83 c4 04	 add	 esp, 4
  002ae	83 3d 00 00 00
	00 ff		 cmp	 DWORD PTR ?$TSS1@?1??SetXMaxTree@CPythonBackground@@QAEXH@Z@4HA, -1
  002b5	0f 85 f1 fd ff
	ff		 jne	 $LN3@SetXMaxTre
; File C:\Program Files (x86)\Microsoft Visual Studio\2019\Community\VC\Tools\MSVC\14.28.29333\include\xmemory

; 814  :         return static_cast<_Ty*>(_Allocate<_New_alignof<_Ty>>(_Get_size_of_n<sizeof(_Ty)>(_Count)));

  002bb	6a 40		 push	 64			; 00000040H
  002bd	e8 00 00 00 00	 call	 ??$_Allocate@$07U_Default_allocate_traits@std@@$0A@@std@@YAPAXI@Z ; std::_Allocate<8,std::_Default_allocate_traits,0>
; File C:\Program Files (x86)\Microsoft Visual Studio\2019\Community\VC\Tools\MSVC\14.28.29333\include\xstring

; 62   :         _CSTD memcpy(_First1, _First2, _Count * sizeof(_Elem));

  002c2	0f 10 05 00 00
	00 00		 movups	 xmm0, XMMWORD PTR ??_C@_0DD@NHFFJCJH@d?3?1ymir?5work?1effect?1etc?1christm@

; 4312 :         const pointer _New_ptr        = _Al.allocate(_New_capacity + 1); // throws

  002c9	8b c8		 mov	 ecx, eax

; 4313 :         _Mypair._Myval2._Orphan_all();
; 4314 :         _Mypair._Myval2._Mysize = _New_size;

  002cb	c7 05 10 00 00
	00 32 00 00 00	 mov	 DWORD PTR ?s_strEffectName@?1??SetXMaxTree@CPythonBackground@@QAEXH@Z@4PAV?$basic_string@DU?$char_traits@D@std@@V?$allocator@D@2@@std@@A+16, 50 ; 00000032H

; 4315 :         _Mypair._Myval2._Myres  = _New_capacity;

  002d5	c7 05 14 00 00
	00 3f 00 00 00	 mov	 DWORD PTR ?s_strEffectName@?1??SetXMaxTree@CPythonBackground@@QAEXH@Z@4PAV?$basic_string@DU?$char_traits@D@std@@V?$allocator@D@2@@std@@A+20, 63 ; 0000003fH
  002df	89 4d f0	 mov	 DWORD PTR __New_ptr$4[ebp], ecx

; 62   :         _CSTD memcpy(_First1, _First2, _Count * sizeof(_Elem));

  002e2	0f 11 01	 movups	 XMMWORD PTR [ecx], xmm0
  002e5	0f 10 05 10 00
	00 00		 movups	 xmm0, XMMWORD PTR ??_C@_0DD@NHFFJCJH@d?3?1ymir?5work?1effect?1etc?1christm@+16
  002ec	0f 11 41 10	 movups	 XMMWORD PTR [ecx+16], xmm0
  002f0	0f 10 05 20 00
	00 00		 movups	 xmm0, XMMWORD PTR ??_C@_0DD@NHFFJCJH@d?3?1ymir?5work?1effect?1etc?1christm@+32
  002f7	0f 11 41 20	 movups	 XMMWORD PTR [ecx+32], xmm0
  002fb	0f b7 05 30 00
	00 00		 movzx	 eax, WORD PTR ??_C@_0DD@NHFFJCJH@d?3?1ymir?5work?1effect?1etc?1christm@+48
  00302	66 89 41 30	 mov	 WORD PTR [ecx+48], ax

; 4321 :             _Construct_in_place(_Mypair._Myval2._Bx._Ptr, _New_ptr);

  00306	8d 45 f0	 lea	 eax, DWORD PTR __New_ptr$4[ebp]
  00309	50		 push	 eax
  0030a	68 00 00 00 00	 push	 OFFSET ?s_strEffectName@?1??SetXMaxTree@CPythonBackground@@QAEXH@Z@4PAV?$basic_string@DU?$char_traits@D@std@@V?$allocator@D@2@@std@@A

; 3056 :                 _Traits::assign(_New_ptr[_Count], _Elem());

  0030f	c6 41 32 00	 mov	 BYTE PTR [ecx+50], 0

; 4321 :             _Construct_in_place(_Mypair._Myval2._Bx._Ptr, _New_ptr);

  00313	e8 00 00 00 00	 call	 ??$_Construct_in_place@PADABQAD@std@@YAXAAPADABQAD@Z ; std::_Construct_in_place<char *,char * const &>
; File C:\Program Files (x86)\Microsoft Visual Studio\2019\Community\VC\Tools\MSVC\14.28.29333\include\xmemory

; 814  :         return static_cast<_Ty*>(_Allocate<_New_alignof<_Ty>>(_Get_size_of_n<sizeof(_Ty)>(_Count)));

  00318	6a 40		 push	 64			; 00000040H
; File D:\Metin2 Server Files\mainline\SRC_2014\Metin2Client\UserInterface\PythonBackground.cpp

; 857  : 		"d:/ymir work/effect/etc/christmas_tree/tree_1s.mse",

  0031a	c7 45 fc 02 00
	00 00		 mov	 DWORD PTR __$EHRec$[ebp+8], 2
; File C:\Program Files (x86)\Microsoft Visual Studio\2019\Community\VC\Tools\MSVC\14.28.29333\include\xstring

; 4377 :         _Mypair._Myval2._Mysize = 0;

  00321	c7 05 28 00 00
	00 00 00 00 00	 mov	 DWORD PTR ?s_strEffectName@?1??SetXMaxTree@CPythonBackground@@QAEXH@Z@4PAV?$basic_string@DU?$char_traits@D@std@@V?$allocator@D@2@@std@@A+40, 0

; 4378 :         _Mypair._Myval2._Myres  = _BUF_SIZE - 1;

  0032b	c7 05 2c 00 00
	00 0f 00 00 00	 mov	 DWORD PTR ?s_strEffectName@?1??SetXMaxTree@CPythonBackground@@QAEXH@Z@4PAV?$basic_string@DU?$char_traits@D@std@@V?$allocator@D@2@@std@@A+44, 15 ; 0000000fH

; 4379 :         // the _Traits::assign is last so the codegen doesn't think the char write can alias this
; 4380 :         _Traits::assign(_Mypair._Myval2._Bx._Buf[0], _Elem());

  00335	c6 05 18 00 00
	00 00		 mov	 BYTE PTR ?s_strEffectName@?1??SetXMaxTree@CPythonBackground@@QAEXH@Z@4PAV?$basic_string@DU?$char_traits@D@std@@V?$allocator@D@2@@std@@A+24, 0
; File C:\Program Files (x86)\Microsoft Visual Studio\2019\Community\VC\Tools\MSVC\14.28.29333\include\xmemory

; 814  :         return static_cast<_Ty*>(_Allocate<_New_alignof<_Ty>>(_Get_size_of_n<sizeof(_Ty)>(_Count)));

  0033c	e8 00 00 00 00	 call	 ??$_Allocate@$07U_Default_allocate_traits@std@@$0A@@std@@YAPAXI@Z ; std::_Allocate<8,std::_Default_allocate_traits,0>
; File C:\Program Files (x86)\Microsoft Visual Studio\2019\Community\VC\Tools\MSVC\14.28.29333\include\xstring

; 62   :         _CSTD memcpy(_First1, _First2, _Count * sizeof(_Elem));

  00341	0f 10 05 00 00
	00 00		 movups	 xmm0, XMMWORD PTR ??_C@_0DD@OGLNIIAK@d?3?1ymir?5work?1effect?1etc?1christm@

; 4312 :         const pointer _New_ptr        = _Al.allocate(_New_capacity + 1); // throws

  00348	8b c8		 mov	 ecx, eax

; 4313 :         _Mypair._Myval2._Orphan_all();
; 4314 :         _Mypair._Myval2._Mysize = _New_size;

  0034a	c7 05 28 00 00
	00 32 00 00 00	 mov	 DWORD PTR ?s_strEffectName@?1??SetXMaxTree@CPythonBackground@@QAEXH@Z@4PAV?$basic_string@DU?$char_traits@D@std@@V?$allocator@D@2@@std@@A+40, 50 ; 00000032H

; 4315 :         _Mypair._Myval2._Myres  = _New_capacity;

  00354	c7 05 2c 00 00
	00 3f 00 00 00	 mov	 DWORD PTR ?s_strEffectName@?1??SetXMaxTree@CPythonBackground@@QAEXH@Z@4PAV?$basic_string@DU?$char_traits@D@std@@V?$allocator@D@2@@std@@A+44, 63 ; 0000003fH
  0035e	89 4d f0	 mov	 DWORD PTR __New_ptr$3[ebp], ecx

; 62   :         _CSTD memcpy(_First1, _First2, _Count * sizeof(_Elem));

  00361	0f 11 01	 movups	 XMMWORD PTR [ecx], xmm0
  00364	0f 10 05 10 00
	00 00		 movups	 xmm0, XMMWORD PTR ??_C@_0DD@OGLNIIAK@d?3?1ymir?5work?1effect?1etc?1christm@+16
  0036b	0f 11 41 10	 movups	 XMMWORD PTR [ecx+16], xmm0
  0036f	0f 10 05 20 00
	00 00		 movups	 xmm0, XMMWORD PTR ??_C@_0DD@OGLNIIAK@d?3?1ymir?5work?1effect?1etc?1christm@+32
  00376	0f 11 41 20	 movups	 XMMWORD PTR [ecx+32], xmm0
  0037a	0f b7 05 30 00
	00 00		 movzx	 eax, WORD PTR ??_C@_0DD@OGLNIIAK@d?3?1ymir?5work?1effect?1etc?1christm@+48
  00381	66 89 41 30	 mov	 WORD PTR [ecx+48], ax

; 4321 :             _Construct_in_place(_Mypair._Myval2._Bx._Ptr, _New_ptr);

  00385	8d 45 f0	 lea	 eax, DWORD PTR __New_ptr$3[ebp]
  00388	50		 push	 eax
  00389	68 18 00 00 00	 push	 OFFSET ?s_strEffectName@?1??SetXMaxTree@CPythonBackground@@QAEXH@Z@4PAV?$basic_string@DU?$char_traits@D@std@@V?$allocator@D@2@@std@@A+24

; 3056 :                 _Traits::assign(_New_ptr[_Count], _Elem());

  0038e	c6 41 32 00	 mov	 BYTE PTR [ecx+50], 0

; 4321 :             _Construct_in_place(_Mypair._Myval2._Bx._Ptr, _New_ptr);

  00392	e8 00 00 00 00	 call	 ??$_Construct_in_place@PADABQAD@std@@YAXAAPADABQAD@Z ; std::_Construct_in_place<char *,char * const &>
; File C:\Program Files (x86)\Microsoft Visual Studio\2019\Community\VC\Tools\MSVC\14.28.29333\include\xmemory

; 814  :         return static_cast<_Ty*>(_Allocate<_New_alignof<_Ty>>(_Get_size_of_n<sizeof(_Ty)>(_Count)));

  00397	6a 40		 push	 64			; 00000040H
; File D:\Metin2 Server Files\mainline\SRC_2014\Metin2Client\UserInterface\PythonBackground.cpp

; 858  : 		"d:/ymir work/effect/etc/christmas_tree/tree_2s.mse",

  00399	c6 45 fc 03	 mov	 BYTE PTR __$EHRec$[ebp+8], 3
; File C:\Program Files (x86)\Microsoft Visual Studio\2019\Community\VC\Tools\MSVC\14.28.29333\include\xstring

; 4377 :         _Mypair._Myval2._Mysize = 0;

  0039d	c7 05 40 00 00
	00 00 00 00 00	 mov	 DWORD PTR ?s_strEffectName@?1??SetXMaxTree@CPythonBackground@@QAEXH@Z@4PAV?$basic_string@DU?$char_traits@D@std@@V?$allocator@D@2@@std@@A+64, 0

; 4378 :         _Mypair._Myval2._Myres  = _BUF_SIZE - 1;

  003a7	c7 05 44 00 00
	00 0f 00 00 00	 mov	 DWORD PTR ?s_strEffectName@?1??SetXMaxTree@CPythonBackground@@QAEXH@Z@4PAV?$basic_string@DU?$char_traits@D@std@@V?$allocator@D@2@@std@@A+68, 15 ; 0000000fH

; 4379 :         // the _Traits::assign is last so the codegen doesn't think the char write can alias this
; 4380 :         _Traits::assign(_Mypair._Myval2._Bx._Buf[0], _Elem());

  003b1	c6 05 30 00 00
	00 00		 mov	 BYTE PTR ?s_strEffectName@?1??SetXMaxTree@CPythonBackground@@QAEXH@Z@4PAV?$basic_string@DU?$char_traits@D@std@@V?$allocator@D@2@@std@@A+48, 0
; File C:\Program Files (x86)\Microsoft Visual Studio\2019\Community\VC\Tools\MSVC\14.28.29333\include\xmemory

; 814  :         return static_cast<_Ty*>(_Allocate<_New_alignof<_Ty>>(_Get_size_of_n<sizeof(_Ty)>(_Count)));

  003b8	e8 00 00 00 00	 call	 ??$_Allocate@$07U_Default_allocate_traits@std@@$0A@@std@@YAPAXI@Z ; std::_Allocate<8,std::_Default_allocate_traits,0>
; File C:\Program Files (x86)\Microsoft Visual Studio\2019\Community\VC\Tools\MSVC\14.28.29333\include\xstring

; 62   :         _CSTD memcpy(_First1, _First2, _Count * sizeof(_Elem));

  003bd	0f 10 05 00 00
	00 00		 movups	 xmm0, XMMWORD PTR ??_C@_0DD@EAMKIDLO@d?3?1ymir?5work?1effect?1etc?1christm@

; 4312 :         const pointer _New_ptr        = _Al.allocate(_New_capacity + 1); // throws

  003c4	8b c8		 mov	 ecx, eax

; 4313 :         _Mypair._Myval2._Orphan_all();
; 4314 :         _Mypair._Myval2._Mysize = _New_size;

  003c6	c7 05 40 00 00
	00 32 00 00 00	 mov	 DWORD PTR ?s_strEffectName@?1??SetXMaxTree@CPythonBackground@@QAEXH@Z@4PAV?$basic_string@DU?$char_traits@D@std@@V?$allocator@D@2@@std@@A+64, 50 ; 00000032H

; 4315 :         _Mypair._Myval2._Myres  = _New_capacity;

  003d0	c7 05 44 00 00
	00 3f 00 00 00	 mov	 DWORD PTR ?s_strEffectName@?1??SetXMaxTree@CPythonBackground@@QAEXH@Z@4PAV?$basic_string@DU?$char_traits@D@std@@V?$allocator@D@2@@std@@A+68, 63 ; 0000003fH
  003da	89 4d f0	 mov	 DWORD PTR __New_ptr$2[ebp], ecx

; 62   :         _CSTD memcpy(_First1, _First2, _Count * sizeof(_Elem));

  003dd	0f 11 01	 movups	 XMMWORD PTR [ecx], xmm0
  003e0	0f 10 05 10 00
	00 00		 movups	 xmm0, XMMWORD PTR ??_C@_0DD@EAMKIDLO@d?3?1ymir?5work?1effect?1etc?1christm@+16
  003e7	0f 11 41 10	 movups	 XMMWORD PTR [ecx+16], xmm0
  003eb	0f 10 05 20 00
	00 00		 movups	 xmm0, XMMWORD PTR ??_C@_0DD@EAMKIDLO@d?3?1ymir?5work?1effect?1etc?1christm@+32
  003f2	0f 11 41 20	 movups	 XMMWORD PTR [ecx+32], xmm0
  003f6	0f b7 05 30 00
	00 00		 movzx	 eax, WORD PTR ??_C@_0DD@EAMKIDLO@d?3?1ymir?5work?1effect?1etc?1christm@+48
  003fd	66 89 41 30	 mov	 WORD PTR [ecx+48], ax

; 4321 :             _Construct_in_place(_Mypair._Myval2._Bx._Ptr, _New_ptr);

  00401	8d 45 f0	 lea	 eax, DWORD PTR __New_ptr$2[ebp]
  00404	50		 push	 eax
  00405	68 30 00 00 00	 push	 OFFSET ?s_strEffectName@?1??SetXMaxTree@CPythonBackground@@QAEXH@Z@4PAV?$basic_string@DU?$char_traits@D@std@@V?$allocator@D@2@@std@@A+48

; 3056 :                 _Traits::assign(_New_ptr[_Count], _Elem());

  0040a	c6 41 32 00	 mov	 BYTE PTR [ecx+50], 0

; 4321 :             _Construct_in_place(_Mypair._Myval2._Bx._Ptr, _New_ptr);

  0040e	e8 00 00 00 00	 call	 ??$_Construct_in_place@PADABQAD@std@@YAXAAPADABQAD@Z ; std::_Construct_in_place<char *,char * const &>
; File D:\Metin2 Server Files\mainline\SRC_2014\Metin2Client\UserInterface\PythonBackground.cpp

; 856  : 	static std::string s_strEffectName[3] = {

  00413	68 00 00 00 00	 push	 OFFSET ??__Fs_strEffectName@?1??SetXMaxTree@CPythonBackground@@QAEXH@Z@YAXXZ ; `CPythonBackground::SetXMaxTree'::`2'::`dynamic atexit destructor for 's_strEffectName''
  00418	c7 45 fc ff ff
	ff ff		 mov	 DWORD PTR __$EHRec$[ebp+8], -1
  0041f	e8 00 00 00 00	 call	 _atexit
  00424	68 00 00 00 00	 push	 OFFSET ?$TSS1@?1??SetXMaxTree@CPythonBackground@@QAEXH@Z@4HA
  00429	e8 00 00 00 00	 call	 __Init_thread_footer
  0042e	83 c4 2c	 add	 esp, 44			; 0000002cH
  00431	e9 76 fc ff ff	 jmp	 $LN3@SetXMaxTre
_TEXT	ENDS
;	COMDAT text$x
text$x	SEGMENT
__unwindfunclet$?SetXMaxTree@CPythonBackground@@QAEXH@Z$0:
  00000	b9 00 00 00 00	 mov	 ecx, OFFSET ?s_strTreeName@?1??SetXMaxTree@CPythonBackground@@QAEXH@Z@4PAV?$basic_string@DU?$char_traits@D@std@@V?$allocator@D@2@@std@@A
  00005	e9 00 00 00 00	 jmp	 ??1?$basic_string@DU?$char_traits@D@std@@V?$allocator@D@2@@std@@QAE@XZ ; std::basic_string<char,std::char_traits<char>,std::allocator<char> >::~basic_string<char,std::char_traits<char>,std::allocator<char> >
__unwindfunclet$?SetXMaxTree@CPythonBackground@@QAEXH@Z$1:
  0000a	b9 18 00 00 00	 mov	 ecx, OFFSET ?s_strTreeName@?1??SetXMaxTree@CPythonBackground@@QAEXH@Z@4PAV?$basic_string@DU?$char_traits@D@std@@V?$allocator@D@2@@std@@A+24
  0000f	e9 00 00 00 00	 jmp	 ??1?$basic_string@DU?$char_traits@D@std@@V?$allocator@D@2@@std@@QAE@XZ ; std::basic_string<char,std::char_traits<char>,std::allocator<char> >::~basic_string<char,std::char_traits<char>,std::allocator<char> >
__unwindfunclet$?SetXMaxTree@CPythonBackground@@QAEXH@Z$3:
  00014	b9 00 00 00 00	 mov	 ecx, OFFSET ?s_strEffectName@?1??SetXMaxTree@CPythonBackground@@QAEXH@Z@4PAV?$basic_string@DU?$char_traits@D@std@@V?$allocator@D@2@@std@@A
  00019	e9 00 00 00 00	 jmp	 ??1?$basic_string@DU?$char_traits@D@std@@V?$allocator@D@2@@std@@QAE@XZ ; std::basic_string<char,std::char_traits<char>,std::allocator<char> >::~basic_string<char,std::char_traits<char>,std::allocator<char> >
__unwindfunclet$?SetXMaxTree@CPythonBackground@@QAEXH@Z$4:
  0001e	b9 18 00 00 00	 mov	 ecx, OFFSET ?s_strEffectName@?1??SetXMaxTree@CPythonBackground@@QAEXH@Z@4PAV?$basic_string@DU?$char_traits@D@std@@V?$allocator@D@2@@std@@A+24
  00023	e9 00 00 00 00	 jmp	 ??1?$basic_string@DU?$char_traits@D@std@@V?$allocator@D@2@@std@@QAE@XZ ; std::basic_string<char,std::char_traits<char>,std::allocator<char> >::~basic_string<char,std::char_traits<char>,std::allocator<char> >
  00028	cc		 int	 3
  00029	cc		 int	 3
  0002a	cc		 int	 3
  0002b	cc		 int	 3
  0002c	cc		 int	 3
__ehhandler$?SetXMaxTree@CPythonBackground@@QAEXH@Z:
  0002d	90		 npad	 1
  0002e	90		 npad	 1
  0002f	8b 54 24 08	 mov	 edx, DWORD PTR [esp+8]
  00033	8d 42 0c	 lea	 eax, DWORD PTR [edx+12]
  00036	8b 4a f0	 mov	 ecx, DWORD PTR [edx-16]
  00039	33 c8		 xor	 ecx, eax
  0003b	e8 00 00 00 00	 call	 @__security_check_cookie@4
  00040	b8 00 00 00 00	 mov	 eax, OFFSET __ehfuncinfo$?SetXMaxTree@CPythonBackground@@QAEXH@Z
  00045	e9 00 00 00 00	 jmp	 ___CxxFrameHandler3
text$x	ENDS
?SetXMaxTree@CPythonBackground@@QAEXH@Z ENDP		; CPythonBackground::SetXMaxTree
; Function compile flags: /Ogtp
; File D:\Metin2 Server Files\mainline\SRC_2014\Metin2Client\UserInterface\PythonBackground.cpp
;	COMDAT ?DisableSnowEnvironment@CPythonBackground@@QAEXXZ
_TEXT	SEGMENT
?DisableSnowEnvironment@CPythonBackground@@QAEXXZ PROC	; CPythonBackground::DisableSnowEnvironment, COMDAT
; _this$ = ecx

; 818  : 	m_SnowEnvironment.Disable();

  00000	81 c1 f8 14 00
	00		 add	 ecx, 5368		; 000014f8H
  00006	e9 00 00 00 00	 jmp	 ?Disable@CSnowEnvironment@@QAEXXZ ; CSnowEnvironment::Disable
?DisableSnowEnvironment@CPythonBackground@@QAEXXZ ENDP	; CPythonBackground::DisableSnowEnvironment
_TEXT	ENDS
; Function compile flags: /Ogtp
; File D:\Metin2 Server Files\mainline\SRC_2014\Metin2Client\UserInterface\PythonBackground.cpp
;	COMDAT ?EnableSnowEnvironment@CPythonBackground@@QAEXXZ
_TEXT	SEGMENT
?EnableSnowEnvironment@CPythonBackground@@QAEXXZ PROC	; CPythonBackground::EnableSnowEnvironment, COMDAT
; _this$ = ecx

; 813  : 	m_SnowEnvironment.Enable();

  00000	81 c1 f8 14 00
	00		 add	 ecx, 5368		; 000014f8H
  00006	e9 00 00 00 00	 jmp	 ?Enable@CSnowEnvironment@@QAEXXZ ; CSnowEnvironment::Enable
?EnableSnowEnvironment@CPythonBackground@@QAEXXZ ENDP	; CPythonBackground::EnableSnowEnvironment
_TEXT	ENDS
; Function compile flags: /Ogtp
; File D:\Metin2 Server Files\mainline\SRC_2014\Metin2Client\UserInterface\PythonBackground.cpp
;	COMDAT ?ChangeToNight@CPythonBackground@@QAEXXZ
_TEXT	SEGMENT
?ChangeToNight@CPythonBackground@@QAEXXZ PROC		; CPythonBackground::ChangeToNight, COMDAT
; _this$ = ecx

; 808  : 	m_iDayMode = DAY_MODE_DARK;

  00000	c7 81 50 15 00
	00 01 00 00 00	 mov	 DWORD PTR [ecx+5456], 1

; 809  : }

  0000a	c3		 ret	 0
?ChangeToNight@CPythonBackground@@QAEXXZ ENDP		; CPythonBackground::ChangeToNight
_TEXT	ENDS
; Function compile flags: /Ogtp
; File D:\Metin2 Server Files\mainline\SRC_2014\Metin2Client\UserInterface\PythonBackground.cpp
;	COMDAT ?ChangeToDay@CPythonBackground@@QAEXXZ
_TEXT	SEGMENT
?ChangeToDay@CPythonBackground@@QAEXXZ PROC		; CPythonBackground::ChangeToDay, COMDAT
; _this$ = ecx

; 803  : 	m_iDayMode = DAY_MODE_LIGHT;

  00000	c7 81 50 15 00
	00 00 00 00 00	 mov	 DWORD PTR [ecx+5456], 0

; 804  : }

  0000a	c3		 ret	 0
?ChangeToDay@CPythonBackground@@QAEXXZ ENDP		; CPythonBackground::ChangeToDay
_TEXT	ENDS
; Function compile flags: /Ogtp
; File D:\Metin2 Server Files\mainline\SRC_2014\Metin2Client\UserInterface\PythonBackground.cpp
;	COMDAT ?SetBackgroundDirLight@CPythonBackground@@QAEXXZ
_TEXT	SEGMENT
?SetBackgroundDirLight@CPythonBackground@@QAEXXZ PROC	; CPythonBackground::SetBackgroundDirLight, COMDAT
; _this$ = ecx

; 696  : {

  00000	56		 push	 esi
  00001	8b f1		 mov	 esi, ecx

; 697  : 	if (!IsMapReady())

  00003	e8 00 00 00 00	 call	 ?IsMapReady@CMapManager@@QAE_NXZ ; CMapManager::IsMapReady
  00008	84 c0		 test	 al, al
  0000a	74 1b		 je	 SHORT $LN1@SetBackgro

; 698  : 		return;
; 699  : 	if (!mc_pcurEnvironmentData)

  0000c	8b 86 2c 14 00
	00		 mov	 eax, DWORD PTR [esi+5164]
  00012	85 c0		 test	 eax, eax
  00014	74 11		 je	 SHORT $LN1@SetBackgro

; 700  : 		return;
; 701  : 
; 702  : 	STATEMANAGER.SetLight(0, &mc_pcurEnvironmentData->DirLights[ENV_DIRLIGHT_BACKGROUND]);

  00016	8b 0d 00 00 00
	00		 mov	 ecx, DWORD PTR ?ms_singleton@?$CSingleton@VCStateManager@@@@0PAVCStateManager@@A ; CSingleton<CStateManager>::ms_singleton
  0001c	83 c0 08	 add	 eax, 8
  0001f	50		 push	 eax
  00020	6a 00		 push	 0
  00022	e8 00 00 00 00	 call	 ?SetLight@CStateManager@@QAEXKPBU_D3DLIGHT8@@@Z ; CStateManager::SetLight
$LN1@SetBackgro:

; 703  : }

  00027	5e		 pop	 esi
  00028	c3		 ret	 0
?SetBackgroundDirLight@CPythonBackground@@QAEXXZ ENDP	; CPythonBackground::SetBackgroundDirLight
_TEXT	ENDS
; Function compile flags: /Ogtp
; File D:\Metin2 Server Files\mainline\SRC_2014\Metin2Client\UserInterface\PythonBackground.cpp
;	COMDAT ?SetCharacterDirLight@CPythonBackground@@QAEXXZ
_TEXT	SEGMENT
?SetCharacterDirLight@CPythonBackground@@QAEXXZ PROC	; CPythonBackground::SetCharacterDirLight, COMDAT
; _this$ = ecx

; 685  : {

  00000	56		 push	 esi
  00001	8b f1		 mov	 esi, ecx

; 686  : 	if (!IsMapReady())

  00003	e8 00 00 00 00	 call	 ?IsMapReady@CMapManager@@QAE_NXZ ; CMapManager::IsMapReady
  00008	84 c0		 test	 al, al
  0000a	74 1b		 je	 SHORT $LN1@SetCharact

; 687  : 		return;
; 688  : 
; 689  : 	if (!mc_pcurEnvironmentData)

  0000c	8b 86 2c 14 00
	00		 mov	 eax, DWORD PTR [esi+5164]
  00012	85 c0		 test	 eax, eax
  00014	74 11		 je	 SHORT $LN1@SetCharact

; 690  : 		return;
; 691  : 
; 692  : 	STATEMANAGER.SetLight(0, &mc_pcurEnvironmentData->DirLights[ENV_DIRLIGHT_CHARACTER]);

  00016	8b 0d 00 00 00
	00		 mov	 ecx, DWORD PTR ?ms_singleton@?$CSingleton@VCStateManager@@@@0PAVCStateManager@@A ; CSingleton<CStateManager>::ms_singleton
  0001c	83 c0 70	 add	 eax, 112		; 00000070H
  0001f	50		 push	 eax
  00020	6a 00		 push	 0
  00022	e8 00 00 00 00	 call	 ?SetLight@CStateManager@@QAEXKPBU_D3DLIGHT8@@@Z ; CStateManager::SetLight
$LN1@SetCharact:

; 693  : }

  00027	5e		 pop	 esi
  00028	c3		 ret	 0
?SetCharacterDirLight@CPythonBackground@@QAEXXZ ENDP	; CPythonBackground::SetCharacterDirLight
_TEXT	ENDS
; Function compile flags: /Ogtp
; File D:\Metin2 Server Files\mainline\SRC_2014\Metin2Client\UserInterface\PythonBackground.cpp
; File D:\Metin2 Server Files\mainline\SRC_2014\Metin2Client\eterlib\CullingManager.h
; File D:\Metin2 Server Files\mainline\SRC_2014\Metin2Client\UserInterface\PythonBackground.cpp
; File D:\Metin2 Server Files\mainline\SRC_2014\Metin2Client\eterlib\CullingManager.h
; File D:\Metin2 Server Files\mainline\SRC_2014\Metin2Client\UserInterface\PythonBackground.cpp
; File D:\Metin2 Server Files\mainline\SRC_2014\Metin2Client\eterlib\CullingManager.h
; File D:\Metin2 Server Files\mainline\SRC_2014\Metin2Client\UserInterface\PythonBackground.cpp
; File D:\Metin2 Server Files\mainline\SRC_2014\Metin2Client\eterlib\CullingManager.h
; File D:\Metin2 Server Files\mainline\SRC_2014\Metin2Client\UserInterface\PythonBackground.cpp
; File D:\Metin2 Server Files\mainline\SRC_2014\Metin2Client\eterlib\CullingManager.h
; File D:\Metin2 Server Files\mainline\SRC_2014\Metin2Client\UserInterface\PythonBackground.cpp
; File D:\Metin2 Server Files\mainline\SRC_2014\Metin2Client\eterlib\CullingManager.h
; File D:\Metin2 Server Files\mainline\SRC_2014\Metin2Client\UserInterface\PythonBackground.cpp
;	COMDAT ?CheckAdvancing@CPythonBackground@@QAE_NPAVCInstanceBase@@@Z
_TEXT	SEGMENT
_kCollisionChecker$2 = -60				; size = 8
_kCollisionAdjustChecker$ = -52				; size = 8
_r$3 = -44						; size = 12
_r$4 = -44						; size = 12
_radius$ = -32						; size = 4
_center$ = -28						; size = 12
__$ArrayPad$ = -16					; size = 4
__$EHRec$ = -12						; size = 12
_pInstance$ = 8						; size = 4
?CheckAdvancing@CPythonBackground@@QAE_NPAVCInstanceBase@@@Z PROC ; CPythonBackground::CheckAdvancing, COMDAT
; _this$ = ecx

; 582  : {

  00000	55		 push	 ebp
  00001	8b ec		 mov	 ebp, esp
  00003	6a ff		 push	 -1
  00005	68 00 00 00 00	 push	 __ehhandler$?CheckAdvancing@CPythonBackground@@QAE_NPAVCInstanceBase@@@Z
  0000a	64 a1 00 00 00
	00		 mov	 eax, DWORD PTR fs:0
  00010	50		 push	 eax
  00011	83 ec 30	 sub	 esp, 48			; 00000030H
  00014	a1 00 00 00 00	 mov	 eax, DWORD PTR ___security_cookie
  00019	33 c5		 xor	 eax, ebp
  0001b	89 45 f0	 mov	 DWORD PTR __$ArrayPad$[ebp], eax
  0001e	56		 push	 esi
  0001f	57		 push	 edi
  00020	50		 push	 eax
  00021	8d 45 f4	 lea	 eax, DWORD PTR __$EHRec$[ebp]
  00024	64 a3 00 00 00
	00		 mov	 DWORD PTR fs:0, eax
  0002a	8b 75 08	 mov	 esi, DWORD PTR _pInstance$[ebp]

; 583  : 	if (!IsMapReady())

  0002d	e8 00 00 00 00	 call	 ?IsMapReady@CMapManager@@QAE_NXZ ; CMapManager::IsMapReady
  00032	84 c0		 test	 al, al
  00034	0f 84 be 00 00
	00		 je	 $LN26@CheckAdvan

; 584  : 		return true;
; 585  : 
; 586  : 	Vector3d center;
; 587  : 	float radius;
; 588  : 	pInstance->GetGraphicThingInstanceRef().GetBoundingSphere(center,radius);

  0003a	8b ce		 mov	 ecx, esi
  0003c	e8 00 00 00 00	 call	 ?GetGraphicThingInstanceRef@CInstanceBase@@QAEAAVCActorInstance@@XZ ; CInstanceBase::GetGraphicThingInstanceRef
  00041	8d 4d e0	 lea	 ecx, DWORD PTR _radius$[ebp]
  00044	51		 push	 ecx
  00045	8d 4d e4	 lea	 ecx, DWORD PTR _center$[ebp]
  00048	8b 10		 mov	 edx, DWORD PTR [eax]
  0004a	51		 push	 ecx
  0004b	8b c8		 mov	 ecx, eax
  0004d	ff 52 0c	 call	 DWORD PTR [edx+12]

; 589  : 
; 590  : 	CCullingManager & rkCullingMgr = CCullingManager::Instance();

  00050	8b 3d 00 00 00
	00		 mov	 edi, DWORD PTR ?ms_singleton@?$CSingleton@VCCullingManager@@@@0PAVCCullingManager@@A ; CSingleton<CCullingManager>::ms_singleton
; File D:\Metin2 Server Files\mainline\SRC_2014\Metin2Client\eterlib\CullingManager.h

; 15   : 		: f(fn), dist(distance)

  00056	8d 45 cc	 lea	 eax, DWORD PTR _kCollisionAdjustChecker$[ebp]
; File D:\Metin2 Server Files\mainline\SRC_2014\Metin2Client\UserInterface\PythonBackground.cpp

; 570  : 	CollisionAdjustChecker(CInstanceBase* pInstance) : pInstance(pInstance), isBlocked(false) {}

  00059	c6 45 cc 00	 mov	 BYTE PTR _kCollisionAdjustChecker$[ebp], 0
  0005d	89 75 d0	 mov	 DWORD PTR _kCollisionAdjustChecker$[ebp+4], esi
; File D:\Metin2 Server Files\mainline\SRC_2014\Metin2Client\eterlib\CullingManager.h

; 16   : 	{}

  00060	c7 45 d4 00 00
	00 00		 mov	 DWORD PTR _r$4[ebp], OFFSET ??_7?$RangeTester@UCollisionAdjustChecker@@@@6B@

; 15   : 		: f(fn), dist(distance)

  00067	89 45 d8	 mov	 DWORD PTR _r$4[ebp+4], eax
  0006a	c7 45 dc 00 00
	80 bf		 mov	 DWORD PTR _r$4[ebp+8], -1082130432 ; bf800000H

; 114  : 		m_Factory->RangeTest(p, radius, &r/*this*/);	

  00071	f3 0f 10 45 e0	 movss	 xmm0, DWORD PTR _radius$[ebp]
  00076	8d 45 d4	 lea	 eax, DWORD PTR _r$4[ebp]
  00079	50		 push	 eax
  0007a	51		 push	 ecx
  0007b	8b 4f 1c	 mov	 ecx, DWORD PTR [edi+28]
  0007e	8d 45 e4	 lea	 eax, DWORD PTR _center$[ebp]
  00081	f3 0f 11 04 24	 movss	 DWORD PTR [esp], xmm0
  00086	50		 push	 eax
  00087	c7 45 fc 00 00
	00 00		 mov	 DWORD PTR __$EHRec$[ebp+8], 0
  0008e	e8 00 00 00 00	 call	 ?RangeTest@SpherePackFactory@@QAEXABVVector3d@@MPAVSpherePackCallback@@@Z ; SpherePackFactory::RangeTest
; File D:\Metin2 Server Files\mainline\SRC_2014\Metin2Client\UserInterface\PythonBackground.cpp

; 594  : 	if (kCollisionAdjustChecker.isBlocked)

  00093	80 7d cc 00	 cmp	 BYTE PTR _kCollisionAdjustChecker$[ebp], 0
; File D:\Metin2 Server Files\mainline\SRC_2014\Metin2Client\eterlib\CullingManager.h

; 115  : 	}

  00097	c7 45 fc ff ff
	ff ff		 mov	 DWORD PTR __$EHRec$[ebp+8], -1
; File D:\Metin2 Server Files\mainline\SRC_2014\Metin2Client\UserInterface\PythonBackground.cpp

; 594  : 	if (kCollisionAdjustChecker.isBlocked)

  0009e	74 69		 je	 SHORT $LN3@CheckAdvan
; File D:\Metin2 Server Files\mainline\SRC_2014\Metin2Client\eterlib\CullingManager.h

; 15   : 		: f(fn), dist(distance)

  000a0	8d 45 c4	 lea	 eax, DWORD PTR _kCollisionChecker$2[ebp]
; File D:\Metin2 Server Files\mainline\SRC_2014\Metin2Client\UserInterface\PythonBackground.cpp

; 552  : 	CollisionChecker(CInstanceBase* pInstance) : pInstance(pInstance), isBlocked(false) {}

  000a3	c6 45 c4 00	 mov	 BYTE PTR _kCollisionChecker$2[ebp], 0
  000a7	89 75 c8	 mov	 DWORD PTR _kCollisionChecker$2[ebp+4], esi
; File D:\Metin2 Server Files\mainline\SRC_2014\Metin2Client\eterlib\CullingManager.h

; 16   : 	{}

  000aa	c7 45 d4 00 00
	00 00		 mov	 DWORD PTR _r$3[ebp], OFFSET ??_7?$RangeTester@UCollisionChecker@@@@6B@

; 15   : 		: f(fn), dist(distance)

  000b1	89 45 d8	 mov	 DWORD PTR _r$3[ebp+4], eax
  000b4	c7 45 dc 00 00
	80 bf		 mov	 DWORD PTR _r$3[ebp+8], -1082130432 ; bf800000H

; 114  : 		m_Factory->RangeTest(p, radius, &r/*this*/);	

  000bb	f3 0f 10 45 e0	 movss	 xmm0, DWORD PTR _radius$[ebp]
  000c0	8d 45 d4	 lea	 eax, DWORD PTR _r$3[ebp]
  000c3	50		 push	 eax
  000c4	51		 push	 ecx
  000c5	8b 4f 1c	 mov	 ecx, DWORD PTR [edi+28]
  000c8	8d 45 e4	 lea	 eax, DWORD PTR _center$[ebp]
  000cb	f3 0f 11 04 24	 movss	 DWORD PTR [esp], xmm0
  000d0	50		 push	 eax
  000d1	c7 45 fc 01 00
	00 00		 mov	 DWORD PTR __$EHRec$[ebp+8], 1
  000d8	e8 00 00 00 00	 call	 ?RangeTest@SpherePackFactory@@QAEXABVVector3d@@MPAVSpherePackCallback@@@Z ; SpherePackFactory::RangeTest
; File D:\Metin2 Server Files\mainline\SRC_2014\Metin2Client\UserInterface\PythonBackground.cpp

; 598  : 		if (kCollisionChecker.isBlocked)

  000dd	80 7d c4 00	 cmp	 BYTE PTR _kCollisionChecker$2[ebp], 0
  000e1	8b ce		 mov	 ecx, esi
; File D:\Metin2 Server Files\mainline\SRC_2014\Metin2Client\eterlib\CullingManager.h

; 115  : 	}

  000e3	c7 45 fc ff ff
	ff ff		 mov	 DWORD PTR __$EHRec$[ebp+8], -1
  000ea	c7 45 d4 00 00
	00 00		 mov	 DWORD PTR _r$3[ebp], OFFSET ??_7SpherePackCallback@@6B@
; File D:\Metin2 Server Files\mainline\SRC_2014\Metin2Client\UserInterface\PythonBackground.cpp

; 598  : 		if (kCollisionChecker.isBlocked)

  000f1	74 09		 je	 SHORT $LN4@CheckAdvan

; 599  : 		{
; 600  : 			pInstance->BlockMovement();

  000f3	e8 00 00 00 00	 call	 ?BlockMovement@CInstanceBase@@QAEXXZ ; CInstanceBase::BlockMovement
$LN26@CheckAdvan:

; 606  : 		}
; 607  : 		return false;
; 608  : 	}
; 609  : 	return false;
; 610  : }

  000f8	b0 01		 mov	 al, 1
  000fa	eb 0f		 jmp	 SHORT $LN1@CheckAdvan
$LN4@CheckAdvan:

; 601  : 			return true;
; 602  : 		}
; 603  : 		else
; 604  : 		{
; 605  : 			pInstance->NEW_MoveToDestPixelPositionDirection(pInstance->NEW_GetDstPixelPositionRef());

  000fc	e8 00 00 00 00	 call	 ?NEW_GetDstPixelPositionRef@CInstanceBase@@QAEABUD3DXVECTOR3@@XZ ; CInstanceBase::NEW_GetDstPixelPositionRef
  00101	50		 push	 eax
  00102	8b ce		 mov	 ecx, esi
  00104	e8 00 00 00 00	 call	 ?NEW_MoveToDestPixelPositionDirection@CInstanceBase@@QAE_NABUD3DXVECTOR3@@@Z ; CInstanceBase::NEW_MoveToDestPixelPositionDirection
$LN3@CheckAdvan:

; 606  : 		}
; 607  : 		return false;
; 608  : 	}
; 609  : 	return false;
; 610  : }

  00109	32 c0		 xor	 al, al
$LN1@CheckAdvan:
  0010b	8b 4d f4	 mov	 ecx, DWORD PTR __$EHRec$[ebp]
  0010e	64 89 0d 00 00
	00 00		 mov	 DWORD PTR fs:0, ecx
  00115	59		 pop	 ecx
  00116	5f		 pop	 edi
  00117	5e		 pop	 esi
  00118	8b 4d f0	 mov	 ecx, DWORD PTR __$ArrayPad$[ebp]
  0011b	33 cd		 xor	 ecx, ebp
  0011d	e8 00 00 00 00	 call	 @__security_check_cookie@4
  00122	8b e5		 mov	 esp, ebp
  00124	5d		 pop	 ebp
  00125	c2 04 00	 ret	 4
_TEXT	ENDS
;	COMDAT text$x
text$x	SEGMENT
__unwindfunclet$?CheckAdvancing@CPythonBackground@@QAE_NPAVCInstanceBase@@@Z$0:
  00000	8d 4d d4	 lea	 ecx, DWORD PTR _r$4[ebp]
  00003	e9 00 00 00 00	 jmp	 ??1?$RangeTester@UCollisionAdjustChecker@@@@UAE@XZ ; RangeTester<CollisionAdjustChecker>::~RangeTester<CollisionAdjustChecker>
__unwindfunclet$?CheckAdvancing@CPythonBackground@@QAE_NPAVCInstanceBase@@@Z$1:
  00008	8d 4d d4	 lea	 ecx, DWORD PTR _r$3[ebp]
  0000b	e9 00 00 00 00	 jmp	 ??1?$RangeTester@UCollisionChecker@@@@UAE@XZ ; RangeTester<CollisionChecker>::~RangeTester<CollisionChecker>
  00010	cc		 int	 3
  00011	cc		 int	 3
  00012	cc		 int	 3
  00013	cc		 int	 3
  00014	cc		 int	 3
__ehhandler$?CheckAdvancing@CPythonBackground@@QAE_NPAVCInstanceBase@@@Z:
  00015	90		 npad	 1
  00016	90		 npad	 1
  00017	8b 54 24 08	 mov	 edx, DWORD PTR [esp+8]
  0001b	8d 42 0c	 lea	 eax, DWORD PTR [edx+12]
  0001e	8b 4a c4	 mov	 ecx, DWORD PTR [edx-60]
  00021	33 c8		 xor	 ecx, eax
  00023	e8 00 00 00 00	 call	 @__security_check_cookie@4
  00028	8b 4a fc	 mov	 ecx, DWORD PTR [edx-4]
  0002b	33 c8		 xor	 ecx, eax
  0002d	e8 00 00 00 00	 call	 @__security_check_cookie@4
  00032	b8 00 00 00 00	 mov	 eax, OFFSET __ehfuncinfo$?CheckAdvancing@CPythonBackground@@QAE_NPAVCInstanceBase@@@Z
  00037	e9 00 00 00 00	 jmp	 ___CxxFrameHandler3
text$x	ENDS
?CheckAdvancing@CPythonBackground@@QAE_NPAVCInstanceBase@@@Z ENDP ; CPythonBackground::CheckAdvancing
; Function compile flags: /Ogtp
; File D:\Metin2 Server Files\mainline\SRC_2014\Metin2Client\UserInterface\PythonBackground.cpp
;	COMDAT ?RenderAfterLensFlare@CPythonBackground@@QAEXXZ
_TEXT	SEGMENT
?RenderAfterLensFlare@CPythonBackground@@QAEXXZ PROC	; CPythonBackground::RenderAfterLensFlare, COMDAT
; _this$ = ecx

; 658  : {

  00000	56		 push	 esi
  00001	8b f1		 mov	 esi, ecx

; 659  : 	if (!IsMapReady())

  00003	e8 00 00 00 00	 call	 ?IsMapReady@CMapManager@@QAE_NXZ ; CMapManager::IsMapReady
  00008	84 c0		 test	 al, al
  0000a	74 0f		 je	 SHORT $LN1@RenderAfte

; 660  : 		return;
; 661  : 
; 662  : 	CMapOutdoor& rkMap=GetMapOutdoorRef();

  0000c	8b ce		 mov	 ecx, esi
  0000e	e8 00 00 00 00	 call	 ?GetMapOutdoorRef@CMapManager@@QAEAAVCMapOutdoor@@XZ ; CMapManager::GetMapOutdoorRef

; 663  : 	rkMap.RenderAfterLensFlare();

  00013	8b c8		 mov	 ecx, eax
  00015	5e		 pop	 esi
  00016	e9 00 00 00 00	 jmp	 ?RenderAfterLensFlare@CMapOutdoor@@QAEXXZ ; CMapOutdoor::RenderAfterLensFlare
$LN1@RenderAfte:
  0001b	5e		 pop	 esi

; 664  : }

  0001c	c3		 ret	 0
?RenderAfterLensFlare@CPythonBackground@@QAEXXZ ENDP	; CPythonBackground::RenderAfterLensFlare
_TEXT	ENDS
; Function compile flags: /Ogtp
; File D:\Metin2 Server Files\mainline\SRC_2014\Metin2Client\UserInterface\PythonBackground.cpp
;	COMDAT ?RenderBeforeLensFlare@CPythonBackground@@QAEXXZ
_TEXT	SEGMENT
?RenderBeforeLensFlare@CPythonBackground@@QAEXXZ PROC	; CPythonBackground::RenderBeforeLensFlare, COMDAT
; _this$ = ecx

; 649  : {

  00000	56		 push	 esi
  00001	8b f1		 mov	 esi, ecx

; 650  : 	if (!IsMapReady())

  00003	e8 00 00 00 00	 call	 ?IsMapReady@CMapManager@@QAE_NXZ ; CMapManager::IsMapReady
  00008	84 c0		 test	 al, al
  0000a	74 0f		 je	 SHORT $LN1@RenderBefo

; 651  : 		return;
; 652  : 
; 653  : 	CMapOutdoor& rkMap=GetMapOutdoorRef();

  0000c	8b ce		 mov	 ecx, esi
  0000e	e8 00 00 00 00	 call	 ?GetMapOutdoorRef@CMapManager@@QAEAAVCMapOutdoor@@XZ ; CMapManager::GetMapOutdoorRef

; 654  : 	rkMap.RenderBeforeLensFlare();

  00013	8b c8		 mov	 ecx, eax
  00015	5e		 pop	 esi
  00016	e9 00 00 00 00	 jmp	 ?RenderBeforeLensFlare@CMapOutdoor@@QAEXXZ ; CMapOutdoor::RenderBeforeLensFlare
$LN1@RenderBefo:
  0001b	5e		 pop	 esi

; 655  : }

  0001c	c3		 ret	 0
?RenderBeforeLensFlare@CPythonBackground@@QAEXXZ ENDP	; CPythonBackground::RenderBeforeLensFlare
_TEXT	ENDS
; Function compile flags: /Ogtp
; File D:\Metin2 Server Files\mainline\SRC_2014\Metin2Client\UserInterface\PythonBackground.cpp
;	COMDAT ?RenderEffect@CPythonBackground@@QAEXXZ
_TEXT	SEGMENT
?RenderEffect@CPythonBackground@@QAEXXZ PROC		; CPythonBackground::RenderEffect, COMDAT
; _this$ = ecx

; 640  : {

  00000	56		 push	 esi
  00001	8b f1		 mov	 esi, ecx

; 641  : 	if (!IsMapReady())

  00003	e8 00 00 00 00	 call	 ?IsMapReady@CMapManager@@QAE_NXZ ; CMapManager::IsMapReady
  00008	84 c0		 test	 al, al
  0000a	74 0f		 je	 SHORT $LN1@RenderEffe

; 642  : 		return;
; 643  : 
; 644  : 	CMapOutdoor& rkMap=GetMapOutdoorRef();

  0000c	8b ce		 mov	 ecx, esi
  0000e	e8 00 00 00 00	 call	 ?GetMapOutdoorRef@CMapManager@@QAEAAVCMapOutdoor@@XZ ; CMapManager::GetMapOutdoorRef

; 645  : 	rkMap.RenderEffect();

  00013	8b c8		 mov	 ecx, eax
  00015	5e		 pop	 esi
  00016	e9 00 00 00 00	 jmp	 ?RenderEffect@CMapOutdoor@@QAEXXZ ; CMapOutdoor::RenderEffect
$LN1@RenderEffe:
  0001b	5e		 pop	 esi

; 646  : }

  0001c	c3		 ret	 0
?RenderEffect@CPythonBackground@@QAEXXZ ENDP		; CPythonBackground::RenderEffect
_TEXT	ENDS
; Function compile flags: /Ogtp
; File D:\Metin2 Server Files\mainline\SRC_2014\Metin2Client\UserInterface\PythonBackground.cpp
;	COMDAT ?RenderWater@CPythonBackground@@QAEXXZ
_TEXT	SEGMENT
?RenderWater@CPythonBackground@@QAEXXZ PROC		; CPythonBackground::RenderWater, COMDAT
; _this$ = ecx

; 631  : {

  00000	56		 push	 esi
  00001	8b f1		 mov	 esi, ecx

; 632  : 	if (!IsMapReady())

  00003	e8 00 00 00 00	 call	 ?IsMapReady@CMapManager@@QAE_NXZ ; CMapManager::IsMapReady
  00008	84 c0		 test	 al, al
  0000a	74 0f		 je	 SHORT $LN1@RenderWate

; 633  : 		return;
; 634  : 
; 635  : 	CMapOutdoor& rkMap=GetMapOutdoorRef();

  0000c	8b ce		 mov	 ecx, esi
  0000e	e8 00 00 00 00	 call	 ?GetMapOutdoorRef@CMapManager@@QAEAAVCMapOutdoor@@XZ ; CMapManager::GetMapOutdoorRef

; 636  : 	rkMap.RenderWater();

  00013	8b c8		 mov	 ecx, eax
  00015	5e		 pop	 esi
  00016	e9 00 00 00 00	 jmp	 ?RenderWater@CMapOutdoor@@QAEXXZ ; CMapOutdoor::RenderWater
$LN1@RenderWate:
  0001b	5e		 pop	 esi

; 637  : }

  0001c	c3		 ret	 0
?RenderWater@CPythonBackground@@QAEXXZ ENDP		; CPythonBackground::RenderWater
_TEXT	ENDS
; Function compile flags: /Ogtp
; File D:\Metin2 Server Files\mainline\SRC_2014\Metin2Client\UserInterface\PythonBackground.cpp
;	COMDAT ?RenderCloud@CPythonBackground@@QAEXXZ
_TEXT	SEGMENT
?RenderCloud@CPythonBackground@@QAEXXZ PROC		; CPythonBackground::RenderCloud, COMDAT
; _this$ = ecx

; 622  : {

  00000	56		 push	 esi
  00001	8b f1		 mov	 esi, ecx

; 623  : 	if (!IsMapReady())

  00003	e8 00 00 00 00	 call	 ?IsMapReady@CMapManager@@QAE_NXZ ; CMapManager::IsMapReady
  00008	84 c0		 test	 al, al
  0000a	74 0f		 je	 SHORT $LN1@RenderClou

; 624  : 		return;
; 625  : 
; 626  : 	CMapOutdoor& rkMap=GetMapOutdoorRef();

  0000c	8b ce		 mov	 ecx, esi
  0000e	e8 00 00 00 00	 call	 ?GetMapOutdoorRef@CMapManager@@QAEAAVCMapOutdoor@@XZ ; CMapManager::GetMapOutdoorRef

; 627  : 	rkMap.RenderCloud();

  00013	8b c8		 mov	 ecx, eax
  00015	5e		 pop	 esi
  00016	e9 00 00 00 00	 jmp	 ?RenderCloud@CMapOutdoor@@QAEXXZ ; CMapOutdoor::RenderCloud
$LN1@RenderClou:
  0001b	5e		 pop	 esi

; 628  : }

  0001c	c3		 ret	 0
?RenderCloud@CPythonBackground@@QAEXXZ ENDP		; CPythonBackground::RenderCloud
_TEXT	ENDS
; Function compile flags: /Ogtp
; File D:\Metin2 Server Files\mainline\SRC_2014\Metin2Client\UserInterface\PythonBackground.cpp
;	COMDAT ?RenderSky@CPythonBackground@@QAEXXZ
_TEXT	SEGMENT
?RenderSky@CPythonBackground@@QAEXXZ PROC		; CPythonBackground::RenderSky, COMDAT
; _this$ = ecx

; 613  : {

  00000	56		 push	 esi
  00001	8b f1		 mov	 esi, ecx

; 614  : 	if (!IsMapReady())

  00003	e8 00 00 00 00	 call	 ?IsMapReady@CMapManager@@QAE_NXZ ; CMapManager::IsMapReady
  00008	84 c0		 test	 al, al
  0000a	74 0f		 je	 SHORT $LN1@RenderSky

; 615  : 		return;
; 616  : 
; 617  : 	CMapOutdoor& rkMap=GetMapOutdoorRef();

  0000c	8b ce		 mov	 ecx, esi
  0000e	e8 00 00 00 00	 call	 ?GetMapOutdoorRef@CMapManager@@QAEAAVCMapOutdoor@@XZ ; CMapManager::GetMapOutdoorRef

; 618  : 	rkMap.RenderSky();

  00013	8b c8		 mov	 ecx, eax
  00015	5e		 pop	 esi
  00016	e9 00 00 00 00	 jmp	 ?RenderSky@CMapOutdoor@@QAEXXZ ; CMapOutdoor::RenderSky
$LN1@RenderSky:
  0001b	5e		 pop	 esi

; 619  : }

  0001c	c3		 ret	 0
?RenderSky@CPythonBackground@@QAEXXZ ENDP		; CPythonBackground::RenderSky
_TEXT	ENDS
; Function compile flags: /Ogtp
; File D:\Metin2 Server Files\mainline\SRC_2014\Metin2Client\UserInterface\PythonBackground.cpp
;	COMDAT ?RenderCharacterShadowToTexture@CPythonBackground@@QAEXXZ
_TEXT	SEGMENT
_matWorld$1 = -68					; size = 64
__$ArrayPad$ = -4					; size = 4
?RenderCharacterShadowToTexture@CPythonBackground@@QAEXXZ PROC ; CPythonBackground::RenderCharacterShadowToTexture, COMDAT
; _this$ = ecx

; 505  : {

  00000	55		 push	 ebp
  00001	8b ec		 mov	 ebp, esp
  00003	83 ec 44	 sub	 esp, 68			; 00000044H
  00006	a1 00 00 00 00	 mov	 eax, DWORD PTR ___security_cookie
  0000b	33 c5		 xor	 eax, ebp
  0000d	89 45 fc	 mov	 DWORD PTR __$ArrayPad$[ebp], eax

; 506  : 	extern bool GRAPHICS_CAPS_CAN_NOT_DRAW_SHADOW;
; 507  : 	if (GRAPHICS_CAPS_CAN_NOT_DRAW_SHADOW)

  00010	80 3d 00 00 00
	00 00		 cmp	 BYTE PTR ?GRAPHICS_CAPS_CAN_NOT_DRAW_SHADOW@@3_NA, 0 ; GRAPHICS_CAPS_CAN_NOT_DRAW_SHADOW
  00017	56		 push	 esi
  00018	8b f1		 mov	 esi, ecx
  0001a	0f 85 9d 00 00
	00		 jne	 $LN1@RenderChar

; 508  : 		return;
; 509  : 
; 510  : 	if (!IsMapReady())

  00020	e8 00 00 00 00	 call	 ?IsMapReady@CMapManager@@QAE_NXZ ; CMapManager::IsMapReady
  00025	84 c0		 test	 al, al
  00027	0f 84 90 00 00
	00		 je	 $LN1@RenderChar

; 511  : 		return;
; 512  : 
; 513  : 	CMapOutdoor& rkMap=GetMapOutdoorRef();

  0002d	53		 push	 ebx
  0002e	57		 push	 edi
  0002f	8b ce		 mov	 ecx, esi
  00031	e8 00 00 00 00	 call	 ?GetMapOutdoorRef@CMapManager@@QAEAAVCMapOutdoor@@XZ ; CMapManager::GetMapOutdoorRef
  00036	8b f8		 mov	 edi, eax

; 514  : 	DWORD t1=ELTimer_GetMSec();

  00038	e8 00 00 00 00	 call	 ?ELTimer_GetMSec@@YAKXZ	; ELTimer_GetMSec

; 515  : 
; 516  : 	if (m_eShadowLevel == SHADOW_ALL ||
; 517  : 		m_eShadowLevel == SHADOW_ALL_HIGH ||
; 518  : 		m_eShadowLevel == SHADOW_ALL_MAX ||

  0003d	8b 8e 58 15 00
	00		 mov	 ecx, DWORD PTR [esi+5464]
  00043	8b d8		 mov	 ebx, eax
  00045	83 f9 03	 cmp	 ecx, 3
  00048	74 0f		 je	 SHORT $LN5@RenderChar
  0004a	83 f9 04	 cmp	 ecx, 4
  0004d	74 0a		 je	 SHORT $LN5@RenderChar
  0004f	83 f9 05	 cmp	 ecx, 5
  00052	74 05		 je	 SHORT $LN5@RenderChar
  00054	83 f9 02	 cmp	 ecx, 2
  00057	75 55		 jne	 SHORT $LN4@RenderChar
$LN5@RenderChar:

; 519  : 		m_eShadowLevel == SHADOW_GROUND_AND_SOLO)
; 520  : 	{
; 521  : 		D3DXMATRIX matWorld;
; 522  : 		STATEMANAGER.GetTransform(D3DTS_WORLD, &matWorld);

  00059	8b 0d 00 00 00
	00		 mov	 ecx, DWORD PTR ?ms_singleton@?$CSingleton@VCStateManager@@@@0PAVCStateManager@@A ; CSingleton<CStateManager>::ms_singleton
  0005f	8d 45 bc	 lea	 eax, DWORD PTR _matWorld$1[ebp]
  00062	50		 push	 eax
  00063	68 00 01 00 00	 push	 256			; 00000100H
  00068	e8 00 00 00 00	 call	 ?GetTransform@CStateManager@@QAEXW4_D3DTRANSFORMSTATETYPE@@PAU_D3DMATRIX@@@Z ; CStateManager::GetTransform

; 523  : 
; 524  : 		bool canRender=rkMap.BeginRenderCharacterShadowToTexture();

  0006d	8b cf		 mov	 ecx, edi
  0006f	e8 00 00 00 00	 call	 ?BeginRenderCharacterShadowToTexture@CMapOutdoor@@QAE_NXZ ; CMapOutdoor::BeginRenderCharacterShadowToTexture

; 525  : 		if (canRender)

  00074	84 c0		 test	 al, al
  00076	74 1b		 je	 SHORT $LN8@RenderChar

; 526  : 		{
; 527  : 			CPythonCharacterManager& rkChrMgr=CPythonCharacterManager::Instance();
; 528  : 
; 529  : 			if (m_eShadowLevel == SHADOW_GROUND_AND_SOLO)

  00078	83 be 58 15 00
	00 02		 cmp	 DWORD PTR [esi+5464], 2
  0007f	8b 0d 00 00 00
	00		 mov	 ecx, DWORD PTR ?ms_singleton@?$CSingleton@VCPythonCharacterManager@@@@0PAVCPythonCharacterManager@@A ; CSingleton<CPythonCharacterManager>::ms_singleton
  00085	75 07		 jne	 SHORT $LN7@RenderChar

; 530  : 				rkChrMgr.RenderShadowMainInstance();

  00087	e8 00 00 00 00	 call	 ?RenderShadowMainInstance@CPythonCharacterManager@@QAEXXZ ; CPythonCharacterManager::RenderShadowMainInstance
  0008c	eb 05		 jmp	 SHORT $LN8@RenderChar
$LN7@RenderChar:

; 531  : 			else
; 532  : 				rkChrMgr.RenderShadowAllInstances();

  0008e	e8 00 00 00 00	 call	 ?RenderShadowAllInstances@CPythonCharacterManager@@QAEXXZ ; CPythonCharacterManager::RenderShadowAllInstances
$LN8@RenderChar:

; 533  : 		}
; 534  : 		rkMap.EndRenderCharacterShadowToTexture();

  00093	8b cf		 mov	 ecx, edi
  00095	e8 00 00 00 00	 call	 ?EndRenderCharacterShadowToTexture@CMapOutdoor@@QAEXXZ ; CMapOutdoor::EndRenderCharacterShadowToTexture

; 535  : 
; 536  : 		STATEMANAGER.SetTransform(D3DTS_WORLD, &matWorld);

  0009a	8b 0d 00 00 00
	00		 mov	 ecx, DWORD PTR ?ms_singleton@?$CSingleton@VCStateManager@@@@0PAVCStateManager@@A ; CSingleton<CStateManager>::ms_singleton
  000a0	8d 45 bc	 lea	 eax, DWORD PTR _matWorld$1[ebp]
  000a3	50		 push	 eax
  000a4	68 00 01 00 00	 push	 256			; 00000100H
  000a9	e8 00 00 00 00	 call	 ?SetTransform@CStateManager@@QAEXW4_D3DTRANSFORMSTATETYPE@@PBU_D3DMATRIX@@@Z ; CStateManager::SetTransform
$LN4@RenderChar:

; 537  : 	}
; 538  : 
; 539  : 	DWORD t2=ELTimer_GetMSec();

  000ae	e8 00 00 00 00	 call	 ?ELTimer_GetMSec@@YAKXZ	; ELTimer_GetMSec

; 540  : 
; 541  : 	m_dwRenderShadowTime=t2-t1;	

  000b3	2b c3		 sub	 eax, ebx
  000b5	5f		 pop	 edi
  000b6	89 86 64 15 00
	00		 mov	 DWORD PTR [esi+5476], eax
  000bc	5b		 pop	 ebx
$LN1@RenderChar:

; 542  : }

  000bd	8b 4d fc	 mov	 ecx, DWORD PTR __$ArrayPad$[ebp]
  000c0	33 cd		 xor	 ecx, ebp
  000c2	5e		 pop	 esi
  000c3	e8 00 00 00 00	 call	 @__security_check_cookie@4
  000c8	8b e5		 mov	 esp, ebp
  000ca	5d		 pop	 ebp
  000cb	c3		 ret	 0
?RenderCharacterShadowToTexture@CPythonBackground@@QAEXXZ ENDP ; CPythonBackground::RenderCharacterShadowToTexture
_TEXT	ENDS
; Function compile flags: /Ogtp
; File D:\Metin2 Server Files\mainline\SRC_2014\Metin2Client\UserInterface\PythonBackground.cpp
;	COMDAT ?RenderCollision@CPythonBackground@@QAEXXZ
_TEXT	SEGMENT
?RenderCollision@CPythonBackground@@QAEXXZ PROC		; CPythonBackground::RenderCollision, COMDAT
; _this$ = ecx

; 496  : {

  00000	56		 push	 esi
  00001	8b f1		 mov	 esi, ecx

; 497  : 	if (!IsMapReady())

  00003	e8 00 00 00 00	 call	 ?IsMapReady@CMapManager@@QAE_NXZ ; CMapManager::IsMapReady
  00008	84 c0		 test	 al, al
  0000a	74 0f		 je	 SHORT $LN1@RenderColl

; 498  : 		return;
; 499  : 
; 500  : 	CMapOutdoor& rkMap=GetMapOutdoorRef();

  0000c	8b ce		 mov	 ecx, esi
  0000e	e8 00 00 00 00	 call	 ?GetMapOutdoorRef@CMapManager@@QAEAAVCMapOutdoor@@XZ ; CMapManager::GetMapOutdoorRef

; 501  : 	rkMap.RenderCollision();

  00013	8b c8		 mov	 ecx, eax
  00015	5e		 pop	 esi
  00016	e9 00 00 00 00	 jmp	 ?RenderCollision@CMapOutdoor@@QAEXXZ ; CMapOutdoor::RenderCollision
$LN1@RenderColl:
  0001b	5e		 pop	 esi

; 502  : }

  0001c	c3		 ret	 0
?RenderCollision@CPythonBackground@@QAEXXZ ENDP		; CPythonBackground::RenderCollision
_TEXT	ENDS
; Function compile flags: /Ogtp
; File D:\Metin2 Server Files\mainline\SRC_2014\Metin2Client\UserInterface\PythonBackground.cpp
;	COMDAT ?RenderPCBlocker@CPythonBackground@@QAEXXZ
_TEXT	SEGMENT
?RenderPCBlocker@CPythonBackground@@QAEXXZ PROC		; CPythonBackground::RenderPCBlocker, COMDAT
; _this$ = ecx

; 487  : {

  00000	56		 push	 esi
  00001	8b f1		 mov	 esi, ecx

; 488  : 	if (!IsMapReady())

  00003	e8 00 00 00 00	 call	 ?IsMapReady@CMapManager@@QAE_NXZ ; CMapManager::IsMapReady
  00008	84 c0		 test	 al, al
  0000a	74 0f		 je	 SHORT $LN1@RenderPCBl

; 489  : 		return;
; 490  : 
; 491  : 	CMapOutdoor& rkMap=GetMapOutdoorRef();

  0000c	8b ce		 mov	 ecx, esi
  0000e	e8 00 00 00 00	 call	 ?GetMapOutdoorRef@CMapManager@@QAEAAVCMapOutdoor@@XZ ; CMapManager::GetMapOutdoorRef

; 492  : 	rkMap.RenderPCBlocker();

  00013	8b c8		 mov	 ecx, eax
  00015	5e		 pop	 esi
  00016	e9 00 00 00 00	 jmp	 ?RenderPCBlocker@CMapOutdoor@@QAEXXZ ; CMapOutdoor::RenderPCBlocker
$LN1@RenderPCBl:
  0001b	5e		 pop	 esi

; 493  : }

  0001c	c3		 ret	 0
?RenderPCBlocker@CPythonBackground@@QAEXXZ ENDP		; CPythonBackground::RenderPCBlocker
_TEXT	ENDS
; Function compile flags: /Ogtp
; File D:\Metin2 Server Files\mainline\SRC_2014\Metin2Client\UserInterface\PythonBackground.cpp
;	COMDAT ?RenderSnow@CPythonBackground@@QAEXXZ
_TEXT	SEGMENT
?RenderSnow@CPythonBackground@@QAEXXZ PROC		; CPythonBackground::RenderSnow, COMDAT
; _this$ = ecx

; 483  : 	m_SnowEnvironment.Render();

  00000	81 c1 f8 14 00
	00		 add	 ecx, 5368		; 000014f8H
  00006	e9 00 00 00 00	 jmp	 ?Render@CSnowEnvironment@@QAEXXZ ; CSnowEnvironment::Render
?RenderSnow@CPythonBackground@@QAEXXZ ENDP		; CPythonBackground::RenderSnow
_TEXT	ENDS
; Function compile flags: /Ogtp
; File D:\Metin2 Server Files\mainline\SRC_2014\Metin2Client\UserInterface\PythonBackground.cpp
;	COMDAT ?Render@CPythonBackground@@QAEXXZ
_TEXT	SEGMENT
?Render@CPythonBackground@@QAEXXZ PROC			; CPythonBackground::Render, COMDAT
; _this$ = ecx

; 469  : {

  00000	56		 push	 esi
  00001	8b f1		 mov	 esi, ecx

; 470  : 	if (!IsMapReady())

  00003	e8 00 00 00 00	 call	 ?IsMapReady@CMapManager@@QAE_NXZ ; CMapManager::IsMapReady
  00008	84 c0		 test	 al, al
  0000a	74 2f		 je	 SHORT $LN3@Render

; 471  : 		return;	
; 472  : 
; 473  : 	m_SnowEnvironment.Deform();

  0000c	57		 push	 edi
  0000d	8d 8e f8 14 00
	00		 lea	 ecx, DWORD PTR [esi+5368]
  00013	e8 00 00 00 00	 call	 ?Deform@CSnowEnvironment@@QAEXXZ ; CSnowEnvironment::Deform

; 474  : 
; 475  : 	CMapOutdoor& rkMap=GetMapOutdoorRef();

  00018	8b ce		 mov	 ecx, esi
  0001a	e8 00 00 00 00	 call	 ?GetMapOutdoorRef@CMapManager@@QAEAAVCMapOutdoor@@XZ ; CMapManager::GetMapOutdoorRef
  0001f	8b f8		 mov	 edi, eax

; 476  : 	rkMap.Render();

  00021	8b cf		 mov	 ecx, edi
  00023	e8 00 00 00 00	 call	 ?Render@CMapBase@@QAEXXZ ; CMapBase::Render

; 477  : 	if (m_bVisibleGuildArea)

  00028	83 be 60 15 00
	00 00		 cmp	 DWORD PTR [esi+5472], 0
  0002f	74 09		 je	 SHORT $LN5@Render

; 478  : 		rkMap.RenderMarkedArea();

  00031	8b cf		 mov	 ecx, edi
  00033	5f		 pop	 edi
  00034	5e		 pop	 esi
  00035	e9 00 00 00 00	 jmp	 ?RenderMarkedArea@CMapOutdoor@@QAEXXZ ; CMapOutdoor::RenderMarkedArea
$LN5@Render:
  0003a	5f		 pop	 edi
$LN3@Render:
  0003b	5e		 pop	 esi

; 479  : }

  0003c	c3		 ret	 0
?Render@CPythonBackground@@QAEXXZ ENDP			; CPythonBackground::Render
_TEXT	ENDS
; Function compile flags: /Ogtp
; File D:\Metin2 Server Files\mainline\SRC_2014\Metin2Client\UserInterface\PythonBackground.cpp
;	COMDAT ?ReleaseCharacterShadowTexture@CPythonBackground@@QAEXXZ
_TEXT	SEGMENT
?ReleaseCharacterShadowTexture@CPythonBackground@@QAEXXZ PROC ; CPythonBackground::ReleaseCharacterShadowTexture, COMDAT
; _this$ = ecx

; 65   : 	if (!m_pkMap)

  00000	83 b9 30 14 00
	00 00		 cmp	 DWORD PTR [ecx+5168], 0
  00007	74 0c		 je	 SHORT $LN1@ReleaseCha

; 66   : 		return;
; 67   : 
; 68   : 	CMapOutdoor& rkMap = GetMapOutdoorRef();

  00009	e8 00 00 00 00	 call	 ?GetMapOutdoorRef@CMapManager@@QAEAAVCMapOutdoor@@XZ ; CMapManager::GetMapOutdoorRef

; 69   : 	rkMap.ReleaseCharacterShadowTexture();

  0000e	8b c8		 mov	 ecx, eax
  00010	e9 00 00 00 00	 jmp	 ?ReleaseCharacterShadowTexture@CMapOutdoor@@QAEXXZ ; CMapOutdoor::ReleaseCharacterShadowTexture
$LN1@ReleaseCha:

; 70   : }

  00015	c3		 ret	 0
?ReleaseCharacterShadowTexture@CPythonBackground@@QAEXXZ ENDP ; CPythonBackground::ReleaseCharacterShadowTexture
_TEXT	ENDS
; Function compile flags: /Ogtp
; File D:\Metin2 Server Files\mainline\SRC_2014\Metin2Client\UserInterface\PythonBackground.cpp
;	COMDAT ?CreateCharacterShadowTexture@CPythonBackground@@QAEXXZ
_TEXT	SEGMENT
?CreateCharacterShadowTexture@CPythonBackground@@QAEXXZ PROC ; CPythonBackground::CreateCharacterShadowTexture, COMDAT
; _this$ = ecx

; 56   : 	if (!m_pkMap)

  00000	83 b9 30 14 00
	00 00		 cmp	 DWORD PTR [ecx+5168], 0
  00007	74 0c		 je	 SHORT $LN1@CreateChar

; 57   : 		return;
; 58   : 
; 59   : 	CMapOutdoor& rkMap = GetMapOutdoorRef();

  00009	e8 00 00 00 00	 call	 ?GetMapOutdoorRef@CMapManager@@QAEAAVCMapOutdoor@@XZ ; CMapManager::GetMapOutdoorRef

; 60   : 	rkMap.CreateCharacterShadowTexture();

  0000e	8b c8		 mov	 ecx, eax
  00010	e9 00 00 00 00	 jmp	 ?CreateCharacterShadowTexture@CMapOutdoor@@QAEXXZ ; CMapOutdoor::CreateCharacterShadowTexture
$LN1@CreateChar:

; 61   : }

  00015	c3		 ret	 0
?CreateCharacterShadowTexture@CPythonBackground@@QAEXXZ ENDP ; CPythonBackground::CreateCharacterShadowTexture
_TEXT	ENDS
; Function compile flags: /Ogtp
; File D:\Metin2 Server Files\mainline\SRC_2014\Metin2Client\UserInterface\PythonBackground.cpp
; File D:\Metin2 Server Files\mainline\SRC_2014\M2Data\include\d3dx8math.inl
; File D:\Metin2 Server Files\mainline\SRC_2014\Metin2Client\UserInterface\PythonBackground.cpp
; File D:\Metin2 Server Files\mainline\SRC_2014\M2Data\include\d3dx8math.inl
; File D:\Metin2 Server Files\mainline\SRC_2014\Metin2Client\UserInterface\PythonBackground.cpp
; File D:\Metin2 Server Files\mainline\SRC_2014\M2Data\include\d3dx8math.inl
; File D:\Metin2 Server Files\mainline\SRC_2014\Metin2Client\UserInterface\PythonBackground.cpp
; File D:\Metin2 Server Files\mainline\SRC_2014\M2Data\include\d3dx8math.inl
; File D:\Metin2 Server Files\mainline\SRC_2014\Metin2Client\UserInterface\PythonBackground.cpp
; File C:\Program Files (x86)\Microsoft Visual Studio\2019\Community\VC\Tools\MSVC\14.28.29333\include\xmemory
; File C:\Program Files (x86)\Microsoft Visual Studio\2019\Community\VC\Tools\MSVC\14.28.29333\include\xtree
; File C:\Program Files (x86)\Microsoft Visual Studio\2019\Community\VC\Tools\MSVC\14.28.29333\include\xmemory
; File C:\Program Files (x86)\Microsoft Visual Studio\2019\Community\VC\Tools\MSVC\14.28.29333\include\xtree
; File D:\Metin2 Server Files\mainline\SRC_2014\Metin2Client\UserInterface\PythonBackground.cpp
; File C:\Program Files (x86)\Microsoft Visual Studio\2019\Community\VC\Tools\MSVC\14.28.29333\include\xtree
; File D:\Metin2 Server Files\mainline\SRC_2014\Metin2Client\UserInterface\PythonBackground.cpp
; File C:\Program Files (x86)\Microsoft Visual Studio\2019\Community\VC\Tools\MSVC\14.28.29333\include\xtree
; File D:\Metin2 Server Files\mainline\SRC_2014\Metin2Client\UserInterface\PythonBackground.cpp
; File D:\Metin2 Server Files\mainline\SRC_2014\Metin2Client\SphereLib\vector.h
; File D:\Metin2 Server Files\mainline\SRC_2014\Metin2Client\eterlib\CullingManager.h
; File D:\Metin2 Server Files\mainline\SRC_2014\Metin2Client\SphereLib\vector.h
; File D:\Metin2 Server Files\mainline\SRC_2014\Metin2Client\UserInterface\PythonBackground.cpp
; File D:\Metin2 Server Files\mainline\SRC_2014\Metin2Client\SphereLib\vector.h
; File D:\Metin2 Server Files\mainline\SRC_2014\Metin2Client\eterlib\CullingManager.h
; File D:\Metin2 Server Files\mainline\SRC_2014\Metin2Client\UserInterface\PythonBackground.cpp
; File D:\Metin2 Server Files\mainline\SRC_2014\Metin2Client\eterlib\CullingManager.h
; File D:\Metin2 Server Files\mainline\SRC_2014\Metin2Client\UserInterface\PythonBackground.cpp
; File C:\Program Files (x86)\Microsoft Visual Studio\2019\Community\VC\Tools\MSVC\14.28.29333\include\xtree
; File D:\Metin2 Server Files\mainline\SRC_2014\Metin2Client\UserInterface\PythonBackground.cpp
; File C:\Program Files (x86)\Microsoft Visual Studio\2019\Community\VC\Tools\MSVC\14.28.29333\include\xtree
; File D:\Metin2 Server Files\mainline\SRC_2014\Metin2Client\UserInterface\PythonBackground.cpp
; File C:\Program Files (x86)\Microsoft Visual Studio\2019\Community\VC\Tools\MSVC\14.28.29333\include\xtree
; File D:\Metin2 Server Files\mainline\SRC_2014\Metin2Client\UserInterface\PythonBackground.cpp
; File C:\Program Files (x86)\Microsoft Visual Studio\2019\Community\VC\Tools\MSVC\14.28.29333\include\xstring
; File D:\Metin2 Server Files\mainline\SRC_2014\Metin2Client\UserInterface\PythonBackground.cpp
; File C:\Program Files (x86)\Microsoft Visual Studio\2019\Community\VC\Tools\MSVC\14.28.29333\include\xstring
; File D:\Metin2 Server Files\mainline\SRC_2014\Metin2Client\UserInterface\PythonBackground.cpp
; File C:\Program Files (x86)\Microsoft Visual Studio\2019\Community\VC\Tools\MSVC\14.28.29333\include\xtree
; File D:\Metin2 Server Files\mainline\SRC_2014\Metin2Client\UserInterface\PythonBackground.cpp
; File C:\Program Files (x86)\Microsoft Visual Studio\2019\Community\VC\Tools\MSVC\14.28.29333\include\xtree
; File D:\Metin2 Server Files\mainline\SRC_2014\Metin2Client\UserInterface\PythonBackground.cpp
; File C:\Program Files (x86)\Microsoft Visual Studio\2019\Community\VC\Tools\MSVC\14.28.29333\include\xtree
; File D:\Metin2 Server Files\mainline\SRC_2014\Metin2Client\UserInterface\PythonBackground.cpp
; File C:\Program Files (x86)\Microsoft Visual Studio\2019\Community\VC\Tools\MSVC\14.28.29333\include\xstring
; File D:\Metin2 Server Files\mainline\SRC_2014\Metin2Client\UserInterface\PythonBackground.cpp
; File C:\Program Files (x86)\Microsoft Visual Studio\2019\Community\VC\Tools\MSVC\14.28.29333\include\xstring
; File D:\Metin2 Server Files\mainline\SRC_2014\Metin2Client\UserInterface\PythonBackground.cpp
; File C:\Program Files (x86)\Microsoft Visual Studio\2019\Community\VC\Tools\MSVC\14.28.29333\include\xtree
; File C:\Program Files (x86)\Microsoft Visual Studio\2019\Community\VC\Tools\MSVC\14.28.29333\include\xmemory
; File D:\Metin2 Server Files\mainline\SRC_2014\Metin2Client\UserInterface\PythonBackground.cpp
; File C:\Program Files (x86)\Microsoft Visual Studio\2019\Community\VC\Tools\MSVC\14.28.29333\include\xmemory
; File D:\Metin2 Server Files\mainline\SRC_2014\Metin2Client\UserInterface\PythonBackground.cpp
; File C:\Program Files (x86)\Microsoft Visual Studio\2019\Community\VC\Tools\MSVC\14.28.29333\include\xtree
; File D:\Metin2 Server Files\mainline\SRC_2014\Metin2Client\UserInterface\PythonBackground.cpp
;	COMDAT ?Update@CPythonBackground@@QAEXMMM@Z
_TEXT	SEGMENT
_rkMap$1$ = -92						; size = 4
$T2 = -92						; size = 1
_kGetPortalID$3 = -88					; size = 16
_this$GSCopy$1$ = -72					; size = 4
tv1451 = -72						; size = 4
_fHeight$4 = -72					; size = 4
_ily$1$ = -68						; size = 4
_fCenterZ$GSCopy$1$ = -68				; size = 4
_ilx$1$ = -64						; size = 4
_fCenterX$GSCopy$1$ = -64				; size = 4
_fCenterY$GSCopy$1$ = -60				; size = 4
_dwID$1$ = -60						; size = 4
__Successor$5 = -56					; size = 4
__Pnode$6 = -56						; size = 4
_itor$7 = -56						; size = 4
_itor$8 = -56						; size = 4
_itor$9 = -56						; size = 4
_toTop$10 = -52						; size = 12
_kPixelPosition$11 = -40				; size = 12
_aVector3d$12 = -40					; size = 12
_r$13 = -28						; size = 12
$T14 = -28						; size = 12
__$ArrayPad$ = -16					; size = 4
__$EHRec$ = -12						; size = 12
_fCenterX$ = 8						; size = 4
_fCenterY$ = 12						; size = 4
_fCenterZ$ = 16						; size = 4
?Update@CPythonBackground@@QAEXMMM@Z PROC		; CPythonBackground::Update, COMDAT
; _this$ = ecx

; 340  : {

  00000	55		 push	 ebp
  00001	8b ec		 mov	 ebp, esp
  00003	6a ff		 push	 -1
  00005	68 00 00 00 00	 push	 __ehhandler$?Update@CPythonBackground@@QAEXMMM@Z
  0000a	64 a1 00 00 00
	00		 mov	 eax, DWORD PTR fs:0
  00010	50		 push	 eax
  00011	83 ec 50	 sub	 esp, 80			; 00000050H
  00014	a1 00 00 00 00	 mov	 eax, DWORD PTR ___security_cookie
  00019	33 c5		 xor	 eax, ebp
  0001b	89 45 f0	 mov	 DWORD PTR __$ArrayPad$[ebp], eax
  0001e	56		 push	 esi
  0001f	57		 push	 edi
  00020	50		 push	 eax
  00021	8d 45 f4	 lea	 eax, DWORD PTR __$EHRec$[ebp]
  00024	64 a3 00 00 00
	00		 mov	 DWORD PTR fs:0, eax
  0002a	8b f9		 mov	 edi, ecx
  0002c	89 7d b8	 mov	 DWORD PTR _this$GSCopy$1$[ebp], edi
  0002f	f3 0f 10 45 08	 movss	 xmm0, DWORD PTR _fCenterX$[ebp]
  00034	f3 0f 11 45 c0	 movss	 DWORD PTR _fCenterX$GSCopy$1$[ebp], xmm0
  00039	f3 0f 10 45 0c	 movss	 xmm0, DWORD PTR _fCenterY$[ebp]
  0003e	f3 0f 11 45 c4	 movss	 DWORD PTR _fCenterY$GSCopy$1$[ebp], xmm0
  00043	f3 0f 10 45 10	 movss	 xmm0, DWORD PTR _fCenterZ$[ebp]
  00048	f3 0f 11 45 bc	 movss	 DWORD PTR _fCenterZ$GSCopy$1$[ebp], xmm0

; 341  : 	if (!IsMapReady())

  0004d	e8 00 00 00 00	 call	 ?IsMapReady@CMapManager@@QAE_NXZ ; CMapManager::IsMapReady
  00052	84 c0		 test	 al, al
  00054	0f 84 b1 03 00
	00		 je	 $LN9@Update

; 342  : 		return;
; 343  : #ifdef __PERFORMANCE_CHECKER__
; 344  : 	DWORD t1=ELTimer_GetMSec();
; 345  : #endif
; 346  : 	UpdateMap(fCenterX, fCenterY, fCenterZ);

  0005a	f3 0f 10 45 bc	 movss	 xmm0, DWORD PTR _fCenterZ$GSCopy$1$[ebp]
  0005f	83 ec 0c	 sub	 esp, 12			; 0000000cH
  00062	8b cf		 mov	 ecx, edi
  00064	f3 0f 11 44 24
	08		 movss	 DWORD PTR [esp+8], xmm0
  0006a	f3 0f 10 45 c4	 movss	 xmm0, DWORD PTR _fCenterY$GSCopy$1$[ebp]
  0006f	f3 0f 11 44 24
	04		 movss	 DWORD PTR [esp+4], xmm0
  00075	f3 0f 10 45 c0	 movss	 xmm0, DWORD PTR _fCenterX$GSCopy$1$[ebp]
  0007a	f3 0f 11 04 24	 movss	 DWORD PTR [esp], xmm0
  0007f	e8 00 00 00 00	 call	 ?UpdateMap@CMapManager@@QAE_NMMM@Z ; CMapManager::UpdateMap

; 347  : #ifdef __PERFORMANCE_CHECKER__
; 348  : 	DWORD t2=ELTimer_GetMSec();
; 349  : #endif
; 350  : 	UpdateAroundAmbience(fCenterX, fCenterY, fCenterZ);

  00084	f3 0f 10 45 bc	 movss	 xmm0, DWORD PTR _fCenterZ$GSCopy$1$[ebp]
  00089	83 ec 0c	 sub	 esp, 12			; 0000000cH
  0008c	8b cf		 mov	 ecx, edi
  0008e	f3 0f 11 44 24
	08		 movss	 DWORD PTR [esp+8], xmm0
  00094	f3 0f 10 45 c4	 movss	 xmm0, DWORD PTR _fCenterY$GSCopy$1$[ebp]
  00099	f3 0f 11 44 24
	04		 movss	 DWORD PTR [esp+4], xmm0
  0009f	f3 0f 10 45 c0	 movss	 xmm0, DWORD PTR _fCenterX$GSCopy$1$[ebp]
  000a4	f3 0f 11 04 24	 movss	 DWORD PTR [esp], xmm0
  000a9	e8 00 00 00 00	 call	 ?UpdateAroundAmbience@CMapManager@@QAEXMMM@Z ; CMapManager::UpdateAroundAmbience
; File D:\Metin2 Server Files\mainline\SRC_2014\M2Data\include\d3dx8math.inl

; 180  :     x = fx;

  000ae	f3 0f 10 45 c0	 movss	 xmm0, DWORD PTR _fCenterX$GSCopy$1$[ebp]
; File D:\Metin2 Server Files\mainline\SRC_2014\Metin2Client\UserInterface\PythonBackground.cpp

; 354  : 	m_SnowEnvironment.Update(D3DXVECTOR3(fCenterX, -fCenterY, fCenterZ));

  000b3	8d 45 e4	 lea	 eax, DWORD PTR $T14[ebp]
; File D:\Metin2 Server Files\mainline\SRC_2014\M2Data\include\d3dx8math.inl

; 180  :     x = fx;

  000b6	f3 0f 11 45 e4	 movss	 DWORD PTR $T14[ebp], xmm0
; File D:\Metin2 Server Files\mainline\SRC_2014\Metin2Client\UserInterface\PythonBackground.cpp

; 354  : 	m_SnowEnvironment.Update(D3DXVECTOR3(fCenterX, -fCenterY, fCenterZ));

  000bb	8d 8f f8 14 00
	00		 lea	 ecx, DWORD PTR [edi+5368]
  000c1	f3 0f 10 45 c4	 movss	 xmm0, DWORD PTR _fCenterY$GSCopy$1$[ebp]
  000c6	0f 57 05 00 00
	00 00		 xorps	 xmm0, DWORD PTR __xmm@80000000800000008000000080000000
  000cd	f3 0f 11 45 c4	 movss	 DWORD PTR _fCenterY$GSCopy$1$[ebp], xmm0
; File D:\Metin2 Server Files\mainline\SRC_2014\M2Data\include\d3dx8math.inl

; 181  :     y = fy;

  000d2	f3 0f 11 45 e8	 movss	 DWORD PTR $T14[ebp+4], xmm0

; 182  :     z = fz;

  000d7	f3 0f 10 45 bc	 movss	 xmm0, DWORD PTR _fCenterZ$GSCopy$1$[ebp]
; File D:\Metin2 Server Files\mainline\SRC_2014\Metin2Client\UserInterface\PythonBackground.cpp

; 354  : 	m_SnowEnvironment.Update(D3DXVECTOR3(fCenterX, -fCenterY, fCenterZ));

  000dc	50		 push	 eax
; File D:\Metin2 Server Files\mainline\SRC_2014\M2Data\include\d3dx8math.inl

; 182  :     z = fz;

  000dd	f3 0f 11 45 ec	 movss	 DWORD PTR $T14[ebp+8], xmm0
; File D:\Metin2 Server Files\mainline\SRC_2014\Metin2Client\UserInterface\PythonBackground.cpp

; 354  : 	m_SnowEnvironment.Update(D3DXVECTOR3(fCenterX, -fCenterY, fCenterZ));

  000e2	e8 00 00 00 00	 call	 ?Update@CSnowEnvironment@@QAEXABUD3DXVECTOR3@@@Z ; CSnowEnvironment::Update

; 355  : 
; 356  : #ifdef __PERFORMANCE_CHECKER__
; 357  : 	{
; 358  : 		static FILE* fp=fopen("perf_bg_update.txt", "w");
; 359  : 		if (t3-t1>5)
; 360  : 		{
; 361  : 			fprintf(fp, "BG.Total %d (Time %f)\n", t3-t1, ELTimer_GetMSec()/1000.0f);
; 362  : 			fprintf(fp, "BG.UpdateMap %d\n", t2-t1);
; 363  : 			fprintf(fp, "BG.UpdateAmb %d\n", t3-t2);
; 364  : 			fflush(fp);
; 365  : 		}
; 366  : 	}
; 367  : #endif
; 368  : 
; 369  : 	// Portal Process
; 370  : 	CMapOutdoor& rkMap=GetMapOutdoorRef();

  000e7	8b cf		 mov	 ecx, edi
  000e9	e8 00 00 00 00	 call	 ?GetMapOutdoorRef@CMapManager@@QAEAAVCMapOutdoor@@XZ ; CMapManager::GetMapOutdoorRef
  000ee	89 45 a4	 mov	 DWORD PTR _rkMap$1$[ebp], eax

; 371  : 	if (rkMap.IsEnablePortal())

  000f1	80 b8 b7 0e 00
	00 00		 cmp	 BYTE PTR [eax+3767], 0
  000f8	0f 84 98 01 00
	00		 je	 $LN108@Update

; 372  : 	{
; 373  : 		CCullingManager & rkCullingMgr = CCullingManager::Instance();

  000fe	8b 3d 00 00 00
	00		 mov	 edi, DWORD PTR ?ms_singleton@?$CSingleton@VCCullingManager@@@@0PAVCCullingManager@@A ; CSingleton<CCullingManager>::ms_singleton
; File C:\Program Files (x86)\Microsoft Visual Studio\2019\Community\VC\Tools\MSVC\14.28.29333\include\xmemory

; 814  :         return static_cast<_Ty*>(_Allocate<_New_alignof<_Ty>>(_Get_size_of_n<sizeof(_Ty)>(_Count)));

  00104	6a 14		 push	 20			; 00000014H
; File C:\Program Files (x86)\Microsoft Visual Studio\2019\Community\VC\Tools\MSVC\14.28.29333\include\xtree

; 435  :     _Tree_val() noexcept : _Myhead(), _Mysize(0) {}

  00106	c7 45 b0 00 00
	00 00		 mov	 DWORD PTR _kGetPortalID$3[ebp+8], 0
  0010d	c7 45 b4 00 00
	00 00		 mov	 DWORD PTR _kGetPortalID$3[ebp+12], 0
; File C:\Program Files (x86)\Microsoft Visual Studio\2019\Community\VC\Tools\MSVC\14.28.29333\include\xmemory

; 814  :         return static_cast<_Ty*>(_Allocate<_New_alignof<_Ty>>(_Get_size_of_n<sizeof(_Ty)>(_Count)));

  00114	e8 00 00 00 00	 call	 ??$_Allocate@$07U_Default_allocate_traits@std@@$0A@@std@@YAPAXI@Z ; std::_Allocate<8,std::_Default_allocate_traits,0>
; File C:\Program Files (x86)\Microsoft Visual Studio\2019\Community\VC\Tools\MSVC\14.28.29333\include\xtree

; 343  :         const auto _Pnode = _Al.allocate(1);

  00119	8b f0		 mov	 esi, eax

; 344  :         _Construct_in_place(_Pnode->_Left, _Pnode);

  0011b	8d 45 c8	 lea	 eax, DWORD PTR __Pnode$6[ebp]
  0011e	50		 push	 eax
  0011f	56		 push	 esi
  00120	89 75 c8	 mov	 DWORD PTR __Pnode$6[ebp], esi
  00123	e8 00 00 00 00	 call	 ??$_Construct_in_place@PAU?$_Tree_node@HPAX@std@@ABQAU12@@std@@YAXAAPAU?$_Tree_node@HPAX@0@ABQAU10@@Z ; std::_Construct_in_place<std::_Tree_node<int,void *> *,std::_Tree_node<int,void *> * const &>

; 345  :         _Construct_in_place(_Pnode->_Parent, _Pnode);

  00128	8d 45 c8	 lea	 eax, DWORD PTR __Pnode$6[ebp]
  0012b	50		 push	 eax
  0012c	8d 4e 04	 lea	 ecx, DWORD PTR [esi+4]
  0012f	51		 push	 ecx
  00130	e8 00 00 00 00	 call	 ??$_Construct_in_place@PAU?$_Tree_node@HPAX@std@@ABQAU12@@std@@YAXAAPAU?$_Tree_node@HPAX@0@ABQAU10@@Z ; std::_Construct_in_place<std::_Tree_node<int,void *> *,std::_Tree_node<int,void *> * const &>

; 346  :         _Construct_in_place(_Pnode->_Right, _Pnode);

  00135	8d 45 c8	 lea	 eax, DWORD PTR __Pnode$6[ebp]
  00138	50		 push	 eax
  00139	8d 46 08	 lea	 eax, DWORD PTR [esi+8]
  0013c	50		 push	 eax
  0013d	e8 00 00 00 00	 call	 ??$_Construct_in_place@PAU?$_Tree_node@HPAX@std@@ABQAU12@@std@@YAXAAPAU?$_Tree_node@HPAX@0@ABQAU10@@Z ; std::_Construct_in_place<std::_Tree_node<int,void *> *,std::_Tree_node<int,void *> * const &>
; File D:\Metin2 Server Files\mainline\SRC_2014\Metin2Client\UserInterface\PythonBackground.cpp

; 323  : 		m_fRequestX=fRequestX;

  00142	f3 0f 10 4d c0	 movss	 xmm1, DWORD PTR _fCenterX$GSCopy$1$[ebp]
; File C:\Program Files (x86)\Microsoft Visual Studio\2019\Community\VC\Tools\MSVC\14.28.29333\include\xtree

; 346  :         _Construct_in_place(_Pnode->_Right, _Pnode);

  00147	83 c4 1c	 add	 esp, 28			; 0000001cH
; File D:\Metin2 Server Files\mainline\SRC_2014\Metin2Client\UserInterface\PythonBackground.cpp

; 324  : 		m_fRequestY=fRequestY;

  0014a	f3 0f 10 45 c4	 movss	 xmm0, DWORD PTR _fCenterY$GSCopy$1$[ebp]
; File C:\Program Files (x86)\Microsoft Visual Studio\2019\Community\VC\Tools\MSVC\14.28.29333\include\xtree

; 347  :         _Pnode->_Color = _Black;

  0014f	66 c7 46 0c 01
	01		 mov	 WORD PTR [esi+12], 257	; 00000101H

; 2021 :         _Scary->_Myhead = _Node::_Buyheadnode(_Getal());

  00155	89 75 b0	 mov	 DWORD PTR _kGetPortalID$3[ebp+8], esi
; File D:\Metin2 Server Files\mainline\SRC_2014\Metin2Client\UserInterface\PythonBackground.cpp

; 323  : 		m_fRequestX=fRequestX;

  00158	f3 0f 11 4d a8	 movss	 DWORD PTR _kGetPortalID$3[ebp], xmm1

; 324  : 		m_fRequestY=fRequestY;

  0015d	f3 0f 11 45 ac	 movss	 DWORD PTR _kGetPortalID$3[ebp+4], xmm0
; File D:\Metin2 Server Files\mainline\SRC_2014\Metin2Client\SphereLib\vector.h

; 108  : 		y = b;

  00162	f3 0f 11 45 dc	 movss	 DWORD PTR _aVector3d$12[ebp+4], xmm0
; File D:\Metin2 Server Files\mainline\SRC_2014\Metin2Client\eterlib\CullingManager.h

; 15   : 		: f(fn), dist(distance)

  00167	8d 45 a8	 lea	 eax, DWORD PTR _kGetPortalID$3[ebp]
; File D:\Metin2 Server Files\mainline\SRC_2014\Metin2Client\SphereLib\vector.h

; 109  : 		z = c;

  0016a	f3 0f 10 45 bc	 movss	 xmm0, DWORD PTR _fCenterZ$GSCopy$1$[ebp]
; File D:\Metin2 Server Files\mainline\SRC_2014\Metin2Client\UserInterface\PythonBackground.cpp

; 374  : 		FGetPortalID kGetPortalID(fCenterX, -fCenterY);

  0016f	c7 45 fc 00 00
	00 00		 mov	 DWORD PTR __$EHRec$[ebp+8], 0
; File D:\Metin2 Server Files\mainline\SRC_2014\Metin2Client\SphereLib\vector.h

; 107  : 		x = a;

  00176	f3 0f 11 4d d8	 movss	 DWORD PTR _aVector3d$12[ebp], xmm1

; 109  : 		z = c;

  0017b	f3 0f 11 45 e0	 movss	 DWORD PTR _aVector3d$12[ebp+8], xmm0

; 107  : 		x = a;

  00180	c7 45 cc 00 00
	00 00		 mov	 DWORD PTR _toTop$10[ebp], 0

; 108  : 		y = b;

  00187	c7 45 d0 00 00
	00 00		 mov	 DWORD PTR _toTop$10[ebp+4], 0

; 109  : 		z = c;

  0018e	c7 45 d4 00 50
	c3 46		 mov	 DWORD PTR _toTop$10[ebp+8], 1187205120 ; 46c35000H
; File D:\Metin2 Server Files\mainline\SRC_2014\Metin2Client\eterlib\CullingManager.h

; 16   : 	{}

  00195	c7 45 e4 00 00
	00 00		 mov	 DWORD PTR _r$13[ebp], OFFSET ??_7?$RangeTester@UFGetPortalID@@@@6B@

; 15   : 		: f(fn), dist(distance)

  0019c	89 45 e8	 mov	 DWORD PTR _r$13[ebp+4], eax
  0019f	c7 45 ec 00 00
	80 bf		 mov	 DWORD PTR _r$13[ebp+8], -1082130432 ; bf800000H

; 127  : 		m_Factory->RayTrace(p1, dir, &r/*this*/);		

  001a6	8b 4f 1c	 mov	 ecx, DWORD PTR [edi+28]
  001a9	8d 45 e4	 lea	 eax, DWORD PTR _r$13[ebp]
  001ac	50		 push	 eax
  001ad	8d 45 cc	 lea	 eax, DWORD PTR _toTop$10[ebp]
  001b0	c6 45 fc 01	 mov	 BYTE PTR __$EHRec$[ebp+8], 1
  001b4	50		 push	 eax
  001b5	8d 45 d8	 lea	 eax, DWORD PTR _aVector3d$12[ebp]
  001b8	50		 push	 eax
  001b9	e8 00 00 00 00	 call	 ?RayTrace@SpherePackFactory@@QAEXABVVector3d@@0PAVSpherePackCallback@@@Z ; SpherePackFactory::RayTrace
; File D:\Metin2 Server Files\mainline\SRC_2014\Metin2Client\UserInterface\PythonBackground.cpp

; 385  : 		if (!__IsSame(kGetPortalID.m_kSet_iPortalID, m_kSet_iShowingPortalID))

  001be	8b 7d b8	 mov	 edi, DWORD PTR _this$GSCopy$1$[ebp]
  001c1	8d 45 b0	 lea	 eax, DWORD PTR _kGetPortalID$3[ebp+8]
  001c4	8b cf		 mov	 ecx, edi
; File D:\Metin2 Server Files\mainline\SRC_2014\Metin2Client\eterlib\CullingManager.h

; 128  : 	}

  001c6	c6 45 fc 00	 mov	 BYTE PTR __$EHRec$[ebp+8], 0
; File D:\Metin2 Server Files\mainline\SRC_2014\Metin2Client\UserInterface\PythonBackground.cpp

; 385  : 		if (!__IsSame(kGetPortalID.m_kSet_iPortalID, m_kSet_iShowingPortalID))

  001ca	8d b7 e8 15 00
	00		 lea	 esi, DWORD PTR [edi+5608]
  001d0	56		 push	 esi
  001d1	50		 push	 eax
  001d2	e8 00 00 00 00	 call	 ?__IsSame@CPythonBackground@@IAE_NAAV?$set@HU?$less@H@std@@V?$allocator@H@2@@std@@0@Z ; CPythonBackground::__IsSame
  001d7	84 c0		 test	 al, al
  001d9	0f 85 a8 00 00
	00		 jne	 $LN94@Update

; 386  : 		{
; 387  : 			ClearPortal();

  001df	8b cf		 mov	 ecx, edi
  001e1	e8 00 00 00 00	 call	 ?ClearPortal@CMapManager@@QAEXXZ ; CMapManager::ClearPortal
; File C:\Program Files (x86)\Microsoft Visual Studio\2019\Community\VC\Tools\MSVC\14.28.29333\include\xtree

; 39   :     _Tree_unchecked_const_iterator(_Nodeptr _Pnode, const _Mytree* _Plist) noexcept : _Ptr(_Pnode) {

  001e6	8b 4d b0	 mov	 ecx, DWORD PTR _kGetPortalID$3[ebp+8]
  001e9	8b 01		 mov	 eax, DWORD PTR [ecx]
  001eb	89 45 c8	 mov	 DWORD PTR _itor$9[ebp], eax
; File D:\Metin2 Server Files\mainline\SRC_2014\Metin2Client\UserInterface\PythonBackground.cpp

; 389  : 			for (; itor!=kGetPortalID.m_kSet_iPortalID.end(); ++itor)

  001ee	3b c1		 cmp	 eax, ecx
  001f0	74 1a		 je	 SHORT $LN3@Update
$LL4@Update:

; 390  : 			{
; 391  : 				AddShowingPortalID(*itor);

  001f2	ff 70 10	 push	 DWORD PTR [eax+16]
  001f5	8b cf		 mov	 ecx, edi
  001f7	e8 00 00 00 00	 call	 ?AddShowingPortalID@CMapManager@@QAEXH@Z ; CMapManager::AddShowingPortalID
  001fc	8d 4d c8	 lea	 ecx, DWORD PTR _itor$9[ebp]
  001ff	e8 00 00 00 00	 call	 ??E?$_Tree_const_iterator@V?$_Tree_val@U?$_Tree_simple_types@H@std@@@std@@@std@@QAEAAV01@XZ ; std::_Tree_const_iterator<std::_Tree_val<std::_Tree_simple_types<int> > >::operator++
  00204	8b 45 c8	 mov	 eax, DWORD PTR _itor$9[ebp]
  00207	3b 45 b0	 cmp	 eax, DWORD PTR _kGetPortalID$3[ebp+8]
  0020a	75 e6		 jne	 SHORT $LL4@Update
$LN3@Update:

; 392  : 			}
; 393  : 			RefreshPortal();

  0020c	8b cf		 mov	 ecx, edi
  0020e	e8 00 00 00 00	 call	 ?RefreshPortal@CMapManager@@QAEXXZ ; CMapManager::RefreshPortal
; File C:\Program Files (x86)\Microsoft Visual Studio\2019\Community\VC\Tools\MSVC\14.28.29333\include\xtree

; 1231 :         if (this != _STD addressof(_Right)) {

  00213	8d 45 b0	 lea	 eax, DWORD PTR _kGetPortalID$3[ebp+8]
  00216	3b f0		 cmp	 esi, eax
  00218	74 6d		 je	 SHORT $LN94@Update

; 1200 :         clear();

  0021a	8b ce		 mov	 ecx, esi
  0021c	e8 00 00 00 00	 call	 ?clear@?$_Tree@V?$_Tset_traits@HU?$less@H@std@@V?$allocator@H@2@$0A@@std@@@std@@QAEXXZ ; std::_Tree<std::_Tset_traits<int,std::less<int>,std::allocator<int>,0> >::clear

; 1728 :         _Scary->_Myhead->_Parent = _Copy_nodes(_Right_scary->_Myhead->_Parent, _Scary->_Myhead, _Movefl);

  00221	ff 75 a4	 push	 DWORD PTR $T2[ebp]
  00224	8b 45 b0	 mov	 eax, DWORD PTR _kGetPortalID$3[ebp+8]
  00227	8b ce		 mov	 ecx, esi
  00229	ff 36		 push	 DWORD PTR [esi]
  0022b	ff 70 04	 push	 DWORD PTR [eax+4]
  0022e	e8 00 00 00 00	 call	 ??$_Copy_nodes@U_Copy_tag@?$_Tree@V?$_Tset_traits@HU?$less@H@std@@V?$allocator@H@2@$0A@@std@@@std@@@?$_Tree@V?$_Tset_traits@HU?$less@H@std@@V?$allocator@H@2@$0A@@std@@@std@@IAEPAU?$_Tree_node@HPAX@1@PAU21@0U_Copy_tag@01@@Z ; std::_Tree<std::_Tset_traits<int,std::less<int>,std::allocator<int>,0> >::_Copy_nodes<std::_Tree<std::_Tset_traits<int,std::less<int>,std::allocator<int>,0> >::_Copy_tag>
  00233	8b 0e		 mov	 ecx, DWORD PTR [esi]
  00235	89 41 04	 mov	 DWORD PTR [ecx+4], eax

; 1729 :         _Scary->_Mysize          = _Right_scary->_Mysize;

  00238	8b 45 b4	 mov	 eax, DWORD PTR _kGetPortalID$3[ebp+12]
  0023b	89 46 04	 mov	 DWORD PTR [esi+4], eax

; 1730 :         if (!_Scary->_Myhead->_Parent->_Isnil) { // nonempty tree, look for new smallest and largest

  0023e	8b 06		 mov	 eax, DWORD PTR [esi]
  00240	8b 50 04	 mov	 edx, DWORD PTR [eax+4]
  00243	80 7a 0d 00	 cmp	 BYTE PTR [edx+13], 0
  00247	75 37		 jne	 SHORT $LN93@Update

; 451  :         while (!_Pnode->_Left->_Isnil) {

  00249	8b 0a		 mov	 ecx, DWORD PTR [edx]
  0024b	80 79 0d 00	 cmp	 BYTE PTR [ecx+13], 0
  0024f	75 0e		 jne	 SHORT $LN98@Update
$LL97@Update:
  00251	8b 01		 mov	 eax, DWORD PTR [ecx]

; 452  :             _Pnode = _Pnode->_Left;

  00253	8b d1		 mov	 edx, ecx
  00255	8b c8		 mov	 ecx, eax
  00257	80 78 0d 00	 cmp	 BYTE PTR [eax+13], 0
  0025b	74 f4		 je	 SHORT $LL97@Update
  0025d	8b 06		 mov	 eax, DWORD PTR [esi]
$LN98@Update:

; 1731 :             _Scary->_Myhead->_Left  = _Scary_val::_Min(_Scary->_Myhead->_Parent);

  0025f	89 10		 mov	 DWORD PTR [eax], edx

; 1732 :             _Scary->_Myhead->_Right = _Scary_val::_Max(_Scary->_Myhead->_Parent);

  00261	8b 16		 mov	 edx, DWORD PTR [esi]
  00263	8b 4a 04	 mov	 ecx, DWORD PTR [edx+4]

; 443  :         while (!_Pnode->_Right->_Isnil) {

  00266	8b 41 08	 mov	 eax, DWORD PTR [ecx+8]
  00269	80 78 0d 00	 cmp	 BYTE PTR [eax+13], 0
  0026d	75 0c		 jne	 SHORT $LN102@Update
  0026f	90		 npad	 1
$LL101@Update:

; 444  :             _Pnode = _Pnode->_Right;

  00270	8b c8		 mov	 ecx, eax
  00272	8b 41 08	 mov	 eax, DWORD PTR [ecx+8]
  00275	80 78 0d 00	 cmp	 BYTE PTR [eax+13], 0
  00279	74 f5		 je	 SHORT $LL101@Update
$LN102@Update:

; 1732 :             _Scary->_Myhead->_Right = _Scary_val::_Max(_Scary->_Myhead->_Parent);

  0027b	89 4a 08	 mov	 DWORD PTR [edx+8], ecx

; 1733 :         } else { // empty tree, just tidy head pointers

  0027e	eb 07		 jmp	 SHORT $LN94@Update
$LN93@Update:

; 1734 :             _Scary->_Myhead->_Left  = _Scary->_Myhead;

  00280	89 00		 mov	 DWORD PTR [eax], eax

; 1735 :             _Scary->_Myhead->_Right = _Scary->_Myhead;

  00282	8b 06		 mov	 eax, DWORD PTR [esi]
  00284	89 40 08	 mov	 DWORD PTR [eax+8], eax
$LN94@Update:
  00287	8d 4d b0	 lea	 ecx, DWORD PTR _kGetPortalID$3[ebp+8]
; File D:\Metin2 Server Files\mainline\SRC_2014\Metin2Client\UserInterface\PythonBackground.cpp

; 397  : 	}

  0028a	c7 45 fc ff ff
	ff ff		 mov	 DWORD PTR __$EHRec$[ebp+8], -1
  00291	e8 00 00 00 00	 call	 ??1?$_Tree@V?$_Tset_traits@HU?$less@H@std@@V?$allocator@H@2@$0A@@std@@@std@@QAE@XZ ; std::_Tree<std::_Tset_traits<int,std::less<int>,std::allocator<int>,0> >::~_Tree<std::_Tset_traits<int,std::less<int>,std::allocator<int>,0> >
$LN108@Update:
; File C:\Program Files (x86)\Microsoft Visual Studio\2019\Community\VC\Tools\MSVC\14.28.29333\include\xtree

; 1240 :         return iterator(_Scary->_Myhead->_Left, _Scary);

  00296	8b 8f f8 15 00
	00		 mov	 ecx, DWORD PTR [edi+5624]

; 39   :     _Tree_unchecked_const_iterator(_Nodeptr _Pnode, const _Mytree* _Plist) noexcept : _Ptr(_Pnode) {

  0029c	8b 01		 mov	 eax, DWORD PTR [ecx]
  0029e	89 45 c8	 mov	 DWORD PTR _itor$8[ebp], eax
  002a1	3b c1		 cmp	 eax, ecx
; File D:\Metin2 Server Files\mainline\SRC_2014\Metin2Client\UserInterface\PythonBackground.cpp

; 402  : 		for (; itor != m_kMap_dwTargetID_dwChrID.end(); ++itor)

  002a3	0f 84 86 00 00
	00		 je	 $LN6@Update
  002a9	0f 1f 80 00 00
	00 00		 npad	 7
$LL121@Update:

; 403  : 		{
; 404  : 			DWORD dwTargetID = itor->first;
; 405  : 			DWORD dwChrID = itor->second;
; 406  : 
; 407  : 			CInstanceBase * pInstance = CPythonCharacterManager::Instance().GetInstancePtr(dwChrID);

  002b0	8b 0d 00 00 00
	00		 mov	 ecx, DWORD PTR ?ms_singleton@?$CSingleton@VCPythonCharacterManager@@@@0PAVCPythonCharacterManager@@A ; CSingleton<CPythonCharacterManager>::ms_singleton
  002b6	8b 50 14	 mov	 edx, DWORD PTR [eax+20]
  002b9	83 c1 04	 add	 ecx, 4
  002bc	8b 70 10	 mov	 esi, DWORD PTR [eax+16]
  002bf	52		 push	 edx
  002c0	8b 01		 mov	 eax, DWORD PTR [ecx]
  002c2	8b 40 08	 mov	 eax, DWORD PTR [eax+8]
  002c5	ff d0		 call	 eax

; 408  : 
; 409  : 			if (!pInstance)

  002c7	85 c0		 test	 eax, eax
  002c9	74 51		 je	 SHORT $LN5@Update

; 410  : 				continue;
; 411  : 
; 412  : 			TPixelPosition kPixelPosition;
; 413  : 			pInstance->NEW_GetPixelPosition(&kPixelPosition);

  002cb	8d 4d d8	 lea	 ecx, DWORD PTR _kPixelPosition$11[ebp]
  002ce	51		 push	 ecx
  002cf	8b c8		 mov	 ecx, eax
  002d1	e8 00 00 00 00	 call	 ?NEW_GetPixelPosition@CInstanceBase@@QAEXPAUD3DXVECTOR3@@@Z ; CInstanceBase::NEW_GetPixelPosition
; File C:\Program Files (x86)\Microsoft Visual Studio\2019\Community\VC\Tools\MSVC\14.28.29333\include\xstring

; 2227 :         return _BUF_SIZE <= _Myres;

  002d6	83 3d 14 00 00
	00 10		 cmp	 DWORD PTR ?g_strEffectName@@3V?$basic_string@DU?$char_traits@D@std@@V?$allocator@D@2@@std@@A+20, 16 ; 00000010H

; 2218 :         const value_type* _Result = _Bx._Buf;

  002dd	b8 00 00 00 00	 mov	 eax, OFFSET ?g_strEffectName@@3V?$basic_string@DU?$char_traits@D@std@@V?$allocator@D@2@@std@@A ; g_strEffectName
; File D:\Metin2 Server Files\mainline\SRC_2014\Metin2Client\UserInterface\PythonBackground.cpp

; 415  : 			CreateSpecialEffect(dwTargetID,

  002e2	f3 0f 10 45 e0	 movss	 xmm0, DWORD PTR _kPixelPosition$11[ebp+8]
  002e7	8b cf		 mov	 ecx, edi
; File C:\Program Files (x86)\Microsoft Visual Studio\2019\Community\VC\Tools\MSVC\14.28.29333\include\xstring

; 2219 :         if (_Large_string_engaged()) {

  002e9	0f 43 05 00 00
	00 00		 cmovae	 eax, DWORD PTR ?g_strEffectName@@3V?$basic_string@DU?$char_traits@D@std@@V?$allocator@D@2@@std@@A
; File D:\Metin2 Server Files\mainline\SRC_2014\Metin2Client\UserInterface\PythonBackground.cpp

; 415  : 			CreateSpecialEffect(dwTargetID,

  002f0	50		 push	 eax
  002f1	83 ec 0c	 sub	 esp, 12			; 0000000cH
  002f4	f3 0f 11 44 24
	08		 movss	 DWORD PTR [esp+8], xmm0
  002fa	f3 0f 10 45 dc	 movss	 xmm0, DWORD PTR _kPixelPosition$11[ebp+4]
  002ff	0f 57 05 00 00
	00 00		 xorps	 xmm0, DWORD PTR __xmm@80000000800000008000000080000000
  00306	f3 0f 11 44 24
	04		 movss	 DWORD PTR [esp+4], xmm0
  0030c	f3 0f 10 45 d8	 movss	 xmm0, DWORD PTR _kPixelPosition$11[ebp]
  00311	f3 0f 11 04 24	 movss	 DWORD PTR [esp], xmm0
  00316	56		 push	 esi
  00317	e8 00 00 00 00	 call	 ?CreateSpecialEffect@CPythonBackground@@QAEXKMMMPBD@Z ; CPythonBackground::CreateSpecialEffect
$LN5@Update:
; File C:\Program Files (x86)\Microsoft Visual Studio\2019\Community\VC\Tools\MSVC\14.28.29333\include\xtree

; 198  :         _Mybase::operator++();

  0031c	8d 4d c8	 lea	 ecx, DWORD PTR _itor$8[ebp]
  0031f	e8 00 00 00 00	 call	 ??E?$_Tree_unchecked_const_iterator@V?$_Tree_val@U?$_Tree_simple_types@U?$pair@$$CBKK@std@@@std@@@std@@U_Iterator_base0@2@@std@@QAEAAV01@XZ ; std::_Tree_unchecked_const_iterator<std::_Tree_val<std::_Tree_simple_types<std::pair<unsigned long const ,unsigned long> > >,std::_Iterator_base0>::operator++

; 232  :         return this->_Ptr == _Right._Ptr;

  00324	8b 45 c8	 mov	 eax, DWORD PTR _itor$8[ebp]
  00327	3b 87 f8 15 00
	00		 cmp	 eax, DWORD PTR [edi+5624]
; File D:\Metin2 Server Files\mainline\SRC_2014\Metin2Client\UserInterface\PythonBackground.cpp

; 402  : 		for (; itor != m_kMap_dwTargetID_dwChrID.end(); ++itor)

  0032d	75 81		 jne	 SHORT $LL121@Update
$LN6@Update:
; File C:\Program Files (x86)\Microsoft Visual Studio\2019\Community\VC\Tools\MSVC\14.28.29333\include\xtree

; 1240 :         return iterator(_Scary->_Myhead->_Left, _Scary);

  0032f	8b 87 00 16 00
	00		 mov	 eax, DWORD PTR [edi+5632]

; 39   :     _Tree_unchecked_const_iterator(_Nodeptr _Pnode, const _Mytree* _Plist) noexcept : _Ptr(_Pnode) {

  00335	8b 30		 mov	 esi, DWORD PTR [eax]
  00337	89 75 c8	 mov	 DWORD PTR _itor$7[ebp], esi
  0033a	3b f0		 cmp	 esi, eax
; File D:\Metin2 Server Files\mainline\SRC_2014\Metin2Client\UserInterface\PythonBackground.cpp

; 426  : 		for (; itor != m_kMap_dwID_kReserveTargetEffect.end();)

  0033c	0f 84 c9 00 00
	00		 je	 $LN9@Update
$LL8@Update:

; 427  : 		{
; 428  : 			DWORD dwID = itor->first;
; 429  : 			SReserveTargetEffect & rReserveTargetEffect = itor->second;
; 430  : 
; 431  : 			float ilx = float(rReserveTargetEffect.ilx);
; 432  : 			float ily = float(rReserveTargetEffect.ily);
; 433  : 
; 434  : 			float fHeight = rkMap.GetHeight(ilx, ily);

  00342	8b 4d a4	 mov	 ecx, DWORD PTR _rkMap$1$[ebp]
  00345	83 ec 08	 sub	 esp, 8
  00348	66 0f 6e 4e 18	 movd	 xmm1, DWORD PTR [esi+24]
  0034d	8b 46 10	 mov	 eax, DWORD PTR [esi+16]
  00350	66 0f 6e 46 14	 movd	 xmm0, DWORD PTR [esi+20]
  00355	0f 5b c9	 cvtdq2ps xmm1, xmm1
  00358	89 45 c4	 mov	 DWORD PTR _dwID$1$[ebp], eax
  0035b	8b 01		 mov	 eax, DWORD PTR [ecx]
  0035d	0f 5b c0	 cvtdq2ps xmm0, xmm0
  00360	8b 40 1c	 mov	 eax, DWORD PTR [eax+28]
  00363	f3 0f 11 4c 24
	04		 movss	 DWORD PTR [esp+4], xmm1
  00369	f3 0f 11 45 c0	 movss	 DWORD PTR _ilx$1$[ebp], xmm0
  0036e	f3 0f 11 4d bc	 movss	 DWORD PTR _ily$1$[ebp], xmm1
  00373	f3 0f 11 04 24	 movss	 DWORD PTR [esp], xmm0
  00378	ff d0		 call	 eax
  0037a	d9 5d b8	 fstp	 DWORD PTR _fHeight$4[ebp]

; 435  : 			if (0.0f == fHeight)

  0037d	f3 0f 10 45 b8	 movss	 xmm0, DWORD PTR _fHeight$4[ebp]
  00382	0f 57 c9	 xorps	 xmm1, xmm1
  00385	0f 2e c8	 ucomiss xmm1, xmm0
  00388	9f		 lahf
  00389	f6 c4 44	 test	 ah, 68			; 00000044H
  0038c	7a 0d		 jp	 SHORT $LN15@Update
; File C:\Program Files (x86)\Microsoft Visual Studio\2019\Community\VC\Tools\MSVC\14.28.29333\include\xtree

; 198  :         _Mybase::operator++();

  0038e	8d 4d c8	 lea	 ecx, DWORD PTR _itor$7[ebp]
  00391	e8 00 00 00 00	 call	 ??E?$_Tree_unchecked_const_iterator@V?$_Tree_val@U?$_Tree_simple_types@U?$pair@$$CBKUSReserveTargetEffect@CPythonBackground@@@std@@@std@@@std@@U_Iterator_base0@2@@std@@QAEAAV01@XZ ; std::_Tree_unchecked_const_iterator<std::_Tree_val<std::_Tree_simple_types<std::pair<unsigned long const ,CPythonBackground::SReserveTargetEffect> > >,std::_Iterator_base0>::operator++
; File D:\Metin2 Server Files\mainline\SRC_2014\Metin2Client\UserInterface\PythonBackground.cpp

; 438  : 				continue;

  00396	8b 75 c8	 mov	 esi, DWORD PTR _itor$7[ebp]
  00399	eb 64		 jmp	 SHORT $LN227@Update
$LN15@Update:
; File C:\Program Files (x86)\Microsoft Visual Studio\2019\Community\VC\Tools\MSVC\14.28.29333\include\xstring

; 2227 :         return _BUF_SIZE <= _Myres;

  0039b	83 3d 14 00 00
	00 10		 cmp	 DWORD PTR ?g_strEffectName@@3V?$basic_string@DU?$char_traits@D@std@@V?$allocator@D@2@@std@@A+20, 16 ; 00000010H

; 2218 :         const value_type* _Result = _Bx._Buf;

  003a2	b8 00 00 00 00	 mov	 eax, OFFSET ?g_strEffectName@@3V?$basic_string@DU?$char_traits@D@std@@V?$allocator@D@2@@std@@A ; g_strEffectName
; File D:\Metin2 Server Files\mainline\SRC_2014\Metin2Client\UserInterface\PythonBackground.cpp

; 441  : 			CreateSpecialEffect(dwID, ilx, ily, fHeight, g_strEffectName.c_str());

  003a7	8b cf		 mov	 ecx, edi
; File C:\Program Files (x86)\Microsoft Visual Studio\2019\Community\VC\Tools\MSVC\14.28.29333\include\xstring

; 2219 :         if (_Large_string_engaged()) {

  003a9	0f 43 05 00 00
	00 00		 cmovae	 eax, DWORD PTR ?g_strEffectName@@3V?$basic_string@DU?$char_traits@D@std@@V?$allocator@D@2@@std@@A
; File D:\Metin2 Server Files\mainline\SRC_2014\Metin2Client\UserInterface\PythonBackground.cpp

; 441  : 			CreateSpecialEffect(dwID, ilx, ily, fHeight, g_strEffectName.c_str());

  003b0	50		 push	 eax
  003b1	83 ec 0c	 sub	 esp, 12			; 0000000cH
  003b4	f3 0f 11 44 24
	08		 movss	 DWORD PTR [esp+8], xmm0
  003ba	f3 0f 10 45 bc	 movss	 xmm0, DWORD PTR _ily$1$[ebp]
  003bf	f3 0f 11 44 24
	04		 movss	 DWORD PTR [esp+4], xmm0
  003c5	f3 0f 10 45 c0	 movss	 xmm0, DWORD PTR _ilx$1$[ebp]
  003ca	f3 0f 11 04 24	 movss	 DWORD PTR [esp], xmm0
  003cf	ff 75 c4	 push	 DWORD PTR _dwID$1$[ebp]
  003d2	e8 00 00 00 00	 call	 ?CreateSpecialEffect@CPythonBackground@@QAEXKMMMPBD@Z ; CPythonBackground::CreateSpecialEffect
; File C:\Program Files (x86)\Microsoft Visual Studio\2019\Community\VC\Tools\MSVC\14.28.29333\include\xtree

; 1388 :         ++_Successor; // save successor iterator for return

  003d7	8d 4d c8	 lea	 ecx, DWORD PTR __Successor$5[ebp]
  003da	89 75 c8	 mov	 DWORD PTR __Successor$5[ebp], esi
  003dd	e8 00 00 00 00	 call	 ??E?$_Tree_unchecked_const_iterator@V?$_Tree_val@U?$_Tree_simple_types@U?$pair@$$CBKUSReserveTargetEffect@CPythonBackground@@@std@@@std@@@std@@U_Iterator_base0@2@@std@@QAEAAV01@XZ ; std::_Tree_unchecked_const_iterator<std::_Tree_val<std::_Tree_simple_types<std::pair<unsigned long const ,CPythonBackground::SReserveTargetEffect> > >,std::_Iterator_base0>::operator++

; 1389 :         _Nodeptr _Erasednode = _Scary->_Extract(_Where); // node to erase

  003e2	56		 push	 esi
  003e3	8d 8f 00 16 00
	00		 lea	 ecx, DWORD PTR [edi+5632]
  003e9	e8 00 00 00 00	 call	 ?_Extract@?$_Tree_val@U?$_Tree_simple_types@U?$pair@$$CBKUSReserveTargetEffect@CPythonBackground@@@std@@@std@@@std@@QAEPAU?$_Tree_node@U?$pair@$$CBKUSReserveTargetEffect@CPythonBackground@@@std@@PAX@2@V?$_Tree_unchecked_const_iterator@V?$_Tree_val@U?$_Tree_simple_types@U?$pair@$$CBKUSReserveTargetEffect@CPythonBackground@@@std@@@std@@@std@@U_Iterator_base0@2@@2@@Z ; std::_Tree_val<std::_Tree_simple_types<std::pair<unsigned long const ,CPythonBackground::SReserveTargetEffect> > >::_Extract
; File C:\Program Files (x86)\Microsoft Visual Studio\2019\Community\VC\Tools\MSVC\14.28.29333\include\xmemory

; 696  :         _Deallocate<_New_alignof<value_type>>(_Ptr, sizeof(value_type) * _Count);

  003ee	6a 1c		 push	 28			; 0000001cH
  003f0	50		 push	 eax
  003f1	e8 00 00 00 00	 call	 ??$_Deallocate@$07$0A@@std@@YAXPAXI@Z ; std::_Deallocate<8,0>
; File D:\Metin2 Server Files\mainline\SRC_2014\Metin2Client\UserInterface\PythonBackground.cpp

; 443  : 			itor = m_kMap_dwID_kReserveTargetEffect.erase(itor);

  003f6	8b 75 c8	 mov	 esi, DWORD PTR __Successor$5[ebp]
; File C:\Program Files (x86)\Microsoft Visual Studio\2019\Community\VC\Tools\MSVC\14.28.29333\include\xmemory

; 696  :         _Deallocate<_New_alignof<value_type>>(_Ptr, sizeof(value_type) * _Count);

  003f9	83 c4 08	 add	 esp, 8
; File D:\Metin2 Server Files\mainline\SRC_2014\Metin2Client\UserInterface\PythonBackground.cpp

; 443  : 			itor = m_kMap_dwID_kReserveTargetEffect.erase(itor);

  003fc	89 75 c8	 mov	 DWORD PTR _itor$7[ebp], esi
$LN227@Update:
; File C:\Program Files (x86)\Microsoft Visual Studio\2019\Community\VC\Tools\MSVC\14.28.29333\include\xtree

; 232  :         return this->_Ptr == _Right._Ptr;

  003ff	3b b7 00 16 00
	00		 cmp	 esi, DWORD PTR [edi+5632]
; File D:\Metin2 Server Files\mainline\SRC_2014\Metin2Client\UserInterface\PythonBackground.cpp

; 426  : 		for (; itor != m_kMap_dwID_kReserveTargetEffect.end();)

  00405	0f 85 37 ff ff
	ff		 jne	 $LL8@Update
$LN9@Update:

; 444  : 		}
; 445  : 	}
; 446  : }

  0040b	8b 4d f4	 mov	 ecx, DWORD PTR __$EHRec$[ebp]
  0040e	64 89 0d 00 00
	00 00		 mov	 DWORD PTR fs:0, ecx
  00415	59		 pop	 ecx
  00416	5f		 pop	 edi
  00417	5e		 pop	 esi
  00418	8b 4d f0	 mov	 ecx, DWORD PTR __$ArrayPad$[ebp]
  0041b	33 cd		 xor	 ecx, ebp
  0041d	e8 00 00 00 00	 call	 @__security_check_cookie@4
  00422	8b e5		 mov	 esp, ebp
  00424	5d		 pop	 ebp
  00425	c2 0c 00	 ret	 12			; 0000000cH
_TEXT	ENDS
;	COMDAT text$x
text$x	SEGMENT
__unwindfunclet$?Update@CPythonBackground@@QAEXMMM@Z$0:
  00000	8d 4d a8	 lea	 ecx, DWORD PTR _kGetPortalID$3[ebp]
  00003	e9 00 00 00 00	 jmp	 ??1FGetPortalID@@QAE@XZ
__unwindfunclet$?Update@CPythonBackground@@QAEXMMM@Z$3:
  00008	8d 4d e4	 lea	 ecx, DWORD PTR _r$13[ebp]
  0000b	e9 00 00 00 00	 jmp	 ??1?$RangeTester@UFGetPortalID@@@@UAE@XZ ; RangeTester<FGetPortalID>::~RangeTester<FGetPortalID>
  00010	cc		 int	 3
  00011	cc		 int	 3
  00012	cc		 int	 3
  00013	cc		 int	 3
  00014	cc		 int	 3
__ehhandler$?Update@CPythonBackground@@QAEXMMM@Z:
  00015	90		 npad	 1
  00016	90		 npad	 1
  00017	8b 54 24 08	 mov	 edx, DWORD PTR [esp+8]
  0001b	8d 42 0c	 lea	 eax, DWORD PTR [edx+12]
  0001e	8b 4a a4	 mov	 ecx, DWORD PTR [edx-92]
  00021	33 c8		 xor	 ecx, eax
  00023	e8 00 00 00 00	 call	 @__security_check_cookie@4
  00028	8b 4a fc	 mov	 ecx, DWORD PTR [edx-4]
  0002b	33 c8		 xor	 ecx, eax
  0002d	e8 00 00 00 00	 call	 @__security_check_cookie@4
  00032	b8 00 00 00 00	 mov	 eax, OFFSET __ehfuncinfo$?Update@CPythonBackground@@QAEXMMM@Z
  00037	e9 00 00 00 00	 jmp	 ___CxxFrameHandler3
text$x	ENDS
?Update@CPythonBackground@@QAEXMMM@Z ENDP		; CPythonBackground::Update
; Function compile flags: /Ogtp
; File D:\Metin2 Server Files\mainline\SRC_2014\Metin2Client\UserInterface\PythonBackground.cpp
;	COMDAT ?GetLightDirection@CPythonBackground@@QAEHAAUD3DXVECTOR3@@@Z
_TEXT	SEGMENT
_rv3LightDirection$ = 8					; size = 4
?GetLightDirection@CPythonBackground@@QAEHAAUD3DXVECTOR3@@@Z PROC ; CPythonBackground::GetLightDirection, COMDAT
; _this$ = ecx

; 282  : {

  00000	55		 push	 ebp
  00001	8b ec		 mov	 ebp, esp
  00003	8b d1		 mov	 edx, ecx

; 283  : 	if (!mc_pcurEnvironmentData)

  00005	8b 82 2c 14 00
	00		 mov	 eax, DWORD PTR [edx+5164]
  0000b	85 c0		 test	 eax, eax
  0000d	75 04		 jne	 SHORT $LN2@GetLightDi

; 290  : }

  0000f	5d		 pop	 ebp
  00010	c2 04 00	 ret	 4
$LN2@GetLightDi:

; 284  : 		return FALSE;
; 285  : 
; 286  : 	rv3LightDirection.x = mc_pcurEnvironmentData->DirLights[ENV_DIRLIGHT_BACKGROUND].Direction.x;

  00013	8b 40 48	 mov	 eax, DWORD PTR [eax+72]
  00016	8b 4d 08	 mov	 ecx, DWORD PTR _rv3LightDirection$[ebp]
  00019	89 01		 mov	 DWORD PTR [ecx], eax

; 287  : 	rv3LightDirection.y = mc_pcurEnvironmentData->DirLights[ENV_DIRLIGHT_BACKGROUND].Direction.y;

  0001b	8b 82 2c 14 00
	00		 mov	 eax, DWORD PTR [edx+5164]
  00021	8b 40 4c	 mov	 eax, DWORD PTR [eax+76]
  00024	89 41 04	 mov	 DWORD PTR [ecx+4], eax

; 288  : 	rv3LightDirection.z = mc_pcurEnvironmentData->DirLights[ENV_DIRLIGHT_BACKGROUND].Direction.z;

  00027	8b 82 2c 14 00
	00		 mov	 eax, DWORD PTR [edx+5164]
  0002d	8b 40 50	 mov	 eax, DWORD PTR [eax+80]
  00030	89 41 08	 mov	 DWORD PTR [ecx+8], eax

; 289  : 	return TRUE;

  00033	b8 01 00 00 00	 mov	 eax, 1

; 290  : }

  00038	5d		 pop	 ebp
  00039	c2 04 00	 ret	 4
?GetLightDirection@CPythonBackground@@QAEHAAUD3DXVECTOR3@@@Z ENDP ; CPythonBackground::GetLightDirection
_TEXT	ENDS
; Function compile flags: /Ogtp
; File D:\Metin2 Server Files\mainline\SRC_2014\Metin2Client\UserInterface\PythonBackground.cpp
;	COMDAT ?GetPickingPointWithRayOnlyTerrain@CPythonBackground@@QAE_NABVCRay@@PAUD3DXVECTOR3@@@Z
_TEXT	SEGMENT
_rRay$ = 8						; size = 4
_v3IntersectPt$ = 12					; size = 4
?GetPickingPointWithRayOnlyTerrain@CPythonBackground@@QAE_NABVCRay@@PAUD3DXVECTOR3@@@Z PROC ; CPythonBackground::GetPickingPointWithRayOnlyTerrain, COMDAT
; _this$ = ecx

; 276  : {

  00000	55		 push	 ebp
  00001	8b ec		 mov	 ebp, esp

; 277  : 	CMapOutdoor& rkMap=GetMapOutdoorRef();

  00003	e8 00 00 00 00	 call	 ?GetMapOutdoorRef@CMapManager@@QAEAAVCMapOutdoor@@XZ ; CMapManager::GetMapOutdoorRef

; 278  : 	return rkMap.GetPickingPointWithRayOnlyTerrain(rRay, v3IntersectPt);

  00008	8b c8		 mov	 ecx, eax

; 279  : }

  0000a	5d		 pop	 ebp

; 278  : 	return rkMap.GetPickingPointWithRayOnlyTerrain(rRay, v3IntersectPt);

  0000b	e9 00 00 00 00	 jmp	 ?GetPickingPointWithRayOnlyTerrain@CMapOutdoor@@QAE_NABVCRay@@PAUD3DXVECTOR3@@@Z ; CMapOutdoor::GetPickingPointWithRayOnlyTerrain
?GetPickingPointWithRayOnlyTerrain@CPythonBackground@@QAE_NABVCRay@@PAUD3DXVECTOR3@@@Z ENDP ; CPythonBackground::GetPickingPointWithRayOnlyTerrain
_TEXT	ENDS
; Function compile flags: /Ogtp
; File D:\Metin2 Server Files\mainline\SRC_2014\Metin2Client\UserInterface\PythonBackground.cpp
;	COMDAT ?GetPickingPointWithRay@CPythonBackground@@QAE_NABVCRay@@PAUD3DXVECTOR3@@@Z
_TEXT	SEGMENT
_rRay$ = 8						; size = 4
_v3IntersectPt$ = 12					; size = 4
?GetPickingPointWithRay@CPythonBackground@@QAE_NABVCRay@@PAUD3DXVECTOR3@@@Z PROC ; CPythonBackground::GetPickingPointWithRay, COMDAT
; _this$ = ecx

; 270  : {

  00000	55		 push	 ebp
  00001	8b ec		 mov	 ebp, esp

; 271  : 	CMapOutdoor& rkMap=GetMapOutdoorRef();

  00003	e8 00 00 00 00	 call	 ?GetMapOutdoorRef@CMapManager@@QAEAAVCMapOutdoor@@XZ ; CMapManager::GetMapOutdoorRef

; 272  : 	return rkMap.GetPickingPointWithRay(rRay, v3IntersectPt);

  00008	8b c8		 mov	 ecx, eax

; 273  : }

  0000a	5d		 pop	 ebp

; 272  : 	return rkMap.GetPickingPointWithRay(rRay, v3IntersectPt);

  0000b	e9 00 00 00 00	 jmp	 ?GetPickingPointWithRay@CMapOutdoor@@QAE_NABVCRay@@PAUD3DXVECTOR3@@@Z ; CMapOutdoor::GetPickingPointWithRay
?GetPickingPointWithRay@CPythonBackground@@QAE_NABVCRay@@PAUD3DXVECTOR3@@@Z ENDP ; CPythonBackground::GetPickingPointWithRay
_TEXT	ENDS
; Function compile flags: /Ogtp
; File D:\Metin2 Server Files\mainline\SRC_2014\Metin2Client\UserInterface\PythonBackground.cpp
;	COMDAT ?GetPickingPoint@CPythonBackground@@QAE_NPAUD3DXVECTOR3@@@Z
_TEXT	SEGMENT
_v3IntersectPt$ = 8					; size = 4
?GetPickingPoint@CPythonBackground@@QAE_NPAUD3DXVECTOR3@@@Z PROC ; CPythonBackground::GetPickingPoint, COMDAT
; _this$ = ecx

; 264  : {

  00000	55		 push	 ebp
  00001	8b ec		 mov	 ebp, esp

; 265  : 	CMapOutdoor& rkMap=GetMapOutdoorRef();

  00003	e8 00 00 00 00	 call	 ?GetMapOutdoorRef@CMapManager@@QAEAAVCMapOutdoor@@XZ ; CMapManager::GetMapOutdoorRef

; 266  : 	return rkMap.GetPickingPoint(v3IntersectPt);

  00008	8b c8		 mov	 ecx, eax

; 267  : }

  0000a	5d		 pop	 ebp

; 266  : 	return rkMap.GetPickingPoint(v3IntersectPt);

  0000b	e9 00 00 00 00	 jmp	 ?GetPickingPoint@CMapOutdoor@@QAE_NPAUD3DXVECTOR3@@@Z ; CMapOutdoor::GetPickingPoint
?GetPickingPoint@CPythonBackground@@QAE_NPAUD3DXVECTOR3@@@Z ENDP ; CPythonBackground::GetPickingPoint
_TEXT	ENDS
; Function compile flags: /Ogtp
; File D:\Metin2 Server Files\mainline\SRC_2014\Metin2Client\UserInterface\PythonBackground.cpp
;	COMDAT ?GetDistanceSetInfo@CPythonBackground@@QAEXPAHPAM11@Z
_TEXT	SEGMENT
_peNum$ = 8						; size = 4
_pfStart$ = 12						; size = 4
_pfEnd$ = 16						; size = 4
_pfFarClip$ = 20					; size = 4
?GetDistanceSetInfo@CPythonBackground@@QAEXPAHPAM11@Z PROC ; CPythonBackground::GetDistanceSetInfo, COMDAT
; _this$ = ecx

; 188  : {

  00000	55		 push	 ebp
  00001	8b ec		 mov	 ebp, esp

; 189  : 	if (!m_pkMap)

  00003	8b 45 08	 mov	 eax, DWORD PTR _peNum$[ebp]
  00006	8b d1		 mov	 edx, ecx
  00008	83 ba 30 14 00
	00 00		 cmp	 DWORD PTR [edx+5168], 0
  0000f	75 2b		 jne	 SHORT $LN2@GetDistanc

; 190  : 	{
; 191  : 		*peNum = 4;
; 192  : 		*pfStart= 10000.0f;
; 193  : 		*pfEnd= 15000.0f;
; 194  : 		*pfFarClip = 50000.0f;

  00011	f3 0f 10 05 00
	00 00 00	 movss	 xmm0, DWORD PTR __real@47435000
  00019	c7 00 04 00 00
	00		 mov	 DWORD PTR [eax], 4
  0001f	8b 45 0c	 mov	 eax, DWORD PTR _pfStart$[ebp]
  00022	c7 00 00 40 1c
	46		 mov	 DWORD PTR [eax], 1176256512 ; 461c4000H
  00028	8b 45 10	 mov	 eax, DWORD PTR _pfEnd$[ebp]
  0002b	c7 00 00 60 6a
	46		 mov	 DWORD PTR [eax], 1181376512 ; 466a6000H

; 201  : }

  00031	8b 45 14	 mov	 eax, DWORD PTR _pfFarClip$[ebp]
  00034	f3 0f 11 00	 movss	 DWORD PTR [eax], xmm0
  00038	5d		 pop	 ebp
  00039	c2 10 00	 ret	 16			; 00000010H
$LN2@GetDistanc:

; 195  : 		return;
; 196  : 	}
; 197  : 	*peNum = m_eViewDistanceNum;

  0003c	8b 8a 5c 15 00
	00		 mov	 ecx, DWORD PTR [edx+5468]
  00042	89 08		 mov	 DWORD PTR [eax], ecx

; 198  : 	*pfStart = m_ViewDistanceSet[m_eViewDistanceNum].m_fFogStart;

  00044	8b 82 5c 15 00
	00		 mov	 eax, DWORD PTR [edx+5468]
  0004a	8d 04 40	 lea	 eax, DWORD PTR [eax+eax*2]
  0004d	8b 8c c2 70 15
	00 00		 mov	 ecx, DWORD PTR [edx+eax*8+5488]
  00054	8b 45 0c	 mov	 eax, DWORD PTR _pfStart$[ebp]
  00057	89 08		 mov	 DWORD PTR [eax], ecx

; 199  : 	*pfEnd= m_ViewDistanceSet[m_eViewDistanceNum].m_fFogEnd;

  00059	8b 82 5c 15 00
	00		 mov	 eax, DWORD PTR [edx+5468]
  0005f	8d 04 40	 lea	 eax, DWORD PTR [eax+eax*2]
  00062	8b 8c c2 74 15
	00 00		 mov	 ecx, DWORD PTR [edx+eax*8+5492]
  00069	8b 45 10	 mov	 eax, DWORD PTR _pfEnd$[ebp]
  0006c	89 08		 mov	 DWORD PTR [eax], ecx

; 200  : 	*pfFarClip = m_ViewDistanceSet[m_eViewDistanceNum].m_fFarClip;

  0006e	8b 82 5c 15 00
	00		 mov	 eax, DWORD PTR [edx+5468]
  00074	05 e5 00 00 00	 add	 eax, 229		; 000000e5H
  00079	8d 04 40	 lea	 eax, DWORD PTR [eax+eax*2]
  0007c	f3 0f 10 04 c2	 movss	 xmm0, DWORD PTR [edx+eax*8]

; 201  : }

  00081	8b 45 14	 mov	 eax, DWORD PTR _pfFarClip$[ebp]
  00084	f3 0f 11 00	 movss	 DWORD PTR [eax], xmm0
  00088	5d		 pop	 ebp
  00089	c2 10 00	 ret	 16			; 00000010H
?GetDistanceSetInfo@CPythonBackground@@QAEXPAHPAM11@Z ENDP ; CPythonBackground::GetDistanceSetInfo
_TEXT	ENDS
; Function compile flags: /Ogtp
; File D:\Metin2 Server Files\mainline\SRC_2014\Metin2Client\UserInterface\PythonBackground.cpp
;	COMDAT ?GetRenderShadowTime@CPythonBackground@@QAEKXZ
_TEXT	SEGMENT
?GetRenderShadowTime@CPythonBackground@@QAEKXZ PROC	; CPythonBackground::GetRenderShadowTime, COMDAT
; _this$ = ecx

; 22   : 	return m_dwRenderShadowTime;

  00000	8b 81 64 15 00
	00		 mov	 eax, DWORD PTR [ecx+5476]

; 23   : }

  00006	c3		 ret	 0
?GetRenderShadowTime@CPythonBackground@@QAEKXZ ENDP	; CPythonBackground::GetRenderShadowTime
_TEXT	ENDS
; Function compile flags: /Ogtp
; File D:\Metin2 Server Files\mainline\SRC_2014\Metin2Client\UserInterface\PythonBackground.cpp
;	COMDAT ?GetFarClip@CPythonBackground@@QAEMXZ
_TEXT	SEGMENT
?GetFarClip@CPythonBackground@@QAEMXZ PROC		; CPythonBackground::GetFarClip, COMDAT
; _this$ = ecx

; 174  : {

  00000	56		 push	 esi
  00001	8b f1		 mov	 esi, ecx

; 175  : 	if (!m_pkMap)

  00003	83 be 30 14 00
	00 00		 cmp	 DWORD PTR [esi+5168], 0
  0000a	75 08		 jne	 SHORT $LN2@GetFarClip

; 176  : 		return 50000.0f;

  0000c	d9 05 00 00 00
	00		 fld	 DWORD PTR __real@47435000
  00012	5e		 pop	 esi

; 185  : }

  00013	c3		 ret	 0
$LN2@GetFarClip:

; 177  : 
; 178  : 	if (m_ViewDistanceSet[m_eViewDistanceNum].m_fFarClip==0.0f)

  00014	8b 8e 5c 15 00
	00		 mov	 ecx, DWORD PTR [esi+5468]
  0001a	8d 04 49	 lea	 eax, DWORD PTR [ecx+ecx*2]
  0001d	f3 0f 10 84 c6
	78 15 00 00	 movss	 xmm0, DWORD PTR [esi+eax*8+5496]
  00026	0f 2e 05 00 00
	00 00		 ucomiss xmm0, DWORD PTR __real@00000000
  0002d	9f		 lahf
  0002e	f6 c4 44	 test	 ah, 68			; 00000044H
  00031	7a 29		 jp	 SHORT $LN3@GetFarClip

; 179  : 	{
; 180  : 		TraceError("CPythonBackground::GetFarClip m_eViewDistanceNum=%d", m_eViewDistanceNum);

  00033	51		 push	 ecx
  00034	68 00 00 00 00	 push	 OFFSET ??_C@_0DE@ELMEDMBE@CPythonBackground?3?3GetFarClip?5m@
  00039	e8 00 00 00 00	 call	 ?TraceError@@YAXPBDZZ	; TraceError

; 181  : 		m_ViewDistanceSet[m_eViewDistanceNum].m_fFarClip=25600.0f;

  0003e	8b 86 5c 15 00
	00		 mov	 eax, DWORD PTR [esi+5468]
  00044	83 c4 08	 add	 esp, 8
  00047	05 e5 00 00 00	 add	 eax, 229		; 000000e5H
  0004c	8d 04 40	 lea	 eax, DWORD PTR [eax+eax*2]
  0004f	c7 04 c6 00 00
	c8 46		 mov	 DWORD PTR [esi+eax*8], 1187512320 ; 46c80000H
  00056	8b 8e 5c 15 00
	00		 mov	 ecx, DWORD PTR [esi+5468]
$LN3@GetFarClip:

; 182  : 	}
; 183  : 
; 184  : 	return m_ViewDistanceSet[m_eViewDistanceNum].m_fFarClip;

  0005c	8d 04 49	 lea	 eax, DWORD PTR [ecx+ecx*2]
  0005f	d9 84 c6 78 15
	00 00		 fld	 DWORD PTR [esi+eax*8+5496]
  00066	5e		 pop	 esi

; 185  : }

  00067	c3		 ret	 0
?GetFarClip@CPythonBackground@@QAEMXZ ENDP		; CPythonBackground::GetFarClip
_TEXT	ENDS
; Function compile flags: /Ogtp
; File D:\Metin2 Server Files\mainline\SRC_2014\Metin2Client\UserInterface\PythonBackground.cpp
; File D:\Metin2 Server Files\mainline\SRC_2014\M2Data\include\d3dx8math.inl
; File D:\Metin2 Server Files\mainline\SRC_2014\Metin2Client\UserInterface\PythonBackground.cpp
;	COMDAT ?SetViewDistanceSet@CPythonBackground@@QAEXHM@Z
_TEXT	SEGMENT
$T1 = -12						; size = 12
_eNum$ = 8						; size = 4
_fFarClip$ = 12						; size = 4
?SetViewDistanceSet@CPythonBackground@@QAEXHM@Z PROC	; CPythonBackground::SetViewDistanceSet, COMDAT
; _this$ = ecx

; 158  : {

  00000	55		 push	 ebp
  00001	8b ec		 mov	 ebp, esp
  00003	83 ec 0c	 sub	 esp, 12			; 0000000cH

; 159  : 	if (!m_pkMap)

  00006	83 b9 30 14 00
	00 00		 cmp	 DWORD PTR [ecx+5168], 0
  0000d	74 75		 je	 SHORT $LN3@SetViewDis

; 160  : 		return;
; 161  : 	
; 162  : 	m_ViewDistanceSet[eNum].m_fFogStart		= fFarClip * 0.5f;//0.3333333f;

  0000f	f3 0f 10 4d 0c	 movss	 xmm1, DWORD PTR _fFarClip$[ebp]
  00014	56		 push	 esi
  00015	8b 75 08	 mov	 esi, DWORD PTR _eNum$[ebp]
  00018	0f 28 c1	 movaps	 xmm0, xmm1
  0001b	f3 0f 59 05 00
	00 00 00	 mulss	 xmm0, DWORD PTR __real@3f000000
  00023	8d 14 76	 lea	 edx, DWORD PTR [esi+esi*2]
  00026	f3 0f 11 84 d1
	70 15 00 00	 movss	 DWORD PTR [ecx+edx*8+5488], xmm0

; 163  : 	m_ViewDistanceSet[eNum].m_fFogEnd		= fFarClip * 0.7f;//0.6666667f;

  0002f	0f 28 c1	 movaps	 xmm0, xmm1
  00032	f3 0f 59 05 00
	00 00 00	 mulss	 xmm0, DWORD PTR __real@3f333333
  0003a	f3 0f 11 84 d1
	74 15 00 00	 movss	 DWORD PTR [ecx+edx*8+5492], xmm0

; 164  : 	
; 165  : 	float fSkyBoxScale						= fFarClip * 0.6f;//0.5773502f;

  00043	0f 28 c1	 movaps	 xmm0, xmm1
  00046	f3 0f 59 05 00
	00 00 00	 mulss	 xmm0, DWORD PTR __real@3f19999a
; File D:\Metin2 Server Files\mainline\SRC_2014\M2Data\include\d3dx8math.inl

; 182  :     z = fz;

  0004e	f3 0f 11 45 fc	 movss	 DWORD PTR $T1[ebp+8], xmm0
; File D:\Metin2 Server Files\mainline\SRC_2014\Metin2Client\UserInterface\PythonBackground.cpp

; 166  : 	m_ViewDistanceSet[eNum].m_v3SkyBoxScale	= D3DXVECTOR3(fSkyBoxScale, fSkyBoxScale, fSkyBoxScale);

  00053	8b 45 fc	 mov	 eax, DWORD PTR $T1[ebp+8]
  00056	0f 14 c0	 unpcklps xmm0, xmm0
  00059	66 0f d6 84 d1
	7c 15 00 00	 movq	 QWORD PTR [ecx+edx*8+5500], xmm0
  00062	89 84 d1 84 15
	00 00		 mov	 DWORD PTR [ecx+edx*8+5508], eax

; 167  : 	m_ViewDistanceSet[eNum].m_fFarClip		= fFarClip;

  00069	8d 04 76	 lea	 eax, DWORD PTR [esi+esi*2]
  0006c	f3 0f 11 8c c1
	78 15 00 00	 movss	 DWORD PTR [ecx+eax*8+5496], xmm1

; 168  : 
; 169  : 	if (eNum == m_eViewDistanceNum)

  00075	3b b1 5c 15 00
	00		 cmp	 esi, DWORD PTR [ecx+5468]
  0007b	75 06		 jne	 SHORT $LN7@SetViewDis

; 170  : 		SelectViewDistanceNum(eNum);

  0007d	56		 push	 esi
  0007e	e8 00 00 00 00	 call	 ?SelectViewDistanceNum@CPythonBackground@@QAEXH@Z ; CPythonBackground::SelectViewDistanceNum
$LN7@SetViewDis:
  00083	5e		 pop	 esi
$LN3@SetViewDis:

; 171  : }

  00084	8b e5		 mov	 esp, ebp
  00086	5d		 pop	 ebp
  00087	c2 08 00	 ret	 8
?SetViewDistanceSet@CPythonBackground@@QAEXHM@Z ENDP	; CPythonBackground::SetViewDistanceSet
_TEXT	ENDS
; Function compile flags: /Ogtp
; File D:\Metin2 Server Files\mainline\SRC_2014\Metin2Client\UserInterface\PythonBackground.cpp
;	COMDAT ?SelectViewDistanceNum@CPythonBackground@@QAEXH@Z
_TEXT	SEGMENT
_eNum$ = 8						; size = 4
?SelectViewDistanceNum@CPythonBackground@@QAEXH@Z PROC	; CPythonBackground::SelectViewDistanceNum, COMDAT
; _this$ = ecx

; 131  : {

  00000	55		 push	 ebp
  00001	8b ec		 mov	 ebp, esp
  00003	56		 push	 esi
  00004	8b f1		 mov	 esi, ecx

; 132  : 	if (!m_pkMap)

  00006	83 be 30 14 00
	00 00		 cmp	 DWORD PTR [esi+5168], 0
  0000d	0f 84 8c 00 00
	00		 je	 $LN4@SelectView

; 133  : 		return;
; 134  : 	
; 135  : 	CMapOutdoor& rkMap=GetMapOutdoorRef();

  00013	e8 00 00 00 00	 call	 ?GetMapOutdoorRef@CMapManager@@QAEAAVCMapOutdoor@@XZ ; CMapManager::GetMapOutdoorRef

; 136  : 
; 137  : 	if (!mc_pcurEnvironmentData)

  00018	8b 8e 2c 14 00
	00		 mov	 ecx, DWORD PTR [esi+5164]
  0001e	8b d0		 mov	 edx, eax
  00020	85 c9		 test	 ecx, ecx
  00022	75 15		 jne	 SHORT $LN3@SelectView

; 138  : 	{
; 139  : 		TraceError("CPythonBackground::SelectViewDistanceNum(int eNum=%d) mc_pcurEnvironmentData is NULL", eNum);

  00024	ff 75 08	 push	 DWORD PTR _eNum$[ebp]
  00027	68 00 00 00 00	 push	 OFFSET ??_C@_0FF@DMIGEFGG@CPythonBackground?3?3SelectViewDi@
  0002c	e8 00 00 00 00	 call	 ?TraceError@@YAXPBDZZ	; TraceError
  00031	83 c4 08	 add	 esp, 8
  00034	5e		 pop	 esi

; 154  : 	}
; 155  : }

  00035	5d		 pop	 ebp
  00036	c2 04 00	 ret	 4
$LN3@SelectView:

; 140  : 		return;
; 141  : 	}
; 142  : 
; 143  : 	m_eViewDistanceNum = eNum;

  00039	8b 45 08	 mov	 eax, DWORD PTR _eNum$[ebp]
  0003c	89 86 5c 15 00
	00		 mov	 DWORD PTR [esi+5468], eax

; 144  : 
; 145  : 	TEnvironmentData * env = ((TEnvironmentData *) mc_pcurEnvironmentData);
; 146  : 
; 147  : 	//      reserve   .
; 148  : 	if (env->bReserve)

  00042	83 b9 98 02 00
	00 00		 cmp	 DWORD PTR [ecx+664], 0
  00049	74 54		 je	 SHORT $LN4@SelectView

; 149  : 	{
; 150  : 		env->m_fFogNearDistance = m_ViewDistanceSet[m_eViewDistanceNum].m_fFogStart;

  0004b	8d 04 40	 lea	 eax, DWORD PTR [eax+eax*2]
  0004e	8b 84 c6 70 15
	00 00		 mov	 eax, DWORD PTR [esi+eax*8+5488]
  00055	89 81 24 01 00
	00		 mov	 DWORD PTR [ecx+292], eax

; 151  : 		env->m_fFogFarDistance = m_ViewDistanceSet[m_eViewDistanceNum].m_fFogEnd;

  0005b	8b 86 5c 15 00
	00		 mov	 eax, DWORD PTR [esi+5468]
  00061	8d 04 40	 lea	 eax, DWORD PTR [eax+eax*2]
  00064	8b 84 c6 74 15
	00 00		 mov	 eax, DWORD PTR [esi+eax*8+5492]
  0006b	89 81 28 01 00
	00		 mov	 DWORD PTR [ecx+296], eax

; 152  : 		env->v3SkyBoxScale = m_ViewDistanceSet[m_eViewDistanceNum].m_v3SkyBoxScale;

  00071	8b 86 5c 15 00
	00		 mov	 eax, DWORD PTR [esi+5468]
  00077	8d 04 40	 lea	 eax, DWORD PTR [eax+eax*2]
  0007a	f3 0f 7e 84 c6
	7c 15 00 00	 movq	 xmm0, QWORD PTR [esi+eax*8+5500]
  00083	66 0f d6 81 5c
	01 00 00	 movq	 QWORD PTR [ecx+348], xmm0
  0008b	8b 84 c6 84 15
	00 00		 mov	 eax, DWORD PTR [esi+eax*8+5508]
  00092	89 81 64 01 00
	00		 mov	 DWORD PTR [ecx+356], eax

; 153  : 		rkMap.SetEnvironmentSkyBox();

  00098	8b ca		 mov	 ecx, edx
  0009a	e8 00 00 00 00	 call	 ?SetEnvironmentSkyBox@CMapOutdoor@@QAEXXZ ; CMapOutdoor::SetEnvironmentSkyBox
$LN4@SelectView:
  0009f	5e		 pop	 esi

; 154  : 	}
; 155  : }

  000a0	5d		 pop	 ebp
  000a1	c2 04 00	 ret	 4
?SelectViewDistanceNum@CPythonBackground@@QAEXH@Z ENDP	; CPythonBackground::SelectViewDistanceNum
_TEXT	ENDS
; Function compile flags: /Ogtp
; File D:\Metin2 Server Files\mainline\SRC_2014\Metin2Client\UserInterface\PythonBackground.cpp
;	COMDAT ?RefreshShadowLevel@CPythonBackground@@QAEXXZ
_TEXT	SEGMENT
?RefreshShadowLevel@CPythonBackground@@QAEXXZ PROC	; CPythonBackground::RefreshShadowLevel, COMDAT
; _this$ = ecx

; 73   : {

  00000	56		 push	 esi
  00001	8b f1		 mov	 esi, ecx

; 74   : 	SetShadowLevel(CPythonSystem::Instance().GetShadowLevel());

  00003	8b 0d 00 00 00
	00		 mov	 ecx, DWORD PTR ?ms_singleton@?$CSingleton@VCPythonSystem@@@@0PAVCPythonSystem@@A ; CSingleton<CPythonSystem>::ms_singleton
  00009	e8 00 00 00 00	 call	 ?GetShadowLevel@CPythonSystem@@QAEHXZ ; CPythonSystem::GetShadowLevel
  0000e	50		 push	 eax
  0000f	8b ce		 mov	 ecx, esi
  00011	e8 00 00 00 00	 call	 ?SetShadowLevel@CPythonBackground@@QAE_NH@Z ; CPythonBackground::SetShadowLevel
  00016	5e		 pop	 esi

; 75   : }

  00017	c3		 ret	 0
?RefreshShadowLevel@CPythonBackground@@QAEXXZ ENDP	; CPythonBackground::RefreshShadowLevel
_TEXT	ENDS
; Function compile flags: /Ogtp
; File D:\Metin2 Server Files\mainline\SRC_2014\Metin2Client\UserInterface\PythonBackground.cpp
;	COMDAT ?SetShadowLevel@CPythonBackground@@QAE_NH@Z
_TEXT	SEGMENT
_eLevel$ = 8						; size = 4
?SetShadowLevel@CPythonBackground@@QAE_NH@Z PROC	; CPythonBackground::SetShadowLevel, COMDAT
; _this$ = ecx

; 78   : {

  00000	55		 push	 ebp
  00001	8b ec		 mov	 ebp, esp
  00003	57		 push	 edi
  00004	8b f9		 mov	 edi, ecx

; 79   : 	if (!m_pkMap)

  00006	83 bf 30 14 00
	00 00		 cmp	 DWORD PTR [edi+5168], 0
  0000d	75 07		 jne	 SHORT $LN4@SetShadowL

; 80   : 		return false;

  0000f	32 c0		 xor	 al, al
  00011	5f		 pop	 edi

; 128  : }

  00012	5d		 pop	 ebp
  00013	c2 04 00	 ret	 4
$LN4@SetShadowL:
  00016	53		 push	 ebx

; 81   : 
; 82   : 	if (m_eShadowLevel == eLevel)

  00017	8b 5d 08	 mov	 ebx, DWORD PTR _eLevel$[ebp]
  0001a	39 9f 58 15 00
	00		 cmp	 DWORD PTR [edi+5464], ebx
  00020	0f 84 d0 00 00
	00		 je	 $LN2@SetShadowL

; 83   : 		return true;
; 84   : 
; 85   : 	CMapOutdoor& rkMap = GetMapOutdoorRef();

  00026	56		 push	 esi
  00027	e8 00 00 00 00	 call	 ?GetMapOutdoorRef@CMapManager@@QAEAAVCMapOutdoor@@XZ ; CMapManager::GetMapOutdoorRef

; 86   : 
; 87   : 	m_eShadowLevel = eLevel;

  0002c	89 9f 58 15 00
	00		 mov	 DWORD PTR [edi+5464], ebx
  00032	8b f0		 mov	 esi, eax

; 88   : 
; 89   : 	switch (m_eShadowLevel)

  00034	83 fb 05	 cmp	 ebx, 5
  00037	0f 87 b8 00 00
	00		 ja	 $LN14@SetShadowL
  0003d	ff 24 9d 00 00
	00 00		 jmp	 DWORD PTR $LN13@SetShadowL[ebx*4]
$LN6@SetShadowL:

; 90   : 	{
; 91   : 		case SHADOW_NONE:
; 92   : 			rkMap.SetDrawShadow(false);

  00044	6a 00		 push	 0
  00046	8b ce		 mov	 ecx, esi
  00048	e8 00 00 00 00	 call	 ?SetDrawShadow@CMapOutdoor@@QAEX_N@Z ; CMapOutdoor::SetDrawShadow

; 93   : 			rkMap.SetShadowTextureSize(512);

  0004d	68 00 02 00 00	 push	 512			; 00000200H

; 123  : 			rkMap.SetShadowTextureSize(2048);

  00052	8b ce		 mov	 ecx, esi
  00054	e8 00 00 00 00	 call	 ?SetShadowTextureSize@CMapOutdoor@@QAEXG@Z ; CMapOutdoor::SetShadowTextureSize
  00059	5e		 pop	 esi

; 124  : 			break;
; 125  : 	}
; 126  : 
; 127  : 	return true;

  0005a	5b		 pop	 ebx
  0005b	b0 01		 mov	 al, 1
  0005d	5f		 pop	 edi

; 128  : }

  0005e	5d		 pop	 ebp
  0005f	c2 04 00	 ret	 4
$LN7@SetShadowL:

; 94   : 			break;
; 95   : 
; 96   : 		case SHADOW_GROUND:
; 97   : 			rkMap.SetDrawShadow(true);

  00062	6a 01		 push	 1
  00064	8b ce		 mov	 ecx, esi
  00066	e8 00 00 00 00	 call	 ?SetDrawShadow@CMapOutdoor@@QAEX_N@Z ; CMapOutdoor::SetDrawShadow

; 98   : 			rkMap.SetDrawCharacterShadow(false);

  0006b	6a 00		 push	 0
  0006d	8b ce		 mov	 ecx, esi
  0006f	e8 00 00 00 00	 call	 ?SetDrawCharacterShadow@CMapOutdoor@@QAEX_N@Z ; CMapOutdoor::SetDrawCharacterShadow

; 99   : 			rkMap.SetShadowTextureSize(512);

  00074	68 00 02 00 00	 push	 512			; 00000200H

; 123  : 			rkMap.SetShadowTextureSize(2048);

  00079	8b ce		 mov	 ecx, esi
  0007b	e8 00 00 00 00	 call	 ?SetShadowTextureSize@CMapOutdoor@@QAEXG@Z ; CMapOutdoor::SetShadowTextureSize
  00080	5e		 pop	 esi

; 124  : 			break;
; 125  : 	}
; 126  : 
; 127  : 	return true;

  00081	5b		 pop	 ebx
  00082	b0 01		 mov	 al, 1
  00084	5f		 pop	 edi

; 128  : }

  00085	5d		 pop	 ebp
  00086	c2 04 00	 ret	 4
$LN9@SetShadowL:

; 100  : 			break;
; 101  : 
; 102  : 		case SHADOW_GROUND_AND_SOLO:
; 103  : 			rkMap.SetDrawShadow(true);
; 104  : 			rkMap.SetDrawCharacterShadow(true);
; 105  : 			rkMap.SetShadowTextureSize(512);
; 106  : 			break;
; 107  : 
; 108  : 		case SHADOW_ALL:
; 109  : 			rkMap.SetDrawShadow(true);	

  00089	6a 01		 push	 1
  0008b	8b ce		 mov	 ecx, esi
  0008d	e8 00 00 00 00	 call	 ?SetDrawShadow@CMapOutdoor@@QAEX_N@Z ; CMapOutdoor::SetDrawShadow

; 110  : 			rkMap.SetDrawCharacterShadow(true);

  00092	6a 01		 push	 1
  00094	8b ce		 mov	 ecx, esi
  00096	e8 00 00 00 00	 call	 ?SetDrawCharacterShadow@CMapOutdoor@@QAEX_N@Z ; CMapOutdoor::SetDrawCharacterShadow

; 111  : 			rkMap.SetShadowTextureSize(512);

  0009b	68 00 02 00 00	 push	 512			; 00000200H

; 123  : 			rkMap.SetShadowTextureSize(2048);

  000a0	8b ce		 mov	 ecx, esi
  000a2	e8 00 00 00 00	 call	 ?SetShadowTextureSize@CMapOutdoor@@QAEXG@Z ; CMapOutdoor::SetShadowTextureSize
  000a7	5e		 pop	 esi

; 124  : 			break;
; 125  : 	}
; 126  : 
; 127  : 	return true;

  000a8	5b		 pop	 ebx
  000a9	b0 01		 mov	 al, 1
  000ab	5f		 pop	 edi

; 128  : }

  000ac	5d		 pop	 ebp
  000ad	c2 04 00	 ret	 4
$LN10@SetShadowL:

; 112  : 			break;
; 113  : 
; 114  : 		case SHADOW_ALL_HIGH:
; 115  : 			rkMap.SetDrawShadow(true);	

  000b0	6a 01		 push	 1
  000b2	8b ce		 mov	 ecx, esi
  000b4	e8 00 00 00 00	 call	 ?SetDrawShadow@CMapOutdoor@@QAEX_N@Z ; CMapOutdoor::SetDrawShadow

; 116  : 			rkMap.SetDrawCharacterShadow(true);

  000b9	6a 01		 push	 1
  000bb	8b ce		 mov	 ecx, esi
  000bd	e8 00 00 00 00	 call	 ?SetDrawCharacterShadow@CMapOutdoor@@QAEX_N@Z ; CMapOutdoor::SetDrawCharacterShadow

; 117  : 			rkMap.SetShadowTextureSize(1024);

  000c2	68 00 04 00 00	 push	 1024			; 00000400H

; 123  : 			rkMap.SetShadowTextureSize(2048);

  000c7	8b ce		 mov	 ecx, esi
  000c9	e8 00 00 00 00	 call	 ?SetShadowTextureSize@CMapOutdoor@@QAEXG@Z ; CMapOutdoor::SetShadowTextureSize
  000ce	5e		 pop	 esi

; 124  : 			break;
; 125  : 	}
; 126  : 
; 127  : 	return true;

  000cf	5b		 pop	 ebx
  000d0	b0 01		 mov	 al, 1
  000d2	5f		 pop	 edi

; 128  : }

  000d3	5d		 pop	 ebp
  000d4	c2 04 00	 ret	 4
$LN11@SetShadowL:

; 118  : 			break;
; 119  : 
; 120  : 		case SHADOW_ALL_MAX:
; 121  : 			rkMap.SetDrawShadow(true);	

  000d7	6a 01		 push	 1
  000d9	8b ce		 mov	 ecx, esi
  000db	e8 00 00 00 00	 call	 ?SetDrawShadow@CMapOutdoor@@QAEX_N@Z ; CMapOutdoor::SetDrawShadow

; 122  : 			rkMap.SetDrawCharacterShadow(true);

  000e0	6a 01		 push	 1
  000e2	8b ce		 mov	 ecx, esi
  000e4	e8 00 00 00 00	 call	 ?SetDrawCharacterShadow@CMapOutdoor@@QAEX_N@Z ; CMapOutdoor::SetDrawCharacterShadow

; 123  : 			rkMap.SetShadowTextureSize(2048);

  000e9	68 00 08 00 00	 push	 2048			; 00000800H
  000ee	8b ce		 mov	 ecx, esi
  000f0	e8 00 00 00 00	 call	 ?SetShadowTextureSize@CMapOutdoor@@QAEXG@Z ; CMapOutdoor::SetShadowTextureSize
$LN14@SetShadowL:
  000f5	5e		 pop	 esi
$LN2@SetShadowL:

; 124  : 			break;
; 125  : 	}
; 126  : 
; 127  : 	return true;

  000f6	5b		 pop	 ebx
  000f7	b0 01		 mov	 al, 1
  000f9	5f		 pop	 edi

; 128  : }

  000fa	5d		 pop	 ebp
  000fb	c2 04 00	 ret	 4
  000fe	66 90		 npad	 2
$LN13@SetShadowL:
  00100	00 00 00 00	 DD	 $LN6@SetShadowL
  00104	00 00 00 00	 DD	 $LN7@SetShadowL
  00108	00 00 00 00	 DD	 $LN9@SetShadowL
  0010c	00 00 00 00	 DD	 $LN9@SetShadowL
  00110	00 00 00 00	 DD	 $LN10@SetShadowL
  00114	00 00 00 00	 DD	 $LN11@SetShadowL
?SetShadowLevel@CPythonBackground@@QAE_NH@Z ENDP	; CPythonBackground::SetShadowLevel
_TEXT	ENDS
; Function compile flags: /Ogtp
; File D:\Metin2 Server Files\mainline\SRC_2014\Metin2Client\UserInterface\PythonBackground.cpp
;	COMDAT ?SetVisiblePart@CPythonBackground@@QAE_NH_N@Z
_TEXT	SEGMENT
_eMapOutDoorPart$ = 8					; size = 4
_isVisible$ = 12					; size = 1
?SetVisiblePart@CPythonBackground@@QAE_NH_N@Z PROC	; CPythonBackground::SetVisiblePart, COMDAT
; _this$ = ecx

; 26   : {

  00000	55		 push	 ebp
  00001	8b ec		 mov	 ebp, esp

; 27   : 	if (!m_pkMap)

  00003	83 b9 30 14 00
	00 00		 cmp	 DWORD PTR [ecx+5168], 0
  0000a	75 06		 jne	 SHORT $LN2@SetVisible

; 28   : 		return false;

  0000c	32 c0		 xor	 al, al

; 33   : }

  0000e	5d		 pop	 ebp
  0000f	c2 08 00	 ret	 8
$LN2@SetVisible:

; 29   : 
; 30   : 	CMapOutdoor& rkMap=GetMapOutdoorRef();

  00012	e8 00 00 00 00	 call	 ?GetMapOutdoorRef@CMapManager@@QAEAAVCMapOutdoor@@XZ ; CMapManager::GetMapOutdoorRef

; 31   : 	rkMap.SetVisiblePart(eMapOutDoorPart, isVisible);

  00017	ff 75 0c	 push	 DWORD PTR _isVisible$[ebp]
  0001a	8b c8		 mov	 ecx, eax
  0001c	ff 75 08	 push	 DWORD PTR _eMapOutDoorPart$[ebp]
  0001f	e8 00 00 00 00	 call	 ?SetVisiblePart@CMapOutdoor@@QAEXH_N@Z ; CMapOutdoor::SetVisiblePart

; 32   : 	return true;

  00024	b0 01		 mov	 al, 1

; 33   : }

  00026	5d		 pop	 ebp
  00027	c2 08 00	 ret	 8
?SetVisiblePart@CPythonBackground@@QAE_NH_N@Z ENDP	; CPythonBackground::SetVisiblePart
_TEXT	ENDS
; Function compile flags: /Ogtp
; File D:\Metin2 Server Files\mainline\SRC_2014\Metin2Client\UserInterface\PythonBackground.cpp
;	COMDAT ?SetSplatLimit@CPythonBackground@@QAE_NH@Z
_TEXT	SEGMENT
_iSplatNum$ = 8						; size = 4
?SetSplatLimit@CPythonBackground@@QAE_NH@Z PROC		; CPythonBackground::SetSplatLimit, COMDAT
; _this$ = ecx

; 45   : {

  00000	55		 push	 ebp
  00001	8b ec		 mov	 ebp, esp

; 46   : 	if (!m_pkMap)

  00003	83 b9 30 14 00
	00 00		 cmp	 DWORD PTR [ecx+5168], 0
  0000a	75 06		 jne	 SHORT $LN2@SetSplatLi

; 47   : 		return false;

  0000c	32 c0		 xor	 al, al

; 52   : }

  0000e	5d		 pop	 ebp
  0000f	c2 04 00	 ret	 4
$LN2@SetSplatLi:

; 48   : 
; 49   : 	CMapOutdoor& rkMap = GetMapOutdoorRef();

  00012	e8 00 00 00 00	 call	 ?GetMapOutdoorRef@CMapManager@@QAEAAVCMapOutdoor@@XZ ; CMapManager::GetMapOutdoorRef

; 50   : 	rkMap.SetSplatLimit(iSplatNum);

  00017	ff 75 08	 push	 DWORD PTR _iSplatNum$[ebp]
  0001a	8b c8		 mov	 ecx, eax
  0001c	e8 00 00 00 00	 call	 ?SetSplatLimit@CMapOutdoor@@QAEXH@Z ; CMapOutdoor::SetSplatLimit

; 51   : 	return true;

  00021	b0 01		 mov	 al, 1

; 52   : }

  00023	5d		 pop	 ebp
  00024	c2 04 00	 ret	 4
?SetSplatLimit@CPythonBackground@@QAE_NH@Z ENDP		; CPythonBackground::SetSplatLimit
_TEXT	ENDS
; Function compile flags: /Ogtp
; File D:\Metin2 Server Files\mainline\SRC_2014\Metin2Client\UserInterface\PythonBackground.cpp
;	COMDAT ?EnableTerrainOnlyForHeight@CPythonBackground@@QAEXXZ
_TEXT	SEGMENT
?EnableTerrainOnlyForHeight@CPythonBackground@@QAEXXZ PROC ; CPythonBackground::EnableTerrainOnlyForHeight, COMDAT
; _this$ = ecx

; 37   : 	if (!m_pkMap)

  00000	83 b9 30 14 00
	00 00		 cmp	 DWORD PTR [ecx+5168], 0
  00007	74 0c		 je	 SHORT $LN1@EnableTerr

; 38   : 		return;
; 39   : 
; 40   : 	CMapOutdoor& rkMap=GetMapOutdoorRef();

  00009	e8 00 00 00 00	 call	 ?GetMapOutdoorRef@CMapManager@@QAEAAVCMapOutdoor@@XZ ; CMapManager::GetMapOutdoorRef

; 41   : 	rkMap.EnableTerrainOnlyForHeight(TRUE);

  0000e	c6 80 b6 0e 00
	00 01		 mov	 BYTE PTR [eax+3766], 1
$LN1@EnableTerr:

; 42   : }

  00015	c3		 ret	 0
?EnableTerrainOnlyForHeight@CPythonBackground@@QAEXXZ ENDP ; CPythonBackground::EnableTerrainOnlyForHeight
_TEXT	ENDS
; Function compile flags: /Ogtp
; File D:\Metin2 Server Files\mainline\SRC_2014\Metin2Client\UserInterface\PythonBackground.cpp
;	COMDAT ?LocalPositionToGlobalPosition@CPythonBackground@@QAEXAAJ0@Z
_TEXT	SEGMENT
_rLocalX$ = 8						; size = 4
_rLocalY$ = 12						; size = 4
?LocalPositionToGlobalPosition@CPythonBackground@@QAEXAAJ0@Z PROC ; CPythonBackground::LocalPositionToGlobalPosition, COMDAT
; _this$ = ecx

; 712  : {

  00000	55		 push	 ebp
  00001	8b ec		 mov	 ebp, esp

; 713  : 	rLocalX+=m_dwBaseX;

  00003	8b 45 08	 mov	 eax, DWORD PTR _rLocalX$[ebp]
  00006	8b 91 68 15 00
	00		 mov	 edx, DWORD PTR [ecx+5480]
  0000c	01 10		 add	 DWORD PTR [eax], edx

; 714  : 	rLocalY+=m_dwBaseY;

  0000e	8b 45 0c	 mov	 eax, DWORD PTR _rLocalY$[ebp]
  00011	8b 89 6c 15 00
	00		 mov	 ecx, DWORD PTR [ecx+5484]
  00017	01 08		 add	 DWORD PTR [eax], ecx

; 715  : }

  00019	5d		 pop	 ebp
  0001a	c2 08 00	 ret	 8
?LocalPositionToGlobalPosition@CPythonBackground@@QAEXAAJ0@Z ENDP ; CPythonBackground::LocalPositionToGlobalPosition
_TEXT	ENDS
; Function compile flags: /Ogtp
; File D:\Metin2 Server Files\mainline\SRC_2014\Metin2Client\UserInterface\PythonBackground.cpp
;	COMDAT ?GlobalPositionToLocalPosition@CPythonBackground@@QAEXAAJ0@Z
_TEXT	SEGMENT
_rGlobalX$ = 8						; size = 4
_rGlobalY$ = 12						; size = 4
?GlobalPositionToLocalPosition@CPythonBackground@@QAEXAAJ0@Z PROC ; CPythonBackground::GlobalPositionToLocalPosition, COMDAT
; _this$ = ecx

; 706  : {

  00000	55		 push	 ebp
  00001	8b ec		 mov	 ebp, esp

; 707  : 	rGlobalX-=m_dwBaseX;

  00003	8b 45 08	 mov	 eax, DWORD PTR _rGlobalX$[ebp]
  00006	8b 91 68 15 00
	00		 mov	 edx, DWORD PTR [ecx+5480]
  0000c	29 10		 sub	 DWORD PTR [eax], edx

; 708  : 	rGlobalY-=m_dwBaseY;

  0000e	8b 45 0c	 mov	 eax, DWORD PTR _rGlobalY$[ebp]
  00011	8b 89 6c 15 00
	00		 mov	 ecx, DWORD PTR [ecx+5484]
  00017	29 08		 sub	 DWORD PTR [eax], ecx

; 709  : }

  00019	5d		 pop	 ebp
  0001a	c2 08 00	 ret	 8
?GlobalPositionToLocalPosition@CPythonBackground@@QAEXAAJ0@Z ENDP ; CPythonBackground::GlobalPositionToLocalPosition
_TEXT	ENDS
; Function compile flags: /Ogtp
; File D:\Metin2 Server Files\mainline\SRC_2014\Metin2Client\UserInterface\PythonBackground.cpp
;	COMDAT ?Create@CPythonBackground@@QAEXXZ
_TEXT	SEGMENT
?Create@CPythonBackground@@QAEXXZ PROC			; CPythonBackground::Create, COMDAT
; _this$ = ecx

; 304  : 	static int s_isCreateProperty=false;
; 305  : 
; 306  : 	if (!s_isCreateProperty)

  00000	83 3d 00 00 00
	00 00		 cmp	 DWORD PTR ?s_isCreateProperty@?1??Create@CPythonBackground@@QAEXXZ@4HA, 0
  00007	56		 push	 esi
  00008	8b f1		 mov	 esi, ecx
  0000a	75 0f		 jne	 SHORT $LN2@Create

; 307  : 	{
; 308  : 		s_isCreateProperty=true;

  0000c	c7 05 00 00 00
	00 01 00 00 00	 mov	 DWORD PTR ?s_isCreateProperty@?1??Create@CPythonBackground@@QAEXXZ@4HA, 1

; 309  : 		__CreateProperty();

  00016	e8 00 00 00 00	 call	 ?__CreateProperty@CPythonBackground@@IAEXXZ ; CPythonBackground::__CreateProperty
$LN2@Create:

; 310  : 	}
; 311  : 
; 312  : 	CMapManager::Create();

  0001b	8b ce		 mov	 ecx, esi
  0001d	e8 00 00 00 00	 call	 ?Create@CMapManager@@QAEXXZ ; CMapManager::Create

; 313  : 
; 314  : 	m_SnowEnvironment.Create();

  00022	8d 8e f8 14 00
	00		 lea	 ecx, DWORD PTR [esi+5368]
  00028	5e		 pop	 esi
  00029	e9 00 00 00 00	 jmp	 ?Create@CSnowEnvironment@@QAE_NXZ ; CSnowEnvironment::Create
?Create@CPythonBackground@@QAEXXZ ENDP			; CPythonBackground::Create
_TEXT	ENDS
; Function compile flags: /Ogtp
; File D:\Metin2 Server Files\mainline\SRC_2014\Metin2Client\UserInterface\PythonBackground.cpp
;	COMDAT ?Destroy@CPythonBackground@@QAEXXZ
_TEXT	SEGMENT
?Destroy@CPythonBackground@@QAEXXZ PROC			; CPythonBackground::Destroy, COMDAT
; _this$ = ecx

; 296  : {

  00000	56		 push	 esi
  00001	8b f1		 mov	 esi, ecx

; 297  : 	CMapManager::Destroy();

  00003	e8 00 00 00 00	 call	 ?Destroy@CMapManager@@QAEXXZ ; CMapManager::Destroy

; 298  : 	m_SnowEnvironment.Destroy();

  00008	8d 8e f8 14 00
	00		 lea	 ecx, DWORD PTR [esi+5368]
  0000e	e8 00 00 00 00	 call	 ?Destroy@CSnowEnvironment@@QAEXXZ ; CSnowEnvironment::Destroy

; 299  : 	m_bVisibleGuildArea = FALSE;

  00013	c7 86 60 15 00
	00 00 00 00 00	 mov	 DWORD PTR [esi+5472], 0
  0001d	5e		 pop	 esi

; 300  : }

  0001e	c3		 ret	 0
?Destroy@CPythonBackground@@QAEXXZ ENDP			; CPythonBackground::Destroy
_TEXT	ENDS
; Function compile flags: /Ogtp
; File D:\Metin2 Server Files\mainline\SRC_2014\Metin2Client\UserInterface\PythonBackground.cpp
; File C:\Program Files (x86)\Microsoft Visual Studio\2019\Community\VC\Tools\MSVC\14.28.29333\include\xstring
; File D:\Metin2 Server Files\mainline\SRC_2014\Metin2Client\UserInterface\PythonBackground.cpp
; File C:\Program Files (x86)\Microsoft Visual Studio\2019\Community\VC\Tools\MSVC\14.28.29333\include\xstring
; File D:\Metin2 Server Files\mainline\SRC_2014\Metin2Client\gamelib\MapManager.h
; File C:\Program Files (x86)\Microsoft Visual Studio\2019\Community\VC\Tools\MSVC\14.28.29333\include\xstring
; File D:\Metin2 Server Files\mainline\SRC_2014\Metin2Client\UserInterface\PythonBackground.cpp
; File C:\Program Files (x86)\Microsoft Visual Studio\2019\Community\VC\Tools\MSVC\14.28.29333\include\xstring
; File C:\Program Files (x86)\Microsoft Visual Studio\2019\Community\VC\Tools\MSVC\14.28.29333\include\xmemory
; File D:\Metin2 Server Files\mainline\SRC_2014\Metin2Client\UserInterface\PythonBackground.cpp
;	COMDAT ?Initialize@CPythonBackground@@QAEXXZ
_TEXT	SEGMENT
_stAtlasInfoFileName$ = -40				; size = 24
__$ArrayPad$ = -16					; size = 4
__$EHRec$ = -12						; size = 12
?Initialize@CPythonBackground@@QAEXXZ PROC		; CPythonBackground::Initialize, COMDAT
; _this$ = ecx

; 235  : {

  00000	55		 push	 ebp
  00001	8b ec		 mov	 ebp, esp
  00003	6a ff		 push	 -1
  00005	68 00 00 00 00	 push	 __ehhandler$?Initialize@CPythonBackground@@QAEXXZ
  0000a	64 a1 00 00 00
	00		 mov	 eax, DWORD PTR fs:0
  00010	50		 push	 eax
  00011	83 ec 1c	 sub	 esp, 28			; 0000001cH
  00014	a1 00 00 00 00	 mov	 eax, DWORD PTR ___security_cookie
  00019	33 c5		 xor	 eax, ebp
  0001b	89 45 f0	 mov	 DWORD PTR __$ArrayPad$[ebp], eax
  0001e	56		 push	 esi
  0001f	57		 push	 edi
  00020	50		 push	 eax
  00021	8d 45 f4	 lea	 eax, DWORD PTR __$EHRec$[ebp]
  00024	64 a3 00 00 00
	00		 mov	 DWORD PTR fs:0, eax
  0002a	8b f1		 mov	 esi, ecx

; 236  : 	std::string stAtlasInfoFileName (LocaleService_GetLocalePath());

  0002c	e8 00 00 00 00	 call	 ?LocaleService_GetLocalePath@@YAPBDXZ ; LocaleService_GetLocalePath
  00031	8b d0		 mov	 edx, eax
; File C:\Program Files (x86)\Microsoft Visual Studio\2019\Community\VC\Tools\MSVC\14.28.29333\include\xstring

; 4377 :         _Mypair._Myval2._Mysize = 0;

  00033	c7 45 e8 00 00
	00 00		 mov	 DWORD PTR _stAtlasInfoFileName$[ebp+16], 0

; 389  :         return _CSTD strlen(reinterpret_cast<const char*>(_First));

  0003a	8b ca		 mov	 ecx, edx

; 4378 :         _Mypair._Myval2._Myres  = _BUF_SIZE - 1;

  0003c	c7 45 ec 0f 00
	00 00		 mov	 DWORD PTR _stAtlasInfoFileName$[ebp+20], 15 ; 0000000fH

; 4379 :         // the _Traits::assign is last so the codegen doesn't think the char write can alias this
; 4380 :         _Traits::assign(_Mypair._Myval2._Bx._Buf[0], _Elem());

  00043	c6 45 d8 00	 mov	 BYTE PTR _stAtlasInfoFileName$[ebp], 0

; 389  :         return _CSTD strlen(reinterpret_cast<const char*>(_First));

  00047	8d 79 01	 lea	 edi, DWORD PTR [ecx+1]
  0004a	66 0f 1f 44 00
	00		 npad	 6
$LL49@Initialize:
  00050	8a 01		 mov	 al, BYTE PTR [ecx]
  00052	41		 inc	 ecx
  00053	84 c0		 test	 al, al
  00055	75 f9		 jne	 SHORT $LL49@Initialize
  00057	2b cf		 sub	 ecx, edi

; 3062 :         return assign(_Ptr, _Convert_size<size_type>(_Traits::length(_Ptr)));

  00059	51		 push	 ecx
  0005a	52		 push	 edx
  0005b	8d 4d d8	 lea	 ecx, DWORD PTR _stAtlasInfoFileName$[ebp]
  0005e	e8 00 00 00 00	 call	 ?assign@?$basic_string@DU?$char_traits@D@std@@V?$allocator@D@2@@std@@QAEAAV12@QBDI@Z ; std::basic_string<char,std::char_traits<char>,std::allocator<char> >::assign

; 2958 :         return append(_Ptr, _Convert_size<size_type>(_Traits::length(_Ptr)));

  00063	6a 0e		 push	 14			; 0000000eH
  00065	68 00 00 00 00	 push	 OFFSET ??_C@_0P@NOGPLHFF@?1AtlasInfo?4txt@
  0006a	8d 4d d8	 lea	 ecx, DWORD PTR _stAtlasInfoFileName$[ebp]
; File D:\Metin2 Server Files\mainline\SRC_2014\Metin2Client\UserInterface\PythonBackground.cpp

; 236  : 	std::string stAtlasInfoFileName (LocaleService_GetLocalePath());

  0006d	c7 45 fc 00 00
	00 00		 mov	 DWORD PTR __$EHRec$[ebp+8], 0
; File C:\Program Files (x86)\Microsoft Visual Studio\2019\Community\VC\Tools\MSVC\14.28.29333\include\xstring

; 2958 :         return append(_Ptr, _Convert_size<size_type>(_Traits::length(_Ptr)));

  00074	e8 00 00 00 00	 call	 ?append@?$basic_string@DU?$char_traits@D@std@@V?$allocator@D@2@@std@@QAEAAV12@QBDI@Z ; std::basic_string<char,std::char_traits<char>,std::allocator<char> >::append

; 2227 :         return _BUF_SIZE <= _Myres;

  00079	83 7d ec 10	 cmp	 DWORD PTR _stAtlasInfoFileName$[ebp+20], 16 ; 00000010H

; 2218 :         const value_type* _Result = _Bx._Buf;

  0007d	8d 55 d8	 lea	 edx, DWORD PTR _stAtlasInfoFileName$[ebp]

; 2219 :         if (_Large_string_engaged()) {

  00080	0f 43 55 d8	 cmovae	 edx, DWORD PTR _stAtlasInfoFileName$[ebp]

; 389  :         return _CSTD strlen(reinterpret_cast<const char*>(_First));

  00084	8b c2		 mov	 eax, edx
  00086	8d 78 01	 lea	 edi, DWORD PTR [eax+1]
  00089	0f 1f 80 00 00
	00 00		 npad	 7
$LL50@Initialize:
  00090	8a 08		 mov	 cl, BYTE PTR [eax]
  00092	40		 inc	 eax
  00093	84 c9		 test	 cl, cl
  00095	75 f9		 jne	 SHORT $LL50@Initialize
  00097	2b c7		 sub	 eax, edi
; File D:\Metin2 Server Files\mainline\SRC_2014\Metin2Client\gamelib\MapManager.h

; 165  : 			m_stAtlasInfoFileName = filename;

  00099	8d 8e c4 14 00
	00		 lea	 ecx, DWORD PTR [esi+5316]
; File C:\Program Files (x86)\Microsoft Visual Studio\2019\Community\VC\Tools\MSVC\14.28.29333\include\xstring

; 3062 :         return assign(_Ptr, _Convert_size<size_type>(_Traits::length(_Ptr)));

  0009f	50		 push	 eax
  000a0	52		 push	 edx
  000a1	e8 00 00 00 00	 call	 ?assign@?$basic_string@DU?$char_traits@D@std@@V?$allocator@D@2@@std@@QAEAAV12@QBDI@Z ; std::basic_string<char,std::char_traits<char>,std::allocator<char> >::assign
; File D:\Metin2 Server Files\mainline\SRC_2014\Metin2Client\UserInterface\PythonBackground.cpp

; 239  : 	CMapManager::Initialize();

  000a6	8b ce		 mov	 ecx, esi
  000a8	e8 00 00 00 00	 call	 ?Initialize@CMapManager@@QAEXXZ ; CMapManager::Initialize
; File C:\Program Files (x86)\Microsoft Visual Studio\2019\Community\VC\Tools\MSVC\14.28.29333\include\xstring

; 2227 :         return _BUF_SIZE <= _Myres;

  000ad	8b 45 ec	 mov	 eax, DWORD PTR _stAtlasInfoFileName$[ebp+20]
  000b0	83 f8 10	 cmp	 eax, 16			; 00000010H

; 4385 :         if (_Mypair._Myval2._Large_string_engaged()) {

  000b3	72 0d		 jb	 SHORT $LN43@Initialize

; 4386 :             const pointer _Ptr = _Mypair._Myval2._Bx._Ptr;
; 4387 :             auto& _Al          = _Getal();
; 4388 :             _Destroy_in_place(_Mypair._Myval2._Bx._Ptr);
; 4389 :             _Al.deallocate(_Ptr, _Mypair._Myval2._Myres + 1);

  000b5	40		 inc	 eax
; File C:\Program Files (x86)\Microsoft Visual Studio\2019\Community\VC\Tools\MSVC\14.28.29333\include\xmemory

; 810  :         _Deallocate<_New_alignof<_Ty>>(_Ptr, sizeof(_Ty) * _Count);

  000b6	50		 push	 eax
  000b7	ff 75 d8	 push	 DWORD PTR _stAtlasInfoFileName$[ebp]
  000ba	e8 00 00 00 00	 call	 ??$_Deallocate@$07$0A@@std@@YAXPAXI@Z ; std::_Deallocate<8,0>
  000bf	83 c4 08	 add	 esp, 8
$LN43@Initialize:
; File D:\Metin2 Server Files\mainline\SRC_2014\Metin2Client\UserInterface\PythonBackground.cpp

; 240  : }

  000c2	8b 4d f4	 mov	 ecx, DWORD PTR __$EHRec$[ebp]
  000c5	64 89 0d 00 00
	00 00		 mov	 DWORD PTR fs:0, ecx
  000cc	59		 pop	 ecx
  000cd	5f		 pop	 edi
  000ce	5e		 pop	 esi
  000cf	8b 4d f0	 mov	 ecx, DWORD PTR __$ArrayPad$[ebp]
  000d2	33 cd		 xor	 ecx, ebp
  000d4	e8 00 00 00 00	 call	 @__security_check_cookie@4
  000d9	8b e5		 mov	 esp, ebp
  000db	5d		 pop	 ebp
  000dc	c3		 ret	 0
_TEXT	ENDS
;	COMDAT text$x
text$x	SEGMENT
__unwindfunclet$?Initialize@CPythonBackground@@QAEXXZ$0:
  00000	8d 4d d8	 lea	 ecx, DWORD PTR _stAtlasInfoFileName$[ebp]
  00003	e9 00 00 00 00	 jmp	 ??1?$basic_string@DU?$char_traits@D@std@@V?$allocator@D@2@@std@@QAE@XZ ; std::basic_string<char,std::char_traits<char>,std::allocator<char> >::~basic_string<char,std::char_traits<char>,std::allocator<char> >
  00008	cc		 int	 3
  00009	cc		 int	 3
  0000a	cc		 int	 3
  0000b	cc		 int	 3
  0000c	cc		 int	 3
__ehhandler$?Initialize@CPythonBackground@@QAEXXZ:
  0000d	90		 npad	 1
  0000e	90		 npad	 1
  0000f	8b 54 24 08	 mov	 edx, DWORD PTR [esp+8]
  00013	8d 42 0c	 lea	 eax, DWORD PTR [edx+12]
  00016	8b 4a d8	 mov	 ecx, DWORD PTR [edx-40]
  00019	33 c8		 xor	 ecx, eax
  0001b	e8 00 00 00 00	 call	 @__security_check_cookie@4
  00020	8b 4a fc	 mov	 ecx, DWORD PTR [edx-4]
  00023	33 c8		 xor	 ecx, eax
  00025	e8 00 00 00 00	 call	 @__security_check_cookie@4
  0002a	b8 00 00 00 00	 mov	 eax, OFFSET __ehfuncinfo$?Initialize@CPythonBackground@@QAEXXZ
  0002f	e9 00 00 00 00	 jmp	 ___CxxFrameHandler3
text$x	ENDS
?Initialize@CPythonBackground@@QAEXXZ ENDP		; CPythonBackground::Initialize
; Function compile flags: /Ogtp
; File D:\Metin2 Server Files\mainline\SRC_2014\Metin2Client\UserInterface\PythonBackground.cpp
; File C:\Program Files (x86)\Microsoft Visual Studio\2019\Community\VC\Tools\MSVC\14.28.29333\include\xtree
; File D:\Metin2 Server Files\mainline\SRC_2014\Metin2Client\UserInterface\PythonBackground.cpp
; File C:\Program Files (x86)\Microsoft Visual Studio\2019\Community\VC\Tools\MSVC\14.28.29333\include\xtree
; File C:\Program Files (x86)\Microsoft Visual Studio\2019\Community\VC\Tools\MSVC\14.28.29333\include\xmemory
; File D:\Metin2 Server Files\mainline\SRC_2014\Metin2Client\UserInterface\PythonBackground.cpp
; File C:\Program Files (x86)\Microsoft Visual Studio\2019\Community\VC\Tools\MSVC\14.28.29333\include\xstring
; File C:\Program Files (x86)\Microsoft Visual Studio\2019\Community\VC\Tools\MSVC\14.28.29333\include\xmemory
; File C:\Program Files (x86)\Microsoft Visual Studio\2019\Community\VC\Tools\MSVC\14.28.29333\include\xstring
; File D:\Metin2 Server Files\mainline\SRC_2014\Metin2Client\UserInterface\PythonBackground.cpp
; File C:\Program Files (x86)\Microsoft Visual Studio\2019\Community\VC\Tools\MSVC\14.28.29333\include\xstring
; File D:\Metin2 Server Files\mainline\SRC_2014\Metin2Client\eterBase\Singleton.h
; File D:\Metin2 Server Files\mainline\SRC_2014\Metin2Client\UserInterface\PythonBackground.cpp
;	COMDAT ??1CPythonBackground@@UAE@XZ
_TEXT	SEGMENT
__$EHRec$ = -12						; size = 12
??1CPythonBackground@@UAE@XZ PROC			; CPythonBackground::~CPythonBackground, COMDAT
; _this$ = ecx

; 230  : {

  00000	55		 push	 ebp
  00001	8b ec		 mov	 ebp, esp
  00003	6a ff		 push	 -1
  00005	68 00 00 00 00	 push	 __ehhandler$??1CPythonBackground@@UAE@XZ
  0000a	64 a1 00 00 00
	00		 mov	 eax, DWORD PTR fs:0
  00010	50		 push	 eax
  00011	56		 push	 esi
  00012	57		 push	 edi
  00013	a1 00 00 00 00	 mov	 eax, DWORD PTR ___security_cookie
  00018	33 c5		 xor	 eax, ebp
  0001a	50		 push	 eax
  0001b	8d 45 f4	 lea	 eax, DWORD PTR __$EHRec$[ebp]
  0001e	64 a3 00 00 00
	00		 mov	 DWORD PTR fs:0, eax
  00024	8b f9		 mov	 edi, ecx

; 231  : 	Tracen("CPythonBackground Clear");

  00026	68 00 00 00 00	 push	 OFFSET ??_C@_0BI@FJAIMBEC@CPythonBackground?5Clear@
  0002b	c7 07 00 00 00
	00		 mov	 DWORD PTR [edi], OFFSET ??_7CPythonBackground@@6BCScreen@@@
  00031	c7 47 04 00 00
	00 00		 mov	 DWORD PTR [edi+4], OFFSET ??_7CPythonBackground@@6BIPhysicsWorld@@@
  00038	c7 87 dc 14 00
	00 00 00 00 00	 mov	 DWORD PTR [edi+5340], OFFSET ??_7CPythonBackground@@6B@
  00042	e8 00 00 00 00	 call	 ?Tracen@@YAXPBD@Z	; Tracen
  00047	83 c4 04	 add	 esp, 4

; 232  : }

  0004a	8d 8f 00 16 00
	00		 lea	 ecx, DWORD PTR [edi+5632]
  00050	e8 00 00 00 00	 call	 ??1?$_Tree@V?$_Tmap_traits@KUSReserveTargetEffect@CPythonBackground@@U?$less@K@std@@V?$allocator@U?$pair@$$CBKUSReserveTargetEffect@CPythonBackground@@@std@@@4@$0A@@std@@@std@@QAE@XZ ; std::_Tree<std::_Tmap_traits<unsigned long,CPythonBackground::SReserveTargetEffect,std::less<unsigned long>,std::allocator<std::pair<unsigned long const ,CPythonBackground::SReserveTargetEffect> >,0> >::~_Tree<std::_Tmap_traits<unsigned long,CPythonBackground::SReserveTargetEffect,std::less<unsigned long>,std::allocator<std::pair<unsigned long const ,CPythonBackground::SReserveTargetEffect> >,0> >
  00055	8d 8f f8 15 00
	00		 lea	 ecx, DWORD PTR [edi+5624]
  0005b	e8 00 00 00 00	 call	 ??1?$_Tree@V?$_Tmap_traits@KKU?$less@K@std@@V?$allocator@U?$pair@$$CBKK@std@@@2@$0A@@std@@@std@@QAE@XZ ; std::_Tree<std::_Tmap_traits<unsigned long,unsigned long,std::less<unsigned long>,std::allocator<std::pair<unsigned long const ,unsigned long> >,0> >::~_Tree<std::_Tmap_traits<unsigned long,unsigned long,std::less<unsigned long>,std::allocator<std::pair<unsigned long const ,unsigned long> >,0> >
; File C:\Program Files (x86)\Microsoft Visual Studio\2019\Community\VC\Tools\MSVC\14.28.29333\include\xtree

; 752  :         _Erase_tree(_Al, _Myhead->_Parent);

  00060	8b 87 f0 15 00
	00		 mov	 eax, DWORD PTR [edi+5616]
; File D:\Metin2 Server Files\mainline\SRC_2014\Metin2Client\UserInterface\PythonBackground.cpp

; 232  : }

  00066	8d b7 f0 15 00
	00		 lea	 esi, DWORD PTR [edi+5616]
; File C:\Program Files (x86)\Microsoft Visual Studio\2019\Community\VC\Tools\MSVC\14.28.29333\include\xtree

; 752  :         _Erase_tree(_Al, _Myhead->_Parent);

  0006c	8b ce		 mov	 ecx, esi
  0006e	ff 70 04	 push	 DWORD PTR [eax+4]
  00071	56		 push	 esi
  00072	e8 00 00 00 00	 call	 ??$_Erase_tree@V?$allocator@U?$_Tree_node@V?$basic_string@DU?$char_traits@D@std@@V?$allocator@D@2@@std@@PAX@std@@@std@@@?$_Tree_val@U?$_Tree_simple_types@V?$basic_string@DU?$char_traits@D@std@@V?$allocator@D@2@@std@@@std@@@std@@QAEXAAV?$allocator@U?$_Tree_node@V?$basic_string@DU?$char_traits@D@std@@V?$allocator@D@2@@std@@PAX@std@@@1@PAU?$_Tree_node@V?$basic_string@DU?$char_traits@D@std@@V?$allocator@D@2@@std@@PAX@1@@Z ; std::_Tree_val<std::_Tree_simple_types<std::basic_string<char,std::char_traits<char>,std::allocator<char> > > >::_Erase_tree<std::allocator<std::_Tree_node<std::basic_string<char,std::char_traits<char>,std::allocator<char> >,void *> > >
; File C:\Program Files (x86)\Microsoft Visual Studio\2019\Community\VC\Tools\MSVC\14.28.29333\include\xmemory

; 696  :         _Deallocate<_New_alignof<value_type>>(_Ptr, sizeof(value_type) * _Count);

  00077	6a 28		 push	 40			; 00000028H
  00079	ff 36		 push	 DWORD PTR [esi]
  0007b	e8 00 00 00 00	 call	 ??$_Deallocate@$07$0A@@std@@YAXPAXI@Z ; std::_Deallocate<8,0>
  00080	83 c4 08	 add	 esp, 8
; File D:\Metin2 Server Files\mainline\SRC_2014\Metin2Client\UserInterface\PythonBackground.cpp

; 232  : }

  00083	8d 8f e8 15 00
	00		 lea	 ecx, DWORD PTR [edi+5608]
  00089	e8 00 00 00 00	 call	 ??1?$_Tree@V?$_Tset_traits@HU?$less@H@std@@V?$allocator@H@2@$0A@@std@@@std@@QAE@XZ ; std::_Tree<std::_Tset_traits<int,std::less<int>,std::allocator<int>,0> >::~_Tree<std::_Tset_traits<int,std::less<int>,std::allocator<int>,0> >
  0008e	8d 8f f8 14 00
	00		 lea	 ecx, DWORD PTR [edi+5368]
  00094	e8 00 00 00 00	 call	 ??1CSnowEnvironment@@UAE@XZ ; CSnowEnvironment::~CSnowEnvironment
; File C:\Program Files (x86)\Microsoft Visual Studio\2019\Community\VC\Tools\MSVC\14.28.29333\include\xstring

; 2227 :         return _BUF_SIZE <= _Myres;

  00099	8b 87 f4 14 00
	00		 mov	 eax, DWORD PTR [edi+5364]
  0009f	83 f8 10	 cmp	 eax, 16			; 00000010H

; 4385 :         if (_Mypair._Myval2._Large_string_engaged()) {

  000a2	72 10		 jb	 SHORT $LN27@CPythonBac

; 4386 :             const pointer _Ptr = _Mypair._Myval2._Bx._Ptr;
; 4387 :             auto& _Al          = _Getal();
; 4388 :             _Destroy_in_place(_Mypair._Myval2._Bx._Ptr);
; 4389 :             _Al.deallocate(_Ptr, _Mypair._Myval2._Myres + 1);

  000a4	40		 inc	 eax
; File C:\Program Files (x86)\Microsoft Visual Studio\2019\Community\VC\Tools\MSVC\14.28.29333\include\xmemory

; 810  :         _Deallocate<_New_alignof<_Ty>>(_Ptr, sizeof(_Ty) * _Count);

  000a5	50		 push	 eax
  000a6	ff b7 e0 14 00
	00		 push	 DWORD PTR [edi+5344]
  000ac	e8 00 00 00 00	 call	 ??$_Deallocate@$07$0A@@std@@YAXPAXI@Z ; std::_Deallocate<8,0>
  000b1	83 c4 08	 add	 esp, 8
$LN27@CPythonBac:
; File C:\Program Files (x86)\Microsoft Visual Studio\2019\Community\VC\Tools\MSVC\14.28.29333\include\xstring

; 4392 :         _Mypair._Myval2._Mysize = 0;

  000b4	c7 87 f0 14 00
	00 00 00 00 00	 mov	 DWORD PTR [edi+5360], 0
; File D:\Metin2 Server Files\mainline\SRC_2014\Metin2Client\UserInterface\PythonBackground.cpp

; 232  : }

  000be	8b cf		 mov	 ecx, edi
; File C:\Program Files (x86)\Microsoft Visual Studio\2019\Community\VC\Tools\MSVC\14.28.29333\include\xstring

; 4393 :         _Mypair._Myval2._Myres  = _BUF_SIZE - 1;

  000c0	c7 87 f4 14 00
	00 0f 00 00 00	 mov	 DWORD PTR [edi+5364], 15 ; 0000000fH

; 4394 :         // the _Traits::assign is last so the codegen doesn't think the char write can alias this
; 4395 :         _Traits::assign(_Mypair._Myval2._Bx._Buf[0], _Elem());

  000ca	c6 87 e0 14 00
	00 00		 mov	 BYTE PTR [edi+5344], 0
; File D:\Metin2 Server Files\mainline\SRC_2014\Metin2Client\eterBase\Singleton.h

; 19   : 	{ 

  000d1	c7 87 dc 14 00
	00 00 00 00 00	 mov	 DWORD PTR [edi+5340], OFFSET ??_7?$CSingleton@VCPythonBackground@@@@6B@

; 20   : 		assert(ms_singleton);
; 21   : 		ms_singleton = 0; 

  000db	c7 05 00 00 00
	00 00 00 00 00	 mov	 DWORD PTR ?ms_singleton@?$CSingleton@VCPythonBackground@@@@0PAVCPythonBackground@@A, 0 ; CSingleton<CPythonBackground>::ms_singleton
; File D:\Metin2 Server Files\mainline\SRC_2014\Metin2Client\UserInterface\PythonBackground.cpp

; 232  : }

  000e5	e8 00 00 00 00	 call	 ??1CMapManager@@UAE@XZ	; CMapManager::~CMapManager
  000ea	8b 4d f4	 mov	 ecx, DWORD PTR __$EHRec$[ebp]
  000ed	64 89 0d 00 00
	00 00		 mov	 DWORD PTR fs:0, ecx
  000f4	59		 pop	 ecx
  000f5	5f		 pop	 edi
  000f6	5e		 pop	 esi
  000f7	8b e5		 mov	 esp, ebp
  000f9	5d		 pop	 ebp
  000fa	c3		 ret	 0
  000fb	cc		 int	 3
  000fc	cc		 int	 3
  000fd	cc		 int	 3
  000fe	cc		 int	 3
  000ff	cc		 int	 3
_TEXT	ENDS
;	COMDAT text$x
text$x	SEGMENT
__ehhandler$??1CPythonBackground@@UAE@XZ:
  00000	90		 npad	 1
  00001	90		 npad	 1
  00002	8b 54 24 08	 mov	 edx, DWORD PTR [esp+8]
  00006	8d 42 0c	 lea	 eax, DWORD PTR [edx+12]
  00009	8b 4a f4	 mov	 ecx, DWORD PTR [edx-12]
  0000c	33 c8		 xor	 ecx, eax
  0000e	e8 00 00 00 00	 call	 @__security_check_cookie@4
  00013	b8 00 00 00 00	 mov	 eax, OFFSET __ehfuncinfo$??1CPythonBackground@@UAE@XZ
  00018	e9 00 00 00 00	 jmp	 ___CxxFrameHandler3
text$x	ENDS
??1CPythonBackground@@UAE@XZ ENDP			; CPythonBackground::~CPythonBackground
; Function compile flags: /Ogtp
; File D:\Metin2 Server Files\mainline\SRC_2014\Metin2Client\UserInterface\PythonBackground.cpp
; File D:\Metin2 Server Files\mainline\SRC_2014\Metin2Client\eterBase\Singleton.h
; File D:\Metin2 Server Files\mainline\SRC_2014\Metin2Client\UserInterface\PythonBackground.cpp
; File D:\Metin2 Server Files\mainline\SRC_2014\Metin2Client\eterBase\Singleton.h
; File D:\Metin2 Server Files\mainline\SRC_2014\Metin2Client\UserInterface\PythonBackground.cpp
; File C:\Program Files (x86)\Microsoft Visual Studio\2019\Community\VC\Tools\MSVC\14.28.29333\include\xstring
; File D:\Metin2 Server Files\mainline\SRC_2014\Metin2Client\UserInterface\PythonBackground.cpp
; File C:\Program Files (x86)\Microsoft Visual Studio\2019\Community\VC\Tools\MSVC\14.28.29333\include\xmemory
; File C:\Program Files (x86)\Microsoft Visual Studio\2019\Community\VC\Tools\MSVC\14.28.29333\include\xtree
; File C:\Program Files (x86)\Microsoft Visual Studio\2019\Community\VC\Tools\MSVC\14.28.29333\include\xmemory
; File C:\Program Files (x86)\Microsoft Visual Studio\2019\Community\VC\Tools\MSVC\14.28.29333\include\xtree
; File D:\Metin2 Server Files\mainline\SRC_2014\Metin2Client\UserInterface\PythonBackground.cpp
; File C:\Program Files (x86)\Microsoft Visual Studio\2019\Community\VC\Tools\MSVC\14.28.29333\include\xmemory
; File C:\Program Files (x86)\Microsoft Visual Studio\2019\Community\VC\Tools\MSVC\14.28.29333\include\xtree
; File C:\Program Files (x86)\Microsoft Visual Studio\2019\Community\VC\Tools\MSVC\14.28.29333\include\xmemory
; File C:\Program Files (x86)\Microsoft Visual Studio\2019\Community\VC\Tools\MSVC\14.28.29333\include\xtree
; File D:\Metin2 Server Files\mainline\SRC_2014\Metin2Client\UserInterface\PythonBackground.cpp
; File C:\Program Files (x86)\Microsoft Visual Studio\2019\Community\VC\Tools\MSVC\14.28.29333\include\xmemory
; File C:\Program Files (x86)\Microsoft Visual Studio\2019\Community\VC\Tools\MSVC\14.28.29333\include\xtree
; File C:\Program Files (x86)\Microsoft Visual Studio\2019\Community\VC\Tools\MSVC\14.28.29333\include\xmemory
; File C:\Program Files (x86)\Microsoft Visual Studio\2019\Community\VC\Tools\MSVC\14.28.29333\include\xtree
; File D:\Metin2 Server Files\mainline\SRC_2014\Metin2Client\UserInterface\PythonBackground.cpp
; File C:\Program Files (x86)\Microsoft Visual Studio\2019\Community\VC\Tools\MSVC\14.28.29333\include\xmemory
; File C:\Program Files (x86)\Microsoft Visual Studio\2019\Community\VC\Tools\MSVC\14.28.29333\include\xtree
; File C:\Program Files (x86)\Microsoft Visual Studio\2019\Community\VC\Tools\MSVC\14.28.29333\include\xmemory
; File C:\Program Files (x86)\Microsoft Visual Studio\2019\Community\VC\Tools\MSVC\14.28.29333\include\xtree
; File D:\Metin2 Server Files\mainline\SRC_2014\Metin2Client\UserInterface\PythonBackground.cpp
; File C:\Program Files (x86)\Microsoft Visual Studio\2019\Community\VC\Tools\MSVC\14.28.29333\include\xstring
; File D:\Metin2 Server Files\mainline\SRC_2014\Metin2Client\UserInterface\PythonBackground.cpp
; File C:\Program Files (x86)\Microsoft Visual Studio\2019\Community\VC\Tools\MSVC\14.28.29333\include\xstring
; File D:\Metin2 Server Files\mainline\SRC_2014\Metin2Client\UserInterface\PythonBackground.cpp
; File C:\Program Files (x86)\Microsoft Visual Studio\2019\Community\VC\Tools\MSVC\14.28.29333\include\xstring
; File D:\Metin2 Server Files\mainline\SRC_2014\Metin2Client\UserInterface\PythonBackground.cpp
; File C:\Program Files (x86)\Microsoft Visual Studio\2019\Community\VC\Tools\MSVC\14.28.29333\include\xstring
; File D:\Metin2 Server Files\mainline\SRC_2014\Metin2Client\UserInterface\PythonBackground.cpp
;	COMDAT ??0CPythonBackground@@QAE@XZ
_TEXT	SEGMENT
_this$ = -20						; size = 4
__Pnode$2 = -16						; size = 4
__Pnode$3 = -16						; size = 4
_this$ = -16						; size = 4
__Pnode$4 = -16						; size = 4
_this$ = -16						; size = 4
__Pnode$5 = -16						; size = 4
_this$ = -16						; size = 4
_this$ = -16						; size = 4
__$EHRec$ = -12						; size = 12
??0CPythonBackground@@QAE@XZ PROC			; CPythonBackground::CPythonBackground, COMDAT
; _this$ = ecx

; 208  : {

  00000	55		 push	 ebp
  00001	8b ec		 mov	 ebp, esp
  00003	6a ff		 push	 -1
  00005	68 00 00 00 00	 push	 __ehhandler$??0CPythonBackground@@QAE@XZ
  0000a	64 a1 00 00 00
	00		 mov	 eax, DWORD PTR fs:0
  00010	50		 push	 eax
  00011	83 ec 08	 sub	 esp, 8
  00014	53		 push	 ebx
  00015	56		 push	 esi
  00016	57		 push	 edi
  00017	a1 00 00 00 00	 mov	 eax, DWORD PTR ___security_cookie
  0001c	33 c5		 xor	 eax, ebp
  0001e	50		 push	 eax
  0001f	8d 45 f4	 lea	 eax, DWORD PTR __$EHRec$[ebp]
  00022	64 a3 00 00 00
	00		 mov	 DWORD PTR fs:0, eax
  00028	8b d9		 mov	 ebx, ecx
  0002a	89 5d ec	 mov	 DWORD PTR _this$[ebp], ebx
  0002d	e8 00 00 00 00	 call	 ??0CMapManager@@QAE@XZ	; CMapManager::CMapManager
; File D:\Metin2 Server Files\mainline\SRC_2014\Metin2Client\eterBase\Singleton.h

; 15   : 		ms_singleton = (T*) ((int) this + offset);

  00032	8b c3		 mov	 eax, ebx
  00034	c7 83 dc 14 00
	00 00 00 00 00	 mov	 DWORD PTR [ebx+5340], OFFSET ??_7?$CSingleton@VCPythonBackground@@@@6B@
; File D:\Metin2 Server Files\mainline\SRC_2014\Metin2Client\UserInterface\PythonBackground.cpp

; 208  : {

  0003e	c7 45 fc 00 00
	00 00		 mov	 DWORD PTR __$EHRec$[ebp+8], 0
; File D:\Metin2 Server Files\mainline\SRC_2014\Metin2Client\eterBase\Singleton.h

; 15   : 		ms_singleton = (T*) ((int) this + offset);

  00045	a3 00 00 00 00	 mov	 DWORD PTR ?ms_singleton@?$CSingleton@VCPythonBackground@@@@0PAVCPythonBackground@@A, eax ; CSingleton<CPythonBackground>::ms_singleton
; File D:\Metin2 Server Files\mainline\SRC_2014\Metin2Client\UserInterface\PythonBackground.cpp

; 208  : {

  0004a	c7 03 00 00 00
	00		 mov	 DWORD PTR [ebx], OFFSET ??_7CPythonBackground@@6BCScreen@@@
  00050	c7 43 04 00 00
	00 00		 mov	 DWORD PTR [ebx+4], OFFSET ??_7CPythonBackground@@6BIPhysicsWorld@@@
  00057	c7 83 dc 14 00
	00 00 00 00 00	 mov	 DWORD PTR [ebx+5340], OFFSET ??_7CPythonBackground@@6B@
; File C:\Program Files (x86)\Microsoft Visual Studio\2019\Community\VC\Tools\MSVC\14.28.29333\include\xstring

; 4377 :         _Mypair._Myval2._Mysize = 0;

  00061	c7 83 f0 14 00
	00 00 00 00 00	 mov	 DWORD PTR [ebx+5360], 0

; 4378 :         _Mypair._Myval2._Myres  = _BUF_SIZE - 1;

  0006b	c7 83 f4 14 00
	00 0f 00 00 00	 mov	 DWORD PTR [ebx+5364], 15 ; 0000000fH

; 4379 :         // the _Traits::assign is last so the codegen doesn't think the char write can alias this
; 4380 :         _Traits::assign(_Mypair._Myval2._Bx._Buf[0], _Elem());

  00075	c6 83 e0 14 00
	00 00		 mov	 BYTE PTR [ebx+5344], 0
; File D:\Metin2 Server Files\mainline\SRC_2014\Metin2Client\UserInterface\PythonBackground.cpp

; 208  : {

  0007c	8d 8b f8 14 00
	00		 lea	 ecx, DWORD PTR [ebx+5368]
  00082	c6 45 fc 02	 mov	 BYTE PTR __$EHRec$[ebp+8], 2
  00086	e8 00 00 00 00	 call	 ??0CSnowEnvironment@@QAE@XZ ; CSnowEnvironment::CSnowEnvironment
  0008b	8d bb e8 15 00
	00		 lea	 edi, DWORD PTR [ebx+5608]
  00091	c6 45 fc 03	 mov	 BYTE PTR __$EHRec$[ebp+8], 3
  00095	89 7d f0	 mov	 DWORD PTR _this$[ebp], edi
; File C:\Program Files (x86)\Microsoft Visual Studio\2019\Community\VC\Tools\MSVC\14.28.29333\include\xmemory

; 814  :         return static_cast<_Ty*>(_Allocate<_New_alignof<_Ty>>(_Get_size_of_n<sizeof(_Ty)>(_Count)));

  00098	6a 14		 push	 20			; 00000014H
; File C:\Program Files (x86)\Microsoft Visual Studio\2019\Community\VC\Tools\MSVC\14.28.29333\include\xtree

; 435  :     _Tree_val() noexcept : _Myhead(), _Mysize(0) {}

  0009a	c7 07 00 00 00
	00		 mov	 DWORD PTR [edi], 0
  000a0	c7 47 04 00 00
	00 00		 mov	 DWORD PTR [edi+4], 0
; File C:\Program Files (x86)\Microsoft Visual Studio\2019\Community\VC\Tools\MSVC\14.28.29333\include\xmemory

; 814  :         return static_cast<_Ty*>(_Allocate<_New_alignof<_Ty>>(_Get_size_of_n<sizeof(_Ty)>(_Count)));

  000a7	e8 00 00 00 00	 call	 ??$_Allocate@$07U_Default_allocate_traits@std@@$0A@@std@@YAPAXI@Z ; std::_Allocate<8,std::_Default_allocate_traits,0>
; File C:\Program Files (x86)\Microsoft Visual Studio\2019\Community\VC\Tools\MSVC\14.28.29333\include\xtree

; 343  :         const auto _Pnode = _Al.allocate(1);

  000ac	8b f0		 mov	 esi, eax

; 344  :         _Construct_in_place(_Pnode->_Left, _Pnode);

  000ae	8d 45 f0	 lea	 eax, DWORD PTR __Pnode$5[ebp]
  000b1	50		 push	 eax
  000b2	56		 push	 esi
  000b3	89 75 f0	 mov	 DWORD PTR __Pnode$5[ebp], esi
  000b6	e8 00 00 00 00	 call	 ??$_Construct_in_place@PAU?$_Tree_node@HPAX@std@@ABQAU12@@std@@YAXAAPAU?$_Tree_node@HPAX@0@ABQAU10@@Z ; std::_Construct_in_place<std::_Tree_node<int,void *> *,std::_Tree_node<int,void *> * const &>

; 345  :         _Construct_in_place(_Pnode->_Parent, _Pnode);

  000bb	8d 45 f0	 lea	 eax, DWORD PTR __Pnode$5[ebp]
  000be	50		 push	 eax
  000bf	8d 4e 04	 lea	 ecx, DWORD PTR [esi+4]
  000c2	51		 push	 ecx
  000c3	e8 00 00 00 00	 call	 ??$_Construct_in_place@PAU?$_Tree_node@HPAX@std@@ABQAU12@@std@@YAXAAPAU?$_Tree_node@HPAX@0@ABQAU10@@Z ; std::_Construct_in_place<std::_Tree_node<int,void *> *,std::_Tree_node<int,void *> * const &>

; 346  :         _Construct_in_place(_Pnode->_Right, _Pnode);

  000c8	8d 45 f0	 lea	 eax, DWORD PTR __Pnode$5[ebp]
  000cb	50		 push	 eax
  000cc	8d 46 08	 lea	 eax, DWORD PTR [esi+8]
  000cf	50		 push	 eax
  000d0	e8 00 00 00 00	 call	 ??$_Construct_in_place@PAU?$_Tree_node@HPAX@std@@ABQAU12@@std@@YAXAAPAU?$_Tree_node@HPAX@0@ABQAU10@@Z ; std::_Construct_in_place<std::_Tree_node<int,void *> *,std::_Tree_node<int,void *> * const &>

; 347  :         _Pnode->_Color = _Black;

  000d5	66 c7 46 0c 01
	01		 mov	 WORD PTR [esi+12], 257	; 00000101H

; 2021 :         _Scary->_Myhead = _Node::_Buyheadnode(_Getal());

  000db	89 37		 mov	 DWORD PTR [edi], esi
; File D:\Metin2 Server Files\mainline\SRC_2014\Metin2Client\UserInterface\PythonBackground.cpp

; 208  : {

  000dd	8d bb f0 15 00
	00		 lea	 edi, DWORD PTR [ebx+5616]
  000e3	c6 45 fc 04	 mov	 BYTE PTR __$EHRec$[ebp+8], 4
  000e7	89 7d f0	 mov	 DWORD PTR _this$[ebp], edi
; File C:\Program Files (x86)\Microsoft Visual Studio\2019\Community\VC\Tools\MSVC\14.28.29333\include\xmemory

; 814  :         return static_cast<_Ty*>(_Allocate<_New_alignof<_Ty>>(_Get_size_of_n<sizeof(_Ty)>(_Count)));

  000ea	6a 28		 push	 40			; 00000028H
; File C:\Program Files (x86)\Microsoft Visual Studio\2019\Community\VC\Tools\MSVC\14.28.29333\include\xtree

; 435  :     _Tree_val() noexcept : _Myhead(), _Mysize(0) {}

  000ec	c7 07 00 00 00
	00		 mov	 DWORD PTR [edi], 0
  000f2	c7 47 04 00 00
	00 00		 mov	 DWORD PTR [edi+4], 0
; File C:\Program Files (x86)\Microsoft Visual Studio\2019\Community\VC\Tools\MSVC\14.28.29333\include\xmemory

; 814  :         return static_cast<_Ty*>(_Allocate<_New_alignof<_Ty>>(_Get_size_of_n<sizeof(_Ty)>(_Count)));

  000f9	e8 00 00 00 00	 call	 ??$_Allocate@$07U_Default_allocate_traits@std@@$0A@@std@@YAPAXI@Z ; std::_Allocate<8,std::_Default_allocate_traits,0>
; File C:\Program Files (x86)\Microsoft Visual Studio\2019\Community\VC\Tools\MSVC\14.28.29333\include\xtree

; 343  :         const auto _Pnode = _Al.allocate(1);

  000fe	8b f0		 mov	 esi, eax

; 344  :         _Construct_in_place(_Pnode->_Left, _Pnode);

  00100	8d 45 f0	 lea	 eax, DWORD PTR __Pnode$4[ebp]
  00103	50		 push	 eax
  00104	56		 push	 esi
  00105	89 75 f0	 mov	 DWORD PTR __Pnode$4[ebp], esi
  00108	e8 00 00 00 00	 call	 ??$_Construct_in_place@PAU?$_Tree_node@V?$basic_string@DU?$char_traits@D@std@@V?$allocator@D@2@@std@@PAX@std@@ABQAU12@@std@@YAXAAPAU?$_Tree_node@V?$basic_string@DU?$char_traits@D@std@@V?$allocator@D@2@@std@@PAX@0@ABQAU10@@Z ; std::_Construct_in_place<std::_Tree_node<std::basic_string<char,std::char_traits<char>,std::allocator<char> >,void *> *,std::_Tree_node<std::basic_string<char,std::char_traits<char>,std::allocator<char> >,void *> * const &>

; 345  :         _Construct_in_place(_Pnode->_Parent, _Pnode);

  0010d	8d 45 f0	 lea	 eax, DWORD PTR __Pnode$4[ebp]
  00110	50		 push	 eax
  00111	8d 4e 04	 lea	 ecx, DWORD PTR [esi+4]
  00114	51		 push	 ecx
  00115	e8 00 00 00 00	 call	 ??$_Construct_in_place@PAU?$_Tree_node@V?$basic_string@DU?$char_traits@D@std@@V?$allocator@D@2@@std@@PAX@std@@ABQAU12@@std@@YAXAAPAU?$_Tree_node@V?$basic_string@DU?$char_traits@D@std@@V?$allocator@D@2@@std@@PAX@0@ABQAU10@@Z ; std::_Construct_in_place<std::_Tree_node<std::basic_string<char,std::char_traits<char>,std::allocator<char> >,void *> *,std::_Tree_node<std::basic_string<char,std::char_traits<char>,std::allocator<char> >,void *> * const &>

; 346  :         _Construct_in_place(_Pnode->_Right, _Pnode);

  0011a	8d 45 f0	 lea	 eax, DWORD PTR __Pnode$4[ebp]
  0011d	50		 push	 eax
  0011e	8d 46 08	 lea	 eax, DWORD PTR [esi+8]
  00121	50		 push	 eax
  00122	e8 00 00 00 00	 call	 ??$_Construct_in_place@PAU?$_Tree_node@V?$basic_string@DU?$char_traits@D@std@@V?$allocator@D@2@@std@@PAX@std@@ABQAU12@@std@@YAXAAPAU?$_Tree_node@V?$basic_string@DU?$char_traits@D@std@@V?$allocator@D@2@@std@@PAX@0@ABQAU10@@Z ; std::_Construct_in_place<std::_Tree_node<std::basic_string<char,std::char_traits<char>,std::allocator<char> >,void *> *,std::_Tree_node<std::basic_string<char,std::char_traits<char>,std::allocator<char> >,void *> * const &>

; 347  :         _Pnode->_Color = _Black;

  00127	66 c7 46 0c 01
	01		 mov	 WORD PTR [esi+12], 257	; 00000101H

; 2021 :         _Scary->_Myhead = _Node::_Buyheadnode(_Getal());

  0012d	89 37		 mov	 DWORD PTR [edi], esi
; File D:\Metin2 Server Files\mainline\SRC_2014\Metin2Client\UserInterface\PythonBackground.cpp

; 208  : {

  0012f	8d bb f8 15 00
	00		 lea	 edi, DWORD PTR [ebx+5624]
  00135	c6 45 fc 05	 mov	 BYTE PTR __$EHRec$[ebp+8], 5
  00139	89 7d f0	 mov	 DWORD PTR _this$[ebp], edi
; File C:\Program Files (x86)\Microsoft Visual Studio\2019\Community\VC\Tools\MSVC\14.28.29333\include\xmemory

; 814  :         return static_cast<_Ty*>(_Allocate<_New_alignof<_Ty>>(_Get_size_of_n<sizeof(_Ty)>(_Count)));

  0013c	6a 18		 push	 24			; 00000018H
; File C:\Program Files (x86)\Microsoft Visual Studio\2019\Community\VC\Tools\MSVC\14.28.29333\include\xtree

; 435  :     _Tree_val() noexcept : _Myhead(), _Mysize(0) {}

  0013e	c7 07 00 00 00
	00		 mov	 DWORD PTR [edi], 0
  00144	c7 47 04 00 00
	00 00		 mov	 DWORD PTR [edi+4], 0
; File C:\Program Files (x86)\Microsoft Visual Studio\2019\Community\VC\Tools\MSVC\14.28.29333\include\xmemory

; 814  :         return static_cast<_Ty*>(_Allocate<_New_alignof<_Ty>>(_Get_size_of_n<sizeof(_Ty)>(_Count)));

  0014b	e8 00 00 00 00	 call	 ??$_Allocate@$07U_Default_allocate_traits@std@@$0A@@std@@YAPAXI@Z ; std::_Allocate<8,std::_Default_allocate_traits,0>
; File C:\Program Files (x86)\Microsoft Visual Studio\2019\Community\VC\Tools\MSVC\14.28.29333\include\xtree

; 343  :         const auto _Pnode = _Al.allocate(1);

  00150	8b f0		 mov	 esi, eax

; 344  :         _Construct_in_place(_Pnode->_Left, _Pnode);

  00152	8d 45 f0	 lea	 eax, DWORD PTR __Pnode$3[ebp]
  00155	89 75 f0	 mov	 DWORD PTR __Pnode$3[ebp], esi
  00158	50		 push	 eax
  00159	56		 push	 esi
  0015a	e8 00 00 00 00	 call	 ??$_Construct_in_place@PAU?$_Tree_node@U?$pair@$$CBKK@std@@PAX@std@@ABQAU12@@std@@YAXAAPAU?$_Tree_node@U?$pair@$$CBKK@std@@PAX@0@ABQAU10@@Z ; std::_Construct_in_place<std::_Tree_node<std::pair<unsigned long const ,unsigned long>,void *> *,std::_Tree_node<std::pair<unsigned long const ,unsigned long>,void *> * const &>
  0015f	83 c4 44	 add	 esp, 68			; 00000044H

; 345  :         _Construct_in_place(_Pnode->_Parent, _Pnode);

  00162	8d 45 f0	 lea	 eax, DWORD PTR __Pnode$3[ebp]
  00165	8d 4e 04	 lea	 ecx, DWORD PTR [esi+4]
  00168	50		 push	 eax
  00169	51		 push	 ecx
  0016a	e8 00 00 00 00	 call	 ??$_Construct_in_place@PAU?$_Tree_node@U?$pair@$$CBKK@std@@PAX@std@@ABQAU12@@std@@YAXAAPAU?$_Tree_node@U?$pair@$$CBKK@std@@PAX@0@ABQAU10@@Z ; std::_Construct_in_place<std::_Tree_node<std::pair<unsigned long const ,unsigned long>,void *> *,std::_Tree_node<std::pair<unsigned long const ,unsigned long>,void *> * const &>

; 346  :         _Construct_in_place(_Pnode->_Right, _Pnode);

  0016f	8d 45 f0	 lea	 eax, DWORD PTR __Pnode$3[ebp]
  00172	50		 push	 eax
  00173	8d 46 08	 lea	 eax, DWORD PTR [esi+8]
  00176	50		 push	 eax
  00177	e8 00 00 00 00	 call	 ??$_Construct_in_place@PAU?$_Tree_node@U?$pair@$$CBKK@std@@PAX@std@@ABQAU12@@std@@YAXAAPAU?$_Tree_node@U?$pair@$$CBKK@std@@PAX@0@ABQAU10@@Z ; std::_Construct_in_place<std::_Tree_node<std::pair<unsigned long const ,unsigned long>,void *> *,std::_Tree_node<std::pair<unsigned long const ,unsigned long>,void *> * const &>

; 347  :         _Pnode->_Color = _Black;

  0017c	66 c7 46 0c 01
	01		 mov	 WORD PTR [esi+12], 257	; 00000101H

; 2021 :         _Scary->_Myhead = _Node::_Buyheadnode(_Getal());

  00182	89 37		 mov	 DWORD PTR [edi], esi
; File D:\Metin2 Server Files\mainline\SRC_2014\Metin2Client\UserInterface\PythonBackground.cpp

; 208  : {

  00184	8d bb 00 16 00
	00		 lea	 edi, DWORD PTR [ebx+5632]
  0018a	c6 45 fc 06	 mov	 BYTE PTR __$EHRec$[ebp+8], 6
  0018e	89 7d f0	 mov	 DWORD PTR _this$[ebp], edi
; File C:\Program Files (x86)\Microsoft Visual Studio\2019\Community\VC\Tools\MSVC\14.28.29333\include\xmemory

; 814  :         return static_cast<_Ty*>(_Allocate<_New_alignof<_Ty>>(_Get_size_of_n<sizeof(_Ty)>(_Count)));

  00191	6a 1c		 push	 28			; 0000001cH
; File C:\Program Files (x86)\Microsoft Visual Studio\2019\Community\VC\Tools\MSVC\14.28.29333\include\xtree

; 435  :     _Tree_val() noexcept : _Myhead(), _Mysize(0) {}

  00193	c7 07 00 00 00
	00		 mov	 DWORD PTR [edi], 0
  00199	c7 47 04 00 00
	00 00		 mov	 DWORD PTR [edi+4], 0
; File C:\Program Files (x86)\Microsoft Visual Studio\2019\Community\VC\Tools\MSVC\14.28.29333\include\xmemory

; 814  :         return static_cast<_Ty*>(_Allocate<_New_alignof<_Ty>>(_Get_size_of_n<sizeof(_Ty)>(_Count)));

  001a0	e8 00 00 00 00	 call	 ??$_Allocate@$07U_Default_allocate_traits@std@@$0A@@std@@YAPAXI@Z ; std::_Allocate<8,std::_Default_allocate_traits,0>
; File C:\Program Files (x86)\Microsoft Visual Studio\2019\Community\VC\Tools\MSVC\14.28.29333\include\xtree

; 343  :         const auto _Pnode = _Al.allocate(1);

  001a5	8b f0		 mov	 esi, eax

; 344  :         _Construct_in_place(_Pnode->_Left, _Pnode);

  001a7	8d 45 f0	 lea	 eax, DWORD PTR __Pnode$2[ebp]
  001aa	50		 push	 eax
  001ab	56		 push	 esi
  001ac	89 75 f0	 mov	 DWORD PTR __Pnode$2[ebp], esi
  001af	e8 00 00 00 00	 call	 ??$_Construct_in_place@PAU?$_Tree_node@U?$pair@$$CBKUSReserveTargetEffect@CPythonBackground@@@std@@PAX@std@@ABQAU12@@std@@YAXAAPAU?$_Tree_node@U?$pair@$$CBKUSReserveTargetEffect@CPythonBackground@@@std@@PAX@0@ABQAU10@@Z ; std::_Construct_in_place<std::_Tree_node<std::pair<unsigned long const ,CPythonBackground::SReserveTargetEffect>,void *> *,std::_Tree_node<std::pair<unsigned long const ,CPythonBackground::SReserveTargetEffect>,void *> * const &>

; 345  :         _Construct_in_place(_Pnode->_Parent, _Pnode);

  001b4	8d 45 f0	 lea	 eax, DWORD PTR __Pnode$2[ebp]
  001b7	50		 push	 eax
  001b8	8d 4e 04	 lea	 ecx, DWORD PTR [esi+4]
  001bb	51		 push	 ecx
  001bc	e8 00 00 00 00	 call	 ??$_Construct_in_place@PAU?$_Tree_node@U?$pair@$$CBKUSReserveTargetEffect@CPythonBackground@@@std@@PAX@std@@ABQAU12@@std@@YAXAAPAU?$_Tree_node@U?$pair@$$CBKUSReserveTargetEffect@CPythonBackground@@@std@@PAX@0@ABQAU10@@Z ; std::_Construct_in_place<std::_Tree_node<std::pair<unsigned long const ,CPythonBackground::SReserveTargetEffect>,void *> *,std::_Tree_node<std::pair<unsigned long const ,CPythonBackground::SReserveTargetEffect>,void *> * const &>

; 346  :         _Construct_in_place(_Pnode->_Right, _Pnode);

  001c1	8d 45 f0	 lea	 eax, DWORD PTR __Pnode$2[ebp]
  001c4	50		 push	 eax
  001c5	8d 46 08	 lea	 eax, DWORD PTR [esi+8]
  001c8	50		 push	 eax
  001c9	e8 00 00 00 00	 call	 ??$_Construct_in_place@PAU?$_Tree_node@U?$pair@$$CBKUSReserveTargetEffect@CPythonBackground@@@std@@PAX@std@@ABQAU12@@std@@YAXAAPAU?$_Tree_node@U?$pair@$$CBKUSReserveTargetEffect@CPythonBackground@@@std@@PAX@0@ABQAU10@@Z ; std::_Construct_in_place<std::_Tree_node<std::pair<unsigned long const ,CPythonBackground::SReserveTargetEffect>,void *> *,std::_Tree_node<std::pair<unsigned long const ,CPythonBackground::SReserveTargetEffect>,void *> * const &>

; 347  :         _Pnode->_Color = _Black;

  001ce	66 c7 46 0c 01
	01		 mov	 WORD PTR [esi+12], 257	; 00000101H
  001d4	83 c4 2c	 add	 esp, 44			; 0000002cH

; 2021 :         _Scary->_Myhead = _Node::_Buyheadnode(_Getal());

  001d7	89 37		 mov	 DWORD PTR [edi], esi
; File D:\Metin2 Server Files\mainline\SRC_2014\Metin2Client\UserInterface\PythonBackground.cpp

; 209  : 	m_dwRenderShadowTime=0;

  001d9	c7 83 64 15 00
	00 00 00 00 00	 mov	 DWORD PTR [ebx+5476], 0
; File C:\Program Files (x86)\Microsoft Visual Studio\2019\Community\VC\Tools\MSVC\14.28.29333\include\xstring

; 2209 :         value_type* _Result = _Bx._Buf;

  001e3	8d 8b e0 14 00
	00		 lea	 ecx, DWORD PTR [ebx+5344]
; File D:\Metin2 Server Files\mainline\SRC_2014\Metin2Client\UserInterface\PythonBackground.cpp

; 212  : 	m_eViewDistanceNum=0;

  001e9	c7 83 5c 15 00
	00 00 00 00 00	 mov	 DWORD PTR [ebx+5468], 0

; 213  : 	m_eShadowLevel=SHADOW_NONE;

  001f3	c7 83 58 15 00
	00 00 00 00 00	 mov	 DWORD PTR [ebx+5464], 0

; 214  : 	m_dwBaseX=0;

  001fd	c7 83 68 15 00
	00 00 00 00 00	 mov	 DWORD PTR [ebx+5480], 0

; 215  : 	m_dwBaseY=0;

  00207	c7 83 6c 15 00
	00 00 00 00 00	 mov	 DWORD PTR [ebx+5484], 0
; File C:\Program Files (x86)\Microsoft Visual Studio\2019\Community\VC\Tools\MSVC\14.28.29333\include\xstring

; 2227 :         return _BUF_SIZE <= _Myres;

  00211	83 bb f4 14 00
	00 10		 cmp	 DWORD PTR [ebx+5364], 16 ; 00000010H
; File D:\Metin2 Server Files\mainline\SRC_2014\Metin2Client\UserInterface\PythonBackground.cpp

; 208  : {

  00218	c6 45 fc 07	 mov	 BYTE PTR __$EHRec$[ebp+8], 7
; File C:\Program Files (x86)\Microsoft Visual Studio\2019\Community\VC\Tools\MSVC\14.28.29333\include\xstring

; 2210 :         if (_Large_string_engaged()) {

  0021c	72 06		 jb	 SHORT $LN141@CPythonBac

; 2211 :             _Result = _Unfancy(_Bx._Ptr);

  0021e	8b 8b e0 14 00
	00		 mov	 ecx, DWORD PTR [ebx+5344]
$LN141@CPythonBac:

; 3046 :             _Mypair._Myval2._Mysize = _Count;

  00224	c7 83 f0 14 00
	00 00 00 00 00	 mov	 DWORD PTR [ebx+5360], 0
; File D:\Metin2 Server Files\mainline\SRC_2014\Metin2Client\UserInterface\PythonBackground.cpp

; 221  : 	SetViewDistanceSet(4, 25600.0f);

  0022e	51		 push	 ecx
; File C:\Program Files (x86)\Microsoft Visual Studio\2019\Community\VC\Tools\MSVC\14.28.29333\include\xstring

; 3048 :             _Traits::assign(_Old_ptr[_Count], _Elem());

  0022f	c6 01 00	 mov	 BYTE PTR [ecx], 0
; File D:\Metin2 Server Files\mainline\SRC_2014\Metin2Client\UserInterface\PythonBackground.cpp

; 221  : 	SetViewDistanceSet(4, 25600.0f);

  00232	8b cb		 mov	 ecx, ebx
  00234	c7 04 24 00 00
	c8 46		 mov	 DWORD PTR [esp], 1187512320 ; 46c80000H
  0023b	6a 04		 push	 4
  0023d	c7 83 50 15 00
	00 00 00 00 00	 mov	 DWORD PTR [ebx+5456], 0
  00247	c7 83 54 15 00
	00 00 00 00 00	 mov	 DWORD PTR [ebx+5460], 0
  00251	c7 83 60 15 00
	00 00 00 00 00	 mov	 DWORD PTR [ebx+5472], 0
  0025b	e8 00 00 00 00	 call	 ?SetViewDistanceSet@CPythonBackground@@QAEXHM@Z ; CPythonBackground::SetViewDistanceSet

; 222  : 	SetViewDistanceSet(3, 25600.0f);

  00260	51		 push	 ecx
  00261	c7 04 24 00 00
	c8 46		 mov	 DWORD PTR [esp], 1187512320 ; 46c80000H
  00268	8b cb		 mov	 ecx, ebx
  0026a	6a 03		 push	 3
  0026c	e8 00 00 00 00	 call	 ?SetViewDistanceSet@CPythonBackground@@QAEXHM@Z ; CPythonBackground::SetViewDistanceSet

; 223  : 	SetViewDistanceSet(2, 25600.0f);

  00271	51		 push	 ecx
  00272	c7 04 24 00 00
	c8 46		 mov	 DWORD PTR [esp], 1187512320 ; 46c80000H
  00279	8b cb		 mov	 ecx, ebx
  0027b	6a 02		 push	 2
  0027d	e8 00 00 00 00	 call	 ?SetViewDistanceSet@CPythonBackground@@QAEXHM@Z ; CPythonBackground::SetViewDistanceSet

; 224  : 	SetViewDistanceSet(1, 25600.0f);

  00282	51		 push	 ecx
  00283	c7 04 24 00 00
	c8 46		 mov	 DWORD PTR [esp], 1187512320 ; 46c80000H
  0028a	8b cb		 mov	 ecx, ebx
  0028c	6a 01		 push	 1
  0028e	e8 00 00 00 00	 call	 ?SetViewDistanceSet@CPythonBackground@@QAEXHM@Z ; CPythonBackground::SetViewDistanceSet

; 225  : 	SetViewDistanceSet(0, 25600.0f);

  00293	51		 push	 ecx
  00294	c7 04 24 00 00
	c8 46		 mov	 DWORD PTR [esp], 1187512320 ; 46c80000H
  0029b	8b cb		 mov	 ecx, ebx
  0029d	6a 00		 push	 0
  0029f	e8 00 00 00 00	 call	 ?SetViewDistanceSet@CPythonBackground@@QAEXHM@Z ; CPythonBackground::SetViewDistanceSet

; 226  : 	Initialize();

  002a4	8b cb		 mov	 ecx, ebx
  002a6	e8 00 00 00 00	 call	 ?Initialize@CPythonBackground@@QAEXXZ ; CPythonBackground::Initialize

; 227  : }

  002ab	8b c3		 mov	 eax, ebx
  002ad	8b 4d f4	 mov	 ecx, DWORD PTR __$EHRec$[ebp]
  002b0	64 89 0d 00 00
	00 00		 mov	 DWORD PTR fs:0, ecx
  002b7	59		 pop	 ecx
  002b8	5f		 pop	 edi
  002b9	5e		 pop	 esi
  002ba	5b		 pop	 ebx
  002bb	8b e5		 mov	 esp, ebp
  002bd	5d		 pop	 ebp
  002be	c3		 ret	 0
_TEXT	ENDS
;	COMDAT text$x
text$x	SEGMENT
__unwindfunclet$??0CPythonBackground@@QAE@XZ$0:
  00000	8b 4d ec	 mov	 ecx, DWORD PTR _this$[ebp]
  00003	e9 00 00 00 00	 jmp	 ??1CMapManager@@UAE@XZ	; CMapManager::~CMapManager
__unwindfunclet$??0CPythonBackground@@QAE@XZ$1:
  00008	8b 4d ec	 mov	 ecx, DWORD PTR _this$[ebp]
  0000b	81 c1 dc 14 00
	00		 add	 ecx, 5340		; 000014dcH
  00011	e9 00 00 00 00	 jmp	 ??1?$CSingleton@VCPythonBackground@@@@UAE@XZ ; CSingleton<CPythonBackground>::~CSingleton<CPythonBackground>
__unwindfunclet$??0CPythonBackground@@QAE@XZ$2:
  00016	8b 4d ec	 mov	 ecx, DWORD PTR _this$[ebp]
  00019	81 c1 e0 14 00
	00		 add	 ecx, 5344		; 000014e0H
  0001f	e9 00 00 00 00	 jmp	 ??1?$basic_string@DU?$char_traits@D@std@@V?$allocator@D@2@@std@@QAE@XZ ; std::basic_string<char,std::char_traits<char>,std::allocator<char> >::~basic_string<char,std::char_traits<char>,std::allocator<char> >
__unwindfunclet$??0CPythonBackground@@QAE@XZ$3:
  00024	8b 4d ec	 mov	 ecx, DWORD PTR _this$[ebp]
  00027	81 c1 f8 14 00
	00		 add	 ecx, 5368		; 000014f8H
  0002d	e9 00 00 00 00	 jmp	 ??1CSnowEnvironment@@UAE@XZ ; CSnowEnvironment::~CSnowEnvironment
__unwindfunclet$??0CPythonBackground@@QAE@XZ$4:
  00032	8b 4d ec	 mov	 ecx, DWORD PTR _this$[ebp]
  00035	81 c1 e8 15 00
	00		 add	 ecx, 5608		; 000015e8H
  0003b	e9 00 00 00 00	 jmp	 ??1?$set@HU?$less@H@std@@V?$allocator@H@2@@std@@QAE@XZ
__unwindfunclet$??0CPythonBackground@@QAE@XZ$5:
  00040	8b 4d ec	 mov	 ecx, DWORD PTR _this$[ebp]
  00043	81 c1 f0 15 00
	00		 add	 ecx, 5616		; 000015f0H
  00049	e9 00 00 00 00	 jmp	 ??1?$set@V?$basic_string@DU?$char_traits@D@std@@V?$allocator@D@2@@std@@U?$less@V?$basic_string@DU?$char_traits@D@std@@V?$allocator@D@2@@std@@@2@V?$allocator@V?$basic_string@DU?$char_traits@D@std@@V?$allocator@D@2@@std@@@2@@std@@QAE@XZ
__unwindfunclet$??0CPythonBackground@@QAE@XZ$6:
  0004e	8b 4d ec	 mov	 ecx, DWORD PTR _this$[ebp]
  00051	81 c1 f8 15 00
	00		 add	 ecx, 5624		; 000015f8H
  00057	e9 00 00 00 00	 jmp	 ??1?$map@KKU?$less@K@std@@V?$allocator@U?$pair@$$CBKK@std@@@2@@std@@QAE@XZ
__unwindfunclet$??0CPythonBackground@@QAE@XZ$7:
  0005c	8b 4d ec	 mov	 ecx, DWORD PTR _this$[ebp]
  0005f	81 c1 00 16 00
	00		 add	 ecx, 5632		; 00001600H
  00065	e9 00 00 00 00	 jmp	 ??1?$map@KUSReserveTargetEffect@CPythonBackground@@U?$less@K@std@@V?$allocator@U?$pair@$$CBKUSReserveTargetEffect@CPythonBackground@@@std@@@4@@std@@QAE@XZ
  0006a	cc		 int	 3
  0006b	cc		 int	 3
  0006c	cc		 int	 3
  0006d	cc		 int	 3
  0006e	cc		 int	 3
__ehhandler$??0CPythonBackground@@QAE@XZ:
  0006f	90		 npad	 1
  00070	90		 npad	 1
  00071	8b 54 24 08	 mov	 edx, DWORD PTR [esp+8]
  00075	8d 42 0c	 lea	 eax, DWORD PTR [edx+12]
  00078	8b 4a e8	 mov	 ecx, DWORD PTR [edx-24]
  0007b	33 c8		 xor	 ecx, eax
  0007d	e8 00 00 00 00	 call	 @__security_check_cookie@4
  00082	b8 00 00 00 00	 mov	 eax, OFFSET __ehfuncinfo$??0CPythonBackground@@QAE@XZ
  00087	e9 00 00 00 00	 jmp	 ___CxxFrameHandler3
text$x	ENDS
??0CPythonBackground@@QAE@XZ ENDP			; CPythonBackground::CPythonBackground
; Function compile flags: /Ogtp
;	COMDAT ??0SVIEWDISTANCESET@CPythonBackground@@QAE@XZ
_TEXT	SEGMENT
??0SVIEWDISTANCESET@CPythonBackground@@QAE@XZ PROC	; CPythonBackground::SVIEWDISTANCESET::SVIEWDISTANCESET, COMDAT
; _this$ = ecx
  00000	8b c1		 mov	 eax, ecx
  00002	c3		 ret	 0
??0SVIEWDISTANCESET@CPythonBackground@@QAE@XZ ENDP	; CPythonBackground::SVIEWDISTANCESET::SVIEWDISTANCESET
_TEXT	ENDS
; Function compile flags: /Ogtp
; File D:\Metin2 Server Files\mainline\SRC_2014\Metin2Client\eterBase\Singleton.h
;	COMDAT ??_G?$CSingleton@VCPythonBackground@@@@UAEPAXI@Z
_TEXT	SEGMENT
___flags$ = 8						; size = 4
??_G?$CSingleton@VCPythonBackground@@@@UAEPAXI@Z PROC	; CSingleton<CPythonBackground>::`scalar deleting destructor', COMDAT
; _this$ = ecx
  00000	55		 push	 ebp
  00001	8b ec		 mov	 ebp, esp
  00003	f6 45 08 01	 test	 BYTE PTR ___flags$[ebp], 1

; 19   : 	{ 

  00007	56		 push	 esi
  00008	8b f1		 mov	 esi, ecx
  0000a	c7 06 00 00 00
	00		 mov	 DWORD PTR [esi], OFFSET ??_7?$CSingleton@VCPythonBackground@@@@6B@

; 20   : 		assert(ms_singleton);
; 21   : 		ms_singleton = 0; 

  00010	c7 05 00 00 00
	00 00 00 00 00	 mov	 DWORD PTR ?ms_singleton@?$CSingleton@VCPythonBackground@@@@0PAVCPythonBackground@@A, 0 ; CSingleton<CPythonBackground>::ms_singleton
  0001a	74 0b		 je	 SHORT $LN6@scalar
  0001c	6a 04		 push	 4
  0001e	56		 push	 esi
  0001f	e8 00 00 00 00	 call	 ??3@YAXPAXI@Z		; operator delete
  00024	83 c4 08	 add	 esp, 8
$LN6@scalar:
  00027	8b c6		 mov	 eax, esi
  00029	5e		 pop	 esi
  0002a	5d		 pop	 ebp
  0002b	c2 04 00	 ret	 4
??_G?$CSingleton@VCPythonBackground@@@@UAEPAXI@Z ENDP	; CSingleton<CPythonBackground>::`scalar deleting destructor'
_TEXT	ENDS
; Function compile flags: /Ogtp
; File D:\Metin2 Server Files\mainline\SRC_2014\Metin2Client\eterBase\Singleton.h
;	COMDAT ??1?$CSingleton@VCPythonBackground@@@@UAE@XZ
_TEXT	SEGMENT
??1?$CSingleton@VCPythonBackground@@@@UAE@XZ PROC	; CSingleton<CPythonBackground>::~CSingleton<CPythonBackground>, COMDAT
; _this$ = ecx

; 19   : 	{ 

  00000	c7 01 00 00 00
	00		 mov	 DWORD PTR [ecx], OFFSET ??_7?$CSingleton@VCPythonBackground@@@@6B@

; 20   : 		assert(ms_singleton);
; 21   : 		ms_singleton = 0; 

  00006	c7 05 00 00 00
	00 00 00 00 00	 mov	 DWORD PTR ?ms_singleton@?$CSingleton@VCPythonBackground@@@@0PAVCPythonBackground@@A, 0 ; CSingleton<CPythonBackground>::ms_singleton

; 22   : 	}

  00010	c3		 ret	 0
??1?$CSingleton@VCPythonBackground@@@@UAE@XZ ENDP	; CSingleton<CPythonBackground>::~CSingleton<CPythonBackground>
_TEXT	ENDS
; Function compile flags: /Ogtp
;	COMDAT ??1?$set@HU?$less@H@std@@V?$allocator@H@2@@std@@QAE@XZ
_TEXT	SEGMENT
??1?$set@HU?$less@H@std@@V?$allocator@H@2@@std@@QAE@XZ PROC ; std::set<int,std::less<int>,std::allocator<int> >::~set<int,std::less<int>,std::allocator<int> >, COMDAT
; _this$ = ecx
  00000	e9 00 00 00 00	 jmp	 ??1?$_Tree@V?$_Tset_traits@HU?$less@H@std@@V?$allocator@H@2@$0A@@std@@@std@@QAE@XZ ; std::_Tree<std::_Tset_traits<int,std::less<int>,std::allocator<int>,0> >::~_Tree<std::_Tset_traits<int,std::less<int>,std::allocator<int>,0> >
??1?$set@HU?$less@H@std@@V?$allocator@H@2@@std@@QAE@XZ ENDP ; std::set<int,std::less<int>,std::allocator<int> >::~set<int,std::less<int>,std::allocator<int> >
_TEXT	ENDS
; Function compile flags: /Ogtp
; File C:\Program Files (x86)\Microsoft Visual Studio\2019\Community\VC\Tools\MSVC\14.28.29333\include\xtree
;	COMDAT ?_Insert_node@?$_Tree_val@U?$_Tree_simple_types@H@std@@@std@@QAEPAU?$_Tree_node@HPAX@2@U?$_Tree_id@PAU?$_Tree_node@HPAX@std@@@2@QAU32@@Z
_TEXT	SEGMENT
__Head$1$ = -8						; size = 4
_this$1$ = -4						; size = 4
__Loc$ = 8						; size = 8
__Newnode$ = 16						; size = 4
?_Insert_node@?$_Tree_val@U?$_Tree_simple_types@H@std@@@std@@QAEPAU?$_Tree_node@HPAX@2@U?$_Tree_id@PAU?$_Tree_node@HPAX@std@@@2@QAU32@@Z PROC ; std::_Tree_val<std::_Tree_simple_types<int> >::_Insert_node, COMDAT
; _this$ = ecx

; 644  :     _Nodeptr _Insert_node(const _Tree_id<_Nodeptr> _Loc, const _Nodeptr _Newnode) noexcept {

  00000	55		 push	 ebp
  00001	8b ec		 mov	 ebp, esp
  00003	83 ec 08	 sub	 esp, 8

; 645  :         ++_Mysize;
; 646  :         const auto _Head  = _Myhead;
; 647  :         _Newnode->_Parent = _Loc._Parent;

  00006	8b 55 08	 mov	 edx, DWORD PTR __Loc$[ebp]
  00009	8b c1		 mov	 eax, ecx
  0000b	89 45 fc	 mov	 DWORD PTR _this$1$[ebp], eax
  0000e	8b 08		 mov	 ecx, DWORD PTR [eax]
  00010	ff 40 04	 inc	 DWORD PTR [eax+4]
  00013	8b 45 10	 mov	 eax, DWORD PTR __Newnode$[ebp]
  00016	89 4d f8	 mov	 DWORD PTR __Head$1$[ebp], ecx
  00019	89 50 04	 mov	 DWORD PTR [eax+4], edx

; 648  :         if (_Loc._Parent == _Head) { // first node in tree, just set head values

  0001c	3b d1		 cmp	 edx, ecx
  0001e	75 12		 jne	 SHORT $LN5@Insert_nod

; 649  :             _Head->_Left     = _Newnode;

  00020	89 01		 mov	 DWORD PTR [ecx], eax

; 650  :             _Head->_Parent   = _Newnode;

  00022	89 41 04	 mov	 DWORD PTR [ecx+4], eax

; 651  :             _Head->_Right    = _Newnode;

  00025	89 41 08	 mov	 DWORD PTR [ecx+8], eax

; 652  :             _Newnode->_Color = _Black; // the root is black

  00028	c6 40 0c 01	 mov	 BYTE PTR [eax+12], 1

; 711  :     }

  0002c	8b e5		 mov	 esp, ebp
  0002e	5d		 pop	 ebp
  0002f	c2 0c 00	 ret	 12			; 0000000cH
$LN5@Insert_nod:

; 653  :             return _Newnode;
; 654  :         }
; 655  : 
; 656  :         _STL_INTERNAL_CHECK(_Loc._Child != _Tree_child::_Unused);
; 657  :         if (_Loc._Child == _Tree_child::_Right) { // add to right of _Loc._Parent

  00032	83 7d 0c 00	 cmp	 DWORD PTR __Loc$[ebp+4], 0
  00036	75 0d		 jne	 SHORT $LN6@Insert_nod

; 658  :             _STL_INTERNAL_CHECK(_Loc._Parent->_Right->_Isnil);
; 659  :             _Loc._Parent->_Right = _Newnode;

  00038	89 42 08	 mov	 DWORD PTR [edx+8], eax

; 660  :             if (_Loc._Parent == _Head->_Right) { // remember rightmost node

  0003b	3b 51 08	 cmp	 edx, DWORD PTR [ecx+8]
  0003e	75 0d		 jne	 SHORT $LN9@Insert_nod

; 661  :                 _Head->_Right = _Newnode;

  00040	89 41 08	 mov	 DWORD PTR [ecx+8], eax

; 662  :             }
; 663  :         } else { // add to left of _Loc._Parent

  00043	eb 08		 jmp	 SHORT $LN9@Insert_nod
$LN6@Insert_nod:

; 664  :             _STL_INTERNAL_CHECK(_Loc._Parent->_Left->_Isnil);
; 665  :             _Loc._Parent->_Left = _Newnode;

  00045	89 02		 mov	 DWORD PTR [edx], eax

; 666  :             if (_Loc._Parent == _Head->_Left) { // remember leftmost node

  00047	3b 11		 cmp	 edx, DWORD PTR [ecx]
  00049	75 02		 jne	 SHORT $LN9@Insert_nod

; 667  :                 _Head->_Left = _Newnode;

  0004b	89 01		 mov	 DWORD PTR [ecx], eax
$LN9@Insert_nod:

; 668  :             }
; 669  :         }
; 670  : 
; 671  :         for (_Nodeptr _Pnode = _Newnode; _Pnode->_Parent->_Color == _Red;) {

  0004d	8b d0		 mov	 edx, eax
  0004f	8b 40 04	 mov	 eax, DWORD PTR [eax+4]
  00052	80 78 0c 00	 cmp	 BYTE PTR [eax+12], 0
  00056	0f 85 99 01 00
	00		 jne	 $LN3@Insert_nod
  0005c	53		 push	 ebx
  0005d	56		 push	 esi
  0005e	57		 push	 edi
  0005f	90		 npad	 1
$LL2@Insert_nod:

; 672  :             if (_Pnode->_Parent == _Pnode->_Parent->_Parent->_Left) { // fixup red-red in left subtree

  00060	8b 4a 04	 mov	 ecx, DWORD PTR [edx+4]
  00063	8d 7a 04	 lea	 edi, DWORD PTR [edx+4]
  00066	8b 71 04	 mov	 esi, DWORD PTR [ecx+4]
  00069	8d 59 04	 lea	 ebx, DWORD PTR [ecx+4]
  0006c	8b 06		 mov	 eax, DWORD PTR [esi]
  0006e	3b c8		 cmp	 ecx, eax
  00070	0f 85 ba 00 00
	00		 jne	 $LN10@Insert_nod

; 673  :                 const auto _Parent_sibling = _Pnode->_Parent->_Parent->_Right;

  00076	8b 46 08	 mov	 eax, DWORD PTR [esi+8]

; 674  :                 if (_Parent_sibling->_Color == _Red) { // parent's sibling has two red children, blacken both

  00079	80 78 0c 00	 cmp	 BYTE PTR [eax+12], 0
  0007d	0f 84 b3 00 00
	00		 je	 $LN53@Insert_nod

; 675  :                     _Pnode->_Parent->_Color          = _Black;
; 676  :                     _Parent_sibling->_Color          = _Black;
; 677  :                     _Pnode->_Parent->_Parent->_Color = _Red;
; 678  :                     _Pnode                           = _Pnode->_Parent->_Parent;
; 679  :                 } else { // parent's sibling has red and black children
; 680  :                     if (_Pnode == _Pnode->_Parent->_Right) { // rotate right child to left

  00083	8b 71 08	 mov	 esi, DWORD PTR [ecx+8]
  00086	3b d6		 cmp	 edx, esi
  00088	75 47		 jne	 SHORT $LN51@Insert_nod

; 460  :         _Wherenode->_Right = _Pnode->_Left;

  0008a	8b 06		 mov	 eax, DWORD PTR [esi]

; 681  :                         _Pnode = _Pnode->_Parent;

  0008c	8b d1		 mov	 edx, ecx

; 460  :         _Wherenode->_Right = _Pnode->_Left;

  0008e	89 42 08	 mov	 DWORD PTR [edx+8], eax

; 461  : 
; 462  :         if (!_Pnode->_Left->_Isnil) {

  00091	8b 06		 mov	 eax, DWORD PTR [esi]
  00093	80 78 0d 00	 cmp	 BYTE PTR [eax+13], 0
  00097	75 03		 jne	 SHORT $LN20@Insert_nod

; 463  :             _Pnode->_Left->_Parent = _Wherenode;

  00099	89 50 04	 mov	 DWORD PTR [eax+4], edx
$LN20@Insert_nod:

; 464  :         }
; 465  : 
; 466  :         _Pnode->_Parent = _Wherenode->_Parent;

  0009c	8b 03		 mov	 eax, DWORD PTR [ebx]
  0009e	89 46 04	 mov	 DWORD PTR [esi+4], eax

; 467  : 
; 468  :         if (_Wherenode == _Myhead->_Parent) {

  000a1	8b 45 fc	 mov	 eax, DWORD PTR _this$1$[ebp]
  000a4	8b 00		 mov	 eax, DWORD PTR [eax]
  000a6	3b 50 04	 cmp	 edx, DWORD PTR [eax+4]
  000a9	75 0b		 jne	 SHORT $LN21@Insert_nod

; 469  :             _Myhead->_Parent = _Pnode;

  000ab	89 70 04	 mov	 DWORD PTR [eax+4], esi

; 477  :         _Wherenode->_Parent = _Pnode;

  000ae	8b fb		 mov	 edi, ebx
  000b0	89 16		 mov	 DWORD PTR [esi], edx
  000b2	89 33		 mov	 DWORD PTR [ebx], esi
  000b4	eb 1d		 jmp	 SHORT $LN49@Insert_nod
$LN21@Insert_nod:

; 470  :         } else if (_Wherenode == _Wherenode->_Parent->_Left) {

  000b6	8b 03		 mov	 eax, DWORD PTR [ebx]
  000b8	3b 10		 cmp	 edx, DWORD PTR [eax]
  000ba	75 0a		 jne	 SHORT $LN23@Insert_nod

; 471  :             _Wherenode->_Parent->_Left = _Pnode;

  000bc	89 30		 mov	 DWORD PTR [eax], esi

; 477  :         _Wherenode->_Parent = _Pnode;

  000be	8b fb		 mov	 edi, ebx
  000c0	89 16		 mov	 DWORD PTR [esi], edx
  000c2	89 33		 mov	 DWORD PTR [ebx], esi
  000c4	eb 0d		 jmp	 SHORT $LN49@Insert_nod
$LN23@Insert_nod:

; 473  :             _Wherenode->_Parent->_Right = _Pnode;

  000c6	89 70 08	 mov	 DWORD PTR [eax+8], esi

; 477  :         _Wherenode->_Parent = _Pnode;

  000c9	8b fb		 mov	 edi, ebx
  000cb	89 16		 mov	 DWORD PTR [esi], edx
  000cd	89 33		 mov	 DWORD PTR [ebx], esi
  000cf	eb 02		 jmp	 SHORT $LN49@Insert_nod
$LN51@Insert_nod:
  000d1	8b f1		 mov	 esi, ecx
$LN49@Insert_nod:

; 682  :                         _Lrotate(_Pnode);
; 683  :                     }
; 684  : 
; 685  :                     _Pnode->_Parent->_Color          = _Black; // propagate red up

  000d3	c6 46 0c 01	 mov	 BYTE PTR [esi+12], 1

; 686  :                     _Pnode->_Parent->_Parent->_Color = _Red;

  000d7	8b 07		 mov	 eax, DWORD PTR [edi]
  000d9	8b 40 04	 mov	 eax, DWORD PTR [eax+4]
  000dc	c6 40 0c 00	 mov	 BYTE PTR [eax+12], 0

; 687  :                     _Rrotate(_Pnode->_Parent->_Parent);

  000e0	8b 07		 mov	 eax, DWORD PTR [edi]
  000e2	8b 48 04	 mov	 ecx, DWORD PTR [eax+4]

; 481  :         _Nodeptr _Pnode   = _Wherenode->_Left;

  000e5	8b 31		 mov	 esi, DWORD PTR [ecx]

; 482  :         _Wherenode->_Left = _Pnode->_Right;

  000e7	8b 46 08	 mov	 eax, DWORD PTR [esi+8]
  000ea	89 01		 mov	 DWORD PTR [ecx], eax

; 483  : 
; 484  :         if (!_Pnode->_Right->_Isnil) {

  000ec	8b 46 08	 mov	 eax, DWORD PTR [esi+8]
  000ef	80 78 0d 00	 cmp	 BYTE PTR [eax+13], 0
  000f3	75 03		 jne	 SHORT $LN27@Insert_nod

; 485  :             _Pnode->_Right->_Parent = _Wherenode;

  000f5	89 48 04	 mov	 DWORD PTR [eax+4], ecx
$LN27@Insert_nod:

; 486  :         }
; 487  : 
; 488  :         _Pnode->_Parent = _Wherenode->_Parent;

  000f8	8b 41 04	 mov	 eax, DWORD PTR [ecx+4]
  000fb	89 46 04	 mov	 DWORD PTR [esi+4], eax

; 489  : 
; 490  :         if (_Wherenode == _Myhead->_Parent) {

  000fe	8b 45 fc	 mov	 eax, DWORD PTR _this$1$[ebp]
  00101	8b 00		 mov	 eax, DWORD PTR [eax]
  00103	3b 48 04	 cmp	 ecx, DWORD PTR [eax+4]
  00106	75 0b		 jne	 SHORT $LN28@Insert_nod

; 491  :             _Myhead->_Parent = _Pnode;

  00108	89 70 04	 mov	 DWORD PTR [eax+4], esi

; 496  :         }
; 497  : 
; 498  :         _Pnode->_Right      = _Wherenode;

  0010b	89 4e 08	 mov	 DWORD PTR [esi+8], ecx

; 688  :                 }
; 689  :             } else { // fixup red-red in right subtree

  0010e	e9 cc 00 00 00	 jmp	 $LN52@Insert_nod
$LN28@Insert_nod:

; 492  :         } else if (_Wherenode == _Wherenode->_Parent->_Right) {

  00113	8b 41 04	 mov	 eax, DWORD PTR [ecx+4]
  00116	3b 48 08	 cmp	 ecx, DWORD PTR [eax+8]
  00119	75 0b		 jne	 SHORT $LN30@Insert_nod

; 493  :             _Wherenode->_Parent->_Right = _Pnode;

  0011b	89 70 08	 mov	 DWORD PTR [eax+8], esi

; 496  :         }
; 497  : 
; 498  :         _Pnode->_Right      = _Wherenode;

  0011e	89 4e 08	 mov	 DWORD PTR [esi+8], ecx

; 688  :                 }
; 689  :             } else { // fixup red-red in right subtree

  00121	e9 b9 00 00 00	 jmp	 $LN52@Insert_nod
$LN30@Insert_nod:

; 495  :             _Wherenode->_Parent->_Left = _Pnode;

  00126	89 30		 mov	 DWORD PTR [eax], esi

; 496  :         }
; 497  : 
; 498  :         _Pnode->_Right      = _Wherenode;

  00128	89 4e 08	 mov	 DWORD PTR [esi+8], ecx

; 688  :                 }
; 689  :             } else { // fixup red-red in right subtree

  0012b	e9 af 00 00 00	 jmp	 $LN52@Insert_nod
$LN10@Insert_nod:

; 690  :                 const auto _Parent_sibling = _Pnode->_Parent->_Parent->_Left;
; 691  :                 if (_Parent_sibling->_Color == _Red) { // parent's sibling has two red children, blacken both

  00130	80 78 0c 00	 cmp	 BYTE PTR [eax+12], 0
  00134	75 1b		 jne	 SHORT $LN15@Insert_nod
$LN53@Insert_nod:

; 668  :             }
; 669  :         }
; 670  : 
; 671  :         for (_Nodeptr _Pnode = _Newnode; _Pnode->_Parent->_Color == _Red;) {

  00136	c6 41 0c 01	 mov	 BYTE PTR [ecx+12], 1
  0013a	c6 40 0c 01	 mov	 BYTE PTR [eax+12], 1
  0013e	8b 07		 mov	 eax, DWORD PTR [edi]
  00140	8b 40 04	 mov	 eax, DWORD PTR [eax+4]
  00143	c6 40 0c 00	 mov	 BYTE PTR [eax+12], 0
  00147	8b 07		 mov	 eax, DWORD PTR [edi]
  00149	8b 50 04	 mov	 edx, DWORD PTR [eax+4]
  0014c	e9 91 00 00 00	 jmp	 $LN46@Insert_nod
$LN15@Insert_nod:

; 692  :                     _Pnode->_Parent->_Color          = _Black;
; 693  :                     _Parent_sibling->_Color          = _Black;
; 694  :                     _Pnode->_Parent->_Parent->_Color = _Red;
; 695  :                     _Pnode                           = _Pnode->_Parent->_Parent;
; 696  :                 } else { // parent's sibling has red and black children
; 697  :                     if (_Pnode == _Pnode->_Parent->_Left) { // rotate left child to right

  00151	8b 01		 mov	 eax, DWORD PTR [ecx]
  00153	3b d0		 cmp	 edx, eax
  00155	75 3e		 jne	 SHORT $LN39@Insert_nod

; 698  :                         _Pnode = _Pnode->_Parent;

  00157	8b d1		 mov	 edx, ecx

; 481  :         _Nodeptr _Pnode   = _Wherenode->_Left;

  00159	8b c8		 mov	 ecx, eax

; 482  :         _Wherenode->_Left = _Pnode->_Right;

  0015b	8b 41 08	 mov	 eax, DWORD PTR [ecx+8]
  0015e	89 02		 mov	 DWORD PTR [edx], eax

; 483  : 
; 484  :         if (!_Pnode->_Right->_Isnil) {

  00160	8b 41 08	 mov	 eax, DWORD PTR [ecx+8]
  00163	80 78 0d 00	 cmp	 BYTE PTR [eax+13], 0
  00167	75 03		 jne	 SHORT $LN34@Insert_nod

; 485  :             _Pnode->_Right->_Parent = _Wherenode;

  00169	89 50 04	 mov	 DWORD PTR [eax+4], edx
$LN34@Insert_nod:

; 486  :         }
; 487  : 
; 488  :         _Pnode->_Parent = _Wherenode->_Parent;

  0016c	8b 03		 mov	 eax, DWORD PTR [ebx]
  0016e	89 41 04	 mov	 DWORD PTR [ecx+4], eax

; 489  : 
; 490  :         if (_Wherenode == _Myhead->_Parent) {

  00171	8b 45 fc	 mov	 eax, DWORD PTR _this$1$[ebp]
  00174	8b 00		 mov	 eax, DWORD PTR [eax]
  00176	3b 50 04	 cmp	 edx, DWORD PTR [eax+4]
  00179	75 05		 jne	 SHORT $LN35@Insert_nod

; 491  :             _Myhead->_Parent = _Pnode;

  0017b	89 48 04	 mov	 DWORD PTR [eax+4], ecx
  0017e	eb 0e		 jmp	 SHORT $LN38@Insert_nod
$LN35@Insert_nod:

; 492  :         } else if (_Wherenode == _Wherenode->_Parent->_Right) {

  00180	8b 03		 mov	 eax, DWORD PTR [ebx]
  00182	3b 50 08	 cmp	 edx, DWORD PTR [eax+8]
  00185	75 05		 jne	 SHORT $LN37@Insert_nod

; 493  :             _Wherenode->_Parent->_Right = _Pnode;

  00187	89 48 08	 mov	 DWORD PTR [eax+8], ecx

; 494  :         } else {

  0018a	eb 02		 jmp	 SHORT $LN38@Insert_nod
$LN37@Insert_nod:

; 495  :             _Wherenode->_Parent->_Left = _Pnode;

  0018c	89 08		 mov	 DWORD PTR [eax], ecx
$LN38@Insert_nod:

; 496  :         }
; 497  : 
; 498  :         _Pnode->_Right      = _Wherenode;

  0018e	89 51 08	 mov	 DWORD PTR [ecx+8], edx

; 499  :         _Wherenode->_Parent = _Pnode;

  00191	8b fb		 mov	 edi, ebx
  00193	89 0b		 mov	 DWORD PTR [ebx], ecx
$LN39@Insert_nod:

; 699  :                         _Rrotate(_Pnode);
; 700  :                     }
; 701  : 
; 702  :                     _Pnode->_Parent->_Color          = _Black; // propagate red up

  00195	c6 41 0c 01	 mov	 BYTE PTR [ecx+12], 1

; 703  :                     _Pnode->_Parent->_Parent->_Color = _Red;

  00199	8b 07		 mov	 eax, DWORD PTR [edi]
  0019b	8b 40 04	 mov	 eax, DWORD PTR [eax+4]
  0019e	c6 40 0c 00	 mov	 BYTE PTR [eax+12], 0

; 704  :                     _Lrotate(_Pnode->_Parent->_Parent);

  001a2	8b 07		 mov	 eax, DWORD PTR [edi]
  001a4	8b 48 04	 mov	 ecx, DWORD PTR [eax+4]

; 459  :         _Nodeptr _Pnode    = _Wherenode->_Right;

  001a7	8b 71 08	 mov	 esi, DWORD PTR [ecx+8]

; 460  :         _Wherenode->_Right = _Pnode->_Left;

  001aa	8b 06		 mov	 eax, DWORD PTR [esi]
  001ac	89 41 08	 mov	 DWORD PTR [ecx+8], eax

; 461  : 
; 462  :         if (!_Pnode->_Left->_Isnil) {

  001af	8b 06		 mov	 eax, DWORD PTR [esi]
  001b1	80 78 0d 00	 cmp	 BYTE PTR [eax+13], 0
  001b5	75 03		 jne	 SHORT $LN41@Insert_nod

; 463  :             _Pnode->_Left->_Parent = _Wherenode;

  001b7	89 48 04	 mov	 DWORD PTR [eax+4], ecx
$LN41@Insert_nod:

; 464  :         }
; 465  : 
; 466  :         _Pnode->_Parent = _Wherenode->_Parent;

  001ba	8b 41 04	 mov	 eax, DWORD PTR [ecx+4]
  001bd	89 46 04	 mov	 DWORD PTR [esi+4], eax

; 467  : 
; 468  :         if (_Wherenode == _Myhead->_Parent) {

  001c0	8b 45 fc	 mov	 eax, DWORD PTR _this$1$[ebp]
  001c3	8b 00		 mov	 eax, DWORD PTR [eax]
  001c5	3b 48 04	 cmp	 ecx, DWORD PTR [eax+4]
  001c8	75 05		 jne	 SHORT $LN42@Insert_nod

; 469  :             _Myhead->_Parent = _Pnode;

  001ca	89 70 04	 mov	 DWORD PTR [eax+4], esi
  001cd	eb 0e		 jmp	 SHORT $LN45@Insert_nod
$LN42@Insert_nod:

; 470  :         } else if (_Wherenode == _Wherenode->_Parent->_Left) {

  001cf	8b 41 04	 mov	 eax, DWORD PTR [ecx+4]
  001d2	3b 08		 cmp	 ecx, DWORD PTR [eax]
  001d4	75 04		 jne	 SHORT $LN44@Insert_nod

; 471  :             _Wherenode->_Parent->_Left = _Pnode;

  001d6	89 30		 mov	 DWORD PTR [eax], esi

; 472  :         } else {

  001d8	eb 03		 jmp	 SHORT $LN45@Insert_nod
$LN44@Insert_nod:

; 473  :             _Wherenode->_Parent->_Right = _Pnode;

  001da	89 70 08	 mov	 DWORD PTR [eax+8], esi
$LN45@Insert_nod:

; 474  :         }
; 475  : 
; 476  :         _Pnode->_Left       = _Wherenode;

  001dd	89 0e		 mov	 DWORD PTR [esi], ecx
$LN52@Insert_nod:

; 668  :             }
; 669  :         }
; 670  : 
; 671  :         for (_Nodeptr _Pnode = _Newnode; _Pnode->_Parent->_Color == _Red;) {

  001df	89 71 04	 mov	 DWORD PTR [ecx+4], esi
$LN46@Insert_nod:
  001e2	8b 42 04	 mov	 eax, DWORD PTR [edx+4]
  001e5	80 78 0c 00	 cmp	 BYTE PTR [eax+12], 0
  001e9	0f 84 71 fe ff
	ff		 je	 $LL2@Insert_nod
  001ef	8b 4d f8	 mov	 ecx, DWORD PTR __Head$1$[ebp]
  001f2	5f		 pop	 edi
  001f3	5e		 pop	 esi
  001f4	5b		 pop	 ebx
$LN3@Insert_nod:

; 705  :                 }
; 706  :             }
; 707  :         }
; 708  : 
; 709  :         _Head->_Parent->_Color = _Black; // root is always black

  001f5	8b 41 04	 mov	 eax, DWORD PTR [ecx+4]
  001f8	c6 40 0c 01	 mov	 BYTE PTR [eax+12], 1

; 710  :         return _Newnode;

  001fc	8b 45 10	 mov	 eax, DWORD PTR __Newnode$[ebp]

; 711  :     }

  001ff	8b e5		 mov	 esp, ebp
  00201	5d		 pop	 ebp
  00202	c2 0c 00	 ret	 12			; 0000000cH
?_Insert_node@?$_Tree_val@U?$_Tree_simple_types@H@std@@@std@@QAEPAU?$_Tree_node@HPAX@2@U?$_Tree_id@PAU?$_Tree_node@HPAX@std@@@2@QAU32@@Z ENDP ; std::_Tree_val<std::_Tree_simple_types<int> >::_Insert_node
_TEXT	ENDS
; Function compile flags: /Ogtp
; File C:\Program Files (x86)\Microsoft Visual Studio\2019\Community\VC\Tools\MSVC\14.28.29333\include\xtree
;	COMDAT ?_Getal@?$_Tree@V?$_Tset_traits@HU?$less@H@std@@V?$allocator@H@2@$0A@@std@@@std@@IAEAAV?$allocator@U?$_Tree_node@HPAX@std@@@2@XZ
_TEXT	SEGMENT
?_Getal@?$_Tree@V?$_Tset_traits@HU?$less@H@std@@V?$allocator@H@2@$0A@@std@@@std@@IAEAAV?$allocator@U?$_Tree_node@HPAX@std@@@2@XZ PROC ; std::_Tree<std::_Tset_traits<int,std::less<int>,std::allocator<int>,0> >::_Getal, COMDAT
; _this$ = ecx

; 2039 :         return _Mypair._Myval2._Get_first();

  00000	8b c1		 mov	 eax, ecx

; 2040 :     }

  00002	c3		 ret	 0
?_Getal@?$_Tree@V?$_Tset_traits@HU?$less@H@std@@V?$allocator@H@2@$0A@@std@@@std@@IAEAAV?$allocator@U?$_Tree_node@HPAX@std@@@2@XZ ENDP ; std::_Tree<std::_Tset_traits<int,std::less<int>,std::allocator<int>,0> >::_Getal
_TEXT	ENDS
; Function compile flags: /Ogtp
; File C:\Program Files (x86)\Microsoft Visual Studio\2019\Community\VC\Tools\MSVC\14.28.29333\include\xtree
; File C:\Program Files (x86)\Microsoft Visual Studio\2019\Community\VC\Tools\MSVC\14.28.29333\include\utility
; File C:\Program Files (x86)\Microsoft Visual Studio\2019\Community\VC\Tools\MSVC\14.28.29333\include\xmemory
; File C:\Program Files (x86)\Microsoft Visual Studio\2019\Community\VC\Tools\MSVC\14.28.29333\include\xtree
;	COMDAT ?clear@?$_Tree@V?$_Tset_traits@HU?$less@H@std@@V?$allocator@H@2@$0A@@std@@@std@@QAEXXZ
_TEXT	SEGMENT
?clear@?$_Tree@V?$_Tset_traits@HU?$less@H@std@@V?$allocator@H@2@$0A@@std@@@std@@QAEXXZ PROC ; std::_Tree<std::_Tset_traits<int,std::less<int>,std::allocator<int>,0> >::clear, COMDAT
; _this$ = ecx

; 1444 :     void clear() noexcept {

  00000	53		 push	 ebx
  00001	8b d9		 mov	 ebx, ecx
  00003	56		 push	 esi
  00004	57		 push	 edi

; 1445 :         const auto _Scary = _Get_scary();
; 1446 :         _Scary->_Orphan_ptr(nullptr);
; 1447 :         auto _Head = _Scary->_Myhead;

  00005	8b 3b		 mov	 edi, DWORD PTR [ebx]

; 1448 :         _Scary->_Erase_tree(_Getal(), _Head->_Parent);

  00007	8b 77 04	 mov	 esi, DWORD PTR [edi+4]

; 743  :         while (!_Rootnode->_Isnil) { // free subtrees, then node

  0000a	80 7e 0d 00	 cmp	 BYTE PTR [esi+13], 0
  0000e	75 20		 jne	 SHORT $LN5@clear
$LL4@clear:

; 744  :             _Erase_tree(_Al, _Rootnode->_Right);

  00010	ff 76 08	 push	 DWORD PTR [esi+8]
  00013	8b cb		 mov	 ecx, ebx
  00015	53		 push	 ebx
  00016	e8 00 00 00 00	 call	 ??$_Erase_tree@V?$allocator@U?$_Tree_node@HPAX@std@@@std@@@?$_Tree_val@U?$_Tree_simple_types@H@std@@@std@@QAEXAAV?$allocator@U?$_Tree_node@HPAX@std@@@1@PAU?$_Tree_node@HPAX@1@@Z ; std::_Tree_val<std::_Tree_simple_types<int> >::_Erase_tree<std::allocator<std::_Tree_node<int,void *> > >
; File C:\Program Files (x86)\Microsoft Visual Studio\2019\Community\VC\Tools\MSVC\14.28.29333\include\utility

; 598  :     _Ty _Old_val = static_cast<_Ty&&>(_Val);

  0001b	8b c6		 mov	 eax, esi

; 599  :     _Val         = static_cast<_Other&&>(_New_val);

  0001d	8b 36		 mov	 esi, DWORD PTR [esi]
; File C:\Program Files (x86)\Microsoft Visual Studio\2019\Community\VC\Tools\MSVC\14.28.29333\include\xmemory

; 696  :         _Deallocate<_New_alignof<value_type>>(_Ptr, sizeof(value_type) * _Count);

  0001f	6a 14		 push	 20			; 00000014H
  00021	50		 push	 eax
  00022	e8 00 00 00 00	 call	 ??$_Deallocate@$07$0A@@std@@YAXPAXI@Z ; std::_Deallocate<8,0>
  00027	83 c4 08	 add	 esp, 8
; File C:\Program Files (x86)\Microsoft Visual Studio\2019\Community\VC\Tools\MSVC\14.28.29333\include\xtree

; 743  :         while (!_Rootnode->_Isnil) { // free subtrees, then node

  0002a	80 7e 0d 00	 cmp	 BYTE PTR [esi+13], 0
  0002e	74 e0		 je	 SHORT $LL4@clear
$LN5@clear:

; 1449 :         _Head->_Parent  = _Head;

  00030	89 7f 04	 mov	 DWORD PTR [edi+4], edi

; 1450 :         _Head->_Left    = _Head;

  00033	89 3f		 mov	 DWORD PTR [edi], edi

; 1451 :         _Head->_Right   = _Head;

  00035	89 7f 08	 mov	 DWORD PTR [edi+8], edi

; 1452 :         _Scary->_Mysize = 0;

  00038	5f		 pop	 edi
  00039	5e		 pop	 esi
  0003a	c7 43 04 00 00
	00 00		 mov	 DWORD PTR [ebx+4], 0
  00041	5b		 pop	 ebx

; 1453 :     }

  00042	c3		 ret	 0
?clear@?$_Tree@V?$_Tset_traits@HU?$less@H@std@@V?$allocator@H@2@$0A@@std@@@std@@QAEXXZ ENDP ; std::_Tree<std::_Tset_traits<int,std::less<int>,std::allocator<int>,0> >::clear
_TEXT	ENDS
; Function compile flags: /Ogtp
; File C:\Program Files (x86)\Microsoft Visual Studio\2019\Community\VC\Tools\MSVC\14.28.29333\include\xtree
; File C:\Program Files (x86)\Microsoft Visual Studio\2019\Community\VC\Tools\MSVC\14.28.29333\include\utility
; File C:\Program Files (x86)\Microsoft Visual Studio\2019\Community\VC\Tools\MSVC\14.28.29333\include\xmemory
; File C:\Program Files (x86)\Microsoft Visual Studio\2019\Community\VC\Tools\MSVC\14.28.29333\include\xtree
; File C:\Program Files (x86)\Microsoft Visual Studio\2019\Community\VC\Tools\MSVC\14.28.29333\include\xmemory
; File C:\Program Files (x86)\Microsoft Visual Studio\2019\Community\VC\Tools\MSVC\14.28.29333\include\xtree
;	COMDAT ??1?$_Tree@V?$_Tset_traits@HU?$less@H@std@@V?$allocator@H@2@$0A@@std@@@std@@QAE@XZ
_TEXT	SEGMENT
??1?$_Tree@V?$_Tset_traits@HU?$less@H@std@@V?$allocator@H@2@$0A@@std@@@std@@QAE@XZ PROC ; std::_Tree<std::_Tset_traits<int,std::less<int>,std::allocator<int>,0> >::~_Tree<std::_Tset_traits<int,std::less<int>,std::allocator<int>,0> >, COMDAT
; _this$ = ecx

; 1189 :     ~_Tree() noexcept {

  00000	56		 push	 esi
  00001	57		 push	 edi
  00002	8b f9		 mov	 edi, ecx

; 752  :         _Erase_tree(_Al, _Myhead->_Parent);

  00004	8b 07		 mov	 eax, DWORD PTR [edi]
  00006	8b 70 04	 mov	 esi, DWORD PTR [eax+4]

; 743  :         while (!_Rootnode->_Isnil) { // free subtrees, then node

  00009	80 7e 0d 00	 cmp	 BYTE PTR [esi+13], 0
  0000d	75 23		 jne	 SHORT $LN7@Tree
  0000f	90		 npad	 1
$LL6@Tree:

; 744  :             _Erase_tree(_Al, _Rootnode->_Right);

  00010	ff 76 08	 push	 DWORD PTR [esi+8]
  00013	8b cf		 mov	 ecx, edi
  00015	57		 push	 edi
  00016	e8 00 00 00 00	 call	 ??$_Erase_tree@V?$allocator@U?$_Tree_node@HPAX@std@@@std@@@?$_Tree_val@U?$_Tree_simple_types@H@std@@@std@@QAEXAAV?$allocator@U?$_Tree_node@HPAX@std@@@1@PAU?$_Tree_node@HPAX@1@@Z ; std::_Tree_val<std::_Tree_simple_types<int> >::_Erase_tree<std::allocator<std::_Tree_node<int,void *> > >
; File C:\Program Files (x86)\Microsoft Visual Studio\2019\Community\VC\Tools\MSVC\14.28.29333\include\utility

; 598  :     _Ty _Old_val = static_cast<_Ty&&>(_Val);

  0001b	8b c6		 mov	 eax, esi

; 599  :     _Val         = static_cast<_Other&&>(_New_val);

  0001d	8b 36		 mov	 esi, DWORD PTR [esi]
; File C:\Program Files (x86)\Microsoft Visual Studio\2019\Community\VC\Tools\MSVC\14.28.29333\include\xmemory

; 696  :         _Deallocate<_New_alignof<value_type>>(_Ptr, sizeof(value_type) * _Count);

  0001f	6a 14		 push	 20			; 00000014H
  00021	50		 push	 eax
  00022	e8 00 00 00 00	 call	 ??$_Deallocate@$07$0A@@std@@YAXPAXI@Z ; std::_Deallocate<8,0>
  00027	83 c4 08	 add	 esp, 8
; File C:\Program Files (x86)\Microsoft Visual Studio\2019\Community\VC\Tools\MSVC\14.28.29333\include\xtree

; 743  :         while (!_Rootnode->_Isnil) { // free subtrees, then node

  0002a	80 7e 0d 00	 cmp	 BYTE PTR [esi+13], 0
  0002e	74 e0		 je	 SHORT $LL6@Tree
  00030	8b 07		 mov	 eax, DWORD PTR [edi]
$LN7@Tree:
; File C:\Program Files (x86)\Microsoft Visual Studio\2019\Community\VC\Tools\MSVC\14.28.29333\include\xmemory

; 696  :         _Deallocate<_New_alignof<value_type>>(_Ptr, sizeof(value_type) * _Count);

  00032	6a 14		 push	 20			; 00000014H
  00034	50		 push	 eax
  00035	e8 00 00 00 00	 call	 ??$_Deallocate@$07$0A@@std@@YAXPAXI@Z ; std::_Deallocate<8,0>
  0003a	83 c4 08	 add	 esp, 8
  0003d	5f		 pop	 edi
  0003e	5e		 pop	 esi
; File C:\Program Files (x86)\Microsoft Visual Studio\2019\Community\VC\Tools\MSVC\14.28.29333\include\xtree

; 1196 :     }

  0003f	c3		 ret	 0
??1?$_Tree@V?$_Tset_traits@HU?$less@H@std@@V?$allocator@H@2@$0A@@std@@@std@@QAE@XZ ENDP ; std::_Tree<std::_Tset_traits<int,std::less<int>,std::allocator<int>,0> >::~_Tree<std::_Tset_traits<int,std::less<int>,std::allocator<int>,0> >
_TEXT	ENDS
; Function compile flags: /Ogtp
; File C:\Program Files (x86)\Microsoft Visual Studio\2019\Community\VC\Tools\MSVC\14.28.29333\include\xmemory
;	COMDAT ??$_Allocate_manually_vector_aligned@U_Default_allocate_traits@std@@@std@@YAPAXI@Z
_TEXT	SEGMENT
__Bytes$ = 8						; size = 4
??$_Allocate_manually_vector_aligned@U_Default_allocate_traits@std@@@std@@YAPAXI@Z PROC ; std::_Allocate_manually_vector_aligned<std::_Default_allocate_traits>, COMDAT

; 113  : __declspec(allocator) void* _Allocate_manually_vector_aligned(const size_t _Bytes) {

  00000	55		 push	 ebp
  00001	8b ec		 mov	 ebp, esp

; 114  :     // allocate _Bytes manually aligned to at least _Big_allocation_alignment
; 115  :     const size_t _Block_size = _Non_user_size + _Bytes;

  00003	8b 45 08	 mov	 eax, DWORD PTR __Bytes$[ebp]
  00006	8d 48 23	 lea	 ecx, DWORD PTR [eax+35]

; 116  :     if (_Block_size <= _Bytes) {

  00009	3b c8		 cmp	 ecx, eax
  0000b	0f 86 00 00 00
	00		 jbe	 ?_Throw_bad_array_new_length@std@@YAXXZ ; std::_Throw_bad_array_new_length

; 77   :         return ::operator new(_Bytes);

  00011	51		 push	 ecx
  00012	e8 00 00 00 00	 call	 ??2@YAPAXI@Z		; operator new

; 117  :         _Throw_bad_array_new_length(); // add overflow
; 118  :     }
; 119  : 
; 120  :     const uintptr_t _Ptr_container = reinterpret_cast<uintptr_t>(_Traits::_Allocate(_Block_size));

  00017	8b c8		 mov	 ecx, eax

; 77   :         return ::operator new(_Bytes);

  00019	83 c4 04	 add	 esp, 4

; 121  :     _STL_VERIFY(_Ptr_container != 0, "invalid argument"); // validate even in release since we're doing p[-1]

  0001c	85 c9		 test	 ecx, ecx
  0001e	74 0b		 je	 SHORT $LN7@Allocate_m

; 122  :     void* const _Ptr = reinterpret_cast<void*>((_Ptr_container + _Non_user_size) & ~(_Big_allocation_alignment - 1));

  00020	8d 41 23	 lea	 eax, DWORD PTR [ecx+35]
  00023	83 e0 e0	 and	 eax, -32		; ffffffe0H

; 123  :     static_cast<uintptr_t*>(_Ptr)[-1] = _Ptr_container;

  00026	89 48 fc	 mov	 DWORD PTR [eax-4], ecx

; 124  : 
; 125  : #ifdef _DEBUG
; 126  :     static_cast<uintptr_t*>(_Ptr)[-2] = _Big_allocation_sentinel;
; 127  : #endif // _DEBUG
; 128  :     return _Ptr;
; 129  : }

  00029	5d		 pop	 ebp
  0002a	c3		 ret	 0
$LN7@Allocate_m:

; 121  :     _STL_VERIFY(_Ptr_container != 0, "invalid argument"); // validate even in release since we're doing p[-1]

  0002b	e9 00 00 00 00	 jmp	 __invalid_parameter_noinfo_noreturn
??$_Allocate_manually_vector_aligned@U_Default_allocate_traits@std@@@std@@YAPAXI@Z ENDP ; std::_Allocate_manually_vector_aligned<std::_Default_allocate_traits>
_TEXT	ENDS
; Function compile flags: /Ogtp
; File C:\Program Files (x86)\Microsoft Visual Studio\2019\Community\VC\Tools\MSVC\14.28.29333\include\xmemory
;	COMDAT ??$_Allocate@$07U_Default_allocate_traits@std@@$0A@@std@@YAPAXI@Z
_TEXT	SEGMENT
__Bytes$ = 8						; size = 4
??$_Allocate@$07U_Default_allocate_traits@std@@$0A@@std@@YAPAXI@Z PROC ; std::_Allocate<8,std::_Default_allocate_traits,0>, COMDAT

; 197  : __declspec(allocator) void* _Allocate(const size_t _Bytes) {

  00000	55		 push	 ebp
  00001	8b ec		 mov	 ebp, esp

; 198  :     // allocate _Bytes when !_HAS_ALIGNED_NEW || _Align <= __STDCPP_DEFAULT_NEW_ALIGNMENT__
; 199  : #if defined(_M_IX86) || defined(_M_X64)
; 200  :     if (_Bytes >= _Big_allocation_threshold) { // boost the alignment of big allocations to help autovectorization

  00003	8b 45 08	 mov	 eax, DWORD PTR __Bytes$[ebp]
  00006	3d 00 10 00 00	 cmp	 eax, 4096		; 00001000H
  0000b	72 09		 jb	 SHORT $LN2@Allocate

; 201  :         return _Allocate_manually_vector_aligned<_Traits>(_Bytes);

  0000d	89 45 08	 mov	 DWORD PTR __Bytes$[ebp], eax

; 210  : }

  00010	5d		 pop	 ebp

; 201  :         return _Allocate_manually_vector_aligned<_Traits>(_Bytes);

  00011	e9 00 00 00 00	 jmp	 ??$_Allocate_manually_vector_aligned@U_Default_allocate_traits@std@@@std@@YAPAXI@Z ; std::_Allocate_manually_vector_aligned<std::_Default_allocate_traits>
$LN2@Allocate:

; 202  :     }
; 203  : #endif // defined(_M_IX86) || defined(_M_X64)
; 204  : 
; 205  :     if (_Bytes != 0) {

  00016	85 c0		 test	 eax, eax
  00018	74 09		 je	 SHORT $LN3@Allocate

; 77   :         return ::operator new(_Bytes);

  0001a	89 45 08	 mov	 DWORD PTR __Bytes$[ebp], eax

; 210  : }

  0001d	5d		 pop	 ebp

; 77   :         return ::operator new(_Bytes);

  0001e	e9 00 00 00 00	 jmp	 ??2@YAPAXI@Z		; operator new
$LN3@Allocate:

; 206  :         return _Traits::_Allocate(_Bytes);
; 207  :     }
; 208  : 
; 209  :     return nullptr;

  00023	33 c0		 xor	 eax, eax

; 210  : }

  00025	5d		 pop	 ebp
  00026	c3		 ret	 0
??$_Allocate@$07U_Default_allocate_traits@std@@$0A@@std@@YAPAXI@Z ENDP ; std::_Allocate<8,std::_Default_allocate_traits,0>
_TEXT	ENDS
; Function compile flags: /Ogtp
; File C:\Program Files (x86)\Microsoft Visual Studio\2019\Community\VC\Tools\MSVC\14.28.29333\include\xmemory
;	COMDAT ??$_Deallocate@$07$0A@@std@@YAXPAXI@Z
_TEXT	SEGMENT
__Ptr$ = 8						; size = 4
__Bytes$ = 12						; size = 4
??$_Deallocate@$07$0A@@std@@YAXPAXI@Z PROC		; std::_Deallocate<8,0>, COMDAT

; 213  : void _Deallocate(void* _Ptr, size_t _Bytes) noexcept {

  00000	55		 push	 ebp
  00001	8b ec		 mov	 ebp, esp

; 214  :     // deallocate storage allocated by _Allocate when !_HAS_ALIGNED_NEW || _Align <= __STDCPP_DEFAULT_NEW_ALIGNMENT__
; 215  : #if defined(_M_IX86) || defined(_M_X64)
; 216  :     if (_Bytes >= _Big_allocation_threshold) { // boost the alignment of big allocations to help autovectorization

  00003	8b 4d 0c	 mov	 ecx, DWORD PTR __Bytes$[ebp]
  00006	81 f9 00 10 00
	00		 cmp	 ecx, 4096		; 00001000H
  0000c	72 18		 jb	 SHORT $LN15@Deallocate

; 137  :     const uintptr_t _Ptr_container   = _Ptr_user[-1];

  0000e	8b 45 08	 mov	 eax, DWORD PTR __Ptr$[ebp]
  00011	83 c1 23	 add	 ecx, 35			; 00000023H
  00014	8b 50 fc	 mov	 edx, DWORD PTR [eax-4]

; 138  : 
; 139  :     // If the following asserts, it likely means that we are performing
; 140  :     // an aligned delete on memory coming from an unaligned allocation.
; 141  :     _STL_ASSERT(_Ptr_user[-2] == _Big_allocation_sentinel, "invalid argument");
; 142  : 
; 143  :     // Extra paranoia on aligned allocation/deallocation; ensure _Ptr_container is
; 144  :     // in range [_Min_back_shift, _Non_user_size]
; 145  : #ifdef _DEBUG
; 146  :     constexpr uintptr_t _Min_back_shift = 2 * sizeof(void*);
; 147  : #else // ^^^ _DEBUG ^^^ // vvv !_DEBUG vvv
; 148  :     constexpr uintptr_t _Min_back_shift = sizeof(void*);
; 149  : #endif // _DEBUG
; 150  :     const uintptr_t _Back_shift = reinterpret_cast<uintptr_t>(_Ptr) - _Ptr_container;

  00017	2b c2		 sub	 eax, edx

; 151  :     _STL_VERIFY(_Back_shift >= _Min_back_shift && _Back_shift <= _Non_user_size, "invalid argument");

  00019	83 c0 fc	 add	 eax, -4			; fffffffcH
  0001c	83 f8 1f	 cmp	 eax, 31			; 0000001fH
  0001f	76 08		 jbe	 SHORT $LN13@Deallocate
  00021	e9 00 00 00 00	 jmp	 __invalid_parameter_noinfo_noreturn
$LN15@Deallocate:

; 214  :     // deallocate storage allocated by _Allocate when !_HAS_ALIGNED_NEW || _Align <= __STDCPP_DEFAULT_NEW_ALIGNMENT__
; 215  : #if defined(_M_IX86) || defined(_M_X64)
; 216  :     if (_Bytes >= _Big_allocation_threshold) { // boost the alignment of big allocations to help autovectorization

  00026	8b 55 08	 mov	 edx, DWORD PTR __Ptr$[ebp]
$LN13@Deallocate:

; 217  :         _Adjust_manually_vector_aligned(_Ptr, _Bytes);
; 218  :     }
; 219  : #endif // defined(_M_IX86) || defined(_M_X64)
; 220  : 
; 221  :     ::operator delete(_Ptr, _Bytes);

  00029	89 4d 0c	 mov	 DWORD PTR __Bytes$[ebp], ecx
  0002c	89 55 08	 mov	 DWORD PTR __Ptr$[ebp], edx

; 222  : }

  0002f	5d		 pop	 ebp

; 217  :         _Adjust_manually_vector_aligned(_Ptr, _Bytes);
; 218  :     }
; 219  : #endif // defined(_M_IX86) || defined(_M_X64)
; 220  : 
; 221  :     ::operator delete(_Ptr, _Bytes);

  00030	e9 00 00 00 00	 jmp	 ??3@YAXPAXI@Z		; operator delete
??$_Deallocate@$07$0A@@std@@YAXPAXI@Z ENDP		; std::_Deallocate<8,0>
_TEXT	ENDS
; Function compile flags: /Ogtp
; File C:\Program Files (x86)\Microsoft Visual Studio\2019\Community\VC\Tools\MSVC\14.28.29333\include\xmemory
;	COMDAT ??$_Construct_in_place@PADABQAD@std@@YAXAAPADABQAD@Z
_TEXT	SEGMENT
__Obj$ = 8						; size = 4
_<_Args_0>$ = 12					; size = 4
??$_Construct_in_place@PADABQAD@std@@YAXAAPADABQAD@Z PROC ; std::_Construct_in_place<char *,char * const &>, COMDAT

; 228  : void _Construct_in_place(_Ty& _Obj, _Types&&... _Args) noexcept(is_nothrow_constructible_v<_Ty, _Types...>) {

  00000	55		 push	 ebp
  00001	8b ec		 mov	 ebp, esp

; 229  :     ::new (const_cast<void*>(static_cast<const volatile void*>(_STD addressof(_Obj))))

  00003	8b 45 0c	 mov	 eax, DWORD PTR _<_Args_0>$[ebp]
  00006	8b 08		 mov	 ecx, DWORD PTR [eax]
  00008	8b 45 08	 mov	 eax, DWORD PTR __Obj$[ebp]
  0000b	89 08		 mov	 DWORD PTR [eax], ecx

; 230  :         _Ty(_STD forward<_Types>(_Args)...);
; 231  : }

  0000d	5d		 pop	 ebp
  0000e	c3		 ret	 0
??$_Construct_in_place@PADABQAD@std@@YAXAAPADABQAD@Z ENDP ; std::_Construct_in_place<char *,char * const &>
_TEXT	ENDS
; Function compile flags: /Ogtp
; File C:\Program Files (x86)\Microsoft Visual Studio\2019\Community\VC\Tools\MSVC\14.28.29333\include\xmemory
;	COMDAT ??$_Destroy_in_place@PAD@std@@YAXAAPAD@Z
_TEXT	SEGMENT
__Obj$ = 8						; size = 4
??$_Destroy_in_place@PAD@std@@YAXAAPAD@Z PROC		; std::_Destroy_in_place<char *>, COMDAT

; 271  : #if _HAS_IF_CONSTEXPR
; 272  :     if constexpr (is_array_v<_Ty>) {
; 273  :         _Destroy_range(_Obj, _Obj + extent_v<_Ty>);
; 274  :     } else
; 275  : #endif // _HAS_IF_CONSTEXPR
; 276  :     {
; 277  :         _Obj.~_Ty();
; 278  :     }
; 279  : }

  00000	c2 00 00	 ret	 0
??$_Destroy_in_place@PAD@std@@YAXAAPAD@Z ENDP		; std::_Destroy_in_place<char *>
_TEXT	ENDS
; Function compile flags: /Ogtp
;	COMDAT ??_GSpherePackCallback@@UAEPAXI@Z
_TEXT	SEGMENT
___flags$ = 8						; size = 4
??_GSpherePackCallback@@UAEPAXI@Z PROC			; SpherePackCallback::`scalar deleting destructor', COMDAT
; _this$ = ecx
  00000	55		 push	 ebp
  00001	8b ec		 mov	 ebp, esp
  00003	f6 45 08 01	 test	 BYTE PTR ___flags$[ebp], 1
  00007	56		 push	 esi
  00008	8b f1		 mov	 esi, ecx
  0000a	c7 06 00 00 00
	00		 mov	 DWORD PTR [esi], OFFSET ??_7SpherePackCallback@@6B@
  00010	74 0b		 je	 SHORT $LN4@scalar
  00012	6a 04		 push	 4
  00014	56		 push	 esi
  00015	e8 00 00 00 00	 call	 ??3@YAXPAXI@Z		; operator delete
  0001a	83 c4 08	 add	 esp, 8
$LN4@scalar:
  0001d	8b c6		 mov	 eax, esi
  0001f	5e		 pop	 esi
  00020	5d		 pop	 ebp
  00021	c2 04 00	 ret	 4
??_GSpherePackCallback@@UAEPAXI@Z ENDP			; SpherePackCallback::`scalar deleting destructor'
_TEXT	ENDS
; Function compile flags: /Ogtp
; File D:\Metin2 Server Files\mainline\SRC_2014\Metin2Client\SphereLib\spherepack.h
;	COMDAT ?PointTest2dCallback@SpherePackCallback@@UAEXABVVector3d@@PAVSpherePack@@W4ViewState@@@Z
_TEXT	SEGMENT
_searchpos$ = 8						; size = 4
_sphere$ = 12						; size = 4
_state$ = 16						; size = 4
?PointTest2dCallback@SpherePackCallback@@UAEXABVVector3d@@PAVSpherePack@@W4ViewState@@@Z PROC ; SpherePackCallback::PointTest2dCallback, COMDAT
; _this$ = ecx

; 79   : 	{};

  00000	c2 0c 00	 ret	 12			; 0000000cH
?PointTest2dCallback@SpherePackCallback@@UAEXABVVector3d@@PAVSpherePack@@W4ViewState@@@Z ENDP ; SpherePackCallback::PointTest2dCallback
_TEXT	ENDS
; Function compile flags: /Ogtp
; File D:\Metin2 Server Files\mainline\SRC_2014\Metin2Client\SphereLib\spherepack.h
;	COMDAT ?RangeTestCallback@SpherePackCallback@@UAEXABVVector3d@@MPAVSpherePack@@W4ViewState@@@Z
_TEXT	SEGMENT
_searchpos$ = 8						; size = 4
_distance$ = 12						; size = 4
_sphere$ = 16						; size = 4
_state$ = 20						; size = 4
?RangeTestCallback@SpherePackCallback@@UAEXABVVector3d@@MPAVSpherePack@@W4ViewState@@@Z PROC ; SpherePackCallback::RangeTestCallback, COMDAT
; _this$ = ecx

; 74   : 	{};

  00000	c2 10 00	 ret	 16			; 00000010H
?RangeTestCallback@SpherePackCallback@@UAEXABVVector3d@@MPAVSpherePack@@W4ViewState@@@Z ENDP ; SpherePackCallback::RangeTestCallback
_TEXT	ENDS
; Function compile flags: /Ogtp
; File D:\Metin2 Server Files\mainline\SRC_2014\Metin2Client\SphereLib\spherepack.h
;	COMDAT ?RayTraceCallback@SpherePackCallback@@UAEXABVVector3d@@0M0PAVSpherePack@@@Z
_TEXT	SEGMENT
_p1$ = 8						; size = 4
_dir$ = 12						; size = 4
_distance$ = 16						; size = 4
_sect$ = 20						; size = 4
_sphere$ = 24						; size = 4
?RayTraceCallback@SpherePackCallback@@UAEXABVVector3d@@0M0PAVSpherePack@@@Z PROC ; SpherePackCallback::RayTraceCallback, COMDAT
; _this$ = ecx

; 68   : 	{};

  00000	c2 14 00	 ret	 20			; 00000014H
?RayTraceCallback@SpherePackCallback@@UAEXABVVector3d@@0M0PAVSpherePack@@@Z ENDP ; SpherePackCallback::RayTraceCallback
_TEXT	ENDS
; Function compile flags: /Ogtp
; File D:\Metin2 Server Files\mainline\SRC_2014\Metin2Client\SphereLib\spherepack.h
;	COMDAT ?VisibilityCallback@SpherePackCallback@@UAEXABVFrustum@@PAVSpherePack@@W4ViewState@@@Z
_TEXT	SEGMENT
_f$ = 8							; size = 4
_sphere$ = 12						; size = 4
_state$ = 16						; size = 4
?VisibilityCallback@SpherePackCallback@@UAEXABVFrustum@@PAVSpherePack@@W4ViewState@@@Z PROC ; SpherePackCallback::VisibilityCallback, COMDAT
; _this$ = ecx

; 61   : 	{};

  00000	c2 0c 00	 ret	 12			; 0000000cH
?VisibilityCallback@SpherePackCallback@@UAEXABVFrustum@@PAVSpherePack@@W4ViewState@@@Z ENDP ; SpherePackCallback::VisibilityCallback
_TEXT	ENDS
; Function compile flags: /Ogtp
; File D:\Metin2 Server Files\mainline\SRC_2014\Metin2Client\SphereLib\spherepack.h
;	COMDAT ??1SpherePackCallback@@UAE@XZ
_TEXT	SEGMENT
??1SpherePackCallback@@UAE@XZ PROC			; SpherePackCallback::~SpherePackCallback, COMDAT
; _this$ = ecx

; 56   : 	virtual ~SpherePackCallback() {}

  00000	c7 01 00 00 00
	00		 mov	 DWORD PTR [ecx], OFFSET ??_7SpherePackCallback@@6B@
  00006	c3		 ret	 0
??1SpherePackCallback@@UAE@XZ ENDP			; SpherePackCallback::~SpherePackCallback
_TEXT	ENDS
; Function compile flags: /Ogtp
; File C:\Program Files (x86)\Microsoft Visual Studio\2019\Community\VC\Tools\MSVC\14.28.29333\include\xtree
;	COMDAT ?_Throw_tree_length_error@std@@YAXXZ
_TEXT	SEGMENT
?_Throw_tree_length_error@std@@YAXXZ PROC		; std::_Throw_tree_length_error, COMDAT

; 415  :     _Xlength_error("map/set too long");

  00000	68 00 00 00 00	 push	 OFFSET ??_C@_0BB@GCADKGJO@map?1set?5too?5long@
  00005	e8 00 00 00 00	 call	 ?_Xlength_error@std@@YAXPBD@Z ; std::_Xlength_error
$LN3@Throw_tree:
  0000a	cc		 int	 3
?_Throw_tree_length_error@std@@YAXXZ ENDP		; std::_Throw_tree_length_error
_TEXT	ENDS
; Function compile flags: /Ogtp
; File C:\Program Files (x86)\Microsoft Visual Studio\2019\Community\VC\Tools\MSVC\14.28.29333\include\xstring
; File C:\Program Files (x86)\Microsoft Visual Studio\2019\Community\VC\Tools\MSVC\14.28.29333\include\utility
; File C:\Program Files (x86)\Microsoft Visual Studio\2019\Community\VC\Tools\MSVC\14.28.29333\include\xstring
; File C:\Program Files (x86)\Microsoft Visual Studio\2019\Community\VC\Tools\MSVC\14.28.29333\include\xmemory
; File C:\Program Files (x86)\Microsoft Visual Studio\2019\Community\VC\Tools\MSVC\14.28.29333\include\xstring
; File C:\Program Files (x86)\Microsoft Visual Studio\2019\Community\VC\Tools\MSVC\14.28.29333\include\xmemory
; File C:\Program Files (x86)\Microsoft Visual Studio\2019\Community\VC\Tools\MSVC\14.28.29333\include\xstring
;	COMDAT ?assign@?$basic_string@DU?$char_traits@D@std@@V?$allocator@D@2@@std@@QAEAAV12@QBDI@Z
_TEXT	SEGMENT
__Old$1$ = -4						; size = 4
__Ptr$ = 8						; size = 4
__New_ptr$1 = 12					; size = 4
__Count$ = 12						; size = 4
?assign@?$basic_string@DU?$char_traits@D@std@@V?$allocator@D@2@@std@@QAEAAV12@QBDI@Z PROC ; std::basic_string<char,std::char_traits<char>,std::allocator<char> >::assign, COMDAT
; _this$ = ecx

; 3042 :     basic_string& assign(_In_reads_(_Count) const _Elem* const _Ptr, _CRT_GUARDOVERFLOW const size_type _Count) {

  00000	55		 push	 ebp
  00001	8b ec		 mov	 ebp, esp
  00003	51		 push	 ecx
  00004	53		 push	 ebx
  00005	56		 push	 esi
  00006	8b f1		 mov	 esi, ecx
  00008	57		 push	 edi

; 3043 :         // assign [_Ptr, _Ptr + _Count)
; 3044 :         if (_Count <= _Mypair._Myval2._Myres) {

  00009	8b 7d 0c	 mov	 edi, DWORD PTR __Count$[ebp]
  0000c	8b 4e 14	 mov	 ecx, DWORD PTR [esi+20]
  0000f	89 4d fc	 mov	 DWORD PTR __Old$1$[ebp], ecx
  00012	3b f9		 cmp	 edi, ecx
  00014	77 28		 ja	 SHORT $LN2@assign

; 2209 :         value_type* _Result = _Bx._Buf;

  00016	8b de		 mov	 ebx, esi

; 2227 :         return _BUF_SIZE <= _Myres;

  00018	83 f9 10	 cmp	 ecx, 16			; 00000010H

; 2210 :         if (_Large_string_engaged()) {

  0001b	72 02		 jb	 SHORT $LN5@assign

; 2211 :             _Result = _Unfancy(_Bx._Ptr);

  0001d	8b 1e		 mov	 ebx, DWORD PTR [esi]
$LN5@assign:

; 119  :         _CSTD memmove(_First1, _First2, _Count * sizeof(_Elem));

  0001f	57		 push	 edi
  00020	ff 75 08	 push	 DWORD PTR __Ptr$[ebp]

; 3045 :             _Elem* const _Old_ptr   = _Mypair._Myval2._Myptr();
; 3046 :             _Mypair._Myval2._Mysize = _Count;

  00023	89 7e 10	 mov	 DWORD PTR [esi+16], edi

; 119  :         _CSTD memmove(_First1, _First2, _Count * sizeof(_Elem));

  00026	53		 push	 ebx
  00027	e8 00 00 00 00	 call	 _memmove
  0002c	83 c4 0c	 add	 esp, 12			; 0000000cH

; 3047 :             _Traits::move(_Old_ptr, _Ptr, _Count);
; 3048 :             _Traits::assign(_Old_ptr[_Count], _Elem());

  0002f	c6 04 3b 00	 mov	 BYTE PTR [ebx+edi], 0

; 3059 :     }

  00033	8b c6		 mov	 eax, esi
  00035	5f		 pop	 edi
  00036	5e		 pop	 esi
  00037	5b		 pop	 ebx
  00038	8b e5		 mov	 esp, ebp
  0003a	5d		 pop	 ebp
  0003b	c2 08 00	 ret	 8
$LN2@assign:

; 4305 :         if (_New_size > max_size()) {

  0003e	81 ff ff ff ff
	7f		 cmp	 edi, 2147483647		; 7fffffffH
  00044	0f 87 91 00 00
	00		 ja	 $LN36@assign

; 4285 :         const size_type _Masked = _Requested | _ALLOC_MASK;

  0004a	8b df		 mov	 ebx, edi
  0004c	83 cb 0f	 or	 ebx, 15			; 0000000fH
  0004f	81 fb ff ff ff
	7f		 cmp	 ebx, 2147483647		; 7fffffffH

; 4286 :         if (_Masked > _Max) { // the mask overflows, settle for max_size()

  00055	76 07		 jbe	 SHORT $LN19@assign

; 4287 :             return _Max;

  00057	bb ff ff ff 7f	 mov	 ebx, 2147483647		; 7fffffffH
  0005c	eb 1e		 jmp	 SHORT $LN18@assign
$LN19@assign:

; 4288 :         }
; 4289 : 
; 4290 :         if (_Old > _Max - _Old / 2) { // similarly, geometric overflows

  0005e	8b d1		 mov	 edx, ecx
  00060	b8 ff ff ff 7f	 mov	 eax, 2147483647		; 7fffffffH
  00065	d1 ea		 shr	 edx, 1
  00067	2b c2		 sub	 eax, edx
  00069	3b c8		 cmp	 ecx, eax
  0006b	76 07		 jbe	 SHORT $LN20@assign

; 4291 :             return _Max;

  0006d	bb ff ff ff 7f	 mov	 ebx, 2147483647		; 7fffffffH
  00072	eb 08		 jmp	 SHORT $LN18@assign
$LN20@assign:

; 4292 :         }
; 4293 : 
; 4294 :         return (_STD max)(_Masked, _Old + _Old / 2);

  00074	8d 04 0a	 lea	 eax, DWORD PTR [edx+ecx]
; File C:\Program Files (x86)\Microsoft Visual Studio\2019\Community\VC\Tools\MSVC\14.28.29333\include\utility

; 44   :     return _Left < _Right ? _Right : _Left;

  00077	3b d8		 cmp	 ebx, eax
  00079	0f 42 d8	 cmovb	 ebx, eax
$LN18@assign:
; File C:\Program Files (x86)\Microsoft Visual Studio\2019\Community\VC\Tools\MSVC\14.28.29333\include\xstring

; 4312 :         const pointer _New_ptr        = _Al.allocate(_New_capacity + 1); // throws

  0007c	8d 43 01	 lea	 eax, DWORD PTR [ebx+1]
; File C:\Program Files (x86)\Microsoft Visual Studio\2019\Community\VC\Tools\MSVC\14.28.29333\include\xmemory

; 814  :         return static_cast<_Ty*>(_Allocate<_New_alignof<_Ty>>(_Get_size_of_n<sizeof(_Ty)>(_Count)));

  0007f	50		 push	 eax
  00080	e8 00 00 00 00	 call	 ??$_Allocate@$07U_Default_allocate_traits@std@@$0A@@std@@YAPAXI@Z ; std::_Allocate<8,std::_Default_allocate_traits,0>
; File C:\Program Files (x86)\Microsoft Visual Studio\2019\Community\VC\Tools\MSVC\14.28.29333\include\xstring

; 62   :         _CSTD memcpy(_First1, _First2, _Count * sizeof(_Elem));

  00085	57		 push	 edi
  00086	ff 75 08	 push	 DWORD PTR __Ptr$[ebp]

; 4312 :         const pointer _New_ptr        = _Al.allocate(_New_capacity + 1); // throws

  00089	89 45 0c	 mov	 DWORD PTR __New_ptr$1[ebp], eax

; 62   :         _CSTD memcpy(_First1, _First2, _Count * sizeof(_Elem));

  0008c	50		 push	 eax

; 4314 :         _Mypair._Myval2._Mysize = _New_size;

  0008d	89 7e 10	 mov	 DWORD PTR [esi+16], edi

; 4315 :         _Mypair._Myval2._Myres  = _New_capacity;

  00090	89 5e 14	 mov	 DWORD PTR [esi+20], ebx

; 62   :         _CSTD memcpy(_First1, _First2, _Count * sizeof(_Elem));

  00093	e8 00 00 00 00	 call	 _memcpy

; 3056 :                 _Traits::assign(_New_ptr[_Count], _Elem());

  00098	8b 5d 0c	 mov	 ebx, DWORD PTR __New_ptr$1[ebp]

; 62   :         _CSTD memcpy(_First1, _First2, _Count * sizeof(_Elem));

  0009b	83 c4 10	 add	 esp, 16			; 00000010H

; 4317 :         if (_BUF_SIZE <= _Old_capacity) {

  0009e	8b 45 fc	 mov	 eax, DWORD PTR __Old$1$[ebp]

; 3056 :                 _Traits::assign(_New_ptr[_Count], _Elem());

  000a1	c6 04 3b 00	 mov	 BYTE PTR [ebx+edi], 0

; 4317 :         if (_BUF_SIZE <= _Old_capacity) {

  000a5	83 f8 10	 cmp	 eax, 16			; 00000010H
  000a8	72 19		 jb	 SHORT $LN13@assign

; 4318 :             _Al.deallocate(_Mypair._Myval2._Bx._Ptr, _Old_capacity + 1);

  000aa	40		 inc	 eax
; File C:\Program Files (x86)\Microsoft Visual Studio\2019\Community\VC\Tools\MSVC\14.28.29333\include\xmemory

; 810  :         _Deallocate<_New_alignof<_Ty>>(_Ptr, sizeof(_Ty) * _Count);

  000ab	50		 push	 eax
  000ac	ff 36		 push	 DWORD PTR [esi]
  000ae	e8 00 00 00 00	 call	 ??$_Deallocate@$07$0A@@std@@YAXPAXI@Z ; std::_Deallocate<8,0>
; File C:\Program Files (x86)\Microsoft Visual Studio\2019\Community\VC\Tools\MSVC\14.28.29333\include\xstring

; 3059 :     }

  000b3	83 c4 08	 add	 esp, 8

; 4319 :             _Mypair._Myval2._Bx._Ptr = _New_ptr;

  000b6	89 1e		 mov	 DWORD PTR [esi], ebx

; 3059 :     }

  000b8	8b c6		 mov	 eax, esi
  000ba	5f		 pop	 edi
  000bb	5e		 pop	 esi
  000bc	5b		 pop	 ebx
  000bd	8b e5		 mov	 esp, ebp
  000bf	5d		 pop	 ebp
  000c0	c2 08 00	 ret	 8
$LN13@assign:

; 4321 :             _Construct_in_place(_Mypair._Myval2._Bx._Ptr, _New_ptr);

  000c3	8d 45 0c	 lea	 eax, DWORD PTR __New_ptr$1[ebp]
  000c6	50		 push	 eax
  000c7	56		 push	 esi
  000c8	e8 00 00 00 00	 call	 ??$_Construct_in_place@PADABQAD@std@@YAXAAPADABQAD@Z ; std::_Construct_in_place<char *,char * const &>

; 3059 :     }

  000cd	83 c4 08	 add	 esp, 8
  000d0	8b c6		 mov	 eax, esi
  000d2	5f		 pop	 edi
  000d3	5e		 pop	 esi
  000d4	5b		 pop	 ebx
  000d5	8b e5		 mov	 esp, ebp
  000d7	5d		 pop	 ebp
  000d8	c2 08 00	 ret	 8
$LN36@assign:

; 4306 :             _Xlen_string(); // result too long

  000db	e8 00 00 00 00	 call	 ?_Xlen_string@std@@YAXXZ ; std::_Xlen_string
$LN33@assign:
  000e0	cc		 int	 3
?assign@?$basic_string@DU?$char_traits@D@std@@V?$allocator@D@2@@std@@QAEAAV12@QBDI@Z ENDP ; std::basic_string<char,std::char_traits<char>,std::allocator<char> >::assign
_TEXT	ENDS
; Function compile flags: /Ogtp
; File C:\Program Files (x86)\Microsoft Visual Studio\2019\Community\VC\Tools\MSVC\14.28.29333\include\xstring
; File C:\Program Files (x86)\Microsoft Visual Studio\2019\Community\VC\Tools\MSVC\14.28.29333\include\utility
; File C:\Program Files (x86)\Microsoft Visual Studio\2019\Community\VC\Tools\MSVC\14.28.29333\include\xstring
; File C:\Program Files (x86)\Microsoft Visual Studio\2019\Community\VC\Tools\MSVC\14.28.29333\include\xmemory
; File C:\Program Files (x86)\Microsoft Visual Studio\2019\Community\VC\Tools\MSVC\14.28.29333\include\xstring
; File C:\Program Files (x86)\Microsoft Visual Studio\2019\Community\VC\Tools\MSVC\14.28.29333\include\xmemory
; File C:\Program Files (x86)\Microsoft Visual Studio\2019\Community\VC\Tools\MSVC\14.28.29333\include\xstring
; File C:\Program Files (x86)\Microsoft Visual Studio\2019\Community\VC\Tools\MSVC\14.28.29333\include\xmemory
; File C:\Program Files (x86)\Microsoft Visual Studio\2019\Community\VC\Tools\MSVC\14.28.29333\include\xstring
;	COMDAT ?append@?$basic_string@DU?$char_traits@D@std@@V?$allocator@D@2@@std@@QAEAAV12@QBDI@Z
_TEXT	SEGMENT
__Old_size$1$ = -16					; size = 4
__New_ptr$1 = -12					; size = 4
tv448 = -8						; size = 4
__Old$1$ = -4						; size = 4
__Ptr$ = 8						; size = 4
tv452 = 12						; size = 4
tv449 = 12						; size = 4
$T2 = 12						; size = 4
__Count$ = 12						; size = 4
?append@?$basic_string@DU?$char_traits@D@std@@V?$allocator@D@2@@std@@QAEAAV12@QBDI@Z PROC ; std::basic_string<char,std::char_traits<char>,std::allocator<char> >::append, COMDAT
; _this$ = ecx

; 2935 :     basic_string& append(_In_reads_(_Count) const _Elem* const _Ptr, _CRT_GUARDOVERFLOW const size_type _Count) {

  00000	55		 push	 ebp
  00001	8b ec		 mov	 ebp, esp
  00003	83 ec 10	 sub	 esp, 16			; 00000010H
  00006	53		 push	 ebx

; 2936 :         // append [_Ptr, _Ptr + _Count)
; 2937 :         const size_type _Old_size = _Mypair._Myval2._Mysize;
; 2938 :         if (_Count <= _Mypair._Myval2._Myres - _Old_size) {

  00007	8b 5d 0c	 mov	 ebx, DWORD PTR __Count$[ebp]
  0000a	56		 push	 esi
  0000b	57		 push	 edi
  0000c	8b f9		 mov	 edi, ecx
  0000e	8b 57 14	 mov	 edx, DWORD PTR [edi+20]
  00011	8b c2		 mov	 eax, edx
  00013	8b 77 10	 mov	 esi, DWORD PTR [edi+16]
  00016	2b c6		 sub	 eax, esi
  00018	89 75 f0	 mov	 DWORD PTR __Old_size$1$[ebp], esi
  0001b	89 55 fc	 mov	 DWORD PTR __Old$1$[ebp], edx
  0001e	3b d8		 cmp	 ebx, eax
  00020	77 2d		 ja	 SHORT $LN2@append

; 2939 :             _Mypair._Myval2._Mysize = _Old_size + _Count;

  00022	8d 04 1e	 lea	 eax, DWORD PTR [esi+ebx]
  00025	89 47 10	 mov	 DWORD PTR [edi+16], eax

; 2209 :         value_type* _Result = _Bx._Buf;

  00028	8b c7		 mov	 eax, edi

; 2227 :         return _BUF_SIZE <= _Myres;

  0002a	83 fa 10	 cmp	 edx, 16			; 00000010H

; 2210 :         if (_Large_string_engaged()) {

  0002d	72 02		 jb	 SHORT $LN5@append

; 2211 :             _Result = _Unfancy(_Bx._Ptr);

  0002f	8b 07		 mov	 eax, DWORD PTR [edi]
$LN5@append:

; 119  :         _CSTD memmove(_First1, _First2, _Count * sizeof(_Elem));

  00031	53		 push	 ebx
  00032	ff 75 08	 push	 DWORD PTR __Ptr$[ebp]

; 2940 :             _Elem* const _Old_ptr   = _Mypair._Myval2._Myptr();
; 2941 :             _Traits::move(_Old_ptr + _Old_size, _Ptr, _Count);

  00035	03 f0		 add	 esi, eax

; 119  :         _CSTD memmove(_First1, _First2, _Count * sizeof(_Elem));

  00037	56		 push	 esi
  00038	e8 00 00 00 00	 call	 _memmove
  0003d	83 c4 0c	 add	 esp, 12			; 0000000cH

; 2942 :             _Traits::assign(_Old_ptr[_Old_size + _Count], _Elem());

  00040	c6 04 1e 00	 mov	 BYTE PTR [esi+ebx], 0

; 2953 :             },
; 2954 :             _Ptr, _Count);
; 2955 :     }

  00044	8b c7		 mov	 eax, edi
  00046	5f		 pop	 edi
  00047	5e		 pop	 esi
  00048	5b		 pop	 ebx
  00049	8b e5		 mov	 esp, ebp
  0004b	5d		 pop	 ebp
  0004c	c2 08 00	 ret	 8
$LN2@append:

; 4333 :         if (max_size() - _Old_size < _Size_increase) {

  0004f	b8 ff ff ff 7f	 mov	 eax, 2147483647		; 7fffffffH
  00054	2b c6		 sub	 eax, esi
  00056	3b c3		 cmp	 eax, ebx
  00058	0f 82 d6 00 00
	00		 jb	 $LN45@append

; 4335 :         }
; 4336 : 
; 4337 :         const size_type _New_size     = _Old_size + _Size_increase;

  0005e	8d 0c 1e	 lea	 ecx, DWORD PTR [esi+ebx]

; 4285 :         const size_type _Masked = _Requested | _ALLOC_MASK;

  00061	83 c9 0f	 or	 ecx, 15			; 0000000fH
  00064	81 f9 ff ff ff
	7f		 cmp	 ecx, 2147483647		; 7fffffffH

; 4286 :         if (_Masked > _Max) { // the mask overflows, settle for max_size()

  0006a	76 07		 jbe	 SHORT $LN19@append

; 4287 :             return _Max;

  0006c	b9 ff ff ff 7f	 mov	 ecx, 2147483647		; 7fffffffH
  00071	eb 24		 jmp	 SHORT $LN42@append
$LN19@append:

; 4288 :         }
; 4289 : 
; 4290 :         if (_Old > _Max - _Old / 2) { // similarly, geometric overflows

  00073	8b c2		 mov	 eax, edx
  00075	d1 e8		 shr	 eax, 1
  00077	89 45 0c	 mov	 DWORD PTR tv452[ebp], eax
  0007a	b8 ff ff ff 7f	 mov	 eax, 2147483647		; 7fffffffH
  0007f	2b 45 0c	 sub	 eax, DWORD PTR tv452[ebp]
  00082	3b d0		 cmp	 edx, eax
  00084	76 07		 jbe	 SHORT $LN20@append

; 4291 :             return _Max;

  00086	b9 ff ff ff 7f	 mov	 ecx, 2147483647		; 7fffffffH
  0008b	eb 0a		 jmp	 SHORT $LN42@append
$LN20@append:

; 4292 :         }
; 4293 : 
; 4294 :         return (_STD max)(_Masked, _Old + _Old / 2);

  0008d	8b 45 0c	 mov	 eax, DWORD PTR tv452[ebp]
  00090	03 c2		 add	 eax, edx
; File C:\Program Files (x86)\Microsoft Visual Studio\2019\Community\VC\Tools\MSVC\14.28.29333\include\utility

; 44   :     return _Left < _Right ? _Right : _Left;

  00092	3b c8		 cmp	 ecx, eax
  00094	0f 42 c8	 cmovb	 ecx, eax
$LN42@append:
; File C:\Program Files (x86)\Microsoft Visual Studio\2019\Community\VC\Tools\MSVC\14.28.29333\include\xstring

; 4341 :         const pointer _New_ptr        = _Al.allocate(_New_capacity + 1); // throws

  00097	8d 41 01	 lea	 eax, DWORD PTR [ecx+1]
  0009a	89 4d 0c	 mov	 DWORD PTR $T2[ebp], ecx
; File C:\Program Files (x86)\Microsoft Visual Studio\2019\Community\VC\Tools\MSVC\14.28.29333\include\xmemory

; 814  :         return static_cast<_Ty*>(_Allocate<_New_alignof<_Ty>>(_Get_size_of_n<sizeof(_Ty)>(_Count)));

  0009d	50		 push	 eax
  0009e	e8 00 00 00 00	 call	 ??$_Allocate@$07U_Default_allocate_traits@std@@$0A@@std@@YAPAXI@Z ; std::_Allocate<8,std::_Default_allocate_traits,0>
; File C:\Program Files (x86)\Microsoft Visual Studio\2019\Community\VC\Tools\MSVC\14.28.29333\include\xstring

; 4343 :         _My_data._Mysize      = _New_size;

  000a3	8d 0c 1e	 lea	 ecx, DWORD PTR [esi+ebx]
  000a6	89 45 f4	 mov	 DWORD PTR __New_ptr$1[ebp], eax
  000a9	89 4f 10	 mov	 DWORD PTR [edi+16], ecx
; File C:\Program Files (x86)\Microsoft Visual Studio\2019\Community\VC\Tools\MSVC\14.28.29333\include\xmemory

; 814  :         return static_cast<_Ty*>(_Allocate<_New_alignof<_Ty>>(_Get_size_of_n<sizeof(_Ty)>(_Count)));

  000ac	83 c4 04	 add	 esp, 4
; File C:\Program Files (x86)\Microsoft Visual Studio\2019\Community\VC\Tools\MSVC\14.28.29333\include\xstring

; 4344 :         _My_data._Myres       = _New_capacity;

  000af	8b 4d 0c	 mov	 ecx, DWORD PTR $T2[ebp]
  000b2	89 4f 14	 mov	 DWORD PTR [edi+20], ecx

; 4345 :         _Elem* const _Raw_new = _Unfancy(_New_ptr);

  000b5	8d 0c 30	 lea	 ecx, DWORD PTR [eax+esi]
  000b8	89 4d 0c	 mov	 DWORD PTR tv449[ebp], ecx
  000bb	03 cb		 add	 ecx, ebx

; 4346 :         if (_BUF_SIZE <= _Old_capacity) {

  000bd	83 7d fc 10	 cmp	 DWORD PTR __Old$1$[ebp], 16 ; 00000010H
  000c1	89 4d f8	 mov	 DWORD PTR tv448[ebp], ecx
  000c4	72 3c		 jb	 SHORT $LN13@append

; 62   :         _CSTD memcpy(_First1, _First2, _Count * sizeof(_Elem));

  000c6	ff 75 f0	 push	 DWORD PTR __Old_size$1$[ebp]

; 4347 :             const pointer _Old_ptr = _My_data._Bx._Ptr;

  000c9	8b 37		 mov	 esi, DWORD PTR [edi]

; 62   :         _CSTD memcpy(_First1, _First2, _Count * sizeof(_Elem));

  000cb	56		 push	 esi
  000cc	50		 push	 eax
  000cd	e8 00 00 00 00	 call	 _memcpy
  000d2	53		 push	 ebx
  000d3	ff 75 08	 push	 DWORD PTR __Ptr$[ebp]
  000d6	ff 75 0c	 push	 DWORD PTR tv449[ebp]
  000d9	e8 00 00 00 00	 call	 _memcpy

; 2952 :                 _Traits::assign(_New_ptr[_Old_size + _Count], _Elem());

  000de	8b 45 f8	 mov	 eax, DWORD PTR tv448[ebp]
  000e1	c6 00 00	 mov	 BYTE PTR [eax], 0

; 4349 :             _Al.deallocate(_Old_ptr, _Old_capacity + 1);

  000e4	8b 45 fc	 mov	 eax, DWORD PTR __Old$1$[ebp]
  000e7	40		 inc	 eax
; File C:\Program Files (x86)\Microsoft Visual Studio\2019\Community\VC\Tools\MSVC\14.28.29333\include\xmemory

; 810  :         _Deallocate<_New_alignof<_Ty>>(_Ptr, sizeof(_Ty) * _Count);

  000e8	50		 push	 eax
  000e9	56		 push	 esi
  000ea	e8 00 00 00 00	 call	 ??$_Deallocate@$07$0A@@std@@YAXPAXI@Z ; std::_Deallocate<8,0>
; File C:\Program Files (x86)\Microsoft Visual Studio\2019\Community\VC\Tools\MSVC\14.28.29333\include\xstring

; 4350 :             _My_data._Bx._Ptr = _New_ptr;

  000ef	8b 45 f4	 mov	 eax, DWORD PTR __New_ptr$1[ebp]

; 2953 :             },
; 2954 :             _Ptr, _Count);
; 2955 :     }

  000f2	83 c4 20	 add	 esp, 32			; 00000020H

; 4350 :             _My_data._Bx._Ptr = _New_ptr;

  000f5	89 07		 mov	 DWORD PTR [edi], eax

; 2953 :             },
; 2954 :             _Ptr, _Count);
; 2955 :     }

  000f7	8b c7		 mov	 eax, edi
  000f9	5f		 pop	 edi
  000fa	5e		 pop	 esi
  000fb	5b		 pop	 ebx
  000fc	8b e5		 mov	 esp, ebp
  000fe	5d		 pop	 ebp
  000ff	c2 08 00	 ret	 8
$LN13@append:

; 62   :         _CSTD memcpy(_First1, _First2, _Count * sizeof(_Elem));

  00102	56		 push	 esi
  00103	57		 push	 edi
  00104	50		 push	 eax
  00105	e8 00 00 00 00	 call	 _memcpy
  0010a	53		 push	 ebx
  0010b	ff 75 08	 push	 DWORD PTR __Ptr$[ebp]
  0010e	ff 75 0c	 push	 DWORD PTR tv449[ebp]
  00111	e8 00 00 00 00	 call	 _memcpy

; 2952 :                 _Traits::assign(_New_ptr[_Old_size + _Count], _Elem());

  00116	8b 45 f8	 mov	 eax, DWORD PTR tv448[ebp]
  00119	c6 00 00	 mov	 BYTE PTR [eax], 0

; 4353 :             _Construct_in_place(_My_data._Bx._Ptr, _New_ptr);

  0011c	8d 45 f4	 lea	 eax, DWORD PTR __New_ptr$1[ebp]
  0011f	50		 push	 eax
  00120	57		 push	 edi
  00121	e8 00 00 00 00	 call	 ??$_Construct_in_place@PADABQAD@std@@YAXAAPADABQAD@Z ; std::_Construct_in_place<char *,char * const &>

; 2953 :             },
; 2954 :             _Ptr, _Count);
; 2955 :     }

  00126	83 c4 20	 add	 esp, 32			; 00000020H
  00129	8b c7		 mov	 eax, edi
  0012b	5f		 pop	 edi
  0012c	5e		 pop	 esi
  0012d	5b		 pop	 ebx
  0012e	8b e5		 mov	 esp, ebp
  00130	5d		 pop	 ebp
  00131	c2 08 00	 ret	 8
$LN45@append:

; 4334 :             _Xlen_string(); // result too long

  00134	e8 00 00 00 00	 call	 ?_Xlen_string@std@@YAXXZ ; std::_Xlen_string
$LN41@append:
  00139	cc		 int	 3
?append@?$basic_string@DU?$char_traits@D@std@@V?$allocator@D@2@@std@@QAEAAV12@QBDI@Z ENDP ; std::basic_string<char,std::char_traits<char>,std::allocator<char> >::append
_TEXT	ENDS
; Function compile flags: /Ogtp
; File C:\Program Files (x86)\Microsoft Visual Studio\2019\Community\VC\Tools\MSVC\14.28.29333\include\xstring
; File C:\Program Files (x86)\Microsoft Visual Studio\2019\Community\VC\Tools\MSVC\14.28.29333\include\xmemory
; File C:\Program Files (x86)\Microsoft Visual Studio\2019\Community\VC\Tools\MSVC\14.28.29333\include\xstring
;	COMDAT ??1?$basic_string@DU?$char_traits@D@std@@V?$allocator@D@2@@std@@QAE@XZ
_TEXT	SEGMENT
??1?$basic_string@DU?$char_traits@D@std@@V?$allocator@D@2@@std@@QAE@XZ PROC ; std::basic_string<char,std::char_traits<char>,std::allocator<char> >::~basic_string<char,std::char_traits<char>,std::allocator<char> >, COMDAT
; _this$ = ecx

; 2800 :     ~basic_string() noexcept {

  00000	56		 push	 esi
  00001	8b f1		 mov	 esi, ecx

; 2227 :         return _BUF_SIZE <= _Myres;

  00003	8b 46 14	 mov	 eax, DWORD PTR [esi+20]
  00006	83 f8 10	 cmp	 eax, 16			; 00000010H

; 4385 :         if (_Mypair._Myval2._Large_string_engaged()) {

  00009	72 0c		 jb	 SHORT $LN4@basic_stri

; 4386 :             const pointer _Ptr = _Mypair._Myval2._Bx._Ptr;
; 4387 :             auto& _Al          = _Getal();
; 4388 :             _Destroy_in_place(_Mypair._Myval2._Bx._Ptr);
; 4389 :             _Al.deallocate(_Ptr, _Mypair._Myval2._Myres + 1);

  0000b	40		 inc	 eax
; File C:\Program Files (x86)\Microsoft Visual Studio\2019\Community\VC\Tools\MSVC\14.28.29333\include\xmemory

; 810  :         _Deallocate<_New_alignof<_Ty>>(_Ptr, sizeof(_Ty) * _Count);

  0000c	50		 push	 eax
  0000d	ff 36		 push	 DWORD PTR [esi]
  0000f	e8 00 00 00 00	 call	 ??$_Deallocate@$07$0A@@std@@YAXPAXI@Z ; std::_Deallocate<8,0>
  00014	83 c4 08	 add	 esp, 8
$LN4@basic_stri:
; File C:\Program Files (x86)\Microsoft Visual Studio\2019\Community\VC\Tools\MSVC\14.28.29333\include\xstring

; 4392 :         _Mypair._Myval2._Mysize = 0;

  00017	c7 46 10 00 00
	00 00		 mov	 DWORD PTR [esi+16], 0

; 4393 :         _Mypair._Myval2._Myres  = _BUF_SIZE - 1;

  0001e	c7 46 14 0f 00
	00 00		 mov	 DWORD PTR [esi+20], 15	; 0000000fH

; 4394 :         // the _Traits::assign is last so the codegen doesn't think the char write can alias this
; 4395 :         _Traits::assign(_Mypair._Myval2._Bx._Buf[0], _Elem());

  00025	c6 06 00	 mov	 BYTE PTR [esi], 0
  00028	5e		 pop	 esi

; 2801 :         _Tidy_deallocate();
; 2802 : #if _ITERATOR_DEBUG_LEVEL != 0
; 2803 :         auto&& _Alproxy          = _GET_PROXY_ALLOCATOR(_Alty, _Getal());
; 2804 :         const auto _To_delete    = _Mypair._Myval2._Myproxy;
; 2805 :         _Mypair._Myval2._Myproxy = nullptr;
; 2806 :         _Delete_plain_internal(_Alproxy, _To_delete);
; 2807 : #endif // _ITERATOR_DEBUG_LEVEL != 0
; 2808 :     }

  00029	c3		 ret	 0
??1?$basic_string@DU?$char_traits@D@std@@V?$allocator@D@2@@std@@QAE@XZ ENDP ; std::basic_string<char,std::char_traits<char>,std::allocator<char> >::~basic_string<char,std::char_traits<char>,std::allocator<char> >
_TEXT	ENDS
; Function compile flags: /Ogtp
; File C:\Program Files (x86)\Microsoft Visual Studio\2019\Community\VC\Tools\MSVC\14.28.29333\include\xstring
;	COMDAT ?_Xlen_string@std@@YAXXZ
_TEXT	SEGMENT
?_Xlen_string@std@@YAXXZ PROC				; std::_Xlen_string, COMDAT

; 2275 :     _Xlength_error("string too long");

  00000	68 00 00 00 00	 push	 OFFSET ??_C@_0BA@JFNIOLAK@string?5too?5long@
  00005	e8 00 00 00 00	 call	 ?_Xlength_error@std@@YAXPBD@Z ; std::_Xlength_error
$LN3@Xlen_strin:
  0000a	cc		 int	 3
?_Xlen_string@std@@YAXXZ ENDP				; std::_Xlen_string
_TEXT	ENDS
; Function compile flags: /Ogtp
; File C:\Program Files (x86)\Microsoft Visual Studio\2019\Community\VC\Tools\MSVC\14.28.29333\include\exception
;	COMDAT ?_Throw_bad_array_new_length@std@@YAXXZ
_TEXT	SEGMENT
$T1 = -12						; size = 12
?_Throw_bad_array_new_length@std@@YAXXZ PROC		; std::_Throw_bad_array_new_length, COMDAT

; 320  : [[noreturn]] inline void _Throw_bad_array_new_length() {

  00000	55		 push	 ebp
  00001	8b ec		 mov	 ebp, esp
  00003	83 ec 0c	 sub	 esp, 12			; 0000000cH

; 321  :     _THROW(bad_array_new_length{});

  00006	8d 4d f4	 lea	 ecx, DWORD PTR $T1[ebp]
  00009	e8 00 00 00 00	 call	 ??0bad_array_new_length@std@@QAE@XZ ; std::bad_array_new_length::bad_array_new_length
  0000e	68 00 00 00 00	 push	 OFFSET __TI3?AVbad_array_new_length@std@@
  00013	8d 45 f4	 lea	 eax, DWORD PTR $T1[ebp]
  00016	50		 push	 eax
  00017	e8 00 00 00 00	 call	 __CxxThrowException@8
$LN3@Throw_bad_:
  0001c	cc		 int	 3
?_Throw_bad_array_new_length@std@@YAXXZ ENDP		; std::_Throw_bad_array_new_length
_TEXT	ENDS
; Function compile flags: /Ogtp
; File C:\Program Files (x86)\Microsoft Visual Studio\2019\Community\VC\Tools\MSVC\14.28.29333\include\vcruntime_exception.h
;	COMDAT ??_Gbad_array_new_length@std@@UAEPAXI@Z
_TEXT	SEGMENT
___flags$ = 8						; size = 4
??_Gbad_array_new_length@std@@UAEPAXI@Z PROC		; std::bad_array_new_length::`scalar deleting destructor', COMDAT
; _this$ = ecx
  00000	55		 push	 ebp
  00001	8b ec		 mov	 ebp, esp

; 89   :     {

  00003	56		 push	 esi
  00004	8b f1		 mov	 esi, ecx

; 90   :         __std_exception_destroy(&_Data);

  00006	8d 46 04	 lea	 eax, DWORD PTR [esi+4]
  00009	c7 06 00 00 00
	00		 mov	 DWORD PTR [esi], OFFSET ??_7exception@std@@6B@
  0000f	50		 push	 eax
  00010	e8 00 00 00 00	 call	 ___std_exception_destroy
  00015	83 c4 04	 add	 esp, 4
  00018	f6 45 08 01	 test	 BYTE PTR ___flags$[ebp], 1
  0001c	74 0b		 je	 SHORT $LN12@scalar
  0001e	6a 0c		 push	 12			; 0000000cH
  00020	56		 push	 esi
  00021	e8 00 00 00 00	 call	 ??3@YAXPAXI@Z		; operator delete
  00026	83 c4 08	 add	 esp, 8
$LN12@scalar:
  00029	8b c6		 mov	 eax, esi
  0002b	5e		 pop	 esi
  0002c	5d		 pop	 ebp
  0002d	c2 04 00	 ret	 4
??_Gbad_array_new_length@std@@UAEPAXI@Z ENDP		; std::bad_array_new_length::`scalar deleting destructor'
_TEXT	ENDS
; Function compile flags: /Ogtp
; File C:\Program Files (x86)\Microsoft Visual Studio\2019\Community\VC\Tools\MSVC\14.28.29333\include\vcruntime_exception.h
;	COMDAT ??0bad_array_new_length@std@@QAE@ABV01@@Z
_TEXT	SEGMENT
___that$ = 8						; size = 4
??0bad_array_new_length@std@@QAE@ABV01@@Z PROC		; std::bad_array_new_length::bad_array_new_length, COMDAT
; _this$ = ecx
  00000	55		 push	 ebp
  00001	8b ec		 mov	 ebp, esp

; 72   :     {

  00003	56		 push	 esi
  00004	8b f1		 mov	 esi, ecx
  00006	0f 57 c0	 xorps	 xmm0, xmm0

; 71   :         : _Data()

  00009	8d 46 04	 lea	 eax, DWORD PTR [esi+4]

; 73   :         __std_exception_copy(&_Other._Data, &_Data);

  0000c	50		 push	 eax
  0000d	c7 06 00 00 00
	00		 mov	 DWORD PTR [esi], OFFSET ??_7exception@std@@6B@
  00013	66 0f d6 00	 movq	 QWORD PTR [eax], xmm0
  00017	8b 45 08	 mov	 eax, DWORD PTR ___that$[ebp]
  0001a	83 c0 04	 add	 eax, 4
  0001d	50		 push	 eax
  0001e	e8 00 00 00 00	 call	 ___std_exception_copy
  00023	83 c4 08	 add	 esp, 8
  00026	c7 06 00 00 00
	00		 mov	 DWORD PTR [esi], OFFSET ??_7bad_array_new_length@std@@6B@
  0002c	8b c6		 mov	 eax, esi
  0002e	5e		 pop	 esi
  0002f	5d		 pop	 ebp
  00030	c2 04 00	 ret	 4
??0bad_array_new_length@std@@QAE@ABV01@@Z ENDP		; std::bad_array_new_length::bad_array_new_length
_TEXT	ENDS
; Function compile flags: /Ogtp
; File C:\Program Files (x86)\Microsoft Visual Studio\2019\Community\VC\Tools\MSVC\14.28.29333\include\vcruntime_exception.h
;	COMDAT ??1bad_array_new_length@std@@UAE@XZ
_TEXT	SEGMENT
??1bad_array_new_length@std@@UAE@XZ PROC		; std::bad_array_new_length::~bad_array_new_length, COMDAT
; _this$ = ecx

; 90   :         __std_exception_destroy(&_Data);

  00000	8d 41 04	 lea	 eax, DWORD PTR [ecx+4]
  00003	c7 01 00 00 00
	00		 mov	 DWORD PTR [ecx], OFFSET ??_7exception@std@@6B@
  00009	50		 push	 eax
  0000a	e8 00 00 00 00	 call	 ___std_exception_destroy
  0000f	59		 pop	 ecx
  00010	c3		 ret	 0
??1bad_array_new_length@std@@UAE@XZ ENDP		; std::bad_array_new_length::~bad_array_new_length
_TEXT	ENDS
; Function compile flags: /Ogtp
; File C:\Program Files (x86)\Microsoft Visual Studio\2019\Community\VC\Tools\MSVC\14.28.29333\include\vcruntime_exception.h
;	COMDAT ??0bad_array_new_length@std@@QAE@XZ
_TEXT	SEGMENT
??0bad_array_new_length@std@@QAE@XZ PROC		; std::bad_array_new_length::bad_array_new_length, COMDAT
; _this$ = ecx

; 141  :     {

  00000	0f 57 c0	 xorps	 xmm0, xmm0

; 142  :     }

  00003	8b c1		 mov	 eax, ecx

; 65   :         : _Data()

  00005	66 0f d6 41 04	 movq	 QWORD PTR [ecx+4], xmm0

; 66   :     {
; 67   :         _Data._What = _Message;

  0000a	c7 41 04 00 00
	00 00		 mov	 DWORD PTR [ecx+4], OFFSET ??_C@_0BF@KINCDENJ@bad?5array?5new?5length@

; 141  :     {

  00011	c7 01 00 00 00
	00		 mov	 DWORD PTR [ecx], OFFSET ??_7bad_array_new_length@std@@6B@

; 142  :     }

  00017	c3		 ret	 0
??0bad_array_new_length@std@@QAE@XZ ENDP		; std::bad_array_new_length::bad_array_new_length
_TEXT	ENDS
; Function compile flags: /Ogtp
; File C:\Program Files (x86)\Microsoft Visual Studio\2019\Community\VC\Tools\MSVC\14.28.29333\include\vcruntime_exception.h
;	COMDAT ??_Gbad_alloc@std@@UAEPAXI@Z
_TEXT	SEGMENT
___flags$ = 8						; size = 4
??_Gbad_alloc@std@@UAEPAXI@Z PROC			; std::bad_alloc::`scalar deleting destructor', COMDAT
; _this$ = ecx
  00000	55		 push	 ebp
  00001	8b ec		 mov	 ebp, esp

; 89   :     {

  00003	56		 push	 esi
  00004	8b f1		 mov	 esi, ecx

; 90   :         __std_exception_destroy(&_Data);

  00006	8d 46 04	 lea	 eax, DWORD PTR [esi+4]
  00009	c7 06 00 00 00
	00		 mov	 DWORD PTR [esi], OFFSET ??_7exception@std@@6B@
  0000f	50		 push	 eax
  00010	e8 00 00 00 00	 call	 ___std_exception_destroy
  00015	83 c4 04	 add	 esp, 4
  00018	f6 45 08 01	 test	 BYTE PTR ___flags$[ebp], 1
  0001c	74 0b		 je	 SHORT $LN9@scalar
  0001e	6a 0c		 push	 12			; 0000000cH
  00020	56		 push	 esi
  00021	e8 00 00 00 00	 call	 ??3@YAXPAXI@Z		; operator delete
  00026	83 c4 08	 add	 esp, 8
$LN9@scalar:
  00029	8b c6		 mov	 eax, esi
  0002b	5e		 pop	 esi
  0002c	5d		 pop	 ebp
  0002d	c2 04 00	 ret	 4
??_Gbad_alloc@std@@UAEPAXI@Z ENDP			; std::bad_alloc::`scalar deleting destructor'
_TEXT	ENDS
; Function compile flags: /Ogtp
; File C:\Program Files (x86)\Microsoft Visual Studio\2019\Community\VC\Tools\MSVC\14.28.29333\include\vcruntime_exception.h
;	COMDAT ??0bad_alloc@std@@QAE@ABV01@@Z
_TEXT	SEGMENT
___that$ = 8						; size = 4
??0bad_alloc@std@@QAE@ABV01@@Z PROC			; std::bad_alloc::bad_alloc, COMDAT
; _this$ = ecx
  00000	55		 push	 ebp
  00001	8b ec		 mov	 ebp, esp

; 72   :     {

  00003	56		 push	 esi
  00004	8b f1		 mov	 esi, ecx
  00006	0f 57 c0	 xorps	 xmm0, xmm0

; 71   :         : _Data()

  00009	8d 46 04	 lea	 eax, DWORD PTR [esi+4]

; 73   :         __std_exception_copy(&_Other._Data, &_Data);

  0000c	50		 push	 eax
  0000d	c7 06 00 00 00
	00		 mov	 DWORD PTR [esi], OFFSET ??_7exception@std@@6B@
  00013	66 0f d6 00	 movq	 QWORD PTR [eax], xmm0
  00017	8b 45 08	 mov	 eax, DWORD PTR ___that$[ebp]
  0001a	83 c0 04	 add	 eax, 4
  0001d	50		 push	 eax
  0001e	e8 00 00 00 00	 call	 ___std_exception_copy
  00023	83 c4 08	 add	 esp, 8
  00026	c7 06 00 00 00
	00		 mov	 DWORD PTR [esi], OFFSET ??_7bad_alloc@std@@6B@
  0002c	8b c6		 mov	 eax, esi
  0002e	5e		 pop	 esi
  0002f	5d		 pop	 ebp
  00030	c2 04 00	 ret	 4
??0bad_alloc@std@@QAE@ABV01@@Z ENDP			; std::bad_alloc::bad_alloc
_TEXT	ENDS
; Function compile flags: /Ogtp
; File C:\Program Files (x86)\Microsoft Visual Studio\2019\Community\VC\Tools\MSVC\14.28.29333\include\vcruntime_exception.h
;	COMDAT ??_Gexception@std@@UAEPAXI@Z
_TEXT	SEGMENT
___flags$ = 8						; size = 4
??_Gexception@std@@UAEPAXI@Z PROC			; std::exception::`scalar deleting destructor', COMDAT
; _this$ = ecx
  00000	55		 push	 ebp
  00001	8b ec		 mov	 ebp, esp

; 89   :     {

  00003	56		 push	 esi
  00004	8b f1		 mov	 esi, ecx

; 90   :         __std_exception_destroy(&_Data);

  00006	8d 46 04	 lea	 eax, DWORD PTR [esi+4]
  00009	c7 06 00 00 00
	00		 mov	 DWORD PTR [esi], OFFSET ??_7exception@std@@6B@
  0000f	50		 push	 eax
  00010	e8 00 00 00 00	 call	 ___std_exception_destroy
  00015	83 c4 04	 add	 esp, 4
  00018	f6 45 08 01	 test	 BYTE PTR ___flags$[ebp], 1
  0001c	74 0b		 je	 SHORT $LN6@scalar
  0001e	6a 0c		 push	 12			; 0000000cH
  00020	56		 push	 esi
  00021	e8 00 00 00 00	 call	 ??3@YAXPAXI@Z		; operator delete
  00026	83 c4 08	 add	 esp, 8
$LN6@scalar:
  00029	8b c6		 mov	 eax, esi
  0002b	5e		 pop	 esi
  0002c	5d		 pop	 ebp
  0002d	c2 04 00	 ret	 4
??_Gexception@std@@UAEPAXI@Z ENDP			; std::exception::`scalar deleting destructor'
_TEXT	ENDS
; Function compile flags: /Ogtp
; File C:\Program Files (x86)\Microsoft Visual Studio\2019\Community\VC\Tools\MSVC\14.28.29333\include\vcruntime_exception.h
;	COMDAT ?what@exception@std@@UBEPBDXZ
_TEXT	SEGMENT
?what@exception@std@@UBEPBDXZ PROC			; std::exception::what, COMDAT
; _this$ = ecx

; 95   :         return _Data._What ? _Data._What : "Unknown exception";

  00000	8b 49 04	 mov	 ecx, DWORD PTR [ecx+4]
  00003	b8 00 00 00 00	 mov	 eax, OFFSET ??_C@_0BC@EOODALEL@Unknown?5exception@
  00008	85 c9		 test	 ecx, ecx
  0000a	0f 45 c1	 cmovne	 eax, ecx

; 96   :     }

  0000d	c3		 ret	 0
?what@exception@std@@UBEPBDXZ ENDP			; std::exception::what
_TEXT	ENDS
; Function compile flags: /Ogtp
; File C:\Program Files (x86)\Microsoft Visual Studio\2019\Community\VC\Tools\MSVC\14.28.29333\include\vcruntime_exception.h
;	COMDAT ??1exception@std@@UAE@XZ
_TEXT	SEGMENT
??1exception@std@@UAE@XZ PROC				; std::exception::~exception, COMDAT
; _this$ = ecx

; 90   :         __std_exception_destroy(&_Data);

  00000	8d 41 04	 lea	 eax, DWORD PTR [ecx+4]
  00003	c7 01 00 00 00
	00		 mov	 DWORD PTR [ecx], OFFSET ??_7exception@std@@6B@
  00009	50		 push	 eax
  0000a	e8 00 00 00 00	 call	 ___std_exception_destroy
  0000f	59		 pop	 ecx

; 91   :     }

  00010	c3		 ret	 0
??1exception@std@@UAE@XZ ENDP				; std::exception::~exception
_TEXT	ENDS
; Function compile flags: /Ogtp
; File C:\Program Files (x86)\Microsoft Visual Studio\2019\Community\VC\Tools\MSVC\14.28.29333\include\vcruntime_exception.h
;	COMDAT ??0exception@std@@QAE@ABV01@@Z
_TEXT	SEGMENT
__Other$ = 8						; size = 4
??0exception@std@@QAE@ABV01@@Z PROC			; std::exception::exception, COMDAT
; _this$ = ecx

; 72   :     {

  00000	55		 push	 ebp
  00001	8b ec		 mov	 ebp, esp
  00003	56		 push	 esi
  00004	8b f1		 mov	 esi, ecx
  00006	0f 57 c0	 xorps	 xmm0, xmm0
  00009	8d 46 04	 lea	 eax, DWORD PTR [esi+4]

; 73   :         __std_exception_copy(&_Other._Data, &_Data);

  0000c	50		 push	 eax
  0000d	c7 06 00 00 00
	00		 mov	 DWORD PTR [esi], OFFSET ??_7exception@std@@6B@
  00013	66 0f d6 00	 movq	 QWORD PTR [eax], xmm0
  00017	8b 45 08	 mov	 eax, DWORD PTR __Other$[ebp]
  0001a	83 c0 04	 add	 eax, 4
  0001d	50		 push	 eax
  0001e	e8 00 00 00 00	 call	 ___std_exception_copy
  00023	83 c4 08	 add	 esp, 8

; 74   :     }

  00026	8b c6		 mov	 eax, esi
  00028	5e		 pop	 esi
  00029	5d		 pop	 ebp
  0002a	c2 04 00	 ret	 4
??0exception@std@@QAE@ABV01@@Z ENDP			; std::exception::exception
_TEXT	ENDS
; Function compile flags: /Ogtp
; File D:\Metin2 Server Files\mainline\SRC_2014\M2Data\include\d3dx8math.h
;	COMDAT ??0D3DXMATRIX@@QAE@XZ
_TEXT	SEGMENT
??0D3DXMATRIX@@QAE@XZ PROC				; D3DXMATRIX::D3DXMATRIX, COMDAT
; _this$ = ecx

; 177  :     D3DXMATRIX() {};

  00000	8b c1		 mov	 eax, ecx
  00002	c3		 ret	 0
??0D3DXMATRIX@@QAE@XZ ENDP				; D3DXMATRIX::D3DXMATRIX
_TEXT	ENDS
; Function compile flags: /Ogtp
; File D:\Metin2 Server Files\mainline\SRC_2014\Metin2Client\UserInterface\PythonBackground.cpp
;	COMDAT ?__empty_global_delete@@YAXPAXI@Z
_TEXT	SEGMENT
___formal$ = 8						; size = 4
___formal$ = 12						; size = 4
?__empty_global_delete@@YAXPAXI@Z PROC			; __empty_global_delete, COMDAT

  00000	c2 00 00	 ret	 0
?__empty_global_delete@@YAXPAXI@Z ENDP			; __empty_global_delete
_TEXT	ENDS
; Function compile flags: /Ogtp
; File D:\Metin2 Server Files\mainline\SRC_2014\Metin2Client\UserInterface\PythonBackground.cpp
;	COMDAT ?__empty_global_delete@@YAXPAX@Z
_TEXT	SEGMENT
___formal$ = 8						; size = 4
?__empty_global_delete@@YAXPAX@Z PROC			; __empty_global_delete, COMDAT

  00000	c2 00 00	 ret	 0
?__empty_global_delete@@YAXPAX@Z ENDP			; __empty_global_delete
_TEXT	ENDS
; Function compile flags: /Ogtp
;	COMDAT ??_H@YGXPAXIIP6EPAX0@Z@Z
_TEXT	SEGMENT
___t$ = 8						; size = 4
___s$ = 12						; size = 4
___n$ = 16						; size = 4
___f$ = 20						; size = 4
??_H@YGXPAXIIP6EPAX0@Z@Z PROC				; `vector constructor iterator', COMDAT
  00000	55		 push	 ebp
  00001	8b ec		 mov	 ebp, esp
  00003	56		 push	 esi
  00004	8b 75 10	 mov	 esi, DWORD PTR ___n$[ebp]
  00007	85 f6		 test	 esi, esi
  00009	74 16		 je	 SHORT $LN6@vector
  0000b	53		 push	 ebx
  0000c	8b 5d 14	 mov	 ebx, DWORD PTR ___f$[ebp]
  0000f	57		 push	 edi
  00010	8b 7d 08	 mov	 edi, DWORD PTR ___t$[ebp]
$LL2@vector:
  00013	8b cf		 mov	 ecx, edi
  00015	ff d3		 call	 ebx
  00017	03 7d 0c	 add	 edi, DWORD PTR ___s$[ebp]
  0001a	83 ee 01	 sub	 esi, 1
  0001d	75 f4		 jne	 SHORT $LL2@vector
  0001f	5f		 pop	 edi
  00020	5b		 pop	 ebx
$LN6@vector:
  00021	5e		 pop	 esi
  00022	5d		 pop	 ebp
  00023	c2 10 00	 ret	 16			; 00000010H
??_H@YGXPAXIIP6EPAX0@Z@Z ENDP				; `vector constructor iterator'
_TEXT	ENDS
END
