; Listing generated by Microsoft (R) Optimizing Compiler Version 19.28.29335.0 

	TITLE	D:\Metin2 Server Files\mainline\SRC_2014\Metin2Client\UserInterface\PythonApplicationModule.cpp
	.686P
	.XMM
	include listing.inc
	.model	flat

INCLUDELIB LIBCMT
INCLUDELIB OLDNAMES

PUBLIC	??_7?$CDynamicPoolEx@VCGravityDecorator@NEffectUpdateDecorator@@@@6B@ ; CDynamicPoolEx<NEffectUpdateDecorator::CGravityDecorator>::`vftable'
PUBLIC	??_G?$CDynamicPoolEx@VCGravityDecorator@NEffectUpdateDecorator@@@@UAEPAXI@Z ; CDynamicPoolEx<NEffectUpdateDecorator::CGravityDecorator>::`scalar deleting destructor'
PUBLIC	?bVisibleNotice@@3HA				; bVisibleNotice
PUBLIC	?bTestServerFlag@@3HA				; bTestServerFlag
PUBLIC	?TWOHANDED_WEWAPON_ATT_SPEED_DECREASE_VALUE@@3HA ; TWOHANDED_WEWAPON_ATT_SPEED_DECREASE_VALUE
PUBLIC	??_7?$CDynamicPoolEx@VCAirResistanceDecorator@NEffectUpdateDecorator@@@@6B@ ; CDynamicPoolEx<NEffectUpdateDecorator::CAirResistanceDecorator>::`vftable'
PUBLIC	??_G?$CDynamicPoolEx@VCAirResistanceDecorator@NEffectUpdateDecorator@@@@UAEPAXI@Z ; CDynamicPoolEx<NEffectUpdateDecorator::CAirResistanceDecorator>::`scalar deleting destructor'
PUBLIC	??_7?$CDynamicPoolEx@VCTextureAnimationRandomDecorator@NEffectUpdateDecorator@@@@6B@ ; CDynamicPoolEx<NEffectUpdateDecorator::CTextureAnimationRandomDecorator>::`vftable'
PUBLIC	??_G?$CDynamicPoolEx@VCTextureAnimationRandomDecorator@NEffectUpdateDecorator@@@@UAEPAXI@Z ; CDynamicPoolEx<NEffectUpdateDecorator::CTextureAnimationRandomDecorator>::`scalar deleting destructor'
PUBLIC	??_7?$CDynamicPoolEx@VCTextureAnimationCCWDecorator@NEffectUpdateDecorator@@@@6B@ ; CDynamicPoolEx<NEffectUpdateDecorator::CTextureAnimationCCWDecorator>::`vftable'
PUBLIC	??_G?$CDynamicPoolEx@VCTextureAnimationCCWDecorator@NEffectUpdateDecorator@@@@UAEPAXI@Z ; CDynamicPoolEx<NEffectUpdateDecorator::CTextureAnimationCCWDecorator>::`scalar deleting destructor'
PUBLIC	??_7?$CDynamicPoolEx@VCTextureAnimationCWDecorator@NEffectUpdateDecorator@@@@6B@ ; CDynamicPoolEx<NEffectUpdateDecorator::CTextureAnimationCWDecorator>::`vftable'
PUBLIC	??_G?$CDynamicPoolEx@VCTextureAnimationCWDecorator@NEffectUpdateDecorator@@@@UAEPAXI@Z ; CDynamicPoolEx<NEffectUpdateDecorator::CTextureAnimationCWDecorator>::`scalar deleting destructor'
PUBLIC	??_7?$CDynamicPoolEx@VCNullDecorator@NEffectUpdateDecorator@@@@6B@ ; CDynamicPoolEx<NEffectUpdateDecorator::CNullDecorator>::`vftable'
PUBLIC	??_G?$CDynamicPoolEx@VCNullDecorator@NEffectUpdateDecorator@@@@UAEPAXI@Z ; CDynamicPoolEx<NEffectUpdateDecorator::CNullDecorator>::`scalar deleting destructor'
PUBLIC	??_7?$CDynamicPoolEx@VCHeaderDecorator@NEffectUpdateDecorator@@@@6B@ ; CDynamicPoolEx<NEffectUpdateDecorator::CHeaderDecorator>::`vftable'
PUBLIC	??_G?$CDynamicPoolEx@VCHeaderDecorator@NEffectUpdateDecorator@@@@UAEPAXI@Z ; CDynamicPoolEx<NEffectUpdateDecorator::CHeaderDecorator>::`scalar deleting destructor'
PUBLIC	??_R4?$CDynamicPoolEx@VCHeaderDecorator@NEffectUpdateDecorator@@@@6B@ ; CDynamicPoolEx<NEffectUpdateDecorator::CHeaderDecorator>::`RTTI Complete Object Locator'
PUBLIC	??_R0?AV?$CDynamicPoolEx@VCHeaderDecorator@NEffectUpdateDecorator@@@@@8 ; CDynamicPoolEx<NEffectUpdateDecorator::CHeaderDecorator> `RTTI Type Descriptor'
PUBLIC	??_R3?$CDynamicPoolEx@VCHeaderDecorator@NEffectUpdateDecorator@@@@8 ; CDynamicPoolEx<NEffectUpdateDecorator::CHeaderDecorator>::`RTTI Class Hierarchy Descriptor'
PUBLIC	??_R2?$CDynamicPoolEx@VCHeaderDecorator@NEffectUpdateDecorator@@@@8 ; CDynamicPoolEx<NEffectUpdateDecorator::CHeaderDecorator>::`RTTI Base Class Array'
PUBLIC	??_R1A@?0A@EA@?$CDynamicPoolEx@VCHeaderDecorator@NEffectUpdateDecorator@@@@8 ; CDynamicPoolEx<NEffectUpdateDecorator::CHeaderDecorator>::`RTTI Base Class Descriptor at (0,-1,0,64)'
PUBLIC	??_R4?$CDynamicPoolEx@VCNullDecorator@NEffectUpdateDecorator@@@@6B@ ; CDynamicPoolEx<NEffectUpdateDecorator::CNullDecorator>::`RTTI Complete Object Locator'
PUBLIC	??_R0?AV?$CDynamicPoolEx@VCNullDecorator@NEffectUpdateDecorator@@@@@8 ; CDynamicPoolEx<NEffectUpdateDecorator::CNullDecorator> `RTTI Type Descriptor'
PUBLIC	??_R3?$CDynamicPoolEx@VCNullDecorator@NEffectUpdateDecorator@@@@8 ; CDynamicPoolEx<NEffectUpdateDecorator::CNullDecorator>::`RTTI Class Hierarchy Descriptor'
PUBLIC	??_R2?$CDynamicPoolEx@VCNullDecorator@NEffectUpdateDecorator@@@@8 ; CDynamicPoolEx<NEffectUpdateDecorator::CNullDecorator>::`RTTI Base Class Array'
PUBLIC	??_R1A@?0A@EA@?$CDynamicPoolEx@VCNullDecorator@NEffectUpdateDecorator@@@@8 ; CDynamicPoolEx<NEffectUpdateDecorator::CNullDecorator>::`RTTI Base Class Descriptor at (0,-1,0,64)'
PUBLIC	??_R4?$CDynamicPoolEx@VCTextureAnimationCWDecorator@NEffectUpdateDecorator@@@@6B@ ; CDynamicPoolEx<NEffectUpdateDecorator::CTextureAnimationCWDecorator>::`RTTI Complete Object Locator'
PUBLIC	??_R0?AV?$CDynamicPoolEx@VCTextureAnimationCWDecorator@NEffectUpdateDecorator@@@@@8 ; CDynamicPoolEx<NEffectUpdateDecorator::CTextureAnimationCWDecorator> `RTTI Type Descriptor'
PUBLIC	??_R3?$CDynamicPoolEx@VCTextureAnimationCWDecorator@NEffectUpdateDecorator@@@@8 ; CDynamicPoolEx<NEffectUpdateDecorator::CTextureAnimationCWDecorator>::`RTTI Class Hierarchy Descriptor'
PUBLIC	??_R2?$CDynamicPoolEx@VCTextureAnimationCWDecorator@NEffectUpdateDecorator@@@@8 ; CDynamicPoolEx<NEffectUpdateDecorator::CTextureAnimationCWDecorator>::`RTTI Base Class Array'
PUBLIC	??_R1A@?0A@EA@?$CDynamicPoolEx@VCTextureAnimationCWDecorator@NEffectUpdateDecorator@@@@8 ; CDynamicPoolEx<NEffectUpdateDecorator::CTextureAnimationCWDecorator>::`RTTI Base Class Descriptor at (0,-1,0,64)'
PUBLIC	??_R4?$CDynamicPoolEx@VCTextureAnimationCCWDecorator@NEffectUpdateDecorator@@@@6B@ ; CDynamicPoolEx<NEffectUpdateDecorator::CTextureAnimationCCWDecorator>::`RTTI Complete Object Locator'
PUBLIC	??_R0?AV?$CDynamicPoolEx@VCTextureAnimationCCWDecorator@NEffectUpdateDecorator@@@@@8 ; CDynamicPoolEx<NEffectUpdateDecorator::CTextureAnimationCCWDecorator> `RTTI Type Descriptor'
PUBLIC	??_R3?$CDynamicPoolEx@VCTextureAnimationCCWDecorator@NEffectUpdateDecorator@@@@8 ; CDynamicPoolEx<NEffectUpdateDecorator::CTextureAnimationCCWDecorator>::`RTTI Class Hierarchy Descriptor'
PUBLIC	??_R2?$CDynamicPoolEx@VCTextureAnimationCCWDecorator@NEffectUpdateDecorator@@@@8 ; CDynamicPoolEx<NEffectUpdateDecorator::CTextureAnimationCCWDecorator>::`RTTI Base Class Array'
PUBLIC	??_R1A@?0A@EA@?$CDynamicPoolEx@VCTextureAnimationCCWDecorator@NEffectUpdateDecorator@@@@8 ; CDynamicPoolEx<NEffectUpdateDecorator::CTextureAnimationCCWDecorator>::`RTTI Base Class Descriptor at (0,-1,0,64)'
PUBLIC	??_R4?$CDynamicPoolEx@VCTextureAnimationRandomDecorator@NEffectUpdateDecorator@@@@6B@ ; CDynamicPoolEx<NEffectUpdateDecorator::CTextureAnimationRandomDecorator>::`RTTI Complete Object Locator'
PUBLIC	??_R0?AV?$CDynamicPoolEx@VCTextureAnimationRandomDecorator@NEffectUpdateDecorator@@@@@8 ; CDynamicPoolEx<NEffectUpdateDecorator::CTextureAnimationRandomDecorator> `RTTI Type Descriptor'
PUBLIC	??_R3?$CDynamicPoolEx@VCTextureAnimationRandomDecorator@NEffectUpdateDecorator@@@@8 ; CDynamicPoolEx<NEffectUpdateDecorator::CTextureAnimationRandomDecorator>::`RTTI Class Hierarchy Descriptor'
PUBLIC	??_R2?$CDynamicPoolEx@VCTextureAnimationRandomDecorator@NEffectUpdateDecorator@@@@8 ; CDynamicPoolEx<NEffectUpdateDecorator::CTextureAnimationRandomDecorator>::`RTTI Base Class Array'
PUBLIC	??_R1A@?0A@EA@?$CDynamicPoolEx@VCTextureAnimationRandomDecorator@NEffectUpdateDecorator@@@@8 ; CDynamicPoolEx<NEffectUpdateDecorator::CTextureAnimationRandomDecorator>::`RTTI Base Class Descriptor at (0,-1,0,64)'
PUBLIC	??_R4?$CDynamicPoolEx@VCAirResistanceDecorator@NEffectUpdateDecorator@@@@6B@ ; CDynamicPoolEx<NEffectUpdateDecorator::CAirResistanceDecorator>::`RTTI Complete Object Locator'
PUBLIC	??_R0?AV?$CDynamicPoolEx@VCAirResistanceDecorator@NEffectUpdateDecorator@@@@@8 ; CDynamicPoolEx<NEffectUpdateDecorator::CAirResistanceDecorator> `RTTI Type Descriptor'
PUBLIC	??_R3?$CDynamicPoolEx@VCAirResistanceDecorator@NEffectUpdateDecorator@@@@8 ; CDynamicPoolEx<NEffectUpdateDecorator::CAirResistanceDecorator>::`RTTI Class Hierarchy Descriptor'
PUBLIC	??_R2?$CDynamicPoolEx@VCAirResistanceDecorator@NEffectUpdateDecorator@@@@8 ; CDynamicPoolEx<NEffectUpdateDecorator::CAirResistanceDecorator>::`RTTI Base Class Array'
PUBLIC	??_R1A@?0A@EA@?$CDynamicPoolEx@VCAirResistanceDecorator@NEffectUpdateDecorator@@@@8 ; CDynamicPoolEx<NEffectUpdateDecorator::CAirResistanceDecorator>::`RTTI Base Class Descriptor at (0,-1,0,64)'
PUBLIC	??_R4?$CDynamicPoolEx@VCGravityDecorator@NEffectUpdateDecorator@@@@6B@ ; CDynamicPoolEx<NEffectUpdateDecorator::CGravityDecorator>::`RTTI Complete Object Locator'
PUBLIC	??_R0?AV?$CDynamicPoolEx@VCGravityDecorator@NEffectUpdateDecorator@@@@@8 ; CDynamicPoolEx<NEffectUpdateDecorator::CGravityDecorator> `RTTI Type Descriptor'
PUBLIC	??_R3?$CDynamicPoolEx@VCGravityDecorator@NEffectUpdateDecorator@@@@8 ; CDynamicPoolEx<NEffectUpdateDecorator::CGravityDecorator>::`RTTI Class Hierarchy Descriptor'
PUBLIC	??_R2?$CDynamicPoolEx@VCGravityDecorator@NEffectUpdateDecorator@@@@8 ; CDynamicPoolEx<NEffectUpdateDecorator::CGravityDecorator>::`RTTI Base Class Array'
PUBLIC	??_R1A@?0A@EA@?$CDynamicPoolEx@VCGravityDecorator@NEffectUpdateDecorator@@@@8 ; CDynamicPoolEx<NEffectUpdateDecorator::CGravityDecorator>::`RTTI Base Class Descriptor at (0,-1,0,64)'
PUBLIC	??_R4?$CDynamicPoolEx@VCRotationDecorator@NEffectUpdateDecorator@@@@6B@ ; CDynamicPoolEx<NEffectUpdateDecorator::CRotationDecorator>::`RTTI Complete Object Locator'
PUBLIC	??_R0?AV?$CDynamicPoolEx@VCRotationDecorator@NEffectUpdateDecorator@@@@@8 ; CDynamicPoolEx<NEffectUpdateDecorator::CRotationDecorator> `RTTI Type Descriptor'
PUBLIC	??_R3?$CDynamicPoolEx@VCRotationDecorator@NEffectUpdateDecorator@@@@8 ; CDynamicPoolEx<NEffectUpdateDecorator::CRotationDecorator>::`RTTI Class Hierarchy Descriptor'
PUBLIC	??_R2?$CDynamicPoolEx@VCRotationDecorator@NEffectUpdateDecorator@@@@8 ; CDynamicPoolEx<NEffectUpdateDecorator::CRotationDecorator>::`RTTI Base Class Array'
PUBLIC	??_R1A@?0A@EA@?$CDynamicPoolEx@VCRotationDecorator@NEffectUpdateDecorator@@@@8 ; CDynamicPoolEx<NEffectUpdateDecorator::CRotationDecorator>::`RTTI Base Class Descriptor at (0,-1,0,64)'
PUBLIC	??_7?$CDynamicPoolEx@VCRotationDecorator@NEffectUpdateDecorator@@@@6B@ ; CDynamicPoolEx<NEffectUpdateDecorator::CRotationDecorator>::`vftable'
PUBLIC	??_G?$CDynamicPoolEx@VCRotationDecorator@NEffectUpdateDecorator@@@@UAEPAXI@Z ; CDynamicPoolEx<NEffectUpdateDecorator::CRotationDecorator>::`scalar deleting destructor'
EXTRN	??_E?$CDynamicPoolEx@VCGravityDecorator@NEffectUpdateDecorator@@@@UAEPAXI@Z:PROC ; CDynamicPoolEx<NEffectUpdateDecorator::CGravityDecorator>::`vector deleting destructor'
EXTRN	??_E?$CDynamicPoolEx@VCAirResistanceDecorator@NEffectUpdateDecorator@@@@UAEPAXI@Z:PROC ; CDynamicPoolEx<NEffectUpdateDecorator::CAirResistanceDecorator>::`vector deleting destructor'
EXTRN	??_E?$CDynamicPoolEx@VCTextureAnimationRandomDecorator@NEffectUpdateDecorator@@@@UAEPAXI@Z:PROC ; CDynamicPoolEx<NEffectUpdateDecorator::CTextureAnimationRandomDecorator>::`vector deleting destructor'
EXTRN	??_E?$CDynamicPoolEx@VCTextureAnimationCCWDecorator@NEffectUpdateDecorator@@@@UAEPAXI@Z:PROC ; CDynamicPoolEx<NEffectUpdateDecorator::CTextureAnimationCCWDecorator>::`vector deleting destructor'
EXTRN	??_E?$CDynamicPoolEx@VCTextureAnimationCWDecorator@NEffectUpdateDecorator@@@@UAEPAXI@Z:PROC ; CDynamicPoolEx<NEffectUpdateDecorator::CTextureAnimationCWDecorator>::`vector deleting destructor'
EXTRN	??_E?$CDynamicPoolEx@VCNullDecorator@NEffectUpdateDecorator@@@@UAEPAXI@Z:PROC ; CDynamicPoolEx<NEffectUpdateDecorator::CNullDecorator>::`vector deleting destructor'
EXTRN	??_E?$CDynamicPoolEx@VCHeaderDecorator@NEffectUpdateDecorator@@@@UAEPAXI@Z:PROC ; CDynamicPoolEx<NEffectUpdateDecorator::CHeaderDecorator>::`vector deleting destructor'
EXTRN	??_7type_info@@6B@:QWORD			; type_info::`vftable'
EXTRN	??_E?$CDynamicPoolEx@VCRotationDecorator@NEffectUpdateDecorator@@@@UAEPAXI@Z:PROC ; CDynamicPoolEx<NEffectUpdateDecorator::CRotationDecorator>::`vector deleting destructor'
_BSS	SEGMENT
?bTestServerFlag@@3HA DD 01H DUP (?)			; bTestServerFlag
?TWOHANDED_WEWAPON_ATT_SPEED_DECREASE_VALUE@@3HA DD 01H DUP (?) ; TWOHANDED_WEWAPON_ATT_SPEED_DECREASE_VALUE
_BSS	ENDS
;	COMDAT ??_7?$CDynamicPoolEx@VCRotationDecorator@NEffectUpdateDecorator@@@@6B@
CONST	SEGMENT
??_7?$CDynamicPoolEx@VCRotationDecorator@NEffectUpdateDecorator@@@@6B@ DD FLAT:??_R4?$CDynamicPoolEx@VCRotationDecorator@NEffectUpdateDecorator@@@@6B@ ; CDynamicPoolEx<NEffectUpdateDecorator::CRotationDecorator>::`vftable'
	DD	FLAT:??_E?$CDynamicPoolEx@VCRotationDecorator@NEffectUpdateDecorator@@@@UAEPAXI@Z
CONST	ENDS
;	COMDAT ??_R1A@?0A@EA@?$CDynamicPoolEx@VCRotationDecorator@NEffectUpdateDecorator@@@@8
rdata$r	SEGMENT
??_R1A@?0A@EA@?$CDynamicPoolEx@VCRotationDecorator@NEffectUpdateDecorator@@@@8 DD FLAT:??_R0?AV?$CDynamicPoolEx@VCRotationDecorator@NEffectUpdateDecorator@@@@@8 ; CDynamicPoolEx<NEffectUpdateDecorator::CRotationDecorator>::`RTTI Base Class Descriptor at (0,-1,0,64)'
	DD	00H
	DD	00H
	DD	0ffffffffH
	DD	00H
	DD	040H
	DD	FLAT:??_R3?$CDynamicPoolEx@VCRotationDecorator@NEffectUpdateDecorator@@@@8
rdata$r	ENDS
;	COMDAT ??_R2?$CDynamicPoolEx@VCRotationDecorator@NEffectUpdateDecorator@@@@8
rdata$r	SEGMENT
??_R2?$CDynamicPoolEx@VCRotationDecorator@NEffectUpdateDecorator@@@@8 DD FLAT:??_R1A@?0A@EA@?$CDynamicPoolEx@VCRotationDecorator@NEffectUpdateDecorator@@@@8 ; CDynamicPoolEx<NEffectUpdateDecorator::CRotationDecorator>::`RTTI Base Class Array'
rdata$r	ENDS
;	COMDAT ??_R3?$CDynamicPoolEx@VCRotationDecorator@NEffectUpdateDecorator@@@@8
rdata$r	SEGMENT
??_R3?$CDynamicPoolEx@VCRotationDecorator@NEffectUpdateDecorator@@@@8 DD 00H ; CDynamicPoolEx<NEffectUpdateDecorator::CRotationDecorator>::`RTTI Class Hierarchy Descriptor'
	DD	00H
	DD	01H
	DD	FLAT:??_R2?$CDynamicPoolEx@VCRotationDecorator@NEffectUpdateDecorator@@@@8
rdata$r	ENDS
;	COMDAT ??_R0?AV?$CDynamicPoolEx@VCRotationDecorator@NEffectUpdateDecorator@@@@@8
data$rs	SEGMENT
??_R0?AV?$CDynamicPoolEx@VCRotationDecorator@NEffectUpdateDecorator@@@@@8 DD FLAT:??_7type_info@@6B@ ; CDynamicPoolEx<NEffectUpdateDecorator::CRotationDecorator> `RTTI Type Descriptor'
	DD	00H
	DB	'.?AV?$CDynamicPoolEx@VCRotationDecorator@NEffectUpdateDe'
	DB	'corator@@@@', 00H
data$rs	ENDS
;	COMDAT ??_R4?$CDynamicPoolEx@VCRotationDecorator@NEffectUpdateDecorator@@@@6B@
rdata$r	SEGMENT
??_R4?$CDynamicPoolEx@VCRotationDecorator@NEffectUpdateDecorator@@@@6B@ DD 00H ; CDynamicPoolEx<NEffectUpdateDecorator::CRotationDecorator>::`RTTI Complete Object Locator'
	DD	00H
	DD	00H
	DD	FLAT:??_R0?AV?$CDynamicPoolEx@VCRotationDecorator@NEffectUpdateDecorator@@@@@8
	DD	FLAT:??_R3?$CDynamicPoolEx@VCRotationDecorator@NEffectUpdateDecorator@@@@8
rdata$r	ENDS
;	COMDAT ??_R1A@?0A@EA@?$CDynamicPoolEx@VCGravityDecorator@NEffectUpdateDecorator@@@@8
rdata$r	SEGMENT
??_R1A@?0A@EA@?$CDynamicPoolEx@VCGravityDecorator@NEffectUpdateDecorator@@@@8 DD FLAT:??_R0?AV?$CDynamicPoolEx@VCGravityDecorator@NEffectUpdateDecorator@@@@@8 ; CDynamicPoolEx<NEffectUpdateDecorator::CGravityDecorator>::`RTTI Base Class Descriptor at (0,-1,0,64)'
	DD	00H
	DD	00H
	DD	0ffffffffH
	DD	00H
	DD	040H
	DD	FLAT:??_R3?$CDynamicPoolEx@VCGravityDecorator@NEffectUpdateDecorator@@@@8
rdata$r	ENDS
;	COMDAT ??_R2?$CDynamicPoolEx@VCGravityDecorator@NEffectUpdateDecorator@@@@8
rdata$r	SEGMENT
??_R2?$CDynamicPoolEx@VCGravityDecorator@NEffectUpdateDecorator@@@@8 DD FLAT:??_R1A@?0A@EA@?$CDynamicPoolEx@VCGravityDecorator@NEffectUpdateDecorator@@@@8 ; CDynamicPoolEx<NEffectUpdateDecorator::CGravityDecorator>::`RTTI Base Class Array'
rdata$r	ENDS
;	COMDAT ??_R3?$CDynamicPoolEx@VCGravityDecorator@NEffectUpdateDecorator@@@@8
rdata$r	SEGMENT
??_R3?$CDynamicPoolEx@VCGravityDecorator@NEffectUpdateDecorator@@@@8 DD 00H ; CDynamicPoolEx<NEffectUpdateDecorator::CGravityDecorator>::`RTTI Class Hierarchy Descriptor'
	DD	00H
	DD	01H
	DD	FLAT:??_R2?$CDynamicPoolEx@VCGravityDecorator@NEffectUpdateDecorator@@@@8
rdata$r	ENDS
;	COMDAT ??_R0?AV?$CDynamicPoolEx@VCGravityDecorator@NEffectUpdateDecorator@@@@@8
data$rs	SEGMENT
??_R0?AV?$CDynamicPoolEx@VCGravityDecorator@NEffectUpdateDecorator@@@@@8 DD FLAT:??_7type_info@@6B@ ; CDynamicPoolEx<NEffectUpdateDecorator::CGravityDecorator> `RTTI Type Descriptor'
	DD	00H
	DB	'.?AV?$CDynamicPoolEx@VCGravityDecorator@NEffectUpdateDec'
	DB	'orator@@@@', 00H
data$rs	ENDS
;	COMDAT ??_R4?$CDynamicPoolEx@VCGravityDecorator@NEffectUpdateDecorator@@@@6B@
rdata$r	SEGMENT
??_R4?$CDynamicPoolEx@VCGravityDecorator@NEffectUpdateDecorator@@@@6B@ DD 00H ; CDynamicPoolEx<NEffectUpdateDecorator::CGravityDecorator>::`RTTI Complete Object Locator'
	DD	00H
	DD	00H
	DD	FLAT:??_R0?AV?$CDynamicPoolEx@VCGravityDecorator@NEffectUpdateDecorator@@@@@8
	DD	FLAT:??_R3?$CDynamicPoolEx@VCGravityDecorator@NEffectUpdateDecorator@@@@8
rdata$r	ENDS
;	COMDAT ??_R1A@?0A@EA@?$CDynamicPoolEx@VCAirResistanceDecorator@NEffectUpdateDecorator@@@@8
rdata$r	SEGMENT
??_R1A@?0A@EA@?$CDynamicPoolEx@VCAirResistanceDecorator@NEffectUpdateDecorator@@@@8 DD FLAT:??_R0?AV?$CDynamicPoolEx@VCAirResistanceDecorator@NEffectUpdateDecorator@@@@@8 ; CDynamicPoolEx<NEffectUpdateDecorator::CAirResistanceDecorator>::`RTTI Base Class Descriptor at (0,-1,0,64)'
	DD	00H
	DD	00H
	DD	0ffffffffH
	DD	00H
	DD	040H
	DD	FLAT:??_R3?$CDynamicPoolEx@VCAirResistanceDecorator@NEffectUpdateDecorator@@@@8
rdata$r	ENDS
;	COMDAT ??_R2?$CDynamicPoolEx@VCAirResistanceDecorator@NEffectUpdateDecorator@@@@8
rdata$r	SEGMENT
??_R2?$CDynamicPoolEx@VCAirResistanceDecorator@NEffectUpdateDecorator@@@@8 DD FLAT:??_R1A@?0A@EA@?$CDynamicPoolEx@VCAirResistanceDecorator@NEffectUpdateDecorator@@@@8 ; CDynamicPoolEx<NEffectUpdateDecorator::CAirResistanceDecorator>::`RTTI Base Class Array'
rdata$r	ENDS
;	COMDAT ??_R3?$CDynamicPoolEx@VCAirResistanceDecorator@NEffectUpdateDecorator@@@@8
rdata$r	SEGMENT
??_R3?$CDynamicPoolEx@VCAirResistanceDecorator@NEffectUpdateDecorator@@@@8 DD 00H ; CDynamicPoolEx<NEffectUpdateDecorator::CAirResistanceDecorator>::`RTTI Class Hierarchy Descriptor'
	DD	00H
	DD	01H
	DD	FLAT:??_R2?$CDynamicPoolEx@VCAirResistanceDecorator@NEffectUpdateDecorator@@@@8
rdata$r	ENDS
;	COMDAT ??_R0?AV?$CDynamicPoolEx@VCAirResistanceDecorator@NEffectUpdateDecorator@@@@@8
data$rs	SEGMENT
??_R0?AV?$CDynamicPoolEx@VCAirResistanceDecorator@NEffectUpdateDecorator@@@@@8 DD FLAT:??_7type_info@@6B@ ; CDynamicPoolEx<NEffectUpdateDecorator::CAirResistanceDecorator> `RTTI Type Descriptor'
	DD	00H
	DB	'.?AV?$CDynamicPoolEx@VCAirResistanceDecorator@NEffectUpd'
	DB	'ateDecorator@@@@', 00H
data$rs	ENDS
;	COMDAT ??_R4?$CDynamicPoolEx@VCAirResistanceDecorator@NEffectUpdateDecorator@@@@6B@
rdata$r	SEGMENT
??_R4?$CDynamicPoolEx@VCAirResistanceDecorator@NEffectUpdateDecorator@@@@6B@ DD 00H ; CDynamicPoolEx<NEffectUpdateDecorator::CAirResistanceDecorator>::`RTTI Complete Object Locator'
	DD	00H
	DD	00H
	DD	FLAT:??_R0?AV?$CDynamicPoolEx@VCAirResistanceDecorator@NEffectUpdateDecorator@@@@@8
	DD	FLAT:??_R3?$CDynamicPoolEx@VCAirResistanceDecorator@NEffectUpdateDecorator@@@@8
rdata$r	ENDS
;	COMDAT ??_R1A@?0A@EA@?$CDynamicPoolEx@VCTextureAnimationRandomDecorator@NEffectUpdateDecorator@@@@8
rdata$r	SEGMENT
??_R1A@?0A@EA@?$CDynamicPoolEx@VCTextureAnimationRandomDecorator@NEffectUpdateDecorator@@@@8 DD FLAT:??_R0?AV?$CDynamicPoolEx@VCTextureAnimationRandomDecorator@NEffectUpdateDecorator@@@@@8 ; CDynamicPoolEx<NEffectUpdateDecorator::CTextureAnimationRandomDecorator>::`RTTI Base Class Descriptor at (0,-1,0,64)'
	DD	00H
	DD	00H
	DD	0ffffffffH
	DD	00H
	DD	040H
	DD	FLAT:??_R3?$CDynamicPoolEx@VCTextureAnimationRandomDecorator@NEffectUpdateDecorator@@@@8
rdata$r	ENDS
;	COMDAT ??_R2?$CDynamicPoolEx@VCTextureAnimationRandomDecorator@NEffectUpdateDecorator@@@@8
rdata$r	SEGMENT
??_R2?$CDynamicPoolEx@VCTextureAnimationRandomDecorator@NEffectUpdateDecorator@@@@8 DD FLAT:??_R1A@?0A@EA@?$CDynamicPoolEx@VCTextureAnimationRandomDecorator@NEffectUpdateDecorator@@@@8 ; CDynamicPoolEx<NEffectUpdateDecorator::CTextureAnimationRandomDecorator>::`RTTI Base Class Array'
rdata$r	ENDS
;	COMDAT ??_R3?$CDynamicPoolEx@VCTextureAnimationRandomDecorator@NEffectUpdateDecorator@@@@8
rdata$r	SEGMENT
??_R3?$CDynamicPoolEx@VCTextureAnimationRandomDecorator@NEffectUpdateDecorator@@@@8 DD 00H ; CDynamicPoolEx<NEffectUpdateDecorator::CTextureAnimationRandomDecorator>::`RTTI Class Hierarchy Descriptor'
	DD	00H
	DD	01H
	DD	FLAT:??_R2?$CDynamicPoolEx@VCTextureAnimationRandomDecorator@NEffectUpdateDecorator@@@@8
rdata$r	ENDS
;	COMDAT ??_R0?AV?$CDynamicPoolEx@VCTextureAnimationRandomDecorator@NEffectUpdateDecorator@@@@@8
data$rs	SEGMENT
??_R0?AV?$CDynamicPoolEx@VCTextureAnimationRandomDecorator@NEffectUpdateDecorator@@@@@8 DD FLAT:??_7type_info@@6B@ ; CDynamicPoolEx<NEffectUpdateDecorator::CTextureAnimationRandomDecorator> `RTTI Type Descriptor'
	DD	00H
	DB	'.?AV?$CDynamicPoolEx@VCTextureAnimationRandomDecorator@N'
	DB	'EffectUpdateDecorator@@@@', 00H
data$rs	ENDS
;	COMDAT ??_R4?$CDynamicPoolEx@VCTextureAnimationRandomDecorator@NEffectUpdateDecorator@@@@6B@
rdata$r	SEGMENT
??_R4?$CDynamicPoolEx@VCTextureAnimationRandomDecorator@NEffectUpdateDecorator@@@@6B@ DD 00H ; CDynamicPoolEx<NEffectUpdateDecorator::CTextureAnimationRandomDecorator>::`RTTI Complete Object Locator'
	DD	00H
	DD	00H
	DD	FLAT:??_R0?AV?$CDynamicPoolEx@VCTextureAnimationRandomDecorator@NEffectUpdateDecorator@@@@@8
	DD	FLAT:??_R3?$CDynamicPoolEx@VCTextureAnimationRandomDecorator@NEffectUpdateDecorator@@@@8
rdata$r	ENDS
;	COMDAT ??_R1A@?0A@EA@?$CDynamicPoolEx@VCTextureAnimationCCWDecorator@NEffectUpdateDecorator@@@@8
rdata$r	SEGMENT
??_R1A@?0A@EA@?$CDynamicPoolEx@VCTextureAnimationCCWDecorator@NEffectUpdateDecorator@@@@8 DD FLAT:??_R0?AV?$CDynamicPoolEx@VCTextureAnimationCCWDecorator@NEffectUpdateDecorator@@@@@8 ; CDynamicPoolEx<NEffectUpdateDecorator::CTextureAnimationCCWDecorator>::`RTTI Base Class Descriptor at (0,-1,0,64)'
	DD	00H
	DD	00H
	DD	0ffffffffH
	DD	00H
	DD	040H
	DD	FLAT:??_R3?$CDynamicPoolEx@VCTextureAnimationCCWDecorator@NEffectUpdateDecorator@@@@8
rdata$r	ENDS
;	COMDAT ??_R2?$CDynamicPoolEx@VCTextureAnimationCCWDecorator@NEffectUpdateDecorator@@@@8
rdata$r	SEGMENT
??_R2?$CDynamicPoolEx@VCTextureAnimationCCWDecorator@NEffectUpdateDecorator@@@@8 DD FLAT:??_R1A@?0A@EA@?$CDynamicPoolEx@VCTextureAnimationCCWDecorator@NEffectUpdateDecorator@@@@8 ; CDynamicPoolEx<NEffectUpdateDecorator::CTextureAnimationCCWDecorator>::`RTTI Base Class Array'
rdata$r	ENDS
;	COMDAT ??_R3?$CDynamicPoolEx@VCTextureAnimationCCWDecorator@NEffectUpdateDecorator@@@@8
rdata$r	SEGMENT
??_R3?$CDynamicPoolEx@VCTextureAnimationCCWDecorator@NEffectUpdateDecorator@@@@8 DD 00H ; CDynamicPoolEx<NEffectUpdateDecorator::CTextureAnimationCCWDecorator>::`RTTI Class Hierarchy Descriptor'
	DD	00H
	DD	01H
	DD	FLAT:??_R2?$CDynamicPoolEx@VCTextureAnimationCCWDecorator@NEffectUpdateDecorator@@@@8
rdata$r	ENDS
;	COMDAT ??_R0?AV?$CDynamicPoolEx@VCTextureAnimationCCWDecorator@NEffectUpdateDecorator@@@@@8
data$rs	SEGMENT
??_R0?AV?$CDynamicPoolEx@VCTextureAnimationCCWDecorator@NEffectUpdateDecorator@@@@@8 DD FLAT:??_7type_info@@6B@ ; CDynamicPoolEx<NEffectUpdateDecorator::CTextureAnimationCCWDecorator> `RTTI Type Descriptor'
	DD	00H
	DB	'.?AV?$CDynamicPoolEx@VCTextureAnimationCCWDecorator@NEff'
	DB	'ectUpdateDecorator@@@@', 00H
data$rs	ENDS
;	COMDAT ??_R4?$CDynamicPoolEx@VCTextureAnimationCCWDecorator@NEffectUpdateDecorator@@@@6B@
rdata$r	SEGMENT
??_R4?$CDynamicPoolEx@VCTextureAnimationCCWDecorator@NEffectUpdateDecorator@@@@6B@ DD 00H ; CDynamicPoolEx<NEffectUpdateDecorator::CTextureAnimationCCWDecorator>::`RTTI Complete Object Locator'
	DD	00H
	DD	00H
	DD	FLAT:??_R0?AV?$CDynamicPoolEx@VCTextureAnimationCCWDecorator@NEffectUpdateDecorator@@@@@8
	DD	FLAT:??_R3?$CDynamicPoolEx@VCTextureAnimationCCWDecorator@NEffectUpdateDecorator@@@@8
rdata$r	ENDS
;	COMDAT ??_R1A@?0A@EA@?$CDynamicPoolEx@VCTextureAnimationCWDecorator@NEffectUpdateDecorator@@@@8
rdata$r	SEGMENT
??_R1A@?0A@EA@?$CDynamicPoolEx@VCTextureAnimationCWDecorator@NEffectUpdateDecorator@@@@8 DD FLAT:??_R0?AV?$CDynamicPoolEx@VCTextureAnimationCWDecorator@NEffectUpdateDecorator@@@@@8 ; CDynamicPoolEx<NEffectUpdateDecorator::CTextureAnimationCWDecorator>::`RTTI Base Class Descriptor at (0,-1,0,64)'
	DD	00H
	DD	00H
	DD	0ffffffffH
	DD	00H
	DD	040H
	DD	FLAT:??_R3?$CDynamicPoolEx@VCTextureAnimationCWDecorator@NEffectUpdateDecorator@@@@8
rdata$r	ENDS
;	COMDAT ??_R2?$CDynamicPoolEx@VCTextureAnimationCWDecorator@NEffectUpdateDecorator@@@@8
rdata$r	SEGMENT
??_R2?$CDynamicPoolEx@VCTextureAnimationCWDecorator@NEffectUpdateDecorator@@@@8 DD FLAT:??_R1A@?0A@EA@?$CDynamicPoolEx@VCTextureAnimationCWDecorator@NEffectUpdateDecorator@@@@8 ; CDynamicPoolEx<NEffectUpdateDecorator::CTextureAnimationCWDecorator>::`RTTI Base Class Array'
rdata$r	ENDS
;	COMDAT ??_R3?$CDynamicPoolEx@VCTextureAnimationCWDecorator@NEffectUpdateDecorator@@@@8
rdata$r	SEGMENT
??_R3?$CDynamicPoolEx@VCTextureAnimationCWDecorator@NEffectUpdateDecorator@@@@8 DD 00H ; CDynamicPoolEx<NEffectUpdateDecorator::CTextureAnimationCWDecorator>::`RTTI Class Hierarchy Descriptor'
	DD	00H
	DD	01H
	DD	FLAT:??_R2?$CDynamicPoolEx@VCTextureAnimationCWDecorator@NEffectUpdateDecorator@@@@8
rdata$r	ENDS
;	COMDAT ??_R0?AV?$CDynamicPoolEx@VCTextureAnimationCWDecorator@NEffectUpdateDecorator@@@@@8
data$rs	SEGMENT
??_R0?AV?$CDynamicPoolEx@VCTextureAnimationCWDecorator@NEffectUpdateDecorator@@@@@8 DD FLAT:??_7type_info@@6B@ ; CDynamicPoolEx<NEffectUpdateDecorator::CTextureAnimationCWDecorator> `RTTI Type Descriptor'
	DD	00H
	DB	'.?AV?$CDynamicPoolEx@VCTextureAnimationCWDecorator@NEffe'
	DB	'ctUpdateDecorator@@@@', 00H
data$rs	ENDS
;	COMDAT ??_R4?$CDynamicPoolEx@VCTextureAnimationCWDecorator@NEffectUpdateDecorator@@@@6B@
rdata$r	SEGMENT
??_R4?$CDynamicPoolEx@VCTextureAnimationCWDecorator@NEffectUpdateDecorator@@@@6B@ DD 00H ; CDynamicPoolEx<NEffectUpdateDecorator::CTextureAnimationCWDecorator>::`RTTI Complete Object Locator'
	DD	00H
	DD	00H
	DD	FLAT:??_R0?AV?$CDynamicPoolEx@VCTextureAnimationCWDecorator@NEffectUpdateDecorator@@@@@8
	DD	FLAT:??_R3?$CDynamicPoolEx@VCTextureAnimationCWDecorator@NEffectUpdateDecorator@@@@8
rdata$r	ENDS
;	COMDAT ??_R1A@?0A@EA@?$CDynamicPoolEx@VCNullDecorator@NEffectUpdateDecorator@@@@8
rdata$r	SEGMENT
??_R1A@?0A@EA@?$CDynamicPoolEx@VCNullDecorator@NEffectUpdateDecorator@@@@8 DD FLAT:??_R0?AV?$CDynamicPoolEx@VCNullDecorator@NEffectUpdateDecorator@@@@@8 ; CDynamicPoolEx<NEffectUpdateDecorator::CNullDecorator>::`RTTI Base Class Descriptor at (0,-1,0,64)'
	DD	00H
	DD	00H
	DD	0ffffffffH
	DD	00H
	DD	040H
	DD	FLAT:??_R3?$CDynamicPoolEx@VCNullDecorator@NEffectUpdateDecorator@@@@8
rdata$r	ENDS
;	COMDAT ??_R2?$CDynamicPoolEx@VCNullDecorator@NEffectUpdateDecorator@@@@8
rdata$r	SEGMENT
??_R2?$CDynamicPoolEx@VCNullDecorator@NEffectUpdateDecorator@@@@8 DD FLAT:??_R1A@?0A@EA@?$CDynamicPoolEx@VCNullDecorator@NEffectUpdateDecorator@@@@8 ; CDynamicPoolEx<NEffectUpdateDecorator::CNullDecorator>::`RTTI Base Class Array'
rdata$r	ENDS
;	COMDAT ??_R3?$CDynamicPoolEx@VCNullDecorator@NEffectUpdateDecorator@@@@8
rdata$r	SEGMENT
??_R3?$CDynamicPoolEx@VCNullDecorator@NEffectUpdateDecorator@@@@8 DD 00H ; CDynamicPoolEx<NEffectUpdateDecorator::CNullDecorator>::`RTTI Class Hierarchy Descriptor'
	DD	00H
	DD	01H
	DD	FLAT:??_R2?$CDynamicPoolEx@VCNullDecorator@NEffectUpdateDecorator@@@@8
rdata$r	ENDS
;	COMDAT ??_R0?AV?$CDynamicPoolEx@VCNullDecorator@NEffectUpdateDecorator@@@@@8
data$rs	SEGMENT
??_R0?AV?$CDynamicPoolEx@VCNullDecorator@NEffectUpdateDecorator@@@@@8 DD FLAT:??_7type_info@@6B@ ; CDynamicPoolEx<NEffectUpdateDecorator::CNullDecorator> `RTTI Type Descriptor'
	DD	00H
	DB	'.?AV?$CDynamicPoolEx@VCNullDecorator@NEffectUpdateDecora'
	DB	'tor@@@@', 00H
data$rs	ENDS
;	COMDAT ??_R4?$CDynamicPoolEx@VCNullDecorator@NEffectUpdateDecorator@@@@6B@
rdata$r	SEGMENT
??_R4?$CDynamicPoolEx@VCNullDecorator@NEffectUpdateDecorator@@@@6B@ DD 00H ; CDynamicPoolEx<NEffectUpdateDecorator::CNullDecorator>::`RTTI Complete Object Locator'
	DD	00H
	DD	00H
	DD	FLAT:??_R0?AV?$CDynamicPoolEx@VCNullDecorator@NEffectUpdateDecorator@@@@@8
	DD	FLAT:??_R3?$CDynamicPoolEx@VCNullDecorator@NEffectUpdateDecorator@@@@8
rdata$r	ENDS
;	COMDAT ??_R1A@?0A@EA@?$CDynamicPoolEx@VCHeaderDecorator@NEffectUpdateDecorator@@@@8
rdata$r	SEGMENT
??_R1A@?0A@EA@?$CDynamicPoolEx@VCHeaderDecorator@NEffectUpdateDecorator@@@@8 DD FLAT:??_R0?AV?$CDynamicPoolEx@VCHeaderDecorator@NEffectUpdateDecorator@@@@@8 ; CDynamicPoolEx<NEffectUpdateDecorator::CHeaderDecorator>::`RTTI Base Class Descriptor at (0,-1,0,64)'
	DD	00H
	DD	00H
	DD	0ffffffffH
	DD	00H
	DD	040H
	DD	FLAT:??_R3?$CDynamicPoolEx@VCHeaderDecorator@NEffectUpdateDecorator@@@@8
rdata$r	ENDS
;	COMDAT ??_R2?$CDynamicPoolEx@VCHeaderDecorator@NEffectUpdateDecorator@@@@8
rdata$r	SEGMENT
??_R2?$CDynamicPoolEx@VCHeaderDecorator@NEffectUpdateDecorator@@@@8 DD FLAT:??_R1A@?0A@EA@?$CDynamicPoolEx@VCHeaderDecorator@NEffectUpdateDecorator@@@@8 ; CDynamicPoolEx<NEffectUpdateDecorator::CHeaderDecorator>::`RTTI Base Class Array'
rdata$r	ENDS
;	COMDAT ??_R3?$CDynamicPoolEx@VCHeaderDecorator@NEffectUpdateDecorator@@@@8
rdata$r	SEGMENT
??_R3?$CDynamicPoolEx@VCHeaderDecorator@NEffectUpdateDecorator@@@@8 DD 00H ; CDynamicPoolEx<NEffectUpdateDecorator::CHeaderDecorator>::`RTTI Class Hierarchy Descriptor'
	DD	00H
	DD	01H
	DD	FLAT:??_R2?$CDynamicPoolEx@VCHeaderDecorator@NEffectUpdateDecorator@@@@8
rdata$r	ENDS
;	COMDAT ??_R0?AV?$CDynamicPoolEx@VCHeaderDecorator@NEffectUpdateDecorator@@@@@8
data$rs	SEGMENT
??_R0?AV?$CDynamicPoolEx@VCHeaderDecorator@NEffectUpdateDecorator@@@@@8 DD FLAT:??_7type_info@@6B@ ; CDynamicPoolEx<NEffectUpdateDecorator::CHeaderDecorator> `RTTI Type Descriptor'
	DD	00H
	DB	'.?AV?$CDynamicPoolEx@VCHeaderDecorator@NEffectUpdateDeco'
	DB	'rator@@@@', 00H
data$rs	ENDS
;	COMDAT ??_R4?$CDynamicPoolEx@VCHeaderDecorator@NEffectUpdateDecorator@@@@6B@
rdata$r	SEGMENT
??_R4?$CDynamicPoolEx@VCHeaderDecorator@NEffectUpdateDecorator@@@@6B@ DD 00H ; CDynamicPoolEx<NEffectUpdateDecorator::CHeaderDecorator>::`RTTI Complete Object Locator'
	DD	00H
	DD	00H
	DD	FLAT:??_R0?AV?$CDynamicPoolEx@VCHeaderDecorator@NEffectUpdateDecorator@@@@@8
	DD	FLAT:??_R3?$CDynamicPoolEx@VCHeaderDecorator@NEffectUpdateDecorator@@@@8
rdata$r	ENDS
;	COMDAT ??_7?$CDynamicPoolEx@VCHeaderDecorator@NEffectUpdateDecorator@@@@6B@
CONST	SEGMENT
??_7?$CDynamicPoolEx@VCHeaderDecorator@NEffectUpdateDecorator@@@@6B@ DD FLAT:??_R4?$CDynamicPoolEx@VCHeaderDecorator@NEffectUpdateDecorator@@@@6B@ ; CDynamicPoolEx<NEffectUpdateDecorator::CHeaderDecorator>::`vftable'
	DD	FLAT:??_E?$CDynamicPoolEx@VCHeaderDecorator@NEffectUpdateDecorator@@@@UAEPAXI@Z
CONST	ENDS
;	COMDAT ??_7?$CDynamicPoolEx@VCNullDecorator@NEffectUpdateDecorator@@@@6B@
CONST	SEGMENT
??_7?$CDynamicPoolEx@VCNullDecorator@NEffectUpdateDecorator@@@@6B@ DD FLAT:??_R4?$CDynamicPoolEx@VCNullDecorator@NEffectUpdateDecorator@@@@6B@ ; CDynamicPoolEx<NEffectUpdateDecorator::CNullDecorator>::`vftable'
	DD	FLAT:??_E?$CDynamicPoolEx@VCNullDecorator@NEffectUpdateDecorator@@@@UAEPAXI@Z
CONST	ENDS
;	COMDAT ??_7?$CDynamicPoolEx@VCTextureAnimationCWDecorator@NEffectUpdateDecorator@@@@6B@
CONST	SEGMENT
??_7?$CDynamicPoolEx@VCTextureAnimationCWDecorator@NEffectUpdateDecorator@@@@6B@ DD FLAT:??_R4?$CDynamicPoolEx@VCTextureAnimationCWDecorator@NEffectUpdateDecorator@@@@6B@ ; CDynamicPoolEx<NEffectUpdateDecorator::CTextureAnimationCWDecorator>::`vftable'
	DD	FLAT:??_E?$CDynamicPoolEx@VCTextureAnimationCWDecorator@NEffectUpdateDecorator@@@@UAEPAXI@Z
CONST	ENDS
;	COMDAT ??_7?$CDynamicPoolEx@VCTextureAnimationCCWDecorator@NEffectUpdateDecorator@@@@6B@
CONST	SEGMENT
??_7?$CDynamicPoolEx@VCTextureAnimationCCWDecorator@NEffectUpdateDecorator@@@@6B@ DD FLAT:??_R4?$CDynamicPoolEx@VCTextureAnimationCCWDecorator@NEffectUpdateDecorator@@@@6B@ ; CDynamicPoolEx<NEffectUpdateDecorator::CTextureAnimationCCWDecorator>::`vftable'
	DD	FLAT:??_E?$CDynamicPoolEx@VCTextureAnimationCCWDecorator@NEffectUpdateDecorator@@@@UAEPAXI@Z
CONST	ENDS
;	COMDAT ??_7?$CDynamicPoolEx@VCTextureAnimationRandomDecorator@NEffectUpdateDecorator@@@@6B@
CONST	SEGMENT
??_7?$CDynamicPoolEx@VCTextureAnimationRandomDecorator@NEffectUpdateDecorator@@@@6B@ DD FLAT:??_R4?$CDynamicPoolEx@VCTextureAnimationRandomDecorator@NEffectUpdateDecorator@@@@6B@ ; CDynamicPoolEx<NEffectUpdateDecorator::CTextureAnimationRandomDecorator>::`vftable'
	DD	FLAT:??_E?$CDynamicPoolEx@VCTextureAnimationRandomDecorator@NEffectUpdateDecorator@@@@UAEPAXI@Z
CONST	ENDS
;	COMDAT ??_7?$CDynamicPoolEx@VCAirResistanceDecorator@NEffectUpdateDecorator@@@@6B@
CONST	SEGMENT
??_7?$CDynamicPoolEx@VCAirResistanceDecorator@NEffectUpdateDecorator@@@@6B@ DD FLAT:??_R4?$CDynamicPoolEx@VCAirResistanceDecorator@NEffectUpdateDecorator@@@@6B@ ; CDynamicPoolEx<NEffectUpdateDecorator::CAirResistanceDecorator>::`vftable'
	DD	FLAT:??_E?$CDynamicPoolEx@VCAirResistanceDecorator@NEffectUpdateDecorator@@@@UAEPAXI@Z
CONST	ENDS
_DATA	SEGMENT
?bVisibleNotice@@3HA DD 01H				; bVisibleNotice
_DATA	ENDS
;	COMDAT ??_7?$CDynamicPoolEx@VCGravityDecorator@NEffectUpdateDecorator@@@@6B@
CONST	SEGMENT
??_7?$CDynamicPoolEx@VCGravityDecorator@NEffectUpdateDecorator@@@@6B@ DD FLAT:??_R4?$CDynamicPoolEx@VCGravityDecorator@NEffectUpdateDecorator@@@@6B@ ; CDynamicPoolEx<NEffectUpdateDecorator::CGravityDecorator>::`vftable'
	DD	FLAT:??_E?$CDynamicPoolEx@VCGravityDecorator@NEffectUpdateDecorator@@@@UAEPAXI@Z
CONST	ENDS
PUBLIC	??_H@YGXPAXIIP6EPAX0@Z@Z			; `vector constructor iterator'
PUBLIC	?__empty_global_delete@@YAXPAX@Z		; __empty_global_delete
PUBLIC	?__empty_global_delete@@YAXPAXI@Z		; __empty_global_delete
PUBLIC	??1?$basic_string@DU?$char_traits@D@std@@V?$allocator@D@2@@std@@QAE@XZ ; std::basic_string<char,std::char_traits<char>,std::allocator<char> >::~basic_string<char,std::char_traits<char>,std::allocator<char> >
PUBLIC	?initapp@@YAXXZ					; initapp
PUBLIC	??$_Destroy_in_place@PAD@std@@YAXAAPAD@Z	; std::_Destroy_in_place<char *>
PUBLIC	??$_Deallocate@$07$0A@@std@@YAXPAXI@Z		; std::_Deallocate<8,0>
PUBLIC	?appShowWebPage@@YAPAU_object@@PAU1@0@Z		; appShowWebPage
PUBLIC	?appMoveWebPage@@YAPAU_object@@PAU1@0@Z		; appMoveWebPage
PUBLIC	?appHideWebPage@@YAPAU_object@@PAU1@0@Z		; appHideWebPage
PUBLIC	?appIsWebPageMode@@YAPAU_object@@PAU1@0@Z	; appIsWebPageMode
PUBLIC	?appEnablePerformanceTime@@YAPAU_object@@PAU1@0@Z ; appEnablePerformanceTime
PUBLIC	?appSetTextTailLivingTime@@YAPAU_object@@PAU1@0@Z ; appSetTextTailLivingTime
PUBLIC	?appSetHairColorEnable@@YAPAU_object@@PAU1@0@Z	; appSetHairColorEnable
PUBLIC	?appSetArmorSpecularEnable@@YAPAU_object@@PAU1@0@Z ; appSetArmorSpecularEnable
PUBLIC	?appSetWeaponSpecularEnable@@YAPAU_object@@PAU1@0@Z ; appSetWeaponSpecularEnable
PUBLIC	?appSetSkillEffectUpgradeEnable@@YAPAU_object@@PAU1@0@Z ; appSetSkillEffectUpgradeEnable
PUBLIC	?SetTwoHandedWeaponAttSpeedDecreaseValue@@YAPAU_object@@PAU1@0@Z ; SetTwoHandedWeaponAttSpeedDecreaseValue
PUBLIC	?appSetRideHorseEnable@@YAPAU_object@@PAU1@0@Z	; appSetRideHorseEnable
PUBLIC	?appSetCameraMaxDistance@@YAPAU_object@@PAU1@0@Z ; appSetCameraMaxDistance
PUBLIC	?appSetControlFP@@YAPAU_object@@PAU1@0@Z	; appSetControlFP
PUBLIC	?appSetSpecularSpeed@@YAPAU_object@@PAU1@0@Z	; appSetSpecularSpeed
PUBLIC	?appSetMinFog@@YAPAU_object@@PAU1@0@Z		; appSetMinFog
PUBLIC	?appSetFrameSkip@@YAPAU_object@@PAU1@0@Z	; appSetFrameSkip
PUBLIC	?appForceSetLocale@@YAPAU_object@@PAU1@0@Z	; appForceSetLocale
PUBLIC	?appGetLocaleServiceName@@YAPAU_object@@PAU1@0@Z ; appGetLocaleServiceName
PUBLIC	?appSetCHEONMA@@YAPAU_object@@PAU1@0@Z		; appSetCHEONMA
PUBLIC	?appIsCHEONMA@@YAPAU_object@@PAU1@0@Z		; appIsCHEONMA
PUBLIC	?appLoadLocaleAddr@@YAPAU_object@@PAU1@0@Z	; appLoadLocaleAddr
PUBLIC	?appLoadLocaleData@@YAPAU_object@@PAU1@0@Z	; appLoadLocaleData
PUBLIC	?appGetLocaleName@@YAPAU_object@@PAU1@0@Z	; appGetLocaleName
PUBLIC	?appGetLocalePath@@YAPAU_object@@PAU1@0@Z	; appGetLocalePath
PUBLIC	?appGetDefaultCodePage@@YAPAU_object@@PAU1@0@Z	; appGetDefaultCodePage
PUBLIC	?appGetImageInfo@@YAPAU_object@@PAU1@0@Z	; appGetImageInfo
PUBLIC	?appIsExistFile@@YAPAU_object@@PAU1@0@Z		; appIsExistFile
PUBLIC	?appGetFileList@@YAPAU_object@@PAU1@0@Z		; appGetFileList
PUBLIC	?appUpdateGame@@YAPAU_object@@PAU1@0@Z		; appUpdateGame
PUBLIC	?appRenderGame@@YAPAU_object@@PAU1@0@Z		; appRenderGame
PUBLIC	?appSetMouseHandler@@YAPAU_object@@PAU1@0@Z	; appSetMouseHandler
PUBLIC	?appCreate@@YAPAU_object@@PAU1@0@Z		; appCreate
PUBLIC	?appLoop@@YAPAU_object@@PAU1@0@Z		; appLoop
PUBLIC	?appGetInfo@@YAPAU_object@@PAU1@0@Z		; appGetInfo
PUBLIC	?appProcess@@YAPAU_object@@PAU1@0@Z		; appProcess
PUBLIC	?appAbort@@YAPAU_object@@PAU1@0@Z		; appAbort
PUBLIC	?appExit@@YAPAU_object@@PAU1@0@Z		; appExit
PUBLIC	?appSetCamera@@YAPAU_object@@PAU1@0@Z		; appSetCamera
PUBLIC	?appGetCamera@@YAPAU_object@@PAU1@0@Z		; appGetCamera
PUBLIC	?appGetCameraPitch@@YAPAU_object@@PAU1@0@Z	; appGetCameraPitch
PUBLIC	?appGetCameraRotation@@YAPAU_object@@PAU1@0@Z	; appGetCameraRotation
PUBLIC	?appGetTime@@YAPAU_object@@PAU1@0@Z		; appGetTime
PUBLIC	?appGetGlobalTime@@YAPAU_object@@PAU1@0@Z	; appGetGlobalTime
PUBLIC	?appGetGlobalTimeStamp@@YAPAU_object@@PAU1@0@Z	; appGetGlobalTimeStamp
PUBLIC	?appGetUpdateFPS@@YAPAU_object@@PAU1@0@Z	; appGetUpdateFPS
PUBLIC	?appGetRenderFPS@@YAPAU_object@@PAU1@0@Z	; appGetRenderFPS
PUBLIC	?appRotateCamera@@YAPAU_object@@PAU1@0@Z	; appRotateCamera
PUBLIC	?appPitchCamera@@YAPAU_object@@PAU1@0@Z		; appPitchCamera
PUBLIC	?appZoomCamera@@YAPAU_object@@PAU1@0@Z		; appZoomCamera
PUBLIC	?appMovieRotateCamera@@YAPAU_object@@PAU1@0@Z	; appMovieRotateCamera
PUBLIC	?appMoviePitchCamera@@YAPAU_object@@PAU1@0@Z	; appMoviePitchCamera
PUBLIC	?appMovieZoomCamera@@YAPAU_object@@PAU1@0@Z	; appMovieZoomCamera
PUBLIC	?appMovieResetCamera@@YAPAU_object@@PAU1@0@Z	; appMovieResetCamera
PUBLIC	?appGetFaceSpeed@@YAPAU_object@@PAU1@0@Z	; appGetFaceSpeed
PUBLIC	?appGetRenderTime@@YAPAU_object@@PAU1@0@Z	; appGetRenderTime
PUBLIC	?appGetUpdateTime@@YAPAU_object@@PAU1@0@Z	; appGetUpdateTime
PUBLIC	?appGetLoad@@YAPAU_object@@PAU1@0@Z		; appGetLoad
PUBLIC	?appGetFaceCount@@YAPAU_object@@PAU1@0@Z	; appGetFaceCount
PUBLIC	?appGetAvaiableTextureMememory@@YAPAU_object@@PAU1@0@Z ; appGetAvaiableTextureMememory
PUBLIC	?appSetFPS@@YAPAU_object@@PAU1@0@Z		; appSetFPS
PUBLIC	?appSetGlobalCenterPosition@@YAPAU_object@@PAU1@0@Z ; appSetGlobalCenterPosition
PUBLIC	?appSetCenterPosition@@YAPAU_object@@PAU1@0@Z	; appSetCenterPosition
PUBLIC	?appGetCursorPosition@@YAPAU_object@@PAU1@0@Z	; appGetCursorPosition
PUBLIC	?appRunPythonFile@@YAPAU_object@@PAU1@0@Z	; appRunPythonFile
PUBLIC	?appIsPressed@@YAPAU_object@@PAU1@0@Z		; appIsPressed
PUBLIC	?appSetCursor@@YAPAU_object@@PAU1@0@Z		; appSetCursor
PUBLIC	?appGetCursor@@YAPAU_object@@PAU1@0@Z		; appGetCursor
PUBLIC	?appShowCursor@@YAPAU_object@@PAU1@0@Z		; appShowCursor
PUBLIC	?appHideCursor@@YAPAU_object@@PAU1@0@Z		; appHideCursor
PUBLIC	?appIsShowCursor@@YAPAU_object@@PAU1@0@Z	; appIsShowCursor
PUBLIC	?appIsLiarCursorOn@@YAPAU_object@@PAU1@0@Z	; appIsLiarCursorOn
PUBLIC	?appSetSoftwareCursor@@YAPAU_object@@PAU1@0@Z	; appSetSoftwareCursor
PUBLIC	?appSetHardwareCursor@@YAPAU_object@@PAU1@0@Z	; appSetHardwareCursor
PUBLIC	?appSetConnectData@@YAPAU_object@@PAU1@0@Z	; appSetConnectData
PUBLIC	?appGetConnectData@@YAPAU_object@@PAU1@0@Z	; appGetConnectData
PUBLIC	?appGetRandom@@YAPAU_object@@PAU1@0@Z		; appGetRandom
PUBLIC	?appGetRotatingDirection@@YAPAU_object@@PAU1@0@Z ; appGetRotatingDirection
PUBLIC	?appGetDegreeDifference@@YAPAU_object@@PAU1@0@Z	; appGetDegreeDifference
PUBLIC	?appSleep@@YAPAU_object@@PAU1@0@Z		; appSleep
PUBLIC	?appSetDefaultFontName@@YAPAU_object@@PAU1@0@Z	; appSetDefaultFontName
PUBLIC	?appSetGuildSymbolPath@@YAPAU_object@@PAU1@0@Z	; appSetGuildSymbolPath
PUBLIC	?appEnableSpecialCameraMode@@YAPAU_object@@PAU1@0@Z ; appEnableSpecialCameraMode
PUBLIC	?appSetCameraSpeed@@YAPAU_object@@PAU1@0@Z	; appSetCameraSpeed
PUBLIC	?appIsFileExist@@YAPAU_object@@PAU1@0@Z		; appIsFileExist
PUBLIC	?appSetCameraSetting@@YAPAU_object@@PAU1@0@Z	; appSetCameraSetting
PUBLIC	?appSaveCameraSetting@@YAPAU_object@@PAU1@0@Z	; appSaveCameraSetting
PUBLIC	?appLoadCameraSetting@@YAPAU_object@@PAU1@0@Z	; appLoadCameraSetting
PUBLIC	?appSetDefaultCamera@@YAPAU_object@@PAU1@0@Z	; appSetDefaultCamera
PUBLIC	?appSetSightRange@@YAPAU_object@@PAU1@0@Z	; appSetSightRange
PUBLIC	?apptestGetAccumulationTime@@YAPAU_object@@PAU1@0@Z ; apptestGetAccumulationTime
PUBLIC	?apptestResetAccumulationTime@@YAPAU_object@@PAU1@0@Z ; apptestResetAccumulationTime
PUBLIC	?apptestSetSpecularColor@@YAPAU_object@@PAU1@0@Z ; apptestSetSpecularColor
PUBLIC	?appSetVisibleNotice@@YAPAU_object@@PAU1@0@Z	; appSetVisibleNotice
PUBLIC	?appIsVisibleNotice@@YAPAU_object@@PAU1@0@Z	; appIsVisibleNotice
PUBLIC	?appEnableTestServerFlag@@YAPAU_object@@PAU1@0@Z ; appEnableTestServerFlag
PUBLIC	?appIsEnableTestServerFlag@@YAPAU_object@@PAU1@0@Z ; appIsEnableTestServerFlag
PUBLIC	?appOpenTextFile@@YAPAU_object@@PAU1@0@Z	; appOpenTextFile
PUBLIC	?appCloseTextFile@@YAPAU_object@@PAU1@0@Z	; appCloseTextFile
PUBLIC	?appGetTextFileLineCount@@YAPAU_object@@PAU1@0@Z ; appGetTextFileLineCount
PUBLIC	?appGetTextFileLine@@YAPAU_object@@PAU1@0@Z	; appGetTextFileLine
PUBLIC	?appSetGuildMarkPath@@YAPAU_object@@PAU1@0@Z	; appSetGuildMarkPath
PUBLIC	?appIsDevStage@@YAPAU_object@@PAU1@0@Z		; appIsDevStage
PUBLIC	?appIsTestStage@@YAPAU_object@@PAU1@0@Z		; appIsTestStage
PUBLIC	?appIsLiveStage@@YAPAU_object@@PAU1@0@Z		; appIsLiveStage
PUBLIC	?appLogoOpen@@YAPAU_object@@PAU1@0@Z		; appLogoOpen
PUBLIC	?appLogoUpdate@@YAPAU_object@@PAU1@0@Z		; appLogoUpdate
PUBLIC	?appLogoRender@@YAPAU_object@@PAU1@0@Z		; appLogoRender
PUBLIC	?appLogoClose@@YAPAU_object@@PAU1@0@Z		; appLogoClose
PUBLIC	??1?$CDynamicPoolEx@VCRotationDecorator@NEffectUpdateDecorator@@@@UAE@XZ ; CDynamicPoolEx<NEffectUpdateDecorator::CRotationDecorator>::~CDynamicPoolEx<NEffectUpdateDecorator::CRotationDecorator>
PUBLIC	?Delete@?$CDynamicPoolEx@VCRotationDecorator@NEffectUpdateDecorator@@@@KAXPAVCRotationDecorator@NEffectUpdateDecorator@@@Z ; CDynamicPoolEx<NEffectUpdateDecorator::CRotationDecorator>::Delete
PUBLIC	??1?$CDynamicPoolEx@VCGravityDecorator@NEffectUpdateDecorator@@@@UAE@XZ ; CDynamicPoolEx<NEffectUpdateDecorator::CGravityDecorator>::~CDynamicPoolEx<NEffectUpdateDecorator::CGravityDecorator>
PUBLIC	?Delete@?$CDynamicPoolEx@VCGravityDecorator@NEffectUpdateDecorator@@@@KAXPAVCGravityDecorator@NEffectUpdateDecorator@@@Z ; CDynamicPoolEx<NEffectUpdateDecorator::CGravityDecorator>::Delete
PUBLIC	??1?$CDynamicPoolEx@VCAirResistanceDecorator@NEffectUpdateDecorator@@@@UAE@XZ ; CDynamicPoolEx<NEffectUpdateDecorator::CAirResistanceDecorator>::~CDynamicPoolEx<NEffectUpdateDecorator::CAirResistanceDecorator>
PUBLIC	?Delete@?$CDynamicPoolEx@VCAirResistanceDecorator@NEffectUpdateDecorator@@@@KAXPAVCAirResistanceDecorator@NEffectUpdateDecorator@@@Z ; CDynamicPoolEx<NEffectUpdateDecorator::CAirResistanceDecorator>::Delete
PUBLIC	??1?$CDynamicPoolEx@VCTextureAnimationRandomDecorator@NEffectUpdateDecorator@@@@UAE@XZ ; CDynamicPoolEx<NEffectUpdateDecorator::CTextureAnimationRandomDecorator>::~CDynamicPoolEx<NEffectUpdateDecorator::CTextureAnimationRandomDecorator>
PUBLIC	?Delete@?$CDynamicPoolEx@VCTextureAnimationRandomDecorator@NEffectUpdateDecorator@@@@KAXPAVCTextureAnimationRandomDecorator@NEffectUpdateDecorator@@@Z ; CDynamicPoolEx<NEffectUpdateDecorator::CTextureAnimationRandomDecorator>::Delete
PUBLIC	??1?$CDynamicPoolEx@VCTextureAnimationCCWDecorator@NEffectUpdateDecorator@@@@UAE@XZ ; CDynamicPoolEx<NEffectUpdateDecorator::CTextureAnimationCCWDecorator>::~CDynamicPoolEx<NEffectUpdateDecorator::CTextureAnimationCCWDecorator>
PUBLIC	?Delete@?$CDynamicPoolEx@VCTextureAnimationCCWDecorator@NEffectUpdateDecorator@@@@KAXPAVCTextureAnimationCCWDecorator@NEffectUpdateDecorator@@@Z ; CDynamicPoolEx<NEffectUpdateDecorator::CTextureAnimationCCWDecorator>::Delete
PUBLIC	??1?$CDynamicPoolEx@VCTextureAnimationCWDecorator@NEffectUpdateDecorator@@@@UAE@XZ ; CDynamicPoolEx<NEffectUpdateDecorator::CTextureAnimationCWDecorator>::~CDynamicPoolEx<NEffectUpdateDecorator::CTextureAnimationCWDecorator>
PUBLIC	?Delete@?$CDynamicPoolEx@VCTextureAnimationCWDecorator@NEffectUpdateDecorator@@@@KAXPAVCTextureAnimationCWDecorator@NEffectUpdateDecorator@@@Z ; CDynamicPoolEx<NEffectUpdateDecorator::CTextureAnimationCWDecorator>::Delete
PUBLIC	??1?$CDynamicPoolEx@VCNullDecorator@NEffectUpdateDecorator@@@@UAE@XZ ; CDynamicPoolEx<NEffectUpdateDecorator::CNullDecorator>::~CDynamicPoolEx<NEffectUpdateDecorator::CNullDecorator>
PUBLIC	?Delete@?$CDynamicPoolEx@VCNullDecorator@NEffectUpdateDecorator@@@@KAXPAVCNullDecorator@NEffectUpdateDecorator@@@Z ; CDynamicPoolEx<NEffectUpdateDecorator::CNullDecorator>::Delete
PUBLIC	??1?$CDynamicPoolEx@VCHeaderDecorator@NEffectUpdateDecorator@@@@UAE@XZ ; CDynamicPoolEx<NEffectUpdateDecorator::CHeaderDecorator>::~CDynamicPoolEx<NEffectUpdateDecorator::CHeaderDecorator>
PUBLIC	?Delete@?$CDynamicPoolEx@VCHeaderDecorator@NEffectUpdateDecorator@@@@KAXPAVCHeaderDecorator@NEffectUpdateDecorator@@@Z ; CDynamicPoolEx<NEffectUpdateDecorator::CHeaderDecorator>::Delete
PUBLIC	??$_Destroy_range@V?$allocator@PAVCHeaderDecorator@NEffectUpdateDecorator@@@std@@@std@@YAXPAPAVCHeaderDecorator@NEffectUpdateDecorator@@QAPAV12@AAV?$allocator@PAVCHeaderDecorator@NEffectUpdateDecorator@@@0@@Z ; std::_Destroy_range<std::allocator<NEffectUpdateDecorator::CHeaderDecorator *> >
PUBLIC	??$_Destroy_range@V?$allocator@PAVCNullDecorator@NEffectUpdateDecorator@@@std@@@std@@YAXPAPAVCNullDecorator@NEffectUpdateDecorator@@QAPAV12@AAV?$allocator@PAVCNullDecorator@NEffectUpdateDecorator@@@0@@Z ; std::_Destroy_range<std::allocator<NEffectUpdateDecorator::CNullDecorator *> >
PUBLIC	??$_Destroy_range@V?$allocator@PAVCTextureAnimationCWDecorator@NEffectUpdateDecorator@@@std@@@std@@YAXPAPAVCTextureAnimationCWDecorator@NEffectUpdateDecorator@@QAPAV12@AAV?$allocator@PAVCTextureAnimationCWDecorator@NEffectUpdateDecorator@@@0@@Z ; std::_Destroy_range<std::allocator<NEffectUpdateDecorator::CTextureAnimationCWDecorator *> >
PUBLIC	??$_Destroy_range@V?$allocator@PAVCTextureAnimationCCWDecorator@NEffectUpdateDecorator@@@std@@@std@@YAXPAPAVCTextureAnimationCCWDecorator@NEffectUpdateDecorator@@QAPAV12@AAV?$allocator@PAVCTextureAnimationCCWDecorator@NEffectUpdateDecorator@@@0@@Z ; std::_Destroy_range<std::allocator<NEffectUpdateDecorator::CTextureAnimationCCWDecorator *> >
PUBLIC	??$_Destroy_range@V?$allocator@PAVCTextureAnimationRandomDecorator@NEffectUpdateDecorator@@@std@@@std@@YAXPAPAVCTextureAnimationRandomDecorator@NEffectUpdateDecorator@@QAPAV12@AAV?$allocator@PAVCTextureAnimationRandomDecorator@NEffectUpdateDecorator@@@0@@Z ; std::_Destroy_range<std::allocator<NEffectUpdateDecorator::CTextureAnimationRandomDecorator *> >
PUBLIC	??$_Destroy_range@V?$allocator@PAVCAirResistanceDecorator@NEffectUpdateDecorator@@@std@@@std@@YAXPAPAVCAirResistanceDecorator@NEffectUpdateDecorator@@QAPAV12@AAV?$allocator@PAVCAirResistanceDecorator@NEffectUpdateDecorator@@@0@@Z ; std::_Destroy_range<std::allocator<NEffectUpdateDecorator::CAirResistanceDecorator *> >
PUBLIC	??$_Destroy_range@V?$allocator@PAVCGravityDecorator@NEffectUpdateDecorator@@@std@@@std@@YAXPAPAVCGravityDecorator@NEffectUpdateDecorator@@QAPAV12@AAV?$allocator@PAVCGravityDecorator@NEffectUpdateDecorator@@@0@@Z ; std::_Destroy_range<std::allocator<NEffectUpdateDecorator::CGravityDecorator *> >
PUBLIC	??$_Destroy_range@V?$allocator@PAVCRotationDecorator@NEffectUpdateDecorator@@@std@@@std@@YAXPAPAVCRotationDecorator@NEffectUpdateDecorator@@QAPAV12@AAV?$allocator@PAVCRotationDecorator@NEffectUpdateDecorator@@@0@@Z ; std::_Destroy_range<std::allocator<NEffectUpdateDecorator::CRotationDecorator *> >
PUBLIC	??_C@_00CNPNBAHC@@				; `string'
PUBLIC	?ms_singleton@?$CSingleton@VCPythonLauncher@@@@0PAVCPythonLauncher@@A ; CSingleton<CPythonLauncher>::ms_singleton
PUBLIC	?ms_singleton@?$CSingleton@VCWindowManager@UI@@@@0PAVCWindowManager@UI@@A ; CSingleton<UI::CWindowManager>::ms_singleton
PUBLIC	?ms_kPool@?$CPooledObject@VCHeaderDecorator@NEffectUpdateDecorator@@@@1V?$CDynamicPoolEx@VCHeaderDecorator@NEffectUpdateDecorator@@@@A ; CPooledObject<NEffectUpdateDecorator::CHeaderDecorator>::ms_kPool
PUBLIC	?ms_kPool@?$CPooledObject@VCNullDecorator@NEffectUpdateDecorator@@@@1V?$CDynamicPoolEx@VCNullDecorator@NEffectUpdateDecorator@@@@A ; CPooledObject<NEffectUpdateDecorator::CNullDecorator>::ms_kPool
PUBLIC	?ms_kPool@?$CPooledObject@VCTextureAnimationCWDecorator@NEffectUpdateDecorator@@@@1V?$CDynamicPoolEx@VCTextureAnimationCWDecorator@NEffectUpdateDecorator@@@@A ; CPooledObject<NEffectUpdateDecorator::CTextureAnimationCWDecorator>::ms_kPool
PUBLIC	?ms_kPool@?$CPooledObject@VCTextureAnimationCCWDecorator@NEffectUpdateDecorator@@@@1V?$CDynamicPoolEx@VCTextureAnimationCCWDecorator@NEffectUpdateDecorator@@@@A ; CPooledObject<NEffectUpdateDecorator::CTextureAnimationCCWDecorator>::ms_kPool
PUBLIC	?ms_kPool@?$CPooledObject@VCTextureAnimationRandomDecorator@NEffectUpdateDecorator@@@@1V?$CDynamicPoolEx@VCTextureAnimationRandomDecorator@NEffectUpdateDecorator@@@@A ; CPooledObject<NEffectUpdateDecorator::CTextureAnimationRandomDecorator>::ms_kPool
PUBLIC	?ms_kPool@?$CPooledObject@VCAirResistanceDecorator@NEffectUpdateDecorator@@@@1V?$CDynamicPoolEx@VCAirResistanceDecorator@NEffectUpdateDecorator@@@@A ; CPooledObject<NEffectUpdateDecorator::CAirResistanceDecorator>::ms_kPool
PUBLIC	?ms_kPool@?$CPooledObject@VCGravityDecorator@NEffectUpdateDecorator@@@@1V?$CDynamicPoolEx@VCGravityDecorator@NEffectUpdateDecorator@@@@A ; CPooledObject<NEffectUpdateDecorator::CGravityDecorator>::ms_kPool
PUBLIC	?ms_kPool@?$CPooledObject@VCRotationDecorator@NEffectUpdateDecorator@@@@1V?$CDynamicPoolEx@VCRotationDecorator@NEffectUpdateDecorator@@@@A ; CPooledObject<NEffectUpdateDecorator::CRotationDecorator>::ms_kPool
PUBLIC	?ms_singleton@?$singleton@VCGuildMarkManager@@@@0PAVCGuildMarkManager@@A ; singleton<CGuildMarkManager>::ms_singleton
PUBLIC	?ms_singleton@?$CSingleton@VCMovieMan@@@@0PAVCMovieMan@@A ; CSingleton<CMovieMan>::ms_singleton
PUBLIC	?ms_singleton@?$CSingleton@VCCameraManager@@@@0PAVCCameraManager@@A ; CSingleton<CCameraManager>::ms_singleton
PUBLIC	??_C@_01KBJDNOO@i@				; `string'
PUBLIC	??_C@_0M@OEKALNFB@RENDER_GAME@			; `string'
PUBLIC	??_C@_01LKDEMHDF@s@				; `string'
PUBLIC	??_C@_02JDPG@rb@				; `string'
PUBLIC	??_C@_02OIKAIHIF@s?$CD@				; `string'
PUBLIC	??_C@_03GLKMLICL@iii@				; `string'
PUBLIC	?ms_singleton@?$CSingleton@VCEterPackManager@@@@0PAVCEterPackManager@@A ; CSingleton<CEterPackManager>::ms_singleton
PUBLIC	??_C@_04EOBPFJGD@ffff@				; `string'
PUBLIC	??_C@_01INIBCBCB@f@				; `string'
PUBLIC	??_C@_02PINLEBJB@fi@				; `string'
PUBLIC	??_C@_02PDIHAGKM@ii@				; `string'
PUBLIC	??_C@_0BH@GNAGLJEE@Wrong?5Cursor?5Name?5?$FL?$CFd?$FN@ ; `string'
PUBLIC	??_C@_02OCDGCAAK@si@				; `string'
PUBLIC	??_C@_04JCAPCJAP@?4tga@				; `string'
PUBLIC	??_C@_0L@OAAOKAFA@IsDevStage@			; `string'
PUBLIC	??_C@_0M@ICBDOOOG@IsTestStage@			; `string'
PUBLIC	??_C@_0M@NJBHEFPA@IsLiveStage@			; `string'
PUBLIC	??_C@_0BG@EOCGHNJF@SetTextTailLivingTime@	; `string'
PUBLIC	??_C@_0BG@DEJFIMMP@EnablePerformanceTime@	; `string'
PUBLIC	??_C@_0BD@PILPKKLH@SetHairColorEnable@		; `string'
PUBLIC	??_C@_0BH@PJOFIHBE@SetArmorSpecularEnable@	; `string'
PUBLIC	??_C@_0BI@ONHBEMJA@SetWeaponSpecularEnable@	; `string'
PUBLIC	??_C@_0BM@CMPMDOBN@SetSkillEffectUpgradeEnable@	; `string'
PUBLIC	??_C@_0CI@KEKBEMLJ@SetTwoHandedWeaponAttSpeedDecre@ ; `string'
PUBLIC	??_C@_0BD@CPFDKOFJ@SetRideHorseEnable@		; `string'
PUBLIC	??_C@_0BF@CEAHHILA@SetCameraMaxDistance@	; `string'
PUBLIC	??_C@_09ILNFAENI@SetMinFog@			; `string'
PUBLIC	??_C@_0N@KCIEBLLG@SetFrameSkip@			; `string'
PUBLIC	??_C@_0N@CLLAGICL@GetImageInfo@			; `string'
PUBLIC	??_C@_07NAJNLNAF@GetInfo@			; `string'
PUBLIC	??_C@_0L@HMEHDBP@UpdateGame@			; `string'
PUBLIC	??_C@_0L@ONMMANJD@RenderGame@			; `string'
PUBLIC	??_C@_04KLCPKPBE@Loop@				; `string'
PUBLIC	??_C@_06MIKANEJK@Create@			; `string'
PUBLIC	??_C@_07MNGBFJEN@Process@			; `string'
PUBLIC	??_C@_04LBABLPF@Exit@				; `string'
PUBLIC	??_C@_05BGKIEECB@Abort@				; `string'
PUBLIC	??_C@_0BA@PPCHHCMN@SetMouseHandler@		; `string'
PUBLIC	??_C@_0M@DHIFKLBN@IsExistFile@			; `string'
PUBLIC	??_C@_0M@KODKGGCI@GetFileList@			; `string'
PUBLIC	??_C@_09IADKBAEN@SetCamera@			; `string'
PUBLIC	??_C@_09KOHPDBNP@GetCamera@			; `string'
PUBLIC	??_C@_0P@LHFPHHJA@GetCameraPitch@		; `string'
PUBLIC	??_C@_0BC@JICDJDCH@GetCameraRotation@		; `string'
PUBLIC	??_C@_07CDIANBOE@GetTime@			; `string'
PUBLIC	??_C@_0O@JKNDJHIN@GetGlobalTime@		; `string'
PUBLIC	??_C@_0BD@HGCMJHC@GetGlobalTimeStamp@		; `string'
PUBLIC	??_C@_0N@JKLFODAC@GetUpdateFPS@			; `string'
PUBLIC	??_C@_0N@EHIMFGIG@GetRenderFPS@			; `string'
PUBLIC	??_C@_0N@HGIDFLAJ@RotateCamera@			; `string'
PUBLIC	??_C@_0M@PKAIAJKC@PitchCamera@			; `string'
PUBLIC	??_C@_0L@BGDDIOFP@ZoomCamera@			; `string'
PUBLIC	??_C@_0BC@FCGIGAKD@MovieRotateCamera@		; `string'
PUBLIC	??_C@_0BB@KFJAAFFB@MoviePitchCamera@		; `string'
PUBLIC	??_C@_0BA@ILLHHFGG@MovieZoomCamera@		; `string'
PUBLIC	??_C@_0BB@PJGDEPJO@MovieResetCamera@		; `string'
PUBLIC	??_C@_0BK@PBNANFFG@GetAvailableTextureMemory@	; `string'
PUBLIC	??_C@_0O@KFOAIOPC@GetRenderTime@		; `string'
PUBLIC	??_C@_0O@EPOIPAHO@GetUpdateTime@		; `string'
PUBLIC	??_C@_07EGHKJKFO@GetLoad@			; `string'
PUBLIC	??_C@_0N@KBJEAIDC@GetFaceSpeed@			; `string'
PUBLIC	??_C@_0N@FGHMKANF@GetFaceCount@			; `string'
PUBLIC	??_C@_06GHJACMIL@SetFPS@			; `string'
PUBLIC	??_C@_0BI@BPPNOEKE@SetGlobalCenterPosition@	; `string'
PUBLIC	??_C@_0BC@MCKFCFLJ@SetCenterPosition@		; `string'
PUBLIC	??_C@_0BC@DJJGDMOB@GetCursorPosition@		; `string'
PUBLIC	??_C@_09CIIBMEDP@GetRandom@			; `string'
PUBLIC	??_C@_0O@NFOAEJMI@RunPythonFile@		; `string'
PUBLIC	??_C@_0O@JGKOEJBF@IsWebPageMode@		; `string'
PUBLIC	??_C@_0M@LMDMBNNG@ShowWebPage@			; `string'
PUBLIC	??_C@_0M@CJKDPGGC@MoveWebPage@			; `string'
PUBLIC	??_C@_0M@HKOOBKOE@HideWebPage@			; `string'
PUBLIC	??_C@_09EJGJNKNL@IsPressed@			; `string'
PUBLIC	??_C@_09PKKOCJGB@SetCursor@			; `string'
PUBLIC	??_C@_09NEOLAIPD@GetCursor@			; `string'
PUBLIC	??_C@_0L@BIENLPGM@ShowCursor@			; `string'
PUBLIC	??_C@_0L@MGJDDPFG@HideCursor@			; `string'
PUBLIC	??_C@_0N@BFHCIAEF@IsShowCursor@			; `string'
PUBLIC	??_C@_0P@FMIDHOAE@IsLiarCursorOn@		; `string'
PUBLIC	??_C@_0BC@IDNDDKLI@SetSoftwareCursor@		; `string'
PUBLIC	??_C@_0BC@KKHIHHDJ@SetHardwareCursor@		; `string'
PUBLIC	??_C@_0P@KJLEKPPL@SetConnectData@		; `string'
PUBLIC	??_C@_0P@GHKKFFNH@GetConnectData@		; `string'
PUBLIC	??_C@_0BF@IMHAMDDH@GetRotatingDirection@	; `string'
PUBLIC	??_C@_0BE@JKNPCCAK@GetDegreeDifference@		; `string'
PUBLIC	??_C@_05PFDOMJEF@Sleep@				; `string'
PUBLIC	??_C@_0BD@CKMKHHJC@SetDefaultFontName@		; `string'
PUBLIC	??_C@_0BD@CENDFAOC@SetGuildSymbolPath@		; `string'
PUBLIC	??_C@_0BI@LNMJCGJN@EnableSpecialCameraMode@	; `string'
PUBLIC	??_C@_0P@NCLIAJKF@SetCameraSpeed@		; `string'
PUBLIC	??_C@_0BC@JPDLAHCD@SaveCameraSetting@		; `string'
PUBLIC	??_C@_0BC@KEOGBKMG@LoadCameraSetting@		; `string'
PUBLIC	??_C@_0BB@IPPGJFKO@SetDefaultCamera@		; `string'
PUBLIC	??_C@_0BB@JANPDNEC@SetCameraSetting@		; `string'
PUBLIC	??_C@_0O@MFMELJAK@SetSightRange@		; `string'
PUBLIC	??_C@_0M@LOHDPEAO@IsFileExist@			; `string'
PUBLIC	??_C@_0N@JAMKKFFG@OpenTextFile@			; `string'
PUBLIC	??_C@_0O@LNEGOIPA@CloseTextFile@		; `string'
PUBLIC	??_C@_0BF@BNHHEKFO@GetTextFileLineCount@	; `string'
PUBLIC	??_C@_0BA@HHNFKANE@GetTextFileLine@		; `string'
PUBLIC	??_C@_0BF@PBACFPCP@GetLocaleServiceName@	; `string'
PUBLIC	??_C@_0O@JDECMIPJ@GetLocaleName@		; `string'
PUBLIC	??_C@_0O@OKMLAHKI@GetLocalePath@		; `string'
PUBLIC	??_C@_0P@KMAINBBA@ForceSetLocale@		; `string'
PUBLIC	??_C@_0P@JHGEFJDO@LoadLocaleAddr@		; `string'
PUBLIC	??_C@_0P@BFJDMEJO@LoadLocaleData@		; `string'
PUBLIC	??_C@_0L@FAIOENFF@SetCHEONMA@			; `string'
PUBLIC	??_C@_09INPKBHN@IsCHEONMA@			; `string'
PUBLIC	??_C@_0BD@CEMKCGHA@GetDefaultCodePage@		; `string'
PUBLIC	??_C@_0N@HDAEMEAH@SetControlFP@			; `string'
PUBLIC	??_C@_0BB@IFMAFIHG@SetSpecularSpeed@		; `string'
PUBLIC	??_C@_0BI@DNKBNLNC@testGetAccumulationTime@	; `string'
PUBLIC	??_C@_0BK@PLDHJGMN@testResetAccumulationTime@	; `string'
PUBLIC	??_C@_0BF@KHKICLKO@testSetSpecularColor@	; `string'
PUBLIC	??_C@_0BB@MMPIECKB@SetVisibleNotice@		; `string'
PUBLIC	??_C@_0BA@NLDNPIOL@IsVisibleNotice@		; `string'
PUBLIC	??_C@_0BF@BOMOCGIP@EnableTestServerFlag@	; `string'
PUBLIC	??_C@_0BH@GBDECBIH@IsEnableTestServerFlag@	; `string'
PUBLIC	??_C@_0BB@DLDOCGLL@SetGuildMarkPath@		; `string'
PUBLIC	??_C@_0N@LIPHBNAO@OnLogoUpdate@			; `string'
PUBLIC	??_C@_0N@ELECBFOK@OnLogoRender@			; `string'
PUBLIC	??_C@_0L@JMMGDKPP@OnLogoOpen@			; `string'
PUBLIC	??_C@_0M@JMIFNMOK@OnLogoClose@			; `string'
PUBLIC	??_C@_03CGOPKBCD@app@				; `string'
PUBLIC	??_C@_09OKOJMLAA@INFO_ITEM@			; `string'
PUBLIC	??_C@_0L@FNNFPLHG@INFO_ACTOR@			; `string'
PUBLIC	??_C@_0M@KLBHMBMD@INFO_EFFECT@			; `string'
PUBLIC	??_C@_0O@FAGLOALJ@INFO_TEXTTAIL@		; `string'
PUBLIC	??_C@_0BG@KEIJCHNJ@DEGREE_DIRECTION_SAME@	; `string'
PUBLIC	??_C@_0BH@LNDFJAFE@DEGREE_DIRECTION_RIGHT@	; `string'
PUBLIC	??_C@_0BG@JGNHHMCM@DEGREE_DIRECTION_LEFT@	; `string'
PUBLIC	??_C@_07CJEJDFBD@VK_LEFT@			; `string'
PUBLIC	??_C@_08LOMCDCA@VK_RIGHT@			; `string'
PUBLIC	??_C@_05PIGLHCBF@VK_UP@				; `string'
PUBLIC	??_C@_07NLENKNCK@VK_DOWN@			; `string'
PUBLIC	??_C@_07OMPILPEG@VK_HOME@			; `string'
PUBLIC	??_C@_06LPJBNMHN@VK_END@			; `string'
PUBLIC	??_C@_09EABNPHOI@VK_DELETE@			; `string'
PUBLIC	??_C@_0L@BOHNMBC@DIK_ESCAPE@			; `string'
PUBLIC	??_C@_07CACBFKLO@DIK_ESC@			; `string'
PUBLIC	??_C@_05GCLPJNBN@DIK_1@				; `string'
PUBLIC	??_C@_05EJJCMONO@DIK_2@				; `string'
PUBLIC	??_C@_05FAIJPPJP@DIK_3@				; `string'
PUBLIC	??_C@_05BPMIGJFI@DIK_4@				; `string'
PUBLIC	??_C@_05GNDFIBJ@DIK_5@				; `string'
PUBLIC	??_C@_05CNPOALNK@DIK_6@				; `string'
PUBLIC	??_C@_05DEOFDKJL@DIK_7@				; `string'
PUBLIC	??_C@_05LDHNCGFE@DIK_8@				; `string'
PUBLIC	??_C@_05KKGGBHBF@DIK_9@				; `string'
PUBLIC	??_C@_05HLKEKMFM@DIK_0@				; `string'
PUBLIC	??_C@_09DOHACMKC@DIK_MINUS@			; `string'
PUBLIC	??_C@_0L@KKCLPAPI@DIK_EQUALS@			; `string'
PUBLIC	??_C@_08HHEEGKBL@DIK_BACK@			; `string'
PUBLIC	??_C@_07MODNCMBL@DIK_TAB@			; `string'
PUBLIC	??_C@_05HECPGLK@DIK_Q@				; `string'
PUBLIC	??_C@_05FBBIFBDM@DIK_W@				; `string'
PUBLIC	??_C@_05CJOMCBOP@DIK_E@				; `string'
PUBLIC	??_C@_05CMGPKFHJ@DIK_R@				; `string'
PUBLIC	??_C@_05HKDFACPP@DIK_T@				; `string'
PUBLIC	??_C@_05MPJLHMLC@DIK_Y@				; `string'
PUBLIC	??_C@_05GDCODDLO@DIK_U@				; `string'
PUBLIC	??_C@_05IFFJGOOD@DIK_I@				; `string'
PUBLIC	??_C@_05NDADMJGF@DIK_O@				; `string'
PUBLIC	??_C@_05BOFJMHPL@DIK_P@				; `string'
PUBLIC	??_C@_0N@EFJDLCEF@DIK_LBRACKET@			; `string'
PUBLIC	??_C@_0N@CBJBCLKG@DIK_RBRACKET@			; `string'
PUBLIC	??_C@_0L@JLNKBJCL@DIK_RETURN@			; `string'
PUBLIC	??_C@_0N@ODLLDAI@DIK_LCONTROL@			; `string'
PUBLIC	??_C@_05ENIAOEOL@DIK_A@				; `string'
PUBLIC	??_C@_05DFHEJEDI@DIK_S@				; `string'
PUBLIC	??_C@_05DAPHBAKO@DIK_D@				; `string'
PUBLIC	??_C@_05CMBHCCM@DIK_F@				; `string'
PUBLIC	??_C@_05BLNKEDGN@DIK_G@				; `string'
PUBLIC	??_C@_05JMECFPKC@DIK_H@				; `string'
PUBLIC	??_C@_05KOHEDNCA@DIK_J@				; `string'
PUBLIC	??_C@_05LHGPAMGB@DIK_K@				; `string'
PUBLIC	??_C@_05PICOJKKG@DIK_L@				; `string'
PUBLIC	??_C@_0O@NEECDLLB@DIK_SEMICOLON@		; `string'
PUBLIC	??_C@_0P@JDEKLKAM@DIK_APOSTROPHE@		; `string'
PUBLIC	??_C@_09MOGGLCIP@DIK_GRAVE@			; `string'
PUBLIC	??_C@_0L@GNGJHMON@DIK_LSHIFT@			; `string'
PUBLIC	??_C@_0O@DGKNNOHE@DIK_BACKSLASH@		; `string'
PUBLIC	??_C@_05OELGCPHB@DIK_Z@				; `string'
PUBLIC	??_C@_05NGIAENPD@DIK_X@				; `string'
PUBLIC	??_C@_05HPLGIGGJ@DIK_C@				; `string'
PUBLIC	??_C@_05EIADGAHN@DIK_V@				; `string'
PUBLIC	??_C@_05GGKNLHCI@DIK_B@				; `string'
PUBLIC	??_C@_05MKBIPICE@DIK_N@				; `string'
PUBLIC	??_C@_05OBDFKLOH@DIK_M@				; `string'
PUBLIC	??_C@_09PDEOJFIH@DIK_COMMA@			; `string'
PUBLIC	??_C@_0L@HHNLMNCM@DIK_PERIOD@			; `string'
PUBLIC	??_C@_09DKJEGHEH@DIK_SLASH@			; `string'
PUBLIC	??_C@_0L@FKIIJLHO@DIK_RSHIFT@			; `string'
PUBLIC	??_C@_0N@DHLLGHHC@DIK_MULTIPLY@			; `string'
PUBLIC	??_C@_08OHCJNNJ@DIK_LALT@			; `string'
PUBLIC	??_C@_09DGAMMAPJ@DIK_SPACE@			; `string'
PUBLIC	??_C@_0M@KEADBGIC@DIK_CAPITAL@			; `string'
PUBLIC	??_C@_06PEIHKKCD@DIK_F1@			; `string'
PUBLIC	??_C@_06NPKKPJOA@DIK_F2@			; `string'
PUBLIC	??_C@_06MGLBMIKB@DIK_F3@			; `string'
PUBLIC	??_C@_06IJPAFOGG@DIK_F4@			; `string'
PUBLIC	??_C@_06JAOLGPCH@DIK_F5@			; `string'
PUBLIC	??_C@_06LLMGDMOE@DIK_F6@			; `string'
PUBLIC	??_C@_06KCNNANKF@DIK_F7@			; `string'
PUBLIC	??_C@_06CFEFBBGK@DIK_F8@			; `string'
PUBLIC	??_C@_06DMFOCACL@DIK_F9@			; `string'
PUBLIC	??_C@_07HNNFMACL@DIK_F10@			; `string'
PUBLIC	??_C@_0M@BAOCLHIM@DIK_NUMLOCK@			; `string'
PUBLIC	??_C@_0L@HPJOFPCB@DIK_SCROLL@			; `string'
PUBLIC	??_C@_0M@NDOIJKED@DIK_NUMPAD7@			; `string'
PUBLIC	??_C@_0M@FEHAIGIM@DIK_NUMPAD8@			; `string'
PUBLIC	??_C@_0M@ENGLLHMN@DIK_NUMPAD9@			; `string'
PUBLIC	??_C@_0N@ECOBCKNF@DIK_SUBTRACT@			; `string'
PUBLIC	??_C@_0M@PIMFMJIA@DIK_NUMPAD4@			; `string'
PUBLIC	??_C@_0M@OBNOPIMB@DIK_NUMPAD5@			; `string'
PUBLIC	??_C@_0M@MKPDKLAC@DIK_NUMPAD6@			; `string'
PUBLIC	??_C@_07PJGLOONL@DIK_ADD@			; `string'
PUBLIC	??_C@_0M@IFLCDNMF@DIK_NUMPAD1@			; `string'
PUBLIC	??_C@_0M@KOJPGOAG@DIK_NUMPAD2@			; `string'
PUBLIC	??_C@_0M@LHIEFPEH@DIK_NUMPAD3@			; `string'
PUBLIC	??_C@_0M@JMKJAMIE@DIK_NUMPAD0@			; `string'
PUBLIC	??_C@_0M@PCNKFDKI@DIK_DECIMAL@			; `string'
PUBLIC	??_C@_07GEMOPBGK@DIK_F11@			; `string'
PUBLIC	??_C@_07EPODKCKJ@DIK_F12@			; `string'
PUBLIC	??_C@_0O@DEOEEHEE@DIK_NEXTTRACK@		; `string'
PUBLIC	??_C@_0BA@OLMCJCJF@DIK_NUMPADENTER@		; `string'
PUBLIC	??_C@_0N@GKDJCKOL@DIK_RCONTROL@			; `string'
PUBLIC	??_C@_08KNIFKFHJ@DIK_MUTE@			; `string'
PUBLIC	??_C@_0P@OJEJDHIP@DIK_CALCULATOR@		; `string'
PUBLIC	??_C@_0O@ECAMOKPG@DIK_PLAYPAUSE@		; `string'
PUBLIC	??_C@_0O@FLFOAKOG@DIK_MEDIASTOP@		; `string'
PUBLIC	??_C@_0P@FKHBCEAD@DIK_VOLUMEDOWN@		; `string'
PUBLIC	??_C@_0N@GPHLGHED@DIK_VOLUMEUP@			; `string'
PUBLIC	??_C@_0M@IEADBFND@DIK_WEBHOME@			; `string'
PUBLIC	??_C@_0BA@ECBGFAAH@DIK_NUMPADCOMMA@		; `string'
PUBLIC	??_C@_0L@HDEGMNOK@DIK_DIVIDE@			; `string'
PUBLIC	??_C@_09PCEGCDIO@DIK_SYSRQ@			; `string'
PUBLIC	??_C@_08NBKCLEDK@DIK_RALT@			; `string'
PUBLIC	??_C@_09COEFGPNN@DIK_PAUSE@			; `string'
PUBLIC	??_C@_08EJDGAFAN@DIK_HOME@			; `string'
PUBLIC	??_C@_06JGABONOM@DIK_UP@			; `string'
PUBLIC	??_C@_08PJJCOFHN@DIK_PGUP@			; `string'
PUBLIC	??_C@_08IMIHIPFI@DIK_LEFT@			; `string'
PUBLIC	??_C@_09OKEHHFIC@DIK_RIGHT@			; `string'
PUBLIC	??_C@_07HLJOPMFK@DIK_END@			; `string'
PUBLIC	??_C@_08HOIDBHGB@DIK_DOWN@			; `string'
PUBLIC	??_C@_08DADHBDOF@DIK_PGDN@			; `string'
PUBLIC	??_C@_0L@MGNAFAII@DIK_INSERT@			; `string'
PUBLIC	??_C@_0L@HICEJOHK@DIK_DELETE@			; `string'
PUBLIC	??_C@_08MNOGKNKK@DIK_LWIN@			; `string'
PUBLIC	??_C@_08BCDGIEEJ@DIK_RWIN@			; `string'
PUBLIC	??_C@_08EEDKKFEB@DIK_APPS@			; `string'
PUBLIC	??_C@_06IOJAGNKJ@NORMAL@			; `string'
PUBLIC	??_C@_06JIJKOHKJ@ATTACK@			; `string'
PUBLIC	??_C@_06JNJLBPLI@TARGET@			; `string'
PUBLIC	??_C@_04LNOLLMNL@TALK@				; `string'
PUBLIC	??_C@_07LGCIEODJ@CANT_GO@			; `string'
PUBLIC	??_C@_04IGIDHFMJ@PICK@				; `string'
PUBLIC	??_C@_04KEJCELCL@DOOR@				; `string'
PUBLIC	??_C@_05HLBMIDNH@CHAIR@				; `string'
PUBLIC	??_C@_05DKLEPMBK@MAGIC@				; `string'
PUBLIC	??_C@_03OOKILKBD@BUY@				; `string'
PUBLIC	??_C@_04MPOIGBFL@SELL@				; `string'
PUBLIC	??_C@_0O@MAJOJEIM@CAMERA_ROTATE@		; `string'
PUBLIC	??_C@_05NILMGENH@HSIZE@				; `string'
PUBLIC	??_C@_05OBGAAHDM@VSIZE@				; `string'
PUBLIC	??_C@_06LKCKECPP@HVSIZE@			; `string'
PUBLIC	??_C@_0BD@BFBNCJCC@CAMERA_TO_POSITIVE@		; `string'
PUBLIC	??_C@_0BD@JPBNJGLJ@CAMERA_TO_NEGATIVE@		; `string'
PUBLIC	??_C@_0M@NJFGNKPE@CAMERA_STOP@			; `string'
PUBLIC	??_C@_0BG@NNONEOJP@ENABLE_COSTUME_SYSTEM@	; `string'
PUBLIC	??_C@_0BF@JNPGDOCA@ENABLE_ENERGY_SYSTEM@	; `string'
PUBLIC	??_C@_0BK@MHKPDOOB@ENABLE_DRAGON_SOUL_SYSTEM@	; `string'
PUBLIC	??_C@_0BM@LNFCINHP@ENABLE_NEW_EQUIPMENT_SYSTEM@	; `string'
PUBLIC	??_C@_0L@GJPKGMAC@USE_OPENID@			; `string'
PUBLIC	??_C@_0M@HKJKCDHH@OPENID_TEST@			; `string'
PUBLIC	__real@42c80000
PUBLIC	__real@447a0000
PUBLIC	__xmm@80000000800000008000000080000000
EXTRN	??2@YAPAXI@Z:PROC				; operator new
EXTRN	??3@YAXPAX@Z:PROC				; operator delete
EXTRN	??3@YAXPAXI@Z:PROC				; operator delete
EXTRN	_atexit:PROC
EXTRN	___report_rangecheckfailure:PROC
EXTRN	__invalid_parameter_noinfo_noreturn:PROC
EXTRN	_strstr:PROC
EXTRN	_strncpy:PROC
EXTRN	__imp__FindClose@4:PROC
EXTRN	__imp__FindFirstFileA@8:PROC
EXTRN	__imp__FindNextFileA@8:PROC
EXTRN	__imp__Sleep@4:PROC
EXTRN	__controlfp:PROC
EXTRN	_fclose:PROC
EXTRN	_fopen:PROC
EXTRN	_fread:PROC
EXTRN	_fseek:PROC
EXTRN	_ftell:PROC
EXTRN	__access:PROC
EXTRN	__imp__PyInt_AsLong:PROC
EXTRN	__imp__PyString_FromString:PROC
EXTRN	__imp__PyTuple_GetItem:PROC
EXTRN	__imp__PyList_New:PROC
EXTRN	__imp__PyList_Append:PROC
EXTRN	__imp__Py_BuildValue:PROC
EXTRN	__imp__PyModule_AddIntConstant:PROC
EXTRN	__imp__Py_InitModule4:PROC
EXTRN	?PyTuple_GetString@@YA_NPAU_object@@HPAPAD@Z:PROC ; PyTuple_GetString
EXTRN	?PyTuple_GetInteger@@YA_NPAU_object@@HPAH@Z:PROC ; PyTuple_GetInteger
EXTRN	?PyTuple_GetFloat@@YA_NPAU_object@@HPAM@Z:PROC	; PyTuple_GetFloat
EXTRN	?PyTuple_GetObject@@YA_NPAU_object@@HPAPAU1@@Z:PROC ; PyTuple_GetObject
EXTRN	?Py_BuildException@@YAPAU_object@@PBDZZ:PROC	; Py_BuildException
EXTRN	?Py_BuildNone@@YAPAU_object@@XZ:PROC		; Py_BuildNone
EXTRN	?RunFile@CPythonLauncher@@QAE_NPBD@Z:PROC	; CPythonLauncher::RunFile
EXTRN	??0CMemoryTextFileLoader@@QAE@XZ:PROC		; CMemoryTextFileLoader::CMemoryTextFileLoader
EXTRN	??1CMemoryTextFileLoader@@UAE@XZ:PROC		; CMemoryTextFileLoader::~CMemoryTextFileLoader
EXTRN	?Bind@CMemoryTextFileLoader@@QAEXHPBX@Z:PROC	; CMemoryTextFileLoader::Bind
EXTRN	?GetLineCount@CMemoryTextFileLoader@@QAEKXZ:PROC ; CMemoryTextFileLoader::GetLineCount
EXTRN	?GetLineString@CMemoryTextFileLoader@@QAEABV?$basic_string@DU?$char_traits@D@std@@V?$allocator@D@2@@std@@K@Z:PROC ; CMemoryTextFileLoader::GetLineString
EXTRN	??0CMappedFile@@QAE@XZ:PROC			; CMappedFile::CMappedFile
EXTRN	??1CMappedFile@@UAE@XZ:PROC			; CMappedFile::~CMappedFile
EXTRN	?Size@CMappedFile@@QAEKXZ:PROC			; CMappedFile::Size
EXTRN	?GetAvailableTextureMemory@CGraphicBase@@SAKXZ:PROC ; CGraphicBase::GetAvailableTextureMemory
EXTRN	?GetMousePosition@CWindowManager@UI@@QAEXAAJ0@Z:PROC ; UI::CWindowManager::GetMousePosition
EXTRN	?random_range@@YAJJJ@Z:PROC			; random_range
EXTRN	?GetDegreeDifference@@YAMMM@Z:PROC		; GetDegreeDifference
EXTRN	?GetRotatingDirection@@YAHMM@Z:PROC		; GetRotatingDirection
EXTRN	?LocaleService_GetCodePage@@YAIXZ:PROC		; LocaleService_GetCodePage
EXTRN	?LocaleService_GetName@@YAPBDXZ:PROC		; LocaleService_GetName
EXTRN	?LocaleService_GetLocaleName@@YAPBDXZ:PROC	; LocaleService_GetLocaleName
EXTRN	?LocaleService_GetLocalePath@@YAPBDXZ:PROC	; LocaleService_GetLocalePath
EXTRN	?LocaleService_ForceSetLocale@@YAXPBD0@Z:PROC	; LocaleService_ForceSetLocale
EXTRN	?LocaleService_SetCHEONMA@@YAX_N@Z:PROC		; LocaleService_SetCHEONMA
EXTRN	?LocaleService_IsCHEONMA@@YA_NXZ:PROC		; LocaleService_IsCHEONMA
EXTRN	?DefaultFont_SetName@@YAXPBD@Z:PROC		; DefaultFont_SetName
EXTRN	?SetGuildSymbolPath@@YAXPBD@Z:PROC		; SetGuildSymbolPath
EXTRN	?IsPressed@CInputKeyboard@@QAE_NH@Z:PROC	; CInputKeyboard::IsPressed
EXTRN	_tea_decrypt:PROC
EXTRN	__imp__ilBindImage@4:PROC
EXTRN	__imp__ilDeleteImages@8:PROC
EXTRN	__imp__ilGenImages@8:PROC
EXTRN	__imp__ilGetInteger@4:PROC
EXTRN	__imp__ilLoad@8:PROC
EXTRN	?SetMarkPathPrefix@CGuildMarkManager@@QAEXPBD@Z:PROC ; CGuildMarkManager::SetMarkPathPrefix
EXTRN	?PlayLogo@CMovieMan@@QAEXPBD@Z:PROC		; CMovieMan::PlayLogo
EXTRN	?ShowWebPage@CPythonApplication@@QAEXPBDABUtagRECT@@@Z:PROC ; CPythonApplication::ShowWebPage
EXTRN	?MoveWebPage@CPythonApplication@@QAEXABUtagRECT@@@Z:PROC ; CPythonApplication::MoveWebPage
EXTRN	?HideWebPage@CPythonApplication@@QAEXXZ:PROC	; CPythonApplication::HideWebPage
EXTRN	?IsWebPageMode@CPythonApplication@@QAE_NXZ:PROC	; CPythonApplication::IsWebPageMode
EXTRN	?GetInfo@CPythonApplication@@QAEXIPAV?$basic_string@DU?$char_traits@D@std@@V?$allocator@D@2@@std@@@Z:PROC ; CPythonApplication::GetInfo
EXTRN	?Loop@CPythonApplication@@QAEXXZ:PROC		; CPythonApplication::Loop
EXTRN	?Exit@CPythonApplication@@QAEXXZ:PROC		; CPythonApplication::Exit
EXTRN	?Abort@CPythonApplication@@QAEXXZ:PROC		; CPythonApplication::Abort
EXTRN	?SetMinFog@CPythonApplication@@QAEXM@Z:PROC	; CPythonApplication::SetMinFog
EXTRN	?SetFrameSkip@CPythonApplication@@QAEX_N@Z:PROC	; CPythonApplication::SetFrameSkip
EXTRN	?Create@CPythonApplication@@QAE_NPAU_object@@PBDHHH@Z:PROC ; CPythonApplication::Create
EXTRN	?UpdateGame@CPythonApplication@@QAEXXZ:PROC	; CPythonApplication::UpdateGame
EXTRN	?RenderGame@CPythonApplication@@QAEXXZ:PROC	; CPythonApplication::RenderGame
EXTRN	?Process@CPythonApplication@@QAE_NXZ:PROC	; CPythonApplication::Process
EXTRN	?SetCursorNum@CPythonApplication@@QAEHH@Z:PROC	; CPythonApplication::SetCursorNum
EXTRN	?SetCursorVisible@CPythonApplication@@QAEXH_N@Z:PROC ; CPythonApplication::SetCursorVisible
EXTRN	?GetCursorVisible@CPythonApplication@@QAEHXZ:PROC ; CPythonApplication::GetCursorVisible
EXTRN	?GetLiarCursorOn@CPythonApplication@@QAE_NXZ:PROC ; CPythonApplication::GetLiarCursorOn
EXTRN	?SetCursorMode@CPythonApplication@@QAEXH@Z:PROC	; CPythonApplication::SetCursorMode
EXTRN	?SetMouseHandler@CPythonApplication@@QAEXPAU_object@@@Z:PROC ; CPythonApplication::SetMouseHandler
EXTRN	?SetGlobalCenterPosition@CPythonApplication@@QAEXJJ@Z:PROC ; CPythonApplication::SetGlobalCenterPosition
EXTRN	?SetCamera@CPythonApplication@@QAEXMMMM@Z:PROC	; CPythonApplication::SetCamera
EXTRN	?GetCamera@CPythonApplication@@QAEXPAM000@Z:PROC ; CPythonApplication::GetCamera
EXTRN	?RotateCamera@CPythonApplication@@QAEXH@Z:PROC	; CPythonApplication::RotateCamera
EXTRN	?PitchCamera@CPythonApplication@@QAEXH@Z:PROC	; CPythonApplication::PitchCamera
EXTRN	?ZoomCamera@CPythonApplication@@QAEXH@Z:PROC	; CPythonApplication::ZoomCamera
EXTRN	?MovieRotateCamera@CPythonApplication@@QAEXH@Z:PROC ; CPythonApplication::MovieRotateCamera
EXTRN	?MoviePitchCamera@CPythonApplication@@QAEXH@Z:PROC ; CPythonApplication::MoviePitchCamera
EXTRN	?MovieZoomCamera@CPythonApplication@@QAEXH@Z:PROC ; CPythonApplication::MovieZoomCamera
EXTRN	?MovieResetCamera@CPythonApplication@@QAEXXZ:PROC ; CPythonApplication::MovieResetCamera
EXTRN	?GetRotation@CPythonApplication@@QAEMXZ:PROC	; CPythonApplication::GetRotation
EXTRN	?GetPitch@CPythonApplication@@QAEMXZ:PROC	; CPythonApplication::GetPitch
EXTRN	?SetFPS@CPythonApplication@@QAEXH@Z:PROC	; CPythonApplication::SetFPS
EXTRN	?GetServerTime@CPythonApplication@@QAEJXZ:PROC	; CPythonApplication::GetServerTime
EXTRN	?GetServerTimeStamp@CPythonApplication@@QAEJXZ:PROC ; CPythonApplication::GetServerTimeStamp
EXTRN	?SetConnectData@CPythonApplication@@QAEXPBDH@Z:PROC ; CPythonApplication::SetConnectData
EXTRN	?GetConnectData@CPythonApplication@@QAEXAAV?$basic_string@DU?$char_traits@D@std@@V?$allocator@D@2@@std@@AAH@Z:PROC ; CPythonApplication::GetConnectData
EXTRN	?EnableSpecialCameraMode@CPythonApplication@@QAEXXZ:PROC ; CPythonApplication::EnableSpecialCameraMode
EXTRN	?SetCameraSpeed@CPythonApplication@@QAEXH@Z:PROC ; CPythonApplication::SetCameraSpeed
EXTRN	?SaveCameraSetting@CPythonApplication@@QAEXPBD@Z:PROC ; CPythonApplication::SaveCameraSetting
EXTRN	?LoadCameraSetting@CPythonApplication@@QAE_NPBD@Z:PROC ; CPythonApplication::LoadCameraSetting
EXTRN	?SetForceSightRange@CPythonApplication@@QAEXH@Z:PROC ; CPythonApplication::SetForceSightRange
EXTRN	?SetCameraMaxDistance@CCamera@@SAXM@Z:PROC	; CCamera::SetCameraMaxDistance
EXTRN	?SetResistance@CCamera@@QAEXM@Z:PROC		; CCamera::SetResistance
EXTRN	?GetCurrentCamera@CCameraManager@@QAEPAVCCamera@@XZ:PROC ; CCameraManager::GetCurrentCamera
EXTRN	?TextTail_SetLivingTime@@YAXJ@Z:PROC		; TextTail_SetLivingTime
EXTRN	?LoadLocaleData@@YA_NPBD@Z:PROC			; LoadLocaleData
EXTRN	?Get@CEterPackManager@@QAE_NAAVCMappedFile@@PBDPAPBX@Z:PROC ; CEterPackManager::Get
EXTRN	?isExist@CEterPackManager@@QAE_NPBD@Z:PROC	; CEterPackManager::isExist
EXTRN	@__security_check_cookie@4:PROC
EXTRN	___CxxFrameHandler3:PROC
EXTRN	__alloca_probe_16:PROC
EXTRN	_memset:PROC
EXTRN	?ms_pInstance@CPythonApplication@@1PAV1@A:DWORD	; CPythonApplication::ms_pInstance
EXTRN	?PERF_CHECKER_RENDER_GAME@@3_NA:BYTE		; PERF_CHECKER_RENDER_GAME
EXTRN	?g_fSpecularColor@@3UD3DXCOLOR@@A:BYTE		; g_fSpecularColor
EXTRN	?HAIR_COLOR_ENABLE@@3HA:DWORD			; HAIR_COLOR_ENABLE
EXTRN	?USE_ARMOR_SPECULAR@@3HA:DWORD			; USE_ARMOR_SPECULAR
EXTRN	?USE_WEAPON_SPECULAR@@3HA:DWORD			; USE_WEAPON_SPECULAR
EXTRN	?SKILL_EFFECT_UPGRADE_ENABLE@@3HA:DWORD		; SKILL_EFFECT_UPGRADE_ENABLE
EXTRN	?RIDE_HORSE_ENABLE@@3HA:DWORD			; RIDE_HORSE_ENABLE
EXTRN	?g_specularSpd@@3NA:QWORD			; g_specularSpd
EXTRN	?g_iAccumulationTime@@3HA:DWORD			; g_iAccumulationTime
EXTRN	___security_cookie:DWORD
EXTRN	__fltused:DWORD
;	COMDAT ?ms_singleton@?$CSingleton@VCPythonLauncher@@@@0PAVCPythonLauncher@@A
_BSS	SEGMENT
?ms_singleton@?$CSingleton@VCPythonLauncher@@@@0PAVCPythonLauncher@@A DD 01H DUP (?) ; CSingleton<CPythonLauncher>::ms_singleton
_BSS	ENDS
;	COMDAT ?ms_singleton@?$CSingleton@VCWindowManager@UI@@@@0PAVCWindowManager@UI@@A
_BSS	SEGMENT
?ms_singleton@?$CSingleton@VCWindowManager@UI@@@@0PAVCWindowManager@UI@@A DD 01H DUP (?) ; CSingleton<UI::CWindowManager>::ms_singleton
_BSS	ENDS
;	COMDAT ?ms_singleton@?$singleton@VCGuildMarkManager@@@@0PAVCGuildMarkManager@@A
_BSS	SEGMENT
?ms_singleton@?$singleton@VCGuildMarkManager@@@@0PAVCGuildMarkManager@@A DD 01H DUP (?) ; singleton<CGuildMarkManager>::ms_singleton
_BSS	ENDS
;	COMDAT ?ms_singleton@?$CSingleton@VCMovieMan@@@@0PAVCMovieMan@@A
_BSS	SEGMENT
?ms_singleton@?$CSingleton@VCMovieMan@@@@0PAVCMovieMan@@A DD 01H DUP (?) ; CSingleton<CMovieMan>::ms_singleton
_BSS	ENDS
;	COMDAT ?ms_singleton@?$CSingleton@VCCameraManager@@@@0PAVCCameraManager@@A
_BSS	SEGMENT
?ms_singleton@?$CSingleton@VCCameraManager@@@@0PAVCCameraManager@@A DD 01H DUP (?) ; CSingleton<CCameraManager>::ms_singleton
_BSS	ENDS
;	COMDAT ?ms_singleton@?$CSingleton@VCEterPackManager@@@@0PAVCEterPackManager@@A
_BSS	SEGMENT
?ms_singleton@?$CSingleton@VCEterPackManager@@@@0PAVCEterPackManager@@A DD 01H DUP (?) ; CSingleton<CEterPackManager>::ms_singleton
_BSS	ENDS
;	COMDAT CRT$XCU
CRT$XCU	SEGMENT
??ms_kPool$initializer$@?$CPooledObject@VCHeaderDecorator@NEffectUpdateDecorator@@@@1P6AXXZA@@3P6AXXZA DD FLAT:??__E?ms_kPool@?$CPooledObject@VCHeaderDecorator@NEffectUpdateDecorator@@@@1V?$CDynamicPoolEx@VCHeaderDecorator@NEffectUpdateDecorator@@@@A@@YAXXZ ; ??ms_kPool$initializer$@?$CPooledObject@VCHeaderDecorator@NEffectUpdateDecorator@@@@1P6AXXZA@@3P6AXXZA
CRT$XCU	ENDS
;	COMDAT __xmm@80000000800000008000000080000000
CONST	SEGMENT
__xmm@80000000800000008000000080000000 DB 00H, 00H, 00H, 080H, 00H, 00H, 00H
	DB	080H, 00H, 00H, 00H, 080H, 00H, 00H, 00H, 080H
CONST	ENDS
;	COMDAT __real@447a0000
CONST	SEGMENT
__real@447a0000 DD 0447a0000r			; 1000
CONST	ENDS
;	COMDAT __real@42c80000
CONST	SEGMENT
__real@42c80000 DD 042c80000r			; 100
CONST	ENDS
;	COMDAT ??_C@_0M@HKJKCDHH@OPENID_TEST@
CONST	SEGMENT
??_C@_0M@HKJKCDHH@OPENID_TEST@ DB 'OPENID_TEST', 00H	; `string'
CONST	ENDS
;	COMDAT ??_C@_0L@GJPKGMAC@USE_OPENID@
CONST	SEGMENT
??_C@_0L@GJPKGMAC@USE_OPENID@ DB 'USE_OPENID', 00H	; `string'
CONST	ENDS
;	COMDAT ??_C@_0BM@LNFCINHP@ENABLE_NEW_EQUIPMENT_SYSTEM@
CONST	SEGMENT
??_C@_0BM@LNFCINHP@ENABLE_NEW_EQUIPMENT_SYSTEM@ DB 'ENABLE_NEW_EQUIPMENT_'
	DB	'SYSTEM', 00H				; `string'
CONST	ENDS
;	COMDAT ??_C@_0BK@MHKPDOOB@ENABLE_DRAGON_SOUL_SYSTEM@
CONST	SEGMENT
??_C@_0BK@MHKPDOOB@ENABLE_DRAGON_SOUL_SYSTEM@ DB 'ENABLE_DRAGON_SOUL_SYST'
	DB	'EM', 00H					; `string'
CONST	ENDS
;	COMDAT ??_C@_0BF@JNPGDOCA@ENABLE_ENERGY_SYSTEM@
CONST	SEGMENT
??_C@_0BF@JNPGDOCA@ENABLE_ENERGY_SYSTEM@ DB 'ENABLE_ENERGY_SYSTEM', 00H ; `string'
CONST	ENDS
;	COMDAT ??_C@_0BG@NNONEOJP@ENABLE_COSTUME_SYSTEM@
CONST	SEGMENT
??_C@_0BG@NNONEOJP@ENABLE_COSTUME_SYSTEM@ DB 'ENABLE_COSTUME_SYSTEM', 00H ; `string'
CONST	ENDS
;	COMDAT ??_C@_0M@NJFGNKPE@CAMERA_STOP@
CONST	SEGMENT
??_C@_0M@NJFGNKPE@CAMERA_STOP@ DB 'CAMERA_STOP', 00H	; `string'
CONST	ENDS
;	COMDAT ??_C@_0BD@JPBNJGLJ@CAMERA_TO_NEGATIVE@
CONST	SEGMENT
??_C@_0BD@JPBNJGLJ@CAMERA_TO_NEGATIVE@ DB 'CAMERA_TO_NEGATIVE', 00H ; `string'
CONST	ENDS
;	COMDAT ??_C@_0BD@BFBNCJCC@CAMERA_TO_POSITIVE@
CONST	SEGMENT
??_C@_0BD@BFBNCJCC@CAMERA_TO_POSITIVE@ DB 'CAMERA_TO_POSITIVE', 00H ; `string'
CONST	ENDS
;	COMDAT ??_C@_06LKCKECPP@HVSIZE@
CONST	SEGMENT
??_C@_06LKCKECPP@HVSIZE@ DB 'HVSIZE', 00H		; `string'
CONST	ENDS
;	COMDAT ??_C@_05OBGAAHDM@VSIZE@
CONST	SEGMENT
??_C@_05OBGAAHDM@VSIZE@ DB 'VSIZE', 00H			; `string'
CONST	ENDS
;	COMDAT ??_C@_05NILMGENH@HSIZE@
CONST	SEGMENT
??_C@_05NILMGENH@HSIZE@ DB 'HSIZE', 00H			; `string'
CONST	ENDS
;	COMDAT ??_C@_0O@MAJOJEIM@CAMERA_ROTATE@
CONST	SEGMENT
??_C@_0O@MAJOJEIM@CAMERA_ROTATE@ DB 'CAMERA_ROTATE', 00H ; `string'
CONST	ENDS
;	COMDAT ??_C@_04MPOIGBFL@SELL@
CONST	SEGMENT
??_C@_04MPOIGBFL@SELL@ DB 'SELL', 00H			; `string'
CONST	ENDS
;	COMDAT ??_C@_03OOKILKBD@BUY@
CONST	SEGMENT
??_C@_03OOKILKBD@BUY@ DB 'BUY', 00H			; `string'
CONST	ENDS
;	COMDAT ??_C@_05DKLEPMBK@MAGIC@
CONST	SEGMENT
??_C@_05DKLEPMBK@MAGIC@ DB 'MAGIC', 00H			; `string'
CONST	ENDS
;	COMDAT ??_C@_05HLBMIDNH@CHAIR@
CONST	SEGMENT
??_C@_05HLBMIDNH@CHAIR@ DB 'CHAIR', 00H			; `string'
CONST	ENDS
;	COMDAT ??_C@_04KEJCELCL@DOOR@
CONST	SEGMENT
??_C@_04KEJCELCL@DOOR@ DB 'DOOR', 00H			; `string'
CONST	ENDS
;	COMDAT ??_C@_04IGIDHFMJ@PICK@
CONST	SEGMENT
??_C@_04IGIDHFMJ@PICK@ DB 'PICK', 00H			; `string'
CONST	ENDS
;	COMDAT ??_C@_07LGCIEODJ@CANT_GO@
CONST	SEGMENT
??_C@_07LGCIEODJ@CANT_GO@ DB 'CANT_GO', 00H		; `string'
CONST	ENDS
;	COMDAT ??_C@_04LNOLLMNL@TALK@
CONST	SEGMENT
??_C@_04LNOLLMNL@TALK@ DB 'TALK', 00H			; `string'
CONST	ENDS
;	COMDAT ??_C@_06JNJLBPLI@TARGET@
CONST	SEGMENT
??_C@_06JNJLBPLI@TARGET@ DB 'TARGET', 00H		; `string'
CONST	ENDS
;	COMDAT ??_C@_06JIJKOHKJ@ATTACK@
CONST	SEGMENT
??_C@_06JIJKOHKJ@ATTACK@ DB 'ATTACK', 00H		; `string'
CONST	ENDS
;	COMDAT ??_C@_06IOJAGNKJ@NORMAL@
CONST	SEGMENT
??_C@_06IOJAGNKJ@NORMAL@ DB 'NORMAL', 00H		; `string'
CONST	ENDS
;	COMDAT ??_C@_08EEDKKFEB@DIK_APPS@
CONST	SEGMENT
??_C@_08EEDKKFEB@DIK_APPS@ DB 'DIK_APPS', 00H		; `string'
CONST	ENDS
;	COMDAT ??_C@_08BCDGIEEJ@DIK_RWIN@
CONST	SEGMENT
??_C@_08BCDGIEEJ@DIK_RWIN@ DB 'DIK_RWIN', 00H		; `string'
CONST	ENDS
;	COMDAT ??_C@_08MNOGKNKK@DIK_LWIN@
CONST	SEGMENT
??_C@_08MNOGKNKK@DIK_LWIN@ DB 'DIK_LWIN', 00H		; `string'
CONST	ENDS
;	COMDAT ??_C@_0L@HICEJOHK@DIK_DELETE@
CONST	SEGMENT
??_C@_0L@HICEJOHK@DIK_DELETE@ DB 'DIK_DELETE', 00H	; `string'
CONST	ENDS
;	COMDAT ??_C@_0L@MGNAFAII@DIK_INSERT@
CONST	SEGMENT
??_C@_0L@MGNAFAII@DIK_INSERT@ DB 'DIK_INSERT', 00H	; `string'
CONST	ENDS
;	COMDAT ??_C@_08DADHBDOF@DIK_PGDN@
CONST	SEGMENT
??_C@_08DADHBDOF@DIK_PGDN@ DB 'DIK_PGDN', 00H		; `string'
CONST	ENDS
;	COMDAT ??_C@_08HOIDBHGB@DIK_DOWN@
CONST	SEGMENT
??_C@_08HOIDBHGB@DIK_DOWN@ DB 'DIK_DOWN', 00H		; `string'
CONST	ENDS
;	COMDAT ??_C@_07HLJOPMFK@DIK_END@
CONST	SEGMENT
??_C@_07HLJOPMFK@DIK_END@ DB 'DIK_END', 00H		; `string'
CONST	ENDS
;	COMDAT ??_C@_09OKEHHFIC@DIK_RIGHT@
CONST	SEGMENT
??_C@_09OKEHHFIC@DIK_RIGHT@ DB 'DIK_RIGHT', 00H		; `string'
CONST	ENDS
;	COMDAT ??_C@_08IMIHIPFI@DIK_LEFT@
CONST	SEGMENT
??_C@_08IMIHIPFI@DIK_LEFT@ DB 'DIK_LEFT', 00H		; `string'
CONST	ENDS
;	COMDAT ??_C@_08PJJCOFHN@DIK_PGUP@
CONST	SEGMENT
??_C@_08PJJCOFHN@DIK_PGUP@ DB 'DIK_PGUP', 00H		; `string'
CONST	ENDS
;	COMDAT ??_C@_06JGABONOM@DIK_UP@
CONST	SEGMENT
??_C@_06JGABONOM@DIK_UP@ DB 'DIK_UP', 00H		; `string'
CONST	ENDS
;	COMDAT ??_C@_08EJDGAFAN@DIK_HOME@
CONST	SEGMENT
??_C@_08EJDGAFAN@DIK_HOME@ DB 'DIK_HOME', 00H		; `string'
CONST	ENDS
;	COMDAT ??_C@_09COEFGPNN@DIK_PAUSE@
CONST	SEGMENT
??_C@_09COEFGPNN@DIK_PAUSE@ DB 'DIK_PAUSE', 00H		; `string'
CONST	ENDS
;	COMDAT ??_C@_08NBKCLEDK@DIK_RALT@
CONST	SEGMENT
??_C@_08NBKCLEDK@DIK_RALT@ DB 'DIK_RALT', 00H		; `string'
CONST	ENDS
;	COMDAT ??_C@_09PCEGCDIO@DIK_SYSRQ@
CONST	SEGMENT
??_C@_09PCEGCDIO@DIK_SYSRQ@ DB 'DIK_SYSRQ', 00H		; `string'
CONST	ENDS
;	COMDAT ??_C@_0L@HDEGMNOK@DIK_DIVIDE@
CONST	SEGMENT
??_C@_0L@HDEGMNOK@DIK_DIVIDE@ DB 'DIK_DIVIDE', 00H	; `string'
CONST	ENDS
;	COMDAT ??_C@_0BA@ECBGFAAH@DIK_NUMPADCOMMA@
CONST	SEGMENT
??_C@_0BA@ECBGFAAH@DIK_NUMPADCOMMA@ DB 'DIK_NUMPADCOMMA', 00H ; `string'
CONST	ENDS
;	COMDAT ??_C@_0M@IEADBFND@DIK_WEBHOME@
CONST	SEGMENT
??_C@_0M@IEADBFND@DIK_WEBHOME@ DB 'DIK_WEBHOME', 00H	; `string'
CONST	ENDS
;	COMDAT ??_C@_0N@GPHLGHED@DIK_VOLUMEUP@
CONST	SEGMENT
??_C@_0N@GPHLGHED@DIK_VOLUMEUP@ DB 'DIK_VOLUMEUP', 00H	; `string'
CONST	ENDS
;	COMDAT ??_C@_0P@FKHBCEAD@DIK_VOLUMEDOWN@
CONST	SEGMENT
??_C@_0P@FKHBCEAD@DIK_VOLUMEDOWN@ DB 'DIK_VOLUMEDOWN', 00H ; `string'
CONST	ENDS
;	COMDAT ??_C@_0O@FLFOAKOG@DIK_MEDIASTOP@
CONST	SEGMENT
??_C@_0O@FLFOAKOG@DIK_MEDIASTOP@ DB 'DIK_MEDIASTOP', 00H ; `string'
CONST	ENDS
;	COMDAT ??_C@_0O@ECAMOKPG@DIK_PLAYPAUSE@
CONST	SEGMENT
??_C@_0O@ECAMOKPG@DIK_PLAYPAUSE@ DB 'DIK_PLAYPAUSE', 00H ; `string'
CONST	ENDS
;	COMDAT ??_C@_0P@OJEJDHIP@DIK_CALCULATOR@
CONST	SEGMENT
??_C@_0P@OJEJDHIP@DIK_CALCULATOR@ DB 'DIK_CALCULATOR', 00H ; `string'
CONST	ENDS
;	COMDAT ??_C@_08KNIFKFHJ@DIK_MUTE@
CONST	SEGMENT
??_C@_08KNIFKFHJ@DIK_MUTE@ DB 'DIK_MUTE', 00H		; `string'
CONST	ENDS
;	COMDAT ??_C@_0N@GKDJCKOL@DIK_RCONTROL@
CONST	SEGMENT
??_C@_0N@GKDJCKOL@DIK_RCONTROL@ DB 'DIK_RCONTROL', 00H	; `string'
CONST	ENDS
;	COMDAT ??_C@_0BA@OLMCJCJF@DIK_NUMPADENTER@
CONST	SEGMENT
??_C@_0BA@OLMCJCJF@DIK_NUMPADENTER@ DB 'DIK_NUMPADENTER', 00H ; `string'
CONST	ENDS
;	COMDAT ??_C@_0O@DEOEEHEE@DIK_NEXTTRACK@
CONST	SEGMENT
??_C@_0O@DEOEEHEE@DIK_NEXTTRACK@ DB 'DIK_NEXTTRACK', 00H ; `string'
CONST	ENDS
;	COMDAT ??_C@_07EPODKCKJ@DIK_F12@
CONST	SEGMENT
??_C@_07EPODKCKJ@DIK_F12@ DB 'DIK_F12', 00H		; `string'
CONST	ENDS
;	COMDAT ??_C@_07GEMOPBGK@DIK_F11@
CONST	SEGMENT
??_C@_07GEMOPBGK@DIK_F11@ DB 'DIK_F11', 00H		; `string'
CONST	ENDS
;	COMDAT ??_C@_0M@PCNKFDKI@DIK_DECIMAL@
CONST	SEGMENT
??_C@_0M@PCNKFDKI@DIK_DECIMAL@ DB 'DIK_DECIMAL', 00H	; `string'
CONST	ENDS
;	COMDAT ??_C@_0M@JMKJAMIE@DIK_NUMPAD0@
CONST	SEGMENT
??_C@_0M@JMKJAMIE@DIK_NUMPAD0@ DB 'DIK_NUMPAD0', 00H	; `string'
CONST	ENDS
;	COMDAT ??_C@_0M@LHIEFPEH@DIK_NUMPAD3@
CONST	SEGMENT
??_C@_0M@LHIEFPEH@DIK_NUMPAD3@ DB 'DIK_NUMPAD3', 00H	; `string'
CONST	ENDS
;	COMDAT ??_C@_0M@KOJPGOAG@DIK_NUMPAD2@
CONST	SEGMENT
??_C@_0M@KOJPGOAG@DIK_NUMPAD2@ DB 'DIK_NUMPAD2', 00H	; `string'
CONST	ENDS
;	COMDAT ??_C@_0M@IFLCDNMF@DIK_NUMPAD1@
CONST	SEGMENT
??_C@_0M@IFLCDNMF@DIK_NUMPAD1@ DB 'DIK_NUMPAD1', 00H	; `string'
CONST	ENDS
;	COMDAT ??_C@_07PJGLOONL@DIK_ADD@
CONST	SEGMENT
??_C@_07PJGLOONL@DIK_ADD@ DB 'DIK_ADD', 00H		; `string'
CONST	ENDS
;	COMDAT ??_C@_0M@MKPDKLAC@DIK_NUMPAD6@
CONST	SEGMENT
??_C@_0M@MKPDKLAC@DIK_NUMPAD6@ DB 'DIK_NUMPAD6', 00H	; `string'
CONST	ENDS
;	COMDAT ??_C@_0M@OBNOPIMB@DIK_NUMPAD5@
CONST	SEGMENT
??_C@_0M@OBNOPIMB@DIK_NUMPAD5@ DB 'DIK_NUMPAD5', 00H	; `string'
CONST	ENDS
;	COMDAT ??_C@_0M@PIMFMJIA@DIK_NUMPAD4@
CONST	SEGMENT
??_C@_0M@PIMFMJIA@DIK_NUMPAD4@ DB 'DIK_NUMPAD4', 00H	; `string'
CONST	ENDS
;	COMDAT ??_C@_0N@ECOBCKNF@DIK_SUBTRACT@
CONST	SEGMENT
??_C@_0N@ECOBCKNF@DIK_SUBTRACT@ DB 'DIK_SUBTRACT', 00H	; `string'
CONST	ENDS
;	COMDAT ??_C@_0M@ENGLLHMN@DIK_NUMPAD9@
CONST	SEGMENT
??_C@_0M@ENGLLHMN@DIK_NUMPAD9@ DB 'DIK_NUMPAD9', 00H	; `string'
CONST	ENDS
;	COMDAT ??_C@_0M@FEHAIGIM@DIK_NUMPAD8@
CONST	SEGMENT
??_C@_0M@FEHAIGIM@DIK_NUMPAD8@ DB 'DIK_NUMPAD8', 00H	; `string'
CONST	ENDS
;	COMDAT ??_C@_0M@NDOIJKED@DIK_NUMPAD7@
CONST	SEGMENT
??_C@_0M@NDOIJKED@DIK_NUMPAD7@ DB 'DIK_NUMPAD7', 00H	; `string'
CONST	ENDS
;	COMDAT ??_C@_0L@HPJOFPCB@DIK_SCROLL@
CONST	SEGMENT
??_C@_0L@HPJOFPCB@DIK_SCROLL@ DB 'DIK_SCROLL', 00H	; `string'
CONST	ENDS
;	COMDAT ??_C@_0M@BAOCLHIM@DIK_NUMLOCK@
CONST	SEGMENT
??_C@_0M@BAOCLHIM@DIK_NUMLOCK@ DB 'DIK_NUMLOCK', 00H	; `string'
CONST	ENDS
;	COMDAT ??_C@_07HNNFMACL@DIK_F10@
CONST	SEGMENT
??_C@_07HNNFMACL@DIK_F10@ DB 'DIK_F10', 00H		; `string'
CONST	ENDS
;	COMDAT ??_C@_06DMFOCACL@DIK_F9@
CONST	SEGMENT
??_C@_06DMFOCACL@DIK_F9@ DB 'DIK_F9', 00H		; `string'
CONST	ENDS
;	COMDAT ??_C@_06CFEFBBGK@DIK_F8@
CONST	SEGMENT
??_C@_06CFEFBBGK@DIK_F8@ DB 'DIK_F8', 00H		; `string'
CONST	ENDS
;	COMDAT ??_C@_06KCNNANKF@DIK_F7@
CONST	SEGMENT
??_C@_06KCNNANKF@DIK_F7@ DB 'DIK_F7', 00H		; `string'
CONST	ENDS
;	COMDAT ??_C@_06LLMGDMOE@DIK_F6@
CONST	SEGMENT
??_C@_06LLMGDMOE@DIK_F6@ DB 'DIK_F6', 00H		; `string'
CONST	ENDS
;	COMDAT ??_C@_06JAOLGPCH@DIK_F5@
CONST	SEGMENT
??_C@_06JAOLGPCH@DIK_F5@ DB 'DIK_F5', 00H		; `string'
CONST	ENDS
;	COMDAT ??_C@_06IJPAFOGG@DIK_F4@
CONST	SEGMENT
??_C@_06IJPAFOGG@DIK_F4@ DB 'DIK_F4', 00H		; `string'
CONST	ENDS
;	COMDAT ??_C@_06MGLBMIKB@DIK_F3@
CONST	SEGMENT
??_C@_06MGLBMIKB@DIK_F3@ DB 'DIK_F3', 00H		; `string'
CONST	ENDS
;	COMDAT ??_C@_06NPKKPJOA@DIK_F2@
CONST	SEGMENT
??_C@_06NPKKPJOA@DIK_F2@ DB 'DIK_F2', 00H		; `string'
CONST	ENDS
;	COMDAT ??_C@_06PEIHKKCD@DIK_F1@
CONST	SEGMENT
??_C@_06PEIHKKCD@DIK_F1@ DB 'DIK_F1', 00H		; `string'
CONST	ENDS
;	COMDAT ??_C@_0M@KEADBGIC@DIK_CAPITAL@
CONST	SEGMENT
??_C@_0M@KEADBGIC@DIK_CAPITAL@ DB 'DIK_CAPITAL', 00H	; `string'
CONST	ENDS
;	COMDAT ??_C@_09DGAMMAPJ@DIK_SPACE@
CONST	SEGMENT
??_C@_09DGAMMAPJ@DIK_SPACE@ DB 'DIK_SPACE', 00H		; `string'
CONST	ENDS
;	COMDAT ??_C@_08OHCJNNJ@DIK_LALT@
CONST	SEGMENT
??_C@_08OHCJNNJ@DIK_LALT@ DB 'DIK_LALT', 00H		; `string'
CONST	ENDS
;	COMDAT ??_C@_0N@DHLLGHHC@DIK_MULTIPLY@
CONST	SEGMENT
??_C@_0N@DHLLGHHC@DIK_MULTIPLY@ DB 'DIK_MULTIPLY', 00H	; `string'
CONST	ENDS
;	COMDAT ??_C@_0L@FKIIJLHO@DIK_RSHIFT@
CONST	SEGMENT
??_C@_0L@FKIIJLHO@DIK_RSHIFT@ DB 'DIK_RSHIFT', 00H	; `string'
CONST	ENDS
;	COMDAT ??_C@_09DKJEGHEH@DIK_SLASH@
CONST	SEGMENT
??_C@_09DKJEGHEH@DIK_SLASH@ DB 'DIK_SLASH', 00H		; `string'
CONST	ENDS
;	COMDAT ??_C@_0L@HHNLMNCM@DIK_PERIOD@
CONST	SEGMENT
??_C@_0L@HHNLMNCM@DIK_PERIOD@ DB 'DIK_PERIOD', 00H	; `string'
CONST	ENDS
;	COMDAT ??_C@_09PDEOJFIH@DIK_COMMA@
CONST	SEGMENT
??_C@_09PDEOJFIH@DIK_COMMA@ DB 'DIK_COMMA', 00H		; `string'
CONST	ENDS
;	COMDAT ??_C@_05OBDFKLOH@DIK_M@
CONST	SEGMENT
??_C@_05OBDFKLOH@DIK_M@ DB 'DIK_M', 00H			; `string'
CONST	ENDS
;	COMDAT ??_C@_05MKBIPICE@DIK_N@
CONST	SEGMENT
??_C@_05MKBIPICE@DIK_N@ DB 'DIK_N', 00H			; `string'
CONST	ENDS
;	COMDAT ??_C@_05GGKNLHCI@DIK_B@
CONST	SEGMENT
??_C@_05GGKNLHCI@DIK_B@ DB 'DIK_B', 00H			; `string'
CONST	ENDS
;	COMDAT ??_C@_05EIADGAHN@DIK_V@
CONST	SEGMENT
??_C@_05EIADGAHN@DIK_V@ DB 'DIK_V', 00H			; `string'
CONST	ENDS
;	COMDAT ??_C@_05HPLGIGGJ@DIK_C@
CONST	SEGMENT
??_C@_05HPLGIGGJ@DIK_C@ DB 'DIK_C', 00H			; `string'
CONST	ENDS
;	COMDAT ??_C@_05NGIAENPD@DIK_X@
CONST	SEGMENT
??_C@_05NGIAENPD@DIK_X@ DB 'DIK_X', 00H			; `string'
CONST	ENDS
;	COMDAT ??_C@_05OELGCPHB@DIK_Z@
CONST	SEGMENT
??_C@_05OELGCPHB@DIK_Z@ DB 'DIK_Z', 00H			; `string'
CONST	ENDS
;	COMDAT ??_C@_0O@DGKNNOHE@DIK_BACKSLASH@
CONST	SEGMENT
??_C@_0O@DGKNNOHE@DIK_BACKSLASH@ DB 'DIK_BACKSLASH', 00H ; `string'
CONST	ENDS
;	COMDAT ??_C@_0L@GNGJHMON@DIK_LSHIFT@
CONST	SEGMENT
??_C@_0L@GNGJHMON@DIK_LSHIFT@ DB 'DIK_LSHIFT', 00H	; `string'
CONST	ENDS
;	COMDAT ??_C@_09MOGGLCIP@DIK_GRAVE@
CONST	SEGMENT
??_C@_09MOGGLCIP@DIK_GRAVE@ DB 'DIK_GRAVE', 00H		; `string'
CONST	ENDS
;	COMDAT ??_C@_0P@JDEKLKAM@DIK_APOSTROPHE@
CONST	SEGMENT
??_C@_0P@JDEKLKAM@DIK_APOSTROPHE@ DB 'DIK_APOSTROPHE', 00H ; `string'
CONST	ENDS
;	COMDAT ??_C@_0O@NEECDLLB@DIK_SEMICOLON@
CONST	SEGMENT
??_C@_0O@NEECDLLB@DIK_SEMICOLON@ DB 'DIK_SEMICOLON', 00H ; `string'
CONST	ENDS
;	COMDAT ??_C@_05PICOJKKG@DIK_L@
CONST	SEGMENT
??_C@_05PICOJKKG@DIK_L@ DB 'DIK_L', 00H			; `string'
CONST	ENDS
;	COMDAT ??_C@_05LHGPAMGB@DIK_K@
CONST	SEGMENT
??_C@_05LHGPAMGB@DIK_K@ DB 'DIK_K', 00H			; `string'
CONST	ENDS
;	COMDAT ??_C@_05KOHEDNCA@DIK_J@
CONST	SEGMENT
??_C@_05KOHEDNCA@DIK_J@ DB 'DIK_J', 00H			; `string'
CONST	ENDS
;	COMDAT ??_C@_05JMECFPKC@DIK_H@
CONST	SEGMENT
??_C@_05JMECFPKC@DIK_H@ DB 'DIK_H', 00H			; `string'
CONST	ENDS
;	COMDAT ??_C@_05BLNKEDGN@DIK_G@
CONST	SEGMENT
??_C@_05BLNKEDGN@DIK_G@ DB 'DIK_G', 00H			; `string'
CONST	ENDS
;	COMDAT ??_C@_05CMBHCCM@DIK_F@
CONST	SEGMENT
??_C@_05CMBHCCM@DIK_F@ DB 'DIK_F', 00H			; `string'
CONST	ENDS
;	COMDAT ??_C@_05DAPHBAKO@DIK_D@
CONST	SEGMENT
??_C@_05DAPHBAKO@DIK_D@ DB 'DIK_D', 00H			; `string'
CONST	ENDS
;	COMDAT ??_C@_05DFHEJEDI@DIK_S@
CONST	SEGMENT
??_C@_05DFHEJEDI@DIK_S@ DB 'DIK_S', 00H			; `string'
CONST	ENDS
;	COMDAT ??_C@_05ENIAOEOL@DIK_A@
CONST	SEGMENT
??_C@_05ENIAOEOL@DIK_A@ DB 'DIK_A', 00H			; `string'
CONST	ENDS
;	COMDAT ??_C@_0N@ODLLDAI@DIK_LCONTROL@
CONST	SEGMENT
??_C@_0N@ODLLDAI@DIK_LCONTROL@ DB 'DIK_LCONTROL', 00H	; `string'
CONST	ENDS
;	COMDAT ??_C@_0L@JLNKBJCL@DIK_RETURN@
CONST	SEGMENT
??_C@_0L@JLNKBJCL@DIK_RETURN@ DB 'DIK_RETURN', 00H	; `string'
CONST	ENDS
;	COMDAT ??_C@_0N@CBJBCLKG@DIK_RBRACKET@
CONST	SEGMENT
??_C@_0N@CBJBCLKG@DIK_RBRACKET@ DB 'DIK_RBRACKET', 00H	; `string'
CONST	ENDS
;	COMDAT ??_C@_0N@EFJDLCEF@DIK_LBRACKET@
CONST	SEGMENT
??_C@_0N@EFJDLCEF@DIK_LBRACKET@ DB 'DIK_LBRACKET', 00H	; `string'
CONST	ENDS
;	COMDAT ??_C@_05BOFJMHPL@DIK_P@
CONST	SEGMENT
??_C@_05BOFJMHPL@DIK_P@ DB 'DIK_P', 00H			; `string'
CONST	ENDS
;	COMDAT ??_C@_05NDADMJGF@DIK_O@
CONST	SEGMENT
??_C@_05NDADMJGF@DIK_O@ DB 'DIK_O', 00H			; `string'
CONST	ENDS
;	COMDAT ??_C@_05IFFJGOOD@DIK_I@
CONST	SEGMENT
??_C@_05IFFJGOOD@DIK_I@ DB 'DIK_I', 00H			; `string'
CONST	ENDS
;	COMDAT ??_C@_05GDCODDLO@DIK_U@
CONST	SEGMENT
??_C@_05GDCODDLO@DIK_U@ DB 'DIK_U', 00H			; `string'
CONST	ENDS
;	COMDAT ??_C@_05MPJLHMLC@DIK_Y@
CONST	SEGMENT
??_C@_05MPJLHMLC@DIK_Y@ DB 'DIK_Y', 00H			; `string'
CONST	ENDS
;	COMDAT ??_C@_05HKDFACPP@DIK_T@
CONST	SEGMENT
??_C@_05HKDFACPP@DIK_T@ DB 'DIK_T', 00H			; `string'
CONST	ENDS
;	COMDAT ??_C@_05CMGPKFHJ@DIK_R@
CONST	SEGMENT
??_C@_05CMGPKFHJ@DIK_R@ DB 'DIK_R', 00H			; `string'
CONST	ENDS
;	COMDAT ??_C@_05CJOMCBOP@DIK_E@
CONST	SEGMENT
??_C@_05CJOMCBOP@DIK_E@ DB 'DIK_E', 00H			; `string'
CONST	ENDS
;	COMDAT ??_C@_05FBBIFBDM@DIK_W@
CONST	SEGMENT
??_C@_05FBBIFBDM@DIK_W@ DB 'DIK_W', 00H			; `string'
CONST	ENDS
;	COMDAT ??_C@_05HECPGLK@DIK_Q@
CONST	SEGMENT
??_C@_05HECPGLK@DIK_Q@ DB 'DIK_Q', 00H			; `string'
CONST	ENDS
;	COMDAT ??_C@_07MODNCMBL@DIK_TAB@
CONST	SEGMENT
??_C@_07MODNCMBL@DIK_TAB@ DB 'DIK_TAB', 00H		; `string'
CONST	ENDS
;	COMDAT ??_C@_08HHEEGKBL@DIK_BACK@
CONST	SEGMENT
??_C@_08HHEEGKBL@DIK_BACK@ DB 'DIK_BACK', 00H		; `string'
CONST	ENDS
;	COMDAT ??_C@_0L@KKCLPAPI@DIK_EQUALS@
CONST	SEGMENT
??_C@_0L@KKCLPAPI@DIK_EQUALS@ DB 'DIK_EQUALS', 00H	; `string'
CONST	ENDS
;	COMDAT ??_C@_09DOHACMKC@DIK_MINUS@
CONST	SEGMENT
??_C@_09DOHACMKC@DIK_MINUS@ DB 'DIK_MINUS', 00H		; `string'
CONST	ENDS
;	COMDAT ??_C@_05HLKEKMFM@DIK_0@
CONST	SEGMENT
??_C@_05HLKEKMFM@DIK_0@ DB 'DIK_0', 00H			; `string'
CONST	ENDS
;	COMDAT ??_C@_05KKGGBHBF@DIK_9@
CONST	SEGMENT
??_C@_05KKGGBHBF@DIK_9@ DB 'DIK_9', 00H			; `string'
CONST	ENDS
;	COMDAT ??_C@_05LDHNCGFE@DIK_8@
CONST	SEGMENT
??_C@_05LDHNCGFE@DIK_8@ DB 'DIK_8', 00H			; `string'
CONST	ENDS
;	COMDAT ??_C@_05DEOFDKJL@DIK_7@
CONST	SEGMENT
??_C@_05DEOFDKJL@DIK_7@ DB 'DIK_7', 00H			; `string'
CONST	ENDS
;	COMDAT ??_C@_05CNPOALNK@DIK_6@
CONST	SEGMENT
??_C@_05CNPOALNK@DIK_6@ DB 'DIK_6', 00H			; `string'
CONST	ENDS
;	COMDAT ??_C@_05GNDFIBJ@DIK_5@
CONST	SEGMENT
??_C@_05GNDFIBJ@DIK_5@ DB 'DIK_5', 00H			; `string'
CONST	ENDS
;	COMDAT ??_C@_05BPMIGJFI@DIK_4@
CONST	SEGMENT
??_C@_05BPMIGJFI@DIK_4@ DB 'DIK_4', 00H			; `string'
CONST	ENDS
;	COMDAT ??_C@_05FAIJPPJP@DIK_3@
CONST	SEGMENT
??_C@_05FAIJPPJP@DIK_3@ DB 'DIK_3', 00H			; `string'
CONST	ENDS
;	COMDAT ??_C@_05EJJCMONO@DIK_2@
CONST	SEGMENT
??_C@_05EJJCMONO@DIK_2@ DB 'DIK_2', 00H			; `string'
CONST	ENDS
;	COMDAT ??_C@_05GCLPJNBN@DIK_1@
CONST	SEGMENT
??_C@_05GCLPJNBN@DIK_1@ DB 'DIK_1', 00H			; `string'
CONST	ENDS
;	COMDAT ??_C@_07CACBFKLO@DIK_ESC@
CONST	SEGMENT
??_C@_07CACBFKLO@DIK_ESC@ DB 'DIK_ESC', 00H		; `string'
CONST	ENDS
;	COMDAT ??_C@_0L@BOHNMBC@DIK_ESCAPE@
CONST	SEGMENT
??_C@_0L@BOHNMBC@DIK_ESCAPE@ DB 'DIK_ESCAPE', 00H	; `string'
CONST	ENDS
;	COMDAT ??_C@_09EABNPHOI@VK_DELETE@
CONST	SEGMENT
??_C@_09EABNPHOI@VK_DELETE@ DB 'VK_DELETE', 00H		; `string'
CONST	ENDS
;	COMDAT ??_C@_06LPJBNMHN@VK_END@
CONST	SEGMENT
??_C@_06LPJBNMHN@VK_END@ DB 'VK_END', 00H		; `string'
CONST	ENDS
;	COMDAT ??_C@_07OMPILPEG@VK_HOME@
CONST	SEGMENT
??_C@_07OMPILPEG@VK_HOME@ DB 'VK_HOME', 00H		; `string'
CONST	ENDS
;	COMDAT ??_C@_07NLENKNCK@VK_DOWN@
CONST	SEGMENT
??_C@_07NLENKNCK@VK_DOWN@ DB 'VK_DOWN', 00H		; `string'
CONST	ENDS
;	COMDAT ??_C@_05PIGLHCBF@VK_UP@
CONST	SEGMENT
??_C@_05PIGLHCBF@VK_UP@ DB 'VK_UP', 00H			; `string'
CONST	ENDS
;	COMDAT ??_C@_08LOMCDCA@VK_RIGHT@
CONST	SEGMENT
??_C@_08LOMCDCA@VK_RIGHT@ DB 'VK_RIGHT', 00H		; `string'
CONST	ENDS
;	COMDAT ??_C@_07CJEJDFBD@VK_LEFT@
CONST	SEGMENT
??_C@_07CJEJDFBD@VK_LEFT@ DB 'VK_LEFT', 00H		; `string'
CONST	ENDS
;	COMDAT ??_C@_0BG@JGNHHMCM@DEGREE_DIRECTION_LEFT@
CONST	SEGMENT
??_C@_0BG@JGNHHMCM@DEGREE_DIRECTION_LEFT@ DB 'DEGREE_DIRECTION_LEFT', 00H ; `string'
CONST	ENDS
;	COMDAT ??_C@_0BH@LNDFJAFE@DEGREE_DIRECTION_RIGHT@
CONST	SEGMENT
??_C@_0BH@LNDFJAFE@DEGREE_DIRECTION_RIGHT@ DB 'DEGREE_DIRECTION_RIGHT', 00H ; `string'
CONST	ENDS
;	COMDAT ??_C@_0BG@KEIJCHNJ@DEGREE_DIRECTION_SAME@
CONST	SEGMENT
??_C@_0BG@KEIJCHNJ@DEGREE_DIRECTION_SAME@ DB 'DEGREE_DIRECTION_SAME', 00H ; `string'
CONST	ENDS
;	COMDAT ??_C@_0O@FAGLOALJ@INFO_TEXTTAIL@
CONST	SEGMENT
??_C@_0O@FAGLOALJ@INFO_TEXTTAIL@ DB 'INFO_TEXTTAIL', 00H ; `string'
CONST	ENDS
;	COMDAT ??_C@_0M@KLBHMBMD@INFO_EFFECT@
CONST	SEGMENT
??_C@_0M@KLBHMBMD@INFO_EFFECT@ DB 'INFO_EFFECT', 00H	; `string'
CONST	ENDS
;	COMDAT ??_C@_0L@FNNFPLHG@INFO_ACTOR@
CONST	SEGMENT
??_C@_0L@FNNFPLHG@INFO_ACTOR@ DB 'INFO_ACTOR', 00H	; `string'
CONST	ENDS
;	COMDAT ??_C@_09OKOJMLAA@INFO_ITEM@
CONST	SEGMENT
??_C@_09OKOJMLAA@INFO_ITEM@ DB 'INFO_ITEM', 00H		; `string'
CONST	ENDS
;	COMDAT ??_C@_03CGOPKBCD@app@
CONST	SEGMENT
??_C@_03CGOPKBCD@app@ DB 'app', 00H			; `string'
CONST	ENDS
;	COMDAT ??_C@_0M@JMIFNMOK@OnLogoClose@
CONST	SEGMENT
??_C@_0M@JMIFNMOK@OnLogoClose@ DB 'OnLogoClose', 00H	; `string'
CONST	ENDS
;	COMDAT ??_C@_0L@JMMGDKPP@OnLogoOpen@
CONST	SEGMENT
??_C@_0L@JMMGDKPP@OnLogoOpen@ DB 'OnLogoOpen', 00H	; `string'
CONST	ENDS
;	COMDAT ??_C@_0N@ELECBFOK@OnLogoRender@
CONST	SEGMENT
??_C@_0N@ELECBFOK@OnLogoRender@ DB 'OnLogoRender', 00H	; `string'
CONST	ENDS
;	COMDAT ??_C@_0N@LIPHBNAO@OnLogoUpdate@
CONST	SEGMENT
??_C@_0N@LIPHBNAO@OnLogoUpdate@ DB 'OnLogoUpdate', 00H	; `string'
CONST	ENDS
;	COMDAT ??_C@_0BB@DLDOCGLL@SetGuildMarkPath@
CONST	SEGMENT
??_C@_0BB@DLDOCGLL@SetGuildMarkPath@ DB 'SetGuildMarkPath', 00H ; `string'
CONST	ENDS
;	COMDAT ??_C@_0BH@GBDECBIH@IsEnableTestServerFlag@
CONST	SEGMENT
??_C@_0BH@GBDECBIH@IsEnableTestServerFlag@ DB 'IsEnableTestServerFlag', 00H ; `string'
CONST	ENDS
;	COMDAT ??_C@_0BF@BOMOCGIP@EnableTestServerFlag@
CONST	SEGMENT
??_C@_0BF@BOMOCGIP@EnableTestServerFlag@ DB 'EnableTestServerFlag', 00H ; `string'
CONST	ENDS
;	COMDAT ??_C@_0BA@NLDNPIOL@IsVisibleNotice@
CONST	SEGMENT
??_C@_0BA@NLDNPIOL@IsVisibleNotice@ DB 'IsVisibleNotice', 00H ; `string'
CONST	ENDS
;	COMDAT ??_C@_0BB@MMPIECKB@SetVisibleNotice@
CONST	SEGMENT
??_C@_0BB@MMPIECKB@SetVisibleNotice@ DB 'SetVisibleNotice', 00H ; `string'
CONST	ENDS
;	COMDAT ??_C@_0BF@KHKICLKO@testSetSpecularColor@
CONST	SEGMENT
??_C@_0BF@KHKICLKO@testSetSpecularColor@ DB 'testSetSpecularColor', 00H ; `string'
CONST	ENDS
;	COMDAT ??_C@_0BK@PLDHJGMN@testResetAccumulationTime@
CONST	SEGMENT
??_C@_0BK@PLDHJGMN@testResetAccumulationTime@ DB 'testResetAccumulationTi'
	DB	'me', 00H					; `string'
CONST	ENDS
;	COMDAT ??_C@_0BI@DNKBNLNC@testGetAccumulationTime@
CONST	SEGMENT
??_C@_0BI@DNKBNLNC@testGetAccumulationTime@ DB 'testGetAccumulationTime', 00H ; `string'
CONST	ENDS
;	COMDAT ??_C@_0BB@IFMAFIHG@SetSpecularSpeed@
CONST	SEGMENT
??_C@_0BB@IFMAFIHG@SetSpecularSpeed@ DB 'SetSpecularSpeed', 00H ; `string'
CONST	ENDS
;	COMDAT ??_C@_0N@HDAEMEAH@SetControlFP@
CONST	SEGMENT
??_C@_0N@HDAEMEAH@SetControlFP@ DB 'SetControlFP', 00H	; `string'
CONST	ENDS
;	COMDAT ??_C@_0BD@CEMKCGHA@GetDefaultCodePage@
CONST	SEGMENT
??_C@_0BD@CEMKCGHA@GetDefaultCodePage@ DB 'GetDefaultCodePage', 00H ; `string'
CONST	ENDS
;	COMDAT ??_C@_09INPKBHN@IsCHEONMA@
CONST	SEGMENT
??_C@_09INPKBHN@IsCHEONMA@ DB 'IsCHEONMA', 00H		; `string'
CONST	ENDS
;	COMDAT ??_C@_0L@FAIOENFF@SetCHEONMA@
CONST	SEGMENT
??_C@_0L@FAIOENFF@SetCHEONMA@ DB 'SetCHEONMA', 00H	; `string'
CONST	ENDS
;	COMDAT ??_C@_0P@BFJDMEJO@LoadLocaleData@
CONST	SEGMENT
??_C@_0P@BFJDMEJO@LoadLocaleData@ DB 'LoadLocaleData', 00H ; `string'
CONST	ENDS
;	COMDAT ??_C@_0P@JHGEFJDO@LoadLocaleAddr@
CONST	SEGMENT
??_C@_0P@JHGEFJDO@LoadLocaleAddr@ DB 'LoadLocaleAddr', 00H ; `string'
CONST	ENDS
;	COMDAT ??_C@_0P@KMAINBBA@ForceSetLocale@
CONST	SEGMENT
??_C@_0P@KMAINBBA@ForceSetLocale@ DB 'ForceSetLocale', 00H ; `string'
CONST	ENDS
;	COMDAT ??_C@_0O@OKMLAHKI@GetLocalePath@
CONST	SEGMENT
??_C@_0O@OKMLAHKI@GetLocalePath@ DB 'GetLocalePath', 00H ; `string'
CONST	ENDS
;	COMDAT ??_C@_0O@JDECMIPJ@GetLocaleName@
CONST	SEGMENT
??_C@_0O@JDECMIPJ@GetLocaleName@ DB 'GetLocaleName', 00H ; `string'
CONST	ENDS
;	COMDAT ??_C@_0BF@PBACFPCP@GetLocaleServiceName@
CONST	SEGMENT
??_C@_0BF@PBACFPCP@GetLocaleServiceName@ DB 'GetLocaleServiceName', 00H ; `string'
CONST	ENDS
;	COMDAT ??_C@_0BA@HHNFKANE@GetTextFileLine@
CONST	SEGMENT
??_C@_0BA@HHNFKANE@GetTextFileLine@ DB 'GetTextFileLine', 00H ; `string'
CONST	ENDS
;	COMDAT ??_C@_0BF@BNHHEKFO@GetTextFileLineCount@
CONST	SEGMENT
??_C@_0BF@BNHHEKFO@GetTextFileLineCount@ DB 'GetTextFileLineCount', 00H ; `string'
CONST	ENDS
;	COMDAT ??_C@_0O@LNEGOIPA@CloseTextFile@
CONST	SEGMENT
??_C@_0O@LNEGOIPA@CloseTextFile@ DB 'CloseTextFile', 00H ; `string'
CONST	ENDS
;	COMDAT ??_C@_0N@JAMKKFFG@OpenTextFile@
CONST	SEGMENT
??_C@_0N@JAMKKFFG@OpenTextFile@ DB 'OpenTextFile', 00H	; `string'
CONST	ENDS
;	COMDAT ??_C@_0M@LOHDPEAO@IsFileExist@
CONST	SEGMENT
??_C@_0M@LOHDPEAO@IsFileExist@ DB 'IsFileExist', 00H	; `string'
CONST	ENDS
;	COMDAT ??_C@_0O@MFMELJAK@SetSightRange@
CONST	SEGMENT
??_C@_0O@MFMELJAK@SetSightRange@ DB 'SetSightRange', 00H ; `string'
CONST	ENDS
;	COMDAT ??_C@_0BB@JANPDNEC@SetCameraSetting@
CONST	SEGMENT
??_C@_0BB@JANPDNEC@SetCameraSetting@ DB 'SetCameraSetting', 00H ; `string'
CONST	ENDS
;	COMDAT ??_C@_0BB@IPPGJFKO@SetDefaultCamera@
CONST	SEGMENT
??_C@_0BB@IPPGJFKO@SetDefaultCamera@ DB 'SetDefaultCamera', 00H ; `string'
CONST	ENDS
;	COMDAT ??_C@_0BC@KEOGBKMG@LoadCameraSetting@
CONST	SEGMENT
??_C@_0BC@KEOGBKMG@LoadCameraSetting@ DB 'LoadCameraSetting', 00H ; `string'
CONST	ENDS
;	COMDAT ??_C@_0BC@JPDLAHCD@SaveCameraSetting@
CONST	SEGMENT
??_C@_0BC@JPDLAHCD@SaveCameraSetting@ DB 'SaveCameraSetting', 00H ; `string'
CONST	ENDS
;	COMDAT ??_C@_0P@NCLIAJKF@SetCameraSpeed@
CONST	SEGMENT
??_C@_0P@NCLIAJKF@SetCameraSpeed@ DB 'SetCameraSpeed', 00H ; `string'
CONST	ENDS
;	COMDAT ??_C@_0BI@LNMJCGJN@EnableSpecialCameraMode@
CONST	SEGMENT
??_C@_0BI@LNMJCGJN@EnableSpecialCameraMode@ DB 'EnableSpecialCameraMode', 00H ; `string'
CONST	ENDS
;	COMDAT ??_C@_0BD@CENDFAOC@SetGuildSymbolPath@
CONST	SEGMENT
??_C@_0BD@CENDFAOC@SetGuildSymbolPath@ DB 'SetGuildSymbolPath', 00H ; `string'
CONST	ENDS
;	COMDAT ??_C@_0BD@CKMKHHJC@SetDefaultFontName@
CONST	SEGMENT
??_C@_0BD@CKMKHHJC@SetDefaultFontName@ DB 'SetDefaultFontName', 00H ; `string'
CONST	ENDS
;	COMDAT ??_C@_05PFDOMJEF@Sleep@
CONST	SEGMENT
??_C@_05PFDOMJEF@Sleep@ DB 'Sleep', 00H			; `string'
CONST	ENDS
;	COMDAT ??_C@_0BE@JKNPCCAK@GetDegreeDifference@
CONST	SEGMENT
??_C@_0BE@JKNPCCAK@GetDegreeDifference@ DB 'GetDegreeDifference', 00H ; `string'
CONST	ENDS
;	COMDAT ??_C@_0BF@IMHAMDDH@GetRotatingDirection@
CONST	SEGMENT
??_C@_0BF@IMHAMDDH@GetRotatingDirection@ DB 'GetRotatingDirection', 00H ; `string'
CONST	ENDS
;	COMDAT ??_C@_0P@GHKKFFNH@GetConnectData@
CONST	SEGMENT
??_C@_0P@GHKKFFNH@GetConnectData@ DB 'GetConnectData', 00H ; `string'
CONST	ENDS
;	COMDAT ??_C@_0P@KJLEKPPL@SetConnectData@
CONST	SEGMENT
??_C@_0P@KJLEKPPL@SetConnectData@ DB 'SetConnectData', 00H ; `string'
CONST	ENDS
;	COMDAT ??_C@_0BC@KKHIHHDJ@SetHardwareCursor@
CONST	SEGMENT
??_C@_0BC@KKHIHHDJ@SetHardwareCursor@ DB 'SetHardwareCursor', 00H ; `string'
CONST	ENDS
;	COMDAT ??_C@_0BC@IDNDDKLI@SetSoftwareCursor@
CONST	SEGMENT
??_C@_0BC@IDNDDKLI@SetSoftwareCursor@ DB 'SetSoftwareCursor', 00H ; `string'
CONST	ENDS
;	COMDAT ??_C@_0P@FMIDHOAE@IsLiarCursorOn@
CONST	SEGMENT
??_C@_0P@FMIDHOAE@IsLiarCursorOn@ DB 'IsLiarCursorOn', 00H ; `string'
CONST	ENDS
;	COMDAT ??_C@_0N@BFHCIAEF@IsShowCursor@
CONST	SEGMENT
??_C@_0N@BFHCIAEF@IsShowCursor@ DB 'IsShowCursor', 00H	; `string'
CONST	ENDS
;	COMDAT ??_C@_0L@MGJDDPFG@HideCursor@
CONST	SEGMENT
??_C@_0L@MGJDDPFG@HideCursor@ DB 'HideCursor', 00H	; `string'
CONST	ENDS
;	COMDAT ??_C@_0L@BIENLPGM@ShowCursor@
CONST	SEGMENT
??_C@_0L@BIENLPGM@ShowCursor@ DB 'ShowCursor', 00H	; `string'
CONST	ENDS
;	COMDAT ??_C@_09NEOLAIPD@GetCursor@
CONST	SEGMENT
??_C@_09NEOLAIPD@GetCursor@ DB 'GetCursor', 00H		; `string'
CONST	ENDS
;	COMDAT ??_C@_09PKKOCJGB@SetCursor@
CONST	SEGMENT
??_C@_09PKKOCJGB@SetCursor@ DB 'SetCursor', 00H		; `string'
CONST	ENDS
;	COMDAT ??_C@_09EJGJNKNL@IsPressed@
CONST	SEGMENT
??_C@_09EJGJNKNL@IsPressed@ DB 'IsPressed', 00H		; `string'
CONST	ENDS
;	COMDAT ??_C@_0M@HKOOBKOE@HideWebPage@
CONST	SEGMENT
??_C@_0M@HKOOBKOE@HideWebPage@ DB 'HideWebPage', 00H	; `string'
CONST	ENDS
;	COMDAT ??_C@_0M@CJKDPGGC@MoveWebPage@
CONST	SEGMENT
??_C@_0M@CJKDPGGC@MoveWebPage@ DB 'MoveWebPage', 00H	; `string'
CONST	ENDS
;	COMDAT ??_C@_0M@LMDMBNNG@ShowWebPage@
CONST	SEGMENT
??_C@_0M@LMDMBNNG@ShowWebPage@ DB 'ShowWebPage', 00H	; `string'
CONST	ENDS
;	COMDAT ??_C@_0O@JGKOEJBF@IsWebPageMode@
CONST	SEGMENT
??_C@_0O@JGKOEJBF@IsWebPageMode@ DB 'IsWebPageMode', 00H ; `string'
CONST	ENDS
;	COMDAT ??_C@_0O@NFOAEJMI@RunPythonFile@
CONST	SEGMENT
??_C@_0O@NFOAEJMI@RunPythonFile@ DB 'RunPythonFile', 00H ; `string'
CONST	ENDS
;	COMDAT ??_C@_09CIIBMEDP@GetRandom@
CONST	SEGMENT
??_C@_09CIIBMEDP@GetRandom@ DB 'GetRandom', 00H		; `string'
CONST	ENDS
;	COMDAT ??_C@_0BC@DJJGDMOB@GetCursorPosition@
CONST	SEGMENT
??_C@_0BC@DJJGDMOB@GetCursorPosition@ DB 'GetCursorPosition', 00H ; `string'
CONST	ENDS
;	COMDAT ??_C@_0BC@MCKFCFLJ@SetCenterPosition@
CONST	SEGMENT
??_C@_0BC@MCKFCFLJ@SetCenterPosition@ DB 'SetCenterPosition', 00H ; `string'
CONST	ENDS
;	COMDAT ??_C@_0BI@BPPNOEKE@SetGlobalCenterPosition@
CONST	SEGMENT
??_C@_0BI@BPPNOEKE@SetGlobalCenterPosition@ DB 'SetGlobalCenterPosition', 00H ; `string'
CONST	ENDS
;	COMDAT ??_C@_06GHJACMIL@SetFPS@
CONST	SEGMENT
??_C@_06GHJACMIL@SetFPS@ DB 'SetFPS', 00H		; `string'
CONST	ENDS
;	COMDAT ??_C@_0N@FGHMKANF@GetFaceCount@
CONST	SEGMENT
??_C@_0N@FGHMKANF@GetFaceCount@ DB 'GetFaceCount', 00H	; `string'
CONST	ENDS
;	COMDAT ??_C@_0N@KBJEAIDC@GetFaceSpeed@
CONST	SEGMENT
??_C@_0N@KBJEAIDC@GetFaceSpeed@ DB 'GetFaceSpeed', 00H	; `string'
CONST	ENDS
;	COMDAT ??_C@_07EGHKJKFO@GetLoad@
CONST	SEGMENT
??_C@_07EGHKJKFO@GetLoad@ DB 'GetLoad', 00H		; `string'
CONST	ENDS
;	COMDAT ??_C@_0O@EPOIPAHO@GetUpdateTime@
CONST	SEGMENT
??_C@_0O@EPOIPAHO@GetUpdateTime@ DB 'GetUpdateTime', 00H ; `string'
CONST	ENDS
;	COMDAT ??_C@_0O@KFOAIOPC@GetRenderTime@
CONST	SEGMENT
??_C@_0O@KFOAIOPC@GetRenderTime@ DB 'GetRenderTime', 00H ; `string'
CONST	ENDS
;	COMDAT ??_C@_0BK@PBNANFFG@GetAvailableTextureMemory@
CONST	SEGMENT
??_C@_0BK@PBNANFFG@GetAvailableTextureMemory@ DB 'GetAvailableTextureMemo'
	DB	'ry', 00H					; `string'
CONST	ENDS
;	COMDAT ??_C@_0BB@PJGDEPJO@MovieResetCamera@
CONST	SEGMENT
??_C@_0BB@PJGDEPJO@MovieResetCamera@ DB 'MovieResetCamera', 00H ; `string'
CONST	ENDS
;	COMDAT ??_C@_0BA@ILLHHFGG@MovieZoomCamera@
CONST	SEGMENT
??_C@_0BA@ILLHHFGG@MovieZoomCamera@ DB 'MovieZoomCamera', 00H ; `string'
CONST	ENDS
;	COMDAT ??_C@_0BB@KFJAAFFB@MoviePitchCamera@
CONST	SEGMENT
??_C@_0BB@KFJAAFFB@MoviePitchCamera@ DB 'MoviePitchCamera', 00H ; `string'
CONST	ENDS
;	COMDAT ??_C@_0BC@FCGIGAKD@MovieRotateCamera@
CONST	SEGMENT
??_C@_0BC@FCGIGAKD@MovieRotateCamera@ DB 'MovieRotateCamera', 00H ; `string'
CONST	ENDS
;	COMDAT ??_C@_0L@BGDDIOFP@ZoomCamera@
CONST	SEGMENT
??_C@_0L@BGDDIOFP@ZoomCamera@ DB 'ZoomCamera', 00H	; `string'
CONST	ENDS
;	COMDAT ??_C@_0M@PKAIAJKC@PitchCamera@
CONST	SEGMENT
??_C@_0M@PKAIAJKC@PitchCamera@ DB 'PitchCamera', 00H	; `string'
CONST	ENDS
;	COMDAT ??_C@_0N@HGIDFLAJ@RotateCamera@
CONST	SEGMENT
??_C@_0N@HGIDFLAJ@RotateCamera@ DB 'RotateCamera', 00H	; `string'
CONST	ENDS
;	COMDAT ??_C@_0N@EHIMFGIG@GetRenderFPS@
CONST	SEGMENT
??_C@_0N@EHIMFGIG@GetRenderFPS@ DB 'GetRenderFPS', 00H	; `string'
CONST	ENDS
;	COMDAT ??_C@_0N@JKLFODAC@GetUpdateFPS@
CONST	SEGMENT
??_C@_0N@JKLFODAC@GetUpdateFPS@ DB 'GetUpdateFPS', 00H	; `string'
CONST	ENDS
;	COMDAT ??_C@_0BD@HGCMJHC@GetGlobalTimeStamp@
CONST	SEGMENT
??_C@_0BD@HGCMJHC@GetGlobalTimeStamp@ DB 'GetGlobalTimeStamp', 00H ; `string'
CONST	ENDS
;	COMDAT ??_C@_0O@JKNDJHIN@GetGlobalTime@
CONST	SEGMENT
??_C@_0O@JKNDJHIN@GetGlobalTime@ DB 'GetGlobalTime', 00H ; `string'
CONST	ENDS
;	COMDAT ??_C@_07CDIANBOE@GetTime@
CONST	SEGMENT
??_C@_07CDIANBOE@GetTime@ DB 'GetTime', 00H		; `string'
CONST	ENDS
;	COMDAT ??_C@_0BC@JICDJDCH@GetCameraRotation@
CONST	SEGMENT
??_C@_0BC@JICDJDCH@GetCameraRotation@ DB 'GetCameraRotation', 00H ; `string'
CONST	ENDS
;	COMDAT ??_C@_0P@LHFPHHJA@GetCameraPitch@
CONST	SEGMENT
??_C@_0P@LHFPHHJA@GetCameraPitch@ DB 'GetCameraPitch', 00H ; `string'
CONST	ENDS
;	COMDAT ??_C@_09KOHPDBNP@GetCamera@
CONST	SEGMENT
??_C@_09KOHPDBNP@GetCamera@ DB 'GetCamera', 00H		; `string'
CONST	ENDS
;	COMDAT ??_C@_09IADKBAEN@SetCamera@
CONST	SEGMENT
??_C@_09IADKBAEN@SetCamera@ DB 'SetCamera', 00H		; `string'
CONST	ENDS
;	COMDAT ??_C@_0M@KODKGGCI@GetFileList@
CONST	SEGMENT
??_C@_0M@KODKGGCI@GetFileList@ DB 'GetFileList', 00H	; `string'
CONST	ENDS
;	COMDAT ??_C@_0M@DHIFKLBN@IsExistFile@
CONST	SEGMENT
??_C@_0M@DHIFKLBN@IsExistFile@ DB 'IsExistFile', 00H	; `string'
CONST	ENDS
;	COMDAT ??_C@_0BA@PPCHHCMN@SetMouseHandler@
CONST	SEGMENT
??_C@_0BA@PPCHHCMN@SetMouseHandler@ DB 'SetMouseHandler', 00H ; `string'
CONST	ENDS
;	COMDAT ??_C@_05BGKIEECB@Abort@
CONST	SEGMENT
??_C@_05BGKIEECB@Abort@ DB 'Abort', 00H			; `string'
CONST	ENDS
;	COMDAT ??_C@_04LBABLPF@Exit@
CONST	SEGMENT
??_C@_04LBABLPF@Exit@ DB 'Exit', 00H			; `string'
CONST	ENDS
;	COMDAT ??_C@_07MNGBFJEN@Process@
CONST	SEGMENT
??_C@_07MNGBFJEN@Process@ DB 'Process', 00H		; `string'
CONST	ENDS
;	COMDAT ??_C@_06MIKANEJK@Create@
CONST	SEGMENT
??_C@_06MIKANEJK@Create@ DB 'Create', 00H		; `string'
CONST	ENDS
;	COMDAT ??_C@_04KLCPKPBE@Loop@
CONST	SEGMENT
??_C@_04KLCPKPBE@Loop@ DB 'Loop', 00H			; `string'
CONST	ENDS
;	COMDAT ??_C@_0L@ONMMANJD@RenderGame@
CONST	SEGMENT
??_C@_0L@ONMMANJD@RenderGame@ DB 'RenderGame', 00H	; `string'
CONST	ENDS
;	COMDAT ??_C@_0L@HMEHDBP@UpdateGame@
CONST	SEGMENT
??_C@_0L@HMEHDBP@UpdateGame@ DB 'UpdateGame', 00H	; `string'
CONST	ENDS
;	COMDAT ??_C@_07NAJNLNAF@GetInfo@
CONST	SEGMENT
??_C@_07NAJNLNAF@GetInfo@ DB 'GetInfo', 00H		; `string'
CONST	ENDS
;	COMDAT ??_C@_0N@CLLAGICL@GetImageInfo@
CONST	SEGMENT
??_C@_0N@CLLAGICL@GetImageInfo@ DB 'GetImageInfo', 00H	; `string'
CONST	ENDS
;	COMDAT ??_C@_0N@KCIEBLLG@SetFrameSkip@
CONST	SEGMENT
??_C@_0N@KCIEBLLG@SetFrameSkip@ DB 'SetFrameSkip', 00H	; `string'
CONST	ENDS
;	COMDAT ??_C@_09ILNFAENI@SetMinFog@
CONST	SEGMENT
??_C@_09ILNFAENI@SetMinFog@ DB 'SetMinFog', 00H		; `string'
CONST	ENDS
;	COMDAT ??_C@_0BF@CEAHHILA@SetCameraMaxDistance@
CONST	SEGMENT
??_C@_0BF@CEAHHILA@SetCameraMaxDistance@ DB 'SetCameraMaxDistance', 00H ; `string'
CONST	ENDS
;	COMDAT ??_C@_0BD@CPFDKOFJ@SetRideHorseEnable@
CONST	SEGMENT
??_C@_0BD@CPFDKOFJ@SetRideHorseEnable@ DB 'SetRideHorseEnable', 00H ; `string'
CONST	ENDS
;	COMDAT ??_C@_0CI@KEKBEMLJ@SetTwoHandedWeaponAttSpeedDecre@
CONST	SEGMENT
??_C@_0CI@KEKBEMLJ@SetTwoHandedWeaponAttSpeedDecre@ DB 'SetTwoHandedWeapo'
	DB	'nAttSpeedDecreaseValue', 00H		; `string'
CONST	ENDS
;	COMDAT ??_C@_0BM@CMPMDOBN@SetSkillEffectUpgradeEnable@
CONST	SEGMENT
??_C@_0BM@CMPMDOBN@SetSkillEffectUpgradeEnable@ DB 'SetSkillEffectUpgrade'
	DB	'Enable', 00H				; `string'
CONST	ENDS
;	COMDAT ??_C@_0BI@ONHBEMJA@SetWeaponSpecularEnable@
CONST	SEGMENT
??_C@_0BI@ONHBEMJA@SetWeaponSpecularEnable@ DB 'SetWeaponSpecularEnable', 00H ; `string'
CONST	ENDS
;	COMDAT ??_C@_0BH@PJOFIHBE@SetArmorSpecularEnable@
CONST	SEGMENT
??_C@_0BH@PJOFIHBE@SetArmorSpecularEnable@ DB 'SetArmorSpecularEnable', 00H ; `string'
CONST	ENDS
;	COMDAT ??_C@_0BD@PILPKKLH@SetHairColorEnable@
CONST	SEGMENT
??_C@_0BD@PILPKKLH@SetHairColorEnable@ DB 'SetHairColorEnable', 00H ; `string'
CONST	ENDS
;	COMDAT ??_C@_0BG@DEJFIMMP@EnablePerformanceTime@
CONST	SEGMENT
??_C@_0BG@DEJFIMMP@EnablePerformanceTime@ DB 'EnablePerformanceTime', 00H ; `string'
CONST	ENDS
;	COMDAT ??_C@_0BG@EOCGHNJF@SetTextTailLivingTime@
CONST	SEGMENT
??_C@_0BG@EOCGHNJF@SetTextTailLivingTime@ DB 'SetTextTailLivingTime', 00H ; `string'
CONST	ENDS
;	COMDAT ??_C@_0M@NJBHEFPA@IsLiveStage@
CONST	SEGMENT
??_C@_0M@NJBHEFPA@IsLiveStage@ DB 'IsLiveStage', 00H	; `string'
CONST	ENDS
;	COMDAT ??_C@_0M@ICBDOOOG@IsTestStage@
CONST	SEGMENT
??_C@_0M@ICBDOOOG@IsTestStage@ DB 'IsTestStage', 00H	; `string'
CONST	ENDS
;	COMDAT ??_C@_0L@OAAOKAFA@IsDevStage@
CONST	SEGMENT
??_C@_0L@OAAOKAFA@IsDevStage@ DB 'IsDevStage', 00H	; `string'
CONST	ENDS
;	COMDAT ?s_methods@?1??initapp@@YAXXZ@4PAUPyMethodDef@@A
_DATA	SEGMENT
?s_methods@?1??initapp@@YAXXZ@4PAUPyMethodDef@@A DD FLAT:??_C@_0L@OAAOKAFA@IsDevStage@ ; `initapp'::`2'::s_methods
	DD	FLAT:?appIsDevStage@@YAPAU_object@@PAU1@0@Z
	DD	01H
	ORG $+4
	DD	FLAT:??_C@_0M@ICBDOOOG@IsTestStage@
	DD	FLAT:?appIsTestStage@@YAPAU_object@@PAU1@0@Z
	DD	01H
	ORG $+4
	DD	FLAT:??_C@_0M@NJBHEFPA@IsLiveStage@
	DD	FLAT:?appIsLiveStage@@YAPAU_object@@PAU1@0@Z
	DD	01H
	ORG $+4
	DD	FLAT:??_C@_0BG@EOCGHNJF@SetTextTailLivingTime@
	DD	FLAT:?appSetTextTailLivingTime@@YAPAU_object@@PAU1@0@Z
	DD	01H
	ORG $+4
	DD	FLAT:??_C@_0BG@DEJFIMMP@EnablePerformanceTime@
	DD	FLAT:?appEnablePerformanceTime@@YAPAU_object@@PAU1@0@Z
	DD	01H
	ORG $+4
	DD	FLAT:??_C@_0BD@PILPKKLH@SetHairColorEnable@
	DD	FLAT:?appSetHairColorEnable@@YAPAU_object@@PAU1@0@Z
	DD	01H
	ORG $+4
	DD	FLAT:??_C@_0BH@PJOFIHBE@SetArmorSpecularEnable@
	DD	FLAT:?appSetArmorSpecularEnable@@YAPAU_object@@PAU1@0@Z
	DD	01H
	ORG $+4
	DD	FLAT:??_C@_0BI@ONHBEMJA@SetWeaponSpecularEnable@
	DD	FLAT:?appSetWeaponSpecularEnable@@YAPAU_object@@PAU1@0@Z
	DD	01H
	ORG $+4
	DD	FLAT:??_C@_0BM@CMPMDOBN@SetSkillEffectUpgradeEnable@
	DD	FLAT:?appSetSkillEffectUpgradeEnable@@YAPAU_object@@PAU1@0@Z
	DD	01H
	ORG $+4
	DD	FLAT:??_C@_0CI@KEKBEMLJ@SetTwoHandedWeaponAttSpeedDecre@
	DD	FLAT:?SetTwoHandedWeaponAttSpeedDecreaseValue@@YAPAU_object@@PAU1@0@Z
	DD	01H
	ORG $+4
	DD	FLAT:??_C@_0BD@CPFDKOFJ@SetRideHorseEnable@
	DD	FLAT:?appSetRideHorseEnable@@YAPAU_object@@PAU1@0@Z
	DD	01H
	ORG $+4
	DD	FLAT:??_C@_0BF@CEAHHILA@SetCameraMaxDistance@
	DD	FLAT:?appSetCameraMaxDistance@@YAPAU_object@@PAU1@0@Z
	DD	01H
	ORG $+4
	DD	FLAT:??_C@_09ILNFAENI@SetMinFog@
	DD	FLAT:?appSetMinFog@@YAPAU_object@@PAU1@0@Z
	DD	01H
	ORG $+4
	DD	FLAT:??_C@_0N@KCIEBLLG@SetFrameSkip@
	DD	FLAT:?appSetFrameSkip@@YAPAU_object@@PAU1@0@Z
	DD	01H
	ORG $+4
	DD	FLAT:??_C@_0N@CLLAGICL@GetImageInfo@
	DD	FLAT:?appGetImageInfo@@YAPAU_object@@PAU1@0@Z
	DD	01H
	ORG $+4
	DD	FLAT:??_C@_07NAJNLNAF@GetInfo@
	DD	FLAT:?appGetInfo@@YAPAU_object@@PAU1@0@Z
	DD	01H
	ORG $+4
	DD	FLAT:??_C@_0L@HMEHDBP@UpdateGame@
	DD	FLAT:?appUpdateGame@@YAPAU_object@@PAU1@0@Z
	DD	01H
	ORG $+4
	DD	FLAT:??_C@_0L@ONMMANJD@RenderGame@
	DD	FLAT:?appRenderGame@@YAPAU_object@@PAU1@0@Z
	DD	01H
	ORG $+4
	DD	FLAT:??_C@_04KLCPKPBE@Loop@
	DD	FLAT:?appLoop@@YAPAU_object@@PAU1@0@Z
	DD	01H
	ORG $+4
	DD	FLAT:??_C@_06MIKANEJK@Create@
	DD	FLAT:?appCreate@@YAPAU_object@@PAU1@0@Z
	DD	01H
	ORG $+4
	DD	FLAT:??_C@_07MNGBFJEN@Process@
	DD	FLAT:?appProcess@@YAPAU_object@@PAU1@0@Z
	DD	01H
	ORG $+4
	DD	FLAT:??_C@_04LBABLPF@Exit@
	DD	FLAT:?appExit@@YAPAU_object@@PAU1@0@Z
	DD	01H
	ORG $+4
	DD	FLAT:??_C@_05BGKIEECB@Abort@
	DD	FLAT:?appAbort@@YAPAU_object@@PAU1@0@Z
	DD	01H
	ORG $+4
	DD	FLAT:??_C@_0BA@PPCHHCMN@SetMouseHandler@
	DD	FLAT:?appSetMouseHandler@@YAPAU_object@@PAU1@0@Z
	DD	01H
	ORG $+4
	DD	FLAT:??_C@_0M@DHIFKLBN@IsExistFile@
	DD	FLAT:?appIsExistFile@@YAPAU_object@@PAU1@0@Z
	DD	01H
	ORG $+4
	DD	FLAT:??_C@_0M@KODKGGCI@GetFileList@
	DD	FLAT:?appGetFileList@@YAPAU_object@@PAU1@0@Z
	DD	01H
	ORG $+4
	DD	FLAT:??_C@_09IADKBAEN@SetCamera@
	DD	FLAT:?appSetCamera@@YAPAU_object@@PAU1@0@Z
	DD	01H
	ORG $+4
	DD	FLAT:??_C@_09KOHPDBNP@GetCamera@
	DD	FLAT:?appGetCamera@@YAPAU_object@@PAU1@0@Z
	DD	01H
	ORG $+4
	DD	FLAT:??_C@_0P@LHFPHHJA@GetCameraPitch@
	DD	FLAT:?appGetCameraPitch@@YAPAU_object@@PAU1@0@Z
	DD	01H
	ORG $+4
	DD	FLAT:??_C@_0BC@JICDJDCH@GetCameraRotation@
	DD	FLAT:?appGetCameraRotation@@YAPAU_object@@PAU1@0@Z
	DD	01H
	ORG $+4
	DD	FLAT:??_C@_07CDIANBOE@GetTime@
	DD	FLAT:?appGetTime@@YAPAU_object@@PAU1@0@Z
	DD	01H
	ORG $+4
	DD	FLAT:??_C@_0O@JKNDJHIN@GetGlobalTime@
	DD	FLAT:?appGetGlobalTime@@YAPAU_object@@PAU1@0@Z
	DD	01H
	ORG $+4
	DD	FLAT:??_C@_0BD@HGCMJHC@GetGlobalTimeStamp@
	DD	FLAT:?appGetGlobalTimeStamp@@YAPAU_object@@PAU1@0@Z
	DD	01H
	ORG $+4
	DD	FLAT:??_C@_0N@JKLFODAC@GetUpdateFPS@
	DD	FLAT:?appGetUpdateFPS@@YAPAU_object@@PAU1@0@Z
	DD	01H
	ORG $+4
	DD	FLAT:??_C@_0N@EHIMFGIG@GetRenderFPS@
	DD	FLAT:?appGetRenderFPS@@YAPAU_object@@PAU1@0@Z
	DD	01H
	ORG $+4
	DD	FLAT:??_C@_0N@HGIDFLAJ@RotateCamera@
	DD	FLAT:?appRotateCamera@@YAPAU_object@@PAU1@0@Z
	DD	01H
	ORG $+4
	DD	FLAT:??_C@_0M@PKAIAJKC@PitchCamera@
	DD	FLAT:?appPitchCamera@@YAPAU_object@@PAU1@0@Z
	DD	01H
	ORG $+4
	DD	FLAT:??_C@_0L@BGDDIOFP@ZoomCamera@
	DD	FLAT:?appZoomCamera@@YAPAU_object@@PAU1@0@Z
	DD	01H
	ORG $+4
	DD	FLAT:??_C@_0BC@FCGIGAKD@MovieRotateCamera@
	DD	FLAT:?appMovieRotateCamera@@YAPAU_object@@PAU1@0@Z
	DD	01H
	ORG $+4
	DD	FLAT:??_C@_0BB@KFJAAFFB@MoviePitchCamera@
	DD	FLAT:?appMoviePitchCamera@@YAPAU_object@@PAU1@0@Z
	DD	01H
	ORG $+4
	DD	FLAT:??_C@_0BA@ILLHHFGG@MovieZoomCamera@
	DD	FLAT:?appMovieZoomCamera@@YAPAU_object@@PAU1@0@Z
	DD	01H
	ORG $+4
	DD	FLAT:??_C@_0BB@PJGDEPJO@MovieResetCamera@
	DD	FLAT:?appMovieResetCamera@@YAPAU_object@@PAU1@0@Z
	DD	01H
	ORG $+4
	DD	FLAT:??_C@_0BK@PBNANFFG@GetAvailableTextureMemory@
	DD	FLAT:?appGetAvaiableTextureMememory@@YAPAU_object@@PAU1@0@Z
	DD	01H
	ORG $+4
	DD	FLAT:??_C@_0O@KFOAIOPC@GetRenderTime@
	DD	FLAT:?appGetRenderTime@@YAPAU_object@@PAU1@0@Z
	DD	01H
	ORG $+4
	DD	FLAT:??_C@_0O@EPOIPAHO@GetUpdateTime@
	DD	FLAT:?appGetUpdateTime@@YAPAU_object@@PAU1@0@Z
	DD	01H
	ORG $+4
	DD	FLAT:??_C@_07EGHKJKFO@GetLoad@
	DD	FLAT:?appGetLoad@@YAPAU_object@@PAU1@0@Z
	DD	01H
	ORG $+4
	DD	FLAT:??_C@_0N@KBJEAIDC@GetFaceSpeed@
	DD	FLAT:?appGetFaceSpeed@@YAPAU_object@@PAU1@0@Z
	DD	01H
	ORG $+4
	DD	FLAT:??_C@_0N@FGHMKANF@GetFaceCount@
	DD	FLAT:?appGetFaceCount@@YAPAU_object@@PAU1@0@Z
	DD	01H
	ORG $+4
	DD	FLAT:??_C@_06GHJACMIL@SetFPS@
	DD	FLAT:?appSetFPS@@YAPAU_object@@PAU1@0@Z
	DD	01H
	ORG $+4
	DD	FLAT:??_C@_0BI@BPPNOEKE@SetGlobalCenterPosition@
	DD	FLAT:?appSetGlobalCenterPosition@@YAPAU_object@@PAU1@0@Z
	DD	01H
	ORG $+4
	DD	FLAT:??_C@_0BC@MCKFCFLJ@SetCenterPosition@
	DD	FLAT:?appSetCenterPosition@@YAPAU_object@@PAU1@0@Z
	DD	01H
	ORG $+4
	DD	FLAT:??_C@_0BC@DJJGDMOB@GetCursorPosition@
	DD	FLAT:?appGetCursorPosition@@YAPAU_object@@PAU1@0@Z
	DD	01H
	ORG $+4
	DD	FLAT:??_C@_09CIIBMEDP@GetRandom@
	DD	FLAT:?appGetRandom@@YAPAU_object@@PAU1@0@Z
	DD	01H
	ORG $+4
	DD	FLAT:??_C@_0O@NFOAEJMI@RunPythonFile@
	DD	FLAT:?appRunPythonFile@@YAPAU_object@@PAU1@0@Z
	DD	01H
	ORG $+4
	DD	FLAT:??_C@_0O@JGKOEJBF@IsWebPageMode@
	DD	FLAT:?appIsWebPageMode@@YAPAU_object@@PAU1@0@Z
	DD	01H
	ORG $+4
	DD	FLAT:??_C@_0M@LMDMBNNG@ShowWebPage@
	DD	FLAT:?appShowWebPage@@YAPAU_object@@PAU1@0@Z
	DD	01H
	ORG $+4
	DD	FLAT:??_C@_0M@CJKDPGGC@MoveWebPage@
	DD	FLAT:?appMoveWebPage@@YAPAU_object@@PAU1@0@Z
	DD	01H
	ORG $+4
	DD	FLAT:??_C@_0M@HKOOBKOE@HideWebPage@
	DD	FLAT:?appHideWebPage@@YAPAU_object@@PAU1@0@Z
	DD	01H
	ORG $+4
	DD	FLAT:??_C@_09EJGJNKNL@IsPressed@
	DD	FLAT:?appIsPressed@@YAPAU_object@@PAU1@0@Z
	DD	01H
	ORG $+4
	DD	FLAT:??_C@_09PKKOCJGB@SetCursor@
	DD	FLAT:?appSetCursor@@YAPAU_object@@PAU1@0@Z
	DD	01H
	ORG $+4
	DD	FLAT:??_C@_09NEOLAIPD@GetCursor@
	DD	FLAT:?appGetCursor@@YAPAU_object@@PAU1@0@Z
	DD	01H
	ORG $+4
	DD	FLAT:??_C@_0L@BIENLPGM@ShowCursor@
	DD	FLAT:?appShowCursor@@YAPAU_object@@PAU1@0@Z
	DD	01H
	ORG $+4
	DD	FLAT:??_C@_0L@MGJDDPFG@HideCursor@
	DD	FLAT:?appHideCursor@@YAPAU_object@@PAU1@0@Z
	DD	01H
	ORG $+4
	DD	FLAT:??_C@_0N@BFHCIAEF@IsShowCursor@
	DD	FLAT:?appIsShowCursor@@YAPAU_object@@PAU1@0@Z
	DD	01H
	ORG $+4
	DD	FLAT:??_C@_0P@FMIDHOAE@IsLiarCursorOn@
	DD	FLAT:?appIsLiarCursorOn@@YAPAU_object@@PAU1@0@Z
	DD	01H
	ORG $+4
	DD	FLAT:??_C@_0BC@IDNDDKLI@SetSoftwareCursor@
	DD	FLAT:?appSetSoftwareCursor@@YAPAU_object@@PAU1@0@Z
	DD	01H
	ORG $+4
	DD	FLAT:??_C@_0BC@KKHIHHDJ@SetHardwareCursor@
	DD	FLAT:?appSetHardwareCursor@@YAPAU_object@@PAU1@0@Z
	DD	01H
	ORG $+4
	DD	FLAT:??_C@_0P@KJLEKPPL@SetConnectData@
	DD	FLAT:?appSetConnectData@@YAPAU_object@@PAU1@0@Z
	DD	01H
	ORG $+4
	DD	FLAT:??_C@_0P@GHKKFFNH@GetConnectData@
	DD	FLAT:?appGetConnectData@@YAPAU_object@@PAU1@0@Z
	DD	01H
	ORG $+4
	DD	FLAT:??_C@_0BF@IMHAMDDH@GetRotatingDirection@
	DD	FLAT:?appGetRotatingDirection@@YAPAU_object@@PAU1@0@Z
	DD	01H
	ORG $+4
	DD	FLAT:??_C@_0BE@JKNPCCAK@GetDegreeDifference@
	DD	FLAT:?appGetDegreeDifference@@YAPAU_object@@PAU1@0@Z
	DD	01H
	ORG $+4
	DD	FLAT:??_C@_05PFDOMJEF@Sleep@
	DD	FLAT:?appSleep@@YAPAU_object@@PAU1@0@Z
	DD	01H
	ORG $+4
	DD	FLAT:??_C@_0BD@CKMKHHJC@SetDefaultFontName@
	DD	FLAT:?appSetDefaultFontName@@YAPAU_object@@PAU1@0@Z
	DD	01H
	ORG $+4
	DD	FLAT:??_C@_0BD@CENDFAOC@SetGuildSymbolPath@
	DD	FLAT:?appSetGuildSymbolPath@@YAPAU_object@@PAU1@0@Z
	DD	01H
	ORG $+4
	DD	FLAT:??_C@_0BI@LNMJCGJN@EnableSpecialCameraMode@
	DD	FLAT:?appEnableSpecialCameraMode@@YAPAU_object@@PAU1@0@Z
	DD	01H
	ORG $+4
	DD	FLAT:??_C@_0P@NCLIAJKF@SetCameraSpeed@
	DD	FLAT:?appSetCameraSpeed@@YAPAU_object@@PAU1@0@Z
	DD	01H
	ORG $+4
	DD	FLAT:??_C@_0BC@JPDLAHCD@SaveCameraSetting@
	DD	FLAT:?appSaveCameraSetting@@YAPAU_object@@PAU1@0@Z
	DD	01H
	ORG $+4
	DD	FLAT:??_C@_0BC@KEOGBKMG@LoadCameraSetting@
	DD	FLAT:?appLoadCameraSetting@@YAPAU_object@@PAU1@0@Z
	DD	01H
	ORG $+4
	DD	FLAT:??_C@_0BB@IPPGJFKO@SetDefaultCamera@
	DD	FLAT:?appSetDefaultCamera@@YAPAU_object@@PAU1@0@Z
	DD	01H
	ORG $+4
	DD	FLAT:??_C@_0BB@JANPDNEC@SetCameraSetting@
	DD	FLAT:?appSetCameraSetting@@YAPAU_object@@PAU1@0@Z
	DD	01H
	ORG $+4
	DD	FLAT:??_C@_0O@MFMELJAK@SetSightRange@
	DD	FLAT:?appSetSightRange@@YAPAU_object@@PAU1@0@Z
	DD	01H
	ORG $+4
	DD	FLAT:??_C@_0M@LOHDPEAO@IsFileExist@
	DD	FLAT:?appIsFileExist@@YAPAU_object@@PAU1@0@Z
	DD	01H
	ORG $+4
	DD	FLAT:??_C@_0N@JAMKKFFG@OpenTextFile@
	DD	FLAT:?appOpenTextFile@@YAPAU_object@@PAU1@0@Z
	DD	01H
	ORG $+4
	DD	FLAT:??_C@_0O@LNEGOIPA@CloseTextFile@
	DD	FLAT:?appCloseTextFile@@YAPAU_object@@PAU1@0@Z
	DD	01H
	ORG $+4
	DD	FLAT:??_C@_0BF@BNHHEKFO@GetTextFileLineCount@
	DD	FLAT:?appGetTextFileLineCount@@YAPAU_object@@PAU1@0@Z
	DD	01H
	ORG $+4
	DD	FLAT:??_C@_0BA@HHNFKANE@GetTextFileLine@
	DD	FLAT:?appGetTextFileLine@@YAPAU_object@@PAU1@0@Z
	DD	01H
	ORG $+4
	DD	FLAT:??_C@_0BF@PBACFPCP@GetLocaleServiceName@
	DD	FLAT:?appGetLocaleServiceName@@YAPAU_object@@PAU1@0@Z
	DD	01H
	ORG $+4
	DD	FLAT:??_C@_0O@JDECMIPJ@GetLocaleName@
	DD	FLAT:?appGetLocaleName@@YAPAU_object@@PAU1@0@Z
	DD	01H
	ORG $+4
	DD	FLAT:??_C@_0O@OKMLAHKI@GetLocalePath@
	DD	FLAT:?appGetLocalePath@@YAPAU_object@@PAU1@0@Z
	DD	01H
	ORG $+4
	DD	FLAT:??_C@_0P@KMAINBBA@ForceSetLocale@
	DD	FLAT:?appForceSetLocale@@YAPAU_object@@PAU1@0@Z
	DD	01H
	ORG $+4
	DD	FLAT:??_C@_0P@JHGEFJDO@LoadLocaleAddr@
	DD	FLAT:?appLoadLocaleAddr@@YAPAU_object@@PAU1@0@Z
	DD	01H
	ORG $+4
	DD	FLAT:??_C@_0P@BFJDMEJO@LoadLocaleData@
	DD	FLAT:?appLoadLocaleData@@YAPAU_object@@PAU1@0@Z
	DD	01H
	ORG $+4
	DD	FLAT:??_C@_0L@FAIOENFF@SetCHEONMA@
	DD	FLAT:?appSetCHEONMA@@YAPAU_object@@PAU1@0@Z
	DD	01H
	ORG $+4
	DD	FLAT:??_C@_09INPKBHN@IsCHEONMA@
	DD	FLAT:?appIsCHEONMA@@YAPAU_object@@PAU1@0@Z
	DD	01H
	ORG $+4
	DD	FLAT:??_C@_0BD@CEMKCGHA@GetDefaultCodePage@
	DD	FLAT:?appGetDefaultCodePage@@YAPAU_object@@PAU1@0@Z
	DD	01H
	ORG $+4
	DD	FLAT:??_C@_0N@HDAEMEAH@SetControlFP@
	DD	FLAT:?appSetControlFP@@YAPAU_object@@PAU1@0@Z
	DD	01H
	ORG $+4
	DD	FLAT:??_C@_0BB@IFMAFIHG@SetSpecularSpeed@
	DD	FLAT:?appSetSpecularSpeed@@YAPAU_object@@PAU1@0@Z
	DD	01H
	ORG $+4
	DD	FLAT:??_C@_0BI@DNKBNLNC@testGetAccumulationTime@
	DD	FLAT:?apptestGetAccumulationTime@@YAPAU_object@@PAU1@0@Z
	DD	01H
	ORG $+4
	DD	FLAT:??_C@_0BK@PLDHJGMN@testResetAccumulationTime@
	DD	FLAT:?apptestResetAccumulationTime@@YAPAU_object@@PAU1@0@Z
	DD	01H
	ORG $+4
	DD	FLAT:??_C@_0BF@KHKICLKO@testSetSpecularColor@
	DD	FLAT:?apptestSetSpecularColor@@YAPAU_object@@PAU1@0@Z
	DD	01H
	ORG $+4
	DD	FLAT:??_C@_0BB@MMPIECKB@SetVisibleNotice@
	DD	FLAT:?appSetVisibleNotice@@YAPAU_object@@PAU1@0@Z
	DD	01H
	ORG $+4
	DD	FLAT:??_C@_0BA@NLDNPIOL@IsVisibleNotice@
	DD	FLAT:?appIsVisibleNotice@@YAPAU_object@@PAU1@0@Z
	DD	01H
	ORG $+4
	DD	FLAT:??_C@_0BF@BOMOCGIP@EnableTestServerFlag@
	DD	FLAT:?appEnableTestServerFlag@@YAPAU_object@@PAU1@0@Z
	DD	01H
	ORG $+4
	DD	FLAT:??_C@_0BH@GBDECBIH@IsEnableTestServerFlag@
	DD	FLAT:?appIsEnableTestServerFlag@@YAPAU_object@@PAU1@0@Z
	DD	01H
	ORG $+4
	DD	FLAT:??_C@_0BB@DLDOCGLL@SetGuildMarkPath@
	DD	FLAT:?appSetGuildMarkPath@@YAPAU_object@@PAU1@0@Z
	DD	01H
	ORG $+4
	DD	FLAT:??_C@_0N@LIPHBNAO@OnLogoUpdate@
	DD	FLAT:?appLogoUpdate@@YAPAU_object@@PAU1@0@Z
	DD	01H
	ORG $+4
	DD	FLAT:??_C@_0N@ELECBFOK@OnLogoRender@
	DD	FLAT:?appLogoRender@@YAPAU_object@@PAU1@0@Z
	DD	01H
	ORG $+4
	DD	FLAT:??_C@_0L@JMMGDKPP@OnLogoOpen@
	DD	FLAT:?appLogoOpen@@YAPAU_object@@PAU1@0@Z
	DD	01H
	ORG $+4
	DD	FLAT:??_C@_0M@JMIFNMOK@OnLogoClose@
	DD	FLAT:?appLogoClose@@YAPAU_object@@PAU1@0@Z
	DD	01H
	ORG $+4
	DD	00H
	DD	00H
	ORG $+8
_DATA	ENDS
;	COMDAT ??_C@_04JCAPCJAP@?4tga@
CONST	SEGMENT
??_C@_04JCAPCJAP@?4tga@ DB '.tga', 00H			; `string'
CONST	ENDS
;	COMDAT ??_C@_02OCDGCAAK@si@
CONST	SEGMENT
??_C@_02OCDGCAAK@si@ DB 'si', 00H			; `string'
CONST	ENDS
;	COMDAT ??_C@_0BH@GNAGLJEE@Wrong?5Cursor?5Name?5?$FL?$CFd?$FN@
CONST	SEGMENT
??_C@_0BH@GNAGLJEE@Wrong?5Cursor?5Name?5?$FL?$CFd?$FN@ DB 'Wrong Cursor N'
	DB	'ame [%d]', 00H				; `string'
CONST	ENDS
;	COMDAT ??_C@_02PDIHAGKM@ii@
CONST	SEGMENT
??_C@_02PDIHAGKM@ii@ DB 'ii', 00H			; `string'
CONST	ENDS
;	COMDAT ??_C@_02PINLEBJB@fi@
CONST	SEGMENT
??_C@_02PINLEBJB@fi@ DB 'fi', 00H			; `string'
CONST	ENDS
;	COMDAT ??_C@_01INIBCBCB@f@
CONST	SEGMENT
??_C@_01INIBCBCB@f@ DB 'f', 00H				; `string'
CONST	ENDS
;	COMDAT ??_C@_04EOBPFJGD@ffff@
CONST	SEGMENT
??_C@_04EOBPFJGD@ffff@ DB 'ffff', 00H			; `string'
CONST	ENDS
;	COMDAT ??_C@_03GLKMLICL@iii@
CONST	SEGMENT
??_C@_03GLKMLICL@iii@ DB 'iii', 00H			; `string'
CONST	ENDS
;	COMDAT ??_C@_02OIKAIHIF@s?$CD@
CONST	SEGMENT
??_C@_02OIKAIHIF@s?$CD@ DB 's#', 00H			; `string'
CONST	ENDS
;	COMDAT ??_C@_02JDPG@rb@
CONST	SEGMENT
??_C@_02JDPG@rb@ DB 'rb', 00H				; `string'
CONST	ENDS
;	COMDAT ?key@?1??appLoadLocaleAddr@@YAPAU_object@@PAU2@0@Z@4QBEB
CONST	SEGMENT
?key@?1??appLoadLocaleAddr@@YAPAU_object@@PAU2@0@Z@4QBEB DB 082H ; `appLoadLocaleAddr'::`2'::key
	DB	01bH
	DB	034H
	DB	0aeH
	DB	012H
	DB	03bH
	DB	0fbH
	DB	017H
	DB	0d7H
	DB	02cH
	DB	039H
	DB	0aeH
	DB	041H
	DB	098H
	DB	0f1H
	DB	063H
CONST	ENDS
;	COMDAT ??_C@_01LKDEMHDF@s@
CONST	SEGMENT
??_C@_01LKDEMHDF@s@ DB 's', 00H				; `string'
CONST	ENDS
;	COMDAT ??_C@_0M@OEKALNFB@RENDER_GAME@
CONST	SEGMENT
??_C@_0M@OEKALNFB@RENDER_GAME@ DB 'RENDER_GAME', 00H	; `string'
CONST	ENDS
;	COMDAT ??_C@_01KBJDNOO@i@
CONST	SEGMENT
??_C@_01KBJDNOO@i@ DB 'i', 00H				; `string'
CONST	ENDS
;	COMDAT ?ms_kPool@?$CPooledObject@VCRotationDecorator@NEffectUpdateDecorator@@@@1V?$CDynamicPoolEx@VCRotationDecorator@NEffectUpdateDecorator@@@@A
_DATA	SEGMENT
?ms_kPool@?$CPooledObject@VCRotationDecorator@NEffectUpdateDecorator@@@@1V?$CDynamicPoolEx@VCRotationDecorator@NEffectUpdateDecorator@@@@A DD FLAT:??_7?$CDynamicPoolEx@VCRotationDecorator@NEffectUpdateDecorator@@@@6B@ ; CPooledObject<NEffectUpdateDecorator::CRotationDecorator>::ms_kPool
	DD	00H
	DD	00H
	DD	00H
	DD	00H
	DD	00H
	DD	00H
	DD	00H
	DD	00H
_DATA	ENDS
;	COMDAT ?ms_kPool@?$CPooledObject@VCGravityDecorator@NEffectUpdateDecorator@@@@1V?$CDynamicPoolEx@VCGravityDecorator@NEffectUpdateDecorator@@@@A
_DATA	SEGMENT
?ms_kPool@?$CPooledObject@VCGravityDecorator@NEffectUpdateDecorator@@@@1V?$CDynamicPoolEx@VCGravityDecorator@NEffectUpdateDecorator@@@@A DD FLAT:??_7?$CDynamicPoolEx@VCGravityDecorator@NEffectUpdateDecorator@@@@6B@ ; CPooledObject<NEffectUpdateDecorator::CGravityDecorator>::ms_kPool
	DD	00H
	DD	00H
	DD	00H
	DD	00H
	DD	00H
	DD	00H
	DD	00H
	DD	00H
_DATA	ENDS
;	COMDAT ?ms_kPool@?$CPooledObject@VCAirResistanceDecorator@NEffectUpdateDecorator@@@@1V?$CDynamicPoolEx@VCAirResistanceDecorator@NEffectUpdateDecorator@@@@A
_DATA	SEGMENT
?ms_kPool@?$CPooledObject@VCAirResistanceDecorator@NEffectUpdateDecorator@@@@1V?$CDynamicPoolEx@VCAirResistanceDecorator@NEffectUpdateDecorator@@@@A DD FLAT:??_7?$CDynamicPoolEx@VCAirResistanceDecorator@NEffectUpdateDecorator@@@@6B@ ; CPooledObject<NEffectUpdateDecorator::CAirResistanceDecorator>::ms_kPool
	DD	00H
	DD	00H
	DD	00H
	DD	00H
	DD	00H
	DD	00H
	DD	00H
	DD	00H
_DATA	ENDS
;	COMDAT ?ms_kPool@?$CPooledObject@VCTextureAnimationRandomDecorator@NEffectUpdateDecorator@@@@1V?$CDynamicPoolEx@VCTextureAnimationRandomDecorator@NEffectUpdateDecorator@@@@A
_DATA	SEGMENT
?ms_kPool@?$CPooledObject@VCTextureAnimationRandomDecorator@NEffectUpdateDecorator@@@@1V?$CDynamicPoolEx@VCTextureAnimationRandomDecorator@NEffectUpdateDecorator@@@@A DD FLAT:??_7?$CDynamicPoolEx@VCTextureAnimationRandomDecorator@NEffectUpdateDecorator@@@@6B@ ; CPooledObject<NEffectUpdateDecorator::CTextureAnimationRandomDecorator>::ms_kPool
	DD	00H
	DD	00H
	DD	00H
	DD	00H
	DD	00H
	DD	00H
	DD	00H
	DD	00H
_DATA	ENDS
;	COMDAT ?ms_kPool@?$CPooledObject@VCTextureAnimationCCWDecorator@NEffectUpdateDecorator@@@@1V?$CDynamicPoolEx@VCTextureAnimationCCWDecorator@NEffectUpdateDecorator@@@@A
_DATA	SEGMENT
?ms_kPool@?$CPooledObject@VCTextureAnimationCCWDecorator@NEffectUpdateDecorator@@@@1V?$CDynamicPoolEx@VCTextureAnimationCCWDecorator@NEffectUpdateDecorator@@@@A DD FLAT:??_7?$CDynamicPoolEx@VCTextureAnimationCCWDecorator@NEffectUpdateDecorator@@@@6B@ ; CPooledObject<NEffectUpdateDecorator::CTextureAnimationCCWDecorator>::ms_kPool
	DD	00H
	DD	00H
	DD	00H
	DD	00H
	DD	00H
	DD	00H
	DD	00H
	DD	00H
_DATA	ENDS
;	COMDAT ?ms_kPool@?$CPooledObject@VCTextureAnimationCWDecorator@NEffectUpdateDecorator@@@@1V?$CDynamicPoolEx@VCTextureAnimationCWDecorator@NEffectUpdateDecorator@@@@A
_DATA	SEGMENT
?ms_kPool@?$CPooledObject@VCTextureAnimationCWDecorator@NEffectUpdateDecorator@@@@1V?$CDynamicPoolEx@VCTextureAnimationCWDecorator@NEffectUpdateDecorator@@@@A DD FLAT:??_7?$CDynamicPoolEx@VCTextureAnimationCWDecorator@NEffectUpdateDecorator@@@@6B@ ; CPooledObject<NEffectUpdateDecorator::CTextureAnimationCWDecorator>::ms_kPool
	DD	00H
	DD	00H
	DD	00H
	DD	00H
	DD	00H
	DD	00H
	DD	00H
	DD	00H
_DATA	ENDS
;	COMDAT ?ms_kPool@?$CPooledObject@VCNullDecorator@NEffectUpdateDecorator@@@@1V?$CDynamicPoolEx@VCNullDecorator@NEffectUpdateDecorator@@@@A
_DATA	SEGMENT
?ms_kPool@?$CPooledObject@VCNullDecorator@NEffectUpdateDecorator@@@@1V?$CDynamicPoolEx@VCNullDecorator@NEffectUpdateDecorator@@@@A DD FLAT:??_7?$CDynamicPoolEx@VCNullDecorator@NEffectUpdateDecorator@@@@6B@ ; CPooledObject<NEffectUpdateDecorator::CNullDecorator>::ms_kPool
	DD	00H
	DD	00H
	DD	00H
	DD	00H
	DD	00H
	DD	00H
	DD	00H
	DD	00H
_DATA	ENDS
;	COMDAT ?ms_kPool@?$CPooledObject@VCHeaderDecorator@NEffectUpdateDecorator@@@@1V?$CDynamicPoolEx@VCHeaderDecorator@NEffectUpdateDecorator@@@@A
_DATA	SEGMENT
?ms_kPool@?$CPooledObject@VCHeaderDecorator@NEffectUpdateDecorator@@@@1V?$CDynamicPoolEx@VCHeaderDecorator@NEffectUpdateDecorator@@@@A DD FLAT:??_7?$CDynamicPoolEx@VCHeaderDecorator@NEffectUpdateDecorator@@@@6B@ ; CPooledObject<NEffectUpdateDecorator::CHeaderDecorator>::ms_kPool
	DD	00H
	DD	00H
	DD	00H
	DD	00H
	DD	00H
	DD	00H
	DD	00H
	DD	00H
_DATA	ENDS
;	COMDAT ??_C@_00CNPNBAHC@@
CONST	SEGMENT
??_C@_00CNPNBAHC@@ DB 00H				; `string'
CONST	ENDS
;	COMDAT xdata$x
xdata$x	SEGMENT
__unwindtable$?appOpenTextFile@@YAPAU_object@@PAU1@0@Z DD 0ffffffffH
	DD	FLAT:__unwindfunclet$?appOpenTextFile@@YAPAU_object@@PAU1@0@Z$0
	DD	00H
	DD	FLAT:__unwindfunclet$?appOpenTextFile@@YAPAU_object@@PAU1@0@Z$1
	DD	01H
	DD	FLAT:__unwindfunclet$?appOpenTextFile@@YAPAU_object@@PAU1@0@Z$2
__ehfuncinfo$?appOpenTextFile@@YAPAU_object@@PAU1@0@Z DD 019930522H
	DD	03H
	DD	FLAT:__unwindtable$?appOpenTextFile@@YAPAU_object@@PAU1@0@Z
	DD	2 DUP(00H)
	DD	2 DUP(00H)
	DD	00H
	DD	01H
xdata$x	ENDS
;	COMDAT xdata$x
xdata$x	SEGMENT
__unwindtable$??0CTextLineLoader@@QAE@PBD@Z DD 0ffffffffH
	DD	FLAT:__unwindfunclet$??0CTextLineLoader@@QAE@PBD@Z$0
	DD	00H
	DD	FLAT:__unwindfunclet$??0CTextLineLoader@@QAE@PBD@Z$1
__ehfuncinfo$??0CTextLineLoader@@QAE@PBD@Z DD 019930522H
	DD	02H
	DD	FLAT:__unwindtable$??0CTextLineLoader@@QAE@PBD@Z
	DD	2 DUP(00H)
	DD	2 DUP(00H)
	DD	00H
	DD	01H
xdata$x	ENDS
;	COMDAT xdata$x
xdata$x	SEGMENT
__unwindtable$?appGetConnectData@@YAPAU_object@@PAU1@0@Z DD 0ffffffffH
	DD	FLAT:__unwindfunclet$?appGetConnectData@@YAPAU_object@@PAU1@0@Z$0
__ehfuncinfo$?appGetConnectData@@YAPAU_object@@PAU1@0@Z DD 019930522H
	DD	01H
	DD	FLAT:__unwindtable$?appGetConnectData@@YAPAU_object@@PAU1@0@Z
	DD	2 DUP(00H)
	DD	2 DUP(00H)
	DD	00H
	DD	01H
xdata$x	ENDS
;	COMDAT xdata$x
xdata$x	SEGMENT
__unwindtable$?appGetInfo@@YAPAU_object@@PAU1@0@Z DD 0ffffffffH
	DD	FLAT:__unwindfunclet$?appGetInfo@@YAPAU_object@@PAU1@0@Z$0
__ehfuncinfo$?appGetInfo@@YAPAU_object@@PAU1@0@Z DD 019930522H
	DD	01H
	DD	FLAT:__unwindtable$?appGetInfo@@YAPAU_object@@PAU1@0@Z
	DD	2 DUP(00H)
	DD	2 DUP(00H)
	DD	00H
	DD	01H
xdata$x	ENDS
;	COMDAT CRT$XCU
CRT$XCU	SEGMENT
??ms_kPool$initializer$@?$CPooledObject@VCNullDecorator@NEffectUpdateDecorator@@@@1P6AXXZA@@3P6AXXZA DD FLAT:??__E?ms_kPool@?$CPooledObject@VCNullDecorator@NEffectUpdateDecorator@@@@1V?$CDynamicPoolEx@VCNullDecorator@NEffectUpdateDecorator@@@@A@@YAXXZ ; ??ms_kPool$initializer$@?$CPooledObject@VCNullDecorator@NEffectUpdateDecorator@@@@1P6AXXZA@@3P6AXXZA
CRT$XCU	ENDS
;	COMDAT CRT$XCU
CRT$XCU	SEGMENT
??ms_kPool$initializer$@?$CPooledObject@VCTextureAnimationCWDecorator@NEffectUpdateDecorator@@@@1P6AXXZA@@3P6AXXZA DD FLAT:??__E?ms_kPool@?$CPooledObject@VCTextureAnimationCWDecorator@NEffectUpdateDecorator@@@@1V?$CDynamicPoolEx@VCTextureAnimationCWDecorator@NEffectUpdateDecorator@@@@A@@YAXXZ ; ??ms_kPool$initializer$@?$CPooledObject@VCTextureAnimationCWDecorator@NEffectUpdateDecorator@@@@1P6AXXZA@@3P6AXXZA
CRT$XCU	ENDS
;	COMDAT CRT$XCU
CRT$XCU	SEGMENT
??ms_kPool$initializer$@?$CPooledObject@VCTextureAnimationCCWDecorator@NEffectUpdateDecorator@@@@1P6AXXZA@@3P6AXXZA DD FLAT:??__E?ms_kPool@?$CPooledObject@VCTextureAnimationCCWDecorator@NEffectUpdateDecorator@@@@1V?$CDynamicPoolEx@VCTextureAnimationCCWDecorator@NEffectUpdateDecorator@@@@A@@YAXXZ ; ??ms_kPool$initializer$@?$CPooledObject@VCTextureAnimationCCWDecorator@NEffectUpdateDecorator@@@@1P6AXXZA@@3P6AXXZA
CRT$XCU	ENDS
;	COMDAT CRT$XCU
CRT$XCU	SEGMENT
??ms_kPool$initializer$@?$CPooledObject@VCTextureAnimationRandomDecorator@NEffectUpdateDecorator@@@@1P6AXXZA@@3P6AXXZA DD FLAT:??__E?ms_kPool@?$CPooledObject@VCTextureAnimationRandomDecorator@NEffectUpdateDecorator@@@@1V?$CDynamicPoolEx@VCTextureAnimationRandomDecorator@NEffectUpdateDecorator@@@@A@@YAXXZ ; ??ms_kPool$initializer$@?$CPooledObject@VCTextureAnimationRandomDecorator@NEffectUpdateDecorator@@@@1P6AXXZA@@3P6AXXZA
CRT$XCU	ENDS
;	COMDAT CRT$XCU
CRT$XCU	SEGMENT
??ms_kPool$initializer$@?$CPooledObject@VCAirResistanceDecorator@NEffectUpdateDecorator@@@@1P6AXXZA@@3P6AXXZA DD FLAT:??__E?ms_kPool@?$CPooledObject@VCAirResistanceDecorator@NEffectUpdateDecorator@@@@1V?$CDynamicPoolEx@VCAirResistanceDecorator@NEffectUpdateDecorator@@@@A@@YAXXZ ; ??ms_kPool$initializer$@?$CPooledObject@VCAirResistanceDecorator@NEffectUpdateDecorator@@@@1P6AXXZA@@3P6AXXZA
CRT$XCU	ENDS
;	COMDAT CRT$XCU
CRT$XCU	SEGMENT
??ms_kPool$initializer$@?$CPooledObject@VCGravityDecorator@NEffectUpdateDecorator@@@@1P6AXXZA@@3P6AXXZA DD FLAT:??__E?ms_kPool@?$CPooledObject@VCGravityDecorator@NEffectUpdateDecorator@@@@1V?$CDynamicPoolEx@VCGravityDecorator@NEffectUpdateDecorator@@@@A@@YAXXZ ; ??ms_kPool$initializer$@?$CPooledObject@VCGravityDecorator@NEffectUpdateDecorator@@@@1P6AXXZA@@3P6AXXZA
CRT$XCU	ENDS
;	COMDAT CRT$XCU
CRT$XCU	SEGMENT
??ms_kPool$initializer$@?$CPooledObject@VCRotationDecorator@NEffectUpdateDecorator@@@@1P6AXXZA@@3P6AXXZA DD FLAT:??__E?ms_kPool@?$CPooledObject@VCRotationDecorator@NEffectUpdateDecorator@@@@1V?$CDynamicPoolEx@VCRotationDecorator@NEffectUpdateDecorator@@@@A@@YAXXZ ; ??ms_kPool$initializer$@?$CPooledObject@VCRotationDecorator@NEffectUpdateDecorator@@@@1P6AXXZA@@3P6AXXZA
CRT$XCU	ENDS
; Function compile flags: /Ogtp
;	COMDAT ??__F?ms_kPool@?$CPooledObject@VCRotationDecorator@NEffectUpdateDecorator@@@@1V?$CDynamicPoolEx@VCRotationDecorator@NEffectUpdateDecorator@@@@A@@YAXXZ
text$yd	SEGMENT
??__F?ms_kPool@?$CPooledObject@VCRotationDecorator@NEffectUpdateDecorator@@@@1V?$CDynamicPoolEx@VCRotationDecorator@NEffectUpdateDecorator@@@@A@@YAXXZ PROC ; `dynamic atexit destructor for 'CPooledObject<NEffectUpdateDecorator::CRotationDecorator>::ms_kPool'', COMDAT
  00000	b9 00 00 00 00	 mov	 ecx, OFFSET ?ms_kPool@?$CPooledObject@VCRotationDecorator@NEffectUpdateDecorator@@@@1V?$CDynamicPoolEx@VCRotationDecorator@NEffectUpdateDecorator@@@@A ; CPooledObject<NEffectUpdateDecorator::CRotationDecorator>::ms_kPool
  00005	e9 00 00 00 00	 jmp	 ??1?$CDynamicPoolEx@VCRotationDecorator@NEffectUpdateDecorator@@@@UAE@XZ ; CDynamicPoolEx<NEffectUpdateDecorator::CRotationDecorator>::~CDynamicPoolEx<NEffectUpdateDecorator::CRotationDecorator>
??__F?ms_kPool@?$CPooledObject@VCRotationDecorator@NEffectUpdateDecorator@@@@1V?$CDynamicPoolEx@VCRotationDecorator@NEffectUpdateDecorator@@@@A@@YAXXZ ENDP ; `dynamic atexit destructor for 'CPooledObject<NEffectUpdateDecorator::CRotationDecorator>::ms_kPool''
text$yd	ENDS
; Function compile flags: /Ogtp
; File D:\Metin2 Server Files\mainline\SRC_2014\Metin2Client\eterLib\Pool.h
;	COMDAT ??__E?ms_kPool@?$CPooledObject@VCRotationDecorator@NEffectUpdateDecorator@@@@1V?$CDynamicPoolEx@VCRotationDecorator@NEffectUpdateDecorator@@@@A@@YAXXZ
text$di	SEGMENT
??__E?ms_kPool@?$CPooledObject@VCRotationDecorator@NEffectUpdateDecorator@@@@1V?$CDynamicPoolEx@VCRotationDecorator@NEffectUpdateDecorator@@@@A@@YAXXZ PROC ; `dynamic initializer for 'CPooledObject<NEffectUpdateDecorator::CRotationDecorator>::ms_kPool'', COMDAT

; 272  : template <class T> CDynamicPoolEx<T> CPooledObject<T>::ms_kPool;

  00000	68 00 00 00 00	 push	 OFFSET ??__F?ms_kPool@?$CPooledObject@VCRotationDecorator@NEffectUpdateDecorator@@@@1V?$CDynamicPoolEx@VCRotationDecorator@NEffectUpdateDecorator@@@@A@@YAXXZ ; `dynamic atexit destructor for 'CPooledObject<NEffectUpdateDecorator::CRotationDecorator>::ms_kPool''
  00005	e8 00 00 00 00	 call	 _atexit
  0000a	59		 pop	 ecx
  0000b	c3		 ret	 0
??__E?ms_kPool@?$CPooledObject@VCRotationDecorator@NEffectUpdateDecorator@@@@1V?$CDynamicPoolEx@VCRotationDecorator@NEffectUpdateDecorator@@@@A@@YAXXZ ENDP ; `dynamic initializer for 'CPooledObject<NEffectUpdateDecorator::CRotationDecorator>::ms_kPool''
text$di	ENDS
; Function compile flags: /Ogtp
;	COMDAT ??__F?ms_kPool@?$CPooledObject@VCGravityDecorator@NEffectUpdateDecorator@@@@1V?$CDynamicPoolEx@VCGravityDecorator@NEffectUpdateDecorator@@@@A@@YAXXZ
text$yd	SEGMENT
??__F?ms_kPool@?$CPooledObject@VCGravityDecorator@NEffectUpdateDecorator@@@@1V?$CDynamicPoolEx@VCGravityDecorator@NEffectUpdateDecorator@@@@A@@YAXXZ PROC ; `dynamic atexit destructor for 'CPooledObject<NEffectUpdateDecorator::CGravityDecorator>::ms_kPool'', COMDAT
  00000	b9 00 00 00 00	 mov	 ecx, OFFSET ?ms_kPool@?$CPooledObject@VCGravityDecorator@NEffectUpdateDecorator@@@@1V?$CDynamicPoolEx@VCGravityDecorator@NEffectUpdateDecorator@@@@A ; CPooledObject<NEffectUpdateDecorator::CGravityDecorator>::ms_kPool
  00005	e9 00 00 00 00	 jmp	 ??1?$CDynamicPoolEx@VCGravityDecorator@NEffectUpdateDecorator@@@@UAE@XZ ; CDynamicPoolEx<NEffectUpdateDecorator::CGravityDecorator>::~CDynamicPoolEx<NEffectUpdateDecorator::CGravityDecorator>
??__F?ms_kPool@?$CPooledObject@VCGravityDecorator@NEffectUpdateDecorator@@@@1V?$CDynamicPoolEx@VCGravityDecorator@NEffectUpdateDecorator@@@@A@@YAXXZ ENDP ; `dynamic atexit destructor for 'CPooledObject<NEffectUpdateDecorator::CGravityDecorator>::ms_kPool''
text$yd	ENDS
; Function compile flags: /Ogtp
; File D:\Metin2 Server Files\mainline\SRC_2014\Metin2Client\eterLib\Pool.h
;	COMDAT ??__E?ms_kPool@?$CPooledObject@VCGravityDecorator@NEffectUpdateDecorator@@@@1V?$CDynamicPoolEx@VCGravityDecorator@NEffectUpdateDecorator@@@@A@@YAXXZ
text$di	SEGMENT
??__E?ms_kPool@?$CPooledObject@VCGravityDecorator@NEffectUpdateDecorator@@@@1V?$CDynamicPoolEx@VCGravityDecorator@NEffectUpdateDecorator@@@@A@@YAXXZ PROC ; `dynamic initializer for 'CPooledObject<NEffectUpdateDecorator::CGravityDecorator>::ms_kPool'', COMDAT

; 272  : template <class T> CDynamicPoolEx<T> CPooledObject<T>::ms_kPool;

  00000	68 00 00 00 00	 push	 OFFSET ??__F?ms_kPool@?$CPooledObject@VCGravityDecorator@NEffectUpdateDecorator@@@@1V?$CDynamicPoolEx@VCGravityDecorator@NEffectUpdateDecorator@@@@A@@YAXXZ ; `dynamic atexit destructor for 'CPooledObject<NEffectUpdateDecorator::CGravityDecorator>::ms_kPool''
  00005	e8 00 00 00 00	 call	 _atexit
  0000a	59		 pop	 ecx
  0000b	c3		 ret	 0
??__E?ms_kPool@?$CPooledObject@VCGravityDecorator@NEffectUpdateDecorator@@@@1V?$CDynamicPoolEx@VCGravityDecorator@NEffectUpdateDecorator@@@@A@@YAXXZ ENDP ; `dynamic initializer for 'CPooledObject<NEffectUpdateDecorator::CGravityDecorator>::ms_kPool''
text$di	ENDS
; Function compile flags: /Ogtp
;	COMDAT ??__F?ms_kPool@?$CPooledObject@VCAirResistanceDecorator@NEffectUpdateDecorator@@@@1V?$CDynamicPoolEx@VCAirResistanceDecorator@NEffectUpdateDecorator@@@@A@@YAXXZ
text$yd	SEGMENT
??__F?ms_kPool@?$CPooledObject@VCAirResistanceDecorator@NEffectUpdateDecorator@@@@1V?$CDynamicPoolEx@VCAirResistanceDecorator@NEffectUpdateDecorator@@@@A@@YAXXZ PROC ; `dynamic atexit destructor for 'CPooledObject<NEffectUpdateDecorator::CAirResistanceDecorator>::ms_kPool'', COMDAT
  00000	b9 00 00 00 00	 mov	 ecx, OFFSET ?ms_kPool@?$CPooledObject@VCAirResistanceDecorator@NEffectUpdateDecorator@@@@1V?$CDynamicPoolEx@VCAirResistanceDecorator@NEffectUpdateDecorator@@@@A ; CPooledObject<NEffectUpdateDecorator::CAirResistanceDecorator>::ms_kPool
  00005	e9 00 00 00 00	 jmp	 ??1?$CDynamicPoolEx@VCAirResistanceDecorator@NEffectUpdateDecorator@@@@UAE@XZ ; CDynamicPoolEx<NEffectUpdateDecorator::CAirResistanceDecorator>::~CDynamicPoolEx<NEffectUpdateDecorator::CAirResistanceDecorator>
??__F?ms_kPool@?$CPooledObject@VCAirResistanceDecorator@NEffectUpdateDecorator@@@@1V?$CDynamicPoolEx@VCAirResistanceDecorator@NEffectUpdateDecorator@@@@A@@YAXXZ ENDP ; `dynamic atexit destructor for 'CPooledObject<NEffectUpdateDecorator::CAirResistanceDecorator>::ms_kPool''
text$yd	ENDS
; Function compile flags: /Ogtp
; File D:\Metin2 Server Files\mainline\SRC_2014\Metin2Client\eterLib\Pool.h
;	COMDAT ??__E?ms_kPool@?$CPooledObject@VCAirResistanceDecorator@NEffectUpdateDecorator@@@@1V?$CDynamicPoolEx@VCAirResistanceDecorator@NEffectUpdateDecorator@@@@A@@YAXXZ
text$di	SEGMENT
??__E?ms_kPool@?$CPooledObject@VCAirResistanceDecorator@NEffectUpdateDecorator@@@@1V?$CDynamicPoolEx@VCAirResistanceDecorator@NEffectUpdateDecorator@@@@A@@YAXXZ PROC ; `dynamic initializer for 'CPooledObject<NEffectUpdateDecorator::CAirResistanceDecorator>::ms_kPool'', COMDAT

; 272  : template <class T> CDynamicPoolEx<T> CPooledObject<T>::ms_kPool;

  00000	68 00 00 00 00	 push	 OFFSET ??__F?ms_kPool@?$CPooledObject@VCAirResistanceDecorator@NEffectUpdateDecorator@@@@1V?$CDynamicPoolEx@VCAirResistanceDecorator@NEffectUpdateDecorator@@@@A@@YAXXZ ; `dynamic atexit destructor for 'CPooledObject<NEffectUpdateDecorator::CAirResistanceDecorator>::ms_kPool''
  00005	e8 00 00 00 00	 call	 _atexit
  0000a	59		 pop	 ecx
  0000b	c3		 ret	 0
??__E?ms_kPool@?$CPooledObject@VCAirResistanceDecorator@NEffectUpdateDecorator@@@@1V?$CDynamicPoolEx@VCAirResistanceDecorator@NEffectUpdateDecorator@@@@A@@YAXXZ ENDP ; `dynamic initializer for 'CPooledObject<NEffectUpdateDecorator::CAirResistanceDecorator>::ms_kPool''
text$di	ENDS
; Function compile flags: /Ogtp
;	COMDAT ??__F?ms_kPool@?$CPooledObject@VCTextureAnimationRandomDecorator@NEffectUpdateDecorator@@@@1V?$CDynamicPoolEx@VCTextureAnimationRandomDecorator@NEffectUpdateDecorator@@@@A@@YAXXZ
text$yd	SEGMENT
??__F?ms_kPool@?$CPooledObject@VCTextureAnimationRandomDecorator@NEffectUpdateDecorator@@@@1V?$CDynamicPoolEx@VCTextureAnimationRandomDecorator@NEffectUpdateDecorator@@@@A@@YAXXZ PROC ; `dynamic atexit destructor for 'CPooledObject<NEffectUpdateDecorator::CTextureAnimationRandomDecorator>::ms_kPool'', COMDAT
  00000	b9 00 00 00 00	 mov	 ecx, OFFSET ?ms_kPool@?$CPooledObject@VCTextureAnimationRandomDecorator@NEffectUpdateDecorator@@@@1V?$CDynamicPoolEx@VCTextureAnimationRandomDecorator@NEffectUpdateDecorator@@@@A ; CPooledObject<NEffectUpdateDecorator::CTextureAnimationRandomDecorator>::ms_kPool
  00005	e9 00 00 00 00	 jmp	 ??1?$CDynamicPoolEx@VCTextureAnimationRandomDecorator@NEffectUpdateDecorator@@@@UAE@XZ ; CDynamicPoolEx<NEffectUpdateDecorator::CTextureAnimationRandomDecorator>::~CDynamicPoolEx<NEffectUpdateDecorator::CTextureAnimationRandomDecorator>
??__F?ms_kPool@?$CPooledObject@VCTextureAnimationRandomDecorator@NEffectUpdateDecorator@@@@1V?$CDynamicPoolEx@VCTextureAnimationRandomDecorator@NEffectUpdateDecorator@@@@A@@YAXXZ ENDP ; `dynamic atexit destructor for 'CPooledObject<NEffectUpdateDecorator::CTextureAnimationRandomDecorator>::ms_kPool''
text$yd	ENDS
; Function compile flags: /Ogtp
; File D:\Metin2 Server Files\mainline\SRC_2014\Metin2Client\eterLib\Pool.h
;	COMDAT ??__E?ms_kPool@?$CPooledObject@VCTextureAnimationRandomDecorator@NEffectUpdateDecorator@@@@1V?$CDynamicPoolEx@VCTextureAnimationRandomDecorator@NEffectUpdateDecorator@@@@A@@YAXXZ
text$di	SEGMENT
??__E?ms_kPool@?$CPooledObject@VCTextureAnimationRandomDecorator@NEffectUpdateDecorator@@@@1V?$CDynamicPoolEx@VCTextureAnimationRandomDecorator@NEffectUpdateDecorator@@@@A@@YAXXZ PROC ; `dynamic initializer for 'CPooledObject<NEffectUpdateDecorator::CTextureAnimationRandomDecorator>::ms_kPool'', COMDAT

; 272  : template <class T> CDynamicPoolEx<T> CPooledObject<T>::ms_kPool;

  00000	68 00 00 00 00	 push	 OFFSET ??__F?ms_kPool@?$CPooledObject@VCTextureAnimationRandomDecorator@NEffectUpdateDecorator@@@@1V?$CDynamicPoolEx@VCTextureAnimationRandomDecorator@NEffectUpdateDecorator@@@@A@@YAXXZ ; `dynamic atexit destructor for 'CPooledObject<NEffectUpdateDecorator::CTextureAnimationRandomDecorator>::ms_kPool''
  00005	e8 00 00 00 00	 call	 _atexit
  0000a	59		 pop	 ecx
  0000b	c3		 ret	 0
??__E?ms_kPool@?$CPooledObject@VCTextureAnimationRandomDecorator@NEffectUpdateDecorator@@@@1V?$CDynamicPoolEx@VCTextureAnimationRandomDecorator@NEffectUpdateDecorator@@@@A@@YAXXZ ENDP ; `dynamic initializer for 'CPooledObject<NEffectUpdateDecorator::CTextureAnimationRandomDecorator>::ms_kPool''
text$di	ENDS
; Function compile flags: /Ogtp
;	COMDAT ??__F?ms_kPool@?$CPooledObject@VCTextureAnimationCCWDecorator@NEffectUpdateDecorator@@@@1V?$CDynamicPoolEx@VCTextureAnimationCCWDecorator@NEffectUpdateDecorator@@@@A@@YAXXZ
text$yd	SEGMENT
??__F?ms_kPool@?$CPooledObject@VCTextureAnimationCCWDecorator@NEffectUpdateDecorator@@@@1V?$CDynamicPoolEx@VCTextureAnimationCCWDecorator@NEffectUpdateDecorator@@@@A@@YAXXZ PROC ; `dynamic atexit destructor for 'CPooledObject<NEffectUpdateDecorator::CTextureAnimationCCWDecorator>::ms_kPool'', COMDAT
  00000	b9 00 00 00 00	 mov	 ecx, OFFSET ?ms_kPool@?$CPooledObject@VCTextureAnimationCCWDecorator@NEffectUpdateDecorator@@@@1V?$CDynamicPoolEx@VCTextureAnimationCCWDecorator@NEffectUpdateDecorator@@@@A ; CPooledObject<NEffectUpdateDecorator::CTextureAnimationCCWDecorator>::ms_kPool
  00005	e9 00 00 00 00	 jmp	 ??1?$CDynamicPoolEx@VCTextureAnimationCCWDecorator@NEffectUpdateDecorator@@@@UAE@XZ ; CDynamicPoolEx<NEffectUpdateDecorator::CTextureAnimationCCWDecorator>::~CDynamicPoolEx<NEffectUpdateDecorator::CTextureAnimationCCWDecorator>
??__F?ms_kPool@?$CPooledObject@VCTextureAnimationCCWDecorator@NEffectUpdateDecorator@@@@1V?$CDynamicPoolEx@VCTextureAnimationCCWDecorator@NEffectUpdateDecorator@@@@A@@YAXXZ ENDP ; `dynamic atexit destructor for 'CPooledObject<NEffectUpdateDecorator::CTextureAnimationCCWDecorator>::ms_kPool''
text$yd	ENDS
; Function compile flags: /Ogtp
; File D:\Metin2 Server Files\mainline\SRC_2014\Metin2Client\eterLib\Pool.h
;	COMDAT ??__E?ms_kPool@?$CPooledObject@VCTextureAnimationCCWDecorator@NEffectUpdateDecorator@@@@1V?$CDynamicPoolEx@VCTextureAnimationCCWDecorator@NEffectUpdateDecorator@@@@A@@YAXXZ
text$di	SEGMENT
??__E?ms_kPool@?$CPooledObject@VCTextureAnimationCCWDecorator@NEffectUpdateDecorator@@@@1V?$CDynamicPoolEx@VCTextureAnimationCCWDecorator@NEffectUpdateDecorator@@@@A@@YAXXZ PROC ; `dynamic initializer for 'CPooledObject<NEffectUpdateDecorator::CTextureAnimationCCWDecorator>::ms_kPool'', COMDAT

; 272  : template <class T> CDynamicPoolEx<T> CPooledObject<T>::ms_kPool;

  00000	68 00 00 00 00	 push	 OFFSET ??__F?ms_kPool@?$CPooledObject@VCTextureAnimationCCWDecorator@NEffectUpdateDecorator@@@@1V?$CDynamicPoolEx@VCTextureAnimationCCWDecorator@NEffectUpdateDecorator@@@@A@@YAXXZ ; `dynamic atexit destructor for 'CPooledObject<NEffectUpdateDecorator::CTextureAnimationCCWDecorator>::ms_kPool''
  00005	e8 00 00 00 00	 call	 _atexit
  0000a	59		 pop	 ecx
  0000b	c3		 ret	 0
??__E?ms_kPool@?$CPooledObject@VCTextureAnimationCCWDecorator@NEffectUpdateDecorator@@@@1V?$CDynamicPoolEx@VCTextureAnimationCCWDecorator@NEffectUpdateDecorator@@@@A@@YAXXZ ENDP ; `dynamic initializer for 'CPooledObject<NEffectUpdateDecorator::CTextureAnimationCCWDecorator>::ms_kPool''
text$di	ENDS
; Function compile flags: /Ogtp
;	COMDAT ??__F?ms_kPool@?$CPooledObject@VCTextureAnimationCWDecorator@NEffectUpdateDecorator@@@@1V?$CDynamicPoolEx@VCTextureAnimationCWDecorator@NEffectUpdateDecorator@@@@A@@YAXXZ
text$yd	SEGMENT
??__F?ms_kPool@?$CPooledObject@VCTextureAnimationCWDecorator@NEffectUpdateDecorator@@@@1V?$CDynamicPoolEx@VCTextureAnimationCWDecorator@NEffectUpdateDecorator@@@@A@@YAXXZ PROC ; `dynamic atexit destructor for 'CPooledObject<NEffectUpdateDecorator::CTextureAnimationCWDecorator>::ms_kPool'', COMDAT
  00000	b9 00 00 00 00	 mov	 ecx, OFFSET ?ms_kPool@?$CPooledObject@VCTextureAnimationCWDecorator@NEffectUpdateDecorator@@@@1V?$CDynamicPoolEx@VCTextureAnimationCWDecorator@NEffectUpdateDecorator@@@@A ; CPooledObject<NEffectUpdateDecorator::CTextureAnimationCWDecorator>::ms_kPool
  00005	e9 00 00 00 00	 jmp	 ??1?$CDynamicPoolEx@VCTextureAnimationCWDecorator@NEffectUpdateDecorator@@@@UAE@XZ ; CDynamicPoolEx<NEffectUpdateDecorator::CTextureAnimationCWDecorator>::~CDynamicPoolEx<NEffectUpdateDecorator::CTextureAnimationCWDecorator>
??__F?ms_kPool@?$CPooledObject@VCTextureAnimationCWDecorator@NEffectUpdateDecorator@@@@1V?$CDynamicPoolEx@VCTextureAnimationCWDecorator@NEffectUpdateDecorator@@@@A@@YAXXZ ENDP ; `dynamic atexit destructor for 'CPooledObject<NEffectUpdateDecorator::CTextureAnimationCWDecorator>::ms_kPool''
text$yd	ENDS
; Function compile flags: /Ogtp
; File D:\Metin2 Server Files\mainline\SRC_2014\Metin2Client\eterLib\Pool.h
;	COMDAT ??__E?ms_kPool@?$CPooledObject@VCTextureAnimationCWDecorator@NEffectUpdateDecorator@@@@1V?$CDynamicPoolEx@VCTextureAnimationCWDecorator@NEffectUpdateDecorator@@@@A@@YAXXZ
text$di	SEGMENT
??__E?ms_kPool@?$CPooledObject@VCTextureAnimationCWDecorator@NEffectUpdateDecorator@@@@1V?$CDynamicPoolEx@VCTextureAnimationCWDecorator@NEffectUpdateDecorator@@@@A@@YAXXZ PROC ; `dynamic initializer for 'CPooledObject<NEffectUpdateDecorator::CTextureAnimationCWDecorator>::ms_kPool'', COMDAT

; 272  : template <class T> CDynamicPoolEx<T> CPooledObject<T>::ms_kPool;

  00000	68 00 00 00 00	 push	 OFFSET ??__F?ms_kPool@?$CPooledObject@VCTextureAnimationCWDecorator@NEffectUpdateDecorator@@@@1V?$CDynamicPoolEx@VCTextureAnimationCWDecorator@NEffectUpdateDecorator@@@@A@@YAXXZ ; `dynamic atexit destructor for 'CPooledObject<NEffectUpdateDecorator::CTextureAnimationCWDecorator>::ms_kPool''
  00005	e8 00 00 00 00	 call	 _atexit
  0000a	59		 pop	 ecx
  0000b	c3		 ret	 0
??__E?ms_kPool@?$CPooledObject@VCTextureAnimationCWDecorator@NEffectUpdateDecorator@@@@1V?$CDynamicPoolEx@VCTextureAnimationCWDecorator@NEffectUpdateDecorator@@@@A@@YAXXZ ENDP ; `dynamic initializer for 'CPooledObject<NEffectUpdateDecorator::CTextureAnimationCWDecorator>::ms_kPool''
text$di	ENDS
; Function compile flags: /Ogtp
;	COMDAT ??__F?ms_kPool@?$CPooledObject@VCNullDecorator@NEffectUpdateDecorator@@@@1V?$CDynamicPoolEx@VCNullDecorator@NEffectUpdateDecorator@@@@A@@YAXXZ
text$yd	SEGMENT
??__F?ms_kPool@?$CPooledObject@VCNullDecorator@NEffectUpdateDecorator@@@@1V?$CDynamicPoolEx@VCNullDecorator@NEffectUpdateDecorator@@@@A@@YAXXZ PROC ; `dynamic atexit destructor for 'CPooledObject<NEffectUpdateDecorator::CNullDecorator>::ms_kPool'', COMDAT
  00000	b9 00 00 00 00	 mov	 ecx, OFFSET ?ms_kPool@?$CPooledObject@VCNullDecorator@NEffectUpdateDecorator@@@@1V?$CDynamicPoolEx@VCNullDecorator@NEffectUpdateDecorator@@@@A ; CPooledObject<NEffectUpdateDecorator::CNullDecorator>::ms_kPool
  00005	e9 00 00 00 00	 jmp	 ??1?$CDynamicPoolEx@VCNullDecorator@NEffectUpdateDecorator@@@@UAE@XZ ; CDynamicPoolEx<NEffectUpdateDecorator::CNullDecorator>::~CDynamicPoolEx<NEffectUpdateDecorator::CNullDecorator>
??__F?ms_kPool@?$CPooledObject@VCNullDecorator@NEffectUpdateDecorator@@@@1V?$CDynamicPoolEx@VCNullDecorator@NEffectUpdateDecorator@@@@A@@YAXXZ ENDP ; `dynamic atexit destructor for 'CPooledObject<NEffectUpdateDecorator::CNullDecorator>::ms_kPool''
text$yd	ENDS
; Function compile flags: /Ogtp
; File D:\Metin2 Server Files\mainline\SRC_2014\Metin2Client\eterLib\Pool.h
;	COMDAT ??__E?ms_kPool@?$CPooledObject@VCNullDecorator@NEffectUpdateDecorator@@@@1V?$CDynamicPoolEx@VCNullDecorator@NEffectUpdateDecorator@@@@A@@YAXXZ
text$di	SEGMENT
??__E?ms_kPool@?$CPooledObject@VCNullDecorator@NEffectUpdateDecorator@@@@1V?$CDynamicPoolEx@VCNullDecorator@NEffectUpdateDecorator@@@@A@@YAXXZ PROC ; `dynamic initializer for 'CPooledObject<NEffectUpdateDecorator::CNullDecorator>::ms_kPool'', COMDAT

; 272  : template <class T> CDynamicPoolEx<T> CPooledObject<T>::ms_kPool;

  00000	68 00 00 00 00	 push	 OFFSET ??__F?ms_kPool@?$CPooledObject@VCNullDecorator@NEffectUpdateDecorator@@@@1V?$CDynamicPoolEx@VCNullDecorator@NEffectUpdateDecorator@@@@A@@YAXXZ ; `dynamic atexit destructor for 'CPooledObject<NEffectUpdateDecorator::CNullDecorator>::ms_kPool''
  00005	e8 00 00 00 00	 call	 _atexit
  0000a	59		 pop	 ecx
  0000b	c3		 ret	 0
??__E?ms_kPool@?$CPooledObject@VCNullDecorator@NEffectUpdateDecorator@@@@1V?$CDynamicPoolEx@VCNullDecorator@NEffectUpdateDecorator@@@@A@@YAXXZ ENDP ; `dynamic initializer for 'CPooledObject<NEffectUpdateDecorator::CNullDecorator>::ms_kPool''
text$di	ENDS
; Function compile flags: /Ogtp
;	COMDAT ??__F?ms_kPool@?$CPooledObject@VCHeaderDecorator@NEffectUpdateDecorator@@@@1V?$CDynamicPoolEx@VCHeaderDecorator@NEffectUpdateDecorator@@@@A@@YAXXZ
text$yd	SEGMENT
??__F?ms_kPool@?$CPooledObject@VCHeaderDecorator@NEffectUpdateDecorator@@@@1V?$CDynamicPoolEx@VCHeaderDecorator@NEffectUpdateDecorator@@@@A@@YAXXZ PROC ; `dynamic atexit destructor for 'CPooledObject<NEffectUpdateDecorator::CHeaderDecorator>::ms_kPool'', COMDAT
  00000	b9 00 00 00 00	 mov	 ecx, OFFSET ?ms_kPool@?$CPooledObject@VCHeaderDecorator@NEffectUpdateDecorator@@@@1V?$CDynamicPoolEx@VCHeaderDecorator@NEffectUpdateDecorator@@@@A ; CPooledObject<NEffectUpdateDecorator::CHeaderDecorator>::ms_kPool
  00005	e9 00 00 00 00	 jmp	 ??1?$CDynamicPoolEx@VCHeaderDecorator@NEffectUpdateDecorator@@@@UAE@XZ ; CDynamicPoolEx<NEffectUpdateDecorator::CHeaderDecorator>::~CDynamicPoolEx<NEffectUpdateDecorator::CHeaderDecorator>
??__F?ms_kPool@?$CPooledObject@VCHeaderDecorator@NEffectUpdateDecorator@@@@1V?$CDynamicPoolEx@VCHeaderDecorator@NEffectUpdateDecorator@@@@A@@YAXXZ ENDP ; `dynamic atexit destructor for 'CPooledObject<NEffectUpdateDecorator::CHeaderDecorator>::ms_kPool''
text$yd	ENDS
; Function compile flags: /Ogtp
; File D:\Metin2 Server Files\mainline\SRC_2014\Metin2Client\eterLib\Pool.h
;	COMDAT ??__E?ms_kPool@?$CPooledObject@VCHeaderDecorator@NEffectUpdateDecorator@@@@1V?$CDynamicPoolEx@VCHeaderDecorator@NEffectUpdateDecorator@@@@A@@YAXXZ
text$di	SEGMENT
??__E?ms_kPool@?$CPooledObject@VCHeaderDecorator@NEffectUpdateDecorator@@@@1V?$CDynamicPoolEx@VCHeaderDecorator@NEffectUpdateDecorator@@@@A@@YAXXZ PROC ; `dynamic initializer for 'CPooledObject<NEffectUpdateDecorator::CHeaderDecorator>::ms_kPool'', COMDAT

; 272  : template <class T> CDynamicPoolEx<T> CPooledObject<T>::ms_kPool;

  00000	68 00 00 00 00	 push	 OFFSET ??__F?ms_kPool@?$CPooledObject@VCHeaderDecorator@NEffectUpdateDecorator@@@@1V?$CDynamicPoolEx@VCHeaderDecorator@NEffectUpdateDecorator@@@@A@@YAXXZ ; `dynamic atexit destructor for 'CPooledObject<NEffectUpdateDecorator::CHeaderDecorator>::ms_kPool''
  00005	e8 00 00 00 00	 call	 _atexit
  0000a	59		 pop	 ecx
  0000b	c3		 ret	 0
??__E?ms_kPool@?$CPooledObject@VCHeaderDecorator@NEffectUpdateDecorator@@@@1V?$CDynamicPoolEx@VCHeaderDecorator@NEffectUpdateDecorator@@@@A@@YAXXZ ENDP ; `dynamic initializer for 'CPooledObject<NEffectUpdateDecorator::CHeaderDecorator>::ms_kPool''
text$di	ENDS
; Function compile flags: /Ogtp
; File C:\Program Files (x86)\Microsoft Visual Studio\2019\Community\VC\Tools\MSVC\14.28.29333\include\xmemory
;	COMDAT ??$_Destroy_range@V?$allocator@PAVCRotationDecorator@NEffectUpdateDecorator@@@std@@@std@@YAXPAPAVCRotationDecorator@NEffectUpdateDecorator@@QAPAV12@AAV?$allocator@PAVCRotationDecorator@NEffectUpdateDecorator@@@0@@Z
_TEXT	SEGMENT
__First$ = 8						; size = 4
__Last$ = 12						; size = 4
__Al$ = 16						; size = 4
??$_Destroy_range@V?$allocator@PAVCRotationDecorator@NEffectUpdateDecorator@@@std@@@std@@YAXPAPAVCRotationDecorator@NEffectUpdateDecorator@@QAPAV12@AAV?$allocator@PAVCRotationDecorator@NEffectUpdateDecorator@@@0@@Z PROC ; std::_Destroy_range<std::allocator<NEffectUpdateDecorator::CRotationDecorator *> >, COMDAT

; 963  :     // note that this is an optimization for debug mode codegen; in release mode the BE removes all of this
; 964  :     using _Ty = typename _Alloc::value_type;
; 965  :     if _CONSTEXPR_IF (!conjunction_v<is_trivially_destructible<_Ty>, _Uses_default_destroy<_Alloc, _Ty*>>) {
; 966  :         for (; _First != _Last; ++_First) {
; 967  :             allocator_traits<_Alloc>::destroy(_Al, _Unfancy(_First));
; 968  :         }
; 969  :     }
; 970  : }

  00000	c2 00 00	 ret	 0
??$_Destroy_range@V?$allocator@PAVCRotationDecorator@NEffectUpdateDecorator@@@std@@@std@@YAXPAPAVCRotationDecorator@NEffectUpdateDecorator@@QAPAV12@AAV?$allocator@PAVCRotationDecorator@NEffectUpdateDecorator@@@0@@Z ENDP ; std::_Destroy_range<std::allocator<NEffectUpdateDecorator::CRotationDecorator *> >
_TEXT	ENDS
; Function compile flags: /Ogtp
; File C:\Program Files (x86)\Microsoft Visual Studio\2019\Community\VC\Tools\MSVC\14.28.29333\include\xmemory
;	COMDAT ??$_Destroy_range@V?$allocator@PAVCGravityDecorator@NEffectUpdateDecorator@@@std@@@std@@YAXPAPAVCGravityDecorator@NEffectUpdateDecorator@@QAPAV12@AAV?$allocator@PAVCGravityDecorator@NEffectUpdateDecorator@@@0@@Z
_TEXT	SEGMENT
__First$ = 8						; size = 4
__Last$ = 12						; size = 4
__Al$ = 16						; size = 4
??$_Destroy_range@V?$allocator@PAVCGravityDecorator@NEffectUpdateDecorator@@@std@@@std@@YAXPAPAVCGravityDecorator@NEffectUpdateDecorator@@QAPAV12@AAV?$allocator@PAVCGravityDecorator@NEffectUpdateDecorator@@@0@@Z PROC ; std::_Destroy_range<std::allocator<NEffectUpdateDecorator::CGravityDecorator *> >, COMDAT

; 963  :     // note that this is an optimization for debug mode codegen; in release mode the BE removes all of this
; 964  :     using _Ty = typename _Alloc::value_type;
; 965  :     if _CONSTEXPR_IF (!conjunction_v<is_trivially_destructible<_Ty>, _Uses_default_destroy<_Alloc, _Ty*>>) {
; 966  :         for (; _First != _Last; ++_First) {
; 967  :             allocator_traits<_Alloc>::destroy(_Al, _Unfancy(_First));
; 968  :         }
; 969  :     }
; 970  : }

  00000	c2 00 00	 ret	 0
??$_Destroy_range@V?$allocator@PAVCGravityDecorator@NEffectUpdateDecorator@@@std@@@std@@YAXPAPAVCGravityDecorator@NEffectUpdateDecorator@@QAPAV12@AAV?$allocator@PAVCGravityDecorator@NEffectUpdateDecorator@@@0@@Z ENDP ; std::_Destroy_range<std::allocator<NEffectUpdateDecorator::CGravityDecorator *> >
_TEXT	ENDS
; Function compile flags: /Ogtp
; File C:\Program Files (x86)\Microsoft Visual Studio\2019\Community\VC\Tools\MSVC\14.28.29333\include\xmemory
;	COMDAT ??$_Destroy_range@V?$allocator@PAVCAirResistanceDecorator@NEffectUpdateDecorator@@@std@@@std@@YAXPAPAVCAirResistanceDecorator@NEffectUpdateDecorator@@QAPAV12@AAV?$allocator@PAVCAirResistanceDecorator@NEffectUpdateDecorator@@@0@@Z
_TEXT	SEGMENT
__First$ = 8						; size = 4
__Last$ = 12						; size = 4
__Al$ = 16						; size = 4
??$_Destroy_range@V?$allocator@PAVCAirResistanceDecorator@NEffectUpdateDecorator@@@std@@@std@@YAXPAPAVCAirResistanceDecorator@NEffectUpdateDecorator@@QAPAV12@AAV?$allocator@PAVCAirResistanceDecorator@NEffectUpdateDecorator@@@0@@Z PROC ; std::_Destroy_range<std::allocator<NEffectUpdateDecorator::CAirResistanceDecorator *> >, COMDAT

; 963  :     // note that this is an optimization for debug mode codegen; in release mode the BE removes all of this
; 964  :     using _Ty = typename _Alloc::value_type;
; 965  :     if _CONSTEXPR_IF (!conjunction_v<is_trivially_destructible<_Ty>, _Uses_default_destroy<_Alloc, _Ty*>>) {
; 966  :         for (; _First != _Last; ++_First) {
; 967  :             allocator_traits<_Alloc>::destroy(_Al, _Unfancy(_First));
; 968  :         }
; 969  :     }
; 970  : }

  00000	c2 00 00	 ret	 0
??$_Destroy_range@V?$allocator@PAVCAirResistanceDecorator@NEffectUpdateDecorator@@@std@@@std@@YAXPAPAVCAirResistanceDecorator@NEffectUpdateDecorator@@QAPAV12@AAV?$allocator@PAVCAirResistanceDecorator@NEffectUpdateDecorator@@@0@@Z ENDP ; std::_Destroy_range<std::allocator<NEffectUpdateDecorator::CAirResistanceDecorator *> >
_TEXT	ENDS
; Function compile flags: /Ogtp
; File C:\Program Files (x86)\Microsoft Visual Studio\2019\Community\VC\Tools\MSVC\14.28.29333\include\xmemory
;	COMDAT ??$_Destroy_range@V?$allocator@PAVCTextureAnimationRandomDecorator@NEffectUpdateDecorator@@@std@@@std@@YAXPAPAVCTextureAnimationRandomDecorator@NEffectUpdateDecorator@@QAPAV12@AAV?$allocator@PAVCTextureAnimationRandomDecorator@NEffectUpdateDecorator@@@0@@Z
_TEXT	SEGMENT
__First$ = 8						; size = 4
__Last$ = 12						; size = 4
__Al$ = 16						; size = 4
??$_Destroy_range@V?$allocator@PAVCTextureAnimationRandomDecorator@NEffectUpdateDecorator@@@std@@@std@@YAXPAPAVCTextureAnimationRandomDecorator@NEffectUpdateDecorator@@QAPAV12@AAV?$allocator@PAVCTextureAnimationRandomDecorator@NEffectUpdateDecorator@@@0@@Z PROC ; std::_Destroy_range<std::allocator<NEffectUpdateDecorator::CTextureAnimationRandomDecorator *> >, COMDAT

; 963  :     // note that this is an optimization for debug mode codegen; in release mode the BE removes all of this
; 964  :     using _Ty = typename _Alloc::value_type;
; 965  :     if _CONSTEXPR_IF (!conjunction_v<is_trivially_destructible<_Ty>, _Uses_default_destroy<_Alloc, _Ty*>>) {
; 966  :         for (; _First != _Last; ++_First) {
; 967  :             allocator_traits<_Alloc>::destroy(_Al, _Unfancy(_First));
; 968  :         }
; 969  :     }
; 970  : }

  00000	c2 00 00	 ret	 0
??$_Destroy_range@V?$allocator@PAVCTextureAnimationRandomDecorator@NEffectUpdateDecorator@@@std@@@std@@YAXPAPAVCTextureAnimationRandomDecorator@NEffectUpdateDecorator@@QAPAV12@AAV?$allocator@PAVCTextureAnimationRandomDecorator@NEffectUpdateDecorator@@@0@@Z ENDP ; std::_Destroy_range<std::allocator<NEffectUpdateDecorator::CTextureAnimationRandomDecorator *> >
_TEXT	ENDS
; Function compile flags: /Ogtp
; File C:\Program Files (x86)\Microsoft Visual Studio\2019\Community\VC\Tools\MSVC\14.28.29333\include\xmemory
;	COMDAT ??$_Destroy_range@V?$allocator@PAVCTextureAnimationCCWDecorator@NEffectUpdateDecorator@@@std@@@std@@YAXPAPAVCTextureAnimationCCWDecorator@NEffectUpdateDecorator@@QAPAV12@AAV?$allocator@PAVCTextureAnimationCCWDecorator@NEffectUpdateDecorator@@@0@@Z
_TEXT	SEGMENT
__First$ = 8						; size = 4
__Last$ = 12						; size = 4
__Al$ = 16						; size = 4
??$_Destroy_range@V?$allocator@PAVCTextureAnimationCCWDecorator@NEffectUpdateDecorator@@@std@@@std@@YAXPAPAVCTextureAnimationCCWDecorator@NEffectUpdateDecorator@@QAPAV12@AAV?$allocator@PAVCTextureAnimationCCWDecorator@NEffectUpdateDecorator@@@0@@Z PROC ; std::_Destroy_range<std::allocator<NEffectUpdateDecorator::CTextureAnimationCCWDecorator *> >, COMDAT

; 963  :     // note that this is an optimization for debug mode codegen; in release mode the BE removes all of this
; 964  :     using _Ty = typename _Alloc::value_type;
; 965  :     if _CONSTEXPR_IF (!conjunction_v<is_trivially_destructible<_Ty>, _Uses_default_destroy<_Alloc, _Ty*>>) {
; 966  :         for (; _First != _Last; ++_First) {
; 967  :             allocator_traits<_Alloc>::destroy(_Al, _Unfancy(_First));
; 968  :         }
; 969  :     }
; 970  : }

  00000	c2 00 00	 ret	 0
??$_Destroy_range@V?$allocator@PAVCTextureAnimationCCWDecorator@NEffectUpdateDecorator@@@std@@@std@@YAXPAPAVCTextureAnimationCCWDecorator@NEffectUpdateDecorator@@QAPAV12@AAV?$allocator@PAVCTextureAnimationCCWDecorator@NEffectUpdateDecorator@@@0@@Z ENDP ; std::_Destroy_range<std::allocator<NEffectUpdateDecorator::CTextureAnimationCCWDecorator *> >
_TEXT	ENDS
; Function compile flags: /Ogtp
; File C:\Program Files (x86)\Microsoft Visual Studio\2019\Community\VC\Tools\MSVC\14.28.29333\include\xmemory
;	COMDAT ??$_Destroy_range@V?$allocator@PAVCTextureAnimationCWDecorator@NEffectUpdateDecorator@@@std@@@std@@YAXPAPAVCTextureAnimationCWDecorator@NEffectUpdateDecorator@@QAPAV12@AAV?$allocator@PAVCTextureAnimationCWDecorator@NEffectUpdateDecorator@@@0@@Z
_TEXT	SEGMENT
__First$ = 8						; size = 4
__Last$ = 12						; size = 4
__Al$ = 16						; size = 4
??$_Destroy_range@V?$allocator@PAVCTextureAnimationCWDecorator@NEffectUpdateDecorator@@@std@@@std@@YAXPAPAVCTextureAnimationCWDecorator@NEffectUpdateDecorator@@QAPAV12@AAV?$allocator@PAVCTextureAnimationCWDecorator@NEffectUpdateDecorator@@@0@@Z PROC ; std::_Destroy_range<std::allocator<NEffectUpdateDecorator::CTextureAnimationCWDecorator *> >, COMDAT

; 963  :     // note that this is an optimization for debug mode codegen; in release mode the BE removes all of this
; 964  :     using _Ty = typename _Alloc::value_type;
; 965  :     if _CONSTEXPR_IF (!conjunction_v<is_trivially_destructible<_Ty>, _Uses_default_destroy<_Alloc, _Ty*>>) {
; 966  :         for (; _First != _Last; ++_First) {
; 967  :             allocator_traits<_Alloc>::destroy(_Al, _Unfancy(_First));
; 968  :         }
; 969  :     }
; 970  : }

  00000	c2 00 00	 ret	 0
??$_Destroy_range@V?$allocator@PAVCTextureAnimationCWDecorator@NEffectUpdateDecorator@@@std@@@std@@YAXPAPAVCTextureAnimationCWDecorator@NEffectUpdateDecorator@@QAPAV12@AAV?$allocator@PAVCTextureAnimationCWDecorator@NEffectUpdateDecorator@@@0@@Z ENDP ; std::_Destroy_range<std::allocator<NEffectUpdateDecorator::CTextureAnimationCWDecorator *> >
_TEXT	ENDS
; Function compile flags: /Ogtp
; File C:\Program Files (x86)\Microsoft Visual Studio\2019\Community\VC\Tools\MSVC\14.28.29333\include\xmemory
;	COMDAT ??$_Destroy_range@V?$allocator@PAVCNullDecorator@NEffectUpdateDecorator@@@std@@@std@@YAXPAPAVCNullDecorator@NEffectUpdateDecorator@@QAPAV12@AAV?$allocator@PAVCNullDecorator@NEffectUpdateDecorator@@@0@@Z
_TEXT	SEGMENT
__First$ = 8						; size = 4
__Last$ = 12						; size = 4
__Al$ = 16						; size = 4
??$_Destroy_range@V?$allocator@PAVCNullDecorator@NEffectUpdateDecorator@@@std@@@std@@YAXPAPAVCNullDecorator@NEffectUpdateDecorator@@QAPAV12@AAV?$allocator@PAVCNullDecorator@NEffectUpdateDecorator@@@0@@Z PROC ; std::_Destroy_range<std::allocator<NEffectUpdateDecorator::CNullDecorator *> >, COMDAT

; 963  :     // note that this is an optimization for debug mode codegen; in release mode the BE removes all of this
; 964  :     using _Ty = typename _Alloc::value_type;
; 965  :     if _CONSTEXPR_IF (!conjunction_v<is_trivially_destructible<_Ty>, _Uses_default_destroy<_Alloc, _Ty*>>) {
; 966  :         for (; _First != _Last; ++_First) {
; 967  :             allocator_traits<_Alloc>::destroy(_Al, _Unfancy(_First));
; 968  :         }
; 969  :     }
; 970  : }

  00000	c2 00 00	 ret	 0
??$_Destroy_range@V?$allocator@PAVCNullDecorator@NEffectUpdateDecorator@@@std@@@std@@YAXPAPAVCNullDecorator@NEffectUpdateDecorator@@QAPAV12@AAV?$allocator@PAVCNullDecorator@NEffectUpdateDecorator@@@0@@Z ENDP ; std::_Destroy_range<std::allocator<NEffectUpdateDecorator::CNullDecorator *> >
_TEXT	ENDS
; Function compile flags: /Ogtp
; File C:\Program Files (x86)\Microsoft Visual Studio\2019\Community\VC\Tools\MSVC\14.28.29333\include\xmemory
;	COMDAT ??$_Destroy_range@V?$allocator@PAVCHeaderDecorator@NEffectUpdateDecorator@@@std@@@std@@YAXPAPAVCHeaderDecorator@NEffectUpdateDecorator@@QAPAV12@AAV?$allocator@PAVCHeaderDecorator@NEffectUpdateDecorator@@@0@@Z
_TEXT	SEGMENT
__First$ = 8						; size = 4
__Last$ = 12						; size = 4
__Al$ = 16						; size = 4
??$_Destroy_range@V?$allocator@PAVCHeaderDecorator@NEffectUpdateDecorator@@@std@@@std@@YAXPAPAVCHeaderDecorator@NEffectUpdateDecorator@@QAPAV12@AAV?$allocator@PAVCHeaderDecorator@NEffectUpdateDecorator@@@0@@Z PROC ; std::_Destroy_range<std::allocator<NEffectUpdateDecorator::CHeaderDecorator *> >, COMDAT

; 963  :     // note that this is an optimization for debug mode codegen; in release mode the BE removes all of this
; 964  :     using _Ty = typename _Alloc::value_type;
; 965  :     if _CONSTEXPR_IF (!conjunction_v<is_trivially_destructible<_Ty>, _Uses_default_destroy<_Alloc, _Ty*>>) {
; 966  :         for (; _First != _Last; ++_First) {
; 967  :             allocator_traits<_Alloc>::destroy(_Al, _Unfancy(_First));
; 968  :         }
; 969  :     }
; 970  : }

  00000	c2 00 00	 ret	 0
??$_Destroy_range@V?$allocator@PAVCHeaderDecorator@NEffectUpdateDecorator@@@std@@@std@@YAXPAPAVCHeaderDecorator@NEffectUpdateDecorator@@QAPAV12@AAV?$allocator@PAVCHeaderDecorator@NEffectUpdateDecorator@@@0@@Z ENDP ; std::_Destroy_range<std::allocator<NEffectUpdateDecorator::CHeaderDecorator *> >
_TEXT	ENDS
; Function compile flags: /Ogtp
;	COMDAT ??_G?$CDynamicPoolEx@VCHeaderDecorator@NEffectUpdateDecorator@@@@UAEPAXI@Z
_TEXT	SEGMENT
___flags$ = 8						; size = 4
??_G?$CDynamicPoolEx@VCHeaderDecorator@NEffectUpdateDecorator@@@@UAEPAXI@Z PROC ; CDynamicPoolEx<NEffectUpdateDecorator::CHeaderDecorator>::`scalar deleting destructor', COMDAT
; _this$ = ecx
  00000	55		 push	 ebp
  00001	8b ec		 mov	 ebp, esp
  00003	56		 push	 esi
  00004	8b f1		 mov	 esi, ecx
  00006	e8 00 00 00 00	 call	 ??1?$CDynamicPoolEx@VCHeaderDecorator@NEffectUpdateDecorator@@@@UAE@XZ ; CDynamicPoolEx<NEffectUpdateDecorator::CHeaderDecorator>::~CDynamicPoolEx<NEffectUpdateDecorator::CHeaderDecorator>
  0000b	f6 45 08 01	 test	 BYTE PTR ___flags$[ebp], 1
  0000f	74 0b		 je	 SHORT $LN4@scalar
  00011	6a 24		 push	 36			; 00000024H
  00013	56		 push	 esi
  00014	e8 00 00 00 00	 call	 ??3@YAXPAXI@Z		; operator delete
  00019	83 c4 08	 add	 esp, 8
$LN4@scalar:
  0001c	8b c6		 mov	 eax, esi
  0001e	5e		 pop	 esi
  0001f	5d		 pop	 ebp
  00020	c2 04 00	 ret	 4
??_G?$CDynamicPoolEx@VCHeaderDecorator@NEffectUpdateDecorator@@@@UAEPAXI@Z ENDP ; CDynamicPoolEx<NEffectUpdateDecorator::CHeaderDecorator>::`scalar deleting destructor'
_TEXT	ENDS
; Function compile flags: /Ogtp
; File D:\Metin2 Server Files\mainline\SRC_2014\Metin2Client\eterLib\Pool.h
;	COMDAT ?Delete@?$CDynamicPoolEx@VCHeaderDecorator@NEffectUpdateDecorator@@@@KAXPAVCHeaderDecorator@NEffectUpdateDecorator@@@Z
_TEXT	SEGMENT
_pkData$ = 8						; size = 4
?Delete@?$CDynamicPoolEx@VCHeaderDecorator@NEffectUpdateDecorator@@@@KAXPAVCHeaderDecorator@NEffectUpdateDecorator@@@Z PROC ; CDynamicPoolEx<NEffectUpdateDecorator::CHeaderDecorator>::Delete, COMDAT

; 224  : 			::operator delete(pkData);

  00000	e9 00 00 00 00	 jmp	 ??3@YAXPAX@Z		; operator delete
?Delete@?$CDynamicPoolEx@VCHeaderDecorator@NEffectUpdateDecorator@@@@KAXPAVCHeaderDecorator@NEffectUpdateDecorator@@@Z ENDP ; CDynamicPoolEx<NEffectUpdateDecorator::CHeaderDecorator>::Delete
_TEXT	ENDS
; Function compile flags: /Ogtp
; File D:\Metin2 Server Files\mainline\SRC_2014\Metin2Client\eterLib\Pool.h
; File C:\Program Files (x86)\Microsoft Visual Studio\2019\Community\VC\Tools\MSVC\14.28.29333\include\vector
; File C:\Program Files (x86)\Microsoft Visual Studio\2019\Community\VC\Tools\MSVC\14.28.29333\include\algorithm
; File D:\Metin2 Server Files\mainline\SRC_2014\Metin2Client\eterLib\Pool.h
; File C:\Program Files (x86)\Microsoft Visual Studio\2019\Community\VC\Tools\MSVC\14.28.29333\include\algorithm
; File D:\Metin2 Server Files\mainline\SRC_2014\Metin2Client\eterLib\Pool.h
; File C:\Program Files (x86)\Microsoft Visual Studio\2019\Community\VC\Tools\MSVC\14.28.29333\include\algorithm
; File D:\Metin2 Server Files\mainline\SRC_2014\Metin2Client\eterLib\Pool.h
; File C:\Program Files (x86)\Microsoft Visual Studio\2019\Community\VC\Tools\MSVC\14.28.29333\include\vector
; File C:\Program Files (x86)\Microsoft Visual Studio\2019\Community\VC\Tools\MSVC\14.28.29333\include\xmemory
; File C:\Program Files (x86)\Microsoft Visual Studio\2019\Community\VC\Tools\MSVC\14.28.29333\include\vector
; File C:\Program Files (x86)\Microsoft Visual Studio\2019\Community\VC\Tools\MSVC\14.28.29333\include\xmemory
; File C:\Program Files (x86)\Microsoft Visual Studio\2019\Community\VC\Tools\MSVC\14.28.29333\include\vector
; File C:\Program Files (x86)\Microsoft Visual Studio\2019\Community\VC\Tools\MSVC\14.28.29333\include\xmemory
; File C:\Program Files (x86)\Microsoft Visual Studio\2019\Community\VC\Tools\MSVC\14.28.29333\include\vector
; File C:\Program Files (x86)\Microsoft Visual Studio\2019\Community\VC\Tools\MSVC\14.28.29333\include\xmemory
; File C:\Program Files (x86)\Microsoft Visual Studio\2019\Community\VC\Tools\MSVC\14.28.29333\include\vector
; File D:\Metin2 Server Files\mainline\SRC_2014\Metin2Client\eterLib\Pool.h
;	COMDAT ??1?$CDynamicPoolEx@VCHeaderDecorator@NEffectUpdateDecorator@@@@UAE@XZ
_TEXT	SEGMENT
??1?$CDynamicPoolEx@VCHeaderDecorator@NEffectUpdateDecorator@@@@UAE@XZ PROC ; CDynamicPoolEx<NEffectUpdateDecorator::CHeaderDecorator>::~CDynamicPoolEx<NEffectUpdateDecorator::CHeaderDecorator>, COMDAT
; _this$ = ecx

; 132  : 		{

  00000	53		 push	 ebx
  00001	56		 push	 esi
  00002	57		 push	 edi
  00003	8b f9		 mov	 edi, ecx
  00005	c7 07 00 00 00
	00		 mov	 DWORD PTR [edi], OFFSET ??_7?$CDynamicPoolEx@VCHeaderDecorator@NEffectUpdateDecorator@@@@6B@
; File C:\Program Files (x86)\Microsoft Visual Studio\2019\Community\VC\Tools\MSVC\14.28.29333\include\vector

; 42   :     _Vector_const_iterator(_Tptr _Parg, const _Container_base* _Pvector) noexcept : _Ptr(_Parg) {

  0000b	8b 5f 08	 mov	 ebx, DWORD PTR [edi+8]
  0000e	8b 77 04	 mov	 esi, DWORD PTR [edi+4]
; File C:\Program Files (x86)\Microsoft Visual Studio\2019\Community\VC\Tools\MSVC\14.28.29333\include\algorithm

; 307  :     for (; _UFirst != _ULast; ++_UFirst) {

  00011	3b f3		 cmp	 esi, ebx
  00013	74 14		 je	 SHORT $LN19@CDynamicPo
$LL20@CDynamicPo:
; File D:\Metin2 Server Files\mainline\SRC_2014\Metin2Client\eterLib\Pool.h

; 224  : 			::operator delete(pkData);

  00015	ff 36		 push	 DWORD PTR [esi]
  00017	e8 00 00 00 00	 call	 ??3@YAXPAX@Z		; operator delete
; File C:\Program Files (x86)\Microsoft Visual Studio\2019\Community\VC\Tools\MSVC\14.28.29333\include\algorithm

; 307  :     for (; _UFirst != _ULast; ++_UFirst) {

  0001c	83 c6 04	 add	 esi, 4
; File D:\Metin2 Server Files\mainline\SRC_2014\Metin2Client\eterLib\Pool.h

; 224  : 			::operator delete(pkData);

  0001f	83 c4 04	 add	 esp, 4
; File C:\Program Files (x86)\Microsoft Visual Studio\2019\Community\VC\Tools\MSVC\14.28.29333\include\algorithm

; 307  :     for (; _UFirst != _ULast; ++_UFirst) {

  00022	3b f3		 cmp	 esi, ebx
  00024	75 ef		 jne	 SHORT $LL20@CDynamicPo
  00026	8b 77 04	 mov	 esi, DWORD PTR [edi+4]
$LN19@CDynamicPo:
; File D:\Metin2 Server Files\mainline\SRC_2014\Metin2Client\eterLib\Pool.h

; 162  : 			m_kVct_pkFree.clear();

  00029	8b 4f 10	 mov	 ecx, DWORD PTR [edi+16]
  0002c	89 77 08	 mov	 DWORD PTR [edi+8], esi
  0002f	89 4f 14	 mov	 DWORD PTR [edi+20], ecx
; File C:\Program Files (x86)\Microsoft Visual Studio\2019\Community\VC\Tools\MSVC\14.28.29333\include\vector

; 1694 :         if (_Myfirst) { // destroy and deallocate old array

  00032	85 c9		 test	 ecx, ecx
  00034	74 27		 je	 SHORT $LN27@CDynamicPo

; 1695 :             _Destroy(_Myfirst, _Mylast);
; 1696 :             _Getal().deallocate(_Myfirst, static_cast<size_type>(_Myend - _Myfirst));

  00036	8b 47 18	 mov	 eax, DWORD PTR [edi+24]
  00039	2b c1		 sub	 eax, ecx
; File C:\Program Files (x86)\Microsoft Visual Studio\2019\Community\VC\Tools\MSVC\14.28.29333\include\xmemory

; 810  :         _Deallocate<_New_alignof<_Ty>>(_Ptr, sizeof(_Ty) * _Count);

  0003b	83 e0 fc	 and	 eax, -4			; fffffffcH
  0003e	50		 push	 eax
  0003f	51		 push	 ecx
  00040	e8 00 00 00 00	 call	 ??$_Deallocate@$07$0A@@std@@YAXPAXI@Z ; std::_Deallocate<8,0>
; File C:\Program Files (x86)\Microsoft Visual Studio\2019\Community\VC\Tools\MSVC\14.28.29333\include\vector

; 1698 :             _Myfirst = pointer();

  00045	c7 47 10 00 00
	00 00		 mov	 DWORD PTR [edi+16], 0
; File C:\Program Files (x86)\Microsoft Visual Studio\2019\Community\VC\Tools\MSVC\14.28.29333\include\xmemory

; 810  :         _Deallocate<_New_alignof<_Ty>>(_Ptr, sizeof(_Ty) * _Count);

  0004c	83 c4 08	 add	 esp, 8
; File C:\Program Files (x86)\Microsoft Visual Studio\2019\Community\VC\Tools\MSVC\14.28.29333\include\vector

; 1699 :             _Mylast  = pointer();

  0004f	c7 47 14 00 00
	00 00		 mov	 DWORD PTR [edi+20], 0

; 1700 :             _Myend   = pointer();

  00056	c7 47 18 00 00
	00 00		 mov	 DWORD PTR [edi+24], 0
$LN27@CDynamicPo:

; 1694 :         if (_Myfirst) { // destroy and deallocate old array

  0005d	8b 4f 04	 mov	 ecx, DWORD PTR [edi+4]
  00060	85 c9		 test	 ecx, ecx
  00062	74 27		 je	 SHORT $LN34@CDynamicPo

; 1695 :             _Destroy(_Myfirst, _Mylast);
; 1696 :             _Getal().deallocate(_Myfirst, static_cast<size_type>(_Myend - _Myfirst));

  00064	8b 47 0c	 mov	 eax, DWORD PTR [edi+12]
  00067	2b c1		 sub	 eax, ecx
; File C:\Program Files (x86)\Microsoft Visual Studio\2019\Community\VC\Tools\MSVC\14.28.29333\include\xmemory

; 810  :         _Deallocate<_New_alignof<_Ty>>(_Ptr, sizeof(_Ty) * _Count);

  00069	83 e0 fc	 and	 eax, -4			; fffffffcH
  0006c	50		 push	 eax
  0006d	51		 push	 ecx
  0006e	e8 00 00 00 00	 call	 ??$_Deallocate@$07$0A@@std@@YAXPAXI@Z ; std::_Deallocate<8,0>
; File C:\Program Files (x86)\Microsoft Visual Studio\2019\Community\VC\Tools\MSVC\14.28.29333\include\vector

; 1698 :             _Myfirst = pointer();

  00073	c7 47 04 00 00
	00 00		 mov	 DWORD PTR [edi+4], 0
; File C:\Program Files (x86)\Microsoft Visual Studio\2019\Community\VC\Tools\MSVC\14.28.29333\include\xmemory

; 810  :         _Deallocate<_New_alignof<_Ty>>(_Ptr, sizeof(_Ty) * _Count);

  0007a	83 c4 08	 add	 esp, 8
; File C:\Program Files (x86)\Microsoft Visual Studio\2019\Community\VC\Tools\MSVC\14.28.29333\include\vector

; 1699 :             _Mylast  = pointer();

  0007d	c7 47 08 00 00
	00 00		 mov	 DWORD PTR [edi+8], 0

; 1700 :             _Myend   = pointer();

  00084	c7 47 0c 00 00
	00 00		 mov	 DWORD PTR [edi+12], 0
$LN34@CDynamicPo:
  0008b	5f		 pop	 edi
; File D:\Metin2 Server Files\mainline\SRC_2014\Metin2Client\eterLib\Pool.h

; 142  : 		}

  0008c	5e		 pop	 esi
  0008d	5b		 pop	 ebx
  0008e	c3		 ret	 0
??1?$CDynamicPoolEx@VCHeaderDecorator@NEffectUpdateDecorator@@@@UAE@XZ ENDP ; CDynamicPoolEx<NEffectUpdateDecorator::CHeaderDecorator>::~CDynamicPoolEx<NEffectUpdateDecorator::CHeaderDecorator>
_TEXT	ENDS
; Function compile flags: /Ogtp
;	COMDAT ??_G?$CDynamicPoolEx@VCNullDecorator@NEffectUpdateDecorator@@@@UAEPAXI@Z
_TEXT	SEGMENT
___flags$ = 8						; size = 4
??_G?$CDynamicPoolEx@VCNullDecorator@NEffectUpdateDecorator@@@@UAEPAXI@Z PROC ; CDynamicPoolEx<NEffectUpdateDecorator::CNullDecorator>::`scalar deleting destructor', COMDAT
; _this$ = ecx
  00000	55		 push	 ebp
  00001	8b ec		 mov	 ebp, esp
  00003	56		 push	 esi
  00004	8b f1		 mov	 esi, ecx
  00006	e8 00 00 00 00	 call	 ??1?$CDynamicPoolEx@VCNullDecorator@NEffectUpdateDecorator@@@@UAE@XZ ; CDynamicPoolEx<NEffectUpdateDecorator::CNullDecorator>::~CDynamicPoolEx<NEffectUpdateDecorator::CNullDecorator>
  0000b	f6 45 08 01	 test	 BYTE PTR ___flags$[ebp], 1
  0000f	74 0b		 je	 SHORT $LN4@scalar
  00011	6a 24		 push	 36			; 00000024H
  00013	56		 push	 esi
  00014	e8 00 00 00 00	 call	 ??3@YAXPAXI@Z		; operator delete
  00019	83 c4 08	 add	 esp, 8
$LN4@scalar:
  0001c	8b c6		 mov	 eax, esi
  0001e	5e		 pop	 esi
  0001f	5d		 pop	 ebp
  00020	c2 04 00	 ret	 4
??_G?$CDynamicPoolEx@VCNullDecorator@NEffectUpdateDecorator@@@@UAEPAXI@Z ENDP ; CDynamicPoolEx<NEffectUpdateDecorator::CNullDecorator>::`scalar deleting destructor'
_TEXT	ENDS
; Function compile flags: /Ogtp
; File D:\Metin2 Server Files\mainline\SRC_2014\Metin2Client\eterLib\Pool.h
;	COMDAT ?Delete@?$CDynamicPoolEx@VCNullDecorator@NEffectUpdateDecorator@@@@KAXPAVCNullDecorator@NEffectUpdateDecorator@@@Z
_TEXT	SEGMENT
_pkData$ = 8						; size = 4
?Delete@?$CDynamicPoolEx@VCNullDecorator@NEffectUpdateDecorator@@@@KAXPAVCNullDecorator@NEffectUpdateDecorator@@@Z PROC ; CDynamicPoolEx<NEffectUpdateDecorator::CNullDecorator>::Delete, COMDAT

; 224  : 			::operator delete(pkData);

  00000	e9 00 00 00 00	 jmp	 ??3@YAXPAX@Z		; operator delete
?Delete@?$CDynamicPoolEx@VCNullDecorator@NEffectUpdateDecorator@@@@KAXPAVCNullDecorator@NEffectUpdateDecorator@@@Z ENDP ; CDynamicPoolEx<NEffectUpdateDecorator::CNullDecorator>::Delete
_TEXT	ENDS
; Function compile flags: /Ogtp
; File D:\Metin2 Server Files\mainline\SRC_2014\Metin2Client\eterLib\Pool.h
; File C:\Program Files (x86)\Microsoft Visual Studio\2019\Community\VC\Tools\MSVC\14.28.29333\include\vector
; File C:\Program Files (x86)\Microsoft Visual Studio\2019\Community\VC\Tools\MSVC\14.28.29333\include\algorithm
; File D:\Metin2 Server Files\mainline\SRC_2014\Metin2Client\eterLib\Pool.h
; File C:\Program Files (x86)\Microsoft Visual Studio\2019\Community\VC\Tools\MSVC\14.28.29333\include\algorithm
; File D:\Metin2 Server Files\mainline\SRC_2014\Metin2Client\eterLib\Pool.h
; File C:\Program Files (x86)\Microsoft Visual Studio\2019\Community\VC\Tools\MSVC\14.28.29333\include\algorithm
; File D:\Metin2 Server Files\mainline\SRC_2014\Metin2Client\eterLib\Pool.h
; File C:\Program Files (x86)\Microsoft Visual Studio\2019\Community\VC\Tools\MSVC\14.28.29333\include\vector
; File C:\Program Files (x86)\Microsoft Visual Studio\2019\Community\VC\Tools\MSVC\14.28.29333\include\xmemory
; File C:\Program Files (x86)\Microsoft Visual Studio\2019\Community\VC\Tools\MSVC\14.28.29333\include\vector
; File C:\Program Files (x86)\Microsoft Visual Studio\2019\Community\VC\Tools\MSVC\14.28.29333\include\xmemory
; File C:\Program Files (x86)\Microsoft Visual Studio\2019\Community\VC\Tools\MSVC\14.28.29333\include\vector
; File C:\Program Files (x86)\Microsoft Visual Studio\2019\Community\VC\Tools\MSVC\14.28.29333\include\xmemory
; File C:\Program Files (x86)\Microsoft Visual Studio\2019\Community\VC\Tools\MSVC\14.28.29333\include\vector
; File C:\Program Files (x86)\Microsoft Visual Studio\2019\Community\VC\Tools\MSVC\14.28.29333\include\xmemory
; File C:\Program Files (x86)\Microsoft Visual Studio\2019\Community\VC\Tools\MSVC\14.28.29333\include\vector
; File D:\Metin2 Server Files\mainline\SRC_2014\Metin2Client\eterLib\Pool.h
;	COMDAT ??1?$CDynamicPoolEx@VCNullDecorator@NEffectUpdateDecorator@@@@UAE@XZ
_TEXT	SEGMENT
??1?$CDynamicPoolEx@VCNullDecorator@NEffectUpdateDecorator@@@@UAE@XZ PROC ; CDynamicPoolEx<NEffectUpdateDecorator::CNullDecorator>::~CDynamicPoolEx<NEffectUpdateDecorator::CNullDecorator>, COMDAT
; _this$ = ecx

; 132  : 		{

  00000	53		 push	 ebx
  00001	56		 push	 esi
  00002	57		 push	 edi
  00003	8b f9		 mov	 edi, ecx
  00005	c7 07 00 00 00
	00		 mov	 DWORD PTR [edi], OFFSET ??_7?$CDynamicPoolEx@VCNullDecorator@NEffectUpdateDecorator@@@@6B@
; File C:\Program Files (x86)\Microsoft Visual Studio\2019\Community\VC\Tools\MSVC\14.28.29333\include\vector

; 42   :     _Vector_const_iterator(_Tptr _Parg, const _Container_base* _Pvector) noexcept : _Ptr(_Parg) {

  0000b	8b 5f 08	 mov	 ebx, DWORD PTR [edi+8]
  0000e	8b 77 04	 mov	 esi, DWORD PTR [edi+4]
; File C:\Program Files (x86)\Microsoft Visual Studio\2019\Community\VC\Tools\MSVC\14.28.29333\include\algorithm

; 307  :     for (; _UFirst != _ULast; ++_UFirst) {

  00011	3b f3		 cmp	 esi, ebx
  00013	74 14		 je	 SHORT $LN19@CDynamicPo
$LL20@CDynamicPo:
; File D:\Metin2 Server Files\mainline\SRC_2014\Metin2Client\eterLib\Pool.h

; 224  : 			::operator delete(pkData);

  00015	ff 36		 push	 DWORD PTR [esi]
  00017	e8 00 00 00 00	 call	 ??3@YAXPAX@Z		; operator delete
; File C:\Program Files (x86)\Microsoft Visual Studio\2019\Community\VC\Tools\MSVC\14.28.29333\include\algorithm

; 307  :     for (; _UFirst != _ULast; ++_UFirst) {

  0001c	83 c6 04	 add	 esi, 4
; File D:\Metin2 Server Files\mainline\SRC_2014\Metin2Client\eterLib\Pool.h

; 224  : 			::operator delete(pkData);

  0001f	83 c4 04	 add	 esp, 4
; File C:\Program Files (x86)\Microsoft Visual Studio\2019\Community\VC\Tools\MSVC\14.28.29333\include\algorithm

; 307  :     for (; _UFirst != _ULast; ++_UFirst) {

  00022	3b f3		 cmp	 esi, ebx
  00024	75 ef		 jne	 SHORT $LL20@CDynamicPo
  00026	8b 77 04	 mov	 esi, DWORD PTR [edi+4]
$LN19@CDynamicPo:
; File D:\Metin2 Server Files\mainline\SRC_2014\Metin2Client\eterLib\Pool.h

; 162  : 			m_kVct_pkFree.clear();

  00029	8b 4f 10	 mov	 ecx, DWORD PTR [edi+16]
  0002c	89 77 08	 mov	 DWORD PTR [edi+8], esi
  0002f	89 4f 14	 mov	 DWORD PTR [edi+20], ecx
; File C:\Program Files (x86)\Microsoft Visual Studio\2019\Community\VC\Tools\MSVC\14.28.29333\include\vector

; 1694 :         if (_Myfirst) { // destroy and deallocate old array

  00032	85 c9		 test	 ecx, ecx
  00034	74 27		 je	 SHORT $LN27@CDynamicPo

; 1695 :             _Destroy(_Myfirst, _Mylast);
; 1696 :             _Getal().deallocate(_Myfirst, static_cast<size_type>(_Myend - _Myfirst));

  00036	8b 47 18	 mov	 eax, DWORD PTR [edi+24]
  00039	2b c1		 sub	 eax, ecx
; File C:\Program Files (x86)\Microsoft Visual Studio\2019\Community\VC\Tools\MSVC\14.28.29333\include\xmemory

; 810  :         _Deallocate<_New_alignof<_Ty>>(_Ptr, sizeof(_Ty) * _Count);

  0003b	83 e0 fc	 and	 eax, -4			; fffffffcH
  0003e	50		 push	 eax
  0003f	51		 push	 ecx
  00040	e8 00 00 00 00	 call	 ??$_Deallocate@$07$0A@@std@@YAXPAXI@Z ; std::_Deallocate<8,0>
; File C:\Program Files (x86)\Microsoft Visual Studio\2019\Community\VC\Tools\MSVC\14.28.29333\include\vector

; 1698 :             _Myfirst = pointer();

  00045	c7 47 10 00 00
	00 00		 mov	 DWORD PTR [edi+16], 0
; File C:\Program Files (x86)\Microsoft Visual Studio\2019\Community\VC\Tools\MSVC\14.28.29333\include\xmemory

; 810  :         _Deallocate<_New_alignof<_Ty>>(_Ptr, sizeof(_Ty) * _Count);

  0004c	83 c4 08	 add	 esp, 8
; File C:\Program Files (x86)\Microsoft Visual Studio\2019\Community\VC\Tools\MSVC\14.28.29333\include\vector

; 1699 :             _Mylast  = pointer();

  0004f	c7 47 14 00 00
	00 00		 mov	 DWORD PTR [edi+20], 0

; 1700 :             _Myend   = pointer();

  00056	c7 47 18 00 00
	00 00		 mov	 DWORD PTR [edi+24], 0
$LN27@CDynamicPo:

; 1694 :         if (_Myfirst) { // destroy and deallocate old array

  0005d	8b 4f 04	 mov	 ecx, DWORD PTR [edi+4]
  00060	85 c9		 test	 ecx, ecx
  00062	74 27		 je	 SHORT $LN34@CDynamicPo

; 1695 :             _Destroy(_Myfirst, _Mylast);
; 1696 :             _Getal().deallocate(_Myfirst, static_cast<size_type>(_Myend - _Myfirst));

  00064	8b 47 0c	 mov	 eax, DWORD PTR [edi+12]
  00067	2b c1		 sub	 eax, ecx
; File C:\Program Files (x86)\Microsoft Visual Studio\2019\Community\VC\Tools\MSVC\14.28.29333\include\xmemory

; 810  :         _Deallocate<_New_alignof<_Ty>>(_Ptr, sizeof(_Ty) * _Count);

  00069	83 e0 fc	 and	 eax, -4			; fffffffcH
  0006c	50		 push	 eax
  0006d	51		 push	 ecx
  0006e	e8 00 00 00 00	 call	 ??$_Deallocate@$07$0A@@std@@YAXPAXI@Z ; std::_Deallocate<8,0>
; File C:\Program Files (x86)\Microsoft Visual Studio\2019\Community\VC\Tools\MSVC\14.28.29333\include\vector

; 1698 :             _Myfirst = pointer();

  00073	c7 47 04 00 00
	00 00		 mov	 DWORD PTR [edi+4], 0
; File C:\Program Files (x86)\Microsoft Visual Studio\2019\Community\VC\Tools\MSVC\14.28.29333\include\xmemory

; 810  :         _Deallocate<_New_alignof<_Ty>>(_Ptr, sizeof(_Ty) * _Count);

  0007a	83 c4 08	 add	 esp, 8
; File C:\Program Files (x86)\Microsoft Visual Studio\2019\Community\VC\Tools\MSVC\14.28.29333\include\vector

; 1699 :             _Mylast  = pointer();

  0007d	c7 47 08 00 00
	00 00		 mov	 DWORD PTR [edi+8], 0

; 1700 :             _Myend   = pointer();

  00084	c7 47 0c 00 00
	00 00		 mov	 DWORD PTR [edi+12], 0
$LN34@CDynamicPo:
  0008b	5f		 pop	 edi
; File D:\Metin2 Server Files\mainline\SRC_2014\Metin2Client\eterLib\Pool.h

; 142  : 		}

  0008c	5e		 pop	 esi
  0008d	5b		 pop	 ebx
  0008e	c3		 ret	 0
??1?$CDynamicPoolEx@VCNullDecorator@NEffectUpdateDecorator@@@@UAE@XZ ENDP ; CDynamicPoolEx<NEffectUpdateDecorator::CNullDecorator>::~CDynamicPoolEx<NEffectUpdateDecorator::CNullDecorator>
_TEXT	ENDS
; Function compile flags: /Ogtp
;	COMDAT ??_G?$CDynamicPoolEx@VCTextureAnimationCWDecorator@NEffectUpdateDecorator@@@@UAEPAXI@Z
_TEXT	SEGMENT
___flags$ = 8						; size = 4
??_G?$CDynamicPoolEx@VCTextureAnimationCWDecorator@NEffectUpdateDecorator@@@@UAEPAXI@Z PROC ; CDynamicPoolEx<NEffectUpdateDecorator::CTextureAnimationCWDecorator>::`scalar deleting destructor', COMDAT
; _this$ = ecx
  00000	55		 push	 ebp
  00001	8b ec		 mov	 ebp, esp
  00003	56		 push	 esi
  00004	8b f1		 mov	 esi, ecx
  00006	e8 00 00 00 00	 call	 ??1?$CDynamicPoolEx@VCTextureAnimationCWDecorator@NEffectUpdateDecorator@@@@UAE@XZ ; CDynamicPoolEx<NEffectUpdateDecorator::CTextureAnimationCWDecorator>::~CDynamicPoolEx<NEffectUpdateDecorator::CTextureAnimationCWDecorator>
  0000b	f6 45 08 01	 test	 BYTE PTR ___flags$[ebp], 1
  0000f	74 0b		 je	 SHORT $LN4@scalar
  00011	6a 24		 push	 36			; 00000024H
  00013	56		 push	 esi
  00014	e8 00 00 00 00	 call	 ??3@YAXPAXI@Z		; operator delete
  00019	83 c4 08	 add	 esp, 8
$LN4@scalar:
  0001c	8b c6		 mov	 eax, esi
  0001e	5e		 pop	 esi
  0001f	5d		 pop	 ebp
  00020	c2 04 00	 ret	 4
??_G?$CDynamicPoolEx@VCTextureAnimationCWDecorator@NEffectUpdateDecorator@@@@UAEPAXI@Z ENDP ; CDynamicPoolEx<NEffectUpdateDecorator::CTextureAnimationCWDecorator>::`scalar deleting destructor'
_TEXT	ENDS
; Function compile flags: /Ogtp
; File D:\Metin2 Server Files\mainline\SRC_2014\Metin2Client\eterLib\Pool.h
;	COMDAT ?Delete@?$CDynamicPoolEx@VCTextureAnimationCWDecorator@NEffectUpdateDecorator@@@@KAXPAVCTextureAnimationCWDecorator@NEffectUpdateDecorator@@@Z
_TEXT	SEGMENT
_pkData$ = 8						; size = 4
?Delete@?$CDynamicPoolEx@VCTextureAnimationCWDecorator@NEffectUpdateDecorator@@@@KAXPAVCTextureAnimationCWDecorator@NEffectUpdateDecorator@@@Z PROC ; CDynamicPoolEx<NEffectUpdateDecorator::CTextureAnimationCWDecorator>::Delete, COMDAT

; 224  : 			::operator delete(pkData);

  00000	e9 00 00 00 00	 jmp	 ??3@YAXPAX@Z		; operator delete
?Delete@?$CDynamicPoolEx@VCTextureAnimationCWDecorator@NEffectUpdateDecorator@@@@KAXPAVCTextureAnimationCWDecorator@NEffectUpdateDecorator@@@Z ENDP ; CDynamicPoolEx<NEffectUpdateDecorator::CTextureAnimationCWDecorator>::Delete
_TEXT	ENDS
; Function compile flags: /Ogtp
; File D:\Metin2 Server Files\mainline\SRC_2014\Metin2Client\eterLib\Pool.h
; File C:\Program Files (x86)\Microsoft Visual Studio\2019\Community\VC\Tools\MSVC\14.28.29333\include\vector
; File C:\Program Files (x86)\Microsoft Visual Studio\2019\Community\VC\Tools\MSVC\14.28.29333\include\algorithm
; File D:\Metin2 Server Files\mainline\SRC_2014\Metin2Client\eterLib\Pool.h
; File C:\Program Files (x86)\Microsoft Visual Studio\2019\Community\VC\Tools\MSVC\14.28.29333\include\algorithm
; File D:\Metin2 Server Files\mainline\SRC_2014\Metin2Client\eterLib\Pool.h
; File C:\Program Files (x86)\Microsoft Visual Studio\2019\Community\VC\Tools\MSVC\14.28.29333\include\algorithm
; File D:\Metin2 Server Files\mainline\SRC_2014\Metin2Client\eterLib\Pool.h
; File C:\Program Files (x86)\Microsoft Visual Studio\2019\Community\VC\Tools\MSVC\14.28.29333\include\vector
; File C:\Program Files (x86)\Microsoft Visual Studio\2019\Community\VC\Tools\MSVC\14.28.29333\include\xmemory
; File C:\Program Files (x86)\Microsoft Visual Studio\2019\Community\VC\Tools\MSVC\14.28.29333\include\vector
; File C:\Program Files (x86)\Microsoft Visual Studio\2019\Community\VC\Tools\MSVC\14.28.29333\include\xmemory
; File C:\Program Files (x86)\Microsoft Visual Studio\2019\Community\VC\Tools\MSVC\14.28.29333\include\vector
; File C:\Program Files (x86)\Microsoft Visual Studio\2019\Community\VC\Tools\MSVC\14.28.29333\include\xmemory
; File C:\Program Files (x86)\Microsoft Visual Studio\2019\Community\VC\Tools\MSVC\14.28.29333\include\vector
; File C:\Program Files (x86)\Microsoft Visual Studio\2019\Community\VC\Tools\MSVC\14.28.29333\include\xmemory
; File C:\Program Files (x86)\Microsoft Visual Studio\2019\Community\VC\Tools\MSVC\14.28.29333\include\vector
; File D:\Metin2 Server Files\mainline\SRC_2014\Metin2Client\eterLib\Pool.h
;	COMDAT ??1?$CDynamicPoolEx@VCTextureAnimationCWDecorator@NEffectUpdateDecorator@@@@UAE@XZ
_TEXT	SEGMENT
??1?$CDynamicPoolEx@VCTextureAnimationCWDecorator@NEffectUpdateDecorator@@@@UAE@XZ PROC ; CDynamicPoolEx<NEffectUpdateDecorator::CTextureAnimationCWDecorator>::~CDynamicPoolEx<NEffectUpdateDecorator::CTextureAnimationCWDecorator>, COMDAT
; _this$ = ecx

; 132  : 		{

  00000	53		 push	 ebx
  00001	56		 push	 esi
  00002	57		 push	 edi
  00003	8b f9		 mov	 edi, ecx
  00005	c7 07 00 00 00
	00		 mov	 DWORD PTR [edi], OFFSET ??_7?$CDynamicPoolEx@VCTextureAnimationCWDecorator@NEffectUpdateDecorator@@@@6B@
; File C:\Program Files (x86)\Microsoft Visual Studio\2019\Community\VC\Tools\MSVC\14.28.29333\include\vector

; 42   :     _Vector_const_iterator(_Tptr _Parg, const _Container_base* _Pvector) noexcept : _Ptr(_Parg) {

  0000b	8b 5f 08	 mov	 ebx, DWORD PTR [edi+8]
  0000e	8b 77 04	 mov	 esi, DWORD PTR [edi+4]
; File C:\Program Files (x86)\Microsoft Visual Studio\2019\Community\VC\Tools\MSVC\14.28.29333\include\algorithm

; 307  :     for (; _UFirst != _ULast; ++_UFirst) {

  00011	3b f3		 cmp	 esi, ebx
  00013	74 14		 je	 SHORT $LN19@CDynamicPo
$LL20@CDynamicPo:
; File D:\Metin2 Server Files\mainline\SRC_2014\Metin2Client\eterLib\Pool.h

; 224  : 			::operator delete(pkData);

  00015	ff 36		 push	 DWORD PTR [esi]
  00017	e8 00 00 00 00	 call	 ??3@YAXPAX@Z		; operator delete
; File C:\Program Files (x86)\Microsoft Visual Studio\2019\Community\VC\Tools\MSVC\14.28.29333\include\algorithm

; 307  :     for (; _UFirst != _ULast; ++_UFirst) {

  0001c	83 c6 04	 add	 esi, 4
; File D:\Metin2 Server Files\mainline\SRC_2014\Metin2Client\eterLib\Pool.h

; 224  : 			::operator delete(pkData);

  0001f	83 c4 04	 add	 esp, 4
; File C:\Program Files (x86)\Microsoft Visual Studio\2019\Community\VC\Tools\MSVC\14.28.29333\include\algorithm

; 307  :     for (; _UFirst != _ULast; ++_UFirst) {

  00022	3b f3		 cmp	 esi, ebx
  00024	75 ef		 jne	 SHORT $LL20@CDynamicPo
  00026	8b 77 04	 mov	 esi, DWORD PTR [edi+4]
$LN19@CDynamicPo:
; File D:\Metin2 Server Files\mainline\SRC_2014\Metin2Client\eterLib\Pool.h

; 162  : 			m_kVct_pkFree.clear();

  00029	8b 4f 10	 mov	 ecx, DWORD PTR [edi+16]
  0002c	89 77 08	 mov	 DWORD PTR [edi+8], esi
  0002f	89 4f 14	 mov	 DWORD PTR [edi+20], ecx
; File C:\Program Files (x86)\Microsoft Visual Studio\2019\Community\VC\Tools\MSVC\14.28.29333\include\vector

; 1694 :         if (_Myfirst) { // destroy and deallocate old array

  00032	85 c9		 test	 ecx, ecx
  00034	74 27		 je	 SHORT $LN27@CDynamicPo

; 1695 :             _Destroy(_Myfirst, _Mylast);
; 1696 :             _Getal().deallocate(_Myfirst, static_cast<size_type>(_Myend - _Myfirst));

  00036	8b 47 18	 mov	 eax, DWORD PTR [edi+24]
  00039	2b c1		 sub	 eax, ecx
; File C:\Program Files (x86)\Microsoft Visual Studio\2019\Community\VC\Tools\MSVC\14.28.29333\include\xmemory

; 810  :         _Deallocate<_New_alignof<_Ty>>(_Ptr, sizeof(_Ty) * _Count);

  0003b	83 e0 fc	 and	 eax, -4			; fffffffcH
  0003e	50		 push	 eax
  0003f	51		 push	 ecx
  00040	e8 00 00 00 00	 call	 ??$_Deallocate@$07$0A@@std@@YAXPAXI@Z ; std::_Deallocate<8,0>
; File C:\Program Files (x86)\Microsoft Visual Studio\2019\Community\VC\Tools\MSVC\14.28.29333\include\vector

; 1698 :             _Myfirst = pointer();

  00045	c7 47 10 00 00
	00 00		 mov	 DWORD PTR [edi+16], 0
; File C:\Program Files (x86)\Microsoft Visual Studio\2019\Community\VC\Tools\MSVC\14.28.29333\include\xmemory

; 810  :         _Deallocate<_New_alignof<_Ty>>(_Ptr, sizeof(_Ty) * _Count);

  0004c	83 c4 08	 add	 esp, 8
; File C:\Program Files (x86)\Microsoft Visual Studio\2019\Community\VC\Tools\MSVC\14.28.29333\include\vector

; 1699 :             _Mylast  = pointer();

  0004f	c7 47 14 00 00
	00 00		 mov	 DWORD PTR [edi+20], 0

; 1700 :             _Myend   = pointer();

  00056	c7 47 18 00 00
	00 00		 mov	 DWORD PTR [edi+24], 0
$LN27@CDynamicPo:

; 1694 :         if (_Myfirst) { // destroy and deallocate old array

  0005d	8b 4f 04	 mov	 ecx, DWORD PTR [edi+4]
  00060	85 c9		 test	 ecx, ecx
  00062	74 27		 je	 SHORT $LN34@CDynamicPo

; 1695 :             _Destroy(_Myfirst, _Mylast);
; 1696 :             _Getal().deallocate(_Myfirst, static_cast<size_type>(_Myend - _Myfirst));

  00064	8b 47 0c	 mov	 eax, DWORD PTR [edi+12]
  00067	2b c1		 sub	 eax, ecx
; File C:\Program Files (x86)\Microsoft Visual Studio\2019\Community\VC\Tools\MSVC\14.28.29333\include\xmemory

; 810  :         _Deallocate<_New_alignof<_Ty>>(_Ptr, sizeof(_Ty) * _Count);

  00069	83 e0 fc	 and	 eax, -4			; fffffffcH
  0006c	50		 push	 eax
  0006d	51		 push	 ecx
  0006e	e8 00 00 00 00	 call	 ??$_Deallocate@$07$0A@@std@@YAXPAXI@Z ; std::_Deallocate<8,0>
; File C:\Program Files (x86)\Microsoft Visual Studio\2019\Community\VC\Tools\MSVC\14.28.29333\include\vector

; 1698 :             _Myfirst = pointer();

  00073	c7 47 04 00 00
	00 00		 mov	 DWORD PTR [edi+4], 0
; File C:\Program Files (x86)\Microsoft Visual Studio\2019\Community\VC\Tools\MSVC\14.28.29333\include\xmemory

; 810  :         _Deallocate<_New_alignof<_Ty>>(_Ptr, sizeof(_Ty) * _Count);

  0007a	83 c4 08	 add	 esp, 8
; File C:\Program Files (x86)\Microsoft Visual Studio\2019\Community\VC\Tools\MSVC\14.28.29333\include\vector

; 1699 :             _Mylast  = pointer();

  0007d	c7 47 08 00 00
	00 00		 mov	 DWORD PTR [edi+8], 0

; 1700 :             _Myend   = pointer();

  00084	c7 47 0c 00 00
	00 00		 mov	 DWORD PTR [edi+12], 0
$LN34@CDynamicPo:
  0008b	5f		 pop	 edi
; File D:\Metin2 Server Files\mainline\SRC_2014\Metin2Client\eterLib\Pool.h

; 142  : 		}

  0008c	5e		 pop	 esi
  0008d	5b		 pop	 ebx
  0008e	c3		 ret	 0
??1?$CDynamicPoolEx@VCTextureAnimationCWDecorator@NEffectUpdateDecorator@@@@UAE@XZ ENDP ; CDynamicPoolEx<NEffectUpdateDecorator::CTextureAnimationCWDecorator>::~CDynamicPoolEx<NEffectUpdateDecorator::CTextureAnimationCWDecorator>
_TEXT	ENDS
; Function compile flags: /Ogtp
;	COMDAT ??_G?$CDynamicPoolEx@VCTextureAnimationCCWDecorator@NEffectUpdateDecorator@@@@UAEPAXI@Z
_TEXT	SEGMENT
___flags$ = 8						; size = 4
??_G?$CDynamicPoolEx@VCTextureAnimationCCWDecorator@NEffectUpdateDecorator@@@@UAEPAXI@Z PROC ; CDynamicPoolEx<NEffectUpdateDecorator::CTextureAnimationCCWDecorator>::`scalar deleting destructor', COMDAT
; _this$ = ecx
  00000	55		 push	 ebp
  00001	8b ec		 mov	 ebp, esp
  00003	56		 push	 esi
  00004	8b f1		 mov	 esi, ecx
  00006	e8 00 00 00 00	 call	 ??1?$CDynamicPoolEx@VCTextureAnimationCCWDecorator@NEffectUpdateDecorator@@@@UAE@XZ ; CDynamicPoolEx<NEffectUpdateDecorator::CTextureAnimationCCWDecorator>::~CDynamicPoolEx<NEffectUpdateDecorator::CTextureAnimationCCWDecorator>
  0000b	f6 45 08 01	 test	 BYTE PTR ___flags$[ebp], 1
  0000f	74 0b		 je	 SHORT $LN4@scalar
  00011	6a 24		 push	 36			; 00000024H
  00013	56		 push	 esi
  00014	e8 00 00 00 00	 call	 ??3@YAXPAXI@Z		; operator delete
  00019	83 c4 08	 add	 esp, 8
$LN4@scalar:
  0001c	8b c6		 mov	 eax, esi
  0001e	5e		 pop	 esi
  0001f	5d		 pop	 ebp
  00020	c2 04 00	 ret	 4
??_G?$CDynamicPoolEx@VCTextureAnimationCCWDecorator@NEffectUpdateDecorator@@@@UAEPAXI@Z ENDP ; CDynamicPoolEx<NEffectUpdateDecorator::CTextureAnimationCCWDecorator>::`scalar deleting destructor'
_TEXT	ENDS
; Function compile flags: /Ogtp
; File D:\Metin2 Server Files\mainline\SRC_2014\Metin2Client\eterLib\Pool.h
;	COMDAT ?Delete@?$CDynamicPoolEx@VCTextureAnimationCCWDecorator@NEffectUpdateDecorator@@@@KAXPAVCTextureAnimationCCWDecorator@NEffectUpdateDecorator@@@Z
_TEXT	SEGMENT
_pkData$ = 8						; size = 4
?Delete@?$CDynamicPoolEx@VCTextureAnimationCCWDecorator@NEffectUpdateDecorator@@@@KAXPAVCTextureAnimationCCWDecorator@NEffectUpdateDecorator@@@Z PROC ; CDynamicPoolEx<NEffectUpdateDecorator::CTextureAnimationCCWDecorator>::Delete, COMDAT

; 224  : 			::operator delete(pkData);

  00000	e9 00 00 00 00	 jmp	 ??3@YAXPAX@Z		; operator delete
?Delete@?$CDynamicPoolEx@VCTextureAnimationCCWDecorator@NEffectUpdateDecorator@@@@KAXPAVCTextureAnimationCCWDecorator@NEffectUpdateDecorator@@@Z ENDP ; CDynamicPoolEx<NEffectUpdateDecorator::CTextureAnimationCCWDecorator>::Delete
_TEXT	ENDS
; Function compile flags: /Ogtp
; File D:\Metin2 Server Files\mainline\SRC_2014\Metin2Client\eterLib\Pool.h
; File C:\Program Files (x86)\Microsoft Visual Studio\2019\Community\VC\Tools\MSVC\14.28.29333\include\vector
; File C:\Program Files (x86)\Microsoft Visual Studio\2019\Community\VC\Tools\MSVC\14.28.29333\include\algorithm
; File D:\Metin2 Server Files\mainline\SRC_2014\Metin2Client\eterLib\Pool.h
; File C:\Program Files (x86)\Microsoft Visual Studio\2019\Community\VC\Tools\MSVC\14.28.29333\include\algorithm
; File D:\Metin2 Server Files\mainline\SRC_2014\Metin2Client\eterLib\Pool.h
; File C:\Program Files (x86)\Microsoft Visual Studio\2019\Community\VC\Tools\MSVC\14.28.29333\include\algorithm
; File D:\Metin2 Server Files\mainline\SRC_2014\Metin2Client\eterLib\Pool.h
; File C:\Program Files (x86)\Microsoft Visual Studio\2019\Community\VC\Tools\MSVC\14.28.29333\include\vector
; File C:\Program Files (x86)\Microsoft Visual Studio\2019\Community\VC\Tools\MSVC\14.28.29333\include\xmemory
; File C:\Program Files (x86)\Microsoft Visual Studio\2019\Community\VC\Tools\MSVC\14.28.29333\include\vector
; File C:\Program Files (x86)\Microsoft Visual Studio\2019\Community\VC\Tools\MSVC\14.28.29333\include\xmemory
; File C:\Program Files (x86)\Microsoft Visual Studio\2019\Community\VC\Tools\MSVC\14.28.29333\include\vector
; File C:\Program Files (x86)\Microsoft Visual Studio\2019\Community\VC\Tools\MSVC\14.28.29333\include\xmemory
; File C:\Program Files (x86)\Microsoft Visual Studio\2019\Community\VC\Tools\MSVC\14.28.29333\include\vector
; File C:\Program Files (x86)\Microsoft Visual Studio\2019\Community\VC\Tools\MSVC\14.28.29333\include\xmemory
; File C:\Program Files (x86)\Microsoft Visual Studio\2019\Community\VC\Tools\MSVC\14.28.29333\include\vector
; File D:\Metin2 Server Files\mainline\SRC_2014\Metin2Client\eterLib\Pool.h
;	COMDAT ??1?$CDynamicPoolEx@VCTextureAnimationCCWDecorator@NEffectUpdateDecorator@@@@UAE@XZ
_TEXT	SEGMENT
??1?$CDynamicPoolEx@VCTextureAnimationCCWDecorator@NEffectUpdateDecorator@@@@UAE@XZ PROC ; CDynamicPoolEx<NEffectUpdateDecorator::CTextureAnimationCCWDecorator>::~CDynamicPoolEx<NEffectUpdateDecorator::CTextureAnimationCCWDecorator>, COMDAT
; _this$ = ecx

; 132  : 		{

  00000	53		 push	 ebx
  00001	56		 push	 esi
  00002	57		 push	 edi
  00003	8b f9		 mov	 edi, ecx
  00005	c7 07 00 00 00
	00		 mov	 DWORD PTR [edi], OFFSET ??_7?$CDynamicPoolEx@VCTextureAnimationCCWDecorator@NEffectUpdateDecorator@@@@6B@
; File C:\Program Files (x86)\Microsoft Visual Studio\2019\Community\VC\Tools\MSVC\14.28.29333\include\vector

; 42   :     _Vector_const_iterator(_Tptr _Parg, const _Container_base* _Pvector) noexcept : _Ptr(_Parg) {

  0000b	8b 5f 08	 mov	 ebx, DWORD PTR [edi+8]
  0000e	8b 77 04	 mov	 esi, DWORD PTR [edi+4]
; File C:\Program Files (x86)\Microsoft Visual Studio\2019\Community\VC\Tools\MSVC\14.28.29333\include\algorithm

; 307  :     for (; _UFirst != _ULast; ++_UFirst) {

  00011	3b f3		 cmp	 esi, ebx
  00013	74 14		 je	 SHORT $LN19@CDynamicPo
$LL20@CDynamicPo:
; File D:\Metin2 Server Files\mainline\SRC_2014\Metin2Client\eterLib\Pool.h

; 224  : 			::operator delete(pkData);

  00015	ff 36		 push	 DWORD PTR [esi]
  00017	e8 00 00 00 00	 call	 ??3@YAXPAX@Z		; operator delete
; File C:\Program Files (x86)\Microsoft Visual Studio\2019\Community\VC\Tools\MSVC\14.28.29333\include\algorithm

; 307  :     for (; _UFirst != _ULast; ++_UFirst) {

  0001c	83 c6 04	 add	 esi, 4
; File D:\Metin2 Server Files\mainline\SRC_2014\Metin2Client\eterLib\Pool.h

; 224  : 			::operator delete(pkData);

  0001f	83 c4 04	 add	 esp, 4
; File C:\Program Files (x86)\Microsoft Visual Studio\2019\Community\VC\Tools\MSVC\14.28.29333\include\algorithm

; 307  :     for (; _UFirst != _ULast; ++_UFirst) {

  00022	3b f3		 cmp	 esi, ebx
  00024	75 ef		 jne	 SHORT $LL20@CDynamicPo
  00026	8b 77 04	 mov	 esi, DWORD PTR [edi+4]
$LN19@CDynamicPo:
; File D:\Metin2 Server Files\mainline\SRC_2014\Metin2Client\eterLib\Pool.h

; 162  : 			m_kVct_pkFree.clear();

  00029	8b 4f 10	 mov	 ecx, DWORD PTR [edi+16]
  0002c	89 77 08	 mov	 DWORD PTR [edi+8], esi
  0002f	89 4f 14	 mov	 DWORD PTR [edi+20], ecx
; File C:\Program Files (x86)\Microsoft Visual Studio\2019\Community\VC\Tools\MSVC\14.28.29333\include\vector

; 1694 :         if (_Myfirst) { // destroy and deallocate old array

  00032	85 c9		 test	 ecx, ecx
  00034	74 27		 je	 SHORT $LN27@CDynamicPo

; 1695 :             _Destroy(_Myfirst, _Mylast);
; 1696 :             _Getal().deallocate(_Myfirst, static_cast<size_type>(_Myend - _Myfirst));

  00036	8b 47 18	 mov	 eax, DWORD PTR [edi+24]
  00039	2b c1		 sub	 eax, ecx
; File C:\Program Files (x86)\Microsoft Visual Studio\2019\Community\VC\Tools\MSVC\14.28.29333\include\xmemory

; 810  :         _Deallocate<_New_alignof<_Ty>>(_Ptr, sizeof(_Ty) * _Count);

  0003b	83 e0 fc	 and	 eax, -4			; fffffffcH
  0003e	50		 push	 eax
  0003f	51		 push	 ecx
  00040	e8 00 00 00 00	 call	 ??$_Deallocate@$07$0A@@std@@YAXPAXI@Z ; std::_Deallocate<8,0>
; File C:\Program Files (x86)\Microsoft Visual Studio\2019\Community\VC\Tools\MSVC\14.28.29333\include\vector

; 1698 :             _Myfirst = pointer();

  00045	c7 47 10 00 00
	00 00		 mov	 DWORD PTR [edi+16], 0
; File C:\Program Files (x86)\Microsoft Visual Studio\2019\Community\VC\Tools\MSVC\14.28.29333\include\xmemory

; 810  :         _Deallocate<_New_alignof<_Ty>>(_Ptr, sizeof(_Ty) * _Count);

  0004c	83 c4 08	 add	 esp, 8
; File C:\Program Files (x86)\Microsoft Visual Studio\2019\Community\VC\Tools\MSVC\14.28.29333\include\vector

; 1699 :             _Mylast  = pointer();

  0004f	c7 47 14 00 00
	00 00		 mov	 DWORD PTR [edi+20], 0

; 1700 :             _Myend   = pointer();

  00056	c7 47 18 00 00
	00 00		 mov	 DWORD PTR [edi+24], 0
$LN27@CDynamicPo:

; 1694 :         if (_Myfirst) { // destroy and deallocate old array

  0005d	8b 4f 04	 mov	 ecx, DWORD PTR [edi+4]
  00060	85 c9		 test	 ecx, ecx
  00062	74 27		 je	 SHORT $LN34@CDynamicPo

; 1695 :             _Destroy(_Myfirst, _Mylast);
; 1696 :             _Getal().deallocate(_Myfirst, static_cast<size_type>(_Myend - _Myfirst));

  00064	8b 47 0c	 mov	 eax, DWORD PTR [edi+12]
  00067	2b c1		 sub	 eax, ecx
; File C:\Program Files (x86)\Microsoft Visual Studio\2019\Community\VC\Tools\MSVC\14.28.29333\include\xmemory

; 810  :         _Deallocate<_New_alignof<_Ty>>(_Ptr, sizeof(_Ty) * _Count);

  00069	83 e0 fc	 and	 eax, -4			; fffffffcH
  0006c	50		 push	 eax
  0006d	51		 push	 ecx
  0006e	e8 00 00 00 00	 call	 ??$_Deallocate@$07$0A@@std@@YAXPAXI@Z ; std::_Deallocate<8,0>
; File C:\Program Files (x86)\Microsoft Visual Studio\2019\Community\VC\Tools\MSVC\14.28.29333\include\vector

; 1698 :             _Myfirst = pointer();

  00073	c7 47 04 00 00
	00 00		 mov	 DWORD PTR [edi+4], 0
; File C:\Program Files (x86)\Microsoft Visual Studio\2019\Community\VC\Tools\MSVC\14.28.29333\include\xmemory

; 810  :         _Deallocate<_New_alignof<_Ty>>(_Ptr, sizeof(_Ty) * _Count);

  0007a	83 c4 08	 add	 esp, 8
; File C:\Program Files (x86)\Microsoft Visual Studio\2019\Community\VC\Tools\MSVC\14.28.29333\include\vector

; 1699 :             _Mylast  = pointer();

  0007d	c7 47 08 00 00
	00 00		 mov	 DWORD PTR [edi+8], 0

; 1700 :             _Myend   = pointer();

  00084	c7 47 0c 00 00
	00 00		 mov	 DWORD PTR [edi+12], 0
$LN34@CDynamicPo:
  0008b	5f		 pop	 edi
; File D:\Metin2 Server Files\mainline\SRC_2014\Metin2Client\eterLib\Pool.h

; 142  : 		}

  0008c	5e		 pop	 esi
  0008d	5b		 pop	 ebx
  0008e	c3		 ret	 0
??1?$CDynamicPoolEx@VCTextureAnimationCCWDecorator@NEffectUpdateDecorator@@@@UAE@XZ ENDP ; CDynamicPoolEx<NEffectUpdateDecorator::CTextureAnimationCCWDecorator>::~CDynamicPoolEx<NEffectUpdateDecorator::CTextureAnimationCCWDecorator>
_TEXT	ENDS
; Function compile flags: /Ogtp
;	COMDAT ??_G?$CDynamicPoolEx@VCTextureAnimationRandomDecorator@NEffectUpdateDecorator@@@@UAEPAXI@Z
_TEXT	SEGMENT
___flags$ = 8						; size = 4
??_G?$CDynamicPoolEx@VCTextureAnimationRandomDecorator@NEffectUpdateDecorator@@@@UAEPAXI@Z PROC ; CDynamicPoolEx<NEffectUpdateDecorator::CTextureAnimationRandomDecorator>::`scalar deleting destructor', COMDAT
; _this$ = ecx
  00000	55		 push	 ebp
  00001	8b ec		 mov	 ebp, esp
  00003	56		 push	 esi
  00004	8b f1		 mov	 esi, ecx
  00006	e8 00 00 00 00	 call	 ??1?$CDynamicPoolEx@VCTextureAnimationRandomDecorator@NEffectUpdateDecorator@@@@UAE@XZ ; CDynamicPoolEx<NEffectUpdateDecorator::CTextureAnimationRandomDecorator>::~CDynamicPoolEx<NEffectUpdateDecorator::CTextureAnimationRandomDecorator>
  0000b	f6 45 08 01	 test	 BYTE PTR ___flags$[ebp], 1
  0000f	74 0b		 je	 SHORT $LN4@scalar
  00011	6a 24		 push	 36			; 00000024H
  00013	56		 push	 esi
  00014	e8 00 00 00 00	 call	 ??3@YAXPAXI@Z		; operator delete
  00019	83 c4 08	 add	 esp, 8
$LN4@scalar:
  0001c	8b c6		 mov	 eax, esi
  0001e	5e		 pop	 esi
  0001f	5d		 pop	 ebp
  00020	c2 04 00	 ret	 4
??_G?$CDynamicPoolEx@VCTextureAnimationRandomDecorator@NEffectUpdateDecorator@@@@UAEPAXI@Z ENDP ; CDynamicPoolEx<NEffectUpdateDecorator::CTextureAnimationRandomDecorator>::`scalar deleting destructor'
_TEXT	ENDS
; Function compile flags: /Ogtp
; File D:\Metin2 Server Files\mainline\SRC_2014\Metin2Client\eterLib\Pool.h
;	COMDAT ?Delete@?$CDynamicPoolEx@VCTextureAnimationRandomDecorator@NEffectUpdateDecorator@@@@KAXPAVCTextureAnimationRandomDecorator@NEffectUpdateDecorator@@@Z
_TEXT	SEGMENT
_pkData$ = 8						; size = 4
?Delete@?$CDynamicPoolEx@VCTextureAnimationRandomDecorator@NEffectUpdateDecorator@@@@KAXPAVCTextureAnimationRandomDecorator@NEffectUpdateDecorator@@@Z PROC ; CDynamicPoolEx<NEffectUpdateDecorator::CTextureAnimationRandomDecorator>::Delete, COMDAT

; 224  : 			::operator delete(pkData);

  00000	e9 00 00 00 00	 jmp	 ??3@YAXPAX@Z		; operator delete
?Delete@?$CDynamicPoolEx@VCTextureAnimationRandomDecorator@NEffectUpdateDecorator@@@@KAXPAVCTextureAnimationRandomDecorator@NEffectUpdateDecorator@@@Z ENDP ; CDynamicPoolEx<NEffectUpdateDecorator::CTextureAnimationRandomDecorator>::Delete
_TEXT	ENDS
; Function compile flags: /Ogtp
; File D:\Metin2 Server Files\mainline\SRC_2014\Metin2Client\eterLib\Pool.h
; File C:\Program Files (x86)\Microsoft Visual Studio\2019\Community\VC\Tools\MSVC\14.28.29333\include\vector
; File C:\Program Files (x86)\Microsoft Visual Studio\2019\Community\VC\Tools\MSVC\14.28.29333\include\algorithm
; File D:\Metin2 Server Files\mainline\SRC_2014\Metin2Client\eterLib\Pool.h
; File C:\Program Files (x86)\Microsoft Visual Studio\2019\Community\VC\Tools\MSVC\14.28.29333\include\algorithm
; File D:\Metin2 Server Files\mainline\SRC_2014\Metin2Client\eterLib\Pool.h
; File C:\Program Files (x86)\Microsoft Visual Studio\2019\Community\VC\Tools\MSVC\14.28.29333\include\algorithm
; File D:\Metin2 Server Files\mainline\SRC_2014\Metin2Client\eterLib\Pool.h
; File C:\Program Files (x86)\Microsoft Visual Studio\2019\Community\VC\Tools\MSVC\14.28.29333\include\vector
; File C:\Program Files (x86)\Microsoft Visual Studio\2019\Community\VC\Tools\MSVC\14.28.29333\include\xmemory
; File C:\Program Files (x86)\Microsoft Visual Studio\2019\Community\VC\Tools\MSVC\14.28.29333\include\vector
; File C:\Program Files (x86)\Microsoft Visual Studio\2019\Community\VC\Tools\MSVC\14.28.29333\include\xmemory
; File C:\Program Files (x86)\Microsoft Visual Studio\2019\Community\VC\Tools\MSVC\14.28.29333\include\vector
; File C:\Program Files (x86)\Microsoft Visual Studio\2019\Community\VC\Tools\MSVC\14.28.29333\include\xmemory
; File C:\Program Files (x86)\Microsoft Visual Studio\2019\Community\VC\Tools\MSVC\14.28.29333\include\vector
; File C:\Program Files (x86)\Microsoft Visual Studio\2019\Community\VC\Tools\MSVC\14.28.29333\include\xmemory
; File C:\Program Files (x86)\Microsoft Visual Studio\2019\Community\VC\Tools\MSVC\14.28.29333\include\vector
; File D:\Metin2 Server Files\mainline\SRC_2014\Metin2Client\eterLib\Pool.h
;	COMDAT ??1?$CDynamicPoolEx@VCTextureAnimationRandomDecorator@NEffectUpdateDecorator@@@@UAE@XZ
_TEXT	SEGMENT
??1?$CDynamicPoolEx@VCTextureAnimationRandomDecorator@NEffectUpdateDecorator@@@@UAE@XZ PROC ; CDynamicPoolEx<NEffectUpdateDecorator::CTextureAnimationRandomDecorator>::~CDynamicPoolEx<NEffectUpdateDecorator::CTextureAnimationRandomDecorator>, COMDAT
; _this$ = ecx

; 132  : 		{

  00000	53		 push	 ebx
  00001	56		 push	 esi
  00002	57		 push	 edi
  00003	8b f9		 mov	 edi, ecx
  00005	c7 07 00 00 00
	00		 mov	 DWORD PTR [edi], OFFSET ??_7?$CDynamicPoolEx@VCTextureAnimationRandomDecorator@NEffectUpdateDecorator@@@@6B@
; File C:\Program Files (x86)\Microsoft Visual Studio\2019\Community\VC\Tools\MSVC\14.28.29333\include\vector

; 42   :     _Vector_const_iterator(_Tptr _Parg, const _Container_base* _Pvector) noexcept : _Ptr(_Parg) {

  0000b	8b 5f 08	 mov	 ebx, DWORD PTR [edi+8]
  0000e	8b 77 04	 mov	 esi, DWORD PTR [edi+4]
; File C:\Program Files (x86)\Microsoft Visual Studio\2019\Community\VC\Tools\MSVC\14.28.29333\include\algorithm

; 307  :     for (; _UFirst != _ULast; ++_UFirst) {

  00011	3b f3		 cmp	 esi, ebx
  00013	74 14		 je	 SHORT $LN19@CDynamicPo
$LL20@CDynamicPo:
; File D:\Metin2 Server Files\mainline\SRC_2014\Metin2Client\eterLib\Pool.h

; 224  : 			::operator delete(pkData);

  00015	ff 36		 push	 DWORD PTR [esi]
  00017	e8 00 00 00 00	 call	 ??3@YAXPAX@Z		; operator delete
; File C:\Program Files (x86)\Microsoft Visual Studio\2019\Community\VC\Tools\MSVC\14.28.29333\include\algorithm

; 307  :     for (; _UFirst != _ULast; ++_UFirst) {

  0001c	83 c6 04	 add	 esi, 4
; File D:\Metin2 Server Files\mainline\SRC_2014\Metin2Client\eterLib\Pool.h

; 224  : 			::operator delete(pkData);

  0001f	83 c4 04	 add	 esp, 4
; File C:\Program Files (x86)\Microsoft Visual Studio\2019\Community\VC\Tools\MSVC\14.28.29333\include\algorithm

; 307  :     for (; _UFirst != _ULast; ++_UFirst) {

  00022	3b f3		 cmp	 esi, ebx
  00024	75 ef		 jne	 SHORT $LL20@CDynamicPo
  00026	8b 77 04	 mov	 esi, DWORD PTR [edi+4]
$LN19@CDynamicPo:
; File D:\Metin2 Server Files\mainline\SRC_2014\Metin2Client\eterLib\Pool.h

; 162  : 			m_kVct_pkFree.clear();

  00029	8b 4f 10	 mov	 ecx, DWORD PTR [edi+16]
  0002c	89 77 08	 mov	 DWORD PTR [edi+8], esi
  0002f	89 4f 14	 mov	 DWORD PTR [edi+20], ecx
; File C:\Program Files (x86)\Microsoft Visual Studio\2019\Community\VC\Tools\MSVC\14.28.29333\include\vector

; 1694 :         if (_Myfirst) { // destroy and deallocate old array

  00032	85 c9		 test	 ecx, ecx
  00034	74 27		 je	 SHORT $LN27@CDynamicPo

; 1695 :             _Destroy(_Myfirst, _Mylast);
; 1696 :             _Getal().deallocate(_Myfirst, static_cast<size_type>(_Myend - _Myfirst));

  00036	8b 47 18	 mov	 eax, DWORD PTR [edi+24]
  00039	2b c1		 sub	 eax, ecx
; File C:\Program Files (x86)\Microsoft Visual Studio\2019\Community\VC\Tools\MSVC\14.28.29333\include\xmemory

; 810  :         _Deallocate<_New_alignof<_Ty>>(_Ptr, sizeof(_Ty) * _Count);

  0003b	83 e0 fc	 and	 eax, -4			; fffffffcH
  0003e	50		 push	 eax
  0003f	51		 push	 ecx
  00040	e8 00 00 00 00	 call	 ??$_Deallocate@$07$0A@@std@@YAXPAXI@Z ; std::_Deallocate<8,0>
; File C:\Program Files (x86)\Microsoft Visual Studio\2019\Community\VC\Tools\MSVC\14.28.29333\include\vector

; 1698 :             _Myfirst = pointer();

  00045	c7 47 10 00 00
	00 00		 mov	 DWORD PTR [edi+16], 0
; File C:\Program Files (x86)\Microsoft Visual Studio\2019\Community\VC\Tools\MSVC\14.28.29333\include\xmemory

; 810  :         _Deallocate<_New_alignof<_Ty>>(_Ptr, sizeof(_Ty) * _Count);

  0004c	83 c4 08	 add	 esp, 8
; File C:\Program Files (x86)\Microsoft Visual Studio\2019\Community\VC\Tools\MSVC\14.28.29333\include\vector

; 1699 :             _Mylast  = pointer();

  0004f	c7 47 14 00 00
	00 00		 mov	 DWORD PTR [edi+20], 0

; 1700 :             _Myend   = pointer();

  00056	c7 47 18 00 00
	00 00		 mov	 DWORD PTR [edi+24], 0
$LN27@CDynamicPo:

; 1694 :         if (_Myfirst) { // destroy and deallocate old array

  0005d	8b 4f 04	 mov	 ecx, DWORD PTR [edi+4]
  00060	85 c9		 test	 ecx, ecx
  00062	74 27		 je	 SHORT $LN34@CDynamicPo

; 1695 :             _Destroy(_Myfirst, _Mylast);
; 1696 :             _Getal().deallocate(_Myfirst, static_cast<size_type>(_Myend - _Myfirst));

  00064	8b 47 0c	 mov	 eax, DWORD PTR [edi+12]
  00067	2b c1		 sub	 eax, ecx
; File C:\Program Files (x86)\Microsoft Visual Studio\2019\Community\VC\Tools\MSVC\14.28.29333\include\xmemory

; 810  :         _Deallocate<_New_alignof<_Ty>>(_Ptr, sizeof(_Ty) * _Count);

  00069	83 e0 fc	 and	 eax, -4			; fffffffcH
  0006c	50		 push	 eax
  0006d	51		 push	 ecx
  0006e	e8 00 00 00 00	 call	 ??$_Deallocate@$07$0A@@std@@YAXPAXI@Z ; std::_Deallocate<8,0>
; File C:\Program Files (x86)\Microsoft Visual Studio\2019\Community\VC\Tools\MSVC\14.28.29333\include\vector

; 1698 :             _Myfirst = pointer();

  00073	c7 47 04 00 00
	00 00		 mov	 DWORD PTR [edi+4], 0
; File C:\Program Files (x86)\Microsoft Visual Studio\2019\Community\VC\Tools\MSVC\14.28.29333\include\xmemory

; 810  :         _Deallocate<_New_alignof<_Ty>>(_Ptr, sizeof(_Ty) * _Count);

  0007a	83 c4 08	 add	 esp, 8
; File C:\Program Files (x86)\Microsoft Visual Studio\2019\Community\VC\Tools\MSVC\14.28.29333\include\vector

; 1699 :             _Mylast  = pointer();

  0007d	c7 47 08 00 00
	00 00		 mov	 DWORD PTR [edi+8], 0

; 1700 :             _Myend   = pointer();

  00084	c7 47 0c 00 00
	00 00		 mov	 DWORD PTR [edi+12], 0
$LN34@CDynamicPo:
  0008b	5f		 pop	 edi
; File D:\Metin2 Server Files\mainline\SRC_2014\Metin2Client\eterLib\Pool.h

; 142  : 		}

  0008c	5e		 pop	 esi
  0008d	5b		 pop	 ebx
  0008e	c3		 ret	 0
??1?$CDynamicPoolEx@VCTextureAnimationRandomDecorator@NEffectUpdateDecorator@@@@UAE@XZ ENDP ; CDynamicPoolEx<NEffectUpdateDecorator::CTextureAnimationRandomDecorator>::~CDynamicPoolEx<NEffectUpdateDecorator::CTextureAnimationRandomDecorator>
_TEXT	ENDS
; Function compile flags: /Ogtp
;	COMDAT ??_G?$CDynamicPoolEx@VCAirResistanceDecorator@NEffectUpdateDecorator@@@@UAEPAXI@Z
_TEXT	SEGMENT
___flags$ = 8						; size = 4
??_G?$CDynamicPoolEx@VCAirResistanceDecorator@NEffectUpdateDecorator@@@@UAEPAXI@Z PROC ; CDynamicPoolEx<NEffectUpdateDecorator::CAirResistanceDecorator>::`scalar deleting destructor', COMDAT
; _this$ = ecx
  00000	55		 push	 ebp
  00001	8b ec		 mov	 ebp, esp
  00003	56		 push	 esi
  00004	8b f1		 mov	 esi, ecx
  00006	e8 00 00 00 00	 call	 ??1?$CDynamicPoolEx@VCAirResistanceDecorator@NEffectUpdateDecorator@@@@UAE@XZ ; CDynamicPoolEx<NEffectUpdateDecorator::CAirResistanceDecorator>::~CDynamicPoolEx<NEffectUpdateDecorator::CAirResistanceDecorator>
  0000b	f6 45 08 01	 test	 BYTE PTR ___flags$[ebp], 1
  0000f	74 0b		 je	 SHORT $LN4@scalar
  00011	6a 24		 push	 36			; 00000024H
  00013	56		 push	 esi
  00014	e8 00 00 00 00	 call	 ??3@YAXPAXI@Z		; operator delete
  00019	83 c4 08	 add	 esp, 8
$LN4@scalar:
  0001c	8b c6		 mov	 eax, esi
  0001e	5e		 pop	 esi
  0001f	5d		 pop	 ebp
  00020	c2 04 00	 ret	 4
??_G?$CDynamicPoolEx@VCAirResistanceDecorator@NEffectUpdateDecorator@@@@UAEPAXI@Z ENDP ; CDynamicPoolEx<NEffectUpdateDecorator::CAirResistanceDecorator>::`scalar deleting destructor'
_TEXT	ENDS
; Function compile flags: /Ogtp
; File D:\Metin2 Server Files\mainline\SRC_2014\Metin2Client\eterLib\Pool.h
;	COMDAT ?Delete@?$CDynamicPoolEx@VCAirResistanceDecorator@NEffectUpdateDecorator@@@@KAXPAVCAirResistanceDecorator@NEffectUpdateDecorator@@@Z
_TEXT	SEGMENT
_pkData$ = 8						; size = 4
?Delete@?$CDynamicPoolEx@VCAirResistanceDecorator@NEffectUpdateDecorator@@@@KAXPAVCAirResistanceDecorator@NEffectUpdateDecorator@@@Z PROC ; CDynamicPoolEx<NEffectUpdateDecorator::CAirResistanceDecorator>::Delete, COMDAT

; 224  : 			::operator delete(pkData);

  00000	e9 00 00 00 00	 jmp	 ??3@YAXPAX@Z		; operator delete
?Delete@?$CDynamicPoolEx@VCAirResistanceDecorator@NEffectUpdateDecorator@@@@KAXPAVCAirResistanceDecorator@NEffectUpdateDecorator@@@Z ENDP ; CDynamicPoolEx<NEffectUpdateDecorator::CAirResistanceDecorator>::Delete
_TEXT	ENDS
; Function compile flags: /Ogtp
; File D:\Metin2 Server Files\mainline\SRC_2014\Metin2Client\eterLib\Pool.h
; File C:\Program Files (x86)\Microsoft Visual Studio\2019\Community\VC\Tools\MSVC\14.28.29333\include\vector
; File C:\Program Files (x86)\Microsoft Visual Studio\2019\Community\VC\Tools\MSVC\14.28.29333\include\algorithm
; File D:\Metin2 Server Files\mainline\SRC_2014\Metin2Client\eterLib\Pool.h
; File C:\Program Files (x86)\Microsoft Visual Studio\2019\Community\VC\Tools\MSVC\14.28.29333\include\algorithm
; File D:\Metin2 Server Files\mainline\SRC_2014\Metin2Client\eterLib\Pool.h
; File C:\Program Files (x86)\Microsoft Visual Studio\2019\Community\VC\Tools\MSVC\14.28.29333\include\algorithm
; File D:\Metin2 Server Files\mainline\SRC_2014\Metin2Client\eterLib\Pool.h
; File C:\Program Files (x86)\Microsoft Visual Studio\2019\Community\VC\Tools\MSVC\14.28.29333\include\vector
; File C:\Program Files (x86)\Microsoft Visual Studio\2019\Community\VC\Tools\MSVC\14.28.29333\include\xmemory
; File C:\Program Files (x86)\Microsoft Visual Studio\2019\Community\VC\Tools\MSVC\14.28.29333\include\vector
; File C:\Program Files (x86)\Microsoft Visual Studio\2019\Community\VC\Tools\MSVC\14.28.29333\include\xmemory
; File C:\Program Files (x86)\Microsoft Visual Studio\2019\Community\VC\Tools\MSVC\14.28.29333\include\vector
; File C:\Program Files (x86)\Microsoft Visual Studio\2019\Community\VC\Tools\MSVC\14.28.29333\include\xmemory
; File C:\Program Files (x86)\Microsoft Visual Studio\2019\Community\VC\Tools\MSVC\14.28.29333\include\vector
; File C:\Program Files (x86)\Microsoft Visual Studio\2019\Community\VC\Tools\MSVC\14.28.29333\include\xmemory
; File C:\Program Files (x86)\Microsoft Visual Studio\2019\Community\VC\Tools\MSVC\14.28.29333\include\vector
; File D:\Metin2 Server Files\mainline\SRC_2014\Metin2Client\eterLib\Pool.h
;	COMDAT ??1?$CDynamicPoolEx@VCAirResistanceDecorator@NEffectUpdateDecorator@@@@UAE@XZ
_TEXT	SEGMENT
??1?$CDynamicPoolEx@VCAirResistanceDecorator@NEffectUpdateDecorator@@@@UAE@XZ PROC ; CDynamicPoolEx<NEffectUpdateDecorator::CAirResistanceDecorator>::~CDynamicPoolEx<NEffectUpdateDecorator::CAirResistanceDecorator>, COMDAT
; _this$ = ecx

; 132  : 		{

  00000	53		 push	 ebx
  00001	56		 push	 esi
  00002	57		 push	 edi
  00003	8b f9		 mov	 edi, ecx
  00005	c7 07 00 00 00
	00		 mov	 DWORD PTR [edi], OFFSET ??_7?$CDynamicPoolEx@VCAirResistanceDecorator@NEffectUpdateDecorator@@@@6B@
; File C:\Program Files (x86)\Microsoft Visual Studio\2019\Community\VC\Tools\MSVC\14.28.29333\include\vector

; 42   :     _Vector_const_iterator(_Tptr _Parg, const _Container_base* _Pvector) noexcept : _Ptr(_Parg) {

  0000b	8b 5f 08	 mov	 ebx, DWORD PTR [edi+8]
  0000e	8b 77 04	 mov	 esi, DWORD PTR [edi+4]
; File C:\Program Files (x86)\Microsoft Visual Studio\2019\Community\VC\Tools\MSVC\14.28.29333\include\algorithm

; 307  :     for (; _UFirst != _ULast; ++_UFirst) {

  00011	3b f3		 cmp	 esi, ebx
  00013	74 14		 je	 SHORT $LN19@CDynamicPo
$LL20@CDynamicPo:
; File D:\Metin2 Server Files\mainline\SRC_2014\Metin2Client\eterLib\Pool.h

; 224  : 			::operator delete(pkData);

  00015	ff 36		 push	 DWORD PTR [esi]
  00017	e8 00 00 00 00	 call	 ??3@YAXPAX@Z		; operator delete
; File C:\Program Files (x86)\Microsoft Visual Studio\2019\Community\VC\Tools\MSVC\14.28.29333\include\algorithm

; 307  :     for (; _UFirst != _ULast; ++_UFirst) {

  0001c	83 c6 04	 add	 esi, 4
; File D:\Metin2 Server Files\mainline\SRC_2014\Metin2Client\eterLib\Pool.h

; 224  : 			::operator delete(pkData);

  0001f	83 c4 04	 add	 esp, 4
; File C:\Program Files (x86)\Microsoft Visual Studio\2019\Community\VC\Tools\MSVC\14.28.29333\include\algorithm

; 307  :     for (; _UFirst != _ULast; ++_UFirst) {

  00022	3b f3		 cmp	 esi, ebx
  00024	75 ef		 jne	 SHORT $LL20@CDynamicPo
  00026	8b 77 04	 mov	 esi, DWORD PTR [edi+4]
$LN19@CDynamicPo:
; File D:\Metin2 Server Files\mainline\SRC_2014\Metin2Client\eterLib\Pool.h

; 162  : 			m_kVct_pkFree.clear();

  00029	8b 4f 10	 mov	 ecx, DWORD PTR [edi+16]
  0002c	89 77 08	 mov	 DWORD PTR [edi+8], esi
  0002f	89 4f 14	 mov	 DWORD PTR [edi+20], ecx
; File C:\Program Files (x86)\Microsoft Visual Studio\2019\Community\VC\Tools\MSVC\14.28.29333\include\vector

; 1694 :         if (_Myfirst) { // destroy and deallocate old array

  00032	85 c9		 test	 ecx, ecx
  00034	74 27		 je	 SHORT $LN27@CDynamicPo

; 1695 :             _Destroy(_Myfirst, _Mylast);
; 1696 :             _Getal().deallocate(_Myfirst, static_cast<size_type>(_Myend - _Myfirst));

  00036	8b 47 18	 mov	 eax, DWORD PTR [edi+24]
  00039	2b c1		 sub	 eax, ecx
; File C:\Program Files (x86)\Microsoft Visual Studio\2019\Community\VC\Tools\MSVC\14.28.29333\include\xmemory

; 810  :         _Deallocate<_New_alignof<_Ty>>(_Ptr, sizeof(_Ty) * _Count);

  0003b	83 e0 fc	 and	 eax, -4			; fffffffcH
  0003e	50		 push	 eax
  0003f	51		 push	 ecx
  00040	e8 00 00 00 00	 call	 ??$_Deallocate@$07$0A@@std@@YAXPAXI@Z ; std::_Deallocate<8,0>
; File C:\Program Files (x86)\Microsoft Visual Studio\2019\Community\VC\Tools\MSVC\14.28.29333\include\vector

; 1698 :             _Myfirst = pointer();

  00045	c7 47 10 00 00
	00 00		 mov	 DWORD PTR [edi+16], 0
; File C:\Program Files (x86)\Microsoft Visual Studio\2019\Community\VC\Tools\MSVC\14.28.29333\include\xmemory

; 810  :         _Deallocate<_New_alignof<_Ty>>(_Ptr, sizeof(_Ty) * _Count);

  0004c	83 c4 08	 add	 esp, 8
; File C:\Program Files (x86)\Microsoft Visual Studio\2019\Community\VC\Tools\MSVC\14.28.29333\include\vector

; 1699 :             _Mylast  = pointer();

  0004f	c7 47 14 00 00
	00 00		 mov	 DWORD PTR [edi+20], 0

; 1700 :             _Myend   = pointer();

  00056	c7 47 18 00 00
	00 00		 mov	 DWORD PTR [edi+24], 0
$LN27@CDynamicPo:

; 1694 :         if (_Myfirst) { // destroy and deallocate old array

  0005d	8b 4f 04	 mov	 ecx, DWORD PTR [edi+4]
  00060	85 c9		 test	 ecx, ecx
  00062	74 27		 je	 SHORT $LN34@CDynamicPo

; 1695 :             _Destroy(_Myfirst, _Mylast);
; 1696 :             _Getal().deallocate(_Myfirst, static_cast<size_type>(_Myend - _Myfirst));

  00064	8b 47 0c	 mov	 eax, DWORD PTR [edi+12]
  00067	2b c1		 sub	 eax, ecx
; File C:\Program Files (x86)\Microsoft Visual Studio\2019\Community\VC\Tools\MSVC\14.28.29333\include\xmemory

; 810  :         _Deallocate<_New_alignof<_Ty>>(_Ptr, sizeof(_Ty) * _Count);

  00069	83 e0 fc	 and	 eax, -4			; fffffffcH
  0006c	50		 push	 eax
  0006d	51		 push	 ecx
  0006e	e8 00 00 00 00	 call	 ??$_Deallocate@$07$0A@@std@@YAXPAXI@Z ; std::_Deallocate<8,0>
; File C:\Program Files (x86)\Microsoft Visual Studio\2019\Community\VC\Tools\MSVC\14.28.29333\include\vector

; 1698 :             _Myfirst = pointer();

  00073	c7 47 04 00 00
	00 00		 mov	 DWORD PTR [edi+4], 0
; File C:\Program Files (x86)\Microsoft Visual Studio\2019\Community\VC\Tools\MSVC\14.28.29333\include\xmemory

; 810  :         _Deallocate<_New_alignof<_Ty>>(_Ptr, sizeof(_Ty) * _Count);

  0007a	83 c4 08	 add	 esp, 8
; File C:\Program Files (x86)\Microsoft Visual Studio\2019\Community\VC\Tools\MSVC\14.28.29333\include\vector

; 1699 :             _Mylast  = pointer();

  0007d	c7 47 08 00 00
	00 00		 mov	 DWORD PTR [edi+8], 0

; 1700 :             _Myend   = pointer();

  00084	c7 47 0c 00 00
	00 00		 mov	 DWORD PTR [edi+12], 0
$LN34@CDynamicPo:
  0008b	5f		 pop	 edi
; File D:\Metin2 Server Files\mainline\SRC_2014\Metin2Client\eterLib\Pool.h

; 142  : 		}

  0008c	5e		 pop	 esi
  0008d	5b		 pop	 ebx
  0008e	c3		 ret	 0
??1?$CDynamicPoolEx@VCAirResistanceDecorator@NEffectUpdateDecorator@@@@UAE@XZ ENDP ; CDynamicPoolEx<NEffectUpdateDecorator::CAirResistanceDecorator>::~CDynamicPoolEx<NEffectUpdateDecorator::CAirResistanceDecorator>
_TEXT	ENDS
; Function compile flags: /Ogtp
;	COMDAT ??_G?$CDynamicPoolEx@VCGravityDecorator@NEffectUpdateDecorator@@@@UAEPAXI@Z
_TEXT	SEGMENT
___flags$ = 8						; size = 4
??_G?$CDynamicPoolEx@VCGravityDecorator@NEffectUpdateDecorator@@@@UAEPAXI@Z PROC ; CDynamicPoolEx<NEffectUpdateDecorator::CGravityDecorator>::`scalar deleting destructor', COMDAT
; _this$ = ecx
  00000	55		 push	 ebp
  00001	8b ec		 mov	 ebp, esp
  00003	56		 push	 esi
  00004	8b f1		 mov	 esi, ecx
  00006	e8 00 00 00 00	 call	 ??1?$CDynamicPoolEx@VCGravityDecorator@NEffectUpdateDecorator@@@@UAE@XZ ; CDynamicPoolEx<NEffectUpdateDecorator::CGravityDecorator>::~CDynamicPoolEx<NEffectUpdateDecorator::CGravityDecorator>
  0000b	f6 45 08 01	 test	 BYTE PTR ___flags$[ebp], 1
  0000f	74 0b		 je	 SHORT $LN4@scalar
  00011	6a 24		 push	 36			; 00000024H
  00013	56		 push	 esi
  00014	e8 00 00 00 00	 call	 ??3@YAXPAXI@Z		; operator delete
  00019	83 c4 08	 add	 esp, 8
$LN4@scalar:
  0001c	8b c6		 mov	 eax, esi
  0001e	5e		 pop	 esi
  0001f	5d		 pop	 ebp
  00020	c2 04 00	 ret	 4
??_G?$CDynamicPoolEx@VCGravityDecorator@NEffectUpdateDecorator@@@@UAEPAXI@Z ENDP ; CDynamicPoolEx<NEffectUpdateDecorator::CGravityDecorator>::`scalar deleting destructor'
_TEXT	ENDS
; Function compile flags: /Ogtp
; File D:\Metin2 Server Files\mainline\SRC_2014\Metin2Client\eterLib\Pool.h
;	COMDAT ?Delete@?$CDynamicPoolEx@VCGravityDecorator@NEffectUpdateDecorator@@@@KAXPAVCGravityDecorator@NEffectUpdateDecorator@@@Z
_TEXT	SEGMENT
_pkData$ = 8						; size = 4
?Delete@?$CDynamicPoolEx@VCGravityDecorator@NEffectUpdateDecorator@@@@KAXPAVCGravityDecorator@NEffectUpdateDecorator@@@Z PROC ; CDynamicPoolEx<NEffectUpdateDecorator::CGravityDecorator>::Delete, COMDAT

; 224  : 			::operator delete(pkData);

  00000	e9 00 00 00 00	 jmp	 ??3@YAXPAX@Z		; operator delete
?Delete@?$CDynamicPoolEx@VCGravityDecorator@NEffectUpdateDecorator@@@@KAXPAVCGravityDecorator@NEffectUpdateDecorator@@@Z ENDP ; CDynamicPoolEx<NEffectUpdateDecorator::CGravityDecorator>::Delete
_TEXT	ENDS
; Function compile flags: /Ogtp
; File D:\Metin2 Server Files\mainline\SRC_2014\Metin2Client\eterLib\Pool.h
; File C:\Program Files (x86)\Microsoft Visual Studio\2019\Community\VC\Tools\MSVC\14.28.29333\include\vector
; File C:\Program Files (x86)\Microsoft Visual Studio\2019\Community\VC\Tools\MSVC\14.28.29333\include\algorithm
; File D:\Metin2 Server Files\mainline\SRC_2014\Metin2Client\eterLib\Pool.h
; File C:\Program Files (x86)\Microsoft Visual Studio\2019\Community\VC\Tools\MSVC\14.28.29333\include\algorithm
; File D:\Metin2 Server Files\mainline\SRC_2014\Metin2Client\eterLib\Pool.h
; File C:\Program Files (x86)\Microsoft Visual Studio\2019\Community\VC\Tools\MSVC\14.28.29333\include\algorithm
; File D:\Metin2 Server Files\mainline\SRC_2014\Metin2Client\eterLib\Pool.h
; File C:\Program Files (x86)\Microsoft Visual Studio\2019\Community\VC\Tools\MSVC\14.28.29333\include\vector
; File C:\Program Files (x86)\Microsoft Visual Studio\2019\Community\VC\Tools\MSVC\14.28.29333\include\xmemory
; File C:\Program Files (x86)\Microsoft Visual Studio\2019\Community\VC\Tools\MSVC\14.28.29333\include\vector
; File C:\Program Files (x86)\Microsoft Visual Studio\2019\Community\VC\Tools\MSVC\14.28.29333\include\xmemory
; File C:\Program Files (x86)\Microsoft Visual Studio\2019\Community\VC\Tools\MSVC\14.28.29333\include\vector
; File C:\Program Files (x86)\Microsoft Visual Studio\2019\Community\VC\Tools\MSVC\14.28.29333\include\xmemory
; File C:\Program Files (x86)\Microsoft Visual Studio\2019\Community\VC\Tools\MSVC\14.28.29333\include\vector
; File C:\Program Files (x86)\Microsoft Visual Studio\2019\Community\VC\Tools\MSVC\14.28.29333\include\xmemory
; File C:\Program Files (x86)\Microsoft Visual Studio\2019\Community\VC\Tools\MSVC\14.28.29333\include\vector
; File D:\Metin2 Server Files\mainline\SRC_2014\Metin2Client\eterLib\Pool.h
;	COMDAT ??1?$CDynamicPoolEx@VCGravityDecorator@NEffectUpdateDecorator@@@@UAE@XZ
_TEXT	SEGMENT
??1?$CDynamicPoolEx@VCGravityDecorator@NEffectUpdateDecorator@@@@UAE@XZ PROC ; CDynamicPoolEx<NEffectUpdateDecorator::CGravityDecorator>::~CDynamicPoolEx<NEffectUpdateDecorator::CGravityDecorator>, COMDAT
; _this$ = ecx

; 132  : 		{

  00000	53		 push	 ebx
  00001	56		 push	 esi
  00002	57		 push	 edi
  00003	8b f9		 mov	 edi, ecx
  00005	c7 07 00 00 00
	00		 mov	 DWORD PTR [edi], OFFSET ??_7?$CDynamicPoolEx@VCGravityDecorator@NEffectUpdateDecorator@@@@6B@
; File C:\Program Files (x86)\Microsoft Visual Studio\2019\Community\VC\Tools\MSVC\14.28.29333\include\vector

; 42   :     _Vector_const_iterator(_Tptr _Parg, const _Container_base* _Pvector) noexcept : _Ptr(_Parg) {

  0000b	8b 5f 08	 mov	 ebx, DWORD PTR [edi+8]
  0000e	8b 77 04	 mov	 esi, DWORD PTR [edi+4]
; File C:\Program Files (x86)\Microsoft Visual Studio\2019\Community\VC\Tools\MSVC\14.28.29333\include\algorithm

; 307  :     for (; _UFirst != _ULast; ++_UFirst) {

  00011	3b f3		 cmp	 esi, ebx
  00013	74 14		 je	 SHORT $LN19@CDynamicPo
$LL20@CDynamicPo:
; File D:\Metin2 Server Files\mainline\SRC_2014\Metin2Client\eterLib\Pool.h

; 224  : 			::operator delete(pkData);

  00015	ff 36		 push	 DWORD PTR [esi]
  00017	e8 00 00 00 00	 call	 ??3@YAXPAX@Z		; operator delete
; File C:\Program Files (x86)\Microsoft Visual Studio\2019\Community\VC\Tools\MSVC\14.28.29333\include\algorithm

; 307  :     for (; _UFirst != _ULast; ++_UFirst) {

  0001c	83 c6 04	 add	 esi, 4
; File D:\Metin2 Server Files\mainline\SRC_2014\Metin2Client\eterLib\Pool.h

; 224  : 			::operator delete(pkData);

  0001f	83 c4 04	 add	 esp, 4
; File C:\Program Files (x86)\Microsoft Visual Studio\2019\Community\VC\Tools\MSVC\14.28.29333\include\algorithm

; 307  :     for (; _UFirst != _ULast; ++_UFirst) {

  00022	3b f3		 cmp	 esi, ebx
  00024	75 ef		 jne	 SHORT $LL20@CDynamicPo
  00026	8b 77 04	 mov	 esi, DWORD PTR [edi+4]
$LN19@CDynamicPo:
; File D:\Metin2 Server Files\mainline\SRC_2014\Metin2Client\eterLib\Pool.h

; 162  : 			m_kVct_pkFree.clear();

  00029	8b 4f 10	 mov	 ecx, DWORD PTR [edi+16]
  0002c	89 77 08	 mov	 DWORD PTR [edi+8], esi
  0002f	89 4f 14	 mov	 DWORD PTR [edi+20], ecx
; File C:\Program Files (x86)\Microsoft Visual Studio\2019\Community\VC\Tools\MSVC\14.28.29333\include\vector

; 1694 :         if (_Myfirst) { // destroy and deallocate old array

  00032	85 c9		 test	 ecx, ecx
  00034	74 27		 je	 SHORT $LN27@CDynamicPo

; 1695 :             _Destroy(_Myfirst, _Mylast);
; 1696 :             _Getal().deallocate(_Myfirst, static_cast<size_type>(_Myend - _Myfirst));

  00036	8b 47 18	 mov	 eax, DWORD PTR [edi+24]
  00039	2b c1		 sub	 eax, ecx
; File C:\Program Files (x86)\Microsoft Visual Studio\2019\Community\VC\Tools\MSVC\14.28.29333\include\xmemory

; 810  :         _Deallocate<_New_alignof<_Ty>>(_Ptr, sizeof(_Ty) * _Count);

  0003b	83 e0 fc	 and	 eax, -4			; fffffffcH
  0003e	50		 push	 eax
  0003f	51		 push	 ecx
  00040	e8 00 00 00 00	 call	 ??$_Deallocate@$07$0A@@std@@YAXPAXI@Z ; std::_Deallocate<8,0>
; File C:\Program Files (x86)\Microsoft Visual Studio\2019\Community\VC\Tools\MSVC\14.28.29333\include\vector

; 1698 :             _Myfirst = pointer();

  00045	c7 47 10 00 00
	00 00		 mov	 DWORD PTR [edi+16], 0
; File C:\Program Files (x86)\Microsoft Visual Studio\2019\Community\VC\Tools\MSVC\14.28.29333\include\xmemory

; 810  :         _Deallocate<_New_alignof<_Ty>>(_Ptr, sizeof(_Ty) * _Count);

  0004c	83 c4 08	 add	 esp, 8
; File C:\Program Files (x86)\Microsoft Visual Studio\2019\Community\VC\Tools\MSVC\14.28.29333\include\vector

; 1699 :             _Mylast  = pointer();

  0004f	c7 47 14 00 00
	00 00		 mov	 DWORD PTR [edi+20], 0

; 1700 :             _Myend   = pointer();

  00056	c7 47 18 00 00
	00 00		 mov	 DWORD PTR [edi+24], 0
$LN27@CDynamicPo:

; 1694 :         if (_Myfirst) { // destroy and deallocate old array

  0005d	8b 4f 04	 mov	 ecx, DWORD PTR [edi+4]
  00060	85 c9		 test	 ecx, ecx
  00062	74 27		 je	 SHORT $LN34@CDynamicPo

; 1695 :             _Destroy(_Myfirst, _Mylast);
; 1696 :             _Getal().deallocate(_Myfirst, static_cast<size_type>(_Myend - _Myfirst));

  00064	8b 47 0c	 mov	 eax, DWORD PTR [edi+12]
  00067	2b c1		 sub	 eax, ecx
; File C:\Program Files (x86)\Microsoft Visual Studio\2019\Community\VC\Tools\MSVC\14.28.29333\include\xmemory

; 810  :         _Deallocate<_New_alignof<_Ty>>(_Ptr, sizeof(_Ty) * _Count);

  00069	83 e0 fc	 and	 eax, -4			; fffffffcH
  0006c	50		 push	 eax
  0006d	51		 push	 ecx
  0006e	e8 00 00 00 00	 call	 ??$_Deallocate@$07$0A@@std@@YAXPAXI@Z ; std::_Deallocate<8,0>
; File C:\Program Files (x86)\Microsoft Visual Studio\2019\Community\VC\Tools\MSVC\14.28.29333\include\vector

; 1698 :             _Myfirst = pointer();

  00073	c7 47 04 00 00
	00 00		 mov	 DWORD PTR [edi+4], 0
; File C:\Program Files (x86)\Microsoft Visual Studio\2019\Community\VC\Tools\MSVC\14.28.29333\include\xmemory

; 810  :         _Deallocate<_New_alignof<_Ty>>(_Ptr, sizeof(_Ty) * _Count);

  0007a	83 c4 08	 add	 esp, 8
; File C:\Program Files (x86)\Microsoft Visual Studio\2019\Community\VC\Tools\MSVC\14.28.29333\include\vector

; 1699 :             _Mylast  = pointer();

  0007d	c7 47 08 00 00
	00 00		 mov	 DWORD PTR [edi+8], 0

; 1700 :             _Myend   = pointer();

  00084	c7 47 0c 00 00
	00 00		 mov	 DWORD PTR [edi+12], 0
$LN34@CDynamicPo:
  0008b	5f		 pop	 edi
; File D:\Metin2 Server Files\mainline\SRC_2014\Metin2Client\eterLib\Pool.h

; 142  : 		}

  0008c	5e		 pop	 esi
  0008d	5b		 pop	 ebx
  0008e	c3		 ret	 0
??1?$CDynamicPoolEx@VCGravityDecorator@NEffectUpdateDecorator@@@@UAE@XZ ENDP ; CDynamicPoolEx<NEffectUpdateDecorator::CGravityDecorator>::~CDynamicPoolEx<NEffectUpdateDecorator::CGravityDecorator>
_TEXT	ENDS
; Function compile flags: /Ogtp
;	COMDAT ??_G?$CDynamicPoolEx@VCRotationDecorator@NEffectUpdateDecorator@@@@UAEPAXI@Z
_TEXT	SEGMENT
___flags$ = 8						; size = 4
??_G?$CDynamicPoolEx@VCRotationDecorator@NEffectUpdateDecorator@@@@UAEPAXI@Z PROC ; CDynamicPoolEx<NEffectUpdateDecorator::CRotationDecorator>::`scalar deleting destructor', COMDAT
; _this$ = ecx
  00000	55		 push	 ebp
  00001	8b ec		 mov	 ebp, esp
  00003	56		 push	 esi
  00004	8b f1		 mov	 esi, ecx
  00006	e8 00 00 00 00	 call	 ??1?$CDynamicPoolEx@VCRotationDecorator@NEffectUpdateDecorator@@@@UAE@XZ ; CDynamicPoolEx<NEffectUpdateDecorator::CRotationDecorator>::~CDynamicPoolEx<NEffectUpdateDecorator::CRotationDecorator>
  0000b	f6 45 08 01	 test	 BYTE PTR ___flags$[ebp], 1
  0000f	74 0b		 je	 SHORT $LN4@scalar
  00011	6a 24		 push	 36			; 00000024H
  00013	56		 push	 esi
  00014	e8 00 00 00 00	 call	 ??3@YAXPAXI@Z		; operator delete
  00019	83 c4 08	 add	 esp, 8
$LN4@scalar:
  0001c	8b c6		 mov	 eax, esi
  0001e	5e		 pop	 esi
  0001f	5d		 pop	 ebp
  00020	c2 04 00	 ret	 4
??_G?$CDynamicPoolEx@VCRotationDecorator@NEffectUpdateDecorator@@@@UAEPAXI@Z ENDP ; CDynamicPoolEx<NEffectUpdateDecorator::CRotationDecorator>::`scalar deleting destructor'
_TEXT	ENDS
; Function compile flags: /Ogtp
; File D:\Metin2 Server Files\mainline\SRC_2014\Metin2Client\eterLib\Pool.h
;	COMDAT ?Delete@?$CDynamicPoolEx@VCRotationDecorator@NEffectUpdateDecorator@@@@KAXPAVCRotationDecorator@NEffectUpdateDecorator@@@Z
_TEXT	SEGMENT
_pkData$ = 8						; size = 4
?Delete@?$CDynamicPoolEx@VCRotationDecorator@NEffectUpdateDecorator@@@@KAXPAVCRotationDecorator@NEffectUpdateDecorator@@@Z PROC ; CDynamicPoolEx<NEffectUpdateDecorator::CRotationDecorator>::Delete, COMDAT

; 224  : 			::operator delete(pkData);

  00000	e9 00 00 00 00	 jmp	 ??3@YAXPAX@Z		; operator delete
?Delete@?$CDynamicPoolEx@VCRotationDecorator@NEffectUpdateDecorator@@@@KAXPAVCRotationDecorator@NEffectUpdateDecorator@@@Z ENDP ; CDynamicPoolEx<NEffectUpdateDecorator::CRotationDecorator>::Delete
_TEXT	ENDS
; Function compile flags: /Ogtp
; File D:\Metin2 Server Files\mainline\SRC_2014\Metin2Client\eterLib\Pool.h
; File C:\Program Files (x86)\Microsoft Visual Studio\2019\Community\VC\Tools\MSVC\14.28.29333\include\vector
; File C:\Program Files (x86)\Microsoft Visual Studio\2019\Community\VC\Tools\MSVC\14.28.29333\include\algorithm
; File D:\Metin2 Server Files\mainline\SRC_2014\Metin2Client\eterLib\Pool.h
; File C:\Program Files (x86)\Microsoft Visual Studio\2019\Community\VC\Tools\MSVC\14.28.29333\include\algorithm
; File D:\Metin2 Server Files\mainline\SRC_2014\Metin2Client\eterLib\Pool.h
; File C:\Program Files (x86)\Microsoft Visual Studio\2019\Community\VC\Tools\MSVC\14.28.29333\include\algorithm
; File D:\Metin2 Server Files\mainline\SRC_2014\Metin2Client\eterLib\Pool.h
; File C:\Program Files (x86)\Microsoft Visual Studio\2019\Community\VC\Tools\MSVC\14.28.29333\include\vector
; File C:\Program Files (x86)\Microsoft Visual Studio\2019\Community\VC\Tools\MSVC\14.28.29333\include\xmemory
; File C:\Program Files (x86)\Microsoft Visual Studio\2019\Community\VC\Tools\MSVC\14.28.29333\include\vector
; File C:\Program Files (x86)\Microsoft Visual Studio\2019\Community\VC\Tools\MSVC\14.28.29333\include\xmemory
; File C:\Program Files (x86)\Microsoft Visual Studio\2019\Community\VC\Tools\MSVC\14.28.29333\include\vector
; File C:\Program Files (x86)\Microsoft Visual Studio\2019\Community\VC\Tools\MSVC\14.28.29333\include\xmemory
; File C:\Program Files (x86)\Microsoft Visual Studio\2019\Community\VC\Tools\MSVC\14.28.29333\include\vector
; File C:\Program Files (x86)\Microsoft Visual Studio\2019\Community\VC\Tools\MSVC\14.28.29333\include\xmemory
; File C:\Program Files (x86)\Microsoft Visual Studio\2019\Community\VC\Tools\MSVC\14.28.29333\include\vector
; File D:\Metin2 Server Files\mainline\SRC_2014\Metin2Client\eterLib\Pool.h
;	COMDAT ??1?$CDynamicPoolEx@VCRotationDecorator@NEffectUpdateDecorator@@@@UAE@XZ
_TEXT	SEGMENT
??1?$CDynamicPoolEx@VCRotationDecorator@NEffectUpdateDecorator@@@@UAE@XZ PROC ; CDynamicPoolEx<NEffectUpdateDecorator::CRotationDecorator>::~CDynamicPoolEx<NEffectUpdateDecorator::CRotationDecorator>, COMDAT
; _this$ = ecx

; 132  : 		{

  00000	53		 push	 ebx
  00001	56		 push	 esi
  00002	57		 push	 edi
  00003	8b f9		 mov	 edi, ecx
  00005	c7 07 00 00 00
	00		 mov	 DWORD PTR [edi], OFFSET ??_7?$CDynamicPoolEx@VCRotationDecorator@NEffectUpdateDecorator@@@@6B@
; File C:\Program Files (x86)\Microsoft Visual Studio\2019\Community\VC\Tools\MSVC\14.28.29333\include\vector

; 42   :     _Vector_const_iterator(_Tptr _Parg, const _Container_base* _Pvector) noexcept : _Ptr(_Parg) {

  0000b	8b 5f 08	 mov	 ebx, DWORD PTR [edi+8]
  0000e	8b 77 04	 mov	 esi, DWORD PTR [edi+4]
; File C:\Program Files (x86)\Microsoft Visual Studio\2019\Community\VC\Tools\MSVC\14.28.29333\include\algorithm

; 307  :     for (; _UFirst != _ULast; ++_UFirst) {

  00011	3b f3		 cmp	 esi, ebx
  00013	74 14		 je	 SHORT $LN19@CDynamicPo
$LL20@CDynamicPo:
; File D:\Metin2 Server Files\mainline\SRC_2014\Metin2Client\eterLib\Pool.h

; 224  : 			::operator delete(pkData);

  00015	ff 36		 push	 DWORD PTR [esi]
  00017	e8 00 00 00 00	 call	 ??3@YAXPAX@Z		; operator delete
; File C:\Program Files (x86)\Microsoft Visual Studio\2019\Community\VC\Tools\MSVC\14.28.29333\include\algorithm

; 307  :     for (; _UFirst != _ULast; ++_UFirst) {

  0001c	83 c6 04	 add	 esi, 4
; File D:\Metin2 Server Files\mainline\SRC_2014\Metin2Client\eterLib\Pool.h

; 224  : 			::operator delete(pkData);

  0001f	83 c4 04	 add	 esp, 4
; File C:\Program Files (x86)\Microsoft Visual Studio\2019\Community\VC\Tools\MSVC\14.28.29333\include\algorithm

; 307  :     for (; _UFirst != _ULast; ++_UFirst) {

  00022	3b f3		 cmp	 esi, ebx
  00024	75 ef		 jne	 SHORT $LL20@CDynamicPo
  00026	8b 77 04	 mov	 esi, DWORD PTR [edi+4]
$LN19@CDynamicPo:
; File D:\Metin2 Server Files\mainline\SRC_2014\Metin2Client\eterLib\Pool.h

; 162  : 			m_kVct_pkFree.clear();

  00029	8b 4f 10	 mov	 ecx, DWORD PTR [edi+16]
  0002c	89 77 08	 mov	 DWORD PTR [edi+8], esi
  0002f	89 4f 14	 mov	 DWORD PTR [edi+20], ecx
; File C:\Program Files (x86)\Microsoft Visual Studio\2019\Community\VC\Tools\MSVC\14.28.29333\include\vector

; 1694 :         if (_Myfirst) { // destroy and deallocate old array

  00032	85 c9		 test	 ecx, ecx
  00034	74 27		 je	 SHORT $LN27@CDynamicPo

; 1695 :             _Destroy(_Myfirst, _Mylast);
; 1696 :             _Getal().deallocate(_Myfirst, static_cast<size_type>(_Myend - _Myfirst));

  00036	8b 47 18	 mov	 eax, DWORD PTR [edi+24]
  00039	2b c1		 sub	 eax, ecx
; File C:\Program Files (x86)\Microsoft Visual Studio\2019\Community\VC\Tools\MSVC\14.28.29333\include\xmemory

; 810  :         _Deallocate<_New_alignof<_Ty>>(_Ptr, sizeof(_Ty) * _Count);

  0003b	83 e0 fc	 and	 eax, -4			; fffffffcH
  0003e	50		 push	 eax
  0003f	51		 push	 ecx
  00040	e8 00 00 00 00	 call	 ??$_Deallocate@$07$0A@@std@@YAXPAXI@Z ; std::_Deallocate<8,0>
; File C:\Program Files (x86)\Microsoft Visual Studio\2019\Community\VC\Tools\MSVC\14.28.29333\include\vector

; 1698 :             _Myfirst = pointer();

  00045	c7 47 10 00 00
	00 00		 mov	 DWORD PTR [edi+16], 0
; File C:\Program Files (x86)\Microsoft Visual Studio\2019\Community\VC\Tools\MSVC\14.28.29333\include\xmemory

; 810  :         _Deallocate<_New_alignof<_Ty>>(_Ptr, sizeof(_Ty) * _Count);

  0004c	83 c4 08	 add	 esp, 8
; File C:\Program Files (x86)\Microsoft Visual Studio\2019\Community\VC\Tools\MSVC\14.28.29333\include\vector

; 1699 :             _Mylast  = pointer();

  0004f	c7 47 14 00 00
	00 00		 mov	 DWORD PTR [edi+20], 0

; 1700 :             _Myend   = pointer();

  00056	c7 47 18 00 00
	00 00		 mov	 DWORD PTR [edi+24], 0
$LN27@CDynamicPo:

; 1694 :         if (_Myfirst) { // destroy and deallocate old array

  0005d	8b 4f 04	 mov	 ecx, DWORD PTR [edi+4]
  00060	85 c9		 test	 ecx, ecx
  00062	74 27		 je	 SHORT $LN34@CDynamicPo

; 1695 :             _Destroy(_Myfirst, _Mylast);
; 1696 :             _Getal().deallocate(_Myfirst, static_cast<size_type>(_Myend - _Myfirst));

  00064	8b 47 0c	 mov	 eax, DWORD PTR [edi+12]
  00067	2b c1		 sub	 eax, ecx
; File C:\Program Files (x86)\Microsoft Visual Studio\2019\Community\VC\Tools\MSVC\14.28.29333\include\xmemory

; 810  :         _Deallocate<_New_alignof<_Ty>>(_Ptr, sizeof(_Ty) * _Count);

  00069	83 e0 fc	 and	 eax, -4			; fffffffcH
  0006c	50		 push	 eax
  0006d	51		 push	 ecx
  0006e	e8 00 00 00 00	 call	 ??$_Deallocate@$07$0A@@std@@YAXPAXI@Z ; std::_Deallocate<8,0>
; File C:\Program Files (x86)\Microsoft Visual Studio\2019\Community\VC\Tools\MSVC\14.28.29333\include\vector

; 1698 :             _Myfirst = pointer();

  00073	c7 47 04 00 00
	00 00		 mov	 DWORD PTR [edi+4], 0
; File C:\Program Files (x86)\Microsoft Visual Studio\2019\Community\VC\Tools\MSVC\14.28.29333\include\xmemory

; 810  :         _Deallocate<_New_alignof<_Ty>>(_Ptr, sizeof(_Ty) * _Count);

  0007a	83 c4 08	 add	 esp, 8
; File C:\Program Files (x86)\Microsoft Visual Studio\2019\Community\VC\Tools\MSVC\14.28.29333\include\vector

; 1699 :             _Mylast  = pointer();

  0007d	c7 47 08 00 00
	00 00		 mov	 DWORD PTR [edi+8], 0

; 1700 :             _Myend   = pointer();

  00084	c7 47 0c 00 00
	00 00		 mov	 DWORD PTR [edi+12], 0
$LN34@CDynamicPo:
  0008b	5f		 pop	 edi
; File D:\Metin2 Server Files\mainline\SRC_2014\Metin2Client\eterLib\Pool.h

; 142  : 		}

  0008c	5e		 pop	 esi
  0008d	5b		 pop	 ebx
  0008e	c3		 ret	 0
??1?$CDynamicPoolEx@VCRotationDecorator@NEffectUpdateDecorator@@@@UAE@XZ ENDP ; CDynamicPoolEx<NEffectUpdateDecorator::CRotationDecorator>::~CDynamicPoolEx<NEffectUpdateDecorator::CRotationDecorator>
_TEXT	ENDS
; Function compile flags: /Ogtp
; File D:\Metin2 Server Files\mainline\SRC_2014\Metin2Client\UserInterface\PythonApplicationModule.cpp
;	COMDAT ?appLogoClose@@YAPAU_object@@PAU1@0@Z
_TEXT	SEGMENT
_poSelf$ = 8						; size = 4
_poArgs$ = 12						; size = 4
?appLogoClose@@YAPAU_object@@PAU1@0@Z PROC		; appLogoClose, COMDAT

; 1191 : 	//CPythonApplication::Instance().OnLogoClose();
; 1192 : 	return Py_BuildNone();

  00000	e9 00 00 00 00	 jmp	 ?Py_BuildNone@@YAPAU_object@@XZ ; Py_BuildNone
?appLogoClose@@YAPAU_object@@PAU1@0@Z ENDP		; appLogoClose
_TEXT	ENDS
; Function compile flags: /Ogtp
; File D:\Metin2 Server Files\mainline\SRC_2014\Metin2Client\UserInterface\PythonApplicationModule.cpp
;	COMDAT ?appLogoRender@@YAPAU_object@@PAU1@0@Z
_TEXT	SEGMENT
_poSelf$ = 8						; size = 4
_poArgs$ = 12						; size = 4
?appLogoRender@@YAPAU_object@@PAU1@0@Z PROC		; appLogoRender, COMDAT

; 1185 : 	//CPythonApplication::Instance().OnLogoRender();
; 1186 : 	return Py_BuildNone();

  00000	e9 00 00 00 00	 jmp	 ?Py_BuildNone@@YAPAU_object@@XZ ; Py_BuildNone
?appLogoRender@@YAPAU_object@@PAU1@0@Z ENDP		; appLogoRender
_TEXT	ENDS
; Function compile flags: /Ogtp
; File D:\Metin2 Server Files\mainline\SRC_2014\Metin2Client\UserInterface\PythonApplicationModule.cpp
;	COMDAT ?appLogoUpdate@@YAPAU_object@@PAU1@0@Z
_TEXT	SEGMENT
_poSelf$ = 8						; size = 4
_poArgs$ = 12						; size = 4
?appLogoUpdate@@YAPAU_object@@PAU1@0@Z PROC		; appLogoUpdate, COMDAT

; 1179 : 	int nIsRun = 0; //CPythonApplication::Instance().OnLogoUpdate();
; 1180 : 	return Py_BuildValue("i", nIsRun);

  00000	6a 00		 push	 0
  00002	68 00 00 00 00	 push	 OFFSET ??_C@_01KBJDNOO@i@
  00007	ff 15 00 00 00
	00		 call	 DWORD PTR __imp__Py_BuildValue
  0000d	83 c4 08	 add	 esp, 8

; 1181 : }

  00010	c3		 ret	 0
?appLogoUpdate@@YAPAU_object@@PAU1@0@Z ENDP		; appLogoUpdate
_TEXT	ENDS
; Function compile flags: /Ogtp
; File D:\Metin2 Server Files\mainline\SRC_2014\Metin2Client\UserInterface\PythonApplicationModule.cpp
;	COMDAT ?appLogoOpen@@YAPAU_object@@PAU1@0@Z
_TEXT	SEGMENT
_szName$ = -4						; size = 4
_poSelf$ = 8						; size = 4
_poArgs$ = 12						; size = 4
?appLogoOpen@@YAPAU_object@@PAU1@0@Z PROC		; appLogoOpen, COMDAT

; 1166 : {

  00000	55		 push	 ebp
  00001	8b ec		 mov	 ebp, esp
  00003	51		 push	 ecx

; 1167 : 	char* szName;
; 1168 : 	if (!PyTuple_GetString(poArgs, 0, &szName))

  00004	8d 45 fc	 lea	 eax, DWORD PTR _szName$[ebp]
  00007	50		 push	 eax
  00008	6a 00		 push	 0
  0000a	ff 75 0c	 push	 DWORD PTR _poArgs$[ebp]
  0000d	e8 00 00 00 00	 call	 ?PyTuple_GetString@@YA_NPAU_object@@HPAPAD@Z ; PyTuple_GetString
  00012	83 c4 0c	 add	 esp, 12			; 0000000cH
  00015	84 c0		 test	 al, al
  00017	75 0e		 jne	 SHORT $LN2@appLogoOpe

; 1169 : 		return Py_BuildException();

  00019	6a 00		 push	 0
  0001b	e8 00 00 00 00	 call	 ?Py_BuildException@@YAPAU_object@@PBDZZ ; Py_BuildException
  00020	83 c4 04	 add	 esp, 4

; 1175 : }

  00023	8b e5		 mov	 esp, ebp
  00025	5d		 pop	 ebp
  00026	c3		 ret	 0
$LN2@appLogoOpe:

; 1170 : 
; 1171 : 	int nIsSuccess = 1; //CPythonApplication::Instance().OnLogoOpen(szName);
; 1172 : 	CMovieMan::Instance().PlayLogo(szName);

  00027	ff 75 fc	 push	 DWORD PTR _szName$[ebp]
  0002a	8b 0d 00 00 00
	00		 mov	 ecx, DWORD PTR ?ms_singleton@?$CSingleton@VCMovieMan@@@@0PAVCMovieMan@@A ; CSingleton<CMovieMan>::ms_singleton
  00030	e8 00 00 00 00	 call	 ?PlayLogo@CMovieMan@@QAEXPBD@Z ; CMovieMan::PlayLogo

; 1173 : 
; 1174 : 	return Py_BuildValue("i", nIsSuccess);

  00035	6a 01		 push	 1
  00037	68 00 00 00 00	 push	 OFFSET ??_C@_01KBJDNOO@i@
  0003c	ff 15 00 00 00
	00		 call	 DWORD PTR __imp__Py_BuildValue
  00042	83 c4 08	 add	 esp, 8

; 1175 : }

  00045	8b e5		 mov	 esp, ebp
  00047	5d		 pop	 ebp
  00048	c3		 ret	 0
?appLogoOpen@@YAPAU_object@@PAU1@0@Z ENDP		; appLogoOpen
_TEXT	ENDS
; Function compile flags: /Ogtp
; File D:\Metin2 Server Files\mainline\SRC_2014\Metin2Client\UserInterface\PythonApplicationModule.cpp
;	COMDAT ?appIsLiveStage@@YAPAU_object@@PAU1@0@Z
_TEXT	SEGMENT
_poSelf$ = 8						; size = 4
_poArgs$ = 12						; size = 4
?appIsLiveStage@@YAPAU_object@@PAU1@0@Z PROC		; appIsLiveStage, COMDAT

; 1158 : 	int nIsLiveStage = 0;
; 1159 : #if !defined(LOCALE_SERVICE_STAGE_TEST) && !defined(LOCALE_SERVICE_STAGE_DEVELOPMENT)
; 1160 : 	nIsLiveStage = 1;
; 1161 : #endif
; 1162 : 	return Py_BuildValue("i", nIsLiveStage);

  00000	6a 01		 push	 1
  00002	68 00 00 00 00	 push	 OFFSET ??_C@_01KBJDNOO@i@
  00007	ff 15 00 00 00
	00		 call	 DWORD PTR __imp__Py_BuildValue
  0000d	83 c4 08	 add	 esp, 8

; 1163 : }

  00010	c3		 ret	 0
?appIsLiveStage@@YAPAU_object@@PAU1@0@Z ENDP		; appIsLiveStage
_TEXT	ENDS
; Function compile flags: /Ogtp
; File D:\Metin2 Server Files\mainline\SRC_2014\Metin2Client\UserInterface\PythonApplicationModule.cpp
;	COMDAT ?appIsTestStage@@YAPAU_object@@PAU1@0@Z
_TEXT	SEGMENT
_poSelf$ = 8						; size = 4
_poArgs$ = 12						; size = 4
?appIsTestStage@@YAPAU_object@@PAU1@0@Z PROC		; appIsTestStage, COMDAT

; 1149 : 	int nIsTestStage = 0;
; 1150 : #if defined(LOCALE_SERVICE_STAGE_TEST)
; 1151 : 	nIsTestStage = 1;
; 1152 : #endif
; 1153 : 	return Py_BuildValue("i", nIsTestStage);

  00000	6a 00		 push	 0
  00002	68 00 00 00 00	 push	 OFFSET ??_C@_01KBJDNOO@i@
  00007	ff 15 00 00 00
	00		 call	 DWORD PTR __imp__Py_BuildValue
  0000d	83 c4 08	 add	 esp, 8

; 1154 : }

  00010	c3		 ret	 0
?appIsTestStage@@YAPAU_object@@PAU1@0@Z ENDP		; appIsTestStage
_TEXT	ENDS
; Function compile flags: /Ogtp
; File D:\Metin2 Server Files\mainline\SRC_2014\Metin2Client\UserInterface\PythonApplicationModule.cpp
;	COMDAT ?appIsDevStage@@YAPAU_object@@PAU1@0@Z
_TEXT	SEGMENT
_poSelf$ = 8						; size = 4
_poArgs$ = 12						; size = 4
?appIsDevStage@@YAPAU_object@@PAU1@0@Z PROC		; appIsDevStage, COMDAT

; 1140 : 	int nIsDevelopmentStage = 0;
; 1141 : #if defined(LOCALE_SERVICE_STAGE_DEVELOPMENT)
; 1142 : 	nIsDevelopmentStage = 1;
; 1143 : #endif
; 1144 : 	return Py_BuildValue("i", nIsDevelopmentStage);

  00000	6a 00		 push	 0
  00002	68 00 00 00 00	 push	 OFFSET ??_C@_01KBJDNOO@i@
  00007	ff 15 00 00 00
	00		 call	 DWORD PTR __imp__Py_BuildValue
  0000d	83 c4 08	 add	 esp, 8

; 1145 : }

  00010	c3		 ret	 0
?appIsDevStage@@YAPAU_object@@PAU1@0@Z ENDP		; appIsDevStage
_TEXT	ENDS
; Function compile flags: /Ogtp
; File D:\Metin2 Server Files\mainline\SRC_2014\Metin2Client\UserInterface\PythonApplicationModule.cpp
; File C:\Program Files (x86)\Windows Kits\10\Include\10.0.18362.0\ucrt\string.h
; File D:\Metin2 Server Files\mainline\SRC_2014\Metin2Client\UserInterface\PythonApplicationModule.cpp
; File C:\Program Files (x86)\Windows Kits\10\Include\10.0.18362.0\ucrt\string.h
; File D:\Metin2 Server Files\mainline\SRC_2014\Metin2Client\UserInterface\PythonApplicationModule.cpp
;	COMDAT ?appSetGuildMarkPath@@YAPAU_object@@PAU1@0@Z
_TEXT	SEGMENT
_path$ = -264						; size = 4
_newPath$ = -260					; size = 256
__$ArrayPad$ = -4					; size = 4
_poSelf$ = 8						; size = 4
_poArgs$ = 12						; size = 4
?appSetGuildMarkPath@@YAPAU_object@@PAU1@0@Z PROC	; appSetGuildMarkPath, COMDAT

; 1117 : {

  00000	55		 push	 ebp
  00001	8b ec		 mov	 ebp, esp
  00003	81 ec 08 01 00
	00		 sub	 esp, 264		; 00000108H
  00009	a1 00 00 00 00	 mov	 eax, DWORD PTR ___security_cookie
  0000e	33 c5		 xor	 eax, ebp
  00010	89 45 fc	 mov	 DWORD PTR __$ArrayPad$[ebp], eax
  00013	8b 45 0c	 mov	 eax, DWORD PTR _poArgs$[ebp]

; 1118 : 	char * path;
; 1119 : 	if (!PyTuple_GetString(poArgs, 0, &path))

  00016	8d 8d f8 fe ff
	ff		 lea	 ecx, DWORD PTR _path$[ebp]
  0001c	51		 push	 ecx
  0001d	6a 00		 push	 0
  0001f	50		 push	 eax
  00020	e8 00 00 00 00	 call	 ?PyTuple_GetString@@YA_NPAU_object@@HPAPAD@Z ; PyTuple_GetString
  00025	83 c4 0c	 add	 esp, 12			; 0000000cH
  00028	84 c0		 test	 al, al
  0002a	75 18		 jne	 SHORT $LN2@appSetGuil

; 1120 : 		return Py_BuildException();

  0002c	6a 00		 push	 0
  0002e	e8 00 00 00 00	 call	 ?Py_BuildException@@YAPAU_object@@PBDZZ ; Py_BuildException
  00033	83 c4 04	 add	 esp, 4

; 1136 : }

  00036	8b 4d fc	 mov	 ecx, DWORD PTR __$ArrayPad$[ebp]
  00039	33 cd		 xor	 ecx, ebp
  0003b	e8 00 00 00 00	 call	 @__security_check_cookie@4
  00040	8b e5		 mov	 esp, ebp
  00042	5d		 pop	 ebp
  00043	c3		 ret	 0
$LN2@appSetGuil:
  00044	56		 push	 esi
; File C:\Program Files (x86)\Windows Kits\10\Include\10.0.18362.0\ucrt\string.h

; 524  :         return const_cast<char*>(strstr(static_cast<char const*>(_String), _SubString));

  00045	68 00 00 00 00	 push	 OFFSET ??_C@_04JCAPCJAP@?4tga@
  0004a	ff b5 f8 fe ff
	ff		 push	 DWORD PTR _path$[ebp]
  00050	e8 00 00 00 00	 call	 _strstr
; File D:\Metin2 Server Files\mainline\SRC_2014\Metin2Client\UserInterface\PythonApplicationModule.cpp

; 1123 :     char * ext = strstr(path, ".tga");

  00055	8b f0		 mov	 esi, eax
; File C:\Program Files (x86)\Windows Kits\10\Include\10.0.18362.0\ucrt\string.h

; 524  :         return const_cast<char*>(strstr(static_cast<char const*>(_String), _SubString));

  00057	83 c4 08	 add	 esp, 8
; File D:\Metin2 Server Files\mainline\SRC_2014\Metin2Client\UserInterface\PythonApplicationModule.cpp

; 1125 :     if (ext)

  0005a	8d 85 fc fe ff
	ff		 lea	 eax, DWORD PTR _newPath$[ebp]
  00060	85 f6		 test	 esi, esi
  00062	74 25		 je	 SHORT $LN3@appSetGuil

; 1126 :     {
; 1127 : 		int extPos = ext - path;

  00064	8b 8d f8 fe ff
	ff		 mov	 ecx, DWORD PTR _path$[ebp]
  0006a	2b f1		 sub	 esi, ecx

; 1128 :         strncpy(newPath, path, extPos);

  0006c	56		 push	 esi
  0006d	51		 push	 ecx
  0006e	50		 push	 eax
  0006f	e8 00 00 00 00	 call	 _strncpy
  00074	83 c4 0c	 add	 esp, 12			; 0000000cH

; 1129 :         newPath[extPos] = '\0';

  00077	81 fe 00 01 00
	00		 cmp	 esi, 256		; 00000100H
  0007d	73 44		 jae	 SHORT $LN6@appSetGuil
  0007f	c6 84 35 fc fe
	ff ff 00	 mov	 BYTE PTR _newPath$[ebp+esi], 0

; 1130 :     }

  00087	eb 14		 jmp	 SHORT $LN4@appSetGuil
$LN3@appSetGuil:

; 1131 :     else
; 1132 :         strncpy(newPath, path, sizeof(newPath)-1);

  00089	68 ff 00 00 00	 push	 255			; 000000ffH
  0008e	ff b5 f8 fe ff
	ff		 push	 DWORD PTR _path$[ebp]
  00094	50		 push	 eax
  00095	e8 00 00 00 00	 call	 _strncpy
  0009a	83 c4 0c	 add	 esp, 12			; 0000000cH
$LN4@appSetGuil:

; 1133 : 	
; 1134 : 	CGuildMarkManager::Instance().SetMarkPathPrefix(newPath);

  0009d	8b 0d 00 00 00
	00		 mov	 ecx, DWORD PTR ?ms_singleton@?$singleton@VCGuildMarkManager@@@@0PAVCGuildMarkManager@@A ; singleton<CGuildMarkManager>::ms_singleton
  000a3	8d 85 fc fe ff
	ff		 lea	 eax, DWORD PTR _newPath$[ebp]
  000a9	50		 push	 eax
  000aa	e8 00 00 00 00	 call	 ?SetMarkPathPrefix@CGuildMarkManager@@QAEXPBD@Z ; CGuildMarkManager::SetMarkPathPrefix

; 1135 : 	return Py_BuildNone();

  000af	e8 00 00 00 00	 call	 ?Py_BuildNone@@YAPAU_object@@XZ ; Py_BuildNone

; 1136 : }

  000b4	8b 4d fc	 mov	 ecx, DWORD PTR __$ArrayPad$[ebp]
  000b7	33 cd		 xor	 ecx, ebp
  000b9	5e		 pop	 esi
  000ba	e8 00 00 00 00	 call	 @__security_check_cookie@4
  000bf	8b e5		 mov	 esp, ebp
  000c1	5d		 pop	 ebp
  000c2	c3		 ret	 0
$LN6@appSetGuil:

; 1129 :         newPath[extPos] = '\0';

  000c3	e8 00 00 00 00	 call	 ___report_rangecheckfailure
$LN10@appSetGuil:
  000c8	cc		 int	 3
?appSetGuildMarkPath@@YAPAU_object@@PAU1@0@Z ENDP	; appSetGuildMarkPath
_TEXT	ENDS
; Function compile flags: /Ogtp
; File D:\Metin2 Server Files\mainline\SRC_2014\Metin2Client\UserInterface\PythonApplicationModule.cpp
; File C:\Program Files (x86)\Microsoft Visual Studio\2019\Community\VC\Tools\MSVC\14.28.29333\include\xstring
; File D:\Metin2 Server Files\mainline\SRC_2014\Metin2Client\UserInterface\PythonApplicationModule.cpp
;	COMDAT ?appGetTextFileLine@@YAPAU_object@@PAU1@0@Z
_TEXT	SEGMENT
_iLineIndex$ = -8					; size = 4
_iHandle$ = -4						; size = 4
_poSelf$ = 8						; size = 4
_poArgs$ = 12						; size = 4
?appGetTextFileLine@@YAPAU_object@@PAU1@0@Z PROC	; appGetTextFileLine, COMDAT

; 1104 : {

  00000	55		 push	 ebp
  00001	8b ec		 mov	 ebp, esp
  00003	83 ec 08	 sub	 esp, 8

; 1105 : 	int iHandle;
; 1106 : 	if (!PyTuple_GetInteger(poArgs, 0, &iHandle))

  00006	8d 45 fc	 lea	 eax, DWORD PTR _iHandle$[ebp]
  00009	56		 push	 esi
  0000a	8b 75 0c	 mov	 esi, DWORD PTR _poArgs$[ebp]
  0000d	50		 push	 eax
  0000e	6a 00		 push	 0
  00010	56		 push	 esi
  00011	e8 00 00 00 00	 call	 ?PyTuple_GetInteger@@YA_NPAU_object@@HPAH@Z ; PyTuple_GetInteger
  00016	83 c4 0c	 add	 esp, 12			; 0000000cH
  00019	84 c0		 test	 al, al
  0001b	75 0f		 jne	 SHORT $LN2@appGetText
$LN17@appGetText:

; 1114 : }

  0001d	6a 00		 push	 0
  0001f	e8 00 00 00 00	 call	 ?Py_BuildException@@YAPAU_object@@PBDZZ ; Py_BuildException
  00024	83 c4 04	 add	 esp, 4
  00027	5e		 pop	 esi
  00028	8b e5		 mov	 esp, ebp
  0002a	5d		 pop	 ebp
  0002b	c3		 ret	 0
$LN2@appGetText:

; 1107 : 		return Py_BuildException();
; 1108 : 	int iLineIndex;
; 1109 : 	if (!PyTuple_GetInteger(poArgs, 1, &iLineIndex))

  0002c	8d 45 f8	 lea	 eax, DWORD PTR _iLineIndex$[ebp]
  0002f	50		 push	 eax
  00030	6a 01		 push	 1
  00032	56		 push	 esi
  00033	e8 00 00 00 00	 call	 ?PyTuple_GetInteger@@YA_NPAU_object@@HPAH@Z ; PyTuple_GetInteger
  00038	83 c4 0c	 add	 esp, 12			; 0000000cH
  0003b	84 c0		 test	 al, al
  0003d	74 de		 je	 SHORT $LN17@appGetText

; 1110 : 		return Py_BuildException();
; 1111 : 
; 1112 : 	CTextLineLoader * pTextFileLoader = (CTextLineLoader *)iHandle;

  0003f	8b 75 fc	 mov	 esi, DWORD PTR _iHandle$[ebp]

; 1055 : 			return m_kTextFileLoader.GetLineCount();

  00042	8b ce		 mov	 ecx, esi
  00044	57		 push	 edi

; 1113 : 	return Py_BuildValue("s", pTextFileLoader->GetLine(iLineIndex));

  00045	8b 7d f8	 mov	 edi, DWORD PTR _iLineIndex$[ebp]

; 1055 : 			return m_kTextFileLoader.GetLineCount();

  00048	e8 00 00 00 00	 call	 ?GetLineCount@CMemoryTextFileLoader@@QAEKXZ ; CMemoryTextFileLoader::GetLineCount

; 1060 : 			if (dwIndex >= GetLineCount())

  0004d	3b f8		 cmp	 edi, eax
  0004f	72 07		 jb	 SHORT $LN6@appGetText

; 1061 : 				return "";

  00051	b8 00 00 00 00	 mov	 eax, OFFSET ??_C@_00CNPNBAHC@@
  00056	eb 10		 jmp	 SHORT $LN13@appGetText
$LN6@appGetText:

; 1062 : 
; 1063 : 			return m_kTextFileLoader.GetLineString(dwIndex).c_str();

  00058	57		 push	 edi
  00059	8b ce		 mov	 ecx, esi
  0005b	e8 00 00 00 00	 call	 ?GetLineString@CMemoryTextFileLoader@@QAEABV?$basic_string@DU?$char_traits@D@std@@V?$allocator@D@2@@std@@K@Z ; CMemoryTextFileLoader::GetLineString
; File C:\Program Files (x86)\Microsoft Visual Studio\2019\Community\VC\Tools\MSVC\14.28.29333\include\xstring

; 2227 :         return _BUF_SIZE <= _Myres;

  00060	83 78 14 10	 cmp	 DWORD PTR [eax+20], 16	; 00000010H

; 2219 :         if (_Large_string_engaged()) {

  00064	72 02		 jb	 SHORT $LN13@appGetText

; 2220 :             _Result = _Unfancy(_Bx._Ptr);

  00066	8b 00		 mov	 eax, DWORD PTR [eax]
$LN13@appGetText:
; File D:\Metin2 Server Files\mainline\SRC_2014\Metin2Client\UserInterface\PythonApplicationModule.cpp

; 1113 : 	return Py_BuildValue("s", pTextFileLoader->GetLine(iLineIndex));

  00068	50		 push	 eax
  00069	68 00 00 00 00	 push	 OFFSET ??_C@_01LKDEMHDF@s@
  0006e	ff 15 00 00 00
	00		 call	 DWORD PTR __imp__Py_BuildValue
  00074	83 c4 08	 add	 esp, 8
  00077	5f		 pop	 edi
  00078	5e		 pop	 esi

; 1114 : }

  00079	8b e5		 mov	 esp, ebp
  0007b	5d		 pop	 ebp
  0007c	c3		 ret	 0
?appGetTextFileLine@@YAPAU_object@@PAU1@0@Z ENDP	; appGetTextFileLine
_TEXT	ENDS
; Function compile flags: /Ogtp
; File D:\Metin2 Server Files\mainline\SRC_2014\Metin2Client\UserInterface\PythonApplicationModule.cpp
;	COMDAT ?appGetTextFileLineCount@@YAPAU_object@@PAU1@0@Z
_TEXT	SEGMENT
_iHandle$ = -4						; size = 4
_poSelf$ = 8						; size = 4
_poArgs$ = 12						; size = 4
?appGetTextFileLineCount@@YAPAU_object@@PAU1@0@Z PROC	; appGetTextFileLineCount, COMDAT

; 1094 : {

  00000	55		 push	 ebp
  00001	8b ec		 mov	 ebp, esp
  00003	51		 push	 ecx

; 1095 : 	int iHandle;
; 1096 : 	if (!PyTuple_GetInteger(poArgs, 0, &iHandle))

  00004	8d 45 fc	 lea	 eax, DWORD PTR _iHandle$[ebp]
  00007	50		 push	 eax
  00008	6a 00		 push	 0
  0000a	ff 75 0c	 push	 DWORD PTR _poArgs$[ebp]
  0000d	e8 00 00 00 00	 call	 ?PyTuple_GetInteger@@YA_NPAU_object@@HPAH@Z ; PyTuple_GetInteger
  00012	83 c4 0c	 add	 esp, 12			; 0000000cH
  00015	84 c0		 test	 al, al
  00017	75 0e		 jne	 SHORT $LN2@appGetText

; 1097 : 		return Py_BuildException();

  00019	6a 00		 push	 0
  0001b	e8 00 00 00 00	 call	 ?Py_BuildException@@YAPAU_object@@PBDZZ ; Py_BuildException
  00020	83 c4 04	 add	 esp, 4

; 1101 : }

  00023	8b e5		 mov	 esp, ebp
  00025	5d		 pop	 ebp
  00026	c3		 ret	 0
$LN2@appGetText:

; 1055 : 			return m_kTextFileLoader.GetLineCount();

  00027	8b 4d fc	 mov	 ecx, DWORD PTR _iHandle$[ebp]
  0002a	e8 00 00 00 00	 call	 ?GetLineCount@CMemoryTextFileLoader@@QAEKXZ ; CMemoryTextFileLoader::GetLineCount

; 1098 : 
; 1099 : 	CTextLineLoader * pTextFileLoader = (CTextLineLoader *)iHandle;
; 1100 : 	return Py_BuildValue("i", pTextFileLoader->GetLineCount());

  0002f	50		 push	 eax
  00030	68 00 00 00 00	 push	 OFFSET ??_C@_01KBJDNOO@i@
  00035	ff 15 00 00 00
	00		 call	 DWORD PTR __imp__Py_BuildValue
  0003b	83 c4 08	 add	 esp, 8

; 1101 : }

  0003e	8b e5		 mov	 esp, ebp
  00040	5d		 pop	 ebp
  00041	c3		 ret	 0
?appGetTextFileLineCount@@YAPAU_object@@PAU1@0@Z ENDP	; appGetTextFileLineCount
_TEXT	ENDS
; Function compile flags: /Ogtp
; File D:\Metin2 Server Files\mainline\SRC_2014\Metin2Client\UserInterface\PythonApplicationModule.cpp
;	COMDAT ?appCloseTextFile@@YAPAU_object@@PAU1@0@Z
_TEXT	SEGMENT
_iHandle$ = -4						; size = 4
_poSelf$ = 8						; size = 4
_poArgs$ = 12						; size = 4
?appCloseTextFile@@YAPAU_object@@PAU1@0@Z PROC		; appCloseTextFile, COMDAT

; 1082 : {

  00000	55		 push	 ebp
  00001	8b ec		 mov	 ebp, esp
  00003	51		 push	 ecx

; 1083 : 	int iHandle;
; 1084 : 	if (!PyTuple_GetInteger(poArgs, 0, &iHandle))

  00004	8d 45 fc	 lea	 eax, DWORD PTR _iHandle$[ebp]
  00007	50		 push	 eax
  00008	6a 00		 push	 0
  0000a	ff 75 0c	 push	 DWORD PTR _poArgs$[ebp]
  0000d	e8 00 00 00 00	 call	 ?PyTuple_GetInteger@@YA_NPAU_object@@HPAH@Z ; PyTuple_GetInteger
  00012	83 c4 0c	 add	 esp, 12			; 0000000cH
  00015	84 c0		 test	 al, al
  00017	75 0e		 jne	 SHORT $LN2@appCloseTe

; 1085 : 		return Py_BuildException();

  00019	6a 00		 push	 0
  0001b	e8 00 00 00 00	 call	 ?Py_BuildException@@YAPAU_object@@PBDZZ ; Py_BuildException
  00020	83 c4 04	 add	 esp, 4

; 1091 : }

  00023	8b e5		 mov	 esp, ebp
  00025	5d		 pop	 ebp
  00026	c3		 ret	 0
$LN2@appCloseTe:
  00027	56		 push	 esi

; 1086 : 
; 1087 : 	CTextLineLoader * pTextFileLoader = (CTextLineLoader *)iHandle;
; 1088 : 	delete pTextFileLoader;

  00028	8b 75 fc	 mov	 esi, DWORD PTR _iHandle$[ebp]
  0002b	85 f6		 test	 esi, esi
  0002d	74 12		 je	 SHORT $LN7@appCloseTe
  0002f	8b ce		 mov	 ecx, esi
  00031	e8 00 00 00 00	 call	 ??1CMemoryTextFileLoader@@UAE@XZ ; CMemoryTextFileLoader::~CMemoryTextFileLoader
  00036	6a 10		 push	 16			; 00000010H
  00038	56		 push	 esi
  00039	e8 00 00 00 00	 call	 ??3@YAXPAXI@Z		; operator delete
  0003e	83 c4 08	 add	 esp, 8
$LN7@appCloseTe:

; 1089 : 
; 1090 : 	return Py_BuildNone();

  00041	e8 00 00 00 00	 call	 ?Py_BuildNone@@YAPAU_object@@XZ ; Py_BuildNone
  00046	5e		 pop	 esi

; 1091 : }

  00047	8b e5		 mov	 esp, ebp
  00049	5d		 pop	 ebp
  0004a	c3		 ret	 0
?appCloseTextFile@@YAPAU_object@@PAU1@0@Z ENDP		; appCloseTextFile
_TEXT	ENDS
; Function compile flags: /Ogtp
; File D:\Metin2 Server Files\mainline\SRC_2014\Metin2Client\UserInterface\PythonApplicationModule.cpp
;	COMDAT ?appOpenTextFile@@YAPAU_object@@PAU1@0@Z
_TEXT	SEGMENT
$T2 = -352						; size = 4
_pvData$3 = -348					; size = 4
_szFileName$ = -344					; size = 4
_kFile$4 = -340						; size = 324
__$ArrayPad$ = -16					; size = 4
__$EHRec$ = -12						; size = 12
_poSelf$ = 8						; size = 4
_poArgs$ = 12						; size = 4
?appOpenTextFile@@YAPAU_object@@PAU1@0@Z PROC		; appOpenTextFile, COMDAT

; 1071 : {

  00000	55		 push	 ebp
  00001	8b ec		 mov	 ebp, esp
  00003	6a ff		 push	 -1
  00005	68 00 00 00 00	 push	 __ehhandler$?appOpenTextFile@@YAPAU_object@@PAU1@0@Z
  0000a	64 a1 00 00 00
	00		 mov	 eax, DWORD PTR fs:0
  00010	50		 push	 eax
  00011	81 ec 54 01 00
	00		 sub	 esp, 340		; 00000154H
  00017	a1 00 00 00 00	 mov	 eax, DWORD PTR ___security_cookie
  0001c	33 c5		 xor	 eax, ebp
  0001e	89 45 f0	 mov	 DWORD PTR __$ArrayPad$[ebp], eax
  00021	56		 push	 esi
  00022	57		 push	 edi
  00023	50		 push	 eax
  00024	8d 45 f4	 lea	 eax, DWORD PTR __$EHRec$[ebp]
  00027	64 a3 00 00 00
	00		 mov	 DWORD PTR fs:0, eax
  0002d	8b 45 0c	 mov	 eax, DWORD PTR _poArgs$[ebp]

; 1072 : 	char * szFileName;
; 1073 : 	if (!PyTuple_GetString(poArgs, 0, &szFileName))

  00030	8d 8d a8 fe ff
	ff		 lea	 ecx, DWORD PTR _szFileName$[ebp]
  00036	51		 push	 ecx
  00037	6a 00		 push	 0
  00039	50		 push	 eax
  0003a	e8 00 00 00 00	 call	 ?PyTuple_GetString@@YA_NPAU_object@@HPAPAD@Z ; PyTuple_GetString
  0003f	83 c4 0c	 add	 esp, 12			; 0000000cH
  00042	84 c0		 test	 al, al
  00044	75 0f		 jne	 SHORT $LN2@appOpenTex

; 1074 : 		return Py_BuildException();

  00046	6a 00		 push	 0
  00048	e8 00 00 00 00	 call	 ?Py_BuildException@@YAPAU_object@@PBDZZ ; Py_BuildException
  0004d	83 c4 04	 add	 esp, 4
  00050	e9 92 00 00 00	 jmp	 $LN1@appOpenTex
$LN2@appOpenTex:

; 1075 : 
; 1076 : 	CTextLineLoader * pTextLineLoader = new CTextLineLoader(szFileName);

  00055	6a 10		 push	 16			; 00000010H
  00057	e8 00 00 00 00	 call	 ??2@YAPAXI@Z		; operator new
  0005c	8b f8		 mov	 edi, eax
  0005e	83 c4 04	 add	 esp, 4
  00061	89 bd a0 fe ff
	ff		 mov	 DWORD PTR $T2[ebp], edi
  00067	c7 45 fc 00 00
	00 00		 mov	 DWORD PTR __$EHRec$[ebp+8], 0
  0006e	85 ff		 test	 edi, edi
  00070	74 64		 je	 SHORT $LN4@appOpenTex
  00072	8b b5 a8 fe ff
	ff		 mov	 esi, DWORD PTR _szFileName$[ebp]

; 1043 : 		CTextLineLoader(const char * c_szFileName)

  00078	8b cf		 mov	 ecx, edi
  0007a	e8 00 00 00 00	 call	 ??0CMemoryTextFileLoader@@QAE@XZ ; CMemoryTextFileLoader::CMemoryTextFileLoader

; 1044 : 		{
; 1045 : 			const VOID* pvData;
; 1046 : 			CMappedFile kFile;

  0007f	8d 8d ac fe ff
	ff		 lea	 ecx, DWORD PTR _kFile$4[ebp]
  00085	c6 45 fc 01	 mov	 BYTE PTR __$EHRec$[ebp+8], 1
  00089	e8 00 00 00 00	 call	 ??0CMappedFile@@QAE@XZ	; CMappedFile::CMappedFile

; 1047 : 			if (!CEterPackManager::Instance().Get(kFile, c_szFileName, &pvData))

  0008e	8b 0d 00 00 00
	00		 mov	 ecx, DWORD PTR ?ms_singleton@?$CSingleton@VCEterPackManager@@@@0PAVCEterPackManager@@A ; CSingleton<CEterPackManager>::ms_singleton
  00094	8d 85 a4 fe ff
	ff		 lea	 eax, DWORD PTR _pvData$3[ebp]
  0009a	50		 push	 eax
  0009b	56		 push	 esi
  0009c	8d 85 ac fe ff
	ff		 lea	 eax, DWORD PTR _kFile$4[ebp]
  000a2	c6 45 fc 02	 mov	 BYTE PTR __$EHRec$[ebp+8], 2
  000a6	50		 push	 eax
  000a7	e8 00 00 00 00	 call	 ?Get@CEterPackManager@@QAE_NAAVCMappedFile@@PBDPAPBX@Z ; CEterPackManager::Get
  000ac	84 c0		 test	 al, al
  000ae	74 19		 je	 SHORT $LN7@appOpenTex

; 1048 : 				return;
; 1049 : 
; 1050 : 			m_kTextFileLoader.Bind(kFile.Size(), pvData);

  000b0	ff b5 a4 fe ff
	ff		 push	 DWORD PTR _pvData$3[ebp]
  000b6	8d 8d ac fe ff
	ff		 lea	 ecx, DWORD PTR _kFile$4[ebp]
  000bc	e8 00 00 00 00	 call	 ?Size@CMappedFile@@QAEKXZ ; CMappedFile::Size
  000c1	50		 push	 eax
  000c2	8b cf		 mov	 ecx, edi
  000c4	e8 00 00 00 00	 call	 ?Bind@CMemoryTextFileLoader@@QAEXHPBX@Z ; CMemoryTextFileLoader::Bind
$LN7@appOpenTex:

; 1075 : 
; 1076 : 	CTextLineLoader * pTextLineLoader = new CTextLineLoader(szFileName);

  000c9	8d 8d ac fe ff
	ff		 lea	 ecx, DWORD PTR _kFile$4[ebp]
  000cf	e8 00 00 00 00	 call	 ??1CMappedFile@@UAE@XZ	; CMappedFile::~CMappedFile
  000d4	eb 02		 jmp	 SHORT $LN5@appOpenTex
$LN4@appOpenTex:
  000d6	33 ff		 xor	 edi, edi
$LN5@appOpenTex:

; 1077 : 
; 1078 : 	return Py_BuildValue("i", (int)pTextLineLoader);

  000d8	57		 push	 edi
  000d9	68 00 00 00 00	 push	 OFFSET ??_C@_01KBJDNOO@i@
  000de	ff 15 00 00 00
	00		 call	 DWORD PTR __imp__Py_BuildValue
  000e4	83 c4 08	 add	 esp, 8
$LN1@appOpenTex:

; 1079 : }

  000e7	8b 4d f4	 mov	 ecx, DWORD PTR __$EHRec$[ebp]
  000ea	64 89 0d 00 00
	00 00		 mov	 DWORD PTR fs:0, ecx
  000f1	59		 pop	 ecx
  000f2	5f		 pop	 edi
  000f3	5e		 pop	 esi
  000f4	8b 4d f0	 mov	 ecx, DWORD PTR __$ArrayPad$[ebp]
  000f7	33 cd		 xor	 ecx, ebp
  000f9	e8 00 00 00 00	 call	 @__security_check_cookie@4
  000fe	8b e5		 mov	 esp, ebp
  00100	5d		 pop	 ebp
  00101	c3		 ret	 0
_TEXT	ENDS
;	COMDAT text$x
text$x	SEGMENT
__unwindfunclet$?appOpenTextFile@@YAPAU_object@@PAU1@0@Z$0:
  00000	6a 10		 push	 16			; 00000010H
  00002	8b 85 a0 fe ff
	ff		 mov	 eax, DWORD PTR $T2[ebp]
  00008	50		 push	 eax
  00009	e8 00 00 00 00	 call	 ??3@YAXPAXI@Z		; operator delete
  0000e	83 c4 08	 add	 esp, 8
  00011	c3		 ret	 0
__unwindfunclet$?appOpenTextFile@@YAPAU_object@@PAU1@0@Z$1:
  00012	8b 8d a0 fe ff
	ff		 mov	 ecx, DWORD PTR $T2[ebp]
  00018	e9 00 00 00 00	 jmp	 ??1CMemoryTextFileLoader@@UAE@XZ ; CMemoryTextFileLoader::~CMemoryTextFileLoader
__unwindfunclet$?appOpenTextFile@@YAPAU_object@@PAU1@0@Z$2:
  0001d	8d 8d ac fe ff
	ff		 lea	 ecx, DWORD PTR _kFile$4[ebp]
  00023	e9 00 00 00 00	 jmp	 ??1CMappedFile@@UAE@XZ	; CMappedFile::~CMappedFile
  00028	cc		 int	 3
  00029	cc		 int	 3
  0002a	cc		 int	 3
  0002b	cc		 int	 3
  0002c	cc		 int	 3
__ehhandler$?appOpenTextFile@@YAPAU_object@@PAU1@0@Z:
  0002d	90		 npad	 1
  0002e	90		 npad	 1
  0002f	8b 54 24 08	 mov	 edx, DWORD PTR [esp+8]
  00033	8d 42 0c	 lea	 eax, DWORD PTR [edx+12]
  00036	8b 8a a0 fe ff
	ff		 mov	 ecx, DWORD PTR [edx-352]
  0003c	33 c8		 xor	 ecx, eax
  0003e	e8 00 00 00 00	 call	 @__security_check_cookie@4
  00043	8b 4a fc	 mov	 ecx, DWORD PTR [edx-4]
  00046	33 c8		 xor	 ecx, eax
  00048	e8 00 00 00 00	 call	 @__security_check_cookie@4
  0004d	b8 00 00 00 00	 mov	 eax, OFFSET __ehfuncinfo$?appOpenTextFile@@YAPAU_object@@PAU1@0@Z
  00052	e9 00 00 00 00	 jmp	 ___CxxFrameHandler3
text$x	ENDS
?appOpenTextFile@@YAPAU_object@@PAU1@0@Z ENDP		; appOpenTextFile
; Function compile flags: /Ogtp
; File D:\Metin2 Server Files\mainline\SRC_2014\Metin2Client\UserInterface\PythonApplicationModule.cpp
;	COMDAT ?appIsEnableTestServerFlag@@YAPAU_object@@PAU1@0@Z
_TEXT	SEGMENT
_poSelf$ = 8						; size = 4
_poArgs$ = 12						; size = 4
?appIsEnableTestServerFlag@@YAPAU_object@@PAU1@0@Z PROC	; appIsEnableTestServerFlag, COMDAT

; 1037 : 	return Py_BuildValue("i", bTestServerFlag);

  00000	ff 35 00 00 00
	00		 push	 DWORD PTR ?bTestServerFlag@@3HA ; bTestServerFlag
  00006	68 00 00 00 00	 push	 OFFSET ??_C@_01KBJDNOO@i@
  0000b	ff 15 00 00 00
	00		 call	 DWORD PTR __imp__Py_BuildValue
  00011	83 c4 08	 add	 esp, 8

; 1038 : }

  00014	c3		 ret	 0
?appIsEnableTestServerFlag@@YAPAU_object@@PAU1@0@Z ENDP	; appIsEnableTestServerFlag
_TEXT	ENDS
; Function compile flags: /Ogtp
; File D:\Metin2 Server Files\mainline\SRC_2014\Metin2Client\UserInterface\PythonApplicationModule.cpp
;	COMDAT ?appEnableTestServerFlag@@YAPAU_object@@PAU1@0@Z
_TEXT	SEGMENT
_poSelf$ = 8						; size = 4
_poArgs$ = 12						; size = 4
?appEnableTestServerFlag@@YAPAU_object@@PAU1@0@Z PROC	; appEnableTestServerFlag, COMDAT

; 1031 : 	bTestServerFlag = TRUE;

  00000	c7 05 00 00 00
	00 01 00 00 00	 mov	 DWORD PTR ?bTestServerFlag@@3HA, 1 ; bTestServerFlag

; 1032 : 	return Py_BuildNone();

  0000a	e9 00 00 00 00	 jmp	 ?Py_BuildNone@@YAPAU_object@@XZ ; Py_BuildNone
?appEnableTestServerFlag@@YAPAU_object@@PAU1@0@Z ENDP	; appEnableTestServerFlag
_TEXT	ENDS
; Function compile flags: /Ogtp
; File D:\Metin2 Server Files\mainline\SRC_2014\Metin2Client\UserInterface\PythonApplicationModule.cpp
;	COMDAT ?appIsVisibleNotice@@YAPAU_object@@PAU1@0@Z
_TEXT	SEGMENT
_poSelf$ = 8						; size = 4
_poArgs$ = 12						; size = 4
?appIsVisibleNotice@@YAPAU_object@@PAU1@0@Z PROC	; appIsVisibleNotice, COMDAT

; 1026 : 	return Py_BuildValue("i", bVisibleNotice);

  00000	ff 35 00 00 00
	00		 push	 DWORD PTR ?bVisibleNotice@@3HA ; bVisibleNotice
  00006	68 00 00 00 00	 push	 OFFSET ??_C@_01KBJDNOO@i@
  0000b	ff 15 00 00 00
	00		 call	 DWORD PTR __imp__Py_BuildValue
  00011	83 c4 08	 add	 esp, 8

; 1027 : }

  00014	c3		 ret	 0
?appIsVisibleNotice@@YAPAU_object@@PAU1@0@Z ENDP	; appIsVisibleNotice
_TEXT	ENDS
; Function compile flags: /Ogtp
; File D:\Metin2 Server Files\mainline\SRC_2014\Metin2Client\UserInterface\PythonApplicationModule.cpp
;	COMDAT ?appSetVisibleNotice@@YAPAU_object@@PAU1@0@Z
_TEXT	SEGMENT
_iFlag$ = -4						; size = 4
_poSelf$ = 8						; size = 4
_poArgs$ = 12						; size = 4
?appSetVisibleNotice@@YAPAU_object@@PAU1@0@Z PROC	; appSetVisibleNotice, COMDAT

; 1016 : {

  00000	55		 push	 ebp
  00001	8b ec		 mov	 ebp, esp
  00003	51		 push	 ecx

; 1017 : 	int iFlag;
; 1018 : 	if (!PyTuple_GetInteger(poArgs, 0, &iFlag))

  00004	8d 45 fc	 lea	 eax, DWORD PTR _iFlag$[ebp]
  00007	50		 push	 eax
  00008	6a 00		 push	 0
  0000a	ff 75 0c	 push	 DWORD PTR _poArgs$[ebp]
  0000d	e8 00 00 00 00	 call	 ?PyTuple_GetInteger@@YA_NPAU_object@@HPAH@Z ; PyTuple_GetInteger
  00012	83 c4 0c	 add	 esp, 12			; 0000000cH
  00015	84 c0		 test	 al, al
  00017	75 0e		 jne	 SHORT $LN2@appSetVisi

; 1019 : 		return Py_BuildException();

  00019	6a 00		 push	 0
  0001b	e8 00 00 00 00	 call	 ?Py_BuildException@@YAPAU_object@@PBDZZ ; Py_BuildException
  00020	83 c4 04	 add	 esp, 4

; 1022 : }

  00023	8b e5		 mov	 esp, ebp
  00025	5d		 pop	 ebp
  00026	c3		 ret	 0
$LN2@appSetVisi:

; 1020 : 	bVisibleNotice = iFlag;

  00027	8b 45 fc	 mov	 eax, DWORD PTR _iFlag$[ebp]
  0002a	a3 00 00 00 00	 mov	 DWORD PTR ?bVisibleNotice@@3HA, eax ; bVisibleNotice

; 1021 : 	return Py_BuildNone();

  0002f	e8 00 00 00 00	 call	 ?Py_BuildNone@@YAPAU_object@@XZ ; Py_BuildNone

; 1022 : }

  00034	8b e5		 mov	 esp, ebp
  00036	5d		 pop	 ebp
  00037	c3		 ret	 0
?appSetVisibleNotice@@YAPAU_object@@PAU1@0@Z ENDP	; appSetVisibleNotice
_TEXT	ENDS
; Function compile flags: /Ogtp
; File D:\Metin2 Server Files\mainline\SRC_2014\Metin2Client\UserInterface\PythonApplicationModule.cpp
;	COMDAT ?apptestSetSpecularColor@@YAPAU_object@@PAU1@0@Z
_TEXT	SEGMENT
_fb$ = -12						; size = 4
_fg$ = -8						; size = 4
_fr$ = -4						; size = 4
_poSelf$ = 8						; size = 4
_poArgs$ = 12						; size = 4
?apptestSetSpecularColor@@YAPAU_object@@PAU1@0@Z PROC	; apptestSetSpecularColor, COMDAT

; 1001 : {

  00000	55		 push	 ebp
  00001	8b ec		 mov	 ebp, esp
  00003	83 ec 0c	 sub	 esp, 12			; 0000000cH

; 1002 : 	float fr;
; 1003 : 	if (!PyTuple_GetFloat(poArgs, 0, &fr))

  00006	8d 45 fc	 lea	 eax, DWORD PTR _fr$[ebp]
  00009	56		 push	 esi
  0000a	8b 75 0c	 mov	 esi, DWORD PTR _poArgs$[ebp]
  0000d	50		 push	 eax
  0000e	6a 00		 push	 0
  00010	56		 push	 esi
  00011	e8 00 00 00 00	 call	 ?PyTuple_GetFloat@@YA_NPAU_object@@HPAM@Z ; PyTuple_GetFloat
  00016	83 c4 0c	 add	 esp, 12			; 0000000cH
  00019	84 c0		 test	 al, al
  0001b	75 0f		 jne	 SHORT $LN2@apptestSet
$LN19@apptestSet:

; 1013 : }

  0001d	6a 00		 push	 0
  0001f	e8 00 00 00 00	 call	 ?Py_BuildException@@YAPAU_object@@PBDZZ ; Py_BuildException
  00024	83 c4 04	 add	 esp, 4
  00027	5e		 pop	 esi
  00028	8b e5		 mov	 esp, ebp
  0002a	5d		 pop	 ebp
  0002b	c3		 ret	 0
$LN2@apptestSet:

; 1004 : 		return Py_BuildException();
; 1005 : 	float fg;
; 1006 : 	if (!PyTuple_GetFloat(poArgs, 1, &fg))

  0002c	8d 45 f8	 lea	 eax, DWORD PTR _fg$[ebp]
  0002f	50		 push	 eax
  00030	6a 01		 push	 1
  00032	56		 push	 esi
  00033	e8 00 00 00 00	 call	 ?PyTuple_GetFloat@@YA_NPAU_object@@HPAM@Z ; PyTuple_GetFloat
  00038	83 c4 0c	 add	 esp, 12			; 0000000cH
  0003b	84 c0		 test	 al, al
  0003d	74 de		 je	 SHORT $LN19@apptestSet

; 1007 : 		return Py_BuildException();
; 1008 : 	float fb;
; 1009 : 	if (!PyTuple_GetFloat(poArgs, 2, &fb))

  0003f	8d 45 f4	 lea	 eax, DWORD PTR _fb$[ebp]
  00042	50		 push	 eax
  00043	6a 02		 push	 2
  00045	56		 push	 esi
  00046	e8 00 00 00 00	 call	 ?PyTuple_GetFloat@@YA_NPAU_object@@HPAM@Z ; PyTuple_GetFloat
  0004b	83 c4 0c	 add	 esp, 12			; 0000000cH
  0004e	84 c0		 test	 al, al
  00050	74 cb		 je	 SHORT $LN19@apptestSet

; 1010 : 		return Py_BuildException();
; 1011 : 	g_fSpecularColor = D3DXCOLOR(fr, fg, fb, 1.0f);

  00052	f3 0f 10 45 fc	 movss	 xmm0, DWORD PTR _fr$[ebp]
  00057	f3 0f 11 05 00
	00 00 00	 movss	 DWORD PTR ?g_fSpecularColor@@3UD3DXCOLOR@@A, xmm0
  0005f	f3 0f 10 45 f8	 movss	 xmm0, DWORD PTR _fg$[ebp]
  00064	f3 0f 11 05 04
	00 00 00	 movss	 DWORD PTR ?g_fSpecularColor@@3UD3DXCOLOR@@A+4, xmm0
  0006c	f3 0f 10 45 f4	 movss	 xmm0, DWORD PTR _fb$[ebp]
  00071	f3 0f 11 05 08
	00 00 00	 movss	 DWORD PTR ?g_fSpecularColor@@3UD3DXCOLOR@@A+8, xmm0
  00079	c7 05 0c 00 00
	00 00 00 80 3f	 mov	 DWORD PTR ?g_fSpecularColor@@3UD3DXCOLOR@@A+12, 1065353216 ; 3f800000H

; 1012 : 	return Py_BuildNone();

  00083	e8 00 00 00 00	 call	 ?Py_BuildNone@@YAPAU_object@@XZ ; Py_BuildNone
  00088	5e		 pop	 esi

; 1013 : }

  00089	8b e5		 mov	 esp, ebp
  0008b	5d		 pop	 ebp
  0008c	c3		 ret	 0
?apptestSetSpecularColor@@YAPAU_object@@PAU1@0@Z ENDP	; apptestSetSpecularColor
_TEXT	ENDS
; Function compile flags: /Ogtp
; File D:\Metin2 Server Files\mainline\SRC_2014\Metin2Client\UserInterface\PythonApplicationModule.cpp
;	COMDAT ?apptestResetAccumulationTime@@YAPAU_object@@PAU1@0@Z
_TEXT	SEGMENT
_poSelf$ = 8						; size = 4
_poArgs$ = 12						; size = 4
?apptestResetAccumulationTime@@YAPAU_object@@PAU1@0@Z PROC ; apptestResetAccumulationTime, COMDAT

; 996  : 	g_iAccumulationTime = 0;

  00000	c7 05 00 00 00
	00 00 00 00 00	 mov	 DWORD PTR ?g_iAccumulationTime@@3HA, 0 ; g_iAccumulationTime

; 997  : 	return Py_BuildNone();

  0000a	e9 00 00 00 00	 jmp	 ?Py_BuildNone@@YAPAU_object@@XZ ; Py_BuildNone
?apptestResetAccumulationTime@@YAPAU_object@@PAU1@0@Z ENDP ; apptestResetAccumulationTime
_TEXT	ENDS
; Function compile flags: /Ogtp
; File D:\Metin2 Server Files\mainline\SRC_2014\Metin2Client\UserInterface\PythonApplicationModule.cpp
;	COMDAT ?apptestGetAccumulationTime@@YAPAU_object@@PAU1@0@Z
_TEXT	SEGMENT
_poSelf$ = 8						; size = 4
_poArgs$ = 12						; size = 4
?apptestGetAccumulationTime@@YAPAU_object@@PAU1@0@Z PROC ; apptestGetAccumulationTime, COMDAT

; 991  : 	return Py_BuildValue("i", g_iAccumulationTime);

  00000	ff 35 00 00 00
	00		 push	 DWORD PTR ?g_iAccumulationTime@@3HA ; g_iAccumulationTime
  00006	68 00 00 00 00	 push	 OFFSET ??_C@_01KBJDNOO@i@
  0000b	ff 15 00 00 00
	00		 call	 DWORD PTR __imp__Py_BuildValue
  00011	83 c4 08	 add	 esp, 8

; 992  : }

  00014	c3		 ret	 0
?apptestGetAccumulationTime@@YAPAU_object@@PAU1@0@Z ENDP ; apptestGetAccumulationTime
_TEXT	ENDS
; Function compile flags: /Ogtp
; File D:\Metin2 Server Files\mainline\SRC_2014\Metin2Client\UserInterface\PythonApplicationModule.cpp
;	COMDAT ?appSetSightRange@@YAPAU_object@@PAU1@0@Z
_TEXT	SEGMENT
_iRange$ = -4						; size = 4
_poSelf$ = 8						; size = 4
_poArgs$ = 12						; size = 4
?appSetSightRange@@YAPAU_object@@PAU1@0@Z PROC		; appSetSightRange, COMDAT

; 978  : {

  00000	55		 push	 ebp
  00001	8b ec		 mov	 ebp, esp
  00003	51		 push	 ecx

; 979  : 	int iRange;
; 980  : 	if (!PyTuple_GetInteger(poArgs, 0, &iRange))

  00004	8d 45 fc	 lea	 eax, DWORD PTR _iRange$[ebp]
  00007	50		 push	 eax
  00008	6a 00		 push	 0
  0000a	ff 75 0c	 push	 DWORD PTR _poArgs$[ebp]
  0000d	e8 00 00 00 00	 call	 ?PyTuple_GetInteger@@YA_NPAU_object@@HPAH@Z ; PyTuple_GetInteger
  00012	83 c4 0c	 add	 esp, 12			; 0000000cH
  00015	84 c0		 test	 al, al
  00017	75 0e		 jne	 SHORT $LN2@appSetSigh

; 981  : 		return Py_BuildException();

  00019	6a 00		 push	 0
  0001b	e8 00 00 00 00	 call	 ?Py_BuildException@@YAPAU_object@@PBDZZ ; Py_BuildException
  00020	83 c4 04	 add	 esp, 4

; 985  : }

  00023	8b e5		 mov	 esp, ebp
  00025	5d		 pop	 ebp
  00026	c3		 ret	 0
$LN2@appSetSigh:

; 982  : 
; 983  : 	CPythonApplication::Instance().SetForceSightRange(iRange);

  00027	ff 75 fc	 push	 DWORD PTR _iRange$[ebp]
  0002a	8b 0d 00 00 00
	00		 mov	 ecx, DWORD PTR ?ms_pInstance@CPythonApplication@@1PAV1@A ; CPythonApplication::ms_pInstance
  00030	e8 00 00 00 00	 call	 ?SetForceSightRange@CPythonApplication@@QAEXH@Z ; CPythonApplication::SetForceSightRange

; 984  : 	return Py_BuildNone();

  00035	e8 00 00 00 00	 call	 ?Py_BuildNone@@YAPAU_object@@XZ ; Py_BuildNone

; 985  : }

  0003a	8b e5		 mov	 esp, ebp
  0003c	5d		 pop	 ebp
  0003d	c3		 ret	 0
?appSetSightRange@@YAPAU_object@@PAU1@0@Z ENDP		; appSetSightRange
_TEXT	ENDS
; Function compile flags: /Ogtp
; File D:\Metin2 Server Files\mainline\SRC_2014\Metin2Client\UserInterface\PythonApplicationModule.cpp
;	COMDAT ?appSetDefaultCamera@@YAPAU_object@@PAU1@0@Z
_TEXT	SEGMENT
_poSelf$ = 8						; size = 4
_poArgs$ = 12						; size = 4
?appSetDefaultCamera@@YAPAU_object@@PAU1@0@Z PROC	; appSetDefaultCamera, COMDAT

; 973  : 	CPythonApplication::Instance().SetDefaultCamera();

  00000	8b 0d 00 00 00
	00		 mov	 ecx, DWORD PTR ?ms_pInstance@CPythonApplication@@1PAV1@A ; CPythonApplication::ms_pInstance
  00006	83 c1 20	 add	 ecx, 32			; 00000020H
  00009	8b 01		 mov	 eax, DWORD PTR [ecx]
  0000b	ff 50 24	 call	 DWORD PTR [eax+36]

; 974  : 	return Py_BuildNone();

  0000e	e9 00 00 00 00	 jmp	 ?Py_BuildNone@@YAPAU_object@@XZ ; Py_BuildNone
?appSetDefaultCamera@@YAPAU_object@@PAU1@0@Z ENDP	; appSetDefaultCamera
_TEXT	ENDS
; Function compile flags: /Ogtp
; File D:\Metin2 Server Files\mainline\SRC_2014\Metin2Client\UserInterface\PythonApplicationModule.cpp
;	COMDAT ?appLoadCameraSetting@@YAPAU_object@@PAU1@0@Z
_TEXT	SEGMENT
_szFileName$ = -4					; size = 4
_poSelf$ = 8						; size = 4
_poArgs$ = 12						; size = 4
?appLoadCameraSetting@@YAPAU_object@@PAU1@0@Z PROC	; appLoadCameraSetting, COMDAT

; 962  : {

  00000	55		 push	 ebp
  00001	8b ec		 mov	 ebp, esp
  00003	51		 push	 ecx

; 963  : 	char * szFileName;
; 964  : 	if (!PyTuple_GetString(poArgs, 0, &szFileName))

  00004	8d 45 fc	 lea	 eax, DWORD PTR _szFileName$[ebp]
  00007	50		 push	 eax
  00008	6a 00		 push	 0
  0000a	ff 75 0c	 push	 DWORD PTR _poArgs$[ebp]
  0000d	e8 00 00 00 00	 call	 ?PyTuple_GetString@@YA_NPAU_object@@HPAPAD@Z ; PyTuple_GetString
  00012	83 c4 0c	 add	 esp, 12			; 0000000cH
  00015	84 c0		 test	 al, al
  00017	75 0e		 jne	 SHORT $LN2@appLoadCam

; 965  : 		return Py_BuildException();

  00019	6a 00		 push	 0
  0001b	e8 00 00 00 00	 call	 ?Py_BuildException@@YAPAU_object@@PBDZZ ; Py_BuildException
  00020	83 c4 04	 add	 esp, 4

; 969  : }

  00023	8b e5		 mov	 esp, ebp
  00025	5d		 pop	 ebp
  00026	c3		 ret	 0
$LN2@appLoadCam:

; 966  : 
; 967  : 	bool bResult = CPythonApplication::Instance().LoadCameraSetting(szFileName);

  00027	ff 75 fc	 push	 DWORD PTR _szFileName$[ebp]
  0002a	8b 0d 00 00 00
	00		 mov	 ecx, DWORD PTR ?ms_pInstance@CPythonApplication@@1PAV1@A ; CPythonApplication::ms_pInstance
  00030	e8 00 00 00 00	 call	 ?LoadCameraSetting@CPythonApplication@@QAE_NPBD@Z ; CPythonApplication::LoadCameraSetting

; 968  : 	return Py_BuildValue("i", bResult);

  00035	0f b6 c0	 movzx	 eax, al
  00038	50		 push	 eax
  00039	68 00 00 00 00	 push	 OFFSET ??_C@_01KBJDNOO@i@
  0003e	ff 15 00 00 00
	00		 call	 DWORD PTR __imp__Py_BuildValue
  00044	83 c4 08	 add	 esp, 8

; 969  : }

  00047	8b e5		 mov	 esp, ebp
  00049	5d		 pop	 ebp
  0004a	c3		 ret	 0
?appLoadCameraSetting@@YAPAU_object@@PAU1@0@Z ENDP	; appLoadCameraSetting
_TEXT	ENDS
; Function compile flags: /Ogtp
; File D:\Metin2 Server Files\mainline\SRC_2014\Metin2Client\UserInterface\PythonApplicationModule.cpp
;	COMDAT ?appSaveCameraSetting@@YAPAU_object@@PAU1@0@Z
_TEXT	SEGMENT
_szFileName$ = -4					; size = 4
_poSelf$ = 8						; size = 4
_poArgs$ = 12						; size = 4
?appSaveCameraSetting@@YAPAU_object@@PAU1@0@Z PROC	; appSaveCameraSetting, COMDAT

; 952  : {

  00000	55		 push	 ebp
  00001	8b ec		 mov	 ebp, esp
  00003	51		 push	 ecx

; 953  : 	char * szFileName;
; 954  : 	if (!PyTuple_GetString(poArgs, 0, &szFileName))

  00004	8d 45 fc	 lea	 eax, DWORD PTR _szFileName$[ebp]
  00007	50		 push	 eax
  00008	6a 00		 push	 0
  0000a	ff 75 0c	 push	 DWORD PTR _poArgs$[ebp]
  0000d	e8 00 00 00 00	 call	 ?PyTuple_GetString@@YA_NPAU_object@@HPAPAD@Z ; PyTuple_GetString
  00012	83 c4 0c	 add	 esp, 12			; 0000000cH
  00015	84 c0		 test	 al, al
  00017	75 0e		 jne	 SHORT $LN2@appSaveCam

; 955  : 		return Py_BuildException();

  00019	6a 00		 push	 0
  0001b	e8 00 00 00 00	 call	 ?Py_BuildException@@YAPAU_object@@PBDZZ ; Py_BuildException
  00020	83 c4 04	 add	 esp, 4

; 959  : }

  00023	8b e5		 mov	 esp, ebp
  00025	5d		 pop	 ebp
  00026	c3		 ret	 0
$LN2@appSaveCam:

; 956  : 
; 957  : 	CPythonApplication::Instance().SaveCameraSetting(szFileName);

  00027	ff 75 fc	 push	 DWORD PTR _szFileName$[ebp]
  0002a	8b 0d 00 00 00
	00		 mov	 ecx, DWORD PTR ?ms_pInstance@CPythonApplication@@1PAV1@A ; CPythonApplication::ms_pInstance
  00030	e8 00 00 00 00	 call	 ?SaveCameraSetting@CPythonApplication@@QAEXPBD@Z ; CPythonApplication::SaveCameraSetting

; 958  : 	return Py_BuildNone();

  00035	e8 00 00 00 00	 call	 ?Py_BuildNone@@YAPAU_object@@XZ ; Py_BuildNone

; 959  : }

  0003a	8b e5		 mov	 esp, ebp
  0003c	5d		 pop	 ebp
  0003d	c3		 ret	 0
?appSaveCameraSetting@@YAPAU_object@@PAU1@0@Z ENDP	; appSaveCameraSetting
_TEXT	ENDS
; Function compile flags: /Ogtp
; File D:\Metin2 Server Files\mainline\SRC_2014\Metin2Client\UserInterface\PythonApplicationModule.cpp
;	COMDAT ?appSetCameraSetting@@YAPAU_object@@PAU1@0@Z
_TEXT	SEGMENT
_iPitch$ = -64						; size = 4
_iRotation$ = -60					; size = 4
_iZoom$ = -56						; size = 4
_iz$ = -52						; size = 4
_iy$ = -48						; size = 4
_ix$ = -44						; size = 4
_CameraSetting$ = -40					; size = 36
__$ArrayPad$ = -4					; size = 4
_poSelf$ = 8						; size = 4
_poArgs$ = 12						; size = 4
?appSetCameraSetting@@YAPAU_object@@PAU1@0@Z PROC	; appSetCameraSetting, COMDAT

; 918  : {

  00000	55		 push	 ebp
  00001	8b ec		 mov	 ebp, esp
  00003	83 ec 40	 sub	 esp, 64			; 00000040H
  00006	a1 00 00 00 00	 mov	 eax, DWORD PTR ___security_cookie
  0000b	33 c5		 xor	 eax, ebp
  0000d	89 45 fc	 mov	 DWORD PTR __$ArrayPad$[ebp], eax
  00010	56		 push	 esi
  00011	8b 75 0c	 mov	 esi, DWORD PTR _poArgs$[ebp]

; 919  : 	int ix;
; 920  : 	if (!PyTuple_GetInteger(poArgs, 0, &ix))

  00014	8d 45 d4	 lea	 eax, DWORD PTR _ix$[ebp]
  00017	50		 push	 eax
  00018	6a 00		 push	 0
  0001a	56		 push	 esi
  0001b	e8 00 00 00 00	 call	 ?PyTuple_GetInteger@@YA_NPAU_object@@HPAH@Z ; PyTuple_GetInteger
  00020	83 c4 0c	 add	 esp, 12			; 0000000cH
  00023	84 c0		 test	 al, al
  00025	75 19		 jne	 SHORT $LN2@appSetCame
$LN15@appSetCame:

; 949  : }

  00027	6a 00		 push	 0
  00029	e8 00 00 00 00	 call	 ?Py_BuildException@@YAPAU_object@@PBDZZ ; Py_BuildException
  0002e	83 c4 04	 add	 esp, 4
  00031	5e		 pop	 esi
  00032	8b 4d fc	 mov	 ecx, DWORD PTR __$ArrayPad$[ebp]
  00035	33 cd		 xor	 ecx, ebp
  00037	e8 00 00 00 00	 call	 @__security_check_cookie@4
  0003c	8b e5		 mov	 esp, ebp
  0003e	5d		 pop	 ebp
  0003f	c3		 ret	 0
$LN2@appSetCame:

; 921  : 		return Py_BuildException();
; 922  : 	int iy;
; 923  : 	if (!PyTuple_GetInteger(poArgs, 1, &iy))

  00040	8d 45 d0	 lea	 eax, DWORD PTR _iy$[ebp]
  00043	50		 push	 eax
  00044	6a 01		 push	 1
  00046	56		 push	 esi
  00047	e8 00 00 00 00	 call	 ?PyTuple_GetInteger@@YA_NPAU_object@@HPAH@Z ; PyTuple_GetInteger
  0004c	83 c4 0c	 add	 esp, 12			; 0000000cH
  0004f	84 c0		 test	 al, al
  00051	74 d4		 je	 SHORT $LN15@appSetCame

; 924  : 		return Py_BuildException();
; 925  : 	int iz;
; 926  : 	if (!PyTuple_GetInteger(poArgs, 2, &iz))

  00053	8d 45 cc	 lea	 eax, DWORD PTR _iz$[ebp]
  00056	50		 push	 eax
  00057	6a 02		 push	 2
  00059	56		 push	 esi
  0005a	e8 00 00 00 00	 call	 ?PyTuple_GetInteger@@YA_NPAU_object@@HPAH@Z ; PyTuple_GetInteger
  0005f	83 c4 0c	 add	 esp, 12			; 0000000cH
  00062	84 c0		 test	 al, al
  00064	74 c1		 je	 SHORT $LN15@appSetCame

; 927  : 		return Py_BuildException();
; 928  : 
; 929  : 	int iZoom;
; 930  : 	if (!PyTuple_GetInteger(poArgs, 3, &iZoom))

  00066	8d 45 c8	 lea	 eax, DWORD PTR _iZoom$[ebp]
  00069	50		 push	 eax
  0006a	6a 03		 push	 3
  0006c	56		 push	 esi
  0006d	e8 00 00 00 00	 call	 ?PyTuple_GetInteger@@YA_NPAU_object@@HPAH@Z ; PyTuple_GetInteger
  00072	83 c4 0c	 add	 esp, 12			; 0000000cH
  00075	84 c0		 test	 al, al
  00077	74 ae		 je	 SHORT $LN15@appSetCame

; 931  : 		return Py_BuildException();
; 932  : 	int iRotation;
; 933  : 	if (!PyTuple_GetInteger(poArgs, 4, &iRotation))

  00079	8d 45 c4	 lea	 eax, DWORD PTR _iRotation$[ebp]
  0007c	50		 push	 eax
  0007d	6a 04		 push	 4
  0007f	56		 push	 esi
  00080	e8 00 00 00 00	 call	 ?PyTuple_GetInteger@@YA_NPAU_object@@HPAH@Z ; PyTuple_GetInteger
  00085	83 c4 0c	 add	 esp, 12			; 0000000cH
  00088	84 c0		 test	 al, al
  0008a	74 9b		 je	 SHORT $LN15@appSetCame

; 934  : 		return Py_BuildException();
; 935  : 	int iPitch;
; 936  : 	if (!PyTuple_GetInteger(poArgs, 5, &iPitch))

  0008c	8d 45 c0	 lea	 eax, DWORD PTR _iPitch$[ebp]
  0008f	50		 push	 eax
  00090	6a 05		 push	 5
  00092	56		 push	 esi
  00093	e8 00 00 00 00	 call	 ?PyTuple_GetInteger@@YA_NPAU_object@@HPAH@Z ; PyTuple_GetInteger
  00098	83 c4 0c	 add	 esp, 12			; 0000000cH
  0009b	84 c0		 test	 al, al
  0009d	74 88		 je	 SHORT $LN15@appSetCame

; 937  : 		return Py_BuildException();
; 938  : 
; 939  : 	CPythonApplication::SCameraSetting CameraSetting;
; 940  : 	ZeroMemory(&CameraSetting, sizeof(CameraSetting));
; 941  : 	CameraSetting.v3CenterPosition.x = float(ix);
; 942  : 	CameraSetting.v3CenterPosition.y = float(iy);
; 943  : 	CameraSetting.v3CenterPosition.z = float(iz);
; 944  : 	CameraSetting.fZoom = float(iZoom);
; 945  : 	CameraSetting.fRotation = float(iRotation);
; 946  : 	CameraSetting.fPitch = float(iPitch);
; 947  : 	CPythonApplication::Instance().SetEventCamera(CameraSetting);

  0009f	0f 57 c0	 xorps	 xmm0, xmm0
  000a2	8b 0d 00 00 00
	00		 mov	 ecx, DWORD PTR ?ms_pInstance@CPythonApplication@@1PAV1@A ; CPythonApplication::ms_pInstance
  000a8	66 0f 13 45 e4	 movlpd	 QWORD PTR _CameraSetting$[ebp+12], xmm0
  000ad	8d 55 d8	 lea	 edx, DWORD PTR _CameraSetting$[ebp]
  000b0	66 0f 6e 45 d4	 movd	 xmm0, DWORD PTR _ix$[ebp]
  000b5	83 c1 20	 add	 ecx, 32			; 00000020H
  000b8	0f 5b c0	 cvtdq2ps xmm0, xmm0
  000bb	c7 45 ec 00 00
	00 00		 mov	 DWORD PTR _CameraSetting$[ebp+20], 0
  000c2	52		 push	 edx
  000c3	f3 0f 11 45 d8	 movss	 DWORD PTR _CameraSetting$[ebp], xmm0
  000c8	66 0f 6e 45 d0	 movd	 xmm0, DWORD PTR _iy$[ebp]
  000cd	0f 5b c0	 cvtdq2ps xmm0, xmm0
  000d0	f3 0f 11 45 dc	 movss	 DWORD PTR _CameraSetting$[ebp+4], xmm0
  000d5	66 0f 6e 45 cc	 movd	 xmm0, DWORD PTR _iz$[ebp]
  000da	0f 5b c0	 cvtdq2ps xmm0, xmm0
  000dd	f3 0f 11 45 e0	 movss	 DWORD PTR _CameraSetting$[ebp+8], xmm0
  000e2	66 0f 6e 45 c8	 movd	 xmm0, DWORD PTR _iZoom$[ebp]
  000e7	0f 5b c0	 cvtdq2ps xmm0, xmm0
  000ea	f3 0f 11 45 f8	 movss	 DWORD PTR _CameraSetting$[ebp+32], xmm0
  000ef	66 0f 6e 45 c4	 movd	 xmm0, DWORD PTR _iRotation$[ebp]
  000f4	0f 5b c0	 cvtdq2ps xmm0, xmm0
  000f7	f3 0f 11 45 f0	 movss	 DWORD PTR _CameraSetting$[ebp+24], xmm0
  000fc	66 0f 6e 45 c0	 movd	 xmm0, DWORD PTR _iPitch$[ebp]
  00101	0f 5b c0	 cvtdq2ps xmm0, xmm0
  00104	f3 0f 11 45 f4	 movss	 DWORD PTR _CameraSetting$[ebp+28], xmm0
  00109	8b 01		 mov	 eax, DWORD PTR [ecx]
  0010b	ff 50 1c	 call	 DWORD PTR [eax+28]

; 948  : 	return Py_BuildNone();

  0010e	e8 00 00 00 00	 call	 ?Py_BuildNone@@YAPAU_object@@XZ ; Py_BuildNone

; 949  : }

  00113	8b 4d fc	 mov	 ecx, DWORD PTR __$ArrayPad$[ebp]
  00116	33 cd		 xor	 ecx, ebp
  00118	5e		 pop	 esi
  00119	e8 00 00 00 00	 call	 @__security_check_cookie@4
  0011e	8b e5		 mov	 esp, ebp
  00120	5d		 pop	 ebp
  00121	c3		 ret	 0
?appSetCameraSetting@@YAPAU_object@@PAU1@0@Z ENDP	; appSetCameraSetting
_TEXT	ENDS
; Function compile flags: /Ogtp
; File D:\Metin2 Server Files\mainline\SRC_2014\Metin2Client\UserInterface\PythonApplicationModule.cpp
;	COMDAT ?appIsFileExist@@YAPAU_object@@PAU1@0@Z
_TEXT	SEGMENT
_szFileName$ = -4					; size = 4
_poSelf$ = 8						; size = 4
_poArgs$ = 12						; size = 4
?appIsFileExist@@YAPAU_object@@PAU1@0@Z PROC		; appIsFileExist, COMDAT

; 909  : {

  00000	55		 push	 ebp
  00001	8b ec		 mov	 ebp, esp
  00003	51		 push	 ecx

; 910  : 	char * szFileName;
; 911  : 	if (!PyTuple_GetString(poArgs, 0, &szFileName))

  00004	8d 45 fc	 lea	 eax, DWORD PTR _szFileName$[ebp]
  00007	50		 push	 eax
  00008	6a 00		 push	 0
  0000a	ff 75 0c	 push	 DWORD PTR _poArgs$[ebp]
  0000d	e8 00 00 00 00	 call	 ?PyTuple_GetString@@YA_NPAU_object@@HPAPAD@Z ; PyTuple_GetString
  00012	83 c4 0c	 add	 esp, 12			; 0000000cH
  00015	6a 00		 push	 0
  00017	84 c0		 test	 al, al
  00019	75 0c		 jne	 SHORT $LN2@appIsFileE

; 912  : 		return Py_BuildException();

  0001b	e8 00 00 00 00	 call	 ?Py_BuildException@@YAPAU_object@@PBDZZ ; Py_BuildException
  00020	83 c4 04	 add	 esp, 4

; 915  : }

  00023	8b e5		 mov	 esp, ebp
  00025	5d		 pop	 ebp
  00026	c3		 ret	 0
$LN2@appIsFileE:

; 913  : 
; 914  : 	return Py_BuildValue("i", -1 != _access(szFileName, 0));

  00027	ff 75 fc	 push	 DWORD PTR _szFileName$[ebp]
  0002a	e8 00 00 00 00	 call	 __access
  0002f	33 c9		 xor	 ecx, ecx
  00031	83 f8 ff	 cmp	 eax, -1
  00034	0f 95 c1	 setne	 cl
  00037	51		 push	 ecx
  00038	68 00 00 00 00	 push	 OFFSET ??_C@_01KBJDNOO@i@
  0003d	ff 15 00 00 00
	00		 call	 DWORD PTR __imp__Py_BuildValue
  00043	83 c4 10	 add	 esp, 16			; 00000010H

; 915  : }

  00046	8b e5		 mov	 esp, ebp
  00048	5d		 pop	 ebp
  00049	c3		 ret	 0
?appIsFileExist@@YAPAU_object@@PAU1@0@Z ENDP		; appIsFileExist
_TEXT	ENDS
; Function compile flags: /Ogtp
; File D:\Metin2 Server Files\mainline\SRC_2014\Metin2Client\UserInterface\PythonApplicationModule.cpp
;	COMDAT ?appSetCameraSpeed@@YAPAU_object@@PAU1@0@Z
_TEXT	SEGMENT
_iPercentage$ = -4					; size = 4
_poSelf$ = 8						; size = 4
_poArgs$ = 12						; size = 4
?appSetCameraSpeed@@YAPAU_object@@PAU1@0@Z PROC		; appSetCameraSpeed, COMDAT

; 895  : {

  00000	55		 push	 ebp
  00001	8b ec		 mov	 ebp, esp
  00003	51		 push	 ecx

; 896  : 	int iPercentage;
; 897  : 	if (!PyTuple_GetInteger(poArgs, 0, &iPercentage))

  00004	8d 45 fc	 lea	 eax, DWORD PTR _iPercentage$[ebp]
  00007	50		 push	 eax
  00008	6a 00		 push	 0
  0000a	ff 75 0c	 push	 DWORD PTR _poArgs$[ebp]
  0000d	e8 00 00 00 00	 call	 ?PyTuple_GetInteger@@YA_NPAU_object@@HPAH@Z ; PyTuple_GetInteger
  00012	83 c4 0c	 add	 esp, 12			; 0000000cH
  00015	84 c0		 test	 al, al
  00017	75 0e		 jne	 SHORT $LN2@appSetCame

; 898  : 		return Py_BuildException();

  00019	6a 00		 push	 0
  0001b	e8 00 00 00 00	 call	 ?Py_BuildException@@YAPAU_object@@PBDZZ ; Py_BuildException
  00020	83 c4 04	 add	 esp, 4

; 906  : }

  00023	8b e5		 mov	 esp, ebp
  00025	5d		 pop	 ebp
  00026	c3		 ret	 0
$LN2@appSetCame:

; 899  : 
; 900  : 	CPythonApplication::Instance().SetCameraSpeed(iPercentage);

  00027	ff 75 fc	 push	 DWORD PTR _iPercentage$[ebp]
  0002a	8b 0d 00 00 00
	00		 mov	 ecx, DWORD PTR ?ms_pInstance@CPythonApplication@@1PAV1@A ; CPythonApplication::ms_pInstance
  00030	e8 00 00 00 00	 call	 ?SetCameraSpeed@CPythonApplication@@QAEXH@Z ; CPythonApplication::SetCameraSpeed

; 901  : 
; 902  : 	CCamera * pCamera = CCameraManager::Instance().GetCurrentCamera();

  00035	8b 0d 00 00 00
	00		 mov	 ecx, DWORD PTR ?ms_singleton@?$CSingleton@VCCameraManager@@@@0PAVCCameraManager@@A ; CSingleton<CCameraManager>::ms_singleton
  0003b	e8 00 00 00 00	 call	 ?GetCurrentCamera@CCameraManager@@QAEPAVCCamera@@XZ ; CCameraManager::GetCurrentCamera

; 903  : 	if (pCamera)

  00040	85 c0		 test	 eax, eax
  00042	74 1d		 je	 SHORT $LN3@appSetCame

; 904  : 		pCamera->SetResistance(float(iPercentage) / 100.0f);

  00044	66 0f 6e 45 fc	 movd	 xmm0, DWORD PTR _iPercentage$[ebp]
  00049	0f 5b c0	 cvtdq2ps xmm0, xmm0
  0004c	51		 push	 ecx
  0004d	8b c8		 mov	 ecx, eax
  0004f	f3 0f 5e 05 00
	00 00 00	 divss	 xmm0, DWORD PTR __real@42c80000
  00057	f3 0f 11 04 24	 movss	 DWORD PTR [esp], xmm0
  0005c	e8 00 00 00 00	 call	 ?SetResistance@CCamera@@QAEXM@Z ; CCamera::SetResistance
$LN3@appSetCame:

; 905  : 	return Py_BuildNone();

  00061	e8 00 00 00 00	 call	 ?Py_BuildNone@@YAPAU_object@@XZ ; Py_BuildNone

; 906  : }

  00066	8b e5		 mov	 esp, ebp
  00068	5d		 pop	 ebp
  00069	c3		 ret	 0
?appSetCameraSpeed@@YAPAU_object@@PAU1@0@Z ENDP		; appSetCameraSpeed
_TEXT	ENDS
; Function compile flags: /Ogtp
; File D:\Metin2 Server Files\mainline\SRC_2014\Metin2Client\UserInterface\PythonApplicationModule.cpp
;	COMDAT ?appEnableSpecialCameraMode@@YAPAU_object@@PAU1@0@Z
_TEXT	SEGMENT
_poSelf$ = 8						; size = 4
_poArgs$ = 12						; size = 4
?appEnableSpecialCameraMode@@YAPAU_object@@PAU1@0@Z PROC ; appEnableSpecialCameraMode, COMDAT

; 890  : 	CPythonApplication::Instance().EnableSpecialCameraMode();

  00000	8b 0d 00 00 00
	00		 mov	 ecx, DWORD PTR ?ms_pInstance@CPythonApplication@@1PAV1@A ; CPythonApplication::ms_pInstance
  00006	e8 00 00 00 00	 call	 ?EnableSpecialCameraMode@CPythonApplication@@QAEXXZ ; CPythonApplication::EnableSpecialCameraMode

; 891  : 	return Py_BuildNone();

  0000b	e9 00 00 00 00	 jmp	 ?Py_BuildNone@@YAPAU_object@@XZ ; Py_BuildNone
?appEnableSpecialCameraMode@@YAPAU_object@@PAU1@0@Z ENDP ; appEnableSpecialCameraMode
_TEXT	ENDS
; Function compile flags: /Ogtp
; File D:\Metin2 Server Files\mainline\SRC_2014\Metin2Client\UserInterface\PythonApplicationModule.cpp
;	COMDAT ?appSetGuildSymbolPath@@YAPAU_object@@PAU1@0@Z
_TEXT	SEGMENT
_szPathName$ = -4					; size = 4
_poSelf$ = 8						; size = 4
_poArgs$ = 12						; size = 4
?appSetGuildSymbolPath@@YAPAU_object@@PAU1@0@Z PROC	; appSetGuildSymbolPath, COMDAT

; 878  : {

  00000	55		 push	 ebp
  00001	8b ec		 mov	 ebp, esp
  00003	51		 push	 ecx

; 879  : 	char * szPathName;
; 880  : 	if (!PyTuple_GetString(poArgs, 0, &szPathName))

  00004	8d 45 fc	 lea	 eax, DWORD PTR _szPathName$[ebp]
  00007	50		 push	 eax
  00008	6a 00		 push	 0
  0000a	ff 75 0c	 push	 DWORD PTR _poArgs$[ebp]
  0000d	e8 00 00 00 00	 call	 ?PyTuple_GetString@@YA_NPAU_object@@HPAPAD@Z ; PyTuple_GetString
  00012	83 c4 0c	 add	 esp, 12			; 0000000cH
  00015	84 c0		 test	 al, al
  00017	75 0e		 jne	 SHORT $LN2@appSetGuil

; 881  : 		return Py_BuildException();

  00019	6a 00		 push	 0
  0001b	e8 00 00 00 00	 call	 ?Py_BuildException@@YAPAU_object@@PBDZZ ; Py_BuildException
  00020	83 c4 04	 add	 esp, 4

; 886  : }

  00023	8b e5		 mov	 esp, ebp
  00025	5d		 pop	 ebp
  00026	c3		 ret	 0
$LN2@appSetGuil:

; 882  : 
; 883  : 	SetGuildSymbolPath(szPathName);

  00027	ff 75 fc	 push	 DWORD PTR _szPathName$[ebp]
  0002a	e8 00 00 00 00	 call	 ?SetGuildSymbolPath@@YAXPBD@Z ; SetGuildSymbolPath
  0002f	83 c4 04	 add	 esp, 4

; 884  : 
; 885  : 	return Py_BuildNone();

  00032	e8 00 00 00 00	 call	 ?Py_BuildNone@@YAPAU_object@@XZ ; Py_BuildNone

; 886  : }

  00037	8b e5		 mov	 esp, ebp
  00039	5d		 pop	 ebp
  0003a	c3		 ret	 0
?appSetGuildSymbolPath@@YAPAU_object@@PAU1@0@Z ENDP	; appSetGuildSymbolPath
_TEXT	ENDS
; Function compile flags: /Ogtp
; File D:\Metin2 Server Files\mainline\SRC_2014\Metin2Client\UserInterface\PythonApplicationModule.cpp
;	COMDAT ?appSetDefaultFontName@@YAPAU_object@@PAU1@0@Z
_TEXT	SEGMENT
_szFontName$ = -4					; size = 4
_poSelf$ = 8						; size = 4
_poArgs$ = 12						; size = 4
?appSetDefaultFontName@@YAPAU_object@@PAU1@0@Z PROC	; appSetDefaultFontName, COMDAT

; 865  : {

  00000	55		 push	 ebp
  00001	8b ec		 mov	 ebp, esp
  00003	51		 push	 ecx

; 866  : 	char * szFontName;
; 867  : 	if (!PyTuple_GetString(poArgs, 0, &szFontName))

  00004	8d 45 fc	 lea	 eax, DWORD PTR _szFontName$[ebp]
  00007	50		 push	 eax
  00008	6a 00		 push	 0
  0000a	ff 75 0c	 push	 DWORD PTR _poArgs$[ebp]
  0000d	e8 00 00 00 00	 call	 ?PyTuple_GetString@@YA_NPAU_object@@HPAPAD@Z ; PyTuple_GetString
  00012	83 c4 0c	 add	 esp, 12			; 0000000cH
  00015	84 c0		 test	 al, al
  00017	75 0e		 jne	 SHORT $LN2@appSetDefa

; 868  : 		return Py_BuildException();

  00019	6a 00		 push	 0
  0001b	e8 00 00 00 00	 call	 ?Py_BuildException@@YAPAU_object@@PBDZZ ; Py_BuildException
  00020	83 c4 04	 add	 esp, 4

; 875  : }

  00023	8b e5		 mov	 esp, ebp
  00025	5d		 pop	 ebp
  00026	c3		 ret	 0
$LN2@appSetDefa:

; 869  : 
; 870  : 	// DEFAULT_FONT
; 871  : 	DefaultFont_SetName(szFontName);

  00027	ff 75 fc	 push	 DWORD PTR _szFontName$[ebp]
  0002a	e8 00 00 00 00	 call	 ?DefaultFont_SetName@@YAXPBD@Z ; DefaultFont_SetName
  0002f	83 c4 04	 add	 esp, 4

; 872  : 	// END_OF_DEFAULT_FONT
; 873  : 
; 874  : 	return Py_BuildNone();

  00032	e8 00 00 00 00	 call	 ?Py_BuildNone@@YAPAU_object@@XZ ; Py_BuildNone

; 875  : }

  00037	8b e5		 mov	 esp, ebp
  00039	5d		 pop	 ebp
  0003a	c3		 ret	 0
?appSetDefaultFontName@@YAPAU_object@@PAU1@0@Z ENDP	; appSetDefaultFontName
_TEXT	ENDS
; Function compile flags: /Ogtp
; File D:\Metin2 Server Files\mainline\SRC_2014\Metin2Client\UserInterface\PythonApplicationModule.cpp
;	COMDAT ?appSleep@@YAPAU_object@@PAU1@0@Z
_TEXT	SEGMENT
_iTime$ = -4						; size = 4
_poSelf$ = 8						; size = 4
_poArgs$ = 12						; size = 4
?appSleep@@YAPAU_object@@PAU1@0@Z PROC			; appSleep, COMDAT

; 854  : {

  00000	55		 push	 ebp
  00001	8b ec		 mov	 ebp, esp
  00003	51		 push	 ecx

; 855  : 	int	iTime;
; 856  : 	if (!PyTuple_GetInteger(poArgs, 0, &iTime))

  00004	8d 45 fc	 lea	 eax, DWORD PTR _iTime$[ebp]
  00007	50		 push	 eax
  00008	6a 00		 push	 0
  0000a	ff 75 0c	 push	 DWORD PTR _poArgs$[ebp]
  0000d	e8 00 00 00 00	 call	 ?PyTuple_GetInteger@@YA_NPAU_object@@HPAH@Z ; PyTuple_GetInteger
  00012	83 c4 0c	 add	 esp, 12			; 0000000cH
  00015	84 c0		 test	 al, al
  00017	75 0e		 jne	 SHORT $LN2@appSleep

; 857  : 		return Py_BuildException();

  00019	6a 00		 push	 0
  0001b	e8 00 00 00 00	 call	 ?Py_BuildException@@YAPAU_object@@PBDZZ ; Py_BuildException
  00020	83 c4 04	 add	 esp, 4

; 862  : }

  00023	8b e5		 mov	 esp, ebp
  00025	5d		 pop	 ebp
  00026	c3		 ret	 0
$LN2@appSleep:

; 858  : 
; 859  : 	Sleep(iTime);

  00027	ff 75 fc	 push	 DWORD PTR _iTime$[ebp]
  0002a	ff 15 00 00 00
	00		 call	 DWORD PTR __imp__Sleep@4

; 860  : 
; 861  : 	return Py_BuildNone();

  00030	e8 00 00 00 00	 call	 ?Py_BuildNone@@YAPAU_object@@XZ ; Py_BuildNone

; 862  : }

  00035	8b e5		 mov	 esp, ebp
  00037	5d		 pop	 ebp
  00038	c3		 ret	 0
?appSleep@@YAPAU_object@@PAU1@0@Z ENDP			; appSleep
_TEXT	ENDS
; Function compile flags: /Ogtp
; File D:\Metin2 Server Files\mainline\SRC_2014\Metin2Client\UserInterface\PythonApplicationModule.cpp
;	COMDAT ?appGetDegreeDifference@@YAPAU_object@@PAU1@0@Z
_TEXT	SEGMENT
_fSource$ = -8						; size = 4
_fTarget$ = -4						; size = 4
_poSelf$ = 8						; size = 4
_poArgs$ = 12						; size = 4
?appGetDegreeDifference@@YAPAU_object@@PAU1@0@Z PROC	; appGetDegreeDifference, COMDAT

; 842  : {

  00000	55		 push	 ebp
  00001	8b ec		 mov	 ebp, esp
  00003	83 ec 08	 sub	 esp, 8

; 843  : 	float fSource;
; 844  : 	if (!PyTuple_GetFloat(poArgs, 0, &fSource))

  00006	8d 45 f8	 lea	 eax, DWORD PTR _fSource$[ebp]
  00009	50		 push	 eax
  0000a	6a 00		 push	 0
  0000c	ff 75 0c	 push	 DWORD PTR _poArgs$[ebp]
  0000f	e8 00 00 00 00	 call	 ?PyTuple_GetFloat@@YA_NPAU_object@@HPAM@Z ; PyTuple_GetFloat
  00014	83 c4 0c	 add	 esp, 12			; 0000000cH
  00017	84 c0		 test	 al, al
  00019	75 0e		 jne	 SHORT $LN2@appGetDegr
$LN5@appGetDegr:

; 851  : }

  0001b	6a 00		 push	 0
  0001d	e8 00 00 00 00	 call	 ?Py_BuildException@@YAPAU_object@@PBDZZ ; Py_BuildException
  00022	83 c4 04	 add	 esp, 4
  00025	8b e5		 mov	 esp, ebp
  00027	5d		 pop	 ebp
  00028	c3		 ret	 0
$LN2@appGetDegr:

; 845  : 		return Py_BuildException();
; 846  : 	float fTarget;
; 847  : 	if (!PyTuple_GetFloat(poArgs, 1, &fTarget))

  00029	8d 45 fc	 lea	 eax, DWORD PTR _fTarget$[ebp]
  0002c	50		 push	 eax
  0002d	6a 01		 push	 1
  0002f	ff 75 0c	 push	 DWORD PTR _poArgs$[ebp]
  00032	e8 00 00 00 00	 call	 ?PyTuple_GetFloat@@YA_NPAU_object@@HPAM@Z ; PyTuple_GetFloat
  00037	83 c4 0c	 add	 esp, 12			; 0000000cH
  0003a	84 c0		 test	 al, al
  0003c	74 dd		 je	 SHORT $LN5@appGetDegr

; 848  : 		return Py_BuildException();
; 849  : 
; 850  : 	return Py_BuildValue("f", GetDegreeDifference(fSource, fTarget));

  0003e	f3 0f 10 45 fc	 movss	 xmm0, DWORD PTR _fTarget$[ebp]
  00043	83 ec 08	 sub	 esp, 8
  00046	f3 0f 11 44 24
	04		 movss	 DWORD PTR [esp+4], xmm0
  0004c	f3 0f 10 45 f8	 movss	 xmm0, DWORD PTR _fSource$[ebp]
  00051	f3 0f 11 04 24	 movss	 DWORD PTR [esp], xmm0
  00056	e8 00 00 00 00	 call	 ?GetDegreeDifference@@YAMMM@Z ; GetDegreeDifference
  0005b	dd 1c 24	 fstp	 QWORD PTR [esp]
  0005e	68 00 00 00 00	 push	 OFFSET ??_C@_01INIBCBCB@f@
  00063	ff 15 00 00 00
	00		 call	 DWORD PTR __imp__Py_BuildValue
  00069	83 c4 0c	 add	 esp, 12			; 0000000cH

; 851  : }

  0006c	8b e5		 mov	 esp, ebp
  0006e	5d		 pop	 ebp
  0006f	c3		 ret	 0
?appGetDegreeDifference@@YAPAU_object@@PAU1@0@Z ENDP	; appGetDegreeDifference
_TEXT	ENDS
; Function compile flags: /Ogtp
; File D:\Metin2 Server Files\mainline\SRC_2014\Metin2Client\UserInterface\PythonApplicationModule.cpp
;	COMDAT ?appGetRotatingDirection@@YAPAU_object@@PAU1@0@Z
_TEXT	SEGMENT
_fSource$ = -8						; size = 4
_fTarget$ = -4						; size = 4
_poSelf$ = 8						; size = 4
_poArgs$ = 12						; size = 4
?appGetRotatingDirection@@YAPAU_object@@PAU1@0@Z PROC	; appGetRotatingDirection, COMDAT

; 830  : {

  00000	55		 push	 ebp
  00001	8b ec		 mov	 ebp, esp
  00003	83 ec 08	 sub	 esp, 8

; 831  : 	float fSource;
; 832  : 	if (!PyTuple_GetFloat(poArgs, 0, &fSource))

  00006	8d 45 f8	 lea	 eax, DWORD PTR _fSource$[ebp]
  00009	50		 push	 eax
  0000a	6a 00		 push	 0
  0000c	ff 75 0c	 push	 DWORD PTR _poArgs$[ebp]
  0000f	e8 00 00 00 00	 call	 ?PyTuple_GetFloat@@YA_NPAU_object@@HPAM@Z ; PyTuple_GetFloat
  00014	83 c4 0c	 add	 esp, 12			; 0000000cH
  00017	84 c0		 test	 al, al
  00019	75 0e		 jne	 SHORT $LN2@appGetRota
$LN5@appGetRota:

; 839  : }

  0001b	6a 00		 push	 0
  0001d	e8 00 00 00 00	 call	 ?Py_BuildException@@YAPAU_object@@PBDZZ ; Py_BuildException
  00022	83 c4 04	 add	 esp, 4
  00025	8b e5		 mov	 esp, ebp
  00027	5d		 pop	 ebp
  00028	c3		 ret	 0
$LN2@appGetRota:

; 833  : 		return Py_BuildException();
; 834  : 	float fTarget;
; 835  : 	if (!PyTuple_GetFloat(poArgs, 1, &fTarget))

  00029	8d 45 fc	 lea	 eax, DWORD PTR _fTarget$[ebp]
  0002c	50		 push	 eax
  0002d	6a 01		 push	 1
  0002f	ff 75 0c	 push	 DWORD PTR _poArgs$[ebp]
  00032	e8 00 00 00 00	 call	 ?PyTuple_GetFloat@@YA_NPAU_object@@HPAM@Z ; PyTuple_GetFloat
  00037	83 c4 0c	 add	 esp, 12			; 0000000cH
  0003a	84 c0		 test	 al, al
  0003c	74 dd		 je	 SHORT $LN5@appGetRota

; 836  : 		return Py_BuildException();
; 837  : 
; 838  : 	return Py_BuildValue("i", GetRotatingDirection(fSource, fTarget));

  0003e	f3 0f 10 45 fc	 movss	 xmm0, DWORD PTR _fTarget$[ebp]
  00043	83 ec 08	 sub	 esp, 8
  00046	f3 0f 11 44 24
	04		 movss	 DWORD PTR [esp+4], xmm0
  0004c	f3 0f 10 45 f8	 movss	 xmm0, DWORD PTR _fSource$[ebp]
  00051	f3 0f 11 04 24	 movss	 DWORD PTR [esp], xmm0
  00056	e8 00 00 00 00	 call	 ?GetRotatingDirection@@YAHMM@Z ; GetRotatingDirection
  0005b	50		 push	 eax
  0005c	68 00 00 00 00	 push	 OFFSET ??_C@_01KBJDNOO@i@
  00061	ff 15 00 00 00
	00		 call	 DWORD PTR __imp__Py_BuildValue
  00067	83 c4 10	 add	 esp, 16			; 00000010H

; 839  : }

  0006a	8b e5		 mov	 esp, ebp
  0006c	5d		 pop	 ebp
  0006d	c3		 ret	 0
?appGetRotatingDirection@@YAPAU_object@@PAU1@0@Z ENDP	; appGetRotatingDirection
_TEXT	ENDS
; Function compile flags: /Ogtp
; File D:\Metin2 Server Files\mainline\SRC_2014\Metin2Client\UserInterface\PythonApplicationModule.cpp
;	COMDAT ?appGetRandom@@YAPAU_object@@PAU1@0@Z
_TEXT	SEGMENT
_to$ = -8						; size = 4
_from$ = -4						; size = 4
_poSelf$ = 8						; size = 4
_poArgs$ = 12						; size = 4
?appGetRandom@@YAPAU_object@@PAU1@0@Z PROC		; appGetRandom, COMDAT

; 810  : {

  00000	55		 push	 ebp
  00001	8b ec		 mov	 ebp, esp
  00003	83 ec 08	 sub	 esp, 8

; 811  : 	int from;
; 812  : 	if (!PyTuple_GetInteger(poArgs, 0, &from))

  00006	8d 45 fc	 lea	 eax, DWORD PTR _from$[ebp]
  00009	50		 push	 eax
  0000a	6a 00		 push	 0
  0000c	ff 75 0c	 push	 DWORD PTR _poArgs$[ebp]
  0000f	e8 00 00 00 00	 call	 ?PyTuple_GetInteger@@YA_NPAU_object@@HPAH@Z ; PyTuple_GetInteger
  00014	83 c4 0c	 add	 esp, 12			; 0000000cH
  00017	84 c0		 test	 al, al
  00019	75 0e		 jne	 SHORT $LN2@appGetRand
$LN6@appGetRand:

; 827  : }

  0001b	6a 00		 push	 0
  0001d	e8 00 00 00 00	 call	 ?Py_BuildException@@YAPAU_object@@PBDZZ ; Py_BuildException
  00022	83 c4 04	 add	 esp, 4
  00025	8b e5		 mov	 esp, ebp
  00027	5d		 pop	 ebp
  00028	c3		 ret	 0
$LN2@appGetRand:

; 813  : 		return Py_BuildException();
; 814  : 
; 815  : 	int	to;
; 816  : 	if (!PyTuple_GetInteger(poArgs, 1, &to))

  00029	8d 45 f8	 lea	 eax, DWORD PTR _to$[ebp]
  0002c	50		 push	 eax
  0002d	6a 01		 push	 1
  0002f	ff 75 0c	 push	 DWORD PTR _poArgs$[ebp]
  00032	e8 00 00 00 00	 call	 ?PyTuple_GetInteger@@YA_NPAU_object@@HPAH@Z ; PyTuple_GetInteger
  00037	83 c4 0c	 add	 esp, 12			; 0000000cH
  0003a	84 c0		 test	 al, al
  0003c	74 dd		 je	 SHORT $LN6@appGetRand

; 817  : 		return Py_BuildException();
; 818  : 
; 819  : 	if (from > to)

  0003e	8b 4d fc	 mov	 ecx, DWORD PTR _from$[ebp]
  00041	8b 55 f8	 mov	 edx, DWORD PTR _to$[ebp]
  00044	3b ca		 cmp	 ecx, edx
  00046	7e 0c		 jle	 SHORT $LN4@appGetRand

; 820  : 	{
; 821  : 		int tmp = from;

  00048	8b c1		 mov	 eax, ecx

; 822  : 		from = to;

  0004a	8b ca		 mov	 ecx, edx

; 823  : 		to = tmp;

  0004c	8b d0		 mov	 edx, eax
  0004e	89 4d fc	 mov	 DWORD PTR _from$[ebp], ecx
  00051	89 55 f8	 mov	 DWORD PTR _to$[ebp], edx
$LN4@appGetRand:

; 824  : 	}
; 825  : 
; 826  : 	return Py_BuildValue("i", random_range(from, to));

  00054	52		 push	 edx
  00055	51		 push	 ecx
  00056	e8 00 00 00 00	 call	 ?random_range@@YAJJJ@Z	; random_range
  0005b	50		 push	 eax
  0005c	68 00 00 00 00	 push	 OFFSET ??_C@_01KBJDNOO@i@
  00061	ff 15 00 00 00
	00		 call	 DWORD PTR __imp__Py_BuildValue
  00067	83 c4 10	 add	 esp, 16			; 00000010H

; 827  : }

  0006a	8b e5		 mov	 esp, ebp
  0006c	5d		 pop	 ebp
  0006d	c3		 ret	 0
?appGetRandom@@YAPAU_object@@PAU1@0@Z ENDP		; appGetRandom
_TEXT	ENDS
; Function compile flags: /Ogtp
; File D:\Metin2 Server Files\mainline\SRC_2014\Metin2Client\UserInterface\PythonApplicationModule.cpp
; File C:\Program Files (x86)\Microsoft Visual Studio\2019\Community\VC\Tools\MSVC\14.28.29333\include\xstring
; File D:\Metin2 Server Files\mainline\SRC_2014\Metin2Client\UserInterface\PythonApplicationModule.cpp
; File C:\Program Files (x86)\Microsoft Visual Studio\2019\Community\VC\Tools\MSVC\14.28.29333\include\xstring
; File D:\Metin2 Server Files\mainline\SRC_2014\Metin2Client\UserInterface\PythonApplicationModule.cpp
; File C:\Program Files (x86)\Microsoft Visual Studio\2019\Community\VC\Tools\MSVC\14.28.29333\include\xstring
; File D:\Metin2 Server Files\mainline\SRC_2014\Metin2Client\UserInterface\PythonApplicationModule.cpp
; File C:\Program Files (x86)\Microsoft Visual Studio\2019\Community\VC\Tools\MSVC\14.28.29333\include\xstring
; File D:\Metin2 Server Files\mainline\SRC_2014\Metin2Client\UserInterface\PythonApplicationModule.cpp
; File C:\Program Files (x86)\Microsoft Visual Studio\2019\Community\VC\Tools\MSVC\14.28.29333\include\xstring
; File C:\Program Files (x86)\Microsoft Visual Studio\2019\Community\VC\Tools\MSVC\14.28.29333\include\xmemory
; File D:\Metin2 Server Files\mainline\SRC_2014\Metin2Client\UserInterface\PythonApplicationModule.cpp
;	COMDAT ?appGetConnectData@@YAPAU_object@@PAU1@0@Z
_TEXT	SEGMENT
_iPort$ = -44						; size = 4
_strIP$ = -40						; size = 24
__$ArrayPad$ = -16					; size = 4
__$EHRec$ = -12						; size = 12
_poSelf$ = 8						; size = 4
_poArgs$ = 12						; size = 4
?appGetConnectData@@YAPAU_object@@PAU1@0@Z PROC		; appGetConnectData, COMDAT

; 800  : {

  00000	55		 push	 ebp
  00001	8b ec		 mov	 ebp, esp
  00003	6a ff		 push	 -1
  00005	68 00 00 00 00	 push	 __ehhandler$?appGetConnectData@@YAPAU_object@@PAU1@0@Z
  0000a	64 a1 00 00 00
	00		 mov	 eax, DWORD PTR fs:0
  00010	50		 push	 eax
  00011	83 ec 20	 sub	 esp, 32			; 00000020H
  00014	a1 00 00 00 00	 mov	 eax, DWORD PTR ___security_cookie
  00019	33 c5		 xor	 eax, ebp
  0001b	89 45 f0	 mov	 DWORD PTR __$ArrayPad$[ebp], eax
  0001e	56		 push	 esi
  0001f	50		 push	 eax
  00020	8d 45 f4	 lea	 eax, DWORD PTR __$EHRec$[ebp]
  00023	64 a3 00 00 00
	00		 mov	 DWORD PTR fs:0, eax
; File C:\Program Files (x86)\Microsoft Visual Studio\2019\Community\VC\Tools\MSVC\14.28.29333\include\xstring

; 4377 :         _Mypair._Myval2._Mysize = 0;

  00029	c7 45 e8 00 00
	00 00		 mov	 DWORD PTR _strIP$[ebp+16], 0

; 4378 :         _Mypair._Myval2._Myres  = _BUF_SIZE - 1;

  00030	c7 45 ec 0f 00
	00 00		 mov	 DWORD PTR _strIP$[ebp+20], 15 ; 0000000fH

; 4379 :         // the _Traits::assign is last so the codegen doesn't think the char write can alias this
; 4380 :         _Traits::assign(_Mypair._Myval2._Bx._Buf[0], _Elem());

  00037	c6 45 d8 00	 mov	 BYTE PTR _strIP$[ebp], 0
; File D:\Metin2 Server Files\mainline\SRC_2014\Metin2Client\UserInterface\PythonApplicationModule.cpp

; 804  : 	CPythonApplication::Instance().GetConnectData(strIP, iPort);

  0003b	8b 0d 00 00 00
	00		 mov	 ecx, DWORD PTR ?ms_pInstance@CPythonApplication@@1PAV1@A ; CPythonApplication::ms_pInstance
  00041	8d 45 d4	 lea	 eax, DWORD PTR _iPort$[ebp]
  00044	50		 push	 eax
  00045	8d 45 d8	 lea	 eax, DWORD PTR _strIP$[ebp]
  00048	c7 45 fc 00 00
	00 00		 mov	 DWORD PTR __$EHRec$[ebp+8], 0
  0004f	50		 push	 eax
  00050	e8 00 00 00 00	 call	 ?GetConnectData@CPythonApplication@@QAEXAAV?$basic_string@DU?$char_traits@D@std@@V?$allocator@D@2@@std@@AAH@Z ; CPythonApplication::GetConnectData
; File C:\Program Files (x86)\Microsoft Visual Studio\2019\Community\VC\Tools\MSVC\14.28.29333\include\xstring

; 2227 :         return _BUF_SIZE <= _Myres;

  00055	83 7d ec 10	 cmp	 DWORD PTR _strIP$[ebp+20], 16 ; 00000010H

; 2218 :         const value_type* _Result = _Bx._Buf;

  00059	8d 45 d8	 lea	 eax, DWORD PTR _strIP$[ebp]
; File D:\Metin2 Server Files\mainline\SRC_2014\Metin2Client\UserInterface\PythonApplicationModule.cpp

; 806  : 	return Py_BuildValue("si", strIP.c_str(), iPort);

  0005c	ff 75 d4	 push	 DWORD PTR _iPort$[ebp]
; File C:\Program Files (x86)\Microsoft Visual Studio\2019\Community\VC\Tools\MSVC\14.28.29333\include\xstring

; 2219 :         if (_Large_string_engaged()) {

  0005f	0f 43 45 d8	 cmovae	 eax, DWORD PTR _strIP$[ebp]
; File D:\Metin2 Server Files\mainline\SRC_2014\Metin2Client\UserInterface\PythonApplicationModule.cpp

; 806  : 	return Py_BuildValue("si", strIP.c_str(), iPort);

  00063	50		 push	 eax
  00064	68 00 00 00 00	 push	 OFFSET ??_C@_02OCDGCAAK@si@
  00069	ff 15 00 00 00
	00		 call	 DWORD PTR __imp__Py_BuildValue
; File C:\Program Files (x86)\Microsoft Visual Studio\2019\Community\VC\Tools\MSVC\14.28.29333\include\xstring

; 2227 :         return _BUF_SIZE <= _Myres;

  0006f	8b 4d ec	 mov	 ecx, DWORD PTR _strIP$[ebp+20]
; File D:\Metin2 Server Files\mainline\SRC_2014\Metin2Client\UserInterface\PythonApplicationModule.cpp

; 806  : 	return Py_BuildValue("si", strIP.c_str(), iPort);

  00072	83 c4 0c	 add	 esp, 12			; 0000000cH
  00075	8b f0		 mov	 esi, eax
; File C:\Program Files (x86)\Microsoft Visual Studio\2019\Community\VC\Tools\MSVC\14.28.29333\include\xstring

; 2227 :         return _BUF_SIZE <= _Myres;

  00077	83 f9 10	 cmp	 ecx, 16			; 00000010H

; 4385 :         if (_Mypair._Myval2._Large_string_engaged()) {

  0007a	72 0f		 jb	 SHORT $LN26@appGetConn

; 4386 :             const pointer _Ptr = _Mypair._Myval2._Bx._Ptr;
; 4387 :             auto& _Al          = _Getal();
; 4388 :             _Destroy_in_place(_Mypair._Myval2._Bx._Ptr);
; 4389 :             _Al.deallocate(_Ptr, _Mypair._Myval2._Myres + 1);

  0007c	41		 inc	 ecx
; File C:\Program Files (x86)\Microsoft Visual Studio\2019\Community\VC\Tools\MSVC\14.28.29333\include\xmemory

; 810  :         _Deallocate<_New_alignof<_Ty>>(_Ptr, sizeof(_Ty) * _Count);

  0007d	51		 push	 ecx
  0007e	ff 75 d8	 push	 DWORD PTR _strIP$[ebp]
  00081	e8 00 00 00 00	 call	 ??$_Deallocate@$07$0A@@std@@YAXPAXI@Z ; std::_Deallocate<8,0>
  00086	83 c4 08	 add	 esp, 8
; File D:\Metin2 Server Files\mainline\SRC_2014\Metin2Client\UserInterface\PythonApplicationModule.cpp

; 806  : 	return Py_BuildValue("si", strIP.c_str(), iPort);

  00089	8b c6		 mov	 eax, esi
$LN26@appGetConn:

; 807  : }

  0008b	8b 4d f4	 mov	 ecx, DWORD PTR __$EHRec$[ebp]
  0008e	64 89 0d 00 00
	00 00		 mov	 DWORD PTR fs:0, ecx
  00095	59		 pop	 ecx
  00096	5e		 pop	 esi
  00097	8b 4d f0	 mov	 ecx, DWORD PTR __$ArrayPad$[ebp]
  0009a	33 cd		 xor	 ecx, ebp
  0009c	e8 00 00 00 00	 call	 @__security_check_cookie@4
  000a1	8b e5		 mov	 esp, ebp
  000a3	5d		 pop	 ebp
  000a4	c3		 ret	 0
_TEXT	ENDS
;	COMDAT text$x
text$x	SEGMENT
__unwindfunclet$?appGetConnectData@@YAPAU_object@@PAU1@0@Z$0:
  00000	8d 4d d8	 lea	 ecx, DWORD PTR _strIP$[ebp]
  00003	e9 00 00 00 00	 jmp	 ??1?$basic_string@DU?$char_traits@D@std@@V?$allocator@D@2@@std@@QAE@XZ ; std::basic_string<char,std::char_traits<char>,std::allocator<char> >::~basic_string<char,std::char_traits<char>,std::allocator<char> >
  00008	cc		 int	 3
  00009	cc		 int	 3
  0000a	cc		 int	 3
  0000b	cc		 int	 3
  0000c	cc		 int	 3
__ehhandler$?appGetConnectData@@YAPAU_object@@PAU1@0@Z:
  0000d	90		 npad	 1
  0000e	90		 npad	 1
  0000f	8b 54 24 08	 mov	 edx, DWORD PTR [esp+8]
  00013	8d 42 0c	 lea	 eax, DWORD PTR [edx+12]
  00016	8b 4a d8	 mov	 ecx, DWORD PTR [edx-40]
  00019	33 c8		 xor	 ecx, eax
  0001b	e8 00 00 00 00	 call	 @__security_check_cookie@4
  00020	8b 4a fc	 mov	 ecx, DWORD PTR [edx-4]
  00023	33 c8		 xor	 ecx, eax
  00025	e8 00 00 00 00	 call	 @__security_check_cookie@4
  0002a	b8 00 00 00 00	 mov	 eax, OFFSET __ehfuncinfo$?appGetConnectData@@YAPAU_object@@PAU1@0@Z
  0002f	e9 00 00 00 00	 jmp	 ___CxxFrameHandler3
text$x	ENDS
?appGetConnectData@@YAPAU_object@@PAU1@0@Z ENDP		; appGetConnectData
; Function compile flags: /Ogtp
; File D:\Metin2 Server Files\mainline\SRC_2014\Metin2Client\UserInterface\PythonApplicationModule.cpp
;	COMDAT ?appSetConnectData@@YAPAU_object@@PAU1@0@Z
_TEXT	SEGMENT
_szIP$ = -8						; size = 4
_iPort$ = -4						; size = 4
_poSelf$ = 8						; size = 4
_poArgs$ = 12						; size = 4
?appSetConnectData@@YAPAU_object@@PAU1@0@Z PROC		; appSetConnectData, COMDAT

; 785  : {

  00000	55		 push	 ebp
  00001	8b ec		 mov	 ebp, esp
  00003	83 ec 08	 sub	 esp, 8

; 786  : 	char * szIP;
; 787  : 	if (!PyTuple_GetString(poArgs, 0, &szIP))

  00006	8d 45 f8	 lea	 eax, DWORD PTR _szIP$[ebp]
  00009	50		 push	 eax
  0000a	6a 00		 push	 0
  0000c	ff 75 0c	 push	 DWORD PTR _poArgs$[ebp]
  0000f	e8 00 00 00 00	 call	 ?PyTuple_GetString@@YA_NPAU_object@@HPAPAD@Z ; PyTuple_GetString
  00014	83 c4 0c	 add	 esp, 12			; 0000000cH
  00017	84 c0		 test	 al, al
  00019	75 0e		 jne	 SHORT $LN2@appSetConn
$LN5@appSetConn:

; 797  : }

  0001b	6a 00		 push	 0
  0001d	e8 00 00 00 00	 call	 ?Py_BuildException@@YAPAU_object@@PBDZZ ; Py_BuildException
  00022	83 c4 04	 add	 esp, 4
  00025	8b e5		 mov	 esp, ebp
  00027	5d		 pop	 ebp
  00028	c3		 ret	 0
$LN2@appSetConn:

; 788  : 		return Py_BuildException();
; 789  : 
; 790  : 	int	iPort;
; 791  : 	if (!PyTuple_GetInteger(poArgs, 1, &iPort))

  00029	8d 45 fc	 lea	 eax, DWORD PTR _iPort$[ebp]
  0002c	50		 push	 eax
  0002d	6a 01		 push	 1
  0002f	ff 75 0c	 push	 DWORD PTR _poArgs$[ebp]
  00032	e8 00 00 00 00	 call	 ?PyTuple_GetInteger@@YA_NPAU_object@@HPAH@Z ; PyTuple_GetInteger
  00037	83 c4 0c	 add	 esp, 12			; 0000000cH
  0003a	84 c0		 test	 al, al
  0003c	74 dd		 je	 SHORT $LN5@appSetConn

; 792  : 		return Py_BuildException();
; 793  : 
; 794  : 	CPythonApplication::Instance().SetConnectData(szIP, iPort);

  0003e	ff 75 fc	 push	 DWORD PTR _iPort$[ebp]
  00041	8b 0d 00 00 00
	00		 mov	 ecx, DWORD PTR ?ms_pInstance@CPythonApplication@@1PAV1@A ; CPythonApplication::ms_pInstance
  00047	ff 75 f8	 push	 DWORD PTR _szIP$[ebp]
  0004a	e8 00 00 00 00	 call	 ?SetConnectData@CPythonApplication@@QAEXPBDH@Z ; CPythonApplication::SetConnectData

; 795  : 
; 796  : 	return Py_BuildNone();

  0004f	e8 00 00 00 00	 call	 ?Py_BuildNone@@YAPAU_object@@XZ ; Py_BuildNone

; 797  : }

  00054	8b e5		 mov	 esp, ebp
  00056	5d		 pop	 ebp
  00057	c3		 ret	 0
?appSetConnectData@@YAPAU_object@@PAU1@0@Z ENDP		; appSetConnectData
_TEXT	ENDS
; Function compile flags: /Ogtp
; File D:\Metin2 Server Files\mainline\SRC_2014\Metin2Client\UserInterface\PythonApplicationModule.cpp
;	COMDAT ?appSetHardwareCursor@@YAPAU_object@@PAU1@0@Z
_TEXT	SEGMENT
_poSelf$ = 8						; size = 4
_poArgs$ = 12						; size = 4
?appSetHardwareCursor@@YAPAU_object@@PAU1@0@Z PROC	; appSetHardwareCursor, COMDAT

; 780  : 	CPythonApplication::Instance().SetCursorMode(CPythonApplication::CURSOR_MODE_HARDWARE);

  00000	8b 0d 00 00 00
	00		 mov	 ecx, DWORD PTR ?ms_pInstance@CPythonApplication@@1PAV1@A ; CPythonApplication::ms_pInstance
  00006	6a 00		 push	 0
  00008	e8 00 00 00 00	 call	 ?SetCursorMode@CPythonApplication@@QAEXH@Z ; CPythonApplication::SetCursorMode

; 781  : 	return Py_BuildNone();

  0000d	e9 00 00 00 00	 jmp	 ?Py_BuildNone@@YAPAU_object@@XZ ; Py_BuildNone
?appSetHardwareCursor@@YAPAU_object@@PAU1@0@Z ENDP	; appSetHardwareCursor
_TEXT	ENDS
; Function compile flags: /Ogtp
; File D:\Metin2 Server Files\mainline\SRC_2014\Metin2Client\UserInterface\PythonApplicationModule.cpp
;	COMDAT ?appSetSoftwareCursor@@YAPAU_object@@PAU1@0@Z
_TEXT	SEGMENT
_poSelf$ = 8						; size = 4
_poArgs$ = 12						; size = 4
?appSetSoftwareCursor@@YAPAU_object@@PAU1@0@Z PROC	; appSetSoftwareCursor, COMDAT

; 774  : 	CPythonApplication::Instance().SetCursorMode(CPythonApplication::CURSOR_MODE_SOFTWARE);

  00000	8b 0d 00 00 00
	00		 mov	 ecx, DWORD PTR ?ms_pInstance@CPythonApplication@@1PAV1@A ; CPythonApplication::ms_pInstance
  00006	6a 01		 push	 1
  00008	e8 00 00 00 00	 call	 ?SetCursorMode@CPythonApplication@@QAEXH@Z ; CPythonApplication::SetCursorMode

; 775  : 	return Py_BuildNone();

  0000d	e9 00 00 00 00	 jmp	 ?Py_BuildNone@@YAPAU_object@@XZ ; Py_BuildNone
?appSetSoftwareCursor@@YAPAU_object@@PAU1@0@Z ENDP	; appSetSoftwareCursor
_TEXT	ENDS
; Function compile flags: /Ogtp
; File D:\Metin2 Server Files\mainline\SRC_2014\Metin2Client\UserInterface\PythonApplicationModule.cpp
;	COMDAT ?appIsLiarCursorOn@@YAPAU_object@@PAU1@0@Z
_TEXT	SEGMENT
_poSelf$ = 8						; size = 4
_poArgs$ = 12						; size = 4
?appIsLiarCursorOn@@YAPAU_object@@PAU1@0@Z PROC		; appIsLiarCursorOn, COMDAT

; 769  : 	return Py_BuildValue("i", TRUE == CPythonApplication::Instance().GetLiarCursorOn());

  00000	8b 0d 00 00 00
	00		 mov	 ecx, DWORD PTR ?ms_pInstance@CPythonApplication@@1PAV1@A ; CPythonApplication::ms_pInstance
  00006	e8 00 00 00 00	 call	 ?GetLiarCursorOn@CPythonApplication@@QAE_NXZ ; CPythonApplication::GetLiarCursorOn
  0000b	33 c9		 xor	 ecx, ecx
  0000d	3c 01		 cmp	 al, 1
  0000f	0f 94 c1	 sete	 cl
  00012	51		 push	 ecx
  00013	68 00 00 00 00	 push	 OFFSET ??_C@_01KBJDNOO@i@
  00018	ff 15 00 00 00
	00		 call	 DWORD PTR __imp__Py_BuildValue
  0001e	83 c4 08	 add	 esp, 8

; 770  : }

  00021	c3		 ret	 0
?appIsLiarCursorOn@@YAPAU_object@@PAU1@0@Z ENDP		; appIsLiarCursorOn
_TEXT	ENDS
; Function compile flags: /Ogtp
; File D:\Metin2 Server Files\mainline\SRC_2014\Metin2Client\UserInterface\PythonApplicationModule.cpp
;	COMDAT ?appIsShowCursor@@YAPAU_object@@PAU1@0@Z
_TEXT	SEGMENT
_poSelf$ = 8						; size = 4
_poArgs$ = 12						; size = 4
?appIsShowCursor@@YAPAU_object@@PAU1@0@Z PROC		; appIsShowCursor, COMDAT

; 764  : 	return Py_BuildValue("i", TRUE == CPythonApplication::Instance().GetCursorVisible());

  00000	8b 0d 00 00 00
	00		 mov	 ecx, DWORD PTR ?ms_pInstance@CPythonApplication@@1PAV1@A ; CPythonApplication::ms_pInstance
  00006	e8 00 00 00 00	 call	 ?GetCursorVisible@CPythonApplication@@QAEHXZ ; CPythonApplication::GetCursorVisible
  0000b	48		 dec	 eax
  0000c	f7 d8		 neg	 eax
  0000e	1b c0		 sbb	 eax, eax
  00010	40		 inc	 eax
  00011	50		 push	 eax
  00012	68 00 00 00 00	 push	 OFFSET ??_C@_01KBJDNOO@i@
  00017	ff 15 00 00 00
	00		 call	 DWORD PTR __imp__Py_BuildValue
  0001d	83 c4 08	 add	 esp, 8

; 765  : }

  00020	c3		 ret	 0
?appIsShowCursor@@YAPAU_object@@PAU1@0@Z ENDP		; appIsShowCursor
_TEXT	ENDS
; Function compile flags: /Ogtp
; File D:\Metin2 Server Files\mainline\SRC_2014\Metin2Client\UserInterface\PythonApplicationModule.cpp
;	COMDAT ?appHideCursor@@YAPAU_object@@PAU1@0@Z
_TEXT	SEGMENT
_poSelf$ = 8						; size = 4
_poArgs$ = 12						; size = 4
?appHideCursor@@YAPAU_object@@PAU1@0@Z PROC		; appHideCursor, COMDAT

; 757  : 	CPythonApplication::Instance().SetCursorVisible(FALSE);

  00000	8b 0d 00 00 00
	00		 mov	 ecx, DWORD PTR ?ms_pInstance@CPythonApplication@@1PAV1@A ; CPythonApplication::ms_pInstance
  00006	6a 00		 push	 0
  00008	6a 00		 push	 0
  0000a	e8 00 00 00 00	 call	 ?SetCursorVisible@CPythonApplication@@QAEXH_N@Z ; CPythonApplication::SetCursorVisible

; 758  : 
; 759  : 	return Py_BuildNone();

  0000f	e9 00 00 00 00	 jmp	 ?Py_BuildNone@@YAPAU_object@@XZ ; Py_BuildNone
?appHideCursor@@YAPAU_object@@PAU1@0@Z ENDP		; appHideCursor
_TEXT	ENDS
; Function compile flags: /Ogtp
; File D:\Metin2 Server Files\mainline\SRC_2014\Metin2Client\UserInterface\PythonApplicationModule.cpp
;	COMDAT ?appShowCursor@@YAPAU_object@@PAU1@0@Z
_TEXT	SEGMENT
_poSelf$ = 8						; size = 4
_poArgs$ = 12						; size = 4
?appShowCursor@@YAPAU_object@@PAU1@0@Z PROC		; appShowCursor, COMDAT

; 750  : 	CPythonApplication::Instance().SetCursorVisible(TRUE);

  00000	8b 0d 00 00 00
	00		 mov	 ecx, DWORD PTR ?ms_pInstance@CPythonApplication@@1PAV1@A ; CPythonApplication::ms_pInstance
  00006	6a 00		 push	 0
  00008	6a 01		 push	 1
  0000a	e8 00 00 00 00	 call	 ?SetCursorVisible@CPythonApplication@@QAEXH_N@Z ; CPythonApplication::SetCursorVisible

; 751  : 
; 752  : 	return Py_BuildNone();

  0000f	e9 00 00 00 00	 jmp	 ?Py_BuildNone@@YAPAU_object@@XZ ; Py_BuildNone
?appShowCursor@@YAPAU_object@@PAU1@0@Z ENDP		; appShowCursor
_TEXT	ENDS
; Function compile flags: /Ogtp
; File D:\Metin2 Server Files\mainline\SRC_2014\Metin2Client\UserInterface\PythonApplicationModule.cpp
;	COMDAT ?appGetCursor@@YAPAU_object@@PAU1@0@Z
_TEXT	SEGMENT
_poSelf$ = 8						; size = 4
_poArgs$ = 12						; size = 4
?appGetCursor@@YAPAU_object@@PAU1@0@Z PROC		; appGetCursor, COMDAT

; 745  : 	return Py_BuildValue("i", CPythonApplication::Instance().GetCursorNum());

  00000	a1 00 00 00 00	 mov	 eax, DWORD PTR ?ms_pInstance@CPythonApplication@@1PAV1@A ; CPythonApplication::ms_pInstance
  00005	ff b0 9c ee 01
	00		 push	 DWORD PTR [eax+126620]
  0000b	68 00 00 00 00	 push	 OFFSET ??_C@_01KBJDNOO@i@
  00010	ff 15 00 00 00
	00		 call	 DWORD PTR __imp__Py_BuildValue
  00016	83 c4 08	 add	 esp, 8

; 746  : }

  00019	c3		 ret	 0
?appGetCursor@@YAPAU_object@@PAU1@0@Z ENDP		; appGetCursor
_TEXT	ENDS
; Function compile flags: /Ogtp
; File D:\Metin2 Server Files\mainline\SRC_2014\Metin2Client\UserInterface\PythonApplicationModule.cpp
;	COMDAT ?appSetCursor@@YAPAU_object@@PAU1@0@Z
_TEXT	SEGMENT
_iCursorNum$ = -4					; size = 4
_poSelf$ = 8						; size = 4
_poArgs$ = 12						; size = 4
?appSetCursor@@YAPAU_object@@PAU1@0@Z PROC		; appSetCursor, COMDAT

; 724  : {

  00000	55		 push	 ebp
  00001	8b ec		 mov	 ebp, esp
  00003	51		 push	 ecx

; 725  : /*
; 726  : 	char * szName;
; 727  : 	if (!PyTuple_GetString(poArgs, 0, &szName))
; 728  : 		return Py_BuildException();
; 729  : 
; 730  : 	if (!CPythonApplication::Instance().SetHardwareCursor(szName))
; 731  : 		return Py_BuildException("Wrong Cursor Name [%s]", szName);
; 732  : */
; 733  : 	int iCursorNum;
; 734  : 	if (!PyTuple_GetInteger(poArgs, 0, &iCursorNum))

  00004	8d 45 fc	 lea	 eax, DWORD PTR _iCursorNum$[ebp]
  00007	50		 push	 eax
  00008	6a 00		 push	 0
  0000a	ff 75 0c	 push	 DWORD PTR _poArgs$[ebp]
  0000d	e8 00 00 00 00	 call	 ?PyTuple_GetInteger@@YA_NPAU_object@@HPAH@Z ; PyTuple_GetInteger
  00012	83 c4 0c	 add	 esp, 12			; 0000000cH
  00015	84 c0		 test	 al, al
  00017	75 0e		 jne	 SHORT $LN2@appSetCurs

; 735  : 		return Py_BuildException();

  00019	6a 00		 push	 0
  0001b	e8 00 00 00 00	 call	 ?Py_BuildException@@YAPAU_object@@PBDZZ ; Py_BuildException
  00020	83 c4 04	 add	 esp, 4

; 741  : }

  00023	8b e5		 mov	 esp, ebp
  00025	5d		 pop	 ebp
  00026	c3		 ret	 0
$LN2@appSetCurs:

; 736  : 	
; 737  : 	if (!CPythonApplication::Instance().SetCursorNum(iCursorNum))

  00027	ff 75 fc	 push	 DWORD PTR _iCursorNum$[ebp]
  0002a	8b 0d 00 00 00
	00		 mov	 ecx, DWORD PTR ?ms_pInstance@CPythonApplication@@1PAV1@A ; CPythonApplication::ms_pInstance
  00030	e8 00 00 00 00	 call	 ?SetCursorNum@CPythonApplication@@QAEHH@Z ; CPythonApplication::SetCursorNum
  00035	85 c0		 test	 eax, eax
  00037	75 14		 jne	 SHORT $LN3@appSetCurs

; 738  : 		return Py_BuildException("Wrong Cursor Name [%d]", iCursorNum);

  00039	ff 75 fc	 push	 DWORD PTR _iCursorNum$[ebp]
  0003c	68 00 00 00 00	 push	 OFFSET ??_C@_0BH@GNAGLJEE@Wrong?5Cursor?5Name?5?$FL?$CFd?$FN@
  00041	e8 00 00 00 00	 call	 ?Py_BuildException@@YAPAU_object@@PBDZZ ; Py_BuildException
  00046	83 c4 08	 add	 esp, 8

; 741  : }

  00049	8b e5		 mov	 esp, ebp
  0004b	5d		 pop	 ebp
  0004c	c3		 ret	 0
$LN3@appSetCurs:

; 739  : 
; 740  : 	return Py_BuildNone();

  0004d	e8 00 00 00 00	 call	 ?Py_BuildNone@@YAPAU_object@@XZ ; Py_BuildNone

; 741  : }

  00052	8b e5		 mov	 esp, ebp
  00054	5d		 pop	 ebp
  00055	c3		 ret	 0
?appSetCursor@@YAPAU_object@@PAU1@0@Z ENDP		; appSetCursor
_TEXT	ENDS
; Function compile flags: /Ogtp
; File D:\Metin2 Server Files\mainline\SRC_2014\Metin2Client\UserInterface\PythonApplicationModule.cpp
;	COMDAT ?appIsPressed@@YAPAU_object@@PAU1@0@Z
_TEXT	SEGMENT
_iKey$ = -4						; size = 4
_poSelf$ = 8						; size = 4
_poArgs$ = 12						; size = 4
?appIsPressed@@YAPAU_object@@PAU1@0@Z PROC		; appIsPressed, COMDAT

; 715  : {

  00000	55		 push	 ebp
  00001	8b ec		 mov	 ebp, esp
  00003	51		 push	 ecx

; 716  : 	int iKey;
; 717  : 	if (!PyTuple_GetInteger(poArgs, 0, &iKey))

  00004	8d 45 fc	 lea	 eax, DWORD PTR _iKey$[ebp]
  00007	50		 push	 eax
  00008	6a 00		 push	 0
  0000a	ff 75 0c	 push	 DWORD PTR _poArgs$[ebp]
  0000d	e8 00 00 00 00	 call	 ?PyTuple_GetInteger@@YA_NPAU_object@@HPAH@Z ; PyTuple_GetInteger
  00012	83 c4 0c	 add	 esp, 12			; 0000000cH
  00015	84 c0		 test	 al, al
  00017	75 0e		 jne	 SHORT $LN2@appIsPress

; 718  : 		return Py_BuildException();

  00019	6a 00		 push	 0
  0001b	e8 00 00 00 00	 call	 ?Py_BuildException@@YAPAU_object@@PBDZZ ; Py_BuildException
  00020	83 c4 04	 add	 esp, 4

; 721  : }

  00023	8b e5		 mov	 esp, ebp
  00025	5d		 pop	 ebp
  00026	c3		 ret	 0
$LN2@appIsPress:

; 719  : 
; 720  : 	return Py_BuildValue("i", CPythonApplication::Instance().IsPressed(iKey));

  00027	8b 0d 00 00 00
	00		 mov	 ecx, DWORD PTR ?ms_pInstance@CPythonApplication@@1PAV1@A ; CPythonApplication::ms_pInstance
  0002d	ff 75 fc	 push	 DWORD PTR _iKey$[ebp]
  00030	8d 49 1c	 lea	 ecx, DWORD PTR [ecx+28]
  00033	e8 00 00 00 00	 call	 ?IsPressed@CInputKeyboard@@QAE_NH@Z ; CInputKeyboard::IsPressed
  00038	0f b6 c0	 movzx	 eax, al
  0003b	50		 push	 eax
  0003c	68 00 00 00 00	 push	 OFFSET ??_C@_01KBJDNOO@i@
  00041	ff 15 00 00 00
	00		 call	 DWORD PTR __imp__Py_BuildValue
  00047	83 c4 08	 add	 esp, 8

; 721  : }

  0004a	8b e5		 mov	 esp, ebp
  0004c	5d		 pop	 ebp
  0004d	c3		 ret	 0
?appIsPressed@@YAPAU_object@@PAU1@0@Z ENDP		; appIsPressed
_TEXT	ENDS
; Function compile flags: /Ogtp
; File D:\Metin2 Server Files\mainline\SRC_2014\Metin2Client\UserInterface\PythonApplicationModule.cpp
;	COMDAT ?appRunPythonFile@@YAPAU_object@@PAU1@0@Z
_TEXT	SEGMENT
_szFileName$ = -4					; size = 4
_poSelf$ = 8						; size = 4
_poArgs$ = 12						; size = 4
?appRunPythonFile@@YAPAU_object@@PAU1@0@Z PROC		; appRunPythonFile, COMDAT

; 705  : {

  00000	55		 push	 ebp
  00001	8b ec		 mov	 ebp, esp
  00003	51		 push	 ecx

; 706  : 	char *szFileName;
; 707  : 	if (!PyTuple_GetString(poArgs, 0, &szFileName))

  00004	8d 45 fc	 lea	 eax, DWORD PTR _szFileName$[ebp]
  00007	50		 push	 eax
  00008	6a 00		 push	 0
  0000a	ff 75 0c	 push	 DWORD PTR _poArgs$[ebp]
  0000d	e8 00 00 00 00	 call	 ?PyTuple_GetString@@YA_NPAU_object@@HPAPAD@Z ; PyTuple_GetString
  00012	83 c4 0c	 add	 esp, 12			; 0000000cH
  00015	84 c0		 test	 al, al
  00017	75 0e		 jne	 SHORT $LN2@appRunPyth

; 708  : 		return Py_BuildException();

  00019	6a 00		 push	 0
  0001b	e8 00 00 00 00	 call	 ?Py_BuildException@@YAPAU_object@@PBDZZ ; Py_BuildException
  00020	83 c4 04	 add	 esp, 4

; 712  : }

  00023	8b e5		 mov	 esp, ebp
  00025	5d		 pop	 ebp
  00026	c3		 ret	 0
$LN2@appRunPyth:

; 709  : 
; 710  : 	bool ret = CPythonLauncher::Instance().RunFile(szFileName);

  00027	ff 75 fc	 push	 DWORD PTR _szFileName$[ebp]
  0002a	8b 0d 00 00 00
	00		 mov	 ecx, DWORD PTR ?ms_singleton@?$CSingleton@VCPythonLauncher@@@@0PAVCPythonLauncher@@A ; CSingleton<CPythonLauncher>::ms_singleton
  00030	e8 00 00 00 00	 call	 ?RunFile@CPythonLauncher@@QAE_NPBD@Z ; CPythonLauncher::RunFile

; 711  : 	return Py_BuildValue("i", ret);

  00035	0f b6 c0	 movzx	 eax, al
  00038	50		 push	 eax
  00039	68 00 00 00 00	 push	 OFFSET ??_C@_01KBJDNOO@i@
  0003e	ff 15 00 00 00
	00		 call	 DWORD PTR __imp__Py_BuildValue
  00044	83 c4 08	 add	 esp, 8

; 712  : }

  00047	8b e5		 mov	 esp, ebp
  00049	5d		 pop	 ebp
  0004a	c3		 ret	 0
?appRunPythonFile@@YAPAU_object@@PAU1@0@Z ENDP		; appRunPythonFile
_TEXT	ENDS
; Function compile flags: /Ogtp
; File D:\Metin2 Server Files\mainline\SRC_2014\Metin2Client\UserInterface\PythonApplicationModule.cpp
;	COMDAT ?appGetCursorPosition@@YAPAU_object@@PAU1@0@Z
_TEXT	SEGMENT
_lx$ = -8						; size = 4
_ly$ = -4						; size = 4
_poSelf$ = 8						; size = 4
_poArgs$ = 12						; size = 4
?appGetCursorPosition@@YAPAU_object@@PAU1@0@Z PROC	; appGetCursorPosition, COMDAT

; 696  : {

  00000	55		 push	 ebp
  00001	8b ec		 mov	 ebp, esp
  00003	83 ec 08	 sub	 esp, 8

; 697  : 	long lx, ly;
; 698  : 	UI::CWindowManager& rkWndMgr=UI::CWindowManager::Instance();
; 699  : 	rkWndMgr.GetMousePosition(lx, ly);

  00006	8b 0d 00 00 00
	00		 mov	 ecx, DWORD PTR ?ms_singleton@?$CSingleton@VCWindowManager@UI@@@@0PAVCWindowManager@UI@@A ; CSingleton<UI::CWindowManager>::ms_singleton
  0000c	8d 45 fc	 lea	 eax, DWORD PTR _ly$[ebp]
  0000f	50		 push	 eax
  00010	8d 45 f8	 lea	 eax, DWORD PTR _lx$[ebp]
  00013	50		 push	 eax
  00014	e8 00 00 00 00	 call	 ?GetMousePosition@CWindowManager@UI@@QAEXAAJ0@Z ; UI::CWindowManager::GetMousePosition

; 700  : 
; 701  : 	return Py_BuildValue("ii", lx, ly);

  00019	ff 75 fc	 push	 DWORD PTR _ly$[ebp]
  0001c	ff 75 f8	 push	 DWORD PTR _lx$[ebp]
  0001f	68 00 00 00 00	 push	 OFFSET ??_C@_02PDIHAGKM@ii@
  00024	ff 15 00 00 00
	00		 call	 DWORD PTR __imp__Py_BuildValue
  0002a	83 c4 0c	 add	 esp, 12			; 0000000cH

; 702  : }

  0002d	8b e5		 mov	 esp, ebp
  0002f	5d		 pop	 ebp
  00030	c3		 ret	 0
?appGetCursorPosition@@YAPAU_object@@PAU1@0@Z ENDP	; appGetCursorPosition
_TEXT	ENDS
; Function compile flags: /Ogtp
; File D:\Metin2 Server Files\mainline\SRC_2014\Metin2Client\UserInterface\PythonApplicationModule.cpp
;	COMDAT ?appSetCenterPosition@@YAPAU_object@@PAU1@0@Z
_TEXT	SEGMENT
_fx$ = -12						; size = 4
_fy$ = -8						; size = 4
_fz$ = -4						; size = 4
_poSelf$ = 8						; size = 4
_poArgs$ = 12						; size = 4
?appSetCenterPosition@@YAPAU_object@@PAU1@0@Z PROC	; appSetCenterPosition, COMDAT

; 678  : {

  00000	55		 push	 ebp
  00001	8b ec		 mov	 ebp, esp
  00003	83 ec 0c	 sub	 esp, 12			; 0000000cH

; 679  : 	float fx;
; 680  : 	if (!PyTuple_GetFloat(poArgs, 0, &fx))

  00006	8d 45 f4	 lea	 eax, DWORD PTR _fx$[ebp]
  00009	56		 push	 esi
  0000a	8b 75 0c	 mov	 esi, DWORD PTR _poArgs$[ebp]
  0000d	50		 push	 eax
  0000e	6a 00		 push	 0
  00010	56		 push	 esi
  00011	e8 00 00 00 00	 call	 ?PyTuple_GetFloat@@YA_NPAU_object@@HPAM@Z ; PyTuple_GetFloat
  00016	83 c4 0c	 add	 esp, 12			; 0000000cH
  00019	84 c0		 test	 al, al
  0001b	75 0f		 jne	 SHORT $LN2@appSetCent
$LN6@appSetCent:

; 693  : }

  0001d	6a 00		 push	 0
  0001f	e8 00 00 00 00	 call	 ?Py_BuildException@@YAPAU_object@@PBDZZ ; Py_BuildException
  00024	83 c4 04	 add	 esp, 4
  00027	5e		 pop	 esi
  00028	8b e5		 mov	 esp, ebp
  0002a	5d		 pop	 ebp
  0002b	c3		 ret	 0
$LN2@appSetCent:

; 681  : 		return Py_BuildException();
; 682  : 
; 683  : 	float fy;
; 684  : 	if (!PyTuple_GetFloat(poArgs, 1, &fy))

  0002c	8d 45 f8	 lea	 eax, DWORD PTR _fy$[ebp]
  0002f	50		 push	 eax
  00030	6a 01		 push	 1
  00032	56		 push	 esi
  00033	e8 00 00 00 00	 call	 ?PyTuple_GetFloat@@YA_NPAU_object@@HPAM@Z ; PyTuple_GetFloat
  00038	83 c4 0c	 add	 esp, 12			; 0000000cH
  0003b	84 c0		 test	 al, al
  0003d	74 de		 je	 SHORT $LN6@appSetCent

; 685  : 		return Py_BuildException();
; 686  : 
; 687  : 	float fz;
; 688  : 	if (!PyTuple_GetFloat(poArgs, 2, &fz))

  0003f	8d 45 fc	 lea	 eax, DWORD PTR _fz$[ebp]
  00042	50		 push	 eax
  00043	6a 02		 push	 2
  00045	56		 push	 esi
  00046	e8 00 00 00 00	 call	 ?PyTuple_GetFloat@@YA_NPAU_object@@HPAM@Z ; PyTuple_GetFloat
  0004b	83 c4 0c	 add	 esp, 12			; 0000000cH
  0004e	84 c0		 test	 al, al
  00050	74 cb		 je	 SHORT $LN6@appSetCent

; 689  : 		return Py_BuildException();
; 690  : 
; 691  : 	CPythonApplication::Instance().SetCenterPosition(fx, -fy, fz);

  00052	8b 0d 00 00 00
	00		 mov	 ecx, DWORD PTR ?ms_pInstance@CPythonApplication@@1PAV1@A ; CPythonApplication::ms_pInstance
  00058	83 ec 0c	 sub	 esp, 12			; 0000000cH
  0005b	f3 0f 10 45 fc	 movss	 xmm0, DWORD PTR _fz$[ebp]
  00060	83 c1 20	 add	 ecx, 32			; 00000020H
  00063	f3 0f 11 44 24
	08		 movss	 DWORD PTR [esp+8], xmm0
  00069	f3 0f 10 45 f8	 movss	 xmm0, DWORD PTR _fy$[ebp]
  0006e	0f 57 05 00 00
	00 00		 xorps	 xmm0, DWORD PTR __xmm@80000000800000008000000080000000
  00075	8b 01		 mov	 eax, DWORD PTR [ecx]
  00077	f3 0f 11 44 24
	04		 movss	 DWORD PTR [esp+4], xmm0
  0007d	f3 0f 10 45 f4	 movss	 xmm0, DWORD PTR _fx$[ebp]
  00082	f3 0f 11 04 24	 movss	 DWORD PTR [esp], xmm0
  00087	ff 50 18	 call	 DWORD PTR [eax+24]

; 692  : 	return Py_BuildNone();

  0008a	e8 00 00 00 00	 call	 ?Py_BuildNone@@YAPAU_object@@XZ ; Py_BuildNone
  0008f	5e		 pop	 esi

; 693  : }

  00090	8b e5		 mov	 esp, ebp
  00092	5d		 pop	 ebp
  00093	c3		 ret	 0
?appSetCenterPosition@@YAPAU_object@@PAU1@0@Z ENDP	; appSetCenterPosition
_TEXT	ENDS
; Function compile flags: /Ogtp
; File D:\Metin2 Server Files\mainline\SRC_2014\Metin2Client\UserInterface\PythonApplicationModule.cpp
;	COMDAT ?appSetGlobalCenterPosition@@YAPAU_object@@PAU1@0@Z
_TEXT	SEGMENT
_x$ = -8						; size = 4
_y$ = -4						; size = 4
_poSelf$ = 8						; size = 4
_poArgs$ = 12						; size = 4
?appSetGlobalCenterPosition@@YAPAU_object@@PAU1@0@Z PROC ; appSetGlobalCenterPosition, COMDAT

; 663  : {

  00000	55		 push	 ebp
  00001	8b ec		 mov	 ebp, esp
  00003	83 ec 08	 sub	 esp, 8

; 664  : 	int x;
; 665  : 	if (!PyTuple_GetInteger(poArgs, 0, &x))

  00006	8d 45 f8	 lea	 eax, DWORD PTR _x$[ebp]
  00009	50		 push	 eax
  0000a	6a 00		 push	 0
  0000c	ff 75 0c	 push	 DWORD PTR _poArgs$[ebp]
  0000f	e8 00 00 00 00	 call	 ?PyTuple_GetInteger@@YA_NPAU_object@@HPAH@Z ; PyTuple_GetInteger
  00014	83 c4 0c	 add	 esp, 12			; 0000000cH
  00017	84 c0		 test	 al, al
  00019	75 0e		 jne	 SHORT $LN2@appSetGlob
$LN5@appSetGlob:

; 674  : }

  0001b	6a 00		 push	 0
  0001d	e8 00 00 00 00	 call	 ?Py_BuildException@@YAPAU_object@@PBDZZ ; Py_BuildException
  00022	83 c4 04	 add	 esp, 4
  00025	8b e5		 mov	 esp, ebp
  00027	5d		 pop	 ebp
  00028	c3		 ret	 0
$LN2@appSetGlob:

; 666  : 		return Py_BuildException();
; 667  : 
; 668  : 	int y;
; 669  : 	if (!PyTuple_GetInteger(poArgs, 1, &y))

  00029	8d 45 fc	 lea	 eax, DWORD PTR _y$[ebp]
  0002c	50		 push	 eax
  0002d	6a 01		 push	 1
  0002f	ff 75 0c	 push	 DWORD PTR _poArgs$[ebp]
  00032	e8 00 00 00 00	 call	 ?PyTuple_GetInteger@@YA_NPAU_object@@HPAH@Z ; PyTuple_GetInteger
  00037	83 c4 0c	 add	 esp, 12			; 0000000cH
  0003a	84 c0		 test	 al, al
  0003c	74 dd		 je	 SHORT $LN5@appSetGlob

; 670  : 		return Py_BuildException();
; 671  : 
; 672  : 	CPythonApplication::Instance().SetGlobalCenterPosition(x, y);

  0003e	ff 75 fc	 push	 DWORD PTR _y$[ebp]
  00041	8b 0d 00 00 00
	00		 mov	 ecx, DWORD PTR ?ms_pInstance@CPythonApplication@@1PAV1@A ; CPythonApplication::ms_pInstance
  00047	ff 75 f8	 push	 DWORD PTR _x$[ebp]
  0004a	e8 00 00 00 00	 call	 ?SetGlobalCenterPosition@CPythonApplication@@QAEXJJ@Z ; CPythonApplication::SetGlobalCenterPosition

; 673  : 	return Py_BuildNone();

  0004f	e8 00 00 00 00	 call	 ?Py_BuildNone@@YAPAU_object@@XZ ; Py_BuildNone

; 674  : }

  00054	8b e5		 mov	 esp, ebp
  00056	5d		 pop	 ebp
  00057	c3		 ret	 0
?appSetGlobalCenterPosition@@YAPAU_object@@PAU1@0@Z ENDP ; appSetGlobalCenterPosition
_TEXT	ENDS
; Function compile flags: /Ogtp
; File D:\Metin2 Server Files\mainline\SRC_2014\Metin2Client\UserInterface\PythonApplicationModule.cpp
;	COMDAT ?appSetFPS@@YAPAU_object@@PAU1@0@Z
_TEXT	SEGMENT
_iFPS$ = -4						; size = 4
_poSelf$ = 8						; size = 4
_poArgs$ = 12						; size = 4
?appSetFPS@@YAPAU_object@@PAU1@0@Z PROC			; appSetFPS, COMDAT

; 652  : {

  00000	55		 push	 ebp
  00001	8b ec		 mov	 ebp, esp
  00003	51		 push	 ecx

; 653  : 	int	iFPS;
; 654  : 	if (!PyTuple_GetInteger(poArgs, 0, &iFPS))

  00004	8d 45 fc	 lea	 eax, DWORD PTR _iFPS$[ebp]
  00007	50		 push	 eax
  00008	6a 00		 push	 0
  0000a	ff 75 0c	 push	 DWORD PTR _poArgs$[ebp]
  0000d	e8 00 00 00 00	 call	 ?PyTuple_GetInteger@@YA_NPAU_object@@HPAH@Z ; PyTuple_GetInteger
  00012	83 c4 0c	 add	 esp, 12			; 0000000cH
  00015	84 c0		 test	 al, al
  00017	75 0e		 jne	 SHORT $LN2@appSetFPS

; 655  : 		return Py_BuildException();

  00019	6a 00		 push	 0
  0001b	e8 00 00 00 00	 call	 ?Py_BuildException@@YAPAU_object@@PBDZZ ; Py_BuildException
  00020	83 c4 04	 add	 esp, 4

; 660  : }

  00023	8b e5		 mov	 esp, ebp
  00025	5d		 pop	 ebp
  00026	c3		 ret	 0
$LN2@appSetFPS:

; 656  : 
; 657  : 	CPythonApplication::Instance().SetFPS(iFPS);

  00027	ff 75 fc	 push	 DWORD PTR _iFPS$[ebp]
  0002a	8b 0d 00 00 00
	00		 mov	 ecx, DWORD PTR ?ms_pInstance@CPythonApplication@@1PAV1@A ; CPythonApplication::ms_pInstance
  00030	e8 00 00 00 00	 call	 ?SetFPS@CPythonApplication@@QAEXH@Z ; CPythonApplication::SetFPS

; 658  : 
; 659  : 	return Py_BuildNone();

  00035	e8 00 00 00 00	 call	 ?Py_BuildNone@@YAPAU_object@@XZ ; Py_BuildNone

; 660  : }

  0003a	8b e5		 mov	 esp, ebp
  0003c	5d		 pop	 ebp
  0003d	c3		 ret	 0
?appSetFPS@@YAPAU_object@@PAU1@0@Z ENDP			; appSetFPS
_TEXT	ENDS
; Function compile flags: /Ogtp
; File D:\Metin2 Server Files\mainline\SRC_2014\Metin2Client\UserInterface\PythonApplicationModule.cpp
;	COMDAT ?appGetAvaiableTextureMememory@@YAPAU_object@@PAU1@0@Z
_TEXT	SEGMENT
_poSelf$ = 8						; size = 4
_poArgs$ = 12						; size = 4
?appGetAvaiableTextureMememory@@YAPAU_object@@PAU1@0@Z PROC ; appGetAvaiableTextureMememory, COMDAT

; 648  : 	return Py_BuildValue("i", CGraphicBase::GetAvailableTextureMemory());

  00000	e8 00 00 00 00	 call	 ?GetAvailableTextureMemory@CGraphicBase@@SAKXZ ; CGraphicBase::GetAvailableTextureMemory
  00005	50		 push	 eax
  00006	68 00 00 00 00	 push	 OFFSET ??_C@_01KBJDNOO@i@
  0000b	ff 15 00 00 00
	00		 call	 DWORD PTR __imp__Py_BuildValue
  00011	83 c4 08	 add	 esp, 8

; 649  : }

  00014	c3		 ret	 0
?appGetAvaiableTextureMememory@@YAPAU_object@@PAU1@0@Z ENDP ; appGetAvaiableTextureMememory
_TEXT	ENDS
; Function compile flags: /Ogtp
; File D:\Metin2 Server Files\mainline\SRC_2014\Metin2Client\UserInterface\PythonApplicationModule.cpp
;	COMDAT ?appGetFaceCount@@YAPAU_object@@PAU1@0@Z
_TEXT	SEGMENT
_poSelf$ = 8						; size = 4
_poArgs$ = 12						; size = 4
?appGetFaceCount@@YAPAU_object@@PAU1@0@Z PROC		; appGetFaceCount, COMDAT

; 643  : 	return Py_BuildValue("i", CPythonApplication::Instance().GetFaceCount());

  00000	a1 00 00 00 00	 mov	 eax, DWORD PTR ?ms_pInstance@CPythonApplication@@1PAV1@A ; CPythonApplication::ms_pInstance
  00005	ff b0 44 ee 01
	00		 push	 DWORD PTR [eax+126532]
  0000b	68 00 00 00 00	 push	 OFFSET ??_C@_01KBJDNOO@i@
  00010	ff 15 00 00 00
	00		 call	 DWORD PTR __imp__Py_BuildValue
  00016	83 c4 08	 add	 esp, 8

; 644  : }

  00019	c3		 ret	 0
?appGetFaceCount@@YAPAU_object@@PAU1@0@Z ENDP		; appGetFaceCount
_TEXT	ENDS
; Function compile flags: /Ogtp
; File D:\Metin2 Server Files\mainline\SRC_2014\Metin2Client\UserInterface\PythonApplicationModule.cpp
;	COMDAT ?appGetLoad@@YAPAU_object@@PAU1@0@Z
_TEXT	SEGMENT
_poSelf$ = 8						; size = 4
_poArgs$ = 12						; size = 4
?appGetLoad@@YAPAU_object@@PAU1@0@Z PROC		; appGetLoad, COMDAT

; 639  : 	return Py_BuildValue("i", CPythonApplication::Instance().GetLoad());

  00000	a1 00 00 00 00	 mov	 eax, DWORD PTR ?ms_pInstance@CPythonApplication@@1PAV1@A ; CPythonApplication::ms_pInstance
  00005	ff b0 58 ed 01
	00		 push	 DWORD PTR [eax+126296]
  0000b	68 00 00 00 00	 push	 OFFSET ??_C@_01KBJDNOO@i@
  00010	ff 15 00 00 00
	00		 call	 DWORD PTR __imp__Py_BuildValue
  00016	83 c4 08	 add	 esp, 8

; 640  : }

  00019	c3		 ret	 0
?appGetLoad@@YAPAU_object@@PAU1@0@Z ENDP		; appGetLoad
_TEXT	ENDS
; Function compile flags: /Ogtp
; File D:\Metin2 Server Files\mainline\SRC_2014\Metin2Client\UserInterface\PythonApplicationModule.cpp
;	COMDAT ?appGetUpdateTime@@YAPAU_object@@PAU1@0@Z
_TEXT	SEGMENT
_poSelf$ = 8						; size = 4
_poArgs$ = 12						; size = 4
?appGetUpdateTime@@YAPAU_object@@PAU1@0@Z PROC		; appGetUpdateTime, COMDAT

; 634  : 	return Py_BuildValue("i", CPythonApplication::Instance().GetCurUpdateTime());

  00000	a1 00 00 00 00	 mov	 eax, DWORD PTR ?ms_pInstance@CPythonApplication@@1PAV1@A ; CPythonApplication::ms_pInstance
  00005	ff b0 54 ed 01
	00		 push	 DWORD PTR [eax+126292]
  0000b	68 00 00 00 00	 push	 OFFSET ??_C@_01KBJDNOO@i@
  00010	ff 15 00 00 00
	00		 call	 DWORD PTR __imp__Py_BuildValue
  00016	83 c4 08	 add	 esp, 8

; 635  : }

  00019	c3		 ret	 0
?appGetUpdateTime@@YAPAU_object@@PAU1@0@Z ENDP		; appGetUpdateTime
_TEXT	ENDS
; Function compile flags: /Ogtp
; File D:\Metin2 Server Files\mainline\SRC_2014\Metin2Client\UserInterface\PythonApplicationModule.cpp
;	COMDAT ?appGetRenderTime@@YAPAU_object@@PAU1@0@Z
_TEXT	SEGMENT
_poSelf$ = 8						; size = 4
_poArgs$ = 12						; size = 4
?appGetRenderTime@@YAPAU_object@@PAU1@0@Z PROC		; appGetRenderTime, COMDAT

; 627  : 	return Py_BuildValue("fi", 

  00000	a1 00 00 00 00	 mov	 eax, DWORD PTR ?ms_pInstance@CPythonApplication@@1PAV1@A ; CPythonApplication::ms_pInstance
  00005	f3 0f 10 80 4c
	ed 01 00	 movss	 xmm0, DWORD PTR [eax+126284]
  0000d	ff b0 50 ed 01
	00		 push	 DWORD PTR [eax+126288]
  00013	0f 5a c0	 cvtps2pd xmm0, xmm0
  00016	83 ec 08	 sub	 esp, 8
  00019	f2 0f 11 04 24	 movsd	 QWORD PTR [esp], xmm0
  0001e	68 00 00 00 00	 push	 OFFSET ??_C@_02PINLEBJB@fi@
  00023	ff 15 00 00 00
	00		 call	 DWORD PTR __imp__Py_BuildValue
  00029	83 c4 10	 add	 esp, 16			; 00000010H

; 628  : 		CPythonApplication::Instance().GetAveRenderTime(),
; 629  : 		CPythonApplication::Instance().GetCurRenderTime());
; 630  : }

  0002c	c3		 ret	 0
?appGetRenderTime@@YAPAU_object@@PAU1@0@Z ENDP		; appGetRenderTime
_TEXT	ENDS
; Function compile flags: /Ogtp
; File D:\Metin2 Server Files\mainline\SRC_2014\Metin2Client\UserInterface\PythonApplicationModule.cpp
;	COMDAT ?appGetFaceSpeed@@YAPAU_object@@PAU1@0@Z
_TEXT	SEGMENT
_poSelf$ = 8						; size = 4
_poArgs$ = 12						; size = 4
?appGetFaceSpeed@@YAPAU_object@@PAU1@0@Z PROC		; appGetFaceSpeed, COMDAT

; 622  : 	return Py_BuildValue("f", CPythonApplication::Instance().GetFaceSpeed());

  00000	a1 00 00 00 00	 mov	 eax, DWORD PTR ?ms_pInstance@CPythonApplication@@1PAV1@A ; CPythonApplication::ms_pInstance
  00005	83 ec 08	 sub	 esp, 8
  00008	f3 0f 10 80 28
	ee 01 00	 movss	 xmm0, DWORD PTR [eax+126504]
  00010	0f 5a c0	 cvtps2pd xmm0, xmm0
  00013	f2 0f 11 04 24	 movsd	 QWORD PTR [esp], xmm0
  00018	68 00 00 00 00	 push	 OFFSET ??_C@_01INIBCBCB@f@
  0001d	ff 15 00 00 00
	00		 call	 DWORD PTR __imp__Py_BuildValue
  00023	83 c4 0c	 add	 esp, 12			; 0000000cH

; 623  : }

  00026	c3		 ret	 0
?appGetFaceSpeed@@YAPAU_object@@PAU1@0@Z ENDP		; appGetFaceSpeed
_TEXT	ENDS
; Function compile flags: /Ogtp
; File D:\Metin2 Server Files\mainline\SRC_2014\Metin2Client\UserInterface\PythonApplicationModule.cpp
;	COMDAT ?appMovieResetCamera@@YAPAU_object@@PAU1@0@Z
_TEXT	SEGMENT
_poSelf$ = 8						; size = 4
_poArgs$ = 12						; size = 4
?appMovieResetCamera@@YAPAU_object@@PAU1@0@Z PROC	; appMovieResetCamera, COMDAT

; 616  : 	CPythonApplication::Instance().MovieResetCamera();

  00000	8b 0d 00 00 00
	00		 mov	 ecx, DWORD PTR ?ms_pInstance@CPythonApplication@@1PAV1@A ; CPythonApplication::ms_pInstance
  00006	e8 00 00 00 00	 call	 ?MovieResetCamera@CPythonApplication@@QAEXXZ ; CPythonApplication::MovieResetCamera

; 617  : 	return Py_BuildNone();

  0000b	e9 00 00 00 00	 jmp	 ?Py_BuildNone@@YAPAU_object@@XZ ; Py_BuildNone
?appMovieResetCamera@@YAPAU_object@@PAU1@0@Z ENDP	; appMovieResetCamera
_TEXT	ENDS
; Function compile flags: /Ogtp
; File D:\Metin2 Server Files\mainline\SRC_2014\Metin2Client\UserInterface\PythonApplicationModule.cpp
;	COMDAT ?appMovieZoomCamera@@YAPAU_object@@PAU1@0@Z
_TEXT	SEGMENT
_iDirection$ = -4					; size = 4
_poSelf$ = 8						; size = 4
_poArgs$ = 12						; size = 4
?appMovieZoomCamera@@YAPAU_object@@PAU1@0@Z PROC	; appMovieZoomCamera, COMDAT

; 606  : {

  00000	55		 push	 ebp
  00001	8b ec		 mov	 ebp, esp
  00003	51		 push	 ecx

; 607  : 	int iDirection;
; 608  : 	if (!PyTuple_GetInteger(poArgs, 0, &iDirection))

  00004	8d 45 fc	 lea	 eax, DWORD PTR _iDirection$[ebp]
  00007	50		 push	 eax
  00008	6a 00		 push	 0
  0000a	ff 75 0c	 push	 DWORD PTR _poArgs$[ebp]
  0000d	e8 00 00 00 00	 call	 ?PyTuple_GetInteger@@YA_NPAU_object@@HPAH@Z ; PyTuple_GetInteger
  00012	83 c4 0c	 add	 esp, 12			; 0000000cH
  00015	84 c0		 test	 al, al
  00017	75 0e		 jne	 SHORT $LN2@appMovieZo

; 609  : 		return Py_BuildException();

  00019	6a 00		 push	 0
  0001b	e8 00 00 00 00	 call	 ?Py_BuildException@@YAPAU_object@@PBDZZ ; Py_BuildException
  00020	83 c4 04	 add	 esp, 4

; 612  : }

  00023	8b e5		 mov	 esp, ebp
  00025	5d		 pop	 ebp
  00026	c3		 ret	 0
$LN2@appMovieZo:

; 610  : 	CPythonApplication::Instance().MovieZoomCamera(iDirection);

  00027	ff 75 fc	 push	 DWORD PTR _iDirection$[ebp]
  0002a	8b 0d 00 00 00
	00		 mov	 ecx, DWORD PTR ?ms_pInstance@CPythonApplication@@1PAV1@A ; CPythonApplication::ms_pInstance
  00030	e8 00 00 00 00	 call	 ?MovieZoomCamera@CPythonApplication@@QAEXH@Z ; CPythonApplication::MovieZoomCamera

; 611  : 	return Py_BuildNone();

  00035	e8 00 00 00 00	 call	 ?Py_BuildNone@@YAPAU_object@@XZ ; Py_BuildNone

; 612  : }

  0003a	8b e5		 mov	 esp, ebp
  0003c	5d		 pop	 ebp
  0003d	c3		 ret	 0
?appMovieZoomCamera@@YAPAU_object@@PAU1@0@Z ENDP	; appMovieZoomCamera
_TEXT	ENDS
; Function compile flags: /Ogtp
; File D:\Metin2 Server Files\mainline\SRC_2014\Metin2Client\UserInterface\PythonApplicationModule.cpp
;	COMDAT ?appMoviePitchCamera@@YAPAU_object@@PAU1@0@Z
_TEXT	SEGMENT
_iDirection$ = -4					; size = 4
_poSelf$ = 8						; size = 4
_poArgs$ = 12						; size = 4
?appMoviePitchCamera@@YAPAU_object@@PAU1@0@Z PROC	; appMoviePitchCamera, COMDAT

; 597  : {

  00000	55		 push	 ebp
  00001	8b ec		 mov	 ebp, esp
  00003	51		 push	 ecx

; 598  : 	int iDirection;
; 599  : 	if (!PyTuple_GetInteger(poArgs, 0, &iDirection))

  00004	8d 45 fc	 lea	 eax, DWORD PTR _iDirection$[ebp]
  00007	50		 push	 eax
  00008	6a 00		 push	 0
  0000a	ff 75 0c	 push	 DWORD PTR _poArgs$[ebp]
  0000d	e8 00 00 00 00	 call	 ?PyTuple_GetInteger@@YA_NPAU_object@@HPAH@Z ; PyTuple_GetInteger
  00012	83 c4 0c	 add	 esp, 12			; 0000000cH
  00015	84 c0		 test	 al, al
  00017	75 0e		 jne	 SHORT $LN2@appMoviePi

; 600  : 		return Py_BuildException();

  00019	6a 00		 push	 0
  0001b	e8 00 00 00 00	 call	 ?Py_BuildException@@YAPAU_object@@PBDZZ ; Py_BuildException
  00020	83 c4 04	 add	 esp, 4

; 603  : }

  00023	8b e5		 mov	 esp, ebp
  00025	5d		 pop	 ebp
  00026	c3		 ret	 0
$LN2@appMoviePi:

; 601  : 	CPythonApplication::Instance().MoviePitchCamera(iDirection);

  00027	ff 75 fc	 push	 DWORD PTR _iDirection$[ebp]
  0002a	8b 0d 00 00 00
	00		 mov	 ecx, DWORD PTR ?ms_pInstance@CPythonApplication@@1PAV1@A ; CPythonApplication::ms_pInstance
  00030	e8 00 00 00 00	 call	 ?MoviePitchCamera@CPythonApplication@@QAEXH@Z ; CPythonApplication::MoviePitchCamera

; 602  : 	return Py_BuildNone();

  00035	e8 00 00 00 00	 call	 ?Py_BuildNone@@YAPAU_object@@XZ ; Py_BuildNone

; 603  : }

  0003a	8b e5		 mov	 esp, ebp
  0003c	5d		 pop	 ebp
  0003d	c3		 ret	 0
?appMoviePitchCamera@@YAPAU_object@@PAU1@0@Z ENDP	; appMoviePitchCamera
_TEXT	ENDS
; Function compile flags: /Ogtp
; File D:\Metin2 Server Files\mainline\SRC_2014\Metin2Client\UserInterface\PythonApplicationModule.cpp
;	COMDAT ?appMovieRotateCamera@@YAPAU_object@@PAU1@0@Z
_TEXT	SEGMENT
_iDirection$ = -4					; size = 4
_poSelf$ = 8						; size = 4
_poArgs$ = 12						; size = 4
?appMovieRotateCamera@@YAPAU_object@@PAU1@0@Z PROC	; appMovieRotateCamera, COMDAT

; 588  : {

  00000	55		 push	 ebp
  00001	8b ec		 mov	 ebp, esp
  00003	51		 push	 ecx

; 589  : 	int iDirection;
; 590  : 	if (!PyTuple_GetInteger(poArgs, 0, &iDirection))

  00004	8d 45 fc	 lea	 eax, DWORD PTR _iDirection$[ebp]
  00007	50		 push	 eax
  00008	6a 00		 push	 0
  0000a	ff 75 0c	 push	 DWORD PTR _poArgs$[ebp]
  0000d	e8 00 00 00 00	 call	 ?PyTuple_GetInteger@@YA_NPAU_object@@HPAH@Z ; PyTuple_GetInteger
  00012	83 c4 0c	 add	 esp, 12			; 0000000cH
  00015	84 c0		 test	 al, al
  00017	75 0e		 jne	 SHORT $LN2@appMovieRo

; 591  : 		return Py_BuildException();

  00019	6a 00		 push	 0
  0001b	e8 00 00 00 00	 call	 ?Py_BuildException@@YAPAU_object@@PBDZZ ; Py_BuildException
  00020	83 c4 04	 add	 esp, 4

; 594  : }

  00023	8b e5		 mov	 esp, ebp
  00025	5d		 pop	 ebp
  00026	c3		 ret	 0
$LN2@appMovieRo:

; 592  : 	CPythonApplication::Instance().MovieRotateCamera(iDirection);

  00027	ff 75 fc	 push	 DWORD PTR _iDirection$[ebp]
  0002a	8b 0d 00 00 00
	00		 mov	 ecx, DWORD PTR ?ms_pInstance@CPythonApplication@@1PAV1@A ; CPythonApplication::ms_pInstance
  00030	e8 00 00 00 00	 call	 ?MovieRotateCamera@CPythonApplication@@QAEXH@Z ; CPythonApplication::MovieRotateCamera

; 593  : 	return Py_BuildNone();

  00035	e8 00 00 00 00	 call	 ?Py_BuildNone@@YAPAU_object@@XZ ; Py_BuildNone

; 594  : }

  0003a	8b e5		 mov	 esp, ebp
  0003c	5d		 pop	 ebp
  0003d	c3		 ret	 0
?appMovieRotateCamera@@YAPAU_object@@PAU1@0@Z ENDP	; appMovieRotateCamera
_TEXT	ENDS
; Function compile flags: /Ogtp
; File D:\Metin2 Server Files\mainline\SRC_2014\Metin2Client\UserInterface\PythonApplicationModule.cpp
;	COMDAT ?appZoomCamera@@YAPAU_object@@PAU1@0@Z
_TEXT	SEGMENT
_iDirection$ = -4					; size = 4
_poSelf$ = 8						; size = 4
_poArgs$ = 12						; size = 4
?appZoomCamera@@YAPAU_object@@PAU1@0@Z PROC		; appZoomCamera, COMDAT

; 579  : {

  00000	55		 push	 ebp
  00001	8b ec		 mov	 ebp, esp
  00003	51		 push	 ecx

; 580  : 	int iDirection;
; 581  : 	if (!PyTuple_GetInteger(poArgs, 0, &iDirection))

  00004	8d 45 fc	 lea	 eax, DWORD PTR _iDirection$[ebp]
  00007	50		 push	 eax
  00008	6a 00		 push	 0
  0000a	ff 75 0c	 push	 DWORD PTR _poArgs$[ebp]
  0000d	e8 00 00 00 00	 call	 ?PyTuple_GetInteger@@YA_NPAU_object@@HPAH@Z ; PyTuple_GetInteger
  00012	83 c4 0c	 add	 esp, 12			; 0000000cH
  00015	84 c0		 test	 al, al
  00017	75 0e		 jne	 SHORT $LN2@appZoomCam

; 582  : 		return Py_BuildException();

  00019	6a 00		 push	 0
  0001b	e8 00 00 00 00	 call	 ?Py_BuildException@@YAPAU_object@@PBDZZ ; Py_BuildException
  00020	83 c4 04	 add	 esp, 4

; 585  : }

  00023	8b e5		 mov	 esp, ebp
  00025	5d		 pop	 ebp
  00026	c3		 ret	 0
$LN2@appZoomCam:

; 583  : 	CPythonApplication::Instance().ZoomCamera(iDirection);

  00027	ff 75 fc	 push	 DWORD PTR _iDirection$[ebp]
  0002a	8b 0d 00 00 00
	00		 mov	 ecx, DWORD PTR ?ms_pInstance@CPythonApplication@@1PAV1@A ; CPythonApplication::ms_pInstance
  00030	e8 00 00 00 00	 call	 ?ZoomCamera@CPythonApplication@@QAEXH@Z ; CPythonApplication::ZoomCamera

; 584  : 	return Py_BuildNone();

  00035	e8 00 00 00 00	 call	 ?Py_BuildNone@@YAPAU_object@@XZ ; Py_BuildNone

; 585  : }

  0003a	8b e5		 mov	 esp, ebp
  0003c	5d		 pop	 ebp
  0003d	c3		 ret	 0
?appZoomCamera@@YAPAU_object@@PAU1@0@Z ENDP		; appZoomCamera
_TEXT	ENDS
; Function compile flags: /Ogtp
; File D:\Metin2 Server Files\mainline\SRC_2014\Metin2Client\UserInterface\PythonApplicationModule.cpp
;	COMDAT ?appPitchCamera@@YAPAU_object@@PAU1@0@Z
_TEXT	SEGMENT
_iDirection$ = -4					; size = 4
_poSelf$ = 8						; size = 4
_poArgs$ = 12						; size = 4
?appPitchCamera@@YAPAU_object@@PAU1@0@Z PROC		; appPitchCamera, COMDAT

; 570  : {

  00000	55		 push	 ebp
  00001	8b ec		 mov	 ebp, esp
  00003	51		 push	 ecx

; 571  : 	int iDirection;
; 572  : 	if (!PyTuple_GetInteger(poArgs, 0, &iDirection))

  00004	8d 45 fc	 lea	 eax, DWORD PTR _iDirection$[ebp]
  00007	50		 push	 eax
  00008	6a 00		 push	 0
  0000a	ff 75 0c	 push	 DWORD PTR _poArgs$[ebp]
  0000d	e8 00 00 00 00	 call	 ?PyTuple_GetInteger@@YA_NPAU_object@@HPAH@Z ; PyTuple_GetInteger
  00012	83 c4 0c	 add	 esp, 12			; 0000000cH
  00015	84 c0		 test	 al, al
  00017	75 0e		 jne	 SHORT $LN2@appPitchCa

; 573  : 		return Py_BuildException();

  00019	6a 00		 push	 0
  0001b	e8 00 00 00 00	 call	 ?Py_BuildException@@YAPAU_object@@PBDZZ ; Py_BuildException
  00020	83 c4 04	 add	 esp, 4

; 576  : }

  00023	8b e5		 mov	 esp, ebp
  00025	5d		 pop	 ebp
  00026	c3		 ret	 0
$LN2@appPitchCa:

; 574  : 	CPythonApplication::Instance().PitchCamera(iDirection);

  00027	ff 75 fc	 push	 DWORD PTR _iDirection$[ebp]
  0002a	8b 0d 00 00 00
	00		 mov	 ecx, DWORD PTR ?ms_pInstance@CPythonApplication@@1PAV1@A ; CPythonApplication::ms_pInstance
  00030	e8 00 00 00 00	 call	 ?PitchCamera@CPythonApplication@@QAEXH@Z ; CPythonApplication::PitchCamera

; 575  : 	return Py_BuildNone();

  00035	e8 00 00 00 00	 call	 ?Py_BuildNone@@YAPAU_object@@XZ ; Py_BuildNone

; 576  : }

  0003a	8b e5		 mov	 esp, ebp
  0003c	5d		 pop	 ebp
  0003d	c3		 ret	 0
?appPitchCamera@@YAPAU_object@@PAU1@0@Z ENDP		; appPitchCamera
_TEXT	ENDS
; Function compile flags: /Ogtp
; File D:\Metin2 Server Files\mainline\SRC_2014\Metin2Client\UserInterface\PythonApplicationModule.cpp
;	COMDAT ?appRotateCamera@@YAPAU_object@@PAU1@0@Z
_TEXT	SEGMENT
_iDirection$ = -4					; size = 4
_poSelf$ = 8						; size = 4
_poArgs$ = 12						; size = 4
?appRotateCamera@@YAPAU_object@@PAU1@0@Z PROC		; appRotateCamera, COMDAT

; 561  : {

  00000	55		 push	 ebp
  00001	8b ec		 mov	 ebp, esp
  00003	51		 push	 ecx

; 562  : 	int iDirection;
; 563  : 	if (!PyTuple_GetInteger(poArgs, 0, &iDirection))

  00004	8d 45 fc	 lea	 eax, DWORD PTR _iDirection$[ebp]
  00007	50		 push	 eax
  00008	6a 00		 push	 0
  0000a	ff 75 0c	 push	 DWORD PTR _poArgs$[ebp]
  0000d	e8 00 00 00 00	 call	 ?PyTuple_GetInteger@@YA_NPAU_object@@HPAH@Z ; PyTuple_GetInteger
  00012	83 c4 0c	 add	 esp, 12			; 0000000cH
  00015	84 c0		 test	 al, al
  00017	75 0e		 jne	 SHORT $LN2@appRotateC

; 564  : 		return Py_BuildException();

  00019	6a 00		 push	 0
  0001b	e8 00 00 00 00	 call	 ?Py_BuildException@@YAPAU_object@@PBDZZ ; Py_BuildException
  00020	83 c4 04	 add	 esp, 4

; 567  : }

  00023	8b e5		 mov	 esp, ebp
  00025	5d		 pop	 ebp
  00026	c3		 ret	 0
$LN2@appRotateC:

; 565  : 	CPythonApplication::Instance().RotateCamera(iDirection);

  00027	ff 75 fc	 push	 DWORD PTR _iDirection$[ebp]
  0002a	8b 0d 00 00 00
	00		 mov	 ecx, DWORD PTR ?ms_pInstance@CPythonApplication@@1PAV1@A ; CPythonApplication::ms_pInstance
  00030	e8 00 00 00 00	 call	 ?RotateCamera@CPythonApplication@@QAEXH@Z ; CPythonApplication::RotateCamera

; 566  : 	return Py_BuildNone();

  00035	e8 00 00 00 00	 call	 ?Py_BuildNone@@YAPAU_object@@XZ ; Py_BuildNone

; 567  : }

  0003a	8b e5		 mov	 esp, ebp
  0003c	5d		 pop	 ebp
  0003d	c3		 ret	 0
?appRotateCamera@@YAPAU_object@@PAU1@0@Z ENDP		; appRotateCamera
_TEXT	ENDS
; Function compile flags: /Ogtp
; File D:\Metin2 Server Files\mainline\SRC_2014\Metin2Client\UserInterface\PythonApplicationModule.cpp
;	COMDAT ?appGetRenderFPS@@YAPAU_object@@PAU1@0@Z
_TEXT	SEGMENT
_poSelf$ = 8						; size = 4
_poArgs$ = 12						; size = 4
?appGetRenderFPS@@YAPAU_object@@PAU1@0@Z PROC		; appGetRenderFPS, COMDAT

; 557  : 	return Py_BuildValue("i", CPythonApplication::Instance().GetRenderFPS());

  00000	a1 00 00 00 00	 mov	 eax, DWORD PTR ?ms_pInstance@CPythonApplication@@1PAV1@A ; CPythonApplication::ms_pInstance
  00005	ff b0 40 ee 01
	00		 push	 DWORD PTR [eax+126528]
  0000b	68 00 00 00 00	 push	 OFFSET ??_C@_01KBJDNOO@i@
  00010	ff 15 00 00 00
	00		 call	 DWORD PTR __imp__Py_BuildValue
  00016	83 c4 08	 add	 esp, 8

; 558  : }

  00019	c3		 ret	 0
?appGetRenderFPS@@YAPAU_object@@PAU1@0@Z ENDP		; appGetRenderFPS
_TEXT	ENDS
; Function compile flags: /Ogtp
; File D:\Metin2 Server Files\mainline\SRC_2014\Metin2Client\UserInterface\PythonApplicationModule.cpp
;	COMDAT ?appGetUpdateFPS@@YAPAU_object@@PAU1@0@Z
_TEXT	SEGMENT
_poSelf$ = 8						; size = 4
_poArgs$ = 12						; size = 4
?appGetUpdateFPS@@YAPAU_object@@PAU1@0@Z PROC		; appGetUpdateFPS, COMDAT

; 552  : 	return Py_BuildValue("i", CPythonApplication::Instance().GetUpdateFPS());

  00000	a1 00 00 00 00	 mov	 eax, DWORD PTR ?ms_pInstance@CPythonApplication@@1PAV1@A ; CPythonApplication::ms_pInstance
  00005	ff b0 3c ee 01
	00		 push	 DWORD PTR [eax+126524]
  0000b	68 00 00 00 00	 push	 OFFSET ??_C@_01KBJDNOO@i@
  00010	ff 15 00 00 00
	00		 call	 DWORD PTR __imp__Py_BuildValue
  00016	83 c4 08	 add	 esp, 8

; 553  : }

  00019	c3		 ret	 0
?appGetUpdateFPS@@YAPAU_object@@PAU1@0@Z ENDP		; appGetUpdateFPS
_TEXT	ENDS
; Function compile flags: /Ogtp
; File D:\Metin2 Server Files\mainline\SRC_2014\Metin2Client\UserInterface\PythonApplicationModule.cpp
;	COMDAT ?appGetGlobalTimeStamp@@YAPAU_object@@PAU1@0@Z
_TEXT	SEGMENT
_poSelf$ = 8						; size = 4
_poArgs$ = 12						; size = 4
?appGetGlobalTimeStamp@@YAPAU_object@@PAU1@0@Z PROC	; appGetGlobalTimeStamp, COMDAT

; 547  : 	return Py_BuildValue("i", CPythonApplication::Instance().GetServerTimeStamp());

  00000	8b 0d 00 00 00
	00		 mov	 ecx, DWORD PTR ?ms_pInstance@CPythonApplication@@1PAV1@A ; CPythonApplication::ms_pInstance
  00006	e8 00 00 00 00	 call	 ?GetServerTimeStamp@CPythonApplication@@QAEJXZ ; CPythonApplication::GetServerTimeStamp
  0000b	50		 push	 eax
  0000c	68 00 00 00 00	 push	 OFFSET ??_C@_01KBJDNOO@i@
  00011	ff 15 00 00 00
	00		 call	 DWORD PTR __imp__Py_BuildValue
  00017	83 c4 08	 add	 esp, 8

; 548  : }

  0001a	c3		 ret	 0
?appGetGlobalTimeStamp@@YAPAU_object@@PAU1@0@Z ENDP	; appGetGlobalTimeStamp
_TEXT	ENDS
; Function compile flags: /Ogtp
; File D:\Metin2 Server Files\mainline\SRC_2014\Metin2Client\UserInterface\PythonApplicationModule.cpp
;	COMDAT ?appGetGlobalTime@@YAPAU_object@@PAU1@0@Z
_TEXT	SEGMENT
_poSelf$ = 8						; size = 4
_poArgs$ = 12						; size = 4
?appGetGlobalTime@@YAPAU_object@@PAU1@0@Z PROC		; appGetGlobalTime, COMDAT

; 542  : 	return Py_BuildValue("i", CPythonApplication::Instance().GetServerTime());

  00000	8b 0d 00 00 00
	00		 mov	 ecx, DWORD PTR ?ms_pInstance@CPythonApplication@@1PAV1@A ; CPythonApplication::ms_pInstance
  00006	e8 00 00 00 00	 call	 ?GetServerTime@CPythonApplication@@QAEJXZ ; CPythonApplication::GetServerTime
  0000b	50		 push	 eax
  0000c	68 00 00 00 00	 push	 OFFSET ??_C@_01KBJDNOO@i@
  00011	ff 15 00 00 00
	00		 call	 DWORD PTR __imp__Py_BuildValue
  00017	83 c4 08	 add	 esp, 8

; 543  : }

  0001a	c3		 ret	 0
?appGetGlobalTime@@YAPAU_object@@PAU1@0@Z ENDP		; appGetGlobalTime
_TEXT	ENDS
; Function compile flags: /Ogtp
; File D:\Metin2 Server Files\mainline\SRC_2014\Metin2Client\UserInterface\PythonApplicationModule.cpp
;	COMDAT ?appGetTime@@YAPAU_object@@PAU1@0@Z
_TEXT	SEGMENT
_poSelf$ = 8						; size = 4
_poArgs$ = 12						; size = 4
?appGetTime@@YAPAU_object@@PAU1@0@Z PROC		; appGetTime, COMDAT

; 537  : 	return Py_BuildValue("f", CPythonApplication::Instance().GetGlobalTime());

  00000	8b 0d 00 00 00
	00		 mov	 ecx, DWORD PTR ?ms_pInstance@CPythonApplication@@1PAV1@A ; CPythonApplication::ms_pInstance
  00006	83 c1 20	 add	 ecx, 32			; 00000020H
  00009	8b 01		 mov	 eax, DWORD PTR [ecx]
  0000b	8b 40 08	 mov	 eax, DWORD PTR [eax+8]
  0000e	ff d0		 call	 eax
  00010	83 ec 08	 sub	 esp, 8
  00013	dd 1c 24	 fstp	 QWORD PTR [esp]
  00016	68 00 00 00 00	 push	 OFFSET ??_C@_01INIBCBCB@f@
  0001b	ff 15 00 00 00
	00		 call	 DWORD PTR __imp__Py_BuildValue
  00021	83 c4 0c	 add	 esp, 12			; 0000000cH

; 538  : }

  00024	c3		 ret	 0
?appGetTime@@YAPAU_object@@PAU1@0@Z ENDP		; appGetTime
_TEXT	ENDS
; Function compile flags: /Ogtp
; File D:\Metin2 Server Files\mainline\SRC_2014\Metin2Client\UserInterface\PythonApplicationModule.cpp
;	COMDAT ?appGetCameraRotation@@YAPAU_object@@PAU1@0@Z
_TEXT	SEGMENT
_poSelf$ = 8						; size = 4
_poArgs$ = 12						; size = 4
?appGetCameraRotation@@YAPAU_object@@PAU1@0@Z PROC	; appGetCameraRotation, COMDAT

; 532  : 	return Py_BuildValue("f", CPythonApplication::Instance().GetRotation());

  00000	8b 0d 00 00 00
	00		 mov	 ecx, DWORD PTR ?ms_pInstance@CPythonApplication@@1PAV1@A ; CPythonApplication::ms_pInstance
  00006	e8 00 00 00 00	 call	 ?GetRotation@CPythonApplication@@QAEMXZ ; CPythonApplication::GetRotation
  0000b	83 ec 08	 sub	 esp, 8
  0000e	dd 1c 24	 fstp	 QWORD PTR [esp]
  00011	68 00 00 00 00	 push	 OFFSET ??_C@_01INIBCBCB@f@
  00016	ff 15 00 00 00
	00		 call	 DWORD PTR __imp__Py_BuildValue
  0001c	83 c4 0c	 add	 esp, 12			; 0000000cH

; 533  : }

  0001f	c3		 ret	 0
?appGetCameraRotation@@YAPAU_object@@PAU1@0@Z ENDP	; appGetCameraRotation
_TEXT	ENDS
; Function compile flags: /Ogtp
; File D:\Metin2 Server Files\mainline\SRC_2014\Metin2Client\UserInterface\PythonApplicationModule.cpp
;	COMDAT ?appGetCameraPitch@@YAPAU_object@@PAU1@0@Z
_TEXT	SEGMENT
_poSelf$ = 8						; size = 4
_poArgs$ = 12						; size = 4
?appGetCameraPitch@@YAPAU_object@@PAU1@0@Z PROC		; appGetCameraPitch, COMDAT

; 527  : 	return Py_BuildValue("f", CPythonApplication::Instance().GetPitch());

  00000	8b 0d 00 00 00
	00		 mov	 ecx, DWORD PTR ?ms_pInstance@CPythonApplication@@1PAV1@A ; CPythonApplication::ms_pInstance
  00006	e8 00 00 00 00	 call	 ?GetPitch@CPythonApplication@@QAEMXZ ; CPythonApplication::GetPitch
  0000b	83 ec 08	 sub	 esp, 8
  0000e	dd 1c 24	 fstp	 QWORD PTR [esp]
  00011	68 00 00 00 00	 push	 OFFSET ??_C@_01INIBCBCB@f@
  00016	ff 15 00 00 00
	00		 call	 DWORD PTR __imp__Py_BuildValue
  0001c	83 c4 0c	 add	 esp, 12			; 0000000cH

; 528  : }

  0001f	c3		 ret	 0
?appGetCameraPitch@@YAPAU_object@@PAU1@0@Z ENDP		; appGetCameraPitch
_TEXT	ENDS
; Function compile flags: /Ogtp
; File D:\Metin2 Server Files\mainline\SRC_2014\Metin2Client\UserInterface\PythonApplicationModule.cpp
;	COMDAT ?appGetCamera@@YAPAU_object@@PAU1@0@Z
_TEXT	SEGMENT
_Distance$ = -16					; size = 4
_Pitch$ = -12						; size = 4
_Rotation$ = -8						; size = 4
_DestinationHeight$ = -4				; size = 4
_poSelf$ = 8						; size = 4
_poArgs$ = 12						; size = 4
?appGetCamera@@YAPAU_object@@PAU1@0@Z PROC		; appGetCamera, COMDAT

; 518  : {

  00000	55		 push	 ebp
  00001	8b ec		 mov	 ebp, esp
  00003	83 ec 10	 sub	 esp, 16			; 00000010H

; 519  : 	float Distance, Pitch, Rotation, DestinationHeight;
; 520  :     CPythonApplication::Instance().GetCamera(&Distance, &Pitch, &Rotation, &DestinationHeight);

  00006	8b 0d 00 00 00
	00		 mov	 ecx, DWORD PTR ?ms_pInstance@CPythonApplication@@1PAV1@A ; CPythonApplication::ms_pInstance
  0000c	8d 45 fc	 lea	 eax, DWORD PTR _DestinationHeight$[ebp]
  0000f	50		 push	 eax
  00010	8d 45 f8	 lea	 eax, DWORD PTR _Rotation$[ebp]
  00013	50		 push	 eax
  00014	8d 45 f4	 lea	 eax, DWORD PTR _Pitch$[ebp]
  00017	50		 push	 eax
  00018	8d 45 f0	 lea	 eax, DWORD PTR _Distance$[ebp]
  0001b	50		 push	 eax
  0001c	e8 00 00 00 00	 call	 ?GetCamera@CPythonApplication@@QAEXPAM000@Z ; CPythonApplication::GetCamera
  00021	f3 0f 10 45 fc	 movss	 xmm0, DWORD PTR _DestinationHeight$[ebp]

; 521  : 
; 522  : 	return Py_BuildValue("ffff", Distance, Pitch, Rotation, DestinationHeight);

  00026	83 ec 20	 sub	 esp, 32			; 00000020H
  00029	0f 5a c0	 cvtps2pd xmm0, xmm0
  0002c	f2 0f 11 44 24
	18		 movsd	 QWORD PTR [esp+24], xmm0
  00032	f3 0f 10 45 f8	 movss	 xmm0, DWORD PTR _Rotation$[ebp]
  00037	0f 5a c0	 cvtps2pd xmm0, xmm0
  0003a	f2 0f 11 44 24
	10		 movsd	 QWORD PTR [esp+16], xmm0
  00040	f3 0f 10 45 f4	 movss	 xmm0, DWORD PTR _Pitch$[ebp]
  00045	0f 5a c0	 cvtps2pd xmm0, xmm0
  00048	f2 0f 11 44 24
	08		 movsd	 QWORD PTR [esp+8], xmm0
  0004e	f3 0f 10 45 f0	 movss	 xmm0, DWORD PTR _Distance$[ebp]
  00053	0f 5a c0	 cvtps2pd xmm0, xmm0
  00056	f2 0f 11 04 24	 movsd	 QWORD PTR [esp], xmm0
  0005b	68 00 00 00 00	 push	 OFFSET ??_C@_04EOBPFJGD@ffff@
  00060	ff 15 00 00 00
	00		 call	 DWORD PTR __imp__Py_BuildValue
  00066	83 c4 24	 add	 esp, 36			; 00000024H

; 523  : }

  00069	8b e5		 mov	 esp, ebp
  0006b	5d		 pop	 ebp
  0006c	c3		 ret	 0
?appGetCamera@@YAPAU_object@@PAU1@0@Z ENDP		; appGetCamera
_TEXT	ENDS
; Function compile flags: /Ogtp
; File D:\Metin2 Server Files\mainline\SRC_2014\Metin2Client\UserInterface\PythonApplicationModule.cpp
;	COMDAT ?appSetCamera@@YAPAU_object@@PAU1@0@Z
_TEXT	SEGMENT
_Distance$ = -16					; size = 4
_Pitch$ = -12						; size = 4
_Rotation$ = -8						; size = 4
_fDestinationHeight$ = -4				; size = 4
_poSelf$ = 8						; size = 4
_poArgs$ = 12						; size = 4
?appSetCamera@@YAPAU_object@@PAU1@0@Z PROC		; appSetCamera, COMDAT

; 496  : {

  00000	55		 push	 ebp
  00001	8b ec		 mov	 ebp, esp
  00003	83 ec 10	 sub	 esp, 16			; 00000010H

; 497  : 	float Distance;
; 498  : 	if (!PyTuple_GetFloat(poArgs, 0, &Distance))

  00006	8d 45 f0	 lea	 eax, DWORD PTR _Distance$[ebp]
  00009	56		 push	 esi
  0000a	8b 75 0c	 mov	 esi, DWORD PTR _poArgs$[ebp]
  0000d	50		 push	 eax
  0000e	6a 00		 push	 0
  00010	56		 push	 esi
  00011	e8 00 00 00 00	 call	 ?PyTuple_GetFloat@@YA_NPAU_object@@HPAM@Z ; PyTuple_GetFloat
  00016	83 c4 0c	 add	 esp, 12			; 0000000cH
  00019	84 c0		 test	 al, al
  0001b	75 0f		 jne	 SHORT $LN2@appSetCame
$LN7@appSetCame:

; 515  : }

  0001d	6a 00		 push	 0
  0001f	e8 00 00 00 00	 call	 ?Py_BuildException@@YAPAU_object@@PBDZZ ; Py_BuildException
  00024	83 c4 04	 add	 esp, 4
  00027	5e		 pop	 esi
  00028	8b e5		 mov	 esp, ebp
  0002a	5d		 pop	 ebp
  0002b	c3		 ret	 0
$LN2@appSetCame:

; 499  : 		return Py_BuildException();
; 500  : 
; 501  : 	float Pitch;
; 502  : 	if (!PyTuple_GetFloat(poArgs, 1, &Pitch))

  0002c	8d 45 f4	 lea	 eax, DWORD PTR _Pitch$[ebp]
  0002f	50		 push	 eax
  00030	6a 01		 push	 1
  00032	56		 push	 esi
  00033	e8 00 00 00 00	 call	 ?PyTuple_GetFloat@@YA_NPAU_object@@HPAM@Z ; PyTuple_GetFloat
  00038	83 c4 0c	 add	 esp, 12			; 0000000cH
  0003b	84 c0		 test	 al, al
  0003d	74 de		 je	 SHORT $LN7@appSetCame

; 503  : 		return Py_BuildException();
; 504  : 
; 505  : 	float Rotation;
; 506  : 	if (!PyTuple_GetFloat(poArgs, 2, &Rotation))

  0003f	8d 45 f8	 lea	 eax, DWORD PTR _Rotation$[ebp]
  00042	50		 push	 eax
  00043	6a 02		 push	 2
  00045	56		 push	 esi
  00046	e8 00 00 00 00	 call	 ?PyTuple_GetFloat@@YA_NPAU_object@@HPAM@Z ; PyTuple_GetFloat
  0004b	83 c4 0c	 add	 esp, 12			; 0000000cH
  0004e	84 c0		 test	 al, al
  00050	74 cb		 je	 SHORT $LN7@appSetCame

; 507  : 		return Py_BuildException();
; 508  : 
; 509  : 	float fDestinationHeight;
; 510  : 	if (!PyTuple_GetFloat(poArgs, 3, &fDestinationHeight))

  00052	8d 45 fc	 lea	 eax, DWORD PTR _fDestinationHeight$[ebp]
  00055	50		 push	 eax
  00056	6a 03		 push	 3
  00058	56		 push	 esi
  00059	e8 00 00 00 00	 call	 ?PyTuple_GetFloat@@YA_NPAU_object@@HPAM@Z ; PyTuple_GetFloat
  0005e	83 c4 0c	 add	 esp, 12			; 0000000cH
  00061	84 c0		 test	 al, al
  00063	74 b8		 je	 SHORT $LN7@appSetCame

; 511  : 		return Py_BuildException();
; 512  : 
; 513  : 	CPythonApplication::Instance().SetCamera(Distance, Pitch, Rotation, fDestinationHeight);

  00065	f3 0f 10 45 fc	 movss	 xmm0, DWORD PTR _fDestinationHeight$[ebp]
  0006a	83 ec 10	 sub	 esp, 16			; 00000010H
  0006d	8b 0d 00 00 00
	00		 mov	 ecx, DWORD PTR ?ms_pInstance@CPythonApplication@@1PAV1@A ; CPythonApplication::ms_pInstance
  00073	f3 0f 11 44 24
	0c		 movss	 DWORD PTR [esp+12], xmm0
  00079	f3 0f 10 45 f8	 movss	 xmm0, DWORD PTR _Rotation$[ebp]
  0007e	f3 0f 11 44 24
	08		 movss	 DWORD PTR [esp+8], xmm0
  00084	f3 0f 10 45 f4	 movss	 xmm0, DWORD PTR _Pitch$[ebp]
  00089	f3 0f 11 44 24
	04		 movss	 DWORD PTR [esp+4], xmm0
  0008f	f3 0f 10 45 f0	 movss	 xmm0, DWORD PTR _Distance$[ebp]
  00094	f3 0f 11 04 24	 movss	 DWORD PTR [esp], xmm0
  00099	e8 00 00 00 00	 call	 ?SetCamera@CPythonApplication@@QAEXMMMM@Z ; CPythonApplication::SetCamera

; 514  : 	return Py_BuildNone();

  0009e	e8 00 00 00 00	 call	 ?Py_BuildNone@@YAPAU_object@@XZ ; Py_BuildNone
  000a3	5e		 pop	 esi

; 515  : }

  000a4	8b e5		 mov	 esp, ebp
  000a6	5d		 pop	 ebp
  000a7	c3		 ret	 0
?appSetCamera@@YAPAU_object@@PAU1@0@Z ENDP		; appSetCamera
_TEXT	ENDS
; Function compile flags: /Ogtp
; File D:\Metin2 Server Files\mainline\SRC_2014\Metin2Client\UserInterface\PythonApplicationModule.cpp
;	COMDAT ?appExit@@YAPAU_object@@PAU1@0@Z
_TEXT	SEGMENT
_poSelf$ = 8						; size = 4
_poArgs$ = 12						; size = 4
?appExit@@YAPAU_object@@PAU1@0@Z PROC			; appExit, COMDAT

; 491  : 	CPythonApplication::Instance().Exit();

  00000	8b 0d 00 00 00
	00		 mov	 ecx, DWORD PTR ?ms_pInstance@CPythonApplication@@1PAV1@A ; CPythonApplication::ms_pInstance
  00006	e8 00 00 00 00	 call	 ?Exit@CPythonApplication@@QAEXXZ ; CPythonApplication::Exit

; 492  : 	return Py_BuildNone();

  0000b	e9 00 00 00 00	 jmp	 ?Py_BuildNone@@YAPAU_object@@XZ ; Py_BuildNone
?appExit@@YAPAU_object@@PAU1@0@Z ENDP			; appExit
_TEXT	ENDS
; Function compile flags: /Ogtp
; File D:\Metin2 Server Files\mainline\SRC_2014\Metin2Client\UserInterface\PythonApplicationModule.cpp
;	COMDAT ?appAbort@@YAPAU_object@@PAU1@0@Z
_TEXT	SEGMENT
_poSelf$ = 8						; size = 4
_poArgs$ = 12						; size = 4
?appAbort@@YAPAU_object@@PAU1@0@Z PROC			; appAbort, COMDAT

; 485  : 	CPythonApplication::Instance().Abort();

  00000	8b 0d 00 00 00
	00		 mov	 ecx, DWORD PTR ?ms_pInstance@CPythonApplication@@1PAV1@A ; CPythonApplication::ms_pInstance
  00006	e8 00 00 00 00	 call	 ?Abort@CPythonApplication@@QAEXXZ ; CPythonApplication::Abort

; 486  : 	return Py_BuildNone();

  0000b	e9 00 00 00 00	 jmp	 ?Py_BuildNone@@YAPAU_object@@XZ ; Py_BuildNone
?appAbort@@YAPAU_object@@PAU1@0@Z ENDP			; appAbort
_TEXT	ENDS
; Function compile flags: /Ogtp
; File D:\Metin2 Server Files\mainline\SRC_2014\Metin2Client\UserInterface\PythonApplicationModule.cpp
;	COMDAT ?appProcess@@YAPAU_object@@PAU1@0@Z
_TEXT	SEGMENT
_poSelf$ = 8						; size = 4
_poArgs$ = 12						; size = 4
?appProcess@@YAPAU_object@@PAU1@0@Z PROC		; appProcess, COMDAT

; 477  : 	if (CPythonApplication::Instance().Process())

  00000	8b 0d 00 00 00
	00		 mov	 ecx, DWORD PTR ?ms_pInstance@CPythonApplication@@1PAV1@A ; CPythonApplication::ms_pInstance
  00006	e8 00 00 00 00	 call	 ?Process@CPythonApplication@@QAE_NXZ ; CPythonApplication::Process
  0000b	84 c0		 test	 al, al
  0000d	74 11		 je	 SHORT $LN2@appProcess

; 478  : 		return Py_BuildValue("i", 1);

  0000f	6a 01		 push	 1

; 481  : }

  00011	68 00 00 00 00	 push	 OFFSET ??_C@_01KBJDNOO@i@
  00016	ff 15 00 00 00
	00		 call	 DWORD PTR __imp__Py_BuildValue
  0001c	83 c4 08	 add	 esp, 8
  0001f	c3		 ret	 0
$LN2@appProcess:

; 479  : 
; 480  : 	return Py_BuildValue("i", 0);

  00020	6a 00		 push	 0

; 481  : }

  00022	68 00 00 00 00	 push	 OFFSET ??_C@_01KBJDNOO@i@
  00027	ff 15 00 00 00
	00		 call	 DWORD PTR __imp__Py_BuildValue
  0002d	83 c4 08	 add	 esp, 8
  00030	c3		 ret	 0
?appProcess@@YAPAU_object@@PAU1@0@Z ENDP		; appProcess
_TEXT	ENDS
; Function compile flags: /Ogtp
; File D:\Metin2 Server Files\mainline\SRC_2014\Metin2Client\UserInterface\PythonApplicationModule.cpp
; File C:\Program Files (x86)\Microsoft Visual Studio\2019\Community\VC\Tools\MSVC\14.28.29333\include\xstring
; File D:\Metin2 Server Files\mainline\SRC_2014\Metin2Client\UserInterface\PythonApplicationModule.cpp
; File C:\Program Files (x86)\Microsoft Visual Studio\2019\Community\VC\Tools\MSVC\14.28.29333\include\xstring
; File D:\Metin2 Server Files\mainline\SRC_2014\Metin2Client\UserInterface\PythonApplicationModule.cpp
; File C:\Program Files (x86)\Microsoft Visual Studio\2019\Community\VC\Tools\MSVC\14.28.29333\include\xstring
; File D:\Metin2 Server Files\mainline\SRC_2014\Metin2Client\UserInterface\PythonApplicationModule.cpp
; File C:\Program Files (x86)\Microsoft Visual Studio\2019\Community\VC\Tools\MSVC\14.28.29333\include\xstring
; File C:\Program Files (x86)\Microsoft Visual Studio\2019\Community\VC\Tools\MSVC\14.28.29333\include\xmemory
; File D:\Metin2 Server Files\mainline\SRC_2014\Metin2Client\UserInterface\PythonApplicationModule.cpp
;	COMDAT ?appGetInfo@@YAPAU_object@@PAU1@0@Z
_TEXT	SEGMENT
_nInfo$ = -44						; size = 4
_stInfo$ = -40						; size = 24
__$ArrayPad$ = -16					; size = 4
__$EHRec$ = -12						; size = 12
_poSelf$ = 8						; size = 4
_poArgs$ = 12						; size = 4
?appGetInfo@@YAPAU_object@@PAU1@0@Z PROC		; appGetInfo, COMDAT

; 465  : {

  00000	55		 push	 ebp
  00001	8b ec		 mov	 ebp, esp
  00003	6a ff		 push	 -1
  00005	68 00 00 00 00	 push	 __ehhandler$?appGetInfo@@YAPAU_object@@PAU1@0@Z
  0000a	64 a1 00 00 00
	00		 mov	 eax, DWORD PTR fs:0
  00010	50		 push	 eax
  00011	83 ec 20	 sub	 esp, 32			; 00000020H
  00014	a1 00 00 00 00	 mov	 eax, DWORD PTR ___security_cookie
  00019	33 c5		 xor	 eax, ebp
  0001b	89 45 f0	 mov	 DWORD PTR __$ArrayPad$[ebp], eax
  0001e	56		 push	 esi
  0001f	50		 push	 eax
  00020	8d 45 f4	 lea	 eax, DWORD PTR __$EHRec$[ebp]
  00023	64 a3 00 00 00
	00		 mov	 DWORD PTR fs:0, eax
  00029	8b 45 0c	 mov	 eax, DWORD PTR _poArgs$[ebp]

; 466  : 	int nInfo;
; 467  : 	if (!PyTuple_GetInteger(poArgs, 0, &nInfo))

  0002c	8d 4d d4	 lea	 ecx, DWORD PTR _nInfo$[ebp]
  0002f	51		 push	 ecx
  00030	6a 00		 push	 0
  00032	50		 push	 eax
  00033	e8 00 00 00 00	 call	 ?PyTuple_GetInteger@@YA_NPAU_object@@HPAH@Z ; PyTuple_GetInteger
  00038	83 c4 0c	 add	 esp, 12			; 0000000cH
  0003b	84 c0		 test	 al, al
  0003d	75 0c		 jne	 SHORT $LN2@appGetInfo

; 468  : 		return Py_BuildException();

  0003f	6a 00		 push	 0
  00041	e8 00 00 00 00	 call	 ?Py_BuildException@@YAPAU_object@@PBDZZ ; Py_BuildException
  00046	83 c4 04	 add	 esp, 4
  00049	eb 5e		 jmp	 SHORT $LN1@appGetInfo
$LN2@appGetInfo:
; File C:\Program Files (x86)\Microsoft Visual Studio\2019\Community\VC\Tools\MSVC\14.28.29333\include\xstring

; 4377 :         _Mypair._Myval2._Mysize = 0;

  0004b	c7 45 e8 00 00
	00 00		 mov	 DWORD PTR _stInfo$[ebp+16], 0

; 4378 :         _Mypair._Myval2._Myres  = _BUF_SIZE - 1;

  00052	c7 45 ec 0f 00
	00 00		 mov	 DWORD PTR _stInfo$[ebp+20], 15 ; 0000000fH

; 4379 :         // the _Traits::assign is last so the codegen doesn't think the char write can alias this
; 4380 :         _Traits::assign(_Mypair._Myval2._Bx._Buf[0], _Elem());

  00059	c6 45 d8 00	 mov	 BYTE PTR _stInfo$[ebp], 0
; File D:\Metin2 Server Files\mainline\SRC_2014\Metin2Client\UserInterface\PythonApplicationModule.cpp

; 471  : 	CPythonApplication::Instance().GetInfo(nInfo, &stInfo);

  0005d	8b 0d 00 00 00
	00		 mov	 ecx, DWORD PTR ?ms_pInstance@CPythonApplication@@1PAV1@A ; CPythonApplication::ms_pInstance
  00063	8d 45 d8	 lea	 eax, DWORD PTR _stInfo$[ebp]
  00066	50		 push	 eax
  00067	ff 75 d4	 push	 DWORD PTR _nInfo$[ebp]
  0006a	c7 45 fc 00 00
	00 00		 mov	 DWORD PTR __$EHRec$[ebp+8], 0
  00071	e8 00 00 00 00	 call	 ?GetInfo@CPythonApplication@@QAEXIPAV?$basic_string@DU?$char_traits@D@std@@V?$allocator@D@2@@std@@@Z ; CPythonApplication::GetInfo
; File C:\Program Files (x86)\Microsoft Visual Studio\2019\Community\VC\Tools\MSVC\14.28.29333\include\xstring

; 2227 :         return _BUF_SIZE <= _Myres;

  00076	83 7d ec 10	 cmp	 DWORD PTR _stInfo$[ebp+20], 16 ; 00000010H

; 2218 :         const value_type* _Result = _Bx._Buf;

  0007a	8d 45 d8	 lea	 eax, DWORD PTR _stInfo$[ebp]

; 2219 :         if (_Large_string_engaged()) {

  0007d	0f 43 45 d8	 cmovae	 eax, DWORD PTR _stInfo$[ebp]
; File D:\Metin2 Server Files\mainline\SRC_2014\Metin2Client\UserInterface\PythonApplicationModule.cpp

; 472  : 	return Py_BuildValue("s", stInfo.c_str());

  00081	50		 push	 eax
  00082	68 00 00 00 00	 push	 OFFSET ??_C@_01LKDEMHDF@s@
  00087	ff 15 00 00 00
	00		 call	 DWORD PTR __imp__Py_BuildValue
; File C:\Program Files (x86)\Microsoft Visual Studio\2019\Community\VC\Tools\MSVC\14.28.29333\include\xstring

; 2227 :         return _BUF_SIZE <= _Myres;

  0008d	8b 4d ec	 mov	 ecx, DWORD PTR _stInfo$[ebp+20]
; File D:\Metin2 Server Files\mainline\SRC_2014\Metin2Client\UserInterface\PythonApplicationModule.cpp

; 472  : 	return Py_BuildValue("s", stInfo.c_str());

  00090	83 c4 08	 add	 esp, 8
  00093	8b f0		 mov	 esi, eax
; File C:\Program Files (x86)\Microsoft Visual Studio\2019\Community\VC\Tools\MSVC\14.28.29333\include\xstring

; 2227 :         return _BUF_SIZE <= _Myres;

  00095	83 f9 10	 cmp	 ecx, 16			; 00000010H

; 4385 :         if (_Mypair._Myval2._Large_string_engaged()) {

  00098	72 0d		 jb	 SHORT $LN27@appGetInfo

; 4386 :             const pointer _Ptr = _Mypair._Myval2._Bx._Ptr;
; 4387 :             auto& _Al          = _Getal();
; 4388 :             _Destroy_in_place(_Mypair._Myval2._Bx._Ptr);
; 4389 :             _Al.deallocate(_Ptr, _Mypair._Myval2._Myres + 1);

  0009a	41		 inc	 ecx
; File C:\Program Files (x86)\Microsoft Visual Studio\2019\Community\VC\Tools\MSVC\14.28.29333\include\xmemory

; 810  :         _Deallocate<_New_alignof<_Ty>>(_Ptr, sizeof(_Ty) * _Count);

  0009b	51		 push	 ecx
  0009c	ff 75 d8	 push	 DWORD PTR _stInfo$[ebp]
  0009f	e8 00 00 00 00	 call	 ??$_Deallocate@$07$0A@@std@@YAXPAXI@Z ; std::_Deallocate<8,0>
  000a4	83 c4 08	 add	 esp, 8
$LN27@appGetInfo:
; File D:\Metin2 Server Files\mainline\SRC_2014\Metin2Client\UserInterface\PythonApplicationModule.cpp

; 472  : 	return Py_BuildValue("s", stInfo.c_str());

  000a7	8b c6		 mov	 eax, esi
$LN1@appGetInfo:

; 473  : }

  000a9	8b 4d f4	 mov	 ecx, DWORD PTR __$EHRec$[ebp]
  000ac	64 89 0d 00 00
	00 00		 mov	 DWORD PTR fs:0, ecx
  000b3	59		 pop	 ecx
  000b4	5e		 pop	 esi
  000b5	8b 4d f0	 mov	 ecx, DWORD PTR __$ArrayPad$[ebp]
  000b8	33 cd		 xor	 ecx, ebp
  000ba	e8 00 00 00 00	 call	 @__security_check_cookie@4
  000bf	8b e5		 mov	 esp, ebp
  000c1	5d		 pop	 ebp
  000c2	c3		 ret	 0
_TEXT	ENDS
;	COMDAT text$x
text$x	SEGMENT
__unwindfunclet$?appGetInfo@@YAPAU_object@@PAU1@0@Z$0:
  00000	8d 4d d8	 lea	 ecx, DWORD PTR _stInfo$[ebp]
  00003	e9 00 00 00 00	 jmp	 ??1?$basic_string@DU?$char_traits@D@std@@V?$allocator@D@2@@std@@QAE@XZ ; std::basic_string<char,std::char_traits<char>,std::allocator<char> >::~basic_string<char,std::char_traits<char>,std::allocator<char> >
  00008	cc		 int	 3
  00009	cc		 int	 3
  0000a	cc		 int	 3
  0000b	cc		 int	 3
  0000c	cc		 int	 3
__ehhandler$?appGetInfo@@YAPAU_object@@PAU1@0@Z:
  0000d	90		 npad	 1
  0000e	90		 npad	 1
  0000f	8b 54 24 08	 mov	 edx, DWORD PTR [esp+8]
  00013	8d 42 0c	 lea	 eax, DWORD PTR [edx+12]
  00016	8b 4a d8	 mov	 ecx, DWORD PTR [edx-40]
  00019	33 c8		 xor	 ecx, eax
  0001b	e8 00 00 00 00	 call	 @__security_check_cookie@4
  00020	8b 4a fc	 mov	 ecx, DWORD PTR [edx-4]
  00023	33 c8		 xor	 ecx, eax
  00025	e8 00 00 00 00	 call	 @__security_check_cookie@4
  0002a	b8 00 00 00 00	 mov	 eax, OFFSET __ehfuncinfo$?appGetInfo@@YAPAU_object@@PAU1@0@Z
  0002f	e9 00 00 00 00	 jmp	 ___CxxFrameHandler3
text$x	ENDS
?appGetInfo@@YAPAU_object@@PAU1@0@Z ENDP		; appGetInfo
; Function compile flags: /Ogtp
; File D:\Metin2 Server Files\mainline\SRC_2014\Metin2Client\UserInterface\PythonApplicationModule.cpp
;	COMDAT ?appLoop@@YAPAU_object@@PAU1@0@Z
_TEXT	SEGMENT
_poSelf$ = 8						; size = 4
_poArgs$ = 12						; size = 4
?appLoop@@YAPAU_object@@PAU1@0@Z PROC			; appLoop, COMDAT

; 459  : 	CPythonApplication::Instance().Loop();

  00000	8b 0d 00 00 00
	00		 mov	 ecx, DWORD PTR ?ms_pInstance@CPythonApplication@@1PAV1@A ; CPythonApplication::ms_pInstance
  00006	e8 00 00 00 00	 call	 ?Loop@CPythonApplication@@QAEXXZ ; CPythonApplication::Loop

; 460  : 		
; 461  : 	return Py_BuildNone();

  0000b	e9 00 00 00 00	 jmp	 ?Py_BuildNone@@YAPAU_object@@XZ ; Py_BuildNone
?appLoop@@YAPAU_object@@PAU1@0@Z ENDP			; appLoop
_TEXT	ENDS
; Function compile flags: /Ogtp
; File D:\Metin2 Server Files\mainline\SRC_2014\Metin2Client\UserInterface\PythonApplicationModule.cpp
;	COMDAT ?appCreate@@YAPAU_object@@PAU1@0@Z
_TEXT	SEGMENT
_szName$ = -16						; size = 4
_width$ = -12						; size = 4
_height$ = -8						; size = 4
_Windowed$ = -4						; size = 4
_poSelf$ = 8						; size = 4
_poArgs$ = 12						; size = 4
?appCreate@@YAPAU_object@@PAU1@0@Z PROC			; appCreate, COMDAT

; 430  : {		

  00000	55		 push	 ebp
  00001	8b ec		 mov	 ebp, esp
  00003	83 ec 10	 sub	 esp, 16			; 00000010H

; 431  : 	char* szName;
; 432  : 	if (!PyTuple_GetString(poArgs, 0, &szName))

  00006	8d 45 f0	 lea	 eax, DWORD PTR _szName$[ebp]
  00009	56		 push	 esi
  0000a	8b 75 0c	 mov	 esi, DWORD PTR _poArgs$[ebp]
  0000d	50		 push	 eax
  0000e	6a 00		 push	 0
  00010	56		 push	 esi
  00011	e8 00 00 00 00	 call	 ?PyTuple_GetString@@YA_NPAU_object@@HPAPAD@Z ; PyTuple_GetString
  00016	83 c4 0c	 add	 esp, 12			; 0000000cH
  00019	84 c0		 test	 al, al
  0001b	75 0f		 jne	 SHORT $LN2@appCreate
$LN8@appCreate:

; 455  : }

  0001d	6a 00		 push	 0
  0001f	e8 00 00 00 00	 call	 ?Py_BuildException@@YAPAU_object@@PBDZZ ; Py_BuildException
  00024	83 c4 04	 add	 esp, 4
  00027	5e		 pop	 esi
  00028	8b e5		 mov	 esp, ebp
  0002a	5d		 pop	 ebp
  0002b	c3		 ret	 0
$LN2@appCreate:

; 433  : 		return Py_BuildException();
; 434  : 
; 435  : 	int width;
; 436  : 	if (!PyTuple_GetInteger(poArgs, 1, &width))

  0002c	8d 45 f4	 lea	 eax, DWORD PTR _width$[ebp]
  0002f	50		 push	 eax
  00030	6a 01		 push	 1
  00032	56		 push	 esi
  00033	e8 00 00 00 00	 call	 ?PyTuple_GetInteger@@YA_NPAU_object@@HPAH@Z ; PyTuple_GetInteger
  00038	83 c4 0c	 add	 esp, 12			; 0000000cH
  0003b	84 c0		 test	 al, al
  0003d	74 de		 je	 SHORT $LN8@appCreate

; 437  : 		return Py_BuildException();
; 438  : 
; 439  : 	int height;
; 440  : 	if (!PyTuple_GetInteger(poArgs, 2, &height))

  0003f	8d 45 f8	 lea	 eax, DWORD PTR _height$[ebp]
  00042	50		 push	 eax
  00043	6a 02		 push	 2
  00045	56		 push	 esi
  00046	e8 00 00 00 00	 call	 ?PyTuple_GetInteger@@YA_NPAU_object@@HPAH@Z ; PyTuple_GetInteger
  0004b	83 c4 0c	 add	 esp, 12			; 0000000cH
  0004e	84 c0		 test	 al, al
  00050	74 cb		 je	 SHORT $LN8@appCreate

; 441  : 		return Py_BuildException();
; 442  : 
; 443  : 	int Windowed;
; 444  : 	if (!PyTuple_GetInteger(poArgs, 3, &Windowed))

  00052	8d 45 fc	 lea	 eax, DWORD PTR _Windowed$[ebp]
  00055	50		 push	 eax
  00056	6a 03		 push	 3
  00058	56		 push	 esi
  00059	e8 00 00 00 00	 call	 ?PyTuple_GetInteger@@YA_NPAU_object@@HPAH@Z ; PyTuple_GetInteger
  0005e	83 c4 0c	 add	 esp, 12			; 0000000cH
  00061	84 c0		 test	 al, al
  00063	74 b8		 je	 SHORT $LN8@appCreate

; 445  : 		return Py_BuildException();
; 446  : 
; 447  : 	CPythonApplication& rkApp=CPythonApplication::Instance();
; 448  : 	if (!rkApp.Create(poSelf, szName, width, height, Windowed))

  00065	ff 75 fc	 push	 DWORD PTR _Windowed$[ebp]
  00068	8b 0d 00 00 00
	00		 mov	 ecx, DWORD PTR ?ms_pInstance@CPythonApplication@@1PAV1@A ; CPythonApplication::ms_pInstance
  0006e	ff 75 f8	 push	 DWORD PTR _height$[ebp]
  00071	ff 75 f4	 push	 DWORD PTR _width$[ebp]
  00074	ff 75 f0	 push	 DWORD PTR _szName$[ebp]
  00077	ff 75 08	 push	 DWORD PTR _poSelf$[ebp]
  0007a	e8 00 00 00 00	 call	 ?Create@CPythonApplication@@QAE_NPAU_object@@PBDHHH@Z ; CPythonApplication::Create
  0007f	84 c0		 test	 al, al
  00081	75 07		 jne	 SHORT $LN6@appCreate

; 449  : 	{
; 450  : 		//return Py_BuildNone();			
; 451  : 		return NULL;

  00083	33 c0		 xor	 eax, eax
  00085	5e		 pop	 esi

; 455  : }

  00086	8b e5		 mov	 esp, ebp
  00088	5d		 pop	 ebp
  00089	c3		 ret	 0
$LN6@appCreate:

; 452  : 	}
; 453  : 
; 454  : 	return Py_BuildNone();

  0008a	e8 00 00 00 00	 call	 ?Py_BuildNone@@YAPAU_object@@XZ ; Py_BuildNone
  0008f	5e		 pop	 esi

; 455  : }

  00090	8b e5		 mov	 esp, ebp
  00092	5d		 pop	 ebp
  00093	c3		 ret	 0
?appCreate@@YAPAU_object@@PAU1@0@Z ENDP			; appCreate
_TEXT	ENDS
; Function compile flags: /Ogtp
; File D:\Metin2 Server Files\mainline\SRC_2014\Metin2Client\UserInterface\PythonApplicationModule.cpp
;	COMDAT ?appSetMouseHandler@@YAPAU_object@@PAU1@0@Z
_TEXT	SEGMENT
_poHandler$ = -4					; size = 4
_poSelf$ = 8						; size = 4
_poArgs$ = 12						; size = 4
?appSetMouseHandler@@YAPAU_object@@PAU1@0@Z PROC	; appSetMouseHandler, COMDAT

; 420  : {

  00000	55		 push	 ebp
  00001	8b ec		 mov	 ebp, esp
  00003	51		 push	 ecx

; 421  : 	PyObject* poHandler;
; 422  : 	if (!PyTuple_GetObject(poArgs, 0, &poHandler))

  00004	8d 45 fc	 lea	 eax, DWORD PTR _poHandler$[ebp]
  00007	50		 push	 eax
  00008	6a 00		 push	 0
  0000a	ff 75 0c	 push	 DWORD PTR _poArgs$[ebp]
  0000d	e8 00 00 00 00	 call	 ?PyTuple_GetObject@@YA_NPAU_object@@HPAPAU1@@Z ; PyTuple_GetObject
  00012	83 c4 0c	 add	 esp, 12			; 0000000cH
  00015	84 c0		 test	 al, al
  00017	75 0e		 jne	 SHORT $LN2@appSetMous

; 423  : 		return Py_BuildException();

  00019	6a 00		 push	 0
  0001b	e8 00 00 00 00	 call	 ?Py_BuildException@@YAPAU_object@@PBDZZ ; Py_BuildException
  00020	83 c4 04	 add	 esp, 4

; 427  : }

  00023	8b e5		 mov	 esp, ebp
  00025	5d		 pop	 ebp
  00026	c3		 ret	 0
$LN2@appSetMous:

; 424  : 
; 425  : 	CPythonApplication::Instance().SetMouseHandler(poHandler);

  00027	ff 75 fc	 push	 DWORD PTR _poHandler$[ebp]
  0002a	8b 0d 00 00 00
	00		 mov	 ecx, DWORD PTR ?ms_pInstance@CPythonApplication@@1PAV1@A ; CPythonApplication::ms_pInstance
  00030	e8 00 00 00 00	 call	 ?SetMouseHandler@CPythonApplication@@QAEXPAU_object@@@Z ; CPythonApplication::SetMouseHandler

; 426  : 	return Py_BuildNone();

  00035	e8 00 00 00 00	 call	 ?Py_BuildNone@@YAPAU_object@@XZ ; Py_BuildNone

; 427  : }

  0003a	8b e5		 mov	 esp, ebp
  0003c	5d		 pop	 ebp
  0003d	c3		 ret	 0
?appSetMouseHandler@@YAPAU_object@@PAU1@0@Z ENDP	; appSetMouseHandler
_TEXT	ENDS
; Function compile flags: /Ogtp
; File D:\Metin2 Server Files\mainline\SRC_2014\Metin2Client\UserInterface\PythonApplicationModule.cpp
;	COMDAT ?appRenderGame@@YAPAU_object@@PAU1@0@Z
_TEXT	SEGMENT
_poSelf$ = 8						; size = 4
_poArgs$ = 12						; size = 4
?appRenderGame@@YAPAU_object@@PAU1@0@Z PROC		; appRenderGame, COMDAT

; 413  : 	CPythonApplication::Instance().RenderGame();

  00000	8b 0d 00 00 00
	00		 mov	 ecx, DWORD PTR ?ms_pInstance@CPythonApplication@@1PAV1@A ; CPythonApplication::ms_pInstance
  00006	e8 00 00 00 00	 call	 ?RenderGame@CPythonApplication@@QAEXXZ ; CPythonApplication::RenderGame

; 414  : 	return Py_BuildNone();

  0000b	e9 00 00 00 00	 jmp	 ?Py_BuildNone@@YAPAU_object@@XZ ; Py_BuildNone
?appRenderGame@@YAPAU_object@@PAU1@0@Z ENDP		; appRenderGame
_TEXT	ENDS
; Function compile flags: /Ogtp
; File D:\Metin2 Server Files\mainline\SRC_2014\Metin2Client\UserInterface\PythonApplicationModule.cpp
;	COMDAT ?appUpdateGame@@YAPAU_object@@PAU1@0@Z
_TEXT	SEGMENT
_poSelf$ = 8						; size = 4
_poArgs$ = 12						; size = 4
?appUpdateGame@@YAPAU_object@@PAU1@0@Z PROC		; appUpdateGame, COMDAT

; 407  : 	CPythonApplication::Instance().UpdateGame();

  00000	8b 0d 00 00 00
	00		 mov	 ecx, DWORD PTR ?ms_pInstance@CPythonApplication@@1PAV1@A ; CPythonApplication::ms_pInstance
  00006	e8 00 00 00 00	 call	 ?UpdateGame@CPythonApplication@@QAEXXZ ; CPythonApplication::UpdateGame

; 408  : 	return Py_BuildNone();

  0000b	e9 00 00 00 00	 jmp	 ?Py_BuildNone@@YAPAU_object@@XZ ; Py_BuildNone
?appUpdateGame@@YAPAU_object@@PAU1@0@Z ENDP		; appUpdateGame
_TEXT	ENDS
; Function compile flags: /Ogtp
; File D:\Metin2 Server Files\mainline\SRC_2014\Metin2Client\UserInterface\PythonApplicationModule.cpp
;	COMDAT ?appGetFileList@@YAPAU_object@@PAU1@0@Z
_TEXT	SEGMENT
_szFilter$ = -328					; size = 4
_wfd$ = -324						; size = 320
__$ArrayPad$ = -4					; size = 4
_poSelf$ = 8						; size = 4
_poArgs$ = 12						; size = 4
?appGetFileList@@YAPAU_object@@PAU1@0@Z PROC		; appGetFileList, COMDAT

; 377  : {

  00000	55		 push	 ebp
  00001	8b ec		 mov	 ebp, esp
  00003	81 ec 48 01 00
	00		 sub	 esp, 328		; 00000148H
  00009	a1 00 00 00 00	 mov	 eax, DWORD PTR ___security_cookie
  0000e	33 c5		 xor	 eax, ebp
  00010	89 45 fc	 mov	 DWORD PTR __$ArrayPad$[ebp], eax
  00013	8b 45 0c	 mov	 eax, DWORD PTR _poArgs$[ebp]

; 378  : 	char* szFilter;
; 379  : 	if (!PyTuple_GetString(poArgs, 0, &szFilter))

  00016	8d 8d b8 fe ff
	ff		 lea	 ecx, DWORD PTR _szFilter$[ebp]
  0001c	51		 push	 ecx
  0001d	6a 00		 push	 0
  0001f	50		 push	 eax
  00020	e8 00 00 00 00	 call	 ?PyTuple_GetString@@YA_NPAU_object@@HPAPAD@Z ; PyTuple_GetString
  00025	83 c4 0c	 add	 esp, 12			; 0000000cH
  00028	84 c0		 test	 al, al
  0002a	75 18		 jne	 SHORT $LN5@appGetFile

; 380  : 		return Py_BuildException();

  0002c	6a 00		 push	 0
  0002e	e8 00 00 00 00	 call	 ?Py_BuildException@@YAPAU_object@@PBDZZ ; Py_BuildException
  00033	83 c4 04	 add	 esp, 4

; 399  : 	}
; 400  : 
; 401  : 	return poList;
; 402  : }

  00036	8b 4d fc	 mov	 ecx, DWORD PTR __$ArrayPad$[ebp]
  00039	33 cd		 xor	 ecx, ebp
  0003b	e8 00 00 00 00	 call	 @__security_check_cookie@4
  00040	8b e5		 mov	 esp, ebp
  00042	5d		 pop	 ebp
  00043	c3		 ret	 0
$LN5@appGetFile:
  00044	56		 push	 esi
  00045	57		 push	 edi

; 381  : 
; 382  : 	PyObject* poList=PyList_New(0);

  00046	6a 00		 push	 0
  00048	ff 15 00 00 00
	00		 call	 DWORD PTR __imp__PyList_New

; 383  : 
; 384  : 	WIN32_FIND_DATA wfd;
; 385  : 	memset(&wfd, 0, sizeof(wfd));

  0004e	68 40 01 00 00	 push	 320			; 00000140H
  00053	8b f8		 mov	 edi, eax
  00055	8d 85 bc fe ff
	ff		 lea	 eax, DWORD PTR _wfd$[ebp]
  0005b	6a 00		 push	 0
  0005d	50		 push	 eax
  0005e	e8 00 00 00 00	 call	 _memset
  00063	83 c4 10	 add	 esp, 16			; 00000010H

; 386  : 
; 387  : 	HANDLE hFind = FindFirstFile(szFilter, &wfd);

  00066	8d 85 bc fe ff
	ff		 lea	 eax, DWORD PTR _wfd$[ebp]
  0006c	50		 push	 eax
  0006d	ff b5 b8 fe ff
	ff		 push	 DWORD PTR _szFilter$[ebp]
  00073	ff 15 00 00 00
	00		 call	 DWORD PTR __imp__FindFirstFileA@8
  00079	8b f0		 mov	 esi, eax

; 388  : 	if (hFind != INVALID_HANDLE_VALUE)

  0007b	83 fe ff	 cmp	 esi, -1
  0007e	74 35		 je	 SHORT $LN6@appGetFile
  00080	53		 push	 ebx
  00081	8b 1d 00 00 00
	00		 mov	 ebx, DWORD PTR __imp__PyString_FromString
$LL4@appGetFile:

; 389  : 	{	
; 390  : 		do
; 391  : 		{
; 392  : 			PyObject* poFileName=PyString_FromString(wfd.cFileName) ;

  00087	8d 85 e8 fe ff
	ff		 lea	 eax, DWORD PTR _wfd$[ebp+44]
  0008d	50		 push	 eax
  0008e	ff d3		 call	 ebx

; 393  : 			PyList_Append(poList, poFileName);

  00090	50		 push	 eax
  00091	57		 push	 edi
  00092	ff 15 00 00 00
	00		 call	 DWORD PTR __imp__PyList_Append
  00098	83 c4 0c	 add	 esp, 12			; 0000000cH

; 394  : 		} 			
; 395  : 		while (FindNextFile(hFind, &wfd));

  0009b	8d 85 bc fe ff
	ff		 lea	 eax, DWORD PTR _wfd$[ebp]
  000a1	50		 push	 eax
  000a2	56		 push	 esi
  000a3	ff 15 00 00 00
	00		 call	 DWORD PTR __imp__FindNextFileA@8
  000a9	85 c0		 test	 eax, eax
  000ab	75 da		 jne	 SHORT $LL4@appGetFile

; 396  : 		
; 397  : 
; 398  : 		FindClose(hFind);

  000ad	56		 push	 esi
  000ae	ff 15 00 00 00
	00		 call	 DWORD PTR __imp__FindClose@4
  000b4	5b		 pop	 ebx
$LN6@appGetFile:

; 399  : 	}
; 400  : 
; 401  : 	return poList;
; 402  : }

  000b5	8b 4d fc	 mov	 ecx, DWORD PTR __$ArrayPad$[ebp]
  000b8	8b c7		 mov	 eax, edi
  000ba	5f		 pop	 edi
  000bb	33 cd		 xor	 ecx, ebp
  000bd	5e		 pop	 esi
  000be	e8 00 00 00 00	 call	 @__security_check_cookie@4
  000c3	8b e5		 mov	 esp, ebp
  000c5	5d		 pop	 ebp
  000c6	c3		 ret	 0
?appGetFileList@@YAPAU_object@@PAU1@0@Z ENDP		; appGetFileList
_TEXT	ENDS
; Function compile flags: /Ogtp
; File D:\Metin2 Server Files\mainline\SRC_2014\Metin2Client\UserInterface\PythonApplicationModule.cpp
;	COMDAT ?appIsExistFile@@YAPAU_object@@PAU1@0@Z
_TEXT	SEGMENT
_szFileName$ = -4					; size = 4
_poSelf$ = 8						; size = 4
_poArgs$ = 12						; size = 4
?appIsExistFile@@YAPAU_object@@PAU1@0@Z PROC		; appIsExistFile, COMDAT

; 366  : {

  00000	55		 push	 ebp
  00001	8b ec		 mov	 ebp, esp
  00003	51		 push	 ecx

; 367  : 	char* szFileName;
; 368  : 	if (!PyTuple_GetString(poArgs, 0, &szFileName))

  00004	8d 45 fc	 lea	 eax, DWORD PTR _szFileName$[ebp]
  00007	50		 push	 eax
  00008	6a 00		 push	 0
  0000a	ff 75 0c	 push	 DWORD PTR _poArgs$[ebp]
  0000d	e8 00 00 00 00	 call	 ?PyTuple_GetString@@YA_NPAU_object@@HPAPAD@Z ; PyTuple_GetString
  00012	83 c4 0c	 add	 esp, 12			; 0000000cH
  00015	84 c0		 test	 al, al
  00017	75 0e		 jne	 SHORT $LN2@appIsExist

; 369  : 		return Py_BuildException();

  00019	6a 00		 push	 0
  0001b	e8 00 00 00 00	 call	 ?Py_BuildException@@YAPAU_object@@PBDZZ ; Py_BuildException
  00020	83 c4 04	 add	 esp, 4

; 374  : }

  00023	8b e5		 mov	 esp, ebp
  00025	5d		 pop	 ebp
  00026	c3		 ret	 0
$LN2@appIsExist:

; 370  : 
; 371  : 	bool isExist=CEterPackManager::Instance().isExist(szFileName);

  00027	ff 75 fc	 push	 DWORD PTR _szFileName$[ebp]
  0002a	8b 0d 00 00 00
	00		 mov	 ecx, DWORD PTR ?ms_singleton@?$CSingleton@VCEterPackManager@@@@0PAVCEterPackManager@@A ; CSingleton<CEterPackManager>::ms_singleton
  00030	e8 00 00 00 00	 call	 ?isExist@CEterPackManager@@QAE_NPBD@Z ; CEterPackManager::isExist

; 372  : 
; 373  : 	return Py_BuildValue("i", isExist);

  00035	0f b6 c0	 movzx	 eax, al
  00038	50		 push	 eax
  00039	68 00 00 00 00	 push	 OFFSET ??_C@_01KBJDNOO@i@
  0003e	ff 15 00 00 00
	00		 call	 DWORD PTR __imp__Py_BuildValue
  00044	83 c4 08	 add	 esp, 8

; 374  : }

  00047	8b e5		 mov	 esp, ebp
  00049	5d		 pop	 ebp
  0004a	c3		 ret	 0
?appIsExistFile@@YAPAU_object@@PAU1@0@Z ENDP		; appIsExistFile
_TEXT	ENDS
; Function compile flags: /Ogtp
; File D:\Metin2 Server Files\mainline\SRC_2014\Metin2Client\UserInterface\PythonApplicationModule.cpp
;	COMDAT ?appGetImageInfo@@YAPAU_object@@PAU1@0@Z
_TEXT	SEGMENT
_szFileName$ = -8					; size = 4
_uImg$ = -4						; size = 4
_poSelf$ = 8						; size = 4
_poArgs$ = 12						; size = 4
?appGetImageInfo@@YAPAU_object@@PAU1@0@Z PROC		; appGetImageInfo, COMDAT

; 338  : {

  00000	55		 push	 ebp
  00001	8b ec		 mov	 ebp, esp
  00003	83 ec 08	 sub	 esp, 8

; 339  : 	char* szFileName;
; 340  : 	if (!PyTuple_GetString(poArgs, 0, &szFileName))

  00006	8d 45 f8	 lea	 eax, DWORD PTR _szFileName$[ebp]
  00009	50		 push	 eax
  0000a	6a 00		 push	 0
  0000c	ff 75 0c	 push	 DWORD PTR _poArgs$[ebp]
  0000f	e8 00 00 00 00	 call	 ?PyTuple_GetString@@YA_NPAU_object@@HPAPAD@Z ; PyTuple_GetString
  00014	83 c4 0c	 add	 esp, 12			; 0000000cH
  00017	84 c0		 test	 al, al
  00019	75 0e		 jne	 SHORT $LN2@appGetImag

; 341  : 		return Py_BuildException();

  0001b	6a 00		 push	 0
  0001d	e8 00 00 00 00	 call	 ?Py_BuildException@@YAPAU_object@@PBDZZ ; Py_BuildException
  00022	83 c4 04	 add	 esp, 4

; 360  : }

  00025	8b e5		 mov	 esp, ebp
  00027	5d		 pop	 ebp
  00028	c3		 ret	 0
$LN2@appGetImag:
  00029	53		 push	 ebx
  0002a	56		 push	 esi
  0002b	57		 push	 edi

; 342  : 
; 343  : 	BOOL canLoad=FALSE;
; 344  : 	ILuint uWidth=0;
; 345  : 	ILuint uHeight=0;
; 346  : 
; 347  : 	ILuint uImg;
; 348  : 	ilGenImages(1, &uImg);

  0002c	8d 45 fc	 lea	 eax, DWORD PTR _uImg$[ebp]
  0002f	33 ff		 xor	 edi, edi
  00031	50		 push	 eax
  00032	6a 01		 push	 1
  00034	33 db		 xor	 ebx, ebx
  00036	33 f6		 xor	 esi, esi
  00038	ff 15 00 00 00
	00		 call	 DWORD PTR __imp__ilGenImages@8

; 349  : 	ilBindImage(uImg);

  0003e	ff 75 fc	 push	 DWORD PTR _uImg$[ebp]
  00041	ff 15 00 00 00
	00		 call	 DWORD PTR __imp__ilBindImage@4

; 350  : 	if (ilLoad(IL_TYPE_UNKNOWN, szFileName))

  00047	ff 75 f8	 push	 DWORD PTR _szFileName$[ebp]
  0004a	56		 push	 esi
  0004b	ff 15 00 00 00
	00		 call	 DWORD PTR __imp__ilLoad@8
  00051	84 c0		 test	 al, al
  00053	74 1b		 je	 SHORT $LN3@appGetImag

; 351  : 	{
; 352  : 		canLoad=TRUE;
; 353  : 		uWidth=ilGetInteger(IL_IMAGE_WIDTH);

  00055	8b 35 00 00 00
	00		 mov	 esi, DWORD PTR __imp__ilGetInteger@4
  0005b	8d 7b 01	 lea	 edi, DWORD PTR [ebx+1]
  0005e	68 e4 0d 00 00	 push	 3556			; 00000de4H
  00063	ff d6		 call	 esi

; 354  : 		uHeight=ilGetInteger(IL_IMAGE_HEIGHT);

  00065	68 e5 0d 00 00	 push	 3557			; 00000de5H
  0006a	8b d8		 mov	 ebx, eax
  0006c	ff d6		 call	 esi
  0006e	8b f0		 mov	 esi, eax
$LN3@appGetImag:

; 355  : 	}
; 356  : 
; 357  : 	ilDeleteImages(1, &uImg);

  00070	8d 45 fc	 lea	 eax, DWORD PTR _uImg$[ebp]
  00073	50		 push	 eax
  00074	6a 01		 push	 1
  00076	ff 15 00 00 00
	00		 call	 DWORD PTR __imp__ilDeleteImages@8

; 358  : 
; 359  : 	return Py_BuildValue("iii", canLoad, uWidth, uHeight);

  0007c	56		 push	 esi
  0007d	53		 push	 ebx
  0007e	57		 push	 edi
  0007f	68 00 00 00 00	 push	 OFFSET ??_C@_03GLKMLICL@iii@
  00084	ff 15 00 00 00
	00		 call	 DWORD PTR __imp__Py_BuildValue
  0008a	83 c4 10	 add	 esp, 16			; 00000010H
  0008d	5f		 pop	 edi
  0008e	5e		 pop	 esi
  0008f	5b		 pop	 ebx

; 360  : }

  00090	8b e5		 mov	 esp, ebp
  00092	5d		 pop	 ebp
  00093	c3		 ret	 0
?appGetImageInfo@@YAPAU_object@@PAU1@0@Z ENDP		; appGetImageInfo
_TEXT	ENDS
; Function compile flags: /Ogtp
; File D:\Metin2 Server Files\mainline\SRC_2014\Metin2Client\UserInterface\PythonApplicationModule.cpp
;	COMDAT ?appGetDefaultCodePage@@YAPAU_object@@PAU1@0@Z
_TEXT	SEGMENT
_poSelf$ = 8						; size = 4
_poArgs$ = 12						; size = 4
?appGetDefaultCodePage@@YAPAU_object@@PAU1@0@Z PROC	; appGetDefaultCodePage, COMDAT

; 319  : 	return Py_BuildValue("i", LocaleService_GetCodePage());

  00000	e8 00 00 00 00	 call	 ?LocaleService_GetCodePage@@YAIXZ ; LocaleService_GetCodePage
  00005	50		 push	 eax
  00006	68 00 00 00 00	 push	 OFFSET ??_C@_01KBJDNOO@i@
  0000b	ff 15 00 00 00
	00		 call	 DWORD PTR __imp__Py_BuildValue
  00011	83 c4 08	 add	 esp, 8

; 320  : }

  00014	c3		 ret	 0
?appGetDefaultCodePage@@YAPAU_object@@PAU1@0@Z ENDP	; appGetDefaultCodePage
_TEXT	ENDS
; Function compile flags: /Ogtp
; File D:\Metin2 Server Files\mainline\SRC_2014\Metin2Client\UserInterface\PythonApplicationModule.cpp
;	COMDAT ?appGetLocalePath@@YAPAU_object@@PAU1@0@Z
_TEXT	SEGMENT
_poSelf$ = 8						; size = 4
_poArgs$ = 12						; size = 4
?appGetLocalePath@@YAPAU_object@@PAU1@0@Z PROC		; appGetLocalePath, COMDAT

; 313  : 	return Py_BuildValue("s", LocaleService_GetLocalePath());

  00000	e8 00 00 00 00	 call	 ?LocaleService_GetLocalePath@@YAPBDXZ ; LocaleService_GetLocalePath
  00005	50		 push	 eax
  00006	68 00 00 00 00	 push	 OFFSET ??_C@_01LKDEMHDF@s@
  0000b	ff 15 00 00 00
	00		 call	 DWORD PTR __imp__Py_BuildValue
  00011	83 c4 08	 add	 esp, 8

; 314  : }

  00014	c3		 ret	 0
?appGetLocalePath@@YAPAU_object@@PAU1@0@Z ENDP		; appGetLocalePath
_TEXT	ENDS
; Function compile flags: /Ogtp
; File D:\Metin2 Server Files\mainline\SRC_2014\Metin2Client\UserInterface\PythonApplicationModule.cpp
;	COMDAT ?appGetLocaleName@@YAPAU_object@@PAU1@0@Z
_TEXT	SEGMENT
_poSelf$ = 8						; size = 4
_poArgs$ = 12						; size = 4
?appGetLocaleName@@YAPAU_object@@PAU1@0@Z PROC		; appGetLocaleName, COMDAT

; 308  : 	return Py_BuildValue("s", LocaleService_GetLocaleName());

  00000	e8 00 00 00 00	 call	 ?LocaleService_GetLocaleName@@YAPBDXZ ; LocaleService_GetLocaleName
  00005	50		 push	 eax
  00006	68 00 00 00 00	 push	 OFFSET ??_C@_01LKDEMHDF@s@
  0000b	ff 15 00 00 00
	00		 call	 DWORD PTR __imp__Py_BuildValue
  00011	83 c4 08	 add	 esp, 8

; 309  : }

  00014	c3		 ret	 0
?appGetLocaleName@@YAPAU_object@@PAU1@0@Z ENDP		; appGetLocaleName
_TEXT	ENDS
; Function compile flags: /Ogtp
; File D:\Metin2 Server Files\mainline\SRC_2014\Metin2Client\UserInterface\PythonApplicationModule.cpp
;	COMDAT ?appLoadLocaleData@@YAPAU_object@@PAU1@0@Z
_TEXT	SEGMENT
_localePath$ = -4					; size = 4
_poSelf$ = 8						; size = 4
_poArgs$ = 12						; size = 4
?appLoadLocaleData@@YAPAU_object@@PAU1@0@Z PROC		; appLoadLocaleData, COMDAT

; 298  : {

  00000	55		 push	 ebp
  00001	8b ec		 mov	 ebp, esp
  00003	51		 push	 ecx

; 299  : 	char* localePath;
; 300  : 	if (!PyTuple_GetString(poArgs, 0, &localePath))

  00004	8d 45 fc	 lea	 eax, DWORD PTR _localePath$[ebp]
  00007	50		 push	 eax
  00008	6a 00		 push	 0
  0000a	ff 75 0c	 push	 DWORD PTR _poArgs$[ebp]
  0000d	e8 00 00 00 00	 call	 ?PyTuple_GetString@@YA_NPAU_object@@HPAPAD@Z ; PyTuple_GetString
  00012	83 c4 0c	 add	 esp, 12			; 0000000cH
  00015	84 c0		 test	 al, al
  00017	75 0e		 jne	 SHORT $LN2@appLoadLoc

; 301  : 		return Py_BuildException();

  00019	6a 00		 push	 0
  0001b	e8 00 00 00 00	 call	 ?Py_BuildException@@YAPAU_object@@PBDZZ ; Py_BuildException
  00020	83 c4 04	 add	 esp, 4

; 304  : }

  00023	8b e5		 mov	 esp, ebp
  00025	5d		 pop	 ebp
  00026	c3		 ret	 0
$LN2@appLoadLoc:

; 302  : 
; 303  : 	return Py_BuildValue("i", LoadLocaleData(localePath));

  00027	ff 75 fc	 push	 DWORD PTR _localePath$[ebp]
  0002a	e8 00 00 00 00	 call	 ?LoadLocaleData@@YA_NPBD@Z ; LoadLocaleData
  0002f	0f b6 c0	 movzx	 eax, al
  00032	50		 push	 eax
  00033	68 00 00 00 00	 push	 OFFSET ??_C@_01KBJDNOO@i@
  00038	ff 15 00 00 00
	00		 call	 DWORD PTR __imp__Py_BuildValue
  0003e	83 c4 0c	 add	 esp, 12			; 0000000cH

; 304  : }

  00041	8b e5		 mov	 esp, ebp
  00043	5d		 pop	 ebp
  00044	c3		 ret	 0
?appLoadLocaleData@@YAPAU_object@@PAU1@0@Z ENDP		; appLoadLocaleData
_TEXT	ENDS
; Function compile flags: /Ogtp
; File D:\Metin2 Server Files\mainline\SRC_2014\Metin2Client\UserInterface\PythonApplicationModule.cpp
;	COMDAT ?appLoadLocaleAddr@@YAPAU_object@@PAU1@0@Z
_TEXT	SEGMENT
_addrPath$ = -8						; size = 4
__$ArrayPad$ = -4					; size = 4
_poSelf$ = 8						; size = 4
_poArgs$ = 12						; size = 4
?appLoadLocaleAddr@@YAPAU_object@@PAU1@0@Z PROC		; appLoadLocaleAddr, COMDAT

; 265  : {

  00000	55		 push	 ebp
  00001	8b ec		 mov	 ebp, esp
  00003	83 ec 08	 sub	 esp, 8
  00006	a1 00 00 00 00	 mov	 eax, DWORD PTR ___security_cookie
  0000b	33 c5		 xor	 eax, ebp
  0000d	89 45 fc	 mov	 DWORD PTR __$ArrayPad$[ebp], eax
  00010	53		 push	 ebx
  00011	56		 push	 esi
  00012	57		 push	 edi

; 266  : 	char* addrPath;
; 267  : 	if (!PyTuple_GetString(poArgs, 0, &addrPath))

  00013	8d 45 f8	 lea	 eax, DWORD PTR _addrPath$[ebp]
  00016	50		 push	 eax
  00017	6a 00		 push	 0
  00019	ff 75 0c	 push	 DWORD PTR _poArgs$[ebp]
  0001c	e8 00 00 00 00	 call	 ?PyTuple_GetString@@YA_NPAU_object@@HPAPAD@Z ; PyTuple_GetString
  00021	83 c4 0c	 add	 esp, 12			; 0000000cH
  00024	84 c0		 test	 al, al
  00026	75 1e		 jne	 SHORT $LN2@appLoadLoc
$LN5@appLoadLoc:

; 295  : }

  00028	6a 00		 push	 0
  0002a	e8 00 00 00 00	 call	 ?Py_BuildException@@YAPAU_object@@PBDZZ ; Py_BuildException
  0002f	83 c4 04	 add	 esp, 4
  00032	8d 65 ec	 lea	 esp, DWORD PTR [ebp-20]
  00035	5f		 pop	 edi
  00036	5e		 pop	 esi
  00037	5b		 pop	 ebx
  00038	8b 4d fc	 mov	 ecx, DWORD PTR __$ArrayPad$[ebp]
  0003b	33 cd		 xor	 ecx, ebp
  0003d	e8 00 00 00 00	 call	 @__security_check_cookie@4
  00042	8b e5		 mov	 esp, ebp
  00044	5d		 pop	 ebp
  00045	c3		 ret	 0
$LN2@appLoadLoc:

; 268  : 		return Py_BuildException();
; 269  : 
; 270  : 	FILE* fp = fopen(addrPath, "rb");

  00046	68 00 00 00 00	 push	 OFFSET ??_C@_02JDPG@rb@
  0004b	ff 75 f8	 push	 DWORD PTR _addrPath$[ebp]
  0004e	e8 00 00 00 00	 call	 _fopen
  00053	8b f0		 mov	 esi, eax
  00055	83 c4 08	 add	 esp, 8

; 271  : 	if (!fp)

  00058	85 f6		 test	 esi, esi
  0005a	74 cc		 je	 SHORT $LN5@appLoadLoc

; 272  : 		return Py_BuildException();
; 273  : 
; 274  : 	fseek(fp, 0, SEEK_END);

  0005c	6a 02		 push	 2
  0005e	6a 00		 push	 0
  00060	56		 push	 esi
  00061	e8 00 00 00 00	 call	 _fseek

; 275  : 
; 276  : 	int size = ftell(fp);

  00066	56		 push	 esi
  00067	e8 00 00 00 00	 call	 _ftell
  0006c	83 c4 10	 add	 esp, 16			; 00000010H
  0006f	8b d8		 mov	 ebx, eax

; 277  : 	char* enc = (char*)_alloca(size);

  00071	e8 00 00 00 00	 call	 __alloca_probe_16
  00076	8b fc		 mov	 edi, esp

; 278  : 	fseek(fp, 0, SEEK_SET);

  00078	6a 00		 push	 0
  0007a	6a 00		 push	 0
  0007c	56		 push	 esi
  0007d	e8 00 00 00 00	 call	 _fseek

; 279  : 	fread(enc, size, 1, fp);

  00082	56		 push	 esi
  00083	6a 01		 push	 1
  00085	53		 push	 ebx
  00086	57		 push	 edi
  00087	e8 00 00 00 00	 call	 _fread

; 280  : 	fclose(fp);

  0008c	56		 push	 esi
  0008d	e8 00 00 00 00	 call	 _fclose
  00092	83 c4 20	 add	 esp, 32			; 00000020H

; 281  : 
; 282  : 	static const unsigned char key[16] = {
; 283  : 		0x82, 0x1b, 0x34, 0xae,
; 284  : 		0x12, 0x3b, 0xfb, 0x17,
; 285  : 		0xd7, 0x2c, 0x39, 0xae,
; 286  : 		0x41, 0x98, 0xf1, 0x63
; 287  : 	};
; 288  : 
; 289  : 	char* buf = (char*)_alloca(size);

  00095	8b c3		 mov	 eax, ebx
  00097	e8 00 00 00 00	 call	 __alloca_probe_16
  0009c	8b f4		 mov	 esi, esp

; 290  : 	//int decSize = 
; 291  : 	tea_decrypt((unsigned long*)buf, (const unsigned long*)enc, (const unsigned long*)key, size);

  0009e	53		 push	 ebx
  0009f	68 00 00 00 00	 push	 OFFSET ?key@?1??appLoadLocaleAddr@@YAPAU_object@@PAU2@0@Z@4QBEB
  000a4	57		 push	 edi
  000a5	56		 push	 esi
  000a6	e8 00 00 00 00	 call	 _tea_decrypt

; 292  : 	unsigned int retSize = *(unsigned int*)buf;
; 293  : 	char* ret = buf + sizeof(unsigned int);
; 294  : 	return Py_BuildValue("s#", ret, retSize);

  000ab	ff 36		 push	 DWORD PTR [esi]
  000ad	8d 46 04	 lea	 eax, DWORD PTR [esi+4]
  000b0	50		 push	 eax
  000b1	68 00 00 00 00	 push	 OFFSET ??_C@_02OIKAIHIF@s?$CD@
  000b6	ff 15 00 00 00
	00		 call	 DWORD PTR __imp__Py_BuildValue
  000bc	83 c4 1c	 add	 esp, 28			; 0000001cH

; 295  : }

  000bf	8d 65 ec	 lea	 esp, DWORD PTR [ebp-20]
  000c2	5f		 pop	 edi
  000c3	5e		 pop	 esi
  000c4	5b		 pop	 ebx
  000c5	8b 4d fc	 mov	 ecx, DWORD PTR __$ArrayPad$[ebp]
  000c8	33 cd		 xor	 ecx, ebp
  000ca	e8 00 00 00 00	 call	 @__security_check_cookie@4
  000cf	8b e5		 mov	 esp, ebp
  000d1	5d		 pop	 ebp
  000d2	c3		 ret	 0
?appLoadLocaleAddr@@YAPAU_object@@PAU1@0@Z ENDP		; appLoadLocaleAddr
_TEXT	ENDS
; Function compile flags: /Ogtp
; File D:\Metin2 Server Files\mainline\SRC_2014\Metin2Client\UserInterface\PythonApplicationModule.cpp
;	COMDAT ?appIsCHEONMA@@YAPAU_object@@PAU1@0@Z
_TEXT	SEGMENT
_poSelf$ = 8						; size = 4
_poArgs$ = 12						; size = 4
?appIsCHEONMA@@YAPAU_object@@PAU1@0@Z PROC		; appIsCHEONMA, COMDAT

; 259  : 	return Py_BuildValue("i", LocaleService_IsCHEONMA());

  00000	e8 00 00 00 00	 call	 ?LocaleService_IsCHEONMA@@YA_NXZ ; LocaleService_IsCHEONMA
  00005	0f b6 c0	 movzx	 eax, al
  00008	50		 push	 eax
  00009	68 00 00 00 00	 push	 OFFSET ??_C@_01KBJDNOO@i@
  0000e	ff 15 00 00 00
	00		 call	 DWORD PTR __imp__Py_BuildValue
  00014	83 c4 08	 add	 esp, 8

; 260  : }

  00017	c3		 ret	 0
?appIsCHEONMA@@YAPAU_object@@PAU1@0@Z ENDP		; appIsCHEONMA
_TEXT	ENDS
; Function compile flags: /Ogtp
; File D:\Metin2 Server Files\mainline\SRC_2014\Metin2Client\UserInterface\PythonApplicationModule.cpp
;	COMDAT ?appSetCHEONMA@@YAPAU_object@@PAU1@0@Z
_TEXT	SEGMENT
_enable$ = -4						; size = 4
_poSelf$ = 8						; size = 4
_poArgs$ = 12						; size = 4
?appSetCHEONMA@@YAPAU_object@@PAU1@0@Z PROC		; appSetCHEONMA, COMDAT

; 248  : {

  00000	55		 push	 ebp
  00001	8b ec		 mov	 ebp, esp
  00003	51		 push	 ecx

; 249  : 	int enable;
; 250  : 	if (!PyTuple_GetInteger(poArgs, 0, &enable))

  00004	8d 45 fc	 lea	 eax, DWORD PTR _enable$[ebp]
  00007	50		 push	 eax
  00008	6a 00		 push	 0
  0000a	ff 75 0c	 push	 DWORD PTR _poArgs$[ebp]
  0000d	e8 00 00 00 00	 call	 ?PyTuple_GetInteger@@YA_NPAU_object@@HPAH@Z ; PyTuple_GetInteger
  00012	83 c4 0c	 add	 esp, 12			; 0000000cH
  00015	84 c0		 test	 al, al
  00017	75 0e		 jne	 SHORT $LN2@appSetCHEO

; 251  : 		return Py_BuildException();

  00019	6a 00		 push	 0
  0001b	e8 00 00 00 00	 call	 ?Py_BuildException@@YAPAU_object@@PBDZZ ; Py_BuildException
  00020	83 c4 04	 add	 esp, 4

; 255  : }

  00023	8b e5		 mov	 esp, ebp
  00025	5d		 pop	 ebp
  00026	c3		 ret	 0
$LN2@appSetCHEO:

; 252  : 	
; 253  : 	LocaleService_SetCHEONMA(enable ? true : false);

  00027	83 7d fc 00	 cmp	 DWORD PTR _enable$[ebp], 0
  0002b	0f 95 c0	 setne	 al
  0002e	0f b6 c0	 movzx	 eax, al
  00031	50		 push	 eax
  00032	e8 00 00 00 00	 call	 ?LocaleService_SetCHEONMA@@YAX_N@Z ; LocaleService_SetCHEONMA
  00037	83 c4 04	 add	 esp, 4

; 254  : 	return Py_BuildNone();

  0003a	e8 00 00 00 00	 call	 ?Py_BuildNone@@YAPAU_object@@XZ ; Py_BuildNone

; 255  : }

  0003f	8b e5		 mov	 esp, ebp
  00041	5d		 pop	 ebp
  00042	c3		 ret	 0
?appSetCHEONMA@@YAPAU_object@@PAU1@0@Z ENDP		; appSetCHEONMA
_TEXT	ENDS
; Function compile flags: /Ogtp
; File D:\Metin2 Server Files\mainline\SRC_2014\Metin2Client\UserInterface\PythonApplicationModule.cpp
;	COMDAT ?appGetLocaleServiceName@@YAPAU_object@@PAU1@0@Z
_TEXT	SEGMENT
_poSelf$ = 8						; size = 4
_poArgs$ = 12						; size = 4
?appGetLocaleServiceName@@YAPAU_object@@PAU1@0@Z PROC	; appGetLocaleServiceName, COMDAT

; 241  : 	return Py_BuildValue("s", LocaleService_GetName());

  00000	e8 00 00 00 00	 call	 ?LocaleService_GetName@@YAPBDXZ ; LocaleService_GetName
  00005	50		 push	 eax
  00006	68 00 00 00 00	 push	 OFFSET ??_C@_01LKDEMHDF@s@
  0000b	ff 15 00 00 00
	00		 call	 DWORD PTR __imp__Py_BuildValue
  00011	83 c4 08	 add	 esp, 8

; 242  : }

  00014	c3		 ret	 0
?appGetLocaleServiceName@@YAPAU_object@@PAU1@0@Z ENDP	; appGetLocaleServiceName
_TEXT	ENDS
; Function compile flags: /Ogtp
; File D:\Metin2 Server Files\mainline\SRC_2014\Metin2Client\UserInterface\PythonApplicationModule.cpp
;	COMDAT ?appForceSetLocale@@YAPAU_object@@PAU1@0@Z
_TEXT	SEGMENT
_szName$ = -8						; size = 4
_szLocalePath$ = -4					; size = 4
_poSelf$ = 8						; size = 4
_poArgs$ = 12						; size = 4
?appForceSetLocale@@YAPAU_object@@PAU1@0@Z PROC		; appForceSetLocale, COMDAT

; 225  : {

  00000	55		 push	 ebp
  00001	8b ec		 mov	 ebp, esp
  00003	83 ec 08	 sub	 esp, 8

; 226  : 	char* szName;
; 227  : 	if (!PyTuple_GetString(poArgs, 0, &szName))

  00006	8d 45 f8	 lea	 eax, DWORD PTR _szName$[ebp]
  00009	50		 push	 eax
  0000a	6a 00		 push	 0
  0000c	ff 75 0c	 push	 DWORD PTR _poArgs$[ebp]
  0000f	e8 00 00 00 00	 call	 ?PyTuple_GetString@@YA_NPAU_object@@HPAPAD@Z ; PyTuple_GetString
  00014	83 c4 0c	 add	 esp, 12			; 0000000cH
  00017	84 c0		 test	 al, al
  00019	75 0e		 jne	 SHORT $LN2@appForceSe
$LN5@appForceSe:

; 237  : }

  0001b	6a 00		 push	 0
  0001d	e8 00 00 00 00	 call	 ?Py_BuildException@@YAPAU_object@@PBDZZ ; Py_BuildException
  00022	83 c4 04	 add	 esp, 4
  00025	8b e5		 mov	 esp, ebp
  00027	5d		 pop	 ebp
  00028	c3		 ret	 0
$LN2@appForceSe:

; 228  : 		return Py_BuildException();
; 229  : 
; 230  : 	char* szLocalePath;
; 231  : 	if (!PyTuple_GetString(poArgs, 1, &szLocalePath))

  00029	8d 45 fc	 lea	 eax, DWORD PTR _szLocalePath$[ebp]
  0002c	50		 push	 eax
  0002d	6a 01		 push	 1
  0002f	ff 75 0c	 push	 DWORD PTR _poArgs$[ebp]
  00032	e8 00 00 00 00	 call	 ?PyTuple_GetString@@YA_NPAU_object@@HPAPAD@Z ; PyTuple_GetString
  00037	83 c4 0c	 add	 esp, 12			; 0000000cH
  0003a	84 c0		 test	 al, al
  0003c	74 dd		 je	 SHORT $LN5@appForceSe

; 232  : 		return Py_BuildException();
; 233  : 	
; 234  : 	LocaleService_ForceSetLocale(szName, szLocalePath);

  0003e	ff 75 fc	 push	 DWORD PTR _szLocalePath$[ebp]
  00041	ff 75 f8	 push	 DWORD PTR _szName$[ebp]
  00044	e8 00 00 00 00	 call	 ?LocaleService_ForceSetLocale@@YAXPBD0@Z ; LocaleService_ForceSetLocale
  00049	83 c4 08	 add	 esp, 8

; 235  : 
; 236  : 	return Py_BuildNone();

  0004c	e8 00 00 00 00	 call	 ?Py_BuildNone@@YAPAU_object@@XZ ; Py_BuildNone

; 237  : }

  00051	8b e5		 mov	 esp, ebp
  00053	5d		 pop	 ebp
  00054	c3		 ret	 0
?appForceSetLocale@@YAPAU_object@@PAU1@0@Z ENDP		; appForceSetLocale
_TEXT	ENDS
; Function compile flags: /Ogtp
; File D:\Metin2 Server Files\mainline\SRC_2014\Metin2Client\UserInterface\PythonApplicationModule.cpp
;	COMDAT ?appSetFrameSkip@@YAPAU_object@@PAU1@0@Z
_TEXT	SEGMENT
_nFrameSkip$ = -4					; size = 4
_poSelf$ = 8						; size = 4
_poArgs$ = 12						; size = 4
?appSetFrameSkip@@YAPAU_object@@PAU1@0@Z PROC		; appSetFrameSkip, COMDAT

; 213  : {

  00000	55		 push	 ebp
  00001	8b ec		 mov	 ebp, esp
  00003	51		 push	 ecx

; 214  : 	int nFrameSkip;
; 215  : 	if (!PyTuple_GetInteger(poArgs, 0, &nFrameSkip))

  00004	8d 45 fc	 lea	 eax, DWORD PTR _nFrameSkip$[ebp]
  00007	50		 push	 eax
  00008	6a 00		 push	 0
  0000a	ff 75 0c	 push	 DWORD PTR _poArgs$[ebp]
  0000d	e8 00 00 00 00	 call	 ?PyTuple_GetInteger@@YA_NPAU_object@@HPAH@Z ; PyTuple_GetInteger
  00012	83 c4 0c	 add	 esp, 12			; 0000000cH
  00015	84 c0		 test	 al, al
  00017	75 0e		 jne	 SHORT $LN2@appSetFram

; 216  : 		return Py_BuildException();

  00019	6a 00		 push	 0
  0001b	e8 00 00 00 00	 call	 ?Py_BuildException@@YAPAU_object@@PBDZZ ; Py_BuildException
  00020	83 c4 04	 add	 esp, 4

; 220  : }

  00023	8b e5		 mov	 esp, ebp
  00025	5d		 pop	 ebp
  00026	c3		 ret	 0
$LN2@appSetFram:

; 217  : 
; 218  : 	CPythonApplication::Instance().SetFrameSkip(nFrameSkip ? true : false);

  00027	83 7d fc 00	 cmp	 DWORD PTR _nFrameSkip$[ebp], 0
  0002b	8b 0d 00 00 00
	00		 mov	 ecx, DWORD PTR ?ms_pInstance@CPythonApplication@@1PAV1@A ; CPythonApplication::ms_pInstance
  00031	0f 95 c0	 setne	 al
  00034	0f b6 c0	 movzx	 eax, al
  00037	50		 push	 eax
  00038	e8 00 00 00 00	 call	 ?SetFrameSkip@CPythonApplication@@QAEX_N@Z ; CPythonApplication::SetFrameSkip

; 219  : 	return Py_BuildNone();

  0003d	e8 00 00 00 00	 call	 ?Py_BuildNone@@YAPAU_object@@XZ ; Py_BuildNone

; 220  : }

  00042	8b e5		 mov	 esp, ebp
  00044	5d		 pop	 ebp
  00045	c3		 ret	 0
?appSetFrameSkip@@YAPAU_object@@PAU1@0@Z ENDP		; appSetFrameSkip
_TEXT	ENDS
; Function compile flags: /Ogtp
; File D:\Metin2 Server Files\mainline\SRC_2014\Metin2Client\UserInterface\PythonApplicationModule.cpp
;	COMDAT ?appSetMinFog@@YAPAU_object@@PAU1@0@Z
_TEXT	SEGMENT
_fMinFog$ = -4						; size = 4
_poSelf$ = 8						; size = 4
_poArgs$ = 12						; size = 4
?appSetMinFog@@YAPAU_object@@PAU1@0@Z PROC		; appSetMinFog, COMDAT

; 203  : {

  00000	55		 push	 ebp
  00001	8b ec		 mov	 ebp, esp
  00003	51		 push	 ecx

; 204  : 	float fMinFog;
; 205  : 	if (!PyTuple_GetFloat(poArgs, 0, &fMinFog))

  00004	8d 45 fc	 lea	 eax, DWORD PTR _fMinFog$[ebp]
  00007	50		 push	 eax
  00008	6a 00		 push	 0
  0000a	ff 75 0c	 push	 DWORD PTR _poArgs$[ebp]
  0000d	e8 00 00 00 00	 call	 ?PyTuple_GetFloat@@YA_NPAU_object@@HPAM@Z ; PyTuple_GetFloat
  00012	83 c4 0c	 add	 esp, 12			; 0000000cH
  00015	84 c0		 test	 al, al
  00017	75 0e		 jne	 SHORT $LN2@appSetMinF

; 206  : 		return Py_BuildException();

  00019	6a 00		 push	 0
  0001b	e8 00 00 00 00	 call	 ?Py_BuildException@@YAPAU_object@@PBDZZ ; Py_BuildException
  00020	83 c4 04	 add	 esp, 4

; 210  : }

  00023	8b e5		 mov	 esp, ebp
  00025	5d		 pop	 ebp
  00026	c3		 ret	 0
$LN2@appSetMinF:

; 207  : 
; 208  : 	CPythonApplication::Instance().SetMinFog(fMinFog);

  00027	f3 0f 10 45 fc	 movss	 xmm0, DWORD PTR _fMinFog$[ebp]
  0002c	51		 push	 ecx
  0002d	8b 0d 00 00 00
	00		 mov	 ecx, DWORD PTR ?ms_pInstance@CPythonApplication@@1PAV1@A ; CPythonApplication::ms_pInstance
  00033	f3 0f 11 04 24	 movss	 DWORD PTR [esp], xmm0
  00038	e8 00 00 00 00	 call	 ?SetMinFog@CPythonApplication@@QAEXM@Z ; CPythonApplication::SetMinFog

; 209  : 	return Py_BuildNone();

  0003d	e8 00 00 00 00	 call	 ?Py_BuildNone@@YAPAU_object@@XZ ; Py_BuildNone

; 210  : }

  00042	8b e5		 mov	 esp, ebp
  00044	5d		 pop	 ebp
  00045	c3		 ret	 0
?appSetMinFog@@YAPAU_object@@PAU1@0@Z ENDP		; appSetMinFog
_TEXT	ENDS
; Function compile flags: /Ogtp
; File D:\Metin2 Server Files\mainline\SRC_2014\Metin2Client\UserInterface\PythonApplicationModule.cpp
;	COMDAT ?appSetSpecularSpeed@@YAPAU_object@@PAU1@0@Z
_TEXT	SEGMENT
_fSpeed$ = -4						; size = 4
_poSelf$ = 8						; size = 4
_poArgs$ = 12						; size = 4
?appSetSpecularSpeed@@YAPAU_object@@PAU1@0@Z PROC	; appSetSpecularSpeed, COMDAT

; 192  : {

  00000	55		 push	 ebp
  00001	8b ec		 mov	 ebp, esp
  00003	51		 push	 ecx

; 193  : 	float fSpeed;
; 194  : 	if (!PyTuple_GetFloat(poArgs, 0, &fSpeed))

  00004	8d 45 fc	 lea	 eax, DWORD PTR _fSpeed$[ebp]
  00007	50		 push	 eax
  00008	6a 00		 push	 0
  0000a	ff 75 0c	 push	 DWORD PTR _poArgs$[ebp]
  0000d	e8 00 00 00 00	 call	 ?PyTuple_GetFloat@@YA_NPAU_object@@HPAM@Z ; PyTuple_GetFloat
  00012	83 c4 0c	 add	 esp, 12			; 0000000cH
  00015	84 c0		 test	 al, al
  00017	75 0e		 jne	 SHORT $LN2@appSetSpec

; 195  : 		return Py_BuildException();

  00019	6a 00		 push	 0
  0001b	e8 00 00 00 00	 call	 ?Py_BuildException@@YAPAU_object@@PBDZZ ; Py_BuildException
  00020	83 c4 04	 add	 esp, 4

; 200  : }

  00023	8b e5		 mov	 esp, ebp
  00025	5d		 pop	 ebp
  00026	c3		 ret	 0
$LN2@appSetSpec:
  00027	f3 0f 10 45 fc	 movss	 xmm0, DWORD PTR _fSpeed$[ebp]

; 196  : 
; 197  : 	g_specularSpd = fSpeed;

  0002c	0f 5a c0	 cvtps2pd xmm0, xmm0
  0002f	f2 0f 11 05 00
	00 00 00	 movsd	 QWORD PTR ?g_specularSpd@@3NA, xmm0

; 198  : 
; 199  : 	return Py_BuildNone();

  00037	e8 00 00 00 00	 call	 ?Py_BuildNone@@YAPAU_object@@XZ ; Py_BuildNone

; 200  : }

  0003c	8b e5		 mov	 esp, ebp
  0003e	5d		 pop	 ebp
  0003f	c3		 ret	 0
?appSetSpecularSpeed@@YAPAU_object@@PAU1@0@Z ENDP	; appSetSpecularSpeed
_TEXT	ENDS
; Function compile flags: /Ogtp
; File D:\Metin2 Server Files\mainline\SRC_2014\Metin2Client\UserInterface\PythonApplicationModule.cpp
;	COMDAT ?appSetControlFP@@YAPAU_object@@PAU1@0@Z
_TEXT	SEGMENT
_poSelf$ = 8						; size = 4
_poArgs$ = 12						; size = 4
?appSetControlFP@@YAPAU_object@@PAU1@0@Z PROC		; appSetControlFP, COMDAT

; 187  : 	_controlfp( _PC_24, _MCW_PC );

  00000	68 00 00 03 00	 push	 196608			; 00030000H
  00005	68 00 00 02 00	 push	 131072			; 00020000H
  0000a	e8 00 00 00 00	 call	 __controlfp
  0000f	83 c4 08	 add	 esp, 8

; 188  : 	return Py_BuildNone();

  00012	e9 00 00 00 00	 jmp	 ?Py_BuildNone@@YAPAU_object@@XZ ; Py_BuildNone
?appSetControlFP@@YAPAU_object@@PAU1@0@Z ENDP		; appSetControlFP
_TEXT	ENDS
; Function compile flags: /Ogtp
; File D:\Metin2 Server Files\mainline\SRC_2014\Metin2Client\UserInterface\PythonApplicationModule.cpp
;	COMDAT ?appSetCameraMaxDistance@@YAPAU_object@@PAU1@0@Z
_TEXT	SEGMENT
_fMax$ = -4						; size = 4
_poSelf$ = 8						; size = 4
_poArgs$ = 12						; size = 4
?appSetCameraMaxDistance@@YAPAU_object@@PAU1@0@Z PROC	; appSetCameraMaxDistance, COMDAT

; 176  : {

  00000	55		 push	 ebp
  00001	8b ec		 mov	 ebp, esp
  00003	51		 push	 ecx

; 177  : 	float fMax;
; 178  : 	if (!PyTuple_GetFloat(poArgs, 0, &fMax))

  00004	8d 45 fc	 lea	 eax, DWORD PTR _fMax$[ebp]
  00007	50		 push	 eax
  00008	6a 00		 push	 0
  0000a	ff 75 0c	 push	 DWORD PTR _poArgs$[ebp]
  0000d	e8 00 00 00 00	 call	 ?PyTuple_GetFloat@@YA_NPAU_object@@HPAM@Z ; PyTuple_GetFloat
  00012	83 c4 0c	 add	 esp, 12			; 0000000cH
  00015	84 c0		 test	 al, al
  00017	75 0e		 jne	 SHORT $LN2@appSetCame

; 179  : 		return Py_BuildException();

  00019	6a 00		 push	 0
  0001b	e8 00 00 00 00	 call	 ?Py_BuildException@@YAPAU_object@@PBDZZ ; Py_BuildException
  00020	83 c4 04	 add	 esp, 4

; 183  : }

  00023	8b e5		 mov	 esp, ebp
  00025	5d		 pop	 ebp
  00026	c3		 ret	 0
$LN2@appSetCame:

; 180  : 
; 181  : 	CCamera::SetCameraMaxDistance(fMax);

  00027	f3 0f 10 45 fc	 movss	 xmm0, DWORD PTR _fMax$[ebp]
  0002c	51		 push	 ecx
  0002d	f3 0f 11 04 24	 movss	 DWORD PTR [esp], xmm0
  00032	e8 00 00 00 00	 call	 ?SetCameraMaxDistance@CCamera@@SAXM@Z ; CCamera::SetCameraMaxDistance
  00037	83 c4 04	 add	 esp, 4

; 182  : 	return Py_BuildNone();

  0003a	e8 00 00 00 00	 call	 ?Py_BuildNone@@YAPAU_object@@XZ ; Py_BuildNone

; 183  : }

  0003f	8b e5		 mov	 esp, ebp
  00041	5d		 pop	 ebp
  00042	c3		 ret	 0
?appSetCameraMaxDistance@@YAPAU_object@@PAU1@0@Z ENDP	; appSetCameraMaxDistance
_TEXT	ENDS
; Function compile flags: /Ogtp
; File D:\Metin2 Server Files\mainline\SRC_2014\Metin2Client\UserInterface\PythonApplicationModule.cpp
;	COMDAT ?appSetRideHorseEnable@@YAPAU_object@@PAU1@0@Z
_TEXT	SEGMENT
_nEnable$ = -4						; size = 4
_poSelf$ = 8						; size = 4
_poArgs$ = 12						; size = 4
?appSetRideHorseEnable@@YAPAU_object@@PAU1@0@Z PROC	; appSetRideHorseEnable, COMDAT

; 165  : {

  00000	55		 push	 ebp
  00001	8b ec		 mov	 ebp, esp
  00003	51		 push	 ecx

; 166  : 	int nEnable;
; 167  : 	if (!PyTuple_GetInteger(poArgs, 0, &nEnable))

  00004	8d 45 fc	 lea	 eax, DWORD PTR _nEnable$[ebp]
  00007	50		 push	 eax
  00008	6a 00		 push	 0
  0000a	ff 75 0c	 push	 DWORD PTR _poArgs$[ebp]
  0000d	e8 00 00 00 00	 call	 ?PyTuple_GetInteger@@YA_NPAU_object@@HPAH@Z ; PyTuple_GetInteger
  00012	83 c4 0c	 add	 esp, 12			; 0000000cH
  00015	84 c0		 test	 al, al
  00017	75 0e		 jne	 SHORT $LN2@appSetRide

; 168  : 		return Py_BuildException();

  00019	6a 00		 push	 0
  0001b	e8 00 00 00 00	 call	 ?Py_BuildException@@YAPAU_object@@PBDZZ ; Py_BuildException
  00020	83 c4 04	 add	 esp, 4

; 173  : }

  00023	8b e5		 mov	 esp, ebp
  00025	5d		 pop	 ebp
  00026	c3		 ret	 0
$LN2@appSetRide:

; 169  : 
; 170  : 	RIDE_HORSE_ENABLE=nEnable;

  00027	8b 45 fc	 mov	 eax, DWORD PTR _nEnable$[ebp]
  0002a	a3 00 00 00 00	 mov	 DWORD PTR ?RIDE_HORSE_ENABLE@@3HA, eax ; RIDE_HORSE_ENABLE

; 171  : 
; 172  : 	return Py_BuildNone();

  0002f	e8 00 00 00 00	 call	 ?Py_BuildNone@@YAPAU_object@@XZ ; Py_BuildNone

; 173  : }

  00034	8b e5		 mov	 esp, ebp
  00036	5d		 pop	 ebp
  00037	c3		 ret	 0
?appSetRideHorseEnable@@YAPAU_object@@PAU1@0@Z ENDP	; appSetRideHorseEnable
_TEXT	ENDS
; Function compile flags: /Ogtp
; File D:\Metin2 Server Files\mainline\SRC_2014\Metin2Client\UserInterface\PythonApplicationModule.cpp
;	COMDAT ?SetTwoHandedWeaponAttSpeedDecreaseValue@@YAPAU_object@@PAU1@0@Z
_TEXT	SEGMENT
_iValue$ = -4						; size = 4
_poSelf$ = 8						; size = 4
_poArgs$ = 12						; size = 4
?SetTwoHandedWeaponAttSpeedDecreaseValue@@YAPAU_object@@PAU1@0@Z PROC ; SetTwoHandedWeaponAttSpeedDecreaseValue, COMDAT

; 154  : {

  00000	55		 push	 ebp
  00001	8b ec		 mov	 ebp, esp
  00003	51		 push	 ecx

; 155  : 	int iValue;
; 156  : 	if (!PyTuple_GetInteger(poArgs, 0, &iValue))

  00004	8d 45 fc	 lea	 eax, DWORD PTR _iValue$[ebp]
  00007	50		 push	 eax
  00008	6a 00		 push	 0
  0000a	ff 75 0c	 push	 DWORD PTR _poArgs$[ebp]
  0000d	e8 00 00 00 00	 call	 ?PyTuple_GetInteger@@YA_NPAU_object@@HPAH@Z ; PyTuple_GetInteger
  00012	83 c4 0c	 add	 esp, 12			; 0000000cH
  00015	84 c0		 test	 al, al
  00017	75 0e		 jne	 SHORT $LN2@SetTwoHand

; 157  : 		return Py_BuildException();

  00019	6a 00		 push	 0
  0001b	e8 00 00 00 00	 call	 ?Py_BuildException@@YAPAU_object@@PBDZZ ; Py_BuildException
  00020	83 c4 04	 add	 esp, 4

; 162  : }

  00023	8b e5		 mov	 esp, ebp
  00025	5d		 pop	 ebp
  00026	c3		 ret	 0
$LN2@SetTwoHand:

; 158  : 
; 159  : 	TWOHANDED_WEWAPON_ATT_SPEED_DECREASE_VALUE = iValue;

  00027	8b 45 fc	 mov	 eax, DWORD PTR _iValue$[ebp]
  0002a	a3 00 00 00 00	 mov	 DWORD PTR ?TWOHANDED_WEWAPON_ATT_SPEED_DECREASE_VALUE@@3HA, eax ; TWOHANDED_WEWAPON_ATT_SPEED_DECREASE_VALUE

; 160  : 
; 161  : 	return Py_BuildNone();

  0002f	e8 00 00 00 00	 call	 ?Py_BuildNone@@YAPAU_object@@XZ ; Py_BuildNone

; 162  : }

  00034	8b e5		 mov	 esp, ebp
  00036	5d		 pop	 ebp
  00037	c3		 ret	 0
?SetTwoHandedWeaponAttSpeedDecreaseValue@@YAPAU_object@@PAU1@0@Z ENDP ; SetTwoHandedWeaponAttSpeedDecreaseValue
_TEXT	ENDS
; Function compile flags: /Ogtp
; File D:\Metin2 Server Files\mainline\SRC_2014\Metin2Client\UserInterface\PythonApplicationModule.cpp
;	COMDAT ?appSetSkillEffectUpgradeEnable@@YAPAU_object@@PAU1@0@Z
_TEXT	SEGMENT
_nEnable$ = -4						; size = 4
_poSelf$ = 8						; size = 4
_poArgs$ = 12						; size = 4
?appSetSkillEffectUpgradeEnable@@YAPAU_object@@PAU1@0@Z PROC ; appSetSkillEffectUpgradeEnable, COMDAT

; 143  : {

  00000	55		 push	 ebp
  00001	8b ec		 mov	 ebp, esp
  00003	51		 push	 ecx

; 144  : 	int nEnable;
; 145  : 	if (!PyTuple_GetInteger(poArgs, 0, &nEnable))

  00004	8d 45 fc	 lea	 eax, DWORD PTR _nEnable$[ebp]
  00007	50		 push	 eax
  00008	6a 00		 push	 0
  0000a	ff 75 0c	 push	 DWORD PTR _poArgs$[ebp]
  0000d	e8 00 00 00 00	 call	 ?PyTuple_GetInteger@@YA_NPAU_object@@HPAH@Z ; PyTuple_GetInteger
  00012	83 c4 0c	 add	 esp, 12			; 0000000cH
  00015	84 c0		 test	 al, al
  00017	75 0e		 jne	 SHORT $LN2@appSetSkil

; 146  : 		return Py_BuildException();

  00019	6a 00		 push	 0
  0001b	e8 00 00 00 00	 call	 ?Py_BuildException@@YAPAU_object@@PBDZZ ; Py_BuildException
  00020	83 c4 04	 add	 esp, 4

; 151  : }

  00023	8b e5		 mov	 esp, ebp
  00025	5d		 pop	 ebp
  00026	c3		 ret	 0
$LN2@appSetSkil:

; 147  : 
; 148  : 	SKILL_EFFECT_UPGRADE_ENABLE=nEnable;

  00027	8b 45 fc	 mov	 eax, DWORD PTR _nEnable$[ebp]
  0002a	a3 00 00 00 00	 mov	 DWORD PTR ?SKILL_EFFECT_UPGRADE_ENABLE@@3HA, eax ; SKILL_EFFECT_UPGRADE_ENABLE

; 149  : 
; 150  : 	return Py_BuildNone();

  0002f	e8 00 00 00 00	 call	 ?Py_BuildNone@@YAPAU_object@@XZ ; Py_BuildNone

; 151  : }

  00034	8b e5		 mov	 esp, ebp
  00036	5d		 pop	 ebp
  00037	c3		 ret	 0
?appSetSkillEffectUpgradeEnable@@YAPAU_object@@PAU1@0@Z ENDP ; appSetSkillEffectUpgradeEnable
_TEXT	ENDS
; Function compile flags: /Ogtp
; File D:\Metin2 Server Files\mainline\SRC_2014\Metin2Client\UserInterface\PythonApplicationModule.cpp
;	COMDAT ?appSetWeaponSpecularEnable@@YAPAU_object@@PAU1@0@Z
_TEXT	SEGMENT
_nEnable$ = -4						; size = 4
_poSelf$ = 8						; size = 4
_poArgs$ = 12						; size = 4
?appSetWeaponSpecularEnable@@YAPAU_object@@PAU1@0@Z PROC ; appSetWeaponSpecularEnable, COMDAT

; 132  : {

  00000	55		 push	 ebp
  00001	8b ec		 mov	 ebp, esp
  00003	51		 push	 ecx

; 133  : 	int nEnable;
; 134  : 	if (!PyTuple_GetInteger(poArgs, 0, &nEnable))

  00004	8d 45 fc	 lea	 eax, DWORD PTR _nEnable$[ebp]
  00007	50		 push	 eax
  00008	6a 00		 push	 0
  0000a	ff 75 0c	 push	 DWORD PTR _poArgs$[ebp]
  0000d	e8 00 00 00 00	 call	 ?PyTuple_GetInteger@@YA_NPAU_object@@HPAH@Z ; PyTuple_GetInteger
  00012	83 c4 0c	 add	 esp, 12			; 0000000cH
  00015	84 c0		 test	 al, al
  00017	75 0e		 jne	 SHORT $LN2@appSetWeap

; 135  : 		return Py_BuildException();

  00019	6a 00		 push	 0
  0001b	e8 00 00 00 00	 call	 ?Py_BuildException@@YAPAU_object@@PBDZZ ; Py_BuildException
  00020	83 c4 04	 add	 esp, 4

; 140  : }

  00023	8b e5		 mov	 esp, ebp
  00025	5d		 pop	 ebp
  00026	c3		 ret	 0
$LN2@appSetWeap:

; 136  : 
; 137  : 	USE_WEAPON_SPECULAR=nEnable;

  00027	8b 45 fc	 mov	 eax, DWORD PTR _nEnable$[ebp]
  0002a	a3 00 00 00 00	 mov	 DWORD PTR ?USE_WEAPON_SPECULAR@@3HA, eax ; USE_WEAPON_SPECULAR

; 138  : 
; 139  : 	return Py_BuildNone();

  0002f	e8 00 00 00 00	 call	 ?Py_BuildNone@@YAPAU_object@@XZ ; Py_BuildNone

; 140  : }

  00034	8b e5		 mov	 esp, ebp
  00036	5d		 pop	 ebp
  00037	c3		 ret	 0
?appSetWeaponSpecularEnable@@YAPAU_object@@PAU1@0@Z ENDP ; appSetWeaponSpecularEnable
_TEXT	ENDS
; Function compile flags: /Ogtp
; File D:\Metin2 Server Files\mainline\SRC_2014\Metin2Client\UserInterface\PythonApplicationModule.cpp
;	COMDAT ?appSetArmorSpecularEnable@@YAPAU_object@@PAU1@0@Z
_TEXT	SEGMENT
_nEnable$ = -4						; size = 4
_poSelf$ = 8						; size = 4
_poArgs$ = 12						; size = 4
?appSetArmorSpecularEnable@@YAPAU_object@@PAU1@0@Z PROC	; appSetArmorSpecularEnable, COMDAT

; 121  : {

  00000	55		 push	 ebp
  00001	8b ec		 mov	 ebp, esp
  00003	51		 push	 ecx

; 122  : 	int nEnable;
; 123  : 	if (!PyTuple_GetInteger(poArgs, 0, &nEnable))

  00004	8d 45 fc	 lea	 eax, DWORD PTR _nEnable$[ebp]
  00007	50		 push	 eax
  00008	6a 00		 push	 0
  0000a	ff 75 0c	 push	 DWORD PTR _poArgs$[ebp]
  0000d	e8 00 00 00 00	 call	 ?PyTuple_GetInteger@@YA_NPAU_object@@HPAH@Z ; PyTuple_GetInteger
  00012	83 c4 0c	 add	 esp, 12			; 0000000cH
  00015	84 c0		 test	 al, al
  00017	75 0e		 jne	 SHORT $LN2@appSetArmo

; 124  : 		return Py_BuildException();

  00019	6a 00		 push	 0
  0001b	e8 00 00 00 00	 call	 ?Py_BuildException@@YAPAU_object@@PBDZZ ; Py_BuildException
  00020	83 c4 04	 add	 esp, 4

; 129  : }

  00023	8b e5		 mov	 esp, ebp
  00025	5d		 pop	 ebp
  00026	c3		 ret	 0
$LN2@appSetArmo:

; 125  : 
; 126  : 	USE_ARMOR_SPECULAR=nEnable;

  00027	8b 45 fc	 mov	 eax, DWORD PTR _nEnable$[ebp]
  0002a	a3 00 00 00 00	 mov	 DWORD PTR ?USE_ARMOR_SPECULAR@@3HA, eax ; USE_ARMOR_SPECULAR

; 127  : 
; 128  : 	return Py_BuildNone();

  0002f	e8 00 00 00 00	 call	 ?Py_BuildNone@@YAPAU_object@@XZ ; Py_BuildNone

; 129  : }

  00034	8b e5		 mov	 esp, ebp
  00036	5d		 pop	 ebp
  00037	c3		 ret	 0
?appSetArmorSpecularEnable@@YAPAU_object@@PAU1@0@Z ENDP	; appSetArmorSpecularEnable
_TEXT	ENDS
; Function compile flags: /Ogtp
; File D:\Metin2 Server Files\mainline\SRC_2014\Metin2Client\UserInterface\PythonApplicationModule.cpp
;	COMDAT ?appSetHairColorEnable@@YAPAU_object@@PAU1@0@Z
_TEXT	SEGMENT
_nEnable$ = -4						; size = 4
_poSelf$ = 8						; size = 4
_poArgs$ = 12						; size = 4
?appSetHairColorEnable@@YAPAU_object@@PAU1@0@Z PROC	; appSetHairColorEnable, COMDAT

; 110  : {

  00000	55		 push	 ebp
  00001	8b ec		 mov	 ebp, esp
  00003	51		 push	 ecx

; 111  : 	int nEnable;
; 112  : 	if (!PyTuple_GetInteger(poArgs, 0, &nEnable))

  00004	8d 45 fc	 lea	 eax, DWORD PTR _nEnable$[ebp]
  00007	50		 push	 eax
  00008	6a 00		 push	 0
  0000a	ff 75 0c	 push	 DWORD PTR _poArgs$[ebp]
  0000d	e8 00 00 00 00	 call	 ?PyTuple_GetInteger@@YA_NPAU_object@@HPAH@Z ; PyTuple_GetInteger
  00012	83 c4 0c	 add	 esp, 12			; 0000000cH
  00015	84 c0		 test	 al, al
  00017	75 0e		 jne	 SHORT $LN2@appSetHair

; 113  : 		return Py_BuildException();

  00019	6a 00		 push	 0
  0001b	e8 00 00 00 00	 call	 ?Py_BuildException@@YAPAU_object@@PBDZZ ; Py_BuildException
  00020	83 c4 04	 add	 esp, 4

; 118  : }

  00023	8b e5		 mov	 esp, ebp
  00025	5d		 pop	 ebp
  00026	c3		 ret	 0
$LN2@appSetHair:

; 114  : 
; 115  : 	HAIR_COLOR_ENABLE=nEnable;

  00027	8b 45 fc	 mov	 eax, DWORD PTR _nEnable$[ebp]
  0002a	a3 00 00 00 00	 mov	 DWORD PTR ?HAIR_COLOR_ENABLE@@3HA, eax ; HAIR_COLOR_ENABLE

; 116  : 
; 117  : 	return Py_BuildNone();

  0002f	e8 00 00 00 00	 call	 ?Py_BuildNone@@YAPAU_object@@XZ ; Py_BuildNone

; 118  : }

  00034	8b e5		 mov	 esp, ebp
  00036	5d		 pop	 ebp
  00037	c3		 ret	 0
?appSetHairColorEnable@@YAPAU_object@@PAU1@0@Z ENDP	; appSetHairColorEnable
_TEXT	ENDS
; Function compile flags: /Ogtp
; File D:\Metin2 Server Files\mainline\SRC_2014\Metin2Client\UserInterface\PythonApplicationModule.cpp
;	COMDAT ?appSetTextTailLivingTime@@YAPAU_object@@PAU1@0@Z
_TEXT	SEGMENT
_livingTime$ = -4					; size = 4
_poSelf$ = 8						; size = 4
_poArgs$ = 12						; size = 4
?appSetTextTailLivingTime@@YAPAU_object@@PAU1@0@Z PROC	; appSetTextTailLivingTime, COMDAT

; 98   : {

  00000	55		 push	 ebp
  00001	8b ec		 mov	 ebp, esp
  00003	51		 push	 ecx

; 99   : 	float livingTime;
; 100  : 	if (!PyTuple_GetFloat(poArgs, 0, &livingTime))

  00004	8d 45 fc	 lea	 eax, DWORD PTR _livingTime$[ebp]
  00007	50		 push	 eax
  00008	6a 00		 push	 0
  0000a	ff 75 0c	 push	 DWORD PTR _poArgs$[ebp]
  0000d	e8 00 00 00 00	 call	 ?PyTuple_GetFloat@@YA_NPAU_object@@HPAM@Z ; PyTuple_GetFloat
  00012	83 c4 0c	 add	 esp, 12			; 0000000cH
  00015	84 c0		 test	 al, al
  00017	75 0e		 jne	 SHORT $LN2@appSetText

; 101  : 		return Py_BuildException();

  00019	6a 00		 push	 0
  0001b	e8 00 00 00 00	 call	 ?Py_BuildException@@YAPAU_object@@PBDZZ ; Py_BuildException
  00020	83 c4 04	 add	 esp, 4

; 106  : }

  00023	8b e5		 mov	 esp, ebp
  00025	5d		 pop	 ebp
  00026	c3		 ret	 0
$LN2@appSetText:

; 102  : 
; 103  : 	TextTail_SetLivingTime(livingTime*1000);

  00027	f3 0f 10 45 fc	 movss	 xmm0, DWORD PTR _livingTime$[ebp]
  0002c	f3 0f 59 05 00
	00 00 00	 mulss	 xmm0, DWORD PTR __real@447a0000
  00034	f3 0f 2c c0	 cvttss2si eax, xmm0
  00038	50		 push	 eax
  00039	e8 00 00 00 00	 call	 ?TextTail_SetLivingTime@@YAXJ@Z ; TextTail_SetLivingTime
  0003e	83 c4 04	 add	 esp, 4

; 104  : 
; 105  : 	return Py_BuildNone();

  00041	e8 00 00 00 00	 call	 ?Py_BuildNone@@YAPAU_object@@XZ ; Py_BuildNone

; 106  : }

  00046	8b e5		 mov	 esp, ebp
  00048	5d		 pop	 ebp
  00049	c3		 ret	 0
?appSetTextTailLivingTime@@YAPAU_object@@PAU1@0@Z ENDP	; appSetTextTailLivingTime
_TEXT	ENDS
; Function compile flags: /Ogtp
; File D:\Metin2 Server Files\mainline\SRC_2014\Metin2Client\UserInterface\PythonApplicationModule.cpp
;	COMDAT ?appEnablePerformanceTime@@YAPAU_object@@PAU1@0@Z
_TEXT	SEGMENT
_nEnable$ = -8						; size = 4
_szMode$ = -4						; size = 4
_poSelf$ = 8						; size = 4
_poArgs$ = 12						; size = 4
?appEnablePerformanceTime@@YAPAU_object@@PAU1@0@Z PROC	; appEnablePerformanceTime, COMDAT

; 68   : {

  00000	55		 push	 ebp
  00001	8b ec		 mov	 ebp, esp
  00003	83 ec 08	 sub	 esp, 8

; 69   : 	char* szMode;
; 70   : 	if (!PyTuple_GetString(poArgs, 0, &szMode))

  00006	8d 45 fc	 lea	 eax, DWORD PTR _szMode$[ebp]
  00009	50		 push	 eax
  0000a	6a 00		 push	 0
  0000c	ff 75 0c	 push	 DWORD PTR _poArgs$[ebp]
  0000f	e8 00 00 00 00	 call	 ?PyTuple_GetString@@YA_NPAU_object@@HPAPAD@Z ; PyTuple_GetString
  00014	83 c4 0c	 add	 esp, 12			; 0000000cH
  00017	84 c0		 test	 al, al
  00019	75 0e		 jne	 SHORT $LN2@appEnableP
$LN10@appEnableP:

; 83   : }

  0001b	6a 00		 push	 0
  0001d	e8 00 00 00 00	 call	 ?Py_BuildException@@YAPAU_object@@PBDZZ ; Py_BuildException
  00022	83 c4 04	 add	 esp, 4
  00025	8b e5		 mov	 esp, ebp
  00027	5d		 pop	 ebp
  00028	c3		 ret	 0
$LN2@appEnableP:

; 71   : 		return Py_BuildException();
; 72   : 
; 73   : 	int nEnable;
; 74   : 	if (!PyTuple_GetInteger(poArgs, 1, &nEnable))

  00029	8d 45 f8	 lea	 eax, DWORD PTR _nEnable$[ebp]
  0002c	50		 push	 eax
  0002d	6a 01		 push	 1
  0002f	ff 75 0c	 push	 DWORD PTR _poArgs$[ebp]
  00032	e8 00 00 00 00	 call	 ?PyTuple_GetInteger@@YA_NPAU_object@@HPAH@Z ; PyTuple_GetInteger
  00037	83 c4 0c	 add	 esp, 12			; 0000000cH
  0003a	84 c0		 test	 al, al
  0003c	74 dd		 je	 SHORT $LN10@appEnableP

; 78   : 
; 79   : 	if (strcmp(szMode, "RENDER_GAME")==0)

  0003e	8b 45 fc	 mov	 eax, DWORD PTR _szMode$[ebp]
  00041	b9 00 00 00 00	 mov	 ecx, OFFSET ??_C@_0M@OEKALNFB@RENDER_GAME@
$LL6@appEnableP:
  00046	8a 10		 mov	 dl, BYTE PTR [eax]
  00048	3a 11		 cmp	 dl, BYTE PTR [ecx]
  0004a	75 1a		 jne	 SHORT $LN7@appEnableP
  0004c	84 d2		 test	 dl, dl
  0004e	74 12		 je	 SHORT $LN8@appEnableP
  00050	8a 50 01	 mov	 dl, BYTE PTR [eax+1]
  00053	3a 51 01	 cmp	 dl, BYTE PTR [ecx+1]
  00056	75 0e		 jne	 SHORT $LN7@appEnableP
  00058	83 c0 02	 add	 eax, 2
  0005b	83 c1 02	 add	 ecx, 2
  0005e	84 d2		 test	 dl, dl
  00060	75 e4		 jne	 SHORT $LL6@appEnableP
$LN8@appEnableP:
  00062	33 c0		 xor	 eax, eax
  00064	eb 05		 jmp	 SHORT $LN9@appEnableP
$LN7@appEnableP:
  00066	1b c0		 sbb	 eax, eax
  00068	83 c8 01	 or	 eax, 1
$LN9@appEnableP:
  0006b	85 c0		 test	 eax, eax
  0006d	75 0a		 jne	 SHORT $LN4@appEnableP

; 75   : 		return Py_BuildException();
; 76   : 
; 77   : 	bool isEnable=nEnable ? true : false;

  0006f	39 45 f8	 cmp	 DWORD PTR _nEnable$[ebp], eax
  00072	0f 95 05 00 00
	00 00		 setne	 BYTE PTR ?PERF_CHECKER_RENDER_GAME@@3_NA ; PERF_CHECKER_RENDER_GAME
$LN4@appEnableP:

; 80   : 		PERF_CHECKER_RENDER_GAME = isEnable;
; 81   : 	
; 82   : 	return Py_BuildNone();

  00079	e8 00 00 00 00	 call	 ?Py_BuildNone@@YAPAU_object@@XZ ; Py_BuildNone

; 83   : }

  0007e	8b e5		 mov	 esp, ebp
  00080	5d		 pop	 ebp
  00081	c3		 ret	 0
?appEnablePerformanceTime@@YAPAU_object@@PAU1@0@Z ENDP	; appEnablePerformanceTime
_TEXT	ENDS
; Function compile flags: /Ogtp
; File D:\Metin2 Server Files\mainline\SRC_2014\Metin2Client\UserInterface\PythonApplicationModule.cpp
;	COMDAT ?appIsWebPageMode@@YAPAU_object@@PAU1@0@Z
_TEXT	SEGMENT
_poSelf$ = 8						; size = 4
_poArgs$ = 12						; size = 4
?appIsWebPageMode@@YAPAU_object@@PAU1@0@Z PROC		; appIsWebPageMode, COMDAT

; 64   : 	return Py_BuildValue("i", CPythonApplication::Instance().IsWebPageMode());

  00000	8b 0d 00 00 00
	00		 mov	 ecx, DWORD PTR ?ms_pInstance@CPythonApplication@@1PAV1@A ; CPythonApplication::ms_pInstance
  00006	e8 00 00 00 00	 call	 ?IsWebPageMode@CPythonApplication@@QAE_NXZ ; CPythonApplication::IsWebPageMode
  0000b	0f b6 c0	 movzx	 eax, al
  0000e	50		 push	 eax
  0000f	68 00 00 00 00	 push	 OFFSET ??_C@_01KBJDNOO@i@
  00014	ff 15 00 00 00
	00		 call	 DWORD PTR __imp__Py_BuildValue
  0001a	83 c4 08	 add	 esp, 8

; 65   : }

  0001d	c3		 ret	 0
?appIsWebPageMode@@YAPAU_object@@PAU1@0@Z ENDP		; appIsWebPageMode
_TEXT	ENDS
; Function compile flags: /Ogtp
; File D:\Metin2 Server Files\mainline\SRC_2014\Metin2Client\UserInterface\PythonApplicationModule.cpp
;	COMDAT ?appHideWebPage@@YAPAU_object@@PAU1@0@Z
_TEXT	SEGMENT
_poSelf$ = 8						; size = 4
_poArgs$ = 12						; size = 4
?appHideWebPage@@YAPAU_object@@PAU1@0@Z PROC		; appHideWebPage, COMDAT

; 57   : 	CPythonApplication::Instance().HideWebPage();

  00000	8b 0d 00 00 00
	00		 mov	 ecx, DWORD PTR ?ms_pInstance@CPythonApplication@@1PAV1@A ; CPythonApplication::ms_pInstance
  00006	e8 00 00 00 00	 call	 ?HideWebPage@CPythonApplication@@QAEXXZ ; CPythonApplication::HideWebPage

; 58   : 	return Py_BuildNone();

  0000b	e9 00 00 00 00	 jmp	 ?Py_BuildNone@@YAPAU_object@@XZ ; Py_BuildNone
?appHideWebPage@@YAPAU_object@@PAU1@0@Z ENDP		; appHideWebPage
_TEXT	ENDS
; Function compile flags: /Ogtp
; File D:\Metin2 Server Files\mainline\SRC_2014\Metin2Client\UserInterface\PythonApplicationModule.cpp
;	COMDAT ?appMoveWebPage@@YAPAU_object@@PAU1@0@Z
_TEXT	SEGMENT
_rcWebPage$ = -20					; size = 16
__$ArrayPad$ = -4					; size = 4
_poSelf$ = 8						; size = 4
_poArgs$ = 12						; size = 4
?appMoveWebPage@@YAPAU_object@@PAU1@0@Z PROC		; appMoveWebPage, COMDAT

; 40   : {

  00000	55		 push	 ebp
  00001	8b ec		 mov	 ebp, esp
  00003	83 ec 14	 sub	 esp, 20			; 00000014H
  00006	a1 00 00 00 00	 mov	 eax, DWORD PTR ___security_cookie
  0000b	33 c5		 xor	 eax, ebp
  0000d	89 45 fc	 mov	 DWORD PTR __$ArrayPad$[ebp], eax
  00010	8b 45 0c	 mov	 eax, DWORD PTR _poArgs$[ebp]
  00013	53		 push	 ebx
  00014	57		 push	 edi

; 41   : 	PyObject* poRect=PyTuple_GetItem(poArgs, 0);

  00015	8b 3d 00 00 00
	00		 mov	 edi, DWORD PTR __imp__PyTuple_GetItem
  0001b	6a 00		 push	 0
  0001d	50		 push	 eax
  0001e	ff d7		 call	 edi
  00020	8b d8		 mov	 ebx, eax
  00022	83 c4 08	 add	 esp, 8

; 42   : 	if (!PyTuple_Check(poRect))

  00025	8b 4b 04	 mov	 ecx, DWORD PTR [ebx+4]
  00028	f7 41 54 00 00
	00 04		 test	 DWORD PTR [ecx+84], 67108864 ; 04000000H
  0002f	75 1a		 jne	 SHORT $LN2@appMoveWeb

; 43   : 		return Py_BuildException();	

  00031	6a 00		 push	 0
  00033	e8 00 00 00 00	 call	 ?Py_BuildException@@YAPAU_object@@PBDZZ ; Py_BuildException
  00038	83 c4 04	 add	 esp, 4
  0003b	5f		 pop	 edi

; 53   : }

  0003c	5b		 pop	 ebx
  0003d	8b 4d fc	 mov	 ecx, DWORD PTR __$ArrayPad$[ebp]
  00040	33 cd		 xor	 ecx, ebp
  00042	e8 00 00 00 00	 call	 @__security_check_cookie@4
  00047	8b e5		 mov	 esp, ebp
  00049	5d		 pop	 ebp
  0004a	c3		 ret	 0
$LN2@appMoveWeb:
  0004b	56		 push	 esi

; 44   : 
; 45   : 	RECT rcWebPage;
; 46   : 	rcWebPage.left=PyInt_AsLong(PyTuple_GetItem(poRect, 0));

  0004c	6a 00		 push	 0
  0004e	53		 push	 ebx
  0004f	ff d7		 call	 edi
  00051	8b 35 00 00 00
	00		 mov	 esi, DWORD PTR __imp__PyInt_AsLong
  00057	50		 push	 eax
  00058	ff d6		 call	 esi

; 47   : 	rcWebPage.top=PyInt_AsLong(PyTuple_GetItem(poRect, 1));

  0005a	6a 01		 push	 1
  0005c	53		 push	 ebx
  0005d	89 45 ec	 mov	 DWORD PTR _rcWebPage$[ebp], eax
  00060	ff d7		 call	 edi
  00062	50		 push	 eax
  00063	ff d6		 call	 esi

; 48   : 	rcWebPage.right=PyInt_AsLong(PyTuple_GetItem(poRect, 2));

  00065	6a 02		 push	 2
  00067	53		 push	 ebx
  00068	89 45 f0	 mov	 DWORD PTR _rcWebPage$[ebp+4], eax
  0006b	ff d7		 call	 edi
  0006d	50		 push	 eax
  0006e	ff d6		 call	 esi

; 49   : 	rcWebPage.bottom=PyInt_AsLong(PyTuple_GetItem(poRect, 3));

  00070	6a 03		 push	 3
  00072	53		 push	 ebx
  00073	89 45 f4	 mov	 DWORD PTR _rcWebPage$[ebp+8], eax
  00076	ff d7		 call	 edi
  00078	50		 push	 eax
  00079	ff d6		 call	 esi

; 50   : 
; 51   : 	CPythonApplication::Instance().MoveWebPage(rcWebPage);

  0007b	8b 0d 00 00 00
	00		 mov	 ecx, DWORD PTR ?ms_pInstance@CPythonApplication@@1PAV1@A ; CPythonApplication::ms_pInstance
  00081	83 c4 30	 add	 esp, 48			; 00000030H
  00084	89 45 f8	 mov	 DWORD PTR _rcWebPage$[ebp+12], eax
  00087	8d 45 ec	 lea	 eax, DWORD PTR _rcWebPage$[ebp]
  0008a	50		 push	 eax
  0008b	e8 00 00 00 00	 call	 ?MoveWebPage@CPythonApplication@@QAEXABUtagRECT@@@Z ; CPythonApplication::MoveWebPage

; 52   : 	return Py_BuildNone();

  00090	e8 00 00 00 00	 call	 ?Py_BuildNone@@YAPAU_object@@XZ ; Py_BuildNone

; 53   : }

  00095	8b 4d fc	 mov	 ecx, DWORD PTR __$ArrayPad$[ebp]
  00098	5e		 pop	 esi
  00099	5f		 pop	 edi
  0009a	33 cd		 xor	 ecx, ebp
  0009c	5b		 pop	 ebx
  0009d	e8 00 00 00 00	 call	 @__security_check_cookie@4
  000a2	8b e5		 mov	 esp, ebp
  000a4	5d		 pop	 ebp
  000a5	c3		 ret	 0
?appMoveWebPage@@YAPAU_object@@PAU1@0@Z ENDP		; appMoveWebPage
_TEXT	ENDS
; Function compile flags: /Ogtp
; File D:\Metin2 Server Files\mainline\SRC_2014\Metin2Client\UserInterface\PythonApplicationModule.cpp
;	COMDAT ?appShowWebPage@@YAPAU_object@@PAU1@0@Z
_TEXT	SEGMENT
_szWebPage$ = -24					; size = 4
_rcWebPage$ = -20					; size = 16
__$ArrayPad$ = -4					; size = 4
_poSelf$ = 8						; size = 4
_poArgs$ = 12						; size = 4
?appShowWebPage@@YAPAU_object@@PAU1@0@Z PROC		; appShowWebPage, COMDAT

; 17   : {

  00000	55		 push	 ebp
  00001	8b ec		 mov	 ebp, esp
  00003	83 ec 18	 sub	 esp, 24			; 00000018H
  00006	a1 00 00 00 00	 mov	 eax, DWORD PTR ___security_cookie
  0000b	33 c5		 xor	 eax, ebp
  0000d	89 45 fc	 mov	 DWORD PTR __$ArrayPad$[ebp], eax
  00010	56		 push	 esi
  00011	8b 75 0c	 mov	 esi, DWORD PTR _poArgs$[ebp]

; 18   : 	char* szWebPage;
; 19   : 	if (!PyTuple_GetString(poArgs, 0, &szWebPage))

  00014	8d 45 e8	 lea	 eax, DWORD PTR _szWebPage$[ebp]
  00017	50		 push	 eax
  00018	6a 00		 push	 0
  0001a	56		 push	 esi
  0001b	e8 00 00 00 00	 call	 ?PyTuple_GetString@@YA_NPAU_object@@HPAPAD@Z ; PyTuple_GetString
  00020	83 c4 0c	 add	 esp, 12			; 0000000cH
  00023	84 c0		 test	 al, al
  00025	75 19		 jne	 SHORT $LN2@appShowWeb

; 20   : 		return Py_BuildException();

  00027	6a 00		 push	 0
  00029	e8 00 00 00 00	 call	 ?Py_BuildException@@YAPAU_object@@PBDZZ ; Py_BuildException
  0002e	83 c4 04	 add	 esp, 4
  00031	5e		 pop	 esi

; 37   : }

  00032	8b 4d fc	 mov	 ecx, DWORD PTR __$ArrayPad$[ebp]
  00035	33 cd		 xor	 ecx, ebp
  00037	e8 00 00 00 00	 call	 @__security_check_cookie@4
  0003c	8b e5		 mov	 esp, ebp
  0003e	5d		 pop	 ebp
  0003f	c3		 ret	 0
$LN2@appShowWeb:
  00040	53		 push	 ebx
  00041	57		 push	 edi

; 21   : 
; 22   : 	PyObject* poRect=PyTuple_GetItem(poArgs, 1);

  00042	8b 3d 00 00 00
	00		 mov	 edi, DWORD PTR __imp__PyTuple_GetItem
  00048	6a 01		 push	 1
  0004a	56		 push	 esi
  0004b	ff d7		 call	 edi
  0004d	8b d8		 mov	 ebx, eax
  0004f	83 c4 08	 add	 esp, 8

; 23   : 	if (!PyTuple_Check(poRect))

  00052	8b 4b 04	 mov	 ecx, DWORD PTR [ebx+4]
  00055	6a 00		 push	 0
  00057	f7 41 54 00 00
	00 04		 test	 DWORD PTR [ecx+84], 67108864 ; 04000000H
  0005e	75 19		 jne	 SHORT $LN3@appShowWeb

; 24   : 		return Py_BuildException();	

  00060	e8 00 00 00 00	 call	 ?Py_BuildException@@YAPAU_object@@PBDZZ ; Py_BuildException
  00065	83 c4 04	 add	 esp, 4
  00068	5f		 pop	 edi
  00069	5b		 pop	 ebx
  0006a	5e		 pop	 esi

; 37   : }

  0006b	8b 4d fc	 mov	 ecx, DWORD PTR __$ArrayPad$[ebp]
  0006e	33 cd		 xor	 ecx, ebp
  00070	e8 00 00 00 00	 call	 @__security_check_cookie@4
  00075	8b e5		 mov	 esp, ebp
  00077	5d		 pop	 ebp
  00078	c3		 ret	 0
$LN3@appShowWeb:

; 25   : 
; 26   : 	RECT rcWebPage;
; 27   : 	rcWebPage.left=PyInt_AsLong(PyTuple_GetItem(poRect, 0));

  00079	53		 push	 ebx
  0007a	ff d7		 call	 edi
  0007c	8b 35 00 00 00
	00		 mov	 esi, DWORD PTR __imp__PyInt_AsLong
  00082	50		 push	 eax
  00083	ff d6		 call	 esi

; 28   : 	rcWebPage.top=PyInt_AsLong(PyTuple_GetItem(poRect, 1));

  00085	6a 01		 push	 1
  00087	53		 push	 ebx
  00088	89 45 ec	 mov	 DWORD PTR _rcWebPage$[ebp], eax
  0008b	ff d7		 call	 edi
  0008d	50		 push	 eax
  0008e	ff d6		 call	 esi

; 29   : 	rcWebPage.right=PyInt_AsLong(PyTuple_GetItem(poRect, 2));

  00090	6a 02		 push	 2
  00092	53		 push	 ebx
  00093	89 45 f0	 mov	 DWORD PTR _rcWebPage$[ebp+4], eax
  00096	ff d7		 call	 edi
  00098	50		 push	 eax
  00099	ff d6		 call	 esi

; 30   : 	rcWebPage.bottom=PyInt_AsLong(PyTuple_GetItem(poRect, 3));

  0009b	6a 03		 push	 3
  0009d	53		 push	 ebx
  0009e	89 45 f4	 mov	 DWORD PTR _rcWebPage$[ebp+8], eax
  000a1	ff d7		 call	 edi
  000a3	50		 push	 eax
  000a4	ff d6		 call	 esi

; 31   : 
; 32   : 	CPythonApplication::Instance().ShowWebPage(

  000a6	8b 0d 00 00 00
	00		 mov	 ecx, DWORD PTR ?ms_pInstance@CPythonApplication@@1PAV1@A ; CPythonApplication::ms_pInstance
  000ac	83 c4 30	 add	 esp, 48			; 00000030H
  000af	89 45 f8	 mov	 DWORD PTR _rcWebPage$[ebp+12], eax
  000b2	8d 45 ec	 lea	 eax, DWORD PTR _rcWebPage$[ebp]
  000b5	50		 push	 eax
  000b6	ff 75 e8	 push	 DWORD PTR _szWebPage$[ebp]
  000b9	e8 00 00 00 00	 call	 ?ShowWebPage@CPythonApplication@@QAEXPBDABUtagRECT@@@Z ; CPythonApplication::ShowWebPage

; 33   : 		szWebPage,
; 34   : 		rcWebPage		
; 35   : 	);
; 36   : 	return Py_BuildNone();

  000be	e8 00 00 00 00	 call	 ?Py_BuildNone@@YAPAU_object@@XZ ; Py_BuildNone

; 37   : }

  000c3	8b 4d fc	 mov	 ecx, DWORD PTR __$ArrayPad$[ebp]
  000c6	5f		 pop	 edi
  000c7	5b		 pop	 ebx
  000c8	33 cd		 xor	 ecx, ebp
  000ca	5e		 pop	 esi
  000cb	e8 00 00 00 00	 call	 @__security_check_cookie@4
  000d0	8b e5		 mov	 esp, ebp
  000d2	5d		 pop	 ebp
  000d3	c3		 ret	 0
?appShowWebPage@@YAPAU_object@@PAU1@0@Z ENDP		; appShowWebPage
_TEXT	ENDS
; Function compile flags: /Ogtp
; File C:\Program Files (x86)\Microsoft Visual Studio\2019\Community\VC\Tools\MSVC\14.28.29333\include\xmemory
;	COMDAT ??$_Deallocate@$07$0A@@std@@YAXPAXI@Z
_TEXT	SEGMENT
__Ptr$ = 8						; size = 4
__Bytes$ = 12						; size = 4
??$_Deallocate@$07$0A@@std@@YAXPAXI@Z PROC		; std::_Deallocate<8,0>, COMDAT

; 213  : void _Deallocate(void* _Ptr, size_t _Bytes) noexcept {

  00000	55		 push	 ebp
  00001	8b ec		 mov	 ebp, esp

; 214  :     // deallocate storage allocated by _Allocate when !_HAS_ALIGNED_NEW || _Align <= __STDCPP_DEFAULT_NEW_ALIGNMENT__
; 215  : #if defined(_M_IX86) || defined(_M_X64)
; 216  :     if (_Bytes >= _Big_allocation_threshold) { // boost the alignment of big allocations to help autovectorization

  00003	8b 4d 0c	 mov	 ecx, DWORD PTR __Bytes$[ebp]
  00006	81 f9 00 10 00
	00		 cmp	 ecx, 4096		; 00001000H
  0000c	72 18		 jb	 SHORT $LN15@Deallocate

; 137  :     const uintptr_t _Ptr_container   = _Ptr_user[-1];

  0000e	8b 45 08	 mov	 eax, DWORD PTR __Ptr$[ebp]
  00011	83 c1 23	 add	 ecx, 35			; 00000023H
  00014	8b 50 fc	 mov	 edx, DWORD PTR [eax-4]

; 138  : 
; 139  :     // If the following asserts, it likely means that we are performing
; 140  :     // an aligned delete on memory coming from an unaligned allocation.
; 141  :     _STL_ASSERT(_Ptr_user[-2] == _Big_allocation_sentinel, "invalid argument");
; 142  : 
; 143  :     // Extra paranoia on aligned allocation/deallocation; ensure _Ptr_container is
; 144  :     // in range [_Min_back_shift, _Non_user_size]
; 145  : #ifdef _DEBUG
; 146  :     constexpr uintptr_t _Min_back_shift = 2 * sizeof(void*);
; 147  : #else // ^^^ _DEBUG ^^^ // vvv !_DEBUG vvv
; 148  :     constexpr uintptr_t _Min_back_shift = sizeof(void*);
; 149  : #endif // _DEBUG
; 150  :     const uintptr_t _Back_shift = reinterpret_cast<uintptr_t>(_Ptr) - _Ptr_container;

  00017	2b c2		 sub	 eax, edx

; 151  :     _STL_VERIFY(_Back_shift >= _Min_back_shift && _Back_shift <= _Non_user_size, "invalid argument");

  00019	83 c0 fc	 add	 eax, -4			; fffffffcH
  0001c	83 f8 1f	 cmp	 eax, 31			; 0000001fH
  0001f	76 08		 jbe	 SHORT $LN13@Deallocate
  00021	e9 00 00 00 00	 jmp	 __invalid_parameter_noinfo_noreturn
$LN15@Deallocate:

; 214  :     // deallocate storage allocated by _Allocate when !_HAS_ALIGNED_NEW || _Align <= __STDCPP_DEFAULT_NEW_ALIGNMENT__
; 215  : #if defined(_M_IX86) || defined(_M_X64)
; 216  :     if (_Bytes >= _Big_allocation_threshold) { // boost the alignment of big allocations to help autovectorization

  00026	8b 55 08	 mov	 edx, DWORD PTR __Ptr$[ebp]
$LN13@Deallocate:

; 217  :         _Adjust_manually_vector_aligned(_Ptr, _Bytes);
; 218  :     }
; 219  : #endif // defined(_M_IX86) || defined(_M_X64)
; 220  : 
; 221  :     ::operator delete(_Ptr, _Bytes);

  00029	89 4d 0c	 mov	 DWORD PTR __Bytes$[ebp], ecx
  0002c	89 55 08	 mov	 DWORD PTR __Ptr$[ebp], edx

; 222  : }

  0002f	5d		 pop	 ebp

; 217  :         _Adjust_manually_vector_aligned(_Ptr, _Bytes);
; 218  :     }
; 219  : #endif // defined(_M_IX86) || defined(_M_X64)
; 220  : 
; 221  :     ::operator delete(_Ptr, _Bytes);

  00030	e9 00 00 00 00	 jmp	 ??3@YAXPAXI@Z		; operator delete
??$_Deallocate@$07$0A@@std@@YAXPAXI@Z ENDP		; std::_Deallocate<8,0>
_TEXT	ENDS
; Function compile flags: /Ogtp
; File C:\Program Files (x86)\Microsoft Visual Studio\2019\Community\VC\Tools\MSVC\14.28.29333\include\xmemory
;	COMDAT ??$_Destroy_in_place@PAD@std@@YAXAAPAD@Z
_TEXT	SEGMENT
__Obj$ = 8						; size = 4
??$_Destroy_in_place@PAD@std@@YAXAAPAD@Z PROC		; std::_Destroy_in_place<char *>, COMDAT

; 271  : #if _HAS_IF_CONSTEXPR
; 272  :     if constexpr (is_array_v<_Ty>) {
; 273  :         _Destroy_range(_Obj, _Obj + extent_v<_Ty>);
; 274  :     } else
; 275  : #endif // _HAS_IF_CONSTEXPR
; 276  :     {
; 277  :         _Obj.~_Ty();
; 278  :     }
; 279  : }

  00000	c2 00 00	 ret	 0
??$_Destroy_in_place@PAD@std@@YAXAAPAD@Z ENDP		; std::_Destroy_in_place<char *>
_TEXT	ENDS
; Function compile flags: /Ogtp
; File D:\Metin2 Server Files\mainline\SRC_2014\Metin2Client\UserInterface\PythonApplicationModule.cpp
;	COMDAT ?initapp@@YAXXZ
_TEXT	SEGMENT
?initapp@@YAXXZ PROC					; initapp, COMDAT

; 1196 : {

  00000	56		 push	 esi
  00001	57		 push	 edi

; 1197 : 	static PyMethodDef s_methods[] =
; 1198 : 	{	
; 1199 : 		{ "IsDevStage",					appIsDevStage,					METH_VARARGS },
; 1200 : 		{ "IsTestStage",				appIsTestStage,					METH_VARARGS },
; 1201 : 		{ "IsLiveStage",				appIsLiveStage,					METH_VARARGS },
; 1202 : 
; 1203 : 		// TEXTTAIL_LIVINGTIME_CONTROL
; 1204 : 		{ "SetTextTailLivingTime",		appSetTextTailLivingTime,		METH_VARARGS },
; 1205 : 		// END_OF_TEXTTAIL_LIVINGTIME_CONTROL
; 1206 : 		
; 1207 : 		{ "EnablePerformanceTime",		appEnablePerformanceTime,		METH_VARARGS },
; 1208 : 		{ "SetHairColorEnable",			appSetHairColorEnable,			METH_VARARGS },
; 1209 : 		
; 1210 : 		{ "SetArmorSpecularEnable",		appSetArmorSpecularEnable,		METH_VARARGS },
; 1211 : 		{ "SetWeaponSpecularEnable",	appSetWeaponSpecularEnable,		METH_VARARGS },
; 1212 : 		{ "SetSkillEffectUpgradeEnable",appSetSkillEffectUpgradeEnable,	METH_VARARGS },
; 1213 : 		{ "SetTwoHandedWeaponAttSpeedDecreaseValue", SetTwoHandedWeaponAttSpeedDecreaseValue, METH_VARARGS },
; 1214 : 		{ "SetRideHorseEnable",			appSetRideHorseEnable,			METH_VARARGS },
; 1215 : 
; 1216 : 		{ "SetCameraMaxDistance",		appSetCameraMaxDistance,		METH_VARARGS },
; 1217 : 		{ "SetMinFog",					appSetMinFog,					METH_VARARGS },
; 1218 : 		{ "SetFrameSkip",				appSetFrameSkip,				METH_VARARGS },
; 1219 : 		{ "GetImageInfo",				appGetImageInfo,				METH_VARARGS },
; 1220 : 		{ "GetInfo",					appGetInfo,						METH_VARARGS },
; 1221 : 		{ "UpdateGame",					appUpdateGame,					METH_VARARGS },
; 1222 : 		{ "RenderGame",					appRenderGame,					METH_VARARGS },
; 1223 : 		{ "Loop",						appLoop,						METH_VARARGS },
; 1224 : 		{ "Create",						appCreate,						METH_VARARGS },
; 1225 : 		{ "Process",					appProcess,						METH_VARARGS },
; 1226 : 		{ "Exit",						appExit,						METH_VARARGS },
; 1227 : 		{ "Abort",						appAbort,						METH_VARARGS },
; 1228 : 		{ "SetMouseHandler",			appSetMouseHandler,				METH_VARARGS },		
; 1229 : 		{ "IsExistFile",				appIsExistFile,					METH_VARARGS },
; 1230 : 		{ "GetFileList",				appGetFileList,					METH_VARARGS },
; 1231 : 
; 1232 : 		{ "SetCamera",					appSetCamera,					METH_VARARGS },
; 1233 : 		{ "GetCamera",					appGetCamera,					METH_VARARGS },
; 1234 : 		{ "GetCameraPitch",				appGetCameraPitch,				METH_VARARGS },
; 1235 : 		{ "GetCameraRotation",			appGetCameraRotation,			METH_VARARGS },
; 1236 : 		{ "GetTime",					appGetTime,						METH_VARARGS },
; 1237 : 		{ "GetGlobalTime",				appGetGlobalTime,				METH_VARARGS },
; 1238 : 		{ "GetGlobalTimeStamp",			appGetGlobalTimeStamp,			METH_VARARGS },
; 1239 : 		{ "GetUpdateFPS",				appGetUpdateFPS,				METH_VARARGS },
; 1240 : 		{ "GetRenderFPS",				appGetRenderFPS,				METH_VARARGS },
; 1241 : 		{ "RotateCamera",				appRotateCamera,				METH_VARARGS },
; 1242 : 		{ "PitchCamera",				appPitchCamera,					METH_VARARGS },
; 1243 : 		{ "ZoomCamera",					appZoomCamera,					METH_VARARGS },
; 1244 : 		{ "MovieRotateCamera",			appMovieRotateCamera,			METH_VARARGS },
; 1245 : 		{ "MoviePitchCamera",			appMoviePitchCamera,			METH_VARARGS },
; 1246 : 		{ "MovieZoomCamera",			appMovieZoomCamera,				METH_VARARGS },
; 1247 : 		{ "MovieResetCamera",			appMovieResetCamera,			METH_VARARGS },
; 1248 : 
; 1249 : 		{ "GetAvailableTextureMemory",	appGetAvaiableTextureMememory,	METH_VARARGS },
; 1250 : 		{ "GetRenderTime",				appGetRenderTime,				METH_VARARGS },
; 1251 : 		{ "GetUpdateTime",				appGetUpdateTime,				METH_VARARGS },
; 1252 : 		{ "GetLoad",					appGetLoad,						METH_VARARGS },
; 1253 : 		{ "GetFaceSpeed",				appGetFaceSpeed,				METH_VARARGS },
; 1254 : 		{ "GetFaceCount",				appGetFaceCount,				METH_VARARGS },
; 1255 : 		{ "SetFPS",						appSetFPS,						METH_VARARGS },
; 1256 : 		{ "SetGlobalCenterPosition",	appSetGlobalCenterPosition,		METH_VARARGS },
; 1257 : 		{ "SetCenterPosition",			appSetCenterPosition,			METH_VARARGS },
; 1258 : 		{ "GetCursorPosition",			appGetCursorPosition,			METH_VARARGS },
; 1259 : 
; 1260 : 		{ "GetRandom",					appGetRandom,					METH_VARARGS },
; 1261 : 		{ "RunPythonFile",				appRunPythonFile,				METH_VARARGS },
; 1262 : 		{ "IsWebPageMode",				appIsWebPageMode,				METH_VARARGS },		
; 1263 : 		{ "ShowWebPage",				appShowWebPage,					METH_VARARGS },		
; 1264 : 		{ "MoveWebPage",				appMoveWebPage,					METH_VARARGS },		
; 1265 : 		{ "HideWebPage",				appHideWebPage,					METH_VARARGS },	
; 1266 : 		{ "IsPressed",					appIsPressed,					METH_VARARGS },
; 1267 : 		{ "SetCursor",					appSetCursor,					METH_VARARGS },
; 1268 : 		{ "GetCursor",					appGetCursor,					METH_VARARGS },
; 1269 : 		{ "ShowCursor",					appShowCursor,					METH_VARARGS },
; 1270 : 		{ "HideCursor",					appHideCursor,					METH_VARARGS },
; 1271 : 		{ "IsShowCursor",				appIsShowCursor,				METH_VARARGS },
; 1272 : 		{ "IsLiarCursorOn",				appIsLiarCursorOn,				METH_VARARGS },
; 1273 : 		{ "SetSoftwareCursor",			appSetSoftwareCursor,			METH_VARARGS },
; 1274 : 		{ "SetHardwareCursor",			appSetHardwareCursor,			METH_VARARGS },
; 1275 : 
; 1276 : 		{ "SetConnectData",				appSetConnectData,				METH_VARARGS },
; 1277 : 		{ "GetConnectData",				appGetConnectData,				METH_VARARGS },
; 1278 : 
; 1279 : 		{ "GetRotatingDirection",		appGetRotatingDirection,		METH_VARARGS },
; 1280 : 		{ "GetDegreeDifference",		appGetDegreeDifference,			METH_VARARGS },
; 1281 : 		{ "Sleep",						appSleep,						METH_VARARGS },
; 1282 : 		{ "SetDefaultFontName",			appSetDefaultFontName,			METH_VARARGS },
; 1283 : 		{ "SetGuildSymbolPath",			appSetGuildSymbolPath,			METH_VARARGS },
; 1284 : 
; 1285 : 		{ "EnableSpecialCameraMode",	appEnableSpecialCameraMode,		METH_VARARGS },
; 1286 : 		{ "SetCameraSpeed",				appSetCameraSpeed,				METH_VARARGS },
; 1287 : 
; 1288 : 		{ "SaveCameraSetting",			appSaveCameraSetting,			METH_VARARGS },
; 1289 : 		{ "LoadCameraSetting",			appLoadCameraSetting,			METH_VARARGS },
; 1290 : 		{ "SetDefaultCamera",			appSetDefaultCamera,			METH_VARARGS },
; 1291 : 		{ "SetCameraSetting",			appSetCameraSetting,			METH_VARARGS },
; 1292 : 
; 1293 : 		{ "SetSightRange",				appSetSightRange,				METH_VARARGS },
; 1294 : 
; 1295 : 		{ "IsFileExist",				appIsFileExist,					METH_VARARGS },
; 1296 : 		{ "OpenTextFile",				appOpenTextFile,				METH_VARARGS },
; 1297 : 		{ "CloseTextFile",				appCloseTextFile,				METH_VARARGS },
; 1298 : 		{ "GetTextFileLineCount",		appGetTextFileLineCount,		METH_VARARGS },
; 1299 : 		{ "GetTextFileLine",			appGetTextFileLine,				METH_VARARGS },
; 1300 : 
; 1301 : 		// LOCALE
; 1302 : 		{ "GetLocaleServiceName",		appGetLocaleServiceName,		METH_VARARGS },
; 1303 : 		{ "GetLocaleName",				appGetLocaleName,				METH_VARARGS },
; 1304 : 		{ "GetLocalePath",				appGetLocalePath,				METH_VARARGS },
; 1305 : 		{ "ForceSetLocale",				appForceSetLocale,				METH_VARARGS },
; 1306 : 		// END_OF_LOCALE
; 1307 : 
; 1308 : 		// CHEONMA
; 1309 : 		{ "LoadLocaleAddr",				appLoadLocaleAddr,				METH_VARARGS },
; 1310 : 		{ "LoadLocaleData",				appLoadLocaleData,				METH_VARARGS },
; 1311 : 		{ "SetCHEONMA",					appSetCHEONMA,					METH_VARARGS },
; 1312 : 		{ "IsCHEONMA",					appIsCHEONMA,					METH_VARARGS },
; 1313 : 		// END_OF_CHEONMA
; 1314 : 		
; 1315 : 		{ "GetDefaultCodePage",			appGetDefaultCodePage,			METH_VARARGS },
; 1316 : 		{ "SetControlFP",				appSetControlFP,				METH_VARARGS },
; 1317 : 		{ "SetSpecularSpeed",			appSetSpecularSpeed,			METH_VARARGS },
; 1318 : 
; 1319 : 		{ "testGetAccumulationTime",	apptestGetAccumulationTime,		METH_VARARGS },
; 1320 : 		{ "testResetAccumulationTime",	apptestResetAccumulationTime,	METH_VARARGS },
; 1321 : 		{ "testSetSpecularColor",		apptestSetSpecularColor,		METH_VARARGS },
; 1322 : 
; 1323 : 		{ "SetVisibleNotice",			appSetVisibleNotice,			METH_VARARGS },
; 1324 : 		{ "IsVisibleNotice",			appIsVisibleNotice,				METH_VARARGS },
; 1325 : 		{ "EnableTestServerFlag",		appEnableTestServerFlag,		METH_VARARGS },
; 1326 : 		{ "IsEnableTestServerFlag",		appIsEnableTestServerFlag,		METH_VARARGS },
; 1327 : 
; 1328 : 		{ "SetGuildMarkPath",			appSetGuildMarkPath,			METH_VARARGS },
; 1329 : 
; 1330 : 		{ "OnLogoUpdate",				appLogoUpdate,					METH_VARARGS },
; 1331 : 		{ "OnLogoRender",				appLogoRender,					METH_VARARGS },
; 1332 : 		{ "OnLogoOpen",					appLogoOpen,					METH_VARARGS },
; 1333 : 		{ "OnLogoClose",				appLogoClose,					METH_VARARGS },
; 1334 : 	
; 1335 : 
; 1336 : 		{ NULL, NULL },
; 1337 : 	};
; 1338 : 
; 1339 : 	PyObject * poModule = Py_InitModule("app", s_methods);

  00002	68 f5 03 00 00	 push	 1013			; 000003f5H
  00007	6a 00		 push	 0
  00009	6a 00		 push	 0
  0000b	68 00 00 00 00	 push	 OFFSET ?s_methods@?1??initapp@@YAXXZ@4PAUPyMethodDef@@A
  00010	68 00 00 00 00	 push	 OFFSET ??_C@_03CGOPKBCD@app@
  00015	ff 15 00 00 00
	00		 call	 DWORD PTR __imp__Py_InitModule4

; 1340 : 
; 1341 : 	PyModule_AddIntConstant(poModule, "INFO_ITEM",		CPythonApplication::INFO_ITEM);

  0001b	8b 35 00 00 00
	00		 mov	 esi, DWORD PTR __imp__PyModule_AddIntConstant
  00021	8b f8		 mov	 edi, eax
  00023	6a 02		 push	 2
  00025	68 00 00 00 00	 push	 OFFSET ??_C@_09OKOJMLAA@INFO_ITEM@
  0002a	57		 push	 edi
  0002b	ff d6		 call	 esi

; 1342 : 	PyModule_AddIntConstant(poModule, "INFO_ACTOR",		CPythonApplication::INFO_ACTOR);

  0002d	6a 00		 push	 0
  0002f	68 00 00 00 00	 push	 OFFSET ??_C@_0L@FNNFPLHG@INFO_ACTOR@
  00034	57		 push	 edi
  00035	ff d6		 call	 esi

; 1343 : 	PyModule_AddIntConstant(poModule, "INFO_EFFECT",	CPythonApplication::INFO_EFFECT);

  00037	6a 01		 push	 1
  00039	68 00 00 00 00	 push	 OFFSET ??_C@_0M@KLBHMBMD@INFO_EFFECT@
  0003e	57		 push	 edi
  0003f	ff d6		 call	 esi

; 1344 : 	PyModule_AddIntConstant(poModule, "INFO_TEXTTAIL",	CPythonApplication::INFO_TEXTTAIL);

  00041	6a 03		 push	 3
  00043	68 00 00 00 00	 push	 OFFSET ??_C@_0O@FAGLOALJ@INFO_TEXTTAIL@
  00048	57		 push	 edi
  00049	ff d6		 call	 esi
  0004b	83 c4 44	 add	 esp, 68			; 00000044H

; 1345 : 
; 1346 : 	PyModule_AddIntConstant(poModule, "DEGREE_DIRECTION_SAME",		DEGREE_DIRECTION_SAME);

  0004e	6a 00		 push	 0
  00050	68 00 00 00 00	 push	 OFFSET ??_C@_0BG@KEIJCHNJ@DEGREE_DIRECTION_SAME@
  00055	57		 push	 edi
  00056	ff d6		 call	 esi

; 1347 : 	PyModule_AddIntConstant(poModule, "DEGREE_DIRECTION_RIGHT",		DEGREE_DIRECTION_RIGHT);

  00058	6a 01		 push	 1
  0005a	68 00 00 00 00	 push	 OFFSET ??_C@_0BH@LNDFJAFE@DEGREE_DIRECTION_RIGHT@
  0005f	57		 push	 edi
  00060	ff d6		 call	 esi

; 1348 : 	PyModule_AddIntConstant(poModule, "DEGREE_DIRECTION_LEFT",		DEGREE_DIRECTION_LEFT);

  00062	6a 02		 push	 2
  00064	68 00 00 00 00	 push	 OFFSET ??_C@_0BG@JGNHHMCM@DEGREE_DIRECTION_LEFT@
  00069	57		 push	 edi
  0006a	ff d6		 call	 esi

; 1349 : 
; 1350 : 	PyModule_AddIntConstant(poModule, "VK_LEFT",	     VK_LEFT);

  0006c	6a 25		 push	 37			; 00000025H
  0006e	68 00 00 00 00	 push	 OFFSET ??_C@_07CJEJDFBD@VK_LEFT@
  00073	57		 push	 edi
  00074	ff d6		 call	 esi

; 1351 : 	PyModule_AddIntConstant(poModule, "VK_RIGHT",	     VK_RIGHT);

  00076	6a 27		 push	 39			; 00000027H
  00078	68 00 00 00 00	 push	 OFFSET ??_C@_08LOMCDCA@VK_RIGHT@
  0007d	57		 push	 edi
  0007e	ff d6		 call	 esi

; 1352 : 	PyModule_AddIntConstant(poModule, "VK_UP",		     VK_UP);

  00080	6a 26		 push	 38			; 00000026H
  00082	68 00 00 00 00	 push	 OFFSET ??_C@_05PIGLHCBF@VK_UP@
  00087	57		 push	 edi
  00088	ff d6		 call	 esi
  0008a	83 c4 48	 add	 esp, 72			; 00000048H

; 1353 : 	PyModule_AddIntConstant(poModule, "VK_DOWN",	     VK_DOWN);

  0008d	6a 28		 push	 40			; 00000028H
  0008f	68 00 00 00 00	 push	 OFFSET ??_C@_07NLENKNCK@VK_DOWN@
  00094	57		 push	 edi
  00095	ff d6		 call	 esi

; 1354 : 	PyModule_AddIntConstant(poModule, "VK_HOME",	     VK_HOME);

  00097	6a 24		 push	 36			; 00000024H
  00099	68 00 00 00 00	 push	 OFFSET ??_C@_07OMPILPEG@VK_HOME@
  0009e	57		 push	 edi
  0009f	ff d6		 call	 esi

; 1355 : 	PyModule_AddIntConstant(poModule, "VK_END",          VK_END);

  000a1	6a 23		 push	 35			; 00000023H
  000a3	68 00 00 00 00	 push	 OFFSET ??_C@_06LPJBNMHN@VK_END@
  000a8	57		 push	 edi
  000a9	ff d6		 call	 esi

; 1356 : 	PyModule_AddIntConstant(poModule, "VK_DELETE",	     VK_DELETE);

  000ab	6a 2e		 push	 46			; 0000002eH
  000ad	68 00 00 00 00	 push	 OFFSET ??_C@_09EABNPHOI@VK_DELETE@
  000b2	57		 push	 edi
  000b3	ff d6		 call	 esi

; 1357 : 
; 1358 : 	PyModule_AddIntConstant(poModule, "DIK_ESCAPE",      DIK_ESCAPE);

  000b5	6a 01		 push	 1
  000b7	68 00 00 00 00	 push	 OFFSET ??_C@_0L@BOHNMBC@DIK_ESCAPE@
  000bc	57		 push	 edi
  000bd	ff d6		 call	 esi

; 1359 : 	PyModule_AddIntConstant(poModule, "DIK_ESC",         DIK_ESCAPE);	//  

  000bf	6a 01		 push	 1
  000c1	68 00 00 00 00	 push	 OFFSET ??_C@_07CACBFKLO@DIK_ESC@
  000c6	57		 push	 edi
  000c7	ff d6		 call	 esi
  000c9	83 c4 48	 add	 esp, 72			; 00000048H

; 1360 : 	PyModule_AddIntConstant(poModule, "DIK_1",           DIK_1);

  000cc	6a 02		 push	 2
  000ce	68 00 00 00 00	 push	 OFFSET ??_C@_05GCLPJNBN@DIK_1@
  000d3	57		 push	 edi
  000d4	ff d6		 call	 esi

; 1361 : 	PyModule_AddIntConstant(poModule, "DIK_2",           DIK_2);

  000d6	6a 03		 push	 3
  000d8	68 00 00 00 00	 push	 OFFSET ??_C@_05EJJCMONO@DIK_2@
  000dd	57		 push	 edi
  000de	ff d6		 call	 esi

; 1362 : 	PyModule_AddIntConstant(poModule, "DIK_3",           DIK_3);

  000e0	6a 04		 push	 4
  000e2	68 00 00 00 00	 push	 OFFSET ??_C@_05FAIJPPJP@DIK_3@
  000e7	57		 push	 edi
  000e8	ff d6		 call	 esi

; 1363 : 	PyModule_AddIntConstant(poModule, "DIK_4",           DIK_4);

  000ea	6a 05		 push	 5
  000ec	68 00 00 00 00	 push	 OFFSET ??_C@_05BPMIGJFI@DIK_4@
  000f1	57		 push	 edi
  000f2	ff d6		 call	 esi

; 1364 : 	PyModule_AddIntConstant(poModule, "DIK_5",           DIK_5);

  000f4	6a 06		 push	 6
  000f6	68 00 00 00 00	 push	 OFFSET ??_C@_05GNDFIBJ@DIK_5@
  000fb	57		 push	 edi
  000fc	ff d6		 call	 esi

; 1365 : 	PyModule_AddIntConstant(poModule, "DIK_6",           DIK_6);

  000fe	6a 07		 push	 7
  00100	68 00 00 00 00	 push	 OFFSET ??_C@_05CNPOALNK@DIK_6@
  00105	57		 push	 edi
  00106	ff d6		 call	 esi
  00108	83 c4 48	 add	 esp, 72			; 00000048H

; 1366 : 	PyModule_AddIntConstant(poModule, "DIK_7",           DIK_7);

  0010b	6a 08		 push	 8
  0010d	68 00 00 00 00	 push	 OFFSET ??_C@_05DEOFDKJL@DIK_7@
  00112	57		 push	 edi
  00113	ff d6		 call	 esi

; 1367 : 	PyModule_AddIntConstant(poModule, "DIK_8",           DIK_8);

  00115	6a 09		 push	 9
  00117	68 00 00 00 00	 push	 OFFSET ??_C@_05LDHNCGFE@DIK_8@
  0011c	57		 push	 edi
  0011d	ff d6		 call	 esi

; 1368 : 	PyModule_AddIntConstant(poModule, "DIK_9",           DIK_9);

  0011f	6a 0a		 push	 10			; 0000000aH
  00121	68 00 00 00 00	 push	 OFFSET ??_C@_05KKGGBHBF@DIK_9@
  00126	57		 push	 edi
  00127	ff d6		 call	 esi

; 1369 : 	PyModule_AddIntConstant(poModule, "DIK_0",           DIK_0);

  00129	6a 0b		 push	 11			; 0000000bH
  0012b	68 00 00 00 00	 push	 OFFSET ??_C@_05HLKEKMFM@DIK_0@
  00130	57		 push	 edi
  00131	ff d6		 call	 esi

; 1370 : 	PyModule_AddIntConstant(poModule, "DIK_MINUS",       DIK_MINUS);        /* - on main keyboard */

  00133	6a 0c		 push	 12			; 0000000cH
  00135	68 00 00 00 00	 push	 OFFSET ??_C@_09DOHACMKC@DIK_MINUS@
  0013a	57		 push	 edi
  0013b	ff d6		 call	 esi

; 1371 : 	PyModule_AddIntConstant(poModule, "DIK_EQUALS",      DIK_EQUALS);         

  0013d	6a 0d		 push	 13			; 0000000dH
  0013f	68 00 00 00 00	 push	 OFFSET ??_C@_0L@KKCLPAPI@DIK_EQUALS@
  00144	57		 push	 edi
  00145	ff d6		 call	 esi
  00147	83 c4 48	 add	 esp, 72			; 00000048H

; 1372 : 	PyModule_AddIntConstant(poModule, "DIK_BACK",        DIK_BACK);           /* backspace */

  0014a	6a 0e		 push	 14			; 0000000eH
  0014c	68 00 00 00 00	 push	 OFFSET ??_C@_08HHEEGKBL@DIK_BACK@
  00151	57		 push	 edi
  00152	ff d6		 call	 esi

; 1373 : 	PyModule_AddIntConstant(poModule, "DIK_TAB",         DIK_TAB);            

  00154	6a 0f		 push	 15			; 0000000fH
  00156	68 00 00 00 00	 push	 OFFSET ??_C@_07MODNCMBL@DIK_TAB@
  0015b	57		 push	 edi
  0015c	ff d6		 call	 esi

; 1374 : 	PyModule_AddIntConstant(poModule, "DIK_Q",           DIK_Q);

  0015e	6a 10		 push	 16			; 00000010H
  00160	68 00 00 00 00	 push	 OFFSET ??_C@_05HECPGLK@DIK_Q@
  00165	57		 push	 edi
  00166	ff d6		 call	 esi

; 1375 : 	PyModule_AddIntConstant(poModule, "DIK_W",           DIK_W);

  00168	6a 11		 push	 17			; 00000011H
  0016a	68 00 00 00 00	 push	 OFFSET ??_C@_05FBBIFBDM@DIK_W@
  0016f	57		 push	 edi
  00170	ff d6		 call	 esi

; 1376 : 	PyModule_AddIntConstant(poModule, "DIK_E",           DIK_E);

  00172	6a 12		 push	 18			; 00000012H
  00174	68 00 00 00 00	 push	 OFFSET ??_C@_05CJOMCBOP@DIK_E@
  00179	57		 push	 edi
  0017a	ff d6		 call	 esi

; 1377 : 	PyModule_AddIntConstant(poModule, "DIK_R",           DIK_R);

  0017c	6a 13		 push	 19			; 00000013H
  0017e	68 00 00 00 00	 push	 OFFSET ??_C@_05CMGPKFHJ@DIK_R@
  00183	57		 push	 edi
  00184	ff d6		 call	 esi
  00186	83 c4 48	 add	 esp, 72			; 00000048H

; 1378 : 	PyModule_AddIntConstant(poModule, "DIK_T",           DIK_T);

  00189	6a 14		 push	 20			; 00000014H
  0018b	68 00 00 00 00	 push	 OFFSET ??_C@_05HKDFACPP@DIK_T@
  00190	57		 push	 edi
  00191	ff d6		 call	 esi

; 1379 : 	PyModule_AddIntConstant(poModule, "DIK_Y",           DIK_Y);

  00193	6a 15		 push	 21			; 00000015H
  00195	68 00 00 00 00	 push	 OFFSET ??_C@_05MPJLHMLC@DIK_Y@
  0019a	57		 push	 edi
  0019b	ff d6		 call	 esi

; 1380 : 	PyModule_AddIntConstant(poModule, "DIK_U",           DIK_U);

  0019d	6a 16		 push	 22			; 00000016H
  0019f	68 00 00 00 00	 push	 OFFSET ??_C@_05GDCODDLO@DIK_U@
  001a4	57		 push	 edi
  001a5	ff d6		 call	 esi

; 1381 : 	PyModule_AddIntConstant(poModule, "DIK_I",           DIK_I);

  001a7	6a 17		 push	 23			; 00000017H
  001a9	68 00 00 00 00	 push	 OFFSET ??_C@_05IFFJGOOD@DIK_I@
  001ae	57		 push	 edi
  001af	ff d6		 call	 esi

; 1382 : 	PyModule_AddIntConstant(poModule, "DIK_O",           DIK_O);

  001b1	6a 18		 push	 24			; 00000018H
  001b3	68 00 00 00 00	 push	 OFFSET ??_C@_05NDADMJGF@DIK_O@
  001b8	57		 push	 edi
  001b9	ff d6		 call	 esi

; 1383 : 	PyModule_AddIntConstant(poModule, "DIK_P",           DIK_P);

  001bb	6a 19		 push	 25			; 00000019H
  001bd	68 00 00 00 00	 push	 OFFSET ??_C@_05BOFJMHPL@DIK_P@
  001c2	57		 push	 edi
  001c3	ff d6		 call	 esi
  001c5	83 c4 48	 add	 esp, 72			; 00000048H

; 1384 : 	PyModule_AddIntConstant(poModule, "DIK_LBRACKET",    DIK_LBRACKET);       

  001c8	6a 1a		 push	 26			; 0000001aH
  001ca	68 00 00 00 00	 push	 OFFSET ??_C@_0N@EFJDLCEF@DIK_LBRACKET@
  001cf	57		 push	 edi
  001d0	ff d6		 call	 esi

; 1385 : 	PyModule_AddIntConstant(poModule, "DIK_RBRACKET",    DIK_RBRACKET);       

  001d2	6a 1b		 push	 27			; 0000001bH
  001d4	68 00 00 00 00	 push	 OFFSET ??_C@_0N@CBJBCLKG@DIK_RBRACKET@
  001d9	57		 push	 edi
  001da	ff d6		 call	 esi

; 1386 : 	PyModule_AddIntConstant(poModule, "DIK_RETURN",      DIK_RETURN);         /* Enter on main keyboard */

  001dc	6a 1c		 push	 28			; 0000001cH
  001de	68 00 00 00 00	 push	 OFFSET ??_C@_0L@JLNKBJCL@DIK_RETURN@
  001e3	57		 push	 edi
  001e4	ff d6		 call	 esi

; 1387 : 	PyModule_AddIntConstant(poModule, "DIK_LCONTROL",    DIK_LCONTROL);       

  001e6	6a 1d		 push	 29			; 0000001dH
  001e8	68 00 00 00 00	 push	 OFFSET ??_C@_0N@ODLLDAI@DIK_LCONTROL@
  001ed	57		 push	 edi
  001ee	ff d6		 call	 esi

; 1388 : 	PyModule_AddIntConstant(poModule, "DIK_A",           DIK_A);

  001f0	6a 1e		 push	 30			; 0000001eH
  001f2	68 00 00 00 00	 push	 OFFSET ??_C@_05ENIAOEOL@DIK_A@
  001f7	57		 push	 edi
  001f8	ff d6		 call	 esi

; 1389 : 	PyModule_AddIntConstant(poModule, "DIK_S",           DIK_S);

  001fa	6a 1f		 push	 31			; 0000001fH
  001fc	68 00 00 00 00	 push	 OFFSET ??_C@_05DFHEJEDI@DIK_S@
  00201	57		 push	 edi
  00202	ff d6		 call	 esi
  00204	83 c4 48	 add	 esp, 72			; 00000048H

; 1390 : 	PyModule_AddIntConstant(poModule, "DIK_D",           DIK_D);

  00207	6a 20		 push	 32			; 00000020H
  00209	68 00 00 00 00	 push	 OFFSET ??_C@_05DAPHBAKO@DIK_D@
  0020e	57		 push	 edi
  0020f	ff d6		 call	 esi

; 1391 : 	PyModule_AddIntConstant(poModule, "DIK_F",           DIK_F);

  00211	6a 21		 push	 33			; 00000021H
  00213	68 00 00 00 00	 push	 OFFSET ??_C@_05CMBHCCM@DIK_F@
  00218	57		 push	 edi
  00219	ff d6		 call	 esi

; 1392 : 	PyModule_AddIntConstant(poModule, "DIK_G",           DIK_G);

  0021b	6a 22		 push	 34			; 00000022H
  0021d	68 00 00 00 00	 push	 OFFSET ??_C@_05BLNKEDGN@DIK_G@
  00222	57		 push	 edi
  00223	ff d6		 call	 esi

; 1393 : 	PyModule_AddIntConstant(poModule, "DIK_H",           DIK_H);

  00225	6a 23		 push	 35			; 00000023H
  00227	68 00 00 00 00	 push	 OFFSET ??_C@_05JMECFPKC@DIK_H@
  0022c	57		 push	 edi
  0022d	ff d6		 call	 esi

; 1394 : 	PyModule_AddIntConstant(poModule, "DIK_J",           DIK_J);

  0022f	6a 24		 push	 36			; 00000024H
  00231	68 00 00 00 00	 push	 OFFSET ??_C@_05KOHEDNCA@DIK_J@
  00236	57		 push	 edi
  00237	ff d6		 call	 esi

; 1395 : 	PyModule_AddIntConstant(poModule, "DIK_K",           DIK_K);

  00239	6a 25		 push	 37			; 00000025H
  0023b	68 00 00 00 00	 push	 OFFSET ??_C@_05LHGPAMGB@DIK_K@
  00240	57		 push	 edi
  00241	ff d6		 call	 esi
  00243	83 c4 48	 add	 esp, 72			; 00000048H

; 1396 : 	PyModule_AddIntConstant(poModule, "DIK_L",           DIK_L);

  00246	6a 26		 push	 38			; 00000026H
  00248	68 00 00 00 00	 push	 OFFSET ??_C@_05PICOJKKG@DIK_L@
  0024d	57		 push	 edi
  0024e	ff d6		 call	 esi

; 1397 : 	PyModule_AddIntConstant(poModule, "DIK_SEMICOLON",   DIK_SEMICOLON);      

  00250	6a 27		 push	 39			; 00000027H
  00252	68 00 00 00 00	 push	 OFFSET ??_C@_0O@NEECDLLB@DIK_SEMICOLON@
  00257	57		 push	 edi
  00258	ff d6		 call	 esi

; 1398 : 	PyModule_AddIntConstant(poModule, "DIK_APOSTROPHE",  DIK_APOSTROPHE);     

  0025a	6a 28		 push	 40			; 00000028H
  0025c	68 00 00 00 00	 push	 OFFSET ??_C@_0P@JDEKLKAM@DIK_APOSTROPHE@
  00261	57		 push	 edi
  00262	ff d6		 call	 esi

; 1399 : 	PyModule_AddIntConstant(poModule, "DIK_GRAVE",       DIK_GRAVE);          /* accent grave */

  00264	6a 29		 push	 41			; 00000029H
  00266	68 00 00 00 00	 push	 OFFSET ??_C@_09MOGGLCIP@DIK_GRAVE@
  0026b	57		 push	 edi
  0026c	ff d6		 call	 esi

; 1400 : 	PyModule_AddIntConstant(poModule, "DIK_LSHIFT",      DIK_LSHIFT);         

  0026e	6a 2a		 push	 42			; 0000002aH
  00270	68 00 00 00 00	 push	 OFFSET ??_C@_0L@GNGJHMON@DIK_LSHIFT@
  00275	57		 push	 edi
  00276	ff d6		 call	 esi

; 1401 : 	PyModule_AddIntConstant(poModule, "DIK_BACKSLASH",   DIK_BACKSLASH);      

  00278	6a 2b		 push	 43			; 0000002bH
  0027a	68 00 00 00 00	 push	 OFFSET ??_C@_0O@DGKNNOHE@DIK_BACKSLASH@
  0027f	57		 push	 edi
  00280	ff d6		 call	 esi
  00282	83 c4 48	 add	 esp, 72			; 00000048H

; 1402 : 	PyModule_AddIntConstant(poModule, "DIK_Z",           DIK_Z);

  00285	6a 2c		 push	 44			; 0000002cH
  00287	68 00 00 00 00	 push	 OFFSET ??_C@_05OELGCPHB@DIK_Z@
  0028c	57		 push	 edi
  0028d	ff d6		 call	 esi

; 1403 : 	PyModule_AddIntConstant(poModule, "DIK_X",           DIK_X);

  0028f	6a 2d		 push	 45			; 0000002dH
  00291	68 00 00 00 00	 push	 OFFSET ??_C@_05NGIAENPD@DIK_X@
  00296	57		 push	 edi
  00297	ff d6		 call	 esi

; 1404 : 	PyModule_AddIntConstant(poModule, "DIK_C",           DIK_C);

  00299	6a 2e		 push	 46			; 0000002eH
  0029b	68 00 00 00 00	 push	 OFFSET ??_C@_05HPLGIGGJ@DIK_C@
  002a0	57		 push	 edi
  002a1	ff d6		 call	 esi

; 1405 : 	PyModule_AddIntConstant(poModule, "DIK_V",           DIK_V);

  002a3	6a 2f		 push	 47			; 0000002fH
  002a5	68 00 00 00 00	 push	 OFFSET ??_C@_05EIADGAHN@DIK_V@
  002aa	57		 push	 edi
  002ab	ff d6		 call	 esi

; 1406 : 	PyModule_AddIntConstant(poModule, "DIK_B",           DIK_B);

  002ad	6a 30		 push	 48			; 00000030H
  002af	68 00 00 00 00	 push	 OFFSET ??_C@_05GGKNLHCI@DIK_B@
  002b4	57		 push	 edi
  002b5	ff d6		 call	 esi

; 1407 : 	PyModule_AddIntConstant(poModule, "DIK_N",           DIK_N);

  002b7	6a 31		 push	 49			; 00000031H
  002b9	68 00 00 00 00	 push	 OFFSET ??_C@_05MKBIPICE@DIK_N@
  002be	57		 push	 edi
  002bf	ff d6		 call	 esi
  002c1	83 c4 48	 add	 esp, 72			; 00000048H

; 1408 : 	PyModule_AddIntConstant(poModule, "DIK_M",           DIK_M);

  002c4	6a 32		 push	 50			; 00000032H
  002c6	68 00 00 00 00	 push	 OFFSET ??_C@_05OBDFKLOH@DIK_M@
  002cb	57		 push	 edi
  002cc	ff d6		 call	 esi

; 1409 : 	PyModule_AddIntConstant(poModule, "DIK_COMMA",       DIK_COMMA);          

  002ce	6a 33		 push	 51			; 00000033H
  002d0	68 00 00 00 00	 push	 OFFSET ??_C@_09PDEOJFIH@DIK_COMMA@
  002d5	57		 push	 edi
  002d6	ff d6		 call	 esi

; 1410 : 	PyModule_AddIntConstant(poModule, "DIK_PERIOD",      DIK_PERIOD);         /* . on main keyboard */

  002d8	6a 34		 push	 52			; 00000034H
  002da	68 00 00 00 00	 push	 OFFSET ??_C@_0L@HHNLMNCM@DIK_PERIOD@
  002df	57		 push	 edi
  002e0	ff d6		 call	 esi

; 1411 : 	PyModule_AddIntConstant(poModule, "DIK_SLASH",       DIK_SLASH);          /* / on main keyboard */

  002e2	6a 35		 push	 53			; 00000035H
  002e4	68 00 00 00 00	 push	 OFFSET ??_C@_09DKJEGHEH@DIK_SLASH@
  002e9	57		 push	 edi
  002ea	ff d6		 call	 esi

; 1412 : 	PyModule_AddIntConstant(poModule, "DIK_RSHIFT",      DIK_RSHIFT);         

  002ec	6a 36		 push	 54			; 00000036H
  002ee	68 00 00 00 00	 push	 OFFSET ??_C@_0L@FKIIJLHO@DIK_RSHIFT@
  002f3	57		 push	 edi
  002f4	ff d6		 call	 esi

; 1413 : 	PyModule_AddIntConstant(poModule, "DIK_MULTIPLY",    DIK_MULTIPLY);       /* * on numeric keypad */

  002f6	6a 37		 push	 55			; 00000037H
  002f8	68 00 00 00 00	 push	 OFFSET ??_C@_0N@DHLLGHHC@DIK_MULTIPLY@
  002fd	57		 push	 edi
  002fe	ff d6		 call	 esi
  00300	83 c4 48	 add	 esp, 72			; 00000048H

; 1414 : 	PyModule_AddIntConstant(poModule, "DIK_LALT",        DIK_LMENU);          /* left Alt */

  00303	6a 38		 push	 56			; 00000038H
  00305	68 00 00 00 00	 push	 OFFSET ??_C@_08OHCJNNJ@DIK_LALT@
  0030a	57		 push	 edi
  0030b	ff d6		 call	 esi

; 1415 : 	PyModule_AddIntConstant(poModule, "DIK_SPACE",       DIK_SPACE);          

  0030d	6a 39		 push	 57			; 00000039H
  0030f	68 00 00 00 00	 push	 OFFSET ??_C@_09DGAMMAPJ@DIK_SPACE@
  00314	57		 push	 edi
  00315	ff d6		 call	 esi

; 1416 : 	PyModule_AddIntConstant(poModule, "DIK_CAPITAL",     DIK_CAPITAL);        

  00317	6a 3a		 push	 58			; 0000003aH
  00319	68 00 00 00 00	 push	 OFFSET ??_C@_0M@KEADBGIC@DIK_CAPITAL@
  0031e	57		 push	 edi
  0031f	ff d6		 call	 esi

; 1417 : 	PyModule_AddIntConstant(poModule, "DIK_F1",          DIK_F1);

  00321	6a 3b		 push	 59			; 0000003bH
  00323	68 00 00 00 00	 push	 OFFSET ??_C@_06PEIHKKCD@DIK_F1@
  00328	57		 push	 edi
  00329	ff d6		 call	 esi

; 1418 : 	PyModule_AddIntConstant(poModule, "DIK_F2",          DIK_F2);

  0032b	6a 3c		 push	 60			; 0000003cH
  0032d	68 00 00 00 00	 push	 OFFSET ??_C@_06NPKKPJOA@DIK_F2@
  00332	57		 push	 edi
  00333	ff d6		 call	 esi

; 1419 : 	PyModule_AddIntConstant(poModule, "DIK_F3",          DIK_F3);

  00335	6a 3d		 push	 61			; 0000003dH
  00337	68 00 00 00 00	 push	 OFFSET ??_C@_06MGLBMIKB@DIK_F3@
  0033c	57		 push	 edi
  0033d	ff d6		 call	 esi
  0033f	83 c4 48	 add	 esp, 72			; 00000048H

; 1420 : 	PyModule_AddIntConstant(poModule, "DIK_F4",          DIK_F4);

  00342	6a 3e		 push	 62			; 0000003eH
  00344	68 00 00 00 00	 push	 OFFSET ??_C@_06IJPAFOGG@DIK_F4@
  00349	57		 push	 edi
  0034a	ff d6		 call	 esi

; 1421 : 	PyModule_AddIntConstant(poModule, "DIK_F5",          DIK_F5);

  0034c	6a 3f		 push	 63			; 0000003fH
  0034e	68 00 00 00 00	 push	 OFFSET ??_C@_06JAOLGPCH@DIK_F5@
  00353	57		 push	 edi
  00354	ff d6		 call	 esi

; 1422 : 	PyModule_AddIntConstant(poModule, "DIK_F6",          DIK_F6);

  00356	6a 40		 push	 64			; 00000040H
  00358	68 00 00 00 00	 push	 OFFSET ??_C@_06LLMGDMOE@DIK_F6@
  0035d	57		 push	 edi
  0035e	ff d6		 call	 esi

; 1423 : 	PyModule_AddIntConstant(poModule, "DIK_F7",          DIK_F7);

  00360	6a 41		 push	 65			; 00000041H
  00362	68 00 00 00 00	 push	 OFFSET ??_C@_06KCNNANKF@DIK_F7@
  00367	57		 push	 edi
  00368	ff d6		 call	 esi

; 1424 : 	PyModule_AddIntConstant(poModule, "DIK_F8",          DIK_F8);

  0036a	6a 42		 push	 66			; 00000042H
  0036c	68 00 00 00 00	 push	 OFFSET ??_C@_06CFEFBBGK@DIK_F8@
  00371	57		 push	 edi
  00372	ff d6		 call	 esi

; 1425 : 	PyModule_AddIntConstant(poModule, "DIK_F9",          DIK_F9);

  00374	6a 43		 push	 67			; 00000043H
  00376	68 00 00 00 00	 push	 OFFSET ??_C@_06DMFOCACL@DIK_F9@
  0037b	57		 push	 edi
  0037c	ff d6		 call	 esi
  0037e	83 c4 48	 add	 esp, 72			; 00000048H

; 1426 : 	PyModule_AddIntConstant(poModule, "DIK_F10",         DIK_F10);

  00381	6a 44		 push	 68			; 00000044H
  00383	68 00 00 00 00	 push	 OFFSET ??_C@_07HNNFMACL@DIK_F10@
  00388	57		 push	 edi
  00389	ff d6		 call	 esi

; 1427 : 	PyModule_AddIntConstant(poModule, "DIK_NUMLOCK",     DIK_NUMLOCK);

  0038b	6a 45		 push	 69			; 00000045H
  0038d	68 00 00 00 00	 push	 OFFSET ??_C@_0M@BAOCLHIM@DIK_NUMLOCK@
  00392	57		 push	 edi
  00393	ff d6		 call	 esi

; 1428 : 	PyModule_AddIntConstant(poModule, "DIK_SCROLL",      DIK_SCROLL);         /* Scroll Lock */

  00395	6a 46		 push	 70			; 00000046H
  00397	68 00 00 00 00	 push	 OFFSET ??_C@_0L@HPJOFPCB@DIK_SCROLL@
  0039c	57		 push	 edi
  0039d	ff d6		 call	 esi

; 1429 : 	PyModule_AddIntConstant(poModule, "DIK_NUMPAD7",     DIK_NUMPAD7);        

  0039f	6a 47		 push	 71			; 00000047H
  003a1	68 00 00 00 00	 push	 OFFSET ??_C@_0M@NDOIJKED@DIK_NUMPAD7@
  003a6	57		 push	 edi
  003a7	ff d6		 call	 esi

; 1430 : 	PyModule_AddIntConstant(poModule, "DIK_NUMPAD8",     DIK_NUMPAD8);        

  003a9	6a 48		 push	 72			; 00000048H
  003ab	68 00 00 00 00	 push	 OFFSET ??_C@_0M@FEHAIGIM@DIK_NUMPAD8@
  003b0	57		 push	 edi
  003b1	ff d6		 call	 esi

; 1431 : 	PyModule_AddIntConstant(poModule, "DIK_NUMPAD9",     DIK_NUMPAD9);        

  003b3	6a 49		 push	 73			; 00000049H
  003b5	68 00 00 00 00	 push	 OFFSET ??_C@_0M@ENGLLHMN@DIK_NUMPAD9@
  003ba	57		 push	 edi
  003bb	ff d6		 call	 esi
  003bd	83 c4 48	 add	 esp, 72			; 00000048H

; 1432 : 	PyModule_AddIntConstant(poModule, "DIK_SUBTRACT",    DIK_SUBTRACT);       /* - on numeric keypad */

  003c0	6a 4a		 push	 74			; 0000004aH
  003c2	68 00 00 00 00	 push	 OFFSET ??_C@_0N@ECOBCKNF@DIK_SUBTRACT@
  003c7	57		 push	 edi
  003c8	ff d6		 call	 esi

; 1433 : 	PyModule_AddIntConstant(poModule, "DIK_NUMPAD4",     DIK_NUMPAD4);        

  003ca	6a 4b		 push	 75			; 0000004bH
  003cc	68 00 00 00 00	 push	 OFFSET ??_C@_0M@PIMFMJIA@DIK_NUMPAD4@
  003d1	57		 push	 edi
  003d2	ff d6		 call	 esi

; 1434 : 	PyModule_AddIntConstant(poModule, "DIK_NUMPAD5",     DIK_NUMPAD5);        

  003d4	6a 4c		 push	 76			; 0000004cH
  003d6	68 00 00 00 00	 push	 OFFSET ??_C@_0M@OBNOPIMB@DIK_NUMPAD5@
  003db	57		 push	 edi
  003dc	ff d6		 call	 esi

; 1435 : 	PyModule_AddIntConstant(poModule, "DIK_NUMPAD6",     DIK_NUMPAD6);        

  003de	6a 4d		 push	 77			; 0000004dH
  003e0	68 00 00 00 00	 push	 OFFSET ??_C@_0M@MKPDKLAC@DIK_NUMPAD6@
  003e5	57		 push	 edi
  003e6	ff d6		 call	 esi

; 1436 : 	PyModule_AddIntConstant(poModule, "DIK_ADD",         DIK_ADD);            /* + on numeric keypad */

  003e8	6a 4e		 push	 78			; 0000004eH
  003ea	68 00 00 00 00	 push	 OFFSET ??_C@_07PJGLOONL@DIK_ADD@
  003ef	57		 push	 edi
  003f0	ff d6		 call	 esi

; 1437 : 	PyModule_AddIntConstant(poModule, "DIK_NUMPAD1",     DIK_NUMPAD1);        

  003f2	6a 4f		 push	 79			; 0000004fH
  003f4	68 00 00 00 00	 push	 OFFSET ??_C@_0M@IFLCDNMF@DIK_NUMPAD1@
  003f9	57		 push	 edi
  003fa	ff d6		 call	 esi
  003fc	83 c4 48	 add	 esp, 72			; 00000048H

; 1438 : 	PyModule_AddIntConstant(poModule, "DIK_NUMPAD2",     DIK_NUMPAD2);        

  003ff	6a 50		 push	 80			; 00000050H
  00401	68 00 00 00 00	 push	 OFFSET ??_C@_0M@KOJPGOAG@DIK_NUMPAD2@
  00406	57		 push	 edi
  00407	ff d6		 call	 esi

; 1439 : 	PyModule_AddIntConstant(poModule, "DIK_NUMPAD3",     DIK_NUMPAD3);        

  00409	6a 51		 push	 81			; 00000051H
  0040b	68 00 00 00 00	 push	 OFFSET ??_C@_0M@LHIEFPEH@DIK_NUMPAD3@
  00410	57		 push	 edi
  00411	ff d6		 call	 esi

; 1440 : 	PyModule_AddIntConstant(poModule, "DIK_NUMPAD0",     DIK_NUMPAD0);        

  00413	6a 52		 push	 82			; 00000052H
  00415	68 00 00 00 00	 push	 OFFSET ??_C@_0M@JMKJAMIE@DIK_NUMPAD0@
  0041a	57		 push	 edi
  0041b	ff d6		 call	 esi

; 1441 : 	PyModule_AddIntConstant(poModule, "DIK_DECIMAL",     DIK_DECIMAL);        /* . on numeric keypad */

  0041d	6a 53		 push	 83			; 00000053H
  0041f	68 00 00 00 00	 push	 OFFSET ??_C@_0M@PCNKFDKI@DIK_DECIMAL@
  00424	57		 push	 edi
  00425	ff d6		 call	 esi

; 1442 : 	PyModule_AddIntConstant(poModule, "DIK_F11",         DIK_F11);            

  00427	6a 57		 push	 87			; 00000057H
  00429	68 00 00 00 00	 push	 OFFSET ??_C@_07GEMOPBGK@DIK_F11@
  0042e	57		 push	 edi
  0042f	ff d6		 call	 esi

; 1443 : 	PyModule_AddIntConstant(poModule, "DIK_F12",         DIK_F12);            

  00431	6a 58		 push	 88			; 00000058H
  00433	68 00 00 00 00	 push	 OFFSET ??_C@_07EPODKCKJ@DIK_F12@
  00438	57		 push	 edi
  00439	ff d6		 call	 esi
  0043b	83 c4 48	 add	 esp, 72			; 00000048H

; 1444 : 	PyModule_AddIntConstant(poModule, "DIK_NEXTTRACK",   DIK_NEXTTRACK);      /* Next Track */

  0043e	68 99 00 00 00	 push	 153			; 00000099H
  00443	68 00 00 00 00	 push	 OFFSET ??_C@_0O@DEOEEHEE@DIK_NEXTTRACK@
  00448	57		 push	 edi
  00449	ff d6		 call	 esi

; 1445 : 	PyModule_AddIntConstant(poModule, "DIK_NUMPADENTER", DIK_NUMPADENTER);    /* Enter on numeric keypad */

  0044b	68 9c 00 00 00	 push	 156			; 0000009cH
  00450	68 00 00 00 00	 push	 OFFSET ??_C@_0BA@OLMCJCJF@DIK_NUMPADENTER@
  00455	57		 push	 edi
  00456	ff d6		 call	 esi

; 1446 : 	PyModule_AddIntConstant(poModule, "DIK_RCONTROL",    DIK_RCONTROL);       

  00458	68 9d 00 00 00	 push	 157			; 0000009dH
  0045d	68 00 00 00 00	 push	 OFFSET ??_C@_0N@GKDJCKOL@DIK_RCONTROL@
  00462	57		 push	 edi
  00463	ff d6		 call	 esi

; 1447 : 	PyModule_AddIntConstant(poModule, "DIK_MUTE",        DIK_MUTE);           /* Mute */

  00465	68 a0 00 00 00	 push	 160			; 000000a0H
  0046a	68 00 00 00 00	 push	 OFFSET ??_C@_08KNIFKFHJ@DIK_MUTE@
  0046f	57		 push	 edi
  00470	ff d6		 call	 esi

; 1448 : 	PyModule_AddIntConstant(poModule, "DIK_CALCULATOR",  DIK_CALCULATOR);     /* Calculator */

  00472	68 a1 00 00 00	 push	 161			; 000000a1H
  00477	68 00 00 00 00	 push	 OFFSET ??_C@_0P@OJEJDHIP@DIK_CALCULATOR@
  0047c	57		 push	 edi
  0047d	ff d6		 call	 esi

; 1449 : 	PyModule_AddIntConstant(poModule, "DIK_PLAYPAUSE",   DIK_PLAYPAUSE);      /* Play / Pause */

  0047f	68 a2 00 00 00	 push	 162			; 000000a2H
  00484	68 00 00 00 00	 push	 OFFSET ??_C@_0O@ECAMOKPG@DIK_PLAYPAUSE@
  00489	57		 push	 edi
  0048a	ff d6		 call	 esi
  0048c	83 c4 48	 add	 esp, 72			; 00000048H

; 1450 : 	PyModule_AddIntConstant(poModule, "DIK_MEDIASTOP",   DIK_MEDIASTOP);      /* Media Stop */

  0048f	68 a4 00 00 00	 push	 164			; 000000a4H
  00494	68 00 00 00 00	 push	 OFFSET ??_C@_0O@FLFOAKOG@DIK_MEDIASTOP@
  00499	57		 push	 edi
  0049a	ff d6		 call	 esi

; 1451 : 	PyModule_AddIntConstant(poModule, "DIK_VOLUMEDOWN",  DIK_VOLUMEDOWN);     /* Volume - */

  0049c	68 ae 00 00 00	 push	 174			; 000000aeH
  004a1	68 00 00 00 00	 push	 OFFSET ??_C@_0P@FKHBCEAD@DIK_VOLUMEDOWN@
  004a6	57		 push	 edi
  004a7	ff d6		 call	 esi

; 1452 : 	PyModule_AddIntConstant(poModule, "DIK_VOLUMEUP",    DIK_VOLUMEUP);       /* Volume + */

  004a9	68 b0 00 00 00	 push	 176			; 000000b0H
  004ae	68 00 00 00 00	 push	 OFFSET ??_C@_0N@GPHLGHED@DIK_VOLUMEUP@
  004b3	57		 push	 edi
  004b4	ff d6		 call	 esi

; 1453 : 	PyModule_AddIntConstant(poModule, "DIK_WEBHOME",     DIK_WEBHOME);        /* Web home */

  004b6	68 b2 00 00 00	 push	 178			; 000000b2H
  004bb	68 00 00 00 00	 push	 OFFSET ??_C@_0M@IEADBFND@DIK_WEBHOME@
  004c0	57		 push	 edi
  004c1	ff d6		 call	 esi

; 1454 : 	PyModule_AddIntConstant(poModule, "DIK_NUMPADCOMMA", DIK_NUMPADCOMMA);    /* , on numeric keypad (NEC PC98) */

  004c3	68 b3 00 00 00	 push	 179			; 000000b3H
  004c8	68 00 00 00 00	 push	 OFFSET ??_C@_0BA@ECBGFAAH@DIK_NUMPADCOMMA@
  004cd	57		 push	 edi
  004ce	ff d6		 call	 esi

; 1455 : 	PyModule_AddIntConstant(poModule, "DIK_DIVIDE",      DIK_DIVIDE);         /* / on numeric keypad */

  004d0	68 b5 00 00 00	 push	 181			; 000000b5H
  004d5	68 00 00 00 00	 push	 OFFSET ??_C@_0L@HDEGMNOK@DIK_DIVIDE@
  004da	57		 push	 edi
  004db	ff d6		 call	 esi
  004dd	83 c4 48	 add	 esp, 72			; 00000048H

; 1456 : 	PyModule_AddIntConstant(poModule, "DIK_SYSRQ",       DIK_SYSRQ);          

  004e0	68 b7 00 00 00	 push	 183			; 000000b7H
  004e5	68 00 00 00 00	 push	 OFFSET ??_C@_09PCEGCDIO@DIK_SYSRQ@
  004ea	57		 push	 edi
  004eb	ff d6		 call	 esi

; 1457 : 	PyModule_AddIntConstant(poModule, "DIK_RALT",        DIK_RMENU);          /* right Alt */

  004ed	68 b8 00 00 00	 push	 184			; 000000b8H
  004f2	68 00 00 00 00	 push	 OFFSET ??_C@_08NBKCLEDK@DIK_RALT@
  004f7	57		 push	 edi
  004f8	ff d6		 call	 esi

; 1458 : 	PyModule_AddIntConstant(poModule, "DIK_PAUSE",       DIK_PAUSE);          /* Pause */

  004fa	68 c5 00 00 00	 push	 197			; 000000c5H
  004ff	68 00 00 00 00	 push	 OFFSET ??_C@_09COEFGPNN@DIK_PAUSE@
  00504	57		 push	 edi
  00505	ff d6		 call	 esi

; 1459 : 	PyModule_AddIntConstant(poModule, "DIK_HOME",        DIK_HOME);           /* Home on arrow keypad */

  00507	68 c7 00 00 00	 push	 199			; 000000c7H
  0050c	68 00 00 00 00	 push	 OFFSET ??_C@_08EJDGAFAN@DIK_HOME@
  00511	57		 push	 edi
  00512	ff d6		 call	 esi

; 1460 : 	PyModule_AddIntConstant(poModule, "DIK_UP",          DIK_UP);             /* UpArrow on arrow keypad */

  00514	68 c8 00 00 00	 push	 200			; 000000c8H
  00519	68 00 00 00 00	 push	 OFFSET ??_C@_06JGABONOM@DIK_UP@
  0051e	57		 push	 edi
  0051f	ff d6		 call	 esi

; 1461 : 	PyModule_AddIntConstant(poModule, "DIK_PGUP",        DIK_PRIOR);          /* PgUp on arrow keypad */

  00521	68 c9 00 00 00	 push	 201			; 000000c9H
  00526	68 00 00 00 00	 push	 OFFSET ??_C@_08PJJCOFHN@DIK_PGUP@
  0052b	57		 push	 edi
  0052c	ff d6		 call	 esi
  0052e	83 c4 48	 add	 esp, 72			; 00000048H

; 1462 : 	PyModule_AddIntConstant(poModule, "DIK_LEFT",        DIK_LEFT);           /* LeftArrow on arrow keypad */

  00531	68 cb 00 00 00	 push	 203			; 000000cbH
  00536	68 00 00 00 00	 push	 OFFSET ??_C@_08IMIHIPFI@DIK_LEFT@
  0053b	57		 push	 edi
  0053c	ff d6		 call	 esi

; 1463 : 	PyModule_AddIntConstant(poModule, "DIK_RIGHT",       DIK_RIGHT);          /* RightArrow on arrow keypad */

  0053e	68 cd 00 00 00	 push	 205			; 000000cdH
  00543	68 00 00 00 00	 push	 OFFSET ??_C@_09OKEHHFIC@DIK_RIGHT@
  00548	57		 push	 edi
  00549	ff d6		 call	 esi

; 1464 : 	PyModule_AddIntConstant(poModule, "DIK_END",         DIK_END);            /* End on arrow keypad */

  0054b	68 cf 00 00 00	 push	 207			; 000000cfH
  00550	68 00 00 00 00	 push	 OFFSET ??_C@_07HLJOPMFK@DIK_END@
  00555	57		 push	 edi
  00556	ff d6		 call	 esi

; 1465 : 	PyModule_AddIntConstant(poModule, "DIK_DOWN",        DIK_DOWN);           /* DownArrow on arrow keypad */

  00558	68 d0 00 00 00	 push	 208			; 000000d0H
  0055d	68 00 00 00 00	 push	 OFFSET ??_C@_08HOIDBHGB@DIK_DOWN@
  00562	57		 push	 edi
  00563	ff d6		 call	 esi

; 1466 : 	PyModule_AddIntConstant(poModule, "DIK_PGDN",        DIK_NEXT);           /* PgDn on arrow keypad */

  00565	68 d1 00 00 00	 push	 209			; 000000d1H
  0056a	68 00 00 00 00	 push	 OFFSET ??_C@_08DADHBDOF@DIK_PGDN@
  0056f	57		 push	 edi
  00570	ff d6		 call	 esi

; 1467 : 	PyModule_AddIntConstant(poModule, "DIK_INSERT",      DIK_INSERT);         /* Insert on arrow keypad */

  00572	68 d2 00 00 00	 push	 210			; 000000d2H
  00577	68 00 00 00 00	 push	 OFFSET ??_C@_0L@MGNAFAII@DIK_INSERT@
  0057c	57		 push	 edi
  0057d	ff d6		 call	 esi
  0057f	83 c4 48	 add	 esp, 72			; 00000048H

; 1468 : 	PyModule_AddIntConstant(poModule, "DIK_DELETE",      DIK_DELETE);         /* Delete on arrow keypad */

  00582	68 d3 00 00 00	 push	 211			; 000000d3H
  00587	68 00 00 00 00	 push	 OFFSET ??_C@_0L@HICEJOHK@DIK_DELETE@
  0058c	57		 push	 edi
  0058d	ff d6		 call	 esi

; 1469 : 	PyModule_AddIntConstant(poModule, "DIK_LWIN",        DIK_LWIN);           /* Left Windows key */

  0058f	68 db 00 00 00	 push	 219			; 000000dbH
  00594	68 00 00 00 00	 push	 OFFSET ??_C@_08MNOGKNKK@DIK_LWIN@
  00599	57		 push	 edi
  0059a	ff d6		 call	 esi

; 1470 : 	PyModule_AddIntConstant(poModule, "DIK_RWIN",        DIK_RWIN);           /* Right Windows key */

  0059c	68 dc 00 00 00	 push	 220			; 000000dcH
  005a1	68 00 00 00 00	 push	 OFFSET ??_C@_08BCDGIEEJ@DIK_RWIN@
  005a6	57		 push	 edi
  005a7	ff d6		 call	 esi

; 1471 : 	PyModule_AddIntConstant(poModule, "DIK_APPS",        DIK_APPS);           /* AppMenu key */

  005a9	68 dd 00 00 00	 push	 221			; 000000ddH
  005ae	68 00 00 00 00	 push	 OFFSET ??_C@_08EEDKKFEB@DIK_APPS@
  005b3	57		 push	 edi
  005b4	ff d6		 call	 esi

; 1472 : 
; 1473 : 	// Cursor
; 1474 : 	PyModule_AddIntConstant(poModule, "NORMAL",			CPythonApplication::CURSOR_SHAPE_NORMAL);

  005b6	6a 00		 push	 0
  005b8	68 00 00 00 00	 push	 OFFSET ??_C@_06IOJAGNKJ@NORMAL@
  005bd	57		 push	 edi
  005be	ff d6		 call	 esi

; 1475 : 	PyModule_AddIntConstant(poModule, "ATTACK",			CPythonApplication::CURSOR_SHAPE_ATTACK);

  005c0	6a 01		 push	 1
  005c2	68 00 00 00 00	 push	 OFFSET ??_C@_06JIJKOHKJ@ATTACK@
  005c7	57		 push	 edi
  005c8	ff d6		 call	 esi
  005ca	83 c4 48	 add	 esp, 72			; 00000048H

; 1476 : 	PyModule_AddIntConstant(poModule, "TARGET",			CPythonApplication::CURSOR_SHAPE_TARGET);

  005cd	6a 02		 push	 2
  005cf	68 00 00 00 00	 push	 OFFSET ??_C@_06JNJLBPLI@TARGET@
  005d4	57		 push	 edi
  005d5	ff d6		 call	 esi

; 1477 : 	PyModule_AddIntConstant(poModule, "TALK",			CPythonApplication::CURSOR_SHAPE_TALK);

  005d7	6a 03		 push	 3
  005d9	68 00 00 00 00	 push	 OFFSET ??_C@_04LNOLLMNL@TALK@
  005de	57		 push	 edi
  005df	ff d6		 call	 esi

; 1478 : 	PyModule_AddIntConstant(poModule, "CANT_GO",		CPythonApplication::CURSOR_SHAPE_CANT_GO);

  005e1	6a 04		 push	 4
  005e3	68 00 00 00 00	 push	 OFFSET ??_C@_07LGCIEODJ@CANT_GO@
  005e8	57		 push	 edi
  005e9	ff d6		 call	 esi

; 1479 : 	PyModule_AddIntConstant(poModule, "PICK",			CPythonApplication::CURSOR_SHAPE_PICK);

  005eb	6a 05		 push	 5
  005ed	68 00 00 00 00	 push	 OFFSET ??_C@_04IGIDHFMJ@PICK@
  005f2	57		 push	 edi
  005f3	ff d6		 call	 esi

; 1480 : 
; 1481 : 	PyModule_AddIntConstant(poModule, "DOOR",			CPythonApplication::CURSOR_SHAPE_DOOR);

  005f5	6a 06		 push	 6
  005f7	68 00 00 00 00	 push	 OFFSET ??_C@_04KEJCELCL@DOOR@
  005fc	57		 push	 edi
  005fd	ff d6		 call	 esi

; 1482 : 	PyModule_AddIntConstant(poModule, "CHAIR",			CPythonApplication::CURSOR_SHAPE_CHAIR);

  005ff	6a 07		 push	 7
  00601	68 00 00 00 00	 push	 OFFSET ??_C@_05HLBMIDNH@CHAIR@
  00606	57		 push	 edi
  00607	ff d6		 call	 esi
  00609	83 c4 48	 add	 esp, 72			; 00000048H

; 1483 : 	PyModule_AddIntConstant(poModule, "MAGIC",			CPythonApplication::CURSOR_SHAPE_MAGIC);

  0060c	6a 08		 push	 8
  0060e	68 00 00 00 00	 push	 OFFSET ??_C@_05DKLEPMBK@MAGIC@
  00613	57		 push	 edi
  00614	ff d6		 call	 esi

; 1484 : 	PyModule_AddIntConstant(poModule, "BUY",			CPythonApplication::CURSOR_SHAPE_BUY);

  00616	6a 09		 push	 9
  00618	68 00 00 00 00	 push	 OFFSET ??_C@_03OOKILKBD@BUY@
  0061d	57		 push	 edi
  0061e	ff d6		 call	 esi

; 1485 : 	PyModule_AddIntConstant(poModule, "SELL",			CPythonApplication::CURSOR_SHAPE_SELL);

  00620	6a 0a		 push	 10			; 0000000aH
  00622	68 00 00 00 00	 push	 OFFSET ??_C@_04MPOIGBFL@SELL@
  00627	57		 push	 edi
  00628	ff d6		 call	 esi

; 1486 : 
; 1487 : 	PyModule_AddIntConstant(poModule, "CAMERA_ROTATE",	CPythonApplication::CURSOR_SHAPE_CAMERA_ROTATE);

  0062a	6a 0b		 push	 11			; 0000000bH
  0062c	68 00 00 00 00	 push	 OFFSET ??_C@_0O@MAJOJEIM@CAMERA_ROTATE@
  00631	57		 push	 edi
  00632	ff d6		 call	 esi

; 1488 : 	PyModule_AddIntConstant(poModule, "HSIZE",			CPythonApplication::CURSOR_SHAPE_HSIZE);

  00634	6a 0c		 push	 12			; 0000000cH
  00636	68 00 00 00 00	 push	 OFFSET ??_C@_05NILMGENH@HSIZE@
  0063b	57		 push	 edi
  0063c	ff d6		 call	 esi

; 1489 : 	PyModule_AddIntConstant(poModule, "VSIZE",			CPythonApplication::CURSOR_SHAPE_VSIZE);

  0063e	6a 0d		 push	 13			; 0000000dH
  00640	68 00 00 00 00	 push	 OFFSET ??_C@_05OBGAAHDM@VSIZE@
  00645	57		 push	 edi
  00646	ff d6		 call	 esi
  00648	83 c4 48	 add	 esp, 72			; 00000048H

; 1490 : 	PyModule_AddIntConstant(poModule, "HVSIZE",			CPythonApplication::CURSOR_SHAPE_HVSIZE);

  0064b	6a 0e		 push	 14			; 0000000eH
  0064d	68 00 00 00 00	 push	 OFFSET ??_C@_06LKCKECPP@HVSIZE@
  00652	57		 push	 edi
  00653	ff d6		 call	 esi

; 1491 : 
; 1492 : 	PyModule_AddIntConstant(poModule, "CAMERA_TO_POSITIVE",		CPythonApplication::CAMERA_TO_POSITIVE);

  00655	6a 01		 push	 1
  00657	68 00 00 00 00	 push	 OFFSET ??_C@_0BD@BFBNCJCC@CAMERA_TO_POSITIVE@
  0065c	57		 push	 edi
  0065d	ff d6		 call	 esi

; 1493 : 	PyModule_AddIntConstant(poModule, "CAMERA_TO_NEGATIVE",		CPythonApplication::CAMERA_TO_NEGITIVE);

  0065f	6a ff		 push	 -1
  00661	68 00 00 00 00	 push	 OFFSET ??_C@_0BD@JPBNJGLJ@CAMERA_TO_NEGATIVE@
  00666	57		 push	 edi
  00667	ff d6		 call	 esi

; 1494 : 	PyModule_AddIntConstant(poModule, "CAMERA_STOP",			CPythonApplication::CAMERA_STOP);

  00669	6a 00		 push	 0
  0066b	68 00 00 00 00	 push	 OFFSET ??_C@_0M@NJFGNKPE@CAMERA_STOP@
  00670	57		 push	 edi
  00671	ff d6		 call	 esi

; 1495 : 
; 1496 : #ifdef ENABLE_COSTUME_SYSTEM
; 1497 : 	PyModule_AddIntConstant(poModule, "ENABLE_COSTUME_SYSTEM",	1);

  00673	6a 01		 push	 1
  00675	68 00 00 00 00	 push	 OFFSET ??_C@_0BG@NNONEOJP@ENABLE_COSTUME_SYSTEM@
  0067a	57		 push	 edi
  0067b	ff d6		 call	 esi

; 1498 : #else
; 1499 : 	PyModule_AddIntConstant(poModule, "ENABLE_COSTUME_SYSTEM",	0);
; 1500 : #endif
; 1501 : 
; 1502 : #ifdef ENABLE_ENERGY_SYSTEM
; 1503 : 	PyModule_AddIntConstant(poModule, "ENABLE_ENERGY_SYSTEM",	1);

  0067d	6a 01		 push	 1
  0067f	68 00 00 00 00	 push	 OFFSET ??_C@_0BF@JNPGDOCA@ENABLE_ENERGY_SYSTEM@
  00684	57		 push	 edi
  00685	ff d6		 call	 esi
  00687	83 c4 48	 add	 esp, 72			; 00000048H

; 1504 : #else
; 1505 : 	PyModule_AddIntConstant(poModule, "ENABLE_ENERGY_SYSTEM",	0);
; 1506 : #endif
; 1507 : 
; 1508 : #ifdef ENABLE_DRAGON_SOUL_SYSTEM
; 1509 : 	PyModule_AddIntConstant(poModule, "ENABLE_DRAGON_SOUL_SYSTEM",	1);
; 1510 : #else
; 1511 : 	PyModule_AddIntConstant(poModule, "ENABLE_DRAGON_SOUL_SYSTEM",	0);

  0068a	6a 00		 push	 0
  0068c	68 00 00 00 00	 push	 OFFSET ??_C@_0BK@MHKPDOOB@ENABLE_DRAGON_SOUL_SYSTEM@
  00691	57		 push	 edi
  00692	ff d6		 call	 esi

; 1512 : #endif
; 1513 : 
; 1514 : #ifdef ENABLE_NEW_EQUIPMENT_SYSTEM
; 1515 : 	PyModule_AddIntConstant(poModule, "ENABLE_NEW_EQUIPMENT_SYSTEM",	1);

  00694	6a 01		 push	 1
  00696	68 00 00 00 00	 push	 OFFSET ??_C@_0BM@LNFCINHP@ENABLE_NEW_EQUIPMENT_SYSTEM@
  0069b	57		 push	 edi
  0069c	ff d6		 call	 esi

; 1516 : #else
; 1517 : 	PyModule_AddIntConstant(poModule, "ENABLE_NEW_EQUIPMENT_SYSTEM",	0);
; 1518 : #endif
; 1519 : 
; 1520 : #ifdef USE_OPENID
; 1521 : 	PyModule_AddIntConstant(poModule, "USE_OPENID",	1);
; 1522 : 	if (openid_test)
; 1523 : 		PyModule_AddIntConstant(poModule, "OPENID_TEST",	1);
; 1524 : 	else
; 1525 : 		PyModule_AddIntConstant(poModule, "OPENID_TEST",	0);
; 1526 : #else
; 1527 : 	PyModule_AddIntConstant(poModule, "USE_OPENID",	0);

  0069e	6a 00		 push	 0
  006a0	68 00 00 00 00	 push	 OFFSET ??_C@_0L@GJPKGMAC@USE_OPENID@
  006a5	57		 push	 edi
  006a6	ff d6		 call	 esi

; 1528 : 	PyModule_AddIntConstant(poModule, "OPENID_TEST",	0);

  006a8	6a 00		 push	 0
  006aa	68 00 00 00 00	 push	 OFFSET ??_C@_0M@HKJKCDHH@OPENID_TEST@
  006af	57		 push	 edi
  006b0	ff d6		 call	 esi
  006b2	83 c4 30	 add	 esp, 48			; 00000030H
  006b5	5f		 pop	 edi
  006b6	5e		 pop	 esi

; 1529 : #endif /* USE_OPENID */
; 1530 : }

  006b7	c3		 ret	 0
?initapp@@YAXXZ ENDP					; initapp
_TEXT	ENDS
; Function compile flags: /Ogtp
; File C:\Program Files (x86)\Microsoft Visual Studio\2019\Community\VC\Tools\MSVC\14.28.29333\include\xstring
; File C:\Program Files (x86)\Microsoft Visual Studio\2019\Community\VC\Tools\MSVC\14.28.29333\include\xmemory
; File C:\Program Files (x86)\Microsoft Visual Studio\2019\Community\VC\Tools\MSVC\14.28.29333\include\xstring
;	COMDAT ??1?$basic_string@DU?$char_traits@D@std@@V?$allocator@D@2@@std@@QAE@XZ
_TEXT	SEGMENT
??1?$basic_string@DU?$char_traits@D@std@@V?$allocator@D@2@@std@@QAE@XZ PROC ; std::basic_string<char,std::char_traits<char>,std::allocator<char> >::~basic_string<char,std::char_traits<char>,std::allocator<char> >, COMDAT
; _this$ = ecx

; 2800 :     ~basic_string() noexcept {

  00000	56		 push	 esi
  00001	8b f1		 mov	 esi, ecx

; 2227 :         return _BUF_SIZE <= _Myres;

  00003	8b 46 14	 mov	 eax, DWORD PTR [esi+20]
  00006	83 f8 10	 cmp	 eax, 16			; 00000010H

; 4385 :         if (_Mypair._Myval2._Large_string_engaged()) {

  00009	72 0c		 jb	 SHORT $LN4@basic_stri

; 4386 :             const pointer _Ptr = _Mypair._Myval2._Bx._Ptr;
; 4387 :             auto& _Al          = _Getal();
; 4388 :             _Destroy_in_place(_Mypair._Myval2._Bx._Ptr);
; 4389 :             _Al.deallocate(_Ptr, _Mypair._Myval2._Myres + 1);

  0000b	40		 inc	 eax
; File C:\Program Files (x86)\Microsoft Visual Studio\2019\Community\VC\Tools\MSVC\14.28.29333\include\xmemory

; 810  :         _Deallocate<_New_alignof<_Ty>>(_Ptr, sizeof(_Ty) * _Count);

  0000c	50		 push	 eax
  0000d	ff 36		 push	 DWORD PTR [esi]
  0000f	e8 00 00 00 00	 call	 ??$_Deallocate@$07$0A@@std@@YAXPAXI@Z ; std::_Deallocate<8,0>
  00014	83 c4 08	 add	 esp, 8
$LN4@basic_stri:
; File C:\Program Files (x86)\Microsoft Visual Studio\2019\Community\VC\Tools\MSVC\14.28.29333\include\xstring

; 4392 :         _Mypair._Myval2._Mysize = 0;

  00017	c7 46 10 00 00
	00 00		 mov	 DWORD PTR [esi+16], 0

; 4393 :         _Mypair._Myval2._Myres  = _BUF_SIZE - 1;

  0001e	c7 46 14 0f 00
	00 00		 mov	 DWORD PTR [esi+20], 15	; 0000000fH

; 4394 :         // the _Traits::assign is last so the codegen doesn't think the char write can alias this
; 4395 :         _Traits::assign(_Mypair._Myval2._Bx._Buf[0], _Elem());

  00025	c6 06 00	 mov	 BYTE PTR [esi], 0
  00028	5e		 pop	 esi

; 2801 :         _Tidy_deallocate();
; 2802 : #if _ITERATOR_DEBUG_LEVEL != 0
; 2803 :         auto&& _Alproxy          = _GET_PROXY_ALLOCATOR(_Alty, _Getal());
; 2804 :         const auto _To_delete    = _Mypair._Myval2._Myproxy;
; 2805 :         _Mypair._Myval2._Myproxy = nullptr;
; 2806 :         _Delete_plain_internal(_Alproxy, _To_delete);
; 2807 : #endif // _ITERATOR_DEBUG_LEVEL != 0
; 2808 :     }

  00029	c3		 ret	 0
??1?$basic_string@DU?$char_traits@D@std@@V?$allocator@D@2@@std@@QAE@XZ ENDP ; std::basic_string<char,std::char_traits<char>,std::allocator<char> >::~basic_string<char,std::char_traits<char>,std::allocator<char> >
_TEXT	ENDS
; Function compile flags: /Ogtp
; File D:\Metin2 Server Files\mainline\SRC_2014\Metin2Client\UserInterface\PythonApplicationModule.cpp
;	COMDAT ?__empty_global_delete@@YAXPAXI@Z
_TEXT	SEGMENT
___formal$ = 8						; size = 4
___formal$ = 12						; size = 4
?__empty_global_delete@@YAXPAXI@Z PROC			; __empty_global_delete, COMDAT

  00000	c2 00 00	 ret	 0
?__empty_global_delete@@YAXPAXI@Z ENDP			; __empty_global_delete
_TEXT	ENDS
; Function compile flags: /Ogtp
; File D:\Metin2 Server Files\mainline\SRC_2014\Metin2Client\UserInterface\PythonApplicationModule.cpp
;	COMDAT ?__empty_global_delete@@YAXPAX@Z
_TEXT	SEGMENT
___formal$ = 8						; size = 4
?__empty_global_delete@@YAXPAX@Z PROC			; __empty_global_delete, COMDAT

  00000	c2 00 00	 ret	 0
?__empty_global_delete@@YAXPAX@Z ENDP			; __empty_global_delete
_TEXT	ENDS
; Function compile flags: /Ogtp
;	COMDAT ??_H@YGXPAXIIP6EPAX0@Z@Z
_TEXT	SEGMENT
___t$ = 8						; size = 4
___s$ = 12						; size = 4
___n$ = 16						; size = 4
___f$ = 20						; size = 4
??_H@YGXPAXIIP6EPAX0@Z@Z PROC				; `vector constructor iterator', COMDAT
  00000	55		 push	 ebp
  00001	8b ec		 mov	 ebp, esp
  00003	56		 push	 esi
  00004	8b 75 10	 mov	 esi, DWORD PTR ___n$[ebp]
  00007	85 f6		 test	 esi, esi
  00009	74 16		 je	 SHORT $LN6@vector
  0000b	53		 push	 ebx
  0000c	8b 5d 14	 mov	 ebx, DWORD PTR ___f$[ebp]
  0000f	57		 push	 edi
  00010	8b 7d 08	 mov	 edi, DWORD PTR ___t$[ebp]
$LL2@vector:
  00013	8b cf		 mov	 ecx, edi
  00015	ff d3		 call	 ebx
  00017	03 7d 0c	 add	 edi, DWORD PTR ___s$[ebp]
  0001a	83 ee 01	 sub	 esi, 1
  0001d	75 f4		 jne	 SHORT $LL2@vector
  0001f	5f		 pop	 edi
  00020	5b		 pop	 ebx
$LN6@vector:
  00021	5e		 pop	 esi
  00022	5d		 pop	 ebp
  00023	c2 10 00	 ret	 16			; 00000010H
??_H@YGXPAXIIP6EPAX0@Z@Z ENDP				; `vector constructor iterator'
_TEXT	ENDS
END
