; Listing generated by Microsoft (R) Optimizing Compiler Version 19.28.29335.0 

	TITLE	D:\Metin2 Server Files\mainline\SRC_2014\Metin2Client\UserInterface\PythonNetworkStreamModule.cpp
	.686P
	.XMM
	include listing.inc
	.model	flat

INCLUDELIB LIBCMT
INCLUDELIB OLDNAMES

PUBLIC	??_H@YGXPAXIIP6EPAX0@Z@Z			; `vector constructor iterator'
PUBLIC	??0exception@std@@QAE@ABV01@@Z			; std::exception::exception
PUBLIC	??1exception@std@@UAE@XZ			; std::exception::~exception
PUBLIC	?what@exception@std@@UBEPBDXZ			; std::exception::what
PUBLIC	??_Gexception@std@@UAEPAXI@Z			; std::exception::`scalar deleting destructor'
PUBLIC	??0bad_alloc@std@@QAE@ABV01@@Z			; std::bad_alloc::bad_alloc
PUBLIC	??_Gbad_alloc@std@@UAEPAXI@Z			; std::bad_alloc::`scalar deleting destructor'
PUBLIC	??0bad_array_new_length@std@@QAE@XZ		; std::bad_array_new_length::bad_array_new_length
PUBLIC	??1bad_array_new_length@std@@UAE@XZ		; std::bad_array_new_length::~bad_array_new_length
PUBLIC	??0bad_array_new_length@std@@QAE@ABV01@@Z	; std::bad_array_new_length::bad_array_new_length
PUBLIC	??_Gbad_array_new_length@std@@UAEPAXI@Z		; std::bad_array_new_length::`scalar deleting destructor'
PUBLIC	?_Throw_bad_array_new_length@std@@YAXXZ		; std::_Throw_bad_array_new_length
PUBLIC	?_Xlen_string@std@@YAXXZ			; std::_Xlen_string
PUBLIC	??0?$basic_string@DU?$char_traits@D@std@@V?$allocator@D@2@@std@@QAE@ABV01@@Z ; std::basic_string<char,std::char_traits<char>,std::allocator<char> >::basic_string<char,std::char_traits<char>,std::allocator<char> >
PUBLIC	??1?$basic_string@DU?$char_traits@D@std@@V?$allocator@D@2@@std@@QAE@XZ ; std::basic_string<char,std::char_traits<char>,std::allocator<char> >::~basic_string<char,std::char_traits<char>,std::allocator<char> >
PUBLIC	?assign@?$basic_string@DU?$char_traits@D@std@@V?$allocator@D@2@@std@@QAEAAV12@QBDI@Z ; std::basic_string<char,std::char_traits<char>,std::allocator<char> >::assign
PUBLIC	??1?$vector@KV?$allocator@K@std@@@std@@QAE@XZ	; std::vector<unsigned long,std::allocator<unsigned long> >::~vector<unsigned long,std::allocator<unsigned long> >
PUBLIC	?_Xlength@?$vector@KV?$allocator@K@std@@@std@@CAXXZ ; std::vector<unsigned long,std::allocator<unsigned long> >::_Xlength
PUBLIC	??0SItemPos@@QAE@XZ				; SItemPos::SItemPos
PUBLIC	?initnet@@YAXXZ					; initnet
PUBLIC	??$_Destroy_in_place@PAD@std@@YAXAAPAD@Z	; std::_Destroy_in_place<char *>
PUBLIC	??$_Construct_in_place@PADABQAD@std@@YAXAAPADABQAD@Z ; std::_Construct_in_place<char *,char * const &>
PUBLIC	??$_Deallocate@$07$0A@@std@@YAXPAXI@Z		; std::_Deallocate<8,0>
PUBLIC	??$_Allocate@$07U_Default_allocate_traits@std@@$0A@@std@@YAPAXI@Z ; std::_Allocate<8,std::_Default_allocate_traits,0>
PUBLIC	??$_Allocate_manually_vector_aligned@U_Default_allocate_traits@std@@@std@@YAPAXI@Z ; std::_Allocate_manually_vector_aligned<std::_Default_allocate_traits>
PUBLIC	?netGetBettingGuildWarValue@@YAPAU_object@@PAU1@0@Z ; netGetBettingGuildWarValue
PUBLIC	?netSetServerInfo@@YAPAU_object@@PAU1@0@Z	; netSetServerInfo
PUBLIC	?netGetServerInfo@@YAPAU_object@@PAU1@0@Z	; netGetServerInfo
PUBLIC	?netPreserveServerCommand@@YAPAU_object@@PAU1@0@Z ; netPreserveServerCommand
PUBLIC	?netGetPreservedServerCommand@@YAPAU_object@@PAU1@0@Z ; netGetPreservedServerCommand
PUBLIC	?netStartGame@@YAPAU_object@@PAU1@0@Z		; netStartGame
PUBLIC	?netIsTest@@YAPAU_object@@PAU1@0@Z		; netIsTest
PUBLIC	?netWarp@@YAPAU_object@@PAU1@0@Z		; netWarp
PUBLIC	?netLoadInsultList@@YAPAU_object@@PAU1@0@Z	; netLoadInsultList
PUBLIC	?netUploadMark@@YAPAU_object@@PAU1@0@Z		; netUploadMark
PUBLIC	?netUploadSymbol@@YAPAU_object@@PAU1@0@Z	; netUploadSymbol
PUBLIC	?netGetGuildID@@YAPAU_object@@PAU1@0@Z		; netGetGuildID
PUBLIC	?netGetEmpireID@@YAPAU_object@@PAU1@0@Z		; netGetEmpireID
PUBLIC	?netGetMainActorVID@@YAPAU_object@@PAU1@0@Z	; netGetMainActorVID
PUBLIC	?netGetMainActorRace@@YAPAU_object@@PAU1@0@Z	; netGetMainActorRace
PUBLIC	?netGetMainActorEmpire@@YAPAU_object@@PAU1@0@Z	; netGetMainActorEmpire
PUBLIC	?netGetMainActorSkillGroup@@YAPAU_object@@PAU1@0@Z ; netGetMainActorSkillGroup
PUBLIC	?netIsSelectedEmpire@@YAPAU_object@@PAU1@0@Z	; netIsSelectedEmpire
PUBLIC	?netGetAccountCharacterSlotDataInteger@@YAPAU_object@@PAU1@0@Z ; netGetAccountCharacterSlotDataInteger
PUBLIC	?netGetAccountCharacterSlotDataString@@YAPAU_object@@PAU1@0@Z ; netGetAccountCharacterSlotDataString
PUBLIC	?netGetFieldMusicFileName@@YAPAU_object@@PAU1@0@Z ; netGetFieldMusicFileName
PUBLIC	?netGetFieldMusicVolume@@YAPAU_object@@PAU1@0@Z	; netGetFieldMusicVolume
PUBLIC	?netSetPhaseWindow@@YAPAU_object@@PAU1@0@Z	; netSetPhaseWindow
PUBLIC	?netClearPhaseWindow@@YAPAU_object@@PAU1@0@Z	; netClearPhaseWindow
PUBLIC	?netSetServerCommandParserWindow@@YAPAU_object@@PAU1@0@Z ; netSetServerCommandParserWindow
PUBLIC	?netSetAccountConnectorHandler@@YAPAU_object@@PAU1@0@Z ; netSetAccountConnectorHandler
PUBLIC	?netSetHandler@@YAPAU_object@@PAU1@0@Z		; netSetHandler
PUBLIC	?netSetTCPRecvBufferSize@@YAPAU_object@@PAU1@0@Z ; netSetTCPRecvBufferSize
PUBLIC	?netSetTCPSendBufferSize@@YAPAU_object@@PAU1@0@Z ; netSetTCPSendBufferSize
PUBLIC	?netSetUDPRecvBufferSize@@YAPAU_object@@PAU1@0@Z ; netSetUDPRecvBufferSize
PUBLIC	?netSetMarkServer@@YAPAU_object@@PAU1@0@Z	; netSetMarkServer
PUBLIC	?netConnectTCP@@YAPAU_object@@PAU1@0@Z		; netConnectTCP
PUBLIC	?netConnectUDP@@YAPAU_object@@PAU1@0@Z		; netConnectUDP
PUBLIC	?netConnectToAccountServer@@YAPAU_object@@PAU1@0@Z ; netConnectToAccountServer
PUBLIC	?netSetLoginInfo@@YAPAU_object@@PAU1@0@Z	; netSetLoginInfo
PUBLIC	?netSetOfflinePhase@@YAPAU_object@@PAU1@0@Z	; netSetOfflinePhase
PUBLIC	?netSendSelectEmpirePacket@@YAPAU_object@@PAU1@0@Z ; netSendSelectEmpirePacket
PUBLIC	?netSendLoginPacket@@YAPAU_object@@PAU1@0@Z	; netSendLoginPacket
PUBLIC	?netSendChinaMatrixCardPacket@@YAPAU_object@@PAU1@0@Z ; netSendChinaMatrixCardPacket
PUBLIC	?netSendRunupMatrixCardPacket@@YAPAU_object@@PAU1@0@Z ; netSendRunupMatrixCardPacket
PUBLIC	?netSendNEWCIBNPasspodAnswerPacket@@YAPAU_object@@PAU1@0@Z ; netSendNEWCIBNPasspodAnswerPacket
PUBLIC	?netDirectEnter@@YAPAU_object@@PAU1@0@Z		; netDirectEnter
PUBLIC	?netSendSelectCharacterPacket@@YAPAU_object@@PAU1@0@Z ; netSendSelectCharacterPacket
PUBLIC	?netSendChangeNamePacket@@YAPAU_object@@PAU1@0@Z ; netSendChangeNamePacket
PUBLIC	?netEnableChatInsultFilter@@YAPAU_object@@PAU1@0@Z ; netEnableChatInsultFilter
PUBLIC	?netIsChatInsultIn@@YAPAU_object@@PAU1@0@Z	; netIsChatInsultIn
PUBLIC	?netIsInsultIn@@YAPAU_object@@PAU1@0@Z		; netIsInsultIn
PUBLIC	?netSendWhisperPacket@@YAPAU_object@@PAU1@0@Z	; netSendWhisperPacket
PUBLIC	?netSendMobileMessagePacket@@YAPAU_object@@PAU1@0@Z ; netSendMobileMessagePacket
PUBLIC	?netSendCharacterPositionPacket@@YAPAU_object@@PAU1@0@Z ; netSendCharacterPositionPacket
PUBLIC	?netSendChatPacket@@YAPAU_object@@PAU1@0@Z	; netSendChatPacket
PUBLIC	?netSendEmoticon@@YAPAU_object@@PAU1@0@Z	; netSendEmoticon
PUBLIC	?netSendCreateCharacterPacket@@YAPAU_object@@PAU1@0@Z ; netSendCreateCharacterPacket
PUBLIC	?netSendDestroyCharacterPacket@@YAPAU_object@@PAU1@0@Z ; netSendDestroyCharacterPacket
PUBLIC	?netSendEnterGamePacket@@YAPAU_object@@PAU1@0@Z	; netSendEnterGamePacket
PUBLIC	?netOnClickPacket@@YAPAU_object@@PAU1@0@Z	; netOnClickPacket
PUBLIC	?netSendItemUsePacket@@YAPAU_object@@PAU1@0@Z	; netSendItemUsePacket
PUBLIC	?netSendItemUseToItemPacket@@YAPAU_object@@PAU1@0@Z ; netSendItemUseToItemPacket
PUBLIC	?netSendItemDropPacket@@YAPAU_object@@PAU1@0@Z	; netSendItemDropPacket
PUBLIC	?netSendItemDropPacketNew@@YAPAU_object@@PAU1@0@Z ; netSendItemDropPacketNew
PUBLIC	?netSendElkDropPacket@@YAPAU_object@@PAU1@0@Z	; netSendElkDropPacket
PUBLIC	?netSendGoldDropPacketNew@@YAPAU_object@@PAU1@0@Z ; netSendGoldDropPacketNew
PUBLIC	?netSendItemMovePacket@@YAPAU_object@@PAU1@0@Z	; netSendItemMovePacket
PUBLIC	?netSendItemPickUpPacket@@YAPAU_object@@PAU1@0@Z ; netSendItemPickUpPacket
PUBLIC	?netSendGiveItemPacket@@YAPAU_object@@PAU1@0@Z	; netSendGiveItemPacket
PUBLIC	?netSendShopEndPacket@@YAPAU_object@@PAU1@0@Z	; netSendShopEndPacket
PUBLIC	?netSendShopBuyPacket@@YAPAU_object@@PAU1@0@Z	; netSendShopBuyPacket
PUBLIC	?netSendShopSellPacket@@YAPAU_object@@PAU1@0@Z	; netSendShopSellPacket
PUBLIC	?netSendShopSellPacketNew@@YAPAU_object@@PAU1@0@Z ; netSendShopSellPacketNew
PUBLIC	?netSendExchangeStartPacket@@YAPAU_object@@PAU1@0@Z ; netSendExchangeStartPacket
PUBLIC	?netSendExchangeElkAddPacket@@YAPAU_object@@PAU1@0@Z ; netSendExchangeElkAddPacket
PUBLIC	?netSendExchangeItemAddPacket@@YAPAU_object@@PAU1@0@Z ; netSendExchangeItemAddPacket
PUBLIC	?netSendExchangeItemDelPacket@@YAPAU_object@@PAU1@0@Z ; netSendExchangeItemDelPacket
PUBLIC	?netSendExchangeAcceptPacket@@YAPAU_object@@PAU1@0@Z ; netSendExchangeAcceptPacket
PUBLIC	?netSendExchangeExitPacket@@YAPAU_object@@PAU1@0@Z ; netSendExchangeExitPacket
PUBLIC	?netExitApplication@@YAPAU_object@@PAU1@0@Z	; netExitApplication
PUBLIC	?netExitGame@@YAPAU_object@@PAU1@0@Z		; netExitGame
PUBLIC	?netLogOutGame@@YAPAU_object@@PAU1@0@Z		; netLogOutGame
PUBLIC	?netDisconnect@@YAPAU_object@@PAU1@0@Z		; netDisconnect
PUBLIC	?netIsConnect@@YAPAU_object@@PAU1@0@Z		; netIsConnect
PUBLIC	?netToggleGameDebugInfo@@YAPAU_object@@PAU1@0@Z	; netToggleGameDebugInfo
PUBLIC	?netRegisterEmoticonString@@YAPAU_object@@PAU1@0@Z ; netRegisterEmoticonString
PUBLIC	?netSendMessengerAddByVIDPacket@@YAPAU_object@@PAU1@0@Z ; netSendMessengerAddByVIDPacket
PUBLIC	?netSendMessengerAddByNamePacket@@YAPAU_object@@PAU1@0@Z ; netSendMessengerAddByNamePacket
PUBLIC	?netSendMessengerRemovePacket@@YAPAU_object@@PAU1@0@Z ; netSendMessengerRemovePacket
PUBLIC	?netSendPartyInvitePacket@@YAPAU_object@@PAU1@0@Z ; netSendPartyInvitePacket
PUBLIC	?netSendPartyInviteAnswerPacket@@YAPAU_object@@PAU1@0@Z ; netSendPartyInviteAnswerPacket
PUBLIC	?netSendPartyExitPacket@@YAPAU_object@@PAU1@0@Z	; netSendPartyExitPacket
PUBLIC	?netSendPartyRemovePacket@@YAPAU_object@@PAU1@0@Z ; netSendPartyRemovePacket
PUBLIC	?netSendPartySetStatePacket@@YAPAU_object@@PAU1@0@Z ; netSendPartySetStatePacket
PUBLIC	?netSendPartyUseSkillPacket@@YAPAU_object@@PAU1@0@Z ; netSendPartyUseSkillPacket
PUBLIC	?netSendPartyParameterPacket@@YAPAU_object@@PAU1@0@Z ; netSendPartyParameterPacket
PUBLIC	?netSendSafeboxSaveMoneyPacket@@YAPAU_object@@PAU1@0@Z ; netSendSafeboxSaveMoneyPacket
PUBLIC	?netSendSafeboxWithdrawMoneyPacket@@YAPAU_object@@PAU1@0@Z ; netSendSafeboxWithdrawMoneyPacket
PUBLIC	?netSendSafeboxCheckinPacket@@YAPAU_object@@PAU1@0@Z ; netSendSafeboxCheckinPacket
PUBLIC	?netSendSafeboxCheckoutPacket@@YAPAU_object@@PAU1@0@Z ; netSendSafeboxCheckoutPacket
PUBLIC	?netSendSafeboxItemMovePacket@@YAPAU_object@@PAU1@0@Z ; netSendSafeboxItemMovePacket
PUBLIC	?netSendMallCheckoutPacket@@YAPAU_object@@PAU1@0@Z ; netSendMallCheckoutPacket
PUBLIC	?netSendAnswerMakeGuildPacket@@YAPAU_object@@PAU1@0@Z ; netSendAnswerMakeGuildPacket
PUBLIC	?netSendQuestInputStringPacket@@YAPAU_object@@PAU1@0@Z ; netSendQuestInputStringPacket
PUBLIC	?netSendQuestConfirmPacket@@YAPAU_object@@PAU1@0@Z ; netSendQuestConfirmPacket
PUBLIC	?netSendGuildAddMemberPacket@@YAPAU_object@@PAU1@0@Z ; netSendGuildAddMemberPacket
PUBLIC	?netSendGuildRemoveMemberPacket@@YAPAU_object@@PAU1@0@Z ; netSendGuildRemoveMemberPacket
PUBLIC	?netSendGuildChangeGradeNamePacket@@YAPAU_object@@PAU1@0@Z ; netSendGuildChangeGradeNamePacket
PUBLIC	?netSendGuildChangeGradeAuthorityPacket@@YAPAU_object@@PAU1@0@Z ; netSendGuildChangeGradeAuthorityPacket
PUBLIC	?netSendGuildOfferPacket@@YAPAU_object@@PAU1@0@Z ; netSendGuildOfferPacket
PUBLIC	?netSnedGuildPostCommentPacket@@YAPAU_object@@PAU1@0@Z ; netSnedGuildPostCommentPacket
PUBLIC	?netSnedGuildDeleteCommentPacket@@YAPAU_object@@PAU1@0@Z ; netSnedGuildDeleteCommentPacket
PUBLIC	?netSendGuildRefreshCommentsPacket@@YAPAU_object@@PAU1@0@Z ; netSendGuildRefreshCommentsPacket
PUBLIC	?netSendGuildChangeMemberGradePacket@@YAPAU_object@@PAU1@0@Z ; netSendGuildChangeMemberGradePacket
PUBLIC	?netSendGuildUseSkillPacket@@YAPAU_object@@PAU1@0@Z ; netSendGuildUseSkillPacket
PUBLIC	?netSendGuildChangeMemberGeneralPacket@@YAPAU_object@@PAU1@0@Z ; netSendGuildChangeMemberGeneralPacket
PUBLIC	?netSendGuildInviteAnswerPacket@@YAPAU_object@@PAU1@0@Z ; netSendGuildInviteAnswerPacket
PUBLIC	?netSendGuildChargeGSPPacket@@YAPAU_object@@PAU1@0@Z ; netSendGuildChargeGSPPacket
PUBLIC	?netSendGuildDepositMoneyPacket@@YAPAU_object@@PAU1@0@Z ; netSendGuildDepositMoneyPacket
PUBLIC	?netSendGuildWithdrawMoneyPacket@@YAPAU_object@@PAU1@0@Z ; netSendGuildWithdrawMoneyPacket
PUBLIC	?netSendRequestRefineInfoPacket@@YAPAU_object@@PAU1@0@Z ; netSendRequestRefineInfoPacket
PUBLIC	?netSendRefinePacket@@YAPAU_object@@PAU1@0@Z	; netSendRefinePacket
PUBLIC	?netSendSelectItemPacket@@YAPAU_object@@PAU1@0@Z ; netSendSelectItemPacket
PUBLIC	?netSetPacketSequenceMode@@YAPAU_object@@PAU1@0@Z ; netSetPacketSequenceMode
PUBLIC	?netSetEmpireLanguageMode@@YAPAU_object@@PAU1@0@Z ; netSetEmpireLanguageMode
PUBLIC	?netSetSkillGroupFake@@YAPAU_object@@PAU1@0@Z	; netSetSkillGroupFake
PUBLIC	?netSendGuildSymbol@@YAPAU_object@@PAU1@0@Z	; netSendGuildSymbol
PUBLIC	?netDisconnectUploader@@YAPAU_object@@PAU1@0@Z	; netDisconnectUploader
PUBLIC	?netRecvGuildSymbol@@YAPAU_object@@PAU1@0@Z	; netRecvGuildSymbol
PUBLIC	?netRegisterErrorLog@@YAPAU_object@@PAU1@0@Z	; netRegisterErrorLog
PUBLIC	??$_Emplace_reallocate@ABK@?$vector@KV?$allocator@K@std@@@std@@QAEPAKQAKABK@Z ; std::vector<unsigned long,std::allocator<unsigned long> >::_Emplace_reallocate<unsigned long const &>
PUBLIC	??$_Construct_in_place@PAU?$_List_node@V?$basic_string@DU?$char_traits@D@std@@V?$allocator@D@2@@std@@PAX@std@@AAPAU12@@std@@YAXAAPAU?$_List_node@V?$basic_string@DU?$char_traits@D@std@@V?$allocator@D@2@@std@@PAX@0@0@Z ; std::_Construct_in_place<std::_List_node<std::basic_string<char,std::char_traits<char>,std::allocator<char> >,void *> *,std::_List_node<std::basic_string<char,std::char_traits<char>,std::allocator<char> >,void *> * &>
PUBLIC	??$_Destroy_range@V?$allocator@K@std@@@std@@YAXPAKQAKAAV?$allocator@K@0@@Z ; std::_Destroy_range<std::allocator<unsigned long> >
PUBLIC	??1?$_Alloc_construct_ptr@V?$allocator@U?$_List_node@V?$basic_string@DU?$char_traits@D@std@@V?$allocator@D@2@@std@@PAX@std@@@std@@@std@@QAE@XZ ; std::_Alloc_construct_ptr<std::allocator<std::_List_node<std::basic_string<char,std::char_traits<char>,std::allocator<char> >,void *> > >::~_Alloc_construct_ptr<std::allocator<std::_List_node<std::basic_string<char,std::char_traits<char>,std::allocator<char> >,void *> > >
PUBLIC	??$_Destroy_in_place@PAU?$_List_node@V?$basic_string@DU?$char_traits@D@std@@V?$allocator@D@2@@std@@PAX@std@@@std@@YAXAAPAU?$_List_node@V?$basic_string@DU?$char_traits@D@std@@V?$allocator@D@2@@std@@PAX@0@@Z ; std::_Destroy_in_place<std::_List_node<std::basic_string<char,std::char_traits<char>,std::allocator<char> >,void *> *>
PUBLIC	??$_Construct_in_place@PAU?$_List_node@V?$basic_string@DU?$char_traits@D@std@@V?$allocator@D@2@@std@@PAX@std@@ABQAU12@@std@@YAXAAPAU?$_List_node@V?$basic_string@DU?$char_traits@D@std@@V?$allocator@D@2@@std@@PAX@0@ABQAU10@@Z ; std::_Construct_in_place<std::_List_node<std::basic_string<char,std::char_traits<char>,std::allocator<char> >,void *> *,std::_List_node<std::basic_string<char,std::char_traits<char>,std::allocator<char> >,void *> * const &>
PUBLIC	??$_Uninitialized_move@PAKV?$allocator@K@std@@@std@@YAPAKQAK0PAKAAV?$allocator@K@0@@Z ; std::_Uninitialized_move<unsigned long *,std::allocator<unsigned long> >
PUBLIC	??$_Copy_memmove@PAKPAK@std@@YAPAKPAK00@Z	; std::_Copy_memmove<unsigned long *,unsigned long *>
PUBLIC	??_7exception@std@@6B@				; std::exception::`vftable'
PUBLIC	??_C@_0BC@EOODALEL@Unknown?5exception@		; `string'
PUBLIC	??_7bad_alloc@std@@6B@				; std::bad_alloc::`vftable'
PUBLIC	??_7bad_array_new_length@std@@6B@		; std::bad_array_new_length::`vftable'
PUBLIC	??_C@_0BF@KINCDENJ@bad?5array?5new?5length@	; `string'
PUBLIC	__TI3?AVbad_array_new_length@std@@
PUBLIC	__CTA3?AVbad_array_new_length@std@@
PUBLIC	??_R0?AVbad_array_new_length@std@@@8		; std::bad_array_new_length `RTTI Type Descriptor'
PUBLIC	__CT??_R0?AVbad_array_new_length@std@@@8??0bad_array_new_length@std@@QAE@ABV01@@Z12
PUBLIC	??_R0?AVbad_alloc@std@@@8			; std::bad_alloc `RTTI Type Descriptor'
PUBLIC	__CT??_R0?AVbad_alloc@std@@@8??0bad_alloc@std@@QAE@ABV01@@Z12
PUBLIC	??_R0?AVexception@std@@@8			; std::exception `RTTI Type Descriptor'
PUBLIC	__CT??_R0?AVexception@std@@@8??0exception@std@@QAE@ABV01@@Z12
PUBLIC	??_C@_0BA@JFNIOLAK@string?5too?5long@		; `string'
PUBLIC	??_C@_00CNPNBAHC@@				; `string'
PUBLIC	??_C@_0BA@FOIKENOD@vector?5too?5long@		; `string'
PUBLIC	??_R4exception@std@@6B@				; std::exception::`RTTI Complete Object Locator'
PUBLIC	??_R3exception@std@@8				; std::exception::`RTTI Class Hierarchy Descriptor'
PUBLIC	??_R2exception@std@@8				; std::exception::`RTTI Base Class Array'
PUBLIC	??_R1A@?0A@EA@exception@std@@8			; std::exception::`RTTI Base Class Descriptor at (0,-1,0,64)'
PUBLIC	??_R4bad_alloc@std@@6B@				; std::bad_alloc::`RTTI Complete Object Locator'
PUBLIC	??_R3bad_alloc@std@@8				; std::bad_alloc::`RTTI Class Hierarchy Descriptor'
PUBLIC	??_R2bad_alloc@std@@8				; std::bad_alloc::`RTTI Base Class Array'
PUBLIC	??_R1A@?0A@EA@bad_alloc@std@@8			; std::bad_alloc::`RTTI Base Class Descriptor at (0,-1,0,64)'
PUBLIC	??_R4bad_array_new_length@std@@6B@		; std::bad_array_new_length::`RTTI Complete Object Locator'
PUBLIC	??_R3bad_array_new_length@std@@8		; std::bad_array_new_length::`RTTI Class Hierarchy Descriptor'
PUBLIC	??_R2bad_array_new_length@std@@8		; std::bad_array_new_length::`RTTI Base Class Array'
PUBLIC	??_R1A@?0A@EA@bad_array_new_length@std@@8	; std::bad_array_new_length::`RTTI Base Class Descriptor at (0,-1,0,64)'
PUBLIC	?ms_singleton@?$CSingleton@VCPythonNetworkStream@@@@0PAVCPythonNetworkStream@@A ; CSingleton<CPythonNetworkStream>::ms_singleton
PUBLIC	?ms_singleton@?$CSingleton@VCAccountConnector@@@@0PAVCAccountConnector@@A ; CSingleton<CAccountConnector>::ms_singleton
PUBLIC	?ms_singleton@?$CSingleton@VCPythonGuild@@@@0PAVCPythonGuild@@A ; CSingleton<CPythonGuild>::ms_singleton
PUBLIC	?ms_singleton@?$TAbstractSingleton@VIAbstractPlayer@@@@0PAVIAbstractPlayer@@A ; TAbstractSingleton<IAbstractPlayer>::ms_singleton
PUBLIC	?g_kList_strCommand@@3V?$list@V?$basic_string@DU?$char_traits@D@std@@V?$allocator@D@2@@std@@V?$allocator@V?$basic_string@DU?$char_traits@D@std@@V?$allocator@D@2@@std@@@2@@std@@A ; g_kList_strCommand
PUBLIC	??_C@_01KBJDNOO@i@				; `string'
PUBLIC	??_C@_01LKDEMHDF@s@				; `string'
PUBLIC	??_C@_01INIBCBCB@f@				; `string'
PUBLIC	??_C@_0EE@CPCFCFHF@netSendGuildRemoveMemberPacket?$CI@ ; `string'
PUBLIC	?ms_singleton@?$CSingleton@VCGuildMarkUploader@@@@0PAVCGuildMarkUploader@@A ; CSingleton<CGuildMarkUploader>::ms_singleton
PUBLIC	?ms_singleton@?$CSingleton@VCGuildMarkDownloader@@@@0PAVCGuildMarkDownloader@@A ; CSingleton<CGuildMarkDownloader>::ms_singleton
PUBLIC	??_C@_0BI@HFMJEOAC@GetBettingGuildWarValue@	; `string'
PUBLIC	??_C@_0BH@LKCAJGCH@EnableChatInsultFilter@	; `string'
PUBLIC	??_C@_0O@JMAHAJJH@SetServerInfo@		; `string'
PUBLIC	??_C@_0O@ODBJLKOA@GetServerInfo@		; `string'
PUBLIC	??_C@_0BG@NJCKCHAI@PreserveServerCommand@	; `string'
PUBLIC	??_C@_0BK@PJDKKIPH@GetPreservedServerCommand@	; `string'
PUBLIC	??_C@_09CFNAMFEF@StartGame@			; `string'
PUBLIC	??_C@_04EIDOEOJH@Warp@				; `string'
PUBLIC	??_C@_06OCDJGLIF@IsTest@			; `string'
PUBLIC	??_C@_0O@OFMEOEDD@SetMarkServer@		; `string'
PUBLIC	??_C@_0P@EPNPIBON@IsChatInsultIn@		; `string'
PUBLIC	??_C@_0L@CJJGFLBC@IsInsultIn@			; `string'
PUBLIC	??_C@_0P@NAIDDMMD@LoadInsultList@		; `string'
PUBLIC	??_C@_0L@JEGFHCJL@UploadMark@			; `string'
PUBLIC	??_C@_0N@OBKBFHKO@UploadSymbol@			; `string'
PUBLIC	??_C@_0L@EAKBLDCO@GetGuildID@			; `string'
PUBLIC	??_C@_0M@GGDMINDM@GetEmpireID@			; `string'
PUBLIC	??_C@_0BA@BPHKBGOL@GetMainActorVID@		; `string'
PUBLIC	??_C@_0BB@ICEJKPHA@GetMainActorRace@		; `string'
PUBLIC	??_C@_0BD@JOIEFGML@GetMainActorEmpire@		; `string'
PUBLIC	??_C@_0BH@GCCMJIJB@GetMainActorSkillGroup@	; `string'
PUBLIC	??_C@_0CD@PJJNPONG@GetAccountCharacterSlotDataInte@ ; `string'
PUBLIC	??_C@_0CC@DLIFIOE@GetAccountCharacterSlotDataStri@ ; `string'
PUBLIC	??_C@_0BG@NAMIDKHD@GetFieldMusicFileName@	; `string'
PUBLIC	??_C@_0BE@MHKBLINM@GetFieldMusicVolume@		; `string'
PUBLIC	??_C@_0BE@BCCLDKB@ToggleGameDebugInfo@		; `string'
PUBLIC	??_C@_0N@GLEGMFLM@SetLoginInfo@			; `string'
PUBLIC	??_C@_0P@EKNNFAK@SetPhaseWindow@		; `string'
PUBLIC	??_C@_0BB@NNDKGCIK@ClearPhaseWindow@		; `string'
PUBLIC	??_C@_0BN@KOOLAHFA@SetServerCommandParserWindow@ ; `string'
PUBLIC	??_C@_0BL@NJAILJBB@SetAccountConnectorHandler@	; `string'
PUBLIC	??_C@_0L@EELFNDHB@SetHandler@			; `string'
PUBLIC	??_C@_0BF@KAEIEPML@SetTCPRecvBufferSize@	; `string'
PUBLIC	??_C@_0BF@LOLMIHDO@SetTCPSendBufferSize@	; `string'
PUBLIC	??_C@_0BF@GPIIIFGB@SetUDPRecvBufferSize@	; `string'
PUBLIC	??_C@_0M@PAACKIAL@DirectEnter@			; `string'
PUBLIC	??_C@_0L@LPFGMFBP@LogOutGame@			; `string'
PUBLIC	??_C@_08ENBHLCHD@ExitGame@			; `string'
PUBLIC	??_C@_0BA@ILFBLEPH@ExitApplication@		; `string'
PUBLIC	??_C@_0L@HNEKCIDO@ConnectTCP@			; `string'
PUBLIC	??_C@_0L@MALJFJNO@ConnectUDP@			; `string'
PUBLIC	??_C@_0BH@CIOLKAIG@ConnectToAccountServer@	; `string'
PUBLIC	??_C@_0BA@CNDIKGCL@SendLoginPacket@		; `string'
PUBLIC	??_C@_0BK@GJKBNMLJ@SendChinaMatrixCardPacket@	; `string'
PUBLIC	??_C@_0BK@KNELICML@SendRunupMatrixCardPacket@	; `string'
PUBLIC	??_C@_0BP@JFBAGMPA@SendNEWCIBNPasspodAnswerPacket@ ; `string'
PUBLIC	??_C@_0BH@IIELEKKA@SendSelectEmpirePacket@	; `string'
PUBLIC	??_C@_0BK@MIKAHKDI@SendSelectCharacterPacket@	; `string'
PUBLIC	??_C@_0BF@ODLJDBF@SendChangeNamePacket@		; `string'
PUBLIC	??_C@_0BK@NPKEAJJ@SendCreateCharacterPacket@	; `string'
PUBLIC	??_C@_0BL@PMHPNGGJ@SendDestroyCharacterPacket@	; `string'
PUBLIC	??_C@_0BE@NBECPFPH@SendEnterGamePacket@		; `string'
PUBLIC	??_C@_0BC@NHAKBOCP@SendItemUsePacket@		; `string'
PUBLIC	??_C@_0BI@OBDMDOIB@SendItemUseToItemPacket@	; `string'
PUBLIC	??_C@_0BD@ICCAOJBA@SendItemDropPacket@		; `string'
PUBLIC	??_C@_0BG@PNFNACGL@SendItemDropPacketNew@	; `string'
PUBLIC	??_C@_0BC@NEDFAOHK@SendElkDropPacket@		; `string'
PUBLIC	??_C@_0BG@ONKCIEDE@SendGoldDropPacketNew@	; `string'
PUBLIC	??_C@_0BD@BPAFBGKI@SendItemMovePacket@		; `string'
PUBLIC	??_C@_0BF@PJHEIMI@SendItemPickUpPacket@		; `string'
PUBLIC	??_C@_0BD@FMAJCJM@SendGiveItemPacket@		; `string'
PUBLIC	??_C@_0BA@NKMDDBDL@SetOfflinePhase@		; `string'
PUBLIC	??_C@_0L@CMGJAGDM@Disconnect@			; `string'
PUBLIC	??_C@_09HENONEEN@IsConnect@			; `string'
PUBLIC	??_C@_0P@FJOINOIH@SendChatPacket@		; `string'
PUBLIC	??_C@_0N@BJHGOHPC@SendEmoticon@			; `string'
PUBLIC	??_C@_0BC@KNMEABPD@SendWhisperPacket@		; `string'
PUBLIC	??_C@_0BI@BFCIMAOL@SendMobileMessagePacket@	; `string'
PUBLIC	??_C@_0BM@KAMAKIKL@SendCharacterPositionPacket@	; `string'
PUBLIC	??_C@_0BC@HEOMKCAE@SendShopEndPacket@		; `string'
PUBLIC	??_C@_0BC@FPBLEBCL@SendShopBuyPacket@		; `string'
PUBLIC	??_C@_0BD@BFMEHPEE@SendShopSellPacket@		; `string'
PUBLIC	??_C@_0BG@BGJEIPGN@SendShopSellPacketNew@	; `string'
PUBLIC	??_C@_0BI@BGNKGFKO@SendExchangeStartPacket@	; `string'
PUBLIC	??_C@_0BK@IIFDLCNA@SendExchangeItemAddPacket@	; `string'
PUBLIC	??_C@_0BK@KKOEHGGC@SendExchangeItemDelPacket@	; `string'
PUBLIC	??_C@_0BJ@CGGGIOGM@SendExchangeElkAddPacket@	; `string'
PUBLIC	??_C@_0BJ@OFKJBLDC@SendExchangeAcceptPacket@	; `string'
PUBLIC	??_C@_0BH@NCONKHHB@SendExchangeExitPacket@	; `string'
PUBLIC	??_C@_0BC@FMJHAGEI@SendOnClickPacket@		; `string'
PUBLIC	??_C@_0BH@MCKLKDJM@RegisterEmoticonString@	; `string'
PUBLIC	??_C@_0BM@CFLPIFFM@SendMessengerAddByVIDPacket@	; `string'
PUBLIC	??_C@_0BN@MPMOLLL@SendMessengerAddByNamePacket@	; `string'
PUBLIC	??_C@_0BK@GIIDGGBB@SendMessengerRemovePacket@	; `string'
PUBLIC	??_C@_0BG@IFGKMOED@SendPartyInvitePacket@	; `string'
PUBLIC	??_C@_0BM@PFAFFBJO@SendPartyInviteAnswerPacket@	; `string'
PUBLIC	??_C@_0BE@JHFPDGFP@SendPartyExitPacket@		; `string'
PUBLIC	??_C@_0BG@JAJGIHK@SendPartyRemovePacket@	; `string'
PUBLIC	??_C@_0BI@LNEGCCFH@SendPartySetStatePacket@	; `string'
PUBLIC	??_C@_0BI@EONDHFJL@SendPartyUseSkillPacket@	; `string'
PUBLIC	??_C@_0BJ@JGBOMHFI@SendPartyParameterPacket@	; `string'
PUBLIC	??_C@_0BL@CAAOLIHO@SendSafeboxSaveMoneyPacket@	; `string'
PUBLIC	??_C@_0BP@MLAJADAA@SendSafeboxWithdrawMoneyPacket@ ; `string'
PUBLIC	??_C@_0BJ@HNJCKALG@SendSafeboxCheckinPacket@	; `string'
PUBLIC	??_C@_0BK@LJAMACPE@SendSafeboxCheckoutPacket@	; `string'
PUBLIC	??_C@_0BK@JMMAEJFJ@SendSafeboxItemMovePacket@	; `string'
PUBLIC	??_C@_0BH@BDNDNKGE@SendMallCheckoutPacket@	; `string'
PUBLIC	??_C@_0BK@HLNHPAPM@SendAnswerMakeGuildPacket@	; `string'
PUBLIC	??_C@_0BL@BJLFPMAE@SendQuestInputStringPacket@	; `string'
PUBLIC	??_C@_0BH@HMDNFHNB@SendQuestConfirmPacket@	; `string'
PUBLIC	??_C@_0BJ@MFJNIJIJ@SendGuildAddMemberPacket@	; `string'
PUBLIC	??_C@_0BM@GAJEHHNG@SendGuildRemoveMemberPacket@	; `string'
PUBLIC	??_C@_0BP@ODLEJFMG@SendGuildChangeGradeNamePacket@ ; `string'
PUBLIC	??_C@_0CE@EFLFPPCO@SendGuildChangeGradeAuthorityPa@ ; `string'
PUBLIC	??_C@_0BF@OAFAHAKB@SendGuildOfferPacket@	; `string'
PUBLIC	??_C@_0BL@JLEHIONL@SendGuildPostCommentPacket@	; `string'
PUBLIC	??_C@_0BN@MBNLMFLO@SendGuildDeleteCommentPacket@ ; `string'
PUBLIC	??_C@_0BP@BKEOCNGM@SendGuildRefreshCommentsPacket@ ; `string'
PUBLIC	??_C@_0CB@KOIDGNFC@SendGuildChangeMemberGradePacke@ ; `string'
PUBLIC	??_C@_0BI@HICDMLJH@SendGuildUseSkillPacket@	; `string'
PUBLIC	??_C@_0CD@BMLIKMKL@SendGuildChangeMemberGeneralPac@ ; `string'
PUBLIC	??_C@_0BM@KLBFEJBI@SendGuildInviteAnswerPacket@	; `string'
PUBLIC	??_C@_0BJ@LKJGDIEE@SendGuildChargeGSPPacket@	; `string'
PUBLIC	??_C@_0BM@HDHMFNNO@SendGuildDepositMoneyPacket@	; `string'
PUBLIC	??_C@_0BN@BPJGBHPL@SendGuildWithdrawMoneyPacket@ ; `string'
PUBLIC	??_C@_0BM@NLIMKJKK@SendRequestRefineInfoPacket@	; `string'
PUBLIC	??_C@_0BB@MBCAEHJO@SendRefinePacket@		; `string'
PUBLIC	??_C@_0BF@HEJDCMFH@SendSelectItemPacket@	; `string'
PUBLIC	??_C@_0BG@HLIDKLKJ@SetPacketSequenceMode@	; `string'
PUBLIC	??_C@_0BG@KCIMJDEA@SetEmpireLanguageMode@	; `string'
PUBLIC	??_C@_0BC@NOAKHLIH@SetSkillGroupFake@		; `string'
PUBLIC	??_C@_0BA@EGLEIBFB@SendGuildSymbol@		; `string'
PUBLIC	??_C@_0BD@PIFKMNDO@DisconnectUploader@		; `string'
PUBLIC	??_C@_0BA@ILHNHDAK@RecvGuildSymbol@		; `string'
PUBLIC	??_C@_0BB@CABIEEGM@RegisterErrorLog@		; `string'
PUBLIC	??_C@_03NBFOK@net@				; `string'
PUBLIC	??_C@_0L@LILDODAP@ERROR_NONE@			; `string'
PUBLIC	??_C@_0BK@BILAANNF@ERROR_CONNECT_MARK_SERVER@	; `string'
PUBLIC	??_C@_0BA@NEJKKBEJ@ERROR_LOAD_MARK@		; `string'
PUBLIC	??_C@_0BB@FEGLKDMB@ERROR_MARK_WIDTH@		; `string'
PUBLIC	??_C@_0BC@GOIIBBEJ@ERROR_MARK_HEIGHT@		; `string'
PUBLIC	??_C@_0CB@BOPIDGGI@ERROR_MARK_UPLOAD_NEED_RECONNEC@ ; `string'
PUBLIC	??_C@_0CA@JMHMMKLO@ERROR_MARK_CHECK_NEED_RECONNECT@ ; `string'
PUBLIC	??_C@_0BD@JBLBGAIB@PHASE_WINDOW_LOGIN@		; `string'
PUBLIC	??_C@_0BE@EBCKEIDN@PHASE_WINDOW_SELECT@		; `string'
PUBLIC	??_C@_0BE@PAOFIFBD@PHASE_WINDOW_CREATE@		; `string'
PUBLIC	??_C@_0BC@PFELHICG@PHASE_WINDOW_LOAD@		; `string'
PUBLIC	??_C@_0BC@HCEFPGCB@PHASE_WINDOW_GAME@		; `string'
PUBLIC	??_C@_0BE@IIMEMMI@PHASE_WINDOW_EMPIRE@		; `string'
PUBLIC	??_C@_0BC@BCDCNNFP@PHASE_WINDOW_LOGO@		; `string'
PUBLIC	??_C@_0BK@HDGGAJBJ@ACCOUNT_CHARACTER_SLOT_ID@	; `string'
PUBLIC	??_C@_0BM@JCGOOLCL@ACCOUNT_CHARACTER_SLOT_NAME@	; `string'
PUBLIC	??_C@_0BM@DNOALMKC@ACCOUNT_CHARACTER_SLOT_RACE@	; `string'
PUBLIC	??_C@_0BN@MPLCEAPH@ACCOUNT_CHARACTER_SLOT_LEVEL@ ; `string'
PUBLIC	??_C@_0BL@MPBHOFJE@ACCOUNT_CHARACTER_SLOT_STR@	; `string'
PUBLIC	??_C@_0BL@OFNCKLHP@ACCOUNT_CHARACTER_SLOT_DEX@	; `string'
PUBLIC	??_C@_0BL@LHFINDEP@ACCOUNT_CHARACTER_SLOT_INT@	; `string'
PUBLIC	??_C@_0BL@PICCMPNB@ACCOUNT_CHARACTER_SLOT_HTH@	; `string'
PUBLIC	??_C@_0CA@KFILFMPG@ACCOUNT_CHARACTER_SLOT_PLAYTIME@ ; `string'
PUBLIC	??_C@_0BM@JNGCLJJM@ACCOUNT_CHARACTER_SLOT_FORM@	; `string'
PUBLIC	??_C@_0BM@CNLCDDNB@ACCOUNT_CHARACTER_SLOT_ADDR@	; `string'
PUBLIC	??_C@_0BM@OJMCHCKG@ACCOUNT_CHARACTER_SLOT_PORT@	; `string'
PUBLIC	??_C@_0CA@GFKKICFN@ACCOUNT_CHARACTER_SLOT_GUILD_ID@ ; `string'
PUBLIC	??_C@_0CC@HMBBCNEO@ACCOUNT_CHARACTER_SLOT_GUILD_NA@ ; `string'
PUBLIC	??_C@_0CI@NIHCCHJE@ACCOUNT_CHARACTER_SLOT_CHANGE_N@ ; `string'
PUBLIC	??_C@_0BM@BPKEDCMB@ACCOUNT_CHARACTER_SLOT_HAIR@	; `string'
PUBLIC	??_C@_0BH@IJCJGIEO@SERVER_COMMAND_LOG_OUT@	; `string'
PUBLIC	??_C@_0CK@IDBHOJE@SERVER_COMMAND_RETURN_TO_SELECT@ ; `string'
PUBLIC	??_C@_0BE@FCDHFIHM@SERVER_COMMAND_QUIT@		; `string'
PUBLIC	??_C@_08FEHCOLFL@EMPIRE_A@			; `string'
PUBLIC	??_C@_08HPFPLIJI@EMPIRE_B@			; `string'
PUBLIC	??_C@_08GGEEIJNJ@EMPIRE_C@			; `string'
PUBLIC	??_C@_0BK@IMPJEABP@DS_SUB_HEADER_REFINE_FAIL@	; `string'
PUBLIC	??_C@_0CF@NHMIOPGD@DS_SUB_HEADER_REFINE_FAIL_MAX_R@ ; `string'
PUBLIC	??_C@_0CL@CHMHFOOJ@DS_SUB_HEADER_REFINE_FAIL_INVAL@ ; `string'
PUBLIC	??_C@_0CL@DKLCPNME@DS_SUB_HEADER_REFINE_FAIL_NOT_E@ ; `string'
PUBLIC	??_C@_0CO@HIKHGDBM@DS_SUB_HEADER_REFINE_FAIL_NOT_E@ ; `string'
PUBLIC	??_C@_0CM@PJCLJBCJ@DS_SUB_HEADER_REFINE_FAIL_TOO_M@ ; `string'
PUBLIC	??_C@_0BN@OJONLPHM@DS_SUB_HEADER_REFINE_SUCCEED@ ; `string'
PUBLIC	??_C@_0O@NKNMEGII@list?5too?5long@		; `string'
EXTRN	??2@YAPAXI@Z:PROC				; operator new
EXTRN	??3@YAXPAXI@Z:PROC				; operator delete
EXTRN	_atexit:PROC
EXTRN	__invalid_parameter_noinfo_noreturn:PROC
EXTRN	___std_exception_copy:PROC
EXTRN	___std_exception_destroy:PROC
EXTRN	??_Eexception@std@@UAEPAXI@Z:PROC		; std::exception::`vector deleting destructor'
EXTRN	??_Ebad_alloc@std@@UAEPAXI@Z:PROC		; std::bad_alloc::`vector deleting destructor'
EXTRN	??_Ebad_array_new_length@std@@UAEPAXI@Z:PROC	; std::bad_array_new_length::`vector deleting destructor'
EXTRN	?_Xlength_error@std@@YAXPBD@Z:PROC		; std::_Xlength_error
EXTRN	?TraceError@@YAXPBDZZ:PROC			; TraceError
EXTRN	__imp__PyTuple_Size:PROC
EXTRN	__imp__Py_BuildValue:PROC
EXTRN	__imp__PyModule_AddIntConstant:PROC
EXTRN	__imp__Py_InitModule4:PROC
EXTRN	?PyTuple_GetString@@YA_NPAU_object@@HPAPAD@Z:PROC ; PyTuple_GetString
EXTRN	?PyTuple_GetInteger@@YA_NPAU_object@@HPAE@Z:PROC ; PyTuple_GetInteger
EXTRN	?PyTuple_GetInteger@@YA_NPAU_object@@HPAH@Z:PROC ; PyTuple_GetInteger
EXTRN	?PyTuple_GetInteger@@YA_NPAU_object@@HPAG@Z:PROC ; PyTuple_GetInteger
EXTRN	?PyTuple_GetByte@@YA_NPAU_object@@HPAE@Z:PROC	; PyTuple_GetByte
EXTRN	?PyTuple_GetObject@@YA_NPAU_object@@HPAPAU1@@Z:PROC ; PyTuple_GetObject
EXTRN	?Py_BuildException@@YAPAU_object@@PBDZZ:PROC	; Py_BuildException
EXTRN	?Py_BuildNone@@YAPAU_object@@XZ:PROC		; Py_BuildNone
EXTRN	??0CNetworkAddress@@QAE@XZ:PROC			; CNetworkAddress::CNetworkAddress
EXTRN	??1CNetworkAddress@@QAE@XZ:PROC			; CNetworkAddress::~CNetworkAddress
EXTRN	?Set@CNetworkAddress@@QAE_NPBDH@Z:PROC		; CNetworkAddress::Set
EXTRN	?SetRecvBufferSize@CNetworkStream@@QAEXH@Z:PROC	; CNetworkStream::SetRecvBufferSize
EXTRN	?SetSendBufferSize@CNetworkStream@@QAEXH@Z:PROC	; CNetworkStream::SetSendBufferSize
EXTRN	?Disconnect@CNetworkStream@@QAEXXZ:PROC		; CNetworkStream::Disconnect
EXTRN	?IsOnline@CNetworkStream@@QAE_NXZ:PROC		; CNetworkStream::IsOnline
EXTRN	?SetPacketSequenceMode@CNetworkStream@@QAEX_N@Z:PROC ; CNetworkStream::SetPacketSequenceMode
EXTRN	?StartGame@CPythonNetworkStream@@QAEXXZ:PROC	; CPythonNetworkStream::StartGame
EXTRN	?Warp@CPythonNetworkStream@@QAEXJJ@Z:PROC	; CPythonNetworkStream::Warp
EXTRN	?SendEmoticon@CPythonNetworkStream@@QAEXI@Z:PROC ; CPythonNetworkStream::SendEmoticon
EXTRN	?ExitApplication@CPythonNetworkStream@@QAEXXZ:PROC ; CPythonNetworkStream::ExitApplication
EXTRN	?ExitGame@CPythonNetworkStream@@QAEXXZ:PROC	; CPythonNetworkStream::ExitGame
EXTRN	?LogOutGame@CPythonNetworkStream@@QAEXXZ:PROC	; CPythonNetworkStream::LogOutGame
EXTRN	?EnableChatInsultFilter@CPythonNetworkStream@@QAEX_N@Z:PROC ; CPythonNetworkStream::EnableChatInsultFilter
EXTRN	?IsChatInsultIn@CPythonNetworkStream@@QAE_NPBD@Z:PROC ; CPythonNetworkStream::IsChatInsultIn
EXTRN	?IsInsultIn@CPythonNetworkStream@@QAE_NPBD@Z:PROC ; CPythonNetworkStream::IsInsultIn
EXTRN	?GetGuildID@CPythonNetworkStream@@QAEKXZ:PROC	; CPythonNetworkStream::GetGuildID
EXTRN	?UploadMark@CPythonNetworkStream@@QAEIPBD@Z:PROC ; CPythonNetworkStream::UploadMark
EXTRN	?UploadSymbol@CPythonNetworkStream@@QAEIPBD@Z:PROC ; CPythonNetworkStream::UploadSymbol
EXTRN	?LoadInsultList@CPythonNetworkStream@@QAE_NPBD@Z:PROC ; CPythonNetworkStream::LoadInsultList
EXTRN	?GetAccountCharacterSlotDatau@CPythonNetworkStream@@QAEIII@Z:PROC ; CPythonNetworkStream::GetAccountCharacterSlotDatau
EXTRN	?GetAccountCharacterSlotDataz@CPythonNetworkStream@@QAEPBDII@Z:PROC ; CPythonNetworkStream::GetAccountCharacterSlotDataz
EXTRN	?GetFieldMusicFileName@CPythonNetworkStream@@QAEPBDXZ:PROC ; CPythonNetworkStream::GetFieldMusicFileName
EXTRN	?GetFieldMusicVolume@CPythonNetworkStream@@QAEMXZ:PROC ; CPythonNetworkStream::GetFieldMusicVolume
EXTRN	?IsSelectedEmpire@CPythonNetworkStream@@QAE_NXZ:PROC ; CPythonNetworkStream::IsSelectedEmpire
EXTRN	?ToggleGameDebugInfo@CPythonNetworkStream@@QAEXXZ:PROC ; CPythonNetworkStream::ToggleGameDebugInfo
EXTRN	?SetMarkServer@CPythonNetworkStream@@QAEXPBDI@Z:PROC ; CPythonNetworkStream::SetMarkServer
EXTRN	?ConnectLoginServer@CPythonNetworkStream@@QAEXPBDI@Z:PROC ; CPythonNetworkStream::ConnectLoginServer
EXTRN	?ConnectGameServer@CPythonNetworkStream@@QAEXI@Z:PROC ; CPythonNetworkStream::ConnectGameServer
EXTRN	?SetLoginInfo@CPythonNetworkStream@@QAEXPBD0@Z:PROC ; CPythonNetworkStream::SetLoginInfo
EXTRN	?SetHandler@CPythonNetworkStream@@QAEXPAU_object@@@Z:PROC ; CPythonNetworkStream::SetHandler
EXTRN	?SetPhaseWindow@CPythonNetworkStream@@QAEXIPAU_object@@@Z:PROC ; CPythonNetworkStream::SetPhaseWindow
EXTRN	?ClearPhaseWindow@CPythonNetworkStream@@QAEXIPAU_object@@@Z:PROC ; CPythonNetworkStream::ClearPhaseWindow
EXTRN	?SetServerCommandParserWindow@CPythonNetworkStream@@QAEXPAU_object@@@Z:PROC ; CPythonNetworkStream::SetServerCommandParserWindow
EXTRN	?SendCharacterPositionPacket@CPythonNetworkStream@@QAE_NE@Z:PROC ; CPythonNetworkStream::SendCharacterPositionPacket
EXTRN	?SendItemUsePacket@CPythonNetworkStream@@QAE_NUSItemPos@@@Z:PROC ; CPythonNetworkStream::SendItemUsePacket
EXTRN	?SendItemUseToItemPacket@CPythonNetworkStream@@QAE_NUSItemPos@@0@Z:PROC ; CPythonNetworkStream::SendItemUseToItemPacket
EXTRN	?SendItemDropPacket@CPythonNetworkStream@@QAE_NUSItemPos@@K@Z:PROC ; CPythonNetworkStream::SendItemDropPacket
EXTRN	?SendItemDropPacketNew@CPythonNetworkStream@@QAE_NUSItemPos@@KK@Z:PROC ; CPythonNetworkStream::SendItemDropPacketNew
EXTRN	?SendItemMovePacket@CPythonNetworkStream@@QAE_NUSItemPos@@0E@Z:PROC ; CPythonNetworkStream::SendItemMovePacket
EXTRN	?SendItemPickUpPacket@CPythonNetworkStream@@QAE_NK@Z:PROC ; CPythonNetworkStream::SendItemPickUpPacket
EXTRN	?SendShopEndPacket@CPythonNetworkStream@@QAE_NXZ:PROC ; CPythonNetworkStream::SendShopEndPacket
EXTRN	?SendShopBuyPacket@CPythonNetworkStream@@QAE_NE@Z:PROC ; CPythonNetworkStream::SendShopBuyPacket
EXTRN	?SendShopSellPacket@CPythonNetworkStream@@QAE_NE@Z:PROC ; CPythonNetworkStream::SendShopSellPacket
EXTRN	?SendShopSellPacketNew@CPythonNetworkStream@@QAE_NEE@Z:PROC ; CPythonNetworkStream::SendShopSellPacketNew
EXTRN	?SendExchangeStartPacket@CPythonNetworkStream@@QAE_NK@Z:PROC ; CPythonNetworkStream::SendExchangeStartPacket
EXTRN	?SendExchangeItemAddPacket@CPythonNetworkStream@@QAE_NUSItemPos@@E@Z:PROC ; CPythonNetworkStream::SendExchangeItemAddPacket
EXTRN	?SendExchangeElkAddPacket@CPythonNetworkStream@@QAE_NK@Z:PROC ; CPythonNetworkStream::SendExchangeElkAddPacket
EXTRN	?SendExchangeItemDelPacket@CPythonNetworkStream@@QAE_NE@Z:PROC ; CPythonNetworkStream::SendExchangeItemDelPacket
EXTRN	?SendExchangeAcceptPacket@CPythonNetworkStream@@QAE_NXZ:PROC ; CPythonNetworkStream::SendExchangeAcceptPacket
EXTRN	?SendExchangeExitPacket@CPythonNetworkStream@@QAE_NXZ:PROC ; CPythonNetworkStream::SendExchangeExitPacket
EXTRN	?SendAnswerMakeGuildPacket@CPythonNetworkStream@@QAE_NPBD@Z:PROC ; CPythonNetworkStream::SendAnswerMakeGuildPacket
EXTRN	?SendQuestInputStringPacket@CPythonNetworkStream@@QAE_NPBD@Z:PROC ; CPythonNetworkStream::SendQuestInputStringPacket
EXTRN	?SendQuestConfirmPacket@CPythonNetworkStream@@QAE_NEK@Z:PROC ; CPythonNetworkStream::SendQuestConfirmPacket
EXTRN	?SendOnClickPacket@CPythonNetworkStream@@QAE_NK@Z:PROC ; CPythonNetworkStream::SendOnClickPacket
EXTRN	?RegisterEmoticonString@CPythonNetworkStream@@QAEXPBD@Z:PROC ; CPythonNetworkStream::RegisterEmoticonString
EXTRN	?SendPartyInvitePacket@CPythonNetworkStream@@QAE_NK@Z:PROC ; CPythonNetworkStream::SendPartyInvitePacket
EXTRN	?SendPartyInviteAnswerPacket@CPythonNetworkStream@@QAE_NKE@Z:PROC ; CPythonNetworkStream::SendPartyInviteAnswerPacket
EXTRN	?SendPartyRemovePacket@CPythonNetworkStream@@QAE_NK@Z:PROC ; CPythonNetworkStream::SendPartyRemovePacket
EXTRN	?SendPartySetStatePacket@CPythonNetworkStream@@QAE_NKEE@Z:PROC ; CPythonNetworkStream::SendPartySetStatePacket
EXTRN	?SendPartyUseSkillPacket@CPythonNetworkStream@@QAE_NEK@Z:PROC ; CPythonNetworkStream::SendPartyUseSkillPacket
EXTRN	?SendPartyParameterPacket@CPythonNetworkStream@@QAE_NE@Z:PROC ; CPythonNetworkStream::SendPartyParameterPacket
EXTRN	?SendSafeBoxMoneyPacket@CPythonNetworkStream@@QAE_NEK@Z:PROC ; CPythonNetworkStream::SendSafeBoxMoneyPacket
EXTRN	?SendSafeBoxCheckinPacket@CPythonNetworkStream@@QAE_NUSItemPos@@E@Z:PROC ; CPythonNetworkStream::SendSafeBoxCheckinPacket
EXTRN	?SendSafeBoxCheckoutPacket@CPythonNetworkStream@@QAE_NEUSItemPos@@@Z:PROC ; CPythonNetworkStream::SendSafeBoxCheckoutPacket
EXTRN	?SendSafeBoxItemMovePacket@CPythonNetworkStream@@QAE_NEEE@Z:PROC ; CPythonNetworkStream::SendSafeBoxItemMovePacket
EXTRN	?SendMallCheckoutPacket@CPythonNetworkStream@@QAE_NEUSItemPos@@@Z:PROC ; CPythonNetworkStream::SendMallCheckoutPacket
EXTRN	?SendGuildAddMemberPacket@CPythonNetworkStream@@QAE_NK@Z:PROC ; CPythonNetworkStream::SendGuildAddMemberPacket
EXTRN	?SendGuildRemoveMemberPacket@CPythonNetworkStream@@QAE_NK@Z:PROC ; CPythonNetworkStream::SendGuildRemoveMemberPacket
EXTRN	?SendGuildChangeGradeNamePacket@CPythonNetworkStream@@QAE_NEPBD@Z:PROC ; CPythonNetworkStream::SendGuildChangeGradeNamePacket
EXTRN	?SendGuildChangeGradeAuthorityPacket@CPythonNetworkStream@@QAE_NEE@Z:PROC ; CPythonNetworkStream::SendGuildChangeGradeAuthorityPacket
EXTRN	?SendGuildOfferPacket@CPythonNetworkStream@@QAE_NK@Z:PROC ; CPythonNetworkStream::SendGuildOfferPacket
EXTRN	?SendGuildPostCommentPacket@CPythonNetworkStream@@QAE_NPBD@Z:PROC ; CPythonNetworkStream::SendGuildPostCommentPacket
EXTRN	?SendGuildDeleteCommentPacket@CPythonNetworkStream@@QAE_NK@Z:PROC ; CPythonNetworkStream::SendGuildDeleteCommentPacket
EXTRN	?SendGuildRefreshCommentsPacket@CPythonNetworkStream@@QAE_NK@Z:PROC ; CPythonNetworkStream::SendGuildRefreshCommentsPacket
EXTRN	?SendGuildChangeMemberGradePacket@CPythonNetworkStream@@QAE_NKE@Z:PROC ; CPythonNetworkStream::SendGuildChangeMemberGradePacket
EXTRN	?SendGuildUseSkillPacket@CPythonNetworkStream@@QAE_NKK@Z:PROC ; CPythonNetworkStream::SendGuildUseSkillPacket
EXTRN	?SendGuildChangeMemberGeneralPacket@CPythonNetworkStream@@QAE_NKE@Z:PROC ; CPythonNetworkStream::SendGuildChangeMemberGeneralPacket
EXTRN	?SendGuildInviteAnswerPacket@CPythonNetworkStream@@QAE_NKE@Z:PROC ; CPythonNetworkStream::SendGuildInviteAnswerPacket
EXTRN	?SendGuildChargeGSPPacket@CPythonNetworkStream@@QAE_NK@Z:PROC ; CPythonNetworkStream::SendGuildChargeGSPPacket
EXTRN	?SendGuildDepositMoneyPacket@CPythonNetworkStream@@QAE_NK@Z:PROC ; CPythonNetworkStream::SendGuildDepositMoneyPacket
EXTRN	?SendGuildWithdrawMoneyPacket@CPythonNetworkStream@@QAE_NK@Z:PROC ; CPythonNetworkStream::SendGuildWithdrawMoneyPacket
EXTRN	?SendGiveItemPacket@CPythonNetworkStream@@QAE_NKUSItemPos@@H@Z:PROC ; CPythonNetworkStream::SendGiveItemPacket
EXTRN	?SendRefinePacket@CPythonNetworkStream@@QAE_NEE@Z:PROC ; CPythonNetworkStream::SendRefinePacket
EXTRN	?SendSelectItemPacket@CPythonNetworkStream@@QAE_NK@Z:PROC ; CPythonNetworkStream::SendSelectItemPacket
EXTRN	?GetMainActorVID@CPythonNetworkStream@@QAEKXZ:PROC ; CPythonNetworkStream::GetMainActorVID
EXTRN	?GetMainActorRace@CPythonNetworkStream@@QAEKXZ:PROC ; CPythonNetworkStream::GetMainActorRace
EXTRN	?GetMainActorEmpire@CPythonNetworkStream@@QAEKXZ:PROC ; CPythonNetworkStream::GetMainActorEmpire
EXTRN	?GetMainActorSkillGroup@CPythonNetworkStream@@QAEKXZ:PROC ; CPythonNetworkStream::GetMainActorSkillGroup
EXTRN	?GetEmpireID@CPythonNetworkStream@@QAEKXZ:PROC	; CPythonNetworkStream::GetEmpireID
EXTRN	?__TEST_SetSkillGroupFake@CPythonNetworkStream@@QAEXH@Z:PROC ; CPythonNetworkStream::__TEST_SetSkillGroupFake
EXTRN	?SetOffLinePhase@CPythonNetworkStream@@QAEXXZ:PROC ; CPythonNetworkStream::SetOffLinePhase
EXTRN	?SendLoginPacket@CPythonNetworkStream@@QAE_NPBD0@Z:PROC ; CPythonNetworkStream::SendLoginPacket
EXTRN	?SendEnterGame@CPythonNetworkStream@@QAE_NXZ:PROC ; CPythonNetworkStream::SendEnterGame
EXTRN	?SendSelectEmpirePacket@CPythonNetworkStream@@QAE_NK@Z:PROC ; CPythonNetworkStream::SendSelectEmpirePacket
EXTRN	?SendSelectCharacterPacket@CPythonNetworkStream@@QAE_NE@Z:PROC ; CPythonNetworkStream::SendSelectCharacterPacket
EXTRN	?SendChangeNamePacket@CPythonNetworkStream@@QAE_NEPBD@Z:PROC ; CPythonNetworkStream::SendChangeNamePacket
EXTRN	?SendCreateCharacterPacket@CPythonNetworkStream@@QAE_NEPBDEEEEEE@Z:PROC ; CPythonNetworkStream::SendCreateCharacterPacket
EXTRN	?SendDestroyCharacterPacket@CPythonNetworkStream@@QAE_NEPBD@Z:PROC ; CPythonNetworkStream::SendDestroyCharacterPacket
EXTRN	?SendChatPacket@CPythonNetworkStream@@QAE_NPBDE@Z:PROC ; CPythonNetworkStream::SendChatPacket
EXTRN	?SendWhisperPacket@CPythonNetworkStream@@QAE_NPBD0@Z:PROC ; CPythonNetworkStream::SendWhisperPacket
EXTRN	?SendMobileMessagePacket@CPythonNetworkStream@@QAE_NPBD0@Z:PROC ; CPythonNetworkStream::SendMobileMessagePacket
EXTRN	?SendMessengerAddByVIDPacket@CPythonNetworkStream@@QAE_NK@Z:PROC ; CPythonNetworkStream::SendMessengerAddByVIDPacket
EXTRN	?SendMessengerAddByNamePacket@CPythonNetworkStream@@QAE_NPBD@Z:PROC ; CPythonNetworkStream::SendMessengerAddByNamePacket
EXTRN	?SendMessengerRemovePacket@CPythonNetworkStream@@QAE_NPBD0@Z:PROC ; CPythonNetworkStream::SendMessengerRemovePacket
EXTRN	?EXPORT_GetBettingGuildWarValue@CPythonNetworkStream@@QAEKPBD@Z:PROC ; CPythonNetworkStream::EXPORT_GetBettingGuildWarValue
EXTRN	?SetHandler@CAccountConnector@@QAEXPAU_object@@@Z:PROC ; CAccountConnector::SetHandler
EXTRN	?SetLoginInfo@CAccountConnector@@QAEXPBD0@Z:PROC ; CAccountConnector::SetLoginInfo
EXTRN	?SendChinaMatrixCardPacket@CAccountConnector@@QAE_NPBD@Z:PROC ; CAccountConnector::SendChinaMatrixCardPacket
EXTRN	?SendRunupMatrixCardPacket@CAccountConnector@@QAE_NPBD@Z:PROC ; CAccountConnector::SendRunupMatrixCardPacket
EXTRN	?SendNEWCIBNPasspodAnswerPacket@CAccountConnector@@QAE_NPBD@Z:PROC ; CAccountConnector::SendNEWCIBNPasspodAnswerPacket
EXTRN	?Connect@CAccountConnector@@QAE_NPBDH0H@Z:PROC	; CAccountConnector::Connect
EXTRN	?GetMemberDataPtrByName@CPythonGuild@@QAEHPBDPAPAUSGuildMemberData@1@@Z:PROC ; CPythonGuild::GetMemberDataPtrByName
EXTRN	?Disconnect@CGuildMarkUploader@@QAEXXZ:PROC	; CGuildMarkUploader::Disconnect
EXTRN	?ConnectToSendSymbol@CGuildMarkUploader@@QAE_NABVCNetworkAddress@@KKKPBDPAI@Z:PROC ; CGuildMarkUploader::ConnectToSendSymbol
EXTRN	?ConnectToRecvSymbol@CGuildMarkDownloader@@QAE_NABVCNetworkAddress@@KKABV?$vector@KV?$allocator@K@std@@@std@@@Z:PROC ; CGuildMarkDownloader::ConnectToRecvSymbol
EXTRN	@__security_check_cookie@4:PROC
EXTRN	__CxxThrowException@8:PROC
EXTRN	___CxxFrameHandler3:PROC
EXTRN	_memcpy:PROC
EXTRN	_memmove:PROC
EXTRN	??_7type_info@@6B@:QWORD			; type_info::`vftable'
EXTRN	?__IS_TEST_SERVER_MODE__@@3_NA:BYTE		; __IS_TEST_SERVER_MODE__
EXTRN	?gs_bEmpireLanuageEnable@@3HA:DWORD		; gs_bEmpireLanuageEnable
EXTRN	___security_cookie:DWORD
EXTRN	__fltused:DWORD
;	COMDAT ?ms_singleton@?$CSingleton@VCPythonNetworkStream@@@@0PAVCPythonNetworkStream@@A
_BSS	SEGMENT
?ms_singleton@?$CSingleton@VCPythonNetworkStream@@@@0PAVCPythonNetworkStream@@A DD 01H DUP (?) ; CSingleton<CPythonNetworkStream>::ms_singleton
_BSS	ENDS
;	COMDAT ?ms_singleton@?$CSingleton@VCAccountConnector@@@@0PAVCAccountConnector@@A
_BSS	SEGMENT
?ms_singleton@?$CSingleton@VCAccountConnector@@@@0PAVCAccountConnector@@A DD 01H DUP (?) ; CSingleton<CAccountConnector>::ms_singleton
_BSS	ENDS
;	COMDAT ?ms_singleton@?$CSingleton@VCPythonGuild@@@@0PAVCPythonGuild@@A
_BSS	SEGMENT
?ms_singleton@?$CSingleton@VCPythonGuild@@@@0PAVCPythonGuild@@A DD 01H DUP (?) ; CSingleton<CPythonGuild>::ms_singleton
_BSS	ENDS
;	COMDAT ?ms_singleton@?$TAbstractSingleton@VIAbstractPlayer@@@@0PAVIAbstractPlayer@@A
_BSS	SEGMENT
?ms_singleton@?$TAbstractSingleton@VIAbstractPlayer@@@@0PAVIAbstractPlayer@@A DD 01H DUP (?) ; TAbstractSingleton<IAbstractPlayer>::ms_singleton
_BSS	ENDS
_BSS	SEGMENT
?g_kList_strCommand@@3V?$list@V?$basic_string@DU?$char_traits@D@std@@V?$allocator@D@2@@std@@V?$allocator@V?$basic_string@DU?$char_traits@D@std@@V?$allocator@D@2@@std@@@2@@std@@A DQ 01H DUP (?) ; g_kList_strCommand
_BSS	ENDS
;	COMDAT ?ms_singleton@?$CSingleton@VCGuildMarkUploader@@@@0PAVCGuildMarkUploader@@A
_BSS	SEGMENT
?ms_singleton@?$CSingleton@VCGuildMarkUploader@@@@0PAVCGuildMarkUploader@@A DD 01H DUP (?) ; CSingleton<CGuildMarkUploader>::ms_singleton
_BSS	ENDS
;	COMDAT ?ms_singleton@?$CSingleton@VCGuildMarkDownloader@@@@0PAVCGuildMarkDownloader@@A
_BSS	SEGMENT
?ms_singleton@?$CSingleton@VCGuildMarkDownloader@@@@0PAVCGuildMarkDownloader@@A DD 01H DUP (?) ; CSingleton<CGuildMarkDownloader>::ms_singleton
_BSS	ENDS
CRT$XCU	SEGMENT
?gs_stServerInfo$initializer$@@3P6AXXZA DD FLAT:??__Egs_stServerInfo@@YAXXZ ; gs_stServerInfo$initializer$
CRT$XCU	ENDS
;	COMDAT ??_C@_0O@NKNMEGII@list?5too?5long@
CONST	SEGMENT
??_C@_0O@NKNMEGII@list?5too?5long@ DB 'list too long', 00H ; `string'
CONST	ENDS
;	COMDAT ??_C@_0BN@OJONLPHM@DS_SUB_HEADER_REFINE_SUCCEED@
CONST	SEGMENT
??_C@_0BN@OJONLPHM@DS_SUB_HEADER_REFINE_SUCCEED@ DB 'DS_SUB_HEADER_REFINE'
	DB	'_SUCCEED', 00H				; `string'
CONST	ENDS
;	COMDAT ??_C@_0CM@PJCLJBCJ@DS_SUB_HEADER_REFINE_FAIL_TOO_M@
CONST	SEGMENT
??_C@_0CM@PJCLJBCJ@DS_SUB_HEADER_REFINE_FAIL_TOO_M@ DB 'DS_SUB_HEADER_REF'
	DB	'INE_FAIL_TOO_MUCH_MATERIAL', 00H		; `string'
CONST	ENDS
;	COMDAT ??_C@_0CO@HIKHGDBM@DS_SUB_HEADER_REFINE_FAIL_NOT_E@
CONST	SEGMENT
??_C@_0CO@HIKHGDBM@DS_SUB_HEADER_REFINE_FAIL_NOT_E@ DB 'DS_SUB_HEADER_REF'
	DB	'INE_FAIL_NOT_ENOUGH_MATERIAL', 00H		; `string'
CONST	ENDS
;	COMDAT ??_C@_0CL@DKLCPNME@DS_SUB_HEADER_REFINE_FAIL_NOT_E@
CONST	SEGMENT
??_C@_0CL@DKLCPNME@DS_SUB_HEADER_REFINE_FAIL_NOT_E@ DB 'DS_SUB_HEADER_REF'
	DB	'INE_FAIL_NOT_ENOUGH_MONEY', 00H		; `string'
CONST	ENDS
;	COMDAT ??_C@_0CL@CHMHFOOJ@DS_SUB_HEADER_REFINE_FAIL_INVAL@
CONST	SEGMENT
??_C@_0CL@CHMHFOOJ@DS_SUB_HEADER_REFINE_FAIL_INVAL@ DB 'DS_SUB_HEADER_REF'
	DB	'INE_FAIL_INVALID_MATERIAL', 00H		; `string'
CONST	ENDS
;	COMDAT ??_C@_0CF@NHMIOPGD@DS_SUB_HEADER_REFINE_FAIL_MAX_R@
CONST	SEGMENT
??_C@_0CF@NHMIOPGD@DS_SUB_HEADER_REFINE_FAIL_MAX_R@ DB 'DS_SUB_HEADER_REF'
	DB	'INE_FAIL_MAX_REFINE', 00H			; `string'
CONST	ENDS
;	COMDAT ??_C@_0BK@IMPJEABP@DS_SUB_HEADER_REFINE_FAIL@
CONST	SEGMENT
??_C@_0BK@IMPJEABP@DS_SUB_HEADER_REFINE_FAIL@ DB 'DS_SUB_HEADER_REFINE_FA'
	DB	'IL', 00H					; `string'
CONST	ENDS
;	COMDAT ??_C@_08GGEEIJNJ@EMPIRE_C@
CONST	SEGMENT
??_C@_08GGEEIJNJ@EMPIRE_C@ DB 'EMPIRE_C', 00H		; `string'
CONST	ENDS
;	COMDAT ??_C@_08HPFPLIJI@EMPIRE_B@
CONST	SEGMENT
??_C@_08HPFPLIJI@EMPIRE_B@ DB 'EMPIRE_B', 00H		; `string'
CONST	ENDS
;	COMDAT ??_C@_08FEHCOLFL@EMPIRE_A@
CONST	SEGMENT
??_C@_08FEHCOLFL@EMPIRE_A@ DB 'EMPIRE_A', 00H		; `string'
CONST	ENDS
;	COMDAT ??_C@_0BE@FCDHFIHM@SERVER_COMMAND_QUIT@
CONST	SEGMENT
??_C@_0BE@FCDHFIHM@SERVER_COMMAND_QUIT@ DB 'SERVER_COMMAND_QUIT', 00H ; `string'
CONST	ENDS
;	COMDAT ??_C@_0CK@IDBHOJE@SERVER_COMMAND_RETURN_TO_SELECT@
CONST	SEGMENT
??_C@_0CK@IDBHOJE@SERVER_COMMAND_RETURN_TO_SELECT@ DB 'SERVER_COMMAND_RET'
	DB	'URN_TO_SELECT_CHARACTER', 00H		; `string'
CONST	ENDS
;	COMDAT ??_C@_0BH@IJCJGIEO@SERVER_COMMAND_LOG_OUT@
CONST	SEGMENT
??_C@_0BH@IJCJGIEO@SERVER_COMMAND_LOG_OUT@ DB 'SERVER_COMMAND_LOG_OUT', 00H ; `string'
CONST	ENDS
;	COMDAT ??_C@_0BM@BPKEDCMB@ACCOUNT_CHARACTER_SLOT_HAIR@
CONST	SEGMENT
??_C@_0BM@BPKEDCMB@ACCOUNT_CHARACTER_SLOT_HAIR@ DB 'ACCOUNT_CHARACTER_SLO'
	DB	'T_HAIR', 00H				; `string'
CONST	ENDS
;	COMDAT ??_C@_0CI@NIHCCHJE@ACCOUNT_CHARACTER_SLOT_CHANGE_N@
CONST	SEGMENT
??_C@_0CI@NIHCCHJE@ACCOUNT_CHARACTER_SLOT_CHANGE_N@ DB 'ACCOUNT_CHARACTER'
	DB	'_SLOT_CHANGE_NAME_FLAG', 00H		; `string'
CONST	ENDS
;	COMDAT ??_C@_0CC@HMBBCNEO@ACCOUNT_CHARACTER_SLOT_GUILD_NA@
CONST	SEGMENT
??_C@_0CC@HMBBCNEO@ACCOUNT_CHARACTER_SLOT_GUILD_NA@ DB 'ACCOUNT_CHARACTER'
	DB	'_SLOT_GUILD_NAME', 00H			; `string'
CONST	ENDS
;	COMDAT ??_C@_0CA@GFKKICFN@ACCOUNT_CHARACTER_SLOT_GUILD_ID@
CONST	SEGMENT
??_C@_0CA@GFKKICFN@ACCOUNT_CHARACTER_SLOT_GUILD_ID@ DB 'ACCOUNT_CHARACTER'
	DB	'_SLOT_GUILD_ID', 00H			; `string'
CONST	ENDS
;	COMDAT ??_C@_0BM@OJMCHCKG@ACCOUNT_CHARACTER_SLOT_PORT@
CONST	SEGMENT
??_C@_0BM@OJMCHCKG@ACCOUNT_CHARACTER_SLOT_PORT@ DB 'ACCOUNT_CHARACTER_SLO'
	DB	'T_PORT', 00H				; `string'
CONST	ENDS
;	COMDAT ??_C@_0BM@CNLCDDNB@ACCOUNT_CHARACTER_SLOT_ADDR@
CONST	SEGMENT
??_C@_0BM@CNLCDDNB@ACCOUNT_CHARACTER_SLOT_ADDR@ DB 'ACCOUNT_CHARACTER_SLO'
	DB	'T_ADDR', 00H				; `string'
CONST	ENDS
;	COMDAT ??_C@_0BM@JNGCLJJM@ACCOUNT_CHARACTER_SLOT_FORM@
CONST	SEGMENT
??_C@_0BM@JNGCLJJM@ACCOUNT_CHARACTER_SLOT_FORM@ DB 'ACCOUNT_CHARACTER_SLO'
	DB	'T_FORM', 00H				; `string'
CONST	ENDS
;	COMDAT ??_C@_0CA@KFILFMPG@ACCOUNT_CHARACTER_SLOT_PLAYTIME@
CONST	SEGMENT
??_C@_0CA@KFILFMPG@ACCOUNT_CHARACTER_SLOT_PLAYTIME@ DB 'ACCOUNT_CHARACTER'
	DB	'_SLOT_PLAYTIME', 00H			; `string'
CONST	ENDS
;	COMDAT ??_C@_0BL@PICCMPNB@ACCOUNT_CHARACTER_SLOT_HTH@
CONST	SEGMENT
??_C@_0BL@PICCMPNB@ACCOUNT_CHARACTER_SLOT_HTH@ DB 'ACCOUNT_CHARACTER_SLOT'
	DB	'_HTH', 00H					; `string'
CONST	ENDS
;	COMDAT ??_C@_0BL@LHFINDEP@ACCOUNT_CHARACTER_SLOT_INT@
CONST	SEGMENT
??_C@_0BL@LHFINDEP@ACCOUNT_CHARACTER_SLOT_INT@ DB 'ACCOUNT_CHARACTER_SLOT'
	DB	'_INT', 00H					; `string'
CONST	ENDS
;	COMDAT ??_C@_0BL@OFNCKLHP@ACCOUNT_CHARACTER_SLOT_DEX@
CONST	SEGMENT
??_C@_0BL@OFNCKLHP@ACCOUNT_CHARACTER_SLOT_DEX@ DB 'ACCOUNT_CHARACTER_SLOT'
	DB	'_DEX', 00H					; `string'
CONST	ENDS
;	COMDAT ??_C@_0BL@MPBHOFJE@ACCOUNT_CHARACTER_SLOT_STR@
CONST	SEGMENT
??_C@_0BL@MPBHOFJE@ACCOUNT_CHARACTER_SLOT_STR@ DB 'ACCOUNT_CHARACTER_SLOT'
	DB	'_STR', 00H					; `string'
CONST	ENDS
;	COMDAT ??_C@_0BN@MPLCEAPH@ACCOUNT_CHARACTER_SLOT_LEVEL@
CONST	SEGMENT
??_C@_0BN@MPLCEAPH@ACCOUNT_CHARACTER_SLOT_LEVEL@ DB 'ACCOUNT_CHARACTER_SL'
	DB	'OT_LEVEL', 00H				; `string'
CONST	ENDS
;	COMDAT ??_C@_0BM@DNOALMKC@ACCOUNT_CHARACTER_SLOT_RACE@
CONST	SEGMENT
??_C@_0BM@DNOALMKC@ACCOUNT_CHARACTER_SLOT_RACE@ DB 'ACCOUNT_CHARACTER_SLO'
	DB	'T_RACE', 00H				; `string'
CONST	ENDS
;	COMDAT ??_C@_0BM@JCGOOLCL@ACCOUNT_CHARACTER_SLOT_NAME@
CONST	SEGMENT
??_C@_0BM@JCGOOLCL@ACCOUNT_CHARACTER_SLOT_NAME@ DB 'ACCOUNT_CHARACTER_SLO'
	DB	'T_NAME', 00H				; `string'
CONST	ENDS
;	COMDAT ??_C@_0BK@HDGGAJBJ@ACCOUNT_CHARACTER_SLOT_ID@
CONST	SEGMENT
??_C@_0BK@HDGGAJBJ@ACCOUNT_CHARACTER_SLOT_ID@ DB 'ACCOUNT_CHARACTER_SLOT_'
	DB	'ID', 00H					; `string'
CONST	ENDS
;	COMDAT ??_C@_0BC@BCDCNNFP@PHASE_WINDOW_LOGO@
CONST	SEGMENT
??_C@_0BC@BCDCNNFP@PHASE_WINDOW_LOGO@ DB 'PHASE_WINDOW_LOGO', 00H ; `string'
CONST	ENDS
;	COMDAT ??_C@_0BE@IIMEMMI@PHASE_WINDOW_EMPIRE@
CONST	SEGMENT
??_C@_0BE@IIMEMMI@PHASE_WINDOW_EMPIRE@ DB 'PHASE_WINDOW_EMPIRE', 00H ; `string'
CONST	ENDS
;	COMDAT ??_C@_0BC@HCEFPGCB@PHASE_WINDOW_GAME@
CONST	SEGMENT
??_C@_0BC@HCEFPGCB@PHASE_WINDOW_GAME@ DB 'PHASE_WINDOW_GAME', 00H ; `string'
CONST	ENDS
;	COMDAT ??_C@_0BC@PFELHICG@PHASE_WINDOW_LOAD@
CONST	SEGMENT
??_C@_0BC@PFELHICG@PHASE_WINDOW_LOAD@ DB 'PHASE_WINDOW_LOAD', 00H ; `string'
CONST	ENDS
;	COMDAT ??_C@_0BE@PAOFIFBD@PHASE_WINDOW_CREATE@
CONST	SEGMENT
??_C@_0BE@PAOFIFBD@PHASE_WINDOW_CREATE@ DB 'PHASE_WINDOW_CREATE', 00H ; `string'
CONST	ENDS
;	COMDAT ??_C@_0BE@EBCKEIDN@PHASE_WINDOW_SELECT@
CONST	SEGMENT
??_C@_0BE@EBCKEIDN@PHASE_WINDOW_SELECT@ DB 'PHASE_WINDOW_SELECT', 00H ; `string'
CONST	ENDS
;	COMDAT ??_C@_0BD@JBLBGAIB@PHASE_WINDOW_LOGIN@
CONST	SEGMENT
??_C@_0BD@JBLBGAIB@PHASE_WINDOW_LOGIN@ DB 'PHASE_WINDOW_LOGIN', 00H ; `string'
CONST	ENDS
;	COMDAT ??_C@_0CA@JMHMMKLO@ERROR_MARK_CHECK_NEED_RECONNECT@
CONST	SEGMENT
??_C@_0CA@JMHMMKLO@ERROR_MARK_CHECK_NEED_RECONNECT@ DB 'ERROR_MARK_CHECK_'
	DB	'NEED_RECONNECT', 00H			; `string'
CONST	ENDS
;	COMDAT ??_C@_0CB@BOPIDGGI@ERROR_MARK_UPLOAD_NEED_RECONNEC@
CONST	SEGMENT
??_C@_0CB@BOPIDGGI@ERROR_MARK_UPLOAD_NEED_RECONNEC@ DB 'ERROR_MARK_UPLOAD'
	DB	'_NEED_RECONNECT', 00H			; `string'
CONST	ENDS
;	COMDAT ??_C@_0BC@GOIIBBEJ@ERROR_MARK_HEIGHT@
CONST	SEGMENT
??_C@_0BC@GOIIBBEJ@ERROR_MARK_HEIGHT@ DB 'ERROR_MARK_HEIGHT', 00H ; `string'
CONST	ENDS
;	COMDAT ??_C@_0BB@FEGLKDMB@ERROR_MARK_WIDTH@
CONST	SEGMENT
??_C@_0BB@FEGLKDMB@ERROR_MARK_WIDTH@ DB 'ERROR_MARK_WIDTH', 00H ; `string'
CONST	ENDS
;	COMDAT ??_C@_0BA@NEJKKBEJ@ERROR_LOAD_MARK@
CONST	SEGMENT
??_C@_0BA@NEJKKBEJ@ERROR_LOAD_MARK@ DB 'ERROR_LOAD_MARK', 00H ; `string'
CONST	ENDS
;	COMDAT ??_C@_0BK@BILAANNF@ERROR_CONNECT_MARK_SERVER@
CONST	SEGMENT
??_C@_0BK@BILAANNF@ERROR_CONNECT_MARK_SERVER@ DB 'ERROR_CONNECT_MARK_SERV'
	DB	'ER', 00H					; `string'
CONST	ENDS
;	COMDAT ??_C@_0L@LILDODAP@ERROR_NONE@
CONST	SEGMENT
??_C@_0L@LILDODAP@ERROR_NONE@ DB 'ERROR_NONE', 00H	; `string'
CONST	ENDS
;	COMDAT ??_C@_03NBFOK@net@
CONST	SEGMENT
??_C@_03NBFOK@net@ DB 'net', 00H			; `string'
CONST	ENDS
;	COMDAT ??_C@_0BB@CABIEEGM@RegisterErrorLog@
CONST	SEGMENT
??_C@_0BB@CABIEEGM@RegisterErrorLog@ DB 'RegisterErrorLog', 00H ; `string'
CONST	ENDS
;	COMDAT ??_C@_0BA@ILHNHDAK@RecvGuildSymbol@
CONST	SEGMENT
??_C@_0BA@ILHNHDAK@RecvGuildSymbol@ DB 'RecvGuildSymbol', 00H ; `string'
CONST	ENDS
;	COMDAT ??_C@_0BD@PIFKMNDO@DisconnectUploader@
CONST	SEGMENT
??_C@_0BD@PIFKMNDO@DisconnectUploader@ DB 'DisconnectUploader', 00H ; `string'
CONST	ENDS
;	COMDAT ??_C@_0BA@EGLEIBFB@SendGuildSymbol@
CONST	SEGMENT
??_C@_0BA@EGLEIBFB@SendGuildSymbol@ DB 'SendGuildSymbol', 00H ; `string'
CONST	ENDS
;	COMDAT ??_C@_0BC@NOAKHLIH@SetSkillGroupFake@
CONST	SEGMENT
??_C@_0BC@NOAKHLIH@SetSkillGroupFake@ DB 'SetSkillGroupFake', 00H ; `string'
CONST	ENDS
;	COMDAT ??_C@_0BG@KCIMJDEA@SetEmpireLanguageMode@
CONST	SEGMENT
??_C@_0BG@KCIMJDEA@SetEmpireLanguageMode@ DB 'SetEmpireLanguageMode', 00H ; `string'
CONST	ENDS
;	COMDAT ??_C@_0BG@HLIDKLKJ@SetPacketSequenceMode@
CONST	SEGMENT
??_C@_0BG@HLIDKLKJ@SetPacketSequenceMode@ DB 'SetPacketSequenceMode', 00H ; `string'
CONST	ENDS
;	COMDAT ??_C@_0BF@HEJDCMFH@SendSelectItemPacket@
CONST	SEGMENT
??_C@_0BF@HEJDCMFH@SendSelectItemPacket@ DB 'SendSelectItemPacket', 00H ; `string'
CONST	ENDS
;	COMDAT ??_C@_0BB@MBCAEHJO@SendRefinePacket@
CONST	SEGMENT
??_C@_0BB@MBCAEHJO@SendRefinePacket@ DB 'SendRefinePacket', 00H ; `string'
CONST	ENDS
;	COMDAT ??_C@_0BM@NLIMKJKK@SendRequestRefineInfoPacket@
CONST	SEGMENT
??_C@_0BM@NLIMKJKK@SendRequestRefineInfoPacket@ DB 'SendRequestRefineInfo'
	DB	'Packet', 00H				; `string'
CONST	ENDS
;	COMDAT ??_C@_0BN@BPJGBHPL@SendGuildWithdrawMoneyPacket@
CONST	SEGMENT
??_C@_0BN@BPJGBHPL@SendGuildWithdrawMoneyPacket@ DB 'SendGuildWithdrawMon'
	DB	'eyPacket', 00H				; `string'
CONST	ENDS
;	COMDAT ??_C@_0BM@HDHMFNNO@SendGuildDepositMoneyPacket@
CONST	SEGMENT
??_C@_0BM@HDHMFNNO@SendGuildDepositMoneyPacket@ DB 'SendGuildDepositMoney'
	DB	'Packet', 00H				; `string'
CONST	ENDS
;	COMDAT ??_C@_0BJ@LKJGDIEE@SendGuildChargeGSPPacket@
CONST	SEGMENT
??_C@_0BJ@LKJGDIEE@SendGuildChargeGSPPacket@ DB 'SendGuildChargeGSPPacket'
	DB	00H						; `string'
CONST	ENDS
;	COMDAT ??_C@_0BM@KLBFEJBI@SendGuildInviteAnswerPacket@
CONST	SEGMENT
??_C@_0BM@KLBFEJBI@SendGuildInviteAnswerPacket@ DB 'SendGuildInviteAnswer'
	DB	'Packet', 00H				; `string'
CONST	ENDS
;	COMDAT ??_C@_0CD@BMLIKMKL@SendGuildChangeMemberGeneralPac@
CONST	SEGMENT
??_C@_0CD@BMLIKMKL@SendGuildChangeMemberGeneralPac@ DB 'SendGuildChangeMe'
	DB	'mberGeneralPacket', 00H			; `string'
CONST	ENDS
;	COMDAT ??_C@_0BI@HICDMLJH@SendGuildUseSkillPacket@
CONST	SEGMENT
??_C@_0BI@HICDMLJH@SendGuildUseSkillPacket@ DB 'SendGuildUseSkillPacket', 00H ; `string'
CONST	ENDS
;	COMDAT ??_C@_0CB@KOIDGNFC@SendGuildChangeMemberGradePacke@
CONST	SEGMENT
??_C@_0CB@KOIDGNFC@SendGuildChangeMemberGradePacke@ DB 'SendGuildChangeMe'
	DB	'mberGradePacket', 00H			; `string'
CONST	ENDS
;	COMDAT ??_C@_0BP@BKEOCNGM@SendGuildRefreshCommentsPacket@
CONST	SEGMENT
??_C@_0BP@BKEOCNGM@SendGuildRefreshCommentsPacket@ DB 'SendGuildRefreshCo'
	DB	'mmentsPacket', 00H				; `string'
CONST	ENDS
;	COMDAT ??_C@_0BN@MBNLMFLO@SendGuildDeleteCommentPacket@
CONST	SEGMENT
??_C@_0BN@MBNLMFLO@SendGuildDeleteCommentPacket@ DB 'SendGuildDeleteComme'
	DB	'ntPacket', 00H				; `string'
CONST	ENDS
;	COMDAT ??_C@_0BL@JLEHIONL@SendGuildPostCommentPacket@
CONST	SEGMENT
??_C@_0BL@JLEHIONL@SendGuildPostCommentPacket@ DB 'SendGuildPostCommentPa'
	DB	'cket', 00H					; `string'
CONST	ENDS
;	COMDAT ??_C@_0BF@OAFAHAKB@SendGuildOfferPacket@
CONST	SEGMENT
??_C@_0BF@OAFAHAKB@SendGuildOfferPacket@ DB 'SendGuildOfferPacket', 00H ; `string'
CONST	ENDS
;	COMDAT ??_C@_0CE@EFLFPPCO@SendGuildChangeGradeAuthorityPa@
CONST	SEGMENT
??_C@_0CE@EFLFPPCO@SendGuildChangeGradeAuthorityPa@ DB 'SendGuildChangeGr'
	DB	'adeAuthorityPacket', 00H			; `string'
CONST	ENDS
;	COMDAT ??_C@_0BP@ODLEJFMG@SendGuildChangeGradeNamePacket@
CONST	SEGMENT
??_C@_0BP@ODLEJFMG@SendGuildChangeGradeNamePacket@ DB 'SendGuildChangeGra'
	DB	'deNamePacket', 00H				; `string'
CONST	ENDS
;	COMDAT ??_C@_0BM@GAJEHHNG@SendGuildRemoveMemberPacket@
CONST	SEGMENT
??_C@_0BM@GAJEHHNG@SendGuildRemoveMemberPacket@ DB 'SendGuildRemoveMember'
	DB	'Packet', 00H				; `string'
CONST	ENDS
;	COMDAT ??_C@_0BJ@MFJNIJIJ@SendGuildAddMemberPacket@
CONST	SEGMENT
??_C@_0BJ@MFJNIJIJ@SendGuildAddMemberPacket@ DB 'SendGuildAddMemberPacket'
	DB	00H						; `string'
CONST	ENDS
;	COMDAT ??_C@_0BH@HMDNFHNB@SendQuestConfirmPacket@
CONST	SEGMENT
??_C@_0BH@HMDNFHNB@SendQuestConfirmPacket@ DB 'SendQuestConfirmPacket', 00H ; `string'
CONST	ENDS
;	COMDAT ??_C@_0BL@BJLFPMAE@SendQuestInputStringPacket@
CONST	SEGMENT
??_C@_0BL@BJLFPMAE@SendQuestInputStringPacket@ DB 'SendQuestInputStringPa'
	DB	'cket', 00H					; `string'
CONST	ENDS
;	COMDAT ??_C@_0BK@HLNHPAPM@SendAnswerMakeGuildPacket@
CONST	SEGMENT
??_C@_0BK@HLNHPAPM@SendAnswerMakeGuildPacket@ DB 'SendAnswerMakeGuildPack'
	DB	'et', 00H					; `string'
CONST	ENDS
;	COMDAT ??_C@_0BH@BDNDNKGE@SendMallCheckoutPacket@
CONST	SEGMENT
??_C@_0BH@BDNDNKGE@SendMallCheckoutPacket@ DB 'SendMallCheckoutPacket', 00H ; `string'
CONST	ENDS
;	COMDAT ??_C@_0BK@JMMAEJFJ@SendSafeboxItemMovePacket@
CONST	SEGMENT
??_C@_0BK@JMMAEJFJ@SendSafeboxItemMovePacket@ DB 'SendSafeboxItemMovePack'
	DB	'et', 00H					; `string'
CONST	ENDS
;	COMDAT ??_C@_0BK@LJAMACPE@SendSafeboxCheckoutPacket@
CONST	SEGMENT
??_C@_0BK@LJAMACPE@SendSafeboxCheckoutPacket@ DB 'SendSafeboxCheckoutPack'
	DB	'et', 00H					; `string'
CONST	ENDS
;	COMDAT ??_C@_0BJ@HNJCKALG@SendSafeboxCheckinPacket@
CONST	SEGMENT
??_C@_0BJ@HNJCKALG@SendSafeboxCheckinPacket@ DB 'SendSafeboxCheckinPacket'
	DB	00H						; `string'
CONST	ENDS
;	COMDAT ??_C@_0BP@MLAJADAA@SendSafeboxWithdrawMoneyPacket@
CONST	SEGMENT
??_C@_0BP@MLAJADAA@SendSafeboxWithdrawMoneyPacket@ DB 'SendSafeboxWithdra'
	DB	'wMoneyPacket', 00H				; `string'
CONST	ENDS
;	COMDAT ??_C@_0BL@CAAOLIHO@SendSafeboxSaveMoneyPacket@
CONST	SEGMENT
??_C@_0BL@CAAOLIHO@SendSafeboxSaveMoneyPacket@ DB 'SendSafeboxSaveMoneyPa'
	DB	'cket', 00H					; `string'
CONST	ENDS
;	COMDAT ??_C@_0BJ@JGBOMHFI@SendPartyParameterPacket@
CONST	SEGMENT
??_C@_0BJ@JGBOMHFI@SendPartyParameterPacket@ DB 'SendPartyParameterPacket'
	DB	00H						; `string'
CONST	ENDS
;	COMDAT ??_C@_0BI@EONDHFJL@SendPartyUseSkillPacket@
CONST	SEGMENT
??_C@_0BI@EONDHFJL@SendPartyUseSkillPacket@ DB 'SendPartyUseSkillPacket', 00H ; `string'
CONST	ENDS
;	COMDAT ??_C@_0BI@LNEGCCFH@SendPartySetStatePacket@
CONST	SEGMENT
??_C@_0BI@LNEGCCFH@SendPartySetStatePacket@ DB 'SendPartySetStatePacket', 00H ; `string'
CONST	ENDS
;	COMDAT ??_C@_0BG@JAJGIHK@SendPartyRemovePacket@
CONST	SEGMENT
??_C@_0BG@JAJGIHK@SendPartyRemovePacket@ DB 'SendPartyRemovePacket', 00H ; `string'
CONST	ENDS
;	COMDAT ??_C@_0BE@JHFPDGFP@SendPartyExitPacket@
CONST	SEGMENT
??_C@_0BE@JHFPDGFP@SendPartyExitPacket@ DB 'SendPartyExitPacket', 00H ; `string'
CONST	ENDS
;	COMDAT ??_C@_0BM@PFAFFBJO@SendPartyInviteAnswerPacket@
CONST	SEGMENT
??_C@_0BM@PFAFFBJO@SendPartyInviteAnswerPacket@ DB 'SendPartyInviteAnswer'
	DB	'Packet', 00H				; `string'
CONST	ENDS
;	COMDAT ??_C@_0BG@IFGKMOED@SendPartyInvitePacket@
CONST	SEGMENT
??_C@_0BG@IFGKMOED@SendPartyInvitePacket@ DB 'SendPartyInvitePacket', 00H ; `string'
CONST	ENDS
;	COMDAT ??_C@_0BK@GIIDGGBB@SendMessengerRemovePacket@
CONST	SEGMENT
??_C@_0BK@GIIDGGBB@SendMessengerRemovePacket@ DB 'SendMessengerRemovePack'
	DB	'et', 00H					; `string'
CONST	ENDS
;	COMDAT ??_C@_0BN@MPMOLLL@SendMessengerAddByNamePacket@
CONST	SEGMENT
??_C@_0BN@MPMOLLL@SendMessengerAddByNamePacket@ DB 'SendMessengerAddByNam'
	DB	'ePacket', 00H				; `string'
CONST	ENDS
;	COMDAT ??_C@_0BM@CFLPIFFM@SendMessengerAddByVIDPacket@
CONST	SEGMENT
??_C@_0BM@CFLPIFFM@SendMessengerAddByVIDPacket@ DB 'SendMessengerAddByVID'
	DB	'Packet', 00H				; `string'
CONST	ENDS
;	COMDAT ??_C@_0BH@MCKLKDJM@RegisterEmoticonString@
CONST	SEGMENT
??_C@_0BH@MCKLKDJM@RegisterEmoticonString@ DB 'RegisterEmoticonString', 00H ; `string'
CONST	ENDS
;	COMDAT ??_C@_0BC@FMJHAGEI@SendOnClickPacket@
CONST	SEGMENT
??_C@_0BC@FMJHAGEI@SendOnClickPacket@ DB 'SendOnClickPacket', 00H ; `string'
CONST	ENDS
;	COMDAT ??_C@_0BH@NCONKHHB@SendExchangeExitPacket@
CONST	SEGMENT
??_C@_0BH@NCONKHHB@SendExchangeExitPacket@ DB 'SendExchangeExitPacket', 00H ; `string'
CONST	ENDS
;	COMDAT ??_C@_0BJ@OFKJBLDC@SendExchangeAcceptPacket@
CONST	SEGMENT
??_C@_0BJ@OFKJBLDC@SendExchangeAcceptPacket@ DB 'SendExchangeAcceptPacket'
	DB	00H						; `string'
CONST	ENDS
;	COMDAT ??_C@_0BJ@CGGGIOGM@SendExchangeElkAddPacket@
CONST	SEGMENT
??_C@_0BJ@CGGGIOGM@SendExchangeElkAddPacket@ DB 'SendExchangeElkAddPacket'
	DB	00H						; `string'
CONST	ENDS
;	COMDAT ??_C@_0BK@KKOEHGGC@SendExchangeItemDelPacket@
CONST	SEGMENT
??_C@_0BK@KKOEHGGC@SendExchangeItemDelPacket@ DB 'SendExchangeItemDelPack'
	DB	'et', 00H					; `string'
CONST	ENDS
;	COMDAT ??_C@_0BK@IIFDLCNA@SendExchangeItemAddPacket@
CONST	SEGMENT
??_C@_0BK@IIFDLCNA@SendExchangeItemAddPacket@ DB 'SendExchangeItemAddPack'
	DB	'et', 00H					; `string'
CONST	ENDS
;	COMDAT ??_C@_0BI@BGNKGFKO@SendExchangeStartPacket@
CONST	SEGMENT
??_C@_0BI@BGNKGFKO@SendExchangeStartPacket@ DB 'SendExchangeStartPacket', 00H ; `string'
CONST	ENDS
;	COMDAT ??_C@_0BG@BGJEIPGN@SendShopSellPacketNew@
CONST	SEGMENT
??_C@_0BG@BGJEIPGN@SendShopSellPacketNew@ DB 'SendShopSellPacketNew', 00H ; `string'
CONST	ENDS
;	COMDAT ??_C@_0BD@BFMEHPEE@SendShopSellPacket@
CONST	SEGMENT
??_C@_0BD@BFMEHPEE@SendShopSellPacket@ DB 'SendShopSellPacket', 00H ; `string'
CONST	ENDS
;	COMDAT ??_C@_0BC@FPBLEBCL@SendShopBuyPacket@
CONST	SEGMENT
??_C@_0BC@FPBLEBCL@SendShopBuyPacket@ DB 'SendShopBuyPacket', 00H ; `string'
CONST	ENDS
;	COMDAT ??_C@_0BC@HEOMKCAE@SendShopEndPacket@
CONST	SEGMENT
??_C@_0BC@HEOMKCAE@SendShopEndPacket@ DB 'SendShopEndPacket', 00H ; `string'
CONST	ENDS
;	COMDAT ??_C@_0BM@KAMAKIKL@SendCharacterPositionPacket@
CONST	SEGMENT
??_C@_0BM@KAMAKIKL@SendCharacterPositionPacket@ DB 'SendCharacterPosition'
	DB	'Packet', 00H				; `string'
CONST	ENDS
;	COMDAT ??_C@_0BI@BFCIMAOL@SendMobileMessagePacket@
CONST	SEGMENT
??_C@_0BI@BFCIMAOL@SendMobileMessagePacket@ DB 'SendMobileMessagePacket', 00H ; `string'
CONST	ENDS
;	COMDAT ??_C@_0BC@KNMEABPD@SendWhisperPacket@
CONST	SEGMENT
??_C@_0BC@KNMEABPD@SendWhisperPacket@ DB 'SendWhisperPacket', 00H ; `string'
CONST	ENDS
;	COMDAT ??_C@_0N@BJHGOHPC@SendEmoticon@
CONST	SEGMENT
??_C@_0N@BJHGOHPC@SendEmoticon@ DB 'SendEmoticon', 00H	; `string'
CONST	ENDS
;	COMDAT ??_C@_0P@FJOINOIH@SendChatPacket@
CONST	SEGMENT
??_C@_0P@FJOINOIH@SendChatPacket@ DB 'SendChatPacket', 00H ; `string'
CONST	ENDS
;	COMDAT ??_C@_09HENONEEN@IsConnect@
CONST	SEGMENT
??_C@_09HENONEEN@IsConnect@ DB 'IsConnect', 00H		; `string'
CONST	ENDS
;	COMDAT ??_C@_0L@CMGJAGDM@Disconnect@
CONST	SEGMENT
??_C@_0L@CMGJAGDM@Disconnect@ DB 'Disconnect', 00H	; `string'
CONST	ENDS
;	COMDAT ??_C@_0BA@NKMDDBDL@SetOfflinePhase@
CONST	SEGMENT
??_C@_0BA@NKMDDBDL@SetOfflinePhase@ DB 'SetOfflinePhase', 00H ; `string'
CONST	ENDS
;	COMDAT ??_C@_0BD@FMAJCJM@SendGiveItemPacket@
CONST	SEGMENT
??_C@_0BD@FMAJCJM@SendGiveItemPacket@ DB 'SendGiveItemPacket', 00H ; `string'
CONST	ENDS
;	COMDAT ??_C@_0BF@PJHEIMI@SendItemPickUpPacket@
CONST	SEGMENT
??_C@_0BF@PJHEIMI@SendItemPickUpPacket@ DB 'SendItemPickUpPacket', 00H ; `string'
CONST	ENDS
;	COMDAT ??_C@_0BD@BPAFBGKI@SendItemMovePacket@
CONST	SEGMENT
??_C@_0BD@BPAFBGKI@SendItemMovePacket@ DB 'SendItemMovePacket', 00H ; `string'
CONST	ENDS
;	COMDAT ??_C@_0BG@ONKCIEDE@SendGoldDropPacketNew@
CONST	SEGMENT
??_C@_0BG@ONKCIEDE@SendGoldDropPacketNew@ DB 'SendGoldDropPacketNew', 00H ; `string'
CONST	ENDS
;	COMDAT ??_C@_0BC@NEDFAOHK@SendElkDropPacket@
CONST	SEGMENT
??_C@_0BC@NEDFAOHK@SendElkDropPacket@ DB 'SendElkDropPacket', 00H ; `string'
CONST	ENDS
;	COMDAT ??_C@_0BG@PNFNACGL@SendItemDropPacketNew@
CONST	SEGMENT
??_C@_0BG@PNFNACGL@SendItemDropPacketNew@ DB 'SendItemDropPacketNew', 00H ; `string'
CONST	ENDS
;	COMDAT ??_C@_0BD@ICCAOJBA@SendItemDropPacket@
CONST	SEGMENT
??_C@_0BD@ICCAOJBA@SendItemDropPacket@ DB 'SendItemDropPacket', 00H ; `string'
CONST	ENDS
;	COMDAT ??_C@_0BI@OBDMDOIB@SendItemUseToItemPacket@
CONST	SEGMENT
??_C@_0BI@OBDMDOIB@SendItemUseToItemPacket@ DB 'SendItemUseToItemPacket', 00H ; `string'
CONST	ENDS
;	COMDAT ??_C@_0BC@NHAKBOCP@SendItemUsePacket@
CONST	SEGMENT
??_C@_0BC@NHAKBOCP@SendItemUsePacket@ DB 'SendItemUsePacket', 00H ; `string'
CONST	ENDS
;	COMDAT ??_C@_0BE@NBECPFPH@SendEnterGamePacket@
CONST	SEGMENT
??_C@_0BE@NBECPFPH@SendEnterGamePacket@ DB 'SendEnterGamePacket', 00H ; `string'
CONST	ENDS
;	COMDAT ??_C@_0BL@PMHPNGGJ@SendDestroyCharacterPacket@
CONST	SEGMENT
??_C@_0BL@PMHPNGGJ@SendDestroyCharacterPacket@ DB 'SendDestroyCharacterPa'
	DB	'cket', 00H					; `string'
CONST	ENDS
;	COMDAT ??_C@_0BK@NPKEAJJ@SendCreateCharacterPacket@
CONST	SEGMENT
??_C@_0BK@NPKEAJJ@SendCreateCharacterPacket@ DB 'SendCreateCharacterPacke'
	DB	't', 00H					; `string'
CONST	ENDS
;	COMDAT ??_C@_0BF@ODLJDBF@SendChangeNamePacket@
CONST	SEGMENT
??_C@_0BF@ODLJDBF@SendChangeNamePacket@ DB 'SendChangeNamePacket', 00H ; `string'
CONST	ENDS
;	COMDAT ??_C@_0BK@MIKAHKDI@SendSelectCharacterPacket@
CONST	SEGMENT
??_C@_0BK@MIKAHKDI@SendSelectCharacterPacket@ DB 'SendSelectCharacterPack'
	DB	'et', 00H					; `string'
CONST	ENDS
;	COMDAT ??_C@_0BH@IIELEKKA@SendSelectEmpirePacket@
CONST	SEGMENT
??_C@_0BH@IIELEKKA@SendSelectEmpirePacket@ DB 'SendSelectEmpirePacket', 00H ; `string'
CONST	ENDS
;	COMDAT ??_C@_0BP@JFBAGMPA@SendNEWCIBNPasspodAnswerPacket@
CONST	SEGMENT
??_C@_0BP@JFBAGMPA@SendNEWCIBNPasspodAnswerPacket@ DB 'SendNEWCIBNPasspod'
	DB	'AnswerPacket', 00H				; `string'
CONST	ENDS
;	COMDAT ??_C@_0BK@KNELICML@SendRunupMatrixCardPacket@
CONST	SEGMENT
??_C@_0BK@KNELICML@SendRunupMatrixCardPacket@ DB 'SendRunupMatrixCardPack'
	DB	'et', 00H					; `string'
CONST	ENDS
;	COMDAT ??_C@_0BK@GJKBNMLJ@SendChinaMatrixCardPacket@
CONST	SEGMENT
??_C@_0BK@GJKBNMLJ@SendChinaMatrixCardPacket@ DB 'SendChinaMatrixCardPack'
	DB	'et', 00H					; `string'
CONST	ENDS
;	COMDAT ??_C@_0BA@CNDIKGCL@SendLoginPacket@
CONST	SEGMENT
??_C@_0BA@CNDIKGCL@SendLoginPacket@ DB 'SendLoginPacket', 00H ; `string'
CONST	ENDS
;	COMDAT ??_C@_0BH@CIOLKAIG@ConnectToAccountServer@
CONST	SEGMENT
??_C@_0BH@CIOLKAIG@ConnectToAccountServer@ DB 'ConnectToAccountServer', 00H ; `string'
CONST	ENDS
;	COMDAT ??_C@_0L@MALJFJNO@ConnectUDP@
CONST	SEGMENT
??_C@_0L@MALJFJNO@ConnectUDP@ DB 'ConnectUDP', 00H	; `string'
CONST	ENDS
;	COMDAT ??_C@_0L@HNEKCIDO@ConnectTCP@
CONST	SEGMENT
??_C@_0L@HNEKCIDO@ConnectTCP@ DB 'ConnectTCP', 00H	; `string'
CONST	ENDS
;	COMDAT ??_C@_0BA@ILFBLEPH@ExitApplication@
CONST	SEGMENT
??_C@_0BA@ILFBLEPH@ExitApplication@ DB 'ExitApplication', 00H ; `string'
CONST	ENDS
;	COMDAT ??_C@_08ENBHLCHD@ExitGame@
CONST	SEGMENT
??_C@_08ENBHLCHD@ExitGame@ DB 'ExitGame', 00H		; `string'
CONST	ENDS
;	COMDAT ??_C@_0L@LPFGMFBP@LogOutGame@
CONST	SEGMENT
??_C@_0L@LPFGMFBP@LogOutGame@ DB 'LogOutGame', 00H	; `string'
CONST	ENDS
;	COMDAT ??_C@_0M@PAACKIAL@DirectEnter@
CONST	SEGMENT
??_C@_0M@PAACKIAL@DirectEnter@ DB 'DirectEnter', 00H	; `string'
CONST	ENDS
;	COMDAT ??_C@_0BF@GPIIIFGB@SetUDPRecvBufferSize@
CONST	SEGMENT
??_C@_0BF@GPIIIFGB@SetUDPRecvBufferSize@ DB 'SetUDPRecvBufferSize', 00H ; `string'
CONST	ENDS
;	COMDAT ??_C@_0BF@LOLMIHDO@SetTCPSendBufferSize@
CONST	SEGMENT
??_C@_0BF@LOLMIHDO@SetTCPSendBufferSize@ DB 'SetTCPSendBufferSize', 00H ; `string'
CONST	ENDS
;	COMDAT ??_C@_0BF@KAEIEPML@SetTCPRecvBufferSize@
CONST	SEGMENT
??_C@_0BF@KAEIEPML@SetTCPRecvBufferSize@ DB 'SetTCPRecvBufferSize', 00H ; `string'
CONST	ENDS
;	COMDAT ??_C@_0L@EELFNDHB@SetHandler@
CONST	SEGMENT
??_C@_0L@EELFNDHB@SetHandler@ DB 'SetHandler', 00H	; `string'
CONST	ENDS
;	COMDAT ??_C@_0BL@NJAILJBB@SetAccountConnectorHandler@
CONST	SEGMENT
??_C@_0BL@NJAILJBB@SetAccountConnectorHandler@ DB 'SetAccountConnectorHan'
	DB	'dler', 00H					; `string'
CONST	ENDS
;	COMDAT ??_C@_0BN@KOOLAHFA@SetServerCommandParserWindow@
CONST	SEGMENT
??_C@_0BN@KOOLAHFA@SetServerCommandParserWindow@ DB 'SetServerCommandPars'
	DB	'erWindow', 00H				; `string'
CONST	ENDS
;	COMDAT ??_C@_0BB@NNDKGCIK@ClearPhaseWindow@
CONST	SEGMENT
??_C@_0BB@NNDKGCIK@ClearPhaseWindow@ DB 'ClearPhaseWindow', 00H ; `string'
CONST	ENDS
;	COMDAT ??_C@_0P@EKNNFAK@SetPhaseWindow@
CONST	SEGMENT
??_C@_0P@EKNNFAK@SetPhaseWindow@ DB 'SetPhaseWindow', 00H ; `string'
CONST	ENDS
;	COMDAT ??_C@_0N@GLEGMFLM@SetLoginInfo@
CONST	SEGMENT
??_C@_0N@GLEGMFLM@SetLoginInfo@ DB 'SetLoginInfo', 00H	; `string'
CONST	ENDS
;	COMDAT ??_C@_0BE@BCCLDKB@ToggleGameDebugInfo@
CONST	SEGMENT
??_C@_0BE@BCCLDKB@ToggleGameDebugInfo@ DB 'ToggleGameDebugInfo', 00H ; `string'
CONST	ENDS
;	COMDAT ??_C@_0BE@MHKBLINM@GetFieldMusicVolume@
CONST	SEGMENT
??_C@_0BE@MHKBLINM@GetFieldMusicVolume@ DB 'GetFieldMusicVolume', 00H ; `string'
CONST	ENDS
;	COMDAT ??_C@_0BG@NAMIDKHD@GetFieldMusicFileName@
CONST	SEGMENT
??_C@_0BG@NAMIDKHD@GetFieldMusicFileName@ DB 'GetFieldMusicFileName', 00H ; `string'
CONST	ENDS
;	COMDAT ??_C@_0CC@DLIFIOE@GetAccountCharacterSlotDataStri@
CONST	SEGMENT
??_C@_0CC@DLIFIOE@GetAccountCharacterSlotDataStri@ DB 'GetAccountCharacte'
	DB	'rSlotDataString', 00H			; `string'
CONST	ENDS
;	COMDAT ??_C@_0CD@PJJNPONG@GetAccountCharacterSlotDataInte@
CONST	SEGMENT
??_C@_0CD@PJJNPONG@GetAccountCharacterSlotDataInte@ DB 'GetAccountCharact'
	DB	'erSlotDataInteger', 00H			; `string'
CONST	ENDS
;	COMDAT ??_C@_0BH@GCCMJIJB@GetMainActorSkillGroup@
CONST	SEGMENT
??_C@_0BH@GCCMJIJB@GetMainActorSkillGroup@ DB 'GetMainActorSkillGroup', 00H ; `string'
CONST	ENDS
;	COMDAT ??_C@_0BD@JOIEFGML@GetMainActorEmpire@
CONST	SEGMENT
??_C@_0BD@JOIEFGML@GetMainActorEmpire@ DB 'GetMainActorEmpire', 00H ; `string'
CONST	ENDS
;	COMDAT ??_C@_0BB@ICEJKPHA@GetMainActorRace@
CONST	SEGMENT
??_C@_0BB@ICEJKPHA@GetMainActorRace@ DB 'GetMainActorRace', 00H ; `string'
CONST	ENDS
;	COMDAT ??_C@_0BA@BPHKBGOL@GetMainActorVID@
CONST	SEGMENT
??_C@_0BA@BPHKBGOL@GetMainActorVID@ DB 'GetMainActorVID', 00H ; `string'
CONST	ENDS
;	COMDAT ??_C@_0M@GGDMINDM@GetEmpireID@
CONST	SEGMENT
??_C@_0M@GGDMINDM@GetEmpireID@ DB 'GetEmpireID', 00H	; `string'
CONST	ENDS
;	COMDAT ??_C@_0L@EAKBLDCO@GetGuildID@
CONST	SEGMENT
??_C@_0L@EAKBLDCO@GetGuildID@ DB 'GetGuildID', 00H	; `string'
CONST	ENDS
;	COMDAT ??_C@_0N@OBKBFHKO@UploadSymbol@
CONST	SEGMENT
??_C@_0N@OBKBFHKO@UploadSymbol@ DB 'UploadSymbol', 00H	; `string'
CONST	ENDS
;	COMDAT ??_C@_0L@JEGFHCJL@UploadMark@
CONST	SEGMENT
??_C@_0L@JEGFHCJL@UploadMark@ DB 'UploadMark', 00H	; `string'
CONST	ENDS
;	COMDAT ??_C@_0P@NAIDDMMD@LoadInsultList@
CONST	SEGMENT
??_C@_0P@NAIDDMMD@LoadInsultList@ DB 'LoadInsultList', 00H ; `string'
CONST	ENDS
;	COMDAT ??_C@_0L@CJJGFLBC@IsInsultIn@
CONST	SEGMENT
??_C@_0L@CJJGFLBC@IsInsultIn@ DB 'IsInsultIn', 00H	; `string'
CONST	ENDS
;	COMDAT ??_C@_0P@EPNPIBON@IsChatInsultIn@
CONST	SEGMENT
??_C@_0P@EPNPIBON@IsChatInsultIn@ DB 'IsChatInsultIn', 00H ; `string'
CONST	ENDS
;	COMDAT ??_C@_0O@OFMEOEDD@SetMarkServer@
CONST	SEGMENT
??_C@_0O@OFMEOEDD@SetMarkServer@ DB 'SetMarkServer', 00H ; `string'
CONST	ENDS
;	COMDAT ??_C@_06OCDJGLIF@IsTest@
CONST	SEGMENT
??_C@_06OCDJGLIF@IsTest@ DB 'IsTest', 00H		; `string'
CONST	ENDS
;	COMDAT ??_C@_04EIDOEOJH@Warp@
CONST	SEGMENT
??_C@_04EIDOEOJH@Warp@ DB 'Warp', 00H			; `string'
CONST	ENDS
;	COMDAT ??_C@_09CFNAMFEF@StartGame@
CONST	SEGMENT
??_C@_09CFNAMFEF@StartGame@ DB 'StartGame', 00H		; `string'
CONST	ENDS
;	COMDAT ??_C@_0BK@PJDKKIPH@GetPreservedServerCommand@
CONST	SEGMENT
??_C@_0BK@PJDKKIPH@GetPreservedServerCommand@ DB 'GetPreservedServerComma'
	DB	'nd', 00H					; `string'
CONST	ENDS
;	COMDAT ??_C@_0BG@NJCKCHAI@PreserveServerCommand@
CONST	SEGMENT
??_C@_0BG@NJCKCHAI@PreserveServerCommand@ DB 'PreserveServerCommand', 00H ; `string'
CONST	ENDS
;	COMDAT ??_C@_0O@ODBJLKOA@GetServerInfo@
CONST	SEGMENT
??_C@_0O@ODBJLKOA@GetServerInfo@ DB 'GetServerInfo', 00H ; `string'
CONST	ENDS
;	COMDAT ??_C@_0O@JMAHAJJH@SetServerInfo@
CONST	SEGMENT
??_C@_0O@JMAHAJJH@SetServerInfo@ DB 'SetServerInfo', 00H ; `string'
CONST	ENDS
;	COMDAT ??_C@_0BH@LKCAJGCH@EnableChatInsultFilter@
CONST	SEGMENT
??_C@_0BH@LKCAJGCH@EnableChatInsultFilter@ DB 'EnableChatInsultFilter', 00H ; `string'
CONST	ENDS
;	COMDAT ??_C@_0BI@HFMJEOAC@GetBettingGuildWarValue@
CONST	SEGMENT
??_C@_0BI@HFMJEOAC@GetBettingGuildWarValue@ DB 'GetBettingGuildWarValue', 00H ; `string'
CONST	ENDS
;	COMDAT ?s_methods@?1??initnet@@YAXXZ@4PAUPyMethodDef@@A
_DATA	SEGMENT
?s_methods@?1??initnet@@YAXXZ@4PAUPyMethodDef@@A DD FLAT:??_C@_0BI@HFMJEOAC@GetBettingGuildWarValue@ ; `initnet'::`2'::s_methods
	DD	FLAT:?netGetBettingGuildWarValue@@YAPAU_object@@PAU1@0@Z
	DD	01H
	ORG $+4
	DD	FLAT:??_C@_0BH@LKCAJGCH@EnableChatInsultFilter@
	DD	FLAT:?netEnableChatInsultFilter@@YAPAU_object@@PAU1@0@Z
	DD	01H
	ORG $+4
	DD	FLAT:??_C@_0O@JMAHAJJH@SetServerInfo@
	DD	FLAT:?netSetServerInfo@@YAPAU_object@@PAU1@0@Z
	DD	01H
	ORG $+4
	DD	FLAT:??_C@_0O@ODBJLKOA@GetServerInfo@
	DD	FLAT:?netGetServerInfo@@YAPAU_object@@PAU1@0@Z
	DD	01H
	ORG $+4
	DD	FLAT:??_C@_0BG@NJCKCHAI@PreserveServerCommand@
	DD	FLAT:?netPreserveServerCommand@@YAPAU_object@@PAU1@0@Z
	DD	01H
	ORG $+4
	DD	FLAT:??_C@_0BK@PJDKKIPH@GetPreservedServerCommand@
	DD	FLAT:?netGetPreservedServerCommand@@YAPAU_object@@PAU1@0@Z
	DD	01H
	ORG $+4
	DD	FLAT:??_C@_09CFNAMFEF@StartGame@
	DD	FLAT:?netStartGame@@YAPAU_object@@PAU1@0@Z
	DD	01H
	ORG $+4
	DD	FLAT:??_C@_04EIDOEOJH@Warp@
	DD	FLAT:?netWarp@@YAPAU_object@@PAU1@0@Z
	DD	01H
	ORG $+4
	DD	FLAT:??_C@_06OCDJGLIF@IsTest@
	DD	FLAT:?netIsTest@@YAPAU_object@@PAU1@0@Z
	DD	01H
	ORG $+4
	DD	FLAT:??_C@_0O@OFMEOEDD@SetMarkServer@
	DD	FLAT:?netSetMarkServer@@YAPAU_object@@PAU1@0@Z
	DD	01H
	ORG $+4
	DD	FLAT:??_C@_0P@EPNPIBON@IsChatInsultIn@
	DD	FLAT:?netIsChatInsultIn@@YAPAU_object@@PAU1@0@Z
	DD	01H
	ORG $+4
	DD	FLAT:??_C@_0L@CJJGFLBC@IsInsultIn@
	DD	FLAT:?netIsInsultIn@@YAPAU_object@@PAU1@0@Z
	DD	01H
	ORG $+4
	DD	FLAT:??_C@_0P@NAIDDMMD@LoadInsultList@
	DD	FLAT:?netLoadInsultList@@YAPAU_object@@PAU1@0@Z
	DD	01H
	ORG $+4
	DD	FLAT:??_C@_0L@JEGFHCJL@UploadMark@
	DD	FLAT:?netUploadMark@@YAPAU_object@@PAU1@0@Z
	DD	01H
	ORG $+4
	DD	FLAT:??_C@_0N@OBKBFHKO@UploadSymbol@
	DD	FLAT:?netUploadSymbol@@YAPAU_object@@PAU1@0@Z
	DD	01H
	ORG $+4
	DD	FLAT:??_C@_0L@EAKBLDCO@GetGuildID@
	DD	FLAT:?netGetGuildID@@YAPAU_object@@PAU1@0@Z
	DD	01H
	ORG $+4
	DD	FLAT:??_C@_0M@GGDMINDM@GetEmpireID@
	DD	FLAT:?netGetEmpireID@@YAPAU_object@@PAU1@0@Z
	DD	01H
	ORG $+4
	DD	FLAT:??_C@_0BA@BPHKBGOL@GetMainActorVID@
	DD	FLAT:?netGetMainActorVID@@YAPAU_object@@PAU1@0@Z
	DD	01H
	ORG $+4
	DD	FLAT:??_C@_0BB@ICEJKPHA@GetMainActorRace@
	DD	FLAT:?netGetMainActorRace@@YAPAU_object@@PAU1@0@Z
	DD	01H
	ORG $+4
	DD	FLAT:??_C@_0BD@JOIEFGML@GetMainActorEmpire@
	DD	FLAT:?netGetMainActorEmpire@@YAPAU_object@@PAU1@0@Z
	DD	01H
	ORG $+4
	DD	FLAT:??_C@_0BH@GCCMJIJB@GetMainActorSkillGroup@
	DD	FLAT:?netGetMainActorSkillGroup@@YAPAU_object@@PAU1@0@Z
	DD	01H
	ORG $+4
	DD	FLAT:??_C@_0CD@PJJNPONG@GetAccountCharacterSlotDataInte@
	DD	FLAT:?netGetAccountCharacterSlotDataInteger@@YAPAU_object@@PAU1@0@Z
	DD	01H
	ORG $+4
	DD	FLAT:??_C@_0CC@DLIFIOE@GetAccountCharacterSlotDataStri@
	DD	FLAT:?netGetAccountCharacterSlotDataString@@YAPAU_object@@PAU1@0@Z
	DD	01H
	ORG $+4
	DD	FLAT:??_C@_0BG@NAMIDKHD@GetFieldMusicFileName@
	DD	FLAT:?netGetFieldMusicFileName@@YAPAU_object@@PAU1@0@Z
	DD	01H
	ORG $+4
	DD	FLAT:??_C@_0BE@MHKBLINM@GetFieldMusicVolume@
	DD	FLAT:?netGetFieldMusicVolume@@YAPAU_object@@PAU1@0@Z
	DD	01H
	ORG $+4
	DD	FLAT:??_C@_0BE@BCCLDKB@ToggleGameDebugInfo@
	DD	FLAT:?netToggleGameDebugInfo@@YAPAU_object@@PAU1@0@Z
	DD	01H
	ORG $+4
	DD	FLAT:??_C@_0N@GLEGMFLM@SetLoginInfo@
	DD	FLAT:?netSetLoginInfo@@YAPAU_object@@PAU1@0@Z
	DD	01H
	ORG $+4
	DD	FLAT:??_C@_0P@EKNNFAK@SetPhaseWindow@
	DD	FLAT:?netSetPhaseWindow@@YAPAU_object@@PAU1@0@Z
	DD	01H
	ORG $+4
	DD	FLAT:??_C@_0BB@NNDKGCIK@ClearPhaseWindow@
	DD	FLAT:?netClearPhaseWindow@@YAPAU_object@@PAU1@0@Z
	DD	01H
	ORG $+4
	DD	FLAT:??_C@_0BN@KOOLAHFA@SetServerCommandParserWindow@
	DD	FLAT:?netSetServerCommandParserWindow@@YAPAU_object@@PAU1@0@Z
	DD	01H
	ORG $+4
	DD	FLAT:??_C@_0BL@NJAILJBB@SetAccountConnectorHandler@
	DD	FLAT:?netSetAccountConnectorHandler@@YAPAU_object@@PAU1@0@Z
	DD	01H
	ORG $+4
	DD	FLAT:??_C@_0L@EELFNDHB@SetHandler@
	DD	FLAT:?netSetHandler@@YAPAU_object@@PAU1@0@Z
	DD	01H
	ORG $+4
	DD	FLAT:??_C@_0BF@KAEIEPML@SetTCPRecvBufferSize@
	DD	FLAT:?netSetTCPRecvBufferSize@@YAPAU_object@@PAU1@0@Z
	DD	01H
	ORG $+4
	DD	FLAT:??_C@_0BF@LOLMIHDO@SetTCPSendBufferSize@
	DD	FLAT:?netSetTCPSendBufferSize@@YAPAU_object@@PAU1@0@Z
	DD	01H
	ORG $+4
	DD	FLAT:??_C@_0BF@GPIIIFGB@SetUDPRecvBufferSize@
	DD	FLAT:?netSetUDPRecvBufferSize@@YAPAU_object@@PAU1@0@Z
	DD	01H
	ORG $+4
	DD	FLAT:??_C@_0M@PAACKIAL@DirectEnter@
	DD	FLAT:?netDirectEnter@@YAPAU_object@@PAU1@0@Z
	DD	01H
	ORG $+4
	DD	FLAT:??_C@_0L@LPFGMFBP@LogOutGame@
	DD	FLAT:?netLogOutGame@@YAPAU_object@@PAU1@0@Z
	DD	01H
	ORG $+4
	DD	FLAT:??_C@_08ENBHLCHD@ExitGame@
	DD	FLAT:?netExitGame@@YAPAU_object@@PAU1@0@Z
	DD	01H
	ORG $+4
	DD	FLAT:??_C@_0BA@ILFBLEPH@ExitApplication@
	DD	FLAT:?netExitApplication@@YAPAU_object@@PAU1@0@Z
	DD	01H
	ORG $+4
	DD	FLAT:??_C@_0L@HNEKCIDO@ConnectTCP@
	DD	FLAT:?netConnectTCP@@YAPAU_object@@PAU1@0@Z
	DD	01H
	ORG $+4
	DD	FLAT:??_C@_0L@MALJFJNO@ConnectUDP@
	DD	FLAT:?netConnectUDP@@YAPAU_object@@PAU1@0@Z
	DD	01H
	ORG $+4
	DD	FLAT:??_C@_0BH@CIOLKAIG@ConnectToAccountServer@
	DD	FLAT:?netConnectToAccountServer@@YAPAU_object@@PAU1@0@Z
	DD	01H
	ORG $+4
	DD	FLAT:??_C@_0BA@CNDIKGCL@SendLoginPacket@
	DD	FLAT:?netSendLoginPacket@@YAPAU_object@@PAU1@0@Z
	DD	01H
	ORG $+4
	DD	FLAT:??_C@_0BK@GJKBNMLJ@SendChinaMatrixCardPacket@
	DD	FLAT:?netSendChinaMatrixCardPacket@@YAPAU_object@@PAU1@0@Z
	DD	01H
	ORG $+4
	DD	FLAT:??_C@_0BK@KNELICML@SendRunupMatrixCardPacket@
	DD	FLAT:?netSendRunupMatrixCardPacket@@YAPAU_object@@PAU1@0@Z
	DD	01H
	ORG $+4
	DD	FLAT:??_C@_0BP@JFBAGMPA@SendNEWCIBNPasspodAnswerPacket@
	DD	FLAT:?netSendNEWCIBNPasspodAnswerPacket@@YAPAU_object@@PAU1@0@Z
	DD	01H
	ORG $+4
	DD	FLAT:??_C@_0BH@IIELEKKA@SendSelectEmpirePacket@
	DD	FLAT:?netSendSelectEmpirePacket@@YAPAU_object@@PAU1@0@Z
	DD	01H
	ORG $+4
	DD	FLAT:??_C@_0BK@MIKAHKDI@SendSelectCharacterPacket@
	DD	FLAT:?netSendSelectCharacterPacket@@YAPAU_object@@PAU1@0@Z
	DD	01H
	ORG $+4
	DD	FLAT:??_C@_0BF@ODLJDBF@SendChangeNamePacket@
	DD	FLAT:?netSendChangeNamePacket@@YAPAU_object@@PAU1@0@Z
	DD	01H
	ORG $+4
	DD	FLAT:??_C@_0BK@NPKEAJJ@SendCreateCharacterPacket@
	DD	FLAT:?netSendCreateCharacterPacket@@YAPAU_object@@PAU1@0@Z
	DD	01H
	ORG $+4
	DD	FLAT:??_C@_0BL@PMHPNGGJ@SendDestroyCharacterPacket@
	DD	FLAT:?netSendDestroyCharacterPacket@@YAPAU_object@@PAU1@0@Z
	DD	01H
	ORG $+4
	DD	FLAT:??_C@_0BE@NBECPFPH@SendEnterGamePacket@
	DD	FLAT:?netSendEnterGamePacket@@YAPAU_object@@PAU1@0@Z
	DD	01H
	ORG $+4
	DD	FLAT:??_C@_0BC@NHAKBOCP@SendItemUsePacket@
	DD	FLAT:?netSendItemUsePacket@@YAPAU_object@@PAU1@0@Z
	DD	01H
	ORG $+4
	DD	FLAT:??_C@_0BI@OBDMDOIB@SendItemUseToItemPacket@
	DD	FLAT:?netSendItemUseToItemPacket@@YAPAU_object@@PAU1@0@Z
	DD	01H
	ORG $+4
	DD	FLAT:??_C@_0BD@ICCAOJBA@SendItemDropPacket@
	DD	FLAT:?netSendItemDropPacket@@YAPAU_object@@PAU1@0@Z
	DD	01H
	ORG $+4
	DD	FLAT:??_C@_0BG@PNFNACGL@SendItemDropPacketNew@
	DD	FLAT:?netSendItemDropPacketNew@@YAPAU_object@@PAU1@0@Z
	DD	01H
	ORG $+4
	DD	FLAT:??_C@_0BC@NEDFAOHK@SendElkDropPacket@
	DD	FLAT:?netSendElkDropPacket@@YAPAU_object@@PAU1@0@Z
	DD	01H
	ORG $+4
	DD	FLAT:??_C@_0BG@ONKCIEDE@SendGoldDropPacketNew@
	DD	FLAT:?netSendGoldDropPacketNew@@YAPAU_object@@PAU1@0@Z
	DD	01H
	ORG $+4
	DD	FLAT:??_C@_0BD@BPAFBGKI@SendItemMovePacket@
	DD	FLAT:?netSendItemMovePacket@@YAPAU_object@@PAU1@0@Z
	DD	01H
	ORG $+4
	DD	FLAT:??_C@_0BF@PJHEIMI@SendItemPickUpPacket@
	DD	FLAT:?netSendItemPickUpPacket@@YAPAU_object@@PAU1@0@Z
	DD	01H
	ORG $+4
	DD	FLAT:??_C@_0BD@FMAJCJM@SendGiveItemPacket@
	DD	FLAT:?netSendGiveItemPacket@@YAPAU_object@@PAU1@0@Z
	DD	01H
	ORG $+4
	DD	FLAT:??_C@_0BA@NKMDDBDL@SetOfflinePhase@
	DD	FLAT:?netSetOfflinePhase@@YAPAU_object@@PAU1@0@Z
	DD	01H
	ORG $+4
	DD	FLAT:??_C@_0L@CMGJAGDM@Disconnect@
	DD	FLAT:?netDisconnect@@YAPAU_object@@PAU1@0@Z
	DD	01H
	ORG $+4
	DD	FLAT:??_C@_09HENONEEN@IsConnect@
	DD	FLAT:?netIsConnect@@YAPAU_object@@PAU1@0@Z
	DD	01H
	ORG $+4
	DD	FLAT:??_C@_0P@FJOINOIH@SendChatPacket@
	DD	FLAT:?netSendChatPacket@@YAPAU_object@@PAU1@0@Z
	DD	01H
	ORG $+4
	DD	FLAT:??_C@_0N@BJHGOHPC@SendEmoticon@
	DD	FLAT:?netSendEmoticon@@YAPAU_object@@PAU1@0@Z
	DD	01H
	ORG $+4
	DD	FLAT:??_C@_0BC@KNMEABPD@SendWhisperPacket@
	DD	FLAT:?netSendWhisperPacket@@YAPAU_object@@PAU1@0@Z
	DD	01H
	ORG $+4
	DD	FLAT:??_C@_0BI@BFCIMAOL@SendMobileMessagePacket@
	DD	FLAT:?netSendMobileMessagePacket@@YAPAU_object@@PAU1@0@Z
	DD	01H
	ORG $+4
	DD	FLAT:??_C@_0BM@KAMAKIKL@SendCharacterPositionPacket@
	DD	FLAT:?netSendCharacterPositionPacket@@YAPAU_object@@PAU1@0@Z
	DD	01H
	ORG $+4
	DD	FLAT:??_C@_0BC@HEOMKCAE@SendShopEndPacket@
	DD	FLAT:?netSendShopEndPacket@@YAPAU_object@@PAU1@0@Z
	DD	01H
	ORG $+4
	DD	FLAT:??_C@_0BC@FPBLEBCL@SendShopBuyPacket@
	DD	FLAT:?netSendShopBuyPacket@@YAPAU_object@@PAU1@0@Z
	DD	01H
	ORG $+4
	DD	FLAT:??_C@_0BD@BFMEHPEE@SendShopSellPacket@
	DD	FLAT:?netSendShopSellPacket@@YAPAU_object@@PAU1@0@Z
	DD	01H
	ORG $+4
	DD	FLAT:??_C@_0BG@BGJEIPGN@SendShopSellPacketNew@
	DD	FLAT:?netSendShopSellPacketNew@@YAPAU_object@@PAU1@0@Z
	DD	01H
	ORG $+4
	DD	FLAT:??_C@_0BI@BGNKGFKO@SendExchangeStartPacket@
	DD	FLAT:?netSendExchangeStartPacket@@YAPAU_object@@PAU1@0@Z
	DD	01H
	ORG $+4
	DD	FLAT:??_C@_0BK@IIFDLCNA@SendExchangeItemAddPacket@
	DD	FLAT:?netSendExchangeItemAddPacket@@YAPAU_object@@PAU1@0@Z
	DD	01H
	ORG $+4
	DD	FLAT:??_C@_0BK@KKOEHGGC@SendExchangeItemDelPacket@
	DD	FLAT:?netSendExchangeItemDelPacket@@YAPAU_object@@PAU1@0@Z
	DD	01H
	ORG $+4
	DD	FLAT:??_C@_0BJ@CGGGIOGM@SendExchangeElkAddPacket@
	DD	FLAT:?netSendExchangeElkAddPacket@@YAPAU_object@@PAU1@0@Z
	DD	01H
	ORG $+4
	DD	FLAT:??_C@_0BJ@OFKJBLDC@SendExchangeAcceptPacket@
	DD	FLAT:?netSendExchangeAcceptPacket@@YAPAU_object@@PAU1@0@Z
	DD	01H
	ORG $+4
	DD	FLAT:??_C@_0BH@NCONKHHB@SendExchangeExitPacket@
	DD	FLAT:?netSendExchangeExitPacket@@YAPAU_object@@PAU1@0@Z
	DD	01H
	ORG $+4
	DD	FLAT:??_C@_0BC@FMJHAGEI@SendOnClickPacket@
	DD	FLAT:?netOnClickPacket@@YAPAU_object@@PAU1@0@Z
	DD	01H
	ORG $+4
	DD	FLAT:??_C@_0BH@MCKLKDJM@RegisterEmoticonString@
	DD	FLAT:?netRegisterEmoticonString@@YAPAU_object@@PAU1@0@Z
	DD	01H
	ORG $+4
	DD	FLAT:??_C@_0BM@CFLPIFFM@SendMessengerAddByVIDPacket@
	DD	FLAT:?netSendMessengerAddByVIDPacket@@YAPAU_object@@PAU1@0@Z
	DD	01H
	ORG $+4
	DD	FLAT:??_C@_0BN@MPMOLLL@SendMessengerAddByNamePacket@
	DD	FLAT:?netSendMessengerAddByNamePacket@@YAPAU_object@@PAU1@0@Z
	DD	01H
	ORG $+4
	DD	FLAT:??_C@_0BK@GIIDGGBB@SendMessengerRemovePacket@
	DD	FLAT:?netSendMessengerRemovePacket@@YAPAU_object@@PAU1@0@Z
	DD	01H
	ORG $+4
	DD	FLAT:??_C@_0BG@IFGKMOED@SendPartyInvitePacket@
	DD	FLAT:?netSendPartyInvitePacket@@YAPAU_object@@PAU1@0@Z
	DD	01H
	ORG $+4
	DD	FLAT:??_C@_0BM@PFAFFBJO@SendPartyInviteAnswerPacket@
	DD	FLAT:?netSendPartyInviteAnswerPacket@@YAPAU_object@@PAU1@0@Z
	DD	01H
	ORG $+4
	DD	FLAT:??_C@_0BE@JHFPDGFP@SendPartyExitPacket@
	DD	FLAT:?netSendPartyExitPacket@@YAPAU_object@@PAU1@0@Z
	DD	01H
	ORG $+4
	DD	FLAT:??_C@_0BG@JAJGIHK@SendPartyRemovePacket@
	DD	FLAT:?netSendPartyRemovePacket@@YAPAU_object@@PAU1@0@Z
	DD	01H
	ORG $+4
	DD	FLAT:??_C@_0BI@LNEGCCFH@SendPartySetStatePacket@
	DD	FLAT:?netSendPartySetStatePacket@@YAPAU_object@@PAU1@0@Z
	DD	01H
	ORG $+4
	DD	FLAT:??_C@_0BI@EONDHFJL@SendPartyUseSkillPacket@
	DD	FLAT:?netSendPartyUseSkillPacket@@YAPAU_object@@PAU1@0@Z
	DD	01H
	ORG $+4
	DD	FLAT:??_C@_0BJ@JGBOMHFI@SendPartyParameterPacket@
	DD	FLAT:?netSendPartyParameterPacket@@YAPAU_object@@PAU1@0@Z
	DD	01H
	ORG $+4
	DD	FLAT:??_C@_0BL@CAAOLIHO@SendSafeboxSaveMoneyPacket@
	DD	FLAT:?netSendSafeboxSaveMoneyPacket@@YAPAU_object@@PAU1@0@Z
	DD	01H
	ORG $+4
	DD	FLAT:??_C@_0BP@MLAJADAA@SendSafeboxWithdrawMoneyPacket@
	DD	FLAT:?netSendSafeboxWithdrawMoneyPacket@@YAPAU_object@@PAU1@0@Z
	DD	01H
	ORG $+4
	DD	FLAT:??_C@_0BJ@HNJCKALG@SendSafeboxCheckinPacket@
	DD	FLAT:?netSendSafeboxCheckinPacket@@YAPAU_object@@PAU1@0@Z
	DD	01H
	ORG $+4
	DD	FLAT:??_C@_0BK@LJAMACPE@SendSafeboxCheckoutPacket@
	DD	FLAT:?netSendSafeboxCheckoutPacket@@YAPAU_object@@PAU1@0@Z
	DD	01H
	ORG $+4
	DD	FLAT:??_C@_0BK@JMMAEJFJ@SendSafeboxItemMovePacket@
	DD	FLAT:?netSendSafeboxItemMovePacket@@YAPAU_object@@PAU1@0@Z
	DD	01H
	ORG $+4
	DD	FLAT:??_C@_0BH@BDNDNKGE@SendMallCheckoutPacket@
	DD	FLAT:?netSendMallCheckoutPacket@@YAPAU_object@@PAU1@0@Z
	DD	01H
	ORG $+4
	DD	FLAT:??_C@_0BK@HLNHPAPM@SendAnswerMakeGuildPacket@
	DD	FLAT:?netSendAnswerMakeGuildPacket@@YAPAU_object@@PAU1@0@Z
	DD	01H
	ORG $+4
	DD	FLAT:??_C@_0BL@BJLFPMAE@SendQuestInputStringPacket@
	DD	FLAT:?netSendQuestInputStringPacket@@YAPAU_object@@PAU1@0@Z
	DD	01H
	ORG $+4
	DD	FLAT:??_C@_0BH@HMDNFHNB@SendQuestConfirmPacket@
	DD	FLAT:?netSendQuestConfirmPacket@@YAPAU_object@@PAU1@0@Z
	DD	01H
	ORG $+4
	DD	FLAT:??_C@_0BJ@MFJNIJIJ@SendGuildAddMemberPacket@
	DD	FLAT:?netSendGuildAddMemberPacket@@YAPAU_object@@PAU1@0@Z
	DD	01H
	ORG $+4
	DD	FLAT:??_C@_0BM@GAJEHHNG@SendGuildRemoveMemberPacket@
	DD	FLAT:?netSendGuildRemoveMemberPacket@@YAPAU_object@@PAU1@0@Z
	DD	01H
	ORG $+4
	DD	FLAT:??_C@_0BP@ODLEJFMG@SendGuildChangeGradeNamePacket@
	DD	FLAT:?netSendGuildChangeGradeNamePacket@@YAPAU_object@@PAU1@0@Z
	DD	01H
	ORG $+4
	DD	FLAT:??_C@_0CE@EFLFPPCO@SendGuildChangeGradeAuthorityPa@
	DD	FLAT:?netSendGuildChangeGradeAuthorityPacket@@YAPAU_object@@PAU1@0@Z
	DD	01H
	ORG $+4
	DD	FLAT:??_C@_0BF@OAFAHAKB@SendGuildOfferPacket@
	DD	FLAT:?netSendGuildOfferPacket@@YAPAU_object@@PAU1@0@Z
	DD	01H
	ORG $+4
	DD	FLAT:??_C@_0BL@JLEHIONL@SendGuildPostCommentPacket@
	DD	FLAT:?netSnedGuildPostCommentPacket@@YAPAU_object@@PAU1@0@Z
	DD	01H
	ORG $+4
	DD	FLAT:??_C@_0BN@MBNLMFLO@SendGuildDeleteCommentPacket@
	DD	FLAT:?netSnedGuildDeleteCommentPacket@@YAPAU_object@@PAU1@0@Z
	DD	01H
	ORG $+4
	DD	FLAT:??_C@_0BP@BKEOCNGM@SendGuildRefreshCommentsPacket@
	DD	FLAT:?netSendGuildRefreshCommentsPacket@@YAPAU_object@@PAU1@0@Z
	DD	01H
	ORG $+4
	DD	FLAT:??_C@_0CB@KOIDGNFC@SendGuildChangeMemberGradePacke@
	DD	FLAT:?netSendGuildChangeMemberGradePacket@@YAPAU_object@@PAU1@0@Z
	DD	01H
	ORG $+4
	DD	FLAT:??_C@_0BI@HICDMLJH@SendGuildUseSkillPacket@
	DD	FLAT:?netSendGuildUseSkillPacket@@YAPAU_object@@PAU1@0@Z
	DD	01H
	ORG $+4
	DD	FLAT:??_C@_0CD@BMLIKMKL@SendGuildChangeMemberGeneralPac@
	DD	FLAT:?netSendGuildChangeMemberGeneralPacket@@YAPAU_object@@PAU1@0@Z
	DD	01H
	ORG $+4
	DD	FLAT:??_C@_0BM@KLBFEJBI@SendGuildInviteAnswerPacket@
	DD	FLAT:?netSendGuildInviteAnswerPacket@@YAPAU_object@@PAU1@0@Z
	DD	01H
	ORG $+4
	DD	FLAT:??_C@_0BJ@LKJGDIEE@SendGuildChargeGSPPacket@
	DD	FLAT:?netSendGuildChargeGSPPacket@@YAPAU_object@@PAU1@0@Z
	DD	01H
	ORG $+4
	DD	FLAT:??_C@_0BM@HDHMFNNO@SendGuildDepositMoneyPacket@
	DD	FLAT:?netSendGuildDepositMoneyPacket@@YAPAU_object@@PAU1@0@Z
	DD	01H
	ORG $+4
	DD	FLAT:??_C@_0BN@BPJGBHPL@SendGuildWithdrawMoneyPacket@
	DD	FLAT:?netSendGuildWithdrawMoneyPacket@@YAPAU_object@@PAU1@0@Z
	DD	01H
	ORG $+4
	DD	FLAT:??_C@_0BM@NLIMKJKK@SendRequestRefineInfoPacket@
	DD	FLAT:?netSendRequestRefineInfoPacket@@YAPAU_object@@PAU1@0@Z
	DD	01H
	ORG $+4
	DD	FLAT:??_C@_0BB@MBCAEHJO@SendRefinePacket@
	DD	FLAT:?netSendRefinePacket@@YAPAU_object@@PAU1@0@Z
	DD	01H
	ORG $+4
	DD	FLAT:??_C@_0BF@HEJDCMFH@SendSelectItemPacket@
	DD	FLAT:?netSendSelectItemPacket@@YAPAU_object@@PAU1@0@Z
	DD	01H
	ORG $+4
	DD	FLAT:??_C@_0BG@HLIDKLKJ@SetPacketSequenceMode@
	DD	FLAT:?netSetPacketSequenceMode@@YAPAU_object@@PAU1@0@Z
	DD	01H
	ORG $+4
	DD	FLAT:??_C@_0BG@KCIMJDEA@SetEmpireLanguageMode@
	DD	FLAT:?netSetEmpireLanguageMode@@YAPAU_object@@PAU1@0@Z
	DD	01H
	ORG $+4
	DD	FLAT:??_C@_0BC@NOAKHLIH@SetSkillGroupFake@
	DD	FLAT:?netSetSkillGroupFake@@YAPAU_object@@PAU1@0@Z
	DD	01H
	ORG $+4
	DD	FLAT:??_C@_0BA@EGLEIBFB@SendGuildSymbol@
	DD	FLAT:?netSendGuildSymbol@@YAPAU_object@@PAU1@0@Z
	DD	01H
	ORG $+4
	DD	FLAT:??_C@_0BD@PIFKMNDO@DisconnectUploader@
	DD	FLAT:?netDisconnectUploader@@YAPAU_object@@PAU1@0@Z
	DD	01H
	ORG $+4
	DD	FLAT:??_C@_0BA@ILHNHDAK@RecvGuildSymbol@
	DD	FLAT:?netRecvGuildSymbol@@YAPAU_object@@PAU1@0@Z
	DD	01H
	ORG $+4
	DD	FLAT:??_C@_0BB@CABIEEGM@RegisterErrorLog@
	DD	FLAT:?netRegisterErrorLog@@YAPAU_object@@PAU1@0@Z
	DD	01H
	ORG $+4
	DD	00H
	DD	00H
	DD	00H
	ORG $+4
_DATA	ENDS
;	COMDAT ??_C@_0EE@CPCFCFHF@netSendGuildRemoveMemberPacket?$CI@
CONST	SEGMENT
??_C@_0EE@CPCFCFHF@netSendGuildRemoveMemberPacket?$CI@ DB 'netSendGuildRe'
	DB	'moveMemberPacket(szKey=%s) - Can''t Find Guild Member', 0aH, 00H ; `string'
CONST	ENDS
;	COMDAT ??_C@_01INIBCBCB@f@
CONST	SEGMENT
??_C@_01INIBCBCB@f@ DB 'f', 00H				; `string'
CONST	ENDS
;	COMDAT ??_C@_01LKDEMHDF@s@
CONST	SEGMENT
??_C@_01LKDEMHDF@s@ DB 's', 00H				; `string'
CONST	ENDS
;	COMDAT ??_C@_01KBJDNOO@i@
CONST	SEGMENT
??_C@_01KBJDNOO@i@ DB 'i', 00H				; `string'
CONST	ENDS
_DATA	SEGMENT
?gs_stServerInfo@@3V?$basic_string@DU?$char_traits@D@std@@V?$allocator@D@2@@std@@A DB 00H ; gs_stServerInfo
	DB	19 DUP(00H)
	DD	0fH
_DATA	ENDS
;	COMDAT ??_R1A@?0A@EA@bad_array_new_length@std@@8
rdata$r	SEGMENT
??_R1A@?0A@EA@bad_array_new_length@std@@8 DD FLAT:??_R0?AVbad_array_new_length@std@@@8 ; std::bad_array_new_length::`RTTI Base Class Descriptor at (0,-1,0,64)'
	DD	02H
	DD	00H
	DD	0ffffffffH
	DD	00H
	DD	040H
	DD	FLAT:??_R3bad_array_new_length@std@@8
rdata$r	ENDS
;	COMDAT ??_R2bad_array_new_length@std@@8
rdata$r	SEGMENT
??_R2bad_array_new_length@std@@8 DD FLAT:??_R1A@?0A@EA@bad_array_new_length@std@@8 ; std::bad_array_new_length::`RTTI Base Class Array'
	DD	FLAT:??_R1A@?0A@EA@bad_alloc@std@@8
	DD	FLAT:??_R1A@?0A@EA@exception@std@@8
rdata$r	ENDS
;	COMDAT ??_R3bad_array_new_length@std@@8
rdata$r	SEGMENT
??_R3bad_array_new_length@std@@8 DD 00H			; std::bad_array_new_length::`RTTI Class Hierarchy Descriptor'
	DD	00H
	DD	03H
	DD	FLAT:??_R2bad_array_new_length@std@@8
rdata$r	ENDS
;	COMDAT ??_R4bad_array_new_length@std@@6B@
rdata$r	SEGMENT
??_R4bad_array_new_length@std@@6B@ DD 00H		; std::bad_array_new_length::`RTTI Complete Object Locator'
	DD	00H
	DD	00H
	DD	FLAT:??_R0?AVbad_array_new_length@std@@@8
	DD	FLAT:??_R3bad_array_new_length@std@@8
rdata$r	ENDS
;	COMDAT ??_R1A@?0A@EA@bad_alloc@std@@8
rdata$r	SEGMENT
??_R1A@?0A@EA@bad_alloc@std@@8 DD FLAT:??_R0?AVbad_alloc@std@@@8 ; std::bad_alloc::`RTTI Base Class Descriptor at (0,-1,0,64)'
	DD	01H
	DD	00H
	DD	0ffffffffH
	DD	00H
	DD	040H
	DD	FLAT:??_R3bad_alloc@std@@8
rdata$r	ENDS
;	COMDAT ??_R2bad_alloc@std@@8
rdata$r	SEGMENT
??_R2bad_alloc@std@@8 DD FLAT:??_R1A@?0A@EA@bad_alloc@std@@8 ; std::bad_alloc::`RTTI Base Class Array'
	DD	FLAT:??_R1A@?0A@EA@exception@std@@8
rdata$r	ENDS
;	COMDAT ??_R3bad_alloc@std@@8
rdata$r	SEGMENT
??_R3bad_alloc@std@@8 DD 00H				; std::bad_alloc::`RTTI Class Hierarchy Descriptor'
	DD	00H
	DD	02H
	DD	FLAT:??_R2bad_alloc@std@@8
rdata$r	ENDS
;	COMDAT ??_R4bad_alloc@std@@6B@
rdata$r	SEGMENT
??_R4bad_alloc@std@@6B@ DD 00H				; std::bad_alloc::`RTTI Complete Object Locator'
	DD	00H
	DD	00H
	DD	FLAT:??_R0?AVbad_alloc@std@@@8
	DD	FLAT:??_R3bad_alloc@std@@8
rdata$r	ENDS
;	COMDAT ??_R1A@?0A@EA@exception@std@@8
rdata$r	SEGMENT
??_R1A@?0A@EA@exception@std@@8 DD FLAT:??_R0?AVexception@std@@@8 ; std::exception::`RTTI Base Class Descriptor at (0,-1,0,64)'
	DD	00H
	DD	00H
	DD	0ffffffffH
	DD	00H
	DD	040H
	DD	FLAT:??_R3exception@std@@8
rdata$r	ENDS
;	COMDAT ??_R2exception@std@@8
rdata$r	SEGMENT
??_R2exception@std@@8 DD FLAT:??_R1A@?0A@EA@exception@std@@8 ; std::exception::`RTTI Base Class Array'
rdata$r	ENDS
;	COMDAT ??_R3exception@std@@8
rdata$r	SEGMENT
??_R3exception@std@@8 DD 00H				; std::exception::`RTTI Class Hierarchy Descriptor'
	DD	00H
	DD	01H
	DD	FLAT:??_R2exception@std@@8
rdata$r	ENDS
;	COMDAT ??_R4exception@std@@6B@
rdata$r	SEGMENT
??_R4exception@std@@6B@ DD 00H				; std::exception::`RTTI Complete Object Locator'
	DD	00H
	DD	00H
	DD	FLAT:??_R0?AVexception@std@@@8
	DD	FLAT:??_R3exception@std@@8
rdata$r	ENDS
;	COMDAT ??_C@_0BA@FOIKENOD@vector?5too?5long@
CONST	SEGMENT
??_C@_0BA@FOIKENOD@vector?5too?5long@ DB 'vector too long', 00H ; `string'
CONST	ENDS
;	COMDAT ??_C@_00CNPNBAHC@@
CONST	SEGMENT
??_C@_00CNPNBAHC@@ DB 00H				; `string'
CONST	ENDS
;	COMDAT ??_C@_0BA@JFNIOLAK@string?5too?5long@
CONST	SEGMENT
??_C@_0BA@JFNIOLAK@string?5too?5long@ DB 'string too long', 00H ; `string'
CONST	ENDS
;	COMDAT __CT??_R0?AVexception@std@@@8??0exception@std@@QAE@ABV01@@Z12
xdata$x	SEGMENT
__CT??_R0?AVexception@std@@@8??0exception@std@@QAE@ABV01@@Z12 DD 00H
	DD	FLAT:??_R0?AVexception@std@@@8
	DD	00H
	DD	0ffffffffH
	ORG $+4
	DD	0cH
	DD	FLAT:??0exception@std@@QAE@ABV01@@Z
xdata$x	ENDS
;	COMDAT ??_R0?AVexception@std@@@8
data$r	SEGMENT
??_R0?AVexception@std@@@8 DD FLAT:??_7type_info@@6B@	; std::exception `RTTI Type Descriptor'
	DD	00H
	DB	'.?AVexception@std@@', 00H
data$r	ENDS
;	COMDAT __CT??_R0?AVbad_alloc@std@@@8??0bad_alloc@std@@QAE@ABV01@@Z12
xdata$x	SEGMENT
__CT??_R0?AVbad_alloc@std@@@8??0bad_alloc@std@@QAE@ABV01@@Z12 DD 010H
	DD	FLAT:??_R0?AVbad_alloc@std@@@8
	DD	00H
	DD	0ffffffffH
	ORG $+4
	DD	0cH
	DD	FLAT:??0bad_alloc@std@@QAE@ABV01@@Z
xdata$x	ENDS
;	COMDAT ??_R0?AVbad_alloc@std@@@8
data$r	SEGMENT
??_R0?AVbad_alloc@std@@@8 DD FLAT:??_7type_info@@6B@	; std::bad_alloc `RTTI Type Descriptor'
	DD	00H
	DB	'.?AVbad_alloc@std@@', 00H
data$r	ENDS
;	COMDAT __CT??_R0?AVbad_array_new_length@std@@@8??0bad_array_new_length@std@@QAE@ABV01@@Z12
xdata$x	SEGMENT
__CT??_R0?AVbad_array_new_length@std@@@8??0bad_array_new_length@std@@QAE@ABV01@@Z12 DD 00H
	DD	FLAT:??_R0?AVbad_array_new_length@std@@@8
	DD	00H
	DD	0ffffffffH
	ORG $+4
	DD	0cH
	DD	FLAT:??0bad_array_new_length@std@@QAE@ABV01@@Z
xdata$x	ENDS
;	COMDAT ??_R0?AVbad_array_new_length@std@@@8
data$r	SEGMENT
??_R0?AVbad_array_new_length@std@@@8 DD FLAT:??_7type_info@@6B@ ; std::bad_array_new_length `RTTI Type Descriptor'
	DD	00H
	DB	'.?AVbad_array_new_length@std@@', 00H
data$r	ENDS
;	COMDAT __CTA3?AVbad_array_new_length@std@@
xdata$x	SEGMENT
__CTA3?AVbad_array_new_length@std@@ DD 03H
	DD	FLAT:__CT??_R0?AVbad_array_new_length@std@@@8??0bad_array_new_length@std@@QAE@ABV01@@Z12
	DD	FLAT:__CT??_R0?AVbad_alloc@std@@@8??0bad_alloc@std@@QAE@ABV01@@Z12
	DD	FLAT:__CT??_R0?AVexception@std@@@8??0exception@std@@QAE@ABV01@@Z12
xdata$x	ENDS
;	COMDAT __TI3?AVbad_array_new_length@std@@
xdata$x	SEGMENT
__TI3?AVbad_array_new_length@std@@ DD 00H
	DD	FLAT:??1bad_array_new_length@std@@UAE@XZ
	DD	00H
	DD	FLAT:__CTA3?AVbad_array_new_length@std@@
xdata$x	ENDS
;	COMDAT ??_C@_0BF@KINCDENJ@bad?5array?5new?5length@
CONST	SEGMENT
??_C@_0BF@KINCDENJ@bad?5array?5new?5length@ DB 'bad array new length', 00H ; `string'
CONST	ENDS
;	COMDAT ??_7bad_array_new_length@std@@6B@
CONST	SEGMENT
??_7bad_array_new_length@std@@6B@ DD FLAT:??_R4bad_array_new_length@std@@6B@ ; std::bad_array_new_length::`vftable'
	DD	FLAT:??_Ebad_array_new_length@std@@UAEPAXI@Z
	DD	FLAT:?what@exception@std@@UBEPBDXZ
CONST	ENDS
;	COMDAT ??_7bad_alloc@std@@6B@
CONST	SEGMENT
??_7bad_alloc@std@@6B@ DD FLAT:??_R4bad_alloc@std@@6B@	; std::bad_alloc::`vftable'
	DD	FLAT:??_Ebad_alloc@std@@UAEPAXI@Z
	DD	FLAT:?what@exception@std@@UBEPBDXZ
CONST	ENDS
;	COMDAT ??_C@_0BC@EOODALEL@Unknown?5exception@
CONST	SEGMENT
??_C@_0BC@EOODALEL@Unknown?5exception@ DB 'Unknown exception', 00H ; `string'
CONST	ENDS
;	COMDAT ??_7exception@std@@6B@
CONST	SEGMENT
??_7exception@std@@6B@ DD FLAT:??_R4exception@std@@6B@	; std::exception::`vftable'
	DD	FLAT:??_Eexception@std@@UAEPAXI@Z
	DD	FLAT:?what@exception@std@@UBEPBDXZ
CONST	ENDS
;	COMDAT xdata$x
xdata$x	SEGMENT
__unwindtable$??$?0V?$basic_string@DU?$char_traits@D@std@@V?$allocator@D@2@@std@@@?$_List_node_emplace_op2@V?$allocator@U?$_List_node@V?$basic_string@DU?$char_traits@D@std@@V?$allocator@D@2@@std@@PAX@std@@@std@@@std@@QAE@AAV?$allocator@U?$_List_node@V?$basic_string@DU?$char_traits@D@std@@V?$allocator@D@2@@std@@PAX@std@@@1@$$QAV?$basic_string@DU?$char_traits@D@std@@V?$allocator@D@2@@1@@Z DD 0ffffffffH
	DD	FLAT:__unwindfunclet$??$?0V?$basic_string@DU?$char_traits@D@std@@V?$allocator@D@2@@std@@@?$_List_node_emplace_op2@V?$allocator@U?$_List_node@V?$basic_string@DU?$char_traits@D@std@@V?$allocator@D@2@@std@@PAX@std@@@std@@@std@@QAE@AAV?$allocator@U?$_List_node@V?$basic_string@DU?$char_traits@D@std@@V?$allocator@D@2@@std@@PAX@std@@@1@$$QAV?$basic_string@DU?$char_traits@D@std@@V?$allocator@D@2@@1@@Z$0
__ehfuncinfo$??$?0V?$basic_string@DU?$char_traits@D@std@@V?$allocator@D@2@@std@@@?$_List_node_emplace_op2@V?$allocator@U?$_List_node@V?$basic_string@DU?$char_traits@D@std@@V?$allocator@D@2@@std@@PAX@std@@@std@@@std@@QAE@AAV?$allocator@U?$_List_node@V?$basic_string@DU?$char_traits@D@std@@V?$allocator@D@2@@std@@PAX@std@@@1@$$QAV?$basic_string@DU?$char_traits@D@std@@V?$allocator@D@2@@1@@Z DD 019930522H
	DD	01H
	DD	FLAT:__unwindtable$??$?0V?$basic_string@DU?$char_traits@D@std@@V?$allocator@D@2@@std@@@?$_List_node_emplace_op2@V?$allocator@U?$_List_node@V?$basic_string@DU?$char_traits@D@std@@V?$allocator@D@2@@std@@PAX@std@@@std@@@std@@QAE@AAV?$allocator@U?$_List_node@V?$basic_string@DU?$char_traits@D@std@@V?$allocator@D@2@@std@@PAX@std@@@1@$$QAV?$basic_string@DU?$char_traits@D@std@@V?$allocator@D@2@@1@@Z
	DD	2 DUP(00H)
	DD	2 DUP(00H)
	DD	00H
	DD	01H
xdata$x	ENDS
;	COMDAT xdata$x
xdata$x	SEGMENT
__unwindtable$??$_Emplace@V?$basic_string@DU?$char_traits@D@std@@V?$allocator@D@2@@std@@@?$list@V?$basic_string@DU?$char_traits@D@std@@V?$allocator@D@2@@std@@V?$allocator@V?$basic_string@DU?$char_traits@D@std@@V?$allocator@D@2@@std@@@2@@std@@QAEPAU?$_List_node@V?$basic_string@DU?$char_traits@D@std@@V?$allocator@D@2@@std@@PAX@1@QAU21@$$QAV?$basic_string@DU?$char_traits@D@std@@V?$allocator@D@2@@1@@Z DD 0ffffffffH
	DD	FLAT:__unwindfunclet$??$_Emplace@V?$basic_string@DU?$char_traits@D@std@@V?$allocator@D@2@@std@@@?$list@V?$basic_string@DU?$char_traits@D@std@@V?$allocator@D@2@@std@@V?$allocator@V?$basic_string@DU?$char_traits@D@std@@V?$allocator@D@2@@std@@@2@@std@@QAEPAU?$_List_node@V?$basic_string@DU?$char_traits@D@std@@V?$allocator@D@2@@std@@PAX@1@QAU21@$$QAV?$basic_string@DU?$char_traits@D@std@@V?$allocator@D@2@@1@@Z$1
__ehfuncinfo$??$_Emplace@V?$basic_string@DU?$char_traits@D@std@@V?$allocator@D@2@@std@@@?$list@V?$basic_string@DU?$char_traits@D@std@@V?$allocator@D@2@@std@@V?$allocator@V?$basic_string@DU?$char_traits@D@std@@V?$allocator@D@2@@std@@@2@@std@@QAEPAU?$_List_node@V?$basic_string@DU?$char_traits@D@std@@V?$allocator@D@2@@std@@PAX@1@QAU21@$$QAV?$basic_string@DU?$char_traits@D@std@@V?$allocator@D@2@@1@@Z DD 019930522H
	DD	01H
	DD	FLAT:__unwindtable$??$_Emplace@V?$basic_string@DU?$char_traits@D@std@@V?$allocator@D@2@@std@@@?$list@V?$basic_string@DU?$char_traits@D@std@@V?$allocator@D@2@@std@@V?$allocator@V?$basic_string@DU?$char_traits@D@std@@V?$allocator@D@2@@std@@@2@@std@@QAEPAU?$_List_node@V?$basic_string@DU?$char_traits@D@std@@V?$allocator@D@2@@std@@PAX@1@QAU21@$$QAV?$basic_string@DU?$char_traits@D@std@@V?$allocator@D@2@@1@@Z
	DD	2 DUP(00H)
	DD	2 DUP(00H)
	DD	00H
	DD	01H
xdata$x	ENDS
;	COMDAT xdata$x
xdata$x	SEGMENT
__unwindtable$?netRecvGuildSymbol@@YAPAU_object@@PAU1@0@Z DD 0ffffffffH
	DD	FLAT:__unwindfunclet$?netRecvGuildSymbol@@YAPAU_object@@PAU1@0@Z$0
	DD	00H
	DD	FLAT:__unwindfunclet$?netRecvGuildSymbol@@YAPAU_object@@PAU1@0@Z$1
__ehfuncinfo$?netRecvGuildSymbol@@YAPAU_object@@PAU1@0@Z DD 019930522H
	DD	02H
	DD	FLAT:__unwindtable$?netRecvGuildSymbol@@YAPAU_object@@PAU1@0@Z
	DD	2 DUP(00H)
	DD	2 DUP(00H)
	DD	00H
	DD	01H
xdata$x	ENDS
;	COMDAT xdata$x
xdata$x	SEGMENT
__unwindtable$?netSendGuildSymbol@@YAPAU_object@@PAU1@0@Z DD 0ffffffffH
	DD	FLAT:__unwindfunclet$?netSendGuildSymbol@@YAPAU_object@@PAU1@0@Z$0
__ehfuncinfo$?netSendGuildSymbol@@YAPAU_object@@PAU1@0@Z DD 019930522H
	DD	01H
	DD	FLAT:__unwindtable$?netSendGuildSymbol@@YAPAU_object@@PAU1@0@Z
	DD	2 DUP(00H)
	DD	2 DUP(00H)
	DD	00H
	DD	01H
xdata$x	ENDS
;	COMDAT xdata$x
xdata$x	SEGMENT
__unwindtable$?netPreserveServerCommand@@YAPAU_object@@PAU1@0@Z DD 0ffffffffH
	DD	FLAT:__unwindfunclet$?netPreserveServerCommand@@YAPAU_object@@PAU1@0@Z$0
	DD	00H
	DD	FLAT:__unwindfunclet$?netPreserveServerCommand@@YAPAU_object@@PAU1@0@Z$4
__ehfuncinfo$?netPreserveServerCommand@@YAPAU_object@@PAU1@0@Z DD 019930522H
	DD	02H
	DD	FLAT:__unwindtable$?netPreserveServerCommand@@YAPAU_object@@PAU1@0@Z
	DD	2 DUP(00H)
	DD	2 DUP(00H)
	DD	00H
	DD	01H
xdata$x	ENDS
;	COMDAT xdata$x
xdata$x	SEGMENT
__unwindtable$?push_back@?$list@V?$basic_string@DU?$char_traits@D@std@@V?$allocator@D@2@@std@@V?$allocator@V?$basic_string@DU?$char_traits@D@std@@V?$allocator@D@2@@std@@@2@@std@@QAEX$$QAV?$basic_string@DU?$char_traits@D@std@@V?$allocator@D@2@@2@@Z DD 0ffffffffH
	DD	FLAT:__unwindfunclet$?push_back@?$list@V?$basic_string@DU?$char_traits@D@std@@V?$allocator@D@2@@std@@V?$allocator@V?$basic_string@DU?$char_traits@D@std@@V?$allocator@D@2@@std@@@2@@std@@QAEX$$QAV?$basic_string@DU?$char_traits@D@std@@V?$allocator@D@2@@2@@Z$1
__ehfuncinfo$?push_back@?$list@V?$basic_string@DU?$char_traits@D@std@@V?$allocator@D@2@@std@@V?$allocator@V?$basic_string@DU?$char_traits@D@std@@V?$allocator@D@2@@std@@@2@@std@@QAEX$$QAV?$basic_string@DU?$char_traits@D@std@@V?$allocator@D@2@@2@@Z DD 019930522H
	DD	01H
	DD	FLAT:__unwindtable$?push_back@?$list@V?$basic_string@DU?$char_traits@D@std@@V?$allocator@D@2@@std@@V?$allocator@V?$basic_string@DU?$char_traits@D@std@@V?$allocator@D@2@@std@@@2@@std@@QAEX$$QAV?$basic_string@DU?$char_traits@D@std@@V?$allocator@D@2@@2@@Z
	DD	2 DUP(00H)
	DD	2 DUP(00H)
	DD	00H
	DD	01H
xdata$x	ENDS
CRT$XCU	SEGMENT
?g_kList_strCommand$initializer$@@3P6AXXZA DD FLAT:??__Eg_kList_strCommand@@YAXXZ ; g_kList_strCommand$initializer$
CRT$XCU	ENDS
; Function compile flags: /Ogtp
; File C:\Program Files (x86)\Microsoft Visual Studio\2019\Community\VC\Tools\MSVC\14.28.29333\include\xutility
;	COMDAT ??$_Copy_memmove@PAKPAK@std@@YAPAKPAK00@Z
_TEXT	SEGMENT
__First$ = 8						; size = 4
__Last$ = 12						; size = 4
__Dest$ = 16						; size = 4
??$_Copy_memmove@PAKPAK@std@@YAPAKPAK00@Z PROC		; std::_Copy_memmove<unsigned long *,unsigned long *>, COMDAT

; 4360 : _OutIt _Copy_memmove(_InIt _First, _InIt _Last, _OutIt _Dest) {

  00000	55		 push	 ebp
  00001	8b ec		 mov	 ebp, esp

; 4361 :     const char* const _First_ch = const_cast<const char*>(reinterpret_cast<const volatile char*>(_First));
; 4362 :     const char* const _Last_ch  = const_cast<const char*>(reinterpret_cast<const volatile char*>(_Last));
; 4363 :     char* const _Dest_ch        = const_cast<char*>(reinterpret_cast<volatile char*>(_Dest));
; 4364 :     const auto _Count           = static_cast<size_t>(_Last_ch - _First_ch);

  00003	8b 45 08	 mov	 eax, DWORD PTR __First$[ebp]
  00006	56		 push	 esi

; 4365 :     _CSTD memmove(_Dest_ch, _First_ch, _Count);

  00007	8b 75 10	 mov	 esi, DWORD PTR __Dest$[ebp]
  0000a	57		 push	 edi
  0000b	8b 7d 0c	 mov	 edi, DWORD PTR __Last$[ebp]
  0000e	2b f8		 sub	 edi, eax
  00010	57		 push	 edi
  00011	50		 push	 eax
  00012	56		 push	 esi
  00013	e8 00 00 00 00	 call	 _memmove
  00018	83 c4 0c	 add	 esp, 12			; 0000000cH

; 4366 :     return reinterpret_cast<_OutIt>(_Dest_ch + _Count);

  0001b	8d 04 37	 lea	 eax, DWORD PTR [edi+esi]
  0001e	5f		 pop	 edi
  0001f	5e		 pop	 esi

; 4367 : }

  00020	5d		 pop	 ebp
  00021	c3		 ret	 0
??$_Copy_memmove@PAKPAK@std@@YAPAKPAK00@Z ENDP		; std::_Copy_memmove<unsigned long *,unsigned long *>
_TEXT	ENDS
; Function compile flags: /Ogtp
; File C:\Program Files (x86)\Microsoft Visual Studio\2019\Community\VC\Tools\MSVC\14.28.29333\include\xmemory
;	COMDAT ??$_Uninitialized_move@PAKV?$allocator@K@std@@@std@@YAPAKQAK0PAKAAV?$allocator@K@0@@Z
_TEXT	SEGMENT
__First$ = 8						; size = 4
__Last$ = 12						; size = 4
__Dest$ = 16						; size = 4
__Al$ = 20						; size = 4
??$_Uninitialized_move@PAKV?$allocator@K@std@@@std@@YAPAKQAK0PAKAAV?$allocator@K@0@@Z PROC ; std::_Uninitialized_move<unsigned long *,std::allocator<unsigned long> >, COMDAT

; 1685 :     const _InIt _First, const _InIt _Last, _Alloc_ptr_t<_Alloc> _Dest, _Alloc& _Al) {

  00000	55		 push	 ebp
  00001	8b ec		 mov	 ebp, esp
  00003	53		 push	 ebx

; 1686 :     // move [_First, _Last) to raw _Dest, using _Al
; 1687 :     // note: only called internally from elsewhere in the STL
; 1688 :     using _Ptrval     = typename _Alloc::value_type*;
; 1689 :     auto _UFirst      = _Get_unwrapped(_First);
; 1690 :     const auto _ULast = _Get_unwrapped(_Last);
; 1691 :     if constexpr (conjunction_v<bool_constant<_Ptr_move_cat<decltype(_UFirst), _Ptrval>::_Really_trivial>,
; 1692 :                       _Uses_default_construct<_Alloc, _Ptrval, decltype(_STD move(*_UFirst))>>) {
; 1693 :         _Copy_memmove(_UFirst, _ULast, _Unfancy(_Dest));

  00004	8b 5d 10	 mov	 ebx, DWORD PTR __Dest$[ebp]
  00007	57		 push	 edi
  00008	8b 7d 0c	 mov	 edi, DWORD PTR __Last$[ebp]
  0000b	53		 push	 ebx
  0000c	57		 push	 edi
  0000d	ff 75 08	 push	 DWORD PTR __First$[ebp]
  00010	e8 00 00 00 00	 call	 ??$_Copy_memmove@PAKPAK@std@@YAPAKPAK00@Z ; std::_Copy_memmove<unsigned long *,unsigned long *>

; 1694 :         return _Dest + (_ULast - _UFirst);

  00015	2b 7d 08	 sub	 edi, DWORD PTR __First$[ebp]
  00018	83 c4 0c	 add	 esp, 12			; 0000000cH
  0001b	c1 ff 02	 sar	 edi, 2
  0001e	8d 04 bb	 lea	 eax, DWORD PTR [ebx+edi*4]
  00021	5f		 pop	 edi
  00022	5b		 pop	 ebx

; 1695 :     } else {
; 1696 :         _Uninitialized_backout_al<_Alloc> _Backout{_Dest, _Al};
; 1697 :         for (; _UFirst != _ULast; ++_UFirst) {
; 1698 :             _Backout._Emplace_back(_STD move(*_UFirst));
; 1699 :         }
; 1700 : 
; 1701 :         return _Backout._Release();
; 1702 :     }
; 1703 : }

  00023	5d		 pop	 ebp
  00024	c3		 ret	 0
??$_Uninitialized_move@PAKV?$allocator@K@std@@@std@@YAPAKQAK0PAKAAV?$allocator@K@0@@Z ENDP ; std::_Uninitialized_move<unsigned long *,std::allocator<unsigned long> >
_TEXT	ENDS
; Function compile flags: /Ogtp
; File C:\Program Files (x86)\Microsoft Visual Studio\2019\Community\VC\Tools\MSVC\14.28.29333\include\xmemory
;	COMDAT ??$_Construct_in_place@PAU?$_List_node@V?$basic_string@DU?$char_traits@D@std@@V?$allocator@D@2@@std@@PAX@std@@ABQAU12@@std@@YAXAAPAU?$_List_node@V?$basic_string@DU?$char_traits@D@std@@V?$allocator@D@2@@std@@PAX@0@ABQAU10@@Z
_TEXT	SEGMENT
__Obj$ = 8						; size = 4
_<_Args_0>$ = 12					; size = 4
??$_Construct_in_place@PAU?$_List_node@V?$basic_string@DU?$char_traits@D@std@@V?$allocator@D@2@@std@@PAX@std@@ABQAU12@@std@@YAXAAPAU?$_List_node@V?$basic_string@DU?$char_traits@D@std@@V?$allocator@D@2@@std@@PAX@0@ABQAU10@@Z PROC ; std::_Construct_in_place<std::_List_node<std::basic_string<char,std::char_traits<char>,std::allocator<char> >,void *> *,std::_List_node<std::basic_string<char,std::char_traits<char>,std::allocator<char> >,void *> * const &>, COMDAT

; 228  : void _Construct_in_place(_Ty& _Obj, _Types&&... _Args) noexcept(is_nothrow_constructible_v<_Ty, _Types...>) {

  00000	55		 push	 ebp
  00001	8b ec		 mov	 ebp, esp

; 229  :     ::new (const_cast<void*>(static_cast<const volatile void*>(_STD addressof(_Obj))))

  00003	8b 45 0c	 mov	 eax, DWORD PTR _<_Args_0>$[ebp]
  00006	8b 08		 mov	 ecx, DWORD PTR [eax]
  00008	8b 45 08	 mov	 eax, DWORD PTR __Obj$[ebp]
  0000b	89 08		 mov	 DWORD PTR [eax], ecx

; 230  :         _Ty(_STD forward<_Types>(_Args)...);
; 231  : }

  0000d	5d		 pop	 ebp
  0000e	c3		 ret	 0
??$_Construct_in_place@PAU?$_List_node@V?$basic_string@DU?$char_traits@D@std@@V?$allocator@D@2@@std@@PAX@std@@ABQAU12@@std@@YAXAAPAU?$_List_node@V?$basic_string@DU?$char_traits@D@std@@V?$allocator@D@2@@std@@PAX@0@ABQAU10@@Z ENDP ; std::_Construct_in_place<std::_List_node<std::basic_string<char,std::char_traits<char>,std::allocator<char> >,void *> *,std::_List_node<std::basic_string<char,std::char_traits<char>,std::allocator<char> >,void *> * const &>
_TEXT	ENDS
; Function compile flags: /Ogtp
; File C:\Program Files (x86)\Microsoft Visual Studio\2019\Community\VC\Tools\MSVC\14.28.29333\include\xmemory
;	COMDAT ??$_Destroy_in_place@PAU?$_List_node@V?$basic_string@DU?$char_traits@D@std@@V?$allocator@D@2@@std@@PAX@std@@@std@@YAXAAPAU?$_List_node@V?$basic_string@DU?$char_traits@D@std@@V?$allocator@D@2@@std@@PAX@0@@Z
_TEXT	SEGMENT
__Obj$ = 8						; size = 4
??$_Destroy_in_place@PAU?$_List_node@V?$basic_string@DU?$char_traits@D@std@@V?$allocator@D@2@@std@@PAX@std@@@std@@YAXAAPAU?$_List_node@V?$basic_string@DU?$char_traits@D@std@@V?$allocator@D@2@@std@@PAX@0@@Z PROC ; std::_Destroy_in_place<std::_List_node<std::basic_string<char,std::char_traits<char>,std::allocator<char> >,void *> *>, COMDAT

; 271  : #if _HAS_IF_CONSTEXPR
; 272  :     if constexpr (is_array_v<_Ty>) {
; 273  :         _Destroy_range(_Obj, _Obj + extent_v<_Ty>);
; 274  :     } else
; 275  : #endif // _HAS_IF_CONSTEXPR
; 276  :     {
; 277  :         _Obj.~_Ty();
; 278  :     }
; 279  : }

  00000	c2 00 00	 ret	 0
??$_Destroy_in_place@PAU?$_List_node@V?$basic_string@DU?$char_traits@D@std@@V?$allocator@D@2@@std@@PAX@std@@@std@@YAXAAPAU?$_List_node@V?$basic_string@DU?$char_traits@D@std@@V?$allocator@D@2@@std@@PAX@0@@Z ENDP ; std::_Destroy_in_place<std::_List_node<std::basic_string<char,std::char_traits<char>,std::allocator<char> >,void *> *>
_TEXT	ENDS
; Function compile flags: /Ogtp
; File C:\Program Files (x86)\Microsoft Visual Studio\2019\Community\VC\Tools\MSVC\14.28.29333\include\xmemory
;	COMDAT ??1?$_Alloc_construct_ptr@V?$allocator@U?$_List_node@V?$basic_string@DU?$char_traits@D@std@@V?$allocator@D@2@@std@@PAX@std@@@std@@@std@@QAE@XZ
_TEXT	SEGMENT
??1?$_Alloc_construct_ptr@V?$allocator@U?$_List_node@V?$basic_string@DU?$char_traits@D@std@@V?$allocator@D@2@@std@@PAX@std@@@std@@@std@@QAE@XZ PROC ; std::_Alloc_construct_ptr<std::allocator<std::_List_node<std::basic_string<char,std::char_traits<char>,std::allocator<char> >,void *> > >::~_Alloc_construct_ptr<std::allocator<std::_List_node<std::basic_string<char,std::char_traits<char>,std::allocator<char> >,void *> > >, COMDAT
; _this$ = ecx

; 1057 :         if (_Ptr) {

  00000	8b 41 04	 mov	 eax, DWORD PTR [ecx+4]
  00003	85 c0		 test	 eax, eax
  00005	74 0b		 je	 SHORT $LN2@Alloc_cons

; 810  :         _Deallocate<_New_alignof<_Ty>>(_Ptr, sizeof(_Ty) * _Count);

  00007	6a 20		 push	 32			; 00000020H
  00009	50		 push	 eax
  0000a	e8 00 00 00 00	 call	 ??$_Deallocate@$07$0A@@std@@YAXPAXI@Z ; std::_Deallocate<8,0>
  0000f	83 c4 08	 add	 esp, 8
$LN2@Alloc_cons:

; 1058 :             _Al.deallocate(_Ptr, 1);
; 1059 :         }
; 1060 :     }

  00012	c3		 ret	 0
??1?$_Alloc_construct_ptr@V?$allocator@U?$_List_node@V?$basic_string@DU?$char_traits@D@std@@V?$allocator@D@2@@std@@PAX@std@@@std@@@std@@QAE@XZ ENDP ; std::_Alloc_construct_ptr<std::allocator<std::_List_node<std::basic_string<char,std::char_traits<char>,std::allocator<char> >,void *> > >::~_Alloc_construct_ptr<std::allocator<std::_List_node<std::basic_string<char,std::char_traits<char>,std::allocator<char> >,void *> > >
_TEXT	ENDS
; Function compile flags: /Ogtp
; File C:\Program Files (x86)\Microsoft Visual Studio\2019\Community\VC\Tools\MSVC\14.28.29333\include\xmemory
;	COMDAT ??$_Destroy_range@V?$allocator@K@std@@@std@@YAXPAKQAKAAV?$allocator@K@0@@Z
_TEXT	SEGMENT
__First$ = 8						; size = 4
__Last$ = 12						; size = 4
__Al$ = 16						; size = 4
??$_Destroy_range@V?$allocator@K@std@@@std@@YAXPAKQAKAAV?$allocator@K@0@@Z PROC ; std::_Destroy_range<std::allocator<unsigned long> >, COMDAT

; 963  :     // note that this is an optimization for debug mode codegen; in release mode the BE removes all of this
; 964  :     using _Ty = typename _Alloc::value_type;
; 965  :     if _CONSTEXPR_IF (!conjunction_v<is_trivially_destructible<_Ty>, _Uses_default_destroy<_Alloc, _Ty*>>) {
; 966  :         for (; _First != _Last; ++_First) {
; 967  :             allocator_traits<_Alloc>::destroy(_Al, _Unfancy(_First));
; 968  :         }
; 969  :     }
; 970  : }

  00000	c2 00 00	 ret	 0
??$_Destroy_range@V?$allocator@K@std@@@std@@YAXPAKQAKAAV?$allocator@K@0@@Z ENDP ; std::_Destroy_range<std::allocator<unsigned long> >
_TEXT	ENDS
; Function compile flags: /Ogtp
; File C:\Program Files (x86)\Microsoft Visual Studio\2019\Community\VC\Tools\MSVC\14.28.29333\include\xmemory
;	COMDAT ??$_Construct_in_place@PAU?$_List_node@V?$basic_string@DU?$char_traits@D@std@@V?$allocator@D@2@@std@@PAX@std@@AAPAU12@@std@@YAXAAPAU?$_List_node@V?$basic_string@DU?$char_traits@D@std@@V?$allocator@D@2@@std@@PAX@0@0@Z
_TEXT	SEGMENT
__Obj$ = 8						; size = 4
_<_Args_0>$ = 12					; size = 4
??$_Construct_in_place@PAU?$_List_node@V?$basic_string@DU?$char_traits@D@std@@V?$allocator@D@2@@std@@PAX@std@@AAPAU12@@std@@YAXAAPAU?$_List_node@V?$basic_string@DU?$char_traits@D@std@@V?$allocator@D@2@@std@@PAX@0@0@Z PROC ; std::_Construct_in_place<std::_List_node<std::basic_string<char,std::char_traits<char>,std::allocator<char> >,void *> *,std::_List_node<std::basic_string<char,std::char_traits<char>,std::allocator<char> >,void *> * &>, COMDAT

; 228  : void _Construct_in_place(_Ty& _Obj, _Types&&... _Args) noexcept(is_nothrow_constructible_v<_Ty, _Types...>) {

  00000	55		 push	 ebp
  00001	8b ec		 mov	 ebp, esp

; 229  :     ::new (const_cast<void*>(static_cast<const volatile void*>(_STD addressof(_Obj))))

  00003	8b 45 0c	 mov	 eax, DWORD PTR _<_Args_0>$[ebp]
  00006	8b 08		 mov	 ecx, DWORD PTR [eax]
  00008	8b 45 08	 mov	 eax, DWORD PTR __Obj$[ebp]
  0000b	89 08		 mov	 DWORD PTR [eax], ecx

; 230  :         _Ty(_STD forward<_Types>(_Args)...);
; 231  : }

  0000d	5d		 pop	 ebp
  0000e	c3		 ret	 0
??$_Construct_in_place@PAU?$_List_node@V?$basic_string@DU?$char_traits@D@std@@V?$allocator@D@2@@std@@PAX@std@@AAPAU12@@std@@YAXAAPAU?$_List_node@V?$basic_string@DU?$char_traits@D@std@@V?$allocator@D@2@@std@@PAX@0@0@Z ENDP ; std::_Construct_in_place<std::_List_node<std::basic_string<char,std::char_traits<char>,std::allocator<char> >,void *> *,std::_List_node<std::basic_string<char,std::char_traits<char>,std::allocator<char> >,void *> * &>
_TEXT	ENDS
; Function compile flags: /Ogtp
; File C:\Program Files (x86)\Microsoft Visual Studio\2019\Community\VC\Tools\MSVC\14.28.29333\include\vector
; File C:\Program Files (x86)\Microsoft Visual Studio\2019\Community\VC\Tools\MSVC\14.28.29333\include\xmemory
; File C:\Program Files (x86)\Microsoft Visual Studio\2019\Community\VC\Tools\MSVC\14.28.29333\include\vector
; File C:\Program Files (x86)\Microsoft Visual Studio\2019\Community\VC\Tools\MSVC\14.28.29333\include\xmemory
; File C:\Program Files (x86)\Microsoft Visual Studio\2019\Community\VC\Tools\MSVC\14.28.29333\include\vector
; File C:\Program Files (x86)\Microsoft Visual Studio\2019\Community\VC\Tools\MSVC\14.28.29333\include\xmemory
; File C:\Program Files (x86)\Microsoft Visual Studio\2019\Community\VC\Tools\MSVC\14.28.29333\include\vector
; File C:\Program Files (x86)\Microsoft Visual Studio\2019\Community\VC\Tools\MSVC\14.28.29333\include\xmemory
; File C:\Program Files (x86)\Microsoft Visual Studio\2019\Community\VC\Tools\MSVC\14.28.29333\include\vector
; File C:\Program Files (x86)\Microsoft Visual Studio\2019\Community\VC\Tools\MSVC\14.28.29333\include\xmemory
; File C:\Program Files (x86)\Microsoft Visual Studio\2019\Community\VC\Tools\MSVC\14.28.29333\include\vector
; File C:\Program Files (x86)\Microsoft Visual Studio\2019\Community\VC\Tools\MSVC\14.28.29333\include\xmemory
; File C:\Program Files (x86)\Microsoft Visual Studio\2019\Community\VC\Tools\MSVC\14.28.29333\include\vector
;	COMDAT ??$_Emplace_reallocate@ABK@?$vector@KV?$allocator@K@std@@@std@@QAEPAKQAKABK@Z
_TEXT	SEGMENT
tv435 = -12						; size = 4
__Newsize$1$ = -8					; size = 4
tv434 = -4						; size = 4
__Whereptr$ = 8						; size = 4
_<_Val_0>$ = 12						; size = 4
??$_Emplace_reallocate@ABK@?$vector@KV?$allocator@K@std@@@std@@QAEPAKQAKABK@Z PROC ; std::vector<unsigned long,std::allocator<unsigned long> >::_Emplace_reallocate<unsigned long const &>, COMDAT
; _this$ = ecx

; 725  :     pointer _Emplace_reallocate(const pointer _Whereptr, _Valty&&... _Val) {

  00000	55		 push	 ebp
  00001	8b ec		 mov	 ebp, esp
  00003	83 ec 0c	 sub	 esp, 12			; 0000000cH
  00006	53		 push	 ebx

; 726  :         // reallocate and insert by perfectly forwarding _Val at _Whereptr
; 727  :         _Alty& _Al        = _Getal();
; 728  :         auto& _My_data    = _Mypair._Myval2;
; 729  :         pointer& _Myfirst = _My_data._Myfirst;
; 730  :         pointer& _Mylast  = _My_data._Mylast;
; 731  : 
; 732  :         _STL_INTERNAL_CHECK(_Mylast == _My_data._Myend); // check that we have no unused capacity
; 733  : 
; 734  :         const auto _Whereoff = static_cast<size_type>(_Whereptr - _Myfirst);

  00007	8b 5d 08	 mov	 ebx, DWORD PTR __Whereptr$[ebp]
  0000a	56		 push	 esi
  0000b	8b f1		 mov	 esi, ecx
  0000d	57		 push	 edi
  0000e	8b 16		 mov	 edx, DWORD PTR [esi]
  00010	2b da		 sub	 ebx, edx

; 735  :         const auto _Oldsize  = static_cast<size_type>(_Mylast - _Myfirst);

  00012	8b 46 04	 mov	 eax, DWORD PTR [esi+4]
  00015	2b c2		 sub	 eax, edx
  00017	c1 fb 02	 sar	 ebx, 2
  0001a	c1 f8 02	 sar	 eax, 2

; 736  : 
; 737  :         if (_Oldsize == max_size()) {

  0001d	3d ff ff ff 3f	 cmp	 eax, 1073741823		; 3fffffffH
  00022	0f 84 c4 00 00
	00		 je	 $LN39@Emplace_re

; 1494 :         return static_cast<size_type>(_My_data._Myend - _My_data._Myfirst);

  00028	8b 4e 08	 mov	 ecx, DWORD PTR [esi+8]

; 739  :         }
; 740  : 
; 741  :         const size_type _Newsize     = _Oldsize + 1;

  0002b	8d 78 01	 lea	 edi, DWORD PTR [eax+1]

; 1494 :         return static_cast<size_type>(_My_data._Myend - _My_data._Myfirst);

  0002e	2b ca		 sub	 ecx, edx

; 739  :         }
; 740  : 
; 741  :         const size_type _Newsize     = _Oldsize + 1;

  00030	89 7d f8	 mov	 DWORD PTR __Newsize$1$[ebp], edi

; 1494 :         return static_cast<size_type>(_My_data._Myend - _My_data._Myfirst);

  00033	c1 f9 02	 sar	 ecx, 2

; 1620 :         if (_Oldcapacity > _Max - _Oldcapacity / 2) {

  00036	b8 ff ff ff 3f	 mov	 eax, 1073741823		; 3fffffffH
  0003b	8b d1		 mov	 edx, ecx
  0003d	d1 ea		 shr	 edx, 1
  0003f	2b c2		 sub	 eax, edx
  00041	3b c8		 cmp	 ecx, eax
  00043	76 3a		 jbe	 SHORT $LN12@Emplace_re

; 1621 :             return _Max; // geometric growth would overflow

  00045	b9 ff ff ff 3f	 mov	 ecx, 1073741823		; 3fffffffH
$LN20@Emplace_re:
; File C:\Program Files (x86)\Microsoft Visual Studio\2019\Community\VC\Tools\MSVC\14.28.29333\include\xmemory

; 65   :     return _Count * _Ty_size;

  0004a	8d 04 8d 00 00
	00 00		 lea	 eax, DWORD PTR [ecx*4]

; 814  :         return static_cast<_Ty*>(_Allocate<_New_alignof<_Ty>>(_Get_size_of_n<sizeof(_Ty)>(_Count)));

  00051	50		 push	 eax

; 65   :     return _Count * _Ty_size;

  00052	89 45 f4	 mov	 DWORD PTR tv435[ebp], eax

; 814  :         return static_cast<_Ty*>(_Allocate<_New_alignof<_Ty>>(_Get_size_of_n<sizeof(_Ty)>(_Count)));

  00055	e8 00 00 00 00	 call	 ??$_Allocate@$07U_Default_allocate_traits@std@@$0A@@std@@YAPAXI@Z ; std::_Allocate<8,std::_Default_allocate_traits,0>
; File C:\Program Files (x86)\Microsoft Visual Studio\2019\Community\VC\Tools\MSVC\14.28.29333\include\vector

; 749  :         _Alty_traits::construct(_Al, _Unfancy(_Newvec + _Whereoff), _STD forward<_Valty>(_Val)...);

  0005a	8b 4d 0c	 mov	 ecx, DWORD PTR _<_Val_0>$[ebp]
; File C:\Program Files (x86)\Microsoft Visual Studio\2019\Community\VC\Tools\MSVC\14.28.29333\include\xmemory

; 814  :         return static_cast<_Ty*>(_Allocate<_New_alignof<_Ty>>(_Get_size_of_n<sizeof(_Ty)>(_Count)));

  0005d	8b f8		 mov	 edi, eax
; File C:\Program Files (x86)\Microsoft Visual Studio\2019\Community\VC\Tools\MSVC\14.28.29333\include\vector

; 749  :         _Alty_traits::construct(_Al, _Unfancy(_Newvec + _Whereoff), _STD forward<_Valty>(_Val)...);

  0005f	8d 04 9f	 lea	 eax, DWORD PTR [edi+ebx*4]
; File C:\Program Files (x86)\Microsoft Visual Studio\2019\Community\VC\Tools\MSVC\14.28.29333\include\xmemory

; 814  :         return static_cast<_Ty*>(_Allocate<_New_alignof<_Ty>>(_Get_size_of_n<sizeof(_Ty)>(_Count)));

  00062	83 c4 04	 add	 esp, 4
; File C:\Program Files (x86)\Microsoft Visual Studio\2019\Community\VC\Tools\MSVC\14.28.29333\include\vector

; 752  :         if (_Whereptr == _Mylast) { // at back, provide strong guarantee

  00065	8b 5d 08	 mov	 ebx, DWORD PTR __Whereptr$[ebp]
  00068	89 45 fc	 mov	 DWORD PTR tv434[ebp], eax
  0006b	8b 09		 mov	 ecx, DWORD PTR [ecx]
  0006d	89 08		 mov	 DWORD PTR [eax], ecx
  0006f	8b 56 04	 mov	 edx, DWORD PTR [esi+4]
  00072	8b 0e		 mov	 ecx, DWORD PTR [esi]
  00074	3b da		 cmp	 ebx, edx
  00076	75 1b		 jne	 SHORT $LN4@Emplace_re

; 753  :             _Umove_if_noexcept(_Myfirst, _Mylast, _Newvec);
; 754  :         } else { // provide basic guarantee

  00078	8b 5d fc	 mov	 ebx, DWORD PTR tv434[ebp]

; 1597 :         _Uninitialized_move(_First, _Last, _Dest, _Getal());

  0007b	8b c7		 mov	 eax, edi

; 753  :             _Umove_if_noexcept(_Myfirst, _Mylast, _Newvec);
; 754  :         } else { // provide basic guarantee

  0007d	eb 2b		 jmp	 SHORT $LN5@Emplace_re
$LN12@Emplace_re:

; 1624 :         const size_type _Geometric = _Oldcapacity + _Oldcapacity / 2;

  0007f	8d 04 0a	 lea	 eax, DWORD PTR [edx+ecx]
; File C:\Program Files (x86)\Microsoft Visual Studio\2019\Community\VC\Tools\MSVC\14.28.29333\include\xmemory

; 60   :         if (_Count > _Max_possible) {

  00082	8b cf		 mov	 ecx, edi
  00084	3b c7		 cmp	 eax, edi
  00086	0f 43 c8	 cmovae	 ecx, eax
  00089	81 f9 ff ff ff
	3f		 cmp	 ecx, 1073741823		; 3fffffffH
  0008f	77 60		 ja	 SHORT $LN40@Emplace_re
  00091	eb b7		 jmp	 SHORT $LN20@Emplace_re
$LN4@Emplace_re:
; File C:\Program Files (x86)\Microsoft Visual Studio\2019\Community\VC\Tools\MSVC\14.28.29333\include\vector

; 1592 :         return _Uninitialized_move(_First, _Last, _Dest, _Getal());

  00093	56		 push	 esi
  00094	57		 push	 edi
  00095	53		 push	 ebx
  00096	51		 push	 ecx
  00097	e8 00 00 00 00	 call	 ??$_Uninitialized_move@PAKV?$allocator@K@std@@@std@@YAPAKQAK0PAKAAV?$allocator@K@0@@Z ; std::_Uninitialized_move<unsigned long *,std::allocator<unsigned long> >
  0009c	8b 56 04	 mov	 edx, DWORD PTR [esi+4]
  0009f	8b cb		 mov	 ecx, ebx

; 755  :             _Umove(_Myfirst, _Whereptr, _Newvec);
; 756  :             _Constructed_first = _Newvec;
; 757  :             _Umove(_Whereptr, _Mylast, _Newvec + _Whereoff + 1);

  000a1	8b 5d fc	 mov	 ebx, DWORD PTR tv434[ebp]

; 1592 :         return _Uninitialized_move(_First, _Last, _Dest, _Getal());

  000a4	83 c4 10	 add	 esp, 16			; 00000010H

; 755  :             _Umove(_Myfirst, _Whereptr, _Newvec);
; 756  :             _Constructed_first = _Newvec;
; 757  :             _Umove(_Whereptr, _Mylast, _Newvec + _Whereoff + 1);

  000a7	8d 43 04	 lea	 eax, DWORD PTR [ebx+4]
$LN5@Emplace_re:
  000aa	56		 push	 esi
  000ab	50		 push	 eax
  000ac	52		 push	 edx
  000ad	51		 push	 ecx
  000ae	e8 00 00 00 00	 call	 ??$_Uninitialized_move@PAKV?$allocator@K@std@@@std@@YAPAKQAK0PAKAAV?$allocator@K@0@@Z ; std::_Uninitialized_move<unsigned long *,std::allocator<unsigned long> >

; 1676 :         if (_Myfirst) { // destroy and deallocate old array

  000b3	8b 0e		 mov	 ecx, DWORD PTR [esi]

; 755  :             _Umove(_Myfirst, _Whereptr, _Newvec);
; 756  :             _Constructed_first = _Newvec;
; 757  :             _Umove(_Whereptr, _Mylast, _Newvec + _Whereoff + 1);

  000b5	83 c4 10	 add	 esp, 16			; 00000010H

; 1676 :         if (_Myfirst) { // destroy and deallocate old array

  000b8	85 c9		 test	 ecx, ecx
  000ba	74 12		 je	 SHORT $LN33@Emplace_re

; 1677 :             _Destroy(_Myfirst, _Mylast);
; 1678 :             _Getal().deallocate(_Myfirst, static_cast<size_type>(_Myend - _Myfirst));

  000bc	8b 46 08	 mov	 eax, DWORD PTR [esi+8]
  000bf	2b c1		 sub	 eax, ecx
; File C:\Program Files (x86)\Microsoft Visual Studio\2019\Community\VC\Tools\MSVC\14.28.29333\include\xmemory

; 810  :         _Deallocate<_New_alignof<_Ty>>(_Ptr, sizeof(_Ty) * _Count);

  000c1	83 e0 fc	 and	 eax, -4			; fffffffcH
  000c4	50		 push	 eax
  000c5	51		 push	 ecx
  000c6	e8 00 00 00 00	 call	 ??$_Deallocate@$07$0A@@std@@YAXPAXI@Z ; std::_Deallocate<8,0>
  000cb	83 c4 08	 add	 esp, 8
$LN33@Emplace_re:
; File C:\Program Files (x86)\Microsoft Visual Studio\2019\Community\VC\Tools\MSVC\14.28.29333\include\vector

; 1682 :         _Mylast  = _Newvec + _Newsize;

  000ce	8b 45 f8	 mov	 eax, DWORD PTR __Newsize$1$[ebp]
  000d1	89 3e		 mov	 DWORD PTR [esi], edi
  000d3	8d 0c 87	 lea	 ecx, DWORD PTR [edi+eax*4]

; 758  :         }
; 759  :         _CATCH_ALL
; 760  :         _Destroy(_Constructed_first, _Constructed_last);
; 761  :         _Al.deallocate(_Newvec, _Newcapacity);
; 762  :         _RERAISE;
; 763  :         _CATCH_END
; 764  : 
; 765  :         _Change_array(_Newvec, _Newsize, _Newcapacity);
; 766  :         return _Newvec + _Whereoff;

  000d6	8b c3		 mov	 eax, ebx

; 1682 :         _Mylast  = _Newvec + _Newsize;

  000d8	89 4e 04	 mov	 DWORD PTR [esi+4], ecx

; 1683 :         _Myend   = _Newvec + _Newcapacity;

  000db	8b 4d f4	 mov	 ecx, DWORD PTR tv435[ebp]
  000de	03 cf		 add	 ecx, edi

; 758  :         }
; 759  :         _CATCH_ALL
; 760  :         _Destroy(_Constructed_first, _Constructed_last);
; 761  :         _Al.deallocate(_Newvec, _Newcapacity);
; 762  :         _RERAISE;
; 763  :         _CATCH_END
; 764  : 
; 765  :         _Change_array(_Newvec, _Newsize, _Newcapacity);
; 766  :         return _Newvec + _Whereoff;

  000e0	5f		 pop	 edi

; 1683 :         _Myend   = _Newvec + _Newcapacity;

  000e1	89 4e 08	 mov	 DWORD PTR [esi+8], ecx

; 758  :         }
; 759  :         _CATCH_ALL
; 760  :         _Destroy(_Constructed_first, _Constructed_last);
; 761  :         _Al.deallocate(_Newvec, _Newcapacity);
; 762  :         _RERAISE;
; 763  :         _CATCH_END
; 764  : 
; 765  :         _Change_array(_Newvec, _Newsize, _Newcapacity);
; 766  :         return _Newvec + _Whereoff;

  000e4	5e		 pop	 esi
  000e5	5b		 pop	 ebx

; 767  :     }

  000e6	8b e5		 mov	 esp, ebp
  000e8	5d		 pop	 ebp
  000e9	c2 08 00	 ret	 8
$LN39@Emplace_re:

; 738  :             _Xlength();

  000ec	e8 00 00 00 00	 call	 ?_Xlength@?$vector@KV?$allocator@K@std@@@std@@CAXXZ ; std::vector<unsigned long,std::allocator<unsigned long> >::_Xlength
$LN40@Emplace_re:
; File C:\Program Files (x86)\Microsoft Visual Studio\2019\Community\VC\Tools\MSVC\14.28.29333\include\xmemory

; 61   :             _Throw_bad_array_new_length(); // multiply overflow

  000f1	e8 00 00 00 00	 call	 ?_Throw_bad_array_new_length@std@@YAXXZ ; std::_Throw_bad_array_new_length
$LN37@Emplace_re:
  000f6	cc		 int	 3
??$_Emplace_reallocate@ABK@?$vector@KV?$allocator@K@std@@@std@@QAEPAKQAKABK@Z ENDP ; std::vector<unsigned long,std::allocator<unsigned long> >::_Emplace_reallocate<unsigned long const &>
_TEXT	ENDS
; Function compile flags: /Ogtp
; File D:\Metin2 Server Files\mainline\SRC_2014\Metin2Client\UserInterface\PythonNetworkStreamModule.cpp
;	COMDAT ?netRegisterErrorLog@@YAPAU_object@@PAU1@0@Z
_TEXT	SEGMENT
_szLog$ = -4						; size = 4
_poSelf$ = 8						; size = 4
_poArgs$ = 12						; size = 4
?netRegisterErrorLog@@YAPAU_object@@PAU1@0@Z PROC	; netRegisterErrorLog, COMDAT

; 1703 : {

  00000	55		 push	 ebp
  00001	8b ec		 mov	 ebp, esp
  00003	51		 push	 ecx

; 1704 : 	char * szLog;
; 1705 : 	if (!PyTuple_GetString(poArgs, 0, &szLog))

  00004	8d 45 fc	 lea	 eax, DWORD PTR _szLog$[ebp]
  00007	50		 push	 eax
  00008	6a 00		 push	 0
  0000a	ff 75 0c	 push	 DWORD PTR _poArgs$[ebp]
  0000d	e8 00 00 00 00	 call	 ?PyTuple_GetString@@YA_NPAU_object@@HPAPAD@Z ; PyTuple_GetString
  00012	83 c4 0c	 add	 esp, 12			; 0000000cH
  00015	84 c0		 test	 al, al
  00017	75 0e		 jne	 SHORT $LN2@netRegiste

; 1706 : 		return Py_BuildException();

  00019	6a 00		 push	 0
  0001b	e8 00 00 00 00	 call	 ?Py_BuildException@@YAPAU_object@@PBDZZ ; Py_BuildException
  00020	83 c4 04	 add	 esp, 4

; 1709 : }

  00023	8b e5		 mov	 esp, ebp
  00025	5d		 pop	 ebp
  00026	c3		 ret	 0
$LN2@netRegiste:

; 1707 : 
; 1708 : 	return Py_BuildNone();

  00027	e8 00 00 00 00	 call	 ?Py_BuildNone@@YAPAU_object@@XZ ; Py_BuildNone

; 1709 : }

  0002c	8b e5		 mov	 esp, ebp
  0002e	5d		 pop	 ebp
  0002f	c3		 ret	 0
?netRegisterErrorLog@@YAPAU_object@@PAU1@0@Z ENDP	; netRegisterErrorLog
_TEXT	ENDS
; Function compile flags: /Ogtp
; File D:\Metin2 Server Files\mainline\SRC_2014\Metin2Client\UserInterface\PythonNetworkStreamModule.cpp
; File C:\Program Files (x86)\Microsoft Visual Studio\2019\Community\VC\Tools\MSVC\14.28.29333\include\vector
; File D:\Metin2 Server Files\mainline\SRC_2014\Metin2Client\UserInterface\PythonNetworkStreamModule.cpp
; File C:\Program Files (x86)\Microsoft Visual Studio\2019\Community\VC\Tools\MSVC\14.28.29333\include\vector
; File D:\Metin2 Server Files\mainline\SRC_2014\Metin2Client\UserInterface\PythonNetworkStreamModule.cpp
; File C:\Program Files (x86)\Microsoft Visual Studio\2019\Community\VC\Tools\MSVC\14.28.29333\include\vector
; File D:\Metin2 Server Files\mainline\SRC_2014\Metin2Client\UserInterface\PythonNetworkStreamModule.cpp
; File C:\Program Files (x86)\Microsoft Visual Studio\2019\Community\VC\Tools\MSVC\14.28.29333\include\vector
; File D:\Metin2 Server Files\mainline\SRC_2014\Metin2Client\UserInterface\PythonNetworkStreamModule.cpp
; File C:\Program Files (x86)\Microsoft Visual Studio\2019\Community\VC\Tools\MSVC\14.28.29333\include\vector
; File D:\Metin2 Server Files\mainline\SRC_2014\Metin2Client\UserInterface\PythonNetworkStreamModule.cpp
; File C:\Program Files (x86)\Microsoft Visual Studio\2019\Community\VC\Tools\MSVC\14.28.29333\include\vector
; File C:\Program Files (x86)\Microsoft Visual Studio\2019\Community\VC\Tools\MSVC\14.28.29333\include\xmemory
; File C:\Program Files (x86)\Microsoft Visual Studio\2019\Community\VC\Tools\MSVC\14.28.29333\include\vector
; File D:\Metin2 Server Files\mainline\SRC_2014\Metin2Client\UserInterface\PythonNetworkStreamModule.cpp
;	COMDAT ?netRecvGuildSymbol@@YAPAU_object@@PAU1@0@Z
_TEXT	SEGMENT
$T2 = -60						; size = 4
_iGuildID$ = -56					; size = 4
_szIP$ = -52						; size = 4
_iPort$ = -48						; size = 4
_kVec_dwGuildID$ = -44					; size = 12
_kAddress$ = -32					; size = 16
__$ArrayPad$ = -16					; size = 4
__$EHRec$ = -12						; size = 12
_poSelf$ = 8						; size = 4
_poArgs$ = 12						; size = 4
?netRecvGuildSymbol@@YAPAU_object@@PAU1@0@Z PROC	; netRecvGuildSymbol, COMDAT

; 1675 : {

  00000	55		 push	 ebp
  00001	8b ec		 mov	 ebp, esp
  00003	6a ff		 push	 -1
  00005	68 00 00 00 00	 push	 __ehhandler$?netRecvGuildSymbol@@YAPAU_object@@PAU1@0@Z
  0000a	64 a1 00 00 00
	00		 mov	 eax, DWORD PTR fs:0
  00010	50		 push	 eax
  00011	83 ec 30	 sub	 esp, 48			; 00000030H
  00014	a1 00 00 00 00	 mov	 eax, DWORD PTR ___security_cookie
  00019	33 c5		 xor	 eax, ebp
  0001b	89 45 f0	 mov	 DWORD PTR __$ArrayPad$[ebp], eax
  0001e	56		 push	 esi
  0001f	50		 push	 eax
  00020	8d 45 f4	 lea	 eax, DWORD PTR __$EHRec$[ebp]
  00023	64 a3 00 00 00
	00		 mov	 DWORD PTR fs:0, eax
  00029	8b 75 0c	 mov	 esi, DWORD PTR _poArgs$[ebp]

; 1676 : 	char * szIP;
; 1677 : 	if (!PyTuple_GetString(poArgs, 0, &szIP))

  0002c	8d 45 cc	 lea	 eax, DWORD PTR _szIP$[ebp]
  0002f	50		 push	 eax
  00030	6a 00		 push	 0
  00032	56		 push	 esi
  00033	e8 00 00 00 00	 call	 ?PyTuple_GetString@@YA_NPAU_object@@HPAPAD@Z ; PyTuple_GetString
  00038	83 c4 0c	 add	 esp, 12			; 0000000cH
  0003b	84 c0		 test	 al, al
  0003d	75 0f		 jne	 SHORT $LN2@netRecvGui
$LN30@netRecvGui:

; 1700 : }

  0003f	6a 00		 push	 0
  00041	e8 00 00 00 00	 call	 ?Py_BuildException@@YAPAU_object@@PBDZZ ; Py_BuildException
  00046	83 c4 04	 add	 esp, 4
  00049	e9 c6 00 00 00	 jmp	 $LN1@netRecvGui
$LN2@netRecvGui:

; 1678 : 		return Py_BuildException();
; 1679 : 	int iPort;
; 1680 : 	if (!PyTuple_GetInteger(poArgs, 1, &iPort))

  0004e	8d 45 d0	 lea	 eax, DWORD PTR _iPort$[ebp]
  00051	50		 push	 eax
  00052	6a 01		 push	 1
  00054	56		 push	 esi
  00055	e8 00 00 00 00	 call	 ?PyTuple_GetInteger@@YA_NPAU_object@@HPAH@Z ; PyTuple_GetInteger
  0005a	83 c4 0c	 add	 esp, 12			; 0000000cH
  0005d	84 c0		 test	 al, al
  0005f	74 de		 je	 SHORT $LN30@netRecvGui

; 1681 : 		return Py_BuildException();
; 1682 : 	int iGuildID;
; 1683 : 	if (!PyTuple_GetInteger(poArgs, 2, &iGuildID))

  00061	8d 45 c8	 lea	 eax, DWORD PTR _iGuildID$[ebp]
  00064	50		 push	 eax
  00065	6a 02		 push	 2
  00067	56		 push	 esi
  00068	e8 00 00 00 00	 call	 ?PyTuple_GetInteger@@YA_NPAU_object@@HPAH@Z ; PyTuple_GetInteger
  0006d	83 c4 0c	 add	 esp, 12			; 0000000cH
  00070	84 c0		 test	 al, al
  00072	74 cb		 je	 SHORT $LN30@netRecvGui

; 1684 : 		return Py_BuildException();
; 1685 : 
; 1686 : 	CNetworkAddress kAddress;

  00074	8d 4d e0	 lea	 ecx, DWORD PTR _kAddress$[ebp]
  00077	e8 00 00 00 00	 call	 ??0CNetworkAddress@@QAE@XZ ; CNetworkAddress::CNetworkAddress

; 1687 : 	kAddress.Set(szIP, iPort);

  0007c	ff 75 d0	 push	 DWORD PTR _iPort$[ebp]
  0007f	8d 4d e0	 lea	 ecx, DWORD PTR _kAddress$[ebp]
  00082	c7 45 fc 00 00
	00 00		 mov	 DWORD PTR __$EHRec$[ebp+8], 0
  00089	ff 75 cc	 push	 DWORD PTR _szIP$[ebp]
  0008c	e8 00 00 00 00	 call	 ?Set@CNetworkAddress@@QAE_NPBDH@Z ; CNetworkAddress::Set
; File C:\Program Files (x86)\Microsoft Visual Studio\2019\Community\VC\Tools\MSVC\14.28.29333\include\vector

; 375  :     _Vector_val() noexcept : _Myfirst(), _Mylast(), _Myend() {}

  00091	c7 45 d4 00 00
	00 00		 mov	 DWORD PTR _kVec_dwGuildID$[ebp], 0
  00098	c7 45 dc 00 00
	00 00		 mov	 DWORD PTR _kVec_dwGuildID$[ebp+8], 0
; File D:\Metin2 Server Files\mainline\SRC_2014\Metin2Client\UserInterface\PythonNetworkStreamModule.cpp

; 1691 : 	kVec_dwGuildID.push_back(iGuildID);

  0009f	8b 45 c8	 mov	 eax, DWORD PTR _iGuildID$[ebp]
; File C:\Program Files (x86)\Microsoft Visual Studio\2019\Community\VC\Tools\MSVC\14.28.29333\include\vector

; 708  :         _Ty& _Result = *_Emplace_reallocate(_Mylast, _STD forward<_Valty>(_Val)...);

  000a2	8d 4d d4	 lea	 ecx, DWORD PTR _kVec_dwGuildID$[ebp]
; File D:\Metin2 Server Files\mainline\SRC_2014\Metin2Client\UserInterface\PythonNetworkStreamModule.cpp

; 1691 : 	kVec_dwGuildID.push_back(iGuildID);

  000a5	89 45 c4	 mov	 DWORD PTR $T2[ebp], eax
; File C:\Program Files (x86)\Microsoft Visual Studio\2019\Community\VC\Tools\MSVC\14.28.29333\include\vector

; 708  :         _Ty& _Result = *_Emplace_reallocate(_Mylast, _STD forward<_Valty>(_Val)...);

  000a8	8d 45 c4	 lea	 eax, DWORD PTR $T2[ebp]
  000ab	50		 push	 eax
  000ac	6a 00		 push	 0
; File D:\Metin2 Server Files\mainline\SRC_2014\Metin2Client\UserInterface\PythonNetworkStreamModule.cpp

; 1689 : 	std::vector<DWORD> kVec_dwGuildID;

  000ae	c6 45 fc 01	 mov	 BYTE PTR __$EHRec$[ebp+8], 1

; 1690 : 	kVec_dwGuildID.clear();

  000b2	c7 45 d8 00 00
	00 00		 mov	 DWORD PTR _kVec_dwGuildID$[ebp+4], 0
; File C:\Program Files (x86)\Microsoft Visual Studio\2019\Community\VC\Tools\MSVC\14.28.29333\include\vector

; 708  :         _Ty& _Result = *_Emplace_reallocate(_Mylast, _STD forward<_Valty>(_Val)...);

  000b9	e8 00 00 00 00	 call	 ??$_Emplace_reallocate@ABK@?$vector@KV?$allocator@K@std@@@std@@QAEPAKQAKABK@Z ; std::vector<unsigned long,std::allocator<unsigned long> >::_Emplace_reallocate<unsigned long const &>
; File D:\Metin2 Server Files\mainline\SRC_2014\Metin2Client\UserInterface\PythonNetworkStreamModule.cpp

; 1694 : 	if (!rkGuildMarkDownloader.ConnectToRecvSymbol(kAddress, 0, 0, kVec_dwGuildID))

  000be	8b 0d 00 00 00
	00		 mov	 ecx, DWORD PTR ?ms_singleton@?$CSingleton@VCGuildMarkDownloader@@@@0PAVCGuildMarkDownloader@@A ; CSingleton<CGuildMarkDownloader>::ms_singleton
  000c4	8d 45 d4	 lea	 eax, DWORD PTR _kVec_dwGuildID$[ebp]
  000c7	50		 push	 eax
  000c8	6a 00		 push	 0
  000ca	6a 00		 push	 0
  000cc	8d 45 e0	 lea	 eax, DWORD PTR _kAddress$[ebp]
  000cf	50		 push	 eax
  000d0	e8 00 00 00 00	 call	 ?ConnectToRecvSymbol@CGuildMarkDownloader@@QAE_NABVCNetworkAddress@@KKABV?$vector@KV?$allocator@K@std@@@std@@@Z ; CGuildMarkDownloader::ConnectToRecvSymbol

; 1699 : 	return Py_BuildNone();

  000d5	e8 00 00 00 00	 call	 ?Py_BuildNone@@YAPAU_object@@XZ ; Py_BuildNone
; File C:\Program Files (x86)\Microsoft Visual Studio\2019\Community\VC\Tools\MSVC\14.28.29333\include\vector

; 1694 :         if (_Myfirst) { // destroy and deallocate old array

  000da	8b 55 d4	 mov	 edx, DWORD PTR _kVec_dwGuildID$[ebp]
; File D:\Metin2 Server Files\mainline\SRC_2014\Metin2Client\UserInterface\PythonNetworkStreamModule.cpp

; 1699 : 	return Py_BuildNone();

  000dd	8b f0		 mov	 esi, eax
; File C:\Program Files (x86)\Microsoft Visual Studio\2019\Community\VC\Tools\MSVC\14.28.29333\include\vector

; 1694 :         if (_Myfirst) { // destroy and deallocate old array

  000df	85 d2		 test	 edx, edx
  000e1	74 27		 je	 SHORT $LN25@netRecvGui

; 1695 :             _Destroy(_Myfirst, _Mylast);
; 1696 :             _Getal().deallocate(_Myfirst, static_cast<size_type>(_Myend - _Myfirst));

  000e3	8b 4d dc	 mov	 ecx, DWORD PTR _kVec_dwGuildID$[ebp+8]
  000e6	2b ca		 sub	 ecx, edx
; File C:\Program Files (x86)\Microsoft Visual Studio\2019\Community\VC\Tools\MSVC\14.28.29333\include\xmemory

; 810  :         _Deallocate<_New_alignof<_Ty>>(_Ptr, sizeof(_Ty) * _Count);

  000e8	83 e1 fc	 and	 ecx, -4			; fffffffcH
  000eb	51		 push	 ecx
  000ec	52		 push	 edx
  000ed	e8 00 00 00 00	 call	 ??$_Deallocate@$07$0A@@std@@YAXPAXI@Z ; std::_Deallocate<8,0>
  000f2	83 c4 08	 add	 esp, 8
; File C:\Program Files (x86)\Microsoft Visual Studio\2019\Community\VC\Tools\MSVC\14.28.29333\include\vector

; 1698 :             _Myfirst = pointer();

  000f5	c7 45 d4 00 00
	00 00		 mov	 DWORD PTR _kVec_dwGuildID$[ebp], 0

; 1699 :             _Mylast  = pointer();

  000fc	c7 45 d8 00 00
	00 00		 mov	 DWORD PTR _kVec_dwGuildID$[ebp+4], 0

; 1700 :             _Myend   = pointer();

  00103	c7 45 dc 00 00
	00 00		 mov	 DWORD PTR _kVec_dwGuildID$[ebp+8], 0
$LN25@netRecvGui:
; File D:\Metin2 Server Files\mainline\SRC_2014\Metin2Client\UserInterface\PythonNetworkStreamModule.cpp

; 1699 : 	return Py_BuildNone();

  0010a	8d 4d e0	 lea	 ecx, DWORD PTR _kAddress$[ebp]
  0010d	e8 00 00 00 00	 call	 ??1CNetworkAddress@@QAE@XZ ; CNetworkAddress::~CNetworkAddress
  00112	8b c6		 mov	 eax, esi
$LN1@netRecvGui:

; 1700 : }

  00114	8b 4d f4	 mov	 ecx, DWORD PTR __$EHRec$[ebp]
  00117	64 89 0d 00 00
	00 00		 mov	 DWORD PTR fs:0, ecx
  0011e	59		 pop	 ecx
  0011f	5e		 pop	 esi
  00120	8b 4d f0	 mov	 ecx, DWORD PTR __$ArrayPad$[ebp]
  00123	33 cd		 xor	 ecx, ebp
  00125	e8 00 00 00 00	 call	 @__security_check_cookie@4
  0012a	8b e5		 mov	 esp, ebp
  0012c	5d		 pop	 ebp
  0012d	c3		 ret	 0
_TEXT	ENDS
;	COMDAT text$x
text$x	SEGMENT
__unwindfunclet$?netRecvGuildSymbol@@YAPAU_object@@PAU1@0@Z$0:
  00000	8d 4d e0	 lea	 ecx, DWORD PTR _kAddress$[ebp]
  00003	e9 00 00 00 00	 jmp	 ??1CNetworkAddress@@QAE@XZ ; CNetworkAddress::~CNetworkAddress
__unwindfunclet$?netRecvGuildSymbol@@YAPAU_object@@PAU1@0@Z$1:
  00008	8d 4d d4	 lea	 ecx, DWORD PTR _kVec_dwGuildID$[ebp]
  0000b	e9 00 00 00 00	 jmp	 ??1?$vector@KV?$allocator@K@std@@@std@@QAE@XZ ; std::vector<unsigned long,std::allocator<unsigned long> >::~vector<unsigned long,std::allocator<unsigned long> >
  00010	cc		 int	 3
  00011	cc		 int	 3
  00012	cc		 int	 3
  00013	cc		 int	 3
  00014	cc		 int	 3
__ehhandler$?netRecvGuildSymbol@@YAPAU_object@@PAU1@0@Z:
  00015	90		 npad	 1
  00016	90		 npad	 1
  00017	8b 54 24 08	 mov	 edx, DWORD PTR [esp+8]
  0001b	8d 42 0c	 lea	 eax, DWORD PTR [edx+12]
  0001e	8b 4a c8	 mov	 ecx, DWORD PTR [edx-56]
  00021	33 c8		 xor	 ecx, eax
  00023	e8 00 00 00 00	 call	 @__security_check_cookie@4
  00028	8b 4a fc	 mov	 ecx, DWORD PTR [edx-4]
  0002b	33 c8		 xor	 ecx, eax
  0002d	e8 00 00 00 00	 call	 @__security_check_cookie@4
  00032	b8 00 00 00 00	 mov	 eax, OFFSET __ehfuncinfo$?netRecvGuildSymbol@@YAPAU_object@@PAU1@0@Z
  00037	e9 00 00 00 00	 jmp	 ___CxxFrameHandler3
text$x	ENDS
?netRecvGuildSymbol@@YAPAU_object@@PAU1@0@Z ENDP	; netRecvGuildSymbol
; Function compile flags: /Ogtp
; File D:\Metin2 Server Files\mainline\SRC_2014\Metin2Client\UserInterface\PythonNetworkStreamModule.cpp
;	COMDAT ?netDisconnectUploader@@YAPAU_object@@PAU1@0@Z
_TEXT	SEGMENT
_poSelf$ = 8						; size = 4
_poArgs$ = 12						; size = 4
?netDisconnectUploader@@YAPAU_object@@PAU1@0@Z PROC	; netDisconnectUploader, COMDAT

; 1669 : 	CGuildMarkUploader& rkGuildMarkUploader=CGuildMarkUploader::Instance();
; 1670 : 	rkGuildMarkUploader.Disconnect();

  00000	8b 0d 00 00 00
	00		 mov	 ecx, DWORD PTR ?ms_singleton@?$CSingleton@VCGuildMarkUploader@@@@0PAVCGuildMarkUploader@@A ; CSingleton<CGuildMarkUploader>::ms_singleton
  00006	e8 00 00 00 00	 call	 ?Disconnect@CGuildMarkUploader@@QAEXXZ ; CGuildMarkUploader::Disconnect

; 1671 : 	return Py_BuildNone();

  0000b	e9 00 00 00 00	 jmp	 ?Py_BuildNone@@YAPAU_object@@XZ ; Py_BuildNone
?netDisconnectUploader@@YAPAU_object@@PAU1@0@Z ENDP	; netDisconnectUploader
_TEXT	ENDS
; Function compile flags: /Ogtp
; File D:\Metin2 Server Files\mainline\SRC_2014\Metin2Client\UserInterface\PythonNetworkStreamModule.cpp
;	COMDAT ?netSendGuildSymbol@@YAPAU_object@@PAU1@0@Z
_TEXT	SEGMENT
_uiError$ = -52						; size = 4
_iGuildID$ = -48					; size = 4
_szFileName$ = -44					; size = 4
_szIP$ = -40						; size = 4
_iPort$ = -36						; size = 4
_kAddress$ = -32					; size = 16
__$ArrayPad$ = -16					; size = 4
__$EHRec$ = -12						; size = 12
_poSelf$ = 8						; size = 4
_poArgs$ = 12						; size = 4
?netSendGuildSymbol@@YAPAU_object@@PAU1@0@Z PROC	; netSendGuildSymbol, COMDAT

; 1639 : {

  00000	55		 push	 ebp
  00001	8b ec		 mov	 ebp, esp
  00003	6a ff		 push	 -1
  00005	68 00 00 00 00	 push	 __ehhandler$?netSendGuildSymbol@@YAPAU_object@@PAU1@0@Z
  0000a	64 a1 00 00 00
	00		 mov	 eax, DWORD PTR fs:0
  00010	50		 push	 eax
  00011	83 ec 28	 sub	 esp, 40			; 00000028H
  00014	a1 00 00 00 00	 mov	 eax, DWORD PTR ___security_cookie
  00019	33 c5		 xor	 eax, ebp
  0001b	89 45 f0	 mov	 DWORD PTR __$ArrayPad$[ebp], eax
  0001e	56		 push	 esi
  0001f	50		 push	 eax
  00020	8d 45 f4	 lea	 eax, DWORD PTR __$EHRec$[ebp]
  00023	64 a3 00 00 00
	00		 mov	 DWORD PTR fs:0, eax
  00029	8b 75 0c	 mov	 esi, DWORD PTR _poArgs$[ebp]

; 1640 : 	char * szIP;
; 1641 : 	if (!PyTuple_GetString(poArgs, 0, &szIP))

  0002c	8d 45 d8	 lea	 eax, DWORD PTR _szIP$[ebp]
  0002f	50		 push	 eax
  00030	6a 00		 push	 0
  00032	56		 push	 esi
  00033	e8 00 00 00 00	 call	 ?PyTuple_GetString@@YA_NPAU_object@@HPAPAD@Z ; PyTuple_GetString
  00038	83 c4 0c	 add	 esp, 12			; 0000000cH
  0003b	84 c0		 test	 al, al
  0003d	75 0f		 jne	 SHORT $LN2@netSendGui
$LN10@netSendGui:

; 1665 : }

  0003f	6a 00		 push	 0
  00041	e8 00 00 00 00	 call	 ?Py_BuildException@@YAPAU_object@@PBDZZ ; Py_BuildException
  00046	83 c4 04	 add	 esp, 4
  00049	e9 84 00 00 00	 jmp	 $LN1@netSendGui
$LN2@netSendGui:

; 1642 : 		return Py_BuildException();
; 1643 : 	int iPort;
; 1644 : 	if (!PyTuple_GetInteger(poArgs, 1, &iPort))

  0004e	8d 45 dc	 lea	 eax, DWORD PTR _iPort$[ebp]
  00051	50		 push	 eax
  00052	6a 01		 push	 1
  00054	56		 push	 esi
  00055	e8 00 00 00 00	 call	 ?PyTuple_GetInteger@@YA_NPAU_object@@HPAH@Z ; PyTuple_GetInteger
  0005a	83 c4 0c	 add	 esp, 12			; 0000000cH
  0005d	84 c0		 test	 al, al
  0005f	74 de		 je	 SHORT $LN10@netSendGui

; 1645 : 		return Py_BuildException();
; 1646 : 	char * szFileName;
; 1647 : 	if (!PyTuple_GetString(poArgs, 2, &szFileName))

  00061	8d 45 d4	 lea	 eax, DWORD PTR _szFileName$[ebp]
  00064	50		 push	 eax
  00065	6a 02		 push	 2
  00067	56		 push	 esi
  00068	e8 00 00 00 00	 call	 ?PyTuple_GetString@@YA_NPAU_object@@HPAPAD@Z ; PyTuple_GetString
  0006d	83 c4 0c	 add	 esp, 12			; 0000000cH
  00070	84 c0		 test	 al, al
  00072	74 cb		 je	 SHORT $LN10@netSendGui

; 1648 : 		return Py_BuildException();
; 1649 : 	int iGuildID;
; 1650 : 	if (!PyTuple_GetInteger(poArgs, 3, &iGuildID))

  00074	8d 45 d0	 lea	 eax, DWORD PTR _iGuildID$[ebp]
  00077	50		 push	 eax
  00078	6a 03		 push	 3
  0007a	56		 push	 esi
  0007b	e8 00 00 00 00	 call	 ?PyTuple_GetInteger@@YA_NPAU_object@@HPAH@Z ; PyTuple_GetInteger
  00080	83 c4 0c	 add	 esp, 12			; 0000000cH
  00083	84 c0		 test	 al, al
  00085	74 b8		 je	 SHORT $LN10@netSendGui

; 1651 : 		return Py_BuildException();
; 1652 : 
; 1653 : 	CNetworkAddress kAddress;

  00087	8d 4d e0	 lea	 ecx, DWORD PTR _kAddress$[ebp]
  0008a	e8 00 00 00 00	 call	 ??0CNetworkAddress@@QAE@XZ ; CNetworkAddress::CNetworkAddress

; 1654 : 	kAddress.Set(szIP, iPort);

  0008f	ff 75 dc	 push	 DWORD PTR _iPort$[ebp]
  00092	8d 4d e0	 lea	 ecx, DWORD PTR _kAddress$[ebp]
  00095	c7 45 fc 00 00
	00 00		 mov	 DWORD PTR __$EHRec$[ebp+8], 0
  0009c	ff 75 d8	 push	 DWORD PTR _szIP$[ebp]
  0009f	e8 00 00 00 00	 call	 ?Set@CNetworkAddress@@QAE_NPBDH@Z ; CNetworkAddress::Set

; 1655 : 
; 1656 : 	UINT uiError;
; 1657 : 
; 1658 : 	CGuildMarkUploader& rkGuildMarkUploader=CGuildMarkUploader::Instance();
; 1659 : 	if (!rkGuildMarkUploader.ConnectToSendSymbol(kAddress, 0, 0, iGuildID, szFileName, &uiError))

  000a4	8b 0d 00 00 00
	00		 mov	 ecx, DWORD PTR ?ms_singleton@?$CSingleton@VCGuildMarkUploader@@@@0PAVCGuildMarkUploader@@A ; CSingleton<CGuildMarkUploader>::ms_singleton
  000aa	8d 45 cc	 lea	 eax, DWORD PTR _uiError$[ebp]
  000ad	50		 push	 eax
  000ae	ff 75 d4	 push	 DWORD PTR _szFileName$[ebp]
  000b1	8d 45 e0	 lea	 eax, DWORD PTR _kAddress$[ebp]
  000b4	ff 75 d0	 push	 DWORD PTR _iGuildID$[ebp]
  000b7	6a 00		 push	 0
  000b9	6a 00		 push	 0
  000bb	50		 push	 eax
  000bc	e8 00 00 00 00	 call	 ?ConnectToSendSymbol@CGuildMarkUploader@@QAE_NABVCNetworkAddress@@KKKPBDPAI@Z ; CGuildMarkUploader::ConnectToSendSymbol

; 1660 : 	{
; 1661 : 		assert(!"Failed connecting to send symbol");
; 1662 : 	}
; 1663 : 
; 1664 : 	return Py_BuildNone();

  000c1	e8 00 00 00 00	 call	 ?Py_BuildNone@@YAPAU_object@@XZ ; Py_BuildNone
  000c6	8d 4d e0	 lea	 ecx, DWORD PTR _kAddress$[ebp]
  000c9	8b f0		 mov	 esi, eax
  000cb	e8 00 00 00 00	 call	 ??1CNetworkAddress@@QAE@XZ ; CNetworkAddress::~CNetworkAddress
  000d0	8b c6		 mov	 eax, esi
$LN1@netSendGui:

; 1665 : }

  000d2	8b 4d f4	 mov	 ecx, DWORD PTR __$EHRec$[ebp]
  000d5	64 89 0d 00 00
	00 00		 mov	 DWORD PTR fs:0, ecx
  000dc	59		 pop	 ecx
  000dd	5e		 pop	 esi
  000de	8b 4d f0	 mov	 ecx, DWORD PTR __$ArrayPad$[ebp]
  000e1	33 cd		 xor	 ecx, ebp
  000e3	e8 00 00 00 00	 call	 @__security_check_cookie@4
  000e8	8b e5		 mov	 esp, ebp
  000ea	5d		 pop	 ebp
  000eb	c3		 ret	 0
_TEXT	ENDS
;	COMDAT text$x
text$x	SEGMENT
__unwindfunclet$?netSendGuildSymbol@@YAPAU_object@@PAU1@0@Z$0:
  00000	8d 4d e0	 lea	 ecx, DWORD PTR _kAddress$[ebp]
  00003	e9 00 00 00 00	 jmp	 ??1CNetworkAddress@@QAE@XZ ; CNetworkAddress::~CNetworkAddress
  00008	cc		 int	 3
  00009	cc		 int	 3
  0000a	cc		 int	 3
  0000b	cc		 int	 3
  0000c	cc		 int	 3
__ehhandler$?netSendGuildSymbol@@YAPAU_object@@PAU1@0@Z:
  0000d	90		 npad	 1
  0000e	90		 npad	 1
  0000f	8b 54 24 08	 mov	 edx, DWORD PTR [esp+8]
  00013	8d 42 0c	 lea	 eax, DWORD PTR [edx+12]
  00016	8b 4a d0	 mov	 ecx, DWORD PTR [edx-48]
  00019	33 c8		 xor	 ecx, eax
  0001b	e8 00 00 00 00	 call	 @__security_check_cookie@4
  00020	8b 4a fc	 mov	 ecx, DWORD PTR [edx-4]
  00023	33 c8		 xor	 ecx, eax
  00025	e8 00 00 00 00	 call	 @__security_check_cookie@4
  0002a	b8 00 00 00 00	 mov	 eax, OFFSET __ehfuncinfo$?netSendGuildSymbol@@YAPAU_object@@PAU1@0@Z
  0002f	e9 00 00 00 00	 jmp	 ___CxxFrameHandler3
text$x	ENDS
?netSendGuildSymbol@@YAPAU_object@@PAU1@0@Z ENDP	; netSendGuildSymbol
; Function compile flags: /Ogtp
; File D:\Metin2 Server Files\mainline\SRC_2014\Metin2Client\UserInterface\PythonNetworkStreamModule.cpp
;	COMDAT ?netSetSkillGroupFake@@YAPAU_object@@PAU1@0@Z
_TEXT	SEGMENT
_iIndex$ = -4						; size = 4
_poSelf$ = 8						; size = 4
_poArgs$ = 12						; size = 4
?netSetSkillGroupFake@@YAPAU_object@@PAU1@0@Z PROC	; netSetSkillGroupFake, COMDAT

; 1624 : {

  00000	55		 push	 ebp
  00001	8b ec		 mov	 ebp, esp
  00003	51		 push	 ecx

; 1625 : 	int iIndex;
; 1626 : 	if (!PyTuple_GetInteger(poArgs, 0, &iIndex))

  00004	8d 45 fc	 lea	 eax, DWORD PTR _iIndex$[ebp]
  00007	50		 push	 eax
  00008	6a 00		 push	 0
  0000a	ff 75 0c	 push	 DWORD PTR _poArgs$[ebp]
  0000d	e8 00 00 00 00	 call	 ?PyTuple_GetInteger@@YA_NPAU_object@@HPAH@Z ; PyTuple_GetInteger
  00012	83 c4 0c	 add	 esp, 12			; 0000000cH
  00015	84 c0		 test	 al, al
  00017	75 0e		 jne	 SHORT $LN2@netSetSkil

; 1627 : 		return Py_BuildException();

  00019	6a 00		 push	 0
  0001b	e8 00 00 00 00	 call	 ?Py_BuildException@@YAPAU_object@@PBDZZ ; Py_BuildException
  00020	83 c4 04	 add	 esp, 4

; 1633 : }

  00023	8b e5		 mov	 esp, ebp
  00025	5d		 pop	 ebp
  00026	c3		 ret	 0
$LN2@netSetSkil:

; 1628 : 
; 1629 : 	CPythonNetworkStream& rns=CPythonNetworkStream::Instance();
; 1630 : 	rns.__TEST_SetSkillGroupFake(iIndex);

  00027	ff 75 fc	 push	 DWORD PTR _iIndex$[ebp]
  0002a	8b 0d 00 00 00
	00		 mov	 ecx, DWORD PTR ?ms_singleton@?$CSingleton@VCPythonNetworkStream@@@@0PAVCPythonNetworkStream@@A ; CSingleton<CPythonNetworkStream>::ms_singleton
  00030	e8 00 00 00 00	 call	 ?__TEST_SetSkillGroupFake@CPythonNetworkStream@@QAEXH@Z ; CPythonNetworkStream::__TEST_SetSkillGroupFake

; 1631 : 
; 1632 : 	return Py_BuildNone();

  00035	e8 00 00 00 00	 call	 ?Py_BuildNone@@YAPAU_object@@XZ ; Py_BuildNone

; 1633 : }

  0003a	8b e5		 mov	 esp, ebp
  0003c	5d		 pop	 ebp
  0003d	c3		 ret	 0
?netSetSkillGroupFake@@YAPAU_object@@PAU1@0@Z ENDP	; netSetSkillGroupFake
_TEXT	ENDS
; Function compile flags: /Ogtp
; File D:\Metin2 Server Files\mainline\SRC_2014\Metin2Client\UserInterface\PythonNetworkStreamModule.cpp
;	COMDAT ?netSetEmpireLanguageMode@@YAPAU_object@@PAU1@0@Z
_TEXT	SEGMENT
_iMode$ = -4						; size = 4
_poSelf$ = 8						; size = 4
_poArgs$ = 12						; size = 4
?netSetEmpireLanguageMode@@YAPAU_object@@PAU1@0@Z PROC	; netSetEmpireLanguageMode, COMDAT

; 1612 : {

  00000	55		 push	 ebp
  00001	8b ec		 mov	 ebp, esp
  00003	51		 push	 ecx

; 1613 : 	int iMode;
; 1614 : 	if (!PyTuple_GetInteger(poArgs, 0, &iMode))

  00004	8d 45 fc	 lea	 eax, DWORD PTR _iMode$[ebp]
  00007	50		 push	 eax
  00008	6a 00		 push	 0
  0000a	ff 75 0c	 push	 DWORD PTR _poArgs$[ebp]
  0000d	e8 00 00 00 00	 call	 ?PyTuple_GetInteger@@YA_NPAU_object@@HPAH@Z ; PyTuple_GetInteger
  00012	83 c4 0c	 add	 esp, 12			; 0000000cH
  00015	84 c0		 test	 al, al
  00017	75 0e		 jne	 SHORT $LN2@netSetEmpi

; 1615 : 		return Py_BuildException();

  00019	6a 00		 push	 0
  0001b	e8 00 00 00 00	 call	 ?Py_BuildException@@YAPAU_object@@PBDZZ ; Py_BuildException
  00020	83 c4 04	 add	 esp, 4

; 1621 : }

  00023	8b e5		 mov	 esp, ebp
  00025	5d		 pop	 ebp
  00026	c3		 ret	 0
$LN2@netSetEmpi:

; 1616 : 
; 1617 : 	//CPythonNetworkStream& rns=CPythonNetworkStream::Instance();
; 1618 : 	gs_bEmpireLanuageEnable = iMode;

  00027	8b 45 fc	 mov	 eax, DWORD PTR _iMode$[ebp]
  0002a	a3 00 00 00 00	 mov	 DWORD PTR ?gs_bEmpireLanuageEnable@@3HA, eax ; gs_bEmpireLanuageEnable

; 1619 : 
; 1620 : 	return Py_BuildNone();

  0002f	e8 00 00 00 00	 call	 ?Py_BuildNone@@YAPAU_object@@XZ ; Py_BuildNone

; 1621 : }

  00034	8b e5		 mov	 esp, ebp
  00036	5d		 pop	 ebp
  00037	c3		 ret	 0
?netSetEmpireLanguageMode@@YAPAU_object@@PAU1@0@Z ENDP	; netSetEmpireLanguageMode
_TEXT	ENDS
; Function compile flags: /Ogtp
; File D:\Metin2 Server Files\mainline\SRC_2014\Metin2Client\UserInterface\PythonNetworkStreamModule.cpp
;	COMDAT ?netSetPacketSequenceMode@@YAPAU_object@@PAU1@0@Z
_TEXT	SEGMENT
_poSelf$ = 8						; size = 4
_poArgs$ = 12						; size = 4
?netSetPacketSequenceMode@@YAPAU_object@@PAU1@0@Z PROC	; netSetPacketSequenceMode, COMDAT

; 1603 : 	CPythonNetworkStream& rns=CPythonNetworkStream::Instance();
; 1604 : 	CAccountConnector & rkAccountConnector = CAccountConnector::Instance();
; 1605 : 	rns.SetPacketSequenceMode(true);

  00000	8b 0d 00 00 00
	00		 mov	 ecx, DWORD PTR ?ms_singleton@?$CSingleton@VCPythonNetworkStream@@@@0PAVCPythonNetworkStream@@A ; CSingleton<CPythonNetworkStream>::ms_singleton
  00006	56		 push	 esi
  00007	8b 35 00 00 00
	00		 mov	 esi, DWORD PTR ?ms_singleton@?$CSingleton@VCAccountConnector@@@@0PAVCAccountConnector@@A ; CSingleton<CAccountConnector>::ms_singleton
  0000d	6a 01		 push	 1
  0000f	e8 00 00 00 00	 call	 ?SetPacketSequenceMode@CNetworkStream@@QAEX_N@Z ; CNetworkStream::SetPacketSequenceMode

; 1606 : 	rkAccountConnector.SetPacketSequenceMode(true);

  00014	6a 01		 push	 1
  00016	8b ce		 mov	 ecx, esi
  00018	e8 00 00 00 00	 call	 ?SetPacketSequenceMode@CNetworkStream@@QAEX_N@Z ; CNetworkStream::SetPacketSequenceMode

; 1607 : 
; 1608 : 	return Py_BuildNone();

  0001d	5e		 pop	 esi
  0001e	e9 00 00 00 00	 jmp	 ?Py_BuildNone@@YAPAU_object@@XZ ; Py_BuildNone
?netSetPacketSequenceMode@@YAPAU_object@@PAU1@0@Z ENDP	; netSetPacketSequenceMode
_TEXT	ENDS
; Function compile flags: /Ogtp
; File D:\Metin2 Server Files\mainline\SRC_2014\Metin2Client\UserInterface\PythonNetworkStreamModule.cpp
;	COMDAT ?netSendSelectItemPacket@@YAPAU_object@@PAU1@0@Z
_TEXT	SEGMENT
_iItemPos$ = -4						; size = 4
_poSelf$ = 8						; size = 4
_poArgs$ = 12						; size = 4
?netSendSelectItemPacket@@YAPAU_object@@PAU1@0@Z PROC	; netSendSelectItemPacket, COMDAT

; 1590 : {

  00000	55		 push	 ebp
  00001	8b ec		 mov	 ebp, esp
  00003	51		 push	 ecx

; 1591 : 	int iItemPos;
; 1592 : 	if (!PyTuple_GetInteger(poArgs, 0, &iItemPos))

  00004	8d 45 fc	 lea	 eax, DWORD PTR _iItemPos$[ebp]
  00007	50		 push	 eax
  00008	6a 00		 push	 0
  0000a	ff 75 0c	 push	 DWORD PTR _poArgs$[ebp]
  0000d	e8 00 00 00 00	 call	 ?PyTuple_GetInteger@@YA_NPAU_object@@HPAH@Z ; PyTuple_GetInteger
  00012	83 c4 0c	 add	 esp, 12			; 0000000cH
  00015	84 c0		 test	 al, al
  00017	75 0e		 jne	 SHORT $LN2@netSendSel

; 1593 : 		return Py_BuildException();

  00019	6a 00		 push	 0
  0001b	e8 00 00 00 00	 call	 ?Py_BuildException@@YAPAU_object@@PBDZZ ; Py_BuildException
  00020	83 c4 04	 add	 esp, 4

; 1599 : }

  00023	8b e5		 mov	 esp, ebp
  00025	5d		 pop	 ebp
  00026	c3		 ret	 0
$LN2@netSendSel:

; 1594 : 
; 1595 : 	CPythonNetworkStream& rns=CPythonNetworkStream::Instance();
; 1596 : 	rns.SendSelectItemPacket(iItemPos);

  00027	ff 75 fc	 push	 DWORD PTR _iItemPos$[ebp]
  0002a	8b 0d 00 00 00
	00		 mov	 ecx, DWORD PTR ?ms_singleton@?$CSingleton@VCPythonNetworkStream@@@@0PAVCPythonNetworkStream@@A ; CSingleton<CPythonNetworkStream>::ms_singleton
  00030	e8 00 00 00 00	 call	 ?SendSelectItemPacket@CPythonNetworkStream@@QAE_NK@Z ; CPythonNetworkStream::SendSelectItemPacket

; 1597 : 
; 1598 : 	return Py_BuildNone();

  00035	e8 00 00 00 00	 call	 ?Py_BuildNone@@YAPAU_object@@XZ ; Py_BuildNone

; 1599 : }

  0003a	8b e5		 mov	 esp, ebp
  0003c	5d		 pop	 ebp
  0003d	c3		 ret	 0
?netSendSelectItemPacket@@YAPAU_object@@PAU1@0@Z ENDP	; netSendSelectItemPacket
_TEXT	ENDS
; Function compile flags: /Ogtp
; File D:\Metin2 Server Files\mainline\SRC_2014\Metin2Client\UserInterface\PythonNetworkStreamModule.cpp
;	COMDAT ?netSendRefinePacket@@YAPAU_object@@PAU1@0@Z
_TEXT	SEGMENT
_iSlotIndex$ = -8					; size = 4
_iType$ = -4						; size = 4
_poSelf$ = 8						; size = 4
_poArgs$ = 12						; size = 4
?netSendRefinePacket@@YAPAU_object@@PAU1@0@Z PROC	; netSendRefinePacket, COMDAT

; 1575 : {

  00000	55		 push	 ebp
  00001	8b ec		 mov	 ebp, esp
  00003	83 ec 08	 sub	 esp, 8

; 1576 : 	int iSlotIndex;
; 1577 : 	if (!PyTuple_GetInteger(poArgs, 0, &iSlotIndex))

  00006	8d 45 f8	 lea	 eax, DWORD PTR _iSlotIndex$[ebp]
  00009	50		 push	 eax
  0000a	6a 00		 push	 0
  0000c	ff 75 0c	 push	 DWORD PTR _poArgs$[ebp]
  0000f	e8 00 00 00 00	 call	 ?PyTuple_GetInteger@@YA_NPAU_object@@HPAH@Z ; PyTuple_GetInteger
  00014	83 c4 0c	 add	 esp, 12			; 0000000cH
  00017	84 c0		 test	 al, al
  00019	75 0e		 jne	 SHORT $LN2@netSendRef
$LN5@netSendRef:

; 1587 : }

  0001b	6a 00		 push	 0
  0001d	e8 00 00 00 00	 call	 ?Py_BuildException@@YAPAU_object@@PBDZZ ; Py_BuildException
  00022	83 c4 04	 add	 esp, 4
  00025	8b e5		 mov	 esp, ebp
  00027	5d		 pop	 ebp
  00028	c3		 ret	 0
$LN2@netSendRef:

; 1578 : 		return Py_BuildException();
; 1579 : 	int iType;
; 1580 : 	if (!PyTuple_GetInteger(poArgs, 1, &iType))

  00029	8d 45 fc	 lea	 eax, DWORD PTR _iType$[ebp]
  0002c	50		 push	 eax
  0002d	6a 01		 push	 1
  0002f	ff 75 0c	 push	 DWORD PTR _poArgs$[ebp]
  00032	e8 00 00 00 00	 call	 ?PyTuple_GetInteger@@YA_NPAU_object@@HPAH@Z ; PyTuple_GetInteger
  00037	83 c4 0c	 add	 esp, 12			; 0000000cH
  0003a	84 c0		 test	 al, al
  0003c	74 dd		 je	 SHORT $LN5@netSendRef

; 1581 : 		return Py_BuildException();
; 1582 : 
; 1583 : 	CPythonNetworkStream& rns=CPythonNetworkStream::Instance();
; 1584 : 	rns.SendRefinePacket(iSlotIndex, iType);

  0003e	ff 75 fc	 push	 DWORD PTR _iType$[ebp]
  00041	8b 0d 00 00 00
	00		 mov	 ecx, DWORD PTR ?ms_singleton@?$CSingleton@VCPythonNetworkStream@@@@0PAVCPythonNetworkStream@@A ; CSingleton<CPythonNetworkStream>::ms_singleton
  00047	ff 75 f8	 push	 DWORD PTR _iSlotIndex$[ebp]
  0004a	e8 00 00 00 00	 call	 ?SendRefinePacket@CPythonNetworkStream@@QAE_NEE@Z ; CPythonNetworkStream::SendRefinePacket

; 1585 : 
; 1586 : 	return Py_BuildNone();

  0004f	e8 00 00 00 00	 call	 ?Py_BuildNone@@YAPAU_object@@XZ ; Py_BuildNone

; 1587 : }

  00054	8b e5		 mov	 esp, ebp
  00056	5d		 pop	 ebp
  00057	c3		 ret	 0
?netSendRefinePacket@@YAPAU_object@@PAU1@0@Z ENDP	; netSendRefinePacket
_TEXT	ENDS
; Function compile flags: /Ogtp
; File D:\Metin2 Server Files\mainline\SRC_2014\Metin2Client\UserInterface\PythonNetworkStreamModule.cpp
;	COMDAT ?netSendRequestRefineInfoPacket@@YAPAU_object@@PAU1@0@Z
_TEXT	SEGMENT
_iSlotIndex$ = -4					; size = 4
_poSelf$ = 8						; size = 4
_poArgs$ = 12						; size = 4
?netSendRequestRefineInfoPacket@@YAPAU_object@@PAU1@0@Z PROC ; netSendRequestRefineInfoPacket, COMDAT

; 1562 : {

  00000	55		 push	 ebp
  00001	8b ec		 mov	 ebp, esp
  00003	51		 push	 ecx

; 1563 : 	int iSlotIndex;
; 1564 : 	if (!PyTuple_GetInteger(poArgs, 0, &iSlotIndex))

  00004	8d 45 fc	 lea	 eax, DWORD PTR _iSlotIndex$[ebp]
  00007	50		 push	 eax
  00008	6a 00		 push	 0
  0000a	ff 75 0c	 push	 DWORD PTR _poArgs$[ebp]
  0000d	e8 00 00 00 00	 call	 ?PyTuple_GetInteger@@YA_NPAU_object@@HPAH@Z ; PyTuple_GetInteger
  00012	83 c4 0c	 add	 esp, 12			; 0000000cH
  00015	84 c0		 test	 al, al
  00017	75 0e		 jne	 SHORT $LN2@netSendReq

; 1565 : 		return Py_BuildException();

  00019	6a 00		 push	 0
  0001b	e8 00 00 00 00	 call	 ?Py_BuildException@@YAPAU_object@@PBDZZ ; Py_BuildException
  00020	83 c4 04	 add	 esp, 4

; 1572 : }

  00023	8b e5		 mov	 esp, ebp
  00025	5d		 pop	 ebp
  00026	c3		 ret	 0
$LN2@netSendReq:

; 1566 : 
; 1567 : //	CPythonNetworkStream& rns=CPythonNetworkStream::Instance();
; 1568 : //	rns.SendRequestRefineInfoPacket(iSlotIndex);
; 1569 : 	assert(!"netSendRequestRefineInfoPacket -     ");
; 1570 : 
; 1571 : 	return Py_BuildNone();

  00027	e8 00 00 00 00	 call	 ?Py_BuildNone@@YAPAU_object@@XZ ; Py_BuildNone

; 1572 : }

  0002c	8b e5		 mov	 esp, ebp
  0002e	5d		 pop	 ebp
  0002f	c3		 ret	 0
?netSendRequestRefineInfoPacket@@YAPAU_object@@PAU1@0@Z ENDP ; netSendRequestRefineInfoPacket
_TEXT	ENDS
; Function compile flags: /Ogtp
; File D:\Metin2 Server Files\mainline\SRC_2014\Metin2Client\UserInterface\PythonNetworkStreamModule.cpp
;	COMDAT ?netSendGuildWithdrawMoneyPacket@@YAPAU_object@@PAU1@0@Z
_TEXT	SEGMENT
_iGSP$ = -4						; size = 4
_poSelf$ = 8						; size = 4
_poArgs$ = 12						; size = 4
?netSendGuildWithdrawMoneyPacket@@YAPAU_object@@PAU1@0@Z PROC ; netSendGuildWithdrawMoneyPacket, COMDAT

; 1550 : {

  00000	55		 push	 ebp
  00001	8b ec		 mov	 ebp, esp
  00003	51		 push	 ecx

; 1551 : 	int iGSP;
; 1552 : 	if (!PyTuple_GetInteger(poArgs, 0, &iGSP))

  00004	8d 45 fc	 lea	 eax, DWORD PTR _iGSP$[ebp]
  00007	50		 push	 eax
  00008	6a 00		 push	 0
  0000a	ff 75 0c	 push	 DWORD PTR _poArgs$[ebp]
  0000d	e8 00 00 00 00	 call	 ?PyTuple_GetInteger@@YA_NPAU_object@@HPAH@Z ; PyTuple_GetInteger
  00012	83 c4 0c	 add	 esp, 12			; 0000000cH
  00015	84 c0		 test	 al, al
  00017	75 0e		 jne	 SHORT $LN2@netSendGui

; 1553 : 		return Py_BuildException();

  00019	6a 00		 push	 0
  0001b	e8 00 00 00 00	 call	 ?Py_BuildException@@YAPAU_object@@PBDZZ ; Py_BuildException
  00020	83 c4 04	 add	 esp, 4

; 1559 : }

  00023	8b e5		 mov	 esp, ebp
  00025	5d		 pop	 ebp
  00026	c3		 ret	 0
$LN2@netSendGui:

; 1554 : 
; 1555 : 	CPythonNetworkStream& rns=CPythonNetworkStream::Instance();
; 1556 : 	rns.SendGuildWithdrawMoneyPacket(iGSP);

  00027	ff 75 fc	 push	 DWORD PTR _iGSP$[ebp]
  0002a	8b 0d 00 00 00
	00		 mov	 ecx, DWORD PTR ?ms_singleton@?$CSingleton@VCPythonNetworkStream@@@@0PAVCPythonNetworkStream@@A ; CSingleton<CPythonNetworkStream>::ms_singleton
  00030	e8 00 00 00 00	 call	 ?SendGuildWithdrawMoneyPacket@CPythonNetworkStream@@QAE_NK@Z ; CPythonNetworkStream::SendGuildWithdrawMoneyPacket

; 1557 : 
; 1558 : 	return Py_BuildNone();

  00035	e8 00 00 00 00	 call	 ?Py_BuildNone@@YAPAU_object@@XZ ; Py_BuildNone

; 1559 : }

  0003a	8b e5		 mov	 esp, ebp
  0003c	5d		 pop	 ebp
  0003d	c3		 ret	 0
?netSendGuildWithdrawMoneyPacket@@YAPAU_object@@PAU1@0@Z ENDP ; netSendGuildWithdrawMoneyPacket
_TEXT	ENDS
; Function compile flags: /Ogtp
; File D:\Metin2 Server Files\mainline\SRC_2014\Metin2Client\UserInterface\PythonNetworkStreamModule.cpp
;	COMDAT ?netSendGuildDepositMoneyPacket@@YAPAU_object@@PAU1@0@Z
_TEXT	SEGMENT
_iGSP$ = -4						; size = 4
_poSelf$ = 8						; size = 4
_poArgs$ = 12						; size = 4
?netSendGuildDepositMoneyPacket@@YAPAU_object@@PAU1@0@Z PROC ; netSendGuildDepositMoneyPacket, COMDAT

; 1538 : {

  00000	55		 push	 ebp
  00001	8b ec		 mov	 ebp, esp
  00003	51		 push	 ecx

; 1539 : 	int iGSP;
; 1540 : 	if (!PyTuple_GetInteger(poArgs, 0, &iGSP))

  00004	8d 45 fc	 lea	 eax, DWORD PTR _iGSP$[ebp]
  00007	50		 push	 eax
  00008	6a 00		 push	 0
  0000a	ff 75 0c	 push	 DWORD PTR _poArgs$[ebp]
  0000d	e8 00 00 00 00	 call	 ?PyTuple_GetInteger@@YA_NPAU_object@@HPAH@Z ; PyTuple_GetInteger
  00012	83 c4 0c	 add	 esp, 12			; 0000000cH
  00015	84 c0		 test	 al, al
  00017	75 0e		 jne	 SHORT $LN2@netSendGui

; 1541 : 		return Py_BuildException();

  00019	6a 00		 push	 0
  0001b	e8 00 00 00 00	 call	 ?Py_BuildException@@YAPAU_object@@PBDZZ ; Py_BuildException
  00020	83 c4 04	 add	 esp, 4

; 1547 : }

  00023	8b e5		 mov	 esp, ebp
  00025	5d		 pop	 ebp
  00026	c3		 ret	 0
$LN2@netSendGui:

; 1542 : 
; 1543 : 	CPythonNetworkStream& rns=CPythonNetworkStream::Instance();
; 1544 : 	rns.SendGuildDepositMoneyPacket(iGSP);

  00027	ff 75 fc	 push	 DWORD PTR _iGSP$[ebp]
  0002a	8b 0d 00 00 00
	00		 mov	 ecx, DWORD PTR ?ms_singleton@?$CSingleton@VCPythonNetworkStream@@@@0PAVCPythonNetworkStream@@A ; CSingleton<CPythonNetworkStream>::ms_singleton
  00030	e8 00 00 00 00	 call	 ?SendGuildDepositMoneyPacket@CPythonNetworkStream@@QAE_NK@Z ; CPythonNetworkStream::SendGuildDepositMoneyPacket

; 1545 : 
; 1546 : 	return Py_BuildNone();

  00035	e8 00 00 00 00	 call	 ?Py_BuildNone@@YAPAU_object@@XZ ; Py_BuildNone

; 1547 : }

  0003a	8b e5		 mov	 esp, ebp
  0003c	5d		 pop	 ebp
  0003d	c3		 ret	 0
?netSendGuildDepositMoneyPacket@@YAPAU_object@@PAU1@0@Z ENDP ; netSendGuildDepositMoneyPacket
_TEXT	ENDS
; Function compile flags: /Ogtp
; File D:\Metin2 Server Files\mainline\SRC_2014\Metin2Client\UserInterface\PythonNetworkStreamModule.cpp
;	COMDAT ?netSendGuildChargeGSPPacket@@YAPAU_object@@PAU1@0@Z
_TEXT	SEGMENT
_iGSP$ = -4						; size = 4
_poSelf$ = 8						; size = 4
_poArgs$ = 12						; size = 4
?netSendGuildChargeGSPPacket@@YAPAU_object@@PAU1@0@Z PROC ; netSendGuildChargeGSPPacket, COMDAT

; 1526 : {

  00000	55		 push	 ebp
  00001	8b ec		 mov	 ebp, esp
  00003	51		 push	 ecx

; 1527 : 	int iGSP;
; 1528 : 	if (!PyTuple_GetInteger(poArgs, 0, &iGSP))

  00004	8d 45 fc	 lea	 eax, DWORD PTR _iGSP$[ebp]
  00007	50		 push	 eax
  00008	6a 00		 push	 0
  0000a	ff 75 0c	 push	 DWORD PTR _poArgs$[ebp]
  0000d	e8 00 00 00 00	 call	 ?PyTuple_GetInteger@@YA_NPAU_object@@HPAH@Z ; PyTuple_GetInteger
  00012	83 c4 0c	 add	 esp, 12			; 0000000cH
  00015	84 c0		 test	 al, al
  00017	75 0e		 jne	 SHORT $LN2@netSendGui

; 1529 : 		return Py_BuildException();

  00019	6a 00		 push	 0
  0001b	e8 00 00 00 00	 call	 ?Py_BuildException@@YAPAU_object@@PBDZZ ; Py_BuildException
  00020	83 c4 04	 add	 esp, 4

; 1535 : }

  00023	8b e5		 mov	 esp, ebp
  00025	5d		 pop	 ebp
  00026	c3		 ret	 0
$LN2@netSendGui:

; 1530 : 
; 1531 : 	CPythonNetworkStream& rns=CPythonNetworkStream::Instance();
; 1532 : 	rns.SendGuildChargeGSPPacket(iGSP);

  00027	ff 75 fc	 push	 DWORD PTR _iGSP$[ebp]
  0002a	8b 0d 00 00 00
	00		 mov	 ecx, DWORD PTR ?ms_singleton@?$CSingleton@VCPythonNetworkStream@@@@0PAVCPythonNetworkStream@@A ; CSingleton<CPythonNetworkStream>::ms_singleton
  00030	e8 00 00 00 00	 call	 ?SendGuildChargeGSPPacket@CPythonNetworkStream@@QAE_NK@Z ; CPythonNetworkStream::SendGuildChargeGSPPacket

; 1533 : 
; 1534 : 	return Py_BuildNone();

  00035	e8 00 00 00 00	 call	 ?Py_BuildNone@@YAPAU_object@@XZ ; Py_BuildNone

; 1535 : }

  0003a	8b e5		 mov	 esp, ebp
  0003c	5d		 pop	 ebp
  0003d	c3		 ret	 0
?netSendGuildChargeGSPPacket@@YAPAU_object@@PAU1@0@Z ENDP ; netSendGuildChargeGSPPacket
_TEXT	ENDS
; Function compile flags: /Ogtp
; File D:\Metin2 Server Files\mainline\SRC_2014\Metin2Client\UserInterface\PythonNetworkStreamModule.cpp
;	COMDAT ?netSendGuildInviteAnswerPacket@@YAPAU_object@@PAU1@0@Z
_TEXT	SEGMENT
_iGuildID$ = -8						; size = 4
_iAnswer$ = -4						; size = 4
_poSelf$ = 8						; size = 4
_poArgs$ = 12						; size = 4
?netSendGuildInviteAnswerPacket@@YAPAU_object@@PAU1@0@Z PROC ; netSendGuildInviteAnswerPacket, COMDAT

; 1511 : {

  00000	55		 push	 ebp
  00001	8b ec		 mov	 ebp, esp
  00003	83 ec 08	 sub	 esp, 8

; 1512 : 	int iGuildID;
; 1513 : 	if (!PyTuple_GetInteger(poArgs, 0, &iGuildID))

  00006	8d 45 f8	 lea	 eax, DWORD PTR _iGuildID$[ebp]
  00009	50		 push	 eax
  0000a	6a 00		 push	 0
  0000c	ff 75 0c	 push	 DWORD PTR _poArgs$[ebp]
  0000f	e8 00 00 00 00	 call	 ?PyTuple_GetInteger@@YA_NPAU_object@@HPAH@Z ; PyTuple_GetInteger
  00014	83 c4 0c	 add	 esp, 12			; 0000000cH
  00017	84 c0		 test	 al, al
  00019	75 0e		 jne	 SHORT $LN2@netSendGui
$LN5@netSendGui:

; 1523 : }

  0001b	6a 00		 push	 0
  0001d	e8 00 00 00 00	 call	 ?Py_BuildException@@YAPAU_object@@PBDZZ ; Py_BuildException
  00022	83 c4 04	 add	 esp, 4
  00025	8b e5		 mov	 esp, ebp
  00027	5d		 pop	 ebp
  00028	c3		 ret	 0
$LN2@netSendGui:

; 1514 : 		return Py_BuildException();
; 1515 : 	int iAnswer;
; 1516 : 	if (!PyTuple_GetInteger(poArgs, 1, &iAnswer))

  00029	8d 45 fc	 lea	 eax, DWORD PTR _iAnswer$[ebp]
  0002c	50		 push	 eax
  0002d	6a 01		 push	 1
  0002f	ff 75 0c	 push	 DWORD PTR _poArgs$[ebp]
  00032	e8 00 00 00 00	 call	 ?PyTuple_GetInteger@@YA_NPAU_object@@HPAH@Z ; PyTuple_GetInteger
  00037	83 c4 0c	 add	 esp, 12			; 0000000cH
  0003a	84 c0		 test	 al, al
  0003c	74 dd		 je	 SHORT $LN5@netSendGui

; 1517 : 		return Py_BuildException();
; 1518 : 
; 1519 : 	CPythonNetworkStream& rns=CPythonNetworkStream::Instance();
; 1520 : 	rns.SendGuildInviteAnswerPacket(iGuildID, iAnswer);

  0003e	ff 75 fc	 push	 DWORD PTR _iAnswer$[ebp]
  00041	8b 0d 00 00 00
	00		 mov	 ecx, DWORD PTR ?ms_singleton@?$CSingleton@VCPythonNetworkStream@@@@0PAVCPythonNetworkStream@@A ; CSingleton<CPythonNetworkStream>::ms_singleton
  00047	ff 75 f8	 push	 DWORD PTR _iGuildID$[ebp]
  0004a	e8 00 00 00 00	 call	 ?SendGuildInviteAnswerPacket@CPythonNetworkStream@@QAE_NKE@Z ; CPythonNetworkStream::SendGuildInviteAnswerPacket

; 1521 : 
; 1522 : 	return Py_BuildNone();

  0004f	e8 00 00 00 00	 call	 ?Py_BuildNone@@YAPAU_object@@XZ ; Py_BuildNone

; 1523 : }

  00054	8b e5		 mov	 esp, ebp
  00056	5d		 pop	 ebp
  00057	c3		 ret	 0
?netSendGuildInviteAnswerPacket@@YAPAU_object@@PAU1@0@Z ENDP ; netSendGuildInviteAnswerPacket
_TEXT	ENDS
; Function compile flags: /Ogtp
; File D:\Metin2 Server Files\mainline\SRC_2014\Metin2Client\UserInterface\PythonNetworkStreamModule.cpp
;	COMDAT ?netSendGuildChangeMemberGeneralPacket@@YAPAU_object@@PAU1@0@Z
_TEXT	SEGMENT
_iPID$ = -8						; size = 4
_iFlag$ = -4						; size = 4
_poSelf$ = 8						; size = 4
_poArgs$ = 12						; size = 4
?netSendGuildChangeMemberGeneralPacket@@YAPAU_object@@PAU1@0@Z PROC ; netSendGuildChangeMemberGeneralPacket, COMDAT

; 1496 : {

  00000	55		 push	 ebp
  00001	8b ec		 mov	 ebp, esp
  00003	83 ec 08	 sub	 esp, 8

; 1497 : 	int iPID;
; 1498 : 	if (!PyTuple_GetInteger(poArgs, 0, &iPID))

  00006	8d 45 f8	 lea	 eax, DWORD PTR _iPID$[ebp]
  00009	50		 push	 eax
  0000a	6a 00		 push	 0
  0000c	ff 75 0c	 push	 DWORD PTR _poArgs$[ebp]
  0000f	e8 00 00 00 00	 call	 ?PyTuple_GetInteger@@YA_NPAU_object@@HPAH@Z ; PyTuple_GetInteger
  00014	83 c4 0c	 add	 esp, 12			; 0000000cH
  00017	84 c0		 test	 al, al
  00019	75 0e		 jne	 SHORT $LN2@netSendGui
$LN5@netSendGui:

; 1508 : }

  0001b	6a 00		 push	 0
  0001d	e8 00 00 00 00	 call	 ?Py_BuildException@@YAPAU_object@@PBDZZ ; Py_BuildException
  00022	83 c4 04	 add	 esp, 4
  00025	8b e5		 mov	 esp, ebp
  00027	5d		 pop	 ebp
  00028	c3		 ret	 0
$LN2@netSendGui:

; 1499 : 		return Py_BuildException();
; 1500 : 	int iFlag;
; 1501 : 	if (!PyTuple_GetInteger(poArgs, 1, &iFlag))

  00029	8d 45 fc	 lea	 eax, DWORD PTR _iFlag$[ebp]
  0002c	50		 push	 eax
  0002d	6a 01		 push	 1
  0002f	ff 75 0c	 push	 DWORD PTR _poArgs$[ebp]
  00032	e8 00 00 00 00	 call	 ?PyTuple_GetInteger@@YA_NPAU_object@@HPAH@Z ; PyTuple_GetInteger
  00037	83 c4 0c	 add	 esp, 12			; 0000000cH
  0003a	84 c0		 test	 al, al
  0003c	74 dd		 je	 SHORT $LN5@netSendGui

; 1502 : 		return Py_BuildException();
; 1503 : 
; 1504 : 	CPythonNetworkStream& rns=CPythonNetworkStream::Instance();
; 1505 : 	rns.SendGuildChangeMemberGeneralPacket(iPID, iFlag);

  0003e	ff 75 fc	 push	 DWORD PTR _iFlag$[ebp]
  00041	8b 0d 00 00 00
	00		 mov	 ecx, DWORD PTR ?ms_singleton@?$CSingleton@VCPythonNetworkStream@@@@0PAVCPythonNetworkStream@@A ; CSingleton<CPythonNetworkStream>::ms_singleton
  00047	ff 75 f8	 push	 DWORD PTR _iPID$[ebp]
  0004a	e8 00 00 00 00	 call	 ?SendGuildChangeMemberGeneralPacket@CPythonNetworkStream@@QAE_NKE@Z ; CPythonNetworkStream::SendGuildChangeMemberGeneralPacket

; 1506 : 
; 1507 : 	return Py_BuildNone();

  0004f	e8 00 00 00 00	 call	 ?Py_BuildNone@@YAPAU_object@@XZ ; Py_BuildNone

; 1508 : }

  00054	8b e5		 mov	 esp, ebp
  00056	5d		 pop	 ebp
  00057	c3		 ret	 0
?netSendGuildChangeMemberGeneralPacket@@YAPAU_object@@PAU1@0@Z ENDP ; netSendGuildChangeMemberGeneralPacket
_TEXT	ENDS
; Function compile flags: /Ogtp
; File D:\Metin2 Server Files\mainline\SRC_2014\Metin2Client\UserInterface\PythonNetworkStreamModule.cpp
;	COMDAT ?netSendGuildUseSkillPacket@@YAPAU_object@@PAU1@0@Z
_TEXT	SEGMENT
_iSkillID$ = -8						; size = 4
_iTargetVID$ = -4					; size = 4
_poSelf$ = 8						; size = 4
_poArgs$ = 12						; size = 4
?netSendGuildUseSkillPacket@@YAPAU_object@@PAU1@0@Z PROC ; netSendGuildUseSkillPacket, COMDAT

; 1481 : {

  00000	55		 push	 ebp
  00001	8b ec		 mov	 ebp, esp
  00003	83 ec 08	 sub	 esp, 8

; 1482 : 	int iSkillID;
; 1483 : 	if (!PyTuple_GetInteger(poArgs, 0, &iSkillID))

  00006	8d 45 f8	 lea	 eax, DWORD PTR _iSkillID$[ebp]
  00009	50		 push	 eax
  0000a	6a 00		 push	 0
  0000c	ff 75 0c	 push	 DWORD PTR _poArgs$[ebp]
  0000f	e8 00 00 00 00	 call	 ?PyTuple_GetInteger@@YA_NPAU_object@@HPAH@Z ; PyTuple_GetInteger
  00014	83 c4 0c	 add	 esp, 12			; 0000000cH
  00017	84 c0		 test	 al, al
  00019	75 0e		 jne	 SHORT $LN2@netSendGui
$LN5@netSendGui:

; 1493 : }

  0001b	6a 00		 push	 0
  0001d	e8 00 00 00 00	 call	 ?Py_BuildException@@YAPAU_object@@PBDZZ ; Py_BuildException
  00022	83 c4 04	 add	 esp, 4
  00025	8b e5		 mov	 esp, ebp
  00027	5d		 pop	 ebp
  00028	c3		 ret	 0
$LN2@netSendGui:

; 1484 : 		return Py_BuildException();
; 1485 : 	int iTargetVID;
; 1486 : 	if (!PyTuple_GetInteger(poArgs, 1, &iTargetVID))

  00029	8d 45 fc	 lea	 eax, DWORD PTR _iTargetVID$[ebp]
  0002c	50		 push	 eax
  0002d	6a 01		 push	 1
  0002f	ff 75 0c	 push	 DWORD PTR _poArgs$[ebp]
  00032	e8 00 00 00 00	 call	 ?PyTuple_GetInteger@@YA_NPAU_object@@HPAH@Z ; PyTuple_GetInteger
  00037	83 c4 0c	 add	 esp, 12			; 0000000cH
  0003a	84 c0		 test	 al, al
  0003c	74 dd		 je	 SHORT $LN5@netSendGui

; 1487 : 		return Py_BuildException();
; 1488 : 
; 1489 : 	CPythonNetworkStream& rns=CPythonNetworkStream::Instance();
; 1490 : 	rns.SendGuildUseSkillPacket(iSkillID, iTargetVID);

  0003e	ff 75 fc	 push	 DWORD PTR _iTargetVID$[ebp]
  00041	8b 0d 00 00 00
	00		 mov	 ecx, DWORD PTR ?ms_singleton@?$CSingleton@VCPythonNetworkStream@@@@0PAVCPythonNetworkStream@@A ; CSingleton<CPythonNetworkStream>::ms_singleton
  00047	ff 75 f8	 push	 DWORD PTR _iSkillID$[ebp]
  0004a	e8 00 00 00 00	 call	 ?SendGuildUseSkillPacket@CPythonNetworkStream@@QAE_NKK@Z ; CPythonNetworkStream::SendGuildUseSkillPacket

; 1491 : 
; 1492 : 	return Py_BuildNone();

  0004f	e8 00 00 00 00	 call	 ?Py_BuildNone@@YAPAU_object@@XZ ; Py_BuildNone

; 1493 : }

  00054	8b e5		 mov	 esp, ebp
  00056	5d		 pop	 ebp
  00057	c3		 ret	 0
?netSendGuildUseSkillPacket@@YAPAU_object@@PAU1@0@Z ENDP ; netSendGuildUseSkillPacket
_TEXT	ENDS
; Function compile flags: /Ogtp
; File D:\Metin2 Server Files\mainline\SRC_2014\Metin2Client\UserInterface\PythonNetworkStreamModule.cpp
;	COMDAT ?netSendGuildChangeMemberGradePacket@@YAPAU_object@@PAU1@0@Z
_TEXT	SEGMENT
_iPID$ = -8						; size = 4
_iGradeNumber$ = -4					; size = 4
_poSelf$ = 8						; size = 4
_poArgs$ = 12						; size = 4
?netSendGuildChangeMemberGradePacket@@YAPAU_object@@PAU1@0@Z PROC ; netSendGuildChangeMemberGradePacket, COMDAT

; 1466 : {

  00000	55		 push	 ebp
  00001	8b ec		 mov	 ebp, esp
  00003	83 ec 08	 sub	 esp, 8

; 1467 : 	int iPID;
; 1468 : 	if (!PyTuple_GetInteger(poArgs, 0, &iPID))

  00006	8d 45 f8	 lea	 eax, DWORD PTR _iPID$[ebp]
  00009	50		 push	 eax
  0000a	6a 00		 push	 0
  0000c	ff 75 0c	 push	 DWORD PTR _poArgs$[ebp]
  0000f	e8 00 00 00 00	 call	 ?PyTuple_GetInteger@@YA_NPAU_object@@HPAH@Z ; PyTuple_GetInteger
  00014	83 c4 0c	 add	 esp, 12			; 0000000cH
  00017	84 c0		 test	 al, al
  00019	75 0e		 jne	 SHORT $LN2@netSendGui
$LN5@netSendGui:

; 1478 : }

  0001b	6a 00		 push	 0
  0001d	e8 00 00 00 00	 call	 ?Py_BuildException@@YAPAU_object@@PBDZZ ; Py_BuildException
  00022	83 c4 04	 add	 esp, 4
  00025	8b e5		 mov	 esp, ebp
  00027	5d		 pop	 ebp
  00028	c3		 ret	 0
$LN2@netSendGui:

; 1469 : 		return Py_BuildException();
; 1470 : 	int iGradeNumber;
; 1471 : 	if (!PyTuple_GetInteger(poArgs, 1, &iGradeNumber))

  00029	8d 45 fc	 lea	 eax, DWORD PTR _iGradeNumber$[ebp]
  0002c	50		 push	 eax
  0002d	6a 01		 push	 1
  0002f	ff 75 0c	 push	 DWORD PTR _poArgs$[ebp]
  00032	e8 00 00 00 00	 call	 ?PyTuple_GetInteger@@YA_NPAU_object@@HPAH@Z ; PyTuple_GetInteger
  00037	83 c4 0c	 add	 esp, 12			; 0000000cH
  0003a	84 c0		 test	 al, al
  0003c	74 dd		 je	 SHORT $LN5@netSendGui

; 1472 : 		return Py_BuildException();
; 1473 : 
; 1474 : 	CPythonNetworkStream& rns=CPythonNetworkStream::Instance();
; 1475 : 	rns.SendGuildChangeMemberGradePacket(iPID, iGradeNumber);

  0003e	ff 75 fc	 push	 DWORD PTR _iGradeNumber$[ebp]
  00041	8b 0d 00 00 00
	00		 mov	 ecx, DWORD PTR ?ms_singleton@?$CSingleton@VCPythonNetworkStream@@@@0PAVCPythonNetworkStream@@A ; CSingleton<CPythonNetworkStream>::ms_singleton
  00047	ff 75 f8	 push	 DWORD PTR _iPID$[ebp]
  0004a	e8 00 00 00 00	 call	 ?SendGuildChangeMemberGradePacket@CPythonNetworkStream@@QAE_NKE@Z ; CPythonNetworkStream::SendGuildChangeMemberGradePacket

; 1476 : 
; 1477 : 	return Py_BuildNone();

  0004f	e8 00 00 00 00	 call	 ?Py_BuildNone@@YAPAU_object@@XZ ; Py_BuildNone

; 1478 : }

  00054	8b e5		 mov	 esp, ebp
  00056	5d		 pop	 ebp
  00057	c3		 ret	 0
?netSendGuildChangeMemberGradePacket@@YAPAU_object@@PAU1@0@Z ENDP ; netSendGuildChangeMemberGradePacket
_TEXT	ENDS
; Function compile flags: /Ogtp
; File D:\Metin2 Server Files\mainline\SRC_2014\Metin2Client\UserInterface\PythonNetworkStreamModule.cpp
;	COMDAT ?netSendGuildRefreshCommentsPacket@@YAPAU_object@@PAU1@0@Z
_TEXT	SEGMENT
_iHightestIndex$ = -4					; size = 4
_poSelf$ = 8						; size = 4
_poArgs$ = 12						; size = 4
?netSendGuildRefreshCommentsPacket@@YAPAU_object@@PAU1@0@Z PROC ; netSendGuildRefreshCommentsPacket, COMDAT

; 1454 : {

  00000	55		 push	 ebp
  00001	8b ec		 mov	 ebp, esp
  00003	51		 push	 ecx

; 1455 : 	int iHightestIndex;
; 1456 : 	if (!PyTuple_GetInteger(poArgs, 0, &iHightestIndex))

  00004	8d 45 fc	 lea	 eax, DWORD PTR _iHightestIndex$[ebp]
  00007	50		 push	 eax
  00008	6a 00		 push	 0
  0000a	ff 75 0c	 push	 DWORD PTR _poArgs$[ebp]
  0000d	e8 00 00 00 00	 call	 ?PyTuple_GetInteger@@YA_NPAU_object@@HPAH@Z ; PyTuple_GetInteger
  00012	83 c4 0c	 add	 esp, 12			; 0000000cH
  00015	84 c0		 test	 al, al
  00017	75 0e		 jne	 SHORT $LN2@netSendGui

; 1457 : 		return Py_BuildException();

  00019	6a 00		 push	 0
  0001b	e8 00 00 00 00	 call	 ?Py_BuildException@@YAPAU_object@@PBDZZ ; Py_BuildException
  00020	83 c4 04	 add	 esp, 4

; 1463 : }

  00023	8b e5		 mov	 esp, ebp
  00025	5d		 pop	 ebp
  00026	c3		 ret	 0
$LN2@netSendGui:

; 1458 : 
; 1459 : 	CPythonNetworkStream& rns=CPythonNetworkStream::Instance();
; 1460 : 	rns.SendGuildRefreshCommentsPacket(iHightestIndex);

  00027	ff 75 fc	 push	 DWORD PTR _iHightestIndex$[ebp]
  0002a	8b 0d 00 00 00
	00		 mov	 ecx, DWORD PTR ?ms_singleton@?$CSingleton@VCPythonNetworkStream@@@@0PAVCPythonNetworkStream@@A ; CSingleton<CPythonNetworkStream>::ms_singleton
  00030	e8 00 00 00 00	 call	 ?SendGuildRefreshCommentsPacket@CPythonNetworkStream@@QAE_NK@Z ; CPythonNetworkStream::SendGuildRefreshCommentsPacket

; 1461 : 
; 1462 : 	return Py_BuildNone();

  00035	e8 00 00 00 00	 call	 ?Py_BuildNone@@YAPAU_object@@XZ ; Py_BuildNone

; 1463 : }

  0003a	8b e5		 mov	 esp, ebp
  0003c	5d		 pop	 ebp
  0003d	c3		 ret	 0
?netSendGuildRefreshCommentsPacket@@YAPAU_object@@PAU1@0@Z ENDP ; netSendGuildRefreshCommentsPacket
_TEXT	ENDS
; Function compile flags: /Ogtp
; File D:\Metin2 Server Files\mainline\SRC_2014\Metin2Client\UserInterface\PythonNetworkStreamModule.cpp
;	COMDAT ?netSnedGuildDeleteCommentPacket@@YAPAU_object@@PAU1@0@Z
_TEXT	SEGMENT
_iIndex$ = -4						; size = 4
_poSelf$ = 8						; size = 4
_poArgs$ = 12						; size = 4
?netSnedGuildDeleteCommentPacket@@YAPAU_object@@PAU1@0@Z PROC ; netSnedGuildDeleteCommentPacket, COMDAT

; 1442 : {

  00000	55		 push	 ebp
  00001	8b ec		 mov	 ebp, esp
  00003	51		 push	 ecx

; 1443 : 	int iIndex;
; 1444 : 	if (!PyTuple_GetInteger(poArgs, 0, &iIndex))

  00004	8d 45 fc	 lea	 eax, DWORD PTR _iIndex$[ebp]
  00007	50		 push	 eax
  00008	6a 00		 push	 0
  0000a	ff 75 0c	 push	 DWORD PTR _poArgs$[ebp]
  0000d	e8 00 00 00 00	 call	 ?PyTuple_GetInteger@@YA_NPAU_object@@HPAH@Z ; PyTuple_GetInteger
  00012	83 c4 0c	 add	 esp, 12			; 0000000cH
  00015	84 c0		 test	 al, al
  00017	75 0e		 jne	 SHORT $LN2@netSnedGui

; 1445 : 		return Py_BuildException();

  00019	6a 00		 push	 0
  0001b	e8 00 00 00 00	 call	 ?Py_BuildException@@YAPAU_object@@PBDZZ ; Py_BuildException
  00020	83 c4 04	 add	 esp, 4

; 1451 : }

  00023	8b e5		 mov	 esp, ebp
  00025	5d		 pop	 ebp
  00026	c3		 ret	 0
$LN2@netSnedGui:

; 1446 : 
; 1447 : 	CPythonNetworkStream& rns=CPythonNetworkStream::Instance();
; 1448 : 	rns.SendGuildDeleteCommentPacket(iIndex);

  00027	ff 75 fc	 push	 DWORD PTR _iIndex$[ebp]
  0002a	8b 0d 00 00 00
	00		 mov	 ecx, DWORD PTR ?ms_singleton@?$CSingleton@VCPythonNetworkStream@@@@0PAVCPythonNetworkStream@@A ; CSingleton<CPythonNetworkStream>::ms_singleton
  00030	e8 00 00 00 00	 call	 ?SendGuildDeleteCommentPacket@CPythonNetworkStream@@QAE_NK@Z ; CPythonNetworkStream::SendGuildDeleteCommentPacket

; 1449 : 
; 1450 : 	return Py_BuildNone();

  00035	e8 00 00 00 00	 call	 ?Py_BuildNone@@YAPAU_object@@XZ ; Py_BuildNone

; 1451 : }

  0003a	8b e5		 mov	 esp, ebp
  0003c	5d		 pop	 ebp
  0003d	c3		 ret	 0
?netSnedGuildDeleteCommentPacket@@YAPAU_object@@PAU1@0@Z ENDP ; netSnedGuildDeleteCommentPacket
_TEXT	ENDS
; Function compile flags: /Ogtp
; File D:\Metin2 Server Files\mainline\SRC_2014\Metin2Client\UserInterface\PythonNetworkStreamModule.cpp
;	COMDAT ?netSnedGuildPostCommentPacket@@YAPAU_object@@PAU1@0@Z
_TEXT	SEGMENT
_szComment$ = -4					; size = 4
_poSelf$ = 8						; size = 4
_poArgs$ = 12						; size = 4
?netSnedGuildPostCommentPacket@@YAPAU_object@@PAU1@0@Z PROC ; netSnedGuildPostCommentPacket, COMDAT

; 1430 : {

  00000	55		 push	 ebp
  00001	8b ec		 mov	 ebp, esp
  00003	51		 push	 ecx

; 1431 : 	char * szComment;
; 1432 : 	if (!PyTuple_GetString(poArgs, 0, &szComment))

  00004	8d 45 fc	 lea	 eax, DWORD PTR _szComment$[ebp]
  00007	50		 push	 eax
  00008	6a 00		 push	 0
  0000a	ff 75 0c	 push	 DWORD PTR _poArgs$[ebp]
  0000d	e8 00 00 00 00	 call	 ?PyTuple_GetString@@YA_NPAU_object@@HPAPAD@Z ; PyTuple_GetString
  00012	83 c4 0c	 add	 esp, 12			; 0000000cH
  00015	84 c0		 test	 al, al
  00017	75 0e		 jne	 SHORT $LN2@netSnedGui

; 1433 : 		return Py_BuildException();

  00019	6a 00		 push	 0
  0001b	e8 00 00 00 00	 call	 ?Py_BuildException@@YAPAU_object@@PBDZZ ; Py_BuildException
  00020	83 c4 04	 add	 esp, 4

; 1439 : }

  00023	8b e5		 mov	 esp, ebp
  00025	5d		 pop	 ebp
  00026	c3		 ret	 0
$LN2@netSnedGui:

; 1434 : 
; 1435 : 	CPythonNetworkStream& rns=CPythonNetworkStream::Instance();
; 1436 : 	rns.SendGuildPostCommentPacket(szComment);

  00027	ff 75 fc	 push	 DWORD PTR _szComment$[ebp]
  0002a	8b 0d 00 00 00
	00		 mov	 ecx, DWORD PTR ?ms_singleton@?$CSingleton@VCPythonNetworkStream@@@@0PAVCPythonNetworkStream@@A ; CSingleton<CPythonNetworkStream>::ms_singleton
  00030	e8 00 00 00 00	 call	 ?SendGuildPostCommentPacket@CPythonNetworkStream@@QAE_NPBD@Z ; CPythonNetworkStream::SendGuildPostCommentPacket

; 1437 : 
; 1438 : 	return Py_BuildNone();

  00035	e8 00 00 00 00	 call	 ?Py_BuildNone@@YAPAU_object@@XZ ; Py_BuildNone

; 1439 : }

  0003a	8b e5		 mov	 esp, ebp
  0003c	5d		 pop	 ebp
  0003d	c3		 ret	 0
?netSnedGuildPostCommentPacket@@YAPAU_object@@PAU1@0@Z ENDP ; netSnedGuildPostCommentPacket
_TEXT	ENDS
; Function compile flags: /Ogtp
; File D:\Metin2 Server Files\mainline\SRC_2014\Metin2Client\UserInterface\PythonNetworkStreamModule.cpp
;	COMDAT ?netSendGuildOfferPacket@@YAPAU_object@@PAU1@0@Z
_TEXT	SEGMENT
_iExperience$ = -4					; size = 4
_poSelf$ = 8						; size = 4
_poArgs$ = 12						; size = 4
?netSendGuildOfferPacket@@YAPAU_object@@PAU1@0@Z PROC	; netSendGuildOfferPacket, COMDAT

; 1418 : {

  00000	55		 push	 ebp
  00001	8b ec		 mov	 ebp, esp
  00003	51		 push	 ecx

; 1419 : 	int iExperience;
; 1420 : 	if (!PyTuple_GetInteger(poArgs, 0, &iExperience))

  00004	8d 45 fc	 lea	 eax, DWORD PTR _iExperience$[ebp]
  00007	50		 push	 eax
  00008	6a 00		 push	 0
  0000a	ff 75 0c	 push	 DWORD PTR _poArgs$[ebp]
  0000d	e8 00 00 00 00	 call	 ?PyTuple_GetInteger@@YA_NPAU_object@@HPAH@Z ; PyTuple_GetInteger
  00012	83 c4 0c	 add	 esp, 12			; 0000000cH
  00015	84 c0		 test	 al, al
  00017	75 0e		 jne	 SHORT $LN2@netSendGui

; 1421 : 		return Py_BuildException();

  00019	6a 00		 push	 0
  0001b	e8 00 00 00 00	 call	 ?Py_BuildException@@YAPAU_object@@PBDZZ ; Py_BuildException
  00020	83 c4 04	 add	 esp, 4

; 1427 : }

  00023	8b e5		 mov	 esp, ebp
  00025	5d		 pop	 ebp
  00026	c3		 ret	 0
$LN2@netSendGui:

; 1422 : 
; 1423 : 	CPythonNetworkStream& rns=CPythonNetworkStream::Instance();
; 1424 : 	rns.SendGuildOfferPacket(iExperience);

  00027	ff 75 fc	 push	 DWORD PTR _iExperience$[ebp]
  0002a	8b 0d 00 00 00
	00		 mov	 ecx, DWORD PTR ?ms_singleton@?$CSingleton@VCPythonNetworkStream@@@@0PAVCPythonNetworkStream@@A ; CSingleton<CPythonNetworkStream>::ms_singleton
  00030	e8 00 00 00 00	 call	 ?SendGuildOfferPacket@CPythonNetworkStream@@QAE_NK@Z ; CPythonNetworkStream::SendGuildOfferPacket

; 1425 : 
; 1426 : 	return Py_BuildNone();

  00035	e8 00 00 00 00	 call	 ?Py_BuildNone@@YAPAU_object@@XZ ; Py_BuildNone

; 1427 : }

  0003a	8b e5		 mov	 esp, ebp
  0003c	5d		 pop	 ebp
  0003d	c3		 ret	 0
?netSendGuildOfferPacket@@YAPAU_object@@PAU1@0@Z ENDP	; netSendGuildOfferPacket
_TEXT	ENDS
; Function compile flags: /Ogtp
; File D:\Metin2 Server Files\mainline\SRC_2014\Metin2Client\UserInterface\PythonNetworkStreamModule.cpp
;	COMDAT ?netSendGuildChangeGradeAuthorityPacket@@YAPAU_object@@PAU1@0@Z
_TEXT	SEGMENT
_iGradeNumber$ = -8					; size = 4
_iAuthority$ = -4					; size = 4
_poSelf$ = 8						; size = 4
_poArgs$ = 12						; size = 4
?netSendGuildChangeGradeAuthorityPacket@@YAPAU_object@@PAU1@0@Z PROC ; netSendGuildChangeGradeAuthorityPacket, COMDAT

; 1403 : {

  00000	55		 push	 ebp
  00001	8b ec		 mov	 ebp, esp
  00003	83 ec 08	 sub	 esp, 8

; 1404 : 	int iGradeNumber;
; 1405 : 	if (!PyTuple_GetInteger(poArgs, 0, &iGradeNumber))

  00006	8d 45 f8	 lea	 eax, DWORD PTR _iGradeNumber$[ebp]
  00009	50		 push	 eax
  0000a	6a 00		 push	 0
  0000c	ff 75 0c	 push	 DWORD PTR _poArgs$[ebp]
  0000f	e8 00 00 00 00	 call	 ?PyTuple_GetInteger@@YA_NPAU_object@@HPAH@Z ; PyTuple_GetInteger
  00014	83 c4 0c	 add	 esp, 12			; 0000000cH
  00017	84 c0		 test	 al, al
  00019	75 0e		 jne	 SHORT $LN2@netSendGui
$LN5@netSendGui:

; 1415 : }

  0001b	6a 00		 push	 0
  0001d	e8 00 00 00 00	 call	 ?Py_BuildException@@YAPAU_object@@PBDZZ ; Py_BuildException
  00022	83 c4 04	 add	 esp, 4
  00025	8b e5		 mov	 esp, ebp
  00027	5d		 pop	 ebp
  00028	c3		 ret	 0
$LN2@netSendGui:

; 1406 : 		return Py_BuildException();
; 1407 : 	int iAuthority;
; 1408 : 	if (!PyTuple_GetInteger(poArgs, 1, &iAuthority))

  00029	8d 45 fc	 lea	 eax, DWORD PTR _iAuthority$[ebp]
  0002c	50		 push	 eax
  0002d	6a 01		 push	 1
  0002f	ff 75 0c	 push	 DWORD PTR _poArgs$[ebp]
  00032	e8 00 00 00 00	 call	 ?PyTuple_GetInteger@@YA_NPAU_object@@HPAH@Z ; PyTuple_GetInteger
  00037	83 c4 0c	 add	 esp, 12			; 0000000cH
  0003a	84 c0		 test	 al, al
  0003c	74 dd		 je	 SHORT $LN5@netSendGui

; 1409 : 		return Py_BuildException();
; 1410 : 
; 1411 : 	CPythonNetworkStream& rns=CPythonNetworkStream::Instance();
; 1412 : 	rns.SendGuildChangeGradeAuthorityPacket(iGradeNumber, iAuthority);

  0003e	ff 75 fc	 push	 DWORD PTR _iAuthority$[ebp]
  00041	8b 0d 00 00 00
	00		 mov	 ecx, DWORD PTR ?ms_singleton@?$CSingleton@VCPythonNetworkStream@@@@0PAVCPythonNetworkStream@@A ; CSingleton<CPythonNetworkStream>::ms_singleton
  00047	ff 75 f8	 push	 DWORD PTR _iGradeNumber$[ebp]
  0004a	e8 00 00 00 00	 call	 ?SendGuildChangeGradeAuthorityPacket@CPythonNetworkStream@@QAE_NEE@Z ; CPythonNetworkStream::SendGuildChangeGradeAuthorityPacket

; 1413 : 
; 1414 : 	return Py_BuildNone();

  0004f	e8 00 00 00 00	 call	 ?Py_BuildNone@@YAPAU_object@@XZ ; Py_BuildNone

; 1415 : }

  00054	8b e5		 mov	 esp, ebp
  00056	5d		 pop	 ebp
  00057	c3		 ret	 0
?netSendGuildChangeGradeAuthorityPacket@@YAPAU_object@@PAU1@0@Z ENDP ; netSendGuildChangeGradeAuthorityPacket
_TEXT	ENDS
; Function compile flags: /Ogtp
; File D:\Metin2 Server Files\mainline\SRC_2014\Metin2Client\UserInterface\PythonNetworkStreamModule.cpp
;	COMDAT ?netSendGuildChangeGradeNamePacket@@YAPAU_object@@PAU1@0@Z
_TEXT	SEGMENT
_iGradeNumber$ = -8					; size = 4
_szGradeName$ = -4					; size = 4
_poSelf$ = 8						; size = 4
_poArgs$ = 12						; size = 4
?netSendGuildChangeGradeNamePacket@@YAPAU_object@@PAU1@0@Z PROC ; netSendGuildChangeGradeNamePacket, COMDAT

; 1388 : {

  00000	55		 push	 ebp
  00001	8b ec		 mov	 ebp, esp
  00003	83 ec 08	 sub	 esp, 8

; 1389 : 	int iGradeNumber;
; 1390 : 	if (!PyTuple_GetInteger(poArgs, 0, &iGradeNumber))

  00006	8d 45 f8	 lea	 eax, DWORD PTR _iGradeNumber$[ebp]
  00009	50		 push	 eax
  0000a	6a 00		 push	 0
  0000c	ff 75 0c	 push	 DWORD PTR _poArgs$[ebp]
  0000f	e8 00 00 00 00	 call	 ?PyTuple_GetInteger@@YA_NPAU_object@@HPAH@Z ; PyTuple_GetInteger
  00014	83 c4 0c	 add	 esp, 12			; 0000000cH
  00017	84 c0		 test	 al, al
  00019	75 0e		 jne	 SHORT $LN2@netSendGui
$LN5@netSendGui:

; 1400 : }

  0001b	6a 00		 push	 0
  0001d	e8 00 00 00 00	 call	 ?Py_BuildException@@YAPAU_object@@PBDZZ ; Py_BuildException
  00022	83 c4 04	 add	 esp, 4
  00025	8b e5		 mov	 esp, ebp
  00027	5d		 pop	 ebp
  00028	c3		 ret	 0
$LN2@netSendGui:

; 1391 : 		return Py_BuildException();
; 1392 : 	char * szGradeName;
; 1393 : 	if (!PyTuple_GetString(poArgs, 1, &szGradeName))

  00029	8d 45 fc	 lea	 eax, DWORD PTR _szGradeName$[ebp]
  0002c	50		 push	 eax
  0002d	6a 01		 push	 1
  0002f	ff 75 0c	 push	 DWORD PTR _poArgs$[ebp]
  00032	e8 00 00 00 00	 call	 ?PyTuple_GetString@@YA_NPAU_object@@HPAPAD@Z ; PyTuple_GetString
  00037	83 c4 0c	 add	 esp, 12			; 0000000cH
  0003a	84 c0		 test	 al, al
  0003c	74 dd		 je	 SHORT $LN5@netSendGui

; 1394 : 		return Py_BuildException();
; 1395 : 
; 1396 : 	CPythonNetworkStream& rns=CPythonNetworkStream::Instance();
; 1397 : 	rns.SendGuildChangeGradeNamePacket(iGradeNumber, szGradeName);

  0003e	ff 75 fc	 push	 DWORD PTR _szGradeName$[ebp]
  00041	8b 0d 00 00 00
	00		 mov	 ecx, DWORD PTR ?ms_singleton@?$CSingleton@VCPythonNetworkStream@@@@0PAVCPythonNetworkStream@@A ; CSingleton<CPythonNetworkStream>::ms_singleton
  00047	ff 75 f8	 push	 DWORD PTR _iGradeNumber$[ebp]
  0004a	e8 00 00 00 00	 call	 ?SendGuildChangeGradeNamePacket@CPythonNetworkStream@@QAE_NEPBD@Z ; CPythonNetworkStream::SendGuildChangeGradeNamePacket

; 1398 : 
; 1399 : 	return Py_BuildNone();

  0004f	e8 00 00 00 00	 call	 ?Py_BuildNone@@YAPAU_object@@XZ ; Py_BuildNone

; 1400 : }

  00054	8b e5		 mov	 esp, ebp
  00056	5d		 pop	 ebp
  00057	c3		 ret	 0
?netSendGuildChangeGradeNamePacket@@YAPAU_object@@PAU1@0@Z ENDP ; netSendGuildChangeGradeNamePacket
_TEXT	ENDS
; Function compile flags: /Ogtp
; File D:\Metin2 Server Files\mainline\SRC_2014\Metin2Client\UserInterface\PythonNetworkStreamModule.cpp
;	COMDAT ?netSendGuildRemoveMemberPacket@@YAPAU_object@@PAU1@0@Z
_TEXT	SEGMENT
_pGuildMemberData$ = -8					; size = 4
_szKey$ = -4						; size = 4
_poSelf$ = 8						; size = 4
_poArgs$ = 12						; size = 4
?netSendGuildRemoveMemberPacket@@YAPAU_object@@PAU1@0@Z PROC ; netSendGuildRemoveMemberPacket, COMDAT

; 1369 : {

  00000	55		 push	 ebp
  00001	8b ec		 mov	 ebp, esp
  00003	83 ec 08	 sub	 esp, 8

; 1370 : 	char * szKey;
; 1371 : 	if (!PyTuple_GetString(poArgs, 0, &szKey))

  00006	8d 45 fc	 lea	 eax, DWORD PTR _szKey$[ebp]
  00009	50		 push	 eax
  0000a	6a 00		 push	 0
  0000c	ff 75 0c	 push	 DWORD PTR _poArgs$[ebp]
  0000f	e8 00 00 00 00	 call	 ?PyTuple_GetString@@YA_NPAU_object@@HPAPAD@Z ; PyTuple_GetString
  00014	83 c4 0c	 add	 esp, 12			; 0000000cH
  00017	84 c0		 test	 al, al
  00019	75 0e		 jne	 SHORT $LN2@netSendGui

; 1372 : 		return Py_BuildException();

  0001b	6a 00		 push	 0
  0001d	e8 00 00 00 00	 call	 ?Py_BuildException@@YAPAU_object@@PBDZZ ; Py_BuildException
  00022	83 c4 04	 add	 esp, 4

; 1383 : 
; 1384 : 	return Py_BuildNone();
; 1385 : }

  00025	8b e5		 mov	 esp, ebp
  00027	5d		 pop	 ebp
  00028	c3		 ret	 0
$LN2@netSendGui:

; 1373 : 
; 1374 : 	CPythonGuild::TGuildMemberData * pGuildMemberData;
; 1375 : 	if (!CPythonGuild::Instance().GetMemberDataPtrByName(szKey, &pGuildMemberData))

  00029	8b 0d 00 00 00
	00		 mov	 ecx, DWORD PTR ?ms_singleton@?$CSingleton@VCPythonGuild@@@@0PAVCPythonGuild@@A ; CSingleton<CPythonGuild>::ms_singleton
  0002f	8d 45 f8	 lea	 eax, DWORD PTR _pGuildMemberData$[ebp]
  00032	50		 push	 eax
  00033	ff 75 fc	 push	 DWORD PTR _szKey$[ebp]
  00036	e8 00 00 00 00	 call	 ?GetMemberDataPtrByName@CPythonGuild@@QAEHPBDPAPAUSGuildMemberData@1@@Z ; CPythonGuild::GetMemberDataPtrByName
  0003b	85 c0		 test	 eax, eax
  0003d	75 19		 jne	 SHORT $LN3@netSendGui

; 1376 : 	{
; 1377 : 		TraceError("netSendGuildRemoveMemberPacket(szKey=%s) - Can't Find Guild Member\n", szKey);

  0003f	ff 75 fc	 push	 DWORD PTR _szKey$[ebp]
  00042	68 00 00 00 00	 push	 OFFSET ??_C@_0EE@CPCFCFHF@netSendGuildRemoveMemberPacket?$CI@
  00047	e8 00 00 00 00	 call	 ?TraceError@@YAXPBDZZ	; TraceError
  0004c	83 c4 08	 add	 esp, 8

; 1383 : 
; 1384 : 	return Py_BuildNone();
; 1385 : }

  0004f	e8 00 00 00 00	 call	 ?Py_BuildNone@@YAPAU_object@@XZ ; Py_BuildNone
  00054	8b e5		 mov	 esp, ebp
  00056	5d		 pop	 ebp
  00057	c3		 ret	 0
$LN3@netSendGui:

; 1378 : 		return Py_BuildNone();
; 1379 : 	}
; 1380 : 
; 1381 : 	CPythonNetworkStream& rns=CPythonNetworkStream::Instance();
; 1382 : 	rns.SendGuildRemoveMemberPacket(pGuildMemberData->dwPID);

  00058	8b 45 f8	 mov	 eax, DWORD PTR _pGuildMemberData$[ebp]
  0005b	8b 0d 00 00 00
	00		 mov	 ecx, DWORD PTR ?ms_singleton@?$CSingleton@VCPythonNetworkStream@@@@0PAVCPythonNetworkStream@@A ; CSingleton<CPythonNetworkStream>::ms_singleton
  00061	ff 30		 push	 DWORD PTR [eax]
  00063	e8 00 00 00 00	 call	 ?SendGuildRemoveMemberPacket@CPythonNetworkStream@@QAE_NK@Z ; CPythonNetworkStream::SendGuildRemoveMemberPacket

; 1383 : 
; 1384 : 	return Py_BuildNone();
; 1385 : }

  00068	e8 00 00 00 00	 call	 ?Py_BuildNone@@YAPAU_object@@XZ ; Py_BuildNone
  0006d	8b e5		 mov	 esp, ebp
  0006f	5d		 pop	 ebp
  00070	c3		 ret	 0
?netSendGuildRemoveMemberPacket@@YAPAU_object@@PAU1@0@Z ENDP ; netSendGuildRemoveMemberPacket
_TEXT	ENDS
; Function compile flags: /Ogtp
; File D:\Metin2 Server Files\mainline\SRC_2014\Metin2Client\UserInterface\PythonNetworkStreamModule.cpp
;	COMDAT ?netSendGuildAddMemberPacket@@YAPAU_object@@PAU1@0@Z
_TEXT	SEGMENT
_iVID$ = -4						; size = 4
_poSelf$ = 8						; size = 4
_poArgs$ = 12						; size = 4
?netSendGuildAddMemberPacket@@YAPAU_object@@PAU1@0@Z PROC ; netSendGuildAddMemberPacket, COMDAT

; 1357 : {

  00000	55		 push	 ebp
  00001	8b ec		 mov	 ebp, esp
  00003	51		 push	 ecx

; 1358 : 	int iVID;
; 1359 : 	if (!PyTuple_GetInteger(poArgs, 0, &iVID))

  00004	8d 45 fc	 lea	 eax, DWORD PTR _iVID$[ebp]
  00007	50		 push	 eax
  00008	6a 00		 push	 0
  0000a	ff 75 0c	 push	 DWORD PTR _poArgs$[ebp]
  0000d	e8 00 00 00 00	 call	 ?PyTuple_GetInteger@@YA_NPAU_object@@HPAH@Z ; PyTuple_GetInteger
  00012	83 c4 0c	 add	 esp, 12			; 0000000cH
  00015	84 c0		 test	 al, al
  00017	75 0e		 jne	 SHORT $LN2@netSendGui

; 1360 : 		return Py_BuildException();

  00019	6a 00		 push	 0
  0001b	e8 00 00 00 00	 call	 ?Py_BuildException@@YAPAU_object@@PBDZZ ; Py_BuildException
  00020	83 c4 04	 add	 esp, 4

; 1366 : }

  00023	8b e5		 mov	 esp, ebp
  00025	5d		 pop	 ebp
  00026	c3		 ret	 0
$LN2@netSendGui:

; 1361 : 
; 1362 : 	CPythonNetworkStream& rns=CPythonNetworkStream::Instance();
; 1363 : 	rns.SendGuildAddMemberPacket(iVID);

  00027	ff 75 fc	 push	 DWORD PTR _iVID$[ebp]
  0002a	8b 0d 00 00 00
	00		 mov	 ecx, DWORD PTR ?ms_singleton@?$CSingleton@VCPythonNetworkStream@@@@0PAVCPythonNetworkStream@@A ; CSingleton<CPythonNetworkStream>::ms_singleton
  00030	e8 00 00 00 00	 call	 ?SendGuildAddMemberPacket@CPythonNetworkStream@@QAE_NK@Z ; CPythonNetworkStream::SendGuildAddMemberPacket

; 1364 : 
; 1365 : 	return Py_BuildNone();

  00035	e8 00 00 00 00	 call	 ?Py_BuildNone@@YAPAU_object@@XZ ; Py_BuildNone

; 1366 : }

  0003a	8b e5		 mov	 esp, ebp
  0003c	5d		 pop	 ebp
  0003d	c3		 ret	 0
?netSendGuildAddMemberPacket@@YAPAU_object@@PAU1@0@Z ENDP ; netSendGuildAddMemberPacket
_TEXT	ENDS
; Function compile flags: /Ogtp
; File D:\Metin2 Server Files\mainline\SRC_2014\Metin2Client\UserInterface\PythonNetworkStreamModule.cpp
;	COMDAT ?netSendQuestConfirmPacket@@YAPAU_object@@PAU1@0@Z
_TEXT	SEGMENT
_iAnswer$ = -8						; size = 4
_iPID$ = -4						; size = 4
_poSelf$ = 8						; size = 4
_poArgs$ = 12						; size = 4
?netSendQuestConfirmPacket@@YAPAU_object@@PAU1@0@Z PROC	; netSendQuestConfirmPacket, COMDAT

; 1342 : {

  00000	55		 push	 ebp
  00001	8b ec		 mov	 ebp, esp
  00003	83 ec 08	 sub	 esp, 8

; 1343 : 	int iAnswer;
; 1344 : 	if (!PyTuple_GetInteger(poArgs, 0, &iAnswer))

  00006	8d 45 f8	 lea	 eax, DWORD PTR _iAnswer$[ebp]
  00009	50		 push	 eax
  0000a	6a 00		 push	 0
  0000c	ff 75 0c	 push	 DWORD PTR _poArgs$[ebp]
  0000f	e8 00 00 00 00	 call	 ?PyTuple_GetInteger@@YA_NPAU_object@@HPAH@Z ; PyTuple_GetInteger
  00014	83 c4 0c	 add	 esp, 12			; 0000000cH
  00017	84 c0		 test	 al, al
  00019	75 0e		 jne	 SHORT $LN2@netSendQue
$LN5@netSendQue:

; 1354 : }

  0001b	6a 00		 push	 0
  0001d	e8 00 00 00 00	 call	 ?Py_BuildException@@YAPAU_object@@PBDZZ ; Py_BuildException
  00022	83 c4 04	 add	 esp, 4
  00025	8b e5		 mov	 esp, ebp
  00027	5d		 pop	 ebp
  00028	c3		 ret	 0
$LN2@netSendQue:

; 1345 : 		return Py_BuildException();
; 1346 : 	int iPID;
; 1347 : 	if (!PyTuple_GetInteger(poArgs, 1, &iPID))

  00029	8d 45 fc	 lea	 eax, DWORD PTR _iPID$[ebp]
  0002c	50		 push	 eax
  0002d	6a 01		 push	 1
  0002f	ff 75 0c	 push	 DWORD PTR _poArgs$[ebp]
  00032	e8 00 00 00 00	 call	 ?PyTuple_GetInteger@@YA_NPAU_object@@HPAH@Z ; PyTuple_GetInteger
  00037	83 c4 0c	 add	 esp, 12			; 0000000cH
  0003a	84 c0		 test	 al, al
  0003c	74 dd		 je	 SHORT $LN5@netSendQue

; 1348 : 		return Py_BuildException();
; 1349 : 
; 1350 : 	CPythonNetworkStream& rns=CPythonNetworkStream::Instance();
; 1351 : 	rns.SendQuestConfirmPacket(iAnswer, iPID);

  0003e	ff 75 fc	 push	 DWORD PTR _iPID$[ebp]
  00041	8b 0d 00 00 00
	00		 mov	 ecx, DWORD PTR ?ms_singleton@?$CSingleton@VCPythonNetworkStream@@@@0PAVCPythonNetworkStream@@A ; CSingleton<CPythonNetworkStream>::ms_singleton
  00047	ff 75 f8	 push	 DWORD PTR _iAnswer$[ebp]
  0004a	e8 00 00 00 00	 call	 ?SendQuestConfirmPacket@CPythonNetworkStream@@QAE_NEK@Z ; CPythonNetworkStream::SendQuestConfirmPacket

; 1352 : 
; 1353 : 	return Py_BuildNone();

  0004f	e8 00 00 00 00	 call	 ?Py_BuildNone@@YAPAU_object@@XZ ; Py_BuildNone

; 1354 : }

  00054	8b e5		 mov	 esp, ebp
  00056	5d		 pop	 ebp
  00057	c3		 ret	 0
?netSendQuestConfirmPacket@@YAPAU_object@@PAU1@0@Z ENDP	; netSendQuestConfirmPacket
_TEXT	ENDS
; Function compile flags: /Ogtp
; File D:\Metin2 Server Files\mainline\SRC_2014\Metin2Client\UserInterface\PythonNetworkStreamModule.cpp
;	COMDAT ?netSendQuestInputStringPacket@@YAPAU_object@@PAU1@0@Z
_TEXT	SEGMENT
_szString$ = -4						; size = 4
_poSelf$ = 8						; size = 4
_poArgs$ = 12						; size = 4
?netSendQuestInputStringPacket@@YAPAU_object@@PAU1@0@Z PROC ; netSendQuestInputStringPacket, COMDAT

; 1330 : {

  00000	55		 push	 ebp
  00001	8b ec		 mov	 ebp, esp
  00003	51		 push	 ecx

; 1331 : 	char * szString;
; 1332 : 	if (!PyTuple_GetString(poArgs, 0, &szString))

  00004	8d 45 fc	 lea	 eax, DWORD PTR _szString$[ebp]
  00007	50		 push	 eax
  00008	6a 00		 push	 0
  0000a	ff 75 0c	 push	 DWORD PTR _poArgs$[ebp]
  0000d	e8 00 00 00 00	 call	 ?PyTuple_GetString@@YA_NPAU_object@@HPAPAD@Z ; PyTuple_GetString
  00012	83 c4 0c	 add	 esp, 12			; 0000000cH
  00015	84 c0		 test	 al, al
  00017	75 0e		 jne	 SHORT $LN2@netSendQue

; 1333 : 		return Py_BuildException();

  00019	6a 00		 push	 0
  0001b	e8 00 00 00 00	 call	 ?Py_BuildException@@YAPAU_object@@PBDZZ ; Py_BuildException
  00020	83 c4 04	 add	 esp, 4

; 1339 : }

  00023	8b e5		 mov	 esp, ebp
  00025	5d		 pop	 ebp
  00026	c3		 ret	 0
$LN2@netSendQue:

; 1334 : 
; 1335 : 	CPythonNetworkStream& rns=CPythonNetworkStream::Instance();
; 1336 : 	rns.SendQuestInputStringPacket(szString);

  00027	ff 75 fc	 push	 DWORD PTR _szString$[ebp]
  0002a	8b 0d 00 00 00
	00		 mov	 ecx, DWORD PTR ?ms_singleton@?$CSingleton@VCPythonNetworkStream@@@@0PAVCPythonNetworkStream@@A ; CSingleton<CPythonNetworkStream>::ms_singleton
  00030	e8 00 00 00 00	 call	 ?SendQuestInputStringPacket@CPythonNetworkStream@@QAE_NPBD@Z ; CPythonNetworkStream::SendQuestInputStringPacket

; 1337 : 
; 1338 : 	return Py_BuildNone();

  00035	e8 00 00 00 00	 call	 ?Py_BuildNone@@YAPAU_object@@XZ ; Py_BuildNone

; 1339 : }

  0003a	8b e5		 mov	 esp, ebp
  0003c	5d		 pop	 ebp
  0003d	c3		 ret	 0
?netSendQuestInputStringPacket@@YAPAU_object@@PAU1@0@Z ENDP ; netSendQuestInputStringPacket
_TEXT	ENDS
; Function compile flags: /Ogtp
; File D:\Metin2 Server Files\mainline\SRC_2014\Metin2Client\UserInterface\PythonNetworkStreamModule.cpp
;	COMDAT ?netSendAnswerMakeGuildPacket@@YAPAU_object@@PAU1@0@Z
_TEXT	SEGMENT
_szName$ = -4						; size = 4
_poSelf$ = 8						; size = 4
_poArgs$ = 12						; size = 4
?netSendAnswerMakeGuildPacket@@YAPAU_object@@PAU1@0@Z PROC ; netSendAnswerMakeGuildPacket, COMDAT

; 1318 : {

  00000	55		 push	 ebp
  00001	8b ec		 mov	 ebp, esp
  00003	51		 push	 ecx

; 1319 : 	char * szName;
; 1320 : 	if (!PyTuple_GetString(poArgs, 0, &szName))

  00004	8d 45 fc	 lea	 eax, DWORD PTR _szName$[ebp]
  00007	50		 push	 eax
  00008	6a 00		 push	 0
  0000a	ff 75 0c	 push	 DWORD PTR _poArgs$[ebp]
  0000d	e8 00 00 00 00	 call	 ?PyTuple_GetString@@YA_NPAU_object@@HPAPAD@Z ; PyTuple_GetString
  00012	83 c4 0c	 add	 esp, 12			; 0000000cH
  00015	84 c0		 test	 al, al
  00017	75 0e		 jne	 SHORT $LN2@netSendAns

; 1321 : 		return Py_BuildException();

  00019	6a 00		 push	 0
  0001b	e8 00 00 00 00	 call	 ?Py_BuildException@@YAPAU_object@@PBDZZ ; Py_BuildException
  00020	83 c4 04	 add	 esp, 4

; 1327 : }

  00023	8b e5		 mov	 esp, ebp
  00025	5d		 pop	 ebp
  00026	c3		 ret	 0
$LN2@netSendAns:

; 1322 : 
; 1323 : 	CPythonNetworkStream& rns=CPythonNetworkStream::Instance();
; 1324 : 	rns.SendAnswerMakeGuildPacket(szName);

  00027	ff 75 fc	 push	 DWORD PTR _szName$[ebp]
  0002a	8b 0d 00 00 00
	00		 mov	 ecx, DWORD PTR ?ms_singleton@?$CSingleton@VCPythonNetworkStream@@@@0PAVCPythonNetworkStream@@A ; CSingleton<CPythonNetworkStream>::ms_singleton
  00030	e8 00 00 00 00	 call	 ?SendAnswerMakeGuildPacket@CPythonNetworkStream@@QAE_NPBD@Z ; CPythonNetworkStream::SendAnswerMakeGuildPacket

; 1325 : 
; 1326 : 	return Py_BuildNone();

  00035	e8 00 00 00 00	 call	 ?Py_BuildNone@@YAPAU_object@@XZ ; Py_BuildNone

; 1327 : }

  0003a	8b e5		 mov	 esp, ebp
  0003c	5d		 pop	 ebp
  0003d	c3		 ret	 0
?netSendAnswerMakeGuildPacket@@YAPAU_object@@PAU1@0@Z ENDP ; netSendAnswerMakeGuildPacket
_TEXT	ENDS
; Function compile flags: /Ogtp
; File D:\Metin2 Server Files\mainline\SRC_2014\Metin2Client\UserInterface\PythonNetworkStreamModule.cpp
; File D:\Metin2 Server Files\mainline\SRC_2014\Metin2Client\UserInterface\GameType.h
; File D:\Metin2 Server Files\mainline\SRC_2014\Metin2Client\UserInterface\PythonNetworkStreamModule.cpp
; File D:\Metin2 Server Files\mainline\SRC_2014\Metin2Client\UserInterface\GameType.h
; File D:\Metin2 Server Files\mainline\SRC_2014\Metin2Client\UserInterface\PythonNetworkStreamModule.cpp
;	COMDAT ?netSendMallCheckoutPacket@@YAPAU_object@@PAU1@0@Z
_TEXT	SEGMENT
_iMallPos$ = -8						; size = 4
_InventoryPos$ = -4					; size = 3
_poSelf$ = 8						; size = 4
_poArgs$ = 12						; size = 4
?netSendMallCheckoutPacket@@YAPAU_object@@PAU1@0@Z PROC	; netSendMallCheckoutPacket, COMDAT

; 1288 : {

  00000	55		 push	 ebp
  00001	8b ec		 mov	 ebp, esp
  00003	83 ec 08	 sub	 esp, 8
  00006	56		 push	 esi

; 1292 : 	switch (PyTuple_Size(poArgs))

  00007	8b 75 0c	 mov	 esi, DWORD PTR _poArgs$[ebp]
; File D:\Metin2 Server Files\mainline\SRC_2014\Metin2Client\UserInterface\GameType.h

; 187  : 		cell = WORD_MAX;

  0000a	b8 ff ff 00 00	 mov	 eax, 65535		; 0000ffffH
; File D:\Metin2 Server Files\mainline\SRC_2014\Metin2Client\UserInterface\PythonNetworkStreamModule.cpp

; 1292 : 	switch (PyTuple_Size(poArgs))

  0000f	56		 push	 esi
; File D:\Metin2 Server Files\mainline\SRC_2014\Metin2Client\UserInterface\GameType.h

; 186  : 		window_type =     INVENTORY;

  00010	c6 45 fc 01	 mov	 BYTE PTR _InventoryPos$[ebp], 1

; 187  : 		cell = WORD_MAX;

  00014	66 89 45 fd	 mov	 WORD PTR _InventoryPos$[ebp+1], ax
; File D:\Metin2 Server Files\mainline\SRC_2014\Metin2Client\UserInterface\PythonNetworkStreamModule.cpp

; 1292 : 	switch (PyTuple_Size(poArgs))

  00018	ff 15 00 00 00
	00		 call	 DWORD PTR __imp__PyTuple_Size
  0001e	83 c4 04	 add	 esp, 4
  00021	83 e8 02	 sub	 eax, 2
  00024	74 4d		 je	 SHORT $LN4@netSendMal
  00026	83 e8 01	 sub	 eax, 1
  00029	75 39		 jne	 SHORT $LN15@netSendMal

; 1298 : 			return Py_BuildException();
; 1299 : 		break;
; 1300 : 	case 3:
; 1301 : 		if (!PyTuple_GetInteger(poArgs, 0, &iMallPos))

  0002b	8d 45 f8	 lea	 eax, DWORD PTR _iMallPos$[ebp]
  0002e	50		 push	 eax
  0002f	6a 00		 push	 0
  00031	56		 push	 esi
  00032	e8 00 00 00 00	 call	 ?PyTuple_GetInteger@@YA_NPAU_object@@HPAH@Z ; PyTuple_GetInteger
  00037	83 c4 0c	 add	 esp, 12			; 0000000cH
  0003a	84 c0		 test	 al, al
  0003c	74 26		 je	 SHORT $LN15@netSendMal

; 1302 : 			return Py_BuildException();
; 1303 : 		if (!PyTuple_GetInteger(poArgs, 1, &InventoryPos.window_type))

  0003e	8d 45 fc	 lea	 eax, DWORD PTR _InventoryPos$[ebp]
  00041	50		 push	 eax
  00042	6a 01		 push	 1
  00044	56		 push	 esi
  00045	e8 00 00 00 00	 call	 ?PyTuple_GetInteger@@YA_NPAU_object@@HPAE@Z ; PyTuple_GetInteger
  0004a	83 c4 0c	 add	 esp, 12			; 0000000cH
  0004d	84 c0		 test	 al, al
  0004f	74 13		 je	 SHORT $LN15@netSendMal

; 1304 : 			return Py_BuildException();
; 1305 : 		if (!PyTuple_GetInteger(poArgs, 2, &InventoryPos.cell))

  00051	8d 45 fd	 lea	 eax, DWORD PTR _InventoryPos$[ebp+1]
  00054	50		 push	 eax
  00055	6a 02		 push	 2
  00057	56		 push	 esi
  00058	e8 00 00 00 00	 call	 ?PyTuple_GetInteger@@YA_NPAU_object@@HPAG@Z ; PyTuple_GetInteger
  0005d	83 c4 0c	 add	 esp, 12			; 0000000cH
  00060	84 c0		 test	 al, al
  00062	75 35		 jne	 SHORT $LN6@netSendMal
$LN15@netSendMal:

; 1315 : }

  00064	6a 00		 push	 0
  00066	e8 00 00 00 00	 call	 ?Py_BuildException@@YAPAU_object@@PBDZZ ; Py_BuildException
  0006b	83 c4 04	 add	 esp, 4
  0006e	5e		 pop	 esi
  0006f	8b e5		 mov	 esp, ebp
  00071	5d		 pop	 ebp
  00072	c3		 ret	 0
$LN4@netSendMal:

; 1293 : 	{
; 1294 : 	case 2:
; 1295 : 		if (!PyTuple_GetInteger(poArgs, 0, &iMallPos))

  00073	8d 45 f8	 lea	 eax, DWORD PTR _iMallPos$[ebp]
  00076	50		 push	 eax
  00077	6a 00		 push	 0
  00079	56		 push	 esi
  0007a	e8 00 00 00 00	 call	 ?PyTuple_GetInteger@@YA_NPAU_object@@HPAH@Z ; PyTuple_GetInteger
  0007f	83 c4 0c	 add	 esp, 12			; 0000000cH
  00082	84 c0		 test	 al, al
  00084	74 de		 je	 SHORT $LN15@netSendMal

; 1296 : 			return Py_BuildException();
; 1297 : 		if (!PyTuple_GetInteger(poArgs, 1, &InventoryPos.cell))

  00086	8d 45 fd	 lea	 eax, DWORD PTR _InventoryPos$[ebp+1]
  00089	50		 push	 eax
  0008a	6a 01		 push	 1
  0008c	56		 push	 esi
  0008d	e8 00 00 00 00	 call	 ?PyTuple_GetInteger@@YA_NPAU_object@@HPAG@Z ; PyTuple_GetInteger
  00092	83 c4 0c	 add	 esp, 12			; 0000000cH
  00095	84 c0		 test	 al, al
  00097	74 cb		 je	 SHORT $LN15@netSendMal
$LN6@netSendMal:

; 1306 : 			return Py_BuildException();
; 1307 : 		break;
; 1308 : 	default:
; 1309 : 		return Py_BuildException();
; 1310 : 	}
; 1311 : 	CPythonNetworkStream& rns=CPythonNetworkStream::Instance();
; 1312 : 	rns.SendMallCheckoutPacket(iMallPos, InventoryPos);

  00099	66 8b 45 fc	 mov	 ax, WORD PTR _InventoryPos$[ebp]
  0009d	51		 push	 ecx
  0009e	8b cc		 mov	 ecx, esp
  000a0	ff 75 f8	 push	 DWORD PTR _iMallPos$[ebp]
  000a3	66 89 01	 mov	 WORD PTR [ecx], ax
  000a6	8a 45 fe	 mov	 al, BYTE PTR _InventoryPos$[ebp+2]
  000a9	88 41 02	 mov	 BYTE PTR [ecx+2], al
  000ac	8b 0d 00 00 00
	00		 mov	 ecx, DWORD PTR ?ms_singleton@?$CSingleton@VCPythonNetworkStream@@@@0PAVCPythonNetworkStream@@A ; CSingleton<CPythonNetworkStream>::ms_singleton
  000b2	e8 00 00 00 00	 call	 ?SendMallCheckoutPacket@CPythonNetworkStream@@QAE_NEUSItemPos@@@Z ; CPythonNetworkStream::SendMallCheckoutPacket

; 1313 : 
; 1314 : 	return Py_BuildNone();

  000b7	e8 00 00 00 00	 call	 ?Py_BuildNone@@YAPAU_object@@XZ ; Py_BuildNone

; 1315 : }

  000bc	5e		 pop	 esi
  000bd	8b e5		 mov	 esp, ebp
  000bf	5d		 pop	 ebp
  000c0	c3		 ret	 0
?netSendMallCheckoutPacket@@YAPAU_object@@PAU1@0@Z ENDP	; netSendMallCheckoutPacket
_TEXT	ENDS
; Function compile flags: /Ogtp
; File D:\Metin2 Server Files\mainline\SRC_2014\Metin2Client\UserInterface\PythonNetworkStreamModule.cpp
;	COMDAT ?netSendSafeboxItemMovePacket@@YAPAU_object@@PAU1@0@Z
_TEXT	SEGMENT
_iSourcePos$ = -12					; size = 4
_iTargetPos$ = -8					; size = 4
_iCount$ = -4						; size = 4
_poSelf$ = 8						; size = 4
_poArgs$ = 12						; size = 4
?netSendSafeboxItemMovePacket@@YAPAU_object@@PAU1@0@Z PROC ; netSendSafeboxItemMovePacket, COMDAT

; 1270 : {

  00000	55		 push	 ebp
  00001	8b ec		 mov	 ebp, esp
  00003	83 ec 0c	 sub	 esp, 12			; 0000000cH

; 1271 : 	int iSourcePos;
; 1272 : 	if (!PyTuple_GetInteger(poArgs, 0, &iSourcePos))

  00006	8d 45 f4	 lea	 eax, DWORD PTR _iSourcePos$[ebp]
  00009	56		 push	 esi
  0000a	8b 75 0c	 mov	 esi, DWORD PTR _poArgs$[ebp]
  0000d	50		 push	 eax
  0000e	6a 00		 push	 0
  00010	56		 push	 esi
  00011	e8 00 00 00 00	 call	 ?PyTuple_GetInteger@@YA_NPAU_object@@HPAH@Z ; PyTuple_GetInteger
  00016	83 c4 0c	 add	 esp, 12			; 0000000cH
  00019	84 c0		 test	 al, al
  0001b	75 0f		 jne	 SHORT $LN2@netSendSaf
$LN6@netSendSaf:

; 1285 : }

  0001d	6a 00		 push	 0
  0001f	e8 00 00 00 00	 call	 ?Py_BuildException@@YAPAU_object@@PBDZZ ; Py_BuildException
  00024	83 c4 04	 add	 esp, 4
  00027	5e		 pop	 esi
  00028	8b e5		 mov	 esp, ebp
  0002a	5d		 pop	 ebp
  0002b	c3		 ret	 0
$LN2@netSendSaf:

; 1273 : 		return Py_BuildException();
; 1274 : 	int iTargetPos;
; 1275 : 	if (!PyTuple_GetInteger(poArgs, 1, &iTargetPos))

  0002c	8d 45 f8	 lea	 eax, DWORD PTR _iTargetPos$[ebp]
  0002f	50		 push	 eax
  00030	6a 01		 push	 1
  00032	56		 push	 esi
  00033	e8 00 00 00 00	 call	 ?PyTuple_GetInteger@@YA_NPAU_object@@HPAH@Z ; PyTuple_GetInteger
  00038	83 c4 0c	 add	 esp, 12			; 0000000cH
  0003b	84 c0		 test	 al, al
  0003d	74 de		 je	 SHORT $LN6@netSendSaf

; 1276 : 		return Py_BuildException();
; 1277 : 	int iCount;
; 1278 : 	if (!PyTuple_GetInteger(poArgs, 2, &iCount))

  0003f	8d 45 fc	 lea	 eax, DWORD PTR _iCount$[ebp]
  00042	50		 push	 eax
  00043	6a 02		 push	 2
  00045	56		 push	 esi
  00046	e8 00 00 00 00	 call	 ?PyTuple_GetInteger@@YA_NPAU_object@@HPAH@Z ; PyTuple_GetInteger
  0004b	83 c4 0c	 add	 esp, 12			; 0000000cH
  0004e	84 c0		 test	 al, al
  00050	74 cb		 je	 SHORT $LN6@netSendSaf

; 1279 : 		return Py_BuildException();
; 1280 : 
; 1281 : 	CPythonNetworkStream& rns=CPythonNetworkStream::Instance();
; 1282 : 	rns.SendSafeBoxItemMovePacket(iSourcePos, iTargetPos, iCount);

  00052	ff 75 fc	 push	 DWORD PTR _iCount$[ebp]
  00055	8b 0d 00 00 00
	00		 mov	 ecx, DWORD PTR ?ms_singleton@?$CSingleton@VCPythonNetworkStream@@@@0PAVCPythonNetworkStream@@A ; CSingleton<CPythonNetworkStream>::ms_singleton
  0005b	ff 75 f8	 push	 DWORD PTR _iTargetPos$[ebp]
  0005e	ff 75 f4	 push	 DWORD PTR _iSourcePos$[ebp]
  00061	e8 00 00 00 00	 call	 ?SendSafeBoxItemMovePacket@CPythonNetworkStream@@QAE_NEEE@Z ; CPythonNetworkStream::SendSafeBoxItemMovePacket

; 1283 : 
; 1284 : 	return Py_BuildNone();

  00066	e8 00 00 00 00	 call	 ?Py_BuildNone@@YAPAU_object@@XZ ; Py_BuildNone
  0006b	5e		 pop	 esi

; 1285 : }

  0006c	8b e5		 mov	 esp, ebp
  0006e	5d		 pop	 ebp
  0006f	c3		 ret	 0
?netSendSafeboxItemMovePacket@@YAPAU_object@@PAU1@0@Z ENDP ; netSendSafeboxItemMovePacket
_TEXT	ENDS
; Function compile flags: /Ogtp
; File D:\Metin2 Server Files\mainline\SRC_2014\Metin2Client\UserInterface\PythonNetworkStreamModule.cpp
; File D:\Metin2 Server Files\mainline\SRC_2014\Metin2Client\UserInterface\GameType.h
; File D:\Metin2 Server Files\mainline\SRC_2014\Metin2Client\UserInterface\PythonNetworkStreamModule.cpp
; File D:\Metin2 Server Files\mainline\SRC_2014\Metin2Client\UserInterface\GameType.h
; File D:\Metin2 Server Files\mainline\SRC_2014\Metin2Client\UserInterface\PythonNetworkStreamModule.cpp
;	COMDAT ?netSendSafeboxCheckoutPacket@@YAPAU_object@@PAU1@0@Z
_TEXT	SEGMENT
_iSafeBoxPos$ = -8					; size = 4
_InventoryPos$ = -4					; size = 3
_poSelf$ = 8						; size = 4
_poArgs$ = 12						; size = 4
?netSendSafeboxCheckoutPacket@@YAPAU_object@@PAU1@0@Z PROC ; netSendSafeboxCheckoutPacket, COMDAT

; 1239 : {

  00000	55		 push	 ebp
  00001	8b ec		 mov	 ebp, esp
  00003	83 ec 08	 sub	 esp, 8
  00006	56		 push	 esi

; 1243 : 	switch (PyTuple_Size(poArgs))

  00007	8b 75 0c	 mov	 esi, DWORD PTR _poArgs$[ebp]
; File D:\Metin2 Server Files\mainline\SRC_2014\Metin2Client\UserInterface\GameType.h

; 187  : 		cell = WORD_MAX;

  0000a	b8 ff ff 00 00	 mov	 eax, 65535		; 0000ffffH
; File D:\Metin2 Server Files\mainline\SRC_2014\Metin2Client\UserInterface\PythonNetworkStreamModule.cpp

; 1243 : 	switch (PyTuple_Size(poArgs))

  0000f	56		 push	 esi
; File D:\Metin2 Server Files\mainline\SRC_2014\Metin2Client\UserInterface\GameType.h

; 186  : 		window_type =     INVENTORY;

  00010	c6 45 fc 01	 mov	 BYTE PTR _InventoryPos$[ebp], 1

; 187  : 		cell = WORD_MAX;

  00014	66 89 45 fd	 mov	 WORD PTR _InventoryPos$[ebp+1], ax
; File D:\Metin2 Server Files\mainline\SRC_2014\Metin2Client\UserInterface\PythonNetworkStreamModule.cpp

; 1243 : 	switch (PyTuple_Size(poArgs))

  00018	ff 15 00 00 00
	00		 call	 DWORD PTR __imp__PyTuple_Size
  0001e	83 c4 04	 add	 esp, 4
  00021	83 e8 02	 sub	 eax, 2
  00024	74 4d		 je	 SHORT $LN4@netSendSaf
  00026	83 e8 01	 sub	 eax, 1
  00029	75 6e		 jne	 SHORT $LN6@netSendSaf

; 1249 : 			return Py_BuildException();
; 1250 : 		break;
; 1251 : 	case 3:
; 1252 : 		if (!PyTuple_GetInteger(poArgs, 0, &iSafeBoxPos))

  0002b	8d 45 f8	 lea	 eax, DWORD PTR _iSafeBoxPos$[ebp]
  0002e	50		 push	 eax
  0002f	6a 00		 push	 0
  00031	56		 push	 esi
  00032	e8 00 00 00 00	 call	 ?PyTuple_GetInteger@@YA_NPAU_object@@HPAH@Z ; PyTuple_GetInteger
  00037	83 c4 0c	 add	 esp, 12			; 0000000cH
  0003a	84 c0		 test	 al, al
  0003c	74 26		 je	 SHORT $LN15@netSendSaf

; 1253 : 			return Py_BuildException();
; 1254 : 		if (!PyTuple_GetInteger(poArgs, 1, &InventoryPos.window_type))

  0003e	8d 45 fc	 lea	 eax, DWORD PTR _InventoryPos$[ebp]
  00041	50		 push	 eax
  00042	6a 01		 push	 1
  00044	56		 push	 esi
  00045	e8 00 00 00 00	 call	 ?PyTuple_GetInteger@@YA_NPAU_object@@HPAE@Z ; PyTuple_GetInteger
  0004a	83 c4 0c	 add	 esp, 12			; 0000000cH
  0004d	84 c0		 test	 al, al
  0004f	74 13		 je	 SHORT $LN15@netSendSaf

; 1255 : 			return Py_BuildException();
; 1256 : 		if (!PyTuple_GetInteger(poArgs, 2, &InventoryPos.cell))

  00051	8d 45 fd	 lea	 eax, DWORD PTR _InventoryPos$[ebp+1]
  00054	50		 push	 eax
  00055	6a 02		 push	 2
  00057	56		 push	 esi
  00058	e8 00 00 00 00	 call	 ?PyTuple_GetInteger@@YA_NPAU_object@@HPAG@Z ; PyTuple_GetInteger
  0005d	83 c4 0c	 add	 esp, 12			; 0000000cH
  00060	84 c0		 test	 al, al
  00062	75 35		 jne	 SHORT $LN6@netSendSaf
$LN15@netSendSaf:

; 1267 : }

  00064	6a 00		 push	 0
  00066	e8 00 00 00 00	 call	 ?Py_BuildException@@YAPAU_object@@PBDZZ ; Py_BuildException
  0006b	83 c4 04	 add	 esp, 4
  0006e	5e		 pop	 esi
  0006f	8b e5		 mov	 esp, ebp
  00071	5d		 pop	 ebp
  00072	c3		 ret	 0
$LN4@netSendSaf:

; 1244 : 	{
; 1245 : 	case 2:
; 1246 : 		if (!PyTuple_GetInteger(poArgs, 0, &iSafeBoxPos))

  00073	8d 45 f8	 lea	 eax, DWORD PTR _iSafeBoxPos$[ebp]
  00076	50		 push	 eax
  00077	6a 00		 push	 0
  00079	56		 push	 esi
  0007a	e8 00 00 00 00	 call	 ?PyTuple_GetInteger@@YA_NPAU_object@@HPAH@Z ; PyTuple_GetInteger
  0007f	83 c4 0c	 add	 esp, 12			; 0000000cH
  00082	84 c0		 test	 al, al
  00084	74 de		 je	 SHORT $LN15@netSendSaf

; 1247 : 			return Py_BuildException();
; 1248 : 		if (!PyTuple_GetInteger(poArgs, 1, &InventoryPos.cell))

  00086	8d 45 fd	 lea	 eax, DWORD PTR _InventoryPos$[ebp+1]
  00089	50		 push	 eax
  0008a	6a 01		 push	 1
  0008c	56		 push	 esi
  0008d	e8 00 00 00 00	 call	 ?PyTuple_GetInteger@@YA_NPAU_object@@HPAG@Z ; PyTuple_GetInteger
  00092	83 c4 0c	 add	 esp, 12			; 0000000cH
  00095	84 c0		 test	 al, al
  00097	74 cb		 je	 SHORT $LN15@netSendSaf
$LN6@netSendSaf:

; 1257 : 			return Py_BuildException();
; 1258 : 		break;
; 1259 : 	default:
; 1260 : 		break;
; 1261 : 	}
; 1262 : 
; 1263 : 	CPythonNetworkStream& rns=CPythonNetworkStream::Instance();
; 1264 : 	rns.SendSafeBoxCheckoutPacket(iSafeBoxPos, InventoryPos);

  00099	66 8b 45 fc	 mov	 ax, WORD PTR _InventoryPos$[ebp]
  0009d	51		 push	 ecx
  0009e	8b cc		 mov	 ecx, esp
  000a0	ff 75 f8	 push	 DWORD PTR _iSafeBoxPos$[ebp]
  000a3	66 89 01	 mov	 WORD PTR [ecx], ax
  000a6	8a 45 fe	 mov	 al, BYTE PTR _InventoryPos$[ebp+2]
  000a9	88 41 02	 mov	 BYTE PTR [ecx+2], al
  000ac	8b 0d 00 00 00
	00		 mov	 ecx, DWORD PTR ?ms_singleton@?$CSingleton@VCPythonNetworkStream@@@@0PAVCPythonNetworkStream@@A ; CSingleton<CPythonNetworkStream>::ms_singleton
  000b2	e8 00 00 00 00	 call	 ?SendSafeBoxCheckoutPacket@CPythonNetworkStream@@QAE_NEUSItemPos@@@Z ; CPythonNetworkStream::SendSafeBoxCheckoutPacket

; 1265 : 
; 1266 : 	return Py_BuildNone();

  000b7	e8 00 00 00 00	 call	 ?Py_BuildNone@@YAPAU_object@@XZ ; Py_BuildNone

; 1267 : }

  000bc	5e		 pop	 esi
  000bd	8b e5		 mov	 esp, ebp
  000bf	5d		 pop	 ebp
  000c0	c3		 ret	 0
?netSendSafeboxCheckoutPacket@@YAPAU_object@@PAU1@0@Z ENDP ; netSendSafeboxCheckoutPacket
_TEXT	ENDS
; Function compile flags: /Ogtp
; File D:\Metin2 Server Files\mainline\SRC_2014\Metin2Client\UserInterface\PythonNetworkStreamModule.cpp
; File D:\Metin2 Server Files\mainline\SRC_2014\Metin2Client\UserInterface\GameType.h
; File D:\Metin2 Server Files\mainline\SRC_2014\Metin2Client\UserInterface\PythonNetworkStreamModule.cpp
; File D:\Metin2 Server Files\mainline\SRC_2014\Metin2Client\UserInterface\GameType.h
; File D:\Metin2 Server Files\mainline\SRC_2014\Metin2Client\UserInterface\PythonNetworkStreamModule.cpp
;	COMDAT ?netSendSafeboxCheckinPacket@@YAPAU_object@@PAU1@0@Z
_TEXT	SEGMENT
_iSafeBoxPos$ = -8					; size = 4
_InventoryPos$ = -4					; size = 3
_poSelf$ = 8						; size = 4
_poArgs$ = 12						; size = 4
?netSendSafeboxCheckinPacket@@YAPAU_object@@PAU1@0@Z PROC ; netSendSafeboxCheckinPacket, COMDAT

; 1208 : {

  00000	55		 push	 ebp
  00001	8b ec		 mov	 ebp, esp
  00003	83 ec 08	 sub	 esp, 8
  00006	56		 push	 esi

; 1212 : 	switch (PyTuple_Size(poArgs))

  00007	8b 75 0c	 mov	 esi, DWORD PTR _poArgs$[ebp]
; File D:\Metin2 Server Files\mainline\SRC_2014\Metin2Client\UserInterface\GameType.h

; 187  : 		cell = WORD_MAX;

  0000a	b8 ff ff 00 00	 mov	 eax, 65535		; 0000ffffH
; File D:\Metin2 Server Files\mainline\SRC_2014\Metin2Client\UserInterface\PythonNetworkStreamModule.cpp

; 1212 : 	switch (PyTuple_Size(poArgs))

  0000f	56		 push	 esi
; File D:\Metin2 Server Files\mainline\SRC_2014\Metin2Client\UserInterface\GameType.h

; 186  : 		window_type =     INVENTORY;

  00010	c6 45 fc 01	 mov	 BYTE PTR _InventoryPos$[ebp], 1

; 187  : 		cell = WORD_MAX;

  00014	66 89 45 fd	 mov	 WORD PTR _InventoryPos$[ebp+1], ax
; File D:\Metin2 Server Files\mainline\SRC_2014\Metin2Client\UserInterface\PythonNetworkStreamModule.cpp

; 1212 : 	switch (PyTuple_Size(poArgs))

  00018	ff 15 00 00 00
	00		 call	 DWORD PTR __imp__PyTuple_Size
  0001e	83 c4 04	 add	 esp, 4
  00021	83 e8 02	 sub	 eax, 2
  00024	74 4d		 je	 SHORT $LN4@netSendSaf
  00026	83 e8 01	 sub	 eax, 1
  00029	75 6e		 jne	 SHORT $LN6@netSendSaf

; 1219 : 			return Py_BuildException();
; 1220 : 		break;
; 1221 : 	case 3:
; 1222 : 		if (!PyTuple_GetInteger(poArgs, 0, &InventoryPos.window_type))

  0002b	8d 45 fc	 lea	 eax, DWORD PTR _InventoryPos$[ebp]
  0002e	50		 push	 eax
  0002f	6a 00		 push	 0
  00031	56		 push	 esi
  00032	e8 00 00 00 00	 call	 ?PyTuple_GetInteger@@YA_NPAU_object@@HPAE@Z ; PyTuple_GetInteger
  00037	83 c4 0c	 add	 esp, 12			; 0000000cH
  0003a	84 c0		 test	 al, al
  0003c	74 26		 je	 SHORT $LN14@netSendSaf

; 1223 : 			return Py_BuildException();
; 1224 : 		if (!PyTuple_GetInteger(poArgs, 1, &InventoryPos.cell))

  0003e	8d 45 fd	 lea	 eax, DWORD PTR _InventoryPos$[ebp+1]
  00041	50		 push	 eax
  00042	6a 01		 push	 1
  00044	56		 push	 esi
  00045	e8 00 00 00 00	 call	 ?PyTuple_GetInteger@@YA_NPAU_object@@HPAG@Z ; PyTuple_GetInteger
  0004a	83 c4 0c	 add	 esp, 12			; 0000000cH
  0004d	84 c0		 test	 al, al
  0004f	74 13		 je	 SHORT $LN14@netSendSaf

; 1225 : 			return Py_BuildException();
; 1226 : 		if (!PyTuple_GetInteger(poArgs, 2, &iSafeBoxPos))

  00051	8d 45 f8	 lea	 eax, DWORD PTR _iSafeBoxPos$[ebp]
  00054	50		 push	 eax
  00055	6a 02		 push	 2
  00057	56		 push	 esi
  00058	e8 00 00 00 00	 call	 ?PyTuple_GetInteger@@YA_NPAU_object@@HPAH@Z ; PyTuple_GetInteger
  0005d	83 c4 0c	 add	 esp, 12			; 0000000cH
  00060	84 c0		 test	 al, al
  00062	75 35		 jne	 SHORT $LN6@netSendSaf
$LN14@netSendSaf:

; 1236 : }

  00064	6a 00		 push	 0
  00066	e8 00 00 00 00	 call	 ?Py_BuildException@@YAPAU_object@@PBDZZ ; Py_BuildException
  0006b	83 c4 04	 add	 esp, 4
  0006e	5e		 pop	 esi
  0006f	8b e5		 mov	 esp, ebp
  00071	5d		 pop	 ebp
  00072	c3		 ret	 0
$LN4@netSendSaf:

; 1213 : 	{
; 1214 : 	case 2:
; 1215 : 		InventoryPos.window_type = INVENTORY;
; 1216 : 		if (!PyTuple_GetInteger(poArgs, 0, &InventoryPos.cell))

  00073	8d 45 fd	 lea	 eax, DWORD PTR _InventoryPos$[ebp+1]
  00076	50		 push	 eax
  00077	6a 00		 push	 0
  00079	56		 push	 esi
  0007a	e8 00 00 00 00	 call	 ?PyTuple_GetInteger@@YA_NPAU_object@@HPAG@Z ; PyTuple_GetInteger
  0007f	83 c4 0c	 add	 esp, 12			; 0000000cH
  00082	84 c0		 test	 al, al
  00084	74 de		 je	 SHORT $LN14@netSendSaf

; 1217 : 			return Py_BuildException();
; 1218 : 		if (!PyTuple_GetInteger(poArgs, 1, &iSafeBoxPos))

  00086	8d 45 f8	 lea	 eax, DWORD PTR _iSafeBoxPos$[ebp]
  00089	50		 push	 eax
  0008a	6a 01		 push	 1
  0008c	56		 push	 esi
  0008d	e8 00 00 00 00	 call	 ?PyTuple_GetInteger@@YA_NPAU_object@@HPAH@Z ; PyTuple_GetInteger
  00092	83 c4 0c	 add	 esp, 12			; 0000000cH
  00095	84 c0		 test	 al, al
  00097	74 cb		 je	 SHORT $LN14@netSendSaf
$LN6@netSendSaf:

; 1227 : 			return Py_BuildException();
; 1228 : 		break;
; 1229 : 
; 1230 : 	}
; 1231 : 
; 1232 : 	CPythonNetworkStream& rns=CPythonNetworkStream::Instance();
; 1233 : 	rns.SendSafeBoxCheckinPacket(InventoryPos, iSafeBoxPos);

  00099	ff 75 f8	 push	 DWORD PTR _iSafeBoxPos$[ebp]
  0009c	66 8b 45 fc	 mov	 ax, WORD PTR _InventoryPos$[ebp]
  000a0	51		 push	 ecx
  000a1	8b cc		 mov	 ecx, esp
  000a3	66 89 01	 mov	 WORD PTR [ecx], ax
  000a6	8a 45 fe	 mov	 al, BYTE PTR _InventoryPos$[ebp+2]
  000a9	88 41 02	 mov	 BYTE PTR [ecx+2], al
  000ac	8b 0d 00 00 00
	00		 mov	 ecx, DWORD PTR ?ms_singleton@?$CSingleton@VCPythonNetworkStream@@@@0PAVCPythonNetworkStream@@A ; CSingleton<CPythonNetworkStream>::ms_singleton
  000b2	e8 00 00 00 00	 call	 ?SendSafeBoxCheckinPacket@CPythonNetworkStream@@QAE_NUSItemPos@@E@Z ; CPythonNetworkStream::SendSafeBoxCheckinPacket

; 1234 : 
; 1235 : 	return Py_BuildNone();

  000b7	e8 00 00 00 00	 call	 ?Py_BuildNone@@YAPAU_object@@XZ ; Py_BuildNone

; 1236 : }

  000bc	5e		 pop	 esi
  000bd	8b e5		 mov	 esp, ebp
  000bf	5d		 pop	 ebp
  000c0	c3		 ret	 0
?netSendSafeboxCheckinPacket@@YAPAU_object@@PAU1@0@Z ENDP ; netSendSafeboxCheckinPacket
_TEXT	ENDS
; Function compile flags: /Ogtp
; File D:\Metin2 Server Files\mainline\SRC_2014\Metin2Client\UserInterface\PythonNetworkStreamModule.cpp
;	COMDAT ?netSendSafeboxWithdrawMoneyPacket@@YAPAU_object@@PAU1@0@Z
_TEXT	SEGMENT
_iMoney$ = -4						; size = 4
_poSelf$ = 8						; size = 4
_poArgs$ = 12						; size = 4
?netSendSafeboxWithdrawMoneyPacket@@YAPAU_object@@PAU1@0@Z PROC ; netSendSafeboxWithdrawMoneyPacket, COMDAT

; 1196 : {

  00000	55		 push	 ebp
  00001	8b ec		 mov	 ebp, esp
  00003	51		 push	 ecx

; 1197 : 	int iMoney;
; 1198 : 	if (!PyTuple_GetInteger(poArgs, 0, &iMoney))

  00004	8d 45 fc	 lea	 eax, DWORD PTR _iMoney$[ebp]
  00007	50		 push	 eax
  00008	6a 00		 push	 0
  0000a	ff 75 0c	 push	 DWORD PTR _poArgs$[ebp]
  0000d	e8 00 00 00 00	 call	 ?PyTuple_GetInteger@@YA_NPAU_object@@HPAH@Z ; PyTuple_GetInteger
  00012	83 c4 0c	 add	 esp, 12			; 0000000cH
  00015	84 c0		 test	 al, al
  00017	75 0e		 jne	 SHORT $LN2@netSendSaf

; 1199 : 		return Py_BuildException();

  00019	6a 00		 push	 0
  0001b	e8 00 00 00 00	 call	 ?Py_BuildException@@YAPAU_object@@PBDZZ ; Py_BuildException
  00020	83 c4 04	 add	 esp, 4

; 1205 : }

  00023	8b e5		 mov	 esp, ebp
  00025	5d		 pop	 ebp
  00026	c3		 ret	 0
$LN2@netSendSaf:

; 1200 : 
; 1201 : 	CPythonNetworkStream& rns=CPythonNetworkStream::Instance();
; 1202 : 	rns.SendSafeBoxMoneyPacket(SAFEBOX_MONEY_STATE_WITHDRAW, iMoney);

  00027	ff 75 fc	 push	 DWORD PTR _iMoney$[ebp]
  0002a	8b 0d 00 00 00
	00		 mov	 ecx, DWORD PTR ?ms_singleton@?$CSingleton@VCPythonNetworkStream@@@@0PAVCPythonNetworkStream@@A ; CSingleton<CPythonNetworkStream>::ms_singleton
  00030	6a 01		 push	 1
  00032	e8 00 00 00 00	 call	 ?SendSafeBoxMoneyPacket@CPythonNetworkStream@@QAE_NEK@Z ; CPythonNetworkStream::SendSafeBoxMoneyPacket

; 1203 : 
; 1204 : 	return Py_BuildNone();

  00037	e8 00 00 00 00	 call	 ?Py_BuildNone@@YAPAU_object@@XZ ; Py_BuildNone

; 1205 : }

  0003c	8b e5		 mov	 esp, ebp
  0003e	5d		 pop	 ebp
  0003f	c3		 ret	 0
?netSendSafeboxWithdrawMoneyPacket@@YAPAU_object@@PAU1@0@Z ENDP ; netSendSafeboxWithdrawMoneyPacket
_TEXT	ENDS
; Function compile flags: /Ogtp
; File D:\Metin2 Server Files\mainline\SRC_2014\Metin2Client\UserInterface\PythonNetworkStreamModule.cpp
;	COMDAT ?netSendSafeboxSaveMoneyPacket@@YAPAU_object@@PAU1@0@Z
_TEXT	SEGMENT
_iMoney$ = -4						; size = 4
_poSelf$ = 8						; size = 4
_poArgs$ = 12						; size = 4
?netSendSafeboxSaveMoneyPacket@@YAPAU_object@@PAU1@0@Z PROC ; netSendSafeboxSaveMoneyPacket, COMDAT

; 1184 : {

  00000	55		 push	 ebp
  00001	8b ec		 mov	 ebp, esp
  00003	51		 push	 ecx

; 1185 : 	int iMoney;
; 1186 : 	if (!PyTuple_GetInteger(poArgs, 0, &iMoney))

  00004	8d 45 fc	 lea	 eax, DWORD PTR _iMoney$[ebp]
  00007	50		 push	 eax
  00008	6a 00		 push	 0
  0000a	ff 75 0c	 push	 DWORD PTR _poArgs$[ebp]
  0000d	e8 00 00 00 00	 call	 ?PyTuple_GetInteger@@YA_NPAU_object@@HPAH@Z ; PyTuple_GetInteger
  00012	83 c4 0c	 add	 esp, 12			; 0000000cH
  00015	84 c0		 test	 al, al
  00017	75 0e		 jne	 SHORT $LN2@netSendSaf

; 1187 : 		return Py_BuildException();

  00019	6a 00		 push	 0
  0001b	e8 00 00 00 00	 call	 ?Py_BuildException@@YAPAU_object@@PBDZZ ; Py_BuildException
  00020	83 c4 04	 add	 esp, 4

; 1193 : }

  00023	8b e5		 mov	 esp, ebp
  00025	5d		 pop	 ebp
  00026	c3		 ret	 0
$LN2@netSendSaf:

; 1188 : 
; 1189 : 	CPythonNetworkStream& rns=CPythonNetworkStream::Instance();
; 1190 : 	rns.SendSafeBoxMoneyPacket(SAFEBOX_MONEY_STATE_SAVE, iMoney);

  00027	ff 75 fc	 push	 DWORD PTR _iMoney$[ebp]
  0002a	8b 0d 00 00 00
	00		 mov	 ecx, DWORD PTR ?ms_singleton@?$CSingleton@VCPythonNetworkStream@@@@0PAVCPythonNetworkStream@@A ; CSingleton<CPythonNetworkStream>::ms_singleton
  00030	6a 00		 push	 0
  00032	e8 00 00 00 00	 call	 ?SendSafeBoxMoneyPacket@CPythonNetworkStream@@QAE_NEK@Z ; CPythonNetworkStream::SendSafeBoxMoneyPacket

; 1191 : 
; 1192 : 	return Py_BuildNone();

  00037	e8 00 00 00 00	 call	 ?Py_BuildNone@@YAPAU_object@@XZ ; Py_BuildNone

; 1193 : }

  0003c	8b e5		 mov	 esp, ebp
  0003e	5d		 pop	 ebp
  0003f	c3		 ret	 0
?netSendSafeboxSaveMoneyPacket@@YAPAU_object@@PAU1@0@Z ENDP ; netSendSafeboxSaveMoneyPacket
_TEXT	ENDS
; Function compile flags: /Ogtp
; File D:\Metin2 Server Files\mainline\SRC_2014\Metin2Client\UserInterface\PythonNetworkStreamModule.cpp
;	COMDAT ?netSendPartyParameterPacket@@YAPAU_object@@PAU1@0@Z
_TEXT	SEGMENT
_iMode$ = -4						; size = 4
_poSelf$ = 8						; size = 4
_poArgs$ = 12						; size = 4
?netSendPartyParameterPacket@@YAPAU_object@@PAU1@0@Z PROC ; netSendPartyParameterPacket, COMDAT

; 1172 : {

  00000	55		 push	 ebp
  00001	8b ec		 mov	 ebp, esp
  00003	51		 push	 ecx

; 1173 : 	int iMode;
; 1174 : 	if (!PyTuple_GetInteger(poArgs, 0, &iMode))

  00004	8d 45 fc	 lea	 eax, DWORD PTR _iMode$[ebp]
  00007	50		 push	 eax
  00008	6a 00		 push	 0
  0000a	ff 75 0c	 push	 DWORD PTR _poArgs$[ebp]
  0000d	e8 00 00 00 00	 call	 ?PyTuple_GetInteger@@YA_NPAU_object@@HPAH@Z ; PyTuple_GetInteger
  00012	83 c4 0c	 add	 esp, 12			; 0000000cH
  00015	84 c0		 test	 al, al
  00017	75 0e		 jne	 SHORT $LN2@netSendPar

; 1175 : 		return Py_BuildException();

  00019	6a 00		 push	 0
  0001b	e8 00 00 00 00	 call	 ?Py_BuildException@@YAPAU_object@@PBDZZ ; Py_BuildException
  00020	83 c4 04	 add	 esp, 4

; 1181 : }

  00023	8b e5		 mov	 esp, ebp
  00025	5d		 pop	 ebp
  00026	c3		 ret	 0
$LN2@netSendPar:

; 1176 : 
; 1177 : 	CPythonNetworkStream& rns=CPythonNetworkStream::Instance();
; 1178 : 	rns.SendPartyParameterPacket(iMode);

  00027	ff 75 fc	 push	 DWORD PTR _iMode$[ebp]
  0002a	8b 0d 00 00 00
	00		 mov	 ecx, DWORD PTR ?ms_singleton@?$CSingleton@VCPythonNetworkStream@@@@0PAVCPythonNetworkStream@@A ; CSingleton<CPythonNetworkStream>::ms_singleton
  00030	e8 00 00 00 00	 call	 ?SendPartyParameterPacket@CPythonNetworkStream@@QAE_NE@Z ; CPythonNetworkStream::SendPartyParameterPacket

; 1179 : 
; 1180 : 	return Py_BuildNone();

  00035	e8 00 00 00 00	 call	 ?Py_BuildNone@@YAPAU_object@@XZ ; Py_BuildNone

; 1181 : }

  0003a	8b e5		 mov	 esp, ebp
  0003c	5d		 pop	 ebp
  0003d	c3		 ret	 0
?netSendPartyParameterPacket@@YAPAU_object@@PAU1@0@Z ENDP ; netSendPartyParameterPacket
_TEXT	ENDS
; Function compile flags: /Ogtp
; File D:\Metin2 Server Files\mainline\SRC_2014\Metin2Client\UserInterface\PythonNetworkStreamModule.cpp
;	COMDAT ?netSendPartyUseSkillPacket@@YAPAU_object@@PAU1@0@Z
_TEXT	SEGMENT
_iSkillIndex$ = -8					; size = 4
_iVID$ = -4						; size = 4
_poSelf$ = 8						; size = 4
_poArgs$ = 12						; size = 4
?netSendPartyUseSkillPacket@@YAPAU_object@@PAU1@0@Z PROC ; netSendPartyUseSkillPacket, COMDAT

; 1157 : {

  00000	55		 push	 ebp
  00001	8b ec		 mov	 ebp, esp
  00003	83 ec 08	 sub	 esp, 8

; 1158 : 	int iSkillIndex;
; 1159 : 	if (!PyTuple_GetInteger(poArgs, 0, &iSkillIndex))

  00006	8d 45 f8	 lea	 eax, DWORD PTR _iSkillIndex$[ebp]
  00009	50		 push	 eax
  0000a	6a 00		 push	 0
  0000c	ff 75 0c	 push	 DWORD PTR _poArgs$[ebp]
  0000f	e8 00 00 00 00	 call	 ?PyTuple_GetInteger@@YA_NPAU_object@@HPAH@Z ; PyTuple_GetInteger
  00014	83 c4 0c	 add	 esp, 12			; 0000000cH
  00017	84 c0		 test	 al, al
  00019	75 0e		 jne	 SHORT $LN2@netSendPar
$LN5@netSendPar:

; 1169 : }

  0001b	6a 00		 push	 0
  0001d	e8 00 00 00 00	 call	 ?Py_BuildException@@YAPAU_object@@PBDZZ ; Py_BuildException
  00022	83 c4 04	 add	 esp, 4
  00025	8b e5		 mov	 esp, ebp
  00027	5d		 pop	 ebp
  00028	c3		 ret	 0
$LN2@netSendPar:

; 1160 : 		return Py_BuildException();
; 1161 : 	int iVID;
; 1162 : 	if (!PyTuple_GetInteger(poArgs, 1, &iVID))

  00029	8d 45 fc	 lea	 eax, DWORD PTR _iVID$[ebp]
  0002c	50		 push	 eax
  0002d	6a 01		 push	 1
  0002f	ff 75 0c	 push	 DWORD PTR _poArgs$[ebp]
  00032	e8 00 00 00 00	 call	 ?PyTuple_GetInteger@@YA_NPAU_object@@HPAH@Z ; PyTuple_GetInteger
  00037	83 c4 0c	 add	 esp, 12			; 0000000cH
  0003a	84 c0		 test	 al, al
  0003c	74 dd		 je	 SHORT $LN5@netSendPar

; 1163 : 		return Py_BuildException();
; 1164 : 
; 1165 : 	CPythonNetworkStream& rns=CPythonNetworkStream::Instance();
; 1166 : 	rns.SendPartyUseSkillPacket(iSkillIndex, iVID);

  0003e	ff 75 fc	 push	 DWORD PTR _iVID$[ebp]
  00041	8b 0d 00 00 00
	00		 mov	 ecx, DWORD PTR ?ms_singleton@?$CSingleton@VCPythonNetworkStream@@@@0PAVCPythonNetworkStream@@A ; CSingleton<CPythonNetworkStream>::ms_singleton
  00047	ff 75 f8	 push	 DWORD PTR _iSkillIndex$[ebp]
  0004a	e8 00 00 00 00	 call	 ?SendPartyUseSkillPacket@CPythonNetworkStream@@QAE_NEK@Z ; CPythonNetworkStream::SendPartyUseSkillPacket

; 1167 : 
; 1168 : 	return Py_BuildNone();

  0004f	e8 00 00 00 00	 call	 ?Py_BuildNone@@YAPAU_object@@XZ ; Py_BuildNone

; 1169 : }

  00054	8b e5		 mov	 esp, ebp
  00056	5d		 pop	 ebp
  00057	c3		 ret	 0
?netSendPartyUseSkillPacket@@YAPAU_object@@PAU1@0@Z ENDP ; netSendPartyUseSkillPacket
_TEXT	ENDS
; Function compile flags: /Ogtp
; File D:\Metin2 Server Files\mainline\SRC_2014\Metin2Client\UserInterface\PythonNetworkStreamModule.cpp
;	COMDAT ?netSendPartySetStatePacket@@YAPAU_object@@PAU1@0@Z
_TEXT	SEGMENT
_iVID$ = -12						; size = 4
_iState$ = -8						; size = 4
_iFlag$ = -4						; size = 4
_poSelf$ = 8						; size = 4
_poArgs$ = 12						; size = 4
?netSendPartySetStatePacket@@YAPAU_object@@PAU1@0@Z PROC ; netSendPartySetStatePacket, COMDAT

; 1139 : {

  00000	55		 push	 ebp
  00001	8b ec		 mov	 ebp, esp
  00003	83 ec 0c	 sub	 esp, 12			; 0000000cH

; 1140 : 	int iVID;
; 1141 : 	if (!PyTuple_GetInteger(poArgs, 0, &iVID))

  00006	8d 45 f4	 lea	 eax, DWORD PTR _iVID$[ebp]
  00009	56		 push	 esi
  0000a	8b 75 0c	 mov	 esi, DWORD PTR _poArgs$[ebp]
  0000d	50		 push	 eax
  0000e	6a 00		 push	 0
  00010	56		 push	 esi
  00011	e8 00 00 00 00	 call	 ?PyTuple_GetInteger@@YA_NPAU_object@@HPAH@Z ; PyTuple_GetInteger
  00016	83 c4 0c	 add	 esp, 12			; 0000000cH
  00019	84 c0		 test	 al, al
  0001b	75 0f		 jne	 SHORT $LN2@netSendPar
$LN6@netSendPar:

; 1154 : }

  0001d	6a 00		 push	 0
  0001f	e8 00 00 00 00	 call	 ?Py_BuildException@@YAPAU_object@@PBDZZ ; Py_BuildException
  00024	83 c4 04	 add	 esp, 4
  00027	5e		 pop	 esi
  00028	8b e5		 mov	 esp, ebp
  0002a	5d		 pop	 ebp
  0002b	c3		 ret	 0
$LN2@netSendPar:

; 1142 : 		return Py_BuildException();
; 1143 : 	int iState;
; 1144 : 	if (!PyTuple_GetInteger(poArgs, 1, &iState))

  0002c	8d 45 f8	 lea	 eax, DWORD PTR _iState$[ebp]
  0002f	50		 push	 eax
  00030	6a 01		 push	 1
  00032	56		 push	 esi
  00033	e8 00 00 00 00	 call	 ?PyTuple_GetInteger@@YA_NPAU_object@@HPAH@Z ; PyTuple_GetInteger
  00038	83 c4 0c	 add	 esp, 12			; 0000000cH
  0003b	84 c0		 test	 al, al
  0003d	74 de		 je	 SHORT $LN6@netSendPar

; 1145 : 		return Py_BuildException();
; 1146 : 	int iFlag;
; 1147 : 	if (!PyTuple_GetInteger(poArgs, 2, &iFlag))

  0003f	8d 45 fc	 lea	 eax, DWORD PTR _iFlag$[ebp]
  00042	50		 push	 eax
  00043	6a 02		 push	 2
  00045	56		 push	 esi
  00046	e8 00 00 00 00	 call	 ?PyTuple_GetInteger@@YA_NPAU_object@@HPAH@Z ; PyTuple_GetInteger
  0004b	83 c4 0c	 add	 esp, 12			; 0000000cH
  0004e	84 c0		 test	 al, al
  00050	74 cb		 je	 SHORT $LN6@netSendPar

; 1148 : 		return Py_BuildException();
; 1149 : 
; 1150 : 	CPythonNetworkStream& rns=CPythonNetworkStream::Instance();
; 1151 : 	rns.SendPartySetStatePacket(iVID, iState, iFlag);

  00052	ff 75 fc	 push	 DWORD PTR _iFlag$[ebp]
  00055	8b 0d 00 00 00
	00		 mov	 ecx, DWORD PTR ?ms_singleton@?$CSingleton@VCPythonNetworkStream@@@@0PAVCPythonNetworkStream@@A ; CSingleton<CPythonNetworkStream>::ms_singleton
  0005b	ff 75 f8	 push	 DWORD PTR _iState$[ebp]
  0005e	ff 75 f4	 push	 DWORD PTR _iVID$[ebp]
  00061	e8 00 00 00 00	 call	 ?SendPartySetStatePacket@CPythonNetworkStream@@QAE_NKEE@Z ; CPythonNetworkStream::SendPartySetStatePacket

; 1152 : 
; 1153 : 	return Py_BuildNone();

  00066	e8 00 00 00 00	 call	 ?Py_BuildNone@@YAPAU_object@@XZ ; Py_BuildNone
  0006b	5e		 pop	 esi

; 1154 : }

  0006c	8b e5		 mov	 esp, ebp
  0006e	5d		 pop	 ebp
  0006f	c3		 ret	 0
?netSendPartySetStatePacket@@YAPAU_object@@PAU1@0@Z ENDP ; netSendPartySetStatePacket
_TEXT	ENDS
; Function compile flags: /Ogtp
; File D:\Metin2 Server Files\mainline\SRC_2014\Metin2Client\UserInterface\PythonNetworkStreamModule.cpp
;	COMDAT ?netSendPartyRemovePacket@@YAPAU_object@@PAU1@0@Z
_TEXT	SEGMENT
_vid$ = -4						; size = 4
_poSelf$ = 8						; size = 4
_poArgs$ = 12						; size = 4
?netSendPartyRemovePacket@@YAPAU_object@@PAU1@0@Z PROC	; netSendPartyRemovePacket, COMDAT

; 1127 : {

  00000	55		 push	 ebp
  00001	8b ec		 mov	 ebp, esp
  00003	51		 push	 ecx

; 1128 : 	int vid;
; 1129 : 	if (!PyTuple_GetInteger(poArgs, 0, &vid))

  00004	8d 45 fc	 lea	 eax, DWORD PTR _vid$[ebp]
  00007	50		 push	 eax
  00008	6a 00		 push	 0
  0000a	ff 75 0c	 push	 DWORD PTR _poArgs$[ebp]
  0000d	e8 00 00 00 00	 call	 ?PyTuple_GetInteger@@YA_NPAU_object@@HPAH@Z ; PyTuple_GetInteger
  00012	83 c4 0c	 add	 esp, 12			; 0000000cH
  00015	84 c0		 test	 al, al
  00017	75 0e		 jne	 SHORT $LN2@netSendPar

; 1130 : 		return Py_BuildException();

  00019	6a 00		 push	 0
  0001b	e8 00 00 00 00	 call	 ?Py_BuildException@@YAPAU_object@@PBDZZ ; Py_BuildException
  00020	83 c4 04	 add	 esp, 4

; 1136 : }

  00023	8b e5		 mov	 esp, ebp
  00025	5d		 pop	 ebp
  00026	c3		 ret	 0
$LN2@netSendPar:

; 1131 : 
; 1132 : 	CPythonNetworkStream& rns=CPythonNetworkStream::Instance();
; 1133 : 	rns.SendPartyRemovePacket(vid);

  00027	ff 75 fc	 push	 DWORD PTR _vid$[ebp]
  0002a	8b 0d 00 00 00
	00		 mov	 ecx, DWORD PTR ?ms_singleton@?$CSingleton@VCPythonNetworkStream@@@@0PAVCPythonNetworkStream@@A ; CSingleton<CPythonNetworkStream>::ms_singleton
  00030	e8 00 00 00 00	 call	 ?SendPartyRemovePacket@CPythonNetworkStream@@QAE_NK@Z ; CPythonNetworkStream::SendPartyRemovePacket

; 1134 : 
; 1135 : 	return Py_BuildNone();

  00035	e8 00 00 00 00	 call	 ?Py_BuildNone@@YAPAU_object@@XZ ; Py_BuildNone

; 1136 : }

  0003a	8b e5		 mov	 esp, ebp
  0003c	5d		 pop	 ebp
  0003d	c3		 ret	 0
?netSendPartyRemovePacket@@YAPAU_object@@PAU1@0@Z ENDP	; netSendPartyRemovePacket
_TEXT	ENDS
; Function compile flags: /Ogtp
; File D:\Metin2 Server Files\mainline\SRC_2014\Metin2Client\UserInterface\PythonNetworkStreamModule.cpp
;	COMDAT ?netSendPartyExitPacket@@YAPAU_object@@PAU1@0@Z
_TEXT	SEGMENT
_dwPID$ = -4						; size = 4
_poSelf$ = 8						; size = 4
_poArgs$ = 12						; size = 4
?netSendPartyExitPacket@@YAPAU_object@@PAU1@0@Z PROC	; netSendPartyExitPacket, COMDAT

; 1113 : {

  00000	55		 push	 ebp
  00001	8b ec		 mov	 ebp, esp
  00003	51		 push	 ecx
  00004	56		 push	 esi

; 1114 : 	IAbstractPlayer& rPlayer=IAbstractPlayer::GetSingleton();

  00005	8b 35 00 00 00
	00		 mov	 esi, DWORD PTR ?ms_singleton@?$TAbstractSingleton@VIAbstractPlayer@@@@0PAVIAbstractPlayer@@A ; TAbstractSingleton<IAbstractPlayer>::ms_singleton

; 1115 : 
; 1116 : 	CPythonNetworkStream& rns=CPythonNetworkStream::Instance();
; 1117 : 
; 1118 : 	DWORD dwVID = rPlayer.GetMainCharacterIndex();

  0000b	8b ce		 mov	 ecx, esi
  0000d	57		 push	 edi
  0000e	8b 3d 00 00 00
	00		 mov	 edi, DWORD PTR ?ms_singleton@?$CSingleton@VCPythonNetworkStream@@@@0PAVCPythonNetworkStream@@A ; CSingleton<CPythonNetworkStream>::ms_singleton
  00014	8b 06		 mov	 eax, DWORD PTR [esi]
  00016	ff 50 04	 call	 DWORD PTR [eax+4]

; 1119 : 	DWORD dwPID;
; 1120 : 	if (rPlayer.PartyMemberVIDToPID(dwVID, &dwPID))

  00019	8b 16		 mov	 edx, DWORD PTR [esi]
  0001b	8d 4d fc	 lea	 ecx, DWORD PTR _dwPID$[ebp]
  0001e	51		 push	 ecx
  0001f	50		 push	 eax
  00020	8b ce		 mov	 ecx, esi
  00022	8b 42 28	 mov	 eax, DWORD PTR [edx+40]
  00025	ff d0		 call	 eax
  00027	84 c0		 test	 al, al
  00029	74 0a		 je	 SHORT $LN2@netSendPar

; 1121 : 		rns.SendPartyRemovePacket(dwPID);

  0002b	ff 75 fc	 push	 DWORD PTR _dwPID$[ebp]
  0002e	8b cf		 mov	 ecx, edi
  00030	e8 00 00 00 00	 call	 ?SendPartyRemovePacket@CPythonNetworkStream@@QAE_NK@Z ; CPythonNetworkStream::SendPartyRemovePacket
$LN2@netSendPar:

; 1122 : 
; 1123 : 	return Py_BuildNone();

  00035	e8 00 00 00 00	 call	 ?Py_BuildNone@@YAPAU_object@@XZ ; Py_BuildNone
  0003a	5f		 pop	 edi
  0003b	5e		 pop	 esi

; 1124 : }

  0003c	8b e5		 mov	 esp, ebp
  0003e	5d		 pop	 ebp
  0003f	c3		 ret	 0
?netSendPartyExitPacket@@YAPAU_object@@PAU1@0@Z ENDP	; netSendPartyExitPacket
_TEXT	ENDS
; Function compile flags: /Ogtp
; File D:\Metin2 Server Files\mainline\SRC_2014\Metin2Client\UserInterface\PythonNetworkStreamModule.cpp
;	COMDAT ?netSendPartyInviteAnswerPacket@@YAPAU_object@@PAU1@0@Z
_TEXT	SEGMENT
_vid$ = -8						; size = 4
_answer$ = -4						; size = 4
_poSelf$ = 8						; size = 4
_poArgs$ = 12						; size = 4
?netSendPartyInviteAnswerPacket@@YAPAU_object@@PAU1@0@Z PROC ; netSendPartyInviteAnswerPacket, COMDAT

; 1098 : {

  00000	55		 push	 ebp
  00001	8b ec		 mov	 ebp, esp
  00003	83 ec 08	 sub	 esp, 8

; 1099 : 	int vid;
; 1100 : 	if (!PyTuple_GetInteger(poArgs, 0, &vid))

  00006	8d 45 f8	 lea	 eax, DWORD PTR _vid$[ebp]
  00009	50		 push	 eax
  0000a	6a 00		 push	 0
  0000c	ff 75 0c	 push	 DWORD PTR _poArgs$[ebp]
  0000f	e8 00 00 00 00	 call	 ?PyTuple_GetInteger@@YA_NPAU_object@@HPAH@Z ; PyTuple_GetInteger
  00014	83 c4 0c	 add	 esp, 12			; 0000000cH
  00017	84 c0		 test	 al, al
  00019	75 0e		 jne	 SHORT $LN2@netSendPar
$LN5@netSendPar:

; 1110 : }

  0001b	6a 00		 push	 0
  0001d	e8 00 00 00 00	 call	 ?Py_BuildException@@YAPAU_object@@PBDZZ ; Py_BuildException
  00022	83 c4 04	 add	 esp, 4
  00025	8b e5		 mov	 esp, ebp
  00027	5d		 pop	 ebp
  00028	c3		 ret	 0
$LN2@netSendPar:

; 1101 : 		return Py_BuildException();
; 1102 : 	int answer;
; 1103 : 	if (!PyTuple_GetInteger(poArgs, 1, &answer))

  00029	8d 45 fc	 lea	 eax, DWORD PTR _answer$[ebp]
  0002c	50		 push	 eax
  0002d	6a 01		 push	 1
  0002f	ff 75 0c	 push	 DWORD PTR _poArgs$[ebp]
  00032	e8 00 00 00 00	 call	 ?PyTuple_GetInteger@@YA_NPAU_object@@HPAH@Z ; PyTuple_GetInteger
  00037	83 c4 0c	 add	 esp, 12			; 0000000cH
  0003a	84 c0		 test	 al, al
  0003c	74 dd		 je	 SHORT $LN5@netSendPar

; 1104 : 		return Py_BuildException();
; 1105 : 
; 1106 : 	CPythonNetworkStream& rns=CPythonNetworkStream::Instance();
; 1107 : 	rns.SendPartyInviteAnswerPacket(vid, answer);

  0003e	ff 75 fc	 push	 DWORD PTR _answer$[ebp]
  00041	8b 0d 00 00 00
	00		 mov	 ecx, DWORD PTR ?ms_singleton@?$CSingleton@VCPythonNetworkStream@@@@0PAVCPythonNetworkStream@@A ; CSingleton<CPythonNetworkStream>::ms_singleton
  00047	ff 75 f8	 push	 DWORD PTR _vid$[ebp]
  0004a	e8 00 00 00 00	 call	 ?SendPartyInviteAnswerPacket@CPythonNetworkStream@@QAE_NKE@Z ; CPythonNetworkStream::SendPartyInviteAnswerPacket

; 1108 : 
; 1109 : 	return Py_BuildNone();

  0004f	e8 00 00 00 00	 call	 ?Py_BuildNone@@YAPAU_object@@XZ ; Py_BuildNone

; 1110 : }

  00054	8b e5		 mov	 esp, ebp
  00056	5d		 pop	 ebp
  00057	c3		 ret	 0
?netSendPartyInviteAnswerPacket@@YAPAU_object@@PAU1@0@Z ENDP ; netSendPartyInviteAnswerPacket
_TEXT	ENDS
; Function compile flags: /Ogtp
; File D:\Metin2 Server Files\mainline\SRC_2014\Metin2Client\UserInterface\PythonNetworkStreamModule.cpp
;	COMDAT ?netSendPartyInvitePacket@@YAPAU_object@@PAU1@0@Z
_TEXT	SEGMENT
_vid$ = -4						; size = 4
_poSelf$ = 8						; size = 4
_poArgs$ = 12						; size = 4
?netSendPartyInvitePacket@@YAPAU_object@@PAU1@0@Z PROC	; netSendPartyInvitePacket, COMDAT

; 1086 : {

  00000	55		 push	 ebp
  00001	8b ec		 mov	 ebp, esp
  00003	51		 push	 ecx

; 1087 : 	int vid;
; 1088 : 	if (!PyTuple_GetInteger(poArgs, 0, &vid))

  00004	8d 45 fc	 lea	 eax, DWORD PTR _vid$[ebp]
  00007	50		 push	 eax
  00008	6a 00		 push	 0
  0000a	ff 75 0c	 push	 DWORD PTR _poArgs$[ebp]
  0000d	e8 00 00 00 00	 call	 ?PyTuple_GetInteger@@YA_NPAU_object@@HPAH@Z ; PyTuple_GetInteger
  00012	83 c4 0c	 add	 esp, 12			; 0000000cH
  00015	84 c0		 test	 al, al
  00017	75 0e		 jne	 SHORT $LN2@netSendPar

; 1089 : 		return Py_BuildException();

  00019	6a 00		 push	 0
  0001b	e8 00 00 00 00	 call	 ?Py_BuildException@@YAPAU_object@@PBDZZ ; Py_BuildException
  00020	83 c4 04	 add	 esp, 4

; 1095 : }

  00023	8b e5		 mov	 esp, ebp
  00025	5d		 pop	 ebp
  00026	c3		 ret	 0
$LN2@netSendPar:

; 1090 : 
; 1091 : 	CPythonNetworkStream& rns=CPythonNetworkStream::Instance();
; 1092 : 	rns.SendPartyInvitePacket(vid);

  00027	ff 75 fc	 push	 DWORD PTR _vid$[ebp]
  0002a	8b 0d 00 00 00
	00		 mov	 ecx, DWORD PTR ?ms_singleton@?$CSingleton@VCPythonNetworkStream@@@@0PAVCPythonNetworkStream@@A ; CSingleton<CPythonNetworkStream>::ms_singleton
  00030	e8 00 00 00 00	 call	 ?SendPartyInvitePacket@CPythonNetworkStream@@QAE_NK@Z ; CPythonNetworkStream::SendPartyInvitePacket

; 1093 : 
; 1094 : 	return Py_BuildNone();

  00035	e8 00 00 00 00	 call	 ?Py_BuildNone@@YAPAU_object@@XZ ; Py_BuildNone

; 1095 : }

  0003a	8b e5		 mov	 esp, ebp
  0003c	5d		 pop	 ebp
  0003d	c3		 ret	 0
?netSendPartyInvitePacket@@YAPAU_object@@PAU1@0@Z ENDP	; netSendPartyInvitePacket
_TEXT	ENDS
; Function compile flags: /Ogtp
; File D:\Metin2 Server Files\mainline\SRC_2014\Metin2Client\UserInterface\PythonNetworkStreamModule.cpp
;	COMDAT ?netSendMessengerRemovePacket@@YAPAU_object@@PAU1@0@Z
_TEXT	SEGMENT
_szKey$ = -8						; size = 4
_szName$ = -4						; size = 4
_poSelf$ = 8						; size = 4
_poArgs$ = 12						; size = 4
?netSendMessengerRemovePacket@@YAPAU_object@@PAU1@0@Z PROC ; netSendMessengerRemovePacket, COMDAT

; 1071 : {

  00000	55		 push	 ebp
  00001	8b ec		 mov	 ebp, esp
  00003	83 ec 08	 sub	 esp, 8

; 1072 : 	char * szKey;
; 1073 : 	if (!PyTuple_GetString(poArgs, 0, &szKey))

  00006	8d 45 f8	 lea	 eax, DWORD PTR _szKey$[ebp]
  00009	50		 push	 eax
  0000a	6a 00		 push	 0
  0000c	ff 75 0c	 push	 DWORD PTR _poArgs$[ebp]
  0000f	e8 00 00 00 00	 call	 ?PyTuple_GetString@@YA_NPAU_object@@HPAPAD@Z ; PyTuple_GetString
  00014	83 c4 0c	 add	 esp, 12			; 0000000cH
  00017	84 c0		 test	 al, al
  00019	75 0e		 jne	 SHORT $LN2@netSendMes
$LN5@netSendMes:

; 1083 : }

  0001b	6a 00		 push	 0
  0001d	e8 00 00 00 00	 call	 ?Py_BuildException@@YAPAU_object@@PBDZZ ; Py_BuildException
  00022	83 c4 04	 add	 esp, 4
  00025	8b e5		 mov	 esp, ebp
  00027	5d		 pop	 ebp
  00028	c3		 ret	 0
$LN2@netSendMes:

; 1074 : 		return Py_BuildException();
; 1075 : 	char * szName;
; 1076 : 	if (!PyTuple_GetString(poArgs, 1, &szName))

  00029	8d 45 fc	 lea	 eax, DWORD PTR _szName$[ebp]
  0002c	50		 push	 eax
  0002d	6a 01		 push	 1
  0002f	ff 75 0c	 push	 DWORD PTR _poArgs$[ebp]
  00032	e8 00 00 00 00	 call	 ?PyTuple_GetString@@YA_NPAU_object@@HPAPAD@Z ; PyTuple_GetString
  00037	83 c4 0c	 add	 esp, 12			; 0000000cH
  0003a	84 c0		 test	 al, al
  0003c	74 dd		 je	 SHORT $LN5@netSendMes

; 1077 : 		return Py_BuildException();
; 1078 : 
; 1079 : 	CPythonNetworkStream& rns=CPythonNetworkStream::Instance();
; 1080 : 	rns.SendMessengerRemovePacket(szKey, szName);

  0003e	ff 75 fc	 push	 DWORD PTR _szName$[ebp]
  00041	8b 0d 00 00 00
	00		 mov	 ecx, DWORD PTR ?ms_singleton@?$CSingleton@VCPythonNetworkStream@@@@0PAVCPythonNetworkStream@@A ; CSingleton<CPythonNetworkStream>::ms_singleton
  00047	ff 75 f8	 push	 DWORD PTR _szKey$[ebp]
  0004a	e8 00 00 00 00	 call	 ?SendMessengerRemovePacket@CPythonNetworkStream@@QAE_NPBD0@Z ; CPythonNetworkStream::SendMessengerRemovePacket

; 1081 : 	
; 1082 : 	return Py_BuildNone();

  0004f	e8 00 00 00 00	 call	 ?Py_BuildNone@@YAPAU_object@@XZ ; Py_BuildNone

; 1083 : }

  00054	8b e5		 mov	 esp, ebp
  00056	5d		 pop	 ebp
  00057	c3		 ret	 0
?netSendMessengerRemovePacket@@YAPAU_object@@PAU1@0@Z ENDP ; netSendMessengerRemovePacket
_TEXT	ENDS
; Function compile flags: /Ogtp
; File D:\Metin2 Server Files\mainline\SRC_2014\Metin2Client\UserInterface\PythonNetworkStreamModule.cpp
;	COMDAT ?netSendMessengerAddByNamePacket@@YAPAU_object@@PAU1@0@Z
_TEXT	SEGMENT
_szName$ = -4						; size = 4
_poSelf$ = 8						; size = 4
_poArgs$ = 12						; size = 4
?netSendMessengerAddByNamePacket@@YAPAU_object@@PAU1@0@Z PROC ; netSendMessengerAddByNamePacket, COMDAT

; 1059 : {

  00000	55		 push	 ebp
  00001	8b ec		 mov	 ebp, esp
  00003	51		 push	 ecx

; 1060 : 	char * szName;
; 1061 : 	if (!PyTuple_GetString(poArgs, 0, &szName))

  00004	8d 45 fc	 lea	 eax, DWORD PTR _szName$[ebp]
  00007	50		 push	 eax
  00008	6a 00		 push	 0
  0000a	ff 75 0c	 push	 DWORD PTR _poArgs$[ebp]
  0000d	e8 00 00 00 00	 call	 ?PyTuple_GetString@@YA_NPAU_object@@HPAPAD@Z ; PyTuple_GetString
  00012	83 c4 0c	 add	 esp, 12			; 0000000cH
  00015	84 c0		 test	 al, al
  00017	75 0e		 jne	 SHORT $LN2@netSendMes

; 1062 : 		return Py_BuildException();

  00019	6a 00		 push	 0
  0001b	e8 00 00 00 00	 call	 ?Py_BuildException@@YAPAU_object@@PBDZZ ; Py_BuildException
  00020	83 c4 04	 add	 esp, 4

; 1068 : }

  00023	8b e5		 mov	 esp, ebp
  00025	5d		 pop	 ebp
  00026	c3		 ret	 0
$LN2@netSendMes:

; 1063 : 
; 1064 : 	CPythonNetworkStream& rns=CPythonNetworkStream::Instance();
; 1065 : 	rns.SendMessengerAddByNamePacket(szName);

  00027	ff 75 fc	 push	 DWORD PTR _szName$[ebp]
  0002a	8b 0d 00 00 00
	00		 mov	 ecx, DWORD PTR ?ms_singleton@?$CSingleton@VCPythonNetworkStream@@@@0PAVCPythonNetworkStream@@A ; CSingleton<CPythonNetworkStream>::ms_singleton
  00030	e8 00 00 00 00	 call	 ?SendMessengerAddByNamePacket@CPythonNetworkStream@@QAE_NPBD@Z ; CPythonNetworkStream::SendMessengerAddByNamePacket

; 1066 : 	
; 1067 : 	return Py_BuildNone();

  00035	e8 00 00 00 00	 call	 ?Py_BuildNone@@YAPAU_object@@XZ ; Py_BuildNone

; 1068 : }

  0003a	8b e5		 mov	 esp, ebp
  0003c	5d		 pop	 ebp
  0003d	c3		 ret	 0
?netSendMessengerAddByNamePacket@@YAPAU_object@@PAU1@0@Z ENDP ; netSendMessengerAddByNamePacket
_TEXT	ENDS
; Function compile flags: /Ogtp
; File D:\Metin2 Server Files\mainline\SRC_2014\Metin2Client\UserInterface\PythonNetworkStreamModule.cpp
;	COMDAT ?netSendMessengerAddByVIDPacket@@YAPAU_object@@PAU1@0@Z
_TEXT	SEGMENT
_vid$ = -4						; size = 4
_poSelf$ = 8						; size = 4
_poArgs$ = 12						; size = 4
?netSendMessengerAddByVIDPacket@@YAPAU_object@@PAU1@0@Z PROC ; netSendMessengerAddByVIDPacket, COMDAT

; 1047 : {

  00000	55		 push	 ebp
  00001	8b ec		 mov	 ebp, esp
  00003	51		 push	 ecx

; 1048 : 	int vid;
; 1049 : 	if (!PyTuple_GetInteger(poArgs, 0, &vid))

  00004	8d 45 fc	 lea	 eax, DWORD PTR _vid$[ebp]
  00007	50		 push	 eax
  00008	6a 00		 push	 0
  0000a	ff 75 0c	 push	 DWORD PTR _poArgs$[ebp]
  0000d	e8 00 00 00 00	 call	 ?PyTuple_GetInteger@@YA_NPAU_object@@HPAH@Z ; PyTuple_GetInteger
  00012	83 c4 0c	 add	 esp, 12			; 0000000cH
  00015	84 c0		 test	 al, al
  00017	75 0e		 jne	 SHORT $LN2@netSendMes

; 1050 : 		return Py_BuildException();

  00019	6a 00		 push	 0
  0001b	e8 00 00 00 00	 call	 ?Py_BuildException@@YAPAU_object@@PBDZZ ; Py_BuildException
  00020	83 c4 04	 add	 esp, 4

; 1056 : }

  00023	8b e5		 mov	 esp, ebp
  00025	5d		 pop	 ebp
  00026	c3		 ret	 0
$LN2@netSendMes:

; 1051 : 
; 1052 : 	CPythonNetworkStream& rns=CPythonNetworkStream::Instance();
; 1053 : 	rns.SendMessengerAddByVIDPacket(vid);

  00027	ff 75 fc	 push	 DWORD PTR _vid$[ebp]
  0002a	8b 0d 00 00 00
	00		 mov	 ecx, DWORD PTR ?ms_singleton@?$CSingleton@VCPythonNetworkStream@@@@0PAVCPythonNetworkStream@@A ; CSingleton<CPythonNetworkStream>::ms_singleton
  00030	e8 00 00 00 00	 call	 ?SendMessengerAddByVIDPacket@CPythonNetworkStream@@QAE_NK@Z ; CPythonNetworkStream::SendMessengerAddByVIDPacket

; 1054 : 	
