; Listing generated by Microsoft (R) Optimizing Compiler Version 19.28.29335.0 

	TITLE	D:\Metin2 Server Files\mainline\SRC_2014\Metin2Client\UserInterface\PythonNetworkStreamPhaseGameItem.cpp
	.686P
	.XMM
	include listing.inc
	.model	flat

INCLUDELIB LIBCMT
INCLUDELIB OLDNAMES

PUBLIC	??_7?$CDynamicPoolEx@VCAirResistanceDecorator@NEffectUpdateDecorator@@@@6B@ ; CDynamicPoolEx<NEffectUpdateDecorator::CAirResistanceDecorator>::`vftable'
PUBLIC	??_G?$CDynamicPoolEx@VCAirResistanceDecorator@NEffectUpdateDecorator@@@@UAEPAXI@Z ; CDynamicPoolEx<NEffectUpdateDecorator::CAirResistanceDecorator>::`scalar deleting destructor'
PUBLIC	??_7?$CDynamicPoolEx@VCTextureAnimationRandomDecorator@NEffectUpdateDecorator@@@@6B@ ; CDynamicPoolEx<NEffectUpdateDecorator::CTextureAnimationRandomDecorator>::`vftable'
PUBLIC	??_G?$CDynamicPoolEx@VCTextureAnimationRandomDecorator@NEffectUpdateDecorator@@@@UAEPAXI@Z ; CDynamicPoolEx<NEffectUpdateDecorator::CTextureAnimationRandomDecorator>::`scalar deleting destructor'
PUBLIC	??_7?$CDynamicPoolEx@VCTextureAnimationCCWDecorator@NEffectUpdateDecorator@@@@6B@ ; CDynamicPoolEx<NEffectUpdateDecorator::CTextureAnimationCCWDecorator>::`vftable'
PUBLIC	??_G?$CDynamicPoolEx@VCTextureAnimationCCWDecorator@NEffectUpdateDecorator@@@@UAEPAXI@Z ; CDynamicPoolEx<NEffectUpdateDecorator::CTextureAnimationCCWDecorator>::`scalar deleting destructor'
PUBLIC	??_7?$CDynamicPoolEx@VCTextureAnimationCWDecorator@NEffectUpdateDecorator@@@@6B@ ; CDynamicPoolEx<NEffectUpdateDecorator::CTextureAnimationCWDecorator>::`vftable'
PUBLIC	??_G?$CDynamicPoolEx@VCTextureAnimationCWDecorator@NEffectUpdateDecorator@@@@UAEPAXI@Z ; CDynamicPoolEx<NEffectUpdateDecorator::CTextureAnimationCWDecorator>::`scalar deleting destructor'
PUBLIC	??_7?$CDynamicPoolEx@VCNullDecorator@NEffectUpdateDecorator@@@@6B@ ; CDynamicPoolEx<NEffectUpdateDecorator::CNullDecorator>::`vftable'
PUBLIC	??_G?$CDynamicPoolEx@VCNullDecorator@NEffectUpdateDecorator@@@@UAEPAXI@Z ; CDynamicPoolEx<NEffectUpdateDecorator::CNullDecorator>::`scalar deleting destructor'
PUBLIC	??_R4?$CDynamicPoolEx@VCHeaderDecorator@NEffectUpdateDecorator@@@@6B@ ; CDynamicPoolEx<NEffectUpdateDecorator::CHeaderDecorator>::`RTTI Complete Object Locator'
PUBLIC	??_R0?AV?$CDynamicPoolEx@VCHeaderDecorator@NEffectUpdateDecorator@@@@@8 ; CDynamicPoolEx<NEffectUpdateDecorator::CHeaderDecorator> `RTTI Type Descriptor'
PUBLIC	??_R3?$CDynamicPoolEx@VCHeaderDecorator@NEffectUpdateDecorator@@@@8 ; CDynamicPoolEx<NEffectUpdateDecorator::CHeaderDecorator>::`RTTI Class Hierarchy Descriptor'
PUBLIC	??_R2?$CDynamicPoolEx@VCHeaderDecorator@NEffectUpdateDecorator@@@@8 ; CDynamicPoolEx<NEffectUpdateDecorator::CHeaderDecorator>::`RTTI Base Class Array'
PUBLIC	??_R1A@?0A@EA@?$CDynamicPoolEx@VCHeaderDecorator@NEffectUpdateDecorator@@@@8 ; CDynamicPoolEx<NEffectUpdateDecorator::CHeaderDecorator>::`RTTI Base Class Descriptor at (0,-1,0,64)'
PUBLIC	??_R4?$CDynamicPoolEx@VCNullDecorator@NEffectUpdateDecorator@@@@6B@ ; CDynamicPoolEx<NEffectUpdateDecorator::CNullDecorator>::`RTTI Complete Object Locator'
PUBLIC	??_R0?AV?$CDynamicPoolEx@VCNullDecorator@NEffectUpdateDecorator@@@@@8 ; CDynamicPoolEx<NEffectUpdateDecorator::CNullDecorator> `RTTI Type Descriptor'
PUBLIC	??_R3?$CDynamicPoolEx@VCNullDecorator@NEffectUpdateDecorator@@@@8 ; CDynamicPoolEx<NEffectUpdateDecorator::CNullDecorator>::`RTTI Class Hierarchy Descriptor'
PUBLIC	??_R2?$CDynamicPoolEx@VCNullDecorator@NEffectUpdateDecorator@@@@8 ; CDynamicPoolEx<NEffectUpdateDecorator::CNullDecorator>::`RTTI Base Class Array'
PUBLIC	??_R1A@?0A@EA@?$CDynamicPoolEx@VCNullDecorator@NEffectUpdateDecorator@@@@8 ; CDynamicPoolEx<NEffectUpdateDecorator::CNullDecorator>::`RTTI Base Class Descriptor at (0,-1,0,64)'
PUBLIC	??_R4?$CDynamicPoolEx@VCTextureAnimationCWDecorator@NEffectUpdateDecorator@@@@6B@ ; CDynamicPoolEx<NEffectUpdateDecorator::CTextureAnimationCWDecorator>::`RTTI Complete Object Locator'
PUBLIC	??_R0?AV?$CDynamicPoolEx@VCTextureAnimationCWDecorator@NEffectUpdateDecorator@@@@@8 ; CDynamicPoolEx<NEffectUpdateDecorator::CTextureAnimationCWDecorator> `RTTI Type Descriptor'
PUBLIC	??_R3?$CDynamicPoolEx@VCTextureAnimationCWDecorator@NEffectUpdateDecorator@@@@8 ; CDynamicPoolEx<NEffectUpdateDecorator::CTextureAnimationCWDecorator>::`RTTI Class Hierarchy Descriptor'
PUBLIC	??_R2?$CDynamicPoolEx@VCTextureAnimationCWDecorator@NEffectUpdateDecorator@@@@8 ; CDynamicPoolEx<NEffectUpdateDecorator::CTextureAnimationCWDecorator>::`RTTI Base Class Array'
PUBLIC	??_R1A@?0A@EA@?$CDynamicPoolEx@VCTextureAnimationCWDecorator@NEffectUpdateDecorator@@@@8 ; CDynamicPoolEx<NEffectUpdateDecorator::CTextureAnimationCWDecorator>::`RTTI Base Class Descriptor at (0,-1,0,64)'
PUBLIC	??_R4?$CDynamicPoolEx@VCTextureAnimationCCWDecorator@NEffectUpdateDecorator@@@@6B@ ; CDynamicPoolEx<NEffectUpdateDecorator::CTextureAnimationCCWDecorator>::`RTTI Complete Object Locator'
PUBLIC	??_R0?AV?$CDynamicPoolEx@VCTextureAnimationCCWDecorator@NEffectUpdateDecorator@@@@@8 ; CDynamicPoolEx<NEffectUpdateDecorator::CTextureAnimationCCWDecorator> `RTTI Type Descriptor'
PUBLIC	??_R3?$CDynamicPoolEx@VCTextureAnimationCCWDecorator@NEffectUpdateDecorator@@@@8 ; CDynamicPoolEx<NEffectUpdateDecorator::CTextureAnimationCCWDecorator>::`RTTI Class Hierarchy Descriptor'
PUBLIC	??_R2?$CDynamicPoolEx@VCTextureAnimationCCWDecorator@NEffectUpdateDecorator@@@@8 ; CDynamicPoolEx<NEffectUpdateDecorator::CTextureAnimationCCWDecorator>::`RTTI Base Class Array'
PUBLIC	??_R1A@?0A@EA@?$CDynamicPoolEx@VCTextureAnimationCCWDecorator@NEffectUpdateDecorator@@@@8 ; CDynamicPoolEx<NEffectUpdateDecorator::CTextureAnimationCCWDecorator>::`RTTI Base Class Descriptor at (0,-1,0,64)'
PUBLIC	??_R4?$CDynamicPoolEx@VCTextureAnimationRandomDecorator@NEffectUpdateDecorator@@@@6B@ ; CDynamicPoolEx<NEffectUpdateDecorator::CTextureAnimationRandomDecorator>::`RTTI Complete Object Locator'
PUBLIC	??_R0?AV?$CDynamicPoolEx@VCTextureAnimationRandomDecorator@NEffectUpdateDecorator@@@@@8 ; CDynamicPoolEx<NEffectUpdateDecorator::CTextureAnimationRandomDecorator> `RTTI Type Descriptor'
PUBLIC	??_R3?$CDynamicPoolEx@VCTextureAnimationRandomDecorator@NEffectUpdateDecorator@@@@8 ; CDynamicPoolEx<NEffectUpdateDecorator::CTextureAnimationRandomDecorator>::`RTTI Class Hierarchy Descriptor'
PUBLIC	??_R2?$CDynamicPoolEx@VCTextureAnimationRandomDecorator@NEffectUpdateDecorator@@@@8 ; CDynamicPoolEx<NEffectUpdateDecorator::CTextureAnimationRandomDecorator>::`RTTI Base Class Array'
PUBLIC	??_R1A@?0A@EA@?$CDynamicPoolEx@VCTextureAnimationRandomDecorator@NEffectUpdateDecorator@@@@8 ; CDynamicPoolEx<NEffectUpdateDecorator::CTextureAnimationRandomDecorator>::`RTTI Base Class Descriptor at (0,-1,0,64)'
PUBLIC	??_R4?$CDynamicPoolEx@VCAirResistanceDecorator@NEffectUpdateDecorator@@@@6B@ ; CDynamicPoolEx<NEffectUpdateDecorator::CAirResistanceDecorator>::`RTTI Complete Object Locator'
PUBLIC	??_R0?AV?$CDynamicPoolEx@VCAirResistanceDecorator@NEffectUpdateDecorator@@@@@8 ; CDynamicPoolEx<NEffectUpdateDecorator::CAirResistanceDecorator> `RTTI Type Descriptor'
PUBLIC	??_R3?$CDynamicPoolEx@VCAirResistanceDecorator@NEffectUpdateDecorator@@@@8 ; CDynamicPoolEx<NEffectUpdateDecorator::CAirResistanceDecorator>::`RTTI Class Hierarchy Descriptor'
PUBLIC	??_R2?$CDynamicPoolEx@VCAirResistanceDecorator@NEffectUpdateDecorator@@@@8 ; CDynamicPoolEx<NEffectUpdateDecorator::CAirResistanceDecorator>::`RTTI Base Class Array'
PUBLIC	??_R1A@?0A@EA@?$CDynamicPoolEx@VCAirResistanceDecorator@NEffectUpdateDecorator@@@@8 ; CDynamicPoolEx<NEffectUpdateDecorator::CAirResistanceDecorator>::`RTTI Base Class Descriptor at (0,-1,0,64)'
PUBLIC	??_R4?$CDynamicPoolEx@VCGravityDecorator@NEffectUpdateDecorator@@@@6B@ ; CDynamicPoolEx<NEffectUpdateDecorator::CGravityDecorator>::`RTTI Complete Object Locator'
PUBLIC	??_R0?AV?$CDynamicPoolEx@VCGravityDecorator@NEffectUpdateDecorator@@@@@8 ; CDynamicPoolEx<NEffectUpdateDecorator::CGravityDecorator> `RTTI Type Descriptor'
PUBLIC	??_R3?$CDynamicPoolEx@VCGravityDecorator@NEffectUpdateDecorator@@@@8 ; CDynamicPoolEx<NEffectUpdateDecorator::CGravityDecorator>::`RTTI Class Hierarchy Descriptor'
PUBLIC	??_R2?$CDynamicPoolEx@VCGravityDecorator@NEffectUpdateDecorator@@@@8 ; CDynamicPoolEx<NEffectUpdateDecorator::CGravityDecorator>::`RTTI Base Class Array'
PUBLIC	??_R1A@?0A@EA@?$CDynamicPoolEx@VCGravityDecorator@NEffectUpdateDecorator@@@@8 ; CDynamicPoolEx<NEffectUpdateDecorator::CGravityDecorator>::`RTTI Base Class Descriptor at (0,-1,0,64)'
PUBLIC	??_R4?$CDynamicPoolEx@VCRotationDecorator@NEffectUpdateDecorator@@@@6B@ ; CDynamicPoolEx<NEffectUpdateDecorator::CRotationDecorator>::`RTTI Complete Object Locator'
PUBLIC	??_R0?AV?$CDynamicPoolEx@VCRotationDecorator@NEffectUpdateDecorator@@@@@8 ; CDynamicPoolEx<NEffectUpdateDecorator::CRotationDecorator> `RTTI Type Descriptor'
PUBLIC	??_R3?$CDynamicPoolEx@VCRotationDecorator@NEffectUpdateDecorator@@@@8 ; CDynamicPoolEx<NEffectUpdateDecorator::CRotationDecorator>::`RTTI Class Hierarchy Descriptor'
PUBLIC	??_R2?$CDynamicPoolEx@VCRotationDecorator@NEffectUpdateDecorator@@@@8 ; CDynamicPoolEx<NEffectUpdateDecorator::CRotationDecorator>::`RTTI Base Class Array'
PUBLIC	??_R1A@?0A@EA@?$CDynamicPoolEx@VCRotationDecorator@NEffectUpdateDecorator@@@@8 ; CDynamicPoolEx<NEffectUpdateDecorator::CRotationDecorator>::`RTTI Base Class Descriptor at (0,-1,0,64)'
PUBLIC	??_7?$CDynamicPoolEx@VCHeaderDecorator@NEffectUpdateDecorator@@@@6B@ ; CDynamicPoolEx<NEffectUpdateDecorator::CHeaderDecorator>::`vftable'
PUBLIC	??_G?$CDynamicPoolEx@VCHeaderDecorator@NEffectUpdateDecorator@@@@UAEPAXI@Z ; CDynamicPoolEx<NEffectUpdateDecorator::CHeaderDecorator>::`scalar deleting destructor'
PUBLIC	??_7?$CDynamicPoolEx@VCRotationDecorator@NEffectUpdateDecorator@@@@6B@ ; CDynamicPoolEx<NEffectUpdateDecorator::CRotationDecorator>::`vftable'
PUBLIC	??_G?$CDynamicPoolEx@VCRotationDecorator@NEffectUpdateDecorator@@@@UAEPAXI@Z ; CDynamicPoolEx<NEffectUpdateDecorator::CRotationDecorator>::`scalar deleting destructor'
PUBLIC	??_7?$CDynamicPoolEx@VCGravityDecorator@NEffectUpdateDecorator@@@@6B@ ; CDynamicPoolEx<NEffectUpdateDecorator::CGravityDecorator>::`vftable'
PUBLIC	??_G?$CDynamicPoolEx@VCGravityDecorator@NEffectUpdateDecorator@@@@UAEPAXI@Z ; CDynamicPoolEx<NEffectUpdateDecorator::CGravityDecorator>::`scalar deleting destructor'
EXTRN	??_E?$CDynamicPoolEx@VCAirResistanceDecorator@NEffectUpdateDecorator@@@@UAEPAXI@Z:PROC ; CDynamicPoolEx<NEffectUpdateDecorator::CAirResistanceDecorator>::`vector deleting destructor'
EXTRN	??_E?$CDynamicPoolEx@VCTextureAnimationRandomDecorator@NEffectUpdateDecorator@@@@UAEPAXI@Z:PROC ; CDynamicPoolEx<NEffectUpdateDecorator::CTextureAnimationRandomDecorator>::`vector deleting destructor'
EXTRN	??_E?$CDynamicPoolEx@VCTextureAnimationCCWDecorator@NEffectUpdateDecorator@@@@UAEPAXI@Z:PROC ; CDynamicPoolEx<NEffectUpdateDecorator::CTextureAnimationCCWDecorator>::`vector deleting destructor'
EXTRN	??_E?$CDynamicPoolEx@VCTextureAnimationCWDecorator@NEffectUpdateDecorator@@@@UAEPAXI@Z:PROC ; CDynamicPoolEx<NEffectUpdateDecorator::CTextureAnimationCWDecorator>::`vector deleting destructor'
EXTRN	??_E?$CDynamicPoolEx@VCNullDecorator@NEffectUpdateDecorator@@@@UAEPAXI@Z:PROC ; CDynamicPoolEx<NEffectUpdateDecorator::CNullDecorator>::`vector deleting destructor'
EXTRN	??_E?$CDynamicPoolEx@VCHeaderDecorator@NEffectUpdateDecorator@@@@UAEPAXI@Z:PROC ; CDynamicPoolEx<NEffectUpdateDecorator::CHeaderDecorator>::`vector deleting destructor'
EXTRN	??_7type_info@@6B@:QWORD			; type_info::`vftable'
EXTRN	??_E?$CDynamicPoolEx@VCRotationDecorator@NEffectUpdateDecorator@@@@UAEPAXI@Z:PROC ; CDynamicPoolEx<NEffectUpdateDecorator::CRotationDecorator>::`vector deleting destructor'
EXTRN	??_E?$CDynamicPoolEx@VCGravityDecorator@NEffectUpdateDecorator@@@@UAEPAXI@Z:PROC ; CDynamicPoolEx<NEffectUpdateDecorator::CGravityDecorator>::`vector deleting destructor'
;	COMDAT ??_7?$CDynamicPoolEx@VCGravityDecorator@NEffectUpdateDecorator@@@@6B@
CONST	SEGMENT
??_7?$CDynamicPoolEx@VCGravityDecorator@NEffectUpdateDecorator@@@@6B@ DD FLAT:??_R4?$CDynamicPoolEx@VCGravityDecorator@NEffectUpdateDecorator@@@@6B@ ; CDynamicPoolEx<NEffectUpdateDecorator::CGravityDecorator>::`vftable'
	DD	FLAT:??_E?$CDynamicPoolEx@VCGravityDecorator@NEffectUpdateDecorator@@@@UAEPAXI@Z
CONST	ENDS
;	COMDAT ??_7?$CDynamicPoolEx@VCRotationDecorator@NEffectUpdateDecorator@@@@6B@
CONST	SEGMENT
??_7?$CDynamicPoolEx@VCRotationDecorator@NEffectUpdateDecorator@@@@6B@ DD FLAT:??_R4?$CDynamicPoolEx@VCRotationDecorator@NEffectUpdateDecorator@@@@6B@ ; CDynamicPoolEx<NEffectUpdateDecorator::CRotationDecorator>::`vftable'
	DD	FLAT:??_E?$CDynamicPoolEx@VCRotationDecorator@NEffectUpdateDecorator@@@@UAEPAXI@Z
CONST	ENDS
;	COMDAT ??_7?$CDynamicPoolEx@VCHeaderDecorator@NEffectUpdateDecorator@@@@6B@
CONST	SEGMENT
??_7?$CDynamicPoolEx@VCHeaderDecorator@NEffectUpdateDecorator@@@@6B@ DD FLAT:??_R4?$CDynamicPoolEx@VCHeaderDecorator@NEffectUpdateDecorator@@@@6B@ ; CDynamicPoolEx<NEffectUpdateDecorator::CHeaderDecorator>::`vftable'
	DD	FLAT:??_E?$CDynamicPoolEx@VCHeaderDecorator@NEffectUpdateDecorator@@@@UAEPAXI@Z
CONST	ENDS
;	COMDAT ??_R1A@?0A@EA@?$CDynamicPoolEx@VCRotationDecorator@NEffectUpdateDecorator@@@@8
rdata$r	SEGMENT
??_R1A@?0A@EA@?$CDynamicPoolEx@VCRotationDecorator@NEffectUpdateDecorator@@@@8 DD FLAT:??_R0?AV?$CDynamicPoolEx@VCRotationDecorator@NEffectUpdateDecorator@@@@@8 ; CDynamicPoolEx<NEffectUpdateDecorator::CRotationDecorator>::`RTTI Base Class Descriptor at (0,-1,0,64)'
	DD	00H
	DD	00H
	DD	0ffffffffH
	DD	00H
	DD	040H
	DD	FLAT:??_R3?$CDynamicPoolEx@VCRotationDecorator@NEffectUpdateDecorator@@@@8
rdata$r	ENDS
;	COMDAT ??_R2?$CDynamicPoolEx@VCRotationDecorator@NEffectUpdateDecorator@@@@8
rdata$r	SEGMENT
??_R2?$CDynamicPoolEx@VCRotationDecorator@NEffectUpdateDecorator@@@@8 DD FLAT:??_R1A@?0A@EA@?$CDynamicPoolEx@VCRotationDecorator@NEffectUpdateDecorator@@@@8 ; CDynamicPoolEx<NEffectUpdateDecorator::CRotationDecorator>::`RTTI Base Class Array'
rdata$r	ENDS
;	COMDAT ??_R3?$CDynamicPoolEx@VCRotationDecorator@NEffectUpdateDecorator@@@@8
rdata$r	SEGMENT
??_R3?$CDynamicPoolEx@VCRotationDecorator@NEffectUpdateDecorator@@@@8 DD 00H ; CDynamicPoolEx<NEffectUpdateDecorator::CRotationDecorator>::`RTTI Class Hierarchy Descriptor'
	DD	00H
	DD	01H
	DD	FLAT:??_R2?$CDynamicPoolEx@VCRotationDecorator@NEffectUpdateDecorator@@@@8
rdata$r	ENDS
;	COMDAT ??_R0?AV?$CDynamicPoolEx@VCRotationDecorator@NEffectUpdateDecorator@@@@@8
data$rs	SEGMENT
??_R0?AV?$CDynamicPoolEx@VCRotationDecorator@NEffectUpdateDecorator@@@@@8 DD FLAT:??_7type_info@@6B@ ; CDynamicPoolEx<NEffectUpdateDecorator::CRotationDecorator> `RTTI Type Descriptor'
	DD	00H
	DB	'.?AV?$CDynamicPoolEx@VCRotationDecorator@NEffectUpdateDe'
	DB	'corator@@@@', 00H
data$rs	ENDS
;	COMDAT ??_R4?$CDynamicPoolEx@VCRotationDecorator@NEffectUpdateDecorator@@@@6B@
rdata$r	SEGMENT
??_R4?$CDynamicPoolEx@VCRotationDecorator@NEffectUpdateDecorator@@@@6B@ DD 00H ; CDynamicPoolEx<NEffectUpdateDecorator::CRotationDecorator>::`RTTI Complete Object Locator'
	DD	00H
	DD	00H
	DD	FLAT:??_R0?AV?$CDynamicPoolEx@VCRotationDecorator@NEffectUpdateDecorator@@@@@8
	DD	FLAT:??_R3?$CDynamicPoolEx@VCRotationDecorator@NEffectUpdateDecorator@@@@8
rdata$r	ENDS
;	COMDAT ??_R1A@?0A@EA@?$CDynamicPoolEx@VCGravityDecorator@NEffectUpdateDecorator@@@@8
rdata$r	SEGMENT
??_R1A@?0A@EA@?$CDynamicPoolEx@VCGravityDecorator@NEffectUpdateDecorator@@@@8 DD FLAT:??_R0?AV?$CDynamicPoolEx@VCGravityDecorator@NEffectUpdateDecorator@@@@@8 ; CDynamicPoolEx<NEffectUpdateDecorator::CGravityDecorator>::`RTTI Base Class Descriptor at (0,-1,0,64)'
	DD	00H
	DD	00H
	DD	0ffffffffH
	DD	00H
	DD	040H
	DD	FLAT:??_R3?$CDynamicPoolEx@VCGravityDecorator@NEffectUpdateDecorator@@@@8
rdata$r	ENDS
;	COMDAT ??_R2?$CDynamicPoolEx@VCGravityDecorator@NEffectUpdateDecorator@@@@8
rdata$r	SEGMENT
??_R2?$CDynamicPoolEx@VCGravityDecorator@NEffectUpdateDecorator@@@@8 DD FLAT:??_R1A@?0A@EA@?$CDynamicPoolEx@VCGravityDecorator@NEffectUpdateDecorator@@@@8 ; CDynamicPoolEx<NEffectUpdateDecorator::CGravityDecorator>::`RTTI Base Class Array'
rdata$r	ENDS
;	COMDAT ??_R3?$CDynamicPoolEx@VCGravityDecorator@NEffectUpdateDecorator@@@@8
rdata$r	SEGMENT
??_R3?$CDynamicPoolEx@VCGravityDecorator@NEffectUpdateDecorator@@@@8 DD 00H ; CDynamicPoolEx<NEffectUpdateDecorator::CGravityDecorator>::`RTTI Class Hierarchy Descriptor'
	DD	00H
	DD	01H
	DD	FLAT:??_R2?$CDynamicPoolEx@VCGravityDecorator@NEffectUpdateDecorator@@@@8
rdata$r	ENDS
;	COMDAT ??_R0?AV?$CDynamicPoolEx@VCGravityDecorator@NEffectUpdateDecorator@@@@@8
data$rs	SEGMENT
??_R0?AV?$CDynamicPoolEx@VCGravityDecorator@NEffectUpdateDecorator@@@@@8 DD FLAT:??_7type_info@@6B@ ; CDynamicPoolEx<NEffectUpdateDecorator::CGravityDecorator> `RTTI Type Descriptor'
	DD	00H
	DB	'.?AV?$CDynamicPoolEx@VCGravityDecorator@NEffectUpdateDec'
	DB	'orator@@@@', 00H
data$rs	ENDS
;	COMDAT ??_R4?$CDynamicPoolEx@VCGravityDecorator@NEffectUpdateDecorator@@@@6B@
rdata$r	SEGMENT
??_R4?$CDynamicPoolEx@VCGravityDecorator@NEffectUpdateDecorator@@@@6B@ DD 00H ; CDynamicPoolEx<NEffectUpdateDecorator::CGravityDecorator>::`RTTI Complete Object Locator'
	DD	00H
	DD	00H
	DD	FLAT:??_R0?AV?$CDynamicPoolEx@VCGravityDecorator@NEffectUpdateDecorator@@@@@8
	DD	FLAT:??_R3?$CDynamicPoolEx@VCGravityDecorator@NEffectUpdateDecorator@@@@8
rdata$r	ENDS
;	COMDAT ??_R1A@?0A@EA@?$CDynamicPoolEx@VCAirResistanceDecorator@NEffectUpdateDecorator@@@@8
rdata$r	SEGMENT
??_R1A@?0A@EA@?$CDynamicPoolEx@VCAirResistanceDecorator@NEffectUpdateDecorator@@@@8 DD FLAT:??_R0?AV?$CDynamicPoolEx@VCAirResistanceDecorator@NEffectUpdateDecorator@@@@@8 ; CDynamicPoolEx<NEffectUpdateDecorator::CAirResistanceDecorator>::`RTTI Base Class Descriptor at (0,-1,0,64)'
	DD	00H
	DD	00H
	DD	0ffffffffH
	DD	00H
	DD	040H
	DD	FLAT:??_R3?$CDynamicPoolEx@VCAirResistanceDecorator@NEffectUpdateDecorator@@@@8
rdata$r	ENDS
;	COMDAT ??_R2?$CDynamicPoolEx@VCAirResistanceDecorator@NEffectUpdateDecorator@@@@8
rdata$r	SEGMENT
??_R2?$CDynamicPoolEx@VCAirResistanceDecorator@NEffectUpdateDecorator@@@@8 DD FLAT:??_R1A@?0A@EA@?$CDynamicPoolEx@VCAirResistanceDecorator@NEffectUpdateDecorator@@@@8 ; CDynamicPoolEx<NEffectUpdateDecorator::CAirResistanceDecorator>::`RTTI Base Class Array'
rdata$r	ENDS
;	COMDAT ??_R3?$CDynamicPoolEx@VCAirResistanceDecorator@NEffectUpdateDecorator@@@@8
rdata$r	SEGMENT
??_R3?$CDynamicPoolEx@VCAirResistanceDecorator@NEffectUpdateDecorator@@@@8 DD 00H ; CDynamicPoolEx<NEffectUpdateDecorator::CAirResistanceDecorator>::`RTTI Class Hierarchy Descriptor'
	DD	00H
	DD	01H
	DD	FLAT:??_R2?$CDynamicPoolEx@VCAirResistanceDecorator@NEffectUpdateDecorator@@@@8
rdata$r	ENDS
;	COMDAT ??_R0?AV?$CDynamicPoolEx@VCAirResistanceDecorator@NEffectUpdateDecorator@@@@@8
data$rs	SEGMENT
??_R0?AV?$CDynamicPoolEx@VCAirResistanceDecorator@NEffectUpdateDecorator@@@@@8 DD FLAT:??_7type_info@@6B@ ; CDynamicPoolEx<NEffectUpdateDecorator::CAirResistanceDecorator> `RTTI Type Descriptor'
	DD	00H
	DB	'.?AV?$CDynamicPoolEx@VCAirResistanceDecorator@NEffectUpd'
	DB	'ateDecorator@@@@', 00H
data$rs	ENDS
;	COMDAT ??_R4?$CDynamicPoolEx@VCAirResistanceDecorator@NEffectUpdateDecorator@@@@6B@
rdata$r	SEGMENT
??_R4?$CDynamicPoolEx@VCAirResistanceDecorator@NEffectUpdateDecorator@@@@6B@ DD 00H ; CDynamicPoolEx<NEffectUpdateDecorator::CAirResistanceDecorator>::`RTTI Complete Object Locator'
	DD	00H
	DD	00H
	DD	FLAT:??_R0?AV?$CDynamicPoolEx@VCAirResistanceDecorator@NEffectUpdateDecorator@@@@@8
	DD	FLAT:??_R3?$CDynamicPoolEx@VCAirResistanceDecorator@NEffectUpdateDecorator@@@@8
rdata$r	ENDS
;	COMDAT ??_R1A@?0A@EA@?$CDynamicPoolEx@VCTextureAnimationRandomDecorator@NEffectUpdateDecorator@@@@8
rdata$r	SEGMENT
??_R1A@?0A@EA@?$CDynamicPoolEx@VCTextureAnimationRandomDecorator@NEffectUpdateDecorator@@@@8 DD FLAT:??_R0?AV?$CDynamicPoolEx@VCTextureAnimationRandomDecorator@NEffectUpdateDecorator@@@@@8 ; CDynamicPoolEx<NEffectUpdateDecorator::CTextureAnimationRandomDecorator>::`RTTI Base Class Descriptor at (0,-1,0,64)'
	DD	00H
	DD	00H
	DD	0ffffffffH
	DD	00H
	DD	040H
	DD	FLAT:??_R3?$CDynamicPoolEx@VCTextureAnimationRandomDecorator@NEffectUpdateDecorator@@@@8
rdata$r	ENDS
;	COMDAT ??_R2?$CDynamicPoolEx@VCTextureAnimationRandomDecorator@NEffectUpdateDecorator@@@@8
rdata$r	SEGMENT
??_R2?$CDynamicPoolEx@VCTextureAnimationRandomDecorator@NEffectUpdateDecorator@@@@8 DD FLAT:??_R1A@?0A@EA@?$CDynamicPoolEx@VCTextureAnimationRandomDecorator@NEffectUpdateDecorator@@@@8 ; CDynamicPoolEx<NEffectUpdateDecorator::CTextureAnimationRandomDecorator>::`RTTI Base Class Array'
rdata$r	ENDS
;	COMDAT ??_R3?$CDynamicPoolEx@VCTextureAnimationRandomDecorator@NEffectUpdateDecorator@@@@8
rdata$r	SEGMENT
??_R3?$CDynamicPoolEx@VCTextureAnimationRandomDecorator@NEffectUpdateDecorator@@@@8 DD 00H ; CDynamicPoolEx<NEffectUpdateDecorator::CTextureAnimationRandomDecorator>::`RTTI Class Hierarchy Descriptor'
	DD	00H
	DD	01H
	DD	FLAT:??_R2?$CDynamicPoolEx@VCTextureAnimationRandomDecorator@NEffectUpdateDecorator@@@@8
rdata$r	ENDS
;	COMDAT ??_R0?AV?$CDynamicPoolEx@VCTextureAnimationRandomDecorator@NEffectUpdateDecorator@@@@@8
data$rs	SEGMENT
??_R0?AV?$CDynamicPoolEx@VCTextureAnimationRandomDecorator@NEffectUpdateDecorator@@@@@8 DD FLAT:??_7type_info@@6B@ ; CDynamicPoolEx<NEffectUpdateDecorator::CTextureAnimationRandomDecorator> `RTTI Type Descriptor'
	DD	00H
	DB	'.?AV?$CDynamicPoolEx@VCTextureAnimationRandomDecorator@N'
	DB	'EffectUpdateDecorator@@@@', 00H
data$rs	ENDS
;	COMDAT ??_R4?$CDynamicPoolEx@VCTextureAnimationRandomDecorator@NEffectUpdateDecorator@@@@6B@
rdata$r	SEGMENT
??_R4?$CDynamicPoolEx@VCTextureAnimationRandomDecorator@NEffectUpdateDecorator@@@@6B@ DD 00H ; CDynamicPoolEx<NEffectUpdateDecorator::CTextureAnimationRandomDecorator>::`RTTI Complete Object Locator'
	DD	00H
	DD	00H
	DD	FLAT:??_R0?AV?$CDynamicPoolEx@VCTextureAnimationRandomDecorator@NEffectUpdateDecorator@@@@@8
	DD	FLAT:??_R3?$CDynamicPoolEx@VCTextureAnimationRandomDecorator@NEffectUpdateDecorator@@@@8
rdata$r	ENDS
;	COMDAT ??_R1A@?0A@EA@?$CDynamicPoolEx@VCTextureAnimationCCWDecorator@NEffectUpdateDecorator@@@@8
rdata$r	SEGMENT
??_R1A@?0A@EA@?$CDynamicPoolEx@VCTextureAnimationCCWDecorator@NEffectUpdateDecorator@@@@8 DD FLAT:??_R0?AV?$CDynamicPoolEx@VCTextureAnimationCCWDecorator@NEffectUpdateDecorator@@@@@8 ; CDynamicPoolEx<NEffectUpdateDecorator::CTextureAnimationCCWDecorator>::`RTTI Base Class Descriptor at (0,-1,0,64)'
	DD	00H
	DD	00H
	DD	0ffffffffH
	DD	00H
	DD	040H
	DD	FLAT:??_R3?$CDynamicPoolEx@VCTextureAnimationCCWDecorator@NEffectUpdateDecorator@@@@8
rdata$r	ENDS
;	COMDAT ??_R2?$CDynamicPoolEx@VCTextureAnimationCCWDecorator@NEffectUpdateDecorator@@@@8
rdata$r	SEGMENT
??_R2?$CDynamicPoolEx@VCTextureAnimationCCWDecorator@NEffectUpdateDecorator@@@@8 DD FLAT:??_R1A@?0A@EA@?$CDynamicPoolEx@VCTextureAnimationCCWDecorator@NEffectUpdateDecorator@@@@8 ; CDynamicPoolEx<NEffectUpdateDecorator::CTextureAnimationCCWDecorator>::`RTTI Base Class Array'
rdata$r	ENDS
;	COMDAT ??_R3?$CDynamicPoolEx@VCTextureAnimationCCWDecorator@NEffectUpdateDecorator@@@@8
rdata$r	SEGMENT
??_R3?$CDynamicPoolEx@VCTextureAnimationCCWDecorator@NEffectUpdateDecorator@@@@8 DD 00H ; CDynamicPoolEx<NEffectUpdateDecorator::CTextureAnimationCCWDecorator>::`RTTI Class Hierarchy Descriptor'
	DD	00H
	DD	01H
	DD	FLAT:??_R2?$CDynamicPoolEx@VCTextureAnimationCCWDecorator@NEffectUpdateDecorator@@@@8
rdata$r	ENDS
;	COMDAT ??_R0?AV?$CDynamicPoolEx@VCTextureAnimationCCWDecorator@NEffectUpdateDecorator@@@@@8
data$rs	SEGMENT
??_R0?AV?$CDynamicPoolEx@VCTextureAnimationCCWDecorator@NEffectUpdateDecorator@@@@@8 DD FLAT:??_7type_info@@6B@ ; CDynamicPoolEx<NEffectUpdateDecorator::CTextureAnimationCCWDecorator> `RTTI Type Descriptor'
	DD	00H
	DB	'.?AV?$CDynamicPoolEx@VCTextureAnimationCCWDecorator@NEff'
	DB	'ectUpdateDecorator@@@@', 00H
data$rs	ENDS
;	COMDAT ??_R4?$CDynamicPoolEx@VCTextureAnimationCCWDecorator@NEffectUpdateDecorator@@@@6B@
rdata$r	SEGMENT
??_R4?$CDynamicPoolEx@VCTextureAnimationCCWDecorator@NEffectUpdateDecorator@@@@6B@ DD 00H ; CDynamicPoolEx<NEffectUpdateDecorator::CTextureAnimationCCWDecorator>::`RTTI Complete Object Locator'
	DD	00H
	DD	00H
	DD	FLAT:??_R0?AV?$CDynamicPoolEx@VCTextureAnimationCCWDecorator@NEffectUpdateDecorator@@@@@8
	DD	FLAT:??_R3?$CDynamicPoolEx@VCTextureAnimationCCWDecorator@NEffectUpdateDecorator@@@@8
rdata$r	ENDS
;	COMDAT ??_R1A@?0A@EA@?$CDynamicPoolEx@VCTextureAnimationCWDecorator@NEffectUpdateDecorator@@@@8
rdata$r	SEGMENT
??_R1A@?0A@EA@?$CDynamicPoolEx@VCTextureAnimationCWDecorator@NEffectUpdateDecorator@@@@8 DD FLAT:??_R0?AV?$CDynamicPoolEx@VCTextureAnimationCWDecorator@NEffectUpdateDecorator@@@@@8 ; CDynamicPoolEx<NEffectUpdateDecorator::CTextureAnimationCWDecorator>::`RTTI Base Class Descriptor at (0,-1,0,64)'
	DD	00H
	DD	00H
	DD	0ffffffffH
	DD	00H
	DD	040H
	DD	FLAT:??_R3?$CDynamicPoolEx@VCTextureAnimationCWDecorator@NEffectUpdateDecorator@@@@8
rdata$r	ENDS
;	COMDAT ??_R2?$CDynamicPoolEx@VCTextureAnimationCWDecorator@NEffectUpdateDecorator@@@@8
rdata$r	SEGMENT
??_R2?$CDynamicPoolEx@VCTextureAnimationCWDecorator@NEffectUpdateDecorator@@@@8 DD FLAT:??_R1A@?0A@EA@?$CDynamicPoolEx@VCTextureAnimationCWDecorator@NEffectUpdateDecorator@@@@8 ; CDynamicPoolEx<NEffectUpdateDecorator::CTextureAnimationCWDecorator>::`RTTI Base Class Array'
rdata$r	ENDS
;	COMDAT ??_R3?$CDynamicPoolEx@VCTextureAnimationCWDecorator@NEffectUpdateDecorator@@@@8
rdata$r	SEGMENT
??_R3?$CDynamicPoolEx@VCTextureAnimationCWDecorator@NEffectUpdateDecorator@@@@8 DD 00H ; CDynamicPoolEx<NEffectUpdateDecorator::CTextureAnimationCWDecorator>::`RTTI Class Hierarchy Descriptor'
	DD	00H
	DD	01H
	DD	FLAT:??_R2?$CDynamicPoolEx@VCTextureAnimationCWDecorator@NEffectUpdateDecorator@@@@8
rdata$r	ENDS
;	COMDAT ??_R0?AV?$CDynamicPoolEx@VCTextureAnimationCWDecorator@NEffectUpdateDecorator@@@@@8
data$rs	SEGMENT
??_R0?AV?$CDynamicPoolEx@VCTextureAnimationCWDecorator@NEffectUpdateDecorator@@@@@8 DD FLAT:??_7type_info@@6B@ ; CDynamicPoolEx<NEffectUpdateDecorator::CTextureAnimationCWDecorator> `RTTI Type Descriptor'
	DD	00H
	DB	'.?AV?$CDynamicPoolEx@VCTextureAnimationCWDecorator@NEffe'
	DB	'ctUpdateDecorator@@@@', 00H
data$rs	ENDS
;	COMDAT ??_R4?$CDynamicPoolEx@VCTextureAnimationCWDecorator@NEffectUpdateDecorator@@@@6B@
rdata$r	SEGMENT
??_R4?$CDynamicPoolEx@VCTextureAnimationCWDecorator@NEffectUpdateDecorator@@@@6B@ DD 00H ; CDynamicPoolEx<NEffectUpdateDecorator::CTextureAnimationCWDecorator>::`RTTI Complete Object Locator'
	DD	00H
	DD	00H
	DD	FLAT:??_R0?AV?$CDynamicPoolEx@VCTextureAnimationCWDecorator@NEffectUpdateDecorator@@@@@8
	DD	FLAT:??_R3?$CDynamicPoolEx@VCTextureAnimationCWDecorator@NEffectUpdateDecorator@@@@8
rdata$r	ENDS
;	COMDAT ??_R1A@?0A@EA@?$CDynamicPoolEx@VCNullDecorator@NEffectUpdateDecorator@@@@8
rdata$r	SEGMENT
??_R1A@?0A@EA@?$CDynamicPoolEx@VCNullDecorator@NEffectUpdateDecorator@@@@8 DD FLAT:??_R0?AV?$CDynamicPoolEx@VCNullDecorator@NEffectUpdateDecorator@@@@@8 ; CDynamicPoolEx<NEffectUpdateDecorator::CNullDecorator>::`RTTI Base Class Descriptor at (0,-1,0,64)'
	DD	00H
	DD	00H
	DD	0ffffffffH
	DD	00H
	DD	040H
	DD	FLAT:??_R3?$CDynamicPoolEx@VCNullDecorator@NEffectUpdateDecorator@@@@8
rdata$r	ENDS
;	COMDAT ??_R2?$CDynamicPoolEx@VCNullDecorator@NEffectUpdateDecorator@@@@8
rdata$r	SEGMENT
??_R2?$CDynamicPoolEx@VCNullDecorator@NEffectUpdateDecorator@@@@8 DD FLAT:??_R1A@?0A@EA@?$CDynamicPoolEx@VCNullDecorator@NEffectUpdateDecorator@@@@8 ; CDynamicPoolEx<NEffectUpdateDecorator::CNullDecorator>::`RTTI Base Class Array'
rdata$r	ENDS
;	COMDAT ??_R3?$CDynamicPoolEx@VCNullDecorator@NEffectUpdateDecorator@@@@8
rdata$r	SEGMENT
??_R3?$CDynamicPoolEx@VCNullDecorator@NEffectUpdateDecorator@@@@8 DD 00H ; CDynamicPoolEx<NEffectUpdateDecorator::CNullDecorator>::`RTTI Class Hierarchy Descriptor'
	DD	00H
	DD	01H
	DD	FLAT:??_R2?$CDynamicPoolEx@VCNullDecorator@NEffectUpdateDecorator@@@@8
rdata$r	ENDS
;	COMDAT ??_R0?AV?$CDynamicPoolEx@VCNullDecorator@NEffectUpdateDecorator@@@@@8
data$rs	SEGMENT
??_R0?AV?$CDynamicPoolEx@VCNullDecorator@NEffectUpdateDecorator@@@@@8 DD FLAT:??_7type_info@@6B@ ; CDynamicPoolEx<NEffectUpdateDecorator::CNullDecorator> `RTTI Type Descriptor'
	DD	00H
	DB	'.?AV?$CDynamicPoolEx@VCNullDecorator@NEffectUpdateDecora'
	DB	'tor@@@@', 00H
data$rs	ENDS
;	COMDAT ??_R4?$CDynamicPoolEx@VCNullDecorator@NEffectUpdateDecorator@@@@6B@
rdata$r	SEGMENT
??_R4?$CDynamicPoolEx@VCNullDecorator@NEffectUpdateDecorator@@@@6B@ DD 00H ; CDynamicPoolEx<NEffectUpdateDecorator::CNullDecorator>::`RTTI Complete Object Locator'
	DD	00H
	DD	00H
	DD	FLAT:??_R0?AV?$CDynamicPoolEx@VCNullDecorator@NEffectUpdateDecorator@@@@@8
	DD	FLAT:??_R3?$CDynamicPoolEx@VCNullDecorator@NEffectUpdateDecorator@@@@8
rdata$r	ENDS
;	COMDAT ??_R1A@?0A@EA@?$CDynamicPoolEx@VCHeaderDecorator@NEffectUpdateDecorator@@@@8
rdata$r	SEGMENT
??_R1A@?0A@EA@?$CDynamicPoolEx@VCHeaderDecorator@NEffectUpdateDecorator@@@@8 DD FLAT:??_R0?AV?$CDynamicPoolEx@VCHeaderDecorator@NEffectUpdateDecorator@@@@@8 ; CDynamicPoolEx<NEffectUpdateDecorator::CHeaderDecorator>::`RTTI Base Class Descriptor at (0,-1,0,64)'
	DD	00H
	DD	00H
	DD	0ffffffffH
	DD	00H
	DD	040H
	DD	FLAT:??_R3?$CDynamicPoolEx@VCHeaderDecorator@NEffectUpdateDecorator@@@@8
rdata$r	ENDS
;	COMDAT ??_R2?$CDynamicPoolEx@VCHeaderDecorator@NEffectUpdateDecorator@@@@8
rdata$r	SEGMENT
??_R2?$CDynamicPoolEx@VCHeaderDecorator@NEffectUpdateDecorator@@@@8 DD FLAT:??_R1A@?0A@EA@?$CDynamicPoolEx@VCHeaderDecorator@NEffectUpdateDecorator@@@@8 ; CDynamicPoolEx<NEffectUpdateDecorator::CHeaderDecorator>::`RTTI Base Class Array'
rdata$r	ENDS
;	COMDAT ??_R3?$CDynamicPoolEx@VCHeaderDecorator@NEffectUpdateDecorator@@@@8
rdata$r	SEGMENT
??_R3?$CDynamicPoolEx@VCHeaderDecorator@NEffectUpdateDecorator@@@@8 DD 00H ; CDynamicPoolEx<NEffectUpdateDecorator::CHeaderDecorator>::`RTTI Class Hierarchy Descriptor'
	DD	00H
	DD	01H
	DD	FLAT:??_R2?$CDynamicPoolEx@VCHeaderDecorator@NEffectUpdateDecorator@@@@8
rdata$r	ENDS
;	COMDAT ??_R0?AV?$CDynamicPoolEx@VCHeaderDecorator@NEffectUpdateDecorator@@@@@8
data$rs	SEGMENT
??_R0?AV?$CDynamicPoolEx@VCHeaderDecorator@NEffectUpdateDecorator@@@@@8 DD FLAT:??_7type_info@@6B@ ; CDynamicPoolEx<NEffectUpdateDecorator::CHeaderDecorator> `RTTI Type Descriptor'
	DD	00H
	DB	'.?AV?$CDynamicPoolEx@VCHeaderDecorator@NEffectUpdateDeco'
	DB	'rator@@@@', 00H
data$rs	ENDS
;	COMDAT ??_R4?$CDynamicPoolEx@VCHeaderDecorator@NEffectUpdateDecorator@@@@6B@
rdata$r	SEGMENT
??_R4?$CDynamicPoolEx@VCHeaderDecorator@NEffectUpdateDecorator@@@@6B@ DD 00H ; CDynamicPoolEx<NEffectUpdateDecorator::CHeaderDecorator>::`RTTI Complete Object Locator'
	DD	00H
	DD	00H
	DD	FLAT:??_R0?AV?$CDynamicPoolEx@VCHeaderDecorator@NEffectUpdateDecorator@@@@@8
	DD	FLAT:??_R3?$CDynamicPoolEx@VCHeaderDecorator@NEffectUpdateDecorator@@@@8
rdata$r	ENDS
;	COMDAT ??_7?$CDynamicPoolEx@VCNullDecorator@NEffectUpdateDecorator@@@@6B@
CONST	SEGMENT
??_7?$CDynamicPoolEx@VCNullDecorator@NEffectUpdateDecorator@@@@6B@ DD FLAT:??_R4?$CDynamicPoolEx@VCNullDecorator@NEffectUpdateDecorator@@@@6B@ ; CDynamicPoolEx<NEffectUpdateDecorator::CNullDecorator>::`vftable'
	DD	FLAT:??_E?$CDynamicPoolEx@VCNullDecorator@NEffectUpdateDecorator@@@@UAEPAXI@Z
CONST	ENDS
;	COMDAT ??_7?$CDynamicPoolEx@VCTextureAnimationCWDecorator@NEffectUpdateDecorator@@@@6B@
CONST	SEGMENT
??_7?$CDynamicPoolEx@VCTextureAnimationCWDecorator@NEffectUpdateDecorator@@@@6B@ DD FLAT:??_R4?$CDynamicPoolEx@VCTextureAnimationCWDecorator@NEffectUpdateDecorator@@@@6B@ ; CDynamicPoolEx<NEffectUpdateDecorator::CTextureAnimationCWDecorator>::`vftable'
	DD	FLAT:??_E?$CDynamicPoolEx@VCTextureAnimationCWDecorator@NEffectUpdateDecorator@@@@UAEPAXI@Z
CONST	ENDS
;	COMDAT ??_7?$CDynamicPoolEx@VCTextureAnimationCCWDecorator@NEffectUpdateDecorator@@@@6B@
CONST	SEGMENT
??_7?$CDynamicPoolEx@VCTextureAnimationCCWDecorator@NEffectUpdateDecorator@@@@6B@ DD FLAT:??_R4?$CDynamicPoolEx@VCTextureAnimationCCWDecorator@NEffectUpdateDecorator@@@@6B@ ; CDynamicPoolEx<NEffectUpdateDecorator::CTextureAnimationCCWDecorator>::`vftable'
	DD	FLAT:??_E?$CDynamicPoolEx@VCTextureAnimationCCWDecorator@NEffectUpdateDecorator@@@@UAEPAXI@Z
CONST	ENDS
;	COMDAT ??_7?$CDynamicPoolEx@VCTextureAnimationRandomDecorator@NEffectUpdateDecorator@@@@6B@
CONST	SEGMENT
??_7?$CDynamicPoolEx@VCTextureAnimationRandomDecorator@NEffectUpdateDecorator@@@@6B@ DD FLAT:??_R4?$CDynamicPoolEx@VCTextureAnimationRandomDecorator@NEffectUpdateDecorator@@@@6B@ ; CDynamicPoolEx<NEffectUpdateDecorator::CTextureAnimationRandomDecorator>::`vftable'
	DD	FLAT:??_E?$CDynamicPoolEx@VCTextureAnimationRandomDecorator@NEffectUpdateDecorator@@@@UAEPAXI@Z
CONST	ENDS
;	COMDAT ??_7?$CDynamicPoolEx@VCAirResistanceDecorator@NEffectUpdateDecorator@@@@6B@
CONST	SEGMENT
??_7?$CDynamicPoolEx@VCAirResistanceDecorator@NEffectUpdateDecorator@@@@6B@ DD FLAT:??_R4?$CDynamicPoolEx@VCAirResistanceDecorator@NEffectUpdateDecorator@@@@6B@ ; CDynamicPoolEx<NEffectUpdateDecorator::CAirResistanceDecorator>::`vftable'
	DD	FLAT:??_E?$CDynamicPoolEx@VCAirResistanceDecorator@NEffectUpdateDecorator@@@@UAEPAXI@Z
CONST	ENDS
PUBLIC	??_H@YGXPAXIIP6EPAX0@Z@Z			; `vector constructor iterator'
PUBLIC	?__empty_global_delete@@YAXPAX@Z		; __empty_global_delete
PUBLIC	?__empty_global_delete@@YAXPAXI@Z		; __empty_global_delete
PUBLIC	??0SItemPos@@QAE@XZ				; SItemPos::SItemPos
PUBLIC	?IsEquipCell@SItemPos@@QAE_NXZ			; SItemPos::IsEquipCell
PUBLIC	??$_Deallocate@$07$0A@@std@@YAXPAXI@Z		; std::_Deallocate<8,0>
PUBLIC	?SendItemUsePacket@CPythonNetworkStream@@QAE_NUSItemPos@@@Z ; CPythonNetworkStream::SendItemUsePacket
PUBLIC	?SendItemUseToItemPacket@CPythonNetworkStream@@QAE_NUSItemPos@@0@Z ; CPythonNetworkStream::SendItemUseToItemPacket
PUBLIC	?SendItemDropPacket@CPythonNetworkStream@@QAE_NUSItemPos@@K@Z ; CPythonNetworkStream::SendItemDropPacket
PUBLIC	?SendItemDropPacketNew@CPythonNetworkStream@@QAE_NUSItemPos@@KK@Z ; CPythonNetworkStream::SendItemDropPacketNew
PUBLIC	?SendItemMovePacket@CPythonNetworkStream@@QAE_NUSItemPos@@0E@Z ; CPythonNetworkStream::SendItemMovePacket
PUBLIC	?SendItemPickUpPacket@CPythonNetworkStream@@QAE_NK@Z ; CPythonNetworkStream::SendItemPickUpPacket
PUBLIC	?SendQuickSlotAddPacket@CPythonNetworkStream@@QAE_NEEE@Z ; CPythonNetworkStream::SendQuickSlotAddPacket
PUBLIC	?SendQuickSlotDelPacket@CPythonNetworkStream@@QAE_NE@Z ; CPythonNetworkStream::SendQuickSlotDelPacket
PUBLIC	?SendQuickSlotMovePacket@CPythonNetworkStream@@QAE_NEE@Z ; CPythonNetworkStream::SendQuickSlotMovePacket
PUBLIC	?SendShopEndPacket@CPythonNetworkStream@@QAE_NXZ ; CPythonNetworkStream::SendShopEndPacket
PUBLIC	?SendShopBuyPacket@CPythonNetworkStream@@QAE_NE@Z ; CPythonNetworkStream::SendShopBuyPacket
PUBLIC	?SendShopSellPacket@CPythonNetworkStream@@QAE_NE@Z ; CPythonNetworkStream::SendShopSellPacket
PUBLIC	?SendShopSellPacketNew@CPythonNetworkStream@@QAE_NEE@Z ; CPythonNetworkStream::SendShopSellPacketNew
PUBLIC	?SendSafeBoxMoneyPacket@CPythonNetworkStream@@QAE_NEK@Z ; CPythonNetworkStream::SendSafeBoxMoneyPacket
PUBLIC	?SendSafeBoxCheckinPacket@CPythonNetworkStream@@QAE_NUSItemPos@@E@Z ; CPythonNetworkStream::SendSafeBoxCheckinPacket
PUBLIC	?SendSafeBoxCheckoutPacket@CPythonNetworkStream@@QAE_NEUSItemPos@@@Z ; CPythonNetworkStream::SendSafeBoxCheckoutPacket
PUBLIC	?SendSafeBoxItemMovePacket@CPythonNetworkStream@@QAE_NEEE@Z ; CPythonNetworkStream::SendSafeBoxItemMovePacket
PUBLIC	?SendMallCheckoutPacket@CPythonNetworkStream@@QAE_NEUSItemPos@@@Z ; CPythonNetworkStream::SendMallCheckoutPacket
PUBLIC	?RecvMallOpenPacket@CPythonNetworkStream@@QAE_NXZ ; CPythonNetworkStream::RecvMallOpenPacket
PUBLIC	?RecvMallItemSetPacket@CPythonNetworkStream@@QAE_NXZ ; CPythonNetworkStream::RecvMallItemSetPacket
PUBLIC	?RecvMallItemDelPacket@CPythonNetworkStream@@QAE_NXZ ; CPythonNetworkStream::RecvMallItemDelPacket
PUBLIC	?__PlayInventoryItemUseSound@CPythonNetworkStream@@IAEXUSItemPos@@@Z ; CPythonNetworkStream::__PlayInventoryItemUseSound
PUBLIC	?__PlayInventoryItemDropSound@CPythonNetworkStream@@IAEXUSItemPos@@@Z ; CPythonNetworkStream::__PlayInventoryItemDropSound
PUBLIC	?__PlaySafeBoxItemDropSound@CPythonNetworkStream@@IAEXI@Z ; CPythonNetworkStream::__PlaySafeBoxItemDropSound
PUBLIC	?__PlayMallItemDropSound@CPythonNetworkStream@@IAEXI@Z ; CPythonNetworkStream::__PlayMallItemDropSound
PUBLIC	?RecvItemSetPacket@CPythonNetworkStream@@IAE_NXZ ; CPythonNetworkStream::RecvItemSetPacket
PUBLIC	?RecvItemSetPacket2@CPythonNetworkStream@@IAE_NXZ ; CPythonNetworkStream::RecvItemSetPacket2
PUBLIC	?RecvItemUsePacket@CPythonNetworkStream@@IAE_NXZ ; CPythonNetworkStream::RecvItemUsePacket
PUBLIC	?RecvItemUpdatePacket@CPythonNetworkStream@@IAE_NXZ ; CPythonNetworkStream::RecvItemUpdatePacket
PUBLIC	?RecvItemGroundAddPacket@CPythonNetworkStream@@IAE_NXZ ; CPythonNetworkStream::RecvItemGroundAddPacket
PUBLIC	?RecvItemGroundDelPacket@CPythonNetworkStream@@IAE_NXZ ; CPythonNetworkStream::RecvItemGroundDelPacket
PUBLIC	?RecvItemOwnership@CPythonNetworkStream@@IAE_NXZ ; CPythonNetworkStream::RecvItemOwnership
PUBLIC	?RecvQuickSlotAddPacket@CPythonNetworkStream@@IAE_NXZ ; CPythonNetworkStream::RecvQuickSlotAddPacket
PUBLIC	?RecvQuickSlotDelPacket@CPythonNetworkStream@@IAE_NXZ ; CPythonNetworkStream::RecvQuickSlotDelPacket
PUBLIC	?RecvQuickSlotMovePacket@CPythonNetworkStream@@IAE_NXZ ; CPythonNetworkStream::RecvQuickSlotMovePacket
PUBLIC	?RecvSafeBoxSetPacket@CPythonNetworkStream@@IAE_NXZ ; CPythonNetworkStream::RecvSafeBoxSetPacket
PUBLIC	?RecvSafeBoxDelPacket@CPythonNetworkStream@@IAE_NXZ ; CPythonNetworkStream::RecvSafeBoxDelPacket
PUBLIC	?RecvSafeBoxWrongPasswordPacket@CPythonNetworkStream@@IAE_NXZ ; CPythonNetworkStream::RecvSafeBoxWrongPasswordPacket
PUBLIC	?RecvSafeBoxSizePacket@CPythonNetworkStream@@IAE_NXZ ; CPythonNetworkStream::RecvSafeBoxSizePacket
PUBLIC	?RecvSafeBoxMoneyChangePacket@CPythonNetworkStream@@IAE_NXZ ; CPythonNetworkStream::RecvSafeBoxMoneyChangePacket
PUBLIC	?RecvSpecialEffect@CPythonNetworkStream@@IAE_NXZ ; CPythonNetworkStream::RecvSpecialEffect
PUBLIC	?RecvSpecificEffect@CPythonNetworkStream@@IAE_NXZ ; CPythonNetworkStream::RecvSpecificEffect
PUBLIC	?RecvDragonSoulRefine@CPythonNetworkStream@@IAE_NXZ ; CPythonNetworkStream::RecvDragonSoulRefine
PUBLIC	?__IsEquipItemInSlot@CPythonNetworkStream@@IAE_NUSItemPos@@@Z ; CPythonNetworkStream::__IsEquipItemInSlot
PUBLIC	??1?$CDynamicPoolEx@VCRotationDecorator@NEffectUpdateDecorator@@@@UAE@XZ ; CDynamicPoolEx<NEffectUpdateDecorator::CRotationDecorator>::~CDynamicPoolEx<NEffectUpdateDecorator::CRotationDecorator>
PUBLIC	?Delete@?$CDynamicPoolEx@VCRotationDecorator@NEffectUpdateDecorator@@@@KAXPAVCRotationDecorator@NEffectUpdateDecorator@@@Z ; CDynamicPoolEx<NEffectUpdateDecorator::CRotationDecorator>::Delete
PUBLIC	??1?$CDynamicPoolEx@VCGravityDecorator@NEffectUpdateDecorator@@@@UAE@XZ ; CDynamicPoolEx<NEffectUpdateDecorator::CGravityDecorator>::~CDynamicPoolEx<NEffectUpdateDecorator::CGravityDecorator>
PUBLIC	?Delete@?$CDynamicPoolEx@VCGravityDecorator@NEffectUpdateDecorator@@@@KAXPAVCGravityDecorator@NEffectUpdateDecorator@@@Z ; CDynamicPoolEx<NEffectUpdateDecorator::CGravityDecorator>::Delete
PUBLIC	??1?$CDynamicPoolEx@VCAirResistanceDecorator@NEffectUpdateDecorator@@@@UAE@XZ ; CDynamicPoolEx<NEffectUpdateDecorator::CAirResistanceDecorator>::~CDynamicPoolEx<NEffectUpdateDecorator::CAirResistanceDecorator>
PUBLIC	?Delete@?$CDynamicPoolEx@VCAirResistanceDecorator@NEffectUpdateDecorator@@@@KAXPAVCAirResistanceDecorator@NEffectUpdateDecorator@@@Z ; CDynamicPoolEx<NEffectUpdateDecorator::CAirResistanceDecorator>::Delete
PUBLIC	??1?$CDynamicPoolEx@VCTextureAnimationRandomDecorator@NEffectUpdateDecorator@@@@UAE@XZ ; CDynamicPoolEx<NEffectUpdateDecorator::CTextureAnimationRandomDecorator>::~CDynamicPoolEx<NEffectUpdateDecorator::CTextureAnimationRandomDecorator>
PUBLIC	?Delete@?$CDynamicPoolEx@VCTextureAnimationRandomDecorator@NEffectUpdateDecorator@@@@KAXPAVCTextureAnimationRandomDecorator@NEffectUpdateDecorator@@@Z ; CDynamicPoolEx<NEffectUpdateDecorator::CTextureAnimationRandomDecorator>::Delete
PUBLIC	??1?$CDynamicPoolEx@VCTextureAnimationCCWDecorator@NEffectUpdateDecorator@@@@UAE@XZ ; CDynamicPoolEx<NEffectUpdateDecorator::CTextureAnimationCCWDecorator>::~CDynamicPoolEx<NEffectUpdateDecorator::CTextureAnimationCCWDecorator>
PUBLIC	?Delete@?$CDynamicPoolEx@VCTextureAnimationCCWDecorator@NEffectUpdateDecorator@@@@KAXPAVCTextureAnimationCCWDecorator@NEffectUpdateDecorator@@@Z ; CDynamicPoolEx<NEffectUpdateDecorator::CTextureAnimationCCWDecorator>::Delete
PUBLIC	??1?$CDynamicPoolEx@VCTextureAnimationCWDecorator@NEffectUpdateDecorator@@@@UAE@XZ ; CDynamicPoolEx<NEffectUpdateDecorator::CTextureAnimationCWDecorator>::~CDynamicPoolEx<NEffectUpdateDecorator::CTextureAnimationCWDecorator>
PUBLIC	?Delete@?$CDynamicPoolEx@VCTextureAnimationCWDecorator@NEffectUpdateDecorator@@@@KAXPAVCTextureAnimationCWDecorator@NEffectUpdateDecorator@@@Z ; CDynamicPoolEx<NEffectUpdateDecorator::CTextureAnimationCWDecorator>::Delete
PUBLIC	??1?$CDynamicPoolEx@VCNullDecorator@NEffectUpdateDecorator@@@@UAE@XZ ; CDynamicPoolEx<NEffectUpdateDecorator::CNullDecorator>::~CDynamicPoolEx<NEffectUpdateDecorator::CNullDecorator>
PUBLIC	?Delete@?$CDynamicPoolEx@VCNullDecorator@NEffectUpdateDecorator@@@@KAXPAVCNullDecorator@NEffectUpdateDecorator@@@Z ; CDynamicPoolEx<NEffectUpdateDecorator::CNullDecorator>::Delete
PUBLIC	??1?$CDynamicPoolEx@VCHeaderDecorator@NEffectUpdateDecorator@@@@UAE@XZ ; CDynamicPoolEx<NEffectUpdateDecorator::CHeaderDecorator>::~CDynamicPoolEx<NEffectUpdateDecorator::CHeaderDecorator>
PUBLIC	?Delete@?$CDynamicPoolEx@VCHeaderDecorator@NEffectUpdateDecorator@@@@KAXPAVCHeaderDecorator@NEffectUpdateDecorator@@@Z ; CDynamicPoolEx<NEffectUpdateDecorator::CHeaderDecorator>::Delete
PUBLIC	??$_Destroy_range@V?$allocator@PAVCHeaderDecorator@NEffectUpdateDecorator@@@std@@@std@@YAXPAPAVCHeaderDecorator@NEffectUpdateDecorator@@QAPAV12@AAV?$allocator@PAVCHeaderDecorator@NEffectUpdateDecorator@@@0@@Z ; std::_Destroy_range<std::allocator<NEffectUpdateDecorator::CHeaderDecorator *> >
PUBLIC	??$_Destroy_range@V?$allocator@PAVCNullDecorator@NEffectUpdateDecorator@@@std@@@std@@YAXPAPAVCNullDecorator@NEffectUpdateDecorator@@QAPAV12@AAV?$allocator@PAVCNullDecorator@NEffectUpdateDecorator@@@0@@Z ; std::_Destroy_range<std::allocator<NEffectUpdateDecorator::CNullDecorator *> >
PUBLIC	??$_Destroy_range@V?$allocator@PAVCTextureAnimationCWDecorator@NEffectUpdateDecorator@@@std@@@std@@YAXPAPAVCTextureAnimationCWDecorator@NEffectUpdateDecorator@@QAPAV12@AAV?$allocator@PAVCTextureAnimationCWDecorator@NEffectUpdateDecorator@@@0@@Z ; std::_Destroy_range<std::allocator<NEffectUpdateDecorator::CTextureAnimationCWDecorator *> >
PUBLIC	??$_Destroy_range@V?$allocator@PAVCTextureAnimationCCWDecorator@NEffectUpdateDecorator@@@std@@@std@@YAXPAPAVCTextureAnimationCCWDecorator@NEffectUpdateDecorator@@QAPAV12@AAV?$allocator@PAVCTextureAnimationCCWDecorator@NEffectUpdateDecorator@@@0@@Z ; std::_Destroy_range<std::allocator<NEffectUpdateDecorator::CTextureAnimationCCWDecorator *> >
PUBLIC	??$_Destroy_range@V?$allocator@PAVCTextureAnimationRandomDecorator@NEffectUpdateDecorator@@@std@@@std@@YAXPAPAVCTextureAnimationRandomDecorator@NEffectUpdateDecorator@@QAPAV12@AAV?$allocator@PAVCTextureAnimationRandomDecorator@NEffectUpdateDecorator@@@0@@Z ; std::_Destroy_range<std::allocator<NEffectUpdateDecorator::CTextureAnimationRandomDecorator *> >
PUBLIC	??$_Destroy_range@V?$allocator@PAVCAirResistanceDecorator@NEffectUpdateDecorator@@@std@@@std@@YAXPAPAVCAirResistanceDecorator@NEffectUpdateDecorator@@QAPAV12@AAV?$allocator@PAVCAirResistanceDecorator@NEffectUpdateDecorator@@@0@@Z ; std::_Destroy_range<std::allocator<NEffectUpdateDecorator::CAirResistanceDecorator *> >
PUBLIC	??$_Destroy_range@V?$allocator@PAVCGravityDecorator@NEffectUpdateDecorator@@@std@@@std@@YAXPAPAVCGravityDecorator@NEffectUpdateDecorator@@QAPAV12@AAV?$allocator@PAVCGravityDecorator@NEffectUpdateDecorator@@@0@@Z ; std::_Destroy_range<std::allocator<NEffectUpdateDecorator::CGravityDecorator *> >
PUBLIC	??$_Destroy_range@V?$allocator@PAVCRotationDecorator@NEffectUpdateDecorator@@@std@@@std@@YAXPAPAVCRotationDecorator@NEffectUpdateDecorator@@QAPAV12@AAV?$allocator@PAVCRotationDecorator@NEffectUpdateDecorator@@@0@@Z ; std::_Destroy_range<std::allocator<NEffectUpdateDecorator::CRotationDecorator *> >
PUBLIC	??_C@_00CNPNBAHC@@				; `string'
PUBLIC	?ms_singleton@?$CSingleton@VCPythonItem@@@@0PAVCPythonItem@@A ; CSingleton<CPythonItem>::ms_singleton
PUBLIC	?ms_singleton@?$CSingleton@VCPythonShop@@@@0PAVCPythonShop@@A ; CSingleton<CPythonShop>::ms_singleton
PUBLIC	?ms_singleton@?$CSingleton@VCPythonExchange@@@@0PAVCPythonExchange@@A ; CSingleton<CPythonExchange>::ms_singleton
PUBLIC	?ms_singleton@?$CSingleton@VCPythonSafeBox@@@@0PAVCPythonSafeBox@@A ; CSingleton<CPythonSafeBox>::ms_singleton
PUBLIC	?ms_kPool@?$CPooledObject@VCHeaderDecorator@NEffectUpdateDecorator@@@@1V?$CDynamicPoolEx@VCHeaderDecorator@NEffectUpdateDecorator@@@@A ; CPooledObject<NEffectUpdateDecorator::CHeaderDecorator>::ms_kPool
PUBLIC	?ms_kPool@?$CPooledObject@VCNullDecorator@NEffectUpdateDecorator@@@@1V?$CDynamicPoolEx@VCNullDecorator@NEffectUpdateDecorator@@@@A ; CPooledObject<NEffectUpdateDecorator::CNullDecorator>::ms_kPool
PUBLIC	?ms_kPool@?$CPooledObject@VCTextureAnimationCWDecorator@NEffectUpdateDecorator@@@@1V?$CDynamicPoolEx@VCTextureAnimationCWDecorator@NEffectUpdateDecorator@@@@A ; CPooledObject<NEffectUpdateDecorator::CTextureAnimationCWDecorator>::ms_kPool
PUBLIC	?ms_kPool@?$CPooledObject@VCTextureAnimationCCWDecorator@NEffectUpdateDecorator@@@@1V?$CDynamicPoolEx@VCTextureAnimationCCWDecorator@NEffectUpdateDecorator@@@@A ; CPooledObject<NEffectUpdateDecorator::CTextureAnimationCCWDecorator>::ms_kPool
PUBLIC	?ms_kPool@?$CPooledObject@VCTextureAnimationRandomDecorator@NEffectUpdateDecorator@@@@1V?$CDynamicPoolEx@VCTextureAnimationRandomDecorator@NEffectUpdateDecorator@@@@A ; CPooledObject<NEffectUpdateDecorator::CTextureAnimationRandomDecorator>::ms_kPool
PUBLIC	?ms_kPool@?$CPooledObject@VCAirResistanceDecorator@NEffectUpdateDecorator@@@@1V?$CDynamicPoolEx@VCAirResistanceDecorator@NEffectUpdateDecorator@@@@A ; CPooledObject<NEffectUpdateDecorator::CAirResistanceDecorator>::ms_kPool
PUBLIC	?ms_kPool@?$CPooledObject@VCGravityDecorator@NEffectUpdateDecorator@@@@1V?$CDynamicPoolEx@VCGravityDecorator@NEffectUpdateDecorator@@@@A ; CPooledObject<NEffectUpdateDecorator::CGravityDecorator>::ms_kPool
PUBLIC	?ms_kPool@?$CPooledObject@VCRotationDecorator@NEffectUpdateDecorator@@@@1V?$CDynamicPoolEx@VCRotationDecorator@NEffectUpdateDecorator@@@@A ; CPooledObject<NEffectUpdateDecorator::CRotationDecorator>::ms_kPool
PUBLIC	?ms_singleton@?$CSingleton@VCPythonCharacterManager@@@@0PAVCPythonCharacterManager@@A ; CSingleton<CPythonCharacterManager>::ms_singleton
PUBLIC	?ms_singleton@?$TAbstractSingleton@VIAbstractPlayer@@@@0PAVIAbstractPlayer@@A ; TAbstractSingleton<IAbstractPlayer>::ms_singleton
PUBLIC	??_C@_02HCKGKOFO@?$CI?$CJ@			; `string'
PUBLIC	??_C@_0P@BMBKKGBC@OnSafeBoxError@		; `string'
PUBLIC	??_C@_03LIHNMIHG@?$CIi?$CJ@			; `string'
PUBLIC	??_C@_0BC@GDFDGKCD@OpenSafeboxWindow@		; `string'
PUBLIC	??_C@_0BE@OHCDIKPF@RefreshSafeboxMoney@		; `string'
PUBLIC	??_C@_0P@OIFPJOPL@OpenMallWindow@		; `string'
PUBLIC	??_C@_0DB@JMGJIAKF@?5?$DO?$DO?5CPythonNetworkStream?3?3RecvM@ ; `string'
PUBLIC	??_C@_04INACLLOK@?$CIii?$CJ@			; `string'
PUBLIC	??_C@_0BG@ELBKFGDM@BINARY_Highlight_Item@	; `string'
PUBLIC	??_C@_0BJ@ENIABNOP@SendShopEndPacket?5Error?6@	; `string'
PUBLIC	??_C@_0BJ@GJICJJME@SendShopBuyPacket?5Error?6@	; `string'
PUBLIC	??_C@_0BK@NFAAJDME@SendShopSellPacket?5Error?6@	; `string'
PUBLIC	??_C@_0BN@PEGCCLIG@SendShopAddSellPacket?5Error?6@ ; `string'
PUBLIC	??_C@_0CP@FAIPFIGP@?5SendShopSellPacketNew?$CIbySlot?$DN?$CF@ ; `string'
PUBLIC	??_C@_0BG@KBOLGOPL@CANNOT_EQUIP_EXCHANGE@	; `string'
PUBLIC	??_C@_03KJMMOONA@?$CIs?$CJ@			; `string'
PUBLIC	??_C@_0BL@HGBMODPD@BINARY_AppendNotifyMessage@	; `string'
PUBLIC	??_C@_0BC@GKDHAPBC@CANNOT_EQUIP_SHOP@		; `string'
PUBLIC	??_C@_0BI@ECNPLDED@SendItemUsePacket?5Error@	; `string'
PUBLIC	??_C@_0BO@FFKONCIG@SendItemUseToItemPacket?5Error@ ; `string'
PUBLIC	??_C@_0BJ@OIBPCJHH@SendItemDropPacket?5Error@	; `string'
PUBLIC	??_C@_0BJ@LGMFALEM@SendItemMovePacket?5Error@	; `string'
PUBLIC	??_C@_0BL@DCHNPPOD@SendItemPickUpPacket?5Error@	; `string'
PUBLIC	??_C@_0BN@ONNLHEKF@SendQuickSlotAddPacket?5Error@ ; `string'
PUBLIC	??_C@_0BN@BNCAGMGN@SendQuickSlotDelPacket?5Error@ ; `string'
PUBLIC	??_C@_0BO@MHEMOJBJ@SendQuickSlotSwapPacket?5Error@ ; `string'
PUBLIC	??_C@_0DL@PLJBBCEI@?$CFd?5?$LE?B?5?$LO?x?$LE?B?5?$LN?$LK?F?d?$LM?H?5?$MA?L?F?e?F?$KO?5?$LJ?x?H?$KD?$MA?T@ ; `string'
PUBLIC	??_C@_0CD@JEDDBPLN@BINARY_DragonSoulRefineWindow_O@ ; `string'
PUBLIC	??_C@_05HEIOBLPG@?$CIiii?$CJ@			; `string'
PUBLIC	??_C@_0CJ@JCBKPBPN@BINARY_DragonSoulRefineWindow_R@ ; `string'
PUBLIC	??_C@_0CM@IKKNFKOL@BINARY_DragonSoulRefineWindow_R@ ; `string'
EXTRN	??3@YAXPAX@Z:PROC				; operator delete
EXTRN	??3@YAXPAXI@Z:PROC				; operator delete
EXTRN	_atexit:PROC
EXTRN	__invalid_parameter_noinfo_noreturn:PROC
EXTRN	?Tracen@@YAXPBD@Z:PROC				; Tracen
EXTRN	?Tracef@@YAXPBDZZ:PROC				; Tracef
EXTRN	?TraceError@@YAXPBDZZ:PROC			; TraceError
EXTRN	__imp__Py_BuildValue:PROC
EXTRN	?PyCallClassMemberFunc@@YA_NPAU_object@@PBD0@Z:PROC ; PyCallClassMemberFunc
EXTRN	?Recv@CNetworkStream@@QAE_NHPAX@Z:PROC		; CNetworkStream::Recv
EXTRN	?Send@CNetworkStream@@QAE_NHPBX@Z:PROC		; CNetworkStream::Send
EXTRN	?SendSequence@CNetworkStream@@QAE_NXZ:PROC	; CNetworkStream::SendSequence
EXTRN	?__CanActMainInstance@CPythonNetworkStream@@IAE_NXZ:PROC ; CPythonNetworkStream::__CanActMainInstance
EXTRN	?__RefreshInventoryWindow@CPythonNetworkStream@@IAEXXZ:PROC ; CPythonNetworkStream::__RefreshInventoryWindow
EXTRN	?__RefreshSafeboxWindow@CPythonNetworkStream@@IAEXXZ:PROC ; CPythonNetworkStream::__RefreshSafeboxWindow
EXTRN	?__RefreshMallWindow@CPythonNetworkStream@@IAEXXZ:PROC ; CPythonNetworkStream::__RefreshMallWindow
EXTRN	?__GlobalPositionToLocalPosition@CPythonNetworkStream@@IAEXAAJ0@Z:PROC ; CPythonNetworkStream::__GlobalPositionToLocalPosition
EXTRN	?__IsPlayerAttacking@CPythonNetworkStream@@IAE_NXZ:PROC ; CPythonNetworkStream::__IsPlayerAttacking
EXTRN	?PlayUseSound@CPythonItem@@QAEXK@Z:PROC		; CPythonItem::PlayUseSound
EXTRN	?PlayDropSound@CPythonItem@@QAEXK@Z:PROC	; CPythonItem::PlayDropSound
EXTRN	?PlayUsePotionSound@CPythonItem@@QAEXXZ:PROC	; CPythonItem::PlayUsePotionSound
EXTRN	?CreateItem@CPythonItem@@QAEXKKMMM_N@Z:PROC	; CPythonItem::CreateItem
EXTRN	?DeleteItem@CPythonItem@@QAEXK@Z:PROC		; CPythonItem::DeleteItem
EXTRN	?SetOwnership@CPythonItem@@QAEXKPBD@Z:PROC	; CPythonItem::SetOwnership
EXTRN	?IsOpen@CPythonShop@@QAEHXZ:PROC		; CPythonShop::IsOpen
EXTRN	?isTrading@CPythonExchange@@QAE_NXZ:PROC	; CPythonExchange::isTrading
EXTRN	?OpenSafeBox@CPythonSafeBox@@QAEXH@Z:PROC	; CPythonSafeBox::OpenSafeBox
EXTRN	?SetItemData@CPythonSafeBox@@QAEXKABUpacket_item@@@Z:PROC ; CPythonSafeBox::SetItemData
EXTRN	?DelItemData@CPythonSafeBox@@QAEXK@Z:PROC	; CPythonSafeBox::DelItemData
EXTRN	?SetMoney@CPythonSafeBox@@QAEXK@Z:PROC		; CPythonSafeBox::SetMoney
EXTRN	?GetSlotItemID@CPythonSafeBox@@QAEHKPAK@Z:PROC	; CPythonSafeBox::GetSlotItemID
EXTRN	?OpenMall@CPythonSafeBox@@QAEXH@Z:PROC		; CPythonSafeBox::OpenMall
EXTRN	?SetMallItemData@CPythonSafeBox@@QAEXKABUpacket_item@@@Z:PROC ; CPythonSafeBox::SetMallItemData
EXTRN	?DelMallItemData@CPythonSafeBox@@QAEXK@Z:PROC	; CPythonSafeBox::DelMallItemData
EXTRN	?GetSlotMallItemID@CPythonSafeBox@@QAEHKPAK@Z:PROC ; CPythonSafeBox::GetSlotMallItemID
EXTRN	?RegisterEffect@CInstanceBase@@SA_NIPBD0_N@Z:PROC ; CInstanceBase::RegisterEffect
EXTRN	?CreateSpecialEffect@CInstanceBase@@QAEXK@Z:PROC ; CInstanceBase::CreateSpecialEffect
EXTRN	?AttachSpecialEffect@CInstanceBase@@QAEXK@Z:PROC ; CInstanceBase::AttachSpecialEffect
EXTRN	@__security_check_cookie@4:PROC
EXTRN	___security_cookie:DWORD
EXTRN	__fltused:DWORD
;	COMDAT ?ms_singleton@?$CSingleton@VCPythonItem@@@@0PAVCPythonItem@@A
_BSS	SEGMENT
?ms_singleton@?$CSingleton@VCPythonItem@@@@0PAVCPythonItem@@A DD 01H DUP (?) ; CSingleton<CPythonItem>::ms_singleton
_BSS	ENDS
;	COMDAT ?ms_singleton@?$CSingleton@VCPythonShop@@@@0PAVCPythonShop@@A
_BSS	SEGMENT
?ms_singleton@?$CSingleton@VCPythonShop@@@@0PAVCPythonShop@@A DD 01H DUP (?) ; CSingleton<CPythonShop>::ms_singleton
_BSS	ENDS
;	COMDAT ?ms_singleton@?$CSingleton@VCPythonExchange@@@@0PAVCPythonExchange@@A
_BSS	SEGMENT
?ms_singleton@?$CSingleton@VCPythonExchange@@@@0PAVCPythonExchange@@A DD 01H DUP (?) ; CSingleton<CPythonExchange>::ms_singleton
_BSS	ENDS
;	COMDAT ?ms_singleton@?$CSingleton@VCPythonSafeBox@@@@0PAVCPythonSafeBox@@A
_BSS	SEGMENT
?ms_singleton@?$CSingleton@VCPythonSafeBox@@@@0PAVCPythonSafeBox@@A DD 01H DUP (?) ; CSingleton<CPythonSafeBox>::ms_singleton
_BSS	ENDS
;	COMDAT ?ms_singleton@?$CSingleton@VCPythonCharacterManager@@@@0PAVCPythonCharacterManager@@A
_BSS	SEGMENT
?ms_singleton@?$CSingleton@VCPythonCharacterManager@@@@0PAVCPythonCharacterManager@@A DD 01H DUP (?) ; CSingleton<CPythonCharacterManager>::ms_singleton
_BSS	ENDS
;	COMDAT ?ms_singleton@?$TAbstractSingleton@VIAbstractPlayer@@@@0PAVIAbstractPlayer@@A
_BSS	SEGMENT
?ms_singleton@?$TAbstractSingleton@VIAbstractPlayer@@@@0PAVIAbstractPlayer@@A DD 01H DUP (?) ; TAbstractSingleton<IAbstractPlayer>::ms_singleton
_BSS	ENDS
;	COMDAT CRT$XCU
CRT$XCU	SEGMENT
??ms_kPool$initializer$@?$CPooledObject@VCHeaderDecorator@NEffectUpdateDecorator@@@@1P6AXXZA@@3P6AXXZA DD FLAT:??__E?ms_kPool@?$CPooledObject@VCHeaderDecorator@NEffectUpdateDecorator@@@@1V?$CDynamicPoolEx@VCHeaderDecorator@NEffectUpdateDecorator@@@@A@@YAXXZ ; ??ms_kPool$initializer$@?$CPooledObject@VCHeaderDecorator@NEffectUpdateDecorator@@@@1P6AXXZA@@3P6AXXZA
CRT$XCU	ENDS
;	COMDAT ??_C@_0CM@IKKNFKOL@BINARY_DragonSoulRefineWindow_R@
CONST	SEGMENT
??_C@_0CM@IKKNFKOL@BINARY_DragonSoulRefineWindow_R@ DB 'BINARY_DragonSoul'
	DB	'RefineWindow_RefineSucceed', 00H		; `string'
CONST	ENDS
;	COMDAT ??_C@_0CJ@JCBKPBPN@BINARY_DragonSoulRefineWindow_R@
CONST	SEGMENT
??_C@_0CJ@JCBKPBPN@BINARY_DragonSoulRefineWindow_R@ DB 'BINARY_DragonSoul'
	DB	'RefineWindow_RefineFail', 00H		; `string'
CONST	ENDS
;	COMDAT ??_C@_05HEIOBLPG@?$CIiii?$CJ@
CONST	SEGMENT
??_C@_05HEIOBLPG@?$CIiii?$CJ@ DB '(iii)', 00H		; `string'
CONST	ENDS
;	COMDAT ??_C@_0CD@JEDDBPLN@BINARY_DragonSoulRefineWindow_O@
CONST	SEGMENT
??_C@_0CD@JEDDBPLN@BINARY_DragonSoulRefineWindow_O@ DB 'BINARY_DragonSoul'
	DB	'RefineWindow_Open', 00H			; `string'
CONST	ENDS
;	COMDAT ??_C@_0DL@PLJBBCEI@?$CFd?5?$LE?B?5?$LO?x?$LE?B?5?$LN?$LK?F?d?$LM?H?5?$MA?L?F?e?F?$KO?5?$LJ?x?H?$KD?$MA?T@
CONST	SEGMENT
??_C@_0DL@PLJBBCEI@?$CFd?5?$LE?B?5?$LO?x?$LE?B?5?$LN?$LK?F?d?$LM?H?5?$MA?L?F?e?F?$KO?5?$LJ?x?H?$KD?$MA?T@ DB '%'
	DB	'd ', 0b4H, 0c2H, ' ', 0beH, 0f8H, 0b4H, 0c2H, ' ', 0bdH, 0baH
	DB	0c6H, 0e4H, 0bcH, 0c8H, ' ', 0c0H, 0ccH, 0c6H, 0e5H, 0c6H, 0aeH
	DB	' ', 0b9H, 0f8H, 0c8H, 0a3H, 0c0H, 0d4H, 0b4H, 0cfH, 0b4H, 0d9H
	DB	'.TPacketGCSpecialEffect', 00H		; `string'
CONST	ENDS
;	COMDAT ??_C@_0BO@MHEMOJBJ@SendQuickSlotSwapPacket?5Error@
CONST	SEGMENT
??_C@_0BO@MHEMOJBJ@SendQuickSlotSwapPacket?5Error@ DB 'SendQuickSlotSwapP'
	DB	'acket Error', 00H				; `string'
CONST	ENDS
;	COMDAT ??_C@_0BN@BNCAGMGN@SendQuickSlotDelPacket?5Error@
CONST	SEGMENT
??_C@_0BN@BNCAGMGN@SendQuickSlotDelPacket?5Error@ DB 'SendQuickSlotDelPac'
	DB	'ket Error', 00H				; `string'
CONST	ENDS
;	COMDAT ??_C@_0BN@ONNLHEKF@SendQuickSlotAddPacket?5Error@
CONST	SEGMENT
??_C@_0BN@ONNLHEKF@SendQuickSlotAddPacket?5Error@ DB 'SendQuickSlotAddPac'
	DB	'ket Error', 00H				; `string'
CONST	ENDS
;	COMDAT ??_C@_0BL@DCHNPPOD@SendItemPickUpPacket?5Error@
CONST	SEGMENT
??_C@_0BL@DCHNPPOD@SendItemPickUpPacket?5Error@ DB 'SendItemPickUpPacket '
	DB	'Error', 00H					; `string'
CONST	ENDS
;	COMDAT ??_C@_0BJ@LGMFALEM@SendItemMovePacket?5Error@
CONST	SEGMENT
??_C@_0BJ@LGMFALEM@SendItemMovePacket?5Error@ DB 'SendItemMovePacket Erro'
	DB	'r', 00H					; `string'
CONST	ENDS
;	COMDAT ??_C@_0BJ@OIBPCJHH@SendItemDropPacket?5Error@
CONST	SEGMENT
??_C@_0BJ@OIBPCJHH@SendItemDropPacket?5Error@ DB 'SendItemDropPacket Erro'
	DB	'r', 00H					; `string'
CONST	ENDS
;	COMDAT ??_C@_0BO@FFKONCIG@SendItemUseToItemPacket?5Error@
CONST	SEGMENT
??_C@_0BO@FFKONCIG@SendItemUseToItemPacket?5Error@ DB 'SendItemUseToItemP'
	DB	'acket Error', 00H				; `string'
CONST	ENDS
;	COMDAT ??_C@_0BI@ECNPLDED@SendItemUsePacket?5Error@
CONST	SEGMENT
??_C@_0BI@ECNPLDED@SendItemUsePacket?5Error@ DB 'SendItemUsePacket Error', 00H ; `string'
CONST	ENDS
;	COMDAT ??_C@_0BC@GKDHAPBC@CANNOT_EQUIP_SHOP@
CONST	SEGMENT
??_C@_0BC@GKDHAPBC@CANNOT_EQUIP_SHOP@ DB 'CANNOT_EQUIP_SHOP', 00H ; `string'
CONST	ENDS
;	COMDAT ??_C@_0BL@HGBMODPD@BINARY_AppendNotifyMessage@
CONST	SEGMENT
??_C@_0BL@HGBMODPD@BINARY_AppendNotifyMessage@ DB 'BINARY_AppendNotifyMes'
	DB	'sage', 00H					; `string'
CONST	ENDS
;	COMDAT ??_C@_03KJMMOONA@?$CIs?$CJ@
CONST	SEGMENT
??_C@_03KJMMOONA@?$CIs?$CJ@ DB '(s)', 00H		; `string'
CONST	ENDS
;	COMDAT ??_C@_0BG@KBOLGOPL@CANNOT_EQUIP_EXCHANGE@
CONST	SEGMENT
??_C@_0BG@KBOLGOPL@CANNOT_EQUIP_EXCHANGE@ DB 'CANNOT_EQUIP_EXCHANGE', 00H ; `string'
CONST	ENDS
;	COMDAT ??_C@_0CP@FAIPFIGP@?5SendShopSellPacketNew?$CIbySlot?$DN?$CF@
CONST	SEGMENT
??_C@_0CP@FAIPFIGP@?5SendShopSellPacketNew?$CIbySlot?$DN?$CF@ DB ' SendSh'
	DB	'opSellPacketNew(bySlot=%d, byCount=%d)', 0aH, 00H ; `string'
CONST	ENDS
;	COMDAT ??_C@_0BN@PEGCCLIG@SendShopAddSellPacket?5Error?6@
CONST	SEGMENT
??_C@_0BN@PEGCCLIG@SendShopAddSellPacket?5Error?6@ DB 'SendShopAddSellPac'
	DB	'ket Error', 0aH, 00H			; `string'
CONST	ENDS
;	COMDAT ??_C@_0BK@NFAAJDME@SendShopSellPacket?5Error?6@
CONST	SEGMENT
??_C@_0BK@NFAAJDME@SendShopSellPacket?5Error?6@ DB 'SendShopSellPacket Er'
	DB	'ror', 0aH, 00H				; `string'
CONST	ENDS
;	COMDAT ??_C@_0BJ@GJICJJME@SendShopBuyPacket?5Error?6@
CONST	SEGMENT
??_C@_0BJ@GJICJJME@SendShopBuyPacket?5Error?6@ DB 'SendShopBuyPacket Erro'
	DB	'r', 0aH, 00H				; `string'
CONST	ENDS
;	COMDAT ??_C@_0BJ@ENIABNOP@SendShopEndPacket?5Error?6@
CONST	SEGMENT
??_C@_0BJ@ENIABNOP@SendShopEndPacket?5Error?6@ DB 'SendShopEndPacket Erro'
	DB	'r', 0aH, 00H				; `string'
CONST	ENDS
;	COMDAT ??_C@_0BG@ELBKFGDM@BINARY_Highlight_Item@
CONST	SEGMENT
??_C@_0BG@ELBKFGDM@BINARY_Highlight_Item@ DB 'BINARY_Highlight_Item', 00H ; `string'
CONST	ENDS
;	COMDAT ??_C@_04INACLLOK@?$CIii?$CJ@
CONST	SEGMENT
??_C@_04INACLLOK@?$CIii?$CJ@ DB '(ii)', 00H		; `string'
CONST	ENDS
;	COMDAT ??_C@_0DB@JMGJIAKF@?5?$DO?$DO?5CPythonNetworkStream?3?3RecvM@
CONST	SEGMENT
??_C@_0DB@JMGJIAKF@?5?$DO?$DO?5CPythonNetworkStream?3?3RecvM@ DB ' >> CPy'
	DB	'thonNetworkStream::RecvMallItemDelPacket', 0aH, 00H ; `string'
CONST	ENDS
;	COMDAT ??_C@_0P@OIFPJOPL@OpenMallWindow@
CONST	SEGMENT
??_C@_0P@OIFPJOPL@OpenMallWindow@ DB 'OpenMallWindow', 00H ; `string'
CONST	ENDS
;	COMDAT ??_C@_0BE@OHCDIKPF@RefreshSafeboxMoney@
CONST	SEGMENT
??_C@_0BE@OHCDIKPF@RefreshSafeboxMoney@ DB 'RefreshSafeboxMoney', 00H ; `string'
CONST	ENDS
;	COMDAT ??_C@_0BC@GDFDGKCD@OpenSafeboxWindow@
CONST	SEGMENT
??_C@_0BC@GDFDGKCD@OpenSafeboxWindow@ DB 'OpenSafeboxWindow', 00H ; `string'
CONST	ENDS
;	COMDAT ??_C@_03LIHNMIHG@?$CIi?$CJ@
CONST	SEGMENT
??_C@_03LIHNMIHG@?$CIi?$CJ@ DB '(i)', 00H		; `string'
CONST	ENDS
;	COMDAT ??_C@_0P@BMBKKGBC@OnSafeBoxError@
CONST	SEGMENT
??_C@_0P@BMBKKGBC@OnSafeBoxError@ DB 'OnSafeBoxError', 00H ; `string'
CONST	ENDS
;	COMDAT ??_C@_02HCKGKOFO@?$CI?$CJ@
CONST	SEGMENT
??_C@_02HCKGKOFO@?$CI?$CJ@ DB '()', 00H			; `string'
CONST	ENDS
;	COMDAT ?ms_kPool@?$CPooledObject@VCRotationDecorator@NEffectUpdateDecorator@@@@1V?$CDynamicPoolEx@VCRotationDecorator@NEffectUpdateDecorator@@@@A
_DATA	SEGMENT
?ms_kPool@?$CPooledObject@VCRotationDecorator@NEffectUpdateDecorator@@@@1V?$CDynamicPoolEx@VCRotationDecorator@NEffectUpdateDecorator@@@@A DD FLAT:??_7?$CDynamicPoolEx@VCRotationDecorator@NEffectUpdateDecorator@@@@6B@ ; CPooledObject<NEffectUpdateDecorator::CRotationDecorator>::ms_kPool
	DD	00H
	DD	00H
	DD	00H
	DD	00H
	DD	00H
	DD	00H
	DD	00H
	DD	00H
_DATA	ENDS
;	COMDAT ?ms_kPool@?$CPooledObject@VCGravityDecorator@NEffectUpdateDecorator@@@@1V?$CDynamicPoolEx@VCGravityDecorator@NEffectUpdateDecorator@@@@A
_DATA	SEGMENT
?ms_kPool@?$CPooledObject@VCGravityDecorator@NEffectUpdateDecorator@@@@1V?$CDynamicPoolEx@VCGravityDecorator@NEffectUpdateDecorator@@@@A DD FLAT:??_7?$CDynamicPoolEx@VCGravityDecorator@NEffectUpdateDecorator@@@@6B@ ; CPooledObject<NEffectUpdateDecorator::CGravityDecorator>::ms_kPool
	DD	00H
	DD	00H
	DD	00H
	DD	00H
	DD	00H
	DD	00H
	DD	00H
	DD	00H
_DATA	ENDS
;	COMDAT ?ms_kPool@?$CPooledObject@VCAirResistanceDecorator@NEffectUpdateDecorator@@@@1V?$CDynamicPoolEx@VCAirResistanceDecorator@NEffectUpdateDecorator@@@@A
_DATA	SEGMENT
?ms_kPool@?$CPooledObject@VCAirResistanceDecorator@NEffectUpdateDecorator@@@@1V?$CDynamicPoolEx@VCAirResistanceDecorator@NEffectUpdateDecorator@@@@A DD FLAT:??_7?$CDynamicPoolEx@VCAirResistanceDecorator@NEffectUpdateDecorator@@@@6B@ ; CPooledObject<NEffectUpdateDecorator::CAirResistanceDecorator>::ms_kPool
	DD	00H
	DD	00H
	DD	00H
	DD	00H
	DD	00H
	DD	00H
	DD	00H
	DD	00H
_DATA	ENDS
;	COMDAT ?ms_kPool@?$CPooledObject@VCTextureAnimationRandomDecorator@NEffectUpdateDecorator@@@@1V?$CDynamicPoolEx@VCTextureAnimationRandomDecorator@NEffectUpdateDecorator@@@@A
_DATA	SEGMENT
?ms_kPool@?$CPooledObject@VCTextureAnimationRandomDecorator@NEffectUpdateDecorator@@@@1V?$CDynamicPoolEx@VCTextureAnimationRandomDecorator@NEffectUpdateDecorator@@@@A DD FLAT:??_7?$CDynamicPoolEx@VCTextureAnimationRandomDecorator@NEffectUpdateDecorator@@@@6B@ ; CPooledObject<NEffectUpdateDecorator::CTextureAnimationRandomDecorator>::ms_kPool
	DD	00H
	DD	00H
	DD	00H
	DD	00H
	DD	00H
	DD	00H
	DD	00H
	DD	00H
_DATA	ENDS
;	COMDAT ?ms_kPool@?$CPooledObject@VCTextureAnimationCCWDecorator@NEffectUpdateDecorator@@@@1V?$CDynamicPoolEx@VCTextureAnimationCCWDecorator@NEffectUpdateDecorator@@@@A
_DATA	SEGMENT
?ms_kPool@?$CPooledObject@VCTextureAnimationCCWDecorator@NEffectUpdateDecorator@@@@1V?$CDynamicPoolEx@VCTextureAnimationCCWDecorator@NEffectUpdateDecorator@@@@A DD FLAT:??_7?$CDynamicPoolEx@VCTextureAnimationCCWDecorator@NEffectUpdateDecorator@@@@6B@ ; CPooledObject<NEffectUpdateDecorator::CTextureAnimationCCWDecorator>::ms_kPool
	DD	00H
	DD	00H
	DD	00H
	DD	00H
	DD	00H
	DD	00H
	DD	00H
	DD	00H
_DATA	ENDS
;	COMDAT ?ms_kPool@?$CPooledObject@VCTextureAnimationCWDecorator@NEffectUpdateDecorator@@@@1V?$CDynamicPoolEx@VCTextureAnimationCWDecorator@NEffectUpdateDecorator@@@@A
_DATA	SEGMENT
?ms_kPool@?$CPooledObject@VCTextureAnimationCWDecorator@NEffectUpdateDecorator@@@@1V?$CDynamicPoolEx@VCTextureAnimationCWDecorator@NEffectUpdateDecorator@@@@A DD FLAT:??_7?$CDynamicPoolEx@VCTextureAnimationCWDecorator@NEffectUpdateDecorator@@@@6B@ ; CPooledObject<NEffectUpdateDecorator::CTextureAnimationCWDecorator>::ms_kPool
	DD	00H
	DD	00H
	DD	00H
	DD	00H
	DD	00H
	DD	00H
	DD	00H
	DD	00H
_DATA	ENDS
;	COMDAT ?ms_kPool@?$CPooledObject@VCNullDecorator@NEffectUpdateDecorator@@@@1V?$CDynamicPoolEx@VCNullDecorator@NEffectUpdateDecorator@@@@A
_DATA	SEGMENT
?ms_kPool@?$CPooledObject@VCNullDecorator@NEffectUpdateDecorator@@@@1V?$CDynamicPoolEx@VCNullDecorator@NEffectUpdateDecorator@@@@A DD FLAT:??_7?$CDynamicPoolEx@VCNullDecorator@NEffectUpdateDecorator@@@@6B@ ; CPooledObject<NEffectUpdateDecorator::CNullDecorator>::ms_kPool
	DD	00H
	DD	00H
	DD	00H
	DD	00H
	DD	00H
	DD	00H
	DD	00H
	DD	00H
_DATA	ENDS
;	COMDAT ?ms_kPool@?$CPooledObject@VCHeaderDecorator@NEffectUpdateDecorator@@@@1V?$CDynamicPoolEx@VCHeaderDecorator@NEffectUpdateDecorator@@@@A
_DATA	SEGMENT
?ms_kPool@?$CPooledObject@VCHeaderDecorator@NEffectUpdateDecorator@@@@1V?$CDynamicPoolEx@VCHeaderDecorator@NEffectUpdateDecorator@@@@A DD FLAT:??_7?$CDynamicPoolEx@VCHeaderDecorator@NEffectUpdateDecorator@@@@6B@ ; CPooledObject<NEffectUpdateDecorator::CHeaderDecorator>::ms_kPool
	DD	00H
	DD	00H
	DD	00H
	DD	00H
	DD	00H
	DD	00H
	DD	00H
	DD	00H
_DATA	ENDS
;	COMDAT ??_C@_00CNPNBAHC@@
CONST	SEGMENT
??_C@_00CNPNBAHC@@ DB 00H				; `string'
CONST	ENDS
;	COMDAT CRT$XCU
CRT$XCU	SEGMENT
??ms_kPool$initializer$@?$CPooledObject@VCNullDecorator@NEffectUpdateDecorator@@@@1P6AXXZA@@3P6AXXZA DD FLAT:??__E?ms_kPool@?$CPooledObject@VCNullDecorator@NEffectUpdateDecorator@@@@1V?$CDynamicPoolEx@VCNullDecorator@NEffectUpdateDecorator@@@@A@@YAXXZ ; ??ms_kPool$initializer$@?$CPooledObject@VCNullDecorator@NEffectUpdateDecorator@@@@1P6AXXZA@@3P6AXXZA
CRT$XCU	ENDS
;	COMDAT CRT$XCU
CRT$XCU	SEGMENT
??ms_kPool$initializer$@?$CPooledObject@VCTextureAnimationCWDecorator@NEffectUpdateDecorator@@@@1P6AXXZA@@3P6AXXZA DD FLAT:??__E?ms_kPool@?$CPooledObject@VCTextureAnimationCWDecorator@NEffectUpdateDecorator@@@@1V?$CDynamicPoolEx@VCTextureAnimationCWDecorator@NEffectUpdateDecorator@@@@A@@YAXXZ ; ??ms_kPool$initializer$@?$CPooledObject@VCTextureAnimationCWDecorator@NEffectUpdateDecorator@@@@1P6AXXZA@@3P6AXXZA
CRT$XCU	ENDS
;	COMDAT CRT$XCU
CRT$XCU	SEGMENT
??ms_kPool$initializer$@?$CPooledObject@VCTextureAnimationCCWDecorator@NEffectUpdateDecorator@@@@1P6AXXZA@@3P6AXXZA DD FLAT:??__E?ms_kPool@?$CPooledObject@VCTextureAnimationCCWDecorator@NEffectUpdateDecorator@@@@1V?$CDynamicPoolEx@VCTextureAnimationCCWDecorator@NEffectUpdateDecorator@@@@A@@YAXXZ ; ??ms_kPool$initializer$@?$CPooledObject@VCTextureAnimationCCWDecorator@NEffectUpdateDecorator@@@@1P6AXXZA@@3P6AXXZA
CRT$XCU	ENDS
;	COMDAT CRT$XCU
CRT$XCU	SEGMENT
??ms_kPool$initializer$@?$CPooledObject@VCTextureAnimationRandomDecorator@NEffectUpdateDecorator@@@@1P6AXXZA@@3P6AXXZA DD FLAT:??__E?ms_kPool@?$CPooledObject@VCTextureAnimationRandomDecorator@NEffectUpdateDecorator@@@@1V?$CDynamicPoolEx@VCTextureAnimationRandomDecorator@NEffectUpdateDecorator@@@@A@@YAXXZ ; ??ms_kPool$initializer$@?$CPooledObject@VCTextureAnimationRandomDecorator@NEffectUpdateDecorator@@@@1P6AXXZA@@3P6AXXZA
CRT$XCU	ENDS
;	COMDAT CRT$XCU
CRT$XCU	SEGMENT
??ms_kPool$initializer$@?$CPooledObject@VCAirResistanceDecorator@NEffectUpdateDecorator@@@@1P6AXXZA@@3P6AXXZA DD FLAT:??__E?ms_kPool@?$CPooledObject@VCAirResistanceDecorator@NEffectUpdateDecorator@@@@1V?$CDynamicPoolEx@VCAirResistanceDecorator@NEffectUpdateDecorator@@@@A@@YAXXZ ; ??ms_kPool$initializer$@?$CPooledObject@VCAirResistanceDecorator@NEffectUpdateDecorator@@@@1P6AXXZA@@3P6AXXZA
CRT$XCU	ENDS
;	COMDAT CRT$XCU
CRT$XCU	SEGMENT
??ms_kPool$initializer$@?$CPooledObject@VCGravityDecorator@NEffectUpdateDecorator@@@@1P6AXXZA@@3P6AXXZA DD FLAT:??__E?ms_kPool@?$CPooledObject@VCGravityDecorator@NEffectUpdateDecorator@@@@1V?$CDynamicPoolEx@VCGravityDecorator@NEffectUpdateDecorator@@@@A@@YAXXZ ; ??ms_kPool$initializer$@?$CPooledObject@VCGravityDecorator@NEffectUpdateDecorator@@@@1P6AXXZA@@3P6AXXZA
CRT$XCU	ENDS
;	COMDAT CRT$XCU
CRT$XCU	SEGMENT
??ms_kPool$initializer$@?$CPooledObject@VCRotationDecorator@NEffectUpdateDecorator@@@@1P6AXXZA@@3P6AXXZA DD FLAT:??__E?ms_kPool@?$CPooledObject@VCRotationDecorator@NEffectUpdateDecorator@@@@1V?$CDynamicPoolEx@VCRotationDecorator@NEffectUpdateDecorator@@@@A@@YAXXZ ; ??ms_kPool$initializer$@?$CPooledObject@VCRotationDecorator@NEffectUpdateDecorator@@@@1P6AXXZA@@3P6AXXZA
CRT$XCU	ENDS
; Function compile flags: /Ogtp
;	COMDAT ??__F?ms_kPool@?$CPooledObject@VCRotationDecorator@NEffectUpdateDecorator@@@@1V?$CDynamicPoolEx@VCRotationDecorator@NEffectUpdateDecorator@@@@A@@YAXXZ
text$yd	SEGMENT
??__F?ms_kPool@?$CPooledObject@VCRotationDecorator@NEffectUpdateDecorator@@@@1V?$CDynamicPoolEx@VCRotationDecorator@NEffectUpdateDecorator@@@@A@@YAXXZ PROC ; `dynamic atexit destructor for 'CPooledObject<NEffectUpdateDecorator::CRotationDecorator>::ms_kPool'', COMDAT
  00000	b9 00 00 00 00	 mov	 ecx, OFFSET ?ms_kPool@?$CPooledObject@VCRotationDecorator@NEffectUpdateDecorator@@@@1V?$CDynamicPoolEx@VCRotationDecorator@NEffectUpdateDecorator@@@@A ; CPooledObject<NEffectUpdateDecorator::CRotationDecorator>::ms_kPool
  00005	e9 00 00 00 00	 jmp	 ??1?$CDynamicPoolEx@VCRotationDecorator@NEffectUpdateDecorator@@@@UAE@XZ ; CDynamicPoolEx<NEffectUpdateDecorator::CRotationDecorator>::~CDynamicPoolEx<NEffectUpdateDecorator::CRotationDecorator>
??__F?ms_kPool@?$CPooledObject@VCRotationDecorator@NEffectUpdateDecorator@@@@1V?$CDynamicPoolEx@VCRotationDecorator@NEffectUpdateDecorator@@@@A@@YAXXZ ENDP ; `dynamic atexit destructor for 'CPooledObject<NEffectUpdateDecorator::CRotationDecorator>::ms_kPool''
text$yd	ENDS
; Function compile flags: /Ogtp
; File D:\Metin2 Server Files\mainline\SRC_2014\Metin2Client\eterLib\Pool.h
;	COMDAT ??__E?ms_kPool@?$CPooledObject@VCRotationDecorator@NEffectUpdateDecorator@@@@1V?$CDynamicPoolEx@VCRotationDecorator@NEffectUpdateDecorator@@@@A@@YAXXZ
text$di	SEGMENT
??__E?ms_kPool@?$CPooledObject@VCRotationDecorator@NEffectUpdateDecorator@@@@1V?$CDynamicPoolEx@VCRotationDecorator@NEffectUpdateDecorator@@@@A@@YAXXZ PROC ; `dynamic initializer for 'CPooledObject<NEffectUpdateDecorator::CRotationDecorator>::ms_kPool'', COMDAT

; 272  : template <class T> CDynamicPoolEx<T> CPooledObject<T>::ms_kPool;

  00000	68 00 00 00 00	 push	 OFFSET ??__F?ms_kPool@?$CPooledObject@VCRotationDecorator@NEffectUpdateDecorator@@@@1V?$CDynamicPoolEx@VCRotationDecorator@NEffectUpdateDecorator@@@@A@@YAXXZ ; `dynamic atexit destructor for 'CPooledObject<NEffectUpdateDecorator::CRotationDecorator>::ms_kPool''
  00005	e8 00 00 00 00	 call	 _atexit
  0000a	59		 pop	 ecx
  0000b	c3		 ret	 0
??__E?ms_kPool@?$CPooledObject@VCRotationDecorator@NEffectUpdateDecorator@@@@1V?$CDynamicPoolEx@VCRotationDecorator@NEffectUpdateDecorator@@@@A@@YAXXZ ENDP ; `dynamic initializer for 'CPooledObject<NEffectUpdateDecorator::CRotationDecorator>::ms_kPool''
text$di	ENDS
; Function compile flags: /Ogtp
;	COMDAT ??__F?ms_kPool@?$CPooledObject@VCGravityDecorator@NEffectUpdateDecorator@@@@1V?$CDynamicPoolEx@VCGravityDecorator@NEffectUpdateDecorator@@@@A@@YAXXZ
text$yd	SEGMENT
??__F?ms_kPool@?$CPooledObject@VCGravityDecorator@NEffectUpdateDecorator@@@@1V?$CDynamicPoolEx@VCGravityDecorator@NEffectUpdateDecorator@@@@A@@YAXXZ PROC ; `dynamic atexit destructor for 'CPooledObject<NEffectUpdateDecorator::CGravityDecorator>::ms_kPool'', COMDAT
  00000	b9 00 00 00 00	 mov	 ecx, OFFSET ?ms_kPool@?$CPooledObject@VCGravityDecorator@NEffectUpdateDecorator@@@@1V?$CDynamicPoolEx@VCGravityDecorator@NEffectUpdateDecorator@@@@A ; CPooledObject<NEffectUpdateDecorator::CGravityDecorator>::ms_kPool
  00005	e9 00 00 00 00	 jmp	 ??1?$CDynamicPoolEx@VCGravityDecorator@NEffectUpdateDecorator@@@@UAE@XZ ; CDynamicPoolEx<NEffectUpdateDecorator::CGravityDecorator>::~CDynamicPoolEx<NEffectUpdateDecorator::CGravityDecorator>
??__F?ms_kPool@?$CPooledObject@VCGravityDecorator@NEffectUpdateDecorator@@@@1V?$CDynamicPoolEx@VCGravityDecorator@NEffectUpdateDecorator@@@@A@@YAXXZ ENDP ; `dynamic atexit destructor for 'CPooledObject<NEffectUpdateDecorator::CGravityDecorator>::ms_kPool''
text$yd	ENDS
; Function compile flags: /Ogtp
; File D:\Metin2 Server Files\mainline\SRC_2014\Metin2Client\eterLib\Pool.h
;	COMDAT ??__E?ms_kPool@?$CPooledObject@VCGravityDecorator@NEffectUpdateDecorator@@@@1V?$CDynamicPoolEx@VCGravityDecorator@NEffectUpdateDecorator@@@@A@@YAXXZ
text$di	SEGMENT
??__E?ms_kPool@?$CPooledObject@VCGravityDecorator@NEffectUpdateDecorator@@@@1V?$CDynamicPoolEx@VCGravityDecorator@NEffectUpdateDecorator@@@@A@@YAXXZ PROC ; `dynamic initializer for 'CPooledObject<NEffectUpdateDecorator::CGravityDecorator>::ms_kPool'', COMDAT

; 272  : template <class T> CDynamicPoolEx<T> CPooledObject<T>::ms_kPool;

  00000	68 00 00 00 00	 push	 OFFSET ??__F?ms_kPool@?$CPooledObject@VCGravityDecorator@NEffectUpdateDecorator@@@@1V?$CDynamicPoolEx@VCGravityDecorator@NEffectUpdateDecorator@@@@A@@YAXXZ ; `dynamic atexit destructor for 'CPooledObject<NEffectUpdateDecorator::CGravityDecorator>::ms_kPool''
  00005	e8 00 00 00 00	 call	 _atexit
  0000a	59		 pop	 ecx
  0000b	c3		 ret	 0
??__E?ms_kPool@?$CPooledObject@VCGravityDecorator@NEffectUpdateDecorator@@@@1V?$CDynamicPoolEx@VCGravityDecorator@NEffectUpdateDecorator@@@@A@@YAXXZ ENDP ; `dynamic initializer for 'CPooledObject<NEffectUpdateDecorator::CGravityDecorator>::ms_kPool''
text$di	ENDS
; Function compile flags: /Ogtp
;	COMDAT ??__F?ms_kPool@?$CPooledObject@VCAirResistanceDecorator@NEffectUpdateDecorator@@@@1V?$CDynamicPoolEx@VCAirResistanceDecorator@NEffectUpdateDecorator@@@@A@@YAXXZ
text$yd	SEGMENT
??__F?ms_kPool@?$CPooledObject@VCAirResistanceDecorator@NEffectUpdateDecorator@@@@1V?$CDynamicPoolEx@VCAirResistanceDecorator@NEffectUpdateDecorator@@@@A@@YAXXZ PROC ; `dynamic atexit destructor for 'CPooledObject<NEffectUpdateDecorator::CAirResistanceDecorator>::ms_kPool'', COMDAT
  00000	b9 00 00 00 00	 mov	 ecx, OFFSET ?ms_kPool@?$CPooledObject@VCAirResistanceDecorator@NEffectUpdateDecorator@@@@1V?$CDynamicPoolEx@VCAirResistanceDecorator@NEffectUpdateDecorator@@@@A ; CPooledObject<NEffectUpdateDecorator::CAirResistanceDecorator>::ms_kPool
  00005	e9 00 00 00 00	 jmp	 ??1?$CDynamicPoolEx@VCAirResistanceDecorator@NEffectUpdateDecorator@@@@UAE@XZ ; CDynamicPoolEx<NEffectUpdateDecorator::CAirResistanceDecorator>::~CDynamicPoolEx<NEffectUpdateDecorator::CAirResistanceDecorator>
??__F?ms_kPool@?$CPooledObject@VCAirResistanceDecorator@NEffectUpdateDecorator@@@@1V?$CDynamicPoolEx@VCAirResistanceDecorator@NEffectUpdateDecorator@@@@A@@YAXXZ ENDP ; `dynamic atexit destructor for 'CPooledObject<NEffectUpdateDecorator::CAirResistanceDecorator>::ms_kPool''
text$yd	ENDS
; Function compile flags: /Ogtp
; File D:\Metin2 Server Files\mainline\SRC_2014\Metin2Client\eterLib\Pool.h
;	COMDAT ??__E?ms_kPool@?$CPooledObject@VCAirResistanceDecorator@NEffectUpdateDecorator@@@@1V?$CDynamicPoolEx@VCAirResistanceDecorator@NEffectUpdateDecorator@@@@A@@YAXXZ
text$di	SEGMENT
??__E?ms_kPool@?$CPooledObject@VCAirResistanceDecorator@NEffectUpdateDecorator@@@@1V?$CDynamicPoolEx@VCAirResistanceDecorator@NEffectUpdateDecorator@@@@A@@YAXXZ PROC ; `dynamic initializer for 'CPooledObject<NEffectUpdateDecorator::CAirResistanceDecorator>::ms_kPool'', COMDAT

; 272  : template <class T> CDynamicPoolEx<T> CPooledObject<T>::ms_kPool;

  00000	68 00 00 00 00	 push	 OFFSET ??__F?ms_kPool@?$CPooledObject@VCAirResistanceDecorator@NEffectUpdateDecorator@@@@1V?$CDynamicPoolEx@VCAirResistanceDecorator@NEffectUpdateDecorator@@@@A@@YAXXZ ; `dynamic atexit destructor for 'CPooledObject<NEffectUpdateDecorator::CAirResistanceDecorator>::ms_kPool''
  00005	e8 00 00 00 00	 call	 _atexit
  0000a	59		 pop	 ecx
  0000b	c3		 ret	 0
??__E?ms_kPool@?$CPooledObject@VCAirResistanceDecorator@NEffectUpdateDecorator@@@@1V?$CDynamicPoolEx@VCAirResistanceDecorator@NEffectUpdateDecorator@@@@A@@YAXXZ ENDP ; `dynamic initializer for 'CPooledObject<NEffectUpdateDecorator::CAirResistanceDecorator>::ms_kPool''
text$di	ENDS
; Function compile flags: /Ogtp
;	COMDAT ??__F?ms_kPool@?$CPooledObject@VCTextureAnimationRandomDecorator@NEffectUpdateDecorator@@@@1V?$CDynamicPoolEx@VCTextureAnimationRandomDecorator@NEffectUpdateDecorator@@@@A@@YAXXZ
text$yd	SEGMENT
??__F?ms_kPool@?$CPooledObject@VCTextureAnimationRandomDecorator@NEffectUpdateDecorator@@@@1V?$CDynamicPoolEx@VCTextureAnimationRandomDecorator@NEffectUpdateDecorator@@@@A@@YAXXZ PROC ; `dynamic atexit destructor for 'CPooledObject<NEffectUpdateDecorator::CTextureAnimationRandomDecorator>::ms_kPool'', COMDAT
  00000	b9 00 00 00 00	 mov	 ecx, OFFSET ?ms_kPool@?$CPooledObject@VCTextureAnimationRandomDecorator@NEffectUpdateDecorator@@@@1V?$CDynamicPoolEx@VCTextureAnimationRandomDecorator@NEffectUpdateDecorator@@@@A ; CPooledObject<NEffectUpdateDecorator::CTextureAnimationRandomDecorator>::ms_kPool
  00005	e9 00 00 00 00	 jmp	 ??1?$CDynamicPoolEx@VCTextureAnimationRandomDecorator@NEffectUpdateDecorator@@@@UAE@XZ ; CDynamicPoolEx<NEffectUpdateDecorator::CTextureAnimationRandomDecorator>::~CDynamicPoolEx<NEffectUpdateDecorator::CTextureAnimationRandomDecorator>
??__F?ms_kPool@?$CPooledObject@VCTextureAnimationRandomDecorator@NEffectUpdateDecorator@@@@1V?$CDynamicPoolEx@VCTextureAnimationRandomDecorator@NEffectUpdateDecorator@@@@A@@YAXXZ ENDP ; `dynamic atexit destructor for 'CPooledObject<NEffectUpdateDecorator::CTextureAnimationRandomDecorator>::ms_kPool''
text$yd	ENDS
; Function compile flags: /Ogtp
; File D:\Metin2 Server Files\mainline\SRC_2014\Metin2Client\eterLib\Pool.h
;	COMDAT ??__E?ms_kPool@?$CPooledObject@VCTextureAnimationRandomDecorator@NEffectUpdateDecorator@@@@1V?$CDynamicPoolEx@VCTextureAnimationRandomDecorator@NEffectUpdateDecorator@@@@A@@YAXXZ
text$di	SEGMENT
??__E?ms_kPool@?$CPooledObject@VCTextureAnimationRandomDecorator@NEffectUpdateDecorator@@@@1V?$CDynamicPoolEx@VCTextureAnimationRandomDecorator@NEffectUpdateDecorator@@@@A@@YAXXZ PROC ; `dynamic initializer for 'CPooledObject<NEffectUpdateDecorator::CTextureAnimationRandomDecorator>::ms_kPool'', COMDAT

; 272  : template <class T> CDynamicPoolEx<T> CPooledObject<T>::ms_kPool;

  00000	68 00 00 00 00	 push	 OFFSET ??__F?ms_kPool@?$CPooledObject@VCTextureAnimationRandomDecorator@NEffectUpdateDecorator@@@@1V?$CDynamicPoolEx@VCTextureAnimationRandomDecorator@NEffectUpdateDecorator@@@@A@@YAXXZ ; `dynamic atexit destructor for 'CPooledObject<NEffectUpdateDecorator::CTextureAnimationRandomDecorator>::ms_kPool''
  00005	e8 00 00 00 00	 call	 _atexit
  0000a	59		 pop	 ecx
  0000b	c3		 ret	 0
??__E?ms_kPool@?$CPooledObject@VCTextureAnimationRandomDecorator@NEffectUpdateDecorator@@@@1V?$CDynamicPoolEx@VCTextureAnimationRandomDecorator@NEffectUpdateDecorator@@@@A@@YAXXZ ENDP ; `dynamic initializer for 'CPooledObject<NEffectUpdateDecorator::CTextureAnimationRandomDecorator>::ms_kPool''
text$di	ENDS
; Function compile flags: /Ogtp
;	COMDAT ??__F?ms_kPool@?$CPooledObject@VCTextureAnimationCCWDecorator@NEffectUpdateDecorator@@@@1V?$CDynamicPoolEx@VCTextureAnimationCCWDecorator@NEffectUpdateDecorator@@@@A@@YAXXZ
text$yd	SEGMENT
??__F?ms_kPool@?$CPooledObject@VCTextureAnimationCCWDecorator@NEffectUpdateDecorator@@@@1V?$CDynamicPoolEx@VCTextureAnimationCCWDecorator@NEffectUpdateDecorator@@@@A@@YAXXZ PROC ; `dynamic atexit destructor for 'CPooledObject<NEffectUpdateDecorator::CTextureAnimationCCWDecorator>::ms_kPool'', COMDAT
  00000	b9 00 00 00 00	 mov	 ecx, OFFSET ?ms_kPool@?$CPooledObject@VCTextureAnimationCCWDecorator@NEffectUpdateDecorator@@@@1V?$CDynamicPoolEx@VCTextureAnimationCCWDecorator@NEffectUpdateDecorator@@@@A ; CPooledObject<NEffectUpdateDecorator::CTextureAnimationCCWDecorator>::ms_kPool
  00005	e9 00 00 00 00	 jmp	 ??1?$CDynamicPoolEx@VCTextureAnimationCCWDecorator@NEffectUpdateDecorator@@@@UAE@XZ ; CDynamicPoolEx<NEffectUpdateDecorator::CTextureAnimationCCWDecorator>::~CDynamicPoolEx<NEffectUpdateDecorator::CTextureAnimationCCWDecorator>
??__F?ms_kPool@?$CPooledObject@VCTextureAnimationCCWDecorator@NEffectUpdateDecorator@@@@1V?$CDynamicPoolEx@VCTextureAnimationCCWDecorator@NEffectUpdateDecorator@@@@A@@YAXXZ ENDP ; `dynamic atexit destructor for 'CPooledObject<NEffectUpdateDecorator::CTextureAnimationCCWDecorator>::ms_kPool''
text$yd	ENDS
; Function compile flags: /Ogtp
; File D:\Metin2 Server Files\mainline\SRC_2014\Metin2Client\eterLib\Pool.h
;	COMDAT ??__E?ms_kPool@?$CPooledObject@VCTextureAnimationCCWDecorator@NEffectUpdateDecorator@@@@1V?$CDynamicPoolEx@VCTextureAnimationCCWDecorator@NEffectUpdateDecorator@@@@A@@YAXXZ
text$di	SEGMENT
??__E?ms_kPool@?$CPooledObject@VCTextureAnimationCCWDecorator@NEffectUpdateDecorator@@@@1V?$CDynamicPoolEx@VCTextureAnimationCCWDecorator@NEffectUpdateDecorator@@@@A@@YAXXZ PROC ; `dynamic initializer for 'CPooledObject<NEffectUpdateDecorator::CTextureAnimationCCWDecorator>::ms_kPool'', COMDAT

; 272  : template <class T> CDynamicPoolEx<T> CPooledObject<T>::ms_kPool;

  00000	68 00 00 00 00	 push	 OFFSET ??__F?ms_kPool@?$CPooledObject@VCTextureAnimationCCWDecorator@NEffectUpdateDecorator@@@@1V?$CDynamicPoolEx@VCTextureAnimationCCWDecorator@NEffectUpdateDecorator@@@@A@@YAXXZ ; `dynamic atexit destructor for 'CPooledObject<NEffectUpdateDecorator::CTextureAnimationCCWDecorator>::ms_kPool''
  00005	e8 00 00 00 00	 call	 _atexit
  0000a	59		 pop	 ecx
  0000b	c3		 ret	 0
??__E?ms_kPool@?$CPooledObject@VCTextureAnimationCCWDecorator@NEffectUpdateDecorator@@@@1V?$CDynamicPoolEx@VCTextureAnimationCCWDecorator@NEffectUpdateDecorator@@@@A@@YAXXZ ENDP ; `dynamic initializer for 'CPooledObject<NEffectUpdateDecorator::CTextureAnimationCCWDecorator>::ms_kPool''
text$di	ENDS
; Function compile flags: /Ogtp
;	COMDAT ??__F?ms_kPool@?$CPooledObject@VCTextureAnimationCWDecorator@NEffectUpdateDecorator@@@@1V?$CDynamicPoolEx@VCTextureAnimationCWDecorator@NEffectUpdateDecorator@@@@A@@YAXXZ
text$yd	SEGMENT
??__F?ms_kPool@?$CPooledObject@VCTextureAnimationCWDecorator@NEffectUpdateDecorator@@@@1V?$CDynamicPoolEx@VCTextureAnimationCWDecorator@NEffectUpdateDecorator@@@@A@@YAXXZ PROC ; `dynamic atexit destructor for 'CPooledObject<NEffectUpdateDecorator::CTextureAnimationCWDecorator>::ms_kPool'', COMDAT
  00000	b9 00 00 00 00	 mov	 ecx, OFFSET ?ms_kPool@?$CPooledObject@VCTextureAnimationCWDecorator@NEffectUpdateDecorator@@@@1V?$CDynamicPoolEx@VCTextureAnimationCWDecorator@NEffectUpdateDecorator@@@@A ; CPooledObject<NEffectUpdateDecorator::CTextureAnimationCWDecorator>::ms_kPool
  00005	e9 00 00 00 00	 jmp	 ??1?$CDynamicPoolEx@VCTextureAnimationCWDecorator@NEffectUpdateDecorator@@@@UAE@XZ ; CDynamicPoolEx<NEffectUpdateDecorator::CTextureAnimationCWDecorator>::~CDynamicPoolEx<NEffectUpdateDecorator::CTextureAnimationCWDecorator>
??__F?ms_kPool@?$CPooledObject@VCTextureAnimationCWDecorator@NEffectUpdateDecorator@@@@1V?$CDynamicPoolEx@VCTextureAnimationCWDecorator@NEffectUpdateDecorator@@@@A@@YAXXZ ENDP ; `dynamic atexit destructor for 'CPooledObject<NEffectUpdateDecorator::CTextureAnimationCWDecorator>::ms_kPool''
text$yd	ENDS
; Function compile flags: /Ogtp
; File D:\Metin2 Server Files\mainline\SRC_2014\Metin2Client\eterLib\Pool.h
;	COMDAT ??__E?ms_kPool@?$CPooledObject@VCTextureAnimationCWDecorator@NEffectUpdateDecorator@@@@1V?$CDynamicPoolEx@VCTextureAnimationCWDecorator@NEffectUpdateDecorator@@@@A@@YAXXZ
text$di	SEGMENT
??__E?ms_kPool@?$CPooledObject@VCTextureAnimationCWDecorator@NEffectUpdateDecorator@@@@1V?$CDynamicPoolEx@VCTextureAnimationCWDecorator@NEffectUpdateDecorator@@@@A@@YAXXZ PROC ; `dynamic initializer for 'CPooledObject<NEffectUpdateDecorator::CTextureAnimationCWDecorator>::ms_kPool'', COMDAT

; 272  : template <class T> CDynamicPoolEx<T> CPooledObject<T>::ms_kPool;

  00000	68 00 00 00 00	 push	 OFFSET ??__F?ms_kPool@?$CPooledObject@VCTextureAnimationCWDecorator@NEffectUpdateDecorator@@@@1V?$CDynamicPoolEx@VCTextureAnimationCWDecorator@NEffectUpdateDecorator@@@@A@@YAXXZ ; `dynamic atexit destructor for 'CPooledObject<NEffectUpdateDecorator::CTextureAnimationCWDecorator>::ms_kPool''
  00005	e8 00 00 00 00	 call	 _atexit
  0000a	59		 pop	 ecx
  0000b	c3		 ret	 0
??__E?ms_kPool@?$CPooledObject@VCTextureAnimationCWDecorator@NEffectUpdateDecorator@@@@1V?$CDynamicPoolEx@VCTextureAnimationCWDecorator@NEffectUpdateDecorator@@@@A@@YAXXZ ENDP ; `dynamic initializer for 'CPooledObject<NEffectUpdateDecorator::CTextureAnimationCWDecorator>::ms_kPool''
text$di	ENDS
; Function compile flags: /Ogtp
;	COMDAT ??__F?ms_kPool@?$CPooledObject@VCNullDecorator@NEffectUpdateDecorator@@@@1V?$CDynamicPoolEx@VCNullDecorator@NEffectUpdateDecorator@@@@A@@YAXXZ
text$yd	SEGMENT
??__F?ms_kPool@?$CPooledObject@VCNullDecorator@NEffectUpdateDecorator@@@@1V?$CDynamicPoolEx@VCNullDecorator@NEffectUpdateDecorator@@@@A@@YAXXZ PROC ; `dynamic atexit destructor for 'CPooledObject<NEffectUpdateDecorator::CNullDecorator>::ms_kPool'', COMDAT
  00000	b9 00 00 00 00	 mov	 ecx, OFFSET ?ms_kPool@?$CPooledObject@VCNullDecorator@NEffectUpdateDecorator@@@@1V?$CDynamicPoolEx@VCNullDecorator@NEffectUpdateDecorator@@@@A ; CPooledObject<NEffectUpdateDecorator::CNullDecorator>::ms_kPool
  00005	e9 00 00 00 00	 jmp	 ??1?$CDynamicPoolEx@VCNullDecorator@NEffectUpdateDecorator@@@@UAE@XZ ; CDynamicPoolEx<NEffectUpdateDecorator::CNullDecorator>::~CDynamicPoolEx<NEffectUpdateDecorator::CNullDecorator>
??__F?ms_kPool@?$CPooledObject@VCNullDecorator@NEffectUpdateDecorator@@@@1V?$CDynamicPoolEx@VCNullDecorator@NEffectUpdateDecorator@@@@A@@YAXXZ ENDP ; `dynamic atexit destructor for 'CPooledObject<NEffectUpdateDecorator::CNullDecorator>::ms_kPool''
text$yd	ENDS
; Function compile flags: /Ogtp
; File D:\Metin2 Server Files\mainline\SRC_2014\Metin2Client\eterLib\Pool.h
;	COMDAT ??__E?ms_kPool@?$CPooledObject@VCNullDecorator@NEffectUpdateDecorator@@@@1V?$CDynamicPoolEx@VCNullDecorator@NEffectUpdateDecorator@@@@A@@YAXXZ
text$di	SEGMENT
??__E?ms_kPool@?$CPooledObject@VCNullDecorator@NEffectUpdateDecorator@@@@1V?$CDynamicPoolEx@VCNullDecorator@NEffectUpdateDecorator@@@@A@@YAXXZ PROC ; `dynamic initializer for 'CPooledObject<NEffectUpdateDecorator::CNullDecorator>::ms_kPool'', COMDAT

; 272  : template <class T> CDynamicPoolEx<T> CPooledObject<T>::ms_kPool;

  00000	68 00 00 00 00	 push	 OFFSET ??__F?ms_kPool@?$CPooledObject@VCNullDecorator@NEffectUpdateDecorator@@@@1V?$CDynamicPoolEx@VCNullDecorator@NEffectUpdateDecorator@@@@A@@YAXXZ ; `dynamic atexit destructor for 'CPooledObject<NEffectUpdateDecorator::CNullDecorator>::ms_kPool''
  00005	e8 00 00 00 00	 call	 _atexit
  0000a	59		 pop	 ecx
  0000b	c3		 ret	 0
??__E?ms_kPool@?$CPooledObject@VCNullDecorator@NEffectUpdateDecorator@@@@1V?$CDynamicPoolEx@VCNullDecorator@NEffectUpdateDecorator@@@@A@@YAXXZ ENDP ; `dynamic initializer for 'CPooledObject<NEffectUpdateDecorator::CNullDecorator>::ms_kPool''
text$di	ENDS
; Function compile flags: /Ogtp
;	COMDAT ??__F?ms_kPool@?$CPooledObject@VCHeaderDecorator@NEffectUpdateDecorator@@@@1V?$CDynamicPoolEx@VCHeaderDecorator@NEffectUpdateDecorator@@@@A@@YAXXZ
text$yd	SEGMENT
??__F?ms_kPool@?$CPooledObject@VCHeaderDecorator@NEffectUpdateDecorator@@@@1V?$CDynamicPoolEx@VCHeaderDecorator@NEffectUpdateDecorator@@@@A@@YAXXZ PROC ; `dynamic atexit destructor for 'CPooledObject<NEffectUpdateDecorator::CHeaderDecorator>::ms_kPool'', COMDAT
  00000	b9 00 00 00 00	 mov	 ecx, OFFSET ?ms_kPool@?$CPooledObject@VCHeaderDecorator@NEffectUpdateDecorator@@@@1V?$CDynamicPoolEx@VCHeaderDecorator@NEffectUpdateDecorator@@@@A ; CPooledObject<NEffectUpdateDecorator::CHeaderDecorator>::ms_kPool
  00005	e9 00 00 00 00	 jmp	 ??1?$CDynamicPoolEx@VCHeaderDecorator@NEffectUpdateDecorator@@@@UAE@XZ ; CDynamicPoolEx<NEffectUpdateDecorator::CHeaderDecorator>::~CDynamicPoolEx<NEffectUpdateDecorator::CHeaderDecorator>
??__F?ms_kPool@?$CPooledObject@VCHeaderDecorator@NEffectUpdateDecorator@@@@1V?$CDynamicPoolEx@VCHeaderDecorator@NEffectUpdateDecorator@@@@A@@YAXXZ ENDP ; `dynamic atexit destructor for 'CPooledObject<NEffectUpdateDecorator::CHeaderDecorator>::ms_kPool''
text$yd	ENDS
; Function compile flags: /Ogtp
; File D:\Metin2 Server Files\mainline\SRC_2014\Metin2Client\eterLib\Pool.h
;	COMDAT ??__E?ms_kPool@?$CPooledObject@VCHeaderDecorator@NEffectUpdateDecorator@@@@1V?$CDynamicPoolEx@VCHeaderDecorator@NEffectUpdateDecorator@@@@A@@YAXXZ
text$di	SEGMENT
??__E?ms_kPool@?$CPooledObject@VCHeaderDecorator@NEffectUpdateDecorator@@@@1V?$CDynamicPoolEx@VCHeaderDecorator@NEffectUpdateDecorator@@@@A@@YAXXZ PROC ; `dynamic initializer for 'CPooledObject<NEffectUpdateDecorator::CHeaderDecorator>::ms_kPool'', COMDAT

; 272  : template <class T> CDynamicPoolEx<T> CPooledObject<T>::ms_kPool;

  00000	68 00 00 00 00	 push	 OFFSET ??__F?ms_kPool@?$CPooledObject@VCHeaderDecorator@NEffectUpdateDecorator@@@@1V?$CDynamicPoolEx@VCHeaderDecorator@NEffectUpdateDecorator@@@@A@@YAXXZ ; `dynamic atexit destructor for 'CPooledObject<NEffectUpdateDecorator::CHeaderDecorator>::ms_kPool''
  00005	e8 00 00 00 00	 call	 _atexit
  0000a	59		 pop	 ecx
  0000b	c3		 ret	 0
??__E?ms_kPool@?$CPooledObject@VCHeaderDecorator@NEffectUpdateDecorator@@@@1V?$CDynamicPoolEx@VCHeaderDecorator@NEffectUpdateDecorator@@@@A@@YAXXZ ENDP ; `dynamic initializer for 'CPooledObject<NEffectUpdateDecorator::CHeaderDecorator>::ms_kPool''
text$di	ENDS
; Function compile flags: /Ogtp
; File C:\Program Files (x86)\Microsoft Visual Studio\2019\Community\VC\Tools\MSVC\14.28.29333\include\xmemory
;	COMDAT ??$_Destroy_range@V?$allocator@PAVCRotationDecorator@NEffectUpdateDecorator@@@std@@@std@@YAXPAPAVCRotationDecorator@NEffectUpdateDecorator@@QAPAV12@AAV?$allocator@PAVCRotationDecorator@NEffectUpdateDecorator@@@0@@Z
_TEXT	SEGMENT
__First$ = 8						; size = 4
__Last$ = 12						; size = 4
__Al$ = 16						; size = 4
??$_Destroy_range@V?$allocator@PAVCRotationDecorator@NEffectUpdateDecorator@@@std@@@std@@YAXPAPAVCRotationDecorator@NEffectUpdateDecorator@@QAPAV12@AAV?$allocator@PAVCRotationDecorator@NEffectUpdateDecorator@@@0@@Z PROC ; std::_Destroy_range<std::allocator<NEffectUpdateDecorator::CRotationDecorator *> >, COMDAT

; 963  :     // note that this is an optimization for debug mode codegen; in release mode the BE removes all of this
; 964  :     using _Ty = typename _Alloc::value_type;
; 965  :     if _CONSTEXPR_IF (!conjunction_v<is_trivially_destructible<_Ty>, _Uses_default_destroy<_Alloc, _Ty*>>) {
; 966  :         for (; _First != _Last; ++_First) {
; 967  :             allocator_traits<_Alloc>::destroy(_Al, _Unfancy(_First));
; 968  :         }
; 969  :     }
; 970  : }

  00000	c2 00 00	 ret	 0
??$_Destroy_range@V?$allocator@PAVCRotationDecorator@NEffectUpdateDecorator@@@std@@@std@@YAXPAPAVCRotationDecorator@NEffectUpdateDecorator@@QAPAV12@AAV?$allocator@PAVCRotationDecorator@NEffectUpdateDecorator@@@0@@Z ENDP ; std::_Destroy_range<std::allocator<NEffectUpdateDecorator::CRotationDecorator *> >
_TEXT	ENDS
; Function compile flags: /Ogtp
; File C:\Program Files (x86)\Microsoft Visual Studio\2019\Community\VC\Tools\MSVC\14.28.29333\include\xmemory
;	COMDAT ??$_Destroy_range@V?$allocator@PAVCGravityDecorator@NEffectUpdateDecorator@@@std@@@std@@YAXPAPAVCGravityDecorator@NEffectUpdateDecorator@@QAPAV12@AAV?$allocator@PAVCGravityDecorator@NEffectUpdateDecorator@@@0@@Z
_TEXT	SEGMENT
__First$ = 8						; size = 4
__Last$ = 12						; size = 4
__Al$ = 16						; size = 4
??$_Destroy_range@V?$allocator@PAVCGravityDecorator@NEffectUpdateDecorator@@@std@@@std@@YAXPAPAVCGravityDecorator@NEffectUpdateDecorator@@QAPAV12@AAV?$allocator@PAVCGravityDecorator@NEffectUpdateDecorator@@@0@@Z PROC ; std::_Destroy_range<std::allocator<NEffectUpdateDecorator::CGravityDecorator *> >, COMDAT

; 963  :     // note that this is an optimization for debug mode codegen; in release mode the BE removes all of this
; 964  :     using _Ty = typename _Alloc::value_type;
; 965  :     if _CONSTEXPR_IF (!conjunction_v<is_trivially_destructible<_Ty>, _Uses_default_destroy<_Alloc, _Ty*>>) {
; 966  :         for (; _First != _Last; ++_First) {
; 967  :             allocator_traits<_Alloc>::destroy(_Al, _Unfancy(_First));
; 968  :         }
; 969  :     }
; 970  : }

  00000	c2 00 00	 ret	 0
??$_Destroy_range@V?$allocator@PAVCGravityDecorator@NEffectUpdateDecorator@@@std@@@std@@YAXPAPAVCGravityDecorator@NEffectUpdateDecorator@@QAPAV12@AAV?$allocator@PAVCGravityDecorator@NEffectUpdateDecorator@@@0@@Z ENDP ; std::_Destroy_range<std::allocator<NEffectUpdateDecorator::CGravityDecorator *> >
_TEXT	ENDS
; Function compile flags: /Ogtp
; File C:\Program Files (x86)\Microsoft Visual Studio\2019\Community\VC\Tools\MSVC\14.28.29333\include\xmemory
;	COMDAT ??$_Destroy_range@V?$allocator@PAVCAirResistanceDecorator@NEffectUpdateDecorator@@@std@@@std@@YAXPAPAVCAirResistanceDecorator@NEffectUpdateDecorator@@QAPAV12@AAV?$allocator@PAVCAirResistanceDecorator@NEffectUpdateDecorator@@@0@@Z
_TEXT	SEGMENT
__First$ = 8						; size = 4
__Last$ = 12						; size = 4
__Al$ = 16						; size = 4
??$_Destroy_range@V?$allocator@PAVCAirResistanceDecorator@NEffectUpdateDecorator@@@std@@@std@@YAXPAPAVCAirResistanceDecorator@NEffectUpdateDecorator@@QAPAV12@AAV?$allocator@PAVCAirResistanceDecorator@NEffectUpdateDecorator@@@0@@Z PROC ; std::_Destroy_range<std::allocator<NEffectUpdateDecorator::CAirResistanceDecorator *> >, COMDAT

; 963  :     // note that this is an optimization for debug mode codegen; in release mode the BE removes all of this
; 964  :     using _Ty = typename _Alloc::value_type;
; 965  :     if _CONSTEXPR_IF (!conjunction_v<is_trivially_destructible<_Ty>, _Uses_default_destroy<_Alloc, _Ty*>>) {
; 966  :         for (; _First != _Last; ++_First) {
; 967  :             allocator_traits<_Alloc>::destroy(_Al, _Unfancy(_First));
; 968  :         }
; 969  :     }
; 970  : }

  00000	c2 00 00	 ret	 0
??$_Destroy_range@V?$allocator@PAVCAirResistanceDecorator@NEffectUpdateDecorator@@@std@@@std@@YAXPAPAVCAirResistanceDecorator@NEffectUpdateDecorator@@QAPAV12@AAV?$allocator@PAVCAirResistanceDecorator@NEffectUpdateDecorator@@@0@@Z ENDP ; std::_Destroy_range<std::allocator<NEffectUpdateDecorator::CAirResistanceDecorator *> >
_TEXT	ENDS
; Function compile flags: /Ogtp
; File C:\Program Files (x86)\Microsoft Visual Studio\2019\Community\VC\Tools\MSVC\14.28.29333\include\xmemory
;	COMDAT ??$_Destroy_range@V?$allocator@PAVCTextureAnimationRandomDecorator@NEffectUpdateDecorator@@@std@@@std@@YAXPAPAVCTextureAnimationRandomDecorator@NEffectUpdateDecorator@@QAPAV12@AAV?$allocator@PAVCTextureAnimationRandomDecorator@NEffectUpdateDecorator@@@0@@Z
_TEXT	SEGMENT
__First$ = 8						; size = 4
__Last$ = 12						; size = 4
__Al$ = 16						; size = 4
??$_Destroy_range@V?$allocator@PAVCTextureAnimationRandomDecorator@NEffectUpdateDecorator@@@std@@@std@@YAXPAPAVCTextureAnimationRandomDecorator@NEffectUpdateDecorator@@QAPAV12@AAV?$allocator@PAVCTextureAnimationRandomDecorator@NEffectUpdateDecorator@@@0@@Z PROC ; std::_Destroy_range<std::allocator<NEffectUpdateDecorator::CTextureAnimationRandomDecorator *> >, COMDAT

; 963  :     // note that this is an optimization for debug mode codegen; in release mode the BE removes all of this
; 964  :     using _Ty = typename _Alloc::value_type;
; 965  :     if _CONSTEXPR_IF (!conjunction_v<is_trivially_destructible<_Ty>, _Uses_default_destroy<_Alloc, _Ty*>>) {
; 966  :         for (; _First != _Last; ++_First) {
; 967  :             allocator_traits<_Alloc>::destroy(_Al, _Unfancy(_First));
; 968  :         }
; 969  :     }
; 970  : }

  00000	c2 00 00	 ret	 0
??$_Destroy_range@V?$allocator@PAVCTextureAnimationRandomDecorator@NEffectUpdateDecorator@@@std@@@std@@YAXPAPAVCTextureAnimationRandomDecorator@NEffectUpdateDecorator@@QAPAV12@AAV?$allocator@PAVCTextureAnimationRandomDecorator@NEffectUpdateDecorator@@@0@@Z ENDP ; std::_Destroy_range<std::allocator<NEffectUpdateDecorator::CTextureAnimationRandomDecorator *> >
_TEXT	ENDS
; Function compile flags: /Ogtp
; File C:\Program Files (x86)\Microsoft Visual Studio\2019\Community\VC\Tools\MSVC\14.28.29333\include\xmemory
;	COMDAT ??$_Destroy_range@V?$allocator@PAVCTextureAnimationCCWDecorator@NEffectUpdateDecorator@@@std@@@std@@YAXPAPAVCTextureAnimationCCWDecorator@NEffectUpdateDecorator@@QAPAV12@AAV?$allocator@PAVCTextureAnimationCCWDecorator@NEffectUpdateDecorator@@@0@@Z
_TEXT	SEGMENT
__First$ = 8						; size = 4
__Last$ = 12						; size = 4
__Al$ = 16						; size = 4
??$_Destroy_range@V?$allocator@PAVCTextureAnimationCCWDecorator@NEffectUpdateDecorator@@@std@@@std@@YAXPAPAVCTextureAnimationCCWDecorator@NEffectUpdateDecorator@@QAPAV12@AAV?$allocator@PAVCTextureAnimationCCWDecorator@NEffectUpdateDecorator@@@0@@Z PROC ; std::_Destroy_range<std::allocator<NEffectUpdateDecorator::CTextureAnimationCCWDecorator *> >, COMDAT

; 963  :     // note that this is an optimization for debug mode codegen; in release mode the BE removes all of this
; 964  :     using _Ty = typename _Alloc::value_type;
; 965  :     if _CONSTEXPR_IF (!conjunction_v<is_trivially_destructible<_Ty>, _Uses_default_destroy<_Alloc, _Ty*>>) {
; 966  :         for (; _First != _Last; ++_First) {
; 967  :             allocator_traits<_Alloc>::destroy(_Al, _Unfancy(_First));
; 968  :         }
; 969  :     }
; 970  : }

  00000	c2 00 00	 ret	 0
??$_Destroy_range@V?$allocator@PAVCTextureAnimationCCWDecorator@NEffectUpdateDecorator@@@std@@@std@@YAXPAPAVCTextureAnimationCCWDecorator@NEffectUpdateDecorator@@QAPAV12@AAV?$allocator@PAVCTextureAnimationCCWDecorator@NEffectUpdateDecorator@@@0@@Z ENDP ; std::_Destroy_range<std::allocator<NEffectUpdateDecorator::CTextureAnimationCCWDecorator *> >
_TEXT	ENDS
; Function compile flags: /Ogtp
; File C:\Program Files (x86)\Microsoft Visual Studio\2019\Community\VC\Tools\MSVC\14.28.29333\include\xmemory
;	COMDAT ??$_Destroy_range@V?$allocator@PAVCTextureAnimationCWDecorator@NEffectUpdateDecorator@@@std@@@std@@YAXPAPAVCTextureAnimationCWDecorator@NEffectUpdateDecorator@@QAPAV12@AAV?$allocator@PAVCTextureAnimationCWDecorator@NEffectUpdateDecorator@@@0@@Z
_TEXT	SEGMENT
__First$ = 8						; size = 4
__Last$ = 12						; size = 4
__Al$ = 16						; size = 4
??$_Destroy_range@V?$allocator@PAVCTextureAnimationCWDecorator@NEffectUpdateDecorator@@@std@@@std@@YAXPAPAVCTextureAnimationCWDecorator@NEffectUpdateDecorator@@QAPAV12@AAV?$allocator@PAVCTextureAnimationCWDecorator@NEffectUpdateDecorator@@@0@@Z PROC ; std::_Destroy_range<std::allocator<NEffectUpdateDecorator::CTextureAnimationCWDecorator *> >, COMDAT

; 963  :     // note that this is an optimization for debug mode codegen; in release mode the BE removes all of this
; 964  :     using _Ty = typename _Alloc::value_type;
; 965  :     if _CONSTEXPR_IF (!conjunction_v<is_trivially_destructible<_Ty>, _Uses_default_destroy<_Alloc, _Ty*>>) {
; 966  :         for (; _First != _Last; ++_First) {
; 967  :             allocator_traits<_Alloc>::destroy(_Al, _Unfancy(_First));
; 968  :         }
; 969  :     }
; 970  : }

  00000	c2 00 00	 ret	 0
??$_Destroy_range@V?$allocator@PAVCTextureAnimationCWDecorator@NEffectUpdateDecorator@@@std@@@std@@YAXPAPAVCTextureAnimationCWDecorator@NEffectUpdateDecorator@@QAPAV12@AAV?$allocator@PAVCTextureAnimationCWDecorator@NEffectUpdateDecorator@@@0@@Z ENDP ; std::_Destroy_range<std::allocator<NEffectUpdateDecorator::CTextureAnimationCWDecorator *> >
_TEXT	ENDS
; Function compile flags: /Ogtp
; File C:\Program Files (x86)\Microsoft Visual Studio\2019\Community\VC\Tools\MSVC\14.28.29333\include\xmemory
;	COMDAT ??$_Destroy_range@V?$allocator@PAVCNullDecorator@NEffectUpdateDecorator@@@std@@@std@@YAXPAPAVCNullDecorator@NEffectUpdateDecorator@@QAPAV12@AAV?$allocator@PAVCNullDecorator@NEffectUpdateDecorator@@@0@@Z
_TEXT	SEGMENT
__First$ = 8						; size = 4
__Last$ = 12						; size = 4
__Al$ = 16						; size = 4
??$_Destroy_range@V?$allocator@PAVCNullDecorator@NEffectUpdateDecorator@@@std@@@std@@YAXPAPAVCNullDecorator@NEffectUpdateDecorator@@QAPAV12@AAV?$allocator@PAVCNullDecorator@NEffectUpdateDecorator@@@0@@Z PROC ; std::_Destroy_range<std::allocator<NEffectUpdateDecorator::CNullDecorator *> >, COMDAT

; 963  :     // note that this is an optimization for debug mode codegen; in release mode the BE removes all of this
; 964  :     using _Ty = typename _Alloc::value_type;
; 965  :     if _CONSTEXPR_IF (!conjunction_v<is_trivially_destructible<_Ty>, _Uses_default_destroy<_Alloc, _Ty*>>) {
; 966  :         for (; _First != _Last; ++_First) {
; 967  :             allocator_traits<_Alloc>::destroy(_Al, _Unfancy(_First));
; 968  :         }
; 969  :     }
; 970  : }

  00000	c2 00 00	 ret	 0
??$_Destroy_range@V?$allocator@PAVCNullDecorator@NEffectUpdateDecorator@@@std@@@std@@YAXPAPAVCNullDecorator@NEffectUpdateDecorator@@QAPAV12@AAV?$allocator@PAVCNullDecorator@NEffectUpdateDecorator@@@0@@Z ENDP ; std::_Destroy_range<std::allocator<NEffectUpdateDecorator::CNullDecorator *> >
_TEXT	ENDS
; Function compile flags: /Ogtp
; File C:\Program Files (x86)\Microsoft Visual Studio\2019\Community\VC\Tools\MSVC\14.28.29333\include\xmemory
;	COMDAT ??$_Destroy_range@V?$allocator@PAVCHeaderDecorator@NEffectUpdateDecorator@@@std@@@std@@YAXPAPAVCHeaderDecorator@NEffectUpdateDecorator@@QAPAV12@AAV?$allocator@PAVCHeaderDecorator@NEffectUpdateDecorator@@@0@@Z
_TEXT	SEGMENT
__First$ = 8						; size = 4
__Last$ = 12						; size = 4
__Al$ = 16						; size = 4
??$_Destroy_range@V?$allocator@PAVCHeaderDecorator@NEffectUpdateDecorator@@@std@@@std@@YAXPAPAVCHeaderDecorator@NEffectUpdateDecorator@@QAPAV12@AAV?$allocator@PAVCHeaderDecorator@NEffectUpdateDecorator@@@0@@Z PROC ; std::_Destroy_range<std::allocator<NEffectUpdateDecorator::CHeaderDecorator *> >, COMDAT

; 963  :     // note that this is an optimization for debug mode codegen; in release mode the BE removes all of this
; 964  :     using _Ty = typename _Alloc::value_type;
; 965  :     if _CONSTEXPR_IF (!conjunction_v<is_trivially_destructible<_Ty>, _Uses_default_destroy<_Alloc, _Ty*>>) {
; 966  :         for (; _First != _Last; ++_First) {
; 967  :             allocator_traits<_Alloc>::destroy(_Al, _Unfancy(_First));
; 968  :         }
; 969  :     }
; 970  : }

  00000	c2 00 00	 ret	 0
??$_Destroy_range@V?$allocator@PAVCHeaderDecorator@NEffectUpdateDecorator@@@std@@@std@@YAXPAPAVCHeaderDecorator@NEffectUpdateDecorator@@QAPAV12@AAV?$allocator@PAVCHeaderDecorator@NEffectUpdateDecorator@@@0@@Z ENDP ; std::_Destroy_range<std::allocator<NEffectUpdateDecorator::CHeaderDecorator *> >
_TEXT	ENDS
; Function compile flags: /Ogtp
;	COMDAT ??_G?$CDynamicPoolEx@VCHeaderDecorator@NEffectUpdateDecorator@@@@UAEPAXI@Z
_TEXT	SEGMENT
___flags$ = 8						; size = 4
??_G?$CDynamicPoolEx@VCHeaderDecorator@NEffectUpdateDecorator@@@@UAEPAXI@Z PROC ; CDynamicPoolEx<NEffectUpdateDecorator::CHeaderDecorator>::`scalar deleting destructor', COMDAT
; _this$ = ecx
  00000	55		 push	 ebp
  00001	8b ec		 mov	 ebp, esp
  00003	56		 push	 esi
  00004	8b f1		 mov	 esi, ecx
  00006	e8 00 00 00 00	 call	 ??1?$CDynamicPoolEx@VCHeaderDecorator@NEffectUpdateDecorator@@@@UAE@XZ ; CDynamicPoolEx<NEffectUpdateDecorator::CHeaderDecorator>::~CDynamicPoolEx<NEffectUpdateDecorator::CHeaderDecorator>
  0000b	f6 45 08 01	 test	 BYTE PTR ___flags$[ebp], 1
  0000f	74 0b		 je	 SHORT $LN4@scalar
  00011	6a 24		 push	 36			; 00000024H
  00013	56		 push	 esi
  00014	e8 00 00 00 00	 call	 ??3@YAXPAXI@Z		; operator delete
  00019	83 c4 08	 add	 esp, 8
$LN4@scalar:
  0001c	8b c6		 mov	 eax, esi
  0001e	5e		 pop	 esi
  0001f	5d		 pop	 ebp
  00020	c2 04 00	 ret	 4
??_G?$CDynamicPoolEx@VCHeaderDecorator@NEffectUpdateDecorator@@@@UAEPAXI@Z ENDP ; CDynamicPoolEx<NEffectUpdateDecorator::CHeaderDecorator>::`scalar deleting destructor'
_TEXT	ENDS
; Function compile flags: /Ogtp
; File D:\Metin2 Server Files\mainline\SRC_2014\Metin2Client\eterLib\Pool.h
;	COMDAT ?Delete@?$CDynamicPoolEx@VCHeaderDecorator@NEffectUpdateDecorator@@@@KAXPAVCHeaderDecorator@NEffectUpdateDecorator@@@Z
_TEXT	SEGMENT
_pkData$ = 8						; size = 4
?Delete@?$CDynamicPoolEx@VCHeaderDecorator@NEffectUpdateDecorator@@@@KAXPAVCHeaderDecorator@NEffectUpdateDecorator@@@Z PROC ; CDynamicPoolEx<NEffectUpdateDecorator::CHeaderDecorator>::Delete, COMDAT

; 224  : 			::operator delete(pkData);

  00000	e9 00 00 00 00	 jmp	 ??3@YAXPAX@Z		; operator delete
?Delete@?$CDynamicPoolEx@VCHeaderDecorator@NEffectUpdateDecorator@@@@KAXPAVCHeaderDecorator@NEffectUpdateDecorator@@@Z ENDP ; CDynamicPoolEx<NEffectUpdateDecorator::CHeaderDecorator>::Delete
_TEXT	ENDS
; Function compile flags: /Ogtp
; File D:\Metin2 Server Files\mainline\SRC_2014\Metin2Client\eterLib\Pool.h
; File C:\Program Files (x86)\Microsoft Visual Studio\2019\Community\VC\Tools\MSVC\14.28.29333\include\vector
; File C:\Program Files (x86)\Microsoft Visual Studio\2019\Community\VC\Tools\MSVC\14.28.29333\include\algorithm
; File D:\Metin2 Server Files\mainline\SRC_2014\Metin2Client\eterLib\Pool.h
; File C:\Program Files (x86)\Microsoft Visual Studio\2019\Community\VC\Tools\MSVC\14.28.29333\include\algorithm
; File D:\Metin2 Server Files\mainline\SRC_2014\Metin2Client\eterLib\Pool.h
; File C:\Program Files (x86)\Microsoft Visual Studio\2019\Community\VC\Tools\MSVC\14.28.29333\include\algorithm
; File D:\Metin2 Server Files\mainline\SRC_2014\Metin2Client\eterLib\Pool.h
; File C:\Program Files (x86)\Microsoft Visual Studio\2019\Community\VC\Tools\MSVC\14.28.29333\include\vector
; File C:\Program Files (x86)\Microsoft Visual Studio\2019\Community\VC\Tools\MSVC\14.28.29333\include\xmemory
; File C:\Program Files (x86)\Microsoft Visual Studio\2019\Community\VC\Tools\MSVC\14.28.29333\include\vector
; File C:\Program Files (x86)\Microsoft Visual Studio\2019\Community\VC\Tools\MSVC\14.28.29333\include\xmemory
; File C:\Program Files (x86)\Microsoft Visual Studio\2019\Community\VC\Tools\MSVC\14.28.29333\include\vector
; File C:\Program Files (x86)\Microsoft Visual Studio\2019\Community\VC\Tools\MSVC\14.28.29333\include\xmemory
; File C:\Program Files (x86)\Microsoft Visual Studio\2019\Community\VC\Tools\MSVC\14.28.29333\include\vector
; File C:\Program Files (x86)\Microsoft Visual Studio\2019\Community\VC\Tools\MSVC\14.28.29333\include\xmemory
; File C:\Program Files (x86)\Microsoft Visual Studio\2019\Community\VC\Tools\MSVC\14.28.29333\include\vector
; File D:\Metin2 Server Files\mainline\SRC_2014\Metin2Client\eterLib\Pool.h
;	COMDAT ??1?$CDynamicPoolEx@VCHeaderDecorator@NEffectUpdateDecorator@@@@UAE@XZ
_TEXT	SEGMENT
??1?$CDynamicPoolEx@VCHeaderDecorator@NEffectUpdateDecorator@@@@UAE@XZ PROC ; CDynamicPoolEx<NEffectUpdateDecorator::CHeaderDecorator>::~CDynamicPoolEx<NEffectUpdateDecorator::CHeaderDecorator>, COMDAT
; _this$ = ecx

; 132  : 		{

  00000	53		 push	 ebx
  00001	56		 push	 esi
  00002	57		 push	 edi
  00003	8b f9		 mov	 edi, ecx
  00005	c7 07 00 00 00
	00		 mov	 DWORD PTR [edi], OFFSET ??_7?$CDynamicPoolEx@VCHeaderDecorator@NEffectUpdateDecorator@@@@6B@
; File C:\Program Files (x86)\Microsoft Visual Studio\2019\Community\VC\Tools\MSVC\14.28.29333\include\vector

; 42   :     _Vector_const_iterator(_Tptr _Parg, const _Container_base* _Pvector) noexcept : _Ptr(_Parg) {

  0000b	8b 5f 08	 mov	 ebx, DWORD PTR [edi+8]
  0000e	8b 77 04	 mov	 esi, DWORD PTR [edi+4]
; File C:\Program Files (x86)\Microsoft Visual Studio\2019\Community\VC\Tools\MSVC\14.28.29333\include\algorithm

; 307  :     for (; _UFirst != _ULast; ++_UFirst) {

  00011	3b f3		 cmp	 esi, ebx
  00013	74 14		 je	 SHORT $LN19@CDynamicPo
$LL20@CDynamicPo:
; File D:\Metin2 Server Files\mainline\SRC_2014\Metin2Client\eterLib\Pool.h

; 224  : 			::operator delete(pkData);

  00015	ff 36		 push	 DWORD PTR [esi]
  00017	e8 00 00 00 00	 call	 ??3@YAXPAX@Z		; operator delete
; File C:\Program Files (x86)\Microsoft Visual Studio\2019\Community\VC\Tools\MSVC\14.28.29333\include\algorithm

; 307  :     for (; _UFirst != _ULast; ++_UFirst) {

  0001c	83 c6 04	 add	 esi, 4
; File D:\Metin2 Server Files\mainline\SRC_2014\Metin2Client\eterLib\Pool.h

; 224  : 			::operator delete(pkData);

  0001f	83 c4 04	 add	 esp, 4
; File C:\Program Files (x86)\Microsoft Visual Studio\2019\Community\VC\Tools\MSVC\14.28.29333\include\algorithm

; 307  :     for (; _UFirst != _ULast; ++_UFirst) {

  00022	3b f3		 cmp	 esi, ebx
  00024	75 ef		 jne	 SHORT $LL20@CDynamicPo
  00026	8b 77 04	 mov	 esi, DWORD PTR [edi+4]
$LN19@CDynamicPo:
; File D:\Metin2 Server Files\mainline\SRC_2014\Metin2Client\eterLib\Pool.h

; 162  : 			m_kVct_pkFree.clear();

  00029	8b 4f 10	 mov	 ecx, DWORD PTR [edi+16]
  0002c	89 77 08	 mov	 DWORD PTR [edi+8], esi
  0002f	89 4f 14	 mov	 DWORD PTR [edi+20], ecx
; File C:\Program Files (x86)\Microsoft Visual Studio\2019\Community\VC\Tools\MSVC\14.28.29333\include\vector

; 1694 :         if (_Myfirst) { // destroy and deallocate old array

  00032	85 c9		 test	 ecx, ecx
  00034	74 27		 je	 SHORT $LN27@CDynamicPo

; 1695 :             _Destroy(_Myfirst, _Mylast);
; 1696 :             _Getal().deallocate(_Myfirst, static_cast<size_type>(_Myend - _Myfirst));

  00036	8b 47 18	 mov	 eax, DWORD PTR [edi+24]
  00039	2b c1		 sub	 eax, ecx
; File C:\Program Files (x86)\Microsoft Visual Studio\2019\Community\VC\Tools\MSVC\14.28.29333\include\xmemory

; 810  :         _Deallocate<_New_alignof<_Ty>>(_Ptr, sizeof(_Ty) * _Count);

  0003b	83 e0 fc	 and	 eax, -4			; fffffffcH
  0003e	50		 push	 eax
  0003f	51		 push	 ecx
  00040	e8 00 00 00 00	 call	 ??$_Deallocate@$07$0A@@std@@YAXPAXI@Z ; std::_Deallocate<8,0>
; File C:\Program Files (x86)\Microsoft Visual Studio\2019\Community\VC\Tools\MSVC\14.28.29333\include\vector

; 1698 :             _Myfirst = pointer();

  00045	c7 47 10 00 00
	00 00		 mov	 DWORD PTR [edi+16], 0
; File C:\Program Files (x86)\Microsoft Visual Studio\2019\Community\VC\Tools\MSVC\14.28.29333\include\xmemory

; 810  :         _Deallocate<_New_alignof<_Ty>>(_Ptr, sizeof(_Ty) * _Count);

  0004c	83 c4 08	 add	 esp, 8
; File C:\Program Files (x86)\Microsoft Visual Studio\2019\Community\VC\Tools\MSVC\14.28.29333\include\vector

; 1699 :             _Mylast  = pointer();

  0004f	c7 47 14 00 00
	00 00		 mov	 DWORD PTR [edi+20], 0

; 1700 :             _Myend   = pointer();

  00056	c7 47 18 00 00
	00 00		 mov	 DWORD PTR [edi+24], 0
$LN27@CDynamicPo:

; 1694 :         if (_Myfirst) { // destroy and deallocate old array

  0005d	8b 4f 04	 mov	 ecx, DWORD PTR [edi+4]
  00060	85 c9		 test	 ecx, ecx
  00062	74 27		 je	 SHORT $LN34@CDynamicPo

; 1695 :             _Destroy(_Myfirst, _Mylast);
; 1696 :             _Getal().deallocate(_Myfirst, static_cast<size_type>(_Myend - _Myfirst));

  00064	8b 47 0c	 mov	 eax, DWORD PTR [edi+12]
  00067	2b c1		 sub	 eax, ecx
; File C:\Program Files (x86)\Microsoft Visual Studio\2019\Community\VC\Tools\MSVC\14.28.29333\include\xmemory

; 810  :         _Deallocate<_New_alignof<_Ty>>(_Ptr, sizeof(_Ty) * _Count);

  00069	83 e0 fc	 and	 eax, -4			; fffffffcH
  0006c	50		 push	 eax
  0006d	51		 push	 ecx
  0006e	e8 00 00 00 00	 call	 ??$_Deallocate@$07$0A@@std@@YAXPAXI@Z ; std::_Deallocate<8,0>
; File C:\Program Files (x86)\Microsoft Visual Studio\2019\Community\VC\Tools\MSVC\14.28.29333\include\vector

; 1698 :             _Myfirst = pointer();

  00073	c7 47 04 00 00
	00 00		 mov	 DWORD PTR [edi+4], 0
; File C:\Program Files (x86)\Microsoft Visual Studio\2019\Community\VC\Tools\MSVC\14.28.29333\include\xmemory

; 810  :         _Deallocate<_New_alignof<_Ty>>(_Ptr, sizeof(_Ty) * _Count);

  0007a	83 c4 08	 add	 esp, 8
; File C:\Program Files (x86)\Microsoft Visual Studio\2019\Community\VC\Tools\MSVC\14.28.29333\include\vector

; 1699 :             _Mylast  = pointer();

  0007d	c7 47 08 00 00
	00 00		 mov	 DWORD PTR [edi+8], 0

; 1700 :             _Myend   = pointer();

  00084	c7 47 0c 00 00
	00 00		 mov	 DWORD PTR [edi+12], 0
$LN34@CDynamicPo:
  0008b	5f		 pop	 edi
; File D:\Metin2 Server Files\mainline\SRC_2014\Metin2Client\eterLib\Pool.h

; 142  : 		}

  0008c	5e		 pop	 esi
  0008d	5b		 pop	 ebx
  0008e	c3		 ret	 0
??1?$CDynamicPoolEx@VCHeaderDecorator@NEffectUpdateDecorator@@@@UAE@XZ ENDP ; CDynamicPoolEx<NEffectUpdateDecorator::CHeaderDecorator>::~CDynamicPoolEx<NEffectUpdateDecorator::CHeaderDecorator>
_TEXT	ENDS
; Function compile flags: /Ogtp
;	COMDAT ??_G?$CDynamicPoolEx@VCNullDecorator@NEffectUpdateDecorator@@@@UAEPAXI@Z
_TEXT	SEGMENT
___flags$ = 8						; size = 4
??_G?$CDynamicPoolEx@VCNullDecorator@NEffectUpdateDecorator@@@@UAEPAXI@Z PROC ; CDynamicPoolEx<NEffectUpdateDecorator::CNullDecorator>::`scalar deleting destructor', COMDAT
; _this$ = ecx
  00000	55		 push	 ebp
  00001	8b ec		 mov	 ebp, esp
  00003	56		 push	 esi
  00004	8b f1		 mov	 esi, ecx
  00006	e8 00 00 00 00	 call	 ??1?$CDynamicPoolEx@VCNullDecorator@NEffectUpdateDecorator@@@@UAE@XZ ; CDynamicPoolEx<NEffectUpdateDecorator::CNullDecorator>::~CDynamicPoolEx<NEffectUpdateDecorator::CNullDecorator>
  0000b	f6 45 08 01	 test	 BYTE PTR ___flags$[ebp], 1
  0000f	74 0b		 je	 SHORT $LN4@scalar
  00011	6a 24		 push	 36			; 00000024H
  00013	56		 push	 esi
  00014	e8 00 00 00 00	 call	 ??3@YAXPAXI@Z		; operator delete
  00019	83 c4 08	 add	 esp, 8
$LN4@scalar:
  0001c	8b c6		 mov	 eax, esi
  0001e	5e		 pop	 esi
  0001f	5d		 pop	 ebp
  00020	c2 04 00	 ret	 4
??_G?$CDynamicPoolEx@VCNullDecorator@NEffectUpdateDecorator@@@@UAEPAXI@Z ENDP ; CDynamicPoolEx<NEffectUpdateDecorator::CNullDecorator>::`scalar deleting destructor'
_TEXT	ENDS
; Function compile flags: /Ogtp
; File D:\Metin2 Server Files\mainline\SRC_2014\Metin2Client\eterLib\Pool.h
;	COMDAT ?Delete@?$CDynamicPoolEx@VCNullDecorator@NEffectUpdateDecorator@@@@KAXPAVCNullDecorator@NEffectUpdateDecorator@@@Z
_TEXT	SEGMENT
_pkData$ = 8						; size = 4
?Delete@?$CDynamicPoolEx@VCNullDecorator@NEffectUpdateDecorator@@@@KAXPAVCNullDecorator@NEffectUpdateDecorator@@@Z PROC ; CDynamicPoolEx<NEffectUpdateDecorator::CNullDecorator>::Delete, COMDAT

; 224  : 			::operator delete(pkData);

  00000	e9 00 00 00 00	 jmp	 ??3@YAXPAX@Z		; operator delete
?Delete@?$CDynamicPoolEx@VCNullDecorator@NEffectUpdateDecorator@@@@KAXPAVCNullDecorator@NEffectUpdateDecorator@@@Z ENDP ; CDynamicPoolEx<NEffectUpdateDecorator::CNullDecorator>::Delete
_TEXT	ENDS
; Function compile flags: /Ogtp
; File D:\Metin2 Server Files\mainline\SRC_2014\Metin2Client\eterLib\Pool.h
; File C:\Program Files (x86)\Microsoft Visual Studio\2019\Community\VC\Tools\MSVC\14.28.29333\include\vector
; File C:\Program Files (x86)\Microsoft Visual Studio\2019\Community\VC\Tools\MSVC\14.28.29333\include\algorithm
; File D:\Metin2 Server Files\mainline\SRC_2014\Metin2Client\eterLib\Pool.h
; File C:\Program Files (x86)\Microsoft Visual Studio\2019\Community\VC\Tools\MSVC\14.28.29333\include\algorithm
; File D:\Metin2 Server Files\mainline\SRC_2014\Metin2Client\eterLib\Pool.h
; File C:\Program Files (x86)\Microsoft Visual Studio\2019\Community\VC\Tools\MSVC\14.28.29333\include\algorithm
; File D:\Metin2 Server Files\mainline\SRC_2014\Metin2Client\eterLib\Pool.h
; File C:\Program Files (x86)\Microsoft Visual Studio\2019\Community\VC\Tools\MSVC\14.28.29333\include\vector
; File C:\Program Files (x86)\Microsoft Visual Studio\2019\Community\VC\Tools\MSVC\14.28.29333\include\xmemory
; File C:\Program Files (x86)\Microsoft Visual Studio\2019\Community\VC\Tools\MSVC\14.28.29333\include\vector
; File C:\Program Files (x86)\Microsoft Visual Studio\2019\Community\VC\Tools\MSVC\14.28.29333\include\xmemory
; File C:\Program Files (x86)\Microsoft Visual Studio\2019\Community\VC\Tools\MSVC\14.28.29333\include\vector
; File C:\Program Files (x86)\Microsoft Visual Studio\2019\Community\VC\Tools\MSVC\14.28.29333\include\xmemory
; File C:\Program Files (x86)\Microsoft Visual Studio\2019\Community\VC\Tools\MSVC\14.28.29333\include\vector
; File C:\Program Files (x86)\Microsoft Visual Studio\2019\Community\VC\Tools\MSVC\14.28.29333\include\xmemory
; File C:\Program Files (x86)\Microsoft Visual Studio\2019\Community\VC\Tools\MSVC\14.28.29333\include\vector
; File D:\Metin2 Server Files\mainline\SRC_2014\Metin2Client\eterLib\Pool.h
;	COMDAT ??1?$CDynamicPoolEx@VCNullDecorator@NEffectUpdateDecorator@@@@UAE@XZ
_TEXT	SEGMENT
??1?$CDynamicPoolEx@VCNullDecorator@NEffectUpdateDecorator@@@@UAE@XZ PROC ; CDynamicPoolEx<NEffectUpdateDecorator::CNullDecorator>::~CDynamicPoolEx<NEffectUpdateDecorator::CNullDecorator>, COMDAT
; _this$ = ecx

; 132  : 		{

  00000	53		 push	 ebx
  00001	56		 push	 esi
  00002	57		 push	 edi
  00003	8b f9		 mov	 edi, ecx
  00005	c7 07 00 00 00
	00		 mov	 DWORD PTR [edi], OFFSET ??_7?$CDynamicPoolEx@VCNullDecorator@NEffectUpdateDecorator@@@@6B@
; File C:\Program Files (x86)\Microsoft Visual Studio\2019\Community\VC\Tools\MSVC\14.28.29333\include\vector

; 42   :     _Vector_const_iterator(_Tptr _Parg, const _Container_base* _Pvector) noexcept : _Ptr(_Parg) {

  0000b	8b 5f 08	 mov	 ebx, DWORD PTR [edi+8]
  0000e	8b 77 04	 mov	 esi, DWORD PTR [edi+4]
; File C:\Program Files (x86)\Microsoft Visual Studio\2019\Community\VC\Tools\MSVC\14.28.29333\include\algorithm

; 307  :     for (; _UFirst != _ULast; ++_UFirst) {

  00011	3b f3		 cmp	 esi, ebx
  00013	74 14		 je	 SHORT $LN19@CDynamicPo
$LL20@CDynamicPo:
; File D:\Metin2 Server Files\mainline\SRC_2014\Metin2Client\eterLib\Pool.h

; 224  : 			::operator delete(pkData);

  00015	ff 36		 push	 DWORD PTR [esi]
  00017	e8 00 00 00 00	 call	 ??3@YAXPAX@Z		; operator delete
; File C:\Program Files (x86)\Microsoft Visual Studio\2019\Community\VC\Tools\MSVC\14.28.29333\include\algorithm

; 307  :     for (; _UFirst != _ULast; ++_UFirst) {

  0001c	83 c6 04	 add	 esi, 4
; File D:\Metin2 Server Files\mainline\SRC_2014\Metin2Client\eterLib\Pool.h

; 224  : 			::operator delete(pkData);

  0001f	83 c4 04	 add	 esp, 4
; File C:\Program Files (x86)\Microsoft Visual Studio\2019\Community\VC\Tools\MSVC\14.28.29333\include\algorithm

; 307  :     for (; _UFirst != _ULast; ++_UFirst) {

  00022	3b f3		 cmp	 esi, ebx
  00024	75 ef		 jne	 SHORT $LL20@CDynamicPo
  00026	8b 77 04	 mov	 esi, DWORD PTR [edi+4]
$LN19@CDynamicPo:
; File D:\Metin2 Server Files\mainline\SRC_2014\Metin2Client\eterLib\Pool.h

; 162  : 			m_kVct_pkFree.clear();

  00029	8b 4f 10	 mov	 ecx, DWORD PTR [edi+16]
  0002c	89 77 08	 mov	 DWORD PTR [edi+8], esi
  0002f	89 4f 14	 mov	 DWORD PTR [edi+20], ecx
; File C:\Program Files (x86)\Microsoft Visual Studio\2019\Community\VC\Tools\MSVC\14.28.29333\include\vector

; 1694 :         if (_Myfirst) { // destroy and deallocate old array

  00032	85 c9		 test	 ecx, ecx
  00034	74 27		 je	 SHORT $LN27@CDynamicPo

; 1695 :             _Destroy(_Myfirst, _Mylast);
; 1696 :             _Getal().deallocate(_Myfirst, static_cast<size_type>(_Myend - _Myfirst));

  00036	8b 47 18	 mov	 eax, DWORD PTR [edi+24]
  00039	2b c1		 sub	 eax, ecx
; File C:\Program Files (x86)\Microsoft Visual Studio\2019\Community\VC\Tools\MSVC\14.28.29333\include\xmemory

; 810  :         _Deallocate<_New_alignof<_Ty>>(_Ptr, sizeof(_Ty) * _Count);

  0003b	83 e0 fc	 and	 eax, -4			; fffffffcH
  0003e	50		 push	 eax
  0003f	51		 push	 ecx
  00040	e8 00 00 00 00	 call	 ??$_Deallocate@$07$0A@@std@@YAXPAXI@Z ; std::_Deallocate<8,0>
; File C:\Program Files (x86)\Microsoft Visual Studio\2019\Community\VC\Tools\MSVC\14.28.29333\include\vector

; 1698 :             _Myfirst = pointer();

  00045	c7 47 10 00 00
	00 00		 mov	 DWORD PTR [edi+16], 0
; File C:\Program Files (x86)\Microsoft Visual Studio\2019\Community\VC\Tools\MSVC\14.28.29333\include\xmemory

; 810  :         _Deallocate<_New_alignof<_Ty>>(_Ptr, sizeof(_Ty) * _Count);

  0004c	83 c4 08	 add	 esp, 8
; File C:\Program Files (x86)\Microsoft Visual Studio\2019\Community\VC\Tools\MSVC\14.28.29333\include\vector

; 1699 :             _Mylast  = pointer();

  0004f	c7 47 14 00 00
	00 00		 mov	 DWORD PTR [edi+20], 0

; 1700 :             _Myend   = pointer();

  00056	c7 47 18 00 00
	00 00		 mov	 DWORD PTR [edi+24], 0
$LN27@CDynamicPo:

; 1694 :         if (_Myfirst) { // destroy and deallocate old array

  0005d	8b 4f 04	 mov	 ecx, DWORD PTR [edi+4]
  00060	85 c9		 test	 ecx, ecx
  00062	74 27		 je	 SHORT $LN34@CDynamicPo

; 1695 :             _Destroy(_Myfirst, _Mylast);
; 1696 :             _Getal().deallocate(_Myfirst, static_cast<size_type>(_Myend - _Myfirst));

  00064	8b 47 0c	 mov	 eax, DWORD PTR [edi+12]
  00067	2b c1		 sub	 eax, ecx
; File C:\Program Files (x86)\Microsoft Visual Studio\2019\Community\VC\Tools\MSVC\14.28.29333\include\xmemory

; 810  :         _Deallocate<_New_alignof<_Ty>>(_Ptr, sizeof(_Ty) * _Count);

  00069	83 e0 fc	 and	 eax, -4			; fffffffcH
  0006c	50		 push	 eax
  0006d	51		 push	 ecx
  0006e	e8 00 00 00 00	 call	 ??$_Deallocate@$07$0A@@std@@YAXPAXI@Z ; std::_Deallocate<8,0>
; File C:\Program Files (x86)\Microsoft Visual Studio\2019\Community\VC\Tools\MSVC\14.28.29333\include\vector

; 1698 :             _Myfirst = pointer();

  00073	c7 47 04 00 00
	00 00		 mov	 DWORD PTR [edi+4], 0
; File C:\Program Files (x86)\Microsoft Visual Studio\2019\Community\VC\Tools\MSVC\14.28.29333\include\xmemory

; 810  :         _Deallocate<_New_alignof<_Ty>>(_Ptr, sizeof(_Ty) * _Count);

  0007a	83 c4 08	 add	 esp, 8
; File C:\Program Files (x86)\Microsoft Visual Studio\2019\Community\VC\Tools\MSVC\14.28.29333\include\vector

; 1699 :             _Mylast  = pointer();

  0007d	c7 47 08 00 00
	00 00		 mov	 DWORD PTR [edi+8], 0

; 1700 :             _Myend   = pointer();

  00084	c7 47 0c 00 00
	00 00		 mov	 DWORD PTR [edi+12], 0
$LN34@CDynamicPo:
  0008b	5f		 pop	 edi
; File D:\Metin2 Server Files\mainline\SRC_2014\Metin2Client\eterLib\Pool.h

; 142  : 		}

  0008c	5e		 pop	 esi
  0008d	5b		 pop	 ebx
  0008e	c3		 ret	 0
??1?$CDynamicPoolEx@VCNullDecorator@NEffectUpdateDecorator@@@@UAE@XZ ENDP ; CDynamicPoolEx<NEffectUpdateDecorator::CNullDecorator>::~CDynamicPoolEx<NEffectUpdateDecorator::CNullDecorator>
_TEXT	ENDS
; Function compile flags: /Ogtp
;	COMDAT ??_G?$CDynamicPoolEx@VCTextureAnimationCWDecorator@NEffectUpdateDecorator@@@@UAEPAXI@Z
_TEXT	SEGMENT
___flags$ = 8						; size = 4
??_G?$CDynamicPoolEx@VCTextureAnimationCWDecorator@NEffectUpdateDecorator@@@@UAEPAXI@Z PROC ; CDynamicPoolEx<NEffectUpdateDecorator::CTextureAnimationCWDecorator>::`scalar deleting destructor', COMDAT
; _this$ = ecx
  00000	55		 push	 ebp
  00001	8b ec		 mov	 ebp, esp
  00003	56		 push	 esi
  00004	8b f1		 mov	 esi, ecx
  00006	e8 00 00 00 00	 call	 ??1?$CDynamicPoolEx@VCTextureAnimationCWDecorator@NEffectUpdateDecorator@@@@UAE@XZ ; CDynamicPoolEx<NEffectUpdateDecorator::CTextureAnimationCWDecorator>::~CDynamicPoolEx<NEffectUpdateDecorator::CTextureAnimationCWDecorator>
  0000b	f6 45 08 01	 test	 BYTE PTR ___flags$[ebp], 1
  0000f	74 0b		 je	 SHORT $LN4@scalar
  00011	6a 24		 push	 36			; 00000024H
  00013	56		 push	 esi
  00014	e8 00 00 00 00	 call	 ??3@YAXPAXI@Z		; operator delete
  00019	83 c4 08	 add	 esp, 8
$LN4@scalar:
  0001c	8b c6		 mov	 eax, esi
  0001e	5e		 pop	 esi
  0001f	5d		 pop	 ebp
  00020	c2 04 00	 ret	 4
??_G?$CDynamicPoolEx@VCTextureAnimationCWDecorator@NEffectUpdateDecorator@@@@UAEPAXI@Z ENDP ; CDynamicPoolEx<NEffectUpdateDecorator::CTextureAnimationCWDecorator>::`scalar deleting destructor'
_TEXT	ENDS
; Function compile flags: /Ogtp
; File D:\Metin2 Server Files\mainline\SRC_2014\Metin2Client\eterLib\Pool.h
;	COMDAT ?Delete@?$CDynamicPoolEx@VCTextureAnimationCWDecorator@NEffectUpdateDecorator@@@@KAXPAVCTextureAnimationCWDecorator@NEffectUpdateDecorator@@@Z
_TEXT	SEGMENT
_pkData$ = 8						; size = 4
?Delete@?$CDynamicPoolEx@VCTextureAnimationCWDecorator@NEffectUpdateDecorator@@@@KAXPAVCTextureAnimationCWDecorator@NEffectUpdateDecorator@@@Z PROC ; CDynamicPoolEx<NEffectUpdateDecorator::CTextureAnimationCWDecorator>::Delete, COMDAT

; 224  : 			::operator delete(pkData);

  00000	e9 00 00 00 00	 jmp	 ??3@YAXPAX@Z		; operator delete
?Delete@?$CDynamicPoolEx@VCTextureAnimationCWDecorator@NEffectUpdateDecorator@@@@KAXPAVCTextureAnimationCWDecorator@NEffectUpdateDecorator@@@Z ENDP ; CDynamicPoolEx<NEffectUpdateDecorator::CTextureAnimationCWDecorator>::Delete
_TEXT	ENDS
; Function compile flags: /Ogtp
; File D:\Metin2 Server Files\mainline\SRC_2014\Metin2Client\eterLib\Pool.h
; File C:\Program Files (x86)\Microsoft Visual Studio\2019\Community\VC\Tools\MSVC\14.28.29333\include\vector
; File C:\Program Files (x86)\Microsoft Visual Studio\2019\Community\VC\Tools\MSVC\14.28.29333\include\algorithm
; File D:\Metin2 Server Files\mainline\SRC_2014\Metin2Client\eterLib\Pool.h
; File C:\Program Files (x86)\Microsoft Visual Studio\2019\Community\VC\Tools\MSVC\14.28.29333\include\algorithm
; File D:\Metin2 Server Files\mainline\SRC_2014\Metin2Client\eterLib\Pool.h
; File C:\Program Files (x86)\Microsoft Visual Studio\2019\Community\VC\Tools\MSVC\14.28.29333\include\algorithm
; File D:\Metin2 Server Files\mainline\SRC_2014\Metin2Client\eterLib\Pool.h
; File C:\Program Files (x86)\Microsoft Visual Studio\2019\Community\VC\Tools\MSVC\14.28.29333\include\vector
; File C:\Program Files (x86)\Microsoft Visual Studio\2019\Community\VC\Tools\MSVC\14.28.29333\include\xmemory
; File C:\Program Files (x86)\Microsoft Visual Studio\2019\Community\VC\Tools\MSVC\14.28.29333\include\vector
; File C:\Program Files (x86)\Microsoft Visual Studio\2019\Community\VC\Tools\MSVC\14.28.29333\include\xmemory
; File C:\Program Files (x86)\Microsoft Visual Studio\2019\Community\VC\Tools\MSVC\14.28.29333\include\vector
; File C:\Program Files (x86)\Microsoft Visual Studio\2019\Community\VC\Tools\MSVC\14.28.29333\include\xmemory
; File C:\Program Files (x86)\Microsoft Visual Studio\2019\Community\VC\Tools\MSVC\14.28.29333\include\vector
; File C:\Program Files (x86)\Microsoft Visual Studio\2019\Community\VC\Tools\MSVC\14.28.29333\include\xmemory
; File C:\Program Files (x86)\Microsoft Visual Studio\2019\Community\VC\Tools\MSVC\14.28.29333\include\vector
; File D:\Metin2 Server Files\mainline\SRC_2014\Metin2Client\eterLib\Pool.h
;	COMDAT ??1?$CDynamicPoolEx@VCTextureAnimationCWDecorator@NEffectUpdateDecorator@@@@UAE@XZ
_TEXT	SEGMENT
??1?$CDynamicPoolEx@VCTextureAnimationCWDecorator@NEffectUpdateDecorator@@@@UAE@XZ PROC ; CDynamicPoolEx<NEffectUpdateDecorator::CTextureAnimationCWDecorator>::~CDynamicPoolEx<NEffectUpdateDecorator::CTextureAnimationCWDecorator>, COMDAT
; _this$ = ecx

; 132  : 		{

  00000	53		 push	 ebx
  00001	56		 push	 esi
  00002	57		 push	 edi
  00003	8b f9		 mov	 edi, ecx
  00005	c7 07 00 00 00
	00		 mov	 DWORD PTR [edi], OFFSET ??_7?$CDynamicPoolEx@VCTextureAnimationCWDecorator@NEffectUpdateDecorator@@@@6B@
; File C:\Program Files (x86)\Microsoft Visual Studio\2019\Community\VC\Tools\MSVC\14.28.29333\include\vector

; 42   :     _Vector_const_iterator(_Tptr _Parg, const _Container_base* _Pvector) noexcept : _Ptr(_Parg) {

  0000b	8b 5f 08	 mov	 ebx, DWORD PTR [edi+8]
  0000e	8b 77 04	 mov	 esi, DWORD PTR [edi+4]
; File C:\Program Files (x86)\Microsoft Visual Studio\2019\Community\VC\Tools\MSVC\14.28.29333\include\algorithm

; 307  :     for (; _UFirst != _ULast; ++_UFirst) {

  00011	3b f3		 cmp	 esi, ebx
  00013	74 14		 je	 SHORT $LN19@CDynamicPo
$LL20@CDynamicPo:
; File D:\Metin2 Server Files\mainline\SRC_2014\Metin2Client\eterLib\Pool.h

; 224  : 			::operator delete(pkData);

  00015	ff 36		 push	 DWORD PTR [esi]
  00017	e8 00 00 00 00	 call	 ??3@YAXPAX@Z		; operator delete
; File C:\Program Files (x86)\Microsoft Visual Studio\2019\Community\VC\Tools\MSVC\14.28.29333\include\algorithm

; 307  :     for (; _UFirst != _ULast; ++_UFirst) {

  0001c	83 c6 04	 add	 esi, 4
; File D:\Metin2 Server Files\mainline\SRC_2014\Metin2Client\eterLib\Pool.h

; 224  : 			::operator delete(pkData);

  0001f	83 c4 04	 add	 esp, 4
; File C:\Program Files (x86)\Microsoft Visual Studio\2019\Community\VC\Tools\MSVC\14.28.29333\include\algorithm

; 307  :     for (; _UFirst != _ULast; ++_UFirst) {

  00022	3b f3		 cmp	 esi, ebx
  00024	75 ef		 jne	 SHORT $LL20@CDynamicPo
  00026	8b 77 04	 mov	 esi, DWORD PTR [edi+4]
$LN19@CDynamicPo:
; File D:\Metin2 Server Files\mainline\SRC_2014\Metin2Client\eterLib\Pool.h

; 162  : 			m_kVct_pkFree.clear();

  00029	8b 4f 10	 mov	 ecx, DWORD PTR [edi+16]
  0002c	89 77 08	 mov	 DWORD PTR [edi+8], esi
  0002f	89 4f 14	 mov	 DWORD PTR [edi+20], ecx
; File C:\Program Files (x86)\Microsoft Visual Studio\2019\Community\VC\Tools\MSVC\14.28.29333\include\vector

; 1694 :         if (_Myfirst) { // destroy and deallocate old array

  00032	85 c9		 test	 ecx, ecx
  00034	74 27		 je	 SHORT $LN27@CDynamicPo

; 1695 :             _Destroy(_Myfirst, _Mylast);
; 1696 :             _Getal().deallocate(_Myfirst, static_cast<size_type>(_Myend - _Myfirst));

  00036	8b 47 18	 mov	 eax, DWORD PTR [edi+24]
  00039	2b c1		 sub	 eax, ecx
; File C:\Program Files (x86)\Microsoft Visual Studio\2019\Community\VC\Tools\MSVC\14.28.29333\include\xmemory

; 810  :         _Deallocate<_New_alignof<_Ty>>(_Ptr, sizeof(_Ty) * _Count);

  0003b	83 e0 fc	 and	 eax, -4			; fffffffcH
  0003e	50		 push	 eax
  0003f	51		 push	 ecx
  00040	e8 00 00 00 00	 call	 ??$_Deallocate@$07$0A@@std@@YAXPAXI@Z ; std::_Deallocate<8,0>
; File C:\Program Files (x86)\Microsoft Visual Studio\2019\Community\VC\Tools\MSVC\14.28.29333\include\vector

; 1698 :             _Myfirst = pointer();

  00045	c7 47 10 00 00
	00 00		 mov	 DWORD PTR [edi+16], 0
; File C:\Program Files (x86)\Microsoft Visual Studio\2019\Community\VC\Tools\MSVC\14.28.29333\include\xmemory

; 810  :         _Deallocate<_New_alignof<_Ty>>(_Ptr, sizeof(_Ty) * _Count);

  0004c	83 c4 08	 add	 esp, 8
; File C:\Program Files (x86)\Microsoft Visual Studio\2019\Community\VC\Tools\MSVC\14.28.29333\include\vector

; 1699 :             _Mylast  = pointer();

  0004f	c7 47 14 00 00
	00 00		 mov	 DWORD PTR [edi+20], 0

; 1700 :             _Myend   = pointer();

  00056	c7 47 18 00 00
	00 00		 mov	 DWORD PTR [edi+24], 0
$LN27@CDynamicPo:

; 1694 :         if (_Myfirst) { // destroy and deallocate old array

  0005d	8b 4f 04	 mov	 ecx, DWORD PTR [edi+4]
  00060	85 c9		 test	 ecx, ecx
  00062	74 27		 je	 SHORT $LN34@CDynamicPo

; 1695 :             _Destroy(_Myfirst, _Mylast);
; 1696 :             _Getal().deallocate(_Myfirst, static_cast<size_type>(_Myend - _Myfirst));

  00064	8b 47 0c	 mov	 eax, DWORD PTR [edi+12]
  00067	2b c1		 sub	 eax, ecx
; File C:\Program Files (x86)\Microsoft Visual Studio\2019\Community\VC\Tools\MSVC\14.28.29333\include\xmemory

; 810  :         _Deallocate<_New_alignof<_Ty>>(_Ptr, sizeof(_Ty) * _Count);

  00069	83 e0 fc	 and	 eax, -4			; fffffffcH
  0006c	50		 push	 eax
  0006d	51		 push	 ecx
  0006e	e8 00 00 00 00	 call	 ??$_Deallocate@$07$0A@@std@@YAXPAXI@Z ; std::_Deallocate<8,0>
; File C:\Program Files (x86)\Microsoft Visual Studio\2019\Community\VC\Tools\MSVC\14.28.29333\include\vector

; 1698 :             _Myfirst = pointer();

  00073	c7 47 04 00 00
	00 00		 mov	 DWORD PTR [edi+4], 0
; File C:\Program Files (x86)\Microsoft Visual Studio\2019\Community\VC\Tools\MSVC\14.28.29333\include\xmemory

; 810  :         _Deallocate<_New_alignof<_Ty>>(_Ptr, sizeof(_Ty) * _Count);

  0007a	83 c4 08	 add	 esp, 8
; File C:\Program Files (x86)\Microsoft Visual Studio\2019\Community\VC\Tools\MSVC\14.28.29333\include\vector

; 1699 :             _Mylast  = pointer();

  0007d	c7 47 08 00 00
	00 00		 mov	 DWORD PTR [edi+8], 0

; 1700 :             _Myend   = pointer();

  00084	c7 47 0c 00 00
	00 00		 mov	 DWORD PTR [edi+12], 0
$LN34@CDynamicPo:
  0008b	5f		 pop	 edi
; File D:\Metin2 Server Files\mainline\SRC_2014\Metin2Client\eterLib\Pool.h

; 142  : 		}

  0008c	5e		 pop	 esi
  0008d	5b		 pop	 ebx
  0008e	c3		 ret	 0
??1?$CDynamicPoolEx@VCTextureAnimationCWDecorator@NEffectUpdateDecorator@@@@UAE@XZ ENDP ; CDynamicPoolEx<NEffectUpdateDecorator::CTextureAnimationCWDecorator>::~CDynamicPoolEx<NEffectUpdateDecorator::CTextureAnimationCWDecorator>
_TEXT	ENDS
; Function compile flags: /Ogtp
;	COMDAT ??_G?$CDynamicPoolEx@VCTextureAnimationCCWDecorator@NEffectUpdateDecorator@@@@UAEPAXI@Z
_TEXT	SEGMENT
___flags$ = 8						; size = 4
??_G?$CDynamicPoolEx@VCTextureAnimationCCWDecorator@NEffectUpdateDecorator@@@@UAEPAXI@Z PROC ; CDynamicPoolEx<NEffectUpdateDecorator::CTextureAnimationCCWDecorator>::`scalar deleting destructor', COMDAT
; _this$ = ecx
  00000	55		 push	 ebp
  00001	8b ec		 mov	 ebp, esp
  00003	56		 push	 esi
  00004	8b f1		 mov	 esi, ecx
  00006	e8 00 00 00 00	 call	 ??1?$CDynamicPoolEx@VCTextureAnimationCCWDecorator@NEffectUpdateDecorator@@@@UAE@XZ ; CDynamicPoolEx<NEffectUpdateDecorator::CTextureAnimationCCWDecorator>::~CDynamicPoolEx<NEffectUpdateDecorator::CTextureAnimationCCWDecorator>
  0000b	f6 45 08 01	 test	 BYTE PTR ___flags$[ebp], 1
  0000f	74 0b		 je	 SHORT $LN4@scalar
  00011	6a 24		 push	 36			; 00000024H
  00013	56		 push	 esi
  00014	e8 00 00 00 00	 call	 ??3@YAXPAXI@Z		; operator delete
  00019	83 c4 08	 add	 esp, 8
$LN4@scalar:
  0001c	8b c6		 mov	 eax, esi
  0001e	5e		 pop	 esi
  0001f	5d		 pop	 ebp
  00020	c2 04 00	 ret	 4
??_G?$CDynamicPoolEx@VCTextureAnimationCCWDecorator@NEffectUpdateDecorator@@@@UAEPAXI@Z ENDP ; CDynamicPoolEx<NEffectUpdateDecorator::CTextureAnimationCCWDecorator>::`scalar deleting destructor'
_TEXT	ENDS
; Function compile flags: /Ogtp
; File D:\Metin2 Server Files\mainline\SRC_2014\Metin2Client\eterLib\Pool.h
;	COMDAT ?Delete@?$CDynamicPoolEx@VCTextureAnimationCCWDecorator@NEffectUpdateDecorator@@@@KAXPAVCTextureAnimationCCWDecorator@NEffectUpdateDecorator@@@Z
_TEXT	SEGMENT
_pkData$ = 8						; size = 4
?Delete@?$CDynamicPoolEx@VCTextureAnimationCCWDecorator@NEffectUpdateDecorator@@@@KAXPAVCTextureAnimationCCWDecorator@NEffectUpdateDecorator@@@Z PROC ; CDynamicPoolEx<NEffectUpdateDecorator::CTextureAnimationCCWDecorator>::Delete, COMDAT

; 224  : 			::operator delete(pkData);

  00000	e9 00 00 00 00	 jmp	 ??3@YAXPAX@Z		; operator delete
?Delete@?$CDynamicPoolEx@VCTextureAnimationCCWDecorator@NEffectUpdateDecorator@@@@KAXPAVCTextureAnimationCCWDecorator@NEffectUpdateDecorator@@@Z ENDP ; CDynamicPoolEx<NEffectUpdateDecorator::CTextureAnimationCCWDecorator>::Delete
_TEXT	ENDS
; Function compile flags: /Ogtp
; File D:\Metin2 Server Files\mainline\SRC_2014\Metin2Client\eterLib\Pool.h
; File C:\Program Files (x86)\Microsoft Visual Studio\2019\Community\VC\Tools\MSVC\14.28.29333\include\vector
; File C:\Program Files (x86)\Microsoft Visual Studio\2019\Community\VC\Tools\MSVC\14.28.29333\include\algorithm
; File D:\Metin2 Server Files\mainline\SRC_2014\Metin2Client\eterLib\Pool.h
; File C:\Program Files (x86)\Microsoft Visual Studio\2019\Community\VC\Tools\MSVC\14.28.29333\include\algorithm
; File D:\Metin2 Server Files\mainline\SRC_2014\Metin2Client\eterLib\Pool.h
; File C:\Program Files (x86)\Microsoft Visual Studio\2019\Community\VC\Tools\MSVC\14.28.29333\include\algorithm
; File D:\Metin2 Server Files\mainline\SRC_2014\Metin2Client\eterLib\Pool.h
; File C:\Program Files (x86)\Microsoft Visual Studio\2019\Community\VC\Tools\MSVC\14.28.29333\include\vector
; File C:\Program Files (x86)\Microsoft Visual Studio\2019\Community\VC\Tools\MSVC\14.28.29333\include\xmemory
; File C:\Program Files (x86)\Microsoft Visual Studio\2019\Community\VC\Tools\MSVC\14.28.29333\include\vector
; File C:\Program Files (x86)\Microsoft Visual Studio\2019\Community\VC\Tools\MSVC\14.28.29333\include\xmemory
; File C:\Program Files (x86)\Microsoft Visual Studio\2019\Community\VC\Tools\MSVC\14.28.29333\include\vector
; File C:\Program Files (x86)\Microsoft Visual Studio\2019\Community\VC\Tools\MSVC\14.28.29333\include\xmemory
; File C:\Program Files (x86)\Microsoft Visual Studio\2019\Community\VC\Tools\MSVC\14.28.29333\include\vector
; File C:\Program Files (x86)\Microsoft Visual Studio\2019\Community\VC\Tools\MSVC\14.28.29333\include\xmemory
; File C:\Program Files (x86)\Microsoft Visual Studio\2019\Community\VC\Tools\MSVC\14.28.29333\include\vector
; File D:\Metin2 Server Files\mainline\SRC_2014\Metin2Client\eterLib\Pool.h
;	COMDAT ??1?$CDynamicPoolEx@VCTextureAnimationCCWDecorator@NEffectUpdateDecorator@@@@UAE@XZ
_TEXT	SEGMENT
??1?$CDynamicPoolEx@VCTextureAnimationCCWDecorator@NEffectUpdateDecorator@@@@UAE@XZ PROC ; CDynamicPoolEx<NEffectUpdateDecorator::CTextureAnimationCCWDecorator>::~CDynamicPoolEx<NEffectUpdateDecorator::CTextureAnimationCCWDecorator>, COMDAT
; _this$ = ecx

; 132  : 		{

  00000	53		 push	 ebx
  00001	56		 push	 esi
  00002	57		 push	 edi
  00003	8b f9		 mov	 edi, ecx
  00005	c7 07 00 00 00
	00		 mov	 DWORD PTR [edi], OFFSET ??_7?$CDynamicPoolEx@VCTextureAnimationCCWDecorator@NEffectUpdateDecorator@@@@6B@
; File C:\Program Files (x86)\Microsoft Visual Studio\2019\Community\VC\Tools\MSVC\14.28.29333\include\vector

; 42   :     _Vector_const_iterator(_Tptr _Parg, const _Container_base* _Pvector) noexcept : _Ptr(_Parg) {

  0000b	8b 5f 08	 mov	 ebx, DWORD PTR [edi+8]
  0000e	8b 77 04	 mov	 esi, DWORD PTR [edi+4]
; File C:\Program Files (x86)\Microsoft Visual Studio\2019\Community\VC\Tools\MSVC\14.28.29333\include\algorithm

; 307  :     for (; _UFirst != _ULast; ++_UFirst) {

  00011	3b f3		 cmp	 esi, ebx
  00013	74 14		 je	 SHORT $LN19@CDynamicPo
$LL20@CDynamicPo:
; File D:\Metin2 Server Files\mainline\SRC_2014\Metin2Client\eterLib\Pool.h

; 224  : 			::operator delete(pkData);

  00015	ff 36		 push	 DWORD PTR [esi]
  00017	e8 00 00 00 00	 call	 ??3@YAXPAX@Z		; operator delete
; File C:\Program Files (x86)\Microsoft Visual Studio\2019\Community\VC\Tools\MSVC\14.28.29333\include\algorithm

; 307  :     for (; _UFirst != _ULast; ++_UFirst) {

  0001c	83 c6 04	 add	 esi, 4
; File D:\Metin2 Server Files\mainline\SRC_2014\Metin2Client\eterLib\Pool.h

; 224  : 			::operator delete(pkData);

  0001f	83 c4 04	 add	 esp, 4
; File C:\Program Files (x86)\Microsoft Visual Studio\2019\Community\VC\Tools\MSVC\14.28.29333\include\algorithm

; 307  :     for (; _UFirst != _ULast; ++_UFirst) {

  00022	3b f3		 cmp	 esi, ebx
  00024	75 ef		 jne	 SHORT $LL20@CDynamicPo
  00026	8b 77 04	 mov	 esi, DWORD PTR [edi+4]
$LN19@CDynamicPo:
; File D:\Metin2 Server Files\mainline\SRC_2014\Metin2Client\eterLib\Pool.h

; 162  : 			m_kVct_pkFree.clear();

  00029	8b 4f 10	 mov	 ecx, DWORD PTR [edi+16]
  0002c	89 77 08	 mov	 DWORD PTR [edi+8], esi
  0002f	89 4f 14	 mov	 DWORD PTR [edi+20], ecx
; File C:\Program Files (x86)\Microsoft Visual Studio\2019\Community\VC\Tools\MSVC\14.28.29333\include\vector

; 1694 :         if (_Myfirst) { // destroy and deallocate old array

  00032	85 c9		 test	 ecx, ecx
  00034	74 27		 je	 SHORT $LN27@CDynamicPo

; 1695 :             _Destroy(_Myfirst, _Mylast);
; 1696 :             _Getal().deallocate(_Myfirst, static_cast<size_type>(_Myend - _Myfirst));

  00036	8b 47 18	 mov	 eax, DWORD PTR [edi+24]
  00039	2b c1		 sub	 eax, ecx
; File C:\Program Files (x86)\Microsoft Visual Studio\2019\Community\VC\Tools\MSVC\14.28.29333\include\xmemory

; 810  :         _Deallocate<_New_alignof<_Ty>>(_Ptr, sizeof(_Ty) * _Count);

  0003b	83 e0 fc	 and	 eax, -4			; fffffffcH
  0003e	50		 push	 eax
  0003f	51		 push	 ecx
  00040	e8 00 00 00 00	 call	 ??$_Deallocate@$07$0A@@std@@YAXPAXI@Z ; std::_Deallocate<8,0>
; File C:\Program Files (x86)\Microsoft Visual Studio\2019\Community\VC\Tools\MSVC\14.28.29333\include\vector

; 1698 :             _Myfirst = pointer();

  00045	c7 47 10 00 00
	00 00		 mov	 DWORD PTR [edi+16], 0
; File C:\Program Files (x86)\Microsoft Visual Studio\2019\Community\VC\Tools\MSVC\14.28.29333\include\xmemory

; 810  :         _Deallocate<_New_alignof<_Ty>>(_Ptr, sizeof(_Ty) * _Count);

  0004c	83 c4 08	 add	 esp, 8
; File C:\Program Files (x86)\Microsoft Visual Studio\2019\Community\VC\Tools\MSVC\14.28.29333\include\vector

; 1699 :             _Mylast  = pointer();

  0004f	c7 47 14 00 00
	00 00		 mov	 DWORD PTR [edi+20], 0

; 1700 :             _Myend   = pointer();

  00056	c7 47 18 00 00
	00 00		 mov	 DWORD PTR [edi+24], 0
$LN27@CDynamicPo:

; 1694 :         if (_Myfirst) { // destroy and deallocate old array

  0005d	8b 4f 04	 mov	 ecx, DWORD PTR [edi+4]
  00060	85 c9		 test	 ecx, ecx
  00062	74 27		 je	 SHORT $LN34@CDynamicPo

; 1695 :             _Destroy(_Myfirst, _Mylast);
; 1696 :             _Getal().deallocate(_Myfirst, static_cast<size_type>(_Myend - _Myfirst));

  00064	8b 47 0c	 mov	 eax, DWORD PTR [edi+12]
  00067	2b c1		 sub	 eax, ecx
; File C:\Program Files (x86)\Microsoft Visual Studio\2019\Community\VC\Tools\MSVC\14.28.29333\include\xmemory

; 810  :         _Deallocate<_New_alignof<_Ty>>(_Ptr, sizeof(_Ty) * _Count);

  00069	83 e0 fc	 and	 eax, -4			; fffffffcH
  0006c	50		 push	 eax
  0006d	51		 push	 ecx
  0006e	e8 00 00 00 00	 call	 ??$_Deallocate@$07$0A@@std@@YAXPAXI@Z ; std::_Deallocate<8,0>
; File C:\Program Files (x86)\Microsoft Visual Studio\2019\Community\VC\Tools\MSVC\14.28.29333\include\vector

; 1698 :             _Myfirst = pointer();

  00073	c7 47 04 00 00
	00 00		 mov	 DWORD PTR [edi+4], 0
; File C:\Program Files (x86)\Microsoft Visual Studio\2019\Community\VC\Tools\MSVC\14.28.29333\include\xmemory

; 810  :         _Deallocate<_New_alignof<_Ty>>(_Ptr, sizeof(_Ty) * _Count);

  0007a	83 c4 08	 add	 esp, 8
; File C:\Program Files (x86)\Microsoft Visual Studio\2019\Community\VC\Tools\MSVC\14.28.29333\include\vector

; 1699 :             _Mylast  = pointer();

  0007d	c7 47 08 00 00
	00 00		 mov	 DWORD PTR [edi+8], 0

; 1700 :             _Myend   = pointer();

  00084	c7 47 0c 00 00
	00 00		 mov	 DWORD PTR [edi+12], 0
$LN34@CDynamicPo:
  0008b	5f		 pop	 edi
; File D:\Metin2 Server Files\mainline\SRC_2014\Metin2Client\eterLib\Pool.h

; 142  : 		}

  0008c	5e		 pop	 esi
  0008d	5b		 pop	 ebx
  0008e	c3		 ret	 0
??1?$CDynamicPoolEx@VCTextureAnimationCCWDecorator@NEffectUpdateDecorator@@@@UAE@XZ ENDP ; CDynamicPoolEx<NEffectUpdateDecorator::CTextureAnimationCCWDecorator>::~CDynamicPoolEx<NEffectUpdateDecorator::CTextureAnimationCCWDecorator>
_TEXT	ENDS
; Function compile flags: /Ogtp
;	COMDAT ??_G?$CDynamicPoolEx@VCTextureAnimationRandomDecorator@NEffectUpdateDecorator@@@@UAEPAXI@Z
_TEXT	SEGMENT
___flags$ = 8						; size = 4
??_G?$CDynamicPoolEx@VCTextureAnimationRandomDecorator@NEffectUpdateDecorator@@@@UAEPAXI@Z PROC ; CDynamicPoolEx<NEffectUpdateDecorator::CTextureAnimationRandomDecorator>::`scalar deleting destructor', COMDAT
; _this$ = ecx
  00000	55		 push	 ebp
  00001	8b ec		 mov	 ebp, esp
  00003	56		 push	 esi
  00004	8b f1		 mov	 esi, ecx
  00006	e8 00 00 00 00	 call	 ??1?$CDynamicPoolEx@VCTextureAnimationRandomDecorator@NEffectUpdateDecorator@@@@UAE@XZ ; CDynamicPoolEx<NEffectUpdateDecorator::CTextureAnimationRandomDecorator>::~CDynamicPoolEx<NEffectUpdateDecorator::CTextureAnimationRandomDecorator>
  0000b	f6 45 08 01	 test	 BYTE PTR ___flags$[ebp], 1
  0000f	74 0b		 je	 SHORT $LN4@scalar
  00011	6a 24		 push	 36			; 00000024H
  00013	56		 push	 esi
  00014	e8 00 00 00 00	 call	 ??3@YAXPAXI@Z		; operator delete
  00019	83 c4 08	 add	 esp, 8
$LN4@scalar:
  0001c	8b c6		 mov	 eax, esi
  0001e	5e		 pop	 esi
  0001f	5d		 pop	 ebp
  00020	c2 04 00	 ret	 4
??_G?$CDynamicPoolEx@VCTextureAnimationRandomDecorator@NEffectUpdateDecorator@@@@UAEPAXI@Z ENDP ; CDynamicPoolEx<NEffectUpdateDecorator::CTextureAnimationRandomDecorator>::`scalar deleting destructor'
_TEXT	ENDS
; Function compile flags: /Ogtp
; File D:\Metin2 Server Files\mainline\SRC_2014\Metin2Client\eterLib\Pool.h
;	COMDAT ?Delete@?$CDynamicPoolEx@VCTextureAnimationRandomDecorator@NEffectUpdateDecorator@@@@KAXPAVCTextureAnimationRandomDecorator@NEffectUpdateDecorator@@@Z
_TEXT	SEGMENT
_pkData$ = 8						; size = 4
?Delete@?$CDynamicPoolEx@VCTextureAnimationRandomDecorator@NEffectUpdateDecorator@@@@KAXPAVCTextureAnimationRandomDecorator@NEffectUpdateDecorator@@@Z PROC ; CDynamicPoolEx<NEffectUpdateDecorator::CTextureAnimationRandomDecorator>::Delete, COMDAT

; 224  : 			::operator delete(pkData);

  00000	e9 00 00 00 00	 jmp	 ??3@YAXPAX@Z		; operator delete
?Delete@?$CDynamicPoolEx@VCTextureAnimationRandomDecorator@NEffectUpdateDecorator@@@@KAXPAVCTextureAnimationRandomDecorator@NEffectUpdateDecorator@@@Z ENDP ; CDynamicPoolEx<NEffectUpdateDecorator::CTextureAnimationRandomDecorator>::Delete
_TEXT	ENDS
; Function compile flags: /Ogtp
; File D:\Metin2 Server Files\mainline\SRC_2014\Metin2Client\eterLib\Pool.h
; File C:\Program Files (x86)\Microsoft Visual Studio\2019\Community\VC\Tools\MSVC\14.28.29333\include\vector
; File C:\Program Files (x86)\Microsoft Visual Studio\2019\Community\VC\Tools\MSVC\14.28.29333\include\algorithm
; File D:\Metin2 Server Files\mainline\SRC_2014\Metin2Client\eterLib\Pool.h
; File C:\Program Files (x86)\Microsoft Visual Studio\2019\Community\VC\Tools\MSVC\14.28.29333\include\algorithm
; File D:\Metin2 Server Files\mainline\SRC_2014\Metin2Client\eterLib\Pool.h
; File C:\Program Files (x86)\Microsoft Visual Studio\2019\Community\VC\Tools\MSVC\14.28.29333\include\algorithm
; File D:\Metin2 Server Files\mainline\SRC_2014\Metin2Client\eterLib\Pool.h
; File C:\Program Files (x86)\Microsoft Visual Studio\2019\Community\VC\Tools\MSVC\14.28.29333\include\vector
; File C:\Program Files (x86)\Microsoft Visual Studio\2019\Community\VC\Tools\MSVC\14.28.29333\include\xmemory
; File C:\Program Files (x86)\Microsoft Visual Studio\2019\Community\VC\Tools\MSVC\14.28.29333\include\vector
; File C:\Program Files (x86)\Microsoft Visual Studio\2019\Community\VC\Tools\MSVC\14.28.29333\include\xmemory
; File C:\Program Files (x86)\Microsoft Visual Studio\2019\Community\VC\Tools\MSVC\14.28.29333\include\vector
; File C:\Program Files (x86)\Microsoft Visual Studio\2019\Community\VC\Tools\MSVC\14.28.29333\include\xmemory
; File C:\Program Files (x86)\Microsoft Visual Studio\2019\Community\VC\Tools\MSVC\14.28.29333\include\vector
; File C:\Program Files (x86)\Microsoft Visual Studio\2019\Community\VC\Tools\MSVC\14.28.29333\include\xmemory
; File C:\Program Files (x86)\Microsoft Visual Studio\2019\Community\VC\Tools\MSVC\14.28.29333\include\vector
; File D:\Metin2 Server Files\mainline\SRC_2014\Metin2Client\eterLib\Pool.h
;	COMDAT ??1?$CDynamicPoolEx@VCTextureAnimationRandomDecorator@NEffectUpdateDecorator@@@@UAE@XZ
_TEXT	SEGMENT
??1?$CDynamicPoolEx@VCTextureAnimationRandomDecorator@NEffectUpdateDecorator@@@@UAE@XZ PROC ; CDynamicPoolEx<NEffectUpdateDecorator::CTextureAnimationRandomDecorator>::~CDynamicPoolEx<NEffectUpdateDecorator::CTextureAnimationRandomDecorator>, COMDAT
; _this$ = ecx

; 132  : 		{

  00000	53		 push	 ebx
  00001	56		 push	 esi
  00002	57		 push	 edi
  00003	8b f9		 mov	 edi, ecx
  00005	c7 07 00 00 00
	00		 mov	 DWORD PTR [edi], OFFSET ??_7?$CDynamicPoolEx@VCTextureAnimationRandomDecorator@NEffectUpdateDecorator@@@@6B@
; File C:\Program Files (x86)\Microsoft Visual Studio\2019\Community\VC\Tools\MSVC\14.28.29333\include\vector

; 42   :     _Vector_const_iterator(_Tptr _Parg, const _Container_base* _Pvector) noexcept : _Ptr(_Parg) {

  0000b	8b 5f 08	 mov	 ebx, DWORD PTR [edi+8]
  0000e	8b 77 04	 mov	 esi, DWORD PTR [edi+4]
; File C:\Program Files (x86)\Microsoft Visual Studio\2019\Community\VC\Tools\MSVC\14.28.29333\include\algorithm

; 307  :     for (; _UFirst != _ULast; ++_UFirst) {

  00011	3b f3		 cmp	 esi, ebx
  00013	74 14		 je	 SHORT $LN19@CDynamicPo
$LL20@CDynamicPo:
; File D:\Metin2 Server Files\mainline\SRC_2014\Metin2Client\eterLib\Pool.h

; 224  : 			::operator delete(pkData);

  00015	ff 36		 push	 DWORD PTR [esi]
  00017	e8 00 00 00 00	 call	 ??3@YAXPAX@Z		; operator delete
; File C:\Program Files (x86)\Microsoft Visual Studio\2019\Community\VC\Tools\MSVC\14.28.29333\include\algorithm

; 307  :     for (; _UFirst != _ULast; ++_UFirst) {

  0001c	83 c6 04	 add	 esi, 4
; File D:\Metin2 Server Files\mainline\SRC_2014\Metin2Client\eterLib\Pool.h

; 224  : 			::operator delete(pkData);

  0001f	83 c4 04	 add	 esp, 4
; File C:\Program Files (x86)\Microsoft Visual Studio\2019\Community\VC\Tools\MSVC\14.28.29333\include\algorithm

; 307  :     for (; _UFirst != _ULast; ++_UFirst) {

  00022	3b f3		 cmp	 esi, ebx
  00024	75 ef		 jne	 SHORT $LL20@CDynamicPo
  00026	8b 77 04	 mov	 esi, DWORD PTR [edi+4]
$LN19@CDynamicPo:
; File D:\Metin2 Server Files\mainline\SRC_2014\Metin2Client\eterLib\Pool.h

; 162  : 			m_kVct_pkFree.clear();

  00029	8b 4f 10	 mov	 ecx, DWORD PTR [edi+16]
  0002c	89 77 08	 mov	 DWORD PTR [edi+8], esi
  0002f	89 4f 14	 mov	 DWORD PTR [edi+20], ecx
; File C:\Program Files (x86)\Microsoft Visual Studio\2019\Community\VC\Tools\MSVC\14.28.29333\include\vector

; 1694 :         if (_Myfirst) { // destroy and deallocate old array

  00032	85 c9		 test	 ecx, ecx
  00034	74 27		 je	 SHORT $LN27@CDynamicPo

; 1695 :             _Destroy(_Myfirst, _Mylast);
; 1696 :             _Getal().deallocate(_Myfirst, static_cast<size_type>(_Myend - _Myfirst));

  00036	8b 47 18	 mov	 eax, DWORD PTR [edi+24]
  00039	2b c1		 sub	 eax, ecx
; File C:\Program Files (x86)\Microsoft Visual Studio\2019\Community\VC\Tools\MSVC\14.28.29333\include\xmemory

; 810  :         _Deallocate<_New_alignof<_Ty>>(_Ptr, sizeof(_Ty) * _Count);

  0003b	83 e0 fc	 and	 eax, -4			; fffffffcH
  0003e	50		 push	 eax
  0003f	51		 push	 ecx
  00040	e8 00 00 00 00	 call	 ??$_Deallocate@$07$0A@@std@@YAXPAXI@Z ; std::_Deallocate<8,0>
; File C:\Program Files (x86)\Microsoft Visual Studio\2019\Community\VC\Tools\MSVC\14.28.29333\include\vector

; 1698 :             _Myfirst = pointer();

  00045	c7 47 10 00 00
	00 00		 mov	 DWORD PTR [edi+16], 0
; File C:\Program Files (x86)\Microsoft Visual Studio\2019\Community\VC\Tools\MSVC\14.28.29333\include\xmemory

; 810  :         _Deallocate<_New_alignof<_Ty>>(_Ptr, sizeof(_Ty) * _Count);

  0004c	83 c4 08	 add	 esp, 8
; File C:\Program Files (x86)\Microsoft Visual Studio\2019\Community\VC\Tools\MSVC\14.28.29333\include\vector

; 1699 :             _Mylast  = pointer();

  0004f	c7 47 14 00 00
	00 00		 mov	 DWORD PTR [edi+20], 0

; 1700 :             _Myend   = pointer();

  00056	c7 47 18 00 00
	00 00		 mov	 DWORD PTR [edi+24], 0
$LN27@CDynamicPo:

; 1694 :         if (_Myfirst) { // destroy and deallocate old array

  0005d	8b 4f 04	 mov	 ecx, DWORD PTR [edi+4]
  00060	85 c9		 test	 ecx, ecx
  00062	74 27		 je	 SHORT $LN34@CDynamicPo

; 1695 :             _Destroy(_Myfirst, _Mylast);
; 1696 :             _Getal().deallocate(_Myfirst, static_cast<size_type>(_Myend - _Myfirst));

  00064	8b 47 0c	 mov	 eax, DWORD PTR [edi+12]
  00067	2b c1		 sub	 eax, ecx
; File C:\Program Files (x86)\Microsoft Visual Studio\2019\Community\VC\Tools\MSVC\14.28.29333\include\xmemory

; 810  :         _Deallocate<_New_alignof<_Ty>>(_Ptr, sizeof(_Ty) * _Count);

  00069	83 e0 fc	 and	 eax, -4			; fffffffcH
  0006c	50		 push	 eax
  0006d	51		 push	 ecx
  0006e	e8 00 00 00 00	 call	 ??$_Deallocate@$07$0A@@std@@YAXPAXI@Z ; std::_Deallocate<8,0>
; File C:\Program Files (x86)\Microsoft Visual Studio\2019\Community\VC\Tools\MSVC\14.28.29333\include\vector

; 1698 :             _Myfirst = pointer();

  00073	c7 47 04 00 00
	00 00		 mov	 DWORD PTR [edi+4], 0
; File C:\Program Files (x86)\Microsoft Visual Studio\2019\Community\VC\Tools\MSVC\14.28.29333\include\xmemory

; 810  :         _Deallocate<_New_alignof<_Ty>>(_Ptr, sizeof(_Ty) * _Count);

  0007a	83 c4 08	 add	 esp, 8
; File C:\Program Files (x86)\Microsoft Visual Studio\2019\Community\VC\Tools\MSVC\14.28.29333\include\vector

; 1699 :             _Mylast  = pointer();

  0007d	c7 47 08 00 00
	00 00		 mov	 DWORD PTR [edi+8], 0

; 1700 :             _Myend   = pointer();

  00084	c7 47 0c 00 00
	00 00		 mov	 DWORD PTR [edi+12], 0
$LN34@CDynamicPo:
  0008b	5f		 pop	 edi
; File D:\Metin2 Server Files\mainline\SRC_2014\Metin2Client\eterLib\Pool.h

; 142  : 		}

  0008c	5e		 pop	 esi
  0008d	5b		 pop	 ebx
  0008e	c3		 ret	 0
??1?$CDynamicPoolEx@VCTextureAnimationRandomDecorator@NEffectUpdateDecorator@@@@UAE@XZ ENDP ; CDynamicPoolEx<NEffectUpdateDecorator::CTextureAnimationRandomDecorator>::~CDynamicPoolEx<NEffectUpdateDecorator::CTextureAnimationRandomDecorator>
_TEXT	ENDS
; Function compile flags: /Ogtp
;	COMDAT ??_G?$CDynamicPoolEx@VCAirResistanceDecorator@NEffectUpdateDecorator@@@@UAEPAXI@Z
_TEXT	SEGMENT
___flags$ = 8						; size = 4
??_G?$CDynamicPoolEx@VCAirResistanceDecorator@NEffectUpdateDecorator@@@@UAEPAXI@Z PROC ; CDynamicPoolEx<NEffectUpdateDecorator::CAirResistanceDecorator>::`scalar deleting destructor', COMDAT
; _this$ = ecx
  00000	55		 push	 ebp
  00001	8b ec		 mov	 ebp, esp
  00003	56		 push	 esi
  00004	8b f1		 mov	 esi, ecx
  00006	e8 00 00 00 00	 call	 ??1?$CDynamicPoolEx@VCAirResistanceDecorator@NEffectUpdateDecorator@@@@UAE@XZ ; CDynamicPoolEx<NEffectUpdateDecorator::CAirResistanceDecorator>::~CDynamicPoolEx<NEffectUpdateDecorator::CAirResistanceDecorator>
  0000b	f6 45 08 01	 test	 BYTE PTR ___flags$[ebp], 1
  0000f	74 0b		 je	 SHORT $LN4@scalar
  00011	6a 24		 push	 36			; 00000024H
  00013	56		 push	 esi
  00014	e8 00 00 00 00	 call	 ??3@YAXPAXI@Z		; operator delete
  00019	83 c4 08	 add	 esp, 8
$LN4@scalar:
  0001c	8b c6		 mov	 eax, esi
  0001e	5e		 pop	 esi
  0001f	5d		 pop	 ebp
  00020	c2 04 00	 ret	 4
??_G?$CDynamicPoolEx@VCAirResistanceDecorator@NEffectUpdateDecorator@@@@UAEPAXI@Z ENDP ; CDynamicPoolEx<NEffectUpdateDecorator::CAirResistanceDecorator>::`scalar deleting destructor'
_TEXT	ENDS
; Function compile flags: /Ogtp
; File D:\Metin2 Server Files\mainline\SRC_2014\Metin2Client\eterLib\Pool.h
;	COMDAT ?Delete@?$CDynamicPoolEx@VCAirResistanceDecorator@NEffectUpdateDecorator@@@@KAXPAVCAirResistanceDecorator@NEffectUpdateDecorator@@@Z
_TEXT	SEGMENT
_pkData$ = 8						; size = 4
?Delete@?$CDynamicPoolEx@VCAirResistanceDecorator@NEffectUpdateDecorator@@@@KAXPAVCAirResistanceDecorator@NEffectUpdateDecorator@@@Z PROC ; CDynamicPoolEx<NEffectUpdateDecorator::CAirResistanceDecorator>::Delete, COMDAT

; 224  : 			::operator delete(pkData);

  00000	e9 00 00 00 00	 jmp	 ??3@YAXPAX@Z		; operator delete
?Delete@?$CDynamicPoolEx@VCAirResistanceDecorator@NEffectUpdateDecorator@@@@KAXPAVCAirResistanceDecorator@NEffectUpdateDecorator@@@Z ENDP ; CDynamicPoolEx<NEffectUpdateDecorator::CAirResistanceDecorator>::Delete
_TEXT	ENDS
; Function compile flags: /Ogtp
; File D:\Metin2 Server Files\mainline\SRC_2014\Metin2Client\eterLib\Pool.h
; File C:\Program Files (x86)\Microsoft Visual Studio\2019\Community\VC\Tools\MSVC\14.28.29333\include\vector
; File C:\Program Files (x86)\Microsoft Visual Studio\2019\Community\VC\Tools\MSVC\14.28.29333\include\algorithm
; File D:\Metin2 Server Files\mainline\SRC_2014\Metin2Client\eterLib\Pool.h
; File C:\Program Files (x86)\Microsoft Visual Studio\2019\Community\VC\Tools\MSVC\14.28.29333\include\algorithm
; File D:\Metin2 Server Files\mainline\SRC_2014\Metin2Client\eterLib\Pool.h
; File C:\Program Files (x86)\Microsoft Visual Studio\2019\Community\VC\Tools\MSVC\14.28.29333\include\algorithm
; File D:\Metin2 Server Files\mainline\SRC_2014\Metin2Client\eterLib\Pool.h
; File C:\Program Files (x86)\Microsoft Visual Studio\2019\Community\VC\Tools\MSVC\14.28.29333\include\vector
; File C:\Program Files (x86)\Microsoft Visual Studio\2019\Community\VC\Tools\MSVC\14.28.29333\include\xmemory
; File C:\Program Files (x86)\Microsoft Visual Studio\2019\Community\VC\Tools\MSVC\14.28.29333\include\vector
; File C:\Program Files (x86)\Microsoft Visual Studio\2019\Community\VC\Tools\MSVC\14.28.29333\include\xmemory
; File C:\Program Files (x86)\Microsoft Visual Studio\2019\Community\VC\Tools\MSVC\14.28.29333\include\vector
; File C:\Program Files (x86)\Microsoft Visual Studio\2019\Community\VC\Tools\MSVC\14.28.29333\include\xmemory
; File C:\Program Files (x86)\Microsoft Visual Studio\2019\Community\VC\Tools\MSVC\14.28.29333\include\vector
; File C:\Program Files (x86)\Microsoft Visual Studio\2019\Community\VC\Tools\MSVC\14.28.29333\include\xmemory
; File C:\Program Files (x86)\Microsoft Visual Studio\2019\Community\VC\Tools\MSVC\14.28.29333\include\vector
; File D:\Metin2 Server Files\mainline\SRC_2014\Metin2Client\eterLib\Pool.h
;	COMDAT ??1?$CDynamicPoolEx@VCAirResistanceDecorator@NEffectUpdateDecorator@@@@UAE@XZ
_TEXT	SEGMENT
??1?$CDynamicPoolEx@VCAirResistanceDecorator@NEffectUpdateDecorator@@@@UAE@XZ PROC ; CDynamicPoolEx<NEffectUpdateDecorator::CAirResistanceDecorator>::~CDynamicPoolEx<NEffectUpdateDecorator::CAirResistanceDecorator>, COMDAT
; _this$ = ecx

; 132  : 		{

  00000	53		 push	 ebx
  00001	56		 push	 esi
  00002	57		 push	 edi
  00003	8b f9		 mov	 edi, ecx
  00005	c7 07 00 00 00
	00		 mov	 DWORD PTR [edi], OFFSET ??_7?$CDynamicPoolEx@VCAirResistanceDecorator@NEffectUpdateDecorator@@@@6B@
; File C:\Program Files (x86)\Microsoft Visual Studio\2019\Community\VC\Tools\MSVC\14.28.29333\include\vector

; 42   :     _Vector_const_iterator(_Tptr _Parg, const _Container_base* _Pvector) noexcept : _Ptr(_Parg) {

  0000b	8b 5f 08	 mov	 ebx, DWORD PTR [edi+8]
  0000e	8b 77 04	 mov	 esi, DWORD PTR [edi+4]
; File C:\Program Files (x86)\Microsoft Visual Studio\2019\Community\VC\Tools\MSVC\14.28.29333\include\algorithm

; 307  :     for (; _UFirst != _ULast; ++_UFirst) {

  00011	3b f3		 cmp	 esi, ebx
  00013	74 14		 je	 SHORT $LN19@CDynamicPo
$LL20@CDynamicPo:
; File D:\Metin2 Server Files\mainline\SRC_2014\Metin2Client\eterLib\Pool.h

; 224  : 			::operator delete(pkData);

  00015	ff 36		 push	 DWORD PTR [esi]
  00017	e8 00 00 00 00	 call	 ??3@YAXPAX@Z		; operator delete
; File C:\Program Files (x86)\Microsoft Visual Studio\2019\Community\VC\Tools\MSVC\14.28.29333\include\algorithm

; 307  :     for (; _UFirst != _ULast; ++_UFirst) {

  0001c	83 c6 04	 add	 esi, 4
; File D:\Metin2 Server Files\mainline\SRC_2014\Metin2Client\eterLib\Pool.h

; 224  : 			::operator delete(pkData);

  0001f	83 c4 04	 add	 esp, 4
; File C:\Program Files (x86)\Microsoft Visual Studio\2019\Community\VC\Tools\MSVC\14.28.29333\include\algorithm

; 307  :     for (; _UFirst != _ULast; ++_UFirst) {

  00022	3b f3		 cmp	 esi, ebx
  00024	75 ef		 jne	 SHORT $LL20@CDynamicPo
  00026	8b 77 04	 mov	 esi, DWORD PTR [edi+4]
$LN19@CDynamicPo:
; File D:\Metin2 Server Files\mainline\SRC_2014\Metin2Client\eterLib\Pool.h

; 162  : 			m_kVct_pkFree.clear();

  00029	8b 4f 10	 mov	 ecx, DWORD PTR [edi+16]
  0002c	89 77 08	 mov	 DWORD PTR [edi+8], esi
  0002f	89 4f 14	 mov	 DWORD PTR [edi+20], ecx
; File C:\Program Files (x86)\Microsoft Visual Studio\2019\Community\VC\Tools\MSVC\14.28.29333\include\vector

; 1694 :         if (_Myfirst) { // destroy and deallocate old array

  00032	85 c9		 test	 ecx, ecx
  00034	74 27		 je	 SHORT $LN27@CDynamicPo

; 1695 :             _Destroy(_Myfirst, _Mylast);
; 1696 :             _Getal().deallocate(_Myfirst, static_cast<size_type>(_Myend - _Myfirst));

  00036	8b 47 18	 mov	 eax, DWORD PTR [edi+24]
  00039	2b c1		 sub	 eax, ecx
; File C:\Program Files (x86)\Microsoft Visual Studio\2019\Community\VC\Tools\MSVC\14.28.29333\include\xmemory

; 810  :         _Deallocate<_New_alignof<_Ty>>(_Ptr, sizeof(_Ty) * _Count);

  0003b	83 e0 fc	 and	 eax, -4			; fffffffcH
  0003e	50		 push	 eax
  0003f	51		 push	 ecx
  00040	e8 00 00 00 00	 call	 ??$_Deallocate@$07$0A@@std@@YAXPAXI@Z ; std::_Deallocate<8,0>
; File C:\Program Files (x86)\Microsoft Visual Studio\2019\Community\VC\Tools\MSVC\14.28.29333\include\vector

; 1698 :             _Myfirst = pointer();

  00045	c7 47 10 00 00
	00 00		 mov	 DWORD PTR [edi+16], 0
; File C:\Program Files (x86)\Microsoft Visual Studio\2019\Community\VC\Tools\MSVC\14.28.29333\include\xmemory

; 810  :         _Deallocate<_New_alignof<_Ty>>(_Ptr, sizeof(_Ty) * _Count);

  0004c	83 c4 08	 add	 esp, 8
; File C:\Program Files (x86)\Microsoft Visual Studio\2019\Community\VC\Tools\MSVC\14.28.29333\include\vector

; 1699 :             _Mylast  = pointer();

  0004f	c7 47 14 00 00
	00 00		 mov	 DWORD PTR [edi+20], 0

; 1700 :             _Myend   = pointer();

  00056	c7 47 18 00 00
	00 00		 mov	 DWORD PTR [edi+24], 0
$LN27@CDynamicPo:

; 1694 :         if (_Myfirst) { // destroy and deallocate old array

  0005d	8b 4f 04	 mov	 ecx, DWORD PTR [edi+4]
  00060	85 c9		 test	 ecx, ecx
  00062	74 27		 je	 SHORT $LN34@CDynamicPo

; 1695 :             _Destroy(_Myfirst, _Mylast);
; 1696 :             _Getal().deallocate(_Myfirst, static_cast<size_type>(_Myend - _Myfirst));

  00064	8b 47 0c	 mov	 eax, DWORD PTR [edi+12]
  00067	2b c1		 sub	 eax, ecx
; File C:\Program Files (x86)\Microsoft Visual Studio\2019\Community\VC\Tools\MSVC\14.28.29333\include\xmemory

; 810  :         _Deallocate<_New_alignof<_Ty>>(_Ptr, sizeof(_Ty) * _Count);

  00069	83 e0 fc	 and	 eax, -4			; fffffffcH
  0006c	50		 push	 eax
  0006d	51		 push	 ecx
  0006e	e8 00 00 00 00	 call	 ??$_Deallocate@$07$0A@@std@@YAXPAXI@Z ; std::_Deallocate<8,0>
; File C:\Program Files (x86)\Microsoft Visual Studio\2019\Community\VC\Tools\MSVC\14.28.29333\include\vector

; 1698 :             _Myfirst = pointer();

  00073	c7 47 04 00 00
	00 00		 mov	 DWORD PTR [edi+4], 0
; File C:\Program Files (x86)\Microsoft Visual Studio\2019\Community\VC\Tools\MSVC\14.28.29333\include\xmemory

; 810  :         _Deallocate<_New_alignof<_Ty>>(_Ptr, sizeof(_Ty) * _Count);

  0007a	83 c4 08	 add	 esp, 8
; File C:\Program Files (x86)\Microsoft Visual Studio\2019\Community\VC\Tools\MSVC\14.28.29333\include\vector

; 1699 :             _Mylast  = pointer();

  0007d	c7 47 08 00 00
	00 00		 mov	 DWORD PTR [edi+8], 0

; 1700 :             _Myend   = pointer();

  00084	c7 47 0c 00 00
	00 00		 mov	 DWORD PTR [edi+12], 0
$LN34@CDynamicPo:
  0008b	5f		 pop	 edi
; File D:\Metin2 Server Files\mainline\SRC_2014\Metin2Client\eterLib\Pool.h

; 142  : 		}

  0008c	5e		 pop	 esi
  0008d	5b		 pop	 ebx
  0008e	c3		 ret	 0
??1?$CDynamicPoolEx@VCAirResistanceDecorator@NEffectUpdateDecorator@@@@UAE@XZ ENDP ; CDynamicPoolEx<NEffectUpdateDecorator::CAirResistanceDecorator>::~CDynamicPoolEx<NEffectUpdateDecorator::CAirResistanceDecorator>
_TEXT	ENDS
; Function compile flags: /Ogtp
;	COMDAT ??_G?$CDynamicPoolEx@VCGravityDecorator@NEffectUpdateDecorator@@@@UAEPAXI@Z
_TEXT	SEGMENT
___flags$ = 8						; size = 4
??_G?$CDynamicPoolEx@VCGravityDecorator@NEffectUpdateDecorator@@@@UAEPAXI@Z PROC ; CDynamicPoolEx<NEffectUpdateDecorator::CGravityDecorator>::`scalar deleting destructor', COMDAT
; _this$ = ecx
  00000	55		 push	 ebp
  00001	8b ec		 mov	 ebp, esp
  00003	56		 push	 esi
  00004	8b f1		 mov	 esi, ecx
  00006	e8 00 00 00 00	 call	 ??1?$CDynamicPoolEx@VCGravityDecorator@NEffectUpdateDecorator@@@@UAE@XZ ; CDynamicPoolEx<NEffectUpdateDecorator::CGravityDecorator>::~CDynamicPoolEx<NEffectUpdateDecorator::CGravityDecorator>
  0000b	f6 45 08 01	 test	 BYTE PTR ___flags$[ebp], 1
  0000f	74 0b		 je	 SHORT $LN4@scalar
  00011	6a 24		 push	 36			; 00000024H
  00013	56		 push	 esi
  00014	e8 00 00 00 00	 call	 ??3@YAXPAXI@Z		; operator delete
  00019	83 c4 08	 add	 esp, 8
$LN4@scalar:
  0001c	8b c6		 mov	 eax, esi
  0001e	5e		 pop	 esi
  0001f	5d		 pop	 ebp
  00020	c2 04 00	 ret	 4
??_G?$CDynamicPoolEx@VCGravityDecorator@NEffectUpdateDecorator@@@@UAEPAXI@Z ENDP ; CDynamicPoolEx<NEffectUpdateDecorator::CGravityDecorator>::`scalar deleting destructor'
_TEXT	ENDS
; Function compile flags: /Ogtp
; File D:\Metin2 Server Files\mainline\SRC_2014\Metin2Client\eterLib\Pool.h
;	COMDAT ?Delete@?$CDynamicPoolEx@VCGravityDecorator@NEffectUpdateDecorator@@@@KAXPAVCGravityDecorator@NEffectUpdateDecorator@@@Z
_TEXT	SEGMENT
_pkData$ = 8						; size = 4
?Delete@?$CDynamicPoolEx@VCGravityDecorator@NEffectUpdateDecorator@@@@KAXPAVCGravityDecorator@NEffectUpdateDecorator@@@Z PROC ; CDynamicPoolEx<NEffectUpdateDecorator::CGravityDecorator>::Delete, COMDAT

; 224  : 			::operator delete(pkData);

  00000	e9 00 00 00 00	 jmp	 ??3@YAXPAX@Z		; operator delete
?Delete@?$CDynamicPoolEx@VCGravityDecorator@NEffectUpdateDecorator@@@@KAXPAVCGravityDecorator@NEffectUpdateDecorator@@@Z ENDP ; CDynamicPoolEx<NEffectUpdateDecorator::CGravityDecorator>::Delete
_TEXT	ENDS
; Function compile flags: /Ogtp
; File D:\Metin2 Server Files\mainline\SRC_2014\Metin2Client\eterLib\Pool.h
; File C:\Program Files (x86)\Microsoft Visual Studio\2019\Community\VC\Tools\MSVC\14.28.29333\include\vector
; File C:\Program Files (x86)\Microsoft Visual Studio\2019\Community\VC\Tools\MSVC\14.28.29333\include\algorithm
; File D:\Metin2 Server Files\mainline\SRC_2014\Metin2Client\eterLib\Pool.h
; File C:\Program Files (x86)\Microsoft Visual Studio\2019\Community\VC\Tools\MSVC\14.28.29333\include\algorithm
; File D:\Metin2 Server Files\mainline\SRC_2014\Metin2Client\eterLib\Pool.h
; File C:\Program Files (x86)\Microsoft Visual Studio\2019\Community\VC\Tools\MSVC\14.28.29333\include\algorithm
; File D:\Metin2 Server Files\mainline\SRC_2014\Metin2Client\eterLib\Pool.h
; File C:\Program Files (x86)\Microsoft Visual Studio\2019\Community\VC\Tools\MSVC\14.28.29333\include\vector
; File C:\Program Files (x86)\Microsoft Visual Studio\2019\Community\VC\Tools\MSVC\14.28.29333\include\xmemory
; File C:\Program Files (x86)\Microsoft Visual Studio\2019\Community\VC\Tools\MSVC\14.28.29333\include\vector
; File C:\Program Files (x86)\Microsoft Visual Studio\2019\Community\VC\Tools\MSVC\14.28.29333\include\xmemory
; File C:\Program Files (x86)\Microsoft Visual Studio\2019\Community\VC\Tools\MSVC\14.28.29333\include\vector
; File C:\Program Files (x86)\Microsoft Visual Studio\2019\Community\VC\Tools\MSVC\14.28.29333\include\xmemory
; File C:\Program Files (x86)\Microsoft Visual Studio\2019\Community\VC\Tools\MSVC\14.28.29333\include\vector
; File C:\Program Files (x86)\Microsoft Visual Studio\2019\Community\VC\Tools\MSVC\14.28.29333\include\xmemory
; File C:\Program Files (x86)\Microsoft Visual Studio\2019\Community\VC\Tools\MSVC\14.28.29333\include\vector
; File D:\Metin2 Server Files\mainline\SRC_2014\Metin2Client\eterLib\Pool.h
;	COMDAT ??1?$CDynamicPoolEx@VCGravityDecorator@NEffectUpdateDecorator@@@@UAE@XZ
_TEXT	SEGMENT
??1?$CDynamicPoolEx@VCGravityDecorator@NEffectUpdateDecorator@@@@UAE@XZ PROC ; CDynamicPoolEx<NEffectUpdateDecorator::CGravityDecorator>::~CDynamicPoolEx<NEffectUpdateDecorator::CGravityDecorator>, COMDAT
; _this$ = ecx

; 132  : 		{

  00000	53		 push	 ebx
  00001	56		 push	 esi
  00002	57		 push	 edi
  00003	8b f9		 mov	 edi, ecx
  00005	c7 07 00 00 00
	00		 mov	 DWORD PTR [edi], OFFSET ??_7?$CDynamicPoolEx@VCGravityDecorator@NEffectUpdateDecorator@@@@6B@
; File C:\Program Files (x86)\Microsoft Visual Studio\2019\Community\VC\Tools\MSVC\14.28.29333\include\vector

; 42   :     _Vector_const_iterator(_Tptr _Parg, const _Container_base* _Pvector) noexcept : _Ptr(_Parg) {

  0000b	8b 5f 08	 mov	 ebx, DWORD PTR [edi+8]
  0000e	8b 77 04	 mov	 esi, DWORD PTR [edi+4]
; File C:\Program Files (x86)\Microsoft Visual Studio\2019\Community\VC\Tools\MSVC\14.28.29333\include\algorithm

; 307  :     for (; _UFirst != _ULast; ++_UFirst) {

  00011	3b f3		 cmp	 esi, ebx
  00013	74 14		 je	 SHORT $LN19@CDynamicPo
$LL20@CDynamicPo:
; File D:\Metin2 Server Files\mainline\SRC_2014\Metin2Client\eterLib\Pool.h

; 224  : 			::operator delete(pkData);

  00015	ff 36		 push	 DWORD PTR [esi]
  00017	e8 00 00 00 00	 call	 ??3@YAXPAX@Z		; operator delete
; File C:\Program Files (x86)\Microsoft Visual Studio\2019\Community\VC\Tools\MSVC\14.28.29333\include\algorithm

; 307  :     for (; _UFirst != _ULast; ++_UFirst) {

  0001c	83 c6 04	 add	 esi, 4
; File D:\Metin2 Server Files\mainline\SRC_2014\Metin2Client\eterLib\Pool.h

; 224  : 			::operator delete(pkData);

  0001f	83 c4 04	 add	 esp, 4
; File C:\Program Files (x86)\Microsoft Visual Studio\2019\Community\VC\Tools\MSVC\14.28.29333\include\algorithm

; 307  :     for (; _UFirst != _ULast; ++_UFirst) {

  00022	3b f3		 cmp	 esi, ebx
  00024	75 ef		 jne	 SHORT $LL20@CDynamicPo
  00026	8b 77 04	 mov	 esi, DWORD PTR [edi+4]
$LN19@CDynamicPo:
; File D:\Metin2 Server Files\mainline\SRC_2014\Metin2Client\eterLib\Pool.h

; 162  : 			m_kVct_pkFree.clear();

  00029	8b 4f 10	 mov	 ecx, DWORD PTR [edi+16]
  0002c	89 77 08	 mov	 DWORD PTR [edi+8], esi
  0002f	89 4f 14	 mov	 DWORD PTR [edi+20], ecx
; File C:\Program Files (x86)\Microsoft Visual Studio\2019\Community\VC\Tools\MSVC\14.28.29333\include\vector

; 1694 :         if (_Myfirst) { // destroy and deallocate old array

  00032	85 c9		 test	 ecx, ecx
  00034	74 27		 je	 SHORT $LN27@CDynamicPo

; 1695 :             _Destroy(_Myfirst, _Mylast);
; 1696 :             _Getal().deallocate(_Myfirst, static_cast<size_type>(_Myend - _Myfirst));

  00036	8b 47 18	 mov	 eax, DWORD PTR [edi+24]
  00039	2b c1		 sub	 eax, ecx
; File C:\Program Files (x86)\Microsoft Visual Studio\2019\Community\VC\Tools\MSVC\14.28.29333\include\xmemory

; 810  :         _Deallocate<_New_alignof<_Ty>>(_Ptr, sizeof(_Ty) * _Count);

  0003b	83 e0 fc	 and	 eax, -4			; fffffffcH
  0003e	50		 push	 eax
  0003f	51		 push	 ecx
  00040	e8 00 00 00 00	 call	 ??$_Deallocate@$07$0A@@std@@YAXPAXI@Z ; std::_Deallocate<8,0>
; File C:\Program Files (x86)\Microsoft Visual Studio\2019\Community\VC\Tools\MSVC\14.28.29333\include\vector

; 1698 :             _Myfirst = pointer();

  00045	c7 47 10 00 00
	00 00		 mov	 DWORD PTR [edi+16], 0
; File C:\Program Files (x86)\Microsoft Visual Studio\2019\Community\VC\Tools\MSVC\14.28.29333\include\xmemory

; 810  :         _Deallocate<_New_alignof<_Ty>>(_Ptr, sizeof(_Ty) * _Count);

  0004c	83 c4 08	 add	 esp, 8
; File C:\Program Files (x86)\Microsoft Visual Studio\2019\Community\VC\Tools\MSVC\14.28.29333\include\vector

; 1699 :             _Mylast  = pointer();

  0004f	c7 47 14 00 00
	00 00		 mov	 DWORD PTR [edi+20], 0

; 1700 :             _Myend   = pointer();

  00056	c7 47 18 00 00
	00 00		 mov	 DWORD PTR [edi+24], 0
$LN27@CDynamicPo:

; 1694 :         if (_Myfirst) { // destroy and deallocate old array

  0005d	8b 4f 04	 mov	 ecx, DWORD PTR [edi+4]
  00060	85 c9		 test	 ecx, ecx
  00062	74 27		 je	 SHORT $LN34@CDynamicPo

; 1695 :             _Destroy(_Myfirst, _Mylast);
; 1696 :             _Getal().deallocate(_Myfirst, static_cast<size_type>(_Myend - _Myfirst));

  00064	8b 47 0c	 mov	 eax, DWORD PTR [edi+12]
  00067	2b c1		 sub	 eax, ecx
; File C:\Program Files (x86)\Microsoft Visual Studio\2019\Community\VC\Tools\MSVC\14.28.29333\include\xmemory

; 810  :         _Deallocate<_New_alignof<_Ty>>(_Ptr, sizeof(_Ty) * _Count);

  00069	83 e0 fc	 and	 eax, -4			; fffffffcH
  0006c	50		 push	 eax
  0006d	51		 push	 ecx
  0006e	e8 00 00 00 00	 call	 ??$_Deallocate@$07$0A@@std@@YAXPAXI@Z ; std::_Deallocate<8,0>
; File C:\Program Files (x86)\Microsoft Visual Studio\2019\Community\VC\Tools\MSVC\14.28.29333\include\vector

; 1698 :             _Myfirst = pointer();

  00073	c7 47 04 00 00
	00 00		 mov	 DWORD PTR [edi+4], 0
; File C:\Program Files (x86)\Microsoft Visual Studio\2019\Community\VC\Tools\MSVC\14.28.29333\include\xmemory

; 810  :         _Deallocate<_New_alignof<_Ty>>(_Ptr, sizeof(_Ty) * _Count);

  0007a	83 c4 08	 add	 esp, 8
; File C:\Program Files (x86)\Microsoft Visual Studio\2019\Community\VC\Tools\MSVC\14.28.29333\include\vector

; 1699 :             _Mylast  = pointer();

  0007d	c7 47 08 00 00
	00 00		 mov	 DWORD PTR [edi+8], 0

; 1700 :             _Myend   = pointer();

  00084	c7 47 0c 00 00
	00 00		 mov	 DWORD PTR [edi+12], 0
$LN34@CDynamicPo:
  0008b	5f		 pop	 edi
; File D:\Metin2 Server Files\mainline\SRC_2014\Metin2Client\eterLib\Pool.h

; 142  : 		}

  0008c	5e		 pop	 esi
  0008d	5b		 pop	 ebx
  0008e	c3		 ret	 0
??1?$CDynamicPoolEx@VCGravityDecorator@NEffectUpdateDecorator@@@@UAE@XZ ENDP ; CDynamicPoolEx<NEffectUpdateDecorator::CGravityDecorator>::~CDynamicPoolEx<NEffectUpdateDecorator::CGravityDecorator>
_TEXT	ENDS
; Function compile flags: /Ogtp
;	COMDAT ??_G?$CDynamicPoolEx@VCRotationDecorator@NEffectUpdateDecorator@@@@UAEPAXI@Z
_TEXT	SEGMENT
___flags$ = 8						; size = 4
??_G?$CDynamicPoolEx@VCRotationDecorator@NEffectUpdateDecorator@@@@UAEPAXI@Z PROC ; CDynamicPoolEx<NEffectUpdateDecorator::CRotationDecorator>::`scalar deleting destructor', COMDAT
; _this$ = ecx
  00000	55		 push	 ebp
  00001	8b ec		 mov	 ebp, esp
  00003	56		 push	 esi
  00004	8b f1		 mov	 esi, ecx
  00006	e8 00 00 00 00	 call	 ??1?$CDynamicPoolEx@VCRotationDecorator@NEffectUpdateDecorator@@@@UAE@XZ ; CDynamicPoolEx<NEffectUpdateDecorator::CRotationDecorator>::~CDynamicPoolEx<NEffectUpdateDecorator::CRotationDecorator>
  0000b	f6 45 08 01	 test	 BYTE PTR ___flags$[ebp], 1
  0000f	74 0b		 je	 SHORT $LN4@scalar
  00011	6a 24		 push	 36			; 00000024H
  00013	56		 push	 esi
  00014	e8 00 00 00 00	 call	 ??3@YAXPAXI@Z		; operator delete
  00019	83 c4 08	 add	 esp, 8
$LN4@scalar:
  0001c	8b c6		 mov	 eax, esi
  0001e	5e		 pop	 esi
  0001f	5d		 pop	 ebp
  00020	c2 04 00	 ret	 4
??_G?$CDynamicPoolEx@VCRotationDecorator@NEffectUpdateDecorator@@@@UAEPAXI@Z ENDP ; CDynamicPoolEx<NEffectUpdateDecorator::CRotationDecorator>::`scalar deleting destructor'
_TEXT	ENDS
; Function compile flags: /Ogtp
; File D:\Metin2 Server Files\mainline\SRC_2014\Metin2Client\eterLib\Pool.h
;	COMDAT ?Delete@?$CDynamicPoolEx@VCRotationDecorator@NEffectUpdateDecorator@@@@KAXPAVCRotationDecorator@NEffectUpdateDecorator@@@Z
_TEXT	SEGMENT
_pkData$ = 8						; size = 4
?Delete@?$CDynamicPoolEx@VCRotationDecorator@NEffectUpdateDecorator@@@@KAXPAVCRotationDecorator@NEffectUpdateDecorator@@@Z PROC ; CDynamicPoolEx<NEffectUpdateDecorator::CRotationDecorator>::Delete, COMDAT

; 224  : 			::operator delete(pkData);

  00000	e9 00 00 00 00	 jmp	 ??3@YAXPAX@Z		; operator delete
?Delete@?$CDynamicPoolEx@VCRotationDecorator@NEffectUpdateDecorator@@@@KAXPAVCRotationDecorator@NEffectUpdateDecorator@@@Z ENDP ; CDynamicPoolEx<NEffectUpdateDecorator::CRotationDecorator>::Delete
_TEXT	ENDS
; Function compile flags: /Ogtp
; File D:\Metin2 Server Files\mainline\SRC_2014\Metin2Client\eterLib\Pool.h
; File C:\Program Files (x86)\Microsoft Visual Studio\2019\Community\VC\Tools\MSVC\14.28.29333\include\vector
; File C:\Program Files (x86)\Microsoft Visual Studio\2019\Community\VC\Tools\MSVC\14.28.29333\include\algorithm
; File D:\Metin2 Server Files\mainline\SRC_2014\Metin2Client\eterLib\Pool.h
; File C:\Program Files (x86)\Microsoft Visual Studio\2019\Community\VC\Tools\MSVC\14.28.29333\include\algorithm
; File D:\Metin2 Server Files\mainline\SRC_2014\Metin2Client\eterLib\Pool.h
; File C:\Program Files (x86)\Microsoft Visual Studio\2019\Community\VC\Tools\MSVC\14.28.29333\include\algorithm
; File D:\Metin2 Server Files\mainline\SRC_2014\Metin2Client\eterLib\Pool.h
; File C:\Program Files (x86)\Microsoft Visual Studio\2019\Community\VC\Tools\MSVC\14.28.29333\include\vector
; File C:\Program Files (x86)\Microsoft Visual Studio\2019\Community\VC\Tools\MSVC\14.28.29333\include\xmemory
; File C:\Program Files (x86)\Microsoft Visual Studio\2019\Community\VC\Tools\MSVC\14.28.29333\include\vector
; File C:\Program Files (x86)\Microsoft Visual Studio\2019\Community\VC\Tools\MSVC\14.28.29333\include\xmemory
; File C:\Program Files (x86)\Microsoft Visual Studio\2019\Community\VC\Tools\MSVC\14.28.29333\include\vector
; File C:\Program Files (x86)\Microsoft Visual Studio\2019\Community\VC\Tools\MSVC\14.28.29333\include\xmemory
; File C:\Program Files (x86)\Microsoft Visual Studio\2019\Community\VC\Tools\MSVC\14.28.29333\include\vector
; File C:\Program Files (x86)\Microsoft Visual Studio\2019\Community\VC\Tools\MSVC\14.28.29333\include\xmemory
; File C:\Program Files (x86)\Microsoft Visual Studio\2019\Community\VC\Tools\MSVC\14.28.29333\include\vector
; File D:\Metin2 Server Files\mainline\SRC_2014\Metin2Client\eterLib\Pool.h
;	COMDAT ??1?$CDynamicPoolEx@VCRotationDecorator@NEffectUpdateDecorator@@@@UAE@XZ
_TEXT	SEGMENT
??1?$CDynamicPoolEx@VCRotationDecorator@NEffectUpdateDecorator@@@@UAE@XZ PROC ; CDynamicPoolEx<NEffectUpdateDecorator::CRotationDecorator>::~CDynamicPoolEx<NEffectUpdateDecorator::CRotationDecorator>, COMDAT
; _this$ = ecx

; 132  : 		{

  00000	53		 push	 ebx
  00001	56		 push	 esi
  00002	57		 push	 edi
  00003	8b f9		 mov	 edi, ecx
  00005	c7 07 00 00 00
	00		 mov	 DWORD PTR [edi], OFFSET ??_7?$CDynamicPoolEx@VCRotationDecorator@NEffectUpdateDecorator@@@@6B@
; File C:\Program Files (x86)\Microsoft Visual Studio\2019\Community\VC\Tools\MSVC\14.28.29333\include\vector

; 42   :     _Vector_const_iterator(_Tptr _Parg, const _Container_base* _Pvector) noexcept : _Ptr(_Parg) {

  0000b	8b 5f 08	 mov	 ebx, DWORD PTR [edi+8]
  0000e	8b 77 04	 mov	 esi, DWORD PTR [edi+4]
; File C:\Program Files (x86)\Microsoft Visual Studio\2019\Community\VC\Tools\MSVC\14.28.29333\include\algorithm

; 307  :     for (; _UFirst != _ULast; ++_UFirst) {

  00011	3b f3		 cmp	 esi, ebx
  00013	74 14		 je	 SHORT $LN19@CDynamicPo
$LL20@CDynamicPo:
; File D:\Metin2 Server Files\mainline\SRC_2014\Metin2Client\eterLib\Pool.h

; 224  : 			::operator delete(pkData);

  00015	ff 36		 push	 DWORD PTR [esi]
  00017	e8 00 00 00 00	 call	 ??3@YAXPAX@Z		; operator delete
; File C:\Program Files (x86)\Microsoft Visual Studio\2019\Community\VC\Tools\MSVC\14.28.29333\include\algorithm

; 307  :     for (; _UFirst != _ULast; ++_UFirst) {

  0001c	83 c6 04	 add	 esi, 4
; File D:\Metin2 Server Files\mainline\SRC_2014\Metin2Client\eterLib\Pool.h

; 224  : 			::operator delete(pkData);

  0001f	83 c4 04	 add	 esp, 4
; File C:\Program Files (x86)\Microsoft Visual Studio\2019\Community\VC\Tools\MSVC\14.28.29333\include\algorithm

; 307  :     for (; _UFirst != _ULast; ++_UFirst) {

  00022	3b f3		 cmp	 esi, ebx
  00024	75 ef		 jne	 SHORT $LL20@CDynamicPo
  00026	8b 77 04	 mov	 esi, DWORD PTR [edi+4]
$LN19@CDynamicPo:
; File D:\Metin2 Server Files\mainline\SRC_2014\Metin2Client\eterLib\Pool.h

; 162  : 			m_kVct_pkFree.clear();

  00029	8b 4f 10	 mov	 ecx, DWORD PTR [edi+16]
  0002c	89 77 08	 mov	 DWORD PTR [edi+8], esi
  0002f	89 4f 14	 mov	 DWORD PTR [edi+20], ecx
; File C:\Program Files (x86)\Microsoft Visual Studio\2019\Community\VC\Tools\MSVC\14.28.29333\include\vector

; 1694 :         if (_Myfirst) { // destroy and deallocate old array

  00032	85 c9		 test	 ecx, ecx
  00034	74 27		 je	 SHORT $LN27@CDynamicPo

; 1695 :             _Destroy(_Myfirst, _Mylast);
; 1696 :             _Getal().deallocate(_Myfirst, static_cast<size_type>(_Myend - _Myfirst));

  00036	8b 47 18	 mov	 eax, DWORD PTR [edi+24]
  00039	2b c1		 sub	 eax, ecx
; File C:\Program Files (x86)\Microsoft Visual Studio\2019\Community\VC\Tools\MSVC\14.28.29333\include\xmemory

; 810  :         _Deallocate<_New_alignof<_Ty>>(_Ptr, sizeof(_Ty) * _Count);

  0003b	83 e0 fc	 and	 eax, -4			; fffffffcH
  0003e	50		 push	 eax
  0003f	51		 push	 ecx
  00040	e8 00 00 00 00	 call	 ??$_Deallocate@$07$0A@@std@@YAXPAXI@Z ; std::_Deallocate<8,0>
; File C:\Program Files (x86)\Microsoft Visual Studio\2019\Community\VC\Tools\MSVC\14.28.29333\include\vector

; 1698 :             _Myfirst = pointer();

  00045	c7 47 10 00 00
	00 00		 mov	 DWORD PTR [edi+16], 0
; File C:\Program Files (x86)\Microsoft Visual Studio\2019\Community\VC\Tools\MSVC\14.28.29333\include\xmemory

; 810  :         _Deallocate<_New_alignof<_Ty>>(_Ptr, sizeof(_Ty) * _Count);

  0004c	83 c4 08	 add	 esp, 8
; File C:\Program Files (x86)\Microsoft Visual Studio\2019\Community\VC\Tools\MSVC\14.28.29333\include\vector

; 1699 :             _Mylast  = pointer();

  0004f	c7 47 14 00 00
	00 00		 mov	 DWORD PTR [edi+20], 0

; 1700 :             _Myend   = pointer();

  00056	c7 47 18 00 00
	00 00		 mov	 DWORD PTR [edi+24], 0
$LN27@CDynamicPo:

; 1694 :         if (_Myfirst) { // destroy and deallocate old array

  0005d	8b 4f 04	 mov	 ecx, DWORD PTR [edi+4]
  00060	85 c9		 test	 ecx, ecx
  00062	74 27		 je	 SHORT $LN34@CDynamicPo

; 1695 :             _Destroy(_Myfirst, _Mylast);
; 1696 :             _Getal().deallocate(_Myfirst, static_cast<size_type>(_Myend - _Myfirst));

  00064	8b 47 0c	 mov	 eax, DWORD PTR [edi+12]
  00067	2b c1		 sub	 eax, ecx
; File C:\Program Files (x86)\Microsoft Visual Studio\2019\Community\VC\Tools\MSVC\14.28.29333\include\xmemory

; 810  :         _Deallocate<_New_alignof<_Ty>>(_Ptr, sizeof(_Ty) * _Count);

  00069	83 e0 fc	 and	 eax, -4			; fffffffcH
  0006c	50		 push	 eax
  0006d	51		 push	 ecx
  0006e	e8 00 00 00 00	 call	 ??$_Deallocate@$07$0A@@std@@YAXPAXI@Z ; std::_Deallocate<8,0>
; File C:\Program Files (x86)\Microsoft Visual Studio\2019\Community\VC\Tools\MSVC\14.28.29333\include\vector

; 1698 :             _Myfirst = pointer();

  00073	c7 47 04 00 00
	00 00		 mov	 DWORD PTR [edi+4], 0
; File C:\Program Files (x86)\Microsoft Visual Studio\2019\Community\VC\Tools\MSVC\14.28.29333\include\xmemory

; 810  :         _Deallocate<_New_alignof<_Ty>>(_Ptr, sizeof(_Ty) * _Count);

  0007a	83 c4 08	 add	 esp, 8
; File C:\Program Files (x86)\Microsoft Visual Studio\2019\Community\VC\Tools\MSVC\14.28.29333\include\vector

; 1699 :             _Mylast  = pointer();

  0007d	c7 47 08 00 00
	00 00		 mov	 DWORD PTR [edi+8], 0

; 1700 :             _Myend   = pointer();

  00084	c7 47 0c 00 00
	00 00		 mov	 DWORD PTR [edi+12], 0
$LN34@CDynamicPo:
  0008b	5f		 pop	 edi
; File D:\Metin2 Server Files\mainline\SRC_2014\Metin2Client\eterLib\Pool.h

; 142  : 		}

  0008c	5e		 pop	 esi
  0008d	5b		 pop	 ebx
  0008e	c3		 ret	 0
??1?$CDynamicPoolEx@VCRotationDecorator@NEffectUpdateDecorator@@@@UAE@XZ ENDP ; CDynamicPoolEx<NEffectUpdateDecorator::CRotationDecorator>::~CDynamicPoolEx<NEffectUpdateDecorator::CRotationDecorator>
_TEXT	ENDS
; Function compile flags: /Ogtp
; File D:\Metin2 Server Files\mainline\SRC_2014\Metin2Client\UserInterface\PythonNetworkStreamPhaseGameItem.cpp
;	COMDAT ?__IsEquipItemInSlot@CPythonNetworkStream@@IAE_NUSItemPos@@@Z
_TEXT	SEGMENT
_uSlotPos$ = 8						; size = 3
?__IsEquipItemInSlot@CPythonNetworkStream@@IAE_NUSItemPos@@@Z PROC ; CPythonNetworkStream::__IsEquipItemInSlot, COMDAT
; _this$ = ecx

; 587  : {

  00000	55		 push	 ebp
  00001	8b ec		 mov	 ebp, esp

; 588  : 	IAbstractPlayer& rkPlayer=IAbstractPlayer::GetSingleton();

  00003	8b 0d 00 00 00
	00		 mov	 ecx, DWORD PTR ?ms_singleton@?$TAbstractSingleton@VIAbstractPlayer@@@@0PAVIAbstractPlayer@@A ; TAbstractSingleton<IAbstractPlayer>::ms_singleton

; 589  : 	return rkPlayer.IsEquipItemInSlot(uSlotPos);

  00009	66 8b 45 08	 mov	 ax, WORD PTR _uSlotPos$[ebp]
  0000d	56		 push	 esi
  0000e	51		 push	 ecx
  0000f	8b 31		 mov	 esi, DWORD PTR [ecx]
  00011	8b d4		 mov	 edx, esp
  00013	66 89 02	 mov	 WORD PTR [edx], ax
  00016	8a 45 0a	 mov	 al, BYTE PTR _uSlotPos$[ebp+2]
  00019	88 42 02	 mov	 BYTE PTR [edx+2], al
  0001c	8b 46 4c	 mov	 eax, DWORD PTR [esi+76]
  0001f	ff d0		 call	 eax

; 590  : }

  00021	5e		 pop	 esi
  00022	5d		 pop	 ebp
  00023	c2 04 00	 ret	 4
?__IsEquipItemInSlot@CPythonNetworkStream@@IAE_NUSItemPos@@@Z ENDP ; CPythonNetworkStream::__IsEquipItemInSlot
_TEXT	ENDS
; Function compile flags: /Ogtp
; File D:\Metin2 Server Files\mainline\SRC_2014\Metin2Client\UserInterface\PythonNetworkStreamPhaseGameItem.cpp
; File D:\Metin2 Server Files\mainline\SRC_2014\Metin2Client\UserInterface\GameType.h
; File D:\Metin2 Server Files\mainline\SRC_2014\Metin2Client\UserInterface\packet.h
; File D:\Metin2 Server Files\mainline\SRC_2014\Metin2Client\UserInterface\PythonNetworkStreamPhaseGameItem.cpp
; File D:\Metin2 Server Files\mainline\SRC_2014\Metin2Client\UserInterface\GameType.h
; File D:\Metin2 Server Files\mainline\SRC_2014\Metin2Client\UserInterface\PythonNetworkStreamPhaseGameItem.cpp
; File D:\Metin2 Server Files\mainline\SRC_2014\Metin2Client\UserInterface\GameType.h
; File D:\Metin2 Server Files\mainline\SRC_2014\Metin2Client\UserInterface\PythonNetworkStreamPhaseGameItem.cpp
;	COMDAT ?RecvDragonSoulRefine@CPythonNetworkStream@@IAE_NXZ
_TEXT	SEGMENT
_kDragonSoul$ = -8					; size = 5
?RecvDragonSoulRefine@CPythonNetworkStream@@IAE_NXZ PROC ; CPythonNetworkStream::RecvDragonSoulRefine, COMDAT
; _this$ = ecx

; 912  : {

  00000	55		 push	 ebp
  00001	8b ec		 mov	 ebp, esp
  00003	83 ec 08	 sub	 esp, 8
; File D:\Metin2 Server Files\mainline\SRC_2014\Metin2Client\UserInterface\GameType.h

; 187  : 		cell = WORD_MAX;

  00006	b8 ff ff 00 00	 mov	 eax, 65535		; 0000ffffH
; File D:\Metin2 Server Files\mainline\SRC_2014\Metin2Client\UserInterface\packet.h

; 2800 : 	SPacketGCDragonSoulRefine() : header(HEADER_GC_DRAGON_SOUL_REFINE)

  0000b	c6 45 f8 d1	 mov	 BYTE PTR _kDragonSoul$[ebp], 209 ; 000000d1H
; File D:\Metin2 Server Files\mainline\SRC_2014\Metin2Client\UserInterface\PythonNetworkStreamPhaseGameItem.cpp

; 912  : {

  0000f	56		 push	 esi
; File D:\Metin2 Server Files\mainline\SRC_2014\Metin2Client\UserInterface\GameType.h

; 187  : 		cell = WORD_MAX;

  00010	66 89 45 fb	 mov	 WORD PTR _kDragonSoul$[ebp+3], ax
; File D:\Metin2 Server Files\mainline\SRC_2014\Metin2Client\UserInterface\PythonNetworkStreamPhaseGameItem.cpp

; 912  : {

  00014	8b f1		 mov	 esi, ecx

; 915  : 	if (!Recv(sizeof(kDragonSoul), &kDragonSoul))

  00016	8d 45 f8	 lea	 eax, DWORD PTR _kDragonSoul$[ebp]
; File D:\Metin2 Server Files\mainline\SRC_2014\Metin2Client\UserInterface\GameType.h

; 186  : 		window_type =     INVENTORY;

  00019	c6 45 fa 01	 mov	 BYTE PTR _kDragonSoul$[ebp+2], 1
; File D:\Metin2 Server Files\mainline\SRC_2014\Metin2Client\UserInterface\PythonNetworkStreamPhaseGameItem.cpp

; 915  : 	if (!Recv(sizeof(kDragonSoul), &kDragonSoul))

  0001d	50		 push	 eax
  0001e	6a 05		 push	 5
  00020	e8 00 00 00 00	 call	 ?Recv@CNetworkStream@@QAE_NHPAX@Z ; CNetworkStream::Recv
  00025	84 c0		 test	 al, al
  00027	75 05		 jne	 SHORT $LN4@RecvDragon
  00029	5e		 pop	 esi

; 940  : }

  0002a	8b e5		 mov	 esp, ebp
  0002c	5d		 pop	 ebp
  0002d	c3		 ret	 0
$LN4@RecvDragon:

; 916  : 		return false;
; 917  : 	
; 918  : 	
; 919  : 	switch (kDragonSoul.bSubType)

  0002e	0f b6 4d f9	 movzx	 ecx, BYTE PTR _kDragonSoul$[ebp+1]
  00032	83 f9 0b	 cmp	 ecx, 11			; 0000000bH
  00035	0f 87 8e 00 00
	00		 ja	 $LN2@RecvDragon
  0003b	0f b6 81 00 00
	00 00		 movzx	 eax, BYTE PTR $LN13@RecvDragon[ecx]
  00042	ff 24 85 00 00
	00 00		 jmp	 DWORD PTR $LN14@RecvDragon[eax*4]
$LN5@RecvDragon:

; 920  : 	{
; 921  : 	case DS_SUB_HEADER_OPEN:
; 922  : 		PyCallClassMemberFunc(m_apoPhaseWnd[PHASE_WINDOW_GAME], "BINARY_DragonSoulRefineWindow_Open", Py_BuildValue("()"));

  00049	68 00 00 00 00	 push	 OFFSET ??_C@_02HCKGKOFO@?$CI?$CJ@
  0004e	ff 15 00 00 00
	00		 call	 DWORD PTR __imp__Py_BuildValue
  00054	50		 push	 eax
  00055	68 00 00 00 00	 push	 OFFSET ??_C@_0CD@JEDDBPLN@BINARY_DragonSoulRefineWindow_O@
  0005a	ff b6 90 01 00
	00		 push	 DWORD PTR [esi+400]
  00060	e8 00 00 00 00	 call	 ?PyCallClassMemberFunc@@YA_NPAU_object@@PBD0@Z ; PyCallClassMemberFunc
  00065	83 c4 10	 add	 esp, 16			; 00000010H

; 935  : 				Py_BuildValue("(ii)", kDragonSoul.Pos.window_type, kDragonSoul.Pos.cell));
; 936  : 		break;
; 937  : 	}
; 938  : 
; 939  : 	return true;

  00068	b0 01		 mov	 al, 1
  0006a	5e		 pop	 esi

; 940  : }

  0006b	8b e5		 mov	 esp, ebp
  0006d	5d		 pop	 ebp
  0006e	c3		 ret	 0
$LN6@RecvDragon:

; 923  : 		break;
; 924  : 	case DS_SUB_HEADER_REFINE_FAIL:
; 925  : 	case DS_SUB_HEADER_REFINE_FAIL_MAX_REFINE:
; 926  : 	case DS_SUB_HEADER_REFINE_FAIL_INVALID_MATERIAL:
; 927  : 	case DS_SUB_HEADER_REFINE_FAIL_NOT_ENOUGH_MONEY:
; 928  : 	case DS_SUB_HEADER_REFINE_FAIL_NOT_ENOUGH_MATERIAL:
; 929  : 	case DS_SUB_HEADER_REFINE_FAIL_TOO_MUCH_MATERIAL:
; 930  : 		PyCallClassMemberFunc(m_apoPhaseWnd[PHASE_WINDOW_GAME], "BINARY_DragonSoulRefineWindow_RefineFail", Py_BuildValue("(iii)", 

  0006f	0f b7 45 fb	 movzx	 eax, WORD PTR _kDragonSoul$[ebp+3]
  00073	50		 push	 eax
  00074	0f b6 45 fa	 movzx	 eax, BYTE PTR _kDragonSoul$[ebp+2]
  00078	50		 push	 eax
  00079	51		 push	 ecx
  0007a	68 00 00 00 00	 push	 OFFSET ??_C@_05HEIOBLPG@?$CIiii?$CJ@
  0007f	ff 15 00 00 00
	00		 call	 DWORD PTR __imp__Py_BuildValue
  00085	50		 push	 eax
  00086	68 00 00 00 00	 push	 OFFSET ??_C@_0CJ@JCBKPBPN@BINARY_DragonSoulRefineWindow_R@
  0008b	ff b6 90 01 00
	00		 push	 DWORD PTR [esi+400]
  00091	e8 00 00 00 00	 call	 ?PyCallClassMemberFunc@@YA_NPAU_object@@PBD0@Z ; PyCallClassMemberFunc
  00096	83 c4 1c	 add	 esp, 28			; 0000001cH

; 935  : 				Py_BuildValue("(ii)", kDragonSoul.Pos.window_type, kDragonSoul.Pos.cell));
; 936  : 		break;
; 937  : 	}
; 938  : 
; 939  : 	return true;

  00099	b0 01		 mov	 al, 1
  0009b	5e		 pop	 esi

; 940  : }

  0009c	8b e5		 mov	 esp, ebp
  0009e	5d		 pop	 ebp
  0009f	c3		 ret	 0
$LN7@RecvDragon:

; 931  : 			kDragonSoul.bSubType, kDragonSoul.Pos.window_type, kDragonSoul.Pos.cell));
; 932  : 		break;
; 933  : 	case DS_SUB_HEADER_REFINE_SUCCEED:
; 934  : 		PyCallClassMemberFunc(m_apoPhaseWnd[PHASE_WINDOW_GAME], "BINARY_DragonSoulRefineWindow_RefineSucceed", 

  000a0	0f b7 45 fb	 movzx	 eax, WORD PTR _kDragonSoul$[ebp+3]
  000a4	50		 push	 eax
  000a5	0f b6 45 fa	 movzx	 eax, BYTE PTR _kDragonSoul$[ebp+2]
  000a9	50		 push	 eax
  000aa	68 00 00 00 00	 push	 OFFSET ??_C@_04INACLLOK@?$CIii?$CJ@
  000af	ff 15 00 00 00
	00		 call	 DWORD PTR __imp__Py_BuildValue
  000b5	50		 push	 eax
  000b6	68 00 00 00 00	 push	 OFFSET ??_C@_0CM@IKKNFKOL@BINARY_DragonSoulRefineWindow_R@
  000bb	ff b6 90 01 00
	00		 push	 DWORD PTR [esi+400]
  000c1	e8 00 00 00 00	 call	 ?PyCallClassMemberFunc@@YA_NPAU_object@@PBD0@Z ; PyCallClassMemberFunc
  000c6	83 c4 18	 add	 esp, 24			; 00000018H
$LN2@RecvDragon:

; 935  : 				Py_BuildValue("(ii)", kDragonSoul.Pos.window_type, kDragonSoul.Pos.cell));
; 936  : 		break;
; 937  : 	}
; 938  : 
; 939  : 	return true;

  000c9	b0 01		 mov	 al, 1
  000cb	5e		 pop	 esi

; 940  : }

  000cc	8b e5		 mov	 esp, ebp
  000ce	5d		 pop	 ebp
  000cf	c3		 ret	 0
$LN14@RecvDragon:
  000d0	00 00 00 00	 DD	 $LN5@RecvDragon
  000d4	00 00 00 00	 DD	 $LN6@RecvDragon
  000d8	00 00 00 00	 DD	 $LN7@RecvDragon
  000dc	00 00 00 00	 DD	 $LN2@RecvDragon
$LN13@RecvDragon:
  000e0	00		 DB	 0
  000e1	03		 DB	 3
  000e2	03		 DB	 3
  000e3	03		 DB	 3
  000e4	03		 DB	 3
  000e5	01		 DB	 1
  000e6	01		 DB	 1
  000e7	01		 DB	 1
  000e8	01		 DB	 1
  000e9	01		 DB	 1
  000ea	01		 DB	 1
  000eb	02		 DB	 2
?RecvDragonSoulRefine@CPythonNetworkStream@@IAE_NXZ ENDP ; CPythonNetworkStream::RecvDragonSoulRefine
_TEXT	ENDS
; Function compile flags: /Ogtp
; File D:\Metin2 Server Files\mainline\SRC_2014\Metin2Client\UserInterface\PythonNetworkStreamPhaseGameItem.cpp
;	COMDAT ?RecvSpecificEffect@CPythonNetworkStream@@IAE_NXZ
_TEXT	SEGMENT
_kSpecificEffect$ = -140				; size = 133
__$ArrayPad$ = -4					; size = 4
?RecvSpecificEffect@CPythonNetworkStream@@IAE_NXZ PROC	; CPythonNetworkStream::RecvSpecificEffect, COMDAT
; _this$ = ecx

; 895  : {

  00000	55		 push	 ebp
  00001	8b ec		 mov	 ebp, esp
  00003	81 ec 8c 00 00
	00		 sub	 esp, 140		; 0000008cH
  00009	a1 00 00 00 00	 mov	 eax, DWORD PTR ___security_cookie
  0000e	33 c5		 xor	 eax, ebp
  00010	89 45 fc	 mov	 DWORD PTR __$ArrayPad$[ebp], eax

; 896  : 	TPacketGCSpecificEffect kSpecificEffect;
; 897  : 	if (!Recv(sizeof(kSpecificEffect), &kSpecificEffect))

  00013	8d 85 74 ff ff
	ff		 lea	 eax, DWORD PTR _kSpecificEffect$[ebp]
  00019	50		 push	 eax
  0001a	68 85 00 00 00	 push	 133			; 00000085H
  0001f	e8 00 00 00 00	 call	 ?Recv@CNetworkStream@@QAE_NHPAX@Z ; CNetworkStream::Recv
  00024	84 c0		 test	 al, al
  00026	75 0e		 jne	 SHORT $LN2@RecvSpecif

; 906  : 	}
; 907  : 
; 908  : 	return true;
; 909  : }

  00028	8b 4d fc	 mov	 ecx, DWORD PTR __$ArrayPad$[ebp]
  0002b	33 cd		 xor	 ecx, ebp
  0002d	e8 00 00 00 00	 call	 @__security_check_cookie@4
  00032	8b e5		 mov	 esp, ebp
  00034	5d		 pop	 ebp
  00035	c3		 ret	 0
$LN2@RecvSpecif:

; 898  : 		return false;
; 899  : 
; 900  : 	CInstanceBase * pInstance = CPythonCharacterManager::Instance().GetInstancePtr(kSpecificEffect.vid);

  00036	8b 0d 00 00 00
	00		 mov	 ecx, DWORD PTR ?ms_singleton@?$CSingleton@VCPythonCharacterManager@@@@0PAVCPythonCharacterManager@@A ; CSingleton<CPythonCharacterManager>::ms_singleton
  0003c	83 c1 04	 add	 ecx, 4
  0003f	56		 push	 esi
  00040	ff b5 75 ff ff
	ff		 push	 DWORD PTR _kSpecificEffect$[ebp+1]
  00046	8b 01		 mov	 eax, DWORD PTR [ecx]
  00048	ff 50 08	 call	 DWORD PTR [eax+8]
  0004b	8b f0		 mov	 esi, eax

; 901  : 	//EFFECT_TEMP
; 902  : 	if (pInstance)

  0004d	85 f6		 test	 esi, esi
  0004f	74 27		 je	 SHORT $LN3@RecvSpecif

; 903  : 	{
; 904  : 		CInstanceBase::RegisterEffect(CInstanceBase::EFFECT_TEMP, "", kSpecificEffect.effect_file, false);

  00051	6a 00		 push	 0
  00053	8d 85 79 ff ff
	ff		 lea	 eax, DWORD PTR _kSpecificEffect$[ebp+5]
  00059	50		 push	 eax
  0005a	68 00 00 00 00	 push	 OFFSET ??_C@_00CNPNBAHC@@
  0005f	68 11 01 00 00	 push	 273			; 00000111H
  00064	e8 00 00 00 00	 call	 ?RegisterEffect@CInstanceBase@@SA_NIPBD0_N@Z ; CInstanceBase::RegisterEffect
  00069	83 c4 10	 add	 esp, 16			; 00000010H

; 905  : 		pInstance->AttachSpecialEffect(CInstanceBase::EFFECT_TEMP);

  0006c	8b ce		 mov	 ecx, esi
  0006e	68 11 01 00 00	 push	 273			; 00000111H
  00073	e8 00 00 00 00	 call	 ?AttachSpecialEffect@CInstanceBase@@QAEXK@Z ; CInstanceBase::AttachSpecialEffect
$LN3@RecvSpecif:

; 906  : 	}
; 907  : 
; 908  : 	return true;
; 909  : }

  00078	8b 4d fc	 mov	 ecx, DWORD PTR __$ArrayPad$[ebp]
  0007b	b0 01		 mov	 al, 1
  0007d	33 cd		 xor	 ecx, ebp
  0007f	5e		 pop	 esi
  00080	e8 00 00 00 00	 call	 @__security_check_cookie@4
  00085	8b e5		 mov	 esp, ebp
  00087	5d		 pop	 ebp
  00088	c3		 ret	 0
?RecvSpecificEffect@CPythonNetworkStream@@IAE_NXZ ENDP	; CPythonNetworkStream::RecvSpecificEffect
_TEXT	ENDS
; Function compile flags: /Ogtp
; File D:\Metin2 Server Files\mainline\SRC_2014\Metin2Client\UserInterface\PythonNetworkStreamPhaseGameItem.cpp
;	COMDAT ?RecvSpecialEffect@CPythonNetworkStream@@IAE_NXZ
_TEXT	SEGMENT
_kSpecialEffect$ = -8					; size = 6
?RecvSpecialEffect@CPythonNetworkStream@@IAE_NXZ PROC	; CPythonNetworkStream::RecvSpecialEffect, COMDAT
; _this$ = ecx

; 769  : {

  00000	55		 push	 ebp
  00001	8b ec		 mov	 ebp, esp
  00003	83 ec 08	 sub	 esp, 8

; 770  : 	TPacketGCSpecialEffect kSpecialEffect;
; 771  : 	if (!Recv(sizeof(kSpecialEffect), &kSpecialEffect))

  00006	8d 45 f8	 lea	 eax, DWORD PTR _kSpecialEffect$[ebp]
  00009	50		 push	 eax
  0000a	6a 06		 push	 6
  0000c	e8 00 00 00 00	 call	 ?Recv@CNetworkStream@@QAE_NHPAX@Z ; CNetworkStream::Recv
  00011	84 c0		 test	 al, al
  00013	75 04		 jne	 SHORT $LN4@RecvSpecia

; 891  : }

  00015	8b e5		 mov	 esp, ebp
  00017	5d		 pop	 ebp
  00018	c3		 ret	 0
$LN4@RecvSpecia:

; 772  : 		return false;
; 773  : 
; 774  : 	DWORD effect = -1;
; 775  : 	bool bPlayPotionSound = false;	//     .!!
; 776  : 	bool bAttachEffect = true;		//      .!!
; 777  : 	switch (kSpecialEffect.type)

  00019	0f b6 45 f9	 movzx	 eax, BYTE PTR _kSpecialEffect$[ebp+1]
  0001d	53		 push	 ebx
  0001e	56		 push	 esi
  0001f	b3 01		 mov	 bl, 1
  00021	8d 48 ff	 lea	 ecx, DWORD PTR [eax-1]
  00024	83 f9 17	 cmp	 ecx, 23			; 00000017H
  00027	0f 87 1e 01 00
	00		 ja	 $LN29@RecvSpecia
  0002d	ff 24 8d 00 00
	00 00		 jmp	 DWORD PTR $LN39@RecvSpecia[ecx*4]
$LN5@RecvSpecia:

; 778  : 	{
; 779  : 		case SE_HPUP_RED:
; 780  : 			effect = CInstanceBase::EFFECT_HPUP_RED;

  00034	be 0d 00 00 00	 mov	 esi, 13			; 0000000dH

; 781  : 			bPlayPotionSound = true;
; 782  : 			break;

  00039	eb 13		 jmp	 SHORT $LN37@RecvSpecia
$LN6@RecvSpecia:

; 783  : 		case SE_SPUP_BLUE:
; 784  : 			effect = CInstanceBase::EFFECT_SPUP_BLUE;

  0003b	be 0e 00 00 00	 mov	 esi, 14			; 0000000eH

; 785  : 			bPlayPotionSound = true;
; 786  : 			break;

  00040	eb 0c		 jmp	 SHORT $LN37@RecvSpecia
$LN7@RecvSpecia:

; 787  : 		case SE_SPEEDUP_GREEN:
; 788  : 			effect = CInstanceBase::EFFECT_SPEEDUP_GREEN;

  00042	be 0f 00 00 00	 mov	 esi, 15			; 0000000fH

; 789  : 			bPlayPotionSound = true;
; 790  : 			break;

  00047	eb 05		 jmp	 SHORT $LN37@RecvSpecia
$LN8@RecvSpecia:

; 791  : 		case SE_DXUP_PURPLE:
; 792  : 			effect = CInstanceBase::EFFECT_DXUP_PURPLE;

  00049	be 10 00 00 00	 mov	 esi, 16			; 00000010H
$LN37@RecvSpecia:

; 865  : 			break;
; 866  : 	}
; 867  : 
; 868  : 	if (bPlayPotionSound)
; 869  : 	{		
; 870  : 		IAbstractPlayer& rkPlayer=IAbstractPlayer::GetSingleton();

  0004e	8b 0d 00 00 00
	00		 mov	 ecx, DWORD PTR ?ms_singleton@?$TAbstractSingleton@VIAbstractPlayer@@@@0PAVIAbstractPlayer@@A ; TAbstractSingleton<IAbstractPlayer>::ms_singleton

; 871  : 		if(rkPlayer.IsMainCharacterIndex(kSpecialEffect.vid))

  00054	ff 75 fa	 push	 DWORD PTR _kSpecialEffect$[ebp+2]
  00057	8b 01		 mov	 eax, DWORD PTR [ecx]
  00059	8b 40 0c	 mov	 eax, DWORD PTR [eax+12]
  0005c	ff d0		 call	 eax
  0005e	84 c0		 test	 al, al
  00060	0f 84 af 00 00
	00		 je	 $LN38@RecvSpecia

; 872  : 		{
; 873  : 			CPythonItem& rkItem=CPythonItem::Instance();
; 874  : 			rkItem.PlayUsePotionSound();

  00066	8b 0d 00 00 00
	00		 mov	 ecx, DWORD PTR ?ms_singleton@?$CSingleton@VCPythonItem@@@@0PAVCPythonItem@@A ; CSingleton<CPythonItem>::ms_singleton
  0006c	e8 00 00 00 00	 call	 ?PlayUsePotionSound@CPythonItem@@QAEXXZ ; CPythonItem::PlayUsePotionSound
  00071	e9 9f 00 00 00	 jmp	 $LN38@RecvSpecia
$LN9@RecvSpecia:

; 793  : 			bPlayPotionSound = true;
; 794  : 			break;
; 795  : 		case SE_CRITICAL:
; 796  : 			effect = CInstanceBase::EFFECT_CRITICAL;

  00076	be 11 00 00 00	 mov	 esi, 17			; 00000011H

; 797  : 			break;

  0007b	e9 95 00 00 00	 jmp	 $LN38@RecvSpecia
$LN10@RecvSpecia:

; 798  : 		case SE_PENETRATE:
; 799  : 			effect = CInstanceBase::EFFECT_PENETRATE;

  00080	be 12 00 00 00	 mov	 esi, 18			; 00000012H

; 800  : 			break;

  00085	e9 8b 00 00 00	 jmp	 $LN38@RecvSpecia
$LN11@RecvSpecia:

; 801  : 		case SE_BLOCK:
; 802  : 			effect = CInstanceBase::EFFECT_BLOCK;

  0008a	be 13 00 00 00	 mov	 esi, 19			; 00000013H

; 803  : 			break;

  0008f	e9 81 00 00 00	 jmp	 $LN38@RecvSpecia
$LN12@RecvSpecia:

; 804  : 		case SE_DODGE:
; 805  : 			effect = CInstanceBase::EFFECT_DODGE;

  00094	be 14 00 00 00	 mov	 esi, 20			; 00000014H

; 806  : 			break;

  00099	eb 7a		 jmp	 SHORT $LN38@RecvSpecia
$LN13@RecvSpecia:

; 807  : 		case SE_CHINA_FIREWORK:
; 808  : 			effect = CInstanceBase::EFFECT_FIRECRACKER;

  0009b	be 15 00 00 00	 mov	 esi, 21			; 00000015H

; 809  : 			bAttachEffect = false;

  000a0	32 db		 xor	 bl, bl

; 810  : 			break;

  000a2	eb 71		 jmp	 SHORT $LN38@RecvSpecia
$LN14@RecvSpecia:

; 811  : 		case SE_SPIN_TOP:
; 812  : 			effect = CInstanceBase::EFFECT_SPIN_TOP;

  000a4	be 16 00 00 00	 mov	 esi, 22			; 00000016H

; 813  : 			bAttachEffect = false;

  000a9	32 db		 xor	 bl, bl

; 814  : 			break;

  000ab	eb 68		 jmp	 SHORT $LN38@RecvSpecia
$LN15@RecvSpecia:

; 815  : 		case SE_SUCCESS :
; 816  : 			effect = CInstanceBase::EFFECT_SUCCESS ;

  000ad	be 03 01 00 00	 mov	 esi, 259		; 00000103H

; 817  : 			bAttachEffect = false ;

  000b2	32 db		 xor	 bl, bl

; 818  : 			break ;

  000b4	eb 5f		 jmp	 SHORT $LN38@RecvSpecia
$LN16@RecvSpecia:

; 819  : 		case SE_FAIL :
; 820  : 			effect = CInstanceBase::EFFECT_FAIL ;

  000b6	be 04 01 00 00	 mov	 esi, 260		; 00000104H

; 821  : 			break ;

  000bb	eb 58		 jmp	 SHORT $LN38@RecvSpecia
$LN17@RecvSpecia:

; 822  : 		case SE_FR_SUCCESS:
; 823  : 			effect = CInstanceBase::EFFECT_FR_SUCCESS;

  000bd	be 05 01 00 00	 mov	 esi, 261		; 00000105H

; 824  : 			bAttachEffect = false ;

  000c2	32 db		 xor	 bl, bl

; 825  : 			break;

  000c4	eb 4f		 jmp	 SHORT $LN38@RecvSpecia
$LN18@RecvSpecia:

; 826  : 		case SE_LEVELUP_ON_14_FOR_GERMANY:	// 14 (  )
; 827  : 			effect = CInstanceBase::EFFECT_LEVELUP_ON_14_FOR_GERMANY;

  000c6	be 06 01 00 00	 mov	 esi, 262		; 00000106H

; 828  : 			bAttachEffect = false ;

  000cb	32 db		 xor	 bl, bl

; 829  : 			break;

  000cd	eb 46		 jmp	 SHORT $LN38@RecvSpecia
$LN19@RecvSpecia:

; 830  : 		case SE_LEVELUP_UNDER_15_FOR_GERMANY: // 15 (  )
; 831  : 			effect = CInstanceBase::EFFECT_LEVELUP_UNDER_15_FOR_GERMANY;

  000cf	be 07 01 00 00	 mov	 esi, 263		; 00000107H

; 832  : 			bAttachEffect = false ;

  000d4	32 db		 xor	 bl, bl

; 833  : 			break;

  000d6	eb 3d		 jmp	 SHORT $LN38@RecvSpecia
$LN20@RecvSpecia:

; 834  : 		case SE_PERCENT_DAMAGE1:
; 835  : 			effect = CInstanceBase::EFFECT_PERCENT_DAMAGE1;

  000d8	be 08 01 00 00	 mov	 esi, 264		; 00000108H

; 836  : 			break;

  000dd	eb 36		 jmp	 SHORT $LN38@RecvSpecia
$LN21@RecvSpecia:

; 837  : 		case SE_PERCENT_DAMAGE2:
; 838  : 			effect = CInstanceBase::EFFECT_PERCENT_DAMAGE2;

  000df	be 09 01 00 00	 mov	 esi, 265		; 00000109H

; 839  : 			break;

  000e4	eb 2f		 jmp	 SHORT $LN38@RecvSpecia
$LN22@RecvSpecia:

; 840  : 		case SE_PERCENT_DAMAGE3:
; 841  : 			effect = CInstanceBase::EFFECT_PERCENT_DAMAGE3;

  000e6	be 0a 01 00 00	 mov	 esi, 266		; 0000010aH

; 842  : 			break;

  000eb	eb 28		 jmp	 SHORT $LN38@RecvSpecia
$LN23@RecvSpecia:

; 843  : 		case SE_AUTO_HPUP:
; 844  : 			effect = CInstanceBase::EFFECT_AUTO_HPUP;

  000ed	be 0b 01 00 00	 mov	 esi, 267		; 0000010bH

; 845  : 			break;

  000f2	eb 21		 jmp	 SHORT $LN38@RecvSpecia
$LN24@RecvSpecia:

; 846  : 		case SE_AUTO_SPUP:
; 847  : 			effect = CInstanceBase::EFFECT_AUTO_SPUP;

  000f4	be 0c 01 00 00	 mov	 esi, 268		; 0000010cH

; 848  : 			break;

  000f9	eb 1a		 jmp	 SHORT $LN38@RecvSpecia
$LN25@RecvSpecia:

; 849  : 		case SE_EQUIP_RAMADAN_RING:
; 850  : 			effect = CInstanceBase::EFFECT_RAMADAN_RING_EQUIP;

  000fb	be 0d 01 00 00	 mov	 esi, 269		; 0000010dH

; 851  : 			break;

  00100	eb 13		 jmp	 SHORT $LN38@RecvSpecia
$LN26@RecvSpecia:

; 852  : 		case SE_EQUIP_HALLOWEEN_CANDY:
; 853  : 			effect = CInstanceBase::EFFECT_HALLOWEEN_CANDY_EQUIP;

  00102	be 0e 01 00 00	 mov	 esi, 270		; 0000010eH

; 854  : 			break;

  00107	eb 0c		 jmp	 SHORT $LN38@RecvSpecia
$LN27@RecvSpecia:

; 855  : 		case SE_EQUIP_HAPPINESS_RING:
; 856  :  			effect = CInstanceBase::EFFECT_HAPPINESS_RING_EQUIP;

  00109	be 0f 01 00 00	 mov	 esi, 271		; 0000010fH

; 857  : 			break;

  0010e	eb 05		 jmp	 SHORT $LN38@RecvSpecia
$LN28@RecvSpecia:

; 858  : 		case SE_EQUIP_LOVE_PENDANT:
; 859  : 			effect = CInstanceBase::EFFECT_LOVE_PENDANT_EQUIP;

  00110	be 10 01 00 00	 mov	 esi, 272		; 00000110H
$LN38@RecvSpecia:

; 875  : 		}
; 876  : 	}
; 877  : 
; 878  : 	if (-1 != effect)
; 879  : 	{
; 880  : 		CInstanceBase * pInstance = CPythonCharacterManager::Instance().GetInstancePtr(kSpecialEffect.vid);

  00115	8b 0d 00 00 00
	00		 mov	 ecx, DWORD PTR ?ms_singleton@?$CSingleton@VCPythonCharacterManager@@@@0PAVCPythonCharacterManager@@A ; CSingleton<CPythonCharacterManager>::ms_singleton
  0011b	ff 75 fa	 push	 DWORD PTR _kSpecialEffect$[ebp+2]
  0011e	83 c1 04	 add	 ecx, 4
  00121	8b 01		 mov	 eax, DWORD PTR [ecx]
  00123	ff 50 08	 call	 DWORD PTR [eax+8]

; 881  : 		if (pInstance)

  00126	85 c0		 test	 eax, eax
  00128	74 2f		 je	 SHORT $LN35@RecvSpecia

; 882  : 		{
; 883  : 			if(bAttachEffect)

  0012a	8b c8		 mov	 ecx, eax
  0012c	56		 push	 esi
  0012d	84 db		 test	 bl, bl
  0012f	74 0d		 je	 SHORT $LN34@RecvSpecia

; 884  : 				pInstance->AttachSpecialEffect(effect);

  00131	e8 00 00 00 00	 call	 ?AttachSpecialEffect@CInstanceBase@@QAEXK@Z ; CInstanceBase::AttachSpecialEffect

; 887  : 		}
; 888  : 	}
; 889  : 
; 890  : 	return true;

  00136	5e		 pop	 esi
  00137	b0 01		 mov	 al, 1
  00139	5b		 pop	 ebx

; 891  : }

  0013a	8b e5		 mov	 esp, ebp
  0013c	5d		 pop	 ebp
  0013d	c3		 ret	 0
$LN34@RecvSpecia:

; 885  : 			else
; 886  : 				pInstance->CreateSpecialEffect(effect);

  0013e	e8 00 00 00 00	 call	 ?CreateSpecialEffect@CInstanceBase@@QAEXK@Z ; CInstanceBase::CreateSpecialEffect

; 887  : 		}
; 888  : 	}
; 889  : 
; 890  : 	return true;

  00143	5e		 pop	 esi
  00144	b0 01		 mov	 al, 1
  00146	5b		 pop	 ebx

; 891  : }

  00147	8b e5		 mov	 esp, ebp
  00149	5d		 pop	 ebp
  0014a	c3		 ret	 0
$LN29@RecvSpecia:

; 860  : 			break;
; 861  : 
; 862  : 		
; 863  : 		default:
; 864  : 			TraceError("%d     .TPacketGCSpecialEffect",kSpecialEffect.type);

  0014b	50		 push	 eax
  0014c	68 00 00 00 00	 push	 OFFSET ??_C@_0DL@PLJBBCEI@?$CFd?5?$LE?B?5?$LO?x?$LE?B?5?$LN?$LK?F?d?$LM?H?5?$MA?L?F?e?F?$KO?5?$LJ?x?H?$KD?$MA?T@
  00151	e8 00 00 00 00	 call	 ?TraceError@@YAXPBDZZ	; TraceError
  00156	83 c4 08	 add	 esp, 8
$LN35@RecvSpecia:

; 887  : 		}
; 888  : 	}
; 889  : 
; 890  : 	return true;

  00159	5e		 pop	 esi
  0015a	b0 01		 mov	 al, 1
  0015c	5b		 pop	 ebx

; 891  : }

  0015d	8b e5		 mov	 esp, ebp
  0015f	5d		 pop	 ebp
  00160	c3		 ret	 0
  00161	0f 1f 00	 npad	 3
$LN39@RecvSpecia:
  00164	00 00 00 00	 DD	 $LN5@RecvSpecia
  00168	00 00 00 00	 DD	 $LN6@RecvSpecia
  0016c	00 00 00 00	 DD	 $LN7@RecvSpecia
  00170	00 00 00 00	 DD	 $LN8@RecvSpecia
  00174	00 00 00 00	 DD	 $LN9@RecvSpecia
  00178	00 00 00 00	 DD	 $LN10@RecvSpecia
  0017c	00 00 00 00	 DD	 $LN11@RecvSpecia
  00180	00 00 00 00	 DD	 $LN12@RecvSpecia
  00184	00 00 00 00	 DD	 $LN13@RecvSpecia
  00188	00 00 00 00	 DD	 $LN14@RecvSpecia
  0018c	00 00 00 00	 DD	 $LN15@RecvSpecia
  00190	00 00 00 00	 DD	 $LN16@RecvSpecia
  00194	00 00 00 00	 DD	 $LN17@RecvSpecia
  00198	00 00 00 00	 DD	 $LN18@RecvSpecia
  0019c	00 00 00 00	 DD	 $LN19@RecvSpecia
  001a0	00 00 00 00	 DD	 $LN20@RecvSpecia
  001a4	00 00 00 00	 DD	 $LN21@RecvSpecia
  001a8	00 00 00 00	 DD	 $LN22@RecvSpecia
  001ac	00 00 00 00	 DD	 $LN23@RecvSpecia
  001b0	00 00 00 00	 DD	 $LN24@RecvSpecia
  001b4	00 00 00 00	 DD	 $LN25@RecvSpecia
  001b8	00 00 00 00	 DD	 $LN26@RecvSpecia
  001bc	00 00 00 00	 DD	 $LN27@RecvSpecia
  001c0	00 00 00 00	 DD	 $LN28@RecvSpecia
?RecvSpecialEffect@CPythonNetworkStream@@IAE_NXZ ENDP	; CPythonNetworkStream::RecvSpecialEffect
_TEXT	ENDS
; Function compile flags: /Ogtp
; File D:\Metin2 Server Files\mainline\SRC_2014\Metin2Client\UserInterface\PythonNetworkStreamPhaseGameItem.cpp
;	COMDAT ?RecvSafeBoxMoneyChangePacket@CPythonNetworkStream@@IAE_NXZ
_TEXT	SEGMENT
_kMoneyChange$ = -8					; size = 5
?RecvSafeBoxMoneyChangePacket@CPythonNetworkStream@@IAE_NXZ PROC ; CPythonNetworkStream::RecvSafeBoxMoneyChangePacket, COMDAT
; _this$ = ecx

; 133  : {

  00000	55		 push	 ebp
  00001	8b ec		 mov	 ebp, esp
  00003	83 ec 08	 sub	 esp, 8

; 134  : 	TPacketGCSafeboxMoneyChange kMoneyChange;
; 135  : 	if (!Recv(sizeof(kMoneyChange), &kMoneyChange))

  00006	8d 45 f8	 lea	 eax, DWORD PTR _kMoneyChange$[ebp]
  00009	56		 push	 esi
  0000a	50		 push	 eax
  0000b	6a 05		 push	 5
  0000d	8b f1		 mov	 esi, ecx
  0000f	e8 00 00 00 00	 call	 ?Recv@CNetworkStream@@QAE_NHPAX@Z ; CNetworkStream::Recv
  00014	84 c0		 test	 al, al
  00016	75 05		 jne	 SHORT $LN2@RecvSafeBo
  00018	5e		 pop	 esi

; 142  : }

  00019	8b e5		 mov	 esp, ebp
  0001b	5d		 pop	 ebp
  0001c	c3		 ret	 0
$LN2@RecvSafeBo:

; 136  : 		return false;
; 137  : 
; 138  : 	CPythonSafeBox::Instance().SetMoney(kMoneyChange.dwMoney);

  0001d	ff 75 f9	 push	 DWORD PTR _kMoneyChange$[ebp+1]
  00020	8b 0d 00 00 00
	00		 mov	 ecx, DWORD PTR ?ms_singleton@?$CSingleton@VCPythonSafeBox@@@@0PAVCPythonSafeBox@@A ; CSingleton<CPythonSafeBox>::ms_singleton
  00026	e8 00 00 00 00	 call	 ?SetMoney@CPythonSafeBox@@QAEXK@Z ; CPythonSafeBox::SetMoney

; 139  : 	PyCallClassMemberFunc(m_apoPhaseWnd[PHASE_WINDOW_GAME], "RefreshSafeboxMoney", Py_BuildValue("()"));

  0002b	68 00 00 00 00	 push	 OFFSET ??_C@_02HCKGKOFO@?$CI?$CJ@
  00030	ff 15 00 00 00
	00		 call	 DWORD PTR __imp__Py_BuildValue
  00036	50		 push	 eax
  00037	68 00 00 00 00	 push	 OFFSET ??_C@_0BE@OHCDIKPF@RefreshSafeboxMoney@
  0003c	ff b6 90 01 00
	00		 push	 DWORD PTR [esi+400]
  00042	e8 00 00 00 00	 call	 ?PyCallClassMemberFunc@@YA_NPAU_object@@PBD0@Z ; PyCallClassMemberFunc
  00047	83 c4 10	 add	 esp, 16			; 00000010H

; 140  : 
; 141  : 	return true;

  0004a	b0 01		 mov	 al, 1
  0004c	5e		 pop	 esi

; 142  : }

  0004d	8b e5		 mov	 esp, ebp
  0004f	5d		 pop	 ebp
  00050	c3		 ret	 0
?RecvSafeBoxMoneyChangePacket@CPythonNetworkStream@@IAE_NXZ ENDP ; CPythonNetworkStream::RecvSafeBoxMoneyChangePacket
_TEXT	ENDS
; Function compile flags: /Ogtp
; File D:\Metin2 Server Files\mainline\SRC_2014\Metin2Client\UserInterface\PythonNetworkStreamPhaseGameItem.cpp
;	COMDAT ?RecvSafeBoxSizePacket@CPythonNetworkStream@@IAE_NXZ
_TEXT	SEGMENT
_kSafeBoxSize$ = -4					; size = 2
?RecvSafeBoxSizePacket@CPythonNetworkStream@@IAE_NXZ PROC ; CPythonNetworkStream::RecvSafeBoxSizePacket, COMDAT
; _this$ = ecx

; 121  : {

  00000	55		 push	 ebp
  00001	8b ec		 mov	 ebp, esp
  00003	51		 push	 ecx
  00004	56		 push	 esi

; 122  : 	TPacketGCSafeboxSize kSafeBoxSize;
; 123  : 	if (!Recv(sizeof(kSafeBoxSize), &kSafeBoxSize))

  00005	8d 45 fc	 lea	 eax, DWORD PTR _kSafeBoxSize$[ebp]
  00008	8b f1		 mov	 esi, ecx
  0000a	50		 push	 eax
  0000b	6a 02		 push	 2
  0000d	e8 00 00 00 00	 call	 ?Recv@CNetworkStream@@QAE_NHPAX@Z ; CNetworkStream::Recv
  00012	84 c0		 test	 al, al
  00014	75 05		 jne	 SHORT $LN2@RecvSafeBo
  00016	5e		 pop	 esi

; 130  : }

  00017	8b e5		 mov	 esp, ebp
  00019	5d		 pop	 ebp
  0001a	c3		 ret	 0
$LN2@RecvSafeBo:

; 124  : 		return false;
; 125  : 
; 126  : 	CPythonSafeBox::Instance().OpenSafeBox(kSafeBoxSize.bSize);

  0001b	0f b6 45 fd	 movzx	 eax, BYTE PTR _kSafeBoxSize$[ebp+1]
  0001f	8b 0d 00 00 00
	00		 mov	 ecx, DWORD PTR ?ms_singleton@?$CSingleton@VCPythonSafeBox@@@@0PAVCPythonSafeBox@@A ; CSingleton<CPythonSafeBox>::ms_singleton
  00025	50		 push	 eax
  00026	e8 00 00 00 00	 call	 ?OpenSafeBox@CPythonSafeBox@@QAEXH@Z ; CPythonSafeBox::OpenSafeBox

; 127  : 	PyCallClassMemberFunc(m_apoPhaseWnd[PHASE_WINDOW_GAME], "OpenSafeboxWindow", Py_BuildValue("(i)", kSafeBoxSize.bSize));

  0002b	0f b6 45 fd	 movzx	 eax, BYTE PTR _kSafeBoxSize$[ebp+1]
  0002f	50		 push	 eax
  00030	68 00 00 00 00	 push	 OFFSET ??_C@_03LIHNMIHG@?$CIi?$CJ@
  00035	ff 15 00 00 00
	00		 call	 DWORD PTR __imp__Py_BuildValue
  0003b	50		 push	 eax
  0003c	68 00 00 00 00	 push	 OFFSET ??_C@_0BC@GDFDGKCD@OpenSafeboxWindow@
  00041	ff b6 90 01 00
	00		 push	 DWORD PTR [esi+400]
  00047	e8 00 00 00 00	 call	 ?PyCallClassMemberFunc@@YA_NPAU_object@@PBD0@Z ; PyCallClassMemberFunc
  0004c	83 c4 14	 add	 esp, 20			; 00000014H

; 128  : 
; 129  : 	return true;

  0004f	b0 01		 mov	 al, 1
  00051	5e		 pop	 esi

; 130  : }

  00052	8b e5		 mov	 esp, ebp
  00054	5d		 pop	 ebp
  00055	c3		 ret	 0
?RecvSafeBoxSizePacket@CPythonNetworkStream@@IAE_NXZ ENDP ; CPythonNetworkStream::RecvSafeBoxSizePacket
_TEXT	ENDS
; Function compile flags: /Ogtp
; File D:\Metin2 Server Files\mainline\SRC_2014\Metin2Client\UserInterface\PythonNetworkStreamPhaseGameItem.cpp
;	COMDAT ?RecvSafeBoxWrongPasswordPacket@CPythonNetworkStream@@IAE_NXZ
_TEXT	SEGMENT
_kSafeboxWrongPassword$ = -1				; size = 1
?RecvSafeBoxWrongPasswordPacket@CPythonNetworkStream@@IAE_NXZ PROC ; CPythonNetworkStream::RecvSafeBoxWrongPasswordPacket, COMDAT
; _this$ = ecx

; 109  : {

  00000	55		 push	 ebp
  00001	8b ec		 mov	 ebp, esp
  00003	51		 push	 ecx
  00004	56		 push	 esi

; 110  : 	TPacketGCSafeboxWrongPassword kSafeboxWrongPassword;
; 111  : 
; 112  : 	if (!Recv(sizeof(kSafeboxWrongPassword), &kSafeboxWrongPassword))

  00005	8d 45 ff	 lea	 eax, DWORD PTR _kSafeboxWrongPassword$[ebp]
  00008	8b f1		 mov	 esi, ecx
  0000a	50		 push	 eax
  0000b	6a 01		 push	 1
  0000d	e8 00 00 00 00	 call	 ?Recv@CNetworkStream@@QAE_NHPAX@Z ; CNetworkStream::Recv
  00012	84 c0		 test	 al, al
  00014	75 05		 jne	 SHORT $LN2@RecvSafeBo
  00016	5e		 pop	 esi

; 118  : }

  00017	8b e5		 mov	 esp, ebp
  00019	5d		 pop	 ebp
  0001a	c3		 ret	 0
$LN2@RecvSafeBo:

; 113  : 		return false;
; 114  : 
; 115  : 	PyCallClassMemberFunc(m_apoPhaseWnd[PHASE_WINDOW_GAME], "OnSafeBoxError", Py_BuildValue("()"));

  0001b	68 00 00 00 00	 push	 OFFSET ??_C@_02HCKGKOFO@?$CI?$CJ@
  00020	ff 15 00 00 00
	00		 call	 DWORD PTR __imp__Py_BuildValue
  00026	50		 push	 eax
  00027	68 00 00 00 00	 push	 OFFSET ??_C@_0P@BMBKKGBC@OnSafeBoxError@
  0002c	ff b6 90 01 00
	00		 push	 DWORD PTR [esi+400]
  00032	e8 00 00 00 00	 call	 ?PyCallClassMemberFunc@@YA_NPAU_object@@PBD0@Z ; PyCallClassMemberFunc
  00037	83 c4 10	 add	 esp, 16			; 00000010H

; 116  : 
; 117  : 	return true;

  0003a	b0 01		 mov	 al, 1
  0003c	5e		 pop	 esi

; 118  : }

  0003d	8b e5		 mov	 esp, ebp
  0003f	5d		 pop	 ebp
  00040	c3		 ret	 0
?RecvSafeBoxWrongPasswordPacket@CPythonNetworkStream@@IAE_NXZ ENDP ; CPythonNetworkStream::RecvSafeBoxWrongPasswordPacket
_TEXT	ENDS
; Function compile flags: /Ogtp
; File D:\Metin2 Server Files\mainline\SRC_2014\Metin2Client\UserInterface\PythonNetworkStreamPhaseGameItem.cpp
;	COMDAT ?RecvSafeBoxDelPacket@CPythonNetworkStream@@IAE_NXZ
_TEXT	SEGMENT
_kItemDel$ = -4						; size = 2
?RecvSafeBoxDelPacket@CPythonNetworkStream@@IAE_NXZ PROC ; CPythonNetworkStream::RecvSafeBoxDelPacket, COMDAT
; _this$ = ecx

; 96   : {

  00000	55		 push	 ebp
  00001	8b ec		 mov	 ebp, esp
  00003	51		 push	 ecx
  00004	56		 push	 esi

; 97   : 	TPacketGCItemDel kItemDel;
; 98   : 	if (!Recv(sizeof(kItemDel), &kItemDel))

  00005	8d 45 fc	 lea	 eax, DWORD PTR _kItemDel$[ebp]
  00008	8b f1		 mov	 esi, ecx
  0000a	50		 push	 eax
  0000b	6a 02		 push	 2
  0000d	e8 00 00 00 00	 call	 ?Recv@CNetworkStream@@QAE_NHPAX@Z ; CNetworkStream::Recv
  00012	84 c0		 test	 al, al
  00014	75 05		 jne	 SHORT $LN2@RecvSafeBo
  00016	5e		 pop	 esi

; 106  : }

  00017	8b e5		 mov	 esp, ebp
  00019	5d		 pop	 ebp
  0001a	c3		 ret	 0
$LN2@RecvSafeBo:

; 99   : 		return false;
; 100  : 
; 101  : 	CPythonSafeBox::Instance().DelItemData(kItemDel.pos);

  0001b	0f b6 45 fd	 movzx	 eax, BYTE PTR _kItemDel$[ebp+1]
  0001f	8b 0d 00 00 00
	00		 mov	 ecx, DWORD PTR ?ms_singleton@?$CSingleton@VCPythonSafeBox@@@@0PAVCPythonSafeBox@@A ; CSingleton<CPythonSafeBox>::ms_singleton
  00025	50		 push	 eax
  00026	e8 00 00 00 00	 call	 ?DelItemData@CPythonSafeBox@@QAEXK@Z ; CPythonSafeBox::DelItemData

; 102  : 
; 103  : 	__RefreshSafeboxWindow();

  0002b	8b ce		 mov	 ecx, esi
  0002d	e8 00 00 00 00	 call	 ?__RefreshSafeboxWindow@CPythonNetworkStream@@IAEXXZ ; CPythonNetworkStream::__RefreshSafeboxWindow

; 104  : 
; 105  : 	return true;

  00032	b0 01		 mov	 al, 1
  00034	5e		 pop	 esi

; 106  : }

  00035	8b e5		 mov	 esp, ebp
  00037	5d		 pop	 ebp
  00038	c3		 ret	 0
?RecvSafeBoxDelPacket@CPythonNetworkStream@@IAE_NXZ ENDP ; CPythonNetworkStream::RecvSafeBoxDelPacket
_TEXT	ENDS
; Function compile flags: /Ogtp
; File D:\Metin2 Server Files\mainline\SRC_2014\Metin2Client\UserInterface\PythonNetworkStreamPhaseGameItem.cpp
; File D:\Metin2 Server Files\mainline\SRC_2014\Metin2Client\UserInterface\GameType.h
; File D:\Metin2 Server Files\mainline\SRC_2014\Metin2Client\UserInterface\PythonNetworkStreamPhaseGameItem.cpp
; File D:\Metin2 Server Files\mainline\SRC_2014\Metin2Client\UserInterface\GameType.h
; File D:\Metin2 Server Files\mainline\SRC_2014\Metin2Client\UserInterface\PythonNetworkStreamPhaseGameItem.cpp
;	COMDAT ?RecvSafeBoxSetPacket@CPythonNetworkStream@@IAE_NXZ
_TEXT	SEGMENT
_kItemData$ = -104					; size = 46
_kItemSet$ = -56					; size = 51
__$ArrayPad$ = -4					; size = 4
?RecvSafeBoxSetPacket@CPythonNetworkStream@@IAE_NXZ PROC ; CPythonNetworkStream::RecvSafeBoxSetPacket, COMDAT
; _this$ = ecx

; 73   : {

  00000	55		 push	 ebp
  00001	8b ec		 mov	 ebp, esp
  00003	83 ec 68	 sub	 esp, 104		; 00000068H
  00006	a1 00 00 00 00	 mov	 eax, DWORD PTR ___security_cookie
  0000b	33 c5		 xor	 eax, ebp
  0000d	89 45 fc	 mov	 DWORD PTR __$ArrayPad$[ebp], eax
; File D:\Metin2 Server Files\mainline\SRC_2014\Metin2Client\UserInterface\GameType.h

; 187  : 		cell = WORD_MAX;

  00010	b8 ff ff 00 00	 mov	 eax, 65535		; 0000ffffH
  00015	c6 45 c9 01	 mov	 BYTE PTR _kItemSet$[ebp+1], 1
; File D:\Metin2 Server Files\mainline\SRC_2014\Metin2Client\UserInterface\PythonNetworkStreamPhaseGameItem.cpp

; 73   : {

  00019	56		 push	 esi
; File D:\Metin2 Server Files\mainline\SRC_2014\Metin2Client\UserInterface\GameType.h

; 187  : 		cell = WORD_MAX;

  0001a	66 89 45 ca	 mov	 WORD PTR _kItemSet$[ebp+2], ax
; File D:\Metin2 Server Files\mainline\SRC_2014\Metin2Client\UserInterface\PythonNetworkStreamPhaseGameItem.cpp

; 73   : {

  0001e	8b f1		 mov	 esi, ecx

; 74   : 	TPacketGCItemSet2 kItemSet;
; 75   : 	if (!Recv(sizeof(kItemSet), &kItemSet))

  00020	8d 45 c8	 lea	 eax, DWORD PTR _kItemSet$[ebp]
  00023	50		 push	 eax
  00024	6a 33		 push	 51			; 00000033H
  00026	e8 00 00 00 00	 call	 ?Recv@CNetworkStream@@QAE_NHPAX@Z ; CNetworkStream::Recv
  0002b	84 c0		 test	 al, al
  0002d	75 0f		 jne	 SHORT $LN8@RecvSafeBo
  0002f	5e		 pop	 esi

; 91   : 
; 92   : 	return true;
; 93   : }

  00030	8b 4d fc	 mov	 ecx, DWORD PTR __$ArrayPad$[ebp]
  00033	33 cd		 xor	 ecx, ebp
  00035	e8 00 00 00 00	 call	 @__security_check_cookie@4
  0003a	8b e5		 mov	 esp, ebp
  0003c	5d		 pop	 ebp
  0003d	c3		 ret	 0
$LN8@RecvSafeBo:

; 76   : 		return false;
; 77   : 
; 78   : 	TItemData kItemData;
; 79   : 	kItemData.vnum	= kItemSet.vnum;

  0003e	8b 45 cc	 mov	 eax, DWORD PTR _kItemSet$[ebp+4]
  00041	0f 10 45 e6	 movups	 xmm0, XMMWORD PTR _kItemSet$[ebp+30]
  00045	89 45 98	 mov	 DWORD PTR _kItemData$[ebp], eax

; 80   : 	kItemData.count = kItemSet.count;

  00048	8a 45 d0	 mov	 al, BYTE PTR _kItemSet$[ebp+8]

; 81   : 	kItemData.flags = kItemSet.flags;
; 82   : 	kItemData.anti_flags = kItemSet.anti_flags;
; 83   : 	for (int isocket=0; isocket<ITEM_SOCKET_SLOT_MAX_NUM; ++isocket)
; 84   : 		kItemData.alSockets[isocket] = kItemSet.alSockets[isocket];
; 85   : 	for (int iattr=0; iattr<ITEM_ATTRIBUTE_SLOT_MAX_NUM; ++iattr)
; 86   : 		kItemData.aAttr[iattr] = kItemSet.aAttr[iattr];
; 87   : 
; 88   : 	CPythonSafeBox::Instance().SetItemData(kItemSet.Cell.cell, kItemData);

  0004b	8b 0d 00 00 00
	00		 mov	 ecx, DWORD PTR ?ms_singleton@?$CSingleton@VCPythonSafeBox@@@@0PAVCPythonSafeBox@@A ; CSingleton<CPythonSafeBox>::ms_singleton
  00051	88 45 9c	 mov	 BYTE PTR _kItemData$[ebp+4], al
  00054	8b 45 d1	 mov	 eax, DWORD PTR _kItemSet$[ebp+9]
  00057	89 45 9d	 mov	 DWORD PTR _kItemData$[ebp+5], eax
  0005a	8b 45 d5	 mov	 eax, DWORD PTR _kItemSet$[ebp+13]
  0005d	89 45 a1	 mov	 DWORD PTR _kItemData$[ebp+9], eax
  00060	8b 45 da	 mov	 eax, DWORD PTR _kItemSet$[ebp+18]
  00063	89 45 a5	 mov	 DWORD PTR _kItemData$[ebp+13], eax
  00066	8b 45 de	 mov	 eax, DWORD PTR _kItemSet$[ebp+22]
  00069	89 45 a9	 mov	 DWORD PTR _kItemData$[ebp+17], eax
  0006c	8b 45 e2	 mov	 eax, DWORD PTR _kItemSet$[ebp+26]
  0006f	89 45 ad	 mov	 DWORD PTR _kItemData$[ebp+21], eax
  00072	8b 45 f6	 mov	 eax, DWORD PTR _kItemSet$[ebp+46]
  00075	89 45 c1	 mov	 DWORD PTR _kItemData$[ebp+41], eax
  00078	8a 45 fa	 mov	 al, BYTE PTR _kItemSet$[ebp+50]
  0007b	88 45 c5	 mov	 BYTE PTR _kItemData$[ebp+45], al
  0007e	8d 45 98	 lea	 eax, DWORD PTR _kItemData$[ebp]
  00081	50		 push	 eax
  00082	0f b7 45 ca	 movzx	 eax, WORD PTR _kItemSet$[ebp+2]
  00086	50		 push	 eax
  00087	0f 11 45 b1	 movups	 XMMWORD PTR _kItemData$[ebp+25], xmm0
  0008b	e8 00 00 00 00	 call	 ?SetItemData@CPythonSafeBox@@QAEXKABUpacket_item@@@Z ; CPythonSafeBox::SetItemData

; 89   : 
; 90   : 	__RefreshSafeboxWindow();

  00090	8b ce		 mov	 ecx, esi
  00092	e8 00 00 00 00	 call	 ?__RefreshSafeboxWindow@CPythonNetworkStream@@IAEXXZ ; CPythonNetworkStream::__RefreshSafeboxWindow

; 91   : 
; 92   : 	return true;
; 93   : }

  00097	8b 4d fc	 mov	 ecx, DWORD PTR __$ArrayPad$[ebp]
  0009a	b0 01		 mov	 al, 1
  0009c	33 cd		 xor	 ecx, ebp
  0009e	5e		 pop	 esi
  0009f	e8 00 00 00 00	 call	 @__security_check_cookie@4
  000a4	8b e5		 mov	 esp, ebp
  000a6	5d		 pop	 ebp
  000a7	c3		 ret	 0
?RecvSafeBoxSetPacket@CPythonNetworkStream@@IAE_NXZ ENDP ; CPythonNetworkStream::RecvSafeBoxSetPacket
_TEXT	ENDS
; Function compile flags: /Ogtp
; File D:\Metin2 Server Files\mainline\SRC_2014\Metin2Client\UserInterface\PythonNetworkStreamPhaseGameItem.cpp
;	COMDAT ?RecvQuickSlotMovePacket@CPythonNetworkStream@@IAE_NXZ
_TEXT	SEGMENT
_packet_quick_slot_swap$ = -4				; size = 3
?RecvQuickSlotMovePacket@CPythonNetworkStream@@IAE_NXZ PROC ; CPythonNetworkStream::RecvQuickSlotMovePacket, COMDAT
; _this$ = ecx

; 367  : {

  00000	55		 push	 ebp
  00001	8b ec		 mov	 ebp, esp
  00003	51		 push	 ecx
  00004	56		 push	 esi

; 368  : 	TPacketGCQuickSlotSwap packet_quick_slot_swap;
; 369  : 
; 370  : 	if (!Recv(sizeof(TPacketGCQuickSlotSwap), &packet_quick_slot_swap))

  00005	8d 45 fc	 lea	 eax, DWORD PTR _packet_quick_slot_swap$[ebp]
  00008	8b f1		 mov	 esi, ecx
  0000a	50		 push	 eax
  0000b	6a 03		 push	 3
  0000d	e8 00 00 00 00	 call	 ?Recv@CNetworkStream@@QAE_NHPAX@Z ; CNetworkStream::Recv
  00012	84 c0		 test	 al, al
  00014	75 05		 jne	 SHORT $LN2@RecvQuickS
  00016	5e		 pop	 esi

; 379  : }

  00017	8b e5		 mov	 esp, ebp
  00019	5d		 pop	 ebp
  0001a	c3		 ret	 0
$LN2@RecvQuickS:

; 371  : 		return false;
; 372  : 
; 373  : 	IAbstractPlayer& rkPlayer=IAbstractPlayer::GetSingleton();

  0001b	8b 0d 00 00 00
	00		 mov	 ecx, DWORD PTR ?ms_singleton@?$TAbstractSingleton@VIAbstractPlayer@@@@0PAVIAbstractPlayer@@A ; TAbstractSingleton<IAbstractPlayer>::ms_singleton

; 374  : 	rkPlayer.MoveQuickSlot(packet_quick_slot_swap.pos, packet_quick_slot_swap.change_pos);

  00021	0f b6 45 fe	 movzx	 eax, BYTE PTR _packet_quick_slot_swap$[ebp+2]
  00025	50		 push	 eax
  00026	0f b6 45 fd	 movzx	 eax, BYTE PTR _packet_quick_slot_swap$[ebp+1]
  0002a	8b 11		 mov	 edx, DWORD PTR [ecx]
  0002c	50		 push	 eax
  0002d	ff 52 58	 call	 DWORD PTR [edx+88]

; 375  : 
; 376  : 	__RefreshInventoryWindow();

  00030	8b ce		 mov	 ecx, esi
  00032	e8 00 00 00 00	 call	 ?__RefreshInventoryWindow@CPythonNetworkStream@@IAEXXZ ; CPythonNetworkStream::__RefreshInventoryWindow

; 377  : 
; 378  : 	return true;

  00037	b0 01		 mov	 al, 1
  00039	5e		 pop	 esi

; 379  : }

  0003a	8b e5		 mov	 esp, ebp
  0003c	5d		 pop	 ebp
  0003d	c3		 ret	 0
?RecvQuickSlotMovePacket@CPythonNetworkStream@@IAE_NXZ ENDP ; CPythonNetworkStream::RecvQuickSlotMovePacket
_TEXT	ENDS
; Function compile flags: /Ogtp
; File D:\Metin2 Server Files\mainline\SRC_2014\Metin2Client\UserInterface\PythonNetworkStreamPhaseGameItem.cpp
;	COMDAT ?RecvQuickSlotDelPacket@CPythonNetworkStream@@IAE_NXZ
_TEXT	SEGMENT
_packet_quick_slot_del$ = -4				; size = 2
?RecvQuickSlotDelPacket@CPythonNetworkStream@@IAE_NXZ PROC ; CPythonNetworkStream::RecvQuickSlotDelPacket, COMDAT
; _this$ = ecx

; 352  : {

  00000	55		 push	 ebp
  00001	8b ec		 mov	 ebp, esp
  00003	51		 push	 ecx
  00004	56		 push	 esi

; 353  : 	TPacketGCQuickSlotDel packet_quick_slot_del;
; 354  : 
; 355  : 	if (!Recv(sizeof(TPacketGCQuickSlotDel), &packet_quick_slot_del))

  00005	8d 45 fc	 lea	 eax, DWORD PTR _packet_quick_slot_del$[ebp]
  00008	8b f1		 mov	 esi, ecx
  0000a	50		 push	 eax
  0000b	6a 02		 push	 2
  0000d	e8 00 00 00 00	 call	 ?Recv@CNetworkStream@@QAE_NHPAX@Z ; CNetworkStream::Recv
  00012	84 c0		 test	 al, al
  00014	75 05		 jne	 SHORT $LN2@RecvQuickS
  00016	5e		 pop	 esi

; 364  : }

  00017	8b e5		 mov	 esp, ebp
  00019	5d		 pop	 ebp
  0001a	c3		 ret	 0
$LN2@RecvQuickS:

; 356  : 		return false;
; 357  : 
; 358  : 	IAbstractPlayer& rkPlayer=IAbstractPlayer::GetSingleton();

  0001b	8b 0d 00 00 00
	00		 mov	 ecx, DWORD PTR ?ms_singleton@?$TAbstractSingleton@VIAbstractPlayer@@@@0PAVIAbstractPlayer@@A ; TAbstractSingleton<IAbstractPlayer>::ms_singleton

; 359  : 	rkPlayer.DeleteQuickSlot(packet_quick_slot_del.pos);

  00021	0f b6 45 fd	 movzx	 eax, BYTE PTR _packet_quick_slot_del$[ebp+1]
  00025	50		 push	 eax
  00026	8b 11		 mov	 edx, DWORD PTR [ecx]
  00028	ff 52 54	 call	 DWORD PTR [edx+84]

; 360  : 
; 361  : 	__RefreshInventoryWindow();

  0002b	8b ce		 mov	 ecx, esi
  0002d	e8 00 00 00 00	 call	 ?__RefreshInventoryWindow@CPythonNetworkStream@@IAEXXZ ; CPythonNetworkStream::__RefreshInventoryWindow

; 362  : 
; 363  : 	return true;

  00032	b0 01		 mov	 al, 1
  00034	5e		 pop	 esi

; 364  : }

  00035	8b e5		 mov	 esp, ebp
  00037	5d		 pop	 ebp
  00038	c3		 ret	 0
?RecvQuickSlotDelPacket@CPythonNetworkStream@@IAE_NXZ ENDP ; CPythonNetworkStream::RecvQuickSlotDelPacket
_TEXT	ENDS
; Function compile flags: /Ogtp
; File D:\Metin2 Server Files\mainline\SRC_2014\Metin2Client\UserInterface\PythonNetworkStreamPhaseGameItem.cpp
;	COMDAT ?RecvQuickSlotAddPacket@CPythonNetworkStream@@IAE_NXZ
_TEXT	SEGMENT
_packet_quick_slot_add$ = -8				; size = 4
?RecvQuickSlotAddPacket@CPythonNetworkStream@@IAE_NXZ PROC ; CPythonNetworkStream::RecvQuickSlotAddPacket, COMDAT
; _this$ = ecx

; 337  : {

  00000	55		 push	 ebp
  00001	8b ec		 mov	 ebp, esp
  00003	83 ec 08	 sub	 esp, 8

; 338  : 	TPacketGCQuickSlotAdd packet_quick_slot_add;
; 339  : 
; 340  : 	if (!Recv(sizeof(TPacketGCQuickSlotAdd), &packet_quick_slot_add))

  00006	8d 45 f8	 lea	 eax, DWORD PTR _packet_quick_slot_add$[ebp]
  00009	56		 push	 esi
  0000a	50		 push	 eax
  0000b	6a 04		 push	 4
  0000d	8b f1		 mov	 esi, ecx
  0000f	e8 00 00 00 00	 call	 ?Recv@CNetworkStream@@QAE_NHPAX@Z ; CNetworkStream::Recv
  00014	84 c0		 test	 al, al
  00016	75 05		 jne	 SHORT $LN2@RecvQuickS
  00018	5e		 pop	 esi

; 349  : }

  00019	8b e5		 mov	 esp, ebp
  0001b	5d		 pop	 ebp
  0001c	c3		 ret	 0
$LN2@RecvQuickS:

; 341  : 		return false;
; 342  : 
; 343  : 	IAbstractPlayer& rkPlayer=IAbstractPlayer::GetSingleton();

  0001d	8b 0d 00 00 00
	00		 mov	 ecx, DWORD PTR ?ms_singleton@?$TAbstractSingleton@VIAbstractPlayer@@@@0PAVIAbstractPlayer@@A ; TAbstractSingleton<IAbstractPlayer>::ms_singleton

; 344  : 	rkPlayer.AddQuickSlot(packet_quick_slot_add.pos, packet_quick_slot_add.slot.Type, packet_quick_slot_add.slot.Position);

  00023	ff 75 fb	 push	 DWORD PTR _packet_quick_slot_add$[ebp+3]
  00026	0f b6 45 f9	 movzx	 eax, BYTE PTR _packet_quick_slot_add$[ebp+1]
  0002a	ff 75 fa	 push	 DWORD PTR _packet_quick_slot_add$[ebp+2]
  0002d	8b 11		 mov	 edx, DWORD PTR [ecx]
  0002f	50		 push	 eax
  00030	ff 52 50	 call	 DWORD PTR [edx+80]

; 345  : 
; 346  : 	__RefreshInventoryWindow();

  00033	8b ce		 mov	 ecx, esi
  00035	e8 00 00 00 00	 call	 ?__RefreshInventoryWindow@CPythonNetworkStream@@IAEXXZ ; CPythonNetworkStream::__RefreshInventoryWindow

; 347  : 
; 348  : 	return true;

  0003a	b0 01		 mov	 al, 1
  0003c	5e		 pop	 esi

; 349  : }

  0003d	8b e5		 mov	 esp, ebp
  0003f	5d		 pop	 ebp
  00040	c3		 ret	 0
?RecvQuickSlotAddPacket@CPythonNetworkStream@@IAE_NXZ ENDP ; CPythonNetworkStream::RecvQuickSlotAddPacket
_TEXT	ENDS
; Function compile flags: /Ogtp
; File D:\Metin2 Server Files\mainline\SRC_2014\Metin2Client\UserInterface\PythonNetworkStreamPhaseGameItem.cpp
;	COMDAT ?RecvItemOwnership@CPythonNetworkStream@@IAE_NXZ
_TEXT	SEGMENT
_p$ = -36						; size = 30
__$ArrayPad$ = -4					; size = 4
?RecvItemOwnership@CPythonNetworkStream@@IAE_NXZ PROC	; CPythonNetworkStream::RecvItemOwnership, COMDAT
; _this$ = ecx

; 315  : {

  00000	55		 push	 ebp
  00001	8b ec		 mov	 ebp, esp
  00003	83 ec 24	 sub	 esp, 36			; 00000024H
  00006	a1 00 00 00 00	 mov	 eax, DWORD PTR ___security_cookie
  0000b	33 c5		 xor	 eax, ebp
  0000d	89 45 fc	 mov	 DWORD PTR __$ArrayPad$[ebp], eax

; 316  : 	TPacketGCItemOwnership p;
; 317  : 
; 318  : 	if (!Recv(sizeof(TPacketGCItemOwnership), &p))

  00010	8d 45 dc	 lea	 eax, DWORD PTR _p$[ebp]
  00013	50		 push	 eax
  00014	6a 1e		 push	 30			; 0000001eH
  00016	e8 00 00 00 00	 call	 ?Recv@CNetworkStream@@QAE_NHPAX@Z ; CNetworkStream::Recv
  0001b	84 c0		 test	 al, al
  0001d	75 0e		 jne	 SHORT $LN2@RecvItemOw

; 322  : 	return true;
; 323  : }

  0001f	8b 4d fc	 mov	 ecx, DWORD PTR __$ArrayPad$[ebp]
  00022	33 cd		 xor	 ecx, ebp
  00024	e8 00 00 00 00	 call	 @__security_check_cookie@4
  00029	8b e5		 mov	 esp, ebp
  0002b	5d		 pop	 ebp
  0002c	c3		 ret	 0
$LN2@RecvItemOw:

; 319  : 		return false;
; 320  : 
; 321  : 	CPythonItem::Instance().SetOwnership(p.dwVID, p.szName);

  0002d	8b 0d 00 00 00
	00		 mov	 ecx, DWORD PTR ?ms_singleton@?$CSingleton@VCPythonItem@@@@0PAVCPythonItem@@A ; CSingleton<CPythonItem>::ms_singleton
  00033	8d 45 e1	 lea	 eax, DWORD PTR _p$[ebp+5]
  00036	50		 push	 eax
  00037	ff 75 dd	 push	 DWORD PTR _p$[ebp+1]
  0003a	e8 00 00 00 00	 call	 ?SetOwnership@CPythonItem@@QAEXKPBD@Z ; CPythonItem::SetOwnership

; 322  : 	return true;
; 323  : }

  0003f	8b 4d fc	 mov	 ecx, DWORD PTR __$ArrayPad$[ebp]
  00042	b0 01		 mov	 al, 1
  00044	33 cd		 xor	 ecx, ebp
  00046	e8 00 00 00 00	 call	 @__security_check_cookie@4
  0004b	8b e5		 mov	 esp, ebp
  0004d	5d		 pop	 ebp
  0004e	c3		 ret	 0
?RecvItemOwnership@CPythonNetworkStream@@IAE_NXZ ENDP	; CPythonNetworkStream::RecvItemOwnership
_TEXT	ENDS
; Function compile flags: /Ogtp
; File D:\Metin2 Server Files\mainline\SRC_2014\Metin2Client\UserInterface\PythonNetworkStreamPhaseGameItem.cpp
;	COMDAT ?RecvItemGroundDelPacket@CPythonNetworkStream@@IAE_NXZ
_TEXT	SEGMENT
_packet_item_ground_del$ = -8				; size = 5
?RecvItemGroundDelPacket@CPythonNetworkStream@@IAE_NXZ PROC ; CPythonNetworkStream::RecvItemGroundDelPacket, COMDAT
; _this$ = ecx

; 326  : {

  00000	55		 push	 ebp
  00001	8b ec		 mov	 ebp, esp
  00003	83 ec 08	 sub	 esp, 8

; 327  : 	TPacketGCItemGroundDel	packet_item_ground_del;
; 328  : 
; 329  : 	if (!Recv(sizeof(TPacketGCItemGroundDel), &packet_item_ground_del))

  00006	8d 45 f8	 lea	 eax, DWORD PTR _packet_item_ground_del$[ebp]
  00009	50		 push	 eax
  0000a	6a 05		 push	 5
  0000c	e8 00 00 00 00	 call	 ?Recv@CNetworkStream@@QAE_NHPAX@Z ; CNetworkStream::Recv
  00011	84 c0		 test	 al, al
  00013	75 04		 jne	 SHORT $LN2@RecvItemGr

; 334  : }

  00015	8b e5		 mov	 esp, ebp
  00017	5d		 pop	 ebp
  00018	c3		 ret	 0
$LN2@RecvItemGr:

; 330  : 		return false;
; 331  : 
; 332  : 	CPythonItem::Instance().DeleteItem(packet_item_ground_del.vid);

  00019	ff 75 f9	 push	 DWORD PTR _packet_item_ground_del$[ebp+1]
  0001c	8b 0d 00 00 00
	00		 mov	 ecx, DWORD PTR ?ms_singleton@?$CSingleton@VCPythonItem@@@@0PAVCPythonItem@@A ; CSingleton<CPythonItem>::ms_singleton
  00022	e8 00 00 00 00	 call	 ?DeleteItem@CPythonItem@@QAEXK@Z ; CPythonItem::DeleteItem

; 333  : 	return true;

  00027	b0 01		 mov	 al, 1

; 334  : }

  00029	8b e5		 mov	 esp, ebp
  0002b	5d		 pop	 ebp
  0002c	c3		 ret	 0
?RecvItemGroundDelPacket@CPythonNetworkStream@@IAE_NXZ ENDP ; CPythonNetworkStream::RecvItemGroundDelPacket
_TEXT	ENDS
; Function compile flags: /Ogtp
; File D:\Metin2 Server Files\mainline\SRC_2014\Metin2Client\UserInterface\PythonNetworkStreamPhaseGameItem.cpp
;	COMDAT ?RecvItemGroundAddPacket@CPythonNetworkStream@@IAE_NXZ
_TEXT	SEGMENT
_packet_item_ground_add$ = -28				; size = 21
__$ArrayPad$ = -4					; size = 4
?RecvItemGroundAddPacket@CPythonNetworkStream@@IAE_NXZ PROC ; CPythonNetworkStream::RecvItemGroundAddPacket, COMDAT
; _this$ = ecx

; 297  : {

  00000	55		 push	 ebp
  00001	8b ec		 mov	 ebp, esp
  00003	83 ec 1c	 sub	 esp, 28			; 0000001cH
  00006	a1 00 00 00 00	 mov	 eax, DWORD PTR ___security_cookie
  0000b	33 c5		 xor	 eax, ebp
  0000d	89 45 fc	 mov	 DWORD PTR __$ArrayPad$[ebp], eax
  00010	56		 push	 esi

; 298  : 	TPacketGCItemGroundAdd packet_item_ground_add;
; 299  : 
; 300  : 	if (!Recv(sizeof(TPacketGCItemGroundAdd), &packet_item_ground_add))

  00011	8d 45 e4	 lea	 eax, DWORD PTR _packet_item_ground_add$[ebp]
  00014	8b f1		 mov	 esi, ecx
  00016	50		 push	 eax
  00017	6a 15		 push	 21			; 00000015H
  00019	e8 00 00 00 00	 call	 ?Recv@CNetworkStream@@QAE_NHPAX@Z ; CNetworkStream::Recv
  0001e	84 c0		 test	 al, al
  00020	75 0f		 jne	 SHORT $LN2@RecvItemGr
  00022	5e		 pop	 esi

; 306  : 									   packet_item_ground_add.dwVnum,
; 307  : 									   packet_item_ground_add.lX,
; 308  : 									   packet_item_ground_add.lY,
; 309  : 									   packet_item_ground_add.lZ);
; 310  : 	return true;
; 311  : }

  00023	8b 4d fc	 mov	 ecx, DWORD PTR __$ArrayPad$[ebp]
  00026	33 cd		 xor	 ecx, ebp
  00028	e8 00 00 00 00	 call	 @__security_check_cookie@4
  0002d	8b e5		 mov	 esp, ebp
  0002f	5d		 pop	 ebp
  00030	c3		 ret	 0
$LN2@RecvItemGr:

; 301  : 		return false;
; 302  : 
; 303  : 	__GlobalPositionToLocalPosition(packet_item_ground_add.lX, packet_item_ground_add.lY);

  00031	8d 45 e9	 lea	 eax, DWORD PTR _packet_item_ground_add$[ebp+5]
  00034	8b ce		 mov	 ecx, esi
  00036	50		 push	 eax
  00037	8d 45 e5	 lea	 eax, DWORD PTR _packet_item_ground_add$[ebp+1]
  0003a	50		 push	 eax
  0003b	e8 00 00 00 00	 call	 ?__GlobalPositionToLocalPosition@CPythonNetworkStream@@IAEXAAJ0@Z ; CPythonNetworkStream::__GlobalPositionToLocalPosition
  00040	66 0f 6e 45 ed	 movd	 xmm0, DWORD PTR _packet_item_ground_add$[ebp+9]

; 304  : 
; 305  : 	CPythonItem::Instance().CreateItem(packet_item_ground_add.dwVID, 

  00045	0f 5b c0	 cvtdq2ps xmm0, xmm0
  00048	6a 01		 push	 1
  0004a	83 ec 0c	 sub	 esp, 12			; 0000000cH
  0004d	8b 0d 00 00 00
	00		 mov	 ecx, DWORD PTR ?ms_singleton@?$CSingleton@VCPythonItem@@@@0PAVCPythonItem@@A ; CSingleton<CPythonItem>::ms_singleton
  00053	f3 0f 11 44 24
	08		 movss	 DWORD PTR [esp+8], xmm0
  00059	66 0f 6e 45 e9	 movd	 xmm0, DWORD PTR _packet_item_ground_add$[ebp+5]
  0005e	0f 5b c0	 cvtdq2ps xmm0, xmm0
  00061	f3 0f 11 44 24
	04		 movss	 DWORD PTR [esp+4], xmm0
  00067	66 0f 6e 45 e5	 movd	 xmm0, DWORD PTR _packet_item_ground_add$[ebp+1]
  0006c	0f 5b c0	 cvtdq2ps xmm0, xmm0
  0006f	f3 0f 11 04 24	 movss	 DWORD PTR [esp], xmm0
  00074	ff 75 f5	 push	 DWORD PTR _packet_item_ground_add$[ebp+17]
  00077	ff 75 f1	 push	 DWORD PTR _packet_item_ground_add$[ebp+13]
  0007a	e8 00 00 00 00	 call	 ?CreateItem@CPythonItem@@QAEXKKMMM_N@Z ; CPythonItem::CreateItem

; 306  : 									   packet_item_ground_add.dwVnum,
; 307  : 									   packet_item_ground_add.lX,
; 308  : 									   packet_item_ground_add.lY,
; 309  : 									   packet_item_ground_add.lZ);
; 310  : 	return true;
; 311  : }

  0007f	8b 4d fc	 mov	 ecx, DWORD PTR __$ArrayPad$[ebp]
  00082	b0 01		 mov	 al, 1
  00084	33 cd		 xor	 ecx, ebp
  00086	5e		 pop	 esi
  00087	e8 00 00 00 00	 call	 @__security_check_cookie@4
  0008c	8b e5		 mov	 esp, ebp
  0008e	5d		 pop	 ebp
  0008f	c3		 ret	 0
?RecvItemGroundAddPacket@CPythonNetworkStream@@IAE_NXZ ENDP ; CPythonNetworkStream::RecvItemGroundAddPacket
_TEXT	ENDS
; Function compile flags: /Ogtp
; File D:\Metin2 Server Files\mainline\SRC_2014\Metin2Client\UserInterface\PythonNetworkStreamPhaseGameItem.cpp
; File D:\Metin2 Server Files\mainline\SRC_2014\Metin2Client\UserInterface\GameType.h
; File D:\Metin2 Server Files\mainline\SRC_2014\Metin2Client\UserInterface\PythonNetworkStreamPhaseGameItem.cpp
; File D:\Metin2 Server Files\mainline\SRC_2014\Metin2Client\UserInterface\GameType.h
; File D:\Metin2 Server Files\mainline\SRC_2014\Metin2Client\UserInterface\PythonNetworkStreamPhaseGameItem.cpp
; File D:\Metin2 Server Files\mainline\SRC_2014\Metin2Client\UserInterface\GameType.h
; File D:\Metin2 Server Files\mainline\SRC_2014\Metin2Client\UserInterface\PythonNetworkStreamPhaseGameItem.cpp
;	COMDAT ?RecvItemUpdatePacket@CPythonNetworkStream@@IAE_NXZ
_TEXT	SEGMENT
_this$GSCopy$1$ = -48					; size = 4
_packet_item_update$ = -44				; size = 38
__$ArrayPad$ = -4					; size = 4
?RecvItemUpdatePacket@CPythonNetworkStream@@IAE_NXZ PROC ; CPythonNetworkStream::RecvItemUpdatePacket, COMDAT
; _this$ = ecx

; 279  : {

  00000	55		 push	 ebp
  00001	8b ec		 mov	 ebp, esp
  00003	83 ec 30	 sub	 esp, 48			; 00000030H
  00006	a1 00 00 00 00	 mov	 eax, DWORD PTR ___security_cookie
  0000b	33 c5		 xor	 eax, ebp
  0000d	89 45 fc	 mov	 DWORD PTR __$ArrayPad$[ebp], eax
  00010	53		 push	 ebx
  00011	8b c1		 mov	 eax, ecx
; File D:\Metin2 Server Files\mainline\SRC_2014\Metin2Client\UserInterface\GameType.h

; 186  : 		window_type =     INVENTORY;

  00013	c6 45 d5 01	 mov	 BYTE PTR _packet_item_update$[ebp+1], 1
; File D:\Metin2 Server Files\mainline\SRC_2014\Metin2Client\UserInterface\PythonNetworkStreamPhaseGameItem.cpp

; 279  : {

  00017	56		 push	 esi
; File D:\Metin2 Server Files\mainline\SRC_2014\Metin2Client\UserInterface\GameType.h

; 187  : 		cell = WORD_MAX;

  00018	b9 ff ff 00 00	 mov	 ecx, 65535		; 0000ffffH
; File D:\Metin2 Server Files\mainline\SRC_2014\Metin2Client\UserInterface\PythonNetworkStreamPhaseGameItem.cpp

; 279  : {

  0001d	89 45 d0	 mov	 DWORD PTR _this$GSCopy$1$[ebp], eax
; File D:\Metin2 Server Files\mainline\SRC_2014\Metin2Client\UserInterface\GameType.h

; 187  : 		cell = WORD_MAX;

  00020	66 89 4d d6	 mov	 WORD PTR _packet_item_update$[ebp+2], cx
; File D:\Metin2 Server Files\mainline\SRC_2014\Metin2Client\UserInterface\PythonNetworkStreamPhaseGameItem.cpp

; 282  : 	if (!Recv(sizeof(TPacketGCItemUpdate), &packet_item_update))

  00024	8d 4d d4	 lea	 ecx, DWORD PTR _packet_item_update$[ebp]
  00027	57		 push	 edi
  00028	51		 push	 ecx
  00029	6a 26		 push	 38			; 00000026H
  0002b	8b c8		 mov	 ecx, eax
  0002d	e8 00 00 00 00	 call	 ?Recv@CNetworkStream@@QAE_NHPAX@Z ; CNetworkStream::Recv
  00032	84 c0		 test	 al, al
  00034	75 11		 jne	 SHORT $LN8@RecvItemUp

; 293  : 	return true;
; 294  : }

  00036	5f		 pop	 edi
  00037	5e		 pop	 esi
  00038	5b		 pop	 ebx
  00039	8b 4d fc	 mov	 ecx, DWORD PTR __$ArrayPad$[ebp]
  0003c	33 cd		 xor	 ecx, ebp
  0003e	e8 00 00 00 00	 call	 @__security_check_cookie@4
  00043	8b e5		 mov	 esp, ebp
  00045	5d		 pop	 ebp
  00046	c3		 ret	 0
$LN8@RecvItemUp:

; 283  : 		return false;
; 284  : 
; 285  : 	IAbstractPlayer& rkPlayer=IAbstractPlayer::GetSingleton();
; 286  : 	rkPlayer.SetItemCount(packet_item_update.Cell, packet_item_update.count);

  00047	ff 75 d8	 push	 DWORD PTR _packet_item_update$[ebp+4]
  0004a	8b 3d 00 00 00
	00		 mov	 edi, DWORD PTR ?ms_singleton@?$TAbstractSingleton@VIAbstractPlayer@@@@0PAVIAbstractPlayer@@A ; TAbstractSingleton<IAbstractPlayer>::ms_singleton
  00050	66 8b 45 d5	 mov	 ax, WORD PTR _packet_item_update$[ebp+1]
  00054	51		 push	 ecx
  00055	8b cc		 mov	 ecx, esp
  00057	8b 17		 mov	 edx, DWORD PTR [edi]
  00059	66 89 01	 mov	 WORD PTR [ecx], ax
  0005c	8a 45 d7	 mov	 al, BYTE PTR _packet_item_update$[ebp+3]
  0005f	88 41 02	 mov	 BYTE PTR [ecx+2], al
  00062	8b cf		 mov	 ecx, edi
  00064	ff 52 34	 call	 DWORD PTR [edx+52]
  00067	33 f6		 xor	 esi, esi
  00069	0f 1f 80 00 00
	00 00		 npad	 7
$LL4@RecvItemUp:

; 287  : 	for (int i = 0; i < ITEM_SOCKET_SLOT_MAX_NUM; ++i)
; 288  : 		rkPlayer.SetItemMetinSocket(packet_item_update.Cell, i, packet_item_update.alSockets[i]);

  00070	ff 74 b5 d9	 push	 DWORD PTR _packet_item_update$[ebp+esi*4+5]
  00074	66 8b 45 d5	 mov	 ax, WORD PTR _packet_item_update$[ebp+1]
  00078	8b 17		 mov	 edx, DWORD PTR [edi]
  0007a	56		 push	 esi
  0007b	51		 push	 ecx
  0007c	8b cc		 mov	 ecx, esp
  0007e	66 89 01	 mov	 WORD PTR [ecx], ax
  00081	8a 45 d7	 mov	 al, BYTE PTR _packet_item_update$[ebp+3]
  00084	88 41 02	 mov	 BYTE PTR [ecx+2], al
  00087	8b cf		 mov	 ecx, edi
  00089	ff 52 38	 call	 DWORD PTR [edx+56]
  0008c	46		 inc	 esi
  0008d	83 fe 03	 cmp	 esi, 3
  00090	7c de		 jl	 SHORT $LL4@RecvItemUp

; 289  : 	for (int j = 0; j < ITEM_ATTRIBUTE_SLOT_MAX_NUM; ++j)

  00092	33 f6		 xor	 esi, esi
  00094	8d 5d e5	 lea	 ebx, DWORD PTR _packet_item_update$[ebp+17]
$LL7@RecvItemUp:

; 290  : 		rkPlayer.SetItemAttribute(packet_item_update.Cell, j, packet_item_update.aAttr[j].bType, packet_item_update.aAttr[j].sValue);

  00097	0f b7 43 01	 movzx	 eax, WORD PTR [ebx+1]
  0009b	8b 17		 mov	 edx, DWORD PTR [edi]
  0009d	50		 push	 eax
  0009e	0f b6 03	 movzx	 eax, BYTE PTR [ebx]
  000a1	50		 push	 eax
  000a2	66 8b 45 d5	 mov	 ax, WORD PTR _packet_item_update$[ebp+1]
  000a6	56		 push	 esi
  000a7	51		 push	 ecx
  000a8	8b cc		 mov	 ecx, esp
  000aa	66 89 01	 mov	 WORD PTR [ecx], ax
  000ad	8a 45 d7	 mov	 al, BYTE PTR _packet_item_update$[ebp+3]
  000b0	88 41 02	 mov	 BYTE PTR [ecx+2], al
  000b3	8b cf		 mov	 ecx, edi
  000b5	ff 52 3c	 call	 DWORD PTR [edx+60]
  000b8	46		 inc	 esi
  000b9	8d 5b 03	 lea	 ebx, DWORD PTR [ebx+3]
  000bc	83 fe 07	 cmp	 esi, 7
  000bf	7c d6		 jl	 SHORT $LL7@RecvItemUp

; 291  : 
; 292  : 	__RefreshInventoryWindow();

  000c1	8b 4d d0	 mov	 ecx, DWORD PTR _this$GSCopy$1$[ebp]
  000c4	e8 00 00 00 00	 call	 ?__RefreshInventoryWindow@CPythonNetworkStream@@IAEXXZ ; CPythonNetworkStream::__RefreshInventoryWindow

; 293  : 	return true;
; 294  : }

  000c9	8b 4d fc	 mov	 ecx, DWORD PTR __$ArrayPad$[ebp]
  000cc	b0 01		 mov	 al, 1
  000ce	5f		 pop	 edi
  000cf	5e		 pop	 esi
  000d0	33 cd		 xor	 ecx, ebp
  000d2	5b		 pop	 ebx
  000d3	e8 00 00 00 00	 call	 @__security_check_cookie@4
  000d8	8b e5		 mov	 esp, ebp
  000da	5d		 pop	 ebp
  000db	c3		 ret	 0
?RecvItemUpdatePacket@CPythonNetworkStream@@IAE_NXZ ENDP ; CPythonNetworkStream::RecvItemUpdatePacket
_TEXT	ENDS
; Function compile flags: /Ogtp
; File D:\Metin2 Server Files\mainline\SRC_2014\Metin2Client\UserInterface\PythonNetworkStreamPhaseGameItem.cpp
; File D:\Metin2 Server Files\mainline\SRC_2014\Metin2Client\UserInterface\GameType.h
; File D:\Metin2 Server Files\mainline\SRC_2014\Metin2Client\UserInterface\PythonNetworkStreamPhaseGameItem.cpp
; File D:\Metin2 Server Files\mainline\SRC_2014\Metin2Client\UserInterface\GameType.h
; File D:\Metin2 Server Files\mainline\SRC_2014\Metin2Client\UserInterface\PythonNetworkStreamPhaseGameItem.cpp
;	COMDAT ?RecvItemUsePacket@CPythonNetworkStream@@IAE_NXZ
_TEXT	SEGMENT
_packet_item_use$ = -16					; size = 16
?RecvItemUsePacket@CPythonNetworkStream@@IAE_NXZ PROC	; CPythonNetworkStream::RecvItemUsePacket, COMDAT
; _this$ = ecx

; 268  : {

  00000	55		 push	 ebp
  00001	8b ec		 mov	 ebp, esp
  00003	83 ec 10	 sub	 esp, 16			; 00000010H
; File D:\Metin2 Server Files\mainline\SRC_2014\Metin2Client\UserInterface\GameType.h

; 187  : 		cell = WORD_MAX;

  00006	b8 ff ff 00 00	 mov	 eax, 65535		; 0000ffffH
  0000b	c6 45 f1 01	 mov	 BYTE PTR _packet_item_use$[ebp+1], 1
; File D:\Metin2 Server Files\mainline\SRC_2014\Metin2Client\UserInterface\PythonNetworkStreamPhaseGameItem.cpp

; 268  : {

  0000f	56		 push	 esi
; File D:\Metin2 Server Files\mainline\SRC_2014\Metin2Client\UserInterface\GameType.h

; 187  : 		cell = WORD_MAX;

  00010	66 89 45 f2	 mov	 WORD PTR _packet_item_use$[ebp+2], ax
; File D:\Metin2 Server Files\mainline\SRC_2014\Metin2Client\UserInterface\PythonNetworkStreamPhaseGameItem.cpp

; 268  : {

  00014	8b f1		 mov	 esi, ecx

; 269  : 	TPacketGCItemUse packet_item_use;
; 270  : 
; 271  : 	if (!Recv(sizeof(TPacketGCItemUse), &packet_item_use))

  00016	8d 45 f0	 lea	 eax, DWORD PTR _packet_item_use$[ebp]
  00019	50		 push	 eax
  0001a	6a 10		 push	 16			; 00000010H
  0001c	e8 00 00 00 00	 call	 ?Recv@CNetworkStream@@QAE_NHPAX@Z ; CNetworkStream::Recv
  00021	84 c0		 test	 al, al
  00023	75 05		 jne	 SHORT $LN2@RecvItemUs
  00025	5e		 pop	 esi

; 276  : }

  00026	8b e5		 mov	 esp, ebp
  00028	5d		 pop	 ebp
  00029	c3		 ret	 0
$LN2@RecvItemUs:

; 272  : 		return false;
; 273  : 
; 274  : 	__RefreshInventoryWindow();

  0002a	8b ce		 mov	 ecx, esi
  0002c	e8 00 00 00 00	 call	 ?__RefreshInventoryWindow@CPythonNetworkStream@@IAEXXZ ; CPythonNetworkStream::__RefreshInventoryWindow

; 275  : 	return true;

  00031	b0 01		 mov	 al, 1
  00033	5e		 pop	 esi

; 276  : }

  00034	8b e5		 mov	 esp, ebp
  00036	5d		 pop	 ebp
  00037	c3		 ret	 0
?RecvItemUsePacket@CPythonNetworkStream@@IAE_NXZ ENDP	; CPythonNetworkStream::RecvItemUsePacket
_TEXT	ENDS
; Function compile flags: /Ogtp
; File D:\Metin2 Server Files\mainline\SRC_2014\Metin2Client\UserInterface\PythonNetworkStreamPhaseGameItem.cpp
; File D:\Metin2 Server Files\mainline\SRC_2014\Metin2Client\UserInterface\GameType.h
; File D:\Metin2 Server Files\mainline\SRC_2014\Metin2Client\UserInterface\PythonNetworkStreamPhaseGameItem.cpp
; File D:\Metin2 Server Files\mainline\SRC_2014\Metin2Client\UserInterface\GameType.h
; File D:\Metin2 Server Files\mainline\SRC_2014\Metin2Client\UserInterface\PythonNetworkStreamPhaseGameItem.cpp
;	COMDAT ?RecvItemSetPacket2@CPythonNetworkStream@@IAE_NXZ
_TEXT	SEGMENT
_packet_item_set$ = -104				; size = 51
_kItemData$ = -52					; size = 46
__$ArrayPad$ = -4					; size = 4
?RecvItemSetPacket2@CPythonNetworkStream@@IAE_NXZ PROC	; CPythonNetworkStream::RecvItemSetPacket2, COMDAT
; _this$ = ecx

; 239  : {

  00000	55		 push	 ebp
  00001	8b ec		 mov	 ebp, esp
  00003	83 ec 68	 sub	 esp, 104		; 00000068H
  00006	a1 00 00 00 00	 mov	 eax, DWORD PTR ___security_cookie
  0000b	33 c5		 xor	 eax, ebp
  0000d	89 45 fc	 mov	 DWORD PTR __$ArrayPad$[ebp], eax
  00010	56		 push	 esi
; File D:\Metin2 Server Files\mainline\SRC_2014\Metin2Client\UserInterface\GameType.h

; 187  : 		cell = WORD_MAX;

  00011	b8 ff ff 00 00	 mov	 eax, 65535		; 0000ffffH
  00016	c6 45 99 01	 mov	 BYTE PTR _packet_item_set$[ebp+1], 1
; File D:\Metin2 Server Files\mainline\SRC_2014\Metin2Client\UserInterface\PythonNetworkStreamPhaseGameItem.cpp

; 239  : {

  0001a	57		 push	 edi
; File D:\Metin2 Server Files\mainline\SRC_2014\Metin2Client\UserInterface\GameType.h

; 187  : 		cell = WORD_MAX;

  0001b	66 89 45 9a	 mov	 WORD PTR _packet_item_set$[ebp+2], ax
; File D:\Metin2 Server Files\mainline\SRC_2014\Metin2Client\UserInterface\PythonNetworkStreamPhaseGameItem.cpp

; 239  : {

  0001f	8b f9		 mov	 edi, ecx

; 240  : 	TPacketGCItemSet2 packet_item_set;
; 241  : 
; 242  : 	if (!Recv(sizeof(TPacketGCItemSet2), &packet_item_set))

  00021	8d 45 98	 lea	 eax, DWORD PTR _packet_item_set$[ebp]
  00024	50		 push	 eax
  00025	6a 33		 push	 51			; 00000033H
  00027	e8 00 00 00 00	 call	 ?Recv@CNetworkStream@@QAE_NHPAX@Z ; CNetworkStream::Recv
  0002c	84 c0		 test	 al, al
  0002e	75 10		 jne	 SHORT $LN8@RecvItemSe

; 263  : 	return true;
; 264  : }

  00030	5f		 pop	 edi
  00031	5e		 pop	 esi
  00032	8b 4d fc	 mov	 ecx, DWORD PTR __$ArrayPad$[ebp]
  00035	33 cd		 xor	 ecx, ebp
  00037	e8 00 00 00 00	 call	 @__security_check_cookie@4
  0003c	8b e5		 mov	 esp, ebp
  0003e	5d		 pop	 ebp
  0003f	c3		 ret	 0
$LN8@RecvItemSe:

; 243  : 		return false;
; 244  : 
; 245  : 	TItemData kItemData;
; 246  : 	kItemData.vnum	= packet_item_set.vnum;

  00040	8b 45 9c	 mov	 eax, DWORD PTR _packet_item_set$[ebp+4]
  00043	89 45 cc	 mov	 DWORD PTR _kItemData$[ebp], eax

; 247  : 	kItemData.count	= packet_item_set.count;

  00046	8a 45 a0	 mov	 al, BYTE PTR _packet_item_set$[ebp+8]
  00049	88 45 d0	 mov	 BYTE PTR _kItemData$[ebp+4], al

; 248  : 	kItemData.flags = packet_item_set.flags;

  0004c	8b 45 a1	 mov	 eax, DWORD PTR _packet_item_set$[ebp+9]

; 249  : 	kItemData.anti_flags = packet_item_set.anti_flags;
; 250  : 
; 251  : 	for (int i=0; i<ITEM_SOCKET_SLOT_MAX_NUM; ++i)
; 252  : 		kItemData.alSockets[i]=packet_item_set.alSockets[i];
; 253  : 	for (int j=0; j<ITEM_ATTRIBUTE_SLOT_MAX_NUM; ++j)
; 254  : 		kItemData.aAttr[j]=packet_item_set.aAttr[j];
; 255  : 
; 256  : 	IAbstractPlayer& rkPlayer=IAbstractPlayer::GetSingleton();

  0004f	8b 15 00 00 00
	00		 mov	 edx, DWORD PTR ?ms_singleton@?$TAbstractSingleton@VIAbstractPlayer@@@@0PAVIAbstractPlayer@@A ; TAbstractSingleton<IAbstractPlayer>::ms_singleton
  00055	0f 10 45 b6	 movups	 xmm0, XMMWORD PTR _packet_item_set$[ebp+30]
  00059	89 45 d1	 mov	 DWORD PTR _kItemData$[ebp+5], eax
  0005c	8b 45 a5	 mov	 eax, DWORD PTR _packet_item_set$[ebp+13]
  0005f	89 45 d5	 mov	 DWORD PTR _kItemData$[ebp+9], eax
  00062	8b 45 aa	 mov	 eax, DWORD PTR _packet_item_set$[ebp+18]
  00065	89 45 d9	 mov	 DWORD PTR _kItemData$[ebp+13], eax
  00068	8b 45 ae	 mov	 eax, DWORD PTR _packet_item_set$[ebp+22]
  0006b	89 45 dd	 mov	 DWORD PTR _kItemData$[ebp+17], eax
  0006e	8b 45 b2	 mov	 eax, DWORD PTR _packet_item_set$[ebp+26]
  00071	89 45 e1	 mov	 DWORD PTR _kItemData$[ebp+21], eax
  00074	8b 45 c6	 mov	 eax, DWORD PTR _packet_item_set$[ebp+46]
  00077	89 45 f5	 mov	 DWORD PTR _kItemData$[ebp+41], eax
  0007a	8a 45 ca	 mov	 al, BYTE PTR _packet_item_set$[ebp+50]
  0007d	88 45 f9	 mov	 BYTE PTR _kItemData$[ebp+45], al

; 257  : 	rkPlayer.SetItemData(packet_item_set.Cell, kItemData);

  00080	8d 45 cc	 lea	 eax, DWORD PTR _kItemData$[ebp]
  00083	50		 push	 eax
  00084	66 8b 45 99	 mov	 ax, WORD PTR _packet_item_set$[ebp+1]
  00088	51		 push	 ecx
  00089	8b cc		 mov	 ecx, esp
  0008b	0f 11 45 e5	 movups	 XMMWORD PTR _kItemData$[ebp+25], xmm0
  0008f	8b 32		 mov	 esi, DWORD PTR [edx]
  00091	66 89 01	 mov	 WORD PTR [ecx], ax
  00094	8a 45 9b	 mov	 al, BYTE PTR _packet_item_set$[ebp+3]
  00097	88 41 02	 mov	 BYTE PTR [ecx+2], al
  0009a	8b ca		 mov	 ecx, edx
  0009c	ff 56 30	 call	 DWORD PTR [esi+48]

; 258  : 
; 259  : 	if (packet_item_set.highlight)

  0009f	80 7d a9 00	 cmp	 BYTE PTR _packet_item_set$[ebp+17], 0
  000a3	74 29		 je	 SHORT $LN9@RecvItemSe

; 260  : 		PyCallClassMemberFunc(m_apoPhaseWnd[PHASE_WINDOW_GAME], "BINARY_Highlight_Item", Py_BuildValue("(ii)", packet_item_set.Cell.window_type, packet_item_set.Cell.cell));

  000a5	0f b7 45 9a	 movzx	 eax, WORD PTR _packet_item_set$[ebp+2]
  000a9	50		 push	 eax
  000aa	0f b6 45 99	 movzx	 eax, BYTE PTR _packet_item_set$[ebp+1]
  000ae	50		 push	 eax
  000af	68 00 00 00 00	 push	 OFFSET ??_C@_04INACLLOK@?$CIii?$CJ@
  000b4	ff 15 00 00 00
	00		 call	 DWORD PTR __imp__Py_BuildValue
  000ba	50		 push	 eax
  000bb	68 00 00 00 00	 push	 OFFSET ??_C@_0BG@ELBKFGDM@BINARY_Highlight_Item@
  000c0	ff b7 90 01 00
	00		 push	 DWORD PTR [edi+400]
  000c6	e8 00 00 00 00	 call	 ?PyCallClassMemberFunc@@YA_NPAU_object@@PBD0@Z ; PyCallClassMemberFunc
  000cb	83 c4 18	 add	 esp, 24			; 00000018H
$LN9@RecvItemSe:

; 261  : 
; 262  : 	__RefreshInventoryWindow();

  000ce	8b cf		 mov	 ecx, edi
  000d0	e8 00 00 00 00	 call	 ?__RefreshInventoryWindow@CPythonNetworkStream@@IAEXXZ ; CPythonNetworkStream::__RefreshInventoryWindow

; 263  : 	return true;
; 264  : }

  000d5	8b 4d fc	 mov	 ecx, DWORD PTR __$ArrayPad$[ebp]
  000d8	b0 01		 mov	 al, 1
  000da	5f		 pop	 edi
  000db	33 cd		 xor	 ecx, ebp
  000dd	5e		 pop	 esi
  000de	e8 00 00 00 00	 call	 @__security_check_cookie@4
  000e3	8b e5		 mov	 esp, ebp
  000e5	5d		 pop	 ebp
  000e6	c3		 ret	 0
?RecvItemSetPacket2@CPythonNetworkStream@@IAE_NXZ ENDP	; CPythonNetworkStream::RecvItemSetPacket2
_TEXT	ENDS
; Function compile flags: /Ogtp
; File D:\Metin2 Server Files\mainline\SRC_2014\Metin2Client\UserInterface\PythonNetworkStreamPhaseGameItem.cpp
; File D:\Metin2 Server Files\mainline\SRC_2014\Metin2Client\UserInterface\GameType.h
; File D:\Metin2 Server Files\mainline\SRC_2014\Metin2Client\UserInterface\PythonNetworkStreamPhaseGameItem.cpp
; File D:\Metin2 Server Files\mainline\SRC_2014\Metin2Client\UserInterface\GameType.h
; File D:\Metin2 Server Files\mainline\SRC_2014\Metin2Client\UserInterface\PythonNetworkStreamPhaseGameItem.cpp
;	COMDAT ?RecvItemSetPacket@CPythonNetworkStream@@IAE_NXZ
_TEXT	SEGMENT
_kItemData$ = -96					; size = 46
_packet_item_set$ = -48					; size = 42
__$ArrayPad$ = -4					; size = 4
?RecvItemSetPacket@CPythonNetworkStream@@IAE_NXZ PROC	; CPythonNetworkStream::RecvItemSetPacket, COMDAT
; _this$ = ecx

; 215  : {

  00000	55		 push	 ebp
  00001	8b ec		 mov	 ebp, esp
  00003	83 ec 60	 sub	 esp, 96			; 00000060H
  00006	a1 00 00 00 00	 mov	 eax, DWORD PTR ___security_cookie
  0000b	33 c5		 xor	 eax, ebp
  0000d	89 45 fc	 mov	 DWORD PTR __$ArrayPad$[ebp], eax
  00010	56		 push	 esi
; File D:\Metin2 Server Files\mainline\SRC_2014\Metin2Client\UserInterface\GameType.h

; 187  : 		cell = WORD_MAX;

  00011	b8 ff ff 00 00	 mov	 eax, 65535		; 0000ffffH
  00016	c6 45 d1 01	 mov	 BYTE PTR _packet_item_set$[ebp+1], 1
; File D:\Metin2 Server Files\mainline\SRC_2014\Metin2Client\UserInterface\PythonNetworkStreamPhaseGameItem.cpp

; 215  : {

  0001a	57		 push	 edi
; File D:\Metin2 Server Files\mainline\SRC_2014\Metin2Client\UserInterface\GameType.h

; 187  : 		cell = WORD_MAX;

  0001b	66 89 45 d2	 mov	 WORD PTR _packet_item_set$[ebp+2], ax
; File D:\Metin2 Server Files\mainline\SRC_2014\Metin2Client\UserInterface\PythonNetworkStreamPhaseGameItem.cpp

; 215  : {

  0001f	8b f9		 mov	 edi, ecx

; 216  : 	TPacketGCItemSet packet_item_set;
; 217  : 
; 218  : 	if (!Recv(sizeof(TPacketGCItemSet), &packet_item_set))

  00021	8d 45 d0	 lea	 eax, DWORD PTR _packet_item_set$[ebp]
  00024	50		 push	 eax
  00025	6a 2a		 push	 42			; 0000002aH
  00027	e8 00 00 00 00	 call	 ?Recv@CNetworkStream@@QAE_NHPAX@Z ; CNetworkStream::Recv
  0002c	84 c0		 test	 al, al
  0002e	75 10		 jne	 SHORT $LN8@RecvItemSe

; 235  : 	return true;
; 236  : }

  00030	5f		 pop	 edi
  00031	5e		 pop	 esi
  00032	8b 4d fc	 mov	 ecx, DWORD PTR __$ArrayPad$[ebp]
  00035	33 cd		 xor	 ecx, ebp
  00037	e8 00 00 00 00	 call	 @__security_check_cookie@4
  0003c	8b e5		 mov	 esp, ebp
  0003e	5d		 pop	 ebp
  0003f	c3		 ret	 0
$LN8@RecvItemSe:

; 219  : 		return false;
; 220  : 
; 221  : 	TItemData kItemData;
; 222  : 	kItemData.vnum	= packet_item_set.vnum;

  00040	8b 45 d4	 mov	 eax, DWORD PTR _packet_item_set$[ebp+4]

; 223  : 	kItemData.count	= packet_item_set.count;
; 224  : 	kItemData.flags = 0;
; 225  : 	for (int i=0; i<ITEM_SOCKET_SLOT_MAX_NUM; ++i)
; 226  : 		kItemData.alSockets[i]=packet_item_set.alSockets[i];
; 227  : 	for (int j=0; j<ITEM_ATTRIBUTE_SLOT_MAX_NUM; ++j)
; 228  : 		kItemData.aAttr[j]=packet_item_set.aAttr[j];
; 229  : 
; 230  : 	IAbstractPlayer& rkPlayer=IAbstractPlayer::GetSingleton();

  00043	8b 0d 00 00 00
	00		 mov	 ecx, DWORD PTR ?ms_singleton@?$TAbstractSingleton@VIAbstractPlayer@@@@0PAVIAbstractPlayer@@A ; TAbstractSingleton<IAbstractPlayer>::ms_singleton
  00049	0f 10 45 e5	 movups	 xmm0, XMMWORD PTR _packet_item_set$[ebp+21]
  0004d	89 45 a0	 mov	 DWORD PTR _kItemData$[ebp], eax
  00050	8a 45 d8	 mov	 al, BYTE PTR _packet_item_set$[ebp+8]
  00053	88 45 a4	 mov	 BYTE PTR _kItemData$[ebp+4], al
  00056	8b 45 d9	 mov	 eax, DWORD PTR _packet_item_set$[ebp+9]
  00059	89 45 ad	 mov	 DWORD PTR _kItemData$[ebp+13], eax
  0005c	8b 45 dd	 mov	 eax, DWORD PTR _packet_item_set$[ebp+13]
  0005f	89 45 b1	 mov	 DWORD PTR _kItemData$[ebp+17], eax
  00062	8b 45 e1	 mov	 eax, DWORD PTR _packet_item_set$[ebp+17]
  00065	89 45 b5	 mov	 DWORD PTR _kItemData$[ebp+21], eax
  00068	8b 45 f5	 mov	 eax, DWORD PTR _packet_item_set$[ebp+37]
  0006b	89 45 c9	 mov	 DWORD PTR _kItemData$[ebp+41], eax
  0006e	8a 45 f9	 mov	 al, BYTE PTR _packet_item_set$[ebp+41]
  00071	88 45 cd	 mov	 BYTE PTR _kItemData$[ebp+45], al

; 231  : 	
; 232  : 	rkPlayer.SetItemData(packet_item_set.Cell, kItemData);

  00074	8d 45 a0	 lea	 eax, DWORD PTR _kItemData$[ebp]
  00077	50		 push	 eax
  00078	66 8b 45 d1	 mov	 ax, WORD PTR _packet_item_set$[ebp+1]
  0007c	51		 push	 ecx
  0007d	8b d4		 mov	 edx, esp
  0007f	c7 45 a5 00 00
	00 00		 mov	 DWORD PTR _kItemData$[ebp+5], 0
  00086	0f 11 45 b9	 movups	 XMMWORD PTR _kItemData$[ebp+25], xmm0
  0008a	8b 31		 mov	 esi, DWORD PTR [ecx]
  0008c	66 89 02	 mov	 WORD PTR [edx], ax
  0008f	8a 45 d3	 mov	 al, BYTE PTR _packet_item_set$[ebp+3]
  00092	88 42 02	 mov	 BYTE PTR [edx+2], al
  00095	ff 56 30	 call	 DWORD PTR [esi+48]

; 233  : 	
; 234  : 	__RefreshInventoryWindow();

  00098	8b cf		 mov	 ecx, edi
  0009a	e8 00 00 00 00	 call	 ?__RefreshInventoryWindow@CPythonNetworkStream@@IAEXXZ ; CPythonNetworkStream::__RefreshInventoryWindow

; 235  : 	return true;
; 236  : }

  0009f	8b 4d fc	 mov	 ecx, DWORD PTR __$ArrayPad$[ebp]
  000a2	b0 01		 mov	 al, 1
  000a4	5f		 pop	 edi
  000a5	33 cd		 xor	 ecx, ebp
  000a7	5e		 pop	 esi
  000a8	e8 00 00 00 00	 call	 @__security_check_cookie@4
  000ad	8b e5		 mov	 esp, ebp
  000af	5d		 pop	 ebp
  000b0	c3		 ret	 0
?RecvItemSetPacket@CPythonNetworkStream@@IAE_NXZ ENDP	; CPythonNetworkStream::RecvItemSetPacket
_TEXT	ENDS
; Function compile flags: /Ogtp
; File D:\Metin2 Server Files\mainline\SRC_2014\Metin2Client\UserInterface\PythonNetworkStreamPhaseGameItem.cpp
;	COMDAT ?__PlayMallItemDropSound@CPythonNetworkStream@@IAEXI@Z
_TEXT	SEGMENT
_dwItemID$ = -4						; size = 4
_uSlotPos$ = 8						; size = 4
?__PlayMallItemDropSound@CPythonNetworkStream@@IAEXI@Z PROC ; CPythonNetworkStream::__PlayMallItemDropSound, COMDAT
; _this$ = ecx

; 633  : {

  00000	55		 push	 ebp
  00001	8b ec		 mov	 ebp, esp
  00003	51		 push	 ecx

; 634  : 	DWORD dwItemID;
; 635  : 	CPythonSafeBox& rkSafeBox=CPythonSafeBox::Instance();
; 636  : 	if (!rkSafeBox.GetSlotMallItemID(uSlotPos, &dwItemID))

  00004	8b 0d 00 00 00
	00		 mov	 ecx, DWORD PTR ?ms_singleton@?$CSingleton@VCPythonSafeBox@@@@0PAVCPythonSafeBox@@A ; CSingleton<CPythonSafeBox>::ms_singleton
  0000a	8d 45 fc	 lea	 eax, DWORD PTR _dwItemID$[ebp]
  0000d	50		 push	 eax
  0000e	ff 75 08	 push	 DWORD PTR _uSlotPos$[ebp]
  00011	e8 00 00 00 00	 call	 ?GetSlotMallItemID@CPythonSafeBox@@QAEHKPAK@Z ; CPythonSafeBox::GetSlotMallItemID
  00016	85 c0		 test	 eax, eax
  00018	74 0e		 je	 SHORT $LN1@PlayMallIt

; 637  : 		return;
; 638  : 
; 639  : 	CPythonItem& rkItem=CPythonItem::Instance();
; 640  : 	rkItem.PlayDropSound(dwItemID);

  0001a	ff 75 fc	 push	 DWORD PTR _dwItemID$[ebp]
  0001d	8b 0d 00 00 00
	00		 mov	 ecx, DWORD PTR ?ms_singleton@?$CSingleton@VCPythonItem@@@@0PAVCPythonItem@@A ; CSingleton<CPythonItem>::ms_singleton
  00023	e8 00 00 00 00	 call	 ?PlayDropSound@CPythonItem@@QAEXK@Z ; CPythonItem::PlayDropSound
$LN1@PlayMallIt:

; 641  : }

  00028	8b e5		 mov	 esp, ebp
  0002a	5d		 pop	 ebp
  0002b	c2 04 00	 ret	 4
?__PlayMallItemDropSound@CPythonNetworkStream@@IAEXI@Z ENDP ; CPythonNetworkStream::__PlayMallItemDropSound
_TEXT	ENDS
; Function compile flags: /Ogtp
; File D:\Metin2 Server Files\mainline\SRC_2014\Metin2Client\UserInterface\PythonNetworkStreamPhaseGameItem.cpp
;	COMDAT ?__PlaySafeBoxItemDropSound@CPythonNetworkStream@@IAEXI@Z
_TEXT	SEGMENT
_dwItemID$ = -4						; size = 4
_uSlotPos$ = 8						; size = 4
?__PlaySafeBoxItemDropSound@CPythonNetworkStream@@IAEXI@Z PROC ; CPythonNetworkStream::__PlaySafeBoxItemDropSound, COMDAT
; _this$ = ecx

; 622  : {

  00000	55		 push	 ebp
  00001	8b ec		 mov	 ebp, esp
  00003	51		 push	 ecx

; 623  : 	DWORD dwItemID;
; 624  : 	CPythonSafeBox& rkSafeBox=CPythonSafeBox::Instance();
; 625  : 	if (!rkSafeBox.GetSlotItemID(uSlotPos, &dwItemID))

  00004	8b 0d 00 00 00
	00		 mov	 ecx, DWORD PTR ?ms_singleton@?$CSingleton@VCPythonSafeBox@@@@0PAVCPythonSafeBox@@A ; CSingleton<CPythonSafeBox>::ms_singleton
  0000a	8d 45 fc	 lea	 eax, DWORD PTR _dwItemID$[ebp]
  0000d	50		 push	 eax
  0000e	ff 75 08	 push	 DWORD PTR _uSlotPos$[ebp]
  00011	e8 00 00 00 00	 call	 ?GetSlotItemID@CPythonSafeBox@@QAEHKPAK@Z ; CPythonSafeBox::GetSlotItemID
  00016	85 c0		 test	 eax, eax
  00018	74 0e		 je	 SHORT $LN1@PlaySafeBo

; 626  : 		return;
; 627  : 
; 628  : 	CPythonItem& rkItem=CPythonItem::Instance();
; 629  : 	rkItem.PlayDropSound(dwItemID);

  0001a	ff 75 fc	 push	 DWORD PTR _dwItemID$[ebp]
  0001d	8b 0d 00 00 00
	00		 mov	 ecx, DWORD PTR ?ms_singleton@?$CSingleton@VCPythonItem@@@@0PAVCPythonItem@@A ; CSingleton<CPythonItem>::ms_singleton
  00023	e8 00 00 00 00	 call	 ?PlayDropSound@CPythonItem@@QAEXK@Z ; CPythonItem::PlayDropSound
$LN1@PlaySafeBo:

; 630  : }

  00028	8b e5		 mov	 esp, ebp
  0002a	5d		 pop	 ebp
  0002b	c2 04 00	 ret	 4
?__PlaySafeBoxItemDropSound@CPythonNetworkStream@@IAEXI@Z ENDP ; CPythonNetworkStream::__PlaySafeBoxItemDropSound
_TEXT	ENDS
; Function compile flags: /Ogtp
; File D:\Metin2 Server Files\mainline\SRC_2014\Metin2Client\UserInterface\PythonNetworkStreamPhaseGameItem.cpp
;	COMDAT ?__PlayInventoryItemDropSound@CPythonNetworkStream@@IAEXUSItemPos@@@Z
_TEXT	SEGMENT
_uSlotPos$ = 8						; size = 3
?__PlayInventoryItemDropSound@CPythonNetworkStream@@IAEXUSItemPos@@@Z PROC ; CPythonNetworkStream::__PlayInventoryItemDropSound, COMDAT
; _this$ = ecx

; 602  : {

  00000	55		 push	 ebp
  00001	8b ec		 mov	 ebp, esp

; 603  : 	IAbstractPlayer& rkPlayer=IAbstractPlayer::GetSingleton();

  00003	8b 0d 00 00 00
	00		 mov	 ecx, DWORD PTR ?ms_singleton@?$TAbstractSingleton@VIAbstractPlayer@@@@0PAVIAbstractPlayer@@A ; TAbstractSingleton<IAbstractPlayer>::ms_singleton

; 604  : 	DWORD dwItemID=rkPlayer.GetItemIndex(uSlotPos);

  00009	66 8b 45 08	 mov	 ax, WORD PTR _uSlotPos$[ebp]
  0000d	56		 push	 esi
  0000e	51		 push	 ecx
  0000f	8b 31		 mov	 esi, DWORD PTR [ecx]
  00011	8b d4		 mov	 edx, esp
  00013	66 89 02	 mov	 WORD PTR [edx], ax
  00016	8a 45 0a	 mov	 al, BYTE PTR _uSlotPos$[ebp+2]
  00019	88 42 02	 mov	 BYTE PTR [edx+2], al
  0001c	ff 56 40	 call	 DWORD PTR [esi+64]

; 605  : 
; 606  : 	CPythonItem& rkItem=CPythonItem::Instance();
; 607  : 	rkItem.PlayDropSound(dwItemID);

  0001f	8b 0d 00 00 00
	00		 mov	 ecx, DWORD PTR ?ms_singleton@?$CSingleton@VCPythonItem@@@@0PAVCPythonItem@@A ; CSingleton<CPythonItem>::ms_singleton
  00025	50		 push	 eax
  00026	e8 00 00 00 00	 call	 ?PlayDropSound@CPythonItem@@QAEXK@Z ; CPythonItem::PlayDropSound

; 608  : }

  0002b	5e		 pop	 esi
  0002c	5d		 pop	 ebp
  0002d	c2 04 00	 ret	 4
?__PlayInventoryItemDropSound@CPythonNetworkStream@@IAEXUSItemPos@@@Z ENDP ; CPythonNetworkStream::__PlayInventoryItemDropSound
_TEXT	ENDS
; Function compile flags: /Ogtp
; File D:\Metin2 Server Files\mainline\SRC_2014\Metin2Client\UserInterface\PythonNetworkStreamPhaseGameItem.cpp
;	COMDAT ?__PlayInventoryItemUseSound@CPythonNetworkStream@@IAEXUSItemPos@@@Z
_TEXT	SEGMENT
_uSlotPos$ = 8						; size = 3
?__PlayInventoryItemUseSound@CPythonNetworkStream@@IAEXUSItemPos@@@Z PROC ; CPythonNetworkStream::__PlayInventoryItemUseSound, COMDAT
; _this$ = ecx

; 593  : {

  00000	55		 push	 ebp
  00001	8b ec		 mov	 ebp, esp

; 594  : 	IAbstractPlayer& rkPlayer=IAbstractPlayer::GetSingleton();

  00003	8b 0d 00 00 00
	00		 mov	 ecx, DWORD PTR ?ms_singleton@?$TAbstractSingleton@VIAbstractPlayer@@@@0PAVIAbstractPlayer@@A ; TAbstractSingleton<IAbstractPlayer>::ms_singleton

; 595  : 	DWORD dwItemID=rkPlayer.GetItemIndex(uSlotPos);

  00009	66 8b 45 08	 mov	 ax, WORD PTR _uSlotPos$[ebp]
  0000d	56		 push	 esi
  0000e	51		 push	 ecx
  0000f	8b 31		 mov	 esi, DWORD PTR [ecx]
  00011	8b d4		 mov	 edx, esp
  00013	66 89 02	 mov	 WORD PTR [edx], ax
  00016	8a 45 0a	 mov	 al, BYTE PTR _uSlotPos$[ebp+2]
  00019	88 42 02	 mov	 BYTE PTR [edx+2], al
  0001c	ff 56 40	 call	 DWORD PTR [esi+64]

; 596  : 
; 597  : 	CPythonItem& rkItem=CPythonItem::Instance();
; 598  : 	rkItem.PlayUseSound(dwItemID);

  0001f	8b 0d 00 00 00
	00		 mov	 ecx, DWORD PTR ?ms_singleton@?$CSingleton@VCPythonItem@@@@0PAVCPythonItem@@A ; CSingleton<CPythonItem>::ms_singleton
  00025	50		 push	 eax
  00026	e8 00 00 00 00	 call	 ?PlayUseSound@CPythonItem@@QAEXK@Z ; CPythonItem::PlayUseSound

; 599  : }

  0002b	5e		 pop	 esi
  0002c	5d		 pop	 ebp
  0002d	c2 04 00	 ret	 4
?__PlayInventoryItemUseSound@CPythonNetworkStream@@IAEXUSItemPos@@@Z ENDP ; CPythonNetworkStream::__PlayInventoryItemUseSound
_TEXT	ENDS
; Function compile flags: /Ogtp
; File D:\Metin2 Server Files\mainline\SRC_2014\Metin2Client\UserInterface\PythonNetworkStreamPhaseGameItem.cpp
;	COMDAT ?RecvMallItemDelPacket@CPythonNetworkStream@@QAE_NXZ
_TEXT	SEGMENT
_kItemDel$ = -4						; size = 2
?RecvMallItemDelPacket@CPythonNetworkStream@@QAE_NXZ PROC ; CPythonNetworkStream::RecvMallItemDelPacket, COMDAT
; _this$ = ecx

; 197  : {

  00000	55		 push	 ebp
  00001	8b ec		 mov	 ebp, esp
  00003	51		 push	 ecx
  00004	56		 push	 esi

; 198  : 	TPacketGCItemDel kItemDel;
; 199  : 	if (!Recv(sizeof(kItemDel), &kItemDel))

  00005	8d 45 fc	 lea	 eax, DWORD PTR _kItemDel$[ebp]
  00008	8b f1		 mov	 esi, ecx
  0000a	50		 push	 eax
  0000b	6a 02		 push	 2
  0000d	e8 00 00 00 00	 call	 ?Recv@CNetworkStream@@QAE_NHPAX@Z ; CNetworkStream::Recv
  00012	84 c0		 test	 al, al
  00014	75 05		 jne	 SHORT $LN2@RecvMallIt
  00016	5e		 pop	 esi

; 208  : }

  00017	8b e5		 mov	 esp, ebp
  00019	5d		 pop	 ebp
  0001a	c3		 ret	 0
$LN2@RecvMallIt:

; 200  : 		return false;
; 201  : 
; 202  : 	CPythonSafeBox::Instance().DelMallItemData(kItemDel.pos);

  0001b	0f b6 45 fd	 movzx	 eax, BYTE PTR _kItemDel$[ebp+1]
  0001f	8b 0d 00 00 00
	00		 mov	 ecx, DWORD PTR ?ms_singleton@?$CSingleton@VCPythonSafeBox@@@@0PAVCPythonSafeBox@@A ; CSingleton<CPythonSafeBox>::ms_singleton
  00025	50		 push	 eax
  00026	e8 00 00 00 00	 call	 ?DelMallItemData@CPythonSafeBox@@QAEXK@Z ; CPythonSafeBox::DelMallItemData

; 203  : 
; 204  : 	__RefreshMallWindow();

  0002b	8b ce		 mov	 ecx, esi
  0002d	e8 00 00 00 00	 call	 ?__RefreshMallWindow@CPythonNetworkStream@@IAEXXZ ; CPythonNetworkStream::__RefreshMallWindow

; 205  : 	Tracef(" >> CPythonNetworkStream::RecvMallItemDelPacket\n");

  00032	68 00 00 00 00	 push	 OFFSET ??_C@_0DB@JMGJIAKF@?5?$DO?$DO?5CPythonNetworkStream?3?3RecvM@
  00037	e8 00 00 00 00	 call	 ?Tracef@@YAXPBDZZ	; Tracef
  0003c	83 c4 04	 add	 esp, 4

; 206  : 
; 207  : 	return true;

  0003f	b0 01		 mov	 al, 1
  00041	5e		 pop	 esi

; 208  : }

  00042	8b e5		 mov	 esp, ebp
  00044	5d		 pop	 ebp
  00045	c3		 ret	 0
?RecvMallItemDelPacket@CPythonNetworkStream@@QAE_NXZ ENDP ; CPythonNetworkStream::RecvMallItemDelPacket
_TEXT	ENDS
; Function compile flags: /Ogtp
; File D:\Metin2 Server Files\mainline\SRC_2014\Metin2Client\UserInterface\PythonNetworkStreamPhaseGameItem.cpp
; File D:\Metin2 Server Files\mainline\SRC_2014\Metin2Client\UserInterface\GameType.h
; File D:\Metin2 Server Files\mainline\SRC_2014\Metin2Client\UserInterface\PythonNetworkStreamPhaseGameItem.cpp
; File D:\Metin2 Server Files\mainline\SRC_2014\Metin2Client\UserInterface\GameType.h
; File D:\Metin2 Server Files\mainline\SRC_2014\Metin2Client\UserInterface\PythonNetworkStreamPhaseGameItem.cpp
;	COMDAT ?RecvMallItemSetPacket@CPythonNetworkStream@@QAE_NXZ
_TEXT	SEGMENT
_kItemData$ = -104					; size = 46
_kItemSet$ = -56					; size = 51
__$ArrayPad$ = -4					; size = 4
?RecvMallItemSetPacket@CPythonNetworkStream@@QAE_NXZ PROC ; CPythonNetworkStream::RecvMallItemSetPacket, COMDAT
; _this$ = ecx

; 175  : {

  00000	55		 push	 ebp
  00001	8b ec		 mov	 ebp, esp
  00003	83 ec 68	 sub	 esp, 104		; 00000068H
  00006	a1 00 00 00 00	 mov	 eax, DWORD PTR ___security_cookie
  0000b	33 c5		 xor	 eax, ebp
  0000d	89 45 fc	 mov	 DWORD PTR __$ArrayPad$[ebp], eax
; File D:\Metin2 Server Files\mainline\SRC_2014\Metin2Client\UserInterface\GameType.h

; 187  : 		cell = WORD_MAX;

  00010	b8 ff ff 00 00	 mov	 eax, 65535		; 0000ffffH
  00015	c6 45 c9 01	 mov	 BYTE PTR _kItemSet$[ebp+1], 1
; File D:\Metin2 Server Files\mainline\SRC_2014\Metin2Client\UserInterface\PythonNetworkStreamPhaseGameItem.cpp

; 175  : {

  00019	56		 push	 esi
; File D:\Metin2 Server Files\mainline\SRC_2014\Metin2Client\UserInterface\GameType.h

; 187  : 		cell = WORD_MAX;

  0001a	66 89 45 ca	 mov	 WORD PTR _kItemSet$[ebp+2], ax
; File D:\Metin2 Server Files\mainline\SRC_2014\Metin2Client\UserInterface\PythonNetworkStreamPhaseGameItem.cpp

; 175  : {

  0001e	8b f1		 mov	 esi, ecx

; 176  : 	TPacketGCItemSet2 kItemSet;
; 177  : 	if (!Recv(sizeof(kItemSet), &kItemSet))

  00020	8d 45 c8	 lea	 eax, DWORD PTR _kItemSet$[ebp]
  00023	50		 push	 eax
  00024	6a 33		 push	 51			; 00000033H
  00026	e8 00 00 00 00	 call	 ?Recv@CNetworkStream@@QAE_NHPAX@Z ; CNetworkStream::Recv
  0002b	84 c0		 test	 al, al
  0002d	75 0f		 jne	 SHORT $LN8@RecvMallIt
  0002f	5e		 pop	 esi

; 193  : 
; 194  : 	return true;
; 195  : }

  00030	8b 4d fc	 mov	 ecx, DWORD PTR __$ArrayPad$[ebp]
  00033	33 cd		 xor	 ecx, ebp
  00035	e8 00 00 00 00	 call	 @__security_check_cookie@4
  0003a	8b e5		 mov	 esp, ebp
  0003c	5d		 pop	 ebp
  0003d	c3		 ret	 0
$LN8@RecvMallIt:

; 178  : 		return false;
; 179  : 
; 180  : 	TItemData kItemData;
; 181  : 	kItemData.vnum = kItemSet.vnum;

  0003e	8b 45 cc	 mov	 eax, DWORD PTR _kItemSet$[ebp+4]
  00041	0f 10 45 e6	 movups	 xmm0, XMMWORD PTR _kItemSet$[ebp+30]
  00045	89 45 98	 mov	 DWORD PTR _kItemData$[ebp], eax

; 182  : 	kItemData.count = kItemSet.count;

  00048	8a 45 d0	 mov	 al, BYTE PTR _kItemSet$[ebp+8]

; 183  : 	kItemData.flags = kItemSet.flags;
; 184  : 	kItemData.anti_flags = kItemSet.anti_flags;
; 185  : 	for (int isocket=0; isocket<ITEM_SOCKET_SLOT_MAX_NUM; ++isocket)
; 186  : 		kItemData.alSockets[isocket] = kItemSet.alSockets[isocket];
; 187  : 	for (int iattr=0; iattr<ITEM_ATTRIBUTE_SLOT_MAX_NUM; ++iattr)
; 188  : 		kItemData.aAttr[iattr] = kItemSet.aAttr[iattr];
; 189  : 
; 190  : 	CPythonSafeBox::Instance().SetMallItemData(kItemSet.Cell.cell, kItemData);

  0004b	8b 0d 00 00 00
	00		 mov	 ecx, DWORD PTR ?ms_singleton@?$CSingleton@VCPythonSafeBox@@@@0PAVCPythonSafeBox@@A ; CSingleton<CPythonSafeBox>::ms_singleton
  00051	88 45 9c	 mov	 BYTE PTR _kItemData$[ebp+4], al
  00054	8b 45 d1	 mov	 eax, DWORD PTR _kItemSet$[ebp+9]
  00057	89 45 9d	 mov	 DWORD PTR _kItemData$[ebp+5], eax
  0005a	8b 45 d5	 mov	 eax, DWORD PTR _kItemSet$[ebp+13]
  0005d	89 45 a1	 mov	 DWORD PTR _kItemData$[ebp+9], eax
  00060	8b 45 da	 mov	 eax, DWORD PTR _kItemSet$[ebp+18]
  00063	89 45 a5	 mov	 DWORD PTR _kItemData$[ebp+13], eax
  00066	8b 45 de	 mov	 eax, DWORD PTR _kItemSet$[ebp+22]
  00069	89 45 a9	 mov	 DWORD PTR _kItemData$[ebp+17], eax
  0006c	8b 45 e2	 mov	 eax, DWORD PTR _kItemSet$[ebp+26]
  0006f	89 45 ad	 mov	 DWORD PTR _kItemData$[ebp+21], eax
  00072	8b 45 f6	 mov	 eax, DWORD PTR _kItemSet$[ebp+46]
  00075	89 45 c1	 mov	 DWORD PTR _kItemData$[ebp+41], eax
  00078	8a 45 fa	 mov	 al, BYTE PTR _kItemSet$[ebp+50]
  0007b	88 45 c5	 mov	 BYTE PTR _kItemData$[ebp+45], al
  0007e	8d 45 98	 lea	 eax, DWORD PTR _kItemData$[ebp]
  00081	50		 push	 eax
  00082	0f b7 45 ca	 movzx	 eax, WORD PTR _kItemSet$[ebp+2]
  00086	50		 push	 eax
  00087	0f 11 45 b1	 movups	 XMMWORD PTR _kItemData$[ebp+25], xmm0
  0008b	e8 00 00 00 00	 call	 ?SetMallItemData@CPythonSafeBox@@QAEXKABUpacket_item@@@Z ; CPythonSafeBox::SetMallItemData

; 191  : 
; 192  : 	__RefreshMallWindow();

  00090	8b ce		 mov	 ecx, esi
  00092	e8 00 00 00 00	 call	 ?__RefreshMallWindow@CPythonNetworkStream@@IAEXXZ ; CPythonNetworkStream::__RefreshMallWindow

; 193  : 
; 194  : 	return true;
; 195  : }

  00097	8b 4d fc	 mov	 ecx, DWORD PTR __$ArrayPad$[ebp]
  0009a	b0 01		 mov	 al, 1
  0009c	33 cd		 xor	 ecx, ebp
  0009e	5e		 pop	 esi
  0009f	e8 00 00 00 00	 call	 @__security_check_cookie@4
  000a4	8b e5		 mov	 esp, ebp
  000a6	5d		 pop	 ebp
  000a7	c3		 ret	 0
?RecvMallItemSetPacket@CPythonNetworkStream@@QAE_NXZ ENDP ; CPythonNetworkStream::RecvMallItemSetPacket
_TEXT	ENDS
; Function compile flags: /Ogtp
; File D:\Metin2 Server Files\mainline\SRC_2014\Metin2Client\UserInterface\PythonNetworkStreamPhaseGameItem.cpp
;	COMDAT ?RecvMallOpenPacket@CPythonNetworkStream@@QAE_NXZ
_TEXT	SEGMENT
_kMallOpen$ = -4					; size = 2
?RecvMallOpenPacket@CPythonNetworkStream@@QAE_NXZ PROC	; CPythonNetworkStream::RecvMallOpenPacket, COMDAT
; _this$ = ecx

; 164  : {

  00000	55		 push	 ebp
  00001	8b ec		 mov	 ebp, esp
  00003	51		 push	 ecx
  00004	56		 push	 esi

; 165  : 	TPacketGCMallOpen kMallOpen;
; 166  : 	if (!Recv(sizeof(kMallOpen), &kMallOpen))

  00005	8d 45 fc	 lea	 eax, DWORD PTR _kMallOpen$[ebp]
  00008	8b f1		 mov	 esi, ecx
  0000a	50		 push	 eax
  0000b	6a 02		 push	 2
  0000d	e8 00 00 00 00	 call	 ?Recv@CNetworkStream@@QAE_NHPAX@Z ; CNetworkStream::Recv
  00012	84 c0		 test	 al, al
  00014	75 05		 jne	 SHORT $LN2@RecvMallOp
  00016	5e		 pop	 esi

; 173  : }

  00017	8b e5		 mov	 esp, ebp
  00019	5d		 pop	 ebp
  0001a	c3		 ret	 0
$LN2@RecvMallOp:

; 167  : 		return false;
; 168  : 
; 169  : 	CPythonSafeBox::Instance().OpenMall(kMallOpen.bSize);

  0001b	0f b6 45 fd	 movzx	 eax, BYTE PTR _kMallOpen$[ebp+1]
  0001f	8b 0d 00 00 00
	00		 mov	 ecx, DWORD PTR ?ms_singleton@?$CSingleton@VCPythonSafeBox@@@@0PAVCPythonSafeBox@@A ; CSingleton<CPythonSafeBox>::ms_singleton
  00025	50		 push	 eax
  00026	e8 00 00 00 00	 call	 ?OpenMall@CPythonSafeBox@@QAEXH@Z ; CPythonSafeBox::OpenMall

; 170  : 	PyCallClassMemberFunc(m_apoPhaseWnd[PHASE_WINDOW_GAME], "OpenMallWindow", Py_BuildValue("(i)", kMallOpen.bSize));

  0002b	0f b6 45 fd	 movzx	 eax, BYTE PTR _kMallOpen$[ebp+1]
  0002f	50		 push	 eax
  00030	68 00 00 00 00	 push	 OFFSET ??_C@_03LIHNMIHG@?$CIi?$CJ@
  00035	ff 15 00 00 00
	00		 call	 DWORD PTR __imp__Py_BuildValue
  0003b	50		 push	 eax
  0003c	68 00 00 00 00	 push	 OFFSET ??_C@_0P@OIFPJOPL@OpenMallWindow@
  00041	ff b6 90 01 00
	00		 push	 DWORD PTR [esi+400]
  00047	e8 00 00 00 00	 call	 ?PyCallClassMemberFunc@@YA_NPAU_object@@PBD0@Z ; PyCallClassMemberFunc
  0004c	83 c4 14	 add	 esp, 20			; 00000014H

; 171  : 
; 172  : 	return true;

  0004f	b0 01		 mov	 al, 1
  00051	5e		 pop	 esi

; 173  : }

  00052	8b e5		 mov	 esp, ebp
  00054	5d		 pop	 ebp
  00055	c3		 ret	 0
?RecvMallOpenPacket@CPythonNetworkStream@@QAE_NXZ ENDP	; CPythonNetworkStream::RecvMallOpenPacket
_TEXT	ENDS
; Function compile flags: /Ogtp
; File D:\Metin2 Server Files\mainline\SRC_2014\Metin2Client\UserInterface\PythonNetworkStreamPhaseGameItem.cpp
;	COMDAT ?SendMallCheckoutPacket@CPythonNetworkStream@@QAE_NEUSItemPos@@@Z
_TEXT	SEGMENT
_kMallCheckoutPacket$ = -8				; size = 5
_byMallPos$ = 8						; size = 1
_InventoryPos$ = 12					; size = 3
?SendMallCheckoutPacket@CPythonNetworkStream@@QAE_NEUSItemPos@@@Z PROC ; CPythonNetworkStream::SendMallCheckoutPacket, COMDAT
; _this$ = ecx

; 150  : {

  00000	55		 push	 ebp
  00001	8b ec		 mov	 ebp, esp
  00003	83 ec 08	 sub	 esp, 8
  00006	53		 push	 ebx

; 151  : 	__PlayMallItemDropSound(byMallPos);

  00007	8a 5d 08	 mov	 bl, BYTE PTR _byMallPos$[ebp]
  0000a	56		 push	 esi
  0000b	0f b6 c3	 movzx	 eax, bl
  0000e	8b f1		 mov	 esi, ecx
  00010	50		 push	 eax
  00011	e8 00 00 00 00	 call	 ?__PlayMallItemDropSound@CPythonNetworkStream@@IAEXI@Z ; CPythonNetworkStream::__PlayMallItemDropSound

; 152  : 
; 153  : 	TPacketCGMallCheckout kMallCheckoutPacket;
; 154  : 	kMallCheckoutPacket.bHeader = HEADER_CG_MALL_CHECKOUT;
; 155  : 	kMallCheckoutPacket.bMallPos = byMallPos;
; 156  : 	kMallCheckoutPacket.ItemPos = InventoryPos;

  00016	66 8b 45 0c	 mov	 ax, WORD PTR _InventoryPos$[ebp]

; 157  : 	if (!Send(sizeof(kMallCheckoutPacket), &kMallCheckoutPacket))

  0001a	8b ce		 mov	 ecx, esi
  0001c	66 89 45 fa	 mov	 WORD PTR _kMallCheckoutPacket$[ebp+2], ax
  00020	8a 45 0e	 mov	 al, BYTE PTR _InventoryPos$[ebp+2]
  00023	88 45 fc	 mov	 BYTE PTR _kMallCheckoutPacket$[ebp+4], al
  00026	8d 45 f8	 lea	 eax, DWORD PTR _kMallCheckoutPacket$[ebp]
  00029	50		 push	 eax
  0002a	6a 05		 push	 5
  0002c	c6 45 f8 45	 mov	 BYTE PTR _kMallCheckoutPacket$[ebp], 69 ; 00000045H
  00030	88 5d f9	 mov	 BYTE PTR _kMallCheckoutPacket$[ebp+1], bl
  00033	e8 00 00 00 00	 call	 ?Send@CNetworkStream@@QAE_NHPBX@Z ; CNetworkStream::Send
  00038	84 c0		 test	 al, al
  0003a	75 08		 jne	 SHORT $LN2@SendMallCh

; 161  : }

  0003c	5e		 pop	 esi
  0003d	5b		 pop	 ebx
  0003e	8b e5		 mov	 esp, ebp
  00040	5d		 pop	 ebp
  00041	c2 08 00	 ret	 8
$LN2@SendMallCh:

; 158  : 		return false;
; 159  : 
; 160  : 	return SendSequence();

  00044	8b ce		 mov	 ecx, esi
  00046	e8 00 00 00 00	 call	 ?SendSequence@CNetworkStream@@QAE_NXZ ; CNetworkStream::SendSequence
  0004b	5e		 pop	 esi

; 161  : }

  0004c	5b		 pop	 ebx
  0004d	8b e5		 mov	 esp, ebp
  0004f	5d		 pop	 ebp
  00050	c2 08 00	 ret	 8
?SendMallCheckoutPacket@CPythonNetworkStream@@QAE_NEUSItemPos@@@Z ENDP ; CPythonNetworkStream::SendMallCheckoutPacket
_TEXT	ENDS
; Function compile flags: /Ogtp
; File D:\Metin2 Server Files\mainline\SRC_2014\Metin2Client\UserInterface\PythonNetworkStreamPhaseGameItem.cpp
;	COMDAT ?SendSafeBoxItemMovePacket@CPythonNetworkStream@@QAE_NEEE@Z
_TEXT	SEGMENT
_kItemMove$ = -8					; size = 8
_bySourcePos$ = 8					; size = 1
_byTargetPos$ = 12					; size = 1
_byCount$ = 16						; size = 1
?SendSafeBoxItemMovePacket@CPythonNetworkStream@@QAE_NEEE@Z PROC ; CPythonNetworkStream::SendSafeBoxItemMovePacket, COMDAT
; _this$ = ecx

; 58   : {

  00000	55		 push	 ebp
  00001	8b ec		 mov	 ebp, esp
  00003	83 ec 08	 sub	 esp, 8

; 59   : 	__PlaySafeBoxItemDropSound(bySourcePos);

  00006	0f b6 45 08	 movzx	 eax, BYTE PTR _bySourcePos$[ebp]
  0000a	53		 push	 ebx
  0000b	56		 push	 esi
  0000c	50		 push	 eax
  0000d	8b f1		 mov	 esi, ecx
  0000f	e8 00 00 00 00	 call	 ?__PlaySafeBoxItemDropSound@CPythonNetworkStream@@IAEXI@Z ; CPythonNetworkStream::__PlaySafeBoxItemDropSound

; 60   : 
; 61   : 	TPacketCGItemMove kItemMove;
; 62   : 	kItemMove.header = HEADER_CG_SAFEBOX_ITEM_MOVE;
; 63   : 	kItemMove.pos = TItemPos(INVENTORY, bySourcePos);

  00014	0f b6 45 08	 movzx	 eax, BYTE PTR _bySourcePos$[ebp]

; 64   : 	kItemMove.num = byCount;
; 65   : 	kItemMove.change_pos = TItemPos(INVENTORY, byTargetPos);
; 66   : 	if (!Send(sizeof(kItemMove), &kItemMove))

  00018	8b ce		 mov	 ecx, esi
  0001a	66 89 45 fa	 mov	 WORD PTR _kItemMove$[ebp+2], ax
  0001e	8a 45 10	 mov	 al, BYTE PTR _byCount$[ebp]
  00021	88 45 ff	 mov	 BYTE PTR _kItemMove$[ebp+7], al
  00024	0f b6 45 0c	 movzx	 eax, BYTE PTR _byTargetPos$[ebp]
  00028	66 89 45 fd	 mov	 WORD PTR _kItemMove$[ebp+5], ax
  0002c	8d 45 f8	 lea	 eax, DWORD PTR _kItemMove$[ebp]
  0002f	50		 push	 eax
  00030	6a 08		 push	 8
  00032	66 c7 45 f8 4d
	01		 mov	 WORD PTR _kItemMove$[ebp], 333 ; 0000014dH
  00038	c6 45 fc 01	 mov	 BYTE PTR _kItemMove$[ebp+4], 1
  0003c	e8 00 00 00 00	 call	 ?Send@CNetworkStream@@QAE_NHPBX@Z ; CNetworkStream::Send
  00041	84 c0		 test	 al, al
  00043	75 08		 jne	 SHORT $LN2@SendSafeBo

; 70   : }

  00045	5e		 pop	 esi
  00046	5b		 pop	 ebx
  00047	8b e5		 mov	 esp, ebp
  00049	5d		 pop	 ebp
  0004a	c2 0c 00	 ret	 12			; 0000000cH
$LN2@SendSafeBo:

; 67   : 		return false;
; 68   : 
; 69   : 	return SendSequence();

  0004d	8b ce		 mov	 ecx, esi
  0004f	e8 00 00 00 00	 call	 ?SendSequence@CNetworkStream@@QAE_NXZ ; CNetworkStream::SendSequence
  00054	5e		 pop	 esi

; 70   : }

  00055	5b		 pop	 ebx
  00056	8b e5		 mov	 esp, ebp
  00058	5d		 pop	 ebp
  00059	c2 0c 00	 ret	 12			; 0000000cH
?SendSafeBoxItemMovePacket@CPythonNetworkStream@@QAE_NEEE@Z ENDP ; CPythonNetworkStream::SendSafeBoxItemMovePacket
_TEXT	ENDS
; Function compile flags: /Ogtp
; File D:\Metin2 Server Files\mainline\SRC_2014\Metin2Client\UserInterface\PythonNetworkStreamPhaseGameItem.cpp
;	COMDAT ?SendSafeBoxCheckoutPacket@CPythonNetworkStream@@QAE_NEUSItemPos@@@Z
_TEXT	SEGMENT
_kSafeboxCheckout$ = -8					; size = 5
_bySafeBoxPos$ = 8					; size = 1
_InventoryPos$ = 12					; size = 3
?SendSafeBoxCheckoutPacket@CPythonNetworkStream@@QAE_NEUSItemPos@@@Z PROC ; CPythonNetworkStream::SendSafeBoxCheckoutPacket, COMDAT
; _this$ = ecx

; 44   : {

  00000	55		 push	 ebp
  00001	8b ec		 mov	 ebp, esp
  00003	83 ec 08	 sub	 esp, 8
  00006	53		 push	 ebx

; 45   : 	__PlaySafeBoxItemDropSound(bySafeBoxPos);

  00007	8a 5d 08	 mov	 bl, BYTE PTR _bySafeBoxPos$[ebp]
  0000a	56		 push	 esi
  0000b	0f b6 c3	 movzx	 eax, bl
  0000e	8b f1		 mov	 esi, ecx
  00010	50		 push	 eax
  00011	e8 00 00 00 00	 call	 ?__PlaySafeBoxItemDropSound@CPythonNetworkStream@@IAEXI@Z ; CPythonNetworkStream::__PlaySafeBoxItemDropSound

; 46   : 
; 47   : 	TPacketCGSafeboxCheckout kSafeboxCheckout;
; 48   : 	kSafeboxCheckout.bHeader = HEADER_CG_SAFEBOX_CHECKOUT;
; 49   : 	kSafeboxCheckout.bSafePos = bySafeBoxPos;
; 50   : 	kSafeboxCheckout.ItemPos = InventoryPos;

  00016	66 8b 45 0c	 mov	 ax, WORD PTR _InventoryPos$[ebp]

; 51   : 	if (!Send(sizeof(kSafeboxCheckout), &kSafeboxCheckout))

  0001a	8b ce		 mov	 ecx, esi
  0001c	66 89 45 fa	 mov	 WORD PTR _kSafeboxCheckout$[ebp+2], ax
  00020	8a 45 0e	 mov	 al, BYTE PTR _InventoryPos$[ebp+2]
  00023	88 45 fc	 mov	 BYTE PTR _kSafeboxCheckout$[ebp+4], al
  00026	8d 45 f8	 lea	 eax, DWORD PTR _kSafeboxCheckout$[ebp]
  00029	50		 push	 eax
  0002a	6a 05		 push	 5
  0002c	c6 45 f8 47	 mov	 BYTE PTR _kSafeboxCheckout$[ebp], 71 ; 00000047H
  00030	88 5d f9	 mov	 BYTE PTR _kSafeboxCheckout$[ebp+1], bl
  00033	e8 00 00 00 00	 call	 ?Send@CNetworkStream@@QAE_NHPBX@Z ; CNetworkStream::Send
  00038	84 c0		 test	 al, al
  0003a	75 08		 jne	 SHORT $LN2@SendSafeBo

; 55   : }

  0003c	5e		 pop	 esi
  0003d	5b		 pop	 ebx
  0003e	8b e5		 mov	 esp, ebp
  00040	5d		 pop	 ebp
  00041	c2 08 00	 ret	 8
$LN2@SendSafeBo:

; 52   : 		return false;
; 53   : 
; 54   : 	return SendSequence();

  00044	8b ce		 mov	 ecx, esi
  00046	e8 00 00 00 00	 call	 ?SendSequence@CNetworkStream@@QAE_NXZ ; CNetworkStream::SendSequence
  0004b	5e		 pop	 esi

; 55   : }

  0004c	5b		 pop	 ebx
  0004d	8b e5		 mov	 esp, ebp
  0004f	5d		 pop	 ebp
  00050	c2 08 00	 ret	 8
?SendSafeBoxCheckoutPacket@CPythonNetworkStream@@QAE_NEUSItemPos@@@Z ENDP ; CPythonNetworkStream::SendSafeBoxCheckoutPacket
_TEXT	ENDS
; Function compile flags: /Ogtp
; File D:\Metin2 Server Files\mainline\SRC_2014\Metin2Client\UserInterface\PythonNetworkStreamPhaseGameItem.cpp
;	COMDAT ?SendSafeBoxCheckinPacket@CPythonNetworkStream@@QAE_NUSItemPos@@E@Z
_TEXT	SEGMENT
_kSafeboxCheckin$ = -8					; size = 5
_InventoryPos$ = 8					; size = 3
_bySafeBoxPos$ = 12					; size = 1
?SendSafeBoxCheckinPacket@CPythonNetworkStream@@QAE_NUSItemPos@@E@Z PROC ; CPythonNetworkStream::SendSafeBoxCheckinPacket, COMDAT
; _this$ = ecx

; 30   : {

  00000	55		 push	 ebp
  00001	8b ec		 mov	 ebp, esp
  00003	83 ec 08	 sub	 esp, 8

; 31   : 	__PlayInventoryItemDropSound(InventoryPos);

  00006	66 8b 45 08	 mov	 ax, WORD PTR _InventoryPos$[ebp]
  0000a	56		 push	 esi
  0000b	51		 push	 ecx
  0000c	8b d4		 mov	 edx, esp
  0000e	8b f1		 mov	 esi, ecx
  00010	66 89 02	 mov	 WORD PTR [edx], ax
  00013	8a 45 0a	 mov	 al, BYTE PTR _InventoryPos$[ebp+2]
  00016	88 42 02	 mov	 BYTE PTR [edx+2], al
  00019	e8 00 00 00 00	 call	 ?__PlayInventoryItemDropSound@CPythonNetworkStream@@IAEXUSItemPos@@@Z ; CPythonNetworkStream::__PlayInventoryItemDropSound

; 32   : 
; 33   : 	TPacketCGSafeboxCheckin kSafeboxCheckin;
; 34   : 	kSafeboxCheckin.bHeader = HEADER_CG_SAFEBOX_CHECKIN;
; 35   : 	kSafeboxCheckin.ItemPos = InventoryPos;

  0001e	66 8b 45 08	 mov	 ax, WORD PTR _InventoryPos$[ebp]

; 36   : 	kSafeboxCheckin.bSafePos = bySafeBoxPos;
; 37   : 	if (!Send(sizeof(kSafeboxCheckin), &kSafeboxCheckin))

  00022	8b ce		 mov	 ecx, esi
  00024	66 89 45 fa	 mov	 WORD PTR _kSafeboxCheckin$[ebp+2], ax
  00028	8a 45 0a	 mov	 al, BYTE PTR _InventoryPos$[ebp+2]
  0002b	88 45 fc	 mov	 BYTE PTR _kSafeboxCheckin$[ebp+4], al
  0002e	8a 45 0c	 mov	 al, BYTE PTR _bySafeBoxPos$[ebp]
  00031	88 45 f9	 mov	 BYTE PTR _kSafeboxCheckin$[ebp+1], al
  00034	8d 45 f8	 lea	 eax, DWORD PTR _kSafeboxCheckin$[ebp]
  00037	50		 push	 eax
  00038	6a 05		 push	 5
  0003a	c6 45 f8 46	 mov	 BYTE PTR _kSafeboxCheckin$[ebp], 70 ; 00000046H
  0003e	e8 00 00 00 00	 call	 ?Send@CNetworkStream@@QAE_NHPBX@Z ; CNetworkStream::Send
  00043	84 c0		 test	 al, al
  00045	75 07		 jne	 SHORT $LN2@SendSafeBo

; 41   : }

  00047	5e		 pop	 esi
  00048	8b e5		 mov	 esp, ebp
  0004a	5d		 pop	 ebp
  0004b	c2 08 00	 ret	 8
$LN2@SendSafeBo:

; 38   : 		return false;
; 39   : 
; 40   : 	return SendSequence();

  0004e	8b ce		 mov	 ecx, esi
  00050	e8 00 00 00 00	 call	 ?SendSequence@CNetworkStream@@QAE_NXZ ; CNetworkStream::SendSequence

; 41   : }

  00055	5e		 pop	 esi
  00056	8b e5		 mov	 esp, ebp
  00058	5d		 pop	 ebp
  00059	c2 08 00	 ret	 8
?SendSafeBoxCheckinPacket@CPythonNetworkStream@@QAE_NUSItemPos@@E@Z ENDP ; CPythonNetworkStream::SendSafeBoxCheckinPacket
_TEXT	ENDS
; Function compile flags: /Ogtp
; File D:\Metin2 Server Files\mainline\SRC_2014\Metin2Client\UserInterface\PythonNetworkStreamPhaseGameItem.cpp
;	COMDAT ?SendSafeBoxMoneyPacket@CPythonNetworkStream@@QAE_NEK@Z
_TEXT	SEGMENT
_byState$ = 8						; size = 1
_dwMoney$ = 12						; size = 4
?SendSafeBoxMoneyPacket@CPythonNetworkStream@@QAE_NEK@Z PROC ; CPythonNetworkStream::SendSafeBoxMoneyPacket, COMDAT
; _this$ = ecx

; 16   : 	assert(!"CPythonNetworkStream::SendSafeBoxMoneyPacket -   ");
; 17   : 	return false;

  00000	32 c0		 xor	 al, al

; 18   : 
; 19   : //	TPacketCGSafeboxMoney kSafeboxMoney;
; 20   : //	kSafeboxMoney.bHeader = HEADER_CG_SAFEBOX_MONEY;
; 21   : //	kSafeboxMoney.bState = byState;
; 22   : //	kSafeboxMoney.dwMoney = dwMoney;
; 23   : //	if (!Send(sizeof(kSafeboxMoney), &kSafeboxMoney))
; 24   : //		return false;
; 25   : //
; 26   : //	return SendSequence();
; 27   : }

  00002	c2 08 00	 ret	 8
?SendSafeBoxMoneyPacket@CPythonNetworkStream@@QAE_NEK@Z ENDP ; CPythonNetworkStream::SendSafeBoxMoneyPacket
_TEXT	ENDS
; Function compile flags: /Ogtp
; File D:\Metin2 Server Files\mainline\SRC_2014\Metin2Client\UserInterface\PythonNetworkStreamPhaseGameItem.cpp
;	COMDAT ?SendShopSellPacketNew@CPythonNetworkStream@@QAE_NEE@Z
_TEXT	SEGMENT
_PacketShop$ = -4					; size = 2
_bySlot$ = 8						; size = 1
_byCount$ = 12						; size = 1
?SendShopSellPacketNew@CPythonNetworkStream@@QAE_NEE@Z PROC ; CPythonNetworkStream::SendShopSellPacketNew, COMDAT
; _this$ = ecx

; 456  : {

  00000	55		 push	 ebp
  00001	8b ec		 mov	 ebp, esp
  00003	51		 push	 ecx
  00004	56		 push	 esi
  00005	8b f1		 mov	 esi, ecx

; 457  : 	if (!__CanActMainInstance())

  00007	e8 00 00 00 00	 call	 ?__CanActMainInstance@CPythonNetworkStream@@IAE_NXZ ; CPythonNetworkStream::__CanActMainInstance
  0000c	84 c0		 test	 al, al
  0000e	75 09		 jne	 SHORT $LN2@SendShopSe

; 458  : 		return true;

  00010	b0 01		 mov	 al, 1
  00012	5e		 pop	 esi

; 483  : }

  00013	8b e5		 mov	 esp, ebp
  00015	5d		 pop	 ebp
  00016	c2 08 00	 ret	 8
$LN2@SendShopSe:

; 459  : 
; 460  : 	TPacketCGShop PacketShop;
; 461  : 	PacketShop.header = HEADER_CG_SHOP;
; 462  : 	PacketShop.subheader = SHOP_SUBHEADER_CG_SELL2;
; 463  : 
; 464  : 	if (!Send(sizeof(TPacketCGShop), &PacketShop))

  00019	8d 45 fc	 lea	 eax, DWORD PTR _PacketShop$[ebp]
  0001c	66 c7 45 fc 32
	03		 mov	 WORD PTR _PacketShop$[ebp], 818 ; 00000332H
  00022	50		 push	 eax
  00023	6a 02		 push	 2
  00025	8b ce		 mov	 ecx, esi
  00027	e8 00 00 00 00	 call	 ?Send@CNetworkStream@@QAE_NHPBX@Z ; CNetworkStream::Send
  0002c	84 c0		 test	 al, al
  0002e	75 16		 jne	 SHORT $LN3@SendShopSe

; 465  : 	{
; 466  : 		Tracef("SendShopSellPacket Error\n");

  00030	68 00 00 00 00	 push	 OFFSET ??_C@_0BK@NFAAJDME@SendShopSellPacket?5Error?6@

; 483  : }

  00035	e8 00 00 00 00	 call	 ?Tracef@@YAXPBDZZ	; Tracef
  0003a	83 c4 04	 add	 esp, 4
  0003d	32 c0		 xor	 al, al
  0003f	5e		 pop	 esi
  00040	8b e5		 mov	 esp, ebp
  00042	5d		 pop	 ebp
  00043	c2 08 00	 ret	 8
$LN3@SendShopSe:

; 467  : 		return false;
; 468  : 	}
; 469  : 	if (!Send(sizeof(BYTE), &bySlot))

  00046	8d 45 08	 lea	 eax, DWORD PTR _bySlot$[ebp]
  00049	8b ce		 mov	 ecx, esi
  0004b	50		 push	 eax
  0004c	6a 01		 push	 1
  0004e	e8 00 00 00 00	 call	 ?Send@CNetworkStream@@QAE_NHPBX@Z ; CNetworkStream::Send
  00053	84 c0		 test	 al, al
  00055	74 36		 je	 SHORT $LN7@SendShopSe

; 470  : 	{
; 471  : 		Tracef("SendShopAddSellPacket Error\n");
; 472  : 		return false;
; 473  : 	}
; 474  : 	if (!Send(sizeof(BYTE), &byCount))

  00057	8d 45 0c	 lea	 eax, DWORD PTR _byCount$[ebp]
  0005a	8b ce		 mov	 ecx, esi
  0005c	50		 push	 eax
  0005d	6a 01		 push	 1
  0005f	e8 00 00 00 00	 call	 ?Send@CNetworkStream@@QAE_NHPBX@Z ; CNetworkStream::Send
  00064	84 c0		 test	 al, al
  00066	74 25		 je	 SHORT $LN7@SendShopSe

; 477  : 		return false;
; 478  : 	}
; 479  : 
; 480  : 	Tracef(" SendShopSellPacketNew(bySlot=%d, byCount=%d)\n", bySlot, byCount);

  00068	0f b6 45 0c	 movzx	 eax, BYTE PTR _byCount$[ebp]
  0006c	50		 push	 eax
  0006d	0f b6 45 08	 movzx	 eax, BYTE PTR _bySlot$[ebp]
  00071	50		 push	 eax
  00072	68 00 00 00 00	 push	 OFFSET ??_C@_0CP@FAIPFIGP@?5SendShopSellPacketNew?$CIbySlot?$DN?$CF@
  00077	e8 00 00 00 00	 call	 ?Tracef@@YAXPBDZZ	; Tracef
  0007c	83 c4 0c	 add	 esp, 12			; 0000000cH

; 481  : 
; 482  : 	return SendSequence();

  0007f	8b ce		 mov	 ecx, esi
  00081	e8 00 00 00 00	 call	 ?SendSequence@CNetworkStream@@QAE_NXZ ; CNetworkStream::SendSequence
  00086	5e		 pop	 esi

; 483  : }

  00087	8b e5		 mov	 esp, ebp
  00089	5d		 pop	 ebp
  0008a	c2 08 00	 ret	 8
$LN7@SendShopSe:

; 475  : 	{
; 476  : 		Tracef("SendShopAddSellPacket Error\n");

  0008d	68 00 00 00 00	 push	 OFFSET ??_C@_0BN@PEGCCLIG@SendShopAddSellPacket?5Error?6@

; 483  : }

  00092	e8 00 00 00 00	 call	 ?Tracef@@YAXPBDZZ	; Tracef
  00097	83 c4 04	 add	 esp, 4
  0009a	32 c0		 xor	 al, al
  0009c	5e		 pop	 esi
  0009d	8b e5		 mov	 esp, ebp
  0009f	5d		 pop	 ebp
  000a0	c2 08 00	 ret	 8
?SendShopSellPacketNew@CPythonNetworkStream@@QAE_NEE@Z ENDP ; CPythonNetworkStream::SendShopSellPacketNew
_TEXT	ENDS
; Function compile flags: /Ogtp
; File D:\Metin2 Server Files\mainline\SRC_2014\Metin2Client\UserInterface\PythonNetworkStreamPhaseGameItem.cpp
;	COMDAT ?SendShopSellPacket@CPythonNetworkStream@@QAE_NE@Z
_TEXT	SEGMENT
_PacketShop$ = -4					; size = 2
_bySlot$ = 8						; size = 1
?SendShopSellPacket@CPythonNetworkStream@@QAE_NE@Z PROC	; CPythonNetworkStream::SendShopSellPacket, COMDAT
; _this$ = ecx

; 433  : {

  00000	55		 push	 ebp
  00001	8b ec		 mov	 ebp, esp
  00003	51		 push	 ecx
  00004	56		 push	 esi
  00005	8b f1		 mov	 esi, ecx

; 434  : 	if (!__CanActMainInstance())

  00007	e8 00 00 00 00	 call	 ?__CanActMainInstance@CPythonNetworkStream@@IAE_NXZ ; CPythonNetworkStream::__CanActMainInstance
  0000c	84 c0		 test	 al, al
  0000e	75 09		 jne	 SHORT $LN2@SendShopSe

; 435  : 		return true;

  00010	b0 01		 mov	 al, 1
  00012	5e		 pop	 esi

; 453  : }

  00013	8b e5		 mov	 esp, ebp
  00015	5d		 pop	 ebp
  00016	c2 04 00	 ret	 4
$LN2@SendShopSe:

; 436  : 
; 437  : 	TPacketCGShop PacketShop;
; 438  : 	PacketShop.header = HEADER_CG_SHOP;
; 439  : 	PacketShop.subheader = SHOP_SUBHEADER_CG_SELL;
; 440  : 
; 441  : 	if (!Send(sizeof(TPacketCGShop), &PacketShop))

  00019	8d 45 fc	 lea	 eax, DWORD PTR _PacketShop$[ebp]
  0001c	66 c7 45 fc 32
	02		 mov	 WORD PTR _PacketShop$[ebp], 562 ; 00000232H
  00022	50		 push	 eax
  00023	6a 02		 push	 2
  00025	8b ce		 mov	 ecx, esi
  00027	e8 00 00 00 00	 call	 ?Send@CNetworkStream@@QAE_NHPBX@Z ; CNetworkStream::Send
  0002c	84 c0		 test	 al, al
  0002e	75 16		 jne	 SHORT $LN3@SendShopSe

; 442  : 	{
; 443  : 		Tracef("SendShopSellPacket Error\n");

  00030	68 00 00 00 00	 push	 OFFSET ??_C@_0BK@NFAAJDME@SendShopSellPacket?5Error?6@
  00035	e8 00 00 00 00	 call	 ?Tracef@@YAXPBDZZ	; Tracef
  0003a	83 c4 04	 add	 esp, 4

; 444  : 		return false;

  0003d	32 c0		 xor	 al, al
  0003f	5e		 pop	 esi

; 453  : }

  00040	8b e5		 mov	 esp, ebp
  00042	5d		 pop	 ebp
  00043	c2 04 00	 ret	 4
$LN3@SendShopSe:

; 445  : 	}
; 446  : 	if (!Send(sizeof(BYTE), &bySlot))

  00046	8d 45 08	 lea	 eax, DWORD PTR _bySlot$[ebp]
  00049	8b ce		 mov	 ecx, esi
  0004b	50		 push	 eax
  0004c	6a 01		 push	 1
  0004e	e8 00 00 00 00	 call	 ?Send@CNetworkStream@@QAE_NHPBX@Z ; CNetworkStream::Send
  00053	84 c0		 test	 al, al
  00055	75 16		 jne	 SHORT $LN4@SendShopSe

; 447  : 	{
; 448  : 		Tracef("SendShopAddSellPacket Error\n");

  00057	68 00 00 00 00	 push	 OFFSET ??_C@_0BN@PEGCCLIG@SendShopAddSellPacket?5Error?6@
  0005c	e8 00 00 00 00	 call	 ?Tracef@@YAXPBDZZ	; Tracef
  00061	83 c4 04	 add	 esp, 4

; 449  : 		return false;

  00064	32 c0		 xor	 al, al
  00066	5e		 pop	 esi

; 453  : }

  00067	8b e5		 mov	 esp, ebp
  00069	5d		 pop	 ebp
  0006a	c2 04 00	 ret	 4
$LN4@SendShopSe:

; 450  : 	}
; 451  : 
; 452  : 	return SendSequence();

  0006d	8b ce		 mov	 ecx, esi
  0006f	e8 00 00 00 00	 call	 ?SendSequence@CNetworkStream@@QAE_NXZ ; CNetworkStream::SendSequence
  00074	5e		 pop	 esi

; 453  : }

  00075	8b e5		 mov	 esp, ebp
  00077	5d		 pop	 ebp
  00078	c2 04 00	 ret	 4
?SendShopSellPacket@CPythonNetworkStream@@QAE_NE@Z ENDP	; CPythonNetworkStream::SendShopSellPacket
_TEXT	ENDS
; Function compile flags: /Ogtp
; File D:\Metin2 Server Files\mainline\SRC_2014\Metin2Client\UserInterface\PythonNetworkStreamPhaseGameItem.cpp
;	COMDAT ?SendShopBuyPacket@CPythonNetworkStream@@QAE_NE@Z
_TEXT	SEGMENT
_PacketShop$ = -8					; size = 2
_bCount$ = -1						; size = 1
_bPos$ = 8						; size = 1
?SendShopBuyPacket@CPythonNetworkStream@@QAE_NE@Z PROC	; CPythonNetworkStream::SendShopBuyPacket, COMDAT
; _this$ = ecx

; 402  : {

  00000	55		 push	 ebp
  00001	8b ec		 mov	 ebp, esp
  00003	83 ec 08	 sub	 esp, 8
  00006	56		 push	 esi
  00007	8b f1		 mov	 esi, ecx

; 403  : 	if (!__CanActMainInstance())

  00009	e8 00 00 00 00	 call	 ?__CanActMainInstance@CPythonNetworkStream@@IAE_NXZ ; CPythonNetworkStream::__CanActMainInstance
  0000e	84 c0		 test	 al, al
  00010	75 09		 jne	 SHORT $LN2@SendShopBu

; 404  : 		return true;

  00012	b0 01		 mov	 al, 1
  00014	5e		 pop	 esi

; 430  : }

  00015	8b e5		 mov	 esp, ebp
  00017	5d		 pop	 ebp
  00018	c2 04 00	 ret	 4
$LN2@SendShopBu:

; 405  : 	
; 406  : 	TPacketCGShop PacketShop;
; 407  : 	PacketShop.header = HEADER_CG_SHOP;
; 408  : 	PacketShop.subheader = SHOP_SUBHEADER_CG_BUY;
; 409  : 
; 410  : 	if (!Send(sizeof(TPacketCGShop), &PacketShop))

  0001b	8d 45 f8	 lea	 eax, DWORD PTR _PacketShop$[ebp]
  0001e	66 c7 45 f8 32
	01		 mov	 WORD PTR _PacketShop$[ebp], 306 ; 00000132H
  00024	50		 push	 eax
  00025	6a 02		 push	 2
  00027	8b ce		 mov	 ecx, esi
  00029	e8 00 00 00 00	 call	 ?Send@CNetworkStream@@QAE_NHPBX@Z ; CNetworkStream::Send
  0002e	84 c0		 test	 al, al
  00030	74 34		 je	 SHORT $LN7@SendShopBu

; 411  : 	{
; 412  : 		Tracef("SendShopBuyPacket Error\n");
; 413  : 		return false;
; 414  : 	}
; 415  : 
; 416  : 	BYTE bCount=1;
; 417  : 	if (!Send(sizeof(BYTE), &bCount))

  00032	8d 45 ff	 lea	 eax, DWORD PTR _bCount$[ebp]
  00035	c6 45 ff 01	 mov	 BYTE PTR _bCount$[ebp], 1
  00039	50		 push	 eax
  0003a	6a 01		 push	 1
  0003c	8b ce		 mov	 ecx, esi
  0003e	e8 00 00 00 00	 call	 ?Send@CNetworkStream@@QAE_NHPBX@Z ; CNetworkStream::Send
  00043	84 c0		 test	 al, al
  00045	74 1f		 je	 SHORT $LN7@SendShopBu

; 418  : 	{
; 419  : 		Tracef("SendShopBuyPacket Error\n");
; 420  : 		return false;
; 421  : 	}
; 422  : 
; 423  : 	if (!Send(sizeof(BYTE), &bPos))

  00047	8d 45 08	 lea	 eax, DWORD PTR _bPos$[ebp]
  0004a	8b ce		 mov	 ecx, esi
  0004c	50		 push	 eax
  0004d	6a 01		 push	 1
  0004f	e8 00 00 00 00	 call	 ?Send@CNetworkStream@@QAE_NHPBX@Z ; CNetworkStream::Send
  00054	84 c0		 test	 al, al
  00056	74 0e		 je	 SHORT $LN7@SendShopBu

; 427  : 	}
; 428  : 
; 429  : 	return SendSequence();

  00058	8b ce		 mov	 ecx, esi
  0005a	e8 00 00 00 00	 call	 ?SendSequence@CNetworkStream@@QAE_NXZ ; CNetworkStream::SendSequence
  0005f	5e		 pop	 esi

; 430  : }

  00060	8b e5		 mov	 esp, ebp
  00062	5d		 pop	 ebp
  00063	c2 04 00	 ret	 4
$LN7@SendShopBu:

; 424  : 	{
; 425  : 		Tracef("SendShopBuyPacket Error\n");

  00066	68 00 00 00 00	 push	 OFFSET ??_C@_0BJ@GJICJJME@SendShopBuyPacket?5Error?6@
  0006b	e8 00 00 00 00	 call	 ?Tracef@@YAXPBDZZ	; Tracef
  00070	83 c4 04	 add	 esp, 4

; 426  : 		return false;

  00073	32 c0		 xor	 al, al
  00075	5e		 pop	 esi

; 430  : }

  00076	8b e5		 mov	 esp, ebp
  00078	5d		 pop	 ebp
  00079	c2 04 00	 ret	 4
?SendShopBuyPacket@CPythonNetworkStream@@QAE_NE@Z ENDP	; CPythonNetworkStream::SendShopBuyPacket
_TEXT	ENDS
; Function compile flags: /Ogtp
; File D:\Metin2 Server Files\mainline\SRC_2014\Metin2Client\UserInterface\PythonNetworkStreamPhaseGameItem.cpp
;	COMDAT ?SendShopEndPacket@CPythonNetworkStream@@QAE_NXZ
_TEXT	SEGMENT
_packet_shop$ = -4					; size = 2
?SendShopEndPacket@CPythonNetworkStream@@QAE_NXZ PROC	; CPythonNetworkStream::SendShopEndPacket, COMDAT
; _this$ = ecx

; 384  : {

  00000	55		 push	 ebp
  00001	8b ec		 mov	 ebp, esp
  00003	51		 push	 ecx
  00004	56		 push	 esi
  00005	8b f1		 mov	 esi, ecx

; 385  : 	if (!__CanActMainInstance())

  00007	e8 00 00 00 00	 call	 ?__CanActMainInstance@CPythonNetworkStream@@IAE_NXZ ; CPythonNetworkStream::__CanActMainInstance
  0000c	84 c0		 test	 al, al
  0000e	75 07		 jne	 SHORT $LN2@SendShopEn

; 386  : 		return true;

  00010	b0 01		 mov	 al, 1
  00012	5e		 pop	 esi

; 399  : }

  00013	8b e5		 mov	 esp, ebp
  00015	5d		 pop	 ebp
  00016	c3		 ret	 0
$LN2@SendShopEn:

; 387  : 
; 388  : 	TPacketCGShop packet_shop;
; 389  : 	packet_shop.header = HEADER_CG_SHOP;
; 390  : 	packet_shop.subheader = SHOP_SUBHEADER_CG_END;
; 391  : 
; 392  : 	if (!Send(sizeof(packet_shop), &packet_shop))

  00017	8d 45 fc	 lea	 eax, DWORD PTR _packet_shop$[ebp]
  0001a	66 c7 45 fc 32
	00		 mov	 WORD PTR _packet_shop$[ebp], 50 ; 00000032H
  00020	50		 push	 eax
  00021	6a 02		 push	 2
  00023	8b ce		 mov	 ecx, esi
  00025	e8 00 00 00 00	 call	 ?Send@CNetworkStream@@QAE_NHPBX@Z ; CNetworkStream::Send
  0002a	84 c0		 test	 al, al
  0002c	75 14		 jne	 SHORT $LN3@SendShopEn

; 393  : 	{
; 394  : 		Tracef("SendShopEndPacket Error\n");

  0002e	68 00 00 00 00	 push	 OFFSET ??_C@_0BJ@ENIABNOP@SendShopEndPacket?5Error?6@
  00033	e8 00 00 00 00	 call	 ?Tracef@@YAXPBDZZ	; Tracef
  00038	83 c4 04	 add	 esp, 4

; 395  : 		return false;

  0003b	32 c0		 xor	 al, al
  0003d	5e		 pop	 esi

; 399  : }

  0003e	8b e5		 mov	 esp, ebp
  00040	5d		 pop	 ebp
  00041	c3		 ret	 0
$LN3@SendShopEn:

; 396  : 	}
; 397  : 
; 398  : 	return SendSequence();

  00042	8b ce		 mov	 ecx, esi
  00044	e8 00 00 00 00	 call	 ?SendSequence@CNetworkStream@@QAE_NXZ ; CNetworkStream::SendSequence
  00049	5e		 pop	 esi

; 399  : }

  0004a	8b e5		 mov	 esp, ebp
  0004c	5d		 pop	 ebp
  0004d	c3		 ret	 0
?SendShopEndPacket@CPythonNetworkStream@@QAE_NXZ ENDP	; CPythonNetworkStream::SendShopEndPacket
_TEXT	ENDS
; Function compile flags: /Ogtp
; File D:\Metin2 Server Files\mainline\SRC_2014\Metin2Client\UserInterface\PythonNetworkStreamPhaseGameItem.cpp
;	COMDAT ?SendQuickSlotMovePacket@CPythonNetworkStream@@QAE_NEE@Z
_TEXT	SEGMENT
_quickSlotSwapPacket$ = -4				; size = 3
_pos$ = 8						; size = 1
_change_pos$ = 12					; size = 1
?SendQuickSlotMovePacket@CPythonNetworkStream@@QAE_NEE@Z PROC ; CPythonNetworkStream::SendQuickSlotMovePacket, COMDAT
; _this$ = ecx

; 749  : {

  00000	55		 push	 ebp
  00001	8b ec		 mov	 ebp, esp
  00003	51		 push	 ecx
  00004	56		 push	 esi
  00005	8b f1		 mov	 esi, ecx

; 750  : 	if (!__CanActMainInstance())

  00007	e8 00 00 00 00	 call	 ?__CanActMainInstance@CPythonNetworkStream@@IAE_NXZ ; CPythonNetworkStream::__CanActMainInstance
  0000c	84 c0		 test	 al, al
  0000e	75 09		 jne	 SHORT $LN2@SendQuickS

; 751  : 		return true;

  00010	b0 01		 mov	 al, 1
  00012	5e		 pop	 esi

; 766  : }

  00013	8b e5		 mov	 esp, ebp
  00015	5d		 pop	 ebp
  00016	c2 08 00	 ret	 8
$LN2@SendQuickS:

; 752  : 
; 753  : 	TPacketCGQuickSlotSwap quickSlotSwapPacket;
; 754  : 
; 755  : 	quickSlotSwapPacket.header = HEADER_CG_QUICKSLOT_SWAP;
; 756  : 	quickSlotSwapPacket.pos = pos;

  00019	8a 45 08	 mov	 al, BYTE PTR _pos$[ebp]

; 757  : 	quickSlotSwapPacket.change_pos = change_pos;
; 758  : 
; 759  : 	if (!Send(sizeof(TPacketCGQuickSlotSwap), &quickSlotSwapPacket))

  0001c	8b ce		 mov	 ecx, esi
  0001e	88 45 fd	 mov	 BYTE PTR _quickSlotSwapPacket$[ebp+1], al
  00021	8a 45 0c	 mov	 al, BYTE PTR _change_pos$[ebp]
  00024	88 45 fe	 mov	 BYTE PTR _quickSlotSwapPacket$[ebp+2], al
  00027	8d 45 fc	 lea	 eax, DWORD PTR _quickSlotSwapPacket$[ebp]
  0002a	50		 push	 eax
  0002b	6a 03		 push	 3
  0002d	c6 45 fc 12	 mov	 BYTE PTR _quickSlotSwapPacket$[ebp], 18 ; 00000012H
  00031	e8 00 00 00 00	 call	 ?Send@CNetworkStream@@QAE_NHPBX@Z ; CNetworkStream::Send
  00036	84 c0		 test	 al, al
  00038	75 16		 jne	 SHORT $LN3@SendQuickS

; 760  : 	{
; 761  : 		Tracen("SendQuickSlotSwapPacket Error");

  0003a	68 00 00 00 00	 push	 OFFSET ??_C@_0BO@MHEMOJBJ@SendQuickSlotSwapPacket?5Error@
  0003f	e8 00 00 00 00	 call	 ?Tracen@@YAXPBD@Z	; Tracen
  00044	83 c4 04	 add	 esp, 4

; 762  : 		return false;

  00047	32 c0		 xor	 al, al
  00049	5e		 pop	 esi

; 766  : }

  0004a	8b e5		 mov	 esp, ebp
  0004c	5d		 pop	 ebp
  0004d	c2 08 00	 ret	 8
$LN3@SendQuickS:

; 763  : 	}
; 764  : 
; 765  : 	return SendSequence();

  00050	8b ce		 mov	 ecx, esi
  00052	e8 00 00 00 00	 call	 ?SendSequence@CNetworkStream@@QAE_NXZ ; CNetworkStream::SendSequence
  00057	5e		 pop	 esi

; 766  : }

  00058	8b e5		 mov	 esp, ebp
  0005a	5d		 pop	 ebp
  0005b	c2 08 00	 ret	 8
?SendQuickSlotMovePacket@CPythonNetworkStream@@QAE_NEE@Z ENDP ; CPythonNetworkStream::SendQuickSlotMovePacket
_TEXT	ENDS
; Function compile flags: /Ogtp
; File D:\Metin2 Server Files\mainline\SRC_2014\Metin2Client\UserInterface\PythonNetworkStreamPhaseGameItem.cpp
;	COMDAT ?SendQuickSlotDelPacket@CPythonNetworkStream@@QAE_NE@Z
_TEXT	SEGMENT
_quickSlotDelPacket$ = -4				; size = 2
_pos$ = 8						; size = 1
?SendQuickSlotDelPacket@CPythonNetworkStream@@QAE_NE@Z PROC ; CPythonNetworkStream::SendQuickSlotDelPacket, COMDAT
; _this$ = ecx

; 730  : {

  00000	55		 push	 ebp
  00001	8b ec		 mov	 ebp, esp
  00003	51		 push	 ecx
  00004	56		 push	 esi
  00005	8b f1		 mov	 esi, ecx

; 731  : 	if (!__CanActMainInstance())

  00007	e8 00 00 00 00	 call	 ?__CanActMainInstance@CPythonNetworkStream@@IAE_NXZ ; CPythonNetworkStream::__CanActMainInstance
  0000c	84 c0		 test	 al, al
  0000e	75 09		 jne	 SHORT $LN2@SendQuickS

; 732  : 		return true;

  00010	b0 01		 mov	 al, 1
  00012	5e		 pop	 esi

; 746  : }

  00013	8b e5		 mov	 esp, ebp
  00015	5d		 pop	 ebp
  00016	c2 04 00	 ret	 4
$LN2@SendQuickS:

; 733  : 
; 734  : 	TPacketCGQuickSlotDel quickSlotDelPacket;
; 735  : 
; 736  : 	quickSlotDelPacket.header = HEADER_CG_QUICKSLOT_DEL;
; 737  : 	quickSlotDelPacket.pos = pos;

  00019	8a 45 08	 mov	 al, BYTE PTR _pos$[ebp]

; 738  : 
; 739  : 	if (!Send(sizeof(TPacketCGQuickSlotDel), &quickSlotDelPacket))

  0001c	8b ce		 mov	 ecx, esi
  0001e	88 45 fd	 mov	 BYTE PTR _quickSlotDelPacket$[ebp+1], al
  00021	8d 45 fc	 lea	 eax, DWORD PTR _quickSlotDelPacket$[ebp]
  00024	50		 push	 eax
  00025	6a 02		 push	 2
  00027	c6 45 fc 11	 mov	 BYTE PTR _quickSlotDelPacket$[ebp], 17 ; 00000011H
  0002b	e8 00 00 00 00	 call	 ?Send@CNetworkStream@@QAE_NHPBX@Z ; CNetworkStream::Send
  00030	84 c0		 test	 al, al
  00032	75 16		 jne	 SHORT $LN3@SendQuickS

; 740  : 	{
; 741  : 		Tracen("SendQuickSlotDelPacket Error");

  00034	68 00 00 00 00	 push	 OFFSET ??_C@_0BN@BNCAGMGN@SendQuickSlotDelPacket?5Error@
  00039	e8 00 00 00 00	 call	 ?Tracen@@YAXPBD@Z	; Tracen
  0003e	83 c4 04	 add	 esp, 4

; 742  : 		return false;

  00041	32 c0		 xor	 al, al
  00043	5e		 pop	 esi

; 746  : }

  00044	8b e5		 mov	 esp, ebp
  00046	5d		 pop	 ebp
  00047	c2 04 00	 ret	 4
$LN3@SendQuickS:

; 743  : 	}
; 744  : 
; 745  : 	return SendSequence();

  0004a	8b ce		 mov	 ecx, esi
  0004c	e8 00 00 00 00	 call	 ?SendSequence@CNetworkStream@@QAE_NXZ ; CNetworkStream::SendSequence
  00051	5e		 pop	 esi

; 746  : }

  00052	8b e5		 mov	 esp, ebp
  00054	5d		 pop	 ebp
  00055	c2 04 00	 ret	 4
?SendQuickSlotDelPacket@CPythonNetworkStream@@QAE_NE@Z ENDP ; CPythonNetworkStream::SendQuickSlotDelPacket
_TEXT	ENDS
; Function compile flags: /Ogtp
; File D:\Metin2 Server Files\mainline\SRC_2014\Metin2Client\UserInterface\PythonNetworkStreamPhaseGameItem.cpp
;	COMDAT ?SendQuickSlotAddPacket@CPythonNetworkStream@@QAE_NEEE@Z
_TEXT	SEGMENT
_quickSlotAddPacket$ = -4				; size = 4
_wpos$ = 8						; size = 1
_type$ = 12						; size = 1
_pos$ = 16						; size = 1
?SendQuickSlotAddPacket@CPythonNetworkStream@@QAE_NEEE@Z PROC ; CPythonNetworkStream::SendQuickSlotAddPacket, COMDAT
; _this$ = ecx

; 709  : {

  00000	55		 push	 ebp
  00001	8b ec		 mov	 ebp, esp
  00003	51		 push	 ecx
  00004	56		 push	 esi
  00005	8b f1		 mov	 esi, ecx

; 710  : 	if (!__CanActMainInstance())

  00007	e8 00 00 00 00	 call	 ?__CanActMainInstance@CPythonNetworkStream@@IAE_NXZ ; CPythonNetworkStream::__CanActMainInstance
  0000c	84 c0		 test	 al, al
  0000e	75 09		 jne	 SHORT $LN2@SendQuickS

; 711  : 		return true;

  00010	b0 01		 mov	 al, 1
  00012	5e		 pop	 esi

; 727  : }

  00013	8b e5		 mov	 esp, ebp
  00015	5d		 pop	 ebp
  00016	c2 0c 00	 ret	 12			; 0000000cH
$LN2@SendQuickS:

; 712  : 
; 713  : 	TPacketCGQuickSlotAdd quickSlotAddPacket;
; 714  : 
; 715  : 	quickSlotAddPacket.header		= HEADER_CG_QUICKSLOT_ADD;
; 716  : 	quickSlotAddPacket.pos			= wpos;

  00019	8a 45 08	 mov	 al, BYTE PTR _wpos$[ebp]

; 717  : 	quickSlotAddPacket.slot.Type	= type;
; 718  : 	quickSlotAddPacket.slot.Position = pos;
; 719  : 
; 720  : 	if (!Send(sizeof(TPacketCGQuickSlotAdd), &quickSlotAddPacket))

  0001c	8b ce		 mov	 ecx, esi
  0001e	88 45 fd	 mov	 BYTE PTR _quickSlotAddPacket$[ebp+1], al
  00021	8a 45 0c	 mov	 al, BYTE PTR _type$[ebp]
  00024	88 45 fe	 mov	 BYTE PTR _quickSlotAddPacket$[ebp+2], al
  00027	8a 45 10	 mov	 al, BYTE PTR _pos$[ebp]
  0002a	88 45 ff	 mov	 BYTE PTR _quickSlotAddPacket$[ebp+3], al
  0002d	8d 45 fc	 lea	 eax, DWORD PTR _quickSlotAddPacket$[ebp]
  00030	50		 push	 eax
  00031	6a 04		 push	 4
  00033	c6 45 fc 10	 mov	 BYTE PTR _quickSlotAddPacket$[ebp], 16 ; 00000010H
  00037	e8 00 00 00 00	 call	 ?Send@CNetworkStream@@QAE_NHPBX@Z ; CNetworkStream::Send
  0003c	84 c0		 test	 al, al
  0003e	75 16		 jne	 SHORT $LN3@SendQuickS

; 721  : 	{
; 722  : 		Tracen("SendQuickSlotAddPacket Error");

  00040	68 00 00 00 00	 push	 OFFSET ??_C@_0BN@ONNLHEKF@SendQuickSlotAddPacket?5Error@
  00045	e8 00 00 00 00	 call	 ?Tracen@@YAXPBD@Z	; Tracen
  0004a	83 c4 04	 add	 esp, 4

; 723  : 		return false;

  0004d	32 c0		 xor	 al, al
  0004f	5e		 pop	 esi

; 727  : }

  00050	8b e5		 mov	 esp, ebp
  00052	5d		 pop	 ebp
  00053	c2 0c 00	 ret	 12			; 0000000cH
$LN3@SendQuickS:

; 724  : 	}
; 725  : 
; 726  : 	return SendSequence();

  00056	8b ce		 mov	 ecx, esi
  00058	e8 00 00 00 00	 call	 ?SendSequence@CNetworkStream@@QAE_NXZ ; CNetworkStream::SendSequence
  0005d	5e		 pop	 esi

; 727  : }

  0005e	8b e5		 mov	 esp, ebp
  00060	5d		 pop	 ebp
  00061	c2 0c 00	 ret	 12			; 0000000cH
?SendQuickSlotAddPacket@CPythonNetworkStream@@QAE_NEEE@Z ENDP ; CPythonNetworkStream::SendQuickSlotAddPacket
_TEXT	ENDS
; Function compile flags: /Ogtp
; File D:\Metin2 Server Files\mainline\SRC_2014\Metin2Client\UserInterface\PythonNetworkStreamPhaseGameItem.cpp
;	COMDAT ?SendItemPickUpPacket@CPythonNetworkStream@@QAE_NK@Z
_TEXT	SEGMENT
_itemPickUpPacket$ = -8					; size = 5
_vid$ = 8						; size = 4
?SendItemPickUpPacket@CPythonNetworkStream@@QAE_NK@Z PROC ; CPythonNetworkStream::SendItemPickUpPacket, COMDAT
; _this$ = ecx

; 690  : {

  00000	55		 push	 ebp
  00001	8b ec		 mov	 ebp, esp
  00003	83 ec 08	 sub	 esp, 8
  00006	56		 push	 esi
  00007	8b f1		 mov	 esi, ecx

; 691  : 	if (!__CanActMainInstance())

  00009	e8 00 00 00 00	 call	 ?__CanActMainInstance@CPythonNetworkStream@@IAE_NXZ ; CPythonNetworkStream::__CanActMainInstance
  0000e	84 c0		 test	 al, al
  00010	75 09		 jne	 SHORT $LN2@SendItemPi

; 692  : 		return true;

  00012	b0 01		 mov	 al, 1
  00014	5e		 pop	 esi

; 705  : }

  00015	8b e5		 mov	 esp, ebp
  00017	5d		 pop	 ebp
  00018	c2 04 00	 ret	 4
$LN2@SendItemPi:

; 693  : 
; 694  : 	TPacketCGItemPickUp	itemPickUpPacket;
; 695  : 	itemPickUpPacket.header = HEADER_CG_ITEM_PICKUP;
; 696  : 	itemPickUpPacket.vid = vid;

  0001b	8b 45 08	 mov	 eax, DWORD PTR _vid$[ebp]

; 697  : 
; 698  : 	if (!Send(sizeof(TPacketCGItemPickUp), &itemPickUpPacket))

  0001e	8b ce		 mov	 ecx, esi
  00020	89 45 f9	 mov	 DWORD PTR _itemPickUpPacket$[ebp+1], eax
  00023	8d 45 f8	 lea	 eax, DWORD PTR _itemPickUpPacket$[ebp]
  00026	50		 push	 eax
  00027	6a 05		 push	 5
  00029	c6 45 f8 0f	 mov	 BYTE PTR _itemPickUpPacket$[ebp], 15 ; 0000000fH
  0002d	e8 00 00 00 00	 call	 ?Send@CNetworkStream@@QAE_NHPBX@Z ; CNetworkStream::Send
  00032	84 c0		 test	 al, al
  00034	75 16		 jne	 SHORT $LN3@SendItemPi

; 699  : 	{
; 700  : 		Tracen("SendItemPickUpPacket Error");

  00036	68 00 00 00 00	 push	 OFFSET ??_C@_0BL@DCHNPPOD@SendItemPickUpPacket?5Error@
  0003b	e8 00 00 00 00	 call	 ?Tracen@@YAXPBD@Z	; Tracen
  00040	83 c4 04	 add	 esp, 4

; 701  : 		return false;

  00043	32 c0		 xor	 al, al
  00045	5e		 pop	 esi

; 705  : }

  00046	8b e5		 mov	 esp, ebp
  00048	5d		 pop	 ebp
  00049	c2 04 00	 ret	 4
$LN3@SendItemPi:

; 702  : 	}
; 703  : 
; 704  : 	return SendSequence();

  0004c	8b ce		 mov	 ecx, esi
  0004e	e8 00 00 00 00	 call	 ?SendSequence@CNetworkStream@@QAE_NXZ ; CNetworkStream::SendSequence
  00053	5e		 pop	 esi

; 705  : }

  00054	8b e5		 mov	 esp, ebp
  00056	5d		 pop	 ebp
  00057	c2 04 00	 ret	 4
?SendItemPickUpPacket@CPythonNetworkStream@@QAE_NK@Z ENDP ; CPythonNetworkStream::SendItemPickUpPacket
_TEXT	ENDS
; Function compile flags: /Ogtp
; File D:\Metin2 Server Files\mainline\SRC_2014\Metin2Client\UserInterface\PythonNetworkStreamPhaseGameItem.cpp
;	COMDAT ?SendItemMovePacket@CPythonNetworkStream@@QAE_NUSItemPos@@0E@Z
_TEXT	SEGMENT
_itemMovePacket$ = -8					; size = 8
_pos$ = 8						; size = 3
_change_pos$ = 12					; size = 3
_num$ = 16						; size = 1
?SendItemMovePacket@CPythonNetworkStream@@QAE_NUSItemPos@@0E@Z PROC ; CPythonNetworkStream::SendItemMovePacket, COMDAT
; _this$ = ecx

; 644  : {	

  00000	55		 push	 ebp
  00001	8b ec		 mov	 ebp, esp
  00003	83 ec 08	 sub	 esp, 8
  00006	56		 push	 esi
  00007	8b f1		 mov	 esi, ecx

; 645  : 	if (!__CanActMainInstance())

  00009	e8 00 00 00 00	 call	 ?__CanActMainInstance@CPythonNetworkStream@@IAE_NXZ ; CPythonNetworkStream::__CanActMainInstance
  0000e	84 c0		 test	 al, al
  00010	74 6a		 je	 SHORT $LN19@SendItemMo

; 646  : 		return true;
; 647  : 	
; 648  : 	if (__IsEquipItemInSlot(pos))

  00012	66 8b 45 08	 mov	 ax, WORD PTR _pos$[ebp]
  00016	51		 push	 ecx
  00017	8b d4		 mov	 edx, esp
  00019	8b ce		 mov	 ecx, esi
  0001b	66 89 02	 mov	 WORD PTR [edx], ax
  0001e	8a 45 0a	 mov	 al, BYTE PTR _pos$[ebp+2]
  00021	88 42 02	 mov	 BYTE PTR [edx+2], al
  00024	e8 00 00 00 00	 call	 ?__IsEquipItemInSlot@CPythonNetworkStream@@IAE_NUSItemPos@@@Z ; CPythonNetworkStream::__IsEquipItemInSlot
  00029	84 c0		 test	 al, al
  0002b	0f 84 8d 00 00
	00		 je	 $LN10@SendItemMo

; 649  : 	{
; 650  : 		if (CPythonExchange::Instance().isTrading())

  00031	8b 0d 00 00 00
	00		 mov	 ecx, DWORD PTR ?ms_singleton@?$CSingleton@VCPythonExchange@@@@0PAVCPythonExchange@@A ; CSingleton<CPythonExchange>::ms_singleton
  00037	e8 00 00 00 00	 call	 ?isTrading@CPythonExchange@@QAE_NXZ ; CPythonExchange::isTrading
  0003c	84 c0		 test	 al, al
  0003e	74 45		 je	 SHORT $LN5@SendItemMo

; 651  : 		{
; 652  : 			if (pos.IsEquipCell() || change_pos.IsEquipCell())

  00040	8d 4d 08	 lea	 ecx, DWORD PTR _pos$[ebp]
  00043	e8 00 00 00 00	 call	 ?IsEquipCell@SItemPos@@QAE_NXZ ; SItemPos::IsEquipCell
  00048	84 c0		 test	 al, al
  0004a	75 0c		 jne	 SHORT $LN6@SendItemMo
  0004c	8d 4d 0c	 lea	 ecx, DWORD PTR _change_pos$[ebp]
  0004f	e8 00 00 00 00	 call	 ?IsEquipCell@SItemPos@@QAE_NXZ ; SItemPos::IsEquipCell
  00054	84 c0		 test	 al, al
  00056	74 2d		 je	 SHORT $LN5@SendItemMo
$LN6@SendItemMo:

; 653  : 			{
; 654  : 				PyCallClassMemberFunc(m_apoPhaseWnd[PHASE_WINDOW_GAME], "BINARY_AppendNotifyMessage", Py_BuildValue("(s)", "CANNOT_EQUIP_EXCHANGE"));

  00058	68 00 00 00 00	 push	 OFFSET ??_C@_0BG@KBOLGOPL@CANNOT_EQUIP_EXCHANGE@
$LN20@SendItemMo:

; 687  : }

  0005d	68 00 00 00 00	 push	 OFFSET ??_C@_03KJMMOONA@?$CIs?$CJ@
  00062	ff 15 00 00 00
	00		 call	 DWORD PTR __imp__Py_BuildValue
  00068	50		 push	 eax
  00069	68 00 00 00 00	 push	 OFFSET ??_C@_0BL@HGBMODPD@BINARY_AppendNotifyMessage@
  0006e	ff b6 90 01 00
	00		 push	 DWORD PTR [esi+400]
  00074	e8 00 00 00 00	 call	 ?PyCallClassMemberFunc@@YA_NPAU_object@@PBD0@Z ; PyCallClassMemberFunc
  00079	83 c4 14	 add	 esp, 20			; 00000014H
$LN19@SendItemMo:
  0007c	b0 01		 mov	 al, 1
  0007e	5e		 pop	 esi
  0007f	8b e5		 mov	 esp, ebp
  00081	5d		 pop	 ebp
  00082	c2 0c 00	 ret	 12			; 0000000cH
$LN5@SendItemMo:

; 655  : 				return true;
; 656  : 			}
; 657  : 		}
; 658  : 
; 659  : 		if (CPythonShop::Instance().IsOpen())

  00085	8b 0d 00 00 00
	00		 mov	 ecx, DWORD PTR ?ms_singleton@?$CSingleton@VCPythonShop@@@@0PAVCPythonShop@@A ; CSingleton<CPythonShop>::ms_singleton
  0008b	e8 00 00 00 00	 call	 ?IsOpen@CPythonShop@@QAEHXZ ; CPythonShop::IsOpen
  00090	85 c0		 test	 eax, eax
  00092	74 1f		 je	 SHORT $LN8@SendItemMo

; 660  : 		{
; 661  : 			if (pos.IsEquipCell() || change_pos.IsEquipCell())

  00094	8d 4d 08	 lea	 ecx, DWORD PTR _pos$[ebp]
  00097	e8 00 00 00 00	 call	 ?IsEquipCell@SItemPos@@QAE_NXZ ; SItemPos::IsEquipCell
  0009c	84 c0		 test	 al, al
  0009e	75 0c		 jne	 SHORT $LN9@SendItemMo
  000a0	8d 4d 0c	 lea	 ecx, DWORD PTR _change_pos$[ebp]
  000a3	e8 00 00 00 00	 call	 ?IsEquipCell@SItemPos@@QAE_NXZ ; SItemPos::IsEquipCell
  000a8	84 c0		 test	 al, al
  000aa	74 07		 je	 SHORT $LN8@SendItemMo
$LN9@SendItemMo:

; 662  : 			{
; 663  : 				PyCallClassMemberFunc(m_apoPhaseWnd[PHASE_WINDOW_GAME], "BINARY_AppendNotifyMessage", Py_BuildValue("(s)", "CANNOT_EQUIP_SHOP"));

  000ac	68 00 00 00 00	 push	 OFFSET ??_C@_0BC@GKDHAPBC@CANNOT_EQUIP_SHOP@

; 664  : 				return true;

  000b1	eb aa		 jmp	 SHORT $LN20@SendItemMo
$LN8@SendItemMo:

; 665  : 			}
; 666  : 		}
; 667  : 
; 668  : 		if (__IsPlayerAttacking())

  000b3	8b ce		 mov	 ecx, esi
  000b5	e8 00 00 00 00	 call	 ?__IsPlayerAttacking@CPythonNetworkStream@@IAE_NXZ ; CPythonNetworkStream::__IsPlayerAttacking
  000ba	84 c0		 test	 al, al
  000bc	75 be		 jne	 SHORT $LN19@SendItemMo
$LN10@SendItemMo:

; 669  : 			return true;
; 670  : 	}
; 671  : 
; 672  : 	__PlayInventoryItemDropSound(pos);

  000be	66 8b 45 08	 mov	 ax, WORD PTR _pos$[ebp]
  000c2	51		 push	 ecx
  000c3	8b cc		 mov	 ecx, esp
  000c5	66 89 01	 mov	 WORD PTR [ecx], ax
  000c8	8a 45 0a	 mov	 al, BYTE PTR _pos$[ebp+2]
  000cb	88 41 02	 mov	 BYTE PTR [ecx+2], al
  000ce	8b ce		 mov	 ecx, esi
  000d0	e8 00 00 00 00	 call	 ?__PlayInventoryItemDropSound@CPythonNetworkStream@@IAEXUSItemPos@@@Z ; CPythonNetworkStream::__PlayInventoryItemDropSound

; 673  : 
; 674  : 	TPacketCGItemMove	itemMovePacket;
; 675  : 	itemMovePacket.header = HEADER_CG_ITEM_MOVE;
; 676  : 	itemMovePacket.pos = pos;

  000d5	66 8b 45 08	 mov	 ax, WORD PTR _pos$[ebp]

; 677  : 	itemMovePacket.change_pos = change_pos;
; 678  : 	itemMovePacket.num = num;
; 679  : 
; 680  : 	if (!Send(sizeof(TPacketCGItemMove), &itemMovePacket))

  000d9	8b ce		 mov	 ecx, esi
  000db	66 89 45 f9	 mov	 WORD PTR _itemMovePacket$[ebp+1], ax
  000df	8a 45 0a	 mov	 al, BYTE PTR _pos$[ebp+2]
  000e2	88 45 fb	 mov	 BYTE PTR _itemMovePacket$[ebp+3], al
  000e5	66 8b 45 0c	 mov	 ax, WORD PTR _change_pos$[ebp]
  000e9	66 89 45 fc	 mov	 WORD PTR _itemMovePacket$[ebp+4], ax
  000ed	8a 45 0e	 mov	 al, BYTE PTR _change_pos$[ebp+2]
  000f0	88 45 fe	 mov	 BYTE PTR _itemMovePacket$[ebp+6], al
  000f3	8a 45 10	 mov	 al, BYTE PTR _num$[ebp]
  000f6	88 45 ff	 mov	 BYTE PTR _itemMovePacket$[ebp+7], al
  000f9	8d 45 f8	 lea	 eax, DWORD PTR _itemMovePacket$[ebp]
  000fc	50		 push	 eax
  000fd	6a 08		 push	 8
  000ff	c6 45 f8 0d	 mov	 BYTE PTR _itemMovePacket$[ebp], 13 ; 0000000dH
  00103	e8 00 00 00 00	 call	 ?Send@CNetworkStream@@QAE_NHPBX@Z ; CNetworkStream::Send
  00108	84 c0		 test	 al, al
  0010a	75 16		 jne	 SHORT $LN11@SendItemMo

; 681  : 	{
; 682  : 		Tracen("SendItemMovePacket Error");

  0010c	68 00 00 00 00	 push	 OFFSET ??_C@_0BJ@LGMFALEM@SendItemMovePacket?5Error@
  00111	e8 00 00 00 00	 call	 ?Tracen@@YAXPBD@Z	; Tracen
  00116	83 c4 04	 add	 esp, 4

; 683  : 		return false;

  00119	32 c0		 xor	 al, al

; 687  : }

  0011b	5e		 pop	 esi
  0011c	8b e5		 mov	 esp, ebp
  0011e	5d		 pop	 ebp
  0011f	c2 0c 00	 ret	 12			; 0000000cH
$LN11@SendItemMo:

; 684  : 	}
; 685  : 
; 686  : 	return SendSequence();

  00122	8b ce		 mov	 ecx, esi
  00124	e8 00 00 00 00	 call	 ?SendSequence@CNetworkStream@@QAE_NXZ ; CNetworkStream::SendSequence

; 687  : }

  00129	5e		 pop	 esi
  0012a	8b e5		 mov	 esp, ebp
  0012c	5d		 pop	 ebp
  0012d	c2 0c 00	 ret	 12			; 0000000cH
?SendItemMovePacket@CPythonNetworkStream@@QAE_NUSItemPos@@0E@Z ENDP ; CPythonNetworkStream::SendItemMovePacket
_TEXT	ENDS
; Function compile flags: /Ogtp
; File D:\Metin2 Server Files\mainline\SRC_2014\Metin2Client\UserInterface\PythonNetworkStreamPhaseGameItem.cpp
;	COMDAT ?SendItemDropPacketNew@CPythonNetworkStream@@QAE_NUSItemPos@@KK@Z
_TEXT	SEGMENT
_itemDropPacket$ = -12					; size = 9
_pos$ = 8						; size = 3
_elk$ = 12						; size = 4
_count$ = 16						; size = 4
?SendItemDropPacketNew@CPythonNetworkStream@@QAE_NUSItemPos@@KK@Z PROC ; CPythonNetworkStream::SendItemDropPacketNew, COMDAT
; _this$ = ecx

; 567  : {

  00000	55		 push	 ebp
  00001	8b ec		 mov	 ebp, esp
  00003	83 ec 0c	 sub	 esp, 12			; 0000000cH
  00006	56		 push	 esi
  00007	8b f1		 mov	 esi, ecx

; 568  : 	if (!__CanActMainInstance())

  00009	e8 00 00 00 00	 call	 ?__CanActMainInstance@CPythonNetworkStream@@IAE_NXZ ; CPythonNetworkStream::__CanActMainInstance
  0000e	84 c0		 test	 al, al
  00010	75 09		 jne	 SHORT $LN2@SendItemDr

; 569  : 		return true;

  00012	b0 01		 mov	 al, 1
  00014	5e		 pop	 esi

; 584  : }

  00015	8b e5		 mov	 esp, ebp
  00017	5d		 pop	 ebp
  00018	c2 0c 00	 ret	 12			; 0000000cH
$LN2@SendItemDr:

; 570  : 
; 571  : 	TPacketCGItemDrop2 itemDropPacket;
; 572  : 	itemDropPacket.header = HEADER_CG_ITEM_DROP2;
; 573  : 	itemDropPacket.pos = pos;

  0001b	66 8b 45 08	 mov	 ax, WORD PTR _pos$[ebp]

; 574  : 	itemDropPacket.gold = elk;
; 575  : 	itemDropPacket.count = count;
; 576  : 
; 577  : 	if (!Send(sizeof(itemDropPacket), &itemDropPacket))

  0001f	8b ce		 mov	 ecx, esi
  00021	66 89 45 f5	 mov	 WORD PTR _itemDropPacket$[ebp+1], ax
  00025	8a 45 0a	 mov	 al, BYTE PTR _pos$[ebp+2]
  00028	88 45 f7	 mov	 BYTE PTR _itemDropPacket$[ebp+3], al
  0002b	8b 45 0c	 mov	 eax, DWORD PTR _elk$[ebp]
  0002e	89 45 f8	 mov	 DWORD PTR _itemDropPacket$[ebp+4], eax
  00031	8a 45 10	 mov	 al, BYTE PTR _count$[ebp]
  00034	88 45 fc	 mov	 BYTE PTR _itemDropPacket$[ebp+8], al
  00037	8d 45 f4	 lea	 eax, DWORD PTR _itemDropPacket$[ebp]
  0003a	50		 push	 eax
  0003b	6a 09		 push	 9
  0003d	c6 45 f4 14	 mov	 BYTE PTR _itemDropPacket$[ebp], 20 ; 00000014H
  00041	e8 00 00 00 00	 call	 ?Send@CNetworkStream@@QAE_NHPBX@Z ; CNetworkStream::Send
  00046	84 c0		 test	 al, al
  00048	75 16		 jne	 SHORT $LN3@SendItemDr

; 578  : 	{
; 579  : 		Tracen("SendItemDropPacket Error");

  0004a	68 00 00 00 00	 push	 OFFSET ??_C@_0BJ@OIBPCJHH@SendItemDropPacket?5Error@
  0004f	e8 00 00 00 00	 call	 ?Tracen@@YAXPBD@Z	; Tracen
  00054	83 c4 04	 add	 esp, 4

; 580  : 		return false;

  00057	32 c0		 xor	 al, al
  00059	5e		 pop	 esi

; 584  : }

  0005a	8b e5		 mov	 esp, ebp
  0005c	5d		 pop	 ebp
  0005d	c2 0c 00	 ret	 12			; 0000000cH
$LN3@SendItemDr:

; 581  : 	}
; 582  : 
; 583  : 	return SendSequence();

  00060	8b ce		 mov	 ecx, esi
  00062	e8 00 00 00 00	 call	 ?SendSequence@CNetworkStream@@QAE_NXZ ; CNetworkStream::SendSequence
  00067	5e		 pop	 esi

; 584  : }

  00068	8b e5		 mov	 esp, ebp
  0006a	5d		 pop	 ebp
  0006b	c2 0c 00	 ret	 12			; 0000000cH
?SendItemDropPacketNew@CPythonNetworkStream@@QAE_NUSItemPos@@KK@Z ENDP ; CPythonNetworkStream::SendItemDropPacketNew
_TEXT	ENDS
; Function compile flags: /Ogtp
; File D:\Metin2 Server Files\mainline\SRC_2014\Metin2Client\UserInterface\PythonNetworkStreamPhaseGameItem.cpp
;	COMDAT ?SendItemDropPacket@CPythonNetworkStream@@QAE_NUSItemPos@@K@Z
_TEXT	SEGMENT
_itemDropPacket$ = -8					; size = 8
_pos$ = 8						; size = 3
_elk$ = 12						; size = 4
?SendItemDropPacket@CPythonNetworkStream@@QAE_NUSItemPos@@K@Z PROC ; CPythonNetworkStream::SendItemDropPacket, COMDAT
; _this$ = ecx

; 548  : {

  00000	55		 push	 ebp
  00001	8b ec		 mov	 ebp, esp
  00003	83 ec 08	 sub	 esp, 8
  00006	56		 push	 esi
  00007	8b f1		 mov	 esi, ecx

; 549  : 	if (!__CanActMainInstance())

  00009	e8 00 00 00 00	 call	 ?__CanActMainInstance@CPythonNetworkStream@@IAE_NXZ ; CPythonNetworkStream::__CanActMainInstance
  0000e	84 c0		 test	 al, al
  00010	75 09		 jne	 SHORT $LN2@SendItemDr

; 550  : 		return true;

  00012	b0 01		 mov	 al, 1
  00014	5e		 pop	 esi

; 564  : }

  00015	8b e5		 mov	 esp, ebp
  00017	5d		 pop	 ebp
  00018	c2 08 00	 ret	 8
$LN2@SendItemDr:

; 551  : 
; 552  : 	TPacketCGItemDrop itemDropPacket;
; 553  : 	itemDropPacket.header = HEADER_CG_ITEM_DROP;
; 554  : 	itemDropPacket.pos = pos;

  0001b	66 8b 45 08	 mov	 ax, WORD PTR _pos$[ebp]

; 555  : 	itemDropPacket.elk = elk;
; 556  : 
; 557  : 	if (!Send(sizeof(TPacketCGItemDrop), &itemDropPacket))

  0001f	8b ce		 mov	 ecx, esi
  00021	66 89 45 f9	 mov	 WORD PTR _itemDropPacket$[ebp+1], ax
  00025	8a 45 0a	 mov	 al, BYTE PTR _pos$[ebp+2]
  00028	88 45 fb	 mov	 BYTE PTR _itemDropPacket$[ebp+3], al
  0002b	8b 45 0c	 mov	 eax, DWORD PTR _elk$[ebp]
  0002e	89 45 fc	 mov	 DWORD PTR _itemDropPacket$[ebp+4], eax
  00031	8d 45 f8	 lea	 eax, DWORD PTR _itemDropPacket$[ebp]
  00034	50		 push	 eax
  00035	6a 08		 push	 8
  00037	c6 45 f8 0c	 mov	 BYTE PTR _itemDropPacket$[ebp], 12 ; 0000000cH
  0003b	e8 00 00 00 00	 call	 ?Send@CNetworkStream@@QAE_NHPBX@Z ; CNetworkStream::Send
  00040	84 c0		 test	 al, al
  00042	75 16		 jne	 SHORT $LN3@SendItemDr

; 558  : 	{
; 559  : 		Tracen("SendItemDropPacket Error");

  00044	68 00 00 00 00	 push	 OFFSET ??_C@_0BJ@OIBPCJHH@SendItemDropPacket?5Error@
  00049	e8 00 00 00 00	 call	 ?Tracen@@YAXPBD@Z	; Tracen
  0004e	83 c4 04	 add	 esp, 4

; 560  : 		return false;

  00051	32 c0		 xor	 al, al
  00053	5e		 pop	 esi

; 564  : }

  00054	8b e5		 mov	 esp, ebp
  00056	5d		 pop	 ebp
  00057	c2 08 00	 ret	 8
$LN3@SendItemDr:

; 561  : 	}
; 562  : 
; 563  : 	return SendSequence();

  0005a	8b ce		 mov	 ecx, esi
  0005c	e8 00 00 00 00	 call	 ?SendSequence@CNetworkStream@@QAE_NXZ ; CNetworkStream::SendSequence
  00061	5e		 pop	 esi

; 564  : }

  00062	8b e5		 mov	 esp, ebp
  00064	5d		 pop	 ebp
  00065	c2 08 00	 ret	 8
?SendItemDropPacket@CPythonNetworkStream@@QAE_NUSItemPos@@K@Z ENDP ; CPythonNetworkStream::SendItemDropPacket
_TEXT	ENDS
; Function compile flags: /Ogtp
; File D:\Metin2 Server Files\mainline\SRC_2014\Metin2Client\UserInterface\PythonNetworkStreamPhaseGameItem.cpp
;	COMDAT ?SendItemUseToItemPacket@CPythonNetworkStream@@QAE_NUSItemPos@@0@Z
_TEXT	SEGMENT
_itemUseToItemPacket$ = -8				; size = 7
_source_pos$ = 8					; size = 3
_target_pos$ = 12					; size = 3
?SendItemUseToItemPacket@CPythonNetworkStream@@QAE_NUSItemPos@@0@Z PROC ; CPythonNetworkStream::SendItemUseToItemPacket, COMDAT
; _this$ = ecx

; 525  : {

  00000	55		 push	 ebp
  00001	8b ec		 mov	 ebp, esp
  00003	83 ec 08	 sub	 esp, 8
  00006	56		 push	 esi
  00007	8b f1		 mov	 esi, ecx

; 526  : 	if (!__CanActMainInstance())

  00009	e8 00 00 00 00	 call	 ?__CanActMainInstance@CPythonNetworkStream@@IAE_NXZ ; CPythonNetworkStream::__CanActMainInstance
  0000e	84 c0		 test	 al, al
  00010	75 09		 jne	 SHORT $LN2@SendItemUs

; 527  : 		return true;	

  00012	b0 01		 mov	 al, 1
  00014	5e		 pop	 esi

; 545  : }

  00015	8b e5		 mov	 esp, ebp
  00017	5d		 pop	 ebp
  00018	c2 08 00	 ret	 8
$LN2@SendItemUs:

; 528  : 
; 529  : 	TPacketCGItemUseToItem itemUseToItemPacket;
; 530  : 	itemUseToItemPacket.header = HEADER_CG_ITEM_USE_TO_ITEM;
; 531  : 	itemUseToItemPacket.source_pos = source_pos;

  0001b	66 8b 45 08	 mov	 ax, WORD PTR _source_pos$[ebp]

; 532  : 	itemUseToItemPacket.target_pos = target_pos;
; 533  : 
; 534  : 	if (!Send(sizeof(TPacketCGItemUseToItem), &itemUseToItemPacket))

  0001f	8b ce		 mov	 ecx, esi
  00021	66 89 45 f9	 mov	 WORD PTR _itemUseToItemPacket$[ebp+1], ax
  00025	8a 45 0a	 mov	 al, BYTE PTR _source_pos$[ebp+2]
  00028	88 45 fb	 mov	 BYTE PTR _itemUseToItemPacket$[ebp+3], al
  0002b	66 8b 45 0c	 mov	 ax, WORD PTR _target_pos$[ebp]
  0002f	66 89 45 fc	 mov	 WORD PTR _itemUseToItemPacket$[ebp+4], ax
  00033	8a 45 0e	 mov	 al, BYTE PTR _target_pos$[ebp+2]
  00036	88 45 fe	 mov	 BYTE PTR _itemUseToItemPacket$[ebp+6], al
  00039	8d 45 f8	 lea	 eax, DWORD PTR _itemUseToItemPacket$[ebp]
  0003c	50		 push	 eax
  0003d	6a 07		 push	 7
  0003f	c6 45 f8 3c	 mov	 BYTE PTR _itemUseToItemPacket$[ebp], 60 ; 0000003cH
  00043	e8 00 00 00 00	 call	 ?Send@CNetworkStream@@QAE_NHPBX@Z ; CNetworkStream::Send
  00048	84 c0		 test	 al, al
  0004a	75 16		 jne	 SHORT $LN3@SendItemUs

; 535  : 	{
; 536  : 		Tracen("SendItemUseToItemPacket Error");

  0004c	68 00 00 00 00	 push	 OFFSET ??_C@_0BO@FFKONCIG@SendItemUseToItemPacket?5Error@
  00051	e8 00 00 00 00	 call	 ?Tracen@@YAXPBD@Z	; Tracen
  00056	83 c4 04	 add	 esp, 4

; 537  : 		return false;

  00059	32 c0		 xor	 al, al
  0005b	5e		 pop	 esi

; 545  : }

  0005c	8b e5		 mov	 esp, ebp
  0005e	5d		 pop	 ebp
  0005f	c2 08 00	 ret	 8
$LN3@SendItemUs:

; 538  : 	}
; 539  : 
; 540  : #ifdef _DEBUG
; 541  : 	Tracef(" << SendItemUseToItemPacket(src=%d, dst=%d)\n", source_pos, target_pos);
; 542  : #endif
; 543  : 
; 544  : 	return SendSequence();

  00062	8b ce		 mov	 ecx, esi
  00064	e8 00 00 00 00	 call	 ?SendSequence@CNetworkStream@@QAE_NXZ ; CNetworkStream::SendSequence
  00069	5e		 pop	 esi

; 545  : }

  0006a	8b e5		 mov	 esp, ebp
  0006c	5d		 pop	 ebp
  0006d	c2 08 00	 ret	 8
?SendItemUseToItemPacket@CPythonNetworkStream@@QAE_NUSItemPos@@0@Z ENDP ; CPythonNetworkStream::SendItemUseToItemPacket
_TEXT	ENDS
; Function compile flags: /Ogtp
; File D:\Metin2 Server Files\mainline\SRC_2014\Metin2Client\UserInterface\PythonNetworkStreamPhaseGameItem.cpp
;	COMDAT ?SendItemUsePacket@CPythonNetworkStream@@QAE_NUSItemPos@@@Z
_TEXT	SEGMENT
_itemUsePacket$ = -4					; size = 4
_pos$ = 8						; size = 3
?SendItemUsePacket@CPythonNetworkStream@@QAE_NUSItemPos@@@Z PROC ; CPythonNetworkStream::SendItemUsePacket, COMDAT
; _this$ = ecx

; 487  : {

  00000	55		 push	 ebp
  00001	8b ec		 mov	 ebp, esp
  00003	51		 push	 ecx
  00004	56		 push	 esi
  00005	8b f1		 mov	 esi, ecx

; 488  : 	if (!__CanActMainInstance())

  00007	e8 00 00 00 00	 call	 ?__CanActMainInstance@CPythonNetworkStream@@IAE_NXZ ; CPythonNetworkStream::__CanActMainInstance
  0000c	84 c0		 test	 al, al
  0000e	74 4e		 je	 SHORT $LN13@SendItemUs

; 489  : 		return true;
; 490  : 
; 491  : 	if (__IsEquipItemInSlot(pos))

  00010	66 8b 45 08	 mov	 ax, WORD PTR _pos$[ebp]
  00014	51		 push	 ecx
  00015	8b d4		 mov	 edx, esp
  00017	8b ce		 mov	 ecx, esi
  00019	66 89 02	 mov	 WORD PTR [edx], ax
  0001c	8a 45 0a	 mov	 al, BYTE PTR _pos$[ebp+2]
  0001f	88 42 02	 mov	 BYTE PTR [edx+2], al
  00022	e8 00 00 00 00	 call	 ?__IsEquipItemInSlot@CPythonNetworkStream@@IAE_NUSItemPos@@@Z ; CPythonNetworkStream::__IsEquipItemInSlot
  00027	84 c0		 test	 al, al
  00029	74 5d		 je	 SHORT $LN6@SendItemUs

; 492  : 	{
; 493  : 		if (CPythonExchange::Instance().isTrading())

  0002b	8b 0d 00 00 00
	00		 mov	 ecx, DWORD PTR ?ms_singleton@?$CSingleton@VCPythonExchange@@@@0PAVCPythonExchange@@A ; CSingleton<CPythonExchange>::ms_singleton
  00031	e8 00 00 00 00	 call	 ?isTrading@CPythonExchange@@QAE_NXZ ; CPythonExchange::isTrading
  00036	84 c0		 test	 al, al
  00038	74 2d		 je	 SHORT $LN4@SendItemUs

; 494  : 		{
; 495  : 			PyCallClassMemberFunc(m_apoPhaseWnd[PHASE_WINDOW_GAME], "BINARY_AppendNotifyMessage", Py_BuildValue("(s)", "CANNOT_EQUIP_EXCHANGE"));

  0003a	68 00 00 00 00	 push	 OFFSET ??_C@_0BG@KBOLGOPL@CANNOT_EQUIP_EXCHANGE@
$LN14@SendItemUs:

; 522  : }

  0003f	68 00 00 00 00	 push	 OFFSET ??_C@_03KJMMOONA@?$CIs?$CJ@
  00044	ff 15 00 00 00
	00		 call	 DWORD PTR __imp__Py_BuildValue
  0004a	50		 push	 eax
  0004b	68 00 00 00 00	 push	 OFFSET ??_C@_0BL@HGBMODPD@BINARY_AppendNotifyMessage@
  00050	ff b6 90 01 00
	00		 push	 DWORD PTR [esi+400]
  00056	e8 00 00 00 00	 call	 ?PyCallClassMemberFunc@@YA_NPAU_object@@PBD0@Z ; PyCallClassMemberFunc
  0005b	83 c4 14	 add	 esp, 20			; 00000014H
$LN13@SendItemUs:
  0005e	b0 01		 mov	 al, 1
  00060	5e		 pop	 esi
  00061	8b e5		 mov	 esp, ebp
  00063	5d		 pop	 ebp
  00064	c2 04 00	 ret	 4
$LN4@SendItemUs:

; 496  : 			return true;
; 497  : 		}
; 498  : 
; 499  : 		if (CPythonShop::Instance().IsOpen())

  00067	8b 0d 00 00 00
	00		 mov	 ecx, DWORD PTR ?ms_singleton@?$CSingleton@VCPythonShop@@@@0PAVCPythonShop@@A ; CSingleton<CPythonShop>::ms_singleton
  0006d	e8 00 00 00 00	 call	 ?IsOpen@CPythonShop@@QAEHXZ ; CPythonShop::IsOpen
  00072	85 c0		 test	 eax, eax
  00074	74 07		 je	 SHORT $LN5@SendItemUs

; 500  : 		{
; 501  : 			PyCallClassMemberFunc(m_apoPhaseWnd[PHASE_WINDOW_GAME], "BINARY_AppendNotifyMessage", Py_BuildValue("(s)", "CANNOT_EQUIP_SHOP"));

  00076	68 00 00 00 00	 push	 OFFSET ??_C@_0BC@GKDHAPBC@CANNOT_EQUIP_SHOP@

; 502  : 			return true;

  0007b	eb c2		 jmp	 SHORT $LN14@SendItemUs
$LN5@SendItemUs:

; 503  : 		}
; 504  : 
; 505  : 		if (__IsPlayerAttacking())

  0007d	8b ce		 mov	 ecx, esi
  0007f	e8 00 00 00 00	 call	 ?__IsPlayerAttacking@CPythonNetworkStream@@IAE_NXZ ; CPythonNetworkStream::__IsPlayerAttacking
  00084	84 c0		 test	 al, al
  00086	75 d6		 jne	 SHORT $LN13@SendItemUs
$LN6@SendItemUs:

; 506  : 			return true;
; 507  : 	}
; 508  : 
; 509  : 	__PlayInventoryItemUseSound(pos);

  00088	66 8b 45 08	 mov	 ax, WORD PTR _pos$[ebp]
  0008c	51		 push	 ecx
  0008d	8b cc		 mov	 ecx, esp
  0008f	66 89 01	 mov	 WORD PTR [ecx], ax
  00092	8a 45 0a	 mov	 al, BYTE PTR _pos$[ebp+2]
  00095	88 41 02	 mov	 BYTE PTR [ecx+2], al
  00098	8b ce		 mov	 ecx, esi
  0009a	e8 00 00 00 00	 call	 ?__PlayInventoryItemUseSound@CPythonNetworkStream@@IAEXUSItemPos@@@Z ; CPythonNetworkStream::__PlayInventoryItemUseSound

; 510  : 
; 511  : 	TPacketCGItemUse itemUsePacket;
; 512  : 	itemUsePacket.header = HEADER_CG_ITEM_USE;
; 513  : 	itemUsePacket.pos = pos;

  0009f	66 8b 45 08	 mov	 ax, WORD PTR _pos$[ebp]

; 514  : 
; 515  : 	if (!Send(sizeof(TPacketCGItemUse), &itemUsePacket))

  000a3	8b ce		 mov	 ecx, esi
  000a5	66 89 45 fd	 mov	 WORD PTR _itemUsePacket$[ebp+1], ax
  000a9	8a 45 0a	 mov	 al, BYTE PTR _pos$[ebp+2]
  000ac	88 45 ff	 mov	 BYTE PTR _itemUsePacket$[ebp+3], al
  000af	8d 45 fc	 lea	 eax, DWORD PTR _itemUsePacket$[ebp]
  000b2	50		 push	 eax
  000b3	6a 04		 push	 4
  000b5	c6 45 fc 0b	 mov	 BYTE PTR _itemUsePacket$[ebp], 11 ; 0000000bH
  000b9	e8 00 00 00 00	 call	 ?Send@CNetworkStream@@QAE_NHPBX@Z ; CNetworkStream::Send
  000be	84 c0		 test	 al, al
  000c0	75 16		 jne	 SHORT $LN7@SendItemUs

; 516  : 	{
; 517  : 		Tracen("SendItemUsePacket Error");

  000c2	68 00 00 00 00	 push	 OFFSET ??_C@_0BI@ECNPLDED@SendItemUsePacket?5Error@
  000c7	e8 00 00 00 00	 call	 ?Tracen@@YAXPBD@Z	; Tracen
  000cc	83 c4 04	 add	 esp, 4

; 518  : 		return false;

  000cf	32 c0		 xor	 al, al

; 522  : }

  000d1	5e		 pop	 esi
  000d2	8b e5		 mov	 esp, ebp
  000d4	5d		 pop	 ebp
  000d5	c2 04 00	 ret	 4
$LN7@SendItemUs:

; 519  : 	}
; 520  : 
; 521  : 	return SendSequence();

  000d8	8b ce		 mov	 ecx, esi
  000da	e8 00 00 00 00	 call	 ?SendSequence@CNetworkStream@@QAE_NXZ ; CNetworkStream::SendSequence

; 522  : }

  000df	5e		 pop	 esi
  000e0	8b e5		 mov	 esp, ebp
  000e2	5d		 pop	 ebp
  000e3	c2 04 00	 ret	 4
?SendItemUsePacket@CPythonNetworkStream@@QAE_NUSItemPos@@@Z ENDP ; CPythonNetworkStream::SendItemUsePacket
_TEXT	ENDS
; Function compile flags: /Ogtp
; File C:\Program Files (x86)\Microsoft Visual Studio\2019\Community\VC\Tools\MSVC\14.28.29333\include\xmemory
;	COMDAT ??$_Deallocate@$07$0A@@std@@YAXPAXI@Z
_TEXT	SEGMENT
__Ptr$ = 8						; size = 4
__Bytes$ = 12						; size = 4
??$_Deallocate@$07$0A@@std@@YAXPAXI@Z PROC		; std::_Deallocate<8,0>, COMDAT

; 213  : void _Deallocate(void* _Ptr, size_t _Bytes) noexcept {

  00000	55		 push	 ebp
  00001	8b ec		 mov	 ebp, esp

; 214  :     // deallocate storage allocated by _Allocate when !_HAS_ALIGNED_NEW || _Align <= __STDCPP_DEFAULT_NEW_ALIGNMENT__
; 215  : #if defined(_M_IX86) || defined(_M_X64)
; 216  :     if (_Bytes >= _Big_allocation_threshold) { // boost the alignment of big allocations to help autovectorization

  00003	8b 4d 0c	 mov	 ecx, DWORD PTR __Bytes$[ebp]
  00006	81 f9 00 10 00
	00		 cmp	 ecx, 4096		; 00001000H
  0000c	72 18		 jb	 SHORT $LN15@Deallocate

; 137  :     const uintptr_t _Ptr_container   = _Ptr_user[-1];

  0000e	8b 45 08	 mov	 eax, DWORD PTR __Ptr$[ebp]
  00011	83 c1 23	 add	 ecx, 35			; 00000023H
  00014	8b 50 fc	 mov	 edx, DWORD PTR [eax-4]

; 138  : 
; 139  :     // If the following asserts, it likely means that we are performing
; 140  :     // an aligned delete on memory coming from an unaligned allocation.
; 141  :     _STL_ASSERT(_Ptr_user[-2] == _Big_allocation_sentinel, "invalid argument");
; 142  : 
; 143  :     // Extra paranoia on aligned allocation/deallocation; ensure _Ptr_container is
; 144  :     // in range [_Min_back_shift, _Non_user_size]
; 145  : #ifdef _DEBUG
; 146  :     constexpr uintptr_t _Min_back_shift = 2 * sizeof(void*);
; 147  : #else // ^^^ _DEBUG ^^^ // vvv !_DEBUG vvv
; 148  :     constexpr uintptr_t _Min_back_shift = sizeof(void*);
; 149  : #endif // _DEBUG
; 150  :     const uintptr_t _Back_shift = reinterpret_cast<uintptr_t>(_Ptr) - _Ptr_container;

  00017	2b c2		 sub	 eax, edx

; 151  :     _STL_VERIFY(_Back_shift >= _Min_back_shift && _Back_shift <= _Non_user_size, "invalid argument");

  00019	83 c0 fc	 add	 eax, -4			; fffffffcH
  0001c	83 f8 1f	 cmp	 eax, 31			; 0000001fH
  0001f	76 08		 jbe	 SHORT $LN13@Deallocate
  00021	e9 00 00 00 00	 jmp	 __invalid_parameter_noinfo_noreturn
$LN15@Deallocate:

; 214  :     // deallocate storage allocated by _Allocate when !_HAS_ALIGNED_NEW || _Align <= __STDCPP_DEFAULT_NEW_ALIGNMENT__
; 215  : #if defined(_M_IX86) || defined(_M_X64)
; 216  :     if (_Bytes >= _Big_allocation_threshold) { // boost the alignment of big allocations to help autovectorization

  00026	8b 55 08	 mov	 edx, DWORD PTR __Ptr$[ebp]
$LN13@Deallocate:

; 217  :         _Adjust_manually_vector_aligned(_Ptr, _Bytes);
; 218  :     }
; 219  : #endif // defined(_M_IX86) || defined(_M_X64)
; 220  : 
; 221  :     ::operator delete(_Ptr, _Bytes);

  00029	89 4d 0c	 mov	 DWORD PTR __Bytes$[ebp], ecx
  0002c	89 55 08	 mov	 DWORD PTR __Ptr$[ebp], edx

; 222  : }

  0002f	5d		 pop	 ebp

; 217  :         _Adjust_manually_vector_aligned(_Ptr, _Bytes);
; 218  :     }
; 219  : #endif // defined(_M_IX86) || defined(_M_X64)
; 220  : 
; 221  :     ::operator delete(_Ptr, _Bytes);

  00030	e9 00 00 00 00	 jmp	 ??3@YAXPAXI@Z		; operator delete
??$_Deallocate@$07$0A@@std@@YAXPAXI@Z ENDP		; std::_Deallocate<8,0>
_TEXT	ENDS
; Function compile flags: /Ogtp
; File D:\Metin2 Server Files\mainline\SRC_2014\Metin2Client\UserInterface\GameType.h
;	COMDAT ?IsEquipCell@SItemPos@@QAE_NXZ
_TEXT	SEGMENT
?IsEquipCell@SItemPos@@QAE_NXZ PROC			; SItemPos::IsEquipCell, COMDAT
; _this$ = ecx

; 223  : 		switch (window_type)

  00000	0f b6 01	 movzx	 eax, BYTE PTR [ecx]
  00003	48		 dec	 eax
  00004	83 f8 06	 cmp	 eax, 6
  00007	77 1e		 ja	 SHORT $LN6@IsEquipCel
  00009	0f b6 80 00 00
	00 00		 movzx	 eax, BYTE PTR $LN10@IsEquipCel[eax]
  00010	ff 24 85 00 00
	00 00		 jmp	 DWORD PTR $LN11@IsEquipCel[eax*4]
$LN4@IsEquipCel:

; 224  : 		{
; 225  : 		case INVENTORY:
; 226  : 		case EQUIPMENT:
; 227  : 			return (c_Equipment_Start + c_Wear_Max > cell) && (c_Equipment_Start <= cell);

  00017	66 8b 41 01	 mov	 ax, WORD PTR [ecx+1]
  0001b	66 83 e8 5a	 sub	 ax, 90			; 0000005aH
  0001f	66 83 f8 1f	 cmp	 ax, 31			; 0000001fH
  00023	0f 96 c0	 setbe	 al

; 237  : 		}
; 238  : 	}

  00026	c3		 ret	 0
$LN6@IsEquipCel:

; 228  : 			break;
; 229  : 
; 230  : 		case BELT_INVENTORY:
; 231  : 		case DRAGON_SOUL_INVENTORY:
; 232  : 			return false;
; 233  : 			break;
; 234  : 
; 235  : 		default:
; 236  : 			return false;

  00027	32 c0		 xor	 al, al

; 237  : 		}
; 238  : 	}

  00029	c3		 ret	 0
  0002a	66 90		 npad	 2
$LN11@IsEquipCel:
  0002c	00 00 00 00	 DD	 $LN4@IsEquipCel
  00030	00 00 00 00	 DD	 $LN6@IsEquipCel
  00034	00 00 00 00	 DD	 $LN6@IsEquipCel
$LN10@IsEquipCel:
  00038	00		 DB	 0
  00039	00		 DB	 0
  0003a	02		 DB	 2
  0003b	02		 DB	 2
  0003c	01		 DB	 1
  0003d	02		 DB	 2
  0003e	01		 DB	 1
?IsEquipCell@SItemPos@@QAE_NXZ ENDP			; SItemPos::IsEquipCell
_TEXT	ENDS
; Function compile flags: /Ogtp
; File D:\Metin2 Server Files\mainline\SRC_2014\Metin2Client\UserInterface\GameType.h
;	COMDAT ??0SItemPos@@QAE@XZ
_TEXT	SEGMENT
??0SItemPos@@QAE@XZ PROC				; SItemPos::SItemPos, COMDAT
; _this$ = ecx

; 185  :     {
; 186  : 		window_type =     INVENTORY;
; 187  : 		cell = WORD_MAX;

  00000	b8 ff ff 00 00	 mov	 eax, 65535		; 0000ffffH
  00005	c6 01 01	 mov	 BYTE PTR [ecx], 1
  00008	66 89 41 01	 mov	 WORD PTR [ecx+1], ax

; 188  :     }

  0000c	8b c1		 mov	 eax, ecx
  0000e	c3		 ret	 0
??0SItemPos@@QAE@XZ ENDP				; SItemPos::SItemPos
_TEXT	ENDS
; Function compile flags: /Ogtp
; File D:\Metin2 Server Files\mainline\SRC_2014\Metin2Client\UserInterface\PythonNetworkStreamPhaseGameItem.cpp
;	COMDAT ?__empty_global_delete@@YAXPAXI@Z
_TEXT	SEGMENT
___formal$ = 8						; size = 4
___formal$ = 12						; size = 4
?__empty_global_delete@@YAXPAXI@Z PROC			; __empty_global_delete, COMDAT

  00000	c2 00 00	 ret	 0
?__empty_global_delete@@YAXPAXI@Z ENDP			; __empty_global_delete
_TEXT	ENDS
; Function compile flags: /Ogtp
; File D:\Metin2 Server Files\mainline\SRC_2014\Metin2Client\UserInterface\PythonNetworkStreamPhaseGameItem.cpp
;	COMDAT ?__empty_global_delete@@YAXPAX@Z
_TEXT	SEGMENT
___formal$ = 8						; size = 4
?__empty_global_delete@@YAXPAX@Z PROC			; __empty_global_delete, COMDAT

  00000	c2 00 00	 ret	 0
?__empty_global_delete@@YAXPAX@Z ENDP			; __empty_global_delete
_TEXT	ENDS
; Function compile flags: /Ogtp
;	COMDAT ??_H@YGXPAXIIP6EPAX0@Z@Z
_TEXT	SEGMENT
___t$ = 8						; size = 4
___s$ = 12						; size = 4
___n$ = 16						; size = 4
___f$ = 20						; size = 4
??_H@YGXPAXIIP6EPAX0@Z@Z PROC				; `vector constructor iterator', COMDAT
  00000	55		 push	 ebp
  00001	8b ec		 mov	 ebp, esp
  00003	56		 push	 esi
  00004	8b 75 10	 mov	 esi, DWORD PTR ___n$[ebp]
  00007	85 f6		 test	 esi, esi
  00009	74 16		 je	 SHORT $LN6@vector
  0000b	53		 push	 ebx
  0000c	8b 5d 14	 mov	 ebx, DWORD PTR ___f$[ebp]
  0000f	57		 push	 edi
  00010	8b 7d 08	 mov	 edi, DWORD PTR ___t$[ebp]
$LL2@vector:
  00013	8b cf		 mov	 ecx, edi
  00015	ff d3		 call	 ebx
  00017	03 7d 0c	 add	 edi, DWORD PTR ___s$[ebp]
  0001a	83 ee 01	 sub	 esi, 1
  0001d	75 f4		 jne	 SHORT $LL2@vector
  0001f	5f		 pop	 edi
  00020	5b		 pop	 ebx
$LN6@vector:
  00021	5e		 pop	 esi
  00022	5d		 pop	 ebp
  00023	c2 10 00	 ret	 16			; 00000010H
??_H@YGXPAXIIP6EPAX0@Z@Z ENDP				; `vector constructor iterator'
_TEXT	ENDS
END
