; Listing generated by Microsoft (R) Optimizing Compiler Version 19.28.29335.0 

	TITLE	D:\Metin2 Server Files\mainline\SRC_2014\Metin2Client\UserInterface\PythonSkill.cpp
	.686P
	.XMM
	include listing.inc
	.model	flat

INCLUDELIB LIBCMT
INCLUDELIB OLDNAMES

PUBLIC	??_7?$CDynamicPoolEx@VCNullDecorator@NEffectUpdateDecorator@@@@6B@ ; CDynamicPoolEx<NEffectUpdateDecorator::CNullDecorator>::`vftable'
PUBLIC	??_G?$CDynamicPoolEx@VCNullDecorator@NEffectUpdateDecorator@@@@UAEPAXI@Z ; CDynamicPoolEx<NEffectUpdateDecorator::CNullDecorator>::`scalar deleting destructor'
PUBLIC	??_7?$CDynamicPoolEx@VCHeaderDecorator@NEffectUpdateDecorator@@@@6B@ ; CDynamicPoolEx<NEffectUpdateDecorator::CHeaderDecorator>::`vftable'
PUBLIC	??_G?$CDynamicPoolEx@VCHeaderDecorator@NEffectUpdateDecorator@@@@UAEPAXI@Z ; CDynamicPoolEx<NEffectUpdateDecorator::CHeaderDecorator>::`scalar deleting destructor'
PUBLIC	??_R4?$CDynamicPoolEx@VCHeaderDecorator@NEffectUpdateDecorator@@@@6B@ ; CDynamicPoolEx<NEffectUpdateDecorator::CHeaderDecorator>::`RTTI Complete Object Locator'
PUBLIC	??_R0?AV?$CDynamicPoolEx@VCHeaderDecorator@NEffectUpdateDecorator@@@@@8 ; CDynamicPoolEx<NEffectUpdateDecorator::CHeaderDecorator> `RTTI Type Descriptor'
PUBLIC	??_R3?$CDynamicPoolEx@VCHeaderDecorator@NEffectUpdateDecorator@@@@8 ; CDynamicPoolEx<NEffectUpdateDecorator::CHeaderDecorator>::`RTTI Class Hierarchy Descriptor'
PUBLIC	??_R2?$CDynamicPoolEx@VCHeaderDecorator@NEffectUpdateDecorator@@@@8 ; CDynamicPoolEx<NEffectUpdateDecorator::CHeaderDecorator>::`RTTI Base Class Array'
PUBLIC	??_R1A@?0A@EA@?$CDynamicPoolEx@VCHeaderDecorator@NEffectUpdateDecorator@@@@8 ; CDynamicPoolEx<NEffectUpdateDecorator::CHeaderDecorator>::`RTTI Base Class Descriptor at (0,-1,0,64)'
PUBLIC	??_R4?$CDynamicPoolEx@VCNullDecorator@NEffectUpdateDecorator@@@@6B@ ; CDynamicPoolEx<NEffectUpdateDecorator::CNullDecorator>::`RTTI Complete Object Locator'
PUBLIC	??_R0?AV?$CDynamicPoolEx@VCNullDecorator@NEffectUpdateDecorator@@@@@8 ; CDynamicPoolEx<NEffectUpdateDecorator::CNullDecorator> `RTTI Type Descriptor'
PUBLIC	??_R3?$CDynamicPoolEx@VCNullDecorator@NEffectUpdateDecorator@@@@8 ; CDynamicPoolEx<NEffectUpdateDecorator::CNullDecorator>::`RTTI Class Hierarchy Descriptor'
PUBLIC	??_R2?$CDynamicPoolEx@VCNullDecorator@NEffectUpdateDecorator@@@@8 ; CDynamicPoolEx<NEffectUpdateDecorator::CNullDecorator>::`RTTI Base Class Array'
PUBLIC	??_R1A@?0A@EA@?$CDynamicPoolEx@VCNullDecorator@NEffectUpdateDecorator@@@@8 ; CDynamicPoolEx<NEffectUpdateDecorator::CNullDecorator>::`RTTI Base Class Descriptor at (0,-1,0,64)'
PUBLIC	??_R4?$CDynamicPoolEx@VCTextureAnimationCWDecorator@NEffectUpdateDecorator@@@@6B@ ; CDynamicPoolEx<NEffectUpdateDecorator::CTextureAnimationCWDecorator>::`RTTI Complete Object Locator'
PUBLIC	??_R0?AV?$CDynamicPoolEx@VCTextureAnimationCWDecorator@NEffectUpdateDecorator@@@@@8 ; CDynamicPoolEx<NEffectUpdateDecorator::CTextureAnimationCWDecorator> `RTTI Type Descriptor'
PUBLIC	??_R3?$CDynamicPoolEx@VCTextureAnimationCWDecorator@NEffectUpdateDecorator@@@@8 ; CDynamicPoolEx<NEffectUpdateDecorator::CTextureAnimationCWDecorator>::`RTTI Class Hierarchy Descriptor'
PUBLIC	??_R2?$CDynamicPoolEx@VCTextureAnimationCWDecorator@NEffectUpdateDecorator@@@@8 ; CDynamicPoolEx<NEffectUpdateDecorator::CTextureAnimationCWDecorator>::`RTTI Base Class Array'
PUBLIC	??_R1A@?0A@EA@?$CDynamicPoolEx@VCTextureAnimationCWDecorator@NEffectUpdateDecorator@@@@8 ; CDynamicPoolEx<NEffectUpdateDecorator::CTextureAnimationCWDecorator>::`RTTI Base Class Descriptor at (0,-1,0,64)'
PUBLIC	??_R4?$CDynamicPoolEx@VCTextureAnimationCCWDecorator@NEffectUpdateDecorator@@@@6B@ ; CDynamicPoolEx<NEffectUpdateDecorator::CTextureAnimationCCWDecorator>::`RTTI Complete Object Locator'
PUBLIC	??_R0?AV?$CDynamicPoolEx@VCTextureAnimationCCWDecorator@NEffectUpdateDecorator@@@@@8 ; CDynamicPoolEx<NEffectUpdateDecorator::CTextureAnimationCCWDecorator> `RTTI Type Descriptor'
PUBLIC	??_R3?$CDynamicPoolEx@VCTextureAnimationCCWDecorator@NEffectUpdateDecorator@@@@8 ; CDynamicPoolEx<NEffectUpdateDecorator::CTextureAnimationCCWDecorator>::`RTTI Class Hierarchy Descriptor'
PUBLIC	??_R2?$CDynamicPoolEx@VCTextureAnimationCCWDecorator@NEffectUpdateDecorator@@@@8 ; CDynamicPoolEx<NEffectUpdateDecorator::CTextureAnimationCCWDecorator>::`RTTI Base Class Array'
PUBLIC	??_R1A@?0A@EA@?$CDynamicPoolEx@VCTextureAnimationCCWDecorator@NEffectUpdateDecorator@@@@8 ; CDynamicPoolEx<NEffectUpdateDecorator::CTextureAnimationCCWDecorator>::`RTTI Base Class Descriptor at (0,-1,0,64)'
PUBLIC	??_R4?$CDynamicPoolEx@VCTextureAnimationRandomDecorator@NEffectUpdateDecorator@@@@6B@ ; CDynamicPoolEx<NEffectUpdateDecorator::CTextureAnimationRandomDecorator>::`RTTI Complete Object Locator'
PUBLIC	??_R0?AV?$CDynamicPoolEx@VCTextureAnimationRandomDecorator@NEffectUpdateDecorator@@@@@8 ; CDynamicPoolEx<NEffectUpdateDecorator::CTextureAnimationRandomDecorator> `RTTI Type Descriptor'
PUBLIC	??_R3?$CDynamicPoolEx@VCTextureAnimationRandomDecorator@NEffectUpdateDecorator@@@@8 ; CDynamicPoolEx<NEffectUpdateDecorator::CTextureAnimationRandomDecorator>::`RTTI Class Hierarchy Descriptor'
PUBLIC	??_R2?$CDynamicPoolEx@VCTextureAnimationRandomDecorator@NEffectUpdateDecorator@@@@8 ; CDynamicPoolEx<NEffectUpdateDecorator::CTextureAnimationRandomDecorator>::`RTTI Base Class Array'
PUBLIC	??_R1A@?0A@EA@?$CDynamicPoolEx@VCTextureAnimationRandomDecorator@NEffectUpdateDecorator@@@@8 ; CDynamicPoolEx<NEffectUpdateDecorator::CTextureAnimationRandomDecorator>::`RTTI Base Class Descriptor at (0,-1,0,64)'
PUBLIC	??_R4?$CDynamicPoolEx@VCAirResistanceDecorator@NEffectUpdateDecorator@@@@6B@ ; CDynamicPoolEx<NEffectUpdateDecorator::CAirResistanceDecorator>::`RTTI Complete Object Locator'
PUBLIC	??_R0?AV?$CDynamicPoolEx@VCAirResistanceDecorator@NEffectUpdateDecorator@@@@@8 ; CDynamicPoolEx<NEffectUpdateDecorator::CAirResistanceDecorator> `RTTI Type Descriptor'
PUBLIC	??_R3?$CDynamicPoolEx@VCAirResistanceDecorator@NEffectUpdateDecorator@@@@8 ; CDynamicPoolEx<NEffectUpdateDecorator::CAirResistanceDecorator>::`RTTI Class Hierarchy Descriptor'
PUBLIC	??_R2?$CDynamicPoolEx@VCAirResistanceDecorator@NEffectUpdateDecorator@@@@8 ; CDynamicPoolEx<NEffectUpdateDecorator::CAirResistanceDecorator>::`RTTI Base Class Array'
PUBLIC	??_R1A@?0A@EA@?$CDynamicPoolEx@VCAirResistanceDecorator@NEffectUpdateDecorator@@@@8 ; CDynamicPoolEx<NEffectUpdateDecorator::CAirResistanceDecorator>::`RTTI Base Class Descriptor at (0,-1,0,64)'
PUBLIC	??_R4?$CDynamicPoolEx@VCGravityDecorator@NEffectUpdateDecorator@@@@6B@ ; CDynamicPoolEx<NEffectUpdateDecorator::CGravityDecorator>::`RTTI Complete Object Locator'
PUBLIC	??_R0?AV?$CDynamicPoolEx@VCGravityDecorator@NEffectUpdateDecorator@@@@@8 ; CDynamicPoolEx<NEffectUpdateDecorator::CGravityDecorator> `RTTI Type Descriptor'
PUBLIC	??_R3?$CDynamicPoolEx@VCGravityDecorator@NEffectUpdateDecorator@@@@8 ; CDynamicPoolEx<NEffectUpdateDecorator::CGravityDecorator>::`RTTI Class Hierarchy Descriptor'
PUBLIC	??_R2?$CDynamicPoolEx@VCGravityDecorator@NEffectUpdateDecorator@@@@8 ; CDynamicPoolEx<NEffectUpdateDecorator::CGravityDecorator>::`RTTI Base Class Array'
PUBLIC	??_R1A@?0A@EA@?$CDynamicPoolEx@VCGravityDecorator@NEffectUpdateDecorator@@@@8 ; CDynamicPoolEx<NEffectUpdateDecorator::CGravityDecorator>::`RTTI Base Class Descriptor at (0,-1,0,64)'
PUBLIC	??_R4?$CDynamicPoolEx@VCRotationDecorator@NEffectUpdateDecorator@@@@6B@ ; CDynamicPoolEx<NEffectUpdateDecorator::CRotationDecorator>::`RTTI Complete Object Locator'
PUBLIC	??_R0?AV?$CDynamicPoolEx@VCRotationDecorator@NEffectUpdateDecorator@@@@@8 ; CDynamicPoolEx<NEffectUpdateDecorator::CRotationDecorator> `RTTI Type Descriptor'
PUBLIC	??_R3?$CDynamicPoolEx@VCRotationDecorator@NEffectUpdateDecorator@@@@8 ; CDynamicPoolEx<NEffectUpdateDecorator::CRotationDecorator>::`RTTI Class Hierarchy Descriptor'
PUBLIC	??_R2?$CDynamicPoolEx@VCRotationDecorator@NEffectUpdateDecorator@@@@8 ; CDynamicPoolEx<NEffectUpdateDecorator::CRotationDecorator>::`RTTI Base Class Array'
PUBLIC	??_R1A@?0A@EA@?$CDynamicPoolEx@VCRotationDecorator@NEffectUpdateDecorator@@@@8 ; CDynamicPoolEx<NEffectUpdateDecorator::CRotationDecorator>::`RTTI Base Class Descriptor at (0,-1,0,64)'
PUBLIC	?MELEE_SKILL_TARGET_RANGE@SSkillData@CPythonSkill@@2KA ; CPythonSkill::SSkillData::MELEE_SKILL_TARGET_RANGE
PUBLIC	??_7?$CDynamicPoolEx@VCRotationDecorator@NEffectUpdateDecorator@@@@6B@ ; CDynamicPoolEx<NEffectUpdateDecorator::CRotationDecorator>::`vftable'
PUBLIC	??_G?$CDynamicPoolEx@VCRotationDecorator@NEffectUpdateDecorator@@@@UAEPAXI@Z ; CDynamicPoolEx<NEffectUpdateDecorator::CRotationDecorator>::`scalar deleting destructor'
PUBLIC	?ms_dwTimeIncreaseSkillNumber@SSkillData@CPythonSkill@@2KA ; CPythonSkill::SSkillData::ms_dwTimeIncreaseSkillNumber
PUBLIC	??_7?$CDynamicPoolEx@VCGravityDecorator@NEffectUpdateDecorator@@@@6B@ ; CDynamicPoolEx<NEffectUpdateDecorator::CGravityDecorator>::`vftable'
PUBLIC	??_G?$CDynamicPoolEx@VCGravityDecorator@NEffectUpdateDecorator@@@@UAEPAXI@Z ; CDynamicPoolEx<NEffectUpdateDecorator::CGravityDecorator>::`scalar deleting destructor'
PUBLIC	??_7?$CDynamicPoolEx@VCAirResistanceDecorator@NEffectUpdateDecorator@@@@6B@ ; CDynamicPoolEx<NEffectUpdateDecorator::CAirResistanceDecorator>::`vftable'
PUBLIC	??_G?$CDynamicPoolEx@VCAirResistanceDecorator@NEffectUpdateDecorator@@@@UAEPAXI@Z ; CDynamicPoolEx<NEffectUpdateDecorator::CAirResistanceDecorator>::`scalar deleting destructor'
PUBLIC	?SKILL_EFFECT_UPGRADE_ENABLE@@3HA		; SKILL_EFFECT_UPGRADE_ENABLE
PUBLIC	??_7?$CDynamicPoolEx@VCTextureAnimationRandomDecorator@NEffectUpdateDecorator@@@@6B@ ; CDynamicPoolEx<NEffectUpdateDecorator::CTextureAnimationRandomDecorator>::`vftable'
PUBLIC	??_G?$CDynamicPoolEx@VCTextureAnimationRandomDecorator@NEffectUpdateDecorator@@@@UAEPAXI@Z ; CDynamicPoolEx<NEffectUpdateDecorator::CTextureAnimationRandomDecorator>::`scalar deleting destructor'
PUBLIC	??_7?$CDynamicPoolEx@VCTextureAnimationCCWDecorator@NEffectUpdateDecorator@@@@6B@ ; CDynamicPoolEx<NEffectUpdateDecorator::CTextureAnimationCCWDecorator>::`vftable'
PUBLIC	??_G?$CDynamicPoolEx@VCTextureAnimationCCWDecorator@NEffectUpdateDecorator@@@@UAEPAXI@Z ; CDynamicPoolEx<NEffectUpdateDecorator::CTextureAnimationCCWDecorator>::`scalar deleting destructor'
PUBLIC	??_7?$CDynamicPoolEx@VCTextureAnimationCWDecorator@NEffectUpdateDecorator@@@@6B@ ; CDynamicPoolEx<NEffectUpdateDecorator::CTextureAnimationCWDecorator>::`vftable'
PUBLIC	??_G?$CDynamicPoolEx@VCTextureAnimationCWDecorator@NEffectUpdateDecorator@@@@UAEPAXI@Z ; CDynamicPoolEx<NEffectUpdateDecorator::CTextureAnimationCWDecorator>::`scalar deleting destructor'
EXTRN	??_E?$CDynamicPoolEx@VCNullDecorator@NEffectUpdateDecorator@@@@UAEPAXI@Z:PROC ; CDynamicPoolEx<NEffectUpdateDecorator::CNullDecorator>::`vector deleting destructor'
EXTRN	??_E?$CDynamicPoolEx@VCHeaderDecorator@NEffectUpdateDecorator@@@@UAEPAXI@Z:PROC ; CDynamicPoolEx<NEffectUpdateDecorator::CHeaderDecorator>::`vector deleting destructor'
EXTRN	??_E?$CDynamicPoolEx@VCRotationDecorator@NEffectUpdateDecorator@@@@UAEPAXI@Z:PROC ; CDynamicPoolEx<NEffectUpdateDecorator::CRotationDecorator>::`vector deleting destructor'
EXTRN	??_7type_info@@6B@:QWORD			; type_info::`vftable'
EXTRN	??_E?$CDynamicPoolEx@VCGravityDecorator@NEffectUpdateDecorator@@@@UAEPAXI@Z:PROC ; CDynamicPoolEx<NEffectUpdateDecorator::CGravityDecorator>::`vector deleting destructor'
EXTRN	??_E?$CDynamicPoolEx@VCAirResistanceDecorator@NEffectUpdateDecorator@@@@UAEPAXI@Z:PROC ; CDynamicPoolEx<NEffectUpdateDecorator::CAirResistanceDecorator>::`vector deleting destructor'
EXTRN	??_E?$CDynamicPoolEx@VCTextureAnimationRandomDecorator@NEffectUpdateDecorator@@@@UAEPAXI@Z:PROC ; CDynamicPoolEx<NEffectUpdateDecorator::CTextureAnimationRandomDecorator>::`vector deleting destructor'
EXTRN	??_E?$CDynamicPoolEx@VCTextureAnimationCCWDecorator@NEffectUpdateDecorator@@@@UAEPAXI@Z:PROC ; CDynamicPoolEx<NEffectUpdateDecorator::CTextureAnimationCCWDecorator>::`vector deleting destructor'
EXTRN	??_E?$CDynamicPoolEx@VCTextureAnimationCWDecorator@NEffectUpdateDecorator@@@@UAEPAXI@Z:PROC ; CDynamicPoolEx<NEffectUpdateDecorator::CTextureAnimationCWDecorator>::`vector deleting destructor'
_BSS	SEGMENT
?ms_dwTimeIncreaseSkillNumber@SSkillData@CPythonSkill@@2KA DD 01H DUP (?) ; CPythonSkill::SSkillData::ms_dwTimeIncreaseSkillNumber
?SKILL_EFFECT_UPGRADE_ENABLE@@3HA DD 01H DUP (?)	; SKILL_EFFECT_UPGRADE_ENABLE
_BSS	ENDS
;	COMDAT ??_7?$CDynamicPoolEx@VCTextureAnimationCWDecorator@NEffectUpdateDecorator@@@@6B@
CONST	SEGMENT
??_7?$CDynamicPoolEx@VCTextureAnimationCWDecorator@NEffectUpdateDecorator@@@@6B@ DD FLAT:??_R4?$CDynamicPoolEx@VCTextureAnimationCWDecorator@NEffectUpdateDecorator@@@@6B@ ; CDynamicPoolEx<NEffectUpdateDecorator::CTextureAnimationCWDecorator>::`vftable'
	DD	FLAT:??_E?$CDynamicPoolEx@VCTextureAnimationCWDecorator@NEffectUpdateDecorator@@@@UAEPAXI@Z
CONST	ENDS
;	COMDAT ??_7?$CDynamicPoolEx@VCTextureAnimationCCWDecorator@NEffectUpdateDecorator@@@@6B@
CONST	SEGMENT
??_7?$CDynamicPoolEx@VCTextureAnimationCCWDecorator@NEffectUpdateDecorator@@@@6B@ DD FLAT:??_R4?$CDynamicPoolEx@VCTextureAnimationCCWDecorator@NEffectUpdateDecorator@@@@6B@ ; CDynamicPoolEx<NEffectUpdateDecorator::CTextureAnimationCCWDecorator>::`vftable'
	DD	FLAT:??_E?$CDynamicPoolEx@VCTextureAnimationCCWDecorator@NEffectUpdateDecorator@@@@UAEPAXI@Z
CONST	ENDS
;	COMDAT ??_7?$CDynamicPoolEx@VCTextureAnimationRandomDecorator@NEffectUpdateDecorator@@@@6B@
CONST	SEGMENT
??_7?$CDynamicPoolEx@VCTextureAnimationRandomDecorator@NEffectUpdateDecorator@@@@6B@ DD FLAT:??_R4?$CDynamicPoolEx@VCTextureAnimationRandomDecorator@NEffectUpdateDecorator@@@@6B@ ; CDynamicPoolEx<NEffectUpdateDecorator::CTextureAnimationRandomDecorator>::`vftable'
	DD	FLAT:??_E?$CDynamicPoolEx@VCTextureAnimationRandomDecorator@NEffectUpdateDecorator@@@@UAEPAXI@Z
CONST	ENDS
;	COMDAT ??_7?$CDynamicPoolEx@VCAirResistanceDecorator@NEffectUpdateDecorator@@@@6B@
CONST	SEGMENT
??_7?$CDynamicPoolEx@VCAirResistanceDecorator@NEffectUpdateDecorator@@@@6B@ DD FLAT:??_R4?$CDynamicPoolEx@VCAirResistanceDecorator@NEffectUpdateDecorator@@@@6B@ ; CDynamicPoolEx<NEffectUpdateDecorator::CAirResistanceDecorator>::`vftable'
	DD	FLAT:??_E?$CDynamicPoolEx@VCAirResistanceDecorator@NEffectUpdateDecorator@@@@UAEPAXI@Z
CONST	ENDS
;	COMDAT ??_7?$CDynamicPoolEx@VCGravityDecorator@NEffectUpdateDecorator@@@@6B@
CONST	SEGMENT
??_7?$CDynamicPoolEx@VCGravityDecorator@NEffectUpdateDecorator@@@@6B@ DD FLAT:??_R4?$CDynamicPoolEx@VCGravityDecorator@NEffectUpdateDecorator@@@@6B@ ; CDynamicPoolEx<NEffectUpdateDecorator::CGravityDecorator>::`vftable'
	DD	FLAT:??_E?$CDynamicPoolEx@VCGravityDecorator@NEffectUpdateDecorator@@@@UAEPAXI@Z
CONST	ENDS
CONST	SEGMENT
?piecewise_construct@std@@3Upiecewise_construct_t@1@B	ORG $+1 ; std::piecewise_construct
CONST	ENDS
;	COMDAT ??_7?$CDynamicPoolEx@VCRotationDecorator@NEffectUpdateDecorator@@@@6B@
CONST	SEGMENT
??_7?$CDynamicPoolEx@VCRotationDecorator@NEffectUpdateDecorator@@@@6B@ DD FLAT:??_R4?$CDynamicPoolEx@VCRotationDecorator@NEffectUpdateDecorator@@@@6B@ ; CDynamicPoolEx<NEffectUpdateDecorator::CRotationDecorator>::`vftable'
	DD	FLAT:??_E?$CDynamicPoolEx@VCRotationDecorator@NEffectUpdateDecorator@@@@UAEPAXI@Z
CONST	ENDS
_DATA	SEGMENT
?MELEE_SKILL_TARGET_RANGE@SSkillData@CPythonSkill@@2KA DD 0aaH ; CPythonSkill::SSkillData::MELEE_SKILL_TARGET_RANGE
_DATA	ENDS
;	COMDAT ??_R1A@?0A@EA@?$CDynamicPoolEx@VCRotationDecorator@NEffectUpdateDecorator@@@@8
rdata$r	SEGMENT
??_R1A@?0A@EA@?$CDynamicPoolEx@VCRotationDecorator@NEffectUpdateDecorator@@@@8 DD FLAT:??_R0?AV?$CDynamicPoolEx@VCRotationDecorator@NEffectUpdateDecorator@@@@@8 ; CDynamicPoolEx<NEffectUpdateDecorator::CRotationDecorator>::`RTTI Base Class Descriptor at (0,-1,0,64)'
	DD	00H
	DD	00H
	DD	0ffffffffH
	DD	00H
	DD	040H
	DD	FLAT:??_R3?$CDynamicPoolEx@VCRotationDecorator@NEffectUpdateDecorator@@@@8
rdata$r	ENDS
;	COMDAT ??_R2?$CDynamicPoolEx@VCRotationDecorator@NEffectUpdateDecorator@@@@8
rdata$r	SEGMENT
??_R2?$CDynamicPoolEx@VCRotationDecorator@NEffectUpdateDecorator@@@@8 DD FLAT:??_R1A@?0A@EA@?$CDynamicPoolEx@VCRotationDecorator@NEffectUpdateDecorator@@@@8 ; CDynamicPoolEx<NEffectUpdateDecorator::CRotationDecorator>::`RTTI Base Class Array'
rdata$r	ENDS
;	COMDAT ??_R3?$CDynamicPoolEx@VCRotationDecorator@NEffectUpdateDecorator@@@@8
rdata$r	SEGMENT
??_R3?$CDynamicPoolEx@VCRotationDecorator@NEffectUpdateDecorator@@@@8 DD 00H ; CDynamicPoolEx<NEffectUpdateDecorator::CRotationDecorator>::`RTTI Class Hierarchy Descriptor'
	DD	00H
	DD	01H
	DD	FLAT:??_R2?$CDynamicPoolEx@VCRotationDecorator@NEffectUpdateDecorator@@@@8
rdata$r	ENDS
;	COMDAT ??_R0?AV?$CDynamicPoolEx@VCRotationDecorator@NEffectUpdateDecorator@@@@@8
data$rs	SEGMENT
??_R0?AV?$CDynamicPoolEx@VCRotationDecorator@NEffectUpdateDecorator@@@@@8 DD FLAT:??_7type_info@@6B@ ; CDynamicPoolEx<NEffectUpdateDecorator::CRotationDecorator> `RTTI Type Descriptor'
	DD	00H
	DB	'.?AV?$CDynamicPoolEx@VCRotationDecorator@NEffectUpdateDe'
	DB	'corator@@@@', 00H
data$rs	ENDS
;	COMDAT ??_R4?$CDynamicPoolEx@VCRotationDecorator@NEffectUpdateDecorator@@@@6B@
rdata$r	SEGMENT
??_R4?$CDynamicPoolEx@VCRotationDecorator@NEffectUpdateDecorator@@@@6B@ DD 00H ; CDynamicPoolEx<NEffectUpdateDecorator::CRotationDecorator>::`RTTI Complete Object Locator'
	DD	00H
	DD	00H
	DD	FLAT:??_R0?AV?$CDynamicPoolEx@VCRotationDecorator@NEffectUpdateDecorator@@@@@8
	DD	FLAT:??_R3?$CDynamicPoolEx@VCRotationDecorator@NEffectUpdateDecorator@@@@8
rdata$r	ENDS
;	COMDAT ??_R1A@?0A@EA@?$CDynamicPoolEx@VCGravityDecorator@NEffectUpdateDecorator@@@@8
rdata$r	SEGMENT
??_R1A@?0A@EA@?$CDynamicPoolEx@VCGravityDecorator@NEffectUpdateDecorator@@@@8 DD FLAT:??_R0?AV?$CDynamicPoolEx@VCGravityDecorator@NEffectUpdateDecorator@@@@@8 ; CDynamicPoolEx<NEffectUpdateDecorator::CGravityDecorator>::`RTTI Base Class Descriptor at (0,-1,0,64)'
	DD	00H
	DD	00H
	DD	0ffffffffH
	DD	00H
	DD	040H
	DD	FLAT:??_R3?$CDynamicPoolEx@VCGravityDecorator@NEffectUpdateDecorator@@@@8
rdata$r	ENDS
;	COMDAT ??_R2?$CDynamicPoolEx@VCGravityDecorator@NEffectUpdateDecorator@@@@8
rdata$r	SEGMENT
??_R2?$CDynamicPoolEx@VCGravityDecorator@NEffectUpdateDecorator@@@@8 DD FLAT:??_R1A@?0A@EA@?$CDynamicPoolEx@VCGravityDecorator@NEffectUpdateDecorator@@@@8 ; CDynamicPoolEx<NEffectUpdateDecorator::CGravityDecorator>::`RTTI Base Class Array'
rdata$r	ENDS
;	COMDAT ??_R3?$CDynamicPoolEx@VCGravityDecorator@NEffectUpdateDecorator@@@@8
rdata$r	SEGMENT
??_R3?$CDynamicPoolEx@VCGravityDecorator@NEffectUpdateDecorator@@@@8 DD 00H ; CDynamicPoolEx<NEffectUpdateDecorator::CGravityDecorator>::`RTTI Class Hierarchy Descriptor'
	DD	00H
	DD	01H
	DD	FLAT:??_R2?$CDynamicPoolEx@VCGravityDecorator@NEffectUpdateDecorator@@@@8
rdata$r	ENDS
;	COMDAT ??_R0?AV?$CDynamicPoolEx@VCGravityDecorator@NEffectUpdateDecorator@@@@@8
data$rs	SEGMENT
??_R0?AV?$CDynamicPoolEx@VCGravityDecorator@NEffectUpdateDecorator@@@@@8 DD FLAT:??_7type_info@@6B@ ; CDynamicPoolEx<NEffectUpdateDecorator::CGravityDecorator> `RTTI Type Descriptor'
	DD	00H
	DB	'.?AV?$CDynamicPoolEx@VCGravityDecorator@NEffectUpdateDec'
	DB	'orator@@@@', 00H
data$rs	ENDS
;	COMDAT ??_R4?$CDynamicPoolEx@VCGravityDecorator@NEffectUpdateDecorator@@@@6B@
rdata$r	SEGMENT
??_R4?$CDynamicPoolEx@VCGravityDecorator@NEffectUpdateDecorator@@@@6B@ DD 00H ; CDynamicPoolEx<NEffectUpdateDecorator::CGravityDecorator>::`RTTI Complete Object Locator'
	DD	00H
	DD	00H
	DD	FLAT:??_R0?AV?$CDynamicPoolEx@VCGravityDecorator@NEffectUpdateDecorator@@@@@8
	DD	FLAT:??_R3?$CDynamicPoolEx@VCGravityDecorator@NEffectUpdateDecorator@@@@8
rdata$r	ENDS
;	COMDAT ??_R1A@?0A@EA@?$CDynamicPoolEx@VCAirResistanceDecorator@NEffectUpdateDecorator@@@@8
rdata$r	SEGMENT
??_R1A@?0A@EA@?$CDynamicPoolEx@VCAirResistanceDecorator@NEffectUpdateDecorator@@@@8 DD FLAT:??_R0?AV?$CDynamicPoolEx@VCAirResistanceDecorator@NEffectUpdateDecorator@@@@@8 ; CDynamicPoolEx<NEffectUpdateDecorator::CAirResistanceDecorator>::`RTTI Base Class Descriptor at (0,-1,0,64)'
	DD	00H
	DD	00H
	DD	0ffffffffH
	DD	00H
	DD	040H
	DD	FLAT:??_R3?$CDynamicPoolEx@VCAirResistanceDecorator@NEffectUpdateDecorator@@@@8
rdata$r	ENDS
;	COMDAT ??_R2?$CDynamicPoolEx@VCAirResistanceDecorator@NEffectUpdateDecorator@@@@8
rdata$r	SEGMENT
??_R2?$CDynamicPoolEx@VCAirResistanceDecorator@NEffectUpdateDecorator@@@@8 DD FLAT:??_R1A@?0A@EA@?$CDynamicPoolEx@VCAirResistanceDecorator@NEffectUpdateDecorator@@@@8 ; CDynamicPoolEx<NEffectUpdateDecorator::CAirResistanceDecorator>::`RTTI Base Class Array'
rdata$r	ENDS
;	COMDAT ??_R3?$CDynamicPoolEx@VCAirResistanceDecorator@NEffectUpdateDecorator@@@@8
rdata$r	SEGMENT
??_R3?$CDynamicPoolEx@VCAirResistanceDecorator@NEffectUpdateDecorator@@@@8 DD 00H ; CDynamicPoolEx<NEffectUpdateDecorator::CAirResistanceDecorator>::`RTTI Class Hierarchy Descriptor'
	DD	00H
	DD	01H
	DD	FLAT:??_R2?$CDynamicPoolEx@VCAirResistanceDecorator@NEffectUpdateDecorator@@@@8
rdata$r	ENDS
;	COMDAT ??_R0?AV?$CDynamicPoolEx@VCAirResistanceDecorator@NEffectUpdateDecorator@@@@@8
data$rs	SEGMENT
??_R0?AV?$CDynamicPoolEx@VCAirResistanceDecorator@NEffectUpdateDecorator@@@@@8 DD FLAT:??_7type_info@@6B@ ; CDynamicPoolEx<NEffectUpdateDecorator::CAirResistanceDecorator> `RTTI Type Descriptor'
	DD	00H
	DB	'.?AV?$CDynamicPoolEx@VCAirResistanceDecorator@NEffectUpd'
	DB	'ateDecorator@@@@', 00H
data$rs	ENDS
;	COMDAT ??_R4?$CDynamicPoolEx@VCAirResistanceDecorator@NEffectUpdateDecorator@@@@6B@
rdata$r	SEGMENT
??_R4?$CDynamicPoolEx@VCAirResistanceDecorator@NEffectUpdateDecorator@@@@6B@ DD 00H ; CDynamicPoolEx<NEffectUpdateDecorator::CAirResistanceDecorator>::`RTTI Complete Object Locator'
	DD	00H
	DD	00H
	DD	FLAT:??_R0?AV?$CDynamicPoolEx@VCAirResistanceDecorator@NEffectUpdateDecorator@@@@@8
	DD	FLAT:??_R3?$CDynamicPoolEx@VCAirResistanceDecorator@NEffectUpdateDecorator@@@@8
rdata$r	ENDS
;	COMDAT ??_R1A@?0A@EA@?$CDynamicPoolEx@VCTextureAnimationRandomDecorator@NEffectUpdateDecorator@@@@8
rdata$r	SEGMENT
??_R1A@?0A@EA@?$CDynamicPoolEx@VCTextureAnimationRandomDecorator@NEffectUpdateDecorator@@@@8 DD FLAT:??_R0?AV?$CDynamicPoolEx@VCTextureAnimationRandomDecorator@NEffectUpdateDecorator@@@@@8 ; CDynamicPoolEx<NEffectUpdateDecorator::CTextureAnimationRandomDecorator>::`RTTI Base Class Descriptor at (0,-1,0,64)'
	DD	00H
	DD	00H
	DD	0ffffffffH
	DD	00H
	DD	040H
	DD	FLAT:??_R3?$CDynamicPoolEx@VCTextureAnimationRandomDecorator@NEffectUpdateDecorator@@@@8
rdata$r	ENDS
;	COMDAT ??_R2?$CDynamicPoolEx@VCTextureAnimationRandomDecorator@NEffectUpdateDecorator@@@@8
rdata$r	SEGMENT
??_R2?$CDynamicPoolEx@VCTextureAnimationRandomDecorator@NEffectUpdateDecorator@@@@8 DD FLAT:??_R1A@?0A@EA@?$CDynamicPoolEx@VCTextureAnimationRandomDecorator@NEffectUpdateDecorator@@@@8 ; CDynamicPoolEx<NEffectUpdateDecorator::CTextureAnimationRandomDecorator>::`RTTI Base Class Array'
rdata$r	ENDS
;	COMDAT ??_R3?$CDynamicPoolEx@VCTextureAnimationRandomDecorator@NEffectUpdateDecorator@@@@8
rdata$r	SEGMENT
??_R3?$CDynamicPoolEx@VCTextureAnimationRandomDecorator@NEffectUpdateDecorator@@@@8 DD 00H ; CDynamicPoolEx<NEffectUpdateDecorator::CTextureAnimationRandomDecorator>::`RTTI Class Hierarchy Descriptor'
	DD	00H
	DD	01H
	DD	FLAT:??_R2?$CDynamicPoolEx@VCTextureAnimationRandomDecorator@NEffectUpdateDecorator@@@@8
rdata$r	ENDS
;	COMDAT ??_R0?AV?$CDynamicPoolEx@VCTextureAnimationRandomDecorator@NEffectUpdateDecorator@@@@@8
data$rs	SEGMENT
??_R0?AV?$CDynamicPoolEx@VCTextureAnimationRandomDecorator@NEffectUpdateDecorator@@@@@8 DD FLAT:??_7type_info@@6B@ ; CDynamicPoolEx<NEffectUpdateDecorator::CTextureAnimationRandomDecorator> `RTTI Type Descriptor'
	DD	00H
	DB	'.?AV?$CDynamicPoolEx@VCTextureAnimationRandomDecorator@N'
	DB	'EffectUpdateDecorator@@@@', 00H
data$rs	ENDS
;	COMDAT ??_R4?$CDynamicPoolEx@VCTextureAnimationRandomDecorator@NEffectUpdateDecorator@@@@6B@
rdata$r	SEGMENT
??_R4?$CDynamicPoolEx@VCTextureAnimationRandomDecorator@NEffectUpdateDecorator@@@@6B@ DD 00H ; CDynamicPoolEx<NEffectUpdateDecorator::CTextureAnimationRandomDecorator>::`RTTI Complete Object Locator'
	DD	00H
	DD	00H
	DD	FLAT:??_R0?AV?$CDynamicPoolEx@VCTextureAnimationRandomDecorator@NEffectUpdateDecorator@@@@@8
	DD	FLAT:??_R3?$CDynamicPoolEx@VCTextureAnimationRandomDecorator@NEffectUpdateDecorator@@@@8
rdata$r	ENDS
;	COMDAT ??_R1A@?0A@EA@?$CDynamicPoolEx@VCTextureAnimationCCWDecorator@NEffectUpdateDecorator@@@@8
rdata$r	SEGMENT
??_R1A@?0A@EA@?$CDynamicPoolEx@VCTextureAnimationCCWDecorator@NEffectUpdateDecorator@@@@8 DD FLAT:??_R0?AV?$CDynamicPoolEx@VCTextureAnimationCCWDecorator@NEffectUpdateDecorator@@@@@8 ; CDynamicPoolEx<NEffectUpdateDecorator::CTextureAnimationCCWDecorator>::`RTTI Base Class Descriptor at (0,-1,0,64)'
	DD	00H
	DD	00H
	DD	0ffffffffH
	DD	00H
	DD	040H
	DD	FLAT:??_R3?$CDynamicPoolEx@VCTextureAnimationCCWDecorator@NEffectUpdateDecorator@@@@8
rdata$r	ENDS
;	COMDAT ??_R2?$CDynamicPoolEx@VCTextureAnimationCCWDecorator@NEffectUpdateDecorator@@@@8
rdata$r	SEGMENT
??_R2?$CDynamicPoolEx@VCTextureAnimationCCWDecorator@NEffectUpdateDecorator@@@@8 DD FLAT:??_R1A@?0A@EA@?$CDynamicPoolEx@VCTextureAnimationCCWDecorator@NEffectUpdateDecorator@@@@8 ; CDynamicPoolEx<NEffectUpdateDecorator::CTextureAnimationCCWDecorator>::`RTTI Base Class Array'
rdata$r	ENDS
;	COMDAT ??_R3?$CDynamicPoolEx@VCTextureAnimationCCWDecorator@NEffectUpdateDecorator@@@@8
rdata$r	SEGMENT
??_R3?$CDynamicPoolEx@VCTextureAnimationCCWDecorator@NEffectUpdateDecorator@@@@8 DD 00H ; CDynamicPoolEx<NEffectUpdateDecorator::CTextureAnimationCCWDecorator>::`RTTI Class Hierarchy Descriptor'
	DD	00H
	DD	01H
	DD	FLAT:??_R2?$CDynamicPoolEx@VCTextureAnimationCCWDecorator@NEffectUpdateDecorator@@@@8
rdata$r	ENDS
;	COMDAT ??_R0?AV?$CDynamicPoolEx@VCTextureAnimationCCWDecorator@NEffectUpdateDecorator@@@@@8
data$rs	SEGMENT
??_R0?AV?$CDynamicPoolEx@VCTextureAnimationCCWDecorator@NEffectUpdateDecorator@@@@@8 DD FLAT:??_7type_info@@6B@ ; CDynamicPoolEx<NEffectUpdateDecorator::CTextureAnimationCCWDecorator> `RTTI Type Descriptor'
	DD	00H
	DB	'.?AV?$CDynamicPoolEx@VCTextureAnimationCCWDecorator@NEff'
	DB	'ectUpdateDecorator@@@@', 00H
data$rs	ENDS
;	COMDAT ??_R4?$CDynamicPoolEx@VCTextureAnimationCCWDecorator@NEffectUpdateDecorator@@@@6B@
rdata$r	SEGMENT
??_R4?$CDynamicPoolEx@VCTextureAnimationCCWDecorator@NEffectUpdateDecorator@@@@6B@ DD 00H ; CDynamicPoolEx<NEffectUpdateDecorator::CTextureAnimationCCWDecorator>::`RTTI Complete Object Locator'
	DD	00H
	DD	00H
	DD	FLAT:??_R0?AV?$CDynamicPoolEx@VCTextureAnimationCCWDecorator@NEffectUpdateDecorator@@@@@8
	DD	FLAT:??_R3?$CDynamicPoolEx@VCTextureAnimationCCWDecorator@NEffectUpdateDecorator@@@@8
rdata$r	ENDS
;	COMDAT ??_R1A@?0A@EA@?$CDynamicPoolEx@VCTextureAnimationCWDecorator@NEffectUpdateDecorator@@@@8
rdata$r	SEGMENT
??_R1A@?0A@EA@?$CDynamicPoolEx@VCTextureAnimationCWDecorator@NEffectUpdateDecorator@@@@8 DD FLAT:??_R0?AV?$CDynamicPoolEx@VCTextureAnimationCWDecorator@NEffectUpdateDecorator@@@@@8 ; CDynamicPoolEx<NEffectUpdateDecorator::CTextureAnimationCWDecorator>::`RTTI Base Class Descriptor at (0,-1,0,64)'
	DD	00H
	DD	00H
	DD	0ffffffffH
	DD	00H
	DD	040H
	DD	FLAT:??_R3?$CDynamicPoolEx@VCTextureAnimationCWDecorator@NEffectUpdateDecorator@@@@8
rdata$r	ENDS
;	COMDAT ??_R2?$CDynamicPoolEx@VCTextureAnimationCWDecorator@NEffectUpdateDecorator@@@@8
rdata$r	SEGMENT
??_R2?$CDynamicPoolEx@VCTextureAnimationCWDecorator@NEffectUpdateDecorator@@@@8 DD FLAT:??_R1A@?0A@EA@?$CDynamicPoolEx@VCTextureAnimationCWDecorator@NEffectUpdateDecorator@@@@8 ; CDynamicPoolEx<NEffectUpdateDecorator::CTextureAnimationCWDecorator>::`RTTI Base Class Array'
rdata$r	ENDS
;	COMDAT ??_R3?$CDynamicPoolEx@VCTextureAnimationCWDecorator@NEffectUpdateDecorator@@@@8
rdata$r	SEGMENT
??_R3?$CDynamicPoolEx@VCTextureAnimationCWDecorator@NEffectUpdateDecorator@@@@8 DD 00H ; CDynamicPoolEx<NEffectUpdateDecorator::CTextureAnimationCWDecorator>::`RTTI Class Hierarchy Descriptor'
	DD	00H
	DD	01H
	DD	FLAT:??_R2?$CDynamicPoolEx@VCTextureAnimationCWDecorator@NEffectUpdateDecorator@@@@8
rdata$r	ENDS
;	COMDAT ??_R0?AV?$CDynamicPoolEx@VCTextureAnimationCWDecorator@NEffectUpdateDecorator@@@@@8
data$rs	SEGMENT
??_R0?AV?$CDynamicPoolEx@VCTextureAnimationCWDecorator@NEffectUpdateDecorator@@@@@8 DD FLAT:??_7type_info@@6B@ ; CDynamicPoolEx<NEffectUpdateDecorator::CTextureAnimationCWDecorator> `RTTI Type Descriptor'
	DD	00H
	DB	'.?AV?$CDynamicPoolEx@VCTextureAnimationCWDecorator@NEffe'
	DB	'ctUpdateDecorator@@@@', 00H
data$rs	ENDS
;	COMDAT ??_R4?$CDynamicPoolEx@VCTextureAnimationCWDecorator@NEffectUpdateDecorator@@@@6B@
rdata$r	SEGMENT
??_R4?$CDynamicPoolEx@VCTextureAnimationCWDecorator@NEffectUpdateDecorator@@@@6B@ DD 00H ; CDynamicPoolEx<NEffectUpdateDecorator::CTextureAnimationCWDecorator>::`RTTI Complete Object Locator'
	DD	00H
	DD	00H
	DD	FLAT:??_R0?AV?$CDynamicPoolEx@VCTextureAnimationCWDecorator@NEffectUpdateDecorator@@@@@8
	DD	FLAT:??_R3?$CDynamicPoolEx@VCTextureAnimationCWDecorator@NEffectUpdateDecorator@@@@8
rdata$r	ENDS
;	COMDAT ??_R1A@?0A@EA@?$CDynamicPoolEx@VCNullDecorator@NEffectUpdateDecorator@@@@8
rdata$r	SEGMENT
??_R1A@?0A@EA@?$CDynamicPoolEx@VCNullDecorator@NEffectUpdateDecorator@@@@8 DD FLAT:??_R0?AV?$CDynamicPoolEx@VCNullDecorator@NEffectUpdateDecorator@@@@@8 ; CDynamicPoolEx<NEffectUpdateDecorator::CNullDecorator>::`RTTI Base Class Descriptor at (0,-1,0,64)'
	DD	00H
	DD	00H
	DD	0ffffffffH
	DD	00H
	DD	040H
	DD	FLAT:??_R3?$CDynamicPoolEx@VCNullDecorator@NEffectUpdateDecorator@@@@8
rdata$r	ENDS
;	COMDAT ??_R2?$CDynamicPoolEx@VCNullDecorator@NEffectUpdateDecorator@@@@8
rdata$r	SEGMENT
??_R2?$CDynamicPoolEx@VCNullDecorator@NEffectUpdateDecorator@@@@8 DD FLAT:??_R1A@?0A@EA@?$CDynamicPoolEx@VCNullDecorator@NEffectUpdateDecorator@@@@8 ; CDynamicPoolEx<NEffectUpdateDecorator::CNullDecorator>::`RTTI Base Class Array'
rdata$r	ENDS
;	COMDAT ??_R3?$CDynamicPoolEx@VCNullDecorator@NEffectUpdateDecorator@@@@8
rdata$r	SEGMENT
??_R3?$CDynamicPoolEx@VCNullDecorator@NEffectUpdateDecorator@@@@8 DD 00H ; CDynamicPoolEx<NEffectUpdateDecorator::CNullDecorator>::`RTTI Class Hierarchy Descriptor'
	DD	00H
	DD	01H
	DD	FLAT:??_R2?$CDynamicPoolEx@VCNullDecorator@NEffectUpdateDecorator@@@@8
rdata$r	ENDS
;	COMDAT ??_R0?AV?$CDynamicPoolEx@VCNullDecorator@NEffectUpdateDecorator@@@@@8
data$rs	SEGMENT
??_R0?AV?$CDynamicPoolEx@VCNullDecorator@NEffectUpdateDecorator@@@@@8 DD FLAT:??_7type_info@@6B@ ; CDynamicPoolEx<NEffectUpdateDecorator::CNullDecorator> `RTTI Type Descriptor'
	DD	00H
	DB	'.?AV?$CDynamicPoolEx@VCNullDecorator@NEffectUpdateDecora'
	DB	'tor@@@@', 00H
data$rs	ENDS
;	COMDAT ??_R4?$CDynamicPoolEx@VCNullDecorator@NEffectUpdateDecorator@@@@6B@
rdata$r	SEGMENT
??_R4?$CDynamicPoolEx@VCNullDecorator@NEffectUpdateDecorator@@@@6B@ DD 00H ; CDynamicPoolEx<NEffectUpdateDecorator::CNullDecorator>::`RTTI Complete Object Locator'
	DD	00H
	DD	00H
	DD	FLAT:??_R0?AV?$CDynamicPoolEx@VCNullDecorator@NEffectUpdateDecorator@@@@@8
	DD	FLAT:??_R3?$CDynamicPoolEx@VCNullDecorator@NEffectUpdateDecorator@@@@8
rdata$r	ENDS
;	COMDAT ??_R1A@?0A@EA@?$CDynamicPoolEx@VCHeaderDecorator@NEffectUpdateDecorator@@@@8
rdata$r	SEGMENT
??_R1A@?0A@EA@?$CDynamicPoolEx@VCHeaderDecorator@NEffectUpdateDecorator@@@@8 DD FLAT:??_R0?AV?$CDynamicPoolEx@VCHeaderDecorator@NEffectUpdateDecorator@@@@@8 ; CDynamicPoolEx<NEffectUpdateDecorator::CHeaderDecorator>::`RTTI Base Class Descriptor at (0,-1,0,64)'
	DD	00H
	DD	00H
	DD	0ffffffffH
	DD	00H
	DD	040H
	DD	FLAT:??_R3?$CDynamicPoolEx@VCHeaderDecorator@NEffectUpdateDecorator@@@@8
rdata$r	ENDS
;	COMDAT ??_R2?$CDynamicPoolEx@VCHeaderDecorator@NEffectUpdateDecorator@@@@8
rdata$r	SEGMENT
??_R2?$CDynamicPoolEx@VCHeaderDecorator@NEffectUpdateDecorator@@@@8 DD FLAT:??_R1A@?0A@EA@?$CDynamicPoolEx@VCHeaderDecorator@NEffectUpdateDecorator@@@@8 ; CDynamicPoolEx<NEffectUpdateDecorator::CHeaderDecorator>::`RTTI Base Class Array'
rdata$r	ENDS
;	COMDAT ??_R3?$CDynamicPoolEx@VCHeaderDecorator@NEffectUpdateDecorator@@@@8
rdata$r	SEGMENT
??_R3?$CDynamicPoolEx@VCHeaderDecorator@NEffectUpdateDecorator@@@@8 DD 00H ; CDynamicPoolEx<NEffectUpdateDecorator::CHeaderDecorator>::`RTTI Class Hierarchy Descriptor'
	DD	00H
	DD	01H
	DD	FLAT:??_R2?$CDynamicPoolEx@VCHeaderDecorator@NEffectUpdateDecorator@@@@8
rdata$r	ENDS
;	COMDAT ??_R0?AV?$CDynamicPoolEx@VCHeaderDecorator@NEffectUpdateDecorator@@@@@8
data$rs	SEGMENT
??_R0?AV?$CDynamicPoolEx@VCHeaderDecorator@NEffectUpdateDecorator@@@@@8 DD FLAT:??_7type_info@@6B@ ; CDynamicPoolEx<NEffectUpdateDecorator::CHeaderDecorator> `RTTI Type Descriptor'
	DD	00H
	DB	'.?AV?$CDynamicPoolEx@VCHeaderDecorator@NEffectUpdateDeco'
	DB	'rator@@@@', 00H
data$rs	ENDS
;	COMDAT ??_R4?$CDynamicPoolEx@VCHeaderDecorator@NEffectUpdateDecorator@@@@6B@
rdata$r	SEGMENT
??_R4?$CDynamicPoolEx@VCHeaderDecorator@NEffectUpdateDecorator@@@@6B@ DD 00H ; CDynamicPoolEx<NEffectUpdateDecorator::CHeaderDecorator>::`RTTI Complete Object Locator'
	DD	00H
	DD	00H
	DD	FLAT:??_R0?AV?$CDynamicPoolEx@VCHeaderDecorator@NEffectUpdateDecorator@@@@@8
	DD	FLAT:??_R3?$CDynamicPoolEx@VCHeaderDecorator@NEffectUpdateDecorator@@@@8
rdata$r	ENDS
;	COMDAT ??_7?$CDynamicPoolEx@VCHeaderDecorator@NEffectUpdateDecorator@@@@6B@
CONST	SEGMENT
??_7?$CDynamicPoolEx@VCHeaderDecorator@NEffectUpdateDecorator@@@@6B@ DD FLAT:??_R4?$CDynamicPoolEx@VCHeaderDecorator@NEffectUpdateDecorator@@@@6B@ ; CDynamicPoolEx<NEffectUpdateDecorator::CHeaderDecorator>::`vftable'
	DD	FLAT:??_E?$CDynamicPoolEx@VCHeaderDecorator@NEffectUpdateDecorator@@@@UAEPAXI@Z
CONST	ENDS
;	COMDAT ??_7?$CDynamicPoolEx@VCNullDecorator@NEffectUpdateDecorator@@@@6B@
CONST	SEGMENT
??_7?$CDynamicPoolEx@VCNullDecorator@NEffectUpdateDecorator@@@@6B@ DD FLAT:??_R4?$CDynamicPoolEx@VCNullDecorator@NEffectUpdateDecorator@@@@6B@ ; CDynamicPoolEx<NEffectUpdateDecorator::CNullDecorator>::`vftable'
	DD	FLAT:??_E?$CDynamicPoolEx@VCNullDecorator@NEffectUpdateDecorator@@@@UAEPAXI@Z
CONST	ENDS
PUBLIC	??_H@YGXPAXIIP6EPAX0@Z@Z			; `vector constructor iterator'
PUBLIC	?__empty_global_delete@@YAXPAX@Z		; __empty_global_delete
PUBLIC	?__empty_global_delete@@YAXPAXI@Z		; __empty_global_delete
PUBLIC	___local_stdio_printf_options
PUBLIC	_fprintf
PUBLIC	_sprintf
PUBLIC	__snprintf
PUBLIC	??0exception@std@@QAE@ABV01@@Z			; std::exception::exception
PUBLIC	??1exception@std@@UAE@XZ			; std::exception::~exception
PUBLIC	?what@exception@std@@UBEPBDXZ			; std::exception::what
PUBLIC	??_Gexception@std@@UAEPAXI@Z			; std::exception::`scalar deleting destructor'
PUBLIC	??0bad_alloc@std@@QAE@ABV01@@Z			; std::bad_alloc::bad_alloc
PUBLIC	??_Gbad_alloc@std@@UAEPAXI@Z			; std::bad_alloc::`scalar deleting destructor'
PUBLIC	??0bad_array_new_length@std@@QAE@XZ		; std::bad_array_new_length::bad_array_new_length
PUBLIC	??1bad_array_new_length@std@@UAE@XZ		; std::bad_array_new_length::~bad_array_new_length
PUBLIC	??0bad_array_new_length@std@@QAE@ABV01@@Z	; std::bad_array_new_length::bad_array_new_length
PUBLIC	??_Gbad_array_new_length@std@@UAEPAXI@Z		; std::bad_array_new_length::`scalar deleting destructor'
PUBLIC	?_Throw_bad_array_new_length@std@@YAXXZ		; std::_Throw_bad_array_new_length
PUBLIC	?_Xlen_string@std@@YAXXZ			; std::_Xlen_string
PUBLIC	?_Xran@?$_String_val@U?$_Simple_types@D@std@@@std@@SAXXZ ; std::_String_val<std::_Simple_types<char> >::_Xran
PUBLIC	??0?$basic_string@DU?$char_traits@D@std@@V?$allocator@D@2@@std@@QAE@ABV01@@Z ; std::basic_string<char,std::char_traits<char>,std::allocator<char> >::basic_string<char,std::char_traits<char>,std::allocator<char> >
PUBLIC	??0?$basic_string@DU?$char_traits@D@std@@V?$allocator@D@2@@std@@QAE@QBD@Z ; std::basic_string<char,std::char_traits<char>,std::allocator<char> >::basic_string<char,std::char_traits<char>,std::allocator<char> >
PUBLIC	??4?$basic_string@DU?$char_traits@D@std@@V?$allocator@D@2@@std@@QAEAAV01@$$QAV01@@Z ; std::basic_string<char,std::char_traits<char>,std::allocator<char> >::operator=
PUBLIC	??1?$basic_string@DU?$char_traits@D@std@@V?$allocator@D@2@@std@@QAE@XZ ; std::basic_string<char,std::char_traits<char>,std::allocator<char> >::~basic_string<char,std::char_traits<char>,std::allocator<char> >
PUBLIC	?append@?$basic_string@DU?$char_traits@D@std@@V?$allocator@D@2@@std@@QAEAAV12@QBDI@Z ; std::basic_string<char,std::char_traits<char>,std::allocator<char> >::append
PUBLIC	?assign@?$basic_string@DU?$char_traits@D@std@@V?$allocator@D@2@@std@@QAEAAV12@QBDI@Z ; std::basic_string<char,std::char_traits<char>,std::allocator<char> >::assign
PUBLIC	?assign@?$basic_string@DU?$char_traits@D@std@@V?$allocator@D@2@@std@@QAEAAV12@QBD@Z ; std::basic_string<char,std::char_traits<char>,std::allocator<char> >::assign
PUBLIC	?replace@?$basic_string@DU?$char_traits@D@std@@V?$allocator@D@2@@std@@QAEAAV12@IIQBDI@Z ; std::basic_string<char,std::char_traits<char>,std::allocator<char> >::replace
PUBLIC	?reserve@?$basic_string@DU?$char_traits@D@std@@V?$allocator@D@2@@std@@QAEXI@Z ; std::basic_string<char,std::char_traits<char>,std::allocator<char> >::reserve
PUBLIC	?find@?$basic_string@DU?$char_traits@D@std@@V?$allocator@D@2@@std@@QBEIQBDI@Z ; std::basic_string<char,std::char_traits<char>,std::allocator<char> >::find
PUBLIC	?_Throw_tree_length_error@std@@YAXXZ		; std::_Throw_tree_length_error
PUBLIC	?deallocate@?$allocator@V?$basic_string@DU?$char_traits@D@std@@V?$allocator@D@2@@std@@@std@@QAEXQAV?$basic_string@DU?$char_traits@D@std@@V?$allocator@D@2@@2@I@Z ; std::allocator<std::basic_string<char,std::char_traits<char>,std::allocator<char> > >::deallocate
PUBLIC	??1?$vector@V?$basic_string@DU?$char_traits@D@std@@V?$allocator@D@2@@std@@V?$allocator@V?$basic_string@DU?$char_traits@D@std@@V?$allocator@D@2@@std@@@2@@std@@QAE@XZ ; std::vector<std::basic_string<char,std::char_traits<char>,std::allocator<char> >,std::allocator<std::basic_string<char,std::char_traits<char>,std::allocator<char> > > >::~vector<std::basic_string<char,std::char_traits<char>,std::allocator<char> >,std::allocator<std::basic_string<char,std::char_traits<char>,std::allocator<char> > > >
PUBLIC	?_Reallocate_exactly@?$vector@V?$basic_string@DU?$char_traits@D@std@@V?$allocator@D@2@@std@@V?$allocator@V?$basic_string@DU?$char_traits@D@std@@V?$allocator@D@2@@std@@@2@@std@@AAEXI@Z ; std::vector<std::basic_string<char,std::char_traits<char>,std::allocator<char> >,std::allocator<std::basic_string<char,std::char_traits<char>,std::allocator<char> > > >::_Reallocate_exactly
PUBLIC	?_Destroy@?$vector@V?$basic_string@DU?$char_traits@D@std@@V?$allocator@D@2@@std@@V?$allocator@V?$basic_string@DU?$char_traits@D@std@@V?$allocator@D@2@@std@@@2@@std@@AAEXPAV?$basic_string@DU?$char_traits@D@std@@V?$allocator@D@2@@2@0@Z ; std::vector<std::basic_string<char,std::char_traits<char>,std::allocator<char> >,std::allocator<std::basic_string<char,std::char_traits<char>,std::allocator<char> > > >::_Destroy
PUBLIC	?_Change_array@?$vector@V?$basic_string@DU?$char_traits@D@std@@V?$allocator@D@2@@std@@V?$allocator@V?$basic_string@DU?$char_traits@D@std@@V?$allocator@D@2@@std@@@2@@std@@AAEXQAV?$basic_string@DU?$char_traits@D@std@@V?$allocator@D@2@@2@II@Z ; std::vector<std::basic_string<char,std::char_traits<char>,std::allocator<char> >,std::allocator<std::basic_string<char,std::char_traits<char>,std::allocator<char> > > >::_Change_array
PUBLIC	?_Tidy@?$vector@V?$basic_string@DU?$char_traits@D@std@@V?$allocator@D@2@@std@@V?$allocator@V?$basic_string@DU?$char_traits@D@std@@V?$allocator@D@2@@std@@@2@@std@@AAEXXZ ; std::vector<std::basic_string<char,std::char_traits<char>,std::allocator<char> >,std::allocator<std::basic_string<char,std::char_traits<char>,std::allocator<char> > > >::_Tidy
PUBLIC	?_Xlength@?$vector@V?$basic_string@DU?$char_traits@D@std@@V?$allocator@D@2@@std@@V?$allocator@V?$basic_string@DU?$char_traits@D@std@@V?$allocator@D@2@@std@@@2@@std@@CAXXZ ; std::vector<std::basic_string<char,std::char_traits<char>,std::allocator<char> >,std::allocator<std::basic_string<char,std::char_traits<char>,std::allocator<char> > > >::_Xlength
PUBLIC	?_Xrange@?$vector@V?$basic_string@DU?$char_traits@D@std@@V?$allocator@D@2@@std@@V?$allocator@V?$basic_string@DU?$char_traits@D@std@@V?$allocator@D@2@@std@@@2@@std@@CAXXZ ; std::vector<std::basic_string<char,std::char_traits<char>,std::allocator<char> >,std::allocator<std::basic_string<char,std::char_traits<char>,std::allocator<char> > > >::_Xrange
PUBLIC	?initskill@@YAXXZ				; initskill
PUBLIC	??$_Traits_compare@U?$char_traits@D@std@@@std@@YAHQBDI0I@Z ; std::_Traits_compare<std::char_traits<char> >
PUBLIC	??$_Destroy_in_place@PAD@std@@YAXAAPAD@Z	; std::_Destroy_in_place<char *>
PUBLIC	??$_Construct_in_place@PADABQAD@std@@YAXAAPADABQAD@Z ; std::_Construct_in_place<char *,char * const &>
PUBLIC	??$_Pocma@V?$allocator@D@std@@@std@@YAXAAV?$allocator@D@0@0@Z ; std::_Pocma<std::allocator<char> >
PUBLIC	??$_Deallocate@$07$0A@@std@@YAXPAXI@Z		; std::_Deallocate<8,0>
PUBLIC	??$_Allocate@$07U_Default_allocate_traits@std@@$0A@@std@@YAPAXI@Z ; std::_Allocate<8,std::_Default_allocate_traits,0>
PUBLIC	??$_Allocate_manually_vector_aligned@U_Default_allocate_traits@std@@@std@@YAPAXI@Z ; std::_Allocate_manually_vector_aligned<std::_Default_allocate_traits>
PUBLIC	??1?$CSingleton@VCPythonSkill@@@@UAE@XZ		; CSingleton<CPythonSkill>::~CSingleton<CPythonSkill>
PUBLIC	??_G?$CSingleton@VCPythonSkill@@@@UAEPAXI@Z	; CSingleton<CPythonSkill>::`scalar deleting destructor'
PUBLIC	??1SAffectData@CPythonSkill@@QAE@XZ		; CPythonSkill::SAffectData::~SAffectData
PUBLIC	??0SGradeData@CPythonSkill@@QAE@XZ		; CPythonSkill::SGradeData::SGradeData
PUBLIC	??1SGradeData@CPythonSkill@@QAE@XZ		; CPythonSkill::SGradeData::~SGradeData
PUBLIC	??0SGradeData@CPythonSkill@@QAE@ABU01@@Z	; CPythonSkill::SGradeData::SGradeData
PUBLIC	??0SGradeData@CPythonSkill@@QAE@$$QAU01@@Z	; CPythonSkill::SGradeData::SGradeData
PUBLIC	??0SSkillData@CPythonSkill@@QAE@XZ		; CPythonSkill::SSkillData::SSkillData
PUBLIC	?GetTargetRange@SSkillData@CPythonSkill@@QBEKXZ	; CPythonSkill::SSkillData::GetTargetRange
PUBLIC	?CanChangeDirection@SSkillData@CPythonSkill@@QAEHXZ ; CPythonSkill::SSkillData::CanChangeDirection
PUBLIC	?IsFanRange@SSkillData@CPythonSkill@@QAEHXZ	; CPythonSkill::SSkillData::IsFanRange
PUBLIC	?IsCircleRange@SSkillData@CPythonSkill@@QAEHXZ	; CPythonSkill::SSkillData::IsCircleRange
PUBLIC	?IsAutoSearchTarget@SSkillData@CPythonSkill@@QAEHXZ ; CPythonSkill::SSkillData::IsAutoSearchTarget
PUBLIC	?IsNeedTarget@SSkillData@CPythonSkill@@QAEHXZ	; CPythonSkill::SSkillData::IsNeedTarget
PUBLIC	?IsNeedCorpse@SSkillData@CPythonSkill@@QAEHXZ	; CPythonSkill::SSkillData::IsNeedCorpse
PUBLIC	?IsToggleSkill@SSkillData@CPythonSkill@@QAEHXZ	; CPythonSkill::SSkillData::IsToggleSkill
PUBLIC	?IsUseHPSkill@SSkillData@CPythonSkill@@QAEHXZ	; CPythonSkill::SSkillData::IsUseHPSkill
PUBLIC	?IsStandingSkill@SSkillData@CPythonSkill@@QAEHXZ ; CPythonSkill::SSkillData::IsStandingSkill
PUBLIC	?CanUseWeaponType@SSkillData@CPythonSkill@@QAEHK@Z ; CPythonSkill::SSkillData::CanUseWeaponType
PUBLIC	?IsOnlyForAlliance@SSkillData@CPythonSkill@@QAEHXZ ; CPythonSkill::SSkillData::IsOnlyForAlliance
PUBLIC	?CanUseForMe@SSkillData@CPythonSkill@@QAEHXZ	; CPythonSkill::SSkillData::CanUseForMe
PUBLIC	?CanUseIfNotEnough@SSkillData@CPythonSkill@@QAEHXZ ; CPythonSkill::SSkillData::CanUseIfNotEnough
PUBLIC	?IsNeedEmptyBottle@SSkillData@CPythonSkill@@QAEHXZ ; CPythonSkill::SSkillData::IsNeedEmptyBottle
PUBLIC	?IsNeedPoisonBottle@SSkillData@CPythonSkill@@QAEHXZ ; CPythonSkill::SSkillData::IsNeedPoisonBottle
PUBLIC	?IsNeedBow@SSkillData@CPythonSkill@@QAEHXZ	; CPythonSkill::SSkillData::IsNeedBow
PUBLIC	?IsAttackSkill@SSkillData@CPythonSkill@@QAEHXZ	; CPythonSkill::SSkillData::IsAttackSkill
PUBLIC	?IsHorseSkill@SSkillData@CPythonSkill@@QAEHXZ	; CPythonSkill::SSkillData::IsHorseSkill
PUBLIC	?IsMovingSkill@SSkillData@CPythonSkill@@QAEHXZ	; CPythonSkill::SSkillData::IsMovingSkill
PUBLIC	?IsTimeIncreaseSkill@SSkillData@CPythonSkill@@QAEHXZ ; CPythonSkill::SSkillData::IsTimeIncreaseSkill
PUBLIC	?IsMeleeSkill@SSkillData@CPythonSkill@@QAEHXZ	; CPythonSkill::SSkillData::IsMeleeSkill
PUBLIC	?IsChargeSkill@SSkillData@CPythonSkill@@QAEHXZ	; CPythonSkill::SSkillData::IsChargeSkill
PUBLIC	?IsOnlyForGuildWar@SSkillData@CPythonSkill@@QAEHXZ ; CPythonSkill::SSkillData::IsOnlyForGuildWar
PUBLIC	?GetState@SSkillData@CPythonSkill@@QAE_NPBDPAHH@Z ; CPythonSkill::SSkillData::GetState
PUBLIC	?ProcessFormula@SSkillData@CPythonSkill@@QAEMPAVCPoly@@MH@Z ; CPythonSkill::SSkillData::ProcessFormula
PUBLIC	?GetAffectDescription@SSkillData@CPythonSkill@@QAEPBDKM@Z ; CPythonSkill::SSkillData::GetAffectDescription
PUBLIC	?GetSkillCoolTime@SSkillData@CPythonSkill@@QAEKM@Z ; CPythonSkill::SSkillData::GetSkillCoolTime
PUBLIC	?GetNeedSP@SSkillData@CPythonSkill@@QAEHM@Z	; CPythonSkill::SSkillData::GetNeedSP
PUBLIC	?GetContinuationSP@SSkillData@CPythonSkill@@QAEKM@Z ; CPythonSkill::SSkillData::GetContinuationSP
PUBLIC	?GetMotionLoopCount@SSkillData@CPythonSkill@@QAEKM@Z ; CPythonSkill::SSkillData::GetMotionLoopCount
PUBLIC	?GetTargetCount@SSkillData@CPythonSkill@@QAEKM@Z ; CPythonSkill::SSkillData::GetTargetCount
PUBLIC	?GetDuration@SSkillData@CPythonSkill@@QAEKM@Z	; CPythonSkill::SSkillData::GetDuration
PUBLIC	?GetSkillMotionIndex@SSkillData@CPythonSkill@@QAEKH@Z ; CPythonSkill::SSkillData::GetSkillMotionIndex
PUBLIC	?GetMaxLevel@SSkillData@CPythonSkill@@QAEEXZ	; CPythonSkill::SSkillData::GetMaxLevel
PUBLIC	?GetLevelUpPoint@SSkillData@CPythonSkill@@QAEEXZ ; CPythonSkill::SSkillData::GetLevelUpPoint
PUBLIC	?IsCanUseSkill@SSkillData@CPythonSkill@@QAE_NXZ	; CPythonSkill::SSkillData::IsCanUseSkill
PUBLIC	?IsNoMotion@SSkillData@CPythonSkill@@QAEHXZ	; CPythonSkill::SSkillData::IsNoMotion
PUBLIC	?GetName@SSkillData@CPythonSkill@@QBE?BV?$basic_string@DU?$char_traits@D@std@@V?$allocator@D@2@@std@@XZ ; CPythonSkill::SSkillData::GetName
PUBLIC	?GetType@SSkillData@CPythonSkill@@QBEEXZ	; CPythonSkill::SSkillData::GetType
PUBLIC	??1?$vector@USAffectData@CPythonSkill@@V?$allocator@USAffectData@CPythonSkill@@@std@@@std@@QAE@XZ ; std::vector<CPythonSkill::SAffectData,std::allocator<CPythonSkill::SAffectData> >::~vector<CPythonSkill::SAffectData,std::allocator<CPythonSkill::SAffectData> >
PUBLIC	?_Change_array@?$vector@USAffectData@CPythonSkill@@V?$allocator@USAffectData@CPythonSkill@@@std@@@std@@AAEXQAUSAffectData@CPythonSkill@@II@Z ; std::vector<CPythonSkill::SAffectData,std::allocator<CPythonSkill::SAffectData> >::_Change_array
PUBLIC	?_Tidy@?$vector@USAffectData@CPythonSkill@@V?$allocator@USAffectData@CPythonSkill@@@std@@@std@@AAEXXZ ; std::vector<CPythonSkill::SAffectData,std::allocator<CPythonSkill::SAffectData> >::_Tidy
PUBLIC	?_Xlength@?$vector@USAffectData@CPythonSkill@@V?$allocator@USAffectData@CPythonSkill@@@std@@@std@@CAXXZ ; std::vector<CPythonSkill::SAffectData,std::allocator<CPythonSkill::SAffectData> >::_Xlength
PUBLIC	??1?$vector@USAffectDataNew@CPythonSkill@@V?$allocator@USAffectDataNew@CPythonSkill@@@std@@@std@@QAE@XZ ; std::vector<CPythonSkill::SAffectDataNew,std::allocator<CPythonSkill::SAffectDataNew> >::~vector<CPythonSkill::SAffectDataNew,std::allocator<CPythonSkill::SAffectDataNew> >
PUBLIC	?_Reallocate_exactly@?$vector@USAffectDataNew@CPythonSkill@@V?$allocator@USAffectDataNew@CPythonSkill@@@std@@@std@@AAEXI@Z ; std::vector<CPythonSkill::SAffectDataNew,std::allocator<CPythonSkill::SAffectDataNew> >::_Reallocate_exactly
PUBLIC	?_Tidy@?$vector@USAffectDataNew@CPythonSkill@@V?$allocator@USAffectDataNew@CPythonSkill@@@std@@@std@@AAEXXZ ; std::vector<CPythonSkill::SAffectDataNew,std::allocator<CPythonSkill::SAffectDataNew> >::_Tidy
PUBLIC	??1?$vector@USRequireStatData@CPythonSkill@@V?$allocator@USRequireStatData@CPythonSkill@@@std@@@std@@QAE@XZ ; std::vector<CPythonSkill::SRequireStatData,std::allocator<CPythonSkill::SRequireStatData> >::~vector<CPythonSkill::SRequireStatData,std::allocator<CPythonSkill::SRequireStatData> >
PUBLIC	??1SSkillData@CPythonSkill@@QAE@XZ		; CPythonSkill::SSkillData::~SSkillData
PUBLIC	??0SSkillData@CPythonSkill@@QAE@ABU01@@Z	; CPythonSkill::SSkillData::SSkillData
PUBLIC	??0SSkillData@CPythonSkill@@QAE@$$QAU01@@Z	; CPythonSkill::SSkillData::SSkillData
PUBLIC	??0CPythonSkill@@QAE@XZ				; CPythonSkill::CPythonSkill
PUBLIC	??1CPythonSkill@@UAE@XZ				; CPythonSkill::~CPythonSkill
PUBLIC	?Destroy@CPythonSkill@@QAEXXZ			; CPythonSkill::Destroy
PUBLIC	?RegisterSkill@CPythonSkill@@QAE_NKPBD@Z	; CPythonSkill::RegisterSkill
PUBLIC	?RegisterSkillTable@CPythonSkill@@QAE_NPBD@Z	; CPythonSkill::RegisterSkillTable
PUBLIC	?RegisterSkillDesc@CPythonSkill@@QAE_NPBD@Z	; CPythonSkill::RegisterSkillDesc
PUBLIC	?GetSkillData@CPythonSkill@@QAEHKPAPAUSSkillData@1@@Z ; CPythonSkill::GetSkillData
PUBLIC	?GetSkillDataByName@CPythonSkill@@QAE_NPBDPAPAUSSkillData@1@@Z ; CPythonSkill::GetSkillDataByName
PUBLIC	?SetPathName@CPythonSkill@@QAEXPBD@Z		; CPythonSkill::SetPathName
PUBLIC	?GetPathName@CPythonSkill@@QAEPBDXZ		; CPythonSkill::GetPathName
PUBLIC	?TEST@CPythonSkill@@QAEXXZ			; CPythonSkill::TEST
PUBLIC	?__RegisterGradeIconImage@CPythonSkill@@IAEXAAUSSkillData@1@PBD1@Z ; CPythonSkill::__RegisterGradeIconImage
PUBLIC	?__RegisterNormalIconImage@CPythonSkill@@IAEXAAUSSkillData@1@PBD1@Z ; CPythonSkill::__RegisterNormalIconImage
PUBLIC	?_Insert_node@?$_Tree_val@U?$_Tree_simple_types@U?$pair@$$CBKUSSkillData@CPythonSkill@@@std@@@std@@@std@@QAEPAU?$_Tree_node@U?$pair@$$CBKUSSkillData@CPythonSkill@@@std@@PAX@2@U?$_Tree_id@PAU?$_Tree_node@U?$pair@$$CBKUSSkillData@CPythonSkill@@@std@@PAX@std@@@2@QAU32@@Z ; std::_Tree_val<std::_Tree_simple_types<std::pair<unsigned long const ,CPythonSkill::SSkillData> > >::_Insert_node
PUBLIC	??1?$map@KUSSkillData@CPythonSkill@@U?$less@K@std@@V?$allocator@U?$pair@$$CBKUSSkillData@CPythonSkill@@@std@@@4@@std@@QAE@XZ ; std::map<unsigned long,CPythonSkill::SSkillData,std::less<unsigned long>,std::allocator<std::pair<unsigned long const ,CPythonSkill::SSkillData> > >::~map<unsigned long,CPythonSkill::SSkillData,std::less<unsigned long>,std::allocator<std::pair<unsigned long const ,CPythonSkill::SSkillData> > >
PUBLIC	?_Insert_node@?$_Tree_val@U?$_Tree_simple_types@U?$pair@$$CBV?$basic_string@DU?$char_traits@D@std@@V?$allocator@D@2@@std@@K@std@@@std@@@std@@QAEPAU?$_Tree_node@U?$pair@$$CBV?$basic_string@DU?$char_traits@D@std@@V?$allocator@D@2@@std@@K@std@@PAX@2@U?$_Tree_id@PAU?$_Tree_node@U?$pair@$$CBV?$basic_string@DU?$char_traits@D@std@@V?$allocator@D@2@@std@@K@std@@PAX@std@@@2@QAU32@@Z ; std::_Tree_val<std::_Tree_simple_types<std::pair<std::basic_string<char,std::char_traits<char>,std::allocator<char> > const ,unsigned long> > >::_Insert_node
PUBLIC	??1?$map@V?$basic_string@DU?$char_traits@D@std@@V?$allocator@D@2@@std@@KU?$less@V?$basic_string@DU?$char_traits@D@std@@V?$allocator@D@2@@std@@@2@V?$allocator@U?$pair@$$CBV?$basic_string@DU?$char_traits@D@std@@V?$allocator@D@2@@std@@K@std@@@2@@std@@QAE@XZ ; std::map<std::basic_string<char,std::char_traits<char>,std::allocator<char> >,unsigned long,std::less<std::basic_string<char,std::char_traits<char>,std::allocator<char> > >,std::allocator<std::pair<std::basic_string<char,std::char_traits<char>,std::allocator<char> > const ,unsigned long> > >::~map<std::basic_string<char,std::char_traits<char>,std::allocator<char> >,unsigned long,std::less<std::basic_string<char,std::char_traits<char>,std::allocator<char> > >,std::allocator<std::pair<std::basic_string<char,std::char_traits<char>,std::allocator<char> > const ,unsigned long> > >
PUBLIC	?_Insert_node@?$_Tree_val@U?$_Tree_simple_types@U?$pair@$$CBV?$basic_string@DU?$char_traits@D@std@@V?$allocator@D@2@@std@@V12@@std@@@std@@@std@@QAEPAU?$_Tree_node@U?$pair@$$CBV?$basic_string@DU?$char_traits@D@std@@V?$allocator@D@2@@std@@V12@@std@@PAX@2@U?$_Tree_id@PAU?$_Tree_node@U?$pair@$$CBV?$basic_string@DU?$char_traits@D@std@@V?$allocator@D@2@@std@@V12@@std@@PAX@std@@@2@QAU32@@Z ; std::_Tree_val<std::_Tree_simple_types<std::pair<std::basic_string<char,std::char_traits<char>,std::allocator<char> > const ,std::basic_string<char,std::char_traits<char>,std::allocator<char> > > > >::_Insert_node
PUBLIC	??1?$map@V?$basic_string@DU?$char_traits@D@std@@V?$allocator@D@2@@std@@V12@U?$less@V?$basic_string@DU?$char_traits@D@std@@V?$allocator@D@2@@std@@@2@V?$allocator@U?$pair@$$CBV?$basic_string@DU?$char_traits@D@std@@V?$allocator@D@2@@std@@V12@@std@@@2@@std@@QAE@XZ ; std::map<std::basic_string<char,std::char_traits<char>,std::allocator<char> >,std::basic_string<char,std::char_traits<char>,std::allocator<char> >,std::less<std::basic_string<char,std::char_traits<char>,std::allocator<char> > >,std::allocator<std::pair<std::basic_string<char,std::char_traits<char>,std::allocator<char> > const ,std::basic_string<char,std::char_traits<char>,std::allocator<char> > > > >::~map<std::basic_string<char,std::char_traits<char>,std::allocator<char> >,std::basic_string<char,std::char_traits<char>,std::allocator<char> >,std::less<std::basic_string<char,std::char_traits<char>,std::allocator<char> > >,std::allocator<std::pair<std::basic_string<char,std::char_traits<char>,std::allocator<char> > const ,std::basic_string<char,std::char_traits<char>,std::allocator<char> > > > >
PUBLIC	??_GCPythonSkill@@UAEPAXI@Z			; CPythonSkill::`scalar deleting destructor'
PUBLIC	?SplitLine@@YAHPBDPAV?$vector@V?$basic_string@DU?$char_traits@D@std@@V?$allocator@D@2@@std@@V?$allocator@V?$basic_string@DU?$char_traits@D@std@@V?$allocator@D@2@@std@@@2@@std@@0@Z ; SplitLine
PUBLIC	?string_replace_word@@YAXPBDH0H0HAAV?$basic_string@DU?$char_traits@D@std@@V?$allocator@D@2@@std@@@Z ; string_replace_word
PUBLIC	??1?$pair@$$CBKUSSkillData@CPythonSkill@@@std@@QAE@XZ ; std::pair<unsigned long const ,CPythonSkill::SSkillData>::~pair<unsigned long const ,CPythonSkill::SSkillData>
PUBLIC	??1?$pair@KUSSkillData@CPythonSkill@@@std@@QAE@XZ ; std::pair<unsigned long,CPythonSkill::SSkillData>::~pair<unsigned long,CPythonSkill::SSkillData>
PUBLIC	??1?$pair@$$CBV?$basic_string@DU?$char_traits@D@std@@V?$allocator@D@2@@std@@K@std@@QAE@XZ ; std::pair<std::basic_string<char,std::char_traits<char>,std::allocator<char> > const ,unsigned long>::~pair<std::basic_string<char,std::char_traits<char>,std::allocator<char> > const ,unsigned long>
PUBLIC	??$?HDU?$char_traits@D@std@@V?$allocator@D@1@@std@@YA?AV?$basic_string@DU?$char_traits@D@std@@V?$allocator@D@2@@0@ABV10@0@Z ; std::operator+<char,std::char_traits<char>,std::allocator<char> >
PUBLIC	??$insert@$0A@$0A@@?$_Tree@V?$_Tmap_traits@V?$basic_string@DU?$char_traits@D@std@@V?$allocator@D@2@@std@@KU?$less@V?$basic_string@DU?$char_traits@D@std@@V?$allocator@D@2@@std@@@2@V?$allocator@U?$pair@$$CBV?$basic_string@DU?$char_traits@D@std@@V?$allocator@D@2@@std@@K@std@@@2@$0A@@std@@@std@@QAE?AU?$pair@V?$_Tree_iterator@V?$_Tree_val@U?$_Tree_simple_types@U?$pair@$$CBV?$basic_string@DU?$char_traits@D@std@@V?$allocator@D@2@@std@@K@std@@@std@@@std@@@std@@_N@1@$$QAU?$pair@$$CBV?$basic_string@DU?$char_traits@D@std@@V?$allocator@D@2@@std@@K@1@@Z ; std::_Tree<std::_Tmap_traits<std::basic_string<char,std::char_traits<char>,std::allocator<char> >,unsigned long,std::less<std::basic_string<char,std::char_traits<char>,std::allocator<char> > >,std::allocator<std::pair<std::basic_string<char,std::char_traits<char>,std::allocator<char> > const ,unsigned long> >,0> >::insert<0,0>
PUBLIC	??$?0AAY0O@$$CBDW4<unnamed-enum-SKILL_ATTRIBUTE_NEED_TARGET>@CPythonSkill@@$0A@@?$pair@$$CBV?$basic_string@DU?$char_traits@D@std@@V?$allocator@D@2@@std@@K@std@@QAE@AAY0O@$$CBD$$QAW4<unnamed-enum-SKILL_ATTRIBUTE_NEED_TARGET>@CPythonSkill@@@Z ; std::pair<std::basic_string<char,std::char_traits<char>,std::allocator<char> > const ,unsigned long>::pair<std::basic_string<char,std::char_traits<char>,std::allocator<char> > const ,unsigned long><char const (&)[14],enum CPythonSkill::<unnamed-enum-SKILL_ATTRIBUTE_NEED_TARGET>,0>
PUBLIC	??$?0AAY05$$CBDW4<unnamed-enum-SKILL_NEED_WEAPON_SWORD>@CPythonSkill@@$0A@@?$pair@$$CBV?$basic_string@DU?$char_traits@D@std@@V?$allocator@D@2@@std@@K@std@@QAE@AAY05$$CBD$$QAW4<unnamed-enum-SKILL_NEED_WEAPON_SWORD>@CPythonSkill@@@Z ; std::pair<std::basic_string<char,std::char_traits<char>,std::allocator<char> > const ,unsigned long>::pair<std::basic_string<char,std::char_traits<char>,std::allocator<char> > const ,unsigned long><char const (&)[6],enum CPythonSkill::<unnamed-enum-SKILL_NEED_WEAPON_SWORD>,0>
PUBLIC	??$?0AAY06$$CBDW4<unnamed-enum-SKILL_NEED_WEAPON_SWORD>@CPythonSkill@@$0A@@?$pair@$$CBV?$basic_string@DU?$char_traits@D@std@@V?$allocator@D@2@@std@@K@std@@QAE@AAY06$$CBD$$QAW4<unnamed-enum-SKILL_NEED_WEAPON_SWORD>@CPythonSkill@@@Z ; std::pair<std::basic_string<char,std::char_traits<char>,std::allocator<char> > const ,unsigned long>::pair<std::basic_string<char,std::char_traits<char>,std::allocator<char> > const ,unsigned long><char const (&)[7],enum CPythonSkill::<unnamed-enum-SKILL_NEED_WEAPON_SWORD>,0>
PUBLIC	??$?0AAY03$$CBDW4<unnamed-enum-SKILL_NEED_WEAPON_SWORD>@CPythonSkill@@$0A@@?$pair@$$CBV?$basic_string@DU?$char_traits@D@std@@V?$allocator@D@2@@std@@K@std@@QAE@AAY03$$CBD$$QAW4<unnamed-enum-SKILL_NEED_WEAPON_SWORD>@CPythonSkill@@@Z ; std::pair<std::basic_string<char,std::char_traits<char>,std::allocator<char> > const ,unsigned long>::pair<std::basic_string<char,std::char_traits<char>,std::allocator<char> > const ,unsigned long><char const (&)[4],enum CPythonSkill::<unnamed-enum-SKILL_NEED_WEAPON_SWORD>,0>
PUBLIC	??$?0AAY0L@$$CBDW4<unnamed-enum-SKILL_NEED_WEAPON_SWORD>@CPythonSkill@@$0A@@?$pair@$$CBV?$basic_string@DU?$char_traits@D@std@@V?$allocator@D@2@@std@@K@std@@QAE@AAY0L@$$CBD$$QAW4<unnamed-enum-SKILL_NEED_WEAPON_SWORD>@CPythonSkill@@@Z ; std::pair<std::basic_string<char,std::char_traits<char>,std::allocator<char> > const ,unsigned long>::pair<std::basic_string<char,std::char_traits<char>,std::allocator<char> > const ,unsigned long><char const (&)[11],enum CPythonSkill::<unnamed-enum-SKILL_NEED_WEAPON_SWORD>,0>
PUBLIC	??$?0AAY0N@$$CBDW4<unnamed-enum-SKILL_NEED_WEAPON_SWORD>@CPythonSkill@@$0A@@?$pair@$$CBV?$basic_string@DU?$char_traits@D@std@@V?$allocator@D@2@@std@@K@std@@QAE@AAY0N@$$CBD$$QAW4<unnamed-enum-SKILL_NEED_WEAPON_SWORD>@CPythonSkill@@@Z ; std::pair<std::basic_string<char,std::char_traits<char>,std::allocator<char> > const ,unsigned long>::pair<std::basic_string<char,std::char_traits<char>,std::allocator<char> > const ,unsigned long><char const (&)[13],enum CPythonSkill::<unnamed-enum-SKILL_NEED_WEAPON_SWORD>,0>
PUBLIC	??$?0AAY04$$CBDW4<unnamed-enum-SKILL_NEED_WEAPON_SWORD>@CPythonSkill@@$0A@@?$pair@$$CBV?$basic_string@DU?$char_traits@D@std@@V?$allocator@D@2@@std@@K@std@@QAE@AAY04$$CBD$$QAW4<unnamed-enum-SKILL_NEED_WEAPON_SWORD>@CPythonSkill@@@Z ; std::pair<std::basic_string<char,std::char_traits<char>,std::allocator<char> > const ,unsigned long>::pair<std::basic_string<char,std::char_traits<char>,std::allocator<char> > const ,unsigned long><char const (&)[5],enum CPythonSkill::<unnamed-enum-SKILL_NEED_WEAPON_SWORD>,0>
PUBLIC	??$make_pair@V?$basic_string@DU?$char_traits@D@std@@V?$allocator@D@2@@std@@W4EWeaponSubTypes@CItemData@@@std@@YA?AU?$pair@V?$basic_string@DU?$char_traits@D@std@@V?$allocator@D@2@@std@@W4EWeaponSubTypes@CItemData@@@0@$$QAV?$basic_string@DU?$char_traits@D@std@@V?$allocator@D@2@@0@$$QAW4EWeaponSubTypes@CItemData@@@Z ; std::make_pair<std::basic_string<char,std::char_traits<char>,std::allocator<char> >,enum CItemData::EWeaponSubTypes>
PUBLIC	??1?$pair@V?$basic_string@DU?$char_traits@D@std@@V?$allocator@D@2@@std@@W4EWeaponSubTypes@CItemData@@@std@@QAE@XZ ; std::pair<std::basic_string<char,std::char_traits<char>,std::allocator<char> >,enum CItemData::EWeaponSubTypes>::~pair<std::basic_string<char,std::char_traits<char>,std::allocator<char> >,enum CItemData::EWeaponSubTypes>
PUBLIC	??$insert@U?$pair@V?$basic_string@DU?$char_traits@D@std@@V?$allocator@D@2@@std@@W4EWeaponSubTypes@CItemData@@@std@@$0A@@?$map@V?$basic_string@DU?$char_traits@D@std@@V?$allocator@D@2@@std@@KU?$less@V?$basic_string@DU?$char_traits@D@std@@V?$allocator@D@2@@std@@@2@V?$allocator@U?$pair@$$CBV?$basic_string@DU?$char_traits@D@std@@V?$allocator@D@2@@std@@K@std@@@2@@std@@QAE?AU?$pair@V?$_Tree_iterator@V?$_Tree_val@U?$_Tree_simple_types@U?$pair@$$CBV?$basic_string@DU?$char_traits@D@std@@V?$allocator@D@2@@std@@K@std@@@std@@@std@@@std@@_N@1@$$QAU?$pair@V?$basic_string@DU?$char_traits@D@std@@V?$allocator@D@2@@std@@W4EWeaponSubTypes@CItemData@@@1@@Z ; std::map<std::basic_string<char,std::char_traits<char>,std::allocator<char> >,unsigned long,std::less<std::basic_string<char,std::char_traits<char>,std::allocator<char> > >,std::allocator<std::pair<std::basic_string<char,std::char_traits<char>,std::allocator<char> > const ,unsigned long> > >::insert<std::pair<std::basic_string<char,std::char_traits<char>,std::allocator<char> >,enum CItemData::EWeaponSubTypes>,0>
PUBLIC	??$make_pair@V?$basic_string@DU?$char_traits@D@std@@V?$allocator@D@2@@std@@W4EPointTypes@@@std@@YA?AU?$pair@V?$basic_string@DU?$char_traits@D@std@@V?$allocator@D@2@@std@@W4EPointTypes@@@0@$$QAV?$basic_string@DU?$char_traits@D@std@@V?$allocator@D@2@@0@$$QAW4EPointTypes@@@Z ; std::make_pair<std::basic_string<char,std::char_traits<char>,std::allocator<char> >,enum EPointTypes>
PUBLIC	??1?$pair@V?$basic_string@DU?$char_traits@D@std@@V?$allocator@D@2@@std@@W4EPointTypes@@@std@@QAE@XZ ; std::pair<std::basic_string<char,std::char_traits<char>,std::allocator<char> >,enum EPointTypes>::~pair<std::basic_string<char,std::char_traits<char>,std::allocator<char> >,enum EPointTypes>
PUBLIC	??$insert@U?$pair@V?$basic_string@DU?$char_traits@D@std@@V?$allocator@D@2@@std@@W4EPointTypes@@@std@@$0A@@?$map@V?$basic_string@DU?$char_traits@D@std@@V?$allocator@D@2@@std@@KU?$less@V?$basic_string@DU?$char_traits@D@std@@V?$allocator@D@2@@std@@@2@V?$allocator@U?$pair@$$CBV?$basic_string@DU?$char_traits@D@std@@V?$allocator@D@2@@std@@K@std@@@2@@std@@QAE?AU?$pair@V?$_Tree_iterator@V?$_Tree_val@U?$_Tree_simple_types@U?$pair@$$CBV?$basic_string@DU?$char_traits@D@std@@V?$allocator@D@2@@std@@K@std@@@std@@@std@@@std@@_N@1@$$QAU?$pair@V?$basic_string@DU?$char_traits@D@std@@V?$allocator@D@2@@std@@W4EPointTypes@@@1@@Z ; std::map<std::basic_string<char,std::char_traits<char>,std::allocator<char> >,unsigned long,std::less<std::basic_string<char,std::char_traits<char>,std::allocator<char> > >,std::allocator<std::pair<std::basic_string<char,std::char_traits<char>,std::allocator<char> > const ,unsigned long> > >::insert<std::pair<std::basic_string<char,std::char_traits<char>,std::allocator<char> >,enum EPointTypes>,0>
PUBLIC	??$make_pair@V?$basic_string@DU?$char_traits@D@std@@V?$allocator@D@2@@std@@V12@@std@@YA?AU?$pair@V?$basic_string@DU?$char_traits@D@std@@V?$allocator@D@2@@std@@V12@@0@$$QAV?$basic_string@DU?$char_traits@D@std@@V?$allocator@D@2@@0@0@Z ; std::make_pair<std::basic_string<char,std::char_traits<char>,std::allocator<char> >,std::basic_string<char,std::char_traits<char>,std::allocator<char> > >
PUBLIC	??1?$pair@V?$basic_string@DU?$char_traits@D@std@@V?$allocator@D@2@@std@@V12@@std@@QAE@XZ ; std::pair<std::basic_string<char,std::char_traits<char>,std::allocator<char> >,std::basic_string<char,std::char_traits<char>,std::allocator<char> > >::~pair<std::basic_string<char,std::char_traits<char>,std::allocator<char> >,std::basic_string<char,std::char_traits<char>,std::allocator<char> > >
PUBLIC	??$insert@U?$pair@V?$basic_string@DU?$char_traits@D@std@@V?$allocator@D@2@@std@@V12@@std@@$0A@@?$map@V?$basic_string@DU?$char_traits@D@std@@V?$allocator@D@2@@std@@V12@U?$less@V?$basic_string@DU?$char_traits@D@std@@V?$allocator@D@2@@std@@@2@V?$allocator@U?$pair@$$CBV?$basic_string@DU?$char_traits@D@std@@V?$allocator@D@2@@std@@V12@@std@@@2@@std@@QAE?AU?$pair@V?$_Tree_iterator@V?$_Tree_val@U?$_Tree_simple_types@U?$pair@$$CBV?$basic_string@DU?$char_traits@D@std@@V?$allocator@D@2@@std@@V12@@std@@@std@@@std@@@std@@_N@1@$$QAU?$pair@V?$basic_string@DU?$char_traits@D@std@@V?$allocator@D@2@@std@@V12@@1@@Z ; std::map<std::basic_string<char,std::char_traits<char>,std::allocator<char> >,std::basic_string<char,std::char_traits<char>,std::allocator<char> >,std::less<std::basic_string<char,std::char_traits<char>,std::allocator<char> > >,std::allocator<std::pair<std::basic_string<char,std::char_traits<char>,std::allocator<char> > const ,std::basic_string<char,std::char_traits<char>,std::allocator<char> > > > >::insert<std::pair<std::basic_string<char,std::char_traits<char>,std::allocator<char> >,std::basic_string<char,std::char_traits<char>,std::allocator<char> > >,0>
PUBLIC	?skillSetPathName@@YAPAU_object@@PAU1@0@Z	; skillSetPathName
PUBLIC	?skillRegisterSkill@@YAPAU_object@@PAU1@0@Z	; skillRegisterSkill
PUBLIC	?skillLoadSkillData@@YAPAU_object@@PAU1@0@Z	; skillLoadSkillData
PUBLIC	?skillRegisterSkillDesc@@YAPAU_object@@PAU1@0@Z	; skillRegisterSkillDesc
PUBLIC	?skillClearSkillData@@YAPAU_object@@PAU1@0@Z	; skillClearSkillData
PUBLIC	?skillGetSkillName@@YAPAU_object@@PAU1@0@Z	; skillGetSkillName
PUBLIC	?skillGetSkillDescription@@YAPAU_object@@PAU1@0@Z ; skillGetSkillDescription
PUBLIC	?skillGetSkillType@@YAPAU_object@@PAU1@0@Z	; skillGetSkillType
PUBLIC	?skillGetSkillConditionDescriptionCount@@YAPAU_object@@PAU1@0@Z ; skillGetSkillConditionDescriptionCount
PUBLIC	?skillGetSkillConditionDescription@@YAPAU_object@@PAU1@0@Z ; skillGetSkillConditionDescription
PUBLIC	?skillGetSkillAffectDescriptionCount@@YAPAU_object@@PAU1@0@Z ; skillGetSkillAffectDescriptionCount
PUBLIC	?skillGetSkillAffectDescription@@YAPAU_object@@PAU1@0@Z ; skillGetSkillAffectDescription
PUBLIC	?skillGetSkillCoolTime@@YAPAU_object@@PAU1@0@Z	; skillGetSkillCoolTime
PUBLIC	?skillGetSkillNeedSP@@YAPAU_object@@PAU1@0@Z	; skillGetSkillNeedSP
PUBLIC	?skillGetSkillContinuationSP@@YAPAU_object@@PAU1@0@Z ; skillGetSkillContinuationSP
PUBLIC	?skillGetSkillMaxLevel@@YAPAU_object@@PAU1@0@Z	; skillGetSkillMaxLevel
PUBLIC	?skillGetSkillLevelUpPoint@@YAPAU_object@@PAU1@0@Z ; skillGetSkillLevelUpPoint
PUBLIC	?skillGetSkillLevelLimit@@YAPAU_object@@PAU1@0@Z ; skillGetSkillLevelLimit
PUBLIC	?skillIsSkillRequirement@@YAPAU_object@@PAU1@0@Z ; skillIsSkillRequirement
PUBLIC	?skillGetSkillRequirementData@@YAPAU_object@@PAU1@0@Z ; skillGetSkillRequirementData
PUBLIC	?skillGetSkillRequireStatCount@@YAPAU_object@@PAU1@0@Z ; skillGetSkillRequireStatCount
PUBLIC	?skillGetSkillRequireStatData@@YAPAU_object@@PAU1@0@Z ; skillGetSkillRequireStatData
PUBLIC	?skillCanLevelUpSkill@@YAPAU_object@@PAU1@0@Z	; skillCanLevelUpSkill
PUBLIC	?skillCheckRequirementSueccess@@YAPAU_object@@PAU1@0@Z ; skillCheckRequirementSueccess
PUBLIC	?skillGetNeedCharacterLevel@@YAPAU_object@@PAU1@0@Z ; skillGetNeedCharacterLevel
PUBLIC	?skillIsToggleSkill@@YAPAU_object@@PAU1@0@Z	; skillIsToggleSkill
PUBLIC	?skillIsUseHPSkill@@YAPAU_object@@PAU1@0@Z	; skillIsUseHPSkill
PUBLIC	?skillIsStandingSkill@@YAPAU_object@@PAU1@0@Z	; skillIsStandingSkill
PUBLIC	?skillCanUseSkill@@YAPAU_object@@PAU1@0@Z	; skillCanUseSkill
PUBLIC	?skillIsLevelUpSkill@@YAPAU_object@@PAU1@0@Z	; skillIsLevelUpSkill
PUBLIC	?skillGetIconName@@YAPAU_object@@PAU1@0@Z	; skillGetIconName
PUBLIC	?skillGetIconImage@@YAPAU_object@@PAU1@0@Z	; skillGetIconImage
PUBLIC	?skillGetIconInstance@@YAPAU_object@@PAU1@0@Z	; skillGetIconInstance
PUBLIC	?skillGetIconImageNew@@YAPAU_object@@PAU1@0@Z	; skillGetIconImageNew
PUBLIC	?skillGetIconInstanceNew@@YAPAU_object@@PAU1@0@Z ; skillGetIconInstanceNew
PUBLIC	?skillDeleteIconInstance@@YAPAU_object@@PAU1@0@Z ; skillDeleteIconInstance
PUBLIC	?skillGetGradeData@@YAPAU_object@@PAU1@0@Z	; skillGetGradeData
PUBLIC	?skillGetNewAffectDataCount@@YAPAU_object@@PAU1@0@Z ; skillGetNewAffectDataCount
PUBLIC	?skillGetNewAffectData@@YAPAU_object@@PAU1@0@Z	; skillGetNewAffectData
PUBLIC	?skillGetDuration@@YAPAU_object@@PAU1@0@Z	; skillGetDuration
PUBLIC	?skillTEST@@YAPAU_object@@PAU1@0@Z		; skillTEST
PUBLIC	??1?$CDynamicPoolEx@VCRotationDecorator@NEffectUpdateDecorator@@@@UAE@XZ ; CDynamicPoolEx<NEffectUpdateDecorator::CRotationDecorator>::~CDynamicPoolEx<NEffectUpdateDecorator::CRotationDecorator>
PUBLIC	?Delete@?$CDynamicPoolEx@VCRotationDecorator@NEffectUpdateDecorator@@@@KAXPAVCRotationDecorator@NEffectUpdateDecorator@@@Z ; CDynamicPoolEx<NEffectUpdateDecorator::CRotationDecorator>::Delete
PUBLIC	??1?$CDynamicPoolEx@VCGravityDecorator@NEffectUpdateDecorator@@@@UAE@XZ ; CDynamicPoolEx<NEffectUpdateDecorator::CGravityDecorator>::~CDynamicPoolEx<NEffectUpdateDecorator::CGravityDecorator>
PUBLIC	?Delete@?$CDynamicPoolEx@VCGravityDecorator@NEffectUpdateDecorator@@@@KAXPAVCGravityDecorator@NEffectUpdateDecorator@@@Z ; CDynamicPoolEx<NEffectUpdateDecorator::CGravityDecorator>::Delete
PUBLIC	??1?$CDynamicPoolEx@VCAirResistanceDecorator@NEffectUpdateDecorator@@@@UAE@XZ ; CDynamicPoolEx<NEffectUpdateDecorator::CAirResistanceDecorator>::~CDynamicPoolEx<NEffectUpdateDecorator::CAirResistanceDecorator>
PUBLIC	?Delete@?$CDynamicPoolEx@VCAirResistanceDecorator@NEffectUpdateDecorator@@@@KAXPAVCAirResistanceDecorator@NEffectUpdateDecorator@@@Z ; CDynamicPoolEx<NEffectUpdateDecorator::CAirResistanceDecorator>::Delete
PUBLIC	??1?$CDynamicPoolEx@VCTextureAnimationRandomDecorator@NEffectUpdateDecorator@@@@UAE@XZ ; CDynamicPoolEx<NEffectUpdateDecorator::CTextureAnimationRandomDecorator>::~CDynamicPoolEx<NEffectUpdateDecorator::CTextureAnimationRandomDecorator>
PUBLIC	?Delete@?$CDynamicPoolEx@VCTextureAnimationRandomDecorator@NEffectUpdateDecorator@@@@KAXPAVCTextureAnimationRandomDecorator@NEffectUpdateDecorator@@@Z ; CDynamicPoolEx<NEffectUpdateDecorator::CTextureAnimationRandomDecorator>::Delete
PUBLIC	??1?$CDynamicPoolEx@VCTextureAnimationCCWDecorator@NEffectUpdateDecorator@@@@UAE@XZ ; CDynamicPoolEx<NEffectUpdateDecorator::CTextureAnimationCCWDecorator>::~CDynamicPoolEx<NEffectUpdateDecorator::CTextureAnimationCCWDecorator>
PUBLIC	?Delete@?$CDynamicPoolEx@VCTextureAnimationCCWDecorator@NEffectUpdateDecorator@@@@KAXPAVCTextureAnimationCCWDecorator@NEffectUpdateDecorator@@@Z ; CDynamicPoolEx<NEffectUpdateDecorator::CTextureAnimationCCWDecorator>::Delete
PUBLIC	??1?$CDynamicPoolEx@VCTextureAnimationCWDecorator@NEffectUpdateDecorator@@@@UAE@XZ ; CDynamicPoolEx<NEffectUpdateDecorator::CTextureAnimationCWDecorator>::~CDynamicPoolEx<NEffectUpdateDecorator::CTextureAnimationCWDecorator>
PUBLIC	?Delete@?$CDynamicPoolEx@VCTextureAnimationCWDecorator@NEffectUpdateDecorator@@@@KAXPAVCTextureAnimationCWDecorator@NEffectUpdateDecorator@@@Z ; CDynamicPoolEx<NEffectUpdateDecorator::CTextureAnimationCWDecorator>::Delete
PUBLIC	??1?$CDynamicPoolEx@VCNullDecorator@NEffectUpdateDecorator@@@@UAE@XZ ; CDynamicPoolEx<NEffectUpdateDecorator::CNullDecorator>::~CDynamicPoolEx<NEffectUpdateDecorator::CNullDecorator>
PUBLIC	?Delete@?$CDynamicPoolEx@VCNullDecorator@NEffectUpdateDecorator@@@@KAXPAVCNullDecorator@NEffectUpdateDecorator@@@Z ; CDynamicPoolEx<NEffectUpdateDecorator::CNullDecorator>::Delete
PUBLIC	??1?$CDynamicPoolEx@VCHeaderDecorator@NEffectUpdateDecorator@@@@UAE@XZ ; CDynamicPoolEx<NEffectUpdateDecorator::CHeaderDecorator>::~CDynamicPoolEx<NEffectUpdateDecorator::CHeaderDecorator>
PUBLIC	?Delete@?$CDynamicPoolEx@VCHeaderDecorator@NEffectUpdateDecorator@@@@KAXPAVCHeaderDecorator@NEffectUpdateDecorator@@@Z ; CDynamicPoolEx<NEffectUpdateDecorator::CHeaderDecorator>::Delete
PUBLIC	??$_Erase_tree@V?$allocator@U?$_Tree_node@U?$pair@$$CBKUSSkillData@CPythonSkill@@@std@@PAX@std@@@std@@@?$_Tree_val@U?$_Tree_simple_types@U?$pair@$$CBKUSSkillData@CPythonSkill@@@std@@@std@@@std@@QAEXAAV?$allocator@U?$_Tree_node@U?$pair@$$CBKUSSkillData@CPythonSkill@@@std@@PAX@std@@@1@PAU?$_Tree_node@U?$pair@$$CBKUSSkillData@CPythonSkill@@@std@@PAX@1@@Z ; std::_Tree_val<std::_Tree_simple_types<std::pair<unsigned long const ,CPythonSkill::SSkillData> > >::_Erase_tree<std::allocator<std::_Tree_node<std::pair<unsigned long const ,CPythonSkill::SSkillData>,void *> > >
PUBLIC	??$construct@USAffectData@CPythonSkill@@U12@@?$_Default_allocator_traits@V?$allocator@USAffectData@CPythonSkill@@@std@@@std@@SAXAAV?$allocator@USAffectData@CPythonSkill@@@1@QAUSAffectData@CPythonSkill@@$$QAU34@@Z ; std::_Default_allocator_traits<std::allocator<CPythonSkill::SAffectData> >::construct<CPythonSkill::SAffectData,CPythonSkill::SAffectData>
PUBLIC	??$_Emplace_reallocate@USAffectData@CPythonSkill@@@?$vector@USAffectData@CPythonSkill@@V?$allocator@USAffectData@CPythonSkill@@@std@@@std@@QAEPAUSAffectData@CPythonSkill@@QAU23@$$QAU23@@Z ; std::vector<CPythonSkill::SAffectData,std::allocator<CPythonSkill::SAffectData> >::_Emplace_reallocate<CPythonSkill::SAffectData>
PUBLIC	??$_Emplace_reallocate@V?$basic_string@DU?$char_traits@D@std@@V?$allocator@D@2@@std@@@?$vector@V?$basic_string@DU?$char_traits@D@std@@V?$allocator@D@2@@std@@V?$allocator@V?$basic_string@DU?$char_traits@D@std@@V?$allocator@D@2@@std@@@2@@std@@QAEPAV?$basic_string@DU?$char_traits@D@std@@V?$allocator@D@2@@1@QAV21@$$QAV21@@Z ; std::vector<std::basic_string<char,std::char_traits<char>,std::allocator<char> >,std::allocator<std::basic_string<char,std::char_traits<char>,std::allocator<char> > > >::_Emplace_reallocate<std::basic_string<char,std::char_traits<char>,std::allocator<char> > >
PUBLIC	??$_Emplace_reallocate@ABV?$basic_string@DU?$char_traits@D@std@@V?$allocator@D@2@@std@@@?$vector@V?$basic_string@DU?$char_traits@D@std@@V?$allocator@D@2@@std@@V?$allocator@V?$basic_string@DU?$char_traits@D@std@@V?$allocator@D@2@@std@@@2@@std@@QAEPAV?$basic_string@DU?$char_traits@D@std@@V?$allocator@D@2@@1@QAV21@ABV21@@Z ; std::vector<std::basic_string<char,std::char_traits<char>,std::allocator<char> >,std::allocator<std::basic_string<char,std::char_traits<char>,std::allocator<char> > > >::_Emplace_reallocate<std::basic_string<char,std::char_traits<char>,std::allocator<char> > const &>
PUBLIC	??$_Destroy_range@V?$allocator@USAffectDataNew@CPythonSkill@@@std@@@std@@YAXPAUSAffectDataNew@CPythonSkill@@QAU12@AAV?$allocator@USAffectDataNew@CPythonSkill@@@0@@Z ; std::_Destroy_range<std::allocator<CPythonSkill::SAffectDataNew> >
PUBLIC	??$_Destroy_range@V?$allocator@USAffectData@CPythonSkill@@@std@@@std@@YAXPAUSAffectData@CPythonSkill@@QAU12@AAV?$allocator@USAffectData@CPythonSkill@@@0@@Z ; std::_Destroy_range<std::allocator<CPythonSkill::SAffectData> >
PUBLIC	??$_Destroy_range@V?$allocator@V?$basic_string@DU?$char_traits@D@std@@V?$allocator@D@2@@std@@@std@@@std@@YAXPAV?$basic_string@DU?$char_traits@D@std@@V?$allocator@D@2@@0@QAV10@AAV?$allocator@V?$basic_string@DU?$char_traits@D@std@@V?$allocator@D@2@@std@@@0@@Z ; std::_Destroy_range<std::allocator<std::basic_string<char,std::char_traits<char>,std::allocator<char> > > >
PUBLIC	??$_Pocca@V?$allocator@D@std@@@std@@YAXAAV?$allocator@D@0@ABV10@@Z ; std::_Pocca<std::allocator<char> >
PUBLIC	??$_Destroy_range@V?$allocator@USRequireStatData@CPythonSkill@@@std@@@std@@YAXPAUSRequireStatData@CPythonSkill@@QAU12@AAV?$allocator@USRequireStatData@CPythonSkill@@@0@@Z ; std::_Destroy_range<std::allocator<CPythonSkill::SRequireStatData> >
PUBLIC	??$_Uninitialized_move@PAUSAffectDataNew@CPythonSkill@@V?$allocator@USAffectDataNew@CPythonSkill@@@std@@@std@@YAPAUSAffectDataNew@CPythonSkill@@QAU12@0PAU12@AAV?$allocator@USAffectDataNew@CPythonSkill@@@0@@Z ; std::_Uninitialized_move<CPythonSkill::SAffectDataNew *,std::allocator<CPythonSkill::SAffectDataNew> >
PUBLIC	??$_Uninitialized_move@PAV?$basic_string@DU?$char_traits@D@std@@V?$allocator@D@2@@std@@V?$allocator@V?$basic_string@DU?$char_traits@D@std@@V?$allocator@D@2@@std@@@2@@std@@YAPAV?$basic_string@DU?$char_traits@D@std@@V?$allocator@D@2@@0@QAV10@0PAV10@AAV?$allocator@V?$basic_string@DU?$char_traits@D@std@@V?$allocator@D@2@@std@@@0@@Z ; std::_Uninitialized_move<std::basic_string<char,std::char_traits<char>,std::allocator<char> > *,std::allocator<std::basic_string<char,std::char_traits<char>,std::allocator<char> > > >
PUBLIC	??$_Destroy_range@V?$allocator@PAVCHeaderDecorator@NEffectUpdateDecorator@@@std@@@std@@YAXPAPAVCHeaderDecorator@NEffectUpdateDecorator@@QAPAV12@AAV?$allocator@PAVCHeaderDecorator@NEffectUpdateDecorator@@@0@@Z ; std::_Destroy_range<std::allocator<NEffectUpdateDecorator::CHeaderDecorator *> >
PUBLIC	??$_Destroy_range@V?$allocator@PAVCNullDecorator@NEffectUpdateDecorator@@@std@@@std@@YAXPAPAVCNullDecorator@NEffectUpdateDecorator@@QAPAV12@AAV?$allocator@PAVCNullDecorator@NEffectUpdateDecorator@@@0@@Z ; std::_Destroy_range<std::allocator<NEffectUpdateDecorator::CNullDecorator *> >
PUBLIC	??$_Destroy_range@V?$allocator@PAVCTextureAnimationCWDecorator@NEffectUpdateDecorator@@@std@@@std@@YAXPAPAVCTextureAnimationCWDecorator@NEffectUpdateDecorator@@QAPAV12@AAV?$allocator@PAVCTextureAnimationCWDecorator@NEffectUpdateDecorator@@@0@@Z ; std::_Destroy_range<std::allocator<NEffectUpdateDecorator::CTextureAnimationCWDecorator *> >
PUBLIC	??$_Destroy_range@V?$allocator@PAVCTextureAnimationCCWDecorator@NEffectUpdateDecorator@@@std@@@std@@YAXPAPAVCTextureAnimationCCWDecorator@NEffectUpdateDecorator@@QAPAV12@AAV?$allocator@PAVCTextureAnimationCCWDecorator@NEffectUpdateDecorator@@@0@@Z ; std::_Destroy_range<std::allocator<NEffectUpdateDecorator::CTextureAnimationCCWDecorator *> >
PUBLIC	??$_Destroy_range@V?$allocator@PAVCTextureAnimationRandomDecorator@NEffectUpdateDecorator@@@std@@@std@@YAXPAPAVCTextureAnimationRandomDecorator@NEffectUpdateDecorator@@QAPAV12@AAV?$allocator@PAVCTextureAnimationRandomDecorator@NEffectUpdateDecorator@@@0@@Z ; std::_Destroy_range<std::allocator<NEffectUpdateDecorator::CTextureAnimationRandomDecorator *> >
PUBLIC	??$_Destroy_range@V?$allocator@PAVCAirResistanceDecorator@NEffectUpdateDecorator@@@std@@@std@@YAXPAPAVCAirResistanceDecorator@NEffectUpdateDecorator@@QAPAV12@AAV?$allocator@PAVCAirResistanceDecorator@NEffectUpdateDecorator@@@0@@Z ; std::_Destroy_range<std::allocator<NEffectUpdateDecorator::CAirResistanceDecorator *> >
PUBLIC	??$_Destroy_range@V?$allocator@PAVCGravityDecorator@NEffectUpdateDecorator@@@std@@@std@@YAXPAPAVCGravityDecorator@NEffectUpdateDecorator@@QAPAV12@AAV?$allocator@PAVCGravityDecorator@NEffectUpdateDecorator@@@0@@Z ; std::_Destroy_range<std::allocator<NEffectUpdateDecorator::CGravityDecorator *> >
PUBLIC	??$_Destroy_range@V?$allocator@PAVCRotationDecorator@NEffectUpdateDecorator@@@std@@@std@@YAXPAPAVCRotationDecorator@NEffectUpdateDecorator@@QAPAV12@AAV?$allocator@PAVCRotationDecorator@NEffectUpdateDecorator@@@0@@Z ; std::_Destroy_range<std::allocator<NEffectUpdateDecorator::CRotationDecorator *> >
PUBLIC	??$_Find_lower_bound@V?$basic_string@DU?$char_traits@D@std@@V?$allocator@D@2@@std@@@?$_Tree@V?$_Tmap_traits@V?$basic_string@DU?$char_traits@D@std@@V?$allocator@D@2@@std@@V12@U?$less@V?$basic_string@DU?$char_traits@D@std@@V?$allocator@D@2@@std@@@2@V?$allocator@U?$pair@$$CBV?$basic_string@DU?$char_traits@D@std@@V?$allocator@D@2@@std@@V12@@std@@@2@$0A@@std@@@std@@IBE?AU?$_Tree_find_result@PAU?$_Tree_node@U?$pair@$$CBV?$basic_string@DU?$char_traits@D@std@@V?$allocator@D@2@@std@@V12@@std@@PAX@std@@@1@ABV?$basic_string@DU?$char_traits@D@std@@V?$allocator@D@2@@1@@Z ; std::_Tree<std::_Tmap_traits<std::basic_string<char,std::char_traits<char>,std::allocator<char> >,std::basic_string<char,std::char_traits<char>,std::allocator<char> >,std::less<std::basic_string<char,std::char_traits<char>,std::allocator<char> > >,std::allocator<std::pair<std::basic_string<char,std::char_traits<char>,std::allocator<char> > const ,std::basic_string<char,std::char_traits<char>,std::allocator<char> > > >,0> >::_Find_lower_bound<std::basic_string<char,std::char_traits<char>,std::allocator<char> > >
PUBLIC	??1?$_Alloc_construct_ptr@V?$allocator@U?$_Tree_node@U?$pair@$$CBV?$basic_string@DU?$char_traits@D@std@@V?$allocator@D@2@@std@@V12@@std@@PAX@std@@@std@@@std@@QAE@XZ ; std::_Alloc_construct_ptr<std::allocator<std::_Tree_node<std::pair<std::basic_string<char,std::char_traits<char>,std::allocator<char> > const ,std::basic_string<char,std::char_traits<char>,std::allocator<char> > >,void *> > >::~_Alloc_construct_ptr<std::allocator<std::_Tree_node<std::pair<std::basic_string<char,std::char_traits<char>,std::allocator<char> > const ,std::basic_string<char,std::char_traits<char>,std::allocator<char> > >,void *> > >
PUBLIC	??1?$_Tree_temp_node_alloc@V?$allocator@U?$_Tree_node@U?$pair@$$CBV?$basic_string@DU?$char_traits@D@std@@V?$allocator@D@2@@std@@V12@@std@@PAX@std@@@std@@@std@@QAE@XZ ; std::_Tree_temp_node_alloc<std::allocator<std::_Tree_node<std::pair<std::basic_string<char,std::char_traits<char>,std::allocator<char> > const ,std::basic_string<char,std::char_traits<char>,std::allocator<char> > >,void *> > >::~_Tree_temp_node_alloc<std::allocator<std::_Tree_node<std::pair<std::basic_string<char,std::char_traits<char>,std::allocator<char> > const ,std::basic_string<char,std::char_traits<char>,std::allocator<char> > >,void *> > >
PUBLIC	??$_Erase_tree@V?$allocator@U?$_Tree_node@U?$pair@$$CBV?$basic_string@DU?$char_traits@D@std@@V?$allocator@D@2@@std@@V12@@std@@PAX@std@@@std@@@?$_Tree_val@U?$_Tree_simple_types@U?$pair@$$CBV?$basic_string@DU?$char_traits@D@std@@V?$allocator@D@2@@std@@V12@@std@@@std@@@std@@QAEXAAV?$allocator@U?$_Tree_node@U?$pair@$$CBV?$basic_string@DU?$char_traits@D@std@@V?$allocator@D@2@@std@@V12@@std@@PAX@std@@@1@PAU?$_Tree_node@U?$pair@$$CBV?$basic_string@DU?$char_traits@D@std@@V?$allocator@D@2@@std@@V12@@std@@PAX@1@@Z ; std::_Tree_val<std::_Tree_simple_types<std::pair<std::basic_string<char,std::char_traits<char>,std::allocator<char> > const ,std::basic_string<char,std::char_traits<char>,std::allocator<char> > > > >::_Erase_tree<std::allocator<std::_Tree_node<std::pair<std::basic_string<char,std::char_traits<char>,std::allocator<char> > const ,std::basic_string<char,std::char_traits<char>,std::allocator<char> > >,void *> > >
PUBLIC	??$_Find_lower_bound@V?$basic_string@DU?$char_traits@D@std@@V?$allocator@D@2@@std@@@?$_Tree@V?$_Tmap_traits@V?$basic_string@DU?$char_traits@D@std@@V?$allocator@D@2@@std@@KU?$less@V?$basic_string@DU?$char_traits@D@std@@V?$allocator@D@2@@std@@@2@V?$allocator@U?$pair@$$CBV?$basic_string@DU?$char_traits@D@std@@V?$allocator@D@2@@std@@K@std@@@2@$0A@@std@@@std@@IBE?AU?$_Tree_find_result@PAU?$_Tree_node@U?$pair@$$CBV?$basic_string@DU?$char_traits@D@std@@V?$allocator@D@2@@std@@K@std@@PAX@std@@@1@ABV?$basic_string@DU?$char_traits@D@std@@V?$allocator@D@2@@1@@Z ; std::_Tree<std::_Tmap_traits<std::basic_string<char,std::char_traits<char>,std::allocator<char> >,unsigned long,std::less<std::basic_string<char,std::char_traits<char>,std::allocator<char> > >,std::allocator<std::pair<std::basic_string<char,std::char_traits<char>,std::allocator<char> > const ,unsigned long> >,0> >::_Find_lower_bound<std::basic_string<char,std::char_traits<char>,std::allocator<char> > >
PUBLIC	??$_Erase_tree@V?$allocator@U?$_Tree_node@U?$pair@$$CBV?$basic_string@DU?$char_traits@D@std@@V?$allocator@D@2@@std@@K@std@@PAX@std@@@std@@@?$_Tree_val@U?$_Tree_simple_types@U?$pair@$$CBV?$basic_string@DU?$char_traits@D@std@@V?$allocator@D@2@@std@@K@std@@@std@@@std@@QAEXAAV?$allocator@U?$_Tree_node@U?$pair@$$CBV?$basic_string@DU?$char_traits@D@std@@V?$allocator@D@2@@std@@K@std@@PAX@std@@@1@PAU?$_Tree_node@U?$pair@$$CBV?$basic_string@DU?$char_traits@D@std@@V?$allocator@D@2@@std@@K@std@@PAX@1@@Z ; std::_Tree_val<std::_Tree_simple_types<std::pair<std::basic_string<char,std::char_traits<char>,std::allocator<char> > const ,unsigned long> > >::_Erase_tree<std::allocator<std::_Tree_node<std::pair<std::basic_string<char,std::char_traits<char>,std::allocator<char> > const ,unsigned long>,void *> > >
PUBLIC	??$_Find_lower_bound@K@?$_Tree@V?$_Tmap_traits@KUSSkillData@CPythonSkill@@U?$less@K@std@@V?$allocator@U?$pair@$$CBKUSSkillData@CPythonSkill@@@std@@@4@$0A@@std@@@std@@IBE?AU?$_Tree_find_result@PAU?$_Tree_node@U?$pair@$$CBKUSSkillData@CPythonSkill@@@std@@PAX@std@@@1@ABK@Z ; std::_Tree<std::_Tmap_traits<unsigned long,CPythonSkill::SSkillData,std::less<unsigned long>,std::allocator<std::pair<unsigned long const ,CPythonSkill::SSkillData> >,0> >::_Find_lower_bound<unsigned long>
PUBLIC	??1?$_Alloc_construct_ptr@V?$allocator@U?$_Tree_node@U?$pair@$$CBKUSSkillData@CPythonSkill@@@std@@PAX@std@@@std@@@std@@QAE@XZ ; std::_Alloc_construct_ptr<std::allocator<std::_Tree_node<std::pair<unsigned long const ,CPythonSkill::SSkillData>,void *> > >::~_Alloc_construct_ptr<std::allocator<std::_Tree_node<std::pair<unsigned long const ,CPythonSkill::SSkillData>,void *> > >
PUBLIC	??1?$_Tree_temp_node_alloc@V?$allocator@U?$_Tree_node@U?$pair@$$CBKUSSkillData@CPythonSkill@@@std@@PAX@std@@@std@@@std@@QAE@XZ ; std::_Tree_temp_node_alloc<std::allocator<std::_Tree_node<std::pair<unsigned long const ,CPythonSkill::SSkillData>,void *> > >::~_Tree_temp_node_alloc<std::allocator<std::_Tree_node<std::pair<unsigned long const ,CPythonSkill::SSkillData>,void *> > >
PUBLIC	??$_Resize_reallocate@U_Value_init_tag@std@@@?$vector@USAffectData@CPythonSkill@@V?$allocator@USAffectData@CPythonSkill@@@std@@@std@@AAEXIABU_Value_init_tag@1@@Z ; std::vector<CPythonSkill::SAffectData,std::allocator<CPythonSkill::SAffectData> >::_Resize_reallocate<std::_Value_init_tag>
PUBLIC	??$_Resize_reallocate@U_Value_init_tag@std@@@?$vector@V?$basic_string@DU?$char_traits@D@std@@V?$allocator@D@2@@std@@V?$allocator@V?$basic_string@DU?$char_traits@D@std@@V?$allocator@D@2@@std@@@2@@std@@AAEXIABU_Value_init_tag@1@@Z ; std::vector<std::basic_string<char,std::char_traits<char>,std::allocator<char> >,std::allocator<std::basic_string<char,std::char_traits<char>,std::allocator<char> > > >::_Resize_reallocate<std::_Value_init_tag>
PUBLIC	??$_Construct_in_place@PAU?$_Tree_node@U?$pair@$$CBV?$basic_string@DU?$char_traits@D@std@@V?$allocator@D@2@@std@@V12@@std@@PAX@std@@ABQAU12@@std@@YAXAAPAU?$_Tree_node@U?$pair@$$CBV?$basic_string@DU?$char_traits@D@std@@V?$allocator@D@2@@std@@V12@@std@@PAX@0@ABQAU10@@Z ; std::_Construct_in_place<std::_Tree_node<std::pair<std::basic_string<char,std::char_traits<char>,std::allocator<char> > const ,std::basic_string<char,std::char_traits<char>,std::allocator<char> > >,void *> *,std::_Tree_node<std::pair<std::basic_string<char,std::char_traits<char>,std::allocator<char> > const ,std::basic_string<char,std::char_traits<char>,std::allocator<char> > >,void *> * const &>
PUBLIC	??$_Construct_in_place@PAU?$_Tree_node@U?$pair@$$CBV?$basic_string@DU?$char_traits@D@std@@V?$allocator@D@2@@std@@K@std@@PAX@std@@ABQAU12@@std@@YAXAAPAU?$_Tree_node@U?$pair@$$CBV?$basic_string@DU?$char_traits@D@std@@V?$allocator@D@2@@std@@K@std@@PAX@0@ABQAU10@@Z ; std::_Construct_in_place<std::_Tree_node<std::pair<std::basic_string<char,std::char_traits<char>,std::allocator<char> > const ,unsigned long>,void *> *,std::_Tree_node<std::pair<std::basic_string<char,std::char_traits<char>,std::allocator<char> > const ,unsigned long>,void *> * const &>
PUBLIC	??$_Construct_in_place@PAU?$_Tree_node@U?$pair@$$CBKUSSkillData@CPythonSkill@@@std@@PAX@std@@ABQAU12@@std@@YAXAAPAU?$_Tree_node@U?$pair@$$CBKUSSkillData@CPythonSkill@@@std@@PAX@0@ABQAU10@@Z ; std::_Construct_in_place<std::_Tree_node<std::pair<unsigned long const ,CPythonSkill::SSkillData>,void *> *,std::_Tree_node<std::pair<unsigned long const ,CPythonSkill::SSkillData>,void *> * const &>
PUBLIC	??1?$_Uninitialized_backout_al@V?$allocator@USAffectDataNew@CPythonSkill@@@std@@@std@@QAE@XZ ; std::_Uninitialized_backout_al<std::allocator<CPythonSkill::SAffectDataNew> >::~_Uninitialized_backout_al<std::allocator<CPythonSkill::SAffectDataNew> >
PUBLIC	??1?$_Uninitialized_backout_al@V?$allocator@V?$basic_string@DU?$char_traits@D@std@@V?$allocator@D@2@@std@@@std@@@std@@QAE@XZ ; std::_Uninitialized_backout_al<std::allocator<std::basic_string<char,std::char_traits<char>,std::allocator<char> > > >::~_Uninitialized_backout_al<std::allocator<std::basic_string<char,std::char_traits<char>,std::allocator<char> > > >
PUBLIC	??$_Destroy_in_place@PAU?$_Tree_node@U?$pair@$$CBKUSSkillData@CPythonSkill@@@std@@PAX@std@@@std@@YAXAAPAU?$_Tree_node@U?$pair@$$CBKUSSkillData@CPythonSkill@@@std@@PAX@0@@Z ; std::_Destroy_in_place<std::_Tree_node<std::pair<unsigned long const ,CPythonSkill::SSkillData>,void *> *>
PUBLIC	??$_Destroy_in_place@PAU?$_Tree_node@U?$pair@$$CBV?$basic_string@DU?$char_traits@D@std@@V?$allocator@D@2@@std@@V12@@std@@PAX@std@@@std@@YAXAAPAU?$_Tree_node@U?$pair@$$CBV?$basic_string@DU?$char_traits@D@std@@V?$allocator@D@2@@std@@V12@@std@@PAX@0@@Z ; std::_Destroy_in_place<std::_Tree_node<std::pair<std::basic_string<char,std::char_traits<char>,std::allocator<char> > const ,std::basic_string<char,std::char_traits<char>,std::allocator<char> > >,void *> *>
PUBLIC	??1?$_Tidy_guard@V?$vector@USAffectDataNew@CPythonSkill@@V?$allocator@USAffectDataNew@CPythonSkill@@@std@@@std@@@std@@QAE@XZ ; std::_Tidy_guard<std::vector<CPythonSkill::SAffectDataNew,std::allocator<CPythonSkill::SAffectDataNew> > >::~_Tidy_guard<std::vector<CPythonSkill::SAffectDataNew,std::allocator<CPythonSkill::SAffectDataNew> > >
PUBLIC	??$_Uninitialized_move@PAUSAffectData@CPythonSkill@@V?$allocator@USAffectData@CPythonSkill@@@std@@@std@@YAPAUSAffectData@CPythonSkill@@QAU12@0PAU12@AAV?$allocator@USAffectData@CPythonSkill@@@0@@Z ; std::_Uninitialized_move<CPythonSkill::SAffectData *,std::allocator<CPythonSkill::SAffectData> >
PUBLIC	??$_Uninitialized_value_construct_n@V?$allocator@USAffectData@CPythonSkill@@@std@@@std@@YAPAUSAffectData@CPythonSkill@@PAU12@IAAV?$allocator@USAffectData@CPythonSkill@@@0@@Z ; std::_Uninitialized_value_construct_n<std::allocator<CPythonSkill::SAffectData> >
PUBLIC	??1?$_Tidy_guard@V?$vector@USAffectData@CPythonSkill@@V?$allocator@USAffectData@CPythonSkill@@@std@@@std@@@std@@QAE@XZ ; std::_Tidy_guard<std::vector<CPythonSkill::SAffectData,std::allocator<CPythonSkill::SAffectData> > >::~_Tidy_guard<std::vector<CPythonSkill::SAffectData,std::allocator<CPythonSkill::SAffectData> > >
PUBLIC	??$_Uninitialized_value_construct_n@V?$allocator@V?$basic_string@DU?$char_traits@D@std@@V?$allocator@D@2@@std@@@std@@@std@@YAPAV?$basic_string@DU?$char_traits@D@std@@V?$allocator@D@2@@0@PAV10@IAAV?$allocator@V?$basic_string@DU?$char_traits@D@std@@V?$allocator@D@2@@std@@@0@@Z ; std::_Uninitialized_value_construct_n<std::allocator<std::basic_string<char,std::char_traits<char>,std::allocator<char> > > >
PUBLIC	??1?$_Tidy_guard@V?$vector@V?$basic_string@DU?$char_traits@D@std@@V?$allocator@D@2@@std@@V?$allocator@V?$basic_string@DU?$char_traits@D@std@@V?$allocator@D@2@@std@@@2@@std@@@std@@QAE@XZ ; std::_Tidy_guard<std::vector<std::basic_string<char,std::char_traits<char>,std::allocator<char> >,std::allocator<std::basic_string<char,std::char_traits<char>,std::allocator<char> > > > >::~_Tidy_guard<std::vector<std::basic_string<char,std::char_traits<char>,std::allocator<char> >,std::allocator<std::basic_string<char,std::char_traits<char>,std::allocator<char> > > > >
PUBLIC	??1?$_Alloc_construct_ptr@V?$allocator@U?$_Tree_node@U?$pair@$$CBV?$basic_string@DU?$char_traits@D@std@@V?$allocator@D@2@@std@@K@std@@PAX@std@@@std@@@std@@QAE@XZ ; std::_Alloc_construct_ptr<std::allocator<std::_Tree_node<std::pair<std::basic_string<char,std::char_traits<char>,std::allocator<char> > const ,unsigned long>,void *> > >::~_Alloc_construct_ptr<std::allocator<std::_Tree_node<std::pair<std::basic_string<char,std::char_traits<char>,std::allocator<char> > const ,unsigned long>,void *> > >
PUBLIC	??1?$_Tree_temp_node_alloc@V?$allocator@U?$_Tree_node@U?$pair@$$CBV?$basic_string@DU?$char_traits@D@std@@V?$allocator@D@2@@std@@K@std@@PAX@std@@@std@@@std@@QAE@XZ ; std::_Tree_temp_node_alloc<std::allocator<std::_Tree_node<std::pair<std::basic_string<char,std::char_traits<char>,std::allocator<char> > const ,unsigned long>,void *> > >::~_Tree_temp_node_alloc<std::allocator<std::_Tree_node<std::pair<std::basic_string<char,std::char_traits<char>,std::allocator<char> > const ,unsigned long>,void *> > >
PUBLIC	??$_Construct_in_place@PAU?$_Tree_node@U?$pair@$$CBV?$basic_string@DU?$char_traits@D@std@@V?$allocator@D@2@@std@@V12@@std@@PAX@std@@AAPAU12@@std@@YAXAAPAU?$_Tree_node@U?$pair@$$CBV?$basic_string@DU?$char_traits@D@std@@V?$allocator@D@2@@std@@V12@@std@@PAX@0@0@Z ; std::_Construct_in_place<std::_Tree_node<std::pair<std::basic_string<char,std::char_traits<char>,std::allocator<char> > const ,std::basic_string<char,std::char_traits<char>,std::allocator<char> > >,void *> *,std::_Tree_node<std::pair<std::basic_string<char,std::char_traits<char>,std::allocator<char> > const ,std::basic_string<char,std::char_traits<char>,std::allocator<char> > >,void *> * &>
PUBLIC	??$_Destroy_in_place@PAU?$_Tree_node@U?$pair@$$CBV?$basic_string@DU?$char_traits@D@std@@V?$allocator@D@2@@std@@K@std@@PAX@std@@@std@@YAXAAPAU?$_Tree_node@U?$pair@$$CBV?$basic_string@DU?$char_traits@D@std@@V?$allocator@D@2@@std@@K@std@@PAX@0@@Z ; std::_Destroy_in_place<std::_Tree_node<std::pair<std::basic_string<char,std::char_traits<char>,std::allocator<char> > const ,unsigned long>,void *> *>
PUBLIC	??$_Construct_in_place@PAU?$_Tree_node@U?$pair@$$CBKUSSkillData@CPythonSkill@@@std@@PAX@std@@AAPAU12@@std@@YAXAAPAU?$_Tree_node@U?$pair@$$CBKUSSkillData@CPythonSkill@@@std@@PAX@0@0@Z ; std::_Construct_in_place<std::_Tree_node<std::pair<unsigned long const ,CPythonSkill::SSkillData>,void *> *,std::_Tree_node<std::pair<unsigned long const ,CPythonSkill::SSkillData>,void *> * &>
PUBLIC	??$_Uninitialized_copy@PAUSRequireStatData@CPythonSkill@@V?$allocator@USRequireStatData@CPythonSkill@@@std@@@std@@YAPAUSRequireStatData@CPythonSkill@@QAU12@0PAU12@AAV?$allocator@USRequireStatData@CPythonSkill@@@0@@Z ; std::_Uninitialized_copy<CPythonSkill::SRequireStatData *,std::allocator<CPythonSkill::SRequireStatData> >
PUBLIC	??$_Uninitialized_copy@PAUSAffectDataNew@CPythonSkill@@V?$allocator@USAffectDataNew@CPythonSkill@@@std@@@std@@YAPAUSAffectDataNew@CPythonSkill@@QAU12@0PAU12@AAV?$allocator@USAffectDataNew@CPythonSkill@@@0@@Z ; std::_Uninitialized_copy<CPythonSkill::SAffectDataNew *,std::allocator<CPythonSkill::SAffectDataNew> >
PUBLIC	??1?$_Uninitialized_backout_al@V?$allocator@USAffectData@CPythonSkill@@@std@@@std@@QAE@XZ ; std::_Uninitialized_backout_al<std::allocator<CPythonSkill::SAffectData> >::~_Uninitialized_backout_al<std::allocator<CPythonSkill::SAffectData> >
PUBLIC	??$_Uninitialized_copy@PAUSAffectData@CPythonSkill@@V?$allocator@USAffectData@CPythonSkill@@@std@@@std@@YAPAUSAffectData@CPythonSkill@@QAU12@0PAU12@AAV?$allocator@USAffectData@CPythonSkill@@@0@@Z ; std::_Uninitialized_copy<CPythonSkill::SAffectData *,std::allocator<CPythonSkill::SAffectData> >
PUBLIC	??$_Uninitialized_copy@PAV?$basic_string@DU?$char_traits@D@std@@V?$allocator@D@2@@std@@V?$allocator@V?$basic_string@DU?$char_traits@D@std@@V?$allocator@D@2@@std@@@2@@std@@YAPAV?$basic_string@DU?$char_traits@D@std@@V?$allocator@D@2@@0@QAV10@0PAV10@AAV?$allocator@V?$basic_string@DU?$char_traits@D@std@@V?$allocator@D@2@@std@@@0@@Z ; std::_Uninitialized_copy<std::basic_string<char,std::char_traits<char>,std::allocator<char> > *,std::allocator<std::basic_string<char,std::char_traits<char>,std::allocator<char> > > >
PUBLIC	??$?MDU?$char_traits@D@std@@V?$allocator@D@1@@std@@YA_NABV?$basic_string@DU?$char_traits@D@std@@V?$allocator@D@2@@0@0@Z ; std::operator<<char,std::char_traits<char>,std::allocator<char> >
PUBLIC	??$_Construct_in_place@PAU?$_Tree_node@U?$pair@$$CBV?$basic_string@DU?$char_traits@D@std@@V?$allocator@D@2@@std@@K@std@@PAX@std@@AAPAU12@@std@@YAXAAPAU?$_Tree_node@U?$pair@$$CBV?$basic_string@DU?$char_traits@D@std@@V?$allocator@D@2@@std@@K@std@@PAX@0@0@Z ; std::_Construct_in_place<std::_Tree_node<std::pair<std::basic_string<char,std::char_traits<char>,std::allocator<char> > const ,unsigned long>,void *> *,std::_Tree_node<std::pair<std::basic_string<char,std::char_traits<char>,std::allocator<char> > const ,unsigned long>,void *> * &>
PUBLIC	??$_Copy_memmove@PAUSRequireStatData@CPythonSkill@@PAU12@@std@@YAPAUSRequireStatData@CPythonSkill@@PAU12@00@Z ; std::_Copy_memmove<CPythonSkill::SRequireStatData *,CPythonSkill::SRequireStatData *>
PUBLIC	?_OptionsStorage@?1??__local_stdio_printf_options@@9@4_KA ; `__local_stdio_printf_options'::`2'::_OptionsStorage
PUBLIC	??_7exception@std@@6B@				; std::exception::`vftable'
PUBLIC	??_C@_0BC@EOODALEL@Unknown?5exception@		; `string'
PUBLIC	??_7bad_alloc@std@@6B@				; std::bad_alloc::`vftable'
PUBLIC	??_7bad_array_new_length@std@@6B@		; std::bad_array_new_length::`vftable'
PUBLIC	??_C@_0BF@KINCDENJ@bad?5array?5new?5length@	; `string'
PUBLIC	__TI3?AVbad_array_new_length@std@@
PUBLIC	__CTA3?AVbad_array_new_length@std@@
PUBLIC	??_R0?AVbad_array_new_length@std@@@8		; std::bad_array_new_length `RTTI Type Descriptor'
PUBLIC	__CT??_R0?AVbad_array_new_length@std@@@8??0bad_array_new_length@std@@QAE@ABV01@@Z12
PUBLIC	??_R0?AVbad_alloc@std@@@8			; std::bad_alloc `RTTI Type Descriptor'
PUBLIC	__CT??_R0?AVbad_alloc@std@@@8??0bad_alloc@std@@QAE@ABV01@@Z12
PUBLIC	??_R0?AVexception@std@@@8			; std::exception `RTTI Type Descriptor'
PUBLIC	__CT??_R0?AVexception@std@@@8??0exception@std@@QAE@ABV01@@Z12
PUBLIC	??_C@_0BA@JFNIOLAK@string?5too?5long@		; `string'
PUBLIC	??_C@_0BB@GCADKGJO@map?1set?5too?5long@		; `string'
PUBLIC	??_C@_00CNPNBAHC@@				; `string'
PUBLIC	?ms_singleton@?$CSingleton@VCResourceManager@@@@0PAVCResourceManager@@A ; CSingleton<CResourceManager>::ms_singleton
PUBLIC	??_C@_0BI@CFPLBAOH@invalid?5string?5position@	; `string'
PUBLIC	??_C@_0BA@FOIKENOD@vector?5too?5long@		; `string'
PUBLIC	??_R4exception@std@@6B@				; std::exception::`RTTI Complete Object Locator'
PUBLIC	??_R3exception@std@@8				; std::exception::`RTTI Class Hierarchy Descriptor'
PUBLIC	??_R2exception@std@@8				; std::exception::`RTTI Base Class Array'
PUBLIC	??_R1A@?0A@EA@exception@std@@8			; std::exception::`RTTI Base Class Descriptor at (0,-1,0,64)'
PUBLIC	??_R4bad_alloc@std@@6B@				; std::bad_alloc::`RTTI Complete Object Locator'
PUBLIC	??_R3bad_alloc@std@@8				; std::bad_alloc::`RTTI Class Hierarchy Descriptor'
PUBLIC	??_R2bad_alloc@std@@8				; std::bad_alloc::`RTTI Base Class Array'
PUBLIC	??_R1A@?0A@EA@bad_alloc@std@@8			; std::bad_alloc::`RTTI Base Class Descriptor at (0,-1,0,64)'
PUBLIC	??_R4bad_array_new_length@std@@6B@		; std::bad_array_new_length::`RTTI Complete Object Locator'
PUBLIC	??_R3bad_array_new_length@std@@8		; std::bad_array_new_length::`RTTI Class Hierarchy Descriptor'
PUBLIC	??_R2bad_array_new_length@std@@8		; std::bad_array_new_length::`RTTI Base Class Array'
PUBLIC	??_R1A@?0A@EA@bad_array_new_length@std@@8	; std::bad_array_new_length::`RTTI Base Class Descriptor at (0,-1,0,64)'
PUBLIC	?ms_singleton@?$CSingleton@VCPythonSkill@@@@0PAVCPythonSkill@@A ; CSingleton<CPythonSkill>::ms_singleton
PUBLIC	??_7?$CSingleton@VCPythonSkill@@@@6B@		; CSingleton<CPythonSkill>::`vftable'
PUBLIC	?ms_StatusNameMap@SSkillData@CPythonSkill@@2V?$map@V?$basic_string@DU?$char_traits@D@std@@V?$allocator@D@2@@std@@KU?$less@V?$basic_string@DU?$char_traits@D@std@@V?$allocator@D@2@@std@@@2@V?$allocator@U?$pair@$$CBV?$basic_string@DU?$char_traits@D@std@@V?$allocator@D@2@@std@@K@std@@@2@@std@@A ; CPythonSkill::SSkillData::ms_StatusNameMap
PUBLIC	?ms_NewMinStatusNameMap@SSkillData@CPythonSkill@@2V?$map@V?$basic_string@DU?$char_traits@D@std@@V?$allocator@D@2@@std@@KU?$less@V?$basic_string@DU?$char_traits@D@std@@V?$allocator@D@2@@std@@@2@V?$allocator@U?$pair@$$CBV?$basic_string@DU?$char_traits@D@std@@V?$allocator@D@2@@std@@K@std@@@2@@std@@A ; CPythonSkill::SSkillData::ms_NewMinStatusNameMap
PUBLIC	?ms_NewMaxStatusNameMap@SSkillData@CPythonSkill@@2V?$map@V?$basic_string@DU?$char_traits@D@std@@V?$allocator@D@2@@std@@KU?$less@V?$basic_string@DU?$char_traits@D@std@@V?$allocator@D@2@@std@@@2@V?$allocator@U?$pair@$$CBV?$basic_string@DU?$char_traits@D@std@@V?$allocator@D@2@@std@@K@std@@@2@@std@@A ; CPythonSkill::SSkillData::ms_NewMaxStatusNameMap
PUBLIC	??_7CPythonSkill@@6B@				; CPythonSkill::`vftable'
PUBLIC	?ms_singleton@?$CSingleton@VCEterPackManager@@@@0PAVCEterPackManager@@A ; CSingleton<CEterPackManager>::ms_singleton
PUBLIC	?ms_kPool@?$CPooledObject@VCHeaderDecorator@NEffectUpdateDecorator@@@@1V?$CDynamicPoolEx@VCHeaderDecorator@NEffectUpdateDecorator@@@@A ; CPooledObject<NEffectUpdateDecorator::CHeaderDecorator>::ms_kPool
PUBLIC	?ms_kPool@?$CPooledObject@VCNullDecorator@NEffectUpdateDecorator@@@@1V?$CDynamicPoolEx@VCNullDecorator@NEffectUpdateDecorator@@@@A ; CPooledObject<NEffectUpdateDecorator::CNullDecorator>::ms_kPool
PUBLIC	?ms_kPool@?$CPooledObject@VCTextureAnimationCWDecorator@NEffectUpdateDecorator@@@@1V?$CDynamicPoolEx@VCTextureAnimationCWDecorator@NEffectUpdateDecorator@@@@A ; CPooledObject<NEffectUpdateDecorator::CTextureAnimationCWDecorator>::ms_kPool
PUBLIC	?ms_kPool@?$CPooledObject@VCTextureAnimationCCWDecorator@NEffectUpdateDecorator@@@@1V?$CDynamicPoolEx@VCTextureAnimationCCWDecorator@NEffectUpdateDecorator@@@@A ; CPooledObject<NEffectUpdateDecorator::CTextureAnimationCCWDecorator>::ms_kPool
PUBLIC	?ms_kPool@?$CPooledObject@VCTextureAnimationRandomDecorator@NEffectUpdateDecorator@@@@1V?$CDynamicPoolEx@VCTextureAnimationRandomDecorator@NEffectUpdateDecorator@@@@A ; CPooledObject<NEffectUpdateDecorator::CTextureAnimationRandomDecorator>::ms_kPool
PUBLIC	?ms_kPool@?$CPooledObject@VCAirResistanceDecorator@NEffectUpdateDecorator@@@@1V?$CDynamicPoolEx@VCAirResistanceDecorator@NEffectUpdateDecorator@@@@A ; CPooledObject<NEffectUpdateDecorator::CAirResistanceDecorator>::ms_kPool
PUBLIC	?ms_kPool@?$CPooledObject@VCGravityDecorator@NEffectUpdateDecorator@@@@1V?$CDynamicPoolEx@VCGravityDecorator@NEffectUpdateDecorator@@@@A ; CPooledObject<NEffectUpdateDecorator::CGravityDecorator>::ms_kPool
PUBLIC	?ms_kPool@?$CPooledObject@VCRotationDecorator@NEffectUpdateDecorator@@@@1V?$CDynamicPoolEx@VCRotationDecorator@NEffectUpdateDecorator@@@@A ; CPooledObject<NEffectUpdateDecorator::CRotationDecorator>::ms_kPool
PUBLIC	?ms_singleton@?$CSingleton@VCPythonPlayer@@@@0PAVCPythonPlayer@@A ; CSingleton<CPythonPlayer>::ms_singleton
PUBLIC	??_C@_0FG@JMHDMKFK@CPythonSkill?3?3RegisterSkillTabl@ ; `string'
PUBLIC	??_C@_0EO@GJJLGCC@CPythonSkill?3?3RegisterSkillTabl@ ; `string'
PUBLIC	??_C@_03IINAMCGF@atk@				; `string'
PUBLIC	??_C@_04MPLEFDAG@mwep@				; `string'
PUBLIC	??_C@_06EBGNBFIA@number@			; `string'
PUBLIC	??_C@_03KLIPLJLL@min@				; `string'
PUBLIC	??_C@_06NHGAHIJM@minatk@			; `string'
PUBLIC	??_C@_07LIKKJAE@minmwep@			; `string'
PUBLIC	??_C@_03LJAEFNNE@max@				; `string'
PUBLIC	??_C@_06NEJDJIND@maxatk@			; `string'
PUBLIC	??_C@_07ONOKAGOF@maxmwep@			; `string'
PUBLIC	??_C@_03NNBCEMGJ@?$CK?53@			; `string'
PUBLIC	??_C@_05GMJBCDPG@_?$CF02d@			; `string'
PUBLIC	??_C@_04DLFHDFGL@?4sub@				; `string'
PUBLIC	??_C@_0CC@GCKFPEAL@SkillDesc?4line?$CI?$CFd?$CJ?4NO_VNUM_ERRO@ ; `string'
PUBLIC	??_C@_0CD@PBEIPNPF@SkillDesc?4line?$CI?$CFd?$CJ?4NO_INDEX_ERR@ ; `string'
PUBLIC	??_C@_0CB@DMLPIAAA@SkillDesc?4line?$CI?$CFd?$CJ?4NO_JOB_ERROR@ ; `string'
PUBLIC	??_C@_0FA@HKALFJMK@CPythonSkill?3?3RegisterSkillDesc@ ; `string'
PUBLIC	??_C@_01DNKMNLPK@?$HM@				; `string'
PUBLIC	??_C@_0EP@BPIIEGNI@CPythonSkill?3?3RegisterSkillDesc@ ; `string'
PUBLIC	??_C@_0FB@LIPAFJME@CPythonSkill?3?3RegisterSkillDesc@ ; `string'
PUBLIC	??_C@_0BI@FJJHCJFN@?$CFsskill?1common?1support?1@ ; `string'
PUBLIC	??_C@_0M@MMGCNLPF@?$CFsskill?1?$CFs?1@		; `string'
PUBLIC	??_C@_0CI@PBLMEEEN@?$CFs?$FL?$CFs?$FN?5?$LA?$KB?5?$LF?n?$LB?$NO?5?A?$KG?G?Q?$FL?$CFd?$FN?$MA?$LL?5?$LD?Q?$LO?n?$LA@ ; `string'
PUBLIC	??_C@_0FE@DNAFFMLK@CPythonSkill?3?3RegisterSkill?$CIdwS@ ; `string'
PUBLIC	??_C@_0FD@BPAOEOEO@Strange?5Skill?5Type?5?9?5CPythonSki@ ; `string'
PUBLIC	??_C@_0FK@GEMIAIHM@CPythonSkill?3?3RegisterSkill?$CIdwS@ ; `string'
PUBLIC	??_C@_09HGIEBAJ@attribute@			; `string'
PUBLIC	??_C@_0FI@NGLMACOA@Strange?5Skill?5Attribute?5?9?5CPyth@ ; `string'
PUBLIC	??_C@_0L@OFCPBCKK@needweapon@			; `string'
PUBLIC	??_C@_0FK@CIMCNNKO@Strange?5Skill?5Need?5Weapon?5?9?5CPy@ ; `string'
PUBLIC	??_C@_06JBGOOFCN@?$CFdname@			; `string'
PUBLIC	??_C@_0FE@LFJDJPLO@CPythonSkill?3?3RegisterSkill?$CIdwS@ ; `string'
PUBLIC	??_C@_0O@NCHOGIBK@?$CFddescription@		; `string'
PUBLIC	??_C@_0M@PPJNHBMP@description@			; `string'
PUBLIC	??_C@_0N@CDMMOEBD@iconfilename@			; `string'
PUBLIC	??_C@_0FO@BPLAJAHG@CPythonSkill?3?3RegisterSkill?$CIdwS@ ; `string'
PUBLIC	??_C@_0BA@IOBOECCA@?$CFdconditiondata@		; `string'
PUBLIC	??_C@_0O@BGDKPGFJ@conditiondata@		; `string'
PUBLIC	??_C@_0N@GFIELPPM@?$CFdaffectdata@		; `string'
PUBLIC	??_C@_0L@IEHCOHAD@affectdata@			; `string'
PUBLIC	??_C@_0M@PCGMAJCD@?$CFdgradedata@		; `string'
PUBLIC	??_C@_0FJ@NEGDHIMM@CPythonSkill?3?3RegisterSkill?$CIdwS@ ; `string'
PUBLIC	??_C@_0BA@EILLLIMM@cooltimeformula@		; `string'
PUBLIC	??_C@_0BD@GDJBKHMN@targetcountformula@		; `string'
PUBLIC	??_C@_0BH@DAEIJFBL@motionloopcountformula@	; `string'
PUBLIC	??_C@_0O@OKAHIEDK@needspformula@		; `string'
PUBLIC	??_C@_0BG@DFAOMADI@continuationspformula@	; `string'
PUBLIC	??_C@_05CCGOGOBM@range@				; `string'
PUBLIC	??_C@_08JAPIFGPH@maxlevel@			; `string'
PUBLIC	??_C@_0N@BIJBKECH@leveluppoint@			; `string'
PUBLIC	??_C@_0M@DIJMKMOF@motionindex@			; `string'
PUBLIC	??_C@_0BB@FIGDLACA@motionindexforme@		; `string'
PUBLIC	??_C@_01NOFIACDB@w@				; `string'
PUBLIC	??_C@_08OKJMHBIC@test?4txt@			; `string'
PUBLIC	??_C@_01GPOEFGEJ@?7@				; `string'
PUBLIC	??_C@_02DPKJAMEF@?$CFd@				; `string'
PUBLIC	??_C@_03OFAPEBGM@?$CFs?6@			; `string'
PUBLIC	??_C@_06MDLIGPKC@active@			; `string'
PUBLIC	??_C@_07ILMBEDPO@support@			; `string'
PUBLIC	??_C@_05GMIMCKGP@guild@				; `string'
PUBLIC	??_C@_05DOPDBCAL@horse@				; `string'
PUBLIC	??_C@_07MMNNMPML@warrior@			; `string'
PUBLIC	??_C@_08BFJJNNGH@assassin@			; `string'
PUBLIC	??_C@_04PANNCEIL@sura@				; `string'
PUBLIC	??_C@_06IEMBPBBN@shaman@			; `string'
PUBLIC	??_C@_07CGFACAKO@passive@			; `string'
PUBLIC	??_C@_0BD@HPCMPHGF@NEED_POISON_BOTTLE@		; `string'
PUBLIC	??_C@_0BC@DDKDAKLO@NEED_EMPTY_BOTTLE@		; `string'
PUBLIC	??_C@_0BG@KFFKABFH@CAN_USE_IF_NOT_ENOUGH@	; `string'
PUBLIC	??_C@_09IHHGJKF@FAN_RANGE@			; `string'
PUBLIC	??_C@_0M@GMELPIKL@NEED_CORPSE@			; `string'
PUBLIC	??_C@_0M@HCIEKIGP@NEED_TARGET@			; `string'
PUBLIC	??_C@_06FDJJHOKF@TOGGLE@			; `string'
PUBLIC	??_C@_0BC@NOPFFPJN@WEAPON_LIMITATION@		; `string'
PUBLIC	??_C@_0N@OECBKPIO@MELEE_ATTACK@			; `string'
PUBLIC	??_C@_0O@OBGKPFHN@CHARGE_ATTACK@		; `string'
PUBLIC	??_C@_06FOCLNFCJ@USE_HP@			; `string'
PUBLIC	??_C@_0BF@KAHLCFKD@CAN_CHANGE_DIRECTION@	; `string'
PUBLIC	??_C@_0P@LCOEKGDG@STANDING_SKILL@		; `string'
PUBLIC	??_C@_0BC@CKDFNGK@ONLY_FOR_ALLIANCE@		; `string'
PUBLIC	??_C@_0P@JIHFJGIE@CAN_USE_FOR_ME@		; `string'
PUBLIC	??_C@_0N@DGOOFKCE@ATTACK_SKILL@			; `string'
PUBLIC	??_C@_0N@DMIFKBAA@MOVING_SKILL@			; `string'
PUBLIC	??_C@_0M@NDECBLLN@HORSE_SKILL@			; `string'
PUBLIC	??_C@_0BE@PHFCBKJJ@TIME_INCREASE_SKILL@		; `string'
PUBLIC	??_C@_07NLANJMCK@PASSIVE@			; `string'
PUBLIC	??_C@_0BA@PANOFCME@CANNOT_LEVEL_UP@		; `string'
PUBLIC	??_C@_0BD@OHHCPGPG@ONLY_FOR_GUILD_WAR@		; `string'
PUBLIC	??_C@_0N@CDNKGDPF@CIRCLE_RANGE@			; `string'
PUBLIC	??_C@_0O@DNFBBGFD@SEARCH_TARGET@		; `string'
PUBLIC	??_C@_05HGEOAPGK@SWORD@				; `string'
PUBLIC	??_C@_06EBPDMAC@DAGGER@				; `string'
PUBLIC	??_C@_03GBJKLBDL@BOW@				; `string'
PUBLIC	??_C@_0L@CIOLFOIH@TWO_HANDED@			; `string'
PUBLIC	??_C@_0N@OINLDIMI@DOUBLE_SWORD@			; `string'
PUBLIC	??_C@_04JCGINPGJ@BELL@				; `string'
PUBLIC	??_C@_03HPGGKCHO@FAN@				; `string'
PUBLIC	??_C@_05CHNCNNHJ@ARROW@				; `string'
PUBLIC	??_C@_0L@BFLCNLLJ@EMPTY_HAND@			; `string'
PUBLIC	??_C@_05FGPNDJME@chain@				; `string'
PUBLIC	??_C@_02PGLKMFED@HR@				; `string'
PUBLIC	??_C@_02JFNPKIJL@LV@				; `string'
PUBLIC	??_C@_05KOHFLOFG@Level@				; `string'
PUBLIC	??_C@_05DDBABAEM@MaxHP@				; `string'
PUBLIC	??_C@_05CDGDFMNN@MaxSP@				; `string'
PUBLIC	??_C@_07DOMGCJCK@MinMWEP@			; `string'
PUBLIC	??_C@_07NIKGIGML@MaxMWEP@			; `string'
PUBLIC	??_C@_06NEIGIGOC@MinWEP@			; `string'
PUBLIC	??_C@_06NHHFGGKN@MaxWEP@			; `string'
PUBLIC	??_C@_06BFCGIMHM@MinATK@			; `string'
PUBLIC	??_C@_06BGNFGMDD@MaxATK@			; `string'
PUBLIC	??_C@_06BJMCHJAI@ATKSPD@			; `string'
PUBLIC	??_C@_0M@LAGJIOMN@AttackPower@			; `string'
PUBLIC	??_C@_06CLLIGBKB@AtkMin@			; `string'
PUBLIC	??_C@_06DJDDIFMO@AtkMax@			; `string'
PUBLIC	??_C@_0N@BDLLDGMK@DefencePower@			; `string'
PUBLIC	??_C@_03BKLPEICB@DEF@				; `string'
PUBLIC	??_C@_04DIOLBHO@MWEP@				; `string'
PUBLIC	??_C@_0BB@JCAPOPOP@MagicAttackPower@		; `string'
PUBLIC	??_C@_03JMHEAPMO@INT@				; `string'
PUBLIC	??_C@_03OEDLDJBF@STR@				; `string'
PUBLIC	??_C@_03MOPOHHPO@DEX@				; `string'
PUBLIC	??_C@_03ECCGHPEG@CON@				; `string'
PUBLIC	??_C@_06JNLGMHCE@minmtk@			; `string'
PUBLIC	??_C@_06JOEFCHGL@maxmtk@			; `string'
PUBLIC	??_C@_05JJHFHHDI@maxhp@				; `string'
PUBLIC	??_C@_05IJAGDLKJ@maxsp@				; `string'
PUBLIC	??_C@_04OLEAENMA@odef@				; `string'
PUBLIC	??_C@_06BGMAHCAC@minwep@			; `string'
PUBLIC	??_C@_06BFDDJCEN@maxwep@			; `string'
PUBLIC	??_C@_02DIBGMKNJ@lv@				; `string'
PUBLIC	??_C@_02FEKCJMIO@ar@				; `string'
PUBLIC	??_C@_02HBJMJOPF@iq@				; `string'
PUBLIC	??_C@_03OJMAPEGJ@str@				; `string'
PUBLIC	??_C@_03MDAFLKIC@dex@				; `string'
PUBLIC	??_C@_03EPNNLCDK@con@				; `string'
PUBLIC	??_C@_03MCAGHNNN@mtk@				; `string'
PUBLIC	??_C@_03EJHAMIPL@wep@				; `string'
PUBLIC	??_C@_07DBIAHDEP@WARRIOR@			; `string'
PUBLIC	??_C@_08GKDFODEA@ASSASSIN@			; `string'
PUBLIC	??_C@_04DMOHMGPD@SURA@				; `string'
PUBLIC	??_C@_06IAOKCPMP@SHAMAN@			; `string'
PUBLIC	??_C@_0P@BOFCEHLM@common?1support@		; `string'
PUBLIC	??_C@_07HGJMPPHK@SUPPORT@			; `string'
PUBLIC	??_C@_0N@PLNCGJNB@common?1guild@		; `string'
PUBLIC	??_C@_05KHBKMNCB@GUILD@				; `string'
PUBLIC	??_C@_0N@KJKNFBLF@common?1horse@		; `string'
PUBLIC	??_C@_05PFGFPFEF@HORSE@				; `string'
PUBLIC	??_C@_07OJCANPON@JeungJi@			; `string'
PUBLIC	??_C@_0L@DPGJKEBB@SkillPoint@			; `string'
PUBLIC	??_C@_01DICPFPGM@k@				; `string'
PUBLIC	??_C@_0CG@HMNMMGCM@skillGetAffect?5?9?5Strange?5Formul@ ; `string'
PUBLIC	??_C@_04GHNNFJCK@?$CF?40f@			; `string'
PUBLIC	??_C@_0DO@CIPJKINI@skill?4RegisterSkill?5?9?5Failed?5to@ ; `string'
PUBLIC	??_C@_0BK@EHEHLDPB@Failed?5to?5load?5Skill?5Desc@ ; `string'
PUBLIC	??_C@_0DA@NFCGPBGN@skill?4GetSkillName?5?9?5Failed?5to?5@ ; `string'
PUBLIC	??_C@_01LKDEMHDF@s@				; `string'
PUBLIC	??_C@_0DH@IPEMHLCJ@skill?4GetSkillDescription?5?9?5Fai@ ; `string'
PUBLIC	??_C@_0DA@INMEACAF@skill?4GetSkillType?5?9?5Failed?5to?5@ ; `string'
PUBLIC	??_C@_01KBJDNOO@i@				; `string'
PUBLIC	??_C@_0EF@FCDOKCFE@skill?4GetSkillConditionDescript@ ; `string'
PUBLIC	??_C@_0EC@BBPGDICG@skill?4GetSkillConditionDescript@ ; `string'
PUBLIC	??_C@_04OHJIHAFH@None@				; `string'
PUBLIC	??_C@_0EC@GNHMANKN@skill?4GetSkillAffectDescription@ ; `string'
PUBLIC	??_C@_0DN@GOILKJOL@skill?4GetSkillAffectDescription@ ; `string'
PUBLIC	??_C@_0DE@OPJBIDNE@skill?4GetSkillCoolTime?5?9?5Failed@ ; `string'
PUBLIC	??_C@_0DA@JCGHCILN@skill?4GetSkillNeedSP?5Failed?5to?5@ ; `string'
PUBLIC	??_C@_0DK@KAOLKAON@skill?4GetSkillContinuationSP?5?9?5@ ; `string'
PUBLIC	??_C@_0DE@GMCGPCPN@skill?4GetSkillMaxLevel?5?9?5Failed@ ; `string'
PUBLIC	??_C@_0DI@BIBFKFFF@skill?4GetSkillLevelUpPoint?5?9?5Fa@ ; `string'
PUBLIC	??_C@_0DG@NOMBCANI@skill?4GetSkillLevelLimit?5?9?5Fail@ ; `string'
PUBLIC	??_C@_0DG@KGFIMNPN@skill?4IsSkillRequirement?5?9?5Fail@ ; `string'
PUBLIC	??_C@_0EL@ICHNDOAM@skill?4IsSkillRequirement?5?9?5Fail@ ; `string'
PUBLIC	??_C@_0DL@ONFGMLIM@skill?4GetSkillRequirementData?5?9@ ; `string'
PUBLIC	??_C@_02OCDGCAAK@si@				; `string'
PUBLIC	??_C@_0DM@OIJBJLGH@skill?4GetSkillRequireStatCount?5@ ; `string'
PUBLIC	??_C@_0DL@KJNPLMH@skill?4GetSkillRequireStatData?5?9@ ; `string'
PUBLIC	??_C@_02PDIHAGKM@ii@				; `string'
PUBLIC	??_C@_0DD@IKLGIIBP@skill?4CanLevelUpSkill?5?9?5Failed?5@ ; `string'
PUBLIC	??_C@_0DM@ECFJDING@skill?4CheckRequirementSueccess?5@ ; `string'
PUBLIC	??_C@_0DJ@LIKJDHHI@skill?4GetNeedCharacterLevel?5?9?5F@ ; `string'
PUBLIC	??_C@_0DB@CHHDEPFC@skill?4IsToggleSkill?5?9?5Failed?5to@ ; `string'
PUBLIC	??_C@_0DA@MJDGFODH@skill?4IsUseHPSkill?5?9?5Failed?5to?5@ ; `string'
PUBLIC	??_C@_0DD@MABMBDPO@skill?4IsStandingSkill?5?9?5Failed?5@ ; `string'
PUBLIC	??_C@_0CP@NNBFAJHG@skill?4CanUseSkill?5?9?5Failed?5to?5f@ ; `string'
PUBLIC	??_C@_0DC@CENGELDK@skill?4IsLevelUpSkill?5?9?5Failed?5t@ ; `string'
PUBLIC	??_C@_0DD@KEMABJPN@skill?4GetIconInstance?5?9?5Failed?5@ ; `string'
PUBLIC	??_C@_0DG@FIBFEPFG@skill?4GetIconInstanceNew?5?9?5Fail@ ; `string'
PUBLIC	??_C@_0DA@KDCMPJNE@skill?4GetGradeData?5?9?5Failed?5to?5@ ; `string'
PUBLIC	??_C@_0BJ@JFEABPIC@Strange?5grade?5index?5?$FL?$CFd?$FN@ ; `string'
PUBLIC	??_C@_0DJ@CIKNCBHD@skill?4GetNewAffectDataCount?5?9?5F@ ; `string'
PUBLIC	??_C@_0DE@OAOBJMAB@skill?4GetNewAffectData?5?9?5Failed@ ; `string'
PUBLIC	??_C@_0DB@HOKFKPGM@?5skill?4GetNewAffectData?5?9?5Stran@ ; `string'
PUBLIC	??_C@_03NIMMFECC@sff@				; `string'
PUBLIC	??_C@_0CP@PIJHMHNL@skill?4GetDuration?5?9?5Failed?5to?5f@ ; `string'
PUBLIC	??_C@_0M@LPKBIHHH@SetPathName@			; `string'
PUBLIC	??_C@_0O@HFDAJMID@RegisterSkill@		; `string'
PUBLIC	??_C@_0O@EOBHKOMF@LoadSkillData@		; `string'
PUBLIC	??_C@_0P@CCIBNFJH@ClearSkillData@		; `string'
PUBLIC	??_C@_0N@ICDCNFCK@GetSkillName@			; `string'
PUBLIC	??_C@_0BE@KMOMILIC@GetSkillDescription@		; `string'
PUBLIC	??_C@_0N@CJDBBFFK@GetSkillType@			; `string'
PUBLIC	??_C@_0CC@ODGHFHOM@GetSkillConditionDescriptionCou@ ; `string'
PUBLIC	??_C@_0BN@HCEIODN@GetSkillConditionDescription@	; `string'
PUBLIC	??_C@_0BP@JNKPHGMM@GetSkillAffectDescriptionCount@ ; `string'
PUBLIC	??_C@_0BK@LKIJJIBH@GetSkillAffectDescription@	; `string'
PUBLIC	??_C@_0BB@CNGGKNGL@GetSkillCoolTime@		; `string'
PUBLIC	??_C@_0P@FOMOMLEO@GetSkillNeedSP@		; `string'
PUBLIC	??_C@_0BH@KCKIGPBP@GetSkillContinuationSP@	; `string'
PUBLIC	??_C@_0BB@BOBBPPLD@GetSkillMaxLevel@		; `string'
PUBLIC	??_C@_0BF@OOHFIPJA@GetSkillLevelUpPoint@	; `string'
PUBLIC	??_C@_0BD@EFBEHGJD@GetSkillLevelLimit@		; `string'
PUBLIC	??_C@_0BD@DDDOLMOO@IsSkillRequirement@		; `string'
PUBLIC	??_C@_0BI@KEHKEMFK@GetSkillRequirementData@	; `string'
PUBLIC	??_C@_0BJ@MFDNCGMA@GetSkillRequireStatCount@	; `string'
PUBLIC	??_C@_0BI@ENABGEG@GetSkillRequireStatData@	; `string'
PUBLIC	??_C@_0BA@PPEEBLJG@CanLevelUpSkill@		; `string'
PUBLIC	??_C@_0P@FFJOKPAC@IsLevelUpSkill@		; `string'
PUBLIC	??_C@_0BJ@IKLDBFHG@CheckRequirementSueccess@	; `string'
PUBLIC	??_C@_0BG@FNHMFCFA@GetNeedCharacterLevel@	; `string'
PUBLIC	??_C@_0O@MFGECKPP@IsToggleSkill@		; `string'
PUBLIC	??_C@_0N@OINKFIKA@IsUseHPSkill@			; `string'
PUBLIC	??_C@_0BA@GOPNFICC@IsStandingSkill@		; `string'
PUBLIC	??_C@_0M@PEGEECMA@CanUseSkill@			; `string'
PUBLIC	??_C@_0M@EBHJIJIK@GetIconName@			; `string'
PUBLIC	??_C@_0N@IEABDKDK@GetIconImage@			; `string'
PUBLIC	??_C@_0BA@COPLEHNJ@GetIconImageNew@		; `string'
PUBLIC	??_C@_0BA@PMLMLIHH@GetIconInstance@		; `string'
PUBLIC	??_C@_0BD@OKNMGMMK@GetIconInstanceNew@		; `string'
PUBLIC	??_C@_0BD@BNBIIKMM@DeleteIconInstance@		; `string'
PUBLIC	??_C@_0N@FGDKEBNC@GetGradeData@			; `string'
PUBLIC	??_C@_0BG@IBOHFBML@GetNewAffectDataCount@	; `string'
PUBLIC	??_C@_0BB@BKIHFCCH@GetNewAffectData@		; `string'
PUBLIC	??_C@_0M@DDOIJMMH@GetDuration@			; `string'
PUBLIC	??_C@_04OIKJMBFP@TEST@				; `string'
PUBLIC	??_C@_05ODMCMJAJ@skill@				; `string'
PUBLIC	??_C@_0BA@PDFAJBCB@SKILL_TYPE_NONE@		; `string'
PUBLIC	??_C@_0BC@PKECMCK@SKILL_TYPE_ACTIVE@		; `string'
PUBLIC	??_C@_0BD@PNOKHAAN@SKILL_TYPE_SUPPORT@		; `string'
PUBLIC	??_C@_0BB@EHNGBHBD@SKILL_TYPE_GUILD@		; `string'
PUBLIC	??_C@_0BB@BFKJCPHH@SKILL_TYPE_HORSE@		; `string'
PUBLIC	??_C@_0BD@EPLKCGIN@SKILL_TYPE_MAX_NUM@		; `string'
PUBLIC	??_C@_0BC@BOJNDPOL@SKILL_GRADE_COUNT@		; `string'
PUBLIC	??_C@_0BH@GLOHPBFD@SKILL_GRADE_STEP_COUNT@	; `string'
PUBLIC	??_C@_0P@KEADCIEM@SKILL_GRADEGAP@		; `string'
PUBLIC	??_C@_0BD@FJPAJOM@SKILL_EFFECT_COUNT@		; `string'
PUBLIC	??_C@_0BJ@DHFDPMIM@invalid?5vector?5subscript@	; `string'
PUBLIC	??_R4CPythonSkill@@6B@				; CPythonSkill::`RTTI Complete Object Locator'
PUBLIC	??_R0?AVCPythonSkill@@@8			; CPythonSkill `RTTI Type Descriptor'
PUBLIC	??_R3CPythonSkill@@8				; CPythonSkill::`RTTI Class Hierarchy Descriptor'
PUBLIC	??_R2CPythonSkill@@8				; CPythonSkill::`RTTI Base Class Array'
PUBLIC	??_R1A@?0A@EA@CPythonSkill@@8			; CPythonSkill::`RTTI Base Class Descriptor at (0,-1,0,64)'
PUBLIC	??_R1A@?0A@EA@?$CSingleton@VCPythonSkill@@@@8	; CSingleton<CPythonSkill>::`RTTI Base Class Descriptor at (0,-1,0,64)'
PUBLIC	??_R0?AV?$CSingleton@VCPythonSkill@@@@@8	; CSingleton<CPythonSkill> `RTTI Type Descriptor'
PUBLIC	??_R3?$CSingleton@VCPythonSkill@@@@8		; CSingleton<CPythonSkill>::`RTTI Class Hierarchy Descriptor'
PUBLIC	??_R2?$CSingleton@VCPythonSkill@@@@8		; CSingleton<CPythonSkill>::`RTTI Base Class Array'
PUBLIC	??_R4?$CSingleton@VCPythonSkill@@@@6B@		; CSingleton<CPythonSkill>::`RTTI Complete Object Locator'
PUBLIC	__real@00000000
PUBLIC	__real@42c80000
PUBLIC	__xmm@80000000800000008000000080000000
EXTRN	??_L@YGXPAXIIP6EX0@Z1@Z:PROC			; `eh vector constructor iterator'
EXTRN	??__C@YGXPAX0IIP6EX00@ZP6EX0@Z@Z:PROC		; `eh vector copy constructor iterator'
EXTRN	??_M@YGXPAXIIP6EX0@Z@Z:PROC			; `eh vector destructor iterator'
EXTRN	??2@YAPAXI@Z:PROC				; operator new
EXTRN	??3@YAXPAX@Z:PROC				; operator delete
EXTRN	??3@YAXPAXI@Z:PROC				; operator delete
EXTRN	_atexit:PROC
EXTRN	__Init_thread_header:PROC
EXTRN	__Init_thread_footer:PROC
EXTRN	__invalid_parameter_noinfo_noreturn:PROC
EXTRN	__atoi64:PROC
EXTRN	_strstr:PROC
EXTRN	_strncmp:PROC
EXTRN	_fclose:PROC
EXTRN	_fopen:PROC
EXTRN	___stdio_common_vfprintf:PROC
EXTRN	___stdio_common_vsprintf:PROC
EXTRN	___std_exception_copy:PROC
EXTRN	___std_exception_destroy:PROC
EXTRN	??_Eexception@std@@UAEPAXI@Z:PROC		; std::exception::`vector deleting destructor'
EXTRN	??_Ebad_alloc@std@@UAEPAXI@Z:PROC		; std::bad_alloc::`vector deleting destructor'
EXTRN	??_Ebad_array_new_length@std@@UAEPAXI@Z:PROC	; std::bad_array_new_length::`vector deleting destructor'
EXTRN	?_Xlength_error@std@@YAXPBD@Z:PROC		; std::_Xlength_error
EXTRN	?_Xout_of_range@std@@YAXPBD@Z:PROC		; std::_Xout_of_range
EXTRN	?Tracef@@YAXPBDZZ:PROC				; Tracef
EXTRN	?TraceError@@YAXPBDZZ:PROC			; TraceError
EXTRN	?stl_lowers@@YAXAAV?$basic_string@DU?$char_traits@D@std@@V?$allocator@D@2@@std@@@Z:PROC ; stl_lowers
EXTRN	__imp__Py_BuildValue:PROC
EXTRN	__imp__PyModule_AddIntConstant:PROC
EXTRN	__imp__Py_InitModule4:PROC
EXTRN	?PyTuple_GetString@@YA_NPAU_object@@HPAPAD@Z:PROC ; PyTuple_GetString
EXTRN	?PyTuple_GetInteger@@YA_NPAU_object@@HPAH@Z:PROC ; PyTuple_GetInteger
EXTRN	?PyTuple_GetFloat@@YA_NPAU_object@@HPAM@Z:PROC	; PyTuple_GetFloat
EXTRN	?Py_BuildException@@YAPAU_object@@PBDZZ:PROC	; Py_BuildException
EXTRN	?Py_BadArgument@@YAPAU_object@@XZ:PROC		; Py_BadArgument
EXTRN	?Py_BuildNone@@YAPAU_object@@XZ:PROC		; Py_BuildNone
EXTRN	??0CMemoryTextFileLoader@@QAE@XZ:PROC		; CMemoryTextFileLoader::CMemoryTextFileLoader
EXTRN	??1CMemoryTextFileLoader@@UAE@XZ:PROC		; CMemoryTextFileLoader::~CMemoryTextFileLoader
EXTRN	?Bind@CMemoryTextFileLoader@@QAEXHPBX@Z:PROC	; CMemoryTextFileLoader::Bind
EXTRN	?GetLineCount@CMemoryTextFileLoader@@QAEKXZ:PROC ; CMemoryTextFileLoader::GetLineCount
EXTRN	?SplitLineByTab@CMemoryTextFileLoader@@QAE_NKPAV?$vector@V?$basic_string@DU?$char_traits@D@std@@V?$allocator@D@2@@std@@V?$allocator@V?$basic_string@DU?$char_traits@D@std@@V?$allocator@D@2@@std@@@2@@std@@@Z:PROC ; CMemoryTextFileLoader::SplitLineByTab
EXTRN	?GetLineString@CMemoryTextFileLoader@@QAEABV?$basic_string@DU?$char_traits@D@std@@V?$allocator@D@2@@std@@K@Z:PROC ; CMemoryTextFileLoader::GetLineString
EXTRN	??0CMappedFile@@QAE@XZ:PROC			; CMappedFile::CMappedFile
EXTRN	??1CMappedFile@@UAE@XZ:PROC			; CMappedFile::~CMappedFile
EXTRN	?Size@CMappedFile@@QAEKXZ:PROC			; CMappedFile::Size
EXTRN	?GetDefaultCodePage@@YAKXZ:PROC			; GetDefaultCodePage
EXTRN	??0CTextFileLoader@@QAE@XZ:PROC			; CTextFileLoader::CTextFileLoader
EXTRN	??1CTextFileLoader@@UAE@XZ:PROC			; CTextFileLoader::~CTextFileLoader
EXTRN	?Load@CTextFileLoader@@QAE_NPBD@Z:PROC		; CTextFileLoader::Load
EXTRN	?SetTop@CTextFileLoader@@QAEXXZ:PROC		; CTextFileLoader::SetTop
EXTRN	?GetTokenVector@CTextFileLoader@@QAEHABV?$basic_string@DU?$char_traits@D@std@@V?$allocator@D@2@@std@@PAPAV?$vector@V?$basic_string@DU?$char_traits@D@std@@V?$allocator@D@2@@std@@V?$allocator@V?$basic_string@DU?$char_traits@D@std@@V?$allocator@D@2@@std@@@2@@3@@Z:PROC ; CTextFileLoader::GetTokenVector
EXTRN	?GetTokenByte@CTextFileLoader@@QAEHABV?$basic_string@DU?$char_traits@D@std@@V?$allocator@D@2@@std@@PAE@Z:PROC ; CTextFileLoader::GetTokenByte
EXTRN	?GetTokenWord@CTextFileLoader@@QAEHABV?$basic_string@DU?$char_traits@D@std@@V?$allocator@D@2@@std@@PAG@Z:PROC ; CTextFileLoader::GetTokenWord
EXTRN	?GetTokenDoubleWord@CTextFileLoader@@QAEHABV?$basic_string@DU?$char_traits@D@std@@V?$allocator@D@2@@std@@PAK@Z:PROC ; CTextFileLoader::GetTokenDoubleWord
EXTRN	?GetTokenString@CTextFileLoader@@QAEHABV?$basic_string@DU?$char_traits@D@std@@V?$allocator@D@2@@std@@PAV23@@Z:PROC ; CTextFileLoader::GetTokenString
EXTRN	?GetResourcePointer@CResourceManager@@QAEPAVCResource@@PBD@Z:PROC ; CResourceManager::GetResourcePointer
EXTRN	?SetImagePointer@CGraphicImageInstance@@QAEXPAVCGraphicImage@@@Z:PROC ; CGraphicImageInstance::SetImagePointer
EXTRN	?New@CGraphicImageInstance@@SAPAV1@XZ:PROC	; CGraphicImageInstance::New
EXTRN	?Delete@CGraphicImageInstance@@SAXPAV1@@Z:PROC	; CGraphicImageInstance::Delete
EXTRN	?LocaleService_GetCodePage@@YAIXZ:PROC		; LocaleService_GetCodePage
EXTRN	?LocaleService_IsCHEONMA@@YA_NXZ:PROC		; LocaleService_IsCHEONMA
EXTRN	??0CPoly@@QAE@XZ:PROC				; CPoly::CPoly
EXTRN	??1CPoly@@UAE@XZ:PROC				; CPoly::~CPoly
EXTRN	?Analyze@CPoly@@QAEHPBD@Z:PROC			; CPoly::Analyze
EXTRN	?Eval@CPoly@@QAEMXZ:PROC			; CPoly::Eval
EXTRN	?SetRandom@CPoly@@QAEXH@Z:PROC			; CPoly::SetRandom
EXTRN	?SetStr@CPoly@@QAEXABV?$basic_string@DU?$char_traits@D@std@@V?$allocator@D@2@@std@@@Z:PROC ; CPoly::SetStr
EXTRN	?SetVar@CPoly@@QAEHABV?$basic_string@DU?$char_traits@D@std@@V?$allocator@D@2@@std@@N@Z:PROC ; CPoly::SetVar
EXTRN	?GetVarCount@CPoly@@QAEHXZ:PROC			; CPoly::GetVarCount
EXTRN	?GetVarName@CPoly@@QAEPBDI@Z:PROC		; CPoly::GetVarName
EXTRN	??_E?$CSingleton@VCPythonSkill@@@@UAEPAXI@Z:PROC ; CSingleton<CPythonSkill>::`vector deleting destructor'
EXTRN	??_ECPythonSkill@@UAEPAXI@Z:PROC		; CPythonSkill::`vector deleting destructor'
EXTRN	?Get@CEterPackManager@@QAE_NAAVCMappedFile@@PBDPAPBX@Z:PROC ; CEterPackManager::Get
EXTRN	?GetSkillGrade@CPythonPlayer@@QAEHK@Z:PROC	; CPythonPlayer::GetSkillGrade
EXTRN	?GetSkillLevel@CPythonPlayer@@QAEHK@Z:PROC	; CPythonPlayer::GetSkillLevel
EXTRN	?FindSkillSlotIndexBySkillIndex@CPythonPlayer@@QAE_NKPAK@Z:PROC ; CPythonPlayer::FindSkillSlotIndexBySkillIndex
EXTRN	@__security_check_cookie@4:PROC
EXTRN	__CxxThrowException@8:PROC
EXTRN	___CxxFrameHandler3:PROC
EXTRN	__ftoui3:PROC
EXTRN	_ceil:PROC
EXTRN	_floor:PROC
EXTRN	_memchr:PROC
EXTRN	_memcpy:PROC
EXTRN	_memmove:PROC
EXTRN	_memset:PROC
EXTRN	__Init_thread_epoch:DWORD
EXTRN	?g_strImagePath@@3V?$basic_string@DU?$char_traits@D@std@@V?$allocator@D@2@@std@@A:BYTE ; g_strImagePath
EXTRN	?c_iSkillIndex_Riding@@3KB:DWORD		; c_iSkillIndex_Riding
EXTRN	___security_cookie:DWORD
EXTRN	__fltused:DWORD
EXTRN	__tls_array:DWORD
EXTRN	__tls_index:DWORD
;	COMDAT ?_OptionsStorage@?1??__local_stdio_printf_options@@9@4_KA
_BSS	SEGMENT
?_OptionsStorage@?1??__local_stdio_printf_options@@9@4_KA DQ 01H DUP (?) ; `__local_stdio_printf_options'::`2'::_OptionsStorage
_BSS	ENDS
;	COMDAT ?ms_singleton@?$CSingleton@VCResourceManager@@@@0PAVCResourceManager@@A
_BSS	SEGMENT
?ms_singleton@?$CSingleton@VCResourceManager@@@@0PAVCResourceManager@@A DD 01H DUP (?) ; CSingleton<CResourceManager>::ms_singleton
_BSS	ENDS
;	COMDAT ?ms_singleton@?$CSingleton@VCPythonSkill@@@@0PAVCPythonSkill@@A
_BSS	SEGMENT
?ms_singleton@?$CSingleton@VCPythonSkill@@@@0PAVCPythonSkill@@A DD 01H DUP (?) ; CSingleton<CPythonSkill>::ms_singleton
_BSS	ENDS
_BSS	SEGMENT
?ms_StatusNameMap@SSkillData@CPythonSkill@@2V?$map@V?$basic_string@DU?$char_traits@D@std@@V?$allocator@D@2@@std@@KU?$less@V?$basic_string@DU?$char_traits@D@std@@V?$allocator@D@2@@std@@@2@V?$allocator@U?$pair@$$CBV?$basic_string@DU?$char_traits@D@std@@V?$allocator@D@2@@std@@K@std@@@2@@std@@A DQ 01H DUP (?) ; CPythonSkill::SSkillData::ms_StatusNameMap
?ms_NewMinStatusNameMap@SSkillData@CPythonSkill@@2V?$map@V?$basic_string@DU?$char_traits@D@std@@V?$allocator@D@2@@std@@KU?$less@V?$basic_string@DU?$char_traits@D@std@@V?$allocator@D@2@@std@@@2@V?$allocator@U?$pair@$$CBV?$basic_string@DU?$char_traits@D@std@@V?$allocator@D@2@@std@@K@std@@@2@@std@@A DQ 01H DUP (?) ; CPythonSkill::SSkillData::ms_NewMinStatusNameMap
?ms_NewMaxStatusNameMap@SSkillData@CPythonSkill@@2V?$map@V?$basic_string@DU?$char_traits@D@std@@V?$allocator@D@2@@std@@KU?$less@V?$basic_string@DU?$char_traits@D@std@@V?$allocator@D@2@@std@@@2@V?$allocator@U?$pair@$$CBV?$basic_string@DU?$char_traits@D@std@@V?$allocator@D@2@@std@@K@std@@@2@@std@@A DQ 01H DUP (?) ; CPythonSkill::SSkillData::ms_NewMaxStatusNameMap
_BSS	ENDS
;	COMDAT ?ms_singleton@?$CSingleton@VCEterPackManager@@@@0PAVCEterPackManager@@A
_BSS	SEGMENT
?ms_singleton@?$CSingleton@VCEterPackManager@@@@0PAVCEterPackManager@@A DD 01H DUP (?) ; CSingleton<CEterPackManager>::ms_singleton
_BSS	ENDS
;	COMDAT ?ms_singleton@?$CSingleton@VCPythonPlayer@@@@0PAVCPythonPlayer@@A
_BSS	SEGMENT
?ms_singleton@?$CSingleton@VCPythonPlayer@@@@0PAVCPythonPlayer@@A DD 01H DUP (?) ; CSingleton<CPythonPlayer>::ms_singleton
_BSS	ENDS
;	COMDAT ?$TSS0@?L@??GetAffectDescription@SSkillData@CPythonSkill@@QAEPBDKM@Z@4HA
_BSS	SEGMENT
?$TSS0@?L@??GetAffectDescription@SSkillData@CPythonSkill@@QAEPBDKM@Z@4HA DD 01H DUP (?) ; `CPythonSkill::SSkillData::GetAffectDescription'::`11'::$TSS0
_BSS	ENDS
;	COMDAT ?szDescription@?BD@??GetAffectDescription@SSkillData@CPythonSkill@@QAEPBDKM@Z@4PADA
_BSS	SEGMENT
?szDescription@?BD@??GetAffectDescription@SSkillData@CPythonSkill@@QAEPBDKM@Z@4PADA DB 041H DUP (?) ; `CPythonSkill::SSkillData::GetAffectDescription'::`19'::szDescription
_BSS	ENDS
CRT$XCU	SEGMENT
??ms_StatusNameMap$initializer$@SSkillData@CPythonSkill@@2P6AXXZA@@3P6AXXZA DD FLAT:??__E?ms_StatusNameMap@SSkillData@CPythonSkill@@2V?$map@V?$basic_string@DU?$char_traits@D@std@@V?$allocator@D@2@@std@@KU?$less@V?$basic_string@DU?$char_traits@D@std@@V?$allocator@D@2@@std@@@2@V?$allocator@U?$pair@$$CBV?$basic_string@DU?$char_traits@D@std@@V?$allocator@D@2@@std@@K@std@@@2@@std@@A@@YAXXZ ; ??ms_StatusNameMap$initializer$@SSkillData@CPythonSkill@@2P6AXXZA@@3P6AXXZA
CRT$XCU	ENDS
;	COMDAT __xmm@80000000800000008000000080000000
CONST	SEGMENT
__xmm@80000000800000008000000080000000 DB 00H, 00H, 00H, 080H, 00H, 00H, 00H
	DB	080H, 00H, 00H, 00H, 080H, 00H, 00H, 00H, 080H
CONST	ENDS
;	COMDAT __real@42c80000
CONST	SEGMENT
__real@42c80000 DD 042c80000r			; 100
CONST	ENDS
;	COMDAT __real@00000000
CONST	SEGMENT
__real@00000000 DD 000000000r			; 0
CONST	ENDS
;	COMDAT ??_R4?$CSingleton@VCPythonSkill@@@@6B@
rdata$r	SEGMENT
??_R4?$CSingleton@VCPythonSkill@@@@6B@ DD 00H		; CSingleton<CPythonSkill>::`RTTI Complete Object Locator'
	DD	00H
	DD	00H
	DD	FLAT:??_R0?AV?$CSingleton@VCPythonSkill@@@@@8
	DD	FLAT:??_R3?$CSingleton@VCPythonSkill@@@@8
rdata$r	ENDS
;	COMDAT ??_R2?$CSingleton@VCPythonSkill@@@@8
rdata$r	SEGMENT
??_R2?$CSingleton@VCPythonSkill@@@@8 DD FLAT:??_R1A@?0A@EA@?$CSingleton@VCPythonSkill@@@@8 ; CSingleton<CPythonSkill>::`RTTI Base Class Array'
rdata$r	ENDS
;	COMDAT ??_R3?$CSingleton@VCPythonSkill@@@@8
rdata$r	SEGMENT
??_R3?$CSingleton@VCPythonSkill@@@@8 DD 00H		; CSingleton<CPythonSkill>::`RTTI Class Hierarchy Descriptor'
	DD	00H
	DD	01H
	DD	FLAT:??_R2?$CSingleton@VCPythonSkill@@@@8
rdata$r	ENDS
;	COMDAT ??_R0?AV?$CSingleton@VCPythonSkill@@@@@8
data$rs	SEGMENT
??_R0?AV?$CSingleton@VCPythonSkill@@@@@8 DD FLAT:??_7type_info@@6B@ ; CSingleton<CPythonSkill> `RTTI Type Descriptor'
	DD	00H
	DB	'.?AV?$CSingleton@VCPythonSkill@@@@', 00H
data$rs	ENDS
;	COMDAT ??_R1A@?0A@EA@?$CSingleton@VCPythonSkill@@@@8
rdata$r	SEGMENT
??_R1A@?0A@EA@?$CSingleton@VCPythonSkill@@@@8 DD FLAT:??_R0?AV?$CSingleton@VCPythonSkill@@@@@8 ; CSingleton<CPythonSkill>::`RTTI Base Class Descriptor at (0,-1,0,64)'
	DD	00H
	DD	00H
	DD	0ffffffffH
	DD	00H
	DD	040H
	DD	FLAT:??_R3?$CSingleton@VCPythonSkill@@@@8
rdata$r	ENDS
;	COMDAT ??_R1A@?0A@EA@CPythonSkill@@8
rdata$r	SEGMENT
??_R1A@?0A@EA@CPythonSkill@@8 DD FLAT:??_R0?AVCPythonSkill@@@8 ; CPythonSkill::`RTTI Base Class Descriptor at (0,-1,0,64)'
	DD	01H
	DD	00H
	DD	0ffffffffH
	DD	00H
	DD	040H
	DD	FLAT:??_R3CPythonSkill@@8
rdata$r	ENDS
;	COMDAT ??_R2CPythonSkill@@8
rdata$r	SEGMENT
??_R2CPythonSkill@@8 DD FLAT:??_R1A@?0A@EA@CPythonSkill@@8 ; CPythonSkill::`RTTI Base Class Array'
	DD	FLAT:??_R1A@?0A@EA@?$CSingleton@VCPythonSkill@@@@8
rdata$r	ENDS
;	COMDAT ??_R3CPythonSkill@@8
rdata$r	SEGMENT
??_R3CPythonSkill@@8 DD 00H				; CPythonSkill::`RTTI Class Hierarchy Descriptor'
	DD	00H
	DD	02H
	DD	FLAT:??_R2CPythonSkill@@8
rdata$r	ENDS
;	COMDAT ??_R0?AVCPythonSkill@@@8
data$rs	SEGMENT
??_R0?AVCPythonSkill@@@8 DD FLAT:??_7type_info@@6B@	; CPythonSkill `RTTI Type Descriptor'
	DD	00H
	DB	'.?AVCPythonSkill@@', 00H
data$rs	ENDS
;	COMDAT ??_R4CPythonSkill@@6B@
rdata$r	SEGMENT
??_R4CPythonSkill@@6B@ DD 00H				; CPythonSkill::`RTTI Complete Object Locator'
	DD	00H
	DD	00H
	DD	FLAT:??_R0?AVCPythonSkill@@@8
	DD	FLAT:??_R3CPythonSkill@@8
rdata$r	ENDS
;	COMDAT ??_C@_0BJ@DHFDPMIM@invalid?5vector?5subscript@
CONST	SEGMENT
??_C@_0BJ@DHFDPMIM@invalid?5vector?5subscript@ DB 'invalid vector subscri'
	DB	'pt', 00H					; `string'
CONST	ENDS
;	COMDAT ??_C@_0BD@FJPAJOM@SKILL_EFFECT_COUNT@
CONST	SEGMENT
??_C@_0BD@FJPAJOM@SKILL_EFFECT_COUNT@ DB 'SKILL_EFFECT_COUNT', 00H ; `string'
CONST	ENDS
;	COMDAT ??_C@_0P@KEADCIEM@SKILL_GRADEGAP@
CONST	SEGMENT
??_C@_0P@KEADCIEM@SKILL_GRADEGAP@ DB 'SKILL_GRADEGAP', 00H ; `string'
CONST	ENDS
;	COMDAT ??_C@_0BH@GLOHPBFD@SKILL_GRADE_STEP_COUNT@
CONST	SEGMENT
??_C@_0BH@GLOHPBFD@SKILL_GRADE_STEP_COUNT@ DB 'SKILL_GRADE_STEP_COUNT', 00H ; `string'
CONST	ENDS
;	COMDAT ??_C@_0BC@BOJNDPOL@SKILL_GRADE_COUNT@
CONST	SEGMENT
??_C@_0BC@BOJNDPOL@SKILL_GRADE_COUNT@ DB 'SKILL_GRADE_COUNT', 00H ; `string'
CONST	ENDS
;	COMDAT ??_C@_0BD@EPLKCGIN@SKILL_TYPE_MAX_NUM@
CONST	SEGMENT
??_C@_0BD@EPLKCGIN@SKILL_TYPE_MAX_NUM@ DB 'SKILL_TYPE_MAX_NUM', 00H ; `string'
CONST	ENDS
;	COMDAT ??_C@_0BB@BFKJCPHH@SKILL_TYPE_HORSE@
CONST	SEGMENT
??_C@_0BB@BFKJCPHH@SKILL_TYPE_HORSE@ DB 'SKILL_TYPE_HORSE', 00H ; `string'
CONST	ENDS
;	COMDAT ??_C@_0BB@EHNGBHBD@SKILL_TYPE_GUILD@
CONST	SEGMENT
??_C@_0BB@EHNGBHBD@SKILL_TYPE_GUILD@ DB 'SKILL_TYPE_GUILD', 00H ; `string'
CONST	ENDS
;	COMDAT ??_C@_0BD@PNOKHAAN@SKILL_TYPE_SUPPORT@
CONST	SEGMENT
??_C@_0BD@PNOKHAAN@SKILL_TYPE_SUPPORT@ DB 'SKILL_TYPE_SUPPORT', 00H ; `string'
CONST	ENDS
;	COMDAT ??_C@_0BC@PKECMCK@SKILL_TYPE_ACTIVE@
CONST	SEGMENT
??_C@_0BC@PKECMCK@SKILL_TYPE_ACTIVE@ DB 'SKILL_TYPE_ACTIVE', 00H ; `string'
CONST	ENDS
;	COMDAT ??_C@_0BA@PDFAJBCB@SKILL_TYPE_NONE@
CONST	SEGMENT
??_C@_0BA@PDFAJBCB@SKILL_TYPE_NONE@ DB 'SKILL_TYPE_NONE', 00H ; `string'
CONST	ENDS
;	COMDAT ??_C@_05ODMCMJAJ@skill@
CONST	SEGMENT
??_C@_05ODMCMJAJ@skill@ DB 'skill', 00H			; `string'
CONST	ENDS
;	COMDAT ??_C@_04OIKJMBFP@TEST@
CONST	SEGMENT
??_C@_04OIKJMBFP@TEST@ DB 'TEST', 00H			; `string'
CONST	ENDS
;	COMDAT ??_C@_0M@DDOIJMMH@GetDuration@
CONST	SEGMENT
??_C@_0M@DDOIJMMH@GetDuration@ DB 'GetDuration', 00H	; `string'
CONST	ENDS
;	COMDAT ??_C@_0BB@BKIHFCCH@GetNewAffectData@
CONST	SEGMENT
??_C@_0BB@BKIHFCCH@GetNewAffectData@ DB 'GetNewAffectData', 00H ; `string'
CONST	ENDS
;	COMDAT ??_C@_0BG@IBOHFBML@GetNewAffectDataCount@
CONST	SEGMENT
??_C@_0BG@IBOHFBML@GetNewAffectDataCount@ DB 'GetNewAffectDataCount', 00H ; `string'
CONST	ENDS
;	COMDAT ??_C@_0N@FGDKEBNC@GetGradeData@
CONST	SEGMENT
??_C@_0N@FGDKEBNC@GetGradeData@ DB 'GetGradeData', 00H	; `string'
CONST	ENDS
;	COMDAT ??_C@_0BD@BNBIIKMM@DeleteIconInstance@
CONST	SEGMENT
??_C@_0BD@BNBIIKMM@DeleteIconInstance@ DB 'DeleteIconInstance', 00H ; `string'
CONST	ENDS
;	COMDAT ??_C@_0BD@OKNMGMMK@GetIconInstanceNew@
CONST	SEGMENT
??_C@_0BD@OKNMGMMK@GetIconInstanceNew@ DB 'GetIconInstanceNew', 00H ; `string'
CONST	ENDS
;	COMDAT ??_C@_0BA@PMLMLIHH@GetIconInstance@
CONST	SEGMENT
??_C@_0BA@PMLMLIHH@GetIconInstance@ DB 'GetIconInstance', 00H ; `string'
CONST	ENDS
;	COMDAT ??_C@_0BA@COPLEHNJ@GetIconImageNew@
CONST	SEGMENT
??_C@_0BA@COPLEHNJ@GetIconImageNew@ DB 'GetIconImageNew', 00H ; `string'
CONST	ENDS
;	COMDAT ??_C@_0N@IEABDKDK@GetIconImage@
CONST	SEGMENT
??_C@_0N@IEABDKDK@GetIconImage@ DB 'GetIconImage', 00H	; `string'
CONST	ENDS
;	COMDAT ??_C@_0M@EBHJIJIK@GetIconName@
CONST	SEGMENT
??_C@_0M@EBHJIJIK@GetIconName@ DB 'GetIconName', 00H	; `string'
CONST	ENDS
;	COMDAT ??_C@_0M@PEGEECMA@CanUseSkill@
CONST	SEGMENT
??_C@_0M@PEGEECMA@CanUseSkill@ DB 'CanUseSkill', 00H	; `string'
CONST	ENDS
;	COMDAT ??_C@_0BA@GOPNFICC@IsStandingSkill@
CONST	SEGMENT
??_C@_0BA@GOPNFICC@IsStandingSkill@ DB 'IsStandingSkill', 00H ; `string'
CONST	ENDS
;	COMDAT ??_C@_0N@OINKFIKA@IsUseHPSkill@
CONST	SEGMENT
??_C@_0N@OINKFIKA@IsUseHPSkill@ DB 'IsUseHPSkill', 00H	; `string'
CONST	ENDS
;	COMDAT ??_C@_0O@MFGECKPP@IsToggleSkill@
CONST	SEGMENT
??_C@_0O@MFGECKPP@IsToggleSkill@ DB 'IsToggleSkill', 00H ; `string'
CONST	ENDS
;	COMDAT ??_C@_0BG@FNHMFCFA@GetNeedCharacterLevel@
CONST	SEGMENT
??_C@_0BG@FNHMFCFA@GetNeedCharacterLevel@ DB 'GetNeedCharacterLevel', 00H ; `string'
CONST	ENDS
;	COMDAT ??_C@_0BJ@IKLDBFHG@CheckRequirementSueccess@
CONST	SEGMENT
??_C@_0BJ@IKLDBFHG@CheckRequirementSueccess@ DB 'CheckRequirementSueccess'
	DB	00H						; `string'
CONST	ENDS
;	COMDAT ??_C@_0P@FFJOKPAC@IsLevelUpSkill@
CONST	SEGMENT
??_C@_0P@FFJOKPAC@IsLevelUpSkill@ DB 'IsLevelUpSkill', 00H ; `string'
CONST	ENDS
;	COMDAT ??_C@_0BA@PPEEBLJG@CanLevelUpSkill@
CONST	SEGMENT
??_C@_0BA@PPEEBLJG@CanLevelUpSkill@ DB 'CanLevelUpSkill', 00H ; `string'
CONST	ENDS
;	COMDAT ??_C@_0BI@ENABGEG@GetSkillRequireStatData@
CONST	SEGMENT
??_C@_0BI@ENABGEG@GetSkillRequireStatData@ DB 'GetSkillRequireStatData', 00H ; `string'
CONST	ENDS
;	COMDAT ??_C@_0BJ@MFDNCGMA@GetSkillRequireStatCount@
CONST	SEGMENT
??_C@_0BJ@MFDNCGMA@GetSkillRequireStatCount@ DB 'GetSkillRequireStatCount'
	DB	00H						; `string'
CONST	ENDS
;	COMDAT ??_C@_0BI@KEHKEMFK@GetSkillRequirementData@
CONST	SEGMENT
??_C@_0BI@KEHKEMFK@GetSkillRequirementData@ DB 'GetSkillRequirementData', 00H ; `string'
CONST	ENDS
;	COMDAT ??_C@_0BD@DDDOLMOO@IsSkillRequirement@
CONST	SEGMENT
??_C@_0BD@DDDOLMOO@IsSkillRequirement@ DB 'IsSkillRequirement', 00H ; `string'
CONST	ENDS
;	COMDAT ??_C@_0BD@EFBEHGJD@GetSkillLevelLimit@
CONST	SEGMENT
??_C@_0BD@EFBEHGJD@GetSkillLevelLimit@ DB 'GetSkillLevelLimit', 00H ; `string'
CONST	ENDS
;	COMDAT ??_C@_0BF@OOHFIPJA@GetSkillLevelUpPoint@
CONST	SEGMENT
??_C@_0BF@OOHFIPJA@GetSkillLevelUpPoint@ DB 'GetSkillLevelUpPoint', 00H ; `string'
CONST	ENDS
;	COMDAT ??_C@_0BB@BOBBPPLD@GetSkillMaxLevel@
CONST	SEGMENT
??_C@_0BB@BOBBPPLD@GetSkillMaxLevel@ DB 'GetSkillMaxLevel', 00H ; `string'
CONST	ENDS
;	COMDAT ??_C@_0BH@KCKIGPBP@GetSkillContinuationSP@
CONST	SEGMENT
??_C@_0BH@KCKIGPBP@GetSkillContinuationSP@ DB 'GetSkillContinuationSP', 00H ; `string'
CONST	ENDS
;	COMDAT ??_C@_0P@FOMOMLEO@GetSkillNeedSP@
CONST	SEGMENT
??_C@_0P@FOMOMLEO@GetSkillNeedSP@ DB 'GetSkillNeedSP', 00H ; `string'
CONST	ENDS
;	COMDAT ??_C@_0BB@CNGGKNGL@GetSkillCoolTime@
CONST	SEGMENT
??_C@_0BB@CNGGKNGL@GetSkillCoolTime@ DB 'GetSkillCoolTime', 00H ; `string'
CONST	ENDS
;	COMDAT ??_C@_0BK@LKIJJIBH@GetSkillAffectDescription@
CONST	SEGMENT
??_C@_0BK@LKIJJIBH@GetSkillAffectDescription@ DB 'GetSkillAffectDescripti'
	DB	'on', 00H					; `string'
CONST	ENDS
;	COMDAT ??_C@_0BP@JNKPHGMM@GetSkillAffectDescriptionCount@
CONST	SEGMENT
??_C@_0BP@JNKPHGMM@GetSkillAffectDescriptionCount@ DB 'GetSkillAffectDesc'
	DB	'riptionCount', 00H				; `string'
CONST	ENDS
;	COMDAT ??_C@_0BN@HCEIODN@GetSkillConditionDescription@
CONST	SEGMENT
??_C@_0BN@HCEIODN@GetSkillConditionDescription@ DB 'GetSkillConditionDesc'
	DB	'ription', 00H				; `string'
CONST	ENDS
;	COMDAT ??_C@_0CC@ODGHFHOM@GetSkillConditionDescriptionCou@
CONST	SEGMENT
??_C@_0CC@ODGHFHOM@GetSkillConditionDescriptionCou@ DB 'GetSkillCondition'
	DB	'DescriptionCount', 00H			; `string'
CONST	ENDS
;	COMDAT ??_C@_0N@CJDBBFFK@GetSkillType@
CONST	SEGMENT
??_C@_0N@CJDBBFFK@GetSkillType@ DB 'GetSkillType', 00H	; `string'
CONST	ENDS
;	COMDAT ??_C@_0BE@KMOMILIC@GetSkillDescription@
CONST	SEGMENT
??_C@_0BE@KMOMILIC@GetSkillDescription@ DB 'GetSkillDescription', 00H ; `string'
CONST	ENDS
;	COMDAT ??_C@_0N@ICDCNFCK@GetSkillName@
CONST	SEGMENT
??_C@_0N@ICDCNFCK@GetSkillName@ DB 'GetSkillName', 00H	; `string'
CONST	ENDS
;	COMDAT ??_C@_0P@CCIBNFJH@ClearSkillData@
CONST	SEGMENT
??_C@_0P@CCIBNFJH@ClearSkillData@ DB 'ClearSkillData', 00H ; `string'
CONST	ENDS
;	COMDAT ??_C@_0O@EOBHKOMF@LoadSkillData@
CONST	SEGMENT
??_C@_0O@EOBHKOMF@LoadSkillData@ DB 'LoadSkillData', 00H ; `string'
CONST	ENDS
;	COMDAT ??_C@_0O@HFDAJMID@RegisterSkill@
CONST	SEGMENT
??_C@_0O@HFDAJMID@RegisterSkill@ DB 'RegisterSkill', 00H ; `string'
CONST	ENDS
;	COMDAT ??_C@_0M@LPKBIHHH@SetPathName@
CONST	SEGMENT
??_C@_0M@LPKBIHHH@SetPathName@ DB 'SetPathName', 00H	; `string'
CONST	ENDS
;	COMDAT ?s_methods@?1??initskill@@YAXXZ@4PAUPyMethodDef@@A
_DATA	SEGMENT
?s_methods@?1??initskill@@YAXXZ@4PAUPyMethodDef@@A DD FLAT:??_C@_0M@LPKBIHHH@SetPathName@ ; `initskill'::`2'::s_methods
	DD	FLAT:?skillSetPathName@@YAPAU_object@@PAU1@0@Z
	DD	01H
	ORG $+4
	DD	FLAT:??_C@_0O@HFDAJMID@RegisterSkill@
	DD	FLAT:?skillRegisterSkill@@YAPAU_object@@PAU1@0@Z
	DD	01H
	ORG $+4
	DD	FLAT:??_C@_0O@EOBHKOMF@LoadSkillData@
	DD	FLAT:?skillLoadSkillData@@YAPAU_object@@PAU1@0@Z
	DD	01H
	ORG $+4
	DD	FLAT:??_C@_0P@CCIBNFJH@ClearSkillData@
	DD	FLAT:?skillClearSkillData@@YAPAU_object@@PAU1@0@Z
	DD	01H
	ORG $+4
	DD	FLAT:??_C@_0N@ICDCNFCK@GetSkillName@
	DD	FLAT:?skillGetSkillName@@YAPAU_object@@PAU1@0@Z
	DD	01H
	ORG $+4
	DD	FLAT:??_C@_0BE@KMOMILIC@GetSkillDescription@
	DD	FLAT:?skillGetSkillDescription@@YAPAU_object@@PAU1@0@Z
	DD	01H
	ORG $+4
	DD	FLAT:??_C@_0N@CJDBBFFK@GetSkillType@
	DD	FLAT:?skillGetSkillType@@YAPAU_object@@PAU1@0@Z
	DD	01H
	ORG $+4
	DD	FLAT:??_C@_0CC@ODGHFHOM@GetSkillConditionDescriptionCou@
	DD	FLAT:?skillGetSkillConditionDescriptionCount@@YAPAU_object@@PAU1@0@Z
	DD	01H
	ORG $+4
	DD	FLAT:??_C@_0BN@HCEIODN@GetSkillConditionDescription@
	DD	FLAT:?skillGetSkillConditionDescription@@YAPAU_object@@PAU1@0@Z
	DD	01H
	ORG $+4
	DD	FLAT:??_C@_0BP@JNKPHGMM@GetSkillAffectDescriptionCount@
	DD	FLAT:?skillGetSkillAffectDescriptionCount@@YAPAU_object@@PAU1@0@Z
	DD	01H
	ORG $+4
	DD	FLAT:??_C@_0BK@LKIJJIBH@GetSkillAffectDescription@
	DD	FLAT:?skillGetSkillAffectDescription@@YAPAU_object@@PAU1@0@Z
	DD	01H
	ORG $+4
	DD	FLAT:??_C@_0BB@CNGGKNGL@GetSkillCoolTime@
	DD	FLAT:?skillGetSkillCoolTime@@YAPAU_object@@PAU1@0@Z
	DD	01H
	ORG $+4
	DD	FLAT:??_C@_0P@FOMOMLEO@GetSkillNeedSP@
	DD	FLAT:?skillGetSkillNeedSP@@YAPAU_object@@PAU1@0@Z
	DD	01H
	ORG $+4
	DD	FLAT:??_C@_0BH@KCKIGPBP@GetSkillContinuationSP@
	DD	FLAT:?skillGetSkillContinuationSP@@YAPAU_object@@PAU1@0@Z
	DD	01H
	ORG $+4
	DD	FLAT:??_C@_0BB@BOBBPPLD@GetSkillMaxLevel@
	DD	FLAT:?skillGetSkillMaxLevel@@YAPAU_object@@PAU1@0@Z
	DD	01H
	ORG $+4
	DD	FLAT:??_C@_0BF@OOHFIPJA@GetSkillLevelUpPoint@
	DD	FLAT:?skillGetSkillLevelUpPoint@@YAPAU_object@@PAU1@0@Z
	DD	01H
	ORG $+4
	DD	FLAT:??_C@_0BD@EFBEHGJD@GetSkillLevelLimit@
	DD	FLAT:?skillGetSkillLevelLimit@@YAPAU_object@@PAU1@0@Z
	DD	01H
	ORG $+4
	DD	FLAT:??_C@_0BD@DDDOLMOO@IsSkillRequirement@
	DD	FLAT:?skillIsSkillRequirement@@YAPAU_object@@PAU1@0@Z
	DD	01H
	ORG $+4
	DD	FLAT:??_C@_0BI@KEHKEMFK@GetSkillRequirementData@
	DD	FLAT:?skillGetSkillRequirementData@@YAPAU_object@@PAU1@0@Z
	DD	01H
	ORG $+4
	DD	FLAT:??_C@_0BJ@MFDNCGMA@GetSkillRequireStatCount@
	DD	FLAT:?skillGetSkillRequireStatCount@@YAPAU_object@@PAU1@0@Z
	DD	01H
	ORG $+4
	DD	FLAT:??_C@_0BI@ENABGEG@GetSkillRequireStatData@
	DD	FLAT:?skillGetSkillRequireStatData@@YAPAU_object@@PAU1@0@Z
	DD	01H
	ORG $+4
	DD	FLAT:??_C@_0BA@PPEEBLJG@CanLevelUpSkill@
	DD	FLAT:?skillCanLevelUpSkill@@YAPAU_object@@PAU1@0@Z
	DD	01H
	ORG $+4
	DD	FLAT:??_C@_0P@FFJOKPAC@IsLevelUpSkill@
	DD	FLAT:?skillIsLevelUpSkill@@YAPAU_object@@PAU1@0@Z
	DD	01H
	ORG $+4
	DD	FLAT:??_C@_0BJ@IKLDBFHG@CheckRequirementSueccess@
	DD	FLAT:?skillCheckRequirementSueccess@@YAPAU_object@@PAU1@0@Z
	DD	01H
	ORG $+4
	DD	FLAT:??_C@_0BG@FNHMFCFA@GetNeedCharacterLevel@
	DD	FLAT:?skillGetNeedCharacterLevel@@YAPAU_object@@PAU1@0@Z
	DD	01H
	ORG $+4
	DD	FLAT:??_C@_0O@MFGECKPP@IsToggleSkill@
	DD	FLAT:?skillIsToggleSkill@@YAPAU_object@@PAU1@0@Z
	DD	01H
	ORG $+4
	DD	FLAT:??_C@_0N@OINKFIKA@IsUseHPSkill@
	DD	FLAT:?skillIsUseHPSkill@@YAPAU_object@@PAU1@0@Z
	DD	01H
	ORG $+4
	DD	FLAT:??_C@_0BA@GOPNFICC@IsStandingSkill@
	DD	FLAT:?skillIsStandingSkill@@YAPAU_object@@PAU1@0@Z
	DD	01H
	ORG $+4
	DD	FLAT:??_C@_0M@PEGEECMA@CanUseSkill@
	DD	FLAT:?skillCanUseSkill@@YAPAU_object@@PAU1@0@Z
	DD	01H
	ORG $+4
	DD	FLAT:??_C@_0M@EBHJIJIK@GetIconName@
	DD	FLAT:?skillGetIconName@@YAPAU_object@@PAU1@0@Z
	DD	01H
	ORG $+4
	DD	FLAT:??_C@_0N@IEABDKDK@GetIconImage@
	DD	FLAT:?skillGetIconImage@@YAPAU_object@@PAU1@0@Z
	DD	01H
	ORG $+4
	DD	FLAT:??_C@_0BA@COPLEHNJ@GetIconImageNew@
	DD	FLAT:?skillGetIconImageNew@@YAPAU_object@@PAU1@0@Z
	DD	01H
	ORG $+4
	DD	FLAT:??_C@_0BA@PMLMLIHH@GetIconInstance@
	DD	FLAT:?skillGetIconInstance@@YAPAU_object@@PAU1@0@Z
	DD	01H
	ORG $+4
	DD	FLAT:??_C@_0BD@OKNMGMMK@GetIconInstanceNew@
	DD	FLAT:?skillGetIconInstanceNew@@YAPAU_object@@PAU1@0@Z
	DD	01H
	ORG $+4
	DD	FLAT:??_C@_0BD@BNBIIKMM@DeleteIconInstance@
	DD	FLAT:?skillDeleteIconInstance@@YAPAU_object@@PAU1@0@Z
	DD	01H
	ORG $+4
	DD	FLAT:??_C@_0N@FGDKEBNC@GetGradeData@
	DD	FLAT:?skillGetGradeData@@YAPAU_object@@PAU1@0@Z
	DD	01H
	ORG $+4
	DD	FLAT:??_C@_0BG@IBOHFBML@GetNewAffectDataCount@
	DD	FLAT:?skillGetNewAffectDataCount@@YAPAU_object@@PAU1@0@Z
	DD	01H
	ORG $+4
	DD	FLAT:??_C@_0BB@BKIHFCCH@GetNewAffectData@
	DD	FLAT:?skillGetNewAffectData@@YAPAU_object@@PAU1@0@Z
	DD	01H
	ORG $+4
	DD	FLAT:??_C@_0M@DDOIJMMH@GetDuration@
	DD	FLAT:?skillGetDuration@@YAPAU_object@@PAU1@0@Z
	DD	01H
	ORG $+4
	DD	FLAT:??_C@_04OIKJMBFP@TEST@
	DD	FLAT:?skillTEST@@YAPAU_object@@PAU1@0@Z
	DD	01H
	ORG $+4
	DD	00H
	DD	00H
	DD	00H
	ORG $+4
_DATA	ENDS
;	COMDAT ??_C@_0CP@PIJHMHNL@skill?4GetDuration?5?9?5Failed?5to?5f@
CONST	SEGMENT
??_C@_0CP@PIJHMHNL@skill?4GetDuration?5?9?5Failed?5to?5f@ DB 'skill.GetDu'
	DB	'ration - Failed to find skill by %d', 00H	; `string'
CONST	ENDS
;	COMDAT ??_C@_03NIMMFECC@sff@
CONST	SEGMENT
??_C@_03NIMMFECC@sff@ DB 'sff', 00H			; `string'
CONST	ENDS
;	COMDAT ??_C@_0DB@HOKFKPGM@?5skill?4GetNewAffectData?5?9?5Stran@
CONST	SEGMENT
??_C@_0DB@HOKFKPGM@?5skill?4GetNewAffectData?5?9?5Stran@ DB ' skill.GetNe'
	DB	'wAffectData - Strange AffectIndex %d', 00H	; `string'
CONST	ENDS
;	COMDAT ??_C@_0DE@OAOBJMAB@skill?4GetNewAffectData?5?9?5Failed@
CONST	SEGMENT
??_C@_0DE@OAOBJMAB@skill?4GetNewAffectData?5?9?5Failed@ DB 'skill.GetNewA'
	DB	'ffectData - Failed to find skill by %d', 00H ; `string'
CONST	ENDS
;	COMDAT ??_C@_0DJ@CIKNCBHD@skill?4GetNewAffectDataCount?5?9?5F@
CONST	SEGMENT
??_C@_0DJ@CIKNCBHD@skill?4GetNewAffectDataCount?5?9?5F@ DB 'skill.GetNewA'
	DB	'ffectDataCount - Failed to find skill by %d', 00H ; `string'
CONST	ENDS
;	COMDAT ??_C@_0BJ@JFEABPIC@Strange?5grade?5index?5?$FL?$CFd?$FN@
CONST	SEGMENT
??_C@_0BJ@JFEABPIC@Strange?5grade?5index?5?$FL?$CFd?$FN@ DB 'Strange grad'
	DB	'e index [%d]', 00H				; `string'
CONST	ENDS
;	COMDAT ??_C@_0DA@KDCMPJNE@skill?4GetGradeData?5?9?5Failed?5to?5@
CONST	SEGMENT
??_C@_0DA@KDCMPJNE@skill?4GetGradeData?5?9?5Failed?5to?5@ DB 'skill.GetGr'
	DB	'adeData - Failed to find skill by %d', 00H	; `string'
CONST	ENDS
;	COMDAT ??_C@_0DG@FIBFEPFG@skill?4GetIconInstanceNew?5?9?5Fail@
CONST	SEGMENT
??_C@_0DG@FIBFEPFG@skill?4GetIconInstanceNew?5?9?5Fail@ DB 'skill.GetIcon'
	DB	'InstanceNew - Failed to find skill by %d', 00H ; `string'
CONST	ENDS
;	COMDAT ??_C@_0DD@KEMABJPN@skill?4GetIconInstance?5?9?5Failed?5@
CONST	SEGMENT
??_C@_0DD@KEMABJPN@skill?4GetIconInstance?5?9?5Failed?5@ DB 'skill.GetIco'
	DB	'nInstance - Failed to find skill by %d', 00H ; `string'
CONST	ENDS
;	COMDAT ??_C@_0DC@CENGELDK@skill?4IsLevelUpSkill?5?9?5Failed?5t@
CONST	SEGMENT
??_C@_0DC@CENGELDK@skill?4IsLevelUpSkill?5?9?5Failed?5t@ DB 'skill.IsLeve'
	DB	'lUpSkill - Failed to find skill by %d', 00H	; `string'
CONST	ENDS
;	COMDAT ??_C@_0CP@NNBFAJHG@skill?4CanUseSkill?5?9?5Failed?5to?5f@
CONST	SEGMENT
??_C@_0CP@NNBFAJHG@skill?4CanUseSkill?5?9?5Failed?5to?5f@ DB 'skill.CanUs'
	DB	'eSkill - Failed to find skill by %d', 00H	; `string'
CONST	ENDS
;	COMDAT ??_C@_0DD@MABMBDPO@skill?4IsStandingSkill?5?9?5Failed?5@
CONST	SEGMENT
??_C@_0DD@MABMBDPO@skill?4IsStandingSkill?5?9?5Failed?5@ DB 'skill.IsStan'
	DB	'dingSkill - Failed to find skill by %d', 00H ; `string'
CONST	ENDS
;	COMDAT ??_C@_0DA@MJDGFODH@skill?4IsUseHPSkill?5?9?5Failed?5to?5@
CONST	SEGMENT
??_C@_0DA@MJDGFODH@skill?4IsUseHPSkill?5?9?5Failed?5to?5@ DB 'skill.IsUse'
	DB	'HPSkill - Failed to find skill by %d', 00H	; `string'
CONST	ENDS
;	COMDAT ??_C@_0DB@CHHDEPFC@skill?4IsToggleSkill?5?9?5Failed?5to@
CONST	SEGMENT
??_C@_0DB@CHHDEPFC@skill?4IsToggleSkill?5?9?5Failed?5to@ DB 'skill.IsTogg'
	DB	'leSkill - Failed to find skill by %d', 00H	; `string'
CONST	ENDS
;	COMDAT ??_C@_0DJ@LIKJDHHI@skill?4GetNeedCharacterLevel?5?9?5F@
CONST	SEGMENT
??_C@_0DJ@LIKJDHHI@skill?4GetNeedCharacterLevel?5?9?5F@ DB 'skill.GetNeed'
	DB	'CharacterLevel - Failed to find skill by %d', 00H ; `string'
CONST	ENDS
;	COMDAT ??_C@_0DM@ECFJDING@skill?4CheckRequirementSueccess?5@
CONST	SEGMENT
??_C@_0DM@ECFJDING@skill?4CheckRequirementSueccess?5@ DB 'skill.CheckRequ'
	DB	'irementSueccess - Failed to find skill by %d', 00H ; `string'
CONST	ENDS
;	COMDAT ??_C@_0DD@IKLGIIBP@skill?4CanLevelUpSkill?5?9?5Failed?5@
CONST	SEGMENT
??_C@_0DD@IKLGIIBP@skill?4CanLevelUpSkill?5?9?5Failed?5@ DB 'skill.CanLev'
	DB	'elUpSkill - Failed to find skill by %d', 00H ; `string'
CONST	ENDS
;	COMDAT ??_C@_02PDIHAGKM@ii@
CONST	SEGMENT
??_C@_02PDIHAGKM@ii@ DB 'ii', 00H			; `string'
CONST	ENDS
;	COMDAT ??_C@_0DL@KJNPLMH@skill?4GetSkillRequireStatData?5?9@
CONST	SEGMENT
??_C@_0DL@KJNPLMH@skill?4GetSkillRequireStatData?5?9@ DB 'skill.GetSkillR'
	DB	'equireStatData - Failed to find skill by %d', 00H ; `string'
CONST	ENDS
;	COMDAT ??_C@_0DM@OIJBJLGH@skill?4GetSkillRequireStatCount?5@
CONST	SEGMENT
??_C@_0DM@OIJBJLGH@skill?4GetSkillRequireStatCount?5@ DB 'skill.GetSkillR'
	DB	'equireStatCount - Failed to find skill by %d', 00H ; `string'
CONST	ENDS
;	COMDAT ??_C@_02OCDGCAAK@si@
CONST	SEGMENT
??_C@_02OCDGCAAK@si@ DB 'si', 00H			; `string'
CONST	ENDS
;	COMDAT ??_C@_0DL@ONFGMLIM@skill?4GetSkillRequirementData?5?9@
CONST	SEGMENT
??_C@_0DL@ONFGMLIM@skill?4GetSkillRequirementData?5?9@ DB 'skill.GetSkill'
	DB	'RequirementData - Failed to find skill by %d', 00H ; `string'
CONST	ENDS
;	COMDAT ??_C@_0EL@ICHNDOAM@skill?4IsSkillRequirement?5?9?5Fail@
CONST	SEGMENT
??_C@_0EL@ICHNDOAM@skill?4IsSkillRequirement?5?9?5Fail@ DB 'skill.IsSkill'
	DB	'Requirement - Failed to find skill : [%d/%s] can''t find [%s]'
	DB	0aH, 00H					; `string'
CONST	ENDS
;	COMDAT ??_C@_0DG@KGFIMNPN@skill?4IsSkillRequirement?5?9?5Fail@
CONST	SEGMENT
??_C@_0DG@KGFIMNPN@skill?4IsSkillRequirement?5?9?5Fail@ DB 'skill.IsSkill'
	DB	'Requirement - Failed to find skill by %d', 00H ; `string'
CONST	ENDS
;	COMDAT ??_C@_0DG@NOMBCANI@skill?4GetSkillLevelLimit?5?9?5Fail@
CONST	SEGMENT
??_C@_0DG@NOMBCANI@skill?4GetSkillLevelLimit?5?9?5Fail@ DB 'skill.GetSkil'
	DB	'lLevelLimit - Failed to find skill by %d', 00H ; `string'
CONST	ENDS
;	COMDAT ??_C@_0DI@BIBFKFFF@skill?4GetSkillLevelUpPoint?5?9?5Fa@
CONST	SEGMENT
??_C@_0DI@BIBFKFFF@skill?4GetSkillLevelUpPoint?5?9?5Fa@ DB 'skill.GetSkil'
	DB	'lLevelUpPoint - Failed to find skill by %d', 00H ; `string'
CONST	ENDS
;	COMDAT ??_C@_0DE@GMCGPCPN@skill?4GetSkillMaxLevel?5?9?5Failed@
CONST	SEGMENT
??_C@_0DE@GMCGPCPN@skill?4GetSkillMaxLevel?5?9?5Failed@ DB 'skill.GetSkil'
	DB	'lMaxLevel - Failed to find skill by %d', 00H ; `string'
CONST	ENDS
;	COMDAT ??_C@_0DK@KAOLKAON@skill?4GetSkillContinuationSP?5?9?5@
CONST	SEGMENT
??_C@_0DK@KAOLKAON@skill?4GetSkillContinuationSP?5?9?5@ DB 'skill.GetSkil'
	DB	'lContinuationSP - Failed to find skill by %d', 00H ; `string'
CONST	ENDS
;	COMDAT ??_C@_0DA@JCGHCILN@skill?4GetSkillNeedSP?5Failed?5to?5@
CONST	SEGMENT
??_C@_0DA@JCGHCILN@skill?4GetSkillNeedSP?5Failed?5to?5@ DB 'skill.GetSkil'
	DB	'lNeedSP Failed to find skill by %d', 00H	; `string'
CONST	ENDS
;	COMDAT ??_C@_0DE@OPJBIDNE@skill?4GetSkillCoolTime?5?9?5Failed@
CONST	SEGMENT
??_C@_0DE@OPJBIDNE@skill?4GetSkillCoolTime?5?9?5Failed@ DB 'skill.GetSkil'
	DB	'lCoolTime - Failed to find skill by %d', 00H ; `string'
CONST	ENDS
;	COMDAT ??_C@_0DN@GOILKJOL@skill?4GetSkillAffectDescription@
CONST	SEGMENT
??_C@_0DN@GOILKJOL@skill?4GetSkillAffectDescription@ DB 'skill.GetSkillAf'
	DB	'fectDescription - Failed to find skill by %d', 00H ; `string'
CONST	ENDS
;	COMDAT ??_C@_0EC@GNHMANKN@skill?4GetSkillAffectDescription@
CONST	SEGMENT
??_C@_0EC@GNHMANKN@skill?4GetSkillAffectDescription@ DB 'skill.GetSkillAf'
	DB	'fectDescriptionCount - Failed to find skill by %d', 00H ; `string'
CONST	ENDS
;	COMDAT ??_C@_04OHJIHAFH@None@
CONST	SEGMENT
??_C@_04OHJIHAFH@None@ DB 'None', 00H			; `string'
CONST	ENDS
;	COMDAT ??_C@_0EC@BBPGDICG@skill?4GetSkillConditionDescript@
CONST	SEGMENT
??_C@_0EC@BBPGDICG@skill?4GetSkillConditionDescript@ DB 'skill.GetSkillCo'
	DB	'nditionDescription() - Failed to find skill by %d', 00H ; `string'
CONST	ENDS
;	COMDAT ??_C@_0EF@FCDOKCFE@skill?4GetSkillConditionDescript@
CONST	SEGMENT
??_C@_0EF@FCDOKCFE@skill?4GetSkillConditionDescript@ DB 'skill.GetSkillCo'
	DB	'nditionDescriptionCount - Failed to find skill by %d', 00H ; `string'
CONST	ENDS
;	COMDAT ??_C@_01KBJDNOO@i@
CONST	SEGMENT
??_C@_01KBJDNOO@i@ DB 'i', 00H				; `string'
CONST	ENDS
;	COMDAT ??_C@_0DA@INMEACAF@skill?4GetSkillType?5?9?5Failed?5to?5@
CONST	SEGMENT
??_C@_0DA@INMEACAF@skill?4GetSkillType?5?9?5Failed?5to?5@ DB 'skill.GetSk'
	DB	'illType - Failed to find skill by %d', 00H	; `string'
CONST	ENDS
;	COMDAT ??_C@_0DH@IPEMHLCJ@skill?4GetSkillDescription?5?9?5Fai@
CONST	SEGMENT
??_C@_0DH@IPEMHLCJ@skill?4GetSkillDescription?5?9?5Fai@ DB 'skill.GetSkil'
	DB	'lDescription - Failed to find skill by %d', 00H ; `string'
CONST	ENDS
;	COMDAT ??_C@_01LKDEMHDF@s@
CONST	SEGMENT
??_C@_01LKDEMHDF@s@ DB 's', 00H				; `string'
CONST	ENDS
;	COMDAT ??_C@_0DA@NFCGPBGN@skill?4GetSkillName?5?9?5Failed?5to?5@
CONST	SEGMENT
??_C@_0DA@NFCGPBGN@skill?4GetSkillName?5?9?5Failed?5to?5@ DB 'skill.GetSk'
	DB	'illName - Failed to find skill by %d', 00H	; `string'
CONST	ENDS
;	COMDAT ??_C@_0BK@EHEHLDPB@Failed?5to?5load?5Skill?5Desc@
CONST	SEGMENT
??_C@_0BK@EHEHLDPB@Failed?5to?5load?5Skill?5Desc@ DB 'Failed to load Skil'
	DB	'l Desc', 00H				; `string'
CONST	ENDS
;	COMDAT ??_C@_0DO@CIPJKINI@skill?4RegisterSkill?5?9?5Failed?5to@
CONST	SEGMENT
??_C@_0DO@CIPJKINI@skill?4RegisterSkill?5?9?5Failed?5to@ DB 'skill.Regist'
	DB	'erSkill - Failed to find skill data file : %d, %s', 00H ; `string'
CONST	ENDS
;	COMDAT ??_C@_04GHNNFJCK@?$CF?40f@
CONST	SEGMENT
??_C@_04GHNNFJCK@?$CF?40f@ DB '%.0f', 00H		; `string'
CONST	ENDS
;	COMDAT ?strDescription@?L@??GetAffectDescription@SSkillData@CPythonSkill@@QAEPBDKM@Z@4V?$basic_string@DU?$char_traits@D@std@@V?$allocator@D@2@@std@@A
_DATA	SEGMENT
?strDescription@?L@??GetAffectDescription@SSkillData@CPythonSkill@@QAEPBDKM@Z@4V?$basic_string@DU?$char_traits@D@std@@V?$allocator@D@2@@std@@A DB 00H ; `CPythonSkill::SSkillData::GetAffectDescription'::`11'::strDescription
	DB	19 DUP(00H)
	DD	0fH
_DATA	ENDS
;	COMDAT ??_C@_0CG@HMNMMGCM@skillGetAffect?5?9?5Strange?5Formul@
CONST	SEGMENT
??_C@_0CG@HMNMMGCM@skillGetAffect?5?9?5Strange?5Formul@ DB 'skillGetAffec'
	DB	't - Strange Formula [%s]', 00H		; `string'
CONST	ENDS
;	COMDAT ??_C@_01DICPFPGM@k@
CONST	SEGMENT
??_C@_01DICPFPGM@k@ DB 'k', 00H				; `string'
CONST	ENDS
;	COMDAT ??_C@_0L@DPGJKEBB@SkillPoint@
CONST	SEGMENT
??_C@_0L@DPGJKEBB@SkillPoint@ DB 'SkillPoint', 00H	; `string'
CONST	ENDS
;	COMDAT ??_C@_07OJCANPON@JeungJi@
CONST	SEGMENT
??_C@_07OJCANPON@JeungJi@ DB 'JeungJi', 00H		; `string'
CONST	ENDS
;	COMDAT ??_C@_05PFGFPFEF@HORSE@
CONST	SEGMENT
??_C@_05PFGFPFEF@HORSE@ DB 'HORSE', 00H			; `string'
CONST	ENDS
;	COMDAT ??_C@_0N@KJKNFBLF@common?1horse@
CONST	SEGMENT
??_C@_0N@KJKNFBLF@common?1horse@ DB 'common/horse', 00H	; `string'
CONST	ENDS
;	COMDAT ??_C@_05KHBKMNCB@GUILD@
CONST	SEGMENT
??_C@_05KHBKMNCB@GUILD@ DB 'GUILD', 00H			; `string'
CONST	ENDS
;	COMDAT ??_C@_0N@PLNCGJNB@common?1guild@
CONST	SEGMENT
??_C@_0N@PLNCGJNB@common?1guild@ DB 'common/guild', 00H	; `string'
CONST	ENDS
;	COMDAT ??_C@_07HGJMPPHK@SUPPORT@
CONST	SEGMENT
??_C@_07HGJMPPHK@SUPPORT@ DB 'SUPPORT', 00H		; `string'
CONST	ENDS
;	COMDAT ??_C@_0P@BOFCEHLM@common?1support@
CONST	SEGMENT
??_C@_0P@BOFCEHLM@common?1support@ DB 'common/support', 00H ; `string'
CONST	ENDS
;	COMDAT ??_C@_06IAOKCPMP@SHAMAN@
CONST	SEGMENT
??_C@_06IAOKCPMP@SHAMAN@ DB 'SHAMAN', 00H		; `string'
CONST	ENDS
;	COMDAT ??_C@_04DMOHMGPD@SURA@
CONST	SEGMENT
??_C@_04DMOHMGPD@SURA@ DB 'SURA', 00H			; `string'
CONST	ENDS
;	COMDAT ??_C@_08GKDFODEA@ASSASSIN@
CONST	SEGMENT
??_C@_08GKDFODEA@ASSASSIN@ DB 'ASSASSIN', 00H		; `string'
CONST	ENDS
;	COMDAT ??_C@_07DBIAHDEP@WARRIOR@
CONST	SEGMENT
??_C@_07DBIAHDEP@WARRIOR@ DB 'WARRIOR', 00H		; `string'
CONST	ENDS
;	COMDAT ??_C@_03EJHAMIPL@wep@
CONST	SEGMENT
??_C@_03EJHAMIPL@wep@ DB 'wep', 00H			; `string'
CONST	ENDS
;	COMDAT ??_C@_03MCAGHNNN@mtk@
CONST	SEGMENT
??_C@_03MCAGHNNN@mtk@ DB 'mtk', 00H			; `string'
CONST	ENDS
;	COMDAT ??_C@_03EPNNLCDK@con@
CONST	SEGMENT
??_C@_03EPNNLCDK@con@ DB 'con', 00H			; `string'
CONST	ENDS
;	COMDAT ??_C@_03MDAFLKIC@dex@
CONST	SEGMENT
??_C@_03MDAFLKIC@dex@ DB 'dex', 00H			; `string'
CONST	ENDS
;	COMDAT ??_C@_03OJMAPEGJ@str@
CONST	SEGMENT
??_C@_03OJMAPEGJ@str@ DB 'str', 00H			; `string'
CONST	ENDS
;	COMDAT ??_C@_02HBJMJOPF@iq@
CONST	SEGMENT
??_C@_02HBJMJOPF@iq@ DB 'iq', 00H			; `string'
CONST	ENDS
;	COMDAT ??_C@_02FEKCJMIO@ar@
CONST	SEGMENT
??_C@_02FEKCJMIO@ar@ DB 'ar', 00H			; `string'
CONST	ENDS
;	COMDAT ??_C@_02DIBGMKNJ@lv@
CONST	SEGMENT
??_C@_02DIBGMKNJ@lv@ DB 'lv', 00H			; `string'
CONST	ENDS
;	COMDAT ??_C@_06BFDDJCEN@maxwep@
CONST	SEGMENT
??_C@_06BFDDJCEN@maxwep@ DB 'maxwep', 00H		; `string'
CONST	ENDS
;	COMDAT ??_C@_06BGMAHCAC@minwep@
CONST	SEGMENT
??_C@_06BGMAHCAC@minwep@ DB 'minwep', 00H		; `string'
CONST	ENDS
;	COMDAT ??_C@_04OLEAENMA@odef@
CONST	SEGMENT
??_C@_04OLEAENMA@odef@ DB 'odef', 00H			; `string'
CONST	ENDS
;	COMDAT ??_C@_05IJAGDLKJ@maxsp@
CONST	SEGMENT
??_C@_05IJAGDLKJ@maxsp@ DB 'maxsp', 00H			; `string'
CONST	ENDS
;	COMDAT ??_C@_05JJHFHHDI@maxhp@
CONST	SEGMENT
??_C@_05JJHFHHDI@maxhp@ DB 'maxhp', 00H			; `string'
CONST	ENDS
;	COMDAT ??_C@_06JOEFCHGL@maxmtk@
CONST	SEGMENT
??_C@_06JOEFCHGL@maxmtk@ DB 'maxmtk', 00H		; `string'
CONST	ENDS
;	COMDAT ??_C@_06JNLGMHCE@minmtk@
CONST	SEGMENT
??_C@_06JNLGMHCE@minmtk@ DB 'minmtk', 00H		; `string'
CONST	ENDS
;	COMDAT ??_C@_03ECCGHPEG@CON@
CONST	SEGMENT
??_C@_03ECCGHPEG@CON@ DB 'CON', 00H			; `string'
CONST	ENDS
;	COMDAT ??_C@_03MOPOHHPO@DEX@
CONST	SEGMENT
??_C@_03MOPOHHPO@DEX@ DB 'DEX', 00H			; `string'
CONST	ENDS
;	COMDAT ??_C@_03OEDLDJBF@STR@
CONST	SEGMENT
??_C@_03OEDLDJBF@STR@ DB 'STR', 00H			; `string'
CONST	ENDS
;	COMDAT ??_C@_03JMHEAPMO@INT@
CONST	SEGMENT
??_C@_03JMHEAPMO@INT@ DB 'INT', 00H			; `string'
CONST	ENDS
;	COMDAT ??_C@_0BB@JCAPOPOP@MagicAttackPower@
CONST	SEGMENT
??_C@_0BB@JCAPOPOP@MagicAttackPower@ DB 'MagicAttackPower', 00H ; `string'
CONST	ENDS
;	COMDAT ??_C@_04DIOLBHO@MWEP@
CONST	SEGMENT
??_C@_04DIOLBHO@MWEP@ DB 'MWEP', 00H			; `string'
CONST	ENDS
;	COMDAT ??_C@_03BKLPEICB@DEF@
CONST	SEGMENT
??_C@_03BKLPEICB@DEF@ DB 'DEF', 00H			; `string'
CONST	ENDS
;	COMDAT ??_C@_0N@BDLLDGMK@DefencePower@
CONST	SEGMENT
??_C@_0N@BDLLDGMK@DefencePower@ DB 'DefencePower', 00H	; `string'
CONST	ENDS
;	COMDAT ??_C@_06DJDDIFMO@AtkMax@
CONST	SEGMENT
??_C@_06DJDDIFMO@AtkMax@ DB 'AtkMax', 00H		; `string'
CONST	ENDS
;	COMDAT ??_C@_06CLLIGBKB@AtkMin@
CONST	SEGMENT
??_C@_06CLLIGBKB@AtkMin@ DB 'AtkMin', 00H		; `string'
CONST	ENDS
;	COMDAT ??_C@_0M@LAGJIOMN@AttackPower@
CONST	SEGMENT
??_C@_0M@LAGJIOMN@AttackPower@ DB 'AttackPower', 00H	; `string'
CONST	ENDS
;	COMDAT ??_C@_06BJMCHJAI@ATKSPD@
CONST	SEGMENT
??_C@_06BJMCHJAI@ATKSPD@ DB 'ATKSPD', 00H		; `string'
CONST	ENDS
;	COMDAT ??_C@_06BGNFGMDD@MaxATK@
CONST	SEGMENT
??_C@_06BGNFGMDD@MaxATK@ DB 'MaxATK', 00H		; `string'
CONST	ENDS
;	COMDAT ??_C@_06BFCGIMHM@MinATK@
CONST	SEGMENT
??_C@_06BFCGIMHM@MinATK@ DB 'MinATK', 00H		; `string'
CONST	ENDS
;	COMDAT ??_C@_06NHHFGGKN@MaxWEP@
CONST	SEGMENT
??_C@_06NHHFGGKN@MaxWEP@ DB 'MaxWEP', 00H		; `string'
CONST	ENDS
;	COMDAT ??_C@_06NEIGIGOC@MinWEP@
CONST	SEGMENT
??_C@_06NEIGIGOC@MinWEP@ DB 'MinWEP', 00H		; `string'
CONST	ENDS
;	COMDAT ??_C@_07NIKGIGML@MaxMWEP@
CONST	SEGMENT
??_C@_07NIKGIGML@MaxMWEP@ DB 'MaxMWEP', 00H		; `string'
CONST	ENDS
;	COMDAT ??_C@_07DOMGCJCK@MinMWEP@
CONST	SEGMENT
??_C@_07DOMGCJCK@MinMWEP@ DB 'MinMWEP', 00H		; `string'
CONST	ENDS
;	COMDAT ??_C@_05CDGDFMNN@MaxSP@
CONST	SEGMENT
??_C@_05CDGDFMNN@MaxSP@ DB 'MaxSP', 00H			; `string'
CONST	ENDS
;	COMDAT ??_C@_05DDBABAEM@MaxHP@
CONST	SEGMENT
??_C@_05DDBABAEM@MaxHP@ DB 'MaxHP', 00H			; `string'
CONST	ENDS
;	COMDAT ??_C@_05KOHFLOFG@Level@
CONST	SEGMENT
??_C@_05KOHFLOFG@Level@ DB 'Level', 00H			; `string'
CONST	ENDS
;	COMDAT ??_C@_02JFNPKIJL@LV@
CONST	SEGMENT
??_C@_02JFNPKIJL@LV@ DB 'LV', 00H			; `string'
CONST	ENDS
;	COMDAT ??_C@_02PGLKMFED@HR@
CONST	SEGMENT
??_C@_02PGLKMFED@HR@ DB 'HR', 00H			; `string'
CONST	ENDS
;	COMDAT ??_C@_05FGPNDJME@chain@
CONST	SEGMENT
??_C@_05FGPNDJME@chain@ DB 'chain', 00H			; `string'
CONST	ENDS
;	COMDAT ??_C@_0L@BFLCNLLJ@EMPTY_HAND@
CONST	SEGMENT
??_C@_0L@BFLCNLLJ@EMPTY_HAND@ DB 'EMPTY_HAND', 00H	; `string'
CONST	ENDS
;	COMDAT ??_C@_05CHNCNNHJ@ARROW@
CONST	SEGMENT
??_C@_05CHNCNNHJ@ARROW@ DB 'ARROW', 00H			; `string'
CONST	ENDS
;	COMDAT ??_C@_03HPGGKCHO@FAN@
CONST	SEGMENT
??_C@_03HPGGKCHO@FAN@ DB 'FAN', 00H			; `string'
CONST	ENDS
;	COMDAT ??_C@_04JCGINPGJ@BELL@
CONST	SEGMENT
??_C@_04JCGINPGJ@BELL@ DB 'BELL', 00H			; `string'
CONST	ENDS
;	COMDAT ??_C@_0N@OINLDIMI@DOUBLE_SWORD@
CONST	SEGMENT
??_C@_0N@OINLDIMI@DOUBLE_SWORD@ DB 'DOUBLE_SWORD', 00H	; `string'
CONST	ENDS
;	COMDAT ??_C@_0L@CIOLFOIH@TWO_HANDED@
CONST	SEGMENT
??_C@_0L@CIOLFOIH@TWO_HANDED@ DB 'TWO_HANDED', 00H	; `string'
CONST	ENDS
;	COMDAT ??_C@_03GBJKLBDL@BOW@
CONST	SEGMENT
??_C@_03GBJKLBDL@BOW@ DB 'BOW', 00H			; `string'
CONST	ENDS
;	COMDAT ??_C@_06EBPDMAC@DAGGER@
CONST	SEGMENT
??_C@_06EBPDMAC@DAGGER@ DB 'DAGGER', 00H		; `string'
CONST	ENDS
;	COMDAT ??_C@_05HGEOAPGK@SWORD@
CONST	SEGMENT
??_C@_05HGEOAPGK@SWORD@ DB 'SWORD', 00H			; `string'
CONST	ENDS
;	COMDAT ??_C@_0O@DNFBBGFD@SEARCH_TARGET@
CONST	SEGMENT
??_C@_0O@DNFBBGFD@SEARCH_TARGET@ DB 'SEARCH_TARGET', 00H ; `string'
CONST	ENDS
;	COMDAT ??_C@_0N@CDNKGDPF@CIRCLE_RANGE@
CONST	SEGMENT
??_C@_0N@CDNKGDPF@CIRCLE_RANGE@ DB 'CIRCLE_RANGE', 00H	; `string'
CONST	ENDS
;	COMDAT ??_C@_0BD@OHHCPGPG@ONLY_FOR_GUILD_WAR@
CONST	SEGMENT
??_C@_0BD@OHHCPGPG@ONLY_FOR_GUILD_WAR@ DB 'ONLY_FOR_GUILD_WAR', 00H ; `string'
CONST	ENDS
;	COMDAT ??_C@_0BA@PANOFCME@CANNOT_LEVEL_UP@
CONST	SEGMENT
??_C@_0BA@PANOFCME@CANNOT_LEVEL_UP@ DB 'CANNOT_LEVEL_UP', 00H ; `string'
CONST	ENDS
;	COMDAT ??_C@_07NLANJMCK@PASSIVE@
CONST	SEGMENT
??_C@_07NLANJMCK@PASSIVE@ DB 'PASSIVE', 00H		; `string'
CONST	ENDS
;	COMDAT ??_C@_0BE@PHFCBKJJ@TIME_INCREASE_SKILL@
CONST	SEGMENT
??_C@_0BE@PHFCBKJJ@TIME_INCREASE_SKILL@ DB 'TIME_INCREASE_SKILL', 00H ; `string'
CONST	ENDS
;	COMDAT ??_C@_0M@NDECBLLN@HORSE_SKILL@
CONST	SEGMENT
??_C@_0M@NDECBLLN@HORSE_SKILL@ DB 'HORSE_SKILL', 00H	; `string'
CONST	ENDS
;	COMDAT ??_C@_0N@DMIFKBAA@MOVING_SKILL@
CONST	SEGMENT
??_C@_0N@DMIFKBAA@MOVING_SKILL@ DB 'MOVING_SKILL', 00H	; `string'
CONST	ENDS
;	COMDAT ??_C@_0N@DGOOFKCE@ATTACK_SKILL@
CONST	SEGMENT
??_C@_0N@DGOOFKCE@ATTACK_SKILL@ DB 'ATTACK_SKILL', 00H	; `string'
CONST	ENDS
;	COMDAT ??_C@_0P@JIHFJGIE@CAN_USE_FOR_ME@
CONST	SEGMENT
??_C@_0P@JIHFJGIE@CAN_USE_FOR_ME@ DB 'CAN_USE_FOR_ME', 00H ; `string'
CONST	ENDS
;	COMDAT ??_C@_0BC@CKDFNGK@ONLY_FOR_ALLIANCE@
CONST	SEGMENT
??_C@_0BC@CKDFNGK@ONLY_FOR_ALLIANCE@ DB 'ONLY_FOR_ALLIANCE', 00H ; `string'
CONST	ENDS
;	COMDAT ??_C@_0P@LCOEKGDG@STANDING_SKILL@
CONST	SEGMENT
??_C@_0P@LCOEKGDG@STANDING_SKILL@ DB 'STANDING_SKILL', 00H ; `string'
CONST	ENDS
;	COMDAT ??_C@_0BF@KAHLCFKD@CAN_CHANGE_DIRECTION@
CONST	SEGMENT
??_C@_0BF@KAHLCFKD@CAN_CHANGE_DIRECTION@ DB 'CAN_CHANGE_DIRECTION', 00H ; `string'
CONST	ENDS
;	COMDAT ??_C@_06FOCLNFCJ@USE_HP@
CONST	SEGMENT
??_C@_06FOCLNFCJ@USE_HP@ DB 'USE_HP', 00H		; `string'
CONST	ENDS
;	COMDAT ??_C@_0O@OBGKPFHN@CHARGE_ATTACK@
CONST	SEGMENT
??_C@_0O@OBGKPFHN@CHARGE_ATTACK@ DB 'CHARGE_ATTACK', 00H ; `string'
CONST	ENDS
;	COMDAT ??_C@_0N@OECBKPIO@MELEE_ATTACK@
CONST	SEGMENT
??_C@_0N@OECBKPIO@MELEE_ATTACK@ DB 'MELEE_ATTACK', 00H	; `string'
CONST	ENDS
;	COMDAT ??_C@_0BC@NOPFFPJN@WEAPON_LIMITATION@
CONST	SEGMENT
??_C@_0BC@NOPFFPJN@WEAPON_LIMITATION@ DB 'WEAPON_LIMITATION', 00H ; `string'
CONST	ENDS
;	COMDAT ??_C@_06FDJJHOKF@TOGGLE@
CONST	SEGMENT
??_C@_06FDJJHOKF@TOGGLE@ DB 'TOGGLE', 00H		; `string'
CONST	ENDS
;	COMDAT ??_C@_0M@HCIEKIGP@NEED_TARGET@
CONST	SEGMENT
??_C@_0M@HCIEKIGP@NEED_TARGET@ DB 'NEED_TARGET', 00H	; `string'
CONST	ENDS
;	COMDAT ??_C@_0M@GMELPIKL@NEED_CORPSE@
CONST	SEGMENT
??_C@_0M@GMELPIKL@NEED_CORPSE@ DB 'NEED_CORPSE', 00H	; `string'
CONST	ENDS
;	COMDAT ??_C@_09IHHGJKF@FAN_RANGE@
CONST	SEGMENT
??_C@_09IHHGJKF@FAN_RANGE@ DB 'FAN_RANGE', 00H		; `string'
CONST	ENDS
;	COMDAT ??_C@_0BG@KFFKABFH@CAN_USE_IF_NOT_ENOUGH@
CONST	SEGMENT
??_C@_0BG@KFFKABFH@CAN_USE_IF_NOT_ENOUGH@ DB 'CAN_USE_IF_NOT_ENOUGH', 00H ; `string'
CONST	ENDS
;	COMDAT ??_C@_0BC@DDKDAKLO@NEED_EMPTY_BOTTLE@
CONST	SEGMENT
??_C@_0BC@DDKDAKLO@NEED_EMPTY_BOTTLE@ DB 'NEED_EMPTY_BOTTLE', 00H ; `string'
CONST	ENDS
;	COMDAT ??_C@_0BD@HPCMPHGF@NEED_POISON_BOTTLE@
CONST	SEGMENT
??_C@_0BD@HPCMPHGF@NEED_POISON_BOTTLE@ DB 'NEED_POISON_BOTTLE', 00H ; `string'
CONST	ENDS
;	COMDAT ??_C@_07CGFACAKO@passive@
CONST	SEGMENT
??_C@_07CGFACAKO@passive@ DB 'passive', 00H		; `string'
CONST	ENDS
;	COMDAT ??_C@_06IEMBPBBN@shaman@
CONST	SEGMENT
??_C@_06IEMBPBBN@shaman@ DB 'shaman', 00H		; `string'
CONST	ENDS
;	COMDAT ??_C@_04PANNCEIL@sura@
CONST	SEGMENT
??_C@_04PANNCEIL@sura@ DB 'sura', 00H			; `string'
CONST	ENDS
;	COMDAT ??_C@_08BFJJNNGH@assassin@
CONST	SEGMENT
??_C@_08BFJJNNGH@assassin@ DB 'assassin', 00H		; `string'
CONST	ENDS
;	COMDAT ??_C@_07MMNNMPML@warrior@
CONST	SEGMENT
??_C@_07MMNNMPML@warrior@ DB 'warrior', 00H		; `string'
CONST	ENDS
;	COMDAT ??_C@_05DOPDBCAL@horse@
CONST	SEGMENT
??_C@_05DOPDBCAL@horse@ DB 'horse', 00H			; `string'
CONST	ENDS
;	COMDAT ??_C@_05GMIMCKGP@guild@
CONST	SEGMENT
??_C@_05GMIMCKGP@guild@ DB 'guild', 00H			; `string'
CONST	ENDS
;	COMDAT ??_C@_07ILMBEDPO@support@
CONST	SEGMENT
??_C@_07ILMBEDPO@support@ DB 'support', 00H		; `string'
CONST	ENDS
;	COMDAT ??_C@_06MDLIGPKC@active@
CONST	SEGMENT
??_C@_06MDLIGPKC@active@ DB 'active', 00H		; `string'
CONST	ENDS
;	COMDAT ??_C@_03OFAPEBGM@?$CFs?6@
CONST	SEGMENT
??_C@_03OFAPEBGM@?$CFs?6@ DB '%s', 0aH, 00H		; `string'
CONST	ENDS
;	COMDAT ??_C@_02DPKJAMEF@?$CFd@
CONST	SEGMENT
??_C@_02DPKJAMEF@?$CFd@ DB '%d', 00H			; `string'
CONST	ENDS
;	COMDAT ??_C@_01GPOEFGEJ@?7@
CONST	SEGMENT
??_C@_01GPOEFGEJ@?7@ DB 09H, 00H			; `string'
CONST	ENDS
;	COMDAT ??_C@_08OKJMHBIC@test?4txt@
CONST	SEGMENT
??_C@_08OKJMHBIC@test?4txt@ DB 'test.txt', 00H		; `string'
CONST	ENDS
;	COMDAT ??_C@_01NOFIACDB@w@
CONST	SEGMENT
??_C@_01NOFIACDB@w@ DB 'w', 00H				; `string'
CONST	ENDS
;	COMDAT ??_C@_0BB@FIGDLACA@motionindexforme@
CONST	SEGMENT
??_C@_0BB@FIGDLACA@motionindexforme@ DB 'motionindexforme', 00H ; `string'
CONST	ENDS
;	COMDAT ??_C@_0M@DIJMKMOF@motionindex@
CONST	SEGMENT
??_C@_0M@DIJMKMOF@motionindex@ DB 'motionindex', 00H	; `string'
CONST	ENDS
;	COMDAT ??_C@_0N@BIJBKECH@leveluppoint@
CONST	SEGMENT
??_C@_0N@BIJBKECH@leveluppoint@ DB 'leveluppoint', 00H	; `string'
CONST	ENDS
;	COMDAT ??_C@_08JAPIFGPH@maxlevel@
CONST	SEGMENT
??_C@_08JAPIFGPH@maxlevel@ DB 'maxlevel', 00H		; `string'
CONST	ENDS
;	COMDAT ??_C@_05CCGOGOBM@range@
CONST	SEGMENT
??_C@_05CCGOGOBM@range@ DB 'range', 00H			; `string'
CONST	ENDS
;	COMDAT ??_C@_0BG@DFAOMADI@continuationspformula@
CONST	SEGMENT
??_C@_0BG@DFAOMADI@continuationspformula@ DB 'continuationspformula', 00H ; `string'
CONST	ENDS
;	COMDAT ??_C@_0O@OKAHIEDK@needspformula@
CONST	SEGMENT
??_C@_0O@OKAHIEDK@needspformula@ DB 'needspformula', 00H ; `string'
CONST	ENDS
;	COMDAT ??_C@_0BH@DAEIJFBL@motionloopcountformula@
CONST	SEGMENT
??_C@_0BH@DAEIJFBL@motionloopcountformula@ DB 'motionloopcountformula', 00H ; `string'
CONST	ENDS
;	COMDAT ??_C@_0BD@GDJBKHMN@targetcountformula@
CONST	SEGMENT
??_C@_0BD@GDJBKHMN@targetcountformula@ DB 'targetcountformula', 00H ; `string'
CONST	ENDS
;	COMDAT ??_C@_0BA@EILLLIMM@cooltimeformula@
CONST	SEGMENT
??_C@_0BA@EILLLIMM@cooltimeformula@ DB 'cooltimeformula', 00H ; `string'
CONST	ENDS
;	COMDAT ??_C@_0FJ@NEGDHIMM@CPythonSkill?3?3RegisterSkill?$CIdwS@
CONST	SEGMENT
??_C@_0FJ@NEGDHIMM@CPythonSkill?3?3RegisterSkill?$CIdwS@ DB 'CPythonSkill'
	DB	'::RegisterSkill(dwSkillIndex=%d, c_szFileName=%s) - Strange G'
	DB	'rade Data Count', 00H			; `string'
CONST	ENDS
;	COMDAT ??_C@_0M@PCGMAJCD@?$CFdgradedata@
CONST	SEGMENT
??_C@_0M@PCGMAJCD@?$CFdgradedata@ DB '%dgradedata', 00H	; `string'
CONST	ENDS
;	COMDAT ??_C@_0L@IEHCOHAD@affectdata@
CONST	SEGMENT
??_C@_0L@IEHCOHAD@affectdata@ DB 'affectdata', 00H	; `string'
CONST	ENDS
;	COMDAT ??_C@_0N@GFIELPPM@?$CFdaffectdata@
CONST	SEGMENT
??_C@_0N@GFIELPPM@?$CFdaffectdata@ DB '%daffectdata', 00H ; `string'
CONST	ENDS
;	COMDAT ??_C@_0O@BGDKPGFJ@conditiondata@
CONST	SEGMENT
??_C@_0O@BGDKPGFJ@conditiondata@ DB 'conditiondata', 00H ; `string'
CONST	ENDS
;	COMDAT ??_C@_0BA@IOBOECCA@?$CFdconditiondata@
CONST	SEGMENT
??_C@_0BA@IOBOECCA@?$CFdconditiondata@ DB '%dconditiondata', 00H ; `string'
CONST	ENDS
;	COMDAT ??_C@_0FO@BPLAJAHG@CPythonSkill?3?3RegisterSkill?$CIdwS@
CONST	SEGMENT
??_C@_0FO@BPLAJAHG@CPythonSkill?3?3RegisterSkill?$CIdwS@ DB 'CPythonSkill'
	DB	'::RegisterSkill(dwSkillIndex=%d, c_szFileName=%s) - Failed to'
	DB	' find [iconfilename]', 00H			; `string'
CONST	ENDS
;	COMDAT ??_C@_0N@CDMMOEBD@iconfilename@
CONST	SEGMENT
??_C@_0N@CDMMOEBD@iconfilename@ DB 'iconfilename', 00H	; `string'
CONST	ENDS
;	COMDAT ??_C@_0M@PPJNHBMP@description@
CONST	SEGMENT
??_C@_0M@PPJNHBMP@description@ DB 'description', 00H	; `string'
CONST	ENDS
;	COMDAT ??_C@_0O@NCHOGIBK@?$CFddescription@
CONST	SEGMENT
??_C@_0O@NCHOGIBK@?$CFddescription@ DB '%ddescription', 00H ; `string'
CONST	ENDS
;	COMDAT ??_C@_0FE@LFJDJPLO@CPythonSkill?3?3RegisterSkill?$CIdwS@
CONST	SEGMENT
??_C@_0FE@LFJDJPLO@CPythonSkill?3?3RegisterSkill?$CIdwS@ DB 'CPythonSkill'
	DB	'::RegisterSkill(dwSkillIndex=%d, c_szFileName=%s) - Failed to'
	DB	' find [%s]', 00H				; `string'
CONST	ENDS
;	COMDAT ??_C@_06JBGOOFCN@?$CFdname@
CONST	SEGMENT
??_C@_06JBGOOFCN@?$CFdname@ DB '%dname', 00H		; `string'
CONST	ENDS
;	COMDAT ??_C@_0FK@CIMCNNKO@Strange?5Skill?5Need?5Weapon?5?9?5CPy@
CONST	SEGMENT
??_C@_0FK@CIMCNNKO@Strange?5Skill?5Need?5Weapon?5?9?5CPy@ DB 'Strange Ski'
	DB	'll Need Weapon - CPythonSkill::RegisterSkill(dwSkillIndex=%d,'
	DB	' c_szFileName=%s)', 00H			; `string'
CONST	ENDS
;	COMDAT ??_C@_0L@OFCPBCKK@needweapon@
CONST	SEGMENT
??_C@_0L@OFCPBCKK@needweapon@ DB 'needweapon', 00H	; `string'
CONST	ENDS
;	COMDAT ??_C@_0FI@NGLMACOA@Strange?5Skill?5Attribute?5?9?5CPyth@
CONST	SEGMENT
??_C@_0FI@NGLMACOA@Strange?5Skill?5Attribute?5?9?5CPyth@ DB 'Strange Skil'
	DB	'l Attribute - CPythonSkill::RegisterSkill(dwSkillIndex=%d, c_'
	DB	'szFileName=%s)', 00H			; `string'
CONST	ENDS
;	COMDAT ??_C@_09HGIEBAJ@attribute@
CONST	SEGMENT
??_C@_09HGIEBAJ@attribute@ DB 'attribute', 00H		; `string'
CONST	ENDS
;	COMDAT ??_C@_0FK@GEMIAIHM@CPythonSkill?3?3RegisterSkill?$CIdwS@
CONST	SEGMENT
??_C@_0FK@GEMIAIHM@CPythonSkill?3?3RegisterSkill?$CIdwS@ DB 'CPythonSkill'
	DB	'::RegisterSkill(dwSkillIndex=%d, c_szFileName=%s) - Failed to'
	DB	' find key [type]', 00H			; `string'
CONST	ENDS
;	COMDAT ??_C@_0FD@BPAOEOEO@Strange?5Skill?5Type?5?9?5CPythonSki@
CONST	SEGMENT
??_C@_0FD@BPAOEOEO@Strange?5Skill?5Type?5?9?5CPythonSki@ DB 'Strange Skil'
	DB	'l Type - CPythonSkill::RegisterSkill(dwSkillIndex=%d, c_szFil'
	DB	'eName=%s)', 00H				; `string'
CONST	ENDS
;	COMDAT ??_C@_0FE@DNAFFMLK@CPythonSkill?3?3RegisterSkill?$CIdwS@
CONST	SEGMENT
??_C@_0FE@DNAFFMLK@CPythonSkill?3?3RegisterSkill?$CIdwS@ DB 'CPythonSkill'
	DB	'::RegisterSkill(dwSkillIndex=%d, c_szFileName=%s) - Failed to'
	DB	' find file', 00H				; `string'
CONST	ENDS
;	COMDAT ??_C@_0CI@PBLMEEEN@?$CFs?$FL?$CFs?$FN?5?$LA?$KB?5?$LF?n?$LB?$NO?5?A?$KG?G?Q?$FL?$CFd?$FN?$MA?$LL?5?$LD?Q?$LO?n?$LA@
CONST	SEGMENT
??_C@_0CI@PBLMEEEN@?$CFs?$FL?$CFs?$FN?5?$LA?$KB?5?$LF?n?$LB?$NO?5?A?$KG?G?Q?$FL?$CFd?$FN?$MA?$LL?5?$LD?Q?$LO?n?$LA@ DB '%'
	DB	's[%s] ', 0b0H, 0a1H, ' ', 0b5H, 0eeH, 0b1H, 0deH, ' ', 0c1H, 0a6H
	DB	0c7H, 0d1H, '[%d]', 0c0H, 0bbH, ' ', 0b3H, 0d1H, 0beH, 0eeH, 0b0H
	DB	0acH, 0bdH, 0c0H, 0b4H, 0cfH, 0b4H, 0d9H, '.', 00H ; `string'
CONST	ENDS
;	COMDAT ??_C@_0M@MMGCNLPF@?$CFsskill?1?$CFs?1@
CONST	SEGMENT
??_C@_0M@MMGCNLPF@?$CFsskill?1?$CFs?1@ DB '%sskill/%s/', 00H ; `string'
CONST	ENDS
;	COMDAT ??_C@_0BI@FJJHCJFN@?$CFsskill?1common?1support?1@
CONST	SEGMENT
??_C@_0BI@FJJHCJFN@?$CFsskill?1common?1support?1@ DB '%sskill/common/supp'
	DB	'ort/', 00H					; `string'
CONST	ENDS
;	COMDAT ??_C@_0FB@LIPAFJME@CPythonSkill?3?3RegisterSkillDesc@
CONST	SEGMENT
??_C@_0FB@LIPAFJME@CPythonSkill?3?3RegisterSkillDesc@ DB 'CPythonSkill::R'
	DB	'egisterSkillDesc(dwSkillIndex=%d) - Strange Skill Need Weapon'
	DB	'(%s)', 00H					; `string'
CONST	ENDS
;	COMDAT ??_C@_0EP@BPIIEGNI@CPythonSkill?3?3RegisterSkillDesc@
CONST	SEGMENT
??_C@_0EP@BPIIEGNI@CPythonSkill?3?3RegisterSkillDesc@ DB 'CPythonSkill::R'
	DB	'egisterSkillDesc(dwSkillIndex=%d) - Strange Skill Attribute(%'
	DB	's)', 00H					; `string'
CONST	ENDS
;	COMDAT ??_C@_01DNKMNLPK@?$HM@
CONST	SEGMENT
??_C@_01DNKMNLPK@?$HM@ DB '|', 00H			; `string'
CONST	ENDS
;	COMDAT ??_C@_0FA@HKALFJMK@CPythonSkill?3?3RegisterSkillDesc@
CONST	SEGMENT
??_C@_0FA@HKALFJMK@CPythonSkill?3?3RegisterSkillDesc@ DB 'CPythonSkill::R'
	DB	'egisterSkillDesc(dwSkillIndex=%d, strType=%s).STRANGE_SKILL_T'
	DB	'YPE', 00H					; `string'
CONST	ENDS
;	COMDAT ??_C@_0CB@DMLPIAAA@SkillDesc?4line?$CI?$CFd?$CJ?4NO_JOB_ERROR@
CONST	SEGMENT
??_C@_0CB@DMLPIAAA@SkillDesc?4line?$CI?$CFd?$CJ?4NO_JOB_ERROR@ DB 'SkillD'
	DB	'esc.line(%d).NO_JOB_ERROR', 0aH, 00H	; `string'
CONST	ENDS
;	COMDAT ??_C@_0CD@PBEIPNPF@SkillDesc?4line?$CI?$CFd?$CJ?4NO_INDEX_ERR@
CONST	SEGMENT
??_C@_0CD@PBEIPNPF@SkillDesc?4line?$CI?$CFd?$CJ?4NO_INDEX_ERR@ DB 'SkillD'
	DB	'esc.line(%d).NO_INDEX_ERROR', 0aH, 00H	; `string'
CONST	ENDS
;	COMDAT ??_C@_0CC@GCKFPEAL@SkillDesc?4line?$CI?$CFd?$CJ?4NO_VNUM_ERRO@
CONST	SEGMENT
??_C@_0CC@GCKFPEAL@SkillDesc?4line?$CI?$CFd?$CJ?4NO_VNUM_ERRO@ DB 'SkillD'
	DB	'esc.line(%d).NO_VNUM_ERROR', 0aH, 00H	; `string'
CONST	ENDS
;	COMDAT ??_C@_04DLFHDFGL@?4sub@
CONST	SEGMENT
??_C@_04DLFHDFGL@?4sub@ DB '.sub', 00H			; `string'
CONST	ENDS
;	COMDAT ??_C@_05GMJBCDPG@_?$CF02d@
CONST	SEGMENT
??_C@_05GMJBCDPG@_?$CF02d@ DB '_%02d', 00H		; `string'
CONST	ENDS
;	COMDAT ??_C@_03NNBCEMGJ@?$CK?53@
CONST	SEGMENT
??_C@_03NNBCEMGJ@?$CK?53@ DB '* 3', 00H			; `string'
CONST	ENDS
;	COMDAT ??_C@_07ONOKAGOF@maxmwep@
CONST	SEGMENT
??_C@_07ONOKAGOF@maxmwep@ DB 'maxmwep', 00H		; `string'
CONST	ENDS
;	COMDAT ??_C@_06NEJDJIND@maxatk@
CONST	SEGMENT
??_C@_06NEJDJIND@maxatk@ DB 'maxatk', 00H		; `string'
CONST	ENDS
;	COMDAT ??_C@_03LJAEFNNE@max@
CONST	SEGMENT
??_C@_03LJAEFNNE@max@ DB 'max', 00H			; `string'
CONST	ENDS
;	COMDAT ??_C@_07LIKKJAE@minmwep@
CONST	SEGMENT
??_C@_07LIKKJAE@minmwep@ DB 'minmwep', 00H		; `string'
CONST	ENDS
;	COMDAT ??_C@_06NHGAHIJM@minatk@
CONST	SEGMENT
??_C@_06NHGAHIJM@minatk@ DB 'minatk', 00H		; `string'
CONST	ENDS
;	COMDAT ??_C@_03KLIPLJLL@min@
CONST	SEGMENT
??_C@_03KLIPLJLL@min@ DB 'min', 00H			; `string'
CONST	ENDS
;	COMDAT ??_C@_06EBGNBFIA@number@
CONST	SEGMENT
??_C@_06EBGNBFIA@number@ DB 'number', 00H		; `string'
CONST	ENDS
;	COMDAT ??_C@_04MPLEFDAG@mwep@
CONST	SEGMENT
??_C@_04MPLEFDAG@mwep@ DB 'mwep', 00H			; `string'
CONST	ENDS
;	COMDAT ??_C@_03IINAMCGF@atk@
CONST	SEGMENT
??_C@_03IINAMCGF@atk@ DB 'atk', 00H			; `string'
CONST	ENDS
;	COMDAT ??_C@_0EO@GJJLGCC@CPythonSkill?3?3RegisterSkillTabl@
CONST	SEGMENT
??_C@_0EO@GJJLGCC@CPythonSkill?3?3RegisterSkillTabl@ DB 'CPythonSkill::Re'
	DB	'gisterSkillTable(%s) - NOT EXIST SkillDesc [Vnum:%d Line:%d]', 0aH
	DB	00H						; `string'
CONST	ENDS
;	COMDAT ??_C@_0FG@JMHDMKFK@CPythonSkill?3?3RegisterSkillTabl@
CONST	SEGMENT
??_C@_0FG@JMHDMKFK@CPythonSkill?3?3RegisterSkillTabl@ DB 'CPythonSkill::R'
	DB	'egisterSkillTable(%s) - Strange Token Count [Line:%d / TokenC'
	DB	'ount:%d]', 0aH, 00H				; `string'
CONST	ENDS
;	COMDAT ?ms_kPool@?$CPooledObject@VCRotationDecorator@NEffectUpdateDecorator@@@@1V?$CDynamicPoolEx@VCRotationDecorator@NEffectUpdateDecorator@@@@A
_DATA	SEGMENT
?ms_kPool@?$CPooledObject@VCRotationDecorator@NEffectUpdateDecorator@@@@1V?$CDynamicPoolEx@VCRotationDecorator@NEffectUpdateDecorator@@@@A DD FLAT:??_7?$CDynamicPoolEx@VCRotationDecorator@NEffectUpdateDecorator@@@@6B@ ; CPooledObject<NEffectUpdateDecorator::CRotationDecorator>::ms_kPool
	DD	00H
	DD	00H
	DD	00H
	DD	00H
	DD	00H
	DD	00H
	DD	00H
	DD	00H
_DATA	ENDS
;	COMDAT ?ms_kPool@?$CPooledObject@VCGravityDecorator@NEffectUpdateDecorator@@@@1V?$CDynamicPoolEx@VCGravityDecorator@NEffectUpdateDecorator@@@@A
_DATA	SEGMENT
?ms_kPool@?$CPooledObject@VCGravityDecorator@NEffectUpdateDecorator@@@@1V?$CDynamicPoolEx@VCGravityDecorator@NEffectUpdateDecorator@@@@A DD FLAT:??_7?$CDynamicPoolEx@VCGravityDecorator@NEffectUpdateDecorator@@@@6B@ ; CPooledObject<NEffectUpdateDecorator::CGravityDecorator>::ms_kPool
	DD	00H
	DD	00H
	DD	00H
	DD	00H
	DD	00H
	DD	00H
	DD	00H
	DD	00H
_DATA	ENDS
;	COMDAT ?ms_kPool@?$CPooledObject@VCAirResistanceDecorator@NEffectUpdateDecorator@@@@1V?$CDynamicPoolEx@VCAirResistanceDecorator@NEffectUpdateDecorator@@@@A
_DATA	SEGMENT
?ms_kPool@?$CPooledObject@VCAirResistanceDecorator@NEffectUpdateDecorator@@@@1V?$CDynamicPoolEx@VCAirResistanceDecorator@NEffectUpdateDecorator@@@@A DD FLAT:??_7?$CDynamicPoolEx@VCAirResistanceDecorator@NEffectUpdateDecorator@@@@6B@ ; CPooledObject<NEffectUpdateDecorator::CAirResistanceDecorator>::ms_kPool
	DD	00H
	DD	00H
	DD	00H
	DD	00H
	DD	00H
	DD	00H
	DD	00H
	DD	00H
_DATA	ENDS
;	COMDAT ?ms_kPool@?$CPooledObject@VCTextureAnimationRandomDecorator@NEffectUpdateDecorator@@@@1V?$CDynamicPoolEx@VCTextureAnimationRandomDecorator@NEffectUpdateDecorator@@@@A
_DATA	SEGMENT
?ms_kPool@?$CPooledObject@VCTextureAnimationRandomDecorator@NEffectUpdateDecorator@@@@1V?$CDynamicPoolEx@VCTextureAnimationRandomDecorator@NEffectUpdateDecorator@@@@A DD FLAT:??_7?$CDynamicPoolEx@VCTextureAnimationRandomDecorator@NEffectUpdateDecorator@@@@6B@ ; CPooledObject<NEffectUpdateDecorator::CTextureAnimationRandomDecorator>::ms_kPool
	DD	00H
	DD	00H
	DD	00H
	DD	00H
	DD	00H
	DD	00H
	DD	00H
	DD	00H
_DATA	ENDS
;	COMDAT ?ms_kPool@?$CPooledObject@VCTextureAnimationCCWDecorator@NEffectUpdateDecorator@@@@1V?$CDynamicPoolEx@VCTextureAnimationCCWDecorator@NEffectUpdateDecorator@@@@A
_DATA	SEGMENT
?ms_kPool@?$CPooledObject@VCTextureAnimationCCWDecorator@NEffectUpdateDecorator@@@@1V?$CDynamicPoolEx@VCTextureAnimationCCWDecorator@NEffectUpdateDecorator@@@@A DD FLAT:??_7?$CDynamicPoolEx@VCTextureAnimationCCWDecorator@NEffectUpdateDecorator@@@@6B@ ; CPooledObject<NEffectUpdateDecorator::CTextureAnimationCCWDecorator>::ms_kPool
	DD	00H
	DD	00H
	DD	00H
	DD	00H
	DD	00H
	DD	00H
	DD	00H
	DD	00H
_DATA	ENDS
;	COMDAT ?ms_kPool@?$CPooledObject@VCTextureAnimationCWDecorator@NEffectUpdateDecorator@@@@1V?$CDynamicPoolEx@VCTextureAnimationCWDecorator@NEffectUpdateDecorator@@@@A
_DATA	SEGMENT
?ms_kPool@?$CPooledObject@VCTextureAnimationCWDecorator@NEffectUpdateDecorator@@@@1V?$CDynamicPoolEx@VCTextureAnimationCWDecorator@NEffectUpdateDecorator@@@@A DD FLAT:??_7?$CDynamicPoolEx@VCTextureAnimationCWDecorator@NEffectUpdateDecorator@@@@6B@ ; CPooledObject<NEffectUpdateDecorator::CTextureAnimationCWDecorator>::ms_kPool
	DD	00H
	DD	00H
	DD	00H
	DD	00H
	DD	00H
	DD	00H
	DD	00H
	DD	00H
_DATA	ENDS
;	COMDAT ?ms_kPool@?$CPooledObject@VCNullDecorator@NEffectUpdateDecorator@@@@1V?$CDynamicPoolEx@VCNullDecorator@NEffectUpdateDecorator@@@@A
_DATA	SEGMENT
?ms_kPool@?$CPooledObject@VCNullDecorator@NEffectUpdateDecorator@@@@1V?$CDynamicPoolEx@VCNullDecorator@NEffectUpdateDecorator@@@@A DD FLAT:??_7?$CDynamicPoolEx@VCNullDecorator@NEffectUpdateDecorator@@@@6B@ ; CPooledObject<NEffectUpdateDecorator::CNullDecorator>::ms_kPool
	DD	00H
	DD	00H
	DD	00H
	DD	00H
	DD	00H
	DD	00H
	DD	00H
	DD	00H
_DATA	ENDS
;	COMDAT ?ms_kPool@?$CPooledObject@VCHeaderDecorator@NEffectUpdateDecorator@@@@1V?$CDynamicPoolEx@VCHeaderDecorator@NEffectUpdateDecorator@@@@A
_DATA	SEGMENT
?ms_kPool@?$CPooledObject@VCHeaderDecorator@NEffectUpdateDecorator@@@@1V?$CDynamicPoolEx@VCHeaderDecorator@NEffectUpdateDecorator@@@@A DD FLAT:??_7?$CDynamicPoolEx@VCHeaderDecorator@NEffectUpdateDecorator@@@@6B@ ; CPooledObject<NEffectUpdateDecorator::CHeaderDecorator>::ms_kPool
	DD	00H
	DD	00H
	DD	00H
	DD	00H
	DD	00H
	DD	00H
	DD	00H
	DD	00H
_DATA	ENDS
;	COMDAT ??_7CPythonSkill@@6B@
CONST	SEGMENT
??_7CPythonSkill@@6B@ DD FLAT:??_R4CPythonSkill@@6B@	; CPythonSkill::`vftable'
	DD	FLAT:??_ECPythonSkill@@UAEPAXI@Z
CONST	ENDS
;	COMDAT ??_7?$CSingleton@VCPythonSkill@@@@6B@
CONST	SEGMENT
??_7?$CSingleton@VCPythonSkill@@@@6B@ DD FLAT:??_R4?$CSingleton@VCPythonSkill@@@@6B@ ; CSingleton<CPythonSkill>::`vftable'
	DD	FLAT:??_E?$CSingleton@VCPythonSkill@@@@UAEPAXI@Z
CONST	ENDS
;	COMDAT ??_R1A@?0A@EA@bad_array_new_length@std@@8
rdata$r	SEGMENT
??_R1A@?0A@EA@bad_array_new_length@std@@8 DD FLAT:??_R0?AVbad_array_new_length@std@@@8 ; std::bad_array_new_length::`RTTI Base Class Descriptor at (0,-1,0,64)'
	DD	02H
	DD	00H
	DD	0ffffffffH
	DD	00H
	DD	040H
	DD	FLAT:??_R3bad_array_new_length@std@@8
rdata$r	ENDS
;	COMDAT ??_R2bad_array_new_length@std@@8
rdata$r	SEGMENT
??_R2bad_array_new_length@std@@8 DD FLAT:??_R1A@?0A@EA@bad_array_new_length@std@@8 ; std::bad_array_new_length::`RTTI Base Class Array'
	DD	FLAT:??_R1A@?0A@EA@bad_alloc@std@@8
	DD	FLAT:??_R1A@?0A@EA@exception@std@@8
rdata$r	ENDS
;	COMDAT ??_R3bad_array_new_length@std@@8
rdata$r	SEGMENT
??_R3bad_array_new_length@std@@8 DD 00H			; std::bad_array_new_length::`RTTI Class Hierarchy Descriptor'
	DD	00H
	DD	03H
	DD	FLAT:??_R2bad_array_new_length@std@@8
rdata$r	ENDS
;	COMDAT ??_R4bad_array_new_length@std@@6B@
rdata$r	SEGMENT
??_R4bad_array_new_length@std@@6B@ DD 00H		; std::bad_array_new_length::`RTTI Complete Object Locator'
	DD	00H
	DD	00H
	DD	FLAT:??_R0?AVbad_array_new_length@std@@@8
	DD	FLAT:??_R3bad_array_new_length@std@@8
rdata$r	ENDS
;	COMDAT ??_R1A@?0A@EA@bad_alloc@std@@8
rdata$r	SEGMENT
??_R1A@?0A@EA@bad_alloc@std@@8 DD FLAT:??_R0?AVbad_alloc@std@@@8 ; std::bad_alloc::`RTTI Base Class Descriptor at (0,-1,0,64)'
	DD	01H
	DD	00H
	DD	0ffffffffH
	DD	00H
	DD	040H
	DD	FLAT:??_R3bad_alloc@std@@8
rdata$r	ENDS
;	COMDAT ??_R2bad_alloc@std@@8
rdata$r	SEGMENT
??_R2bad_alloc@std@@8 DD FLAT:??_R1A@?0A@EA@bad_alloc@std@@8 ; std::bad_alloc::`RTTI Base Class Array'
	DD	FLAT:??_R1A@?0A@EA@exception@std@@8
rdata$r	ENDS
;	COMDAT ??_R3bad_alloc@std@@8
rdata$r	SEGMENT
??_R3bad_alloc@std@@8 DD 00H				; std::bad_alloc::`RTTI Class Hierarchy Descriptor'
	DD	00H
	DD	02H
	DD	FLAT:??_R2bad_alloc@std@@8
rdata$r	ENDS
;	COMDAT ??_R4bad_alloc@std@@6B@
rdata$r	SEGMENT
??_R4bad_alloc@std@@6B@ DD 00H				; std::bad_alloc::`RTTI Complete Object Locator'
	DD	00H
	DD	00H
	DD	FLAT:??_R0?AVbad_alloc@std@@@8
	DD	FLAT:??_R3bad_alloc@std@@8
rdata$r	ENDS
;	COMDAT ??_R1A@?0A@EA@exception@std@@8
rdata$r	SEGMENT
??_R1A@?0A@EA@exception@std@@8 DD FLAT:??_R0?AVexception@std@@@8 ; std::exception::`RTTI Base Class Descriptor at (0,-1,0,64)'
	DD	00H
	DD	00H
	DD	0ffffffffH
	DD	00H
	DD	040H
	DD	FLAT:??_R3exception@std@@8
rdata$r	ENDS
;	COMDAT ??_R2exception@std@@8
rdata$r	SEGMENT
??_R2exception@std@@8 DD FLAT:??_R1A@?0A@EA@exception@std@@8 ; std::exception::`RTTI Base Class Array'
rdata$r	ENDS
;	COMDAT ??_R3exception@std@@8
rdata$r	SEGMENT
??_R3exception@std@@8 DD 00H				; std::exception::`RTTI Class Hierarchy Descriptor'
	DD	00H
	DD	01H
	DD	FLAT:??_R2exception@std@@8
rdata$r	ENDS
;	COMDAT ??_R4exception@std@@6B@
rdata$r	SEGMENT
??_R4exception@std@@6B@ DD 00H				; std::exception::`RTTI Complete Object Locator'
	DD	00H
	DD	00H
	DD	FLAT:??_R0?AVexception@std@@@8
	DD	FLAT:??_R3exception@std@@8
rdata$r	ENDS
;	COMDAT ??_C@_0BA@FOIKENOD@vector?5too?5long@
CONST	SEGMENT
??_C@_0BA@FOIKENOD@vector?5too?5long@ DB 'vector too long', 00H ; `string'
CONST	ENDS
;	COMDAT ??_C@_0BI@CFPLBAOH@invalid?5string?5position@
CONST	SEGMENT
??_C@_0BI@CFPLBAOH@invalid?5string?5position@ DB 'invalid string position'
	DB	00H						; `string'
CONST	ENDS
;	COMDAT ??_C@_00CNPNBAHC@@
CONST	SEGMENT
??_C@_00CNPNBAHC@@ DB 00H				; `string'
CONST	ENDS
;	COMDAT ??_C@_0BB@GCADKGJO@map?1set?5too?5long@
CONST	SEGMENT
??_C@_0BB@GCADKGJO@map?1set?5too?5long@ DB 'map/set too long', 00H ; `string'
CONST	ENDS
;	COMDAT ??_C@_0BA@JFNIOLAK@string?5too?5long@
CONST	SEGMENT
??_C@_0BA@JFNIOLAK@string?5too?5long@ DB 'string too long', 00H ; `string'
CONST	ENDS
;	COMDAT __CT??_R0?AVexception@std@@@8??0exception@std@@QAE@ABV01@@Z12
xdata$x	SEGMENT
__CT??_R0?AVexception@std@@@8??0exception@std@@QAE@ABV01@@Z12 DD 00H
	DD	FLAT:??_R0?AVexception@std@@@8
	DD	00H
	DD	0ffffffffH
	ORG $+4
	DD	0cH
	DD	FLAT:??0exception@std@@QAE@ABV01@@Z
xdata$x	ENDS
;	COMDAT ??_R0?AVexception@std@@@8
data$r	SEGMENT
??_R0?AVexception@std@@@8 DD FLAT:??_7type_info@@6B@	; std::exception `RTTI Type Descriptor'
	DD	00H
	DB	'.?AVexception@std@@', 00H
data$r	ENDS
;	COMDAT __CT??_R0?AVbad_alloc@std@@@8??0bad_alloc@std@@QAE@ABV01@@Z12
xdata$x	SEGMENT
__CT??_R0?AVbad_alloc@std@@@8??0bad_alloc@std@@QAE@ABV01@@Z12 DD 010H
	DD	FLAT:??_R0?AVbad_alloc@std@@@8
	DD	00H
	DD	0ffffffffH
	ORG $+4
	DD	0cH
	DD	FLAT:??0bad_alloc@std@@QAE@ABV01@@Z
xdata$x	ENDS
;	COMDAT ??_R0?AVbad_alloc@std@@@8
data$r	SEGMENT
??_R0?AVbad_alloc@std@@@8 DD FLAT:??_7type_info@@6B@	; std::bad_alloc `RTTI Type Descriptor'
	DD	00H
	DB	'.?AVbad_alloc@std@@', 00H
data$r	ENDS
;	COMDAT __CT??_R0?AVbad_array_new_length@std@@@8??0bad_array_new_length@std@@QAE@ABV01@@Z12
xdata$x	SEGMENT
__CT??_R0?AVbad_array_new_length@std@@@8??0bad_array_new_length@std@@QAE@ABV01@@Z12 DD 00H
	DD	FLAT:??_R0?AVbad_array_new_length@std@@@8
	DD	00H
	DD	0ffffffffH
	ORG $+4
	DD	0cH
	DD	FLAT:??0bad_array_new_length@std@@QAE@ABV01@@Z
xdata$x	ENDS
;	COMDAT ??_R0?AVbad_array_new_length@std@@@8
data$r	SEGMENT
??_R0?AVbad_array_new_length@std@@@8 DD FLAT:??_7type_info@@6B@ ; std::bad_array_new_length `RTTI Type Descriptor'
	DD	00H
	DB	'.?AVbad_array_new_length@std@@', 00H
data$r	ENDS
;	COMDAT __CTA3?AVbad_array_new_length@std@@
xdata$x	SEGMENT
__CTA3?AVbad_array_new_length@std@@ DD 03H
	DD	FLAT:__CT??_R0?AVbad_array_new_length@std@@@8??0bad_array_new_length@std@@QAE@ABV01@@Z12
	DD	FLAT:__CT??_R0?AVbad_alloc@std@@@8??0bad_alloc@std@@QAE@ABV01@@Z12
	DD	FLAT:__CT??_R0?AVexception@std@@@8??0exception@std@@QAE@ABV01@@Z12
xdata$x	ENDS
;	COMDAT __TI3?AVbad_array_new_length@std@@
xdata$x	SEGMENT
__TI3?AVbad_array_new_length@std@@ DD 00H
	DD	FLAT:??1bad_array_new_length@std@@UAE@XZ
	DD	00H
	DD	FLAT:__CTA3?AVbad_array_new_length@std@@
xdata$x	ENDS
;	COMDAT ??_C@_0BF@KINCDENJ@bad?5array?5new?5length@
CONST	SEGMENT
??_C@_0BF@KINCDENJ@bad?5array?5new?5length@ DB 'bad array new length', 00H ; `string'
CONST	ENDS
;	COMDAT ??_7bad_array_new_length@std@@6B@
CONST	SEGMENT
??_7bad_array_new_length@std@@6B@ DD FLAT:??_R4bad_array_new_length@std@@6B@ ; std::bad_array_new_length::`vftable'
	DD	FLAT:??_Ebad_array_new_length@std@@UAEPAXI@Z
	DD	FLAT:?what@exception@std@@UBEPBDXZ
CONST	ENDS
;	COMDAT ??_7bad_alloc@std@@6B@
CONST	SEGMENT
??_7bad_alloc@std@@6B@ DD FLAT:??_R4bad_alloc@std@@6B@	; std::bad_alloc::`vftable'
	DD	FLAT:??_Ebad_alloc@std@@UAEPAXI@Z
	DD	FLAT:?what@exception@std@@UBEPBDXZ
CONST	ENDS
;	COMDAT ??_C@_0BC@EOODALEL@Unknown?5exception@
CONST	SEGMENT
??_C@_0BC@EOODALEL@Unknown?5exception@ DB 'Unknown exception', 00H ; `string'
CONST	ENDS
;	COMDAT ??_7exception@std@@6B@
CONST	SEGMENT
??_7exception@std@@6B@ DD FLAT:??_R4exception@std@@6B@	; std::exception::`vftable'
	DD	FLAT:??_Eexception@std@@UAEPAXI@Z
	DD	FLAT:?what@exception@std@@UBEPBDXZ
CONST	ENDS
;	COMDAT xdata$x
xdata$x	SEGMENT
__unwindtable$??$construct@USAffectData@CPythonSkill@@AAU12@@?$_Default_allocator_traits@V?$allocator@USAffectData@CPythonSkill@@@std@@@std@@SAXAAV?$allocator@USAffectData@CPythonSkill@@@1@QAUSAffectData@CPythonSkill@@AAU34@@Z DD 0ffffffffH
	DD	FLAT:__unwindfunclet$??$construct@USAffectData@CPythonSkill@@AAU12@@?$_Default_allocator_traits@V?$allocator@USAffectData@CPythonSkill@@@std@@@std@@SAXAAV?$allocator@USAffectData@CPythonSkill@@@1@QAUSAffectData@CPythonSkill@@AAU34@@Z$0
	DD	00H
	DD	FLAT:__unwindfunclet$??$construct@USAffectData@CPythonSkill@@AAU12@@?$_Default_allocator_traits@V?$allocator@USAffectData@CPythonSkill@@@std@@@std@@SAXAAV?$allocator@USAffectData@CPythonSkill@@@1@QAUSAffectData@CPythonSkill@@AAU34@@Z$1
__ehfuncinfo$??$construct@USAffectData@CPythonSkill@@AAU12@@?$_Default_allocator_traits@V?$allocator@USAffectData@CPythonSkill@@@std@@@std@@SAXAAV?$allocator@USAffectData@CPythonSkill@@@1@QAUSAffectData@CPythonSkill@@AAU34@@Z DD 019930522H
	DD	02H
	DD	FLAT:__unwindtable$??$construct@USAffectData@CPythonSkill@@AAU12@@?$_Default_allocator_traits@V?$allocator@USAffectData@CPythonSkill@@@std@@@std@@SAXAAV?$allocator@USAffectData@CPythonSkill@@@1@QAUSAffectData@CPythonSkill@@AAU34@@Z
	DD	2 DUP(00H)
	DD	2 DUP(00H)
	DD	00H
	DD	01H
xdata$x	ENDS
;	COMDAT xdata$x
xdata$x	SEGMENT
__unwindtable$??$construct@USAffectDataNew@CPythonSkill@@AAU12@@?$_Default_allocator_traits@V?$allocator@USAffectDataNew@CPythonSkill@@@std@@@std@@SAXAAV?$allocator@USAffectDataNew@CPythonSkill@@@1@QAUSAffectDataNew@CPythonSkill@@AAU34@@Z DD 0ffffffffH
	DD	FLAT:__unwindfunclet$??$construct@USAffectDataNew@CPythonSkill@@AAU12@@?$_Default_allocator_traits@V?$allocator@USAffectDataNew@CPythonSkill@@@std@@@std@@SAXAAV?$allocator@USAffectDataNew@CPythonSkill@@@1@QAUSAffectDataNew@CPythonSkill@@AAU34@@Z$0
__ehfuncinfo$??$construct@USAffectDataNew@CPythonSkill@@AAU12@@?$_Default_allocator_traits@V?$allocator@USAffectDataNew@CPythonSkill@@@std@@@std@@SAXAAV?$allocator@USAffectDataNew@CPythonSkill@@@1@QAUSAffectDataNew@CPythonSkill@@AAU34@@Z DD 019930522H
	DD	01H
	DD	FLAT:__unwindtable$??$construct@USAffectDataNew@CPythonSkill@@AAU12@@?$_Default_allocator_traits@V?$allocator@USAffectDataNew@CPythonSkill@@@std@@@std@@SAXAAV?$allocator@USAffectDataNew@CPythonSkill@@@1@QAUSAffectDataNew@CPythonSkill@@AAU34@@Z
	DD	2 DUP(00H)
	DD	2 DUP(00H)
	DD	00H
	DD	01H
xdata$x	ENDS
;	COMDAT xdata$x
xdata$x	SEGMENT
__unwindtable$??$_Emplace_back@AAUSAffectData@CPythonSkill@@@?$_Uninitialized_backout_al@V?$allocator@USAffectData@CPythonSkill@@@std@@@std@@QAEXAAUSAffectData@CPythonSkill@@@Z DD 0ffffffffH
	DD	FLAT:__unwindfunclet$??$_Emplace_back@AAUSAffectData@CPythonSkill@@@?$_Uninitialized_backout_al@V?$allocator@USAffectData@CPythonSkill@@@std@@@std@@QAEXAAUSAffectData@CPythonSkill@@@Z$0
	DD	00H
	DD	FLAT:__unwindfunclet$??$_Emplace_back@AAUSAffectData@CPythonSkill@@@?$_Uninitialized_backout_al@V?$allocator@USAffectData@CPythonSkill@@@std@@@std@@QAEXAAUSAffectData@CPythonSkill@@@Z$1
__ehfuncinfo$??$_Emplace_back@AAUSAffectData@CPythonSkill@@@?$_Uninitialized_backout_al@V?$allocator@USAffectData@CPythonSkill@@@std@@@std@@QAEXAAUSAffectData@CPythonSkill@@@Z DD 019930522H
	DD	02H
	DD	FLAT:__unwindtable$??$_Emplace_back@AAUSAffectData@CPythonSkill@@@?$_Uninitialized_backout_al@V?$allocator@USAffectData@CPythonSkill@@@std@@@std@@QAEXAAUSAffectData@CPythonSkill@@@Z
	DD	2 DUP(00H)
	DD	2 DUP(00H)
	DD	00H
	DD	01H
xdata$x	ENDS
;	COMDAT xdata$x
xdata$x	SEGMENT
__unwindtable$??$_Emplace_back@AAUSAffectDataNew@CPythonSkill@@@?$_Uninitialized_backout_al@V?$allocator@USAffectDataNew@CPythonSkill@@@std@@@std@@QAEXAAUSAffectDataNew@CPythonSkill@@@Z DD 0ffffffffH
	DD	FLAT:__unwindfunclet$??$_Emplace_back@AAUSAffectDataNew@CPythonSkill@@@?$_Uninitialized_backout_al@V?$allocator@USAffectDataNew@CPythonSkill@@@std@@@std@@QAEXAAUSAffectDataNew@CPythonSkill@@@Z$0
__ehfuncinfo$??$_Emplace_back@AAUSAffectDataNew@CPythonSkill@@@?$_Uninitialized_backout_al@V?$allocator@USAffectDataNew@CPythonSkill@@@std@@@std@@QAEXAAUSAffectDataNew@CPythonSkill@@@Z DD 019930522H
	DD	01H
	DD	FLAT:__unwindtable$??$_Emplace_back@AAUSAffectDataNew@CPythonSkill@@@?$_Uninitialized_backout_al@V?$allocator@USAffectDataNew@CPythonSkill@@@std@@@std@@QAEXAAUSAffectDataNew@CPythonSkill@@@Z
	DD	2 DUP(00H)
	DD	2 DUP(00H)
	DD	00H
	DD	01H
xdata$x	ENDS
;	COMDAT xdata$x
xdata$x	SEGMENT
__unwindtable$??$?0U?$pair@V?$basic_string@DU?$char_traits@D@std@@V?$allocator@D@2@@std@@V12@@std@@@?$_Tree_temp_node@V?$allocator@U?$_Tree_node@U?$pair@$$CBV?$basic_string@DU?$char_traits@D@std@@V?$allocator@D@2@@std@@V12@@std@@PAX@std@@@std@@@std@@QAE@AAV?$allocator@U?$_Tree_node@U?$pair@$$CBV?$basic_string@DU?$char_traits@D@std@@V?$allocator@D@2@@std@@V12@@std@@PAX@std@@@1@PAU?$_Tree_node@U?$pair@$$CBV?$basic_string@DU?$char_traits@D@std@@V?$allocator@D@2@@std@@V12@@std@@PAX@1@$$QAU?$pair@V?$basic_string@DU?$char_traits@D@std@@V?$allocator@D@2@@std@@V12@@1@@Z DD 0ffffffffH
	DD	FLAT:__unwindfunclet$??$?0U?$pair@V?$basic_string@DU?$char_traits@D@std@@V?$allocator@D@2@@std@@V12@@std@@@?$_Tree_temp_node@V?$allocator@U?$_Tree_node@U?$pair@$$CBV?$basic_string@DU?$char_traits@D@std@@V?$allocator@D@2@@std@@V12@@std@@PAX@std@@@std@@@std@@QAE@AAV?$allocator@U?$_Tree_node@U?$pair@$$CBV?$basic_string@DU?$char_traits@D@std@@V?$allocator@D@2@@std@@V12@@std@@PAX@std@@@1@PAU?$_Tree_node@U?$pair@$$CBV?$basic_string@DU?$char_traits@D@std@@V?$allocator@D@2@@std@@V12@@std@@PAX@1@$$QAU?$pair@V?$basic_string@DU?$char_traits@D@std@@V?$allocator@D@2@@std@@V12@@1@@Z$1
__ehfuncinfo$??$?0U?$pair@V?$basic_string@DU?$char_traits@D@std@@V?$allocator@D@2@@std@@V12@@std@@@?$_Tree_temp_node@V?$allocator@U?$_Tree_node@U?$pair@$$CBV?$basic_string@DU?$char_traits@D@std@@V?$allocator@D@2@@std@@V12@@std@@PAX@std@@@std@@@std@@QAE@AAV?$allocator@U?$_Tree_node@U?$pair@$$CBV?$basic_string@DU?$char_traits@D@std@@V?$allocator@D@2@@std@@V12@@std@@PAX@std@@@1@PAU?$_Tree_node@U?$pair@$$CBV?$basic_string@DU?$char_traits@D@std@@V?$allocator@D@2@@std@@V12@@std@@PAX@1@$$QAU?$pair@V?$basic_string@DU?$char_traits@D@std@@V?$allocator@D@2@@std@@V12@@1@@Z DD 019930522H
	DD	01H
	DD	FLAT:__unwindtable$??$?0U?$pair@V?$basic_string@DU?$char_traits@D@std@@V?$allocator@D@2@@std@@V12@@std@@@?$_Tree_temp_node@V?$allocator@U?$_Tree_node@U?$pair@$$CBV?$basic_string@DU?$char_traits@D@std@@V?$allocator@D@2@@std@@V12@@std@@PAX@std@@@std@@@std@@QAE@AAV?$allocator@U?$_Tree_node@U?$pair@$$CBV?$basic_string@DU?$char_traits@D@std@@V?$allocator@D@2@@std@@V12@@std@@PAX@std@@@1@PAU?$_Tree_node@U?$pair@$$CBV?$basic_string@DU?$char_traits@D@std@@V?$allocator@D@2@@std@@V12@@std@@PAX@1@$$QAU?$pair@V?$basic_string@DU?$char_traits@D@std@@V?$allocator@D@2@@std@@V12@@1@@Z
	DD	2 DUP(00H)
	DD	2 DUP(00H)
	DD	00H
	DD	01H
xdata$x	ENDS
;	COMDAT xdata$x
xdata$x	SEGMENT
__unwindtable$??$?0U?$pair@V?$basic_string@DU?$char_traits@D@std@@V?$allocator@D@2@@std@@W4EPointTypes@@@std@@@?$_Tree_temp_node@V?$allocator@U?$_Tree_node@U?$pair@$$CBV?$basic_string@DU?$char_traits@D@std@@V?$allocator@D@2@@std@@K@std@@PAX@std@@@std@@@std@@QAE@AAV?$allocator@U?$_Tree_node@U?$pair@$$CBV?$basic_string@DU?$char_traits@D@std@@V?$allocator@D@2@@std@@K@std@@PAX@std@@@1@PAU?$_Tree_node@U?$pair@$$CBV?$basic_string@DU?$char_traits@D@std@@V?$allocator@D@2@@std@@K@std@@PAX@1@$$QAU?$pair@V?$basic_string@DU?$char_traits@D@std@@V?$allocator@D@2@@std@@W4EPointTypes@@@1@@Z DD 0ffffffffH
	DD	FLAT:__unwindfunclet$??$?0U?$pair@V?$basic_string@DU?$char_traits@D@std@@V?$allocator@D@2@@std@@W4EPointTypes@@@std@@@?$_Tree_temp_node@V?$allocator@U?$_Tree_node@U?$pair@$$CBV?$basic_string@DU?$char_traits@D@std@@V?$allocator@D@2@@std@@K@std@@PAX@std@@@std@@@std@@QAE@AAV?$allocator@U?$_Tree_node@U?$pair@$$CBV?$basic_string@DU?$char_traits@D@std@@V?$allocator@D@2@@std@@K@std@@PAX@std@@@1@PAU?$_Tree_node@U?$pair@$$CBV?$basic_string@DU?$char_traits@D@std@@V?$allocator@D@2@@std@@K@std@@PAX@1@$$QAU?$pair@V?$basic_string@DU?$char_traits@D@std@@V?$allocator@D@2@@std@@W4EPointTypes@@@1@@Z$1
__ehfuncinfo$??$?0U?$pair@V?$basic_string@DU?$char_traits@D@std@@V?$allocator@D@2@@std@@W4EPointTypes@@@std@@@?$_Tree_temp_node@V?$allocator@U?$_Tree_node@U?$pair@$$CBV?$basic_string@DU?$char_traits@D@std@@V?$allocator@D@2@@std@@K@std@@PAX@std@@@std@@@std@@QAE@AAV?$allocator@U?$_Tree_node@U?$pair@$$CBV?$basic_string@DU?$char_traits@D@std@@V?$allocator@D@2@@std@@K@std@@PAX@std@@@1@PAU?$_Tree_node@U?$pair@$$CBV?$basic_string@DU?$char_traits@D@std@@V?$allocator@D@2@@std@@K@std@@PAX@1@$$QAU?$pair@V?$basic_string@DU?$char_traits@D@std@@V?$allocator@D@2@@std@@W4EPointTypes@@@1@@Z DD 019930522H
	DD	01H
	DD	FLAT:__unwindtable$??$?0U?$pair@V?$basic_string@DU?$char_traits@D@std@@V?$allocator@D@2@@std@@W4EPointTypes@@@std@@@?$_Tree_temp_node@V?$allocator@U?$_Tree_node@U?$pair@$$CBV?$basic_string@DU?$char_traits@D@std@@V?$allocator@D@2@@std@@K@std@@PAX@std@@@std@@@std@@QAE@AAV?$allocator@U?$_Tree_node@U?$pair@$$CBV?$basic_string@DU?$char_traits@D@std@@V?$allocator@D@2@@std@@K@std@@PAX@std@@@1@PAU?$_Tree_node@U?$pair@$$CBV?$basic_string@DU?$char_traits@D@std@@V?$allocator@D@2@@std@@K@std@@PAX@1@$$QAU?$pair@V?$basic_string@DU?$char_traits@D@std@@V?$allocator@D@2@@std@@W4EPointTypes@@@1@@Z
	DD	2 DUP(00H)
	DD	2 DUP(00H)
	DD	00H
	DD	01H
xdata$x	ENDS
;	COMDAT xdata$x
xdata$x	SEGMENT
__unwindtable$??$?0U?$pair@V?$basic_string@DU?$char_traits@D@std@@V?$allocator@D@2@@std@@W4EWeaponSubTypes@CItemData@@@std@@@?$_Tree_temp_node@V?$allocator@U?$_Tree_node@U?$pair@$$CBV?$basic_string@DU?$char_traits@D@std@@V?$allocator@D@2@@std@@K@std@@PAX@std@@@std@@@std@@QAE@AAV?$allocator@U?$_Tree_node@U?$pair@$$CBV?$basic_string@DU?$char_traits@D@std@@V?$allocator@D@2@@std@@K@std@@PAX@std@@@1@PAU?$_Tree_node@U?$pair@$$CBV?$basic_string@DU?$char_traits@D@std@@V?$allocator@D@2@@std@@K@std@@PAX@1@$$QAU?$pair@V?$basic_string@DU?$char_traits@D@std@@V?$allocator@D@2@@std@@W4EWeaponSubTypes@CItemData@@@1@@Z DD 0ffffffffH
	DD	FLAT:__unwindfunclet$??$?0U?$pair@V?$basic_string@DU?$char_traits@D@std@@V?$allocator@D@2@@std@@W4EWeaponSubTypes@CItemData@@@std@@@?$_Tree_temp_node@V?$allocator@U?$_Tree_node@U?$pair@$$CBV?$basic_string@DU?$char_traits@D@std@@V?$allocator@D@2@@std@@K@std@@PAX@std@@@std@@@std@@QAE@AAV?$allocator@U?$_Tree_node@U?$pair@$$CBV?$basic_string@DU?$char_traits@D@std@@V?$allocator@D@2@@std@@K@std@@PAX@std@@@1@PAU?$_Tree_node@U?$pair@$$CBV?$basic_string@DU?$char_traits@D@std@@V?$allocator@D@2@@std@@K@std@@PAX@1@$$QAU?$pair@V?$basic_string@DU?$char_traits@D@std@@V?$allocator@D@2@@std@@W4EWeaponSubTypes@CItemData@@@1@@Z$1
__ehfuncinfo$??$?0U?$pair@V?$basic_string@DU?$char_traits@D@std@@V?$allocator@D@2@@std@@W4EWeaponSubTypes@CItemData@@@std@@@?$_Tree_temp_node@V?$allocator@U?$_Tree_node@U?$pair@$$CBV?$basic_string@DU?$char_traits@D@std@@V?$allocator@D@2@@std@@K@std@@PAX@std@@@std@@@std@@QAE@AAV?$allocator@U?$_Tree_node@U?$pair@$$CBV?$basic_string@DU?$char_traits@D@std@@V?$allocator@D@2@@std@@K@std@@PAX@std@@@1@PAU?$_Tree_node@U?$pair@$$CBV?$basic_string@DU?$char_traits@D@std@@V?$allocator@D@2@@std@@K@std@@PAX@1@$$QAU?$pair@V?$basic_string@DU?$char_traits@D@std@@V?$allocator@D@2@@std@@W4EWeaponSubTypes@CItemData@@@1@@Z DD 019930522H
	DD	01H
	DD	FLAT:__unwindtable$??$?0U?$pair@V?$basic_string@DU?$char_traits@D@std@@V?$allocator@D@2@@std@@W4EWeaponSubTypes@CItemData@@@std@@@?$_Tree_temp_node@V?$allocator@U?$_Tree_node@U?$pair@$$CBV?$basic_string@DU?$char_traits@D@std@@V?$allocator@D@2@@std@@K@std@@PAX@std@@@std@@@std@@QAE@AAV?$allocator@U?$_Tree_node@U?$pair@$$CBV?$basic_string@DU?$char_traits@D@std@@V?$allocator@D@2@@std@@K@std@@PAX@std@@@1@PAU?$_Tree_node@U?$pair@$$CBV?$basic_string@DU?$char_traits@D@std@@V?$allocator@D@2@@std@@K@std@@PAX@1@$$QAU?$pair@V?$basic_string@DU?$char_traits@D@std@@V?$allocator@D@2@@std@@W4EWeaponSubTypes@CItemData@@@1@@Z
	DD	2 DUP(00H)
	DD	2 DUP(00H)
	DD	00H
	DD	01H
xdata$x	ENDS
;	COMDAT xdata$x
xdata$x	SEGMENT
__unwindtable$??$?0U?$pair@KUSSkillData@CPythonSkill@@@std@@@?$_Tree_temp_node@V?$allocator@U?$_Tree_node@U?$pair@$$CBKUSSkillData@CPythonSkill@@@std@@PAX@std@@@std@@@std@@QAE@AAV?$allocator@U?$_Tree_node@U?$pair@$$CBKUSSkillData@CPythonSkill@@@std@@PAX@std@@@1@PAU?$_Tree_node@U?$pair@$$CBKUSSkillData@CPythonSkill@@@std@@PAX@1@$$QAU?$pair@KUSSkillData@CPythonSkill@@@1@@Z DD 0ffffffffH
	DD	FLAT:__unwindfunclet$??$?0U?$pair@KUSSkillData@CPythonSkill@@@std@@@?$_Tree_temp_node@V?$allocator@U?$_Tree_node@U?$pair@$$CBKUSSkillData@CPythonSkill@@@std@@PAX@std@@@std@@@std@@QAE@AAV?$allocator@U?$_Tree_node@U?$pair@$$CBKUSSkillData@CPythonSkill@@@std@@PAX@std@@@1@PAU?$_Tree_node@U?$pair@$$CBKUSSkillData@CPythonSkill@@@std@@PAX@1@$$QAU?$pair@KUSSkillData@CPythonSkill@@@1@@Z$1
__ehfuncinfo$??$?0U?$pair@KUSSkillData@CPythonSkill@@@std@@@?$_Tree_temp_node@V?$allocator@U?$_Tree_node@U?$pair@$$CBKUSSkillData@CPythonSkill@@@std@@PAX@std@@@std@@@std@@QAE@AAV?$allocator@U?$_Tree_node@U?$pair@$$CBKUSSkillData@CPythonSkill@@@std@@PAX@std@@@1@PAU?$_Tree_node@U?$pair@$$CBKUSSkillData@CPythonSkill@@@std@@PAX@1@$$QAU?$pair@KUSSkillData@CPythonSkill@@@1@@Z DD 019930522H
	DD	01H
	DD	FLAT:__unwindtable$??$?0U?$pair@KUSSkillData@CPythonSkill@@@std@@@?$_Tree_temp_node@V?$allocator@U?$_Tree_node@U?$pair@$$CBKUSSkillData@CPythonSkill@@@std@@PAX@std@@@std@@@std@@QAE@AAV?$allocator@U?$_Tree_node@U?$pair@$$CBKUSSkillData@CPythonSkill@@@std@@PAX@std@@@1@PAU?$_Tree_node@U?$pair@$$CBKUSSkillData@CPythonSkill@@@std@@PAX@1@$$QAU?$pair@KUSSkillData@CPythonSkill@@@1@@Z
	DD	2 DUP(00H)
	DD	2 DUP(00H)
	DD	00H
	DD	01H
xdata$x	ENDS
;	COMDAT xdata$x
xdata$x	SEGMENT
__unwindtable$??$_Uninitialized_copy@PAV?$basic_string@DU?$char_traits@D@std@@V?$allocator@D@2@@std@@V?$allocator@V?$basic_string@DU?$char_traits@D@std@@V?$allocator@D@2@@std@@@2@@std@@YAPAV?$basic_string@DU?$char_traits@D@std@@V?$allocator@D@2@@0@QAV10@0PAV10@AAV?$allocator@V?$basic_string@DU?$char_traits@D@std@@V?$allocator@D@2@@std@@@0@@Z DD 0ffffffffH
	DD	FLAT:__unwindfunclet$??$_Uninitialized_copy@PAV?$basic_string@DU?$char_traits@D@std@@V?$allocator@D@2@@std@@V?$allocator@V?$basic_string@DU?$char_traits@D@std@@V?$allocator@D@2@@std@@@2@@std@@YAPAV?$basic_string@DU?$char_traits@D@std@@V?$allocator@D@2@@0@QAV10@0PAV10@AAV?$allocator@V?$basic_string@DU?$char_traits@D@std@@V?$allocator@D@2@@std@@@0@@Z$0
__ehfuncinfo$??$_Uninitialized_copy@PAV?$basic_string@DU?$char_traits@D@std@@V?$allocator@D@2@@std@@V?$allocator@V?$basic_string@DU?$char_traits@D@std@@V?$allocator@D@2@@std@@@2@@std@@YAPAV?$basic_string@DU?$char_traits@D@std@@V?$allocator@D@2@@0@QAV10@0PAV10@AAV?$allocator@V?$basic_string@DU?$char_traits@D@std@@V?$allocator@D@2@@std@@@0@@Z DD 019930522H
	DD	01H
	DD	FLAT:__unwindtable$??$_Uninitialized_copy@PAV?$basic_string@DU?$char_traits@D@std@@V?$allocator@D@2@@std@@V?$allocator@V?$basic_string@DU?$char_traits@D@std@@V?$allocator@D@2@@std@@@2@@std@@YAPAV?$basic_string@DU?$char_traits@D@std@@V?$allocator@D@2@@0@QAV10@0PAV10@AAV?$allocator@V?$basic_string@DU?$char_traits@D@std@@V?$allocator@D@2@@std@@@0@@Z
	DD	2 DUP(00H)
	DD	2 DUP(00H)
	DD	00H
	DD	01H
xdata$x	ENDS
;	COMDAT xdata$x
xdata$x	SEGMENT
__unwindtable$??$_Uninitialized_copy@PAUSAffectData@CPythonSkill@@V?$allocator@USAffectData@CPythonSkill@@@std@@@std@@YAPAUSAffectData@CPythonSkill@@QAU12@0PAU12@AAV?$allocator@USAffectData@CPythonSkill@@@0@@Z DD 0ffffffffH
	DD	FLAT:__unwindfunclet$??$_Uninitialized_copy@PAUSAffectData@CPythonSkill@@V?$allocator@USAffectData@CPythonSkill@@@std@@@std@@YAPAUSAffectData@CPythonSkill@@QAU12@0PAU12@AAV?$allocator@USAffectData@CPythonSkill@@@0@@Z$0
	DD	00H
	DD	FLAT:__unwindfunclet$??$_Uninitialized_copy@PAUSAffectData@CPythonSkill@@V?$allocator@USAffectData@CPythonSkill@@@std@@@std@@YAPAUSAffectData@CPythonSkill@@QAU12@0PAU12@AAV?$allocator@USAffectData@CPythonSkill@@@0@@Z$1
	DD	01H
	DD	FLAT:__unwindfunclet$??$_Uninitialized_copy@PAUSAffectData@CPythonSkill@@V?$allocator@USAffectData@CPythonSkill@@@std@@@std@@YAPAUSAffectData@CPythonSkill@@QAU12@0PAU12@AAV?$allocator@USAffectData@CPythonSkill@@@0@@Z$2
__ehfuncinfo$??$_Uninitialized_copy@PAUSAffectData@CPythonSkill@@V?$allocator@USAffectData@CPythonSkill@@@std@@@std@@YAPAUSAffectData@CPythonSkill@@QAU12@0PAU12@AAV?$allocator@USAffectData@CPythonSkill@@@0@@Z DD 019930522H
	DD	03H
	DD	FLAT:__unwindtable$??$_Uninitialized_copy@PAUSAffectData@CPythonSkill@@V?$allocator@USAffectData@CPythonSkill@@@std@@@std@@YAPAUSAffectData@CPythonSkill@@QAU12@0PAU12@AAV?$allocator@USAffectData@CPythonSkill@@@0@@Z
	DD	2 DUP(00H)
	DD	2 DUP(00H)
	DD	00H
	DD	01H
xdata$x	ENDS
;	COMDAT xdata$x
xdata$x	SEGMENT
__unwindtable$??$_Uninitialized_copy@PAUSAffectDataNew@CPythonSkill@@V?$allocator@USAffectDataNew@CPythonSkill@@@std@@@std@@YAPAUSAffectDataNew@CPythonSkill@@QAU12@0PAU12@AAV?$allocator@USAffectDataNew@CPythonSkill@@@0@@Z DD 0ffffffffH
	DD	FLAT:__unwindfunclet$??$_Uninitialized_copy@PAUSAffectDataNew@CPythonSkill@@V?$allocator@USAffectDataNew@CPythonSkill@@@std@@@std@@YAPAUSAffectDataNew@CPythonSkill@@QAU12@0PAU12@AAV?$allocator@USAffectDataNew@CPythonSkill@@@0@@Z$0
	DD	00H
	DD	FLAT:__unwindfunclet$??$_Uninitialized_copy@PAUSAffectDataNew@CPythonSkill@@V?$allocator@USAffectDataNew@CPythonSkill@@@std@@@std@@YAPAUSAffectDataNew@CPythonSkill@@QAU12@0PAU12@AAV?$allocator@USAffectDataNew@CPythonSkill@@@0@@Z$1
__ehfuncinfo$??$_Uninitialized_copy@PAUSAffectDataNew@CPythonSkill@@V?$allocator@USAffectDataNew@CPythonSkill@@@std@@@std@@YAPAUSAffectDataNew@CPythonSkill@@QAU12@0PAU12@AAV?$allocator@USAffectDataNew@CPythonSkill@@@0@@Z DD 019930522H
	DD	02H
	DD	FLAT:__unwindtable$??$_Uninitialized_copy@PAUSAffectDataNew@CPythonSkill@@V?$allocator@USAffectDataNew@CPythonSkill@@@std@@@std@@YAPAUSAffectDataNew@CPythonSkill@@QAU12@0PAU12@AAV?$allocator@USAffectDataNew@CPythonSkill@@@0@@Z
	DD	2 DUP(00H)
	DD	2 DUP(00H)
	DD	00H
	DD	01H
xdata$x	ENDS
;	COMDAT xdata$x
xdata$x	SEGMENT
__unwindtable$??$_Emplace@U?$pair@V?$basic_string@DU?$char_traits@D@std@@V?$allocator@D@2@@std@@V12@@std@@@?$_Tree@V?$_Tmap_traits@V?$basic_string@DU?$char_traits@D@std@@V?$allocator@D@2@@std@@V12@U?$less@V?$basic_string@DU?$char_traits@D@std@@V?$allocator@D@2@@std@@@2@V?$allocator@U?$pair@$$CBV?$basic_string@DU?$char_traits@D@std@@V?$allocator@D@2@@std@@V12@@std@@@2@$0A@@std@@@std@@IAE?AU?$pair@PAU?$_Tree_node@U?$pair@$$CBV?$basic_string@DU?$char_traits@D@std@@V?$allocator@D@2@@std@@V12@@std@@PAX@std@@_N@1@$$QAU?$pair@V?$basic_string@DU?$char_traits@D@std@@V?$allocator@D@2@@std@@V12@@1@@Z DD 0ffffffffH
	DD	FLAT:__unwindfunclet$??$_Emplace@U?$pair@V?$basic_string@DU?$char_traits@D@std@@V?$allocator@D@2@@std@@V12@@std@@@?$_Tree@V?$_Tmap_traits@V?$basic_string@DU?$char_traits@D@std@@V?$allocator@D@2@@std@@V12@U?$less@V?$basic_string@DU?$char_traits@D@std@@V?$allocator@D@2@@std@@@2@V?$allocator@U?$pair@$$CBV?$basic_string@DU?$char_traits@D@std@@V?$allocator@D@2@@std@@V12@@std@@@2@$0A@@std@@@std@@IAE?AU?$pair@PAU?$_Tree_node@U?$pair@$$CBV?$basic_string@DU?$char_traits@D@std@@V?$allocator@D@2@@std@@V12@@std@@PAX@std@@_N@1@$$QAU?$pair@V?$basic_string@DU?$char_traits@D@std@@V?$allocator@D@2@@std@@V12@@1@@Z$2
__ehfuncinfo$??$_Emplace@U?$pair@V?$basic_string@DU?$char_traits@D@std@@V?$allocator@D@2@@std@@V12@@std@@@?$_Tree@V?$_Tmap_traits@V?$basic_string@DU?$char_traits@D@std@@V?$allocator@D@2@@std@@V12@U?$less@V?$basic_string@DU?$char_traits@D@std@@V?$allocator@D@2@@std@@@2@V?$allocator@U?$pair@$$CBV?$basic_string@DU?$char_traits@D@std@@V?$allocator@D@2@@std@@V12@@std@@@2@$0A@@std@@@std@@IAE?AU?$pair@PAU?$_Tree_node@U?$pair@$$CBV?$basic_string@DU?$char_traits@D@std@@V?$allocator@D@2@@std@@V12@@std@@PAX@std@@_N@1@$$QAU?$pair@V?$basic_string@DU?$char_traits@D@std@@V?$allocator@D@2@@std@@V12@@1@@Z DD 019930522H
	DD	01H
	DD	FLAT:__unwindtable$??$_Emplace@U?$pair@V?$basic_string@DU?$char_traits@D@std@@V?$allocator@D@2@@std@@V12@@std@@@?$_Tree@V?$_Tmap_traits@V?$basic_string@DU?$char_traits@D@std@@V?$allocator@D@2@@std@@V12@U?$less@V?$basic_string@DU?$char_traits@D@std@@V?$allocator@D@2@@std@@@2@V?$allocator@U?$pair@$$CBV?$basic_string@DU?$char_traits@D@std@@V?$allocator@D@2@@std@@V12@@std@@@2@$0A@@std@@@std@@IAE?AU?$pair@PAU?$_Tree_node@U?$pair@$$CBV?$basic_string@DU?$char_traits@D@std@@V?$allocator@D@2@@std@@V12@@std@@PAX@std@@_N@1@$$QAU?$pair@V?$basic_string@DU?$char_traits@D@std@@V?$allocator@D@2@@std@@V12@@1@@Z
	DD	2 DUP(00H)
	DD	2 DUP(00H)
	DD	00H
	DD	01H
xdata$x	ENDS
;	COMDAT xdata$x
xdata$x	SEGMENT
__unwindtable$??$_Emplace@U?$pair@V?$basic_string@DU?$char_traits@D@std@@V?$allocator@D@2@@std@@W4EPointTypes@@@std@@@?$_Tree@V?$_Tmap_traits@V?$basic_string@DU?$char_traits@D@std@@V?$allocator@D@2@@std@@KU?$less@V?$basic_string@DU?$char_traits@D@std@@V?$allocator@D@2@@std@@@2@V?$allocator@U?$pair@$$CBV?$basic_string@DU?$char_traits@D@std@@V?$allocator@D@2@@std@@K@std@@@2@$0A@@std@@@std@@IAE?AU?$pair@PAU?$_Tree_node@U?$pair@$$CBV?$basic_string@DU?$char_traits@D@std@@V?$allocator@D@2@@std@@K@std@@PAX@std@@_N@1@$$QAU?$pair@V?$basic_string@DU?$char_traits@D@std@@V?$allocator@D@2@@std@@W4EPointTypes@@@1@@Z DD 0ffffffffH
	DD	FLAT:__unwindfunclet$??$_Emplace@U?$pair@V?$basic_string@DU?$char_traits@D@std@@V?$allocator@D@2@@std@@W4EPointTypes@@@std@@@?$_Tree@V?$_Tmap_traits@V?$basic_string@DU?$char_traits@D@std@@V?$allocator@D@2@@std@@KU?$less@V?$basic_string@DU?$char_traits@D@std@@V?$allocator@D@2@@std@@@2@V?$allocator@U?$pair@$$CBV?$basic_string@DU?$char_traits@D@std@@V?$allocator@D@2@@std@@K@std@@@2@$0A@@std@@@std@@IAE?AU?$pair@PAU?$_Tree_node@U?$pair@$$CBV?$basic_string@DU?$char_traits@D@std@@V?$allocator@D@2@@std@@K@std@@PAX@std@@_N@1@$$QAU?$pair@V?$basic_string@DU?$char_traits@D@std@@V?$allocator@D@2@@std@@W4EPointTypes@@@1@@Z$2
__ehfuncinfo$??$_Emplace@U?$pair@V?$basic_string@DU?$char_traits@D@std@@V?$allocator@D@2@@std@@W4EPointTypes@@@std@@@?$_Tree@V?$_Tmap_traits@V?$basic_string@DU?$char_traits@D@std@@V?$allocator@D@2@@std@@KU?$less@V?$basic_string@DU?$char_traits@D@std@@V?$allocator@D@2@@std@@@2@V?$allocator@U?$pair@$$CBV?$basic_string@DU?$char_traits@D@std@@V?$allocator@D@2@@std@@K@std@@@2@$0A@@std@@@std@@IAE?AU?$pair@PAU?$_Tree_node@U?$pair@$$CBV?$basic_string@DU?$char_traits@D@std@@V?$allocator@D@2@@std@@K@std@@PAX@std@@_N@1@$$QAU?$pair@V?$basic_string@DU?$char_traits@D@std@@V?$allocator@D@2@@std@@W4EPointTypes@@@1@@Z DD 019930522H
	DD	01H
	DD	FLAT:__unwindtable$??$_Emplace@U?$pair@V?$basic_string@DU?$char_traits@D@std@@V?$allocator@D@2@@std@@W4EPointTypes@@@std@@@?$_Tree@V?$_Tmap_traits@V?$basic_string@DU?$char_traits@D@std@@V?$allocator@D@2@@std@@KU?$less@V?$basic_string@DU?$char_traits@D@std@@V?$allocator@D@2@@std@@@2@V?$allocator@U?$pair@$$CBV?$basic_string@DU?$char_traits@D@std@@V?$allocator@D@2@@std@@K@std@@@2@$0A@@std@@@std@@IAE?AU?$pair@PAU?$_Tree_node@U?$pair@$$CBV?$basic_string@DU?$char_traits@D@std@@V?$allocator@D@2@@std@@K@std@@PAX@std@@_N@1@$$QAU?$pair@V?$basic_string@DU?$char_traits@D@std@@V?$allocator@D@2@@std@@W4EPointTypes@@@1@@Z
	DD	2 DUP(00H)
	DD	2 DUP(00H)
	DD	00H
	DD	01H
xdata$x	ENDS
;	COMDAT xdata$x
xdata$x	SEGMENT
__unwindtable$??$_Emplace@U?$pair@V?$basic_string@DU?$char_traits@D@std@@V?$allocator@D@2@@std@@W4EWeaponSubTypes@CItemData@@@std@@@?$_Tree@V?$_Tmap_traits@V?$basic_string@DU?$char_traits@D@std@@V?$allocator@D@2@@std@@KU?$less@V?$basic_string@DU?$char_traits@D@std@@V?$allocator@D@2@@std@@@2@V?$allocator@U?$pair@$$CBV?$basic_string@DU?$char_traits@D@std@@V?$allocator@D@2@@std@@K@std@@@2@$0A@@std@@@std@@IAE?AU?$pair@PAU?$_Tree_node@U?$pair@$$CBV?$basic_string@DU?$char_traits@D@std@@V?$allocator@D@2@@std@@K@std@@PAX@std@@_N@1@$$QAU?$pair@V?$basic_string@DU?$char_traits@D@std@@V?$allocator@D@2@@std@@W4EWeaponSubTypes@CItemData@@@1@@Z DD 0ffffffffH
	DD	FLAT:__unwindfunclet$??$_Emplace@U?$pair@V?$basic_string@DU?$char_traits@D@std@@V?$allocator@D@2@@std@@W4EWeaponSubTypes@CItemData@@@std@@@?$_Tree@V?$_Tmap_traits@V?$basic_string@DU?$char_traits@D@std@@V?$allocator@D@2@@std@@KU?$less@V?$basic_string@DU?$char_traits@D@std@@V?$allocator@D@2@@std@@@2@V?$allocator@U?$pair@$$CBV?$basic_string@DU?$char_traits@D@std@@V?$allocator@D@2@@std@@K@std@@@2@$0A@@std@@@std@@IAE?AU?$pair@PAU?$_Tree_node@U?$pair@$$CBV?$basic_string@DU?$char_traits@D@std@@V?$allocator@D@2@@std@@K@std@@PAX@std@@_N@1@$$QAU?$pair@V?$basic_string@DU?$char_traits@D@std@@V?$allocator@D@2@@std@@W4EWeaponSubTypes@CItemData@@@1@@Z$2
__ehfuncinfo$??$_Emplace@U?$pair@V?$basic_string@DU?$char_traits@D@std@@V?$allocator@D@2@@std@@W4EWeaponSubTypes@CItemData@@@std@@@?$_Tree@V?$_Tmap_traits@V?$basic_string@DU?$char_traits@D@std@@V?$allocator@D@2@@std@@KU?$less@V?$basic_string@DU?$char_traits@D@std@@V?$allocator@D@2@@std@@@2@V?$allocator@U?$pair@$$CBV?$basic_string@DU?$char_traits@D@std@@V?$allocator@D@2@@std@@K@std@@@2@$0A@@std@@@std@@IAE?AU?$pair@PAU?$_Tree_node@U?$pair@$$CBV?$basic_string@DU?$char_traits@D@std@@V?$allocator@D@2@@std@@K@std@@PAX@std@@_N@1@$$QAU?$pair@V?$basic_string@DU?$char_traits@D@std@@V?$allocator@D@2@@std@@W4EWeaponSubTypes@CItemData@@@1@@Z DD 019930522H
	DD	01H
	DD	FLAT:__unwindtable$??$_Emplace@U?$pair@V?$basic_string@DU?$char_traits@D@std@@V?$allocator@D@2@@std@@W4EWeaponSubTypes@CItemData@@@std@@@?$_Tree@V?$_Tmap_traits@V?$basic_string@DU?$char_traits@D@std@@V?$allocator@D@2@@std@@KU?$less@V?$basic_string@DU?$char_traits@D@std@@V?$allocator@D@2@@std@@@2@V?$allocator@U?$pair@$$CBV?$basic_string@DU?$char_traits@D@std@@V?$allocator@D@2@@std@@K@std@@@2@$0A@@std@@@std@@IAE?AU?$pair@PAU?$_Tree_node@U?$pair@$$CBV?$basic_string@DU?$char_traits@D@std@@V?$allocator@D@2@@std@@K@std@@PAX@std@@_N@1@$$QAU?$pair@V?$basic_string@DU?$char_traits@D@std@@V?$allocator@D@2@@std@@W4EWeaponSubTypes@CItemData@@@1@@Z
	DD	2 DUP(00H)
	DD	2 DUP(00H)
	DD	00H
	DD	01H
xdata$x	ENDS
;	COMDAT xdata$x
xdata$x	SEGMENT
__unwindtable$??$?0U?$pair@$$CBV?$basic_string@DU?$char_traits@D@std@@V?$allocator@D@2@@std@@K@std@@@?$_Tree_temp_node@V?$allocator@U?$_Tree_node@U?$pair@$$CBV?$basic_string@DU?$char_traits@D@std@@V?$allocator@D@2@@std@@K@std@@PAX@std@@@std@@@std@@QAE@AAV?$allocator@U?$_Tree_node@U?$pair@$$CBV?$basic_string@DU?$char_traits@D@std@@V?$allocator@D@2@@std@@K@std@@PAX@std@@@1@PAU?$_Tree_node@U?$pair@$$CBV?$basic_string@DU?$char_traits@D@std@@V?$allocator@D@2@@std@@K@std@@PAX@1@$$QAU?$pair@$$CBV?$basic_string@DU?$char_traits@D@std@@V?$allocator@D@2@@std@@K@1@@Z DD 0ffffffffH
	DD	FLAT:__unwindfunclet$??$?0U?$pair@$$CBV?$basic_string@DU?$char_traits@D@std@@V?$allocator@D@2@@std@@K@std@@@?$_Tree_temp_node@V?$allocator@U?$_Tree_node@U?$pair@$$CBV?$basic_string@DU?$char_traits@D@std@@V?$allocator@D@2@@std@@K@std@@PAX@std@@@std@@@std@@QAE@AAV?$allocator@U?$_Tree_node@U?$pair@$$CBV?$basic_string@DU?$char_traits@D@std@@V?$allocator@D@2@@std@@K@std@@PAX@std@@@1@PAU?$_Tree_node@U?$pair@$$CBV?$basic_string@DU?$char_traits@D@std@@V?$allocator@D@2@@std@@K@std@@PAX@1@$$QAU?$pair@$$CBV?$basic_string@DU?$char_traits@D@std@@V?$allocator@D@2@@std@@K@1@@Z$1
	DD	0ffffffffH
	DD	FLAT:__unwindfunclet$??$?0U?$pair@$$CBV?$basic_string@DU?$char_traits@D@std@@V?$allocator@D@2@@std@@K@std@@@?$_Tree_temp_node@V?$allocator@U?$_Tree_node@U?$pair@$$CBV?$basic_string@DU?$char_traits@D@std@@V?$allocator@D@2@@std@@K@std@@PAX@std@@@std@@@std@@QAE@AAV?$allocator@U?$_Tree_node@U?$pair@$$CBV?$basic_string@DU?$char_traits@D@std@@V?$allocator@D@2@@std@@K@std@@PAX@std@@@1@PAU?$_Tree_node@U?$pair@$$CBV?$basic_string@DU?$char_traits@D@std@@V?$allocator@D@2@@std@@K@std@@PAX@1@$$QAU?$pair@$$CBV?$basic_string@DU?$char_traits@D@std@@V?$allocator@D@2@@std@@K@1@@Z$0
__ehfuncinfo$??$?0U?$pair@$$CBV?$basic_string@DU?$char_traits@D@std@@V?$allocator@D@2@@std@@K@std@@@?$_Tree_temp_node@V?$allocator@U?$_Tree_node@U?$pair@$$CBV?$basic_string@DU?$char_traits@D@std@@V?$allocator@D@2@@std@@K@std@@PAX@std@@@std@@@std@@QAE@AAV?$allocator@U?$_Tree_node@U?$pair@$$CBV?$basic_string@DU?$char_traits@D@std@@V?$allocator@D@2@@std@@K@std@@PAX@std@@@1@PAU?$_Tree_node@U?$pair@$$CBV?$basic_string@DU?$char_traits@D@std@@V?$allocator@D@2@@std@@K@std@@PAX@1@$$QAU?$pair@$$CBV?$basic_string@DU?$char_traits@D@std@@V?$allocator@D@2@@std@@K@1@@Z DD 019930522H
	DD	02H
	DD	FLAT:__unwindtable$??$?0U?$pair@$$CBV?$basic_string@DU?$char_traits@D@std@@V?$allocator@D@2@@std@@K@std@@@?$_Tree_temp_node@V?$allocator@U?$_Tree_node@U?$pair@$$CBV?$basic_string@DU?$char_traits@D@std@@V?$allocator@D@2@@std@@K@std@@PAX@std@@@std@@@std@@QAE@AAV?$allocator@U?$_Tree_node@U?$pair@$$CBV?$basic_string@DU?$char_traits@D@std@@V?$allocator@D@2@@std@@K@std@@PAX@std@@@1@PAU?$_Tree_node@U?$pair@$$CBV?$basic_string@DU?$char_traits@D@std@@V?$allocator@D@2@@std@@K@std@@PAX@1@$$QAU?$pair@$$CBV?$basic_string@DU?$char_traits@D@std@@V?$allocator@D@2@@std@@K@1@@Z
	DD	2 DUP(00H)
	DD	2 DUP(00H)
	DD	00H
	DD	01H
xdata$x	ENDS
;	COMDAT xdata$x
xdata$x	SEGMENT
__unwindtable$??0?$_Tree_temp_node_alloc@V?$allocator@U?$_Tree_node@U?$pair@$$CBV?$basic_string@DU?$char_traits@D@std@@V?$allocator@D@2@@std@@K@std@@PAX@std@@@std@@@std@@QAE@AAV?$allocator@U?$_Tree_node@U?$pair@$$CBV?$basic_string@DU?$char_traits@D@std@@V?$allocator@D@2@@std@@K@std@@PAX@std@@@1@@Z DD 0ffffffffH
	DD	FLAT:__unwindfunclet$??0?$_Tree_temp_node_alloc@V?$allocator@U?$_Tree_node@U?$pair@$$CBV?$basic_string@DU?$char_traits@D@std@@V?$allocator@D@2@@std@@K@std@@PAX@std@@@std@@@std@@QAE@AAV?$allocator@U?$_Tree_node@U?$pair@$$CBV?$basic_string@DU?$char_traits@D@std@@V?$allocator@D@2@@std@@K@std@@PAX@std@@@1@@Z$0
__ehfuncinfo$??0?$_Tree_temp_node_alloc@V?$allocator@U?$_Tree_node@U?$pair@$$CBV?$basic_string@DU?$char_traits@D@std@@V?$allocator@D@2@@std@@K@std@@PAX@std@@@std@@@std@@QAE@AAV?$allocator@U?$_Tree_node@U?$pair@$$CBV?$basic_string@DU?$char_traits@D@std@@V?$allocator@D@2@@std@@K@std@@PAX@std@@@1@@Z DD 019930522H
	DD	01H
	DD	FLAT:__unwindtable$??0?$_Tree_temp_node_alloc@V?$allocator@U?$_Tree_node@U?$pair@$$CBV?$basic_string@DU?$char_traits@D@std@@V?$allocator@D@2@@std@@K@std@@PAX@std@@@std@@@std@@QAE@AAV?$allocator@U?$_Tree_node@U?$pair@$$CBV?$basic_string@DU?$char_traits@D@std@@V?$allocator@D@2@@std@@K@std@@PAX@std@@@1@@Z
	DD	2 DUP(00H)
	DD	2 DUP(00H)
	DD	00H
	DD	01H
xdata$x	ENDS
;	COMDAT xdata$x
xdata$x	SEGMENT
__unwindtable$??$?0U?$pair@$$CBKUSSkillData@CPythonSkill@@@std@@@?$_Tree_temp_node@V?$allocator@U?$_Tree_node@U?$pair@$$CBKUSSkillData@CPythonSkill@@@std@@PAX@std@@@std@@@std@@QAE@AAV?$allocator@U?$_Tree_node@U?$pair@$$CBKUSSkillData@CPythonSkill@@@std@@PAX@std@@@1@PAU?$_Tree_node@U?$pair@$$CBKUSSkillData@CPythonSkill@@@std@@PAX@1@$$QAU?$pair@$$CBKUSSkillData@CPythonSkill@@@1@@Z DD 0ffffffffH
	DD	FLAT:__unwindfunclet$??$?0U?$pair@$$CBKUSSkillData@CPythonSkill@@@std@@@?$_Tree_temp_node@V?$allocator@U?$_Tree_node@U?$pair@$$CBKUSSkillData@CPythonSkill@@@std@@PAX@std@@@std@@@std@@QAE@AAV?$allocator@U?$_Tree_node@U?$pair@$$CBKUSSkillData@CPythonSkill@@@std@@PAX@std@@@1@PAU?$_Tree_node@U?$pair@$$CBKUSSkillData@CPythonSkill@@@std@@PAX@1@$$QAU?$pair@$$CBKUSSkillData@CPythonSkill@@@1@@Z$1
__ehfuncinfo$??$?0U?$pair@$$CBKUSSkillData@CPythonSkill@@@std@@@?$_Tree_temp_node@V?$allocator@U?$_Tree_node@U?$pair@$$CBKUSSkillData@CPythonSkill@@@std@@PAX@std@@@std@@@std@@QAE@AAV?$allocator@U?$_Tree_node@U?$pair@$$CBKUSSkillData@CPythonSkill@@@std@@PAX@std@@@1@PAU?$_Tree_node@U?$pair@$$CBKUSSkillData@CPythonSkill@@@std@@PAX@1@$$QAU?$pair@$$CBKUSSkillData@CPythonSkill@@@1@@Z DD 019930522H
	DD	01H
	DD	FLAT:__unwindtable$??$?0U?$pair@$$CBKUSSkillData@CPythonSkill@@@std@@@?$_Tree_temp_node@V?$allocator@U?$_Tree_node@U?$pair@$$CBKUSSkillData@CPythonSkill@@@std@@PAX@std@@@std@@@std@@QAE@AAV?$allocator@U?$_Tree_node@U?$pair@$$CBKUSSkillData@CPythonSkill@@@std@@PAX@std@@@1@PAU?$_Tree_node@U?$pair@$$CBKUSSkillData@CPythonSkill@@@std@@PAX@1@$$QAU?$pair@$$CBKUSSkillData@CPythonSkill@@@1@@Z
	DD	2 DUP(00H)
	DD	2 DUP(00H)
	DD	00H
	DD	01H
xdata$x	ENDS
;	COMDAT xdata$x
xdata$x	SEGMENT
__unwindtable$??$_Emplace@U?$pair@KUSSkillData@CPythonSkill@@@std@@@?$_Tree@V?$_Tmap_traits@KUSSkillData@CPythonSkill@@U?$less@K@std@@V?$allocator@U?$pair@$$CBKUSSkillData@CPythonSkill@@@std@@@4@$0A@@std@@@std@@IAE?AU?$pair@PAU?$_Tree_node@U?$pair@$$CBKUSSkillData@CPythonSkill@@@std@@PAX@std@@_N@1@$$QAU?$pair@KUSSkillData@CPythonSkill@@@1@@Z DD 0ffffffffH
	DD	FLAT:__unwindfunclet$??$_Emplace@U?$pair@KUSSkillData@CPythonSkill@@@std@@@?$_Tree@V?$_Tmap_traits@KUSSkillData@CPythonSkill@@U?$less@K@std@@V?$allocator@U?$pair@$$CBKUSSkillData@CPythonSkill@@@std@@@4@$0A@@std@@@std@@IAE?AU?$pair@PAU?$_Tree_node@U?$pair@$$CBKUSSkillData@CPythonSkill@@@std@@PAX@std@@_N@1@$$QAU?$pair@KUSSkillData@CPythonSkill@@@1@@Z$2
__ehfuncinfo$??$_Emplace@U?$pair@KUSSkillData@CPythonSkill@@@std@@@?$_Tree@V?$_Tmap_traits@KUSSkillData@CPythonSkill@@U?$less@K@std@@V?$allocator@U?$pair@$$CBKUSSkillData@CPythonSkill@@@std@@@4@$0A@@std@@@std@@IAE?AU?$pair@PAU?$_Tree_node@U?$pair@$$CBKUSSkillData@CPythonSkill@@@std@@PAX@std@@_N@1@$$QAU?$pair@KUSSkillData@CPythonSkill@@@1@@Z DD 019930522H
	DD	01H
	DD	FLAT:__unwindtable$??$_Emplace@U?$pair@KUSSkillData@CPythonSkill@@@std@@@?$_Tree@V?$_Tmap_traits@KUSSkillData@CPythonSkill@@U?$less@K@std@@V?$allocator@U?$pair@$$CBKUSSkillData@CPythonSkill@@@std@@@4@$0A@@std@@@std@@IAE?AU?$pair@PAU?$_Tree_node@U?$pair@$$CBKUSSkillData@CPythonSkill@@@std@@PAX@std@@_N@1@$$QAU?$pair@KUSSkillData@CPythonSkill@@@1@@Z
	DD	2 DUP(00H)
	DD	2 DUP(00H)
	DD	00H
	DD	01H
xdata$x	ENDS
;	COMDAT xdata$x
xdata$x	SEGMENT
__unwindtable$??$?0ABUpiecewise_construct_t@std@@V?$tuple@ABK@1@V?$tuple@$$V@1@@?$_Tree_temp_node@V?$allocator@U?$_Tree_node@U?$pair@$$CBKUSSkillData@CPythonSkill@@@std@@PAX@std@@@std@@@std@@QAE@AAV?$allocator@U?$_Tree_node@U?$pair@$$CBKUSSkillData@CPythonSkill@@@std@@PAX@std@@@1@PAU?$_Tree_node@U?$pair@$$CBKUSSkillData@CPythonSkill@@@std@@PAX@1@ABUpiecewise_construct_t@1@$$QAV?$tuple@ABK@1@$$QAV?$tuple@$$V@1@@Z DD 0ffffffffH
	DD	FLAT:__unwindfunclet$??$?0ABUpiecewise_construct_t@std@@V?$tuple@ABK@1@V?$tuple@$$V@1@@?$_Tree_temp_node@V?$allocator@U?$_Tree_node@U?$pair@$$CBKUSSkillData@CPythonSkill@@@std@@PAX@std@@@std@@@std@@QAE@AAV?$allocator@U?$_Tree_node@U?$pair@$$CBKUSSkillData@CPythonSkill@@@std@@PAX@std@@@1@PAU?$_Tree_node@U?$pair@$$CBKUSSkillData@CPythonSkill@@@std@@PAX@1@ABUpiecewise_construct_t@1@$$QAV?$tuple@ABK@1@$$QAV?$tuple@$$V@1@@Z$1
	DD	0ffffffffH
	DD	FLAT:__unwindfunclet$??$?0ABUpiecewise_construct_t@std@@V?$tuple@ABK@1@V?$tuple@$$V@1@@?$_Tree_temp_node@V?$allocator@U?$_Tree_node@U?$pair@$$CBKUSSkillData@CPythonSkill@@@std@@PAX@std@@@std@@@std@@QAE@AAV?$allocator@U?$_Tree_node@U?$pair@$$CBKUSSkillData@CPythonSkill@@@std@@PAX@std@@@1@PAU?$_Tree_node@U?$pair@$$CBKUSSkillData@CPythonSkill@@@std@@PAX@1@ABUpiecewise_construct_t@1@$$QAV?$tuple@ABK@1@$$QAV?$tuple@$$V@1@@Z$0
__ehfuncinfo$??$?0ABUpiecewise_construct_t@std@@V?$tuple@ABK@1@V?$tuple@$$V@1@@?$_Tree_temp_node@V?$allocator@U?$_Tree_node@U?$pair@$$CBKUSSkillData@CPythonSkill@@@std@@PAX@std@@@std@@@std@@QAE@AAV?$allocator@U?$_Tree_node@U?$pair@$$CBKUSSkillData@CPythonSkill@@@std@@PAX@std@@@1@PAU?$_Tree_node@U?$pair@$$CBKUSSkillData@CPythonSkill@@@std@@PAX@1@ABUpiecewise_construct_t@1@$$QAV?$tuple@ABK@1@$$QAV?$tuple@$$V@1@@Z DD 019930522H
	DD	02H
	DD	FLAT:__unwindtable$??$?0ABUpiecewise_construct_t@std@@V?$tuple@ABK@1@V?$tuple@$$V@1@@?$_Tree_temp_node@V?$allocator@U?$_Tree_node@U?$pair@$$CBKUSSkillData@CPythonSkill@@@std@@PAX@std@@@std@@@std@@QAE@AAV?$allocator@U?$_Tree_node@U?$pair@$$CBKUSSkillData@CPythonSkill@@@std@@PAX@std@@@1@PAU?$_Tree_node@U?$pair@$$CBKUSSkillData@CPythonSkill@@@std@@PAX@1@ABUpiecewise_construct_t@1@$$QAV?$tuple@ABK@1@$$QAV?$tuple@$$V@1@@Z
	DD	2 DUP(00H)
	DD	2 DUP(00H)
	DD	00H
	DD	01H
xdata$x	ENDS
;	COMDAT xdata$x
xdata$x	SEGMENT
__unwindtable$??0?$_Tree_temp_node_alloc@V?$allocator@U?$_Tree_node@U?$pair@$$CBKUSSkillData@CPythonSkill@@@std@@PAX@std@@@std@@@std@@QAE@AAV?$allocator@U?$_Tree_node@U?$pair@$$CBKUSSkillData@CPythonSkill@@@std@@PAX@std@@@1@@Z DD 0ffffffffH
	DD	FLAT:__unwindfunclet$??0?$_Tree_temp_node_alloc@V?$allocator@U?$_Tree_node@U?$pair@$$CBKUSSkillData@CPythonSkill@@@std@@PAX@std@@@std@@@std@@QAE@AAV?$allocator@U?$_Tree_node@U?$pair@$$CBKUSSkillData@CPythonSkill@@@std@@PAX@std@@@1@@Z$0
__ehfuncinfo$??0?$_Tree_temp_node_alloc@V?$allocator@U?$_Tree_node@U?$pair@$$CBKUSSkillData@CPythonSkill@@@std@@PAX@std@@@std@@@std@@QAE@AAV?$allocator@U?$_Tree_node@U?$pair@$$CBKUSSkillData@CPythonSkill@@@std@@PAX@std@@@1@@Z DD 019930522H
	DD	01H
	DD	FLAT:__unwindtable$??0?$_Tree_temp_node_alloc@V?$allocator@U?$_Tree_node@U?$pair@$$CBKUSSkillData@CPythonSkill@@@std@@PAX@std@@@std@@@std@@QAE@AAV?$allocator@U?$_Tree_node@U?$pair@$$CBKUSSkillData@CPythonSkill@@@std@@PAX@std@@@1@@Z
	DD	2 DUP(00H)
	DD	2 DUP(00H)
	DD	00H
	DD	01H
xdata$x	ENDS
;	COMDAT xdata$x
xdata$x	SEGMENT
__unwindtable$??$?0ABUpiecewise_construct_t@std@@V?$tuple@ABV?$basic_string@DU?$char_traits@D@std@@V?$allocator@D@2@@std@@@1@V?$tuple@$$V@1@@?$_Tree_temp_node@V?$allocator@U?$_Tree_node@U?$pair@$$CBV?$basic_string@DU?$char_traits@D@std@@V?$allocator@D@2@@std@@V12@@std@@PAX@std@@@std@@@std@@QAE@AAV?$allocator@U?$_Tree_node@U?$pair@$$CBV?$basic_string@DU?$char_traits@D@std@@V?$allocator@D@2@@std@@V12@@std@@PAX@std@@@1@PAU?$_Tree_node@U?$pair@$$CBV?$basic_string@DU?$char_traits@D@std@@V?$allocator@D@2@@std@@V12@@std@@PAX@1@ABUpiecewise_construct_t@1@$$QAV?$tuple@ABV?$basic_string@DU?$char_traits@D@std@@V?$allocator@D@2@@std@@@1@$$QAV?$tuple@$$V@1@@Z DD 0ffffffffH
	DD	FLAT:__unwindfunclet$??$?0ABUpiecewise_construct_t@std@@V?$tuple@ABV?$basic_string@DU?$char_traits@D@std@@V?$allocator@D@2@@std@@@1@V?$tuple@$$V@1@@?$_Tree_temp_node@V?$allocator@U?$_Tree_node@U?$pair@$$CBV?$basic_string@DU?$char_traits@D@std@@V?$allocator@D@2@@std@@V12@@std@@PAX@std@@@std@@@std@@QAE@AAV?$allocator@U?$_Tree_node@U?$pair@$$CBV?$basic_string@DU?$char_traits@D@std@@V?$allocator@D@2@@std@@V12@@std@@PAX@std@@@1@PAU?$_Tree_node@U?$pair@$$CBV?$basic_string@DU?$char_traits@D@std@@V?$allocator@D@2@@std@@V12@@std@@PAX@1@ABUpiecewise_construct_t@1@$$QAV?$tuple@ABV?$basic_string@DU?$char_traits@D@std@@V?$allocator@D@2@@std@@@1@$$QAV?$tuple@$$V@1@@Z$1
	DD	0ffffffffH
	DD	FLAT:__unwindfunclet$??$?0ABUpiecewise_construct_t@std@@V?$tuple@ABV?$basic_string@DU?$char_traits@D@std@@V?$allocator@D@2@@std@@@1@V?$tuple@$$V@1@@?$_Tree_temp_node@V?$allocator@U?$_Tree_node@U?$pair@$$CBV?$basic_string@DU?$char_traits@D@std@@V?$allocator@D@2@@std@@V12@@std@@PAX@std@@@std@@@std@@QAE@AAV?$allocator@U?$_Tree_node@U?$pair@$$CBV?$basic_string@DU?$char_traits@D@std@@V?$allocator@D@2@@std@@V12@@std@@PAX@std@@@1@PAU?$_Tree_node@U?$pair@$$CBV?$basic_string@DU?$char_traits@D@std@@V?$allocator@D@2@@std@@V12@@std@@PAX@1@ABUpiecewise_construct_t@1@$$QAV?$tuple@ABV?$basic_string@DU?$char_traits@D@std@@V?$allocator@D@2@@std@@@1@$$QAV?$tuple@$$V@1@@Z$0
__ehfuncinfo$??$?0ABUpiecewise_construct_t@std@@V?$tuple@ABV?$basic_string@DU?$char_traits@D@std@@V?$allocator@D@2@@std@@@1@V?$tuple@$$V@1@@?$_Tree_temp_node@V?$allocator@U?$_Tree_node@U?$pair@$$CBV?$basic_string@DU?$char_traits@D@std@@V?$allocator@D@2@@std@@V12@@std@@PAX@std@@@std@@@std@@QAE@AAV?$allocator@U?$_Tree_node@U?$pair@$$CBV?$basic_string@DU?$char_traits@D@std@@V?$allocator@D@2@@std@@V12@@std@@PAX@std@@@1@PAU?$_Tree_node@U?$pair@$$CBV?$basic_string@DU?$char_traits@D@std@@V?$allocator@D@2@@std@@V12@@std@@PAX@1@ABUpiecewise_construct_t@1@$$QAV?$tuple@ABV?$basic_string@DU?$char_traits@D@std@@V?$allocator@D@2@@std@@@1@$$QAV?$tuple@$$V@1@@Z DD 019930522H
	DD	02H
	DD	FLAT:__unwindtable$??$?0ABUpiecewise_construct_t@std@@V?$tuple@ABV?$basic_string@DU?$char_traits@D@std@@V?$allocator@D@2@@std@@@1@V?$tuple@$$V@1@@?$_Tree_temp_node@V?$allocator@U?$_Tree_node@U?$pair@$$CBV?$basic_string@DU?$char_traits@D@std@@V?$allocator@D@2@@std@@V12@@std@@PAX@std@@@std@@@std@@QAE@AAV?$allocator@U?$_Tree_node@U?$pair@$$CBV?$basic_string@DU?$char_traits@D@std@@V?$allocator@D@2@@std@@V12@@std@@PAX@std@@@1@PAU?$_Tree_node@U?$pair@$$CBV?$basic_string@DU?$char_traits@D@std@@V?$allocator@D@2@@std@@V12@@std@@PAX@1@ABUpiecewise_construct_t@1@$$QAV?$tuple@ABV?$basic_string@DU?$char_traits@D@std@@V?$allocator@D@2@@std@@@1@$$QAV?$tuple@$$V@1@@Z
	DD	2 DUP(00H)
	DD	2 DUP(00H)
	DD	00H
	DD	01H
xdata$x	ENDS
;	COMDAT xdata$x
xdata$x	SEGMENT
__unwindtable$??0?$_Tree_temp_node_alloc@V?$allocator@U?$_Tree_node@U?$pair@$$CBV?$basic_string@DU?$char_traits@D@std@@V?$allocator@D@2@@std@@V12@@std@@PAX@std@@@std@@@std@@QAE@AAV?$allocator@U?$_Tree_node@U?$pair@$$CBV?$basic_string@DU?$char_traits@D@std@@V?$allocator@D@2@@std@@V12@@std@@PAX@std@@@1@@Z DD 0ffffffffH
	DD	FLAT:__unwindfunclet$??0?$_Tree_temp_node_alloc@V?$allocator@U?$_Tree_node@U?$pair@$$CBV?$basic_string@DU?$char_traits@D@std@@V?$allocator@D@2@@std@@V12@@std@@PAX@std@@@std@@@std@@QAE@AAV?$allocator@U?$_Tree_node@U?$pair@$$CBV?$basic_string@DU?$char_traits@D@std@@V?$allocator@D@2@@std@@V12@@std@@PAX@std@@@1@@Z$0
__ehfuncinfo$??0?$_Tree_temp_node_alloc@V?$allocator@U?$_Tree_node@U?$pair@$$CBV?$basic_string@DU?$char_traits@D@std@@V?$allocator@D@2@@std@@V12@@std@@PAX@std@@@std@@@std@@QAE@AAV?$allocator@U?$_Tree_node@U?$pair@$$CBV?$basic_string@DU?$char_traits@D@std@@V?$allocator@D@2@@std@@V12@@std@@PAX@std@@@1@@Z DD 019930522H
	DD	01H
	DD	FLAT:__unwindtable$??0?$_Tree_temp_node_alloc@V?$allocator@U?$_Tree_node@U?$pair@$$CBV?$basic_string@DU?$char_traits@D@std@@V?$allocator@D@2@@std@@V12@@std@@PAX@std@@@std@@@std@@QAE@AAV?$allocator@U?$_Tree_node@U?$pair@$$CBV?$basic_string@DU?$char_traits@D@std@@V?$allocator@D@2@@std@@V12@@std@@PAX@std@@@1@@Z
	DD	2 DUP(00H)
	DD	2 DUP(00H)
	DD	00H
	DD	01H
xdata$x	ENDS
;	COMDAT xdata$x
xdata$x	SEGMENT
__unwindtable$??$emplace@U?$pair@V?$basic_string@DU?$char_traits@D@std@@V?$allocator@D@2@@std@@V12@@std@@@?$_Tree@V?$_Tmap_traits@V?$basic_string@DU?$char_traits@D@std@@V?$allocator@D@2@@std@@V12@U?$less@V?$basic_string@DU?$char_traits@D@std@@V?$allocator@D@2@@std@@@2@V?$allocator@U?$pair@$$CBV?$basic_string@DU?$char_traits@D@std@@V?$allocator@D@2@@std@@V12@@std@@@2@$0A@@std@@@std@@QAE?AU?$pair@V?$_Tree_iterator@V?$_Tree_val@U?$_Tree_simple_types@U?$pair@$$CBV?$basic_string@DU?$char_traits@D@std@@V?$allocator@D@2@@std@@V12@@std@@@std@@@std@@@std@@_N@1@$$QAU?$pair@V?$basic_string@DU?$char_traits@D@std@@V?$allocator@D@2@@std@@V12@@1@@Z DD 0ffffffffH
	DD	FLAT:__unwindfunclet$??$emplace@U?$pair@V?$basic_string@DU?$char_traits@D@std@@V?$allocator@D@2@@std@@V12@@std@@@?$_Tree@V?$_Tmap_traits@V?$basic_string@DU?$char_traits@D@std@@V?$allocator@D@2@@std@@V12@U?$less@V?$basic_string@DU?$char_traits@D@std@@V?$allocator@D@2@@std@@@2@V?$allocator@U?$pair@$$CBV?$basic_string@DU?$char_traits@D@std@@V?$allocator@D@2@@std@@V12@@std@@@2@$0A@@std@@@std@@QAE?AU?$pair@V?$_Tree_iterator@V?$_Tree_val@U?$_Tree_simple_types@U?$pair@$$CBV?$basic_string@DU?$char_traits@D@std@@V?$allocator@D@2@@std@@V12@@std@@@std@@@std@@@std@@_N@1@$$QAU?$pair@V?$basic_string@DU?$char_traits@D@std@@V?$allocator@D@2@@std@@V12@@1@@Z$2
__ehfuncinfo$??$emplace@U?$pair@V?$basic_string@DU?$char_traits@D@std@@V?$allocator@D@2@@std@@V12@@std@@@?$_Tree@V?$_Tmap_traits@V?$basic_string@DU?$char_traits@D@std@@V?$allocator@D@2@@std@@V12@U?$less@V?$basic_string@DU?$char_traits@D@std@@V?$allocator@D@2@@std@@@2@V?$allocator@U?$pair@$$CBV?$basic_string@DU?$char_traits@D@std@@V?$allocator@D@2@@std@@V12@@std@@@2@$0A@@std@@@std@@QAE?AU?$pair@V?$_Tree_iterator@V?$_Tree_val@U?$_Tree_simple_types@U?$pair@$$CBV?$basic_string@DU?$char_traits@D@std@@V?$allocator@D@2@@std@@V12@@std@@@std@@@std@@@std@@_N@1@$$QAU?$pair@V?$basic_string@DU?$char_traits@D@std@@V?$allocator@D@2@@std@@V12@@1@@Z DD 019930522H
	DD	01H
	DD	FLAT:__unwindtable$??$emplace@U?$pair@V?$basic_string@DU?$char_traits@D@std@@V?$allocator@D@2@@std@@V12@@std@@@?$_Tree@V?$_Tmap_traits@V?$basic_string@DU?$char_traits@D@std@@V?$allocator@D@2@@std@@V12@U?$less@V?$basic_string@DU?$char_traits@D@std@@V?$allocator@D@2@@std@@@2@V?$allocator@U?$pair@$$CBV?$basic_string@DU?$char_traits@D@std@@V?$allocator@D@2@@std@@V12@@std@@@2@$0A@@std@@@std@@QAE?AU?$pair@V?$_Tree_iterator@V?$_Tree_val@U?$_Tree_simple_types@U?$pair@$$CBV?$basic_string@DU?$char_traits@D@std@@V?$allocator@D@2@@std@@V12@@std@@@std@@@std@@@std@@_N@1@$$QAU?$pair@V?$basic_string@DU?$char_traits@D@std@@V?$allocator@D@2@@std@@V12@@1@@Z
	DD	2 DUP(00H)
	DD	2 DUP(00H)
	DD	00H
	DD	01H
xdata$x	ENDS
;	COMDAT xdata$x
xdata$x	SEGMENT
__unwindtable$??$emplace@U?$pair@V?$basic_string@DU?$char_traits@D@std@@V?$allocator@D@2@@std@@W4EPointTypes@@@std@@@?$_Tree@V?$_Tmap_traits@V?$basic_string@DU?$char_traits@D@std@@V?$allocator@D@2@@std@@KU?$less@V?$basic_string@DU?$char_traits@D@std@@V?$allocator@D@2@@std@@@2@V?$allocator@U?$pair@$$CBV?$basic_string@DU?$char_traits@D@std@@V?$allocator@D@2@@std@@K@std@@@2@$0A@@std@@@std@@QAE?AU?$pair@V?$_Tree_iterator@V?$_Tree_val@U?$_Tree_simple_types@U?$pair@$$CBV?$basic_string@DU?$char_traits@D@std@@V?$allocator@D@2@@std@@K@std@@@std@@@std@@@std@@_N@1@$$QAU?$pair@V?$basic_string@DU?$char_traits@D@std@@V?$allocator@D@2@@std@@W4EPointTypes@@@1@@Z DD 0ffffffffH
	DD	FLAT:__unwindfunclet$??$emplace@U?$pair@V?$basic_string@DU?$char_traits@D@std@@V?$allocator@D@2@@std@@W4EPointTypes@@@std@@@?$_Tree@V?$_Tmap_traits@V?$basic_string@DU?$char_traits@D@std@@V?$allocator@D@2@@std@@KU?$less@V?$basic_string@DU?$char_traits@D@std@@V?$allocator@D@2@@std@@@2@V?$allocator@U?$pair@$$CBV?$basic_string@DU?$char_traits@D@std@@V?$allocator@D@2@@std@@K@std@@@2@$0A@@std@@@std@@QAE?AU?$pair@V?$_Tree_iterator@V?$_Tree_val@U?$_Tree_simple_types@U?$pair@$$CBV?$basic_string@DU?$char_traits@D@std@@V?$allocator@D@2@@std@@K@std@@@std@@@std@@@std@@_N@1@$$QAU?$pair@V?$basic_string@DU?$char_traits@D@std@@V?$allocator@D@2@@std@@W4EPointTypes@@@1@@Z$2
__ehfuncinfo$??$emplace@U?$pair@V?$basic_string@DU?$char_traits@D@std@@V?$allocator@D@2@@std@@W4EPointTypes@@@std@@@?$_Tree@V?$_Tmap_traits@V?$basic_string@DU?$char_traits@D@std@@V?$allocator@D@2@@std@@KU?$less@V?$basic_string@DU?$char_traits@D@std@@V?$allocator@D@2@@std@@@2@V?$allocator@U?$pair@$$CBV?$basic_string@DU?$char_traits@D@std@@V?$allocator@D@2@@std@@K@std@@@2@$0A@@std@@@std@@QAE?AU?$pair@V?$_Tree_iterator@V?$_Tree_val@U?$_Tree_simple_types@U?$pair@$$CBV?$basic_string@DU?$char_traits@D@std@@V?$allocator@D@2@@std@@K@std@@@std@@@std@@@std@@_N@1@$$QAU?$pair@V?$basic_string@DU?$char_traits@D@std@@V?$allocator@D@2@@std@@W4EPointTypes@@@1@@Z DD 019930522H
	DD	01H
	DD	FLAT:__unwindtable$??$emplace@U?$pair@V?$basic_string@DU?$char_traits@D@std@@V?$allocator@D@2@@std@@W4EPointTypes@@@std@@@?$_Tree@V?$_Tmap_traits@V?$basic_string@DU?$char_traits@D@std@@V?$allocator@D@2@@std@@KU?$less@V?$basic_string@DU?$char_traits@D@std@@V?$allocator@D@2@@std@@@2@V?$allocator@U?$pair@$$CBV?$basic_string@DU?$char_traits@D@std@@V?$allocator@D@2@@std@@K@std@@@2@$0A@@std@@@std@@QAE?AU?$pair@V?$_Tree_iterator@V?$_Tree_val@U?$_Tree_simple_types@U?$pair@$$CBV?$basic_string@DU?$char_traits@D@std@@V?$allocator@D@2@@std@@K@std@@@std@@@std@@@std@@_N@1@$$QAU?$pair@V?$basic_string@DU?$char_traits@D@std@@V?$allocator@D@2@@std@@W4EPointTypes@@@1@@Z
	DD	2 DUP(00H)
	DD	2 DUP(00H)
	DD	00H
	DD	01H
xdata$x	ENDS
;	COMDAT xdata$x
xdata$x	SEGMENT
__unwindtable$??$emplace@U?$pair@V?$basic_string@DU?$char_traits@D@std@@V?$allocator@D@2@@std@@W4EWeaponSubTypes@CItemData@@@std@@@?$_Tree@V?$_Tmap_traits@V?$basic_string@DU?$char_traits@D@std@@V?$allocator@D@2@@std@@KU?$less@V?$basic_string@DU?$char_traits@D@std@@V?$allocator@D@2@@std@@@2@V?$allocator@U?$pair@$$CBV?$basic_string@DU?$char_traits@D@std@@V?$allocator@D@2@@std@@K@std@@@2@$0A@@std@@@std@@QAE?AU?$pair@V?$_Tree_iterator@V?$_Tree_val@U?$_Tree_simple_types@U?$pair@$$CBV?$basic_string@DU?$char_traits@D@std@@V?$allocator@D@2@@std@@K@std@@@std@@@std@@@std@@_N@1@$$QAU?$pair@V?$basic_string@DU?$char_traits@D@std@@V?$allocator@D@2@@std@@W4EWeaponSubTypes@CItemData@@@1@@Z DD 0ffffffffH
	DD	FLAT:__unwindfunclet$??$emplace@U?$pair@V?$basic_string@DU?$char_traits@D@std@@V?$allocator@D@2@@std@@W4EWeaponSubTypes@CItemData@@@std@@@?$_Tree@V?$_Tmap_traits@V?$basic_string@DU?$char_traits@D@std@@V?$allocator@D@2@@std@@KU?$less@V?$basic_string@DU?$char_traits@D@std@@V?$allocator@D@2@@std@@@2@V?$allocator@U?$pair@$$CBV?$basic_string@DU?$char_traits@D@std@@V?$allocator@D@2@@std@@K@std@@@2@$0A@@std@@@std@@QAE?AU?$pair@V?$_Tree_iterator@V?$_Tree_val@U?$_Tree_simple_types@U?$pair@$$CBV?$basic_string@DU?$char_traits@D@std@@V?$allocator@D@2@@std@@K@std@@@std@@@std@@@std@@_N@1@$$QAU?$pair@V?$basic_string@DU?$char_traits@D@std@@V?$allocator@D@2@@std@@W4EWeaponSubTypes@CItemData@@@1@@Z$2
__ehfuncinfo$??$emplace@U?$pair@V?$basic_string@DU?$char_traits@D@std@@V?$allocator@D@2@@std@@W4EWeaponSubTypes@CItemData@@@std@@@?$_Tree@V?$_Tmap_traits@V?$basic_string@DU?$char_traits@D@std@@V?$allocator@D@2@@std@@KU?$less@V?$basic_string@DU?$char_traits@D@std@@V?$allocator@D@2@@std@@@2@V?$allocator@U?$pair@$$CBV?$basic_string@DU?$char_traits@D@std@@V?$allocator@D@2@@std@@K@std@@@2@$0A@@std@@@std@@QAE?AU?$pair@V?$_Tree_iterator@V?$_Tree_val@U?$_Tree_simple_types@U?$pair@$$CBV?$basic_string@DU?$char_traits@D@std@@V?$allocator@D@2@@std@@K@std@@@std@@@std@@@std@@_N@1@$$QAU?$pair@V?$basic_string@DU?$char_traits@D@std@@V?$allocator@D@2@@std@@W4EWeaponSubTypes@CItemData@@@1@@Z DD 019930522H
	DD	01H
	DD	FLAT:__unwindtable$??$emplace@U?$pair@V?$basic_string@DU?$char_traits@D@std@@V?$allocator@D@2@@std@@W4EWeaponSubTypes@CItemData@@@std@@@?$_Tree@V?$_Tmap_traits@V?$basic_string@DU?$char_traits@D@std@@V?$allocator@D@2@@std@@KU?$less@V?$basic_string@DU?$char_traits@D@std@@V?$allocator@D@2@@std@@@2@V?$allocator@U?$pair@$$CBV?$basic_string@DU?$char_traits@D@std@@V?$allocator@D@2@@std@@K@std@@@2@$0A@@std@@@std@@QAE?AU?$pair@V?$_Tree_iterator@V?$_Tree_val@U?$_Tree_simple_types@U?$pair@$$CBV?$basic_string@DU?$char_traits@D@std@@V?$allocator@D@2@@std@@K@std@@@std@@@std@@@std@@_N@1@$$QAU?$pair@V?$basic_string@DU?$char_traits@D@std@@V?$allocator@D@2@@std@@W4EWeaponSubTypes@CItemData@@@1@@Z
	DD	2 DUP(00H)
	DD	2 DUP(00H)
	DD	00H
	DD	01H
xdata$x	ENDS
;	COMDAT xdata$x
xdata$x	SEGMENT
__unwindtable$??$_Emplace@U?$pair@$$CBV?$basic_string@DU?$char_traits@D@std@@V?$allocator@D@2@@std@@K@std@@@?$_Tree@V?$_Tmap_traits@V?$basic_string@DU?$char_traits@D@std@@V?$allocator@D@2@@std@@KU?$less@V?$basic_string@DU?$char_traits@D@std@@V?$allocator@D@2@@std@@@2@V?$allocator@U?$pair@$$CBV?$basic_string@DU?$char_traits@D@std@@V?$allocator@D@2@@std@@K@std@@@2@$0A@@std@@@std@@IAE?AU?$pair@PAU?$_Tree_node@U?$pair@$$CBV?$basic_string@DU?$char_traits@D@std@@V?$allocator@D@2@@std@@K@std@@PAX@std@@_N@1@$$QAU?$pair@$$CBV?$basic_string@DU?$char_traits@D@std@@V?$allocator@D@2@@std@@K@1@@Z DD 0ffffffffH
	DD	FLAT:__unwindfunclet$??$_Emplace@U?$pair@$$CBV?$basic_string@DU?$char_traits@D@std@@V?$allocator@D@2@@std@@K@std@@@?$_Tree@V?$_Tmap_traits@V?$basic_string@DU?$char_traits@D@std@@V?$allocator@D@2@@std@@KU?$less@V?$basic_string@DU?$char_traits@D@std@@V?$allocator@D@2@@std@@@2@V?$allocator@U?$pair@$$CBV?$basic_string@DU?$char_traits@D@std@@V?$allocator@D@2@@std@@K@std@@@2@$0A@@std@@@std@@IAE?AU?$pair@PAU?$_Tree_node@U?$pair@$$CBV?$basic_string@DU?$char_traits@D@std@@V?$allocator@D@2@@std@@K@std@@PAX@std@@_N@1@$$QAU?$pair@$$CBV?$basic_string@DU?$char_traits@D@std@@V?$allocator@D@2@@std@@K@1@@Z$2
	DD	0ffffffffH
	DD	FLAT:__unwindfunclet$??$_Emplace@U?$pair@$$CBV?$basic_string@DU?$char_traits@D@std@@V?$allocator@D@2@@std@@K@std@@@?$_Tree@V?$_Tmap_traits@V?$basic_string@DU?$char_traits@D@std@@V?$allocator@D@2@@std@@KU?$less@V?$basic_string@DU?$char_traits@D@std@@V?$allocator@D@2@@std@@@2@V?$allocator@U?$pair@$$CBV?$basic_string@DU?$char_traits@D@std@@V?$allocator@D@2@@std@@K@std@@@2@$0A@@std@@@std@@IAE?AU?$pair@PAU?$_Tree_node@U?$pair@$$CBV?$basic_string@DU?$char_traits@D@std@@V?$allocator@D@2@@std@@K@std@@PAX@std@@_N@1@$$QAU?$pair@$$CBV?$basic_string@DU?$char_traits@D@std@@V?$allocator@D@2@@std@@K@1@@Z$1
__ehfuncinfo$??$_Emplace@U?$pair@$$CBV?$basic_string@DU?$char_traits@D@std@@V?$allocator@D@2@@std@@K@std@@@?$_Tree@V?$_Tmap_traits@V?$basic_string@DU?$char_traits@D@std@@V?$allocator@D@2@@std@@KU?$less@V?$basic_string@DU?$char_traits@D@std@@V?$allocator@D@2@@std@@@2@V?$allocator@U?$pair@$$CBV?$basic_string@DU?$char_traits@D@std@@V?$allocator@D@2@@std@@K@std@@@2@$0A@@std@@@std@@IAE?AU?$pair@PAU?$_Tree_node@U?$pair@$$CBV?$basic_string@DU?$char_traits@D@std@@V?$allocator@D@2@@std@@K@std@@PAX@std@@_N@1@$$QAU?$pair@$$CBV?$basic_string@DU?$char_traits@D@std@@V?$allocator@D@2@@std@@K@1@@Z DD 019930522H
	DD	02H
	DD	FLAT:__unwindtable$??$_Emplace@U?$pair@$$CBV?$basic_string@DU?$char_traits@D@std@@V?$allocator@D@2@@std@@K@std@@@?$_Tree@V?$_Tmap_traits@V?$basic_string@DU?$char_traits@D@std@@V?$allocator@D@2@@std@@KU?$less@V?$basic_string@DU?$char_traits@D@std@@V?$allocator@D@2@@std@@@2@V?$allocator@U?$pair@$$CBV?$basic_string@DU?$char_traits@D@std@@V?$allocator@D@2@@std@@K@std@@@2@$0A@@std@@@std@@IAE?AU?$pair@PAU?$_Tree_node@U?$pair@$$CBV?$basic_string@DU?$char_traits@D@std@@V?$allocator@D@2@@std@@K@std@@PAX@std@@_N@1@$$QAU?$pair@$$CBV?$basic_string@DU?$char_traits@D@std@@V?$allocator@D@2@@std@@K@1@@Z
	DD	2 DUP(00H)
	DD	2 DUP(00H)
	DD	00H
	DD	01H
xdata$x	ENDS
;	COMDAT xdata$x
xdata$x	SEGMENT
__unwindtable$??$_Emplace@U?$pair@$$CBKUSSkillData@CPythonSkill@@@std@@@?$_Tree@V?$_Tmap_traits@KUSSkillData@CPythonSkill@@U?$less@K@std@@V?$allocator@U?$pair@$$CBKUSSkillData@CPythonSkill@@@std@@@4@$0A@@std@@@std@@IAE?AU?$pair@PAU?$_Tree_node@U?$pair@$$CBKUSSkillData@CPythonSkill@@@std@@PAX@std@@_N@1@$$QAU?$pair@$$CBKUSSkillData@CPythonSkill@@@1@@Z DD 0ffffffffH
	DD	FLAT:__unwindfunclet$??$_Emplace@U?$pair@$$CBKUSSkillData@CPythonSkill@@@std@@@?$_Tree@V?$_Tmap_traits@KUSSkillData@CPythonSkill@@U?$less@K@std@@V?$allocator@U?$pair@$$CBKUSSkillData@CPythonSkill@@@std@@@4@$0A@@std@@@std@@IAE?AU?$pair@PAU?$_Tree_node@U?$pair@$$CBKUSSkillData@CPythonSkill@@@std@@PAX@std@@_N@1@$$QAU?$pair@$$CBKUSSkillData@CPythonSkill@@@1@@Z$2
__ehfuncinfo$??$_Emplace@U?$pair@$$CBKUSSkillData@CPythonSkill@@@std@@@?$_Tree@V?$_Tmap_traits@KUSSkillData@CPythonSkill@@U?$less@K@std@@V?$allocator@U?$pair@$$CBKUSSkillData@CPythonSkill@@@std@@@4@$0A@@std@@@std@@IAE?AU?$pair@PAU?$_Tree_node@U?$pair@$$CBKUSSkillData@CPythonSkill@@@std@@PAX@std@@_N@1@$$QAU?$pair@$$CBKUSSkillData@CPythonSkill@@@1@@Z DD 019930522H
	DD	01H
	DD	FLAT:__unwindtable$??$_Emplace@U?$pair@$$CBKUSSkillData@CPythonSkill@@@std@@@?$_Tree@V?$_Tmap_traits@KUSSkillData@CPythonSkill@@U?$less@K@std@@V?$allocator@U?$pair@$$CBKUSSkillData@CPythonSkill@@@std@@@4@$0A@@std@@@std@@IAE?AU?$pair@PAU?$_Tree_node@U?$pair@$$CBKUSSkillData@CPythonSkill@@@std@@PAX@std@@_N@1@$$QAU?$pair@$$CBKUSSkillData@CPythonSkill@@@1@@Z
	DD	2 DUP(00H)
	DD	2 DUP(00H)
	DD	00H
	DD	01H
xdata$x	ENDS
;	COMDAT xdata$x
xdata$x	SEGMENT
__unwindtable$??$emplace@U?$pair@KUSSkillData@CPythonSkill@@@std@@@?$_Tree@V?$_Tmap_traits@KUSSkillData@CPythonSkill@@U?$less@K@std@@V?$allocator@U?$pair@$$CBKUSSkillData@CPythonSkill@@@std@@@4@$0A@@std@@@std@@QAE?AU?$pair@V?$_Tree_iterator@V?$_Tree_val@U?$_Tree_simple_types@U?$pair@$$CBKUSSkillData@CPythonSkill@@@std@@@std@@@std@@@std@@_N@1@$$QAU?$pair@KUSSkillData@CPythonSkill@@@1@@Z DD 0ffffffffH
	DD	FLAT:__unwindfunclet$??$emplace@U?$pair@KUSSkillData@CPythonSkill@@@std@@@?$_Tree@V?$_Tmap_traits@KUSSkillData@CPythonSkill@@U?$less@K@std@@V?$allocator@U?$pair@$$CBKUSSkillData@CPythonSkill@@@std@@@4@$0A@@std@@@std@@QAE?AU?$pair@V?$_Tree_iterator@V?$_Tree_val@U?$_Tree_simple_types@U?$pair@$$CBKUSSkillData@CPythonSkill@@@std@@@std@@@std@@@std@@_N@1@$$QAU?$pair@KUSSkillData@CPythonSkill@@@1@@Z$2
__ehfuncinfo$??$emplace@U?$pair@KUSSkillData@CPythonSkill@@@std@@@?$_Tree@V?$_Tmap_traits@KUSSkillData@CPythonSkill@@U?$less@K@std@@V?$allocator@U?$pair@$$CBKUSSkillData@CPythonSkill@@@std@@@4@$0A@@std@@@std@@QAE?AU?$pair@V?$_Tree_iterator@V?$_Tree_val@U?$_Tree_simple_types@U?$pair@$$CBKUSSkillData@CPythonSkill@@@std@@@std@@@std@@@std@@_N@1@$$QAU?$pair@KUSSkillData@CPythonSkill@@@1@@Z DD 019930522H
	DD	01H
	DD	FLAT:__unwindtable$??$emplace@U?$pair@KUSSkillData@CPythonSkill@@@std@@@?$_Tree@V?$_Tmap_traits@KUSSkillData@CPythonSkill@@U?$less@K@std@@V?$allocator@U?$pair@$$CBKUSSkillData@CPythonSkill@@@std@@@4@$0A@@std@@@std@@QAE?AU?$pair@V?$_Tree_iterator@V?$_Tree_val@U?$_Tree_simple_types@U?$pair@$$CBKUSSkillData@CPythonSkill@@@std@@@std@@@std@@@std@@_N@1@$$QAU?$pair@KUSSkillData@CPythonSkill@@@1@@Z
	DD	2 DUP(00H)
	DD	2 DUP(00H)
	DD	00H
	DD	01H
xdata$x	ENDS
;	COMDAT xdata$x
xdata$x	SEGMENT
__catchsym$??$_Emplace_reallocate@ABV?$basic_string@DU?$char_traits@D@std@@V?$allocator@D@2@@std@@@?$vector@V?$basic_string@DU?$char_traits@D@std@@V?$allocator@D@2@@std@@V?$allocator@V?$basic_string@DU?$char_traits@D@std@@V?$allocator@D@2@@std@@@2@@std@@QAEPAV?$basic_string@DU?$char_traits@D@std@@V?$allocator@D@2@@1@QAV21@ABV21@@Z$2 DD 040H
	DD	00H
	DD	00H
	DD	FLAT:__catch$??$_Emplace_reallocate@ABV?$basic_string@DU?$char_traits@D@std@@V?$allocator@D@2@@std@@@?$vector@V?$basic_string@DU?$char_traits@D@std@@V?$allocator@D@2@@std@@V?$allocator@V?$basic_string@DU?$char_traits@D@std@@V?$allocator@D@2@@std@@@2@@std@@QAEPAV?$basic_string@DU?$char_traits@D@std@@V?$allocator@D@2@@1@QAV21@ABV21@@Z$0
__unwindtable$??$_Emplace_reallocate@ABV?$basic_string@DU?$char_traits@D@std@@V?$allocator@D@2@@std@@@?$vector@V?$basic_string@DU?$char_traits@D@std@@V?$allocator@D@2@@std@@V?$allocator@V?$basic_string@DU?$char_traits@D@std@@V?$allocator@D@2@@std@@@2@@std@@QAEPAV?$basic_string@DU?$char_traits@D@std@@V?$allocator@D@2@@1@QAV21@ABV21@@Z DD 0ffffffffH
	DD	00H
	DD	0ffffffffH
	DD	00H
__tryblocktable$??$_Emplace_reallocate@ABV?$basic_string@DU?$char_traits@D@std@@V?$allocator@D@2@@std@@@?$vector@V?$basic_string@DU?$char_traits@D@std@@V?$allocator@D@2@@std@@V?$allocator@V?$basic_string@DU?$char_traits@D@std@@V?$allocator@D@2@@std@@@2@@std@@QAEPAV?$basic_string@DU?$char_traits@D@std@@V?$allocator@D@2@@1@QAV21@ABV21@@Z DD 00H
	DD	00H
	DD	01H
	DD	01H
	DD	FLAT:__catchsym$??$_Emplace_reallocate@ABV?$basic_string@DU?$char_traits@D@std@@V?$allocator@D@2@@std@@@?$vector@V?$basic_string@DU?$char_traits@D@std@@V?$allocator@D@2@@std@@V?$allocator@V?$basic_string@DU?$char_traits@D@std@@V?$allocator@D@2@@std@@@2@@std@@QAEPAV?$basic_string@DU?$char_traits@D@std@@V?$allocator@D@2@@1@QAV21@ABV21@@Z$2
__ehfuncinfo$??$_Emplace_reallocate@ABV?$basic_string@DU?$char_traits@D@std@@V?$allocator@D@2@@std@@@?$vector@V?$basic_string@DU?$char_traits@D@std@@V?$allocator@D@2@@std@@V?$allocator@V?$basic_string@DU?$char_traits@D@std@@V?$allocator@D@2@@std@@@2@@std@@QAEPAV?$basic_string@DU?$char_traits@D@std@@V?$allocator@D@2@@1@QAV21@ABV21@@Z DD 019930522H
	DD	02H
	DD	FLAT:__unwindtable$??$_Emplace_reallocate@ABV?$basic_string@DU?$char_traits@D@std@@V?$allocator@D@2@@std@@@?$vector@V?$basic_string@DU?$char_traits@D@std@@V?$allocator@D@2@@std@@V?$allocator@V?$basic_string@DU?$char_traits@D@std@@V?$allocator@D@2@@std@@@2@@std@@QAEPAV?$basic_string@DU?$char_traits@D@std@@V?$allocator@D@2@@1@QAV21@ABV21@@Z
	DD	01H
	DD	FLAT:__tryblocktable$??$_Emplace_reallocate@ABV?$basic_string@DU?$char_traits@D@std@@V?$allocator@D@2@@std@@@?$vector@V?$basic_string@DU?$char_traits@D@std@@V?$allocator@D@2@@std@@V?$allocator@V?$basic_string@DU?$char_traits@D@std@@V?$allocator@D@2@@std@@@2@@std@@QAEPAV?$basic_string@DU?$char_traits@D@std@@V?$allocator@D@2@@1@QAV21@ABV21@@Z
	DD	2 DUP(00H)
	DD	00H
	DD	01H
xdata$x	ENDS
;	COMDAT xdata$x
xdata$x	SEGMENT
__unwindtable$??$_Try_emplace@ABK$$V@?$map@KUSSkillData@CPythonSkill@@U?$less@K@std@@V?$allocator@U?$pair@$$CBKUSSkillData@CPythonSkill@@@std@@@4@@std@@AAE?AU?$pair@PAU?$_Tree_node@U?$pair@$$CBKUSSkillData@CPythonSkill@@@std@@PAX@std@@_N@1@ABK@Z DD 0ffffffffH
	DD	FLAT:__unwindfunclet$??$_Try_emplace@ABK$$V@?$map@KUSSkillData@CPythonSkill@@U?$less@K@std@@V?$allocator@U?$pair@$$CBKUSSkillData@CPythonSkill@@@std@@@4@@std@@AAE?AU?$pair@PAU?$_Tree_node@U?$pair@$$CBKUSSkillData@CPythonSkill@@@std@@PAX@std@@_N@1@ABK@Z$2
	DD	0ffffffffH
	DD	FLAT:__unwindfunclet$??$_Try_emplace@ABK$$V@?$map@KUSSkillData@CPythonSkill@@U?$less@K@std@@V?$allocator@U?$pair@$$CBKUSSkillData@CPythonSkill@@@std@@@4@@std@@AAE?AU?$pair@PAU?$_Tree_node@U?$pair@$$CBKUSSkillData@CPythonSkill@@@std@@PAX@std@@_N@1@ABK@Z$1
__ehfuncinfo$??$_Try_emplace@ABK$$V@?$map@KUSSkillData@CPythonSkill@@U?$less@K@std@@V?$allocator@U?$pair@$$CBKUSSkillData@CPythonSkill@@@std@@@4@@std@@AAE?AU?$pair@PAU?$_Tree_node@U?$pair@$$CBKUSSkillData@CPythonSkill@@@std@@PAX@std@@_N@1@ABK@Z DD 019930522H
	DD	02H
	DD	FLAT:__unwindtable$??$_Try_emplace@ABK$$V@?$map@KUSSkillData@CPythonSkill@@U?$less@K@std@@V?$allocator@U?$pair@$$CBKUSSkillData@CPythonSkill@@@std@@@4@@std@@AAE?AU?$pair@PAU?$_Tree_node@U?$pair@$$CBKUSSkillData@CPythonSkill@@@std@@PAX@std@@_N@1@ABK@Z
	DD	2 DUP(00H)
	DD	2 DUP(00H)
	DD	00H
	DD	01H
xdata$x	ENDS
;	COMDAT xdata$x
xdata$x	SEGMENT
__unwindtable$??$_Try_emplace@ABV?$basic_string@DU?$char_traits@D@std@@V?$allocator@D@2@@std@@$$V@?$map@V?$basic_string@DU?$char_traits@D@std@@V?$allocator@D@2@@std@@V12@U?$less@V?$basic_string@DU?$char_traits@D@std@@V?$allocator@D@2@@std@@@2@V?$allocator@U?$pair@$$CBV?$basic_string@DU?$char_traits@D@std@@V?$allocator@D@2@@std@@V12@@std@@@2@@std@@AAE?AU?$pair@PAU?$_Tree_node@U?$pair@$$CBV?$basic_string@DU?$char_traits@D@std@@V?$allocator@D@2@@std@@V12@@std@@PAX@std@@_N@1@ABV?$basic_string@DU?$char_traits@D@std@@V?$allocator@D@2@@1@@Z DD 0ffffffffH
	DD	FLAT:__unwindfunclet$??$_Try_emplace@ABV?$basic_string@DU?$char_traits@D@std@@V?$allocator@D@2@@std@@$$V@?$map@V?$basic_string@DU?$char_traits@D@std@@V?$allocator@D@2@@std@@V12@U?$less@V?$basic_string@DU?$char_traits@D@std@@V?$allocator@D@2@@std@@@2@V?$allocator@U?$pair@$$CBV?$basic_string@DU?$char_traits@D@std@@V?$allocator@D@2@@std@@V12@@std@@@2@@std@@AAE?AU?$pair@PAU?$_Tree_node@U?$pair@$$CBV?$basic_string@DU?$char_traits@D@std@@V?$allocator@D@2@@std@@V12@@std@@PAX@std@@_N@1@ABV?$basic_string@DU?$char_traits@D@std@@V?$allocator@D@2@@1@@Z$2
	DD	0ffffffffH
	DD	FLAT:__unwindfunclet$??$_Try_emplace@ABV?$basic_string@DU?$char_traits@D@std@@V?$allocator@D@2@@std@@$$V@?$map@V?$basic_string@DU?$char_traits@D@std@@V?$allocator@D@2@@std@@V12@U?$less@V?$basic_string@DU?$char_traits@D@std@@V?$allocator@D@2@@std@@@2@V?$allocator@U?$pair@$$CBV?$basic_string@DU?$char_traits@D@std@@V?$allocator@D@2@@std@@V12@@std@@@2@@std@@AAE?AU?$pair@PAU?$_Tree_node@U?$pair@$$CBV?$basic_string@DU?$char_traits@D@std@@V?$allocator@D@2@@std@@V12@@std@@PAX@std@@_N@1@ABV?$basic_string@DU?$char_traits@D@std@@V?$allocator@D@2@@1@@Z$1
__ehfuncinfo$??$_Try_emplace@ABV?$basic_string@DU?$char_traits@D@std@@V?$allocator@D@2@@std@@$$V@?$map@V?$basic_string@DU?$char_traits@D@std@@V?$allocator@D@2@@std@@V12@U?$less@V?$basic_string@DU?$char_traits@D@std@@V?$allocator@D@2@@std@@@2@V?$allocator@U?$pair@$$CBV?$basic_string@DU?$char_traits@D@std@@V?$allocator@D@2@@std@@V12@@std@@@2@@std@@AAE?AU?$pair@PAU?$_Tree_node@U?$pair@$$CBV?$basic_string@DU?$char_traits@D@std@@V?$allocator@D@2@@std@@V12@@std@@PAX@std@@_N@1@ABV?$basic_string@DU?$char_traits@D@std@@V?$allocator@D@2@@1@@Z DD 019930522H
	DD	02H
	DD	FLAT:__unwindtable$??$_Try_emplace@ABV?$basic_string@DU?$char_traits@D@std@@V?$allocator@D@2@@std@@$$V@?$map@V?$basic_string@DU?$char_traits@D@std@@V?$allocator@D@2@@std@@V12@U?$less@V?$basic_string@DU?$char_traits@D@std@@V?$allocator@D@2@@std@@@2@V?$allocator@U?$pair@$$CBV?$basic_string@DU?$char_traits@D@std@@V?$allocator@D@2@@std@@V12@@std@@@2@@std@@AAE?AU?$pair@PAU?$_Tree_node@U?$pair@$$CBV?$basic_string@DU?$char_traits@D@std@@V?$allocator@D@2@@std@@V12@@std@@PAX@std@@_N@1@ABV?$basic_string@DU?$char_traits@D@std@@V?$allocator@D@2@@1@@Z
	DD	2 DUP(00H)
	DD	2 DUP(00H)
	DD	00H
	DD	01H
xdata$x	ENDS
;	COMDAT xdata$x
xdata$x	SEGMENT
__unwindtable$?skillGetNewAffectData@@YAPAU_object@@PAU1@0@Z DD 0ffffffffH
	DD	FLAT:__unwindfunclet$?skillGetNewAffectData@@YAPAU_object@@PAU1@0@Z$0
	DD	00H
	DD	FLAT:__unwindfunclet$?skillGetNewAffectData@@YAPAU_object@@PAU1@0@Z$1
	DD	01H
	DD	FLAT:__unwindfunclet$?skillGetNewAffectData@@YAPAU_object@@PAU1@0@Z$2
	DD	01H
	DD	FLAT:__unwindfunclet$?skillGetNewAffectData@@YAPAU_object@@PAU1@0@Z$3
__ehfuncinfo$?skillGetNewAffectData@@YAPAU_object@@PAU1@0@Z DD 019930522H
	DD	04H
	DD	FLAT:__unwindtable$?skillGetNewAffectData@@YAPAU_object@@PAU1@0@Z
	DD	2 DUP(00H)
	DD	2 DUP(00H)
	DD	00H
	DD	01H
xdata$x	ENDS
;	COMDAT xdata$x
xdata$x	SEGMENT
__unwindtable$?skillRegisterSkill@@YAPAU_object@@PAU1@0@Z DD 0ffffffffH
	DD	FLAT:__unwindfunclet$?skillRegisterSkill@@YAPAU_object@@PAU1@0@Z$0
__ehfuncinfo$?skillRegisterSkill@@YAPAU_object@@PAU1@0@Z DD 019930522H
	DD	01H
	DD	FLAT:__unwindtable$?skillRegisterSkill@@YAPAU_object@@PAU1@0@Z
	DD	2 DUP(00H)
	DD	2 DUP(00H)
	DD	00H
	DD	01H
xdata$x	ENDS
;	COMDAT xdata$x
xdata$x	SEGMENT
__unwindtable$??$insert@U?$pair@V?$basic_string@DU?$char_traits@D@std@@V?$allocator@D@2@@std@@V12@@std@@$0A@@?$map@V?$basic_string@DU?$char_traits@D@std@@V?$allocator@D@2@@std@@V12@U?$less@V?$basic_string@DU?$char_traits@D@std@@V?$allocator@D@2@@std@@@2@V?$allocator@U?$pair@$$CBV?$basic_string@DU?$char_traits@D@std@@V?$allocator@D@2@@std@@V12@@std@@@2@@std@@QAE?AU?$pair@V?$_Tree_iterator@V?$_Tree_val@U?$_Tree_simple_types@U?$pair@$$CBV?$basic_string@DU?$char_traits@D@std@@V?$allocator@D@2@@std@@V12@@std@@@std@@@std@@@std@@_N@1@$$QAU?$pair@V?$basic_string@DU?$char_traits@D@std@@V?$allocator@D@2@@std@@V12@@1@@Z DD 0ffffffffH
	DD	FLAT:__unwindfunclet$??$insert@U?$pair@V?$basic_string@DU?$char_traits@D@std@@V?$allocator@D@2@@std@@V12@@std@@$0A@@?$map@V?$basic_string@DU?$char_traits@D@std@@V?$allocator@D@2@@std@@V12@U?$less@V?$basic_string@DU?$char_traits@D@std@@V?$allocator@D@2@@std@@@2@V?$allocator@U?$pair@$$CBV?$basic_string@DU?$char_traits@D@std@@V?$allocator@D@2@@std@@V12@@std@@@2@@std@@QAE?AU?$pair@V?$_Tree_iterator@V?$_Tree_val@U?$_Tree_simple_types@U?$pair@$$CBV?$basic_string@DU?$char_traits@D@std@@V?$allocator@D@2@@std@@V12@@std@@@std@@@std@@@std@@_N@1@$$QAU?$pair@V?$basic_string@DU?$char_traits@D@std@@V?$allocator@D@2@@std@@V12@@1@@Z$2
__ehfuncinfo$??$insert@U?$pair@V?$basic_string@DU?$char_traits@D@std@@V?$allocator@D@2@@std@@V12@@std@@$0A@@?$map@V?$basic_string@DU?$char_traits@D@std@@V?$allocator@D@2@@std@@V12@U?$less@V?$basic_string@DU?$char_traits@D@std@@V?$allocator@D@2@@std@@@2@V?$allocator@U?$pair@$$CBV?$basic_string@DU?$char_traits@D@std@@V?$allocator@D@2@@std@@V12@@std@@@2@@std@@QAE?AU?$pair@V?$_Tree_iterator@V?$_Tree_val@U?$_Tree_simple_types@U?$pair@$$CBV?$basic_string@DU?$char_traits@D@std@@V?$allocator@D@2@@std@@V12@@std@@@std@@@std@@@std@@_N@1@$$QAU?$pair@V?$basic_string@DU?$char_traits@D@std@@V?$allocator@D@2@@std@@V12@@1@@Z DD 019930522H
	DD	01H
	DD	FLAT:__unwindtable$??$insert@U?$pair@V?$basic_string@DU?$char_traits@D@std@@V?$allocator@D@2@@std@@V12@@std@@$0A@@?$map@V?$basic_string@DU?$char_traits@D@std@@V?$allocator@D@2@@std@@V12@U?$less@V?$basic_string@DU?$char_traits@D@std@@V?$allocator@D@2@@std@@@2@V?$allocator@U?$pair@$$CBV?$basic_string@DU?$char_traits@D@std@@V?$allocator@D@2@@std@@V12@@std@@@2@@std@@QAE?AU?$pair@V?$_Tree_iterator@V?$_Tree_val@U?$_Tree_simple_types@U?$pair@$$CBV?$basic_string@DU?$char_traits@D@std@@V?$allocator@D@2@@std@@V12@@std@@@std@@@std@@@std@@_N@1@$$QAU?$pair@V?$basic_string@DU?$char_traits@D@std@@V?$allocator@D@2@@std@@V12@@1@@Z
	DD	2 DUP(00H)
	DD	2 DUP(00H)
	DD	00H
	DD	01H
xdata$x	ENDS
;	COMDAT xdata$x
