; Listing generated by Microsoft (R) Optimizing Compiler Version 19.28.29335.0 

	TITLE	D:\Metin2 Server Files\mainline\SRC_2014\Metin2Client\UserInterface\PythonGuild.cpp
	.686P
	.XMM
	include listing.inc
	.model	flat

INCLUDELIB LIBCMT
INCLUDELIB OLDNAMES

CONST	SEGMENT
?piecewise_construct@std@@3Upiecewise_construct_t@1@B	ORG $+1 ; std::piecewise_construct
CONST	ENDS
PUBLIC	??_H@YGXPAXIIP6EPAX0@Z@Z			; `vector constructor iterator'
PUBLIC	??0exception@std@@QAE@ABV01@@Z			; std::exception::exception
PUBLIC	??1exception@std@@UAE@XZ			; std::exception::~exception
PUBLIC	?what@exception@std@@UBEPBDXZ			; std::exception::what
PUBLIC	??_Gexception@std@@UAEPAXI@Z			; std::exception::`scalar deleting destructor'
PUBLIC	??0bad_alloc@std@@QAE@ABV01@@Z			; std::bad_alloc::bad_alloc
PUBLIC	??_Gbad_alloc@std@@UAEPAXI@Z			; std::bad_alloc::`scalar deleting destructor'
PUBLIC	??0bad_array_new_length@std@@QAE@XZ		; std::bad_array_new_length::bad_array_new_length
PUBLIC	??1bad_array_new_length@std@@UAE@XZ		; std::bad_array_new_length::~bad_array_new_length
PUBLIC	??0bad_array_new_length@std@@QAE@ABV01@@Z	; std::bad_array_new_length::bad_array_new_length
PUBLIC	??_Gbad_array_new_length@std@@UAEPAXI@Z		; std::bad_array_new_length::`scalar deleting destructor'
PUBLIC	?_Throw_bad_array_new_length@std@@YAXXZ		; std::_Throw_bad_array_new_length
PUBLIC	?_Xlen_string@std@@YAXXZ			; std::_Xlen_string
PUBLIC	??0?$basic_string@DU?$char_traits@D@std@@V?$allocator@D@2@@std@@QAE@ABV01@@Z ; std::basic_string<char,std::char_traits<char>,std::allocator<char> >::basic_string<char,std::char_traits<char>,std::allocator<char> >
PUBLIC	??1?$basic_string@DU?$char_traits@D@std@@V?$allocator@D@2@@std@@QAE@XZ ; std::basic_string<char,std::char_traits<char>,std::allocator<char> >::~basic_string<char,std::char_traits<char>,std::allocator<char> >
PUBLIC	?assign@?$basic_string@DU?$char_traits@D@std@@V?$allocator@D@2@@std@@QAEAAV12@QBDI@Z ; std::basic_string<char,std::char_traits<char>,std::allocator<char> >::assign
PUBLIC	?compare@?$basic_string@DU?$char_traits@D@std@@V?$allocator@D@2@@std@@QBEHQBD@Z ; std::basic_string<char,std::char_traits<char>,std::allocator<char> >::compare
PUBLIC	?_Throw_tree_length_error@std@@YAXXZ		; std::_Throw_tree_length_error
PUBLIC	?_Insert_node@?$_Tree_val@U?$_Tree_simple_types@U?$pair@$$CBKV?$basic_string@DU?$char_traits@D@std@@V?$allocator@D@2@@std@@@std@@@std@@@std@@QAEPAU?$_Tree_node@U?$pair@$$CBKV?$basic_string@DU?$char_traits@D@std@@V?$allocator@D@2@@std@@@std@@PAX@2@U?$_Tree_id@PAU?$_Tree_node@U?$pair@$$CBKV?$basic_string@DU?$char_traits@D@std@@V?$allocator@D@2@@std@@@std@@PAX@std@@@2@QAU32@@Z ; std::_Tree_val<std::_Tree_simple_types<std::pair<unsigned long const ,std::basic_string<char,std::char_traits<char>,std::allocator<char> > > > >::_Insert_node
PUBLIC	?initguild@@YAXXZ				; initguild
PUBLIC	??$_Destroy_in_place@PAD@std@@YAXAAPAD@Z	; std::_Destroy_in_place<char *>
PUBLIC	??$_Construct_in_place@PADABQAD@std@@YAXAAPADABQAD@Z ; std::_Construct_in_place<char *,char * const &>
PUBLIC	??$_Pocma@V?$allocator@D@std@@@std@@YAXAAV?$allocator@D@0@0@Z ; std::_Pocma<std::allocator<char> >
PUBLIC	??$_Deallocate@$07$0A@@std@@YAXPAXI@Z		; std::_Deallocate<8,0>
PUBLIC	??$_Allocate@$07U_Default_allocate_traits@std@@$0A@@std@@YAPAXI@Z ; std::_Allocate<8,std::_Default_allocate_traits,0>
PUBLIC	??$_Allocate_manually_vector_aligned@U_Default_allocate_traits@std@@@std@@YAPAXI@Z ; std::_Allocate_manually_vector_aligned<std::_Default_allocate_traits>
PUBLIC	??1?$_Tree@V?$_Tmap_traits@KKU?$less@K@std@@V?$allocator@U?$pair@$$CBKK@std@@@2@$0A@@std@@@std@@QAE@XZ ; std::_Tree<std::_Tmap_traits<unsigned long,unsigned long,std::less<unsigned long>,std::allocator<std::pair<unsigned long const ,unsigned long> >,0> >::~_Tree<std::_Tmap_traits<unsigned long,unsigned long,std::less<unsigned long>,std::allocator<std::pair<unsigned long const ,unsigned long> >,0> >
PUBLIC	?_Insert_node@?$_Tree_val@U?$_Tree_simple_types@U?$pair@$$CBKK@std@@@std@@@std@@QAEPAU?$_Tree_node@U?$pair@$$CBKK@std@@PAX@2@U?$_Tree_id@PAU?$_Tree_node@U?$pair@$$CBKK@std@@PAX@std@@@2@QAU32@@Z ; std::_Tree_val<std::_Tree_simple_types<std::pair<unsigned long const ,unsigned long> > >::_Insert_node
PUBLIC	??1?$CSingleton@VCPythonGuild@@@@UAE@XZ		; CSingleton<CPythonGuild>::~CSingleton<CPythonGuild>
PUBLIC	??_G?$CSingleton@VCPythonGuild@@@@UAEPAXI@Z	; CSingleton<CPythonGuild>::`scalar deleting destructor'
PUBLIC	??0SGuildMemberData@CPythonGuild@@QAE@$$QAU01@@Z ; CPythonGuild::SGuildMemberData::SGuildMemberData
PUBLIC	??4SGuildMemberData@CPythonGuild@@QAEAAU01@$$QAU01@@Z ; CPythonGuild::SGuildMemberData::operator=
PUBLIC	??1SGuildBoardCommentData@CPythonGuild@@QAE@XZ	; CPythonGuild::SGuildBoardCommentData::~SGuildBoardCommentData
PUBLIC	??0CPythonGuild@@QAE@XZ				; CPythonGuild::CPythonGuild
PUBLIC	??1CPythonGuild@@UAE@XZ				; CPythonGuild::~CPythonGuild
PUBLIC	?Destroy@CPythonGuild@@QAEXXZ			; CPythonGuild::Destroy
PUBLIC	?EnableGuild@CPythonGuild@@QAEXXZ		; CPythonGuild::EnableGuild
PUBLIC	?SetGuildMoney@CPythonGuild@@QAEXK@Z		; CPythonGuild::SetGuildMoney
PUBLIC	?SetGuildEXP@CPythonGuild@@QAEXEK@Z		; CPythonGuild::SetGuildEXP
PUBLIC	?SetGradeData@CPythonGuild@@QAEXEAAUSGuildGradeData@1@@Z ; CPythonGuild::SetGradeData
PUBLIC	?SetGradeName@CPythonGuild@@QAEXEPBD@Z		; CPythonGuild::SetGradeName
PUBLIC	?SetGradeAuthority@CPythonGuild@@QAEXEE@Z	; CPythonGuild::SetGradeAuthority
PUBLIC	?ClearComment@CPythonGuild@@QAEXXZ		; CPythonGuild::ClearComment
PUBLIC	?RegisterComment@CPythonGuild@@QAEXKPBD0@Z	; CPythonGuild::RegisterComment
PUBLIC	?RegisterMember@CPythonGuild@@QAEXAAUSGuildMemberData@1@@Z ; CPythonGuild::RegisterMember
PUBLIC	?ChangeGuildMemberGrade@CPythonGuild@@QAEXKE@Z	; CPythonGuild::ChangeGuildMemberGrade
PUBLIC	?ChangeGuildMemberGeneralFlag@CPythonGuild@@QAEXKE@Z ; CPythonGuild::ChangeGuildMemberGeneralFlag
PUBLIC	?RemoveMember@CPythonGuild@@QAEXK@Z		; CPythonGuild::RemoveMember
PUBLIC	?RegisterGuildName@CPythonGuild@@QAEXKPBD@Z	; CPythonGuild::RegisterGuildName
PUBLIC	?IsMainPlayer@CPythonGuild@@QAEHK@Z		; CPythonGuild::IsMainPlayer
PUBLIC	?IsGuildEnable@CPythonGuild@@QAEHXZ		; CPythonGuild::IsGuildEnable
PUBLIC	?GetGuildInfoRef@CPythonGuild@@QAEAAUSGulidInfo@1@XZ ; CPythonGuild::GetGuildInfoRef
PUBLIC	?GetGradeDataPtr@CPythonGuild@@QAEHKPAPAUSGuildGradeData@1@@Z ; CPythonGuild::GetGradeDataPtr
PUBLIC	?GetGuildBoardCommentVector@CPythonGuild@@QAEABV?$vector@USGuildBoardCommentData@CPythonGuild@@V?$allocator@USGuildBoardCommentData@CPythonGuild@@@std@@@std@@XZ ; CPythonGuild::GetGuildBoardCommentVector
PUBLIC	?GetMemberCount@CPythonGuild@@QAEKXZ		; CPythonGuild::GetMemberCount
PUBLIC	?GetMemberDataPtr@CPythonGuild@@QAEHKPAPAUSGuildMemberData@1@@Z ; CPythonGuild::GetMemberDataPtr
PUBLIC	?GetMemberDataPtrByPID@CPythonGuild@@QAEHKPAPAUSGuildMemberData@1@@Z ; CPythonGuild::GetMemberDataPtrByPID
PUBLIC	?GetMemberDataPtrByName@CPythonGuild@@QAEHPBDPAPAUSGuildMemberData@1@@Z ; CPythonGuild::GetMemberDataPtrByName
PUBLIC	?GetGuildMemberLevelSummary@CPythonGuild@@QAEKXZ ; CPythonGuild::GetGuildMemberLevelSummary
PUBLIC	?GetGuildMemberLevelAverage@CPythonGuild@@QAEKXZ ; CPythonGuild::GetGuildMemberLevelAverage
PUBLIC	?GetGuildExperienceSummary@CPythonGuild@@QAEKXZ	; CPythonGuild::GetGuildExperienceSummary
PUBLIC	?GetGuildSkillDataRef@CPythonGuild@@QAEAAUSGuildSkillData@1@XZ ; CPythonGuild::GetGuildSkillDataRef
PUBLIC	?GetGuildName@CPythonGuild@@QAE_NKPAV?$basic_string@DU?$char_traits@D@std@@V?$allocator@D@2@@std@@@Z ; CPythonGuild::GetGuildName
PUBLIC	?GetGuildID@CPythonGuild@@QAEKXZ		; CPythonGuild::GetGuildID
PUBLIC	?HasGuildLand@CPythonGuild@@QAEHXZ		; CPythonGuild::HasGuildLand
PUBLIC	?StartGuildWar@CPythonGuild@@QAEXK@Z		; CPythonGuild::StartGuildWar
PUBLIC	?EndGuildWar@CPythonGuild@@QAEXK@Z		; CPythonGuild::EndGuildWar
PUBLIC	?GetEnemyGuildID@CPythonGuild@@QAEKK@Z		; CPythonGuild::GetEnemyGuildID
PUBLIC	?IsDoingGuildWar@CPythonGuild@@QAEHXZ		; CPythonGuild::IsDoingGuildWar
PUBLIC	?__CalculateLevelAverage@CPythonGuild@@IAEXXZ	; CPythonGuild::__CalculateLevelAverage
PUBLIC	?__SortMember@CPythonGuild@@IAEXXZ		; CPythonGuild::__SortMember
PUBLIC	?__IsGradeData@CPythonGuild@@IAEHE@Z		; CPythonGuild::__IsGradeData
PUBLIC	?__Initialize@CPythonGuild@@IAEXXZ		; CPythonGuild::__Initialize
PUBLIC	?_Insert_node@?$_Tree_val@U?$_Tree_simple_types@U?$pair@$$CBEUSGuildGradeData@CPythonGuild@@@std@@@std@@@std@@QAEPAU?$_Tree_node@U?$pair@$$CBEUSGuildGradeData@CPythonGuild@@@std@@PAX@2@U?$_Tree_id@PAU?$_Tree_node@U?$pair@$$CBEUSGuildGradeData@CPythonGuild@@@std@@PAX@std@@@2@QAU32@@Z ; std::_Tree_val<std::_Tree_simple_types<std::pair<unsigned char const ,CPythonGuild::SGuildGradeData> > >::_Insert_node
PUBLIC	??1?$map@EUSGuildGradeData@CPythonGuild@@U?$less@E@std@@V?$allocator@U?$pair@$$CBEUSGuildGradeData@CPythonGuild@@@std@@@4@@std@@QAE@XZ ; std::map<unsigned char,CPythonGuild::SGuildGradeData,std::less<unsigned char>,std::allocator<std::pair<unsigned char const ,CPythonGuild::SGuildGradeData> > >::~map<unsigned char,CPythonGuild::SGuildGradeData,std::less<unsigned char>,std::allocator<std::pair<unsigned char const ,CPythonGuild::SGuildGradeData> > >
PUBLIC	?deallocate@?$allocator@USGuildMemberData@CPythonGuild@@@std@@QAEXQAUSGuildMemberData@CPythonGuild@@I@Z ; std::allocator<CPythonGuild::SGuildMemberData>::deallocate
PUBLIC	??1?$vector@USGuildMemberData@CPythonGuild@@V?$allocator@USGuildMemberData@CPythonGuild@@@std@@@std@@QAE@XZ ; std::vector<CPythonGuild::SGuildMemberData,std::allocator<CPythonGuild::SGuildMemberData> >::~vector<CPythonGuild::SGuildMemberData,std::allocator<CPythonGuild::SGuildMemberData> >
PUBLIC	?_Destroy@?$vector@USGuildMemberData@CPythonGuild@@V?$allocator@USGuildMemberData@CPythonGuild@@@std@@@std@@AAEXPAUSGuildMemberData@CPythonGuild@@0@Z ; std::vector<CPythonGuild::SGuildMemberData,std::allocator<CPythonGuild::SGuildMemberData> >::_Destroy
PUBLIC	?_Xlength@?$vector@USGuildMemberData@CPythonGuild@@V?$allocator@USGuildMemberData@CPythonGuild@@@std@@@std@@CAXXZ ; std::vector<CPythonGuild::SGuildMemberData,std::allocator<CPythonGuild::SGuildMemberData> >::_Xlength
PUBLIC	?deallocate@?$allocator@USGuildBoardCommentData@CPythonGuild@@@std@@QAEXQAUSGuildBoardCommentData@CPythonGuild@@I@Z ; std::allocator<CPythonGuild::SGuildBoardCommentData>::deallocate
PUBLIC	??1?$vector@USGuildBoardCommentData@CPythonGuild@@V?$allocator@USGuildBoardCommentData@CPythonGuild@@@std@@@std@@QAE@XZ ; std::vector<CPythonGuild::SGuildBoardCommentData,std::allocator<CPythonGuild::SGuildBoardCommentData> >::~vector<CPythonGuild::SGuildBoardCommentData,std::allocator<CPythonGuild::SGuildBoardCommentData> >
PUBLIC	?_Destroy@?$vector@USGuildBoardCommentData@CPythonGuild@@V?$allocator@USGuildBoardCommentData@CPythonGuild@@@std@@@std@@AAEXPAUSGuildBoardCommentData@CPythonGuild@@0@Z ; std::vector<CPythonGuild::SGuildBoardCommentData,std::allocator<CPythonGuild::SGuildBoardCommentData> >::_Destroy
PUBLIC	?_Xlength@?$vector@USGuildBoardCommentData@CPythonGuild@@V?$allocator@USGuildBoardCommentData@CPythonGuild@@@std@@@std@@CAXXZ ; std::vector<CPythonGuild::SGuildBoardCommentData,std::allocator<CPythonGuild::SGuildBoardCommentData> >::_Xlength
PUBLIC	??_GCPythonGuild@@UAEPAXI@Z			; CPythonGuild::`scalar deleting destructor'
PUBLIC	??1?$pair@KV?$basic_string@DU?$char_traits@D@std@@V?$allocator@D@2@@std@@@std@@QAE@XZ ; std::pair<unsigned long,std::basic_string<char,std::char_traits<char>,std::allocator<char> > >::~pair<unsigned long,std::basic_string<char,std::char_traits<char>,std::allocator<char> > >
PUBLIC	?guildIsGuildEnable@@YAPAU_object@@PAU1@0@Z	; guildIsGuildEnable
PUBLIC	?guildGetGuildID@@YAPAU_object@@PAU1@0@Z	; guildGetGuildID
PUBLIC	?guildHasGuildLand@@YAPAU_object@@PAU1@0@Z	; guildHasGuildLand
PUBLIC	?guildGetGuildName@@YAPAU_object@@PAU1@0@Z	; guildGetGuildName
PUBLIC	?guildGetGuildMasterName@@YAPAU_object@@PAU1@0@Z ; guildGetGuildMasterName
PUBLIC	?guildGetEnemyGuildName@@YAPAU_object@@PAU1@0@Z	; guildGetEnemyGuildName
PUBLIC	?guildGetGuildMoney@@YAPAU_object@@PAU1@0@Z	; guildGetGuildMoney
PUBLIC	?guildGetGuildBoardCommentCount@@YAPAU_object@@PAU1@0@Z ; guildGetGuildBoardCommentCount
PUBLIC	?guildGetGuildBoardCommentData@@YAPAU_object@@PAU1@0@Z ; guildGetGuildBoardCommentData
PUBLIC	?guildGetGuildLevel@@YAPAU_object@@PAU1@0@Z	; guildGetGuildLevel
PUBLIC	?guildGetGuildExperience@@YAPAU_object@@PAU1@0@Z ; guildGetGuildExperience
PUBLIC	?guildGetGuildMemberCount@@YAPAU_object@@PAU1@0@Z ; guildGetGuildMemberCount
PUBLIC	?guildGetGuildMemberLevelSummary@@YAPAU_object@@PAU1@0@Z ; guildGetGuildMemberLevelSummary
PUBLIC	?guildGetGuildMemberLevelAverage@@YAPAU_object@@PAU1@0@Z ; guildGetGuildMemberLevelAverage
PUBLIC	?guildGetGuildExperienceSummary@@YAPAU_object@@PAU1@0@Z ; guildGetGuildExperienceSummary
PUBLIC	?guildGetGuildSkillPoint@@YAPAU_object@@PAU1@0@Z ; guildGetGuildSkillPoint
PUBLIC	?guildGetDragonPowerPoint@@YAPAU_object@@PAU1@0@Z ; guildGetDragonPowerPoint
PUBLIC	?guildGetGuildSkillLevel@@YAPAU_object@@PAU1@0@Z ; guildGetGuildSkillLevel
PUBLIC	?guildGetSkillLevel@@YAPAU_object@@PAU1@0@Z	; guildGetSkillLevel
PUBLIC	?guildGetSkillMaxLevelNew@@YAPAU_object@@PAU1@0@Z ; guildGetSkillMaxLevelNew
PUBLIC	?guildSetSkillIndex@@YAPAU_object@@PAU1@0@Z	; guildSetSkillIndex
PUBLIC	?guildGetSkillIndex@@YAPAU_object@@PAU1@0@Z	; guildGetSkillIndex
PUBLIC	?guildGetGradeData@@YAPAU_object@@PAU1@0@Z	; guildGetGradeData
PUBLIC	?guildGetGradeName@@YAPAU_object@@PAU1@0@Z	; guildGetGradeName
PUBLIC	?guildGetMemberCount@@YAPAU_object@@PAU1@0@Z	; guildGetMemberCount
PUBLIC	?guildGetMemberData@@YAPAU_object@@PAU1@0@Z	; guildGetMemberData
PUBLIC	?guildMemberIndexToPID@@YAPAU_object@@PAU1@0@Z	; guildMemberIndexToPID
PUBLIC	?guildIsMember@@YAPAU_object@@PAU1@0@Z		; guildIsMember
PUBLIC	?guildIsMemberByName@@YAPAU_object@@PAU1@0@Z	; guildIsMemberByName
PUBLIC	?guildMainPlayerHasAuthority@@YAPAU_object@@PAU1@0@Z ; guildMainPlayerHasAuthority
PUBLIC	?guildDestroy@@YAPAU_object@@PAU1@0@Z		; guildDestroy
PUBLIC	?guildGuildIDToMarkID@@YAPAU_object@@PAU1@0@Z	; guildGuildIDToMarkID
PUBLIC	?guildGetMarkImageFilenameByMarkID@@YAPAU_object@@PAU1@0@Z ; guildGetMarkImageFilenameByMarkID
PUBLIC	?guildGetMarkIndexByMarkID@@YAPAU_object@@PAU1@0@Z ; guildGetMarkIndexByMarkID
PUBLIC	??$_Emplace_reallocate@ABUSGuildBoardCommentData@CPythonGuild@@@?$vector@USGuildBoardCommentData@CPythonGuild@@V?$allocator@USGuildBoardCommentData@CPythonGuild@@@std@@@std@@QAEPAUSGuildBoardCommentData@CPythonGuild@@QAU23@ABU23@@Z ; std::vector<CPythonGuild::SGuildBoardCommentData,std::allocator<CPythonGuild::SGuildBoardCommentData> >::_Emplace_reallocate<CPythonGuild::SGuildBoardCommentData const &>
PUBLIC	??$_Emplace_reallocate@ABUSGuildMemberData@CPythonGuild@@@?$vector@USGuildMemberData@CPythonGuild@@V?$allocator@USGuildMemberData@CPythonGuild@@@std@@@std@@QAEPAUSGuildMemberData@CPythonGuild@@QAU23@ABU23@@Z ; std::vector<CPythonGuild::SGuildMemberData,std::allocator<CPythonGuild::SGuildMemberData> >::_Emplace_reallocate<CPythonGuild::SGuildMemberData const &>
PUBLIC	??$_Erase_tree@V?$allocator@U?$_Tree_node@U?$pair@$$CBEUSGuildGradeData@CPythonGuild@@@std@@PAX@std@@@std@@@?$_Tree_val@U?$_Tree_simple_types@U?$pair@$$CBEUSGuildGradeData@CPythonGuild@@@std@@@std@@@std@@QAEXAAV?$allocator@U?$_Tree_node@U?$pair@$$CBEUSGuildGradeData@CPythonGuild@@@std@@PAX@std@@@1@PAU?$_Tree_node@U?$pair@$$CBEUSGuildGradeData@CPythonGuild@@@std@@PAX@1@@Z ; std::_Tree_val<std::_Tree_simple_types<std::pair<unsigned char const ,CPythonGuild::SGuildGradeData> > >::_Erase_tree<std::allocator<std::_Tree_node<std::pair<unsigned char const ,CPythonGuild::SGuildGradeData>,void *> > >
PUBLIC	??$_Erase_tree@V?$allocator@U?$_Tree_node@U?$pair@$$CBKK@std@@PAX@std@@@std@@@?$_Tree_val@U?$_Tree_simple_types@U?$pair@$$CBKK@std@@@std@@@std@@QAEXAAV?$allocator@U?$_Tree_node@U?$pair@$$CBKK@std@@PAX@std@@@1@PAU?$_Tree_node@U?$pair@$$CBKK@std@@PAX@1@@Z ; std::_Tree_val<std::_Tree_simple_types<std::pair<unsigned long const ,unsigned long> > >::_Erase_tree<std::allocator<std::_Tree_node<std::pair<unsigned long const ,unsigned long>,void *> > >
PUBLIC	??$_Erase_tree@V?$allocator@U?$_Tree_node@U?$pair@$$CBKV?$basic_string@DU?$char_traits@D@std@@V?$allocator@D@2@@std@@@std@@PAX@std@@@std@@@?$_Tree_val@U?$_Tree_simple_types@U?$pair@$$CBKV?$basic_string@DU?$char_traits@D@std@@V?$allocator@D@2@@std@@@std@@@std@@@std@@QAEXAAV?$allocator@U?$_Tree_node@U?$pair@$$CBKV?$basic_string@DU?$char_traits@D@std@@V?$allocator@D@2@@std@@@std@@PAX@std@@@1@PAU?$_Tree_node@U?$pair@$$CBKV?$basic_string@DU?$char_traits@D@std@@V?$allocator@D@2@@std@@@std@@PAX@1@@Z ; std::_Tree_val<std::_Tree_simple_types<std::pair<unsigned long const ,std::basic_string<char,std::char_traits<char>,std::allocator<char> > > > >::_Erase_tree<std::allocator<std::_Tree_node<std::pair<unsigned long const ,std::basic_string<char,std::char_traits<char>,std::allocator<char> > >,void *> > >
PUBLIC	??$_Destroy_range@V?$allocator@USGuildBoardCommentData@CPythonGuild@@@std@@@std@@YAXPAUSGuildBoardCommentData@CPythonGuild@@QAU12@AAV?$allocator@USGuildBoardCommentData@CPythonGuild@@@0@@Z ; std::_Destroy_range<std::allocator<CPythonGuild::SGuildBoardCommentData> >
PUBLIC	??$_Destroy_range@V?$allocator@USGuildMemberData@CPythonGuild@@@std@@@std@@YAXPAUSGuildMemberData@CPythonGuild@@QAU12@AAV?$allocator@USGuildMemberData@CPythonGuild@@@0@@Z ; std::_Destroy_range<std::allocator<CPythonGuild::SGuildMemberData> >
PUBLIC	??$_Pocca@V?$allocator@D@std@@@std@@YAXAAV?$allocator@D@0@ABV10@@Z ; std::_Pocca<std::allocator<char> >
PUBLIC	??$_Sort_unchecked@PAUSGuildMemberData@CPythonGuild@@UCPythonGuild_SLessMemberGrade@@@std@@YAXPAUSGuildMemberData@CPythonGuild@@0HUCPythonGuild_SLessMemberGrade@@@Z ; std::_Sort_unchecked<CPythonGuild::SGuildMemberData *,CPythonGuild_SLessMemberGrade>
PUBLIC	??$_Find_lower_bound@E@?$_Tree@V?$_Tmap_traits@EUSGuildGradeData@CPythonGuild@@U?$less@E@std@@V?$allocator@U?$pair@$$CBEUSGuildGradeData@CPythonGuild@@@std@@@4@$0A@@std@@@std@@IBE?AU?$_Tree_find_result@PAU?$_Tree_node@U?$pair@$$CBEUSGuildGradeData@CPythonGuild@@@std@@PAX@std@@@1@ABE@Z ; std::_Tree<std::_Tmap_traits<unsigned char,CPythonGuild::SGuildGradeData,std::less<unsigned char>,std::allocator<std::pair<unsigned char const ,CPythonGuild::SGuildGradeData> >,0> >::_Find_lower_bound<unsigned char>
PUBLIC	??1?$_Alloc_construct_ptr@V?$allocator@U?$_Tree_node@U?$pair@$$CBEUSGuildGradeData@CPythonGuild@@@std@@PAX@std@@@std@@@std@@QAE@XZ ; std::_Alloc_construct_ptr<std::allocator<std::_Tree_node<std::pair<unsigned char const ,CPythonGuild::SGuildGradeData>,void *> > >::~_Alloc_construct_ptr<std::allocator<std::_Tree_node<std::pair<unsigned char const ,CPythonGuild::SGuildGradeData>,void *> > >
PUBLIC	??$_Find_lower_bound@K@?$_Tree@V?$_Tmap_traits@KKU?$less@K@std@@V?$allocator@U?$pair@$$CBKK@std@@@2@$0A@@std@@@std@@IBE?AU?$_Tree_find_result@PAU?$_Tree_node@U?$pair@$$CBKK@std@@PAX@std@@@1@ABK@Z ; std::_Tree<std::_Tmap_traits<unsigned long,unsigned long,std::less<unsigned long>,std::allocator<std::pair<unsigned long const ,unsigned long> >,0> >::_Find_lower_bound<unsigned long>
PUBLIC	??$_Find_lower_bound@K@?$_Tree@V?$_Tmap_traits@KV?$basic_string@DU?$char_traits@D@std@@V?$allocator@D@2@@std@@U?$less@K@2@V?$allocator@U?$pair@$$CBKV?$basic_string@DU?$char_traits@D@std@@V?$allocator@D@2@@std@@@std@@@2@$0A@@std@@@std@@IBE?AU?$_Tree_find_result@PAU?$_Tree_node@U?$pair@$$CBKV?$basic_string@DU?$char_traits@D@std@@V?$allocator@D@2@@std@@@std@@PAX@std@@@1@ABK@Z ; std::_Tree<std::_Tmap_traits<unsigned long,std::basic_string<char,std::char_traits<char>,std::allocator<char> >,std::less<unsigned long>,std::allocator<std::pair<unsigned long const ,std::basic_string<char,std::char_traits<char>,std::allocator<char> > > >,0> >::_Find_lower_bound<unsigned long>
PUBLIC	??1?$_Alloc_construct_ptr@V?$allocator@U?$_Tree_node@U?$pair@$$CBKV?$basic_string@DU?$char_traits@D@std@@V?$allocator@D@2@@std@@@std@@PAX@std@@@std@@@std@@QAE@XZ ; std::_Alloc_construct_ptr<std::allocator<std::_Tree_node<std::pair<unsigned long const ,std::basic_string<char,std::char_traits<char>,std::allocator<char> > >,void *> > >::~_Alloc_construct_ptr<std::allocator<std::_Tree_node<std::pair<unsigned long const ,std::basic_string<char,std::char_traits<char>,std::allocator<char> > >,void *> > >
PUBLIC	??$_Construct_in_place@PAU?$_Tree_node@U?$pair@$$CBEUSGuildGradeData@CPythonGuild@@@std@@PAX@std@@ABQAU12@@std@@YAXAAPAU?$_Tree_node@U?$pair@$$CBEUSGuildGradeData@CPythonGuild@@@std@@PAX@0@ABQAU10@@Z ; std::_Construct_in_place<std::_Tree_node<std::pair<unsigned char const ,CPythonGuild::SGuildGradeData>,void *> *,std::_Tree_node<std::pair<unsigned char const ,CPythonGuild::SGuildGradeData>,void *> * const &>
PUBLIC	??$_Construct_in_place@PAU?$_Tree_node@U?$pair@$$CBKK@std@@PAX@std@@ABQAU12@@std@@YAXAAPAU?$_Tree_node@U?$pair@$$CBKK@std@@PAX@0@ABQAU10@@Z ; std::_Construct_in_place<std::_Tree_node<std::pair<unsigned long const ,unsigned long>,void *> *,std::_Tree_node<std::pair<unsigned long const ,unsigned long>,void *> * const &>
PUBLIC	??$_Construct_in_place@PAU?$_Tree_node@U?$pair@$$CBKV?$basic_string@DU?$char_traits@D@std@@V?$allocator@D@2@@std@@@std@@PAX@std@@ABQAU12@@std@@YAXAAPAU?$_Tree_node@U?$pair@$$CBKV?$basic_string@DU?$char_traits@D@std@@V?$allocator@D@2@@std@@@std@@PAX@0@ABQAU10@@Z ; std::_Construct_in_place<std::_Tree_node<std::pair<unsigned long const ,std::basic_string<char,std::char_traits<char>,std::allocator<char> > >,void *> *,std::_Tree_node<std::pair<unsigned long const ,std::basic_string<char,std::char_traits<char>,std::allocator<char> > >,void *> * const &>
PUBLIC	??$_Destroy_in_place@PAU?$_Tree_node@U?$pair@$$CBKV?$basic_string@DU?$char_traits@D@std@@V?$allocator@D@2@@std@@@std@@PAX@std@@@std@@YAXAAPAU?$_Tree_node@U?$pair@$$CBKV?$basic_string@DU?$char_traits@D@std@@V?$allocator@D@2@@std@@@std@@PAX@0@@Z ; std::_Destroy_in_place<std::_Tree_node<std::pair<unsigned long const ,std::basic_string<char,std::char_traits<char>,std::allocator<char> > >,void *> *>
PUBLIC	??$_Destroy_in_place@PAU?$_Tree_node@U?$pair@$$CBEUSGuildGradeData@CPythonGuild@@@std@@PAX@std@@@std@@YAXAAPAU?$_Tree_node@U?$pair@$$CBEUSGuildGradeData@CPythonGuild@@@std@@PAX@0@@Z ; std::_Destroy_in_place<std::_Tree_node<std::pair<unsigned char const ,CPythonGuild::SGuildGradeData>,void *> *>
PUBLIC	??$_Uninitialized_move@PAUSGuildBoardCommentData@CPythonGuild@@V?$allocator@USGuildBoardCommentData@CPythonGuild@@@std@@@std@@YAPAUSGuildBoardCommentData@CPythonGuild@@QAU12@0PAU12@AAV?$allocator@USGuildBoardCommentData@CPythonGuild@@@0@@Z ; std::_Uninitialized_move<CPythonGuild::SGuildBoardCommentData *,std::allocator<CPythonGuild::SGuildBoardCommentData> >
PUBLIC	??$_Uninitialized_move@PAUSGuildMemberData@CPythonGuild@@V?$allocator@USGuildMemberData@CPythonGuild@@@std@@@std@@YAPAUSGuildMemberData@CPythonGuild@@QAU12@0PAU12@AAV?$allocator@USGuildMemberData@CPythonGuild@@@0@@Z ; std::_Uninitialized_move<CPythonGuild::SGuildMemberData *,std::allocator<CPythonGuild::SGuildMemberData> >
PUBLIC	??$_Insertion_sort_unchecked@PAUSGuildMemberData@CPythonGuild@@UCPythonGuild_SLessMemberGrade@@@std@@YAPAUSGuildMemberData@CPythonGuild@@QAU12@0UCPythonGuild_SLessMemberGrade@@@Z ; std::_Insertion_sort_unchecked<CPythonGuild::SGuildMemberData *,CPythonGuild_SLessMemberGrade>
PUBLIC	??$_Partition_by_median_guess_unchecked@PAUSGuildMemberData@CPythonGuild@@UCPythonGuild_SLessMemberGrade@@@std@@YA?AU?$pair@PAUSGuildMemberData@CPythonGuild@@PAU12@@0@PAUSGuildMemberData@CPythonGuild@@0UCPythonGuild_SLessMemberGrade@@@Z ; std::_Partition_by_median_guess_unchecked<CPythonGuild::SGuildMemberData *,CPythonGuild_SLessMemberGrade>
PUBLIC	??$_Construct_in_place@PAU?$_Tree_node@U?$pair@$$CBEUSGuildGradeData@CPythonGuild@@@std@@PAX@std@@AAPAU12@@std@@YAXAAPAU?$_Tree_node@U?$pair@$$CBEUSGuildGradeData@CPythonGuild@@@std@@PAX@0@0@Z ; std::_Construct_in_place<std::_Tree_node<std::pair<unsigned char const ,CPythonGuild::SGuildGradeData>,void *> *,std::_Tree_node<std::pair<unsigned char const ,CPythonGuild::SGuildGradeData>,void *> * &>
PUBLIC	??$_Destroy_in_place@PAU?$_Tree_node@U?$pair@$$CBKK@std@@PAX@std@@@std@@YAXAAPAU?$_Tree_node@U?$pair@$$CBKK@std@@PAX@0@@Z ; std::_Destroy_in_place<std::_Tree_node<std::pair<unsigned long const ,unsigned long>,void *> *>
PUBLIC	??$_Construct_in_place@PAU?$_Tree_node@U?$pair@$$CBKV?$basic_string@DU?$char_traits@D@std@@V?$allocator@D@2@@std@@@std@@PAX@std@@AAPAU12@@std@@YAXAAPAU?$_Tree_node@U?$pair@$$CBKV?$basic_string@DU?$char_traits@D@std@@V?$allocator@D@2@@std@@@std@@PAX@0@0@Z ; std::_Construct_in_place<std::_Tree_node<std::pair<unsigned long const ,std::basic_string<char,std::char_traits<char>,std::allocator<char> > >,void *> *,std::_Tree_node<std::pair<unsigned long const ,std::basic_string<char,std::char_traits<char>,std::allocator<char> > >,void *> * &>
PUBLIC	??$_Refancy@PAUSGuildMemberData@CPythonGuild@@$0A@@std@@YAPAUSGuildMemberData@CPythonGuild@@PAU12@@Z ; std::_Refancy<CPythonGuild::SGuildMemberData *,0>
PUBLIC	??$_Pop_heap_hole_by_index@PAUSGuildMemberData@CPythonGuild@@U12@UCPythonGuild_SLessMemberGrade@@@std@@YAXPAUSGuildMemberData@CPythonGuild@@HH$$QAU12@UCPythonGuild_SLessMemberGrade@@@Z ; std::_Pop_heap_hole_by_index<CPythonGuild::SGuildMemberData *,CPythonGuild::SGuildMemberData,CPythonGuild_SLessMemberGrade>
PUBLIC	??$_Guess_median_unchecked@PAUSGuildMemberData@CPythonGuild@@UCPythonGuild_SLessMemberGrade@@@std@@YAXPAUSGuildMemberData@CPythonGuild@@00UCPythonGuild_SLessMemberGrade@@@Z ; std::_Guess_median_unchecked<CPythonGuild::SGuildMemberData *,CPythonGuild_SLessMemberGrade>
PUBLIC	??$iter_swap@PAUSGuildMemberData@CPythonGuild@@PAU12@@std@@YAXPAUSGuildMemberData@CPythonGuild@@0@Z ; std::iter_swap<CPythonGuild::SGuildMemberData *,CPythonGuild::SGuildMemberData *>
PUBLIC	??1?$_Alloc_construct_ptr@V?$allocator@U?$_Tree_node@U?$pair@$$CBKK@std@@PAX@std@@@std@@@std@@QAE@XZ ; std::_Alloc_construct_ptr<std::allocator<std::_Tree_node<std::pair<unsigned long const ,unsigned long>,void *> > >::~_Alloc_construct_ptr<std::allocator<std::_Tree_node<std::pair<unsigned long const ,unsigned long>,void *> > >
PUBLIC	??1?$_Tree_temp_node@V?$allocator@U?$_Tree_node@U?$pair@$$CBKK@std@@PAX@std@@@std@@@std@@QAE@XZ ; std::_Tree_temp_node<std::allocator<std::_Tree_node<std::pair<unsigned long const ,unsigned long>,void *> > >::~_Tree_temp_node<std::allocator<std::_Tree_node<std::pair<unsigned long const ,unsigned long>,void *> > >
PUBLIC	??$_Construct_in_place@PAU?$_Tree_node@U?$pair@$$CBKK@std@@PAX@std@@AAPAU12@@std@@YAXAAPAU?$_Tree_node@U?$pair@$$CBKK@std@@PAX@0@0@Z ; std::_Construct_in_place<std::_Tree_node<std::pair<unsigned long const ,unsigned long>,void *> *,std::_Tree_node<std::pair<unsigned long const ,unsigned long>,void *> * &>
PUBLIC	??_7exception@std@@6B@				; std::exception::`vftable'
PUBLIC	??_C@_0BC@EOODALEL@Unknown?5exception@		; `string'
PUBLIC	??_7bad_alloc@std@@6B@				; std::bad_alloc::`vftable'
PUBLIC	??_7bad_array_new_length@std@@6B@		; std::bad_array_new_length::`vftable'
PUBLIC	??_C@_0BF@KINCDENJ@bad?5array?5new?5length@	; `string'
PUBLIC	__TI3?AVbad_array_new_length@std@@
PUBLIC	__CTA3?AVbad_array_new_length@std@@
PUBLIC	??_R0?AVbad_array_new_length@std@@@8		; std::bad_array_new_length `RTTI Type Descriptor'
PUBLIC	__CT??_R0?AVbad_array_new_length@std@@@8??0bad_array_new_length@std@@QAE@ABV01@@Z12
PUBLIC	??_R0?AVbad_alloc@std@@@8			; std::bad_alloc `RTTI Type Descriptor'
PUBLIC	__CT??_R0?AVbad_alloc@std@@@8??0bad_alloc@std@@QAE@ABV01@@Z12
PUBLIC	??_R0?AVexception@std@@@8			; std::exception `RTTI Type Descriptor'
PUBLIC	__CT??_R0?AVexception@std@@@8??0exception@std@@QAE@ABV01@@Z12
PUBLIC	??_C@_0BA@JFNIOLAK@string?5too?5long@		; `string'
PUBLIC	??_C@_0BB@GCADKGJO@map?1set?5too?5long@		; `string'
PUBLIC	??_C@_00CNPNBAHC@@				; `string'
PUBLIC	??_C@_0BA@FOIKENOD@vector?5too?5long@		; `string'
PUBLIC	??_R4exception@std@@6B@				; std::exception::`RTTI Complete Object Locator'
PUBLIC	??_R3exception@std@@8				; std::exception::`RTTI Class Hierarchy Descriptor'
PUBLIC	??_R2exception@std@@8				; std::exception::`RTTI Base Class Array'
PUBLIC	??_R1A@?0A@EA@exception@std@@8			; std::exception::`RTTI Base Class Descriptor at (0,-1,0,64)'
PUBLIC	??_R4bad_alloc@std@@6B@				; std::bad_alloc::`RTTI Complete Object Locator'
PUBLIC	??_R3bad_alloc@std@@8				; std::bad_alloc::`RTTI Class Hierarchy Descriptor'
PUBLIC	??_R2bad_alloc@std@@8				; std::bad_alloc::`RTTI Base Class Array'
PUBLIC	??_R1A@?0A@EA@bad_alloc@std@@8			; std::bad_alloc::`RTTI Base Class Descriptor at (0,-1,0,64)'
PUBLIC	??_R4bad_array_new_length@std@@6B@		; std::bad_array_new_length::`RTTI Complete Object Locator'
PUBLIC	??_R3bad_array_new_length@std@@8		; std::bad_array_new_length::`RTTI Class Hierarchy Descriptor'
PUBLIC	??_R2bad_array_new_length@std@@8		; std::bad_array_new_length::`RTTI Base Class Array'
PUBLIC	??_R1A@?0A@EA@bad_array_new_length@std@@8	; std::bad_array_new_length::`RTTI Base Class Descriptor at (0,-1,0,64)'
PUBLIC	?ms_singleton@?$CSingleton@VCPythonGuild@@@@0PAVCPythonGuild@@A ; CSingleton<CPythonGuild>::ms_singleton
PUBLIC	??_7?$CSingleton@VCPythonGuild@@@@6B@		; CSingleton<CPythonGuild>::`vftable'
PUBLIC	??_7CPythonGuild@@6B@				; CPythonGuild::`vftable'
PUBLIC	?ms_singleton@?$TAbstractSingleton@VIAbstractPlayer@@@@0PAVIAbstractPlayer@@A ; TAbstractSingleton<IAbstractPlayer>::ms_singleton
PUBLIC	?ms_singleton@?$singleton@VCGuildMarkManager@@@@0PAVCGuildMarkManager@@A ; singleton<CGuildMarkManager>::ms_singleton
PUBLIC	?g_GuildSkillSlotToIndexMap@@3V?$map@KKU?$less@K@std@@V?$allocator@U?$pair@$$CBKK@std@@@2@@std@@A ; g_GuildSkillSlotToIndexMap
PUBLIC	??_C@_01KBJDNOO@i@				; `string'
PUBLIC	??_C@_01LKDEMHDF@s@				; `string'
PUBLIC	??_C@_06HCBIANPB@Noname@			; `string'
PUBLIC	??_C@_03MKDAGEFG@iss@				; `string'
PUBLIC	??_C@_02PDIHAGKM@ii@				; `string'
PUBLIC	??_C@_01OGPIMHDM@?$DP@				; `string'
PUBLIC	??_C@_02OCDGCAAK@si@				; `string'
PUBLIC	??_C@_07IGDHICNG@isiiiii@			; `string'
PUBLIC	??_C@_0O@IGOIDFGB@IsGuildEnable@		; `string'
PUBLIC	??_C@_0BA@BGLAIPMB@GuildIDToMarkID@		; `string'
PUBLIC	??_C@_0BN@OMLCOGDL@GetMarkImageFilenameByMarkID@ ; `string'
PUBLIC	??_C@_0BF@BKGLMLAL@GetMarkIndexByMarkID@	; `string'
PUBLIC	??_C@_0L@EAKBLDCO@GetGuildID@			; `string'
PUBLIC	??_C@_0N@EIPGMIIH@HasGuildLand@			; `string'
PUBLIC	??_C@_0N@CECGOPDG@GetGuildName@			; `string'
PUBLIC	??_C@_0BD@CMPDBKGA@GetGuildMasterName@		; `string'
PUBLIC	??_C@_0BC@DLHGICPJ@GetEnemyGuildName@		; `string'
PUBLIC	??_C@_0O@BKHCBCOI@GetGuildMoney@		; `string'
PUBLIC	??_C@_0BK@OMNAMAPH@GetGuildBoardCommentCount@	; `string'
PUBLIC	??_C@_0BJ@DAPPLJDP@GetGuildBoardCommentData@	; `string'
PUBLIC	??_C@_0O@DJIGEAII@GetGuildLevel@		; `string'
PUBLIC	??_C@_0BD@OLJDCPCG@GetGuildExperience@		; `string'
PUBLIC	??_C@_0BE@MKPPOKLM@GetGuildMemberCount@		; `string'
PUBLIC	??_C@_0BL@KCOANOCD@GetGuildMemberLevelSummary@	; `string'
PUBLIC	??_C@_0BL@FPOPEMBA@GetGuildMemberLevelAverage@	; `string'
PUBLIC	??_C@_0BK@FHGMGKIK@GetGuildExperienceSummary@	; `string'
PUBLIC	??_C@_0BD@OGJHNFOJ@GetGuildSkillPoint@		; `string'
PUBLIC	??_C@_0BE@EIFJKAMD@GetDragonPowerPoint@		; `string'
PUBLIC	??_C@_0BD@FOAHDPNJ@GetGuildSkillLevel@		; `string'
PUBLIC	??_C@_0O@CNCBAIPN@GetSkillLevel@		; `string'
PUBLIC	??_C@_0BE@GLCFFECD@GetSkillMaxLevelNew@		; `string'
PUBLIC	??_C@_0O@KBJMFDGJ@SetSkillIndex@		; `string'
PUBLIC	??_C@_0O@NOICOABO@GetSkillIndex@		; `string'
PUBLIC	??_C@_0N@FGDKEBNC@GetGradeData@			; `string'
PUBLIC	??_C@_0N@GLBBAEII@GetGradeName@			; `string'
PUBLIC	??_C@_0P@PGIPCIFK@GetMemberCount@		; `string'
PUBLIC	??_C@_0O@LFMDGJCL@GetMemberData@		; `string'
PUBLIC	??_C@_0BB@LKNIPIHL@MemberIndexToPID@		; `string'
PUBLIC	??_C@_08JHGFNMOF@IsMember@			; `string'
PUBLIC	??_C@_0P@DNENDIKL@IsMemberByName@		; `string'
PUBLIC	??_C@_0BH@HJLEBIMC@MainPlayerHasAuthority@	; `string'
PUBLIC	??_C@_07BDCAJABG@Destroy@			; `string'
PUBLIC	??_C@_05GMIMCKGP@guild@				; `string'
PUBLIC	??_C@_0BA@CDIOGLAE@AUTH_ADD_MEMBER@		; `string'
PUBLIC	??_C@_0BD@EFPDFGGE@AUTH_REMOVE_MEMBER@		; `string'
PUBLIC	??_C@_0M@EBNBJFNG@AUTH_NOTICE@			; `string'
PUBLIC	??_C@_0L@LKLBOFFH@AUTH_SKILL@			; `string'
PUBLIC	??_C@_0BL@EBPMCBIK@ENEMY_GUILD_SLOT_MAX_COUNT@	; `string'
PUBLIC	??_R4CPythonGuild@@6B@				; CPythonGuild::`RTTI Complete Object Locator'
PUBLIC	??_R0?AVCPythonGuild@@@8			; CPythonGuild `RTTI Type Descriptor'
PUBLIC	??_R3CPythonGuild@@8				; CPythonGuild::`RTTI Class Hierarchy Descriptor'
PUBLIC	??_R2CPythonGuild@@8				; CPythonGuild::`RTTI Base Class Array'
PUBLIC	??_R1A@?0A@EA@CPythonGuild@@8			; CPythonGuild::`RTTI Base Class Descriptor at (0,-1,0,64)'
PUBLIC	??_R1A@?0A@EA@?$CSingleton@VCPythonGuild@@@@8	; CSingleton<CPythonGuild>::`RTTI Base Class Descriptor at (0,-1,0,64)'
PUBLIC	??_R0?AV?$CSingleton@VCPythonGuild@@@@@8	; CSingleton<CPythonGuild> `RTTI Type Descriptor'
PUBLIC	??_R3?$CSingleton@VCPythonGuild@@@@8		; CSingleton<CPythonGuild>::`RTTI Class Hierarchy Descriptor'
PUBLIC	??_R2?$CSingleton@VCPythonGuild@@@@8		; CSingleton<CPythonGuild>::`RTTI Base Class Array'
PUBLIC	??_R4?$CSingleton@VCPythonGuild@@@@6B@		; CSingleton<CPythonGuild>::`RTTI Complete Object Locator'
EXTRN	??2@YAPAXI@Z:PROC				; operator new
EXTRN	??3@YAXPAXI@Z:PROC				; operator delete
EXTRN	_atexit:PROC
EXTRN	__invalid_parameter_noinfo_noreturn:PROC
EXTRN	___std_exception_copy:PROC
EXTRN	___std_exception_destroy:PROC
EXTRN	??_Eexception@std@@UAEPAXI@Z:PROC		; std::exception::`vector deleting destructor'
EXTRN	??_Ebad_alloc@std@@UAEPAXI@Z:PROC		; std::bad_alloc::`vector deleting destructor'
EXTRN	??_Ebad_array_new_length@std@@UAEPAXI@Z:PROC	; std::bad_array_new_length::`vector deleting destructor'
EXTRN	?_Xlength_error@std@@YAXPBD@Z:PROC		; std::_Xlength_error
EXTRN	__imp__Py_BuildValue:PROC
EXTRN	__imp__PyModule_AddIntConstant:PROC
EXTRN	__imp__Py_InitModule4:PROC
EXTRN	?PyTuple_GetString@@YA_NPAU_object@@HPAPAD@Z:PROC ; PyTuple_GetString
EXTRN	?PyTuple_GetInteger@@YA_NPAU_object@@HPAH@Z:PROC ; PyTuple_GetInteger
EXTRN	?Py_BuildException@@YAPAU_object@@PBDZZ:PROC	; Py_BuildException
EXTRN	?Py_BuildNone@@YAPAU_object@@XZ:PROC		; Py_BuildNone
EXTRN	?LocaleService_GetLastExp@@YAIH@Z:PROC		; LocaleService_GetLastExp
EXTRN	??_E?$CSingleton@VCPythonGuild@@@@UAEPAXI@Z:PROC ; CSingleton<CPythonGuild>::`vector deleting destructor'
EXTRN	??_ECPythonGuild@@UAEPAXI@Z:PROC		; CPythonGuild::`vector deleting destructor'
EXTRN	?GetMarkImageFilename@CGuildMarkManager@@QBE_NKAAV?$basic_string@DU?$char_traits@D@std@@V?$allocator@D@2@@std@@@Z:PROC ; CGuildMarkManager::GetMarkImageFilename
EXTRN	?GetMarkID@CGuildMarkManager@@QAEKK@Z:PROC	; CGuildMarkManager::GetMarkID
EXTRN	@__security_check_cookie@4:PROC
EXTRN	__CxxThrowException@8:PROC
EXTRN	___CxxFrameHandler3:PROC
EXTRN	_memcpy:PROC
EXTRN	_memmove:PROC
EXTRN	_memset:PROC
EXTRN	??_7type_info@@6B@:QWORD			; type_info::`vftable'
EXTRN	___security_cookie:DWORD
;	COMDAT ?ms_singleton@?$CSingleton@VCPythonGuild@@@@0PAVCPythonGuild@@A
_BSS	SEGMENT
?ms_singleton@?$CSingleton@VCPythonGuild@@@@0PAVCPythonGuild@@A DD 01H DUP (?) ; CSingleton<CPythonGuild>::ms_singleton
_BSS	ENDS
;	COMDAT ?ms_singleton@?$TAbstractSingleton@VIAbstractPlayer@@@@0PAVIAbstractPlayer@@A
_BSS	SEGMENT
?ms_singleton@?$TAbstractSingleton@VIAbstractPlayer@@@@0PAVIAbstractPlayer@@A DD 01H DUP (?) ; TAbstractSingleton<IAbstractPlayer>::ms_singleton
_BSS	ENDS
;	COMDAT ?ms_singleton@?$singleton@VCGuildMarkManager@@@@0PAVCGuildMarkManager@@A
_BSS	SEGMENT
?ms_singleton@?$singleton@VCGuildMarkManager@@@@0PAVCGuildMarkManager@@A DD 01H DUP (?) ; singleton<CGuildMarkManager>::ms_singleton
_BSS	ENDS
_BSS	SEGMENT
?g_GuildSkillSlotToIndexMap@@3V?$map@KKU?$less@K@std@@V?$allocator@U?$pair@$$CBKK@std@@@2@@std@@A DQ 01H DUP (?) ; g_GuildSkillSlotToIndexMap
_BSS	ENDS
CRT$XCU	SEGMENT
?g_GuildSkillSlotToIndexMap$initializer$@@3P6AXXZA DD FLAT:??__Eg_GuildSkillSlotToIndexMap@@YAXXZ ; g_GuildSkillSlotToIndexMap$initializer$
CRT$XCU	ENDS
;	COMDAT ??_R4?$CSingleton@VCPythonGuild@@@@6B@
rdata$r	SEGMENT
??_R4?$CSingleton@VCPythonGuild@@@@6B@ DD 00H		; CSingleton<CPythonGuild>::`RTTI Complete Object Locator'
	DD	00H
	DD	00H
	DD	FLAT:??_R0?AV?$CSingleton@VCPythonGuild@@@@@8
	DD	FLAT:??_R3?$CSingleton@VCPythonGuild@@@@8
rdata$r	ENDS
;	COMDAT ??_R2?$CSingleton@VCPythonGuild@@@@8
rdata$r	SEGMENT
??_R2?$CSingleton@VCPythonGuild@@@@8 DD FLAT:??_R1A@?0A@EA@?$CSingleton@VCPythonGuild@@@@8 ; CSingleton<CPythonGuild>::`RTTI Base Class Array'
rdata$r	ENDS
;	COMDAT ??_R3?$CSingleton@VCPythonGuild@@@@8
rdata$r	SEGMENT
??_R3?$CSingleton@VCPythonGuild@@@@8 DD 00H		; CSingleton<CPythonGuild>::`RTTI Class Hierarchy Descriptor'
	DD	00H
	DD	01H
	DD	FLAT:??_R2?$CSingleton@VCPythonGuild@@@@8
rdata$r	ENDS
;	COMDAT ??_R0?AV?$CSingleton@VCPythonGuild@@@@@8
data$rs	SEGMENT
??_R0?AV?$CSingleton@VCPythonGuild@@@@@8 DD FLAT:??_7type_info@@6B@ ; CSingleton<CPythonGuild> `RTTI Type Descriptor'
	DD	00H
	DB	'.?AV?$CSingleton@VCPythonGuild@@@@', 00H
data$rs	ENDS
;	COMDAT ??_R1A@?0A@EA@?$CSingleton@VCPythonGuild@@@@8
rdata$r	SEGMENT
??_R1A@?0A@EA@?$CSingleton@VCPythonGuild@@@@8 DD FLAT:??_R0?AV?$CSingleton@VCPythonGuild@@@@@8 ; CSingleton<CPythonGuild>::`RTTI Base Class Descriptor at (0,-1,0,64)'
	DD	00H
	DD	00H
	DD	0ffffffffH
	DD	00H
	DD	040H
	DD	FLAT:??_R3?$CSingleton@VCPythonGuild@@@@8
rdata$r	ENDS
;	COMDAT ??_R1A@?0A@EA@CPythonGuild@@8
rdata$r	SEGMENT
??_R1A@?0A@EA@CPythonGuild@@8 DD FLAT:??_R0?AVCPythonGuild@@@8 ; CPythonGuild::`RTTI Base Class Descriptor at (0,-1,0,64)'
	DD	01H
	DD	00H
	DD	0ffffffffH
	DD	00H
	DD	040H
	DD	FLAT:??_R3CPythonGuild@@8
rdata$r	ENDS
;	COMDAT ??_R2CPythonGuild@@8
rdata$r	SEGMENT
??_R2CPythonGuild@@8 DD FLAT:??_R1A@?0A@EA@CPythonGuild@@8 ; CPythonGuild::`RTTI Base Class Array'
	DD	FLAT:??_R1A@?0A@EA@?$CSingleton@VCPythonGuild@@@@8
rdata$r	ENDS
;	COMDAT ??_R3CPythonGuild@@8
rdata$r	SEGMENT
??_R3CPythonGuild@@8 DD 00H				; CPythonGuild::`RTTI Class Hierarchy Descriptor'
	DD	00H
	DD	02H
	DD	FLAT:??_R2CPythonGuild@@8
rdata$r	ENDS
;	COMDAT ??_R0?AVCPythonGuild@@@8
data$rs	SEGMENT
??_R0?AVCPythonGuild@@@8 DD FLAT:??_7type_info@@6B@	; CPythonGuild `RTTI Type Descriptor'
	DD	00H
	DB	'.?AVCPythonGuild@@', 00H
data$rs	ENDS
;	COMDAT ??_R4CPythonGuild@@6B@
rdata$r	SEGMENT
??_R4CPythonGuild@@6B@ DD 00H				; CPythonGuild::`RTTI Complete Object Locator'
	DD	00H
	DD	00H
	DD	FLAT:??_R0?AVCPythonGuild@@@8
	DD	FLAT:??_R3CPythonGuild@@8
rdata$r	ENDS
;	COMDAT ??_C@_0BL@EBPMCBIK@ENEMY_GUILD_SLOT_MAX_COUNT@
CONST	SEGMENT
??_C@_0BL@EBPMCBIK@ENEMY_GUILD_SLOT_MAX_COUNT@ DB 'ENEMY_GUILD_SLOT_MAX_C'
	DB	'OUNT', 00H					; `string'
CONST	ENDS
;	COMDAT ??_C@_0L@LKLBOFFH@AUTH_SKILL@
CONST	SEGMENT
??_C@_0L@LKLBOFFH@AUTH_SKILL@ DB 'AUTH_SKILL', 00H	; `string'
CONST	ENDS
;	COMDAT ??_C@_0M@EBNBJFNG@AUTH_NOTICE@
CONST	SEGMENT
??_C@_0M@EBNBJFNG@AUTH_NOTICE@ DB 'AUTH_NOTICE', 00H	; `string'
CONST	ENDS
;	COMDAT ??_C@_0BD@EFPDFGGE@AUTH_REMOVE_MEMBER@
CONST	SEGMENT
??_C@_0BD@EFPDFGGE@AUTH_REMOVE_MEMBER@ DB 'AUTH_REMOVE_MEMBER', 00H ; `string'
CONST	ENDS
;	COMDAT ??_C@_0BA@CDIOGLAE@AUTH_ADD_MEMBER@
CONST	SEGMENT
??_C@_0BA@CDIOGLAE@AUTH_ADD_MEMBER@ DB 'AUTH_ADD_MEMBER', 00H ; `string'
CONST	ENDS
;	COMDAT ??_C@_05GMIMCKGP@guild@
CONST	SEGMENT
??_C@_05GMIMCKGP@guild@ DB 'guild', 00H			; `string'
CONST	ENDS
;	COMDAT ??_C@_07BDCAJABG@Destroy@
CONST	SEGMENT
??_C@_07BDCAJABG@Destroy@ DB 'Destroy', 00H		; `string'
CONST	ENDS
;	COMDAT ??_C@_0BH@HJLEBIMC@MainPlayerHasAuthority@
CONST	SEGMENT
??_C@_0BH@HJLEBIMC@MainPlayerHasAuthority@ DB 'MainPlayerHasAuthority', 00H ; `string'
CONST	ENDS
;	COMDAT ??_C@_0P@DNENDIKL@IsMemberByName@
CONST	SEGMENT
??_C@_0P@DNENDIKL@IsMemberByName@ DB 'IsMemberByName', 00H ; `string'
CONST	ENDS
;	COMDAT ??_C@_08JHGFNMOF@IsMember@
CONST	SEGMENT
??_C@_08JHGFNMOF@IsMember@ DB 'IsMember', 00H		; `string'
CONST	ENDS
;	COMDAT ??_C@_0BB@LKNIPIHL@MemberIndexToPID@
CONST	SEGMENT
??_C@_0BB@LKNIPIHL@MemberIndexToPID@ DB 'MemberIndexToPID', 00H ; `string'
CONST	ENDS
;	COMDAT ??_C@_0O@LFMDGJCL@GetMemberData@
CONST	SEGMENT
??_C@_0O@LFMDGJCL@GetMemberData@ DB 'GetMemberData', 00H ; `string'
CONST	ENDS
;	COMDAT ??_C@_0P@PGIPCIFK@GetMemberCount@
CONST	SEGMENT
??_C@_0P@PGIPCIFK@GetMemberCount@ DB 'GetMemberCount', 00H ; `string'
CONST	ENDS
;	COMDAT ??_C@_0N@GLBBAEII@GetGradeName@
CONST	SEGMENT
??_C@_0N@GLBBAEII@GetGradeName@ DB 'GetGradeName', 00H	; `string'
CONST	ENDS
;	COMDAT ??_C@_0N@FGDKEBNC@GetGradeData@
CONST	SEGMENT
??_C@_0N@FGDKEBNC@GetGradeData@ DB 'GetGradeData', 00H	; `string'
CONST	ENDS
;	COMDAT ??_C@_0O@NOICOABO@GetSkillIndex@
CONST	SEGMENT
??_C@_0O@NOICOABO@GetSkillIndex@ DB 'GetSkillIndex', 00H ; `string'
CONST	ENDS
;	COMDAT ??_C@_0O@KBJMFDGJ@SetSkillIndex@
CONST	SEGMENT
??_C@_0O@KBJMFDGJ@SetSkillIndex@ DB 'SetSkillIndex', 00H ; `string'
CONST	ENDS
;	COMDAT ??_C@_0BE@GLCFFECD@GetSkillMaxLevelNew@
CONST	SEGMENT
??_C@_0BE@GLCFFECD@GetSkillMaxLevelNew@ DB 'GetSkillMaxLevelNew', 00H ; `string'
CONST	ENDS
;	COMDAT ??_C@_0O@CNCBAIPN@GetSkillLevel@
CONST	SEGMENT
??_C@_0O@CNCBAIPN@GetSkillLevel@ DB 'GetSkillLevel', 00H ; `string'
CONST	ENDS
;	COMDAT ??_C@_0BD@FOAHDPNJ@GetGuildSkillLevel@
CONST	SEGMENT
??_C@_0BD@FOAHDPNJ@GetGuildSkillLevel@ DB 'GetGuildSkillLevel', 00H ; `string'
CONST	ENDS
;	COMDAT ??_C@_0BE@EIFJKAMD@GetDragonPowerPoint@
CONST	SEGMENT
??_C@_0BE@EIFJKAMD@GetDragonPowerPoint@ DB 'GetDragonPowerPoint', 00H ; `string'
CONST	ENDS
;	COMDAT ??_C@_0BD@OGJHNFOJ@GetGuildSkillPoint@
CONST	SEGMENT
??_C@_0BD@OGJHNFOJ@GetGuildSkillPoint@ DB 'GetGuildSkillPoint', 00H ; `string'
CONST	ENDS
;	COMDAT ??_C@_0BK@FHGMGKIK@GetGuildExperienceSummary@
CONST	SEGMENT
??_C@_0BK@FHGMGKIK@GetGuildExperienceSummary@ DB 'GetGuildExperienceSumma'
	DB	'ry', 00H					; `string'
CONST	ENDS
;	COMDAT ??_C@_0BL@FPOPEMBA@GetGuildMemberLevelAverage@
CONST	SEGMENT
??_C@_0BL@FPOPEMBA@GetGuildMemberLevelAverage@ DB 'GetGuildMemberLevelAve'
	DB	'rage', 00H					; `string'
CONST	ENDS
;	COMDAT ??_C@_0BL@KCOANOCD@GetGuildMemberLevelSummary@
CONST	SEGMENT
??_C@_0BL@KCOANOCD@GetGuildMemberLevelSummary@ DB 'GetGuildMemberLevelSum'
	DB	'mary', 00H					; `string'
CONST	ENDS
;	COMDAT ??_C@_0BE@MKPPOKLM@GetGuildMemberCount@
CONST	SEGMENT
??_C@_0BE@MKPPOKLM@GetGuildMemberCount@ DB 'GetGuildMemberCount', 00H ; `string'
CONST	ENDS
;	COMDAT ??_C@_0BD@OLJDCPCG@GetGuildExperience@
CONST	SEGMENT
??_C@_0BD@OLJDCPCG@GetGuildExperience@ DB 'GetGuildExperience', 00H ; `string'
CONST	ENDS
;	COMDAT ??_C@_0O@DJIGEAII@GetGuildLevel@
CONST	SEGMENT
??_C@_0O@DJIGEAII@GetGuildLevel@ DB 'GetGuildLevel', 00H ; `string'
CONST	ENDS
;	COMDAT ??_C@_0BJ@DAPPLJDP@GetGuildBoardCommentData@
CONST	SEGMENT
??_C@_0BJ@DAPPLJDP@GetGuildBoardCommentData@ DB 'GetGuildBoardCommentData'
	DB	00H						; `string'
CONST	ENDS
;	COMDAT ??_C@_0BK@OMNAMAPH@GetGuildBoardCommentCount@
CONST	SEGMENT
??_C@_0BK@OMNAMAPH@GetGuildBoardCommentCount@ DB 'GetGuildBoardCommentCou'
	DB	'nt', 00H					; `string'
CONST	ENDS
;	COMDAT ??_C@_0O@BKHCBCOI@GetGuildMoney@
CONST	SEGMENT
??_C@_0O@BKHCBCOI@GetGuildMoney@ DB 'GetGuildMoney', 00H ; `string'
CONST	ENDS
;	COMDAT ??_C@_0BC@DLHGICPJ@GetEnemyGuildName@
CONST	SEGMENT
??_C@_0BC@DLHGICPJ@GetEnemyGuildName@ DB 'GetEnemyGuildName', 00H ; `string'
CONST	ENDS
;	COMDAT ??_C@_0BD@CMPDBKGA@GetGuildMasterName@
CONST	SEGMENT
??_C@_0BD@CMPDBKGA@GetGuildMasterName@ DB 'GetGuildMasterName', 00H ; `string'
CONST	ENDS
;	COMDAT ??_C@_0N@CECGOPDG@GetGuildName@
CONST	SEGMENT
??_C@_0N@CECGOPDG@GetGuildName@ DB 'GetGuildName', 00H	; `string'
CONST	ENDS
;	COMDAT ??_C@_0N@EIPGMIIH@HasGuildLand@
CONST	SEGMENT
??_C@_0N@EIPGMIIH@HasGuildLand@ DB 'HasGuildLand', 00H	; `string'
CONST	ENDS
;	COMDAT ??_C@_0L@EAKBLDCO@GetGuildID@
CONST	SEGMENT
??_C@_0L@EAKBLDCO@GetGuildID@ DB 'GetGuildID', 00H	; `string'
CONST	ENDS
;	COMDAT ??_C@_0BF@BKGLMLAL@GetMarkIndexByMarkID@
CONST	SEGMENT
??_C@_0BF@BKGLMLAL@GetMarkIndexByMarkID@ DB 'GetMarkIndexByMarkID', 00H ; `string'
CONST	ENDS
;	COMDAT ??_C@_0BN@OMLCOGDL@GetMarkImageFilenameByMarkID@
CONST	SEGMENT
??_C@_0BN@OMLCOGDL@GetMarkImageFilenameByMarkID@ DB 'GetMarkImageFilename'
	DB	'ByMarkID', 00H				; `string'
CONST	ENDS
;	COMDAT ??_C@_0BA@BGLAIPMB@GuildIDToMarkID@
CONST	SEGMENT
??_C@_0BA@BGLAIPMB@GuildIDToMarkID@ DB 'GuildIDToMarkID', 00H ; `string'
CONST	ENDS
;	COMDAT ??_C@_0O@IGOIDFGB@IsGuildEnable@
CONST	SEGMENT
??_C@_0O@IGOIDFGB@IsGuildEnable@ DB 'IsGuildEnable', 00H ; `string'
CONST	ENDS
;	COMDAT ?s_methods@?1??initguild@@YAXXZ@4PAUPyMethodDef@@A
_DATA	SEGMENT
?s_methods@?1??initguild@@YAXXZ@4PAUPyMethodDef@@A DD FLAT:??_C@_0O@IGOIDFGB@IsGuildEnable@ ; `initguild'::`2'::s_methods
	DD	FLAT:?guildIsGuildEnable@@YAPAU_object@@PAU1@0@Z
	DD	01H
	ORG $+4
	DD	FLAT:??_C@_0BA@BGLAIPMB@GuildIDToMarkID@
	DD	FLAT:?guildGuildIDToMarkID@@YAPAU_object@@PAU1@0@Z
	DD	01H
	ORG $+4
	DD	FLAT:??_C@_0BN@OMLCOGDL@GetMarkImageFilenameByMarkID@
	DD	FLAT:?guildGetMarkImageFilenameByMarkID@@YAPAU_object@@PAU1@0@Z
	DD	01H
	ORG $+4
	DD	FLAT:??_C@_0BF@BKGLMLAL@GetMarkIndexByMarkID@
	DD	FLAT:?guildGetMarkIndexByMarkID@@YAPAU_object@@PAU1@0@Z
	DD	01H
	ORG $+4
	DD	FLAT:??_C@_0L@EAKBLDCO@GetGuildID@
	DD	FLAT:?guildGetGuildID@@YAPAU_object@@PAU1@0@Z
	DD	01H
	ORG $+4
	DD	FLAT:??_C@_0N@EIPGMIIH@HasGuildLand@
	DD	FLAT:?guildHasGuildLand@@YAPAU_object@@PAU1@0@Z
	DD	01H
	ORG $+4
	DD	FLAT:??_C@_0N@CECGOPDG@GetGuildName@
	DD	FLAT:?guildGetGuildName@@YAPAU_object@@PAU1@0@Z
	DD	01H
	ORG $+4
	DD	FLAT:??_C@_0BD@CMPDBKGA@GetGuildMasterName@
	DD	FLAT:?guildGetGuildMasterName@@YAPAU_object@@PAU1@0@Z
	DD	01H
	ORG $+4
	DD	FLAT:??_C@_0BC@DLHGICPJ@GetEnemyGuildName@
	DD	FLAT:?guildGetEnemyGuildName@@YAPAU_object@@PAU1@0@Z
	DD	01H
	ORG $+4
	DD	FLAT:??_C@_0O@BKHCBCOI@GetGuildMoney@
	DD	FLAT:?guildGetGuildMoney@@YAPAU_object@@PAU1@0@Z
	DD	01H
	ORG $+4
	DD	FLAT:??_C@_0BK@OMNAMAPH@GetGuildBoardCommentCount@
	DD	FLAT:?guildGetGuildBoardCommentCount@@YAPAU_object@@PAU1@0@Z
	DD	01H
	ORG $+4
	DD	FLAT:??_C@_0BJ@DAPPLJDP@GetGuildBoardCommentData@
	DD	FLAT:?guildGetGuildBoardCommentData@@YAPAU_object@@PAU1@0@Z
	DD	01H
	ORG $+4
	DD	FLAT:??_C@_0O@DJIGEAII@GetGuildLevel@
	DD	FLAT:?guildGetGuildLevel@@YAPAU_object@@PAU1@0@Z
	DD	01H
	ORG $+4
	DD	FLAT:??_C@_0BD@OLJDCPCG@GetGuildExperience@
	DD	FLAT:?guildGetGuildExperience@@YAPAU_object@@PAU1@0@Z
	DD	01H
	ORG $+4
	DD	FLAT:??_C@_0BE@MKPPOKLM@GetGuildMemberCount@
	DD	FLAT:?guildGetGuildMemberCount@@YAPAU_object@@PAU1@0@Z
	DD	01H
	ORG $+4
	DD	FLAT:??_C@_0BL@KCOANOCD@GetGuildMemberLevelSummary@
	DD	FLAT:?guildGetGuildMemberLevelSummary@@YAPAU_object@@PAU1@0@Z
	DD	01H
	ORG $+4
	DD	FLAT:??_C@_0BL@FPOPEMBA@GetGuildMemberLevelAverage@
	DD	FLAT:?guildGetGuildMemberLevelAverage@@YAPAU_object@@PAU1@0@Z
	DD	01H
	ORG $+4
	DD	FLAT:??_C@_0BK@FHGMGKIK@GetGuildExperienceSummary@
	DD	FLAT:?guildGetGuildExperienceSummary@@YAPAU_object@@PAU1@0@Z
	DD	01H
	ORG $+4
	DD	FLAT:??_C@_0BD@OGJHNFOJ@GetGuildSkillPoint@
	DD	FLAT:?guildGetGuildSkillPoint@@YAPAU_object@@PAU1@0@Z
	DD	01H
	ORG $+4
	DD	FLAT:??_C@_0BE@EIFJKAMD@GetDragonPowerPoint@
	DD	FLAT:?guildGetDragonPowerPoint@@YAPAU_object@@PAU1@0@Z
	DD	01H
	ORG $+4
	DD	FLAT:??_C@_0BD@FOAHDPNJ@GetGuildSkillLevel@
	DD	FLAT:?guildGetGuildSkillLevel@@YAPAU_object@@PAU1@0@Z
	DD	01H
	ORG $+4
	DD	FLAT:??_C@_0O@CNCBAIPN@GetSkillLevel@
	DD	FLAT:?guildGetSkillLevel@@YAPAU_object@@PAU1@0@Z
	DD	01H
	ORG $+4
	DD	FLAT:??_C@_0BE@GLCFFECD@GetSkillMaxLevelNew@
	DD	FLAT:?guildGetSkillMaxLevelNew@@YAPAU_object@@PAU1@0@Z
	DD	01H
	ORG $+4
	DD	FLAT:??_C@_0O@KBJMFDGJ@SetSkillIndex@
	DD	FLAT:?guildSetSkillIndex@@YAPAU_object@@PAU1@0@Z
	DD	01H
	ORG $+4
	DD	FLAT:??_C@_0O@NOICOABO@GetSkillIndex@
	DD	FLAT:?guildGetSkillIndex@@YAPAU_object@@PAU1@0@Z
	DD	01H
	ORG $+4
	DD	FLAT:??_C@_0N@FGDKEBNC@GetGradeData@
	DD	FLAT:?guildGetGradeData@@YAPAU_object@@PAU1@0@Z
	DD	01H
	ORG $+4
	DD	FLAT:??_C@_0N@GLBBAEII@GetGradeName@
	DD	FLAT:?guildGetGradeName@@YAPAU_object@@PAU1@0@Z
	DD	01H
	ORG $+4
	DD	FLAT:??_C@_0P@PGIPCIFK@GetMemberCount@
	DD	FLAT:?guildGetMemberCount@@YAPAU_object@@PAU1@0@Z
	DD	01H
	ORG $+4
	DD	FLAT:??_C@_0O@LFMDGJCL@GetMemberData@
	DD	FLAT:?guildGetMemberData@@YAPAU_object@@PAU1@0@Z
	DD	01H
	ORG $+4
	DD	FLAT:??_C@_0BB@LKNIPIHL@MemberIndexToPID@
	DD	FLAT:?guildMemberIndexToPID@@YAPAU_object@@PAU1@0@Z
	DD	01H
	ORG $+4
	DD	FLAT:??_C@_08JHGFNMOF@IsMember@
	DD	FLAT:?guildIsMember@@YAPAU_object@@PAU1@0@Z
	DD	01H
	ORG $+4
	DD	FLAT:??_C@_0P@DNENDIKL@IsMemberByName@
	DD	FLAT:?guildIsMemberByName@@YAPAU_object@@PAU1@0@Z
	DD	01H
	ORG $+4
	DD	FLAT:??_C@_0BH@HJLEBIMC@MainPlayerHasAuthority@
	DD	FLAT:?guildMainPlayerHasAuthority@@YAPAU_object@@PAU1@0@Z
	DD	01H
	ORG $+4
	DD	FLAT:??_C@_07BDCAJABG@Destroy@
	DD	FLAT:?guildDestroy@@YAPAU_object@@PAU1@0@Z
	DD	01H
	ORG $+4
	DD	00H
	DD	00H
	DD	00H
	ORG $+4
_DATA	ENDS
;	COMDAT ??_C@_07IGDHICNG@isiiiii@
CONST	SEGMENT
??_C@_07IGDHICNG@isiiiii@ DB 'isiiiii', 00H		; `string'
CONST	ENDS
;	COMDAT ??_C@_02OCDGCAAK@si@
CONST	SEGMENT
??_C@_02OCDGCAAK@si@ DB 'si', 00H			; `string'
CONST	ENDS
;	COMDAT ??_C@_01OGPIMHDM@?$DP@
CONST	SEGMENT
??_C@_01OGPIMHDM@?$DP@ DB '?', 00H			; `string'
CONST	ENDS
;	COMDAT ??_C@_02PDIHAGKM@ii@
CONST	SEGMENT
??_C@_02PDIHAGKM@ii@ DB 'ii', 00H			; `string'
CONST	ENDS
;	COMDAT ??_C@_03MKDAGEFG@iss@
CONST	SEGMENT
??_C@_03MKDAGEFG@iss@ DB 'iss', 00H			; `string'
CONST	ENDS
;	COMDAT ??_C@_06HCBIANPB@Noname@
CONST	SEGMENT
??_C@_06HCBIANPB@Noname@ DB 'Noname', 00H		; `string'
CONST	ENDS
;	COMDAT ??_C@_01LKDEMHDF@s@
CONST	SEGMENT
??_C@_01LKDEMHDF@s@ DB 's', 00H				; `string'
CONST	ENDS
;	COMDAT ??_C@_01KBJDNOO@i@
CONST	SEGMENT
??_C@_01KBJDNOO@i@ DB 'i', 00H				; `string'
CONST	ENDS
;	COMDAT ??_7CPythonGuild@@6B@
CONST	SEGMENT
??_7CPythonGuild@@6B@ DD FLAT:??_R4CPythonGuild@@6B@	; CPythonGuild::`vftable'
	DD	FLAT:??_ECPythonGuild@@UAEPAXI@Z
CONST	ENDS
;	COMDAT ??_7?$CSingleton@VCPythonGuild@@@@6B@
CONST	SEGMENT
??_7?$CSingleton@VCPythonGuild@@@@6B@ DD FLAT:??_R4?$CSingleton@VCPythonGuild@@@@6B@ ; CSingleton<CPythonGuild>::`vftable'
	DD	FLAT:??_E?$CSingleton@VCPythonGuild@@@@UAEPAXI@Z
CONST	ENDS
;	COMDAT ??_R1A@?0A@EA@bad_array_new_length@std@@8
rdata$r	SEGMENT
??_R1A@?0A@EA@bad_array_new_length@std@@8 DD FLAT:??_R0?AVbad_array_new_length@std@@@8 ; std::bad_array_new_length::`RTTI Base Class Descriptor at (0,-1,0,64)'
	DD	02H
	DD	00H
	DD	0ffffffffH
	DD	00H
	DD	040H
	DD	FLAT:??_R3bad_array_new_length@std@@8
rdata$r	ENDS
;	COMDAT ??_R2bad_array_new_length@std@@8
rdata$r	SEGMENT
??_R2bad_array_new_length@std@@8 DD FLAT:??_R1A@?0A@EA@bad_array_new_length@std@@8 ; std::bad_array_new_length::`RTTI Base Class Array'
	DD	FLAT:??_R1A@?0A@EA@bad_alloc@std@@8
	DD	FLAT:??_R1A@?0A@EA@exception@std@@8
rdata$r	ENDS
;	COMDAT ??_R3bad_array_new_length@std@@8
rdata$r	SEGMENT
??_R3bad_array_new_length@std@@8 DD 00H			; std::bad_array_new_length::`RTTI Class Hierarchy Descriptor'
	DD	00H
	DD	03H
	DD	FLAT:??_R2bad_array_new_length@std@@8
rdata$r	ENDS
;	COMDAT ??_R4bad_array_new_length@std@@6B@
rdata$r	SEGMENT
??_R4bad_array_new_length@std@@6B@ DD 00H		; std::bad_array_new_length::`RTTI Complete Object Locator'
	DD	00H
	DD	00H
	DD	FLAT:??_R0?AVbad_array_new_length@std@@@8
	DD	FLAT:??_R3bad_array_new_length@std@@8
rdata$r	ENDS
;	COMDAT ??_R1A@?0A@EA@bad_alloc@std@@8
rdata$r	SEGMENT
??_R1A@?0A@EA@bad_alloc@std@@8 DD FLAT:??_R0?AVbad_alloc@std@@@8 ; std::bad_alloc::`RTTI Base Class Descriptor at (0,-1,0,64)'
	DD	01H
	DD	00H
	DD	0ffffffffH
	DD	00H
	DD	040H
	DD	FLAT:??_R3bad_alloc@std@@8
rdata$r	ENDS
;	COMDAT ??_R2bad_alloc@std@@8
rdata$r	SEGMENT
??_R2bad_alloc@std@@8 DD FLAT:??_R1A@?0A@EA@bad_alloc@std@@8 ; std::bad_alloc::`RTTI Base Class Array'
	DD	FLAT:??_R1A@?0A@EA@exception@std@@8
rdata$r	ENDS
;	COMDAT ??_R3bad_alloc@std@@8
rdata$r	SEGMENT
??_R3bad_alloc@std@@8 DD 00H				; std::bad_alloc::`RTTI Class Hierarchy Descriptor'
	DD	00H
	DD	02H
	DD	FLAT:??_R2bad_alloc@std@@8
rdata$r	ENDS
;	COMDAT ??_R4bad_alloc@std@@6B@
rdata$r	SEGMENT
??_R4bad_alloc@std@@6B@ DD 00H				; std::bad_alloc::`RTTI Complete Object Locator'
	DD	00H
	DD	00H
	DD	FLAT:??_R0?AVbad_alloc@std@@@8
	DD	FLAT:??_R3bad_alloc@std@@8
rdata$r	ENDS
;	COMDAT ??_R1A@?0A@EA@exception@std@@8
rdata$r	SEGMENT
??_R1A@?0A@EA@exception@std@@8 DD FLAT:??_R0?AVexception@std@@@8 ; std::exception::`RTTI Base Class Descriptor at (0,-1,0,64)'
	DD	00H
	DD	00H
	DD	0ffffffffH
	DD	00H
	DD	040H
	DD	FLAT:??_R3exception@std@@8
rdata$r	ENDS
;	COMDAT ??_R2exception@std@@8
rdata$r	SEGMENT
??_R2exception@std@@8 DD FLAT:??_R1A@?0A@EA@exception@std@@8 ; std::exception::`RTTI Base Class Array'
rdata$r	ENDS
;	COMDAT ??_R3exception@std@@8
rdata$r	SEGMENT
??_R3exception@std@@8 DD 00H				; std::exception::`RTTI Class Hierarchy Descriptor'
	DD	00H
	DD	01H
	DD	FLAT:??_R2exception@std@@8
rdata$r	ENDS
;	COMDAT ??_R4exception@std@@6B@
rdata$r	SEGMENT
??_R4exception@std@@6B@ DD 00H				; std::exception::`RTTI Complete Object Locator'
	DD	00H
	DD	00H
	DD	FLAT:??_R0?AVexception@std@@@8
	DD	FLAT:??_R3exception@std@@8
rdata$r	ENDS
;	COMDAT ??_C@_0BA@FOIKENOD@vector?5too?5long@
CONST	SEGMENT
??_C@_0BA@FOIKENOD@vector?5too?5long@ DB 'vector too long', 00H ; `string'
CONST	ENDS
;	COMDAT ??_C@_00CNPNBAHC@@
CONST	SEGMENT
??_C@_00CNPNBAHC@@ DB 00H				; `string'
CONST	ENDS
;	COMDAT ??_C@_0BB@GCADKGJO@map?1set?5too?5long@
CONST	SEGMENT
??_C@_0BB@GCADKGJO@map?1set?5too?5long@ DB 'map/set too long', 00H ; `string'
CONST	ENDS
;	COMDAT ??_C@_0BA@JFNIOLAK@string?5too?5long@
CONST	SEGMENT
??_C@_0BA@JFNIOLAK@string?5too?5long@ DB 'string too long', 00H ; `string'
CONST	ENDS
;	COMDAT __CT??_R0?AVexception@std@@@8??0exception@std@@QAE@ABV01@@Z12
xdata$x	SEGMENT
__CT??_R0?AVexception@std@@@8??0exception@std@@QAE@ABV01@@Z12 DD 00H
	DD	FLAT:??_R0?AVexception@std@@@8
	DD	00H
	DD	0ffffffffH
	ORG $+4
	DD	0cH
	DD	FLAT:??0exception@std@@QAE@ABV01@@Z
xdata$x	ENDS
;	COMDAT ??_R0?AVexception@std@@@8
data$r	SEGMENT
??_R0?AVexception@std@@@8 DD FLAT:??_7type_info@@6B@	; std::exception `RTTI Type Descriptor'
	DD	00H
	DB	'.?AVexception@std@@', 00H
data$r	ENDS
;	COMDAT __CT??_R0?AVbad_alloc@std@@@8??0bad_alloc@std@@QAE@ABV01@@Z12
xdata$x	SEGMENT
__CT??_R0?AVbad_alloc@std@@@8??0bad_alloc@std@@QAE@ABV01@@Z12 DD 010H
	DD	FLAT:??_R0?AVbad_alloc@std@@@8
	DD	00H
	DD	0ffffffffH
	ORG $+4
	DD	0cH
	DD	FLAT:??0bad_alloc@std@@QAE@ABV01@@Z
xdata$x	ENDS
;	COMDAT ??_R0?AVbad_alloc@std@@@8
data$r	SEGMENT
??_R0?AVbad_alloc@std@@@8 DD FLAT:??_7type_info@@6B@	; std::bad_alloc `RTTI Type Descriptor'
	DD	00H
	DB	'.?AVbad_alloc@std@@', 00H
data$r	ENDS
;	COMDAT __CT??_R0?AVbad_array_new_length@std@@@8??0bad_array_new_length@std@@QAE@ABV01@@Z12
xdata$x	SEGMENT
__CT??_R0?AVbad_array_new_length@std@@@8??0bad_array_new_length@std@@QAE@ABV01@@Z12 DD 00H
	DD	FLAT:??_R0?AVbad_array_new_length@std@@@8
	DD	00H
	DD	0ffffffffH
	ORG $+4
	DD	0cH
	DD	FLAT:??0bad_array_new_length@std@@QAE@ABV01@@Z
xdata$x	ENDS
;	COMDAT ??_R0?AVbad_array_new_length@std@@@8
data$r	SEGMENT
??_R0?AVbad_array_new_length@std@@@8 DD FLAT:??_7type_info@@6B@ ; std::bad_array_new_length `RTTI Type Descriptor'
	DD	00H
	DB	'.?AVbad_array_new_length@std@@', 00H
data$r	ENDS
;	COMDAT __CTA3?AVbad_array_new_length@std@@
xdata$x	SEGMENT
__CTA3?AVbad_array_new_length@std@@ DD 03H
	DD	FLAT:__CT??_R0?AVbad_array_new_length@std@@@8??0bad_array_new_length@std@@QAE@ABV01@@Z12
	DD	FLAT:__CT??_R0?AVbad_alloc@std@@@8??0bad_alloc@std@@QAE@ABV01@@Z12
	DD	FLAT:__CT??_R0?AVexception@std@@@8??0exception@std@@QAE@ABV01@@Z12
xdata$x	ENDS
;	COMDAT __TI3?AVbad_array_new_length@std@@
xdata$x	SEGMENT
__TI3?AVbad_array_new_length@std@@ DD 00H
	DD	FLAT:??1bad_array_new_length@std@@UAE@XZ
	DD	00H
	DD	FLAT:__CTA3?AVbad_array_new_length@std@@
xdata$x	ENDS
;	COMDAT ??_C@_0BF@KINCDENJ@bad?5array?5new?5length@
CONST	SEGMENT
??_C@_0BF@KINCDENJ@bad?5array?5new?5length@ DB 'bad array new length', 00H ; `string'
CONST	ENDS
;	COMDAT ??_7bad_array_new_length@std@@6B@
CONST	SEGMENT
??_7bad_array_new_length@std@@6B@ DD FLAT:??_R4bad_array_new_length@std@@6B@ ; std::bad_array_new_length::`vftable'
	DD	FLAT:??_Ebad_array_new_length@std@@UAEPAXI@Z
	DD	FLAT:?what@exception@std@@UBEPBDXZ
CONST	ENDS
;	COMDAT ??_7bad_alloc@std@@6B@
CONST	SEGMENT
??_7bad_alloc@std@@6B@ DD FLAT:??_R4bad_alloc@std@@6B@	; std::bad_alloc::`vftable'
	DD	FLAT:??_Ebad_alloc@std@@UAEPAXI@Z
	DD	FLAT:?what@exception@std@@UBEPBDXZ
CONST	ENDS
;	COMDAT ??_C@_0BC@EOODALEL@Unknown?5exception@
CONST	SEGMENT
??_C@_0BC@EOODALEL@Unknown?5exception@ DB 'Unknown exception', 00H ; `string'
CONST	ENDS
;	COMDAT ??_7exception@std@@6B@
CONST	SEGMENT
??_7exception@std@@6B@ DD FLAT:??_R4exception@std@@6B@	; std::exception::`vftable'
	DD	FLAT:??_Eexception@std@@UAEPAXI@Z
	DD	FLAT:?what@exception@std@@UBEPBDXZ
CONST	ENDS
;	COMDAT xdata$x
xdata$x	SEGMENT
__unwindtable$??$?0U?$pair@HH@std@@@?$_Tree_temp_node@V?$allocator@U?$_Tree_node@U?$pair@$$CBKK@std@@PAX@std@@@std@@@std@@QAE@AAV?$allocator@U?$_Tree_node@U?$pair@$$CBKK@std@@PAX@std@@@1@PAU?$_Tree_node@U?$pair@$$CBKK@std@@PAX@1@$$QAU?$pair@HH@1@@Z DD 0ffffffffH
	DD	FLAT:__unwindfunclet$??$?0U?$pair@HH@std@@@?$_Tree_temp_node@V?$allocator@U?$_Tree_node@U?$pair@$$CBKK@std@@PAX@std@@@std@@@std@@QAE@AAV?$allocator@U?$_Tree_node@U?$pair@$$CBKK@std@@PAX@std@@@1@PAU?$_Tree_node@U?$pair@$$CBKK@std@@PAX@1@$$QAU?$pair@HH@1@@Z$1
__ehfuncinfo$??$?0U?$pair@HH@std@@@?$_Tree_temp_node@V?$allocator@U?$_Tree_node@U?$pair@$$CBKK@std@@PAX@std@@@std@@@std@@QAE@AAV?$allocator@U?$_Tree_node@U?$pair@$$CBKK@std@@PAX@std@@@1@PAU?$_Tree_node@U?$pair@$$CBKK@std@@PAX@1@$$QAU?$pair@HH@1@@Z DD 019930522H
	DD	01H
	DD	FLAT:__unwindtable$??$?0U?$pair@HH@std@@@?$_Tree_temp_node@V?$allocator@U?$_Tree_node@U?$pair@$$CBKK@std@@PAX@std@@@std@@@std@@QAE@AAV?$allocator@U?$_Tree_node@U?$pair@$$CBKK@std@@PAX@std@@@1@PAU?$_Tree_node@U?$pair@$$CBKK@std@@PAX@1@$$QAU?$pair@HH@1@@Z
	DD	2 DUP(00H)
	DD	2 DUP(00H)
	DD	00H
	DD	01H
xdata$x	ENDS
;	COMDAT xdata$x
xdata$x	SEGMENT
__unwindtable$??0?$_Tree_temp_node_alloc@V?$allocator@U?$_Tree_node@U?$pair@$$CBKK@std@@PAX@std@@@std@@@std@@QAE@AAV?$allocator@U?$_Tree_node@U?$pair@$$CBKK@std@@PAX@std@@@1@@Z DD 0ffffffffH
	DD	FLAT:__unwindfunclet$??0?$_Tree_temp_node_alloc@V?$allocator@U?$_Tree_node@U?$pair@$$CBKK@std@@PAX@std@@@std@@@std@@QAE@AAV?$allocator@U?$_Tree_node@U?$pair@$$CBKK@std@@PAX@std@@@1@@Z$0
__ehfuncinfo$??0?$_Tree_temp_node_alloc@V?$allocator@U?$_Tree_node@U?$pair@$$CBKK@std@@PAX@std@@@std@@@std@@QAE@AAV?$allocator@U?$_Tree_node@U?$pair@$$CBKK@std@@PAX@std@@@1@@Z DD 019930522H
	DD	01H
	DD	FLAT:__unwindtable$??0?$_Tree_temp_node_alloc@V?$allocator@U?$_Tree_node@U?$pair@$$CBKK@std@@PAX@std@@@std@@@std@@QAE@AAV?$allocator@U?$_Tree_node@U?$pair@$$CBKK@std@@PAX@std@@@1@@Z
	DD	2 DUP(00H)
	DD	2 DUP(00H)
	DD	00H
	DD	01H
xdata$x	ENDS
;	COMDAT xdata$x
xdata$x	SEGMENT
__unwindtable$??$?0U?$pair@KV?$basic_string@DU?$char_traits@D@std@@V?$allocator@D@2@@std@@@std@@@?$_Tree_temp_node@V?$allocator@U?$_Tree_node@U?$pair@$$CBKV?$basic_string@DU?$char_traits@D@std@@V?$allocator@D@2@@std@@@std@@PAX@std@@@std@@@std@@QAE@AAV?$allocator@U?$_Tree_node@U?$pair@$$CBKV?$basic_string@DU?$char_traits@D@std@@V?$allocator@D@2@@std@@@std@@PAX@std@@@1@PAU?$_Tree_node@U?$pair@$$CBKV?$basic_string@DU?$char_traits@D@std@@V?$allocator@D@2@@std@@@std@@PAX@1@$$QAU?$pair@KV?$basic_string@DU?$char_traits@D@std@@V?$allocator@D@2@@std@@@1@@Z DD 0ffffffffH
	DD	FLAT:__unwindfunclet$??$?0U?$pair@KV?$basic_string@DU?$char_traits@D@std@@V?$allocator@D@2@@std@@@std@@@?$_Tree_temp_node@V?$allocator@U?$_Tree_node@U?$pair@$$CBKV?$basic_string@DU?$char_traits@D@std@@V?$allocator@D@2@@std@@@std@@PAX@std@@@std@@@std@@QAE@AAV?$allocator@U?$_Tree_node@U?$pair@$$CBKV?$basic_string@DU?$char_traits@D@std@@V?$allocator@D@2@@std@@@std@@PAX@std@@@1@PAU?$_Tree_node@U?$pair@$$CBKV?$basic_string@DU?$char_traits@D@std@@V?$allocator@D@2@@std@@@std@@PAX@1@$$QAU?$pair@KV?$basic_string@DU?$char_traits@D@std@@V?$allocator@D@2@@std@@@1@@Z$1
__ehfuncinfo$??$?0U?$pair@KV?$basic_string@DU?$char_traits@D@std@@V?$allocator@D@2@@std@@@std@@@?$_Tree_temp_node@V?$allocator@U?$_Tree_node@U?$pair@$$CBKV?$basic_string@DU?$char_traits@D@std@@V?$allocator@D@2@@std@@@std@@PAX@std@@@std@@@std@@QAE@AAV?$allocator@U?$_Tree_node@U?$pair@$$CBKV?$basic_string@DU?$char_traits@D@std@@V?$allocator@D@2@@std@@@std@@PAX@std@@@1@PAU?$_Tree_node@U?$pair@$$CBKV?$basic_string@DU?$char_traits@D@std@@V?$allocator@D@2@@std@@@std@@PAX@1@$$QAU?$pair@KV?$basic_string@DU?$char_traits@D@std@@V?$allocator@D@2@@std@@@1@@Z DD 019930522H
	DD	01H
	DD	FLAT:__unwindtable$??$?0U?$pair@KV?$basic_string@DU?$char_traits@D@std@@V?$allocator@D@2@@std@@@std@@@?$_Tree_temp_node@V?$allocator@U?$_Tree_node@U?$pair@$$CBKV?$basic_string@DU?$char_traits@D@std@@V?$allocator@D@2@@std@@@std@@PAX@std@@@std@@@std@@QAE@AAV?$allocator@U?$_Tree_node@U?$pair@$$CBKV?$basic_string@DU?$char_traits@D@std@@V?$allocator@D@2@@std@@@std@@PAX@std@@@1@PAU?$_Tree_node@U?$pair@$$CBKV?$basic_string@DU?$char_traits@D@std@@V?$allocator@D@2@@std@@@std@@PAX@1@$$QAU?$pair@KV?$basic_string@DU?$char_traits@D@std@@V?$allocator@D@2@@std@@@1@@Z
	DD	2 DUP(00H)
	DD	2 DUP(00H)
	DD	00H
	DD	01H
xdata$x	ENDS
;	COMDAT xdata$x
xdata$x	SEGMENT
__unwindtable$??$_Emplace@U?$pair@HH@std@@@?$_Tree@V?$_Tmap_traits@KKU?$less@K@std@@V?$allocator@U?$pair@$$CBKK@std@@@2@$0A@@std@@@std@@IAE?AU?$pair@PAU?$_Tree_node@U?$pair@$$CBKK@std@@PAX@std@@_N@1@$$QAU?$pair@HH@1@@Z DD 0ffffffffH
	DD	FLAT:__unwindfunclet$??$_Emplace@U?$pair@HH@std@@@?$_Tree@V?$_Tmap_traits@KKU?$less@K@std@@V?$allocator@U?$pair@$$CBKK@std@@@2@$0A@@std@@@std@@IAE?AU?$pair@PAU?$_Tree_node@U?$pair@$$CBKK@std@@PAX@std@@_N@1@$$QAU?$pair@HH@1@@Z$2
	DD	0ffffffffH
	DD	FLAT:__unwindfunclet$??$_Emplace@U?$pair@HH@std@@@?$_Tree@V?$_Tmap_traits@KKU?$less@K@std@@V?$allocator@U?$pair@$$CBKK@std@@@2@$0A@@std@@@std@@IAE?AU?$pair@PAU?$_Tree_node@U?$pair@$$CBKK@std@@PAX@std@@_N@1@$$QAU?$pair@HH@1@@Z$0
__ehfuncinfo$??$_Emplace@U?$pair@HH@std@@@?$_Tree@V?$_Tmap_traits@KKU?$less@K@std@@V?$allocator@U?$pair@$$CBKK@std@@@2@$0A@@std@@@std@@IAE?AU?$pair@PAU?$_Tree_node@U?$pair@$$CBKK@std@@PAX@std@@_N@1@$$QAU?$pair@HH@1@@Z DD 019930522H
	DD	02H
	DD	FLAT:__unwindtable$??$_Emplace@U?$pair@HH@std@@@?$_Tree@V?$_Tmap_traits@KKU?$less@K@std@@V?$allocator@U?$pair@$$CBKK@std@@@2@$0A@@std@@@std@@IAE?AU?$pair@PAU?$_Tree_node@U?$pair@$$CBKK@std@@PAX@std@@_N@1@$$QAU?$pair@HH@1@@Z
	DD	2 DUP(00H)
	DD	2 DUP(00H)
	DD	00H
	DD	01H
xdata$x	ENDS
;	COMDAT xdata$x
xdata$x	SEGMENT
__unwindtable$??$_Emplace@U?$pair@KV?$basic_string@DU?$char_traits@D@std@@V?$allocator@D@2@@std@@@std@@@?$_Tree@V?$_Tmap_traits@KV?$basic_string@DU?$char_traits@D@std@@V?$allocator@D@2@@std@@U?$less@K@2@V?$allocator@U?$pair@$$CBKV?$basic_string@DU?$char_traits@D@std@@V?$allocator@D@2@@std@@@std@@@2@$0A@@std@@@std@@IAE?AU?$pair@PAU?$_Tree_node@U?$pair@$$CBKV?$basic_string@DU?$char_traits@D@std@@V?$allocator@D@2@@std@@@std@@PAX@std@@_N@1@$$QAU?$pair@KV?$basic_string@DU?$char_traits@D@std@@V?$allocator@D@2@@std@@@1@@Z DD 0ffffffffH
	DD	FLAT:__unwindfunclet$??$_Emplace@U?$pair@KV?$basic_string@DU?$char_traits@D@std@@V?$allocator@D@2@@std@@@std@@@?$_Tree@V?$_Tmap_traits@KV?$basic_string@DU?$char_traits@D@std@@V?$allocator@D@2@@std@@U?$less@K@2@V?$allocator@U?$pair@$$CBKV?$basic_string@DU?$char_traits@D@std@@V?$allocator@D@2@@std@@@std@@@2@$0A@@std@@@std@@IAE?AU?$pair@PAU?$_Tree_node@U?$pair@$$CBKV?$basic_string@DU?$char_traits@D@std@@V?$allocator@D@2@@std@@@std@@PAX@std@@_N@1@$$QAU?$pair@KV?$basic_string@DU?$char_traits@D@std@@V?$allocator@D@2@@std@@@1@@Z$2
__ehfuncinfo$??$_Emplace@U?$pair@KV?$basic_string@DU?$char_traits@D@std@@V?$allocator@D@2@@std@@@std@@@?$_Tree@V?$_Tmap_traits@KV?$basic_string@DU?$char_traits@D@std@@V?$allocator@D@2@@std@@U?$less@K@2@V?$allocator@U?$pair@$$CBKV?$basic_string@DU?$char_traits@D@std@@V?$allocator@D@2@@std@@@std@@@2@$0A@@std@@@std@@IAE?AU?$pair@PAU?$_Tree_node@U?$pair@$$CBKV?$basic_string@DU?$char_traits@D@std@@V?$allocator@D@2@@std@@@std@@PAX@std@@_N@1@$$QAU?$pair@KV?$basic_string@DU?$char_traits@D@std@@V?$allocator@D@2@@std@@@1@@Z DD 019930522H
	DD	01H
	DD	FLAT:__unwindtable$??$_Emplace@U?$pair@KV?$basic_string@DU?$char_traits@D@std@@V?$allocator@D@2@@std@@@std@@@?$_Tree@V?$_Tmap_traits@KV?$basic_string@DU?$char_traits@D@std@@V?$allocator@D@2@@std@@U?$less@K@2@V?$allocator@U?$pair@$$CBKV?$basic_string@DU?$char_traits@D@std@@V?$allocator@D@2@@std@@@std@@@2@$0A@@std@@@std@@IAE?AU?$pair@PAU?$_Tree_node@U?$pair@$$CBKV?$basic_string@DU?$char_traits@D@std@@V?$allocator@D@2@@std@@@std@@PAX@std@@_N@1@$$QAU?$pair@KV?$basic_string@DU?$char_traits@D@std@@V?$allocator@D@2@@std@@@1@@Z
	DD	2 DUP(00H)
	DD	2 DUP(00H)
	DD	00H
	DD	01H
xdata$x	ENDS
;	COMDAT xdata$x
xdata$x	SEGMENT
__unwindtable$??$?0ABUpiecewise_construct_t@std@@V?$tuple@ABK@1@V?$tuple@$$V@1@@?$_Tree_temp_node@V?$allocator@U?$_Tree_node@U?$pair@$$CBKV?$basic_string@DU?$char_traits@D@std@@V?$allocator@D@2@@std@@@std@@PAX@std@@@std@@@std@@QAE@AAV?$allocator@U?$_Tree_node@U?$pair@$$CBKV?$basic_string@DU?$char_traits@D@std@@V?$allocator@D@2@@std@@@std@@PAX@std@@@1@PAU?$_Tree_node@U?$pair@$$CBKV?$basic_string@DU?$char_traits@D@std@@V?$allocator@D@2@@std@@@std@@PAX@1@ABUpiecewise_construct_t@1@$$QAV?$tuple@ABK@1@$$QAV?$tuple@$$V@1@@Z DD 0ffffffffH
	DD	FLAT:__unwindfunclet$??$?0ABUpiecewise_construct_t@std@@V?$tuple@ABK@1@V?$tuple@$$V@1@@?$_Tree_temp_node@V?$allocator@U?$_Tree_node@U?$pair@$$CBKV?$basic_string@DU?$char_traits@D@std@@V?$allocator@D@2@@std@@@std@@PAX@std@@@std@@@std@@QAE@AAV?$allocator@U?$_Tree_node@U?$pair@$$CBKV?$basic_string@DU?$char_traits@D@std@@V?$allocator@D@2@@std@@@std@@PAX@std@@@1@PAU?$_Tree_node@U?$pair@$$CBKV?$basic_string@DU?$char_traits@D@std@@V?$allocator@D@2@@std@@@std@@PAX@1@ABUpiecewise_construct_t@1@$$QAV?$tuple@ABK@1@$$QAV?$tuple@$$V@1@@Z$1
__ehfuncinfo$??$?0ABUpiecewise_construct_t@std@@V?$tuple@ABK@1@V?$tuple@$$V@1@@?$_Tree_temp_node@V?$allocator@U?$_Tree_node@U?$pair@$$CBKV?$basic_string@DU?$char_traits@D@std@@V?$allocator@D@2@@std@@@std@@PAX@std@@@std@@@std@@QAE@AAV?$allocator@U?$_Tree_node@U?$pair@$$CBKV?$basic_string@DU?$char_traits@D@std@@V?$allocator@D@2@@std@@@std@@PAX@std@@@1@PAU?$_Tree_node@U?$pair@$$CBKV?$basic_string@DU?$char_traits@D@std@@V?$allocator@D@2@@std@@@std@@PAX@1@ABUpiecewise_construct_t@1@$$QAV?$tuple@ABK@1@$$QAV?$tuple@$$V@1@@Z DD 019930522H
	DD	01H
	DD	FLAT:__unwindtable$??$?0ABUpiecewise_construct_t@std@@V?$tuple@ABK@1@V?$tuple@$$V@1@@?$_Tree_temp_node@V?$allocator@U?$_Tree_node@U?$pair@$$CBKV?$basic_string@DU?$char_traits@D@std@@V?$allocator@D@2@@std@@@std@@PAX@std@@@std@@@std@@QAE@AAV?$allocator@U?$_Tree_node@U?$pair@$$CBKV?$basic_string@DU?$char_traits@D@std@@V?$allocator@D@2@@std@@@std@@PAX@std@@@1@PAU?$_Tree_node@U?$pair@$$CBKV?$basic_string@DU?$char_traits@D@std@@V?$allocator@D@2@@std@@@std@@PAX@1@ABUpiecewise_construct_t@1@$$QAV?$tuple@ABK@1@$$QAV?$tuple@$$V@1@@Z
	DD	2 DUP(00H)
	DD	2 DUP(00H)
	DD	00H
	DD	01H
xdata$x	ENDS
;	COMDAT xdata$x
xdata$x	SEGMENT
__unwindtable$??0?$_Tree_temp_node_alloc@V?$allocator@U?$_Tree_node@U?$pair@$$CBKV?$basic_string@DU?$char_traits@D@std@@V?$allocator@D@2@@std@@@std@@PAX@std@@@std@@@std@@QAE@AAV?$allocator@U?$_Tree_node@U?$pair@$$CBKV?$basic_string@DU?$char_traits@D@std@@V?$allocator@D@2@@std@@@std@@PAX@std@@@1@@Z DD 0ffffffffH
	DD	FLAT:__unwindfunclet$??0?$_Tree_temp_node_alloc@V?$allocator@U?$_Tree_node@U?$pair@$$CBKV?$basic_string@DU?$char_traits@D@std@@V?$allocator@D@2@@std@@@std@@PAX@std@@@std@@@std@@QAE@AAV?$allocator@U?$_Tree_node@U?$pair@$$CBKV?$basic_string@DU?$char_traits@D@std@@V?$allocator@D@2@@std@@@std@@PAX@std@@@1@@Z$0
__ehfuncinfo$??0?$_Tree_temp_node_alloc@V?$allocator@U?$_Tree_node@U?$pair@$$CBKV?$basic_string@DU?$char_traits@D@std@@V?$allocator@D@2@@std@@@std@@PAX@std@@@std@@@std@@QAE@AAV?$allocator@U?$_Tree_node@U?$pair@$$CBKV?$basic_string@DU?$char_traits@D@std@@V?$allocator@D@2@@std@@@std@@PAX@std@@@1@@Z DD 019930522H
	DD	01H
	DD	FLAT:__unwindtable$??0?$_Tree_temp_node_alloc@V?$allocator@U?$_Tree_node@U?$pair@$$CBKV?$basic_string@DU?$char_traits@D@std@@V?$allocator@D@2@@std@@@std@@PAX@std@@@std@@@std@@QAE@AAV?$allocator@U?$_Tree_node@U?$pair@$$CBKV?$basic_string@DU?$char_traits@D@std@@V?$allocator@D@2@@std@@@std@@PAX@std@@@1@@Z
	DD	2 DUP(00H)
	DD	2 DUP(00H)
	DD	00H
	DD	01H
xdata$x	ENDS
;	COMDAT xdata$x
xdata$x	SEGMENT
__unwindtable$??$?0ABUpiecewise_construct_t@std@@V?$tuple@ABE@1@V?$tuple@$$V@1@@?$_Tree_temp_node@V?$allocator@U?$_Tree_node@U?$pair@$$CBEUSGuildGradeData@CPythonGuild@@@std@@PAX@std@@@std@@@std@@QAE@AAV?$allocator@U?$_Tree_node@U?$pair@$$CBEUSGuildGradeData@CPythonGuild@@@std@@PAX@std@@@1@PAU?$_Tree_node@U?$pair@$$CBEUSGuildGradeData@CPythonGuild@@@std@@PAX@1@ABUpiecewise_construct_t@1@$$QAV?$tuple@ABE@1@$$QAV?$tuple@$$V@1@@Z DD 0ffffffffH
	DD	FLAT:__unwindfunclet$??$?0ABUpiecewise_construct_t@std@@V?$tuple@ABE@1@V?$tuple@$$V@1@@?$_Tree_temp_node@V?$allocator@U?$_Tree_node@U?$pair@$$CBEUSGuildGradeData@CPythonGuild@@@std@@PAX@std@@@std@@@std@@QAE@AAV?$allocator@U?$_Tree_node@U?$pair@$$CBEUSGuildGradeData@CPythonGuild@@@std@@PAX@std@@@1@PAU?$_Tree_node@U?$pair@$$CBEUSGuildGradeData@CPythonGuild@@@std@@PAX@1@ABUpiecewise_construct_t@1@$$QAV?$tuple@ABE@1@$$QAV?$tuple@$$V@1@@Z$1
__ehfuncinfo$??$?0ABUpiecewise_construct_t@std@@V?$tuple@ABE@1@V?$tuple@$$V@1@@?$_Tree_temp_node@V?$allocator@U?$_Tree_node@U?$pair@$$CBEUSGuildGradeData@CPythonGuild@@@std@@PAX@std@@@std@@@std@@QAE@AAV?$allocator@U?$_Tree_node@U?$pair@$$CBEUSGuildGradeData@CPythonGuild@@@std@@PAX@std@@@1@PAU?$_Tree_node@U?$pair@$$CBEUSGuildGradeData@CPythonGuild@@@std@@PAX@1@ABUpiecewise_construct_t@1@$$QAV?$tuple@ABE@1@$$QAV?$tuple@$$V@1@@Z DD 019930522H
	DD	01H
	DD	FLAT:__unwindtable$??$?0ABUpiecewise_construct_t@std@@V?$tuple@ABE@1@V?$tuple@$$V@1@@?$_Tree_temp_node@V?$allocator@U?$_Tree_node@U?$pair@$$CBEUSGuildGradeData@CPythonGuild@@@std@@PAX@std@@@std@@@std@@QAE@AAV?$allocator@U?$_Tree_node@U?$pair@$$CBEUSGuildGradeData@CPythonGuild@@@std@@PAX@std@@@1@PAU?$_Tree_node@U?$pair@$$CBEUSGuildGradeData@CPythonGuild@@@std@@PAX@1@ABUpiecewise_construct_t@1@$$QAV?$tuple@ABE@1@$$QAV?$tuple@$$V@1@@Z
	DD	2 DUP(00H)
	DD	2 DUP(00H)
	DD	00H
	DD	01H
xdata$x	ENDS
;	COMDAT xdata$x
xdata$x	SEGMENT
__unwindtable$??0?$_Tree_temp_node_alloc@V?$allocator@U?$_Tree_node@U?$pair@$$CBEUSGuildGradeData@CPythonGuild@@@std@@PAX@std@@@std@@@std@@QAE@AAV?$allocator@U?$_Tree_node@U?$pair@$$CBEUSGuildGradeData@CPythonGuild@@@std@@PAX@std@@@1@@Z DD 0ffffffffH
	DD	FLAT:__unwindfunclet$??0?$_Tree_temp_node_alloc@V?$allocator@U?$_Tree_node@U?$pair@$$CBEUSGuildGradeData@CPythonGuild@@@std@@PAX@std@@@std@@@std@@QAE@AAV?$allocator@U?$_Tree_node@U?$pair@$$CBEUSGuildGradeData@CPythonGuild@@@std@@PAX@std@@@1@@Z$0
__ehfuncinfo$??0?$_Tree_temp_node_alloc@V?$allocator@U?$_Tree_node@U?$pair@$$CBEUSGuildGradeData@CPythonGuild@@@std@@PAX@std@@@std@@@std@@QAE@AAV?$allocator@U?$_Tree_node@U?$pair@$$CBEUSGuildGradeData@CPythonGuild@@@std@@PAX@std@@@1@@Z DD 019930522H
	DD	01H
	DD	FLAT:__unwindtable$??0?$_Tree_temp_node_alloc@V?$allocator@U?$_Tree_node@U?$pair@$$CBEUSGuildGradeData@CPythonGuild@@@std@@PAX@std@@@std@@@std@@QAE@AAV?$allocator@U?$_Tree_node@U?$pair@$$CBEUSGuildGradeData@CPythonGuild@@@std@@PAX@std@@@1@@Z
	DD	2 DUP(00H)
	DD	2 DUP(00H)
	DD	00H
	DD	01H
xdata$x	ENDS
;	COMDAT xdata$x
xdata$x	SEGMENT
__unwindtable$??$emplace@U?$pair@HH@std@@@?$_Tree@V?$_Tmap_traits@KKU?$less@K@std@@V?$allocator@U?$pair@$$CBKK@std@@@2@$0A@@std@@@std@@QAE?AU?$pair@V?$_Tree_iterator@V?$_Tree_val@U?$_Tree_simple_types@U?$pair@$$CBKK@std@@@std@@@std@@@std@@_N@1@$$QAU?$pair@HH@1@@Z DD 0ffffffffH
	DD	FLAT:__unwindfunclet$??$emplace@U?$pair@HH@std@@@?$_Tree@V?$_Tmap_traits@KKU?$less@K@std@@V?$allocator@U?$pair@$$CBKK@std@@@2@$0A@@std@@@std@@QAE?AU?$pair@V?$_Tree_iterator@V?$_Tree_val@U?$_Tree_simple_types@U?$pair@$$CBKK@std@@@std@@@std@@@std@@_N@1@$$QAU?$pair@HH@1@@Z$2
	DD	0ffffffffH
	DD	FLAT:__unwindfunclet$??$emplace@U?$pair@HH@std@@@?$_Tree@V?$_Tmap_traits@KKU?$less@K@std@@V?$allocator@U?$pair@$$CBKK@std@@@2@$0A@@std@@@std@@QAE?AU?$pair@V?$_Tree_iterator@V?$_Tree_val@U?$_Tree_simple_types@U?$pair@$$CBKK@std@@@std@@@std@@@std@@_N@1@$$QAU?$pair@HH@1@@Z$0
__ehfuncinfo$??$emplace@U?$pair@HH@std@@@?$_Tree@V?$_Tmap_traits@KKU?$less@K@std@@V?$allocator@U?$pair@$$CBKK@std@@@2@$0A@@std@@@std@@QAE?AU?$pair@V?$_Tree_iterator@V?$_Tree_val@U?$_Tree_simple_types@U?$pair@$$CBKK@std@@@std@@@std@@@std@@_N@1@$$QAU?$pair@HH@1@@Z DD 019930522H
	DD	02H
	DD	FLAT:__unwindtable$??$emplace@U?$pair@HH@std@@@?$_Tree@V?$_Tmap_traits@KKU?$less@K@std@@V?$allocator@U?$pair@$$CBKK@std@@@2@$0A@@std@@@std@@QAE?AU?$pair@V?$_Tree_iterator@V?$_Tree_val@U?$_Tree_simple_types@U?$pair@$$CBKK@std@@@std@@@std@@@std@@_N@1@$$QAU?$pair@HH@1@@Z
	DD	2 DUP(00H)
	DD	2 DUP(00H)
	DD	00H
	DD	01H
xdata$x	ENDS
;	COMDAT xdata$x
xdata$x	SEGMENT
__unwindtable$??$emplace@U?$pair@KV?$basic_string@DU?$char_traits@D@std@@V?$allocator@D@2@@std@@@std@@@?$_Tree@V?$_Tmap_traits@KV?$basic_string@DU?$char_traits@D@std@@V?$allocator@D@2@@std@@U?$less@K@2@V?$allocator@U?$pair@$$CBKV?$basic_string@DU?$char_traits@D@std@@V?$allocator@D@2@@std@@@std@@@2@$0A@@std@@@std@@QAE?AU?$pair@V?$_Tree_iterator@V?$_Tree_val@U?$_Tree_simple_types@U?$pair@$$CBKV?$basic_string@DU?$char_traits@D@std@@V?$allocator@D@2@@std@@@std@@@std@@@std@@@std@@_N@1@$$QAU?$pair@KV?$basic_string@DU?$char_traits@D@std@@V?$allocator@D@2@@std@@@1@@Z DD 0ffffffffH
	DD	FLAT:__unwindfunclet$??$emplace@U?$pair@KV?$basic_string@DU?$char_traits@D@std@@V?$allocator@D@2@@std@@@std@@@?$_Tree@V?$_Tmap_traits@KV?$basic_string@DU?$char_traits@D@std@@V?$allocator@D@2@@std@@U?$less@K@2@V?$allocator@U?$pair@$$CBKV?$basic_string@DU?$char_traits@D@std@@V?$allocator@D@2@@std@@@std@@@2@$0A@@std@@@std@@QAE?AU?$pair@V?$_Tree_iterator@V?$_Tree_val@U?$_Tree_simple_types@U?$pair@$$CBKV?$basic_string@DU?$char_traits@D@std@@V?$allocator@D@2@@std@@@std@@@std@@@std@@@std@@_N@1@$$QAU?$pair@KV?$basic_string@DU?$char_traits@D@std@@V?$allocator@D@2@@std@@@1@@Z$2
__ehfuncinfo$??$emplace@U?$pair@KV?$basic_string@DU?$char_traits@D@std@@V?$allocator@D@2@@std@@@std@@@?$_Tree@V?$_Tmap_traits@KV?$basic_string@DU?$char_traits@D@std@@V?$allocator@D@2@@std@@U?$less@K@2@V?$allocator@U?$pair@$$CBKV?$basic_string@DU?$char_traits@D@std@@V?$allocator@D@2@@std@@@std@@@2@$0A@@std@@@std@@QAE?AU?$pair@V?$_Tree_iterator@V?$_Tree_val@U?$_Tree_simple_types@U?$pair@$$CBKV?$basic_string@DU?$char_traits@D@std@@V?$allocator@D@2@@std@@@std@@@std@@@std@@@std@@_N@1@$$QAU?$pair@KV?$basic_string@DU?$char_traits@D@std@@V?$allocator@D@2@@std@@@1@@Z DD 019930522H
	DD	01H
	DD	FLAT:__unwindtable$??$emplace@U?$pair@KV?$basic_string@DU?$char_traits@D@std@@V?$allocator@D@2@@std@@@std@@@?$_Tree@V?$_Tmap_traits@KV?$basic_string@DU?$char_traits@D@std@@V?$allocator@D@2@@std@@U?$less@K@2@V?$allocator@U?$pair@$$CBKV?$basic_string@DU?$char_traits@D@std@@V?$allocator@D@2@@std@@@std@@@2@$0A@@std@@@std@@QAE?AU?$pair@V?$_Tree_iterator@V?$_Tree_val@U?$_Tree_simple_types@U?$pair@$$CBKV?$basic_string@DU?$char_traits@D@std@@V?$allocator@D@2@@std@@@std@@@std@@@std@@@std@@_N@1@$$QAU?$pair@KV?$basic_string@DU?$char_traits@D@std@@V?$allocator@D@2@@std@@@1@@Z
	DD	2 DUP(00H)
	DD	2 DUP(00H)
	DD	00H
	DD	01H
xdata$x	ENDS
;	COMDAT xdata$x
xdata$x	SEGMENT
__unwindtable$??$_Try_emplace@ABK$$V@?$map@KV?$basic_string@DU?$char_traits@D@std@@V?$allocator@D@2@@std@@U?$less@K@2@V?$allocator@U?$pair@$$CBKV?$basic_string@DU?$char_traits@D@std@@V?$allocator@D@2@@std@@@std@@@2@@std@@AAE?AU?$pair@PAU?$_Tree_node@U?$pair@$$CBKV?$basic_string@DU?$char_traits@D@std@@V?$allocator@D@2@@std@@@std@@PAX@std@@_N@1@ABK@Z DD 0ffffffffH
	DD	FLAT:__unwindfunclet$??$_Try_emplace@ABK$$V@?$map@KV?$basic_string@DU?$char_traits@D@std@@V?$allocator@D@2@@std@@U?$less@K@2@V?$allocator@U?$pair@$$CBKV?$basic_string@DU?$char_traits@D@std@@V?$allocator@D@2@@std@@@std@@@2@@std@@AAE?AU?$pair@PAU?$_Tree_node@U?$pair@$$CBKV?$basic_string@DU?$char_traits@D@std@@V?$allocator@D@2@@std@@@std@@PAX@std@@_N@1@ABK@Z$2
__ehfuncinfo$??$_Try_emplace@ABK$$V@?$map@KV?$basic_string@DU?$char_traits@D@std@@V?$allocator@D@2@@std@@U?$less@K@2@V?$allocator@U?$pair@$$CBKV?$basic_string@DU?$char_traits@D@std@@V?$allocator@D@2@@std@@@std@@@2@@std@@AAE?AU?$pair@PAU?$_Tree_node@U?$pair@$$CBKV?$basic_string@DU?$char_traits@D@std@@V?$allocator@D@2@@std@@@std@@PAX@std@@_N@1@ABK@Z DD 019930522H
	DD	01H
	DD	FLAT:__unwindtable$??$_Try_emplace@ABK$$V@?$map@KV?$basic_string@DU?$char_traits@D@std@@V?$allocator@D@2@@std@@U?$less@K@2@V?$allocator@U?$pair@$$CBKV?$basic_string@DU?$char_traits@D@std@@V?$allocator@D@2@@std@@@std@@@2@@std@@AAE?AU?$pair@PAU?$_Tree_node@U?$pair@$$CBKV?$basic_string@DU?$char_traits@D@std@@V?$allocator@D@2@@std@@@std@@PAX@std@@_N@1@ABK@Z
	DD	2 DUP(00H)
	DD	2 DUP(00H)
	DD	00H
	DD	01H
xdata$x	ENDS
;	COMDAT xdata$x
xdata$x	SEGMENT
__unwindtable$??$_Try_emplace@ABE$$V@?$map@EUSGuildGradeData@CPythonGuild@@U?$less@E@std@@V?$allocator@U?$pair@$$CBEUSGuildGradeData@CPythonGuild@@@std@@@4@@std@@AAE?AU?$pair@PAU?$_Tree_node@U?$pair@$$CBEUSGuildGradeData@CPythonGuild@@@std@@PAX@std@@_N@1@ABE@Z DD 0ffffffffH
	DD	FLAT:__unwindfunclet$??$_Try_emplace@ABE$$V@?$map@EUSGuildGradeData@CPythonGuild@@U?$less@E@std@@V?$allocator@U?$pair@$$CBEUSGuildGradeData@CPythonGuild@@@std@@@4@@std@@AAE?AU?$pair@PAU?$_Tree_node@U?$pair@$$CBEUSGuildGradeData@CPythonGuild@@@std@@PAX@std@@_N@1@ABE@Z$2
__ehfuncinfo$??$_Try_emplace@ABE$$V@?$map@EUSGuildGradeData@CPythonGuild@@U?$less@E@std@@V?$allocator@U?$pair@$$CBEUSGuildGradeData@CPythonGuild@@@std@@@4@@std@@AAE?AU?$pair@PAU?$_Tree_node@U?$pair@$$CBEUSGuildGradeData@CPythonGuild@@@std@@PAX@std@@_N@1@ABE@Z DD 019930522H
	DD	01H
	DD	FLAT:__unwindtable$??$_Try_emplace@ABE$$V@?$map@EUSGuildGradeData@CPythonGuild@@U?$less@E@std@@V?$allocator@U?$pair@$$CBEUSGuildGradeData@CPythonGuild@@@std@@@4@@std@@AAE?AU?$pair@PAU?$_Tree_node@U?$pair@$$CBEUSGuildGradeData@CPythonGuild@@@std@@PAX@std@@_N@1@ABE@Z
	DD	2 DUP(00H)
	DD	2 DUP(00H)
	DD	00H
	DD	01H
xdata$x	ENDS
;	COMDAT xdata$x
xdata$x	SEGMENT
__catchsym$??$_Emplace_reallocate@ABUSGuildMemberData@CPythonGuild@@@?$vector@USGuildMemberData@CPythonGuild@@V?$allocator@USGuildMemberData@CPythonGuild@@@std@@@std@@QAEPAUSGuildMemberData@CPythonGuild@@QAU23@ABU23@@Z$3 DD 040H
	DD	00H
	DD	00H
	DD	FLAT:__catch$??$_Emplace_reallocate@ABUSGuildMemberData@CPythonGuild@@@?$vector@USGuildMemberData@CPythonGuild@@V?$allocator@USGuildMemberData@CPythonGuild@@@std@@@std@@QAEPAUSGuildMemberData@CPythonGuild@@QAU23@ABU23@@Z$0
__unwindtable$??$_Emplace_reallocate@ABUSGuildMemberData@CPythonGuild@@@?$vector@USGuildMemberData@CPythonGuild@@V?$allocator@USGuildMemberData@CPythonGuild@@@std@@@std@@QAEPAUSGuildMemberData@CPythonGuild@@QAU23@ABU23@@Z DD 0ffffffffH
	DD	00H
	DD	0ffffffffH
	DD	00H
__tryblocktable$??$_Emplace_reallocate@ABUSGuildMemberData@CPythonGuild@@@?$vector@USGuildMemberData@CPythonGuild@@V?$allocator@USGuildMemberData@CPythonGuild@@@std@@@std@@QAEPAUSGuildMemberData@CPythonGuild@@QAU23@ABU23@@Z DD 00H
	DD	00H
	DD	01H
	DD	01H
	DD	FLAT:__catchsym$??$_Emplace_reallocate@ABUSGuildMemberData@CPythonGuild@@@?$vector@USGuildMemberData@CPythonGuild@@V?$allocator@USGuildMemberData@CPythonGuild@@@std@@@std@@QAEPAUSGuildMemberData@CPythonGuild@@QAU23@ABU23@@Z$3
__ehfuncinfo$??$_Emplace_reallocate@ABUSGuildMemberData@CPythonGuild@@@?$vector@USGuildMemberData@CPythonGuild@@V?$allocator@USGuildMemberData@CPythonGuild@@@std@@@std@@QAEPAUSGuildMemberData@CPythonGuild@@QAU23@ABU23@@Z DD 019930522H
	DD	02H
	DD	FLAT:__unwindtable$??$_Emplace_reallocate@ABUSGuildMemberData@CPythonGuild@@@?$vector@USGuildMemberData@CPythonGuild@@V?$allocator@USGuildMemberData@CPythonGuild@@@std@@@std@@QAEPAUSGuildMemberData@CPythonGuild@@QAU23@ABU23@@Z
	DD	01H
	DD	FLAT:__tryblocktable$??$_Emplace_reallocate@ABUSGuildMemberData@CPythonGuild@@@?$vector@USGuildMemberData@CPythonGuild@@V?$allocator@USGuildMemberData@CPythonGuild@@@std@@@std@@QAEPAUSGuildMemberData@CPythonGuild@@QAU23@ABU23@@Z
	DD	2 DUP(00H)
	DD	00H
	DD	01H
xdata$x	ENDS
;	COMDAT xdata$x
xdata$x	SEGMENT
__catchsym$??$_Emplace_reallocate@ABUSGuildBoardCommentData@CPythonGuild@@@?$vector@USGuildBoardCommentData@CPythonGuild@@V?$allocator@USGuildBoardCommentData@CPythonGuild@@@std@@@std@@QAEPAUSGuildBoardCommentData@CPythonGuild@@QAU23@ABU23@@Z$4 DD 040H
	DD	00H
	DD	00H
	DD	FLAT:__catch$??$_Emplace_reallocate@ABUSGuildBoardCommentData@CPythonGuild@@@?$vector@USGuildBoardCommentData@CPythonGuild@@V?$allocator@USGuildBoardCommentData@CPythonGuild@@@std@@@std@@QAEPAUSGuildBoardCommentData@CPythonGuild@@QAU23@ABU23@@Z$0
__tryblocktable$??$_Emplace_reallocate@ABUSGuildBoardCommentData@CPythonGuild@@@?$vector@USGuildBoardCommentData@CPythonGuild@@V?$allocator@USGuildBoardCommentData@CPythonGuild@@@std@@@std@@QAEPAUSGuildBoardCommentData@CPythonGuild@@QAU23@ABU23@@Z DD 00H
	DD	01H
	DD	02H
	DD	01H
	DD	FLAT:__catchsym$??$_Emplace_reallocate@ABUSGuildBoardCommentData@CPythonGuild@@@?$vector@USGuildBoardCommentData@CPythonGuild@@V?$allocator@USGuildBoardCommentData@CPythonGuild@@@std@@@std@@QAEPAUSGuildBoardCommentData@CPythonGuild@@QAU23@ABU23@@Z$4
__unwindtable$??$_Emplace_reallocate@ABUSGuildBoardCommentData@CPythonGuild@@@?$vector@USGuildBoardCommentData@CPythonGuild@@V?$allocator@USGuildBoardCommentData@CPythonGuild@@@std@@@std@@QAEPAUSGuildBoardCommentData@CPythonGuild@@QAU23@ABU23@@Z DD 0ffffffffH
	DD	00H
	DD	00H
	DD	FLAT:__unwindfunclet$??$_Emplace_reallocate@ABUSGuildBoardCommentData@CPythonGuild@@@?$vector@USGuildBoardCommentData@CPythonGuild@@V?$allocator@USGuildBoardCommentData@CPythonGuild@@@std@@@std@@QAEPAUSGuildBoardCommentData@CPythonGuild@@QAU23@ABU23@@Z$2
	DD	0ffffffffH
	DD	00H
__ehfuncinfo$??$_Emplace_reallocate@ABUSGuildBoardCommentData@CPythonGuild@@@?$vector@USGuildBoardCommentData@CPythonGuild@@V?$allocator@USGuildBoardCommentData@CPythonGuild@@@std@@@std@@QAEPAUSGuildBoardCommentData@CPythonGuild@@QAU23@ABU23@@Z DD 019930522H
	DD	03H
	DD	FLAT:__unwindtable$??$_Emplace_reallocate@ABUSGuildBoardCommentData@CPythonGuild@@@?$vector@USGuildBoardCommentData@CPythonGuild@@V?$allocator@USGuildBoardCommentData@CPythonGuild@@@std@@@std@@QAEPAUSGuildBoardCommentData@CPythonGuild@@QAU23@ABU23@@Z
	DD	01H
	DD	FLAT:__tryblocktable$??$_Emplace_reallocate@ABUSGuildBoardCommentData@CPythonGuild@@@?$vector@USGuildBoardCommentData@CPythonGuild@@V?$allocator@USGuildBoardCommentData@CPythonGuild@@@std@@@std@@QAEPAUSGuildBoardCommentData@CPythonGuild@@QAU23@ABU23@@Z
	DD	2 DUP(00H)
	DD	00H
	DD	01H
xdata$x	ENDS
;	COMDAT xdata$x
xdata$x	SEGMENT
__unwindtable$??$construct@USGuildBoardCommentData@CPythonGuild@@ABU12@@?$_Default_allocator_traits@V?$allocator@USGuildBoardCommentData@CPythonGuild@@@std@@@std@@SAXAAV?$allocator@USGuildBoardCommentData@CPythonGuild@@@1@QAUSGuildBoardCommentData@CPythonGuild@@ABU34@@Z DD 0ffffffffH
	DD	FLAT:__unwindfunclet$??$construct@USGuildBoardCommentData@CPythonGuild@@ABU12@@?$_Default_allocator_traits@V?$allocator@USGuildBoardCommentData@CPythonGuild@@@std@@@std@@SAXAAV?$allocator@USGuildBoardCommentData@CPythonGuild@@@1@QAUSGuildBoardCommentData@CPythonGuild@@ABU34@@Z$0
__ehfuncinfo$??$construct@USGuildBoardCommentData@CPythonGuild@@ABU12@@?$_Default_allocator_traits@V?$allocator@USGuildBoardCommentData@CPythonGuild@@@std@@@std@@SAXAAV?$allocator@USGuildBoardCommentData@CPythonGuild@@@1@QAUSGuildBoardCommentData@CPythonGuild@@ABU34@@Z DD 019930522H
	DD	01H
	DD	FLAT:__unwindtable$??$construct@USGuildBoardCommentData@CPythonGuild@@ABU12@@?$_Default_allocator_traits@V?$allocator@USGuildBoardCommentData@CPythonGuild@@@std@@@std@@SAXAAV?$allocator@USGuildBoardCommentData@CPythonGuild@@@1@QAUSGuildBoardCommentData@CPythonGuild@@ABU34@@Z
	DD	2 DUP(00H)
	DD	2 DUP(00H)
	DD	00H
	DD	01H
xdata$x	ENDS
;	COMDAT xdata$x
xdata$x	SEGMENT
__unwindtable$??$_Emplace_back_with_unused_capacity@ABUSGuildBoardCommentData@CPythonGuild@@@?$vector@USGuildBoardCommentData@CPythonGuild@@V?$allocator@USGuildBoardCommentData@CPythonGuild@@@std@@@std@@AAEXABUSGuildBoardCommentData@CPythonGuild@@@Z DD 0ffffffffH
	DD	FLAT:__unwindfunclet$??$_Emplace_back_with_unused_capacity@ABUSGuildBoardCommentData@CPythonGuild@@@?$vector@USGuildBoardCommentData@CPythonGuild@@V?$allocator@USGuildBoardCommentData@CPythonGuild@@@std@@@std@@AAEXABUSGuildBoardCommentData@CPythonGuild@@@Z$0
__ehfuncinfo$??$_Emplace_back_with_unused_capacity@ABUSGuildBoardCommentData@CPythonGuild@@@?$vector@USGuildBoardCommentData@CPythonGuild@@V?$allocator@USGuildBoardCommentData@CPythonGuild@@@std@@@std@@AAEXABUSGuildBoardCommentData@CPythonGuild@@@Z DD 019930522H
	DD	01H
	DD	FLAT:__unwindtable$??$_Emplace_back_with_unused_capacity@ABUSGuildBoardCommentData@CPythonGuild@@@?$vector@USGuildBoardCommentData@CPythonGuild@@V?$allocator@USGuildBoardCommentData@CPythonGuild@@@std@@@std@@AAEXABUSGuildBoardCommentData@CPythonGuild@@@Z
	DD	2 DUP(00H)
	DD	2 DUP(00H)
	DD	00H
	DD	01H
xdata$x	ENDS
;	COMDAT xdata$x
xdata$x	SEGMENT
__unwindtable$??$emplace_back@ABUSGuildBoardCommentData@CPythonGuild@@@?$vector@USGuildBoardCommentData@CPythonGuild@@V?$allocator@USGuildBoardCommentData@CPythonGuild@@@std@@@std@@QAEXABUSGuildBoardCommentData@CPythonGuild@@@Z DD 0ffffffffH
	DD	FLAT:__unwindfunclet$??$emplace_back@ABUSGuildBoardCommentData@CPythonGuild@@@?$vector@USGuildBoardCommentData@CPythonGuild@@V?$allocator@USGuildBoardCommentData@CPythonGuild@@@std@@@std@@QAEXABUSGuildBoardCommentData@CPythonGuild@@@Z$0
__ehfuncinfo$??$emplace_back@ABUSGuildBoardCommentData@CPythonGuild@@@?$vector@USGuildBoardCommentData@CPythonGuild@@V?$allocator@USGuildBoardCommentData@CPythonGuild@@@std@@@std@@QAEXABUSGuildBoardCommentData@CPythonGuild@@@Z DD 019930522H
	DD	01H
	DD	FLAT:__unwindtable$??$emplace_back@ABUSGuildBoardCommentData@CPythonGuild@@@?$vector@USGuildBoardCommentData@CPythonGuild@@V?$allocator@USGuildBoardCommentData@CPythonGuild@@@std@@@std@@QAEXABUSGuildBoardCommentData@CPythonGuild@@@Z
	DD	2 DUP(00H)
	DD	2 DUP(00H)
	DD	00H
	DD	01H
xdata$x	ENDS
;	COMDAT xdata$x
xdata$x	SEGMENT
__unwindtable$?guildGetMarkImageFilenameByMarkID@@YAPAU_object@@PAU1@0@Z DD 0ffffffffH
	DD	FLAT:__unwindfunclet$?guildGetMarkImageFilenameByMarkID@@YAPAU_object@@PAU1@0@Z$0
__ehfuncinfo$?guildGetMarkImageFilenameByMarkID@@YAPAU_object@@PAU1@0@Z DD 019930522H
	DD	01H
	DD	FLAT:__unwindtable$?guildGetMarkImageFilenameByMarkID@@YAPAU_object@@PAU1@0@Z
	DD	2 DUP(00H)
	DD	2 DUP(00H)
	DD	00H
	DD	01H
xdata$x	ENDS
;	COMDAT xdata$x
xdata$x	SEGMENT
__unwindtable$??$insert@U?$pair@HH@std@@$0A@@?$map@KKU?$less@K@std@@V?$allocator@U?$pair@$$CBKK@std@@@2@@std@@QAE?AU?$pair@V?$_Tree_iterator@V?$_Tree_val@U?$_Tree_simple_types@U?$pair@$$CBKK@std@@@std@@@std@@@std@@_N@1@$$QAU?$pair@HH@1@@Z DD 0ffffffffH
	DD	FLAT:__unwindfunclet$??$insert@U?$pair@HH@std@@$0A@@?$map@KKU?$less@K@std@@V?$allocator@U?$pair@$$CBKK@std@@@2@@std@@QAE?AU?$pair@V?$_Tree_iterator@V?$_Tree_val@U?$_Tree_simple_types@U?$pair@$$CBKK@std@@@std@@@std@@@std@@_N@1@$$QAU?$pair@HH@1@@Z$2
	DD	0ffffffffH
	DD	FLAT:__unwindfunclet$??$insert@U?$pair@HH@std@@$0A@@?$map@KKU?$less@K@std@@V?$allocator@U?$pair@$$CBKK@std@@@2@@std@@QAE?AU?$pair@V?$_Tree_iterator@V?$_Tree_val@U?$_Tree_simple_types@U?$pair@$$CBKK@std@@@std@@@std@@@std@@_N@1@$$QAU?$pair@HH@1@@Z$0
__ehfuncinfo$??$insert@U?$pair@HH@std@@$0A@@?$map@KKU?$less@K@std@@V?$allocator@U?$pair@$$CBKK@std@@@2@@std@@QAE?AU?$pair@V?$_Tree_iterator@V?$_Tree_val@U?$_Tree_simple_types@U?$pair@$$CBKK@std@@@std@@@std@@@std@@_N@1@$$QAU?$pair@HH@1@@Z DD 019930522H
	DD	02H
	DD	FLAT:__unwindtable$??$insert@U?$pair@HH@std@@$0A@@?$map@KKU?$less@K@std@@V?$allocator@U?$pair@$$CBKK@std@@@2@@std@@QAE?AU?$pair@V?$_Tree_iterator@V?$_Tree_val@U?$_Tree_simple_types@U?$pair@$$CBKK@std@@@std@@@std@@@std@@_N@1@$$QAU?$pair@HH@1@@Z
	DD	2 DUP(00H)
	DD	2 DUP(00H)
	DD	00H
	DD	01H
xdata$x	ENDS
;	COMDAT xdata$x
xdata$x	SEGMENT
__unwindtable$?guildSetSkillIndex@@YAPAU_object@@PAU1@0@Z DD 0ffffffffH
	DD	FLAT:__unwindfunclet$?guildSetSkillIndex@@YAPAU_object@@PAU1@0@Z$2
	DD	0ffffffffH
	DD	FLAT:__unwindfunclet$?guildSetSkillIndex@@YAPAU_object@@PAU1@0@Z$0
__ehfuncinfo$?guildSetSkillIndex@@YAPAU_object@@PAU1@0@Z DD 019930522H
	DD	02H
	DD	FLAT:__unwindtable$?guildSetSkillIndex@@YAPAU_object@@PAU1@0@Z
	DD	2 DUP(00H)
	DD	2 DUP(00H)
	DD	00H
	DD	01H
xdata$x	ENDS
;	COMDAT xdata$x
xdata$x	SEGMENT
__unwindtable$?guildGetEnemyGuildName@@YAPAU_object@@PAU1@0@Z DD 0ffffffffH
	DD	FLAT:__unwindfunclet$?guildGetEnemyGuildName@@YAPAU_object@@PAU1@0@Z$0
__ehfuncinfo$?guildGetEnemyGuildName@@YAPAU_object@@PAU1@0@Z DD 019930522H
	DD	01H
	DD	FLAT:__unwindtable$?guildGetEnemyGuildName@@YAPAU_object@@PAU1@0@Z
	DD	2 DUP(00H)
	DD	2 DUP(00H)
	DD	00H
	DD	01H
xdata$x	ENDS
;	COMDAT xdata$x
xdata$x	SEGMENT
__unwindtable$?guildGetGuildName@@YAPAU_object@@PAU1@0@Z DD 0ffffffffH
	DD	FLAT:__unwindfunclet$?guildGetGuildName@@YAPAU_object@@PAU1@0@Z$0
__ehfuncinfo$?guildGetGuildName@@YAPAU_object@@PAU1@0@Z DD 019930522H
	DD	01H
	DD	FLAT:__unwindtable$?guildGetGuildName@@YAPAU_object@@PAU1@0@Z
	DD	2 DUP(00H)
	DD	2 DUP(00H)
	DD	00H
	DD	01H
xdata$x	ENDS
;	COMDAT xdata$x
xdata$x	SEGMENT
__unwindtable$??$insert@U?$pair@KV?$basic_string@DU?$char_traits@D@std@@V?$allocator@D@2@@std@@@std@@$0A@@?$map@KV?$basic_string@DU?$char_traits@D@std@@V?$allocator@D@2@@std@@U?$less@K@2@V?$allocator@U?$pair@$$CBKV?$basic_string@DU?$char_traits@D@std@@V?$allocator@D@2@@std@@@std@@@2@@std@@QAE?AU?$pair@V?$_Tree_iterator@V?$_Tree_val@U?$_Tree_simple_types@U?$pair@$$CBKV?$basic_string@DU?$char_traits@D@std@@V?$allocator@D@2@@std@@@std@@@std@@@std@@@std@@_N@1@$$QAU?$pair@KV?$basic_string@DU?$char_traits@D@std@@V?$allocator@D@2@@std@@@1@@Z DD 0ffffffffH
	DD	FLAT:__unwindfunclet$??$insert@U?$pair@KV?$basic_string@DU?$char_traits@D@std@@V?$allocator@D@2@@std@@@std@@$0A@@?$map@KV?$basic_string@DU?$char_traits@D@std@@V?$allocator@D@2@@std@@U?$less@K@2@V?$allocator@U?$pair@$$CBKV?$basic_string@DU?$char_traits@D@std@@V?$allocator@D@2@@std@@@std@@@2@@std@@QAE?AU?$pair@V?$_Tree_iterator@V?$_Tree_val@U?$_Tree_simple_types@U?$pair@$$CBKV?$basic_string@DU?$char_traits@D@std@@V?$allocator@D@2@@std@@@std@@@std@@@std@@@std@@_N@1@$$QAU?$pair@KV?$basic_string@DU?$char_traits@D@std@@V?$allocator@D@2@@std@@@1@@Z$2
__ehfuncinfo$??$insert@U?$pair@KV?$basic_string@DU?$char_traits@D@std@@V?$allocator@D@2@@std@@@std@@$0A@@?$map@KV?$basic_string@DU?$char_traits@D@std@@V?$allocator@D@2@@std@@U?$less@K@2@V?$allocator@U?$pair@$$CBKV?$basic_string@DU?$char_traits@D@std@@V?$allocator@D@2@@std@@@std@@@2@@std@@QAE?AU?$pair@V?$_Tree_iterator@V?$_Tree_val@U?$_Tree_simple_types@U?$pair@$$CBKV?$basic_string@DU?$char_traits@D@std@@V?$allocator@D@2@@std@@@std@@@std@@@std@@@std@@_N@1@$$QAU?$pair@KV?$basic_string@DU?$char_traits@D@std@@V?$allocator@D@2@@std@@@1@@Z DD 019930522H
	DD	01H
	DD	FLAT:__unwindtable$??$insert@U?$pair@KV?$basic_string@DU?$char_traits@D@std@@V?$allocator@D@2@@std@@@std@@$0A@@?$map@KV?$basic_string@DU?$char_traits@D@std@@V?$allocator@D@2@@std@@U?$less@K@2@V?$allocator@U?$pair@$$CBKV?$basic_string@DU?$char_traits@D@std@@V?$allocator@D@2@@std@@@std@@@2@@std@@QAE?AU?$pair@V?$_Tree_iterator@V?$_Tree_val@U?$_Tree_simple_types@U?$pair@$$CBKV?$basic_string@DU?$char_traits@D@std@@V?$allocator@D@2@@std@@@std@@@std@@@std@@@std@@_N@1@$$QAU?$pair@KV?$basic_string@DU?$char_traits@D@std@@V?$allocator@D@2@@std@@@1@@Z
	DD	2 DUP(00H)
	DD	2 DUP(00H)
	DD	00H
	DD	01H
xdata$x	ENDS
;	COMDAT xdata$x
xdata$x	SEGMENT
__unwindtable$?push_back@?$vector@USGuildBoardCommentData@CPythonGuild@@V?$allocator@USGuildBoardCommentData@CPythonGuild@@@std@@@std@@QAEXABUSGuildBoardCommentData@CPythonGuild@@@Z DD 0ffffffffH
	DD	FLAT:__unwindfunclet$?push_back@?$vector@USGuildBoardCommentData@CPythonGuild@@V?$allocator@USGuildBoardCommentData@CPythonGuild@@@std@@@std@@QAEXABUSGuildBoardCommentData@CPythonGuild@@@Z$0
__ehfuncinfo$?push_back@?$vector@USGuildBoardCommentData@CPythonGuild@@V?$allocator@USGuildBoardCommentData@CPythonGuild@@@std@@@std@@QAEXABUSGuildBoardCommentData@CPythonGuild@@@Z DD 019930522H
	DD	01H
	DD	FLAT:__unwindtable$?push_back@?$vector@USGuildBoardCommentData@CPythonGuild@@V?$allocator@USGuildBoardCommentData@CPythonGuild@@@std@@@std@@QAEXABUSGuildBoardCommentData@CPythonGuild@@@Z
	DD	2 DUP(00H)
	DD	2 DUP(00H)
	DD	00H
	DD	01H
xdata$x	ENDS
;	COMDAT xdata$x
xdata$x	SEGMENT
__unwindtable$??A?$map@EUSGuildGradeData@CPythonGuild@@U?$less@E@std@@V?$allocator@U?$pair@$$CBEUSGuildGradeData@CPythonGuild@@@std@@@4@@std@@QAEAAUSGuildGradeData@CPythonGuild@@ABE@Z DD 0ffffffffH
	DD	FLAT:__unwindfunclet$??A?$map@EUSGuildGradeData@CPythonGuild@@U?$less@E@std@@V?$allocator@U?$pair@$$CBEUSGuildGradeData@CPythonGuild@@@std@@@4@@std@@QAEAAUSGuildGradeData@CPythonGuild@@ABE@Z$2
__ehfuncinfo$??A?$map@EUSGuildGradeData@CPythonGuild@@U?$less@E@std@@V?$allocator@U?$pair@$$CBEUSGuildGradeData@CPythonGuild@@@std@@@4@@std@@QAEAAUSGuildGradeData@CPythonGuild@@ABE@Z DD 019930522H
	DD	01H
	DD	FLAT:__unwindtable$??A?$map@EUSGuildGradeData@CPythonGuild@@U?$less@E@std@@V?$allocator@U?$pair@$$CBEUSGuildGradeData@CPythonGuild@@@std@@@4@@std@@QAEAAUSGuildGradeData@CPythonGuild@@ABE@Z
	DD	2 DUP(00H)
	DD	2 DUP(00H)
	DD	00H
	DD	01H
xdata$x	ENDS
;	COMDAT xdata$x
xdata$x	SEGMENT
__unwindtable$?GetGuildName@CPythonGuild@@QAE_NKPAV?$basic_string@DU?$char_traits@D@std@@V?$allocator@D@2@@std@@@Z DD 0ffffffffH
	DD	FLAT:__unwindfunclet$?GetGuildName@CPythonGuild@@QAE_NKPAV?$basic_string@DU?$char_traits@D@std@@V?$allocator@D@2@@std@@@Z$2
__ehfuncinfo$?GetGuildName@CPythonGuild@@QAE_NKPAV?$basic_string@DU?$char_traits@D@std@@V?$allocator@D@2@@std@@@Z DD 019930522H
	DD	01H
	DD	FLAT:__unwindtable$?GetGuildName@CPythonGuild@@QAE_NKPAV?$basic_string@DU?$char_traits@D@std@@V?$allocator@D@2@@std@@@Z
	DD	2 DUP(00H)
	DD	2 DUP(00H)
	DD	00H
	DD	01H
xdata$x	ENDS
;	COMDAT xdata$x
xdata$x	SEGMENT
__unwindtable$?RegisterGuildName@CPythonGuild@@QAEXKPBD@Z DD 0ffffffffH
	DD	FLAT:__unwindfunclet$?RegisterGuildName@CPythonGuild@@QAEXKPBD@Z$0
	DD	00H
	DD	FLAT:__unwindfunclet$?RegisterGuildName@CPythonGuild@@QAEXKPBD@Z$1
	DD	01H
	DD	FLAT:__unwindfunclet$?RegisterGuildName@CPythonGuild@@QAEXKPBD@Z$11
__ehfuncinfo$?RegisterGuildName@CPythonGuild@@QAEXKPBD@Z DD 019930522H
	DD	03H
	DD	FLAT:__unwindtable$?RegisterGuildName@CPythonGuild@@QAEXKPBD@Z
	DD	2 DUP(00H)
	DD	2 DUP(00H)
	DD	00H
	DD	01H
xdata$x	ENDS
;	COMDAT xdata$x
xdata$x	SEGMENT
__unwindtable$?RegisterComment@CPythonGuild@@QAEXKPBD0@Z DD 0ffffffffH
	DD	FLAT:__unwindfunclet$?RegisterComment@CPythonGuild@@QAEXKPBD0@Z$0
	DD	00H
	DD	FLAT:__unwindfunclet$?RegisterComment@CPythonGuild@@QAEXKPBD0@Z$8
__ehfuncinfo$?RegisterComment@CPythonGuild@@QAEXKPBD0@Z DD 019930522H
	DD	02H
	DD	FLAT:__unwindtable$?RegisterComment@CPythonGuild@@QAEXKPBD0@Z
	DD	2 DUP(00H)
	DD	2 DUP(00H)
	DD	00H
	DD	01H
xdata$x	ENDS
;	COMDAT xdata$x
xdata$x	SEGMENT
__unwindtable$?SetGradeData@CPythonGuild@@QAEXEAAUSGuildGradeData@1@@Z DD 0ffffffffH
	DD	FLAT:__unwindfunclet$?SetGradeData@CPythonGuild@@QAEXEAAUSGuildGradeData@1@@Z$2
__ehfuncinfo$?SetGradeData@CPythonGuild@@QAEXEAAUSGuildGradeData@1@@Z DD 019930522H
	DD	01H
	DD	FLAT:__unwindtable$?SetGradeData@CPythonGuild@@QAEXEAAUSGuildGradeData@1@@Z
	DD	2 DUP(00H)
	DD	2 DUP(00H)
	DD	00H
	DD	01H
xdata$x	ENDS
;	COMDAT xdata$x
xdata$x	SEGMENT
__unwindtable$??0CPythonGuild@@QAE@XZ DD 0ffffffffH
	DD	FLAT:__unwindfunclet$??0CPythonGuild@@QAE@XZ$0
	DD	00H
	DD	FLAT:__unwindfunclet$??0CPythonGuild@@QAE@XZ$1
	DD	01H
	DD	FLAT:__unwindfunclet$??0CPythonGuild@@QAE@XZ$2
	DD	02H
	DD	FLAT:__unwindfunclet$??0CPythonGuild@@QAE@XZ$3
__ehfuncinfo$??0CPythonGuild@@QAE@XZ DD 019930522H
	DD	04H
	DD	FLAT:__unwindtable$??0CPythonGuild@@QAE@XZ
	DD	2 DUP(00H)
	DD	2 DUP(00H)
	DD	00H
	DD	01H
xdata$x	ENDS
;	COMDAT xdata$x
xdata$x	SEGMENT
__unwindtable$??0SGuildBoardCommentData@CPythonGuild@@QAE@ABU01@@Z DD 0ffffffffH
	DD	FLAT:__unwindfunclet$??0SGuildBoardCommentData@CPythonGuild@@QAE@ABU01@@Z$0
__ehfuncinfo$??0SGuildBoardCommentData@CPythonGuild@@QAE@ABU01@@Z DD 019930522H
	DD	01H
	DD	FLAT:__unwindtable$??0SGuildBoardCommentData@CPythonGuild@@QAE@ABU01@@Z
	DD	2 DUP(00H)
	DD	2 DUP(00H)
	DD	00H
	DD	01H
xdata$x	ENDS
;	COMDAT xdata$x
xdata$x	SEGMENT
__unwindtable$??A?$map@KV?$basic_string@DU?$char_traits@D@std@@V?$allocator@D@2@@std@@U?$less@K@2@V?$allocator@U?$pair@$$CBKV?$basic_string@DU?$char_traits@D@std@@V?$allocator@D@2@@std@@@std@@@2@@std@@QAEAAV?$basic_string@DU?$char_traits@D@std@@V?$allocator@D@2@@1@ABK@Z DD 0ffffffffH
	DD	FLAT:__unwindfunclet$??A?$map@KV?$basic_string@DU?$char_traits@D@std@@V?$allocator@D@2@@std@@U?$less@K@2@V?$allocator@U?$pair@$$CBKV?$basic_string@DU?$char_traits@D@std@@V?$allocator@D@2@@std@@@std@@@2@@std@@QAEAAV?$basic_string@DU?$char_traits@D@std@@V?$allocator@D@2@@1@ABK@Z$2
__ehfuncinfo$??A?$map@KV?$basic_string@DU?$char_traits@D@std@@V?$allocator@D@2@@std@@U?$less@K@2@V?$allocator@U?$pair@$$CBKV?$basic_string@DU?$char_traits@D@std@@V?$allocator@D@2@@std@@@std@@@2@@std@@QAEAAV?$basic_string@DU?$char_traits@D@std@@V?$allocator@D@2@@1@ABK@Z DD 019930522H
	DD	01H
	DD	FLAT:__unwindtable$??A?$map@KV?$basic_string@DU?$char_traits@D@std@@V?$allocator@D@2@@std@@U?$less@K@2@V?$allocator@U?$pair@$$CBKV?$basic_string@DU?$char_traits@D@std@@V?$allocator@D@2@@std@@@std@@@2@@std@@QAEAAV?$basic_string@DU?$char_traits@D@std@@V?$allocator@D@2@@1@ABK@Z
	DD	2 DUP(00H)
	DD	2 DUP(00H)
	DD	00H
	DD	01H
xdata$x	ENDS
; Function compile flags: /Ogtp
; File C:\Program Files (x86)\Microsoft Visual Studio\2019\Community\VC\Tools\MSVC\14.28.29333\include\xmemory
;	COMDAT ??$_Construct_in_place@PAU?$_Tree_node@U?$pair@$$CBKK@std@@PAX@std@@AAPAU12@@std@@YAXAAPAU?$_Tree_node@U?$pair@$$CBKK@std@@PAX@0@0@Z
_TEXT	SEGMENT
__Obj$ = 8						; size = 4
_<_Args_0>$ = 12					; size = 4
??$_Construct_in_place@PAU?$_Tree_node@U?$pair@$$CBKK@std@@PAX@std@@AAPAU12@@std@@YAXAAPAU?$_Tree_node@U?$pair@$$CBKK@std@@PAX@0@0@Z PROC ; std::_Construct_in_place<std::_Tree_node<std::pair<unsigned long const ,unsigned long>,void *> *,std::_Tree_node<std::pair<unsigned long const ,unsigned long>,void *> * &>, COMDAT

; 228  : void _Construct_in_place(_Ty& _Obj, _Types&&... _Args) noexcept(is_nothrow_constructible_v<_Ty, _Types...>) {

  00000	55		 push	 ebp
  00001	8b ec		 mov	 ebp, esp

; 229  :     ::new (const_cast<void*>(static_cast<const volatile void*>(_STD addressof(_Obj))))

  00003	8b 45 0c	 mov	 eax, DWORD PTR _<_Args_0>$[ebp]
  00006	8b 08		 mov	 ecx, DWORD PTR [eax]
  00008	8b 45 08	 mov	 eax, DWORD PTR __Obj$[ebp]
  0000b	89 08		 mov	 DWORD PTR [eax], ecx

; 230  :         _Ty(_STD forward<_Types>(_Args)...);
; 231  : }

  0000d	5d		 pop	 ebp
  0000e	c3		 ret	 0
??$_Construct_in_place@PAU?$_Tree_node@U?$pair@$$CBKK@std@@PAX@std@@AAPAU12@@std@@YAXAAPAU?$_Tree_node@U?$pair@$$CBKK@std@@PAX@0@0@Z ENDP ; std::_Construct_in_place<std::_Tree_node<std::pair<unsigned long const ,unsigned long>,void *> *,std::_Tree_node<std::pair<unsigned long const ,unsigned long>,void *> * &>
_TEXT	ENDS
; Function compile flags: /Ogtp
; File C:\Program Files (x86)\Microsoft Visual Studio\2019\Community\VC\Tools\MSVC\14.28.29333\include\xtree
; File C:\Program Files (x86)\Microsoft Visual Studio\2019\Community\VC\Tools\MSVC\14.28.29333\include\xmemory
; File C:\Program Files (x86)\Microsoft Visual Studio\2019\Community\VC\Tools\MSVC\14.28.29333\include\xtree
;	COMDAT ??1?$_Tree_temp_node@V?$allocator@U?$_Tree_node@U?$pair@$$CBKK@std@@PAX@std@@@std@@@std@@QAE@XZ
_TEXT	SEGMENT
??1?$_Tree_temp_node@V?$allocator@U?$_Tree_node@U?$pair@$$CBKK@std@@PAX@std@@@std@@@std@@QAE@XZ PROC ; std::_Tree_temp_node<std::allocator<std::_Tree_node<std::pair<unsigned long const ,unsigned long>,void *> > >::~_Tree_temp_node<std::allocator<std::_Tree_node<std::pair<unsigned long const ,unsigned long>,void *> > >, COMDAT
; _this$ = ecx
; File C:\Program Files (x86)\Microsoft Visual Studio\2019\Community\VC\Tools\MSVC\14.28.29333\include\xmemory

; 1057 :         if (_Ptr) {

  00000	8b 41 04	 mov	 eax, DWORD PTR [ecx+4]
  00003	85 c0		 test	 eax, eax
  00005	74 0b		 je	 SHORT $LN8@Tree_temp_

; 810  :         _Deallocate<_New_alignof<_Ty>>(_Ptr, sizeof(_Ty) * _Count);

  00007	6a 18		 push	 24			; 00000018H
  00009	50		 push	 eax
  0000a	e8 00 00 00 00	 call	 ??$_Deallocate@$07$0A@@std@@YAXPAXI@Z ; std::_Deallocate<8,0>
  0000f	83 c4 08	 add	 esp, 8
$LN8@Tree_temp_:
; File C:\Program Files (x86)\Microsoft Visual Studio\2019\Community\VC\Tools\MSVC\14.28.29333\include\xtree

; 824  :     }

  00012	c3		 ret	 0
??1?$_Tree_temp_node@V?$allocator@U?$_Tree_node@U?$pair@$$CBKK@std@@PAX@std@@@std@@@std@@QAE@XZ ENDP ; std::_Tree_temp_node<std::allocator<std::_Tree_node<std::pair<unsigned long const ,unsigned long>,void *> > >::~_Tree_temp_node<std::allocator<std::_Tree_node<std::pair<unsigned long const ,unsigned long>,void *> > >
_TEXT	ENDS
; Function compile flags: /Ogtp
; File C:\Program Files (x86)\Microsoft Visual Studio\2019\Community\VC\Tools\MSVC\14.28.29333\include\xmemory
;	COMDAT ??1?$_Alloc_construct_ptr@V?$allocator@U?$_Tree_node@U?$pair@$$CBKK@std@@PAX@std@@@std@@@std@@QAE@XZ
_TEXT	SEGMENT
??1?$_Alloc_construct_ptr@V?$allocator@U?$_Tree_node@U?$pair@$$CBKK@std@@PAX@std@@@std@@@std@@QAE@XZ PROC ; std::_Alloc_construct_ptr<std::allocator<std::_Tree_node<std::pair<unsigned long const ,unsigned long>,void *> > >::~_Alloc_construct_ptr<std::allocator<std::_Tree_node<std::pair<unsigned long const ,unsigned long>,void *> > >, COMDAT
; _this$ = ecx

; 1057 :         if (_Ptr) {

  00000	8b 41 04	 mov	 eax, DWORD PTR [ecx+4]
  00003	85 c0		 test	 eax, eax
  00005	74 0b		 je	 SHORT $LN2@Alloc_cons

; 810  :         _Deallocate<_New_alignof<_Ty>>(_Ptr, sizeof(_Ty) * _Count);

  00007	6a 18		 push	 24			; 00000018H
  00009	50		 push	 eax
  0000a	e8 00 00 00 00	 call	 ??$_Deallocate@$07$0A@@std@@YAXPAXI@Z ; std::_Deallocate<8,0>
  0000f	83 c4 08	 add	 esp, 8
$LN2@Alloc_cons:

; 1058 :             _Al.deallocate(_Ptr, 1);
; 1059 :         }
; 1060 :     }

  00012	c3		 ret	 0
??1?$_Alloc_construct_ptr@V?$allocator@U?$_Tree_node@U?$pair@$$CBKK@std@@PAX@std@@@std@@@std@@QAE@XZ ENDP ; std::_Alloc_construct_ptr<std::allocator<std::_Tree_node<std::pair<unsigned long const ,unsigned long>,void *> > >::~_Alloc_construct_ptr<std::allocator<std::_Tree_node<std::pair<unsigned long const ,unsigned long>,void *> > >
_TEXT	ENDS
; Function compile flags: /Ogtp
; File C:\Program Files (x86)\Microsoft Visual Studio\2019\Community\VC\Tools\MSVC\14.28.29333\include\utility
; File C:\Program Files (x86)\Microsoft Visual Studio\2019\Community\VC\Tools\MSVC\14.28.29333\include\xstring
; File C:\Program Files (x86)\Microsoft Visual Studio\2019\Community\VC\Tools\MSVC\14.28.29333\include\utility
; File C:\Program Files (x86)\Microsoft Visual Studio\2019\Community\VC\Tools\MSVC\14.28.29333\include\xstring
; File C:\Program Files (x86)\Microsoft Visual Studio\2019\Community\VC\Tools\MSVC\14.28.29333\include\xmemory
; File C:\Program Files (x86)\Microsoft Visual Studio\2019\Community\VC\Tools\MSVC\14.28.29333\include\utility
;	COMDAT ??$iter_swap@PAUSGuildMemberData@CPythonGuild@@PAU12@@std@@YAXPAUSGuildMemberData@CPythonGuild@@0@Z
_TEXT	SEGMENT
__Tmp$1 = -40						; size = 36
__$ArrayPad$ = -4					; size = 4
__Left$ = 8						; size = 4
__Right$ = 12						; size = 4
??$iter_swap@PAUSGuildMemberData@CPythonGuild@@PAU12@@std@@YAXPAUSGuildMemberData@CPythonGuild@@0@Z PROC ; std::iter_swap<CPythonGuild::SGuildMemberData *,CPythonGuild::SGuildMemberData *>, COMDAT

; 80   : _CONSTEXPR20 void iter_swap(_FwdIt1 _Left, _FwdIt2 _Right) { // swap *_Left and *_Right

  00000	55		 push	 ebp
  00001	8b ec		 mov	 ebp, esp
  00003	83 ec 28	 sub	 esp, 40			; 00000028H
  00006	a1 00 00 00 00	 mov	 eax, DWORD PTR ___security_cookie
  0000b	33 c5		 xor	 eax, ebp
  0000d	89 45 fc	 mov	 DWORD PTR __$ArrayPad$[ebp], eax
  00010	8b 4d 08	 mov	 ecx, DWORD PTR __Left$[ebp]
  00013	56		 push	 esi
  00014	8b 75 0c	 mov	 esi, DWORD PTR __Right$[ebp]

; 105  :     _Left    = _STD move(_Right);

  00017	56		 push	 esi
; File C:\Program Files (x86)\Microsoft Visual Studio\2019\Community\VC\Tools\MSVC\14.28.29333\include\xstring

; 2684 :         _CSTD memcpy(_My_data_mem, _Right_data_mem, _Memcpy_val_size);

  00018	0f 10 41 04	 movups	 xmm0, XMMWORD PTR [ecx+4]
  0001c	8b 01		 mov	 eax, DWORD PTR [ecx]
  0001e	89 45 d8	 mov	 DWORD PTR __Tmp$1[ebp], eax
  00021	0f 11 45 dc	 movups	 XMMWORD PTR __Tmp$1[ebp+4], xmm0
  00025	f3 0f 7e 41 14	 movq	 xmm0, QWORD PTR [ecx+20]

; 4377 :         _Mypair._Myval2._Mysize = 0;

  0002a	c7 41 14 00 00
	00 00		 mov	 DWORD PTR [ecx+20], 0

; 4378 :         _Mypair._Myval2._Myres  = _BUF_SIZE - 1;

  00031	c7 41 18 0f 00
	00 00		 mov	 DWORD PTR [ecx+24], 15	; 0000000fH

; 4379 :         // the _Traits::assign is last so the codegen doesn't think the char write can alias this
; 4380 :         _Traits::assign(_Mypair._Myval2._Bx._Buf[0], _Elem());

  00038	c6 41 04 00	 mov	 BYTE PTR [ecx+4], 0
  0003c	0f b6 41 1c	 movzx	 eax, BYTE PTR [ecx+28]
  00040	88 45 f4	 mov	 BYTE PTR __Tmp$1[ebp+28], al
  00043	0f b6 41 1d	 movzx	 eax, BYTE PTR [ecx+29]
  00047	88 45 f5	 mov	 BYTE PTR __Tmp$1[ebp+29], al
  0004a	0f b6 41 1e	 movzx	 eax, BYTE PTR [ecx+30]
  0004e	88 45 f6	 mov	 BYTE PTR __Tmp$1[ebp+30], al
  00051	0f b6 41 1f	 movzx	 eax, BYTE PTR [ecx+31]
  00055	88 45 f7	 mov	 BYTE PTR __Tmp$1[ebp+31], al
  00058	8b 41 20	 mov	 eax, DWORD PTR [ecx+32]

; 2684 :         _CSTD memcpy(_My_data_mem, _Right_data_mem, _Memcpy_val_size);

  0005b	66 0f d6 45 ec	 movq	 QWORD PTR __Tmp$1[ebp+20], xmm0
  00060	89 45 f8	 mov	 DWORD PTR __Tmp$1[ebp+32], eax
; File C:\Program Files (x86)\Microsoft Visual Studio\2019\Community\VC\Tools\MSVC\14.28.29333\include\utility

; 105  :     _Left    = _STD move(_Right);

  00063	e8 00 00 00 00	 call	 ??4SGuildMemberData@CPythonGuild@@QAEAAU01@$$QAU01@@Z

; 106  :     _Right   = _STD move(_Tmp);

  00068	8d 45 d8	 lea	 eax, DWORD PTR __Tmp$1[ebp]
  0006b	8b ce		 mov	 ecx, esi
  0006d	50		 push	 eax
  0006e	e8 00 00 00 00	 call	 ??4SGuildMemberData@CPythonGuild@@QAEAAU01@$$QAU01@@Z
; File C:\Program Files (x86)\Microsoft Visual Studio\2019\Community\VC\Tools\MSVC\14.28.29333\include\xstring

; 2227 :         return _BUF_SIZE <= _Myres;

  00073	8b 45 f0	 mov	 eax, DWORD PTR __Tmp$1[ebp+24]
  00076	5e		 pop	 esi
  00077	83 f8 10	 cmp	 eax, 16			; 00000010H

; 4385 :         if (_Mypair._Myval2._Large_string_engaged()) {

  0007a	72 0d		 jb	 SHORT $LN31@iter_swap

; 4386 :             const pointer _Ptr = _Mypair._Myval2._Bx._Ptr;
; 4387 :             auto& _Al          = _Getal();
; 4388 :             _Destroy_in_place(_Mypair._Myval2._Bx._Ptr);
; 4389 :             _Al.deallocate(_Ptr, _Mypair._Myval2._Myres + 1);

  0007c	40		 inc	 eax
; File C:\Program Files (x86)\Microsoft Visual Studio\2019\Community\VC\Tools\MSVC\14.28.29333\include\xmemory

; 810  :         _Deallocate<_New_alignof<_Ty>>(_Ptr, sizeof(_Ty) * _Count);

  0007d	50		 push	 eax
  0007e	ff 75 dc	 push	 DWORD PTR __Tmp$1[ebp+4]
  00081	e8 00 00 00 00	 call	 ??$_Deallocate@$07$0A@@std@@YAXPAXI@Z ; std::_Deallocate<8,0>
  00086	83 c4 08	 add	 esp, 8
$LN31@iter_swap:
; File C:\Program Files (x86)\Microsoft Visual Studio\2019\Community\VC\Tools\MSVC\14.28.29333\include\utility

; 82   : }

  00089	8b 4d fc	 mov	 ecx, DWORD PTR __$ArrayPad$[ebp]
  0008c	33 cd		 xor	 ecx, ebp
  0008e	e8 00 00 00 00	 call	 @__security_check_cookie@4
  00093	8b e5		 mov	 esp, ebp
  00095	5d		 pop	 ebp
  00096	c3		 ret	 0
??$iter_swap@PAUSGuildMemberData@CPythonGuild@@PAU12@@std@@YAXPAUSGuildMemberData@CPythonGuild@@0@Z ENDP ; std::iter_swap<CPythonGuild::SGuildMemberData *,CPythonGuild::SGuildMemberData *>
_TEXT	ENDS
; Function compile flags: /Ogtp
; File C:\Program Files (x86)\Microsoft Visual Studio\2019\Community\VC\Tools\MSVC\14.28.29333\include\algorithm
; File D:\Metin2 Server Files\mainline\SRC_2014\Metin2Client\UserInterface\PythonGuild.cpp
; File C:\Program Files (x86)\Microsoft Visual Studio\2019\Community\VC\Tools\MSVC\14.28.29333\include\algorithm
; File D:\Metin2 Server Files\mainline\SRC_2014\Metin2Client\UserInterface\PythonGuild.cpp
; File C:\Program Files (x86)\Microsoft Visual Studio\2019\Community\VC\Tools\MSVC\14.28.29333\include\algorithm
; File D:\Metin2 Server Files\mainline\SRC_2014\Metin2Client\UserInterface\PythonGuild.cpp
; File C:\Program Files (x86)\Microsoft Visual Studio\2019\Community\VC\Tools\MSVC\14.28.29333\include\algorithm
; File D:\Metin2 Server Files\mainline\SRC_2014\Metin2Client\UserInterface\PythonGuild.cpp
; File C:\Program Files (x86)\Microsoft Visual Studio\2019\Community\VC\Tools\MSVC\14.28.29333\include\algorithm
; File D:\Metin2 Server Files\mainline\SRC_2014\Metin2Client\UserInterface\PythonGuild.cpp
; File C:\Program Files (x86)\Microsoft Visual Studio\2019\Community\VC\Tools\MSVC\14.28.29333\include\algorithm
; File D:\Metin2 Server Files\mainline\SRC_2014\Metin2Client\UserInterface\PythonGuild.cpp
; File C:\Program Files (x86)\Microsoft Visual Studio\2019\Community\VC\Tools\MSVC\14.28.29333\include\algorithm
; File D:\Metin2 Server Files\mainline\SRC_2014\Metin2Client\UserInterface\PythonGuild.cpp
; File C:\Program Files (x86)\Microsoft Visual Studio\2019\Community\VC\Tools\MSVC\14.28.29333\include\algorithm
; File D:\Metin2 Server Files\mainline\SRC_2014\Metin2Client\UserInterface\PythonGuild.cpp
; File C:\Program Files (x86)\Microsoft Visual Studio\2019\Community\VC\Tools\MSVC\14.28.29333\include\algorithm
; File D:\Metin2 Server Files\mainline\SRC_2014\Metin2Client\UserInterface\PythonGuild.cpp
; File C:\Program Files (x86)\Microsoft Visual Studio\2019\Community\VC\Tools\MSVC\14.28.29333\include\algorithm
; File D:\Metin2 Server Files\mainline\SRC_2014\Metin2Client\UserInterface\PythonGuild.cpp
; File C:\Program Files (x86)\Microsoft Visual Studio\2019\Community\VC\Tools\MSVC\14.28.29333\include\algorithm
; File D:\Metin2 Server Files\mainline\SRC_2014\Metin2Client\UserInterface\PythonGuild.cpp
; File C:\Program Files (x86)\Microsoft Visual Studio\2019\Community\VC\Tools\MSVC\14.28.29333\include\algorithm
; File D:\Metin2 Server Files\mainline\SRC_2014\Metin2Client\UserInterface\PythonGuild.cpp
; File C:\Program Files (x86)\Microsoft Visual Studio\2019\Community\VC\Tools\MSVC\14.28.29333\include\algorithm
; File D:\Metin2 Server Files\mainline\SRC_2014\Metin2Client\UserInterface\PythonGuild.cpp
; File C:\Program Files (x86)\Microsoft Visual Studio\2019\Community\VC\Tools\MSVC\14.28.29333\include\algorithm
; File D:\Metin2 Server Files\mainline\SRC_2014\Metin2Client\UserInterface\PythonGuild.cpp
; File C:\Program Files (x86)\Microsoft Visual Studio\2019\Community\VC\Tools\MSVC\14.28.29333\include\algorithm
; File D:\Metin2 Server Files\mainline\SRC_2014\Metin2Client\UserInterface\PythonGuild.cpp
; File C:\Program Files (x86)\Microsoft Visual Studio\2019\Community\VC\Tools\MSVC\14.28.29333\include\algorithm
; File D:\Metin2 Server Files\mainline\SRC_2014\Metin2Client\UserInterface\PythonGuild.cpp
; File C:\Program Files (x86)\Microsoft Visual Studio\2019\Community\VC\Tools\MSVC\14.28.29333\include\algorithm
; File D:\Metin2 Server Files\mainline\SRC_2014\Metin2Client\UserInterface\PythonGuild.cpp
; File C:\Program Files (x86)\Microsoft Visual Studio\2019\Community\VC\Tools\MSVC\14.28.29333\include\algorithm
; File D:\Metin2 Server Files\mainline\SRC_2014\Metin2Client\UserInterface\PythonGuild.cpp
; File C:\Program Files (x86)\Microsoft Visual Studio\2019\Community\VC\Tools\MSVC\14.28.29333\include\algorithm
; File D:\Metin2 Server Files\mainline\SRC_2014\Metin2Client\UserInterface\PythonGuild.cpp
; File C:\Program Files (x86)\Microsoft Visual Studio\2019\Community\VC\Tools\MSVC\14.28.29333\include\algorithm
; File D:\Metin2 Server Files\mainline\SRC_2014\Metin2Client\UserInterface\PythonGuild.cpp
; File C:\Program Files (x86)\Microsoft Visual Studio\2019\Community\VC\Tools\MSVC\14.28.29333\include\algorithm
; File D:\Metin2 Server Files\mainline\SRC_2014\Metin2Client\UserInterface\PythonGuild.cpp
; File C:\Program Files (x86)\Microsoft Visual Studio\2019\Community\VC\Tools\MSVC\14.28.29333\include\algorithm
; File D:\Metin2 Server Files\mainline\SRC_2014\Metin2Client\UserInterface\PythonGuild.cpp
; File C:\Program Files (x86)\Microsoft Visual Studio\2019\Community\VC\Tools\MSVC\14.28.29333\include\algorithm
;	COMDAT ??$_Guess_median_unchecked@PAUSGuildMemberData@CPythonGuild@@UCPythonGuild_SLessMemberGrade@@@std@@YAXPAUSGuildMemberData@CPythonGuild@@00UCPythonGuild_SLessMemberGrade@@@Z
_TEXT	SEGMENT
tv624 = -8						; size = 4
__Last$1$ = -4						; size = 4
__Last$1$ = -4						; size = 4
tv640 = 8						; size = 4
__First$1$ = 8						; size = 4
__First$ = 8						; size = 4
__Mid$ = 12						; size = 4
__Last$ = 16						; size = 4
__Pred$ = 20						; size = 1
??$_Guess_median_unchecked@PAUSGuildMemberData@CPythonGuild@@UCPythonGuild_SLessMemberGrade@@@std@@YAXPAUSGuildMemberData@CPythonGuild@@00UCPythonGuild_SLessMemberGrade@@@Z PROC ; std::_Guess_median_unchecked<CPythonGuild::SGuildMemberData *,CPythonGuild_SLessMemberGrade>, COMDAT

; 7450 : _CONSTEXPR20 void _Guess_median_unchecked(_RanIt _First, _RanIt _Mid, _RanIt _Last, _Pr _Pred) {

  00000	55		 push	 ebp
  00001	8b ec		 mov	 ebp, esp
  00003	83 ec 08	 sub	 esp, 8

; 7451 :     // sort median element to middle
; 7452 :     using _Diff        = _Iter_diff_t<_RanIt>;
; 7453 :     const _Diff _Count = _Last - _First;

  00006	b8 39 8e e3 38	 mov	 eax, 954437177		; 38e38e39H
  0000b	53		 push	 ebx
  0000c	8b 5d 10	 mov	 ebx, DWORD PTR __Last$[ebp]
  0000f	8b cb		 mov	 ecx, ebx
  00011	56		 push	 esi
  00012	8b 75 08	 mov	 esi, DWORD PTR __First$[ebp]
  00015	2b ce		 sub	 ecx, esi
  00017	f7 e9		 imul	 ecx
  00019	57		 push	 edi
  0001a	c1 fa 03	 sar	 edx, 3
  0001d	8b c2		 mov	 eax, edx
  0001f	c1 e8 1f	 shr	 eax, 31			; 0000001fH
  00022	03 c2		 add	 eax, edx

; 7454 :     if (40 < _Count) { // Tukey's ninther

  00024	83 f8 28	 cmp	 eax, 40			; 00000028H
  00027	0f 8e 28 01 00
	00		 jle	 $LN2@Guess_medi

; 7455 :         const _Diff _Step     = (_Count + 1) >> 3; // +1 can't overflow because range was made inclusive in caller

  0002d	40		 inc	 eax
  0002e	c1 f8 03	 sar	 eax, 3

; 7457 :         _Med3_unchecked(_First, _First + _Step, _First + _Two_step, _Pred);

  00031	8d 3c c0	 lea	 edi, DWORD PTR [eax+eax*8]
  00034	c1 e7 02	 shl	 edi, 2
  00037	8d 0c c0	 lea	 ecx, DWORD PTR [eax+eax*8]
; File D:\Metin2 Server Files\mainline\SRC_2014\Metin2Client\UserInterface\PythonGuild.cpp

; 331  : 		if (rleft.byGrade < rright.byGrade)

  0003a	8a 44 37 1c	 mov	 al, BYTE PTR [edi+esi+28]
; File C:\Program Files (x86)\Microsoft Visual Studio\2019\Community\VC\Tools\MSVC\14.28.29333\include\algorithm

; 7457 :         _Med3_unchecked(_First, _First + _Step, _First + _Two_step, _Pred);

  0003e	8d 1c 37	 lea	 ebx, DWORD PTR [edi+esi]
  00041	c1 e1 03	 shl	 ecx, 3
  00044	89 4d f8	 mov	 DWORD PTR tv624[ebp], ecx
  00047	03 ce		 add	 ecx, esi
  00049	89 4d fc	 mov	 DWORD PTR __Last$1$[ebp], ecx
  0004c	89 7d 08	 mov	 DWORD PTR tv640[ebp], edi
; File D:\Metin2 Server Files\mainline\SRC_2014\Metin2Client\UserInterface\PythonGuild.cpp

; 331  : 		if (rleft.byGrade < rright.byGrade)

  0004f	3a 46 1c	 cmp	 al, BYTE PTR [esi+28]
  00052	73 10		 jae	 SHORT $LN6@Guess_medi
; File C:\Program Files (x86)\Microsoft Visual Studio\2019\Community\VC\Tools\MSVC\14.28.29333\include\algorithm

; 7437 :         _STD iter_swap(_Mid, _First);

  00054	56		 push	 esi
  00055	53		 push	 ebx
  00056	e8 00 00 00 00	 call	 ??$iter_swap@PAUSGuildMemberData@CPythonGuild@@PAU12@@std@@YAXPAUSGuildMemberData@CPythonGuild@@0@Z ; std::iter_swap<CPythonGuild::SGuildMemberData *,CPythonGuild::SGuildMemberData *>
  0005b	8a 43 1c	 mov	 al, BYTE PTR [ebx+28]
  0005e	83 c4 08	 add	 esp, 8
  00061	8b 4d fc	 mov	 ecx, DWORD PTR __Last$1$[ebp]
$LN6@Guess_medi:
; File D:\Metin2 Server Files\mainline\SRC_2014\Metin2Client\UserInterface\PythonGuild.cpp

; 331  : 		if (rleft.byGrade < rright.byGrade)

  00064	38 41 1c	 cmp	 BYTE PTR [ecx+28], al
  00067	73 1c		 jae	 SHORT $LN8@Guess_medi
; File C:\Program Files (x86)\Microsoft Visual Studio\2019\Community\VC\Tools\MSVC\14.28.29333\include\algorithm

; 7441 :         _STD iter_swap(_Last, _Mid);

  00069	53		 push	 ebx
  0006a	51		 push	 ecx
  0006b	e8 00 00 00 00	 call	 ??$iter_swap@PAUSGuildMemberData@CPythonGuild@@PAU12@@std@@YAXPAUSGuildMemberData@CPythonGuild@@0@Z ; std::iter_swap<CPythonGuild::SGuildMemberData *,CPythonGuild::SGuildMemberData *>
; File D:\Metin2 Server Files\mainline\SRC_2014\Metin2Client\UserInterface\PythonGuild.cpp

; 331  : 		if (rleft.byGrade < rright.byGrade)

  00070	8a 43 1c	 mov	 al, BYTE PTR [ebx+28]
; File C:\Program Files (x86)\Microsoft Visual Studio\2019\Community\VC\Tools\MSVC\14.28.29333\include\algorithm

; 7441 :         _STD iter_swap(_Last, _Mid);

  00073	83 c4 08	 add	 esp, 8
; File D:\Metin2 Server Files\mainline\SRC_2014\Metin2Client\UserInterface\PythonGuild.cpp

; 331  : 		if (rleft.byGrade < rright.byGrade)

  00076	3a 46 1c	 cmp	 al, BYTE PTR [esi+28]
  00079	73 0a		 jae	 SHORT $LN8@Guess_medi
; File C:\Program Files (x86)\Microsoft Visual Studio\2019\Community\VC\Tools\MSVC\14.28.29333\include\algorithm

; 7444 :             _STD iter_swap(_Mid, _First);

  0007b	56		 push	 esi
  0007c	53		 push	 ebx
  0007d	e8 00 00 00 00	 call	 ??$iter_swap@PAUSGuildMemberData@CPythonGuild@@PAU12@@std@@YAXPAUSGuildMemberData@CPythonGuild@@0@Z ; std::iter_swap<CPythonGuild::SGuildMemberData *,CPythonGuild::SGuildMemberData *>
  00082	83 c4 08	 add	 esp, 8
$LN8@Guess_medi:

; 7458 :         _Med3_unchecked(_Mid - _Step, _Mid, _Mid + _Step, _Pred);

  00085	8b 75 0c	 mov	 esi, DWORD PTR __Mid$[ebp]
; File D:\Metin2 Server Files\mainline\SRC_2014\Metin2Client\UserInterface\PythonGuild.cpp

; 331  : 		if (rleft.byGrade < rright.byGrade)

  00088	8a 46 1c	 mov	 al, BYTE PTR [esi+28]
; File C:\Program Files (x86)\Microsoft Visual Studio\2019\Community\VC\Tools\MSVC\14.28.29333\include\algorithm

; 7458 :         _Med3_unchecked(_Mid - _Step, _Mid, _Mid + _Step, _Pred);

  0008b	8d 0c 37	 lea	 ecx, DWORD PTR [edi+esi]
  0008e	8b fe		 mov	 edi, esi
  00090	89 4d fc	 mov	 DWORD PTR __Last$1$[ebp], ecx
  00093	2b 7d 08	 sub	 edi, DWORD PTR tv640[ebp]
; File D:\Metin2 Server Files\mainline\SRC_2014\Metin2Client\UserInterface\PythonGuild.cpp

; 331  : 		if (rleft.byGrade < rright.byGrade)

  00096	3a 47 1c	 cmp	 al, BYTE PTR [edi+28]
  00099	73 10		 jae	 SHORT $LN20@Guess_medi
; File C:\Program Files (x86)\Microsoft Visual Studio\2019\Community\VC\Tools\MSVC\14.28.29333\include\algorithm

; 7437 :         _STD iter_swap(_Mid, _First);

  0009b	57		 push	 edi
  0009c	56		 push	 esi
  0009d	e8 00 00 00 00	 call	 ??$iter_swap@PAUSGuildMemberData@CPythonGuild@@PAU12@@std@@YAXPAUSGuildMemberData@CPythonGuild@@0@Z ; std::iter_swap<CPythonGuild::SGuildMemberData *,CPythonGuild::SGuildMemberData *>
  000a2	8a 46 1c	 mov	 al, BYTE PTR [esi+28]
  000a5	83 c4 08	 add	 esp, 8
  000a8	8b 4d fc	 mov	 ecx, DWORD PTR __Last$1$[ebp]
$LN20@Guess_medi:
; File D:\Metin2 Server Files\mainline\SRC_2014\Metin2Client\UserInterface\PythonGuild.cpp

; 331  : 		if (rleft.byGrade < rright.byGrade)

  000ab	38 41 1c	 cmp	 BYTE PTR [ecx+28], al
  000ae	73 1c		 jae	 SHORT $LN22@Guess_medi
; File C:\Program Files (x86)\Microsoft Visual Studio\2019\Community\VC\Tools\MSVC\14.28.29333\include\algorithm

; 7441 :         _STD iter_swap(_Last, _Mid);

  000b0	56		 push	 esi
  000b1	51		 push	 ecx
  000b2	e8 00 00 00 00	 call	 ??$iter_swap@PAUSGuildMemberData@CPythonGuild@@PAU12@@std@@YAXPAUSGuildMemberData@CPythonGuild@@0@Z ; std::iter_swap<CPythonGuild::SGuildMemberData *,CPythonGuild::SGuildMemberData *>
; File D:\Metin2 Server Files\mainline\SRC_2014\Metin2Client\UserInterface\PythonGuild.cpp

; 331  : 		if (rleft.byGrade < rright.byGrade)

  000b7	8a 46 1c	 mov	 al, BYTE PTR [esi+28]
; File C:\Program Files (x86)\Microsoft Visual Studio\2019\Community\VC\Tools\MSVC\14.28.29333\include\algorithm

; 7441 :         _STD iter_swap(_Last, _Mid);

  000ba	83 c4 08	 add	 esp, 8
; File D:\Metin2 Server Files\mainline\SRC_2014\Metin2Client\UserInterface\PythonGuild.cpp

; 331  : 		if (rleft.byGrade < rright.byGrade)

  000bd	3a 47 1c	 cmp	 al, BYTE PTR [edi+28]
  000c0	73 0a		 jae	 SHORT $LN22@Guess_medi
; File C:\Program Files (x86)\Microsoft Visual Studio\2019\Community\VC\Tools\MSVC\14.28.29333\include\algorithm

; 7444 :             _STD iter_swap(_Mid, _First);

  000c2	57		 push	 edi
  000c3	56		 push	 esi
  000c4	e8 00 00 00 00	 call	 ??$iter_swap@PAUSGuildMemberData@CPythonGuild@@PAU12@@std@@YAXPAUSGuildMemberData@CPythonGuild@@0@Z ; std::iter_swap<CPythonGuild::SGuildMemberData *,CPythonGuild::SGuildMemberData *>
  000c9	83 c4 08	 add	 esp, 8
$LN22@Guess_medi:

; 7459 :         _Med3_unchecked(_Last - _Two_step, _Last - _Step, _Last, _Pred);

  000cc	8b 45 10	 mov	 eax, DWORD PTR __Last$[ebp]
  000cf	8b f8		 mov	 edi, eax
  000d1	2b 7d 08	 sub	 edi, DWORD PTR tv640[ebp]
  000d4	8b c8		 mov	 ecx, eax
  000d6	2b 4d f8	 sub	 ecx, DWORD PTR tv624[ebp]
  000d9	89 4d 08	 mov	 DWORD PTR __First$1$[ebp], ecx
; File D:\Metin2 Server Files\mainline\SRC_2014\Metin2Client\UserInterface\PythonGuild.cpp

; 331  : 		if (rleft.byGrade < rright.byGrade)

  000dc	8a 57 1c	 mov	 dl, BYTE PTR [edi+28]
  000df	3a 51 1c	 cmp	 dl, BYTE PTR [ecx+28]
  000e2	73 10		 jae	 SHORT $LN34@Guess_medi
; File C:\Program Files (x86)\Microsoft Visual Studio\2019\Community\VC\Tools\MSVC\14.28.29333\include\algorithm

; 7437 :         _STD iter_swap(_Mid, _First);

  000e4	51		 push	 ecx
  000e5	57		 push	 edi
  000e6	e8 00 00 00 00	 call	 ??$iter_swap@PAUSGuildMemberData@CPythonGuild@@PAU12@@std@@YAXPAUSGuildMemberData@CPythonGuild@@0@Z ; std::iter_swap<CPythonGuild::SGuildMemberData *,CPythonGuild::SGuildMemberData *>
  000eb	8a 57 1c	 mov	 dl, BYTE PTR [edi+28]
  000ee	83 c4 08	 add	 esp, 8
  000f1	8b 45 10	 mov	 eax, DWORD PTR __Last$[ebp]
$LN34@Guess_medi:
; File D:\Metin2 Server Files\mainline\SRC_2014\Metin2Client\UserInterface\PythonGuild.cpp

; 331  : 		if (rleft.byGrade < rright.byGrade)

  000f4	38 50 1c	 cmp	 BYTE PTR [eax+28], dl
  000f7	73 1f		 jae	 SHORT $LN36@Guess_medi
; File C:\Program Files (x86)\Microsoft Visual Studio\2019\Community\VC\Tools\MSVC\14.28.29333\include\algorithm

; 7441 :         _STD iter_swap(_Last, _Mid);

  000f9	57		 push	 edi
  000fa	50		 push	 eax
  000fb	e8 00 00 00 00	 call	 ??$iter_swap@PAUSGuildMemberData@CPythonGuild@@PAU12@@std@@YAXPAUSGuildMemberData@CPythonGuild@@0@Z ; std::iter_swap<CPythonGuild::SGuildMemberData *,CPythonGuild::SGuildMemberData *>
; File D:\Metin2 Server Files\mainline\SRC_2014\Metin2Client\UserInterface\PythonGuild.cpp

; 331  : 		if (rleft.byGrade < rright.byGrade)

  00100	8b 4d 08	 mov	 ecx, DWORD PTR __First$1$[ebp]
; File C:\Program Files (x86)\Microsoft Visual Studio\2019\Community\VC\Tools\MSVC\14.28.29333\include\algorithm

; 7441 :         _STD iter_swap(_Last, _Mid);

  00103	83 c4 08	 add	 esp, 8
; File D:\Metin2 Server Files\mainline\SRC_2014\Metin2Client\UserInterface\PythonGuild.cpp

; 331  : 		if (rleft.byGrade < rright.byGrade)

  00106	8a 47 1c	 mov	 al, BYTE PTR [edi+28]
  00109	3a 41 1c	 cmp	 al, BYTE PTR [ecx+28]
  0010c	73 0a		 jae	 SHORT $LN36@Guess_medi
; File C:\Program Files (x86)\Microsoft Visual Studio\2019\Community\VC\Tools\MSVC\14.28.29333\include\algorithm

; 7444 :             _STD iter_swap(_Mid, _First);

  0010e	51		 push	 ecx
  0010f	57		 push	 edi
  00110	e8 00 00 00 00	 call	 ??$iter_swap@PAUSGuildMemberData@CPythonGuild@@PAU12@@std@@YAXPAUSGuildMemberData@CPythonGuild@@0@Z ; std::iter_swap<CPythonGuild::SGuildMemberData *,CPythonGuild::SGuildMemberData *>
  00115	83 c4 08	 add	 esp, 8
$LN36@Guess_medi:
; File D:\Metin2 Server Files\mainline\SRC_2014\Metin2Client\UserInterface\PythonGuild.cpp

; 331  : 		if (rleft.byGrade < rright.byGrade)

  00118	8a 46 1c	 mov	 al, BYTE PTR [esi+28]
  0011b	3a 43 1c	 cmp	 al, BYTE PTR [ebx+28]
  0011e	73 0d		 jae	 SHORT $LN48@Guess_medi
; File C:\Program Files (x86)\Microsoft Visual Studio\2019\Community\VC\Tools\MSVC\14.28.29333\include\algorithm

; 7437 :         _STD iter_swap(_Mid, _First);

  00120	53		 push	 ebx
  00121	56		 push	 esi
  00122	e8 00 00 00 00	 call	 ??$iter_swap@PAUSGuildMemberData@CPythonGuild@@PAU12@@std@@YAXPAUSGuildMemberData@CPythonGuild@@0@Z ; std::iter_swap<CPythonGuild::SGuildMemberData *,CPythonGuild::SGuildMemberData *>
  00127	8a 46 1c	 mov	 al, BYTE PTR [esi+28]
  0012a	83 c4 08	 add	 esp, 8
$LN48@Guess_medi:
; File D:\Metin2 Server Files\mainline\SRC_2014\Metin2Client\UserInterface\PythonGuild.cpp

; 331  : 		if (rleft.byGrade < rright.byGrade)

  0012d	38 47 1c	 cmp	 BYTE PTR [edi+28], al
  00130	73 5c		 jae	 SHORT $LN64@Guess_medi
; File C:\Program Files (x86)\Microsoft Visual Studio\2019\Community\VC\Tools\MSVC\14.28.29333\include\algorithm

; 7441 :         _STD iter_swap(_Last, _Mid);

  00132	56		 push	 esi
  00133	57		 push	 edi
  00134	e8 00 00 00 00	 call	 ??$iter_swap@PAUSGuildMemberData@CPythonGuild@@PAU12@@std@@YAXPAUSGuildMemberData@CPythonGuild@@0@Z ; std::iter_swap<CPythonGuild::SGuildMemberData *,CPythonGuild::SGuildMemberData *>
; File D:\Metin2 Server Files\mainline\SRC_2014\Metin2Client\UserInterface\PythonGuild.cpp

; 331  : 		if (rleft.byGrade < rright.byGrade)

  00139	8a 46 1c	 mov	 al, BYTE PTR [esi+28]
; File C:\Program Files (x86)\Microsoft Visual Studio\2019\Community\VC\Tools\MSVC\14.28.29333\include\algorithm

; 7441 :         _STD iter_swap(_Last, _Mid);

  0013c	83 c4 08	 add	 esp, 8
; File D:\Metin2 Server Files\mainline\SRC_2014\Metin2Client\UserInterface\PythonGuild.cpp

; 331  : 		if (rleft.byGrade < rright.byGrade)

  0013f	3a 43 1c	 cmp	 al, BYTE PTR [ebx+28]
  00142	73 4a		 jae	 SHORT $LN64@Guess_medi
; File C:\Program Files (x86)\Microsoft Visual Studio\2019\Community\VC\Tools\MSVC\14.28.29333\include\algorithm

; 7444 :             _STD iter_swap(_Mid, _First);

  00144	53		 push	 ebx
  00145	56		 push	 esi

; 7460 :         _Med3_unchecked(_First + _Step, _Mid, _Last - _Step, _Pred);
; 7461 :     } else {
; 7462 :         _Med3_unchecked(_First, _Mid, _Last, _Pred);
; 7463 :     }
; 7464 : }

  00146	e8 00 00 00 00	 call	 ??$iter_swap@PAUSGuildMemberData@CPythonGuild@@PAU12@@std@@YAXPAUSGuildMemberData@CPythonGuild@@0@Z ; std::iter_swap<CPythonGuild::SGuildMemberData *,CPythonGuild::SGuildMemberData *>
  0014b	83 c4 08	 add	 esp, 8
  0014e	5f		 pop	 edi
  0014f	5e		 pop	 esi
  00150	5b		 pop	 ebx
  00151	8b e5		 mov	 esp, ebp
  00153	5d		 pop	 ebp
  00154	c3		 ret	 0
$LN2@Guess_medi:
; File D:\Metin2 Server Files\mainline\SRC_2014\Metin2Client\UserInterface\PythonGuild.cpp

; 331  : 		if (rleft.byGrade < rright.byGrade)

  00155	8b 7d 0c	 mov	 edi, DWORD PTR __Mid$[ebp]
  00158	8a 47 1c	 mov	 al, BYTE PTR [edi+28]
  0015b	3a 46 1c	 cmp	 al, BYTE PTR [esi+28]
  0015e	73 0d		 jae	 SHORT $LN62@Guess_medi
; File C:\Program Files (x86)\Microsoft Visual Studio\2019\Community\VC\Tools\MSVC\14.28.29333\include\algorithm

; 7437 :         _STD iter_swap(_Mid, _First);

  00160	56		 push	 esi
  00161	57		 push	 edi
  00162	e8 00 00 00 00	 call	 ??$iter_swap@PAUSGuildMemberData@CPythonGuild@@PAU12@@std@@YAXPAUSGuildMemberData@CPythonGuild@@0@Z ; std::iter_swap<CPythonGuild::SGuildMemberData *,CPythonGuild::SGuildMemberData *>
  00167	8a 47 1c	 mov	 al, BYTE PTR [edi+28]
  0016a	83 c4 08	 add	 esp, 8
$LN62@Guess_medi:
; File D:\Metin2 Server Files\mainline\SRC_2014\Metin2Client\UserInterface\PythonGuild.cpp

; 331  : 		if (rleft.byGrade < rright.byGrade)

  0016d	38 43 1c	 cmp	 BYTE PTR [ebx+28], al
  00170	73 1c		 jae	 SHORT $LN64@Guess_medi
; File C:\Program Files (x86)\Microsoft Visual Studio\2019\Community\VC\Tools\MSVC\14.28.29333\include\algorithm

; 7441 :         _STD iter_swap(_Last, _Mid);

  00172	57		 push	 edi
  00173	53		 push	 ebx
  00174	e8 00 00 00 00	 call	 ??$iter_swap@PAUSGuildMemberData@CPythonGuild@@PAU12@@std@@YAXPAUSGuildMemberData@CPythonGuild@@0@Z ; std::iter_swap<CPythonGuild::SGuildMemberData *,CPythonGuild::SGuildMemberData *>
; File D:\Metin2 Server Files\mainline\SRC_2014\Metin2Client\UserInterface\PythonGuild.cpp

; 331  : 		if (rleft.byGrade < rright.byGrade)

  00179	8a 47 1c	 mov	 al, BYTE PTR [edi+28]
; File C:\Program Files (x86)\Microsoft Visual Studio\2019\Community\VC\Tools\MSVC\14.28.29333\include\algorithm

; 7441 :         _STD iter_swap(_Last, _Mid);

  0017c	83 c4 08	 add	 esp, 8
; File D:\Metin2 Server Files\mainline\SRC_2014\Metin2Client\UserInterface\PythonGuild.cpp

; 331  : 		if (rleft.byGrade < rright.byGrade)

  0017f	3a 46 1c	 cmp	 al, BYTE PTR [esi+28]
  00182	73 0a		 jae	 SHORT $LN64@Guess_medi
; File C:\Program Files (x86)\Microsoft Visual Studio\2019\Community\VC\Tools\MSVC\14.28.29333\include\algorithm

; 7444 :             _STD iter_swap(_Mid, _First);

  00184	56		 push	 esi
  00185	57		 push	 edi

; 7460 :         _Med3_unchecked(_First + _Step, _Mid, _Last - _Step, _Pred);
; 7461 :     } else {
; 7462 :         _Med3_unchecked(_First, _Mid, _Last, _Pred);
; 7463 :     }
; 7464 : }

  00186	e8 00 00 00 00	 call	 ??$iter_swap@PAUSGuildMemberData@CPythonGuild@@PAU12@@std@@YAXPAUSGuildMemberData@CPythonGuild@@0@Z ; std::iter_swap<CPythonGuild::SGuildMemberData *,CPythonGuild::SGuildMemberData *>
  0018b	83 c4 08	 add	 esp, 8
$LN64@Guess_medi:
  0018e	5f		 pop	 edi
  0018f	5e		 pop	 esi
  00190	5b		 pop	 ebx
  00191	8b e5		 mov	 esp, ebp
  00193	5d		 pop	 ebp
  00194	c3		 ret	 0
??$_Guess_median_unchecked@PAUSGuildMemberData@CPythonGuild@@UCPythonGuild_SLessMemberGrade@@@std@@YAXPAUSGuildMemberData@CPythonGuild@@00UCPythonGuild_SLessMemberGrade@@@Z ENDP ; std::_Guess_median_unchecked<CPythonGuild::SGuildMemberData *,CPythonGuild_SLessMemberGrade>
_TEXT	ENDS
; Function compile flags: /Ogtp
; File C:\Program Files (x86)\Microsoft Visual Studio\2019\Community\VC\Tools\MSVC\14.28.29333\include\algorithm
; File C:\Program Files (x86)\Microsoft Visual Studio\2019\Community\VC\Tools\MSVC\14.28.29333\include\xstring
; File C:\Program Files (x86)\Microsoft Visual Studio\2019\Community\VC\Tools\MSVC\14.28.29333\include\xmemory
; File C:\Program Files (x86)\Microsoft Visual Studio\2019\Community\VC\Tools\MSVC\14.28.29333\include\xstring
; File C:\Program Files (x86)\Microsoft Visual Studio\2019\Community\VC\Tools\MSVC\14.28.29333\include\algorithm
; File D:\Metin2 Server Files\mainline\SRC_2014\Metin2Client\UserInterface\PythonGuild.cpp
; File C:\Program Files (x86)\Microsoft Visual Studio\2019\Community\VC\Tools\MSVC\14.28.29333\include\algorithm
; File D:\Metin2 Server Files\mainline\SRC_2014\Metin2Client\UserInterface\PythonGuild.cpp
; File C:\Program Files (x86)\Microsoft Visual Studio\2019\Community\VC\Tools\MSVC\14.28.29333\include\algorithm
; File C:\Program Files (x86)\Microsoft Visual Studio\2019\Community\VC\Tools\MSVC\14.28.29333\include\xstring
; File C:\Program Files (x86)\Microsoft Visual Studio\2019\Community\VC\Tools\MSVC\14.28.29333\include\xmemory
; File C:\Program Files (x86)\Microsoft Visual Studio\2019\Community\VC\Tools\MSVC\14.28.29333\include\xstring
; File C:\Program Files (x86)\Microsoft Visual Studio\2019\Community\VC\Tools\MSVC\14.28.29333\include\algorithm
;	COMDAT ??$_Pop_heap_hole_by_index@PAUSGuildMemberData@CPythonGuild@@U12@UCPythonGuild_SLessMemberGrade@@@std@@YAXPAUSGuildMemberData@CPythonGuild@@HH$$QAU12@UCPythonGuild_SLessMemberGrade@@@Z
_TEXT	SEGMENT
tv666 = -16						; size = 4
__Max_sequence_non_leaf$1$ = -12			; size = 4
__Idx$1$ = -8						; size = 4
_this$1$ = -4						; size = 4
__First$ = 8						; size = 4
__Top$1$ = 12						; size = 4
__Hole$ = 12						; size = 4
_this$1$ = 16						; size = 4
__Bottom$ = 16						; size = 4
__Val$ = 20						; size = 4
__Pred$ = 24						; size = 1
??$_Pop_heap_hole_by_index@PAUSGuildMemberData@CPythonGuild@@U12@UCPythonGuild_SLessMemberGrade@@@std@@YAXPAUSGuildMemberData@CPythonGuild@@HH$$QAU12@UCPythonGuild_SLessMemberGrade@@@Z PROC ; std::_Pop_heap_hole_by_index<CPythonGuild::SGuildMemberData *,CPythonGuild::SGuildMemberData,CPythonGuild_SLessMemberGrade>, COMDAT

; 6186 :     _RanIt _First, _Iter_diff_t<_RanIt> _Hole, _Iter_diff_t<_RanIt> _Bottom, _Ty&& _Val, _Pr _Pred) {

  00000	55		 push	 ebp
  00001	8b ec		 mov	 ebp, esp
  00003	83 ec 10	 sub	 esp, 16			; 00000010H

; 6187 :     // percolate _Hole to _Bottom, then push _Val
; 6188 :     _STL_INTERNAL_CHECK(_Bottom > 0);
; 6189 : 
; 6190 :     using _Diff      = _Iter_diff_t<_RanIt>;
; 6191 :     const _Diff _Top = _Hole;
; 6192 :     _Diff _Idx       = _Hole;
; 6193 : 
; 6194 :     // Check whether _Idx can have a child before calculating that child's index, since
; 6195 :     // calculating the child's index can trigger integer overflows
; 6196 :     const _Diff _Max_sequence_non_leaf = (_Bottom - 1) >> 1; // shift for codegen

  00006	8b 55 10	 mov	 edx, DWORD PTR __Bottom$[ebp]
  00009	53		 push	 ebx
  0000a	56		 push	 esi
  0000b	8b 75 0c	 mov	 esi, DWORD PTR __Hole$[ebp]
  0000e	8b de		 mov	 ebx, esi
  00010	8d 4a ff	 lea	 ecx, DWORD PTR [edx-1]
  00013	89 5d 0c	 mov	 DWORD PTR __Top$1$[ebp], ebx
  00016	89 4d f0	 mov	 DWORD PTR tv666[ebp], ecx
  00019	8b c6		 mov	 eax, esi
  0001b	d1 f9		 sar	 ecx, 1
  0001d	89 4d f4	 mov	 DWORD PTR __Max_sequence_non_leaf$1$[ebp], ecx
  00020	57		 push	 edi

; 6197 :     while (_Idx < _Max_sequence_non_leaf) { // move _Hole down to larger child

  00021	3b f1		 cmp	 esi, ecx
  00023	0f 8d c1 00 00
	00		 jge	 $LN3@Pop_heap_h
  00029	0f 1f 80 00 00
	00 00		 npad	 7
$LL2@Pop_heap_h:

; 6198 :         _Idx = 2 * _Idx + 2;
; 6199 :         if (_DEBUG_LT_PRED(_Pred, *(_First + _Idx), *(_First + (_Idx - 1)))) {

  00030	8b 7d 08	 mov	 edi, DWORD PTR __First$[ebp]
  00033	8d 14 00	 lea	 edx, DWORD PTR [eax+eax]
  00036	8d 04 d2	 lea	 eax, DWORD PTR [edx+edx*8]
  00039	8d 0c 87	 lea	 ecx, DWORD PTR [edi+eax*4]

; 6200 :             --_Idx;
; 6201 :         }
; 6202 :         *(_First + _Hole) = _STD move(*(_First + _Idx));

  0003c	8a 41 64	 mov	 al, BYTE PTR [ecx+100]
  0003f	3a 41 40	 cmp	 al, BYTE PTR [ecx+64]
  00042	1b c0		 sbb	 eax, eax
  00044	83 c0 02	 add	 eax, 2
  00047	03 c2		 add	 eax, edx
  00049	89 45 f8	 mov	 DWORD PTR __Idx$1$[ebp], eax
  0004c	8d 04 c0	 lea	 eax, DWORD PTR [eax+eax*8]
  0004f	8d 1c 87	 lea	 ebx, DWORD PTR [edi+eax*4]
  00052	8d 04 f6	 lea	 eax, DWORD PTR [esi+esi*8]
  00055	8d 0c 87	 lea	 ecx, DWORD PTR [edi+eax*4]
  00058	8b 03		 mov	 eax, DWORD PTR [ebx]
  0005a	8d 7b 04	 lea	 edi, DWORD PTR [ebx+4]
  0005d	89 4d fc	 mov	 DWORD PTR _this$1$[ebp], ecx
  00060	8d 71 04	 lea	 esi, DWORD PTR [ecx+4]
  00063	89 01		 mov	 DWORD PTR [ecx], eax
; File C:\Program Files (x86)\Microsoft Visual Studio\2019\Community\VC\Tools\MSVC\14.28.29333\include\xstring

; 2665 :         if (this != _STD addressof(_Right)) {

  00065	3b f7		 cmp	 esi, edi
  00067	74 49		 je	 SHORT $LN29@Pop_heap_h

; 2227 :         return _BUF_SIZE <= _Myres;

  00069	8b 46 14	 mov	 eax, DWORD PTR [esi+20]
  0006c	83 f8 10	 cmp	 eax, 16			; 00000010H

; 4385 :         if (_Mypair._Myval2._Large_string_engaged()) {

  0006f	72 0f		 jb	 SHORT $LN18@Pop_heap_h

; 4386 :             const pointer _Ptr = _Mypair._Myval2._Bx._Ptr;
; 4387 :             auto& _Al          = _Getal();
; 4388 :             _Destroy_in_place(_Mypair._Myval2._Bx._Ptr);
; 4389 :             _Al.deallocate(_Ptr, _Mypair._Myval2._Myres + 1);

  00071	40		 inc	 eax
; File C:\Program Files (x86)\Microsoft Visual Studio\2019\Community\VC\Tools\MSVC\14.28.29333\include\xmemory

; 810  :         _Deallocate<_New_alignof<_Ty>>(_Ptr, sizeof(_Ty) * _Count);

  00072	50		 push	 eax
  00073	ff 36		 push	 DWORD PTR [esi]
  00075	e8 00 00 00 00	 call	 ??$_Deallocate@$07$0A@@std@@YAXPAXI@Z ; std::_Deallocate<8,0>
  0007a	8b 4d fc	 mov	 ecx, DWORD PTR _this$1$[ebp]
  0007d	83 c4 08	 add	 esp, 8
$LN18@Pop_heap_h:
; File C:\Program Files (x86)\Microsoft Visual Studio\2019\Community\VC\Tools\MSVC\14.28.29333\include\xstring

; 4392 :         _Mypair._Myval2._Mysize = 0;

  00080	c7 46 10 00 00
	00 00		 mov	 DWORD PTR [esi+16], 0

; 4393 :         _Mypair._Myval2._Myres  = _BUF_SIZE - 1;

  00087	c7 46 14 0f 00
	00 00		 mov	 DWORD PTR [esi+20], 15	; 0000000fH

; 4394 :         // the _Traits::assign is last so the codegen doesn't think the char write can alias this
; 4395 :         _Traits::assign(_Mypair._Myval2._Bx._Buf[0], _Elem());

  0008e	c6 06 00	 mov	 BYTE PTR [esi], 0

; 2684 :         _CSTD memcpy(_My_data_mem, _Right_data_mem, _Memcpy_val_size);

  00091	0f 10 07	 movups	 xmm0, XMMWORD PTR [edi]
  00094	0f 11 06	 movups	 XMMWORD PTR [esi], xmm0
  00097	f3 0f 7e 47 10	 movq	 xmm0, QWORD PTR [edi+16]
  0009c	66 0f d6 46 10	 movq	 QWORD PTR [esi+16], xmm0

; 4377 :         _Mypair._Myval2._Mysize = 0;

  000a1	c7 47 10 00 00
	00 00		 mov	 DWORD PTR [edi+16], 0

; 4378 :         _Mypair._Myval2._Myres  = _BUF_SIZE - 1;

  000a8	c7 47 14 0f 00
	00 00		 mov	 DWORD PTR [edi+20], 15	; 0000000fH

; 4379 :         // the _Traits::assign is last so the codegen doesn't think the char write can alias this
; 4380 :         _Traits::assign(_Mypair._Myval2._Bx._Buf[0], _Elem());

  000af	c6 07 00	 mov	 BYTE PTR [edi], 0
$LN29@Pop_heap_h:
  000b2	0f b6 43 1c	 movzx	 eax, BYTE PTR [ebx+28]
  000b6	88 41 1c	 mov	 BYTE PTR [ecx+28], al
  000b9	0f b6 43 1d	 movzx	 eax, BYTE PTR [ebx+29]
  000bd	88 41 1d	 mov	 BYTE PTR [ecx+29], al
  000c0	0f b6 43 1e	 movzx	 eax, BYTE PTR [ebx+30]
  000c4	88 41 1e	 mov	 BYTE PTR [ecx+30], al
  000c7	0f b6 43 1f	 movzx	 eax, BYTE PTR [ebx+31]
  000cb	88 41 1f	 mov	 BYTE PTR [ecx+31], al
  000ce	8b 43 20	 mov	 eax, DWORD PTR [ebx+32]
  000d1	89 41 20	 mov	 DWORD PTR [ecx+32], eax
; File C:\Program Files (x86)\Microsoft Visual Studio\2019\Community\VC\Tools\MSVC\14.28.29333\include\algorithm

; 6203 :         _Hole             = _Idx;

  000d4	8b 45 f8	 mov	 eax, DWORD PTR __Idx$1$[ebp]
  000d7	8b f0		 mov	 esi, eax
  000d9	8b 4d f4	 mov	 ecx, DWORD PTR __Max_sequence_non_leaf$1$[ebp]
  000dc	3b c1		 cmp	 eax, ecx
  000de	0f 8c 4c ff ff
	ff		 jl	 $LL2@Pop_heap_h
  000e4	8b 55 10	 mov	 edx, DWORD PTR __Bottom$[ebp]
  000e7	8b 5d 0c	 mov	 ebx, DWORD PTR __Top$1$[ebp]
$LN3@Pop_heap_h:

; 6204 :     }
; 6205 : 
; 6206 :     if (_Idx == _Max_sequence_non_leaf && _Bottom % 2 == 0) { // only child at bottom, move _Hole down to it

  000ea	8b 7d 08	 mov	 edi, DWORD PTR __First$[ebp]
  000ed	3b c1		 cmp	 eax, ecx
  000ef	75 1b		 jne	 SHORT $LN5@Pop_heap_h
  000f1	f6 c2 01	 test	 dl, 1
  000f4	75 16		 jne	 SHORT $LN5@Pop_heap_h

; 6207 :         *(_First + _Hole) = _STD move(*(_First + (_Bottom - 1)));

  000f6	4a		 dec	 edx
  000f7	8d 04 d2	 lea	 eax, DWORD PTR [edx+edx*8]
  000fa	8d 04 87	 lea	 eax, DWORD PTR [edi+eax*4]
  000fd	50		 push	 eax
  000fe	8d 04 f6	 lea	 eax, DWORD PTR [esi+esi*8]
  00101	8d 0c 87	 lea	 ecx, DWORD PTR [edi+eax*4]
  00104	e8 00 00 00 00	 call	 ??4SGuildMemberData@CPythonGuild@@QAEAAU01@$$QAU01@@Z

; 6208 :         _Hole             = _Bottom - 1;

  00109	8b 75 f0	 mov	 esi, DWORD PTR tv666[ebp]
$LN5@Pop_heap_h:

; 6077 :          _Top < _Hole && _DEBUG_LT_PRED(_Pred, *(_First + _Idx), _Val); //

  0010c	3b de		 cmp	 ebx, esi
  0010e	0f 8d b4 00 00
	00		 jge	 $LN67@Pop_heap_h
  00114	eb 03		 jmp	 SHORT $LN33@Pop_heap_h
$LL68@Pop_heap_h:
  00116	8b 7d 08	 mov	 edi, DWORD PTR __First$[ebp]
$LN33@Pop_heap_h:
; File D:\Metin2 Server Files\mainline\SRC_2014\Metin2Client\UserInterface\PythonGuild.cpp

; 331  : 		if (rleft.byGrade < rright.byGrade)

  00119	8b 4d 14	 mov	 ecx, DWORD PTR __Val$[ebp]
; File C:\Program Files (x86)\Microsoft Visual Studio\2019\Community\VC\Tools\MSVC\14.28.29333\include\algorithm

; 6076 :     for (_Diff _Idx = (_Hole - 1) >> 1; // shift for codegen

  0011c	8d 5e ff	 lea	 ebx, DWORD PTR [esi-1]
  0011f	d1 fb		 sar	 ebx, 1

; 6077 :          _Top < _Hole && _DEBUG_LT_PRED(_Pred, *(_First + _Idx), _Val); //

  00121	8d 04 db	 lea	 eax, DWORD PTR [ebx+ebx*8]
; File D:\Metin2 Server Files\mainline\SRC_2014\Metin2Client\UserInterface\PythonGuild.cpp

; 331  : 		if (rleft.byGrade < rright.byGrade)

  00124	8d 3c 87	 lea	 edi, DWORD PTR [edi+eax*4]
  00127	8a 47 1c	 mov	 al, BYTE PTR [edi+28]
  0012a	3a 41 1c	 cmp	 al, BYTE PTR [ecx+28]
  0012d	0f 83 95 00 00
	00		 jae	 $LN67@Pop_heap_h
; File C:\Program Files (x86)\Microsoft Visual Studio\2019\Community\VC\Tools\MSVC\14.28.29333\include\algorithm

; 6080 :         *(_First + _Hole) = _STD move(*(_First + _Idx));

  00133	8b 4d 08	 mov	 ecx, DWORD PTR __First$[ebp]
  00136	8d 04 f6	 lea	 eax, DWORD PTR [esi+esi*8]
  00139	8d 0c 81	 lea	 ecx, DWORD PTR [ecx+eax*4]
  0013c	8b 07		 mov	 eax, DWORD PTR [edi]
  0013e	89 01		 mov	 DWORD PTR [ecx], eax
  00140	8d 71 04	 lea	 esi, DWORD PTR [ecx+4]
  00143	8d 47 04	 lea	 eax, DWORD PTR [edi+4]
  00146	89 4d 10	 mov	 DWORD PTR _this$1$[ebp], ecx
; File C:\Program Files (x86)\Microsoft Visual Studio\2019\Community\VC\Tools\MSVC\14.28.29333\include\xstring

; 2665 :         if (this != _STD addressof(_Right)) {

  00149	3b f0		 cmp	 esi, eax
  0014b	74 4e		 je	 SHORT $LN57@Pop_heap_h

; 2227 :         return _BUF_SIZE <= _Myres;

  0014d	8b 56 14	 mov	 edx, DWORD PTR [esi+20]
  00150	83 fa 10	 cmp	 edx, 16			; 00000010H

; 4385 :         if (_Mypair._Myval2._Large_string_engaged()) {

  00153	72 14		 jb	 SHORT $LN46@Pop_heap_h

; 4386 :             const pointer _Ptr = _Mypair._Myval2._Bx._Ptr;
; 4387 :             auto& _Al          = _Getal();
; 4388 :             _Destroy_in_place(_Mypair._Myval2._Bx._Ptr);
; 4389 :             _Al.deallocate(_Ptr, _Mypair._Myval2._Myres + 1);

  00155	8d 42 01	 lea	 eax, DWORD PTR [edx+1]
; File C:\Program Files (x86)\Microsoft Visual Studio\2019\Community\VC\Tools\MSVC\14.28.29333\include\xmemory

; 810  :         _Deallocate<_New_alignof<_Ty>>(_Ptr, sizeof(_Ty) * _Count);

  00158	50		 push	 eax
  00159	ff 36		 push	 DWORD PTR [esi]
  0015b	e8 00 00 00 00	 call	 ??$_Deallocate@$07$0A@@std@@YAXPAXI@Z ; std::_Deallocate<8,0>
  00160	8b 4d 10	 mov	 ecx, DWORD PTR _this$1$[ebp]
  00163	8d 47 04	 lea	 eax, DWORD PTR [edi+4]
  00166	83 c4 08	 add	 esp, 8
$LN46@Pop_heap_h:
; File C:\Program Files (x86)\Microsoft Visual Studio\2019\Community\VC\Tools\MSVC\14.28.29333\include\xstring

; 4392 :         _Mypair._Myval2._Mysize = 0;

  00169	c7 46 10 00 00
	00 00		 mov	 DWORD PTR [esi+16], 0

; 4393 :         _Mypair._Myval2._Myres  = _BUF_SIZE - 1;

  00170	c7 46 14 0f 00
	00 00		 mov	 DWORD PTR [esi+20], 15	; 0000000fH

; 4394 :         // the _Traits::assign is last so the codegen doesn't think the char write can alias this
; 4395 :         _Traits::assign(_Mypair._Myval2._Bx._Buf[0], _Elem());

  00177	c6 06 00	 mov	 BYTE PTR [esi], 0

; 2684 :         _CSTD memcpy(_My_data_mem, _Right_data_mem, _Memcpy_val_size);

  0017a	0f 10 00	 movups	 xmm0, XMMWORD PTR [eax]
  0017d	0f 11 06	 movups	 XMMWORD PTR [esi], xmm0
  00180	f3 0f 7e 40 10	 movq	 xmm0, QWORD PTR [eax+16]
  00185	66 0f d6 46 10	 movq	 QWORD PTR [esi+16], xmm0

; 4377 :         _Mypair._Myval2._Mysize = 0;

  0018a	c7 40 10 00 00
	00 00		 mov	 DWORD PTR [eax+16], 0

; 4378 :         _Mypair._Myval2._Myres  = _BUF_SIZE - 1;

  00191	c7 40 14 0f 00
	00 00		 mov	 DWORD PTR [eax+20], 15	; 0000000fH

; 4379 :         // the _Traits::assign is last so the codegen doesn't think the char write can alias this
; 4380 :         _Traits::assign(_Mypair._Myval2._Bx._Buf[0], _Elem());

  00198	c6 00 00	 mov	 BYTE PTR [eax], 0
$LN57@Pop_heap_h:
; File C:\Program Files (x86)\Microsoft Visual Studio\2019\Community\VC\Tools\MSVC\14.28.29333\include\algorithm

; 6081 :         _Hole             = _Idx;

  0019b	8b f3		 mov	 esi, ebx
  0019d	0f b6 47 1c	 movzx	 eax, BYTE PTR [edi+28]
  001a1	88 41 1c	 mov	 BYTE PTR [ecx+28], al
  001a4	0f b6 47 1d	 movzx	 eax, BYTE PTR [edi+29]
  001a8	88 41 1d	 mov	 BYTE PTR [ecx+29], al
  001ab	0f b6 47 1e	 movzx	 eax, BYTE PTR [edi+30]
  001af	88 41 1e	 mov	 BYTE PTR [ecx+30], al
  001b2	0f b6 47 1f	 movzx	 eax, BYTE PTR [edi+31]
  001b6	88 41 1f	 mov	 BYTE PTR [ecx+31], al
  001b9	8b 47 20	 mov	 eax, DWORD PTR [edi+32]
  001bc	89 41 20	 mov	 DWORD PTR [ecx+32], eax

; 6077 :          _Top < _Hole && _DEBUG_LT_PRED(_Pred, *(_First + _Idx), _Val); //

  001bf	39 5d 0c	 cmp	 DWORD PTR __Top$1$[ebp], ebx
  001c2	0f 8c 4e ff ff
	ff		 jl	 $LL68@Pop_heap_h
$LN67@Pop_heap_h:

; 6082 :     }
; 6083 : 
; 6084 :     *(_First + _Hole) = _STD forward<_Ty>(_Val); // drop _Val into final hole

  001c8	8b 4d 08	 mov	 ecx, DWORD PTR __First$[ebp]
  001cb	8d 04 f6	 lea	 eax, DWORD PTR [esi+esi*8]
  001ce	ff 75 14	 push	 DWORD PTR __Val$[ebp]
  001d1	8d 0c 81	 lea	 ecx, DWORD PTR [ecx+eax*4]
  001d4	e8 00 00 00 00	 call	 ??4SGuildMemberData@CPythonGuild@@QAEAAU01@$$QAU01@@Z
  001d9	5f		 pop	 edi
  001da	5e		 pop	 esi
  001db	5b		 pop	 ebx

; 6209 :     }
; 6210 : 
; 6211 :     _Push_heap_by_index(_First, _Hole, _Top, _STD forward<_Ty>(_Val), _Pred);
; 6212 : }

  001dc	8b e5		 mov	 esp, ebp
  001de	5d		 pop	 ebp
  001df	c3		 ret	 0
??$_Pop_heap_hole_by_index@PAUSGuildMemberData@CPythonGuild@@U12@UCPythonGuild_SLessMemberGrade@@@std@@YAXPAUSGuildMemberData@CPythonGuild@@HH$$QAU12@UCPythonGuild_SLessMemberGrade@@@Z ENDP ; std::_Pop_heap_hole_by_index<CPythonGuild::SGuildMemberData *,CPythonGuild::SGuildMemberData,CPythonGuild_SLessMemberGrade>
_TEXT	ENDS
; Function compile flags: /Ogtp
; File C:\Program Files (x86)\Microsoft Visual Studio\2019\Community\VC\Tools\MSVC\14.28.29333\include\xmemory
;	COMDAT ??$_Refancy@PAUSGuildMemberData@CPythonGuild@@$0A@@std@@YAPAUSGuildMemberData@CPythonGuild@@PAU12@@Z
_TEXT	SEGMENT
__Ptr$ = 8						; size = 4
??$_Refancy@PAUSGuildMemberData@CPythonGuild@@$0A@@std@@YAPAUSGuildMemberData@CPythonGuild@@PAU12@@Z PROC ; std::_Refancy<CPythonGuild::SGuildMemberData *,0>, COMDAT

; 261  : _Pointer _Refancy(_Pointer _Ptr) noexcept {

  00000	55		 push	 ebp
  00001	8b ec		 mov	 ebp, esp

; 262  :     return _Ptr;

  00003	8b 45 08	 mov	 eax, DWORD PTR __Ptr$[ebp]

; 263  : }

  00006	5d		 pop	 ebp
  00007	c3		 ret	 0
??$_Refancy@PAUSGuildMemberData@CPythonGuild@@$0A@@std@@YAPAUSGuildMemberData@CPythonGuild@@PAU12@@Z ENDP ; std::_Refancy<CPythonGuild::SGuildMemberData *,0>
_TEXT	ENDS
; Function compile flags: /Ogtp
; File C:\Program Files (x86)\Microsoft Visual Studio\2019\Community\VC\Tools\MSVC\14.28.29333\include\xmemory
;	COMDAT ??$_Construct_in_place@PAU?$_Tree_node@U?$pair@$$CBKV?$basic_string@DU?$char_traits@D@std@@V?$allocator@D@2@@std@@@std@@PAX@std@@AAPAU12@@std@@YAXAAPAU?$_Tree_node@U?$pair@$$CBKV?$basic_string@DU?$char_traits@D@std@@V?$allocator@D@2@@std@@@std@@PAX@0@0@Z
_TEXT	SEGMENT
__Obj$ = 8						; size = 4
_<_Args_0>$ = 12					; size = 4
??$_Construct_in_place@PAU?$_Tree_node@U?$pair@$$CBKV?$basic_string@DU?$char_traits@D@std@@V?$allocator@D@2@@std@@@std@@PAX@std@@AAPAU12@@std@@YAXAAPAU?$_Tree_node@U?$pair@$$CBKV?$basic_string@DU?$char_traits@D@std@@V?$allocator@D@2@@std@@@std@@PAX@0@0@Z PROC ; std::_Construct_in_place<std::_Tree_node<std::pair<unsigned long const ,std::basic_string<char,std::char_traits<char>,std::allocator<char> > >,void *> *,std::_Tree_node<std::pair<unsigned long const ,std::basic_string<char,std::char_traits<char>,std::allocator<char> > >,void *> * &>, COMDAT

; 228  : void _Construct_in_place(_Ty& _Obj, _Types&&... _Args) noexcept(is_nothrow_constructible_v<_Ty, _Types...>) {

  00000	55		 push	 ebp
  00001	8b ec		 mov	 ebp, esp

; 229  :     ::new (const_cast<void*>(static_cast<const volatile void*>(_STD addressof(_Obj))))

  00003	8b 45 0c	 mov	 eax, DWORD PTR _<_Args_0>$[ebp]
  00006	8b 08		 mov	 ecx, DWORD PTR [eax]
  00008	8b 45 08	 mov	 eax, DWORD PTR __Obj$[ebp]
  0000b	89 08		 mov	 DWORD PTR [eax], ecx

; 230  :         _Ty(_STD forward<_Types>(_Args)...);
; 231  : }

  0000d	5d		 pop	 ebp
  0000e	c3		 ret	 0
??$_Construct_in_place@PAU?$_Tree_node@U?$pair@$$CBKV?$basic_string@DU?$char_traits@D@std@@V?$allocator@D@2@@std@@@std@@PAX@std@@AAPAU12@@std@@YAXAAPAU?$_Tree_node@U?$pair@$$CBKV?$basic_string@DU?$char_traits@D@std@@V?$allocator@D@2@@std@@@std@@PAX@0@0@Z ENDP ; std::_Construct_in_place<std::_Tree_node<std::pair<unsigned long const ,std::basic_string<char,std::char_traits<char>,std::allocator<char> > >,void *> *,std::_Tree_node<std::pair<unsigned long const ,std::basic_string<char,std::char_traits<char>,std::allocator<char> > >,void *> * &>
_TEXT	ENDS
; Function compile flags: /Ogtp
; File C:\Program Files (x86)\Microsoft Visual Studio\2019\Community\VC\Tools\MSVC\14.28.29333\include\xmemory
;	COMDAT ??$_Destroy_in_place@PAU?$_Tree_node@U?$pair@$$CBKK@std@@PAX@std@@@std@@YAXAAPAU?$_Tree_node@U?$pair@$$CBKK@std@@PAX@0@@Z
_TEXT	SEGMENT
__Obj$ = 8						; size = 4
??$_Destroy_in_place@PAU?$_Tree_node@U?$pair@$$CBKK@std@@PAX@std@@@std@@YAXAAPAU?$_Tree_node@U?$pair@$$CBKK@std@@PAX@0@@Z PROC ; std::_Destroy_in_place<std::_Tree_node<std::pair<unsigned long const ,unsigned long>,void *> *>, COMDAT

; 271  : #if _HAS_IF_CONSTEXPR
; 272  :     if constexpr (is_array_v<_Ty>) {
; 273  :         _Destroy_range(_Obj, _Obj + extent_v<_Ty>);
; 274  :     } else
; 275  : #endif // _HAS_IF_CONSTEXPR
; 276  :     {
; 277  :         _Obj.~_Ty();
; 278  :     }
; 279  : }

  00000	c2 00 00	 ret	 0
??$_Destroy_in_place@PAU?$_Tree_node@U?$pair@$$CBKK@std@@PAX@std@@@std@@YAXAAPAU?$_Tree_node@U?$pair@$$CBKK@std@@PAX@0@@Z ENDP ; std::_Destroy_in_place<std::_Tree_node<std::pair<unsigned long const ,unsigned long>,void *> *>
_TEXT	ENDS
; Function compile flags: /Ogtp
; File C:\Program Files (x86)\Microsoft Visual Studio\2019\Community\VC\Tools\MSVC\14.28.29333\include\xmemory
;	COMDAT ??$_Construct_in_place@PAU?$_Tree_node@U?$pair@$$CBEUSGuildGradeData@CPythonGuild@@@std@@PAX@std@@AAPAU12@@std@@YAXAAPAU?$_Tree_node@U?$pair@$$CBEUSGuildGradeData@CPythonGuild@@@std@@PAX@0@0@Z
_TEXT	SEGMENT
__Obj$ = 8						; size = 4
_<_Args_0>$ = 12					; size = 4
??$_Construct_in_place@PAU?$_Tree_node@U?$pair@$$CBEUSGuildGradeData@CPythonGuild@@@std@@PAX@std@@AAPAU12@@std@@YAXAAPAU?$_Tree_node@U?$pair@$$CBEUSGuildGradeData@CPythonGuild@@@std@@PAX@0@0@Z PROC ; std::_Construct_in_place<std::_Tree_node<std::pair<unsigned char const ,CPythonGuild::SGuildGradeData>,void *> *,std::_Tree_node<std::pair<unsigned char const ,CPythonGuild::SGuildGradeData>,void *> * &>, COMDAT

; 228  : void _Construct_in_place(_Ty& _Obj, _Types&&... _Args) noexcept(is_nothrow_constructible_v<_Ty, _Types...>) {

  00000	55		 push	 ebp
  00001	8b ec		 mov	 ebp, esp

; 229  :     ::new (const_cast<void*>(static_cast<const volatile void*>(_STD addressof(_Obj))))

  00003	8b 45 0c	 mov	 eax, DWORD PTR _<_Args_0>$[ebp]
  00006	8b 08		 mov	 ecx, DWORD PTR [eax]
  00008	8b 45 08	 mov	 eax, DWORD PTR __Obj$[ebp]
  0000b	89 08		 mov	 DWORD PTR [eax], ecx

; 230  :         _Ty(_STD forward<_Types>(_Args)...);
; 231  : }

  0000d	5d		 pop	 ebp
  0000e	c3		 ret	 0
??$_Construct_in_place@PAU?$_Tree_node@U?$pair@$$CBEUSGuildGradeData@CPythonGuild@@@std@@PAX@std@@AAPAU12@@std@@YAXAAPAU?$_Tree_node@U?$pair@$$CBEUSGuildGradeData@CPythonGuild@@@std@@PAX@0@0@Z ENDP ; std::_Construct_in_place<std::_Tree_node<std::pair<unsigned char const ,CPythonGuild::SGuildGradeData>,void *> *,std::_Tree_node<std::pair<unsigned char const ,CPythonGuild::SGuildGradeData>,void *> * &>
_TEXT	ENDS
; Function compile flags: /Ogtp
; File C:\Program Files (x86)\Microsoft Visual Studio\2019\Community\VC\Tools\MSVC\14.28.29333\include\algorithm
; File D:\Metin2 Server Files\mainline\SRC_2014\Metin2Client\UserInterface\PythonGuild.cpp
; File C:\Program Files (x86)\Microsoft Visual Studio\2019\Community\VC\Tools\MSVC\14.28.29333\include\algorithm
; File D:\Metin2 Server Files\mainline\SRC_2014\Metin2Client\UserInterface\PythonGuild.cpp
; File C:\Program Files (x86)\Microsoft Visual Studio\2019\Community\VC\Tools\MSVC\14.28.29333\include\algorithm
; File D:\Metin2 Server Files\mainline\SRC_2014\Metin2Client\UserInterface\PythonGuild.cpp
; File C:\Program Files (x86)\Microsoft Visual Studio\2019\Community\VC\Tools\MSVC\14.28.29333\include\algorithm
; File C:\Program Files (x86)\Microsoft Visual Studio\2019\Community\VC\Tools\MSVC\14.28.29333\include\xstring
; File C:\Program Files (x86)\Microsoft Visual Studio\2019\Community\VC\Tools\MSVC\14.28.29333\include\utility
; File C:\Program Files (x86)\Microsoft Visual Studio\2019\Community\VC\Tools\MSVC\14.28.29333\include\xstring
; File C:\Program Files (x86)\Microsoft Visual Studio\2019\Community\VC\Tools\MSVC\14.28.29333\include\utility
; File C:\Program Files (x86)\Microsoft Visual Studio\2019\Community\VC\Tools\MSVC\14.28.29333\include\xstring
; File C:\Program Files (x86)\Microsoft Visual Studio\2019\Community\VC\Tools\MSVC\14.28.29333\include\utility
; File C:\Program Files (x86)\Microsoft Visual Studio\2019\Community\VC\Tools\MSVC\14.28.29333\include\xstring
; File C:\Program Files (x86)\Microsoft Visual Studio\2019\Community\VC\Tools\MSVC\14.28.29333\include\xmemory
; File C:\Program Files (x86)\Microsoft Visual Studio\2019\Community\VC\Tools\MSVC\14.28.29333\include\algorithm
; File D:\Metin2 Server Files\mainline\SRC_2014\Metin2Client\UserInterface\PythonGuild.cpp
; File C:\Program Files (x86)\Microsoft Visual Studio\2019\Community\VC\Tools\MSVC\14.28.29333\include\algorithm
; File C:\Program Files (x86)\Microsoft Visual Studio\2019\Community\VC\Tools\MSVC\14.28.29333\include\xstring
; File C:\Program Files (x86)\Microsoft Visual Studio\2019\Community\VC\Tools\MSVC\14.28.29333\include\utility
; File C:\Program Files (x86)\Microsoft Visual Studio\2019\Community\VC\Tools\MSVC\14.28.29333\include\xstring
; File C:\Program Files (x86)\Microsoft Visual Studio\2019\Community\VC\Tools\MSVC\14.28.29333\include\utility
; File C:\Program Files (x86)\Microsoft Visual Studio\2019\Community\VC\Tools\MSVC\14.28.29333\include\xstring
; File C:\Program Files (x86)\Microsoft Visual Studio\2019\Community\VC\Tools\MSVC\14.28.29333\include\utility
; File C:\Program Files (x86)\Microsoft Visual Studio\2019\Community\VC\Tools\MSVC\14.28.29333\include\xstring
; File C:\Program Files (x86)\Microsoft Visual Studio\2019\Community\VC\Tools\MSVC\14.28.29333\include\xmemory
; File C:\Program Files (x86)\Microsoft Visual Studio\2019\Community\VC\Tools\MSVC\14.28.29333\include\algorithm
; File D:\Metin2 Server Files\mainline\SRC_2014\Metin2Client\UserInterface\PythonGuild.cpp
; File C:\Program Files (x86)\Microsoft Visual Studio\2019\Community\VC\Tools\MSVC\14.28.29333\include\algorithm
; File C:\Program Files (x86)\Microsoft Visual Studio\2019\Community\VC\Tools\MSVC\14.28.29333\include\xstring
; File C:\Program Files (x86)\Microsoft Visual Studio\2019\Community\VC\Tools\MSVC\14.28.29333\include\xmemory
; File C:\Program Files (x86)\Microsoft Visual Studio\2019\Community\VC\Tools\MSVC\14.28.29333\include\xstring
; File C:\Program Files (x86)\Microsoft Visual Studio\2019\Community\VC\Tools\MSVC\14.28.29333\include\utility
; File C:\Program Files (x86)\Microsoft Visual Studio\2019\Community\VC\Tools\MSVC\14.28.29333\include\xstring
; File C:\Program Files (x86)\Microsoft Visual Studio\2019\Community\VC\Tools\MSVC\14.28.29333\include\xmemory
; File C:\Program Files (x86)\Microsoft Visual Studio\2019\Community\VC\Tools\MSVC\14.28.29333\include\xstring
; File C:\Program Files (x86)\Microsoft Visual Studio\2019\Community\VC\Tools\MSVC\14.28.29333\include\algorithm
; File C:\Program Files (x86)\Microsoft Visual Studio\2019\Community\VC\Tools\MSVC\14.28.29333\include\utility
; File C:\Program Files (x86)\Microsoft Visual Studio\2019\Community\VC\Tools\MSVC\14.28.29333\include\xstring
; File C:\Program Files (x86)\Microsoft Visual Studio\2019\Community\VC\Tools\MSVC\14.28.29333\include\utility
; File C:\Program Files (x86)\Microsoft Visual Studio\2019\Community\VC\Tools\MSVC\14.28.29333\include\xstring
; File C:\Program Files (x86)\Microsoft Visual Studio\2019\Community\VC\Tools\MSVC\14.28.29333\include\algorithm
; File C:\Program Files (x86)\Microsoft Visual Studio\2019\Community\VC\Tools\MSVC\14.28.29333\include\xstring
; File C:\Program Files (x86)\Microsoft Visual Studio\2019\Community\VC\Tools\MSVC\14.28.29333\include\utility
; File C:\Program Files (x86)\Microsoft Visual Studio\2019\Community\VC\Tools\MSVC\14.28.29333\include\xstring
; File C:\Program Files (x86)\Microsoft Visual Studio\2019\Community\VC\Tools\MSVC\14.28.29333\include\xmemory
; File C:\Program Files (x86)\Microsoft Visual Studio\2019\Community\VC\Tools\MSVC\14.28.29333\include\algorithm
; File C:\Program Files (x86)\Microsoft Visual Studio\2019\Community\VC\Tools\MSVC\14.28.29333\include\xstring
; File C:\Program Files (x86)\Microsoft Visual Studio\2019\Community\VC\Tools\MSVC\14.28.29333\include\xmemory
; File C:\Program Files (x86)\Microsoft Visual Studio\2019\Community\VC\Tools\MSVC\14.28.29333\include\xstring
; File C:\Program Files (x86)\Microsoft Visual Studio\2019\Community\VC\Tools\MSVC\14.28.29333\include\utility
; File C:\Program Files (x86)\Microsoft Visual Studio\2019\Community\VC\Tools\MSVC\14.28.29333\include\xstring
; File C:\Program Files (x86)\Microsoft Visual Studio\2019\Community\VC\Tools\MSVC\14.28.29333\include\xmemory
; File C:\Program Files (x86)\Microsoft Visual Studio\2019\Community\VC\Tools\MSVC\14.28.29333\include\xstring
; File C:\Program Files (x86)\Microsoft Visual Studio\2019\Community\VC\Tools\MSVC\14.28.29333\include\algorithm
; File C:\Program Files (x86)\Microsoft Visual Studio\2019\Community\VC\Tools\MSVC\14.28.29333\include\xstring
; File C:\Program Files (x86)\Microsoft Visual Studio\2019\Community\VC\Tools\MSVC\14.28.29333\include\algorithm
; File C:\Program Files (x86)\Microsoft Visual Studio\2019\Community\VC\Tools\MSVC\14.28.29333\include\xstring
; File C:\Program Files (x86)\Microsoft Visual Studio\2019\Community\VC\Tools\MSVC\14.28.29333\include\xmemory
; File C:\Program Files (x86)\Microsoft Visual Studio\2019\Community\VC\Tools\MSVC\14.28.29333\include\xstring
; File C:\Program Files (x86)\Microsoft Visual Studio\2019\Community\VC\Tools\MSVC\14.28.29333\include\utility
; File C:\Program Files (x86)\Microsoft Visual Studio\2019\Community\VC\Tools\MSVC\14.28.29333\include\xstring
; File C:\Program Files (x86)\Microsoft Visual Studio\2019\Community\VC\Tools\MSVC\14.28.29333\include\xmemory
; File C:\Program Files (x86)\Microsoft Visual Studio\2019\Community\VC\Tools\MSVC\14.28.29333\include\algorithm
; File C:\Program Files (x86)\Microsoft Visual Studio\2019\Community\VC\Tools\MSVC\14.28.29333\include\xmemory
; File C:\Program Files (x86)\Microsoft Visual Studio\2019\Community\VC\Tools\MSVC\14.28.29333\include\algorithm
; File C:\Program Files (x86)\Microsoft Visual Studio\2019\Community\VC\Tools\MSVC\14.28.29333\include\xstring
; File C:\Program Files (x86)\Microsoft Visual Studio\2019\Community\VC\Tools\MSVC\14.28.29333\include\algorithm
; File C:\Program Files (x86)\Microsoft Visual Studio\2019\Community\VC\Tools\MSVC\14.28.29333\include\xstring
; File C:\Program Files (x86)\Microsoft Visual Studio\2019\Community\VC\Tools\MSVC\14.28.29333\include\xmemory
; File C:\Program Files (x86)\Microsoft Visual Studio\2019\Community\VC\Tools\MSVC\14.28.29333\include\xstring
; File C:\Program Files (x86)\Microsoft Visual Studio\2019\Community\VC\Tools\MSVC\14.28.29333\include\utility
; File C:\Program Files (x86)\Microsoft Visual Studio\2019\Community\VC\Tools\MSVC\14.28.29333\include\xstring
; File C:\Program Files (x86)\Microsoft Visual Studio\2019\Community\VC\Tools\MSVC\14.28.29333\include\xmemory
; File C:\Program Files (x86)\Microsoft Visual Studio\2019\Community\VC\Tools\MSVC\14.28.29333\include\algorithm
; File C:\Program Files (x86)\Microsoft Visual Studio\2019\Community\VC\Tools\MSVC\14.28.29333\include\utility
; File C:\Program Files (x86)\Microsoft Visual Studio\2019\Community\VC\Tools\MSVC\14.28.29333\include\algorithm
; File C:\Program Files (x86)\Microsoft Visual Studio\2019\Community\VC\Tools\MSVC\14.28.29333\include\utility
; File C:\Program Files (x86)\Microsoft Visual Studio\2019\Community\VC\Tools\MSVC\14.28.29333\include\algorithm
; File C:\Program Files (x86)\Microsoft Visual Studio\2019\Community\VC\Tools\MSVC\14.28.29333\include\utility
; File C:\Program Files (x86)\Microsoft Visual Studio\2019\Community\VC\Tools\MSVC\14.28.29333\include\algorithm
;	COMDAT ??$_Partition_by_median_guess_unchecked@PAUSGuildMemberData@CPythonGuild@@UCPythonGuild_SLessMemberGrade@@@std@@YA?AU?$pair@PAUSGuildMemberData@CPythonGuild@@PAU12@@0@PAUSGuildMemberData@CPythonGuild@@0UCPythonGuild_SLessMemberGrade@@@Z
_TEXT	SEGMENT
___$ReturnUdt$GSCopy$1$ = -64				; size = 4
__Last$GSCopy$1$ = -60					; size = 4
__First$GSCopy$1$ = -56					; size = 4
_this$1$ = -52						; size = 4
__Plast$1$ = -52					; size = 4
__Right$1$ = -48					; size = 4
tv2880 = -48						; size = 4
__Gfirst$1$ = -48					; size = 4
__Glast$1$ = -44					; size = 4
__Tmp$1 = -40						; size = 36
__Tmp$2 = -40						; size = 36
__Tmp$3 = -40						; size = 36
__Tmp$4 = -40						; size = 36
__Tmp$5 = -40						; size = 36
__Tmp$6 = -40						; size = 36
__Tmp$7 = -40						; size = 36
__$ArrayPad$ = -4					; size = 4
___$ReturnUdt$ = 8					; size = 4
__First$ = 12						; size = 4
__Last$ = 16						; size = 4
__Pred$ = 20						; size = 1
??$_Partition_by_median_guess_unchecked@PAUSGuildMemberData@CPythonGuild@@UCPythonGuild_SLessMemberGrade@@@std@@YA?AU?$pair@PAUSGuildMemberData@CPythonGuild@@PAU12@@0@PAUSGuildMemberData@CPythonGuild@@0UCPythonGuild_SLessMemberGrade@@@Z PROC ; std::_Partition_by_median_guess_unchecked<CPythonGuild::SGuildMemberData *,CPythonGuild_SLessMemberGrade>, COMDAT

; 7467 : _CONSTEXPR20 pair<_RanIt, _RanIt> _Partition_by_median_guess_unchecked(_RanIt _First, _RanIt _Last, _Pr _Pred) {

  00000	55		 push	 ebp
  00001	8b ec		 mov	 ebp, esp
  00003	83 ec 40	 sub	 esp, 64			; 00000040H
  00006	a1 00 00 00 00	 mov	 eax, DWORD PTR ___security_cookie
  0000b	33 c5		 xor	 eax, ebp
  0000d	89 45 fc	 mov	 DWORD PTR __$ArrayPad$[ebp], eax
  00010	8b 45 08	 mov	 eax, DWORD PTR ___$ReturnUdt$[ebp]
  00013	53		 push	 ebx
  00014	8b 5d 10	 mov	 ebx, DWORD PTR __Last$[ebp]

; 7468 :     // partition [_First, _Last)
; 7469 :     _RanIt _Mid = _First + ((_Last - _First) >> 1); // shift for codegen

  00017	8b cb		 mov	 ecx, ebx
  00019	56		 push	 esi
  0001a	89 45 c0	 mov	 DWORD PTR ___$ReturnUdt$GSCopy$1$[ebp], eax
  0001d	b8 39 8e e3 38	 mov	 eax, 954437177		; 38e38e39H
  00022	57		 push	 edi
  00023	8b 7d 0c	 mov	 edi, DWORD PTR __First$[ebp]
  00026	2b cf		 sub	 ecx, edi

; 7470 :     _Guess_median_unchecked(_First, _Mid, _Prev_iter(_Last), _Pred);

  00028	ff 75 14	 push	 DWORD PTR __Pred$[ebp]
  0002b	f7 e9		 imul	 ecx
  0002d	89 7d c8	 mov	 DWORD PTR __First$GSCopy$1$[ebp], edi
  00030	c1 fa 03	 sar	 edx, 3
  00033	8b c2		 mov	 eax, edx
  00035	89 5d c4	 mov	 DWORD PTR __Last$GSCopy$1$[ebp], ebx
  00038	c1 e8 1f	 shr	 eax, 31			; 0000001fH
  0003b	03 c2		 add	 eax, edx
  0003d	d1 f8		 sar	 eax, 1
  0003f	8d 04 c0	 lea	 eax, DWORD PTR [eax+eax*8]
  00042	8d 34 87	 lea	 esi, DWORD PTR [edi+eax*4]
  00045	8d 43 dc	 lea	 eax, DWORD PTR [ebx-36]
  00048	50		 push	 eax
  00049	56		 push	 esi
  0004a	57		 push	 edi
  0004b	e8 00 00 00 00	 call	 ??$_Guess_median_unchecked@PAUSGuildMemberData@CPythonGuild@@UCPythonGuild_SLessMemberGrade@@@std@@YAXPAUSGuildMemberData@CPythonGuild@@00UCPythonGuild_SLessMemberGrade@@@Z ; std::_Guess_median_unchecked<CPythonGuild::SGuildMemberData *,CPythonGuild_SLessMemberGrade>

; 7475 :            && !_Pred(*_Pfirst, *_Prev_iter(_Pfirst))) {

  00050	8b 55 c8	 mov	 edx, DWORD PTR __First$GSCopy$1$[ebp]
  00053	8d 7e 24	 lea	 edi, DWORD PTR [esi+36]
  00056	83 c4 10	 add	 esp, 16			; 00000010H
  00059	89 7d cc	 mov	 DWORD PTR __Plast$1$[ebp], edi
  0005c	3b d6		 cmp	 edx, esi
  0005e	73 11		 jae	 SHORT $LN432@Partition_
$LL2@Partition_:
; File D:\Metin2 Server Files\mainline\SRC_2014\Metin2Client\UserInterface\PythonGuild.cpp

; 331  : 		if (rleft.byGrade < rright.byGrade)

  00060	8a 46 f8	 mov	 al, BYTE PTR [esi-8]
  00063	3a 46 1c	 cmp	 al, BYTE PTR [esi+28]
  00066	72 09		 jb	 SHORT $LN432@Partition_
  00068	77 07		 ja	 SHORT $LN432@Partition_
; File C:\Program Files (x86)\Microsoft Visual Studio\2019\Community\VC\Tools\MSVC\14.28.29333\include\algorithm

; 7475 :            && !_Pred(*_Pfirst, *_Prev_iter(_Pfirst))) {

  0006a	83 ee 24	 sub	 esi, 36			; 00000024H
  0006d	3b d6		 cmp	 edx, esi
  0006f	72 ef		 jb	 SHORT $LL2@Partition_
$LN432@Partition_:

; 7479 :     while (_Plast < _Last && !_DEBUG_LT_PRED(_Pred, *_Plast, *_Pfirst) && !_Pred(*_Pfirst, *_Plast)) {

  00071	3b fb		 cmp	 edi, ebx
  00073	73 14		 jae	 SHORT $LN426@Partition_
; File D:\Metin2 Server Files\mainline\SRC_2014\Metin2Client\UserInterface\PythonGuild.cpp

; 331  : 		if (rleft.byGrade < rright.byGrade)

  00075	8a 4e 1c	 mov	 cl, BYTE PTR [esi+28]
$LL4@Partition_:
  00078	38 4f 1c	 cmp	 BYTE PTR [edi+28], cl
  0007b	72 09		 jb	 SHORT $LN433@Partition_
  0007d	77 07		 ja	 SHORT $LN433@Partition_
; File C:\Program Files (x86)\Microsoft Visual Studio\2019\Community\VC\Tools\MSVC\14.28.29333\include\algorithm

; 7479 :     while (_Plast < _Last && !_DEBUG_LT_PRED(_Pred, *_Plast, *_Pfirst) && !_Pred(*_Pfirst, *_Plast)) {

  0007f	83 c7 24	 add	 edi, 36			; 00000024H
  00082	3b fb		 cmp	 edi, ebx
  00084	72 f2		 jb	 SHORT $LL4@Partition_
$LN433@Partition_:
  00086	89 7d cc	 mov	 DWORD PTR __Plast$1$[ebp], edi
$LN426@Partition_:

; 7480 :         ++_Plast;
; 7481 :     }
; 7482 : 
; 7483 :     _RanIt _Gfirst = _Plast;
; 7484 :     _RanIt _Glast  = _Pfirst;

  00089	8b d6		 mov	 edx, esi
  0008b	8b df		 mov	 ebx, edi
  0008d	89 55 d4	 mov	 DWORD PTR __Glast$1$[ebp], edx
$LN439@Partition_:

; 7485 : 
; 7486 :     for (;;) { // partition
; 7487 :         for (; _Gfirst < _Last; ++_Gfirst) {

  00090	89 5d d0	 mov	 DWORD PTR __Gfirst$1$[ebp], ebx
$LL6@Partition_:
  00093	3b 5d c4	 cmp	 ebx, DWORD PTR __Last$GSCopy$1$[ebp]
  00096	0f 83 ae 00 00
	00		 jae	 $LN427@Partition_
  0009c	8d 4f 04	 lea	 ecx, DWORD PTR [edi+4]
  0009f	89 4d d0	 mov	 DWORD PTR tv2880[ebp], ecx
$LL11@Partition_:
; File D:\Metin2 Server Files\mainline\SRC_2014\Metin2Client\UserInterface\PythonGuild.cpp

; 331  : 		if (rleft.byGrade < rright.byGrade)

  000a2	8a 46 1c	 mov	 al, BYTE PTR [esi+28]
  000a5	3a 43 1c	 cmp	 al, BYTE PTR [ebx+28]
  000a8	0f 82 87 00 00
	00		 jb	 $LN9@Partition_
  000ae	0f 87 8d 00 00
	00		 ja	 $LN434@Partition_
; File C:\Program Files (x86)\Microsoft Visual Studio\2019\Community\VC\Tools\MSVC\14.28.29333\include\algorithm

; 7492 :             } else if (_Plast != _Gfirst) {

  000b4	3b fb		 cmp	 edi, ebx
  000b6	74 74		 je	 SHORT $LN19@Partition_
; File C:\Program Files (x86)\Microsoft Visual Studio\2019\Community\VC\Tools\MSVC\14.28.29333\include\xstring

; 2684 :         _CSTD memcpy(_My_data_mem, _Right_data_mem, _Memcpy_val_size);

  000b8	0f 10 01	 movups	 xmm0, XMMWORD PTR [ecx]
  000bb	8b 07		 mov	 eax, DWORD PTR [edi]
  000bd	89 45 d8	 mov	 DWORD PTR __Tmp$7[ebp], eax
  000c0	0f 11 45 dc	 movups	 XMMWORD PTR __Tmp$7[ebp+4], xmm0
; File C:\Program Files (x86)\Microsoft Visual Studio\2019\Community\VC\Tools\MSVC\14.28.29333\include\utility

; 105  :     _Left    = _STD move(_Right);

  000c4	53		 push	 ebx
; File C:\Program Files (x86)\Microsoft Visual Studio\2019\Community\VC\Tools\MSVC\14.28.29333\include\xstring

; 2684 :         _CSTD memcpy(_My_data_mem, _Right_data_mem, _Memcpy_val_size);

  000c5	f3 0f 7e 41 10	 movq	 xmm0, QWORD PTR [ecx+16]

; 4377 :         _Mypair._Myval2._Mysize = 0;

  000ca	c7 41 10 00 00
	00 00		 mov	 DWORD PTR [ecx+16], 0

; 4378 :         _Mypair._Myval2._Myres  = _BUF_SIZE - 1;

  000d1	c7 41 14 0f 00
	00 00		 mov	 DWORD PTR [ecx+20], 15	; 0000000fH

; 4379 :         // the _Traits::assign is last so the codegen doesn't think the char write can alias this
; 4380 :         _Traits::assign(_Mypair._Myval2._Bx._Buf[0], _Elem());

  000d8	c6 01 00	 mov	 BYTE PTR [ecx], 0
; File C:\Program Files (x86)\Microsoft Visual Studio\2019\Community\VC\Tools\MSVC\14.28.29333\include\utility

; 105  :     _Left    = _STD move(_Right);

  000db	8b cf		 mov	 ecx, edi
  000dd	0f b6 47 1c	 movzx	 eax, BYTE PTR [edi+28]
  000e1	88 45 f4	 mov	 BYTE PTR __Tmp$7[ebp+28], al
  000e4	0f b6 47 1d	 movzx	 eax, BYTE PTR [edi+29]
  000e8	88 45 f5	 mov	 BYTE PTR __Tmp$7[ebp+29], al
  000eb	0f b6 47 1e	 movzx	 eax, BYTE PTR [edi+30]
  000ef	88 45 f6	 mov	 BYTE PTR __Tmp$7[ebp+30], al
  000f2	0f b6 47 1f	 movzx	 eax, BYTE PTR [edi+31]
  000f6	88 45 f7	 mov	 BYTE PTR __Tmp$7[ebp+31], al
  000f9	8b 47 20	 mov	 eax, DWORD PTR [edi+32]
; File C:\Program Files (x86)\Microsoft Visual Studio\2019\Community\VC\Tools\MSVC\14.28.29333\include\xstring

; 2684 :         _CSTD memcpy(_My_data_mem, _Right_data_mem, _Memcpy_val_size);

  000fc	66 0f d6 45 ec	 movq	 QWORD PTR __Tmp$7[ebp+20], xmm0
  00101	89 45 f8	 mov	 DWORD PTR __Tmp$7[ebp+32], eax
; File C:\Program Files (x86)\Microsoft Visual Studio\2019\Community\VC\Tools\MSVC\14.28.29333\include\utility

; 105  :     _Left    = _STD move(_Right);

  00104	e8 00 00 00 00	 call	 ??4SGuildMemberData@CPythonGuild@@QAEAAU01@$$QAU01@@Z

; 106  :     _Right   = _STD move(_Tmp);

  00109	8d 45 d8	 lea	 eax, DWORD PTR __Tmp$7[ebp]
  0010c	8b cb		 mov	 ecx, ebx
  0010e	50		 push	 eax
  0010f	e8 00 00 00 00	 call	 ??4SGuildMemberData@CPythonGuild@@QAEAAU01@$$QAU01@@Z
; File C:\Program Files (x86)\Microsoft Visual Studio\2019\Community\VC\Tools\MSVC\14.28.29333\include\xstring

; 2227 :         return _BUF_SIZE <= _Myres;

  00114	8b 45 f0	 mov	 eax, DWORD PTR __Tmp$7[ebp+24]
  00117	83 f8 10	 cmp	 eax, 16			; 00000010H

; 4385 :         if (_Mypair._Myval2._Large_string_engaged()) {

  0011a	72 0d		 jb	 SHORT $LN82@Partition_

; 4386 :             const pointer _Ptr = _Mypair._Myval2._Bx._Ptr;
; 4387 :             auto& _Al          = _Getal();
; 4388 :             _Destroy_in_place(_Mypair._Myval2._Bx._Ptr);
; 4389 :             _Al.deallocate(_Ptr, _Mypair._Myval2._Myres + 1);

  0011c	40		 inc	 eax
; File C:\Program Files (x86)\Microsoft Visual Studio\2019\Community\VC\Tools\MSVC\14.28.29333\include\xmemory

; 810  :         _Deallocate<_New_alignof<_Ty>>(_Ptr, sizeof(_Ty) * _Count);

  0011d	50		 push	 eax
  0011e	ff 75 dc	 push	 DWORD PTR __Tmp$7[ebp+4]
  00121	e8 00 00 00 00	 call	 ??$_Deallocate@$07$0A@@std@@YAXPAXI@Z ; std::_Deallocate<8,0>
  00126	83 c4 08	 add	 esp, 8
$LN82@Partition_:
; File C:\Program Files (x86)\Microsoft Visual Studio\2019\Community\VC\Tools\MSVC\14.28.29333\include\algorithm

; 7494 :                 ++_Plast;

  00129	8b 4d d0	 mov	 ecx, DWORD PTR tv2880[ebp]
$LN19@Partition_:

; 7485 : 
; 7486 :     for (;;) { // partition
; 7487 :         for (; _Gfirst < _Last; ++_Gfirst) {

  0012c	83 c7 24	 add	 edi, 36			; 00000024H
  0012f	83 c1 24	 add	 ecx, 36			; 00000024H
  00132	89 4d d0	 mov	 DWORD PTR tv2880[ebp], ecx
$LN9@Partition_:
  00135	83 c3 24	 add	 ebx, 36			; 00000024H
  00138	3b 5d c4	 cmp	 ebx, DWORD PTR __Last$GSCopy$1$[ebp]
  0013b	0f 82 61 ff ff
	ff		 jb	 $LL11@Partition_
$LN434@Partition_:
  00141	8b 55 d4	 mov	 edx, DWORD PTR __Glast$1$[ebp]
  00144	89 5d d0	 mov	 DWORD PTR __Gfirst$1$[ebp], ebx
  00147	89 7d cc	 mov	 DWORD PTR __Plast$1$[ebp], edi
$LN427@Partition_:

; 7500 :         for (; _First < _Glast; --_Glast) {

  0014a	8b 45 c8	 mov	 eax, DWORD PTR __First$GSCopy$1$[ebp]
  0014d	3b d0		 cmp	 edx, eax
  0014f	0f 86 bc 00 00
	00		 jbe	 $LN438@Partition_
  00155	8d 5e 04	 lea	 ebx, DWORD PTR [esi+4]
  00158	8d 7a dc	 lea	 edi, DWORD PTR [edx-36]
  0015b	0f 1f 44 00 00	 npad	 5
$LL14@Partition_:
; File D:\Metin2 Server Files\mainline\SRC_2014\Metin2Client\UserInterface\PythonGuild.cpp

; 331  : 		if (rleft.byGrade < rright.byGrade)

  00160	8a 47 1c	 mov	 al, BYTE PTR [edi+28]
  00163	3a 43 18	 cmp	 al, BYTE PTR [ebx+24]
  00166	0f 82 84 00 00
	00		 jb	 $LN12@Partition_
  0016c	0f 87 94 00 00
	00		 ja	 $LN437@Partition_
; File C:\Program Files (x86)\Microsoft Visual Studio\2019\Community\VC\Tools\MSVC\14.28.29333\include\algorithm

; 7505 :             } else if (--_Pfirst != _Prev_iter(_Glast)) {

  00172	83 ee 24	 sub	 esi, 36			; 00000024H
  00175	83 eb 24	 sub	 ebx, 36			; 00000024H
  00178	3b f7		 cmp	 esi, edi
  0017a	74 74		 je	 SHORT $LN12@Partition_
; File C:\Program Files (x86)\Microsoft Visual Studio\2019\Community\VC\Tools\MSVC\14.28.29333\include\xstring

; 2684 :         _CSTD memcpy(_My_data_mem, _Right_data_mem, _Memcpy_val_size);

  0017c	0f 10 03	 movups	 xmm0, XMMWORD PTR [ebx]
  0017f	8b 06		 mov	 eax, DWORD PTR [esi]
; File C:\Program Files (x86)\Microsoft Visual Studio\2019\Community\VC\Tools\MSVC\14.28.29333\include\utility

; 105  :     _Left    = _STD move(_Right);

  00181	8b ce		 mov	 ecx, esi
  00183	89 45 d8	 mov	 DWORD PTR __Tmp$6[ebp], eax
; File C:\Program Files (x86)\Microsoft Visual Studio\2019\Community\VC\Tools\MSVC\14.28.29333\include\xstring

; 2684 :         _CSTD memcpy(_My_data_mem, _Right_data_mem, _Memcpy_val_size);

  00186	0f 11 45 dc	 movups	 XMMWORD PTR __Tmp$6[ebp+4], xmm0
; File C:\Program Files (x86)\Microsoft Visual Studio\2019\Community\VC\Tools\MSVC\14.28.29333\include\utility

; 105  :     _Left    = _STD move(_Right);

  0018a	57		 push	 edi
; File C:\Program Files (x86)\Microsoft Visual Studio\2019\Community\VC\Tools\MSVC\14.28.29333\include\xstring

; 2684 :         _CSTD memcpy(_My_data_mem, _Right_data_mem, _Memcpy_val_size);

  0018b	f3 0f 7e 43 10	 movq	 xmm0, QWORD PTR [ebx+16]

; 4377 :         _Mypair._Myval2._Mysize = 0;

  00190	c7 43 10 00 00
	00 00		 mov	 DWORD PTR [ebx+16], 0

; 4378 :         _Mypair._Myval2._Myres  = _BUF_SIZE - 1;

  00197	c7 43 14 0f 00
	00 00		 mov	 DWORD PTR [ebx+20], 15	; 0000000fH

; 4379 :         // the _Traits::assign is last so the codegen doesn't think the char write can alias this
; 4380 :         _Traits::assign(_Mypair._Myval2._Bx._Buf[0], _Elem());

  0019e	c6 03 00	 mov	 BYTE PTR [ebx], 0
  001a1	0f b6 43 18	 movzx	 eax, BYTE PTR [ebx+24]
  001a5	88 45 f4	 mov	 BYTE PTR __Tmp$6[ebp+28], al
  001a8	0f b6 43 19	 movzx	 eax, BYTE PTR [ebx+25]
  001ac	88 45 f5	 mov	 BYTE PTR __Tmp$6[ebp+29], al
  001af	0f b6 43 1a	 movzx	 eax, BYTE PTR [ebx+26]
  001b3	88 45 f6	 mov	 BYTE PTR __Tmp$6[ebp+30], al
  001b6	0f b6 43 1b	 movzx	 eax, BYTE PTR [ebx+27]
  001ba	88 45 f7	 mov	 BYTE PTR __Tmp$6[ebp+31], al
  001bd	8b 43 1c	 mov	 eax, DWORD PTR [ebx+28]

; 2684 :         _CSTD memcpy(_My_data_mem, _Right_data_mem, _Memcpy_val_size);

  001c0	66 0f d6 45 ec	 movq	 QWORD PTR __Tmp$6[ebp+20], xmm0
  001c5	89 45 f8	 mov	 DWORD PTR __Tmp$6[ebp+32], eax
; File C:\Program Files (x86)\Microsoft Visual Studio\2019\Community\VC\Tools\MSVC\14.28.29333\include\utility

; 105  :     _Left    = _STD move(_Right);

  001c8	e8 00 00 00 00	 call	 ??4SGuildMemberData@CPythonGuild@@QAEAAU01@$$QAU01@@Z

; 106  :     _Right   = _STD move(_Tmp);

  001cd	8d 45 d8	 lea	 eax, DWORD PTR __Tmp$6[ebp]
  001d0	8b cf		 mov	 ecx, edi
  001d2	50		 push	 eax
  001d3	e8 00 00 00 00	 call	 ??4SGuildMemberData@CPythonGuild@@QAEAAU01@$$QAU01@@Z
; File C:\Program Files (x86)\Microsoft Visual Studio\2019\Community\VC\Tools\MSVC\14.28.29333\include\xstring

; 2227 :         return _BUF_SIZE <= _Myres;

  001d8	8b 45 f0	 mov	 eax, DWORD PTR __Tmp$6[ebp+24]
  001db	83 f8 10	 cmp	 eax, 16			; 00000010H

; 4385 :         if (_Mypair._Myval2._Large_string_engaged()) {

  001de	72 0d		 jb	 SHORT $LN436@Partition_

; 4386 :             const pointer _Ptr = _Mypair._Myval2._Bx._Ptr;
; 4387 :             auto& _Al          = _Getal();
; 4388 :             _Destroy_in_place(_Mypair._Myval2._Bx._Ptr);
; 4389 :             _Al.deallocate(_Ptr, _Mypair._Myval2._Myres + 1);

  001e0	40		 inc	 eax
; File C:\Program Files (x86)\Microsoft Visual Studio\2019\Community\VC\Tools\MSVC\14.28.29333\include\xmemory

; 810  :         _Deallocate<_New_alignof<_Ty>>(_Ptr, sizeof(_Ty) * _Count);

  001e1	50		 push	 eax
  001e2	ff 75 dc	 push	 DWORD PTR __Tmp$6[ebp+4]
  001e5	e8 00 00 00 00	 call	 ??$_Deallocate@$07$0A@@std@@YAXPAXI@Z ; std::_Deallocate<8,0>
  001ea	83 c4 08	 add	 esp, 8
$LN436@Partition_:
; File C:\Program Files (x86)\Microsoft Visual Studio\2019\Community\VC\Tools\MSVC\14.28.29333\include\algorithm

; 7500 :         for (; _First < _Glast; --_Glast) {

  001ed	8b 55 d4	 mov	 edx, DWORD PTR __Glast$1$[ebp]
$LN12@Partition_:
  001f0	8b 45 c8	 mov	 eax, DWORD PTR __First$GSCopy$1$[ebp]
  001f3	83 ea 24	 sub	 edx, 36			; 00000024H
  001f6	83 ef 24	 sub	 edi, 36			; 00000024H
  001f9	89 55 d4	 mov	 DWORD PTR __Glast$1$[ebp], edx
  001fc	3b c2		 cmp	 eax, edx
  001fe	0f 82 5c ff ff
	ff		 jb	 $LL14@Partition_
; File D:\Metin2 Server Files\mainline\SRC_2014\Metin2Client\UserInterface\PythonGuild.cpp

; 331  : 		if (rleft.byGrade < rright.byGrade)

  00204	eb 03		 jmp	 SHORT $LN435@Partition_
$LN437@Partition_:
  00206	8b 45 c8	 mov	 eax, DWORD PTR __First$GSCopy$1$[ebp]
$LN435@Partition_:
  00209	8b 7d cc	 mov	 edi, DWORD PTR __Plast$1$[ebp]
; File C:\Program Files (x86)\Microsoft Visual Studio\2019\Community\VC\Tools\MSVC\14.28.29333\include\algorithm

; 7510 :         if (_Glast == _First && _Gfirst == _Last) {

  0020c	3b d0		 cmp	 edx, eax
  0020e	8b 5d d0	 mov	 ebx, DWORD PTR __Gfirst$1$[ebp]
$LN438@Partition_:
  00211	0f 85 80 01 00
	00		 jne	 $LN27@Partition_
  00217	3b 5d c4	 cmp	 ebx, DWORD PTR __Last$GSCopy$1$[ebp]
  0021a	0f 84 76 04 00
	00		 je	 $LN400@Partition_

; 7512 :         }
; 7513 : 
; 7514 :         if (_Glast == _First) { // no room at bottom, rotate pivot upward
; 7515 :             if (_Plast != _Gfirst) {

  00220	3b fb		 cmp	 edi, ebx
  00222	0f 84 e8 00 00
	00		 je	 $LN182@Partition_
; File C:\Program Files (x86)\Microsoft Visual Studio\2019\Community\VC\Tools\MSVC\14.28.29333\include\xstring

; 2684 :         _CSTD memcpy(_My_data_mem, _Right_data_mem, _Memcpy_val_size);

  00228	0f 10 46 04	 movups	 xmm0, XMMWORD PTR [esi+4]
  0022c	8b 06		 mov	 eax, DWORD PTR [esi]
  0022e	8d 4e 04	 lea	 ecx, DWORD PTR [esi+4]
  00231	89 45 d8	 mov	 DWORD PTR __Tmp$5[ebp], eax
  00234	0f 11 45 dc	 movups	 XMMWORD PTR __Tmp$5[ebp+4], xmm0
  00238	f3 0f 7e 41 10	 movq	 xmm0, QWORD PTR [ecx+16]

; 4377 :         _Mypair._Myval2._Mysize = 0;

  0023d	c7 41 10 00 00
	00 00		 mov	 DWORD PTR [ecx+16], 0

; 4378 :         _Mypair._Myval2._Myres  = _BUF_SIZE - 1;

  00244	c7 41 14 0f 00
	00 00		 mov	 DWORD PTR [ecx+20], 15	; 0000000fH

; 4379 :         // the _Traits::assign is last so the codegen doesn't think the char write can alias this
; 4380 :         _Traits::assign(_Mypair._Myval2._Bx._Buf[0], _Elem());

  0024b	c6 01 00	 mov	 BYTE PTR [ecx], 0
  0024e	0f b6 46 1c	 movzx	 eax, BYTE PTR [esi+28]
  00252	88 45 f4	 mov	 BYTE PTR __Tmp$5[ebp+28], al
  00255	0f b6 46 1d	 movzx	 eax, BYTE PTR [esi+29]
  00259	88 45 f5	 mov	 BYTE PTR __Tmp$5[ebp+29], al
  0025c	0f b6 46 1e	 movzx	 eax, BYTE PTR [esi+30]
  00260	88 45 f6	 mov	 BYTE PTR __Tmp$5[ebp+30], al
  00263	0f b6 46 1f	 movzx	 eax, BYTE PTR [esi+31]
  00267	88 45 f7	 mov	 BYTE PTR __Tmp$5[ebp+31], al
  0026a	8b 46 20	 mov	 eax, DWORD PTR [esi+32]
  0026d	89 45 f8	 mov	 DWORD PTR __Tmp$5[ebp+32], eax
  00270	8b 07		 mov	 eax, DWORD PTR [edi]
  00272	89 06		 mov	 DWORD PTR [esi], eax
  00274	8d 47 04	 lea	 eax, DWORD PTR [edi+4]

; 2684 :         _CSTD memcpy(_My_data_mem, _Right_data_mem, _Memcpy_val_size);

  00277	66 0f d6 45 ec	 movq	 QWORD PTR __Tmp$5[ebp+20], xmm0

; 2665 :         if (this != _STD addressof(_Right)) {

  0027c	3b c8		 cmp	 ecx, eax
  0027e	74 4e		 je	 SHORT $LN174@Partition_

; 2227 :         return _BUF_SIZE <= _Myres;

  00280	8b 51 14	 mov	 edx, DWORD PTR [ecx+20]
  00283	83 fa 10	 cmp	 edx, 16			; 00000010H

; 4385 :         if (_Mypair._Myval2._Large_string_engaged()) {

  00286	72 14		 jb	 SHORT $LN163@Partition_

; 4386 :             const pointer _Ptr = _Mypair._Myval2._Bx._Ptr;
; 4387 :             auto& _Al          = _Getal();
; 4388 :             _Destroy_in_place(_Mypair._Myval2._Bx._Ptr);
; 4389 :             _Al.deallocate(_Ptr, _Mypair._Myval2._Myres + 1);

  00288	8d 42 01	 lea	 eax, DWORD PTR [edx+1]
; File C:\Program Files (x86)\Microsoft Visual Studio\2019\Community\VC\Tools\MSVC\14.28.29333\include\xmemory

; 810  :         _Deallocate<_New_alignof<_Ty>>(_Ptr, sizeof(_Ty) * _Count);

  0028b	50		 push	 eax
  0028c	ff 31		 push	 DWORD PTR [ecx]
  0028e	e8 00 00 00 00	 call	 ??$_Deallocate@$07$0A@@std@@YAXPAXI@Z ; std::_Deallocate<8,0>
  00293	83 c4 08	 add	 esp, 8
  00296	8d 4e 04	 lea	 ecx, DWORD PTR [esi+4]
  00299	8d 47 04	 lea	 eax, DWORD PTR [edi+4]
$LN163@Partition_:
; File C:\Program Files (x86)\Microsoft Visual Studio\2019\Community\VC\Tools\MSVC\14.28.29333\include\xstring

; 4392 :         _Mypair._Myval2._Mysize = 0;

  0029c	c7 41 10 00 00
	00 00		 mov	 DWORD PTR [ecx+16], 0

; 4393 :         _Mypair._Myval2._Myres  = _BUF_SIZE - 1;

  002a3	c7 41 14 0f 00
	00 00		 mov	 DWORD PTR [ecx+20], 15	; 0000000fH

; 4394 :         // the _Traits::assign is last so the codegen doesn't think the char write can alias this
; 4395 :         _Traits::assign(_Mypair._Myval2._Bx._Buf[0], _Elem());

  002aa	c6 01 00	 mov	 BYTE PTR [ecx], 0

; 2684 :         _CSTD memcpy(_My_data_mem, _Right_data_mem, _Memcpy_val_size);

  002ad	0f 10 00	 movups	 xmm0, XMMWORD PTR [eax]
  002b0	0f 11 01	 movups	 XMMWORD PTR [ecx], xmm0
  002b3	f3 0f 7e 40 10	 movq	 xmm0, QWORD PTR [eax+16]
  002b8	66 0f d6 41 10	 movq	 QWORD PTR [ecx+16], xmm0

; 4377 :         _Mypair._Myval2._Mysize = 0;

  002bd	c7 40 10 00 00
	00 00		 mov	 DWORD PTR [eax+16], 0

; 4378 :         _Mypair._Myval2._Myres  = _BUF_SIZE - 1;

  002c4	c7 40 14 0f 00
	00 00		 mov	 DWORD PTR [eax+20], 15	; 0000000fH

; 4379 :         // the _Traits::assign is last so the codegen doesn't think the char write can alias this
; 4380 :         _Traits::assign(_Mypair._Myval2._Bx._Buf[0], _Elem());

  002cb	c6 00 00	 mov	 BYTE PTR [eax], 0
$LN174@Partition_:
  002ce	0f b6 47 1c	 movzx	 eax, BYTE PTR [edi+28]
; File C:\Program Files (x86)\Microsoft Visual Studio\2019\Community\VC\Tools\MSVC\14.28.29333\include\utility

; 106  :     _Right   = _STD move(_Tmp);

  002d2	8b cf		 mov	 ecx, edi
  002d4	88 46 1c	 mov	 BYTE PTR [esi+28], al
  002d7	0f b6 47 1d	 movzx	 eax, BYTE PTR [edi+29]
  002db	88 46 1d	 mov	 BYTE PTR [esi+29], al
  002de	0f b6 47 1e	 movzx	 eax, BYTE PTR [edi+30]
  002e2	88 46 1e	 mov	 BYTE PTR [esi+30], al
  002e5	0f b6 47 1f	 movzx	 eax, BYTE PTR [edi+31]
  002e9	88 46 1f	 mov	 BYTE PTR [esi+31], al
  002ec	8b 47 20	 mov	 eax, DWORD PTR [edi+32]
  002ef	89 46 20	 mov	 DWORD PTR [esi+32], eax
  002f2	8d 45 d8	 lea	 eax, DWORD PTR __Tmp$5[ebp]
  002f5	50		 push	 eax
  002f6	e8 00 00 00 00	 call	 ??4SGuildMemberData@CPythonGuild@@QAEAAU01@$$QAU01@@Z
; File C:\Program Files (x86)\Microsoft Visual Studio\2019\Community\VC\Tools\MSVC\14.28.29333\include\xstring

; 2227 :         return _BUF_SIZE <= _Myres;

  002fb	8b 45 f0	 mov	 eax, DWORD PTR __Tmp$5[ebp+24]
  002fe	83 f8 10	 cmp	 eax, 16			; 00000010H

; 4385 :         if (_Mypair._Myval2._Large_string_engaged()) {

  00301	72 0d		 jb	 SHORT $LN182@Partition_

; 4386 :             const pointer _Ptr = _Mypair._Myval2._Bx._Ptr;
; 4387 :             auto& _Al          = _Getal();
; 4388 :             _Destroy_in_place(_Mypair._Myval2._Bx._Ptr);
; 4389 :             _Al.deallocate(_Ptr, _Mypair._Myval2._Myres + 1);

  00303	40		 inc	 eax
; File C:\Program Files (x86)\Microsoft Visual Studio\2019\Community\VC\Tools\MSVC\14.28.29333\include\xmemory

; 810  :         _Deallocate<_New_alignof<_Ty>>(_Ptr, sizeof(_Ty) * _Count);

  00304	50		 push	 eax
  00305	ff 75 dc	 push	 DWORD PTR __Tmp$5[ebp+4]
  00308	e8 00 00 00 00	 call	 ??$_Deallocate@$07$0A@@std@@YAXPAXI@Z ; std::_Deallocate<8,0>
  0030d	83 c4 08	 add	 esp, 8
$LN182@Partition_:
; File C:\Program Files (x86)\Microsoft Visual Studio\2019\Community\VC\Tools\MSVC\14.28.29333\include\xstring

; 2684 :         _CSTD memcpy(_My_data_mem, _Right_data_mem, _Memcpy_val_size);

  00310	0f 10 46 04	 movups	 xmm0, XMMWORD PTR [esi+4]
  00314	8b 06		 mov	 eax, DWORD PTR [esi]
; File C:\Program Files (x86)\Microsoft Visual Studio\2019\Community\VC\Tools\MSVC\14.28.29333\include\algorithm

; 7519 :             ++_Plast;

  00316	83 c7 24	 add	 edi, 36			; 00000024H
  00319	89 45 d8	 mov	 DWORD PTR __Tmp$4[ebp], eax
; File C:\Program Files (x86)\Microsoft Visual Studio\2019\Community\VC\Tools\MSVC\14.28.29333\include\utility

; 105  :     _Left    = _STD move(_Right);

  0031c	8b ce		 mov	 ecx, esi
; File C:\Program Files (x86)\Microsoft Visual Studio\2019\Community\VC\Tools\MSVC\14.28.29333\include\xstring

; 2684 :         _CSTD memcpy(_My_data_mem, _Right_data_mem, _Memcpy_val_size);

  0031e	0f 11 45 dc	 movups	 XMMWORD PTR __Tmp$4[ebp+4], xmm0
; File C:\Program Files (x86)\Microsoft Visual Studio\2019\Community\VC\Tools\MSVC\14.28.29333\include\utility

; 105  :     _Left    = _STD move(_Right);

  00322	53		 push	 ebx
; File C:\Program Files (x86)\Microsoft Visual Studio\2019\Community\VC\Tools\MSVC\14.28.29333\include\xstring

; 2684 :         _CSTD memcpy(_My_data_mem, _Right_data_mem, _Memcpy_val_size);

  00323	f3 0f 7e 46 14	 movq	 xmm0, QWORD PTR [esi+20]

; 4377 :         _Mypair._Myval2._Mysize = 0;

  00328	c7 46 14 00 00
	00 00		 mov	 DWORD PTR [esi+20], 0

; 4378 :         _Mypair._Myval2._Myres  = _BUF_SIZE - 1;

  0032f	c7 46 18 0f 00
	00 00		 mov	 DWORD PTR [esi+24], 15	; 0000000fH

; 4379 :         // the _Traits::assign is last so the codegen doesn't think the char write can alias this
; 4380 :         _Traits::assign(_Mypair._Myval2._Bx._Buf[0], _Elem());

  00336	c6 46 04 00	 mov	 BYTE PTR [esi+4], 0
  0033a	0f b6 46 1c	 movzx	 eax, BYTE PTR [esi+28]
  0033e	88 45 f4	 mov	 BYTE PTR __Tmp$4[ebp+28], al
  00341	0f b6 46 1d	 movzx	 eax, BYTE PTR [esi+29]
  00345	88 45 f5	 mov	 BYTE PTR __Tmp$4[ebp+29], al
  00348	0f b6 46 1e	 movzx	 eax, BYTE PTR [esi+30]
  0034c	88 45 f6	 mov	 BYTE PTR __Tmp$4[ebp+30], al
  0034f	0f b6 46 1f	 movzx	 eax, BYTE PTR [esi+31]
  00353	88 45 f7	 mov	 BYTE PTR __Tmp$4[ebp+31], al
  00356	8b 46 20	 mov	 eax, DWORD PTR [esi+32]
; File C:\Program Files (x86)\Microsoft Visual Studio\2019\Community\VC\Tools\MSVC\14.28.29333\include\algorithm

; 7519 :             ++_Plast;

  00359	89 7d cc	 mov	 DWORD PTR __Plast$1$[ebp], edi
; File C:\Program Files (x86)\Microsoft Visual Studio\2019\Community\VC\Tools\MSVC\14.28.29333\include\xstring

; 2684 :         _CSTD memcpy(_My_data_mem, _Right_data_mem, _Memcpy_val_size);

  0035c	66 0f d6 45 ec	 movq	 QWORD PTR __Tmp$4[ebp+20], xmm0
  00361	89 45 f8	 mov	 DWORD PTR __Tmp$4[ebp+32], eax
; File C:\Program Files (x86)\Microsoft Visual Studio\2019\Community\VC\Tools\MSVC\14.28.29333\include\utility

; 105  :     _Left    = _STD move(_Right);

  00364	e8 00 00 00 00	 call	 ??4SGuildMemberData@CPythonGuild@@QAEAAU01@$$QAU01@@Z

; 106  :     _Right   = _STD move(_Tmp);

  00369	8d 45 d8	 lea	 eax, DWORD PTR __Tmp$4[ebp]
  0036c	8b cb		 mov	 ecx, ebx
  0036e	50		 push	 eax
  0036f	e8 00 00 00 00	 call	 ??4SGuildMemberData@CPythonGuild@@QAEAAU01@$$QAU01@@Z
; File C:\Program Files (x86)\Microsoft Visual Studio\2019\Community\VC\Tools\MSVC\14.28.29333\include\xstring

; 2227 :         return _BUF_SIZE <= _Myres;

  00374	8b 45 f0	 mov	 eax, DWORD PTR __Tmp$4[ebp+24]
  00377	83 f8 10	 cmp	 eax, 16			; 00000010H

; 4385 :         if (_Mypair._Myval2._Large_string_engaged()) {

  0037a	72 0d		 jb	 SHORT $LN218@Partition_

; 4386 :             const pointer _Ptr = _Mypair._Myval2._Bx._Ptr;
; 4387 :             auto& _Al          = _Getal();
; 4388 :             _Destroy_in_place(_Mypair._Myval2._Bx._Ptr);
; 4389 :             _Al.deallocate(_Ptr, _Mypair._Myval2._Myres + 1);

  0037c	40		 inc	 eax
; File C:\Program Files (x86)\Microsoft Visual Studio\2019\Community\VC\Tools\MSVC\14.28.29333\include\xmemory

; 810  :         _Deallocate<_New_alignof<_Ty>>(_Ptr, sizeof(_Ty) * _Count);

  0037d	50		 push	 eax
  0037e	ff 75 dc	 push	 DWORD PTR __Tmp$4[ebp+4]
  00381	e8 00 00 00 00	 call	 ??$_Deallocate@$07$0A@@std@@YAXPAXI@Z ; std::_Deallocate<8,0>
  00386	83 c4 08	 add	 esp, 8
$LN218@Partition_:
; File C:\Program Files (x86)\Microsoft Visual Studio\2019\Community\VC\Tools\MSVC\14.28.29333\include\algorithm

; 7522 :             ++_Gfirst;

  00389	8b 55 d4	 mov	 edx, DWORD PTR __Glast$1$[ebp]
  0038c	83 c6 24	 add	 esi, 36			; 00000024H
  0038f	83 c3 24	 add	 ebx, 36			; 00000024H
  00392	e9 f9 fc ff ff	 jmp	 $LN439@Partition_
$LN27@Partition_:

; 7523 :         } else if (_Gfirst == _Last) { // no room at top, rotate pivot downward

  00397	83 c2 dc	 add	 edx, -36		; ffffffdcH
  0039a	89 55 d4	 mov	 DWORD PTR __Glast$1$[ebp], edx
  0039d	3b 5d c4	 cmp	 ebx, DWORD PTR __Last$GSCopy$1$[ebp]
  003a0	0f 85 f5 01 00
	00		 jne	 $LN30@Partition_

; 7524 :             if (--_Glast != --_Pfirst) {

  003a6	83 ee 24	 sub	 esi, 36			; 00000024H
  003a9	3b d6		 cmp	 edx, esi
  003ab	0f 84 ed 00 00
	00		 je	 $LN274@Partition_
; File C:\Program Files (x86)\Microsoft Visual Studio\2019\Community\VC\Tools\MSVC\14.28.29333\include\xstring

; 2684 :         _CSTD memcpy(_My_data_mem, _Right_data_mem, _Memcpy_val_size);

  003b1	0f 10 42 04	 movups	 xmm0, XMMWORD PTR [edx+4]
  003b5	8b 02		 mov	 eax, DWORD PTR [edx]
  003b7	8d 4a 04	 lea	 ecx, DWORD PTR [edx+4]
  003ba	89 45 d8	 mov	 DWORD PTR __Tmp$3[ebp], eax
  003bd	0f 11 45 dc	 movups	 XMMWORD PTR __Tmp$3[ebp+4], xmm0
  003c1	89 4d cc	 mov	 DWORD PTR _this$1$[ebp], ecx
  003c4	f3 0f 7e 41 10	 movq	 xmm0, QWORD PTR [ecx+16]

; 4377 :         _Mypair._Myval2._Mysize = 0;

  003c9	c7 41 10 00 00
	00 00		 mov	 DWORD PTR [ecx+16], 0

; 4378 :         _Mypair._Myval2._Myres  = _BUF_SIZE - 1;

  003d0	c7 41 14 0f 00
	00 00		 mov	 DWORD PTR [ecx+20], 15	; 0000000fH

; 4379 :         // the _Traits::assign is last so the codegen doesn't think the char write can alias this
; 4380 :         _Traits::assign(_Mypair._Myval2._Bx._Buf[0], _Elem());

  003d7	c6 01 00	 mov	 BYTE PTR [ecx], 0
  003da	0f b6 42 1c	 movzx	 eax, BYTE PTR [edx+28]
  003de	88 45 f4	 mov	 BYTE PTR __Tmp$3[ebp+28], al
  003e1	0f b6 42 1d	 movzx	 eax, BYTE PTR [edx+29]
  003e5	88 45 f5	 mov	 BYTE PTR __Tmp$3[ebp+29], al
  003e8	0f b6 42 1e	 movzx	 eax, BYTE PTR [edx+30]
  003ec	88 45 f6	 mov	 BYTE PTR __Tmp$3[ebp+30], al
  003ef	0f b6 42 1f	 movzx	 eax, BYTE PTR [edx+31]
  003f3	88 45 f7	 mov	 BYTE PTR __Tmp$3[ebp+31], al
  003f6	8b 42 20	 mov	 eax, DWORD PTR [edx+32]
  003f9	89 45 f8	 mov	 DWORD PTR __Tmp$3[ebp+32], eax
  003fc	8b 06		 mov	 eax, DWORD PTR [esi]
  003fe	89 02		 mov	 DWORD PTR [edx], eax
  00400	8d 46 04	 lea	 eax, DWORD PTR [esi+4]

; 2684 :         _CSTD memcpy(_My_data_mem, _Right_data_mem, _Memcpy_val_size);

  00403	66 0f d6 45 ec	 movq	 QWORD PTR __Tmp$3[ebp+20], xmm0

; 2665 :         if (this != _STD addressof(_Right)) {

  00408	3b c8		 cmp	 ecx, eax
  0040a	74 50		 je	 SHORT $LN266@Partition_

; 2227 :         return _BUF_SIZE <= _Myres;

  0040c	83 79 14 10	 cmp	 DWORD PTR [ecx+20], 16	; 00000010H

; 4385 :         if (_Mypair._Myval2._Large_string_engaged()) {

  00410	72 18		 jb	 SHORT $LN255@Partition_

; 4386 :             const pointer _Ptr = _Mypair._Myval2._Bx._Ptr;
; 4387 :             auto& _Al          = _Getal();
; 4388 :             _Destroy_in_place(_Mypair._Myval2._Bx._Ptr);
; 4389 :             _Al.deallocate(_Ptr, _Mypair._Myval2._Myres + 1);

  00412	8b 41 14	 mov	 eax, DWORD PTR [ecx+20]
  00415	40		 inc	 eax
; File C:\Program Files (x86)\Microsoft Visual Studio\2019\Community\VC\Tools\MSVC\14.28.29333\include\xmemory

; 810  :         _Deallocate<_New_alignof<_Ty>>(_Ptr, sizeof(_Ty) * _Count);

  00416	50		 push	 eax
  00417	ff 31		 push	 DWORD PTR [ecx]
  00419	e8 00 00 00 00	 call	 ??$_Deallocate@$07$0A@@std@@YAXPAXI@Z ; std::_Deallocate<8,0>
  0041e	8b 55 d4	 mov	 edx, DWORD PTR __Glast$1$[ebp]
  00421	8d 46 04	 lea	 eax, DWORD PTR [esi+4]
  00424	8b 4d cc	 mov	 ecx, DWORD PTR _this$1$[ebp]
  00427	83 c4 08	 add	 esp, 8
$LN255@Partition_:
; File C:\Program Files (x86)\Microsoft Visual Studio\2019\Community\VC\Tools\MSVC\14.28.29333\include\xstring

; 4392 :         _Mypair._Myval2._Mysize = 0;

  0042a	c7 41 10 00 00
	00 00		 mov	 DWORD PTR [ecx+16], 0

; 4393 :         _Mypair._Myval2._Myres  = _BUF_SIZE - 1;

  00431	c7 41 14 0f 00
	00 00		 mov	 DWORD PTR [ecx+20], 15	; 0000000fH

; 4394 :         // the _Traits::assign is last so the codegen doesn't think the char write can alias this
; 4395 :         _Traits::assign(_Mypair._Myval2._Bx._Buf[0], _Elem());

  00438	c6 01 00	 mov	 BYTE PTR [ecx], 0

; 2684 :         _CSTD memcpy(_My_data_mem, _Right_data_mem, _Memcpy_val_size);

  0043b	0f 10 00	 movups	 xmm0, XMMWORD PTR [eax]
  0043e	0f 11 01	 movups	 XMMWORD PTR [ecx], xmm0
  00441	f3 0f 7e 40 10	 movq	 xmm0, QWORD PTR [eax+16]
  00446	66 0f d6 41 10	 movq	 QWORD PTR [ecx+16], xmm0

; 4377 :         _Mypair._Myval2._Mysize = 0;

  0044b	c7 40 10 00 00
	00 00		 mov	 DWORD PTR [eax+16], 0

; 4378 :         _Mypair._Myval2._Myres  = _BUF_SIZE - 1;

  00452	c7 40 14 0f 00
	00 00		 mov	 DWORD PTR [eax+20], 15	; 0000000fH

; 4379 :         // the _Traits::assign is last so the codegen doesn't think the char write can alias this
; 4380 :         _Traits::assign(_Mypair._Myval2._Bx._Buf[0], _Elem());

  00459	c6 00 00	 mov	 BYTE PTR [eax], 0
$LN266@Partition_:
  0045c	0f b6 46 1c	 movzx	 eax, BYTE PTR [esi+28]
; File C:\Program Files (x86)\Microsoft Visual Studio\2019\Community\VC\Tools\MSVC\14.28.29333\include\utility

; 106  :     _Right   = _STD move(_Tmp);

  00460	8b ce		 mov	 ecx, esi
  00462	88 42 1c	 mov	 BYTE PTR [edx+28], al
  00465	0f b6 46 1d	 movzx	 eax, BYTE PTR [esi+29]
  00469	88 42 1d	 mov	 BYTE PTR [edx+29], al
  0046c	0f b6 46 1e	 movzx	 eax, BYTE PTR [esi+30]
  00470	88 42 1e	 mov	 BYTE PTR [edx+30], al
  00473	0f b6 46 1f	 movzx	 eax, BYTE PTR [esi+31]
  00477	88 42 1f	 mov	 BYTE PTR [edx+31], al
  0047a	8b 46 20	 mov	 eax, DWORD PTR [esi+32]
  0047d	89 42 20	 mov	 DWORD PTR [edx+32], eax
  00480	8d 45 d8	 lea	 eax, DWORD PTR __Tmp$3[ebp]
  00483	50		 push	 eax
  00484	e8 00 00 00 00	 call	 ??4SGuildMemberData@CPythonGuild@@QAEAAU01@$$QAU01@@Z
; File C:\Program Files (x86)\Microsoft Visual Studio\2019\Community\VC\Tools\MSVC\14.28.29333\include\xstring

; 2227 :         return _BUF_SIZE <= _Myres;

  00489	8b 45 f0	 mov	 eax, DWORD PTR __Tmp$3[ebp+24]
  0048c	83 f8 10	 cmp	 eax, 16			; 00000010H

; 4385 :         if (_Mypair._Myval2._Large_string_engaged()) {

  0048f	72 0d		 jb	 SHORT $LN274@Partition_

; 4386 :             const pointer _Ptr = _Mypair._Myval2._Bx._Ptr;
; 4387 :             auto& _Al          = _Getal();
; 4388 :             _Destroy_in_place(_Mypair._Myval2._Bx._Ptr);
; 4389 :             _Al.deallocate(_Ptr, _Mypair._Myval2._Myres + 1);

  00491	40		 inc	 eax
; File C:\Program Files (x86)\Microsoft Visual Studio\2019\Community\VC\Tools\MSVC\14.28.29333\include\xmemory

; 810  :         _Deallocate<_New_alignof<_Ty>>(_Ptr, sizeof(_Ty) * _Count);

  00492	50		 push	 eax
  00493	ff 75 dc	 push	 DWORD PTR __Tmp$3[ebp+4]
  00496	e8 00 00 00 00	 call	 ??$_Deallocate@$07$0A@@std@@YAXPAXI@Z ; std::_Deallocate<8,0>
  0049b	83 c4 08	 add	 esp, 8
$LN274@Partition_:
; File C:\Program Files (x86)\Microsoft Visual Studio\2019\Community\VC\Tools\MSVC\14.28.29333\include\xstring

; 2684 :         _CSTD memcpy(_My_data_mem, _Right_data_mem, _Memcpy_val_size);

  0049e	0f 10 46 04	 movups	 xmm0, XMMWORD PTR [esi+4]
  004a2	8b 06		 mov	 eax, DWORD PTR [esi]
  004a4	8d 4e 04	 lea	 ecx, DWORD PTR [esi+4]
  004a7	89 45 d8	 mov	 DWORD PTR __Tmp$2[ebp], eax
; File C:\Program Files (x86)\Microsoft Visual Studio\2019\Community\VC\Tools\MSVC\14.28.29333\include\algorithm

; 7528 :             _STD iter_swap(_Pfirst, --_Plast);

  004aa	83 ef 24	 sub	 edi, 36			; 00000024H
; File C:\Program Files (x86)\Microsoft Visual Studio\2019\Community\VC\Tools\MSVC\14.28.29333\include\xstring

; 2684 :         _CSTD memcpy(_My_data_mem, _Right_data_mem, _Memcpy_val_size);

  004ad	0f 11 45 dc	 movups	 XMMWORD PTR __Tmp$2[ebp+4], xmm0
; File C:\Program Files (x86)\Microsoft Visual Studio\2019\Community\VC\Tools\MSVC\14.28.29333\include\algorithm

; 7528 :             _STD iter_swap(_Pfirst, --_Plast);

  004b1	89 7d cc	 mov	 DWORD PTR __Plast$1$[ebp], edi
; File C:\Program Files (x86)\Microsoft Visual Studio\2019\Community\VC\Tools\MSVC\14.28.29333\include\xstring

; 2684 :         _CSTD memcpy(_My_data_mem, _Right_data_mem, _Memcpy_val_size);

  004b4	f3 0f 7e 41 10	 movq	 xmm0, QWORD PTR [ecx+16]

; 4377 :         _Mypair._Myval2._Mysize = 0;

  004b9	c7 41 10 00 00
	00 00		 mov	 DWORD PTR [ecx+16], 0

; 4378 :         _Mypair._Myval2._Myres  = _BUF_SIZE - 1;

  004c0	c7 41 14 0f 00
	00 00		 mov	 DWORD PTR [ecx+20], 15	; 0000000fH

; 4379 :         // the _Traits::assign is last so the codegen doesn't think the char write can alias this
; 4380 :         _Traits::assign(_Mypair._Myval2._Bx._Buf[0], _Elem());

  004c7	c6 01 00	 mov	 BYTE PTR [ecx], 0
  004ca	0f b6 46 1c	 movzx	 eax, BYTE PTR [esi+28]
  004ce	88 45 f4	 mov	 BYTE PTR __Tmp$2[ebp+28], al
  004d1	0f b6 46 1d	 movzx	 eax, BYTE PTR [esi+29]
  004d5	88 45 f5	 mov	 BYTE PTR __Tmp$2[ebp+29], al
  004d8	0f b6 46 1e	 movzx	 eax, BYTE PTR [esi+30]
  004dc	88 45 f6	 mov	 BYTE PTR __Tmp$2[ebp+30], al
  004df	0f b6 46 1f	 movzx	 eax, BYTE PTR [esi+31]
  004e3	88 45 f7	 mov	 BYTE PTR __Tmp$2[ebp+31], al
  004e6	8b 46 20	 mov	 eax, DWORD PTR [esi+32]
  004e9	89 45 f8	 mov	 DWORD PTR __Tmp$2[ebp+32], eax
  004ec	8b 07		 mov	 eax, DWORD PTR [edi]
  004ee	89 06		 mov	 DWORD PTR [esi], eax
  004f0	8d 47 04	 lea	 eax, DWORD PTR [edi+4]

; 2684 :         _CSTD memcpy(_My_data_mem, _Right_data_mem, _Memcpy_val_size);

  004f3	66 0f d6 45 ec	 movq	 QWORD PTR __Tmp$2[ebp+20], xmm0

; 2665 :         if (this != _STD addressof(_Right)) {

  004f8	3b c8		 cmp	 ecx, eax
  004fa	74 4e		 je	 SHORT $LN322@Partition_

; 2227 :         return _BUF_SIZE <= _Myres;

  004fc	8b 51 14	 mov	 edx, DWORD PTR [ecx+20]
  004ff	83 fa 10	 cmp	 edx, 16			; 00000010H

; 4385 :         if (_Mypair._Myval2._Large_string_engaged()) {

  00502	72 14		 jb	 SHORT $LN311@Partition_

; 4386 :             const pointer _Ptr = _Mypair._Myval2._Bx._Ptr;
; 4387 :             auto& _Al          = _Getal();
; 4388 :             _Destroy_in_place(_Mypair._Myval2._Bx._Ptr);
; 4389 :             _Al.deallocate(_Ptr, _Mypair._Myval2._Myres + 1);

  00504	8d 42 01	 lea	 eax, DWORD PTR [edx+1]
; File C:\Program Files (x86)\Microsoft Visual Studio\2019\Community\VC\Tools\MSVC\14.28.29333\include\xmemory

; 810  :         _Deallocate<_New_alignof<_Ty>>(_Ptr, sizeof(_Ty) * _Count);

  00507	50		 push	 eax
  00508	ff 31		 push	 DWORD PTR [ecx]
  0050a	e8 00 00 00 00	 call	 ??$_Deallocate@$07$0A@@std@@YAXPAXI@Z ; std::_Deallocate<8,0>
  0050f	83 c4 08	 add	 esp, 8
  00512	8d 4e 04	 lea	 ecx, DWORD PTR [esi+4]
  00515	8d 47 04	 lea	 eax, DWORD PTR [edi+4]
$LN311@Partition_:
; File C:\Program Files (x86)\Microsoft Visual Studio\2019\Community\VC\Tools\MSVC\14.28.29333\include\xstring

; 4392 :         _Mypair._Myval2._Mysize = 0;

  00518	c7 41 10 00 00
	00 00		 mov	 DWORD PTR [ecx+16], 0

; 4393 :         _Mypair._Myval2._Myres  = _BUF_SIZE - 1;

  0051f	c7 41 14 0f 00
	00 00		 mov	 DWORD PTR [ecx+20], 15	; 0000000fH

; 4394 :         // the _Traits::assign is last so the codegen doesn't think the char write can alias this
; 4395 :         _Traits::assign(_Mypair._Myval2._Bx._Buf[0], _Elem());

  00526	c6 01 00	 mov	 BYTE PTR [ecx], 0

; 2684 :         _CSTD memcpy(_My_data_mem, _Right_data_mem, _Memcpy_val_size);

  00529	0f 10 00	 movups	 xmm0, XMMWORD PTR [eax]
  0052c	0f 11 01	 movups	 XMMWORD PTR [ecx], xmm0
  0052f	f3 0f 7e 40 10	 movq	 xmm0, QWORD PTR [eax+16]
  00534	66 0f d6 41 10	 movq	 QWORD PTR [ecx+16], xmm0

; 4377 :         _Mypair._Myval2._Mysize = 0;

  00539	c7 40 10 00 00
	00 00		 mov	 DWORD PTR [eax+16], 0

; 4378 :         _Mypair._Myval2._Myres  = _BUF_SIZE - 1;

  00540	c7 40 14 0f 00
	00 00		 mov	 DWORD PTR [eax+20], 15	; 0000000fH

; 4379 :         // the _Traits::assign is last so the codegen doesn't think the char write can alias this
; 4380 :         _Traits::assign(_Mypair._Myval2._Bx._Buf[0], _Elem());

  00547	c6 00 00	 mov	 BYTE PTR [eax], 0
$LN322@Partition_:
  0054a	0f b6 47 1c	 movzx	 eax, BYTE PTR [edi+28]
; File C:\Program Files (x86)\Microsoft Visual Studio\2019\Community\VC\Tools\MSVC\14.28.29333\include\utility

; 106  :     _Right   = _STD move(_Tmp);

  0054e	8b cf		 mov	 ecx, edi
  00550	88 46 1c	 mov	 BYTE PTR [esi+28], al
  00553	0f b6 47 1d	 movzx	 eax, BYTE PTR [edi+29]
  00557	88 46 1d	 mov	 BYTE PTR [esi+29], al
  0055a	0f b6 47 1e	 movzx	 eax, BYTE PTR [edi+30]
  0055e	88 46 1e	 mov	 BYTE PTR [esi+30], al
  00561	0f b6 47 1f	 movzx	 eax, BYTE PTR [edi+31]
  00565	88 46 1f	 mov	 BYTE PTR [esi+31], al
  00568	8b 47 20	 mov	 eax, DWORD PTR [edi+32]
  0056b	89 46 20	 mov	 DWORD PTR [esi+32], eax
  0056e	8d 45 d8	 lea	 eax, DWORD PTR __Tmp$2[ebp]
  00571	50		 push	 eax
  00572	e8 00 00 00 00	 call	 ??4SGuildMemberData@CPythonGuild@@QAEAAU01@$$QAU01@@Z
; File C:\Program Files (x86)\Microsoft Visual Studio\2019\Community\VC\Tools\MSVC\14.28.29333\include\xstring

; 2227 :         return _BUF_SIZE <= _Myres;

  00577	8b 45 f0	 mov	 eax, DWORD PTR __Tmp$2[ebp+24]

; 4385 :         if (_Mypair._Myval2._Large_string_engaged()) {

  0057a	8b 55 d4	 mov	 edx, DWORD PTR __Glast$1$[ebp]

; 2227 :         return _BUF_SIZE <= _Myres;

  0057d	83 f8 10	 cmp	 eax, 16			; 00000010H

; 4385 :         if (_Mypair._Myval2._Large_string_engaged()) {

  00580	0f 82 0d fb ff
	ff		 jb	 $LL6@Partition_

; 4386 :             const pointer _Ptr = _Mypair._Myval2._Bx._Ptr;
; 4387 :             auto& _Al          = _Getal();
; 4388 :             _Destroy_in_place(_Mypair._Myval2._Bx._Ptr);
; 4389 :             _Al.deallocate(_Ptr, _Mypair._Myval2._Myres + 1);

  00586	40		 inc	 eax
; File C:\Program Files (x86)\Microsoft Visual Studio\2019\Community\VC\Tools\MSVC\14.28.29333\include\xmemory

; 810  :         _Deallocate<_New_alignof<_Ty>>(_Ptr, sizeof(_Ty) * _Count);

  00587	50		 push	 eax
  00588	ff 75 dc	 push	 DWORD PTR __Tmp$2[ebp+4]
  0058b	e8 00 00 00 00	 call	 ??$_Deallocate@$07$0A@@std@@YAXPAXI@Z ; std::_Deallocate<8,0>
; File C:\Program Files (x86)\Microsoft Visual Studio\2019\Community\VC\Tools\MSVC\14.28.29333\include\algorithm

; 7529 :         } else {

  00590	8b 55 d4	 mov	 edx, DWORD PTR __Glast$1$[ebp]
; File C:\Program Files (x86)\Microsoft Visual Studio\2019\Community\VC\Tools\MSVC\14.28.29333\include\xmemory

; 810  :         _Deallocate<_New_alignof<_Ty>>(_Ptr, sizeof(_Ty) * _Count);

  00593	83 c4 08	 add	 esp, 8
; File C:\Program Files (x86)\Microsoft Visual Studio\2019\Community\VC\Tools\MSVC\14.28.29333\include\algorithm

; 7529 :         } else {

  00596	e9 f8 fa ff ff	 jmp	 $LL6@Partition_
$LN30@Partition_:
; File C:\Program Files (x86)\Microsoft Visual Studio\2019\Community\VC\Tools\MSVC\14.28.29333\include\xstring

; 2684 :         _CSTD memcpy(_My_data_mem, _Right_data_mem, _Memcpy_val_size);

  0059b	0f 10 43 04	 movups	 xmm0, XMMWORD PTR [ebx+4]
  0059f	8b 03		 mov	 eax, DWORD PTR [ebx]
  005a1	8d 4b 04	 lea	 ecx, DWORD PTR [ebx+4]
  005a4	89 45 d8	 mov	 DWORD PTR __Tmp$1[ebp], eax
  005a7	0f 11 45 dc	 movups	 XMMWORD PTR __Tmp$1[ebp+4], xmm0
; File C:\Program Files (x86)\Microsoft Visual Studio\2019\Community\VC\Tools\MSVC\14.28.29333\include\algorithm

; 7530 :             _STD iter_swap(_Gfirst, --_Glast);

  005ab	89 55 d4	 mov	 DWORD PTR __Glast$1$[ebp], edx
; File C:\Program Files (x86)\Microsoft Visual Studio\2019\Community\VC\Tools\MSVC\14.28.29333\include\xstring

; 2684 :         _CSTD memcpy(_My_data_mem, _Right_data_mem, _Memcpy_val_size);

  005ae	f3 0f 7e 41 10	 movq	 xmm0, QWORD PTR [ecx+16]

; 4377 :         _Mypair._Myval2._Mysize = 0;

  005b3	c7 41 10 00 00
	00 00		 mov	 DWORD PTR [ecx+16], 0

; 4378 :         _Mypair._Myval2._Myres  = _BUF_SIZE - 1;

  005ba	c7 41 14 0f 00
	00 00		 mov	 DWORD PTR [ecx+20], 15	; 0000000fH

; 4379 :         // the _Traits::assign is last so the codegen doesn't think the char write can alias this
; 4380 :         _Traits::assign(_Mypair._Myval2._Bx._Buf[0], _Elem());

  005c1	c6 01 00	 mov	 BYTE PTR [ecx], 0
  005c4	0f b6 43 1c	 movzx	 eax, BYTE PTR [ebx+28]
  005c8	88 45 f4	 mov	 BYTE PTR __Tmp$1[ebp+28], al
  005cb	0f b6 43 1d	 movzx	 eax, BYTE PTR [ebx+29]
  005cf	88 45 f5	 mov	 BYTE PTR __Tmp$1[ebp+29], al
  005d2	0f b6 43 1e	 movzx	 eax, BYTE PTR [ebx+30]
  005d6	88 45 f6	 mov	 BYTE PTR __Tmp$1[ebp+30], al
  005d9	0f b6 43 1f	 movzx	 eax, BYTE PTR [ebx+31]
  005dd	88 45 f7	 mov	 BYTE PTR __Tmp$1[ebp+31], al
  005e0	8b 43 20	 mov	 eax, DWORD PTR [ebx+32]
  005e3	89 45 f8	 mov	 DWORD PTR __Tmp$1[ebp+32], eax
  005e6	8b 02		 mov	 eax, DWORD PTR [edx]
  005e8	89 03		 mov	 DWORD PTR [ebx], eax
  005ea	8d 42 04	 lea	 eax, DWORD PTR [edx+4]

; 2684 :         _CSTD memcpy(_My_data_mem, _Right_data_mem, _Memcpy_val_size);

  005ed	66 0f d6 45 ec	 movq	 QWORD PTR __Tmp$1[ebp+20], xmm0
  005f2	89 45 d0	 mov	 DWORD PTR __Right$1$[ebp], eax

; 2665 :         if (this != _STD addressof(_Right)) {

  005f5	3b c8		 cmp	 ecx, eax
  005f7	74 50		 je	 SHORT $LN378@Partition_

; 2227 :         return _BUF_SIZE <= _Myres;

  005f9	83 79 14 10	 cmp	 DWORD PTR [ecx+20], 16	; 00000010H

; 4385 :         if (_Mypair._Myval2._Large_string_engaged()) {

  005fd	72 18		 jb	 SHORT $LN367@Partition_

; 4386 :             const pointer _Ptr = _Mypair._Myval2._Bx._Ptr;
; 4387 :             auto& _Al          = _Getal();
; 4388 :             _Destroy_in_place(_Mypair._Myval2._Bx._Ptr);
; 4389 :             _Al.deallocate(_Ptr, _Mypair._Myval2._Myres + 1);

  005ff	8b 41 14	 mov	 eax, DWORD PTR [ecx+20]
  00602	40		 inc	 eax
; File C:\Program Files (x86)\Microsoft Visual Studio\2019\Community\VC\Tools\MSVC\14.28.29333\include\xmemory

; 810  :         _Deallocate<_New_alignof<_Ty>>(_Ptr, sizeof(_Ty) * _Count);

  00603	50		 push	 eax
  00604	ff 31		 push	 DWORD PTR [ecx]
  00606	e8 00 00 00 00	 call	 ??$_Deallocate@$07$0A@@std@@YAXPAXI@Z ; std::_Deallocate<8,0>
  0060b	8b 55 d4	 mov	 edx, DWORD PTR __Glast$1$[ebp]
  0060e	8d 4b 04	 lea	 ecx, DWORD PTR [ebx+4]
  00611	8b 45 d0	 mov	 eax, DWORD PTR __Right$1$[ebp]
  00614	83 c4 08	 add	 esp, 8
$LN367@Partition_:
; File C:\Program Files (x86)\Microsoft Visual Studio\2019\Community\VC\Tools\MSVC\14.28.29333\include\xstring

; 4392 :         _Mypair._Myval2._Mysize = 0;

  00617	c7 41 10 00 00
	00 00		 mov	 DWORD PTR [ecx+16], 0

; 4393 :         _Mypair._Myval2._Myres  = _BUF_SIZE - 1;

  0061e	c7 41 14 0f 00
	00 00		 mov	 DWORD PTR [ecx+20], 15	; 0000000fH

; 4394 :         // the _Traits::assign is last so the codegen doesn't think the char write can alias this
; 4395 :         _Traits::assign(_Mypair._Myval2._Bx._Buf[0], _Elem());

  00625	c6 01 00	 mov	 BYTE PTR [ecx], 0

; 2684 :         _CSTD memcpy(_My_data_mem, _Right_data_mem, _Memcpy_val_size);

  00628	0f 10 00	 movups	 xmm0, XMMWORD PTR [eax]
  0062b	0f 11 01	 movups	 XMMWORD PTR [ecx], xmm0
  0062e	f3 0f 7e 40 10	 movq	 xmm0, QWORD PTR [eax+16]
  00633	66 0f d6 41 10	 movq	 QWORD PTR [ecx+16], xmm0

; 4377 :         _Mypair._Myval2._Mysize = 0;

  00638	c7 40 10 00 00
	00 00		 mov	 DWORD PTR [eax+16], 0

; 4378 :         _Mypair._Myval2._Myres  = _BUF_SIZE - 1;

  0063f	c7 40 14 0f 00
	00 00		 mov	 DWORD PTR [eax+20], 15	; 0000000fH

; 4379 :         // the _Traits::assign is last so the codegen doesn't think the char write can alias this
; 4380 :         _Traits::assign(_Mypair._Myval2._Bx._Buf[0], _Elem());

  00646	c6 00 00	 mov	 BYTE PTR [eax], 0
$LN378@Partition_:
  00649	0f b6 42 1c	 movzx	 eax, BYTE PTR [edx+28]
; File C:\Program Files (x86)\Microsoft Visual Studio\2019\Community\VC\Tools\MSVC\14.28.29333\include\utility

; 106  :     _Right   = _STD move(_Tmp);

  0064d	8b ca		 mov	 ecx, edx
  0064f	88 43 1c	 mov	 BYTE PTR [ebx+28], al
  00652	0f b6 42 1d	 movzx	 eax, BYTE PTR [edx+29]
  00656	88 43 1d	 mov	 BYTE PTR [ebx+29], al
  00659	0f b6 42 1e	 movzx	 eax, BYTE PTR [edx+30]
  0065d	88 43 1e	 mov	 BYTE PTR [ebx+30], al
  00660	0f b6 42 1f	 movzx	 eax, BYTE PTR [edx+31]
  00664	88 43 1f	 mov	 BYTE PTR [ebx+31], al
  00667	8b 42 20	 mov	 eax, DWORD PTR [edx+32]
  0066a	89 43 20	 mov	 DWORD PTR [ebx+32], eax
  0066d	8d 45 d8	 lea	 eax, DWORD PTR __Tmp$1[ebp]
  00670	50		 push	 eax
  00671	e8 00 00 00 00	 call	 ??4SGuildMemberData@CPythonGuild@@QAEAAU01@$$QAU01@@Z
; File C:\Program Files (x86)\Microsoft Visual Studio\2019\Community\VC\Tools\MSVC\14.28.29333\include\xstring

; 2227 :         return _BUF_SIZE <= _Myres;

  00676	8b 45 f0	 mov	 eax, DWORD PTR __Tmp$1[ebp+24]
  00679	83 f8 10	 cmp	 eax, 16			; 00000010H

; 4385 :         if (_Mypair._Myval2._Large_string_engaged()) {

  0067c	72 0d		 jb	 SHORT $LN386@Partition_

; 4386 :             const pointer _Ptr = _Mypair._Myval2._Bx._Ptr;
; 4387 :             auto& _Al          = _Getal();
; 4388 :             _Destroy_in_place(_Mypair._Myval2._Bx._Ptr);
; 4389 :             _Al.deallocate(_Ptr, _Mypair._Myval2._Myres + 1);

  0067e	40		 inc	 eax
; File C:\Program Files (x86)\Microsoft Visual Studio\2019\Community\VC\Tools\MSVC\14.28.29333\include\xmemory

; 810  :         _Deallocate<_New_alignof<_Ty>>(_Ptr, sizeof(_Ty) * _Count);

  0067f	50		 push	 eax
  00680	ff 75 dc	 push	 DWORD PTR __Tmp$1[ebp+4]
  00683	e8 00 00 00 00	 call	 ??$_Deallocate@$07$0A@@std@@YAXPAXI@Z ; std::_Deallocate<8,0>
  00688	83 c4 08	 add	 esp, 8
$LN386@Partition_:
; File C:\Program Files (x86)\Microsoft Visual Studio\2019\Community\VC\Tools\MSVC\14.28.29333\include\algorithm

; 7533 :     }

  0068b	8b 55 d4	 mov	 edx, DWORD PTR __Glast$1$[ebp]
  0068e	83 c3 24	 add	 ebx, 36			; 00000024H
  00691	e9 fa f9 ff ff	 jmp	 $LN439@Partition_
$LN400@Partition_:
; File C:\Program Files (x86)\Microsoft Visual Studio\2019\Community\VC\Tools\MSVC\14.28.29333\include\utility

; 190  :         : first(_STD forward<_Other1>(_Val1)), second(_STD forward<_Other2>(_Val2)) {}

  00696	8b 45 c0	 mov	 eax, DWORD PTR ___$ReturnUdt$GSCopy$1$[ebp]
; File C:\Program Files (x86)\Microsoft Visual Studio\2019\Community\VC\Tools\MSVC\14.28.29333\include\algorithm

; 7534 : }

  00699	8b 4d fc	 mov	 ecx, DWORD PTR __$ArrayPad$[ebp]
  0069c	33 cd		 xor	 ecx, ebp
; File C:\Program Files (x86)\Microsoft Visual Studio\2019\Community\VC\Tools\MSVC\14.28.29333\include\utility

; 190  :         : first(_STD forward<_Other1>(_Val1)), second(_STD forward<_Other2>(_Val2)) {}

  0069e	89 78 04	 mov	 DWORD PTR [eax+4], edi
; File C:\Program Files (x86)\Microsoft Visual Studio\2019\Community\VC\Tools\MSVC\14.28.29333\include\algorithm

; 7511 :             return pair<_RanIt, _RanIt>(_Pfirst, _Plast);

  006a1	5f		 pop	 edi
; File C:\Program Files (x86)\Microsoft Visual Studio\2019\Community\VC\Tools\MSVC\14.28.29333\include\utility

; 190  :         : first(_STD forward<_Other1>(_Val1)), second(_STD forward<_Other2>(_Val2)) {}

  006a2	89 30		 mov	 DWORD PTR [eax], esi
; File C:\Program Files (x86)\Microsoft Visual Studio\2019\Community\VC\Tools\MSVC\14.28.29333\include\algorithm

; 7511 :             return pair<_RanIt, _RanIt>(_Pfirst, _Plast);

  006a4	5e		 pop	 esi
  006a5	5b		 pop	 ebx

; 7534 : }

  006a6	e8 00 00 00 00	 call	 @__security_check_cookie@4
  006ab	8b e5		 mov	 esp, ebp
  006ad	5d		 pop	 ebp
  006ae	c3		 ret	 0
??$_Partition_by_median_guess_unchecked@PAUSGuildMemberData@CPythonGuild@@UCPythonGuild_SLessMemberGrade@@@std@@YA?AU?$pair@PAUSGuildMemberData@CPythonGuild@@PAU12@@0@PAUSGuildMemberData@CPythonGuild@@0UCPythonGuild_SLessMemberGrade@@@Z ENDP ; std::_Partition_by_median_guess_unchecked<CPythonGuild::SGuildMemberData *,CPythonGuild_SLessMemberGrade>
_TEXT	ENDS
; Function compile flags: /Ogtp
; File C:\Program Files (x86)\Microsoft Visual Studio\2019\Community\VC\Tools\MSVC\14.28.29333\include\algorithm
; File C:\Program Files (x86)\Microsoft Visual Studio\2019\Community\VC\Tools\MSVC\14.28.29333\include\xstring
; File C:\Program Files (x86)\Microsoft Visual Studio\2019\Community\VC\Tools\MSVC\14.28.29333\include\algorithm
; File C:\Program Files (x86)\Microsoft Visual Studio\2019\Community\VC\Tools\MSVC\14.28.29333\include\xstring
; File D:\Metin2 Server Files\mainline\SRC_2014\Metin2Client\UserInterface\PythonGuild.cpp
; File C:\Program Files (x86)\Microsoft Visual Studio\2019\Community\VC\Tools\MSVC\14.28.29333\include\xstring
; File D:\Metin2 Server Files\mainline\SRC_2014\Metin2Client\UserInterface\PythonGuild.cpp
; File C:\Program Files (x86)\Microsoft Visual Studio\2019\Community\VC\Tools\MSVC\14.28.29333\include\xutility
; File C:\Program Files (x86)\Microsoft Visual Studio\2019\Community\VC\Tools\MSVC\14.28.29333\include\algorithm
; File C:\Program Files (x86)\Microsoft Visual Studio\2019\Community\VC\Tools\MSVC\14.28.29333\include\xutility
; File C:\Program Files (x86)\Microsoft Visual Studio\2019\Community\VC\Tools\MSVC\14.28.29333\include\xstring
; File C:\Program Files (x86)\Microsoft Visual Studio\2019\Community\VC\Tools\MSVC\14.28.29333\include\xmemory
; File C:\Program Files (x86)\Microsoft Visual Studio\2019\Community\VC\Tools\MSVC\14.28.29333\include\xstring
; File C:\Program Files (x86)\Microsoft Visual Studio\2019\Community\VC\Tools\MSVC\14.28.29333\include\xutility
; File C:\Program Files (x86)\Microsoft Visual Studio\2019\Community\VC\Tools\MSVC\14.28.29333\include\xstring
; File C:\Program Files (x86)\Microsoft Visual Studio\2019\Community\VC\Tools\MSVC\14.28.29333\include\xmemory
; File C:\Program Files (x86)\Microsoft Visual Studio\2019\Community\VC\Tools\MSVC\14.28.29333\include\xstring
; File C:\Program Files (x86)\Microsoft Visual Studio\2019\Community\VC\Tools\MSVC\14.28.29333\include\algorithm
; File D:\Metin2 Server Files\mainline\SRC_2014\Metin2Client\UserInterface\PythonGuild.cpp
; File C:\Program Files (x86)\Microsoft Visual Studio\2019\Community\VC\Tools\MSVC\14.28.29333\include\xstring
; File C:\Program Files (x86)\Microsoft Visual Studio\2019\Community\VC\Tools\MSVC\14.28.29333\include\xmemory
; File C:\Program Files (x86)\Microsoft Visual Studio\2019\Community\VC\Tools\MSVC\14.28.29333\include\xstring
; File C:\Program Files (x86)\Microsoft Visual Studio\2019\Community\VC\Tools\MSVC\14.28.29333\include\algorithm
; File C:\Program Files (x86)\Microsoft Visual Studio\2019\Community\VC\Tools\MSVC\14.28.29333\include\xstring
; File C:\Program Files (x86)\Microsoft Visual Studio\2019\Community\VC\Tools\MSVC\14.28.29333\include\xmemory
; File C:\Program Files (x86)\Microsoft Visual Studio\2019\Community\VC\Tools\MSVC\14.28.29333\include\xstring
; File C:\Program Files (x86)\Microsoft Visual Studio\2019\Community\VC\Tools\MSVC\14.28.29333\include\xmemory
; File C:\Program Files (x86)\Microsoft Visual Studio\2019\Community\VC\Tools\MSVC\14.28.29333\include\algorithm
;	COMDAT ??$_Insertion_sort_unchecked@PAUSGuildMemberData@CPythonGuild@@UCPythonGuild_SLessMemberGrade@@@std@@YAPAUSGuildMemberData@CPythonGuild@@QAU12@0UCPythonGuild_SLessMemberGrade@@@Z
_TEXT	SEGMENT
__Val$8$ = -88						; size = 16
__Val$9$ = -72						; size = 8
tv1840 = -64						; size = 4
__Mid$1$ = -60						; size = 4
__Val$6$ = -56						; size = 4
__Val$1$ = -52						; size = 4
__First$GSCopy$1$ = -48					; size = 4
__Val$5$ = -44						; size = 1
__Val$4$ = -43						; size = 1
__Val$2$ = -42						; size = 1
__Val$3$ = -41						; size = 1
__Val$1 = -40						; size = 36
__$ArrayPad$ = -4					; size = 4
__First$ = 8						; size = 4
__Last$ = 12						; size = 4
__Pred$ = 16						; size = 1
??$_Insertion_sort_unchecked@PAUSGuildMemberData@CPythonGuild@@UCPythonGuild_SLessMemberGrade@@@std@@YAPAUSGuildMemberData@CPythonGuild@@QAU12@0UCPythonGuild_SLessMemberGrade@@@Z PROC ; std::_Insertion_sort_unchecked<CPythonGuild::SGuildMemberData *,CPythonGuild_SLessMemberGrade>, COMDAT

; 7410 : _CONSTEXPR20 _BidIt _Insertion_sort_unchecked(const _BidIt _First, const _BidIt _Last, _Pr _Pred) {

  00000	55		 push	 ebp
  00001	8b ec		 mov	 ebp, esp
  00003	83 ec 58	 sub	 esp, 88			; 00000058H
  00006	a1 00 00 00 00	 mov	 eax, DWORD PTR ___security_cookie
  0000b	33 c5		 xor	 eax, ebp
  0000d	89 45 fc	 mov	 DWORD PTR __$ArrayPad$[ebp], eax
  00010	8b 4d 08	 mov	 ecx, DWORD PTR __First$[ebp]

; 7411 :     // insertion sort [_First, _Last)
; 7412 :     if (_First != _Last) {

  00013	8b 55 0c	 mov	 edx, DWORD PTR __Last$[ebp]
  00016	89 4d d0	 mov	 DWORD PTR __First$GSCopy$1$[ebp], ecx
  00019	3b ca		 cmp	 ecx, edx
  0001b	0f 84 bc 02 00
	00		 je	 $LN148@Insertion_

; 7413 :         for (_BidIt _Mid = _First; ++_Mid != _Last;) { // order next element

  00021	8d 41 24	 lea	 eax, DWORD PTR [ecx+36]
  00024	89 45 c4	 mov	 DWORD PTR __Mid$1$[ebp], eax
  00027	3b c2		 cmp	 eax, edx
  00029	0f 84 ae 02 00
	00		 je	 $LN148@Insertion_
  0002f	53		 push	 ebx
  00030	56		 push	 esi
  00031	57		 push	 edi
  00032	8d 79 3c	 lea	 edi, DWORD PTR [ecx+60]
  00035	89 7d c0	 mov	 DWORD PTR tv1840[ebp], edi
  00038	0f 1f 84 00 00
	00 00 00	 npad	 8
$LL2@Insertion_:
; File C:\Program Files (x86)\Microsoft Visual Studio\2019\Community\VC\Tools\MSVC\14.28.29333\include\xstring

; 2684 :         _CSTD memcpy(_My_data_mem, _Right_data_mem, _Memcpy_val_size);

  00040	0f 10 47 ec	 movups	 xmm0, XMMWORD PTR [edi-20]
  00044	8b 10		 mov	 edx, DWORD PTR [eax]
  00046	8d 77 ec	 lea	 esi, DWORD PTR [edi-20]
  00049	89 55 cc	 mov	 DWORD PTR __Val$1$[ebp], edx
; File C:\Program Files (x86)\Microsoft Visual Studio\2019\Community\VC\Tools\MSVC\14.28.29333\include\algorithm

; 7414 :             _BidIt _Hole               = _Mid;

  0004c	8b d8		 mov	 ebx, eax
; File C:\Program Files (x86)\Microsoft Visual Studio\2019\Community\VC\Tools\MSVC\14.28.29333\include\xstring

; 2684 :         _CSTD memcpy(_My_data_mem, _Right_data_mem, _Memcpy_val_size);

  0004e	0f 11 45 a8	 movups	 XMMWORD PTR __Val$8$[ebp], xmm0
  00052	0f 11 45 dc	 movups	 XMMWORD PTR __Val$1[ebp+4], xmm0
  00056	f3 0f 7e 46 10	 movq	 xmm0, QWORD PTR [esi+16]

; 4377 :         _Mypair._Myval2._Mysize = 0;

  0005b	c7 47 fc 00 00
	00 00		 mov	 DWORD PTR [edi-4], 0

; 4378 :         _Mypair._Myval2._Myres  = _BUF_SIZE - 1;

  00062	c7 07 0f 00 00
	00		 mov	 DWORD PTR [edi], 15	; 0000000fH

; 4379 :         // the _Traits::assign is last so the codegen doesn't think the char write can alias this
; 4380 :         _Traits::assign(_Mypair._Myval2._Bx._Buf[0], _Elem());

  00068	c6 06 00	 mov	 BYTE PTR [esi], 0
  0006b	8a 77 05	 mov	 dh, BYTE PTR [edi+5]
  0006e	8b 4f 08	 mov	 ecx, DWORD PTR [edi+8]
  00071	8a 57 04	 mov	 dl, BYTE PTR [edi+4]
  00074	88 75 d6	 mov	 BYTE PTR __Val$2$[ebp], dh
  00077	8a 77 06	 mov	 dh, BYTE PTR [edi+6]
  0007a	89 4d c8	 mov	 DWORD PTR __Val$6$[ebp], ecx
; File D:\Metin2 Server Files\mainline\SRC_2014\Metin2Client\UserInterface\PythonGuild.cpp

; 331  : 		if (rleft.byGrade < rright.byGrade)

  0007d	8b 4d d0	 mov	 ecx, DWORD PTR __First$GSCopy$1$[ebp]
  00080	88 75 d5	 mov	 BYTE PTR __Val$4$[ebp], dh
  00083	8a 77 07	 mov	 dh, BYTE PTR [edi+7]
; File C:\Program Files (x86)\Microsoft Visual Studio\2019\Community\VC\Tools\MSVC\14.28.29333\include\xstring

; 2684 :         _CSTD memcpy(_My_data_mem, _Right_data_mem, _Memcpy_val_size);

  00086	66 0f d6 45 b8	 movq	 QWORD PTR __Val$9$[ebp], xmm0
  0008b	66 0f d6 45 ec	 movq	 QWORD PTR __Val$1[ebp+20], xmm0
  00090	88 55 d7	 mov	 BYTE PTR __Val$3$[ebp], dl
  00093	88 75 d4	 mov	 BYTE PTR __Val$5$[ebp], dh
; File D:\Metin2 Server Files\mainline\SRC_2014\Metin2Client\UserInterface\PythonGuild.cpp

; 331  : 		if (rleft.byGrade < rright.byGrade)

  00096	3a 51 1c	 cmp	 dl, BYTE PTR [ecx+28]
  00099	0f 83 11 01 00
	00		 jae	 $LL9@Insertion_
; File C:\Program Files (x86)\Microsoft Visual Studio\2019\Community\VC\Tools\MSVC\14.28.29333\include\xutility

; 4700 :     while (_First != _Last) {

  0009f	3b c1		 cmp	 eax, ecx
  000a1	0f 84 91 00 00
	00		 je	 $LN36@Insertion_
; File C:\Program Files (x86)\Microsoft Visual Studio\2019\Community\VC\Tools\MSVC\14.28.29333\include\algorithm

; 7418 :                 _Move_backward_unchecked(_First, _Mid, ++_Hole);

  000a7	8d 77 10	 lea	 esi, DWORD PTR [edi+16]
  000aa	66 0f 1f 44 00
	00		 npad	 6
$LL139@Insertion_:
  000b0	8b 46 b4	 mov	 eax, DWORD PTR [esi-76]
; File C:\Program Files (x86)\Microsoft Visual Studio\2019\Community\VC\Tools\MSVC\14.28.29333\include\xutility

; 4701 :         *--_Dest = _STD move(*--_Last);

  000b3	83 ee 24	 sub	 esi, 36			; 00000024H
  000b6	89 46 fc	 mov	 DWORD PTR [esi-4], eax
; File C:\Program Files (x86)\Microsoft Visual Studio\2019\Community\VC\Tools\MSVC\14.28.29333\include\xstring

; 2665 :         if (this != _STD addressof(_Right)) {

  000b9	8d 46 dc	 lea	 eax, DWORD PTR [esi-36]
  000bc	3b f0		 cmp	 esi, eax
  000be	74 4b		 je	 SHORT $LN57@Insertion_

; 2227 :         return _BUF_SIZE <= _Myres;

  000c0	8b 46 14	 mov	 eax, DWORD PTR [esi+20]
  000c3	83 f8 10	 cmp	 eax, 16			; 00000010H

; 4385 :         if (_Mypair._Myval2._Large_string_engaged()) {

  000c6	72 0f		 jb	 SHORT $LN46@Insertion_

; 4386 :             const pointer _Ptr = _Mypair._Myval2._Bx._Ptr;
; 4387 :             auto& _Al          = _Getal();
; 4388 :             _Destroy_in_place(_Mypair._Myval2._Bx._Ptr);
; 4389 :             _Al.deallocate(_Ptr, _Mypair._Myval2._Myres + 1);

  000c8	40		 inc	 eax
; File C:\Program Files (x86)\Microsoft Visual Studio\2019\Community\VC\Tools\MSVC\14.28.29333\include\xmemory

; 810  :         _Deallocate<_New_alignof<_Ty>>(_Ptr, sizeof(_Ty) * _Count);

  000c9	50		 push	 eax
  000ca	ff 36		 push	 DWORD PTR [esi]
  000cc	e8 00 00 00 00	 call	 ??$_Deallocate@$07$0A@@std@@YAXPAXI@Z ; std::_Deallocate<8,0>
  000d1	8b 4d d0	 mov	 ecx, DWORD PTR __First$GSCopy$1$[ebp]
  000d4	83 c4 08	 add	 esp, 8
$LN46@Insertion_:
; File C:\Program Files (x86)\Microsoft Visual Studio\2019\Community\VC\Tools\MSVC\14.28.29333\include\xstring

; 4392 :         _Mypair._Myval2._Mysize = 0;

  000d7	c7 46 10 00 00
	00 00		 mov	 DWORD PTR [esi+16], 0

; 4393 :         _Mypair._Myval2._Myres  = _BUF_SIZE - 1;

  000de	c7 46 14 0f 00
	00 00		 mov	 DWORD PTR [esi+20], 15	; 0000000fH

; 4394 :         // the _Traits::assign is last so the codegen doesn't think the char write can alias this
; 4395 :         _Traits::assign(_Mypair._Myval2._Bx._Buf[0], _Elem());

  000e5	c6 06 00	 mov	 BYTE PTR [esi], 0

; 2684 :         _CSTD memcpy(_My_data_mem, _Right_data_mem, _Memcpy_val_size);

  000e8	0f 10 46 dc	 movups	 xmm0, XMMWORD PTR [esi-36]
  000ec	0f 11 06	 movups	 XMMWORD PTR [esi], xmm0
  000ef	f3 0f 7e 46 ec	 movq	 xmm0, QWORD PTR [esi-20]
  000f4	66 0f d6 46 10	 movq	 QWORD PTR [esi+16], xmm0

; 4377 :         _Mypair._Myval2._Mysize = 0;

  000f9	c7 46 ec 00 00
	00 00		 mov	 DWORD PTR [esi-20], 0

; 4378 :         _Mypair._Myval2._Myres  = _BUF_SIZE - 1;

  00100	c7 46 f0 0f 00
	00 00		 mov	 DWORD PTR [esi-16], 15	; 0000000fH

; 4379 :         // the _Traits::assign is last so the codegen doesn't think the char write can alias this
; 4380 :         _Traits::assign(_Mypair._Myval2._Bx._Buf[0], _Elem());

  00107	c6 46 dc 00	 mov	 BYTE PTR [esi-36], 0
$LN57@Insertion_:
  0010b	0f b6 46 f4	 movzx	 eax, BYTE PTR [esi-12]
  0010f	88 46 18	 mov	 BYTE PTR [esi+24], al
  00112	0f b6 46 f5	 movzx	 eax, BYTE PTR [esi-11]
  00116	88 46 19	 mov	 BYTE PTR [esi+25], al
  00119	0f b6 46 f6	 movzx	 eax, BYTE PTR [esi-10]
  0011d	88 46 1a	 mov	 BYTE PTR [esi+26], al
  00120	0f b6 46 f7	 movzx	 eax, BYTE PTR [esi-9]
  00124	88 46 1b	 mov	 BYTE PTR [esi+27], al
  00127	8b 46 f8	 mov	 eax, DWORD PTR [esi-8]
  0012a	89 46 1c	 mov	 DWORD PTR [esi+28], eax
; File C:\Program Files (x86)\Microsoft Visual Studio\2019\Community\VC\Tools\MSVC\14.28.29333\include\xutility

; 4700 :     while (_First != _Last) {

  0012d	8d 46 d8	 lea	 eax, DWORD PTR [esi-40]
  00130	3b c1		 cmp	 eax, ecx
  00132	0f 85 78 ff ff
	ff		 jne	 $LL139@Insertion_
$LN36@Insertion_:
  00138	8b 45 cc	 mov	 eax, DWORD PTR __Val$1$[ebp]
  0013b	8d 71 04	 lea	 esi, DWORD PTR [ecx+4]
  0013e	89 01		 mov	 DWORD PTR [ecx], eax
; File C:\Program Files (x86)\Microsoft Visual Studio\2019\Community\VC\Tools\MSVC\14.28.29333\include\xstring

; 2665 :         if (this != _STD addressof(_Right)) {

  00140	8d 45 dc	 lea	 eax, DWORD PTR __Val$1[ebp+4]
  00143	3b f0		 cmp	 esi, eax
  00145	74 41		 je	 SHORT $LN150@Insertion_

; 2227 :         return _BUF_SIZE <= _Myres;

  00147	8b 46 14	 mov	 eax, DWORD PTR [esi+20]
  0014a	83 f8 10	 cmp	 eax, 16			; 00000010H

; 4385 :         if (_Mypair._Myval2._Large_string_engaged()) {

  0014d	72 0f		 jb	 SHORT $LN66@Insertion_

; 4386 :             const pointer _Ptr = _Mypair._Myval2._Bx._Ptr;
; 4387 :             auto& _Al          = _Getal();
; 4388 :             _Destroy_in_place(_Mypair._Myval2._Bx._Ptr);
; 4389 :             _Al.deallocate(_Ptr, _Mypair._Myval2._Myres + 1);

  0014f	40		 inc	 eax
; File C:\Program Files (x86)\Microsoft Visual Studio\2019\Community\VC\Tools\MSVC\14.28.29333\include\xmemory

; 810  :         _Deallocate<_New_alignof<_Ty>>(_Ptr, sizeof(_Ty) * _Count);

  00150	50		 push	 eax
  00151	ff 36		 push	 DWORD PTR [esi]
  00153	e8 00 00 00 00	 call	 ??$_Deallocate@$07$0A@@std@@YAXPAXI@Z ; std::_Deallocate<8,0>
  00158	8b 4d d0	 mov	 ecx, DWORD PTR __First$GSCopy$1$[ebp]
  0015b	83 c4 08	 add	 esp, 8
$LN66@Insertion_:
; File C:\Program Files (x86)\Microsoft Visual Studio\2019\Community\VC\Tools\MSVC\14.28.29333\include\xstring

; 2684 :         _CSTD memcpy(_My_data_mem, _Right_data_mem, _Memcpy_val_size);

  0015e	0f 10 45 a8	 movups	 xmm0, XMMWORD PTR __Val$8$[ebp]

; 4392 :         _Mypair._Myval2._Mysize = 0;

  00162	c7 46 10 00 00
	00 00		 mov	 DWORD PTR [esi+16], 0

; 4378 :         _Mypair._Myval2._Myres  = _BUF_SIZE - 1;

  00169	b8 0f 00 00 00	 mov	 eax, 15			; 0000000fH

; 4393 :         _Mypair._Myval2._Myres  = _BUF_SIZE - 1;

  0016e	c7 46 14 0f 00
	00 00		 mov	 DWORD PTR [esi+20], 15	; 0000000fH

; 2684 :         _CSTD memcpy(_My_data_mem, _Right_data_mem, _Memcpy_val_size);

  00175	0f 11 06	 movups	 XMMWORD PTR [esi], xmm0

; 4380 :         _Traits::assign(_Mypair._Myval2._Bx._Buf[0], _Elem());

  00178	c6 45 dc 00	 mov	 BYTE PTR __Val$1[ebp+4], 0

; 2684 :         _CSTD memcpy(_My_data_mem, _Right_data_mem, _Memcpy_val_size);

  0017c	f3 0f 7e 45 b8	 movq	 xmm0, QWORD PTR __Val$9$[ebp]
  00181	66 0f d6 46 10	 movq	 QWORD PTR [esi+16], xmm0

; 2665 :         if (this != _STD addressof(_Right)) {

  00186	eb 03		 jmp	 SHORT $LN77@Insertion_
$LN150@Insertion_:
  00188	8b 45 f0	 mov	 eax, DWORD PTR __Val$1[ebp+24]
$LN77@Insertion_:
  0018b	8a 55 d7	 mov	 dl, BYTE PTR __Val$3$[ebp]
  0018e	88 51 1c	 mov	 BYTE PTR [ecx+28], dl
  00191	8a 55 d6	 mov	 dl, BYTE PTR __Val$2$[ebp]
  00194	88 51 1d	 mov	 BYTE PTR [ecx+29], dl
  00197	8a 55 d5	 mov	 dl, BYTE PTR __Val$4$[ebp]
  0019a	88 51 1e	 mov	 BYTE PTR [ecx+30], dl
  0019d	8a 55 d4	 mov	 dl, BYTE PTR __Val$5$[ebp]
  001a0	88 51 1f	 mov	 BYTE PTR [ecx+31], dl
  001a3	8b 55 c8	 mov	 edx, DWORD PTR __Val$6$[ebp]
  001a6	89 51 20	 mov	 DWORD PTR [ecx+32], edx
; File C:\Program Files (x86)\Microsoft Visual Studio\2019\Community\VC\Tools\MSVC\14.28.29333\include\algorithm

; 7420 :             } else { // look for insertion point after first

  001a9	e9 00 01 00 00	 jmp	 $LN102@Insertion_
  001ae	66 90		 npad	 2
$LL9@Insertion_:

; 7421 :                 for (_BidIt _Prev = _Hole; _DEBUG_LT_PRED(_Pred, _Val, *--_Prev); _Hole = _Prev) {

  001b0	83 ee 24	 sub	 esi, 36			; 00000024H
; File D:\Metin2 Server Files\mainline\SRC_2014\Metin2Client\UserInterface\PythonGuild.cpp

; 331  : 		if (rleft.byGrade < rright.byGrade)

  001b3	8d 7b 04	 lea	 edi, DWORD PTR [ebx+4]
  001b6	3a 56 18	 cmp	 dl, BYTE PTR [esi+24]
  001b9	0f 83 81 00 00
	00		 jae	 $LN79@Insertion_
  001bf	8b 46 fc	 mov	 eax, DWORD PTR [esi-4]
  001c2	8d 4e fc	 lea	 ecx, DWORD PTR [esi-4]
  001c5	89 03		 mov	 DWORD PTR [ebx], eax
; File C:\Program Files (x86)\Microsoft Visual Studio\2019\Community\VC\Tools\MSVC\14.28.29333\include\xstring

; 2665 :         if (this != _STD addressof(_Right)) {

  001c7	3b fe		 cmp	 edi, esi
  001c9	74 4c		 je	 SHORT $LN100@Insertion_

; 2227 :         return _BUF_SIZE <= _Myres;

  001cb	8b 47 14	 mov	 eax, DWORD PTR [edi+20]
  001ce	83 f8 10	 cmp	 eax, 16			; 00000010H

; 4385 :         if (_Mypair._Myval2._Large_string_engaged()) {

  001d1	72 12		 jb	 SHORT $LN89@Insertion_

; 4386 :             const pointer _Ptr = _Mypair._Myval2._Bx._Ptr;
; 4387 :             auto& _Al          = _Getal();
; 4388 :             _Destroy_in_place(_Mypair._Myval2._Bx._Ptr);
; 4389 :             _Al.deallocate(_Ptr, _Mypair._Myval2._Myres + 1);

  001d3	40		 inc	 eax
; File C:\Program Files (x86)\Microsoft Visual Studio\2019\Community\VC\Tools\MSVC\14.28.29333\include\xmemory

; 810  :         _Deallocate<_New_alignof<_Ty>>(_Ptr, sizeof(_Ty) * _Count);

  001d4	50		 push	 eax
  001d5	ff 37		 push	 DWORD PTR [edi]
  001d7	e8 00 00 00 00	 call	 ??$_Deallocate@$07$0A@@std@@YAXPAXI@Z ; std::_Deallocate<8,0>
  001dc	8a 55 d7	 mov	 dl, BYTE PTR __Val$3$[ebp]
  001df	8d 4e fc	 lea	 ecx, DWORD PTR [esi-4]
  001e2	83 c4 08	 add	 esp, 8
$LN89@Insertion_:
; File C:\Program Files (x86)\Microsoft Visual Studio\2019\Community\VC\Tools\MSVC\14.28.29333\include\xstring

; 4392 :         _Mypair._Myval2._Mysize = 0;

  001e5	c7 47 10 00 00
	00 00		 mov	 DWORD PTR [edi+16], 0

; 4393 :         _Mypair._Myval2._Myres  = _BUF_SIZE - 1;

  001ec	c7 47 14 0f 00
	00 00		 mov	 DWORD PTR [edi+20], 15	; 0000000fH

; 4394 :         // the _Traits::assign is last so the codegen doesn't think the char write can alias this
; 4395 :         _Traits::assign(_Mypair._Myval2._Bx._Buf[0], _Elem());

  001f3	c6 07 00	 mov	 BYTE PTR [edi], 0

; 2684 :         _CSTD memcpy(_My_data_mem, _Right_data_mem, _Memcpy_val_size);

  001f6	0f 10 06	 movups	 xmm0, XMMWORD PTR [esi]
  001f9	0f 11 07	 movups	 XMMWORD PTR [edi], xmm0
  001fc	f3 0f 7e 46 10	 movq	 xmm0, QWORD PTR [esi+16]
  00201	66 0f d6 47 10	 movq	 QWORD PTR [edi+16], xmm0

; 4377 :         _Mypair._Myval2._Mysize = 0;

  00206	c7 46 10 00 00
	00 00		 mov	 DWORD PTR [esi+16], 0

; 4378 :         _Mypair._Myval2._Myres  = _BUF_SIZE - 1;

  0020d	c7 46 14 0f 00
	00 00		 mov	 DWORD PTR [esi+20], 15	; 0000000fH

; 4379 :         // the _Traits::assign is last so the codegen doesn't think the char write can alias this
; 4380 :         _Traits::assign(_Mypair._Myval2._Bx._Buf[0], _Elem());

  00214	c6 06 00	 mov	 BYTE PTR [esi], 0
$LN100@Insertion_:
  00217	0f b6 46 18	 movzx	 eax, BYTE PTR [esi+24]
  0021b	88 43 1c	 mov	 BYTE PTR [ebx+28], al
  0021e	0f b6 46 19	 movzx	 eax, BYTE PTR [esi+25]
  00222	88 43 1d	 mov	 BYTE PTR [ebx+29], al
  00225	0f b6 46 1a	 movzx	 eax, BYTE PTR [esi+26]
  00229	88 43 1e	 mov	 BYTE PTR [ebx+30], al
  0022c	0f b6 46 1b	 movzx	 eax, BYTE PTR [esi+27]
  00230	88 43 1f	 mov	 BYTE PTR [ebx+31], al
  00233	8b 46 1c	 mov	 eax, DWORD PTR [esi+28]
  00236	89 43 20	 mov	 DWORD PTR [ebx+32], eax
; File C:\Program Files (x86)\Microsoft Visual Studio\2019\Community\VC\Tools\MSVC\14.28.29333\include\algorithm

; 7421 :                 for (_BidIt _Prev = _Hole; _DEBUG_LT_PRED(_Pred, _Val, *--_Prev); _Hole = _Prev) {

  00239	8b d9		 mov	 ebx, ecx
  0023b	e9 70 ff ff ff	 jmp	 $LL9@Insertion_
$LN79@Insertion_:
  00240	8b 45 cc	 mov	 eax, DWORD PTR __Val$1$[ebp]
  00243	89 03		 mov	 DWORD PTR [ebx], eax
; File C:\Program Files (x86)\Microsoft Visual Studio\2019\Community\VC\Tools\MSVC\14.28.29333\include\xstring

; 2665 :         if (this != _STD addressof(_Right)) {

  00245	8d 45 dc	 lea	 eax, DWORD PTR __Val$1[ebp+4]
  00248	3b f8		 cmp	 edi, eax
  0024a	74 41		 je	 SHORT $LN151@Insertion_

; 2227 :         return _BUF_SIZE <= _Myres;

  0024c	8b 47 14	 mov	 eax, DWORD PTR [edi+20]
  0024f	83 f8 10	 cmp	 eax, 16			; 00000010H

; 4385 :         if (_Mypair._Myval2._Large_string_engaged()) {

  00252	72 0f		 jb	 SHORT $LN109@Insertion_

; 4386 :             const pointer _Ptr = _Mypair._Myval2._Bx._Ptr;
; 4387 :             auto& _Al          = _Getal();
; 4388 :             _Destroy_in_place(_Mypair._Myval2._Bx._Ptr);
; 4389 :             _Al.deallocate(_Ptr, _Mypair._Myval2._Myres + 1);

  00254	40		 inc	 eax
; File C:\Program Files (x86)\Microsoft Visual Studio\2019\Community\VC\Tools\MSVC\14.28.29333\include\xmemory

; 810  :         _Deallocate<_New_alignof<_Ty>>(_Ptr, sizeof(_Ty) * _Count);

  00255	50		 push	 eax
  00256	ff 37		 push	 DWORD PTR [edi]
  00258	e8 00 00 00 00	 call	 ??$_Deallocate@$07$0A@@std@@YAXPAXI@Z ; std::_Deallocate<8,0>
  0025d	8a 55 d7	 mov	 dl, BYTE PTR __Val$3$[ebp]
  00260	83 c4 08	 add	 esp, 8
$LN109@Insertion_:
; File C:\Program Files (x86)\Microsoft Visual Studio\2019\Community\VC\Tools\MSVC\14.28.29333\include\xstring

; 2684 :         _CSTD memcpy(_My_data_mem, _Right_data_mem, _Memcpy_val_size);

  00263	0f 10 45 a8	 movups	 xmm0, XMMWORD PTR __Val$8$[ebp]

; 4392 :         _Mypair._Myval2._Mysize = 0;

  00267	c7 47 10 00 00
	00 00		 mov	 DWORD PTR [edi+16], 0

; 4378 :         _Mypair._Myval2._Myres  = _BUF_SIZE - 1;

  0026e	b8 0f 00 00 00	 mov	 eax, 15			; 0000000fH

; 4393 :         _Mypair._Myval2._Myres  = _BUF_SIZE - 1;

  00273	c7 47 14 0f 00
	00 00		 mov	 DWORD PTR [edi+20], 15	; 0000000fH

; 2684 :         _CSTD memcpy(_My_data_mem, _Right_data_mem, _Memcpy_val_size);

  0027a	0f 11 07	 movups	 XMMWORD PTR [edi], xmm0

; 4380 :         _Traits::assign(_Mypair._Myval2._Bx._Buf[0], _Elem());

  0027d	c6 45 dc 00	 mov	 BYTE PTR __Val$1[ebp+4], 0

; 2684 :         _CSTD memcpy(_My_data_mem, _Right_data_mem, _Memcpy_val_size);

  00281	f3 0f 7e 45 b8	 movq	 xmm0, QWORD PTR __Val$9$[ebp]
  00286	66 0f d6 47 10	 movq	 QWORD PTR [edi+16], xmm0

; 2665 :         if (this != _STD addressof(_Right)) {

  0028b	eb 03		 jmp	 SHORT $LN120@Insertion_
$LN151@Insertion_:
  0028d	8b 45 f0	 mov	 eax, DWORD PTR __Val$1[ebp+24]
$LN120@Insertion_:
  00290	8b 4d c8	 mov	 ecx, DWORD PTR __Val$6$[ebp]
  00293	8b 7d c0	 mov	 edi, DWORD PTR tv1840[ebp]
  00296	88 53 1c	 mov	 BYTE PTR [ebx+28], dl
  00299	8a 55 d6	 mov	 dl, BYTE PTR __Val$2$[ebp]
  0029c	88 53 1d	 mov	 BYTE PTR [ebx+29], dl
  0029f	8a 55 d5	 mov	 dl, BYTE PTR __Val$4$[ebp]
  002a2	88 53 1e	 mov	 BYTE PTR [ebx+30], dl
  002a5	8a 55 d4	 mov	 dl, BYTE PTR __Val$5$[ebp]
  002a8	88 53 1f	 mov	 BYTE PTR [ebx+31], dl
  002ab	89 4b 20	 mov	 DWORD PTR [ebx+32], ecx
$LN102@Insertion_:

; 2227 :         return _BUF_SIZE <= _Myres;

  002ae	83 f8 10	 cmp	 eax, 16			; 00000010H

; 4385 :         if (_Mypair._Myval2._Large_string_engaged()) {

  002b1	72 0d		 jb	 SHORT $LN128@Insertion_

; 4386 :             const pointer _Ptr = _Mypair._Myval2._Bx._Ptr;
; 4387 :             auto& _Al          = _Getal();
; 4388 :             _Destroy_in_place(_Mypair._Myval2._Bx._Ptr);
; 4389 :             _Al.deallocate(_Ptr, _Mypair._Myval2._Myres + 1);

  002b3	40		 inc	 eax
; File C:\Program Files (x86)\Microsoft Visual Studio\2019\Community\VC\Tools\MSVC\14.28.29333\include\xmemory

; 810  :         _Deallocate<_New_alignof<_Ty>>(_Ptr, sizeof(_Ty) * _Count);

  002b4	50		 push	 eax
  002b5	ff 75 dc	 push	 DWORD PTR __Val$1[ebp+4]
  002b8	e8 00 00 00 00	 call	 ??$_Deallocate@$07$0A@@std@@YAXPAXI@Z ; std::_Deallocate<8,0>
  002bd	83 c4 08	 add	 esp, 8
$LN128@Insertion_:
; File C:\Program Files (x86)\Microsoft Visual Studio\2019\Community\VC\Tools\MSVC\14.28.29333\include\algorithm

; 7413 :         for (_BidIt _Mid = _First; ++_Mid != _Last;) { // order next element

  002c0	8b 45 c4	 mov	 eax, DWORD PTR __Mid$1$[ebp]
  002c3	83 c7 24	 add	 edi, 36			; 00000024H
  002c6	8b 55 0c	 mov	 edx, DWORD PTR __Last$[ebp]
  002c9	83 c0 24	 add	 eax, 36			; 00000024H
  002cc	89 45 c4	 mov	 DWORD PTR __Mid$1$[ebp], eax
  002cf	89 7d c0	 mov	 DWORD PTR tv1840[ebp], edi
  002d2	3b c2		 cmp	 eax, edx
  002d4	0f 85 66 fd ff
	ff		 jne	 $LL2@Insertion_

; 7422 :                     *_Hole = _STD move(*_Prev); // move hole down
; 7423 :                 }
; 7424 : 
; 7425 :                 *_Hole = _STD move(_Val); // insert element in hole
; 7426 :             }
; 7427 :         }
; 7428 :     }
; 7429 : 
; 7430 :     return _Last;

  002da	5f		 pop	 edi
  002db	5e		 pop	 esi
  002dc	5b		 pop	 ebx
$LN148@Insertion_:

; 7431 : }

  002dd	8b 4d fc	 mov	 ecx, DWORD PTR __$ArrayPad$[ebp]
  002e0	8b c2		 mov	 eax, edx
  002e2	33 cd		 xor	 ecx, ebp
  002e4	e8 00 00 00 00	 call	 @__security_check_cookie@4
  002e9	8b e5		 mov	 esp, ebp
  002eb	5d		 pop	 ebp
  002ec	c3		 ret	 0
??$_Insertion_sort_unchecked@PAUSGuildMemberData@CPythonGuild@@UCPythonGuild_SLessMemberGrade@@@std@@YAPAUSGuildMemberData@CPythonGuild@@QAU12@0UCPythonGuild_SLessMemberGrade@@@Z ENDP ; std::_Insertion_sort_unchecked<CPythonGuild::SGuildMemberData *,CPythonGuild_SLessMemberGrade>
_TEXT	ENDS
; Function compile flags: /Ogtp
; File C:\Program Files (x86)\Microsoft Visual Studio\2019\Community\VC\Tools\MSVC\14.28.29333\include\xmemory
;	COMDAT ??$_Uninitialized_move@PAUSGuildMemberData@CPythonGuild@@V?$allocator@USGuildMemberData@CPythonGuild@@@std@@@std@@YAPAUSGuildMemberData@CPythonGuild@@QAU12@0PAU12@AAV?$allocator@USGuildMemberData@CPythonGuild@@@0@@Z
_TEXT	SEGMENT
__First$ = 8						; size = 4
__Last$ = 12						; size = 4
__Dest$ = 16						; size = 4
__Al$ = 20						; size = 4
??$_Uninitialized_move@PAUSGuildMemberData@CPythonGuild@@V?$allocator@USGuildMemberData@CPythonGuild@@@std@@@std@@YAPAUSGuildMemberData@CPythonGuild@@QAU12@0PAU12@AAV?$allocator@USGuildMemberData@CPythonGuild@@@0@@Z PROC ; std::_Uninitialized_move<CPythonGuild::SGuildMemberData *,std::allocator<CPythonGuild::SGuildMemberData> >, COMDAT

; 1685 :     const _InIt _First, const _InIt _Last, _Alloc_ptr_t<_Alloc> _Dest, _Alloc& _Al) {

  00000	55		 push	 ebp
  00001	8b ec		 mov	 ebp, esp
  00003	53		 push	 ebx

; 1686 :     // move [_First, _Last) to raw _Dest, using _Al
; 1687 :     // note: only called internally from elsewhere in the STL
; 1688 :     using _Ptrval     = typename _Alloc::value_type*;
; 1689 :     auto _UFirst      = _Get_unwrapped(_First);
; 1690 :     const auto _ULast = _Get_unwrapped(_Last);
; 1691 :     if constexpr (conjunction_v<bool_constant<_Ptr_move_cat<decltype(_UFirst), _Ptrval>::_Really_trivial>,
; 1692 :                       _Uses_default_construct<_Alloc, _Ptrval, decltype(_STD move(*_UFirst))>>) {
; 1693 :         _Copy_memmove(_UFirst, _ULast, _Unfancy(_Dest));
; 1694 :         return _Dest + (_ULast - _UFirst);
; 1695 :     } else {
; 1696 :         _Uninitialized_backout_al<_Alloc> _Backout{_Dest, _Al};
; 1697 :         for (; _UFirst != _ULast; ++_UFirst) {

  00004	8b 5d 0c	 mov	 ebx, DWORD PTR __Last$[ebp]
  00007	56		 push	 esi
  00008	8b 75 08	 mov	 esi, DWORD PTR __First$[ebp]
  0000b	57		 push	 edi

; 1535 :     _Uninitialized_backout_al(pointer _Dest, _Alloc& _Al_) : _First(_Dest), _Last(_Dest), _Al(_Al_) {}

  0000c	8b 7d 10	 mov	 edi, DWORD PTR __Dest$[ebp]

; 1686 :     // move [_First, _Last) to raw _Dest, using _Al
; 1687 :     // note: only called internally from elsewhere in the STL
; 1688 :     using _Ptrval     = typename _Alloc::value_type*;
; 1689 :     auto _UFirst      = _Get_unwrapped(_First);
; 1690 :     const auto _ULast = _Get_unwrapped(_Last);
; 1691 :     if constexpr (conjunction_v<bool_constant<_Ptr_move_cat<decltype(_UFirst), _Ptrval>::_Really_trivial>,
; 1692 :                       _Uses_default_construct<_Alloc, _Ptrval, decltype(_STD move(*_UFirst))>>) {
; 1693 :         _Copy_memmove(_UFirst, _ULast, _Unfancy(_Dest));
; 1694 :         return _Dest + (_ULast - _UFirst);
; 1695 :     } else {
; 1696 :         _Uninitialized_backout_al<_Alloc> _Backout{_Dest, _Al};
; 1697 :         for (; _UFirst != _ULast; ++_UFirst) {

  0000f	3b f3		 cmp	 esi, ebx
  00011	74 12		 je	 SHORT $LN3@Uninitiali
$LL4@Uninitiali:

; 701  :         ::new (const_cast<void*>(static_cast<const volatile void*>(_Ptr))) _Objty(_STD forward<_Types>(_Args)...);

  00013	56		 push	 esi
  00014	8b cf		 mov	 ecx, edi
  00016	e8 00 00 00 00	 call	 ??0SGuildMemberData@CPythonGuild@@QAE@$$QAU01@@Z

; 1547 :         ++_Last;

  0001b	83 c6 24	 add	 esi, 36			; 00000024H
  0001e	83 c7 24	 add	 edi, 36			; 00000024H

; 1686 :     // move [_First, _Last) to raw _Dest, using _Al
; 1687 :     // note: only called internally from elsewhere in the STL
; 1688 :     using _Ptrval     = typename _Alloc::value_type*;
; 1689 :     auto _UFirst      = _Get_unwrapped(_First);
; 1690 :     const auto _ULast = _Get_unwrapped(_Last);
; 1691 :     if constexpr (conjunction_v<bool_constant<_Ptr_move_cat<decltype(_UFirst), _Ptrval>::_Really_trivial>,
; 1692 :                       _Uses_default_construct<_Alloc, _Ptrval, decltype(_STD move(*_UFirst))>>) {
; 1693 :         _Copy_memmove(_UFirst, _ULast, _Unfancy(_Dest));
; 1694 :         return _Dest + (_ULast - _UFirst);
; 1695 :     } else {
; 1696 :         _Uninitialized_backout_al<_Alloc> _Backout{_Dest, _Al};
; 1697 :         for (; _UFirst != _ULast; ++_UFirst) {

  00021	3b f3		 cmp	 esi, ebx
  00023	75 ee		 jne	 SHORT $LL4@Uninitiali
$LN3@Uninitiali:

; 1541 :         _Destroy_range(_First, _Last, _Al);

  00025	ff 75 14	 push	 DWORD PTR __Al$[ebp]
  00028	57		 push	 edi
  00029	57		 push	 edi
  0002a	e8 00 00 00 00	 call	 ??$_Destroy_range@V?$allocator@USGuildMemberData@CPythonGuild@@@std@@@std@@YAXPAUSGuildMemberData@CPythonGuild@@QAU12@AAV?$allocator@USGuildMemberData@CPythonGuild@@@0@@Z ; std::_Destroy_range<std::allocator<CPythonGuild::SGuildMemberData> >
  0002f	83 c4 0c	 add	 esp, 12			; 0000000cH

; 1698 :             _Backout._Emplace_back(_STD move(*_UFirst));
; 1699 :         }
; 1700 : 
; 1701 :         return _Backout._Release();

  00032	8b c7		 mov	 eax, edi
  00034	5f		 pop	 edi
  00035	5e		 pop	 esi
  00036	5b		 pop	 ebx

; 1702 :     }
; 1703 : }

  00037	5d		 pop	 ebp
  00038	c3		 ret	 0
??$_Uninitialized_move@PAUSGuildMemberData@CPythonGuild@@V?$allocator@USGuildMemberData@CPythonGuild@@@std@@@std@@YAPAUSGuildMemberData@CPythonGuild@@QAU12@0PAU12@AAV?$allocator@USGuildMemberData@CPythonGuild@@@0@@Z ENDP ; std::_Uninitialized_move<CPythonGuild::SGuildMemberData *,std::allocator<CPythonGuild::SGuildMemberData> >
_TEXT	ENDS
; Function compile flags: /Ogtp
; File C:\Program Files (x86)\Microsoft Visual Studio\2019\Community\VC\Tools\MSVC\14.28.29333\include\xmemory
; File C:\Program Files (x86)\Microsoft Visual Studio\2019\Community\VC\Tools\MSVC\14.28.29333\include\xstring
; File C:\Program Files (x86)\Microsoft Visual Studio\2019\Community\VC\Tools\MSVC\14.28.29333\include\xmemory
; File C:\Program Files (x86)\Microsoft Visual Studio\2019\Community\VC\Tools\MSVC\14.28.29333\include\xstring
; File C:\Program Files (x86)\Microsoft Visual Studio\2019\Community\VC\Tools\MSVC\14.28.29333\include\xmemory
; File C:\Program Files (x86)\Microsoft Visual Studio\2019\Community\VC\Tools\MSVC\14.28.29333\include\xstring
; File C:\Program Files (x86)\Microsoft Visual Studio\2019\Community\VC\Tools\MSVC\14.28.29333\include\xmemory
;	COMDAT ??$_Uninitialized_move@PAUSGuildBoardCommentData@CPythonGuild@@V?$allocator@USGuildBoardCommentData@CPythonGuild@@@std@@@std@@YAPAUSGuildBoardCommentData@CPythonGuild@@QAU12@0PAU12@AAV?$allocator@USGuildBoardCommentData@CPythonGuild@@@0@@Z
_TEXT	SEGMENT
__First$ = 8						; size = 4
__Last$ = 12						; size = 4
__Dest$ = 16						; size = 4
__Al$ = 20						; size = 4
??$_Uninitialized_move@PAUSGuildBoardCommentData@CPythonGuild@@V?$allocator@USGuildBoardCommentData@CPythonGuild@@@std@@@std@@YAPAUSGuildBoardCommentData@CPythonGuild@@QAU12@0PAU12@AAV?$allocator@USGuildBoardCommentData@CPythonGuild@@@0@@Z PROC ; std::_Uninitialized_move<CPythonGuild::SGuildBoardCommentData *,std::allocator<CPythonGuild::SGuildBoardCommentData> >, COMDAT

; 1685 :     const _InIt _First, const _InIt _Last, _Alloc_ptr_t<_Alloc> _Dest, _Alloc& _Al) {

  00000	55		 push	 ebp
  00001	8b ec		 mov	 ebp, esp

; 1697 :         for (; _UFirst != _ULast; ++_UFirst) {

  00003	8b 4d 08	 mov	 ecx, DWORD PTR __First$[ebp]
  00006	53		 push	 ebx
  00007	8b 5d 0c	 mov	 ebx, DWORD PTR __Last$[ebp]
  0000a	56		 push	 esi

; 1535 :     _Uninitialized_backout_al(pointer _Dest, _Alloc& _Al_) : _First(_Dest), _Last(_Dest), _Al(_Al_) {}

  0000b	8b 75 10	 mov	 esi, DWORD PTR __Dest$[ebp]

; 1697 :         for (; _UFirst != _ULast; ++_UFirst) {

  0000e	3b cb		 cmp	 ecx, ebx
  00010	0f 84 86 00 00
	00		 je	 $LN3@Uninitiali

; 1535 :     _Uninitialized_backout_al(pointer _Dest, _Alloc& _Al_) : _First(_Dest), _Last(_Dest), _Al(_Al_) {}

  00016	57		 push	 edi
  00017	8b fe		 mov	 edi, esi
  00019	8d 56 2c	 lea	 edx, DWORD PTR [esi+44]
  0001c	8d 41 18	 lea	 eax, DWORD PTR [ecx+24]
  0001f	2b f9		 sub	 edi, ecx
$LL4@Uninitiali:
  00021	8b 48 e8	 mov	 ecx, DWORD PTR [eax-24]

; 1547 :         ++_Last;

  00024	8d 40 34	 lea	 eax, DWORD PTR [eax+52]
  00027	89 0e		 mov	 DWORD PTR [esi], ecx
  00029	8d 52 34	 lea	 edx, DWORD PTR [edx+52]
; File C:\Program Files (x86)\Microsoft Visual Studio\2019\Community\VC\Tools\MSVC\14.28.29333\include\xstring

; 2198 :     _String_val() noexcept : _Bx(), _Mysize(0), _Myres(0) {}

  0002c	c7 42 b4 00 00
	00 00		 mov	 DWORD PTR [edx-76], 0
; File C:\Program Files (x86)\Microsoft Visual Studio\2019\Community\VC\Tools\MSVC\14.28.29333\include\xmemory

; 1697 :         for (; _UFirst != _ULast; ++_UFirst) {

  00033	8d 48 e8	 lea	 ecx, DWORD PTR [eax-24]
; File C:\Program Files (x86)\Microsoft Visual Studio\2019\Community\VC\Tools\MSVC\14.28.29333\include\xstring

; 2198 :     _String_val() noexcept : _Bx(), _Mysize(0), _Myres(0) {}

  00036	c7 44 07 cc 00
	00 00 00	 mov	 DWORD PTR [edi+eax-52], 0
; File C:\Program Files (x86)\Microsoft Visual Studio\2019\Community\VC\Tools\MSVC\14.28.29333\include\xmemory

; 1547 :         ++_Last;

  0003e	83 c6 34	 add	 esi, 52			; 00000034H
; File C:\Program Files (x86)\Microsoft Visual Studio\2019\Community\VC\Tools\MSVC\14.28.29333\include\xstring

; 2684 :         _CSTD memcpy(_My_data_mem, _Right_data_mem, _Memcpy_val_size);

  00041	0f 10 40 b8	 movups	 xmm0, XMMWORD PTR [eax-72]
  00045	0f 11 42 a4	 movups	 XMMWORD PTR [edx-92], xmm0
  00049	f3 0f 7e 40 c8	 movq	 xmm0, QWORD PTR [eax-56]
  0004e	66 0f d6 42 b4	 movq	 QWORD PTR [edx-76], xmm0

; 4377 :         _Mypair._Myval2._Mysize = 0;

  00053	c7 40 c8 00 00
	00 00		 mov	 DWORD PTR [eax-56], 0

; 4378 :         _Mypair._Myval2._Myres  = _BUF_SIZE - 1;

  0005a	c7 40 cc 0f 00
	00 00		 mov	 DWORD PTR [eax-52], 15	; 0000000fH

; 4379 :         // the _Traits::assign is last so the codegen doesn't think the char write can alias this
; 4380 :         _Traits::assign(_Mypair._Myval2._Bx._Buf[0], _Elem());

  00061	c6 40 b8 00	 mov	 BYTE PTR [eax-72], 0

; 2198 :     _String_val() noexcept : _Bx(), _Mysize(0), _Myres(0) {}

  00065	c7 42 cc 00 00
	00 00		 mov	 DWORD PTR [edx-52], 0
  0006c	c7 42 d0 00 00
	00 00		 mov	 DWORD PTR [edx-48], 0

; 2684 :         _CSTD memcpy(_My_data_mem, _Right_data_mem, _Memcpy_val_size);

  00073	0f 10 40 d0	 movups	 xmm0, XMMWORD PTR [eax-48]
  00077	0f 11 42 bc	 movups	 XMMWORD PTR [edx-68], xmm0
  0007b	f3 0f 7e 40 e0	 movq	 xmm0, QWORD PTR [eax-32]
  00080	66 0f d6 42 cc	 movq	 QWORD PTR [edx-52], xmm0

; 4377 :         _Mypair._Myval2._Mysize = 0;

  00085	c7 40 e0 00 00
	00 00		 mov	 DWORD PTR [eax-32], 0

; 4378 :         _Mypair._Myval2._Myres  = _BUF_SIZE - 1;

  0008c	c7 40 e4 0f 00
	00 00		 mov	 DWORD PTR [eax-28], 15	; 0000000fH

; 4379 :         // the _Traits::assign is last so the codegen doesn't think the char write can alias this
; 4380 :         _Traits::assign(_Mypair._Myval2._Bx._Buf[0], _Elem());

  00093	c6 40 d0 00	 mov	 BYTE PTR [eax-48], 0
; File C:\Program Files (x86)\Microsoft Visual Studio\2019\Community\VC\Tools\MSVC\14.28.29333\include\xmemory

; 1697 :         for (; _UFirst != _ULast; ++_UFirst) {

  00097	3b cb		 cmp	 ecx, ebx
  00099	75 86		 jne	 SHORT $LL4@Uninitiali
  0009b	5f		 pop	 edi
$LN3@Uninitiali:

; 1541 :         _Destroy_range(_First, _Last, _Al);

  0009c	ff 75 14	 push	 DWORD PTR __Al$[ebp]
  0009f	56		 push	 esi
  000a0	56		 push	 esi
  000a1	e8 00 00 00 00	 call	 ??$_Destroy_range@V?$allocator@USGuildBoardCommentData@CPythonGuild@@@std@@@std@@YAXPAUSGuildBoardCommentData@CPythonGuild@@QAU12@AAV?$allocator@USGuildBoardCommentData@CPythonGuild@@@0@@Z ; std::_Destroy_range<std::allocator<CPythonGuild::SGuildBoardCommentData> >
  000a6	83 c4 0c	 add	 esp, 12			; 0000000cH

; 1698 :             _Backout._Emplace_back(_STD move(*_UFirst));
; 1699 :         }
; 1700 : 
; 1701 :         return _Backout._Release();

  000a9	8b c6		 mov	 eax, esi
  000ab	5e		 pop	 esi
  000ac	5b		 pop	 ebx

; 1702 :     }
; 1703 : }

  000ad	5d		 pop	 ebp
  000ae	c3		 ret	 0
??$_Uninitialized_move@PAUSGuildBoardCommentData@CPythonGuild@@V?$allocator@USGuildBoardCommentData@CPythonGuild@@@std@@@std@@YAPAUSGuildBoardCommentData@CPythonGuild@@QAU12@0PAU12@AAV?$allocator@USGuildBoardCommentData@CPythonGuild@@@0@@Z ENDP ; std::_Uninitialized_move<CPythonGuild::SGuildBoardCommentData *,std::allocator<CPythonGuild::SGuildBoardCommentData> >
_TEXT	ENDS
; Function compile flags: /Ogtp
; File C:\Program Files (x86)\Microsoft Visual Studio\2019\Community\VC\Tools\MSVC\14.28.29333\include\xmemory
;	COMDAT ??$_Destroy_in_place@PAU?$_Tree_node@U?$pair@$$CBEUSGuildGradeData@CPythonGuild@@@std@@PAX@std@@@std@@YAXAAPAU?$_Tree_node@U?$pair@$$CBEUSGuildGradeData@CPythonGuild@@@std@@PAX@0@@Z
_TEXT	SEGMENT
__Obj$ = 8						; size = 4
??$_Destroy_in_place@PAU?$_Tree_node@U?$pair@$$CBEUSGuildGradeData@CPythonGuild@@@std@@PAX@std@@@std@@YAXAAPAU?$_Tree_node@U?$pair@$$CBEUSGuildGradeData@CPythonGuild@@@std@@PAX@0@@Z PROC ; std::_Destroy_in_place<std::_Tree_node<std::pair<unsigned char const ,CPythonGuild::SGuildGradeData>,void *> *>, COMDAT

; 271  : #if _HAS_IF_CONSTEXPR
; 272  :     if constexpr (is_array_v<_Ty>) {
; 273  :         _Destroy_range(_Obj, _Obj + extent_v<_Ty>);
; 274  :     } else
; 275  : #endif // _HAS_IF_CONSTEXPR
; 276  :     {
; 277  :         _Obj.~_Ty();
; 278  :     }
; 279  : }

  00000	c2 00 00	 ret	 0
??$_Destroy_in_place@PAU?$_Tree_node@U?$pair@$$CBEUSGuildGradeData@CPythonGuild@@@std@@PAX@std@@@std@@YAXAAPAU?$_Tree_node@U?$pair@$$CBEUSGuildGradeData@CPythonGuild@@@std@@PAX@0@@Z ENDP ; std::_Destroy_in_place<std::_Tree_node<std::pair<unsigned char const ,CPythonGuild::SGuildGradeData>,void *> *>
_TEXT	ENDS
; Function compile flags: /Ogtp
; File C:\Program Files (x86)\Microsoft Visual Studio\2019\Community\VC\Tools\MSVC\14.28.29333\include\xmemory
;	COMDAT ??$_Destroy_in_place@PAU?$_Tree_node@U?$pair@$$CBKV?$basic_string@DU?$char_traits@D@std@@V?$allocator@D@2@@std@@@std@@PAX@std@@@std@@YAXAAPAU?$_Tree_node@U?$pair@$$CBKV?$basic_string@DU?$char_traits@D@std@@V?$allocator@D@2@@std@@@std@@PAX@0@@Z
_TEXT	SEGMENT
__Obj$ = 8						; size = 4
??$_Destroy_in_place@PAU?$_Tree_node@U?$pair@$$CBKV?$basic_string@DU?$char_traits@D@std@@V?$allocator@D@2@@std@@@std@@PAX@std@@@std@@YAXAAPAU?$_Tree_node@U?$pair@$$CBKV?$basic_string@DU?$char_traits@D@std@@V?$allocator@D@2@@std@@@std@@PAX@0@@Z PROC ; std::_Destroy_in_place<std::_Tree_node<std::pair<unsigned long const ,std::basic_string<char,std::char_traits<char>,std::allocator<char> > >,void *> *>, COMDAT

; 271  : #if _HAS_IF_CONSTEXPR
; 272  :     if constexpr (is_array_v<_Ty>) {
; 273  :         _Destroy_range(_Obj, _Obj + extent_v<_Ty>);
; 274  :     } else
; 275  : #endif // _HAS_IF_CONSTEXPR
; 276  :     {
; 277  :         _Obj.~_Ty();
; 278  :     }
; 279  : }

  00000	c2 00 00	 ret	 0
??$_Destroy_in_place@PAU?$_Tree_node@U?$pair@$$CBKV?$basic_string@DU?$char_traits@D@std@@V?$allocator@D@2@@std@@@std@@PAX@std@@@std@@YAXAAPAU?$_Tree_node@U?$pair@$$CBKV?$basic_string@DU?$char_traits@D@std@@V?$allocator@D@2@@std@@@std@@PAX@0@@Z ENDP ; std::_Destroy_in_place<std::_Tree_node<std::pair<unsigned long const ,std::basic_string<char,std::char_traits<char>,std::allocator<char> > >,void *> *>
_TEXT	ENDS
; Function compile flags: /Ogtp
; File C:\Program Files (x86)\Microsoft Visual Studio\2019\Community\VC\Tools\MSVC\14.28.29333\include\xmemory
;	COMDAT ??$_Construct_in_place@PAU?$_Tree_node@U?$pair@$$CBKV?$basic_string@DU?$char_traits@D@std@@V?$allocator@D@2@@std@@@std@@PAX@std@@ABQAU12@@std@@YAXAAPAU?$_Tree_node@U?$pair@$$CBKV?$basic_string@DU?$char_traits@D@std@@V?$allocator@D@2@@std@@@std@@PAX@0@ABQAU10@@Z
_TEXT	SEGMENT
__Obj$ = 8						; size = 4
_<_Args_0>$ = 12					; size = 4
??$_Construct_in_place@PAU?$_Tree_node@U?$pair@$$CBKV?$basic_string@DU?$char_traits@D@std@@V?$allocator@D@2@@std@@@std@@PAX@std@@ABQAU12@@std@@YAXAAPAU?$_Tree_node@U?$pair@$$CBKV?$basic_string@DU?$char_traits@D@std@@V?$allocator@D@2@@std@@@std@@PAX@0@ABQAU10@@Z PROC ; std::_Construct_in_place<std::_Tree_node<std::pair<unsigned long const ,std::basic_string<char,std::char_traits<char>,std::allocator<char> > >,void *> *,std::_Tree_node<std::pair<unsigned long const ,std::basic_string<char,std::char_traits<char>,std::allocator<char> > >,void *> * const &>, COMDAT

; 228  : void _Construct_in_place(_Ty& _Obj, _Types&&... _Args) noexcept(is_nothrow_constructible_v<_Ty, _Types...>) {

  00000	55		 push	 ebp
  00001	8b ec		 mov	 ebp, esp

; 229  :     ::new (const_cast<void*>(static_cast<const volatile void*>(_STD addressof(_Obj))))

  00003	8b 45 0c	 mov	 eax, DWORD PTR _<_Args_0>$[ebp]
  00006	8b 08		 mov	 ecx, DWORD PTR [eax]
  00008	8b 45 08	 mov	 eax, DWORD PTR __Obj$[ebp]
  0000b	89 08		 mov	 DWORD PTR [eax], ecx

; 230  :         _Ty(_STD forward<_Types>(_Args)...);
; 231  : }

  0000d	5d		 pop	 ebp
  0000e	c3		 ret	 0
??$_Construct_in_place@PAU?$_Tree_node@U?$pair@$$CBKV?$basic_string@DU?$char_traits@D@std@@V?$allocator@D@2@@std@@@std@@PAX@std@@ABQAU12@@std@@YAXAAPAU?$_Tree_node@U?$pair@$$CBKV?$basic_string@DU?$char_traits@D@std@@V?$allocator@D@2@@std@@@std@@PAX@0@ABQAU10@@Z ENDP ; std::_Construct_in_place<std::_Tree_node<std::pair<unsigned long const ,std::basic_string<char,std::char_traits<char>,std::allocator<char> > >,void *> *,std::_Tree_node<std::pair<unsigned long const ,std::basic_string<char,std::char_traits<char>,std::allocator<char> > >,void *> * const &>
_TEXT	ENDS
; Function compile flags: /Ogtp
; File C:\Program Files (x86)\Microsoft Visual Studio\2019\Community\VC\Tools\MSVC\14.28.29333\include\xmemory
;	COMDAT ??$_Construct_in_place@PAU?$_Tree_node@U?$pair@$$CBKK@std@@PAX@std@@ABQAU12@@std@@YAXAAPAU?$_Tree_node@U?$pair@$$CBKK@std@@PAX@0@ABQAU10@@Z
_TEXT	SEGMENT
__Obj$ = 8						; size = 4
_<_Args_0>$ = 12					; size = 4
??$_Construct_in_place@PAU?$_Tree_node@U?$pair@$$CBKK@std@@PAX@std@@ABQAU12@@std@@YAXAAPAU?$_Tree_node@U?$pair@$$CBKK@std@@PAX@0@ABQAU10@@Z PROC ; std::_Construct_in_place<std::_Tree_node<std::pair<unsigned long const ,unsigned long>,void *> *,std::_Tree_node<std::pair<unsigned long const ,unsigned long>,void *> * const &>, COMDAT

; 228  : void _Construct_in_place(_Ty& _Obj, _Types&&... _Args) noexcept(is_nothrow_constructible_v<_Ty, _Types...>) {

  00000	55		 push	 ebp
  00001	8b ec		 mov	 ebp, esp

; 229  :     ::new (const_cast<void*>(static_cast<const volatile void*>(_STD addressof(_Obj))))

  00003	8b 45 0c	 mov	 eax, DWORD PTR _<_Args_0>$[ebp]
  00006	8b 08		 mov	 ecx, DWORD PTR [eax]
  00008	8b 45 08	 mov	 eax, DWORD PTR __Obj$[ebp]
  0000b	89 08		 mov	 DWORD PTR [eax], ecx

; 230  :         _Ty(_STD forward<_Types>(_Args)...);
; 231  : }

  0000d	5d		 pop	 ebp
  0000e	c3		 ret	 0
??$_Construct_in_place@PAU?$_Tree_node@U?$pair@$$CBKK@std@@PAX@std@@ABQAU12@@std@@YAXAAPAU?$_Tree_node@U?$pair@$$CBKK@std@@PAX@0@ABQAU10@@Z ENDP ; std::_Construct_in_place<std::_Tree_node<std::pair<unsigned long const ,unsigned long>,void *> *,std::_Tree_node<std::pair<unsigned long const ,unsigned long>,void *> * const &>
_TEXT	ENDS
; Function compile flags: /Ogtp
; File C:\Program Files (x86)\Microsoft Visual Studio\2019\Community\VC\Tools\MSVC\14.28.29333\include\xmemory
;	COMDAT ??$_Construct_in_place@PAU?$_Tree_node@U?$pair@$$CBEUSGuildGradeData@CPythonGuild@@@std@@PAX@std@@ABQAU12@@std@@YAXAAPAU?$_Tree_node@U?$pair@$$CBEUSGuildGradeData@CPythonGuild@@@std@@PAX@0@ABQAU10@@Z
_TEXT	SEGMENT
__Obj$ = 8						; size = 4
_<_Args_0>$ = 12					; size = 4
??$_Construct_in_place@PAU?$_Tree_node@U?$pair@$$CBEUSGuildGradeData@CPythonGuild@@@std@@PAX@std@@ABQAU12@@std@@YAXAAPAU?$_Tree_node@U?$pair@$$CBEUSGuildGradeData@CPythonGuild@@@std@@PAX@0@ABQAU10@@Z PROC ; std::_Construct_in_place<std::_Tree_node<std::pair<unsigned char const ,CPythonGuild::SGuildGradeData>,void *> *,std::_Tree_node<std::pair<unsigned char const ,CPythonGuild::SGuildGradeData>,void *> * const &>, COMDAT

; 228  : void _Construct_in_place(_Ty& _Obj, _Types&&... _Args) noexcept(is_nothrow_constructible_v<_Ty, _Types...>) {

  00000	55		 push	 ebp
  00001	8b ec		 mov	 ebp, esp

; 229  :     ::new (const_cast<void*>(static_cast<const volatile void*>(_STD addressof(_Obj))))

  00003	8b 45 0c	 mov	 eax, DWORD PTR _<_Args_0>$[ebp]
  00006	8b 08		 mov	 ecx, DWORD PTR [eax]
  00008	8b 45 08	 mov	 eax, DWORD PTR __Obj$[ebp]
  0000b	89 08		 mov	 DWORD PTR [eax], ecx

; 230  :         _Ty(_STD forward<_Types>(_Args)...);
; 231  : }

  0000d	5d		 pop	 ebp
  0000e	c3		 ret	 0
??$_Construct_in_place@PAU?$_Tree_node@U?$pair@$$CBEUSGuildGradeData@CPythonGuild@@@std@@PAX@std@@ABQAU12@@std@@YAXAAPAU?$_Tree_node@U?$pair@$$CBEUSGuildGradeData@CPythonGuild@@@std@@PAX@0@ABQAU10@@Z ENDP ; std::_Construct_in_place<std::_Tree_node<std::pair<unsigned char const ,CPythonGuild::SGuildGradeData>,void *> *,std::_Tree_node<std::pair<unsigned char const ,CPythonGuild::SGuildGradeData>,void *> * const &>
_TEXT	ENDS
; Function compile flags: /Ogtp
; File C:\Program Files (x86)\Microsoft Visual Studio\2019\Community\VC\Tools\MSVC\14.28.29333\include\xmemory
;	COMDAT ??1?$_Alloc_construct_ptr@V?$allocator@U?$_Tree_node@U?$pair@$$CBKV?$basic_string@DU?$char_traits@D@std@@V?$allocator@D@2@@std@@@std@@PAX@std@@@std@@@std@@QAE@XZ
_TEXT	SEGMENT
??1?$_Alloc_construct_ptr@V?$allocator@U?$_Tree_node@U?$pair@$$CBKV?$basic_string@DU?$char_traits@D@std@@V?$allocator@D@2@@std@@@std@@PAX@std@@@std@@@std@@QAE@XZ PROC ; std::_Alloc_construct_ptr<std::allocator<std::_Tree_node<std::pair<unsigned long const ,std::basic_string<char,std::char_traits<char>,std::allocator<char> > >,void *> > >::~_Alloc_construct_ptr<std::allocator<std::_Tree_node<std::pair<unsigned long const ,std::basic_string<char,std::char_traits<char>,std::allocator<char> > >,void *> > >, COMDAT
; _this$ = ecx

; 1057 :         if (_Ptr) {

  00000	8b 41 04	 mov	 eax, DWORD PTR [ecx+4]
  00003	85 c0		 test	 eax, eax
  00005	74 0b		 je	 SHORT $LN2@Alloc_cons

; 810  :         _Deallocate<_New_alignof<_Ty>>(_Ptr, sizeof(_Ty) * _Count);

  00007	6a 2c		 push	 44			; 0000002cH
  00009	50		 push	 eax
  0000a	e8 00 00 00 00	 call	 ??$_Deallocate@$07$0A@@std@@YAXPAXI@Z ; std::_Deallocate<8,0>
  0000f	83 c4 08	 add	 esp, 8
$LN2@Alloc_cons:

; 1058 :             _Al.deallocate(_Ptr, 1);
; 1059 :         }
; 1060 :     }

  00012	c3		 ret	 0
??1?$_Alloc_construct_ptr@V?$allocator@U?$_Tree_node@U?$pair@$$CBKV?$basic_string@DU?$char_traits@D@std@@V?$allocator@D@2@@std@@@std@@PAX@std@@@std@@@std@@QAE@XZ ENDP ; std::_Alloc_construct_ptr<std::allocator<std::_Tree_node<std::pair<unsigned long const ,std::basic_string<char,std::char_traits<char>,std::allocator<char> > >,void *> > >::~_Alloc_construct_ptr<std::allocator<std::_Tree_node<std::pair<unsigned long const ,std::basic_string<char,std::char_traits<char>,std::allocator<char> > >,void *> > >
_TEXT	ENDS
; Function compile flags: /Ogtp
; File C:\Program Files (x86)\Microsoft Visual Studio\2019\Community\VC\Tools\MSVC\14.28.29333\include\xtree
; File C:\Program Files (x86)\Microsoft Visual Studio\2019\Community\VC\Tools\MSVC\14.28.29333\include\xstddef
; File C:\Program Files (x86)\Microsoft Visual Studio\2019\Community\VC\Tools\MSVC\14.28.29333\include\xtree
; File C:\Program Files (x86)\Microsoft Visual Studio\2019\Community\VC\Tools\MSVC\14.28.29333\include\xstddef
; File C:\Program Files (x86)\Microsoft Visual Studio\2019\Community\VC\Tools\MSVC\14.28.29333\include\xtree
;	COMDAT ??$_Find_lower_bound@K@?$_Tree@V?$_Tmap_traits@KV?$basic_string@DU?$char_traits@D@std@@V?$allocator@D@2@@std@@U?$less@K@2@V?$allocator@U?$pair@$$CBKV?$basic_string@DU?$char_traits@D@std@@V?$allocator@D@2@@std@@@std@@@2@$0A@@std@@@std@@IBE?AU?$_Tree_find_result@PAU?$_Tree_node@U?$pair@$$CBKV?$basic_string@DU?$char_traits@D@std@@V?$allocator@D@2@@std@@@std@@PAX@std@@@1@ABK@Z
_TEXT	SEGMENT
___$ReturnUdt$ = 8					; size = 4
__Keyval$ = 12						; size = 4
??$_Find_lower_bound@K@?$_Tree@V?$_Tmap_traits@KV?$basic_string@DU?$char_traits@D@std@@V?$allocator@D@2@@std@@U?$less@K@2@V?$allocator@U?$pair@$$CBKV?$basic_string@DU?$char_traits@D@std@@V?$allocator@D@2@@std@@@std@@@2@$0A@@std@@@std@@IBE?AU?$_Tree_find_result@PAU?$_Tree_node@U?$pair@$$CBKV?$basic_string@DU?$char_traits@D@std@@V?$allocator@D@2@@std@@@std@@PAX@std@@@1@ABK@Z PROC ; std::_Tree<std::_Tmap_traits<unsigned long,std::basic_string<char,std::char_traits<char>,std::allocator<char> >,std::less<unsigned long>,std::allocator<std::pair<unsigned long const ,std::basic_string<char,std::char_traits<char>,std::allocator<char> > > >,0> >::_Find_lower_bound<unsigned long>, COMDAT
; _this$ = ecx

; 1699 :     _Tree_find_result<_Nodeptr> _Find_lower_bound(const _Keyty& _Keyval) const {

  00000	55		 push	 ebp
  00001	8b ec		 mov	 ebp, esp

; 1700 :         const auto _Scary = _Get_scary();
; 1701 :         _Tree_find_result<_Nodeptr> _Result{{_Scary->_Myhead->_Parent, _Tree_child::_Right}, _Scary->_Myhead};

  00003	8b 09		 mov	 ecx, DWORD PTR [ecx]
  00005	8b 55 08	 mov	 edx, DWORD PTR ___$ReturnUdt$[ebp]
  00008	8b 41 04	 mov	 eax, DWORD PTR [ecx+4]
  0000b	89 02		 mov	 DWORD PTR [edx], eax
  0000d	c7 42 04 00 00
	00 00		 mov	 DWORD PTR [edx+4], 0
  00014	89 4a 08	 mov	 DWORD PTR [edx+8], ecx

; 1702 :         _Nodeptr _Trynode = _Result._Location._Parent;
; 1703 :         while (!_Trynode->_Isnil) {

  00017	80 78 0d 00	 cmp	 BYTE PTR [eax+13], 0
  0001b	75 28		 jne	 SHORT $LN12@Find_lower
; File C:\Program Files (x86)\Microsoft Visual Studio\2019\Community\VC\Tools\MSVC\14.28.29333\include\xstddef

; 127  :         return _Left < _Right;

  0001d	8b 4d 0c	 mov	 ecx, DWORD PTR __Keyval$[ebp]
  00020	56		 push	 esi
  00021	8b 31		 mov	 esi, DWORD PTR [ecx]
$LL2@Find_lower:
; File C:\Program Files (x86)\Microsoft Visual Studio\2019\Community\VC\Tools\MSVC\14.28.29333\include\xtree

; 1704 :             _Result._Location._Parent = _Trynode;

  00023	89 02		 mov	 DWORD PTR [edx], eax
; File C:\Program Files (x86)\Microsoft Visual Studio\2019\Community\VC\Tools\MSVC\14.28.29333\include\xstddef

; 127  :         return _Left < _Right;

  00025	39 70 10	 cmp	 DWORD PTR [eax+16], esi
; File C:\Program Files (x86)\Microsoft Visual Studio\2019\Community\VC\Tools\MSVC\14.28.29333\include\xtree

; 1705 :             if (_DEBUG_LT_PRED(_Getcomp(), _Traits::_Kfn(_Trynode->_Myval), _Keyval)) {

  00028	73 07		 jae	 SHORT $LN4@Find_lower

; 1706 :                 _Result._Location._Child = _Tree_child::_Right;
; 1707 :                 _Trynode                 = _Trynode->_Right;

  0002a	8b 40 08	 mov	 eax, DWORD PTR [eax+8]
  0002d	33 c9		 xor	 ecx, ecx

; 1708 :             } else {

  0002f	eb 0a		 jmp	 SHORT $LN5@Find_lower
$LN4@Find_lower:

; 1709 :                 _Result._Location._Child = _Tree_child::_Left;
; 1710 :                 _Result._Bound           = _Trynode;

  00031	89 42 08	 mov	 DWORD PTR [edx+8], eax

; 1711 :                 _Trynode                 = _Trynode->_Left;

  00034	b9 01 00 00 00	 mov	 ecx, 1
  00039	8b 00		 mov	 eax, DWORD PTR [eax]
$LN5@Find_lower:

; 1702 :         _Nodeptr _Trynode = _Result._Location._Parent;
; 1703 :         while (!_Trynode->_Isnil) {

  0003b	89 4a 04	 mov	 DWORD PTR [edx+4], ecx
  0003e	80 78 0d 00	 cmp	 BYTE PTR [eax+13], 0
  00042	74 df		 je	 SHORT $LL2@Find_lower

; 1712 :             }
; 1713 :         }
; 1714 : 
; 1715 :         return _Result;

  00044	5e		 pop	 esi
$LN12@Find_lower:

; 1716 :     }

  00045	8b c2		 mov	 eax, edx
  00047	5d		 pop	 ebp
  00048	c2 08 00	 ret	 8
??$_Find_lower_bound@K@?$_Tree@V?$_Tmap_traits@KV?$basic_string@DU?$char_traits@D@std@@V?$allocator@D@2@@std@@U?$less@K@2@V?$allocator@U?$pair@$$CBKV?$basic_string@DU?$char_traits@D@std@@V?$allocator@D@2@@std@@@std@@@2@$0A@@std@@@std@@IBE?AU?$_Tree_find_result@PAU?$_Tree_node@U?$pair@$$CBKV?$basic_string@DU?$char_traits@D@std@@V?$allocator@D@2@@std@@@std@@PAX@std@@@1@ABK@Z ENDP ; std::_Tree<std::_Tmap_traits<unsigned long,std::basic_string<char,std::char_traits<char>,std::allocator<char> >,std::less<unsigned long>,std::allocator<std::pair<unsigned long const ,std::basic_string<char,std::char_traits<char>,std::allocator<char> > > >,0> >::_Find_lower_bound<unsigned long>
_TEXT	ENDS
; Function compile flags: /Ogtp
; File C:\Program Files (x86)\Microsoft Visual Studio\2019\Community\VC\Tools\MSVC\14.28.29333\include\xtree
; File C:\Program Files (x86)\Microsoft Visual Studio\2019\Community\VC\Tools\MSVC\14.28.29333\include\xstddef
; File C:\Program Files (x86)\Microsoft Visual Studio\2019\Community\VC\Tools\MSVC\14.28.29333\include\xtree
; File C:\Program Files (x86)\Microsoft Visual Studio\2019\Community\VC\Tools\MSVC\14.28.29333\include\xstddef
; File C:\Program Files (x86)\Microsoft Visual Studio\2019\Community\VC\Tools\MSVC\14.28.29333\include\xtree
;	COMDAT ??$_Find_lower_bound@K@?$_Tree@V?$_Tmap_traits@KKU?$less@K@std@@V?$allocator@U?$pair@$$CBKK@std@@@2@$0A@@std@@@std@@IBE?AU?$_Tree_find_result@PAU?$_Tree_node@U?$pair@$$CBKK@std@@PAX@std@@@1@ABK@Z
_TEXT	SEGMENT
___$ReturnUdt$ = 8					; size = 4
__Keyval$ = 12						; size = 4
??$_Find_lower_bound@K@?$_Tree@V?$_Tmap_traits@KKU?$less@K@std@@V?$allocator@U?$pair@$$CBKK@std@@@2@$0A@@std@@@std@@IBE?AU?$_Tree_find_result@PAU?$_Tree_node@U?$pair@$$CBKK@std@@PAX@std@@@1@ABK@Z PROC ; std::_Tree<std::_Tmap_traits<unsigned long,unsigned long,std::less<unsigned long>,std::allocator<std::pair<unsigned long const ,unsigned long> >,0> >::_Find_lower_bound<unsigned long>, COMDAT
; _this$ = ecx

; 1699 :     _Tree_find_result<_Nodeptr> _Find_lower_bound(const _Keyty& _Keyval) const {

  00000	55		 push	 ebp
  00001	8b ec		 mov	 ebp, esp

; 1700 :         const auto _Scary = _Get_scary();
; 1701 :         _Tree_find_result<_Nodeptr> _Result{{_Scary->_Myhead->_Parent, _Tree_child::_Right}, _Scary->_Myhead};

  00003	8b 09		 mov	 ecx, DWORD PTR [ecx]
  00005	8b 55 08	 mov	 edx, DWORD PTR ___$ReturnUdt$[ebp]
  00008	8b 41 04	 mov	 eax, DWORD PTR [ecx+4]
  0000b	89 02		 mov	 DWORD PTR [edx], eax
  0000d	c7 42 04 00 00
	00 00		 mov	 DWORD PTR [edx+4], 0
  00014	89 4a 08	 mov	 DWORD PTR [edx+8], ecx

; 1702 :         _Nodeptr _Trynode = _Result._Location._Parent;
; 1703 :         while (!_Trynode->_Isnil) {

  00017	80 78 0d 00	 cmp	 BYTE PTR [eax+13], 0
  0001b	75 28		 jne	 SHORT $LN12@Find_lower
; File C:\Program Files (x86)\Microsoft Visual Studio\2019\Community\VC\Tools\MSVC\14.28.29333\include\xstddef

; 127  :         return _Left < _Right;

  0001d	8b 4d 0c	 mov	 ecx, DWORD PTR __Keyval$[ebp]
  00020	56		 push	 esi
  00021	8b 31		 mov	 esi, DWORD PTR [ecx]
$LL2@Find_lower:
; File C:\Program Files (x86)\Microsoft Visual Studio\2019\Community\VC\Tools\MSVC\14.28.29333\include\xtree

; 1704 :             _Result._Location._Parent = _Trynode;

  00023	89 02		 mov	 DWORD PTR [edx], eax
; File C:\Program Files (x86)\Microsoft Visual Studio\2019\Community\VC\Tools\MSVC\14.28.29333\include\xstddef

; 127  :         return _Left < _Right;

  00025	39 70 10	 cmp	 DWORD PTR [eax+16], esi
; File C:\Program Files (x86)\Microsoft Visual Studio\2019\Community\VC\Tools\MSVC\14.28.29333\include\xtree

; 1705 :             if (_DEBUG_LT_PRED(_Getcomp(), _Traits::_Kfn(_Trynode->_Myval), _Keyval)) {

  00028	73 07		 jae	 SHORT $LN4@Find_lower

; 1706 :                 _Result._Location._Child = _Tree_child::_Right;
; 1707 :                 _Trynode                 = _Trynode->_Right;

  0002a	8b 40 08	 mov	 eax, DWORD PTR [eax+8]
  0002d	33 c9		 xor	 ecx, ecx

; 1708 :             } else {

  0002f	eb 0a		 jmp	 SHORT $LN5@Find_lower
$LN4@Find_lower:

; 1709 :                 _Result._Location._Child = _Tree_child::_Left;
; 1710 :                 _Result._Bound           = _Trynode;

  00031	89 42 08	 mov	 DWORD PTR [edx+8], eax

; 1711 :                 _Trynode                 = _Trynode->_Left;

  00034	b9 01 00 00 00	 mov	 ecx, 1
  00039	8b 00		 mov	 eax, DWORD PTR [eax]
$LN5@Find_lower:

; 1702 :         _Nodeptr _Trynode = _Result._Location._Parent;
; 1703 :         while (!_Trynode->_Isnil) {

  0003b	89 4a 04	 mov	 DWORD PTR [edx+4], ecx
  0003e	80 78 0d 00	 cmp	 BYTE PTR [eax+13], 0
  00042	74 df		 je	 SHORT $LL2@Find_lower

; 1712 :             }
; 1713 :         }
; 1714 : 
; 1715 :         return _Result;

  00044	5e		 pop	 esi
$LN12@Find_lower:

; 1716 :     }

  00045	8b c2		 mov	 eax, edx
  00047	5d		 pop	 ebp
  00048	c2 08 00	 ret	 8
??$_Find_lower_bound@K@?$_Tree@V?$_Tmap_traits@KKU?$less@K@std@@V?$allocator@U?$pair@$$CBKK@std@@@2@$0A@@std@@@std@@IBE?AU?$_Tree_find_result@PAU?$_Tree_node@U?$pair@$$CBKK@std@@PAX@std@@@1@ABK@Z ENDP ; std::_Tree<std::_Tmap_traits<unsigned long,unsigned long,std::less<unsigned long>,std::allocator<std::pair<unsigned long const ,unsigned long> >,0> >::_Find_lower_bound<unsigned long>
_TEXT	ENDS
; Function compile flags: /Ogtp
; File C:\Program Files (x86)\Microsoft Visual Studio\2019\Community\VC\Tools\MSVC\14.28.29333\include\xmemory
;	COMDAT ??1?$_Alloc_construct_ptr@V?$allocator@U?$_Tree_node@U?$pair@$$CBEUSGuildGradeData@CPythonGuild@@@std@@PAX@std@@@std@@@std@@QAE@XZ
_TEXT	SEGMENT
??1?$_Alloc_construct_ptr@V?$allocator@U?$_Tree_node@U?$pair@$$CBEUSGuildGradeData@CPythonGuild@@@std@@PAX@std@@@std@@@std@@QAE@XZ PROC ; std::_Alloc_construct_ptr<std::allocator<std::_Tree_node<std::pair<unsigned char const ,CPythonGuild::SGuildGradeData>,void *> > >::~_Alloc_construct_ptr<std::allocator<std::_Tree_node<std::pair<unsigned char const ,CPythonGuild::SGuildGradeData>,void *> > >, COMDAT
; _this$ = ecx

; 1057 :         if (_Ptr) {

  00000	8b 41 04	 mov	 eax, DWORD PTR [ecx+4]
  00003	85 c0		 test	 eax, eax
  00005	74 0b		 je	 SHORT $LN2@Alloc_cons

; 810  :         _Deallocate<_New_alignof<_Ty>>(_Ptr, sizeof(_Ty) * _Count);

  00007	6a 30		 push	 48			; 00000030H
  00009	50		 push	 eax
  0000a	e8 00 00 00 00	 call	 ??$_Deallocate@$07$0A@@std@@YAXPAXI@Z ; std::_Deallocate<8,0>
  0000f	83 c4 08	 add	 esp, 8
$LN2@Alloc_cons:

; 1058 :             _Al.deallocate(_Ptr, 1);
; 1059 :         }
; 1060 :     }

  00012	c3		 ret	 0
??1?$_Alloc_construct_ptr@V?$allocator@U?$_Tree_node@U?$pair@$$CBEUSGuildGradeData@CPythonGuild@@@std@@PAX@std@@@std@@@std@@QAE@XZ ENDP ; std::_Alloc_construct_ptr<std::allocator<std::_Tree_node<std::pair<unsigned char const ,CPythonGuild::SGuildGradeData>,void *> > >::~_Alloc_construct_ptr<std::allocator<std::_Tree_node<std::pair<unsigned char const ,CPythonGuild::SGuildGradeData>,void *> > >
_TEXT	ENDS
; Function compile flags: /Ogtp
; File C:\Program Files (x86)\Microsoft Visual Studio\2019\Community\VC\Tools\MSVC\14.28.29333\include\xtree
; File C:\Program Files (x86)\Microsoft Visual Studio\2019\Community\VC\Tools\MSVC\14.28.29333\include\xstddef
; File C:\Program Files (x86)\Microsoft Visual Studio\2019\Community\VC\Tools\MSVC\14.28.29333\include\xtree
; File C:\Program Files (x86)\Microsoft Visual Studio\2019\Community\VC\Tools\MSVC\14.28.29333\include\xstddef
; File C:\Program Files (x86)\Microsoft Visual Studio\2019\Community\VC\Tools\MSVC\14.28.29333\include\xtree
;	COMDAT ??$_Find_lower_bound@E@?$_Tree@V?$_Tmap_traits@EUSGuildGradeData@CPythonGuild@@U?$less@E@std@@V?$allocator@U?$pair@$$CBEUSGuildGradeData@CPythonGuild@@@std@@@4@$0A@@std@@@std@@IBE?AU?$_Tree_find_result@PAU?$_Tree_node@U?$pair@$$CBEUSGuildGradeData@CPythonGuild@@@std@@PAX@std@@@1@ABE@Z
_TEXT	SEGMENT
___$ReturnUdt$ = 8					; size = 4
__Keyval$ = 12						; size = 4
??$_Find_lower_bound@E@?$_Tree@V?$_Tmap_traits@EUSGuildGradeData@CPythonGuild@@U?$less@E@std@@V?$allocator@U?$pair@$$CBEUSGuildGradeData@CPythonGuild@@@std@@@4@$0A@@std@@@std@@IBE?AU?$_Tree_find_result@PAU?$_Tree_node@U?$pair@$$CBEUSGuildGradeData@CPythonGuild@@@std@@PAX@std@@@1@ABE@Z PROC ; std::_Tree<std::_Tmap_traits<unsigned char,CPythonGuild::SGuildGradeData,std::less<unsigned char>,std::allocator<std::pair<unsigned char const ,CPythonGuild::SGuildGradeData> >,0> >::_Find_lower_bound<unsigned char>, COMDAT
; _this$ = ecx

; 1699 :     _Tree_find_result<_Nodeptr> _Find_lower_bound(const _Keyty& _Keyval) const {

  00000	55		 push	 ebp
  00001	8b ec		 mov	 ebp, esp

; 1700 :         const auto _Scary = _Get_scary();
; 1701 :         _Tree_find_result<_Nodeptr> _Result{{_Scary->_Myhead->_Parent, _Tree_child::_Right}, _Scary->_Myhead};

  00003	8b 09		 mov	 ecx, DWORD PTR [ecx]
  00005	8b 55 08	 mov	 edx, DWORD PTR ___$ReturnUdt$[ebp]
  00008	8b 41 04	 mov	 eax, DWORD PTR [ecx+4]
  0000b	89 02		 mov	 DWORD PTR [edx], eax
  0000d	c7 42 04 00 00
	00 00		 mov	 DWORD PTR [edx+4], 0
  00014	89 4a 08	 mov	 DWORD PTR [edx+8], ecx

; 1702 :         _Nodeptr _Trynode = _Result._Location._Parent;
; 1703 :         while (!_Trynode->_Isnil) {

  00017	80 78 0d 00	 cmp	 BYTE PTR [eax+13], 0
  0001b	75 28		 jne	 SHORT $LN12@Find_lower
; File C:\Program Files (x86)\Microsoft Visual Studio\2019\Community\VC\Tools\MSVC\14.28.29333\include\xstddef

; 127  :         return _Left < _Right;

  0001d	8b 4d 0c	 mov	 ecx, DWORD PTR __Keyval$[ebp]
  00020	53		 push	 ebx
  00021	8a 19		 mov	 bl, BYTE PTR [ecx]
$LL2@Find_lower:
; File C:\Program Files (x86)\Microsoft Visual Studio\2019\Community\VC\Tools\MSVC\14.28.29333\include\xtree

; 1704 :             _Result._Location._Parent = _Trynode;

  00023	89 02		 mov	 DWORD PTR [edx], eax
; File C:\Program Files (x86)\Microsoft Visual Studio\2019\Community\VC\Tools\MSVC\14.28.29333\include\xstddef

; 127  :         return _Left < _Right;

  00025	38 58 10	 cmp	 BYTE PTR [eax+16], bl
; File C:\Program Files (x86)\Microsoft Visual Studio\2019\Community\VC\Tools\MSVC\14.28.29333\include\xtree

; 1705 :             if (_DEBUG_LT_PRED(_Getcomp(), _Traits::_Kfn(_Trynode->_Myval), _Keyval)) {

  00028	73 07		 jae	 SHORT $LN4@Find_lower

; 1706 :                 _Result._Location._Child = _Tree_child::_Right;
; 1707 :                 _Trynode                 = _Trynode->_Right;

  0002a	8b 40 08	 mov	 eax, DWORD PTR [eax+8]
  0002d	33 c9		 xor	 ecx, ecx

; 1708 :             } else {

  0002f	eb 0a		 jmp	 SHORT $LN5@Find_lower
$LN4@Find_lower:

; 1709 :                 _Result._Location._Child = _Tree_child::_Left;
; 1710 :                 _Result._Bound           = _Trynode;

  00031	89 42 08	 mov	 DWORD PTR [edx+8], eax

; 1711 :                 _Trynode                 = _Trynode->_Left;

  00034	b9 01 00 00 00	 mov	 ecx, 1
  00039	8b 00		 mov	 eax, DWORD PTR [eax]
$LN5@Find_lower:

; 1702 :         _Nodeptr _Trynode = _Result._Location._Parent;
; 1703 :         while (!_Trynode->_Isnil) {

  0003b	89 4a 04	 mov	 DWORD PTR [edx+4], ecx
  0003e	80 78 0d 00	 cmp	 BYTE PTR [eax+13], 0
  00042	74 df		 je	 SHORT $LL2@Find_lower

; 1712 :             }
; 1713 :         }
; 1714 : 
; 1715 :         return _Result;

  00044	5b		 pop	 ebx
$LN12@Find_lower:

; 1716 :     }

  00045	8b c2		 mov	 eax, edx
  00047	5d		 pop	 ebp
  00048	c2 08 00	 ret	 8
??$_Find_lower_bound@E@?$_Tree@V?$_Tmap_traits@EUSGuildGradeData@CPythonGuild@@U?$less@E@std@@V?$allocator@U?$pair@$$CBEUSGuildGradeData@CPythonGuild@@@std@@@4@$0A@@std@@@std@@IBE?AU?$_Tree_find_result@PAU?$_Tree_node@U?$pair@$$CBEUSGuildGradeData@CPythonGuild@@@std@@PAX@std@@@1@ABE@Z ENDP ; std::_Tree<std::_Tmap_traits<unsigned char,CPythonGuild::SGuildGradeData,std::less<unsigned char>,std::allocator<std::pair<unsigned char const ,CPythonGuild::SGuildGradeData> >,0> >::_Find_lower_bound<unsigned char>
_TEXT	ENDS
; Function compile flags: /Ogtp
; File C:\Program Files (x86)\Microsoft Visual Studio\2019\Community\VC\Tools\MSVC\14.28.29333\include\algorithm
; File C:\Program Files (x86)\Microsoft Visual Studio\2019\Community\VC\Tools\MSVC\14.28.29333\include\xstring
; File C:\Program Files (x86)\Microsoft Visual Studio\2019\Community\VC\Tools\MSVC\14.28.29333\include\algorithm
; File C:\Program Files (x86)\Microsoft Visual Studio\2019\Community\VC\Tools\MSVC\14.28.29333\include\xstring
; File C:\Program Files (x86)\Microsoft Visual Studio\2019\Community\VC\Tools\MSVC\14.28.29333\include\algorithm
; File C:\Program Files (x86)\Microsoft Visual Studio\2019\Community\VC\Tools\MSVC\14.28.29333\include\xstring
; File C:\Program Files (x86)\Microsoft Visual Studio\2019\Community\VC\Tools\MSVC\14.28.29333\include\algorithm
; File C:\Program Files (x86)\Microsoft Visual Studio\2019\Community\VC\Tools\MSVC\14.28.29333\include\xstring
; File C:\Program Files (x86)\Microsoft Visual Studio\2019\Community\VC\Tools\MSVC\14.28.29333\include\algorithm
; File C:\Program Files (x86)\Microsoft Visual Studio\2019\Community\VC\Tools\MSVC\14.28.29333\include\xstring
; File C:\Program Files (x86)\Microsoft Visual Studio\2019\Community\VC\Tools\MSVC\14.28.29333\include\xmemory
; File C:\Program Files (x86)\Microsoft Visual Studio\2019\Community\VC\Tools\MSVC\14.28.29333\include\algorithm
; File C:\Program Files (x86)\Microsoft Visual Studio\2019\Community\VC\Tools\MSVC\14.28.29333\include\xstring
; File C:\Program Files (x86)\Microsoft Visual Studio\2019\Community\VC\Tools\MSVC\14.28.29333\include\algorithm
; File C:\Program Files (x86)\Microsoft Visual Studio\2019\Community\VC\Tools\MSVC\14.28.29333\include\xstring
; File C:\Program Files (x86)\Microsoft Visual Studio\2019\Community\VC\Tools\MSVC\14.28.29333\include\algorithm
; File C:\Program Files (x86)\Microsoft Visual Studio\2019\Community\VC\Tools\MSVC\14.28.29333\include\xstring
; File C:\Program Files (x86)\Microsoft Visual Studio\2019\Community\VC\Tools\MSVC\14.28.29333\include\algorithm
; File C:\Program Files (x86)\Microsoft Visual Studio\2019\Community\VC\Tools\MSVC\14.28.29333\include\xstring
; File C:\Program Files (x86)\Microsoft Visual Studio\2019\Community\VC\Tools\MSVC\14.28.29333\include\xmemory
; File C:\Program Files (x86)\Microsoft Visual Studio\2019\Community\VC\Tools\MSVC\14.28.29333\include\algorithm
;	COMDAT ??$_Sort_unchecked@PAUSGuildMemberData@CPythonGuild@@UCPythonGuild_SLessMemberGrade@@@std@@YAXPAUSGuildMemberData@CPythonGuild@@0HUCPythonGuild_SLessMemberGrade@@@Z
_TEXT	SEGMENT
__Last$GSCopy$1$ = -52					; size = 4
__Mid$1 = -48						; size = 8
tv1213 = -44						; size = 4
__Bottom$1$ = -44					; size = 4
__Val$2 = -40						; size = 36
__Val$3 = -40						; size = 36
__$ArrayPad$ = -4					; size = 4
__First$ = 8						; size = 4
__Last$ = 12						; size = 4
__Ideal$ = 16						; size = 4
__Pred$ = 20						; size = 1
??$_Sort_unchecked@PAUSGuildMemberData@CPythonGuild@@UCPythonGuild_SLessMemberGrade@@@std@@YAXPAUSGuildMemberData@CPythonGuild@@0HUCPythonGuild_SLessMemberGrade@@@Z PROC ; std::_Sort_unchecked<CPythonGuild::SGuildMemberData *,CPythonGuild_SLessMemberGrade>, COMDAT

; 7537 : _CONSTEXPR20 void _Sort_unchecked(_RanIt _First, _RanIt _Last, _Iter_diff_t<_RanIt> _Ideal, _Pr _Pred) {

  00000	55		 push	 ebp
  00001	8b ec		 mov	 ebp, esp
  00003	83 ec 34	 sub	 esp, 52			; 00000034H
  00006	a1 00 00 00 00	 mov	 eax, DWORD PTR ___security_cookie
  0000b	33 c5		 xor	 eax, ebp
  0000d	89 45 fc	 mov	 DWORD PTR __$ArrayPad$[ebp], eax
  00010	53		 push	 ebx
  00011	56		 push	 esi
  00012	8b 75 0c	 mov	 esi, DWORD PTR __Last$[ebp]

; 7538 :     // order [_First, _Last)
; 7539 :     for (;;) {
; 7540 :         if (_Last - _First <= _ISORT_MAX) { // small

  00015	8b c6		 mov	 eax, esi
  00017	57		 push	 edi
  00018	8b 7d 08	 mov	 edi, DWORD PTR __First$[ebp]
  0001b	2b c7		 sub	 eax, edi
  0001d	3d a4 04 00 00	 cmp	 eax, 1188		; 000004a4H
  00022	89 75 cc	 mov	 DWORD PTR __Last$GSCopy$1$[ebp], esi
  00025	8b 45 14	 mov	 eax, DWORD PTR __Pred$[ebp]
  00028	0f 8c 91 00 00
	00		 jl	 $LN91@Sort_unche
  0002e	8b 5d 10	 mov	 ebx, DWORD PTR __Ideal$[ebp]
$LL2@Sort_unche:

; 7542 :             return;
; 7543 :         }
; 7544 : 
; 7545 :         if (_Ideal <= 0) { // heap sort if too many divisions

  00031	85 db		 test	 ebx, ebx
  00033	0f 8e a2 00 00
	00		 jle	 $LN92@Sort_unche

; 7548 :             return;
; 7549 :         }
; 7550 : 
; 7551 :         // divide and conquer by quicksort
; 7552 :         auto _Mid = _Partition_by_median_guess_unchecked(_First, _Last, _Pred);

  00039	50		 push	 eax
  0003a	56		 push	 esi
  0003b	8d 45 d0	 lea	 eax, DWORD PTR __Mid$1[ebp]
  0003e	57		 push	 edi
  0003f	50		 push	 eax
  00040	e8 00 00 00 00	 call	 ??$_Partition_by_median_guess_unchecked@PAUSGuildMemberData@CPythonGuild@@UCPythonGuild_SLessMemberGrade@@@std@@YA?AU?$pair@PAUSGuildMemberData@CPythonGuild@@PAU12@@0@PAUSGuildMemberData@CPythonGuild@@0UCPythonGuild_SLessMemberGrade@@@Z ; std::_Partition_by_median_guess_unchecked<CPythonGuild::SGuildMemberData *,CPythonGuild_SLessMemberGrade>

; 7553 : 
; 7554 :         _Ideal = (_Ideal >> 1) + (_Ideal >> 2); // allow 1.5 log2(N) divisions

  00045	8b c3		 mov	 eax, ebx

; 7555 : 
; 7556 :         if (_Mid.first - _First < _Last - _Mid.second) { // loop on second half

  00047	8b ce		 mov	 ecx, esi
  00049	2b 4d d4	 sub	 ecx, DWORD PTR __Mid$1[ebp+4]
  0004c	83 c4 10	 add	 esp, 16			; 00000010H
  0004f	c1 f8 02	 sar	 eax, 2
  00052	d1 fb		 sar	 ebx, 1
  00054	03 d8		 add	 ebx, eax
  00056	b8 39 8e e3 38	 mov	 eax, 954437177		; 38e38e39H
  0005b	f7 e9		 imul	 ecx
  0005d	8b 4d d0	 mov	 ecx, DWORD PTR __Mid$1[ebp]
  00060	b8 39 8e e3 38	 mov	 eax, 954437177		; 38e38e39H
  00065	c1 fa 03	 sar	 edx, 3
  00068	2b cf		 sub	 ecx, edi
  0006a	8b f2		 mov	 esi, edx
  0006c	c1 ee 1f	 shr	 esi, 31			; 0000001fH
  0006f	03 f2		 add	 esi, edx
  00071	f7 e9		 imul	 ecx
  00073	c1 fa 03	 sar	 edx, 3
  00076	8b c2		 mov	 eax, edx
  00078	c1 e8 1f	 shr	 eax, 31			; 0000001fH
  0007b	03 c2		 add	 eax, edx
  0007d	3b c6		 cmp	 eax, esi
  0007f	8b 45 14	 mov	 eax, DWORD PTR __Pred$[ebp]
  00082	50		 push	 eax
  00083	53		 push	 ebx
  00084	7d 12		 jge	 SHORT $LN7@Sort_unche

; 7557 :             _Sort_unchecked(_First, _Mid.first, _Ideal, _Pred);

  00086	8b 75 d0	 mov	 esi, DWORD PTR __Mid$1[ebp]
  00089	56		 push	 esi
  0008a	57		 push	 edi
  0008b	e8 00 00 00 00	 call	 ??$_Sort_unchecked@PAUSGuildMemberData@CPythonGuild@@UCPythonGuild_SLessMemberGrade@@@std@@YAXPAUSGuildMemberData@CPythonGuild@@0HUCPythonGuild_SLessMemberGrade@@@Z ; std::_Sort_unchecked<CPythonGuild::SGuildMemberData *,CPythonGuild_SLessMemberGrade>

; 7558 :             _First = _Mid.second;

  00090	8b 7d d4	 mov	 edi, DWORD PTR __Mid$1[ebp+4]

; 7559 :         } else { // loop on first half

  00093	8b 75 cc	 mov	 esi, DWORD PTR __Last$GSCopy$1$[ebp]
  00096	eb 12		 jmp	 SHORT $LN102@Sort_unche
$LN7@Sort_unche:

; 7560 :             _Sort_unchecked(_Mid.second, _Last, _Ideal, _Pred);

  00098	ff 75 cc	 push	 DWORD PTR __Last$GSCopy$1$[ebp]
  0009b	8b 45 d4	 mov	 eax, DWORD PTR __Mid$1[ebp+4]
  0009e	50		 push	 eax
  0009f	e8 00 00 00 00	 call	 ??$_Sort_unchecked@PAUSGuildMemberData@CPythonGuild@@UCPythonGuild_SLessMemberGrade@@@std@@YAXPAUSGuildMemberData@CPythonGuild@@0HUCPythonGuild_SLessMemberGrade@@@Z ; std::_Sort_unchecked<CPythonGuild::SGuildMemberData *,CPythonGuild_SLessMemberGrade>

; 7561 :             _Last = _Mid.first;

  000a4	8b 75 d0	 mov	 esi, DWORD PTR __Mid$1[ebp]
  000a7	89 75 cc	 mov	 DWORD PTR __Last$GSCopy$1$[ebp], esi
$LN102@Sort_unche:

; 7538 :     // order [_First, _Last)
; 7539 :     for (;;) {
; 7540 :         if (_Last - _First <= _ISORT_MAX) { // small

  000aa	8b c6		 mov	 eax, esi
  000ac	83 c4 10	 add	 esp, 16			; 00000010H
  000af	2b c7		 sub	 eax, edi
  000b1	3d a4 04 00 00	 cmp	 eax, 1188		; 000004a4H
  000b6	8b 45 14	 mov	 eax, DWORD PTR __Pred$[ebp]
  000b9	0f 8d 72 ff ff
	ff		 jge	 $LL2@Sort_unche
$LN91@Sort_unche:

; 7541 :             _Insertion_sort_unchecked(_First, _Last, _Pred);

  000bf	50		 push	 eax
  000c0	56		 push	 esi
  000c1	57		 push	 edi
  000c2	e8 00 00 00 00	 call	 ??$_Insertion_sort_unchecked@PAUSGuildMemberData@CPythonGuild@@UCPythonGuild_SLessMemberGrade@@@std@@YAPAUSGuildMemberData@CPythonGuild@@QAU12@0UCPythonGuild_SLessMemberGrade@@@Z ; std::_Insertion_sort_unchecked<CPythonGuild::SGuildMemberData *,CPythonGuild_SLessMemberGrade>
  000c7	83 c4 0c	 add	 esp, 12			; 0000000cH
$LN48@Sort_unche:

; 7562 :         }
; 7563 :     }
; 7564 : }

  000ca	5f		 pop	 edi
  000cb	5e		 pop	 esi
  000cc	5b		 pop	 ebx
  000cd	8b 4d fc	 mov	 ecx, DWORD PTR __$ArrayPad$[ebp]
  000d0	33 cd		 xor	 ecx, ebp
  000d2	e8 00 00 00 00	 call	 @__security_check_cookie@4
  000d7	8b e5		 mov	 esp, ebp
  000d9	5d		 pop	 ebp
  000da	c3		 ret	 0
$LN92@Sort_unche:

; 6360 :     _Diff _Bottom = _Last - _First;

  000db	8b ce		 mov	 ecx, esi
  000dd	b8 39 8e e3 38	 mov	 eax, 954437177		; 38e38e39H
  000e2	2b cf		 sub	 ecx, edi
  000e4	f7 e9		 imul	 ecx
  000e6	c1 fa 03	 sar	 edx, 3
  000e9	8b ca		 mov	 ecx, edx
  000eb	c1 e9 1f	 shr	 ecx, 31			; 0000001fH
  000ee	03 ca		 add	 ecx, edx

; 6361 :     for (_Diff _Hole = _Bottom >> 1; _Hole > 0;) { // shift for codegen

  000f0	8b d9		 mov	 ebx, ecx
  000f2	89 4d d4	 mov	 DWORD PTR __Bottom$1$[ebp], ecx
  000f5	d1 fb		 sar	 ebx, 1
  000f7	85 db		 test	 ebx, ebx
  000f9	0f 8e 91 00 00
	00		 jle	 $LN12@Sort_unche

; 6229 :         --_Last;
; 6230 :         _Iter_value_t<_RanIt> _Val = _STD move(*_Last);
; 6231 :         _Pop_heap_hole_unchecked(_First, _Last, _Last, _STD move(_Val), _Pred);
; 6232 :     }
; 6233 : }
; 6234 : 
; 6235 : template <class _RanIt, class _Pr>
; 6236 : _CONSTEXPR20 void pop_heap(_RanIt _First, _RanIt _Last, _Pr _Pred) {
; 6237 :     // pop *_First to *(_Last - 1) and reheap
; 6238 :     _Adl_verify_range(_First, _Last);
; 6239 :     _Pop_heap_unchecked(_Get_unwrapped(_First), _Get_unwrapped(_Last), _Pass_fn(_Pred));
; 6240 : }
; 6241 : 
; 6242 : template <class _RanIt>
; 6243 : _CONSTEXPR20 void pop_heap(_RanIt _First, _RanIt _Last) {
; 6244 :     // pop *_First to *(_Last - 1) and reheap
; 6245 :     _STD pop_heap(_First, _Last, less<>{});
; 6246 : }
; 6247 : 
; 6248 : #ifdef __cpp_lib_concepts
; 6249 : namespace ranges {
; 6250 :     // VARIABLE ranges::pop_heap
; 6251 :     // clang-format off
; 6252 :     template <random_access_iterator _It, class _Ty, class _Pr, class _Pj1, class _Pj2>
; 6253 :         requires sortable<_It, _Pr, _Pj1> && indirectly_writable<_It, _Ty>
; 6254 :             && indirect_strict_weak_order<_Pr, projected<_It, _Pj1>, projected<remove_reference_t<_Ty>*, _Pj2>>
; 6255 :     constexpr void _Pop_heap_hole_by_index(_It _First, iter_difference_t<_It> _Hole,
; 6256 :         const iter_difference_t<_It> _Bottom, _Ty&& _Val, _Pr _Pred, _Pj1 _Proj1, _Pj2 _Proj2) {
; 6257 :         // clang-format on
; 6258 :         // percolate _Hole to _Bottom, then push _Val
; 6259 :         _STL_INTERNAL_CHECK(_Hole >= 0);
; 6260 :         _STL_INTERNAL_CHECK(_Bottom > 0);
; 6261 : 
; 6262 :         using _Diff      = iter_difference_t<_It>;
; 6263 :         const _Diff _Top = _Hole;
; 6264 :         _Diff _Idx       = _Hole;
; 6265 : 
; 6266 :         // Check whether _Idx can have a child before calculating that child's index, since
; 6267 :         // calculating the child's index can trigger integer overflows
; 6268 :         const _Diff _Max_sequence_non_leaf = (_Bottom - 1) >> 1; // shift for codegen
; 6269 :         while (_Idx < _Max_sequence_non_leaf) { // move _Hole down to larger child
; 6270 :             _Idx      = 2 * _Idx + 2;
; 6271 :             auto _Mid = _First + _Idx;
; 6272 :             if (_STD invoke(_Pred, _STD invoke(_Proj1, *_Mid), _STD invoke(_Proj1, *_RANGES prev(_Mid)))) {
; 6273 :                 --_Idx;
; 6274 :                 --_Mid;
; 6275 :             }
; 6276 :             *(_First + _Hole) = _RANGES iter_move(_Mid);
; 6277 :             _Hole             = _Idx;
; 6278 :         }
; 6279 : 
; 6280 :         if (_Idx == _Max_sequence_non_leaf && _Bottom % 2 == 0) { // only child at bottom, move _Hole down to it
; 6281 :             *(_First + _Hole) = _RANGES iter_move(_First + (_Bottom - 1));
; 6282 :             _Hole             = _Bottom - 1;
; 6283 :         }
; 6284 : 
; 6285 :         _RANGES _Push_heap_by_index(_STD move(_First), _Hole, _Top, _STD forward<_Ty>(_Val), _Pred, _Proj1, _Proj2);
; 6286 :     }
; 6287 : 
; 6288 :     // clang-format off
; 6289 :     template <random_access_iterator _It, class _Ty, class _Pr, class _Pj1, class _Pj2>
; 6290 :         requires sortable<_It, _Pr, _Pj1> && indirectly_writable<_It, _Ty>
; 6291 :             && indirect_strict_weak_order<_Pr, projected<_It, _Pj1>, projected<remove_reference_t<_Ty>*, _Pj2>>
; 6292 :     constexpr void _Pop_heap_hole_unchecked(
; 6293 :         _It _First, const _It _Last, const _It _Dest, _Ty&& _Val, _Pr _Pred, _Pj1 _Proj1, _Pj2 _Proj2) {
; 6294 :         // clang-format on
; 6295 :         // pop *_First to *_Dest and reheap
; 6296 :         _STL_INTERNAL_CHECK(_First != _Last);
; 6297 :         _STL_INTERNAL_CHECK(_First != _Dest);
; 6298 : 
; 6299 :         *_Dest            = _RANGES iter_move(_First);
; 6300 :         const auto _Count = _Last - _First;
; 6301 :         _RANGES _Pop_heap_hole_by_index(_STD move(_First), 0, _Count, _STD forward<_Ty>(_Val), _Pred, _Proj1, _Proj2);
; 6302 :     }
; 6303 : 
; 6304 :     // clang-format off
; 6305 :     template <random_access_iterator _It, class _Pr, class _Pj>
; 6306 :         requires sortable<_It, _Pr, _Pj>
; 6307 :     constexpr void _Pop_heap_unchecked(_It _First, _It _Last, _Pr _Pred, _Pj _Proj) {
; 6308 :         // clang-format on
; 6309 :         // pop *_First to *(_Last - 1) and reheap
; 6310 :         if (_Last - _First < 2) {
; 6311 :             return;
; 6312 :         }
; 6313 : 
; 6314 :         --_Last;
; 6315 :         iter_value_t<_It> _Val = _RANGES iter_move(_Last);
; 6316 :         // NB: if _Proj is a _Ref_fn, this aliases the _Proj1 and _Proj2 parameters of _Pop_heap_hole_unchecked
; 6317 :         _RANGES _Pop_heap_hole_unchecked(_STD move(_First), _Last, _Last, _STD move(_Val), _Pred, _Proj, _Proj);
; 6318 :     }
; 6319 : 
; 6320 :     class _Pop_heap_fn : private _Not_quite_object {
; 6321 :     public:
; 6322 :         using _Not_quite_object::_Not_quite_object;
; 6323 : 
; 6324 :         // clang-format off
; 6325 :         template <random_access_iterator _It, sentinel_for<_It> _Se, class _Pr = ranges::less, class _Pj = identity>
; 6326 :             requires sortable<_It, _Pr, _Pj>
; 6327 :         constexpr _It operator()(_It _First, _Se _Last, _Pr _Pred = {}, _Pj _Proj = {}) const {
; 6328 :             _Adl_verify_range(_First, _Last);
; 6329 :             auto _UFirst = _Get_unwrapped(_STD move(_First));
; 6330 :             auto _ULast  = _Get_final_iterator_unwrapped<_It>(_UFirst, _STD move(_Last));
; 6331 :             _Seek_wrapped(_First, _ULast);
; 6332 :             _RANGES _Pop_heap_unchecked(_STD move(_UFirst), _STD move(_ULast), _Pass_fn(_Pred), _Pass_fn(_Proj));
; 6333 :             return _First;
; 6334 :         }
; 6335 : 
; 6336 :         template <random_access_range _Rng, class _Pr = ranges::less, class _Pj = identity>
; 6337 :             requires sortable<iterator_t<_Rng>, _Pr, _Pj>
; 6338 :         constexpr borrowed_iterator_t<_Rng> operator()(_Rng&& _Range, _Pr _Pred = {}, _Pj _Proj = {}) const {
; 6339 :             if constexpr (common_range<_Rng>) {
; 6340 :                 _RANGES _Pop_heap_unchecked(_Ubegin(_Range), _Uend(_Range), _Pass_fn(_Pred), _Pass_fn(_Proj));
; 6341 :                 return _RANGES end(_Range);
; 6342 :             } else {
; 6343 :                 auto _ULast = _Get_final_iterator_unwrapped(_Range);
; 6344 :                 _RANGES _Pop_heap_unchecked(_Ubegin(_Range), _ULast, _Pass_fn(_Pred), _Pass_fn(_Proj));
; 6345 :                 return _Rewrap_iterator(_Range, _STD move(_ULast));
; 6346 :             }
; 6347 :         }
; 6348 :         // clang-format on
; 6349 :     };
; 6350 : 
; 6351 :     inline constexpr _Pop_heap_fn pop_heap{_Not_quite_object::_Construct_tag{}};
; 6352 : } // namespace ranges
; 6353 : #endif // __cpp_lib_concepts
; 6354 : 
; 6355 : // FUNCTION TEMPLATE make_heap
; 6356 : template <class _RanIt, class _Pr>
; 6357 : _CONSTEXPR20 void _Make_heap_unchecked(_RanIt _First, _RanIt _Last, _Pr _Pred) {
; 6358 :     // make [_First, _Last) into a heap
; 6359 :     using _Diff   = _Iter_diff_t<_RanIt>;
; 6360 :     _Diff _Bottom = _Last - _First;

  000ff	8d 34 dd fd ff
	ff ff		 lea	 esi, DWORD PTR [ebx*8-3]
  00106	03 f3		 add	 esi, ebx
  00108	8d 34 b7	 lea	 esi, DWORD PTR [edi+esi*4]
  0010b	0f 1f 44 00 00	 npad	 5
$LL11@Sort_unche:
; File C:\Program Files (x86)\Microsoft Visual Studio\2019\Community\VC\Tools\MSVC\14.28.29333\include\xstring

; 2684 :         _CSTD memcpy(_My_data_mem, _Right_data_mem, _Memcpy_val_size);

  00110	0f 10 46 ec	 movups	 xmm0, XMMWORD PTR [esi-20]
  00114	8b 46 e8	 mov	 eax, DWORD PTR [esi-24]
; File C:\Program Files (x86)\Microsoft Visual Studio\2019\Community\VC\Tools\MSVC\14.28.29333\include\algorithm

; 6365 :         _Pop_heap_hole_by_index(_First, _Hole, _Bottom, _STD move(_Val), _Pred);

  00117	4b		 dec	 ebx
  00118	ff 75 14	 push	 DWORD PTR __Pred$[ebp]
  0011b	89 45 d8	 mov	 DWORD PTR __Val$3[ebp], eax
; File C:\Program Files (x86)\Microsoft Visual Studio\2019\Community\VC\Tools\MSVC\14.28.29333\include\xstring

; 2684 :         _CSTD memcpy(_My_data_mem, _Right_data_mem, _Memcpy_val_size);

  0011e	0f 11 45 dc	 movups	 XMMWORD PTR __Val$3[ebp+4], xmm0
  00122	f3 0f 7e 46 fc	 movq	 xmm0, QWORD PTR [esi-4]

; 4377 :         _Mypair._Myval2._Mysize = 0;

  00127	c7 46 fc 00 00
	00 00		 mov	 DWORD PTR [esi-4], 0

; 4378 :         _Mypair._Myval2._Myres  = _BUF_SIZE - 1;

  0012e	c7 06 0f 00 00
	00		 mov	 DWORD PTR [esi], 15	; 0000000fH

; 4379 :         // the _Traits::assign is last so the codegen doesn't think the char write can alias this
; 4380 :         _Traits::assign(_Mypair._Myval2._Bx._Buf[0], _Elem());

  00134	c6 46 ec 00	 mov	 BYTE PTR [esi-20], 0
  00138	0f b6 46 04	 movzx	 eax, BYTE PTR [esi+4]
  0013c	88 45 f4	 mov	 BYTE PTR __Val$3[ebp+28], al
  0013f	0f b6 46 05	 movzx	 eax, BYTE PTR [esi+5]
  00143	88 45 f5	 mov	 BYTE PTR __Val$3[ebp+29], al
  00146	0f b6 46 06	 movzx	 eax, BYTE PTR [esi+6]
  0014a	88 45 f6	 mov	 BYTE PTR __Val$3[ebp+30], al
  0014d	0f b6 46 07	 movzx	 eax, BYTE PTR [esi+7]
  00151	88 45 f7	 mov	 BYTE PTR __Val$3[ebp+31], al
  00154	8b 46 08	 mov	 eax, DWORD PTR [esi+8]
  00157	89 45 f8	 mov	 DWORD PTR __Val$3[ebp+32], eax
; File C:\Program Files (x86)\Microsoft Visual Studio\2019\Community\VC\Tools\MSVC\14.28.29333\include\algorithm

; 6365 :         _Pop_heap_hole_by_index(_First, _Hole, _Bottom, _STD move(_Val), _Pred);

  0015a	8d 45 d8	 lea	 eax, DWORD PTR __Val$3[ebp]
  0015d	50		 push	 eax
  0015e	51		 push	 ecx
  0015f	53		 push	 ebx
  00160	57		 push	 edi
; File C:\Program Files (x86)\Microsoft Visual Studio\2019\Community\VC\Tools\MSVC\14.28.29333\include\xstring

; 2684 :         _CSTD memcpy(_My_data_mem, _Right_data_mem, _Memcpy_val_size);

  00161	66 0f d6 45 ec	 movq	 QWORD PTR __Val$3[ebp+20], xmm0
; File C:\Program Files (x86)\Microsoft Visual Studio\2019\Community\VC\Tools\MSVC\14.28.29333\include\algorithm

; 6365 :         _Pop_heap_hole_by_index(_First, _Hole, _Bottom, _STD move(_Val), _Pred);

  00166	e8 00 00 00 00	 call	 ??$_Pop_heap_hole_by_index@PAUSGuildMemberData@CPythonGuild@@U12@UCPythonGuild_SLessMemberGrade@@@std@@YAXPAUSGuildMemberData@CPythonGuild@@HH$$QAU12@UCPythonGuild_SLessMemberGrade@@@Z ; std::_Pop_heap_hole_by_index<CPythonGuild::SGuildMemberData *,CPythonGuild::SGuildMemberData,CPythonGuild_SLessMemberGrade>
; File C:\Program Files (x86)\Microsoft Visual Studio\2019\Community\VC\Tools\MSVC\14.28.29333\include\xstring

; 2227 :         return _BUF_SIZE <= _Myres;

  0016b	8b 45 f0	 mov	 eax, DWORD PTR __Val$3[ebp+24]
; File C:\Program Files (x86)\Microsoft Visual Studio\2019\Community\VC\Tools\MSVC\14.28.29333\include\algorithm

; 6365 :         _Pop_heap_hole_by_index(_First, _Hole, _Bottom, _STD move(_Val), _Pred);

  0016e	83 c4 14	 add	 esp, 20			; 00000014H
; File C:\Program Files (x86)\Microsoft Visual Studio\2019\Community\VC\Tools\MSVC\14.28.29333\include\xstring

; 2227 :         return _BUF_SIZE <= _Myres;

  00171	83 f8 10	 cmp	 eax, 16			; 00000010H

; 4385 :         if (_Mypair._Myval2._Large_string_engaged()) {

  00174	72 0d		 jb	 SHORT $LN40@Sort_unche

; 4386 :             const pointer _Ptr = _Mypair._Myval2._Bx._Ptr;
; 4387 :             auto& _Al          = _Getal();
; 4388 :             _Destroy_in_place(_Mypair._Myval2._Bx._Ptr);
; 4389 :             _Al.deallocate(_Ptr, _Mypair._Myval2._Myres + 1);

  00176	40		 inc	 eax
; File C:\Program Files (x86)\Microsoft Visual Studio\2019\Community\VC\Tools\MSVC\14.28.29333\include\xmemory

; 810  :         _Deallocate<_New_alignof<_Ty>>(_Ptr, sizeof(_Ty) * _Count);

  00177	50		 push	 eax
  00178	ff 75 dc	 push	 DWORD PTR __Val$3[ebp+4]
  0017b	e8 00 00 00 00	 call	 ??$_Deallocate@$07$0A@@std@@YAXPAXI@Z ; std::_Deallocate<8,0>
  00180	83 c4 08	 add	 esp, 8
$LN40@Sort_unche:
; File C:\Program Files (x86)\Microsoft Visual Studio\2019\Community\VC\Tools\MSVC\14.28.29333\include\algorithm

; 6361 :     for (_Diff _Hole = _Bottom >> 1; _Hole > 0;) { // shift for codegen

  00183	8b 4d d4	 mov	 ecx, DWORD PTR __Bottom$1$[ebp]

; 6362 :         // reheap top half, bottom to top
; 6363 :         --_Hole;

  00186	83 ee 24	 sub	 esi, 36			; 00000024H
  00189	85 db		 test	 ebx, ebx
  0018b	7f 83		 jg	 SHORT $LL11@Sort_unche
  0018d	8b 75 cc	 mov	 esi, DWORD PTR __Last$GSCopy$1$[ebp]
$LN12@Sort_unche:

; 6592 :     for (; _Last - _First >= 2; --_Last) {

  00190	83 f9 02	 cmp	 ecx, 2
  00193	0f 8c 31 ff ff
	ff		 jl	 $LN48@Sort_unche

; 7546 :             _Make_heap_unchecked(_First, _Last, _Pred);
; 7547 :             _Sort_heap_unchecked(_First, _Last, _Pred);

  00199	b8 fc ff ff ff	 mov	 eax, -4			; fffffffcH
  0019e	bb 20 00 00 00	 mov	 ebx, 32			; 00000020H
  001a3	2b c7		 sub	 eax, edi
  001a5	83 c6 e0	 add	 esi, -32		; ffffffe0H
  001a8	89 45 d4	 mov	 DWORD PTR tv1213[ebp], eax
  001ab	2b df		 sub	 ebx, edi
  001ad	0f 1f 00	 npad	 3
$LL49@Sort_unche:

; 6228 :     if (2 <= _Last - _First) {

  001b0	8d 0c 1e	 lea	 ecx, DWORD PTR [esi+ebx]
  001b3	b8 39 8e e3 38	 mov	 eax, 954437177		; 38e38e39H
  001b8	f7 e9		 imul	 ecx
  001ba	c1 fa 03	 sar	 edx, 3
  001bd	8b c2		 mov	 eax, edx
  001bf	c1 e8 1f	 shr	 eax, 31			; 0000001fH
  001c2	03 c2		 add	 eax, edx
  001c4	83 f8 02	 cmp	 eax, 2
  001c7	0f 8c 92 00 00
	00		 jl	 $LN47@Sort_unche
; File C:\Program Files (x86)\Microsoft Visual Studio\2019\Community\VC\Tools\MSVC\14.28.29333\include\xstring

; 2684 :         _CSTD memcpy(_My_data_mem, _Right_data_mem, _Memcpy_val_size);

  001cd	0f 10 06	 movups	 xmm0, XMMWORD PTR [esi]
  001d0	8b 46 fc	 mov	 eax, DWORD PTR [esi-4]
  001d3	8d 4e fc	 lea	 ecx, DWORD PTR [esi-4]
  001d6	89 45 d8	 mov	 DWORD PTR __Val$2[ebp], eax
  001d9	0f 11 45 dc	 movups	 XMMWORD PTR __Val$2[ebp+4], xmm0
; File C:\Program Files (x86)\Microsoft Visual Studio\2019\Community\VC\Tools\MSVC\14.28.29333\include\algorithm

; 6219 :     *_Dest      = _STD move(*_First);

  001dd	57		 push	 edi
; File C:\Program Files (x86)\Microsoft Visual Studio\2019\Community\VC\Tools\MSVC\14.28.29333\include\xstring

; 2684 :         _CSTD memcpy(_My_data_mem, _Right_data_mem, _Memcpy_val_size);

  001de	f3 0f 7e 46 10	 movq	 xmm0, QWORD PTR [esi+16]

; 4377 :         _Mypair._Myval2._Mysize = 0;

  001e3	c7 46 10 00 00
	00 00		 mov	 DWORD PTR [esi+16], 0

; 4378 :         _Mypair._Myval2._Myres  = _BUF_SIZE - 1;

  001ea	c7 46 14 0f 00
	00 00		 mov	 DWORD PTR [esi+20], 15	; 0000000fH

; 4379 :         // the _Traits::assign is last so the codegen doesn't think the char write can alias this
; 4380 :         _Traits::assign(_Mypair._Myval2._Bx._Buf[0], _Elem());

  001f1	c6 06 00	 mov	 BYTE PTR [esi], 0
  001f4	0f b6 46 18	 movzx	 eax, BYTE PTR [esi+24]
  001f8	88 45 f4	 mov	 BYTE PTR __Val$2[ebp+28], al
  001fb	0f b6 46 19	 movzx	 eax, BYTE PTR [esi+25]
  001ff	88 45 f5	 mov	 BYTE PTR __Val$2[ebp+29], al
  00202	0f b6 46 1a	 movzx	 eax, BYTE PTR [esi+26]
  00206	88 45 f6	 mov	 BYTE PTR __Val$2[ebp+30], al
  00209	0f b6 46 1b	 movzx	 eax, BYTE PTR [esi+27]
  0020d	88 45 f7	 mov	 BYTE PTR __Val$2[ebp+31], al
  00210	8b 46 1c	 mov	 eax, DWORD PTR [esi+28]

; 2684 :         _CSTD memcpy(_My_data_mem, _Right_data_mem, _Memcpy_val_size);

  00213	66 0f d6 45 ec	 movq	 QWORD PTR __Val$2[ebp+20], xmm0
  00218	89 45 f8	 mov	 DWORD PTR __Val$2[ebp+32], eax
; File C:\Program Files (x86)\Microsoft Visual Studio\2019\Community\VC\Tools\MSVC\14.28.29333\include\algorithm

; 6219 :     *_Dest      = _STD move(*_First);

  0021b	e8 00 00 00 00	 call	 ??4SGuildMemberData@CPythonGuild@@QAEAAU01@$$QAU01@@Z

; 6221 :     _Pop_heap_hole_by_index(

  00220	ff 75 14	 push	 DWORD PTR __Pred$[ebp]
  00223	8b 4d d4	 mov	 ecx, DWORD PTR tv1213[ebp]
  00226	8d 45 d8	 lea	 eax, DWORD PTR __Val$2[ebp]
  00229	50		 push	 eax
  0022a	b8 39 8e e3 38	 mov	 eax, 954437177		; 38e38e39H
  0022f	8d 0c 0e	 lea	 ecx, DWORD PTR [esi+ecx]
  00232	f7 e9		 imul	 ecx
  00234	c1 fa 03	 sar	 edx, 3
  00237	8b c2		 mov	 eax, edx
  00239	c1 e8 1f	 shr	 eax, 31			; 0000001fH
  0023c	03 c2		 add	 eax, edx
  0023e	50		 push	 eax
  0023f	6a 00		 push	 0
  00241	57		 push	 edi
  00242	e8 00 00 00 00	 call	 ??$_Pop_heap_hole_by_index@PAUSGuildMemberData@CPythonGuild@@U12@UCPythonGuild_SLessMemberGrade@@@std@@YAXPAUSGuildMemberData@CPythonGuild@@HH$$QAU12@UCPythonGuild_SLessMemberGrade@@@Z ; std::_Pop_heap_hole_by_index<CPythonGuild::SGuildMemberData *,CPythonGuild::SGuildMemberData,CPythonGuild_SLessMemberGrade>
; File C:\Program Files (x86)\Microsoft Visual Studio\2019\Community\VC\Tools\MSVC\14.28.29333\include\xstring

; 2227 :         return _BUF_SIZE <= _Myres;

  00247	8b 45 f0	 mov	 eax, DWORD PTR __Val$2[ebp+24]
; File C:\Program Files (x86)\Microsoft Visual Studio\2019\Community\VC\Tools\MSVC\14.28.29333\include\algorithm

; 6221 :     _Pop_heap_hole_by_index(

  0024a	83 c4 14	 add	 esp, 20			; 00000014H
; File C:\Program Files (x86)\Microsoft Visual Studio\2019\Community\VC\Tools\MSVC\14.28.29333\include\xstring

; 2227 :         return _BUF_SIZE <= _Myres;

  0024d	83 f8 10	 cmp	 eax, 16			; 00000010H

; 4385 :         if (_Mypair._Myval2._Large_string_engaged()) {

  00250	72 0d		 jb	 SHORT $LN47@Sort_unche

; 4386 :             const pointer _Ptr = _Mypair._Myval2._Bx._Ptr;
; 4387 :             auto& _Al          = _Getal();
; 4388 :             _Destroy_in_place(_Mypair._Myval2._Bx._Ptr);
; 4389 :             _Al.deallocate(_Ptr, _Mypair._Myval2._Myres + 1);

  00252	40		 inc	 eax
; File C:\Program Files (x86)\Microsoft Visual Studio\2019\Community\VC\Tools\MSVC\14.28.29333\include\xmemory

; 810  :         _Deallocate<_New_alignof<_Ty>>(_Ptr, sizeof(_Ty) * _Count);

  00253	50		 push	 eax
  00254	ff 75 dc	 push	 DWORD PTR __Val$2[ebp+4]
  00257	e8 00 00 00 00	 call	 ??$_Deallocate@$07$0A@@std@@YAXPAXI@Z ; std::_Deallocate<8,0>
  0025c	83 c4 08	 add	 esp, 8
$LN47@Sort_unche:
; File C:\Program Files (x86)\Microsoft Visual Studio\2019\Community\VC\Tools\MSVC\14.28.29333\include\algorithm

; 6592 :     for (; _Last - _First >= 2; --_Last) {

  0025f	83 ee 24	 sub	 esi, 36			; 00000024H
  00262	8d 04 1e	 lea	 eax, DWORD PTR [esi+ebx]
  00265	83 f8 48	 cmp	 eax, 72			; 00000048H
  00268	0f 8d 42 ff ff
	ff		 jge	 $LL49@Sort_unche

; 7562 :         }
; 7563 :     }
; 7564 : }

  0026e	8b 4d fc	 mov	 ecx, DWORD PTR __$ArrayPad$[ebp]
  00271	5f		 pop	 edi
  00272	5e		 pop	 esi
  00273	33 cd		 xor	 ecx, ebp
  00275	5b		 pop	 ebx
  00276	e8 00 00 00 00	 call	 @__security_check_cookie@4
  0027b	8b e5		 mov	 esp, ebp
  0027d	5d		 pop	 ebp
  0027e	c3		 ret	 0
??$_Sort_unchecked@PAUSGuildMemberData@CPythonGuild@@UCPythonGuild_SLessMemberGrade@@@std@@YAXPAUSGuildMemberData@CPythonGuild@@0HUCPythonGuild_SLessMemberGrade@@@Z ENDP ; std::_Sort_unchecked<CPythonGuild::SGuildMemberData *,CPythonGuild_SLessMemberGrade>
_TEXT	ENDS
; Function compile flags: /Ogtp
; File C:\Program Files (x86)\Microsoft Visual Studio\2019\Community\VC\Tools\MSVC\14.28.29333\include\xmemory
;	COMDAT ??$_Pocca@V?$allocator@D@std@@@std@@YAXAAV?$allocator@D@0@ABV10@@Z
_TEXT	SEGMENT
__Left$ = 8						; size = 4
__Right$ = 12						; size = 4
??$_Pocca@V?$allocator@D@std@@@std@@YAXAAV?$allocator@D@0@ABV10@@Z PROC ; std::_Pocca<std::allocator<char> >, COMDAT

; 886  :     if constexpr (allocator_traits<_Alloc>::propagate_on_container_copy_assignment::value) {
; 887  :         _Left = _Right;
; 888  :     }
; 889  : }

  00000	c2 00 00	 ret	 0
??$_Pocca@V?$allocator@D@std@@@std@@YAXAAV?$allocator@D@0@ABV10@@Z ENDP ; std::_Pocca<std::allocator<char> >
_TEXT	ENDS
; Function compile flags: /Ogtp
; File C:\Program Files (x86)\Microsoft Visual Studio\2019\Community\VC\Tools\MSVC\14.28.29333\include\xmemory
; File C:\Program Files (x86)\Microsoft Visual Studio\2019\Community\VC\Tools\MSVC\14.28.29333\include\xstring
; File C:\Program Files (x86)\Microsoft Visual Studio\2019\Community\VC\Tools\MSVC\14.28.29333\include\xmemory
; File C:\Program Files (x86)\Microsoft Visual Studio\2019\Community\VC\Tools\MSVC\14.28.29333\include\xstring
; File C:\Program Files (x86)\Microsoft Visual Studio\2019\Community\VC\Tools\MSVC\14.28.29333\include\xmemory
;	COMDAT ??$_Destroy_range@V?$allocator@USGuildMemberData@CPythonGuild@@@std@@@std@@YAXPAUSGuildMemberData@CPythonGuild@@QAU12@AAV?$allocator@USGuildMemberData@CPythonGuild@@@0@@Z
_TEXT	SEGMENT
__First$ = 8						; size = 4
__Last$ = 12						; size = 4
__Al$ = 16						; size = 4
??$_Destroy_range@V?$allocator@USGuildMemberData@CPythonGuild@@@std@@@std@@YAXPAUSGuildMemberData@CPythonGuild@@QAU12@AAV?$allocator@USGuildMemberData@CPythonGuild@@@0@@Z PROC ; std::_Destroy_range<std::allocator<CPythonGuild::SGuildMemberData> >, COMDAT

; 962  :     _Alloc_ptr_t<_Alloc> _First, const _Alloc_ptr_t<_Alloc> _Last, _Alloc& _Al) noexcept {

  00000	55		 push	 ebp
  00001	8b ec		 mov	 ebp, esp
  00003	56		 push	 esi

; 966  :         for (; _First != _Last; ++_First) {

  00004	8b 75 08	 mov	 esi, DWORD PTR __First$[ebp]
  00007	57		 push	 edi
  00008	8b 7d 0c	 mov	 edi, DWORD PTR __Last$[ebp]
  0000b	3b f7		 cmp	 esi, edi
  0000d	74 32		 je	 SHORT $LN3@Destroy_ra
  0000f	83 c6 18	 add	 esi, 24			; 00000018H
$LL4@Destroy_ra:
; File C:\Program Files (x86)\Microsoft Visual Studio\2019\Community\VC\Tools\MSVC\14.28.29333\include\xstring

; 2227 :         return _BUF_SIZE <= _Myres;

  00012	8b 06		 mov	 eax, DWORD PTR [esi]
  00014	83 f8 10	 cmp	 eax, 16			; 00000010H

; 4385 :         if (_Mypair._Myval2._Large_string_engaged()) {

  00017	72 0d		 jb	 SHORT $LN18@Destroy_ra

; 4386 :             const pointer _Ptr = _Mypair._Myval2._Bx._Ptr;
; 4387 :             auto& _Al          = _Getal();
; 4388 :             _Destroy_in_place(_Mypair._Myval2._Bx._Ptr);
; 4389 :             _Al.deallocate(_Ptr, _Mypair._Myval2._Myres + 1);

  00019	40		 inc	 eax
; File C:\Program Files (x86)\Microsoft Visual Studio\2019\Community\VC\Tools\MSVC\14.28.29333\include\xmemory

; 810  :         _Deallocate<_New_alignof<_Ty>>(_Ptr, sizeof(_Ty) * _Count);

  0001a	50		 push	 eax
  0001b	ff 76 ec	 push	 DWORD PTR [esi-20]
  0001e	e8 00 00 00 00	 call	 ??$_Deallocate@$07$0A@@std@@YAXPAXI@Z ; std::_Deallocate<8,0>
  00023	83 c4 08	 add	 esp, 8
$LN18@Destroy_ra:
; File C:\Program Files (x86)\Microsoft Visual Studio\2019\Community\VC\Tools\MSVC\14.28.29333\include\xstring

; 4392 :         _Mypair._Myval2._Mysize = 0;

  00026	c7 46 fc 00 00
	00 00		 mov	 DWORD PTR [esi-4], 0

; 4393 :         _Mypair._Myval2._Myres  = _BUF_SIZE - 1;

  0002d	c7 06 0f 00 00
	00		 mov	 DWORD PTR [esi], 15	; 0000000fH

; 4394 :         // the _Traits::assign is last so the codegen doesn't think the char write can alias this
; 4395 :         _Traits::assign(_Mypair._Myval2._Bx._Buf[0], _Elem());

  00033	c6 46 ec 00	 mov	 BYTE PTR [esi-20], 0
; File C:\Program Files (x86)\Microsoft Visual Studio\2019\Community\VC\Tools\MSVC\14.28.29333\include\xmemory

; 966  :         for (; _First != _Last; ++_First) {

  00037	83 c6 24	 add	 esi, 36			; 00000024H
  0003a	8d 46 e8	 lea	 eax, DWORD PTR [esi-24]
  0003d	3b c7		 cmp	 eax, edi
  0003f	75 d1		 jne	 SHORT $LL4@Destroy_ra
$LN3@Destroy_ra:
  00041	5f		 pop	 edi

; 967  :             allocator_traits<_Alloc>::destroy(_Al, _Unfancy(_First));
; 968  :         }
; 969  :     }
; 970  : }

  00042	5e		 pop	 esi
  00043	5d		 pop	 ebp
  00044	c3		 ret	 0
??$_Destroy_range@V?$allocator@USGuildMemberData@CPythonGuild@@@std@@@std@@YAXPAUSGuildMemberData@CPythonGuild@@QAU12@AAV?$allocator@USGuildMemberData@CPythonGuild@@@0@@Z ENDP ; std::_Destroy_range<std::allocator<CPythonGuild::SGuildMemberData> >
_TEXT	ENDS
; Function compile flags: /Ogtp
; File C:\Program Files (x86)\Microsoft Visual Studio\2019\Community\VC\Tools\MSVC\14.28.29333\include\xmemory
; File C:\Program Files (x86)\Microsoft Visual Studio\2019\Community\VC\Tools\MSVC\14.28.29333\include\xstring
; File C:\Program Files (x86)\Microsoft Visual Studio\2019\Community\VC\Tools\MSVC\14.28.29333\include\xmemory
; File C:\Program Files (x86)\Microsoft Visual Studio\2019\Community\VC\Tools\MSVC\14.28.29333\include\xstring
; File C:\Program Files (x86)\Microsoft Visual Studio\2019\Community\VC\Tools\MSVC\14.28.29333\include\xmemory
; File C:\Program Files (x86)\Microsoft Visual Studio\2019\Community\VC\Tools\MSVC\14.28.29333\include\xstring
; File C:\Program Files (x86)\Microsoft Visual Studio\2019\Community\VC\Tools\MSVC\14.28.29333\include\xmemory
;	COMDAT ??$_Destroy_range@V?$allocator@USGuildBoardCommentData@CPythonGuild@@@std@@@std@@YAXPAUSGuildBoardCommentData@CPythonGuild@@QAU12@AAV?$allocator@USGuildBoardCommentData@CPythonGuild@@@0@@Z
_TEXT	SEGMENT
__First$ = 8						; size = 4
__Last$ = 12						; size = 4
__Al$ = 16						; size = 4
??$_Destroy_range@V?$allocator@USGuildBoardCommentData@CPythonGuild@@@std@@@std@@YAXPAUSGuildBoardCommentData@CPythonGuild@@QAU12@AAV?$allocator@USGuildBoardCommentData@CPythonGuild@@@0@@Z PROC ; std::_Destroy_range<std::allocator<CPythonGuild::SGuildBoardCommentData> >, COMDAT

; 962  :     _Alloc_ptr_t<_Alloc> _First, const _Alloc_ptr_t<_Alloc> _Last, _Alloc& _Al) noexcept {

  00000	55		 push	 ebp
  00001	8b ec		 mov	 ebp, esp
  00003	56		 push	 esi

; 966  :         for (; _First != _Last; ++_First) {

  00004	8b 75 08	 mov	 esi, DWORD PTR __First$[ebp]
  00007	57		 push	 edi
  00008	8b 7d 0c	 mov	 edi, DWORD PTR __Last$[ebp]
  0000b	3b f7		 cmp	 esi, edi
  0000d	74 59		 je	 SHORT $LN3@Destroy_ra
  0000f	83 c6 30	 add	 esi, 48			; 00000030H
$LL4@Destroy_ra:
; File C:\Program Files (x86)\Microsoft Visual Studio\2019\Community\VC\Tools\MSVC\14.28.29333\include\xstring

; 2227 :         return _BUF_SIZE <= _Myres;

  00012	8b 06		 mov	 eax, DWORD PTR [esi]
  00014	83 f8 10	 cmp	 eax, 16			; 00000010H

; 4385 :         if (_Mypair._Myval2._Large_string_engaged()) {

  00017	72 0d		 jb	 SHORT $LN18@Destroy_ra

; 4386 :             const pointer _Ptr = _Mypair._Myval2._Bx._Ptr;
; 4387 :             auto& _Al          = _Getal();
; 4388 :             _Destroy_in_place(_Mypair._Myval2._Bx._Ptr);
; 4389 :             _Al.deallocate(_Ptr, _Mypair._Myval2._Myres + 1);

  00019	40		 inc	 eax
; File C:\Program Files (x86)\Microsoft Visual Studio\2019\Community\VC\Tools\MSVC\14.28.29333\include\xmemory

; 810  :         _Deallocate<_New_alignof<_Ty>>(_Ptr, sizeof(_Ty) * _Count);

  0001a	50		 push	 eax
  0001b	ff 76 ec	 push	 DWORD PTR [esi-20]
  0001e	e8 00 00 00 00	 call	 ??$_Deallocate@$07$0A@@std@@YAXPAXI@Z ; std::_Deallocate<8,0>
  00023	83 c4 08	 add	 esp, 8
$LN18@Destroy_ra:
; File C:\Program Files (x86)\Microsoft Visual Studio\2019\Community\VC\Tools\MSVC\14.28.29333\include\xstring

; 4392 :         _Mypair._Myval2._Mysize = 0;

  00026	c7 46 fc 00 00
	00 00		 mov	 DWORD PTR [esi-4], 0

; 4393 :         _Mypair._Myval2._Myres  = _BUF_SIZE - 1;

  0002d	c7 06 0f 00 00
	00		 mov	 DWORD PTR [esi], 15	; 0000000fH

; 4394 :         // the _Traits::assign is last so the codegen doesn't think the char write can alias this
; 4395 :         _Traits::assign(_Mypair._Myval2._Bx._Buf[0], _Elem());

  00033	c6 46 ec 00	 mov	 BYTE PTR [esi-20], 0

; 2227 :         return _BUF_SIZE <= _Myres;

  00037	8b 46 e8	 mov	 eax, DWORD PTR [esi-24]
  0003a	83 f8 10	 cmp	 eax, 16			; 00000010H

; 4385 :         if (_Mypair._Myval2._Large_string_engaged()) {

  0003d	72 0d		 jb	 SHORT $LN28@Destroy_ra

; 4386 :             const pointer _Ptr = _Mypair._Myval2._Bx._Ptr;
; 4387 :             auto& _Al          = _Getal();
; 4388 :             _Destroy_in_place(_Mypair._Myval2._Bx._Ptr);
; 4389 :             _Al.deallocate(_Ptr, _Mypair._Myval2._Myres + 1);

  0003f	40		 inc	 eax
; File C:\Program Files (x86)\Microsoft Visual Studio\2019\Community\VC\Tools\MSVC\14.28.29333\include\xmemory

; 810  :         _Deallocate<_New_alignof<_Ty>>(_Ptr, sizeof(_Ty) * _Count);

  00040	50		 push	 eax
  00041	ff 76 d4	 push	 DWORD PTR [esi-44]
  00044	e8 00 00 00 00	 call	 ??$_Deallocate@$07$0A@@std@@YAXPAXI@Z ; std::_Deallocate<8,0>
  00049	83 c4 08	 add	 esp, 8
$LN28@Destroy_ra:
; File C:\Program Files (x86)\Microsoft Visual Studio\2019\Community\VC\Tools\MSVC\14.28.29333\include\xstring

; 4392 :         _Mypair._Myval2._Mysize = 0;

  0004c	c7 46 e4 00 00
	00 00		 mov	 DWORD PTR [esi-28], 0

; 4393 :         _Mypair._Myval2._Myres  = _BUF_SIZE - 1;

  00053	c7 46 e8 0f 00
	00 00		 mov	 DWORD PTR [esi-24], 15	; 0000000fH

; 4394 :         // the _Traits::assign is last so the codegen doesn't think the char write can alias this
; 4395 :         _Traits::assign(_Mypair._Myval2._Bx._Buf[0], _Elem());

  0005a	c6 46 d4 00	 mov	 BYTE PTR [esi-44], 0
; File C:\Program Files (x86)\Microsoft Visual Studio\2019\Community\VC\Tools\MSVC\14.28.29333\include\xmemory

; 966  :         for (; _First != _Last; ++_First) {

  0005e	83 c6 34	 add	 esi, 52			; 00000034H
  00061	8d 46 d0	 lea	 eax, DWORD PTR [esi-48]
  00064	3b c7		 cmp	 eax, edi
  00066	75 aa		 jne	 SHORT $LL4@Destroy_ra
$LN3@Destroy_ra:
  00068	5f		 pop	 edi

; 967  :             allocator_traits<_Alloc>::destroy(_Al, _Unfancy(_First));
; 968  :         }
; 969  :     }
; 970  : }

  00069	5e		 pop	 esi
  0006a	5d		 pop	 ebp
  0006b	c3		 ret	 0
??$_Destroy_range@V?$allocator@USGuildBoardCommentData@CPythonGuild@@@std@@@std@@YAXPAUSGuildBoardCommentData@CPythonGuild@@QAU12@AAV?$allocator@USGuildBoardCommentData@CPythonGuild@@@0@@Z ENDP ; std::_Destroy_range<std::allocator<CPythonGuild::SGuildBoardCommentData> >
_TEXT	ENDS
; Function compile flags: /Ogtp
; File C:\Program Files (x86)\Microsoft Visual Studio\2019\Community\VC\Tools\MSVC\14.28.29333\include\xtree
; File C:\Program Files (x86)\Microsoft Visual Studio\2019\Community\VC\Tools\MSVC\14.28.29333\include\utility
; File C:\Program Files (x86)\Microsoft Visual Studio\2019\Community\VC\Tools\MSVC\14.28.29333\include\xstring
; File C:\Program Files (x86)\Microsoft Visual Studio\2019\Community\VC\Tools\MSVC\14.28.29333\include\xmemory
; File C:\Program Files (x86)\Microsoft Visual Studio\2019\Community\VC\Tools\MSVC\14.28.29333\include\xstring
; File C:\Program Files (x86)\Microsoft Visual Studio\2019\Community\VC\Tools\MSVC\14.28.29333\include\xmemory
; File C:\Program Files (x86)\Microsoft Visual Studio\2019\Community\VC\Tools\MSVC\14.28.29333\include\xtree
; File C:\Program Files (x86)\Microsoft Visual Studio\2019\Community\VC\Tools\MSVC\14.28.29333\include\xmemory
; File C:\Program Files (x86)\Microsoft Visual Studio\2019\Community\VC\Tools\MSVC\14.28.29333\include\xtree
;	COMDAT ??$_Erase_tree@V?$allocator@U?$_Tree_node@U?$pair@$$CBKV?$basic_string@DU?$char_traits@D@std@@V?$allocator@D@2@@std@@@std@@PAX@std@@@std@@@?$_Tree_val@U?$_Tree_simple_types@U?$pair@$$CBKV?$basic_string@DU?$char_traits@D@std@@V?$allocator@D@2@@std@@@std@@@std@@@std@@QAEXAAV?$allocator@U?$_Tree_node@U?$pair@$$CBKV?$basic_string@DU?$char_traits@D@std@@V?$allocator@D@2@@std@@@std@@PAX@std@@@1@PAU?$_Tree_node@U?$pair@$$CBKV?$basic_string@DU?$char_traits@D@std@@V?$allocator@D@2@@std@@@std@@PAX@1@@Z
_TEXT	SEGMENT
_this$1$ = -4						; size = 4
__Al$ = 8						; size = 4
__Rootnode$ = 12					; size = 4
??$_Erase_tree@V?$allocator@U?$_Tree_node@U?$pair@$$CBKV?$basic_string@DU?$char_traits@D@std@@V?$allocator@D@2@@std@@@std@@PAX@std@@@std@@@?$_Tree_val@U?$_Tree_simple_types@U?$pair@$$CBKV?$basic_string@DU?$char_traits@D@std@@V?$allocator@D@2@@std@@@std@@@std@@@std@@QAEXAAV?$allocator@U?$_Tree_node@U?$pair@$$CBKV?$basic_string@DU?$char_traits@D@std@@V?$allocator@D@2@@std@@@std@@PAX@std@@@1@PAU?$_Tree_node@U?$pair@$$CBKV?$basic_string@DU?$char_traits@D@std@@V?$allocator@D@2@@std@@@std@@PAX@1@@Z PROC ; std::_Tree_val<std::_Tree_simple_types<std::pair<unsigned long const ,std::basic_string<char,std::char_traits<char>,std::allocator<char> > > > >::_Erase_tree<std::allocator<std::_Tree_node<std::pair<unsigned long const ,std::basic_string<char,std::char_traits<char>,std::allocator<char> > >,void *> > >, COMDAT
; _this$ = ecx

; 742  :     void _Erase_tree(_Alnode& _Al, _Nodeptr _Rootnode) noexcept {

  00000	55		 push	 ebp
  00001	8b ec		 mov	 ebp, esp
  00003	51		 push	 ecx
  00004	57		 push	 edi

; 743  :         while (!_Rootnode->_Isnil) { // free subtrees, then node

  00005	8b 7d 0c	 mov	 edi, DWORD PTR __Rootnode$[ebp]
  00008	8b c1		 mov	 eax, ecx
  0000a	89 45 fc	 mov	 DWORD PTR _this$1$[ebp], eax
  0000d	80 7f 0d 00	 cmp	 BYTE PTR [edi+13], 0
  00011	75 51		 jne	 SHORT $LN3@Erase_tree
  00013	53		 push	 ebx
  00014	8b 5d 08	 mov	 ebx, DWORD PTR __Al$[ebp]
  00017	56		 push	 esi
$LL2@Erase_tree:

; 744  :             _Erase_tree(_Al, _Rootnode->_Right);

  00018	ff 77 08	 push	 DWORD PTR [edi+8]
  0001b	8b c8		 mov	 ecx, eax
  0001d	53		 push	 ebx
  0001e	e8 00 00 00 00	 call	 ??$_Erase_tree@V?$allocator@U?$_Tree_node@U?$pair@$$CBKV?$basic_string@DU?$char_traits@D@std@@V?$allocator@D@2@@std@@@std@@PAX@std@@@std@@@?$_Tree_val@U?$_Tree_simple_types@U?$pair@$$CBKV?$basic_string@DU?$char_traits@D@std@@V?$allocator@D@2@@std@@@std@@@std@@@std@@QAEXAAV?$allocator@U?$_Tree_node@U?$pair@$$CBKV?$basic_string@DU?$char_traits@D@std@@V?$allocator@D@2@@std@@@std@@PAX@std@@@1@PAU?$_Tree_node@U?$pair@$$CBKV?$basic_string@DU?$char_traits@D@std@@V?$allocator@D@2@@std@@@std@@PAX@1@@Z ; std::_Tree_val<std::_Tree_simple_types<std::pair<unsigned long const ,std::basic_string<char,std::char_traits<char>,std::allocator<char> > > > >::_Erase_tree<std::allocator<std::_Tree_node<std::pair<unsigned long const ,std::basic_string<char,std::char_traits<char>,std::allocator<char> > >,void *> > >
; File C:\Program Files (x86)\Microsoft Visual Studio\2019\Community\VC\Tools\MSVC\14.28.29333\include\utility

; 598  :     _Ty _Old_val = static_cast<_Ty&&>(_Val);

  00023	8b f7		 mov	 esi, edi

; 599  :     _Val         = static_cast<_Other&&>(_New_val);

  00025	8b 3f		 mov	 edi, DWORD PTR [edi]
; File C:\Program Files (x86)\Microsoft Visual Studio\2019\Community\VC\Tools\MSVC\14.28.29333\include\xstring

; 2227 :         return _BUF_SIZE <= _Myres;

  00027	8b 46 28	 mov	 eax, DWORD PTR [esi+40]
  0002a	83 f8 10	 cmp	 eax, 16			; 00000010H

; 4385 :         if (_Mypair._Myval2._Large_string_engaged()) {

  0002d	72 0d		 jb	 SHORT $LN21@Erase_tree

; 4386 :             const pointer _Ptr = _Mypair._Myval2._Bx._Ptr;
; 4387 :             auto& _Al          = _Getal();
; 4388 :             _Destroy_in_place(_Mypair._Myval2._Bx._Ptr);
; 4389 :             _Al.deallocate(_Ptr, _Mypair._Myval2._Myres + 1);

  0002f	40		 inc	 eax
; File C:\Program Files (x86)\Microsoft Visual Studio\2019\Community\VC\Tools\MSVC\14.28.29333\include\xmemory

; 810  :         _Deallocate<_New_alignof<_Ty>>(_Ptr, sizeof(_Ty) * _Count);

  00030	50		 push	 eax
  00031	ff 76 14	 push	 DWORD PTR [esi+20]
  00034	e8 00 00 00 00	 call	 ??$_Deallocate@$07$0A@@std@@YAXPAXI@Z ; std::_Deallocate<8,0>
  00039	83 c4 08	 add	 esp, 8
$LN21@Erase_tree:

; 696  :         _Deallocate<_New_alignof<value_type>>(_Ptr, sizeof(value_type) * _Count);

  0003c	6a 2c		 push	 44			; 0000002cH
  0003e	56		 push	 esi
; File C:\Program Files (x86)\Microsoft Visual Studio\2019\Community\VC\Tools\MSVC\14.28.29333\include\xstring

; 4392 :         _Mypair._Myval2._Mysize = 0;

  0003f	c7 46 24 00 00
	00 00		 mov	 DWORD PTR [esi+36], 0

; 4393 :         _Mypair._Myval2._Myres  = _BUF_SIZE - 1;

  00046	c7 46 28 0f 00
	00 00		 mov	 DWORD PTR [esi+40], 15	; 0000000fH

; 4394 :         // the _Traits::assign is last so the codegen doesn't think the char write can alias this
; 4395 :         _Traits::assign(_Mypair._Myval2._Bx._Buf[0], _Elem());

  0004d	c6 46 14 00	 mov	 BYTE PTR [esi+20], 0
; File C:\Program Files (x86)\Microsoft Visual Studio\2019\Community\VC\Tools\MSVC\14.28.29333\include\xmemory

; 696  :         _Deallocate<_New_alignof<value_type>>(_Ptr, sizeof(value_type) * _Count);

  00051	e8 00 00 00 00	 call	 ??$_Deallocate@$07$0A@@std@@YAXPAXI@Z ; std::_Deallocate<8,0>
; File C:\Program Files (x86)\Microsoft Visual Studio\2019\Community\VC\Tools\MSVC\14.28.29333\include\xtree

; 743  :         while (!_Rootnode->_Isnil) { // free subtrees, then node

  00056	8b 45 fc	 mov	 eax, DWORD PTR _this$1$[ebp]
; File C:\Program Files (x86)\Microsoft Visual Studio\2019\Community\VC\Tools\MSVC\14.28.29333\include\xmemory

; 696  :         _Deallocate<_New_alignof<value_type>>(_Ptr, sizeof(value_type) * _Count);

  00059	83 c4 08	 add	 esp, 8
; File C:\Program Files (x86)\Microsoft Visual Studio\2019\Community\VC\Tools\MSVC\14.28.29333\include\xtree

; 743  :         while (!_Rootnode->_Isnil) { // free subtrees, then node

  0005c	80 7f 0d 00	 cmp	 BYTE PTR [edi+13], 0
  00060	74 b6		 je	 SHORT $LL2@Erase_tree
  00062	5e		 pop	 esi
  00063	5b		 pop	 ebx
$LN3@Erase_tree:
  00064	5f		 pop	 edi

; 745  :             _Alnode::value_type::_Freenode(_Al, _STD exchange(_Rootnode, _Rootnode->_Left));
; 746  :         }
; 747  :     }

  00065	8b e5		 mov	 esp, ebp
  00067	5d		 pop	 ebp
  00068	c2 08 00	 ret	 8
??$_Erase_tree@V?$allocator@U?$_Tree_node@U?$pair@$$CBKV?$basic_string@DU?$char_traits@D@std@@V?$allocator@D@2@@std@@@std@@PAX@std@@@std@@@?$_Tree_val@U?$_Tree_simple_types@U?$pair@$$CBKV?$basic_string@DU?$char_traits@D@std@@V?$allocator@D@2@@std@@@std@@@std@@@std@@QAEXAAV?$allocator@U?$_Tree_node@U?$pair@$$CBKV?$basic_string@DU?$char_traits@D@std@@V?$allocator@D@2@@std@@@std@@PAX@std@@@1@PAU?$_Tree_node@U?$pair@$$CBKV?$basic_string@DU?$char_traits@D@std@@V?$allocator@D@2@@std@@@std@@PAX@1@@Z ENDP ; std::_Tree_val<std::_Tree_simple_types<std::pair<unsigned long const ,std::basic_string<char,std::char_traits<char>,std::allocator<char> > > > >::_Erase_tree<std::allocator<std::_Tree_node<std::pair<unsigned long const ,std::basic_string<char,std::char_traits<char>,std::allocator<char> > >,void *> > >
_TEXT	ENDS
; Function compile flags: /Ogtp
; File C:\Program Files (x86)\Microsoft Visual Studio\2019\Community\VC\Tools\MSVC\14.28.29333\include\xtree
; File C:\Program Files (x86)\Microsoft Visual Studio\2019\Community\VC\Tools\MSVC\14.28.29333\include\utility
; File C:\Program Files (x86)\Microsoft Visual Studio\2019\Community\VC\Tools\MSVC\14.28.29333\include\xmemory
; File C:\Program Files (x86)\Microsoft Visual Studio\2019\Community\VC\Tools\MSVC\14.28.29333\include\xtree
;	COMDAT ??$_Erase_tree@V?$allocator@U?$_Tree_node@U?$pair@$$CBKK@std@@PAX@std@@@std@@@?$_Tree_val@U?$_Tree_simple_types@U?$pair@$$CBKK@std@@@std@@@std@@QAEXAAV?$allocator@U?$_Tree_node@U?$pair@$$CBKK@std@@PAX@std@@@1@PAU?$_Tree_node@U?$pair@$$CBKK@std@@PAX@1@@Z
_TEXT	SEGMENT
__Al$ = 8						; size = 4
__Rootnode$ = 12					; size = 4
??$_Erase_tree@V?$allocator@U?$_Tree_node@U?$pair@$$CBKK@std@@PAX@std@@@std@@@?$_Tree_val@U?$_Tree_simple_types@U?$pair@$$CBKK@std@@@std@@@std@@QAEXAAV?$allocator@U?$_Tree_node@U?$pair@$$CBKK@std@@PAX@std@@@1@PAU?$_Tree_node@U?$pair@$$CBKK@std@@PAX@1@@Z PROC ; std::_Tree_val<std::_Tree_simple_types<std::pair<unsigned long const ,unsigned long> > >::_Erase_tree<std::allocator<std::_Tree_node<std::pair<unsigned long const ,unsigned long>,void *> > >, COMDAT
; _this$ = ecx

; 742  :     void _Erase_tree(_Alnode& _Al, _Nodeptr _Rootnode) noexcept {

  00000	55		 push	 ebp
  00001	8b ec		 mov	 ebp, esp
  00003	53		 push	 ebx
  00004	56		 push	 esi

; 743  :         while (!_Rootnode->_Isnil) { // free subtrees, then node

  00005	8b 75 0c	 mov	 esi, DWORD PTR __Rootnode$[ebp]
  00008	8b d9		 mov	 ebx, ecx
  0000a	80 7e 0d 00	 cmp	 BYTE PTR [esi+13], 0
  0000e	75 25		 jne	 SHORT $LN3@Erase_tree
  00010	57		 push	 edi
  00011	8b 7d 08	 mov	 edi, DWORD PTR __Al$[ebp]
$LL2@Erase_tree:

; 744  :             _Erase_tree(_Al, _Rootnode->_Right);

  00014	ff 76 08	 push	 DWORD PTR [esi+8]
  00017	8b cb		 mov	 ecx, ebx
  00019	57		 push	 edi
  0001a	e8 00 00 00 00	 call	 ??$_Erase_tree@V?$allocator@U?$_Tree_node@U?$pair@$$CBKK@std@@PAX@std@@@std@@@?$_Tree_val@U?$_Tree_simple_types@U?$pair@$$CBKK@std@@@std@@@std@@QAEXAAV?$allocator@U?$_Tree_node@U?$pair@$$CBKK@std@@PAX@std@@@1@PAU?$_Tree_node@U?$pair@$$CBKK@std@@PAX@1@@Z ; std::_Tree_val<std::_Tree_simple_types<std::pair<unsigned long const ,unsigned long> > >::_Erase_tree<std::allocator<std::_Tree_node<std::pair<unsigned long const ,unsigned long>,void *> > >
; File C:\Program Files (x86)\Microsoft Visual Studio\2019\Community\VC\Tools\MSVC\14.28.29333\include\utility

; 598  :     _Ty _Old_val = static_cast<_Ty&&>(_Val);

  0001f	8b c6		 mov	 eax, esi

; 599  :     _Val         = static_cast<_Other&&>(_New_val);

  00021	8b 36		 mov	 esi, DWORD PTR [esi]
; File C:\Program Files (x86)\Microsoft Visual Studio\2019\Community\VC\Tools\MSVC\14.28.29333\include\xmemory

; 696  :         _Deallocate<_New_alignof<value_type>>(_Ptr, sizeof(value_type) * _Count);

  00023	6a 18		 push	 24			; 00000018H
  00025	50		 push	 eax
  00026	e8 00 00 00 00	 call	 ??$_Deallocate@$07$0A@@std@@YAXPAXI@Z ; std::_Deallocate<8,0>
  0002b	83 c4 08	 add	 esp, 8
; File C:\Program Files (x86)\Microsoft Visual Studio\2019\Community\VC\Tools\MSVC\14.28.29333\include\xtree

; 743  :         while (!_Rootnode->_Isnil) { // free subtrees, then node

  0002e	80 7e 0d 00	 cmp	 BYTE PTR [esi+13], 0
  00032	74 e0		 je	 SHORT $LL2@Erase_tree
  00034	5f		 pop	 edi
$LN3@Erase_tree:
  00035	5e		 pop	 esi

; 745  :             _Alnode::value_type::_Freenode(_Al, _STD exchange(_Rootnode, _Rootnode->_Left));
; 746  :         }
; 747  :     }

  00036	5b		 pop	 ebx
  00037	5d		 pop	 ebp
  00038	c2 08 00	 ret	 8
??$_Erase_tree@V?$allocator@U?$_Tree_node@U?$pair@$$CBKK@std@@PAX@std@@@std@@@?$_Tree_val@U?$_Tree_simple_types@U?$pair@$$CBKK@std@@@std@@@std@@QAEXAAV?$allocator@U?$_Tree_node@U?$pair@$$CBKK@std@@PAX@std@@@1@PAU?$_Tree_node@U?$pair@$$CBKK@std@@PAX@1@@Z ENDP ; std::_Tree_val<std::_Tree_simple_types<std::pair<unsigned long const ,unsigned long> > >::_Erase_tree<std::allocator<std::_Tree_node<std::pair<unsigned long const ,unsigned long>,void *> > >
_TEXT	ENDS
; Function compile flags: /Ogtp
; File C:\Program Files (x86)\Microsoft Visual Studio\2019\Community\VC\Tools\MSVC\14.28.29333\include\xtree
; File C:\Program Files (x86)\Microsoft Visual Studio\2019\Community\VC\Tools\MSVC\14.28.29333\include\utility
; File C:\Program Files (x86)\Microsoft Visual Studio\2019\Community\VC\Tools\MSVC\14.28.29333\include\xstring
; File C:\Program Files (x86)\Microsoft Visual Studio\2019\Community\VC\Tools\MSVC\14.28.29333\include\xmemory
; File C:\Program Files (x86)\Microsoft Visual Studio\2019\Community\VC\Tools\MSVC\14.28.29333\include\xstring
; File C:\Program Files (x86)\Microsoft Visual Studio\2019\Community\VC\Tools\MSVC\14.28.29333\include\xmemory
; File C:\Program Files (x86)\Microsoft Visual Studio\2019\Community\VC\Tools\MSVC\14.28.29333\include\xtree
; File C:\Program Files (x86)\Microsoft Visual Studio\2019\Community\VC\Tools\MSVC\14.28.29333\include\xmemory
; File C:\Program Files (x86)\Microsoft Visual Studio\2019\Community\VC\Tools\MSVC\14.28.29333\include\xtree
;	COMDAT ??$_Erase_tree@V?$allocator@U?$_Tree_node@U?$pair@$$CBEUSGuildGradeData@CPythonGuild@@@std@@PAX@std@@@std@@@?$_Tree_val@U?$_Tree_simple_types@U?$pair@$$CBEUSGuildGradeData@CPythonGuild@@@std@@@std@@@std@@QAEXAAV?$allocator@U?$_Tree_node@U?$pair@$$CBEUSGuildGradeData@CPythonGuild@@@std@@PAX@std@@@1@PAU?$_Tree_node@U?$pair@$$CBEUSGuildGradeData@CPythonGuild@@@std@@PAX@1@@Z
_TEXT	SEGMENT
_this$1$ = -4						; size = 4
__Al$ = 8						; size = 4
__Rootnode$ = 12					; size = 4
??$_Erase_tree@V?$allocator@U?$_Tree_node@U?$pair@$$CBEUSGuildGradeData@CPythonGuild@@@std@@PAX@std@@@std@@@?$_Tree_val@U?$_Tree_simple_types@U?$pair@$$CBEUSGuildGradeData@CPythonGuild@@@std@@@std@@@std@@QAEXAAV?$allocator@U?$_Tree_node@U?$pair@$$CBEUSGuildGradeData@CPythonGuild@@@std@@PAX@std@@@1@PAU?$_Tree_node@U?$pair@$$CBEUSGuildGradeData@CPythonGuild@@@std@@PAX@1@@Z PROC ; std::_Tree_val<std::_Tree_simple_types<std::pair<unsigned char const ,CPythonGuild::SGuildGradeData> > >::_Erase_tree<std::allocator<std::_Tree_node<std::pair<unsigned char const ,CPythonGuild::SGuildGradeData>,void *> > >, COMDAT
; _this$ = ecx

; 742  :     void _Erase_tree(_Alnode& _Al, _Nodeptr _Rootnode) noexcept {

  00000	55		 push	 ebp
  00001	8b ec		 mov	 ebp, esp
  00003	51		 push	 ecx
  00004	57		 push	 edi

; 743  :         while (!_Rootnode->_Isnil) { // free subtrees, then node

  00005	8b 7d 0c	 mov	 edi, DWORD PTR __Rootnode$[ebp]
  00008	8b c1		 mov	 eax, ecx
  0000a	89 45 fc	 mov	 DWORD PTR _this$1$[ebp], eax
  0000d	80 7f 0d 00	 cmp	 BYTE PTR [edi+13], 0
  00011	75 51		 jne	 SHORT $LN3@Erase_tree
  00013	53		 push	 ebx
  00014	8b 5d 08	 mov	 ebx, DWORD PTR __Al$[ebp]
  00017	56		 push	 esi
$LL2@Erase_tree:

; 744  :             _Erase_tree(_Al, _Rootnode->_Right);

  00018	ff 77 08	 push	 DWORD PTR [edi+8]
  0001b	8b c8		 mov	 ecx, eax
  0001d	53		 push	 ebx
  0001e	e8 00 00 00 00	 call	 ??$_Erase_tree@V?$allocator@U?$_Tree_node@U?$pair@$$CBEUSGuildGradeData@CPythonGuild@@@std@@PAX@std@@@std@@@?$_Tree_val@U?$_Tree_simple_types@U?$pair@$$CBEUSGuildGradeData@CPythonGuild@@@std@@@std@@@std@@QAEXAAV?$allocator@U?$_Tree_node@U?$pair@$$CBEUSGuildGradeData@CPythonGuild@@@std@@PAX@std@@@1@PAU?$_Tree_node@U?$pair@$$CBEUSGuildGradeData@CPythonGuild@@@std@@PAX@1@@Z ; std::_Tree_val<std::_Tree_simple_types<std::pair<unsigned char const ,CPythonGuild::SGuildGradeData> > >::_Erase_tree<std::allocator<std::_Tree_node<std::pair<unsigned char const ,CPythonGuild::SGuildGradeData>,void *> > >
; File C:\Program Files (x86)\Microsoft Visual Studio\2019\Community\VC\Tools\MSVC\14.28.29333\include\utility

; 598  :     _Ty _Old_val = static_cast<_Ty&&>(_Val);

  00023	8b f7		 mov	 esi, edi

; 599  :     _Val         = static_cast<_Other&&>(_New_val);

  00025	8b 3f		 mov	 edi, DWORD PTR [edi]
; File C:\Program Files (x86)\Microsoft Visual Studio\2019\Community\VC\Tools\MSVC\14.28.29333\include\xstring

; 2227 :         return _BUF_SIZE <= _Myres;

  00027	8b 46 2c	 mov	 eax, DWORD PTR [esi+44]
  0002a	83 f8 10	 cmp	 eax, 16			; 00000010H

; 4385 :         if (_Mypair._Myval2._Large_string_engaged()) {

  0002d	72 0d		 jb	 SHORT $LN24@Erase_tree

; 4386 :             const pointer _Ptr = _Mypair._Myval2._Bx._Ptr;
; 4387 :             auto& _Al          = _Getal();
; 4388 :             _Destroy_in_place(_Mypair._Myval2._Bx._Ptr);
; 4389 :             _Al.deallocate(_Ptr, _Mypair._Myval2._Myres + 1);

  0002f	40		 inc	 eax
; File C:\Program Files (x86)\Microsoft Visual Studio\2019\Community\VC\Tools\MSVC\14.28.29333\include\xmemory

; 810  :         _Deallocate<_New_alignof<_Ty>>(_Ptr, sizeof(_Ty) * _Count);

  00030	50		 push	 eax
  00031	ff 76 18	 push	 DWORD PTR [esi+24]
  00034	e8 00 00 00 00	 call	 ??$_Deallocate@$07$0A@@std@@YAXPAXI@Z ; std::_Deallocate<8,0>
  00039	83 c4 08	 add	 esp, 8
$LN24@Erase_tree:

; 696  :         _Deallocate<_New_alignof<value_type>>(_Ptr, sizeof(value_type) * _Count);

  0003c	6a 30		 push	 48			; 00000030H
  0003e	56		 push	 esi
; File C:\Program Files (x86)\Microsoft Visual Studio\2019\Community\VC\Tools\MSVC\14.28.29333\include\xstring

; 4392 :         _Mypair._Myval2._Mysize = 0;

  0003f	c7 46 28 00 00
	00 00		 mov	 DWORD PTR [esi+40], 0

; 4393 :         _Mypair._Myval2._Myres  = _BUF_SIZE - 1;

  00046	c7 46 2c 0f 00
	00 00		 mov	 DWORD PTR [esi+44], 15	; 0000000fH

; 4394 :         // the _Traits::assign is last so the codegen doesn't think the char write can alias this
; 4395 :         _Traits::assign(_Mypair._Myval2._Bx._Buf[0], _Elem());

  0004d	c6 46 18 00	 mov	 BYTE PTR [esi+24], 0
; File C:\Program Files (x86)\Microsoft Visual Studio\2019\Community\VC\Tools\MSVC\14.28.29333\include\xmemory

; 696  :         _Deallocate<_New_alignof<value_type>>(_Ptr, sizeof(value_type) * _Count);

  00051	e8 00 00 00 00	 call	 ??$_Deallocate@$07$0A@@std@@YAXPAXI@Z ; std::_Deallocate<8,0>
; File C:\Program Files (x86)\Microsoft Visual Studio\2019\Community\VC\Tools\MSVC\14.28.29333\include\xtree

; 743  :         while (!_Rootnode->_Isnil) { // free subtrees, then node

  00056	8b 45 fc	 mov	 eax, DWORD PTR _this$1$[ebp]
; File C:\Program Files (x86)\Microsoft Visual Studio\2019\Community\VC\Tools\MSVC\14.28.29333\include\xmemory

; 696  :         _Deallocate<_New_alignof<value_type>>(_Ptr, sizeof(value_type) * _Count);

  00059	83 c4 08	 add	 esp, 8
; File C:\Program Files (x86)\Microsoft Visual Studio\2019\Community\VC\Tools\MSVC\14.28.29333\include\xtree

; 743  :         while (!_Rootnode->_Isnil) { // free subtrees, then node

  0005c	80 7f 0d 00	 cmp	 BYTE PTR [edi+13], 0
  00060	74 b6		 je	 SHORT $LL2@Erase_tree
  00062	5e		 pop	 esi
  00063	5b		 pop	 ebx
$LN3@Erase_tree:
  00064	5f		 pop	 edi

; 745  :             _Alnode::value_type::_Freenode(_Al, _STD exchange(_Rootnode, _Rootnode->_Left));
; 746  :         }
; 747  :     }

  00065	8b e5		 mov	 esp, ebp
  00067	5d		 pop	 ebp
  00068	c2 08 00	 ret	 8
??$_Erase_tree@V?$allocator@U?$_Tree_node@U?$pair@$$CBEUSGuildGradeData@CPythonGuild@@@std@@PAX@std@@@std@@@?$_Tree_val@U?$_Tree_simple_types@U?$pair@$$CBEUSGuildGradeData@CPythonGuild@@@std@@@std@@@std@@QAEXAAV?$allocator@U?$_Tree_node@U?$pair@$$CBEUSGuildGradeData@CPythonGuild@@@std@@PAX@std@@@1@PAU?$_Tree_node@U?$pair@$$CBEUSGuildGradeData@CPythonGuild@@@std@@PAX@1@@Z ENDP ; std::_Tree_val<std::_Tree_simple_types<std::pair<unsigned char const ,CPythonGuild::SGuildGradeData> > >::_Erase_tree<std::allocator<std::_Tree_node<std::pair<unsigned char const ,CPythonGuild::SGuildGradeData>,void *> > >
_TEXT	ENDS
; Function compile flags: /Ogtp
; File C:\Program Files (x86)\Microsoft Visual Studio\2019\Community\VC\Tools\MSVC\14.28.29333\include\vector
; File C:\Program Files (x86)\Microsoft Visual Studio\2019\Community\VC\Tools\MSVC\14.28.29333\include\xmemory
; File C:\Program Files (x86)\Microsoft Visual Studio\2019\Community\VC\Tools\MSVC\14.28.29333\include\vector
; File C:\Program Files (x86)\Microsoft Visual Studio\2019\Community\VC\Tools\MSVC\14.28.29333\include\xmemory
; File C:\Program Files (x86)\Microsoft Visual Studio\2019\Community\VC\Tools\MSVC\14.28.29333\include\vector
; File C:\Program Files (x86)\Microsoft Visual Studio\2019\Community\VC\Tools\MSVC\14.28.29333\include\xmemory
; File C:\Program Files (x86)\Microsoft Visual Studio\2019\Community\VC\Tools\MSVC\14.28.29333\include\vector
; File C:\Program Files (x86)\Microsoft Visual Studio\2019\Community\VC\Tools\MSVC\14.28.29333\include\xmemory
; File C:\Program Files (x86)\Microsoft Visual Studio\2019\Community\VC\Tools\MSVC\14.28.29333\include\vector
; File C:\Program Files (x86)\Microsoft Visual Studio\2019\Community\VC\Tools\MSVC\14.28.29333\include\xmemory
; File C:\Program Files (x86)\Microsoft Visual Studio\2019\Community\VC\Tools\MSVC\14.28.29333\include\vector
; File C:\Program Files (x86)\Microsoft Visual Studio\2019\Community\VC\Tools\MSVC\14.28.29333\include\xmemory
; File C:\Program Files (x86)\Microsoft Visual Studio\2019\Community\VC\Tools\MSVC\14.28.29333\include\vector
;	COMDAT ??$_Emplace_reallocate@ABUSGuildMemberData@CPythonGuild@@@?$vector@USGuildMemberData@CPythonGuild@@V?$allocator@USGuildMemberData@CPythonGuild@@@std@@@std@@QAEPAUSGuildMemberData@CPythonGuild@@QAU23@ABU23@@Z
_TEXT	SEGMENT
__Newvec$ = -44						; size = 4
_this$ = -40						; size = 4
__Constructed_last$ = -36				; size = 4
tv487 = -32						; size = 4
__Oldsize$1$ = -28					; size = 4
tv495 = -24						; size = 4
__Newcapacity$ = -20					; size = 4
__$EHRec$ = -16						; size = 16
__Whereptr$ = 8						; size = 4
_<_Val_0>$ = 12						; size = 4
??$_Emplace_reallocate@ABUSGuildMemberData@CPythonGuild@@@?$vector@USGuildMemberData@CPythonGuild@@V?$allocator@USGuildMemberData@CPythonGuild@@@std@@@std@@QAEPAUSGuildMemberData@CPythonGuild@@QAU23@ABU23@@Z PROC ; std::vector<CPythonGuild::SGuildMemberData,std::allocator<CPythonGuild::SGuildMemberData> >::_Emplace_reallocate<CPythonGuild::SGuildMemberData const &>, COMDAT
; _this$ = ecx

; 725  :     pointer _Emplace_reallocate(const pointer _Whereptr, _Valty&&... _Val) {

  00000	55		 push	 ebp
  00001	8b ec		 mov	 ebp, esp
  00003	6a ff		 push	 -1
  00005	68 00 00 00 00	 push	 __ehhandler$??$_Emplace_reallocate@ABUSGuildMemberData@CPythonGuild@@@?$vector@USGuildMemberData@CPythonGuild@@V?$allocator@USGuildMemberData@CPythonGuild@@@std@@@std@@QAEPAUSGuildMemberData@CPythonGuild@@QAU23@ABU23@@Z
  0000a	64 a1 00 00 00
	00		 mov	 eax, DWORD PTR fs:0
  00010	50		 push	 eax
  00011	83 ec 20	 sub	 esp, 32			; 00000020H
  00014	53		 push	 ebx
  00015	56		 push	 esi
  00016	57		 push	 edi
  00017	a1 00 00 00 00	 mov	 eax, DWORD PTR ___security_cookie
  0001c	33 c5		 xor	 eax, ebp
  0001e	50		 push	 eax
  0001f	8d 45 f4	 lea	 eax, DWORD PTR __$EHRec$[ebp+4]
  00022	64 a3 00 00 00
	00		 mov	 DWORD PTR fs:0, eax
  00028	89 65 f0	 mov	 DWORD PTR __$EHRec$[ebp], esp
  0002b	8b f9		 mov	 edi, ecx
  0002d	89 7d d8	 mov	 DWORD PTR _this$[ebp], edi

; 726  :         // reallocate and insert by perfectly forwarding _Val at _Whereptr
; 727  :         _Alty& _Al        = _Getal();
; 728  :         auto& _My_data    = _Mypair._Myval2;
; 729  :         pointer& _Myfirst = _My_data._Myfirst;
; 730  :         pointer& _Mylast  = _My_data._Mylast;
; 731  : 
; 732  :         _STL_INTERNAL_CHECK(_Mylast == _My_data._Myend); // check that we have no unused capacity
; 733  : 
; 734  :         const auto _Whereoff = static_cast<size_type>(_Whereptr - _Myfirst);

  00030	8b 55 08	 mov	 edx, DWORD PTR __Whereptr$[ebp]
  00033	b8 39 8e e3 38	 mov	 eax, 954437177		; 38e38e39H
  00038	2b 17		 sub	 edx, DWORD PTR [edi]

; 735  :         const auto _Oldsize  = static_cast<size_type>(_Mylast - _Myfirst);

  0003a	8b 4f 04	 mov	 ecx, DWORD PTR [edi+4]
  0003d	2b 0f		 sub	 ecx, DWORD PTR [edi]
  0003f	f7 ea		 imul	 edx
  00041	b8 39 8e e3 38	 mov	 eax, 954437177		; 38e38e39H
  00046	c1 fa 03	 sar	 edx, 3
  00049	8b f2		 mov	 esi, edx
  0004b	c1 ee 1f	 shr	 esi, 31			; 0000001fH
  0004e	03 f2		 add	 esi, edx
  00050	f7 e9		 imul	 ecx
  00052	c1 fa 03	 sar	 edx, 3
  00055	8b c2		 mov	 eax, edx
  00057	c1 e8 1f	 shr	 eax, 31			; 0000001fH
  0005a	03 c2		 add	 eax, edx
  0005c	89 45 e4	 mov	 DWORD PTR __Oldsize$1$[ebp], eax

; 736  : 
; 737  :         if (_Oldsize == max_size()) {

  0005f	3d c7 71 1c 07	 cmp	 eax, 119304647		; 071c71c7H
  00064	0f 84 6d 01 00
	00		 je	 $LN48@Emplace_re

; 1494 :         return static_cast<size_type>(_My_data._Myend - _My_data._Myfirst);

  0006a	8b 4f 08	 mov	 ecx, DWORD PTR [edi+8]

; 739  :         }
; 740  : 
; 741  :         const size_type _Newsize     = _Oldsize + 1;

  0006d	8d 58 01	 lea	 ebx, DWORD PTR [eax+1]

; 1494 :         return static_cast<size_type>(_My_data._Myend - _My_data._Myfirst);

  00070	2b 0f		 sub	 ecx, DWORD PTR [edi]
  00072	b8 39 8e e3 38	 mov	 eax, 954437177		; 38e38e39H
  00077	f7 e9		 imul	 ecx

; 1620 :         if (_Oldcapacity > _Max - _Oldcapacity / 2) {

  00079	b8 c7 71 1c 07	 mov	 eax, 119304647		; 071c71c7H

; 1494 :         return static_cast<size_type>(_My_data._Myend - _My_data._Myfirst);

  0007e	c1 fa 03	 sar	 edx, 3
  00081	8b ca		 mov	 ecx, edx
  00083	c1 e9 1f	 shr	 ecx, 31			; 0000001fH
  00086	03 ca		 add	 ecx, edx

; 1620 :         if (_Oldcapacity > _Max - _Oldcapacity / 2) {

  00088	8b d1		 mov	 edx, ecx
  0008a	d1 ea		 shr	 edx, 1
  0008c	2b c2		 sub	 eax, edx
  0008e	3b c8		 cmp	 ecx, eax
  00090	76 7d		 jbe	 SHORT $LN12@Emplace_re

; 1621 :             return _Max; // geometric growth would overflow

  00092	b9 c7 71 1c 07	 mov	 ecx, 119304647		; 071c71c7H
$LN44@Emplace_re:
; File C:\Program Files (x86)\Microsoft Visual Studio\2019\Community\VC\Tools\MSVC\14.28.29333\include\xmemory

; 65   :     return _Count * _Ty_size;

  00097	8d 04 c9	 lea	 eax, DWORD PTR [ecx+ecx*8]
  0009a	89 4d ec	 mov	 DWORD PTR __Newcapacity$[ebp], ecx
  0009d	c1 e0 02	 shl	 eax, 2

; 814  :         return static_cast<_Ty*>(_Allocate<_New_alignof<_Ty>>(_Get_size_of_n<sizeof(_Ty)>(_Count)));

  000a0	50		 push	 eax

; 65   :     return _Count * _Ty_size;

  000a1	89 45 e0	 mov	 DWORD PTR tv487[ebp], eax

; 814  :         return static_cast<_Ty*>(_Allocate<_New_alignof<_Ty>>(_Get_size_of_n<sizeof(_Ty)>(_Count)));

  000a4	e8 00 00 00 00	 call	 ??$_Allocate@$07U_Default_allocate_traits@std@@$0A@@std@@YAPAXI@Z ; std::_Allocate<8,std::_Default_allocate_traits,0>
  000a9	8b 4d 0c	 mov	 ecx, DWORD PTR _<_Val_0>$[ebp]
  000ac	8b d8		 mov	 ebx, eax
; File C:\Program Files (x86)\Microsoft Visual Studio\2019\Community\VC\Tools\MSVC\14.28.29333\include\vector

; 745  :         const pointer _Constructed_last = _Newvec + _Whereoff + 1;

  000ae	8d 04 f6	 lea	 eax, DWORD PTR [esi+esi*8]
; File C:\Program Files (x86)\Microsoft Visual Studio\2019\Community\VC\Tools\MSVC\14.28.29333\include\xmemory

; 814  :         return static_cast<_Ty*>(_Allocate<_New_alignof<_Ty>>(_Get_size_of_n<sizeof(_Ty)>(_Count)));

  000b1	89 5d d4	 mov	 DWORD PTR __Newvec$[ebp], ebx
; File C:\Program Files (x86)\Microsoft Visual Studio\2019\Community\VC\Tools\MSVC\14.28.29333\include\vector

; 745  :         const pointer _Constructed_last = _Newvec + _Whereoff + 1;

  000b4	8d 34 83	 lea	 esi, DWORD PTR [ebx+eax*4]

; 746  :         pointer _Constructed_first      = _Constructed_last;
; 747  : 
; 748  :         _TRY_BEGIN

  000b7	c7 45 fc 00 00
	00 00		 mov	 DWORD PTR __$EHRec$[ebp+12], 0
  000be	8d 46 24	 lea	 eax, DWORD PTR [esi+36]
  000c1	89 75 e8	 mov	 DWORD PTR tv495[ebp], esi
  000c4	89 45 dc	 mov	 DWORD PTR __Constructed_last$[ebp], eax
; File C:\Program Files (x86)\Microsoft Visual Studio\2019\Community\VC\Tools\MSVC\14.28.29333\include\xmemory

; 814  :         return static_cast<_Ty*>(_Allocate<_New_alignof<_Ty>>(_Get_size_of_n<sizeof(_Ty)>(_Count)));

  000c7	83 c4 04	 add	 esp, 4
  000ca	8b 01		 mov	 eax, DWORD PTR [ecx]
  000cc	89 06		 mov	 DWORD PTR [esi], eax
  000ce	8d 41 04	 lea	 eax, DWORD PTR [ecx+4]
  000d1	8d 4e 04	 lea	 ecx, DWORD PTR [esi+4]
  000d4	50		 push	 eax
  000d5	e8 00 00 00 00	 call	 ??0?$basic_string@DU?$char_traits@D@std@@V?$allocator@D@2@@std@@QAE@ABV01@@Z ; std::basic_string<char,std::char_traits<char>,std::allocator<char> >::basic_string<char,std::char_traits<char>,std::allocator<char> >
  000da	8b 4d 0c	 mov	 ecx, DWORD PTR _<_Val_0>$[ebp]
  000dd	0f b6 41 1c	 movzx	 eax, BYTE PTR [ecx+28]
  000e1	88 46 1c	 mov	 BYTE PTR [esi+28], al
  000e4	0f b6 41 1d	 movzx	 eax, BYTE PTR [ecx+29]
  000e8	88 46 1d	 mov	 BYTE PTR [esi+29], al
  000eb	0f b6 41 1e	 movzx	 eax, BYTE PTR [ecx+30]
  000ef	88 46 1e	 mov	 BYTE PTR [esi+30], al
  000f2	0f b6 41 1f	 movzx	 eax, BYTE PTR [ecx+31]
  000f6	88 46 1f	 mov	 BYTE PTR [esi+31], al
  000f9	8b 41 20	 mov	 eax, DWORD PTR [ecx+32]
; File C:\Program Files (x86)\Microsoft Visual Studio\2019\Community\VC\Tools\MSVC\14.28.29333\include\vector

; 752  :         if (_Whereptr == _Mylast) { // at back, provide strong guarantee

  000fc	8b 4d 08	 mov	 ecx, DWORD PTR __Whereptr$[ebp]
  000ff	89 46 20	 mov	 DWORD PTR [esi+32], eax
  00102	8b 57 04	 mov	 edx, DWORD PTR [edi+4]
  00105	8b 07		 mov	 eax, DWORD PTR [edi]
  00107	3b ca		 cmp	 ecx, edx
  00109	75 1f		 jne	 SHORT $LN4@Emplace_re

; 1597 :         _Uninitialized_move(_First, _Last, _Dest, _Getal());

  0010b	8b cb		 mov	 ecx, ebx

; 753  :             _Umove_if_noexcept(_Myfirst, _Mylast, _Newvec);
; 754  :         } else { // provide basic guarantee

  0010d	eb 30		 jmp	 SHORT $LN5@Emplace_re
$LN12@Emplace_re:

; 1624 :         const size_type _Geometric = _Oldcapacity + _Oldcapacity / 2;

  0010f	8d 04 0a	 lea	 eax, DWORD PTR [edx+ecx]
; File C:\Program Files (x86)\Microsoft Visual Studio\2019\Community\VC\Tools\MSVC\14.28.29333\include\xmemory

; 60   :         if (_Count > _Max_possible) {

  00112	8b cb		 mov	 ecx, ebx
  00114	3b c3		 cmp	 eax, ebx
  00116	0f 43 c8	 cmovae	 ecx, eax
  00119	81 f9 c7 71 1c
	07		 cmp	 ecx, 119304647		; 071c71c7H
  0011f	0f 87 b7 00 00
	00		 ja	 $LN49@Emplace_re
  00125	e9 6d ff ff ff	 jmp	 $LN44@Emplace_re
$LN4@Emplace_re:
; File C:\Program Files (x86)\Microsoft Visual Studio\2019\Community\VC\Tools\MSVC\14.28.29333\include\vector

; 1592 :         return _Uninitialized_move(_First, _Last, _Dest, _Getal());

  0012a	57		 push	 edi
  0012b	53		 push	 ebx
  0012c	51		 push	 ecx
  0012d	50		 push	 eax
  0012e	e8 00 00 00 00	 call	 ??$_Uninitialized_move@PAUSGuildMemberData@CPythonGuild@@V?$allocator@USGuildMemberData@CPythonGuild@@@std@@@std@@YAPAUSGuildMemberData@CPythonGuild@@QAU12@0PAU12@AAV?$allocator@USGuildMemberData@CPythonGuild@@@0@@Z ; std::_Uninitialized_move<CPythonGuild::SGuildMemberData *,std::allocator<CPythonGuild::SGuildMemberData> >
  00133	8b 45 08	 mov	 eax, DWORD PTR __Whereptr$[ebp]
  00136	8d 4e 24	 lea	 ecx, DWORD PTR [esi+36]
  00139	8b 57 04	 mov	 edx, DWORD PTR [edi+4]
  0013c	83 c4 10	 add	 esp, 16			; 00000010H
$LN5@Emplace_re:

; 755  :             _Umove(_Myfirst, _Whereptr, _Newvec);
; 756  :             _Constructed_first = _Newvec;
; 757  :             _Umove(_Whereptr, _Mylast, _Newvec + _Whereoff + 1);

  0013f	57		 push	 edi
  00140	51		 push	 ecx
  00141	52		 push	 edx
  00142	50		 push	 eax
  00143	e8 00 00 00 00	 call	 ??$_Uninitialized_move@PAUSGuildMemberData@CPythonGuild@@V?$allocator@USGuildMemberData@CPythonGuild@@@std@@@std@@YAPAUSGuildMemberData@CPythonGuild@@QAU12@0PAU12@AAV?$allocator@USGuildMemberData@CPythonGuild@@@0@@Z ; std::_Uninitialized_move<CPythonGuild::SGuildMemberData *,std::allocator<CPythonGuild::SGuildMemberData> >

; 1676 :         if (_Myfirst) { // destroy and deallocate old array

  00148	8b 0f		 mov	 ecx, DWORD PTR [edi]

; 755  :             _Umove(_Myfirst, _Whereptr, _Newvec);
; 756  :             _Constructed_first = _Newvec;
; 757  :             _Umove(_Whereptr, _Mylast, _Newvec + _Whereoff + 1);

  0014a	83 c4 10	 add	 esp, 16			; 00000010H

; 1676 :         if (_Myfirst) { // destroy and deallocate old array

  0014d	85 c9		 test	 ecx, ecx
  0014f	74 35		 je	 SHORT $LN38@Emplace_re

; 1612 :         _Destroy_range(_First, _Last, _Getal());

  00151	57		 push	 edi
  00152	ff 77 04	 push	 DWORD PTR [edi+4]
  00155	51		 push	 ecx
  00156	e8 00 00 00 00	 call	 ??$_Destroy_range@V?$allocator@USGuildMemberData@CPythonGuild@@@std@@@std@@YAXPAUSGuildMemberData@CPythonGuild@@QAU12@AAV?$allocator@USGuildMemberData@CPythonGuild@@@0@@Z ; std::_Destroy_range<std::allocator<CPythonGuild::SGuildMemberData> >

; 1678 :             _Getal().deallocate(_Myfirst, static_cast<size_type>(_Myend - _Myfirst));

  0015b	8b 37		 mov	 esi, DWORD PTR [edi]
  0015d	b8 39 8e e3 38	 mov	 eax, 954437177		; 38e38e39H
  00162	8b 4f 08	 mov	 ecx, DWORD PTR [edi+8]
  00165	2b ce		 sub	 ecx, esi
  00167	f7 e9		 imul	 ecx
  00169	c1 fa 03	 sar	 edx, 3
  0016c	8b c2		 mov	 eax, edx
  0016e	c1 e8 1f	 shr	 eax, 31			; 0000001fH
  00171	03 c2		 add	 eax, edx
; File C:\Program Files (x86)\Microsoft Visual Studio\2019\Community\VC\Tools\MSVC\14.28.29333\include\xmemory

; 810  :         _Deallocate<_New_alignof<_Ty>>(_Ptr, sizeof(_Ty) * _Count);

  00173	8d 04 c0	 lea	 eax, DWORD PTR [eax+eax*8]
  00176	c1 e0 02	 shl	 eax, 2
  00179	50		 push	 eax
  0017a	56		 push	 esi
  0017b	e8 00 00 00 00	 call	 ??$_Deallocate@$07$0A@@std@@YAXPAXI@Z ; std::_Deallocate<8,0>
  00180	8b 75 e8	 mov	 esi, DWORD PTR tv495[ebp]
  00183	83 c4 14	 add	 esp, 20			; 00000014H
$LN38@Emplace_re:
; File C:\Program Files (x86)\Microsoft Visual Studio\2019\Community\VC\Tools\MSVC\14.28.29333\include\vector

; 1682 :         _Mylast  = _Newvec + _Newsize;

  00186	8b 45 e4	 mov	 eax, DWORD PTR __Oldsize$1$[ebp]
  00189	40		 inc	 eax
  0018a	89 1f		 mov	 DWORD PTR [edi], ebx
  0018c	8d 0c c0	 lea	 ecx, DWORD PTR [eax+eax*8]

; 763  :         _CATCH_END
; 764  : 
; 765  :         _Change_array(_Newvec, _Newsize, _Newcapacity);
; 766  :         return _Newvec + _Whereoff;

  0018f	8b c6		 mov	 eax, esi

; 1682 :         _Mylast  = _Newvec + _Newsize;

  00191	8d 0c 8b	 lea	 ecx, DWORD PTR [ebx+ecx*4]
  00194	89 4f 04	 mov	 DWORD PTR [edi+4], ecx

; 1683 :         _Myend   = _Newvec + _Newcapacity;

  00197	8b 4d e0	 mov	 ecx, DWORD PTR tv487[ebp]
  0019a	03 cb		 add	 ecx, ebx
  0019c	89 4f 08	 mov	 DWORD PTR [edi+8], ecx

; 767  :     }

  0019f	8b 4d f4	 mov	 ecx, DWORD PTR __$EHRec$[ebp+4]
  001a2	64 89 0d 00 00
	00 00		 mov	 DWORD PTR fs:0, ecx
  001a9	59		 pop	 ecx
  001aa	5f		 pop	 edi
  001ab	5e		 pop	 esi
  001ac	5b		 pop	 ebx
  001ad	8b e5		 mov	 esp, ebp
  001af	5d		 pop	 ebp
  001b0	c2 08 00	 ret	 8
__catch$??$_Emplace_reallocate@ABUSGuildMemberData@CPythonGuild@@@?$vector@USGuildMemberData@CPythonGuild@@V?$allocator@USGuildMemberData@CPythonGuild@@@std@@@std@@QAEPAUSGuildMemberData@CPythonGuild@@QAU23@ABU23@@Z$0:

; 758  :         }
; 759  :         _CATCH_ALL
; 760  :         _Destroy(_Constructed_first, _Constructed_last);

  001b3	8b 45 dc	 mov	 eax, DWORD PTR __Constructed_last$[ebp]
  001b6	8b 4d d8	 mov	 ecx, DWORD PTR _this$[ebp]
  001b9	50		 push	 eax
  001ba	50		 push	 eax
  001bb	e8 00 00 00 00	 call	 ?_Destroy@?$vector@USGuildMemberData@CPythonGuild@@V?$allocator@USGuildMemberData@CPythonGuild@@@std@@@std@@AAEXPAUSGuildMemberData@CPythonGuild@@0@Z ; std::vector<CPythonGuild::SGuildMemberData,std::allocator<CPythonGuild::SGuildMemberData> >::_Destroy

; 761  :         _Al.deallocate(_Newvec, _Newcapacity);

  001c0	ff 75 ec	 push	 DWORD PTR __Newcapacity$[ebp]
  001c3	8b 4d d8	 mov	 ecx, DWORD PTR _this$[ebp]
  001c6	ff 75 d4	 push	 DWORD PTR __Newvec$[ebp]
  001c9	e8 00 00 00 00	 call	 ?deallocate@?$allocator@USGuildMemberData@CPythonGuild@@@std@@QAEXQAUSGuildMemberData@CPythonGuild@@I@Z ; std::allocator<CPythonGuild::SGuildMemberData>::deallocate

; 762  :         _RERAISE;

  001ce	6a 00		 push	 0
  001d0	6a 00		 push	 0
  001d2	e8 00 00 00 00	 call	 __CxxThrowException@8
$LN48@Emplace_re:

; 738  :             _Xlength();

  001d7	e8 00 00 00 00	 call	 ?_Xlength@?$vector@USGuildMemberData@CPythonGuild@@V?$allocator@USGuildMemberData@CPythonGuild@@@std@@@std@@CAXXZ ; std::vector<CPythonGuild::SGuildMemberData,std::allocator<CPythonGuild::SGuildMemberData> >::_Xlength
$LN49@Emplace_re:
; File C:\Program Files (x86)\Microsoft Visual Studio\2019\Community\VC\Tools\MSVC\14.28.29333\include\xmemory

; 61   :             _Throw_bad_array_new_length(); // multiply overflow

  001dc	e8 00 00 00 00	 call	 ?_Throw_bad_array_new_length@std@@YAXXZ ; std::_Throw_bad_array_new_length
$LN46@Emplace_re:
  001e1	cc		 int	 3
  001e2	cc		 int	 3
  001e3	cc		 int	 3
  001e4	cc		 int	 3
  001e5	cc		 int	 3
  001e6	cc		 int	 3
_TEXT	ENDS
;	COMDAT text$x
text$x	SEGMENT
__ehhandler$??$_Emplace_reallocate@ABUSGuildMemberData@CPythonGuild@@@?$vector@USGuildMemberData@CPythonGuild@@V?$allocator@USGuildMemberData@CPythonGuild@@@std@@@std@@QAEPAUSGuildMemberData@CPythonGuild@@QAU23@ABU23@@Z:
  00000	90		 npad	 1
  00001	90		 npad	 1
  00002	8b 54 24 08	 mov	 edx, DWORD PTR [esp+8]
  00006	8d 42 0c	 lea	 eax, DWORD PTR [edx+12]
  00009	8b 4a d0	 mov	 ecx, DWORD PTR [edx-48]
  0000c	33 c8		 xor	 ecx, eax
  0000e	e8 00 00 00 00	 call	 @__security_check_cookie@4
  00013	b8 00 00 00 00	 mov	 eax, OFFSET __ehfuncinfo$??$_Emplace_reallocate@ABUSGuildMemberData@CPythonGuild@@@?$vector@USGuildMemberData@CPythonGuild@@V?$allocator@USGuildMemberData@CPythonGuild@@@std@@@std@@QAEPAUSGuildMemberData@CPythonGuild@@QAU23@ABU23@@Z
  00018	e9 00 00 00 00	 jmp	 ___CxxFrameHandler3
text$x	ENDS
??$_Emplace_reallocate@ABUSGuildMemberData@CPythonGuild@@@?$vector@USGuildMemberData@CPythonGuild@@V?$allocator@USGuildMemberData@CPythonGuild@@@std@@@std@@QAEPAUSGuildMemberData@CPythonGuild@@QAU23@ABU23@@Z ENDP ; std::vector<CPythonGuild::SGuildMemberData,std::allocator<CPythonGuild::SGuildMemberData> >::_Emplace_reallocate<CPythonGuild::SGuildMemberData const &>
; Function compile flags: /Ogtp
; File C:\Program Files (x86)\Microsoft Visual Studio\2019\Community\VC\Tools\MSVC\14.28.29333\include\vector
; File C:\Program Files (x86)\Microsoft Visual Studio\2019\Community\VC\Tools\MSVC\14.28.29333\include\xmemory
; File C:\Program Files (x86)\Microsoft Visual Studio\2019\Community\VC\Tools\MSVC\14.28.29333\include\vector
; File C:\Program Files (x86)\Microsoft Visual Studio\2019\Community\VC\Tools\MSVC\14.28.29333\include\xmemory
; File C:\Program Files (x86)\Microsoft Visual Studio\2019\Community\VC\Tools\MSVC\14.28.29333\include\vector
; File C:\Program Files (x86)\Microsoft Visual Studio\2019\Community\VC\Tools\MSVC\14.28.29333\include\xmemory
; File C:\Program Files (x86)\Microsoft Visual Studio\2019\Community\VC\Tools\MSVC\14.28.29333\include\vector
; File C:\Program Files (x86)\Microsoft Visual Studio\2019\Community\VC\Tools\MSVC\14.28.29333\include\xmemory
; File C:\Program Files (x86)\Microsoft Visual Studio\2019\Community\VC\Tools\MSVC\14.28.29333\include\vector
; File C:\Program Files (x86)\Microsoft Visual Studio\2019\Community\VC\Tools\MSVC\14.28.29333\include\xmemory
; File C:\Program Files (x86)\Microsoft Visual Studio\2019\Community\VC\Tools\MSVC\14.28.29333\include\vector
; File C:\Program Files (x86)\Microsoft Visual Studio\2019\Community\VC\Tools\MSVC\14.28.29333\include\xmemory
; File C:\Program Files (x86)\Microsoft Visual Studio\2019\Community\VC\Tools\MSVC\14.28.29333\include\vector
; File C:\Program Files (x86)\Microsoft Visual Studio\2019\Community\VC\Tools\MSVC\14.28.29333\include\xmemory
; File C:\Program Files (x86)\Microsoft Visual Studio\2019\Community\VC\Tools\MSVC\14.28.29333\include\vector
;	COMDAT ??$_Emplace_reallocate@ABUSGuildBoardCommentData@CPythonGuild@@@?$vector@USGuildBoardCommentData@CPythonGuild@@V?$allocator@USGuildBoardCommentData@CPythonGuild@@@std@@@std@@QAEPAUSGuildBoardCommentData@CPythonGuild@@QAU23@ABU23@@Z
_TEXT	SEGMENT
$T2 = -48						; size = 4
__Newvec$ = -44						; size = 4
_this$ = -40						; size = 4
__Constructed_last$ = -36				; size = 4
tv464 = -32						; size = 4
__Newsize$1$ = -28					; size = 4
tv473 = -24						; size = 4
__Newcapacity$ = -20					; size = 4
__$EHRec$ = -16						; size = 16
__Whereptr$ = 8						; size = 4
_<_Val_0>$ = 12						; size = 4
??$_Emplace_reallocate@ABUSGuildBoardCommentData@CPythonGuild@@@?$vector@USGuildBoardCommentData@CPythonGuild@@V?$allocator@USGuildBoardCommentData@CPythonGuild@@@std@@@std@@QAEPAUSGuildBoardCommentData@CPythonGuild@@QAU23@ABU23@@Z PROC ; std::vector<CPythonGuild::SGuildBoardCommentData,std::allocator<CPythonGuild::SGuildBoardCommentData> >::_Emplace_reallocate<CPythonGuild::SGuildBoardCommentData const &>, COMDAT
; _this$ = ecx

; 725  :     pointer _Emplace_reallocate(const pointer _Whereptr, _Valty&&... _Val) {

  00000	55		 push	 ebp
  00001	8b ec		 mov	 ebp, esp
  00003	6a ff		 push	 -1
  00005	68 00 00 00 00	 push	 __ehhandler$??$_Emplace_reallocate@ABUSGuildBoardCommentData@CPythonGuild@@@?$vector@USGuildBoardCommentData@CPythonGuild@@V?$allocator@USGuildBoardCommentData@CPythonGuild@@@std@@@std@@QAEPAUSGuildBoardCommentData@CPythonGuild@@QAU23@ABU23@@Z
  0000a	64 a1 00 00 00
	00		 mov	 eax, DWORD PTR fs:0
  00010	50		 push	 eax
  00011	83 ec 24	 sub	 esp, 36			; 00000024H
  00014	53		 push	 ebx
  00015	56		 push	 esi
  00016	57		 push	 edi
  00017	a1 00 00 00 00	 mov	 eax, DWORD PTR ___security_cookie
  0001c	33 c5		 xor	 eax, ebp
  0001e	50		 push	 eax
  0001f	8d 45 f4	 lea	 eax, DWORD PTR __$EHRec$[ebp+4]
  00022	64 a3 00 00 00
	00		 mov	 DWORD PTR fs:0, eax
  00028	89 65 f0	 mov	 DWORD PTR __$EHRec$[ebp], esp
  0002b	8b f9		 mov	 edi, ecx
  0002d	89 7d d8	 mov	 DWORD PTR _this$[ebp], edi

; 726  :         // reallocate and insert by perfectly forwarding _Val at _Whereptr
; 727  :         _Alty& _Al        = _Getal();
; 728  :         auto& _My_data    = _Mypair._Myval2;
; 729  :         pointer& _Myfirst = _My_data._Myfirst;
; 730  :         pointer& _Mylast  = _My_data._Mylast;
; 731  : 
; 732  :         _STL_INTERNAL_CHECK(_Mylast == _My_data._Myend); // check that we have no unused capacity
; 733  : 
; 734  :         const auto _Whereoff = static_cast<size_type>(_Whereptr - _Myfirst);

  00030	8b 55 08	 mov	 edx, DWORD PTR __Whereptr$[ebp]
  00033	b8 4f ec c4 4e	 mov	 eax, 1321528399		; 4ec4ec4fH
  00038	2b 17		 sub	 edx, DWORD PTR [edi]

; 735  :         const auto _Oldsize  = static_cast<size_type>(_Mylast - _Myfirst);

  0003a	8b 4f 04	 mov	 ecx, DWORD PTR [edi+4]
  0003d	2b 0f		 sub	 ecx, DWORD PTR [edi]
  0003f	f7 ea		 imul	 edx
  00041	b8 4f ec c4 4e	 mov	 eax, 1321528399		; 4ec4ec4fH
  00046	c1 fa 04	 sar	 edx, 4
  00049	8b f2		 mov	 esi, edx
  0004b	c1 ee 1f	 shr	 esi, 31			; 0000001fH
  0004e	03 f2		 add	 esi, edx
  00050	f7 e9		 imul	 ecx
  00052	c1 fa 04	 sar	 edx, 4
  00055	8b c2		 mov	 eax, edx
  00057	c1 e8 1f	 shr	 eax, 31			; 0000001fH
  0005a	03 c2		 add	 eax, edx

; 736  : 
; 737  :         if (_Oldsize == max_size()) {

  0005c	3d c4 4e ec 04	 cmp	 eax, 82595524		; 04ec4ec4H
  00061	0f 84 53 01 00
	00		 je	 $LN49@Emplace_re

; 1494 :         return static_cast<size_type>(_My_data._Myend - _My_data._Myfirst);

  00067	8b 4f 08	 mov	 ecx, DWORD PTR [edi+8]

; 739  :         }
; 740  : 
; 741  :         const size_type _Newsize     = _Oldsize + 1;

  0006a	8d 58 01	 lea	 ebx, DWORD PTR [eax+1]

; 1494 :         return static_cast<size_type>(_My_data._Myend - _My_data._Myfirst);

  0006d	2b 0f		 sub	 ecx, DWORD PTR [edi]
  0006f	b8 4f ec c4 4e	 mov	 eax, 1321528399		; 4ec4ec4fH
  00074	f7 e9		 imul	 ecx

; 1620 :         if (_Oldcapacity > _Max - _Oldcapacity / 2) {

  00076	b8 c4 4e ec 04	 mov	 eax, 82595524		; 04ec4ec4H

; 739  :         }
; 740  : 
; 741  :         const size_type _Newsize     = _Oldsize + 1;

  0007b	89 5d e4	 mov	 DWORD PTR __Newsize$1$[ebp], ebx

; 1494 :         return static_cast<size_type>(_My_data._Myend - _My_data._Myfirst);

  0007e	c1 fa 04	 sar	 edx, 4
  00081	8b ca		 mov	 ecx, edx
  00083	c1 e9 1f	 shr	 ecx, 31			; 0000001fH
  00086	03 ca		 add	 ecx, edx

; 1620 :         if (_Oldcapacity > _Max - _Oldcapacity / 2) {

  00088	8b d1		 mov	 edx, ecx
  0008a	d1 ea		 shr	 edx, 1
  0008c	2b c2		 sub	 eax, edx
  0008e	3b c8		 cmp	 ecx, eax
  00090	76 6a		 jbe	 SHORT $LN12@Emplace_re

; 1621 :             return _Max; // geometric growth would overflow

  00092	b9 c4 4e ec 04	 mov	 ecx, 82595524		; 04ec4ec4H
$LN45@Emplace_re:
; File C:\Program Files (x86)\Microsoft Visual Studio\2019\Community\VC\Tools\MSVC\14.28.29333\include\xmemory

; 65   :     return _Count * _Ty_size;

  00097	6b c1 34	 imul	 eax, ecx, 52
  0009a	89 4d ec	 mov	 DWORD PTR __Newcapacity$[ebp], ecx

; 814  :         return static_cast<_Ty*>(_Allocate<_New_alignof<_Ty>>(_Get_size_of_n<sizeof(_Ty)>(_Count)));

  0009d	50		 push	 eax

; 65   :     return _Count * _Ty_size;

  0009e	89 45 e0	 mov	 DWORD PTR tv464[ebp], eax

; 814  :         return static_cast<_Ty*>(_Allocate<_New_alignof<_Ty>>(_Get_size_of_n<sizeof(_Ty)>(_Count)));

  000a1	e8 00 00 00 00	 call	 ??$_Allocate@$07U_Default_allocate_traits@std@@$0A@@std@@YAPAXI@Z ; std::_Allocate<8,std::_Default_allocate_traits,0>
  000a6	8b 4d 0c	 mov	 ecx, DWORD PTR _<_Val_0>$[ebp]
  000a9	8b d8		 mov	 ebx, eax
; File C:\Program Files (x86)\Microsoft Visual Studio\2019\Community\VC\Tools\MSVC\14.28.29333\include\vector

; 745  :         const pointer _Constructed_last = _Newvec + _Whereoff + 1;

  000ab	6b f6 34	 imul	 esi, esi, 52
; File C:\Program Files (x86)\Microsoft Visual Studio\2019\Community\VC\Tools\MSVC\14.28.29333\include\xmemory

; 814  :         return static_cast<_Ty*>(_Allocate<_New_alignof<_Ty>>(_Get_size_of_n<sizeof(_Ty)>(_Count)));

  000ae	83 c4 04	 add	 esp, 4
; File C:\Program Files (x86)\Microsoft Visual Studio\2019\Community\VC\Tools\MSVC\14.28.29333\include\vector

; 745  :         const pointer _Constructed_last = _Newvec + _Whereoff + 1;

  000b1	03 f3		 add	 esi, ebx
; File C:\Program Files (x86)\Microsoft Visual Studio\2019\Community\VC\Tools\MSVC\14.28.29333\include\xmemory

; 814  :         return static_cast<_Ty*>(_Allocate<_New_alignof<_Ty>>(_Get_size_of_n<sizeof(_Ty)>(_Count)));

  000b3	89 5d d4	 mov	 DWORD PTR __Newvec$[ebp], ebx
; File C:\Program Files (x86)\Microsoft Visual Studio\2019\Community\VC\Tools\MSVC\14.28.29333\include\vector

; 745  :         const pointer _Constructed_last = _Newvec + _Whereoff + 1;

  000b6	89 75 e8	 mov	 DWORD PTR tv473[ebp], esi

; 746  :         pointer _Constructed_first      = _Constructed_last;
; 747  : 
; 748  :         _TRY_BEGIN

  000b9	c7 45 fc 00 00
	00 00		 mov	 DWORD PTR __$EHRec$[ebp+12], 0
; File C:\Program Files (x86)\Microsoft Visual Studio\2019\Community\VC\Tools\MSVC\14.28.29333\include\xmemory

; 701  :         ::new (const_cast<void*>(static_cast<const volatile void*>(_Ptr))) _Objty(_STD forward<_Types>(_Args)...);

  000c0	89 75 d0	 mov	 DWORD PTR $T2[ebp], esi
; File C:\Program Files (x86)\Microsoft Visual Studio\2019\Community\VC\Tools\MSVC\14.28.29333\include\vector

; 745  :         const pointer _Constructed_last = _Newvec + _Whereoff + 1;

  000c3	8d 46 34	 lea	 eax, DWORD PTR [esi+52]
  000c6	89 45 dc	 mov	 DWORD PTR __Constructed_last$[ebp], eax
  000c9	8b 01		 mov	 eax, DWORD PTR [ecx]
  000cb	89 06		 mov	 DWORD PTR [esi], eax
  000cd	8d 41 04	 lea	 eax, DWORD PTR [ecx+4]
  000d0	50		 push	 eax
  000d1	8d 4e 04	 lea	 ecx, DWORD PTR [esi+4]
  000d4	e8 00 00 00 00	 call	 ??0?$basic_string@DU?$char_traits@D@std@@V?$allocator@D@2@@std@@QAE@ABV01@@Z ; std::basic_string<char,std::char_traits<char>,std::allocator<char> >::basic_string<char,std::char_traits<char>,std::allocator<char> >
  000d9	8b 45 0c	 mov	 eax, DWORD PTR _<_Val_0>$[ebp]
  000dc	8d 4e 1c	 lea	 ecx, DWORD PTR [esi+28]
  000df	83 c0 1c	 add	 eax, 28			; 0000001cH
  000e2	c6 45 fc 01	 mov	 BYTE PTR __$EHRec$[ebp+12], 1
  000e6	50		 push	 eax
  000e7	e8 00 00 00 00	 call	 ??0?$basic_string@DU?$char_traits@D@std@@V?$allocator@D@2@@std@@QAE@ABV01@@Z ; std::basic_string<char,std::char_traits<char>,std::allocator<char> >::basic_string<char,std::char_traits<char>,std::allocator<char> >

; 749  :         _Alty_traits::construct(_Al, _Unfancy(_Newvec + _Whereoff), _STD forward<_Valty>(_Val)...);
; 750  :         _Constructed_first = _Newvec + _Whereoff;
; 751  : 
; 752  :         if (_Whereptr == _Mylast) { // at back, provide strong guarantee

  000ec	8b 47 04	 mov	 eax, DWORD PTR [edi+4]
  000ef	8b 55 08	 mov	 edx, DWORD PTR __Whereptr$[ebp]
  000f2	8b 0f		 mov	 ecx, DWORD PTR [edi]
  000f4	3b d0		 cmp	 edx, eax
  000f6	75 1c		 jne	 SHORT $LN4@Emplace_re

; 1597 :         _Uninitialized_move(_First, _Last, _Dest, _Getal());

  000f8	8b d3		 mov	 edx, ebx

; 753  :             _Umove_if_noexcept(_Myfirst, _Mylast, _Newvec);
; 754  :         } else { // provide basic guarantee

  000fa	eb 2d		 jmp	 SHORT $LN5@Emplace_re
$LN12@Emplace_re:

; 1624 :         const size_type _Geometric = _Oldcapacity + _Oldcapacity / 2;

  000fc	8d 04 0a	 lea	 eax, DWORD PTR [edx+ecx]
; File C:\Program Files (x86)\Microsoft Visual Studio\2019\Community\VC\Tools\MSVC\14.28.29333\include\xmemory

; 60   :         if (_Count > _Max_possible) {

  000ff	8b cb		 mov	 ecx, ebx
  00101	3b c3		 cmp	 eax, ebx
  00103	0f 43 c8	 cmovae	 ecx, eax
  00106	81 f9 c4 4e ec
	04		 cmp	 ecx, 82595524		; 04ec4ec4H
  0010c	0f 87 ad 00 00
	00		 ja	 $LN50@Emplace_re
  00112	eb 83		 jmp	 SHORT $LN45@Emplace_re
$LN4@Emplace_re:
; File C:\Program Files (x86)\Microsoft Visual Studio\2019\Community\VC\Tools\MSVC\14.28.29333\include\vector

; 1592 :         return _Uninitialized_move(_First, _Last, _Dest, _Getal());

  00114	57		 push	 edi
  00115	53		 push	 ebx
  00116	52		 push	 edx
  00117	51		 push	 ecx
  00118	e8 00 00 00 00	 call	 ??$_Uninitialized_move@PAUSGuildBoardCommentData@CPythonGuild@@V?$allocator@USGuildBoardCommentData@CPythonGuild@@@std@@@std@@YAPAUSGuildBoardCommentData@CPythonGuild@@QAU12@0PAU12@AAV?$allocator@USGuildBoardCommentData@CPythonGuild@@@0@@Z ; std::_Uninitialized_move<CPythonGuild::SGuildBoardCommentData *,std::allocator<CPythonGuild::SGuildBoardCommentData> >
  0011d	8b 4d 08	 mov	 ecx, DWORD PTR __Whereptr$[ebp]
  00120	8d 56 34	 lea	 edx, DWORD PTR [esi+52]
  00123	8b 47 04	 mov	 eax, DWORD PTR [edi+4]
  00126	83 c4 10	 add	 esp, 16			; 00000010H
$LN5@Emplace_re:

; 755  :             _Umove(_Myfirst, _Whereptr, _Newvec);
; 756  :             _Constructed_first = _Newvec;
; 757  :             _Umove(_Whereptr, _Mylast, _Newvec + _Whereoff + 1);

  00129	57		 push	 edi
  0012a	52		 push	 edx
  0012b	50		 push	 eax
  0012c	51		 push	 ecx
  0012d	e8 00 00 00 00	 call	 ??$_Uninitialized_move@PAUSGuildBoardCommentData@CPythonGuild@@V?$allocator@USGuildBoardCommentData@CPythonGuild@@@std@@@std@@YAPAUSGuildBoardCommentData@CPythonGuild@@QAU12@0PAU12@AAV?$allocator@USGuildBoardCommentData@CPythonGuild@@@0@@Z ; std::_Uninitialized_move<CPythonGuild::SGuildBoardCommentData *,std::allocator<CPythonGuild::SGuildBoardCommentData> >

; 1676 :         if (_Myfirst) { // destroy and deallocate old array

  00132	8b 0f		 mov	 ecx, DWORD PTR [edi]

; 755  :             _Umove(_Myfirst, _Whereptr, _Newvec);
; 756  :             _Constructed_first = _Newvec;
; 757  :             _Umove(_Whereptr, _Mylast, _Newvec + _Whereoff + 1);

  00134	83 c4 10	 add	 esp, 16			; 00000010H

; 1676 :         if (_Myfirst) { // destroy and deallocate old array

  00137	85 c9		 test	 ecx, ecx
  00139	74 32		 je	 SHORT $LN39@Emplace_re

; 1612 :         _Destroy_range(_First, _Last, _Getal());

  0013b	57		 push	 edi
  0013c	ff 77 04	 push	 DWORD PTR [edi+4]
  0013f	51		 push	 ecx
  00140	e8 00 00 00 00	 call	 ??$_Destroy_range@V?$allocator@USGuildBoardCommentData@CPythonGuild@@@std@@@std@@YAXPAUSGuildBoardCommentData@CPythonGuild@@QAU12@AAV?$allocator@USGuildBoardCommentData@CPythonGuild@@@0@@Z ; std::_Destroy_range<std::allocator<CPythonGuild::SGuildBoardCommentData> >

; 1678 :             _Getal().deallocate(_Myfirst, static_cast<size_type>(_Myend - _Myfirst));

  00145	8b 37		 mov	 esi, DWORD PTR [edi]
  00147	b8 4f ec c4 4e	 mov	 eax, 1321528399		; 4ec4ec4fH
  0014c	8b 4f 08	 mov	 ecx, DWORD PTR [edi+8]
  0014f	2b ce		 sub	 ecx, esi
  00151	f7 e9		 imul	 ecx
  00153	c1 fa 04	 sar	 edx, 4
  00156	8b c2		 mov	 eax, edx
  00158	c1 e8 1f	 shr	 eax, 31			; 0000001fH
  0015b	03 c2		 add	 eax, edx
; File C:\Program Files (x86)\Microsoft Visual Studio\2019\Community\VC\Tools\MSVC\14.28.29333\include\xmemory

; 810  :         _Deallocate<_New_alignof<_Ty>>(_Ptr, sizeof(_Ty) * _Count);

  0015d	6b c0 34	 imul	 eax, eax, 52
  00160	50		 push	 eax
  00161	56		 push	 esi
  00162	e8 00 00 00 00	 call	 ??$_Deallocate@$07$0A@@std@@YAXPAXI@Z ; std::_Deallocate<8,0>
  00167	8b 75 e8	 mov	 esi, DWORD PTR tv473[ebp]
  0016a	83 c4 14	 add	 esp, 20			; 00000014H
$LN39@Emplace_re:
; File C:\Program Files (x86)\Microsoft Visual Studio\2019\Community\VC\Tools\MSVC\14.28.29333\include\vector

; 1682 :         _Mylast  = _Newvec + _Newsize;

  0016d	6b 4d e4 34	 imul	 ecx, DWORD PTR __Newsize$1$[ebp], 52

; 763  :         _CATCH_END
; 764  : 
; 765  :         _Change_array(_Newvec, _Newsize, _Newcapacity);
; 766  :         return _Newvec + _Whereoff;

  00171	8b c6		 mov	 eax, esi

; 1681 :         _Myfirst = _Newvec;

  00173	89 1f		 mov	 DWORD PTR [edi], ebx

; 1682 :         _Mylast  = _Newvec + _Newsize;

  00175	03 cb		 add	 ecx, ebx
  00177	89 4f 04	 mov	 DWORD PTR [edi+4], ecx

; 1683 :         _Myend   = _Newvec + _Newcapacity;

  0017a	8b 4d e0	 mov	 ecx, DWORD PTR tv464[ebp]
  0017d	03 cb		 add	 ecx, ebx
  0017f	89 4f 08	 mov	 DWORD PTR [edi+8], ecx

; 767  :     }

  00182	8b 4d f4	 mov	 ecx, DWORD PTR __$EHRec$[ebp+4]
  00185	64 89 0d 00 00
	00 00		 mov	 DWORD PTR fs:0, ecx
  0018c	59		 pop	 ecx
  0018d	5f		 pop	 edi
  0018e	5e		 pop	 esi
  0018f	5b		 pop	 ebx
  00190	8b e5		 mov	 esp, ebp
  00192	5d		 pop	 ebp
  00193	c2 08 00	 ret	 8
__catch$??$_Emplace_reallocate@ABUSGuildBoardCommentData@CPythonGuild@@@?$vector@USGuildBoardCommentData@CPythonGuild@@V?$allocator@USGuildBoardCommentData@CPythonGuild@@@std@@@std@@QAEPAUSGuildBoardCommentData@CPythonGuild@@QAU23@ABU23@@Z$0:

; 758  :         }
; 759  :         _CATCH_ALL
; 760  :         _Destroy(_Constructed_first, _Constructed_last);

  00196	8b 45 dc	 mov	 eax, DWORD PTR __Constructed_last$[ebp]
  00199	8b 4d d8	 mov	 ecx, DWORD PTR _this$[ebp]
  0019c	50		 push	 eax
  0019d	50		 push	 eax
  0019e	e8 00 00 00 00	 call	 ?_Destroy@?$vector@USGuildBoardCommentData@CPythonGuild@@V?$allocator@USGuildBoardCommentData@CPythonGuild@@@std@@@std@@AAEXPAUSGuildBoardCommentData@CPythonGuild@@0@Z ; std::vector<CPythonGuild::SGuildBoardCommentData,std::allocator<CPythonGuild::SGuildBoardCommentData> >::_Destroy

; 761  :         _Al.deallocate(_Newvec, _Newcapacity);

  001a3	ff 75 ec	 push	 DWORD PTR __Newcapacity$[ebp]
  001a6	8b 4d d8	 mov	 ecx, DWORD PTR _this$[ebp]
  001a9	ff 75 d4	 push	 DWORD PTR __Newvec$[ebp]
  001ac	e8 00 00 00 00	 call	 ?deallocate@?$allocator@USGuildBoardCommentData@CPythonGuild@@@std@@QAEXQAUSGuildBoardCommentData@CPythonGuild@@I@Z ; std::allocator<CPythonGuild::SGuildBoardCommentData>::deallocate

; 762  :         _RERAISE;

  001b1	6a 00		 push	 0
  001b3	6a 00		 push	 0
  001b5	e8 00 00 00 00	 call	 __CxxThrowException@8
$LN49@Emplace_re:

; 738  :             _Xlength();

  001ba	e8 00 00 00 00	 call	 ?_Xlength@?$vector@USGuildBoardCommentData@CPythonGuild@@V?$allocator@USGuildBoardCommentData@CPythonGuild@@@std@@@std@@CAXXZ ; std::vector<CPythonGuild::SGuildBoardCommentData,std::allocator<CPythonGuild::SGuildBoardCommentData> >::_Xlength
$LN50@Emplace_re:
; File C:\Program Files (x86)\Microsoft Visual Studio\2019\Community\VC\Tools\MSVC\14.28.29333\include\xmemory

; 61   :             _Throw_bad_array_new_length(); // multiply overflow

  001bf	e8 00 00 00 00	 call	 ?_Throw_bad_array_new_length@std@@YAXXZ ; std::_Throw_bad_array_new_length
$LN47@Emplace_re:
  001c4	cc		 int	 3
_TEXT	ENDS
;	COMDAT text$x
text$x	SEGMENT
__unwindfunclet$??$_Emplace_reallocate@ABUSGuildBoardCommentData@CPythonGuild@@@?$vector@USGuildBoardCommentData@CPythonGuild@@V?$allocator@USGuildBoardCommentData@CPythonGuild@@@std@@@std@@QAEPAUSGuildBoardCommentData@CPythonGuild@@QAU23@ABU23@@Z$2:
  00000	8b 4d d0	 mov	 ecx, DWORD PTR $T2[ebp]
  00003	83 c1 04	 add	 ecx, 4
  00006	e9 00 00 00 00	 jmp	 ??1?$basic_string@DU?$char_traits@D@std@@V?$allocator@D@2@@std@@QAE@XZ ; std::basic_string<char,std::char_traits<char>,std::allocator<char> >::~basic_string<char,std::char_traits<char>,std::allocator<char> >
  0000b	cc		 int	 3
  0000c	cc		 int	 3
  0000d	cc		 int	 3
  0000e	cc		 int	 3
  0000f	cc		 int	 3
__ehhandler$??$_Emplace_reallocate@ABUSGuildBoardCommentData@CPythonGuild@@@?$vector@USGuildBoardCommentData@CPythonGuild@@V?$allocator@USGuildBoardCommentData@CPythonGuild@@@std@@@std@@QAEPAUSGuildBoardCommentData@CPythonGuild@@QAU23@ABU23@@Z:
  00010	90		 npad	 1
  00011	90		 npad	 1
  00012	8b 54 24 08	 mov	 edx, DWORD PTR [esp+8]
  00016	8d 42 0c	 lea	 eax, DWORD PTR [edx+12]
  00019	8b 4a cc	 mov	 ecx, DWORD PTR [edx-52]
  0001c	33 c8		 xor	 ecx, eax
  0001e	e8 00 00 00 00	 call	 @__security_check_cookie@4
  00023	b8 00 00 00 00	 mov	 eax, OFFSET __ehfuncinfo$??$_Emplace_reallocate@ABUSGuildBoardCommentData@CPythonGuild@@@?$vector@USGuildBoardCommentData@CPythonGuild@@V?$allocator@USGuildBoardCommentData@CPythonGuild@@@std@@@std@@QAEPAUSGuildBoardCommentData@CPythonGuild@@QAU23@ABU23@@Z
  00028	e9 00 00 00 00	 jmp	 ___CxxFrameHandler3
text$x	ENDS
??$_Emplace_reallocate@ABUSGuildBoardCommentData@CPythonGuild@@@?$vector@USGuildBoardCommentData@CPythonGuild@@V?$allocator@USGuildBoardCommentData@CPythonGuild@@@std@@@std@@QAEPAUSGuildBoardCommentData@CPythonGuild@@QAU23@ABU23@@Z ENDP ; std::vector<CPythonGuild::SGuildBoardCommentData,std::allocator<CPythonGuild::SGuildBoardCommentData> >::_Emplace_reallocate<CPythonGuild::SGuildBoardCommentData const &>
; Function compile flags: /Ogtp
; File D:\Metin2 Server Files\mainline\SRC_2014\Metin2Client\UserInterface\PythonGuild.cpp
;	COMDAT ?guildGetMarkIndexByMarkID@@YAPAU_object@@PAU1@0@Z
_TEXT	SEGMENT
_markID$ = -4						; size = 4
_poSelf$ = 8						; size = 4
_poArgs$ = 12						; size = 4
?guildGetMarkIndexByMarkID@@YAPAU_object@@PAU1@0@Z PROC	; guildGetMarkIndexByMarkID, COMDAT

; 726  : {

  00000	55		 push	 ebp
  00001	8b ec		 mov	 ebp, esp
  00003	51		 push	 ecx

; 727  : 	int markID;
; 728  : 
; 729  : 	if (!PyTuple_GetInteger(poArgs, 0, &markID))

  00004	8d 45 fc	 lea	 eax, DWORD PTR _markID$[ebp]
  00007	50		 push	 eax
  00008	6a 00		 push	 0
  0000a	ff 75 0c	 push	 DWORD PTR _poArgs$[ebp]
  0000d	e8 00 00 00 00	 call	 ?PyTuple_GetInteger@@YA_NPAU_object@@HPAH@Z ; PyTuple_GetInteger
  00012	83 c4 0c	 add	 esp, 12			; 0000000cH
  00015	84 c0		 test	 al, al
  00017	75 0e		 jne	 SHORT $LN2@guildGetMa

; 730  : 		return Py_BuildException();

  00019	6a 00		 push	 0
  0001b	e8 00 00 00 00	 call	 ?Py_BuildException@@YAPAU_object@@PBDZZ ; Py_BuildException
  00020	83 c4 04	 add	 esp, 4

; 733  : }

  00023	8b e5		 mov	 esp, ebp
  00025	5d		 pop	 ebp
  00026	c3		 ret	 0
$LN2@guildGetMa:

; 731  : 
; 732  : 	return Py_BuildValue("i", markID % CGuildMarkImage::MARK_TOTAL_COUNT);

  00027	8b 4d fc	 mov	 ecx, DWORD PTR _markID$[ebp]
  0002a	b8 67 66 66 66	 mov	 eax, 1717986919		; 66666667H
  0002f	f7 e9		 imul	 ecx
  00031	c1 fa 09	 sar	 edx, 9
  00034	8b c2		 mov	 eax, edx
  00036	c1 e8 1f	 shr	 eax, 31			; 0000001fH
  00039	03 c2		 add	 eax, edx
  0003b	8d 04 80	 lea	 eax, DWORD PTR [eax+eax*4]
  0003e	c1 e0 08	 shl	 eax, 8
  00041	2b c8		 sub	 ecx, eax
  00043	51		 push	 ecx
  00044	68 00 00 00 00	 push	 OFFSET ??_C@_01KBJDNOO@i@
  00049	ff 15 00 00 00
	00		 call	 DWORD PTR __imp__Py_BuildValue
  0004f	83 c4 08	 add	 esp, 8

; 733  : }

  00052	8b e5		 mov	 esp, ebp
  00054	5d		 pop	 ebp
  00055	c3		 ret	 0
?guildGetMarkIndexByMarkID@@YAPAU_object@@PAU1@0@Z ENDP	; guildGetMarkIndexByMarkID
_TEXT	ENDS
; Function compile flags: /Ogtp
; File D:\Metin2 Server Files\mainline\SRC_2014\Metin2Client\UserInterface\PythonGuild.cpp
; File C:\Program Files (x86)\Microsoft Visual Studio\2019\Community\VC\Tools\MSVC\14.28.29333\include\xstring
; File D:\Metin2 Server Files\mainline\SRC_2014\Metin2Client\UserInterface\PythonGuild.cpp
; File C:\Program Files (x86)\Microsoft Visual Studio\2019\Community\VC\Tools\MSVC\14.28.29333\include\xstring
; File D:\Metin2 Server Files\mainline\SRC_2014\Metin2Client\UserInterface\PythonGuild.cpp
; File C:\Program Files (x86)\Microsoft Visual Studio\2019\Community\VC\Tools\MSVC\14.28.29333\include\xstring
; File D:\Metin2 Server Files\mainline\SRC_2014\Metin2Client\UserInterface\PythonGuild.cpp
; File C:\Program Files (x86)\Microsoft Visual Studio\2019\Community\VC\Tools\MSVC\14.28.29333\include\xstring
; File C:\Program Files (x86)\Microsoft Visual Studio\2019\Community\VC\Tools\MSVC\14.28.29333\include\xmemory
; File D:\Metin2 Server Files\mainline\SRC_2014\Metin2Client\UserInterface\PythonGuild.cpp
;	COMDAT ?guildGetMarkImageFilenameByMarkID@@YAPAU_object@@PAU1@0@Z
_TEXT	SEGMENT
_markID$ = -44						; size = 4
_imagePath$ = -40					; size = 24
__$ArrayPad$ = -16					; size = 4
__$EHRec$ = -12						; size = 12
_poSelf$ = 8						; size = 4
_poArgs$ = 12						; size = 4
?guildGetMarkImageFilenameByMarkID@@YAPAU_object@@PAU1@0@Z PROC ; guildGetMarkImageFilenameByMarkID, COMDAT

; 714  : {

  00000	55		 push	 ebp
  00001	8b ec		 mov	 ebp, esp
  00003	6a ff		 push	 -1
  00005	68 00 00 00 00	 push	 __ehhandler$?guildGetMarkImageFilenameByMarkID@@YAPAU_object@@PAU1@0@Z
  0000a	64 a1 00 00 00
	00		 mov	 eax, DWORD PTR fs:0
  00010	50		 push	 eax
  00011	83 ec 20	 sub	 esp, 32			; 00000020H
  00014	a1 00 00 00 00	 mov	 eax, DWORD PTR ___security_cookie
  00019	33 c5		 xor	 eax, ebp
  0001b	89 45 f0	 mov	 DWORD PTR __$ArrayPad$[ebp], eax
  0001e	56		 push	 esi
  0001f	50		 push	 eax
  00020	8d 45 f4	 lea	 eax, DWORD PTR __$EHRec$[ebp]
  00023	64 a3 00 00 00
	00		 mov	 DWORD PTR fs:0, eax
  00029	8b 45 0c	 mov	 eax, DWORD PTR _poArgs$[ebp]

; 715  : 	int markID;
; 716  : 
; 717  : 	if (!PyTuple_GetInteger(poArgs, 0, &markID))

  0002c	8d 4d d4	 lea	 ecx, DWORD PTR _markID$[ebp]
  0002f	51		 push	 ecx
  00030	6a 00		 push	 0
  00032	50		 push	 eax
  00033	e8 00 00 00 00	 call	 ?PyTuple_GetInteger@@YA_NPAU_object@@HPAH@Z ; PyTuple_GetInteger
  00038	83 c4 0c	 add	 esp, 12			; 0000000cH
  0003b	84 c0		 test	 al, al
  0003d	75 0c		 jne	 SHORT $LN2@guildGetMa

; 718  : 		return Py_BuildException();

  0003f	6a 00		 push	 0
  00041	e8 00 00 00 00	 call	 ?Py_BuildException@@YAPAU_object@@PBDZZ ; Py_BuildException
  00046	83 c4 04	 add	 esp, 4
  00049	eb 6e		 jmp	 SHORT $LN1@guildGetMa
$LN2@guildGetMa:
; File C:\Program Files (x86)\Microsoft Visual Studio\2019\Community\VC\Tools\MSVC\14.28.29333\include\xstring

; 4377 :         _Mypair._Myval2._Mysize = 0;

  0004b	c7 45 e8 00 00
	00 00		 mov	 DWORD PTR _imagePath$[ebp+16], 0

; 4378 :         _Mypair._Myval2._Myres  = _BUF_SIZE - 1;

  00052	c7 45 ec 0f 00
	00 00		 mov	 DWORD PTR _imagePath$[ebp+20], 15 ; 0000000fH

; 4379 :         // the _Traits::assign is last so the codegen doesn't think the char write can alias this
; 4380 :         _Traits::assign(_Mypair._Myval2._Bx._Buf[0], _Elem());

  00059	c6 45 d8 00	 mov	 BYTE PTR _imagePath$[ebp], 0
; File D:\Metin2 Server Files\mainline\SRC_2014\Metin2Client\UserInterface\PythonGuild.cpp

; 721  : 	CGuildMarkManager::Instance().GetMarkImageFilename(markID / CGuildMarkImage::MARK_TOTAL_COUNT, imagePath);

  0005d	8b 0d 00 00 00
	00		 mov	 ecx, DWORD PTR ?ms_singleton@?$singleton@VCGuildMarkManager@@@@0PAVCGuildMarkManager@@A ; singleton<CGuildMarkManager>::ms_singleton
  00063	8d 45 d8	 lea	 eax, DWORD PTR _imagePath$[ebp]
  00066	50		 push	 eax
  00067	b8 67 66 66 66	 mov	 eax, 1717986919		; 66666667H
  0006c	c7 45 fc 00 00
	00 00		 mov	 DWORD PTR __$EHRec$[ebp+8], 0
  00073	f7 6d d4	 imul	 DWORD PTR _markID$[ebp]
  00076	c1 fa 09	 sar	 edx, 9
  00079	8b c2		 mov	 eax, edx
  0007b	c1 e8 1f	 shr	 eax, 31			; 0000001fH
  0007e	03 c2		 add	 eax, edx
  00080	50		 push	 eax
  00081	e8 00 00 00 00	 call	 ?GetMarkImageFilename@CGuildMarkManager@@QBE_NKAAV?$basic_string@DU?$char_traits@D@std@@V?$allocator@D@2@@std@@@Z ; CGuildMarkManager::GetMarkImageFilename
; File C:\Program Files (x86)\Microsoft Visual Studio\2019\Community\VC\Tools\MSVC\14.28.29333\include\xstring

; 2227 :         return _BUF_SIZE <= _Myres;

  00086	83 7d ec 10	 cmp	 DWORD PTR _imagePath$[ebp+20], 16 ; 00000010H

; 2218 :         const value_type* _Result = _Bx._Buf;

  0008a	8d 45 d8	 lea	 eax, DWORD PTR _imagePath$[ebp]

; 2219 :         if (_Large_string_engaged()) {

  0008d	0f 43 45 d8	 cmovae	 eax, DWORD PTR _imagePath$[ebp]
; File D:\Metin2 Server Files\mainline\SRC_2014\Metin2Client\UserInterface\PythonGuild.cpp

; 722  : 	return Py_BuildValue("s", imagePath.c_str());

  00091	50		 push	 eax
  00092	68 00 00 00 00	 push	 OFFSET ??_C@_01LKDEMHDF@s@
  00097	ff 15 00 00 00
	00		 call	 DWORD PTR __imp__Py_BuildValue
; File C:\Program Files (x86)\Microsoft Visual Studio\2019\Community\VC\Tools\MSVC\14.28.29333\include\xstring

; 2227 :         return _BUF_SIZE <= _Myres;

  0009d	8b 4d ec	 mov	 ecx, DWORD PTR _imagePath$[ebp+20]
; File D:\Metin2 Server Files\mainline\SRC_2014\Metin2Client\UserInterface\PythonGuild.cpp

; 722  : 	return Py_BuildValue("s", imagePath.c_str());

  000a0	83 c4 08	 add	 esp, 8
  000a3	8b f0		 mov	 esi, eax
; File C:\Program Files (x86)\Microsoft Visual Studio\2019\Community\VC\Tools\MSVC\14.28.29333\include\xstring

; 2227 :         return _BUF_SIZE <= _Myres;

  000a5	83 f9 10	 cmp	 ecx, 16			; 00000010H

; 4385 :         if (_Mypair._Myval2._Large_string_engaged()) {

  000a8	72 0d		 jb	 SHORT $LN27@guildGetMa

; 4386 :             const pointer _Ptr = _Mypair._Myval2._Bx._Ptr;
; 4387 :             auto& _Al          = _Getal();
; 4388 :             _Destroy_in_place(_Mypair._Myval2._Bx._Ptr);
; 4389 :             _Al.deallocate(_Ptr, _Mypair._Myval2._Myres + 1);

  000aa	41		 inc	 ecx
; File C:\Program Files (x86)\Microsoft Visual Studio\2019\Community\VC\Tools\MSVC\14.28.29333\include\xmemory

; 810  :         _Deallocate<_New_alignof<_Ty>>(_Ptr, sizeof(_Ty) * _Count);

  000ab	51		 push	 ecx
  000ac	ff 75 d8	 push	 DWORD PTR _imagePath$[ebp]
  000af	e8 00 00 00 00	 call	 ??$_Deallocate@$07$0A@@std@@YAXPAXI@Z ; std::_Deallocate<8,0>
  000b4	83 c4 08	 add	 esp, 8
$LN27@guildGetMa:
; File D:\Metin2 Server Files\mainline\SRC_2014\Metin2Client\UserInterface\PythonGuild.cpp

; 722  : 	return Py_BuildValue("s", imagePath.c_str());

  000b7	8b c6		 mov	 eax, esi
$LN1@guildGetMa:

; 723  : }

  000b9	8b 4d f4	 mov	 ecx, DWORD PTR __$EHRec$[ebp]
  000bc	64 89 0d 00 00
	00 00		 mov	 DWORD PTR fs:0, ecx
  000c3	59		 pop	 ecx
  000c4	5e		 pop	 esi
  000c5	8b 4d f0	 mov	 ecx, DWORD PTR __$ArrayPad$[ebp]
  000c8	33 cd		 xor	 ecx, ebp
  000ca	e8 00 00 00 00	 call	 @__security_check_cookie@4
  000cf	8b e5		 mov	 esp, ebp
  000d1	5d		 pop	 ebp
  000d2	c3		 ret	 0
_TEXT	ENDS
;	COMDAT text$x
text$x	SEGMENT
__unwindfunclet$?guildGetMarkImageFilenameByMarkID@@YAPAU_object@@PAU1@0@Z$0:
  00000	8d 4d d8	 lea	 ecx, DWORD PTR _imagePath$[ebp]
  00003	e9 00 00 00 00	 jmp	 ??1?$basic_string@DU?$char_traits@D@std@@V?$allocator@D@2@@std@@QAE@XZ ; std::basic_string<char,std::char_traits<char>,std::allocator<char> >::~basic_string<char,std::char_traits<char>,std::allocator<char> >
  00008	cc		 int	 3
  00009	cc		 int	 3
  0000a	cc		 int	 3
  0000b	cc		 int	 3
  0000c	cc		 int	 3
__ehhandler$?guildGetMarkImageFilenameByMarkID@@YAPAU_object@@PAU1@0@Z:
  0000d	90		 npad	 1
  0000e	90		 npad	 1
  0000f	8b 54 24 08	 mov	 edx, DWORD PTR [esp+8]
  00013	8d 42 0c	 lea	 eax, DWORD PTR [edx+12]
  00016	8b 4a d8	 mov	 ecx, DWORD PTR [edx-40]
  00019	33 c8		 xor	 ecx, eax
  0001b	e8 00 00 00 00	 call	 @__security_check_cookie@4
  00020	8b 4a fc	 mov	 ecx, DWORD PTR [edx-4]
  00023	33 c8		 xor	 ecx, eax
  00025	e8 00 00 00 00	 call	 @__security_check_cookie@4
  0002a	b8 00 00 00 00	 mov	 eax, OFFSET __ehfuncinfo$?guildGetMarkImageFilenameByMarkID@@YAPAU_object@@PAU1@0@Z
  0002f	e9 00 00 00 00	 jmp	 ___CxxFrameHandler3
text$x	ENDS
?guildGetMarkImageFilenameByMarkID@@YAPAU_object@@PAU1@0@Z ENDP ; guildGetMarkImageFilenameByMarkID
; Function compile flags: /Ogtp
; File D:\Metin2 Server Files\mainline\SRC_2014\Metin2Client\UserInterface\PythonGuild.cpp
;	COMDAT ?guildGuildIDToMarkID@@YAPAU_object@@PAU1@0@Z
_TEXT	SEGMENT
_guild_id$ = -4						; size = 4
_poSelf$ = 8						; size = 4
_poArgs$ = 12						; size = 4
?guildGuildIDToMarkID@@YAPAU_object@@PAU1@0@Z PROC	; guildGuildIDToMarkID, COMDAT

; 705  : {

  00000	55		 push	 ebp
  00001	8b ec		 mov	 ebp, esp
  00003	51		 push	 ecx

; 706  : 	int guild_id;
; 707  : 	if (!PyTuple_GetInteger(poArgs, 0, &guild_id))

  00004	8d 45 fc	 lea	 eax, DWORD PTR _guild_id$[ebp]
  00007	50		 push	 eax
  00008	6a 00		 push	 0
  0000a	ff 75 0c	 push	 DWORD PTR _poArgs$[ebp]
  0000d	e8 00 00 00 00	 call	 ?PyTuple_GetInteger@@YA_NPAU_object@@HPAH@Z ; PyTuple_GetInteger
  00012	83 c4 0c	 add	 esp, 12			; 0000000cH
  00015	84 c0		 test	 al, al
  00017	75 0e		 jne	 SHORT $LN2@guildGuild

; 708  : 		return Py_BuildException();

  00019	6a 00		 push	 0
  0001b	e8 00 00 00 00	 call	 ?Py_BuildException@@YAPAU_object@@PBDZZ ; Py_BuildException
  00020	83 c4 04	 add	 esp, 4

; 711  : }

  00023	8b e5		 mov	 esp, ebp
  00025	5d		 pop	 ebp
  00026	c3		 ret	 0
$LN2@guildGuild:

; 709  : 
; 710  : 	return Py_BuildValue("i", CGuildMarkManager::Instance().GetMarkID(guild_id));

  00027	ff 75 fc	 push	 DWORD PTR _guild_id$[ebp]
  0002a	8b 0d 00 00 00
	00		 mov	 ecx, DWORD PTR ?ms_singleton@?$singleton@VCGuildMarkManager@@@@0PAVCGuildMarkManager@@A ; singleton<CGuildMarkManager>::ms_singleton
  00030	e8 00 00 00 00	 call	 ?GetMarkID@CGuildMarkManager@@QAEKK@Z ; CGuildMarkManager::GetMarkID
  00035	50		 push	 eax
  00036	68 00 00 00 00	 push	 OFFSET ??_C@_01KBJDNOO@i@
  0003b	ff 15 00 00 00
	00		 call	 DWORD PTR __imp__Py_BuildValue
  00041	83 c4 08	 add	 esp, 8

; 711  : }

  00044	8b e5		 mov	 esp, ebp
  00046	5d		 pop	 ebp
  00047	c3		 ret	 0
?guildGuildIDToMarkID@@YAPAU_object@@PAU1@0@Z ENDP	; guildGuildIDToMarkID
_TEXT	ENDS
; Function compile flags: /Ogtp
; File D:\Metin2 Server Files\mainline\SRC_2014\Metin2Client\UserInterface\PythonGuild.cpp
; File C:\Program Files (x86)\Microsoft Visual Studio\2019\Community\VC\Tools\MSVC\14.28.29333\include\xtree
; File C:\Program Files (x86)\Microsoft Visual Studio\2019\Community\VC\Tools\MSVC\14.28.29333\include\utility
; File C:\Program Files (x86)\Microsoft Visual Studio\2019\Community\VC\Tools\MSVC\14.28.29333\include\xmemory
; File C:\Program Files (x86)\Microsoft Visual Studio\2019\Community\VC\Tools\MSVC\14.28.29333\include\xtree
; File D:\Metin2 Server Files\mainline\SRC_2014\Metin2Client\UserInterface\PythonGuild.cpp
; File C:\Program Files (x86)\Microsoft Visual Studio\2019\Community\VC\Tools\MSVC\14.28.29333\include\xtree
; File D:\Metin2 Server Files\mainline\SRC_2014\Metin2Client\UserInterface\PythonGuild.cpp
;	COMDAT ?guildDestroy@@YAPAU_object@@PAU1@0@Z
_TEXT	SEGMENT
_poSelf$ = 8						; size = 4
_poArgs$ = 12						; size = 4
?guildDestroy@@YAPAU_object@@PAU1@0@Z PROC		; guildDestroy, COMDAT

; 698  : 	CPythonGuild::Instance().Destroy();

  00000	8b 0d 00 00 00
	00		 mov	 ecx, DWORD PTR ?ms_singleton@?$CSingleton@VCPythonGuild@@@@0PAVCPythonGuild@@A ; CSingleton<CPythonGuild>::ms_singleton
  00006	56		 push	 esi
  00007	57		 push	 edi
  00008	e8 00 00 00 00	 call	 ?Destroy@CPythonGuild@@QAEXXZ ; CPythonGuild::Destroy
; File C:\Program Files (x86)\Microsoft Visual Studio\2019\Community\VC\Tools\MSVC\14.28.29333\include\xtree

; 1447 :         auto _Head = _Scary->_Myhead;

  0000d	8b 3d 00 00 00
	00		 mov	 edi, DWORD PTR ?g_GuildSkillSlotToIndexMap@@3V?$map@KKU?$less@K@std@@V?$allocator@U?$pair@$$CBKK@std@@@2@@std@@A

; 1448 :         _Scary->_Erase_tree(_Getal(), _Head->_Parent);

  00013	8b 77 04	 mov	 esi, DWORD PTR [edi+4]

; 743  :         while (!_Rootnode->_Isnil) { // free subtrees, then node

  00016	80 7e 0d 00	 cmp	 BYTE PTR [esi+13], 0
  0001a	75 2b		 jne	 SHORT $LN7@guildDestr
  0001c	0f 1f 40 00	 npad	 4
$LL6@guildDestr:

; 744  :             _Erase_tree(_Al, _Rootnode->_Right);

  00020	ff 76 08	 push	 DWORD PTR [esi+8]
  00023	b9 00 00 00 00	 mov	 ecx, OFFSET ?g_GuildSkillSlotToIndexMap@@3V?$map@KKU?$less@K@std@@V?$allocator@U?$pair@$$CBKK@std@@@2@@std@@A ; g_GuildSkillSlotToIndexMap
  00028	68 00 00 00 00	 push	 OFFSET ?g_GuildSkillSlotToIndexMap@@3V?$map@KKU?$less@K@std@@V?$allocator@U?$pair@$$CBKK@std@@@2@@std@@A ; g_GuildSkillSlotToIndexMap
  0002d	e8 00 00 00 00	 call	 ??$_Erase_tree@V?$allocator@U?$_Tree_node@U?$pair@$$CBKK@std@@PAX@std@@@std@@@?$_Tree_val@U?$_Tree_simple_types@U?$pair@$$CBKK@std@@@std@@@std@@QAEXAAV?$allocator@U?$_Tree_node@U?$pair@$$CBKK@std@@PAX@std@@@1@PAU?$_Tree_node@U?$pair@$$CBKK@std@@PAX@1@@Z ; std::_Tree_val<std::_Tree_simple_types<std::pair<unsigned long const ,unsigned long> > >::_Erase_tree<std::allocator<std::_Tree_node<std::pair<unsigned long const ,unsigned long>,void *> > >
; File C:\Program Files (x86)\Microsoft Visual Studio\2019\Community\VC\Tools\MSVC\14.28.29333\include\utility

; 598  :     _Ty _Old_val = static_cast<_Ty&&>(_Val);

  00032	8b c6		 mov	 eax, esi

; 599  :     _Val         = static_cast<_Other&&>(_New_val);

  00034	8b 36		 mov	 esi, DWORD PTR [esi]
; File C:\Program Files (x86)\Microsoft Visual Studio\2019\Community\VC\Tools\MSVC\14.28.29333\include\xmemory

; 696  :         _Deallocate<_New_alignof<value_type>>(_Ptr, sizeof(value_type) * _Count);

  00036	6a 18		 push	 24			; 00000018H
  00038	50		 push	 eax
  00039	e8 00 00 00 00	 call	 ??$_Deallocate@$07$0A@@std@@YAXPAXI@Z ; std::_Deallocate<8,0>
  0003e	83 c4 08	 add	 esp, 8
; File C:\Program Files (x86)\Microsoft Visual Studio\2019\Community\VC\Tools\MSVC\14.28.29333\include\xtree

; 743  :         while (!_Rootnode->_Isnil) { // free subtrees, then node

  00041	80 7e 0d 00	 cmp	 BYTE PTR [esi+13], 0
  00045	74 d9		 je	 SHORT $LL6@guildDestr
$LN7@guildDestr:

; 1449 :         _Head->_Parent  = _Head;

  00047	89 7f 04	 mov	 DWORD PTR [edi+4], edi

; 1450 :         _Head->_Left    = _Head;

  0004a	89 3f		 mov	 DWORD PTR [edi], edi

; 1451 :         _Head->_Right   = _Head;

  0004c	89 7f 08	 mov	 DWORD PTR [edi+8], edi
; File D:\Metin2 Server Files\mainline\SRC_2014\Metin2Client\UserInterface\PythonGuild.cpp

; 700  : 	return Py_BuildNone();

  0004f	5f		 pop	 edi
; File C:\Program Files (x86)\Microsoft Visual Studio\2019\Community\VC\Tools\MSVC\14.28.29333\include\xtree

; 1452 :         _Scary->_Mysize = 0;

  00050	c7 05 04 00 00
	00 00 00 00 00	 mov	 DWORD PTR ?g_GuildSkillSlotToIndexMap@@3V?$map@KKU?$less@K@std@@V?$allocator@U?$pair@$$CBKK@std@@@2@@std@@A+4, 0
; File D:\Metin2 Server Files\mainline\SRC_2014\Metin2Client\UserInterface\PythonGuild.cpp

; 700  : 	return Py_BuildNone();

  0005a	5e		 pop	 esi
  0005b	e9 00 00 00 00	 jmp	 ?Py_BuildNone@@YAPAU_object@@XZ ; Py_BuildNone
?guildDestroy@@YAPAU_object@@PAU1@0@Z ENDP		; guildDestroy
_TEXT	ENDS
; Function compile flags: /Ogtp
; File D:\Metin2 Server Files\mainline\SRC_2014\Metin2Client\UserInterface\PythonGuild.cpp
;	COMDAT ?guildMainPlayerHasAuthority@@YAPAU_object@@PAU1@0@Z
_TEXT	SEGMENT
_iAuthority$ = -12					; size = 4
_pGradeData$ = -8					; size = 4
_pMemberData$ = -4					; size = 4
_poSelf$ = 8						; size = 4
_poArgs$ = 12						; size = 4
?guildMainPlayerHasAuthority@@YAPAU_object@@PAU1@0@Z PROC ; guildMainPlayerHasAuthority, COMDAT

; 677  : {

  00000	55		 push	 ebp
  00001	8b ec		 mov	 ebp, esp
  00003	83 ec 0c	 sub	 esp, 12			; 0000000cH

; 678  : 	int iAuthority;
; 679  : 	if (!PyTuple_GetInteger(poArgs, 0, &iAuthority))

  00006	8d 45 f4	 lea	 eax, DWORD PTR _iAuthority$[ebp]
  00009	50		 push	 eax
  0000a	6a 00		 push	 0
  0000c	ff 75 0c	 push	 DWORD PTR _poArgs$[ebp]
  0000f	e8 00 00 00 00	 call	 ?PyTuple_GetInteger@@YA_NPAU_object@@HPAH@Z ; PyTuple_GetInteger
  00014	83 c4 0c	 add	 esp, 12			; 0000000cH
  00017	84 c0		 test	 al, al
  00019	75 0e		 jne	 SHORT $LN2@guildMainP

; 680  : 		return Py_BuildException();

  0001b	6a 00		 push	 0
  0001d	e8 00 00 00 00	 call	 ?Py_BuildException@@YAPAU_object@@PBDZZ ; Py_BuildException
  00022	83 c4 04	 add	 esp, 4

; 694  : }

  00025	8b e5		 mov	 esp, ebp
  00027	5d		 pop	 ebp
  00028	c3		 ret	 0
$LN2@guildMainP:

; 681  : 
; 682  : 	IAbstractPlayer& rPlayer=IAbstractPlayer::GetSingleton();

  00029	8b 0d 00 00 00
	00		 mov	 ecx, DWORD PTR ?ms_singleton@?$TAbstractSingleton@VIAbstractPlayer@@@@0PAVIAbstractPlayer@@A ; TAbstractSingleton<IAbstractPlayer>::ms_singleton

; 683  : 	const char * c_szMainPlayerName = rPlayer.GetName();

  0002f	8b 01		 mov	 eax, DWORD PTR [ecx]
  00031	ff 50 14	 call	 DWORD PTR [eax+20]

; 684  : 
; 685  : 	CPythonGuild::TGuildMemberData * pMemberData;
; 686  : 	if (!CPythonGuild::Instance().GetMemberDataPtrByName(c_szMainPlayerName, &pMemberData))

  00034	8d 4d fc	 lea	 ecx, DWORD PTR _pMemberData$[ebp]
  00037	51		 push	 ecx
  00038	8b 0d 00 00 00
	00		 mov	 ecx, DWORD PTR ?ms_singleton@?$CSingleton@VCPythonGuild@@@@0PAVCPythonGuild@@A ; CSingleton<CPythonGuild>::ms_singleton
  0003e	50		 push	 eax
  0003f	e8 00 00 00 00	 call	 ?GetMemberDataPtrByName@CPythonGuild@@QAEHPBDPAPAUSGuildMemberData@1@@Z ; CPythonGuild::GetMemberDataPtrByName
  00044	85 c0		 test	 eax, eax
  00046	75 14		 jne	 SHORT $LN3@guildMainP
$LN7@guildMainP:

; 694  : }

  00048	6a 00		 push	 0
  0004a	68 00 00 00 00	 push	 OFFSET ??_C@_01KBJDNOO@i@
  0004f	ff 15 00 00 00
	00		 call	 DWORD PTR __imp__Py_BuildValue
  00055	83 c4 08	 add	 esp, 8
  00058	8b e5		 mov	 esp, ebp
  0005a	5d		 pop	 ebp
  0005b	c3		 ret	 0
$LN3@guildMainP:

; 687  : 		return Py_BuildValue("i", FALSE);
; 688  : 
; 689  : 	CPythonGuild::TGuildGradeData * pGradeData;
; 690  : 	if (!CPythonGuild::Instance().GetGradeDataPtr(pMemberData->byGrade, &pGradeData))

  0005c	8b 0d 00 00 00
	00		 mov	 ecx, DWORD PTR ?ms_singleton@?$CSingleton@VCPythonGuild@@@@0PAVCPythonGuild@@A ; CSingleton<CPythonGuild>::ms_singleton
  00062	8d 45 f8	 lea	 eax, DWORD PTR _pGradeData$[ebp]
  00065	50		 push	 eax
  00066	8b 45 fc	 mov	 eax, DWORD PTR _pMemberData$[ebp]
  00069	0f b6 40 1c	 movzx	 eax, BYTE PTR [eax+28]
  0006d	50		 push	 eax
  0006e	e8 00 00 00 00	 call	 ?GetGradeDataPtr@CPythonGuild@@QAEHKPAPAUSGuildGradeData@1@@Z ; CPythonGuild::GetGradeDataPtr
  00073	85 c0		 test	 eax, eax
  00075	74 d1		 je	 SHORT $LN7@guildMainP

; 691  : 		return Py_BuildValue("i", FALSE);
; 692  : 
; 693  : 	return Py_BuildValue("i", iAuthority == (pGradeData->byAuthorityFlag & iAuthority));

  00077	8b 45 f8	 mov	 eax, DWORD PTR _pGradeData$[ebp]
  0007a	33 c9		 xor	 ecx, ecx
  0007c	0f b6 10	 movzx	 edx, BYTE PTR [eax]
  0007f	23 55 f4	 and	 edx, DWORD PTR _iAuthority$[ebp]
  00082	39 55 f4	 cmp	 DWORD PTR _iAuthority$[ebp], edx
  00085	0f 94 c1	 sete	 cl
  00088	51		 push	 ecx

; 694  : }

  00089	68 00 00 00 00	 push	 OFFSET ??_C@_01KBJDNOO@i@
  0008e	ff 15 00 00 00
	00		 call	 DWORD PTR __imp__Py_BuildValue
  00094	83 c4 08	 add	 esp, 8
  00097	8b e5		 mov	 esp, ebp
  00099	5d		 pop	 ebp
  0009a	c3		 ret	 0
?guildMainPlayerHasAuthority@@YAPAU_object@@PAU1@0@Z ENDP ; guildMainPlayerHasAuthority
_TEXT	ENDS
; Function compile flags: /Ogtp
; File D:\Metin2 Server Files\mainline\SRC_2014\Metin2Client\UserInterface\PythonGuild.cpp
;	COMDAT ?guildIsMemberByName@@YAPAU_object@@PAU1@0@Z
_TEXT	SEGMENT
_pData$ = -8						; size = 4
_szName$ = -4						; size = 4
_poSelf$ = 8						; size = 4
_poArgs$ = 12						; size = 4
?guildIsMemberByName@@YAPAU_object@@PAU1@0@Z PROC	; guildIsMemberByName, COMDAT

; 664  : {

  00000	55		 push	 ebp
  00001	8b ec		 mov	 ebp, esp
  00003	83 ec 08	 sub	 esp, 8

; 665  : 	char * szName;
; 666  : 	if (!PyTuple_GetString(poArgs, 0, &szName))

  00006	8d 45 fc	 lea	 eax, DWORD PTR _szName$[ebp]
  00009	50		 push	 eax
  0000a	6a 00		 push	 0
  0000c	ff 75 0c	 push	 DWORD PTR _poArgs$[ebp]
  0000f	e8 00 00 00 00	 call	 ?PyTuple_GetString@@YA_NPAU_object@@HPAPAD@Z ; PyTuple_GetString
  00014	83 c4 0c	 add	 esp, 12			; 0000000cH
  00017	84 c0		 test	 al, al
  00019	75 0e		 jne	 SHORT $LN2@guildIsMem

; 667  : 		return Py_BuildException();

  0001b	6a 00		 push	 0
  0001d	e8 00 00 00 00	 call	 ?Py_BuildException@@YAPAU_object@@PBDZZ ; Py_BuildException
  00022	83 c4 04	 add	 esp, 4

; 674  : }

  00025	8b e5		 mov	 esp, ebp
  00027	5d		 pop	 ebp
  00028	c3		 ret	 0
$LN2@guildIsMem:

; 668  : 
; 669  : 	CPythonGuild::TGuildMemberData * pData;
; 670  : 	if (CPythonGuild::Instance().GetMemberDataPtrByName(szName, &pData))

  00029	8b 0d 00 00 00
	00		 mov	 ecx, DWORD PTR ?ms_singleton@?$CSingleton@VCPythonGuild@@@@0PAVCPythonGuild@@A ; CSingleton<CPythonGuild>::ms_singleton
  0002f	8d 45 f8	 lea	 eax, DWORD PTR _pData$[ebp]
  00032	50		 push	 eax
  00033	ff 75 fc	 push	 DWORD PTR _szName$[ebp]
  00036	e8 00 00 00 00	 call	 ?GetMemberDataPtrByName@CPythonGuild@@QAEHPBDPAPAUSGuildMemberData@1@@Z ; CPythonGuild::GetMemberDataPtrByName
  0003b	85 c0		 test	 eax, eax
  0003d	74 14		 je	 SHORT $LN3@guildIsMem

; 671  : 		return Py_BuildValue("i", TRUE);

  0003f	6a 01		 push	 1

; 674  : }

  00041	68 00 00 00 00	 push	 OFFSET ??_C@_01KBJDNOO@i@
  00046	ff 15 00 00 00
	00		 call	 DWORD PTR __imp__Py_BuildValue
  0004c	83 c4 08	 add	 esp, 8
  0004f	8b e5		 mov	 esp, ebp
  00051	5d		 pop	 ebp
  00052	c3		 ret	 0
$LN3@guildIsMem:

; 672  : 
; 673  : 	return Py_BuildValue("i", FALSE);

  00053	6a 00		 push	 0

; 674  : }

  00055	68 00 00 00 00	 push	 OFFSET ??_C@_01KBJDNOO@i@
  0005a	ff 15 00 00 00
	00		 call	 DWORD PTR __imp__Py_BuildValue
  00060	83 c4 08	 add	 esp, 8
  00063	8b e5		 mov	 esp, ebp
  00065	5d		 pop	 ebp
  00066	c3		 ret	 0
?guildIsMemberByName@@YAPAU_object@@PAU1@0@Z ENDP	; guildIsMemberByName
_TEXT	ENDS
; Function compile flags: /Ogtp
; File D:\Metin2 Server Files\mainline\SRC_2014\Metin2Client\UserInterface\PythonGuild.cpp
;	COMDAT ?guildIsMember@@YAPAU_object@@PAU1@0@Z
_TEXT	SEGMENT
_pData$ = -8						; size = 4
_iIndex$ = -4						; size = 4
_poSelf$ = 8						; size = 4
_poArgs$ = 12						; size = 4
?guildIsMember@@YAPAU_object@@PAU1@0@Z PROC		; guildIsMember, COMDAT

; 651  : {

  00000	55		 push	 ebp
  00001	8b ec		 mov	 ebp, esp
  00003	83 ec 08	 sub	 esp, 8

; 652  : 	int iIndex;
; 653  : 	if (!PyTuple_GetInteger(poArgs, 0, &iIndex))

  00006	8d 45 fc	 lea	 eax, DWORD PTR _iIndex$[ebp]
  00009	50		 push	 eax
  0000a	6a 00		 push	 0
  0000c	ff 75 0c	 push	 DWORD PTR _poArgs$[ebp]
  0000f	e8 00 00 00 00	 call	 ?PyTuple_GetInteger@@YA_NPAU_object@@HPAH@Z ; PyTuple_GetInteger
  00014	83 c4 0c	 add	 esp, 12			; 0000000cH
  00017	84 c0		 test	 al, al
  00019	75 0e		 jne	 SHORT $LN2@guildIsMem

; 654  : 		return Py_BuildException();

  0001b	6a 00		 push	 0
  0001d	e8 00 00 00 00	 call	 ?Py_BuildException@@YAPAU_object@@PBDZZ ; Py_BuildException
  00022	83 c4 04	 add	 esp, 4

; 661  : }

  00025	8b e5		 mov	 esp, ebp
  00027	5d		 pop	 ebp
  00028	c3		 ret	 0
$LN2@guildIsMem:

; 655  : 
; 656  : 	CPythonGuild::TGuildMemberData * pData;
; 657  : 	if (CPythonGuild::Instance().GetMemberDataPtr(iIndex, &pData))

  00029	8b 0d 00 00 00
	00		 mov	 ecx, DWORD PTR ?ms_singleton@?$CSingleton@VCPythonGuild@@@@0PAVCPythonGuild@@A ; CSingleton<CPythonGuild>::ms_singleton
  0002f	8d 45 f8	 lea	 eax, DWORD PTR _pData$[ebp]
  00032	50		 push	 eax
  00033	ff 75 fc	 push	 DWORD PTR _iIndex$[ebp]
  00036	e8 00 00 00 00	 call	 ?GetMemberDataPtr@CPythonGuild@@QAEHKPAPAUSGuildMemberData@1@@Z ; CPythonGuild::GetMemberDataPtr
  0003b	85 c0		 test	 eax, eax
  0003d	74 14		 je	 SHORT $LN3@guildIsMem

; 658  : 		return Py_BuildValue("i", TRUE);

  0003f	6a 01		 push	 1

; 661  : }

  00041	68 00 00 00 00	 push	 OFFSET ??_C@_01KBJDNOO@i@
  00046	ff 15 00 00 00
	00		 call	 DWORD PTR __imp__Py_BuildValue
  0004c	83 c4 08	 add	 esp, 8
  0004f	8b e5		 mov	 esp, ebp
  00051	5d		 pop	 ebp
  00052	c3		 ret	 0
$LN3@guildIsMem:

; 659  : 
; 660  : 	return Py_BuildValue("i", FALSE);

  00053	6a 00		 push	 0

; 661  : }

  00055	68 00 00 00 00	 push	 OFFSET ??_C@_01KBJDNOO@i@
  0005a	ff 15 00 00 00
	00		 call	 DWORD PTR __imp__Py_BuildValue
  00060	83 c4 08	 add	 esp, 8
  00063	8b e5		 mov	 esp, ebp
  00065	5d		 pop	 ebp
  00066	c3		 ret	 0
?guildIsMember@@YAPAU_object@@PAU1@0@Z ENDP		; guildIsMember
_TEXT	ENDS
; Function compile flags: /Ogtp
; File D:\Metin2 Server Files\mainline\SRC_2014\Metin2Client\UserInterface\PythonGuild.cpp
;	COMDAT ?guildMemberIndexToPID@@YAPAU_object@@PAU1@0@Z
_TEXT	SEGMENT
_pData$ = -8						; size = 4
_iIndex$ = -4						; size = 4
_poSelf$ = 8						; size = 4
_poArgs$ = 12						; size = 4
?guildMemberIndexToPID@@YAPAU_object@@PAU1@0@Z PROC	; guildMemberIndexToPID, COMDAT

; 638  : {

  00000	55		 push	 ebp
  00001	8b ec		 mov	 ebp, esp
  00003	83 ec 08	 sub	 esp, 8

; 639  : 	int iIndex;
; 640  : 	if (!PyTuple_GetInteger(poArgs, 0, &iIndex))

  00006	8d 45 fc	 lea	 eax, DWORD PTR _iIndex$[ebp]
  00009	50		 push	 eax
  0000a	6a 00		 push	 0
  0000c	ff 75 0c	 push	 DWORD PTR _poArgs$[ebp]
  0000f	e8 00 00 00 00	 call	 ?PyTuple_GetInteger@@YA_NPAU_object@@HPAH@Z ; PyTuple_GetInteger
  00014	83 c4 0c	 add	 esp, 12			; 0000000cH
  00017	84 c0		 test	 al, al
  00019	75 0e		 jne	 SHORT $LN2@guildMembe

; 641  : 		return Py_BuildException();

  0001b	6a 00		 push	 0
  0001d	e8 00 00 00 00	 call	 ?Py_BuildException@@YAPAU_object@@PBDZZ ; Py_BuildException
  00022	83 c4 04	 add	 esp, 4

; 648  : }

  00025	8b e5		 mov	 esp, ebp
  00027	5d		 pop	 ebp
  00028	c3		 ret	 0
$LN2@guildMembe:

; 642  : 
; 643  : 	CPythonGuild::TGuildMemberData * pData;
; 644  : 	if (!CPythonGuild::Instance().GetMemberDataPtr(iIndex, &pData))

  00029	8b 0d 00 00 00
	00		 mov	 ecx, DWORD PTR ?ms_singleton@?$CSingleton@VCPythonGuild@@@@0PAVCPythonGuild@@A ; CSingleton<CPythonGuild>::ms_singleton
  0002f	8d 45 f8	 lea	 eax, DWORD PTR _pData$[ebp]
  00032	50		 push	 eax
  00033	ff 75 fc	 push	 DWORD PTR _iIndex$[ebp]
  00036	e8 00 00 00 00	 call	 ?GetMemberDataPtr@CPythonGuild@@QAEHKPAPAUSGuildMemberData@1@@Z ; CPythonGuild::GetMemberDataPtr
  0003b	85 c0		 test	 eax, eax
  0003d	75 14		 jne	 SHORT $LN3@guildMembe

; 645  : 		return Py_BuildValue("i", -1);

  0003f	6a ff		 push	 -1

; 648  : }

  00041	68 00 00 00 00	 push	 OFFSET ??_C@_01KBJDNOO@i@
  00046	ff 15 00 00 00
	00		 call	 DWORD PTR __imp__Py_BuildValue
  0004c	83 c4 08	 add	 esp, 8
  0004f	8b e5		 mov	 esp, ebp
  00051	5d		 pop	 ebp
  00052	c3		 ret	 0
$LN3@guildMembe:

; 646  : 
; 647  : 	return Py_BuildValue("i", pData->dwPID);

  00053	8b 45 f8	 mov	 eax, DWORD PTR _pData$[ebp]
  00056	ff 30		 push	 DWORD PTR [eax]

; 648  : }

  00058	68 00 00 00 00	 push	 OFFSET ??_C@_01KBJDNOO@i@
  0005d	ff 15 00 00 00
	00		 call	 DWORD PTR __imp__Py_BuildValue
  00063	83 c4 08	 add	 esp, 8
  00066	8b e5		 mov	 esp, ebp
  00068	5d		 pop	 ebp
  00069	c3		 ret	 0
?guildMemberIndexToPID@@YAPAU_object@@PAU1@0@Z ENDP	; guildMemberIndexToPID
_TEXT	ENDS
; Function compile flags: /Ogtp
; File D:\Metin2 Server Files\mainline\SRC_2014\Metin2Client\UserInterface\PythonGuild.cpp
; File C:\Program Files (x86)\Microsoft Visual Studio\2019\Community\VC\Tools\MSVC\14.28.29333\include\xstring
; File D:\Metin2 Server Files\mainline\SRC_2014\Metin2Client\UserInterface\PythonGuild.cpp
;	COMDAT ?guildGetMemberData@@YAPAU_object@@PAU1@0@Z
_TEXT	SEGMENT
_pData$ = -8						; size = 4
_iIndex$ = -4						; size = 4
_poSelf$ = 8						; size = 4
_poArgs$ = 12						; size = 4
?guildGetMemberData@@YAPAU_object@@PAU1@0@Z PROC	; guildGetMemberData, COMDAT

; 625  : {

  00000	55		 push	 ebp
  00001	8b ec		 mov	 ebp, esp
  00003	83 ec 08	 sub	 esp, 8

; 626  : 	int iIndex;
; 627  : 	if (!PyTuple_GetInteger(poArgs, 0, &iIndex))

  00006	8d 45 fc	 lea	 eax, DWORD PTR _iIndex$[ebp]
  00009	50		 push	 eax
  0000a	6a 00		 push	 0
  0000c	ff 75 0c	 push	 DWORD PTR _poArgs$[ebp]
  0000f	e8 00 00 00 00	 call	 ?PyTuple_GetInteger@@YA_NPAU_object@@HPAH@Z ; PyTuple_GetInteger
  00014	83 c4 0c	 add	 esp, 12			; 0000000cH
  00017	84 c0		 test	 al, al
  00019	75 0e		 jne	 SHORT $LN2@guildGetMe

; 628  : 		return Py_BuildException();

  0001b	6a 00		 push	 0
  0001d	e8 00 00 00 00	 call	 ?Py_BuildException@@YAPAU_object@@PBDZZ ; Py_BuildException
  00022	83 c4 04	 add	 esp, 4

; 635  : }

  00025	8b e5		 mov	 esp, ebp
  00027	5d		 pop	 ebp
  00028	c3		 ret	 0
$LN2@guildGetMe:

; 629  : 
; 630  : 	CPythonGuild::TGuildMemberData * pData;
; 631  : 	if (!CPythonGuild::Instance().GetMemberDataPtr(iIndex, &pData))

  00029	8b 0d 00 00 00
	00		 mov	 ecx, DWORD PTR ?ms_singleton@?$CSingleton@VCPythonGuild@@@@0PAVCPythonGuild@@A ; CSingleton<CPythonGuild>::ms_singleton
  0002f	8d 45 f8	 lea	 eax, DWORD PTR _pData$[ebp]
  00032	50		 push	 eax
  00033	ff 75 fc	 push	 DWORD PTR _iIndex$[ebp]
  00036	e8 00 00 00 00	 call	 ?GetMemberDataPtr@CPythonGuild@@QAEHKPAPAUSGuildMemberData@1@@Z ; CPythonGuild::GetMemberDataPtr
  0003b	85 c0		 test	 eax, eax
  0003d	75 1e		 jne	 SHORT $LN3@guildGetMe

; 632  : 		return Py_BuildValue("isiiiii", -1, "", 0, 0, 0, 0, 0);

  0003f	50		 push	 eax
  00040	50		 push	 eax
  00041	50		 push	 eax
  00042	50		 push	 eax
  00043	50		 push	 eax
  00044	68 00 00 00 00	 push	 OFFSET ??_C@_00CNPNBAHC@@
  00049	6a ff		 push	 -1

; 635  : }

  0004b	68 00 00 00 00	 push	 OFFSET ??_C@_07IGDHICNG@isiiiii@
  00050	ff 15 00 00 00
	00		 call	 DWORD PTR __imp__Py_BuildValue
  00056	83 c4 20	 add	 esp, 32			; 00000020H
  00059	8b e5		 mov	 esp, ebp
  0005b	5d		 pop	 ebp
  0005c	c3		 ret	 0
$LN3@guildGetMe:
; File C:\Program Files (x86)\Microsoft Visual Studio\2019\Community\VC\Tools\MSVC\14.28.29333\include\xstring

; 3752 :         return _Mypair._Myval2._Myptr();

  0005d	8b 55 f8	 mov	 edx, DWORD PTR _pData$[ebp]

; 2227 :         return _BUF_SIZE <= _Myres;

  00060	83 7a 18 10	 cmp	 DWORD PTR [edx+24], 16	; 00000010H

; 3752 :         return _Mypair._Myval2._Myptr();

  00064	8d 4a 04	 lea	 ecx, DWORD PTR [edx+4]

; 2219 :         if (_Large_string_engaged()) {

  00067	72 02		 jb	 SHORT $LN8@guildGetMe

; 2220 :             _Result = _Unfancy(_Bx._Ptr);

  00069	8b 09		 mov	 ecx, DWORD PTR [ecx]
$LN8@guildGetMe:
; File D:\Metin2 Server Files\mainline\SRC_2014\Metin2Client\UserInterface\PythonGuild.cpp

; 634  : 	return Py_BuildValue("isiiiii", pData->dwPID, pData->strName.c_str(), pData->byGrade, pData->byJob, pData->byLevel, pData->dwOffer, pData->byGeneralFlag);

  0006b	0f b6 42 1f	 movzx	 eax, BYTE PTR [edx+31]
  0006f	50		 push	 eax
  00070	ff 72 20	 push	 DWORD PTR [edx+32]
  00073	0f b6 42 1e	 movzx	 eax, BYTE PTR [edx+30]
  00077	50		 push	 eax
  00078	0f b6 42 1d	 movzx	 eax, BYTE PTR [edx+29]
  0007c	50		 push	 eax
  0007d	0f b6 42 1c	 movzx	 eax, BYTE PTR [edx+28]
  00081	50		 push	 eax
  00082	51		 push	 ecx
  00083	ff 32		 push	 DWORD PTR [edx]

; 635  : }

  00085	68 00 00 00 00	 push	 OFFSET ??_C@_07IGDHICNG@isiiiii@
  0008a	ff 15 00 00 00
	00		 call	 DWORD PTR __imp__Py_BuildValue
  00090	83 c4 20	 add	 esp, 32			; 00000020H
  00093	8b e5		 mov	 esp, ebp
  00095	5d		 pop	 ebp
  00096	c3		 ret	 0
?guildGetMemberData@@YAPAU_object@@PAU1@0@Z ENDP	; guildGetMemberData
_TEXT	ENDS
; Function compile flags: /Ogtp
; File D:\Metin2 Server Files\mainline\SRC_2014\Metin2Client\UserInterface\PythonGuild.cpp
;	COMDAT ?guildGetMemberCount@@YAPAU_object@@PAU1@0@Z
_TEXT	SEGMENT
_poSelf$ = 8						; size = 4
_poArgs$ = 12						; size = 4
?guildGetMemberCount@@YAPAU_object@@PAU1@0@Z PROC	; guildGetMemberCount, COMDAT

; 621  : 	return Py_BuildValue("i", CPythonGuild::Instance().GetMemberCount());

  00000	8b 0d 00 00 00
	00		 mov	 ecx, DWORD PTR ?ms_singleton@?$CSingleton@VCPythonGuild@@@@0PAVCPythonGuild@@A ; CSingleton<CPythonGuild>::ms_singleton
  00006	e8 00 00 00 00	 call	 ?GetMemberCount@CPythonGuild@@QAEKXZ ; CPythonGuild::GetMemberCount
  0000b	50		 push	 eax
  0000c	68 00 00 00 00	 push	 OFFSET ??_C@_01KBJDNOO@i@
  00011	ff 15 00 00 00
	00		 call	 DWORD PTR __imp__Py_BuildValue
  00017	83 c4 08	 add	 esp, 8

; 622  : }

  0001a	c3		 ret	 0
?guildGetMemberCount@@YAPAU_object@@PAU1@0@Z ENDP	; guildGetMemberCount
_TEXT	ENDS
; Function compile flags: /Ogtp
; File D:\Metin2 Server Files\mainline\SRC_2014\Metin2Client\UserInterface\PythonGuild.cpp
; File C:\Program Files (x86)\Microsoft Visual Studio\2019\Community\VC\Tools\MSVC\14.28.29333\include\xstring
; File D:\Metin2 Server Files\mainline\SRC_2014\Metin2Client\UserInterface\PythonGuild.cpp
;	COMDAT ?guildGetGradeName@@YAPAU_object@@PAU1@0@Z
_TEXT	SEGMENT
_pData$ = -8						; size = 4
_iGradeNumber$ = -4					; size = 4
_poSelf$ = 8						; size = 4
_poArgs$ = 12						; size = 4
?guildGetGradeName@@YAPAU_object@@PAU1@0@Z PROC		; guildGetGradeName, COMDAT

; 607  : {

  00000	55		 push	 ebp
  00001	8b ec		 mov	 ebp, esp
  00003	83 ec 08	 sub	 esp, 8

; 608  : 	int iGradeNumber;
; 609  : 	if (!PyTuple_GetInteger(poArgs, 0, &iGradeNumber))

  00006	8d 45 fc	 lea	 eax, DWORD PTR _iGradeNumber$[ebp]
  00009	50		 push	 eax
  0000a	6a 00		 push	 0
  0000c	ff 75 0c	 push	 DWORD PTR _poArgs$[ebp]
  0000f	e8 00 00 00 00	 call	 ?PyTuple_GetInteger@@YA_NPAU_object@@HPAH@Z ; PyTuple_GetInteger
  00014	83 c4 0c	 add	 esp, 12			; 0000000cH
  00017	84 c0		 test	 al, al
  00019	75 0e		 jne	 SHORT $LN2@guildGetGr

; 610  : 		return Py_BuildException();

  0001b	6a 00		 push	 0
  0001d	e8 00 00 00 00	 call	 ?Py_BuildException@@YAPAU_object@@PBDZZ ; Py_BuildException
  00022	83 c4 04	 add	 esp, 4

; 617  : }

  00025	8b e5		 mov	 esp, ebp
  00027	5d		 pop	 ebp
  00028	c3		 ret	 0
$LN2@guildGetGr:

; 611  : 
; 612  : 	CPythonGuild::TGuildGradeData * pData;
; 613  : 	if (!CPythonGuild::Instance().GetGradeDataPtr(iGradeNumber, &pData))

  00029	8b 0d 00 00 00
	00		 mov	 ecx, DWORD PTR ?ms_singleton@?$CSingleton@VCPythonGuild@@@@0PAVCPythonGuild@@A ; CSingleton<CPythonGuild>::ms_singleton
  0002f	8d 45 f8	 lea	 eax, DWORD PTR _pData$[ebp]
  00032	50		 push	 eax
  00033	ff 75 fc	 push	 DWORD PTR _iGradeNumber$[ebp]
  00036	e8 00 00 00 00	 call	 ?GetGradeDataPtr@CPythonGuild@@QAEHKPAPAUSGuildGradeData@1@@Z ; CPythonGuild::GetGradeDataPtr
  0003b	85 c0		 test	 eax, eax
  0003d	75 17		 jne	 SHORT $LN3@guildGetGr

; 614  : 		return Py_BuildValue("s", "?");

  0003f	68 00 00 00 00	 push	 OFFSET ??_C@_01OGPIMHDM@?$DP@

; 617  : }

  00044	68 00 00 00 00	 push	 OFFSET ??_C@_01LKDEMHDF@s@
  00049	ff 15 00 00 00
	00		 call	 DWORD PTR __imp__Py_BuildValue
  0004f	83 c4 08	 add	 esp, 8
  00052	8b e5		 mov	 esp, ebp
  00054	5d		 pop	 ebp
  00055	c3		 ret	 0
$LN3@guildGetGr:
; File C:\Program Files (x86)\Microsoft Visual Studio\2019\Community\VC\Tools\MSVC\14.28.29333\include\xstring

; 3752 :         return _Mypair._Myval2._Myptr();

  00056	8b 45 f8	 mov	 eax, DWORD PTR _pData$[ebp]
  00059	83 c0 04	 add	 eax, 4

; 2227 :         return _BUF_SIZE <= _Myres;

  0005c	83 78 14 10	 cmp	 DWORD PTR [eax+20], 16	; 00000010H

; 2219 :         if (_Large_string_engaged()) {

  00060	72 02		 jb	 SHORT $LN8@guildGetGr

; 2220 :             _Result = _Unfancy(_Bx._Ptr);

  00062	8b 00		 mov	 eax, DWORD PTR [eax]
$LN8@guildGetGr:
; File D:\Metin2 Server Files\mainline\SRC_2014\Metin2Client\UserInterface\PythonGuild.cpp

; 616  : 	return Py_BuildValue("s", pData->strName.c_str());

  00064	50		 push	 eax

; 617  : }

  00065	68 00 00 00 00	 push	 OFFSET ??_C@_01LKDEMHDF@s@
  0006a	ff 15 00 00 00
	00		 call	 DWORD PTR __imp__Py_BuildValue
  00070	83 c4 08	 add	 esp, 8
  00073	8b e5		 mov	 esp, ebp
  00075	5d		 pop	 ebp
  00076	c3		 ret	 0
?guildGetGradeName@@YAPAU_object@@PAU1@0@Z ENDP		; guildGetGradeName
_TEXT	ENDS
; Function compile flags: /Ogtp
; File D:\Metin2 Server Files\mainline\SRC_2014\Metin2Client\UserInterface\PythonGuild.cpp
; File C:\Program Files (x86)\Microsoft Visual Studio\2019\Community\VC\Tools\MSVC\14.28.29333\include\xstring
; File D:\Metin2 Server Files\mainline\SRC_2014\Metin2Client\UserInterface\PythonGuild.cpp
;	COMDAT ?guildGetGradeData@@YAPAU_object@@PAU1@0@Z
_TEXT	SEGMENT
_pData$ = -8						; size = 4
_iGradeNumber$ = -4					; size = 4
_poSelf$ = 8						; size = 4
_poArgs$ = 12						; size = 4
?guildGetGradeData@@YAPAU_object@@PAU1@0@Z PROC		; guildGetGradeData, COMDAT

; 594  : {

  00000	55		 push	 ebp
  00001	8b ec		 mov	 ebp, esp
  00003	83 ec 08	 sub	 esp, 8

; 595  : 	int iGradeNumber;
; 596  : 	if (!PyTuple_GetInteger(poArgs, 0, &iGradeNumber))

  00006	8d 45 fc	 lea	 eax, DWORD PTR _iGradeNumber$[ebp]
  00009	50		 push	 eax
  0000a	6a 00		 push	 0
  0000c	ff 75 0c	 push	 DWORD PTR _poArgs$[ebp]
  0000f	e8 00 00 00 00	 call	 ?PyTuple_GetInteger@@YA_NPAU_object@@HPAH@Z ; PyTuple_GetInteger
  00014	83 c4 0c	 add	 esp, 12			; 0000000cH
  00017	84 c0		 test	 al, al
  00019	75 0e		 jne	 SHORT $LN2@guildGetGr

; 597  : 		return Py_BuildException();

  0001b	6a 00		 push	 0
  0001d	e8 00 00 00 00	 call	 ?Py_BuildException@@YAPAU_object@@PBDZZ ; Py_BuildException
  00022	83 c4 04	 add	 esp, 4

; 604  : }

  00025	8b e5		 mov	 esp, ebp
  00027	5d		 pop	 ebp
  00028	c3		 ret	 0
$LN2@guildGetGr:

; 598  : 
; 599  : 	CPythonGuild::TGuildGradeData * pData;
; 600  : 	if (!CPythonGuild::Instance().GetGradeDataPtr(iGradeNumber, &pData))

  00029	8b 0d 00 00 00
	00		 mov	 ecx, DWORD PTR ?ms_singleton@?$CSingleton@VCPythonGuild@@@@0PAVCPythonGuild@@A ; CSingleton<CPythonGuild>::ms_singleton
  0002f	8d 45 f8	 lea	 eax, DWORD PTR _pData$[ebp]
  00032	50		 push	 eax
  00033	ff 75 fc	 push	 DWORD PTR _iGradeNumber$[ebp]
  00036	e8 00 00 00 00	 call	 ?GetGradeDataPtr@CPythonGuild@@QAEHKPAPAUSGuildGradeData@1@@Z ; CPythonGuild::GetGradeDataPtr
  0003b	85 c0		 test	 eax, eax
  0003d	75 18		 jne	 SHORT $LN3@guildGetGr

; 601  : 		return Py_BuildValue("si", "?", 0);

  0003f	50		 push	 eax
  00040	68 00 00 00 00	 push	 OFFSET ??_C@_01OGPIMHDM@?$DP@

; 604  : }

  00045	68 00 00 00 00	 push	 OFFSET ??_C@_02OCDGCAAK@si@
  0004a	ff 15 00 00 00
	00		 call	 DWORD PTR __imp__Py_BuildValue
  00050	83 c4 0c	 add	 esp, 12			; 0000000cH
  00053	8b e5		 mov	 esp, ebp
  00055	5d		 pop	 ebp
  00056	c3		 ret	 0
$LN3@guildGetGr:
; File C:\Program Files (x86)\Microsoft Visual Studio\2019\Community\VC\Tools\MSVC\14.28.29333\include\xstring

; 3752 :         return _Mypair._Myval2._Myptr();

  00057	8b 45 f8	 mov	 eax, DWORD PTR _pData$[ebp]

; 2227 :         return _BUF_SIZE <= _Myres;

  0005a	83 78 18 10	 cmp	 DWORD PTR [eax+24], 16	; 00000010H

; 3752 :         return _Mypair._Myval2._Myptr();

  0005e	8d 48 04	 lea	 ecx, DWORD PTR [eax+4]

; 2219 :         if (_Large_string_engaged()) {

  00061	72 02		 jb	 SHORT $LN8@guildGetGr

; 2220 :             _Result = _Unfancy(_Bx._Ptr);

  00063	8b 09		 mov	 ecx, DWORD PTR [ecx]
$LN8@guildGetGr:
; File D:\Metin2 Server Files\mainline\SRC_2014\Metin2Client\UserInterface\PythonGuild.cpp

; 603  : 	return Py_BuildValue("si", pData->strName.c_str(), pData->byAuthorityFlag);

  00065	0f b6 00	 movzx	 eax, BYTE PTR [eax]
  00068	50		 push	 eax
  00069	51		 push	 ecx

; 604  : }

  0006a	68 00 00 00 00	 push	 OFFSET ??_C@_02OCDGCAAK@si@
  0006f	ff 15 00 00 00
	00		 call	 DWORD PTR __imp__Py_BuildValue
  00075	83 c4 0c	 add	 esp, 12			; 0000000cH
  00078	8b e5		 mov	 esp, ebp
  0007a	5d		 pop	 ebp
  0007b	c3		 ret	 0
?guildGetGradeData@@YAPAU_object@@PAU1@0@Z ENDP		; guildGetGradeData
_TEXT	ENDS
; Function compile flags: /Ogtp
; File D:\Metin2 Server Files\mainline\SRC_2014\Metin2Client\UserInterface\PythonGuild.cpp
; File C:\Program Files (x86)\Microsoft Visual Studio\2019\Community\VC\Tools\MSVC\14.28.29333\include\xtree
; File D:\Metin2 Server Files\mainline\SRC_2014\Metin2Client\UserInterface\PythonGuild.cpp
; File C:\Program Files (x86)\Microsoft Visual Studio\2019\Community\VC\Tools\MSVC\14.28.29333\include\xtree
; File C:\Program Files (x86)\Microsoft Visual Studio\2019\Community\VC\Tools\MSVC\14.28.29333\include\xstddef
; File C:\Program Files (x86)\Microsoft Visual Studio\2019\Community\VC\Tools\MSVC\14.28.29333\include\xtree
; File D:\Metin2 Server Files\mainline\SRC_2014\Metin2Client\UserInterface\PythonGuild.cpp
;	COMDAT ?guildGetSkillIndex@@YAPAU_object@@PAU1@0@Z
_TEXT	SEGMENT
__Loc$1 = -20						; size = 12
$T2 = -8						; size = 4
_iSlotIndex$ = -4					; size = 4
_poSelf$ = 8						; size = 4
_poArgs$ = 12						; size = 4
?guildGetSkillIndex@@YAPAU_object@@PAU1@0@Z PROC	; guildGetSkillIndex, COMDAT

; 579  : {

  00000	55		 push	 ebp
  00001	8b ec		 mov	 ebp, esp
  00003	83 ec 14	 sub	 esp, 20			; 00000014H

; 580  : 	int iSlotIndex;
; 581  : 	if (!PyTuple_GetInteger(poArgs, 0, &iSlotIndex))

  00006	8d 45 fc	 lea	 eax, DWORD PTR _iSlotIndex$[ebp]
  00009	50		 push	 eax
  0000a	6a 00		 push	 0
  0000c	ff 75 0c	 push	 DWORD PTR _poArgs$[ebp]
  0000f	e8 00 00 00 00	 call	 ?PyTuple_GetInteger@@YA_NPAU_object@@HPAH@Z ; PyTuple_GetInteger
  00014	83 c4 0c	 add	 esp, 12			; 0000000cH
  00017	84 c0		 test	 al, al
  00019	75 0e		 jne	 SHORT $LN2@guildGetSk

; 582  : 		return Py_BuildException();

  0001b	6a 00		 push	 0
  0001d	e8 00 00 00 00	 call	 ?Py_BuildException@@YAPAU_object@@PBDZZ ; Py_BuildException
  00022	83 c4 04	 add	 esp, 4

; 591  : }

  00025	8b e5		 mov	 esp, ebp
  00027	5d		 pop	 ebp
  00028	c3		 ret	 0
$LN2@guildGetSk:
  00029	56		 push	 esi

; 584  : 	std::map<DWORD, DWORD>::iterator itor = g_GuildSkillSlotToIndexMap.find(iSlotIndex);

  0002a	8b 75 fc	 mov	 esi, DWORD PTR _iSlotIndex$[ebp]
; File C:\Program Files (x86)\Microsoft Visual Studio\2019\Community\VC\Tools\MSVC\14.28.29333\include\xtree

; 1458 :         const _Tree_find_result<_Nodeptr> _Loc = _Find_lower_bound(_Keyval);

  0002d	8d 45 f8	 lea	 eax, DWORD PTR $T2[ebp]
  00030	50		 push	 eax
  00031	8d 45 ec	 lea	 eax, DWORD PTR __Loc$1[ebp]
; File D:\Metin2 Server Files\mainline\SRC_2014\Metin2Client\UserInterface\PythonGuild.cpp

; 584  : 	std::map<DWORD, DWORD>::iterator itor = g_GuildSkillSlotToIndexMap.find(iSlotIndex);

  00034	89 75 f8	 mov	 DWORD PTR $T2[ebp], esi
; File C:\Program Files (x86)\Microsoft Visual Studio\2019\Community\VC\Tools\MSVC\14.28.29333\include\xtree

; 1458 :         const _Tree_find_result<_Nodeptr> _Loc = _Find_lower_bound(_Keyval);

  00037	50		 push	 eax
  00038	b9 00 00 00 00	 mov	 ecx, OFFSET ?g_GuildSkillSlotToIndexMap@@3V?$map@KKU?$less@K@std@@V?$allocator@U?$pair@$$CBKK@std@@@2@@std@@A ; g_GuildSkillSlotToIndexMap
  0003d	e8 00 00 00 00	 call	 ??$_Find_lower_bound@K@?$_Tree@V?$_Tmap_traits@KKU?$less@K@std@@V?$allocator@U?$pair@$$CBKK@std@@@2@$0A@@std@@@std@@IBE?AU?$_Tree_find_result@PAU?$_Tree_node@U?$pair@$$CBKK@std@@PAX@std@@@1@ABK@Z ; std::_Tree<std::_Tmap_traits<unsigned long,unsigned long,std::less<unsigned long>,std::allocator<std::pair<unsigned long const ,unsigned long> >,0> >::_Find_lower_bound<unsigned long>

; 1695 :         return !_Bound->_Isnil && !_DEBUG_LT_PRED(_Getcomp(), _Keyval, _Traits::_Kfn(_Bound->_Myval));

  00042	8b 45 f4	 mov	 eax, DWORD PTR __Loc$1[ebp+8]
  00045	80 78 0d 00	 cmp	 BYTE PTR [eax+13], 0
  00049	75 23		 jne	 SHORT $LN39@guildGetSk
; File C:\Program Files (x86)\Microsoft Visual Studio\2019\Community\VC\Tools\MSVC\14.28.29333\include\xstddef

; 127  :         return _Left < _Right;

  0004b	3b 70 10	 cmp	 esi, DWORD PTR [eax+16]
; File C:\Program Files (x86)\Microsoft Visual Studio\2019\Community\VC\Tools\MSVC\14.28.29333\include\xtree

; 1695 :         return !_Bound->_Isnil && !_DEBUG_LT_PRED(_Getcomp(), _Keyval, _Traits::_Kfn(_Bound->_Myval));

  0004e	72 1e		 jb	 SHORT $LN39@guildGetSk

; 232  :         return this->_Ptr == _Right._Ptr;

  00050	39 05 00 00 00
	00		 cmp	 DWORD PTR ?g_GuildSkillSlotToIndexMap@@3V?$map@KKU?$less@K@std@@V?$allocator@U?$pair@$$CBKK@std@@@2@@std@@A, eax
; File D:\Metin2 Server Files\mainline\SRC_2014\Metin2Client\UserInterface\PythonGuild.cpp

; 586  : 	if (g_GuildSkillSlotToIndexMap.end() == itor)

  00056	74 16		 je	 SHORT $LN39@guildGetSk

; 588  : 
; 589  : 	DWORD dwSkillIndex = itor->second;
; 590  : 	return Py_BuildValue("i", dwSkillIndex);

  00058	ff 70 14	 push	 DWORD PTR [eax+20]
  0005b	68 00 00 00 00	 push	 OFFSET ??_C@_01KBJDNOO@i@
  00060	ff 15 00 00 00
	00		 call	 DWORD PTR __imp__Py_BuildValue
  00066	83 c4 08	 add	 esp, 8
  00069	5e		 pop	 esi

; 591  : }

  0006a	8b e5		 mov	 esp, ebp
  0006c	5d		 pop	 ebp
  0006d	c3		 ret	 0
$LN39@guildGetSk:

; 587  : 		return Py_BuildValue("i", 0);

  0006e	6a 00		 push	 0
  00070	68 00 00 00 00	 push	 OFFSET ??_C@_01KBJDNOO@i@
  00075	ff 15 00 00 00
	00		 call	 DWORD PTR __imp__Py_BuildValue
  0007b	83 c4 08	 add	 esp, 8
  0007e	5e		 pop	 esi

; 591  : }

  0007f	8b e5		 mov	 esp, ebp
  00081	5d		 pop	 ebp
  00082	c3		 ret	 0
?guildGetSkillIndex@@YAPAU_object@@PAU1@0@Z ENDP	; guildGetSkillIndex
_TEXT	ENDS
; Function compile flags: /Ogtp
; File D:\Metin2 Server Files\mainline\SRC_2014\Metin2Client\UserInterface\PythonGuild.cpp
; File C:\Program Files (x86)\Microsoft Visual Studio\2019\Community\VC\Tools\MSVC\14.28.29333\include\xtree
; File C:\Program Files (x86)\Microsoft Visual Studio\2019\Community\VC\Tools\MSVC\14.28.29333\include\utility
; File C:\Program Files (x86)\Microsoft Visual Studio\2019\Community\VC\Tools\MSVC\14.28.29333\include\xtree
; File C:\Program Files (x86)\Microsoft Visual Studio\2019\Community\VC\Tools\MSVC\14.28.29333\include\xmemory
; File C:\Program Files (x86)\Microsoft Visual Studio\2019\Community\VC\Tools\MSVC\14.28.29333\include\xtree
; File C:\Program Files (x86)\Microsoft Visual Studio\2019\Community\VC\Tools\MSVC\14.28.29333\include\xmemory
; File C:\Program Files (x86)\Microsoft Visual Studio\2019\Community\VC\Tools\MSVC\14.28.29333\include\xtree
; File C:\Program Files (x86)\Microsoft Visual Studio\2019\Community\VC\Tools\MSVC\14.28.29333\include\xmemory
; File C:\Program Files (x86)\Microsoft Visual Studio\2019\Community\VC\Tools\MSVC\14.28.29333\include\utility
; File C:\Program Files (x86)\Microsoft Visual Studio\2019\Community\VC\Tools\MSVC\14.28.29333\include\xtree
; File C:\Program Files (x86)\Microsoft Visual Studio\2019\Community\VC\Tools\MSVC\14.28.29333\include\xstddef
; File C:\Program Files (x86)\Microsoft Visual Studio\2019\Community\VC\Tools\MSVC\14.28.29333\include\xtree
; File C:\Program Files (x86)\Microsoft Visual Studio\2019\Community\VC\Tools\MSVC\14.28.29333\include\xmemory
; File C:\Program Files (x86)\Microsoft Visual Studio\2019\Community\VC\Tools\MSVC\14.28.29333\include\xtree
; File C:\Program Files (x86)\Microsoft Visual Studio\2019\Community\VC\Tools\MSVC\14.28.29333\include\xmemory
; File C:\Program Files (x86)\Microsoft Visual Studio\2019\Community\VC\Tools\MSVC\14.28.29333\include\xtree
; File D:\Metin2 Server Files\mainline\SRC_2014\Metin2Client\UserInterface\PythonGuild.cpp
; File C:\Program Files (x86)\Microsoft Visual Studio\2019\Community\VC\Tools\MSVC\14.28.29333\include\xtree
; File D:\Metin2 Server Files\mainline\SRC_2014\Metin2Client\UserInterface\PythonGuild.cpp
;	COMDAT ?guildSetSkillIndex@@YAPAU_object@@PAU1@0@Z
_TEXT	SEGMENT
$T3 = -56						; size = 12
__Loc$4 = -44						; size = 12
__Newnode$5 = -32					; size = 8
_iSkillIndex$ = -24					; size = 4
_iSlotIndex$ = -20					; size = 4
__Myhead$6 = -16					; size = 4
__$EHRec$ = -12						; size = 12
_poSelf$ = 8						; size = 4
_poArgs$ = 12						; size = 4
?guildSetSkillIndex@@YAPAU_object@@PAU1@0@Z PROC	; guildSetSkillIndex, COMDAT

; 565  : {

  00000	55		 push	 ebp
  00001	8b ec		 mov	 ebp, esp
  00003	6a ff		 push	 -1
  00005	68 00 00 00 00	 push	 __ehhandler$?guildSetSkillIndex@@YAPAU_object@@PAU1@0@Z
  0000a	64 a1 00 00 00
	00		 mov	 eax, DWORD PTR fs:0
  00010	50		 push	 eax
  00011	83 ec 2c	 sub	 esp, 44			; 0000002cH
  00014	53		 push	 ebx
  00015	56		 push	 esi
  00016	57		 push	 edi
  00017	a1 00 00 00 00	 mov	 eax, DWORD PTR ___security_cookie
  0001c	33 c5		 xor	 eax, ebp
  0001e	50		 push	 eax
  0001f	8d 45 f4	 lea	 eax, DWORD PTR __$EHRec$[ebp]
  00022	64 a3 00 00 00
	00		 mov	 DWORD PTR fs:0, eax

; 566  : 	int iSlotIndex;
; 567  : 	if (!PyTuple_GetInteger(poArgs, 0, &iSlotIndex))

  00028	8b 75 0c	 mov	 esi, DWORD PTR _poArgs$[ebp]
  0002b	8d 45 ec	 lea	 eax, DWORD PTR _iSlotIndex$[ebp]
  0002e	50		 push	 eax
  0002f	6a 00		 push	 0
  00031	56		 push	 esi
  00032	e8 00 00 00 00	 call	 ?PyTuple_GetInteger@@YA_NPAU_object@@HPAH@Z ; PyTuple_GetInteger
  00037	83 c4 0c	 add	 esp, 12			; 0000000cH
  0003a	84 c0		 test	 al, al
  0003c	75 1c		 jne	 SHORT $LN2@guildSetSk
$LN96@guildSetSk:

; 576  : }

  0003e	6a 00		 push	 0
  00040	e8 00 00 00 00	 call	 ?Py_BuildException@@YAPAU_object@@PBDZZ ; Py_BuildException
  00045	83 c4 04	 add	 esp, 4
  00048	8b 4d f4	 mov	 ecx, DWORD PTR __$EHRec$[ebp]
  0004b	64 89 0d 00 00
	00 00		 mov	 DWORD PTR fs:0, ecx
  00052	59		 pop	 ecx
  00053	5f		 pop	 edi
  00054	5e		 pop	 esi
  00055	5b		 pop	 ebx
  00056	8b e5		 mov	 esp, ebp
  00058	5d		 pop	 ebp
  00059	c3		 ret	 0
$LN2@guildSetSk:

; 568  : 		return Py_BuildException();
; 569  : 	int iSkillIndex;
; 570  : 	if (!PyTuple_GetInteger(poArgs, 1, &iSkillIndex))

  0005a	8d 45 e8	 lea	 eax, DWORD PTR _iSkillIndex$[ebp]
  0005d	50		 push	 eax
  0005e	6a 01		 push	 1
  00060	56		 push	 esi
  00061	e8 00 00 00 00	 call	 ?PyTuple_GetInteger@@YA_NPAU_object@@HPAH@Z ; PyTuple_GetInteger
  00066	83 c4 0c	 add	 esp, 12			; 0000000cH
  00069	84 c0		 test	 al, al
  0006b	74 d1		 je	 SHORT $LN96@guildSetSk
; File C:\Program Files (x86)\Microsoft Visual Studio\2019\Community\VC\Tools\MSVC\14.28.29333\include\xtree

; 1018 :             _Tree_temp_node<_Alnode> _Newnode(_Getal(), _Scary->_Myhead, _STD forward<_Valtys>(_Vals)...);

  0006d	a1 00 00 00 00	 mov	 eax, DWORD PTR ?g_GuildSkillSlotToIndexMap@@3V?$map@KKU?$less@K@std@@V?$allocator@U?$pair@$$CBKK@std@@@2@@std@@A
; File C:\Program Files (x86)\Microsoft Visual Studio\2019\Community\VC\Tools\MSVC\14.28.29333\include\utility

; 190  :         : first(_STD forward<_Other1>(_Val1)), second(_STD forward<_Other2>(_Val2)) {}

  00072	8b 75 ec	 mov	 esi, DWORD PTR _iSlotIndex$[ebp]
  00075	8b 7d e8	 mov	 edi, DWORD PTR _iSkillIndex$[ebp]
; File C:\Program Files (x86)\Microsoft Visual Studio\2019\Community\VC\Tools\MSVC\14.28.29333\include\xtree

; 1018 :             _Tree_temp_node<_Alnode> _Newnode(_Getal(), _Scary->_Myhead, _STD forward<_Valtys>(_Vals)...);

  00078	89 45 f0	 mov	 DWORD PTR __Myhead$6[ebp], eax
; File C:\Program Files (x86)\Microsoft Visual Studio\2019\Community\VC\Tools\MSVC\14.28.29333\include\xmemory

; 1045 :     explicit _Alloc_construct_ptr(_Alloc& _Al_) : _Al(_Al_), _Ptr(nullptr) {}

  0007b	c7 45 e0 00 00
	00 00		 mov	 DWORD PTR __Newnode$5[ebp], OFFSET ?g_GuildSkillSlotToIndexMap@@3V?$map@KKU?$less@K@std@@V?$allocator@U?$pair@$$CBKK@std@@@2@@std@@A ; g_GuildSkillSlotToIndexMap

; 814  :         return static_cast<_Ty*>(_Allocate<_New_alignof<_Ty>>(_Get_size_of_n<sizeof(_Ty)>(_Count)));

  00082	6a 18		 push	 24			; 00000018H
; File C:\Program Files (x86)\Microsoft Visual Studio\2019\Community\VC\Tools\MSVC\14.28.29333\include\xtree

; 784  :     explicit _Tree_temp_node_alloc(_Alnode& _Al_) : _Alloc_construct_ptr<_Alnode>(_Al_) {

  00084	c7 45 fc 00 00
	00 00		 mov	 DWORD PTR __$EHRec$[ebp+8], 0
; File C:\Program Files (x86)\Microsoft Visual Studio\2019\Community\VC\Tools\MSVC\14.28.29333\include\xmemory

; 1052 :         _Ptr = nullptr; // if allocate throws, prevents double-free

  0008b	c7 45 e4 00 00
	00 00		 mov	 DWORD PTR __Newnode$5[ebp+4], 0

; 814  :         return static_cast<_Ty*>(_Allocate<_New_alignof<_Ty>>(_Get_size_of_n<sizeof(_Ty)>(_Count)));

  00092	e8 00 00 00 00	 call	 ??$_Allocate@$07U_Default_allocate_traits@std@@$0A@@std@@YAPAXI@Z ; std::_Allocate<8,std::_Default_allocate_traits,0>

; 1053 :         _Ptr = _Al.allocate(1);

  00097	8b d8		 mov	 ebx, eax
; File C:\Program Files (x86)\Microsoft Visual Studio\2019\Community\VC\Tools\MSVC\14.28.29333\include\xtree

; 807  :         _Construct_in_place(this->_Ptr->_Left, _Myhead);

  00099	8d 45 f0	 lea	 eax, DWORD PTR __Myhead$6[ebp]
  0009c	50		 push	 eax
  0009d	53		 push	 ebx
; File C:\Program Files (x86)\Microsoft Visual Studio\2019\Community\VC\Tools\MSVC\14.28.29333\include\xmemory

; 1053 :         _Ptr = _Al.allocate(1);

  0009e	89 5d e4	 mov	 DWORD PTR __Newnode$5[ebp+4], ebx
; File C:\Program Files (x86)\Microsoft Visual Studio\2019\Community\VC\Tools\MSVC\14.28.29333\include\utility

; 246  :         : first(_STD forward<_Other1>(_Right.first)), second(_STD forward<_Other2>(_Right.second)) {}

  000a1	89 73 10	 mov	 DWORD PTR [ebx+16], esi
  000a4	89 7b 14	 mov	 DWORD PTR [ebx+20], edi
; File C:\Program Files (x86)\Microsoft Visual Studio\2019\Community\VC\Tools\MSVC\14.28.29333\include\xtree

; 807  :         _Construct_in_place(this->_Ptr->_Left, _Myhead);

  000a7	e8 00 00 00 00	 call	 ??$_Construct_in_place@PAU?$_Tree_node@U?$pair@$$CBKK@std@@PAX@std@@AAPAU12@@std@@YAXAAPAU?$_Tree_node@U?$pair@$$CBKK@std@@PAX@0@0@Z ; std::_Construct_in_place<std::_Tree_node<std::pair<unsigned long const ,unsigned long>,void *> *,std::_Tree_node<std::pair<unsigned long const ,unsigned long>,void *> * &>

; 808  :         _Construct_in_place(this->_Ptr->_Parent, _Myhead);

  000ac	8d 45 f0	 lea	 eax, DWORD PTR __Myhead$6[ebp]
  000af	50		 push	 eax
  000b0	8d 43 04	 lea	 eax, DWORD PTR [ebx+4]
  000b3	50		 push	 eax
  000b4	e8 00 00 00 00	 call	 ??$_Construct_in_place@PAU?$_Tree_node@U?$pair@$$CBKK@std@@PAX@std@@AAPAU12@@std@@YAXAAPAU?$_Tree_node@U?$pair@$$CBKK@std@@PAX@0@0@Z ; std::_Construct_in_place<std::_Tree_node<std::pair<unsigned long const ,unsigned long>,void *> *,std::_Tree_node<std::pair<unsigned long const ,unsigned long>,void *> * &>

; 809  :         _Construct_in_place(this->_Ptr->_Right, _Myhead);

  000b9	8d 45 f0	 lea	 eax, DWORD PTR __Myhead$6[ebp]
  000bc	50		 push	 eax
  000bd	8d 43 08	 lea	 eax, DWORD PTR [ebx+8]
  000c0	50		 push	 eax
  000c1	e8 00 00 00 00	 call	 ??$_Construct_in_place@PAU?$_Tree_node@U?$pair@$$CBKK@std@@PAX@std@@AAPAU12@@std@@YAXAAPAU?$_Tree_node@U?$pair@$$CBKK@std@@PAX@0@0@Z ; std::_Construct_in_place<std::_Tree_node<std::pair<unsigned long const ,unsigned long>,void *> *,std::_Tree_node<std::pair<unsigned long const ,unsigned long>,void *> * &>
  000c6	83 c4 1c	 add	 esp, 28			; 0000001cH

; 810  :         this->_Ptr->_Color = _Red;

  000c9	66 c7 43 0c 00
	00		 mov	 WORD PTR [ebx+12], 0

; 1023 :                 _Loc = _Find_lower_bound(_Keyval);

  000cf	8d 73 10	 lea	 esi, DWORD PTR [ebx+16]
  000d2	c7 45 fc 01 00
	00 00		 mov	 DWORD PTR __$EHRec$[ebp+8], 1
  000d9	56		 push	 esi
  000da	8d 45 c8	 lea	 eax, DWORD PTR $T3[ebp]
  000dd	b9 00 00 00 00	 mov	 ecx, OFFSET ?g_GuildSkillSlotToIndexMap@@3V?$map@KKU?$less@K@std@@V?$allocator@U?$pair@$$CBKK@std@@@2@@std@@A ; g_GuildSkillSlotToIndexMap
  000e2	50		 push	 eax
  000e3	e8 00 00 00 00	 call	 ??$_Find_lower_bound@K@?$_Tree@V?$_Tmap_traits@KKU?$less@K@std@@V?$allocator@U?$pair@$$CBKK@std@@@2@$0A@@std@@@std@@IBE?AU?$_Tree_find_result@PAU?$_Tree_node@U?$pair@$$CBKK@std@@PAX@std@@@1@ABK@Z ; std::_Tree<std::_Tmap_traits<unsigned long,unsigned long,std::less<unsigned long>,std::allocator<std::pair<unsigned long const ,unsigned long> >,0> >::_Find_lower_bound<unsigned long>
  000e8	8b 48 08	 mov	 ecx, DWORD PTR [eax+8]
  000eb	f3 0f 7e 00	 movq	 xmm0, QWORD PTR [eax]
  000ef	66 0f d6 45 d4	 movq	 QWORD PTR __Loc$4[ebp], xmm0

; 1695 :         return !_Bound->_Isnil && !_DEBUG_LT_PRED(_Getcomp(), _Keyval, _Traits::_Kfn(_Bound->_Myval));

  000f4	80 79 0d 00	 cmp	 BYTE PTR [ecx+13], 0
  000f8	75 1b		 jne	 SHORT $LN14@guildSetSk
; File C:\Program Files (x86)\Microsoft Visual Studio\2019\Community\VC\Tools\MSVC\14.28.29333\include\xstddef

; 127  :         return _Left < _Right;

  000fa	8b 06		 mov	 eax, DWORD PTR [esi]
  000fc	3b 41 10	 cmp	 eax, DWORD PTR [ecx+16]
; File C:\Program Files (x86)\Microsoft Visual Studio\2019\Community\VC\Tools\MSVC\14.28.29333\include\xtree

; 1695 :         return !_Bound->_Isnil && !_DEBUG_LT_PRED(_Getcomp(), _Keyval, _Traits::_Kfn(_Bound->_Myval));

  000ff	72 14		 jb	 SHORT $LN14@guildSetSk
; File C:\Program Files (x86)\Microsoft Visual Studio\2019\Community\VC\Tools\MSVC\14.28.29333\include\xmemory

; 810  :         _Deallocate<_New_alignof<_Ty>>(_Ptr, sizeof(_Ty) * _Count);

  00101	6a 18		 push	 24			; 00000018H
  00103	53		 push	 ebx
; File C:\Program Files (x86)\Microsoft Visual Studio\2019\Community\VC\Tools\MSVC\14.28.29333\include\xtree

; 1025 :                     return {_Loc._Bound, false};

  00104	c7 45 fc ff ff
	ff ff		 mov	 DWORD PTR __$EHRec$[ebp+8], -1
; File C:\Program Files (x86)\Microsoft Visual Studio\2019\Community\VC\Tools\MSVC\14.28.29333\include\xmemory

; 810  :         _Deallocate<_New_alignof<_Ty>>(_Ptr, sizeof(_Ty) * _Count);

  0010b	e8 00 00 00 00	 call	 ??$_Deallocate@$07$0A@@std@@YAXPAXI@Z ; std::_Deallocate<8,0>
  00110	83 c4 08	 add	 esp, 8
; File C:\Program Files (x86)\Microsoft Visual Studio\2019\Community\VC\Tools\MSVC\14.28.29333\include\xtree

; 1025 :                     return {_Loc._Bound, false};

  00113	eb 24		 jmp	 SHORT $LN81@guildSetSk
$LN14@guildSetSk:

; 1719 :         if (max_size() == _Get_scary()->_Mysize) {

  00115	81 3d 04 00 00
	00 aa aa aa 0a	 cmp	 DWORD PTR ?g_GuildSkillSlotToIndexMap@@3V?$map@KKU?$less@K@std@@V?$allocator@U?$pair@$$CBKK@std@@@2@@std@@A+4, 178956970 ; 0aaaaaaaH
  0011f	74 2f		 je	 SHORT $LN98@guildSetSk

; 1034 :         return {_Scary->_Insert_node(_Loc._Location, _Inserted), true};

  00121	53		 push	 ebx
  00122	ff 75 d8	 push	 DWORD PTR __Loc$4[ebp+4]
  00125	b9 00 00 00 00	 mov	 ecx, OFFSET ?g_GuildSkillSlotToIndexMap@@3V?$map@KKU?$less@K@std@@V?$allocator@U?$pair@$$CBKK@std@@@2@@std@@A ; g_GuildSkillSlotToIndexMap
  0012a	c7 45 fc ff ff
	ff ff		 mov	 DWORD PTR __$EHRec$[ebp+8], -1
  00131	ff 75 d4	 push	 DWORD PTR __Loc$4[ebp]
  00134	e8 00 00 00 00	 call	 ?_Insert_node@?$_Tree_val@U?$_Tree_simple_types@U?$pair@$$CBKK@std@@@std@@@std@@QAEPAU?$_Tree_node@U?$pair@$$CBKK@std@@PAX@2@U?$_Tree_id@PAU?$_Tree_node@U?$pair@$$CBKK@std@@PAX@std@@@2@QAU32@@Z ; std::_Tree_val<std::_Tree_simple_types<std::pair<unsigned long const ,unsigned long> > >::_Insert_node
$LN81@guildSetSk:
; File D:\Metin2 Server Files\mainline\SRC_2014\Metin2Client\UserInterface\PythonGuild.cpp

; 575  : 	return Py_BuildNone();

  00139	e8 00 00 00 00	 call	 ?Py_BuildNone@@YAPAU_object@@XZ ; Py_BuildNone

; 576  : }

  0013e	8b 4d f4	 mov	 ecx, DWORD PTR __$EHRec$[ebp]
  00141	64 89 0d 00 00
	00 00		 mov	 DWORD PTR fs:0, ecx
  00148	59		 pop	 ecx
  00149	5f		 pop	 edi
  0014a	5e		 pop	 esi
  0014b	5b		 pop	 ebx
  0014c	8b e5		 mov	 esp, ebp
  0014e	5d		 pop	 ebp
  0014f	c3		 ret	 0
$LN98@guildSetSk:
; File C:\Program Files (x86)\Microsoft Visual Studio\2019\Community\VC\Tools\MSVC\14.28.29333\include\xtree

; 1720 :             _Throw_tree_length_error();

  00150	e8 00 00 00 00	 call	 ?_Throw_tree_length_error@std@@YAXXZ ; std::_Throw_tree_length_error
$LN95@guildSetSk:
  00155	cc		 int	 3
_TEXT	ENDS
;	COMDAT text$x
text$x	SEGMENT
__unwindfunclet$?guildSetSkillIndex@@YAPAU_object@@PAU1@0@Z$2:
  00000	8d 4d e0	 lea	 ecx, DWORD PTR __Newnode$5[ebp]
  00003	e9 00 00 00 00	 jmp	 ??1?$_Alloc_construct_ptr@V?$allocator@U?$_Tree_node@U?$pair@$$CBKK@std@@PAX@std@@@std@@@std@@QAE@XZ ; std::_Alloc_construct_ptr<std::allocator<std::_Tree_node<std::pair<unsigned long const ,unsigned long>,void *> > >::~_Alloc_construct_ptr<std::allocator<std::_Tree_node<std::pair<unsigned long const ,unsigned long>,void *> > >
__unwindfunclet$?guildSetSkillIndex@@YAPAU_object@@PAU1@0@Z$0:
  00008	8d 4d e0	 lea	 ecx, DWORD PTR __Newnode$5[ebp]
  0000b	e9 00 00 00 00	 jmp	 ??1?$_Tree_temp_node@V?$allocator@U?$_Tree_node@U?$pair@$$CBKK@std@@PAX@std@@@std@@@std@@QAE@XZ ; std::_Tree_temp_node<std::allocator<std::_Tree_node<std::pair<unsigned long const ,unsigned long>,void *> > >::~_Tree_temp_node<std::allocator<std::_Tree_node<std::pair<unsigned long const ,unsigned long>,void *> > >
  00010	cc		 int	 3
  00011	cc		 int	 3
  00012	cc		 int	 3
  00013	cc		 int	 3
  00014	cc		 int	 3
__ehhandler$?guildSetSkillIndex@@YAPAU_object@@PAU1@0@Z:
  00015	90		 npad	 1
  00016	90		 npad	 1
  00017	8b 54 24 08	 mov	 edx, DWORD PTR [esp+8]
  0001b	8d 42 0c	 lea	 eax, DWORD PTR [edx+12]
  0001e	8b 4a c4	 mov	 ecx, DWORD PTR [edx-60]
  00021	33 c8		 xor	 ecx, eax
  00023	e8 00 00 00 00	 call	 @__security_check_cookie@4
  00028	b8 00 00 00 00	 mov	 eax, OFFSET __ehfuncinfo$?guildSetSkillIndex@@YAPAU_object@@PAU1@0@Z
  0002d	e9 00 00 00 00	 jmp	 ___CxxFrameHandler3
text$x	ENDS
?guildSetSkillIndex@@YAPAU_object@@PAU1@0@Z ENDP	; guildSetSkillIndex
; Function compile flags: /Ogtp
; File D:\Metin2 Server Files\mainline\SRC_2014\Metin2Client\UserInterface\PythonGuild.cpp
; File C:\Program Files (x86)\Microsoft Visual Studio\2019\Community\VC\Tools\MSVC\14.28.29333\include\xtree
; File D:\Metin2 Server Files\mainline\SRC_2014\Metin2Client\UserInterface\PythonGuild.cpp
; File C:\Program Files (x86)\Microsoft Visual Studio\2019\Community\VC\Tools\MSVC\14.28.29333\include\xtree
; File C:\Program Files (x86)\Microsoft Visual Studio\2019\Community\VC\Tools\MSVC\14.28.29333\include\xstddef
; File C:\Program Files (x86)\Microsoft Visual Studio\2019\Community\VC\Tools\MSVC\14.28.29333\include\xtree
; File D:\Metin2 Server Files\mainline\SRC_2014\Metin2Client\UserInterface\PythonGuild.cpp
;	COMDAT ?guildGetSkillMaxLevelNew@@YAPAU_object@@PAU1@0@Z
_TEXT	SEGMENT
__Loc$1 = -20						; size = 12
$T2 = -8						; size = 4
_iSlotIndex$ = -4					; size = 4
_poSelf$ = 8						; size = 4
_poArgs$ = 12						; size = 4
?guildGetSkillMaxLevelNew@@YAPAU_object@@PAU1@0@Z PROC	; guildGetSkillMaxLevelNew, COMDAT

; 547  : {

  00000	55		 push	 ebp
  00001	8b ec		 mov	 ebp, esp
  00003	83 ec 14	 sub	 esp, 20			; 00000014H

; 548  : 	int iSlotIndex;
; 549  : 	if (!PyTuple_GetInteger(poArgs, 0, &iSlotIndex))

  00006	8d 45 fc	 lea	 eax, DWORD PTR _iSlotIndex$[ebp]
  00009	50		 push	 eax
  0000a	6a 00		 push	 0
  0000c	ff 75 0c	 push	 DWORD PTR _poArgs$[ebp]
  0000f	e8 00 00 00 00	 call	 ?PyTuple_GetInteger@@YA_NPAU_object@@HPAH@Z ; PyTuple_GetInteger
  00014	83 c4 0c	 add	 esp, 12			; 0000000cH
  00017	84 c0		 test	 al, al
  00019	75 0e		 jne	 SHORT $LN2@guildGetSk

; 550  : 		return Py_BuildException();

  0001b	6a 00		 push	 0
  0001d	e8 00 00 00 00	 call	 ?Py_BuildException@@YAPAU_object@@PBDZZ ; Py_BuildException
  00022	83 c4 04	 add	 esp, 4

; 562  : }

  00025	8b e5		 mov	 esp, ebp
  00027	5d		 pop	 ebp
  00028	c3		 ret	 0
$LN2@guildGetSk:
  00029	56		 push	 esi
  0002a	57		 push	 edi

; 552  : 	std::map<DWORD, DWORD>::iterator itor = g_GuildSkillSlotToIndexMap.find(iSlotIndex);

  0002b	8b 7d fc	 mov	 edi, DWORD PTR _iSlotIndex$[ebp]
; File C:\Program Files (x86)\Microsoft Visual Studio\2019\Community\VC\Tools\MSVC\14.28.29333\include\xtree

; 1458 :         const _Tree_find_result<_Nodeptr> _Loc = _Find_lower_bound(_Keyval);

  0002e	8d 45 f8	 lea	 eax, DWORD PTR $T2[ebp]
  00031	50		 push	 eax
  00032	8d 45 ec	 lea	 eax, DWORD PTR __Loc$1[ebp]
; File D:\Metin2 Server Files\mainline\SRC_2014\Metin2Client\UserInterface\PythonGuild.cpp

; 552  : 	std::map<DWORD, DWORD>::iterator itor = g_GuildSkillSlotToIndexMap.find(iSlotIndex);

  00035	89 7d f8	 mov	 DWORD PTR $T2[ebp], edi
; File C:\Program Files (x86)\Microsoft Visual Studio\2019\Community\VC\Tools\MSVC\14.28.29333\include\xtree

; 1458 :         const _Tree_find_result<_Nodeptr> _Loc = _Find_lower_bound(_Keyval);

  00038	50		 push	 eax
  00039	b9 00 00 00 00	 mov	 ecx, OFFSET ?g_GuildSkillSlotToIndexMap@@3V?$map@KKU?$less@K@std@@V?$allocator@U?$pair@$$CBKK@std@@@2@@std@@A ; g_GuildSkillSlotToIndexMap
  0003e	e8 00 00 00 00	 call	 ??$_Find_lower_bound@K@?$_Tree@V?$_Tmap_traits@KKU?$less@K@std@@V?$allocator@U?$pair@$$CBKK@std@@@2@$0A@@std@@@std@@IBE?AU?$_Tree_find_result@PAU?$_Tree_node@U?$pair@$$CBKK@std@@PAX@std@@@1@ABK@Z ; std::_Tree<std::_Tmap_traits<unsigned long,unsigned long,std::less<unsigned long>,std::allocator<std::pair<unsigned long const ,unsigned long> >,0> >::_Find_lower_bound<unsigned long>

; 1695 :         return !_Bound->_Isnil && !_DEBUG_LT_PRED(_Getcomp(), _Keyval, _Traits::_Kfn(_Bound->_Myval));

  00043	8b 75 f4	 mov	 esi, DWORD PTR __Loc$1[ebp+8]
  00046	80 7e 0d 00	 cmp	 BYTE PTR [esi+13], 0
  0004a	75 35		 jne	 SHORT $LN39@guildGetSk
; File C:\Program Files (x86)\Microsoft Visual Studio\2019\Community\VC\Tools\MSVC\14.28.29333\include\xstddef

; 127  :         return _Left < _Right;

  0004c	3b 7e 10	 cmp	 edi, DWORD PTR [esi+16]
; File C:\Program Files (x86)\Microsoft Visual Studio\2019\Community\VC\Tools\MSVC\14.28.29333\include\xtree

; 1695 :         return !_Bound->_Isnil && !_DEBUG_LT_PRED(_Getcomp(), _Keyval, _Traits::_Kfn(_Bound->_Myval));

  0004f	72 30		 jb	 SHORT $LN39@guildGetSk

; 232  :         return this->_Ptr == _Right._Ptr;

  00051	39 35 00 00 00
	00		 cmp	 DWORD PTR ?g_GuildSkillSlotToIndexMap@@3V?$map@KKU?$less@K@std@@V?$allocator@U?$pair@$$CBKK@std@@@2@@std@@A, esi
; File D:\Metin2 Server Files\mainline\SRC_2014\Metin2Client\UserInterface\PythonGuild.cpp

; 554  : 	if (g_GuildSkillSlotToIndexMap.end() == itor)

  00057	74 28		 je	 SHORT $LN39@guildGetSk

; 556  : 
; 557  : 	DWORD dwSkillIndex = itor->second;
; 558  : 	assert(dwSkillIndex < CPythonGuild::GUILD_SKILL_MAX_NUM);
; 559  : 
; 560  : 	const CPythonGuild::TGuildSkillData & c_rSkillData = CPythonGuild::Instance().GetGuildSkillDataRef();

  00059	8b 0d 00 00 00
	00		 mov	 ecx, DWORD PTR ?ms_singleton@?$CSingleton@VCPythonGuild@@@@0PAVCPythonGuild@@A ; CSingleton<CPythonGuild>::ms_singleton
  0005f	8b 76 14	 mov	 esi, DWORD PTR [esi+20]
  00062	e8 00 00 00 00	 call	 ?GetGuildSkillDataRef@CPythonGuild@@QAEAAUSGuildSkillData@1@XZ ; CPythonGuild::GetGuildSkillDataRef

; 561  : 	return Py_BuildValue("i", c_rSkillData.bySkillLevel[dwSkillIndex]);

  00067	0f b6 44 30 01	 movzx	 eax, BYTE PTR [eax+esi+1]
  0006c	50		 push	 eax
  0006d	68 00 00 00 00	 push	 OFFSET ??_C@_01KBJDNOO@i@
  00072	ff 15 00 00 00
	00		 call	 DWORD PTR __imp__Py_BuildValue
  00078	83 c4 08	 add	 esp, 8
  0007b	5f		 pop	 edi
  0007c	5e		 pop	 esi

; 562  : }

  0007d	8b e5		 mov	 esp, ebp
  0007f	5d		 pop	 ebp
  00080	c3		 ret	 0
$LN39@guildGetSk:

; 555  : 		return Py_BuildValue("i", 0);

  00081	6a 00		 push	 0
  00083	68 00 00 00 00	 push	 OFFSET ??_C@_01KBJDNOO@i@
  00088	ff 15 00 00 00
	00		 call	 DWORD PTR __imp__Py_BuildValue
  0008e	83 c4 08	 add	 esp, 8
  00091	5f		 pop	 edi
  00092	5e		 pop	 esi

; 562  : }

  00093	8b e5		 mov	 esp, ebp
  00095	5d		 pop	 ebp
  00096	c3		 ret	 0
?guildGetSkillMaxLevelNew@@YAPAU_object@@PAU1@0@Z ENDP	; guildGetSkillMaxLevelNew
_TEXT	ENDS
; Function compile flags: /Ogtp
; File D:\Metin2 Server Files\mainline\SRC_2014\Metin2Client\UserInterface\PythonGuild.cpp
; File C:\Program Files (x86)\Microsoft Visual Studio\2019\Community\VC\Tools\MSVC\14.28.29333\include\xtree
; File D:\Metin2 Server Files\mainline\SRC_2014\Metin2Client\UserInterface\PythonGuild.cpp
; File C:\Program Files (x86)\Microsoft Visual Studio\2019\Community\VC\Tools\MSVC\14.28.29333\include\xtree
; File C:\Program Files (x86)\Microsoft Visual Studio\2019\Community\VC\Tools\MSVC\14.28.29333\include\xstddef
; File C:\Program Files (x86)\Microsoft Visual Studio\2019\Community\VC\Tools\MSVC\14.28.29333\include\xtree
; File D:\Metin2 Server Files\mainline\SRC_2014\Metin2Client\UserInterface\PythonGuild.cpp
;	COMDAT ?guildGetSkillLevel@@YAPAU_object@@PAU1@0@Z
_TEXT	SEGMENT
__Loc$1 = -20						; size = 12
$T2 = -8						; size = 4
_iSlotIndex$ = -4					; size = 4
_poSelf$ = 8						; size = 4
_poArgs$ = 12						; size = 4
?guildGetSkillLevel@@YAPAU_object@@PAU1@0@Z PROC	; guildGetSkillLevel, COMDAT

; 529  : {

  00000	55		 push	 ebp
  00001	8b ec		 mov	 ebp, esp
  00003	83 ec 14	 sub	 esp, 20			; 00000014H

; 530  : 	int iSlotIndex;
; 531  : 	if (!PyTuple_GetInteger(poArgs, 0, &iSlotIndex))

  00006	8d 45 fc	 lea	 eax, DWORD PTR _iSlotIndex$[ebp]
  00009	50		 push	 eax
  0000a	6a 00		 push	 0
  0000c	ff 75 0c	 push	 DWORD PTR _poArgs$[ebp]
  0000f	e8 00 00 00 00	 call	 ?PyTuple_GetInteger@@YA_NPAU_object@@HPAH@Z ; PyTuple_GetInteger
  00014	83 c4 0c	 add	 esp, 12			; 0000000cH
  00017	84 c0		 test	 al, al
  00019	75 0e		 jne	 SHORT $LN2@guildGetSk

; 532  : 		return Py_BuildException();

  0001b	6a 00		 push	 0
  0001d	e8 00 00 00 00	 call	 ?Py_BuildException@@YAPAU_object@@PBDZZ ; Py_BuildException
  00022	83 c4 04	 add	 esp, 4

; 544  : }

  00025	8b e5		 mov	 esp, ebp
  00027	5d		 pop	 ebp
  00028	c3		 ret	 0
$LN2@guildGetSk:
  00029	56		 push	 esi
  0002a	57		 push	 edi

; 534  : 	std::map<DWORD, DWORD>::iterator itor = g_GuildSkillSlotToIndexMap.find(iSlotIndex);

  0002b	8b 7d fc	 mov	 edi, DWORD PTR _iSlotIndex$[ebp]
; File C:\Program Files (x86)\Microsoft Visual Studio\2019\Community\VC\Tools\MSVC\14.28.29333\include\xtree

; 1458 :         const _Tree_find_result<_Nodeptr> _Loc = _Find_lower_bound(_Keyval);

  0002e	8d 45 f8	 lea	 eax, DWORD PTR $T2[ebp]
  00031	50		 push	 eax
  00032	8d 45 ec	 lea	 eax, DWORD PTR __Loc$1[ebp]
; File D:\Metin2 Server Files\mainline\SRC_2014\Metin2Client\UserInterface\PythonGuild.cpp

; 534  : 	std::map<DWORD, DWORD>::iterator itor = g_GuildSkillSlotToIndexMap.find(iSlotIndex);

  00035	89 7d f8	 mov	 DWORD PTR $T2[ebp], edi
; File C:\Program Files (x86)\Microsoft Visual Studio\2019\Community\VC\Tools\MSVC\14.28.29333\include\xtree

; 1458 :         const _Tree_find_result<_Nodeptr> _Loc = _Find_lower_bound(_Keyval);

  00038	50		 push	 eax
  00039	b9 00 00 00 00	 mov	 ecx, OFFSET ?g_GuildSkillSlotToIndexMap@@3V?$map@KKU?$less@K@std@@V?$allocator@U?$pair@$$CBKK@std@@@2@@std@@A ; g_GuildSkillSlotToIndexMap
  0003e	e8 00 00 00 00	 call	 ??$_Find_lower_bound@K@?$_Tree@V?$_Tmap_traits@KKU?$less@K@std@@V?$allocator@U?$pair@$$CBKK@std@@@2@$0A@@std@@@std@@IBE?AU?$_Tree_find_result@PAU?$_Tree_node@U?$pair@$$CBKK@std@@PAX@std@@@1@ABK@Z ; std::_Tree<std::_Tmap_traits<unsigned long,unsigned long,std::less<unsigned long>,std::allocator<std::pair<unsigned long const ,unsigned long> >,0> >::_Find_lower_bound<unsigned long>

; 1695 :         return !_Bound->_Isnil && !_DEBUG_LT_PRED(_Getcomp(), _Keyval, _Traits::_Kfn(_Bound->_Myval));

  00043	8b 75 f4	 mov	 esi, DWORD PTR __Loc$1[ebp+8]
  00046	80 7e 0d 00	 cmp	 BYTE PTR [esi+13], 0
  0004a	75 35		 jne	 SHORT $LN39@guildGetSk
; File C:\Program Files (x86)\Microsoft Visual Studio\2019\Community\VC\Tools\MSVC\14.28.29333\include\xstddef

; 127  :         return _Left < _Right;

  0004c	3b 7e 10	 cmp	 edi, DWORD PTR [esi+16]
; File C:\Program Files (x86)\Microsoft Visual Studio\2019\Community\VC\Tools\MSVC\14.28.29333\include\xtree

; 1695 :         return !_Bound->_Isnil && !_DEBUG_LT_PRED(_Getcomp(), _Keyval, _Traits::_Kfn(_Bound->_Myval));

  0004f	72 30		 jb	 SHORT $LN39@guildGetSk

; 232  :         return this->_Ptr == _Right._Ptr;

  00051	39 35 00 00 00
	00		 cmp	 DWORD PTR ?g_GuildSkillSlotToIndexMap@@3V?$map@KKU?$less@K@std@@V?$allocator@U?$pair@$$CBKK@std@@@2@@std@@A, esi
; File D:\Metin2 Server Files\mainline\SRC_2014\Metin2Client\UserInterface\PythonGuild.cpp

; 536  : 	if (g_GuildSkillSlotToIndexMap.end() == itor)

  00057	74 28		 je	 SHORT $LN39@guildGetSk

; 538  : 
; 539  : 	DWORD dwSkillIndex = itor->second;
; 540  : 	assert(dwSkillIndex < CPythonGuild::GUILD_SKILL_MAX_NUM);
; 541  : 
; 542  : 	const CPythonGuild::TGuildSkillData & c_rSkillData = CPythonGuild::Instance().GetGuildSkillDataRef();

  00059	8b 0d 00 00 00
	00		 mov	 ecx, DWORD PTR ?ms_singleton@?$CSingleton@VCPythonGuild@@@@0PAVCPythonGuild@@A ; CSingleton<CPythonGuild>::ms_singleton
  0005f	8b 76 14	 mov	 esi, DWORD PTR [esi+20]
  00062	e8 00 00 00 00	 call	 ?GetGuildSkillDataRef@CPythonGuild@@QAEAAUSGuildSkillData@1@XZ ; CPythonGuild::GetGuildSkillDataRef

; 543  : 	return Py_BuildValue("i", c_rSkillData.bySkillLevel[dwSkillIndex]);

  00067	0f b6 44 30 01	 movzx	 eax, BYTE PTR [eax+esi+1]
  0006c	50		 push	 eax
  0006d	68 00 00 00 00	 push	 OFFSET ??_C@_01KBJDNOO@i@
  00072	ff 15 00 00 00
	00		 call	 DWORD PTR __imp__Py_BuildValue
  00078	83 c4 08	 add	 esp, 8
  0007b	5f		 pop	 edi
  0007c	5e		 pop	 esi

; 544  : }

  0007d	8b e5		 mov	 esp, ebp
  0007f	5d		 pop	 ebp
  00080	c3		 ret	 0
$LN39@guildGetSk:

; 537  : 		return Py_BuildValue("i", 0);

  00081	6a 00		 push	 0
  00083	68 00 00 00 00	 push	 OFFSET ??_C@_01KBJDNOO@i@
  00088	ff 15 00 00 00
	00		 call	 DWORD PTR __imp__Py_BuildValue
  0008e	83 c4 08	 add	 esp, 8
  00091	5f		 pop	 edi
  00092	5e		 pop	 esi

; 544  : }

  00093	8b e5		 mov	 esp, ebp
  00095	5d		 pop	 ebp
  00096	c3		 ret	 0
?guildGetSkillLevel@@YAPAU_object@@PAU1@0@Z ENDP	; guildGetSkillLevel
_TEXT	ENDS
; Function compile flags: /Ogtp
; File D:\Metin2 Server Files\mainline\SRC_2014\Metin2Client\UserInterface\PythonGuild.cpp
;	COMDAT ?guildGetGuildSkillLevel@@YAPAU_object@@PAU1@0@Z
_TEXT	SEGMENT
_iSkillIndex$ = -4					; size = 4
_poSelf$ = 8						; size = 4
_poArgs$ = 12						; size = 4
?guildGetGuildSkillLevel@@YAPAU_object@@PAU1@0@Z PROC	; guildGetGuildSkillLevel, COMDAT

; 517  : {

  00000	55		 push	 ebp
  00001	8b ec		 mov	 ebp, esp
  00003	51		 push	 ecx

; 518  : 	assert(FALSE && !"guildGetGuildSkillLevel -   .");
; 519  : 
; 520  : 	int iSkillIndex;
; 521  : 	if (!PyTuple_GetInteger(poArgs, 0, &iSkillIndex))

  00004	8d 45 fc	 lea	 eax, DWORD PTR _iSkillIndex$[ebp]
  00007	50		 push	 eax
  00008	6a 00		 push	 0
  0000a	ff 75 0c	 push	 DWORD PTR _poArgs$[ebp]
  0000d	e8 00 00 00 00	 call	 ?PyTuple_GetInteger@@YA_NPAU_object@@HPAH@Z ; PyTuple_GetInteger
  00012	83 c4 0c	 add	 esp, 12			; 0000000cH
  00015	84 c0		 test	 al, al
  00017	75 0e		 jne	 SHORT $LN2@guildGetGu

; 522  : 		return Py_BuildException();

  00019	6a 00		 push	 0
  0001b	e8 00 00 00 00	 call	 ?Py_BuildException@@YAPAU_object@@PBDZZ ; Py_BuildException
  00020	83 c4 04	 add	 esp, 4

; 526  : }

  00023	8b e5		 mov	 esp, ebp
  00025	5d		 pop	 ebp
  00026	c3		 ret	 0
$LN2@guildGetGu:

; 523  : 
; 524  : 	const CPythonGuild::TGuildSkillData & c_rSkillData = CPythonGuild::Instance().GetGuildSkillDataRef();

  00027	8b 0d 00 00 00
	00		 mov	 ecx, DWORD PTR ?ms_singleton@?$CSingleton@VCPythonGuild@@@@0PAVCPythonGuild@@A ; CSingleton<CPythonGuild>::ms_singleton
  0002d	e8 00 00 00 00	 call	 ?GetGuildSkillDataRef@CPythonGuild@@QAEAAUSGuildSkillData@1@XZ ; CPythonGuild::GetGuildSkillDataRef

; 525  : 	return Py_BuildValue("i", c_rSkillData.bySkillLevel[iSkillIndex]);

  00032	8b 4d fc	 mov	 ecx, DWORD PTR _iSkillIndex$[ebp]
  00035	0f b6 44 08 01	 movzx	 eax, BYTE PTR [eax+ecx+1]
  0003a	50		 push	 eax
  0003b	68 00 00 00 00	 push	 OFFSET ??_C@_01KBJDNOO@i@
  00040	ff 15 00 00 00
	00		 call	 DWORD PTR __imp__Py_BuildValue
  00046	83 c4 08	 add	 esp, 8

; 526  : }

  00049	8b e5		 mov	 esp, ebp
  0004b	5d		 pop	 ebp
  0004c	c3		 ret	 0
?guildGetGuildSkillLevel@@YAPAU_object@@PAU1@0@Z ENDP	; guildGetGuildSkillLevel
_TEXT	ENDS
; Function compile flags: /Ogtp
; File D:\Metin2 Server Files\mainline\SRC_2014\Metin2Client\UserInterface\PythonGuild.cpp
;	COMDAT ?guildGetDragonPowerPoint@@YAPAU_object@@PAU1@0@Z
_TEXT	SEGMENT
_poSelf$ = 8						; size = 4
_poArgs$ = 12						; size = 4
?guildGetDragonPowerPoint@@YAPAU_object@@PAU1@0@Z PROC	; guildGetDragonPowerPoint, COMDAT

; 512  : 	const CPythonGuild::TGuildSkillData & c_rSkillData = CPythonGuild::Instance().GetGuildSkillDataRef();

  00000	8b 0d 00 00 00
	00		 mov	 ecx, DWORD PTR ?ms_singleton@?$CSingleton@VCPythonGuild@@@@0PAVCPythonGuild@@A ; CSingleton<CPythonGuild>::ms_singleton
  00006	e8 00 00 00 00	 call	 ?GetGuildSkillDataRef@CPythonGuild@@QAEAAUSGuildSkillData@1@XZ ; CPythonGuild::GetGuildSkillDataRef

; 513  : 	return Py_BuildValue("ii", c_rSkillData.wGuildPoint, c_rSkillData.wMaxGuildPoint);

  0000b	0f b7 48 10	 movzx	 ecx, WORD PTR [eax+16]
  0000f	0f b7 40 0e	 movzx	 eax, WORD PTR [eax+14]
  00013	51		 push	 ecx
  00014	50		 push	 eax
  00015	68 00 00 00 00	 push	 OFFSET ??_C@_02PDIHAGKM@ii@
  0001a	ff 15 00 00 00
	00		 call	 DWORD PTR __imp__Py_BuildValue
  00020	83 c4 0c	 add	 esp, 12			; 0000000cH

; 514  : }

  00023	c3		 ret	 0
?guildGetDragonPowerPoint@@YAPAU_object@@PAU1@0@Z ENDP	; guildGetDragonPowerPoint
_TEXT	ENDS
; Function compile flags: /Ogtp
; File D:\Metin2 Server Files\mainline\SRC_2014\Metin2Client\UserInterface\PythonGuild.cpp
;	COMDAT ?guildGetGuildSkillPoint@@YAPAU_object@@PAU1@0@Z
_TEXT	SEGMENT
_poSelf$ = 8						; size = 4
_poArgs$ = 12						; size = 4
?guildGetGuildSkillPoint@@YAPAU_object@@PAU1@0@Z PROC	; guildGetGuildSkillPoint, COMDAT

; 506  : 	const CPythonGuild::TGuildSkillData & c_rSkillData = CPythonGuild::Instance().GetGuildSkillDataRef();

  00000	8b 0d 00 00 00
	00		 mov	 ecx, DWORD PTR ?ms_singleton@?$CSingleton@VCPythonGuild@@@@0PAVCPythonGuild@@A ; CSingleton<CPythonGuild>::ms_singleton
  00006	e8 00 00 00 00	 call	 ?GetGuildSkillDataRef@CPythonGuild@@QAEAAUSGuildSkillData@1@XZ ; CPythonGuild::GetGuildSkillDataRef

; 507  : 	return Py_BuildValue("i", c_rSkillData.bySkillPoint);

  0000b	0f b6 00	 movzx	 eax, BYTE PTR [eax]
  0000e	50		 push	 eax
  0000f	68 00 00 00 00	 push	 OFFSET ??_C@_01KBJDNOO@i@
  00014	ff 15 00 00 00
	00		 call	 DWORD PTR __imp__Py_BuildValue
  0001a	83 c4 08	 add	 esp, 8

; 508  : }

  0001d	c3		 ret	 0
?guildGetGuildSkillPoint@@YAPAU_object@@PAU1@0@Z ENDP	; guildGetGuildSkillPoint
_TEXT	ENDS
; Function compile flags: /Ogtp
; File D:\Metin2 Server Files\mainline\SRC_2014\Metin2Client\UserInterface\PythonGuild.cpp
;	COMDAT ?guildGetGuildExperienceSummary@@YAPAU_object@@PAU1@0@Z
_TEXT	SEGMENT
_poSelf$ = 8						; size = 4
_poArgs$ = 12						; size = 4
?guildGetGuildExperienceSummary@@YAPAU_object@@PAU1@0@Z PROC ; guildGetGuildExperienceSummary, COMDAT

; 501  : 	return Py_BuildValue("i", CPythonGuild::Instance().GetGuildExperienceSummary());

  00000	8b 0d 00 00 00
	00		 mov	 ecx, DWORD PTR ?ms_singleton@?$CSingleton@VCPythonGuild@@@@0PAVCPythonGuild@@A ; CSingleton<CPythonGuild>::ms_singleton
  00006	e8 00 00 00 00	 call	 ?GetGuildExperienceSummary@CPythonGuild@@QAEKXZ ; CPythonGuild::GetGuildExperienceSummary
  0000b	50		 push	 eax
  0000c	68 00 00 00 00	 push	 OFFSET ??_C@_01KBJDNOO@i@
  00011	ff 15 00 00 00
	00		 call	 DWORD PTR __imp__Py_BuildValue
  00017	83 c4 08	 add	 esp, 8

; 502  : }

  0001a	c3		 ret	 0
?guildGetGuildExperienceSummary@@YAPAU_object@@PAU1@0@Z ENDP ; guildGetGuildExperienceSummary
_TEXT	ENDS
; Function compile flags: /Ogtp
; File D:\Metin2 Server Files\mainline\SRC_2014\Metin2Client\UserInterface\PythonGuild.cpp
;	COMDAT ?guildGetGuildMemberLevelAverage@@YAPAU_object@@PAU1@0@Z
_TEXT	SEGMENT
_poSelf$ = 8						; size = 4
_poArgs$ = 12						; size = 4
?guildGetGuildMemberLevelAverage@@YAPAU_object@@PAU1@0@Z PROC ; guildGetGuildMemberLevelAverage, COMDAT

; 496  : 	return Py_BuildValue("i", CPythonGuild::Instance().GetGuildMemberLevelAverage());

  00000	8b 0d 00 00 00
	00		 mov	 ecx, DWORD PTR ?ms_singleton@?$CSingleton@VCPythonGuild@@@@0PAVCPythonGuild@@A ; CSingleton<CPythonGuild>::ms_singleton
  00006	e8 00 00 00 00	 call	 ?GetGuildMemberLevelAverage@CPythonGuild@@QAEKXZ ; CPythonGuild::GetGuildMemberLevelAverage
  0000b	50		 push	 eax
  0000c	68 00 00 00 00	 push	 OFFSET ??_C@_01KBJDNOO@i@
  00011	ff 15 00 00 00
	00		 call	 DWORD PTR __imp__Py_BuildValue
  00017	83 c4 08	 add	 esp, 8

; 497  : }

  0001a	c3		 ret	 0
?guildGetGuildMemberLevelAverage@@YAPAU_object@@PAU1@0@Z ENDP ; guildGetGuildMemberLevelAverage
_TEXT	ENDS
; Function compile flags: /Ogtp
; File D:\Metin2 Server Files\mainline\SRC_2014\Metin2Client\UserInterface\PythonGuild.cpp
;	COMDAT ?guildGetGuildMemberLevelSummary@@YAPAU_object@@PAU1@0@Z
_TEXT	SEGMENT
_poSelf$ = 8						; size = 4
_poArgs$ = 12						; size = 4
?guildGetGuildMemberLevelSummary@@YAPAU_object@@PAU1@0@Z PROC ; guildGetGuildMemberLevelSummary, COMDAT

; 491  : 	return Py_BuildValue("i", CPythonGuild::Instance().GetGuildMemberLevelSummary());

  00000	8b 0d 00 00 00
	00		 mov	 ecx, DWORD PTR ?ms_singleton@?$CSingleton@VCPythonGuild@@@@0PAVCPythonGuild@@A ; CSingleton<CPythonGuild>::ms_singleton
  00006	e8 00 00 00 00	 call	 ?GetGuildMemberLevelSummary@CPythonGuild@@QAEKXZ ; CPythonGuild::GetGuildMemberLevelSummary
  0000b	50		 push	 eax
  0000c	68 00 00 00 00	 push	 OFFSET ??_C@_01KBJDNOO@i@
  00011	ff 15 00 00 00
	00		 call	 DWORD PTR __imp__Py_BuildValue
  00017	83 c4 08	 add	 esp, 8

; 492  : }

  0001a	c3		 ret	 0
?guildGetGuildMemberLevelSummary@@YAPAU_object@@PAU1@0@Z ENDP ; guildGetGuildMemberLevelSummary
_TEXT	ENDS
; Function compile flags: /Ogtp
; File D:\Metin2 Server Files\mainline\SRC_2014\Metin2Client\UserInterface\PythonGuild.cpp
;	COMDAT ?guildGetGuildMemberCount@@YAPAU_object@@PAU1@0@Z
_TEXT	SEGMENT
_poSelf$ = 8						; size = 4
_poArgs$ = 12						; size = 4
?guildGetGuildMemberCount@@YAPAU_object@@PAU1@0@Z PROC	; guildGetGuildMemberCount, COMDAT

; 485  : 	CPythonGuild::TGuildInfo & rGuildInfo = CPythonGuild::Instance().GetGuildInfoRef();

  00000	8b 0d 00 00 00
	00		 mov	 ecx, DWORD PTR ?ms_singleton@?$CSingleton@VCPythonGuild@@@@0PAVCPythonGuild@@A ; CSingleton<CPythonGuild>::ms_singleton
  00006	e8 00 00 00 00	 call	 ?GetGuildInfoRef@CPythonGuild@@QAEAAUSGulidInfo@1@XZ ; CPythonGuild::GetGuildInfoRef

; 486  : 	return Py_BuildValue("ii", rGuildInfo.dwCurrentMemberCount, rGuildInfo.dwMaxMemberCount);

  0000b	ff 70 24	 push	 DWORD PTR [eax+36]
  0000e	ff 70 20	 push	 DWORD PTR [eax+32]
  00011	68 00 00 00 00	 push	 OFFSET ??_C@_02PDIHAGKM@ii@
  00016	ff 15 00 00 00
	00		 call	 DWORD PTR __imp__Py_BuildValue
  0001c	83 c4 0c	 add	 esp, 12			; 0000000cH

; 487  : }

  0001f	c3		 ret	 0
?guildGetGuildMemberCount@@YAPAU_object@@PAU1@0@Z ENDP	; guildGetGuildMemberCount
_TEXT	ENDS
; Function compile flags: /Ogtp
; File D:\Metin2 Server Files\mainline\SRC_2014\Metin2Client\UserInterface\PythonGuild.cpp
;	COMDAT ?guildGetGuildExperience@@YAPAU_object@@PAU1@0@Z
_TEXT	SEGMENT
_poSelf$ = 8						; size = 4
_poArgs$ = 12						; size = 4
?guildGetGuildExperience@@YAPAU_object@@PAU1@0@Z PROC	; guildGetGuildExperience, COMDAT

; 472  : 	CPythonGuild::TGuildInfo & rGuildInfo = CPythonGuild::Instance().GetGuildInfoRef();

  00000	8b 0d 00 00 00
	00		 mov	 ecx, DWORD PTR ?ms_singleton@?$CSingleton@VCPythonGuild@@@@0PAVCPythonGuild@@A ; CSingleton<CPythonGuild>::ms_singleton
  00006	56		 push	 esi
  00007	e8 00 00 00 00	 call	 ?GetGuildInfoRef@CPythonGuild@@QAEAAUSGulidInfo@1@XZ ; CPythonGuild::GetGuildInfoRef
  0000c	8b f0		 mov	 esi, eax

; 473  : 
; 474  : 	int GULID_MAX_LEVEL = 20;
; 475  : 	if (rGuildInfo.dwGuildLevel >= GULID_MAX_LEVEL)

  0000e	8b 46 18	 mov	 eax, DWORD PTR [esi+24]
  00011	83 f8 14	 cmp	 eax, 20			; 00000014H
  00014	72 14		 jb	 SHORT $LN2@guildGetGu

; 476  : 		return Py_BuildValue("ii", 0, 0);

  00016	6a 00		 push	 0
  00018	6a 00		 push	 0
  0001a	68 00 00 00 00	 push	 OFFSET ??_C@_02PDIHAGKM@ii@
  0001f	ff 15 00 00 00
	00		 call	 DWORD PTR __imp__Py_BuildValue
  00025	83 c4 0c	 add	 esp, 12			; 0000000cH
  00028	5e		 pop	 esi

; 481  : }

  00029	c3		 ret	 0
$LN2@guildGetGu:

; 477  : 
; 478  : 	unsigned lastExp = LocaleService_GetLastExp(rGuildInfo.dwGuildLevel);

  0002a	50		 push	 eax
  0002b	e8 00 00 00 00	 call	 ?LocaleService_GetLastExp@@YAIH@Z ; LocaleService_GetLastExp

; 479  : 
; 480  : 	return Py_BuildValue("ii", rGuildInfo.dwCurrentExperience, lastExp - rGuildInfo.dwCurrentExperience);

  00030	8b 4e 1c	 mov	 ecx, DWORD PTR [esi+28]
  00033	2b c1		 sub	 eax, ecx
  00035	50		 push	 eax
  00036	51		 push	 ecx
  00037	68 00 00 00 00	 push	 OFFSET ??_C@_02PDIHAGKM@ii@
  0003c	ff 15 00 00 00
	00		 call	 DWORD PTR __imp__Py_BuildValue
  00042	83 c4 10	 add	 esp, 16			; 00000010H
  00045	5e		 pop	 esi

; 481  : }

  00046	c3		 ret	 0
?guildGetGuildExperience@@YAPAU_object@@PAU1@0@Z ENDP	; guildGetGuildExperience
_TEXT	ENDS
; Function compile flags: /Ogtp
; File D:\Metin2 Server Files\mainline\SRC_2014\Metin2Client\UserInterface\PythonGuild.cpp
;	COMDAT ?guildGetGuildLevel@@YAPAU_object@@PAU1@0@Z
_TEXT	SEGMENT
_poSelf$ = 8						; size = 4
_poArgs$ = 12						; size = 4
?guildGetGuildLevel@@YAPAU_object@@PAU1@0@Z PROC	; guildGetGuildLevel, COMDAT

; 464  : 	CPythonGuild::TGuildInfo & rGuildInfo = CPythonGuild::Instance().GetGuildInfoRef();

  00000	8b 0d 00 00 00
	00		 mov	 ecx, DWORD PTR ?ms_singleton@?$CSingleton@VCPythonGuild@@@@0PAVCPythonGuild@@A ; CSingleton<CPythonGuild>::ms_singleton
  00006	e8 00 00 00 00	 call	 ?GetGuildInfoRef@CPythonGuild@@QAEAAUSGulidInfo@1@XZ ; CPythonGuild::GetGuildInfoRef

; 465  : 	return Py_BuildValue("i", rGuildInfo.dwGuildLevel);

  0000b	ff 70 18	 push	 DWORD PTR [eax+24]
  0000e	68 00 00 00 00	 push	 OFFSET ??_C@_01KBJDNOO@i@
  00013	ff 15 00 00 00
	00		 call	 DWORD PTR __imp__Py_BuildValue
  00019	83 c4 08	 add	 esp, 8

; 466  : }

  0001c	c3		 ret	 0
?guildGetGuildLevel@@YAPAU_object@@PAU1@0@Z ENDP	; guildGetGuildLevel
_TEXT	ENDS
; Function compile flags: /Ogtp
; File D:\Metin2 Server Files\mainline\SRC_2014\Metin2Client\UserInterface\PythonGuild.cpp
; File C:\Program Files (x86)\Microsoft Visual Studio\2019\Community\VC\Tools\MSVC\14.28.29333\include\vector
; File D:\Metin2 Server Files\mainline\SRC_2014\Metin2Client\UserInterface\PythonGuild.cpp
; File C:\Program Files (x86)\Microsoft Visual Studio\2019\Community\VC\Tools\MSVC\14.28.29333\include\vector
; File D:\Metin2 Server Files\mainline\SRC_2014\Metin2Client\UserInterface\PythonGuild.cpp
; File C:\Program Files (x86)\Microsoft Visual Studio\2019\Community\VC\Tools\MSVC\14.28.29333\include\vector
; File C:\Program Files (x86)\Microsoft Visual Studio\2019\Community\VC\Tools\MSVC\14.28.29333\include\xstring
; File D:\Metin2 Server Files\mainline\SRC_2014\Metin2Client\UserInterface\PythonGuild.cpp
;	COMDAT ?guildGetGuildBoardCommentData@@YAPAU_object@@PAU1@0@Z
_TEXT	SEGMENT
_iIndex$ = -4						; size = 4
_poSelf$ = 8						; size = 4
_poArgs$ = 12						; size = 4
?guildGetGuildBoardCommentData@@YAPAU_object@@PAU1@0@Z PROC ; guildGetGuildBoardCommentData, COMDAT

; 448  : {

  00000	55		 push	 ebp
  00001	8b ec		 mov	 ebp, esp
  00003	51		 push	 ecx

; 449  : 	int iIndex;
; 450  : 	if (!PyTuple_GetInteger(poArgs, 0, &iIndex))

  00004	8d 45 fc	 lea	 eax, DWORD PTR _iIndex$[ebp]
  00007	50		 push	 eax
  00008	6a 00		 push	 0
  0000a	ff 75 0c	 push	 DWORD PTR _poArgs$[ebp]
  0000d	e8 00 00 00 00	 call	 ?PyTuple_GetInteger@@YA_NPAU_object@@HPAH@Z ; PyTuple_GetInteger
  00012	83 c4 0c	 add	 esp, 12			; 0000000cH
  00015	84 c0		 test	 al, al
  00017	75 0e		 jne	 SHORT $LN2@guildGetGu

; 451  : 		return Py_BuildException();

  00019	6a 00		 push	 0
  0001b	e8 00 00 00 00	 call	 ?Py_BuildException@@YAPAU_object@@PBDZZ ; Py_BuildException
  00020	83 c4 04	 add	 esp, 4

; 460  : }

  00023	8b e5		 mov	 esp, ebp
  00025	5d		 pop	 ebp
  00026	c3		 ret	 0
$LN2@guildGetGu:

; 452  : 
; 453  : 	const CPythonGuild::TGuildBoardCommentDataVector & c_rCommentVector = CPythonGuild::Instance().GetGuildBoardCommentVector();

  00027	8b 0d 00 00 00
	00		 mov	 ecx, DWORD PTR ?ms_singleton@?$CSingleton@VCPythonGuild@@@@0PAVCPythonGuild@@A ; CSingleton<CPythonGuild>::ms_singleton
  0002d	56		 push	 esi
  0002e	e8 00 00 00 00	 call	 ?GetGuildBoardCommentVector@CPythonGuild@@QAEABV?$vector@USGuildBoardCommentData@CPythonGuild@@V?$allocator@USGuildBoardCommentData@CPythonGuild@@@std@@@std@@XZ ; CPythonGuild::GetGuildBoardCommentVector
; File C:\Program Files (x86)\Microsoft Visual Studio\2019\Community\VC\Tools\MSVC\14.28.29333\include\vector

; 1484 :         return static_cast<size_type>(_My_data._Mylast - _My_data._Myfirst);

  00033	8b 48 04	 mov	 ecx, DWORD PTR [eax+4]
  00036	8b 30		 mov	 esi, DWORD PTR [eax]
  00038	2b ce		 sub	 ecx, esi
  0003a	b8 4f ec c4 4e	 mov	 eax, 1321528399		; 4ec4ec4fH
  0003f	f7 e9		 imul	 ecx
; File D:\Metin2 Server Files\mainline\SRC_2014\Metin2Client\UserInterface\PythonGuild.cpp

; 454  : 	if (DWORD(iIndex) >= c_rCommentVector.size())

  00041	8b 4d fc	 mov	 ecx, DWORD PTR _iIndex$[ebp]
; File C:\Program Files (x86)\Microsoft Visual Studio\2019\Community\VC\Tools\MSVC\14.28.29333\include\vector

; 1484 :         return static_cast<size_type>(_My_data._Mylast - _My_data._Myfirst);

  00044	c1 fa 04	 sar	 edx, 4
  00047	8b c2		 mov	 eax, edx
  00049	c1 e8 1f	 shr	 eax, 31			; 0000001fH
  0004c	03 c2		 add	 eax, edx
; File D:\Metin2 Server Files\mainline\SRC_2014\Metin2Client\UserInterface\PythonGuild.cpp

; 454  : 	if (DWORD(iIndex) >= c_rCommentVector.size())

  0004e	3b c8		 cmp	 ecx, eax
  00050	72 1f		 jb	 SHORT $LN3@guildGetGu

; 455  : 		return Py_BuildValue("iss", 0, "Noname", "Noname");

  00052	68 00 00 00 00	 push	 OFFSET ??_C@_06HCBIANPB@Noname@
  00057	68 00 00 00 00	 push	 OFFSET ??_C@_06HCBIANPB@Noname@
  0005c	6a 00		 push	 0

; 459  : 	return Py_BuildValue("iss", c_rData.dwCommentID, c_rData.strName.c_str(), c_rData.strComment.c_str());

  0005e	68 00 00 00 00	 push	 OFFSET ??_C@_03MKDAGEFG@iss@
  00063	ff 15 00 00 00
	00		 call	 DWORD PTR __imp__Py_BuildValue
  00069	83 c4 10	 add	 esp, 16			; 00000010H
  0006c	5e		 pop	 esi

; 460  : }

  0006d	8b e5		 mov	 esp, ebp
  0006f	5d		 pop	 ebp
  00070	c3		 ret	 0
$LN3@guildGetGu:
; File C:\Program Files (x86)\Microsoft Visual Studio\2019\Community\VC\Tools\MSVC\14.28.29333\include\vector

; 1514 :         return _My_data._Myfirst[_Pos];

  00071	6b c1 34	 imul	 eax, ecx, 52
; File C:\Program Files (x86)\Microsoft Visual Studio\2019\Community\VC\Tools\MSVC\14.28.29333\include\xstring

; 3752 :         return _Mypair._Myval2._Myptr();

  00074	8d 50 1c	 lea	 edx, DWORD PTR [eax+28]
  00077	03 d6		 add	 edx, esi

; 2227 :         return _BUF_SIZE <= _Myres;

  00079	83 7a 14 10	 cmp	 DWORD PTR [edx+20], 16	; 00000010H

; 2219 :         if (_Large_string_engaged()) {

  0007d	72 02		 jb	 SHORT $LN12@guildGetGu

; 2220 :             _Result = _Unfancy(_Bx._Ptr);

  0007f	8b 12		 mov	 edx, DWORD PTR [edx]
$LN12@guildGetGu:

; 3752 :         return _Mypair._Myval2._Myptr();

  00081	8d 48 04	 lea	 ecx, DWORD PTR [eax+4]
  00084	03 ce		 add	 ecx, esi

; 2227 :         return _BUF_SIZE <= _Myres;

  00086	83 79 14 10	 cmp	 DWORD PTR [ecx+20], 16	; 00000010H

; 2219 :         if (_Large_string_engaged()) {

  0008a	72 02		 jb	 SHORT $LN19@guildGetGu

; 2220 :             _Result = _Unfancy(_Bx._Ptr);

  0008c	8b 09		 mov	 ecx, DWORD PTR [ecx]
$LN19@guildGetGu:
; File D:\Metin2 Server Files\mainline\SRC_2014\Metin2Client\UserInterface\PythonGuild.cpp

; 459  : 	return Py_BuildValue("iss", c_rData.dwCommentID, c_rData.strName.c_str(), c_rData.strComment.c_str());

  0008e	52		 push	 edx
  0008f	51		 push	 ecx
  00090	ff 34 30	 push	 DWORD PTR [eax+esi]
  00093	68 00 00 00 00	 push	 OFFSET ??_C@_03MKDAGEFG@iss@
  00098	ff 15 00 00 00
	00		 call	 DWORD PTR __imp__Py_BuildValue
  0009e	83 c4 10	 add	 esp, 16			; 00000010H
  000a1	5e		 pop	 esi

; 460  : }

  000a2	8b e5		 mov	 esp, ebp
  000a4	5d		 pop	 ebp
  000a5	c3		 ret	 0
?guildGetGuildBoardCommentData@@YAPAU_object@@PAU1@0@Z ENDP ; guildGetGuildBoardCommentData
_TEXT	ENDS
; Function compile flags: /Ogtp
; File D:\Metin2 Server Files\mainline\SRC_2014\Metin2Client\UserInterface\PythonGuild.cpp
; File C:\Program Files (x86)\Microsoft Visual Studio\2019\Community\VC\Tools\MSVC\14.28.29333\include\vector
; File D:\Metin2 Server Files\mainline\SRC_2014\Metin2Client\UserInterface\PythonGuild.cpp
;	COMDAT ?guildGetGuildBoardCommentCount@@YAPAU_object@@PAU1@0@Z
_TEXT	SEGMENT
_poSelf$ = 8						; size = 4
_poArgs$ = 12						; size = 4
?guildGetGuildBoardCommentCount@@YAPAU_object@@PAU1@0@Z PROC ; guildGetGuildBoardCommentCount, COMDAT

; 443  : 	const CPythonGuild::TGuildBoardCommentDataVector & rCommentVector = CPythonGuild::Instance().GetGuildBoardCommentVector();

  00000	8b 0d 00 00 00
	00		 mov	 ecx, DWORD PTR ?ms_singleton@?$CSingleton@VCPythonGuild@@@@0PAVCPythonGuild@@A ; CSingleton<CPythonGuild>::ms_singleton
  00006	e8 00 00 00 00	 call	 ?GetGuildBoardCommentVector@CPythonGuild@@QAEABV?$vector@USGuildBoardCommentData@CPythonGuild@@V?$allocator@USGuildBoardCommentData@CPythonGuild@@@std@@@std@@XZ ; CPythonGuild::GetGuildBoardCommentVector
; File C:\Program Files (x86)\Microsoft Visual Studio\2019\Community\VC\Tools\MSVC\14.28.29333\include\vector

; 1484 :         return static_cast<size_type>(_My_data._Mylast - _My_data._Myfirst);

  0000b	8b 48 04	 mov	 ecx, DWORD PTR [eax+4]
  0000e	2b 08		 sub	 ecx, DWORD PTR [eax]
  00010	b8 4f ec c4 4e	 mov	 eax, 1321528399		; 4ec4ec4fH
  00015	f7 e9		 imul	 ecx
  00017	c1 fa 04	 sar	 edx, 4
  0001a	8b c2		 mov	 eax, edx
  0001c	c1 e8 1f	 shr	 eax, 31			; 0000001fH
  0001f	03 c2		 add	 eax, edx
; File D:\Metin2 Server Files\mainline\SRC_2014\Metin2Client\UserInterface\PythonGuild.cpp

; 444  : 	return Py_BuildValue("i", rCommentVector.size());

  00021	50		 push	 eax
  00022	68 00 00 00 00	 push	 OFFSET ??_C@_01KBJDNOO@i@
  00027	ff 15 00 00 00
	00		 call	 DWORD PTR __imp__Py_BuildValue
  0002d	83 c4 08	 add	 esp, 8

; 445  : }

  00030	c3		 ret	 0
?guildGetGuildBoardCommentCount@@YAPAU_object@@PAU1@0@Z ENDP ; guildGetGuildBoardCommentCount
_TEXT	ENDS
; Function compile flags: /Ogtp
; File D:\Metin2 Server Files\mainline\SRC_2014\Metin2Client\UserInterface\PythonGuild.cpp
;	COMDAT ?guildGetGuildMoney@@YAPAU_object@@PAU1@0@Z
_TEXT	SEGMENT
_poSelf$ = 8						; size = 4
_poArgs$ = 12						; size = 4
?guildGetGuildMoney@@YAPAU_object@@PAU1@0@Z PROC	; guildGetGuildMoney, COMDAT

; 437  : 	CPythonGuild::TGuildInfo & rGuildInfo = CPythonGuild::Instance().GetGuildInfoRef();

  00000	8b 0d 00 00 00
	00		 mov	 ecx, DWORD PTR ?ms_singleton@?$CSingleton@VCPythonGuild@@@@0PAVCPythonGuild@@A ; CSingleton<CPythonGuild>::ms_singleton
  00006	e8 00 00 00 00	 call	 ?GetGuildInfoRef@CPythonGuild@@QAEAAUSGulidInfo@1@XZ ; CPythonGuild::GetGuildInfoRef

; 438  : 	return Py_BuildValue("i", rGuildInfo.dwGuildMoney);

  0000b	ff 70 28	 push	 DWORD PTR [eax+40]
  0000e	68 00 00 00 00	 push	 OFFSET ??_C@_01KBJDNOO@i@
  00013	ff 15 00 00 00
	00		 call	 DWORD PTR __imp__Py_BuildValue
  00019	83 c4 08	 add	 esp, 8

; 439  : }

  0001c	c3		 ret	 0
?guildGetGuildMoney@@YAPAU_object@@PAU1@0@Z ENDP	; guildGetGuildMoney
_TEXT	ENDS
; Function compile flags: /Ogtp
; File D:\Metin2 Server Files\mainline\SRC_2014\Metin2Client\UserInterface\PythonGuild.cpp
; File C:\Program Files (x86)\Microsoft Visual Studio\2019\Community\VC\Tools\MSVC\14.28.29333\include\xstring
; File D:\Metin2 Server Files\mainline\SRC_2014\Metin2Client\UserInterface\PythonGuild.cpp
; File C:\Program Files (x86)\Microsoft Visual Studio\2019\Community\VC\Tools\MSVC\14.28.29333\include\xstring
; File D:\Metin2 Server Files\mainline\SRC_2014\Metin2Client\UserInterface\PythonGuild.cpp
; File C:\Program Files (x86)\Microsoft Visual Studio\2019\Community\VC\Tools\MSVC\14.28.29333\include\xstring
; File C:\Program Files (x86)\Microsoft Visual Studio\2019\Community\VC\Tools\MSVC\14.28.29333\include\xmemory
; File D:\Metin2 Server Files\mainline\SRC_2014\Metin2Client\UserInterface\PythonGuild.cpp
;	COMDAT ?guildGetEnemyGuildName@@YAPAU_object@@PAU1@0@Z
_TEXT	SEGMENT
_iIndex$ = -44						; size = 4
_strEnemyGuildName$ = -40				; size = 24
__$ArrayPad$ = -16					; size = 4
__$EHRec$ = -12						; size = 12
_poSelf$ = 8						; size = 4
_poArgs$ = 12						; size = 4
?guildGetEnemyGuildName@@YAPAU_object@@PAU1@0@Z PROC	; guildGetEnemyGuildName, COMDAT

; 421  : {

  00000	55		 push	 ebp
  00001	8b ec		 mov	 ebp, esp
  00003	6a ff		 push	 -1
  00005	68 00 00 00 00	 push	 __ehhandler$?guildGetEnemyGuildName@@YAPAU_object@@PAU1@0@Z
  0000a	64 a1 00 00 00
	00		 mov	 eax, DWORD PTR fs:0
  00010	50		 push	 eax
  00011	83 ec 20	 sub	 esp, 32			; 00000020H
  00014	a1 00 00 00 00	 mov	 eax, DWORD PTR ___security_cookie
  00019	33 c5		 xor	 eax, ebp
  0001b	89 45 f0	 mov	 DWORD PTR __$ArrayPad$[ebp], eax
  0001e	56		 push	 esi
  0001f	50		 push	 eax
  00020	8d 45 f4	 lea	 eax, DWORD PTR __$EHRec$[ebp]
  00023	64 a3 00 00 00
	00		 mov	 DWORD PTR fs:0, eax
  00029	8b 45 0c	 mov	 eax, DWORD PTR _poArgs$[ebp]

; 422  : 	int iIndex;
; 423  : 	if (!PyTuple_GetInteger(poArgs, 0, &iIndex))

  0002c	8d 4d d4	 lea	 ecx, DWORD PTR _iIndex$[ebp]
  0002f	51		 push	 ecx
  00030	6a 00		 push	 0
  00032	50		 push	 eax
  00033	e8 00 00 00 00	 call	 ?PyTuple_GetInteger@@YA_NPAU_object@@HPAH@Z ; PyTuple_GetInteger
  00038	83 c4 0c	 add	 esp, 12			; 0000000cH
  0003b	84 c0		 test	 al, al
  0003d	75 15		 jne	 SHORT $LN2@guildGetEn

; 424  : 		return Py_BuildValue("s", "");

  0003f	68 00 00 00 00	 push	 OFFSET ??_C@_00CNPNBAHC@@
  00044	68 00 00 00 00	 push	 OFFSET ??_C@_01LKDEMHDF@s@
  00049	ff 15 00 00 00
	00		 call	 DWORD PTR __imp__Py_BuildValue
  0004f	83 c4 08	 add	 esp, 8
  00052	eb 75		 jmp	 SHORT $LN1@guildGetEn
$LN2@guildGetEn:

; 425  : 
; 426  : 	DWORD dwEnemyGuildID = CPythonGuild::Instance().GetEnemyGuildID(iIndex);

  00054	ff 75 d4	 push	 DWORD PTR _iIndex$[ebp]
  00057	8b 0d 00 00 00
	00		 mov	 ecx, DWORD PTR ?ms_singleton@?$CSingleton@VCPythonGuild@@@@0PAVCPythonGuild@@A ; CSingleton<CPythonGuild>::ms_singleton
  0005d	e8 00 00 00 00	 call	 ?GetEnemyGuildID@CPythonGuild@@QAEKK@Z ; CPythonGuild::GetEnemyGuildID
; File C:\Program Files (x86)\Microsoft Visual Studio\2019\Community\VC\Tools\MSVC\14.28.29333\include\xstring

; 4377 :         _Mypair._Myval2._Mysize = 0;

  00062	c7 45 e8 00 00
	00 00		 mov	 DWORD PTR _strEnemyGuildName$[ebp+16], 0

; 4378 :         _Mypair._Myval2._Myres  = _BUF_SIZE - 1;

  00069	c7 45 ec 0f 00
	00 00		 mov	 DWORD PTR _strEnemyGuildName$[ebp+20], 15 ; 0000000fH

; 4379 :         // the _Traits::assign is last so the codegen doesn't think the char write can alias this
; 4380 :         _Traits::assign(_Mypair._Myval2._Bx._Buf[0], _Elem());

  00070	c6 45 d8 00	 mov	 BYTE PTR _strEnemyGuildName$[ebp], 0
; File D:\Metin2 Server Files\mainline\SRC_2014\Metin2Client\UserInterface\PythonGuild.cpp

; 429  : 	if (!CPythonGuild::Instance().GetGuildName(dwEnemyGuildID, &strEnemyGuildName))

  00074	8d 4d d8	 lea	 ecx, DWORD PTR _strEnemyGuildName$[ebp]
  00077	c7 45 fc 00 00
	00 00		 mov	 DWORD PTR __$EHRec$[ebp+8], 0
  0007e	51		 push	 ecx
  0007f	8b 0d 00 00 00
	00		 mov	 ecx, DWORD PTR ?ms_singleton@?$CSingleton@VCPythonGuild@@@@0PAVCPythonGuild@@A ; CSingleton<CPythonGuild>::ms_singleton
  00085	50		 push	 eax
  00086	e8 00 00 00 00	 call	 ?GetGuildName@CPythonGuild@@QAE_NKPAV?$basic_string@DU?$char_traits@D@std@@V?$allocator@D@2@@std@@@Z ; CPythonGuild::GetGuildName
  0008b	84 c0		 test	 al, al
  0008d	75 07		 jne	 SHORT $LN3@guildGetEn

; 430  : 		return Py_BuildValue("s", "");

  0008f	68 00 00 00 00	 push	 OFFSET ??_C@_00CNPNBAHC@@
  00094	eb 0c		 jmp	 SHORT $LN46@guildGetEn
$LN3@guildGetEn:
; File C:\Program Files (x86)\Microsoft Visual Studio\2019\Community\VC\Tools\MSVC\14.28.29333\include\xstring

; 2227 :         return _BUF_SIZE <= _Myres;

  00096	83 7d ec 10	 cmp	 DWORD PTR _strEnemyGuildName$[ebp+20], 16 ; 00000010H

; 2218 :         const value_type* _Result = _Bx._Buf;

  0009a	8d 45 d8	 lea	 eax, DWORD PTR _strEnemyGuildName$[ebp]

; 2219 :         if (_Large_string_engaged()) {

  0009d	0f 43 45 d8	 cmovae	 eax, DWORD PTR _strEnemyGuildName$[ebp]
; File D:\Metin2 Server Files\mainline\SRC_2014\Metin2Client\UserInterface\PythonGuild.cpp

; 432  : 	return Py_BuildValue("s", strEnemyGuildName.c_str());

  000a1	50		 push	 eax
$LN46@guildGetEn:
; File C:\Program Files (x86)\Microsoft Visual Studio\2019\Community\VC\Tools\MSVC\14.28.29333\include\xstring

; 2227 :         return _BUF_SIZE <= _Myres;

  000a2	68 00 00 00 00	 push	 OFFSET ??_C@_01LKDEMHDF@s@
  000a7	ff 15 00 00 00
	00		 call	 DWORD PTR __imp__Py_BuildValue
  000ad	8b f0		 mov	 esi, eax
  000af	83 c4 08	 add	 esp, 8
  000b2	8b 45 ec	 mov	 eax, DWORD PTR _strEnemyGuildName$[ebp+20]
  000b5	83 f8 10	 cmp	 eax, 16			; 00000010H

; 4385 :         if (_Mypair._Myval2._Large_string_engaged()) {

  000b8	72 0d		 jb	 SHORT $LN39@guildGetEn

; 4386 :             const pointer _Ptr = _Mypair._Myval2._Bx._Ptr;
; 4387 :             auto& _Al          = _Getal();
; 4388 :             _Destroy_in_place(_Mypair._Myval2._Bx._Ptr);
; 4389 :             _Al.deallocate(_Ptr, _Mypair._Myval2._Myres + 1);

  000ba	40		 inc	 eax
; File C:\Program Files (x86)\Microsoft Visual Studio\2019\Community\VC\Tools\MSVC\14.28.29333\include\xmemory

; 810  :         _Deallocate<_New_alignof<_Ty>>(_Ptr, sizeof(_Ty) * _Count);

  000bb	50		 push	 eax
  000bc	ff 75 d8	 push	 DWORD PTR _strEnemyGuildName$[ebp]
  000bf	e8 00 00 00 00	 call	 ??$_Deallocate@$07$0A@@std@@YAXPAXI@Z ; std::_Deallocate<8,0>
  000c4	83 c4 08	 add	 esp, 8
$LN39@guildGetEn:
; File D:\Metin2 Server Files\mainline\SRC_2014\Metin2Client\UserInterface\PythonGuild.cpp

; 432  : 	return Py_BuildValue("s", strEnemyGuildName.c_str());

  000c7	8b c6		 mov	 eax, esi
$LN1@guildGetEn:

; 433  : }

  000c9	8b 4d f4	 mov	 ecx, DWORD PTR __$EHRec$[ebp]
  000cc	64 89 0d 00 00
	00 00		 mov	 DWORD PTR fs:0, ecx
  000d3	59		 pop	 ecx
  000d4	5e		 pop	 esi
  000d5	8b 4d f0	 mov	 ecx, DWORD PTR __$ArrayPad$[ebp]
  000d8	33 cd		 xor	 ecx, ebp
  000da	e8 00 00 00 00	 call	 @__security_check_cookie@4
  000df	8b e5		 mov	 esp, ebp
  000e1	5d		 pop	 ebp
  000e2	c3		 ret	 0
_TEXT	ENDS
;	COMDAT text$x
text$x	SEGMENT
__unwindfunclet$?guildGetEnemyGuildName@@YAPAU_object@@PAU1@0@Z$0:
  00000	8d 4d d8	 lea	 ecx, DWORD PTR _strEnemyGuildName$[ebp]
  00003	e9 00 00 00 00	 jmp	 ??1?$basic_string@DU?$char_traits@D@std@@V?$allocator@D@2@@std@@QAE@XZ ; std::basic_string<char,std::char_traits<char>,std::allocator<char> >::~basic_string<char,std::char_traits<char>,std::allocator<char> >
  00008	cc		 int	 3
  00009	cc		 int	 3
  0000a	cc		 int	 3
  0000b	cc		 int	 3
  0000c	cc		 int	 3
__ehhandler$?guildGetEnemyGuildName@@YAPAU_object@@PAU1@0@Z:
  0000d	90		 npad	 1
  0000e	90		 npad	 1
  0000f	8b 54 24 08	 mov	 edx, DWORD PTR [esp+8]
  00013	8d 42 0c	 lea	 eax, DWORD PTR [edx+12]
  00016	8b 4a d8	 mov	 ecx, DWORD PTR [edx-40]
  00019	33 c8		 xor	 ecx, eax
  0001b	e8 00 00 00 00	 call	 @__security_check_cookie@4
  00020	8b 4a fc	 mov	 ecx, DWORD PTR [edx-4]
  00023	33 c8		 xor	 ecx, eax
  00025	e8 00 00 00 00	 call	 @__security_check_cookie@4
  0002a	b8 00 00 00 00	 mov	 eax, OFFSET __ehfuncinfo$?guildGetEnemyGuildName@@YAPAU_object@@PAU1@0@Z
  0002f	e9 00 00 00 00	 jmp	 ___CxxFrameHandler3
text$x	ENDS
?guildGetEnemyGuildName@@YAPAU_object@@PAU1@0@Z ENDP	; guildGetEnemyGuildName
; Function compile flags: /Ogtp
; File D:\Metin2 Server Files\mainline\SRC_2014\Metin2Client\UserInterface\PythonGuild.cpp
; File C:\Program Files (x86)\Microsoft Visual Studio\2019\Community\VC\Tools\MSVC\14.28.29333\include\xstring
; File D:\Metin2 Server Files\mainline\SRC_2014\Metin2Client\UserInterface\PythonGuild.cpp
;	COMDAT ?guildGetGuildMasterName@@YAPAU_object@@PAU1@0@Z
_TEXT	SEGMENT
_pData$ = -4						; size = 4
_poSelf$ = 8						; size = 4
_poArgs$ = 12						; size = 4
?guildGetGuildMasterName@@YAPAU_object@@PAU1@0@Z PROC	; guildGetGuildMasterName, COMDAT

; 410  : {

  00000	55		 push	 ebp
  00001	8b ec		 mov	 ebp, esp
  00003	51		 push	 ecx

; 411  : 	CPythonGuild::TGuildInfo & rGuildInfo = CPythonGuild::Instance().GetGuildInfoRef();

  00004	8b 0d 00 00 00
	00		 mov	 ecx, DWORD PTR ?ms_singleton@?$CSingleton@VCPythonGuild@@@@0PAVCPythonGuild@@A ; CSingleton<CPythonGuild>::ms_singleton
  0000a	e8 00 00 00 00	 call	 ?GetGuildInfoRef@CPythonGuild@@QAEAAUSGulidInfo@1@XZ ; CPythonGuild::GetGuildInfoRef

; 412  : 
; 413  : 	CPythonGuild::TGuildMemberData * pData;
; 414  : 	if (!CPythonGuild::Instance().GetMemberDataPtrByPID(rGuildInfo.dwMasterPID, &pData))

  0000f	8d 4d fc	 lea	 ecx, DWORD PTR _pData$[ebp]
  00012	51		 push	 ecx
  00013	8b 0d 00 00 00
	00		 mov	 ecx, DWORD PTR ?ms_singleton@?$CSingleton@VCPythonGuild@@@@0PAVCPythonGuild@@A ; CSingleton<CPythonGuild>::ms_singleton
  00019	ff 70 14	 push	 DWORD PTR [eax+20]
  0001c	e8 00 00 00 00	 call	 ?GetMemberDataPtrByPID@CPythonGuild@@QAEHKPAPAUSGuildMemberData@1@@Z ; CPythonGuild::GetMemberDataPtrByPID
  00021	85 c0		 test	 eax, eax
  00023	75 17		 jne	 SHORT $LN2@guildGetGu

; 415  : 		return Py_BuildValue("s", "Noname");

  00025	68 00 00 00 00	 push	 OFFSET ??_C@_06HCBIANPB@Noname@

; 418  : }

  0002a	68 00 00 00 00	 push	 OFFSET ??_C@_01LKDEMHDF@s@
  0002f	ff 15 00 00 00
	00		 call	 DWORD PTR __imp__Py_BuildValue
  00035	83 c4 08	 add	 esp, 8
  00038	8b e5		 mov	 esp, ebp
  0003a	5d		 pop	 ebp
  0003b	c3		 ret	 0
$LN2@guildGetGu:
; File C:\Program Files (x86)\Microsoft Visual Studio\2019\Community\VC\Tools\MSVC\14.28.29333\include\xstring

; 3752 :         return _Mypair._Myval2._Myptr();

  0003c	8b 45 fc	 mov	 eax, DWORD PTR _pData$[ebp]
  0003f	83 c0 04	 add	 eax, 4

; 2227 :         return _BUF_SIZE <= _Myres;

  00042	83 78 14 10	 cmp	 DWORD PTR [eax+20], 16	; 00000010H

; 2219 :         if (_Large_string_engaged()) {

  00046	72 02		 jb	 SHORT $LN7@guildGetGu

; 2220 :             _Result = _Unfancy(_Bx._Ptr);

  00048	8b 00		 mov	 eax, DWORD PTR [eax]
$LN7@guildGetGu:
; File D:\Metin2 Server Files\mainline\SRC_2014\Metin2Client\UserInterface\PythonGuild.cpp

; 417  : 	return Py_BuildValue("s", pData->strName.c_str());

  0004a	50		 push	 eax

; 418  : }

  0004b	68 00 00 00 00	 push	 OFFSET ??_C@_01LKDEMHDF@s@
  00050	ff 15 00 00 00
	00		 call	 DWORD PTR __imp__Py_BuildValue
  00056	83 c4 08	 add	 esp, 8
  00059	8b e5		 mov	 esp, ebp
  0005b	5d		 pop	 ebp
  0005c	c3		 ret	 0
?guildGetGuildMasterName@@YAPAU_object@@PAU1@0@Z ENDP	; guildGetGuildMasterName
_TEXT	ENDS
; Function compile flags: /Ogtp
; File D:\Metin2 Server Files\mainline\SRC_2014\Metin2Client\UserInterface\PythonGuild.cpp
; File C:\Program Files (x86)\Microsoft Visual Studio\2019\Community\VC\Tools\MSVC\14.28.29333\include\xstring
; File D:\Metin2 Server Files\mainline\SRC_2014\Metin2Client\UserInterface\PythonGuild.cpp
; File C:\Program Files (x86)\Microsoft Visual Studio\2019\Community\VC\Tools\MSVC\14.28.29333\include\xstring
; File D:\Metin2 Server Files\mainline\SRC_2014\Metin2Client\UserInterface\PythonGuild.cpp
; File C:\Program Files (x86)\Microsoft Visual Studio\2019\Community\VC\Tools\MSVC\14.28.29333\include\xstring
; File C:\Program Files (x86)\Microsoft Visual Studio\2019\Community\VC\Tools\MSVC\14.28.29333\include\xmemory
; File D:\Metin2 Server Files\mainline\SRC_2014\Metin2Client\UserInterface\PythonGuild.cpp
;	COMDAT ?guildGetGuildName@@YAPAU_object@@PAU1@0@Z
_TEXT	SEGMENT
_iGuildID$ = -44					; size = 4
_strGuildName$ = -40					; size = 24
__$ArrayPad$ = -16					; size = 4
__$EHRec$ = -12						; size = 12
_poSelf$ = 8						; size = 4
_poArgs$ = 12						; size = 4
?guildGetGuildName@@YAPAU_object@@PAU1@0@Z PROC		; guildGetGuildName, COMDAT

; 394  : {

  00000	55		 push	 ebp
  00001	8b ec		 mov	 ebp, esp
  00003	6a ff		 push	 -1
  00005	68 00 00 00 00	 push	 __ehhandler$?guildGetGuildName@@YAPAU_object@@PAU1@0@Z
  0000a	64 a1 00 00 00
	00		 mov	 eax, DWORD PTR fs:0
  00010	50		 push	 eax
  00011	83 ec 20	 sub	 esp, 32			; 00000020H
  00014	a1 00 00 00 00	 mov	 eax, DWORD PTR ___security_cookie
  00019	33 c5		 xor	 eax, ebp
  0001b	89 45 f0	 mov	 DWORD PTR __$ArrayPad$[ebp], eax
  0001e	56		 push	 esi
  0001f	50		 push	 eax
  00020	8d 45 f4	 lea	 eax, DWORD PTR __$EHRec$[ebp]
  00023	64 a3 00 00 00
	00		 mov	 DWORD PTR fs:0, eax
  00029	8b 45 0c	 mov	 eax, DWORD PTR _poArgs$[ebp]

; 395  : 	int iGuildID;
; 396  : 	if (!PyTuple_GetInteger(poArgs, 0, &iGuildID))

  0002c	8d 4d d4	 lea	 ecx, DWORD PTR _iGuildID$[ebp]
  0002f	51		 push	 ecx
  00030	6a 00		 push	 0
  00032	50		 push	 eax
  00033	e8 00 00 00 00	 call	 ?PyTuple_GetInteger@@YA_NPAU_object@@HPAH@Z ; PyTuple_GetInteger
  00038	83 c4 0c	 add	 esp, 12			; 0000000cH
  0003b	84 c0		 test	 al, al
  0003d	75 1f		 jne	 SHORT $LN2@guildGetGu

; 397  : 	{
; 398  : 		CPythonGuild::TGuildInfo & rGuildInfo = CPythonGuild::Instance().GetGuildInfoRef();

  0003f	8b 0d 00 00 00
	00		 mov	 ecx, DWORD PTR ?ms_singleton@?$CSingleton@VCPythonGuild@@@@0PAVCPythonGuild@@A ; CSingleton<CPythonGuild>::ms_singleton
  00045	e8 00 00 00 00	 call	 ?GetGuildInfoRef@CPythonGuild@@QAEAAUSGulidInfo@1@XZ ; CPythonGuild::GetGuildInfoRef

; 399  : 		return Py_BuildValue("s", rGuildInfo.szGuildName);

  0004a	83 c0 04	 add	 eax, 4
  0004d	50		 push	 eax
  0004e	68 00 00 00 00	 push	 OFFSET ??_C@_01LKDEMHDF@s@
  00053	ff 15 00 00 00
	00		 call	 DWORD PTR __imp__Py_BuildValue
  00059	83 c4 08	 add	 esp, 8
  0005c	eb 69		 jmp	 SHORT $LN1@guildGetGu
$LN2@guildGetGu:
; File C:\Program Files (x86)\Microsoft Visual Studio\2019\Community\VC\Tools\MSVC\14.28.29333\include\xstring

; 4377 :         _Mypair._Myval2._Mysize = 0;

  0005e	c7 45 e8 00 00
	00 00		 mov	 DWORD PTR _strGuildName$[ebp+16], 0

; 4378 :         _Mypair._Myval2._Myres  = _BUF_SIZE - 1;

  00065	c7 45 ec 0f 00
	00 00		 mov	 DWORD PTR _strGuildName$[ebp+20], 15 ; 0000000fH

; 4379 :         // the _Traits::assign is last so the codegen doesn't think the char write can alias this
; 4380 :         _Traits::assign(_Mypair._Myval2._Bx._Buf[0], _Elem());

  0006c	c6 45 d8 00	 mov	 BYTE PTR _strGuildName$[ebp], 0
; File D:\Metin2 Server Files\mainline\SRC_2014\Metin2Client\UserInterface\PythonGuild.cpp

; 403  : 	if (!CPythonGuild::Instance().GetGuildName(iGuildID, &strGuildName))

  00070	8b 0d 00 00 00
	00		 mov	 ecx, DWORD PTR ?ms_singleton@?$CSingleton@VCPythonGuild@@@@0PAVCPythonGuild@@A ; CSingleton<CPythonGuild>::ms_singleton
  00076	8d 45 d8	 lea	 eax, DWORD PTR _strGuildName$[ebp]
  00079	50		 push	 eax
  0007a	ff 75 d4	 push	 DWORD PTR _iGuildID$[ebp]
  0007d	c7 45 fc 00 00
	00 00		 mov	 DWORD PTR __$EHRec$[ebp+8], 0
  00084	e8 00 00 00 00	 call	 ?GetGuildName@CPythonGuild@@QAE_NKPAV?$basic_string@DU?$char_traits@D@std@@V?$allocator@D@2@@std@@@Z ; CPythonGuild::GetGuildName
  00089	84 c0		 test	 al, al
  0008b	75 07		 jne	 SHORT $LN3@guildGetGu

; 404  : 		return Py_BuildValue("s", "Noname");

  0008d	68 00 00 00 00	 push	 OFFSET ??_C@_06HCBIANPB@Noname@
  00092	eb 0c		 jmp	 SHORT $LN46@guildGetGu
$LN3@guildGetGu:
; File C:\Program Files (x86)\Microsoft Visual Studio\2019\Community\VC\Tools\MSVC\14.28.29333\include\xstring

; 2227 :         return _BUF_SIZE <= _Myres;

  00094	83 7d ec 10	 cmp	 DWORD PTR _strGuildName$[ebp+20], 16 ; 00000010H

; 2218 :         const value_type* _Result = _Bx._Buf;

  00098	8d 45 d8	 lea	 eax, DWORD PTR _strGuildName$[ebp]

; 2219 :         if (_Large_string_engaged()) {

  0009b	0f 43 45 d8	 cmovae	 eax, DWORD PTR _strGuildName$[ebp]
; File D:\Metin2 Server Files\mainline\SRC_2014\Metin2Client\UserInterface\PythonGuild.cpp

; 406  : 	return Py_BuildValue("s", strGuildName.c_str());

  0009f	50		 push	 eax
$LN46@guildGetGu:
; File C:\Program Files (x86)\Microsoft Visual Studio\2019\Community\VC\Tools\MSVC\14.28.29333\include\xstring

; 2227 :         return _BUF_SIZE <= _Myres;

  000a0	68 00 00 00 00	 push	 OFFSET ??_C@_01LKDEMHDF@s@
  000a5	ff 15 00 00 00
	00		 call	 DWORD PTR __imp__Py_BuildValue
  000ab	8b f0		 mov	 esi, eax
  000ad	83 c4 08	 add	 esp, 8
  000b0	8b 45 ec	 mov	 eax, DWORD PTR _strGuildName$[ebp+20]
  000b3	83 f8 10	 cmp	 eax, 16			; 00000010H

; 4385 :         if (_Mypair._Myval2._Large_string_engaged()) {

  000b6	72 0d		 jb	 SHORT $LN39@guildGetGu

; 4386 :             const pointer _Ptr = _Mypair._Myval2._Bx._Ptr;
; 4387 :             auto& _Al          = _Getal();
; 4388 :             _Destroy_in_place(_Mypair._Myval2._Bx._Ptr);
; 4389 :             _Al.deallocate(_Ptr, _Mypair._Myval2._Myres + 1);

  000b8	40		 inc	 eax
; File C:\Program Files (x86)\Microsoft Visual Studio\2019\Community\VC\Tools\MSVC\14.28.29333\include\xmemory

; 810  :         _Deallocate<_New_alignof<_Ty>>(_Ptr, sizeof(_Ty) * _Count);

  000b9	50		 push	 eax
  000ba	ff 75 d8	 push	 DWORD PTR _strGuildName$[ebp]
  000bd	e8 00 00 00 00	 call	 ??$_Deallocate@$07$0A@@std@@YAXPAXI@Z ; std::_Deallocate<8,0>
  000c2	83 c4 08	 add	 esp, 8
$LN39@guildGetGu:
; File D:\Metin2 Server Files\mainline\SRC_2014\Metin2Client\UserInterface\PythonGuild.cpp

; 406  : 	return Py_BuildValue("s", strGuildName.c_str());

  000c5	8b c6		 mov	 eax, esi
$LN1@guildGetGu:

; 407  : }

  000c7	8b 4d f4	 mov	 ecx, DWORD PTR __$EHRec$[ebp]
  000ca	64 89 0d 00 00
	00 00		 mov	 DWORD PTR fs:0, ecx
  000d1	59		 pop	 ecx
  000d2	5e		 pop	 esi
  000d3	8b 4d f0	 mov	 ecx, DWORD PTR __$ArrayPad$[ebp]
  000d6	33 cd		 xor	 ecx, ebp
  000d8	e8 00 00 00 00	 call	 @__security_check_cookie@4
  000dd	8b e5		 mov	 esp, ebp
  000df	5d		 pop	 ebp
  000e0	c3		 ret	 0
_TEXT	ENDS
;	COMDAT text$x
text$x	SEGMENT
__unwindfunclet$?guildGetGuildName@@YAPAU_object@@PAU1@0@Z$0:
  00000	8d 4d d8	 lea	 ecx, DWORD PTR _strGuildName$[ebp]
  00003	e9 00 00 00 00	 jmp	 ??1?$basic_string@DU?$char_traits@D@std@@V?$allocator@D@2@@std@@QAE@XZ ; std::basic_string<char,std::char_traits<char>,std::allocator<char> >::~basic_string<char,std::char_traits<char>,std::allocator<char> >
  00008	cc		 int	 3
  00009	cc		 int	 3
  0000a	cc		 int	 3
  0000b	cc		 int	 3
  0000c	cc		 int	 3
__ehhandler$?guildGetGuildName@@YAPAU_object@@PAU1@0@Z:
  0000d	90		 npad	 1
  0000e	90		 npad	 1
  0000f	8b 54 24 08	 mov	 edx, DWORD PTR [esp+8]
  00013	8d 42 0c	 lea	 eax, DWORD PTR [edx+12]
  00016	8b 4a d8	 mov	 ecx, DWORD PTR [edx-40]
  00019	33 c8		 xor	 ecx, eax
  0001b	e8 00 00 00 00	 call	 @__security_check_cookie@4
  00020	8b 4a fc	 mov	 ecx, DWORD PTR [edx-4]
  00023	33 c8		 xor	 ecx, eax
  00025	e8 00 00 00 00	 call	 @__security_check_cookie@4
  0002a	b8 00 00 00 00	 mov	 eax, OFFSET __ehfuncinfo$?guildGetGuildName@@YAPAU_object@@PAU1@0@Z
  0002f	e9 00 00 00 00	 jmp	 ___CxxFrameHandler3
text$x	ENDS
?guildGetGuildName@@YAPAU_object@@PAU1@0@Z ENDP		; guildGetGuildName
; Function compile flags: /Ogtp
; File D:\Metin2 Server Files\mainline\SRC_2014\Metin2Client\UserInterface\PythonGuild.cpp
;	COMDAT ?guildHasGuildLand@@YAPAU_object@@PAU1@0@Z
_TEXT	SEGMENT
_poSelf$ = 8						; size = 4
_poArgs$ = 12						; size = 4
?guildHasGuildLand@@YAPAU_object@@PAU1@0@Z PROC		; guildHasGuildLand, COMDAT

; 390  : 	return Py_BuildValue("i", CPythonGuild::Instance().HasGuildLand());

  00000	8b 0d 00 00 00
	00		 mov	 ecx, DWORD PTR ?ms_singleton@?$CSingleton@VCPythonGuild@@@@0PAVCPythonGuild@@A ; CSingleton<CPythonGuild>::ms_singleton
  00006	e8 00 00 00 00	 call	 ?HasGuildLand@CPythonGuild@@QAEHXZ ; CPythonGuild::HasGuildLand
  0000b	50		 push	 eax
  0000c	68 00 00 00 00	 push	 OFFSET ??_C@_01KBJDNOO@i@
  00011	ff 15 00 00 00
	00		 call	 DWORD PTR __imp__Py_BuildValue
  00017	83 c4 08	 add	 esp, 8

; 391  : }

  0001a	c3		 ret	 0
?guildHasGuildLand@@YAPAU_object@@PAU1@0@Z ENDP		; guildHasGuildLand
_TEXT	ENDS
; Function compile flags: /Ogtp
; File D:\Metin2 Server Files\mainline\SRC_2014\Metin2Client\UserInterface\PythonGuild.cpp
;	COMDAT ?guildGetGuildID@@YAPAU_object@@PAU1@0@Z
_TEXT	SEGMENT
_poSelf$ = 8						; size = 4
_poArgs$ = 12						; size = 4
?guildGetGuildID@@YAPAU_object@@PAU1@0@Z PROC		; guildGetGuildID, COMDAT

; 385  : 	return Py_BuildValue("i", CPythonGuild::Instance().GetGuildID());

  00000	8b 0d 00 00 00
	00		 mov	 ecx, DWORD PTR ?ms_singleton@?$CSingleton@VCPythonGuild@@@@0PAVCPythonGuild@@A ; CSingleton<CPythonGuild>::ms_singleton
  00006	e8 00 00 00 00	 call	 ?GetGuildID@CPythonGuild@@QAEKXZ ; CPythonGuild::GetGuildID
  0000b	50		 push	 eax
  0000c	68 00 00 00 00	 push	 OFFSET ??_C@_01KBJDNOO@i@
  00011	ff 15 00 00 00
	00		 call	 DWORD PTR __imp__Py_BuildValue
  00017	83 c4 08	 add	 esp, 8

; 386  : }

  0001a	c3		 ret	 0
?guildGetGuildID@@YAPAU_object@@PAU1@0@Z ENDP		; guildGetGuildID
_TEXT	ENDS
; Function compile flags: /Ogtp
; File D:\Metin2 Server Files\mainline\SRC_2014\Metin2Client\UserInterface\PythonGuild.cpp
;	COMDAT ?guildIsGuildEnable@@YAPAU_object@@PAU1@0@Z
_TEXT	SEGMENT
_poSelf$ = 8						; size = 4
_poArgs$ = 12						; size = 4
?guildIsGuildEnable@@YAPAU_object@@PAU1@0@Z PROC	; guildIsGuildEnable, COMDAT

; 380  : 	return Py_BuildValue("i", CPythonGuild::Instance().IsGuildEnable());

  00000	8b 0d 00 00 00
	00		 mov	 ecx, DWORD PTR ?ms_singleton@?$CSingleton@VCPythonGuild@@@@0PAVCPythonGuild@@A ; CSingleton<CPythonGuild>::ms_singleton
  00006	e8 00 00 00 00	 call	 ?IsGuildEnable@CPythonGuild@@QAEHXZ ; CPythonGuild::IsGuildEnable
  0000b	50		 push	 eax
  0000c	68 00 00 00 00	 push	 OFFSET ??_C@_01KBJDNOO@i@
  00011	ff 15 00 00 00
	00		 call	 DWORD PTR __imp__Py_BuildValue
  00017	83 c4 08	 add	 esp, 8

; 381  : }

  0001a	c3		 ret	 0
?guildIsGuildEnable@@YAPAU_object@@PAU1@0@Z ENDP	; guildIsGuildEnable
_TEXT	ENDS
; Function compile flags: /Ogtp
; File C:\Program Files (x86)\Microsoft Visual Studio\2019\Community\VC\Tools\MSVC\14.28.29333\include\xstring
; File C:\Program Files (x86)\Microsoft Visual Studio\2019\Community\VC\Tools\MSVC\14.28.29333\include\xmemory
; File C:\Program Files (x86)\Microsoft Visual Studio\2019\Community\VC\Tools\MSVC\14.28.29333\include\xstring
;	COMDAT ??1?$pair@KV?$basic_string@DU?$char_traits@D@std@@V?$allocator@D@2@@std@@@std@@QAE@XZ
_TEXT	SEGMENT
??1?$pair@KV?$basic_string@DU?$char_traits@D@std@@V?$allocator@D@2@@std@@@std@@QAE@XZ PROC ; std::pair<unsigned long,std::basic_string<char,std::char_traits<char>,std::allocator<char> > >::~pair<unsigned long,std::basic_string<char,std::char_traits<char>,std::allocator<char> > >, COMDAT
; _this$ = ecx

; 2227 :         return _BUF_SIZE <= _Myres;

  00000	56		 push	 esi
  00001	8b f1		 mov	 esi, ecx
  00003	8b 46 18	 mov	 eax, DWORD PTR [esi+24]
  00006	83 f8 10	 cmp	 eax, 16			; 00000010H

; 4385 :         if (_Mypair._Myval2._Large_string_engaged()) {

  00009	72 0d		 jb	 SHORT $LN7@pair

; 4386 :             const pointer _Ptr = _Mypair._Myval2._Bx._Ptr;
; 4387 :             auto& _Al          = _Getal();
; 4388 :             _Destroy_in_place(_Mypair._Myval2._Bx._Ptr);
; 4389 :             _Al.deallocate(_Ptr, _Mypair._Myval2._Myres + 1);

  0000b	40		 inc	 eax
; File C:\Program Files (x86)\Microsoft Visual Studio\2019\Community\VC\Tools\MSVC\14.28.29333\include\xmemory

; 810  :         _Deallocate<_New_alignof<_Ty>>(_Ptr, sizeof(_Ty) * _Count);

  0000c	50		 push	 eax
  0000d	ff 76 04	 push	 DWORD PTR [esi+4]
  00010	e8 00 00 00 00	 call	 ??$_Deallocate@$07$0A@@std@@YAXPAXI@Z ; std::_Deallocate<8,0>
  00015	83 c4 08	 add	 esp, 8
$LN7@pair:
; File C:\Program Files (x86)\Microsoft Visual Studio\2019\Community\VC\Tools\MSVC\14.28.29333\include\xstring

; 4392 :         _Mypair._Myval2._Mysize = 0;

  00018	c7 46 14 00 00
	00 00		 mov	 DWORD PTR [esi+20], 0

; 4393 :         _Mypair._Myval2._Myres  = _BUF_SIZE - 1;

  0001f	c7 46 18 0f 00
	00 00		 mov	 DWORD PTR [esi+24], 15	; 0000000fH

; 4394 :         // the _Traits::assign is last so the codegen doesn't think the char write can alias this
; 4395 :         _Traits::assign(_Mypair._Myval2._Bx._Buf[0], _Elem());

  00026	c6 46 04 00	 mov	 BYTE PTR [esi+4], 0
  0002a	5e		 pop	 esi
  0002b	c3		 ret	 0
??1?$pair@KV?$basic_string@DU?$char_traits@D@std@@V?$allocator@D@2@@std@@@std@@QAE@XZ ENDP ; std::pair<unsigned long,std::basic_string<char,std::char_traits<char>,std::allocator<char> > >::~pair<unsigned long,std::basic_string<char,std::char_traits<char>,std::allocator<char> > >
_TEXT	ENDS
; Function compile flags: /Ogtp
;	COMDAT ??__Fg_GuildSkillSlotToIndexMap@@YAXXZ
text$yd	SEGMENT
??__Fg_GuildSkillSlotToIndexMap@@YAXXZ PROC		; `dynamic atexit destructor for 'g_GuildSkillSlotToIndexMap'', COMDAT
  00000	b9 00 00 00 00	 mov	 ecx, OFFSET ?g_GuildSkillSlotToIndexMap@@3V?$map@KKU?$less@K@std@@V?$allocator@U?$pair@$$CBKK@std@@@2@@std@@A ; g_GuildSkillSlotToIndexMap
  00005	e9 00 00 00 00	 jmp	 ??1?$_Tree@V?$_Tmap_traits@KKU?$less@K@std@@V?$allocator@U?$pair@$$CBKK@std@@@2@$0A@@std@@@std@@QAE@XZ ; std::_Tree<std::_Tmap_traits<unsigned long,unsigned long,std::less<unsigned long>,std::allocator<std::pair<unsigned long const ,unsigned long> >,0> >::~_Tree<std::_Tmap_traits<unsigned long,unsigned long,std::less<unsigned long>,std::allocator<std::pair<unsigned long const ,unsigned long> >,0> >
??__Fg_GuildSkillSlotToIndexMap@@YAXXZ ENDP		; `dynamic atexit destructor for 'g_GuildSkillSlotToIndexMap''
text$yd	ENDS
; Function compile flags: /Ogtp
; File D:\Metin2 Server Files\mainline\SRC_2014\Metin2Client\UserInterface\PythonGuild.cpp
; File C:\Program Files (x86)\Microsoft Visual Studio\2019\Community\VC\Tools\MSVC\14.28.29333\include\xmemory
; File C:\Program Files (x86)\Microsoft Visual Studio\2019\Community\VC\Tools\MSVC\14.28.29333\include\xtree
; File D:\Metin2 Server Files\mainline\SRC_2014\Metin2Client\UserInterface\PythonGuild.cpp
; File C:\Program Files (x86)\Microsoft Visual Studio\2019\Community\VC\Tools\MSVC\14.28.29333\include\xtree
; File D:\Metin2 Server Files\mainline\SRC_2014\Metin2Client\UserInterface\PythonGuild.cpp
;	COMDAT ??__Eg_GuildSkillSlotToIndexMap@@YAXXZ
text$di	SEGMENT
__Pnode$1 = -4						; size = 4
??__Eg_GuildSkillSlotToIndexMap@@YAXXZ PROC		; `dynamic initializer for 'g_GuildSkillSlotToIndexMap'', COMDAT

; 6    : std::map<DWORD, DWORD> g_GuildSkillSlotToIndexMap;

  00000	55		 push	 ebp
  00001	8b ec		 mov	 ebp, esp
  00003	51		 push	 ecx
; File C:\Program Files (x86)\Microsoft Visual Studio\2019\Community\VC\Tools\MSVC\14.28.29333\include\xmemory

; 814  :         return static_cast<_Ty*>(_Allocate<_New_alignof<_Ty>>(_Get_size_of_n<sizeof(_Ty)>(_Count)));

  00004	6a 18		 push	 24			; 00000018H
  00006	e8 00 00 00 00	 call	 ??$_Allocate@$07U_Default_allocate_traits@std@@$0A@@std@@YAPAXI@Z ; std::_Allocate<8,std::_Default_allocate_traits,0>
; File C:\Program Files (x86)\Microsoft Visual Studio\2019\Community\VC\Tools\MSVC\14.28.29333\include\xtree

; 344  :         _Construct_in_place(_Pnode->_Left, _Pnode);

  0000b	8d 4d fc	 lea	 ecx, DWORD PTR __Pnode$1[ebp]
  0000e	89 45 fc	 mov	 DWORD PTR __Pnode$1[ebp], eax
  00011	51		 push	 ecx
  00012	50		 push	 eax
  00013	e8 00 00 00 00	 call	 ??$_Construct_in_place@PAU?$_Tree_node@U?$pair@$$CBKK@std@@PAX@std@@ABQAU12@@std@@YAXAAPAU?$_Tree_node@U?$pair@$$CBKK@std@@PAX@0@ABQAU10@@Z ; std::_Construct_in_place<std::_Tree_node<std::pair<unsigned long const ,unsigned long>,void *> *,std::_Tree_node<std::pair<unsigned long const ,unsigned long>,void *> * const &>

; 345  :         _Construct_in_place(_Pnode->_Parent, _Pnode);

  00018	8d 45 fc	 lea	 eax, DWORD PTR __Pnode$1[ebp]
  0001b	50		 push	 eax
  0001c	8b 45 fc	 mov	 eax, DWORD PTR __Pnode$1[ebp]
  0001f	83 c0 04	 add	 eax, 4
  00022	50		 push	 eax
  00023	e8 00 00 00 00	 call	 ??$_Construct_in_place@PAU?$_Tree_node@U?$pair@$$CBKK@std@@PAX@std@@ABQAU12@@std@@YAXAAPAU?$_Tree_node@U?$pair@$$CBKK@std@@PAX@0@ABQAU10@@Z ; std::_Construct_in_place<std::_Tree_node<std::pair<unsigned long const ,unsigned long>,void *> *,std::_Tree_node<std::pair<unsigned long const ,unsigned long>,void *> * const &>

; 346  :         _Construct_in_place(_Pnode->_Right, _Pnode);

  00028	8d 45 fc	 lea	 eax, DWORD PTR __Pnode$1[ebp]
  0002b	50		 push	 eax
  0002c	8b 45 fc	 mov	 eax, DWORD PTR __Pnode$1[ebp]
  0002f	83 c0 08	 add	 eax, 8
  00032	50		 push	 eax
  00033	e8 00 00 00 00	 call	 ??$_Construct_in_place@PAU?$_Tree_node@U?$pair@$$CBKK@std@@PAX@std@@ABQAU12@@std@@YAXAAPAU?$_Tree_node@U?$pair@$$CBKK@std@@PAX@0@ABQAU10@@Z ; std::_Construct_in_place<std::_Tree_node<std::pair<unsigned long const ,unsigned long>,void *> *,std::_Tree_node<std::pair<unsigned long const ,unsigned long>,void *> * const &>

; 347  :         _Pnode->_Color = _Black;

  00038	8b 45 fc	 mov	 eax, DWORD PTR __Pnode$1[ebp]
; File D:\Metin2 Server Files\mainline\SRC_2014\Metin2Client\UserInterface\PythonGuild.cpp

; 6    : std::map<DWORD, DWORD> g_GuildSkillSlotToIndexMap;

  0003b	68 00 00 00 00	 push	 OFFSET ??__Fg_GuildSkillSlotToIndexMap@@YAXXZ ; `dynamic atexit destructor for 'g_GuildSkillSlotToIndexMap''
; File C:\Program Files (x86)\Microsoft Visual Studio\2019\Community\VC\Tools\MSVC\14.28.29333\include\xtree

; 347  :         _Pnode->_Color = _Black;

  00040	c6 40 0c 01	 mov	 BYTE PTR [eax+12], 1

; 348  :         _Pnode->_Isnil = true;

  00044	8b 45 fc	 mov	 eax, DWORD PTR __Pnode$1[ebp]
  00047	c6 40 0d 01	 mov	 BYTE PTR [eax+13], 1

; 2021 :         _Scary->_Myhead = _Node::_Buyheadnode(_Getal());

  0004b	8b 45 fc	 mov	 eax, DWORD PTR __Pnode$1[ebp]
  0004e	a3 00 00 00 00	 mov	 DWORD PTR ?g_GuildSkillSlotToIndexMap@@3V?$map@KKU?$less@K@std@@V?$allocator@U?$pair@$$CBKK@std@@@2@@std@@A, eax
; File D:\Metin2 Server Files\mainline\SRC_2014\Metin2Client\UserInterface\PythonGuild.cpp

; 6    : std::map<DWORD, DWORD> g_GuildSkillSlotToIndexMap;

  00053	e8 00 00 00 00	 call	 _atexit
  00058	83 c4 20	 add	 esp, 32			; 00000020H
  0005b	8b e5		 mov	 esp, ebp
  0005d	5d		 pop	 ebp
  0005e	c3		 ret	 0
??__Eg_GuildSkillSlotToIndexMap@@YAXXZ ENDP		; `dynamic initializer for 'g_GuildSkillSlotToIndexMap''
text$di	ENDS
; Function compile flags: /Ogtp
;	COMDAT ??_GCPythonGuild@@UAEPAXI@Z
_TEXT	SEGMENT
___flags$ = 8						; size = 4
??_GCPythonGuild@@UAEPAXI@Z PROC			; CPythonGuild::`scalar deleting destructor', COMDAT
; _this$ = ecx
  00000	55		 push	 ebp
  00001	8b ec		 mov	 ebp, esp
  00003	56		 push	 esi
  00004	8b f1		 mov	 esi, ecx
  00006	e8 00 00 00 00	 call	 ??1CPythonGuild@@UAE@XZ	; CPythonGuild::~CPythonGuild
  0000b	f6 45 08 01	 test	 BYTE PTR ___flags$[ebp], 1
  0000f	74 0e		 je	 SHORT $LN4@scalar
  00011	68 98 00 00 00	 push	 152			; 00000098H
  00016	56		 push	 esi
  00017	e8 00 00 00 00	 call	 ??3@YAXPAXI@Z		; operator delete
  0001c	83 c4 08	 add	 esp, 8
$LN4@scalar:
  0001f	8b c6		 mov	 eax, esi
  00021	5e		 pop	 esi
  00022	5d		 pop	 ebp
  00023	c2 04 00	 ret	 4
??_GCPythonGuild@@UAEPAXI@Z ENDP			; CPythonGuild::`scalar deleting destructor'
_TEXT	ENDS
; Function compile flags: /Ogtp
; File C:\Program Files (x86)\Microsoft Visual Studio\2019\Community\VC\Tools\MSVC\14.28.29333\include\vector
;	COMDAT ?_Xlength@?$vector@USGuildBoardCommentData@CPythonGuild@@V?$allocator@USGuildBoardCommentData@CPythonGuild@@@std@@@std@@CAXXZ
_TEXT	SEGMENT
?_Xlength@?$vector@USGuildBoardCommentData@CPythonGuild@@V?$allocator@USGuildBoardCommentData@CPythonGuild@@@std@@@std@@CAXXZ PROC ; std::vector<CPythonGuild::SGuildBoardCommentData,std::allocator<CPythonGuild::SGuildBoardCommentData> >::_Xlength, COMDAT

; 1705 :         _Xlength_error("vector too long");

  00000	68 00 00 00 00	 push	 OFFSET ??_C@_0BA@FOIKENOD@vector?5too?5long@
  00005	e8 00 00 00 00	 call	 ?_Xlength_error@std@@YAXPBD@Z ; std::_Xlength_error
$LN3@Xlength:
  0000a	cc		 int	 3
?_Xlength@?$vector@USGuildBoardCommentData@CPythonGuild@@V?$allocator@USGuildBoardCommentData@CPythonGuild@@@std@@@std@@CAXXZ ENDP ; std::vector<CPythonGuild::SGuildBoardCommentData,std::allocator<CPythonGuild::SGuildBoardCommentData> >::_Xlength
_TEXT	ENDS
; Function compile flags: /Ogtp
; File C:\Program Files (x86)\Microsoft Visual Studio\2019\Community\VC\Tools\MSVC\14.28.29333\include\vector
;	COMDAT ?_Destroy@?$vector@USGuildBoardCommentData@CPythonGuild@@V?$allocator@USGuildBoardCommentData@CPythonGuild@@@std@@@std@@AAEXPAUSGuildBoardCommentData@CPythonGuild@@0@Z
_TEXT	SEGMENT
__First$ = 8						; size = 4
__Last$ = 12						; size = 4
?_Destroy@?$vector@USGuildBoardCommentData@CPythonGuild@@V?$allocator@USGuildBoardCommentData@CPythonGuild@@@std@@@std@@AAEXPAUSGuildBoardCommentData@CPythonGuild@@0@Z PROC ; std::vector<CPythonGuild::SGuildBoardCommentData,std::allocator<CPythonGuild::SGuildBoardCommentData> >::_Destroy, COMDAT
; _this$ = ecx

; 1611 :     void _Destroy(pointer _First, pointer _Last) { // destroy [_First, _Last) using allocator

  00000	55		 push	 ebp
  00001	8b ec		 mov	 ebp, esp

; 1612 :         _Destroy_range(_First, _Last, _Getal());

  00003	51		 push	 ecx
  00004	ff 75 0c	 push	 DWORD PTR __Last$[ebp]
  00007	ff 75 08	 push	 DWORD PTR __First$[ebp]
  0000a	e8 00 00 00 00	 call	 ??$_Destroy_range@V?$allocator@USGuildBoardCommentData@CPythonGuild@@@std@@@std@@YAXPAUSGuildBoardCommentData@CPythonGuild@@QAU12@AAV?$allocator@USGuildBoardCommentData@CPythonGuild@@@0@@Z ; std::_Destroy_range<std::allocator<CPythonGuild::SGuildBoardCommentData> >
  0000f	83 c4 0c	 add	 esp, 12			; 0000000cH

; 1613 :     }

  00012	5d		 pop	 ebp
  00013	c2 08 00	 ret	 8
?_Destroy@?$vector@USGuildBoardCommentData@CPythonGuild@@V?$allocator@USGuildBoardCommentData@CPythonGuild@@@std@@@std@@AAEXPAUSGuildBoardCommentData@CPythonGuild@@0@Z ENDP ; std::vector<CPythonGuild::SGuildBoardCommentData,std::allocator<CPythonGuild::SGuildBoardCommentData> >::_Destroy
_TEXT	ENDS
; Function compile flags: /Ogtp
; File C:\Program Files (x86)\Microsoft Visual Studio\2019\Community\VC\Tools\MSVC\14.28.29333\include\vector
; File C:\Program Files (x86)\Microsoft Visual Studio\2019\Community\VC\Tools\MSVC\14.28.29333\include\xmemory
; File C:\Program Files (x86)\Microsoft Visual Studio\2019\Community\VC\Tools\MSVC\14.28.29333\include\vector
; File C:\Program Files (x86)\Microsoft Visual Studio\2019\Community\VC\Tools\MSVC\14.28.29333\include\xmemory
; File C:\Program Files (x86)\Microsoft Visual Studio\2019\Community\VC\Tools\MSVC\14.28.29333\include\vector
;	COMDAT ??1?$vector@USGuildBoardCommentData@CPythonGuild@@V?$allocator@USGuildBoardCommentData@CPythonGuild@@@std@@@std@@QAE@XZ
_TEXT	SEGMENT
??1?$vector@USGuildBoardCommentData@CPythonGuild@@V?$allocator@USGuildBoardCommentData@CPythonGuild@@@std@@@std@@QAE@XZ PROC ; std::vector<CPythonGuild::SGuildBoardCommentData,std::allocator<CPythonGuild::SGuildBoardCommentData> >::~vector<CPythonGuild::SGuildBoardCommentData,std::allocator<CPythonGuild::SGuildBoardCommentData> >, COMDAT
; _this$ = ecx

; 672  :     ~vector() noexcept {

  00000	57		 push	 edi
  00001	8b f9		 mov	 edi, ecx

; 1694 :         if (_Myfirst) { // destroy and deallocate old array

  00003	8b 07		 mov	 eax, DWORD PTR [edi]
  00005	85 c0		 test	 eax, eax
  00007	74 42		 je	 SHORT $LN4@vector

; 1612 :         _Destroy_range(_First, _Last, _Getal());

  00009	57		 push	 edi
  0000a	ff 77 04	 push	 DWORD PTR [edi+4]
  0000d	50		 push	 eax
  0000e	e8 00 00 00 00	 call	 ??$_Destroy_range@V?$allocator@USGuildBoardCommentData@CPythonGuild@@@std@@@std@@YAXPAUSGuildBoardCommentData@CPythonGuild@@QAU12@AAV?$allocator@USGuildBoardCommentData@CPythonGuild@@@0@@Z ; std::_Destroy_range<std::allocator<CPythonGuild::SGuildBoardCommentData> >

; 1696 :             _Getal().deallocate(_Myfirst, static_cast<size_type>(_Myend - _Myfirst));

  00013	8b 4f 08	 mov	 ecx, DWORD PTR [edi+8]
  00016	b8 4f ec c4 4e	 mov	 eax, 1321528399		; 4ec4ec4fH
  0001b	2b 0f		 sub	 ecx, DWORD PTR [edi]
  0001d	f7 e9		 imul	 ecx
  0001f	c1 fa 04	 sar	 edx, 4
  00022	8b c2		 mov	 eax, edx
  00024	c1 e8 1f	 shr	 eax, 31			; 0000001fH
  00027	03 c2		 add	 eax, edx
; File C:\Program Files (x86)\Microsoft Visual Studio\2019\Community\VC\Tools\MSVC\14.28.29333\include\xmemory

; 810  :         _Deallocate<_New_alignof<_Ty>>(_Ptr, sizeof(_Ty) * _Count);

  00029	6b c0 34	 imul	 eax, eax, 52
  0002c	50		 push	 eax
  0002d	ff 37		 push	 DWORD PTR [edi]
  0002f	e8 00 00 00 00	 call	 ??$_Deallocate@$07$0A@@std@@YAXPAXI@Z ; std::_Deallocate<8,0>
; File C:\Program Files (x86)\Microsoft Visual Studio\2019\Community\VC\Tools\MSVC\14.28.29333\include\vector

; 1698 :             _Myfirst = pointer();

  00034	c7 07 00 00 00
	00		 mov	 DWORD PTR [edi], 0
; File C:\Program Files (x86)\Microsoft Visual Studio\2019\Community\VC\Tools\MSVC\14.28.29333\include\xmemory

; 810  :         _Deallocate<_New_alignof<_Ty>>(_Ptr, sizeof(_Ty) * _Count);

  0003a	83 c4 14	 add	 esp, 20			; 00000014H
; File C:\Program Files (x86)\Microsoft Visual Studio\2019\Community\VC\Tools\MSVC\14.28.29333\include\vector

; 1699 :             _Mylast  = pointer();

  0003d	c7 47 04 00 00
	00 00		 mov	 DWORD PTR [edi+4], 0

; 1700 :             _Myend   = pointer();

  00044	c7 47 08 00 00
	00 00		 mov	 DWORD PTR [edi+8], 0
$LN4@vector:
  0004b	5f		 pop	 edi

; 673  :         _Tidy();
; 674  : #if _ITERATOR_DEBUG_LEVEL != 0
; 675  :         auto&& _Alproxy = _GET_PROXY_ALLOCATOR(_Alty, _Getal());
; 676  :         _Delete_plain_internal(_Alproxy, _STD exchange(_Mypair._Myval2._Myproxy, nullptr));
; 677  : #endif // _ITERATOR_DEBUG_LEVEL != 0
; 678  :     }

  0004c	c3		 ret	 0
??1?$vector@USGuildBoardCommentData@CPythonGuild@@V?$allocator@USGuildBoardCommentData@CPythonGuild@@@std@@@std@@QAE@XZ ENDP ; std::vector<CPythonGuild::SGuildBoardCommentData,std::allocator<CPythonGuild::SGuildBoardCommentData> >::~vector<CPythonGuild::SGuildBoardCommentData,std::allocator<CPythonGuild::SGuildBoardCommentData> >
_TEXT	ENDS
; Function compile flags: /Ogtp
; File C:\Program Files (x86)\Microsoft Visual Studio\2019\Community\VC\Tools\MSVC\14.28.29333\include\xmemory
;	COMDAT ?deallocate@?$allocator@USGuildBoardCommentData@CPythonGuild@@@std@@QAEXQAUSGuildBoardCommentData@CPythonGuild@@I@Z
_TEXT	SEGMENT
__Ptr$ = 8						; size = 4
__Count$ = 12						; size = 4
?deallocate@?$allocator@USGuildBoardCommentData@CPythonGuild@@@std@@QAEXQAUSGuildBoardCommentData@CPythonGuild@@I@Z PROC ; std::allocator<CPythonGuild::SGuildBoardCommentData>::deallocate, COMDAT
; _this$ = ecx

; 808  :     void deallocate(_Ty* const _Ptr, const size_t _Count) {

  00000	55		 push	 ebp
  00001	8b ec		 mov	 ebp, esp

; 809  :         // no overflow check on the following multiply; we assume _Allocate did that check
; 810  :         _Deallocate<_New_alignof<_Ty>>(_Ptr, sizeof(_Ty) * _Count);

  00003	6b 45 0c 34	 imul	 eax, DWORD PTR __Count$[ebp], 52
  00007	50		 push	 eax
  00008	ff 75 08	 push	 DWORD PTR __Ptr$[ebp]
  0000b	e8 00 00 00 00	 call	 ??$_Deallocate@$07$0A@@std@@YAXPAXI@Z ; std::_Deallocate<8,0>
  00010	83 c4 08	 add	 esp, 8

; 811  :     }

  00013	5d		 pop	 ebp
  00014	c2 08 00	 ret	 8
?deallocate@?$allocator@USGuildBoardCommentData@CPythonGuild@@@std@@QAEXQAUSGuildBoardCommentData@CPythonGuild@@I@Z ENDP ; std::allocator<CPythonGuild::SGuildBoardCommentData>::deallocate
_TEXT	ENDS
; Function compile flags: /Ogtp
; File C:\Program Files (x86)\Microsoft Visual Studio\2019\Community\VC\Tools\MSVC\14.28.29333\include\vector
;	COMDAT ?_Xlength@?$vector@USGuildMemberData@CPythonGuild@@V?$allocator@USGuildMemberData@CPythonGuild@@@std@@@std@@CAXXZ
_TEXT	SEGMENT
?_Xlength@?$vector@USGuildMemberData@CPythonGuild@@V?$allocator@USGuildMemberData@CPythonGuild@@@std@@@std@@CAXXZ PROC ; std::vector<CPythonGuild::SGuildMemberData,std::allocator<CPythonGuild::SGuildMemberData> >::_Xlength, COMDAT

; 1705 :         _Xlength_error("vector too long");

  00000	68 00 00 00 00	 push	 OFFSET ??_C@_0BA@FOIKENOD@vector?5too?5long@
  00005	e8 00 00 00 00	 call	 ?_Xlength_error@std@@YAXPBD@Z ; std::_Xlength_error
$LN3@Xlength:
  0000a	cc		 int	 3
?_Xlength@?$vector@USGuildMemberData@CPythonGuild@@V?$allocator@USGuildMemberData@CPythonGuild@@@std@@@std@@CAXXZ ENDP ; std::vector<CPythonGuild::SGuildMemberData,std::allocator<CPythonGuild::SGuildMemberData> >::_Xlength
_TEXT	ENDS
; Function compile flags: /Ogtp
; File C:\Program Files (x86)\Microsoft Visual Studio\2019\Community\VC\Tools\MSVC\14.28.29333\include\vector
;	COMDAT ?_Destroy@?$vector@USGuildMemberData@CPythonGuild@@V?$allocator@USGuildMemberData@CPythonGuild@@@std@@@std@@AAEXPAUSGuildMemberData@CPythonGuild@@0@Z
_TEXT	SEGMENT
__First$ = 8						; size = 4
__Last$ = 12						; size = 4
?_Destroy@?$vector@USGuildMemberData@CPythonGuild@@V?$allocator@USGuildMemberData@CPythonGuild@@@std@@@std@@AAEXPAUSGuildMemberData@CPythonGuild@@0@Z PROC ; std::vector<CPythonGuild::SGuildMemberData,std::allocator<CPythonGuild::SGuildMemberData> >::_Destroy, COMDAT
; _this$ = ecx

; 1611 :     void _Destroy(pointer _First, pointer _Last) { // destroy [_First, _Last) using allocator

  00000	55		 push	 ebp
  00001	8b ec		 mov	 ebp, esp

; 1612 :         _Destroy_range(_First, _Last, _Getal());

  00003	51		 push	 ecx
  00004	ff 75 0c	 push	 DWORD PTR __Last$[ebp]
  00007	ff 75 08	 push	 DWORD PTR __First$[ebp]
  0000a	e8 00 00 00 00	 call	 ??$_Destroy_range@V?$allocator@USGuildMemberData@CPythonGuild@@@std@@@std@@YAXPAUSGuildMemberData@CPythonGuild@@QAU12@AAV?$allocator@USGuildMemberData@CPythonGuild@@@0@@Z ; std::_Destroy_range<std::allocator<CPythonGuild::SGuildMemberData> >
  0000f	83 c4 0c	 add	 esp, 12			; 0000000cH

; 1613 :     }

  00012	5d		 pop	 ebp
  00013	c2 08 00	 ret	 8
?_Destroy@?$vector@USGuildMemberData@CPythonGuild@@V?$allocator@USGuildMemberData@CPythonGuild@@@std@@@std@@AAEXPAUSGuildMemberData@CPythonGuild@@0@Z ENDP ; std::vector<CPythonGuild::SGuildMemberData,std::allocator<CPythonGuild::SGuildMemberData> >::_Destroy
_TEXT	ENDS
; Function compile flags: /Ogtp
; File C:\Program Files (x86)\Microsoft Visual Studio\2019\Community\VC\Tools\MSVC\14.28.29333\include\vector
; File C:\Program Files (x86)\Microsoft Visual Studio\2019\Community\VC\Tools\MSVC\14.28.29333\include\xmemory
; File C:\Program Files (x86)\Microsoft Visual Studio\2019\Community\VC\Tools\MSVC\14.28.29333\include\vector
; File C:\Program Files (x86)\Microsoft Visual Studio\2019\Community\VC\Tools\MSVC\14.28.29333\include\xmemory
; File C:\Program Files (x86)\Microsoft Visual Studio\2019\Community\VC\Tools\MSVC\14.28.29333\include\vector
;	COMDAT ??1?$vector@USGuildMemberData@CPythonGuild@@V?$allocator@USGuildMemberData@CPythonGuild@@@std@@@std@@QAE@XZ
_TEXT	SEGMENT
??1?$vector@USGuildMemberData@CPythonGuild@@V?$allocator@USGuildMemberData@CPythonGuild@@@std@@@std@@QAE@XZ PROC ; std::vector<CPythonGuild::SGuildMemberData,std::allocator<CPythonGuild::SGuildMemberData> >::~vector<CPythonGuild::SGuildMemberData,std::allocator<CPythonGuild::SGuildMemberData> >, COMDAT
; _this$ = ecx

; 672  :     ~vector() noexcept {

  00000	57		 push	 edi
  00001	8b f9		 mov	 edi, ecx

; 1694 :         if (_Myfirst) { // destroy and deallocate old array

  00003	8b 07		 mov	 eax, DWORD PTR [edi]
  00005	85 c0		 test	 eax, eax
  00007	74 45		 je	 SHORT $LN4@vector

; 1612 :         _Destroy_range(_First, _Last, _Getal());

  00009	57		 push	 edi
  0000a	ff 77 04	 push	 DWORD PTR [edi+4]
  0000d	50		 push	 eax
  0000e	e8 00 00 00 00	 call	 ??$_Destroy_range@V?$allocator@USGuildMemberData@CPythonGuild@@@std@@@std@@YAXPAUSGuildMemberData@CPythonGuild@@QAU12@AAV?$allocator@USGuildMemberData@CPythonGuild@@@0@@Z ; std::_Destroy_range<std::allocator<CPythonGuild::SGuildMemberData> >

; 1696 :             _Getal().deallocate(_Myfirst, static_cast<size_type>(_Myend - _Myfirst));

  00013	8b 4f 08	 mov	 ecx, DWORD PTR [edi+8]
  00016	b8 39 8e e3 38	 mov	 eax, 954437177		; 38e38e39H
  0001b	2b 0f		 sub	 ecx, DWORD PTR [edi]
  0001d	f7 e9		 imul	 ecx
  0001f	c1 fa 03	 sar	 edx, 3
  00022	8b c2		 mov	 eax, edx
  00024	c1 e8 1f	 shr	 eax, 31			; 0000001fH
  00027	03 c2		 add	 eax, edx
; File C:\Program Files (x86)\Microsoft Visual Studio\2019\Community\VC\Tools\MSVC\14.28.29333\include\xmemory

; 810  :         _Deallocate<_New_alignof<_Ty>>(_Ptr, sizeof(_Ty) * _Count);

  00029	8d 04 c0	 lea	 eax, DWORD PTR [eax+eax*8]
  0002c	c1 e0 02	 shl	 eax, 2
  0002f	50		 push	 eax
  00030	ff 37		 push	 DWORD PTR [edi]
  00032	e8 00 00 00 00	 call	 ??$_Deallocate@$07$0A@@std@@YAXPAXI@Z ; std::_Deallocate<8,0>
; File C:\Program Files (x86)\Microsoft Visual Studio\2019\Community\VC\Tools\MSVC\14.28.29333\include\vector

; 1698 :             _Myfirst = pointer();

  00037	c7 07 00 00 00
	00		 mov	 DWORD PTR [edi], 0
; File C:\Program Files (x86)\Microsoft Visual Studio\2019\Community\VC\Tools\MSVC\14.28.29333\include\xmemory

; 810  :         _Deallocate<_New_alignof<_Ty>>(_Ptr, sizeof(_Ty) * _Count);

  0003d	83 c4 14	 add	 esp, 20			; 00000014H
; File C:\Program Files (x86)\Microsoft Visual Studio\2019\Community\VC\Tools\MSVC\14.28.29333\include\vector

; 1699 :             _Mylast  = pointer();

  00040	c7 47 04 00 00
	00 00		 mov	 DWORD PTR [edi+4], 0

; 1700 :             _Myend   = pointer();

  00047	c7 47 08 00 00
	00 00		 mov	 DWORD PTR [edi+8], 0
$LN4@vector:
  0004e	5f		 pop	 edi

; 673  :         _Tidy();
; 674  : #if _ITERATOR_DEBUG_LEVEL != 0
; 675  :         auto&& _Alproxy = _GET_PROXY_ALLOCATOR(_Alty, _Getal());
; 676  :         _Delete_plain_internal(_Alproxy, _STD exchange(_Mypair._Myval2._Myproxy, nullptr));
; 677  : #endif // _ITERATOR_DEBUG_LEVEL != 0
; 678  :     }

  0004f	c3		 ret	 0
??1?$vector@USGuildMemberData@CPythonGuild@@V?$allocator@USGuildMemberData@CPythonGuild@@@std@@@std@@QAE@XZ ENDP ; std::vector<CPythonGuild::SGuildMemberData,std::allocator<CPythonGuild::SGuildMemberData> >::~vector<CPythonGuild::SGuildMemberData,std::allocator<CPythonGuild::SGuildMemberData> >
_TEXT	ENDS
; Function compile flags: /Ogtp
; File C:\Program Files (x86)\Microsoft Visual Studio\2019\Community\VC\Tools\MSVC\14.28.29333\include\xmemory
;	COMDAT ?deallocate@?$allocator@USGuildMemberData@CPythonGuild@@@std@@QAEXQAUSGuildMemberData@CPythonGuild@@I@Z
_TEXT	SEGMENT
__Ptr$ = 8						; size = 4
__Count$ = 12						; size = 4
?deallocate@?$allocator@USGuildMemberData@CPythonGuild@@@std@@QAEXQAUSGuildMemberData@CPythonGuild@@I@Z PROC ; std::allocator<CPythonGuild::SGuildMemberData>::deallocate, COMDAT
; _this$ = ecx

; 808  :     void deallocate(_Ty* const _Ptr, const size_t _Count) {

  00000	55		 push	 ebp
  00001	8b ec		 mov	 ebp, esp

; 809  :         // no overflow check on the following multiply; we assume _Allocate did that check
; 810  :         _Deallocate<_New_alignof<_Ty>>(_Ptr, sizeof(_Ty) * _Count);

  00003	8b 45 0c	 mov	 eax, DWORD PTR __Count$[ebp]
  00006	8d 04 c0	 lea	 eax, DWORD PTR [eax+eax*8]
  00009	c1 e0 02	 shl	 eax, 2
  0000c	50		 push	 eax
  0000d	ff 75 08	 push	 DWORD PTR __Ptr$[ebp]
  00010	e8 00 00 00 00	 call	 ??$_Deallocate@$07$0A@@std@@YAXPAXI@Z ; std::_Deallocate<8,0>
  00015	83 c4 08	 add	 esp, 8

; 811  :     }

  00018	5d		 pop	 ebp
  00019	c2 08 00	 ret	 8
?deallocate@?$allocator@USGuildMemberData@CPythonGuild@@@std@@QAEXQAUSGuildMemberData@CPythonGuild@@I@Z ENDP ; std::allocator<CPythonGuild::SGuildMemberData>::deallocate
_TEXT	ENDS
; Function compile flags: /Ogtp
; File C:\Program Files (x86)\Microsoft Visual Studio\2019\Community\VC\Tools\MSVC\14.28.29333\include\xtree
; File C:\Program Files (x86)\Microsoft Visual Studio\2019\Community\VC\Tools\MSVC\14.28.29333\include\xmemory
;	COMDAT ??1?$map@EUSGuildGradeData@CPythonGuild@@U?$less@E@std@@V?$allocator@U?$pair@$$CBEUSGuildGradeData@CPythonGuild@@@std@@@4@@std@@QAE@XZ
_TEXT	SEGMENT
??1?$map@EUSGuildGradeData@CPythonGuild@@U?$less@E@std@@V?$allocator@U?$pair@$$CBEUSGuildGradeData@CPythonGuild@@@std@@@4@@std@@QAE@XZ PROC ; std::map<unsigned char,CPythonGuild::SGuildGradeData,std::less<unsigned char>,std::allocator<std::pair<unsigned char const ,CPythonGuild::SGuildGradeData> > >::~map<unsigned char,CPythonGuild::SGuildGradeData,std::less<unsigned char>,std::allocator<std::pair<unsigned char const ,CPythonGuild::SGuildGradeData> > >, COMDAT
; _this$ = ecx
; File C:\Program Files (x86)\Microsoft Visual Studio\2019\Community\VC\Tools\MSVC\14.28.29333\include\xtree

; 752  :         _Erase_tree(_Al, _Myhead->_Parent);

  00000	56		 push	 esi
  00001	8b f1		 mov	 esi, ecx
  00003	8b 06		 mov	 eax, DWORD PTR [esi]
  00005	ff 70 04	 push	 DWORD PTR [eax+4]
  00008	56		 push	 esi
  00009	e8 00 00 00 00	 call	 ??$_Erase_tree@V?$allocator@U?$_Tree_node@U?$pair@$$CBEUSGuildGradeData@CPythonGuild@@@std@@PAX@std@@@std@@@?$_Tree_val@U?$_Tree_simple_types@U?$pair@$$CBEUSGuildGradeData@CPythonGuild@@@std@@@std@@@std@@QAEXAAV?$allocator@U?$_Tree_node@U?$pair@$$CBEUSGuildGradeData@CPythonGuild@@@std@@PAX@std@@@1@PAU?$_Tree_node@U?$pair@$$CBEUSGuildGradeData@CPythonGuild@@@std@@PAX@1@@Z ; std::_Tree_val<std::_Tree_simple_types<std::pair<unsigned char const ,CPythonGuild::SGuildGradeData> > >::_Erase_tree<std::allocator<std::_Tree_node<std::pair<unsigned char const ,CPythonGuild::SGuildGradeData>,void *> > >
; File C:\Program Files (x86)\Microsoft Visual Studio\2019\Community\VC\Tools\MSVC\14.28.29333\include\xmemory

; 696  :         _Deallocate<_New_alignof<value_type>>(_Ptr, sizeof(value_type) * _Count);

  0000e	6a 30		 push	 48			; 00000030H
  00010	ff 36		 push	 DWORD PTR [esi]
  00012	e8 00 00 00 00	 call	 ??$_Deallocate@$07$0A@@std@@YAXPAXI@Z ; std::_Deallocate<8,0>
  00017	83 c4 08	 add	 esp, 8
  0001a	5e		 pop	 esi
  0001b	c3		 ret	 0
??1?$map@EUSGuildGradeData@CPythonGuild@@U?$less@E@std@@V?$allocator@U?$pair@$$CBEUSGuildGradeData@CPythonGuild@@@std@@@4@@std@@QAE@XZ ENDP ; std::map<unsigned char,CPythonGuild::SGuildGradeData,std::less<unsigned char>,std::allocator<std::pair<unsigned char const ,CPythonGuild::SGuildGradeData> > >::~map<unsigned char,CPythonGuild::SGuildGradeData,std::less<unsigned char>,std::allocator<std::pair<unsigned char const ,CPythonGuild::SGuildGradeData> > >
_TEXT	ENDS
; Function compile flags: /Ogtp
; File C:\Program Files (x86)\Microsoft Visual Studio\2019\Community\VC\Tools\MSVC\14.28.29333\include\xtree
;	COMDAT ?_Insert_node@?$_Tree_val@U?$_Tree_simple_types@U?$pair@$$CBEUSGuildGradeData@CPythonGuild@@@std@@@std@@@std@@QAEPAU?$_Tree_node@U?$pair@$$CBEUSGuildGradeData@CPythonGuild@@@std@@PAX@2@U?$_Tree_id@PAU?$_Tree_node@U?$pair@$$CBEUSGuildGradeData@CPythonGuild@@@std@@PAX@std@@@2@QAU32@@Z
_TEXT	SEGMENT
__Head$1$ = -8						; size = 4
_this$1$ = -4						; size = 4
__Loc$ = 8						; size = 8
__Newnode$ = 16						; size = 4
?_Insert_node@?$_Tree_val@U?$_Tree_simple_types@U?$pair@$$CBEUSGuildGradeData@CPythonGuild@@@std@@@std@@@std@@QAEPAU?$_Tree_node@U?$pair@$$CBEUSGuildGradeData@CPythonGuild@@@std@@PAX@2@U?$_Tree_id@PAU?$_Tree_node@U?$pair@$$CBEUSGuildGradeData@CPythonGuild@@@std@@PAX@std@@@2@QAU32@@Z PROC ; std::_Tree_val<std::_Tree_simple_types<std::pair<unsigned char const ,CPythonGuild::SGuildGradeData> > >::_Insert_node, COMDAT
; _this$ = ecx

; 644  :     _Nodeptr _Insert_node(const _Tree_id<_Nodeptr> _Loc, const _Nodeptr _Newnode) noexcept {

  00000	55		 push	 ebp
  00001	8b ec		 mov	 ebp, esp
  00003	83 ec 08	 sub	 esp, 8

; 645  :         ++_Mysize;
; 646  :         const auto _Head  = _Myhead;
; 647  :         _Newnode->_Parent = _Loc._Parent;

  00006	8b 55 08	 mov	 edx, DWORD PTR __Loc$[ebp]
  00009	8b c1		 mov	 eax, ecx
  0000b	89 45 fc	 mov	 DWORD PTR _this$1$[ebp], eax
  0000e	8b 08		 mov	 ecx, DWORD PTR [eax]
  00010	ff 40 04	 inc	 DWORD PTR [eax+4]
  00013	8b 45 10	 mov	 eax, DWORD PTR __Newnode$[ebp]
  00016	89 4d f8	 mov	 DWORD PTR __Head$1$[ebp], ecx
  00019	89 50 04	 mov	 DWORD PTR [eax+4], edx

; 648  :         if (_Loc._Parent == _Head) { // first node in tree, just set head values

  0001c	3b d1		 cmp	 edx, ecx
  0001e	75 12		 jne	 SHORT $LN5@Insert_nod

; 649  :             _Head->_Left     = _Newnode;

  00020	89 01		 mov	 DWORD PTR [ecx], eax

; 650  :             _Head->_Parent   = _Newnode;

  00022	89 41 04	 mov	 DWORD PTR [ecx+4], eax

; 651  :             _Head->_Right    = _Newnode;

  00025	89 41 08	 mov	 DWORD PTR [ecx+8], eax

; 652  :             _Newnode->_Color = _Black; // the root is black

  00028	c6 40 0c 01	 mov	 BYTE PTR [eax+12], 1

; 711  :     }

  0002c	8b e5		 mov	 esp, ebp
  0002e	5d		 pop	 ebp
  0002f	c2 0c 00	 ret	 12			; 0000000cH
$LN5@Insert_nod:

; 653  :             return _Newnode;
; 654  :         }
; 655  : 
; 656  :         _STL_INTERNAL_CHECK(_Loc._Child != _Tree_child::_Unused);
; 657  :         if (_Loc._Child == _Tree_child::_Right) { // add to right of _Loc._Parent

  00032	83 7d 0c 00	 cmp	 DWORD PTR __Loc$[ebp+4], 0
  00036	75 0d		 jne	 SHORT $LN6@Insert_nod

; 658  :             _STL_INTERNAL_CHECK(_Loc._Parent->_Right->_Isnil);
; 659  :             _Loc._Parent->_Right = _Newnode;

  00038	89 42 08	 mov	 DWORD PTR [edx+8], eax

; 660  :             if (_Loc._Parent == _Head->_Right) { // remember rightmost node

  0003b	3b 51 08	 cmp	 edx, DWORD PTR [ecx+8]
  0003e	75 0d		 jne	 SHORT $LN9@Insert_nod

; 661  :                 _Head->_Right = _Newnode;

  00040	89 41 08	 mov	 DWORD PTR [ecx+8], eax

; 662  :             }
; 663  :         } else { // add to left of _Loc._Parent

  00043	eb 08		 jmp	 SHORT $LN9@Insert_nod
$LN6@Insert_nod:

; 664  :             _STL_INTERNAL_CHECK(_Loc._Parent->_Left->_Isnil);
; 665  :             _Loc._Parent->_Left = _Newnode;

  00045	89 02		 mov	 DWORD PTR [edx], eax

; 666  :             if (_Loc._Parent == _Head->_Left) { // remember leftmost node

  00047	3b 11		 cmp	 edx, DWORD PTR [ecx]
  00049	75 02		 jne	 SHORT $LN9@Insert_nod

; 667  :                 _Head->_Left = _Newnode;

  0004b	89 01		 mov	 DWORD PTR [ecx], eax
$LN9@Insert_nod:

; 668  :             }
; 669  :         }
; 670  : 
; 671  :         for (_Nodeptr _Pnode = _Newnode; _Pnode->_Parent->_Color == _Red;) {

  0004d	8b d0		 mov	 edx, eax
  0004f	8b 40 04	 mov	 eax, DWORD PTR [eax+4]
  00052	80 78 0c 00	 cmp	 BYTE PTR [eax+12], 0
  00056	0f 85 99 01 00
	00		 jne	 $LN3@Insert_nod
  0005c	53		 push	 ebx
  0005d	56		 push	 esi
  0005e	57		 push	 edi
  0005f	90		 npad	 1
$LL2@Insert_nod:

; 672  :             if (_Pnode->_Parent == _Pnode->_Parent->_Parent->_Left) { // fixup red-red in left subtree

  00060	8b 4a 04	 mov	 ecx, DWORD PTR [edx+4]
  00063	8d 7a 04	 lea	 edi, DWORD PTR [edx+4]
  00066	8b 71 04	 mov	 esi, DWORD PTR [ecx+4]
  00069	8d 59 04	 lea	 ebx, DWORD PTR [ecx+4]
  0006c	8b 06		 mov	 eax, DWORD PTR [esi]
  0006e	3b c8		 cmp	 ecx, eax
  00070	0f 85 ba 00 00
	00		 jne	 $LN10@Insert_nod

; 673  :                 const auto _Parent_sibling = _Pnode->_Parent->_Parent->_Right;

  00076	8b 46 08	 mov	 eax, DWORD PTR [esi+8]

; 674  :                 if (_Parent_sibling->_Color == _Red) { // parent's sibling has two red children, blacken both

  00079	80 78 0c 00	 cmp	 BYTE PTR [eax+12], 0
  0007d	0f 84 b3 00 00
	00		 je	 $LN53@Insert_nod

; 675  :                     _Pnode->_Parent->_Color          = _Black;
; 676  :                     _Parent_sibling->_Color          = _Black;
; 677  :                     _Pnode->_Parent->_Parent->_Color = _Red;
; 678  :                     _Pnode                           = _Pnode->_Parent->_Parent;
; 679  :                 } else { // parent's sibling has red and black children
; 680  :                     if (_Pnode == _Pnode->_Parent->_Right) { // rotate right child to left

  00083	8b 71 08	 mov	 esi, DWORD PTR [ecx+8]
  00086	3b d6		 cmp	 edx, esi
  00088	75 47		 jne	 SHORT $LN51@Insert_nod

; 460  :         _Wherenode->_Right = _Pnode->_Left;

  0008a	8b 06		 mov	 eax, DWORD PTR [esi]

; 681  :                         _Pnode = _Pnode->_Parent;

  0008c	8b d1		 mov	 edx, ecx

; 460  :         _Wherenode->_Right = _Pnode->_Left;

  0008e	89 42 08	 mov	 DWORD PTR [edx+8], eax

; 461  : 
; 462  :         if (!_Pnode->_Left->_Isnil) {

  00091	8b 06		 mov	 eax, DWORD PTR [esi]
  00093	80 78 0d 00	 cmp	 BYTE PTR [eax+13], 0
  00097	75 03		 jne	 SHORT $LN20@Insert_nod

; 463  :             _Pnode->_Left->_Parent = _Wherenode;

  00099	89 50 04	 mov	 DWORD PTR [eax+4], edx
$LN20@Insert_nod:

; 464  :         }
; 465  : 
; 466  :         _Pnode->_Parent = _Wherenode->_Parent;

  0009c	8b 03		 mov	 eax, DWORD PTR [ebx]
  0009e	89 46 04	 mov	 DWORD PTR [esi+4], eax

; 467  : 
; 468  :         if (_Wherenode == _Myhead->_Parent) {

  000a1	8b 45 fc	 mov	 eax, DWORD PTR _this$1$[ebp]
  000a4	8b 00		 mov	 eax, DWORD PTR [eax]
  000a6	3b 50 04	 cmp	 edx, DWORD PTR [eax+4]
  000a9	75 0b		 jne	 SHORT $LN21@Insert_nod

; 469  :             _Myhead->_Parent = _Pnode;

  000ab	89 70 04	 mov	 DWORD PTR [eax+4], esi

; 477  :         _Wherenode->_Parent = _Pnode;

  000ae	8b fb		 mov	 edi, ebx
  000b0	89 16		 mov	 DWORD PTR [esi], edx
  000b2	89 33		 mov	 DWORD PTR [ebx], esi
  000b4	eb 1d		 jmp	 SHORT $LN49@Insert_nod
$LN21@Insert_nod:

; 470  :         } else if (_Wherenode == _Wherenode->_Parent->_Left) {

  000b6	8b 03		 mov	 eax, DWORD PTR [ebx]
  000b8	3b 10		 cmp	 edx, DWORD PTR [eax]
  000ba	75 0a		 jne	 SHORT $LN23@Insert_nod

; 471  :             _Wherenode->_Parent->_Left = _Pnode;

  000bc	89 30		 mov	 DWORD PTR [eax], esi

; 477  :         _Wherenode->_Parent = _Pnode;

  000be	8b fb		 mov	 edi, ebx
  000c0	89 16		 mov	 DWORD PTR [esi], edx
  000c2	89 33		 mov	 DWORD PTR [ebx], esi
  000c4	eb 0d		 jmp	 SHORT $LN49@Insert_nod
$LN23@Insert_nod:

; 473  :             _Wherenode->_Parent->_Right = _Pnode;

  000c6	89 70 08	 mov	 DWORD PTR [eax+8], esi

; 477  :         _Wherenode->_Parent = _Pnode;

  000c9	8b fb		 mov	 edi, ebx
  000cb	89 16		 mov	 DWORD PTR [esi], edx
  000cd	89 33		 mov	 DWORD PTR [ebx], esi
  000cf	eb 02		 jmp	 SHORT $LN49@Insert_nod
$LN51@Insert_nod:
  000d1	8b f1		 mov	 esi, ecx
$LN49@Insert_nod:

; 682  :                         _Lrotate(_Pnode);
; 683  :                     }
; 684  : 
; 685  :                     _Pnode->_Parent->_Color          = _Black; // propagate red up

  000d3	c6 46 0c 01	 mov	 BYTE PTR [esi+12], 1

; 686  :                     _Pnode->_Parent->_Parent->_Color = _Red;

  000d7	8b 07		 mov	 eax, DWORD PTR [edi]
  000d9	8b 40 04	 mov	 eax, DWORD PTR [eax+4]
  000dc	c6 40 0c 00	 mov	 BYTE PTR [eax+12], 0

; 687  :                     _Rrotate(_Pnode->_Parent->_Parent);

  000e0	8b 07		 mov	 eax, DWORD PTR [edi]
  000e2	8b 48 04	 mov	 ecx, DWORD PTR [eax+4]

; 481  :         _Nodeptr _Pnode   = _Wherenode->_Left;

  000e5	8b 31		 mov	 esi, DWORD PTR [ecx]

; 482  :         _Wherenode->_Left = _Pnode->_Right;

  000e7	8b 46 08	 mov	 eax, DWORD PTR [esi+8]
  000ea	89 01		 mov	 DWORD PTR [ecx], eax

; 483  : 
; 484  :         if (!_Pnode->_Right->_Isnil) {

  000ec	8b 46 08	 mov	 eax, DWORD PTR [esi+8]
  000ef	80 78 0d 00	 cmp	 BYTE PTR [eax+13], 0
  000f3	75 03		 jne	 SHORT $LN27@Insert_nod

; 485  :             _Pnode->_Right->_Parent = _Wherenode;

  000f5	89 48 04	 mov	 DWORD PTR [eax+4], ecx
$LN27@Insert_nod:

; 486  :         }
; 487  : 
; 488  :         _Pnode->_Parent = _Wherenode->_Parent;

  000f8	8b 41 04	 mov	 eax, DWORD PTR [ecx+4]
  000fb	89 46 04	 mov	 DWORD PTR [esi+4], eax

; 489  : 
; 490  :         if (_Wherenode == _Myhead->_Parent) {

  000fe	8b 45 fc	 mov	 eax, DWORD PTR _this$1$[ebp]
  00101	8b 00		 mov	 eax, DWORD PTR [eax]
  00103	3b 48 04	 cmp	 ecx, DWORD PTR [eax+4]
  00106	75 0b		 jne	 SHORT $LN28@Insert_nod

; 491  :             _Myhead->_Parent = _Pnode;

  00108	89 70 04	 mov	 DWORD PTR [eax+4], esi

; 496  :         }
; 497  : 
; 498  :         _Pnode->_Right      = _Wherenode;

  0010b	89 4e 08	 mov	 DWORD PTR [esi+8], ecx

; 688  :                 }
; 689  :             } else { // fixup red-red in right subtree

  0010e	e9 cc 00 00 00	 jmp	 $LN52@Insert_nod
$LN28@Insert_nod:

; 492  :         } else if (_Wherenode == _Wherenode->_Parent->_Right) {

  00113	8b 41 04	 mov	 eax, DWORD PTR [ecx+4]
  00116	3b 48 08	 cmp	 ecx, DWORD PTR [eax+8]
  00119	75 0b		 jne	 SHORT $LN30@Insert_nod

; 493  :             _Wherenode->_Parent->_Right = _Pnode;

  0011b	89 70 08	 mov	 DWORD PTR [eax+8], esi

; 496  :         }
; 497  : 
; 498  :         _Pnode->_Right      = _Wherenode;

  0011e	89 4e 08	 mov	 DWORD PTR [esi+8], ecx

; 688  :                 }
; 689  :             } else { // fixup red-red in right subtree

  00121	e9 b9 00 00 00	 jmp	 $LN52@Insert_nod
$LN30@Insert_nod:

; 495  :             _Wherenode->_Parent->_Left = _Pnode;

  00126	89 30		 mov	 DWORD PTR [eax], esi

; 496  :         }
; 497  : 
; 498  :         _Pnode->_Right      = _Wherenode;

  00128	89 4e 08	 mov	 DWORD PTR [esi+8], ecx

; 688  :                 }
; 689  :             } else { // fixup red-red in right subtree

  0012b	e9 af 00 00 00	 jmp	 $LN52@Insert_nod
$LN10@Insert_nod:

; 690  :                 const auto _Parent_sibling = _Pnode->_Parent->_Parent->_Left;
; 691  :                 if (_Parent_sibling->_Color == _Red) { // parent's sibling has two red children, blacken both

  00130	80 78 0c 00	 cmp	 BYTE PTR [eax+12], 0
  00134	75 1b		 jne	 SHORT $LN15@Insert_nod
$LN53@Insert_nod:

; 668  :             }
; 669  :         }
; 670  : 
; 671  :         for (_Nodeptr _Pnode = _Newnode; _Pnode->_Parent->_Color == _Red;) {

  00136	c6 41 0c 01	 mov	 BYTE PTR [ecx+12], 1
  0013a	c6 40 0c 01	 mov	 BYTE PTR [eax+12], 1
  0013e	8b 07		 mov	 eax, DWORD PTR [edi]
  00140	8b 40 04	 mov	 eax, DWORD PTR [eax+4]
  00143	c6 40 0c 00	 mov	 BYTE PTR [eax+12], 0
  00147	8b 07		 mov	 eax, DWORD PTR [edi]
  00149	8b 50 04	 mov	 edx, DWORD PTR [eax+4]
  0014c	e9 91 00 00 00	 jmp	 $LN46@Insert_nod
$LN15@Insert_nod:

; 692  :                     _Pnode->_Parent->_Color          = _Black;
; 693  :                     _Parent_sibling->_Color          = _Black;
; 694  :                     _Pnode->_Parent->_Parent->_Color = _Red;
; 695  :                     _Pnode                           = _Pnode->_Parent->_Parent;
; 696  :                 } else { // parent's sibling has red and black children
; 697  :                     if (_Pnode == _Pnode->_Parent->_Left) { // rotate left child to right

  00151	8b 01		 mov	 eax, DWORD PTR [ecx]
  00153	3b d0		 cmp	 edx, eax
  00155	75 3e		 jne	 SHORT $LN39@Insert_nod

; 698  :                         _Pnode = _Pnode->_Parent;

  00157	8b d1		 mov	 edx, ecx

; 481  :         _Nodeptr _Pnode   = _Wherenode->_Left;

  00159	8b c8		 mov	 ecx, eax

; 482  :         _Wherenode->_Left = _Pnode->_Right;

  0015b	8b 41 08	 mov	 eax, DWORD PTR [ecx+8]
  0015e	89 02		 mov	 DWORD PTR [edx], eax

; 483  : 
; 484  :         if (!_Pnode->_Right->_Isnil) {

  00160	8b 41 08	 mov	 eax, DWORD PTR [ecx+8]
  00163	80 78 0d 00	 cmp	 BYTE PTR [eax+13], 0
  00167	75 03		 jne	 SHORT $LN34@Insert_nod

; 485  :             _Pnode->_Right->_Parent = _Wherenode;

  00169	89 50 04	 mov	 DWORD PTR [eax+4], edx
$LN34@Insert_nod:

; 486  :         }
; 487  : 
; 488  :         _Pnode->_Parent = _Wherenode->_Parent;

  0016c	8b 03		 mov	 eax, DWORD PTR [ebx]
  0016e	89 41 04	 mov	 DWORD PTR [ecx+4], eax

; 489  : 
; 490  :         if (_Wherenode == _Myhead->_Parent) {

  00171	8b 45 fc	 mov	 eax, DWORD PTR _this$1$[ebp]
  00174	8b 00		 mov	 eax, DWORD PTR [eax]
  00176	3b 50 04	 cmp	 edx, DWORD PTR [eax+4]
  00179	75 05		 jne	 SHORT $LN35@Insert_nod

; 491  :             _Myhead->_Parent = _Pnode;

  0017b	89 48 04	 mov	 DWORD PTR [eax+4], ecx
  0017e	eb 0e		 jmp	 SHORT $LN38@Insert_nod
$LN35@Insert_nod:

; 492  :         } else if (_Wherenode == _Wherenode->_Parent->_Right) {

  00180	8b 03		 mov	 eax, DWORD PTR [ebx]
  00182	3b 50 08	 cmp	 edx, DWORD PTR [eax+8]
  00185	75 05		 jne	 SHORT $LN37@Insert_nod

; 493  :             _Wherenode->_Parent->_Right = _Pnode;

  00187	89 48 08	 mov	 DWORD PTR [eax+8], ecx

; 494  :         } else {

  0018a	eb 02		 jmp	 SHORT $LN38@Insert_nod
$LN37@Insert_nod:

; 495  :             _Wherenode->_Parent->_Left = _Pnode;

  0018c	89 08		 mov	 DWORD PTR [eax], ecx
$LN38@Insert_nod:

; 496  :         }
; 497  : 
; 498  :         _Pnode->_Right      = _Wherenode;

  0018e	89 51 08	 mov	 DWORD PTR [ecx+8], edx

; 499  :         _Wherenode->_Parent = _Pnode;

  00191	8b fb		 mov	 edi, ebx
  00193	89 0b		 mov	 DWORD PTR [ebx], ecx
$LN39@Insert_nod:

; 699  :                         _Rrotate(_Pnode);
; 700  :                     }
; 701  : 
; 702  :                     _Pnode->_Parent->_Color          = _Black; // propagate red up

  00195	c6 41 0c 01	 mov	 BYTE PTR [ecx+12], 1

; 703  :                     _Pnode->_Parent->_Parent->_Color = _Red;

  00199	8b 07		 mov	 eax, DWORD PTR [edi]
  0019b	8b 40 04	 mov	 eax, DWORD PTR [eax+4]
  0019e	c6 40 0c 00	 mov	 BYTE PTR [eax+12], 0

; 704  :                     _Lrotate(_Pnode->_Parent->_Parent);

  001a2	8b 07		 mov	 eax, DWORD PTR [edi]
  001a4	8b 48 04	 mov	 ecx, DWORD PTR [eax+4]

; 459  :         _Nodeptr _Pnode    = _Wherenode->_Right;

  001a7	8b 71 08	 mov	 esi, DWORD PTR [ecx+8]

; 460  :         _Wherenode->_Right = _Pnode->_Left;

  001aa	8b 06		 mov	 eax, DWORD PTR [esi]
  001ac	89 41 08	 mov	 DWORD PTR [ecx+8], eax

; 461  : 
; 462  :         if (!_Pnode->_Left->_Isnil) {

  001af	8b 06		 mov	 eax, DWORD PTR [esi]
  001b1	80 78 0d 00	 cmp	 BYTE PTR [eax+13], 0
  001b5	75 03		 jne	 SHORT $LN41@Insert_nod

; 463  :             _Pnode->_Left->_Parent = _Wherenode;

  001b7	89 48 04	 mov	 DWORD PTR [eax+4], ecx
$LN41@Insert_nod:

; 464  :         }
; 465  : 
; 466  :         _Pnode->_Parent = _Wherenode->_Parent;

  001ba	8b 41 04	 mov	 eax, DWORD PTR [ecx+4]
  001bd	89 46 04	 mov	 DWORD PTR [esi+4], eax

; 467  : 
; 468  :         if (_Wherenode == _Myhead->_Parent) {

  001c0	8b 45 fc	 mov	 eax, DWORD PTR _this$1$[ebp]
  001c3	8b 00		 mov	 eax, DWORD PTR [eax]
  001c5	3b 48 04	 cmp	 ecx, DWORD PTR [eax+4]
  001c8	75 05		 jne	 SHORT $LN42@Insert_nod

; 469  :             _Myhead->_Parent = _Pnode;

  001ca	89 70 04	 mov	 DWORD PTR [eax+4], esi
  001cd	eb 0e		 jmp	 SHORT $LN45@Insert_nod
$LN42@Insert_nod:

; 470  :         } else if (_Wherenode == _Wherenode->_Parent->_Left) {

  001cf	8b 41 04	 mov	 eax, DWORD PTR [ecx+4]
  001d2	3b 08		 cmp	 ecx, DWORD PTR [eax]
  001d4	75 04		 jne	 SHORT $LN44@Insert_nod

; 471  :             _Wherenode->_Parent->_Left = _Pnode;

  001d6	89 30		 mov	 DWORD PTR [eax], esi

; 472  :         } else {

  001d8	eb 03		 jmp	 SHORT $LN45@Insert_nod
$LN44@Insert_nod:

; 473  :             _Wherenode->_Parent->_Right = _Pnode;

  001da	89 70 08	 mov	 DWORD PTR [eax+8], esi
$LN45@Insert_nod:

; 474  :         }
; 475  : 
; 476  :         _Pnode->_Left       = _Wherenode;

  001dd	89 0e		 mov	 DWORD PTR [esi], ecx
$LN52@Insert_nod:

; 668  :             }
; 669  :         }
; 670  : 
; 671  :         for (_Nodeptr _Pnode = _Newnode; _Pnode->_Parent->_Color == _Red;) {

  001df	89 71 04	 mov	 DWORD PTR [ecx+4], esi
$LN46@Insert_nod:
  001e2	8b 42 04	 mov	 eax, DWORD PTR [edx+4]
  001e5	80 78 0c 00	 cmp	 BYTE PTR [eax+12], 0
  001e9	0f 84 71 fe ff
	ff		 je	 $LL2@Insert_nod
  001ef	8b 4d f8	 mov	 ecx, DWORD PTR __Head$1$[ebp]
  001f2	5f		 pop	 edi
  001f3	5e		 pop	 esi
  001f4	5b		 pop	 ebx
$LN3@Insert_nod:

; 705  :                 }
; 706  :             }
; 707  :         }
; 708  : 
; 709  :         _Head->_Parent->_Color = _Black; // root is always black

  001f5	8b 41 04	 mov	 eax, DWORD PTR [ecx+4]
  001f8	c6 40 0c 01	 mov	 BYTE PTR [eax+12], 1

; 710  :         return _Newnode;

  001fc	8b 45 10	 mov	 eax, DWORD PTR __Newnode$[ebp]

; 711  :     }

  001ff	8b e5		 mov	 esp, ebp
  00201	5d		 pop	 ebp
  00202	c2 0c 00	 ret	 12			; 0000000cH
?_Insert_node@?$_Tree_val@U?$_Tree_simple_types@U?$pair@$$CBEUSGuildGradeData@CPythonGuild@@@std@@@std@@@std@@QAEPAU?$_Tree_node@U?$pair@$$CBEUSGuildGradeData@CPythonGuild@@@std@@PAX@2@U?$_Tree_id@PAU?$_Tree_node@U?$pair@$$CBEUSGuildGradeData@CPythonGuild@@@std@@PAX@std@@@2@QAU32@@Z ENDP ; std::_Tree_val<std::_Tree_simple_types<std::pair<unsigned char const ,CPythonGuild::SGuildGradeData> > >::_Insert_node
_TEXT	ENDS
; Function compile flags: /Ogtp
; File D:\Metin2 Server Files\mainline\SRC_2014\Metin2Client\UserInterface\PythonGuild.cpp
; File C:\Program Files (x86)\Microsoft Visual Studio\2019\Community\VC\Tools\MSVC\14.28.29333\include\xtree
; File D:\Metin2 Server Files\mainline\SRC_2014\Metin2Client\UserInterface\PythonGuild.cpp
; File C:\Program Files (x86)\Microsoft Visual Studio\2019\Community\VC\Tools\MSVC\14.28.29333\include\xtree
; File D:\Metin2 Server Files\mainline\SRC_2014\Metin2Client\UserInterface\PythonGuild.cpp
; File C:\Program Files (x86)\Microsoft Visual Studio\2019\Community\VC\Tools\MSVC\14.28.29333\include\xtree
; File C:\Program Files (x86)\Microsoft Visual Studio\2019\Community\VC\Tools\MSVC\14.28.29333\include\vector
; File D:\Metin2 Server Files\mainline\SRC_2014\Metin2Client\UserInterface\PythonGuild.cpp
; File C:\Program Files (x86)\Microsoft Visual Studio\2019\Community\VC\Tools\MSVC\14.28.29333\include\vector
; File D:\Metin2 Server Files\mainline\SRC_2014\Metin2Client\UserInterface\PythonGuild.cpp
; File C:\Program Files (x86)\Microsoft Visual Studio\2019\Community\VC\Tools\MSVC\14.28.29333\include\xtree
; File D:\Metin2 Server Files\mainline\SRC_2014\Metin2Client\UserInterface\PythonGuild.cpp
; File C:\Program Files (x86)\Microsoft Visual Studio\2019\Community\VC\Tools\MSVC\14.28.29333\include\xtree
; File D:\Metin2 Server Files\mainline\SRC_2014\Metin2Client\UserInterface\PythonGuild.cpp
;	COMDAT ?__Initialize@CPythonGuild@@IAEXXZ
_TEXT	SEGMENT
?__Initialize@CPythonGuild@@IAEXXZ PROC			; CPythonGuild::__Initialize, COMDAT
; _this$ = ecx

; 349  : {

  00000	53		 push	 ebx
  00001	56		 push	 esi
  00002	57		 push	 edi
  00003	8b d9		 mov	 ebx, ecx

; 350  : 	ZeroMemory(&m_GuildInfo, sizeof(m_GuildInfo));

  00005	6a 30		 push	 48			; 00000030H
  00007	6a 00		 push	 0
  00009	8d 43 04	 lea	 eax, DWORD PTR [ebx+4]
  0000c	50		 push	 eax
  0000d	e8 00 00 00 00	 call	 _memset
  00012	0f 57 c0	 xorps	 xmm0, xmm0

; 353  : 	m_GradeDataMap.clear();

  00015	8d 7b 34	 lea	 edi, DWORD PTR [ebx+52]
  00018	0f 11 43 54	 movups	 XMMWORD PTR [ebx+84], xmm0
  0001c	66 c7 43 64 00
	00		 mov	 WORD PTR [ebx+100], 0
  00022	83 c4 0c	 add	 esp, 12			; 0000000cH
  00025	0f 11 43 70	 movups	 XMMWORD PTR [ebx+112], xmm0
; File C:\Program Files (x86)\Microsoft Visual Studio\2019\Community\VC\Tools\MSVC\14.28.29333\include\xtree

; 1448 :         _Scary->_Erase_tree(_Getal(), _Head->_Parent);

  00029	8b cf		 mov	 ecx, edi
; File D:\Metin2 Server Files\mainline\SRC_2014\Metin2Client\UserInterface\PythonGuild.cpp

; 352  : 	ZeroMemory(&m_adwEnemyGuildID, ENEMY_GUILD_SLOT_MAX_COUNT*sizeof(DWORD));

  0002b	66 0f d6 83 80
	00 00 00	 movq	 QWORD PTR [ebx+128], xmm0
; File C:\Program Files (x86)\Microsoft Visual Studio\2019\Community\VC\Tools\MSVC\14.28.29333\include\xtree

; 1447 :         auto _Head = _Scary->_Myhead;

  00033	8b 37		 mov	 esi, DWORD PTR [edi]

; 1448 :         _Scary->_Erase_tree(_Getal(), _Head->_Parent);

  00035	ff 76 04	 push	 DWORD PTR [esi+4]
  00038	57		 push	 edi
  00039	e8 00 00 00 00	 call	 ??$_Erase_tree@V?$allocator@U?$_Tree_node@U?$pair@$$CBEUSGuildGradeData@CPythonGuild@@@std@@PAX@std@@@std@@@?$_Tree_val@U?$_Tree_simple_types@U?$pair@$$CBEUSGuildGradeData@CPythonGuild@@@std@@@std@@@std@@QAEXAAV?$allocator@U?$_Tree_node@U?$pair@$$CBEUSGuildGradeData@CPythonGuild@@@std@@PAX@std@@@1@PAU?$_Tree_node@U?$pair@$$CBEUSGuildGradeData@CPythonGuild@@@std@@PAX@1@@Z ; std::_Tree_val<std::_Tree_simple_types<std::pair<unsigned char const ,CPythonGuild::SGuildGradeData> > >::_Erase_tree<std::allocator<std::_Tree_node<std::pair<unsigned char const ,CPythonGuild::SGuildGradeData>,void *> > >

; 1449 :         _Head->_Parent  = _Head;

  0003e	89 76 04	 mov	 DWORD PTR [esi+4], esi

; 1450 :         _Head->_Left    = _Head;

  00041	89 36		 mov	 DWORD PTR [esi], esi

; 1451 :         _Head->_Right   = _Head;

  00043	89 76 08	 mov	 DWORD PTR [esi+8], esi
; File D:\Metin2 Server Files\mainline\SRC_2014\Metin2Client\UserInterface\PythonGuild.cpp

; 354  : 	m_GuildMemberDataVector.clear();

  00046	8d 73 3c	 lea	 esi, DWORD PTR [ebx+60]
; File C:\Program Files (x86)\Microsoft Visual Studio\2019\Community\VC\Tools\MSVC\14.28.29333\include\xtree

; 1452 :         _Scary->_Mysize = 0;

  00049	c7 47 04 00 00
	00 00		 mov	 DWORD PTR [edi+4], 0
; File C:\Program Files (x86)\Microsoft Visual Studio\2019\Community\VC\Tools\MSVC\14.28.29333\include\vector

; 1612 :         _Destroy_range(_First, _Last, _Getal());

  00050	56		 push	 esi
  00051	ff 76 04	 push	 DWORD PTR [esi+4]
  00054	ff 36		 push	 DWORD PTR [esi]
  00056	e8 00 00 00 00	 call	 ??$_Destroy_range@V?$allocator@USGuildMemberData@CPythonGuild@@@std@@@std@@YAXPAUSGuildMemberData@CPythonGuild@@QAU12@AAV?$allocator@USGuildMemberData@CPythonGuild@@@0@@Z ; std::_Destroy_range<std::allocator<CPythonGuild::SGuildMemberData> >

; 1390 :         _Mylast = _Myfirst;

  0005b	8b 06		 mov	 eax, DWORD PTR [esi]
; File D:\Metin2 Server Files\mainline\SRC_2014\Metin2Client\UserInterface\PythonGuild.cpp

; 358  : 	m_GuildNameMap.clear();

  0005d	8d 7b 68	 lea	 edi, DWORD PTR [ebx+104]
; File C:\Program Files (x86)\Microsoft Visual Studio\2019\Community\VC\Tools\MSVC\14.28.29333\include\vector

; 1390 :         _Mylast = _Myfirst;

  00060	89 46 04	 mov	 DWORD PTR [esi+4], eax

; 1612 :         _Destroy_range(_First, _Last, _Getal());

  00063	83 c4 0c	 add	 esp, 12			; 0000000cH
; File D:\Metin2 Server Files\mainline\SRC_2014\Metin2Client\UserInterface\PythonGuild.cpp

; 355  : 	m_dwMemberLevelSummary = 0;

  00066	c7 83 88 00 00
	00 00 00 00 00	 mov	 DWORD PTR [ebx+136], 0
; File C:\Program Files (x86)\Microsoft Visual Studio\2019\Community\VC\Tools\MSVC\14.28.29333\include\xtree

; 1448 :         _Scary->_Erase_tree(_Getal(), _Head->_Parent);

  00070	8b cf		 mov	 ecx, edi
; File D:\Metin2 Server Files\mainline\SRC_2014\Metin2Client\UserInterface\PythonGuild.cpp

; 356  : 	m_dwMemberLevelAverage = 0;

  00072	c7 83 8c 00 00
	00 00 00 00 00	 mov	 DWORD PTR [ebx+140], 0

; 357  : 	m_bGuildEnable = FALSE;

  0007c	c7 83 94 00 00
	00 00 00 00 00	 mov	 DWORD PTR [ebx+148], 0
; File C:\Program Files (x86)\Microsoft Visual Studio\2019\Community\VC\Tools\MSVC\14.28.29333\include\xtree

; 1447 :         auto _Head = _Scary->_Myhead;

  00086	8b 37		 mov	 esi, DWORD PTR [edi]

; 1448 :         _Scary->_Erase_tree(_Getal(), _Head->_Parent);

  00088	ff 76 04	 push	 DWORD PTR [esi+4]
  0008b	57		 push	 edi
  0008c	e8 00 00 00 00	 call	 ??$_Erase_tree@V?$allocator@U?$_Tree_node@U?$pair@$$CBKV?$basic_string@DU?$char_traits@D@std@@V?$allocator@D@2@@std@@@std@@PAX@std@@@std@@@?$_Tree_val@U?$_Tree_simple_types@U?$pair@$$CBKV?$basic_string@DU?$char_traits@D@std@@V?$allocator@D@2@@std@@@std@@@std@@@std@@QAEXAAV?$allocator@U?$_Tree_node@U?$pair@$$CBKV?$basic_string@DU?$char_traits@D@std@@V?$allocator@D@2@@std@@@std@@PAX@std@@@1@PAU?$_Tree_node@U?$pair@$$CBKV?$basic_string@DU?$char_traits@D@std@@V?$allocator@D@2@@std@@@std@@PAX@1@@Z ; std::_Tree_val<std::_Tree_simple_types<std::pair<unsigned long const ,std::basic_string<char,std::char_traits<char>,std::allocator<char> > > > >::_Erase_tree<std::allocator<std::_Tree_node<std::pair<unsigned long const ,std::basic_string<char,std::char_traits<char>,std::allocator<char> > >,void *> > >

; 1449 :         _Head->_Parent  = _Head;

  00091	89 76 04	 mov	 DWORD PTR [esi+4], esi

; 1450 :         _Head->_Left    = _Head;

  00094	89 36		 mov	 DWORD PTR [esi], esi

; 1451 :         _Head->_Right   = _Head;

  00096	89 76 08	 mov	 DWORD PTR [esi+8], esi

; 1452 :         _Scary->_Mysize = 0;

  00099	c7 47 04 00 00
	00 00		 mov	 DWORD PTR [edi+4], 0
  000a0	5f		 pop	 edi
  000a1	5e		 pop	 esi
  000a2	5b		 pop	 ebx
; File D:\Metin2 Server Files\mainline\SRC_2014\Metin2Client\UserInterface\PythonGuild.cpp

; 359  : }

  000a3	c3		 ret	 0
?__Initialize@CPythonGuild@@IAEXXZ ENDP			; CPythonGuild::__Initialize
_TEXT	ENDS
; Function compile flags: /Ogtp
; File D:\Metin2 Server Files\mainline\SRC_2014\Metin2Client\UserInterface\PythonGuild.cpp
; File C:\Program Files (x86)\Microsoft Visual Studio\2019\Community\VC\Tools\MSVC\14.28.29333\include\xtree
; File D:\Metin2 Server Files\mainline\SRC_2014\Metin2Client\UserInterface\PythonGuild.cpp
; File C:\Program Files (x86)\Microsoft Visual Studio\2019\Community\VC\Tools\MSVC\14.28.29333\include\xtree
; File C:\Program Files (x86)\Microsoft Visual Studio\2019\Community\VC\Tools\MSVC\14.28.29333\include\xstddef
; File C:\Program Files (x86)\Microsoft Visual Studio\2019\Community\VC\Tools\MSVC\14.28.29333\include\xtree
; File D:\Metin2 Server Files\mainline\SRC_2014\Metin2Client\UserInterface\PythonGuild.cpp
; File C:\Program Files (x86)\Microsoft Visual Studio\2019\Community\VC\Tools\MSVC\14.28.29333\include\xtree
; File D:\Metin2 Server Files\mainline\SRC_2014\Metin2Client\UserInterface\PythonGuild.cpp
; File C:\Program Files (x86)\Microsoft Visual Studio\2019\Community\VC\Tools\MSVC\14.28.29333\include\xtree
; File D:\Metin2 Server Files\mainline\SRC_2014\Metin2Client\UserInterface\PythonGuild.cpp
; File C:\Program Files (x86)\Microsoft Visual Studio\2019\Community\VC\Tools\MSVC\14.28.29333\include\xtree
; File D:\Metin2 Server Files\mainline\SRC_2014\Metin2Client\UserInterface\PythonGuild.cpp
;	COMDAT ?__IsGradeData@CPythonGuild@@IAEHE@Z
_TEXT	SEGMENT
__Loc$1 = -12						; size = 12
_byGradeNumber$ = 8					; size = 1
?__IsGradeData@CPythonGuild@@IAEHE@Z PROC		; CPythonGuild::__IsGradeData, COMDAT
; _this$ = ecx

; 344  : {

  00000	55		 push	 ebp
  00001	8b ec		 mov	 ebp, esp
  00003	83 ec 0c	 sub	 esp, 12			; 0000000cH
  00006	56		 push	 esi
; File C:\Program Files (x86)\Microsoft Visual Studio\2019\Community\VC\Tools\MSVC\14.28.29333\include\xtree

; 1458 :         const _Tree_find_result<_Nodeptr> _Loc = _Find_lower_bound(_Keyval);

  00007	8d 45 08	 lea	 eax, DWORD PTR _byGradeNumber$[ebp]
  0000a	50		 push	 eax
; File D:\Metin2 Server Files\mainline\SRC_2014\Metin2Client\UserInterface\PythonGuild.cpp

; 345  : 	return m_GradeDataMap.end() != m_GradeDataMap.find(byGradeNumber);

  0000b	8d 71 34	 lea	 esi, DWORD PTR [ecx+52]
; File C:\Program Files (x86)\Microsoft Visual Studio\2019\Community\VC\Tools\MSVC\14.28.29333\include\xtree

; 1458 :         const _Tree_find_result<_Nodeptr> _Loc = _Find_lower_bound(_Keyval);

  0000e	8d 45 f4	 lea	 eax, DWORD PTR __Loc$1[ebp]
  00011	8b ce		 mov	 ecx, esi
  00013	50		 push	 eax
  00014	e8 00 00 00 00	 call	 ??$_Find_lower_bound@E@?$_Tree@V?$_Tmap_traits@EUSGuildGradeData@CPythonGuild@@U?$less@E@std@@V?$allocator@U?$pair@$$CBEUSGuildGradeData@CPythonGuild@@@std@@@4@$0A@@std@@@std@@IBE?AU?$_Tree_find_result@PAU?$_Tree_node@U?$pair@$$CBEUSGuildGradeData@CPythonGuild@@@std@@PAX@std@@@1@ABE@Z ; std::_Tree<std::_Tmap_traits<unsigned char,CPythonGuild::SGuildGradeData,std::less<unsigned char>,std::allocator<std::pair<unsigned char const ,CPythonGuild::SGuildGradeData> >,0> >::_Find_lower_bound<unsigned char>

; 1695 :         return !_Bound->_Isnil && !_DEBUG_LT_PRED(_Getcomp(), _Keyval, _Traits::_Kfn(_Bound->_Myval));

  00019	8b 4d fc	 mov	 ecx, DWORD PTR __Loc$1[ebp+8]
  0001c	80 79 0d 00	 cmp	 BYTE PTR [ecx+13], 0
  00020	75 18		 jne	 SHORT $LN6@IsGradeDat
; File C:\Program Files (x86)\Microsoft Visual Studio\2019\Community\VC\Tools\MSVC\14.28.29333\include\xstddef

; 127  :         return _Left < _Right;

  00022	8a 45 08	 mov	 al, BYTE PTR _byGradeNumber$[ebp]
  00025	3a 41 10	 cmp	 al, BYTE PTR [ecx+16]
; File C:\Program Files (x86)\Microsoft Visual Studio\2019\Community\VC\Tools\MSVC\14.28.29333\include\xtree

; 1695 :         return !_Bound->_Isnil && !_DEBUG_LT_PRED(_Getcomp(), _Keyval, _Traits::_Kfn(_Bound->_Myval));

  00028	72 10		 jb	 SHORT $LN6@IsGradeDat

; 1460 :             return _Loc._Bound;

  0002a	8b 16		 mov	 edx, DWORD PTR [esi]

; 236  :         return !(*this == _Right);

  0002c	33 c0		 xor	 eax, eax

; 39   :     _Tree_unchecked_const_iterator(_Nodeptr _Pnode, const _Mytree* _Plist) noexcept : _Ptr(_Pnode) {

  0002e	3b d1		 cmp	 edx, ecx
; File D:\Metin2 Server Files\mainline\SRC_2014\Metin2Client\UserInterface\PythonGuild.cpp

; 345  : 	return m_GradeDataMap.end() != m_GradeDataMap.find(byGradeNumber);

  00030	5e		 pop	 esi
; File C:\Program Files (x86)\Microsoft Visual Studio\2019\Community\VC\Tools\MSVC\14.28.29333\include\xtree

; 236  :         return !(*this == _Right);

  00031	0f 95 c0	 setne	 al
; File D:\Metin2 Server Files\mainline\SRC_2014\Metin2Client\UserInterface\PythonGuild.cpp

; 346  : }

  00034	8b e5		 mov	 esp, ebp
  00036	5d		 pop	 ebp
  00037	c2 04 00	 ret	 4
$LN6@IsGradeDat:
; File C:\Program Files (x86)\Microsoft Visual Studio\2019\Community\VC\Tools\MSVC\14.28.29333\include\xtree

; 1463 :         return _Get_scary()->_Myhead;

  0003a	8b 0e		 mov	 ecx, DWORD PTR [esi]

; 236  :         return !(*this == _Right);

  0003c	33 c0		 xor	 eax, eax

; 1463 :         return _Get_scary()->_Myhead;

  0003e	8b d1		 mov	 edx, ecx

; 39   :     _Tree_unchecked_const_iterator(_Nodeptr _Pnode, const _Mytree* _Plist) noexcept : _Ptr(_Pnode) {

  00040	3b d1		 cmp	 edx, ecx
; File D:\Metin2 Server Files\mainline\SRC_2014\Metin2Client\UserInterface\PythonGuild.cpp

; 345  : 	return m_GradeDataMap.end() != m_GradeDataMap.find(byGradeNumber);

  00042	5e		 pop	 esi
; File C:\Program Files (x86)\Microsoft Visual Studio\2019\Community\VC\Tools\MSVC\14.28.29333\include\xtree

; 236  :         return !(*this == _Right);

  00043	0f 95 c0	 setne	 al
; File D:\Metin2 Server Files\mainline\SRC_2014\Metin2Client\UserInterface\PythonGuild.cpp

; 346  : }

  00046	8b e5		 mov	 esp, ebp
  00048	5d		 pop	 ebp
  00049	c2 04 00	 ret	 4
?__IsGradeData@CPythonGuild@@IAEHE@Z ENDP		; CPythonGuild::__IsGradeData
_TEXT	ENDS
; Function compile flags: /Ogtp
; File D:\Metin2 Server Files\mainline\SRC_2014\Metin2Client\UserInterface\PythonGuild.cpp
; File C:\Program Files (x86)\Microsoft Visual Studio\2019\Community\VC\Tools\MSVC\14.28.29333\include\vector
; File C:\Program Files (x86)\Microsoft Visual Studio\2019\Community\VC\Tools\MSVC\14.28.29333\include\algorithm
; File D:\Metin2 Server Files\mainline\SRC_2014\Metin2Client\UserInterface\PythonGuild.cpp
; File C:\Program Files (x86)\Microsoft Visual Studio\2019\Community\VC\Tools\MSVC\14.28.29333\include\vector
; File C:\Program Files (x86)\Microsoft Visual Studio\2019\Community\VC\Tools\MSVC\14.28.29333\include\algorithm
; File D:\Metin2 Server Files\mainline\SRC_2014\Metin2Client\UserInterface\PythonGuild.cpp
;	COMDAT ?__SortMember@CPythonGuild@@IAEXXZ
_TEXT	SEGMENT
$T1 = -4						; size = 1
?__SortMember@CPythonGuild@@IAEXXZ PROC			; CPythonGuild::__SortMember, COMDAT
; _this$ = ecx

; 339  : {

  00000	55		 push	 ebp
  00001	8b ec		 mov	 ebp, esp
  00003	51		 push	 ecx
  00004	56		 push	 esi
; File C:\Program Files (x86)\Microsoft Visual Studio\2019\Community\VC\Tools\MSVC\14.28.29333\include\vector

; 42   :     _Vector_const_iterator(_Tptr _Parg, const _Container_base* _Pvector) noexcept : _Ptr(_Parg) {

  00005	8b 71 40	 mov	 esi, DWORD PTR [ecx+64]
; File C:\Program Files (x86)\Microsoft Visual Studio\2019\Community\VC\Tools\MSVC\14.28.29333\include\algorithm

; 7571 :     _Sort_unchecked(_UFirst, _ULast, _ULast - _UFirst, _Pass_fn(_Pred));

  00008	b8 39 8e e3 38	 mov	 eax, 954437177		; 38e38e39H
; File D:\Metin2 Server Files\mainline\SRC_2014\Metin2Client\UserInterface\PythonGuild.cpp

; 339  : {

  0000d	57		 push	 edi
; File C:\Program Files (x86)\Microsoft Visual Studio\2019\Community\VC\Tools\MSVC\14.28.29333\include\vector

; 42   :     _Vector_const_iterator(_Tptr _Parg, const _Container_base* _Pvector) noexcept : _Ptr(_Parg) {

  0000e	8b 79 3c	 mov	 edi, DWORD PTR [ecx+60]
; File C:\Program Files (x86)\Microsoft Visual Studio\2019\Community\VC\Tools\MSVC\14.28.29333\include\algorithm

; 7571 :     _Sort_unchecked(_UFirst, _ULast, _ULast - _UFirst, _Pass_fn(_Pred));

  00011	8b ce		 mov	 ecx, esi
  00013	ff 75 fc	 push	 DWORD PTR $T1[ebp]
  00016	2b cf		 sub	 ecx, edi
  00018	f7 e9		 imul	 ecx
  0001a	c1 fa 03	 sar	 edx, 3
  0001d	8b c2		 mov	 eax, edx
  0001f	c1 e8 1f	 shr	 eax, 31			; 0000001fH
  00022	03 c2		 add	 eax, edx
  00024	50		 push	 eax
  00025	56		 push	 esi
  00026	57		 push	 edi
  00027	e8 00 00 00 00	 call	 ??$_Sort_unchecked@PAUSGuildMemberData@CPythonGuild@@UCPythonGuild_SLessMemberGrade@@@std@@YAXPAUSGuildMemberData@CPythonGuild@@0HUCPythonGuild_SLessMemberGrade@@@Z ; std::_Sort_unchecked<CPythonGuild::SGuildMemberData *,CPythonGuild_SLessMemberGrade>
  0002c	83 c4 10	 add	 esp, 16			; 00000010H
  0002f	5f		 pop	 edi
  00030	5e		 pop	 esi
; File D:\Metin2 Server Files\mainline\SRC_2014\Metin2Client\UserInterface\PythonGuild.cpp

; 341  : }

  00031	8b e5		 mov	 esp, ebp
  00033	5d		 pop	 ebp
  00034	c3		 ret	 0
?__SortMember@CPythonGuild@@IAEXXZ ENDP			; CPythonGuild::__SortMember
_TEXT	ENDS
; Function compile flags: /Ogtp
; File D:\Metin2 Server Files\mainline\SRC_2014\Metin2Client\UserInterface\PythonGuild.cpp
; File C:\Program Files (x86)\Microsoft Visual Studio\2019\Community\VC\Tools\MSVC\14.28.29333\include\vector
; File D:\Metin2 Server Files\mainline\SRC_2014\Metin2Client\UserInterface\PythonGuild.cpp
; File C:\Program Files (x86)\Microsoft Visual Studio\2019\Community\VC\Tools\MSVC\14.28.29333\include\vector
; File D:\Metin2 Server Files\mainline\SRC_2014\Metin2Client\UserInterface\PythonGuild.cpp
; File C:\Program Files (x86)\Microsoft Visual Studio\2019\Community\VC\Tools\MSVC\14.28.29333\include\vector
; File D:\Metin2 Server Files\mainline\SRC_2014\Metin2Client\UserInterface\PythonGuild.cpp
; File C:\Program Files (x86)\Microsoft Visual Studio\2019\Community\VC\Tools\MSVC\14.28.29333\include\vector
; File D:\Metin2 Server Files\mainline\SRC_2014\Metin2Client\UserInterface\PythonGuild.cpp
; File C:\Program Files (x86)\Microsoft Visual Studio\2019\Community\VC\Tools\MSVC\14.28.29333\include\vector
; File D:\Metin2 Server Files\mainline\SRC_2014\Metin2Client\UserInterface\PythonGuild.cpp
; File C:\Program Files (x86)\Microsoft Visual Studio\2019\Community\VC\Tools\MSVC\14.28.29333\include\vector
; File D:\Metin2 Server Files\mainline\SRC_2014\Metin2Client\UserInterface\PythonGuild.cpp
;	COMDAT ?__CalculateLevelAverage@CPythonGuild@@IAEXXZ
_TEXT	SEGMENT
?__CalculateLevelAverage@CPythonGuild@@IAEXXZ PROC	; CPythonGuild::__CalculateLevelAverage, COMDAT
; _this$ = ecx

; 304  : {

  00000	56		 push	 esi
  00001	8b f1		 mov	 esi, ecx

; 305  : 	m_dwMemberLevelSummary = 0;

  00003	c7 86 88 00 00
	00 00 00 00 00	 mov	 DWORD PTR [esi+136], 0

; 306  : 	m_dwMemberLevelAverage = 0;

  0000d	c7 86 8c 00 00
	00 00 00 00 00	 mov	 DWORD PTR [esi+140], 0

; 307  : 	m_dwMemberExperienceSummary = 0;

  00017	c7 86 90 00 00
	00 00 00 00 00	 mov	 DWORD PTR [esi+144], 0
; File C:\Program Files (x86)\Microsoft Visual Studio\2019\Community\VC\Tools\MSVC\14.28.29333\include\vector

; 1479 :         return _My_data._Myfirst == _My_data._Mylast;

  00021	8b 46 3c	 mov	 eax, DWORD PTR [esi+60]
  00024	8b 4e 40	 mov	 ecx, DWORD PTR [esi+64]
  00027	3b c1		 cmp	 eax, ecx
; File D:\Metin2 Server Files\mainline\SRC_2014\Metin2Client\UserInterface\PythonGuild.cpp

; 309  : 	if (m_GuildMemberDataVector.empty())

  00029	74 55		 je	 SHORT $LN1@CalculateL
; File C:\Program Files (x86)\Microsoft Visual Studio\2019\Community\VC\Tools\MSVC\14.28.29333\include\vector

; 42   :     _Vector_const_iterator(_Tptr _Parg, const _Container_base* _Pvector) noexcept : _Ptr(_Parg) {

  0002b	53		 push	 ebx
  0002c	57		 push	 edi
  0002d	8b d9		 mov	 ebx, ecx
  0002f	33 ff		 xor	 edi, edi
  00031	3b c3		 cmp	 eax, ebx
; File D:\Metin2 Server Files\mainline\SRC_2014\Metin2Client\UserInterface\PythonGuild.cpp

; 316  : 	for (; itor != m_GuildMemberDataVector.end(); ++itor)

  00033	74 29		 je	 SHORT $LN3@CalculateL
  00035	33 d2		 xor	 edx, edx
  00037	66 0f 1f 84 00
	00 00 00 00	 npad	 9
$LL22@CalculateL:

; 317  : 	{
; 318  : 		TGuildMemberData & rGuildMemberData = *itor;
; 319  : 		m_dwMemberLevelSummary += rGuildMemberData.byLevel;

  00040	0f b6 48 1e	 movzx	 ecx, BYTE PTR [eax+30]
  00044	03 f9		 add	 edi, ecx
  00046	89 be 88 00 00
	00		 mov	 DWORD PTR [esi+136], edi

; 320  : 		m_dwMemberExperienceSummary += rGuildMemberData.dwOffer;

  0004c	03 50 20	 add	 edx, DWORD PTR [eax+32]
; File C:\Program Files (x86)\Microsoft Visual Studio\2019\Community\VC\Tools\MSVC\14.28.29333\include\vector

; 75   :         ++_Ptr;

  0004f	83 c0 24	 add	 eax, 36			; 00000024H
; File D:\Metin2 Server Files\mainline\SRC_2014\Metin2Client\UserInterface\PythonGuild.cpp

; 320  : 		m_dwMemberExperienceSummary += rGuildMemberData.dwOffer;

  00052	89 96 90 00 00
	00		 mov	 DWORD PTR [esi+144], edx
; File C:\Program Files (x86)\Microsoft Visual Studio\2019\Community\VC\Tools\MSVC\14.28.29333\include\vector

; 149  :         return _Ptr == _Right._Ptr;

  00058	3b c3		 cmp	 eax, ebx
; File D:\Metin2 Server Files\mainline\SRC_2014\Metin2Client\UserInterface\PythonGuild.cpp

; 316  : 	for (; itor != m_GuildMemberDataVector.end(); ++itor)

  0005a	75 e4		 jne	 SHORT $LL22@CalculateL
  0005c	8b cb		 mov	 ecx, ebx
$LN3@CalculateL:
; File C:\Program Files (x86)\Microsoft Visual Studio\2019\Community\VC\Tools\MSVC\14.28.29333\include\vector

; 1484 :         return static_cast<size_type>(_My_data._Mylast - _My_data._Myfirst);

  0005e	2b 4e 3c	 sub	 ecx, DWORD PTR [esi+60]
  00061	b8 39 8e e3 38	 mov	 eax, 954437177		; 38e38e39H
  00066	f7 e9		 imul	 ecx
; File D:\Metin2 Server Files\mainline\SRC_2014\Metin2Client\UserInterface\PythonGuild.cpp

; 324  : 	m_dwMemberLevelAverage = m_dwMemberLevelSummary / m_GuildMemberDataVector.size();

  00068	8b c7		 mov	 eax, edi
; File C:\Program Files (x86)\Microsoft Visual Studio\2019\Community\VC\Tools\MSVC\14.28.29333\include\vector

; 1484 :         return static_cast<size_type>(_My_data._Mylast - _My_data._Myfirst);

  0006a	c1 fa 03	 sar	 edx, 3
  0006d	8b ca		 mov	 ecx, edx
  0006f	c1 e9 1f	 shr	 ecx, 31			; 0000001fH
  00072	03 ca		 add	 ecx, edx
; File D:\Metin2 Server Files\mainline\SRC_2014\Metin2Client\UserInterface\PythonGuild.cpp

; 324  : 	m_dwMemberLevelAverage = m_dwMemberLevelSummary / m_GuildMemberDataVector.size();

  00074	33 d2		 xor	 edx, edx
  00076	f7 f1		 div	 ecx
  00078	5f		 pop	 edi
  00079	89 86 8c 00 00
	00		 mov	 DWORD PTR [esi+140], eax
  0007f	5b		 pop	 ebx
$LN1@CalculateL:

; 325  : }

  00080	5e		 pop	 esi
  00081	c3		 ret	 0
?__CalculateLevelAverage@CPythonGuild@@IAEXXZ ENDP	; CPythonGuild::__CalculateLevelAverage
_TEXT	ENDS
; Function compile flags: /Ogtp
; File D:\Metin2 Server Files\mainline\SRC_2014\Metin2Client\UserInterface\PythonGuild.cpp
;	COMDAT ?IsDoingGuildWar@CPythonGuild@@QAEHXZ
_TEXT	SEGMENT
?IsDoingGuildWar@CPythonGuild@@QAEHXZ PROC		; CPythonGuild::IsDoingGuildWar, COMDAT
; _this$ = ecx

; 294  : 	for (int i = 0; i < ENEMY_GUILD_SLOT_MAX_COUNT; ++i)

  00000	33 d2		 xor	 edx, edx
  00002	8d 41 70	 lea	 eax, DWORD PTR [ecx+112]
$LL4@IsDoingGui:

; 295  : 		if (0 != m_adwEnemyGuildID[i])

  00005	83 38 00	 cmp	 DWORD PTR [eax], 0
  00008	75 0c		 jne	 SHORT $LN8@IsDoingGui

; 294  : 	for (int i = 0; i < ENEMY_GUILD_SLOT_MAX_COUNT; ++i)

  0000a	42		 inc	 edx
  0000b	83 c0 04	 add	 eax, 4
  0000e	83 fa 06	 cmp	 edx, 6
  00011	7c f2		 jl	 SHORT $LL4@IsDoingGui

; 298  : 		}
; 299  : 
; 300  : 	return FALSE;

  00013	33 c0		 xor	 eax, eax

; 301  : }

  00015	c3		 ret	 0
$LN8@IsDoingGui:

; 296  : 		{
; 297  : 			return TRUE;

  00016	b8 01 00 00 00	 mov	 eax, 1

; 301  : }

  0001b	c3		 ret	 0
?IsDoingGuildWar@CPythonGuild@@QAEHXZ ENDP		; CPythonGuild::IsDoingGuildWar
_TEXT	ENDS
; Function compile flags: /Ogtp
; File D:\Metin2 Server Files\mainline\SRC_2014\Metin2Client\UserInterface\PythonGuild.cpp
;	COMDAT ?GetEnemyGuildID@CPythonGuild@@QAEKK@Z
_TEXT	SEGMENT
_dwIndex$ = 8						; size = 4
?GetEnemyGuildID@CPythonGuild@@QAEKK@Z PROC		; CPythonGuild::GetEnemyGuildID, COMDAT
; _this$ = ecx

; 285  : {

  00000	55		 push	 ebp
  00001	8b ec		 mov	 ebp, esp

; 286  : 	if (dwIndex >= ENEMY_GUILD_SLOT_MAX_COUNT)

  00003	8b 45 08	 mov	 eax, DWORD PTR _dwIndex$[ebp]
  00006	83 f8 06	 cmp	 eax, 6
  00009	72 06		 jb	 SHORT $LN2@GetEnemyGu

; 287  : 		return 0;

  0000b	33 c0		 xor	 eax, eax

; 290  : }

  0000d	5d		 pop	 ebp
  0000e	c2 04 00	 ret	 4
$LN2@GetEnemyGu:

; 288  : 
; 289  : 	return m_adwEnemyGuildID[dwIndex];

  00011	8b 44 81 70	 mov	 eax, DWORD PTR [ecx+eax*4+112]

; 290  : }

  00015	5d		 pop	 ebp
  00016	c2 04 00	 ret	 4
?GetEnemyGuildID@CPythonGuild@@QAEKK@Z ENDP		; CPythonGuild::GetEnemyGuildID
_TEXT	ENDS
; Function compile flags: /Ogtp
; File D:\Metin2 Server Files\mainline\SRC_2014\Metin2Client\UserInterface\PythonGuild.cpp
;	COMDAT ?EndGuildWar@CPythonGuild@@QAEXK@Z
_TEXT	SEGMENT
_dwEnemyGuildID$ = 8					; size = 4
?EndGuildWar@CPythonGuild@@QAEXK@Z PROC			; CPythonGuild::EndGuildWar, COMDAT
; _this$ = ecx

; 278  : {

  00000	55		 push	 ebp
  00001	8b ec		 mov	 ebp, esp

; 279  : 	for (int i = 0; i < ENEMY_GUILD_SLOT_MAX_COUNT; ++i)
; 280  : 		if (dwEnemyGuildID == m_adwEnemyGuildID[i])

  00003	8b 45 08	 mov	 eax, DWORD PTR _dwEnemyGuildID$[ebp]
  00006	3b 41 70	 cmp	 eax, DWORD PTR [ecx+112]
  00009	75 07		 jne	 SHORT $LN2@EndGuildWa

; 281  : 			m_adwEnemyGuildID[i] = 0;

  0000b	c7 41 70 00 00
	00 00		 mov	 DWORD PTR [ecx+112], 0
$LN2@EndGuildWa:

; 279  : 	for (int i = 0; i < ENEMY_GUILD_SLOT_MAX_COUNT; ++i)
; 280  : 		if (dwEnemyGuildID == m_adwEnemyGuildID[i])

  00012	3b 41 74	 cmp	 eax, DWORD PTR [ecx+116]
  00015	75 07		 jne	 SHORT $LN14@EndGuildWa

; 281  : 			m_adwEnemyGuildID[i] = 0;

  00017	c7 41 74 00 00
	00 00		 mov	 DWORD PTR [ecx+116], 0
$LN14@EndGuildWa:

; 279  : 	for (int i = 0; i < ENEMY_GUILD_SLOT_MAX_COUNT; ++i)
; 280  : 		if (dwEnemyGuildID == m_adwEnemyGuildID[i])

  0001e	3b 41 78	 cmp	 eax, DWORD PTR [ecx+120]
  00021	75 07		 jne	 SHORT $LN16@EndGuildWa

; 281  : 			m_adwEnemyGuildID[i] = 0;

  00023	c7 41 78 00 00
	00 00		 mov	 DWORD PTR [ecx+120], 0
$LN16@EndGuildWa:

; 279  : 	for (int i = 0; i < ENEMY_GUILD_SLOT_MAX_COUNT; ++i)
; 280  : 		if (dwEnemyGuildID == m_adwEnemyGuildID[i])

  0002a	3b 41 7c	 cmp	 eax, DWORD PTR [ecx+124]
  0002d	75 07		 jne	 SHORT $LN18@EndGuildWa

; 281  : 			m_adwEnemyGuildID[i] = 0;

  0002f	c7 41 7c 00 00
	00 00		 mov	 DWORD PTR [ecx+124], 0
$LN18@EndGuildWa:

; 279  : 	for (int i = 0; i < ENEMY_GUILD_SLOT_MAX_COUNT; ++i)
; 280  : 		if (dwEnemyGuildID == m_adwEnemyGuildID[i])

  00036	3b 81 80 00 00
	00		 cmp	 eax, DWORD PTR [ecx+128]
  0003c	75 0a		 jne	 SHORT $LN20@EndGuildWa

; 281  : 			m_adwEnemyGuildID[i] = 0;

  0003e	c7 81 80 00 00
	00 00 00 00 00	 mov	 DWORD PTR [ecx+128], 0
$LN20@EndGuildWa:

; 279  : 	for (int i = 0; i < ENEMY_GUILD_SLOT_MAX_COUNT; ++i)
; 280  : 		if (dwEnemyGuildID == m_adwEnemyGuildID[i])

  00048	3b 81 84 00 00
	00		 cmp	 eax, DWORD PTR [ecx+132]
  0004e	75 0a		 jne	 SHORT $LN22@EndGuildWa

; 281  : 			m_adwEnemyGuildID[i] = 0;

  00050	c7 81 84 00 00
	00 00 00 00 00	 mov	 DWORD PTR [ecx+132], 0
$LN22@EndGuildWa:

; 282  : }

  0005a	5d		 pop	 ebp
  0005b	c2 04 00	 ret	 4
?EndGuildWar@CPythonGuild@@QAEXK@Z ENDP			; CPythonGuild::EndGuildWar
_TEXT	ENDS
; Function compile flags: /Ogtp
; File D:\Metin2 Server Files\mainline\SRC_2014\Metin2Client\UserInterface\PythonGuild.cpp
;	COMDAT ?StartGuildWar@CPythonGuild@@QAEXK@Z
_TEXT	SEGMENT
_dwEnemyGuildID$ = 8					; size = 4
?StartGuildWar@CPythonGuild@@QAEXK@Z PROC		; CPythonGuild::StartGuildWar, COMDAT
; _this$ = ecx

; 262  : {

  00000	55		 push	 ebp
  00001	8b ec		 mov	 ebp, esp
  00003	56		 push	 esi

; 263  : 	int i;
; 264  : 
; 265  : 	for (i = 0; i < ENEMY_GUILD_SLOT_MAX_COUNT; ++i)

  00004	8d 51 70	 lea	 edx, DWORD PTR [ecx+112]
  00007	33 f6		 xor	 esi, esi
  00009	57		 push	 edi
  0000a	8b 7d 08	 mov	 edi, DWORD PTR _dwEnemyGuildID$[ebp]
  0000d	8b c2		 mov	 eax, edx
  0000f	90		 npad	 1
$LL4@StartGuild:

; 266  : 		if (dwEnemyGuildID == m_adwEnemyGuildID[i])

  00010	3b 38		 cmp	 edi, DWORD PTR [eax]
  00012	74 24		 je	 SHORT $LN6@StartGuild

; 263  : 	int i;
; 264  : 
; 265  : 	for (i = 0; i < ENEMY_GUILD_SLOT_MAX_COUNT; ++i)

  00014	46		 inc	 esi
  00015	83 c0 04	 add	 eax, 4
  00018	83 fe 06	 cmp	 esi, 6
  0001b	7c f3		 jl	 SHORT $LL4@StartGuild

; 267  : 			return;
; 268  : 
; 269  : 	for (i = 0; i < ENEMY_GUILD_SLOT_MAX_COUNT; ++i)

  0001d	33 c0		 xor	 eax, eax
  0001f	90		 npad	 1
$LL7@StartGuild:

; 270  : 		if (0 == m_adwEnemyGuildID[i])

  00020	83 3a 00	 cmp	 DWORD PTR [edx], 0
  00023	74 0f		 je	 SHORT $LN14@StartGuild

; 267  : 			return;
; 268  : 
; 269  : 	for (i = 0; i < ENEMY_GUILD_SLOT_MAX_COUNT; ++i)

  00025	40		 inc	 eax
  00026	83 c2 04	 add	 edx, 4
  00029	83 f8 06	 cmp	 eax, 6
  0002c	7c f2		 jl	 SHORT $LL7@StartGuild

; 273  : 			break;
; 274  : 		}
; 275  : }

  0002e	5f		 pop	 edi
  0002f	5e		 pop	 esi
  00030	5d		 pop	 ebp
  00031	c2 04 00	 ret	 4
$LN14@StartGuild:

; 271  : 		{
; 272  : 			m_adwEnemyGuildID[i] = dwEnemyGuildID;

  00034	89 7c 81 70	 mov	 DWORD PTR [ecx+eax*4+112], edi
$LN6@StartGuild:
  00038	5f		 pop	 edi

; 273  : 			break;
; 274  : 		}
; 275  : }

  00039	5e		 pop	 esi
  0003a	5d		 pop	 ebp
  0003b	c2 04 00	 ret	 4
?StartGuildWar@CPythonGuild@@QAEXK@Z ENDP		; CPythonGuild::StartGuildWar
_TEXT	ENDS
; Function compile flags: /Ogtp
; File D:\Metin2 Server Files\mainline\SRC_2014\Metin2Client\UserInterface\PythonGuild.cpp
;	COMDAT ?HasGuildLand@CPythonGuild@@QAEHXZ
_TEXT	SEGMENT
?HasGuildLand@CPythonGuild@@QAEHXZ PROC			; CPythonGuild::HasGuildLand, COMDAT
; _this$ = ecx

; 258  : 	return m_GuildInfo.bHasLand;

  00000	8b 41 30	 mov	 eax, DWORD PTR [ecx+48]

; 259  : }

  00003	c3		 ret	 0
?HasGuildLand@CPythonGuild@@QAEHXZ ENDP			; CPythonGuild::HasGuildLand
_TEXT	ENDS
; Function compile flags: /Ogtp
; File D:\Metin2 Server Files\mainline\SRC_2014\Metin2Client\UserInterface\PythonGuild.cpp
;	COMDAT ?GetGuildID@CPythonGuild@@QAEKXZ
_TEXT	SEGMENT
?GetGuildID@CPythonGuild@@QAEKXZ PROC			; CPythonGuild::GetGuildID, COMDAT
; _this$ = ecx

; 253  : 	return m_GuildInfo.dwGuildID;

  00000	8b 41 04	 mov	 eax, DWORD PTR [ecx+4]

; 254  : }

  00003	c3		 ret	 0
?GetGuildID@CPythonGuild@@QAEKXZ ENDP			; CPythonGuild::GetGuildID
_TEXT	ENDS
; Function compile flags: /Ogtp
; File D:\Metin2 Server Files\mainline\SRC_2014\Metin2Client\UserInterface\PythonGuild.cpp
; File C:\Program Files (x86)\Microsoft Visual Studio\2019\Community\VC\Tools\MSVC\14.28.29333\include\xtree
; File D:\Metin2 Server Files\mainline\SRC_2014\Metin2Client\UserInterface\PythonGuild.cpp
; File C:\Program Files (x86)\Microsoft Visual Studio\2019\Community\VC\Tools\MSVC\14.28.29333\include\xtree
; File C:\Program Files (x86)\Microsoft Visual Studio\2019\Community\VC\Tools\MSVC\14.28.29333\include\xstddef
; File C:\Program Files (x86)\Microsoft Visual Studio\2019\Community\VC\Tools\MSVC\14.28.29333\include\xtree
; File D:\Metin2 Server Files\mainline\SRC_2014\Metin2Client\UserInterface\PythonGuild.cpp
; File C:\Program Files (x86)\Microsoft Visual Studio\2019\Community\VC\Tools\MSVC\14.28.29333\include\map
; File C:\Program Files (x86)\Microsoft Visual Studio\2019\Community\VC\Tools\MSVC\14.28.29333\include\xtree
; File C:\Program Files (x86)\Microsoft Visual Studio\2019\Community\VC\Tools\MSVC\14.28.29333\include\xstddef
; File C:\Program Files (x86)\Microsoft Visual Studio\2019\Community\VC\Tools\MSVC\14.28.29333\include\xtree
; File C:\Program Files (x86)\Microsoft Visual Studio\2019\Community\VC\Tools\MSVC\14.28.29333\include\map
; File C:\Program Files (x86)\Microsoft Visual Studio\2019\Community\VC\Tools\MSVC\14.28.29333\include\xmemory
; File C:\Program Files (x86)\Microsoft Visual Studio\2019\Community\VC\Tools\MSVC\14.28.29333\include\xtree
; File C:\Program Files (x86)\Microsoft Visual Studio\2019\Community\VC\Tools\MSVC\14.28.29333\include\xmemory
; File C:\Program Files (x86)\Microsoft Visual Studio\2019\Community\VC\Tools\MSVC\14.28.29333\include\xtree
; File C:\Program Files (x86)\Microsoft Visual Studio\2019\Community\VC\Tools\MSVC\14.28.29333\include\tuple
; File C:\Program Files (x86)\Microsoft Visual Studio\2019\Community\VC\Tools\MSVC\14.28.29333\include\xtree
; File C:\Program Files (x86)\Microsoft Visual Studio\2019\Community\VC\Tools\MSVC\14.28.29333\include\xstring
; File C:\Program Files (x86)\Microsoft Visual Studio\2019\Community\VC\Tools\MSVC\14.28.29333\include\xtree
; File C:\Program Files (x86)\Microsoft Visual Studio\2019\Community\VC\Tools\MSVC\14.28.29333\include\map
; File C:\Program Files (x86)\Microsoft Visual Studio\2019\Community\VC\Tools\MSVC\14.28.29333\include\xstring
; File C:\Program Files (x86)\Microsoft Visual Studio\2019\Community\VC\Tools\MSVC\14.28.29333\include\map
; File C:\Program Files (x86)\Microsoft Visual Studio\2019\Community\VC\Tools\MSVC\14.28.29333\include\xstring
; File D:\Metin2 Server Files\mainline\SRC_2014\Metin2Client\UserInterface\PythonGuild.cpp
; File C:\Program Files (x86)\Microsoft Visual Studio\2019\Community\VC\Tools\MSVC\14.28.29333\include\xtree
; File D:\Metin2 Server Files\mainline\SRC_2014\Metin2Client\UserInterface\PythonGuild.cpp
;	COMDAT ?GetGuildName@CPythonGuild@@QAE_NKPAV?$basic_string@DU?$char_traits@D@std@@V?$allocator@D@2@@std@@@Z
_TEXT	SEGMENT
__Loc$3 = -36						; size = 12
__Loc$4 = -36						; size = 12
$T5 = -24						; size = 8
__Myhead$6 = -16					; size = 4
__$EHRec$ = -12						; size = 12
_dwID$ = 8						; size = 4
_pstrGuildName$ = 12					; size = 4
?GetGuildName@CPythonGuild@@QAE_NKPAV?$basic_string@DU?$char_traits@D@std@@V?$allocator@D@2@@std@@@Z PROC ; CPythonGuild::GetGuildName, COMDAT
; _this$ = ecx

; 242  : {

  00000	55		 push	 ebp
  00001	8b ec		 mov	 ebp, esp
  00003	6a ff		 push	 -1
  00005	68 00 00 00 00	 push	 __ehhandler$?GetGuildName@CPythonGuild@@QAE_NKPAV?$basic_string@DU?$char_traits@D@std@@V?$allocator@D@2@@std@@@Z
  0000a	64 a1 00 00 00
	00		 mov	 eax, DWORD PTR fs:0
  00010	50		 push	 eax
  00011	83 ec 18	 sub	 esp, 24			; 00000018H
  00014	53		 push	 ebx
  00015	56		 push	 esi
  00016	57		 push	 edi
  00017	a1 00 00 00 00	 mov	 eax, DWORD PTR ___security_cookie
  0001c	33 c5		 xor	 eax, ebp
  0001e	50		 push	 eax
  0001f	8d 45 f4	 lea	 eax, DWORD PTR __$EHRec$[ebp]
  00022	64 a3 00 00 00
	00		 mov	 DWORD PTR fs:0, eax
; File C:\Program Files (x86)\Microsoft Visual Studio\2019\Community\VC\Tools\MSVC\14.28.29333\include\xtree

; 1458 :         const _Tree_find_result<_Nodeptr> _Loc = _Find_lower_bound(_Keyval);

  00028	8d 45 08	 lea	 eax, DWORD PTR _dwID$[ebp]
  0002b	50		 push	 eax
; File D:\Metin2 Server Files\mainline\SRC_2014\Metin2Client\UserInterface\PythonGuild.cpp

; 243  : 	if (m_GuildNameMap.end() == m_GuildNameMap.find(dwID))

  0002c	8d 79 68	 lea	 edi, DWORD PTR [ecx+104]
; File C:\Program Files (x86)\Microsoft Visual Studio\2019\Community\VC\Tools\MSVC\14.28.29333\include\xtree

; 1458 :         const _Tree_find_result<_Nodeptr> _Loc = _Find_lower_bound(_Keyval);

  0002f	8d 45 dc	 lea	 eax, DWORD PTR __Loc$4[ebp]
  00032	8b cf		 mov	 ecx, edi
  00034	50		 push	 eax
  00035	e8 00 00 00 00	 call	 ??$_Find_lower_bound@K@?$_Tree@V?$_Tmap_traits@KV?$basic_string@DU?$char_traits@D@std@@V?$allocator@D@2@@std@@U?$less@K@2@V?$allocator@U?$pair@$$CBKV?$basic_string@DU?$char_traits@D@std@@V?$allocator@D@2@@std@@@std@@@2@$0A@@std@@@std@@IBE?AU?$_Tree_find_result@PAU?$_Tree_node@U?$pair@$$CBKV?$basic_string@DU?$char_traits@D@std@@V?$allocator@D@2@@std@@@std@@PAX@std@@@1@ABK@Z ; std::_Tree<std::_Tmap_traits<unsigned long,std::basic_string<char,std::char_traits<char>,std::allocator<char> >,std::less<unsigned long>,std::allocator<std::pair<unsigned long const ,std::basic_string<char,std::char_traits<char>,std::allocator<char> > > >,0> >::_Find_lower_bound<unsigned long>

; 1695 :         return !_Bound->_Isnil && !_DEBUG_LT_PRED(_Getcomp(), _Keyval, _Traits::_Kfn(_Bound->_Myval));

  0003a	8b 45 e4	 mov	 eax, DWORD PTR __Loc$4[ebp+8]
  0003d	8b 75 08	 mov	 esi, DWORD PTR _dwID$[ebp]
  00040	80 78 0d 00	 cmp	 BYTE PTR [eax+13], 0
  00044	75 05		 jne	 SHORT $LN7@GetGuildNa
; File C:\Program Files (x86)\Microsoft Visual Studio\2019\Community\VC\Tools\MSVC\14.28.29333\include\xstddef

; 127  :         return _Left < _Right;

  00046	3b 70 10	 cmp	 esi, DWORD PTR [eax+16]
; File C:\Program Files (x86)\Microsoft Visual Studio\2019\Community\VC\Tools\MSVC\14.28.29333\include\xtree

; 1695 :         return !_Bound->_Isnil && !_DEBUG_LT_PRED(_Getcomp(), _Keyval, _Traits::_Kfn(_Bound->_Myval));

  00049	73 02		 jae	 SHORT $LN6@GetGuildNa
$LN7@GetGuildNa:

; 1463 :         return _Get_scary()->_Myhead;

  0004b	8b 07		 mov	 eax, DWORD PTR [edi]
$LN6@GetGuildNa:

; 39   :     _Tree_unchecked_const_iterator(_Nodeptr _Pnode, const _Mytree* _Plist) noexcept : _Ptr(_Pnode) {

  0004d	8b 1f		 mov	 ebx, DWORD PTR [edi]
; File D:\Metin2 Server Files\mainline\SRC_2014\Metin2Client\UserInterface\PythonGuild.cpp

; 243  : 	if (m_GuildNameMap.end() == m_GuildNameMap.find(dwID))

  0004f	3b d8		 cmp	 ebx, eax
  00051	75 16		 jne	 SHORT $LN2@GetGuildNa

; 244  : 		return false;

  00053	32 c0		 xor	 al, al

; 249  : }

  00055	8b 4d f4	 mov	 ecx, DWORD PTR __$EHRec$[ebp]
  00058	64 89 0d 00 00
	00 00		 mov	 DWORD PTR fs:0, ecx
  0005f	59		 pop	 ecx
  00060	5f		 pop	 edi
  00061	5e		 pop	 esi
  00062	5b		 pop	 ebx
  00063	8b e5		 mov	 esp, ebp
  00065	5d		 pop	 ebp
  00066	c2 08 00	 ret	 8
$LN2@GetGuildNa:
; File C:\Program Files (x86)\Microsoft Visual Studio\2019\Community\VC\Tools\MSVC\14.28.29333\include\map

; 176  :         const auto _Loc = _Mybase::_Find_lower_bound(_Keyval);

  00069	8d 45 08	 lea	 eax, DWORD PTR _dwID$[ebp]
  0006c	8b cf		 mov	 ecx, edi
  0006e	50		 push	 eax
  0006f	8d 45 dc	 lea	 eax, DWORD PTR __Loc$3[ebp]
  00072	50		 push	 eax
  00073	e8 00 00 00 00	 call	 ??$_Find_lower_bound@K@?$_Tree@V?$_Tmap_traits@KV?$basic_string@DU?$char_traits@D@std@@V?$allocator@D@2@@std@@U?$less@K@2@V?$allocator@U?$pair@$$CBKV?$basic_string@DU?$char_traits@D@std@@V?$allocator@D@2@@std@@@std@@@2@$0A@@std@@@std@@IBE?AU?$_Tree_find_result@PAU?$_Tree_node@U?$pair@$$CBKV?$basic_string@DU?$char_traits@D@std@@V?$allocator@D@2@@std@@@std@@PAX@std@@@1@ABK@Z ; std::_Tree<std::_Tmap_traits<unsigned long,std::basic_string<char,std::char_traits<char>,std::allocator<char> >,std::less<unsigned long>,std::allocator<std::pair<unsigned long const ,std::basic_string<char,std::char_traits<char>,std::allocator<char> > > >,0> >::_Find_lower_bound<unsigned long>
; File C:\Program Files (x86)\Microsoft Visual Studio\2019\Community\VC\Tools\MSVC\14.28.29333\include\xtree

; 1695 :         return !_Bound->_Isnil && !_DEBUG_LT_PRED(_Getcomp(), _Keyval, _Traits::_Kfn(_Bound->_Myval));

  00078	8b 45 e4	 mov	 eax, DWORD PTR __Loc$3[ebp+8]
  0007b	80 78 0d 00	 cmp	 BYTE PTR [eax+13], 0
  0007f	75 09		 jne	 SHORT $LN34@GetGuildNa
; File C:\Program Files (x86)\Microsoft Visual Studio\2019\Community\VC\Tools\MSVC\14.28.29333\include\xstddef

; 127  :         return _Left < _Right;

  00081	3b 70 10	 cmp	 esi, DWORD PTR [eax+16]
; File C:\Program Files (x86)\Microsoft Visual Studio\2019\Community\VC\Tools\MSVC\14.28.29333\include\xtree

; 1695 :         return !_Bound->_Isnil && !_DEBUG_LT_PRED(_Getcomp(), _Keyval, _Traits::_Kfn(_Bound->_Myval));

  00084	0f 83 84 00 00
	00		 jae	 $LN33@GetGuildNa
$LN34@GetGuildNa:

; 1719 :         if (max_size() == _Get_scary()->_Mysize) {

  0008a	81 7f 04 5d 74
	d1 05		 cmp	 DWORD PTR [edi+4], 97612893 ; 05d1745dH
  00091	0f 84 aa 00 00
	00		 je	 $LN148@GetGuildNa
; File C:\Program Files (x86)\Microsoft Visual Studio\2019\Community\VC\Tools\MSVC\14.28.29333\include\map

; 184  :         const auto _Inserted = _Tree_temp_node<_Alnode>(_Mybase::_Getal(), _Scary->_Myhead, piecewise_construct,

  00097	89 5d f0	 mov	 DWORD PTR __Myhead$6[ebp], ebx
; File C:\Program Files (x86)\Microsoft Visual Studio\2019\Community\VC\Tools\MSVC\14.28.29333\include\xmemory

; 1045 :     explicit _Alloc_construct_ptr(_Alloc& _Al_) : _Al(_Al_), _Ptr(nullptr) {}

  0009a	89 7d e8	 mov	 DWORD PTR $T5[ebp], edi

; 814  :         return static_cast<_Ty*>(_Allocate<_New_alignof<_Ty>>(_Get_size_of_n<sizeof(_Ty)>(_Count)));

  0009d	6a 2c		 push	 44			; 0000002cH
; File C:\Program Files (x86)\Microsoft Visual Studio\2019\Community\VC\Tools\MSVC\14.28.29333\include\xtree

; 784  :     explicit _Tree_temp_node_alloc(_Alnode& _Al_) : _Alloc_construct_ptr<_Alnode>(_Al_) {

  0009f	c7 45 fc 00 00
	00 00		 mov	 DWORD PTR __$EHRec$[ebp+8], 0
; File C:\Program Files (x86)\Microsoft Visual Studio\2019\Community\VC\Tools\MSVC\14.28.29333\include\xmemory

; 1052 :         _Ptr = nullptr; // if allocate throws, prevents double-free

  000a6	c7 45 ec 00 00
	00 00		 mov	 DWORD PTR $T5[ebp+4], 0

; 814  :         return static_cast<_Ty*>(_Allocate<_New_alignof<_Ty>>(_Get_size_of_n<sizeof(_Ty)>(_Count)));

  000ad	e8 00 00 00 00	 call	 ??$_Allocate@$07U_Default_allocate_traits@std@@$0A@@std@@YAPAXI@Z ; std::_Allocate<8,std::_Default_allocate_traits,0>

; 1053 :         _Ptr = _Al.allocate(1);

  000b2	8b f0		 mov	 esi, eax
; File C:\Program Files (x86)\Microsoft Visual Studio\2019\Community\VC\Tools\MSVC\14.28.29333\include\xtree

; 786  :     }

  000b4	c7 45 fc ff ff
	ff ff		 mov	 DWORD PTR __$EHRec$[ebp+8], -1
; File C:\Program Files (x86)\Microsoft Visual Studio\2019\Community\VC\Tools\MSVC\14.28.29333\include\tuple

; 980  :     : first(_STD get<_Indexes1>(_STD move(_Val1))...), second(_STD get<_Indexes2>(_STD move(_Val2))...) {}

  000bb	8b 45 08	 mov	 eax, DWORD PTR _dwID$[ebp]
  000be	89 46 10	 mov	 DWORD PTR [esi+16], eax
; File C:\Program Files (x86)\Microsoft Visual Studio\2019\Community\VC\Tools\MSVC\14.28.29333\include\xtree

; 807  :         _Construct_in_place(this->_Ptr->_Left, _Myhead);

  000c1	8d 45 f0	 lea	 eax, DWORD PTR __Myhead$6[ebp]
  000c4	50		 push	 eax
  000c5	56		 push	 esi
; File C:\Program Files (x86)\Microsoft Visual Studio\2019\Community\VC\Tools\MSVC\14.28.29333\include\xstring

; 4377 :         _Mypair._Myval2._Mysize = 0;

  000c6	c7 46 24 00 00
	00 00		 mov	 DWORD PTR [esi+36], 0

; 4378 :         _Mypair._Myval2._Myres  = _BUF_SIZE - 1;

  000cd	c7 46 28 0f 00
	00 00		 mov	 DWORD PTR [esi+40], 15	; 0000000fH

; 4379 :         // the _Traits::assign is last so the codegen doesn't think the char write can alias this
; 4380 :         _Traits::assign(_Mypair._Myval2._Bx._Buf[0], _Elem());

  000d4	c6 46 14 00	 mov	 BYTE PTR [esi+20], 0
; File C:\Program Files (x86)\Microsoft Visual Studio\2019\Community\VC\Tools\MSVC\14.28.29333\include\xtree

; 807  :         _Construct_in_place(this->_Ptr->_Left, _Myhead);

  000d8	e8 00 00 00 00	 call	 ??$_Construct_in_place@PAU?$_Tree_node@U?$pair@$$CBKV?$basic_string@DU?$char_traits@D@std@@V?$allocator@D@2@@std@@@std@@PAX@std@@AAPAU12@@std@@YAXAAPAU?$_Tree_node@U?$pair@$$CBKV?$basic_string@DU?$char_traits@D@std@@V?$allocator@D@2@@std@@@std@@PAX@0@0@Z ; std::_Construct_in_place<std::_Tree_node<std::pair<unsigned long const ,std::basic_string<char,std::char_traits<char>,std::allocator<char> > >,void *> *,std::_Tree_node<std::pair<unsigned long const ,std::basic_string<char,std::char_traits<char>,std::allocator<char> > >,void *> * &>

; 808  :         _Construct_in_place(this->_Ptr->_Parent, _Myhead);

  000dd	8d 45 f0	 lea	 eax, DWORD PTR __Myhead$6[ebp]
  000e0	50		 push	 eax
  000e1	8d 46 04	 lea	 eax, DWORD PTR [esi+4]
  000e4	50		 push	 eax
  000e5	e8 00 00 00 00	 call	 ??$_Construct_in_place@PAU?$_Tree_node@U?$pair@$$CBKV?$basic_string@DU?$char_traits@D@std@@V?$allocator@D@2@@std@@@std@@PAX@std@@AAPAU12@@std@@YAXAAPAU?$_Tree_node@U?$pair@$$CBKV?$basic_string@DU?$char_traits@D@std@@V?$allocator@D@2@@std@@@std@@PAX@0@0@Z ; std::_Construct_in_place<std::_Tree_node<std::pair<unsigned long const ,std::basic_string<char,std::char_traits<char>,std::allocator<char> > >,void *> *,std::_Tree_node<std::pair<unsigned long const ,std::basic_string<char,std::char_traits<char>,std::allocator<char> > >,void *> * &>

; 809  :         _Construct_in_place(this->_Ptr->_Right, _Myhead);

  000ea	8d 45 f0	 lea	 eax, DWORD PTR __Myhead$6[ebp]
  000ed	50		 push	 eax
  000ee	8d 46 08	 lea	 eax, DWORD PTR [esi+8]
  000f1	50		 push	 eax
  000f2	e8 00 00 00 00	 call	 ??$_Construct_in_place@PAU?$_Tree_node@U?$pair@$$CBKV?$basic_string@DU?$char_traits@D@std@@V?$allocator@D@2@@std@@@std@@PAX@std@@AAPAU12@@std@@YAXAAPAU?$_Tree_node@U?$pair@$$CBKV?$basic_string@DU?$char_traits@D@std@@V?$allocator@D@2@@std@@@std@@PAX@0@0@Z ; std::_Construct_in_place<std::_Tree_node<std::pair<unsigned long const ,std::basic_string<char,std::char_traits<char>,std::allocator<char> > >,void *> *,std::_Tree_node<std::pair<unsigned long const ,std::basic_string<char,std::char_traits<char>,std::allocator<char> > >,void *> * &>
  000f7	83 c4 1c	 add	 esp, 28			; 0000001cH

; 810  :         this->_Ptr->_Color = _Red;

  000fa	66 c7 46 0c 00
	00		 mov	 WORD PTR [esi+12], 0
; File C:\Program Files (x86)\Microsoft Visual Studio\2019\Community\VC\Tools\MSVC\14.28.29333\include\map

; 190  :         return {_Scary->_Insert_node(_Loc._Location, _Inserted), true};

  00100	8b cf		 mov	 ecx, edi
  00102	56		 push	 esi
  00103	ff 75 e0	 push	 DWORD PTR __Loc$3[ebp+4]
  00106	ff 75 dc	 push	 DWORD PTR __Loc$3[ebp]
  00109	e8 00 00 00 00	 call	 ?_Insert_node@?$_Tree_val@U?$_Tree_simple_types@U?$pair@$$CBKV?$basic_string@DU?$char_traits@D@std@@V?$allocator@D@2@@std@@@std@@@std@@@std@@QAEPAU?$_Tree_node@U?$pair@$$CBKV?$basic_string@DU?$char_traits@D@std@@V?$allocator@D@2@@std@@@std@@PAX@2@U?$_Tree_id@PAU?$_Tree_node@U?$pair@$$CBKV?$basic_string@DU?$char_traits@D@std@@V?$allocator@D@2@@std@@@std@@PAX@std@@@2@QAU32@@Z ; std::_Tree_val<std::_Tree_simple_types<std::pair<unsigned long const ,std::basic_string<char,std::char_traits<char>,std::allocator<char> > > > >::_Insert_node
$LN33@GetGuildNa:
; File C:\Program Files (x86)\Microsoft Visual Studio\2019\Community\VC\Tools\MSVC\14.28.29333\include\xstring

; 2863 :         if (this != _STD addressof(_Right)) {

  0010e	8b 4d 0c	 mov	 ecx, DWORD PTR _pstrGuildName$[ebp]
; File C:\Program Files (x86)\Microsoft Visual Studio\2019\Community\VC\Tools\MSVC\14.28.29333\include\map

; 325  :         return _Try_emplace(_Keyval).first->_Myval.second;

  00111	83 c0 14	 add	 eax, 20			; 00000014H
; File C:\Program Files (x86)\Microsoft Visual Studio\2019\Community\VC\Tools\MSVC\14.28.29333\include\xstring

; 2863 :         if (this != _STD addressof(_Right)) {

  00114	3b c8		 cmp	 ecx, eax
  00116	74 13		 je	 SHORT $LN134@GetGuildNa

; 2227 :         return _BUF_SIZE <= _Myres;

  00118	83 78 14 10	 cmp	 DWORD PTR [eax+20], 16	; 00000010H

; 2218 :         const value_type* _Result = _Bx._Buf;

  0011c	8b d0		 mov	 edx, eax

; 2219 :         if (_Large_string_engaged()) {

  0011e	72 02		 jb	 SHORT $LN139@GetGuildNa

; 2220 :             _Result = _Unfancy(_Bx._Ptr);

  00120	8b 10		 mov	 edx, DWORD PTR [eax]
$LN139@GetGuildNa:

; 2828 :         assign(_Right._Mypair._Myval2._Myptr(), _Right._Mypair._Myval2._Mysize);

  00122	ff 70 10	 push	 DWORD PTR [eax+16]
  00125	52		 push	 edx
  00126	e8 00 00 00 00	 call	 ?assign@?$basic_string@DU?$char_traits@D@std@@V?$allocator@D@2@@std@@QAEAAV12@QBDI@Z ; std::basic_string<char,std::char_traits<char>,std::allocator<char> >::assign
$LN134@GetGuildNa:
; File D:\Metin2 Server Files\mainline\SRC_2014\Metin2Client\UserInterface\PythonGuild.cpp

; 248  : 	return true;

  0012b	b0 01		 mov	 al, 1

; 249  : }

  0012d	8b 4d f4	 mov	 ecx, DWORD PTR __$EHRec$[ebp]
  00130	64 89 0d 00 00
	00 00		 mov	 DWORD PTR fs:0, ecx
  00137	59		 pop	 ecx
  00138	5f		 pop	 edi
  00139	5e		 pop	 esi
  0013a	5b		 pop	 ebx
  0013b	8b e5		 mov	 esp, ebp
  0013d	5d		 pop	 ebp
  0013e	c2 08 00	 ret	 8
$LN148@GetGuildNa:
; File C:\Program Files (x86)\Microsoft Visual Studio\2019\Community\VC\Tools\MSVC\14.28.29333\include\xtree

; 1720 :             _Throw_tree_length_error();

  00141	e8 00 00 00 00	 call	 ?_Throw_tree_length_error@std@@YAXXZ ; std::_Throw_tree_length_error
$LN146@GetGuildNa:
  00146	cc		 int	 3
_TEXT	ENDS
;	COMDAT text$x
text$x	SEGMENT
__unwindfunclet$?GetGuildName@CPythonGuild@@QAE_NKPAV?$basic_string@DU?$char_traits@D@std@@V?$allocator@D@2@@std@@@Z$2:
  00000	8d 4d e8	 lea	 ecx, DWORD PTR $T5[ebp]
  00003	e9 00 00 00 00	 jmp	 ??1?$_Alloc_construct_ptr@V?$allocator@U?$_Tree_node@U?$pair@$$CBKV?$basic_string@DU?$char_traits@D@std@@V?$allocator@D@2@@std@@@std@@PAX@std@@@std@@@std@@QAE@XZ ; std::_Alloc_construct_ptr<std::allocator<std::_Tree_node<std::pair<unsigned long const ,std::basic_string<char,std::char_traits<char>,std::allocator<char> > >,void *> > >::~_Alloc_construct_ptr<std::allocator<std::_Tree_node<std::pair<unsigned long const ,std::basic_string<char,std::char_traits<char>,std::allocator<char> > >,void *> > >
  00008	cc		 int	 3
  00009	cc		 int	 3
  0000a	cc		 int	 3
  0000b	cc		 int	 3
  0000c	cc		 int	 3
__ehhandler$?GetGuildName@CPythonGuild@@QAE_NKPAV?$basic_string@DU?$char_traits@D@std@@V?$allocator@D@2@@std@@@Z:
  0000d	90		 npad	 1
  0000e	90		 npad	 1
  0000f	8b 54 24 08	 mov	 edx, DWORD PTR [esp+8]
  00013	8d 42 0c	 lea	 eax, DWORD PTR [edx+12]
  00016	8b 4a d8	 mov	 ecx, DWORD PTR [edx-40]
  00019	33 c8		 xor	 ecx, eax
  0001b	e8 00 00 00 00	 call	 @__security_check_cookie@4
  00020	b8 00 00 00 00	 mov	 eax, OFFSET __ehfuncinfo$?GetGuildName@CPythonGuild@@QAE_NKPAV?$basic_string@DU?$char_traits@D@std@@V?$allocator@D@2@@std@@@Z
  00025	e9 00 00 00 00	 jmp	 ___CxxFrameHandler3
text$x	ENDS
?GetGuildName@CPythonGuild@@QAE_NKPAV?$basic_string@DU?$char_traits@D@std@@V?$allocator@D@2@@std@@@Z ENDP ; CPythonGuild::GetGuildName
; Function compile flags: /Ogtp
; File D:\Metin2 Server Files\mainline\SRC_2014\Metin2Client\UserInterface\PythonGuild.cpp
;	COMDAT ?GetGuildSkillDataRef@CPythonGuild@@QAEAAUSGuildSkillData@1@XZ
_TEXT	SEGMENT
?GetGuildSkillDataRef@CPythonGuild@@QAEAAUSGuildSkillData@1@XZ PROC ; CPythonGuild::GetGuildSkillDataRef, COMDAT
; _this$ = ecx

; 238  : 	return m_GuildSkillData;

  00000	8d 41 54	 lea	 eax, DWORD PTR [ecx+84]

; 239  : }

  00003	c3		 ret	 0
?GetGuildSkillDataRef@CPythonGuild@@QAEAAUSGuildSkillData@1@XZ ENDP ; CPythonGuild::GetGuildSkillDataRef
_TEXT	ENDS
; Function compile flags: /Ogtp
; File D:\Metin2 Server Files\mainline\SRC_2014\Metin2Client\UserInterface\PythonGuild.cpp
;	COMDAT ?GetGuildExperienceSummary@CPythonGuild@@QAEKXZ
_TEXT	SEGMENT
?GetGuildExperienceSummary@CPythonGuild@@QAEKXZ PROC	; CPythonGuild::GetGuildExperienceSummary, COMDAT
; _this$ = ecx

; 233  : 	return m_dwMemberExperienceSummary;

  00000	8b 81 90 00 00
	00		 mov	 eax, DWORD PTR [ecx+144]

; 234  : }

  00006	c3		 ret	 0
?GetGuildExperienceSummary@CPythonGuild@@QAEKXZ ENDP	; CPythonGuild::GetGuildExperienceSummary
_TEXT	ENDS
; Function compile flags: /Ogtp
; File D:\Metin2 Server Files\mainline\SRC_2014\Metin2Client\UserInterface\PythonGuild.cpp
;	COMDAT ?GetGuildMemberLevelAverage@CPythonGuild@@QAEKXZ
_TEXT	SEGMENT
?GetGuildMemberLevelAverage@CPythonGuild@@QAEKXZ PROC	; CPythonGuild::GetGuildMemberLevelAverage, COMDAT
; _this$ = ecx

; 228  : 	return m_dwMemberLevelAverage;

  00000	8b 81 8c 00 00
	00		 mov	 eax, DWORD PTR [ecx+140]

; 229  : }

  00006	c3		 ret	 0
?GetGuildMemberLevelAverage@CPythonGuild@@QAEKXZ ENDP	; CPythonGuild::GetGuildMemberLevelAverage
_TEXT	ENDS
; Function compile flags: /Ogtp
; File D:\Metin2 Server Files\mainline\SRC_2014\Metin2Client\UserInterface\PythonGuild.cpp
;	COMDAT ?GetGuildMemberLevelSummary@CPythonGuild@@QAEKXZ
_TEXT	SEGMENT
?GetGuildMemberLevelSummary@CPythonGuild@@QAEKXZ PROC	; CPythonGuild::GetGuildMemberLevelSummary, COMDAT
; _this$ = ecx

; 223  : 	return m_dwMemberLevelSummary;

  00000	8b 81 88 00 00
	00		 mov	 eax, DWORD PTR [ecx+136]

; 224  : }

  00006	c3		 ret	 0
?GetGuildMemberLevelSummary@CPythonGuild@@QAEKXZ ENDP	; CPythonGuild::GetGuildMemberLevelSummary
_TEXT	ENDS
; Function compile flags: /Ogtp
; File D:\Metin2 Server Files\mainline\SRC_2014\Metin2Client\UserInterface\PythonGuild.cpp
; File C:\Program Files (x86)\Microsoft Visual Studio\2019\Community\VC\Tools\MSVC\14.28.29333\include\xstring
; File D:\Metin2 Server Files\mainline\SRC_2014\Metin2Client\UserInterface\PythonGuild.cpp
; File C:\Program Files (x86)\Microsoft Visual Studio\2019\Community\VC\Tools\MSVC\14.28.29333\include\xstring
; File D:\Metin2 Server Files\mainline\SRC_2014\Metin2Client\UserInterface\PythonGuild.cpp
; File C:\Program Files (x86)\Microsoft Visual Studio\2019\Community\VC\Tools\MSVC\14.28.29333\include\xstring
; File C:\Program Files (x86)\Microsoft Visual Studio\2019\Community\VC\Tools\MSVC\14.28.29333\include\vector
; File C:\Program Files (x86)\Microsoft Visual Studio\2019\Community\VC\Tools\MSVC\14.28.29333\include\xutility
; File C:\Program Files (x86)\Microsoft Visual Studio\2019\Community\VC\Tools\MSVC\14.28.29333\include\xstring
; File D:\Metin2 Server Files\mainline\SRC_2014\Metin2Client\UserInterface\PythonGuild.cpp
; File C:\Program Files (x86)\Microsoft Visual Studio\2019\Community\VC\Tools\MSVC\14.28.29333\include\xutility
; File C:\Program Files (x86)\Microsoft Visual Studio\2019\Community\VC\Tools\MSVC\14.28.29333\include\vector
; File C:\Program Files (x86)\Microsoft Visual Studio\2019\Community\VC\Tools\MSVC\14.28.29333\include\xstring
; File C:\Program Files (x86)\Microsoft Visual Studio\2019\Community\VC\Tools\MSVC\14.28.29333\include\vector
; File C:\Program Files (x86)\Microsoft Visual Studio\2019\Community\VC\Tools\MSVC\14.28.29333\include\xstring
; File C:\Program Files (x86)\Microsoft Visual Studio\2019\Community\VC\Tools\MSVC\14.28.29333\include\xmemory
; File C:\Program Files (x86)\Microsoft Visual Studio\2019\Community\VC\Tools\MSVC\14.28.29333\include\vector
; File D:\Metin2 Server Files\mainline\SRC_2014\Metin2Client\UserInterface\PythonGuild.cpp
;	COMDAT ?GetMemberDataPtrByName@CPythonGuild@@QAEHPBDPAPAUSGuildMemberData@1@@Z
_TEXT	SEGMENT
$T1 = -28						; size = 24
_c_szName$ = 8						; size = 4
_ppData$ = 12						; size = 4
?GetMemberDataPtrByName@CPythonGuild@@QAEHPBDPAPAUSGuildMemberData@1@@Z PROC ; CPythonGuild::GetMemberDataPtrByName, COMDAT
; _this$ = ecx

; 208  : {

  00000	55		 push	 ebp
  00001	8b ec		 mov	 ebp, esp
  00003	83 ec 1c	 sub	 esp, 28			; 0000001cH
  00006	53		 push	 ebx
  00007	56		 push	 esi
; File C:\Program Files (x86)\Microsoft Visual Studio\2019\Community\VC\Tools\MSVC\14.28.29333\include\xstring

; 389  :         return _CSTD strlen(reinterpret_cast<const char*>(_First));

  00008	8b 75 08	 mov	 esi, DWORD PTR _c_szName$[ebp]
; File D:\Metin2 Server Files\mainline\SRC_2014\Metin2Client\UserInterface\PythonGuild.cpp

; 208  : {

  0000b	8b d9		 mov	 ebx, ecx
; File C:\Program Files (x86)\Microsoft Visual Studio\2019\Community\VC\Tools\MSVC\14.28.29333\include\xstring

; 389  :         return _CSTD strlen(reinterpret_cast<const char*>(_First));

  0000d	8b d6		 mov	 edx, esi

; 4377 :         _Mypair._Myval2._Mysize = 0;

  0000f	c7 45 f4 00 00
	00 00		 mov	 DWORD PTR $T1[ebp+16], 0
; File D:\Metin2 Server Files\mainline\SRC_2014\Metin2Client\UserInterface\PythonGuild.cpp

; 208  : {

  00016	57		 push	 edi
; File C:\Program Files (x86)\Microsoft Visual Studio\2019\Community\VC\Tools\MSVC\14.28.29333\include\xstring

; 4378 :         _Mypair._Myval2._Myres  = _BUF_SIZE - 1;

  00017	c7 45 f8 0f 00
	00 00		 mov	 DWORD PTR $T1[ebp+20], 15 ; 0000000fH

; 4379 :         // the _Traits::assign is last so the codegen doesn't think the char write can alias this
; 4380 :         _Traits::assign(_Mypair._Myval2._Bx._Buf[0], _Elem());

  0001e	c6 45 e4 00	 mov	 BYTE PTR $T1[ebp], 0

; 389  :         return _CSTD strlen(reinterpret_cast<const char*>(_First));

  00022	8d 4a 01	 lea	 ecx, DWORD PTR [edx+1]
$LL83@GetMemberD:
  00025	8a 02		 mov	 al, BYTE PTR [edx]
  00027	42		 inc	 edx
  00028	84 c0		 test	 al, al
  0002a	75 f9		 jne	 SHORT $LL83@GetMemberD
  0002c	2b d1		 sub	 edx, ecx

; 3062 :         return assign(_Ptr, _Convert_size<size_type>(_Traits::length(_Ptr)));

  0002e	8d 4d e4	 lea	 ecx, DWORD PTR $T1[ebp]
  00031	52		 push	 edx
  00032	56		 push	 esi
  00033	e8 00 00 00 00	 call	 ?assign@?$basic_string@DU?$char_traits@D@std@@V?$allocator@D@2@@std@@QAEAAV12@QBDI@Z ; std::basic_string<char,std::char_traits<char>,std::allocator<char> >::assign
; File C:\Program Files (x86)\Microsoft Visual Studio\2019\Community\VC\Tools\MSVC\14.28.29333\include\vector

; 42   :     _Vector_const_iterator(_Tptr _Parg, const _Container_base* _Pvector) noexcept : _Ptr(_Parg) {

  00038	8b 7b 40	 mov	 edi, DWORD PTR [ebx+64]
  0003b	8b 73 3c	 mov	 esi, DWORD PTR [ebx+60]
; File C:\Program Files (x86)\Microsoft Visual Studio\2019\Community\VC\Tools\MSVC\14.28.29333\include\xutility

; 5791 :     for (; _UFirst != _ULast; ++_UFirst) {

  0003e	3b f7		 cmp	 esi, edi
  00040	74 1f		 je	 SHORT $LN79@GetMemberD
$LL41@GetMemberD:
; File C:\Program Files (x86)\Microsoft Visual Studio\2019\Community\VC\Tools\MSVC\14.28.29333\include\xstring

; 2227 :         return _BUF_SIZE <= _Myres;

  00042	83 7e 18 10	 cmp	 DWORD PTR [esi+24], 16	; 00000010H

; 2218 :         const value_type* _Result = _Bx._Buf;

  00046	8d 46 04	 lea	 eax, DWORD PTR [esi+4]

; 2219 :         if (_Large_string_engaged()) {

  00049	72 02		 jb	 SHORT $LN49@GetMemberD

; 2220 :             _Result = _Unfancy(_Bx._Ptr);

  0004b	8b 00		 mov	 eax, DWORD PTR [eax]
$LN49@GetMemberD:
; File D:\Metin2 Server Files\mainline\SRC_2014\Metin2Client\UserInterface\PythonGuild.cpp

; 100  : 		return 0 == strSearchingName.compare(rGuildMemberData.strName.c_str());

  0004d	50		 push	 eax
  0004e	8d 4d e4	 lea	 ecx, DWORD PTR $T1[ebp]
  00051	e8 00 00 00 00	 call	 ?compare@?$basic_string@DU?$char_traits@D@std@@V?$allocator@D@2@@std@@QBEHQBD@Z ; std::basic_string<char,std::char_traits<char>,std::allocator<char> >::compare
  00056	85 c0		 test	 eax, eax
; File C:\Program Files (x86)\Microsoft Visual Studio\2019\Community\VC\Tools\MSVC\14.28.29333\include\xutility

; 5792 :         if (_Pred(*_UFirst)) {

  00058	74 07		 je	 SHORT $LN79@GetMemberD

; 5791 :     for (; _UFirst != _ULast; ++_UFirst) {

  0005a	83 c6 24	 add	 esi, 36			; 00000024H
  0005d	3b f7		 cmp	 esi, edi
  0005f	75 e1		 jne	 SHORT $LL41@GetMemberD
$LN79@GetMemberD:
; File C:\Program Files (x86)\Microsoft Visual Studio\2019\Community\VC\Tools\MSVC\14.28.29333\include\vector

; 195  :         _Ptr = _Refancy<_Tptr>(const_cast<value_type*>(_It));

  00061	56		 push	 esi
  00062	e8 00 00 00 00	 call	 ??$_Refancy@PAUSGuildMemberData@CPythonGuild@@$0A@@std@@YAPAUSGuildMemberData@CPythonGuild@@PAU12@@Z ; std::_Refancy<CPythonGuild::SGuildMemberData *,0>
; File C:\Program Files (x86)\Microsoft Visual Studio\2019\Community\VC\Tools\MSVC\14.28.29333\include\xstring

; 2227 :         return _BUF_SIZE <= _Myres;

  00067	8b 4d f8	 mov	 ecx, DWORD PTR $T1[ebp+20]
; File C:\Program Files (x86)\Microsoft Visual Studio\2019\Community\VC\Tools\MSVC\14.28.29333\include\vector

; 195  :         _Ptr = _Refancy<_Tptr>(const_cast<value_type*>(_It));

  0006a	83 c4 04	 add	 esp, 4
  0006d	8b f0		 mov	 esi, eax
; File C:\Program Files (x86)\Microsoft Visual Studio\2019\Community\VC\Tools\MSVC\14.28.29333\include\xstring

; 2227 :         return _BUF_SIZE <= _Myres;

  0006f	83 f9 10	 cmp	 ecx, 16			; 00000010H

; 4385 :         if (_Mypair._Myval2._Large_string_engaged()) {

  00072	72 0d		 jb	 SHORT $LN64@GetMemberD

; 4386 :             const pointer _Ptr = _Mypair._Myval2._Bx._Ptr;
; 4387 :             auto& _Al          = _Getal();
; 4388 :             _Destroy_in_place(_Mypair._Myval2._Bx._Ptr);
; 4389 :             _Al.deallocate(_Ptr, _Mypair._Myval2._Myres + 1);

  00074	41		 inc	 ecx
; File C:\Program Files (x86)\Microsoft Visual Studio\2019\Community\VC\Tools\MSVC\14.28.29333\include\xmemory

; 810  :         _Deallocate<_New_alignof<_Ty>>(_Ptr, sizeof(_Ty) * _Count);

  00075	51		 push	 ecx
  00076	ff 75 e4	 push	 DWORD PTR $T1[ebp]
  00079	e8 00 00 00 00	 call	 ??$_Deallocate@$07$0A@@std@@YAXPAXI@Z ; std::_Deallocate<8,0>
  0007e	83 c4 08	 add	 esp, 8
$LN64@GetMemberD:
; File C:\Program Files (x86)\Microsoft Visual Studio\2019\Community\VC\Tools\MSVC\14.28.29333\include\vector

; 42   :     _Vector_const_iterator(_Tptr _Parg, const _Container_base* _Pvector) noexcept : _Ptr(_Parg) {

  00081	39 73 40	 cmp	 DWORD PTR [ebx+64], esi
; File D:\Metin2 Server Files\mainline\SRC_2014\Metin2Client\UserInterface\PythonGuild.cpp

; 214  : 	if (m_GuildMemberDataVector.end() == itor)

  00084	75 0b		 jne	 SHORT $LN2@GetMemberD

; 215  : 		return FALSE;

  00086	33 c0		 xor	 eax, eax

; 218  : 	return TRUE;
; 219  : }

  00088	5f		 pop	 edi
  00089	5e		 pop	 esi
  0008a	5b		 pop	 ebx
  0008b	8b e5		 mov	 esp, ebp
  0008d	5d		 pop	 ebp
  0008e	c2 08 00	 ret	 8
$LN2@GetMemberD:

; 216  : 
; 217  : 	*ppData = &(*itor);

  00091	8b 45 0c	 mov	 eax, DWORD PTR _ppData$[ebp]

; 218  : 	return TRUE;
; 219  : }

  00094	5f		 pop	 edi
  00095	89 30		 mov	 DWORD PTR [eax], esi
  00097	b8 01 00 00 00	 mov	 eax, 1
  0009c	5e		 pop	 esi
  0009d	5b		 pop	 ebx
  0009e	8b e5		 mov	 esp, ebp
  000a0	5d		 pop	 ebp
  000a1	c2 08 00	 ret	 8
?GetMemberDataPtrByName@CPythonGuild@@QAEHPBDPAPAUSGuildMemberData@1@@Z ENDP ; CPythonGuild::GetMemberDataPtrByName
_TEXT	ENDS
; Function compile flags: /Ogtp
; File D:\Metin2 Server Files\mainline\SRC_2014\Metin2Client\UserInterface\PythonGuild.cpp
; File C:\Program Files (x86)\Microsoft Visual Studio\2019\Community\VC\Tools\MSVC\14.28.29333\include\vector
; File D:\Metin2 Server Files\mainline\SRC_2014\Metin2Client\UserInterface\PythonGuild.cpp
; File C:\Program Files (x86)\Microsoft Visual Studio\2019\Community\VC\Tools\MSVC\14.28.29333\include\vector
; File C:\Program Files (x86)\Microsoft Visual Studio\2019\Community\VC\Tools\MSVC\14.28.29333\include\xutility
; File D:\Metin2 Server Files\mainline\SRC_2014\Metin2Client\UserInterface\PythonGuild.cpp
; File C:\Program Files (x86)\Microsoft Visual Studio\2019\Community\VC\Tools\MSVC\14.28.29333\include\xutility
; File C:\Program Files (x86)\Microsoft Visual Studio\2019\Community\VC\Tools\MSVC\14.28.29333\include\vector
; File D:\Metin2 Server Files\mainline\SRC_2014\Metin2Client\UserInterface\PythonGuild.cpp
;	COMDAT ?GetMemberDataPtrByPID@CPythonGuild@@QAEHKPAPAUSGuildMemberData@1@@Z
_TEXT	SEGMENT
_dwPID$ = 8						; size = 4
_ppData$ = 12						; size = 4
?GetMemberDataPtrByPID@CPythonGuild@@QAEHKPAPAUSGuildMemberData@1@@Z PROC ; CPythonGuild::GetMemberDataPtrByPID, COMDAT
; _this$ = ecx

; 194  : {

  00000	55		 push	 ebp
  00001	8b ec		 mov	 ebp, esp
; File C:\Program Files (x86)\Microsoft Visual Studio\2019\Community\VC\Tools\MSVC\14.28.29333\include\vector

; 42   :     _Vector_const_iterator(_Tptr _Parg, const _Container_base* _Pvector) noexcept : _Ptr(_Parg) {

  00003	8b 41 3c	 mov	 eax, DWORD PTR [ecx+60]
; File D:\Metin2 Server Files\mainline\SRC_2014\Metin2Client\UserInterface\PythonGuild.cpp

; 194  : {

  00006	56		 push	 esi
; File C:\Program Files (x86)\Microsoft Visual Studio\2019\Community\VC\Tools\MSVC\14.28.29333\include\vector

; 42   :     _Vector_const_iterator(_Tptr _Parg, const _Container_base* _Pvector) noexcept : _Ptr(_Parg) {

  00007	8b 71 40	 mov	 esi, DWORD PTR [ecx+64]
; File C:\Program Files (x86)\Microsoft Visual Studio\2019\Community\VC\Tools\MSVC\14.28.29333\include\xutility

; 5791 :     for (; _UFirst != _ULast; ++_UFirst) {

  0000a	3b c6		 cmp	 eax, esi
  0000c	74 0e		 je	 SHORT $LN47@GetMemberD
  0000e	8b 4d 08	 mov	 ecx, DWORD PTR _dwPID$[ebp]
$LL25@GetMemberD:
; File D:\Metin2 Server Files\mainline\SRC_2014\Metin2Client\UserInterface\PythonGuild.cpp

; 89   : 		return rGuildMemberData.dwPID == dwSearchingPID;

  00011	39 08		 cmp	 DWORD PTR [eax], ecx
; File C:\Program Files (x86)\Microsoft Visual Studio\2019\Community\VC\Tools\MSVC\14.28.29333\include\xutility

; 5792 :         if (_Pred(*_UFirst)) {

  00013	74 07		 je	 SHORT $LN47@GetMemberD

; 5791 :     for (; _UFirst != _ULast; ++_UFirst) {

  00015	83 c0 24	 add	 eax, 36			; 00000024H
  00018	3b c6		 cmp	 eax, esi
  0001a	75 f5		 jne	 SHORT $LL25@GetMemberD
$LN47@GetMemberD:
; File C:\Program Files (x86)\Microsoft Visual Studio\2019\Community\VC\Tools\MSVC\14.28.29333\include\vector

; 195  :         _Ptr = _Refancy<_Tptr>(const_cast<value_type*>(_It));

  0001c	50		 push	 eax
  0001d	e8 00 00 00 00	 call	 ??$_Refancy@PAUSGuildMemberData@CPythonGuild@@$0A@@std@@YAPAUSGuildMemberData@CPythonGuild@@PAU12@@Z ; std::_Refancy<CPythonGuild::SGuildMemberData *,0>
  00022	83 c4 04	 add	 esp, 4

; 42   :     _Vector_const_iterator(_Tptr _Parg, const _Container_base* _Pvector) noexcept : _Ptr(_Parg) {

  00025	3b f0		 cmp	 esi, eax
  00027	5e		 pop	 esi
; File D:\Metin2 Server Files\mainline\SRC_2014\Metin2Client\UserInterface\PythonGuild.cpp

; 200  : 	if (m_GuildMemberDataVector.end() == itor)

  00028	75 06		 jne	 SHORT $LN2@GetMemberD

; 201  : 		return FALSE;

  0002a	33 c0		 xor	 eax, eax

; 205  : }

  0002c	5d		 pop	 ebp
  0002d	c2 08 00	 ret	 8
$LN2@GetMemberD:

; 202  : 
; 203  : 	*ppData = &(*itor);

  00030	8b 4d 0c	 mov	 ecx, DWORD PTR _ppData$[ebp]
  00033	89 01		 mov	 DWORD PTR [ecx], eax

; 204  : 	return TRUE;

  00035	b8 01 00 00 00	 mov	 eax, 1

; 205  : }

  0003a	5d		 pop	 ebp
  0003b	c2 08 00	 ret	 8
?GetMemberDataPtrByPID@CPythonGuild@@QAEHKPAPAUSGuildMemberData@1@@Z ENDP ; CPythonGuild::GetMemberDataPtrByPID
_TEXT	ENDS
; Function compile flags: /Ogtp
; File D:\Metin2 Server Files\mainline\SRC_2014\Metin2Client\UserInterface\PythonGuild.cpp
; File C:\Program Files (x86)\Microsoft Visual Studio\2019\Community\VC\Tools\MSVC\14.28.29333\include\vector
; File D:\Metin2 Server Files\mainline\SRC_2014\Metin2Client\UserInterface\PythonGuild.cpp
; File C:\Program Files (x86)\Microsoft Visual Studio\2019\Community\VC\Tools\MSVC\14.28.29333\include\vector
; File D:\Metin2 Server Files\mainline\SRC_2014\Metin2Client\UserInterface\PythonGuild.cpp
; File C:\Program Files (x86)\Microsoft Visual Studio\2019\Community\VC\Tools\MSVC\14.28.29333\include\vector
; File D:\Metin2 Server Files\mainline\SRC_2014\Metin2Client\UserInterface\PythonGuild.cpp
;	COMDAT ?GetMemberDataPtr@CPythonGuild@@QAEHKPAPAUSGuildMemberData@1@@Z
_TEXT	SEGMENT
_dwIndex$ = 8						; size = 4
_ppData$ = 12						; size = 4
?GetMemberDataPtr@CPythonGuild@@QAEHKPAPAUSGuildMemberData@1@@Z PROC ; CPythonGuild::GetMemberDataPtr, COMDAT
; _this$ = ecx

; 184  : {

  00000	55		 push	 ebp
  00001	8b ec		 mov	 ebp, esp
  00003	56		 push	 esi
; File C:\Program Files (x86)\Microsoft Visual Studio\2019\Community\VC\Tools\MSVC\14.28.29333\include\vector

; 1484 :         return static_cast<size_type>(_My_data._Mylast - _My_data._Myfirst);

  00004	8b 71 3c	 mov	 esi, DWORD PTR [ecx+60]
  00007	b8 39 8e e3 38	 mov	 eax, 954437177		; 38e38e39H
  0000c	8b 49 40	 mov	 ecx, DWORD PTR [ecx+64]
  0000f	2b ce		 sub	 ecx, esi
  00011	f7 e9		 imul	 ecx
; File D:\Metin2 Server Files\mainline\SRC_2014\Metin2Client\UserInterface\PythonGuild.cpp

; 185  : 	if (dwIndex >= m_GuildMemberDataVector.size())

  00013	8b 4d 08	 mov	 ecx, DWORD PTR _dwIndex$[ebp]
; File C:\Program Files (x86)\Microsoft Visual Studio\2019\Community\VC\Tools\MSVC\14.28.29333\include\vector

; 1484 :         return static_cast<size_type>(_My_data._Mylast - _My_data._Myfirst);

  00016	c1 fa 03	 sar	 edx, 3
  00019	8b c2		 mov	 eax, edx
  0001b	c1 e8 1f	 shr	 eax, 31			; 0000001fH
  0001e	03 c2		 add	 eax, edx
; File D:\Metin2 Server Files\mainline\SRC_2014\Metin2Client\UserInterface\PythonGuild.cpp

; 185  : 	if (dwIndex >= m_GuildMemberDataVector.size())

  00020	3b c8		 cmp	 ecx, eax
  00022	72 07		 jb	 SHORT $LN2@GetMemberD

; 186  : 		return FALSE;

  00024	33 c0		 xor	 eax, eax
  00026	5e		 pop	 esi

; 191  : }

  00027	5d		 pop	 ebp
  00028	c2 08 00	 ret	 8
$LN2@GetMemberD:
; File C:\Program Files (x86)\Microsoft Visual Studio\2019\Community\VC\Tools\MSVC\14.28.29333\include\vector

; 1504 :         return _My_data._Myfirst[_Pos];

  0002b	8d 04 c9	 lea	 eax, DWORD PTR [ecx+ecx*8]
  0002e	8d 0c 86	 lea	 ecx, DWORD PTR [esi+eax*4]
; File D:\Metin2 Server Files\mainline\SRC_2014\Metin2Client\UserInterface\PythonGuild.cpp

; 188  : 	*ppData = &m_GuildMemberDataVector[dwIndex];

  00031	8b 45 0c	 mov	 eax, DWORD PTR _ppData$[ebp]
  00034	5e		 pop	 esi
  00035	89 08		 mov	 DWORD PTR [eax], ecx

; 189  : 
; 190  : 	return TRUE;

  00037	b8 01 00 00 00	 mov	 eax, 1

; 191  : }

  0003c	5d		 pop	 ebp
  0003d	c2 08 00	 ret	 8
?GetMemberDataPtr@CPythonGuild@@QAEHKPAPAUSGuildMemberData@1@@Z ENDP ; CPythonGuild::GetMemberDataPtr
_TEXT	ENDS
; Function compile flags: /Ogtp
; File D:\Metin2 Server Files\mainline\SRC_2014\Metin2Client\UserInterface\PythonGuild.cpp
; File C:\Program Files (x86)\Microsoft Visual Studio\2019\Community\VC\Tools\MSVC\14.28.29333\include\vector
; File D:\Metin2 Server Files\mainline\SRC_2014\Metin2Client\UserInterface\PythonGuild.cpp
;	COMDAT ?GetMemberCount@CPythonGuild@@QAEKXZ
_TEXT	SEGMENT
?GetMemberCount@CPythonGuild@@QAEKXZ PROC		; CPythonGuild::GetMemberCount, COMDAT
; _this$ = ecx
; File C:\Program Files (x86)\Microsoft Visual Studio\2019\Community\VC\Tools\MSVC\14.28.29333\include\vector

; 1484 :         return static_cast<size_type>(_My_data._Mylast - _My_data._Myfirst);

  00000	8b 51 40	 mov	 edx, DWORD PTR [ecx+64]
  00003	b8 39 8e e3 38	 mov	 eax, 954437177		; 38e38e39H
  00008	2b 51 3c	 sub	 edx, DWORD PTR [ecx+60]
  0000b	f7 ea		 imul	 edx
  0000d	c1 fa 03	 sar	 edx, 3
  00010	8b c2		 mov	 eax, edx
  00012	c1 e8 1f	 shr	 eax, 31			; 0000001fH
  00015	03 c2		 add	 eax, edx
; File D:\Metin2 Server Files\mainline\SRC_2014\Metin2Client\UserInterface\PythonGuild.cpp

; 181  : }

  00017	c3		 ret	 0
?GetMemberCount@CPythonGuild@@QAEKXZ ENDP		; CPythonGuild::GetMemberCount
_TEXT	ENDS
; Function compile flags: /Ogtp
; File D:\Metin2 Server Files\mainline\SRC_2014\Metin2Client\UserInterface\PythonGuild.cpp
;	COMDAT ?GetGuildBoardCommentVector@CPythonGuild@@QAEABV?$vector@USGuildBoardCommentData@CPythonGuild@@V?$allocator@USGuildBoardCommentData@CPythonGuild@@@std@@@std@@XZ
_TEXT	SEGMENT
?GetGuildBoardCommentVector@CPythonGuild@@QAEABV?$vector@USGuildBoardCommentData@CPythonGuild@@V?$allocator@USGuildBoardCommentData@CPythonGuild@@@std@@@std@@XZ PROC ; CPythonGuild::GetGuildBoardCommentVector, COMDAT
; _this$ = ecx

; 175  : 	return m_GuildBoardCommentVector;

  00000	8d 41 48	 lea	 eax, DWORD PTR [ecx+72]

; 176  : }

  00003	c3		 ret	 0
?GetGuildBoardCommentVector@CPythonGuild@@QAEABV?$vector@USGuildBoardCommentData@CPythonGuild@@V?$allocator@USGuildBoardCommentData@CPythonGuild@@@std@@@std@@XZ ENDP ; CPythonGuild::GetGuildBoardCommentVector
_TEXT	ENDS
; Function compile flags: /Ogtp
; File D:\Metin2 Server Files\mainline\SRC_2014\Metin2Client\UserInterface\PythonGuild.cpp
; File C:\Program Files (x86)\Microsoft Visual Studio\2019\Community\VC\Tools\MSVC\14.28.29333\include\xtree
; File D:\Metin2 Server Files\mainline\SRC_2014\Metin2Client\UserInterface\PythonGuild.cpp
; File C:\Program Files (x86)\Microsoft Visual Studio\2019\Community\VC\Tools\MSVC\14.28.29333\include\xtree
; File D:\Metin2 Server Files\mainline\SRC_2014\Metin2Client\UserInterface\PythonGuild.cpp
; File C:\Program Files (x86)\Microsoft Visual Studio\2019\Community\VC\Tools\MSVC\14.28.29333\include\xtree
; File C:\Program Files (x86)\Microsoft Visual Studio\2019\Community\VC\Tools\MSVC\14.28.29333\include\xstddef
; File C:\Program Files (x86)\Microsoft Visual Studio\2019\Community\VC\Tools\MSVC\14.28.29333\include\xtree
; File D:\Metin2 Server Files\mainline\SRC_2014\Metin2Client\UserInterface\PythonGuild.cpp
;	COMDAT ?GetGradeDataPtr@CPythonGuild@@QAEHKPAPAUSGuildGradeData@1@@Z
_TEXT	SEGMENT
__Loc$1 = -12						; size = 12
_dwGradeNumber$ = 8					; size = 4
$T2 = 11						; size = 1
_ppData$ = 12						; size = 4
?GetGradeDataPtr@CPythonGuild@@QAEHKPAPAUSGuildGradeData@1@@Z PROC ; CPythonGuild::GetGradeDataPtr, COMDAT
; _this$ = ecx

; 163  : {

  00000	55		 push	 ebp
  00001	8b ec		 mov	 ebp, esp
  00003	83 ec 0c	 sub	 esp, 12			; 0000000cH
  00006	53		 push	 ebx

; 164  : 	TGradeDataMap::iterator itor = m_GradeDataMap.find(dwGradeNumber);

  00007	8a 5d 08	 mov	 bl, BYTE PTR _dwGradeNumber$[ebp]
; File C:\Program Files (x86)\Microsoft Visual Studio\2019\Community\VC\Tools\MSVC\14.28.29333\include\xtree

; 1458 :         const _Tree_find_result<_Nodeptr> _Loc = _Find_lower_bound(_Keyval);

  0000a	8d 45 0b	 lea	 eax, DWORD PTR $T2[ebp]
; File D:\Metin2 Server Files\mainline\SRC_2014\Metin2Client\UserInterface\PythonGuild.cpp

; 163  : {

  0000d	56		 push	 esi
; File C:\Program Files (x86)\Microsoft Visual Studio\2019\Community\VC\Tools\MSVC\14.28.29333\include\xtree

; 1458 :         const _Tree_find_result<_Nodeptr> _Loc = _Find_lower_bound(_Keyval);

  0000e	50		 push	 eax
; File D:\Metin2 Server Files\mainline\SRC_2014\Metin2Client\UserInterface\PythonGuild.cpp

; 164  : 	TGradeDataMap::iterator itor = m_GradeDataMap.find(dwGradeNumber);

  0000f	8d 71 34	 lea	 esi, DWORD PTR [ecx+52]
  00012	88 5d 0b	 mov	 BYTE PTR $T2[ebp], bl
; File C:\Program Files (x86)\Microsoft Visual Studio\2019\Community\VC\Tools\MSVC\14.28.29333\include\xtree

; 1458 :         const _Tree_find_result<_Nodeptr> _Loc = _Find_lower_bound(_Keyval);

  00015	8d 45 f4	 lea	 eax, DWORD PTR __Loc$1[ebp]
  00018	8b ce		 mov	 ecx, esi
  0001a	50		 push	 eax
  0001b	e8 00 00 00 00	 call	 ??$_Find_lower_bound@E@?$_Tree@V?$_Tmap_traits@EUSGuildGradeData@CPythonGuild@@U?$less@E@std@@V?$allocator@U?$pair@$$CBEUSGuildGradeData@CPythonGuild@@@std@@@4@$0A@@std@@@std@@IBE?AU?$_Tree_find_result@PAU?$_Tree_node@U?$pair@$$CBEUSGuildGradeData@CPythonGuild@@@std@@PAX@std@@@1@ABE@Z ; std::_Tree<std::_Tmap_traits<unsigned char,CPythonGuild::SGuildGradeData,std::less<unsigned char>,std::allocator<std::pair<unsigned char const ,CPythonGuild::SGuildGradeData> >,0> >::_Find_lower_bound<unsigned char>

; 1695 :         return !_Bound->_Isnil && !_DEBUG_LT_PRED(_Getcomp(), _Keyval, _Traits::_Kfn(_Bound->_Myval));

  00020	8b 4d fc	 mov	 ecx, DWORD PTR __Loc$1[ebp+8]
  00023	80 79 0d 00	 cmp	 BYTE PTR [ecx+13], 0
  00027	75 1e		 jne	 SHORT $LN38@GetGradeDa
; File C:\Program Files (x86)\Microsoft Visual Studio\2019\Community\VC\Tools\MSVC\14.28.29333\include\xstddef

; 127  :         return _Left < _Right;

  00029	3a 59 10	 cmp	 bl, BYTE PTR [ecx+16]
; File C:\Program Files (x86)\Microsoft Visual Studio\2019\Community\VC\Tools\MSVC\14.28.29333\include\xtree

; 1695 :         return !_Bound->_Isnil && !_DEBUG_LT_PRED(_Getcomp(), _Keyval, _Traits::_Kfn(_Bound->_Myval));

  0002c	72 19		 jb	 SHORT $LN38@GetGradeDa

; 232  :         return this->_Ptr == _Right._Ptr;

  0002e	39 0e		 cmp	 DWORD PTR [esi], ecx
; File D:\Metin2 Server Files\mainline\SRC_2014\Metin2Client\UserInterface\PythonGuild.cpp

; 165  : 	if (m_GradeDataMap.end() == itor)

  00030	74 15		 je	 SHORT $LN38@GetGradeDa

; 167  : 
; 168  : 	*ppData = &(itor->second);

  00032	8b 45 0c	 mov	 eax, DWORD PTR _ppData$[ebp]
  00035	83 c1 14	 add	 ecx, 20			; 00000014H
  00038	5e		 pop	 esi

; 169  : 
; 170  : 	return TRUE;
; 171  : }

  00039	5b		 pop	 ebx
  0003a	89 08		 mov	 DWORD PTR [eax], ecx
  0003c	b8 01 00 00 00	 mov	 eax, 1
  00041	8b e5		 mov	 esp, ebp
  00043	5d		 pop	 ebp
  00044	c2 08 00	 ret	 8
$LN38@GetGradeDa:
  00047	5e		 pop	 esi

; 166  : 		return FALSE;

  00048	33 c0		 xor	 eax, eax

; 169  : 
; 170  : 	return TRUE;
; 171  : }

  0004a	5b		 pop	 ebx
  0004b	8b e5		 mov	 esp, ebp
  0004d	5d		 pop	 ebp
  0004e	c2 08 00	 ret	 8
?GetGradeDataPtr@CPythonGuild@@QAEHKPAPAUSGuildGradeData@1@@Z ENDP ; CPythonGuild::GetGradeDataPtr
_TEXT	ENDS
; Function compile flags: /Ogtp
; File D:\Metin2 Server Files\mainline\SRC_2014\Metin2Client\UserInterface\PythonGuild.cpp
;	COMDAT ?GetGuildInfoRef@CPythonGuild@@QAEAAUSGulidInfo@1@XZ
_TEXT	SEGMENT
?GetGuildInfoRef@CPythonGuild@@QAEAAUSGulidInfo@1@XZ PROC ; CPythonGuild::GetGuildInfoRef, COMDAT
; _this$ = ecx

; 159  : 	return m_GuildInfo;

  00000	8d 41 04	 lea	 eax, DWORD PTR [ecx+4]

; 160  : }

  00003	c3		 ret	 0
?GetGuildInfoRef@CPythonGuild@@QAEAAUSGulidInfo@1@XZ ENDP ; CPythonGuild::GetGuildInfoRef
_TEXT	ENDS
; Function compile flags: /Ogtp
; File D:\Metin2 Server Files\mainline\SRC_2014\Metin2Client\UserInterface\PythonGuild.cpp
;	COMDAT ?IsGuildEnable@CPythonGuild@@QAEHXZ
_TEXT	SEGMENT
?IsGuildEnable@CPythonGuild@@QAEHXZ PROC		; CPythonGuild::IsGuildEnable, COMDAT
; _this$ = ecx

; 154  : 	return m_bGuildEnable;

  00000	8b 81 94 00 00
	00		 mov	 eax, DWORD PTR [ecx+148]

; 155  : }

  00006	c3		 ret	 0
?IsGuildEnable@CPythonGuild@@QAEHXZ ENDP		; CPythonGuild::IsGuildEnable
_TEXT	ENDS
; Function compile flags: /Ogtp
; File D:\Metin2 Server Files\mainline\SRC_2014\Metin2Client\UserInterface\PythonGuild.cpp
;	COMDAT ?IsMainPlayer@CPythonGuild@@QAEHK@Z
_TEXT	SEGMENT
_pGuildMemberData$ = -4					; size = 4
_dwPID$ = 8						; size = 4
?IsMainPlayer@CPythonGuild@@QAEHK@Z PROC		; CPythonGuild::IsMainPlayer, COMDAT
; _this$ = ecx

; 143  : {

  00000	55		 push	 ebp
  00001	8b ec		 mov	 ebp, esp
  00003	51		 push	 ecx

; 144  : 	TGuildMemberData * pGuildMemberData;
; 145  : 	if (!GetMemberDataPtrByPID(dwPID, &pGuildMemberData))

  00004	8d 45 fc	 lea	 eax, DWORD PTR _pGuildMemberData$[ebp]
  00007	50		 push	 eax
  00008	ff 75 08	 push	 DWORD PTR _dwPID$[ebp]
  0000b	e8 00 00 00 00	 call	 ?GetMemberDataPtrByPID@CPythonGuild@@QAEHKPAPAUSGuildMemberData@1@@Z ; CPythonGuild::GetMemberDataPtrByPID
  00010	85 c0		 test	 eax, eax
  00012	75 06		 jne	 SHORT $LN2@IsMainPlay

; 150  : }

  00014	8b e5		 mov	 esp, ebp
  00016	5d		 pop	 ebp
  00017	c2 04 00	 ret	 4
$LN2@IsMainPlay:

; 146  : 		return FALSE;
; 147  : 
; 148  : 	IAbstractPlayer& rPlayer=IAbstractPlayer::GetSingleton();

  0001a	8b 0d 00 00 00
	00		 mov	 ecx, DWORD PTR ?ms_singleton@?$TAbstractSingleton@VIAbstractPlayer@@@@0PAVIAbstractPlayer@@A ; TAbstractSingleton<IAbstractPlayer>::ms_singleton

; 149  : 	return 0 == pGuildMemberData->strName.compare(rPlayer.GetName());

  00020	8b 01		 mov	 eax, DWORD PTR [ecx]
  00022	ff 50 14	 call	 DWORD PTR [eax+20]
  00025	8b 4d fc	 mov	 ecx, DWORD PTR _pGuildMemberData$[ebp]
  00028	50		 push	 eax
  00029	8d 49 04	 lea	 ecx, DWORD PTR [ecx+4]
  0002c	e8 00 00 00 00	 call	 ?compare@?$basic_string@DU?$char_traits@D@std@@V?$allocator@D@2@@std@@QBEHQBD@Z ; std::basic_string<char,std::char_traits<char>,std::allocator<char> >::compare
  00031	f7 d8		 neg	 eax
  00033	1b c0		 sbb	 eax, eax
  00035	40		 inc	 eax

; 150  : }

  00036	8b e5		 mov	 esp, ebp
  00038	5d		 pop	 ebp
  00039	c2 04 00	 ret	 4
?IsMainPlayer@CPythonGuild@@QAEHK@Z ENDP		; CPythonGuild::IsMainPlayer
_TEXT	ENDS
; Function compile flags: /Ogtp
; File D:\Metin2 Server Files\mainline\SRC_2014\Metin2Client\UserInterface\PythonGuild.cpp
; File C:\Program Files (x86)\Microsoft Visual Studio\2019\Community\VC\Tools\MSVC\14.28.29333\include\xstring
; File C:\Program Files (x86)\Microsoft Visual Studio\2019\Community\VC\Tools\MSVC\14.28.29333\include\utility
; File D:\Metin2 Server Files\mainline\SRC_2014\Metin2Client\UserInterface\PythonGuild.cpp
; File C:\Program Files (x86)\Microsoft Visual Studio\2019\Community\VC\Tools\MSVC\14.28.29333\include\xstring
; File C:\Program Files (x86)\Microsoft Visual Studio\2019\Community\VC\Tools\MSVC\14.28.29333\include\utility
; File C:\Program Files (x86)\Microsoft Visual Studio\2019\Community\VC\Tools\MSVC\14.28.29333\include\xstring
; File C:\Program Files (x86)\Microsoft Visual Studio\2019\Community\VC\Tools\MSVC\14.28.29333\include\xtree
; File D:\Metin2 Server Files\mainline\SRC_2014\Metin2Client\UserInterface\PythonGuild.cpp
; File C:\Program Files (x86)\Microsoft Visual Studio\2019\Community\VC\Tools\MSVC\14.28.29333\include\xtree
; File D:\Metin2 Server Files\mainline\SRC_2014\Metin2Client\UserInterface\PythonGuild.cpp
; File C:\Program Files (x86)\Microsoft Visual Studio\2019\Community\VC\Tools\MSVC\14.28.29333\include\xtree
; File C:\Program Files (x86)\Microsoft Visual Studio\2019\Community\VC\Tools\MSVC\14.28.29333\include\xstddef
; File C:\Program Files (x86)\Microsoft Visual Studio\2019\Community\VC\Tools\MSVC\14.28.29333\include\xtree
; File C:\Program Files (x86)\Microsoft Visual Studio\2019\Community\VC\Tools\MSVC\14.28.29333\include\xstring
; File C:\Program Files (x86)\Microsoft Visual Studio\2019\Community\VC\Tools\MSVC\14.28.29333\include\xmemory
; File C:\Program Files (x86)\Microsoft Visual Studio\2019\Community\VC\Tools\MSVC\14.28.29333\include\xtree
; File C:\Program Files (x86)\Microsoft Visual Studio\2019\Community\VC\Tools\MSVC\14.28.29333\include\xmemory
; File C:\Program Files (x86)\Microsoft Visual Studio\2019\Community\VC\Tools\MSVC\14.28.29333\include\xtree
; File C:\Program Files (x86)\Microsoft Visual Studio\2019\Community\VC\Tools\MSVC\14.28.29333\include\xmemory
; File C:\Program Files (x86)\Microsoft Visual Studio\2019\Community\VC\Tools\MSVC\14.28.29333\include\xstring
; File C:\Program Files (x86)\Microsoft Visual Studio\2019\Community\VC\Tools\MSVC\14.28.29333\include\xmemory
; File C:\Program Files (x86)\Microsoft Visual Studio\2019\Community\VC\Tools\MSVC\14.28.29333\include\utility
; File C:\Program Files (x86)\Microsoft Visual Studio\2019\Community\VC\Tools\MSVC\14.28.29333\include\xtree
; File C:\Program Files (x86)\Microsoft Visual Studio\2019\Community\VC\Tools\MSVC\14.28.29333\include\xstring
; File C:\Program Files (x86)\Microsoft Visual Studio\2019\Community\VC\Tools\MSVC\14.28.29333\include\xtree
; File C:\Program Files (x86)\Microsoft Visual Studio\2019\Community\VC\Tools\MSVC\14.28.29333\include\xstring
; File C:\Program Files (x86)\Microsoft Visual Studio\2019\Community\VC\Tools\MSVC\14.28.29333\include\xtree
; File C:\Program Files (x86)\Microsoft Visual Studio\2019\Community\VC\Tools\MSVC\14.28.29333\include\xstring
; File C:\Program Files (x86)\Microsoft Visual Studio\2019\Community\VC\Tools\MSVC\14.28.29333\include\xtree
; File D:\Metin2 Server Files\mainline\SRC_2014\Metin2Client\UserInterface\PythonGuild.cpp
; File C:\Program Files (x86)\Microsoft Visual Studio\2019\Community\VC\Tools\MSVC\14.28.29333\include\xtree
; File D:\Metin2 Server Files\mainline\SRC_2014\Metin2Client\UserInterface\PythonGuild.cpp
;	COMDAT ?RegisterGuildName@CPythonGuild@@QAEXKPBD@Z
_TEXT	SEGMENT
$T2 = -120						; size = 16
__Loc$3 = -104						; size = 12
$T4 = -92						; size = 8
$T5 = -84						; size = 12
$T6 = -80						; size = 8
__Myhead$7 = -72					; size = 4
$T8 = -68						; size = 28
$T9 = -40						; size = 24
__$ArrayPad$ = -16					; size = 4
__$EHRec$ = -12						; size = 12
_dwID$ = 8						; size = 4
_c_szName$ = 12						; size = 4
?RegisterGuildName@CPythonGuild@@QAEXKPBD@Z PROC	; CPythonGuild::RegisterGuildName, COMDAT
; _this$ = ecx

; 138  : {

  00000	55		 push	 ebp
  00001	8b ec		 mov	 ebp, esp
  00003	6a ff		 push	 -1
  00005	68 00 00 00 00	 push	 __ehhandler$?RegisterGuildName@CPythonGuild@@QAEXKPBD@Z
  0000a	64 a1 00 00 00
	00		 mov	 eax, DWORD PTR fs:0
  00010	50		 push	 eax
  00011	83 ec 6c	 sub	 esp, 108		; 0000006cH
  00014	a1 00 00 00 00	 mov	 eax, DWORD PTR ___security_cookie
  00019	33 c5		 xor	 eax, ebp
  0001b	89 45 f0	 mov	 DWORD PTR __$ArrayPad$[ebp], eax
  0001e	56		 push	 esi
  0001f	57		 push	 edi
  00020	50		 push	 eax
  00021	8d 45 f4	 lea	 eax, DWORD PTR __$EHRec$[ebp]
  00024	64 a3 00 00 00
	00		 mov	 DWORD PTR fs:0, eax
  0002a	8b f9		 mov	 edi, ecx
  0002c	8b 75 0c	 mov	 esi, DWORD PTR _c_szName$[ebp]
; File C:\Program Files (x86)\Microsoft Visual Studio\2019\Community\VC\Tools\MSVC\14.28.29333\include\xstring

; 389  :         return _CSTD strlen(reinterpret_cast<const char*>(_First));

  0002f	8b d6		 mov	 edx, esi

; 4377 :         _Mypair._Myval2._Mysize = 0;

  00031	c7 45 e8 00 00
	00 00		 mov	 DWORD PTR $T9[ebp+16], 0

; 4378 :         _Mypair._Myval2._Myres  = _BUF_SIZE - 1;

  00038	c7 45 ec 0f 00
	00 00		 mov	 DWORD PTR $T9[ebp+20], 15 ; 0000000fH

; 4379 :         // the _Traits::assign is last so the codegen doesn't think the char write can alias this
; 4380 :         _Traits::assign(_Mypair._Myval2._Bx._Buf[0], _Elem());

  0003f	c6 45 d8 00	 mov	 BYTE PTR $T9[ebp], 0

; 389  :         return _CSTD strlen(reinterpret_cast<const char*>(_First));

  00043	8d 4a 01	 lea	 ecx, DWORD PTR [edx+1]
$LL170@RegisterGu:
  00046	8a 02		 mov	 al, BYTE PTR [edx]
  00048	42		 inc	 edx
  00049	84 c0		 test	 al, al
  0004b	75 f9		 jne	 SHORT $LL170@RegisterGu
  0004d	2b d1		 sub	 edx, ecx

; 3062 :         return assign(_Ptr, _Convert_size<size_type>(_Traits::length(_Ptr)));

  0004f	8d 4d d8	 lea	 ecx, DWORD PTR $T9[ebp]
  00052	52		 push	 edx
  00053	56		 push	 esi
  00054	e8 00 00 00 00	 call	 ?assign@?$basic_string@DU?$char_traits@D@std@@V?$allocator@D@2@@std@@QAEAAV12@QBDI@Z ; std::basic_string<char,std::char_traits<char>,std::allocator<char> >::assign

; 2684 :         _CSTD memcpy(_My_data_mem, _Right_data_mem, _Memcpy_val_size);

  00059	0f 10 45 d8	 movups	 xmm0, XMMWORD PTR $T9[ebp]
; File C:\Program Files (x86)\Microsoft Visual Studio\2019\Community\VC\Tools\MSVC\14.28.29333\include\utility

; 190  :         : first(_STD forward<_Other1>(_Val1)), second(_STD forward<_Other2>(_Val2)) {}

  0005d	8b 75 08	 mov	 esi, DWORD PTR _dwID$[ebp]
; File D:\Metin2 Server Files\mainline\SRC_2014\Metin2Client\UserInterface\PythonGuild.cpp

; 139  : 	m_GuildNameMap.insert(make_pair(dwID, std::string(c_szName)));

  00060	c7 45 fc 00 00
	00 00		 mov	 DWORD PTR __$EHRec$[ebp+8], 0
; File C:\Program Files (x86)\Microsoft Visual Studio\2019\Community\VC\Tools\MSVC\14.28.29333\include\xstring

; 2684 :         _CSTD memcpy(_My_data_mem, _Right_data_mem, _Memcpy_val_size);

  00067	0f 11 45 88	 movups	 XMMWORD PTR $T2[ebp], xmm0
; File C:\Program Files (x86)\Microsoft Visual Studio\2019\Community\VC\Tools\MSVC\14.28.29333\include\utility

; 190  :         : first(_STD forward<_Other1>(_Val1)), second(_STD forward<_Other2>(_Val2)) {}

  0006b	89 75 bc	 mov	 DWORD PTR $T8[ebp], esi
; File C:\Program Files (x86)\Microsoft Visual Studio\2019\Community\VC\Tools\MSVC\14.28.29333\include\xstring

; 2684 :         _CSTD memcpy(_My_data_mem, _Right_data_mem, _Memcpy_val_size);

  0006e	0f 11 45 c0	 movups	 XMMWORD PTR $T8[ebp+4], xmm0

; 4380 :         _Traits::assign(_Mypair._Myval2._Bx._Buf[0], _Elem());

  00072	c6 45 d8 00	 mov	 BYTE PTR $T9[ebp], 0

; 2684 :         _CSTD memcpy(_My_data_mem, _Right_data_mem, _Memcpy_val_size);

  00076	f3 0f 7e 45 e8	 movq	 xmm0, QWORD PTR $T9[ebp+16]
  0007b	66 0f d6 45 a4	 movq	 QWORD PTR $T4[ebp], xmm0
  00080	66 0f d6 45 d0	 movq	 QWORD PTR $T8[ebp+20], xmm0

; 4377 :         _Mypair._Myval2._Mysize = 0;

  00085	c7 45 e8 00 00
	00 00		 mov	 DWORD PTR $T9[ebp+16], 0

; 4378 :         _Mypair._Myval2._Myres  = _BUF_SIZE - 1;

  0008c	c7 45 ec 0f 00
	00 00		 mov	 DWORD PTR $T9[ebp+20], 15 ; 0000000fH
; File C:\Program Files (x86)\Microsoft Visual Studio\2019\Community\VC\Tools\MSVC\14.28.29333\include\xtree

; 1009 :             _Loc                = _Find_lower_bound(_Keyval);

  00093	8d 45 bc	 lea	 eax, DWORD PTR $T8[ebp]
; File D:\Metin2 Server Files\mainline\SRC_2014\Metin2Client\UserInterface\PythonGuild.cpp

; 139  : 	m_GuildNameMap.insert(make_pair(dwID, std::string(c_szName)));

  00096	c6 45 fc 01	 mov	 BYTE PTR __$EHRec$[ebp+8], 1
; File C:\Program Files (x86)\Microsoft Visual Studio\2019\Community\VC\Tools\MSVC\14.28.29333\include\xtree

; 1009 :             _Loc                = _Find_lower_bound(_Keyval);

  0009a	50		 push	 eax
  0009b	8d 45 ac	 lea	 eax, DWORD PTR $T5[ebp]
; File D:\Metin2 Server Files\mainline\SRC_2014\Metin2Client\UserInterface\PythonGuild.cpp

; 139  : 	m_GuildNameMap.insert(make_pair(dwID, std::string(c_szName)));

  0009e	83 c7 68	 add	 edi, 104		; 00000068H
; File C:\Program Files (x86)\Microsoft Visual Studio\2019\Community\VC\Tools\MSVC\14.28.29333\include\xtree

; 1009 :             _Loc                = _Find_lower_bound(_Keyval);

  000a1	50		 push	 eax
  000a2	8b cf		 mov	 ecx, edi
  000a4	e8 00 00 00 00	 call	 ??$_Find_lower_bound@K@?$_Tree@V?$_Tmap_traits@KV?$basic_string@DU?$char_traits@D@std@@V?$allocator@D@2@@std@@U?$less@K@2@V?$allocator@U?$pair@$$CBKV?$basic_string@DU?$char_traits@D@std@@V?$allocator@D@2@@std@@@std@@@2@$0A@@std@@@std@@IBE?AU?$_Tree_find_result@PAU?$_Tree_node@U?$pair@$$CBKV?$basic_string@DU?$char_traits@D@std@@V?$allocator@D@2@@std@@@std@@PAX@std@@@1@ABK@Z ; std::_Tree<std::_Tmap_traits<unsigned long,std::basic_string<char,std::char_traits<char>,std::allocator<char> >,std::less<unsigned long>,std::allocator<std::pair<unsigned long const ,std::basic_string<char,std::char_traits<char>,std::allocator<char> > > >,0> >::_Find_lower_bound<unsigned long>
  000a9	f3 0f 7e 00	 movq	 xmm0, QWORD PTR [eax]
  000ad	8b 40 08	 mov	 eax, DWORD PTR [eax+8]
  000b0	66 0f d6 45 98	 movq	 QWORD PTR __Loc$3[ebp], xmm0

; 1695 :         return !_Bound->_Isnil && !_DEBUG_LT_PRED(_Getcomp(), _Keyval, _Traits::_Kfn(_Bound->_Myval));

  000b5	80 78 0d 00	 cmp	 BYTE PTR [eax+13], 0
  000b9	75 23		 jne	 SHORT $LN50@RegisterGu
; File C:\Program Files (x86)\Microsoft Visual Studio\2019\Community\VC\Tools\MSVC\14.28.29333\include\xstddef

; 127  :         return _Left < _Right;

  000bb	3b 70 10	 cmp	 esi, DWORD PTR [eax+16]
; File C:\Program Files (x86)\Microsoft Visual Studio\2019\Community\VC\Tools\MSVC\14.28.29333\include\xtree

; 1695 :         return !_Bound->_Isnil && !_DEBUG_LT_PRED(_Getcomp(), _Keyval, _Traits::_Kfn(_Bound->_Myval));

  000be	72 1e		 jb	 SHORT $LN50@RegisterGu
; File C:\Program Files (x86)\Microsoft Visual Studio\2019\Community\VC\Tools\MSVC\14.28.29333\include\xstring

; 2227 :         return _BUF_SIZE <= _Myres;

  000c0	8b 45 d4	 mov	 eax, DWORD PTR $T8[ebp+24]
  000c3	83 f8 10	 cmp	 eax, 16			; 00000010H

; 4385 :         if (_Mypair._Myval2._Large_string_engaged()) {

  000c6	0f 82 9c 00 00
	00		 jb	 $LN163@RegisterGu

; 4386 :             const pointer _Ptr = _Mypair._Myval2._Bx._Ptr;
; 4387 :             auto& _Al          = _Getal();
; 4388 :             _Destroy_in_place(_Mypair._Myval2._Bx._Ptr);
; 4389 :             _Al.deallocate(_Ptr, _Mypair._Myval2._Myres + 1);

  000cc	40		 inc	 eax
; File C:\Program Files (x86)\Microsoft Visual Studio\2019\Community\VC\Tools\MSVC\14.28.29333\include\xmemory

; 810  :         _Deallocate<_New_alignof<_Ty>>(_Ptr, sizeof(_Ty) * _Count);

  000cd	50		 push	 eax
  000ce	ff 75 c0	 push	 DWORD PTR $T8[ebp+4]
  000d1	e8 00 00 00 00	 call	 ??$_Deallocate@$07$0A@@std@@YAXPAXI@Z ; std::_Deallocate<8,0>
  000d6	83 c4 08	 add	 esp, 8
  000d9	e9 8a 00 00 00	 jmp	 $LN163@RegisterGu
$LN50@RegisterGu:
; File C:\Program Files (x86)\Microsoft Visual Studio\2019\Community\VC\Tools\MSVC\14.28.29333\include\xtree

; 1719 :         if (max_size() == _Get_scary()->_Mysize) {

  000de	81 7f 04 5d 74
	d1 05		 cmp	 DWORD PTR [edi+4], 97612893 ; 05d1745dH
  000e5	0f 84 9a 00 00
	00		 je	 $LN174@RegisterGu

; 1015 :             _Inserted = _Tree_temp_node<_Alnode>(_Getal(), _Scary->_Myhead, _STD forward<_Valtys>(_Vals)...)._Release();

  000eb	8b 07		 mov	 eax, DWORD PTR [edi]
  000ed	89 45 b8	 mov	 DWORD PTR __Myhead$7[ebp], eax
; File C:\Program Files (x86)\Microsoft Visual Studio\2019\Community\VC\Tools\MSVC\14.28.29333\include\xmemory

; 1045 :     explicit _Alloc_construct_ptr(_Alloc& _Al_) : _Al(_Al_), _Ptr(nullptr) {}

  000f0	89 7d b0	 mov	 DWORD PTR $T6[ebp], edi

; 814  :         return static_cast<_Ty*>(_Allocate<_New_alignof<_Ty>>(_Get_size_of_n<sizeof(_Ty)>(_Count)));

  000f3	6a 2c		 push	 44			; 0000002cH
; File C:\Program Files (x86)\Microsoft Visual Studio\2019\Community\VC\Tools\MSVC\14.28.29333\include\xtree

; 784  :     explicit _Tree_temp_node_alloc(_Alnode& _Al_) : _Alloc_construct_ptr<_Alnode>(_Al_) {

  000f5	c6 45 fc 02	 mov	 BYTE PTR __$EHRec$[ebp+8], 2
; File C:\Program Files (x86)\Microsoft Visual Studio\2019\Community\VC\Tools\MSVC\14.28.29333\include\xmemory

; 1052 :         _Ptr = nullptr; // if allocate throws, prevents double-free

  000f9	c7 45 b4 00 00
	00 00		 mov	 DWORD PTR $T6[ebp+4], 0

; 814  :         return static_cast<_Ty*>(_Allocate<_New_alignof<_Ty>>(_Get_size_of_n<sizeof(_Ty)>(_Count)));

  00100	e8 00 00 00 00	 call	 ??$_Allocate@$07U_Default_allocate_traits@std@@$0A@@std@@YAPAXI@Z ; std::_Allocate<8,std::_Default_allocate_traits,0>
; File C:\Program Files (x86)\Microsoft Visual Studio\2019\Community\VC\Tools\MSVC\14.28.29333\include\xstring

; 2684 :         _CSTD memcpy(_My_data_mem, _Right_data_mem, _Memcpy_val_size);

  00105	0f 10 45 88	 movups	 xmm0, XMMWORD PTR $T2[ebp]
; File C:\Program Files (x86)\Microsoft Visual Studio\2019\Community\VC\Tools\MSVC\14.28.29333\include\xmemory

; 1053 :         _Ptr = _Al.allocate(1);

  00109	8b f0		 mov	 esi, eax
; File C:\Program Files (x86)\Microsoft Visual Studio\2019\Community\VC\Tools\MSVC\14.28.29333\include\utility

; 246  :         : first(_STD forward<_Other1>(_Right.first)), second(_STD forward<_Other2>(_Right.second)) {}

  0010b	8b 45 08	 mov	 eax, DWORD PTR _dwID$[ebp]
  0010e	89 46 10	 mov	 DWORD PTR [esi+16], eax
; File C:\Program Files (x86)\Microsoft Visual Studio\2019\Community\VC\Tools\MSVC\14.28.29333\include\xtree

; 807  :         _Construct_in_place(this->_Ptr->_Left, _Myhead);

  00111	8d 45 b8	 lea	 eax, DWORD PTR __Myhead$7[ebp]
; File C:\Program Files (x86)\Microsoft Visual Studio\2019\Community\VC\Tools\MSVC\14.28.29333\include\xstring

; 2198 :     _String_val() noexcept : _Bx(), _Mysize(0), _Myres(0) {}

  00114	c7 46 24 00 00
	00 00		 mov	 DWORD PTR [esi+36], 0
  0011b	c7 46 28 00 00
	00 00		 mov	 DWORD PTR [esi+40], 0

; 2684 :         _CSTD memcpy(_My_data_mem, _Right_data_mem, _Memcpy_val_size);

  00122	0f 11 46 14	 movups	 XMMWORD PTR [esi+20], xmm0
; File C:\Program Files (x86)\Microsoft Visual Studio\2019\Community\VC\Tools\MSVC\14.28.29333\include\xtree

; 807  :         _Construct_in_place(this->_Ptr->_Left, _Myhead);

  00126	50		 push	 eax
; File C:\Program Files (x86)\Microsoft Visual Studio\2019\Community\VC\Tools\MSVC\14.28.29333\include\xstring

; 2684 :         _CSTD memcpy(_My_data_mem, _Right_data_mem, _Memcpy_val_size);

  00127	f3 0f 7e 45 a4	 movq	 xmm0, QWORD PTR $T4[ebp]
; File C:\Program Files (x86)\Microsoft Visual Studio\2019\Community\VC\Tools\MSVC\14.28.29333\include\xtree

; 807  :         _Construct_in_place(this->_Ptr->_Left, _Myhead);

  0012c	56		 push	 esi
; File C:\Program Files (x86)\Microsoft Visual Studio\2019\Community\VC\Tools\MSVC\14.28.29333\include\xstring

; 2684 :         _CSTD memcpy(_My_data_mem, _Right_data_mem, _Memcpy_val_size);

  0012d	66 0f d6 46 24	 movq	 QWORD PTR [esi+36], xmm0
; File C:\Program Files (x86)\Microsoft Visual Studio\2019\Community\VC\Tools\MSVC\14.28.29333\include\xtree

; 807  :         _Construct_in_place(this->_Ptr->_Left, _Myhead);

  00132	e8 00 00 00 00	 call	 ??$_Construct_in_place@PAU?$_Tree_node@U?$pair@$$CBKV?$basic_string@DU?$char_traits@D@std@@V?$allocator@D@2@@std@@@std@@PAX@std@@AAPAU12@@std@@YAXAAPAU?$_Tree_node@U?$pair@$$CBKV?$basic_string@DU?$char_traits@D@std@@V?$allocator@D@2@@std@@@std@@PAX@0@0@Z ; std::_Construct_in_place<std::_Tree_node<std::pair<unsigned long const ,std::basic_string<char,std::char_traits<char>,std::allocator<char> > >,void *> *,std::_Tree_node<std::pair<unsigned long const ,std::basic_string<char,std::char_traits<char>,std::allocator<char> > >,void *> * &>

; 808  :         _Construct_in_place(this->_Ptr->_Parent, _Myhead);

  00137	8d 45 b8	 lea	 eax, DWORD PTR __Myhead$7[ebp]
  0013a	50		 push	 eax
  0013b	8d 46 04	 lea	 eax, DWORD PTR [esi+4]
  0013e	50		 push	 eax
  0013f	e8 00 00 00 00	 call	 ??$_Construct_in_place@PAU?$_Tree_node@U?$pair@$$CBKV?$basic_string@DU?$char_traits@D@std@@V?$allocator@D@2@@std@@@std@@PAX@std@@AAPAU12@@std@@YAXAAPAU?$_Tree_node@U?$pair@$$CBKV?$basic_string@DU?$char_traits@D@std@@V?$allocator@D@2@@std@@@std@@PAX@0@0@Z ; std::_Construct_in_place<std::_Tree_node<std::pair<unsigned long const ,std::basic_string<char,std::char_traits<char>,std::allocator<char> > >,void *> *,std::_Tree_node<std::pair<unsigned long const ,std::basic_string<char,std::char_traits<char>,std::allocator<char> > >,void *> * &>

; 809  :         _Construct_in_place(this->_Ptr->_Right, _Myhead);

  00144	8d 45 b8	 lea	 eax, DWORD PTR __Myhead$7[ebp]
  00147	50		 push	 eax
  00148	8d 46 08	 lea	 eax, DWORD PTR [esi+8]
  0014b	50		 push	 eax
  0014c	e8 00 00 00 00	 call	 ??$_Construct_in_place@PAU?$_Tree_node@U?$pair@$$CBKV?$basic_string@DU?$char_traits@D@std@@V?$allocator@D@2@@std@@@std@@PAX@std@@AAPAU12@@std@@YAXAAPAU?$_Tree_node@U?$pair@$$CBKV?$basic_string@DU?$char_traits@D@std@@V?$allocator@D@2@@std@@@std@@PAX@0@0@Z ; std::_Construct_in_place<std::_Tree_node<std::pair<unsigned long const ,std::basic_string<char,std::char_traits<char>,std::allocator<char> > >,void *> *,std::_Tree_node<std::pair<unsigned long const ,std::basic_string<char,std::char_traits<char>,std::allocator<char> > >,void *> * &>
  00151	83 c4 1c	 add	 esp, 28			; 0000001cH

; 810  :         this->_Ptr->_Color = _Red;

  00154	66 c7 46 0c 00
	00		 mov	 WORD PTR [esi+12], 0

; 1034 :         return {_Scary->_Insert_node(_Loc._Location, _Inserted), true};

  0015a	8b cf		 mov	 ecx, edi
  0015c	56		 push	 esi
  0015d	ff 75 9c	 push	 DWORD PTR __Loc$3[ebp+4]
  00160	ff 75 98	 push	 DWORD PTR __Loc$3[ebp]
  00163	e8 00 00 00 00	 call	 ?_Insert_node@?$_Tree_val@U?$_Tree_simple_types@U?$pair@$$CBKV?$basic_string@DU?$char_traits@D@std@@V?$allocator@D@2@@std@@@std@@@std@@@std@@QAEPAU?$_Tree_node@U?$pair@$$CBKV?$basic_string@DU?$char_traits@D@std@@V?$allocator@D@2@@std@@@std@@PAX@2@U?$_Tree_id@PAU?$_Tree_node@U?$pair@$$CBKV?$basic_string@DU?$char_traits@D@std@@V?$allocator@D@2@@std@@@std@@PAX@std@@@2@QAU32@@Z ; std::_Tree_val<std::_Tree_simple_types<std::pair<unsigned long const ,std::basic_string<char,std::char_traits<char>,std::allocator<char> > > > >::_Insert_node
$LN163@RegisterGu:
; File D:\Metin2 Server Files\mainline\SRC_2014\Metin2Client\UserInterface\PythonGuild.cpp

; 140  : }

  00168	8b 4d f4	 mov	 ecx, DWORD PTR __$EHRec$[ebp]
  0016b	64 89 0d 00 00
	00 00		 mov	 DWORD PTR fs:0, ecx
  00172	59		 pop	 ecx
  00173	5f		 pop	 edi
  00174	5e		 pop	 esi
  00175	8b 4d f0	 mov	 ecx, DWORD PTR __$ArrayPad$[ebp]
  00178	33 cd		 xor	 ecx, ebp
  0017a	e8 00 00 00 00	 call	 @__security_check_cookie@4
  0017f	8b e5		 mov	 esp, ebp
  00181	5d		 pop	 ebp
  00182	c2 08 00	 ret	 8
$LN174@RegisterGu:
; File C:\Program Files (x86)\Microsoft Visual Studio\2019\Community\VC\Tools\MSVC\14.28.29333\include\xtree

; 1720 :             _Throw_tree_length_error();

  00185	e8 00 00 00 00	 call	 ?_Throw_tree_length_error@std@@YAXXZ ; std::_Throw_tree_length_error
$LN172@RegisterGu:
  0018a	cc		 int	 3
_TEXT	ENDS
;	COMDAT text$x
text$x	SEGMENT
__unwindfunclet$?RegisterGuildName@CPythonGuild@@QAEXKPBD@Z$0:
  00000	8d 4d d8	 lea	 ecx, DWORD PTR $T9[ebp]
  00003	e9 00 00 00 00	 jmp	 ??1?$basic_string@DU?$char_traits@D@std@@V?$allocator@D@2@@std@@QAE@XZ ; std::basic_string<char,std::char_traits<char>,std::allocator<char> >::~basic_string<char,std::char_traits<char>,std::allocator<char> >
__unwindfunclet$?RegisterGuildName@CPythonGuild@@QAEXKPBD@Z$1:
  00008	8d 4d bc	 lea	 ecx, DWORD PTR $T8[ebp]
  0000b	e9 00 00 00 00	 jmp	 ??1?$pair@KV?$basic_string@DU?$char_traits@D@std@@V?$allocator@D@2@@std@@@std@@QAE@XZ
__unwindfunclet$?RegisterGuildName@CPythonGuild@@QAEXKPBD@Z$11:
  00010	8d 4d b0	 lea	 ecx, DWORD PTR $T6[ebp]
  00013	e9 00 00 00 00	 jmp	 ??1?$_Alloc_construct_ptr@V?$allocator@U?$_Tree_node@U?$pair@$$CBKV?$basic_string@DU?$char_traits@D@std@@V?$allocator@D@2@@std@@@std@@PAX@std@@@std@@@std@@QAE@XZ ; std::_Alloc_construct_ptr<std::allocator<std::_Tree_node<std::pair<unsigned long const ,std::basic_string<char,std::char_traits<char>,std::allocator<char> > >,void *> > >::~_Alloc_construct_ptr<std::allocator<std::_Tree_node<std::pair<unsigned long const ,std::basic_string<char,std::char_traits<char>,std::allocator<char> > >,void *> > >
  00018	cc		 int	 3
  00019	cc		 int	 3
  0001a	cc		 int	 3
  0001b	cc		 int	 3
  0001c	cc		 int	 3
__ehhandler$?RegisterGuildName@CPythonGuild@@QAEXKPBD@Z:
  0001d	90		 npad	 1
  0001e	90		 npad	 1
  0001f	8b 54 24 08	 mov	 edx, DWORD PTR [esp+8]
  00023	8d 42 0c	 lea	 eax, DWORD PTR [edx+12]
  00026	8b 4a 88	 mov	 ecx, DWORD PTR [edx-120]
  00029	33 c8		 xor	 ecx, eax
  0002b	e8 00 00 00 00	 call	 @__security_check_cookie@4
  00030	8b 4a fc	 mov	 ecx, DWORD PTR [edx-4]
  00033	33 c8		 xor	 ecx, eax
  00035	e8 00 00 00 00	 call	 @__security_check_cookie@4
  0003a	b8 00 00 00 00	 mov	 eax, OFFSET __ehfuncinfo$?RegisterGuildName@CPythonGuild@@QAEXKPBD@Z
  0003f	e9 00 00 00 00	 jmp	 ___CxxFrameHandler3
text$x	ENDS
?RegisterGuildName@CPythonGuild@@QAEXKPBD@Z ENDP	; CPythonGuild::RegisterGuildName
; Function compile flags: /Ogtp
; File D:\Metin2 Server Files\mainline\SRC_2014\Metin2Client\UserInterface\PythonGuild.cpp
; File C:\Program Files (x86)\Microsoft Visual Studio\2019\Community\VC\Tools\MSVC\14.28.29333\include\vector
; File C:\Program Files (x86)\Microsoft Visual Studio\2019\Community\VC\Tools\MSVC\14.28.29333\include\xutility
; File D:\Metin2 Server Files\mainline\SRC_2014\Metin2Client\UserInterface\PythonGuild.cpp
; File C:\Program Files (x86)\Microsoft Visual Studio\2019\Community\VC\Tools\MSVC\14.28.29333\include\xutility
; File C:\Program Files (x86)\Microsoft Visual Studio\2019\Community\VC\Tools\MSVC\14.28.29333\include\vector
; File D:\Metin2 Server Files\mainline\SRC_2014\Metin2Client\UserInterface\PythonGuild.cpp
; File C:\Program Files (x86)\Microsoft Visual Studio\2019\Community\VC\Tools\MSVC\14.28.29333\include\vector
; File C:\Program Files (x86)\Microsoft Visual Studio\2019\Community\VC\Tools\MSVC\14.28.29333\include\xutility
; File C:\Program Files (x86)\Microsoft Visual Studio\2019\Community\VC\Tools\MSVC\14.28.29333\include\vector
; File C:\Program Files (x86)\Microsoft Visual Studio\2019\Community\VC\Tools\MSVC\14.28.29333\include\xstring
; File C:\Program Files (x86)\Microsoft Visual Studio\2019\Community\VC\Tools\MSVC\14.28.29333\include\xmemory
; File C:\Program Files (x86)\Microsoft Visual Studio\2019\Community\VC\Tools\MSVC\14.28.29333\include\xstring
; File C:\Program Files (x86)\Microsoft Visual Studio\2019\Community\VC\Tools\MSVC\14.28.29333\include\xutility
; File C:\Program Files (x86)\Microsoft Visual Studio\2019\Community\VC\Tools\MSVC\14.28.29333\include\xstring
; File C:\Program Files (x86)\Microsoft Visual Studio\2019\Community\VC\Tools\MSVC\14.28.29333\include\xmemory
; File C:\Program Files (x86)\Microsoft Visual Studio\2019\Community\VC\Tools\MSVC\14.28.29333\include\xstring
; File C:\Program Files (x86)\Microsoft Visual Studio\2019\Community\VC\Tools\MSVC\14.28.29333\include\vector
; File D:\Metin2 Server Files\mainline\SRC_2014\Metin2Client\UserInterface\PythonGuild.cpp
;	COMDAT ?RemoveMember@CPythonGuild@@QAEXK@Z
_TEXT	SEGMENT
_this$1$ = -4						; size = 4
__First$1$ = 8						; size = 4
_dwPID$ = 8						; size = 4
?RemoveMember@CPythonGuild@@QAEXK@Z PROC		; CPythonGuild::RemoveMember, COMDAT
; _this$ = ecx

; 125  : {

  00000	55		 push	 ebp
  00001	8b ec		 mov	 ebp, esp
  00003	51		 push	 ecx
  00004	53		 push	 ebx
  00005	8b d9		 mov	 ebx, ecx
  00007	57		 push	 edi
  00008	89 5d fc	 mov	 DWORD PTR _this$1$[ebp], ebx
; File C:\Program Files (x86)\Microsoft Visual Studio\2019\Community\VC\Tools\MSVC\14.28.29333\include\vector

; 42   :     _Vector_const_iterator(_Tptr _Parg, const _Container_base* _Pvector) noexcept : _Ptr(_Parg) {

  0000b	8b 7b 40	 mov	 edi, DWORD PTR [ebx+64]
  0000e	8b 43 3c	 mov	 eax, DWORD PTR [ebx+60]
; File C:\Program Files (x86)\Microsoft Visual Studio\2019\Community\VC\Tools\MSVC\14.28.29333\include\xutility

; 5791 :     for (; _UFirst != _ULast; ++_UFirst) {

  00011	3b c7		 cmp	 eax, edi
  00013	74 0e		 je	 SHORT $LN101@RemoveMemb
  00015	8b 4d 08	 mov	 ecx, DWORD PTR _dwPID$[ebp]
$LL25@RemoveMemb:
; File D:\Metin2 Server Files\mainline\SRC_2014\Metin2Client\UserInterface\PythonGuild.cpp

; 89   : 		return rGuildMemberData.dwPID == dwSearchingPID;

  00018	39 08		 cmp	 DWORD PTR [eax], ecx
; File C:\Program Files (x86)\Microsoft Visual Studio\2019\Community\VC\Tools\MSVC\14.28.29333\include\xutility

; 5792 :         if (_Pred(*_UFirst)) {

  0001a	74 07		 je	 SHORT $LN101@RemoveMemb

; 5791 :     for (; _UFirst != _ULast; ++_UFirst) {

  0001c	83 c0 24	 add	 eax, 36			; 00000024H
  0001f	3b c7		 cmp	 eax, edi
  00021	75 f5		 jne	 SHORT $LL25@RemoveMemb
$LN101@RemoveMemb:
; File C:\Program Files (x86)\Microsoft Visual Studio\2019\Community\VC\Tools\MSVC\14.28.29333\include\vector

; 195  :         _Ptr = _Refancy<_Tptr>(const_cast<value_type*>(_It));

  00023	50		 push	 eax
  00024	e8 00 00 00 00	 call	 ??$_Refancy@PAUSGuildMemberData@CPythonGuild@@$0A@@std@@YAPAUSGuildMemberData@CPythonGuild@@PAU12@@Z ; std::_Refancy<CPythonGuild::SGuildMemberData *,0>
  00029	83 c4 04	 add	 esp, 4

; 42   :     _Vector_const_iterator(_Tptr _Parg, const _Container_base* _Pvector) noexcept : _Ptr(_Parg) {

  0002c	3b f8		 cmp	 edi, eax
; File D:\Metin2 Server Files\mainline\SRC_2014\Metin2Client\UserInterface\PythonGuild.cpp

; 131  : 	if (m_GuildMemberDataVector.end() == itor)

  0002e	0f 84 cc 00 00
	00		 je	 $LN90@RemoveMemb
; File C:\Program Files (x86)\Microsoft Visual Studio\2019\Community\VC\Tools\MSVC\14.28.29333\include\vector

; 1353 :         _Move_unchecked(_Whereptr + 1, _Mylast, _Whereptr);

  00034	8d 48 24	 lea	 ecx, DWORD PTR [eax+36]
  00037	89 4d 08	 mov	 DWORD PTR __First$1$[ebp], ecx
; File C:\Program Files (x86)\Microsoft Visual Studio\2019\Community\VC\Tools\MSVC\14.28.29333\include\xutility

; 4632 :     for (; _First != _Last; ++_Dest, (void) ++_First) {

  0003a	3b cf		 cmp	 ecx, edi
  0003c	0f 84 93 00 00
	00		 je	 $LN100@RemoveMemb
; File C:\Program Files (x86)\Microsoft Visual Studio\2019\Community\VC\Tools\MSVC\14.28.29333\include\vector

; 1344 :         pointer& _Mylast        = _My_data._Mylast;

  00042	56		 push	 esi
  00043	8d 70 04	 lea	 esi, DWORD PTR [eax+4]
$LL47@RemoveMemb:
  00046	8b 01		 mov	 eax, DWORD PTR [ecx]
; File C:\Program Files (x86)\Microsoft Visual Studio\2019\Community\VC\Tools\MSVC\14.28.29333\include\xstring

; 2665 :         if (this != _STD addressof(_Right)) {

  00048	8d 5e 24	 lea	 ebx, DWORD PTR [esi+36]
  0004b	89 46 fc	 mov	 DWORD PTR [esi-4], eax
  0004e	3b f3		 cmp	 esi, ebx
  00050	74 49		 je	 SHORT $LN68@RemoveMemb

; 2227 :         return _BUF_SIZE <= _Myres;

  00052	8b 46 14	 mov	 eax, DWORD PTR [esi+20]
  00055	83 f8 10	 cmp	 eax, 16			; 00000010H

; 4385 :         if (_Mypair._Myval2._Large_string_engaged()) {

  00058	72 0f		 jb	 SHORT $LN57@RemoveMemb

; 4386 :             const pointer _Ptr = _Mypair._Myval2._Bx._Ptr;
; 4387 :             auto& _Al          = _Getal();
; 4388 :             _Destroy_in_place(_Mypair._Myval2._Bx._Ptr);
; 4389 :             _Al.deallocate(_Ptr, _Mypair._Myval2._Myres + 1);

  0005a	40		 inc	 eax
; File C:\Program Files (x86)\Microsoft Visual Studio\2019\Community\VC\Tools\MSVC\14.28.29333\include\xmemory

; 810  :         _Deallocate<_New_alignof<_Ty>>(_Ptr, sizeof(_Ty) * _Count);

  0005b	50		 push	 eax
  0005c	ff 36		 push	 DWORD PTR [esi]
  0005e	e8 00 00 00 00	 call	 ??$_Deallocate@$07$0A@@std@@YAXPAXI@Z ; std::_Deallocate<8,0>
  00063	8b 4d 08	 mov	 ecx, DWORD PTR __First$1$[ebp]
  00066	83 c4 08	 add	 esp, 8
$LN57@RemoveMemb:
; File C:\Program Files (x86)\Microsoft Visual Studio\2019\Community\VC\Tools\MSVC\14.28.29333\include\xstring

; 4392 :         _Mypair._Myval2._Mysize = 0;

  00069	c7 46 10 00 00
	00 00		 mov	 DWORD PTR [esi+16], 0

; 4393 :         _Mypair._Myval2._Myres  = _BUF_SIZE - 1;

  00070	c7 46 14 0f 00
	00 00		 mov	 DWORD PTR [esi+20], 15	; 0000000fH

; 4394 :         // the _Traits::assign is last so the codegen doesn't think the char write can alias this
; 4395 :         _Traits::assign(_Mypair._Myval2._Bx._Buf[0], _Elem());

  00077	c6 06 00	 mov	 BYTE PTR [esi], 0

; 2684 :         _CSTD memcpy(_My_data_mem, _Right_data_mem, _Memcpy_val_size);

  0007a	0f 10 03	 movups	 xmm0, XMMWORD PTR [ebx]
  0007d	0f 11 06	 movups	 XMMWORD PTR [esi], xmm0
  00080	f3 0f 7e 43 10	 movq	 xmm0, QWORD PTR [ebx+16]
  00085	66 0f d6 46 10	 movq	 QWORD PTR [esi+16], xmm0

; 4377 :         _Mypair._Myval2._Mysize = 0;

  0008a	c7 46 34 00 00
	00 00		 mov	 DWORD PTR [esi+52], 0

; 4378 :         _Mypair._Myval2._Myres  = _BUF_SIZE - 1;

  00091	c7 46 38 0f 00
	00 00		 mov	 DWORD PTR [esi+56], 15	; 0000000fH

; 4379 :         // the _Traits::assign is last so the codegen doesn't think the char write can alias this
; 4380 :         _Traits::assign(_Mypair._Myval2._Bx._Buf[0], _Elem());

  00098	c6 03 00	 mov	 BYTE PTR [ebx], 0
$LN68@RemoveMemb:
  0009b	0f b6 46 3c	 movzx	 eax, BYTE PTR [esi+60]
; File C:\Program Files (x86)\Microsoft Visual Studio\2019\Community\VC\Tools\MSVC\14.28.29333\include\xutility

; 4632 :     for (; _First != _Last; ++_Dest, (void) ++_First) {

  0009f	83 c1 24	 add	 ecx, 36			; 00000024H
  000a2	88 46 18	 mov	 BYTE PTR [esi+24], al
  000a5	0f b6 46 3d	 movzx	 eax, BYTE PTR [esi+61]
  000a9	88 46 19	 mov	 BYTE PTR [esi+25], al
  000ac	0f b6 46 3e	 movzx	 eax, BYTE PTR [esi+62]
  000b0	88 46 1a	 mov	 BYTE PTR [esi+26], al
  000b3	0f b6 46 3f	 movzx	 eax, BYTE PTR [esi+63]
  000b7	88 46 1b	 mov	 BYTE PTR [esi+27], al
  000ba	8b 46 40	 mov	 eax, DWORD PTR [esi+64]
  000bd	89 46 1c	 mov	 DWORD PTR [esi+28], eax
  000c0	83 c6 24	 add	 esi, 36			; 00000024H
  000c3	89 4d 08	 mov	 DWORD PTR __First$1$[ebp], ecx
  000c6	3b cf		 cmp	 ecx, edi
  000c8	0f 85 78 ff ff
	ff		 jne	 $LL47@RemoveMemb
  000ce	8b 5d fc	 mov	 ebx, DWORD PTR _this$1$[ebp]
  000d1	5e		 pop	 esi
  000d2	8b 7b 40	 mov	 edi, DWORD PTR [ebx+64]
$LN100@RemoveMemb:
; File C:\Program Files (x86)\Microsoft Visual Studio\2019\Community\VC\Tools\MSVC\14.28.29333\include\xstring

; 2227 :         return _BUF_SIZE <= _Myres;

  000d5	8b 47 f4	 mov	 eax, DWORD PTR [edi-12]
  000d8	83 f8 10	 cmp	 eax, 16			; 00000010H

; 4385 :         if (_Mypair._Myval2._Large_string_engaged()) {

  000db	72 0d		 jb	 SHORT $LN81@RemoveMemb

; 4386 :             const pointer _Ptr = _Mypair._Myval2._Bx._Ptr;
; 4387 :             auto& _Al          = _Getal();
; 4388 :             _Destroy_in_place(_Mypair._Myval2._Bx._Ptr);
; 4389 :             _Al.deallocate(_Ptr, _Mypair._Myval2._Myres + 1);

  000dd	40		 inc	 eax
; File C:\Program Files (x86)\Microsoft Visual Studio\2019\Community\VC\Tools\MSVC\14.28.29333\include\xmemory

; 810  :         _Deallocate<_New_alignof<_Ty>>(_Ptr, sizeof(_Ty) * _Count);

  000de	50		 push	 eax
  000df	ff 77 e0	 push	 DWORD PTR [edi-32]
  000e2	e8 00 00 00 00	 call	 ??$_Deallocate@$07$0A@@std@@YAXPAXI@Z ; std::_Deallocate<8,0>
  000e7	83 c4 08	 add	 esp, 8
$LN81@RemoveMemb:
; File C:\Program Files (x86)\Microsoft Visual Studio\2019\Community\VC\Tools\MSVC\14.28.29333\include\xstring

; 4392 :         _Mypair._Myval2._Mysize = 0;

  000ea	c7 47 f0 00 00
	00 00		 mov	 DWORD PTR [edi-16], 0

; 4393 :         _Mypair._Myval2._Myres  = _BUF_SIZE - 1;

  000f1	c7 47 f4 0f 00
	00 00		 mov	 DWORD PTR [edi-12], 15	; 0000000fH

; 4394 :         // the _Traits::assign is last so the codegen doesn't think the char write can alias this
; 4395 :         _Traits::assign(_Mypair._Myval2._Bx._Buf[0], _Elem());

  000f8	c6 47 e0 00	 mov	 BYTE PTR [edi-32], 0
; File C:\Program Files (x86)\Microsoft Visual Studio\2019\Community\VC\Tools\MSVC\14.28.29333\include\vector

; 1355 :         --_Mylast;

  000fc	83 43 40 dc	 add	 DWORD PTR [ebx+64], -36	; ffffffdcH
$LN90@RemoveMemb:
  00100	5f		 pop	 edi
; File D:\Metin2 Server Files\mainline\SRC_2014\Metin2Client\UserInterface\PythonGuild.cpp

; 135  : }

  00101	5b		 pop	 ebx
  00102	8b e5		 mov	 esp, ebp
  00104	5d		 pop	 ebp
  00105	c2 04 00	 ret	 4
?RemoveMember@CPythonGuild@@QAEXK@Z ENDP		; CPythonGuild::RemoveMember
_TEXT	ENDS
; Function compile flags: /Ogtp
; File D:\Metin2 Server Files\mainline\SRC_2014\Metin2Client\UserInterface\PythonGuild.cpp
;	COMDAT ?ChangeGuildMemberGeneralFlag@CPythonGuild@@QAEXKE@Z
_TEXT	SEGMENT
_pGuildMemberData$ = -4					; size = 4
_dwPID$ = 8						; size = 4
_byFlag$ = 12						; size = 1
?ChangeGuildMemberGeneralFlag@CPythonGuild@@QAEXKE@Z PROC ; CPythonGuild::ChangeGuildMemberGeneralFlag, COMDAT
; _this$ = ecx

; 116  : {

  00000	55		 push	 ebp
  00001	8b ec		 mov	 ebp, esp
  00003	51		 push	 ecx

; 117  : 	TGuildMemberData * pGuildMemberData;
; 118  : 	if (!GetMemberDataPtrByPID(dwPID, &pGuildMemberData))

  00004	8d 45 fc	 lea	 eax, DWORD PTR _pGuildMemberData$[ebp]
  00007	50		 push	 eax
  00008	ff 75 08	 push	 DWORD PTR _dwPID$[ebp]
  0000b	e8 00 00 00 00	 call	 ?GetMemberDataPtrByPID@CPythonGuild@@QAEHKPAPAUSGuildMemberData@1@@Z ; CPythonGuild::GetMemberDataPtrByPID
  00010	85 c0		 test	 eax, eax
  00012	74 09		 je	 SHORT $LN1@ChangeGuil

; 119  : 		return;
; 120  : 
; 121  : 	pGuildMemberData->byGeneralFlag = byFlag;

  00014	8b 45 fc	 mov	 eax, DWORD PTR _pGuildMemberData$[ebp]
  00017	8a 4d 0c	 mov	 cl, BYTE PTR _byFlag$[ebp]
  0001a	88 48 1f	 mov	 BYTE PTR [eax+31], cl
$LN1@ChangeGuil:

; 122  : }

  0001d	8b e5		 mov	 esp, ebp
  0001f	5d		 pop	 ebp
  00020	c2 08 00	 ret	 8
?ChangeGuildMemberGeneralFlag@CPythonGuild@@QAEXKE@Z ENDP ; CPythonGuild::ChangeGuildMemberGeneralFlag
_TEXT	ENDS
; Function compile flags: /Ogtp
; File D:\Metin2 Server Files\mainline\SRC_2014\Metin2Client\UserInterface\PythonGuild.cpp
;	COMDAT ?ChangeGuildMemberGrade@CPythonGuild@@QAEXKE@Z
_TEXT	SEGMENT
_pGuildMemberData$ = -4					; size = 4
_dwPID$ = 8						; size = 4
_byGrade$ = 12						; size = 1
?ChangeGuildMemberGrade@CPythonGuild@@QAEXKE@Z PROC	; CPythonGuild::ChangeGuildMemberGrade, COMDAT
; _this$ = ecx

; 107  : {

  00000	55		 push	 ebp
  00001	8b ec		 mov	 ebp, esp
  00003	51		 push	 ecx

; 108  : 	TGuildMemberData * pGuildMemberData;
; 109  : 	if (!GetMemberDataPtrByPID(dwPID, &pGuildMemberData))

  00004	8d 45 fc	 lea	 eax, DWORD PTR _pGuildMemberData$[ebp]
  00007	50		 push	 eax
  00008	ff 75 08	 push	 DWORD PTR _dwPID$[ebp]
  0000b	e8 00 00 00 00	 call	 ?GetMemberDataPtrByPID@CPythonGuild@@QAEHKPAPAUSGuildMemberData@1@@Z ; CPythonGuild::GetMemberDataPtrByPID
  00010	85 c0		 test	 eax, eax
  00012	74 09		 je	 SHORT $LN1@ChangeGuil

; 110  : 		return;
; 111  : 
; 112  : 	pGuildMemberData->byGrade = byGrade;

  00014	8b 45 fc	 mov	 eax, DWORD PTR _pGuildMemberData$[ebp]
  00017	8a 4d 0c	 mov	 cl, BYTE PTR _byGrade$[ebp]
  0001a	88 48 1c	 mov	 BYTE PTR [eax+28], cl
$LN1@ChangeGuil:

; 113  : }

  0001d	8b e5		 mov	 esp, ebp
  0001f	5d		 pop	 ebp
  00020	c2 08 00	 ret	 8
?ChangeGuildMemberGrade@CPythonGuild@@QAEXKE@Z ENDP	; CPythonGuild::ChangeGuildMemberGrade
_TEXT	ENDS
; Function compile flags: /Ogtp
; File D:\Metin2 Server Files\mainline\SRC_2014\Metin2Client\UserInterface\PythonGuild.cpp
; File C:\Program Files (x86)\Microsoft Visual Studio\2019\Community\VC\Tools\MSVC\14.28.29333\include\vector
; File D:\Metin2 Server Files\mainline\SRC_2014\Metin2Client\UserInterface\PythonGuild.cpp
;	COMDAT ?RegisterMember@CPythonGuild@@QAEXAAUSGuildMemberData@1@@Z
_TEXT	SEGMENT
_pGuildMemberData$ = -4					; size = 4
_rGuildMemberData$ = 8					; size = 4
?RegisterMember@CPythonGuild@@QAEXAAUSGuildMemberData@1@@Z PROC ; CPythonGuild::RegisterMember, COMDAT
; _this$ = ecx

; 66   : {

  00000	55		 push	 ebp
  00001	8b ec		 mov	 ebp, esp
  00003	51		 push	 ecx
  00004	53		 push	 ebx
  00005	56		 push	 esi

; 67   : 	TGuildMemberData * pGuildMemberData;
; 68   : 	if (GetMemberDataPtrByPID(rGuildMemberData.dwPID, &pGuildMemberData))

  00006	8b 75 08	 mov	 esi, DWORD PTR _rGuildMemberData$[ebp]
  00009	8d 45 fc	 lea	 eax, DWORD PTR _pGuildMemberData$[ebp]
  0000c	50		 push	 eax
  0000d	8b d9		 mov	 ebx, ecx
  0000f	ff 36		 push	 DWORD PTR [esi]
  00011	e8 00 00 00 00	 call	 ?GetMemberDataPtrByPID@CPythonGuild@@QAEHKPAPAUSGuildMemberData@1@@Z ; CPythonGuild::GetMemberDataPtrByPID
  00016	85 c0		 test	 eax, eax
  00018	74 20		 je	 SHORT $LN2@RegisterMe

; 69   : 	{
; 70   : 		pGuildMemberData->byGeneralFlag = rGuildMemberData.byGeneralFlag;

  0001a	8b 4d fc	 mov	 ecx, DWORD PTR _pGuildMemberData$[ebp]
  0001d	0f b6 46 1f	 movzx	 eax, BYTE PTR [esi+31]
  00021	88 41 1f	 mov	 BYTE PTR [ecx+31], al

; 71   : 		pGuildMemberData->byGrade = rGuildMemberData.byGrade;

  00024	0f b6 46 1c	 movzx	 eax, BYTE PTR [esi+28]
  00028	88 41 1c	 mov	 BYTE PTR [ecx+28], al

; 72   : 		pGuildMemberData->byLevel = rGuildMemberData.byLevel;

  0002b	0f b6 46 1e	 movzx	 eax, BYTE PTR [esi+30]
  0002f	88 41 1e	 mov	 BYTE PTR [ecx+30], al

; 73   : 		pGuildMemberData->dwOffer = rGuildMemberData.dwOffer;

  00032	8b 46 20	 mov	 eax, DWORD PTR [esi+32]
  00035	89 41 20	 mov	 DWORD PTR [ecx+32], eax

; 74   : 	}

  00038	eb 4c		 jmp	 SHORT $LN7@RegisterMe
$LN2@RegisterMe:
  0003a	57		 push	 edi
; File C:\Program Files (x86)\Microsoft Visual Studio\2019\Community\VC\Tools\MSVC\14.28.29333\include\vector

; 704  :         if (_Mylast != _My_data._Myend) {

  0003b	8b 7b 40	 mov	 edi, DWORD PTR [ebx+64]
  0003e	3b 7b 44	 cmp	 edi, DWORD PTR [ebx+68]
  00041	74 38		 je	 SHORT $LN8@RegisterMe
  00043	8b 06		 mov	 eax, DWORD PTR [esi]
  00045	8d 4f 04	 lea	 ecx, DWORD PTR [edi+4]
  00048	89 07		 mov	 DWORD PTR [edi], eax
  0004a	8d 46 04	 lea	 eax, DWORD PTR [esi+4]
  0004d	50		 push	 eax
  0004e	e8 00 00 00 00	 call	 ??0?$basic_string@DU?$char_traits@D@std@@V?$allocator@D@2@@std@@QAE@ABV01@@Z ; std::basic_string<char,std::char_traits<char>,std::allocator<char> >::basic_string<char,std::char_traits<char>,std::allocator<char> >
  00053	0f b6 46 1c	 movzx	 eax, BYTE PTR [esi+28]
  00057	88 47 1c	 mov	 BYTE PTR [edi+28], al
  0005a	0f b6 46 1d	 movzx	 eax, BYTE PTR [esi+29]
  0005e	88 47 1d	 mov	 BYTE PTR [edi+29], al
  00061	0f b6 46 1e	 movzx	 eax, BYTE PTR [esi+30]
  00065	88 47 1e	 mov	 BYTE PTR [edi+30], al
  00068	0f b6 46 1f	 movzx	 eax, BYTE PTR [esi+31]
  0006c	88 47 1f	 mov	 BYTE PTR [edi+31], al
  0006f	8b 46 20	 mov	 eax, DWORD PTR [esi+32]
  00072	89 47 20	 mov	 DWORD PTR [edi+32], eax

; 690  :         ++_Mylast;

  00075	83 43 40 24	 add	 DWORD PTR [ebx+64], 36	; 00000024H

; 705  :             return _Emplace_back_with_unused_capacity(_STD forward<_Valty>(_Val)...);

  00079	eb 0a		 jmp	 SHORT $LN17@RegisterMe
$LN8@RegisterMe:

; 706  :         }
; 707  : 
; 708  :         _Ty& _Result = *_Emplace_reallocate(_Mylast, _STD forward<_Valty>(_Val)...);

  0007b	56		 push	 esi
  0007c	57		 push	 edi
  0007d	8d 4b 3c	 lea	 ecx, DWORD PTR [ebx+60]
  00080	e8 00 00 00 00	 call	 ??$_Emplace_reallocate@ABUSGuildMemberData@CPythonGuild@@@?$vector@USGuildMemberData@CPythonGuild@@V?$allocator@USGuildMemberData@CPythonGuild@@@std@@@std@@QAEPAUSGuildMemberData@CPythonGuild@@QAU23@ABU23@@Z ; std::vector<CPythonGuild::SGuildMemberData,std::allocator<CPythonGuild::SGuildMemberData> >::_Emplace_reallocate<CPythonGuild::SGuildMemberData const &>
$LN17@RegisterMe:
  00085	5f		 pop	 edi
$LN7@RegisterMe:
; File D:\Metin2 Server Files\mainline\SRC_2014\Metin2Client\UserInterface\PythonGuild.cpp

; 80   : 	__CalculateLevelAverage();

  00086	8b cb		 mov	 ecx, ebx
  00088	e8 00 00 00 00	 call	 ?__CalculateLevelAverage@CPythonGuild@@IAEXXZ ; CPythonGuild::__CalculateLevelAverage

; 81   : 	__SortMember();

  0008d	8b cb		 mov	 ecx, ebx
  0008f	e8 00 00 00 00	 call	 ?__SortMember@CPythonGuild@@IAEXXZ ; CPythonGuild::__SortMember
  00094	5e		 pop	 esi
  00095	5b		 pop	 ebx

; 82   : }

  00096	8b e5		 mov	 esp, ebp
  00098	5d		 pop	 ebp
  00099	c2 04 00	 ret	 4
?RegisterMember@CPythonGuild@@QAEXAAUSGuildMemberData@1@@Z ENDP ; CPythonGuild::RegisterMember
_TEXT	ENDS
; Function compile flags: /Ogtp
; File D:\Metin2 Server Files\mainline\SRC_2014\Metin2Client\UserInterface\PythonGuild.cpp
; File C:\Program Files (x86)\Microsoft Visual Studio\2019\Community\VC\Tools\MSVC\14.28.29333\include\xstring
; File D:\Metin2 Server Files\mainline\SRC_2014\Metin2Client\UserInterface\PythonGuild.cpp
; File C:\Program Files (x86)\Microsoft Visual Studio\2019\Community\VC\Tools\MSVC\14.28.29333\include\xstring
; File D:\Metin2 Server Files\mainline\SRC_2014\Metin2Client\UserInterface\PythonGuild.cpp
; File C:\Program Files (x86)\Microsoft Visual Studio\2019\Community\VC\Tools\MSVC\14.28.29333\include\xstring
; File D:\Metin2 Server Files\mainline\SRC_2014\Metin2Client\UserInterface\PythonGuild.cpp
; File C:\Program Files (x86)\Microsoft Visual Studio\2019\Community\VC\Tools\MSVC\14.28.29333\include\vector
; File C:\Program Files (x86)\Microsoft Visual Studio\2019\Community\VC\Tools\MSVC\14.28.29333\include\xmemory
; File C:\Program Files (x86)\Microsoft Visual Studio\2019\Community\VC\Tools\MSVC\14.28.29333\include\vector
; File D:\Metin2 Server Files\mainline\SRC_2014\Metin2Client\UserInterface\PythonGuild.cpp
;	COMDAT ?RegisterComment@CPythonGuild@@QAEXKPBD0@Z
_TEXT	SEGMENT
$T2 = -76						; size = 4
tv66 = -76						; size = 4
_this$GSCopy$1$ = -72					; size = 4
_CommentData$ = -68					; size = 52
__$ArrayPad$ = -16					; size = 4
__$EHRec$ = -12						; size = 12
_dwCommentID$ = 8					; size = 4
_c_szName$ = 12						; size = 4
_c_szComment$ = 16					; size = 4
?RegisterComment@CPythonGuild@@QAEXKPBD0@Z PROC		; CPythonGuild::RegisterComment, COMDAT
; _this$ = ecx

; 53   : {

  00000	55		 push	 ebp
  00001	8b ec		 mov	 ebp, esp
  00003	6a ff		 push	 -1
  00005	68 00 00 00 00	 push	 __ehhandler$?RegisterComment@CPythonGuild@@QAEXKPBD0@Z
  0000a	64 a1 00 00 00
	00		 mov	 eax, DWORD PTR fs:0
  00010	50		 push	 eax
  00011	83 ec 40	 sub	 esp, 64			; 00000040H
  00014	a1 00 00 00 00	 mov	 eax, DWORD PTR ___security_cookie
  00019	33 c5		 xor	 eax, ebp
  0001b	89 45 f0	 mov	 DWORD PTR __$ArrayPad$[ebp], eax
  0001e	53		 push	 ebx
  0001f	56		 push	 esi
  00020	57		 push	 edi
  00021	50		 push	 eax
  00022	8d 45 f4	 lea	 eax, DWORD PTR __$EHRec$[ebp]
  00025	64 a3 00 00 00
	00		 mov	 DWORD PTR fs:0, eax
  0002b	89 4d b8	 mov	 DWORD PTR _this$GSCopy$1$[ebp], ecx
  0002e	8b 5d 10	 mov	 ebx, DWORD PTR _c_szComment$[ebp]

; 54   : 	if (0 == strlen(c_szComment))

  00031	8b d3		 mov	 edx, ebx
  00033	8b 7d 0c	 mov	 edi, DWORD PTR _c_szName$[ebp]
  00036	8d 72 01	 lea	 esi, DWORD PTR [edx+1]
  00039	0f 1f 80 00 00
	00 00		 npad	 7
$LL55@RegisterCo:
  00040	8a 02		 mov	 al, BYTE PTR [edx]
  00042	42		 inc	 edx
  00043	84 c0		 test	 al, al
  00045	75 f9		 jne	 SHORT $LL55@RegisterCo
  00047	2b d6		 sub	 edx, esi
  00049	0f 84 ae 00 00
	00		 je	 $LN1@RegisterCo
; File C:\Program Files (x86)\Microsoft Visual Studio\2019\Community\VC\Tools\MSVC\14.28.29333\include\xstring

; 4377 :         _Mypair._Myval2._Mysize = 0;

  0004f	c7 45 d0 00 00
	00 00		 mov	 DWORD PTR _CommentData$[ebp+20], 0

; 4378 :         _Mypair._Myval2._Myres  = _BUF_SIZE - 1;

  00056	c7 45 d4 0f 00
	00 00		 mov	 DWORD PTR _CommentData$[ebp+24], 15 ; 0000000fH

; 4379 :         // the _Traits::assign is last so the codegen doesn't think the char write can alias this
; 4380 :         _Traits::assign(_Mypair._Myval2._Bx._Buf[0], _Elem());

  0005d	88 45 c0	 mov	 BYTE PTR _CommentData$[ebp+4], al

; 4377 :         _Mypair._Myval2._Mysize = 0;

  00060	c7 45 e8 00 00
	00 00		 mov	 DWORD PTR _CommentData$[ebp+44], 0

; 4378 :         _Mypair._Myval2._Myres  = _BUF_SIZE - 1;

  00067	c7 45 ec 0f 00
	00 00		 mov	 DWORD PTR _CommentData$[ebp+48], 15 ; 0000000fH

; 4379 :         // the _Traits::assign is last so the codegen doesn't think the char write can alias this
; 4380 :         _Traits::assign(_Mypair._Myval2._Bx._Buf[0], _Elem());

  0006e	88 45 d8	 mov	 BYTE PTR _CommentData$[ebp+28], al
; File D:\Metin2 Server Files\mainline\SRC_2014\Metin2Client\UserInterface\PythonGuild.cpp

; 58   : 	CommentData.dwCommentID = dwCommentID;

  00071	8b 45 08	 mov	 eax, DWORD PTR _dwCommentID$[ebp]
; File C:\Program Files (x86)\Microsoft Visual Studio\2019\Community\VC\Tools\MSVC\14.28.29333\include\xstring

; 389  :         return _CSTD strlen(reinterpret_cast<const char*>(_First));

  00074	8b cf		 mov	 ecx, edi
; File D:\Metin2 Server Files\mainline\SRC_2014\Metin2Client\UserInterface\PythonGuild.cpp

; 57   : 	TGuildBoardCommentData CommentData;

  00076	c7 45 fc 00 00
	00 00		 mov	 DWORD PTR __$EHRec$[ebp+8], 0

; 58   : 	CommentData.dwCommentID = dwCommentID;

  0007d	89 45 bc	 mov	 DWORD PTR _CommentData$[ebp], eax
; File C:\Program Files (x86)\Microsoft Visual Studio\2019\Community\VC\Tools\MSVC\14.28.29333\include\xstring

; 389  :         return _CSTD strlen(reinterpret_cast<const char*>(_First));

  00080	8d 51 01	 lea	 edx, DWORD PTR [ecx+1]
$LL56@RegisterCo:
  00083	8a 01		 mov	 al, BYTE PTR [ecx]
  00085	41		 inc	 ecx
  00086	84 c0		 test	 al, al
  00088	75 f9		 jne	 SHORT $LL56@RegisterCo
  0008a	2b ca		 sub	 ecx, edx

; 3062 :         return assign(_Ptr, _Convert_size<size_type>(_Traits::length(_Ptr)));

  0008c	51		 push	 ecx
  0008d	57		 push	 edi
  0008e	8d 4d c0	 lea	 ecx, DWORD PTR _CommentData$[ebp+4]
  00091	e8 00 00 00 00	 call	 ?assign@?$basic_string@DU?$char_traits@D@std@@V?$allocator@D@2@@std@@QAEAAV12@QBDI@Z ; std::basic_string<char,std::char_traits<char>,std::allocator<char> >::assign

; 389  :         return _CSTD strlen(reinterpret_cast<const char*>(_First));

  00096	8b cb		 mov	 ecx, ebx
  00098	8d 51 01	 lea	 edx, DWORD PTR [ecx+1]
  0009b	0f 1f 44 00 00	 npad	 5
$LL57@RegisterCo:
  000a0	8a 01		 mov	 al, BYTE PTR [ecx]
  000a2	41		 inc	 ecx
  000a3	84 c0		 test	 al, al
  000a5	75 f9		 jne	 SHORT $LL57@RegisterCo
  000a7	2b ca		 sub	 ecx, edx

; 3062 :         return assign(_Ptr, _Convert_size<size_type>(_Traits::length(_Ptr)));

  000a9	51		 push	 ecx
  000aa	53		 push	 ebx
  000ab	8d 4d d8	 lea	 ecx, DWORD PTR _CommentData$[ebp+28]
  000ae	e8 00 00 00 00	 call	 ?assign@?$basic_string@DU?$char_traits@D@std@@V?$allocator@D@2@@std@@QAEAAV12@QBDI@Z ; std::basic_string<char,std::char_traits<char>,std::allocator<char> >::assign
; File D:\Metin2 Server Files\mainline\SRC_2014\Metin2Client\UserInterface\PythonGuild.cpp

; 62   : 	m_GuildBoardCommentVector.push_back(CommentData);

  000b3	8b 7d b8	 mov	 edi, DWORD PTR _this$GSCopy$1$[ebp]
; File C:\Program Files (x86)\Microsoft Visual Studio\2019\Community\VC\Tools\MSVC\14.28.29333\include\vector

; 704  :         if (_Mylast != _My_data._Myend) {

  000b6	8b 77 4c	 mov	 esi, DWORD PTR [edi+76]
  000b9	3b 77 50	 cmp	 esi, DWORD PTR [edi+80]
  000bc	74 2a		 je	 SHORT $LN45@RegisterCo
  000be	8b 45 bc	 mov	 eax, DWORD PTR _CommentData$[ebp]
  000c1	8d 4e 04	 lea	 ecx, DWORD PTR [esi+4]
  000c4	89 06		 mov	 DWORD PTR [esi], eax
  000c6	8d 45 c0	 lea	 eax, DWORD PTR _CommentData$[ebp+4]
  000c9	50		 push	 eax
; File C:\Program Files (x86)\Microsoft Visual Studio\2019\Community\VC\Tools\MSVC\14.28.29333\include\xmemory

; 701  :         ::new (const_cast<void*>(static_cast<const volatile void*>(_Ptr))) _Objty(_STD forward<_Types>(_Args)...);

  000ca	89 75 b4	 mov	 DWORD PTR $T2[ebp], esi
  000cd	e8 00 00 00 00	 call	 ??0?$basic_string@DU?$char_traits@D@std@@V?$allocator@D@2@@std@@QAE@ABV01@@Z ; std::basic_string<char,std::char_traits<char>,std::allocator<char> >::basic_string<char,std::char_traits<char>,std::allocator<char> >
  000d2	8d 45 d8	 lea	 eax, DWORD PTR _CommentData$[ebp+28]
  000d5	c6 45 fc 01	 mov	 BYTE PTR __$EHRec$[ebp+8], 1
  000d9	50		 push	 eax
  000da	8d 4e 1c	 lea	 ecx, DWORD PTR [esi+28]
  000dd	e8 00 00 00 00	 call	 ??0?$basic_string@DU?$char_traits@D@std@@V?$allocator@D@2@@std@@QAE@ABV01@@Z ; std::basic_string<char,std::char_traits<char>,std::allocator<char> >::basic_string<char,std::char_traits<char>,std::allocator<char> >
; File C:\Program Files (x86)\Microsoft Visual Studio\2019\Community\VC\Tools\MSVC\14.28.29333\include\vector

; 690  :         ++_Mylast;

  000e2	83 47 4c 34	 add	 DWORD PTR [edi+76], 52	; 00000034H

; 705  :             return _Emplace_back_with_unused_capacity(_STD forward<_Valty>(_Val)...);

  000e6	eb 0d		 jmp	 SHORT $LN44@RegisterCo
$LN45@RegisterCo:

; 706  :         }
; 707  : 
; 708  :         _Ty& _Result = *_Emplace_reallocate(_Mylast, _STD forward<_Valty>(_Val)...);

  000e8	8d 45 bc	 lea	 eax, DWORD PTR _CommentData$[ebp]
  000eb	50		 push	 eax
  000ec	56		 push	 esi
  000ed	8d 4f 48	 lea	 ecx, DWORD PTR [edi+72]
  000f0	e8 00 00 00 00	 call	 ??$_Emplace_reallocate@ABUSGuildBoardCommentData@CPythonGuild@@@?$vector@USGuildBoardCommentData@CPythonGuild@@V?$allocator@USGuildBoardCommentData@CPythonGuild@@@std@@@std@@QAEPAUSGuildBoardCommentData@CPythonGuild@@QAU23@ABU23@@Z ; std::vector<CPythonGuild::SGuildBoardCommentData,std::allocator<CPythonGuild::SGuildBoardCommentData> >::_Emplace_reallocate<CPythonGuild::SGuildBoardCommentData const &>
$LN44@RegisterCo:
; File D:\Metin2 Server Files\mainline\SRC_2014\Metin2Client\UserInterface\PythonGuild.cpp

; 63   : }

  000f5	8d 4d bc	 lea	 ecx, DWORD PTR _CommentData$[ebp]
  000f8	e8 00 00 00 00	 call	 ??1SGuildBoardCommentData@CPythonGuild@@QAE@XZ
$LN1@RegisterCo:
  000fd	8b 4d f4	 mov	 ecx, DWORD PTR __$EHRec$[ebp]
  00100	64 89 0d 00 00
	00 00		 mov	 DWORD PTR fs:0, ecx
  00107	59		 pop	 ecx
  00108	5f		 pop	 edi
  00109	5e		 pop	 esi
  0010a	5b		 pop	 ebx
  0010b	8b 4d f0	 mov	 ecx, DWORD PTR __$ArrayPad$[ebp]
  0010e	33 cd		 xor	 ecx, ebp
  00110	e8 00 00 00 00	 call	 @__security_check_cookie@4
  00115	8b e5		 mov	 esp, ebp
  00117	5d		 pop	 ebp
  00118	c2 0c 00	 ret	 12			; 0000000cH
_TEXT	ENDS
;	COMDAT text$x
text$x	SEGMENT
__unwindfunclet$?RegisterComment@CPythonGuild@@QAEXKPBD0@Z$0:
  00000	8d 4d bc	 lea	 ecx, DWORD PTR _CommentData$[ebp]
  00003	e9 00 00 00 00	 jmp	 ??1SGuildBoardCommentData@CPythonGuild@@QAE@XZ
__unwindfunclet$?RegisterComment@CPythonGuild@@QAEXKPBD0@Z$8:
  00008	8b 4d b4	 mov	 ecx, DWORD PTR $T2[ebp]
  0000b	83 c1 04	 add	 ecx, 4
  0000e	e9 00 00 00 00	 jmp	 ??1?$basic_string@DU?$char_traits@D@std@@V?$allocator@D@2@@std@@QAE@XZ ; std::basic_string<char,std::char_traits<char>,std::allocator<char> >::~basic_string<char,std::char_traits<char>,std::allocator<char> >
  00013	cc		 int	 3
  00014	cc		 int	 3
  00015	cc		 int	 3
  00016	cc		 int	 3
  00017	cc		 int	 3
__ehhandler$?RegisterComment@CPythonGuild@@QAEXKPBD0@Z:
  00018	90		 npad	 1
  00019	90		 npad	 1
  0001a	8b 54 24 08	 mov	 edx, DWORD PTR [esp+8]
  0001e	8d 42 0c	 lea	 eax, DWORD PTR [edx+12]
  00021	8b 4a b0	 mov	 ecx, DWORD PTR [edx-80]
  00024	33 c8		 xor	 ecx, eax
  00026	e8 00 00 00 00	 call	 @__security_check_cookie@4
  0002b	8b 4a fc	 mov	 ecx, DWORD PTR [edx-4]
  0002e	33 c8		 xor	 ecx, eax
  00030	e8 00 00 00 00	 call	 @__security_check_cookie@4
  00035	b8 00 00 00 00	 mov	 eax, OFFSET __ehfuncinfo$?RegisterComment@CPythonGuild@@QAEXKPBD0@Z
  0003a	e9 00 00 00 00	 jmp	 ___CxxFrameHandler3
text$x	ENDS
?RegisterComment@CPythonGuild@@QAEXKPBD0@Z ENDP		; CPythonGuild::RegisterComment
; Function compile flags: /Ogtp
; File D:\Metin2 Server Files\mainline\SRC_2014\Metin2Client\UserInterface\PythonGuild.cpp
; File C:\Program Files (x86)\Microsoft Visual Studio\2019\Community\VC\Tools\MSVC\14.28.29333\include\vector
; File D:\Metin2 Server Files\mainline\SRC_2014\Metin2Client\UserInterface\PythonGuild.cpp
;	COMDAT ?ClearComment@CPythonGuild@@QAEXXZ
_TEXT	SEGMENT
?ClearComment@CPythonGuild@@QAEXXZ PROC			; CPythonGuild::ClearComment, COMDAT
; _this$ = ecx

; 48   : {

  00000	56		 push	 esi

; 49   : 	m_GuildBoardCommentVector.clear();

  00001	8d 71 48	 lea	 esi, DWORD PTR [ecx+72]
; File C:\Program Files (x86)\Microsoft Visual Studio\2019\Community\VC\Tools\MSVC\14.28.29333\include\vector

; 1612 :         _Destroy_range(_First, _Last, _Getal());

  00004	56		 push	 esi
  00005	ff 76 04	 push	 DWORD PTR [esi+4]
  00008	ff 36		 push	 DWORD PTR [esi]
  0000a	e8 00 00 00 00	 call	 ??$_Destroy_range@V?$allocator@USGuildBoardCommentData@CPythonGuild@@@std@@@std@@YAXPAUSGuildBoardCommentData@CPythonGuild@@QAU12@AAV?$allocator@USGuildBoardCommentData@CPythonGuild@@@0@@Z ; std::_Destroy_range<std::allocator<CPythonGuild::SGuildBoardCommentData> >

; 1390 :         _Mylast = _Myfirst;

  0000f	8b 06		 mov	 eax, DWORD PTR [esi]

; 1612 :         _Destroy_range(_First, _Last, _Getal());

  00011	83 c4 0c	 add	 esp, 12			; 0000000cH

; 1390 :         _Mylast = _Myfirst;

  00014	89 46 04	 mov	 DWORD PTR [esi+4], eax
  00017	5e		 pop	 esi
; File D:\Metin2 Server Files\mainline\SRC_2014\Metin2Client\UserInterface\PythonGuild.cpp

; 50   : }

  00018	c3		 ret	 0
?ClearComment@CPythonGuild@@QAEXXZ ENDP			; CPythonGuild::ClearComment
_TEXT	ENDS
; Function compile flags: /Ogtp
; File D:\Metin2 Server Files\mainline\SRC_2014\Metin2Client\UserInterface\PythonGuild.cpp
; File C:\Program Files (x86)\Microsoft Visual Studio\2019\Community\VC\Tools\MSVC\14.28.29333\include\xtree
; File C:\Program Files (x86)\Microsoft Visual Studio\2019\Community\VC\Tools\MSVC\14.28.29333\include\xstddef
; File C:\Program Files (x86)\Microsoft Visual Studio\2019\Community\VC\Tools\MSVC\14.28.29333\include\xtree
; File D:\Metin2 Server Files\mainline\SRC_2014\Metin2Client\UserInterface\PythonGuild.cpp
;	COMDAT ?SetGradeAuthority@CPythonGuild@@QAEXEE@Z
_TEXT	SEGMENT
__Loc$1 = -12						; size = 12
_byGradeNumber$ = 8					; size = 1
_byAuthority$ = 12					; size = 1
?SetGradeAuthority@CPythonGuild@@QAEXEE@Z PROC		; CPythonGuild::SetGradeAuthority, COMDAT
; _this$ = ecx

; 39   : {

  00000	55		 push	 ebp
  00001	8b ec		 mov	 ebp, esp
  00003	83 ec 0c	 sub	 esp, 12			; 0000000cH
  00006	53		 push	 ebx

; 40   : 	if (!__IsGradeData(byGradeNumber))

  00007	8b 5d 08	 mov	 ebx, DWORD PTR _byGradeNumber$[ebp]
  0000a	56		 push	 esi
  0000b	53		 push	 ebx
  0000c	8b f1		 mov	 esi, ecx
  0000e	e8 00 00 00 00	 call	 ?__IsGradeData@CPythonGuild@@IAEHE@Z ; CPythonGuild::__IsGradeData
  00013	85 c0		 test	 eax, eax
  00015	74 27		 je	 SHORT $LN1@SetGradeAu
; File C:\Program Files (x86)\Microsoft Visual Studio\2019\Community\VC\Tools\MSVC\14.28.29333\include\xtree

; 1458 :         const _Tree_find_result<_Nodeptr> _Loc = _Find_lower_bound(_Keyval);

  00017	8d 45 08	 lea	 eax, DWORD PTR _byGradeNumber$[ebp]
  0001a	50		 push	 eax
  0001b	8d 45 f4	 lea	 eax, DWORD PTR __Loc$1[ebp]
  0001e	50		 push	 eax
  0001f	8d 4e 34	 lea	 ecx, DWORD PTR [esi+52]
  00022	e8 00 00 00 00	 call	 ??$_Find_lower_bound@E@?$_Tree@V?$_Tmap_traits@EUSGuildGradeData@CPythonGuild@@U?$less@E@std@@V?$allocator@U?$pair@$$CBEUSGuildGradeData@CPythonGuild@@@std@@@4@$0A@@std@@@std@@IBE?AU?$_Tree_find_result@PAU?$_Tree_node@U?$pair@$$CBEUSGuildGradeData@CPythonGuild@@@std@@PAX@std@@@1@ABE@Z ; std::_Tree<std::_Tmap_traits<unsigned char,CPythonGuild::SGuildGradeData,std::less<unsigned char>,std::allocator<std::pair<unsigned char const ,CPythonGuild::SGuildGradeData> >,0> >::_Find_lower_bound<unsigned char>

; 1695 :         return !_Bound->_Isnil && !_DEBUG_LT_PRED(_Getcomp(), _Keyval, _Traits::_Kfn(_Bound->_Myval));

  00027	8b 4d fc	 mov	 ecx, DWORD PTR __Loc$1[ebp+8]
  0002a	80 79 0d 00	 cmp	 BYTE PTR [ecx+13], 0
  0002e	75 05		 jne	 SHORT $LN7@SetGradeAu
; File C:\Program Files (x86)\Microsoft Visual Studio\2019\Community\VC\Tools\MSVC\14.28.29333\include\xstddef

; 127  :         return _Left < _Right;

  00030	3a 59 10	 cmp	 bl, BYTE PTR [ecx+16]
; File C:\Program Files (x86)\Microsoft Visual Studio\2019\Community\VC\Tools\MSVC\14.28.29333\include\xtree

; 1695 :         return !_Bound->_Isnil && !_DEBUG_LT_PRED(_Getcomp(), _Keyval, _Traits::_Kfn(_Bound->_Myval));

  00033	73 03		 jae	 SHORT $LN6@SetGradeAu
$LN7@SetGradeAu:

; 1463 :         return _Get_scary()->_Myhead;

  00035	8b 4e 34	 mov	 ecx, DWORD PTR [esi+52]
$LN6@SetGradeAu:
; File D:\Metin2 Server Files\mainline\SRC_2014\Metin2Client\UserInterface\PythonGuild.cpp

; 44   : 	rGradeData.byAuthorityFlag = byAuthority;

  00038	8a 45 0c	 mov	 al, BYTE PTR _byAuthority$[ebp]
  0003b	88 41 14	 mov	 BYTE PTR [ecx+20], al
$LN1@SetGradeAu:

; 45   : }

  0003e	5e		 pop	 esi
  0003f	5b		 pop	 ebx
  00040	8b e5		 mov	 esp, ebp
  00042	5d		 pop	 ebp
  00043	c2 08 00	 ret	 8
?SetGradeAuthority@CPythonGuild@@QAEXEE@Z ENDP		; CPythonGuild::SetGradeAuthority
_TEXT	ENDS
; Function compile flags: /Ogtp
; File D:\Metin2 Server Files\mainline\SRC_2014\Metin2Client\UserInterface\PythonGuild.cpp
; File C:\Program Files (x86)\Microsoft Visual Studio\2019\Community\VC\Tools\MSVC\14.28.29333\include\xtree
; File C:\Program Files (x86)\Microsoft Visual Studio\2019\Community\VC\Tools\MSVC\14.28.29333\include\xstddef
; File C:\Program Files (x86)\Microsoft Visual Studio\2019\Community\VC\Tools\MSVC\14.28.29333\include\xtree
; File C:\Program Files (x86)\Microsoft Visual Studio\2019\Community\VC\Tools\MSVC\14.28.29333\include\xstring
; File D:\Metin2 Server Files\mainline\SRC_2014\Metin2Client\UserInterface\PythonGuild.cpp
; File C:\Program Files (x86)\Microsoft Visual Studio\2019\Community\VC\Tools\MSVC\14.28.29333\include\xstring
; File D:\Metin2 Server Files\mainline\SRC_2014\Metin2Client\UserInterface\PythonGuild.cpp
;	COMDAT ?SetGradeName@CPythonGuild@@QAEXEPBD@Z
_TEXT	SEGMENT
__Loc$1 = -12						; size = 12
_byGradeNumber$ = 8					; size = 1
_c_szName$ = 12						; size = 4
?SetGradeName@CPythonGuild@@QAEXEPBD@Z PROC		; CPythonGuild::SetGradeName, COMDAT
; _this$ = ecx

; 30   : {

  00000	55		 push	 ebp
  00001	8b ec		 mov	 ebp, esp
  00003	83 ec 0c	 sub	 esp, 12			; 0000000cH
  00006	53		 push	 ebx

; 31   : 	if (!__IsGradeData(byGradeNumber))

  00007	8b 5d 08	 mov	 ebx, DWORD PTR _byGradeNumber$[ebp]
  0000a	56		 push	 esi
  0000b	53		 push	 ebx
  0000c	8b f1		 mov	 esi, ecx
  0000e	e8 00 00 00 00	 call	 ?__IsGradeData@CPythonGuild@@IAEHE@Z ; CPythonGuild::__IsGradeData
  00013	85 c0		 test	 eax, eax
  00015	74 3e		 je	 SHORT $LN1@SetGradeNa
; File C:\Program Files (x86)\Microsoft Visual Studio\2019\Community\VC\Tools\MSVC\14.28.29333\include\xtree

; 1458 :         const _Tree_find_result<_Nodeptr> _Loc = _Find_lower_bound(_Keyval);

  00017	8d 45 08	 lea	 eax, DWORD PTR _byGradeNumber$[ebp]
  0001a	50		 push	 eax
  0001b	8d 45 f4	 lea	 eax, DWORD PTR __Loc$1[ebp]
  0001e	50		 push	 eax
  0001f	8d 4e 34	 lea	 ecx, DWORD PTR [esi+52]
  00022	e8 00 00 00 00	 call	 ??$_Find_lower_bound@E@?$_Tree@V?$_Tmap_traits@EUSGuildGradeData@CPythonGuild@@U?$less@E@std@@V?$allocator@U?$pair@$$CBEUSGuildGradeData@CPythonGuild@@@std@@@4@$0A@@std@@@std@@IBE?AU?$_Tree_find_result@PAU?$_Tree_node@U?$pair@$$CBEUSGuildGradeData@CPythonGuild@@@std@@PAX@std@@@1@ABE@Z ; std::_Tree<std::_Tmap_traits<unsigned char,CPythonGuild::SGuildGradeData,std::less<unsigned char>,std::allocator<std::pair<unsigned char const ,CPythonGuild::SGuildGradeData> >,0> >::_Find_lower_bound<unsigned char>

; 1695 :         return !_Bound->_Isnil && !_DEBUG_LT_PRED(_Getcomp(), _Keyval, _Traits::_Kfn(_Bound->_Myval));

  00027	8b 55 fc	 mov	 edx, DWORD PTR __Loc$1[ebp+8]
  0002a	80 7a 0d 00	 cmp	 BYTE PTR [edx+13], 0
  0002e	75 05		 jne	 SHORT $LN7@SetGradeNa
; File C:\Program Files (x86)\Microsoft Visual Studio\2019\Community\VC\Tools\MSVC\14.28.29333\include\xstddef

; 127  :         return _Left < _Right;

  00030	3a 5a 10	 cmp	 bl, BYTE PTR [edx+16]
; File C:\Program Files (x86)\Microsoft Visual Studio\2019\Community\VC\Tools\MSVC\14.28.29333\include\xtree

; 1695 :         return !_Bound->_Isnil && !_DEBUG_LT_PRED(_Getcomp(), _Keyval, _Traits::_Kfn(_Bound->_Myval));

  00033	73 03		 jae	 SHORT $LN6@SetGradeNa
$LN7@SetGradeNa:

; 1463 :         return _Get_scary()->_Myhead;

  00035	8b 56 34	 mov	 edx, DWORD PTR [esi+52]
$LN6@SetGradeNa:
; File C:\Program Files (x86)\Microsoft Visual Studio\2019\Community\VC\Tools\MSVC\14.28.29333\include\xstring

; 389  :         return _CSTD strlen(reinterpret_cast<const char*>(_First));

  00038	8b 75 0c	 mov	 esi, DWORD PTR _c_szName$[ebp]
  0003b	8b ce		 mov	 ecx, esi
  0003d	57		 push	 edi
  0003e	8d 79 01	 lea	 edi, DWORD PTR [ecx+1]
$LL34@SetGradeNa:
  00041	8a 01		 mov	 al, BYTE PTR [ecx]
  00043	41		 inc	 ecx
  00044	84 c0		 test	 al, al
  00046	75 f9		 jne	 SHORT $LL34@SetGradeNa
  00048	2b cf		 sub	 ecx, edi

; 3062 :         return assign(_Ptr, _Convert_size<size_type>(_Traits::length(_Ptr)));

  0004a	51		 push	 ecx
  0004b	56		 push	 esi
; File D:\Metin2 Server Files\mainline\SRC_2014\Metin2Client\UserInterface\PythonGuild.cpp

; 35   : 	rGradeData.strName = c_szName;

  0004c	8d 4a 18	 lea	 ecx, DWORD PTR [edx+24]
; File C:\Program Files (x86)\Microsoft Visual Studio\2019\Community\VC\Tools\MSVC\14.28.29333\include\xstring

; 3062 :         return assign(_Ptr, _Convert_size<size_type>(_Traits::length(_Ptr)));

  0004f	e8 00 00 00 00	 call	 ?assign@?$basic_string@DU?$char_traits@D@std@@V?$allocator@D@2@@std@@QAEAAV12@QBDI@Z ; std::basic_string<char,std::char_traits<char>,std::allocator<char> >::assign
  00054	5f		 pop	 edi
$LN1@SetGradeNa:
  00055	5e		 pop	 esi
; File D:\Metin2 Server Files\mainline\SRC_2014\Metin2Client\UserInterface\PythonGuild.cpp

; 36   : }

  00056	5b		 pop	 ebx
  00057	8b e5		 mov	 esp, ebp
  00059	5d		 pop	 ebp
  0005a	c2 08 00	 ret	 8
?SetGradeName@CPythonGuild@@QAEXEPBD@Z ENDP		; CPythonGuild::SetGradeName
_TEXT	ENDS
; Function compile flags: /Ogtp
; File D:\Metin2 Server Files\mainline\SRC_2014\Metin2Client\UserInterface\PythonGuild.cpp
; File C:\Program Files (x86)\Microsoft Visual Studio\2019\Community\VC\Tools\MSVC\14.28.29333\include\map
; File D:\Metin2 Server Files\mainline\SRC_2014\Metin2Client\UserInterface\PythonGuild.cpp
; File C:\Program Files (x86)\Microsoft Visual Studio\2019\Community\VC\Tools\MSVC\14.28.29333\include\map
; File C:\Program Files (x86)\Microsoft Visual Studio\2019\Community\VC\Tools\MSVC\14.28.29333\include\xtree
; File C:\Program Files (x86)\Microsoft Visual Studio\2019\Community\VC\Tools\MSVC\14.28.29333\include\xstddef
; File C:\Program Files (x86)\Microsoft Visual Studio\2019\Community\VC\Tools\MSVC\14.28.29333\include\xtree
; File C:\Program Files (x86)\Microsoft Visual Studio\2019\Community\VC\Tools\MSVC\14.28.29333\include\map
; File C:\Program Files (x86)\Microsoft Visual Studio\2019\Community\VC\Tools\MSVC\14.28.29333\include\xmemory
; File C:\Program Files (x86)\Microsoft Visual Studio\2019\Community\VC\Tools\MSVC\14.28.29333\include\xtree
; File C:\Program Files (x86)\Microsoft Visual Studio\2019\Community\VC\Tools\MSVC\14.28.29333\include\xmemory
; File C:\Program Files (x86)\Microsoft Visual Studio\2019\Community\VC\Tools\MSVC\14.28.29333\include\xtree
; File C:\Program Files (x86)\Microsoft Visual Studio\2019\Community\VC\Tools\MSVC\14.28.29333\include\tuple
; File C:\Program Files (x86)\Microsoft Visual Studio\2019\Community\VC\Tools\MSVC\14.28.29333\include\xtree
; File C:\Program Files (x86)\Microsoft Visual Studio\2019\Community\VC\Tools\MSVC\14.28.29333\include\xstring
; File C:\Program Files (x86)\Microsoft Visual Studio\2019\Community\VC\Tools\MSVC\14.28.29333\include\xtree
; File C:\Program Files (x86)\Microsoft Visual Studio\2019\Community\VC\Tools\MSVC\14.28.29333\include\map
; File C:\Program Files (x86)\Microsoft Visual Studio\2019\Community\VC\Tools\MSVC\14.28.29333\include\xstring
; File D:\Metin2 Server Files\mainline\SRC_2014\Metin2Client\UserInterface\PythonGuild.cpp
; File C:\Program Files (x86)\Microsoft Visual Studio\2019\Community\VC\Tools\MSVC\14.28.29333\include\xtree
; File D:\Metin2 Server Files\mainline\SRC_2014\Metin2Client\UserInterface\PythonGuild.cpp
;	COMDAT ?SetGradeData@CPythonGuild@@QAEXEAAUSGuildGradeData@1@@Z
_TEXT	SEGMENT
__Loc$3 = -36						; size = 12
$T4 = -24						; size = 8
__Myhead$5 = -16					; size = 4
__$EHRec$ = -12						; size = 12
_byGradeNumber$ = 8					; size = 1
_rGuildGradeData$ = 12					; size = 4
?SetGradeData@CPythonGuild@@QAEXEAAUSGuildGradeData@1@@Z PROC ; CPythonGuild::SetGradeData, COMDAT
; _this$ = ecx

; 25   : {

  00000	55		 push	 ebp
  00001	8b ec		 mov	 ebp, esp
  00003	6a ff		 push	 -1
  00005	68 00 00 00 00	 push	 __ehhandler$?SetGradeData@CPythonGuild@@QAEXEAAUSGuildGradeData@1@@Z
  0000a	64 a1 00 00 00
	00		 mov	 eax, DWORD PTR fs:0
  00010	50		 push	 eax
  00011	83 ec 18	 sub	 esp, 24			; 00000018H
  00014	56		 push	 esi
  00015	57		 push	 edi
  00016	a1 00 00 00 00	 mov	 eax, DWORD PTR ___security_cookie
  0001b	33 c5		 xor	 eax, ebp
  0001d	50		 push	 eax
  0001e	8d 45 f4	 lea	 eax, DWORD PTR __$EHRec$[ebp]
  00021	64 a3 00 00 00
	00		 mov	 DWORD PTR fs:0, eax
; File C:\Program Files (x86)\Microsoft Visual Studio\2019\Community\VC\Tools\MSVC\14.28.29333\include\map

; 176  :         const auto _Loc = _Mybase::_Find_lower_bound(_Keyval);

  00027	8d 45 08	 lea	 eax, DWORD PTR _byGradeNumber$[ebp]
  0002a	50		 push	 eax
; File D:\Metin2 Server Files\mainline\SRC_2014\Metin2Client\UserInterface\PythonGuild.cpp

; 26   : 	m_GradeDataMap[byGradeNumber] = rGuildGradeData;

  0002b	8d 79 34	 lea	 edi, DWORD PTR [ecx+52]
; File C:\Program Files (x86)\Microsoft Visual Studio\2019\Community\VC\Tools\MSVC\14.28.29333\include\map

; 176  :         const auto _Loc = _Mybase::_Find_lower_bound(_Keyval);

  0002e	8d 45 dc	 lea	 eax, DWORD PTR __Loc$3[ebp]
  00031	8b cf		 mov	 ecx, edi
  00033	50		 push	 eax
  00034	e8 00 00 00 00	 call	 ??$_Find_lower_bound@E@?$_Tree@V?$_Tmap_traits@EUSGuildGradeData@CPythonGuild@@U?$less@E@std@@V?$allocator@U?$pair@$$CBEUSGuildGradeData@CPythonGuild@@@std@@@4@$0A@@std@@@std@@IBE?AU?$_Tree_find_result@PAU?$_Tree_node@U?$pair@$$CBEUSGuildGradeData@CPythonGuild@@@std@@PAX@std@@@1@ABE@Z ; std::_Tree<std::_Tmap_traits<unsigned char,CPythonGuild::SGuildGradeData,std::less<unsigned char>,std::allocator<std::pair<unsigned char const ,CPythonGuild::SGuildGradeData> >,0> >::_Find_lower_bound<unsigned char>
; File C:\Program Files (x86)\Microsoft Visual Studio\2019\Community\VC\Tools\MSVC\14.28.29333\include\xtree

; 1695 :         return !_Bound->_Isnil && !_DEBUG_LT_PRED(_Getcomp(), _Keyval, _Traits::_Kfn(_Bound->_Myval));

  00039	8b 75 e4	 mov	 esi, DWORD PTR __Loc$3[ebp+8]
  0003c	80 7e 0d 00	 cmp	 BYTE PTR [esi+13], 0
  00040	75 0c		 jne	 SHORT $LN6@SetGradeDa
; File C:\Program Files (x86)\Microsoft Visual Studio\2019\Community\VC\Tools\MSVC\14.28.29333\include\xstddef

; 127  :         return _Left < _Right;

  00042	8a 45 08	 mov	 al, BYTE PTR _byGradeNumber$[ebp]
  00045	3a 46 10	 cmp	 al, BYTE PTR [esi+16]
; File C:\Program Files (x86)\Microsoft Visual Studio\2019\Community\VC\Tools\MSVC\14.28.29333\include\xtree

; 1695 :         return !_Bound->_Isnil && !_DEBUG_LT_PRED(_Getcomp(), _Keyval, _Traits::_Kfn(_Bound->_Myval));

  00048	0f 83 88 00 00
	00		 jae	 $LN5@SetGradeDa
$LN6@SetGradeDa:

; 1719 :         if (max_size() == _Get_scary()->_Mysize) {

  0004e	81 7f 04 55 55
	55 05		 cmp	 DWORD PTR [edi+4], 89478485 ; 05555555H
  00055	0f 84 b3 00 00
	00		 je	 $LN126@SetGradeDa
; File C:\Program Files (x86)\Microsoft Visual Studio\2019\Community\VC\Tools\MSVC\14.28.29333\include\map

; 184  :         const auto _Inserted = _Tree_temp_node<_Alnode>(_Mybase::_Getal(), _Scary->_Myhead, piecewise_construct,

  0005b	8b 07		 mov	 eax, DWORD PTR [edi]
  0005d	89 45 f0	 mov	 DWORD PTR __Myhead$5[ebp], eax
; File C:\Program Files (x86)\Microsoft Visual Studio\2019\Community\VC\Tools\MSVC\14.28.29333\include\xmemory

; 1045 :     explicit _Alloc_construct_ptr(_Alloc& _Al_) : _Al(_Al_), _Ptr(nullptr) {}

  00060	89 7d e8	 mov	 DWORD PTR $T4[ebp], edi

; 814  :         return static_cast<_Ty*>(_Allocate<_New_alignof<_Ty>>(_Get_size_of_n<sizeof(_Ty)>(_Count)));

  00063	6a 30		 push	 48			; 00000030H
; File C:\Program Files (x86)\Microsoft Visual Studio\2019\Community\VC\Tools\MSVC\14.28.29333\include\xtree

; 784  :     explicit _Tree_temp_node_alloc(_Alnode& _Al_) : _Alloc_construct_ptr<_Alnode>(_Al_) {

  00065	c7 45 fc 00 00
	00 00		 mov	 DWORD PTR __$EHRec$[ebp+8], 0
; File C:\Program Files (x86)\Microsoft Visual Studio\2019\Community\VC\Tools\MSVC\14.28.29333\include\xmemory

; 1052 :         _Ptr = nullptr; // if allocate throws, prevents double-free

  0006c	c7 45 ec 00 00
	00 00		 mov	 DWORD PTR $T4[ebp+4], 0

; 814  :         return static_cast<_Ty*>(_Allocate<_New_alignof<_Ty>>(_Get_size_of_n<sizeof(_Ty)>(_Count)));

  00073	e8 00 00 00 00	 call	 ??$_Allocate@$07U_Default_allocate_traits@std@@$0A@@std@@YAPAXI@Z ; std::_Allocate<8,std::_Default_allocate_traits,0>

; 1053 :         _Ptr = _Al.allocate(1);

  00078	8b f0		 mov	 esi, eax
; File C:\Program Files (x86)\Microsoft Visual Studio\2019\Community\VC\Tools\MSVC\14.28.29333\include\xtree

; 786  :     }

  0007a	c7 45 fc ff ff
	ff ff		 mov	 DWORD PTR __$EHRec$[ebp+8], -1
; File C:\Program Files (x86)\Microsoft Visual Studio\2019\Community\VC\Tools\MSVC\14.28.29333\include\tuple

; 980  :     : first(_STD get<_Indexes1>(_STD move(_Val1))...), second(_STD get<_Indexes2>(_STD move(_Val2))...) {}

  00081	8a 45 08	 mov	 al, BYTE PTR _byGradeNumber$[ebp]
  00084	88 46 10	 mov	 BYTE PTR [esi+16], al
; File C:\Program Files (x86)\Microsoft Visual Studio\2019\Community\VC\Tools\MSVC\14.28.29333\include\xtree

; 807  :         _Construct_in_place(this->_Ptr->_Left, _Myhead);

  00087	8d 45 f0	 lea	 eax, DWORD PTR __Myhead$5[ebp]
  0008a	50		 push	 eax
  0008b	56		 push	 esi
; File C:\Program Files (x86)\Microsoft Visual Studio\2019\Community\VC\Tools\MSVC\14.28.29333\include\xstring

; 4377 :         _Mypair._Myval2._Mysize = 0;

  0008c	c7 46 28 00 00
	00 00		 mov	 DWORD PTR [esi+40], 0

; 4378 :         _Mypair._Myval2._Myres  = _BUF_SIZE - 1;

  00093	c7 46 2c 0f 00
	00 00		 mov	 DWORD PTR [esi+44], 15	; 0000000fH

; 4379 :         // the _Traits::assign is last so the codegen doesn't think the char write can alias this
; 4380 :         _Traits::assign(_Mypair._Myval2._Bx._Buf[0], _Elem());

  0009a	c6 46 18 00	 mov	 BYTE PTR [esi+24], 0
; File C:\Program Files (x86)\Microsoft Visual Studio\2019\Community\VC\Tools\MSVC\14.28.29333\include\xtree

; 807  :         _Construct_in_place(this->_Ptr->_Left, _Myhead);

  0009e	e8 00 00 00 00	 call	 ??$_Construct_in_place@PAU?$_Tree_node@U?$pair@$$CBEUSGuildGradeData@CPythonGuild@@@std@@PAX@std@@AAPAU12@@std@@YAXAAPAU?$_Tree_node@U?$pair@$$CBEUSGuildGradeData@CPythonGuild@@@std@@PAX@0@0@Z ; std::_Construct_in_place<std::_Tree_node<std::pair<unsigned char const ,CPythonGuild::SGuildGradeData>,void *> *,std::_Tree_node<std::pair<unsigned char const ,CPythonGuild::SGuildGradeData>,void *> * &>

; 808  :         _Construct_in_place(this->_Ptr->_Parent, _Myhead);

  000a3	8d 45 f0	 lea	 eax, DWORD PTR __Myhead$5[ebp]
  000a6	50		 push	 eax
  000a7	8d 46 04	 lea	 eax, DWORD PTR [esi+4]
  000aa	50		 push	 eax
  000ab	e8 00 00 00 00	 call	 ??$_Construct_in_place@PAU?$_Tree_node@U?$pair@$$CBEUSGuildGradeData@CPythonGuild@@@std@@PAX@std@@AAPAU12@@std@@YAXAAPAU?$_Tree_node@U?$pair@$$CBEUSGuildGradeData@CPythonGuild@@@std@@PAX@0@0@Z ; std::_Construct_in_place<std::_Tree_node<std::pair<unsigned char const ,CPythonGuild::SGuildGradeData>,void *> *,std::_Tree_node<std::pair<unsigned char const ,CPythonGuild::SGuildGradeData>,void *> * &>

; 809  :         _Construct_in_place(this->_Ptr->_Right, _Myhead);

  000b0	8d 45 f0	 lea	 eax, DWORD PTR __Myhead$5[ebp]
  000b3	50		 push	 eax
  000b4	8d 46 08	 lea	 eax, DWORD PTR [esi+8]
  000b7	50		 push	 eax
  000b8	e8 00 00 00 00	 call	 ??$_Construct_in_place@PAU?$_Tree_node@U?$pair@$$CBEUSGuildGradeData@CPythonGuild@@@std@@PAX@std@@AAPAU12@@std@@YAXAAPAU?$_Tree_node@U?$pair@$$CBEUSGuildGradeData@CPythonGuild@@@std@@PAX@0@0@Z ; std::_Construct_in_place<std::_Tree_node<std::pair<unsigned char const ,CPythonGuild::SGuildGradeData>,void *> *,std::_Tree_node<std::pair<unsigned char const ,CPythonGuild::SGuildGradeData>,void *> * &>
  000bd	83 c4 1c	 add	 esp, 28			; 0000001cH

; 810  :         this->_Ptr->_Color = _Red;

  000c0	66 c7 46 0c 00
	00		 mov	 WORD PTR [esi+12], 0
; File C:\Program Files (x86)\Microsoft Visual Studio\2019\Community\VC\Tools\MSVC\14.28.29333\include\map

; 190  :         return {_Scary->_Insert_node(_Loc._Location, _Inserted), true};

  000c6	8b cf		 mov	 ecx, edi
  000c8	56		 push	 esi
  000c9	ff 75 e0	 push	 DWORD PTR __Loc$3[ebp+4]
  000cc	ff 75 dc	 push	 DWORD PTR __Loc$3[ebp]
  000cf	e8 00 00 00 00	 call	 ?_Insert_node@?$_Tree_val@U?$_Tree_simple_types@U?$pair@$$CBEUSGuildGradeData@CPythonGuild@@@std@@@std@@@std@@QAEPAU?$_Tree_node@U?$pair@$$CBEUSGuildGradeData@CPythonGuild@@@std@@PAX@2@U?$_Tree_id@PAU?$_Tree_node@U?$pair@$$CBEUSGuildGradeData@CPythonGuild@@@std@@PAX@std@@@2@QAU32@@Z ; std::_Tree_val<std::_Tree_simple_types<std::pair<unsigned char const ,CPythonGuild::SGuildGradeData> > >::_Insert_node
  000d4	8b f0		 mov	 esi, eax
$LN5@SetGradeDa:

; 325  :         return _Try_emplace(_Keyval).first->_Myval.second;

  000d6	8b 55 0c	 mov	 edx, DWORD PTR _rGuildGradeData$[ebp]
  000d9	8a 0a		 mov	 cl, BYTE PTR [edx]
  000db	83 c2 04	 add	 edx, 4
  000de	88 4e 14	 mov	 BYTE PTR [esi+20], cl
  000e1	8d 4e 18	 lea	 ecx, DWORD PTR [esi+24]
; File C:\Program Files (x86)\Microsoft Visual Studio\2019\Community\VC\Tools\MSVC\14.28.29333\include\xstring

; 2863 :         if (this != _STD addressof(_Right)) {

  000e4	3b ca		 cmp	 ecx, edx
  000e6	74 13		 je	 SHORT $LN113@SetGradeDa

; 2227 :         return _BUF_SIZE <= _Myres;

  000e8	83 7a 14 10	 cmp	 DWORD PTR [edx+20], 16	; 00000010H

; 2218 :         const value_type* _Result = _Bx._Buf;

  000ec	8b c2		 mov	 eax, edx

; 2219 :         if (_Large_string_engaged()) {

  000ee	72 02		 jb	 SHORT $LN118@SetGradeDa

; 2220 :             _Result = _Unfancy(_Bx._Ptr);

  000f0	8b 02		 mov	 eax, DWORD PTR [edx]
$LN118@SetGradeDa:

; 2828 :         assign(_Right._Mypair._Myval2._Myptr(), _Right._Mypair._Myval2._Mysize);

  000f2	ff 72 10	 push	 DWORD PTR [edx+16]
  000f5	50		 push	 eax
  000f6	e8 00 00 00 00	 call	 ?assign@?$basic_string@DU?$char_traits@D@std@@V?$allocator@D@2@@std@@QAEAAV12@QBDI@Z ; std::basic_string<char,std::char_traits<char>,std::allocator<char> >::assign
$LN113@SetGradeDa:
; File D:\Metin2 Server Files\mainline\SRC_2014\Metin2Client\UserInterface\PythonGuild.cpp

; 27   : }

  000fb	8b 4d f4	 mov	 ecx, DWORD PTR __$EHRec$[ebp]
  000fe	64 89 0d 00 00
	00 00		 mov	 DWORD PTR fs:0, ecx
  00105	59		 pop	 ecx
  00106	5f		 pop	 edi
  00107	5e		 pop	 esi
  00108	8b e5		 mov	 esp, ebp
  0010a	5d		 pop	 ebp
  0010b	c2 08 00	 ret	 8
$LN126@SetGradeDa:
; File C:\Program Files (x86)\Microsoft Visual Studio\2019\Community\VC\Tools\MSVC\14.28.29333\include\xtree

; 1720 :             _Throw_tree_length_error();

  0010e	e8 00 00 00 00	 call	 ?_Throw_tree_length_error@std@@YAXXZ ; std::_Throw_tree_length_error
$LN124@SetGradeDa:
  00113	cc		 int	 3
_TEXT	ENDS
;	COMDAT text$x
text$x	SEGMENT
__unwindfunclet$?SetGradeData@CPythonGuild@@QAEXEAAUSGuildGradeData@1@@Z$2:
  00000	8d 4d e8	 lea	 ecx, DWORD PTR $T4[ebp]
  00003	e9 00 00 00 00	 jmp	 ??1?$_Alloc_construct_ptr@V?$allocator@U?$_Tree_node@U?$pair@$$CBEUSGuildGradeData@CPythonGuild@@@std@@PAX@std@@@std@@@std@@QAE@XZ ; std::_Alloc_construct_ptr<std::allocator<std::_Tree_node<std::pair<unsigned char const ,CPythonGuild::SGuildGradeData>,void *> > >::~_Alloc_construct_ptr<std::allocator<std::_Tree_node<std::pair<unsigned char const ,CPythonGuild::SGuildGradeData>,void *> > >
  00008	cc		 int	 3
  00009	cc		 int	 3
  0000a	cc		 int	 3
  0000b	cc		 int	 3
  0000c	cc		 int	 3
__ehhandler$?SetGradeData@CPythonGuild@@QAEXEAAUSGuildGradeData@1@@Z:
  0000d	90		 npad	 1
  0000e	90		 npad	 1
  0000f	8b 54 24 08	 mov	 edx, DWORD PTR [esp+8]
  00013	8d 42 0c	 lea	 eax, DWORD PTR [edx+12]
  00016	8b 4a dc	 mov	 ecx, DWORD PTR [edx-36]
  00019	33 c8		 xor	 ecx, eax
  0001b	e8 00 00 00 00	 call	 @__security_check_cookie@4
  00020	b8 00 00 00 00	 mov	 eax, OFFSET __ehfuncinfo$?SetGradeData@CPythonGuild@@QAEXEAAUSGuildGradeData@1@@Z
  00025	e9 00 00 00 00	 jmp	 ___CxxFrameHandler3
text$x	ENDS
?SetGradeData@CPythonGuild@@QAEXEAAUSGuildGradeData@1@@Z ENDP ; CPythonGuild::SetGradeData
; Function compile flags: /Ogtp
; File D:\Metin2 Server Files\mainline\SRC_2014\Metin2Client\UserInterface\PythonGuild.cpp
;	COMDAT ?SetGuildEXP@CPythonGuild@@QAEXEK@Z
_TEXT	SEGMENT
_byLevel$ = 8						; size = 1
_dwEXP$ = 12						; size = 4
?SetGuildEXP@CPythonGuild@@QAEXEK@Z PROC		; CPythonGuild::SetGuildEXP, COMDAT
; _this$ = ecx

; 19   : {

  00000	55		 push	 ebp
  00001	8b ec		 mov	 ebp, esp

; 20   : 	m_GuildInfo.dwGuildLevel = byLevel;

  00003	0f b6 45 08	 movzx	 eax, BYTE PTR _byLevel$[ebp]
  00007	89 41 1c	 mov	 DWORD PTR [ecx+28], eax

; 21   : 	m_GuildInfo.dwCurrentExperience = dwEXP;

  0000a	8b 45 0c	 mov	 eax, DWORD PTR _dwEXP$[ebp]
  0000d	89 41 20	 mov	 DWORD PTR [ecx+32], eax

; 22   : }

  00010	5d		 pop	 ebp
  00011	c2 08 00	 ret	 8
?SetGuildEXP@CPythonGuild@@QAEXEK@Z ENDP		; CPythonGuild::SetGuildEXP
_TEXT	ENDS
; Function compile flags: /Ogtp
; File D:\Metin2 Server Files\mainline\SRC_2014\Metin2Client\UserInterface\PythonGuild.cpp
;	COMDAT ?SetGuildMoney@CPythonGuild@@QAEXK@Z
_TEXT	SEGMENT
_dwMoney$ = 8						; size = 4
?SetGuildMoney@CPythonGuild@@QAEXK@Z PROC		; CPythonGuild::SetGuildMoney, COMDAT
; _this$ = ecx

; 14   : {

  00000	55		 push	 ebp
  00001	8b ec		 mov	 ebp, esp

; 15   : 	m_GuildInfo.dwGuildMoney = dwMoney;

  00003	8b 45 08	 mov	 eax, DWORD PTR _dwMoney$[ebp]
  00006	89 41 2c	 mov	 DWORD PTR [ecx+44], eax

; 16   : }

  00009	5d		 pop	 ebp
  0000a	c2 04 00	 ret	 4
?SetGuildMoney@CPythonGuild@@QAEXK@Z ENDP		; CPythonGuild::SetGuildMoney
_TEXT	ENDS
; Function compile flags: /Ogtp
; File D:\Metin2 Server Files\mainline\SRC_2014\Metin2Client\UserInterface\PythonGuild.cpp
;	COMDAT ?EnableGuild@CPythonGuild@@QAEXXZ
_TEXT	SEGMENT
?EnableGuild@CPythonGuild@@QAEXXZ PROC			; CPythonGuild::EnableGuild, COMDAT
; _this$ = ecx

; 10   : 	m_bGuildEnable = TRUE;

  00000	c7 81 94 00 00
	00 01 00 00 00	 mov	 DWORD PTR [ecx+148], 1

; 11   : }

  0000a	c3		 ret	 0
?EnableGuild@CPythonGuild@@QAEXXZ ENDP			; CPythonGuild::EnableGuild
_TEXT	ENDS
; Function compile flags: /Ogtp
; File D:\Metin2 Server Files\mainline\SRC_2014\Metin2Client\UserInterface\PythonGuild.cpp
;	COMDAT ?Destroy@CPythonGuild@@QAEXXZ
_TEXT	SEGMENT
?Destroy@CPythonGuild@@QAEXXZ PROC			; CPythonGuild::Destroy, COMDAT
; _this$ = ecx

; 363  : 	__Initialize();

  00000	e9 00 00 00 00	 jmp	 ?__Initialize@CPythonGuild@@IAEXXZ ; CPythonGuild::__Initialize
?Destroy@CPythonGuild@@QAEXXZ ENDP			; CPythonGuild::Destroy
_TEXT	ENDS
; Function compile flags: /Ogtp
; File D:\Metin2 Server Files\mainline\SRC_2014\Metin2Client\UserInterface\PythonGuild.cpp
; File C:\Program Files (x86)\Microsoft Visual Studio\2019\Community\VC\Tools\MSVC\14.28.29333\include\xtree
; File D:\Metin2 Server Files\mainline\SRC_2014\Metin2Client\UserInterface\PythonGuild.cpp
; File C:\Program Files (x86)\Microsoft Visual Studio\2019\Community\VC\Tools\MSVC\14.28.29333\include\xtree
; File C:\Program Files (x86)\Microsoft Visual Studio\2019\Community\VC\Tools\MSVC\14.28.29333\include\xmemory
; File C:\Program Files (x86)\Microsoft Visual Studio\2019\Community\VC\Tools\MSVC\14.28.29333\include\vector
; File D:\Metin2 Server Files\mainline\SRC_2014\Metin2Client\UserInterface\PythonGuild.cpp
; File C:\Program Files (x86)\Microsoft Visual Studio\2019\Community\VC\Tools\MSVC\14.28.29333\include\xmemory
; File C:\Program Files (x86)\Microsoft Visual Studio\2019\Community\VC\Tools\MSVC\14.28.29333\include\vector
; File C:\Program Files (x86)\Microsoft Visual Studio\2019\Community\VC\Tools\MSVC\14.28.29333\include\xmemory
; File C:\Program Files (x86)\Microsoft Visual Studio\2019\Community\VC\Tools\MSVC\14.28.29333\include\vector
; File C:\Program Files (x86)\Microsoft Visual Studio\2019\Community\VC\Tools\MSVC\14.28.29333\include\xmemory
; File C:\Program Files (x86)\Microsoft Visual Studio\2019\Community\VC\Tools\MSVC\14.28.29333\include\vector
; File D:\Metin2 Server Files\mainline\SRC_2014\Metin2Client\UserInterface\PythonGuild.cpp
; File C:\Program Files (x86)\Microsoft Visual Studio\2019\Community\VC\Tools\MSVC\14.28.29333\include\vector
; File C:\Program Files (x86)\Microsoft Visual Studio\2019\Community\VC\Tools\MSVC\14.28.29333\include\xmemory
; File C:\Program Files (x86)\Microsoft Visual Studio\2019\Community\VC\Tools\MSVC\14.28.29333\include\vector
; File C:\Program Files (x86)\Microsoft Visual Studio\2019\Community\VC\Tools\MSVC\14.28.29333\include\xmemory
; File C:\Program Files (x86)\Microsoft Visual Studio\2019\Community\VC\Tools\MSVC\14.28.29333\include\vector
; File C:\Program Files (x86)\Microsoft Visual Studio\2019\Community\VC\Tools\MSVC\14.28.29333\include\xtree
; File D:\Metin2 Server Files\mainline\SRC_2014\Metin2Client\UserInterface\PythonGuild.cpp
; File C:\Program Files (x86)\Microsoft Visual Studio\2019\Community\VC\Tools\MSVC\14.28.29333\include\xtree
; File C:\Program Files (x86)\Microsoft Visual Studio\2019\Community\VC\Tools\MSVC\14.28.29333\include\xmemory
; File D:\Metin2 Server Files\mainline\SRC_2014\Metin2Client\eterBase\Singleton.h
; File D:\Metin2 Server Files\mainline\SRC_2014\Metin2Client\UserInterface\PythonGuild.cpp
;	COMDAT ??1CPythonGuild@@UAE@XZ
_TEXT	SEGMENT
??1CPythonGuild@@UAE@XZ PROC				; CPythonGuild::~CPythonGuild, COMDAT
; _this$ = ecx

; 371  : {

  00000	53		 push	 ebx
  00001	56		 push	 esi
  00002	57		 push	 edi
  00003	8b f9		 mov	 edi, ecx

; 372  : }

  00005	8d 77 68	 lea	 esi, DWORD PTR [edi+104]
; File C:\Program Files (x86)\Microsoft Visual Studio\2019\Community\VC\Tools\MSVC\14.28.29333\include\xtree

; 752  :         _Erase_tree(_Al, _Myhead->_Parent);

  00008	8b ce		 mov	 ecx, esi
; File D:\Metin2 Server Files\mainline\SRC_2014\Metin2Client\UserInterface\PythonGuild.cpp

; 371  : {

  0000a	c7 07 00 00 00
	00		 mov	 DWORD PTR [edi], OFFSET ??_7CPythonGuild@@6B@
; File C:\Program Files (x86)\Microsoft Visual Studio\2019\Community\VC\Tools\MSVC\14.28.29333\include\xtree

; 752  :         _Erase_tree(_Al, _Myhead->_Parent);

  00010	8b 06		 mov	 eax, DWORD PTR [esi]
  00012	ff 70 04	 push	 DWORD PTR [eax+4]
  00015	56		 push	 esi
  00016	e8 00 00 00 00	 call	 ??$_Erase_tree@V?$allocator@U?$_Tree_node@U?$pair@$$CBKV?$basic_string@DU?$char_traits@D@std@@V?$allocator@D@2@@std@@@std@@PAX@std@@@std@@@?$_Tree_val@U?$_Tree_simple_types@U?$pair@$$CBKV?$basic_string@DU?$char_traits@D@std@@V?$allocator@D@2@@std@@@std@@@std@@@std@@QAEXAAV?$allocator@U?$_Tree_node@U?$pair@$$CBKV?$basic_string@DU?$char_traits@D@std@@V?$allocator@D@2@@std@@@std@@PAX@std@@@1@PAU?$_Tree_node@U?$pair@$$CBKV?$basic_string@DU?$char_traits@D@std@@V?$allocator@D@2@@std@@@std@@PAX@1@@Z ; std::_Tree_val<std::_Tree_simple_types<std::pair<unsigned long const ,std::basic_string<char,std::char_traits<char>,std::allocator<char> > > > >::_Erase_tree<std::allocator<std::_Tree_node<std::pair<unsigned long const ,std::basic_string<char,std::char_traits<char>,std::allocator<char> > >,void *> > >
; File C:\Program Files (x86)\Microsoft Visual Studio\2019\Community\VC\Tools\MSVC\14.28.29333\include\xmemory

; 696  :         _Deallocate<_New_alignof<value_type>>(_Ptr, sizeof(value_type) * _Count);

  0001b	6a 2c		 push	 44			; 0000002cH
  0001d	ff 36		 push	 DWORD PTR [esi]
  0001f	e8 00 00 00 00	 call	 ??$_Deallocate@$07$0A@@std@@YAXPAXI@Z ; std::_Deallocate<8,0>
; File C:\Program Files (x86)\Microsoft Visual Studio\2019\Community\VC\Tools\MSVC\14.28.29333\include\vector

; 1694 :         if (_Myfirst) { // destroy and deallocate old array

  00024	8b 47 48	 mov	 eax, DWORD PTR [edi+72]
; File D:\Metin2 Server Files\mainline\SRC_2014\Metin2Client\UserInterface\PythonGuild.cpp

; 372  : }

  00027	8d 5f 48	 lea	 ebx, DWORD PTR [edi+72]
; File C:\Program Files (x86)\Microsoft Visual Studio\2019\Community\VC\Tools\MSVC\14.28.29333\include\xmemory

; 696  :         _Deallocate<_New_alignof<value_type>>(_Ptr, sizeof(value_type) * _Count);

  0002a	83 c4 08	 add	 esp, 8
; File C:\Program Files (x86)\Microsoft Visual Studio\2019\Community\VC\Tools\MSVC\14.28.29333\include\vector

; 1694 :         if (_Myfirst) { // destroy and deallocate old array

  0002d	85 c0		 test	 eax, eax
  0002f	74 43		 je	 SHORT $LN17@CPythonGui

; 1612 :         _Destroy_range(_First, _Last, _Getal());

  00031	53		 push	 ebx
  00032	ff 73 04	 push	 DWORD PTR [ebx+4]
  00035	50		 push	 eax
  00036	e8 00 00 00 00	 call	 ??$_Destroy_range@V?$allocator@USGuildBoardCommentData@CPythonGuild@@@std@@@std@@YAXPAUSGuildBoardCommentData@CPythonGuild@@QAU12@AAV?$allocator@USGuildBoardCommentData@CPythonGuild@@@0@@Z ; std::_Destroy_range<std::allocator<CPythonGuild::SGuildBoardCommentData> >

; 1696 :             _Getal().deallocate(_Myfirst, static_cast<size_type>(_Myend - _Myfirst));

  0003b	8b 33		 mov	 esi, DWORD PTR [ebx]
  0003d	b8 4f ec c4 4e	 mov	 eax, 1321528399		; 4ec4ec4fH
  00042	8b 4b 08	 mov	 ecx, DWORD PTR [ebx+8]
  00045	2b ce		 sub	 ecx, esi
  00047	f7 e9		 imul	 ecx
  00049	c1 fa 04	 sar	 edx, 4
  0004c	8b c2		 mov	 eax, edx
  0004e	c1 e8 1f	 shr	 eax, 31			; 0000001fH
  00051	03 c2		 add	 eax, edx
; File C:\Program Files (x86)\Microsoft Visual Studio\2019\Community\VC\Tools\MSVC\14.28.29333\include\xmemory

; 810  :         _Deallocate<_New_alignof<_Ty>>(_Ptr, sizeof(_Ty) * _Count);

  00053	6b c0 34	 imul	 eax, eax, 52
  00056	50		 push	 eax
  00057	56		 push	 esi
  00058	e8 00 00 00 00	 call	 ??$_Deallocate@$07$0A@@std@@YAXPAXI@Z ; std::_Deallocate<8,0>
; File C:\Program Files (x86)\Microsoft Visual Studio\2019\Community\VC\Tools\MSVC\14.28.29333\include\vector

; 1698 :             _Myfirst = pointer();

  0005d	c7 03 00 00 00
	00		 mov	 DWORD PTR [ebx], 0
; File C:\Program Files (x86)\Microsoft Visual Studio\2019\Community\VC\Tools\MSVC\14.28.29333\include\xmemory

; 810  :         _Deallocate<_New_alignof<_Ty>>(_Ptr, sizeof(_Ty) * _Count);

  00063	83 c4 14	 add	 esp, 20			; 00000014H
; File C:\Program Files (x86)\Microsoft Visual Studio\2019\Community\VC\Tools\MSVC\14.28.29333\include\vector

; 1699 :             _Mylast  = pointer();

  00066	c7 43 04 00 00
	00 00		 mov	 DWORD PTR [ebx+4], 0

; 1700 :             _Myend   = pointer();

  0006d	c7 43 08 00 00
	00 00		 mov	 DWORD PTR [ebx+8], 0
$LN17@CPythonGui:

; 1694 :         if (_Myfirst) { // destroy and deallocate old array

  00074	8b 47 3c	 mov	 eax, DWORD PTR [edi+60]
; File D:\Metin2 Server Files\mainline\SRC_2014\Metin2Client\UserInterface\PythonGuild.cpp

; 372  : }

  00077	8d 5f 3c	 lea	 ebx, DWORD PTR [edi+60]
; File C:\Program Files (x86)\Microsoft Visual Studio\2019\Community\VC\Tools\MSVC\14.28.29333\include\vector

; 1694 :         if (_Myfirst) { // destroy and deallocate old array

  0007a	85 c0		 test	 eax, eax
  0007c	74 46		 je	 SHORT $LN26@CPythonGui

; 1612 :         _Destroy_range(_First, _Last, _Getal());

  0007e	53		 push	 ebx
  0007f	ff 73 04	 push	 DWORD PTR [ebx+4]
  00082	50		 push	 eax
  00083	e8 00 00 00 00	 call	 ??$_Destroy_range@V?$allocator@USGuildMemberData@CPythonGuild@@@std@@@std@@YAXPAUSGuildMemberData@CPythonGuild@@QAU12@AAV?$allocator@USGuildMemberData@CPythonGuild@@@0@@Z ; std::_Destroy_range<std::allocator<CPythonGuild::SGuildMemberData> >

; 1696 :             _Getal().deallocate(_Myfirst, static_cast<size_type>(_Myend - _Myfirst));

  00088	8b 33		 mov	 esi, DWORD PTR [ebx]
  0008a	b8 39 8e e3 38	 mov	 eax, 954437177		; 38e38e39H
  0008f	8b 4b 08	 mov	 ecx, DWORD PTR [ebx+8]
  00092	2b ce		 sub	 ecx, esi
  00094	f7 e9		 imul	 ecx
  00096	c1 fa 03	 sar	 edx, 3
  00099	8b c2		 mov	 eax, edx
  0009b	c1 e8 1f	 shr	 eax, 31			; 0000001fH
  0009e	03 c2		 add	 eax, edx
; File C:\Program Files (x86)\Microsoft Visual Studio\2019\Community\VC\Tools\MSVC\14.28.29333\include\xmemory

; 810  :         _Deallocate<_New_alignof<_Ty>>(_Ptr, sizeof(_Ty) * _Count);

  000a0	8d 04 c0	 lea	 eax, DWORD PTR [eax+eax*8]
  000a3	c1 e0 02	 shl	 eax, 2
  000a6	50		 push	 eax
  000a7	56		 push	 esi
  000a8	e8 00 00 00 00	 call	 ??$_Deallocate@$07$0A@@std@@YAXPAXI@Z ; std::_Deallocate<8,0>
; File C:\Program Files (x86)\Microsoft Visual Studio\2019\Community\VC\Tools\MSVC\14.28.29333\include\vector

; 1698 :             _Myfirst = pointer();

  000ad	c7 03 00 00 00
	00		 mov	 DWORD PTR [ebx], 0
; File C:\Program Files (x86)\Microsoft Visual Studio\2019\Community\VC\Tools\MSVC\14.28.29333\include\xmemory

; 810  :         _Deallocate<_New_alignof<_Ty>>(_Ptr, sizeof(_Ty) * _Count);

  000b3	83 c4 14	 add	 esp, 20			; 00000014H
; File C:\Program Files (x86)\Microsoft Visual Studio\2019\Community\VC\Tools\MSVC\14.28.29333\include\vector

; 1699 :             _Mylast  = pointer();

  000b6	c7 43 04 00 00
	00 00		 mov	 DWORD PTR [ebx+4], 0

; 1700 :             _Myend   = pointer();

  000bd	c7 43 08 00 00
	00 00		 mov	 DWORD PTR [ebx+8], 0
$LN26@CPythonGui:
; File C:\Program Files (x86)\Microsoft Visual Studio\2019\Community\VC\Tools\MSVC\14.28.29333\include\xtree

; 752  :         _Erase_tree(_Al, _Myhead->_Parent);

  000c4	8b 47 34	 mov	 eax, DWORD PTR [edi+52]
; File D:\Metin2 Server Files\mainline\SRC_2014\Metin2Client\UserInterface\PythonGuild.cpp

; 372  : }

  000c7	8d 77 34	 lea	 esi, DWORD PTR [edi+52]
; File C:\Program Files (x86)\Microsoft Visual Studio\2019\Community\VC\Tools\MSVC\14.28.29333\include\xtree

; 752  :         _Erase_tree(_Al, _Myhead->_Parent);

  000ca	8b ce		 mov	 ecx, esi
  000cc	ff 70 04	 push	 DWORD PTR [eax+4]
  000cf	56		 push	 esi
  000d0	e8 00 00 00 00	 call	 ??$_Erase_tree@V?$allocator@U?$_Tree_node@U?$pair@$$CBEUSGuildGradeData@CPythonGuild@@@std@@PAX@std@@@std@@@?$_Tree_val@U?$_Tree_simple_types@U?$pair@$$CBEUSGuildGradeData@CPythonGuild@@@std@@@std@@@std@@QAEXAAV?$allocator@U?$_Tree_node@U?$pair@$$CBEUSGuildGradeData@CPythonGuild@@@std@@PAX@std@@@1@PAU?$_Tree_node@U?$pair@$$CBEUSGuildGradeData@CPythonGuild@@@std@@PAX@1@@Z ; std::_Tree_val<std::_Tree_simple_types<std::pair<unsigned char const ,CPythonGuild::SGuildGradeData> > >::_Erase_tree<std::allocator<std::_Tree_node<std::pair<unsigned char const ,CPythonGuild::SGuildGradeData>,void *> > >
; File C:\Program Files (x86)\Microsoft Visual Studio\2019\Community\VC\Tools\MSVC\14.28.29333\include\xmemory

; 696  :         _Deallocate<_New_alignof<value_type>>(_Ptr, sizeof(value_type) * _Count);

  000d5	6a 30		 push	 48			; 00000030H
  000d7	ff 36		 push	 DWORD PTR [esi]
  000d9	e8 00 00 00 00	 call	 ??$_Deallocate@$07$0A@@std@@YAXPAXI@Z ; std::_Deallocate<8,0>
  000de	83 c4 08	 add	 esp, 8
; File D:\Metin2 Server Files\mainline\SRC_2014\Metin2Client\eterBase\Singleton.h

; 19   : 	{ 

  000e1	c7 07 00 00 00
	00		 mov	 DWORD PTR [edi], OFFSET ??_7?$CSingleton@VCPythonGuild@@@@6B@

; 20   : 		assert(ms_singleton);
; 21   : 		ms_singleton = 0; 

  000e7	c7 05 00 00 00
	00 00 00 00 00	 mov	 DWORD PTR ?ms_singleton@?$CSingleton@VCPythonGuild@@@@0PAVCPythonGuild@@A, 0 ; CSingleton<CPythonGuild>::ms_singleton
  000f1	5f		 pop	 edi
  000f2	5e		 pop	 esi
  000f3	5b		 pop	 ebx
; File D:\Metin2 Server Files\mainline\SRC_2014\Metin2Client\UserInterface\PythonGuild.cpp

; 372  : }

  000f4	c3		 ret	 0
??1CPythonGuild@@UAE@XZ ENDP				; CPythonGuild::~CPythonGuild
_TEXT	ENDS
; Function compile flags: /Ogtp
; File D:\Metin2 Server Files\mainline\SRC_2014\Metin2Client\UserInterface\PythonGuild.cpp
; File D:\Metin2 Server Files\mainline\SRC_2014\Metin2Client\eterBase\Singleton.h
; File D:\Metin2 Server Files\mainline\SRC_2014\Metin2Client\UserInterface\PythonGuild.cpp
; File C:\Program Files (x86)\Microsoft Visual Studio\2019\Community\VC\Tools\MSVC\14.28.29333\include\xmemory
; File D:\Metin2 Server Files\mainline\SRC_2014\Metin2Client\UserInterface\PythonGuild.cpp
; File C:\Program Files (x86)\Microsoft Visual Studio\2019\Community\VC\Tools\MSVC\14.28.29333\include\xtree
; File C:\Program Files (x86)\Microsoft Visual Studio\2019\Community\VC\Tools\MSVC\14.28.29333\include\xmemory
; File C:\Program Files (x86)\Microsoft Visual Studio\2019\Community\VC\Tools\MSVC\14.28.29333\include\xtree
; File C:\Program Files (x86)\Microsoft Visual Studio\2019\Community\VC\Tools\MSVC\14.28.29333\include\vector
; File D:\Metin2 Server Files\mainline\SRC_2014\Metin2Client\UserInterface\PythonGuild.cpp
; File C:\Program Files (x86)\Microsoft Visual Studio\2019\Community\VC\Tools\MSVC\14.28.29333\include\xmemory
; File C:\Program Files (x86)\Microsoft Visual Studio\2019\Community\VC\Tools\MSVC\14.28.29333\include\xtree
; File C:\Program Files (x86)\Microsoft Visual Studio\2019\Community\VC\Tools\MSVC\14.28.29333\include\xmemory
; File C:\Program Files (x86)\Microsoft Visual Studio\2019\Community\VC\Tools\MSVC\14.28.29333\include\xtree
; File D:\Metin2 Server Files\mainline\SRC_2014\Metin2Client\UserInterface\PythonGuild.cpp
; File C:\Program Files (x86)\Microsoft Visual Studio\2019\Community\VC\Tools\MSVC\14.28.29333\include\xtree
; File D:\Metin2 Server Files\mainline\SRC_2014\Metin2Client\UserInterface\PythonGuild.cpp
;	COMDAT ??0CPythonGuild@@QAE@XZ
_TEXT	SEGMENT
_this$ = -20						; size = 4
__Pnode$2 = -16						; size = 4
_this$ = -16						; size = 4
__Pnode$3 = -16						; size = 4
_this$ = -16						; size = 4
__$EHRec$ = -12						; size = 12
??0CPythonGuild@@QAE@XZ PROC				; CPythonGuild::CPythonGuild, COMDAT
; _this$ = ecx

; 367  : {

  00000	55		 push	 ebp
  00001	8b ec		 mov	 ebp, esp
  00003	6a ff		 push	 -1
  00005	68 00 00 00 00	 push	 __ehhandler$??0CPythonGuild@@QAE@XZ
  0000a	64 a1 00 00 00
	00		 mov	 eax, DWORD PTR fs:0
  00010	50		 push	 eax
  00011	83 ec 08	 sub	 esp, 8
  00014	53		 push	 ebx
  00015	56		 push	 esi
  00016	57		 push	 edi
  00017	a1 00 00 00 00	 mov	 eax, DWORD PTR ___security_cookie
  0001c	33 c5		 xor	 eax, ebp
  0001e	50		 push	 eax
  0001f	8d 45 f4	 lea	 eax, DWORD PTR __$EHRec$[ebp]
  00022	64 a3 00 00 00
	00		 mov	 DWORD PTR fs:0, eax
  00028	8b d9		 mov	 ebx, ecx
  0002a	89 5d ec	 mov	 DWORD PTR _this$[ebp], ebx
; File D:\Metin2 Server Files\mainline\SRC_2014\Metin2Client\eterBase\Singleton.h

; 15   : 		ms_singleton = (T*) ((int) this + offset);

  0002d	89 1d 00 00 00
	00		 mov	 DWORD PTR ?ms_singleton@?$CSingleton@VCPythonGuild@@@@0PAVCPythonGuild@@A, ebx ; CSingleton<CPythonGuild>::ms_singleton
; File D:\Metin2 Server Files\mainline\SRC_2014\Metin2Client\UserInterface\PythonGuild.cpp

; 367  : {

  00033	8d 7b 34	 lea	 edi, DWORD PTR [ebx+52]
  00036	c7 03 00 00 00
	00		 mov	 DWORD PTR [ebx], OFFSET ??_7CPythonGuild@@6B@
  0003c	89 7d f0	 mov	 DWORD PTR _this$[ebp], edi
; File C:\Program Files (x86)\Microsoft Visual Studio\2019\Community\VC\Tools\MSVC\14.28.29333\include\xmemory

; 814  :         return static_cast<_Ty*>(_Allocate<_New_alignof<_Ty>>(_Get_size_of_n<sizeof(_Ty)>(_Count)));

  0003f	6a 30		 push	 48			; 00000030H
; File D:\Metin2 Server Files\mainline\SRC_2014\Metin2Client\UserInterface\PythonGuild.cpp

; 367  : {

  00041	c7 45 fc 00 00
	00 00		 mov	 DWORD PTR __$EHRec$[ebp+8], 0
; File C:\Program Files (x86)\Microsoft Visual Studio\2019\Community\VC\Tools\MSVC\14.28.29333\include\xtree

; 435  :     _Tree_val() noexcept : _Myhead(), _Mysize(0) {}

  00048	c7 07 00 00 00
	00		 mov	 DWORD PTR [edi], 0
  0004e	c7 47 04 00 00
	00 00		 mov	 DWORD PTR [edi+4], 0
; File C:\Program Files (x86)\Microsoft Visual Studio\2019\Community\VC\Tools\MSVC\14.28.29333\include\xmemory

; 814  :         return static_cast<_Ty*>(_Allocate<_New_alignof<_Ty>>(_Get_size_of_n<sizeof(_Ty)>(_Count)));

  00055	e8 00 00 00 00	 call	 ??$_Allocate@$07U_Default_allocate_traits@std@@$0A@@std@@YAPAXI@Z ; std::_Allocate<8,std::_Default_allocate_traits,0>
; File C:\Program Files (x86)\Microsoft Visual Studio\2019\Community\VC\Tools\MSVC\14.28.29333\include\xtree

; 343  :         const auto _Pnode = _Al.allocate(1);

  0005a	8b f0		 mov	 esi, eax

; 344  :         _Construct_in_place(_Pnode->_Left, _Pnode);

  0005c	8d 45 f0	 lea	 eax, DWORD PTR __Pnode$3[ebp]
  0005f	50		 push	 eax
  00060	56		 push	 esi
  00061	89 75 f0	 mov	 DWORD PTR __Pnode$3[ebp], esi
  00064	e8 00 00 00 00	 call	 ??$_Construct_in_place@PAU?$_Tree_node@U?$pair@$$CBEUSGuildGradeData@CPythonGuild@@@std@@PAX@std@@ABQAU12@@std@@YAXAAPAU?$_Tree_node@U?$pair@$$CBEUSGuildGradeData@CPythonGuild@@@std@@PAX@0@ABQAU10@@Z ; std::_Construct_in_place<std::_Tree_node<std::pair<unsigned char const ,CPythonGuild::SGuildGradeData>,void *> *,std::_Tree_node<std::pair<unsigned char const ,CPythonGuild::SGuildGradeData>,void *> * const &>

; 345  :         _Construct_in_place(_Pnode->_Parent, _Pnode);

  00069	8d 45 f0	 lea	 eax, DWORD PTR __Pnode$3[ebp]
  0006c	50		 push	 eax
  0006d	8d 4e 04	 lea	 ecx, DWORD PTR [esi+4]
  00070	51		 push	 ecx
  00071	e8 00 00 00 00	 call	 ??$_Construct_in_place@PAU?$_Tree_node@U?$pair@$$CBEUSGuildGradeData@CPythonGuild@@@std@@PAX@std@@ABQAU12@@std@@YAXAAPAU?$_Tree_node@U?$pair@$$CBEUSGuildGradeData@CPythonGuild@@@std@@PAX@0@ABQAU10@@Z ; std::_Construct_in_place<std::_Tree_node<std::pair<unsigned char const ,CPythonGuild::SGuildGradeData>,void *> *,std::_Tree_node<std::pair<unsigned char const ,CPythonGuild::SGuildGradeData>,void *> * const &>

; 346  :         _Construct_in_place(_Pnode->_Right, _Pnode);

  00076	8d 45 f0	 lea	 eax, DWORD PTR __Pnode$3[ebp]
  00079	50		 push	 eax
  0007a	8d 46 08	 lea	 eax, DWORD PTR [esi+8]
  0007d	50		 push	 eax
  0007e	e8 00 00 00 00	 call	 ??$_Construct_in_place@PAU?$_Tree_node@U?$pair@$$CBEUSGuildGradeData@CPythonGuild@@@std@@PAX@std@@ABQAU12@@std@@YAXAAPAU?$_Tree_node@U?$pair@$$CBEUSGuildGradeData@CPythonGuild@@@std@@PAX@0@ABQAU10@@Z ; std::_Construct_in_place<std::_Tree_node<std::pair<unsigned char const ,CPythonGuild::SGuildGradeData>,void *> *,std::_Tree_node<std::pair<unsigned char const ,CPythonGuild::SGuildGradeData>,void *> * const &>

; 347  :         _Pnode->_Color = _Black;

  00083	66 c7 46 0c 01
	01		 mov	 WORD PTR [esi+12], 257	; 00000101H

; 2021 :         _Scary->_Myhead = _Node::_Buyheadnode(_Getal());

  00089	89 37		 mov	 DWORD PTR [edi], esi
; File C:\Program Files (x86)\Microsoft Visual Studio\2019\Community\VC\Tools\MSVC\14.28.29333\include\vector

; 375  :     _Vector_val() noexcept : _Myfirst(), _Mylast(), _Myend() {}

  0008b	c7 43 3c 00 00
	00 00		 mov	 DWORD PTR [ebx+60], 0
  00092	c7 43 40 00 00
	00 00		 mov	 DWORD PTR [ebx+64], 0
  00099	c7 43 44 00 00
	00 00		 mov	 DWORD PTR [ebx+68], 0
  000a0	c7 43 48 00 00
	00 00		 mov	 DWORD PTR [ebx+72], 0
  000a7	c7 43 4c 00 00
	00 00		 mov	 DWORD PTR [ebx+76], 0
  000ae	c7 43 50 00 00
	00 00		 mov	 DWORD PTR [ebx+80], 0
; File D:\Metin2 Server Files\mainline\SRC_2014\Metin2Client\UserInterface\PythonGuild.cpp

; 367  : {

  000b5	8d 7b 68	 lea	 edi, DWORD PTR [ebx+104]
  000b8	c6 45 fc 03	 mov	 BYTE PTR __$EHRec$[ebp+8], 3
  000bc	89 7d f0	 mov	 DWORD PTR _this$[ebp], edi
; File C:\Program Files (x86)\Microsoft Visual Studio\2019\Community\VC\Tools\MSVC\14.28.29333\include\xmemory

; 814  :         return static_cast<_Ty*>(_Allocate<_New_alignof<_Ty>>(_Get_size_of_n<sizeof(_Ty)>(_Count)));

  000bf	6a 2c		 push	 44			; 0000002cH
; File C:\Program Files (x86)\Microsoft Visual Studio\2019\Community\VC\Tools\MSVC\14.28.29333\include\xtree

; 435  :     _Tree_val() noexcept : _Myhead(), _Mysize(0) {}

  000c1	c7 07 00 00 00
	00		 mov	 DWORD PTR [edi], 0
  000c7	c7 47 04 00 00
	00 00		 mov	 DWORD PTR [edi+4], 0
; File C:\Program Files (x86)\Microsoft Visual Studio\2019\Community\VC\Tools\MSVC\14.28.29333\include\xmemory

; 814  :         return static_cast<_Ty*>(_Allocate<_New_alignof<_Ty>>(_Get_size_of_n<sizeof(_Ty)>(_Count)));

  000ce	e8 00 00 00 00	 call	 ??$_Allocate@$07U_Default_allocate_traits@std@@$0A@@std@@YAPAXI@Z ; std::_Allocate<8,std::_Default_allocate_traits,0>
; File C:\Program Files (x86)\Microsoft Visual Studio\2019\Community\VC\Tools\MSVC\14.28.29333\include\xtree

; 343  :         const auto _Pnode = _Al.allocate(1);

  000d3	8b f0		 mov	 esi, eax

; 344  :         _Construct_in_place(_Pnode->_Left, _Pnode);

  000d5	8d 45 f0	 lea	 eax, DWORD PTR __Pnode$2[ebp]
  000d8	50		 push	 eax
  000d9	56		 push	 esi
  000da	89 75 f0	 mov	 DWORD PTR __Pnode$2[ebp], esi
  000dd	e8 00 00 00 00	 call	 ??$_Construct_in_place@PAU?$_Tree_node@U?$pair@$$CBKV?$basic_string@DU?$char_traits@D@std@@V?$allocator@D@2@@std@@@std@@PAX@std@@ABQAU12@@std@@YAXAAPAU?$_Tree_node@U?$pair@$$CBKV?$basic_string@DU?$char_traits@D@std@@V?$allocator@D@2@@std@@@std@@PAX@0@ABQAU10@@Z ; std::_Construct_in_place<std::_Tree_node<std::pair<unsigned long const ,std::basic_string<char,std::char_traits<char>,std::allocator<char> > >,void *> *,std::_Tree_node<std::pair<unsigned long const ,std::basic_string<char,std::char_traits<char>,std::allocator<char> > >,void *> * const &>

; 345  :         _Construct_in_place(_Pnode->_Parent, _Pnode);

  000e2	8d 45 f0	 lea	 eax, DWORD PTR __Pnode$2[ebp]
  000e5	50		 push	 eax
  000e6	8d 4e 04	 lea	 ecx, DWORD PTR [esi+4]
  000e9	51		 push	 ecx
  000ea	e8 00 00 00 00	 call	 ??$_Construct_in_place@PAU?$_Tree_node@U?$pair@$$CBKV?$basic_string@DU?$char_traits@D@std@@V?$allocator@D@2@@std@@@std@@PAX@std@@ABQAU12@@std@@YAXAAPAU?$_Tree_node@U?$pair@$$CBKV?$basic_string@DU?$char_traits@D@std@@V?$allocator@D@2@@std@@@std@@PAX@0@ABQAU10@@Z ; std::_Construct_in_place<std::_Tree_node<std::pair<unsigned long const ,std::basic_string<char,std::char_traits<char>,std::allocator<char> > >,void *> *,std::_Tree_node<std::pair<unsigned long const ,std::basic_string<char,std::char_traits<char>,std::allocator<char> > >,void *> * const &>

; 346  :         _Construct_in_place(_Pnode->_Right, _Pnode);

  000ef	8d 45 f0	 lea	 eax, DWORD PTR __Pnode$2[ebp]
  000f2	50		 push	 eax
  000f3	8d 46 08	 lea	 eax, DWORD PTR [esi+8]
  000f6	50		 push	 eax
  000f7	e8 00 00 00 00	 call	 ??$_Construct_in_place@PAU?$_Tree_node@U?$pair@$$CBKV?$basic_string@DU?$char_traits@D@std@@V?$allocator@D@2@@std@@@std@@PAX@std@@ABQAU12@@std@@YAXAAPAU?$_Tree_node@U?$pair@$$CBKV?$basic_string@DU?$char_traits@D@std@@V?$allocator@D@2@@std@@@std@@PAX@0@ABQAU10@@Z ; std::_Construct_in_place<std::_Tree_node<std::pair<unsigned long const ,std::basic_string<char,std::char_traits<char>,std::allocator<char> > >,void *> *,std::_Tree_node<std::pair<unsigned long const ,std::basic_string<char,std::char_traits<char>,std::allocator<char> > >,void *> * const &>
  000fc	83 c4 38	 add	 esp, 56			; 00000038H

; 347  :         _Pnode->_Color = _Black;

  000ff	66 c7 46 0c 01
	01		 mov	 WORD PTR [esi+12], 257	; 00000101H
; File D:\Metin2 Server Files\mainline\SRC_2014\Metin2Client\UserInterface\PythonGuild.cpp

; 368  : 	__Initialize();

  00105	8b cb		 mov	 ecx, ebx
; File C:\Program Files (x86)\Microsoft Visual Studio\2019\Community\VC\Tools\MSVC\14.28.29333\include\xtree

; 2021 :         _Scary->_Myhead = _Node::_Buyheadnode(_Getal());

  00107	89 37		 mov	 DWORD PTR [edi], esi
; File D:\Metin2 Server Files\mainline\SRC_2014\Metin2Client\UserInterface\PythonGuild.cpp

; 368  : 	__Initialize();

  00109	e8 00 00 00 00	 call	 ?__Initialize@CPythonGuild@@IAEXXZ ; CPythonGuild::__Initialize

; 369  : }

  0010e	8b c3		 mov	 eax, ebx
  00110	8b 4d f4	 mov	 ecx, DWORD PTR __$EHRec$[ebp]
  00113	64 89 0d 00 00
	00 00		 mov	 DWORD PTR fs:0, ecx
  0011a	59		 pop	 ecx
  0011b	5f		 pop	 edi
  0011c	5e		 pop	 esi
  0011d	5b		 pop	 ebx
  0011e	8b e5		 mov	 esp, ebp
  00120	5d		 pop	 ebp
  00121	c3		 ret	 0
_TEXT	ENDS
;	COMDAT text$x
text$x	SEGMENT
__unwindfunclet$??0CPythonGuild@@QAE@XZ$0:
  00000	8b 4d ec	 mov	 ecx, DWORD PTR _this$[ebp]
  00003	e9 00 00 00 00	 jmp	 ??1?$CSingleton@VCPythonGuild@@@@UAE@XZ ; CSingleton<CPythonGuild>::~CSingleton<CPythonGuild>
__unwindfunclet$??0CPythonGuild@@QAE@XZ$1:
  00008	8b 4d ec	 mov	 ecx, DWORD PTR _this$[ebp]
  0000b	83 c1 34	 add	 ecx, 52			; 00000034H
  0000e	e9 00 00 00 00	 jmp	 ??1?$map@EUSGuildGradeData@CPythonGuild@@U?$less@E@std@@V?$allocator@U?$pair@$$CBEUSGuildGradeData@CPythonGuild@@@std@@@4@@std@@QAE@XZ
__unwindfunclet$??0CPythonGuild@@QAE@XZ$2:
  00013	8b 4d ec	 mov	 ecx, DWORD PTR _this$[ebp]
  00016	83 c1 3c	 add	 ecx, 60			; 0000003cH
  00019	e9 00 00 00 00	 jmp	 ??1?$vector@USGuildMemberData@CPythonGuild@@V?$allocator@USGuildMemberData@CPythonGuild@@@std@@@std@@QAE@XZ ; std::vector<CPythonGuild::SGuildMemberData,std::allocator<CPythonGuild::SGuildMemberData> >::~vector<CPythonGuild::SGuildMemberData,std::allocator<CPythonGuild::SGuildMemberData> >
__unwindfunclet$??0CPythonGuild@@QAE@XZ$3:
  0001e	8b 4d ec	 mov	 ecx, DWORD PTR _this$[ebp]
  00021	83 c1 48	 add	 ecx, 72			; 00000048H
  00024	e9 00 00 00 00	 jmp	 ??1?$vector@USGuildBoardCommentData@CPythonGuild@@V?$allocator@USGuildBoardCommentData@CPythonGuild@@@std@@@std@@QAE@XZ ; std::vector<CPythonGuild::SGuildBoardCommentData,std::allocator<CPythonGuild::SGuildBoardCommentData> >::~vector<CPythonGuild::SGuildBoardCommentData,std::allocator<CPythonGuild::SGuildBoardCommentData> >
  00029	cc		 int	 3
  0002a	cc		 int	 3
  0002b	cc		 int	 3
  0002c	cc		 int	 3
  0002d	cc		 int	 3
__ehhandler$??0CPythonGuild@@QAE@XZ:
  0002e	90		 npad	 1
  0002f	90		 npad	 1
  00030	8b 54 24 08	 mov	 edx, DWORD PTR [esp+8]
  00034	8d 42 0c	 lea	 eax, DWORD PTR [edx+12]
  00037	8b 4a e8	 mov	 ecx, DWORD PTR [edx-24]
  0003a	33 c8		 xor	 ecx, eax
  0003c	e8 00 00 00 00	 call	 @__security_check_cookie@4
  00041	b8 00 00 00 00	 mov	 eax, OFFSET __ehfuncinfo$??0CPythonGuild@@QAE@XZ
  00046	e9 00 00 00 00	 jmp	 ___CxxFrameHandler3
text$x	ENDS
??0CPythonGuild@@QAE@XZ ENDP				; CPythonGuild::CPythonGuild
; Function compile flags: /Ogtp
; File C:\Program Files (x86)\Microsoft Visual Studio\2019\Community\VC\Tools\MSVC\14.28.29333\include\xstring
; File C:\Program Files (x86)\Microsoft Visual Studio\2019\Community\VC\Tools\MSVC\14.28.29333\include\xmemory
; File C:\Program Files (x86)\Microsoft Visual Studio\2019\Community\VC\Tools\MSVC\14.28.29333\include\xstring
; File C:\Program Files (x86)\Microsoft Visual Studio\2019\Community\VC\Tools\MSVC\14.28.29333\include\xmemory
; File C:\Program Files (x86)\Microsoft Visual Studio\2019\Community\VC\Tools\MSVC\14.28.29333\include\xstring
;	COMDAT ??1SGuildBoardCommentData@CPythonGuild@@QAE@XZ
_TEXT	SEGMENT
??1SGuildBoardCommentData@CPythonGuild@@QAE@XZ PROC	; CPythonGuild::SGuildBoardCommentData::~SGuildBoardCommentData, COMDAT
; _this$ = ecx

; 2227 :         return _BUF_SIZE <= _Myres;

  00000	56		 push	 esi
  00001	8b f1		 mov	 esi, ecx
  00003	8b 46 30	 mov	 eax, DWORD PTR [esi+48]
  00006	83 f8 10	 cmp	 eax, 16			; 00000010H

; 4385 :         if (_Mypair._Myval2._Large_string_engaged()) {

  00009	72 0d		 jb	 SHORT $LN7@SGuildBoar

; 4386 :             const pointer _Ptr = _Mypair._Myval2._Bx._Ptr;
; 4387 :             auto& _Al          = _Getal();
; 4388 :             _Destroy_in_place(_Mypair._Myval2._Bx._Ptr);
; 4389 :             _Al.deallocate(_Ptr, _Mypair._Myval2._Myres + 1);

  0000b	40		 inc	 eax
; File C:\Program Files (x86)\Microsoft Visual Studio\2019\Community\VC\Tools\MSVC\14.28.29333\include\xmemory

; 810  :         _Deallocate<_New_alignof<_Ty>>(_Ptr, sizeof(_Ty) * _Count);

  0000c	50		 push	 eax
  0000d	ff 76 1c	 push	 DWORD PTR [esi+28]
  00010	e8 00 00 00 00	 call	 ??$_Deallocate@$07$0A@@std@@YAXPAXI@Z ; std::_Deallocate<8,0>
  00015	83 c4 08	 add	 esp, 8
$LN7@SGuildBoar:
; File C:\Program Files (x86)\Microsoft Visual Studio\2019\Community\VC\Tools\MSVC\14.28.29333\include\xstring

; 4392 :         _Mypair._Myval2._Mysize = 0;

  00018	c7 46 2c 00 00
	00 00		 mov	 DWORD PTR [esi+44], 0

; 4393 :         _Mypair._Myval2._Myres  = _BUF_SIZE - 1;

  0001f	c7 46 30 0f 00
	00 00		 mov	 DWORD PTR [esi+48], 15	; 0000000fH

; 4394 :         // the _Traits::assign is last so the codegen doesn't think the char write can alias this
; 4395 :         _Traits::assign(_Mypair._Myval2._Bx._Buf[0], _Elem());

  00026	c6 46 1c 00	 mov	 BYTE PTR [esi+28], 0

; 2227 :         return _BUF_SIZE <= _Myres;

  0002a	8b 46 18	 mov	 eax, DWORD PTR [esi+24]
  0002d	83 f8 10	 cmp	 eax, 16			; 00000010H

; 4385 :         if (_Mypair._Myval2._Large_string_engaged()) {

  00030	72 0d		 jb	 SHORT $LN17@SGuildBoar

; 4386 :             const pointer _Ptr = _Mypair._Myval2._Bx._Ptr;
; 4387 :             auto& _Al          = _Getal();
; 4388 :             _Destroy_in_place(_Mypair._Myval2._Bx._Ptr);
; 4389 :             _Al.deallocate(_Ptr, _Mypair._Myval2._Myres + 1);

  00032	40		 inc	 eax
; File C:\Program Files (x86)\Microsoft Visual Studio\2019\Community\VC\Tools\MSVC\14.28.29333\include\xmemory

; 810  :         _Deallocate<_New_alignof<_Ty>>(_Ptr, sizeof(_Ty) * _Count);

  00033	50		 push	 eax
  00034	ff 76 04	 push	 DWORD PTR [esi+4]
  00037	e8 00 00 00 00	 call	 ??$_Deallocate@$07$0A@@std@@YAXPAXI@Z ; std::_Deallocate<8,0>
  0003c	83 c4 08	 add	 esp, 8
$LN17@SGuildBoar:
; File C:\Program Files (x86)\Microsoft Visual Studio\2019\Community\VC\Tools\MSVC\14.28.29333\include\xstring

; 4392 :         _Mypair._Myval2._Mysize = 0;

  0003f	c7 46 14 00 00
	00 00		 mov	 DWORD PTR [esi+20], 0

; 4393 :         _Mypair._Myval2._Myres  = _BUF_SIZE - 1;

  00046	c7 46 18 0f 00
	00 00		 mov	 DWORD PTR [esi+24], 15	; 0000000fH

; 4394 :         // the _Traits::assign is last so the codegen doesn't think the char write can alias this
; 4395 :         _Traits::assign(_Mypair._Myval2._Bx._Buf[0], _Elem());

  0004d	c6 46 04 00	 mov	 BYTE PTR [esi+4], 0
  00051	5e		 pop	 esi
  00052	c3		 ret	 0
??1SGuildBoardCommentData@CPythonGuild@@QAE@XZ ENDP	; CPythonGuild::SGuildBoardCommentData::~SGuildBoardCommentData
_TEXT	ENDS
; Function compile flags: /Ogtp
; File C:\Program Files (x86)\Microsoft Visual Studio\2019\Community\VC\Tools\MSVC\14.28.29333\include\xstring
; File C:\Program Files (x86)\Microsoft Visual Studio\2019\Community\VC\Tools\MSVC\14.28.29333\include\xmemory
; File C:\Program Files (x86)\Microsoft Visual Studio\2019\Community\VC\Tools\MSVC\14.28.29333\include\xstring
;	COMDAT ??4SGuildMemberData@CPythonGuild@@QAEAAU01@$$QAU01@@Z
_TEXT	SEGMENT
___that$ = 8						; size = 4
??4SGuildMemberData@CPythonGuild@@QAEAAU01@$$QAU01@@Z PROC ; CPythonGuild::SGuildMemberData::operator=, COMDAT
; _this$ = ecx
  00000	55		 push	 ebp
  00001	8b ec		 mov	 ebp, esp

; 2665 :         if (this != _STD addressof(_Right)) {

  00003	53		 push	 ebx
  00004	56		 push	 esi
  00005	57		 push	 edi
  00006	8b f9		 mov	 edi, ecx
  00008	8b 4d 08	 mov	 ecx, DWORD PTR ___that$[ebp]
  0000b	8b 01		 mov	 eax, DWORD PTR [ecx]
  0000d	8d 59 04	 lea	 ebx, DWORD PTR [ecx+4]
  00010	8d 77 04	 lea	 esi, DWORD PTR [edi+4]
  00013	89 07		 mov	 DWORD PTR [edi], eax
  00015	3b f3		 cmp	 esi, ebx
  00017	74 49		 je	 SHORT $LN20@operator

; 2227 :         return _BUF_SIZE <= _Myres;

  00019	8b 46 14	 mov	 eax, DWORD PTR [esi+20]
  0001c	83 f8 10	 cmp	 eax, 16			; 00000010H

; 4385 :         if (_Mypair._Myval2._Large_string_engaged()) {

  0001f	72 0f		 jb	 SHORT $LN9@operator

; 4386 :             const pointer _Ptr = _Mypair._Myval2._Bx._Ptr;
; 4387 :             auto& _Al          = _Getal();
; 4388 :             _Destroy_in_place(_Mypair._Myval2._Bx._Ptr);
; 4389 :             _Al.deallocate(_Ptr, _Mypair._Myval2._Myres + 1);

  00021	40		 inc	 eax
; File C:\Program Files (x86)\Microsoft Visual Studio\2019\Community\VC\Tools\MSVC\14.28.29333\include\xmemory

; 810  :         _Deallocate<_New_alignof<_Ty>>(_Ptr, sizeof(_Ty) * _Count);

  00022	50		 push	 eax
  00023	ff 36		 push	 DWORD PTR [esi]
  00025	e8 00 00 00 00	 call	 ??$_Deallocate@$07$0A@@std@@YAXPAXI@Z ; std::_Deallocate<8,0>
  0002a	8b 4d 08	 mov	 ecx, DWORD PTR ___that$[ebp]
  0002d	83 c4 08	 add	 esp, 8
$LN9@operator:
; File C:\Program Files (x86)\Microsoft Visual Studio\2019\Community\VC\Tools\MSVC\14.28.29333\include\xstring

; 4392 :         _Mypair._Myval2._Mysize = 0;

  00030	c7 46 10 00 00
	00 00		 mov	 DWORD PTR [esi+16], 0

; 4393 :         _Mypair._Myval2._Myres  = _BUF_SIZE - 1;

  00037	c7 46 14 0f 00
	00 00		 mov	 DWORD PTR [esi+20], 15	; 0000000fH

; 4394 :         // the _Traits::assign is last so the codegen doesn't think the char write can alias this
; 4395 :         _Traits::assign(_Mypair._Myval2._Bx._Buf[0], _Elem());

  0003e	c6 06 00	 mov	 BYTE PTR [esi], 0

; 2684 :         _CSTD memcpy(_My_data_mem, _Right_data_mem, _Memcpy_val_size);

  00041	0f 10 03	 movups	 xmm0, XMMWORD PTR [ebx]
  00044	0f 11 06	 movups	 XMMWORD PTR [esi], xmm0
  00047	f3 0f 7e 43 10	 movq	 xmm0, QWORD PTR [ebx+16]
  0004c	66 0f d6 46 10	 movq	 QWORD PTR [esi+16], xmm0

; 4377 :         _Mypair._Myval2._Mysize = 0;

  00051	c7 43 10 00 00
	00 00		 mov	 DWORD PTR [ebx+16], 0

; 4378 :         _Mypair._Myval2._Myres  = _BUF_SIZE - 1;

  00058	c7 43 14 0f 00
	00 00		 mov	 DWORD PTR [ebx+20], 15	; 0000000fH

; 4379 :         // the _Traits::assign is last so the codegen doesn't think the char write can alias this
; 4380 :         _Traits::assign(_Mypair._Myval2._Bx._Buf[0], _Elem());

  0005f	c6 03 00	 mov	 BYTE PTR [ebx], 0
$LN20@operator:
  00062	0f b6 41 1c	 movzx	 eax, BYTE PTR [ecx+28]
  00066	88 47 1c	 mov	 BYTE PTR [edi+28], al
  00069	0f b6 41 1d	 movzx	 eax, BYTE PTR [ecx+29]
  0006d	88 47 1d	 mov	 BYTE PTR [edi+29], al
  00070	0f b6 41 1e	 movzx	 eax, BYTE PTR [ecx+30]
  00074	88 47 1e	 mov	 BYTE PTR [edi+30], al
  00077	0f b6 41 1f	 movzx	 eax, BYTE PTR [ecx+31]
  0007b	88 47 1f	 mov	 BYTE PTR [edi+31], al
  0007e	8b 41 20	 mov	 eax, DWORD PTR [ecx+32]
  00081	89 47 20	 mov	 DWORD PTR [edi+32], eax
  00084	8b c7		 mov	 eax, edi
  00086	5f		 pop	 edi
  00087	5e		 pop	 esi
  00088	5b		 pop	 ebx
  00089	5d		 pop	 ebp
  0008a	c2 04 00	 ret	 4
??4SGuildMemberData@CPythonGuild@@QAEAAU01@$$QAU01@@Z ENDP ; CPythonGuild::SGuildMemberData::operator=
_TEXT	ENDS
; Function compile flags: /Ogtp
; File C:\Program Files (x86)\Microsoft Visual Studio\2019\Community\VC\Tools\MSVC\14.28.29333\include\xstring
;	COMDAT ??0SGuildMemberData@CPythonGuild@@QAE@$$QAU01@@Z
_TEXT	SEGMENT
___that$ = 8						; size = 4
??0SGuildMemberData@CPythonGuild@@QAE@$$QAU01@@Z PROC	; CPythonGuild::SGuildMemberData::SGuildMemberData, COMDAT
; _this$ = ecx
  00000	55		 push	 ebp
  00001	8b ec		 mov	 ebp, esp

; 2198 :     _String_val() noexcept : _Bx(), _Mysize(0), _Myres(0) {}

  00003	8b 55 08	 mov	 edx, DWORD PTR ___that$[ebp]
  00006	8b 02		 mov	 eax, DWORD PTR [edx]
  00008	c7 41 14 00 00
	00 00		 mov	 DWORD PTR [ecx+20], 0
  0000f	c7 41 18 00 00
	00 00		 mov	 DWORD PTR [ecx+24], 0
  00016	89 01		 mov	 DWORD PTR [ecx], eax

; 2684 :         _CSTD memcpy(_My_data_mem, _Right_data_mem, _Memcpy_val_size);

  00018	0f 10 42 04	 movups	 xmm0, XMMWORD PTR [edx+4]
  0001c	0f 11 41 04	 movups	 XMMWORD PTR [ecx+4], xmm0
  00020	f3 0f 7e 42 14	 movq	 xmm0, QWORD PTR [edx+20]
  00025	66 0f d6 41 14	 movq	 QWORD PTR [ecx+20], xmm0

; 4377 :         _Mypair._Myval2._Mysize = 0;

  0002a	c7 42 14 00 00
	00 00		 mov	 DWORD PTR [edx+20], 0

; 4378 :         _Mypair._Myval2._Myres  = _BUF_SIZE - 1;

  00031	c7 42 18 0f 00
	00 00		 mov	 DWORD PTR [edx+24], 15	; 0000000fH

; 4379 :         // the _Traits::assign is last so the codegen doesn't think the char write can alias this
; 4380 :         _Traits::assign(_Mypair._Myval2._Bx._Buf[0], _Elem());

  00038	c6 42 04 00	 mov	 BYTE PTR [edx+4], 0
  0003c	0f b6 42 1c	 movzx	 eax, BYTE PTR [edx+28]
  00040	88 41 1c	 mov	 BYTE PTR [ecx+28], al
  00043	0f b6 42 1d	 movzx	 eax, BYTE PTR [edx+29]
  00047	88 41 1d	 mov	 BYTE PTR [ecx+29], al
  0004a	0f b6 42 1e	 movzx	 eax, BYTE PTR [edx+30]
  0004e	88 41 1e	 mov	 BYTE PTR [ecx+30], al
  00051	0f b6 42 1f	 movzx	 eax, BYTE PTR [edx+31]
  00055	88 41 1f	 mov	 BYTE PTR [ecx+31], al
  00058	8b 42 20	 mov	 eax, DWORD PTR [edx+32]
  0005b	89 41 20	 mov	 DWORD PTR [ecx+32], eax
  0005e	8b c1		 mov	 eax, ecx
  00060	5d		 pop	 ebp
  00061	c2 04 00	 ret	 4
??0SGuildMemberData@CPythonGuild@@QAE@$$QAU01@@Z ENDP	; CPythonGuild::SGuildMemberData::SGuildMemberData
_TEXT	ENDS
; Function compile flags: /Ogtp
; File D:\Metin2 Server Files\mainline\SRC_2014\Metin2Client\eterBase\Singleton.h
;	COMDAT ??_G?$CSingleton@VCPythonGuild@@@@UAEPAXI@Z
_TEXT	SEGMENT
___flags$ = 8						; size = 4
??_G?$CSingleton@VCPythonGuild@@@@UAEPAXI@Z PROC	; CSingleton<CPythonGuild>::`scalar deleting destructor', COMDAT
; _this$ = ecx
  00000	55		 push	 ebp
  00001	8b ec		 mov	 ebp, esp
  00003	f6 45 08 01	 test	 BYTE PTR ___flags$[ebp], 1

; 19   : 	{ 

  00007	56		 push	 esi
  00008	8b f1		 mov	 esi, ecx
  0000a	c7 06 00 00 00
	00		 mov	 DWORD PTR [esi], OFFSET ??_7?$CSingleton@VCPythonGuild@@@@6B@

; 20   : 		assert(ms_singleton);
; 21   : 		ms_singleton = 0; 

  00010	c7 05 00 00 00
	00 00 00 00 00	 mov	 DWORD PTR ?ms_singleton@?$CSingleton@VCPythonGuild@@@@0PAVCPythonGuild@@A, 0 ; CSingleton<CPythonGuild>::ms_singleton
  0001a	74 0b		 je	 SHORT $LN6@scalar
  0001c	6a 04		 push	 4
  0001e	56		 push	 esi
  0001f	e8 00 00 00 00	 call	 ??3@YAXPAXI@Z		; operator delete
  00024	83 c4 08	 add	 esp, 8
$LN6@scalar:
  00027	8b c6		 mov	 eax, esi
  00029	5e		 pop	 esi
  0002a	5d		 pop	 ebp
  0002b	c2 04 00	 ret	 4
??_G?$CSingleton@VCPythonGuild@@@@UAEPAXI@Z ENDP	; CSingleton<CPythonGuild>::`scalar deleting destructor'
_TEXT	ENDS
; Function compile flags: /Ogtp
; File D:\Metin2 Server Files\mainline\SRC_2014\Metin2Client\eterBase\Singleton.h
;	COMDAT ??1?$CSingleton@VCPythonGuild@@@@UAE@XZ
_TEXT	SEGMENT
??1?$CSingleton@VCPythonGuild@@@@UAE@XZ PROC		; CSingleton<CPythonGuild>::~CSingleton<CPythonGuild>, COMDAT
; _this$ = ecx

; 19   : 	{ 

  00000	c7 01 00 00 00
	00		 mov	 DWORD PTR [ecx], OFFSET ??_7?$CSingleton@VCPythonGuild@@@@6B@

; 20   : 		assert(ms_singleton);
; 21   : 		ms_singleton = 0; 

  00006	c7 05 00 00 00
	00 00 00 00 00	 mov	 DWORD PTR ?ms_singleton@?$CSingleton@VCPythonGuild@@@@0PAVCPythonGuild@@A, 0 ; CSingleton<CPythonGuild>::ms_singleton

; 22   : 	}

  00010	c3		 ret	 0
??1?$CSingleton@VCPythonGuild@@@@UAE@XZ ENDP		; CSingleton<CPythonGuild>::~CSingleton<CPythonGuild>
_TEXT	ENDS
; Function compile flags: /Ogtp
; File C:\Program Files (x86)\Microsoft Visual Studio\2019\Community\VC\Tools\MSVC\14.28.29333\include\xtree
;	COMDAT ?_Insert_node@?$_Tree_val@U?$_Tree_simple_types@U?$pair@$$CBKK@std@@@std@@@std@@QAEPAU?$_Tree_node@U?$pair@$$CBKK@std@@PAX@2@U?$_Tree_id@PAU?$_Tree_node@U?$pair@$$CBKK@std@@PAX@std@@@2@QAU32@@Z
_TEXT	SEGMENT
__Head$1$ = -8						; size = 4
_this$1$ = -4						; size = 4
__Loc$ = 8						; size = 8
__Newnode$ = 16						; size = 4
?_Insert_node@?$_Tree_val@U?$_Tree_simple_types@U?$pair@$$CBKK@std@@@std@@@std@@QAEPAU?$_Tree_node@U?$pair@$$CBKK@std@@PAX@2@U?$_Tree_id@PAU?$_Tree_node@U?$pair@$$CBKK@std@@PAX@std@@@2@QAU32@@Z PROC ; std::_Tree_val<std::_Tree_simple_types<std::pair<unsigned long const ,unsigned long> > >::_Insert_node, COMDAT
; _this$ = ecx

; 644  :     _Nodeptr _Insert_node(const _Tree_id<_Nodeptr> _Loc, const _Nodeptr _Newnode) noexcept {

  00000	55		 push	 ebp
  00001	8b ec		 mov	 ebp, esp
  00003	83 ec 08	 sub	 esp, 8

; 645  :         ++_Mysize;
; 646  :         const auto _Head  = _Myhead;
; 647  :         _Newnode->_Parent = _Loc._Parent;

  00006	8b 55 08	 mov	 edx, DWORD PTR __Loc$[ebp]
  00009	8b c1		 mov	 eax, ecx
  0000b	89 45 fc	 mov	 DWORD PTR _this$1$[ebp], eax
  0000e	8b 08		 mov	 ecx, DWORD PTR [eax]
  00010	ff 40 04	 inc	 DWORD PTR [eax+4]
  00013	8b 45 10	 mov	 eax, DWORD PTR __Newnode$[ebp]
  00016	89 4d f8	 mov	 DWORD PTR __Head$1$[ebp], ecx
  00019	89 50 04	 mov	 DWORD PTR [eax+4], edx

; 648  :         if (_Loc._Parent == _Head) { // first node in tree, just set head values

  0001c	3b d1		 cmp	 edx, ecx
  0001e	75 12		 jne	 SHORT $LN5@Insert_nod

; 649  :             _Head->_Left     = _Newnode;

  00020	89 01		 mov	 DWORD PTR [ecx], eax

; 650  :             _Head->_Parent   = _Newnode;

  00022	89 41 04	 mov	 DWORD PTR [ecx+4], eax

; 651  :             _Head->_Right    = _Newnode;

  00025	89 41 08	 mov	 DWORD PTR [ecx+8], eax

; 652  :             _Newnode->_Color = _Black; // the root is black

  00028	c6 40 0c 01	 mov	 BYTE PTR [eax+12], 1

; 711  :     }

  0002c	8b e5		 mov	 esp, ebp
  0002e	5d		 pop	 ebp
  0002f	c2 0c 00	 ret	 12			; 0000000cH
$LN5@Insert_nod:

; 653  :             return _Newnode;
; 654  :         }
; 655  : 
; 656  :         _STL_INTERNAL_CHECK(_Loc._Child != _Tree_child::_Unused);
; 657  :         if (_Loc._Child == _Tree_child::_Right) { // add to right of _Loc._Parent

  00032	83 7d 0c 00	 cmp	 DWORD PTR __Loc$[ebp+4], 0
  00036	75 0d		 jne	 SHORT $LN6@Insert_nod

; 658  :             _STL_INTERNAL_CHECK(_Loc._Parent->_Right->_Isnil);
; 659  :             _Loc._Parent->_Right = _Newnode;

  00038	89 42 08	 mov	 DWORD PTR [edx+8], eax

; 660  :             if (_Loc._Parent == _Head->_Right) { // remember rightmost node

  0003b	3b 51 08	 cmp	 edx, DWORD PTR [ecx+8]
  0003e	75 0d		 jne	 SHORT $LN9@Insert_nod

; 661  :                 _Head->_Right = _Newnode;

  00040	89 41 08	 mov	 DWORD PTR [ecx+8], eax

; 662  :             }
; 663  :         } else { // add to left of _Loc._Parent

  00043	eb 08		 jmp	 SHORT $LN9@Insert_nod
$LN6@Insert_nod:

; 664  :             _STL_INTERNAL_CHECK(_Loc._Parent->_Left->_Isnil);
; 665  :             _Loc._Parent->_Left = _Newnode;

  00045	89 02		 mov	 DWORD PTR [edx], eax

; 666  :             if (_Loc._Parent == _Head->_Left) { // remember leftmost node

  00047	3b 11		 cmp	 edx, DWORD PTR [ecx]
  00049	75 02		 jne	 SHORT $LN9@Insert_nod

; 667  :                 _Head->_Left = _Newnode;

  0004b	89 01		 mov	 DWORD PTR [ecx], eax
$LN9@Insert_nod:

; 668  :             }
; 669  :         }
; 670  : 
; 671  :         for (_Nodeptr _Pnode = _Newnode; _Pnode->_Parent->_Color == _Red;) {

  0004d	8b d0		 mov	 edx, eax
  0004f	8b 40 04	 mov	 eax, DWORD PTR [eax+4]
  00052	80 78 0c 00	 cmp	 BYTE PTR [eax+12], 0
  00056	0f 85 99 01 00
	00		 jne	 $LN3@Insert_nod
  0005c	53		 push	 ebx
  0005d	56		 push	 esi
  0005e	57		 push	 edi
  0005f	90		 npad	 1
$LL2@Insert_nod:

; 672  :             if (_Pnode->_Parent == _Pnode->_Parent->_Parent->_Left) { // fixup red-red in left subtree

  00060	8b 4a 04	 mov	 ecx, DWORD PTR [edx+4]
  00063	8d 7a 04	 lea	 edi, DWORD PTR [edx+4]
  00066	8b 71 04	 mov	 esi, DWORD PTR [ecx+4]
  00069	8d 59 04	 lea	 ebx, DWORD PTR [ecx+4]
  0006c	8b 06		 mov	 eax, DWORD PTR [esi]
  0006e	3b c8		 cmp	 ecx, eax
  00070	0f 85 ba 00 00
	00		 jne	 $LN10@Insert_nod

; 673  :                 const auto _Parent_sibling = _Pnode->_Parent->_Parent->_Right;

  00076	8b 46 08	 mov	 eax, DWORD PTR [esi+8]

; 674  :                 if (_Parent_sibling->_Color == _Red) { // parent's sibling has two red children, blacken both

  00079	80 78 0c 00	 cmp	 BYTE PTR [eax+12], 0
  0007d	0f 84 b3 00 00
	00		 je	 $LN53@Insert_nod

; 675  :                     _Pnode->_Parent->_Color          = _Black;
; 676  :                     _Parent_sibling->_Color          = _Black;
; 677  :                     _Pnode->_Parent->_Parent->_Color = _Red;
; 678  :                     _Pnode                           = _Pnode->_Parent->_Parent;
; 679  :                 } else { // parent's sibling has red and black children
; 680  :                     if (_Pnode == _Pnode->_Parent->_Right) { // rotate right child to left

  00083	8b 71 08	 mov	 esi, DWORD PTR [ecx+8]
  00086	3b d6		 cmp	 edx, esi
  00088	75 47		 jne	 SHORT $LN51@Insert_nod

; 460  :         _Wherenode->_Right = _Pnode->_Left;

  0008a	8b 06		 mov	 eax, DWORD PTR [esi]

; 681  :                         _Pnode = _Pnode->_Parent;

  0008c	8b d1		 mov	 edx, ecx

; 460  :         _Wherenode->_Right = _Pnode->_Left;

  0008e	89 42 08	 mov	 DWORD PTR [edx+8], eax

; 461  : 
; 462  :         if (!_Pnode->_Left->_Isnil) {

  00091	8b 06		 mov	 eax, DWORD PTR [esi]
  00093	80 78 0d 00	 cmp	 BYTE PTR [eax+13], 0
  00097	75 03		 jne	 SHORT $LN20@Insert_nod

; 463  :             _Pnode->_Left->_Parent = _Wherenode;

  00099	89 50 04	 mov	 DWORD PTR [eax+4], edx
$LN20@Insert_nod:

; 464  :         }
; 465  : 
; 466  :         _Pnode->_Parent = _Wherenode->_Parent;

  0009c	8b 03		 mov	 eax, DWORD PTR [ebx]
  0009e	89 46 04	 mov	 DWORD PTR [esi+4], eax

; 467  : 
; 468  :         if (_Wherenode == _Myhead->_Parent) {

  000a1	8b 45 fc	 mov	 eax, DWORD PTR _this$1$[ebp]
  000a4	8b 00		 mov	 eax, DWORD PTR [eax]
  000a6	3b 50 04	 cmp	 edx, DWORD PTR [eax+4]
  000a9	75 0b		 jne	 SHORT $LN21@Insert_nod

; 469  :             _Myhead->_Parent = _Pnode;

  000ab	89 70 04	 mov	 DWORD PTR [eax+4], esi

; 477  :         _Wherenode->_Parent = _Pnode;

  000ae	8b fb		 mov	 edi, ebx
  000b0	89 16		 mov	 DWORD PTR [esi], edx
  000b2	89 33		 mov	 DWORD PTR [ebx], esi
  000b4	eb 1d		 jmp	 SHORT $LN49@Insert_nod
$LN21@Insert_nod:

; 470  :         } else if (_Wherenode == _Wherenode->_Parent->_Left) {

  000b6	8b 03		 mov	 eax, DWORD PTR [ebx]
  000b8	3b 10		 cmp	 edx, DWORD PTR [eax]
  000ba	75 0a		 jne	 SHORT $LN23@Insert_nod

; 471  :             _Wherenode->_Parent->_Left = _Pnode;

  000bc	89 30		 mov	 DWORD PTR [eax], esi

; 477  :         _Wherenode->_Parent = _Pnode;

  000be	8b fb		 mov	 edi, ebx
  000c0	89 16		 mov	 DWORD PTR [esi], edx
  000c2	89 33		 mov	 DWORD PTR [ebx], esi
  000c4	eb 0d		 jmp	 SHORT $LN49@Insert_nod
$LN23@Insert_nod:

; 473  :             _Wherenode->_Parent->_Right = _Pnode;

  000c6	89 70 08	 mov	 DWORD PTR [eax+8], esi

; 477  :         _Wherenode->_Parent = _Pnode;

  000c9	8b fb		 mov	 edi, ebx
  000cb	89 16		 mov	 DWORD PTR [esi], edx
  000cd	89 33		 mov	 DWORD PTR [ebx], esi
  000cf	eb 02		 jmp	 SHORT $LN49@Insert_nod
$LN51@Insert_nod:
  000d1	8b f1		 mov	 esi, ecx
$LN49@Insert_nod:

; 682  :                         _Lrotate(_Pnode);
; 683  :                     }
; 684  : 
; 685  :                     _Pnode->_Parent->_Color          = _Black; // propagate red up

  000d3	c6 46 0c 01	 mov	 BYTE PTR [esi+12], 1

; 686  :                     _Pnode->_Parent->_Parent->_Color = _Red;

  000d7	8b 07		 mov	 eax, DWORD PTR [edi]
  000d9	8b 40 04	 mov	 eax, DWORD PTR [eax+4]
  000dc	c6 40 0c 00	 mov	 BYTE PTR [eax+12], 0

; 687  :                     _Rrotate(_Pnode->_Parent->_Parent);

  000e0	8b 07		 mov	 eax, DWORD PTR [edi]
  000e2	8b 48 04	 mov	 ecx, DWORD PTR [eax+4]

; 481  :         _Nodeptr _Pnode   = _Wherenode->_Left;

  000e5	8b 31		 mov	 esi, DWORD PTR [ecx]

; 482  :         _Wherenode->_Left = _Pnode->_Right;

  000e7	8b 46 08	 mov	 eax, DWORD PTR [esi+8]
  000ea	89 01		 mov	 DWORD PTR [ecx], eax

; 483  : 
; 484  :         if (!_Pnode->_Right->_Isnil) {

  000ec	8b 46 08	 mov	 eax, DWORD PTR [esi+8]
  000ef	80 78 0d 00	 cmp	 BYTE PTR [eax+13], 0
  000f3	75 03		 jne	 SHORT $LN27@Insert_nod

; 485  :             _Pnode->_Right->_Parent = _Wherenode;

  000f5	89 48 04	 mov	 DWORD PTR [eax+4], ecx
$LN27@Insert_nod:

; 486  :         }
; 487  : 
; 488  :         _Pnode->_Parent = _Wherenode->_Parent;

  000f8	8b 41 04	 mov	 eax, DWORD PTR [ecx+4]
  000fb	89 46 04	 mov	 DWORD PTR [esi+4], eax

; 489  : 
; 490  :         if (_Wherenode == _Myhead->_Parent) {

  000fe	8b 45 fc	 mov	 eax, DWORD PTR _this$1$[ebp]
  00101	8b 00		 mov	 eax, DWORD PTR [eax]
  00103	3b 48 04	 cmp	 ecx, DWORD PTR [eax+4]
  00106	75 0b		 jne	 SHORT $LN28@Insert_nod

; 491  :             _Myhead->_Parent = _Pnode;

  00108	89 70 04	 mov	 DWORD PTR [eax+4], esi

; 496  :         }
; 497  : 
; 498  :         _Pnode->_Right      = _Wherenode;

  0010b	89 4e 08	 mov	 DWORD PTR [esi+8], ecx

; 688  :                 }
; 689  :             } else { // fixup red-red in right subtree

  0010e	e9 cc 00 00 00	 jmp	 $LN52@Insert_nod
$LN28@Insert_nod:

; 492  :         } else if (_Wherenode == _Wherenode->_Parent->_Right) {

  00113	8b 41 04	 mov	 eax, DWORD PTR [ecx+4]
  00116	3b 48 08	 cmp	 ecx, DWORD PTR [eax+8]
  00119	75 0b		 jne	 SHORT $LN30@Insert_nod

; 493  :             _Wherenode->_Parent->_Right = _Pnode;

  0011b	89 70 08	 mov	 DWORD PTR [eax+8], esi

; 496  :         }
; 497  : 
; 498  :         _Pnode->_Right      = _Wherenode;

  0011e	89 4e 08	 mov	 DWORD PTR [esi+8], ecx

; 688  :                 }
; 689  :             } else { // fixup red-red in right subtree

  00121	e9 b9 00 00 00	 jmp	 $LN52@Insert_nod
$LN30@Insert_nod:

; 495  :             _Wherenode->_Parent->_Left = _Pnode;

  00126	89 30		 mov	 DWORD PTR [eax], esi

; 496  :         }
; 497  : 
; 498  :         _Pnode->_Right      = _Wherenode;

  00128	89 4e 08	 mov	 DWORD PTR [esi+8], ecx

; 688  :                 }
; 689  :             } else { // fixup red-red in right subtree

  0012b	e9 af 00 00 00	 jmp	 $LN52@Insert_nod
$LN10@Insert_nod:

; 690  :                 const auto _Parent_sibling = _Pnode->_Parent->_Parent->_Left;
; 691  :                 if (_Parent_sibling->_Color == _Red) { // parent's sibling has two red children, blacken both

  00130	80 78 0c 00	 cmp	 BYTE PTR [eax+12], 0
  00134	75 1b		 jne	 SHORT $LN15@Insert_nod
$LN53@Insert_nod:

; 668  :             }
; 669  :         }
; 670  : 
; 671  :         for (_Nodeptr _Pnode = _Newnode; _Pnode->_Parent->_Color == _Red;) {

  00136	c6 41 0c 01	 mov	 BYTE PTR [ecx+12], 1
  0013a	c6 40 0c 01	 mov	 BYTE PTR [eax+12], 1
  0013e	8b 07		 mov	 eax, DWORD PTR [edi]
  00140	8b 40 04	 mov	 eax, DWORD PTR [eax+4]
  00143	c6 40 0c 00	 mov	 BYTE PTR [eax+12], 0
  00147	8b 07		 mov	 eax, DWORD PTR [edi]
  00149	8b 50 04	 mov	 edx, DWORD PTR [eax+4]
  0014c	e9 91 00 00 00	 jmp	 $LN46@Insert_nod
$LN15@Insert_nod:

; 692  :                     _Pnode->_Parent->_Color          = _Black;
; 693  :                     _Parent_sibling->_Color          = _Black;
; 694  :                     _Pnode->_Parent->_Parent->_Color = _Red;
; 695  :                     _Pnode                           = _Pnode->_Parent->_Parent;
; 696  :                 } else { // parent's sibling has red and black children
; 697  :                     if (_Pnode == _Pnode->_Parent->_Left) { // rotate left child to right

  00151	8b 01		 mov	 eax, DWORD PTR [ecx]
  00153	3b d0		 cmp	 edx, eax
  00155	75 3e		 jne	 SHORT $LN39@Insert_nod

; 698  :                         _Pnode = _Pnode->_Parent;

  00157	8b d1		 mov	 edx, ecx

; 481  :         _Nodeptr _Pnode   = _Wherenode->_Left;

  00159	8b c8		 mov	 ecx, eax

; 482  :         _Wherenode->_Left = _Pnode->_Right;

  0015b	8b 41 08	 mov	 eax, DWORD PTR [ecx+8]
  0015e	89 02		 mov	 DWORD PTR [edx], eax

; 483  : 
; 484  :         if (!_Pnode->_Right->_Isnil) {

  00160	8b 41 08	 mov	 eax, DWORD PTR [ecx+8]
  00163	80 78 0d 00	 cmp	 BYTE PTR [eax+13], 0
  00167	75 03		 jne	 SHORT $LN34@Insert_nod

; 485  :             _Pnode->_Right->_Parent = _Wherenode;

  00169	89 50 04	 mov	 DWORD PTR [eax+4], edx
$LN34@Insert_nod:

; 486  :         }
; 487  : 
; 488  :         _Pnode->_Parent = _Wherenode->_Parent;

  0016c	8b 03		 mov	 eax, DWORD PTR [ebx]
  0016e	89 41 04	 mov	 DWORD PTR [ecx+4], eax

; 489  : 
; 490  :         if (_Wherenode == _Myhead->_Parent) {

  00171	8b 45 fc	 mov	 eax, DWORD PTR _this$1$[ebp]
  00174	8b 00		 mov	 eax, DWORD PTR [eax]
  00176	3b 50 04	 cmp	 edx, DWORD PTR [eax+4]
  00179	75 05		 jne	 SHORT $LN35@Insert_nod

; 491  :             _Myhead->_Parent = _Pnode;

  0017b	89 48 04	 mov	 DWORD PTR [eax+4], ecx
  0017e	eb 0e		 jmp	 SHORT $LN38@Insert_nod
$LN35@Insert_nod:

; 492  :         } else if (_Wherenode == _Wherenode->_Parent->_Right) {

  00180	8b 03		 mov	 eax, DWORD PTR [ebx]
  00182	3b 50 08	 cmp	 edx, DWORD PTR [eax+8]
  00185	75 05		 jne	 SHORT $LN37@Insert_nod

; 493  :             _Wherenode->_Parent->_Right = _Pnode;

  00187	89 48 08	 mov	 DWORD PTR [eax+8], ecx

; 494  :         } else {

  0018a	eb 02		 jmp	 SHORT $LN38@Insert_nod
$LN37@Insert_nod:

; 495  :             _Wherenode->_Parent->_Left = _Pnode;

  0018c	89 08		 mov	 DWORD PTR [eax], ecx
$LN38@Insert_nod:

; 496  :         }
; 497  : 
; 498  :         _Pnode->_Right      = _Wherenode;

  0018e	89 51 08	 mov	 DWORD PTR [ecx+8], edx

; 499  :         _Wherenode->_Parent = _Pnode;

  00191	8b fb		 mov	 edi, ebx
  00193	89 0b		 mov	 DWORD PTR [ebx], ecx
$LN39@Insert_nod:

; 699  :                         _Rrotate(_Pnode);
; 700  :                     }
; 701  : 
; 702  :                     _Pnode->_Parent->_Color          = _Black; // propagate red up

  00195	c6 41 0c 01	 mov	 BYTE PTR [ecx+12], 1

; 703  :                     _Pnode->_Parent->_Parent->_Color = _Red;

  00199	8b 07		 mov	 eax, DWORD PTR [edi]
  0019b	8b 40 04	 mov	 eax, DWORD PTR [eax+4]
  0019e	c6 40 0c 00	 mov	 BYTE PTR [eax+12], 0

; 704  :                     _Lrotate(_Pnode->_Parent->_Parent);

  001a2	8b 07		 mov	 eax, DWORD PTR [edi]
  001a4	8b 48 04	 mov	 ecx, DWORD PTR [eax+4]

; 459  :         _Nodeptr _Pnode    = _Wherenode->_Right;

  001a7	8b 71 08	 mov	 esi, DWORD PTR [ecx+8]

; 460  :         _Wherenode->_Right = _Pnode->_Left;

  001aa	8b 06		 mov	 eax, DWORD PTR [esi]
  001ac	89 41 08	 mov	 DWORD PTR [ecx+8], eax

; 461  : 
; 462  :         if (!_Pnode->_Left->_Isnil) {

  001af	8b 06		 mov	 eax, DWORD PTR [esi]
  001b1	80 78 0d 00	 cmp	 BYTE PTR [eax+13], 0
  001b5	75 03		 jne	 SHORT $LN41@Insert_nod

; 463  :             _Pnode->_Left->_Parent = _Wherenode;

  001b7	89 48 04	 mov	 DWORD PTR [eax+4], ecx
$LN41@Insert_nod:

; 464  :         }
; 465  : 
; 466  :         _Pnode->_Parent = _Wherenode->_Parent;

  001ba	8b 41 04	 mov	 eax, DWORD PTR [ecx+4]
  001bd	89 46 04	 mov	 DWORD PTR [esi+4], eax

; 467  : 
; 468  :         if (_Wherenode == _Myhead->_Parent) {

  001c0	8b 45 fc	 mov	 eax, DWORD PTR _this$1$[ebp]
  001c3	8b 00		 mov	 eax, DWORD PTR [eax]
  001c5	3b 48 04	 cmp	 ecx, DWORD PTR [eax+4]
  001c8	75 05		 jne	 SHORT $LN42@Insert_nod

; 469  :             _Myhead->_Parent = _Pnode;

  001ca	89 70 04	 mov	 DWORD PTR [eax+4], esi
  001cd	eb 0e		 jmp	 SHORT $LN45@Insert_nod
$LN42@Insert_nod:

; 470  :         } else if (_Wherenode == _Wherenode->_Parent->_Left) {

  001cf	8b 41 04	 mov	 eax, DWORD PTR [ecx+4]
  001d2	3b 08		 cmp	 ecx, DWORD PTR [eax]
  001d4	75 04		 jne	 SHORT $LN44@Insert_nod

; 471  :             _Wherenode->_Parent->_Left = _Pnode;

  001d6	89 30		 mov	 DWORD PTR [eax], esi

; 472  :         } else {

  001d8	eb 03		 jmp	 SHORT $LN45@Insert_nod
$LN44@Insert_nod:

; 473  :             _Wherenode->_Parent->_Right = _Pnode;

  001da	89 70 08	 mov	 DWORD PTR [eax+8], esi
$LN45@Insert_nod:

; 474  :         }
; 475  : 
; 476  :         _Pnode->_Left       = _Wherenode;

  001dd	89 0e		 mov	 DWORD PTR [esi], ecx
$LN52@Insert_nod:

; 668  :             }
; 669  :         }
; 670  : 
; 671  :         for (_Nodeptr _Pnode = _Newnode; _Pnode->_Parent->_Color == _Red;) {

  001df	89 71 04	 mov	 DWORD PTR [ecx+4], esi
$LN46@Insert_nod:
  001e2	8b 42 04	 mov	 eax, DWORD PTR [edx+4]
  001e5	80 78 0c 00	 cmp	 BYTE PTR [eax+12], 0
  001e9	0f 84 71 fe ff
	ff		 je	 $LL2@Insert_nod
  001ef	8b 4d f8	 mov	 ecx, DWORD PTR __Head$1$[ebp]
  001f2	5f		 pop	 edi
  001f3	5e		 pop	 esi
  001f4	5b		 pop	 ebx
$LN3@Insert_nod:

; 705  :                 }
; 706  :             }
; 707  :         }
; 708  : 
; 709  :         _Head->_Parent->_Color = _Black; // root is always black

  001f5	8b 41 04	 mov	 eax, DWORD PTR [ecx+4]
  001f8	c6 40 0c 01	 mov	 BYTE PTR [eax+12], 1

; 710  :         return _Newnode;

  001fc	8b 45 10	 mov	 eax, DWORD PTR __Newnode$[ebp]

; 711  :     }

  001ff	8b e5		 mov	 esp, ebp
  00201	5d		 pop	 ebp
  00202	c2 0c 00	 ret	 12			; 0000000cH
?_Insert_node@?$_Tree_val@U?$_Tree_simple_types@U?$pair@$$CBKK@std@@@std@@@std@@QAEPAU?$_Tree_node@U?$pair@$$CBKK@std@@PAX@2@U?$_Tree_id@PAU?$_Tree_node@U?$pair@$$CBKK@std@@PAX@std@@@2@QAU32@@Z ENDP ; std::_Tree_val<std::_Tree_simple_types<std::pair<unsigned long const ,unsigned long> > >::_Insert_node
_TEXT	ENDS
; Function compile flags: /Ogtp
; File C:\Program Files (x86)\Microsoft Visual Studio\2019\Community\VC\Tools\MSVC\14.28.29333\include\xtree
; File C:\Program Files (x86)\Microsoft Visual Studio\2019\Community\VC\Tools\MSVC\14.28.29333\include\utility
; File C:\Program Files (x86)\Microsoft Visual Studio\2019\Community\VC\Tools\MSVC\14.28.29333\include\xmemory
; File C:\Program Files (x86)\Microsoft Visual Studio\2019\Community\VC\Tools\MSVC\14.28.29333\include\xtree
; File C:\Program Files (x86)\Microsoft Visual Studio\2019\Community\VC\Tools\MSVC\14.28.29333\include\xmemory
; File C:\Program Files (x86)\Microsoft Visual Studio\2019\Community\VC\Tools\MSVC\14.28.29333\include\xtree
;	COMDAT ??1?$_Tree@V?$_Tmap_traits@KKU?$less@K@std@@V?$allocator@U?$pair@$$CBKK@std@@@2@$0A@@std@@@std@@QAE@XZ
_TEXT	SEGMENT
??1?$_Tree@V?$_Tmap_traits@KKU?$less@K@std@@V?$allocator@U?$pair@$$CBKK@std@@@2@$0A@@std@@@std@@QAE@XZ PROC ; std::_Tree<std::_Tmap_traits<unsigned long,unsigned long,std::less<unsigned long>,std::allocator<std::pair<unsigned long const ,unsigned long> >,0> >::~_Tree<std::_Tmap_traits<unsigned long,unsigned long,std::less<unsigned long>,std::allocator<std::pair<unsigned long const ,unsigned long> >,0> >, COMDAT
; _this$ = ecx

; 1189 :     ~_Tree() noexcept {

  00000	56		 push	 esi
  00001	57		 push	 edi
  00002	8b f9		 mov	 edi, ecx

; 752  :         _Erase_tree(_Al, _Myhead->_Parent);

  00004	8b 07		 mov	 eax, DWORD PTR [edi]
  00006	8b 70 04	 mov	 esi, DWORD PTR [eax+4]

; 743  :         while (!_Rootnode->_Isnil) { // free subtrees, then node

  00009	80 7e 0d 00	 cmp	 BYTE PTR [esi+13], 0
  0000d	75 23		 jne	 SHORT $LN7@Tree
  0000f	90		 npad	 1
$LL6@Tree:

; 744  :             _Erase_tree(_Al, _Rootnode->_Right);

  00010	ff 76 08	 push	 DWORD PTR [esi+8]
  00013	8b cf		 mov	 ecx, edi
  00015	57		 push	 edi
  00016	e8 00 00 00 00	 call	 ??$_Erase_tree@V?$allocator@U?$_Tree_node@U?$pair@$$CBKK@std@@PAX@std@@@std@@@?$_Tree_val@U?$_Tree_simple_types@U?$pair@$$CBKK@std@@@std@@@std@@QAEXAAV?$allocator@U?$_Tree_node@U?$pair@$$CBKK@std@@PAX@std@@@1@PAU?$_Tree_node@U?$pair@$$CBKK@std@@PAX@1@@Z ; std::_Tree_val<std::_Tree_simple_types<std::pair<unsigned long const ,unsigned long> > >::_Erase_tree<std::allocator<std::_Tree_node<std::pair<unsigned long const ,unsigned long>,void *> > >
; File C:\Program Files (x86)\Microsoft Visual Studio\2019\Community\VC\Tools\MSVC\14.28.29333\include\utility

; 598  :     _Ty _Old_val = static_cast<_Ty&&>(_Val);

  0001b	8b c6		 mov	 eax, esi

; 599  :     _Val         = static_cast<_Other&&>(_New_val);

  0001d	8b 36		 mov	 esi, DWORD PTR [esi]
; File C:\Program Files (x86)\Microsoft Visual Studio\2019\Community\VC\Tools\MSVC\14.28.29333\include\xmemory

; 696  :         _Deallocate<_New_alignof<value_type>>(_Ptr, sizeof(value_type) * _Count);

  0001f	6a 18		 push	 24			; 00000018H
  00021	50		 push	 eax
  00022	e8 00 00 00 00	 call	 ??$_Deallocate@$07$0A@@std@@YAXPAXI@Z ; std::_Deallocate<8,0>
  00027	83 c4 08	 add	 esp, 8
; File C:\Program Files (x86)\Microsoft Visual Studio\2019\Community\VC\Tools\MSVC\14.28.29333\include\xtree

; 743  :         while (!_Rootnode->_Isnil) { // free subtrees, then node

  0002a	80 7e 0d 00	 cmp	 BYTE PTR [esi+13], 0
  0002e	74 e0		 je	 SHORT $LL6@Tree
  00030	8b 07		 mov	 eax, DWORD PTR [edi]
$LN7@Tree:
; File C:\Program Files (x86)\Microsoft Visual Studio\2019\Community\VC\Tools\MSVC\14.28.29333\include\xmemory

; 696  :         _Deallocate<_New_alignof<value_type>>(_Ptr, sizeof(value_type) * _Count);

  00032	6a 18		 push	 24			; 00000018H
  00034	50		 push	 eax
  00035	e8 00 00 00 00	 call	 ??$_Deallocate@$07$0A@@std@@YAXPAXI@Z ; std::_Deallocate<8,0>
  0003a	83 c4 08	 add	 esp, 8
  0003d	5f		 pop	 edi
  0003e	5e		 pop	 esi
; File C:\Program Files (x86)\Microsoft Visual Studio\2019\Community\VC\Tools\MSVC\14.28.29333\include\xtree

; 1196 :     }

  0003f	c3		 ret	 0
??1?$_Tree@V?$_Tmap_traits@KKU?$less@K@std@@V?$allocator@U?$pair@$$CBKK@std@@@2@$0A@@std@@@std@@QAE@XZ ENDP ; std::_Tree<std::_Tmap_traits<unsigned long,unsigned long,std::less<unsigned long>,std::allocator<std::pair<unsigned long const ,unsigned long> >,0> >::~_Tree<std::_Tmap_traits<unsigned long,unsigned long,std::less<unsigned long>,std::allocator<std::pair<unsigned long const ,unsigned long> >,0> >
_TEXT	ENDS
; Function compile flags: /Ogtp
; File C:\Program Files (x86)\Microsoft Visual Studio\2019\Community\VC\Tools\MSVC\14.28.29333\include\xmemory
;	COMDAT ??$_Allocate_manually_vector_aligned@U_Default_allocate_traits@std@@@std@@YAPAXI@Z
_TEXT	SEGMENT
__Bytes$ = 8						; size = 4
??$_Allocate_manually_vector_aligned@U_Default_allocate_traits@std@@@std@@YAPAXI@Z PROC ; std::_Allocate_manually_vector_aligned<std::_Default_allocate_traits>, COMDAT

; 113  : __declspec(allocator) void* _Allocate_manually_vector_aligned(const size_t _Bytes) {

  00000	55		 push	 ebp
  00001	8b ec		 mov	 ebp, esp

; 114  :     // allocate _Bytes manually aligned to at least _Big_allocation_alignment
; 115  :     const size_t _Block_size = _Non_user_size + _Bytes;

  00003	8b 45 08	 mov	 eax, DWORD PTR __Bytes$[ebp]
  00006	8d 48 23	 lea	 ecx, DWORD PTR [eax+35]

; 116  :     if (_Block_size <= _Bytes) {

  00009	3b c8		 cmp	 ecx, eax
  0000b	0f 86 00 00 00
	00		 jbe	 ?_Throw_bad_array_new_length@std@@YAXXZ ; std::_Throw_bad_array_new_length

; 77   :         return ::operator new(_Bytes);

  00011	51		 push	 ecx
  00012	e8 00 00 00 00	 call	 ??2@YAPAXI@Z		; operator new

; 117  :         _Throw_bad_array_new_length(); // add overflow
; 118  :     }
; 119  : 
; 120  :     const uintptr_t _Ptr_container = reinterpret_cast<uintptr_t>(_Traits::_Allocate(_Block_size));

  00017	8b c8		 mov	 ecx, eax

; 77   :         return ::operator new(_Bytes);

  00019	83 c4 04	 add	 esp, 4

; 121  :     _STL_VERIFY(_Ptr_container != 0, "invalid argument"); // validate even in release since we're doing p[-1]

  0001c	85 c9		 test	 ecx, ecx
  0001e	74 0b		 je	 SHORT $LN7@Allocate_m

; 122  :     void* const _Ptr = reinterpret_cast<void*>((_Ptr_container + _Non_user_size) & ~(_Big_allocation_alignment - 1));

  00020	8d 41 23	 lea	 eax, DWORD PTR [ecx+35]
  00023	83 e0 e0	 and	 eax, -32		; ffffffe0H

; 123  :     static_cast<uintptr_t*>(_Ptr)[-1] = _Ptr_container;

  00026	89 48 fc	 mov	 DWORD PTR [eax-4], ecx

; 124  : 
; 125  : #ifdef _DEBUG
; 126  :     static_cast<uintptr_t*>(_Ptr)[-2] = _Big_allocation_sentinel;
; 127  : #endif // _DEBUG
; 128  :     return _Ptr;
; 129  : }

  00029	5d		 pop	 ebp
  0002a	c3		 ret	 0
$LN7@Allocate_m:

; 121  :     _STL_VERIFY(_Ptr_container != 0, "invalid argument"); // validate even in release since we're doing p[-1]

  0002b	e9 00 00 00 00	 jmp	 __invalid_parameter_noinfo_noreturn
??$_Allocate_manually_vector_aligned@U_Default_allocate_traits@std@@@std@@YAPAXI@Z ENDP ; std::_Allocate_manually_vector_aligned<std::_Default_allocate_traits>
_TEXT	ENDS
; Function compile flags: /Ogtp
; File C:\Program Files (x86)\Microsoft Visual Studio\2019\Community\VC\Tools\MSVC\14.28.29333\include\xmemory
;	COMDAT ??$_Allocate@$07U_Default_allocate_traits@std@@$0A@@std@@YAPAXI@Z
_TEXT	SEGMENT
__Bytes$ = 8						; size = 4
??$_Allocate@$07U_Default_allocate_traits@std@@$0A@@std@@YAPAXI@Z PROC ; std::_Allocate<8,std::_Default_allocate_traits,0>, COMDAT

; 197  : __declspec(allocator) void* _Allocate(const size_t _Bytes) {

  00000	55		 push	 ebp
  00001	8b ec		 mov	 ebp, esp

; 198  :     // allocate _Bytes when !_HAS_ALIGNED_NEW || _Align <= __STDCPP_DEFAULT_NEW_ALIGNMENT__
; 199  : #if defined(_M_IX86) || defined(_M_X64)
; 200  :     if (_Bytes >= _Big_allocation_threshold) { // boost the alignment of big allocations to help autovectorization

  00003	8b 45 08	 mov	 eax, DWORD PTR __Bytes$[ebp]
  00006	3d 00 10 00 00	 cmp	 eax, 4096		; 00001000H
  0000b	72 09		 jb	 SHORT $LN2@Allocate

; 201  :         return _Allocate_manually_vector_aligned<_Traits>(_Bytes);

  0000d	89 45 08	 mov	 DWORD PTR __Bytes$[ebp], eax

; 210  : }

  00010	5d		 pop	 ebp

; 201  :         return _Allocate_manually_vector_aligned<_Traits>(_Bytes);

  00011	e9 00 00 00 00	 jmp	 ??$_Allocate_manually_vector_aligned@U_Default_allocate_traits@std@@@std@@YAPAXI@Z ; std::_Allocate_manually_vector_aligned<std::_Default_allocate_traits>
$LN2@Allocate:

; 202  :     }
; 203  : #endif // defined(_M_IX86) || defined(_M_X64)
; 204  : 
; 205  :     if (_Bytes != 0) {

  00016	85 c0		 test	 eax, eax
  00018	74 09		 je	 SHORT $LN3@Allocate

; 77   :         return ::operator new(_Bytes);

  0001a	89 45 08	 mov	 DWORD PTR __Bytes$[ebp], eax

; 210  : }

  0001d	5d		 pop	 ebp

; 77   :         return ::operator new(_Bytes);

  0001e	e9 00 00 00 00	 jmp	 ??2@YAPAXI@Z		; operator new
$LN3@Allocate:

; 206  :         return _Traits::_Allocate(_Bytes);
; 207  :     }
; 208  : 
; 209  :     return nullptr;

  00023	33 c0		 xor	 eax, eax

; 210  : }

  00025	5d		 pop	 ebp
  00026	c3		 ret	 0
??$_Allocate@$07U_Default_allocate_traits@std@@$0A@@std@@YAPAXI@Z ENDP ; std::_Allocate<8,std::_Default_allocate_traits,0>
_TEXT	ENDS
; Function compile flags: /Ogtp
; File C:\Program Files (x86)\Microsoft Visual Studio\2019\Community\VC\Tools\MSVC\14.28.29333\include\xmemory
;	COMDAT ??$_Deallocate@$07$0A@@std@@YAXPAXI@Z
_TEXT	SEGMENT
__Ptr$ = 8						; size = 4
__Bytes$ = 12						; size = 4
??$_Deallocate@$07$0A@@std@@YAXPAXI@Z PROC		; std::_Deallocate<8,0>, COMDAT

; 213  : void _Deallocate(void* _Ptr, size_t _Bytes) noexcept {

  00000	55		 push	 ebp
  00001	8b ec		 mov	 ebp, esp

; 214  :     // deallocate storage allocated by _Allocate when !_HAS_ALIGNED_NEW || _Align <= __STDCPP_DEFAULT_NEW_ALIGNMENT__
; 215  : #if defined(_M_IX86) || defined(_M_X64)
; 216  :     if (_Bytes >= _Big_allocation_threshold) { // boost the alignment of big allocations to help autovectorization

  00003	8b 4d 0c	 mov	 ecx, DWORD PTR __Bytes$[ebp]
  00006	81 f9 00 10 00
	00		 cmp	 ecx, 4096		; 00001000H
  0000c	72 18		 jb	 SHORT $LN15@Deallocate

; 137  :     const uintptr_t _Ptr_container   = _Ptr_user[-1];

  0000e	8b 45 08	 mov	 eax, DWORD PTR __Ptr$[ebp]
  00011	83 c1 23	 add	 ecx, 35			; 00000023H
  00014	8b 50 fc	 mov	 edx, DWORD PTR [eax-4]

; 138  : 
; 139  :     // If the following asserts, it likely means that we are performing
; 140  :     // an aligned delete on memory coming from an unaligned allocation.
; 141  :     _STL_ASSERT(_Ptr_user[-2] == _Big_allocation_sentinel, "invalid argument");
; 142  : 
; 143  :     // Extra paranoia on aligned allocation/deallocation; ensure _Ptr_container is
; 144  :     // in range [_Min_back_shift, _Non_user_size]
; 145  : #ifdef _DEBUG
; 146  :     constexpr uintptr_t _Min_back_shift = 2 * sizeof(void*);
; 147  : #else // ^^^ _DEBUG ^^^ // vvv !_DEBUG vvv
; 148  :     constexpr uintptr_t _Min_back_shift = sizeof(void*);
; 149  : #endif // _DEBUG
; 150  :     const uintptr_t _Back_shift = reinterpret_cast<uintptr_t>(_Ptr) - _Ptr_container;

  00017	2b c2		 sub	 eax, edx

; 151  :     _STL_VERIFY(_Back_shift >= _Min_back_shift && _Back_shift <= _Non_user_size, "invalid argument");

  00019	83 c0 fc	 add	 eax, -4			; fffffffcH
  0001c	83 f8 1f	 cmp	 eax, 31			; 0000001fH
  0001f	76 08		 jbe	 SHORT $LN13@Deallocate
  00021	e9 00 00 00 00	 jmp	 __invalid_parameter_noinfo_noreturn
$LN15@Deallocate:

; 214  :     // deallocate storage allocated by _Allocate when !_HAS_ALIGNED_NEW || _Align <= __STDCPP_DEFAULT_NEW_ALIGNMENT__
; 215  : #if defined(_M_IX86) || defined(_M_X64)
; 216  :     if (_Bytes >= _Big_allocation_threshold) { // boost the alignment of big allocations to help autovectorization

  00026	8b 55 08	 mov	 edx, DWORD PTR __Ptr$[ebp]
$LN13@Deallocate:

; 217  :         _Adjust_manually_vector_aligned(_Ptr, _Bytes);
; 218  :     }
; 219  : #endif // defined(_M_IX86) || defined(_M_X64)
; 220  : 
; 221  :     ::operator delete(_Ptr, _Bytes);

  00029	89 4d 0c	 mov	 DWORD PTR __Bytes$[ebp], ecx
  0002c	89 55 08	 mov	 DWORD PTR __Ptr$[ebp], edx

; 222  : }

  0002f	5d		 pop	 ebp

; 217  :         _Adjust_manually_vector_aligned(_Ptr, _Bytes);
; 218  :     }
; 219  : #endif // defined(_M_IX86) || defined(_M_X64)
; 220  : 
; 221  :     ::operator delete(_Ptr, _Bytes);

  00030	e9 00 00 00 00	 jmp	 ??3@YAXPAXI@Z		; operator delete
??$_Deallocate@$07$0A@@std@@YAXPAXI@Z ENDP		; std::_Deallocate<8,0>
_TEXT	ENDS
; Function compile flags: /Ogtp
; File C:\Program Files (x86)\Microsoft Visual Studio\2019\Community\VC\Tools\MSVC\14.28.29333\include\xmemory
;	COMDAT ??$_Pocma@V?$allocator@D@std@@@std@@YAXAAV?$allocator@D@0@0@Z
_TEXT	SEGMENT
__Left$ = 8						; size = 4
__Right$ = 12						; size = 4
??$_Pocma@V?$allocator@D@std@@@std@@YAXAAV?$allocator@D@0@0@Z PROC ; std::_Pocma<std::allocator<char> >, COMDAT

; 909  :     if constexpr (allocator_traits<_Alloc>::propagate_on_container_move_assignment::value) {
; 910  :         _Left = _STD move(_Right);
; 911  :     }
; 912  : }

  00000	c2 00 00	 ret	 0
??$_Pocma@V?$allocator@D@std@@@std@@YAXAAV?$allocator@D@0@0@Z ENDP ; std::_Pocma<std::allocator<char> >
_TEXT	ENDS
; Function compile flags: /Ogtp
; File C:\Program Files (x86)\Microsoft Visual Studio\2019\Community\VC\Tools\MSVC\14.28.29333\include\xmemory
;	COMDAT ??$_Construct_in_place@PADABQAD@std@@YAXAAPADABQAD@Z
_TEXT	SEGMENT
__Obj$ = 8						; size = 4
_<_Args_0>$ = 12					; size = 4
??$_Construct_in_place@PADABQAD@std@@YAXAAPADABQAD@Z PROC ; std::_Construct_in_place<char *,char * const &>, COMDAT

; 228  : void _Construct_in_place(_Ty& _Obj, _Types&&... _Args) noexcept(is_nothrow_constructible_v<_Ty, _Types...>) {

  00000	55		 push	 ebp
  00001	8b ec		 mov	 ebp, esp

; 229  :     ::new (const_cast<void*>(static_cast<const volatile void*>(_STD addressof(_Obj))))

  00003	8b 45 0c	 mov	 eax, DWORD PTR _<_Args_0>$[ebp]
  00006	8b 08		 mov	 ecx, DWORD PTR [eax]
  00008	8b 45 08	 mov	 eax, DWORD PTR __Obj$[ebp]
  0000b	89 08		 mov	 DWORD PTR [eax], ecx

; 230  :         _Ty(_STD forward<_Types>(_Args)...);
; 231  : }

  0000d	5d		 pop	 ebp
  0000e	c3		 ret	 0
??$_Construct_in_place@PADABQAD@std@@YAXAAPADABQAD@Z ENDP ; std::_Construct_in_place<char *,char * const &>
_TEXT	ENDS
; Function compile flags: /Ogtp
; File C:\Program Files (x86)\Microsoft Visual Studio\2019\Community\VC\Tools\MSVC\14.28.29333\include\xmemory
;	COMDAT ??$_Destroy_in_place@PAD@std@@YAXAAPAD@Z
_TEXT	SEGMENT
__Obj$ = 8						; size = 4
??$_Destroy_in_place@PAD@std@@YAXAAPAD@Z PROC		; std::_Destroy_in_place<char *>, COMDAT

; 271  : #if _HAS_IF_CONSTEXPR
; 272  :     if constexpr (is_array_v<_Ty>) {
; 273  :         _Destroy_range(_Obj, _Obj + extent_v<_Ty>);
; 274  :     } else
; 275  : #endif // _HAS_IF_CONSTEXPR
; 276  :     {
; 277  :         _Obj.~_Ty();
; 278  :     }
; 279  : }

  00000	c2 00 00	 ret	 0
??$_Destroy_in_place@PAD@std@@YAXAAPAD@Z ENDP		; std::_Destroy_in_place<char *>
_TEXT	ENDS
; Function compile flags: /Ogtp
; File D:\Metin2 Server Files\mainline\SRC_2014\Metin2Client\UserInterface\PythonGuild.cpp
;	COMDAT ?initguild@@YAXXZ
_TEXT	SEGMENT
?initguild@@YAXXZ PROC					; initguild, COMDAT

; 736  : {

  00000	56		 push	 esi
  00001	57		 push	 edi

; 737  : 	static PyMethodDef s_methods[] =
; 738  : 	{
; 739  : 		// Enable
; 740  : 		{ "IsGuildEnable",					guildIsGuildEnable,					METH_VARARGS },
; 741  : 		{ "GuildIDToMarkID",				guildGuildIDToMarkID,				METH_VARARGS },
; 742  : 		{ "GetMarkImageFilenameByMarkID",	guildGetMarkImageFilenameByMarkID,	METH_VARARGS },
; 743  : 		{ "GetMarkIndexByMarkID",			guildGetMarkIndexByMarkID,			METH_VARARGS },
; 744  : 		
; 745  : 		// GuildInfo
; 746  : 		{ "GetGuildID",						guildGetGuildID,					METH_VARARGS },
; 747  : 		{ "HasGuildLand",					guildHasGuildLand,					METH_VARARGS },
; 748  : 		{ "GetGuildName",					guildGetGuildName,					METH_VARARGS },
; 749  : 		{ "GetGuildMasterName",				guildGetGuildMasterName,			METH_VARARGS },
; 750  : 		{ "GetEnemyGuildName",				guildGetEnemyGuildName,				METH_VARARGS },
; 751  : 		{ "GetGuildMoney",					guildGetGuildMoney,					METH_VARARGS },
; 752  : 
; 753  : 		// BoardPage
; 754  : 		{ "GetGuildBoardCommentCount",		guildGetGuildBoardCommentCount,		METH_VARARGS },
; 755  : 		{ "GetGuildBoardCommentData",		guildGetGuildBoardCommentData,		METH_VARARGS },
; 756  : 
; 757  : 		// MemberPage
; 758  : 		{ "GetGuildLevel",					guildGetGuildLevel,					METH_VARARGS },
; 759  : 		{ "GetGuildExperience",				guildGetGuildExperience,			METH_VARARGS },
; 760  : 		{ "GetGuildMemberCount",			guildGetGuildMemberCount,			METH_VARARGS },
; 761  : 		{ "GetGuildMemberLevelSummary",		guildGetGuildMemberLevelSummary,	METH_VARARGS },
; 762  : 		{ "GetGuildMemberLevelAverage",		guildGetGuildMemberLevelAverage,	METH_VARARGS },
; 763  : 		{ "GetGuildExperienceSummary",		guildGetGuildExperienceSummary,		METH_VARARGS },
; 764  : 
; 765  : 		// SkillPage
; 766  : 		{ "GetGuildSkillPoint",				guildGetGuildSkillPoint,			METH_VARARGS },
; 767  : 		{ "GetDragonPowerPoint",			guildGetDragonPowerPoint,			METH_VARARGS },
; 768  : 		{ "GetGuildSkillLevel",				guildGetGuildSkillLevel,			METH_VARARGS },
; 769  : 		{ "GetSkillLevel",					guildGetSkillLevel,					METH_VARARGS },
; 770  : 		{ "GetSkillMaxLevelNew",			guildGetSkillMaxLevelNew,			METH_VARARGS },
; 771  : 
; 772  : 		{ "SetSkillIndex",					guildSetSkillIndex,					METH_VARARGS },
; 773  : 		{ "GetSkillIndex",					guildGetSkillIndex,					METH_VARARGS },
; 774  : 
; 775  : 		// GradePage
; 776  : 		{ "GetGradeData",					guildGetGradeData,					METH_VARARGS },
; 777  : 		{ "GetGradeName",					guildGetGradeName,					METH_VARARGS },
; 778  : 
; 779  : 		// About Member
; 780  : 		{ "GetMemberCount",					guildGetMemberCount,				METH_VARARGS },
; 781  : 		{ "GetMemberData",					guildGetMemberData,					METH_VARARGS },
; 782  : 		{ "MemberIndexToPID",				guildMemberIndexToPID,				METH_VARARGS },
; 783  : 		{ "IsMember",						guildIsMember,						METH_VARARGS },
; 784  : 		{ "IsMemberByName",					guildIsMemberByName,				METH_VARARGS },
; 785  : 		{ "MainPlayerHasAuthority",			guildMainPlayerHasAuthority,		METH_VARARGS },
; 786  : 
; 787  : 		// Guild
; 788  : 		{ "Destroy",						guildDestroy,						METH_VARARGS },
; 789  : 
; 790  : 		{ NULL,								NULL,								NULL },
; 791  : 	};
; 792  : 
; 793  : 	PyObject * poModule = Py_InitModule("guild", s_methods);

  00002	68 f5 03 00 00	 push	 1013			; 000003f5H
  00007	6a 00		 push	 0
  00009	6a 00		 push	 0
  0000b	68 00 00 00 00	 push	 OFFSET ?s_methods@?1??initguild@@YAXXZ@4PAUPyMethodDef@@A
  00010	68 00 00 00 00	 push	 OFFSET ??_C@_05GMIMCKGP@guild@
  00015	ff 15 00 00 00
	00		 call	 DWORD PTR __imp__Py_InitModule4

; 794  : 	PyModule_AddIntConstant(poModule, "AUTH_ADD_MEMBER", GUILD_AUTH_ADD_MEMBER);

  0001b	8b 35 00 00 00
	00		 mov	 esi, DWORD PTR __imp__PyModule_AddIntConstant
  00021	8b f8		 mov	 edi, eax
  00023	6a 01		 push	 1
  00025	68 00 00 00 00	 push	 OFFSET ??_C@_0BA@CDIOGLAE@AUTH_ADD_MEMBER@
  0002a	57		 push	 edi
  0002b	ff d6		 call	 esi

; 795  : 	PyModule_AddIntConstant(poModule, "AUTH_REMOVE_MEMBER", GUILD_AUTH_REMOVE_MEMBER);

  0002d	6a 02		 push	 2
  0002f	68 00 00 00 00	 push	 OFFSET ??_C@_0BD@EFPDFGGE@AUTH_REMOVE_MEMBER@
  00034	57		 push	 edi
  00035	ff d6		 call	 esi

; 796  : 	PyModule_AddIntConstant(poModule, "AUTH_NOTICE", GUILD_AUTH_NOTICE);

  00037	6a 04		 push	 4
  00039	68 00 00 00 00	 push	 OFFSET ??_C@_0M@EBNBJFNG@AUTH_NOTICE@
  0003e	57		 push	 edi
  0003f	ff d6		 call	 esi

; 797  : 	PyModule_AddIntConstant(poModule, "AUTH_SKILL", GUILD_AUTH_SKILL);

  00041	6a 08		 push	 8
  00043	68 00 00 00 00	 push	 OFFSET ??_C@_0L@LKLBOFFH@AUTH_SKILL@
  00048	57		 push	 edi
  00049	ff d6		 call	 esi
  0004b	83 c4 44	 add	 esp, 68			; 00000044H

; 798  : 	PyModule_AddIntConstant(poModule, "ENEMY_GUILD_SLOT_MAX_COUNT", CPythonGuild::ENEMY_GUILD_SLOT_MAX_COUNT);

  0004e	6a 06		 push	 6
  00050	68 00 00 00 00	 push	 OFFSET ??_C@_0BL@EBPMCBIK@ENEMY_GUILD_SLOT_MAX_COUNT@
  00055	57		 push	 edi
  00056	ff d6		 call	 esi
  00058	83 c4 0c	 add	 esp, 12			; 0000000cH
  0005b	5f		 pop	 edi
  0005c	5e		 pop	 esi

; 799  : }

  0005d	c3		 ret	 0
?initguild@@YAXXZ ENDP					; initguild
_TEXT	ENDS
; Function compile flags: /Ogtp
; File C:\Program Files (x86)\Microsoft Visual Studio\2019\Community\VC\Tools\MSVC\14.28.29333\include\xtree
;	COMDAT ?_Insert_node@?$_Tree_val@U?$_Tree_simple_types@U?$pair@$$CBKV?$basic_string@DU?$char_traits@D@std@@V?$allocator@D@2@@std@@@std@@@std@@@std@@QAEPAU?$_Tree_node@U?$pair@$$CBKV?$basic_string@DU?$char_traits@D@std@@V?$allocator@D@2@@std@@@std@@PAX@2@U?$_Tree_id@PAU?$_Tree_node@U?$pair@$$CBKV?$basic_string@DU?$char_traits@D@std@@V?$allocator@D@2@@std@@@std@@PAX@std@@@2@QAU32@@Z
_TEXT	SEGMENT
__Head$1$ = -8						; size = 4
_this$1$ = -4						; size = 4
__Loc$ = 8						; size = 8
__Newnode$ = 16						; size = 4
?_Insert_node@?$_Tree_val@U?$_Tree_simple_types@U?$pair@$$CBKV?$basic_string@DU?$char_traits@D@std@@V?$allocator@D@2@@std@@@std@@@std@@@std@@QAEPAU?$_Tree_node@U?$pair@$$CBKV?$basic_string@DU?$char_traits@D@std@@V?$allocator@D@2@@std@@@std@@PAX@2@U?$_Tree_id@PAU?$_Tree_node@U?$pair@$$CBKV?$basic_string@DU?$char_traits@D@std@@V?$allocator@D@2@@std@@@std@@PAX@std@@@2@QAU32@@Z PROC ; std::_Tree_val<std::_Tree_simple_types<std::pair<unsigned long const ,std::basic_string<char,std::char_traits<char>,std::allocator<char> > > > >::_Insert_node, COMDAT
; _this$ = ecx

; 644  :     _Nodeptr _Insert_node(const _Tree_id<_Nodeptr> _Loc, const _Nodeptr _Newnode) noexcept {

  00000	55		 push	 ebp
  00001	8b ec		 mov	 ebp, esp
  00003	83 ec 08	 sub	 esp, 8

; 645  :         ++_Mysize;
; 646  :         const auto _Head  = _Myhead;
; 647  :         _Newnode->_Parent = _Loc._Parent;

  00006	8b 55 08	 mov	 edx, DWORD PTR __Loc$[ebp]
  00009	8b c1		 mov	 eax, ecx
  0000b	89 45 fc	 mov	 DWORD PTR _this$1$[ebp], eax
  0000e	8b 08		 mov	 ecx, DWORD PTR [eax]
  00010	ff 40 04	 inc	 DWORD PTR [eax+4]
  00013	8b 45 10	 mov	 eax, DWORD PTR __Newnode$[ebp]
  00016	89 4d f8	 mov	 DWORD PTR __Head$1$[ebp], ecx
  00019	89 50 04	 mov	 DWORD PTR [eax+4], edx

; 648  :         if (_Loc._Parent == _Head) { // first node in tree, just set head values

  0001c	3b d1		 cmp	 edx, ecx
  0001e	75 12		 jne	 SHORT $LN5@Insert_nod

; 649  :             _Head->_Left     = _Newnode;

  00020	89 01		 mov	 DWORD PTR [ecx], eax

; 650  :             _Head->_Parent   = _Newnode;

  00022	89 41 04	 mov	 DWORD PTR [ecx+4], eax

; 651  :             _Head->_Right    = _Newnode;

  00025	89 41 08	 mov	 DWORD PTR [ecx+8], eax

; 652  :             _Newnode->_Color = _Black; // the root is black

  00028	c6 40 0c 01	 mov	 BYTE PTR [eax+12], 1

; 711  :     }

  0002c	8b e5		 mov	 esp, ebp
  0002e	5d		 pop	 ebp
  0002f	c2 0c 00	 ret	 12			; 0000000cH
$LN5@Insert_nod:

; 653  :             return _Newnode;
; 654  :         }
; 655  : 
; 656  :         _STL_INTERNAL_CHECK(_Loc._Child != _Tree_child::_Unused);
; 657  :         if (_Loc._Child == _Tree_child::_Right) { // add to right of _Loc._Parent

  00032	83 7d 0c 00	 cmp	 DWORD PTR __Loc$[ebp+4], 0
  00036	75 0d		 jne	 SHORT $LN6@Insert_nod

; 658  :             _STL_INTERNAL_CHECK(_Loc._Parent->_Right->_Isnil);
; 659  :             _Loc._Parent->_Right = _Newnode;

  00038	89 42 08	 mov	 DWORD PTR [edx+8], eax

; 660  :             if (_Loc._Parent == _Head->_Right) { // remember rightmost node

  0003b	3b 51 08	 cmp	 edx, DWORD PTR [ecx+8]
  0003e	75 0d		 jne	 SHORT $LN9@Insert_nod

; 661  :                 _Head->_Right = _Newnode;

  00040	89 41 08	 mov	 DWORD PTR [ecx+8], eax

; 662  :             }
; 663  :         } else { // add to left of _Loc._Parent

  00043	eb 08		 jmp	 SHORT $LN9@Insert_nod
$LN6@Insert_nod:

; 664  :             _STL_INTERNAL_CHECK(_Loc._Parent->_Left->_Isnil);
; 665  :             _Loc._Parent->_Left = _Newnode;

  00045	89 02		 mov	 DWORD PTR [edx], eax

; 666  :             if (_Loc._Parent == _Head->_Left) { // remember leftmost node

  00047	3b 11		 cmp	 edx, DWORD PTR [ecx]
  00049	75 02		 jne	 SHORT $LN9@Insert_nod

; 667  :                 _Head->_Left = _Newnode;

  0004b	89 01		 mov	 DWORD PTR [ecx], eax
$LN9@Insert_nod:

; 668  :             }
; 669  :         }
; 670  : 
; 671  :         for (_Nodeptr _Pnode = _Newnode; _Pnode->_Parent->_Color == _Red;) {

  0004d	8b d0		 mov	 edx, eax
  0004f	8b 40 04	 mov	 eax, DWORD PTR [eax+4]
  00052	80 78 0c 00	 cmp	 BYTE PTR [eax+12], 0
  00056	0f 85 99 01 00
	00		 jne	 $LN3@Insert_nod
  0005c	53		 push	 ebx
  0005d	56		 push	 esi
  0005e	57		 push	 edi
  0005f	90		 npad	 1
$LL2@Insert_nod:

; 672  :             if (_Pnode->_Parent == _Pnode->_Parent->_Parent->_Left) { // fixup red-red in left subtree

  00060	8b 4a 04	 mov	 ecx, DWORD PTR [edx+4]
  00063	8d 7a 04	 lea	 edi, DWORD PTR [edx+4]
  00066	8b 71 04	 mov	 esi, DWORD PTR [ecx+4]
  00069	8d 59 04	 lea	 ebx, DWORD PTR [ecx+4]
  0006c	8b 06		 mov	 eax, DWORD PTR [esi]
  0006e	3b c8		 cmp	 ecx, eax
  00070	0f 85 ba 00 00
	00		 jne	 $LN10@Insert_nod

; 673  :                 const auto _Parent_sibling = _Pnode->_Parent->_Parent->_Right;

  00076	8b 46 08	 mov	 eax, DWORD PTR [esi+8]

; 674  :                 if (_Parent_sibling->_Color == _Red) { // parent's sibling has two red children, blacken both

  00079	80 78 0c 00	 cmp	 BYTE PTR [eax+12], 0
  0007d	0f 84 b3 00 00
	00		 je	 $LN53@Insert_nod

; 675  :                     _Pnode->_Parent->_Color          = _Black;
; 676  :                     _Parent_sibling->_Color          = _Black;
; 677  :                     _Pnode->_Parent->_Parent->_Color = _Red;
; 678  :                     _Pnode                           = _Pnode->_Parent->_Parent;
; 679  :                 } else { // parent's sibling has red and black children
; 680  :                     if (_Pnode == _Pnode->_Parent->_Right) { // rotate right child to left

  00083	8b 71 08	 mov	 esi, DWORD PTR [ecx+8]
  00086	3b d6		 cmp	 edx, esi
  00088	75 47		 jne	 SHORT $LN51@Insert_nod

; 460  :         _Wherenode->_Right = _Pnode->_Left;

  0008a	8b 06		 mov	 eax, DWORD PTR [esi]

; 681  :                         _Pnode = _Pnode->_Parent;

  0008c	8b d1		 mov	 edx, ecx

; 460  :         _Wherenode->_Right = _Pnode->_Left;

  0008e	89 42 08	 mov	 DWORD PTR [edx+8], eax

; 461  : 
; 462  :         if (!_Pnode->_Left->_Isnil) {

  00091	8b 06		 mov	 eax, DWORD PTR [esi]
  00093	80 78 0d 00	 cmp	 BYTE PTR [eax+13], 0
  00097	75 03		 jne	 SHORT $LN20@Insert_nod

; 463  :             _Pnode->_Left->_Parent = _Wherenode;

  00099	89 50 04	 mov	 DWORD PTR [eax+4], edx
$LN20@Insert_nod:

; 464  :         }
; 465  : 
; 466  :         _Pnode->_Parent = _Wherenode->_Parent;

  0009c	8b 03		 mov	 eax, DWORD PTR [ebx]
  0009e	89 46 04	 mov	 DWORD PTR [esi+4], eax

; 467  : 
; 468  :         if (_Wherenode == _Myhead->_Parent) {

  000a1	8b 45 fc	 mov	 eax, DWORD PTR _this$1$[ebp]
  000a4	8b 00		 mov	 eax, DWORD PTR [eax]
  000a6	3b 50 04	 cmp	 edx, DWORD PTR [eax+4]
  000a9	75 0b		 jne	 SHORT $LN21@Insert_nod

; 469  :             _Myhead->_Parent = _Pnode;

  000ab	89 70 04	 mov	 DWORD PTR [eax+4], esi

; 477  :         _Wherenode->_Parent = _Pnode;

  000ae	8b fb		 mov	 edi, ebx
  000b0	89 16		 mov	 DWORD PTR [esi], edx
  000b2	89 33		 mov	 DWORD PTR [ebx], esi
  000b4	eb 1d		 jmp	 SHORT $LN49@Insert_nod
$LN21@Insert_nod:

; 470  :         } else if (_Wherenode == _Wherenode->_Parent->_Left) {

  000b6	8b 03		 mov	 eax, DWORD PTR [ebx]
  000b8	3b 10		 cmp	 edx, DWORD PTR [eax]
  000ba	75 0a		 jne	 SHORT $LN23@Insert_nod

; 471  :             _Wherenode->_Parent->_Left = _Pnode;

  000bc	89 30		 mov	 DWORD PTR [eax], esi

; 477  :         _Wherenode->_Parent = _Pnode;

  000be	8b fb		 mov	 edi, ebx
  000c0	89 16		 mov	 DWORD PTR [esi], edx
  000c2	89 33		 mov	 DWORD PTR [ebx], esi
  000c4	eb 0d		 jmp	 SHORT $LN49@Insert_nod
$LN23@Insert_nod:

; 473  :             _Wherenode->_Parent->_Right = _Pnode;

  000c6	89 70 08	 mov	 DWORD PTR [eax+8], esi

; 477  :         _Wherenode->_Parent = _Pnode;

  000c9	8b fb		 mov	 edi, ebx
  000cb	89 16		 mov	 DWORD PTR [esi], edx
  000cd	89 33		 mov	 DWORD PTR [ebx], esi
  000cf	eb 02		 jmp	 SHORT $LN49@Insert_nod
$LN51@Insert_nod:
  000d1	8b f1		 mov	 esi, ecx
$LN49@Insert_nod:

; 682  :                         _Lrotate(_Pnode);
; 683  :                     }
; 684  : 
; 685  :                     _Pnode->_Parent->_Color          = _Black; // propagate red up

  000d3	c6 46 0c 01	 mov	 BYTE PTR [esi+12], 1

; 686  :                     _Pnode->_Parent->_Parent->_Color = _Red;

  000d7	8b 07		 mov	 eax, DWORD PTR [edi]
  000d9	8b 40 04	 mov	 eax, DWORD PTR [eax+4]
  000dc	c6 40 0c 00	 mov	 BYTE PTR [eax+12], 0

; 687  :                     _Rrotate(_Pnode->_Parent->_Parent);

  000e0	8b 07		 mov	 eax, DWORD PTR [edi]
  000e2	8b 48 04	 mov	 ecx, DWORD PTR [eax+4]

; 481  :         _Nodeptr _Pnode   = _Wherenode->_Left;

  000e5	8b 31		 mov	 esi, DWORD PTR [ecx]

; 482  :         _Wherenode->_Left = _Pnode->_Right;

  000e7	8b 46 08	 mov	 eax, DWORD PTR [esi+8]
  000ea	89 01		 mov	 DWORD PTR [ecx], eax

; 483  : 
; 484  :         if (!_Pnode->_Right->_Isnil) {

  000ec	8b 46 08	 mov	 eax, DWORD PTR [esi+8]
  000ef	80 78 0d 00	 cmp	 BYTE PTR [eax+13], 0
  000f3	75 03		 jne	 SHORT $LN27@Insert_nod

; 485  :             _Pnode->_Right->_Parent = _Wherenode;

  000f5	89 48 04	 mov	 DWORD PTR [eax+4], ecx
$LN27@Insert_nod:

; 486  :         }
; 487  : 
; 488  :         _Pnode->_Parent = _Wherenode->_Parent;

  000f8	8b 41 04	 mov	 eax, DWORD PTR [ecx+4]
  000fb	89 46 04	 mov	 DWORD PTR [esi+4], eax

; 489  : 
; 490  :         if (_Wherenode == _Myhead->_Parent) {

  000fe	8b 45 fc	 mov	 eax, DWORD PTR _this$1$[ebp]
  00101	8b 00		 mov	 eax, DWORD PTR [eax]
  00103	3b 48 04	 cmp	 ecx, DWORD PTR [eax+4]
  00106	75 0b		 jne	 SHORT $LN28@Insert_nod

; 491  :             _Myhead->_Parent = _Pnode;

  00108	89 70 04	 mov	 DWORD PTR [eax+4], esi

; 496  :         }
; 497  : 
; 498  :         _Pnode->_Right      = _Wherenode;

  0010b	89 4e 08	 mov	 DWORD PTR [esi+8], ecx

; 688  :                 }
; 689  :             } else { // fixup red-red in right subtree

  0010e	e9 cc 00 00 00	 jmp	 $LN52@Insert_nod
$LN28@Insert_nod:

; 492  :         } else if (_Wherenode == _Wherenode->_Parent->_Right) {

  00113	8b 41 04	 mov	 eax, DWORD PTR [ecx+4]
  00116	3b 48 08	 cmp	 ecx, DWORD PTR [eax+8]
  00119	75 0b		 jne	 SHORT $LN30@Insert_nod

; 493  :             _Wherenode->_Parent->_Right = _Pnode;

  0011b	89 70 08	 mov	 DWORD PTR [eax+8], esi

; 496  :         }
; 497  : 
; 498  :         _Pnode->_Right      = _Wherenode;

  0011e	89 4e 08	 mov	 DWORD PTR [esi+8], ecx

; 688  :                 }
; 689  :             } else { // fixup red-red in right subtree

  00121	e9 b9 00 00 00	 jmp	 $LN52@Insert_nod
$LN30@Insert_nod:

; 495  :             _Wherenode->_Parent->_Left = _Pnode;

  00126	89 30		 mov	 DWORD PTR [eax], esi

; 496  :         }
; 497  : 
; 498  :         _Pnode->_Right      = _Wherenode;

  00128	89 4e 08	 mov	 DWORD PTR [esi+8], ecx

; 688  :                 }
; 689  :             } else { // fixup red-red in right subtree

  0012b	e9 af 00 00 00	 jmp	 $LN52@Insert_nod
$LN10@Insert_nod:

; 690  :                 const auto _Parent_sibling = _Pnode->_Parent->_Parent->_Left;
; 691  :                 if (_Parent_sibling->_Color == _Red) { // parent's sibling has two red children, blacken both

  00130	80 78 0c 00	 cmp	 BYTE PTR [eax+12], 0
  00134	75 1b		 jne	 SHORT $LN15@Insert_nod
$LN53@Insert_nod:

; 668  :             }
; 669  :         }
; 670  : 
; 671  :         for (_Nodeptr _Pnode = _Newnode; _Pnode->_Parent->_Color == _Red;) {

  00136	c6 41 0c 01	 mov	 BYTE PTR [ecx+12], 1
  0013a	c6 40 0c 01	 mov	 BYTE PTR [eax+12], 1
  0013e	8b 07		 mov	 eax, DWORD PTR [edi]
  00140	8b 40 04	 mov	 eax, DWORD PTR [eax+4]
  00143	c6 40 0c 00	 mov	 BYTE PTR [eax+12], 0
  00147	8b 07		 mov	 eax, DWORD PTR [edi]
  00149	8b 50 04	 mov	 edx, DWORD PTR [eax+4]
  0014c	e9 91 00 00 00	 jmp	 $LN46@Insert_nod
$LN15@Insert_nod:

; 692  :                     _Pnode->_Parent->_Color          = _Black;
; 693  :                     _Parent_sibling->_Color          = _Black;
; 694  :                     _Pnode->_Parent->_Parent->_Color = _Red;
; 695  :                     _Pnode                           = _Pnode->_Parent->_Parent;
; 696  :                 } else { // parent's sibling has red and black children
; 697  :                     if (_Pnode == _Pnode->_Parent->_Left) { // rotate left child to right

  00151	8b 01		 mov	 eax, DWORD PTR [ecx]
  00153	3b d0		 cmp	 edx, eax
  00155	75 3e		 jne	 SHORT $LN39@Insert_nod

; 698  :                         _Pnode = _Pnode->_Parent;

  00157	8b d1		 mov	 edx, ecx

; 481  :         _Nodeptr _Pnode   = _Wherenode->_Left;

  00159	8b c8		 mov	 ecx, eax

; 482  :         _Wherenode->_Left = _Pnode->_Right;

  0015b	8b 41 08	 mov	 eax, DWORD PTR [ecx+8]
  0015e	89 02		 mov	 DWORD PTR [edx], eax

; 483  : 
; 484  :         if (!_Pnode->_Right->_Isnil) {

  00160	8b 41 08	 mov	 eax, DWORD PTR [ecx+8]
  00163	80 78 0d 00	 cmp	 BYTE PTR [eax+13], 0
  00167	75 03		 jne	 SHORT $LN34@Insert_nod

; 485  :             _Pnode->_Right->_Parent = _Wherenode;

  00169	89 50 04	 mov	 DWORD PTR [eax+4], edx
$LN34@Insert_nod:

; 486  :         }
; 487  : 
; 488  :         _Pnode->_Parent = _Wherenode->_Parent;

  0016c	8b 03		 mov	 eax, DWORD PTR [ebx]
  0016e	89 41 04	 mov	 DWORD PTR [ecx+4], eax

; 489  : 
; 490  :         if (_Wherenode == _Myhead->_Parent) {

  00171	8b 45 fc	 mov	 eax, DWORD PTR _this$1$[ebp]
  00174	8b 00		 mov	 eax, DWORD PTR [eax]
  00176	3b 50 04	 cmp	 edx, DWORD PTR [eax+4]
  00179	75 05		 jne	 SHORT $LN35@Insert_nod

; 491  :             _Myhead->_Parent = _Pnode;

  0017b	89 48 04	 mov	 DWORD PTR [eax+4], ecx
  0017e	eb 0e		 jmp	 SHORT $LN38@Insert_nod
$LN35@Insert_nod:

; 492  :         } else if (_Wherenode == _Wherenode->_Parent->_Right) {

  00180	8b 03		 mov	 eax, DWORD PTR [ebx]
  00182	3b 50 08	 cmp	 edx, DWORD PTR [eax+8]
  00185	75 05		 jne	 SHORT $LN37@Insert_nod

; 493  :             _Wherenode->_Parent->_Right = _Pnode;

  00187	89 48 08	 mov	 DWORD PTR [eax+8], ecx

; 494  :         } else {

  0018a	eb 02		 jmp	 SHORT $LN38@Insert_nod
$LN37@Insert_nod:

; 495  :             _Wherenode->_Parent->_Left = _Pnode;

  0018c	89 08		 mov	 DWORD PTR [eax], ecx
$LN38@Insert_nod:

; 496  :         }
; 497  : 
; 498  :         _Pnode->_Right      = _Wherenode;

  0018e	89 51 08	 mov	 DWORD PTR [ecx+8], edx

; 499  :         _Wherenode->_Parent = _Pnode;

  00191	8b fb		 mov	 edi, ebx
  00193	89 0b		 mov	 DWORD PTR [ebx], ecx
$LN39@Insert_nod:

; 699  :                         _Rrotate(_Pnode);
; 700  :                     }
; 701  : 
; 702  :                     _Pnode->_Parent->_Color          = _Black; // propagate red up

  00195	c6 41 0c 01	 mov	 BYTE PTR [ecx+12], 1

; 703  :                     _Pnode->_Parent->_Parent->_Color = _Red;

  00199	8b 07		 mov	 eax, DWORD PTR [edi]
  0019b	8b 40 04	 mov	 eax, DWORD PTR [eax+4]
  0019e	c6 40 0c 00	 mov	 BYTE PTR [eax+12], 0

; 704  :                     _Lrotate(_Pnode->_Parent->_Parent);

  001a2	8b 07		 mov	 eax, DWORD PTR [edi]
  001a4	8b 48 04	 mov	 ecx, DWORD PTR [eax+4]

; 459  :         _Nodeptr _Pnode    = _Wherenode->_Right;

  001a7	8b 71 08	 mov	 esi, DWORD PTR [ecx+8]

; 460  :         _Wherenode->_Right = _Pnode->_Left;

  001aa	8b 06		 mov	 eax, DWORD PTR [esi]
  001ac	89 41 08	 mov	 DWORD PTR [ecx+8], eax

; 461  : 
; 462  :         if (!_Pnode->_Left->_Isnil) {

  001af	8b 06		 mov	 eax, DWORD PTR [esi]
  001b1	80 78 0d 00	 cmp	 BYTE PTR [eax+13], 0
  001b5	75 03		 jne	 SHORT $LN41@Insert_nod

; 463  :             _Pnode->_Left->_Parent = _Wherenode;

  001b7	89 48 04	 mov	 DWORD PTR [eax+4], ecx
$LN41@Insert_nod:

; 464  :         }
; 465  : 
; 466  :         _Pnode->_Parent = _Wherenode->_Parent;

  001ba	8b 41 04	 mov	 eax, DWORD PTR [ecx+4]
  001bd	89 46 04	 mov	 DWORD PTR [esi+4], eax

; 467  : 
; 468  :         if (_Wherenode == _Myhead->_Parent) {

  001c0	8b 45 fc	 mov	 eax, DWORD PTR _this$1$[ebp]
  001c3	8b 00		 mov	 eax, DWORD PTR [eax]
  001c5	3b 48 04	 cmp	 ecx, DWORD PTR [eax+4]
  001c8	75 05		 jne	 SHORT $LN42@Insert_nod

; 469  :             _Myhead->_Parent = _Pnode;

  001ca	89 70 04	 mov	 DWORD PTR [eax+4], esi
  001cd	eb 0e		 jmp	 SHORT $LN45@Insert_nod
$LN42@Insert_nod:

; 470  :         } else if (_Wherenode == _Wherenode->_Parent->_Left) {

  001cf	8b 41 04	 mov	 eax, DWORD PTR [ecx+4]
  001d2	3b 08		 cmp	 ecx, DWORD PTR [eax]
  001d4	75 04		 jne	 SHORT $LN44@Insert_nod

; 471  :             _Wherenode->_Parent->_Left = _Pnode;

  001d6	89 30		 mov	 DWORD PTR [eax], esi

; 472  :         } else {

  001d8	eb 03		 jmp	 SHORT $LN45@Insert_nod
$LN44@Insert_nod:

; 473  :             _Wherenode->_Parent->_Right = _Pnode;

  001da	89 70 08	 mov	 DWORD PTR [eax+8], esi
$LN45@Insert_nod:

; 474  :         }
; 475  : 
; 476  :         _Pnode->_Left       = _Wherenode;

  001dd	89 0e		 mov	 DWORD PTR [esi], ecx
$LN52@Insert_nod:

; 668  :             }
; 669  :         }
; 670  : 
; 671  :         for (_Nodeptr _Pnode = _Newnode; _Pnode->_Parent->_Color == _Red;) {

  001df	89 71 04	 mov	 DWORD PTR [ecx+4], esi
$LN46@Insert_nod:
  001e2	8b 42 04	 mov	 eax, DWORD PTR [edx+4]
  001e5	80 78 0c 00	 cmp	 BYTE PTR [eax+12], 0
  001e9	0f 84 71 fe ff
	ff		 je	 $LL2@Insert_nod
  001ef	8b 4d f8	 mov	 ecx, DWORD PTR __Head$1$[ebp]
  001f2	5f		 pop	 edi
  001f3	5e		 pop	 esi
  001f4	5b		 pop	 ebx
$LN3@Insert_nod:

; 705  :                 }
; 706  :             }
; 707  :         }
; 708  : 
; 709  :         _Head->_Parent->_Color = _Black; // root is always black

  001f5	8b 41 04	 mov	 eax, DWORD PTR [ecx+4]
  001f8	c6 40 0c 01	 mov	 BYTE PTR [eax+12], 1

; 710  :         return _Newnode;

  001fc	8b 45 10	 mov	 eax, DWORD PTR __Newnode$[ebp]

; 711  :     }

  001ff	8b e5		 mov	 esp, ebp
  00201	5d		 pop	 ebp
  00202	c2 0c 00	 ret	 12			; 0000000cH
?_Insert_node@?$_Tree_val@U?$_Tree_simple_types@U?$pair@$$CBKV?$basic_string@DU?$char_traits@D@std@@V?$allocator@D@2@@std@@@std@@@std@@@std@@QAEPAU?$_Tree_node@U?$pair@$$CBKV?$basic_string@DU?$char_traits@D@std@@V?$allocator@D@2@@std@@@std@@PAX@2@U?$_Tree_id@PAU?$_Tree_node@U?$pair@$$CBKV?$basic_string@DU?$char_traits@D@std@@V?$allocator@D@2@@std@@@std@@PAX@std@@@2@QAU32@@Z ENDP ; std::_Tree_val<std::_Tree_simple_types<std::pair<unsigned long const ,std::basic_string<char,std::char_traits<char>,std::allocator<char> > > > >::_Insert_node
_TEXT	ENDS
; Function compile flags: /Ogtp
; File C:\Program Files (x86)\Microsoft Visual Studio\2019\Community\VC\Tools\MSVC\14.28.29333\include\xtree
;	COMDAT ?_Throw_tree_length_error@std@@YAXXZ
_TEXT	SEGMENT
?_Throw_tree_length_error@std@@YAXXZ PROC		; std::_Throw_tree_length_error, COMDAT

; 415  :     _Xlength_error("map/set too long");

  00000	68 00 00 00 00	 push	 OFFSET ??_C@_0BB@GCADKGJO@map?1set?5too?5long@
  00005	e8 00 00 00 00	 call	 ?_Xlength_error@std@@YAXPBD@Z ; std::_Xlength_error
$LN3@Throw_tree:
  0000a	cc		 int	 3
?_Throw_tree_length_error@std@@YAXXZ ENDP		; std::_Throw_tree_length_error
_TEXT	ENDS
; Function compile flags: /Ogtp
; File C:\Program Files (x86)\Microsoft Visual Studio\2019\Community\VC\Tools\MSVC\14.28.29333\include\xstring
; File C:\Program Files (x86)\Microsoft Visual Studio\2019\Community\VC\Tools\MSVC\14.28.29333\include\utility
; File C:\Program Files (x86)\Microsoft Visual Studio\2019\Community\VC\Tools\MSVC\14.28.29333\include\xstring
;	COMDAT ?compare@?$basic_string@DU?$char_traits@D@std@@V?$allocator@D@2@@std@@QBEHQBD@Z
_TEXT	SEGMENT
__Ptr$ = 8						; size = 4
?compare@?$basic_string@DU?$char_traits@D@std@@V?$allocator@D@2@@std@@QBEHQBD@Z PROC ; std::basic_string<char,std::char_traits<char>,std::allocator<char> >::compare, COMDAT
; _this$ = ecx

; 4233 :     _NODISCARD int compare(_In_z_ const _Elem* const _Ptr) const noexcept /* strengthened */ {

  00000	55		 push	 ebp
  00001	8b ec		 mov	 ebp, esp
  00003	53		 push	 ebx
  00004	56		 push	 esi

; 389  :         return _CSTD strlen(reinterpret_cast<const char*>(_First));

  00005	8b 75 08	 mov	 esi, DWORD PTR __Ptr$[ebp]

; 4233 :     _NODISCARD int compare(_In_z_ const _Elem* const _Ptr) const noexcept /* strengthened */ {

  00008	8b d1		 mov	 edx, ecx
  0000a	57		 push	 edi

; 389  :         return _CSTD strlen(reinterpret_cast<const char*>(_First));

  0000b	8b fe		 mov	 edi, esi
  0000d	8d 4f 01	 lea	 ecx, DWORD PTR [edi+1]
$LL19@compare:
  00010	8a 07		 mov	 al, BYTE PTR [edi]
  00012	47		 inc	 edi
  00013	84 c0		 test	 al, al
  00015	75 f9		 jne	 SHORT $LL19@compare
  00017	2b f9		 sub	 edi, ecx

; 2227 :         return _BUF_SIZE <= _Myres;

  00019	83 7a 14 10	 cmp	 DWORD PTR [edx+20], 16	; 00000010H

; 2218 :         const value_type* _Result = _Bx._Buf;

  0001d	8b ca		 mov	 ecx, edx

; 2219 :         if (_Large_string_engaged()) {

  0001f	72 02		 jb	 SHORT $LN6@compare

; 2220 :             _Result = _Unfancy(_Bx._Ptr);

  00021	8b 0a		 mov	 ecx, DWORD PTR [edx]
$LN6@compare:

; 4234 :         // compare [0, size()) with [_Ptr, <null>)
; 4235 :         return _Traits_compare<_Traits>(_Mypair._Myval2._Myptr(), _Mypair._Myval2._Mysize, _Ptr, _Traits::length(_Ptr));

  00023	8b 5a 10	 mov	 ebx, DWORD PTR [edx+16]
; File C:\Program Files (x86)\Microsoft Visual Studio\2019\Community\VC\Tools\MSVC\14.28.29333\include\utility

; 68   :     return _Right < _Left ? _Right : _Left;

  00026	3b fb		 cmp	 edi, ebx
  00028	8b d3		 mov	 edx, ebx
  0002a	0f 42 d7	 cmovb	 edx, edi
; File C:\Program Files (x86)\Microsoft Visual Studio\2019\Community\VC\Tools\MSVC\14.28.29333\include\xstring

; 369  :         return _CSTD memcmp(_First1, _First2, _Count);

  0002d	83 ea 04	 sub	 edx, 4
  00030	72 11		 jb	 SHORT $LN22@compare
$LL23@compare:
  00032	8b 01		 mov	 eax, DWORD PTR [ecx]
  00034	3b 06		 cmp	 eax, DWORD PTR [esi]
  00036	75 10		 jne	 SHORT $LN21@compare
  00038	83 c1 04	 add	 ecx, 4
  0003b	83 c6 04	 add	 esi, 4
  0003e	83 ea 04	 sub	 edx, 4
  00041	73 ef		 jae	 SHORT $LL23@compare
$LN22@compare:
  00043	83 fa fc	 cmp	 edx, -4			; fffffffcH
  00046	74 34		 je	 SHORT $LN20@compare
$LN21@compare:
  00048	8a 01		 mov	 al, BYTE PTR [ecx]
  0004a	3a 06		 cmp	 al, BYTE PTR [esi]
  0004c	75 27		 jne	 SHORT $LN24@compare
  0004e	83 fa fd	 cmp	 edx, -3			; fffffffdH
  00051	74 29		 je	 SHORT $LN20@compare
  00053	8a 41 01	 mov	 al, BYTE PTR [ecx+1]
  00056	3a 46 01	 cmp	 al, BYTE PTR [esi+1]
  00059	75 1a		 jne	 SHORT $LN24@compare
  0005b	83 fa fe	 cmp	 edx, -2			; fffffffeH
  0005e	74 1c		 je	 SHORT $LN20@compare
  00060	8a 41 02	 mov	 al, BYTE PTR [ecx+2]
  00063	3a 46 02	 cmp	 al, BYTE PTR [esi+2]
  00066	75 0d		 jne	 SHORT $LN24@compare
  00068	83 fa ff	 cmp	 edx, -1
  0006b	74 0f		 je	 SHORT $LN20@compare
  0006d	8a 41 03	 mov	 al, BYTE PTR [ecx+3]
  00070	3a 46 03	 cmp	 al, BYTE PTR [esi+3]
  00073	74 07		 je	 SHORT $LN20@compare
$LN24@compare:
  00075	1b c0		 sbb	 eax, eax
  00077	83 c8 01	 or	 eax, 1
  0007a	eb 02		 jmp	 SHORT $LN25@compare
$LN20@compare:
  0007c	33 c0		 xor	 eax, eax
$LN25@compare:

; 570  :     if (_Ans != 0) {

  0007e	85 c0		 test	 eax, eax
  00080	75 12		 jne	 SHORT $LN13@compare

; 571  :         return _Ans;
; 572  :     }
; 573  : 
; 574  :     if (_Left_size < _Right_size) {

  00082	3b fb		 cmp	 edi, ebx
  00084	76 0a		 jbe	 SHORT $LN26@compare

; 4236 :     }

  00086	5f		 pop	 edi
  00087	5e		 pop	 esi
  00088	83 c8 ff	 or	 eax, -1
  0008b	5b		 pop	 ebx
  0008c	5d		 pop	 ebp
  0008d	c2 04 00	 ret	 4
$LN26@compare:

; 578  :     if (_Left_size > _Right_size) {

  00090	1b c0		 sbb	 eax, eax
  00092	f7 d8		 neg	 eax
$LN13@compare:
  00094	5f		 pop	 edi

; 4236 :     }

  00095	5e		 pop	 esi
  00096	5b		 pop	 ebx
  00097	5d		 pop	 ebp
  00098	c2 04 00	 ret	 4
?compare@?$basic_string@DU?$char_traits@D@std@@V?$allocator@D@2@@std@@QBEHQBD@Z ENDP ; std::basic_string<char,std::char_traits<char>,std::allocator<char> >::compare
_TEXT	ENDS
; Function compile flags: /Ogtp
; File C:\Program Files (x86)\Microsoft Visual Studio\2019\Community\VC\Tools\MSVC\14.28.29333\include\xstring
; File C:\Program Files (x86)\Microsoft Visual Studio\2019\Community\VC\Tools\MSVC\14.28.29333\include\utility
; File C:\Program Files (x86)\Microsoft Visual Studio\2019\Community\VC\Tools\MSVC\14.28.29333\include\xstring
; File C:\Program Files (x86)\Microsoft Visual Studio\2019\Community\VC\Tools\MSVC\14.28.29333\include\xmemory
; File C:\Program Files (x86)\Microsoft Visual Studio\2019\Community\VC\Tools\MSVC\14.28.29333\include\xstring
; File C:\Program Files (x86)\Microsoft Visual Studio\2019\Community\VC\Tools\MSVC\14.28.29333\include\xmemory
; File C:\Program Files (x86)\Microsoft Visual Studio\2019\Community\VC\Tools\MSVC\14.28.29333\include\xstring
;	COMDAT ?assign@?$basic_string@DU?$char_traits@D@std@@V?$allocator@D@2@@std@@QAEAAV12@QBDI@Z
_TEXT	SEGMENT
__Old$1$ = -4						; size = 4
__Ptr$ = 8						; size = 4
__New_ptr$1 = 12					; size = 4
__Count$ = 12						; size = 4
?assign@?$basic_string@DU?$char_traits@D@std@@V?$allocator@D@2@@std@@QAEAAV12@QBDI@Z PROC ; std::basic_string<char,std::char_traits<char>,std::allocator<char> >::assign, COMDAT
; _this$ = ecx

; 3042 :     basic_string& assign(_In_reads_(_Count) const _Elem* const _Ptr, _CRT_GUARDOVERFLOW const size_type _Count) {

  00000	55		 push	 ebp
  00001	8b ec		 mov	 ebp, esp
  00003	51		 push	 ecx
  00004	53		 push	 ebx
  00005	56		 push	 esi
  00006	8b f1		 mov	 esi, ecx
  00008	57		 push	 edi

; 3043 :         // assign [_Ptr, _Ptr + _Count)
; 3044 :         if (_Count <= _Mypair._Myval2._Myres) {

  00009	8b 7d 0c	 mov	 edi, DWORD PTR __Count$[ebp]
  0000c	8b 4e 14	 mov	 ecx, DWORD PTR [esi+20]
  0000f	89 4d fc	 mov	 DWORD PTR __Old$1$[ebp], ecx
  00012	3b f9		 cmp	 edi, ecx
  00014	77 28		 ja	 SHORT $LN2@assign

; 2209 :         value_type* _Result = _Bx._Buf;

  00016	8b de		 mov	 ebx, esi

; 2227 :         return _BUF_SIZE <= _Myres;

  00018	83 f9 10	 cmp	 ecx, 16			; 00000010H

; 2210 :         if (_Large_string_engaged()) {

  0001b	72 02		 jb	 SHORT $LN5@assign

; 2211 :             _Result = _Unfancy(_Bx._Ptr);

  0001d	8b 1e		 mov	 ebx, DWORD PTR [esi]
$LN5@assign:

; 119  :         _CSTD memmove(_First1, _First2, _Count * sizeof(_Elem));

  0001f	57		 push	 edi
  00020	ff 75 08	 push	 DWORD PTR __Ptr$[ebp]

; 3045 :             _Elem* const _Old_ptr   = _Mypair._Myval2._Myptr();
; 3046 :             _Mypair._Myval2._Mysize = _Count;

  00023	89 7e 10	 mov	 DWORD PTR [esi+16], edi

; 119  :         _CSTD memmove(_First1, _First2, _Count * sizeof(_Elem));

  00026	53		 push	 ebx
  00027	e8 00 00 00 00	 call	 _memmove
  0002c	83 c4 0c	 add	 esp, 12			; 0000000cH

; 3047 :             _Traits::move(_Old_ptr, _Ptr, _Count);
; 3048 :             _Traits::assign(_Old_ptr[_Count], _Elem());

  0002f	c6 04 3b 00	 mov	 BYTE PTR [ebx+edi], 0

; 3059 :     }

  00033	8b c6		 mov	 eax, esi
  00035	5f		 pop	 edi
  00036	5e		 pop	 esi
  00037	5b		 pop	 ebx
  00038	8b e5		 mov	 esp, ebp
  0003a	5d		 pop	 ebp
  0003b	c2 08 00	 ret	 8
$LN2@assign:

; 4305 :         if (_New_size > max_size()) {

  0003e	81 ff ff ff ff
	7f		 cmp	 edi, 2147483647		; 7fffffffH
  00044	0f 87 91 00 00
	00		 ja	 $LN36@assign

; 4285 :         const size_type _Masked = _Requested | _ALLOC_MASK;

  0004a	8b df		 mov	 ebx, edi
  0004c	83 cb 0f	 or	 ebx, 15			; 0000000fH
  0004f	81 fb ff ff ff
	7f		 cmp	 ebx, 2147483647		; 7fffffffH

; 4286 :         if (_Masked > _Max) { // the mask overflows, settle for max_size()

  00055	76 07		 jbe	 SHORT $LN19@assign

; 4287 :             return _Max;

  00057	bb ff ff ff 7f	 mov	 ebx, 2147483647		; 7fffffffH
  0005c	eb 1e		 jmp	 SHORT $LN18@assign
$LN19@assign:

; 4288 :         }
; 4289 : 
; 4290 :         if (_Old > _Max - _Old / 2) { // similarly, geometric overflows

  0005e	8b d1		 mov	 edx, ecx
  00060	b8 ff ff ff 7f	 mov	 eax, 2147483647		; 7fffffffH
  00065	d1 ea		 shr	 edx, 1
  00067	2b c2		 sub	 eax, edx
  00069	3b c8		 cmp	 ecx, eax
  0006b	76 07		 jbe	 SHORT $LN20@assign

; 4291 :             return _Max;

  0006d	bb ff ff ff 7f	 mov	 ebx, 2147483647		; 7fffffffH
  00072	eb 08		 jmp	 SHORT $LN18@assign
$LN20@assign:

; 4292 :         }
; 4293 : 
; 4294 :         return (_STD max)(_Masked, _Old + _Old / 2);

  00074	8d 04 0a	 lea	 eax, DWORD PTR [edx+ecx]
; File C:\Program Files (x86)\Microsoft Visual Studio\2019\Community\VC\Tools\MSVC\14.28.29333\include\utility

; 44   :     return _Left < _Right ? _Right : _Left;

  00077	3b d8		 cmp	 ebx, eax
  00079	0f 42 d8	 cmovb	 ebx, eax
$LN18@assign:
; File C:\Program Files (x86)\Microsoft Visual Studio\2019\Community\VC\Tools\MSVC\14.28.29333\include\xstring

; 4312 :         const pointer _New_ptr        = _Al.allocate(_New_capacity + 1); // throws

  0007c	8d 43 01	 lea	 eax, DWORD PTR [ebx+1]
; File C:\Program Files (x86)\Microsoft Visual Studio\2019\Community\VC\Tools\MSVC\14.28.29333\include\xmemory

; 814  :         return static_cast<_Ty*>(_Allocate<_New_alignof<_Ty>>(_Get_size_of_n<sizeof(_Ty)>(_Count)));

  0007f	50		 push	 eax
  00080	e8 00 00 00 00	 call	 ??$_Allocate@$07U_Default_allocate_traits@std@@$0A@@std@@YAPAXI@Z ; std::_Allocate<8,std::_Default_allocate_traits,0>
; File C:\Program Files (x86)\Microsoft Visual Studio\2019\Community\VC\Tools\MSVC\14.28.29333\include\xstring

; 62   :         _CSTD memcpy(_First1, _First2, _Count * sizeof(_Elem));

  00085	57		 push	 edi
  00086	ff 75 08	 push	 DWORD PTR __Ptr$[ebp]

; 4312 :         const pointer _New_ptr        = _Al.allocate(_New_capacity + 1); // throws

  00089	89 45 0c	 mov	 DWORD PTR __New_ptr$1[ebp], eax

; 62   :         _CSTD memcpy(_First1, _First2, _Count * sizeof(_Elem));

  0008c	50		 push	 eax

; 4314 :         _Mypair._Myval2._Mysize = _New_size;

  0008d	89 7e 10	 mov	 DWORD PTR [esi+16], edi

; 4315 :         _Mypair._Myval2._Myres  = _New_capacity;

  00090	89 5e 14	 mov	 DWORD PTR [esi+20], ebx

; 62   :         _CSTD memcpy(_First1, _First2, _Count * sizeof(_Elem));

  00093	e8 00 00 00 00	 call	 _memcpy

; 3056 :                 _Traits::assign(_New_ptr[_Count], _Elem());

  00098	8b 5d 0c	 mov	 ebx, DWORD PTR __New_ptr$1[ebp]

; 62   :         _CSTD memcpy(_First1, _First2, _Count * sizeof(_Elem));

  0009b	83 c4 10	 add	 esp, 16			; 00000010H

; 4317 :         if (_BUF_SIZE <= _Old_capacity) {

  0009e	8b 45 fc	 mov	 eax, DWORD PTR __Old$1$[ebp]

; 3056 :                 _Traits::assign(_New_ptr[_Count], _Elem());

  000a1	c6 04 3b 00	 mov	 BYTE PTR [ebx+edi], 0

; 4317 :         if (_BUF_SIZE <= _Old_capacity) {

  000a5	83 f8 10	 cmp	 eax, 16			; 00000010H
  000a8	72 19		 jb	 SHORT $LN13@assign

; 4318 :             _Al.deallocate(_Mypair._Myval2._Bx._Ptr, _Old_capacity + 1);

  000aa	40		 inc	 eax
; File C:\Program Files (x86)\Microsoft Visual Studio\2019\Community\VC\Tools\MSVC\14.28.29333\include\xmemory

; 810  :         _Deallocate<_New_alignof<_Ty>>(_Ptr, sizeof(_Ty) * _Count);

  000ab	50		 push	 eax
  000ac	ff 36		 push	 DWORD PTR [esi]
  000ae	e8 00 00 00 00	 call	 ??$_Deallocate@$07$0A@@std@@YAXPAXI@Z ; std::_Deallocate<8,0>
; File C:\Program Files (x86)\Microsoft Visual Studio\2019\Community\VC\Tools\MSVC\14.28.29333\include\xstring

; 3059 :     }

  000b3	83 c4 08	 add	 esp, 8

; 4319 :             _Mypair._Myval2._Bx._Ptr = _New_ptr;

  000b6	89 1e		 mov	 DWORD PTR [esi], ebx

; 3059 :     }

  000b8	8b c6		 mov	 eax, esi
  000ba	5f		 pop	 edi
  000bb	5e		 pop	 esi
  000bc	5b		 pop	 ebx
  000bd	8b e5		 mov	 esp, ebp
  000bf	5d		 pop	 ebp
  000c0	c2 08 00	 ret	 8
$LN13@assign:

; 4321 :             _Construct_in_place(_Mypair._Myval2._Bx._Ptr, _New_ptr);

  000c3	8d 45 0c	 lea	 eax, DWORD PTR __New_ptr$1[ebp]
  000c6	50		 push	 eax
  000c7	56		 push	 esi
  000c8	e8 00 00 00 00	 call	 ??$_Construct_in_place@PADABQAD@std@@YAXAAPADABQAD@Z ; std::_Construct_in_place<char *,char * const &>

; 3059 :     }

  000cd	83 c4 08	 add	 esp, 8
  000d0	8b c6		 mov	 eax, esi
  000d2	5f		 pop	 edi
  000d3	5e		 pop	 esi
  000d4	5b		 pop	 ebx
  000d5	8b e5		 mov	 esp, ebp
  000d7	5d		 pop	 ebp
  000d8	c2 08 00	 ret	 8
$LN36@assign:

; 4306 :             _Xlen_string(); // result too long

  000db	e8 00 00 00 00	 call	 ?_Xlen_string@std@@YAXXZ ; std::_Xlen_string
$LN33@assign:
  000e0	cc		 int	 3
?assign@?$basic_string@DU?$char_traits@D@std@@V?$allocator@D@2@@std@@QAEAAV12@QBDI@Z ENDP ; std::basic_string<char,std::char_traits<char>,std::allocator<char> >::assign
_TEXT	ENDS
; Function compile flags: /Ogtp
; File C:\Program Files (x86)\Microsoft Visual Studio\2019\Community\VC\Tools\MSVC\14.28.29333\include\xstring
; File C:\Program Files (x86)\Microsoft Visual Studio\2019\Community\VC\Tools\MSVC\14.28.29333\include\xmemory
; File C:\Program Files (x86)\Microsoft Visual Studio\2019\Community\VC\Tools\MSVC\14.28.29333\include\xstring
;	COMDAT ??1?$basic_string@DU?$char_traits@D@std@@V?$allocator@D@2@@std@@QAE@XZ
_TEXT	SEGMENT
??1?$basic_string@DU?$char_traits@D@std@@V?$allocator@D@2@@std@@QAE@XZ PROC ; std::basic_string<char,std::char_traits<char>,std::allocator<char> >::~basic_string<char,std::char_traits<char>,std::allocator<char> >, COMDAT
; _this$ = ecx

; 2800 :     ~basic_string() noexcept {

  00000	56		 push	 esi
  00001	8b f1		 mov	 esi, ecx

; 2227 :         return _BUF_SIZE <= _Myres;

  00003	8b 46 14	 mov	 eax, DWORD PTR [esi+20]
  00006	83 f8 10	 cmp	 eax, 16			; 00000010H

; 4385 :         if (_Mypair._Myval2._Large_string_engaged()) {

  00009	72 0c		 jb	 SHORT $LN4@basic_stri

; 4386 :             const pointer _Ptr = _Mypair._Myval2._Bx._Ptr;
; 4387 :             auto& _Al          = _Getal();
; 4388 :             _Destroy_in_place(_Mypair._Myval2._Bx._Ptr);
; 4389 :             _Al.deallocate(_Ptr, _Mypair._Myval2._Myres + 1);

  0000b	40		 inc	 eax
; File C:\Program Files (x86)\Microsoft Visual Studio\2019\Community\VC\Tools\MSVC\14.28.29333\include\xmemory

; 810  :         _Deallocate<_New_alignof<_Ty>>(_Ptr, sizeof(_Ty) * _Count);

  0000c	50		 push	 eax
  0000d	ff 36		 push	 DWORD PTR [esi]
  0000f	e8 00 00 00 00	 call	 ??$_Deallocate@$07$0A@@std@@YAXPAXI@Z ; std::_Deallocate<8,0>
  00014	83 c4 08	 add	 esp, 8
$LN4@basic_stri:
; File C:\Program Files (x86)\Microsoft Visual Studio\2019\Community\VC\Tools\MSVC\14.28.29333\include\xstring

; 4392 :         _Mypair._Myval2._Mysize = 0;

  00017	c7 46 10 00 00
	00 00		 mov	 DWORD PTR [esi+16], 0

; 4393 :         _Mypair._Myval2._Myres  = _BUF_SIZE - 1;

  0001e	c7 46 14 0f 00
	00 00		 mov	 DWORD PTR [esi+20], 15	; 0000000fH

; 4394 :         // the _Traits::assign is last so the codegen doesn't think the char write can alias this
; 4395 :         _Traits::assign(_Mypair._Myval2._Bx._Buf[0], _Elem());

  00025	c6 06 00	 mov	 BYTE PTR [esi], 0
  00028	5e		 pop	 esi

; 2801 :         _Tidy_deallocate();
; 2802 : #if _ITERATOR_DEBUG_LEVEL != 0
; 2803 :         auto&& _Alproxy          = _GET_PROXY_ALLOCATOR(_Alty, _Getal());
; 2804 :         const auto _To_delete    = _Mypair._Myval2._Myproxy;
; 2805 :         _Mypair._Myval2._Myproxy = nullptr;
; 2806 :         _Delete_plain_internal(_Alproxy, _To_delete);
; 2807 : #endif // _ITERATOR_DEBUG_LEVEL != 0
; 2808 :     }

  00029	c3		 ret	 0
??1?$basic_string@DU?$char_traits@D@std@@V?$allocator@D@2@@std@@QAE@XZ ENDP ; std::basic_string<char,std::char_traits<char>,std::allocator<char> >::~basic_string<char,std::char_traits<char>,std::allocator<char> >
_TEXT	ENDS
; Function compile flags: /Ogtp
; File C:\Program Files (x86)\Microsoft Visual Studio\2019\Community\VC\Tools\MSVC\14.28.29333\include\xstring
; File C:\Program Files (x86)\Microsoft Visual Studio\2019\Community\VC\Tools\MSVC\14.28.29333\include\utility
; File C:\Program Files (x86)\Microsoft Visual Studio\2019\Community\VC\Tools\MSVC\14.28.29333\include\xstring
; File C:\Program Files (x86)\Microsoft Visual Studio\2019\Community\VC\Tools\MSVC\14.28.29333\include\xmemory
; File C:\Program Files (x86)\Microsoft Visual Studio\2019\Community\VC\Tools\MSVC\14.28.29333\include\xstring
;	COMDAT ??0?$basic_string@DU?$char_traits@D@std@@V?$allocator@D@2@@std@@QAE@ABV01@@Z
_TEXT	SEGMENT
$T1 = -8						; size = 4
__New_array$2 = -4					; size = 4
__Right_size$1$ = 8					; size = 4
__Right$ = 8						; size = 4
??0?$basic_string@DU?$char_traits@D@std@@V?$allocator@D@2@@std@@QAE@ABV01@@Z PROC ; std::basic_string<char,std::char_traits<char>,std::allocator<char> >::basic_string<char,std::char_traits<char>,std::allocator<char> >, COMDAT
; _this$ = ecx

; 2351 :         : _Mypair(_One_then_variadic_args_t{}, _Alty_traits::select_on_container_copy_construction(_Right._Getal())) {

  00000	55		 push	 ebp
  00001	8b ec		 mov	 ebp, esp
  00003	83 ec 08	 sub	 esp, 8
  00006	53		 push	 ebx

; 2734 :         const size_type _Right_size   = _Right_data._Mysize;

  00007	8b 5d 08	 mov	 ebx, DWORD PTR __Right$[ebp]

; 2351 :         : _Mypair(_One_then_variadic_args_t{}, _Alty_traits::select_on_container_copy_construction(_Right._Getal())) {

  0000a	57		 push	 edi
  0000b	8b f9		 mov	 edi, ecx

; 2198 :     _String_val() noexcept : _Bx(), _Mysize(0), _Myres(0) {}

  0000d	c7 47 10 00 00
	00 00		 mov	 DWORD PTR [edi+16], 0
  00014	c7 47 14 00 00
	00 00		 mov	 DWORD PTR [edi+20], 0

; 2227 :         return _BUF_SIZE <= _Myres;

  0001b	83 7b 14 10	 cmp	 DWORD PTR [ebx+20], 16	; 00000010H

; 2734 :         const size_type _Right_size   = _Right_data._Mysize;

  0001f	8b 43 10	 mov	 eax, DWORD PTR [ebx+16]
  00022	89 45 08	 mov	 DWORD PTR __Right_size$1$[ebp], eax

; 2219 :         if (_Large_string_engaged()) {

  00025	72 02		 jb	 SHORT $LN13@basic_stri

; 2220 :             _Result = _Unfancy(_Bx._Ptr);

  00027	8b 1b		 mov	 ebx, DWORD PTR [ebx]
$LN13@basic_stri:

; 2737 :         if (_Right_size < _BUF_SIZE) { // stay small, don't allocate

  00029	83 f8 10	 cmp	 eax, 16			; 00000010H
  0002c	73 1e		 jae	 SHORT $LN10@basic_stri

; 62   :         _CSTD memcpy(_First1, _First2, _Count * sizeof(_Elem));

  0002e	0f 10 03	 movups	 xmm0, XMMWORD PTR [ebx]

; 2352 :         auto&& _Alproxy = _GET_PROXY_ALLOCATOR(_Alty, _Getal());
; 2353 :         _Container_proxy_ptr<_Alty> _Proxy(_Alproxy, _Mypair._Myval2);
; 2354 :         _Construct_lv_contents(_Right);
; 2355 :         _Proxy._Release();
; 2356 :     }

  00031	8b 4d 08	 mov	 ecx, DWORD PTR __Right_size$1$[ebp]

; 2740 :             _My_data._Myres  = _BUF_SIZE - 1;

  00034	b8 0f 00 00 00	 mov	 eax, 15			; 0000000fH

; 62   :         _CSTD memcpy(_First1, _First2, _Count * sizeof(_Elem));

  00039	0f 11 07	 movups	 XMMWORD PTR [edi], xmm0

; 2352 :         auto&& _Alproxy = _GET_PROXY_ALLOCATOR(_Alty, _Getal());
; 2353 :         _Container_proxy_ptr<_Alty> _Proxy(_Alproxy, _Mypair._Myval2);
; 2354 :         _Construct_lv_contents(_Right);
; 2355 :         _Proxy._Release();
; 2356 :     }

  0003c	89 4f 10	 mov	 DWORD PTR [edi+16], ecx
  0003f	89 47 14	 mov	 DWORD PTR [edi+20], eax
  00042	8b c7		 mov	 eax, edi
  00044	5f		 pop	 edi
  00045	5b		 pop	 ebx
  00046	8b e5		 mov	 esp, ebp
  00048	5d		 pop	 ebp
  00049	c2 04 00	 ret	 4
$LN10@basic_stri:

; 2745 :         const size_type _New_capacity = (_STD min)(_Right_size | _ALLOC_MASK, max_size());

  0004c	83 c8 0f	 or	 eax, 15			; 0000000fH
; File C:\Program Files (x86)\Microsoft Visual Studio\2019\Community\VC\Tools\MSVC\14.28.29333\include\utility

; 68   :     return _Right < _Left ? _Right : _Left;

  0004f	b9 ff ff ff 7f	 mov	 ecx, 2147483647		; 7fffffffH
  00054	3b c1		 cmp	 eax, ecx
  00056	56		 push	 esi
  00057	0f 47 c1	 cmova	 eax, ecx
  0005a	89 45 f8	 mov	 DWORD PTR $T1[ebp], eax
; File C:\Program Files (x86)\Microsoft Visual Studio\2019\Community\VC\Tools\MSVC\14.28.29333\include\xstring

; 2746 :         const pointer _New_array      = _Al.allocate(_New_capacity + 1); // throws

  0005d	40		 inc	 eax
; File C:\Program Files (x86)\Microsoft Visual Studio\2019\Community\VC\Tools\MSVC\14.28.29333\include\xmemory

; 814  :         return static_cast<_Ty*>(_Allocate<_New_alignof<_Ty>>(_Get_size_of_n<sizeof(_Ty)>(_Count)));

  0005e	50		 push	 eax
  0005f	e8 00 00 00 00	 call	 ??$_Allocate@$07U_Default_allocate_traits@std@@$0A@@std@@YAPAXI@Z ; std::_Allocate<8,std::_Default_allocate_traits,0>
; File C:\Program Files (x86)\Microsoft Visual Studio\2019\Community\VC\Tools\MSVC\14.28.29333\include\xstring

; 2746 :         const pointer _New_array      = _Al.allocate(_New_capacity + 1); // throws

  00064	8b f0		 mov	 esi, eax

; 2747 :         _Construct_in_place(_My_data._Bx._Ptr, _New_array);

  00066	8d 45 fc	 lea	 eax, DWORD PTR __New_array$2[ebp]
  00069	50		 push	 eax
  0006a	57		 push	 edi
  0006b	89 75 fc	 mov	 DWORD PTR __New_array$2[ebp], esi
  0006e	e8 00 00 00 00	 call	 ??$_Construct_in_place@PADABQAD@std@@YAXAAPADABQAD@Z ; std::_Construct_in_place<char *,char * const &>

; 2748 :         _Traits::copy(_Unfancy(_New_array), _Right_ptr, _Right_size + 1);

  00073	8b 4d 08	 mov	 ecx, DWORD PTR __Right_size$1$[ebp]
  00076	41		 inc	 ecx

; 62   :         _CSTD memcpy(_First1, _First2, _Count * sizeof(_Elem));

  00077	51		 push	 ecx
  00078	53		 push	 ebx
  00079	56		 push	 esi
  0007a	e8 00 00 00 00	 call	 _memcpy
  0007f	8b 45 f8	 mov	 eax, DWORD PTR $T1[ebp]
  00082	83 c4 18	 add	 esp, 24			; 00000018H

; 2352 :         auto&& _Alproxy = _GET_PROXY_ALLOCATOR(_Alty, _Getal());
; 2353 :         _Container_proxy_ptr<_Alty> _Proxy(_Alproxy, _Mypair._Myval2);
; 2354 :         _Construct_lv_contents(_Right);
; 2355 :         _Proxy._Release();
; 2356 :     }

  00085	8b 4d 08	 mov	 ecx, DWORD PTR __Right_size$1$[ebp]
  00088	89 4f 10	 mov	 DWORD PTR [edi+16], ecx
  0008b	89 47 14	 mov	 DWORD PTR [edi+20], eax
  0008e	8b c7		 mov	 eax, edi

; 62   :         _CSTD memcpy(_First1, _First2, _Count * sizeof(_Elem));

  00090	5e		 pop	 esi

; 2352 :         auto&& _Alproxy = _GET_PROXY_ALLOCATOR(_Alty, _Getal());
; 2353 :         _Container_proxy_ptr<_Alty> _Proxy(_Alproxy, _Mypair._Myval2);
; 2354 :         _Construct_lv_contents(_Right);
; 2355 :         _Proxy._Release();
; 2356 :     }

  00091	5f		 pop	 edi
  00092	5b		 pop	 ebx
  00093	8b e5		 mov	 esp, ebp
  00095	5d		 pop	 ebp
  00096	c2 04 00	 ret	 4
??0?$basic_string@DU?$char_traits@D@std@@V?$allocator@D@2@@std@@QAE@ABV01@@Z ENDP ; std::basic_string<char,std::char_traits<char>,std::allocator<char> >::basic_string<char,std::char_traits<char>,std::allocator<char> >
_TEXT	ENDS
; Function compile flags: /Ogtp
; File C:\Program Files (x86)\Microsoft Visual Studio\2019\Community\VC\Tools\MSVC\14.28.29333\include\xstring
;	COMDAT ?_Xlen_string@std@@YAXXZ
_TEXT	SEGMENT
?_Xlen_string@std@@YAXXZ PROC				; std::_Xlen_string, COMDAT

; 2275 :     _Xlength_error("string too long");

  00000	68 00 00 00 00	 push	 OFFSET ??_C@_0BA@JFNIOLAK@string?5too?5long@
  00005	e8 00 00 00 00	 call	 ?_Xlength_error@std@@YAXPBD@Z ; std::_Xlength_error
$LN3@Xlen_strin:
  0000a	cc		 int	 3
?_Xlen_string@std@@YAXXZ ENDP				; std::_Xlen_string
_TEXT	ENDS
; Function compile flags: /Ogtp
; File C:\Program Files (x86)\Microsoft Visual Studio\2019\Community\VC\Tools\MSVC\14.28.29333\include\exception
;	COMDAT ?_Throw_bad_array_new_length@std@@YAXXZ
_TEXT	SEGMENT
$T1 = -12						; size = 12
?_Throw_bad_array_new_length@std@@YAXXZ PROC		; std::_Throw_bad_array_new_length, COMDAT

; 320  : [[noreturn]] inline void _Throw_bad_array_new_length() {

  00000	55		 push	 ebp
  00001	8b ec		 mov	 ebp, esp
  00003	83 ec 0c	 sub	 esp, 12			; 0000000cH

; 321  :     _THROW(bad_array_new_length{});

  00006	8d 4d f4	 lea	 ecx, DWORD PTR $T1[ebp]
  00009	e8 00 00 00 00	 call	 ??0bad_array_new_length@std@@QAE@XZ ; std::bad_array_new_length::bad_array_new_length
  0000e	68 00 00 00 00	 push	 OFFSET __TI3?AVbad_array_new_length@std@@
  00013	8d 45 f4	 lea	 eax, DWORD PTR $T1[ebp]
  00016	50		 push	 eax
  00017	e8 00 00 00 00	 call	 __CxxThrowException@8
$LN3@Throw_bad_:
  0001c	cc		 int	 3
?_Throw_bad_array_new_length@std@@YAXXZ ENDP		; std::_Throw_bad_array_new_length
_TEXT	ENDS
; Function compile flags: /Ogtp
; File C:\Program Files (x86)\Microsoft Visual Studio\2019\Community\VC\Tools\MSVC\14.28.29333\include\vcruntime_exception.h
;	COMDAT ??_Gbad_array_new_length@std@@UAEPAXI@Z
_TEXT	SEGMENT
___flags$ = 8						; size = 4
??_Gbad_array_new_length@std@@UAEPAXI@Z PROC		; std::bad_array_new_length::`scalar deleting destructor', COMDAT
; _this$ = ecx
  00000	55		 push	 ebp
  00001	8b ec		 mov	 ebp, esp

; 89   :     {

  00003	56		 push	 esi
  00004	8b f1		 mov	 esi, ecx

; 90   :         __std_exception_destroy(&_Data);

  00006	8d 46 04	 lea	 eax, DWORD PTR [esi+4]
  00009	c7 06 00 00 00
	00		 mov	 DWORD PTR [esi], OFFSET ??_7exception@std@@6B@
  0000f	50		 push	 eax
  00010	e8 00 00 00 00	 call	 ___std_exception_destroy
  00015	83 c4 04	 add	 esp, 4
  00018	f6 45 08 01	 test	 BYTE PTR ___flags$[ebp], 1
  0001c	74 0b		 je	 SHORT $LN12@scalar
  0001e	6a 0c		 push	 12			; 0000000cH
  00020	56		 push	 esi
  00021	e8 00 00 00 00	 call	 ??3@YAXPAXI@Z		; operator delete
  00026	83 c4 08	 add	 esp, 8
$LN12@scalar:
  00029	8b c6		 mov	 eax, esi
  0002b	5e		 pop	 esi
  0002c	5d		 pop	 ebp
  0002d	c2 04 00	 ret	 4
??_Gbad_array_new_length@std@@UAEPAXI@Z ENDP		; std::bad_array_new_length::`scalar deleting destructor'
_TEXT	ENDS
; Function compile flags: /Ogtp
; File C:\Program Files (x86)\Microsoft Visual Studio\2019\Community\VC\Tools\MSVC\14.28.29333\include\vcruntime_exception.h
;	COMDAT ??0bad_array_new_length@std@@QAE@ABV01@@Z
_TEXT	SEGMENT
___that$ = 8						; size = 4
??0bad_array_new_length@std@@QAE@ABV01@@Z PROC		; std::bad_array_new_length::bad_array_new_length, COMDAT
; _this$ = ecx
  00000	55		 push	 ebp
  00001	8b ec		 mov	 ebp, esp

; 72   :     {

  00003	56		 push	 esi
  00004	8b f1		 mov	 esi, ecx
  00006	0f 57 c0	 xorps	 xmm0, xmm0

; 71   :         : _Data()

  00009	8d 46 04	 lea	 eax, DWORD PTR [esi+4]

; 73   :         __std_exception_copy(&_Other._Data, &_Data);

  0000c	50		 push	 eax
  0000d	c7 06 00 00 00
	00		 mov	 DWORD PTR [esi], OFFSET ??_7exception@std@@6B@
  00013	66 0f d6 00	 movq	 QWORD PTR [eax], xmm0
  00017	8b 45 08	 mov	 eax, DWORD PTR ___that$[ebp]
  0001a	83 c0 04	 add	 eax, 4
  0001d	50		 push	 eax
  0001e	e8 00 00 00 00	 call	 ___std_exception_copy
  00023	83 c4 08	 add	 esp, 8
  00026	c7 06 00 00 00
	00		 mov	 DWORD PTR [esi], OFFSET ??_7bad_array_new_length@std@@6B@
  0002c	8b c6		 mov	 eax, esi
  0002e	5e		 pop	 esi
  0002f	5d		 pop	 ebp
  00030	c2 04 00	 ret	 4
??0bad_array_new_length@std@@QAE@ABV01@@Z ENDP		; std::bad_array_new_length::bad_array_new_length
_TEXT	ENDS
; Function compile flags: /Ogtp
; File C:\Program Files (x86)\Microsoft Visual Studio\2019\Community\VC\Tools\MSVC\14.28.29333\include\vcruntime_exception.h
;	COMDAT ??1bad_array_new_length@std@@UAE@XZ
_TEXT	SEGMENT
??1bad_array_new_length@std@@UAE@XZ PROC		; std::bad_array_new_length::~bad_array_new_length, COMDAT
; _this$ = ecx

; 90   :         __std_exception_destroy(&_Data);

  00000	8d 41 04	 lea	 eax, DWORD PTR [ecx+4]
  00003	c7 01 00 00 00
	00		 mov	 DWORD PTR [ecx], OFFSET ??_7exception@std@@6B@
  00009	50		 push	 eax
  0000a	e8 00 00 00 00	 call	 ___std_exception_destroy
  0000f	59		 pop	 ecx
  00010	c3		 ret	 0
??1bad_array_new_length@std@@UAE@XZ ENDP		; std::bad_array_new_length::~bad_array_new_length
_TEXT	ENDS
; Function compile flags: /Ogtp
; File C:\Program Files (x86)\Microsoft Visual Studio\2019\Community\VC\Tools\MSVC\14.28.29333\include\vcruntime_exception.h
;	COMDAT ??0bad_array_new_length@std@@QAE@XZ
_TEXT	SEGMENT
??0bad_array_new_length@std@@QAE@XZ PROC		; std::bad_array_new_length::bad_array_new_length, COMDAT
; _this$ = ecx

; 141  :     {

  00000	0f 57 c0	 xorps	 xmm0, xmm0

; 142  :     }

  00003	8b c1		 mov	 eax, ecx

; 65   :         : _Data()

  00005	66 0f d6 41 04	 movq	 QWORD PTR [ecx+4], xmm0

; 66   :     {
; 67   :         _Data._What = _Message;

  0000a	c7 41 04 00 00
	00 00		 mov	 DWORD PTR [ecx+4], OFFSET ??_C@_0BF@KINCDENJ@bad?5array?5new?5length@

; 141  :     {

  00011	c7 01 00 00 00
	00		 mov	 DWORD PTR [ecx], OFFSET ??_7bad_array_new_length@std@@6B@

; 142  :     }

  00017	c3		 ret	 0
??0bad_array_new_length@std@@QAE@XZ ENDP		; std::bad_array_new_length::bad_array_new_length
_TEXT	ENDS
; Function compile flags: /Ogtp
; File C:\Program Files (x86)\Microsoft Visual Studio\2019\Community\VC\Tools\MSVC\14.28.29333\include\vcruntime_exception.h
;	COMDAT ??_Gbad_alloc@std@@UAEPAXI@Z
_TEXT	SEGMENT
___flags$ = 8						; size = 4
??_Gbad_alloc@std@@UAEPAXI@Z PROC			; std::bad_alloc::`scalar deleting destructor', COMDAT
; _this$ = ecx
  00000	55		 push	 ebp
  00001	8b ec		 mov	 ebp, esp

; 89   :     {

  00003	56		 push	 esi
  00004	8b f1		 mov	 esi, ecx

; 90   :         __std_exception_destroy(&_Data);

  00006	8d 46 04	 lea	 eax, DWORD PTR [esi+4]
  00009	c7 06 00 00 00
	00		 mov	 DWORD PTR [esi], OFFSET ??_7exception@std@@6B@
  0000f	50		 push	 eax
  00010	e8 00 00 00 00	 call	 ___std_exception_destroy
  00015	83 c4 04	 add	 esp, 4
  00018	f6 45 08 01	 test	 BYTE PTR ___flags$[ebp], 1
  0001c	74 0b		 je	 SHORT $LN9@scalar
  0001e	6a 0c		 push	 12			; 0000000cH
  00020	56		 push	 esi
  00021	e8 00 00 00 00	 call	 ??3@YAXPAXI@Z		; operator delete
  00026	83 c4 08	 add	 esp, 8
$LN9@scalar:
  00029	8b c6		 mov	 eax, esi
  0002b	5e		 pop	 esi
  0002c	5d		 pop	 ebp
  0002d	c2 04 00	 ret	 4
??_Gbad_alloc@std@@UAEPAXI@Z ENDP			; std::bad_alloc::`scalar deleting destructor'
_TEXT	ENDS
; Function compile flags: /Ogtp
; File C:\Program Files (x86)\Microsoft Visual Studio\2019\Community\VC\Tools\MSVC\14.28.29333\include\vcruntime_exception.h
;	COMDAT ??0bad_alloc@std@@QAE@ABV01@@Z
_TEXT	SEGMENT
___that$ = 8						; size = 4
??0bad_alloc@std@@QAE@ABV01@@Z PROC			; std::bad_alloc::bad_alloc, COMDAT
; _this$ = ecx
  00000	55		 push	 ebp
  00001	8b ec		 mov	 ebp, esp

; 72   :     {

  00003	56		 push	 esi
  00004	8b f1		 mov	 esi, ecx
  00006	0f 57 c0	 xorps	 xmm0, xmm0

; 71   :         : _Data()

  00009	8d 46 04	 lea	 eax, DWORD PTR [esi+4]

; 73   :         __std_exception_copy(&_Other._Data, &_Data);

  0000c	50		 push	 eax
  0000d	c7 06 00 00 00
	00		 mov	 DWORD PTR [esi], OFFSET ??_7exception@std@@6B@
  00013	66 0f d6 00	 movq	 QWORD PTR [eax], xmm0
  00017	8b 45 08	 mov	 eax, DWORD PTR ___that$[ebp]
  0001a	83 c0 04	 add	 eax, 4
  0001d	50		 push	 eax
  0001e	e8 00 00 00 00	 call	 ___std_exception_copy
  00023	83 c4 08	 add	 esp, 8
  00026	c7 06 00 00 00
	00		 mov	 DWORD PTR [esi], OFFSET ??_7bad_alloc@std@@6B@
  0002c	8b c6		 mov	 eax, esi
  0002e	5e		 pop	 esi
  0002f	5d		 pop	 ebp
  00030	c2 04 00	 ret	 4
??0bad_alloc@std@@QAE@ABV01@@Z ENDP			; std::bad_alloc::bad_alloc
_TEXT	ENDS
; Function compile flags: /Ogtp
; File C:\Program Files (x86)\Microsoft Visual Studio\2019\Community\VC\Tools\MSVC\14.28.29333\include\vcruntime_exception.h
;	COMDAT ??_Gexception@std@@UAEPAXI@Z
_TEXT	SEGMENT
___flags$ = 8						; size = 4
??_Gexception@std@@UAEPAXI@Z PROC			; std::exception::`scalar deleting destructor', COMDAT
; _this$ = ecx
  00000	55		 push	 ebp
  00001	8b ec		 mov	 ebp, esp

; 89   :     {

  00003	56		 push	 esi
  00004	8b f1		 mov	 esi, ecx

; 90   :         __std_exception_destroy(&_Data);

  00006	8d 46 04	 lea	 eax, DWORD PTR [esi+4]
  00009	c7 06 00 00 00
	00		 mov	 DWORD PTR [esi], OFFSET ??_7exception@std@@6B@
  0000f	50		 push	 eax
  00010	e8 00 00 00 00	 call	 ___std_exception_destroy
  00015	83 c4 04	 add	 esp, 4
  00018	f6 45 08 01	 test	 BYTE PTR ___flags$[ebp], 1
  0001c	74 0b		 je	 SHORT $LN6@scalar
  0001e	6a 0c		 push	 12			; 0000000cH
  00020	56		 push	 esi
  00021	e8 00 00 00 00	 call	 ??3@YAXPAXI@Z		; operator delete
  00026	83 c4 08	 add	 esp, 8
$LN6@scalar:
  00029	8b c6		 mov	 eax, esi
  0002b	5e		 pop	 esi
  0002c	5d		 pop	 ebp
  0002d	c2 04 00	 ret	 4
??_Gexception@std@@UAEPAXI@Z ENDP			; std::exception::`scalar deleting destructor'
_TEXT	ENDS
; Function compile flags: /Ogtp
; File C:\Program Files (x86)\Microsoft Visual Studio\2019\Community\VC\Tools\MSVC\14.28.29333\include\vcruntime_exception.h
;	COMDAT ?what@exception@std@@UBEPBDXZ
_TEXT	SEGMENT
?what@exception@std@@UBEPBDXZ PROC			; std::exception::what, COMDAT
; _this$ = ecx

; 95   :         return _Data._What ? _Data._What : "Unknown exception";

  00000	8b 49 04	 mov	 ecx, DWORD PTR [ecx+4]
  00003	b8 00 00 00 00	 mov	 eax, OFFSET ??_C@_0BC@EOODALEL@Unknown?5exception@
  00008	85 c9		 test	 ecx, ecx
  0000a	0f 45 c1	 cmovne	 eax, ecx

; 96   :     }

  0000d	c3		 ret	 0
?what@exception@std@@UBEPBDXZ ENDP			; std::exception::what
_TEXT	ENDS
; Function compile flags: /Ogtp
; File C:\Program Files (x86)\Microsoft Visual Studio\2019\Community\VC\Tools\MSVC\14.28.29333\include\vcruntime_exception.h
;	COMDAT ??1exception@std@@UAE@XZ
_TEXT	SEGMENT
??1exception@std@@UAE@XZ PROC				; std::exception::~exception, COMDAT
; _this$ = ecx

; 90   :         __std_exception_destroy(&_Data);

  00000	8d 41 04	 lea	 eax, DWORD PTR [ecx+4]
  00003	c7 01 00 00 00
	00		 mov	 DWORD PTR [ecx], OFFSET ??_7exception@std@@6B@
  00009	50		 push	 eax
  0000a	e8 00 00 00 00	 call	 ___std_exception_destroy
  0000f	59		 pop	 ecx

; 91   :     }

  00010	c3		 ret	 0
??1exception@std@@UAE@XZ ENDP				; std::exception::~exception
_TEXT	ENDS
; Function compile flags: /Ogtp
; File C:\Program Files (x86)\Microsoft Visual Studio\2019\Community\VC\Tools\MSVC\14.28.29333\include\vcruntime_exception.h
;	COMDAT ??0exception@std@@QAE@ABV01@@Z
_TEXT	SEGMENT
__Other$ = 8						; size = 4
??0exception@std@@QAE@ABV01@@Z PROC			; std::exception::exception, COMDAT
; _this$ = ecx

; 72   :     {

  00000	55		 push	 ebp
  00001	8b ec		 mov	 ebp, esp
  00003	56		 push	 esi
  00004	8b f1		 mov	 esi, ecx
  00006	0f 57 c0	 xorps	 xmm0, xmm0
  00009	8d 46 04	 lea	 eax, DWORD PTR [esi+4]

; 73   :         __std_exception_copy(&_Other._Data, &_Data);

  0000c	50		 push	 eax
  0000d	c7 06 00 00 00
	00		 mov	 DWORD PTR [esi], OFFSET ??_7exception@std@@6B@
  00013	66 0f d6 00	 movq	 QWORD PTR [eax], xmm0
  00017	8b 45 08	 mov	 eax, DWORD PTR __Other$[ebp]
  0001a	83 c0 04	 add	 eax, 4
  0001d	50		 push	 eax
  0001e	e8 00 00 00 00	 call	 ___std_exception_copy
  00023	83 c4 08	 add	 esp, 8

; 74   :     }

  00026	8b c6		 mov	 eax, esi
  00028	5e		 pop	 esi
  00029	5d		 pop	 ebp
  0002a	c2 04 00	 ret	 4
??0exception@std@@QAE@ABV01@@Z ENDP			; std::exception::exception
_TEXT	ENDS
; Function compile flags: /Ogtp
;	COMDAT ??_H@YGXPAXIIP6EPAX0@Z@Z
_TEXT	SEGMENT
___t$ = 8						; size = 4
___s$ = 12						; size = 4
___n$ = 16						; size = 4
___f$ = 20						; size = 4
??_H@YGXPAXIIP6EPAX0@Z@Z PROC				; `vector constructor iterator', COMDAT
  00000	55		 push	 ebp
  00001	8b ec		 mov	 ebp, esp
  00003	56		 push	 esi
  00004	8b 75 10	 mov	 esi, DWORD PTR ___n$[ebp]
  00007	85 f6		 test	 esi, esi
  00009	74 16		 je	 SHORT $LN6@vector
  0000b	53		 push	 ebx
  0000c	8b 5d 14	 mov	 ebx, DWORD PTR ___f$[ebp]
  0000f	57		 push	 edi
  00010	8b 7d 08	 mov	 edi, DWORD PTR ___t$[ebp]
$LL2@vector:
  00013	8b cf		 mov	 ecx, edi
  00015	ff d3		 call	 ebx
  00017	03 7d 0c	 add	 edi, DWORD PTR ___s$[ebp]
  0001a	83 ee 01	 sub	 esi, 1
  0001d	75 f4		 jne	 SHORT $LL2@vector
  0001f	5f		 pop	 edi
  00020	5b		 pop	 ebx
$LN6@vector:
  00021	5e		 pop	 esi
  00022	5d		 pop	 ebp
  00023	c2 10 00	 ret	 16			; 00000010H
??_H@YGXPAXIIP6EPAX0@Z@Z ENDP				; `vector constructor iterator'
_TEXT	ENDS
END
