; Listing generated by Microsoft (R) Optimizing Compiler Version 19.28.29335.0 

	TITLE	D:\Metin2 Server Files\mainline\SRC_2014\Metin2Client\UserInterface\PythonBackgroundModule.cpp
	.686P
	.XMM
	include listing.inc
	.model	flat

INCLUDELIB LIBCMT
INCLUDELIB OLDNAMES

PUBLIC	??_H@YGXPAXIIP6EPAX0@Z@Z			; `vector constructor iterator'
PUBLIC	___local_stdio_printf_options
PUBLIC	__snprintf
PUBLIC	??0exception@std@@QAE@ABV01@@Z			; std::exception::exception
PUBLIC	??1exception@std@@UAE@XZ			; std::exception::~exception
PUBLIC	?what@exception@std@@UBEPBDXZ			; std::exception::what
PUBLIC	??_Gexception@std@@UAEPAXI@Z			; std::exception::`scalar deleting destructor'
PUBLIC	??0bad_alloc@std@@QAE@ABV01@@Z			; std::bad_alloc::bad_alloc
PUBLIC	??_Gbad_alloc@std@@UAEPAXI@Z			; std::bad_alloc::`scalar deleting destructor'
PUBLIC	??0bad_array_new_length@std@@QAE@XZ		; std::bad_array_new_length::bad_array_new_length
PUBLIC	??1bad_array_new_length@std@@UAE@XZ		; std::bad_array_new_length::~bad_array_new_length
PUBLIC	??0bad_array_new_length@std@@QAE@ABV01@@Z	; std::bad_array_new_length::bad_array_new_length
PUBLIC	??_Gbad_array_new_length@std@@UAEPAXI@Z		; std::bad_array_new_length::`scalar deleting destructor'
PUBLIC	?_Throw_bad_array_new_length@std@@YAXXZ		; std::_Throw_bad_array_new_length
PUBLIC	?_Xlen_string@std@@YAXXZ			; std::_Xlen_string
PUBLIC	??1?$basic_string@DU?$char_traits@D@std@@V?$allocator@D@2@@std@@QAE@XZ ; std::basic_string<char,std::char_traits<char>,std::allocator<char> >::~basic_string<char,std::char_traits<char>,std::allocator<char> >
PUBLIC	?assign@?$basic_string@DU?$char_traits@D@std@@V?$allocator@D@2@@std@@QAEAAV12@QBDI@Z ; std::basic_string<char,std::char_traits<char>,std::allocator<char> >::assign
PUBLIC	?initBackground@@YAXXZ				; initBackground
PUBLIC	??$_Destroy_in_place@PAD@std@@YAXAAPAD@Z	; std::_Destroy_in_place<char *>
PUBLIC	??$_Construct_in_place@PADABQAD@std@@YAXAAPADABQAD@Z ; std::_Construct_in_place<char *,char * const &>
PUBLIC	??$_Deallocate@$07$0A@@std@@YAXPAXI@Z		; std::_Deallocate<8,0>
PUBLIC	??$_Allocate@$07U_Default_allocate_traits@std@@$0A@@std@@YAPAXI@Z ; std::_Allocate<8,std::_Default_allocate_traits,0>
PUBLIC	??$_Allocate_manually_vector_aligned@U_Default_allocate_traits@std@@@std@@YAPAXI@Z ; std::_Allocate_manually_vector_aligned<std::_Default_allocate_traits>
PUBLIC	?backgroundIsSoftwareTiling@@YAPAU_object@@PAU1@0@Z ; backgroundIsSoftwareTiling
PUBLIC	?backgroundEnableSoftwareTiling@@YAPAU_object@@PAU1@0@Z ; backgroundEnableSoftwareTiling
PUBLIC	?backgroundEnableSnow@@YAPAU_object@@PAU1@0@Z	; backgroundEnableSnow
PUBLIC	?backgroundLoadMap@@YAPAU_object@@PAU1@0@Z	; backgroundLoadMap
PUBLIC	?backgroundDestroy@@YAPAU_object@@PAU1@0@Z	; backgroundDestroy
PUBLIC	?backgroundRegisterEnvironmentData@@YAPAU_object@@PAU1@0@Z ; backgroundRegisterEnvironmentData
PUBLIC	?backgroundSetEnvironmentData@@YAPAU_object@@PAU1@0@Z ; backgroundSetEnvironmentData
PUBLIC	?backgroundGetCurrentMapName@@YAPAU_object@@PAU1@0@Z ; backgroundGetCurrentMapName
PUBLIC	?backgroundGetPickingPoint@@YAPAU_object@@PAU1@0@Z ; backgroundGetPickingPoint
PUBLIC	?backgroundBeginEnvironment@@YAPAU_object@@PAU1@0@Z ; backgroundBeginEnvironment
PUBLIC	?backgroundEndEnvironemt@@YAPAU_object@@PAU1@0@Z ; backgroundEndEnvironemt
PUBLIC	?backgroundSetCharacterDirLight@@YAPAU_object@@PAU1@0@Z ; backgroundSetCharacterDirLight
PUBLIC	?backgroundSetBackgroundDirLight@@YAPAU_object@@PAU1@0@Z ; backgroundSetBackgroundDirLight
PUBLIC	?backgroundInitialize@@YAPAU_object@@PAU1@0@Z	; backgroundInitialize
PUBLIC	?backgroundUpdate@@YAPAU_object@@PAU1@0@Z	; backgroundUpdate
PUBLIC	?backgroundRender@@YAPAU_object@@PAU1@0@Z	; backgroundRender
PUBLIC	?backgroundRenderPCBlocker@@YAPAU_object@@PAU1@0@Z ; backgroundRenderPCBlocker
PUBLIC	?backgroundRenderCollision@@YAPAU_object@@PAU1@0@Z ; backgroundRenderCollision
PUBLIC	?backgroundRenderSky@@YAPAU_object@@PAU1@0@Z	; backgroundRenderSky
PUBLIC	?backgroundRenderCloud@@YAPAU_object@@PAU1@0@Z	; backgroundRenderCloud
PUBLIC	?backgroundRenderWater@@YAPAU_object@@PAU1@0@Z	; backgroundRenderWater
PUBLIC	?backgroundRenderEffect@@YAPAU_object@@PAU1@0@Z	; backgroundRenderEffect
PUBLIC	?backgroundRenderBeforeLensFlare@@YAPAU_object@@PAU1@0@Z ; backgroundRenderBeforeLensFlare
PUBLIC	?backgroundRenderAfterLensFlare@@YAPAU_object@@PAU1@0@Z ; backgroundRenderAfterLensFlare
PUBLIC	?backgroundRenderCharacterShadowToTexture@@YAPAU_object@@PAU1@0@Z ; backgroundRenderCharacterShadowToTexture
PUBLIC	?backgroundRenderDungeon@@YAPAU_object@@PAU1@0@Z ; backgroundRenderDungeon
PUBLIC	?backgroundGetHeight@@YAPAU_object@@PAU1@0@Z	; backgroundGetHeight
PUBLIC	?backgroundGetRenderedSplatNum@@YAPAU_object@@PAU1@0@Z ; backgroundGetRenderedSplatNum
PUBLIC	?backgroundGetRenderedGTINum@@YAPAU_object@@PAU1@0@Z ; backgroundGetRenderedGTINum
PUBLIC	?backgroundGetRenderShadowTime@@YAPAU_object@@PAU1@0@Z ; backgroundGetRenderShadowTime
PUBLIC	?backgroundGetShadowMapcolor@@YAPAU_object@@PAU1@0@Z ; backgroundGetShadowMapcolor
PUBLIC	?backgroundSetShadowLevel@@YAPAU_object@@PAU1@0@Z ; backgroundSetShadowLevel
PUBLIC	?backgroundSetVisiblePart@@YAPAU_object@@PAU1@0@Z ; backgroundSetVisiblePart
PUBLIC	?backgroundSetSpaltLimit@@YAPAU_object@@PAU1@0@Z ; backgroundSetSpaltLimit
PUBLIC	?backgroundSelectViewDistanceNum@@YAPAU_object@@PAU1@0@Z ; backgroundSelectViewDistanceNum
PUBLIC	?backgroundSetViewDistanceSet@@YAPAU_object@@PAU1@0@Z ; backgroundSetViewDistanceSet
PUBLIC	?backgroundGetFarClip@@YAPAU_object@@PAU1@0@Z	; backgroundGetFarClip
PUBLIC	?backgroundGetDistanceSetInfo@@YAPAU_object@@PAU1@0@Z ; backgroundGetDistanceSetInfo
PUBLIC	?backgroundSetBGLoading@@YAPAU_object@@PAU1@0@Z	; backgroundSetBGLoading
PUBLIC	?backgroundSetRenderSort@@YAPAU_object@@PAU1@0@Z ; backgroundSetRenderSort
PUBLIC	?backgroundSetTransparentTree@@YAPAU_object@@PAU1@0@Z ; backgroundSetTransparentTree
PUBLIC	?backgroundGlobalPositionToLocalPosition@@YAPAU_object@@PAU1@0@Z ; backgroundGlobalPositionToLocalPosition
PUBLIC	?backgroundGlobalPositionToMapInfo@@YAPAU_object@@PAU1@0@Z ; backgroundGlobalPositionToMapInfo
PUBLIC	?backgroundWarpTest@@YAPAU_object@@PAU1@0@Z	; backgroundWarpTest
PUBLIC	?backgroundSetXMasTree@@YAPAU_object@@PAU1@0@Z	; backgroundSetXMasTree
PUBLIC	?backgroundRegisterDungeonMapName@@YAPAU_object@@PAU1@0@Z ; backgroundRegisterDungeonMapName
PUBLIC	?backgroundVisibleGuildArea@@YAPAU_object@@PAU1@0@Z ; backgroundVisibleGuildArea
PUBLIC	?backgroundDisableGuildArea@@YAPAU_object@@PAU1@0@Z ; backgroundDisableGuildArea
PUBLIC	?_OptionsStorage@?1??__local_stdio_printf_options@@9@4_KA ; `__local_stdio_printf_options'::`2'::_OptionsStorage
PUBLIC	??_7exception@std@@6B@				; std::exception::`vftable'
PUBLIC	??_C@_0BC@EOODALEL@Unknown?5exception@		; `string'
PUBLIC	??_7bad_alloc@std@@6B@				; std::bad_alloc::`vftable'
PUBLIC	??_7bad_array_new_length@std@@6B@		; std::bad_array_new_length::`vftable'
PUBLIC	??_C@_0BF@KINCDENJ@bad?5array?5new?5length@	; `string'
PUBLIC	__TI3?AVbad_array_new_length@std@@
PUBLIC	__CTA3?AVbad_array_new_length@std@@
PUBLIC	??_R0?AVbad_array_new_length@std@@@8		; std::bad_array_new_length `RTTI Type Descriptor'
PUBLIC	__CT??_R0?AVbad_array_new_length@std@@@8??0bad_array_new_length@std@@QAE@ABV01@@Z12
PUBLIC	??_R0?AVbad_alloc@std@@@8			; std::bad_alloc `RTTI Type Descriptor'
PUBLIC	__CT??_R0?AVbad_alloc@std@@@8??0bad_alloc@std@@QAE@ABV01@@Z12
PUBLIC	??_R0?AVexception@std@@@8			; std::exception `RTTI Type Descriptor'
PUBLIC	__CT??_R0?AVexception@std@@@8??0exception@std@@QAE@ABV01@@Z12
PUBLIC	??_C@_0BA@JFNIOLAK@string?5too?5long@		; `string'
PUBLIC	??_C@_00CNPNBAHC@@				; `string'
PUBLIC	??_R4exception@std@@6B@				; std::exception::`RTTI Complete Object Locator'
PUBLIC	??_R3exception@std@@8				; std::exception::`RTTI Class Hierarchy Descriptor'
PUBLIC	??_R2exception@std@@8				; std::exception::`RTTI Base Class Array'
PUBLIC	??_R1A@?0A@EA@exception@std@@8			; std::exception::`RTTI Base Class Descriptor at (0,-1,0,64)'
PUBLIC	??_R4bad_alloc@std@@6B@				; std::bad_alloc::`RTTI Complete Object Locator'
PUBLIC	??_R3bad_alloc@std@@8				; std::bad_alloc::`RTTI Class Hierarchy Descriptor'
PUBLIC	??_R2bad_alloc@std@@8				; std::bad_alloc::`RTTI Base Class Array'
PUBLIC	??_R1A@?0A@EA@bad_alloc@std@@8			; std::bad_alloc::`RTTI Base Class Descriptor at (0,-1,0,64)'
PUBLIC	??_R4bad_array_new_length@std@@6B@		; std::bad_array_new_length::`RTTI Complete Object Locator'
PUBLIC	??_R3bad_array_new_length@std@@8		; std::bad_array_new_length::`RTTI Class Hierarchy Descriptor'
PUBLIC	??_R2bad_array_new_length@std@@8		; std::bad_array_new_length::`RTTI Base Class Array'
PUBLIC	??_R1A@?0A@EA@bad_array_new_length@std@@8	; std::bad_array_new_length::`RTTI Base Class Descriptor at (0,-1,0,64)'
PUBLIC	?ms_singleton@?$CSingleton@VCPythonSystem@@@@0PAVCPythonSystem@@A ; CSingleton<CPythonSystem>::ms_singleton
PUBLIC	?ms_singleton@?$CSingleton@VCPythonBackground@@@@0PAVCPythonBackground@@A ; CSingleton<CPythonBackground>::ms_singleton
PUBLIC	??_C@_01KBJDNOO@i@				; `string'
PUBLIC	??_C@_0EI@HLELLDPI@background?4RegisterEnvironmentD@ ; `string'
PUBLIC	??_C@_01LKDEMHDF@s@				; `string'
PUBLIC	??_C@_03LPALPDIP@fff@				; `string'
PUBLIC	??_C@_01INIBCBCB@f@				; `string'
PUBLIC	??_C@_03JDANDILB@?$CFd?5@			; `string'
PUBLIC	??_C@_04KDJJDIPA@iifs@				; `string'
PUBLIC	??_C@_02PDIHAGKM@ii@				; `string'
PUBLIC	??_C@_0CC@JHPGFABG@ePart?$CI?$CFd?$CJ?$DMbackground?4PART_NUM?$CI?$CF@ ; `string'
PUBLIC	??_C@_0CL@HHHOJMJN@background?4SetSplatLimit?$CIiSplat@ ; `string'
PUBLIC	??_C@_04MMEPMOLC@ifff@				; `string'
PUBLIC	??_C@_03FEAIAPNA@sii@				; `string'
PUBLIC	??_C@_0BB@BFKDCFBH@IsSoftwareTiling@		; `string'
PUBLIC	??_C@_0BF@ODLMFADE@EnableSoftwareTiling@	; `string'
PUBLIC	??_C@_0L@LGAPBDCD@EnableSnow@			; `string'
PUBLIC	??_C@_0BO@OIANPCLB@GlobalPositionToLocalPosition@ ; `string'
PUBLIC	??_C@_0BI@NCKBLOGC@GlobalPositionToMapInfo@	; `string'
PUBLIC	??_C@_0BE@LMGPCAD@GetRenderShadowTime@		; `string'
PUBLIC	??_C@_07DJFPJOEL@LoadMap@			; `string'
PUBLIC	??_C@_07BDCAJABG@Destroy@			; `string'
PUBLIC	??_C@_0BI@CHPHFBLI@RegisterEnvironmentData@	; `string'
PUBLIC	??_C@_0BD@BHFOHELP@SetEnvironmentData@		; `string'
PUBLIC	??_C@_0BC@DINKEDB@GetCurrentMapName@		; `string'
PUBLIC	??_C@_0BA@DNJBOOGC@GetPickingPoint@		; `string'
PUBLIC	??_C@_0BB@JHBDNCLO@BeginEnvironment@		; `string'
PUBLIC	??_C@_0P@DMJMMGKP@EndEnvironment@		; `string'
PUBLIC	??_C@_0BF@DFKOLKBM@SetCharacterDirLight@	; `string'
PUBLIC	??_C@_0BG@PNPLCIKE@SetBackgroundDirLight@	; `string'
PUBLIC	??_C@_0L@KIAPHAEH@Initialize@			; `string'
PUBLIC	??_C@_06LMAGPFNF@Update@			; `string'
PUBLIC	??_C@_06EPLDPNDB@Render@			; `string'
PUBLIC	??_C@_0BA@FDBALAKK@RenderPCBlocker@		; `string'
PUBLIC	??_C@_0BA@OAOAOPAN@RenderCollision@		; `string'
PUBLIC	??_C@_09LFBELEBM@RenderSky@			; `string'
PUBLIC	??_C@_0M@LNFEENAM@RenderCloud@			; `string'
PUBLIC	??_C@_0M@FKCFAPAJ@RenderWater@			; `string'
PUBLIC	??_C@_0N@NIFFJBKD@RenderEffect@			; `string'
PUBLIC	??_C@_0BG@FMKIIHNL@RenderBeforeLensFlare@	; `string'
PUBLIC	??_C@_0BF@IFHDODFN@RenderAfterLensFlare@	; `string'
PUBLIC	??_C@_0BP@HPJLNAG@RenderCharacterShadowToTexture@ ; `string'
PUBLIC	??_C@_0O@INGOKFGH@RenderDungeon@		; `string'
PUBLIC	??_C@_09EOGEIJMK@GetHeight@			; `string'
PUBLIC	??_C@_0P@JLOPHJNK@SetShadowLevel@		; `string'
PUBLIC	??_C@_0P@PBNEJLOP@SetVisiblePart@		; `string'
PUBLIC	??_C@_0BC@CCJLGKJP@GetShadowMapColor@		; `string'
PUBLIC	??_C@_0O@MBDLBPAA@SetSplatLimit@		; `string'
PUBLIC	??_C@_0BE@OLLMHPAP@GetRenderedSplatNum@		; `string'
PUBLIC	??_C@_0CD@KCFKJMJJ@GetRenderedGraphicThingInstance@ ; `string'
PUBLIC	??_C@_0BG@HJLACBME@SelectViewDistanceNum@	; `string'
PUBLIC	??_C@_0BD@MAFLMANF@SetViewDistanceSet@		; `string'
PUBLIC	??_C@_0L@HDMJNMBI@GetFarClip@			; `string'
PUBLIC	??_C@_0BD@DLMMDNAG@GetDistanceSetInfo@		; `string'
PUBLIC	??_C@_0N@BIHACEOH@SetBGLoading@			; `string'
PUBLIC	??_C@_0O@JBGHJBE@SetRenderSort@			; `string'
PUBLIC	??_C@_0BD@FPJHLEBA@SetTransparentTree@		; `string'
PUBLIC	??_C@_0M@JALIDFKN@SetXMasTree@			; `string'
PUBLIC	??_C@_0BH@MNHHOIMG@RegisterDungeonMapName@	; `string'
PUBLIC	??_C@_0BB@CIANHCAN@VisibleGuildArea@		; `string'
PUBLIC	??_C@_0BB@NIDJGFIB@DisableGuildArea@		; `string'
PUBLIC	??_C@_08LPNOKPMJ@WarpTest@			; `string'
PUBLIC	??_C@_0L@EGCKCJDC@background@			; `string'
PUBLIC	??_C@_08NJILKGEB@PART_SKY@			; `string'
PUBLIC	??_C@_09GABNPPB@PART_TREE@			; `string'
PUBLIC	??_C@_0L@OMDBBBIA@PART_CLOUD@			; `string'
PUBLIC	??_C@_0L@LEAFDIF@PART_WATER@			; `string'
PUBLIC	??_C@_0M@FDJPOPAP@PART_OBJECT@			; `string'
PUBLIC	??_C@_0N@JJNCMAMK@PART_TERRAIN@			; `string'
PUBLIC	??_C@_0BI@KFLFFAKF@SKY_RENDER_MODE_DEFAULT@	; `string'
PUBLIC	??_C@_0BI@JEJGCBJM@SKY_RENDER_MODE_DIFFUSE@	; `string'
PUBLIC	??_C@_0BI@NLDLHPN@SKY_RENDER_MODE_TEXTURE@	; `string'
PUBLIC	??_C@_0BJ@IGDGIPGO@SKY_RENDER_MODE_MODULATE@	; `string'
PUBLIC	??_C@_0BL@NDPELIAM@SKY_RENDER_MODE_MODULATE2X@	; `string'
PUBLIC	??_C@_0BL@NHHJMELO@SKY_RENDER_MODE_MODULATE4X@	; `string'
PUBLIC	??_C@_0M@GJOLHPMA@SHADOW_NONE@			; `string'
PUBLIC	??_C@_0O@KCPINCHK@SHADOW_GROUND@		; `string'
PUBLIC	??_C@_0BH@GACINHHJ@SHADOW_GROUND_AND_SOLO@	; `string'
PUBLIC	??_C@_0L@IDBIEHAB@SHADOW_ALL@			; `string'
PUBLIC	??_C@_0BA@HAKJACB@SHADOW_ALL_HIGH@		; `string'
PUBLIC	??_C@_0P@OLMEFOLC@SHADOW_ALL_MAX@		; `string'
PUBLIC	??_C@_09PGFHANGE@DISTANCE0@			; `string'
PUBLIC	??_C@_09OPEMDMCF@DISTANCE1@			; `string'
PUBLIC	??_C@_09MEGBGPOG@DISTANCE2@			; `string'
PUBLIC	??_C@_09NNHKFOKH@DISTANCE3@			; `string'
PUBLIC	??_C@_09JCDLMIGA@DISTANCE4@			; `string'
PUBLIC	??_C@_0O@OJDBENMM@DISTANCE_SORT@		; `string'
PUBLIC	??_C@_0N@CKPMLBKJ@TEXTURE_SORT@			; `string'
PUBLIC	__xmm@80000000800000008000000080000000
EXTRN	??2@YAPAXI@Z:PROC				; operator new
EXTRN	??3@YAXPAXI@Z:PROC				; operator delete
EXTRN	__invalid_parameter_noinfo_noreturn:PROC
EXTRN	___stdio_common_vsprintf:PROC
EXTRN	___std_exception_copy:PROC
EXTRN	___std_exception_destroy:PROC
EXTRN	??_Eexception@std@@UAEPAXI@Z:PROC		; std::exception::`vector deleting destructor'
EXTRN	??_Ebad_alloc@std@@UAEPAXI@Z:PROC		; std::bad_alloc::`vector deleting destructor'
EXTRN	??_Ebad_array_new_length@std@@UAEPAXI@Z:PROC	; std::bad_array_new_length::`vector deleting destructor'
EXTRN	?_Xlength_error@std@@YAXPBD@Z:PROC		; std::_Xlength_error
EXTRN	?TraceError@@YAXPBDZZ:PROC			; TraceError
EXTRN	__imp__Py_BuildValue:PROC
EXTRN	__imp__PyModule_AddIntConstant:PROC
EXTRN	__imp__Py_InitModule4:PROC
EXTRN	?PyTuple_GetString@@YA_NPAU_object@@HPAPAD@Z:PROC ; PyTuple_GetString
EXTRN	?PyTuple_GetInteger@@YA_NPAU_object@@HPAH@Z:PROC ; PyTuple_GetInteger
EXTRN	?PyTuple_GetFloat@@YA_NPAU_object@@HPAM@Z:PROC	; PyTuple_GetFloat
EXTRN	?PyTuple_GetBoolean@@YA_NPAU_object@@HPA_N@Z:PROC ; PyTuple_GetBoolean
EXTRN	?Py_BuildException@@YAPAU_object@@PBDZZ:PROC	; Py_BuildException
EXTRN	?Py_BadArgument@@YAPAU_object@@XZ:PROC		; Py_BadArgument
EXTRN	?Py_BuildNone@@YAPAU_object@@XZ:PROC		; Py_BuildNone
EXTRN	?SetSoftwareTiling@CPythonSystem@@QAEX_N@Z:PROC	; CPythonSystem::SetSoftwareTiling
EXTRN	?IsSoftwareTilingEnable@CMapManager@@QAE_NXZ:PROC ; CMapManager::IsSoftwareTilingEnable
EXTRN	?ReserveSoftwareTilingEnable@CMapManager@@QAEX_N@Z:PROC ; CMapManager::ReserveSoftwareTilingEnable
EXTRN	?GetHeight@CMapManager@@QAEMMM@Z:PROC		; CMapManager::GetHeight
EXTRN	?ResetEnvironmentDataPtr@CMapManager@@QAEXPBUSEnvironmentData@@@Z:PROC ; CMapManager::ResetEnvironmentDataPtr
EXTRN	?BeginEnvironment@CMapManager@@QAEXXZ:PROC	; CMapManager::BeginEnvironment
EXTRN	?EndEnvironment@CMapManager@@QAEXXZ:PROC	; CMapManager::EndEnvironment
EXTRN	?RegisterEnvironmentData@CMapManager@@QAE_NKPBD@Z:PROC ; CMapManager::RegisterEnvironmentData
EXTRN	?GetEnvironmentData@CMapManager@@QAE_NKPAPBUSEnvironmentData@@@Z:PROC ; CMapManager::GetEnvironmentData
EXTRN	?GetShadowMapColor@CMapManager@@QAEKMM@Z:PROC	; CMapManager::GetShadowMapColor
EXTRN	?GetRenderedSplatNum@CMapManager@@QAEAAV?$vector@HV?$allocator@H@std@@@std@@PAH0PAM@Z:PROC ; CMapManager::GetRenderedSplatNum
EXTRN	?GetRenderedGraphicThingInstanceNum@CMapManager@@QAEAAV?$vector@USCRCWithNumber@CArea@@V?$allocator@USCRCWithNumber@CArea@@@std@@@std@@PAK0@Z:PROC ; CMapManager::GetRenderedGraphicThingInstanceNum
EXTRN	?SetTerrainRenderSort@CMapManager@@QAEXW4ETerrainRenderSort@CMapOutdoor@@@Z:PROC ; CMapManager::SetTerrainRenderSort
EXTRN	?SetTransparentTree@CMapManager@@QAEX_N@Z:PROC	; CMapManager::SetTransparentTree
EXTRN	?Destroy@CPythonBackground@@QAEXXZ:PROC		; CPythonBackground::Destroy
EXTRN	?Create@CPythonBackground@@QAEXXZ:PROC		; CPythonBackground::Create
EXTRN	?GlobalPositionToLocalPosition@CPythonBackground@@QAEXAAJ0@Z:PROC ; CPythonBackground::GlobalPositionToLocalPosition
EXTRN	?SetSplatLimit@CPythonBackground@@QAE_NH@Z:PROC	; CPythonBackground::SetSplatLimit
EXTRN	?SetVisiblePart@CPythonBackground@@QAE_NH_N@Z:PROC ; CPythonBackground::SetVisiblePart
EXTRN	?SetShadowLevel@CPythonBackground@@QAE_NH@Z:PROC ; CPythonBackground::SetShadowLevel
EXTRN	?SelectViewDistanceNum@CPythonBackground@@QAEXH@Z:PROC ; CPythonBackground::SelectViewDistanceNum
EXTRN	?SetViewDistanceSet@CPythonBackground@@QAEXHM@Z:PROC ; CPythonBackground::SetViewDistanceSet
EXTRN	?GetFarClip@CPythonBackground@@QAEMXZ:PROC	; CPythonBackground::GetFarClip
EXTRN	?GetRenderShadowTime@CPythonBackground@@QAEKXZ:PROC ; CPythonBackground::GetRenderShadowTime
EXTRN	?GetDistanceSetInfo@CPythonBackground@@QAEXPAHPAM11@Z:PROC ; CPythonBackground::GetDistanceSetInfo
EXTRN	?GetPickingPoint@CPythonBackground@@QAE_NPAUD3DXVECTOR3@@@Z:PROC ; CPythonBackground::GetPickingPoint
EXTRN	?Update@CPythonBackground@@QAEXMMM@Z:PROC	; CPythonBackground::Update
EXTRN	?Render@CPythonBackground@@QAEXXZ:PROC		; CPythonBackground::Render
EXTRN	?RenderPCBlocker@CPythonBackground@@QAEXXZ:PROC	; CPythonBackground::RenderPCBlocker
EXTRN	?RenderCollision@CPythonBackground@@QAEXXZ:PROC	; CPythonBackground::RenderCollision
EXTRN	?RenderCharacterShadowToTexture@CPythonBackground@@QAEXXZ:PROC ; CPythonBackground::RenderCharacterShadowToTexture
EXTRN	?RenderSky@CPythonBackground@@QAEXXZ:PROC	; CPythonBackground::RenderSky
EXTRN	?RenderCloud@CPythonBackground@@QAEXXZ:PROC	; CPythonBackground::RenderCloud
EXTRN	?RenderWater@CPythonBackground@@QAEXXZ:PROC	; CPythonBackground::RenderWater
EXTRN	?RenderEffect@CPythonBackground@@QAEXXZ:PROC	; CPythonBackground::RenderEffect
EXTRN	?RenderBeforeLensFlare@CPythonBackground@@QAEXXZ:PROC ; CPythonBackground::RenderBeforeLensFlare
EXTRN	?RenderAfterLensFlare@CPythonBackground@@QAEXXZ:PROC ; CPythonBackground::RenderAfterLensFlare
EXTRN	?SetCharacterDirLight@CPythonBackground@@QAEXXZ:PROC ; CPythonBackground::SetCharacterDirLight
EXTRN	?SetBackgroundDirLight@CPythonBackground@@QAEXXZ:PROC ; CPythonBackground::SetBackgroundDirLight
EXTRN	?EnableSnowEnvironment@CPythonBackground@@QAEXXZ:PROC ; CPythonBackground::EnableSnowEnvironment
EXTRN	?DisableSnowEnvironment@CPythonBackground@@QAEXXZ:PROC ; CPythonBackground::DisableSnowEnvironment
EXTRN	?SetXMaxTree@CPythonBackground@@QAEXH@Z:PROC	; CPythonBackground::SetXMaxTree
EXTRN	?Warp@CPythonBackground@@QAEXKK@Z:PROC		; CPythonBackground::Warp
EXTRN	?VisibleGuildArea@CPythonBackground@@QAEXXZ:PROC ; CPythonBackground::VisibleGuildArea
EXTRN	?DisableGuildArea@CPythonBackground@@QAEXXZ:PROC ; CPythonBackground::DisableGuildArea
EXTRN	?RegisterDungeonMapName@CPythonBackground@@QAEXPBD@Z:PROC ; CPythonBackground::RegisterDungeonMapName
EXTRN	?GlobalPositionToMapInfo@CPythonBackground@@QAEPAUTMapInfo@CMapManager@@KK@Z:PROC ; CPythonBackground::GlobalPositionToMapInfo
EXTRN	?GetWarpMapName@CPythonBackground@@QAEPBDXZ:PROC ; CPythonBackground::GetWarpMapName
EXTRN	@__security_check_cookie@4:PROC
EXTRN	__CxxThrowException@8:PROC
EXTRN	___CxxFrameHandler3:PROC
EXTRN	_memcpy:PROC
EXTRN	_memmove:PROC
EXTRN	_memset:PROC
EXTRN	??_7type_info@@6B@:QWORD			; type_info::`vftable'
EXTRN	___security_cookie:DWORD
EXTRN	__fltused:DWORD
;	COMDAT ?_OptionsStorage@?1??__local_stdio_printf_options@@9@4_KA
_BSS	SEGMENT
?_OptionsStorage@?1??__local_stdio_printf_options@@9@4_KA DQ 01H DUP (?) ; `__local_stdio_printf_options'::`2'::_OptionsStorage
_BSS	ENDS
;	COMDAT ?ms_singleton@?$CSingleton@VCPythonSystem@@@@0PAVCPythonSystem@@A
_BSS	SEGMENT
?ms_singleton@?$CSingleton@VCPythonSystem@@@@0PAVCPythonSystem@@A DD 01H DUP (?) ; CSingleton<CPythonSystem>::ms_singleton
_BSS	ENDS
;	COMDAT ?ms_singleton@?$CSingleton@VCPythonBackground@@@@0PAVCPythonBackground@@A
_BSS	SEGMENT
?ms_singleton@?$CSingleton@VCPythonBackground@@@@0PAVCPythonBackground@@A DD 01H DUP (?) ; CSingleton<CPythonBackground>::ms_singleton
_BSS	ENDS
;	COMDAT __xmm@80000000800000008000000080000000
CONST	SEGMENT
__xmm@80000000800000008000000080000000 DB 00H, 00H, 00H, 080H, 00H, 00H, 00H
	DB	080H, 00H, 00H, 00H, 080H, 00H, 00H, 00H, 080H
CONST	ENDS
;	COMDAT ??_C@_0N@CKPMLBKJ@TEXTURE_SORT@
CONST	SEGMENT
??_C@_0N@CKPMLBKJ@TEXTURE_SORT@ DB 'TEXTURE_SORT', 00H	; `string'
CONST	ENDS
;	COMDAT ??_C@_0O@OJDBENMM@DISTANCE_SORT@
CONST	SEGMENT
??_C@_0O@OJDBENMM@DISTANCE_SORT@ DB 'DISTANCE_SORT', 00H ; `string'
CONST	ENDS
;	COMDAT ??_C@_09JCDLMIGA@DISTANCE4@
CONST	SEGMENT
??_C@_09JCDLMIGA@DISTANCE4@ DB 'DISTANCE4', 00H		; `string'
CONST	ENDS
;	COMDAT ??_C@_09NNHKFOKH@DISTANCE3@
CONST	SEGMENT
??_C@_09NNHKFOKH@DISTANCE3@ DB 'DISTANCE3', 00H		; `string'
CONST	ENDS
;	COMDAT ??_C@_09MEGBGPOG@DISTANCE2@
CONST	SEGMENT
??_C@_09MEGBGPOG@DISTANCE2@ DB 'DISTANCE2', 00H		; `string'
CONST	ENDS
;	COMDAT ??_C@_09OPEMDMCF@DISTANCE1@
CONST	SEGMENT
??_C@_09OPEMDMCF@DISTANCE1@ DB 'DISTANCE1', 00H		; `string'
CONST	ENDS
;	COMDAT ??_C@_09PGFHANGE@DISTANCE0@
CONST	SEGMENT
??_C@_09PGFHANGE@DISTANCE0@ DB 'DISTANCE0', 00H		; `string'
CONST	ENDS
;	COMDAT ??_C@_0P@OLMEFOLC@SHADOW_ALL_MAX@
CONST	SEGMENT
??_C@_0P@OLMEFOLC@SHADOW_ALL_MAX@ DB 'SHADOW_ALL_MAX', 00H ; `string'
CONST	ENDS
;	COMDAT ??_C@_0BA@HAKJACB@SHADOW_ALL_HIGH@
CONST	SEGMENT
??_C@_0BA@HAKJACB@SHADOW_ALL_HIGH@ DB 'SHADOW_ALL_HIGH', 00H ; `string'
CONST	ENDS
;	COMDAT ??_C@_0L@IDBIEHAB@SHADOW_ALL@
CONST	SEGMENT
??_C@_0L@IDBIEHAB@SHADOW_ALL@ DB 'SHADOW_ALL', 00H	; `string'
CONST	ENDS
;	COMDAT ??_C@_0BH@GACINHHJ@SHADOW_GROUND_AND_SOLO@
CONST	SEGMENT
??_C@_0BH@GACINHHJ@SHADOW_GROUND_AND_SOLO@ DB 'SHADOW_GROUND_AND_SOLO', 00H ; `string'
CONST	ENDS
;	COMDAT ??_C@_0O@KCPINCHK@SHADOW_GROUND@
CONST	SEGMENT
??_C@_0O@KCPINCHK@SHADOW_GROUND@ DB 'SHADOW_GROUND', 00H ; `string'
CONST	ENDS
;	COMDAT ??_C@_0M@GJOLHPMA@SHADOW_NONE@
CONST	SEGMENT
??_C@_0M@GJOLHPMA@SHADOW_NONE@ DB 'SHADOW_NONE', 00H	; `string'
CONST	ENDS
;	COMDAT ??_C@_0BL@NHHJMELO@SKY_RENDER_MODE_MODULATE4X@
CONST	SEGMENT
??_C@_0BL@NHHJMELO@SKY_RENDER_MODE_MODULATE4X@ DB 'SKY_RENDER_MODE_MODULA'
	DB	'TE4X', 00H					; `string'
CONST	ENDS
;	COMDAT ??_C@_0BL@NDPELIAM@SKY_RENDER_MODE_MODULATE2X@
CONST	SEGMENT
??_C@_0BL@NDPELIAM@SKY_RENDER_MODE_MODULATE2X@ DB 'SKY_RENDER_MODE_MODULA'
	DB	'TE2X', 00H					; `string'
CONST	ENDS
;	COMDAT ??_C@_0BJ@IGDGIPGO@SKY_RENDER_MODE_MODULATE@
CONST	SEGMENT
??_C@_0BJ@IGDGIPGO@SKY_RENDER_MODE_MODULATE@ DB 'SKY_RENDER_MODE_MODULATE'
	DB	00H						; `string'
CONST	ENDS
;	COMDAT ??_C@_0BI@NLDLHPN@SKY_RENDER_MODE_TEXTURE@
CONST	SEGMENT
??_C@_0BI@NLDLHPN@SKY_RENDER_MODE_TEXTURE@ DB 'SKY_RENDER_MODE_TEXTURE', 00H ; `string'
CONST	ENDS
;	COMDAT ??_C@_0BI@JEJGCBJM@SKY_RENDER_MODE_DIFFUSE@
CONST	SEGMENT
??_C@_0BI@JEJGCBJM@SKY_RENDER_MODE_DIFFUSE@ DB 'SKY_RENDER_MODE_DIFFUSE', 00H ; `string'
CONST	ENDS
;	COMDAT ??_C@_0BI@KFLFFAKF@SKY_RENDER_MODE_DEFAULT@
CONST	SEGMENT
??_C@_0BI@KFLFFAKF@SKY_RENDER_MODE_DEFAULT@ DB 'SKY_RENDER_MODE_DEFAULT', 00H ; `string'
CONST	ENDS
;	COMDAT ??_C@_0N@JJNCMAMK@PART_TERRAIN@
CONST	SEGMENT
??_C@_0N@JJNCMAMK@PART_TERRAIN@ DB 'PART_TERRAIN', 00H	; `string'
CONST	ENDS
;	COMDAT ??_C@_0M@FDJPOPAP@PART_OBJECT@
CONST	SEGMENT
??_C@_0M@FDJPOPAP@PART_OBJECT@ DB 'PART_OBJECT', 00H	; `string'
CONST	ENDS
;	COMDAT ??_C@_0L@LEAFDIF@PART_WATER@
CONST	SEGMENT
??_C@_0L@LEAFDIF@PART_WATER@ DB 'PART_WATER', 00H	; `string'
CONST	ENDS
;	COMDAT ??_C@_0L@OMDBBBIA@PART_CLOUD@
CONST	SEGMENT
??_C@_0L@OMDBBBIA@PART_CLOUD@ DB 'PART_CLOUD', 00H	; `string'
CONST	ENDS
;	COMDAT ??_C@_09GABNPPB@PART_TREE@
CONST	SEGMENT
??_C@_09GABNPPB@PART_TREE@ DB 'PART_TREE', 00H		; `string'
CONST	ENDS
;	COMDAT ??_C@_08NJILKGEB@PART_SKY@
CONST	SEGMENT
??_C@_08NJILKGEB@PART_SKY@ DB 'PART_SKY', 00H		; `string'
CONST	ENDS
;	COMDAT ??_C@_0L@EGCKCJDC@background@
CONST	SEGMENT
??_C@_0L@EGCKCJDC@background@ DB 'background', 00H	; `string'
CONST	ENDS
;	COMDAT ??_C@_08LPNOKPMJ@WarpTest@
CONST	SEGMENT
??_C@_08LPNOKPMJ@WarpTest@ DB 'WarpTest', 00H		; `string'
CONST	ENDS
;	COMDAT ??_C@_0BB@NIDJGFIB@DisableGuildArea@
CONST	SEGMENT
??_C@_0BB@NIDJGFIB@DisableGuildArea@ DB 'DisableGuildArea', 00H ; `string'
CONST	ENDS
;	COMDAT ??_C@_0BB@CIANHCAN@VisibleGuildArea@
CONST	SEGMENT
??_C@_0BB@CIANHCAN@VisibleGuildArea@ DB 'VisibleGuildArea', 00H ; `string'
CONST	ENDS
;	COMDAT ??_C@_0BH@MNHHOIMG@RegisterDungeonMapName@
CONST	SEGMENT
??_C@_0BH@MNHHOIMG@RegisterDungeonMapName@ DB 'RegisterDungeonMapName', 00H ; `string'
CONST	ENDS
;	COMDAT ??_C@_0M@JALIDFKN@SetXMasTree@
CONST	SEGMENT
??_C@_0M@JALIDFKN@SetXMasTree@ DB 'SetXMasTree', 00H	; `string'
CONST	ENDS
;	COMDAT ??_C@_0BD@FPJHLEBA@SetTransparentTree@
CONST	SEGMENT
??_C@_0BD@FPJHLEBA@SetTransparentTree@ DB 'SetTransparentTree', 00H ; `string'
CONST	ENDS
;	COMDAT ??_C@_0O@JBGHJBE@SetRenderSort@
CONST	SEGMENT
??_C@_0O@JBGHJBE@SetRenderSort@ DB 'SetRenderSort', 00H	; `string'
CONST	ENDS
;	COMDAT ??_C@_0N@BIHACEOH@SetBGLoading@
CONST	SEGMENT
??_C@_0N@BIHACEOH@SetBGLoading@ DB 'SetBGLoading', 00H	; `string'
CONST	ENDS
;	COMDAT ??_C@_0BD@DLMMDNAG@GetDistanceSetInfo@
CONST	SEGMENT
??_C@_0BD@DLMMDNAG@GetDistanceSetInfo@ DB 'GetDistanceSetInfo', 00H ; `string'
CONST	ENDS
;	COMDAT ??_C@_0L@HDMJNMBI@GetFarClip@
CONST	SEGMENT
??_C@_0L@HDMJNMBI@GetFarClip@ DB 'GetFarClip', 00H	; `string'
CONST	ENDS
;	COMDAT ??_C@_0BD@MAFLMANF@SetViewDistanceSet@
CONST	SEGMENT
??_C@_0BD@MAFLMANF@SetViewDistanceSet@ DB 'SetViewDistanceSet', 00H ; `string'
CONST	ENDS
;	COMDAT ??_C@_0BG@HJLACBME@SelectViewDistanceNum@
CONST	SEGMENT
??_C@_0BG@HJLACBME@SelectViewDistanceNum@ DB 'SelectViewDistanceNum', 00H ; `string'
CONST	ENDS
;	COMDAT ??_C@_0CD@KCFKJMJJ@GetRenderedGraphicThingInstance@
CONST	SEGMENT
??_C@_0CD@KCFKJMJJ@GetRenderedGraphicThingInstance@ DB 'GetRenderedGraphi'
	DB	'cThingInstanceNum', 00H			; `string'
CONST	ENDS
;	COMDAT ??_C@_0BE@OLLMHPAP@GetRenderedSplatNum@
CONST	SEGMENT
??_C@_0BE@OLLMHPAP@GetRenderedSplatNum@ DB 'GetRenderedSplatNum', 00H ; `string'
CONST	ENDS
;	COMDAT ??_C@_0O@MBDLBPAA@SetSplatLimit@
CONST	SEGMENT
??_C@_0O@MBDLBPAA@SetSplatLimit@ DB 'SetSplatLimit', 00H ; `string'
CONST	ENDS
;	COMDAT ??_C@_0BC@CCJLGKJP@GetShadowMapColor@
CONST	SEGMENT
??_C@_0BC@CCJLGKJP@GetShadowMapColor@ DB 'GetShadowMapColor', 00H ; `string'
CONST	ENDS
;	COMDAT ??_C@_0P@PBNEJLOP@SetVisiblePart@
CONST	SEGMENT
??_C@_0P@PBNEJLOP@SetVisiblePart@ DB 'SetVisiblePart', 00H ; `string'
CONST	ENDS
;	COMDAT ??_C@_0P@JLOPHJNK@SetShadowLevel@
CONST	SEGMENT
??_C@_0P@JLOPHJNK@SetShadowLevel@ DB 'SetShadowLevel', 00H ; `string'
CONST	ENDS
;	COMDAT ??_C@_09EOGEIJMK@GetHeight@
CONST	SEGMENT
??_C@_09EOGEIJMK@GetHeight@ DB 'GetHeight', 00H		; `string'
CONST	ENDS
;	COMDAT ??_C@_0O@INGOKFGH@RenderDungeon@
CONST	SEGMENT
??_C@_0O@INGOKFGH@RenderDungeon@ DB 'RenderDungeon', 00H ; `string'
CONST	ENDS
;	COMDAT ??_C@_0BP@HPJLNAG@RenderCharacterShadowToTexture@
CONST	SEGMENT
??_C@_0BP@HPJLNAG@RenderCharacterShadowToTexture@ DB 'RenderCharacterShad'
	DB	'owToTexture', 00H				; `string'
CONST	ENDS
;	COMDAT ??_C@_0BF@IFHDODFN@RenderAfterLensFlare@
CONST	SEGMENT
??_C@_0BF@IFHDODFN@RenderAfterLensFlare@ DB 'RenderAfterLensFlare', 00H ; `string'
CONST	ENDS
;	COMDAT ??_C@_0BG@FMKIIHNL@RenderBeforeLensFlare@
CONST	SEGMENT
??_C@_0BG@FMKIIHNL@RenderBeforeLensFlare@ DB 'RenderBeforeLensFlare', 00H ; `string'
CONST	ENDS
;	COMDAT ??_C@_0N@NIFFJBKD@RenderEffect@
CONST	SEGMENT
??_C@_0N@NIFFJBKD@RenderEffect@ DB 'RenderEffect', 00H	; `string'
CONST	ENDS
;	COMDAT ??_C@_0M@FKCFAPAJ@RenderWater@
CONST	SEGMENT
??_C@_0M@FKCFAPAJ@RenderWater@ DB 'RenderWater', 00H	; `string'
CONST	ENDS
;	COMDAT ??_C@_0M@LNFEENAM@RenderCloud@
CONST	SEGMENT
??_C@_0M@LNFEENAM@RenderCloud@ DB 'RenderCloud', 00H	; `string'
CONST	ENDS
;	COMDAT ??_C@_09LFBELEBM@RenderSky@
CONST	SEGMENT
??_C@_09LFBELEBM@RenderSky@ DB 'RenderSky', 00H		; `string'
CONST	ENDS
;	COMDAT ??_C@_0BA@OAOAOPAN@RenderCollision@
CONST	SEGMENT
??_C@_0BA@OAOAOPAN@RenderCollision@ DB 'RenderCollision', 00H ; `string'
CONST	ENDS
;	COMDAT ??_C@_0BA@FDBALAKK@RenderPCBlocker@
CONST	SEGMENT
??_C@_0BA@FDBALAKK@RenderPCBlocker@ DB 'RenderPCBlocker', 00H ; `string'
CONST	ENDS
;	COMDAT ??_C@_06EPLDPNDB@Render@
CONST	SEGMENT
??_C@_06EPLDPNDB@Render@ DB 'Render', 00H		; `string'
CONST	ENDS
;	COMDAT ??_C@_06LMAGPFNF@Update@
CONST	SEGMENT
??_C@_06LMAGPFNF@Update@ DB 'Update', 00H		; `string'
CONST	ENDS
;	COMDAT ??_C@_0L@KIAPHAEH@Initialize@
CONST	SEGMENT
??_C@_0L@KIAPHAEH@Initialize@ DB 'Initialize', 00H	; `string'
CONST	ENDS
;	COMDAT ??_C@_0BG@PNPLCIKE@SetBackgroundDirLight@
CONST	SEGMENT
??_C@_0BG@PNPLCIKE@SetBackgroundDirLight@ DB 'SetBackgroundDirLight', 00H ; `string'
CONST	ENDS
;	COMDAT ??_C@_0BF@DFKOLKBM@SetCharacterDirLight@
CONST	SEGMENT
??_C@_0BF@DFKOLKBM@SetCharacterDirLight@ DB 'SetCharacterDirLight', 00H ; `string'
CONST	ENDS
;	COMDAT ??_C@_0P@DMJMMGKP@EndEnvironment@
CONST	SEGMENT
??_C@_0P@DMJMMGKP@EndEnvironment@ DB 'EndEnvironment', 00H ; `string'
CONST	ENDS
;	COMDAT ??_C@_0BB@JHBDNCLO@BeginEnvironment@
CONST	SEGMENT
??_C@_0BB@JHBDNCLO@BeginEnvironment@ DB 'BeginEnvironment', 00H ; `string'
CONST	ENDS
;	COMDAT ??_C@_0BA@DNJBOOGC@GetPickingPoint@
CONST	SEGMENT
??_C@_0BA@DNJBOOGC@GetPickingPoint@ DB 'GetPickingPoint', 00H ; `string'
CONST	ENDS
;	COMDAT ??_C@_0BC@DINKEDB@GetCurrentMapName@
CONST	SEGMENT
??_C@_0BC@DINKEDB@GetCurrentMapName@ DB 'GetCurrentMapName', 00H ; `string'
CONST	ENDS
;	COMDAT ??_C@_0BD@BHFOHELP@SetEnvironmentData@
CONST	SEGMENT
??_C@_0BD@BHFOHELP@SetEnvironmentData@ DB 'SetEnvironmentData', 00H ; `string'
CONST	ENDS
;	COMDAT ??_C@_0BI@CHPHFBLI@RegisterEnvironmentData@
CONST	SEGMENT
??_C@_0BI@CHPHFBLI@RegisterEnvironmentData@ DB 'RegisterEnvironmentData', 00H ; `string'
CONST	ENDS
;	COMDAT ??_C@_07BDCAJABG@Destroy@
CONST	SEGMENT
??_C@_07BDCAJABG@Destroy@ DB 'Destroy', 00H		; `string'
CONST	ENDS
;	COMDAT ??_C@_07DJFPJOEL@LoadMap@
CONST	SEGMENT
??_C@_07DJFPJOEL@LoadMap@ DB 'LoadMap', 00H		; `string'
CONST	ENDS
;	COMDAT ??_C@_0BE@LMGPCAD@GetRenderShadowTime@
CONST	SEGMENT
??_C@_0BE@LMGPCAD@GetRenderShadowTime@ DB 'GetRenderShadowTime', 00H ; `string'
CONST	ENDS
;	COMDAT ??_C@_0BI@NCKBLOGC@GlobalPositionToMapInfo@
CONST	SEGMENT
??_C@_0BI@NCKBLOGC@GlobalPositionToMapInfo@ DB 'GlobalPositionToMapInfo', 00H ; `string'
CONST	ENDS
;	COMDAT ??_C@_0BO@OIANPCLB@GlobalPositionToLocalPosition@
CONST	SEGMENT
??_C@_0BO@OIANPCLB@GlobalPositionToLocalPosition@ DB 'GlobalPositionToLoc'
	DB	'alPosition', 00H				; `string'
CONST	ENDS
;	COMDAT ??_C@_0L@LGAPBDCD@EnableSnow@
CONST	SEGMENT
??_C@_0L@LGAPBDCD@EnableSnow@ DB 'EnableSnow', 00H	; `string'
CONST	ENDS
;	COMDAT ??_C@_0BF@ODLMFADE@EnableSoftwareTiling@
CONST	SEGMENT
??_C@_0BF@ODLMFADE@EnableSoftwareTiling@ DB 'EnableSoftwareTiling', 00H ; `string'
CONST	ENDS
;	COMDAT ??_C@_0BB@BFKDCFBH@IsSoftwareTiling@
CONST	SEGMENT
??_C@_0BB@BFKDCFBH@IsSoftwareTiling@ DB 'IsSoftwareTiling', 00H ; `string'
CONST	ENDS
;	COMDAT ?s_methods@?1??initBackground@@YAXXZ@4PAUPyMethodDef@@A
_DATA	SEGMENT
?s_methods@?1??initBackground@@YAXXZ@4PAUPyMethodDef@@A DD FLAT:??_C@_0BB@BFKDCFBH@IsSoftwareTiling@ ; `initBackground'::`2'::s_methods
	DD	FLAT:?backgroundIsSoftwareTiling@@YAPAU_object@@PAU1@0@Z
	DD	01H
	ORG $+4
	DD	FLAT:??_C@_0BF@ODLMFADE@EnableSoftwareTiling@
	DD	FLAT:?backgroundEnableSoftwareTiling@@YAPAU_object@@PAU1@0@Z
	DD	01H
	ORG $+4
	DD	FLAT:??_C@_0L@LGAPBDCD@EnableSnow@
	DD	FLAT:?backgroundEnableSnow@@YAPAU_object@@PAU1@0@Z
	DD	01H
	ORG $+4
	DD	FLAT:??_C@_0BO@OIANPCLB@GlobalPositionToLocalPosition@
	DD	FLAT:?backgroundGlobalPositionToLocalPosition@@YAPAU_object@@PAU1@0@Z
	DD	01H
	ORG $+4
	DD	FLAT:??_C@_0BI@NCKBLOGC@GlobalPositionToMapInfo@
	DD	FLAT:?backgroundGlobalPositionToMapInfo@@YAPAU_object@@PAU1@0@Z
	DD	01H
	ORG $+4
	DD	FLAT:??_C@_0BE@LMGPCAD@GetRenderShadowTime@
	DD	FLAT:?backgroundGetRenderShadowTime@@YAPAU_object@@PAU1@0@Z
	DD	01H
	ORG $+4
	DD	FLAT:??_C@_07DJFPJOEL@LoadMap@
	DD	FLAT:?backgroundLoadMap@@YAPAU_object@@PAU1@0@Z
	DD	01H
	ORG $+4
	DD	FLAT:??_C@_07BDCAJABG@Destroy@
	DD	FLAT:?backgroundDestroy@@YAPAU_object@@PAU1@0@Z
	DD	01H
	ORG $+4
	DD	FLAT:??_C@_0BI@CHPHFBLI@RegisterEnvironmentData@
	DD	FLAT:?backgroundRegisterEnvironmentData@@YAPAU_object@@PAU1@0@Z
	DD	01H
	ORG $+4
	DD	FLAT:??_C@_0BD@BHFOHELP@SetEnvironmentData@
	DD	FLAT:?backgroundSetEnvironmentData@@YAPAU_object@@PAU1@0@Z
	DD	01H
	ORG $+4
	DD	FLAT:??_C@_0BC@DINKEDB@GetCurrentMapName@
	DD	FLAT:?backgroundGetCurrentMapName@@YAPAU_object@@PAU1@0@Z
	DD	01H
	ORG $+4
	DD	FLAT:??_C@_0BA@DNJBOOGC@GetPickingPoint@
	DD	FLAT:?backgroundGetPickingPoint@@YAPAU_object@@PAU1@0@Z
	DD	01H
	ORG $+4
	DD	FLAT:??_C@_0BB@JHBDNCLO@BeginEnvironment@
	DD	FLAT:?backgroundBeginEnvironment@@YAPAU_object@@PAU1@0@Z
	DD	01H
	ORG $+4
	DD	FLAT:??_C@_0P@DMJMMGKP@EndEnvironment@
	DD	FLAT:?backgroundEndEnvironemt@@YAPAU_object@@PAU1@0@Z
	DD	01H
	ORG $+4
	DD	FLAT:??_C@_0BF@DFKOLKBM@SetCharacterDirLight@
	DD	FLAT:?backgroundSetCharacterDirLight@@YAPAU_object@@PAU1@0@Z
	DD	01H
	ORG $+4
	DD	FLAT:??_C@_0BG@PNPLCIKE@SetBackgroundDirLight@
	DD	FLAT:?backgroundSetBackgroundDirLight@@YAPAU_object@@PAU1@0@Z
	DD	01H
	ORG $+4
	DD	FLAT:??_C@_0L@KIAPHAEH@Initialize@
	DD	FLAT:?backgroundInitialize@@YAPAU_object@@PAU1@0@Z
	DD	01H
	ORG $+4
	DD	FLAT:??_C@_06LMAGPFNF@Update@
	DD	FLAT:?backgroundUpdate@@YAPAU_object@@PAU1@0@Z
	DD	01H
	ORG $+4
	DD	FLAT:??_C@_06EPLDPNDB@Render@
	DD	FLAT:?backgroundRender@@YAPAU_object@@PAU1@0@Z
	DD	01H
	ORG $+4
	DD	FLAT:??_C@_0BA@FDBALAKK@RenderPCBlocker@
	DD	FLAT:?backgroundRenderPCBlocker@@YAPAU_object@@PAU1@0@Z
	DD	01H
	ORG $+4
	DD	FLAT:??_C@_0BA@OAOAOPAN@RenderCollision@
	DD	FLAT:?backgroundRenderCollision@@YAPAU_object@@PAU1@0@Z
	DD	01H
	ORG $+4
	DD	FLAT:??_C@_09LFBELEBM@RenderSky@
	DD	FLAT:?backgroundRenderSky@@YAPAU_object@@PAU1@0@Z
	DD	01H
	ORG $+4
	DD	FLAT:??_C@_0M@LNFEENAM@RenderCloud@
	DD	FLAT:?backgroundRenderCloud@@YAPAU_object@@PAU1@0@Z
	DD	01H
	ORG $+4
	DD	FLAT:??_C@_0M@FKCFAPAJ@RenderWater@
	DD	FLAT:?backgroundRenderWater@@YAPAU_object@@PAU1@0@Z
	DD	01H
	ORG $+4
	DD	FLAT:??_C@_0N@NIFFJBKD@RenderEffect@
	DD	FLAT:?backgroundRenderEffect@@YAPAU_object@@PAU1@0@Z
	DD	01H
	ORG $+4
	DD	FLAT:??_C@_0BG@FMKIIHNL@RenderBeforeLensFlare@
	DD	FLAT:?backgroundRenderBeforeLensFlare@@YAPAU_object@@PAU1@0@Z
	DD	01H
	ORG $+4
	DD	FLAT:??_C@_0BF@IFHDODFN@RenderAfterLensFlare@
	DD	FLAT:?backgroundRenderAfterLensFlare@@YAPAU_object@@PAU1@0@Z
	DD	01H
	ORG $+4
	DD	FLAT:??_C@_0BP@HPJLNAG@RenderCharacterShadowToTexture@
	DD	FLAT:?backgroundRenderCharacterShadowToTexture@@YAPAU_object@@PAU1@0@Z
	DD	01H
	ORG $+4
	DD	FLAT:??_C@_0O@INGOKFGH@RenderDungeon@
	DD	FLAT:?backgroundRenderDungeon@@YAPAU_object@@PAU1@0@Z
	DD	01H
	ORG $+4
	DD	FLAT:??_C@_09EOGEIJMK@GetHeight@
	DD	FLAT:?backgroundGetHeight@@YAPAU_object@@PAU1@0@Z
	DD	01H
	ORG $+4
	DD	FLAT:??_C@_0P@JLOPHJNK@SetShadowLevel@
	DD	FLAT:?backgroundSetShadowLevel@@YAPAU_object@@PAU1@0@Z
	DD	01H
	ORG $+4
	DD	FLAT:??_C@_0P@PBNEJLOP@SetVisiblePart@
	DD	FLAT:?backgroundSetVisiblePart@@YAPAU_object@@PAU1@0@Z
	DD	01H
	ORG $+4
	DD	FLAT:??_C@_0BC@CCJLGKJP@GetShadowMapColor@
	DD	FLAT:?backgroundGetShadowMapcolor@@YAPAU_object@@PAU1@0@Z
	DD	01H
	ORG $+4
	DD	FLAT:??_C@_0O@MBDLBPAA@SetSplatLimit@
	DD	FLAT:?backgroundSetSpaltLimit@@YAPAU_object@@PAU1@0@Z
	DD	01H
	ORG $+4
	DD	FLAT:??_C@_0BE@OLLMHPAP@GetRenderedSplatNum@
	DD	FLAT:?backgroundGetRenderedSplatNum@@YAPAU_object@@PAU1@0@Z
	DD	01H
	ORG $+4
	DD	FLAT:??_C@_0CD@KCFKJMJJ@GetRenderedGraphicThingInstance@
	DD	FLAT:?backgroundGetRenderedGTINum@@YAPAU_object@@PAU1@0@Z
	DD	01H
	ORG $+4
	DD	FLAT:??_C@_0BG@HJLACBME@SelectViewDistanceNum@
	DD	FLAT:?backgroundSelectViewDistanceNum@@YAPAU_object@@PAU1@0@Z
	DD	01H
	ORG $+4
	DD	FLAT:??_C@_0BD@MAFLMANF@SetViewDistanceSet@
	DD	FLAT:?backgroundSetViewDistanceSet@@YAPAU_object@@PAU1@0@Z
	DD	01H
	ORG $+4
	DD	FLAT:??_C@_0L@HDMJNMBI@GetFarClip@
	DD	FLAT:?backgroundGetFarClip@@YAPAU_object@@PAU1@0@Z
	DD	01H
	ORG $+4
	DD	FLAT:??_C@_0BD@DLMMDNAG@GetDistanceSetInfo@
	DD	FLAT:?backgroundGetDistanceSetInfo@@YAPAU_object@@PAU1@0@Z
	DD	01H
	ORG $+4
	DD	FLAT:??_C@_0N@BIHACEOH@SetBGLoading@
	DD	FLAT:?backgroundSetBGLoading@@YAPAU_object@@PAU1@0@Z
	DD	01H
	ORG $+4
	DD	FLAT:??_C@_0O@JBGHJBE@SetRenderSort@
	DD	FLAT:?backgroundSetRenderSort@@YAPAU_object@@PAU1@0@Z
	DD	01H
	ORG $+4
	DD	FLAT:??_C@_0BD@FPJHLEBA@SetTransparentTree@
	DD	FLAT:?backgroundSetTransparentTree@@YAPAU_object@@PAU1@0@Z
	DD	01H
	ORG $+4
	DD	FLAT:??_C@_0M@JALIDFKN@SetXMasTree@
	DD	FLAT:?backgroundSetXMasTree@@YAPAU_object@@PAU1@0@Z
	DD	01H
	ORG $+4
	DD	FLAT:??_C@_0BH@MNHHOIMG@RegisterDungeonMapName@
	DD	FLAT:?backgroundRegisterDungeonMapName@@YAPAU_object@@PAU1@0@Z
	DD	01H
	ORG $+4
	DD	FLAT:??_C@_0BB@CIANHCAN@VisibleGuildArea@
	DD	FLAT:?backgroundVisibleGuildArea@@YAPAU_object@@PAU1@0@Z
	DD	01H
	ORG $+4
	DD	FLAT:??_C@_0BB@NIDJGFIB@DisableGuildArea@
	DD	FLAT:?backgroundDisableGuildArea@@YAPAU_object@@PAU1@0@Z
	DD	01H
	ORG $+4
	DD	FLAT:??_C@_08LPNOKPMJ@WarpTest@
	DD	FLAT:?backgroundWarpTest@@YAPAU_object@@PAU1@0@Z
	DD	01H
	ORG $+4
	DD	00H
	DD	00H
	DD	00H
	ORG $+4
_DATA	ENDS
;	COMDAT ??_C@_03FEAIAPNA@sii@
CONST	SEGMENT
??_C@_03FEAIAPNA@sii@ DB 'sii', 00H			; `string'
CONST	ENDS
;	COMDAT ??_C@_04MMEPMOLC@ifff@
CONST	SEGMENT
??_C@_04MMEPMOLC@ifff@ DB 'ifff', 00H			; `string'
CONST	ENDS
;	COMDAT ??_C@_0CL@HHHOJMJN@background?4SetSplatLimit?$CIiSplat@
CONST	SEGMENT
??_C@_0CL@HHHOJMJN@background?4SetSplatLimit?$CIiSplat@ DB 'background.Se'
	DB	'tSplatLimit(iSplatNum(%d)>=0)', 00H		; `string'
CONST	ENDS
;	COMDAT ??_C@_0CC@JHPGFABG@ePart?$CI?$CFd?$CJ?$DMbackground?4PART_NUM?$CI?$CF@
CONST	SEGMENT
??_C@_0CC@JHPGFABG@ePart?$CI?$CFd?$CJ?$DMbackground?4PART_NUM?$CI?$CF@ DB 'e'
	DB	'Part(%d)<background.PART_NUM(%d)', 00H	; `string'
CONST	ENDS
;	COMDAT ??_C@_02PDIHAGKM@ii@
CONST	SEGMENT
??_C@_02PDIHAGKM@ii@ DB 'ii', 00H			; `string'
CONST	ENDS
;	COMDAT ??_C@_04KDJJDIPA@iifs@
CONST	SEGMENT
??_C@_04KDJJDIPA@iifs@ DB 'iifs', 00H			; `string'
CONST	ENDS
;	COMDAT ??_C@_03JDANDILB@?$CFd?5@
CONST	SEGMENT
??_C@_03JDANDILB@?$CFd?5@ DB '%d ', 00H			; `string'
CONST	ENDS
;	COMDAT ??_C@_01INIBCBCB@f@
CONST	SEGMENT
??_C@_01INIBCBCB@f@ DB 'f', 00H				; `string'
CONST	ENDS
;	COMDAT ??_C@_03LPALPDIP@fff@
CONST	SEGMENT
??_C@_03LPALPDIP@fff@ DB 'fff', 00H			; `string'
CONST	ENDS
;	COMDAT ??_C@_01LKDEMHDF@s@
CONST	SEGMENT
??_C@_01LKDEMHDF@s@ DB 's', 00H				; `string'
CONST	ENDS
;	COMDAT ??_C@_0EI@HLELLDPI@background?4RegisterEnvironmentD@
CONST	SEGMENT
??_C@_0EI@HLELLDPI@background?4RegisterEnvironmentD@ DB 'background.Regis'
	DB	'terEnvironmentData(iIndex=%d, szEnvironmentFileName=%s)', 00H ; `string'
CONST	ENDS
;	COMDAT ??_C@_01KBJDNOO@i@
CONST	SEGMENT
??_C@_01KBJDNOO@i@ DB 'i', 00H				; `string'
CONST	ENDS
;	COMDAT ??_R1A@?0A@EA@bad_array_new_length@std@@8
rdata$r	SEGMENT
??_R1A@?0A@EA@bad_array_new_length@std@@8 DD FLAT:??_R0?AVbad_array_new_length@std@@@8 ; std::bad_array_new_length::`RTTI Base Class Descriptor at (0,-1,0,64)'
	DD	02H
	DD	00H
	DD	0ffffffffH
	DD	00H
	DD	040H
	DD	FLAT:??_R3bad_array_new_length@std@@8
rdata$r	ENDS
;	COMDAT ??_R2bad_array_new_length@std@@8
rdata$r	SEGMENT
??_R2bad_array_new_length@std@@8 DD FLAT:??_R1A@?0A@EA@bad_array_new_length@std@@8 ; std::bad_array_new_length::`RTTI Base Class Array'
	DD	FLAT:??_R1A@?0A@EA@bad_alloc@std@@8
	DD	FLAT:??_R1A@?0A@EA@exception@std@@8
rdata$r	ENDS
;	COMDAT ??_R3bad_array_new_length@std@@8
rdata$r	SEGMENT
??_R3bad_array_new_length@std@@8 DD 00H			; std::bad_array_new_length::`RTTI Class Hierarchy Descriptor'
	DD	00H
	DD	03H
	DD	FLAT:??_R2bad_array_new_length@std@@8
rdata$r	ENDS
;	COMDAT ??_R4bad_array_new_length@std@@6B@
rdata$r	SEGMENT
??_R4bad_array_new_length@std@@6B@ DD 00H		; std::bad_array_new_length::`RTTI Complete Object Locator'
	DD	00H
	DD	00H
	DD	FLAT:??_R0?AVbad_array_new_length@std@@@8
	DD	FLAT:??_R3bad_array_new_length@std@@8
rdata$r	ENDS
;	COMDAT ??_R1A@?0A@EA@bad_alloc@std@@8
rdata$r	SEGMENT
??_R1A@?0A@EA@bad_alloc@std@@8 DD FLAT:??_R0?AVbad_alloc@std@@@8 ; std::bad_alloc::`RTTI Base Class Descriptor at (0,-1,0,64)'
	DD	01H
	DD	00H
	DD	0ffffffffH
	DD	00H
	DD	040H
	DD	FLAT:??_R3bad_alloc@std@@8
rdata$r	ENDS
;	COMDAT ??_R2bad_alloc@std@@8
rdata$r	SEGMENT
??_R2bad_alloc@std@@8 DD FLAT:??_R1A@?0A@EA@bad_alloc@std@@8 ; std::bad_alloc::`RTTI Base Class Array'
	DD	FLAT:??_R1A@?0A@EA@exception@std@@8
rdata$r	ENDS
;	COMDAT ??_R3bad_alloc@std@@8
rdata$r	SEGMENT
??_R3bad_alloc@std@@8 DD 00H				; std::bad_alloc::`RTTI Class Hierarchy Descriptor'
	DD	00H
	DD	02H
	DD	FLAT:??_R2bad_alloc@std@@8
rdata$r	ENDS
;	COMDAT ??_R4bad_alloc@std@@6B@
rdata$r	SEGMENT
??_R4bad_alloc@std@@6B@ DD 00H				; std::bad_alloc::`RTTI Complete Object Locator'
	DD	00H
	DD	00H
	DD	FLAT:??_R0?AVbad_alloc@std@@@8
	DD	FLAT:??_R3bad_alloc@std@@8
rdata$r	ENDS
;	COMDAT ??_R1A@?0A@EA@exception@std@@8
rdata$r	SEGMENT
??_R1A@?0A@EA@exception@std@@8 DD FLAT:??_R0?AVexception@std@@@8 ; std::exception::`RTTI Base Class Descriptor at (0,-1,0,64)'
	DD	00H
	DD	00H
	DD	0ffffffffH
	DD	00H
	DD	040H
	DD	FLAT:??_R3exception@std@@8
rdata$r	ENDS
;	COMDAT ??_R2exception@std@@8
rdata$r	SEGMENT
??_R2exception@std@@8 DD FLAT:??_R1A@?0A@EA@exception@std@@8 ; std::exception::`RTTI Base Class Array'
rdata$r	ENDS
;	COMDAT ??_R3exception@std@@8
rdata$r	SEGMENT
??_R3exception@std@@8 DD 00H				; std::exception::`RTTI Class Hierarchy Descriptor'
	DD	00H
	DD	01H
	DD	FLAT:??_R2exception@std@@8
rdata$r	ENDS
;	COMDAT ??_R4exception@std@@6B@
rdata$r	SEGMENT
??_R4exception@std@@6B@ DD 00H				; std::exception::`RTTI Complete Object Locator'
	DD	00H
	DD	00H
	DD	FLAT:??_R0?AVexception@std@@@8
	DD	FLAT:??_R3exception@std@@8
rdata$r	ENDS
;	COMDAT ??_C@_00CNPNBAHC@@
CONST	SEGMENT
??_C@_00CNPNBAHC@@ DB 00H				; `string'
CONST	ENDS
;	COMDAT ??_C@_0BA@JFNIOLAK@string?5too?5long@
CONST	SEGMENT
??_C@_0BA@JFNIOLAK@string?5too?5long@ DB 'string too long', 00H ; `string'
CONST	ENDS
;	COMDAT __CT??_R0?AVexception@std@@@8??0exception@std@@QAE@ABV01@@Z12
xdata$x	SEGMENT
__CT??_R0?AVexception@std@@@8??0exception@std@@QAE@ABV01@@Z12 DD 00H
	DD	FLAT:??_R0?AVexception@std@@@8
	DD	00H
	DD	0ffffffffH
	ORG $+4
	DD	0cH
	DD	FLAT:??0exception@std@@QAE@ABV01@@Z
xdata$x	ENDS
;	COMDAT ??_R0?AVexception@std@@@8
data$r	SEGMENT
??_R0?AVexception@std@@@8 DD FLAT:??_7type_info@@6B@	; std::exception `RTTI Type Descriptor'
	DD	00H
	DB	'.?AVexception@std@@', 00H
data$r	ENDS
;	COMDAT __CT??_R0?AVbad_alloc@std@@@8??0bad_alloc@std@@QAE@ABV01@@Z12
xdata$x	SEGMENT
__CT??_R0?AVbad_alloc@std@@@8??0bad_alloc@std@@QAE@ABV01@@Z12 DD 010H
	DD	FLAT:??_R0?AVbad_alloc@std@@@8
	DD	00H
	DD	0ffffffffH
	ORG $+4
	DD	0cH
	DD	FLAT:??0bad_alloc@std@@QAE@ABV01@@Z
xdata$x	ENDS
;	COMDAT ??_R0?AVbad_alloc@std@@@8
data$r	SEGMENT
??_R0?AVbad_alloc@std@@@8 DD FLAT:??_7type_info@@6B@	; std::bad_alloc `RTTI Type Descriptor'
	DD	00H
	DB	'.?AVbad_alloc@std@@', 00H
data$r	ENDS
;	COMDAT __CT??_R0?AVbad_array_new_length@std@@@8??0bad_array_new_length@std@@QAE@ABV01@@Z12
xdata$x	SEGMENT
__CT??_R0?AVbad_array_new_length@std@@@8??0bad_array_new_length@std@@QAE@ABV01@@Z12 DD 00H
	DD	FLAT:??_R0?AVbad_array_new_length@std@@@8
	DD	00H
	DD	0ffffffffH
	ORG $+4
	DD	0cH
	DD	FLAT:??0bad_array_new_length@std@@QAE@ABV01@@Z
xdata$x	ENDS
;	COMDAT ??_R0?AVbad_array_new_length@std@@@8
data$r	SEGMENT
??_R0?AVbad_array_new_length@std@@@8 DD FLAT:??_7type_info@@6B@ ; std::bad_array_new_length `RTTI Type Descriptor'
	DD	00H
	DB	'.?AVbad_array_new_length@std@@', 00H
data$r	ENDS
;	COMDAT __CTA3?AVbad_array_new_length@std@@
xdata$x	SEGMENT
__CTA3?AVbad_array_new_length@std@@ DD 03H
	DD	FLAT:__CT??_R0?AVbad_array_new_length@std@@@8??0bad_array_new_length@std@@QAE@ABV01@@Z12
	DD	FLAT:__CT??_R0?AVbad_alloc@std@@@8??0bad_alloc@std@@QAE@ABV01@@Z12
	DD	FLAT:__CT??_R0?AVexception@std@@@8??0exception@std@@QAE@ABV01@@Z12
xdata$x	ENDS
;	COMDAT __TI3?AVbad_array_new_length@std@@
xdata$x	SEGMENT
__TI3?AVbad_array_new_length@std@@ DD 00H
	DD	FLAT:??1bad_array_new_length@std@@UAE@XZ
	DD	00H
	DD	FLAT:__CTA3?AVbad_array_new_length@std@@
xdata$x	ENDS
;	COMDAT ??_C@_0BF@KINCDENJ@bad?5array?5new?5length@
CONST	SEGMENT
??_C@_0BF@KINCDENJ@bad?5array?5new?5length@ DB 'bad array new length', 00H ; `string'
CONST	ENDS
;	COMDAT ??_7bad_array_new_length@std@@6B@
CONST	SEGMENT
??_7bad_array_new_length@std@@6B@ DD FLAT:??_R4bad_array_new_length@std@@6B@ ; std::bad_array_new_length::`vftable'
	DD	FLAT:??_Ebad_array_new_length@std@@UAEPAXI@Z
	DD	FLAT:?what@exception@std@@UBEPBDXZ
CONST	ENDS
;	COMDAT ??_7bad_alloc@std@@6B@
CONST	SEGMENT
??_7bad_alloc@std@@6B@ DD FLAT:??_R4bad_alloc@std@@6B@	; std::bad_alloc::`vftable'
	DD	FLAT:??_Ebad_alloc@std@@UAEPAXI@Z
	DD	FLAT:?what@exception@std@@UBEPBDXZ
CONST	ENDS
;	COMDAT ??_C@_0BC@EOODALEL@Unknown?5exception@
CONST	SEGMENT
??_C@_0BC@EOODALEL@Unknown?5exception@ DB 'Unknown exception', 00H ; `string'
CONST	ENDS
;	COMDAT ??_7exception@std@@6B@
CONST	SEGMENT
??_7exception@std@@6B@ DD FLAT:??_R4exception@std@@6B@	; std::exception::`vftable'
	DD	FLAT:??_Eexception@std@@UAEPAXI@Z
	DD	FLAT:?what@exception@std@@UBEPBDXZ
CONST	ENDS
;	COMDAT xdata$x
xdata$x	SEGMENT
__unwindtable$?backgroundLoadMap@@YAPAU_object@@PAU1@0@Z DD 0ffffffffH
	DD	FLAT:__unwindfunclet$?backgroundLoadMap@@YAPAU_object@@PAU1@0@Z$0
__ehfuncinfo$?backgroundLoadMap@@YAPAU_object@@PAU1@0@Z DD 019930522H
	DD	01H
	DD	FLAT:__unwindtable$?backgroundLoadMap@@YAPAU_object@@PAU1@0@Z
	DD	2 DUP(00H)
	DD	2 DUP(00H)
	DD	00H
	DD	01H
xdata$x	ENDS
; Function compile flags: /Ogtp
; File D:\Metin2 Server Files\mainline\SRC_2014\Metin2Client\UserInterface\PythonBackgroundModule.cpp
;	COMDAT ?backgroundDisableGuildArea@@YAPAU_object@@PAU1@0@Z
_TEXT	SEGMENT
_poSelf$ = 8						; size = 4
_poArgs$ = 12						; size = 4
?backgroundDisableGuildArea@@YAPAU_object@@PAU1@0@Z PROC ; backgroundDisableGuildArea, COMDAT

; 522  : 	CPythonBackground::Instance().DisableGuildArea();

  00000	8b 0d 00 00 00
	00		 mov	 ecx, DWORD PTR ?ms_singleton@?$CSingleton@VCPythonBackground@@@@0PAVCPythonBackground@@A ; CSingleton<CPythonBackground>::ms_singleton
  00006	e8 00 00 00 00	 call	 ?DisableGuildArea@CPythonBackground@@QAEXXZ ; CPythonBackground::DisableGuildArea

; 523  : 	return Py_BuildNone();

  0000b	e9 00 00 00 00	 jmp	 ?Py_BuildNone@@YAPAU_object@@XZ ; Py_BuildNone
?backgroundDisableGuildArea@@YAPAU_object@@PAU1@0@Z ENDP ; backgroundDisableGuildArea
_TEXT	ENDS
; Function compile flags: /Ogtp
; File D:\Metin2 Server Files\mainline\SRC_2014\Metin2Client\UserInterface\PythonBackgroundModule.cpp
;	COMDAT ?backgroundVisibleGuildArea@@YAPAU_object@@PAU1@0@Z
_TEXT	SEGMENT
_poSelf$ = 8						; size = 4
_poArgs$ = 12						; size = 4
?backgroundVisibleGuildArea@@YAPAU_object@@PAU1@0@Z PROC ; backgroundVisibleGuildArea, COMDAT

; 516  : 	CPythonBackground::Instance().VisibleGuildArea();

  00000	8b 0d 00 00 00
	00		 mov	 ecx, DWORD PTR ?ms_singleton@?$CSingleton@VCPythonBackground@@@@0PAVCPythonBackground@@A ; CSingleton<CPythonBackground>::ms_singleton
  00006	e8 00 00 00 00	 call	 ?VisibleGuildArea@CPythonBackground@@QAEXXZ ; CPythonBackground::VisibleGuildArea

; 517  : 	return Py_BuildNone();

  0000b	e9 00 00 00 00	 jmp	 ?Py_BuildNone@@YAPAU_object@@XZ ; Py_BuildNone
?backgroundVisibleGuildArea@@YAPAU_object@@PAU1@0@Z ENDP ; backgroundVisibleGuildArea
_TEXT	ENDS
; Function compile flags: /Ogtp
; File D:\Metin2 Server Files\mainline\SRC_2014\Metin2Client\UserInterface\PythonBackgroundModule.cpp
;	COMDAT ?backgroundRegisterDungeonMapName@@YAPAU_object@@PAU1@0@Z
_TEXT	SEGMENT
_szName$ = -4						; size = 4
_poSelf$ = 8						; size = 4
_poArgs$ = 12						; size = 4
?backgroundRegisterDungeonMapName@@YAPAU_object@@PAU1@0@Z PROC ; backgroundRegisterDungeonMapName, COMDAT

; 505  : {

  00000	55		 push	 ebp
  00001	8b ec		 mov	 ebp, esp
  00003	51		 push	 ecx

; 506  : 	char * szName;
; 507  : 	if (!PyTuple_GetString(poArgs, 0, &szName))

  00004	8d 45 fc	 lea	 eax, DWORD PTR _szName$[ebp]
  00007	50		 push	 eax
  00008	6a 00		 push	 0
  0000a	ff 75 0c	 push	 DWORD PTR _poArgs$[ebp]
  0000d	e8 00 00 00 00	 call	 ?PyTuple_GetString@@YA_NPAU_object@@HPAPAD@Z ; PyTuple_GetString
  00012	83 c4 0c	 add	 esp, 12			; 0000000cH
  00015	84 c0		 test	 al, al
  00017	75 09		 jne	 SHORT $LN2@background

; 508  : 		return Py_BadArgument();

  00019	e8 00 00 00 00	 call	 ?Py_BadArgument@@YAPAU_object@@XZ ; Py_BadArgument

; 512  : }

  0001e	8b e5		 mov	 esp, ebp
  00020	5d		 pop	 ebp
  00021	c3		 ret	 0
$LN2@background:

; 509  : 
; 510  : 	CPythonBackground::Instance().RegisterDungeonMapName(szName);

  00022	ff 75 fc	 push	 DWORD PTR _szName$[ebp]
  00025	8b 0d 00 00 00
	00		 mov	 ecx, DWORD PTR ?ms_singleton@?$CSingleton@VCPythonBackground@@@@0PAVCPythonBackground@@A ; CSingleton<CPythonBackground>::ms_singleton
  0002b	e8 00 00 00 00	 call	 ?RegisterDungeonMapName@CPythonBackground@@QAEXPBD@Z ; CPythonBackground::RegisterDungeonMapName

; 511  : 	return Py_BuildNone();

  00030	e8 00 00 00 00	 call	 ?Py_BuildNone@@YAPAU_object@@XZ ; Py_BuildNone

; 512  : }

  00035	8b e5		 mov	 esp, ebp
  00037	5d		 pop	 ebp
  00038	c3		 ret	 0
?backgroundRegisterDungeonMapName@@YAPAU_object@@PAU1@0@Z ENDP ; backgroundRegisterDungeonMapName
_TEXT	ENDS
; Function compile flags: /Ogtp
; File D:\Metin2 Server Files\mainline\SRC_2014\Metin2Client\UserInterface\PythonBackgroundModule.cpp
;	COMDAT ?backgroundSetXMasTree@@YAPAU_object@@PAU1@0@Z
_TEXT	SEGMENT
_iGrade$ = -4						; size = 4
_poSelf$ = 8						; size = 4
_poArgs$ = 12						; size = 4
?backgroundSetXMasTree@@YAPAU_object@@PAU1@0@Z PROC	; backgroundSetXMasTree, COMDAT

; 495  : {

  00000	55		 push	 ebp
  00001	8b ec		 mov	 ebp, esp
  00003	51		 push	 ecx

; 496  : 	int iGrade;
; 497  : 	if (!PyTuple_GetInteger(poArgs, 0, &iGrade))

  00004	8d 45 fc	 lea	 eax, DWORD PTR _iGrade$[ebp]
  00007	50		 push	 eax
  00008	6a 00		 push	 0
  0000a	ff 75 0c	 push	 DWORD PTR _poArgs$[ebp]
  0000d	e8 00 00 00 00	 call	 ?PyTuple_GetInteger@@YA_NPAU_object@@HPAH@Z ; PyTuple_GetInteger
  00012	83 c4 0c	 add	 esp, 12			; 0000000cH
  00015	84 c0		 test	 al, al
  00017	75 09		 jne	 SHORT $LN2@background

; 498  : 		return Py_BadArgument();

  00019	e8 00 00 00 00	 call	 ?Py_BadArgument@@YAPAU_object@@XZ ; Py_BadArgument

; 502  : }

  0001e	8b e5		 mov	 esp, ebp
  00020	5d		 pop	 ebp
  00021	c3		 ret	 0
$LN2@background:

; 499  : 
; 500  : 	CPythonBackground::Instance().SetXMaxTree(iGrade);

  00022	ff 75 fc	 push	 DWORD PTR _iGrade$[ebp]
  00025	8b 0d 00 00 00
	00		 mov	 ecx, DWORD PTR ?ms_singleton@?$CSingleton@VCPythonBackground@@@@0PAVCPythonBackground@@A ; CSingleton<CPythonBackground>::ms_singleton
  0002b	e8 00 00 00 00	 call	 ?SetXMaxTree@CPythonBackground@@QAEXH@Z ; CPythonBackground::SetXMaxTree

; 501  : 	return Py_BuildNone();

  00030	e8 00 00 00 00	 call	 ?Py_BuildNone@@YAPAU_object@@XZ ; Py_BuildNone

; 502  : }

  00035	8b e5		 mov	 esp, ebp
  00037	5d		 pop	 ebp
  00038	c3		 ret	 0
?backgroundSetXMasTree@@YAPAU_object@@PAU1@0@Z ENDP	; backgroundSetXMasTree
_TEXT	ENDS
; Function compile flags: /Ogtp
; File D:\Metin2 Server Files\mainline\SRC_2014\Metin2Client\UserInterface\PythonBackgroundModule.cpp
;	COMDAT ?backgroundWarpTest@@YAPAU_object@@PAU1@0@Z
_TEXT	SEGMENT
_iX$ = -8						; size = 4
_iY$ = -4						; size = 4
_poSelf$ = 8						; size = 4
_poArgs$ = 12						; size = 4
?backgroundWarpTest@@YAPAU_object@@PAU1@0@Z PROC	; backgroundWarpTest, COMDAT

; 481  : {

  00000	55		 push	 ebp
  00001	8b ec		 mov	 ebp, esp
  00003	83 ec 08	 sub	 esp, 8

; 482  : 	int iX;
; 483  : 	if (!PyTuple_GetInteger(poArgs, 0, &iX))

  00006	8d 45 f8	 lea	 eax, DWORD PTR _iX$[ebp]
  00009	50		 push	 eax
  0000a	6a 00		 push	 0
  0000c	ff 75 0c	 push	 DWORD PTR _poArgs$[ebp]
  0000f	e8 00 00 00 00	 call	 ?PyTuple_GetInteger@@YA_NPAU_object@@HPAH@Z ; PyTuple_GetInteger
  00014	83 c4 0c	 add	 esp, 12			; 0000000cH
  00017	84 c0		 test	 al, al
  00019	75 09		 jne	 SHORT $LN2@background
$LN5@background:

; 492  : }

  0001b	e8 00 00 00 00	 call	 ?Py_BadArgument@@YAPAU_object@@XZ ; Py_BadArgument
  00020	8b e5		 mov	 esp, ebp
  00022	5d		 pop	 ebp
  00023	c3		 ret	 0
$LN2@background:

; 484  : 		return Py_BadArgument();
; 485  : 
; 486  : 	int iY;
; 487  : 	if (!PyTuple_GetInteger(poArgs, 1, &iY))

  00024	8d 45 fc	 lea	 eax, DWORD PTR _iY$[ebp]
  00027	50		 push	 eax
  00028	6a 01		 push	 1
  0002a	ff 75 0c	 push	 DWORD PTR _poArgs$[ebp]
  0002d	e8 00 00 00 00	 call	 ?PyTuple_GetInteger@@YA_NPAU_object@@HPAH@Z ; PyTuple_GetInteger
  00032	83 c4 0c	 add	 esp, 12			; 0000000cH
  00035	84 c0		 test	 al, al
  00037	74 e2		 je	 SHORT $LN5@background

; 488  : 		return Py_BadArgument();
; 489  : 
; 490  : 	CPythonBackground::Instance().Warp((DWORD)iX * 100 , (DWORD)iY * 100);

  00039	6b 45 fc 64	 imul	 eax, DWORD PTR _iY$[ebp], 100
  0003d	8b 0d 00 00 00
	00		 mov	 ecx, DWORD PTR ?ms_singleton@?$CSingleton@VCPythonBackground@@@@0PAVCPythonBackground@@A ; CSingleton<CPythonBackground>::ms_singleton
  00043	50		 push	 eax
  00044	6b 45 f8 64	 imul	 eax, DWORD PTR _iX$[ebp], 100
  00048	50		 push	 eax
  00049	e8 00 00 00 00	 call	 ?Warp@CPythonBackground@@QAEXKK@Z ; CPythonBackground::Warp

; 491  : 	return Py_BuildNone();

  0004e	e8 00 00 00 00	 call	 ?Py_BuildNone@@YAPAU_object@@XZ ; Py_BuildNone

; 492  : }

  00053	8b e5		 mov	 esp, ebp
  00055	5d		 pop	 ebp
  00056	c3		 ret	 0
?backgroundWarpTest@@YAPAU_object@@PAU1@0@Z ENDP	; backgroundWarpTest
_TEXT	ENDS
; Function compile flags: /Ogtp
; File D:\Metin2 Server Files\mainline\SRC_2014\Metin2Client\UserInterface\PythonBackgroundModule.cpp
; File C:\Program Files (x86)\Microsoft Visual Studio\2019\Community\VC\Tools\MSVC\14.28.29333\include\xstring
; File D:\Metin2 Server Files\mainline\SRC_2014\Metin2Client\UserInterface\PythonBackgroundModule.cpp
;	COMDAT ?backgroundGlobalPositionToMapInfo@@YAPAU_object@@PAU1@0@Z
_TEXT	SEGMENT
_iX$ = -8						; size = 4
_iY$ = -4						; size = 4
_poSelf$ = 8						; size = 4
_poArgs$ = 12						; size = 4
?backgroundGlobalPositionToMapInfo@@YAPAU_object@@PAU1@0@Z PROC ; backgroundGlobalPositionToMapInfo, COMDAT

; 461  : {

  00000	55		 push	 ebp
  00001	8b ec		 mov	 ebp, esp
  00003	83 ec 08	 sub	 esp, 8

; 462  : 	int iX;
; 463  : 	if (!PyTuple_GetInteger(poArgs, 0, &iX))

  00006	8d 45 f8	 lea	 eax, DWORD PTR _iX$[ebp]
  00009	50		 push	 eax
  0000a	6a 00		 push	 0
  0000c	ff 75 0c	 push	 DWORD PTR _poArgs$[ebp]
  0000f	e8 00 00 00 00	 call	 ?PyTuple_GetInteger@@YA_NPAU_object@@HPAH@Z ; PyTuple_GetInteger
  00014	83 c4 0c	 add	 esp, 12			; 0000000cH
  00017	84 c0		 test	 al, al
  00019	75 09		 jne	 SHORT $LN2@background
$LN15@background:

; 477  : }

  0001b	e8 00 00 00 00	 call	 ?Py_BadArgument@@YAPAU_object@@XZ ; Py_BadArgument
  00020	8b e5		 mov	 esp, ebp
  00022	5d		 pop	 ebp
  00023	c3		 ret	 0
$LN2@background:

; 464  : 		return Py_BadArgument();
; 465  : 
; 466  : 	int iY;
; 467  : 	if (!PyTuple_GetInteger(poArgs, 1, &iY))

  00024	8d 45 fc	 lea	 eax, DWORD PTR _iY$[ebp]
  00027	50		 push	 eax
  00028	6a 01		 push	 1
  0002a	ff 75 0c	 push	 DWORD PTR _poArgs$[ebp]
  0002d	e8 00 00 00 00	 call	 ?PyTuple_GetInteger@@YA_NPAU_object@@HPAH@Z ; PyTuple_GetInteger
  00032	83 c4 0c	 add	 esp, 12			; 0000000cH
  00035	84 c0		 test	 al, al
  00037	74 e2		 je	 SHORT $LN15@background

; 468  : 		return Py_BadArgument();
; 469  : 
; 470  : 	CPythonBackground& rkBG=CPythonBackground::Instance();
; 471  : 	CPythonBackground::TMapInfo* pkMapInfo=rkBG.GlobalPositionToMapInfo(iX, iY);

  00039	ff 75 fc	 push	 DWORD PTR _iY$[ebp]
  0003c	8b 0d 00 00 00
	00		 mov	 ecx, DWORD PTR ?ms_singleton@?$CSingleton@VCPythonBackground@@@@0PAVCPythonBackground@@A ; CSingleton<CPythonBackground>::ms_singleton
  00042	ff 75 f8	 push	 DWORD PTR _iX$[ebp]
  00045	e8 00 00 00 00	 call	 ?GlobalPositionToMapInfo@CPythonBackground@@QAEPAUTMapInfo@CMapManager@@KK@Z ; CPythonBackground::GlobalPositionToMapInfo

; 472  : 	
; 473  : 	if (pkMapInfo)

  0004a	85 c0		 test	 eax, eax
  0004c	74 23		 je	 SHORT $LN4@background
; File C:\Program Files (x86)\Microsoft Visual Studio\2019\Community\VC\Tools\MSVC\14.28.29333\include\xstring

; 2227 :         return _BUF_SIZE <= _Myres;

  0004e	83 78 14 10	 cmp	 DWORD PTR [eax+20], 16	; 00000010H

; 2218 :         const value_type* _Result = _Bx._Buf;

  00052	8b c8		 mov	 ecx, eax

; 2219 :         if (_Large_string_engaged()) {

  00054	72 02		 jb	 SHORT $LN10@background

; 2220 :             _Result = _Unfancy(_Bx._Ptr);

  00056	8b 08		 mov	 ecx, DWORD PTR [eax]
$LN10@background:
; File D:\Metin2 Server Files\mainline\SRC_2014\Metin2Client\UserInterface\PythonBackgroundModule.cpp

; 474  : 		return Py_BuildValue("sii", pkMapInfo->m_strName.c_str(), pkMapInfo->m_dwBaseX, pkMapInfo->m_dwBaseY);

  00058	ff 70 1c	 push	 DWORD PTR [eax+28]
  0005b	ff 70 18	 push	 DWORD PTR [eax+24]
  0005e	51		 push	 ecx

; 477  : }

  0005f	68 00 00 00 00	 push	 OFFSET ??_C@_03FEAIAPNA@sii@
  00064	ff 15 00 00 00
	00		 call	 DWORD PTR __imp__Py_BuildValue
  0006a	83 c4 10	 add	 esp, 16			; 00000010H
  0006d	8b e5		 mov	 esp, ebp
  0006f	5d		 pop	 ebp
  00070	c3		 ret	 0
$LN4@background:

; 475  : 	else
; 476  : 		return Py_BuildValue("sii", "", 0, 0);

  00071	6a 00		 push	 0
  00073	6a 00		 push	 0
  00075	68 00 00 00 00	 push	 OFFSET ??_C@_00CNPNBAHC@@

; 477  : }

  0007a	68 00 00 00 00	 push	 OFFSET ??_C@_03FEAIAPNA@sii@
  0007f	ff 15 00 00 00
	00		 call	 DWORD PTR __imp__Py_BuildValue
  00085	83 c4 10	 add	 esp, 16			; 00000010H
  00088	8b e5		 mov	 esp, ebp
  0008a	5d		 pop	 ebp
  0008b	c3		 ret	 0
?backgroundGlobalPositionToMapInfo@@YAPAU_object@@PAU1@0@Z ENDP ; backgroundGlobalPositionToMapInfo
_TEXT	ENDS
; Function compile flags: /Ogtp
; File D:\Metin2 Server Files\mainline\SRC_2014\Metin2Client\UserInterface\PythonBackgroundModule.cpp
;	COMDAT ?backgroundGlobalPositionToLocalPosition@@YAPAU_object@@PAU1@0@Z
_TEXT	SEGMENT
_iY$ = -16						; size = 4
_iX$ = -12						; size = 4
_lX$ = -8						; size = 4
_lY$ = -4						; size = 4
_poSelf$ = 8						; size = 4
_poArgs$ = 12						; size = 4
?backgroundGlobalPositionToLocalPosition@@YAPAU_object@@PAU1@0@Z PROC ; backgroundGlobalPositionToLocalPosition, COMDAT

; 443  : {

  00000	55		 push	 ebp
  00001	8b ec		 mov	 ebp, esp
  00003	83 ec 10	 sub	 esp, 16			; 00000010H

; 444  : 	int iX;
; 445  : 	if (!PyTuple_GetInteger(poArgs, 0, &iX))

  00006	8d 45 f4	 lea	 eax, DWORD PTR _iX$[ebp]
  00009	50		 push	 eax
  0000a	6a 00		 push	 0
  0000c	ff 75 0c	 push	 DWORD PTR _poArgs$[ebp]
  0000f	e8 00 00 00 00	 call	 ?PyTuple_GetInteger@@YA_NPAU_object@@HPAH@Z ; PyTuple_GetInteger
  00014	83 c4 0c	 add	 esp, 12			; 0000000cH
  00017	84 c0		 test	 al, al
  00019	75 09		 jne	 SHORT $LN2@background
$LN5@background:

; 458  : }

  0001b	e8 00 00 00 00	 call	 ?Py_BadArgument@@YAPAU_object@@XZ ; Py_BadArgument
  00020	8b e5		 mov	 esp, ebp
  00022	5d		 pop	 ebp
  00023	c3		 ret	 0
$LN2@background:

; 446  : 		return Py_BadArgument();
; 447  : 
; 448  : 	int iY;
; 449  : 	if (!PyTuple_GetInteger(poArgs, 1, &iY))

  00024	8d 45 f0	 lea	 eax, DWORD PTR _iY$[ebp]
  00027	50		 push	 eax
  00028	6a 01		 push	 1
  0002a	ff 75 0c	 push	 DWORD PTR _poArgs$[ebp]
  0002d	e8 00 00 00 00	 call	 ?PyTuple_GetInteger@@YA_NPAU_object@@HPAH@Z ; PyTuple_GetInteger
  00032	83 c4 0c	 add	 esp, 12			; 0000000cH
  00035	84 c0		 test	 al, al
  00037	74 e2		 je	 SHORT $LN5@background

; 450  : 		return Py_BadArgument();
; 451  : 
; 452  : 	LONG lX=iX;

  00039	8b 45 f4	 mov	 eax, DWORD PTR _iX$[ebp]

; 453  : 	LONG lY=iY;	
; 454  : 	CPythonBackground& rkBG=CPythonBackground::Instance();
; 455  : 	rkBG.GlobalPositionToLocalPosition(lX, lY);

  0003c	8b 0d 00 00 00
	00		 mov	 ecx, DWORD PTR ?ms_singleton@?$CSingleton@VCPythonBackground@@@@0PAVCPythonBackground@@A ; CSingleton<CPythonBackground>::ms_singleton
  00042	89 45 f8	 mov	 DWORD PTR _lX$[ebp], eax
  00045	8b 45 f0	 mov	 eax, DWORD PTR _iY$[ebp]
  00048	89 45 fc	 mov	 DWORD PTR _lY$[ebp], eax
  0004b	8d 45 fc	 lea	 eax, DWORD PTR _lY$[ebp]
  0004e	50		 push	 eax
  0004f	8d 45 f8	 lea	 eax, DWORD PTR _lX$[ebp]
  00052	50		 push	 eax
  00053	e8 00 00 00 00	 call	 ?GlobalPositionToLocalPosition@CPythonBackground@@QAEXAAJ0@Z ; CPythonBackground::GlobalPositionToLocalPosition

; 456  : 
; 457  : 	return Py_BuildValue("ii", lX, lY);

  00058	ff 75 fc	 push	 DWORD PTR _lY$[ebp]
  0005b	ff 75 f8	 push	 DWORD PTR _lX$[ebp]
  0005e	68 00 00 00 00	 push	 OFFSET ??_C@_02PDIHAGKM@ii@
  00063	ff 15 00 00 00
	00		 call	 DWORD PTR __imp__Py_BuildValue
  00069	83 c4 0c	 add	 esp, 12			; 0000000cH

; 458  : }

  0006c	8b e5		 mov	 esp, ebp
  0006e	5d		 pop	 ebp
  0006f	c3		 ret	 0
?backgroundGlobalPositionToLocalPosition@@YAPAU_object@@PAU1@0@Z ENDP ; backgroundGlobalPositionToLocalPosition
_TEXT	ENDS
; Function compile flags: /Ogtp
; File D:\Metin2 Server Files\mainline\SRC_2014\Metin2Client\UserInterface\PythonBackgroundModule.cpp
;	COMDAT ?backgroundSetTransparentTree@@YAPAU_object@@PAU1@0@Z
_TEXT	SEGMENT
_bTransparent$ = -4					; size = 4
_poSelf$ = 8						; size = 4
_poArgs$ = 12						; size = 4
?backgroundSetTransparentTree@@YAPAU_object@@PAU1@0@Z PROC ; backgroundSetTransparentTree, COMDAT

; 433  : {

  00000	55		 push	 ebp
  00001	8b ec		 mov	 ebp, esp
  00003	51		 push	 ecx

; 434  : 	int bTransparent;
; 435  : 	if (!PyTuple_GetInteger(poArgs, 0, &bTransparent))

  00004	8d 45 fc	 lea	 eax, DWORD PTR _bTransparent$[ebp]
  00007	50		 push	 eax
  00008	6a 00		 push	 0
  0000a	ff 75 0c	 push	 DWORD PTR _poArgs$[ebp]
  0000d	e8 00 00 00 00	 call	 ?PyTuple_GetInteger@@YA_NPAU_object@@HPAH@Z ; PyTuple_GetInteger
  00012	83 c4 0c	 add	 esp, 12			; 0000000cH
  00015	84 c0		 test	 al, al
  00017	75 09		 jne	 SHORT $LN2@background

; 436  : 		return Py_BadArgument();

  00019	e8 00 00 00 00	 call	 ?Py_BadArgument@@YAPAU_object@@XZ ; Py_BadArgument

; 440  : }

  0001e	8b e5		 mov	 esp, ebp
  00020	5d		 pop	 ebp
  00021	c3		 ret	 0
$LN2@background:

; 437  : 
; 438  : 	CPythonBackground::Instance().SetTransparentTree(bTransparent ? true : false);

  00022	83 7d fc 00	 cmp	 DWORD PTR _bTransparent$[ebp], 0
  00026	8b 0d 00 00 00
	00		 mov	 ecx, DWORD PTR ?ms_singleton@?$CSingleton@VCPythonBackground@@@@0PAVCPythonBackground@@A ; CSingleton<CPythonBackground>::ms_singleton
  0002c	0f 95 c0	 setne	 al
  0002f	0f b6 c0	 movzx	 eax, al
  00032	50		 push	 eax
  00033	e8 00 00 00 00	 call	 ?SetTransparentTree@CMapManager@@QAEX_N@Z ; CMapManager::SetTransparentTree

; 439  : 	return Py_BuildNone();

  00038	e8 00 00 00 00	 call	 ?Py_BuildNone@@YAPAU_object@@XZ ; Py_BuildNone

; 440  : }

  0003d	8b e5		 mov	 esp, ebp
  0003f	5d		 pop	 ebp
  00040	c3		 ret	 0
?backgroundSetTransparentTree@@YAPAU_object@@PAU1@0@Z ENDP ; backgroundSetTransparentTree
_TEXT	ENDS
; Function compile flags: /Ogtp
; File D:\Metin2 Server Files\mainline\SRC_2014\Metin2Client\UserInterface\PythonBackgroundModule.cpp
;	COMDAT ?backgroundSetRenderSort@@YAPAU_object@@PAU1@0@Z
_TEXT	SEGMENT
_eSort$ = -4						; size = 4
_poSelf$ = 8						; size = 4
_poArgs$ = 12						; size = 4
?backgroundSetRenderSort@@YAPAU_object@@PAU1@0@Z PROC	; backgroundSetRenderSort, COMDAT

; 423  : {

  00000	55		 push	 ebp
  00001	8b ec		 mov	 ebp, esp
  00003	51		 push	 ecx

; 424  : 	int eSort;
; 425  : 	if (!PyTuple_GetInteger(poArgs, 0, &eSort))

  00004	8d 45 fc	 lea	 eax, DWORD PTR _eSort$[ebp]
  00007	50		 push	 eax
  00008	6a 00		 push	 0
  0000a	ff 75 0c	 push	 DWORD PTR _poArgs$[ebp]
  0000d	e8 00 00 00 00	 call	 ?PyTuple_GetInteger@@YA_NPAU_object@@HPAH@Z ; PyTuple_GetInteger
  00012	83 c4 0c	 add	 esp, 12			; 0000000cH
  00015	84 c0		 test	 al, al
  00017	75 09		 jne	 SHORT $LN2@background

; 426  : 		return Py_BadArgument();

  00019	e8 00 00 00 00	 call	 ?Py_BadArgument@@YAPAU_object@@XZ ; Py_BadArgument

; 430  : }

  0001e	8b e5		 mov	 esp, ebp
  00020	5d		 pop	 ebp
  00021	c3		 ret	 0
$LN2@background:

; 427  : 
; 428  : 	CPythonBackground::Instance().SetTerrainRenderSort((CMapOutdoor::ETerrainRenderSort) eSort);

  00022	ff 75 fc	 push	 DWORD PTR _eSort$[ebp]
  00025	8b 0d 00 00 00
	00		 mov	 ecx, DWORD PTR ?ms_singleton@?$CSingleton@VCPythonBackground@@@@0PAVCPythonBackground@@A ; CSingleton<CPythonBackground>::ms_singleton
  0002b	e8 00 00 00 00	 call	 ?SetTerrainRenderSort@CMapManager@@QAEXW4ETerrainRenderSort@CMapOutdoor@@@Z ; CMapManager::SetTerrainRenderSort

; 429  : 	return Py_BuildNone();

  00030	e8 00 00 00 00	 call	 ?Py_BuildNone@@YAPAU_object@@XZ ; Py_BuildNone

; 430  : }

  00035	8b e5		 mov	 esp, ebp
  00037	5d		 pop	 ebp
  00038	c3		 ret	 0
?backgroundSetRenderSort@@YAPAU_object@@PAU1@0@Z ENDP	; backgroundSetRenderSort
_TEXT	ENDS
; Function compile flags: /Ogtp
; File D:\Metin2 Server Files\mainline\SRC_2014\Metin2Client\UserInterface\PythonBackgroundModule.cpp
;	COMDAT ?backgroundSetBGLoading@@YAPAU_object@@PAU1@0@Z
_TEXT	SEGMENT
_bBGLoading$ = -1					; size = 1
_poSelf$ = 8						; size = 4
_poArgs$ = 12						; size = 4
?backgroundSetBGLoading@@YAPAU_object@@PAU1@0@Z PROC	; backgroundSetBGLoading, COMDAT

; 413  : {

  00000	55		 push	 ebp
  00001	8b ec		 mov	 ebp, esp
  00003	51		 push	 ecx

; 414  : 	bool bBGLoading;
; 415  : 	if (!PyTuple_GetBoolean(poArgs, 0, &bBGLoading))

  00004	8d 45 ff	 lea	 eax, DWORD PTR _bBGLoading$[ebp]
  00007	50		 push	 eax
  00008	6a 00		 push	 0
  0000a	ff 75 0c	 push	 DWORD PTR _poArgs$[ebp]
  0000d	e8 00 00 00 00	 call	 ?PyTuple_GetBoolean@@YA_NPAU_object@@HPA_N@Z ; PyTuple_GetBoolean
  00012	83 c4 0c	 add	 esp, 12			; 0000000cH
  00015	84 c0		 test	 al, al
  00017	75 09		 jne	 SHORT $LN2@background

; 416  : 		return Py_BadArgument();

  00019	e8 00 00 00 00	 call	 ?Py_BadArgument@@YAPAU_object@@XZ ; Py_BadArgument

; 420  : }

  0001e	8b e5		 mov	 esp, ebp
  00020	5d		 pop	 ebp
  00021	c3		 ret	 0
$LN2@background:

; 417  : 
; 418  : 	//CPythonBackground::Instance().BGLoadingEnable(bBGLoading);
; 419  : 	return Py_BuildNone();

  00022	e8 00 00 00 00	 call	 ?Py_BuildNone@@YAPAU_object@@XZ ; Py_BuildNone

; 420  : }

  00027	8b e5		 mov	 esp, ebp
  00029	5d		 pop	 ebp
  0002a	c3		 ret	 0
?backgroundSetBGLoading@@YAPAU_object@@PAU1@0@Z ENDP	; backgroundSetBGLoading
_TEXT	ENDS
; Function compile flags: /Ogtp
; File D:\Metin2 Server Files\mainline\SRC_2014\Metin2Client\UserInterface\PythonBackgroundModule.cpp
;	COMDAT ?backgroundGetDistanceSetInfo@@YAPAU_object@@PAU1@0@Z
_TEXT	SEGMENT
_iNum$ = -16						; size = 4
_fStart$ = -12						; size = 4
_fEnd$ = -8						; size = 4
_fFarClip$ = -4						; size = 4
_poSelf$ = 8						; size = 4
_poArgs$ = 12						; size = 4
?backgroundGetDistanceSetInfo@@YAPAU_object@@PAU1@0@Z PROC ; backgroundGetDistanceSetInfo, COMDAT

; 405  : {

  00000	55		 push	 ebp
  00001	8b ec		 mov	 ebp, esp
  00003	83 ec 10	 sub	 esp, 16			; 00000010H

; 406  : 	int iNum;
; 407  : 	float fStart, fEnd, fFarClip;
; 408  : 	CPythonBackground::Instance().GetDistanceSetInfo(&iNum, &fStart, &fEnd, &fFarClip);

  00006	8b 0d 00 00 00
	00		 mov	 ecx, DWORD PTR ?ms_singleton@?$CSingleton@VCPythonBackground@@@@0PAVCPythonBackground@@A ; CSingleton<CPythonBackground>::ms_singleton
  0000c	8d 45 fc	 lea	 eax, DWORD PTR _fFarClip$[ebp]
  0000f	50		 push	 eax
  00010	8d 45 f8	 lea	 eax, DWORD PTR _fEnd$[ebp]
  00013	50		 push	 eax
  00014	8d 45 f4	 lea	 eax, DWORD PTR _fStart$[ebp]
  00017	50		 push	 eax
  00018	8d 45 f0	 lea	 eax, DWORD PTR _iNum$[ebp]
  0001b	50		 push	 eax
  0001c	e8 00 00 00 00	 call	 ?GetDistanceSetInfo@CPythonBackground@@QAEXPAHPAM11@Z ; CPythonBackground::GetDistanceSetInfo
  00021	f3 0f 10 45 fc	 movss	 xmm0, DWORD PTR _fFarClip$[ebp]

; 409  : 	return Py_BuildValue("ifff", iNum, fStart, fEnd, fFarClip);

  00026	83 ec 18	 sub	 esp, 24			; 00000018H
  00029	0f 5a c0	 cvtps2pd xmm0, xmm0
  0002c	f2 0f 11 44 24
	10		 movsd	 QWORD PTR [esp+16], xmm0
  00032	f3 0f 10 45 f8	 movss	 xmm0, DWORD PTR _fEnd$[ebp]
  00037	0f 5a c0	 cvtps2pd xmm0, xmm0
  0003a	f2 0f 11 44 24
	08		 movsd	 QWORD PTR [esp+8], xmm0
  00040	f3 0f 10 45 f4	 movss	 xmm0, DWORD PTR _fStart$[ebp]
  00045	0f 5a c0	 cvtps2pd xmm0, xmm0
  00048	f2 0f 11 04 24	 movsd	 QWORD PTR [esp], xmm0
  0004d	ff 75 f0	 push	 DWORD PTR _iNum$[ebp]
  00050	68 00 00 00 00	 push	 OFFSET ??_C@_04MMEPMOLC@ifff@
  00055	ff 15 00 00 00
	00		 call	 DWORD PTR __imp__Py_BuildValue
  0005b	83 c4 20	 add	 esp, 32			; 00000020H

; 410  : }

  0005e	8b e5		 mov	 esp, ebp
  00060	5d		 pop	 ebp
  00061	c3		 ret	 0
?backgroundGetDistanceSetInfo@@YAPAU_object@@PAU1@0@Z ENDP ; backgroundGetDistanceSetInfo
_TEXT	ENDS
; Function compile flags: /Ogtp
; File D:\Metin2 Server Files\mainline\SRC_2014\Metin2Client\UserInterface\PythonBackgroundModule.cpp
;	COMDAT ?backgroundGetFarClip@@YAPAU_object@@PAU1@0@Z
_TEXT	SEGMENT
_fFarClip$ = -4						; size = 4
_poSelf$ = 8						; size = 4
_poArgs$ = 12						; size = 4
?backgroundGetFarClip@@YAPAU_object@@PAU1@0@Z PROC	; backgroundGetFarClip, COMDAT

; 399  : {

  00000	55		 push	 ebp
  00001	8b ec		 mov	 ebp, esp
  00003	51		 push	 ecx

; 400  : 	float fFarClip = CPythonBackground::Instance().GetFarClip();

  00004	8b 0d 00 00 00
	00		 mov	 ecx, DWORD PTR ?ms_singleton@?$CSingleton@VCPythonBackground@@@@0PAVCPythonBackground@@A ; CSingleton<CPythonBackground>::ms_singleton
  0000a	e8 00 00 00 00	 call	 ?GetFarClip@CPythonBackground@@QAEMXZ ; CPythonBackground::GetFarClip
  0000f	d9 5d fc	 fstp	 DWORD PTR _fFarClip$[ebp]
  00012	f3 0f 10 45 fc	 movss	 xmm0, DWORD PTR _fFarClip$[ebp]

; 401  : 	return Py_BuildValue("f", fFarClip);

  00017	83 ec 08	 sub	 esp, 8
  0001a	0f 5a c0	 cvtps2pd xmm0, xmm0
  0001d	f2 0f 11 04 24	 movsd	 QWORD PTR [esp], xmm0
  00022	68 00 00 00 00	 push	 OFFSET ??_C@_01INIBCBCB@f@
  00027	ff 15 00 00 00
	00		 call	 DWORD PTR __imp__Py_BuildValue
  0002d	83 c4 0c	 add	 esp, 12			; 0000000cH

; 402  : }

  00030	8b e5		 mov	 esp, ebp
  00032	5d		 pop	 ebp
  00033	c3		 ret	 0
?backgroundGetFarClip@@YAPAU_object@@PAU1@0@Z ENDP	; backgroundGetFarClip
_TEXT	ENDS
; Function compile flags: /Ogtp
; File D:\Metin2 Server Files\mainline\SRC_2014\Metin2Client\UserInterface\PythonBackgroundModule.cpp
;	COMDAT ?backgroundSetViewDistanceSet@@YAPAU_object@@PAU1@0@Z
_TEXT	SEGMENT
_iNum$ = -8						; size = 4
_fFarClip$ = -4						; size = 4
_poSelf$ = 8						; size = 4
_poArgs$ = 12						; size = 4
?backgroundSetViewDistanceSet@@YAPAU_object@@PAU1@0@Z PROC ; backgroundSetViewDistanceSet, COMDAT

; 384  : {

  00000	55		 push	 ebp
  00001	8b ec		 mov	 ebp, esp
  00003	83 ec 08	 sub	 esp, 8

; 385  : 	int iNum;
; 386  : 	if (!PyTuple_GetInteger(poArgs, 0, &iNum))

  00006	8d 45 f8	 lea	 eax, DWORD PTR _iNum$[ebp]
  00009	50		 push	 eax
  0000a	6a 00		 push	 0
  0000c	ff 75 0c	 push	 DWORD PTR _poArgs$[ebp]
  0000f	e8 00 00 00 00	 call	 ?PyTuple_GetInteger@@YA_NPAU_object@@HPAH@Z ; PyTuple_GetInteger
  00014	83 c4 0c	 add	 esp, 12			; 0000000cH
  00017	84 c0		 test	 al, al
  00019	75 09		 jne	 SHORT $LN2@background
$LN5@background:

; 396  : }

  0001b	e8 00 00 00 00	 call	 ?Py_BadArgument@@YAPAU_object@@XZ ; Py_BadArgument
  00020	8b e5		 mov	 esp, ebp
  00022	5d		 pop	 ebp
  00023	c3		 ret	 0
$LN2@background:

; 387  : 		return Py_BadArgument();
; 388  : 
; 389  : 	float fFarClip;
; 390  : 	if (!PyTuple_GetFloat(poArgs, 1, &fFarClip))

  00024	8d 45 fc	 lea	 eax, DWORD PTR _fFarClip$[ebp]
  00027	50		 push	 eax
  00028	6a 01		 push	 1
  0002a	ff 75 0c	 push	 DWORD PTR _poArgs$[ebp]
  0002d	e8 00 00 00 00	 call	 ?PyTuple_GetFloat@@YA_NPAU_object@@HPAM@Z ; PyTuple_GetFloat
  00032	83 c4 0c	 add	 esp, 12			; 0000000cH
  00035	84 c0		 test	 al, al
  00037	74 e2		 je	 SHORT $LN5@background

; 391  : 		return Py_BadArgument();
; 392  : 
; 393  : 	CPythonBackground& rkBG=CPythonBackground::Instance();
; 394  : 	rkBG.SetViewDistanceSet(iNum, fFarClip);

  00039	f3 0f 10 45 fc	 movss	 xmm0, DWORD PTR _fFarClip$[ebp]
  0003e	51		 push	 ecx
  0003f	8b 0d 00 00 00
	00		 mov	 ecx, DWORD PTR ?ms_singleton@?$CSingleton@VCPythonBackground@@@@0PAVCPythonBackground@@A ; CSingleton<CPythonBackground>::ms_singleton
  00045	f3 0f 11 04 24	 movss	 DWORD PTR [esp], xmm0
  0004a	ff 75 f8	 push	 DWORD PTR _iNum$[ebp]
  0004d	e8 00 00 00 00	 call	 ?SetViewDistanceSet@CPythonBackground@@QAEXHM@Z ; CPythonBackground::SetViewDistanceSet

; 395  : 	return Py_BuildNone();

  00052	e8 00 00 00 00	 call	 ?Py_BuildNone@@YAPAU_object@@XZ ; Py_BuildNone

; 396  : }

  00057	8b e5		 mov	 esp, ebp
  00059	5d		 pop	 ebp
  0005a	c3		 ret	 0
?backgroundSetViewDistanceSet@@YAPAU_object@@PAU1@0@Z ENDP ; backgroundSetViewDistanceSet
_TEXT	ENDS
; Function compile flags: /Ogtp
; File D:\Metin2 Server Files\mainline\SRC_2014\Metin2Client\UserInterface\PythonBackgroundModule.cpp
;	COMDAT ?backgroundSelectViewDistanceNum@@YAPAU_object@@PAU1@0@Z
_TEXT	SEGMENT
_iNum$ = -4						; size = 4
_poSelf$ = 8						; size = 4
_poArgs$ = 12						; size = 4
?backgroundSelectViewDistanceNum@@YAPAU_object@@PAU1@0@Z PROC ; backgroundSelectViewDistanceNum, COMDAT

; 371  : {

  00000	55		 push	 ebp
  00001	8b ec		 mov	 ebp, esp
  00003	51		 push	 ecx

; 372  : 	int iNum;
; 373  : 
; 374  : 	if (!PyTuple_GetInteger(poArgs, 0, &iNum))

  00004	8d 45 fc	 lea	 eax, DWORD PTR _iNum$[ebp]
  00007	50		 push	 eax
  00008	6a 00		 push	 0
  0000a	ff 75 0c	 push	 DWORD PTR _poArgs$[ebp]
  0000d	e8 00 00 00 00	 call	 ?PyTuple_GetInteger@@YA_NPAU_object@@HPAH@Z ; PyTuple_GetInteger
  00012	83 c4 0c	 add	 esp, 12			; 0000000cH
  00015	84 c0		 test	 al, al
  00017	75 09		 jne	 SHORT $LN2@background

; 375  : 		return Py_BadArgument();

  00019	e8 00 00 00 00	 call	 ?Py_BadArgument@@YAPAU_object@@XZ ; Py_BadArgument

; 381  : }

  0001e	8b e5		 mov	 esp, ebp
  00020	5d		 pop	 ebp
  00021	c3		 ret	 0
$LN2@background:

; 376  : 
; 377  : 	CPythonBackground& rkBG=CPythonBackground::Instance();
; 378  : 	rkBG.SelectViewDistanceNum(iNum);

  00022	ff 75 fc	 push	 DWORD PTR _iNum$[ebp]
  00025	8b 0d 00 00 00
	00		 mov	 ecx, DWORD PTR ?ms_singleton@?$CSingleton@VCPythonBackground@@@@0PAVCPythonBackground@@A ; CSingleton<CPythonBackground>::ms_singleton
  0002b	e8 00 00 00 00	 call	 ?SelectViewDistanceNum@CPythonBackground@@QAEXH@Z ; CPythonBackground::SelectViewDistanceNum

; 379  : 
; 380  : 	return Py_BuildNone();

  00030	e8 00 00 00 00	 call	 ?Py_BuildNone@@YAPAU_object@@XZ ; Py_BuildNone

; 381  : }

  00035	8b e5		 mov	 esp, ebp
  00037	5d		 pop	 ebp
  00038	c3		 ret	 0
?backgroundSelectViewDistanceNum@@YAPAU_object@@PAU1@0@Z ENDP ; backgroundSelectViewDistanceNum
_TEXT	ENDS
; Function compile flags: /Ogtp
; File D:\Metin2 Server Files\mainline\SRC_2014\Metin2Client\UserInterface\PythonBackgroundModule.cpp
;	COMDAT ?backgroundSetSpaltLimit@@YAPAU_object@@PAU1@0@Z
_TEXT	SEGMENT
_iSplatNum$ = -4					; size = 4
_poSelf$ = 8						; size = 4
_poArgs$ = 12						; size = 4
?backgroundSetSpaltLimit@@YAPAU_object@@PAU1@0@Z PROC	; backgroundSetSpaltLimit, COMDAT

; 356  : {

  00000	55		 push	 ebp
  00001	8b ec		 mov	 ebp, esp
  00003	51		 push	 ecx

; 357  : 	int iSplatNum;
; 358  : 	if (!PyTuple_GetInteger(poArgs, 0, &iSplatNum))

  00004	8d 45 fc	 lea	 eax, DWORD PTR _iSplatNum$[ebp]
  00007	50		 push	 eax
  00008	6a 00		 push	 0
  0000a	ff 75 0c	 push	 DWORD PTR _poArgs$[ebp]
  0000d	e8 00 00 00 00	 call	 ?PyTuple_GetInteger@@YA_NPAU_object@@HPAH@Z ; PyTuple_GetInteger
  00012	83 c4 0c	 add	 esp, 12			; 0000000cH
  00015	84 c0		 test	 al, al
  00017	75 09		 jne	 SHORT $LN2@background

; 359  : 		return Py_BadArgument();

  00019	e8 00 00 00 00	 call	 ?Py_BadArgument@@YAPAU_object@@XZ ; Py_BadArgument

; 368  : }

  0001e	8b e5		 mov	 esp, ebp
  00020	5d		 pop	 ebp
  00021	c3		 ret	 0
$LN2@background:

; 360  : 
; 361  : 	if (iSplatNum<0)

  00022	8b 45 fc	 mov	 eax, DWORD PTR _iSplatNum$[ebp]
  00025	50		 push	 eax
  00026	85 c0		 test	 eax, eax
  00028	79 11		 jns	 SHORT $LN3@background

; 362  : 		return Py_BuildException("background.SetSplatLimit(iSplatNum(%d)>=0)", iSplatNum);

  0002a	68 00 00 00 00	 push	 OFFSET ??_C@_0CL@HHHOJMJN@background?4SetSplatLimit?$CIiSplat@
  0002f	e8 00 00 00 00	 call	 ?Py_BuildException@@YAPAU_object@@PBDZZ ; Py_BuildException
  00034	83 c4 08	 add	 esp, 8

; 368  : }

  00037	8b e5		 mov	 esp, ebp
  00039	5d		 pop	 ebp
  0003a	c3		 ret	 0
$LN3@background:

; 363  : 
; 364  : 	CPythonBackground& rkBG=CPythonBackground::Instance();
; 365  : 	rkBG.SetSplatLimit(iSplatNum);

  0003b	8b 0d 00 00 00
	00		 mov	 ecx, DWORD PTR ?ms_singleton@?$CSingleton@VCPythonBackground@@@@0PAVCPythonBackground@@A ; CSingleton<CPythonBackground>::ms_singleton
  00041	e8 00 00 00 00	 call	 ?SetSplatLimit@CPythonBackground@@QAE_NH@Z ; CPythonBackground::SetSplatLimit

; 366  : 
; 367  : 	return Py_BuildNone();

  00046	e8 00 00 00 00	 call	 ?Py_BuildNone@@YAPAU_object@@XZ ; Py_BuildNone

; 368  : }

  0004b	8b e5		 mov	 esp, ebp
  0004d	5d		 pop	 ebp
  0004e	c3		 ret	 0
?backgroundSetSpaltLimit@@YAPAU_object@@PAU1@0@Z ENDP	; backgroundSetSpaltLimit
_TEXT	ENDS
; Function compile flags: /Ogtp
; File D:\Metin2 Server Files\mainline\SRC_2014\Metin2Client\UserInterface\PythonBackgroundModule.cpp
;	COMDAT ?backgroundSetVisiblePart@@YAPAU_object@@PAU1@0@Z
_TEXT	SEGMENT
_isVisible$ = -8					; size = 4
_ePart$ = -4						; size = 4
_poSelf$ = 8						; size = 4
_poArgs$ = 12						; size = 4
?backgroundSetVisiblePart@@YAPAU_object@@PAU1@0@Z PROC	; backgroundSetVisiblePart, COMDAT

; 337  : {

  00000	55		 push	 ebp
  00001	8b ec		 mov	 ebp, esp
  00003	83 ec 08	 sub	 esp, 8

; 338  : 	int ePart;
; 339  : 	if (!PyTuple_GetInteger(poArgs, 0, &ePart))

  00006	8d 45 fc	 lea	 eax, DWORD PTR _ePart$[ebp]
  00009	50		 push	 eax
  0000a	6a 00		 push	 0
  0000c	ff 75 0c	 push	 DWORD PTR _poArgs$[ebp]
  0000f	e8 00 00 00 00	 call	 ?PyTuple_GetInteger@@YA_NPAU_object@@HPAH@Z ; PyTuple_GetInteger
  00014	83 c4 0c	 add	 esp, 12			; 0000000cH
  00017	84 c0		 test	 al, al
  00019	75 09		 jne	 SHORT $LN2@background
$LN6@background:

; 353  : }

  0001b	e8 00 00 00 00	 call	 ?Py_BadArgument@@YAPAU_object@@XZ ; Py_BadArgument
  00020	8b e5		 mov	 esp, ebp
  00022	5d		 pop	 ebp
  00023	c3		 ret	 0
$LN2@background:

; 340  : 		return Py_BadArgument();
; 341  : 
; 342  : 	int isVisible;
; 343  : 	if (!PyTuple_GetInteger(poArgs, 1, &isVisible))

  00024	8d 45 f8	 lea	 eax, DWORD PTR _isVisible$[ebp]
  00027	50		 push	 eax
  00028	6a 01		 push	 1
  0002a	ff 75 0c	 push	 DWORD PTR _poArgs$[ebp]
  0002d	e8 00 00 00 00	 call	 ?PyTuple_GetInteger@@YA_NPAU_object@@HPAH@Z ; PyTuple_GetInteger
  00032	83 c4 0c	 add	 esp, 12			; 0000000cH
  00035	84 c0		 test	 al, al
  00037	74 e2		 je	 SHORT $LN6@background

; 344  : 		return Py_BadArgument();
; 345  : 
; 346  : 	if (ePart>=CMapOutdoor::PART_NUM)

  00039	8b 4d fc	 mov	 ecx, DWORD PTR _ePart$[ebp]
  0003c	83 f9 06	 cmp	 ecx, 6
  0003f	7c 14		 jl	 SHORT $LN4@background

; 347  : 		return Py_BuildException("ePart(%d)<background.PART_NUM(%d)", ePart, CMapOutdoor::PART_NUM);

  00041	6a 06		 push	 6
  00043	51		 push	 ecx
  00044	68 00 00 00 00	 push	 OFFSET ??_C@_0CC@JHPGFABG@ePart?$CI?$CFd?$CJ?$DMbackground?4PART_NUM?$CI?$CF@
  00049	e8 00 00 00 00	 call	 ?Py_BuildException@@YAPAU_object@@PBDZZ ; Py_BuildException
  0004e	83 c4 0c	 add	 esp, 12			; 0000000cH

; 353  : }

  00051	8b e5		 mov	 esp, ebp
  00053	5d		 pop	 ebp
  00054	c3		 ret	 0
$LN4@background:

; 348  : 
; 349  : 	CPythonBackground& rkBG=CPythonBackground::Instance();
; 350  : 	rkBG.SetVisiblePart(ePart, isVisible ? true : false);

  00055	83 7d f8 00	 cmp	 DWORD PTR _isVisible$[ebp], 0
  00059	0f 95 c0	 setne	 al
  0005c	0f b6 c0	 movzx	 eax, al
  0005f	50		 push	 eax
  00060	51		 push	 ecx
  00061	8b 0d 00 00 00
	00		 mov	 ecx, DWORD PTR ?ms_singleton@?$CSingleton@VCPythonBackground@@@@0PAVCPythonBackground@@A ; CSingleton<CPythonBackground>::ms_singleton
  00067	e8 00 00 00 00	 call	 ?SetVisiblePart@CPythonBackground@@QAE_NH_N@Z ; CPythonBackground::SetVisiblePart

; 351  : 
; 352  : 	return Py_BuildNone();

  0006c	e8 00 00 00 00	 call	 ?Py_BuildNone@@YAPAU_object@@XZ ; Py_BuildNone

; 353  : }

  00071	8b e5		 mov	 esp, ebp
  00073	5d		 pop	 ebp
  00074	c3		 ret	 0
?backgroundSetVisiblePart@@YAPAU_object@@PAU1@0@Z ENDP	; backgroundSetVisiblePart
_TEXT	ENDS
; Function compile flags: /Ogtp
; File D:\Metin2 Server Files\mainline\SRC_2014\Metin2Client\UserInterface\PythonBackgroundModule.cpp
;	COMDAT ?backgroundSetShadowLevel@@YAPAU_object@@PAU1@0@Z
_TEXT	SEGMENT
_iLevel$ = -4						; size = 4
_poSelf$ = 8						; size = 4
_poArgs$ = 12						; size = 4
?backgroundSetShadowLevel@@YAPAU_object@@PAU1@0@Z PROC	; backgroundSetShadowLevel, COMDAT

; 325  : {

  00000	55		 push	 ebp
  00001	8b ec		 mov	 ebp, esp
  00003	51		 push	 ecx

; 326  : 	int iLevel;
; 327  : 
; 328  : 	if (!PyTuple_GetInteger(poArgs, 0, &iLevel))

  00004	8d 45 fc	 lea	 eax, DWORD PTR _iLevel$[ebp]
  00007	50		 push	 eax
  00008	6a 00		 push	 0
  0000a	ff 75 0c	 push	 DWORD PTR _poArgs$[ebp]
  0000d	e8 00 00 00 00	 call	 ?PyTuple_GetInteger@@YA_NPAU_object@@HPAH@Z ; PyTuple_GetInteger
  00012	83 c4 0c	 add	 esp, 12			; 0000000cH
  00015	84 c0		 test	 al, al
  00017	75 09		 jne	 SHORT $LN2@background

; 329  : 		return Py_BadArgument();

  00019	e8 00 00 00 00	 call	 ?Py_BadArgument@@YAPAU_object@@XZ ; Py_BadArgument

; 334  : }

  0001e	8b e5		 mov	 esp, ebp
  00020	5d		 pop	 ebp
  00021	c3		 ret	 0
$LN2@background:

; 330  : 
; 331  : 	CPythonBackground& rkBG = CPythonBackground::Instance();
; 332  : 	rkBG.SetShadowLevel(iLevel);

  00022	ff 75 fc	 push	 DWORD PTR _iLevel$[ebp]
  00025	8b 0d 00 00 00
	00		 mov	 ecx, DWORD PTR ?ms_singleton@?$CSingleton@VCPythonBackground@@@@0PAVCPythonBackground@@A ; CSingleton<CPythonBackground>::ms_singleton
  0002b	e8 00 00 00 00	 call	 ?SetShadowLevel@CPythonBackground@@QAE_NH@Z ; CPythonBackground::SetShadowLevel

; 333  : 	return Py_BuildNone();

  00030	e8 00 00 00 00	 call	 ?Py_BuildNone@@YAPAU_object@@XZ ; Py_BuildNone

; 334  : }

  00035	8b e5		 mov	 esp, ebp
  00037	5d		 pop	 ebp
  00038	c3		 ret	 0
?backgroundSetShadowLevel@@YAPAU_object@@PAU1@0@Z ENDP	; backgroundSetShadowLevel
_TEXT	ENDS
; Function compile flags: /Ogtp
; File D:\Metin2 Server Files\mainline\SRC_2014\Metin2Client\UserInterface\PythonBackgroundModule.cpp
;	COMDAT ?backgroundGetShadowMapcolor@@YAPAU_object@@PAU1@0@Z
_TEXT	SEGMENT
_fx$ = -8						; size = 4
_fy$ = -4						; size = 4
_poSelf$ = 8						; size = 4
_poArgs$ = 12						; size = 4
?backgroundGetShadowMapcolor@@YAPAU_object@@PAU1@0@Z PROC ; backgroundGetShadowMapcolor, COMDAT

; 311  : {

  00000	55		 push	 ebp
  00001	8b ec		 mov	 ebp, esp
  00003	83 ec 08	 sub	 esp, 8

; 312  : 	float fx;
; 313  : 	if (!PyTuple_GetFloat(poArgs, 0, &fx))

  00006	8d 45 f8	 lea	 eax, DWORD PTR _fx$[ebp]
  00009	50		 push	 eax
  0000a	6a 00		 push	 0
  0000c	ff 75 0c	 push	 DWORD PTR _poArgs$[ebp]
  0000f	e8 00 00 00 00	 call	 ?PyTuple_GetFloat@@YA_NPAU_object@@HPAM@Z ; PyTuple_GetFloat
  00014	83 c4 0c	 add	 esp, 12			; 0000000cH
  00017	84 c0		 test	 al, al
  00019	75 09		 jne	 SHORT $LN2@background
$LN5@background:

; 322  : }

  0001b	e8 00 00 00 00	 call	 ?Py_BadArgument@@YAPAU_object@@XZ ; Py_BadArgument
  00020	8b e5		 mov	 esp, ebp
  00022	5d		 pop	 ebp
  00023	c3		 ret	 0
$LN2@background:

; 314  : 		return Py_BadArgument();
; 315  : 
; 316  : 	float fy;
; 317  : 	if (!PyTuple_GetFloat(poArgs, 1, &fy))

  00024	8d 45 fc	 lea	 eax, DWORD PTR _fy$[ebp]
  00027	50		 push	 eax
  00028	6a 01		 push	 1
  0002a	ff 75 0c	 push	 DWORD PTR _poArgs$[ebp]
  0002d	e8 00 00 00 00	 call	 ?PyTuple_GetFloat@@YA_NPAU_object@@HPAM@Z ; PyTuple_GetFloat
  00032	83 c4 0c	 add	 esp, 12			; 0000000cH
  00035	84 c0		 test	 al, al
  00037	74 e2		 je	 SHORT $LN5@background

; 318  : 		return Py_BadArgument();
; 319  : 
; 320  : 	DWORD dwColor = CPythonBackground::Instance().GetShadowMapColor(fx, fy);

  00039	f3 0f 10 45 fc	 movss	 xmm0, DWORD PTR _fy$[ebp]
  0003e	83 ec 08	 sub	 esp, 8
  00041	8b 0d 00 00 00
	00		 mov	 ecx, DWORD PTR ?ms_singleton@?$CSingleton@VCPythonBackground@@@@0PAVCPythonBackground@@A ; CSingleton<CPythonBackground>::ms_singleton
  00047	f3 0f 11 44 24
	04		 movss	 DWORD PTR [esp+4], xmm0
  0004d	f3 0f 10 45 f8	 movss	 xmm0, DWORD PTR _fx$[ebp]
  00052	f3 0f 11 04 24	 movss	 DWORD PTR [esp], xmm0
  00057	e8 00 00 00 00	 call	 ?GetShadowMapColor@CMapManager@@QAEKMM@Z ; CMapManager::GetShadowMapColor

; 321  : 	return Py_BuildValue("i", dwColor);

  0005c	50		 push	 eax
  0005d	68 00 00 00 00	 push	 OFFSET ??_C@_01KBJDNOO@i@
  00062	ff 15 00 00 00
	00		 call	 DWORD PTR __imp__Py_BuildValue
  00068	83 c4 08	 add	 esp, 8

; 322  : }

  0006b	8b e5		 mov	 esp, ebp
  0006d	5d		 pop	 ebp
  0006e	c3		 ret	 0
?backgroundGetShadowMapcolor@@YAPAU_object@@PAU1@0@Z ENDP ; backgroundGetShadowMapcolor
_TEXT	ENDS
; Function compile flags: /Ogtp
; File D:\Metin2 Server Files\mainline\SRC_2014\Metin2Client\UserInterface\PythonBackgroundModule.cpp
;	COMDAT ?backgroundGetRenderShadowTime@@YAPAU_object@@PAU1@0@Z
_TEXT	SEGMENT
_poSelf$ = 8						; size = 4
_poArgs$ = 12						; size = 4
?backgroundGetRenderShadowTime@@YAPAU_object@@PAU1@0@Z PROC ; backgroundGetRenderShadowTime, COMDAT

; 306  : 	CPythonBackground& rkBG=CPythonBackground::Instance();
; 307  : 	return Py_BuildValue("i", rkBG.GetRenderShadowTime());

  00000	8b 0d 00 00 00
	00		 mov	 ecx, DWORD PTR ?ms_singleton@?$CSingleton@VCPythonBackground@@@@0PAVCPythonBackground@@A ; CSingleton<CPythonBackground>::ms_singleton
  00006	e8 00 00 00 00	 call	 ?GetRenderShadowTime@CPythonBackground@@QAEKXZ ; CPythonBackground::GetRenderShadowTime
  0000b	50		 push	 eax
  0000c	68 00 00 00 00	 push	 OFFSET ??_C@_01KBJDNOO@i@
  00011	ff 15 00 00 00
	00		 call	 DWORD PTR __imp__Py_BuildValue
  00017	83 c4 08	 add	 esp, 8

; 308  : }

  0001a	c3		 ret	 0
?backgroundGetRenderShadowTime@@YAPAU_object@@PAU1@0@Z ENDP ; backgroundGetRenderShadowTime
_TEXT	ENDS
; Function compile flags: /Ogtp
; File D:\Metin2 Server Files\mainline\SRC_2014\Metin2Client\UserInterface\PythonBackgroundModule.cpp
;	COMDAT ?backgroundGetRenderedGTINum@@YAPAU_object@@PAU1@0@Z
_TEXT	SEGMENT
_dwGraphicThingInstanceNum$ = -8			; size = 4
_dwCRCNum$ = -4						; size = 4
_poSelf$ = 8						; size = 4
_poArgs$ = 12						; size = 4
?backgroundGetRenderedGTINum@@YAPAU_object@@PAU1@0@Z PROC ; backgroundGetRenderedGTINum, COMDAT

; 288  : {

  00000	55		 push	 ebp
  00001	8b ec		 mov	 ebp, esp
  00003	83 ec 08	 sub	 esp, 8

; 289  : 	DWORD dwGraphicThingInstanceNum;
; 290  : 	DWORD dwCRCNum;
; 291  : 
; 292  : 	/*CArea::TCRCWithNumberVector & rCRCWithNumberVector = */
; 293  : 	CPythonBackground::Instance().GetRenderedGraphicThingInstanceNum(&dwGraphicThingInstanceNum, &dwCRCNum);

  00006	8b 0d 00 00 00
	00		 mov	 ecx, DWORD PTR ?ms_singleton@?$CSingleton@VCPythonBackground@@@@0PAVCPythonBackground@@A ; CSingleton<CPythonBackground>::ms_singleton
  0000c	8d 45 fc	 lea	 eax, DWORD PTR _dwCRCNum$[ebp]
  0000f	50		 push	 eax
  00010	8d 45 f8	 lea	 eax, DWORD PTR _dwGraphicThingInstanceNum$[ebp]
  00013	50		 push	 eax
  00014	e8 00 00 00 00	 call	 ?GetRenderedGraphicThingInstanceNum@CMapManager@@QAEAAV?$vector@USCRCWithNumber@CArea@@V?$allocator@USCRCWithNumber@CArea@@@std@@@std@@PAK0@Z ; CMapManager::GetRenderedGraphicThingInstanceNum

; 294  : 
; 295  : /*
; 296  : 	std::ostringstream ostr;
; 297  : 
; 298  : 	std::for_each(rCRCWithNumberVector.begin(),rCRCWithNumberVector.end(),std::ostream_iterator<CArea::TCRCWithNumberVector>(ostr," "));
; 299  : */
; 300  : 
; 301  : 	return Py_BuildValue("ii", dwGraphicThingInstanceNum, dwCRCNum);

  00019	ff 75 fc	 push	 DWORD PTR _dwCRCNum$[ebp]
  0001c	ff 75 f8	 push	 DWORD PTR _dwGraphicThingInstanceNum$[ebp]
  0001f	68 00 00 00 00	 push	 OFFSET ??_C@_02PDIHAGKM@ii@
  00024	ff 15 00 00 00
	00		 call	 DWORD PTR __imp__Py_BuildValue
  0002a	83 c4 0c	 add	 esp, 12			; 0000000cH

; 302  : }

  0002d	8b e5		 mov	 esp, ebp
  0002f	5d		 pop	 ebp
  00030	c3		 ret	 0
?backgroundGetRenderedGTINum@@YAPAU_object@@PAU1@0@Z ENDP ; backgroundGetRenderedGTINum
_TEXT	ENDS
; Function compile flags: /Ogtp
; File D:\Metin2 Server Files\mainline\SRC_2014\Metin2Client\UserInterface\PythonBackgroundModule.cpp
; File C:\Program Files (x86)\Microsoft Visual Studio\2019\Community\VC\Tools\MSVC\14.28.29333\include\vector
; File D:\Metin2 Server Files\mainline\SRC_2014\Metin2Client\UserInterface\PythonBackgroundModule.cpp
; File C:\Program Files (x86)\Microsoft Visual Studio\2019\Community\VC\Tools\MSVC\14.28.29333\include\vector
; File D:\Metin2 Server Files\mainline\SRC_2014\Metin2Client\UserInterface\PythonBackgroundModule.cpp
; File C:\Program Files (x86)\Microsoft Visual Studio\2019\Community\VC\Tools\MSVC\14.28.29333\include\vector
; File D:\Metin2 Server Files\mainline\SRC_2014\Metin2Client\UserInterface\PythonBackgroundModule.cpp
; File C:\Program Files (x86)\Microsoft Visual Studio\2019\Community\VC\Tools\MSVC\14.28.29333\include\vector
; File D:\Metin2 Server Files\mainline\SRC_2014\Metin2Client\UserInterface\PythonBackgroundModule.cpp
;	COMDAT ?backgroundGetRenderedSplatNum@@YAPAU_object@@PAU1@0@Z
_TEXT	SEGMENT
_iPatch$ = -276						; size = 4
_iSplat$ = -272						; size = 4
_fSplatRatio$ = -268					; size = 4
_szOutput$ = -264					; size = 260
__$ArrayPad$ = -4					; size = 4
_poSelf$ = 8						; size = 4
_poArgs$ = 12						; size = 4
?backgroundGetRenderedSplatNum@@YAPAU_object@@PAU1@0@Z PROC ; backgroundGetRenderedSplatNum, COMDAT

; 270  : {

  00000	55		 push	 ebp
  00001	8b ec		 mov	 ebp, esp
  00003	81 ec 14 01 00
	00		 sub	 esp, 276		; 00000114H
  00009	a1 00 00 00 00	 mov	 eax, DWORD PTR ___security_cookie
  0000e	33 c5		 xor	 eax, ebp
  00010	89 45 fc	 mov	 DWORD PTR __$ArrayPad$[ebp], eax

; 271  : 	int iPatch;
; 272  : 	int iSplat;
; 273  : 	float fSplatRatio;
; 274  : 
; 275  : 	std::vector<int> & aTextureNumVector = CPythonBackground::Instance().GetRenderedSplatNum(&iPatch, &iSplat, &fSplatRatio);

  00013	8b 0d 00 00 00
	00		 mov	 ecx, DWORD PTR ?ms_singleton@?$CSingleton@VCPythonBackground@@@@0PAVCPythonBackground@@A ; CSingleton<CPythonBackground>::ms_singleton
  00019	8d 85 f4 fe ff
	ff		 lea	 eax, DWORD PTR _fSplatRatio$[ebp]
  0001f	53		 push	 ebx
  00020	56		 push	 esi
  00021	57		 push	 edi
  00022	50		 push	 eax
  00023	8d 85 f0 fe ff
	ff		 lea	 eax, DWORD PTR _iSplat$[ebp]
  00029	50		 push	 eax
  0002a	8d 85 ec fe ff
	ff		 lea	 eax, DWORD PTR _iPatch$[ebp]
  00030	50		 push	 eax
  00031	e8 00 00 00 00	 call	 ?GetRenderedSplatNum@CMapManager@@QAEAAV?$vector@HV?$allocator@H@std@@@std@@PAH0PAM@Z ; CMapManager::GetRenderedSplatNum

; 277  : 	char szOutput[MAX_PATH] = "";

  00036	68 04 01 00 00	 push	 260			; 00000104H
  0003b	8b d8		 mov	 ebx, eax
  0003d	8d 85 f8 fe ff
	ff		 lea	 eax, DWORD PTR _szOutput$[ebp]
  00043	6a 00		 push	 0
  00045	50		 push	 eax
  00046	e8 00 00 00 00	 call	 _memset
; File C:\Program Files (x86)\Microsoft Visual Studio\2019\Community\VC\Tools\MSVC\14.28.29333\include\vector

; 42   :     _Vector_const_iterator(_Tptr _Parg, const _Container_base* _Pvector) noexcept : _Ptr(_Parg) {

  0004b	8b 33		 mov	 esi, DWORD PTR [ebx]
; File D:\Metin2 Server Files\mainline\SRC_2014\Metin2Client\UserInterface\PythonBackgroundModule.cpp

; 277  : 	char szOutput[MAX_PATH] = "";

  0004d	83 c4 0c	 add	 esp, 12			; 0000000cH

; 278  : 	int iOutput = 0;

  00050	33 ff		 xor	 edi, edi
; File C:\Program Files (x86)\Microsoft Visual Studio\2019\Community\VC\Tools\MSVC\14.28.29333\include\vector

; 42   :     _Vector_const_iterator(_Tptr _Parg, const _Container_base* _Pvector) noexcept : _Ptr(_Parg) {

  00052	3b 73 04	 cmp	 esi, DWORD PTR [ebx+4]
; File D:\Metin2 Server Files\mainline\SRC_2014\Metin2Client\UserInterface\PythonBackgroundModule.cpp

; 279  : 	for( std::vector<int>::iterator it = aTextureNumVector.begin(); it != aTextureNumVector.end(); it++ ) {

  00055	74 2a		 je	 SHORT $LN3@background
$LL15@background:

; 280  : 		iOutput += snprintf(szOutput + iOutput, sizeof(szOutput) - iOutput, "%d ", *it);

  00057	ff 36		 push	 DWORD PTR [esi]
  00059	b8 04 01 00 00	 mov	 eax, 260		; 00000104H
  0005e	2b c7		 sub	 eax, edi
  00060	68 00 00 00 00	 push	 OFFSET ??_C@_03JDANDILB@?$CFd?5@
  00065	50		 push	 eax
  00066	8d 85 f8 fe ff
	ff		 lea	 eax, DWORD PTR _szOutput$[ebp]
  0006c	03 c7		 add	 eax, edi
  0006e	50		 push	 eax
  0006f	e8 00 00 00 00	 call	 __snprintf
; File C:\Program Files (x86)\Microsoft Visual Studio\2019\Community\VC\Tools\MSVC\14.28.29333\include\vector

; 75   :         ++_Ptr;

  00074	83 c6 04	 add	 esi, 4
; File D:\Metin2 Server Files\mainline\SRC_2014\Metin2Client\UserInterface\PythonBackgroundModule.cpp

; 280  : 		iOutput += snprintf(szOutput + iOutput, sizeof(szOutput) - iOutput, "%d ", *it);

  00077	83 c4 10	 add	 esp, 16			; 00000010H
  0007a	03 f8		 add	 edi, eax
; File C:\Program Files (x86)\Microsoft Visual Studio\2019\Community\VC\Tools\MSVC\14.28.29333\include\vector

; 149  :         return _Ptr == _Right._Ptr;

  0007c	3b 73 04	 cmp	 esi, DWORD PTR [ebx+4]
; File D:\Metin2 Server Files\mainline\SRC_2014\Metin2Client\UserInterface\PythonBackgroundModule.cpp

; 279  : 	for( std::vector<int>::iterator it = aTextureNumVector.begin(); it != aTextureNumVector.end(); it++ ) {

  0007f	75 d6		 jne	 SHORT $LL15@background
$LN3@background:
  00081	f3 0f 10 85 f4
	fe ff ff	 movss	 xmm0, DWORD PTR _fSplatRatio$[ebp]

; 281  : 	}
; 282  : 	//std::copy(aTextureNumVector.begin(),aTextureNumVector.end(),std::ostream_iterator<int>(ostr," "));
; 283  : 
; 284  : 	return Py_BuildValue("iifs", iPatch, iSplat, fSplatRatio, szOutput);

  00089	8d 85 f8 fe ff
	ff		 lea	 eax, DWORD PTR _szOutput$[ebp]
  0008f	50		 push	 eax
  00090	0f 5a c0	 cvtps2pd xmm0, xmm0
  00093	83 ec 08	 sub	 esp, 8
  00096	f2 0f 11 04 24	 movsd	 QWORD PTR [esp], xmm0
  0009b	ff b5 f0 fe ff
	ff		 push	 DWORD PTR _iSplat$[ebp]
  000a1	ff b5 ec fe ff
	ff		 push	 DWORD PTR _iPatch$[ebp]
  000a7	68 00 00 00 00	 push	 OFFSET ??_C@_04KDJJDIPA@iifs@
  000ac	ff 15 00 00 00
	00		 call	 DWORD PTR __imp__Py_BuildValue

; 285  : }

  000b2	8b 4d fc	 mov	 ecx, DWORD PTR __$ArrayPad$[ebp]
  000b5	83 c4 18	 add	 esp, 24			; 00000018H
  000b8	33 cd		 xor	 ecx, ebp
  000ba	5f		 pop	 edi
  000bb	5e		 pop	 esi
  000bc	5b		 pop	 ebx
  000bd	e8 00 00 00 00	 call	 @__security_check_cookie@4
  000c2	8b e5		 mov	 esp, ebp
  000c4	5d		 pop	 ebp
  000c5	c3		 ret	 0
?backgroundGetRenderedSplatNum@@YAPAU_object@@PAU1@0@Z ENDP ; backgroundGetRenderedSplatNum
_TEXT	ENDS
; Function compile flags: /Ogtp
; File D:\Metin2 Server Files\mainline\SRC_2014\Metin2Client\UserInterface\PythonBackgroundModule.cpp
;	COMDAT ?backgroundGetHeight@@YAPAU_object@@PAU1@0@Z
_TEXT	SEGMENT
_fz$ = -12						; size = 4
_fx$ = -8						; size = 4
_fy$ = -4						; size = 4
_poSelf$ = 8						; size = 4
_poArgs$ = 12						; size = 4
?backgroundGetHeight@@YAPAU_object@@PAU1@0@Z PROC	; backgroundGetHeight, COMDAT

; 256  : {

  00000	55		 push	 ebp
  00001	8b ec		 mov	 ebp, esp
  00003	83 ec 0c	 sub	 esp, 12			; 0000000cH

; 257  : 	float fx;
; 258  : 	if (!PyTuple_GetFloat(poArgs, 0, &fx))

  00006	8d 45 f8	 lea	 eax, DWORD PTR _fx$[ebp]
  00009	50		 push	 eax
  0000a	6a 00		 push	 0
  0000c	ff 75 0c	 push	 DWORD PTR _poArgs$[ebp]
  0000f	e8 00 00 00 00	 call	 ?PyTuple_GetFloat@@YA_NPAU_object@@HPAM@Z ; PyTuple_GetFloat
  00014	83 c4 0c	 add	 esp, 12			; 0000000cH
  00017	84 c0		 test	 al, al
  00019	75 09		 jne	 SHORT $LN2@background
$LN5@background:

; 267  : }

  0001b	e8 00 00 00 00	 call	 ?Py_BadArgument@@YAPAU_object@@XZ ; Py_BadArgument
  00020	8b e5		 mov	 esp, ebp
  00022	5d		 pop	 ebp
  00023	c3		 ret	 0
$LN2@background:

; 259  : 		return Py_BadArgument();
; 260  : 
; 261  : 	float fy;
; 262  : 	if (!PyTuple_GetFloat(poArgs, 1, &fy))

  00024	8d 45 fc	 lea	 eax, DWORD PTR _fy$[ebp]
  00027	50		 push	 eax
  00028	6a 01		 push	 1
  0002a	ff 75 0c	 push	 DWORD PTR _poArgs$[ebp]
  0002d	e8 00 00 00 00	 call	 ?PyTuple_GetFloat@@YA_NPAU_object@@HPAM@Z ; PyTuple_GetFloat
  00032	83 c4 0c	 add	 esp, 12			; 0000000cH
  00035	84 c0		 test	 al, al
  00037	74 e2		 je	 SHORT $LN5@background

; 263  : 		return Py_BadArgument();
; 264  : 
; 265  : 	float fz = CPythonBackground::Instance().GetHeight(fx, fy);

  00039	f3 0f 10 45 fc	 movss	 xmm0, DWORD PTR _fy$[ebp]
  0003e	83 ec 08	 sub	 esp, 8
  00041	8b 0d 00 00 00
	00		 mov	 ecx, DWORD PTR ?ms_singleton@?$CSingleton@VCPythonBackground@@@@0PAVCPythonBackground@@A ; CSingleton<CPythonBackground>::ms_singleton
  00047	f3 0f 11 44 24
	04		 movss	 DWORD PTR [esp+4], xmm0
  0004d	f3 0f 10 45 f8	 movss	 xmm0, DWORD PTR _fx$[ebp]
  00052	f3 0f 11 04 24	 movss	 DWORD PTR [esp], xmm0
  00057	e8 00 00 00 00	 call	 ?GetHeight@CMapManager@@QAEMMM@Z ; CMapManager::GetHeight
  0005c	d9 5d f4	 fstp	 DWORD PTR _fz$[ebp]
  0005f	f3 0f 10 45 f4	 movss	 xmm0, DWORD PTR _fz$[ebp]

; 266  : 	return Py_BuildValue("f", fz);

  00064	83 ec 08	 sub	 esp, 8
  00067	0f 5a c0	 cvtps2pd xmm0, xmm0
  0006a	f2 0f 11 04 24	 movsd	 QWORD PTR [esp], xmm0
  0006f	68 00 00 00 00	 push	 OFFSET ??_C@_01INIBCBCB@f@
  00074	ff 15 00 00 00
	00		 call	 DWORD PTR __imp__Py_BuildValue
  0007a	83 c4 0c	 add	 esp, 12			; 0000000cH

; 267  : }

  0007d	8b e5		 mov	 esp, ebp
  0007f	5d		 pop	 ebp
  00080	c3		 ret	 0
?backgroundGetHeight@@YAPAU_object@@PAU1@0@Z ENDP	; backgroundGetHeight
_TEXT	ENDS
; Function compile flags: /Ogtp
; File D:\Metin2 Server Files\mainline\SRC_2014\Metin2Client\UserInterface\PythonBackgroundModule.cpp
;	COMDAT ?backgroundRenderDungeon@@YAPAU_object@@PAU1@0@Z
_TEXT	SEGMENT
_poSelf$ = 8						; size = 4
_poArgs$ = 12						; size = 4
?backgroundRenderDungeon@@YAPAU_object@@PAU1@0@Z PROC	; backgroundRenderDungeon, COMDAT

; 251  : 	assert(!"background.RenderDungeon() -    - [levites]");
; 252  : 	return Py_BuildNone();

  00000	e9 00 00 00 00	 jmp	 ?Py_BuildNone@@YAPAU_object@@XZ ; Py_BuildNone
?backgroundRenderDungeon@@YAPAU_object@@PAU1@0@Z ENDP	; backgroundRenderDungeon
_TEXT	ENDS
; Function compile flags: /Ogtp
; File D:\Metin2 Server Files\mainline\SRC_2014\Metin2Client\UserInterface\PythonBackgroundModule.cpp
;	COMDAT ?backgroundRenderCharacterShadowToTexture@@YAPAU_object@@PAU1@0@Z
_TEXT	SEGMENT
_poSelf$ = 8						; size = 4
_poArgs$ = 12						; size = 4
?backgroundRenderCharacterShadowToTexture@@YAPAU_object@@PAU1@0@Z PROC ; backgroundRenderCharacterShadowToTexture, COMDAT

; 245  : 	CPythonBackground::Instance().RenderCharacterShadowToTexture();

  00000	8b 0d 00 00 00
	00		 mov	 ecx, DWORD PTR ?ms_singleton@?$CSingleton@VCPythonBackground@@@@0PAVCPythonBackground@@A ; CSingleton<CPythonBackground>::ms_singleton
  00006	e8 00 00 00 00	 call	 ?RenderCharacterShadowToTexture@CPythonBackground@@QAEXXZ ; CPythonBackground::RenderCharacterShadowToTexture

; 246  : 	return Py_BuildNone();

  0000b	e9 00 00 00 00	 jmp	 ?Py_BuildNone@@YAPAU_object@@XZ ; Py_BuildNone
?backgroundRenderCharacterShadowToTexture@@YAPAU_object@@PAU1@0@Z ENDP ; backgroundRenderCharacterShadowToTexture
_TEXT	ENDS
; Function compile flags: /Ogtp
; File D:\Metin2 Server Files\mainline\SRC_2014\Metin2Client\UserInterface\PythonBackgroundModule.cpp
;	COMDAT ?backgroundRenderAfterLensFlare@@YAPAU_object@@PAU1@0@Z
_TEXT	SEGMENT
_poSelf$ = 8						; size = 4
_poArgs$ = 12						; size = 4
?backgroundRenderAfterLensFlare@@YAPAU_object@@PAU1@0@Z PROC ; backgroundRenderAfterLensFlare, COMDAT

; 239  : 	CPythonBackground::Instance().RenderAfterLensFlare();

  00000	8b 0d 00 00 00
	00		 mov	 ecx, DWORD PTR ?ms_singleton@?$CSingleton@VCPythonBackground@@@@0PAVCPythonBackground@@A ; CSingleton<CPythonBackground>::ms_singleton
  00006	e8 00 00 00 00	 call	 ?RenderAfterLensFlare@CPythonBackground@@QAEXXZ ; CPythonBackground::RenderAfterLensFlare

; 240  : 	return Py_BuildNone();

  0000b	e9 00 00 00 00	 jmp	 ?Py_BuildNone@@YAPAU_object@@XZ ; Py_BuildNone
?backgroundRenderAfterLensFlare@@YAPAU_object@@PAU1@0@Z ENDP ; backgroundRenderAfterLensFlare
_TEXT	ENDS
; Function compile flags: /Ogtp
; File D:\Metin2 Server Files\mainline\SRC_2014\Metin2Client\UserInterface\PythonBackgroundModule.cpp
;	COMDAT ?backgroundRenderBeforeLensFlare@@YAPAU_object@@PAU1@0@Z
_TEXT	SEGMENT
_poSelf$ = 8						; size = 4
_poArgs$ = 12						; size = 4
?backgroundRenderBeforeLensFlare@@YAPAU_object@@PAU1@0@Z PROC ; backgroundRenderBeforeLensFlare, COMDAT

; 233  : 	CPythonBackground::Instance().RenderBeforeLensFlare();

  00000	8b 0d 00 00 00
	00		 mov	 ecx, DWORD PTR ?ms_singleton@?$CSingleton@VCPythonBackground@@@@0PAVCPythonBackground@@A ; CSingleton<CPythonBackground>::ms_singleton
  00006	e8 00 00 00 00	 call	 ?RenderBeforeLensFlare@CPythonBackground@@QAEXXZ ; CPythonBackground::RenderBeforeLensFlare

; 234  : 	return Py_BuildNone();

  0000b	e9 00 00 00 00	 jmp	 ?Py_BuildNone@@YAPAU_object@@XZ ; Py_BuildNone
?backgroundRenderBeforeLensFlare@@YAPAU_object@@PAU1@0@Z ENDP ; backgroundRenderBeforeLensFlare
_TEXT	ENDS
; Function compile flags: /Ogtp
; File D:\Metin2 Server Files\mainline\SRC_2014\Metin2Client\UserInterface\PythonBackgroundModule.cpp
;	COMDAT ?backgroundRenderEffect@@YAPAU_object@@PAU1@0@Z
_TEXT	SEGMENT
_poSelf$ = 8						; size = 4
_poArgs$ = 12						; size = 4
?backgroundRenderEffect@@YAPAU_object@@PAU1@0@Z PROC	; backgroundRenderEffect, COMDAT

; 227  : 	CPythonBackground::Instance().RenderEffect();

  00000	8b 0d 00 00 00
	00		 mov	 ecx, DWORD PTR ?ms_singleton@?$CSingleton@VCPythonBackground@@@@0PAVCPythonBackground@@A ; CSingleton<CPythonBackground>::ms_singleton
  00006	e8 00 00 00 00	 call	 ?RenderEffect@CPythonBackground@@QAEXXZ ; CPythonBackground::RenderEffect

; 228  : 	return Py_BuildNone();

  0000b	e9 00 00 00 00	 jmp	 ?Py_BuildNone@@YAPAU_object@@XZ ; Py_BuildNone
?backgroundRenderEffect@@YAPAU_object@@PAU1@0@Z ENDP	; backgroundRenderEffect
_TEXT	ENDS
; Function compile flags: /Ogtp
; File D:\Metin2 Server Files\mainline\SRC_2014\Metin2Client\UserInterface\PythonBackgroundModule.cpp
;	COMDAT ?backgroundRenderWater@@YAPAU_object@@PAU1@0@Z
_TEXT	SEGMENT
_poSelf$ = 8						; size = 4
_poArgs$ = 12						; size = 4
?backgroundRenderWater@@YAPAU_object@@PAU1@0@Z PROC	; backgroundRenderWater, COMDAT

; 221  : 	CPythonBackground::Instance().RenderWater();

  00000	8b 0d 00 00 00
	00		 mov	 ecx, DWORD PTR ?ms_singleton@?$CSingleton@VCPythonBackground@@@@0PAVCPythonBackground@@A ; CSingleton<CPythonBackground>::ms_singleton
  00006	e8 00 00 00 00	 call	 ?RenderWater@CPythonBackground@@QAEXXZ ; CPythonBackground::RenderWater

; 222  : 	return Py_BuildNone();

  0000b	e9 00 00 00 00	 jmp	 ?Py_BuildNone@@YAPAU_object@@XZ ; Py_BuildNone
?backgroundRenderWater@@YAPAU_object@@PAU1@0@Z ENDP	; backgroundRenderWater
_TEXT	ENDS
; Function compile flags: /Ogtp
; File D:\Metin2 Server Files\mainline\SRC_2014\Metin2Client\UserInterface\PythonBackgroundModule.cpp
;	COMDAT ?backgroundRenderCloud@@YAPAU_object@@PAU1@0@Z
_TEXT	SEGMENT
_poSelf$ = 8						; size = 4
_poArgs$ = 12						; size = 4
?backgroundRenderCloud@@YAPAU_object@@PAU1@0@Z PROC	; backgroundRenderCloud, COMDAT

; 215  : 	CPythonBackground::Instance().RenderCloud();

  00000	8b 0d 00 00 00
	00		 mov	 ecx, DWORD PTR ?ms_singleton@?$CSingleton@VCPythonBackground@@@@0PAVCPythonBackground@@A ; CSingleton<CPythonBackground>::ms_singleton
  00006	e8 00 00 00 00	 call	 ?RenderCloud@CPythonBackground@@QAEXXZ ; CPythonBackground::RenderCloud

; 216  : 	return Py_BuildNone();

  0000b	e9 00 00 00 00	 jmp	 ?Py_BuildNone@@YAPAU_object@@XZ ; Py_BuildNone
?backgroundRenderCloud@@YAPAU_object@@PAU1@0@Z ENDP	; backgroundRenderCloud
_TEXT	ENDS
; Function compile flags: /Ogtp
; File D:\Metin2 Server Files\mainline\SRC_2014\Metin2Client\UserInterface\PythonBackgroundModule.cpp
;	COMDAT ?backgroundRenderSky@@YAPAU_object@@PAU1@0@Z
_TEXT	SEGMENT
_poSelf$ = 8						; size = 4
_poArgs$ = 12						; size = 4
?backgroundRenderSky@@YAPAU_object@@PAU1@0@Z PROC	; backgroundRenderSky, COMDAT

; 209  : 	CPythonBackground::Instance().RenderSky();

  00000	8b 0d 00 00 00
	00		 mov	 ecx, DWORD PTR ?ms_singleton@?$CSingleton@VCPythonBackground@@@@0PAVCPythonBackground@@A ; CSingleton<CPythonBackground>::ms_singleton
  00006	e8 00 00 00 00	 call	 ?RenderSky@CPythonBackground@@QAEXXZ ; CPythonBackground::RenderSky

; 210  : 	return Py_BuildNone();

  0000b	e9 00 00 00 00	 jmp	 ?Py_BuildNone@@YAPAU_object@@XZ ; Py_BuildNone
?backgroundRenderSky@@YAPAU_object@@PAU1@0@Z ENDP	; backgroundRenderSky
_TEXT	ENDS
; Function compile flags: /Ogtp
; File D:\Metin2 Server Files\mainline\SRC_2014\Metin2Client\UserInterface\PythonBackgroundModule.cpp
;	COMDAT ?backgroundRenderCollision@@YAPAU_object@@PAU1@0@Z
_TEXT	SEGMENT
_poSelf$ = 8						; size = 4
_poArgs$ = 12						; size = 4
?backgroundRenderCollision@@YAPAU_object@@PAU1@0@Z PROC	; backgroundRenderCollision, COMDAT

; 203  : 	CPythonBackground::Instance().RenderCollision();

  00000	8b 0d 00 00 00
	00		 mov	 ecx, DWORD PTR ?ms_singleton@?$CSingleton@VCPythonBackground@@@@0PAVCPythonBackground@@A ; CSingleton<CPythonBackground>::ms_singleton
  00006	e8 00 00 00 00	 call	 ?RenderCollision@CPythonBackground@@QAEXXZ ; CPythonBackground::RenderCollision

; 204  : 	return Py_BuildNone();

  0000b	e9 00 00 00 00	 jmp	 ?Py_BuildNone@@YAPAU_object@@XZ ; Py_BuildNone
?backgroundRenderCollision@@YAPAU_object@@PAU1@0@Z ENDP	; backgroundRenderCollision
_TEXT	ENDS
; Function compile flags: /Ogtp
; File D:\Metin2 Server Files\mainline\SRC_2014\Metin2Client\UserInterface\PythonBackgroundModule.cpp
;	COMDAT ?backgroundRenderPCBlocker@@YAPAU_object@@PAU1@0@Z
_TEXT	SEGMENT
_poSelf$ = 8						; size = 4
_poArgs$ = 12						; size = 4
?backgroundRenderPCBlocker@@YAPAU_object@@PAU1@0@Z PROC	; backgroundRenderPCBlocker, COMDAT

; 197  : 	CPythonBackground::Instance().RenderPCBlocker();

  00000	8b 0d 00 00 00
	00		 mov	 ecx, DWORD PTR ?ms_singleton@?$CSingleton@VCPythonBackground@@@@0PAVCPythonBackground@@A ; CSingleton<CPythonBackground>::ms_singleton
  00006	e8 00 00 00 00	 call	 ?RenderPCBlocker@CPythonBackground@@QAEXXZ ; CPythonBackground::RenderPCBlocker

; 198  : 	return Py_BuildNone();

  0000b	e9 00 00 00 00	 jmp	 ?Py_BuildNone@@YAPAU_object@@XZ ; Py_BuildNone
?backgroundRenderPCBlocker@@YAPAU_object@@PAU1@0@Z ENDP	; backgroundRenderPCBlocker
_TEXT	ENDS
; Function compile flags: /Ogtp
; File D:\Metin2 Server Files\mainline\SRC_2014\Metin2Client\UserInterface\PythonBackgroundModule.cpp
;	COMDAT ?backgroundRender@@YAPAU_object@@PAU1@0@Z
_TEXT	SEGMENT
_poSelf$ = 8						; size = 4
_poArgs$ = 12						; size = 4
?backgroundRender@@YAPAU_object@@PAU1@0@Z PROC		; backgroundRender, COMDAT

; 191  : 	CPythonBackground::Instance().Render();

  00000	8b 0d 00 00 00
	00		 mov	 ecx, DWORD PTR ?ms_singleton@?$CSingleton@VCPythonBackground@@@@0PAVCPythonBackground@@A ; CSingleton<CPythonBackground>::ms_singleton
  00006	e8 00 00 00 00	 call	 ?Render@CPythonBackground@@QAEXXZ ; CPythonBackground::Render

; 192  : 	return Py_BuildNone();

  0000b	e9 00 00 00 00	 jmp	 ?Py_BuildNone@@YAPAU_object@@XZ ; Py_BuildNone
?backgroundRender@@YAPAU_object@@PAU1@0@Z ENDP		; backgroundRender
_TEXT	ENDS
; Function compile flags: /Ogtp
; File D:\Metin2 Server Files\mainline\SRC_2014\Metin2Client\UserInterface\PythonBackgroundModule.cpp
;	COMDAT ?backgroundUpdate@@YAPAU_object@@PAU1@0@Z
_TEXT	SEGMENT
_fCameraX$ = -12					; size = 4
_fCameraY$ = -8						; size = 4
_fCameraZ$ = -4						; size = 4
_poSelf$ = 8						; size = 4
_poArgs$ = 12						; size = 4
?backgroundUpdate@@YAPAU_object@@PAU1@0@Z PROC		; backgroundUpdate, COMDAT

; 172  : {

  00000	55		 push	 ebp
  00001	8b ec		 mov	 ebp, esp
  00003	83 ec 0c	 sub	 esp, 12			; 0000000cH

; 173  : 	float fCameraX;
; 174  : 	if (!PyTuple_GetFloat(poArgs, 0, &fCameraX))

  00006	8d 45 f4	 lea	 eax, DWORD PTR _fCameraX$[ebp]
  00009	56		 push	 esi
  0000a	8b 75 0c	 mov	 esi, DWORD PTR _poArgs$[ebp]
  0000d	50		 push	 eax
  0000e	6a 00		 push	 0
  00010	56		 push	 esi
  00011	e8 00 00 00 00	 call	 ?PyTuple_GetFloat@@YA_NPAU_object@@HPAM@Z ; PyTuple_GetFloat
  00016	83 c4 0c	 add	 esp, 12			; 0000000cH
  00019	84 c0		 test	 al, al
  0001b	75 0a		 jne	 SHORT $LN2@background
$LN6@background:

; 187  : }

  0001d	e8 00 00 00 00	 call	 ?Py_BadArgument@@YAPAU_object@@XZ ; Py_BadArgument
  00022	5e		 pop	 esi
  00023	8b e5		 mov	 esp, ebp
  00025	5d		 pop	 ebp
  00026	c3		 ret	 0
$LN2@background:

; 175  : 		return Py_BadArgument();
; 176  : 
; 177  : 	float fCameraY;
; 178  : 	if (!PyTuple_GetFloat(poArgs, 1, &fCameraY))

  00027	8d 45 f8	 lea	 eax, DWORD PTR _fCameraY$[ebp]
  0002a	50		 push	 eax
  0002b	6a 01		 push	 1
  0002d	56		 push	 esi
  0002e	e8 00 00 00 00	 call	 ?PyTuple_GetFloat@@YA_NPAU_object@@HPAM@Z ; PyTuple_GetFloat
  00033	83 c4 0c	 add	 esp, 12			; 0000000cH
  00036	84 c0		 test	 al, al
  00038	74 e3		 je	 SHORT $LN6@background

; 179  : 		return Py_BadArgument();
; 180  : 
; 181  : 	float fCameraZ;
; 182  : 	if (!PyTuple_GetFloat(poArgs, 2, &fCameraZ))

  0003a	8d 45 fc	 lea	 eax, DWORD PTR _fCameraZ$[ebp]
  0003d	50		 push	 eax
  0003e	6a 02		 push	 2
  00040	56		 push	 esi
  00041	e8 00 00 00 00	 call	 ?PyTuple_GetFloat@@YA_NPAU_object@@HPAM@Z ; PyTuple_GetFloat
  00046	83 c4 0c	 add	 esp, 12			; 0000000cH
  00049	84 c0		 test	 al, al
  0004b	74 d0		 je	 SHORT $LN6@background

; 183  : 		return Py_BadArgument();
; 184  : 
; 185  : 	CPythonBackground::Instance().Update(fCameraX, fCameraY, fCameraZ);

  0004d	f3 0f 10 45 fc	 movss	 xmm0, DWORD PTR _fCameraZ$[ebp]
  00052	83 ec 0c	 sub	 esp, 12			; 0000000cH
  00055	8b 0d 00 00 00
	00		 mov	 ecx, DWORD PTR ?ms_singleton@?$CSingleton@VCPythonBackground@@@@0PAVCPythonBackground@@A ; CSingleton<CPythonBackground>::ms_singleton
  0005b	f3 0f 11 44 24
	08		 movss	 DWORD PTR [esp+8], xmm0
  00061	f3 0f 10 45 f8	 movss	 xmm0, DWORD PTR _fCameraY$[ebp]
  00066	f3 0f 11 44 24
	04		 movss	 DWORD PTR [esp+4], xmm0
  0006c	f3 0f 10 45 f4	 movss	 xmm0, DWORD PTR _fCameraX$[ebp]
  00071	f3 0f 11 04 24	 movss	 DWORD PTR [esp], xmm0
  00076	e8 00 00 00 00	 call	 ?Update@CPythonBackground@@QAEXMMM@Z ; CPythonBackground::Update

; 186  : 	return Py_BuildNone();

  0007b	e8 00 00 00 00	 call	 ?Py_BuildNone@@YAPAU_object@@XZ ; Py_BuildNone
  00080	5e		 pop	 esi

; 187  : }

  00081	8b e5		 mov	 esp, ebp
  00083	5d		 pop	 ebp
  00084	c3		 ret	 0
?backgroundUpdate@@YAPAU_object@@PAU1@0@Z ENDP		; backgroundUpdate
_TEXT	ENDS
; Function compile flags: /Ogtp
; File D:\Metin2 Server Files\mainline\SRC_2014\Metin2Client\UserInterface\PythonBackgroundModule.cpp
;	COMDAT ?backgroundInitialize@@YAPAU_object@@PAU1@0@Z
_TEXT	SEGMENT
_poSelf$ = 8						; size = 4
_poArgs$ = 12						; size = 4
?backgroundInitialize@@YAPAU_object@@PAU1@0@Z PROC	; backgroundInitialize, COMDAT

; 166  : 	CPythonBackground& rkBG=CPythonBackground::Instance();
; 167  : 	rkBG.Create();

  00000	8b 0d 00 00 00
	00		 mov	 ecx, DWORD PTR ?ms_singleton@?$CSingleton@VCPythonBackground@@@@0PAVCPythonBackground@@A ; CSingleton<CPythonBackground>::ms_singleton
  00006	e8 00 00 00 00	 call	 ?Create@CPythonBackground@@QAEXXZ ; CPythonBackground::Create

; 168  : 	return Py_BuildNone();

  0000b	e9 00 00 00 00	 jmp	 ?Py_BuildNone@@YAPAU_object@@XZ ; Py_BuildNone
?backgroundInitialize@@YAPAU_object@@PAU1@0@Z ENDP	; backgroundInitialize
_TEXT	ENDS
; Function compile flags: /Ogtp
; File D:\Metin2 Server Files\mainline\SRC_2014\Metin2Client\UserInterface\PythonBackgroundModule.cpp
;	COMDAT ?backgroundSetBackgroundDirLight@@YAPAU_object@@PAU1@0@Z
_TEXT	SEGMENT
_poSelf$ = 8						; size = 4
_poArgs$ = 12						; size = 4
?backgroundSetBackgroundDirLight@@YAPAU_object@@PAU1@0@Z PROC ; backgroundSetBackgroundDirLight, COMDAT

; 159  : 	CPythonBackground& rkBG = CPythonBackground::Instance();
; 160  : 	rkBG.SetBackgroundDirLight();

  00000	8b 0d 00 00 00
	00		 mov	 ecx, DWORD PTR ?ms_singleton@?$CSingleton@VCPythonBackground@@@@0PAVCPythonBackground@@A ; CSingleton<CPythonBackground>::ms_singleton
  00006	e8 00 00 00 00	 call	 ?SetBackgroundDirLight@CPythonBackground@@QAEXXZ ; CPythonBackground::SetBackgroundDirLight

; 161  : 	return Py_BuildNone();

  0000b	e9 00 00 00 00	 jmp	 ?Py_BuildNone@@YAPAU_object@@XZ ; Py_BuildNone
?backgroundSetBackgroundDirLight@@YAPAU_object@@PAU1@0@Z ENDP ; backgroundSetBackgroundDirLight
_TEXT	ENDS
; Function compile flags: /Ogtp
; File D:\Metin2 Server Files\mainline\SRC_2014\Metin2Client\UserInterface\PythonBackgroundModule.cpp
;	COMDAT ?backgroundSetCharacterDirLight@@YAPAU_object@@PAU1@0@Z
_TEXT	SEGMENT
_poSelf$ = 8						; size = 4
_poArgs$ = 12						; size = 4
?backgroundSetCharacterDirLight@@YAPAU_object@@PAU1@0@Z PROC ; backgroundSetCharacterDirLight, COMDAT

; 152  : 	CPythonBackground& rkBG = CPythonBackground::Instance();
; 153  : 	rkBG.SetCharacterDirLight();

  00000	8b 0d 00 00 00
	00		 mov	 ecx, DWORD PTR ?ms_singleton@?$CSingleton@VCPythonBackground@@@@0PAVCPythonBackground@@A ; CSingleton<CPythonBackground>::ms_singleton
  00006	e8 00 00 00 00	 call	 ?SetCharacterDirLight@CPythonBackground@@QAEXXZ ; CPythonBackground::SetCharacterDirLight

; 154  : 	return Py_BuildNone();

  0000b	e9 00 00 00 00	 jmp	 ?Py_BuildNone@@YAPAU_object@@XZ ; Py_BuildNone
?backgroundSetCharacterDirLight@@YAPAU_object@@PAU1@0@Z ENDP ; backgroundSetCharacterDirLight
_TEXT	ENDS
; Function compile flags: /Ogtp
; File D:\Metin2 Server Files\mainline\SRC_2014\Metin2Client\UserInterface\PythonBackgroundModule.cpp
;	COMDAT ?backgroundEndEnvironemt@@YAPAU_object@@PAU1@0@Z
_TEXT	SEGMENT
_poSelf$ = 8						; size = 4
_poArgs$ = 12						; size = 4
?backgroundEndEnvironemt@@YAPAU_object@@PAU1@0@Z PROC	; backgroundEndEnvironemt, COMDAT

; 145  : 	CPythonBackground& rkBG=CPythonBackground::Instance();
; 146  : 	rkBG.EndEnvironment();

  00000	8b 0d 00 00 00
	00		 mov	 ecx, DWORD PTR ?ms_singleton@?$CSingleton@VCPythonBackground@@@@0PAVCPythonBackground@@A ; CSingleton<CPythonBackground>::ms_singleton
  00006	e8 00 00 00 00	 call	 ?EndEnvironment@CMapManager@@QAEXXZ ; CMapManager::EndEnvironment

; 147  : 	return Py_BuildNone();

  0000b	e9 00 00 00 00	 jmp	 ?Py_BuildNone@@YAPAU_object@@XZ ; Py_BuildNone
?backgroundEndEnvironemt@@YAPAU_object@@PAU1@0@Z ENDP	; backgroundEndEnvironemt
_TEXT	ENDS
; Function compile flags: /Ogtp
; File D:\Metin2 Server Files\mainline\SRC_2014\Metin2Client\UserInterface\PythonBackgroundModule.cpp
;	COMDAT ?backgroundBeginEnvironment@@YAPAU_object@@PAU1@0@Z
_TEXT	SEGMENT
_poSelf$ = 8						; size = 4
_poArgs$ = 12						; size = 4
?backgroundBeginEnvironment@@YAPAU_object@@PAU1@0@Z PROC ; backgroundBeginEnvironment, COMDAT

; 138  : 	CPythonBackground& rkBG=CPythonBackground::Instance();
; 139  : 	rkBG.BeginEnvironment();

  00000	8b 0d 00 00 00
	00		 mov	 ecx, DWORD PTR ?ms_singleton@?$CSingleton@VCPythonBackground@@@@0PAVCPythonBackground@@A ; CSingleton<CPythonBackground>::ms_singleton
  00006	e8 00 00 00 00	 call	 ?BeginEnvironment@CMapManager@@QAEXXZ ; CMapManager::BeginEnvironment

; 140  : 	return Py_BuildNone();

  0000b	e9 00 00 00 00	 jmp	 ?Py_BuildNone@@YAPAU_object@@XZ ; Py_BuildNone
?backgroundBeginEnvironment@@YAPAU_object@@PAU1@0@Z ENDP ; backgroundBeginEnvironment
_TEXT	ENDS
; Function compile flags: /Ogtp
; File D:\Metin2 Server Files\mainline\SRC_2014\Metin2Client\UserInterface\PythonBackgroundModule.cpp
; File D:\Metin2 Server Files\mainline\SRC_2014\M2Data\include\d3dx8math.inl
; File D:\Metin2 Server Files\mainline\SRC_2014\Metin2Client\UserInterface\PythonBackgroundModule.cpp
;	COMDAT ?backgroundGetPickingPoint@@YAPAU_object@@PAU1@0@Z
_TEXT	SEGMENT
_kPPosPicked$ = -16					; size = 12
__$ArrayPad$ = -4					; size = 4
_poSelf$ = 8						; size = 4
_poArgs$ = 12						; size = 4
?backgroundGetPickingPoint@@YAPAU_object@@PAU1@0@Z PROC	; backgroundGetPickingPoint, COMDAT

; 126  : {

  00000	55		 push	 ebp
  00001	8b ec		 mov	 ebp, esp
  00003	83 ec 10	 sub	 esp, 16			; 00000010H
  00006	a1 00 00 00 00	 mov	 eax, DWORD PTR ___security_cookie
  0000b	33 c5		 xor	 eax, ebp
  0000d	89 45 fc	 mov	 DWORD PTR __$ArrayPad$[ebp], eax

; 129  : 	if (rkBG.GetPickingPoint(&kPPosPicked))

  00010	8b 0d 00 00 00
	00		 mov	 ecx, DWORD PTR ?ms_singleton@?$CSingleton@VCPythonBackground@@@@0PAVCPythonBackground@@A ; CSingleton<CPythonBackground>::ms_singleton
  00016	8d 45 f0	 lea	 eax, DWORD PTR _kPPosPicked$[ebp]
  00019	50		 push	 eax
; File D:\Metin2 Server Files\mainline\SRC_2014\M2Data\include\d3dx8math.inl

; 180  :     x = fx;

  0001a	c7 45 f0 00 00
	00 00		 mov	 DWORD PTR _kPPosPicked$[ebp], 0

; 181  :     y = fy;

  00021	c7 45 f4 00 00
	00 00		 mov	 DWORD PTR _kPPosPicked$[ebp+4], 0

; 182  :     z = fz;

  00028	c7 45 f8 00 00
	00 00		 mov	 DWORD PTR _kPPosPicked$[ebp+8], 0
; File D:\Metin2 Server Files\mainline\SRC_2014\Metin2Client\UserInterface\PythonBackgroundModule.cpp

; 129  : 	if (rkBG.GetPickingPoint(&kPPosPicked))

  0002f	e8 00 00 00 00	 call	 ?GetPickingPoint@CPythonBackground@@QAE_NPAUD3DXVECTOR3@@@Z ; CPythonBackground::GetPickingPoint
  00034	f3 0f 10 4d f4	 movss	 xmm1, DWORD PTR _kPPosPicked$[ebp+4]
  00039	84 c0		 test	 al, al
  0003b	74 0c		 je	 SHORT $LN2@background

; 130  : 	{
; 131  : 		kPPosPicked.y=-kPPosPicked.y;

  0003d	0f 57 0d 00 00
	00 00		 xorps	 xmm1, DWORD PTR __xmm@80000000800000008000000080000000
  00044	f3 0f 11 4d f4	 movss	 DWORD PTR _kPPosPicked$[ebp+4], xmm1
$LN2@background:

; 132  : 	}
; 133  : 	return Py_BuildValue("fff", kPPosPicked.x, kPPosPicked.y, kPPosPicked.z);

  00049	f3 0f 10 45 f8	 movss	 xmm0, DWORD PTR _kPPosPicked$[ebp+8]
  0004e	83 ec 18	 sub	 esp, 24			; 00000018H
  00051	0f 5a c0	 cvtps2pd xmm0, xmm0
  00054	f2 0f 11 44 24
	10		 movsd	 QWORD PTR [esp+16], xmm0
  0005a	0f 57 c0	 xorps	 xmm0, xmm0
  0005d	f3 0f 5a c1	 cvtss2sd xmm0, xmm1
  00061	f2 0f 11 44 24
	08		 movsd	 QWORD PTR [esp+8], xmm0
  00067	f3 0f 10 45 f0	 movss	 xmm0, DWORD PTR _kPPosPicked$[ebp]
  0006c	0f 5a c0	 cvtps2pd xmm0, xmm0
  0006f	f2 0f 11 04 24	 movsd	 QWORD PTR [esp], xmm0
  00074	68 00 00 00 00	 push	 OFFSET ??_C@_03LPALPDIP@fff@
  00079	ff 15 00 00 00
	00		 call	 DWORD PTR __imp__Py_BuildValue

; 134  : }

  0007f	8b 4d fc	 mov	 ecx, DWORD PTR __$ArrayPad$[ebp]
  00082	83 c4 1c	 add	 esp, 28			; 0000001cH
  00085	33 cd		 xor	 ecx, ebp
  00087	e8 00 00 00 00	 call	 @__security_check_cookie@4
  0008c	8b e5		 mov	 esp, ebp
  0008e	5d		 pop	 ebp
  0008f	c3		 ret	 0
?backgroundGetPickingPoint@@YAPAU_object@@PAU1@0@Z ENDP	; backgroundGetPickingPoint
_TEXT	ENDS
; Function compile flags: /Ogtp
; File D:\Metin2 Server Files\mainline\SRC_2014\Metin2Client\UserInterface\PythonBackgroundModule.cpp
;	COMDAT ?backgroundGetCurrentMapName@@YAPAU_object@@PAU1@0@Z
_TEXT	SEGMENT
_poSelf$ = 8						; size = 4
_poArgs$ = 12						; size = 4
?backgroundGetCurrentMapName@@YAPAU_object@@PAU1@0@Z PROC ; backgroundGetCurrentMapName, COMDAT

; 121  : 	CPythonBackground& rkBG=CPythonBackground::Instance();
; 122  : 	return Py_BuildValue("s", rkBG.GetWarpMapName());

  00000	8b 0d 00 00 00
	00		 mov	 ecx, DWORD PTR ?ms_singleton@?$CSingleton@VCPythonBackground@@@@0PAVCPythonBackground@@A ; CSingleton<CPythonBackground>::ms_singleton
  00006	e8 00 00 00 00	 call	 ?GetWarpMapName@CPythonBackground@@QAEPBDXZ ; CPythonBackground::GetWarpMapName
  0000b	50		 push	 eax
  0000c	68 00 00 00 00	 push	 OFFSET ??_C@_01LKDEMHDF@s@
  00011	ff 15 00 00 00
	00		 call	 DWORD PTR __imp__Py_BuildValue
  00017	83 c4 08	 add	 esp, 8

; 123  : }

  0001a	c3		 ret	 0
?backgroundGetCurrentMapName@@YAPAU_object@@PAU1@0@Z ENDP ; backgroundGetCurrentMapName
_TEXT	ENDS
; Function compile flags: /Ogtp
; File D:\Metin2 Server Files\mainline\SRC_2014\Metin2Client\UserInterface\PythonBackgroundModule.cpp
;	COMDAT ?backgroundSetEnvironmentData@@YAPAU_object@@PAU1@0@Z
_TEXT	SEGMENT
_c_pEnvironmenData$ = -8				; size = 4
_iIndex$ = -4						; size = 4
_poSelf$ = 8						; size = 4
_poArgs$ = 12						; size = 4
?backgroundSetEnvironmentData@@YAPAU_object@@PAU1@0@Z PROC ; backgroundSetEnvironmentData, COMDAT

; 105  : {

  00000	55		 push	 ebp
  00001	8b ec		 mov	 ebp, esp
  00003	83 ec 08	 sub	 esp, 8

; 106  : 	int iIndex;
; 107  : 	if (!PyTuple_GetInteger(poArgs, 0, &iIndex))

  00006	8d 45 fc	 lea	 eax, DWORD PTR _iIndex$[ebp]
  00009	50		 push	 eax
  0000a	6a 00		 push	 0
  0000c	ff 75 0c	 push	 DWORD PTR _poArgs$[ebp]
  0000f	e8 00 00 00 00	 call	 ?PyTuple_GetInteger@@YA_NPAU_object@@HPAH@Z ; PyTuple_GetInteger
  00014	83 c4 0c	 add	 esp, 12			; 0000000cH
  00017	84 c0		 test	 al, al
  00019	75 09		 jne	 SHORT $LN2@background

; 108  : 		return Py_BadArgument();

  0001b	e8 00 00 00 00	 call	 ?Py_BadArgument@@YAPAU_object@@XZ ; Py_BadArgument

; 117  : }

  00020	8b e5		 mov	 esp, ebp
  00022	5d		 pop	 ebp
  00023	c3		 ret	 0
$LN2@background:
  00024	56		 push	 esi

; 109  : 
; 110  : 	const TEnvironmentData * c_pEnvironmenData;
; 111  : 
; 112  : 	CPythonBackground& rkBG=CPythonBackground::Instance();

  00025	8b 35 00 00 00
	00		 mov	 esi, DWORD PTR ?ms_singleton@?$CSingleton@VCPythonBackground@@@@0PAVCPythonBackground@@A ; CSingleton<CPythonBackground>::ms_singleton

; 113  : 	if (rkBG.GetEnvironmentData(iIndex, &c_pEnvironmenData))

  0002b	8d 45 f8	 lea	 eax, DWORD PTR _c_pEnvironmenData$[ebp]
  0002e	50		 push	 eax
  0002f	ff 75 fc	 push	 DWORD PTR _iIndex$[ebp]
  00032	8b ce		 mov	 ecx, esi
  00034	e8 00 00 00 00	 call	 ?GetEnvironmentData@CMapManager@@QAE_NKPAPBUSEnvironmentData@@@Z ; CMapManager::GetEnvironmentData
  00039	84 c0		 test	 al, al
  0003b	74 0a		 je	 SHORT $LN3@background

; 114  : 		rkBG.ResetEnvironmentDataPtr(c_pEnvironmenData);

  0003d	ff 75 f8	 push	 DWORD PTR _c_pEnvironmenData$[ebp]
  00040	8b ce		 mov	 ecx, esi
  00042	e8 00 00 00 00	 call	 ?ResetEnvironmentDataPtr@CMapManager@@QAEXPBUSEnvironmentData@@@Z ; CMapManager::ResetEnvironmentDataPtr
$LN3@background:

; 115  : 
; 116  : 	return Py_BuildNone();

  00047	e8 00 00 00 00	 call	 ?Py_BuildNone@@YAPAU_object@@XZ ; Py_BuildNone
  0004c	5e		 pop	 esi

; 117  : }

  0004d	8b e5		 mov	 esp, ebp
  0004f	5d		 pop	 ebp
  00050	c3		 ret	 0
?backgroundSetEnvironmentData@@YAPAU_object@@PAU1@0@Z ENDP ; backgroundSetEnvironmentData
_TEXT	ENDS
; Function compile flags: /Ogtp
; File D:\Metin2 Server Files\mainline\SRC_2014\Metin2Client\UserInterface\PythonBackgroundModule.cpp
;	COMDAT ?backgroundRegisterEnvironmentData@@YAPAU_object@@PAU1@0@Z
_TEXT	SEGMENT
_iIndex$ = -8						; size = 4
_pszEnvironmentFileName$ = -4				; size = 4
_poSelf$ = 8						; size = 4
_poArgs$ = 12						; size = 4
?backgroundRegisterEnvironmentData@@YAPAU_object@@PAU1@0@Z PROC ; backgroundRegisterEnvironmentData, COMDAT

; 83   : {

  00000	55		 push	 ebp
  00001	8b ec		 mov	 ebp, esp
  00003	83 ec 08	 sub	 esp, 8

; 84   : 	int iIndex;
; 85   : 	if (!PyTuple_GetInteger(poArgs, 0, &iIndex))

  00006	8d 45 f8	 lea	 eax, DWORD PTR _iIndex$[ebp]
  00009	50		 push	 eax
  0000a	6a 00		 push	 0
  0000c	ff 75 0c	 push	 DWORD PTR _poArgs$[ebp]
  0000f	e8 00 00 00 00	 call	 ?PyTuple_GetInteger@@YA_NPAU_object@@HPAH@Z ; PyTuple_GetInteger
  00014	83 c4 0c	 add	 esp, 12			; 0000000cH
  00017	84 c0		 test	 al, al
  00019	75 09		 jne	 SHORT $LN2@background
$LN6@background:

; 102  : }

  0001b	e8 00 00 00 00	 call	 ?Py_BadArgument@@YAPAU_object@@XZ ; Py_BadArgument
  00020	8b e5		 mov	 esp, ebp
  00022	5d		 pop	 ebp
  00023	c3		 ret	 0
$LN2@background:

; 86   : 		return Py_BadArgument();
; 87   : 
; 88   : 	char * pszEnvironmentFileName;
; 89   : 	if (!PyTuple_GetString(poArgs, 1, &pszEnvironmentFileName))

  00024	8d 45 fc	 lea	 eax, DWORD PTR _pszEnvironmentFileName$[ebp]
  00027	50		 push	 eax
  00028	6a 01		 push	 1
  0002a	ff 75 0c	 push	 DWORD PTR _poArgs$[ebp]
  0002d	e8 00 00 00 00	 call	 ?PyTuple_GetString@@YA_NPAU_object@@HPAPAD@Z ; PyTuple_GetString
  00032	83 c4 0c	 add	 esp, 12			; 0000000cH
  00035	84 c0		 test	 al, al
  00037	74 e2		 je	 SHORT $LN6@background

; 90   : 		return Py_BadArgument();
; 91   : 
; 92   : 	CPythonBackground& rkBG=CPythonBackground::Instance();
; 93   :  	if (!rkBG.RegisterEnvironmentData(iIndex, pszEnvironmentFileName))

  00039	ff 75 fc	 push	 DWORD PTR _pszEnvironmentFileName$[ebp]
  0003c	8b 0d 00 00 00
	00		 mov	 ecx, DWORD PTR ?ms_singleton@?$CSingleton@VCPythonBackground@@@@0PAVCPythonBackground@@A ; CSingleton<CPythonBackground>::ms_singleton
  00042	ff 75 f8	 push	 DWORD PTR _iIndex$[ebp]
  00045	e8 00 00 00 00	 call	 ?RegisterEnvironmentData@CMapManager@@QAE_NKPBD@Z ; CMapManager::RegisterEnvironmentData
  0004a	84 c0		 test	 al, al
  0004c	75 13		 jne	 SHORT $LN4@background

; 94   : 	{
; 95   : 		TraceError("background.RegisterEnvironmentData(iIndex=%d, szEnvironmentFileName=%s)", iIndex, pszEnvironmentFileName);

  0004e	ff 75 fc	 push	 DWORD PTR _pszEnvironmentFileName$[ebp]
  00051	ff 75 f8	 push	 DWORD PTR _iIndex$[ebp]
  00054	68 00 00 00 00	 push	 OFFSET ??_C@_0EI@HLELLDPI@background?4RegisterEnvironmentD@
  00059	e8 00 00 00 00	 call	 ?TraceError@@YAXPBDZZ	; TraceError
  0005e	83 c4 0c	 add	 esp, 12			; 0000000cH
$LN4@background:

; 96   : 
; 97   : 		// TODO:
; 98   : 		//     
; 99   : 	}
; 100  : 
; 101  : 	return Py_BuildNone();

  00061	e8 00 00 00 00	 call	 ?Py_BuildNone@@YAPAU_object@@XZ ; Py_BuildNone

; 102  : }

  00066	8b e5		 mov	 esp, ebp
  00068	5d		 pop	 ebp
  00069	c3		 ret	 0
?backgroundRegisterEnvironmentData@@YAPAU_object@@PAU1@0@Z ENDP ; backgroundRegisterEnvironmentData
_TEXT	ENDS
; Function compile flags: /Ogtp
; File D:\Metin2 Server Files\mainline\SRC_2014\Metin2Client\UserInterface\PythonBackgroundModule.cpp
;	COMDAT ?backgroundDestroy@@YAPAU_object@@PAU1@0@Z
_TEXT	SEGMENT
_poSelf$ = 8						; size = 4
_poArgs$ = 12						; size = 4
?backgroundDestroy@@YAPAU_object@@PAU1@0@Z PROC		; backgroundDestroy, COMDAT

; 75   : {

  00000	56		 push	 esi

; 76   : 	CPythonBackground& rkBG=CPythonBackground::Instance();

  00001	8b 35 00 00 00
	00		 mov	 esi, DWORD PTR ?ms_singleton@?$CSingleton@VCPythonBackground@@@@0PAVCPythonBackground@@A ; CSingleton<CPythonBackground>::ms_singleton

; 77   : 	rkBG.SetShadowLevel(CPythonBackground::SHADOW_NONE);

  00007	8b ce		 mov	 ecx, esi
  00009	6a 00		 push	 0
  0000b	e8 00 00 00 00	 call	 ?SetShadowLevel@CPythonBackground@@QAE_NH@Z ; CPythonBackground::SetShadowLevel

; 78   : 	rkBG.Destroy();

  00010	8b ce		 mov	 ecx, esi
  00012	e8 00 00 00 00	 call	 ?Destroy@CPythonBackground@@QAEXXZ ; CPythonBackground::Destroy

; 79   : 	return Py_BuildNone();

  00017	5e		 pop	 esi
  00018	e9 00 00 00 00	 jmp	 ?Py_BuildNone@@YAPAU_object@@XZ ; Py_BuildNone
?backgroundDestroy@@YAPAU_object@@PAU1@0@Z ENDP		; backgroundDestroy
_TEXT	ENDS
; Function compile flags: /Ogtp
; File D:\Metin2 Server Files\mainline\SRC_2014\Metin2Client\UserInterface\PythonBackgroundModule.cpp
; File C:\Program Files (x86)\Microsoft Visual Studio\2019\Community\VC\Tools\MSVC\14.28.29333\include\xstring
; File D:\Metin2 Server Files\mainline\SRC_2014\Metin2Client\UserInterface\PythonBackgroundModule.cpp
; File C:\Program Files (x86)\Microsoft Visual Studio\2019\Community\VC\Tools\MSVC\14.28.29333\include\xstring
; File D:\Metin2 Server Files\mainline\SRC_2014\Metin2Client\UserInterface\PythonBackgroundModule.cpp
; File C:\Program Files (x86)\Microsoft Visual Studio\2019\Community\VC\Tools\MSVC\14.28.29333\include\xstring
; File D:\Metin2 Server Files\mainline\SRC_2014\Metin2Client\UserInterface\PythonBackgroundModule.cpp
; File C:\Program Files (x86)\Microsoft Visual Studio\2019\Community\VC\Tools\MSVC\14.28.29333\include\xstring
; File C:\Program Files (x86)\Microsoft Visual Studio\2019\Community\VC\Tools\MSVC\14.28.29333\include\xmemory
; File C:\Program Files (x86)\Microsoft Visual Studio\2019\Community\VC\Tools\MSVC\14.28.29333\include\xstring
; File D:\Metin2 Server Files\mainline\SRC_2014\Metin2Client\UserInterface\PythonBackgroundModule.cpp
;	COMDAT ?backgroundLoadMap@@YAPAU_object@@PAU1@0@Z
_TEXT	SEGMENT
_x$ = -56						; size = 4
_y$ = -52						; size = 4
_z$ = -48						; size = 4
_pszMapPathName$ = -44					; size = 4
$T2 = -40						; size = 24
__$ArrayPad$ = -16					; size = 4
__$EHRec$ = -12						; size = 12
_poSelf$ = 8						; size = 4
_poArgs$ = 12						; size = 4
?backgroundLoadMap@@YAPAU_object@@PAU1@0@Z PROC		; backgroundLoadMap, COMDAT

; 45   : {

  00000	55		 push	 ebp
  00001	8b ec		 mov	 ebp, esp
  00003	6a ff		 push	 -1
  00005	68 00 00 00 00	 push	 __ehhandler$?backgroundLoadMap@@YAPAU_object@@PAU1@0@Z
  0000a	64 a1 00 00 00
	00		 mov	 eax, DWORD PTR fs:0
  00010	50		 push	 eax
  00011	83 ec 2c	 sub	 esp, 44			; 0000002cH
  00014	a1 00 00 00 00	 mov	 eax, DWORD PTR ___security_cookie
  00019	33 c5		 xor	 eax, ebp
  0001b	89 45 f0	 mov	 DWORD PTR __$ArrayPad$[ebp], eax
  0001e	56		 push	 esi
  0001f	57		 push	 edi
  00020	50		 push	 eax
  00021	8d 45 f4	 lea	 eax, DWORD PTR __$EHRec$[ebp]
  00024	64 a3 00 00 00
	00		 mov	 DWORD PTR fs:0, eax
  0002a	8b 75 0c	 mov	 esi, DWORD PTR _poArgs$[ebp]

; 46   : 	char * pszMapPathName;
; 47   : 
; 48   : 	if (!PyTuple_GetString(poArgs, 0, &pszMapPathName))

  0002d	8d 45 d4	 lea	 eax, DWORD PTR _pszMapPathName$[ebp]
  00030	50		 push	 eax
  00031	6a 00		 push	 0
  00033	56		 push	 esi
  00034	e8 00 00 00 00	 call	 ?PyTuple_GetString@@YA_NPAU_object@@HPAPAD@Z ; PyTuple_GetString
  00039	83 c4 0c	 add	 esp, 12			; 0000000cH
  0003c	84 c0		 test	 al, al
  0003e	75 0a		 jne	 SHORT $LN2@background
$LN34@background:

; 72   : }

  00040	e8 00 00 00 00	 call	 ?Py_BadArgument@@YAPAU_object@@XZ ; Py_BadArgument
  00045	e9 d4 00 00 00	 jmp	 $LN1@background
$LN2@background:

; 49   : 		return Py_BadArgument();
; 50   : 
; 51   : 	float x, y, z;
; 52   : 
; 53   : 	if (!PyTuple_GetFloat(poArgs, 1, &x))

  0004a	8d 45 c8	 lea	 eax, DWORD PTR _x$[ebp]
  0004d	50		 push	 eax
  0004e	6a 01		 push	 1
  00050	56		 push	 esi
  00051	e8 00 00 00 00	 call	 ?PyTuple_GetFloat@@YA_NPAU_object@@HPAM@Z ; PyTuple_GetFloat
  00056	83 c4 0c	 add	 esp, 12			; 0000000cH
  00059	84 c0		 test	 al, al
  0005b	74 e3		 je	 SHORT $LN34@background

; 54   : 		return Py_BadArgument();
; 55   : 
; 56   : 	if (!PyTuple_GetFloat(poArgs, 2, &y))

  0005d	8d 45 cc	 lea	 eax, DWORD PTR _y$[ebp]
  00060	50		 push	 eax
  00061	6a 02		 push	 2
  00063	56		 push	 esi
  00064	e8 00 00 00 00	 call	 ?PyTuple_GetFloat@@YA_NPAU_object@@HPAM@Z ; PyTuple_GetFloat
  00069	83 c4 0c	 add	 esp, 12			; 0000000cH
  0006c	84 c0		 test	 al, al
  0006e	74 d0		 je	 SHORT $LN34@background

; 57   : 		return Py_BadArgument();
; 58   : 
; 59   : 	if (!PyTuple_GetFloat(poArgs, 3, &z))

  00070	8d 45 d0	 lea	 eax, DWORD PTR _z$[ebp]
  00073	50		 push	 eax
  00074	6a 03		 push	 3
  00076	56		 push	 esi
  00077	e8 00 00 00 00	 call	 ?PyTuple_GetFloat@@YA_NPAU_object@@HPAM@Z ; PyTuple_GetFloat
  0007c	83 c4 0c	 add	 esp, 12			; 0000000cH
  0007f	84 c0		 test	 al, al
  00081	74 bd		 je	 SHORT $LN34@background
; File C:\Program Files (x86)\Microsoft Visual Studio\2019\Community\VC\Tools\MSVC\14.28.29333\include\xstring

; 389  :         return _CSTD strlen(reinterpret_cast<const char*>(_First));

  00083	8b 55 d4	 mov	 edx, DWORD PTR _pszMapPathName$[ebp]
  00086	8b ca		 mov	 ecx, edx
; File D:\Metin2 Server Files\mainline\SRC_2014\Metin2Client\UserInterface\PythonBackgroundModule.cpp

; 62   : 	CPythonBackground& rkBG=CPythonBackground::Instance();

  00088	8b 35 00 00 00
	00		 mov	 esi, DWORD PTR ?ms_singleton@?$CSingleton@VCPythonBackground@@@@0PAVCPythonBackground@@A ; CSingleton<CPythonBackground>::ms_singleton
; File C:\Program Files (x86)\Microsoft Visual Studio\2019\Community\VC\Tools\MSVC\14.28.29333\include\xstring

; 4377 :         _Mypair._Myval2._Mysize = 0;

  0008e	c7 45 e8 00 00
	00 00		 mov	 DWORD PTR $T2[ebp+16], 0

; 4378 :         _Mypair._Myval2._Myres  = _BUF_SIZE - 1;

  00095	c7 45 ec 0f 00
	00 00		 mov	 DWORD PTR $T2[ebp+20], 15 ; 0000000fH

; 4379 :         // the _Traits::assign is last so the codegen doesn't think the char write can alias this
; 4380 :         _Traits::assign(_Mypair._Myval2._Bx._Buf[0], _Elem());

  0009c	c6 45 d8 00	 mov	 BYTE PTR $T2[ebp], 0

; 389  :         return _CSTD strlen(reinterpret_cast<const char*>(_First));

  000a0	8d 79 01	 lea	 edi, DWORD PTR [ecx+1]
$LL32@background:
  000a3	8a 01		 mov	 al, BYTE PTR [ecx]
  000a5	41		 inc	 ecx
  000a6	84 c0		 test	 al, al
  000a8	75 f9		 jne	 SHORT $LL32@background
  000aa	2b cf		 sub	 ecx, edi

; 3062 :         return assign(_Ptr, _Convert_size<size_type>(_Traits::length(_Ptr)));

  000ac	51		 push	 ecx
  000ad	52		 push	 edx
  000ae	8d 4d d8	 lea	 ecx, DWORD PTR $T2[ebp]
  000b1	e8 00 00 00 00	 call	 ?assign@?$basic_string@DU?$char_traits@D@std@@V?$allocator@D@2@@std@@QAEAAV12@QBDI@Z ; std::basic_string<char,std::char_traits<char>,std::allocator<char> >::assign
; File D:\Metin2 Server Files\mainline\SRC_2014\Metin2Client\UserInterface\PythonBackgroundModule.cpp

; 63   : 	rkBG.LoadMap(pszMapPathName, x, y, z);

  000b6	f3 0f 10 45 d0	 movss	 xmm0, DWORD PTR _z$[ebp]
  000bb	8d 4d d8	 lea	 ecx, DWORD PTR $T2[ebp]
  000be	8b 06		 mov	 eax, DWORD PTR [esi]
  000c0	83 ec 0c	 sub	 esp, 12			; 0000000cH
  000c3	c7 45 fc 00 00
	00 00		 mov	 DWORD PTR __$EHRec$[ebp+8], 0
  000ca	f3 0f 11 44 24
	08		 movss	 DWORD PTR [esp+8], xmm0
  000d0	f3 0f 10 45 cc	 movss	 xmm0, DWORD PTR _y$[ebp]
  000d5	f3 0f 11 44 24
	04		 movss	 DWORD PTR [esp+4], xmm0
  000db	f3 0f 10 45 c8	 movss	 xmm0, DWORD PTR _x$[ebp]
  000e0	f3 0f 11 04 24	 movss	 DWORD PTR [esp], xmm0
  000e5	51		 push	 ecx
  000e6	8b ce		 mov	 ecx, esi
  000e8	ff 50 0c	 call	 DWORD PTR [eax+12]
; File C:\Program Files (x86)\Microsoft Visual Studio\2019\Community\VC\Tools\MSVC\14.28.29333\include\xstring

; 2227 :         return _BUF_SIZE <= _Myres;

  000eb	8b 45 ec	 mov	 eax, DWORD PTR $T2[ebp+20]
; File D:\Metin2 Server Files\mainline\SRC_2014\Metin2Client\UserInterface\PythonBackgroundModule.cpp

; 63   : 	rkBG.LoadMap(pszMapPathName, x, y, z);

  000ee	c7 45 fc ff ff
	ff ff		 mov	 DWORD PTR __$EHRec$[ebp+8], -1
; File C:\Program Files (x86)\Microsoft Visual Studio\2019\Community\VC\Tools\MSVC\14.28.29333\include\xstring

; 2227 :         return _BUF_SIZE <= _Myres;

  000f5	83 f8 10	 cmp	 eax, 16			; 00000010H

; 4385 :         if (_Mypair._Myval2._Large_string_engaged()) {

  000f8	72 0d		 jb	 SHORT $LN26@background

; 4386 :             const pointer _Ptr = _Mypair._Myval2._Bx._Ptr;
; 4387 :             auto& _Al          = _Getal();
; 4388 :             _Destroy_in_place(_Mypair._Myval2._Bx._Ptr);
; 4389 :             _Al.deallocate(_Ptr, _Mypair._Myval2._Myres + 1);

  000fa	40		 inc	 eax
; File C:\Program Files (x86)\Microsoft Visual Studio\2019\Community\VC\Tools\MSVC\14.28.29333\include\xmemory

; 810  :         _Deallocate<_New_alignof<_Ty>>(_Ptr, sizeof(_Ty) * _Count);

  000fb	50		 push	 eax
  000fc	ff 75 d8	 push	 DWORD PTR $T2[ebp]
  000ff	e8 00 00 00 00	 call	 ??$_Deallocate@$07$0A@@std@@YAXPAXI@Z ; std::_Deallocate<8,0>
  00104	83 c4 08	 add	 esp, 8
$LN26@background:
; File C:\Program Files (x86)\Microsoft Visual Studio\2019\Community\VC\Tools\MSVC\14.28.29333\include\xstring

; 4392 :         _Mypair._Myval2._Mysize = 0;

  00107	c7 45 e8 00 00
	00 00		 mov	 DWORD PTR $T2[ebp+16], 0

; 4393 :         _Mypair._Myval2._Myres  = _BUF_SIZE - 1;

  0010e	c7 45 ec 0f 00
	00 00		 mov	 DWORD PTR $T2[ebp+20], 15 ; 0000000fH

; 4394 :         // the _Traits::assign is last so the codegen doesn't think the char write can alias this
; 4395 :         _Traits::assign(_Mypair._Myval2._Bx._Buf[0], _Elem());

  00115	c6 45 d8 00	 mov	 BYTE PTR $T2[ebp], 0
; File D:\Metin2 Server Files\mainline\SRC_2014\Metin2Client\UserInterface\PythonBackgroundModule.cpp

; 71   : 	return Py_BuildNone();

  00119	e8 00 00 00 00	 call	 ?Py_BuildNone@@YAPAU_object@@XZ ; Py_BuildNone
$LN1@background:

; 72   : }

  0011e	8b 4d f4	 mov	 ecx, DWORD PTR __$EHRec$[ebp]
  00121	64 89 0d 00 00
	00 00		 mov	 DWORD PTR fs:0, ecx
  00128	59		 pop	 ecx
  00129	5f		 pop	 edi
  0012a	5e		 pop	 esi
  0012b	8b 4d f0	 mov	 ecx, DWORD PTR __$ArrayPad$[ebp]
  0012e	33 cd		 xor	 ecx, ebp
  00130	e8 00 00 00 00	 call	 @__security_check_cookie@4
  00135	8b e5		 mov	 esp, ebp
  00137	5d		 pop	 ebp
  00138	c3		 ret	 0
_TEXT	ENDS
;	COMDAT text$x
text$x	SEGMENT
__unwindfunclet$?backgroundLoadMap@@YAPAU_object@@PAU1@0@Z$0:
  00000	8d 4d d8	 lea	 ecx, DWORD PTR $T2[ebp]
  00003	e9 00 00 00 00	 jmp	 ??1?$basic_string@DU?$char_traits@D@std@@V?$allocator@D@2@@std@@QAE@XZ ; std::basic_string<char,std::char_traits<char>,std::allocator<char> >::~basic_string<char,std::char_traits<char>,std::allocator<char> >
  00008	cc		 int	 3
  00009	cc		 int	 3
  0000a	cc		 int	 3
  0000b	cc		 int	 3
  0000c	cc		 int	 3
__ehhandler$?backgroundLoadMap@@YAPAU_object@@PAU1@0@Z:
  0000d	90		 npad	 1
  0000e	90		 npad	 1
  0000f	8b 54 24 08	 mov	 edx, DWORD PTR [esp+8]
  00013	8d 42 0c	 lea	 eax, DWORD PTR [edx+12]
  00016	8b 4a c8	 mov	 ecx, DWORD PTR [edx-56]
  00019	33 c8		 xor	 ecx, eax
  0001b	e8 00 00 00 00	 call	 @__security_check_cookie@4
  00020	8b 4a fc	 mov	 ecx, DWORD PTR [edx-4]
  00023	33 c8		 xor	 ecx, eax
  00025	e8 00 00 00 00	 call	 @__security_check_cookie@4
  0002a	b8 00 00 00 00	 mov	 eax, OFFSET __ehfuncinfo$?backgroundLoadMap@@YAPAU_object@@PAU1@0@Z
  0002f	e9 00 00 00 00	 jmp	 ___CxxFrameHandler3
text$x	ENDS
?backgroundLoadMap@@YAPAU_object@@PAU1@0@Z ENDP		; backgroundLoadMap
; Function compile flags: /Ogtp
; File D:\Metin2 Server Files\mainline\SRC_2014\Metin2Client\UserInterface\PythonBackgroundModule.cpp
;	COMDAT ?backgroundEnableSnow@@YAPAU_object@@PAU1@0@Z
_TEXT	SEGMENT
_nIsEnable$ = -4					; size = 4
_poSelf$ = 8						; size = 4
_poArgs$ = 12						; size = 4
?backgroundEnableSnow@@YAPAU_object@@PAU1@0@Z PROC	; backgroundEnableSnow, COMDAT

; 30   : {

  00000	55		 push	 ebp
  00001	8b ec		 mov	 ebp, esp
  00003	51		 push	 ecx

; 31   : 	int nIsEnable;
; 32   : 	if (!PyTuple_GetInteger(poArgs, 0, &nIsEnable))

  00004	8d 45 fc	 lea	 eax, DWORD PTR _nIsEnable$[ebp]
  00007	50		 push	 eax
  00008	6a 00		 push	 0
  0000a	ff 75 0c	 push	 DWORD PTR _poArgs$[ebp]
  0000d	e8 00 00 00 00	 call	 ?PyTuple_GetInteger@@YA_NPAU_object@@HPAH@Z ; PyTuple_GetInteger
  00012	83 c4 0c	 add	 esp, 12			; 0000000cH
  00015	84 c0		 test	 al, al
  00017	75 09		 jne	 SHORT $LN2@background

; 33   : 		return Py_BadArgument();

  00019	e8 00 00 00 00	 call	 ?Py_BadArgument@@YAPAU_object@@XZ ; Py_BadArgument

; 42   : }

  0001e	8b e5		 mov	 esp, ebp
  00020	5d		 pop	 ebp
  00021	c3		 ret	 0
$LN2@background:

; 34   : 
; 35   : 	CPythonBackground& rkBG=CPythonBackground::Instance();
; 36   : 	if (nIsEnable)

  00022	83 7d fc 00	 cmp	 DWORD PTR _nIsEnable$[ebp], 0
  00026	8b 0d 00 00 00
	00		 mov	 ecx, DWORD PTR ?ms_singleton@?$CSingleton@VCPythonBackground@@@@0PAVCPythonBackground@@A ; CSingleton<CPythonBackground>::ms_singleton
  0002c	74 0e		 je	 SHORT $LN3@background

; 37   : 		rkBG.EnableSnowEnvironment();

  0002e	e8 00 00 00 00	 call	 ?EnableSnowEnvironment@CPythonBackground@@QAEXXZ ; CPythonBackground::EnableSnowEnvironment

; 40   : 
; 41   : 	return Py_BuildNone();

  00033	e8 00 00 00 00	 call	 ?Py_BuildNone@@YAPAU_object@@XZ ; Py_BuildNone

; 42   : }

  00038	8b e5		 mov	 esp, ebp
  0003a	5d		 pop	 ebp
  0003b	c3		 ret	 0
$LN3@background:

; 38   : 	else
; 39   : 		rkBG.DisableSnowEnvironment();

  0003c	e8 00 00 00 00	 call	 ?DisableSnowEnvironment@CPythonBackground@@QAEXXZ ; CPythonBackground::DisableSnowEnvironment

; 40   : 
; 41   : 	return Py_BuildNone();

  00041	e8 00 00 00 00	 call	 ?Py_BuildNone@@YAPAU_object@@XZ ; Py_BuildNone

; 42   : }

  00046	8b e5		 mov	 esp, ebp
  00048	5d		 pop	 ebp
  00049	c3		 ret	 0
?backgroundEnableSnow@@YAPAU_object@@PAU1@0@Z ENDP	; backgroundEnableSnow
_TEXT	ENDS
; Function compile flags: /Ogtp
; File D:\Metin2 Server Files\mainline\SRC_2014\Metin2Client\UserInterface\PythonBackgroundModule.cpp
;	COMDAT ?backgroundEnableSoftwareTiling@@YAPAU_object@@PAU1@0@Z
_TEXT	SEGMENT
_nIsEnable$ = -8					; size = 4
_isEnable$ = -4						; size = 1
_poSelf$ = 8						; size = 4
_poArgs$ = 12						; size = 4
?backgroundEnableSoftwareTiling@@YAPAU_object@@PAU1@0@Z PROC ; backgroundEnableSoftwareTiling, COMDAT

; 14   : {

  00000	55		 push	 ebp
  00001	8b ec		 mov	 ebp, esp
  00003	83 ec 08	 sub	 esp, 8

; 15   : 	int nIsEnable;
; 16   : 	if (!PyTuple_GetInteger(poArgs, 0, &nIsEnable))

  00006	8d 45 f8	 lea	 eax, DWORD PTR _nIsEnable$[ebp]
  00009	50		 push	 eax
  0000a	6a 00		 push	 0
  0000c	ff 75 0c	 push	 DWORD PTR _poArgs$[ebp]
  0000f	e8 00 00 00 00	 call	 ?PyTuple_GetInteger@@YA_NPAU_object@@HPAH@Z ; PyTuple_GetInteger
  00014	83 c4 0c	 add	 esp, 12			; 0000000cH
  00017	84 c0		 test	 al, al
  00019	75 09		 jne	 SHORT $LN2@background

; 17   : 		return Py_BadArgument();

  0001b	e8 00 00 00 00	 call	 ?Py_BadArgument@@YAPAU_object@@XZ ; Py_BadArgument

; 27   : }

  00020	8b e5		 mov	 esp, ebp
  00022	5d		 pop	 ebp
  00023	c3		 ret	 0
$LN2@background:

; 18   : 
; 19   : 	bool isEnable=nIsEnable ? true : false;

  00024	83 7d f8 00	 cmp	 DWORD PTR _nIsEnable$[ebp], 0

; 20   : 
; 21   : 	CPythonBackground& rkBG=CPythonBackground::Instance();
; 22   : 	rkBG.ReserveSoftwareTilingEnable(isEnable);

  00028	8b 0d 00 00 00
	00		 mov	 ecx, DWORD PTR ?ms_singleton@?$CSingleton@VCPythonBackground@@@@0PAVCPythonBackground@@A ; CSingleton<CPythonBackground>::ms_singleton
  0002e	0f 95 45 fc	 setne	 BYTE PTR _isEnable$[ebp]
  00032	ff 75 fc	 push	 DWORD PTR _isEnable$[ebp]
  00035	e8 00 00 00 00	 call	 ?ReserveSoftwareTilingEnable@CMapManager@@QAEX_N@Z ; CMapManager::ReserveSoftwareTilingEnable

; 23   : 
; 24   : 	CPythonSystem& rkSystem=CPythonSystem::Instance();
; 25   : 	rkSystem.SetSoftwareTiling(isEnable);

  0003a	ff 75 fc	 push	 DWORD PTR _isEnable$[ebp]
  0003d	8b 0d 00 00 00
	00		 mov	 ecx, DWORD PTR ?ms_singleton@?$CSingleton@VCPythonSystem@@@@0PAVCPythonSystem@@A ; CSingleton<CPythonSystem>::ms_singleton
  00043	e8 00 00 00 00	 call	 ?SetSoftwareTiling@CPythonSystem@@QAEX_N@Z ; CPythonSystem::SetSoftwareTiling

; 26   : 	return Py_BuildNone();

  00048	e8 00 00 00 00	 call	 ?Py_BuildNone@@YAPAU_object@@XZ ; Py_BuildNone

; 27   : }

  0004d	8b e5		 mov	 esp, ebp
  0004f	5d		 pop	 ebp
  00050	c3		 ret	 0
?backgroundEnableSoftwareTiling@@YAPAU_object@@PAU1@0@Z ENDP ; backgroundEnableSoftwareTiling
_TEXT	ENDS
; Function compile flags: /Ogtp
; File D:\Metin2 Server Files\mainline\SRC_2014\Metin2Client\UserInterface\PythonBackgroundModule.cpp
;	COMDAT ?backgroundIsSoftwareTiling@@YAPAU_object@@PAU1@0@Z
_TEXT	SEGMENT
_poSelf$ = 8						; size = 4
_poArgs$ = 12						; size = 4
?backgroundIsSoftwareTiling@@YAPAU_object@@PAU1@0@Z PROC ; backgroundIsSoftwareTiling, COMDAT

; 9    : 	CPythonBackground& rkBG=CPythonBackground::Instance();
; 10   : 	return Py_BuildValue("i", rkBG.IsSoftwareTilingEnable());

  00000	8b 0d 00 00 00
	00		 mov	 ecx, DWORD PTR ?ms_singleton@?$CSingleton@VCPythonBackground@@@@0PAVCPythonBackground@@A ; CSingleton<CPythonBackground>::ms_singleton
  00006	e8 00 00 00 00	 call	 ?IsSoftwareTilingEnable@CMapManager@@QAE_NXZ ; CMapManager::IsSoftwareTilingEnable
  0000b	0f b6 c0	 movzx	 eax, al
  0000e	50		 push	 eax
  0000f	68 00 00 00 00	 push	 OFFSET ??_C@_01KBJDNOO@i@
  00014	ff 15 00 00 00
	00		 call	 DWORD PTR __imp__Py_BuildValue
  0001a	83 c4 08	 add	 esp, 8

; 11   : }

  0001d	c3		 ret	 0
?backgroundIsSoftwareTiling@@YAPAU_object@@PAU1@0@Z ENDP ; backgroundIsSoftwareTiling
_TEXT	ENDS
; Function compile flags: /Ogtp
; File C:\Program Files (x86)\Microsoft Visual Studio\2019\Community\VC\Tools\MSVC\14.28.29333\include\xmemory
;	COMDAT ??$_Allocate_manually_vector_aligned@U_Default_allocate_traits@std@@@std@@YAPAXI@Z
_TEXT	SEGMENT
__Bytes$ = 8						; size = 4
??$_Allocate_manually_vector_aligned@U_Default_allocate_traits@std@@@std@@YAPAXI@Z PROC ; std::_Allocate_manually_vector_aligned<std::_Default_allocate_traits>, COMDAT

; 113  : __declspec(allocator) void* _Allocate_manually_vector_aligned(const size_t _Bytes) {

  00000	55		 push	 ebp
  00001	8b ec		 mov	 ebp, esp

; 114  :     // allocate _Bytes manually aligned to at least _Big_allocation_alignment
; 115  :     const size_t _Block_size = _Non_user_size + _Bytes;

  00003	8b 45 08	 mov	 eax, DWORD PTR __Bytes$[ebp]
  00006	8d 48 23	 lea	 ecx, DWORD PTR [eax+35]

; 116  :     if (_Block_size <= _Bytes) {

  00009	3b c8		 cmp	 ecx, eax
  0000b	0f 86 00 00 00
	00		 jbe	 ?_Throw_bad_array_new_length@std@@YAXXZ ; std::_Throw_bad_array_new_length

; 77   :         return ::operator new(_Bytes);

  00011	51		 push	 ecx
  00012	e8 00 00 00 00	 call	 ??2@YAPAXI@Z		; operator new

; 117  :         _Throw_bad_array_new_length(); // add overflow
; 118  :     }
; 119  : 
; 120  :     const uintptr_t _Ptr_container = reinterpret_cast<uintptr_t>(_Traits::_Allocate(_Block_size));

  00017	8b c8		 mov	 ecx, eax

; 77   :         return ::operator new(_Bytes);

  00019	83 c4 04	 add	 esp, 4

; 121  :     _STL_VERIFY(_Ptr_container != 0, "invalid argument"); // validate even in release since we're doing p[-1]

  0001c	85 c9		 test	 ecx, ecx
  0001e	74 0b		 je	 SHORT $LN7@Allocate_m

; 122  :     void* const _Ptr = reinterpret_cast<void*>((_Ptr_container + _Non_user_size) & ~(_Big_allocation_alignment - 1));

  00020	8d 41 23	 lea	 eax, DWORD PTR [ecx+35]
  00023	83 e0 e0	 and	 eax, -32		; ffffffe0H

; 123  :     static_cast<uintptr_t*>(_Ptr)[-1] = _Ptr_container;

  00026	89 48 fc	 mov	 DWORD PTR [eax-4], ecx

; 124  : 
; 125  : #ifdef _DEBUG
; 126  :     static_cast<uintptr_t*>(_Ptr)[-2] = _Big_allocation_sentinel;
; 127  : #endif // _DEBUG
; 128  :     return _Ptr;
; 129  : }

  00029	5d		 pop	 ebp
  0002a	c3		 ret	 0
$LN7@Allocate_m:

; 121  :     _STL_VERIFY(_Ptr_container != 0, "invalid argument"); // validate even in release since we're doing p[-1]

  0002b	e9 00 00 00 00	 jmp	 __invalid_parameter_noinfo_noreturn
??$_Allocate_manually_vector_aligned@U_Default_allocate_traits@std@@@std@@YAPAXI@Z ENDP ; std::_Allocate_manually_vector_aligned<std::_Default_allocate_traits>
_TEXT	ENDS
; Function compile flags: /Ogtp
; File C:\Program Files (x86)\Microsoft Visual Studio\2019\Community\VC\Tools\MSVC\14.28.29333\include\xmemory
;	COMDAT ??$_Allocate@$07U_Default_allocate_traits@std@@$0A@@std@@YAPAXI@Z
_TEXT	SEGMENT
__Bytes$ = 8						; size = 4
??$_Allocate@$07U_Default_allocate_traits@std@@$0A@@std@@YAPAXI@Z PROC ; std::_Allocate<8,std::_Default_allocate_traits,0>, COMDAT

; 197  : __declspec(allocator) void* _Allocate(const size_t _Bytes) {

  00000	55		 push	 ebp
  00001	8b ec		 mov	 ebp, esp

; 198  :     // allocate _Bytes when !_HAS_ALIGNED_NEW || _Align <= __STDCPP_DEFAULT_NEW_ALIGNMENT__
; 199  : #if defined(_M_IX86) || defined(_M_X64)
; 200  :     if (_Bytes >= _Big_allocation_threshold) { // boost the alignment of big allocations to help autovectorization

  00003	8b 45 08	 mov	 eax, DWORD PTR __Bytes$[ebp]
  00006	3d 00 10 00 00	 cmp	 eax, 4096		; 00001000H
  0000b	72 09		 jb	 SHORT $LN2@Allocate

; 201  :         return _Allocate_manually_vector_aligned<_Traits>(_Bytes);

  0000d	89 45 08	 mov	 DWORD PTR __Bytes$[ebp], eax

; 210  : }

  00010	5d		 pop	 ebp

; 201  :         return _Allocate_manually_vector_aligned<_Traits>(_Bytes);

  00011	e9 00 00 00 00	 jmp	 ??$_Allocate_manually_vector_aligned@U_Default_allocate_traits@std@@@std@@YAPAXI@Z ; std::_Allocate_manually_vector_aligned<std::_Default_allocate_traits>
$LN2@Allocate:

; 202  :     }
; 203  : #endif // defined(_M_IX86) || defined(_M_X64)
; 204  : 
; 205  :     if (_Bytes != 0) {

  00016	85 c0		 test	 eax, eax
  00018	74 09		 je	 SHORT $LN3@Allocate

; 77   :         return ::operator new(_Bytes);

  0001a	89 45 08	 mov	 DWORD PTR __Bytes$[ebp], eax

; 210  : }

  0001d	5d		 pop	 ebp

; 77   :         return ::operator new(_Bytes);

  0001e	e9 00 00 00 00	 jmp	 ??2@YAPAXI@Z		; operator new
$LN3@Allocate:

; 206  :         return _Traits::_Allocate(_Bytes);
; 207  :     }
; 208  : 
; 209  :     return nullptr;

  00023	33 c0		 xor	 eax, eax

; 210  : }

  00025	5d		 pop	 ebp
  00026	c3		 ret	 0
??$_Allocate@$07U_Default_allocate_traits@std@@$0A@@std@@YAPAXI@Z ENDP ; std::_Allocate<8,std::_Default_allocate_traits,0>
_TEXT	ENDS
; Function compile flags: /Ogtp
; File C:\Program Files (x86)\Microsoft Visual Studio\2019\Community\VC\Tools\MSVC\14.28.29333\include\xmemory
;	COMDAT ??$_Deallocate@$07$0A@@std@@YAXPAXI@Z
_TEXT	SEGMENT
__Ptr$ = 8						; size = 4
__Bytes$ = 12						; size = 4
??$_Deallocate@$07$0A@@std@@YAXPAXI@Z PROC		; std::_Deallocate<8,0>, COMDAT

; 213  : void _Deallocate(void* _Ptr, size_t _Bytes) noexcept {

  00000	55		 push	 ebp
  00001	8b ec		 mov	 ebp, esp

; 214  :     // deallocate storage allocated by _Allocate when !_HAS_ALIGNED_NEW || _Align <= __STDCPP_DEFAULT_NEW_ALIGNMENT__
; 215  : #if defined(_M_IX86) || defined(_M_X64)
; 216  :     if (_Bytes >= _Big_allocation_threshold) { // boost the alignment of big allocations to help autovectorization

  00003	8b 4d 0c	 mov	 ecx, DWORD PTR __Bytes$[ebp]
  00006	81 f9 00 10 00
	00		 cmp	 ecx, 4096		; 00001000H
  0000c	72 18		 jb	 SHORT $LN15@Deallocate

; 137  :     const uintptr_t _Ptr_container   = _Ptr_user[-1];

  0000e	8b 45 08	 mov	 eax, DWORD PTR __Ptr$[ebp]
  00011	83 c1 23	 add	 ecx, 35			; 00000023H
  00014	8b 50 fc	 mov	 edx, DWORD PTR [eax-4]

; 138  : 
; 139  :     // If the following asserts, it likely means that we are performing
; 140  :     // an aligned delete on memory coming from an unaligned allocation.
; 141  :     _STL_ASSERT(_Ptr_user[-2] == _Big_allocation_sentinel, "invalid argument");
; 142  : 
; 143  :     // Extra paranoia on aligned allocation/deallocation; ensure _Ptr_container is
; 144  :     // in range [_Min_back_shift, _Non_user_size]
; 145  : #ifdef _DEBUG
; 146  :     constexpr uintptr_t _Min_back_shift = 2 * sizeof(void*);
; 147  : #else // ^^^ _DEBUG ^^^ // vvv !_DEBUG vvv
; 148  :     constexpr uintptr_t _Min_back_shift = sizeof(void*);
; 149  : #endif // _DEBUG
; 150  :     const uintptr_t _Back_shift = reinterpret_cast<uintptr_t>(_Ptr) - _Ptr_container;

  00017	2b c2		 sub	 eax, edx

; 151  :     _STL_VERIFY(_Back_shift >= _Min_back_shift && _Back_shift <= _Non_user_size, "invalid argument");

  00019	83 c0 fc	 add	 eax, -4			; fffffffcH
  0001c	83 f8 1f	 cmp	 eax, 31			; 0000001fH
  0001f	76 08		 jbe	 SHORT $LN13@Deallocate
  00021	e9 00 00 00 00	 jmp	 __invalid_parameter_noinfo_noreturn
$LN15@Deallocate:

; 214  :     // deallocate storage allocated by _Allocate when !_HAS_ALIGNED_NEW || _Align <= __STDCPP_DEFAULT_NEW_ALIGNMENT__
; 215  : #if defined(_M_IX86) || defined(_M_X64)
; 216  :     if (_Bytes >= _Big_allocation_threshold) { // boost the alignment of big allocations to help autovectorization

  00026	8b 55 08	 mov	 edx, DWORD PTR __Ptr$[ebp]
$LN13@Deallocate:

; 217  :         _Adjust_manually_vector_aligned(_Ptr, _Bytes);
; 218  :     }
; 219  : #endif // defined(_M_IX86) || defined(_M_X64)
; 220  : 
; 221  :     ::operator delete(_Ptr, _Bytes);

  00029	89 4d 0c	 mov	 DWORD PTR __Bytes$[ebp], ecx
  0002c	89 55 08	 mov	 DWORD PTR __Ptr$[ebp], edx

; 222  : }

  0002f	5d		 pop	 ebp

; 217  :         _Adjust_manually_vector_aligned(_Ptr, _Bytes);
; 218  :     }
; 219  : #endif // defined(_M_IX86) || defined(_M_X64)
; 220  : 
; 221  :     ::operator delete(_Ptr, _Bytes);

  00030	e9 00 00 00 00	 jmp	 ??3@YAXPAXI@Z		; operator delete
??$_Deallocate@$07$0A@@std@@YAXPAXI@Z ENDP		; std::_Deallocate<8,0>
_TEXT	ENDS
; Function compile flags: /Ogtp
; File C:\Program Files (x86)\Microsoft Visual Studio\2019\Community\VC\Tools\MSVC\14.28.29333\include\xmemory
;	COMDAT ??$_Construct_in_place@PADABQAD@std@@YAXAAPADABQAD@Z
_TEXT	SEGMENT
__Obj$ = 8						; size = 4
_<_Args_0>$ = 12					; size = 4
??$_Construct_in_place@PADABQAD@std@@YAXAAPADABQAD@Z PROC ; std::_Construct_in_place<char *,char * const &>, COMDAT

; 228  : void _Construct_in_place(_Ty& _Obj, _Types&&... _Args) noexcept(is_nothrow_constructible_v<_Ty, _Types...>) {

  00000	55		 push	 ebp
  00001	8b ec		 mov	 ebp, esp

; 229  :     ::new (const_cast<void*>(static_cast<const volatile void*>(_STD addressof(_Obj))))

  00003	8b 45 0c	 mov	 eax, DWORD PTR _<_Args_0>$[ebp]
  00006	8b 08		 mov	 ecx, DWORD PTR [eax]
  00008	8b 45 08	 mov	 eax, DWORD PTR __Obj$[ebp]
  0000b	89 08		 mov	 DWORD PTR [eax], ecx

; 230  :         _Ty(_STD forward<_Types>(_Args)...);
; 231  : }

  0000d	5d		 pop	 ebp
  0000e	c3		 ret	 0
??$_Construct_in_place@PADABQAD@std@@YAXAAPADABQAD@Z ENDP ; std::_Construct_in_place<char *,char * const &>
_TEXT	ENDS
; Function compile flags: /Ogtp
; File C:\Program Files (x86)\Microsoft Visual Studio\2019\Community\VC\Tools\MSVC\14.28.29333\include\xmemory
;	COMDAT ??$_Destroy_in_place@PAD@std@@YAXAAPAD@Z
_TEXT	SEGMENT
__Obj$ = 8						; size = 4
??$_Destroy_in_place@PAD@std@@YAXAAPAD@Z PROC		; std::_Destroy_in_place<char *>, COMDAT

; 271  : #if _HAS_IF_CONSTEXPR
; 272  :     if constexpr (is_array_v<_Ty>) {
; 273  :         _Destroy_range(_Obj, _Obj + extent_v<_Ty>);
; 274  :     } else
; 275  : #endif // _HAS_IF_CONSTEXPR
; 276  :     {
; 277  :         _Obj.~_Ty();
; 278  :     }
; 279  : }

  00000	c2 00 00	 ret	 0
??$_Destroy_in_place@PAD@std@@YAXAAPAD@Z ENDP		; std::_Destroy_in_place<char *>
_TEXT	ENDS
; Function compile flags: /Ogtp
; File D:\Metin2 Server Files\mainline\SRC_2014\Metin2Client\UserInterface\PythonBackgroundModule.cpp
;	COMDAT ?initBackground@@YAXXZ
_TEXT	SEGMENT
?initBackground@@YAXXZ PROC				; initBackground, COMDAT

; 527  : {

  00000	56		 push	 esi
  00001	57		 push	 edi

; 528  : 	static PyMethodDef s_methods[] =
; 529  : 	{
; 530  : 		{ "IsSoftwareTiling",					backgroundIsSoftwareTiling,					METH_VARARGS }, 
; 531  : 		{ "EnableSoftwareTiling",				backgroundEnableSoftwareTiling,				METH_VARARGS }, 
; 532  : 		{ "EnableSnow",							backgroundEnableSnow,						METH_VARARGS }, 
; 533  : 		{ "GlobalPositionToLocalPosition",		backgroundGlobalPositionToLocalPosition,	METH_VARARGS }, 
; 534  : 		{ "GlobalPositionToMapInfo",			backgroundGlobalPositionToMapInfo,			METH_VARARGS }, 
; 535  : 		{ "GetRenderShadowTime",				backgroundGetRenderShadowTime,				METH_VARARGS },
; 536  : 		{ "LoadMap",							backgroundLoadMap,							METH_VARARGS },
; 537  : 		{ "Destroy",							backgroundDestroy,							METH_VARARGS },
; 538  : 		{ "RegisterEnvironmentData",			backgroundRegisterEnvironmentData,			METH_VARARGS },
; 539  : 		{ "SetEnvironmentData",					backgroundSetEnvironmentData,				METH_VARARGS },
; 540  : 		{ "GetCurrentMapName",					backgroundGetCurrentMapName,				METH_VARARGS },
; 541  : 		{ "GetPickingPoint",					backgroundGetPickingPoint,					METH_VARARGS },
; 542  : 
; 543  : 		{ "BeginEnvironment",					backgroundBeginEnvironment,					METH_VARARGS },
; 544  : 		{ "EndEnvironment",						backgroundEndEnvironemt,					METH_VARARGS },
; 545  : 		{ "SetCharacterDirLight",				backgroundSetCharacterDirLight,				METH_VARARGS },
; 546  : 		{ "SetBackgroundDirLight",				backgroundSetBackgroundDirLight,			METH_VARARGS },
; 547  : 
; 548  : 		{ "Initialize",							backgroundInitialize,						METH_VARARGS },
; 549  : 		{ "Update",								backgroundUpdate,							METH_VARARGS },
; 550  : 		{ "Render",								backgroundRender,							METH_VARARGS },
; 551  : 		{ "RenderPCBlocker",					backgroundRenderPCBlocker,					METH_VARARGS },
; 552  : 		{ "RenderCollision",					backgroundRenderCollision,					METH_VARARGS },
; 553  : 		{ "RenderSky",							backgroundRenderSky,						METH_VARARGS },
; 554  : 		{ "RenderCloud",						backgroundRenderCloud,						METH_VARARGS },
; 555  : 		{ "RenderWater",						backgroundRenderWater,						METH_VARARGS },
; 556  : 		{ "RenderEffect",						backgroundRenderEffect,						METH_VARARGS },
; 557  : 		{ "RenderBeforeLensFlare",				backgroundRenderBeforeLensFlare,			METH_VARARGS },
; 558  : 		{ "RenderAfterLensFlare",				backgroundRenderAfterLensFlare,				METH_VARARGS },
; 559  : 		{ "RenderCharacterShadowToTexture",		backgroundRenderCharacterShadowToTexture,	METH_VARARGS },
; 560  : 		{ "RenderDungeon",						backgroundRenderDungeon,					METH_VARARGS },
; 561  : 		{ "GetHeight",							backgroundGetHeight,						METH_VARARGS },
; 562  : 		
; 563  : 		{ "SetShadowLevel",						backgroundSetShadowLevel,					METH_VARARGS },
; 564  : 
; 565  : 		{ "SetVisiblePart",						backgroundSetVisiblePart,					METH_VARARGS },
; 566  : 		{ "GetShadowMapColor",					backgroundGetShadowMapcolor,				METH_VARARGS },
; 567  : 		{ "SetSplatLimit",						backgroundSetSpaltLimit,					METH_VARARGS },
; 568  : 		{ "GetRenderedSplatNum",				backgroundGetRenderedSplatNum,				METH_VARARGS },
; 569  : 		{ "GetRenderedGraphicThingInstanceNum",	backgroundGetRenderedGTINum,				METH_VARARGS },
; 570  : 		{ "SelectViewDistanceNum",				backgroundSelectViewDistanceNum,			METH_VARARGS },
; 571  : 		{ "SetViewDistanceSet",					backgroundSetViewDistanceSet,				METH_VARARGS },
; 572  : 		{ "GetFarClip",							backgroundGetFarClip,						METH_VARARGS },
; 573  : 		{ "GetDistanceSetInfo",					backgroundGetDistanceSetInfo,				METH_VARARGS },
; 574  : 		{ "SetBGLoading",						backgroundSetBGLoading,						METH_VARARGS },
; 575  : 		{ "SetRenderSort",						backgroundSetRenderSort,					METH_VARARGS },
; 576  : 		{ "SetTransparentTree",					backgroundSetTransparentTree,				METH_VARARGS },
; 577  : 		{ "SetXMasTree",						backgroundSetXMasTree,						METH_VARARGS },
; 578  : 		{ "RegisterDungeonMapName",				backgroundRegisterDungeonMapName,			METH_VARARGS },
; 579  : 
; 580  : 		{ "VisibleGuildArea",					backgroundVisibleGuildArea,					METH_VARARGS },
; 581  : 		{ "DisableGuildArea",					backgroundDisableGuildArea,					METH_VARARGS },
; 582  : 
; 583  : 		{ "WarpTest",							backgroundWarpTest,							METH_VARARGS },
; 584  : 
; 585  : 		{ NULL, NULL, NULL },
; 586  : 	};
; 587  : 
; 588  : 	PyObject * poModule = Py_InitModule("background", s_methods);

  00002	68 f5 03 00 00	 push	 1013			; 000003f5H
  00007	6a 00		 push	 0
  00009	6a 00		 push	 0
  0000b	68 00 00 00 00	 push	 OFFSET ?s_methods@?1??initBackground@@YAXXZ@4PAUPyMethodDef@@A
  00010	68 00 00 00 00	 push	 OFFSET ??_C@_0L@EGCKCJDC@background@
  00015	ff 15 00 00 00
	00		 call	 DWORD PTR __imp__Py_InitModule4

; 589  : 
; 590  : 	PyModule_AddIntConstant(poModule, "PART_SKY",				CMapOutdoor::PART_SKY);

  0001b	8b 35 00 00 00
	00		 mov	 esi, DWORD PTR __imp__PyModule_AddIntConstant
  00021	8b f8		 mov	 edi, eax
  00023	6a 05		 push	 5
  00025	68 00 00 00 00	 push	 OFFSET ??_C@_08NJILKGEB@PART_SKY@
  0002a	57		 push	 edi
  0002b	ff d6		 call	 esi

; 591  : 	PyModule_AddIntConstant(poModule, "PART_TREE",				CMapOutdoor::PART_TREE);

  0002d	6a 04		 push	 4
  0002f	68 00 00 00 00	 push	 OFFSET ??_C@_09GABNPPB@PART_TREE@
  00034	57		 push	 edi
  00035	ff d6		 call	 esi

; 592  : 	PyModule_AddIntConstant(poModule, "PART_CLOUD",				CMapOutdoor::PART_CLOUD);

  00037	6a 02		 push	 2
  00039	68 00 00 00 00	 push	 OFFSET ??_C@_0L@OMDBBBIA@PART_CLOUD@
  0003e	57		 push	 edi
  0003f	ff d6		 call	 esi

; 593  : 	PyModule_AddIntConstant(poModule, "PART_WATER",				CMapOutdoor::PART_WATER);

  00041	6a 03		 push	 3
  00043	68 00 00 00 00	 push	 OFFSET ??_C@_0L@LEAFDIF@PART_WATER@
  00048	57		 push	 edi
  00049	ff d6		 call	 esi
  0004b	83 c4 44	 add	 esp, 68			; 00000044H

; 594  : 	PyModule_AddIntConstant(poModule, "PART_OBJECT",			CMapOutdoor::PART_OBJECT);	

  0004e	6a 01		 push	 1
  00050	68 00 00 00 00	 push	 OFFSET ??_C@_0M@FDJPOPAP@PART_OBJECT@
  00055	57		 push	 edi
  00056	ff d6		 call	 esi

; 595  : 	PyModule_AddIntConstant(poModule, "PART_TERRAIN",			CMapOutdoor::PART_TERRAIN);	

  00058	6a 00		 push	 0
  0005a	68 00 00 00 00	 push	 OFFSET ??_C@_0N@JJNCMAMK@PART_TERRAIN@
  0005f	57		 push	 edi
  00060	ff d6		 call	 esi

; 596  : 
; 597  : 	PyModule_AddIntConstant(poModule, "SKY_RENDER_MODE_DEFAULT",			CSkyObject::SKY_RENDER_MODE_DEFAULT);

  00062	6a 00		 push	 0
  00064	68 00 00 00 00	 push	 OFFSET ??_C@_0BI@KFLFFAKF@SKY_RENDER_MODE_DEFAULT@
  00069	57		 push	 edi
  0006a	ff d6		 call	 esi

; 598  : 	PyModule_AddIntConstant(poModule, "SKY_RENDER_MODE_DIFFUSE",			CSkyObject::SKY_RENDER_MODE_DIFFUSE);

  0006c	6a 01		 push	 1
  0006e	68 00 00 00 00	 push	 OFFSET ??_C@_0BI@JEJGCBJM@SKY_RENDER_MODE_DIFFUSE@
  00073	57		 push	 edi
  00074	ff d6		 call	 esi

; 599  : 	PyModule_AddIntConstant(poModule, "SKY_RENDER_MODE_TEXTURE",			CSkyObject::SKY_RENDER_MODE_TEXTURE);

  00076	6a 02		 push	 2
  00078	68 00 00 00 00	 push	 OFFSET ??_C@_0BI@NLDLHPN@SKY_RENDER_MODE_TEXTURE@
  0007d	57		 push	 edi
  0007e	ff d6		 call	 esi

; 600  : 	PyModule_AddIntConstant(poModule, "SKY_RENDER_MODE_MODULATE",			CSkyObject::SKY_RENDER_MODE_MODULATE);

  00080	6a 03		 push	 3
  00082	68 00 00 00 00	 push	 OFFSET ??_C@_0BJ@IGDGIPGO@SKY_RENDER_MODE_MODULATE@
  00087	57		 push	 edi
  00088	ff d6		 call	 esi
  0008a	83 c4 48	 add	 esp, 72			; 00000048H

; 601  : 	PyModule_AddIntConstant(poModule, "SKY_RENDER_MODE_MODULATE2X",			CSkyObject::SKY_RENDER_MODE_MODULATE2X);

  0008d	6a 04		 push	 4
  0008f	68 00 00 00 00	 push	 OFFSET ??_C@_0BL@NDPELIAM@SKY_RENDER_MODE_MODULATE2X@
  00094	57		 push	 edi
  00095	ff d6		 call	 esi

; 602  : 	PyModule_AddIntConstant(poModule, "SKY_RENDER_MODE_MODULATE4X",			CSkyObject::SKY_RENDER_MODE_MODULATE4X);

  00097	6a 05		 push	 5
  00099	68 00 00 00 00	 push	 OFFSET ??_C@_0BL@NHHJMELO@SKY_RENDER_MODE_MODULATE4X@
  0009e	57		 push	 edi
  0009f	ff d6		 call	 esi

; 603  : 
; 604  : 	PyModule_AddIntConstant(poModule, "SHADOW_NONE", CPythonBackground::SHADOW_NONE);

  000a1	6a 00		 push	 0
  000a3	68 00 00 00 00	 push	 OFFSET ??_C@_0M@GJOLHPMA@SHADOW_NONE@
  000a8	57		 push	 edi
  000a9	ff d6		 call	 esi

; 605  : 	PyModule_AddIntConstant(poModule, "SHADOW_GROUND", CPythonBackground::SHADOW_GROUND);

  000ab	6a 01		 push	 1
  000ad	68 00 00 00 00	 push	 OFFSET ??_C@_0O@KCPINCHK@SHADOW_GROUND@
  000b2	57		 push	 edi
  000b3	ff d6		 call	 esi

; 606  : 	PyModule_AddIntConstant(poModule, "SHADOW_GROUND_AND_SOLO", CPythonBackground::SHADOW_GROUND_AND_SOLO);

  000b5	6a 02		 push	 2
  000b7	68 00 00 00 00	 push	 OFFSET ??_C@_0BH@GACINHHJ@SHADOW_GROUND_AND_SOLO@
  000bc	57		 push	 edi
  000bd	ff d6		 call	 esi

; 607  : 	PyModule_AddIntConstant(poModule, "SHADOW_ALL", CPythonBackground::SHADOW_ALL);

  000bf	6a 03		 push	 3
  000c1	68 00 00 00 00	 push	 OFFSET ??_C@_0L@IDBIEHAB@SHADOW_ALL@
  000c6	57		 push	 edi
  000c7	ff d6		 call	 esi
  000c9	83 c4 48	 add	 esp, 72			; 00000048H

; 608  : 	PyModule_AddIntConstant(poModule, "SHADOW_ALL_HIGH", CPythonBackground::SHADOW_ALL_HIGH);

  000cc	6a 04		 push	 4
  000ce	68 00 00 00 00	 push	 OFFSET ??_C@_0BA@HAKJACB@SHADOW_ALL_HIGH@
  000d3	57		 push	 edi
  000d4	ff d6		 call	 esi

; 609  : 	PyModule_AddIntConstant(poModule, "SHADOW_ALL_MAX", CPythonBackground::SHADOW_ALL_MAX);

  000d6	6a 05		 push	 5
  000d8	68 00 00 00 00	 push	 OFFSET ??_C@_0P@OLMEFOLC@SHADOW_ALL_MAX@
  000dd	57		 push	 edi
  000de	ff d6		 call	 esi

; 610  : 
; 611  : 	PyModule_AddIntConstant(poModule, "DISTANCE0", CPythonBackground::DISTANCE0);

  000e0	6a 00		 push	 0
  000e2	68 00 00 00 00	 push	 OFFSET ??_C@_09PGFHANGE@DISTANCE0@
  000e7	57		 push	 edi
  000e8	ff d6		 call	 esi

; 612  : 	PyModule_AddIntConstant(poModule, "DISTANCE1", CPythonBackground::DISTANCE1);

  000ea	6a 01		 push	 1
  000ec	68 00 00 00 00	 push	 OFFSET ??_C@_09OPEMDMCF@DISTANCE1@
  000f1	57		 push	 edi
  000f2	ff d6		 call	 esi

; 613  : 	PyModule_AddIntConstant(poModule, "DISTANCE2", CPythonBackground::DISTANCE2);

  000f4	6a 02		 push	 2
  000f6	68 00 00 00 00	 push	 OFFSET ??_C@_09MEGBGPOG@DISTANCE2@
  000fb	57		 push	 edi
  000fc	ff d6		 call	 esi

; 614  : 	PyModule_AddIntConstant(poModule, "DISTANCE3", CPythonBackground::DISTANCE3);

  000fe	6a 03		 push	 3
  00100	68 00 00 00 00	 push	 OFFSET ??_C@_09NNHKFOKH@DISTANCE3@
  00105	57		 push	 edi
  00106	ff d6		 call	 esi
  00108	83 c4 48	 add	 esp, 72			; 00000048H

; 615  : 	PyModule_AddIntConstant(poModule, "DISTANCE4", CPythonBackground::DISTANCE4);

  0010b	6a 04		 push	 4
  0010d	68 00 00 00 00	 push	 OFFSET ??_C@_09JCDLMIGA@DISTANCE4@
  00112	57		 push	 edi
  00113	ff d6		 call	 esi

; 616  : 
; 617  : 	PyModule_AddIntConstant(poModule, "DISTANCE_SORT", CMapOutdoor::DISTANCE_SORT);

  00115	6a 00		 push	 0
  00117	68 00 00 00 00	 push	 OFFSET ??_C@_0O@OJDBENMM@DISTANCE_SORT@
  0011c	57		 push	 edi
  0011d	ff d6		 call	 esi

; 618  : 	PyModule_AddIntConstant(poModule, "TEXTURE_SORT", CMapOutdoor::TEXTURE_SORT);

  0011f	6a 01		 push	 1
  00121	68 00 00 00 00	 push	 OFFSET ??_C@_0N@CKPMLBKJ@TEXTURE_SORT@
  00126	57		 push	 edi
  00127	ff d6		 call	 esi
  00129	83 c4 24	 add	 esp, 36			; 00000024H
  0012c	5f		 pop	 edi
  0012d	5e		 pop	 esi

; 619  : }

  0012e	c3		 ret	 0
?initBackground@@YAXXZ ENDP				; initBackground
_TEXT	ENDS
; Function compile flags: /Ogtp
; File C:\Program Files (x86)\Microsoft Visual Studio\2019\Community\VC\Tools\MSVC\14.28.29333\include\xstring
; File C:\Program Files (x86)\Microsoft Visual Studio\2019\Community\VC\Tools\MSVC\14.28.29333\include\utility
; File C:\Program Files (x86)\Microsoft Visual Studio\2019\Community\VC\Tools\MSVC\14.28.29333\include\xstring
; File C:\Program Files (x86)\Microsoft Visual Studio\2019\Community\VC\Tools\MSVC\14.28.29333\include\xmemory
; File C:\Program Files (x86)\Microsoft Visual Studio\2019\Community\VC\Tools\MSVC\14.28.29333\include\xstring
; File C:\Program Files (x86)\Microsoft Visual Studio\2019\Community\VC\Tools\MSVC\14.28.29333\include\xmemory
; File C:\Program Files (x86)\Microsoft Visual Studio\2019\Community\VC\Tools\MSVC\14.28.29333\include\xstring
;	COMDAT ?assign@?$basic_string@DU?$char_traits@D@std@@V?$allocator@D@2@@std@@QAEAAV12@QBDI@Z
_TEXT	SEGMENT
__Old$1$ = -4						; size = 4
__Ptr$ = 8						; size = 4
__New_ptr$1 = 12					; size = 4
__Count$ = 12						; size = 4
?assign@?$basic_string@DU?$char_traits@D@std@@V?$allocator@D@2@@std@@QAEAAV12@QBDI@Z PROC ; std::basic_string<char,std::char_traits<char>,std::allocator<char> >::assign, COMDAT
; _this$ = ecx

; 3042 :     basic_string& assign(_In_reads_(_Count) const _Elem* const _Ptr, _CRT_GUARDOVERFLOW const size_type _Count) {

  00000	55		 push	 ebp
  00001	8b ec		 mov	 ebp, esp
  00003	51		 push	 ecx
  00004	53		 push	 ebx
  00005	56		 push	 esi
  00006	8b f1		 mov	 esi, ecx
  00008	57		 push	 edi

; 3043 :         // assign [_Ptr, _Ptr + _Count)
; 3044 :         if (_Count <= _Mypair._Myval2._Myres) {

  00009	8b 7d 0c	 mov	 edi, DWORD PTR __Count$[ebp]
  0000c	8b 4e 14	 mov	 ecx, DWORD PTR [esi+20]
  0000f	89 4d fc	 mov	 DWORD PTR __Old$1$[ebp], ecx
  00012	3b f9		 cmp	 edi, ecx
  00014	77 28		 ja	 SHORT $LN2@assign

; 2209 :         value_type* _Result = _Bx._Buf;

  00016	8b de		 mov	 ebx, esi

; 2227 :         return _BUF_SIZE <= _Myres;

  00018	83 f9 10	 cmp	 ecx, 16			; 00000010H

; 2210 :         if (_Large_string_engaged()) {

  0001b	72 02		 jb	 SHORT $LN5@assign

; 2211 :             _Result = _Unfancy(_Bx._Ptr);

  0001d	8b 1e		 mov	 ebx, DWORD PTR [esi]
$LN5@assign:

; 119  :         _CSTD memmove(_First1, _First2, _Count * sizeof(_Elem));

  0001f	57		 push	 edi
  00020	ff 75 08	 push	 DWORD PTR __Ptr$[ebp]

; 3045 :             _Elem* const _Old_ptr   = _Mypair._Myval2._Myptr();
; 3046 :             _Mypair._Myval2._Mysize = _Count;

  00023	89 7e 10	 mov	 DWORD PTR [esi+16], edi

; 119  :         _CSTD memmove(_First1, _First2, _Count * sizeof(_Elem));

  00026	53		 push	 ebx
  00027	e8 00 00 00 00	 call	 _memmove
  0002c	83 c4 0c	 add	 esp, 12			; 0000000cH

; 3047 :             _Traits::move(_Old_ptr, _Ptr, _Count);
; 3048 :             _Traits::assign(_Old_ptr[_Count], _Elem());

  0002f	c6 04 3b 00	 mov	 BYTE PTR [ebx+edi], 0

; 3059 :     }

  00033	8b c6		 mov	 eax, esi
  00035	5f		 pop	 edi
  00036	5e		 pop	 esi
  00037	5b		 pop	 ebx
  00038	8b e5		 mov	 esp, ebp
  0003a	5d		 pop	 ebp
  0003b	c2 08 00	 ret	 8
$LN2@assign:

; 4305 :         if (_New_size > max_size()) {

  0003e	81 ff ff ff ff
	7f		 cmp	 edi, 2147483647		; 7fffffffH
  00044	0f 87 91 00 00
	00		 ja	 $LN36@assign

; 4285 :         const size_type _Masked = _Requested | _ALLOC_MASK;

  0004a	8b df		 mov	 ebx, edi
  0004c	83 cb 0f	 or	 ebx, 15			; 0000000fH
  0004f	81 fb ff ff ff
	7f		 cmp	 ebx, 2147483647		; 7fffffffH

; 4286 :         if (_Masked > _Max) { // the mask overflows, settle for max_size()

  00055	76 07		 jbe	 SHORT $LN19@assign

; 4287 :             return _Max;

  00057	bb ff ff ff 7f	 mov	 ebx, 2147483647		; 7fffffffH
  0005c	eb 1e		 jmp	 SHORT $LN18@assign
$LN19@assign:

; 4288 :         }
; 4289 : 
; 4290 :         if (_Old > _Max - _Old / 2) { // similarly, geometric overflows

  0005e	8b d1		 mov	 edx, ecx
  00060	b8 ff ff ff 7f	 mov	 eax, 2147483647		; 7fffffffH
  00065	d1 ea		 shr	 edx, 1
  00067	2b c2		 sub	 eax, edx
  00069	3b c8		 cmp	 ecx, eax
  0006b	76 07		 jbe	 SHORT $LN20@assign

; 4291 :             return _Max;

  0006d	bb ff ff ff 7f	 mov	 ebx, 2147483647		; 7fffffffH
  00072	eb 08		 jmp	 SHORT $LN18@assign
$LN20@assign:

; 4292 :         }
; 4293 : 
; 4294 :         return (_STD max)(_Masked, _Old + _Old / 2);

  00074	8d 04 0a	 lea	 eax, DWORD PTR [edx+ecx]
; File C:\Program Files (x86)\Microsoft Visual Studio\2019\Community\VC\Tools\MSVC\14.28.29333\include\utility

; 44   :     return _Left < _Right ? _Right : _Left;

  00077	3b d8		 cmp	 ebx, eax
  00079	0f 42 d8	 cmovb	 ebx, eax
$LN18@assign:
; File C:\Program Files (x86)\Microsoft Visual Studio\2019\Community\VC\Tools\MSVC\14.28.29333\include\xstring

; 4312 :         const pointer _New_ptr        = _Al.allocate(_New_capacity + 1); // throws

  0007c	8d 43 01	 lea	 eax, DWORD PTR [ebx+1]
; File C:\Program Files (x86)\Microsoft Visual Studio\2019\Community\VC\Tools\MSVC\14.28.29333\include\xmemory

; 814  :         return static_cast<_Ty*>(_Allocate<_New_alignof<_Ty>>(_Get_size_of_n<sizeof(_Ty)>(_Count)));

  0007f	50		 push	 eax
  00080	e8 00 00 00 00	 call	 ??$_Allocate@$07U_Default_allocate_traits@std@@$0A@@std@@YAPAXI@Z ; std::_Allocate<8,std::_Default_allocate_traits,0>
; File C:\Program Files (x86)\Microsoft Visual Studio\2019\Community\VC\Tools\MSVC\14.28.29333\include\xstring

; 62   :         _CSTD memcpy(_First1, _First2, _Count * sizeof(_Elem));

  00085	57		 push	 edi
  00086	ff 75 08	 push	 DWORD PTR __Ptr$[ebp]

; 4312 :         const pointer _New_ptr        = _Al.allocate(_New_capacity + 1); // throws

  00089	89 45 0c	 mov	 DWORD PTR __New_ptr$1[ebp], eax

; 62   :         _CSTD memcpy(_First1, _First2, _Count * sizeof(_Elem));

  0008c	50		 push	 eax

; 4314 :         _Mypair._Myval2._Mysize = _New_size;

  0008d	89 7e 10	 mov	 DWORD PTR [esi+16], edi

; 4315 :         _Mypair._Myval2._Myres  = _New_capacity;

  00090	89 5e 14	 mov	 DWORD PTR [esi+20], ebx

; 62   :         _CSTD memcpy(_First1, _First2, _Count * sizeof(_Elem));

  00093	e8 00 00 00 00	 call	 _memcpy

; 3056 :                 _Traits::assign(_New_ptr[_Count], _Elem());

  00098	8b 5d 0c	 mov	 ebx, DWORD PTR __New_ptr$1[ebp]

; 62   :         _CSTD memcpy(_First1, _First2, _Count * sizeof(_Elem));

  0009b	83 c4 10	 add	 esp, 16			; 00000010H

; 4317 :         if (_BUF_SIZE <= _Old_capacity) {

  0009e	8b 45 fc	 mov	 eax, DWORD PTR __Old$1$[ebp]

; 3056 :                 _Traits::assign(_New_ptr[_Count], _Elem());

  000a1	c6 04 3b 00	 mov	 BYTE PTR [ebx+edi], 0

; 4317 :         if (_BUF_SIZE <= _Old_capacity) {

  000a5	83 f8 10	 cmp	 eax, 16			; 00000010H
  000a8	72 19		 jb	 SHORT $LN13@assign

; 4318 :             _Al.deallocate(_Mypair._Myval2._Bx._Ptr, _Old_capacity + 1);

  000aa	40		 inc	 eax
; File C:\Program Files (x86)\Microsoft Visual Studio\2019\Community\VC\Tools\MSVC\14.28.29333\include\xmemory

; 810  :         _Deallocate<_New_alignof<_Ty>>(_Ptr, sizeof(_Ty) * _Count);

  000ab	50		 push	 eax
  000ac	ff 36		 push	 DWORD PTR [esi]
  000ae	e8 00 00 00 00	 call	 ??$_Deallocate@$07$0A@@std@@YAXPAXI@Z ; std::_Deallocate<8,0>
; File C:\Program Files (x86)\Microsoft Visual Studio\2019\Community\VC\Tools\MSVC\14.28.29333\include\xstring

; 3059 :     }

  000b3	83 c4 08	 add	 esp, 8

; 4319 :             _Mypair._Myval2._Bx._Ptr = _New_ptr;

  000b6	89 1e		 mov	 DWORD PTR [esi], ebx

; 3059 :     }

  000b8	8b c6		 mov	 eax, esi
  000ba	5f		 pop	 edi
  000bb	5e		 pop	 esi
  000bc	5b		 pop	 ebx
  000bd	8b e5		 mov	 esp, ebp
  000bf	5d		 pop	 ebp
  000c0	c2 08 00	 ret	 8
$LN13@assign:

; 4321 :             _Construct_in_place(_Mypair._Myval2._Bx._Ptr, _New_ptr);

  000c3	8d 45 0c	 lea	 eax, DWORD PTR __New_ptr$1[ebp]
  000c6	50		 push	 eax
  000c7	56		 push	 esi
  000c8	e8 00 00 00 00	 call	 ??$_Construct_in_place@PADABQAD@std@@YAXAAPADABQAD@Z ; std::_Construct_in_place<char *,char * const &>

; 3059 :     }

  000cd	83 c4 08	 add	 esp, 8
  000d0	8b c6		 mov	 eax, esi
  000d2	5f		 pop	 edi
  000d3	5e		 pop	 esi
  000d4	5b		 pop	 ebx
  000d5	8b e5		 mov	 esp, ebp
  000d7	5d		 pop	 ebp
  000d8	c2 08 00	 ret	 8
$LN36@assign:

; 4306 :             _Xlen_string(); // result too long

  000db	e8 00 00 00 00	 call	 ?_Xlen_string@std@@YAXXZ ; std::_Xlen_string
$LN33@assign:
  000e0	cc		 int	 3
?assign@?$basic_string@DU?$char_traits@D@std@@V?$allocator@D@2@@std@@QAEAAV12@QBDI@Z ENDP ; std::basic_string<char,std::char_traits<char>,std::allocator<char> >::assign
_TEXT	ENDS
; Function compile flags: /Ogtp
; File C:\Program Files (x86)\Microsoft Visual Studio\2019\Community\VC\Tools\MSVC\14.28.29333\include\xstring
; File C:\Program Files (x86)\Microsoft Visual Studio\2019\Community\VC\Tools\MSVC\14.28.29333\include\xmemory
; File C:\Program Files (x86)\Microsoft Visual Studio\2019\Community\VC\Tools\MSVC\14.28.29333\include\xstring
;	COMDAT ??1?$basic_string@DU?$char_traits@D@std@@V?$allocator@D@2@@std@@QAE@XZ
_TEXT	SEGMENT
??1?$basic_string@DU?$char_traits@D@std@@V?$allocator@D@2@@std@@QAE@XZ PROC ; std::basic_string<char,std::char_traits<char>,std::allocator<char> >::~basic_string<char,std::char_traits<char>,std::allocator<char> >, COMDAT
; _this$ = ecx

; 2800 :     ~basic_string() noexcept {

  00000	56		 push	 esi
  00001	8b f1		 mov	 esi, ecx

; 2227 :         return _BUF_SIZE <= _Myres;

  00003	8b 46 14	 mov	 eax, DWORD PTR [esi+20]
  00006	83 f8 10	 cmp	 eax, 16			; 00000010H

; 4385 :         if (_Mypair._Myval2._Large_string_engaged()) {

  00009	72 0c		 jb	 SHORT $LN4@basic_stri

; 4386 :             const pointer _Ptr = _Mypair._Myval2._Bx._Ptr;
; 4387 :             auto& _Al          = _Getal();
; 4388 :             _Destroy_in_place(_Mypair._Myval2._Bx._Ptr);
; 4389 :             _Al.deallocate(_Ptr, _Mypair._Myval2._Myres + 1);

  0000b	40		 inc	 eax
; File C:\Program Files (x86)\Microsoft Visual Studio\2019\Community\VC\Tools\MSVC\14.28.29333\include\xmemory

; 810  :         _Deallocate<_New_alignof<_Ty>>(_Ptr, sizeof(_Ty) * _Count);

  0000c	50		 push	 eax
  0000d	ff 36		 push	 DWORD PTR [esi]
  0000f	e8 00 00 00 00	 call	 ??$_Deallocate@$07$0A@@std@@YAXPAXI@Z ; std::_Deallocate<8,0>
  00014	83 c4 08	 add	 esp, 8
$LN4@basic_stri:
; File C:\Program Files (x86)\Microsoft Visual Studio\2019\Community\VC\Tools\MSVC\14.28.29333\include\xstring

; 4392 :         _Mypair._Myval2._Mysize = 0;

  00017	c7 46 10 00 00
	00 00		 mov	 DWORD PTR [esi+16], 0

; 4393 :         _Mypair._Myval2._Myres  = _BUF_SIZE - 1;

  0001e	c7 46 14 0f 00
	00 00		 mov	 DWORD PTR [esi+20], 15	; 0000000fH

; 4394 :         // the _Traits::assign is last so the codegen doesn't think the char write can alias this
; 4395 :         _Traits::assign(_Mypair._Myval2._Bx._Buf[0], _Elem());

  00025	c6 06 00	 mov	 BYTE PTR [esi], 0
  00028	5e		 pop	 esi

; 2801 :         _Tidy_deallocate();
; 2802 : #if _ITERATOR_DEBUG_LEVEL != 0
; 2803 :         auto&& _Alproxy          = _GET_PROXY_ALLOCATOR(_Alty, _Getal());
; 2804 :         const auto _To_delete    = _Mypair._Myval2._Myproxy;
; 2805 :         _Mypair._Myval2._Myproxy = nullptr;
; 2806 :         _Delete_plain_internal(_Alproxy, _To_delete);
; 2807 : #endif // _ITERATOR_DEBUG_LEVEL != 0
; 2808 :     }

  00029	c3		 ret	 0
??1?$basic_string@DU?$char_traits@D@std@@V?$allocator@D@2@@std@@QAE@XZ ENDP ; std::basic_string<char,std::char_traits<char>,std::allocator<char> >::~basic_string<char,std::char_traits<char>,std::allocator<char> >
_TEXT	ENDS
; Function compile flags: /Ogtp
; File C:\Program Files (x86)\Microsoft Visual Studio\2019\Community\VC\Tools\MSVC\14.28.29333\include\xstring
;	COMDAT ?_Xlen_string@std@@YAXXZ
_TEXT	SEGMENT
?_Xlen_string@std@@YAXXZ PROC				; std::_Xlen_string, COMDAT

; 2275 :     _Xlength_error("string too long");

  00000	68 00 00 00 00	 push	 OFFSET ??_C@_0BA@JFNIOLAK@string?5too?5long@
  00005	e8 00 00 00 00	 call	 ?_Xlength_error@std@@YAXPBD@Z ; std::_Xlength_error
$LN3@Xlen_strin:
  0000a	cc		 int	 3
?_Xlen_string@std@@YAXXZ ENDP				; std::_Xlen_string
_TEXT	ENDS
; Function compile flags: /Ogtp
; File C:\Program Files (x86)\Microsoft Visual Studio\2019\Community\VC\Tools\MSVC\14.28.29333\include\exception
;	COMDAT ?_Throw_bad_array_new_length@std@@YAXXZ
_TEXT	SEGMENT
$T1 = -12						; size = 12
?_Throw_bad_array_new_length@std@@YAXXZ PROC		; std::_Throw_bad_array_new_length, COMDAT

; 320  : [[noreturn]] inline void _Throw_bad_array_new_length() {

  00000	55		 push	 ebp
  00001	8b ec		 mov	 ebp, esp
  00003	83 ec 0c	 sub	 esp, 12			; 0000000cH

; 321  :     _THROW(bad_array_new_length{});

  00006	8d 4d f4	 lea	 ecx, DWORD PTR $T1[ebp]
  00009	e8 00 00 00 00	 call	 ??0bad_array_new_length@std@@QAE@XZ ; std::bad_array_new_length::bad_array_new_length
  0000e	68 00 00 00 00	 push	 OFFSET __TI3?AVbad_array_new_length@std@@
  00013	8d 45 f4	 lea	 eax, DWORD PTR $T1[ebp]
  00016	50		 push	 eax
  00017	e8 00 00 00 00	 call	 __CxxThrowException@8
$LN3@Throw_bad_:
  0001c	cc		 int	 3
?_Throw_bad_array_new_length@std@@YAXXZ ENDP		; std::_Throw_bad_array_new_length
_TEXT	ENDS
; Function compile flags: /Ogtp
; File C:\Program Files (x86)\Microsoft Visual Studio\2019\Community\VC\Tools\MSVC\14.28.29333\include\vcruntime_exception.h
;	COMDAT ??_Gbad_array_new_length@std@@UAEPAXI@Z
_TEXT	SEGMENT
___flags$ = 8						; size = 4
??_Gbad_array_new_length@std@@UAEPAXI@Z PROC		; std::bad_array_new_length::`scalar deleting destructor', COMDAT
; _this$ = ecx
  00000	55		 push	 ebp
  00001	8b ec		 mov	 ebp, esp

; 89   :     {

  00003	56		 push	 esi
  00004	8b f1		 mov	 esi, ecx

; 90   :         __std_exception_destroy(&_Data);

  00006	8d 46 04	 lea	 eax, DWORD PTR [esi+4]
  00009	c7 06 00 00 00
	00		 mov	 DWORD PTR [esi], OFFSET ??_7exception@std@@6B@
  0000f	50		 push	 eax
  00010	e8 00 00 00 00	 call	 ___std_exception_destroy
  00015	83 c4 04	 add	 esp, 4
  00018	f6 45 08 01	 test	 BYTE PTR ___flags$[ebp], 1
  0001c	74 0b		 je	 SHORT $LN12@scalar
  0001e	6a 0c		 push	 12			; 0000000cH
  00020	56		 push	 esi
  00021	e8 00 00 00 00	 call	 ??3@YAXPAXI@Z		; operator delete
  00026	83 c4 08	 add	 esp, 8
$LN12@scalar:
  00029	8b c6		 mov	 eax, esi
  0002b	5e		 pop	 esi
  0002c	5d		 pop	 ebp
  0002d	c2 04 00	 ret	 4
??_Gbad_array_new_length@std@@UAEPAXI@Z ENDP		; std::bad_array_new_length::`scalar deleting destructor'
_TEXT	ENDS
; Function compile flags: /Ogtp
; File C:\Program Files (x86)\Microsoft Visual Studio\2019\Community\VC\Tools\MSVC\14.28.29333\include\vcruntime_exception.h
;	COMDAT ??0bad_array_new_length@std@@QAE@ABV01@@Z
_TEXT	SEGMENT
___that$ = 8						; size = 4
??0bad_array_new_length@std@@QAE@ABV01@@Z PROC		; std::bad_array_new_length::bad_array_new_length, COMDAT
; _this$ = ecx
  00000	55		 push	 ebp
  00001	8b ec		 mov	 ebp, esp

; 72   :     {

  00003	56		 push	 esi
  00004	8b f1		 mov	 esi, ecx
  00006	0f 57 c0	 xorps	 xmm0, xmm0

; 71   :         : _Data()

  00009	8d 46 04	 lea	 eax, DWORD PTR [esi+4]

; 73   :         __std_exception_copy(&_Other._Data, &_Data);

  0000c	50		 push	 eax
  0000d	c7 06 00 00 00
	00		 mov	 DWORD PTR [esi], OFFSET ??_7exception@std@@6B@
  00013	66 0f d6 00	 movq	 QWORD PTR [eax], xmm0
  00017	8b 45 08	 mov	 eax, DWORD PTR ___that$[ebp]
  0001a	83 c0 04	 add	 eax, 4
  0001d	50		 push	 eax
  0001e	e8 00 00 00 00	 call	 ___std_exception_copy
  00023	83 c4 08	 add	 esp, 8
  00026	c7 06 00 00 00
	00		 mov	 DWORD PTR [esi], OFFSET ??_7bad_array_new_length@std@@6B@
  0002c	8b c6		 mov	 eax, esi
  0002e	5e		 pop	 esi
  0002f	5d		 pop	 ebp
  00030	c2 04 00	 ret	 4
??0bad_array_new_length@std@@QAE@ABV01@@Z ENDP		; std::bad_array_new_length::bad_array_new_length
_TEXT	ENDS
; Function compile flags: /Ogtp
; File C:\Program Files (x86)\Microsoft Visual Studio\2019\Community\VC\Tools\MSVC\14.28.29333\include\vcruntime_exception.h
;	COMDAT ??1bad_array_new_length@std@@UAE@XZ
_TEXT	SEGMENT
??1bad_array_new_length@std@@UAE@XZ PROC		; std::bad_array_new_length::~bad_array_new_length, COMDAT
; _this$ = ecx

; 90   :         __std_exception_destroy(&_Data);

  00000	8d 41 04	 lea	 eax, DWORD PTR [ecx+4]
  00003	c7 01 00 00 00
	00		 mov	 DWORD PTR [ecx], OFFSET ??_7exception@std@@6B@
  00009	50		 push	 eax
  0000a	e8 00 00 00 00	 call	 ___std_exception_destroy
  0000f	59		 pop	 ecx
  00010	c3		 ret	 0
??1bad_array_new_length@std@@UAE@XZ ENDP		; std::bad_array_new_length::~bad_array_new_length
_TEXT	ENDS
; Function compile flags: /Ogtp
; File C:\Program Files (x86)\Microsoft Visual Studio\2019\Community\VC\Tools\MSVC\14.28.29333\include\vcruntime_exception.h
;	COMDAT ??0bad_array_new_length@std@@QAE@XZ
_TEXT	SEGMENT
??0bad_array_new_length@std@@QAE@XZ PROC		; std::bad_array_new_length::bad_array_new_length, COMDAT
; _this$ = ecx

; 141  :     {

  00000	0f 57 c0	 xorps	 xmm0, xmm0

; 142  :     }

  00003	8b c1		 mov	 eax, ecx

; 65   :         : _Data()

  00005	66 0f d6 41 04	 movq	 QWORD PTR [ecx+4], xmm0

; 66   :     {
; 67   :         _Data._What = _Message;

  0000a	c7 41 04 00 00
	00 00		 mov	 DWORD PTR [ecx+4], OFFSET ??_C@_0BF@KINCDENJ@bad?5array?5new?5length@

; 141  :     {

  00011	c7 01 00 00 00
	00		 mov	 DWORD PTR [ecx], OFFSET ??_7bad_array_new_length@std@@6B@

; 142  :     }

  00017	c3		 ret	 0
??0bad_array_new_length@std@@QAE@XZ ENDP		; std::bad_array_new_length::bad_array_new_length
_TEXT	ENDS
; Function compile flags: /Ogtp
; File C:\Program Files (x86)\Microsoft Visual Studio\2019\Community\VC\Tools\MSVC\14.28.29333\include\vcruntime_exception.h
;	COMDAT ??_Gbad_alloc@std@@UAEPAXI@Z
_TEXT	SEGMENT
___flags$ = 8						; size = 4
??_Gbad_alloc@std@@UAEPAXI@Z PROC			; std::bad_alloc::`scalar deleting destructor', COMDAT
; _this$ = ecx
  00000	55		 push	 ebp
  00001	8b ec		 mov	 ebp, esp

; 89   :     {

  00003	56		 push	 esi
  00004	8b f1		 mov	 esi, ecx

; 90   :         __std_exception_destroy(&_Data);

  00006	8d 46 04	 lea	 eax, DWORD PTR [esi+4]
  00009	c7 06 00 00 00
	00		 mov	 DWORD PTR [esi], OFFSET ??_7exception@std@@6B@
  0000f	50		 push	 eax
  00010	e8 00 00 00 00	 call	 ___std_exception_destroy
  00015	83 c4 04	 add	 esp, 4
  00018	f6 45 08 01	 test	 BYTE PTR ___flags$[ebp], 1
  0001c	74 0b		 je	 SHORT $LN9@scalar
  0001e	6a 0c		 push	 12			; 0000000cH
  00020	56		 push	 esi
  00021	e8 00 00 00 00	 call	 ??3@YAXPAXI@Z		; operator delete
  00026	83 c4 08	 add	 esp, 8
$LN9@scalar:
  00029	8b c6		 mov	 eax, esi
  0002b	5e		 pop	 esi
  0002c	5d		 pop	 ebp
  0002d	c2 04 00	 ret	 4
??_Gbad_alloc@std@@UAEPAXI@Z ENDP			; std::bad_alloc::`scalar deleting destructor'
_TEXT	ENDS
; Function compile flags: /Ogtp
; File C:\Program Files (x86)\Microsoft Visual Studio\2019\Community\VC\Tools\MSVC\14.28.29333\include\vcruntime_exception.h
;	COMDAT ??0bad_alloc@std@@QAE@ABV01@@Z
_TEXT	SEGMENT
___that$ = 8						; size = 4
??0bad_alloc@std@@QAE@ABV01@@Z PROC			; std::bad_alloc::bad_alloc, COMDAT
; _this$ = ecx
  00000	55		 push	 ebp
  00001	8b ec		 mov	 ebp, esp

; 72   :     {

  00003	56		 push	 esi
  00004	8b f1		 mov	 esi, ecx
  00006	0f 57 c0	 xorps	 xmm0, xmm0

; 71   :         : _Data()

  00009	8d 46 04	 lea	 eax, DWORD PTR [esi+4]

; 73   :         __std_exception_copy(&_Other._Data, &_Data);

  0000c	50		 push	 eax
  0000d	c7 06 00 00 00
	00		 mov	 DWORD PTR [esi], OFFSET ??_7exception@std@@6B@
  00013	66 0f d6 00	 movq	 QWORD PTR [eax], xmm0
  00017	8b 45 08	 mov	 eax, DWORD PTR ___that$[ebp]
  0001a	83 c0 04	 add	 eax, 4
  0001d	50		 push	 eax
  0001e	e8 00 00 00 00	 call	 ___std_exception_copy
  00023	83 c4 08	 add	 esp, 8
  00026	c7 06 00 00 00
	00		 mov	 DWORD PTR [esi], OFFSET ??_7bad_alloc@std@@6B@
  0002c	8b c6		 mov	 eax, esi
  0002e	5e		 pop	 esi
  0002f	5d		 pop	 ebp
  00030	c2 04 00	 ret	 4
??0bad_alloc@std@@QAE@ABV01@@Z ENDP			; std::bad_alloc::bad_alloc
_TEXT	ENDS
; Function compile flags: /Ogtp
; File C:\Program Files (x86)\Microsoft Visual Studio\2019\Community\VC\Tools\MSVC\14.28.29333\include\vcruntime_exception.h
;	COMDAT ??_Gexception@std@@UAEPAXI@Z
_TEXT	SEGMENT
___flags$ = 8						; size = 4
??_Gexception@std@@UAEPAXI@Z PROC			; std::exception::`scalar deleting destructor', COMDAT
; _this$ = ecx
  00000	55		 push	 ebp
  00001	8b ec		 mov	 ebp, esp

; 89   :     {

  00003	56		 push	 esi
  00004	8b f1		 mov	 esi, ecx

; 90   :         __std_exception_destroy(&_Data);

  00006	8d 46 04	 lea	 eax, DWORD PTR [esi+4]
  00009	c7 06 00 00 00
	00		 mov	 DWORD PTR [esi], OFFSET ??_7exception@std@@6B@
  0000f	50		 push	 eax
  00010	e8 00 00 00 00	 call	 ___std_exception_destroy
  00015	83 c4 04	 add	 esp, 4
  00018	f6 45 08 01	 test	 BYTE PTR ___flags$[ebp], 1
  0001c	74 0b		 je	 SHORT $LN6@scalar
  0001e	6a 0c		 push	 12			; 0000000cH
  00020	56		 push	 esi
  00021	e8 00 00 00 00	 call	 ??3@YAXPAXI@Z		; operator delete
  00026	83 c4 08	 add	 esp, 8
$LN6@scalar:
  00029	8b c6		 mov	 eax, esi
  0002b	5e		 pop	 esi
  0002c	5d		 pop	 ebp
  0002d	c2 04 00	 ret	 4
??_Gexception@std@@UAEPAXI@Z ENDP			; std::exception::`scalar deleting destructor'
_TEXT	ENDS
; Function compile flags: /Ogtp
; File C:\Program Files (x86)\Microsoft Visual Studio\2019\Community\VC\Tools\MSVC\14.28.29333\include\vcruntime_exception.h
;	COMDAT ?what@exception@std@@UBEPBDXZ
_TEXT	SEGMENT
?what@exception@std@@UBEPBDXZ PROC			; std::exception::what, COMDAT
; _this$ = ecx

; 95   :         return _Data._What ? _Data._What : "Unknown exception";

  00000	8b 49 04	 mov	 ecx, DWORD PTR [ecx+4]
  00003	b8 00 00 00 00	 mov	 eax, OFFSET ??_C@_0BC@EOODALEL@Unknown?5exception@
  00008	85 c9		 test	 ecx, ecx
  0000a	0f 45 c1	 cmovne	 eax, ecx

; 96   :     }

  0000d	c3		 ret	 0
?what@exception@std@@UBEPBDXZ ENDP			; std::exception::what
_TEXT	ENDS
; Function compile flags: /Ogtp
; File C:\Program Files (x86)\Microsoft Visual Studio\2019\Community\VC\Tools\MSVC\14.28.29333\include\vcruntime_exception.h
;	COMDAT ??1exception@std@@UAE@XZ
_TEXT	SEGMENT
??1exception@std@@UAE@XZ PROC				; std::exception::~exception, COMDAT
; _this$ = ecx

; 90   :         __std_exception_destroy(&_Data);

  00000	8d 41 04	 lea	 eax, DWORD PTR [ecx+4]
  00003	c7 01 00 00 00
	00		 mov	 DWORD PTR [ecx], OFFSET ??_7exception@std@@6B@
  00009	50		 push	 eax
  0000a	e8 00 00 00 00	 call	 ___std_exception_destroy
  0000f	59		 pop	 ecx

; 91   :     }

  00010	c3		 ret	 0
??1exception@std@@UAE@XZ ENDP				; std::exception::~exception
_TEXT	ENDS
; Function compile flags: /Ogtp
; File C:\Program Files (x86)\Microsoft Visual Studio\2019\Community\VC\Tools\MSVC\14.28.29333\include\vcruntime_exception.h
;	COMDAT ??0exception@std@@QAE@ABV01@@Z
_TEXT	SEGMENT
__Other$ = 8						; size = 4
??0exception@std@@QAE@ABV01@@Z PROC			; std::exception::exception, COMDAT
; _this$ = ecx

; 72   :     {

  00000	55		 push	 ebp
  00001	8b ec		 mov	 ebp, esp
  00003	56		 push	 esi
  00004	8b f1		 mov	 esi, ecx
  00006	0f 57 c0	 xorps	 xmm0, xmm0
  00009	8d 46 04	 lea	 eax, DWORD PTR [esi+4]

; 73   :         __std_exception_copy(&_Other._Data, &_Data);

  0000c	50		 push	 eax
  0000d	c7 06 00 00 00
	00		 mov	 DWORD PTR [esi], OFFSET ??_7exception@std@@6B@
  00013	66 0f d6 00	 movq	 QWORD PTR [eax], xmm0
  00017	8b 45 08	 mov	 eax, DWORD PTR __Other$[ebp]
  0001a	83 c0 04	 add	 eax, 4
  0001d	50		 push	 eax
  0001e	e8 00 00 00 00	 call	 ___std_exception_copy
  00023	83 c4 08	 add	 esp, 8

; 74   :     }

  00026	8b c6		 mov	 eax, esi
  00028	5e		 pop	 esi
  00029	5d		 pop	 ebp
  0002a	c2 04 00	 ret	 4
??0exception@std@@QAE@ABV01@@Z ENDP			; std::exception::exception
_TEXT	ENDS
; Function compile flags: /Ogtp
; File C:\Program Files (x86)\Windows Kits\10\Include\10.0.18362.0\ucrt\stdio.h
;	COMDAT __snprintf
_TEXT	SEGMENT
__Buffer$ = 8						; size = 4
__BufferCount$ = 12					; size = 4
__Format$ = 16						; size = 4
__snprintf PROC						; COMDAT

; 1969 :     {

  00000	55		 push	 ebp
  00001	8b ec		 mov	 ebp, esp

; 1390 :         int const _Result = __stdio_common_vsprintf(

  00003	8d 45 14	 lea	 eax, DWORD PTR __Format$[ebp+4]
  00006	50		 push	 eax
  00007	6a 00		 push	 0
  00009	ff 75 10	 push	 DWORD PTR __Format$[ebp]
  0000c	ff 75 0c	 push	 DWORD PTR __BufferCount$[ebp]
  0000f	ff 75 08	 push	 DWORD PTR __Buffer$[ebp]
  00012	e8 00 00 00 00	 call	 ___local_stdio_printf_options
  00017	8b 08		 mov	 ecx, DWORD PTR [eax]
  00019	ff 70 04	 push	 DWORD PTR [eax+4]
  0001c	83 c9 01	 or	 ecx, 1
  0001f	51		 push	 ecx
  00020	e8 00 00 00 00	 call	 ___stdio_common_vsprintf

; 1391 :             _CRT_INTERNAL_LOCAL_PRINTF_OPTIONS | _CRT_INTERNAL_PRINTF_LEGACY_VSPRINTF_NULL_TERMINATION,
; 1392 :             _Buffer, _BufferCount, _Format, _Locale, _ArgList);
; 1393 : 
; 1394 :         return _Result < 0 ? -1 : _Result;

  00025	83 c9 ff	 or	 ecx, -1
  00028	83 c4 1c	 add	 esp, 28			; 0000001cH
  0002b	85 c0		 test	 eax, eax
  0002d	0f 48 c1	 cmovs	 eax, ecx

; 1970 :         int _Result;
; 1971 :         va_list _ArgList;
; 1972 :         __crt_va_start(_ArgList, _Format);
; 1973 :     #pragma warning(suppress:28719)    // 28719
; 1974 :         _Result = _vsnprintf(_Buffer, _BufferCount, _Format, _ArgList);
; 1975 :         __crt_va_end(_ArgList);
; 1976 :         return _Result;
; 1977 :     }

  00030	5d		 pop	 ebp
  00031	c3		 ret	 0
__snprintf ENDP
_TEXT	ENDS
; Function compile flags: /Ogtp
; File C:\Program Files (x86)\Windows Kits\10\Include\10.0.18362.0\ucrt\corecrt_stdio_config.h
;	COMDAT ___local_stdio_printf_options
_TEXT	SEGMENT
___local_stdio_printf_options PROC			; COMDAT

; 87   :         static unsigned __int64 _OptionsStorage;
; 88   :         return &_OptionsStorage;

  00000	b8 00 00 00 00	 mov	 eax, OFFSET ?_OptionsStorage@?1??__local_stdio_printf_options@@9@4_KA ; `__local_stdio_printf_options'::`2'::_OptionsStorage

; 89   :     }

  00005	c3		 ret	 0
___local_stdio_printf_options ENDP
_TEXT	ENDS
; Function compile flags: /Ogtp
;	COMDAT ??_H@YGXPAXIIP6EPAX0@Z@Z
_TEXT	SEGMENT
___t$ = 8						; size = 4
___s$ = 12						; size = 4
___n$ = 16						; size = 4
___f$ = 20						; size = 4
??_H@YGXPAXIIP6EPAX0@Z@Z PROC				; `vector constructor iterator', COMDAT
  00000	55		 push	 ebp
  00001	8b ec		 mov	 ebp, esp
  00003	56		 push	 esi
  00004	8b 75 10	 mov	 esi, DWORD PTR ___n$[ebp]
  00007	85 f6		 test	 esi, esi
  00009	74 16		 je	 SHORT $LN6@vector
  0000b	53		 push	 ebx
  0000c	8b 5d 14	 mov	 ebx, DWORD PTR ___f$[ebp]
  0000f	57		 push	 edi
  00010	8b 7d 08	 mov	 edi, DWORD PTR ___t$[ebp]
$LL2@vector:
  00013	8b cf		 mov	 ecx, edi
  00015	ff d3		 call	 ebx
  00017	03 7d 0c	 add	 edi, DWORD PTR ___s$[ebp]
  0001a	83 ee 01	 sub	 esi, 1
  0001d	75 f4		 jne	 SHORT $LL2@vector
  0001f	5f		 pop	 edi
  00020	5b		 pop	 ebx
$LN6@vector:
  00021	5e		 pop	 esi
  00022	5d		 pop	 ebp
  00023	c2 10 00	 ret	 16			; 00000010H
??_H@YGXPAXIIP6EPAX0@Z@Z ENDP				; `vector constructor iterator'
_TEXT	ENDS
END
