; Listing generated by Microsoft (R) Optimizing Compiler Version 19.28.29335.0 

	TITLE	D:\Metin2 Server Files\mainline\SRC_2014\Metin2Client\UserInterface\PythonEventManager.cpp
	.686P
	.XMM
	include listing.inc
	.model	flat

INCLUDELIB LIBCMT
INCLUDELIB OLDNAMES

CONST	SEGMENT
?piecewise_construct@std@@3Upiecewise_construct_t@1@B	ORG $+1 ; std::piecewise_construct
CONST	ENDS
PUBLIC	??_H@YGXPAXIIP6EPAX0@Z@Z			; `vector constructor iterator'
PUBLIC	??0exception@std@@QAE@ABV01@@Z			; std::exception::exception
PUBLIC	??1exception@std@@UAE@XZ			; std::exception::~exception
PUBLIC	?what@exception@std@@UBEPBDXZ			; std::exception::what
PUBLIC	??_Gexception@std@@UAEPAXI@Z			; std::exception::`scalar deleting destructor'
PUBLIC	??0bad_alloc@std@@QAE@ABV01@@Z			; std::bad_alloc::bad_alloc
PUBLIC	??_Gbad_alloc@std@@UAEPAXI@Z			; std::bad_alloc::`scalar deleting destructor'
PUBLIC	??0bad_array_new_length@std@@QAE@XZ		; std::bad_array_new_length::bad_array_new_length
PUBLIC	??1bad_array_new_length@std@@UAE@XZ		; std::bad_array_new_length::~bad_array_new_length
PUBLIC	??0bad_array_new_length@std@@QAE@ABV01@@Z	; std::bad_array_new_length::bad_array_new_length
PUBLIC	??_Gbad_array_new_length@std@@UAEPAXI@Z		; std::bad_array_new_length::`scalar deleting destructor'
PUBLIC	?_Throw_bad_array_new_length@std@@YAXXZ		; std::_Throw_bad_array_new_length
PUBLIC	?_Xlen_string@std@@YAXXZ			; std::_Xlen_string
PUBLIC	??0?$basic_string@DU?$char_traits@D@std@@V?$allocator@D@2@@std@@QAE@QBD@Z ; std::basic_string<char,std::char_traits<char>,std::allocator<char> >::basic_string<char,std::char_traits<char>,std::allocator<char> >
PUBLIC	??1?$basic_string@DU?$char_traits@D@std@@V?$allocator@D@2@@std@@QAE@XZ ; std::basic_string<char,std::char_traits<char>,std::allocator<char> >::~basic_string<char,std::char_traits<char>,std::allocator<char> >
PUBLIC	?append@?$basic_string@DU?$char_traits@D@std@@V?$allocator@D@2@@std@@QAEAAV12@ABV12@@Z ; std::basic_string<char,std::char_traits<char>,std::allocator<char> >::append
PUBLIC	?append@?$basic_string@DU?$char_traits@D@std@@V?$allocator@D@2@@std@@QAEAAV12@QBDI@Z ; std::basic_string<char,std::char_traits<char>,std::allocator<char> >::append
PUBLIC	?append@?$basic_string@DU?$char_traits@D@std@@V?$allocator@D@2@@std@@QAEAAV12@QBD@Z ; std::basic_string<char,std::char_traits<char>,std::allocator<char> >::append
PUBLIC	?assign@?$basic_string@DU?$char_traits@D@std@@V?$allocator@D@2@@std@@QAEAAV12@QBDI@Z ; std::basic_string<char,std::char_traits<char>,std::allocator<char> >::assign
PUBLIC	?assign@?$basic_string@DU?$char_traits@D@std@@V?$allocator@D@2@@std@@QAEAAV12@QBD@Z ; std::basic_string<char,std::char_traits<char>,std::allocator<char> >::assign
PUBLIC	?_Throw_tree_length_error@std@@YAXXZ		; std::_Throw_tree_length_error
PUBLIC	??$_Traits_compare@U?$char_traits@D@std@@@std@@YAHQBDI0I@Z ; std::_Traits_compare<std::char_traits<char> >
PUBLIC	??$_Destroy_in_place@PAD@std@@YAXAAPAD@Z	; std::_Destroy_in_place<char *>
PUBLIC	??$_Construct_in_place@PADABQAD@std@@YAXAAPADABQAD@Z ; std::_Construct_in_place<char *,char * const &>
PUBLIC	??$_Deallocate@$07$0A@@std@@YAXPAXI@Z		; std::_Deallocate<8,0>
PUBLIC	??$_Allocate@$07U_Default_allocate_traits@std@@$0A@@std@@YAPAXI@Z ; std::_Allocate<8,std::_Default_allocate_traits,0>
PUBLIC	??$_Allocate_manually_vector_aligned@U_Default_allocate_traits@std@@@std@@YAPAXI@Z ; std::_Allocate_manually_vector_aligned<std::_Default_allocate_traits>
PUBLIC	??1?$list@USArgumet@script@@V?$allocator@USArgumet@script@@@std@@@std@@QAE@XZ ; std::list<script::SArgumet,std::allocator<script::SArgumet> >::~list<script::SArgumet,std::allocator<script::SArgumet> >
PUBLIC	??0SCmd@script@@QAE@XZ				; script::SCmd::SCmd
PUBLIC	??1SCmd@script@@QAE@XZ				; script::SCmd::~SCmd
PUBLIC	??1?$CSingleton@VCPythonEventManager@@@@UAE@XZ	; CSingleton<CPythonEventManager>::~CSingleton<CPythonEventManager>
PUBLIC	??_G?$CSingleton@VCPythonEventManager@@@@UAEPAXI@Z ; CSingleton<CPythonEventManager>::`scalar deleting destructor'
PUBLIC	?_Insert_node@?$_Tree_val@U?$_Tree_simple_types@U?$pair@$$CBV?$basic_string@DU?$char_traits@D@std@@V?$allocator@D@2@@std@@H@std@@@std@@@std@@QAEPAU?$_Tree_node@U?$pair@$$CBV?$basic_string@DU?$char_traits@D@std@@V?$allocator@D@2@@std@@H@std@@PAX@2@U?$_Tree_id@PAU?$_Tree_node@U?$pair@$$CBV?$basic_string@DU?$char_traits@D@std@@V?$allocator@D@2@@std@@H@std@@PAX@std@@@2@QAU32@@Z ; std::_Tree_val<std::_Tree_simple_types<std::pair<std::basic_string<char,std::char_traits<char>,std::allocator<char> > const ,int> > >::_Insert_node
PUBLIC	??A?$map@V?$basic_string@DU?$char_traits@D@std@@V?$allocator@D@2@@std@@HU?$less@V?$basic_string@DU?$char_traits@D@std@@V?$allocator@D@2@@std@@@2@V?$allocator@U?$pair@$$CBV?$basic_string@DU?$char_traits@D@std@@V?$allocator@D@2@@std@@H@std@@@2@@std@@QAEAAH$$QAV?$basic_string@DU?$char_traits@D@std@@V?$allocator@D@2@@1@@Z ; std::map<std::basic_string<char,std::char_traits<char>,std::allocator<char> >,int,std::less<std::basic_string<char,std::char_traits<char>,std::allocator<char> > >,std::allocator<std::pair<std::basic_string<char,std::char_traits<char>,std::allocator<char> > const ,int> > >::operator[]
PUBLIC	??1?$map@V?$basic_string@DU?$char_traits@D@std@@V?$allocator@D@2@@std@@HU?$less@V?$basic_string@DU?$char_traits@D@std@@V?$allocator@D@2@@std@@@2@V?$allocator@U?$pair@$$CBV?$basic_string@DU?$char_traits@D@std@@V?$allocator@D@2@@std@@H@std@@@2@@std@@QAE@XZ ; std::map<std::basic_string<char,std::char_traits<char>,std::allocator<char> >,int,std::less<std::basic_string<char,std::char_traits<char>,std::allocator<char> > >,std::allocator<std::pair<std::basic_string<char,std::char_traits<char>,std::allocator<char> > const ,int> > >::~map<std::basic_string<char,std::char_traits<char>,std::allocator<char> >,int,std::less<std::basic_string<char,std::char_traits<char>,std::allocator<char> > >,std::allocator<std::pair<std::basic_string<char,std::char_traits<char>,std::allocator<char> > const ,int> > >
PUBLIC	??1?$list@USTextLine@CPythonEventManager@@V?$allocator@USTextLine@CPythonEventManager@@@std@@@std@@QAE@XZ ; std::list<CPythonEventManager::STextLine,std::allocator<CPythonEventManager::STextLine> >::~list<CPythonEventManager::STextLine,std::allocator<CPythonEventManager::STextLine> >
PUBLIC	??1SEventSet@CPythonEventManager@@UAE@XZ	; CPythonEventManager::SEventSet::~SEventSet
PUBLIC	??_GSEventSet@CPythonEventManager@@UAEPAXI@Z	; CPythonEventManager::SEventSet::`scalar deleting destructor'
PUBLIC	??0CPythonEventManager@@QAE@XZ			; CPythonEventManager::CPythonEventManager
PUBLIC	??1CPythonEventManager@@UAE@XZ			; CPythonEventManager::~CPythonEventManager
PUBLIC	?Destroy@CPythonEventManager@@QAEXXZ		; CPythonEventManager::Destroy
PUBLIC	?RegisterEventSet@CPythonEventManager@@QAEHPBD@Z ; CPythonEventManager::RegisterEventSet
PUBLIC	?RegisterEventSetFromString@CPythonEventManager@@QAEHABV?$basic_string@DU?$char_traits@D@std@@V?$allocator@D@2@@std@@@Z ; CPythonEventManager::RegisterEventSetFromString
PUBLIC	?ClearEventSeti@CPythonEventManager@@QAEXH@Z	; CPythonEventManager::ClearEventSeti
PUBLIC	?__ClearEventSetp@CPythonEventManager@@QAEXPAUSEventSet@1@@Z ; CPythonEventManager::__ClearEventSetp
PUBLIC	?SetEventHandler@CPythonEventManager@@QAEXHPAU_object@@@Z ; CPythonEventManager::SetEventHandler
PUBLIC	?SetRestrictedCount@CPythonEventManager@@QAEXHH@Z ; CPythonEventManager::SetRestrictedCount
PUBLIC	?GetEventSetLocalYPosition@CPythonEventManager@@QAEHH@Z ; CPythonEventManager::GetEventSetLocalYPosition
PUBLIC	?AddEventSetLocalYPosition@CPythonEventManager@@QAEXHH@Z ; CPythonEventManager::AddEventSetLocalYPosition
PUBLIC	?InsertText@CPythonEventManager@@QAEXHPBDH@Z	; CPythonEventManager::InsertText
PUBLIC	?UpdateEventSet@CPythonEventManager@@QAEXHHH@Z	; CPythonEventManager::UpdateEventSet
PUBLIC	?RenderEventSet@CPythonEventManager@@QAEXH@Z	; CPythonEventManager::RenderEventSet
PUBLIC	?SetEventSetWidth@CPythonEventManager@@QAEXHH@Z	; CPythonEventManager::SetEventSetWidth
PUBLIC	?Skip@CPythonEventManager@@QAEXH@Z		; CPythonEventManager::Skip
PUBLIC	?IsWait@CPythonEventManager@@QAE_NH@Z		; CPythonEventManager::IsWait
PUBLIC	?EndEventProcess@CPythonEventManager@@QAEXH@Z	; CPythonEventManager::EndEventProcess
PUBLIC	?SelectAnswer@CPythonEventManager@@QAEXHH@Z	; CPythonEventManager::SelectAnswer
PUBLIC	?SetVisibleStartLine@CPythonEventManager@@QAEXHH@Z ; CPythonEventManager::SetVisibleStartLine
PUBLIC	?GetVisibleStartLine@CPythonEventManager@@QAEHH@Z ; CPythonEventManager::GetVisibleStartLine
PUBLIC	?GetLineCount@CPythonEventManager@@QAEHH@Z	; CPythonEventManager::GetLineCount
PUBLIC	?SetVisibleLineCount@CPythonEventManager@@QAEXHH@Z ; CPythonEventManager::SetVisibleLineCount
PUBLIC	?SetInterfaceWindow@CPythonEventManager@@QAEXPAU_object@@@Z ; CPythonEventManager::SetInterfaceWindow
PUBLIC	?SetLeftTimeString@CPythonEventManager@@QAEXPBD@Z ; CPythonEventManager::SetLeftTimeString
PUBLIC	?__InitEventSet@CPythonEventManager@@IAEXAAUSEventSet@1@@Z ; CPythonEventManager::__InitEventSet
PUBLIC	?__InsertLine@CPythonEventManager@@IAEXAAUSEventSet@1@HH@Z ; CPythonEventManager::__InsertLine
PUBLIC	?__AddSpace@CPythonEventManager@@IAEXAAUSEventSet@1@H@Z ; CPythonEventManager::__AddSpace
PUBLIC	?GetEmptyEventSetSlot@CPythonEventManager@@IAEKXZ ; CPythonEventManager::GetEmptyEventSetSlot
PUBLIC	?CheckEventSetIndex@CPythonEventManager@@IAE_NH@Z ; CPythonEventManager::CheckEventSetIndex
PUBLIC	?ProcessEventSet@CPythonEventManager@@IAEXPAUSEventSet@1@@Z ; CPythonEventManager::ProcessEventSet
PUBLIC	?ClearLine@CPythonEventManager@@IAEXPAUSEventSet@1@@Z ; CPythonEventManager::ClearLine
PUBLIC	?RefreshLinePosition@CPythonEventManager@@IAEXPAUSEventSet@1@@Z ; CPythonEventManager::RefreshLinePosition
PUBLIC	?GetScriptEventIndex@CPythonEventManager@@IAE_NPBDPAH1@Z ; CPythonEventManager::GetScriptEventIndex
PUBLIC	?MakeQuestion@CPythonEventManager@@IAEXPAUSEventSet@1@AAV?$list@USArgumet@script@@V?$allocator@USArgumet@script@@@std@@@std@@@Z ; CPythonEventManager::MakeQuestion
PUBLIC	?MakeNextButton@CPythonEventManager@@IAEXPAUSEventSet@1@H@Z ; CPythonEventManager::MakeNextButton
PUBLIC	??1?$vector@PAUSEventSet@CPythonEventManager@@V?$allocator@PAUSEventSet@CPythonEventManager@@@std@@@std@@QAE@XZ ; std::vector<CPythonEventManager::SEventSet *,std::allocator<CPythonEventManager::SEventSet *> >::~vector<CPythonEventManager::SEventSet *,std::allocator<CPythonEventManager::SEventSet *> >
PUBLIC	?_Xlength@?$vector@PAUSEventSet@CPythonEventManager@@V?$allocator@PAUSEventSet@CPythonEventManager@@@std@@@std@@CAXXZ ; std::vector<CPythonEventManager::SEventSet *,std::allocator<CPythonEventManager::SEventSet *> >::_Xlength
PUBLIC	??1?$CDynamicPool@USEventSet@CPythonEventManager@@@@UAE@XZ ; CDynamicPool<CPythonEventManager::SEventSet>::~CDynamicPool<CPythonEventManager::SEventSet>
PUBLIC	?Alloc@?$CDynamicPool@USEventSet@CPythonEventManager@@@@QAEPAUSEventSet@CPythonEventManager@@XZ ; CDynamicPool<CPythonEventManager::SEventSet>::Alloc
PUBLIC	?Delete@?$CDynamicPool@USEventSet@CPythonEventManager@@@@KAXPAUSEventSet@CPythonEventManager@@@Z ; CDynamicPool<CPythonEventManager::SEventSet>::Delete
PUBLIC	??_G?$CDynamicPool@USEventSet@CPythonEventManager@@@@UAEPAXI@Z ; CDynamicPool<CPythonEventManager::SEventSet>::`scalar deleting destructor'
PUBLIC	??1?$CDynamicPool@VCGraphicTextInstance@@@@UAE@XZ ; CDynamicPool<CGraphicTextInstance>::~CDynamicPool<CGraphicTextInstance>
PUBLIC	?Delete@?$CDynamicPool@VCGraphicTextInstance@@@@KAXPAVCGraphicTextInstance@@@Z ; CDynamicPool<CGraphicTextInstance>::Delete
PUBLIC	?_Xlength@?$vector@PAVCGraphicTextInstance@@V?$allocator@PAVCGraphicTextInstance@@@std@@@std@@CAXXZ ; std::vector<CGraphicTextInstance *,std::allocator<CGraphicTextInstance *> >::_Xlength
PUBLIC	??_G?$CDynamicPool@VCGraphicTextInstance@@@@UAEPAXI@Z ; CDynamicPool<CGraphicTextInstance>::`scalar deleting destructor'
PUBLIC	??_GCPythonEventManager@@UAEPAXI@Z		; CPythonEventManager::`scalar deleting destructor'
PUBLIC	??0SCameraSetting@IAbstractApplication@@QAE@XZ	; IAbstractApplication::SCameraSetting::SCameraSetting
PUBLIC	?ShowArgument@@YAXAAV?$list@USArgumet@script@@V?$allocator@USArgumet@script@@@std@@@std@@@Z ; ShowArgument
PUBLIC	?GetArgumentString@@YAABV?$basic_string@DU?$char_traits@D@std@@V?$allocator@D@2@@std@@PBDAAV?$list@USArgumet@script@@V?$allocator@USArgumet@script@@@std@@@2@@Z ; GetArgumentString
PUBLIC	?GetArgument@@YAPBDPBDAAV?$list@USArgumet@script@@V?$allocator@USArgumet@script@@@std@@@std@@@Z ; GetArgument
PUBLIC	?GetCameraSettingFromArgList@@YAXAAV?$list@USArgumet@script@@V?$allocator@USArgumet@script@@@std@@@std@@PAUSCameraSetting@IAbstractApplication@@@Z ; GetCameraSettingFromArgList
PUBLIC	??$_Emplace_reallocate@PAUSEventSet@CPythonEventManager@@@?$vector@PAUSEventSet@CPythonEventManager@@V?$allocator@PAUSEventSet@CPythonEventManager@@@std@@@std@@QAEPAPAUSEventSet@CPythonEventManager@@QAPAU23@$$QAPAU23@@Z ; std::vector<CPythonEventManager::SEventSet *,std::allocator<CPythonEventManager::SEventSet *> >::_Emplace_reallocate<CPythonEventManager::SEventSet *>
PUBLIC	??$_Emplace_reallocate@ABQAVCGraphicTextInstance@@@?$vector@PAVCGraphicTextInstance@@V?$allocator@PAVCGraphicTextInstance@@@std@@@std@@QAEPAPAVCGraphicTextInstance@@QAPAV2@ABQAV2@@Z ; std::vector<CGraphicTextInstance *,std::allocator<CGraphicTextInstance *> >::_Emplace_reallocate<CGraphicTextInstance * const &>
PUBLIC	??$_Destroy_range@V?$allocator@PAUSEventSet@CPythonEventManager@@@std@@@std@@YAXPAPAUSEventSet@CPythonEventManager@@QAPAU12@AAV?$allocator@PAUSEventSet@CPythonEventManager@@@0@@Z ; std::_Destroy_range<std::allocator<CPythonEventManager::SEventSet *> >
PUBLIC	??$_Emplace_reallocate@ABQAUSEventSet@CPythonEventManager@@@?$vector@PAUSEventSet@CPythonEventManager@@V?$allocator@PAUSEventSet@CPythonEventManager@@@std@@@std@@QAEPAPAUSEventSet@CPythonEventManager@@QAPAU23@ABQAU23@@Z ; std::vector<CPythonEventManager::SEventSet *,std::allocator<CPythonEventManager::SEventSet *> >::_Emplace_reallocate<CPythonEventManager::SEventSet * const &>
PUBLIC	??$_Construct_in_place@PAU?$_List_node@USTextLine@CPythonEventManager@@PAX@std@@AAPAU12@@std@@YAXAAPAU?$_List_node@USTextLine@CPythonEventManager@@PAX@0@0@Z ; std::_Construct_in_place<std::_List_node<CPythonEventManager::STextLine,void *> *,std::_List_node<CPythonEventManager::STextLine,void *> * &>
PUBLIC	??$_Construct_in_place@PAU?$_List_node@USArgumet@script@@PAX@std@@AAPAU12@@std@@YAXAAPAU?$_List_node@USArgumet@script@@PAX@0@0@Z ; std::_Construct_in_place<std::_List_node<script::SArgumet,void *> *,std::_List_node<script::SArgumet,void *> * &>
PUBLIC	??$_Destroy_range@V?$allocator@PAVCGraphicTextInstance@@@std@@@std@@YAXPAPAVCGraphicTextInstance@@QAPAV1@AAV?$allocator@PAVCGraphicTextInstance@@@0@@Z ; std::_Destroy_range<std::allocator<CGraphicTextInstance *> >
PUBLIC	??1?$_Alloc_construct_ptr@V?$allocator@U?$_List_node@USTextLine@CPythonEventManager@@PAX@std@@@std@@@std@@QAE@XZ ; std::_Alloc_construct_ptr<std::allocator<std::_List_node<CPythonEventManager::STextLine,void *> > >::~_Alloc_construct_ptr<std::allocator<std::_List_node<CPythonEventManager::STextLine,void *> > >
PUBLIC	??$_Find_lower_bound@V?$basic_string@DU?$char_traits@D@std@@V?$allocator@D@2@@std@@@?$_Tree@V?$_Tmap_traits@V?$basic_string@DU?$char_traits@D@std@@V?$allocator@D@2@@std@@HU?$less@V?$basic_string@DU?$char_traits@D@std@@V?$allocator@D@2@@std@@@2@V?$allocator@U?$pair@$$CBV?$basic_string@DU?$char_traits@D@std@@V?$allocator@D@2@@std@@H@std@@@2@$0A@@std@@@std@@IBE?AU?$_Tree_find_result@PAU?$_Tree_node@U?$pair@$$CBV?$basic_string@DU?$char_traits@D@std@@V?$allocator@D@2@@std@@H@std@@PAX@std@@@1@ABV?$basic_string@DU?$char_traits@D@std@@V?$allocator@D@2@@1@@Z ; std::_Tree<std::_Tmap_traits<std::basic_string<char,std::char_traits<char>,std::allocator<char> >,int,std::less<std::basic_string<char,std::char_traits<char>,std::allocator<char> > >,std::allocator<std::pair<std::basic_string<char,std::char_traits<char>,std::allocator<char> > const ,int> >,0> >::_Find_lower_bound<std::basic_string<char,std::char_traits<char>,std::allocator<char> > >
PUBLIC	??1?$_Alloc_construct_ptr@V?$allocator@U?$_Tree_node@U?$pair@$$CBV?$basic_string@DU?$char_traits@D@std@@V?$allocator@D@2@@std@@H@std@@PAX@std@@@std@@@std@@QAE@XZ ; std::_Alloc_construct_ptr<std::allocator<std::_Tree_node<std::pair<std::basic_string<char,std::char_traits<char>,std::allocator<char> > const ,int>,void *> > >::~_Alloc_construct_ptr<std::allocator<std::_Tree_node<std::pair<std::basic_string<char,std::char_traits<char>,std::allocator<char> > const ,int>,void *> > >
PUBLIC	??$_Erase_tree@V?$allocator@U?$_Tree_node@U?$pair@$$CBV?$basic_string@DU?$char_traits@D@std@@V?$allocator@D@2@@std@@H@std@@PAX@std@@@std@@@?$_Tree_val@U?$_Tree_simple_types@U?$pair@$$CBV?$basic_string@DU?$char_traits@D@std@@V?$allocator@D@2@@std@@H@std@@@std@@@std@@QAEXAAV?$allocator@U?$_Tree_node@U?$pair@$$CBV?$basic_string@DU?$char_traits@D@std@@V?$allocator@D@2@@std@@H@std@@PAX@std@@@1@PAU?$_Tree_node@U?$pair@$$CBV?$basic_string@DU?$char_traits@D@std@@V?$allocator@D@2@@std@@H@std@@PAX@1@@Z ; std::_Tree_val<std::_Tree_simple_types<std::pair<std::basic_string<char,std::char_traits<char>,std::allocator<char> > const ,int> > >::_Erase_tree<std::allocator<std::_Tree_node<std::pair<std::basic_string<char,std::char_traits<char>,std::allocator<char> > const ,int>,void *> > >
PUBLIC	??$_Destroy_in_place@PAU?$_List_node@USTextLine@CPythonEventManager@@PAX@std@@@std@@YAXAAPAU?$_List_node@USTextLine@CPythonEventManager@@PAX@0@@Z ; std::_Destroy_in_place<std::_List_node<CPythonEventManager::STextLine,void *> *>
PUBLIC	??$_Destroy_in_place@PAU?$_List_node@USArgumet@script@@PAX@std@@@std@@YAXAAPAU?$_List_node@USArgumet@script@@PAX@0@@Z ; std::_Destroy_in_place<std::_List_node<script::SArgumet,void *> *>
PUBLIC	??$_Construct_in_place@PAU?$_Tree_node@U?$pair@$$CBV?$basic_string@DU?$char_traits@D@std@@V?$allocator@D@2@@std@@H@std@@PAX@std@@ABQAU12@@std@@YAXAAPAU?$_Tree_node@U?$pair@$$CBV?$basic_string@DU?$char_traits@D@std@@V?$allocator@D@2@@std@@H@std@@PAX@0@ABQAU10@@Z ; std::_Construct_in_place<std::_Tree_node<std::pair<std::basic_string<char,std::char_traits<char>,std::allocator<char> > const ,int>,void *> *,std::_Tree_node<std::pair<std::basic_string<char,std::char_traits<char>,std::allocator<char> > const ,int>,void *> * const &>
PUBLIC	??$_Destroy_in_place@PAU?$_Tree_node@U?$pair@$$CBV?$basic_string@DU?$char_traits@D@std@@V?$allocator@D@2@@std@@H@std@@PAX@std@@@std@@YAXAAPAU?$_Tree_node@U?$pair@$$CBV?$basic_string@DU?$char_traits@D@std@@V?$allocator@D@2@@std@@H@std@@PAX@0@@Z ; std::_Destroy_in_place<std::_Tree_node<std::pair<std::basic_string<char,std::char_traits<char>,std::allocator<char> > const ,int>,void *> *>
PUBLIC	??$_Construct_in_place@PAU?$_List_node@USTextLine@CPythonEventManager@@PAX@std@@ABQAU12@@std@@YAXAAPAU?$_List_node@USTextLine@CPythonEventManager@@PAX@0@ABQAU10@@Z ; std::_Construct_in_place<std::_List_node<CPythonEventManager::STextLine,void *> *,std::_List_node<CPythonEventManager::STextLine,void *> * const &>
PUBLIC	??$_Uninitialized_move@PAPAVCGraphicTextInstance@@V?$allocator@PAVCGraphicTextInstance@@@std@@@std@@YAPAPAVCGraphicTextInstance@@QAPAV1@0PAPAV1@AAV?$allocator@PAVCGraphicTextInstance@@@0@@Z ; std::_Uninitialized_move<CGraphicTextInstance * *,std::allocator<CGraphicTextInstance *> >
PUBLIC	??$_Uninitialized_move@PAPAUSEventSet@CPythonEventManager@@V?$allocator@PAUSEventSet@CPythonEventManager@@@std@@@std@@YAPAPAUSEventSet@CPythonEventManager@@QAPAU12@0PAPAU12@AAV?$allocator@PAUSEventSet@CPythonEventManager@@@0@@Z ; std::_Uninitialized_move<CPythonEventManager::SEventSet * *,std::allocator<CPythonEventManager::SEventSet *> >
PUBLIC	??$_Construct_in_place@PAU?$_Tree_node@U?$pair@$$CBV?$basic_string@DU?$char_traits@D@std@@V?$allocator@D@2@@std@@H@std@@PAX@std@@AAPAU12@@std@@YAXAAPAU?$_Tree_node@U?$pair@$$CBV?$basic_string@DU?$char_traits@D@std@@V?$allocator@D@2@@std@@H@std@@PAX@0@0@Z ; std::_Construct_in_place<std::_Tree_node<std::pair<std::basic_string<char,std::char_traits<char>,std::allocator<char> > const ,int>,void *> *,std::_Tree_node<std::pair<std::basic_string<char,std::char_traits<char>,std::allocator<char> > const ,int>,void *> * &>
PUBLIC	??$_Copy_memmove@PAPAVCGraphicTextInstance@@PAPAV1@@std@@YAPAPAVCGraphicTextInstance@@PAPAV1@00@Z ; std::_Copy_memmove<CGraphicTextInstance * *,CGraphicTextInstance * *>
PUBLIC	??$_Copy_memmove@PAPAUSEventSet@CPythonEventManager@@PAPAU12@@std@@YAPAPAUSEventSet@CPythonEventManager@@PAPAU12@00@Z ; std::_Copy_memmove<CPythonEventManager::SEventSet * *,CPythonEventManager::SEventSet * *>
PUBLIC	??$?MDU?$char_traits@D@std@@V?$allocator@D@1@@std@@YA_NABV?$basic_string@DU?$char_traits@D@std@@V?$allocator@D@2@@0@0@Z ; std::operator<<char,std::char_traits<char>,std::allocator<char> >
PUBLIC	??_7exception@std@@6B@				; std::exception::`vftable'
PUBLIC	??_C@_0BC@EOODALEL@Unknown?5exception@		; `string'
PUBLIC	??_7bad_alloc@std@@6B@				; std::bad_alloc::`vftable'
PUBLIC	??_7bad_array_new_length@std@@6B@		; std::bad_array_new_length::`vftable'
PUBLIC	??_C@_0BF@KINCDENJ@bad?5array?5new?5length@	; `string'
PUBLIC	__TI3?AVbad_array_new_length@std@@
PUBLIC	__CTA3?AVbad_array_new_length@std@@
PUBLIC	??_R0?AVbad_array_new_length@std@@@8		; std::bad_array_new_length `RTTI Type Descriptor'
PUBLIC	__CT??_R0?AVbad_array_new_length@std@@@8??0bad_array_new_length@std@@QAE@ABV01@@Z12
PUBLIC	??_R0?AVbad_alloc@std@@@8			; std::bad_alloc `RTTI Type Descriptor'
PUBLIC	__CT??_R0?AVbad_alloc@std@@@8??0bad_alloc@std@@QAE@ABV01@@Z12
PUBLIC	??_R0?AVexception@std@@@8			; std::exception `RTTI Type Descriptor'
PUBLIC	__CT??_R0?AVexception@std@@@8??0exception@std@@QAE@ABV01@@Z12
PUBLIC	??_C@_0BA@JFNIOLAK@string?5too?5long@		; `string'
PUBLIC	??_C@_0BB@GCADKGJO@map?1set?5too?5long@		; `string'
PUBLIC	??_C@_00CNPNBAHC@@				; `string'
PUBLIC	?ms_singleton@?$CSingleton@VCTimer@@@@0PAVCTimer@@A ; CSingleton<CTimer>::ms_singleton
PUBLIC	??_C@_0BA@FOIKENOD@vector?5too?5long@		; `string'
PUBLIC	??_R4exception@std@@6B@				; std::exception::`RTTI Complete Object Locator'
PUBLIC	??_R3exception@std@@8				; std::exception::`RTTI Class Hierarchy Descriptor'
PUBLIC	??_R2exception@std@@8				; std::exception::`RTTI Base Class Array'
PUBLIC	??_R1A@?0A@EA@exception@std@@8			; std::exception::`RTTI Base Class Descriptor at (0,-1,0,64)'
PUBLIC	??_R4bad_alloc@std@@6B@				; std::bad_alloc::`RTTI Complete Object Locator'
PUBLIC	??_R3bad_alloc@std@@8				; std::bad_alloc::`RTTI Class Hierarchy Descriptor'
PUBLIC	??_R2bad_alloc@std@@8				; std::bad_alloc::`RTTI Base Class Array'
PUBLIC	??_R1A@?0A@EA@bad_alloc@std@@8			; std::bad_alloc::`RTTI Base Class Descriptor at (0,-1,0,64)'
PUBLIC	??_R4bad_array_new_length@std@@6B@		; std::bad_array_new_length::`RTTI Complete Object Locator'
PUBLIC	??_R3bad_array_new_length@std@@8		; std::bad_array_new_length::`RTTI Class Hierarchy Descriptor'
PUBLIC	??_R2bad_array_new_length@std@@8		; std::bad_array_new_length::`RTTI Base Class Array'
PUBLIC	??_R1A@?0A@EA@bad_array_new_length@std@@8	; std::bad_array_new_length::`RTTI Base Class Descriptor at (0,-1,0,64)'
PUBLIC	?ms_singleton@?$CSingleton@VCPythonEventManager@@@@0PAVCPythonEventManager@@A ; CSingleton<CPythonEventManager>::ms_singleton
PUBLIC	??_7?$CSingleton@VCPythonEventManager@@@@6B@	; CSingleton<CPythonEventManager>::`vftable'
PUBLIC	??_7SEventSet@CPythonEventManager@@6B@		; CPythonEventManager::SEventSet::`vftable'
PUBLIC	??_7?$CDynamicPool@USEventSet@CPythonEventManager@@@@6B@ ; CDynamicPool<CPythonEventManager::SEventSet>::`vftable'
PUBLIC	??_7?$CDynamicPool@VCGraphicTextInstance@@@@6B@	; CDynamicPool<CGraphicTextInstance>::`vftable'
PUBLIC	??_7CPythonEventManager@@6B@			; CPythonEventManager::`vftable'
PUBLIC	?ms_singleton@?$CSingleton@VCPythonNetworkStream@@@@0PAVCPythonNetworkStream@@A ; CSingleton<CPythonNetworkStream>::ms_singleton
PUBLIC	?ms_singleton@?$CSingleton@VCPythonNonPlayer@@@@0PAVCPythonNonPlayer@@A ; CSingleton<CPythonNonPlayer>::ms_singleton
PUBLIC	?ms_singleton@?$TAbstractSingleton@VIAbstractApplication@@@@0PAVIAbstractApplication@@A ; TAbstractSingleton<IAbstractApplication>::ms_singleton
PUBLIC	?ms_singleton@?$CSingleton@VCItemManager@@@@0PAVCItemManager@@A ; CSingleton<CItemManager>::ms_singleton
PUBLIC	?ms_singleton@?$CSingleton@VCEterPackManager@@@@0PAVCEterPackManager@@A ; CSingleton<CEterPackManager>::ms_singleton
PUBLIC	?ms_singleton@?$CSingleton@VCPythonMiniMap@@@@0PAVCPythonMiniMap@@A ; CSingleton<CPythonMiniMap>::ms_singleton
PUBLIC	??_C@_01FJMABOPO@x@				; `string'
PUBLIC	??_C@_01EANLCPLP@y@				; `string'
PUBLIC	??_C@_01GLPGHMHM@z@				; `string'
PUBLIC	??_C@_02HNLLPFKA@up@				; `string'
PUBLIC	??_C@_04CHADEDPO@view@				; `string'
PUBLIC	??_C@_05HCKPILGO@cross@				; `string'
PUBLIC	??_C@_08LHFODBFO@distance@			; `string'
PUBLIC	??_C@_03BHFFHIBL@rot@				; `string'
PUBLIC	??_C@_05NCNFOFLM@pitch@				; `string'
PUBLIC	??_C@_05MFEJDJP@value@				; `string'
PUBLIC	??_C@_0EK@NAEFMGNK@CPythonEventManager?3?3SetRestric@ ; `string'
PUBLIC	??_C@_0EH@KHNDFHCA@CPythonEventManager?3?3SetEventHa@ ; `string'
PUBLIC	??_C@_01KDCPPGHE@r@				; `string'
PUBLIC	??_C@_01JEJKBAGA@g@				; `string'
PUBLIC	??_C@_01OJONOECF@b@				; `string'
PUBLIC	??_C@_02HCKGKOFO@?$CI?$CJ@			; `string'
PUBLIC	??_C@_09DIPEHMLE@DoneEvent@			; `string'
PUBLIC	??_C@_03LOJEKLML@src@				; `string'
PUBLIC	??_C@_03KJMMOONA@?$CIs?$CJ@			; `string'
PUBLIC	??_C@_0M@MHNDOIJH@OnLeftImage@			; `string'
PUBLIC	??_C@_0L@ELIGNPMG@OnTopImage@			; `string'
PUBLIC	??_C@_0BC@OIPDJOGL@OnBackgroundImage@		; `string'
PUBLIC	??_C@_05GFDPDNFA@?$CIiis?$CJ@			; `string'
PUBLIC	??_C@_07COJEPNBG@OnImage@			; `string'
PUBLIC	??_C@_0L@NDIFBCJA@image_name@			; `string'
PUBLIC	??_C@_05PHLGJONK@title@				; `string'
PUBLIC	??_C@_04EBPADADD@desc@				; `string'
PUBLIC	??_C@_05FKHKFDID@index@				; `string'
PUBLIC	??_C@_05KBOMEDGA@total@				; `string'
PUBLIC	??_C@_0L@HIIGNCOA@image_type@			; `string'
PUBLIC	??_C@_03DAKNAIGI@idx@				; `string'
PUBLIC	??_C@_08GKIEGGBC@?$CIsissii?$CJ@		; `string'
PUBLIC	??_C@_0BB@FCLBKNGH@OnInsertItemIcon@		; `string'
PUBLIC	??_C@_08KJCKKFJC@?$CIssssii?$CJ@		; `string'
PUBLIC	??_C@_0O@LBIBFC@OnInsertImage@			; `string'
PUBLIC	??_C@_03LIHNMIHG@?$CIi?$CJ@			; `string'
PUBLIC	??_C@_0BC@HCOLHKJD@BINARY_ClearQuest@		; `string'
PUBLIC	??_C@_09CNONGEHE@icon_type@			; `string'
PUBLIC	??_C@_09IGOOKEAE@icon_name@			; `string'
PUBLIC	??_C@_04MEMAJGDJ@name@				; `string'
PUBLIC	??_C@_0BD@MDDAOGBD@?A?$LG?$LA?$KC?$LD?$KN?5?$LP?k?H?$KF?$LM?$KO?$DP?4?4?4?4@ ; `string'
PUBLIC	??_C@_09MIAHMBP@highlight@			; `string'
PUBLIC	??_C@_06GEDDNFGH@?$CIisss?$CJ@			; `string'
PUBLIC	??_C@_0BB@JCGLEGP@BINARY_RecvQuest@		; `string'
PUBLIC	??_C@_04JMLDJNEM@?$CIis?$CJ@			; `string'
PUBLIC	??_C@_09IBEAJOHJ@RecvQuest@			; `string'
PUBLIC	??_C@_09LBCONMEI@blendtime@			; `string'
PUBLIC	??_C@_05HJCMGBKF@speed@				; `string'
PUBLIC	??_C@_03LDCBIPEL@?$CIf?$CJ@			; `string'
PUBLIC	??_C@_07EAEHEHPO@FadeOut@			; `string'
PUBLIC	??_C@_06GCJPJKOH@FadeIn@			; `string'
PUBLIC	??_C@_08JJKJMBO@WhiteOut@			; `string'
PUBLIC	??_C@_07NGADDHAB@WhiteIn@			; `string'
PUBLIC	??_C@_0N@CCHILNPP@OnTitleImage@			; `string'
PUBLIC	??_C@_0BA@FCPOOKJM@killstone_count@		; `string'
PUBLIC	??_C@_0O@DDDIKPAP@killmob_count@		; `string'
PUBLIC	??_C@_0M@NAENPPOP@find_hidden@			; `string'
PUBLIC	??_C@_0N@MAFIFFGH@hidden_total@			; `string'
PUBLIC	??_C@_0L@HLMCPCKO@use_potion@			; `string'
PUBLIC	??_C@_0L@HAAPAAPF@is_revived@			; `string'
PUBLIC	??_C@_0L@CEFFAPEL@killallmob@			; `string'
PUBLIC	??_C@_0L@OIFGKHMH@total_time@			; `string'
PUBLIC	??_C@_09HPFMCAOO@bonus_exp@			; `string'
PUBLIC	??_C@_0M@EDIBAKKL@?$CIiiiiiiiii?$CJ@		; `string'
PUBLIC	??_C@_0BC@GLAGHMFL@ShowDungeonResult@		; `string'
PUBLIC	??_C@_05IGKADHGO@width@				; `string'
PUBLIC	??_C@_06LNLHEAAG@height@			; `string'
PUBLIC	??_C@_04INACLLOK@?$CIii?$CJ@			; `string'
PUBLIC	??_C@_06JKFPDEMN@OnSize@			; `string'
PUBLIC	??_C@_07MNOKODDC@OnInput@			; `string'
PUBLIC	??_C@_07DDHNKDGP@timeout@			; `string'
PUBLIC	??_C@_09FOPMPDJN@CloseSelf@			; `string'
PUBLIC	??_C@_0BM@GFGEFDCO@BINARY_OpenSelectItemWindow@	; `string'
PUBLIC	??_C@_0P@FONAKFHL@MakeNextButton@		; `string'
PUBLIC	??_C@_0N@NKMOFENJ@MakeQuestion@			; `string'
PUBLIC	??_C@_04LCKGAMBB@?$CIsi?$CJ@			; `string'
PUBLIC	??_C@_0P@EGMAHDDO@AppendQuestion@		; `string'
PUBLIC	??_C@_0DL@PFMMJDKG@CPythonEventManager?3?3InsertLine@ ; `string'
PUBLIC	??_C@_0DD@ENOBDFJN@CPythonEventManager?3?3InsertLine@ ; `string'
PUBLIC	??_C@_0CK@JOIMEHF@?5?$CB?$CB?5PARSING?5ERROR?5?9?5Strange?5Com@ ; `string'
PUBLIC	??_C@_0BB@GNKEGEMJ@?$LD?$LC?$MA?$LK?5?$LN?C?$LA?$KD?5?3?5?$CFd?C?J@ ; `string'
PUBLIC	??_C@_06MJINCFFA@LETTER@			; `string'
PUBLIC	??_C@_05DPNLPLKI@COLOR@				; `string'
PUBLIC	??_C@_05IBAECHHA@DELAY@				; `string'
PUBLIC	??_C@_05EMNIMLKD@ENTER@				; `string'
PUBLIC	??_C@_04DBNKAKHO@WAIT@				; `string'
PUBLIC	??_C@_05PONODPI@CLEAR@				; `string'
PUBLIC	??_C@_08MDIDLFIL@QUESTION@			; `string'
PUBLIC	??_C@_04MOKMKBJN@NEXT@				; `string'
PUBLIC	??_C@_04KANDKFIK@DONE@				; `string'
PUBLIC	??_C@_09GHNJOICA@LEFTIMAGE@			; `string'
PUBLIC	??_C@_08LGGHBKNM@TOPIMAGE@			; `string'
PUBLIC	??_C@_07CDIOHGPA@BGIMAGE@			; `string'
PUBLIC	??_C@_05BNHKIGFN@IMAGE@				; `string'
PUBLIC	??_C@_0N@LEAJJLAE@ADDMAPSIGNAL@			; `string'
PUBLIC	??_C@_0P@MCDNLKLH@CLEARMAPSIGNAL@		; `string'
PUBLIC	??_C@_09GPHHDAMH@SETMSGPOS@			; `string'
PUBLIC	??_C@_09DCGGFGEI@ADJMSGPOS@			; `string'
PUBLIC	??_C@_0L@HNINCFNF@SETCMAPPOS@			; `string'
PUBLIC	??_C@_0M@NLCKLGGC@QUESTBUTTON@			; `string'
PUBLIC	??_C@_0BC@HFDJPBHI@QUESTBUTTON_CLOSE@		; `string'
PUBLIC	??_C@_05DJAECLDN@SLEEP@				; `string'
PUBLIC	??_C@_0L@JFBLMOIC@SET_CAMERA@			; `string'
PUBLIC	??_C@_0N@LDDFAHD@BLEND_CAMERA@			; `string'
PUBLIC	??_C@_0P@JLFCBANF@RESTORE_CAMERA@		; `string'
PUBLIC	??_C@_08HDAMPNGA@FADE_OUT@			; `string'
PUBLIC	??_C@_07BBFGMBEC@FADE_IN@			; `string'
PUBLIC	??_C@_09FBLOEAGA@WHITE_OUT@			; `string'
PUBLIC	??_C@_08KBPNHIPE@WHITE_IN@			; `string'
PUBLIC	??_C@_0L@LKNFDGAI@CLEAR_TEXT@			; `string'
PUBLIC	??_C@_0BN@MHHHIBEN@TEXT_HORIZONTAL_ALIGN_CENTER@ ; `string'
PUBLIC	??_C@_0M@HJKMCEHO@TITLE_IMAGE@			; `string'
PUBLIC	??_C@_0L@PGFMEELF@RUN_CINEMA@			; `string'
PUBLIC	??_C@_0P@FFIDJBND@DUNGEON_RESULT@		; `string'
PUBLIC	??_C@_04BLNHNEEM@ITEM@				; `string'
PUBLIC	??_C@_03OEMEHHJ@MOB@				; `string'
PUBLIC	??_C@_08MALMLJOJ@COLOR256@			; `string'
PUBLIC	??_C@_0M@PMFMMHLB@WINDOW_SIZE@			; `string'
PUBLIC	??_C@_05POAEJIHJ@INPUT@				; `string'
PUBLIC	??_C@_0N@BAJAMEHH@CONFIRM_WAIT@			; `string'
PUBLIC	??_C@_0BB@EAAHJLBE@END_CONFIRM_WAIT@		; `string'
PUBLIC	??_C@_0N@IBBMOEIC@INSERT_IMAGE@			; `string'
PUBLIC	??_C@_0M@NHAJMLIB@SELECT_ITEM@			; `string'
PUBLIC	??_C@_0O@NKNMEGII@list?5too?5long@		; `string'
PUBLIC	??_R4?$CDynamicPool@VCGraphicTextInstance@@@@6B@ ; CDynamicPool<CGraphicTextInstance>::`RTTI Complete Object Locator'
PUBLIC	??_R0?AV?$CDynamicPool@VCGraphicTextInstance@@@@@8 ; CDynamicPool<CGraphicTextInstance> `RTTI Type Descriptor'
PUBLIC	??_R3?$CDynamicPool@VCGraphicTextInstance@@@@8	; CDynamicPool<CGraphicTextInstance>::`RTTI Class Hierarchy Descriptor'
PUBLIC	??_R2?$CDynamicPool@VCGraphicTextInstance@@@@8	; CDynamicPool<CGraphicTextInstance>::`RTTI Base Class Array'
PUBLIC	??_R1A@?0A@EA@?$CDynamicPool@VCGraphicTextInstance@@@@8 ; CDynamicPool<CGraphicTextInstance>::`RTTI Base Class Descriptor at (0,-1,0,64)'
PUBLIC	??_R4CPythonEventManager@@6B@			; CPythonEventManager::`RTTI Complete Object Locator'
PUBLIC	??_R0?AVCPythonEventManager@@@8			; CPythonEventManager `RTTI Type Descriptor'
PUBLIC	??_R3CPythonEventManager@@8			; CPythonEventManager::`RTTI Class Hierarchy Descriptor'
PUBLIC	??_R2CPythonEventManager@@8			; CPythonEventManager::`RTTI Base Class Array'
PUBLIC	??_R1A@?0A@EA@CPythonEventManager@@8		; CPythonEventManager::`RTTI Base Class Descriptor at (0,-1,0,64)'
PUBLIC	??_R1A@?0A@EA@?$CSingleton@VCPythonEventManager@@@@8 ; CSingleton<CPythonEventManager>::`RTTI Base Class Descriptor at (0,-1,0,64)'
PUBLIC	??_R0?AV?$CSingleton@VCPythonEventManager@@@@@8	; CSingleton<CPythonEventManager> `RTTI Type Descriptor'
PUBLIC	??_R3?$CSingleton@VCPythonEventManager@@@@8	; CSingleton<CPythonEventManager>::`RTTI Class Hierarchy Descriptor'
PUBLIC	??_R2?$CSingleton@VCPythonEventManager@@@@8	; CSingleton<CPythonEventManager>::`RTTI Base Class Array'
PUBLIC	??_R4?$CSingleton@VCPythonEventManager@@@@6B@	; CSingleton<CPythonEventManager>::`RTTI Complete Object Locator'
PUBLIC	??_R4SEventSet@CPythonEventManager@@6B@		; CPythonEventManager::SEventSet::`RTTI Complete Object Locator'
PUBLIC	??_R0?AUSEventSet@CPythonEventManager@@@8	; CPythonEventManager::SEventSet `RTTI Type Descriptor'
PUBLIC	??_R3SEventSet@CPythonEventManager@@8		; CPythonEventManager::SEventSet::`RTTI Class Hierarchy Descriptor'
PUBLIC	??_R2SEventSet@CPythonEventManager@@8		; CPythonEventManager::SEventSet::`RTTI Base Class Array'
PUBLIC	??_R1A@?0A@EA@SEventSet@CPythonEventManager@@8	; CPythonEventManager::SEventSet::`RTTI Base Class Descriptor at (0,-1,0,64)'
PUBLIC	??_R4?$CDynamicPool@USEventSet@CPythonEventManager@@@@6B@ ; CDynamicPool<CPythonEventManager::SEventSet>::`RTTI Complete Object Locator'
PUBLIC	??_R0?AV?$CDynamicPool@USEventSet@CPythonEventManager@@@@@8 ; CDynamicPool<CPythonEventManager::SEventSet> `RTTI Type Descriptor'
PUBLIC	??_R3?$CDynamicPool@USEventSet@CPythonEventManager@@@@8 ; CDynamicPool<CPythonEventManager::SEventSet>::`RTTI Class Hierarchy Descriptor'
PUBLIC	??_R2?$CDynamicPool@USEventSet@CPythonEventManager@@@@8 ; CDynamicPool<CPythonEventManager::SEventSet>::`RTTI Base Class Array'
PUBLIC	??_R1A@?0A@EA@?$CDynamicPool@USEventSet@CPythonEventManager@@@@8 ; CDynamicPool<CPythonEventManager::SEventSet>::`RTTI Base Class Descriptor at (0,-1,0,64)'
PUBLIC	__real@3f800000
PUBLIC	__real@406fe00000000000
PUBLIC	__xmm@3f8000003f8000003f8000003f800000
EXTRN	??2@YAPAXI@Z:PROC				; operator new
EXTRN	??3@YAXPAXI@Z:PROC				; operator delete
EXTRN	_atexit:PROC
EXTRN	__Init_thread_header:PROC
EXTRN	__Init_thread_abort:PROC
EXTRN	__Init_thread_footer:PROC
EXTRN	__invalid_parameter_noinfo_noreturn:PROC
EXTRN	_atof:PROC
EXTRN	__atoi64:PROC
EXTRN	_strncpy:PROC
EXTRN	__imp__timeGetTime@0:PROC
EXTRN	___std_exception_copy:PROC
EXTRN	___std_exception_destroy:PROC
EXTRN	??_Eexception@std@@UAEPAXI@Z:PROC		; std::exception::`vector deleting destructor'
EXTRN	??_Ebad_alloc@std@@UAEPAXI@Z:PROC		; std::bad_alloc::`vector deleting destructor'
EXTRN	??_Ebad_array_new_length@std@@UAEPAXI@Z:PROC	; std::bad_array_new_length::`vector deleting destructor'
EXTRN	?_Xlength_error@std@@YAXPBD@Z:PROC		; std::_Xlength_error
EXTRN	?Tracen@@YAXPBD@Z:PROC				; Tracen
EXTRN	?Tracef@@YAXPBDZZ:PROC				; Tracef
EXTRN	?TraceError@@YAXPBDZZ:PROC			; TraceError
EXTRN	?_getf@@YAPBDPBDZZ:PROC				; _getf
EXTRN	__imp__Py_BuildValue:PROC
EXTRN	?PyCallClassMemberFunc@@YA_NPAU_object@@PBD0@Z:PROC ; PyCallClassMemberFunc
EXTRN	?GetElapsedMilliecond@CTimer@@QAEKXZ:PROC	; CTimer::GetElapsedMilliecond
EXTRN	??0CMappedFile@@QAE@XZ:PROC			; CMappedFile::CMappedFile
EXTRN	??1CMappedFile@@UAE@XZ:PROC			; CMappedFile::~CMappedFile
EXTRN	?Size@CMappedFile@@QAEKXZ:PROC			; CMappedFile::Size
EXTRN	?Read@CMappedFile@@QAEHPAXH@Z:PROC		; CMappedFile::Read
EXTRN	?GetDefaultCodePage@@YAKXZ:PROC			; GetDefaultCodePage
EXTRN	??0CGraphicTextInstance@@QAE@XZ:PROC		; CGraphicTextInstance::CGraphicTextInstance
EXTRN	?Destroy@CGraphicTextInstance@@QAEXXZ:PROC	; CGraphicTextInstance::Destroy
EXTRN	?Update@CGraphicTextInstance@@QAEXXZ:PROC	; CGraphicTextInstance::Update
EXTRN	?Render@CGraphicTextInstance@@QAEXPAUtagRECT@@@Z:PROC ; CGraphicTextInstance::Render
EXTRN	?SetColor@CGraphicTextInstance@@QAEXMMMM@Z:PROC	; CGraphicTextInstance::SetColor
EXTRN	?SetHorizonalAlign@CGraphicTextInstance@@QAEXH@Z:PROC ; CGraphicTextInstance::SetHorizonalAlign
EXTRN	?SetTextPointer@CGraphicTextInstance@@QAEXPAVCGraphicText@@@Z:PROC ; CGraphicTextInstance::SetTextPointer
EXTRN	?SetValueString@CGraphicTextInstance@@QAEXABV?$basic_string@DU?$char_traits@D@std@@V?$allocator@D@2@@std@@@Z:PROC ; CGraphicTextInstance::SetValueString
EXTRN	?SetValue@CGraphicTextInstance@@QAEXPBDI@Z:PROC	; CGraphicTextInstance::SetValue
EXTRN	?SetPosition@CGraphicTextInstance@@QAEXMMM@Z:PROC ; CGraphicTextInstance::SetPosition
EXTRN	?GetTextSize@CGraphicTextInstance@@QAEXPAH0@Z:PROC ; CGraphicTextInstance::GetTextSize
EXTRN	?GetHorizontalAlign@CGraphicTextInstance@@QAEHXZ:PROC ; CGraphicTextInstance::GetHorizontalAlign
EXTRN	?GetName@CItemData@@QBEPBDXZ:PROC		; CItemData::GetName
EXTRN	?DefaultFont_GetResource@@YAPAVCResource@@XZ:PROC ; DefaultFont_GetResource
EXTRN	??0Group@script@@QAE@XZ:PROC			; script::Group::Group
EXTRN	??1Group@script@@QAE@XZ:PROC			; script::Group::~Group
EXTRN	?Create@Group@script@@QAE_NABV?$basic_string@DU?$char_traits@D@std@@V?$allocator@D@2@@std@@@Z:PROC ; script::Group::Create
EXTRN	?GetCmd@Group@script@@QAE_NAAUSCmd@2@@Z:PROC	; script::Group::GetCmd
EXTRN	?ReadCmd@Group@script@@QAE_NAAUSCmd@2@@Z:PROC	; script::Group::ReadCmd
EXTRN	??_E?$CSingleton@VCPythonEventManager@@@@UAEPAXI@Z:PROC ; CSingleton<CPythonEventManager>::`vector deleting destructor'
EXTRN	??_ESEventSet@CPythonEventManager@@UAEPAXI@Z:PROC ; CPythonEventManager::SEventSet::`vector deleting destructor'
EXTRN	??_E?$CDynamicPool@USEventSet@CPythonEventManager@@@@UAEPAXI@Z:PROC ; CDynamicPool<CPythonEventManager::SEventSet>::`vector deleting destructor'
EXTRN	??_E?$CDynamicPool@VCGraphicTextInstance@@@@UAEPAXI@Z:PROC ; CDynamicPool<CGraphicTextInstance>::`vector deleting destructor'
EXTRN	??_ECPythonEventManager@@UAEPAXI@Z:PROC		; CPythonEventManager::`vector deleting destructor'
EXTRN	?SendScriptAnswerPacket@CPythonNetworkStream@@QAE_NH@Z:PROC ; CPythonNetworkStream::SendScriptAnswerPacket
EXTRN	?GetName@CPythonNonPlayer@@QAE_NKPAPBD@Z:PROC	; CPythonNonPlayer::GetName
EXTRN	?GetItemDataPointer@CItemManager@@QAEHKPAPAVCItemData@@@Z:PROC ; CItemManager::GetItemDataPointer
EXTRN	?Get@CEterPackManager@@QAE_NAAVCMappedFile@@PBDPAPBX@Z:PROC ; CEterPackManager::Get
EXTRN	?AddSignalPoint@CPythonMiniMap@@QAEXMM@Z:PROC	; CPythonMiniMap::AddSignalPoint
EXTRN	?ClearAllSignalPoint@CPythonMiniMap@@QAEXXZ:PROC ; CPythonMiniMap::ClearAllSignalPoint
EXTRN	?OpenAtlasWindow@CPythonMiniMap@@QAEXXZ:PROC	; CPythonMiniMap::OpenAtlasWindow
EXTRN	?SetAtlasCenterPosition@CPythonMiniMap@@QAEXHH@Z:PROC ; CPythonMiniMap::SetAtlasCenterPosition
EXTRN	@__security_check_cookie@4:PROC
EXTRN	__CxxThrowException@8:PROC
EXTRN	___CxxFrameHandler3:PROC
EXTRN	__ltod3:PROC
EXTRN	_memcpy:PROC
EXTRN	_memmove:PROC
EXTRN	_memset:PROC
EXTRN	__Init_thread_epoch:DWORD
EXTRN	??_7type_info@@6B@:QWORD			; type_info::`vftable'
EXTRN	___security_cookie:DWORD
EXTRN	__fltused:DWORD
EXTRN	__tls_array:DWORD
EXTRN	__tls_index:DWORD
;	COMDAT ?ms_singleton@?$CSingleton@VCTimer@@@@0PAVCTimer@@A
_BSS	SEGMENT
?ms_singleton@?$CSingleton@VCTimer@@@@0PAVCTimer@@A DD 01H DUP (?) ; CSingleton<CTimer>::ms_singleton
_BSS	ENDS
;	COMDAT ?ms_singleton@?$CSingleton@VCPythonEventManager@@@@0PAVCPythonEventManager@@A
_BSS	SEGMENT
?ms_singleton@?$CSingleton@VCPythonEventManager@@@@0PAVCPythonEventManager@@A DD 01H DUP (?) ; CSingleton<CPythonEventManager>::ms_singleton
_BSS	ENDS
;	COMDAT ?ms_singleton@?$CSingleton@VCPythonNetworkStream@@@@0PAVCPythonNetworkStream@@A
_BSS	SEGMENT
?ms_singleton@?$CSingleton@VCPythonNetworkStream@@@@0PAVCPythonNetworkStream@@A DD 01H DUP (?) ; CSingleton<CPythonNetworkStream>::ms_singleton
_BSS	ENDS
;	COMDAT ?ms_singleton@?$CSingleton@VCPythonNonPlayer@@@@0PAVCPythonNonPlayer@@A
_BSS	SEGMENT
?ms_singleton@?$CSingleton@VCPythonNonPlayer@@@@0PAVCPythonNonPlayer@@A DD 01H DUP (?) ; CSingleton<CPythonNonPlayer>::ms_singleton
_BSS	ENDS
;	COMDAT ?ms_singleton@?$TAbstractSingleton@VIAbstractApplication@@@@0PAVIAbstractApplication@@A
_BSS	SEGMENT
?ms_singleton@?$TAbstractSingleton@VIAbstractApplication@@@@0PAVIAbstractApplication@@A DD 01H DUP (?) ; TAbstractSingleton<IAbstractApplication>::ms_singleton
_BSS	ENDS
;	COMDAT ?ms_singleton@?$CSingleton@VCItemManager@@@@0PAVCItemManager@@A
_BSS	SEGMENT
?ms_singleton@?$CSingleton@VCItemManager@@@@0PAVCItemManager@@A DD 01H DUP (?) ; CSingleton<CItemManager>::ms_singleton
_BSS	ENDS
;	COMDAT ?ms_singleton@?$CSingleton@VCEterPackManager@@@@0PAVCEterPackManager@@A
_BSS	SEGMENT
?ms_singleton@?$CSingleton@VCEterPackManager@@@@0PAVCEterPackManager@@A DD 01H DUP (?) ; CSingleton<CEterPackManager>::ms_singleton
_BSS	ENDS
;	COMDAT ?ms_singleton@?$CSingleton@VCPythonMiniMap@@@@0PAVCPythonMiniMap@@A
_BSS	SEGMENT
?ms_singleton@?$CSingleton@VCPythonMiniMap@@@@0PAVCPythonMiniMap@@A DD 01H DUP (?) ; CSingleton<CPythonMiniMap>::ms_singleton
_BSS	ENDS
;	COMDAT ?$TSS0@?1??GetArgumentString@@YAABV?$basic_string@DU?$char_traits@D@std@@V?$allocator@D@2@@std@@PBDAAV?$list@USArgumet@script@@V?$allocator@USArgumet@script@@@std@@@3@@Z@4HA
_BSS	SEGMENT
?$TSS0@?1??GetArgumentString@@YAABV?$basic_string@DU?$char_traits@D@std@@V?$allocator@D@2@@std@@PBDAAV?$list@USArgumet@script@@V?$allocator@USArgumet@script@@@std@@@3@@Z@4HA DD 01H DUP (?) ; `GetArgumentString'::`2'::$TSS0
_BSS	ENDS
;	COMDAT __xmm@3f8000003f8000003f8000003f800000
CONST	SEGMENT
__xmm@3f8000003f8000003f8000003f800000 DB 00H, 00H, 080H, '?', 00H, 00H, 080H
	DB	'?', 00H, 00H, 080H, '?', 00H, 00H, 080H, '?'
CONST	ENDS
;	COMDAT __real@406fe00000000000
CONST	SEGMENT
__real@406fe00000000000 DQ 0406fe00000000000r	; 255
CONST	ENDS
;	COMDAT __real@3f800000
CONST	SEGMENT
__real@3f800000 DD 03f800000r			; 1
CONST	ENDS
;	COMDAT ??_R1A@?0A@EA@?$CDynamicPool@USEventSet@CPythonEventManager@@@@8
rdata$r	SEGMENT
??_R1A@?0A@EA@?$CDynamicPool@USEventSet@CPythonEventManager@@@@8 DD FLAT:??_R0?AV?$CDynamicPool@USEventSet@CPythonEventManager@@@@@8 ; CDynamicPool<CPythonEventManager::SEventSet>::`RTTI Base Class Descriptor at (0,-1,0,64)'
	DD	00H
	DD	00H
	DD	0ffffffffH
	DD	00H
	DD	040H
	DD	FLAT:??_R3?$CDynamicPool@USEventSet@CPythonEventManager@@@@8
rdata$r	ENDS
;	COMDAT ??_R2?$CDynamicPool@USEventSet@CPythonEventManager@@@@8
rdata$r	SEGMENT
??_R2?$CDynamicPool@USEventSet@CPythonEventManager@@@@8 DD FLAT:??_R1A@?0A@EA@?$CDynamicPool@USEventSet@CPythonEventManager@@@@8 ; CDynamicPool<CPythonEventManager::SEventSet>::`RTTI Base Class Array'
rdata$r	ENDS
;	COMDAT ??_R3?$CDynamicPool@USEventSet@CPythonEventManager@@@@8
rdata$r	SEGMENT
??_R3?$CDynamicPool@USEventSet@CPythonEventManager@@@@8 DD 00H ; CDynamicPool<CPythonEventManager::SEventSet>::`RTTI Class Hierarchy Descriptor'
	DD	00H
	DD	01H
	DD	FLAT:??_R2?$CDynamicPool@USEventSet@CPythonEventManager@@@@8
rdata$r	ENDS
;	COMDAT ??_R0?AV?$CDynamicPool@USEventSet@CPythonEventManager@@@@@8
data$rs	SEGMENT
??_R0?AV?$CDynamicPool@USEventSet@CPythonEventManager@@@@@8 DD FLAT:??_7type_info@@6B@ ; CDynamicPool<CPythonEventManager::SEventSet> `RTTI Type Descriptor'
	DD	00H
	DB	'.?AV?$CDynamicPool@USEventSet@CPythonEventManager@@@@', 00H
data$rs	ENDS
;	COMDAT ??_R4?$CDynamicPool@USEventSet@CPythonEventManager@@@@6B@
rdata$r	SEGMENT
??_R4?$CDynamicPool@USEventSet@CPythonEventManager@@@@6B@ DD 00H ; CDynamicPool<CPythonEventManager::SEventSet>::`RTTI Complete Object Locator'
	DD	00H
	DD	00H
	DD	FLAT:??_R0?AV?$CDynamicPool@USEventSet@CPythonEventManager@@@@@8
	DD	FLAT:??_R3?$CDynamicPool@USEventSet@CPythonEventManager@@@@8
rdata$r	ENDS
;	COMDAT ??_R1A@?0A@EA@SEventSet@CPythonEventManager@@8
rdata$r	SEGMENT
??_R1A@?0A@EA@SEventSet@CPythonEventManager@@8 DD FLAT:??_R0?AUSEventSet@CPythonEventManager@@@8 ; CPythonEventManager::SEventSet::`RTTI Base Class Descriptor at (0,-1,0,64)'
	DD	00H
	DD	00H
	DD	0ffffffffH
	DD	00H
	DD	040H
	DD	FLAT:??_R3SEventSet@CPythonEventManager@@8
rdata$r	ENDS
;	COMDAT ??_R2SEventSet@CPythonEventManager@@8
rdata$r	SEGMENT
??_R2SEventSet@CPythonEventManager@@8 DD FLAT:??_R1A@?0A@EA@SEventSet@CPythonEventManager@@8 ; CPythonEventManager::SEventSet::`RTTI Base Class Array'
rdata$r	ENDS
;	COMDAT ??_R3SEventSet@CPythonEventManager@@8
rdata$r	SEGMENT
??_R3SEventSet@CPythonEventManager@@8 DD 00H		; CPythonEventManager::SEventSet::`RTTI Class Hierarchy Descriptor'
	DD	00H
	DD	01H
	DD	FLAT:??_R2SEventSet@CPythonEventManager@@8
rdata$r	ENDS
;	COMDAT ??_R0?AUSEventSet@CPythonEventManager@@@8
data$rs	SEGMENT
??_R0?AUSEventSet@CPythonEventManager@@@8 DD FLAT:??_7type_info@@6B@ ; CPythonEventManager::SEventSet `RTTI Type Descriptor'
	DD	00H
	DB	'.?AUSEventSet@CPythonEventManager@@', 00H
data$rs	ENDS
;	COMDAT ??_R4SEventSet@CPythonEventManager@@6B@
rdata$r	SEGMENT
??_R4SEventSet@CPythonEventManager@@6B@ DD 00H		; CPythonEventManager::SEventSet::`RTTI Complete Object Locator'
	DD	00H
	DD	00H
	DD	FLAT:??_R0?AUSEventSet@CPythonEventManager@@@8
	DD	FLAT:??_R3SEventSet@CPythonEventManager@@8
rdata$r	ENDS
;	COMDAT ??_R4?$CSingleton@VCPythonEventManager@@@@6B@
rdata$r	SEGMENT
??_R4?$CSingleton@VCPythonEventManager@@@@6B@ DD 00H	; CSingleton<CPythonEventManager>::`RTTI Complete Object Locator'
	DD	00H
	DD	00H
	DD	FLAT:??_R0?AV?$CSingleton@VCPythonEventManager@@@@@8
	DD	FLAT:??_R3?$CSingleton@VCPythonEventManager@@@@8
rdata$r	ENDS
;	COMDAT ??_R2?$CSingleton@VCPythonEventManager@@@@8
rdata$r	SEGMENT
??_R2?$CSingleton@VCPythonEventManager@@@@8 DD FLAT:??_R1A@?0A@EA@?$CSingleton@VCPythonEventManager@@@@8 ; CSingleton<CPythonEventManager>::`RTTI Base Class Array'
rdata$r	ENDS
;	COMDAT ??_R3?$CSingleton@VCPythonEventManager@@@@8
rdata$r	SEGMENT
??_R3?$CSingleton@VCPythonEventManager@@@@8 DD 00H	; CSingleton<CPythonEventManager>::`RTTI Class Hierarchy Descriptor'
	DD	00H
	DD	01H
	DD	FLAT:??_R2?$CSingleton@VCPythonEventManager@@@@8
rdata$r	ENDS
;	COMDAT ??_R0?AV?$CSingleton@VCPythonEventManager@@@@@8
data$rs	SEGMENT
??_R0?AV?$CSingleton@VCPythonEventManager@@@@@8 DD FLAT:??_7type_info@@6B@ ; CSingleton<CPythonEventManager> `RTTI Type Descriptor'
	DD	00H
	DB	'.?AV?$CSingleton@VCPythonEventManager@@@@', 00H
data$rs	ENDS
;	COMDAT ??_R1A@?0A@EA@?$CSingleton@VCPythonEventManager@@@@8
rdata$r	SEGMENT
??_R1A@?0A@EA@?$CSingleton@VCPythonEventManager@@@@8 DD FLAT:??_R0?AV?$CSingleton@VCPythonEventManager@@@@@8 ; CSingleton<CPythonEventManager>::`RTTI Base Class Descriptor at (0,-1,0,64)'
	DD	00H
	DD	00H
	DD	0ffffffffH
	DD	00H
	DD	040H
	DD	FLAT:??_R3?$CSingleton@VCPythonEventManager@@@@8
rdata$r	ENDS
;	COMDAT ??_R1A@?0A@EA@CPythonEventManager@@8
rdata$r	SEGMENT
??_R1A@?0A@EA@CPythonEventManager@@8 DD FLAT:??_R0?AVCPythonEventManager@@@8 ; CPythonEventManager::`RTTI Base Class Descriptor at (0,-1,0,64)'
	DD	01H
	DD	00H
	DD	0ffffffffH
	DD	00H
	DD	040H
	DD	FLAT:??_R3CPythonEventManager@@8
rdata$r	ENDS
;	COMDAT ??_R2CPythonEventManager@@8
rdata$r	SEGMENT
??_R2CPythonEventManager@@8 DD FLAT:??_R1A@?0A@EA@CPythonEventManager@@8 ; CPythonEventManager::`RTTI Base Class Array'
	DD	FLAT:??_R1A@?0A@EA@?$CSingleton@VCPythonEventManager@@@@8
rdata$r	ENDS
;	COMDAT ??_R3CPythonEventManager@@8
rdata$r	SEGMENT
??_R3CPythonEventManager@@8 DD 00H			; CPythonEventManager::`RTTI Class Hierarchy Descriptor'
	DD	00H
	DD	02H
	DD	FLAT:??_R2CPythonEventManager@@8
rdata$r	ENDS
;	COMDAT ??_R0?AVCPythonEventManager@@@8
data$rs	SEGMENT
??_R0?AVCPythonEventManager@@@8 DD FLAT:??_7type_info@@6B@ ; CPythonEventManager `RTTI Type Descriptor'
	DD	00H
	DB	'.?AVCPythonEventManager@@', 00H
data$rs	ENDS
;	COMDAT ??_R4CPythonEventManager@@6B@
rdata$r	SEGMENT
??_R4CPythonEventManager@@6B@ DD 00H			; CPythonEventManager::`RTTI Complete Object Locator'
	DD	00H
	DD	00H
	DD	FLAT:??_R0?AVCPythonEventManager@@@8
	DD	FLAT:??_R3CPythonEventManager@@8
rdata$r	ENDS
;	COMDAT ??_R1A@?0A@EA@?$CDynamicPool@VCGraphicTextInstance@@@@8
rdata$r	SEGMENT
??_R1A@?0A@EA@?$CDynamicPool@VCGraphicTextInstance@@@@8 DD FLAT:??_R0?AV?$CDynamicPool@VCGraphicTextInstance@@@@@8 ; CDynamicPool<CGraphicTextInstance>::`RTTI Base Class Descriptor at (0,-1,0,64)'
	DD	00H
	DD	00H
	DD	0ffffffffH
	DD	00H
	DD	040H
	DD	FLAT:??_R3?$CDynamicPool@VCGraphicTextInstance@@@@8
rdata$r	ENDS
;	COMDAT ??_R2?$CDynamicPool@VCGraphicTextInstance@@@@8
rdata$r	SEGMENT
??_R2?$CDynamicPool@VCGraphicTextInstance@@@@8 DD FLAT:??_R1A@?0A@EA@?$CDynamicPool@VCGraphicTextInstance@@@@8 ; CDynamicPool<CGraphicTextInstance>::`RTTI Base Class Array'
rdata$r	ENDS
;	COMDAT ??_R3?$CDynamicPool@VCGraphicTextInstance@@@@8
rdata$r	SEGMENT
??_R3?$CDynamicPool@VCGraphicTextInstance@@@@8 DD 00H	; CDynamicPool<CGraphicTextInstance>::`RTTI Class Hierarchy Descriptor'
	DD	00H
	DD	01H
	DD	FLAT:??_R2?$CDynamicPool@VCGraphicTextInstance@@@@8
rdata$r	ENDS
;	COMDAT ??_R0?AV?$CDynamicPool@VCGraphicTextInstance@@@@@8
data$rs	SEGMENT
??_R0?AV?$CDynamicPool@VCGraphicTextInstance@@@@@8 DD FLAT:??_7type_info@@6B@ ; CDynamicPool<CGraphicTextInstance> `RTTI Type Descriptor'
	DD	00H
	DB	'.?AV?$CDynamicPool@VCGraphicTextInstance@@@@', 00H
data$rs	ENDS
;	COMDAT ??_R4?$CDynamicPool@VCGraphicTextInstance@@@@6B@
rdata$r	SEGMENT
??_R4?$CDynamicPool@VCGraphicTextInstance@@@@6B@ DD 00H	; CDynamicPool<CGraphicTextInstance>::`RTTI Complete Object Locator'
	DD	00H
	DD	00H
	DD	FLAT:??_R0?AV?$CDynamicPool@VCGraphicTextInstance@@@@@8
	DD	FLAT:??_R3?$CDynamicPool@VCGraphicTextInstance@@@@8
rdata$r	ENDS
;	COMDAT ??_C@_0O@NKNMEGII@list?5too?5long@
CONST	SEGMENT
??_C@_0O@NKNMEGII@list?5too?5long@ DB 'list too long', 00H ; `string'
CONST	ENDS
;	COMDAT ??_C@_0M@NHAJMLIB@SELECT_ITEM@
CONST	SEGMENT
??_C@_0M@NHAJMLIB@SELECT_ITEM@ DB 'SELECT_ITEM', 00H	; `string'
CONST	ENDS
;	COMDAT ??_C@_0N@IBBMOEIC@INSERT_IMAGE@
CONST	SEGMENT
??_C@_0N@IBBMOEIC@INSERT_IMAGE@ DB 'INSERT_IMAGE', 00H	; `string'
CONST	ENDS
;	COMDAT ??_C@_0BB@EAAHJLBE@END_CONFIRM_WAIT@
CONST	SEGMENT
??_C@_0BB@EAAHJLBE@END_CONFIRM_WAIT@ DB 'END_CONFIRM_WAIT', 00H ; `string'
CONST	ENDS
;	COMDAT ??_C@_0N@BAJAMEHH@CONFIRM_WAIT@
CONST	SEGMENT
??_C@_0N@BAJAMEHH@CONFIRM_WAIT@ DB 'CONFIRM_WAIT', 00H	; `string'
CONST	ENDS
;	COMDAT ??_C@_05POAEJIHJ@INPUT@
CONST	SEGMENT
??_C@_05POAEJIHJ@INPUT@ DB 'INPUT', 00H			; `string'
CONST	ENDS
;	COMDAT ??_C@_0M@PMFMMHLB@WINDOW_SIZE@
CONST	SEGMENT
??_C@_0M@PMFMMHLB@WINDOW_SIZE@ DB 'WINDOW_SIZE', 00H	; `string'
CONST	ENDS
;	COMDAT ??_C@_08MALMLJOJ@COLOR256@
CONST	SEGMENT
??_C@_08MALMLJOJ@COLOR256@ DB 'COLOR256', 00H		; `string'
CONST	ENDS
;	COMDAT ??_C@_03OEMEHHJ@MOB@
CONST	SEGMENT
??_C@_03OEMEHHJ@MOB@ DB 'MOB', 00H			; `string'
CONST	ENDS
;	COMDAT ??_C@_04BLNHNEEM@ITEM@
CONST	SEGMENT
??_C@_04BLNHNEEM@ITEM@ DB 'ITEM', 00H			; `string'
CONST	ENDS
;	COMDAT ??_C@_0P@FFIDJBND@DUNGEON_RESULT@
CONST	SEGMENT
??_C@_0P@FFIDJBND@DUNGEON_RESULT@ DB 'DUNGEON_RESULT', 00H ; `string'
CONST	ENDS
;	COMDAT ??_C@_0L@PGFMEELF@RUN_CINEMA@
CONST	SEGMENT
??_C@_0L@PGFMEELF@RUN_CINEMA@ DB 'RUN_CINEMA', 00H	; `string'
CONST	ENDS
;	COMDAT ??_C@_0M@HJKMCEHO@TITLE_IMAGE@
CONST	SEGMENT
??_C@_0M@HJKMCEHO@TITLE_IMAGE@ DB 'TITLE_IMAGE', 00H	; `string'
CONST	ENDS
;	COMDAT ??_C@_0BN@MHHHIBEN@TEXT_HORIZONTAL_ALIGN_CENTER@
CONST	SEGMENT
??_C@_0BN@MHHHIBEN@TEXT_HORIZONTAL_ALIGN_CENTER@ DB 'TEXT_HORIZONTAL_ALIG'
	DB	'N_CENTER', 00H				; `string'
CONST	ENDS
;	COMDAT ??_C@_0L@LKNFDGAI@CLEAR_TEXT@
CONST	SEGMENT
??_C@_0L@LKNFDGAI@CLEAR_TEXT@ DB 'CLEAR_TEXT', 00H	; `string'
CONST	ENDS
;	COMDAT ??_C@_08KBPNHIPE@WHITE_IN@
CONST	SEGMENT
??_C@_08KBPNHIPE@WHITE_IN@ DB 'WHITE_IN', 00H		; `string'
CONST	ENDS
;	COMDAT ??_C@_09FBLOEAGA@WHITE_OUT@
CONST	SEGMENT
??_C@_09FBLOEAGA@WHITE_OUT@ DB 'WHITE_OUT', 00H		; `string'
CONST	ENDS
;	COMDAT ??_C@_07BBFGMBEC@FADE_IN@
CONST	SEGMENT
??_C@_07BBFGMBEC@FADE_IN@ DB 'FADE_IN', 00H		; `string'
CONST	ENDS
;	COMDAT ??_C@_08HDAMPNGA@FADE_OUT@
CONST	SEGMENT
??_C@_08HDAMPNGA@FADE_OUT@ DB 'FADE_OUT', 00H		; `string'
CONST	ENDS
;	COMDAT ??_C@_0P@JLFCBANF@RESTORE_CAMERA@
CONST	SEGMENT
??_C@_0P@JLFCBANF@RESTORE_CAMERA@ DB 'RESTORE_CAMERA', 00H ; `string'
CONST	ENDS
;	COMDAT ??_C@_0N@LDDFAHD@BLEND_CAMERA@
CONST	SEGMENT
??_C@_0N@LDDFAHD@BLEND_CAMERA@ DB 'BLEND_CAMERA', 00H	; `string'
CONST	ENDS
;	COMDAT ??_C@_0L@JFBLMOIC@SET_CAMERA@
CONST	SEGMENT
??_C@_0L@JFBLMOIC@SET_CAMERA@ DB 'SET_CAMERA', 00H	; `string'
CONST	ENDS
;	COMDAT ??_C@_05DJAECLDN@SLEEP@
CONST	SEGMENT
??_C@_05DJAECLDN@SLEEP@ DB 'SLEEP', 00H			; `string'
CONST	ENDS
;	COMDAT ??_C@_0BC@HFDJPBHI@QUESTBUTTON_CLOSE@
CONST	SEGMENT
??_C@_0BC@HFDJPBHI@QUESTBUTTON_CLOSE@ DB 'QUESTBUTTON_CLOSE', 00H ; `string'
CONST	ENDS
;	COMDAT ??_C@_0M@NLCKLGGC@QUESTBUTTON@
CONST	SEGMENT
??_C@_0M@NLCKLGGC@QUESTBUTTON@ DB 'QUESTBUTTON', 00H	; `string'
CONST	ENDS
;	COMDAT ??_C@_0L@HNINCFNF@SETCMAPPOS@
CONST	SEGMENT
??_C@_0L@HNINCFNF@SETCMAPPOS@ DB 'SETCMAPPOS', 00H	; `string'
CONST	ENDS
;	COMDAT ??_C@_09DCGGFGEI@ADJMSGPOS@
CONST	SEGMENT
??_C@_09DCGGFGEI@ADJMSGPOS@ DB 'ADJMSGPOS', 00H		; `string'
CONST	ENDS
;	COMDAT ??_C@_09GPHHDAMH@SETMSGPOS@
CONST	SEGMENT
??_C@_09GPHHDAMH@SETMSGPOS@ DB 'SETMSGPOS', 00H		; `string'
CONST	ENDS
;	COMDAT ??_C@_0P@MCDNLKLH@CLEARMAPSIGNAL@
CONST	SEGMENT
??_C@_0P@MCDNLKLH@CLEARMAPSIGNAL@ DB 'CLEARMAPSIGNAL', 00H ; `string'
CONST	ENDS
;	COMDAT ??_C@_0N@LEAJJLAE@ADDMAPSIGNAL@
CONST	SEGMENT
??_C@_0N@LEAJJLAE@ADDMAPSIGNAL@ DB 'ADDMAPSIGNAL', 00H	; `string'
CONST	ENDS
;	COMDAT ??_C@_05BNHKIGFN@IMAGE@
CONST	SEGMENT
??_C@_05BNHKIGFN@IMAGE@ DB 'IMAGE', 00H			; `string'
CONST	ENDS
;	COMDAT ??_C@_07CDIOHGPA@BGIMAGE@
CONST	SEGMENT
??_C@_07CDIOHGPA@BGIMAGE@ DB 'BGIMAGE', 00H		; `string'
CONST	ENDS
;	COMDAT ??_C@_08LGGHBKNM@TOPIMAGE@
CONST	SEGMENT
??_C@_08LGGHBKNM@TOPIMAGE@ DB 'TOPIMAGE', 00H		; `string'
CONST	ENDS
;	COMDAT ??_C@_09GHNJOICA@LEFTIMAGE@
CONST	SEGMENT
??_C@_09GHNJOICA@LEFTIMAGE@ DB 'LEFTIMAGE', 00H		; `string'
CONST	ENDS
;	COMDAT ??_C@_04KANDKFIK@DONE@
CONST	SEGMENT
??_C@_04KANDKFIK@DONE@ DB 'DONE', 00H			; `string'
CONST	ENDS
;	COMDAT ??_C@_04MOKMKBJN@NEXT@
CONST	SEGMENT
??_C@_04MOKMKBJN@NEXT@ DB 'NEXT', 00H			; `string'
CONST	ENDS
;	COMDAT ??_C@_08MDIDLFIL@QUESTION@
CONST	SEGMENT
??_C@_08MDIDLFIL@QUESTION@ DB 'QUESTION', 00H		; `string'
CONST	ENDS
;	COMDAT ??_C@_05PONODPI@CLEAR@
CONST	SEGMENT
??_C@_05PONODPI@CLEAR@ DB 'CLEAR', 00H			; `string'
CONST	ENDS
;	COMDAT ??_C@_04DBNKAKHO@WAIT@
CONST	SEGMENT
??_C@_04DBNKAKHO@WAIT@ DB 'WAIT', 00H			; `string'
CONST	ENDS
;	COMDAT ??_C@_05EMNIMLKD@ENTER@
CONST	SEGMENT
??_C@_05EMNIMLKD@ENTER@ DB 'ENTER', 00H			; `string'
CONST	ENDS
;	COMDAT ??_C@_05IBAECHHA@DELAY@
CONST	SEGMENT
??_C@_05IBAECHHA@DELAY@ DB 'DELAY', 00H			; `string'
CONST	ENDS
;	COMDAT ??_C@_05DPNLPLKI@COLOR@
CONST	SEGMENT
??_C@_05DPNLPLKI@COLOR@ DB 'COLOR', 00H			; `string'
CONST	ENDS
;	COMDAT ??_C@_06MJINCFFA@LETTER@
CONST	SEGMENT
??_C@_06MJINCFFA@LETTER@ DB 'LETTER', 00H		; `string'
CONST	ENDS
;	COMDAT ??_C@_0BB@GNKEGEMJ@?$LD?$LC?$MA?$LK?5?$LN?C?$LA?$KD?5?3?5?$CFd?C?J@
CONST	SEGMENT
??_C@_0BB@GNKEGEMJ@?$LD?$LC?$MA?$LK?5?$LN?C?$LA?$KD?5?3?5?$CFd?C?J@ DB 0b3H
	DB	0b2H, 0c0H, 0baH, ' ', 0bdH, 0c3H, 0b0H, 0a3H, ' : %d', 0c3H, 0caH
	DB	00H						; `string'
CONST	ENDS
;	COMDAT ??_C@_0CK@JOIMEHF@?5?$CB?$CB?5PARSING?5ERROR?5?9?5Strange?5Com@
CONST	SEGMENT
??_C@_0CK@JOIMEHF@?5?$CB?$CB?5PARSING?5ERROR?5?9?5Strange?5Com@ DB ' !! P'
	DB	'ARSING ERROR - Strange Command : %s', 0aH, 00H ; `string'
CONST	ENDS
;	COMDAT ??_C@_0DD@ENOBDFJN@CPythonEventManager?3?3InsertLine@
CONST	SEGMENT
??_C@_0DD@ENOBDFJN@CPythonEventManager?3?3InsertLine@ DB 'CPythonEventMan'
	DB	'ager::InsertLine - OUT_OF_TEXT_LINE', 00H	; `string'
CONST	ENDS
;	COMDAT ??_C@_0DL@PFMMJDKG@CPythonEventManager?3?3InsertLine@
CONST	SEGMENT
??_C@_0DL@PFMMJDKG@CPythonEventManager?3?3InsertLine@ DB 'CPythonEventMan'
	DB	'ager::InsertLine - CANNOT_FIND_DEFAULT_FONT', 00H ; `string'
CONST	ENDS
;	COMDAT ??_C@_0P@EGMAHDDO@AppendQuestion@
CONST	SEGMENT
??_C@_0P@EGMAHDDO@AppendQuestion@ DB 'AppendQuestion', 00H ; `string'
CONST	ENDS
;	COMDAT ??_C@_04LCKGAMBB@?$CIsi?$CJ@
CONST	SEGMENT
??_C@_04LCKGAMBB@?$CIsi?$CJ@ DB '(si)', 00H		; `string'
CONST	ENDS
;	COMDAT ??_C@_0N@NKMOFENJ@MakeQuestion@
CONST	SEGMENT
??_C@_0N@NKMOFENJ@MakeQuestion@ DB 'MakeQuestion', 00H	; `string'
CONST	ENDS
;	COMDAT ??_C@_0P@FONAKFHL@MakeNextButton@
CONST	SEGMENT
??_C@_0P@FONAKFHL@MakeNextButton@ DB 'MakeNextButton', 00H ; `string'
CONST	ENDS
;	COMDAT ??_C@_0BM@GFGEFDCO@BINARY_OpenSelectItemWindow@
CONST	SEGMENT
??_C@_0BM@GFGEFDCO@BINARY_OpenSelectItemWindow@ DB 'BINARY_OpenSelectItem'
	DB	'Window', 00H				; `string'
CONST	ENDS
;	COMDAT ??_C@_09FOPMPDJN@CloseSelf@
CONST	SEGMENT
??_C@_09FOPMPDJN@CloseSelf@ DB 'CloseSelf', 00H		; `string'
CONST	ENDS
;	COMDAT ??_C@_07DDHNKDGP@timeout@
CONST	SEGMENT
??_C@_07DDHNKDGP@timeout@ DB 'timeout', 00H		; `string'
CONST	ENDS
;	COMDAT ??_C@_07MNOKODDC@OnInput@
CONST	SEGMENT
??_C@_07MNOKODDC@OnInput@ DB 'OnInput', 00H		; `string'
CONST	ENDS
;	COMDAT ??_C@_06JKFPDEMN@OnSize@
CONST	SEGMENT
??_C@_06JKFPDEMN@OnSize@ DB 'OnSize', 00H		; `string'
CONST	ENDS
;	COMDAT ??_C@_04INACLLOK@?$CIii?$CJ@
CONST	SEGMENT
??_C@_04INACLLOK@?$CIii?$CJ@ DB '(ii)', 00H		; `string'
CONST	ENDS
;	COMDAT ??_C@_06LNLHEAAG@height@
CONST	SEGMENT
??_C@_06LNLHEAAG@height@ DB 'height', 00H		; `string'
CONST	ENDS
;	COMDAT ??_C@_05IGKADHGO@width@
CONST	SEGMENT
??_C@_05IGKADHGO@width@ DB 'width', 00H			; `string'
CONST	ENDS
;	COMDAT ??_C@_0BC@GLAGHMFL@ShowDungeonResult@
CONST	SEGMENT
??_C@_0BC@GLAGHMFL@ShowDungeonResult@ DB 'ShowDungeonResult', 00H ; `string'
CONST	ENDS
;	COMDAT ??_C@_0M@EDIBAKKL@?$CIiiiiiiiii?$CJ@
CONST	SEGMENT
??_C@_0M@EDIBAKKL@?$CIiiiiiiiii?$CJ@ DB '(iiiiiiiii)', 00H ; `string'
CONST	ENDS
;	COMDAT ??_C@_09HPFMCAOO@bonus_exp@
CONST	SEGMENT
??_C@_09HPFMCAOO@bonus_exp@ DB 'bonus_exp', 00H		; `string'
CONST	ENDS
;	COMDAT ??_C@_0L@OIFGKHMH@total_time@
CONST	SEGMENT
??_C@_0L@OIFGKHMH@total_time@ DB 'total_time', 00H	; `string'
CONST	ENDS
;	COMDAT ??_C@_0L@CEFFAPEL@killallmob@
CONST	SEGMENT
??_C@_0L@CEFFAPEL@killallmob@ DB 'killallmob', 00H	; `string'
CONST	ENDS
;	COMDAT ??_C@_0L@HAAPAAPF@is_revived@
CONST	SEGMENT
??_C@_0L@HAAPAAPF@is_revived@ DB 'is_revived', 00H	; `string'
CONST	ENDS
;	COMDAT ??_C@_0L@HLMCPCKO@use_potion@
CONST	SEGMENT
??_C@_0L@HLMCPCKO@use_potion@ DB 'use_potion', 00H	; `string'
CONST	ENDS
;	COMDAT ??_C@_0N@MAFIFFGH@hidden_total@
CONST	SEGMENT
??_C@_0N@MAFIFFGH@hidden_total@ DB 'hidden_total', 00H	; `string'
CONST	ENDS
;	COMDAT ??_C@_0M@NAENPPOP@find_hidden@
CONST	SEGMENT
??_C@_0M@NAENPPOP@find_hidden@ DB 'find_hidden', 00H	; `string'
CONST	ENDS
;	COMDAT ??_C@_0O@DDDIKPAP@killmob_count@
CONST	SEGMENT
??_C@_0O@DDDIKPAP@killmob_count@ DB 'killmob_count', 00H ; `string'
CONST	ENDS
;	COMDAT ??_C@_0BA@FCPOOKJM@killstone_count@
CONST	SEGMENT
??_C@_0BA@FCPOOKJM@killstone_count@ DB 'killstone_count', 00H ; `string'
CONST	ENDS
;	COMDAT ??_C@_0N@CCHILNPP@OnTitleImage@
CONST	SEGMENT
??_C@_0N@CCHILNPP@OnTitleImage@ DB 'OnTitleImage', 00H	; `string'
CONST	ENDS
;	COMDAT ??_C@_07NGADDHAB@WhiteIn@
CONST	SEGMENT
??_C@_07NGADDHAB@WhiteIn@ DB 'WhiteIn', 00H		; `string'
CONST	ENDS
;	COMDAT ??_C@_08JJKJMBO@WhiteOut@
CONST	SEGMENT
??_C@_08JJKJMBO@WhiteOut@ DB 'WhiteOut', 00H		; `string'
CONST	ENDS
;	COMDAT ??_C@_06GCJPJKOH@FadeIn@
CONST	SEGMENT
??_C@_06GCJPJKOH@FadeIn@ DB 'FadeIn', 00H		; `string'
CONST	ENDS
;	COMDAT ??_C@_07EAEHEHPO@FadeOut@
CONST	SEGMENT
??_C@_07EAEHEHPO@FadeOut@ DB 'FadeOut', 00H		; `string'
CONST	ENDS
;	COMDAT ??_C@_03LDCBIPEL@?$CIf?$CJ@
CONST	SEGMENT
??_C@_03LDCBIPEL@?$CIf?$CJ@ DB '(f)', 00H		; `string'
CONST	ENDS
;	COMDAT ??_C@_05HJCMGBKF@speed@
CONST	SEGMENT
??_C@_05HJCMGBKF@speed@ DB 'speed', 00H			; `string'
CONST	ENDS
;	COMDAT ??_C@_09LBCONMEI@blendtime@
CONST	SEGMENT
??_C@_09LBCONMEI@blendtime@ DB 'blendtime', 00H		; `string'
CONST	ENDS
;	COMDAT ??_C@_09IBEAJOHJ@RecvQuest@
CONST	SEGMENT
??_C@_09IBEAJOHJ@RecvQuest@ DB 'RecvQuest', 00H		; `string'
CONST	ENDS
;	COMDAT ??_C@_04JMLDJNEM@?$CIis?$CJ@
CONST	SEGMENT
??_C@_04JMLDJNEM@?$CIis?$CJ@ DB '(is)', 00H		; `string'
CONST	ENDS
;	COMDAT ??_C@_0BB@JCGLEGP@BINARY_RecvQuest@
CONST	SEGMENT
??_C@_0BB@JCGLEGP@BINARY_RecvQuest@ DB 'BINARY_RecvQuest', 00H ; `string'
CONST	ENDS
;	COMDAT ??_C@_06GEDDNFGH@?$CIisss?$CJ@
CONST	SEGMENT
??_C@_06GEDDNFGH@?$CIisss?$CJ@ DB '(isss)', 00H		; `string'
CONST	ENDS
;	COMDAT ??_C@_09MIAHMBP@highlight@
CONST	SEGMENT
??_C@_09MIAHMBP@highlight@ DB 'highlight', 00H		; `string'
CONST	ENDS
;	COMDAT ??_C@_0BD@MDDAOGBD@?A?$LG?$LA?$KC?$LD?$KN?5?$LP?k?H?$KF?$LM?$KO?$DP?4?4?4?4@
CONST	SEGMENT
??_C@_0BD@MDDAOGBD@?A?$LG?$LA?$KC?$LD?$KN?5?$LP?k?H?$KF?$LM?$KO?$DP?4?4?4?4@ DB 0c1H
	DB	0b6H, 0b0H, 0a2H, 0b3H, 0adH, ' ', 0bfH, 0ebH, 0c8H, 0a5H, 0bcH
	DB	0aeH, '?....', 00H				; `string'
CONST	ENDS
;	COMDAT ??_C@_04MEMAJGDJ@name@
CONST	SEGMENT
??_C@_04MEMAJGDJ@name@ DB 'name', 00H			; `string'
CONST	ENDS
;	COMDAT ??_C@_09IGOOKEAE@icon_name@
CONST	SEGMENT
??_C@_09IGOOKEAE@icon_name@ DB 'icon_name', 00H		; `string'
CONST	ENDS
;	COMDAT ??_C@_09CNONGEHE@icon_type@
CONST	SEGMENT
??_C@_09CNONGEHE@icon_type@ DB 'icon_type', 00H		; `string'
CONST	ENDS
;	COMDAT ??_C@_0BC@HCOLHKJD@BINARY_ClearQuest@
CONST	SEGMENT
??_C@_0BC@HCOLHKJD@BINARY_ClearQuest@ DB 'BINARY_ClearQuest', 00H ; `string'
CONST	ENDS
;	COMDAT ??_C@_03LIHNMIHG@?$CIi?$CJ@
CONST	SEGMENT
??_C@_03LIHNMIHG@?$CIi?$CJ@ DB '(i)', 00H		; `string'
CONST	ENDS
;	COMDAT ??_C@_0O@LBIBFC@OnInsertImage@
CONST	SEGMENT
??_C@_0O@LBIBFC@OnInsertImage@ DB 'OnInsertImage', 00H	; `string'
CONST	ENDS
;	COMDAT ??_C@_08KJCKKFJC@?$CIssssii?$CJ@
CONST	SEGMENT
??_C@_08KJCKKFJC@?$CIssssii?$CJ@ DB '(ssssii)', 00H	; `string'
CONST	ENDS
;	COMDAT ??_C@_0BB@FCLBKNGH@OnInsertItemIcon@
CONST	SEGMENT
??_C@_0BB@FCLBKNGH@OnInsertItemIcon@ DB 'OnInsertItemIcon', 00H ; `string'
CONST	ENDS
;	COMDAT ??_C@_08GKIEGGBC@?$CIsissii?$CJ@
CONST	SEGMENT
??_C@_08GKIEGGBC@?$CIsissii?$CJ@ DB '(sissii)', 00H	; `string'
CONST	ENDS
;	COMDAT ??_C@_03DAKNAIGI@idx@
CONST	SEGMENT
??_C@_03DAKNAIGI@idx@ DB 'idx', 00H			; `string'
CONST	ENDS
;	COMDAT ??_C@_0L@HIIGNCOA@image_type@
CONST	SEGMENT
??_C@_0L@HIIGNCOA@image_type@ DB 'image_type', 00H	; `string'
CONST	ENDS
;	COMDAT ??_C@_05KBOMEDGA@total@
CONST	SEGMENT
??_C@_05KBOMEDGA@total@ DB 'total', 00H			; `string'
CONST	ENDS
;	COMDAT ??_C@_05FKHKFDID@index@
CONST	SEGMENT
??_C@_05FKHKFDID@index@ DB 'index', 00H			; `string'
CONST	ENDS
;	COMDAT ??_C@_04EBPADADD@desc@
CONST	SEGMENT
??_C@_04EBPADADD@desc@ DB 'desc', 00H			; `string'
CONST	ENDS
;	COMDAT ??_C@_05PHLGJONK@title@
CONST	SEGMENT
??_C@_05PHLGJONK@title@ DB 'title', 00H			; `string'
CONST	ENDS
;	COMDAT ??_C@_0L@NDIFBCJA@image_name@
CONST	SEGMENT
??_C@_0L@NDIFBCJA@image_name@ DB 'image_name', 00H	; `string'
CONST	ENDS
;	COMDAT ??_C@_07COJEPNBG@OnImage@
CONST	SEGMENT
??_C@_07COJEPNBG@OnImage@ DB 'OnImage', 00H		; `string'
CONST	ENDS
;	COMDAT ??_C@_05GFDPDNFA@?$CIiis?$CJ@
CONST	SEGMENT
??_C@_05GFDPDNFA@?$CIiis?$CJ@ DB '(iis)', 00H		; `string'
CONST	ENDS
;	COMDAT ??_C@_0BC@OIPDJOGL@OnBackgroundImage@
CONST	SEGMENT
??_C@_0BC@OIPDJOGL@OnBackgroundImage@ DB 'OnBackgroundImage', 00H ; `string'
CONST	ENDS
;	COMDAT ??_C@_0L@ELIGNPMG@OnTopImage@
CONST	SEGMENT
??_C@_0L@ELIGNPMG@OnTopImage@ DB 'OnTopImage', 00H	; `string'
CONST	ENDS
;	COMDAT ??_C@_0M@MHNDOIJH@OnLeftImage@
CONST	SEGMENT
??_C@_0M@MHNDOIJH@OnLeftImage@ DB 'OnLeftImage', 00H	; `string'
CONST	ENDS
;	COMDAT ??_C@_03KJMMOONA@?$CIs?$CJ@
CONST	SEGMENT
??_C@_03KJMMOONA@?$CIs?$CJ@ DB '(s)', 00H		; `string'
CONST	ENDS
;	COMDAT ??_C@_03LOJEKLML@src@
CONST	SEGMENT
??_C@_03LOJEKLML@src@ DB 'src', 00H			; `string'
CONST	ENDS
;	COMDAT ??_C@_09DIPEHMLE@DoneEvent@
CONST	SEGMENT
??_C@_09DIPEHMLE@DoneEvent@ DB 'DoneEvent', 00H		; `string'
CONST	ENDS
;	COMDAT ??_C@_02HCKGKOFO@?$CI?$CJ@
CONST	SEGMENT
??_C@_02HCKGKOFO@?$CI?$CJ@ DB '()', 00H			; `string'
CONST	ENDS
;	COMDAT ??_C@_01OJONOECF@b@
CONST	SEGMENT
??_C@_01OJONOECF@b@ DB 'b', 00H				; `string'
CONST	ENDS
;	COMDAT ??_C@_01JEJKBAGA@g@
CONST	SEGMENT
??_C@_01JEJKBAGA@g@ DB 'g', 00H				; `string'
CONST	ENDS
;	COMDAT ??_C@_01KDCPPGHE@r@
CONST	SEGMENT
??_C@_01KDCPPGHE@r@ DB 'r', 00H				; `string'
CONST	ENDS
;	COMDAT ??_C@_0EH@KHNDFHCA@CPythonEventManager?3?3SetEventHa@
CONST	SEGMENT
??_C@_0EH@KHNDFHCA@CPythonEventManager?3?3SetEventHa@ DB 'CPythonEventMan'
	DB	'ager::SetEventHandler m_EventSetVector[iIndex=%d]==NULL', 00H ; `string'
CONST	ENDS
;	COMDAT ??_C@_0EK@NAEFMGNK@CPythonEventManager?3?3SetRestric@
CONST	SEGMENT
??_C@_0EK@NAEFMGNK@CPythonEventManager?3?3SetRestric@ DB 'CPythonEventMan'
	DB	'ager::SetRestrictedCount m_EventSetVector[iIndex=%d]==NULL', 00H ; `string'
CONST	ENDS
;	COMDAT ??_C@_05MFEJDJP@value@
CONST	SEGMENT
??_C@_05MFEJDJP@value@ DB 'value', 00H			; `string'
CONST	ENDS
;	COMDAT ??_C@_05NCNFOFLM@pitch@
CONST	SEGMENT
??_C@_05NCNFOFLM@pitch@ DB 'pitch', 00H			; `string'
CONST	ENDS
;	COMDAT ??_C@_03BHFFHIBL@rot@
CONST	SEGMENT
??_C@_03BHFFHIBL@rot@ DB 'rot', 00H			; `string'
CONST	ENDS
;	COMDAT ??_C@_08LHFODBFO@distance@
CONST	SEGMENT
??_C@_08LHFODBFO@distance@ DB 'distance', 00H		; `string'
CONST	ENDS
;	COMDAT ??_C@_05HCKPILGO@cross@
CONST	SEGMENT
??_C@_05HCKPILGO@cross@ DB 'cross', 00H			; `string'
CONST	ENDS
;	COMDAT ??_C@_04CHADEDPO@view@
CONST	SEGMENT
??_C@_04CHADEDPO@view@ DB 'view', 00H			; `string'
CONST	ENDS
;	COMDAT ??_C@_02HNLLPFKA@up@
CONST	SEGMENT
??_C@_02HNLLPFKA@up@ DB 'up', 00H			; `string'
CONST	ENDS
;	COMDAT ??_C@_01GLPGHMHM@z@
CONST	SEGMENT
??_C@_01GLPGHMHM@z@ DB 'z', 00H				; `string'
CONST	ENDS
;	COMDAT ??_C@_01EANLCPLP@y@
CONST	SEGMENT
??_C@_01EANLCPLP@y@ DB 'y', 00H				; `string'
CONST	ENDS
;	COMDAT ??_C@_01FJMABOPO@x@
CONST	SEGMENT
??_C@_01FJMABOPO@x@ DB 'x', 00H				; `string'
CONST	ENDS
;	COMDAT ?strEmptyValue@?1??GetArgumentString@@YAABV?$basic_string@DU?$char_traits@D@std@@V?$allocator@D@2@@std@@PBDAAV?$list@USArgumet@script@@V?$allocator@USArgumet@script@@@std@@@3@@Z@4V23@A
_DATA	SEGMENT
?strEmptyValue@?1??GetArgumentString@@YAABV?$basic_string@DU?$char_traits@D@std@@V?$allocator@D@2@@std@@PBDAAV?$list@USArgumet@script@@V?$allocator@USArgumet@script@@@std@@@3@@Z@4V23@A DB 00H ; `GetArgumentString'::`2'::strEmptyValue
	DB	15 DUP(00H)
	DD	00H
	DD	0fH
_DATA	ENDS
;	COMDAT ??_7CPythonEventManager@@6B@
CONST	SEGMENT
??_7CPythonEventManager@@6B@ DD FLAT:??_R4CPythonEventManager@@6B@ ; CPythonEventManager::`vftable'
	DD	FLAT:??_ECPythonEventManager@@UAEPAXI@Z
CONST	ENDS
;	COMDAT ??_7?$CDynamicPool@VCGraphicTextInstance@@@@6B@
CONST	SEGMENT
??_7?$CDynamicPool@VCGraphicTextInstance@@@@6B@ DD FLAT:??_R4?$CDynamicPool@VCGraphicTextInstance@@@@6B@ ; CDynamicPool<CGraphicTextInstance>::`vftable'
	DD	FLAT:??_E?$CDynamicPool@VCGraphicTextInstance@@@@UAEPAXI@Z
CONST	ENDS
;	COMDAT ??_7?$CDynamicPool@USEventSet@CPythonEventManager@@@@6B@
CONST	SEGMENT
??_7?$CDynamicPool@USEventSet@CPythonEventManager@@@@6B@ DD FLAT:??_R4?$CDynamicPool@USEventSet@CPythonEventManager@@@@6B@ ; CDynamicPool<CPythonEventManager::SEventSet>::`vftable'
	DD	FLAT:??_E?$CDynamicPool@USEventSet@CPythonEventManager@@@@UAEPAXI@Z
CONST	ENDS
;	COMDAT ??_7SEventSet@CPythonEventManager@@6B@
CONST	SEGMENT
??_7SEventSet@CPythonEventManager@@6B@ DD FLAT:??_R4SEventSet@CPythonEventManager@@6B@ ; CPythonEventManager::SEventSet::`vftable'
	DD	FLAT:??_ESEventSet@CPythonEventManager@@UAEPAXI@Z
CONST	ENDS
;	COMDAT ??_7?$CSingleton@VCPythonEventManager@@@@6B@
CONST	SEGMENT
??_7?$CSingleton@VCPythonEventManager@@@@6B@ DD FLAT:??_R4?$CSingleton@VCPythonEventManager@@@@6B@ ; CSingleton<CPythonEventManager>::`vftable'
	DD	FLAT:??_E?$CSingleton@VCPythonEventManager@@@@UAEPAXI@Z
CONST	ENDS
;	COMDAT ??_R1A@?0A@EA@bad_array_new_length@std@@8
rdata$r	SEGMENT
??_R1A@?0A@EA@bad_array_new_length@std@@8 DD FLAT:??_R0?AVbad_array_new_length@std@@@8 ; std::bad_array_new_length::`RTTI Base Class Descriptor at (0,-1,0,64)'
	DD	02H
	DD	00H
	DD	0ffffffffH
	DD	00H
	DD	040H
	DD	FLAT:??_R3bad_array_new_length@std@@8
rdata$r	ENDS
;	COMDAT ??_R2bad_array_new_length@std@@8
rdata$r	SEGMENT
??_R2bad_array_new_length@std@@8 DD FLAT:??_R1A@?0A@EA@bad_array_new_length@std@@8 ; std::bad_array_new_length::`RTTI Base Class Array'
	DD	FLAT:??_R1A@?0A@EA@bad_alloc@std@@8
	DD	FLAT:??_R1A@?0A@EA@exception@std@@8
rdata$r	ENDS
;	COMDAT ??_R3bad_array_new_length@std@@8
rdata$r	SEGMENT
??_R3bad_array_new_length@std@@8 DD 00H			; std::bad_array_new_length::`RTTI Class Hierarchy Descriptor'
	DD	00H
	DD	03H
	DD	FLAT:??_R2bad_array_new_length@std@@8
rdata$r	ENDS
;	COMDAT ??_R4bad_array_new_length@std@@6B@
rdata$r	SEGMENT
??_R4bad_array_new_length@std@@6B@ DD 00H		; std::bad_array_new_length::`RTTI Complete Object Locator'
	DD	00H
	DD	00H
	DD	FLAT:??_R0?AVbad_array_new_length@std@@@8
	DD	FLAT:??_R3bad_array_new_length@std@@8
rdata$r	ENDS
;	COMDAT ??_R1A@?0A@EA@bad_alloc@std@@8
rdata$r	SEGMENT
??_R1A@?0A@EA@bad_alloc@std@@8 DD FLAT:??_R0?AVbad_alloc@std@@@8 ; std::bad_alloc::`RTTI Base Class Descriptor at (0,-1,0,64)'
	DD	01H
	DD	00H
	DD	0ffffffffH
	DD	00H
	DD	040H
	DD	FLAT:??_R3bad_alloc@std@@8
rdata$r	ENDS
;	COMDAT ??_R2bad_alloc@std@@8
rdata$r	SEGMENT
??_R2bad_alloc@std@@8 DD FLAT:??_R1A@?0A@EA@bad_alloc@std@@8 ; std::bad_alloc::`RTTI Base Class Array'
	DD	FLAT:??_R1A@?0A@EA@exception@std@@8
rdata$r	ENDS
;	COMDAT ??_R3bad_alloc@std@@8
rdata$r	SEGMENT
??_R3bad_alloc@std@@8 DD 00H				; std::bad_alloc::`RTTI Class Hierarchy Descriptor'
	DD	00H
	DD	02H
	DD	FLAT:??_R2bad_alloc@std@@8
rdata$r	ENDS
;	COMDAT ??_R4bad_alloc@std@@6B@
rdata$r	SEGMENT
??_R4bad_alloc@std@@6B@ DD 00H				; std::bad_alloc::`RTTI Complete Object Locator'
	DD	00H
	DD	00H
	DD	FLAT:??_R0?AVbad_alloc@std@@@8
	DD	FLAT:??_R3bad_alloc@std@@8
rdata$r	ENDS
;	COMDAT ??_R1A@?0A@EA@exception@std@@8
rdata$r	SEGMENT
??_R1A@?0A@EA@exception@std@@8 DD FLAT:??_R0?AVexception@std@@@8 ; std::exception::`RTTI Base Class Descriptor at (0,-1,0,64)'
	DD	00H
	DD	00H
	DD	0ffffffffH
	DD	00H
	DD	040H
	DD	FLAT:??_R3exception@std@@8
rdata$r	ENDS
;	COMDAT ??_R2exception@std@@8
rdata$r	SEGMENT
??_R2exception@std@@8 DD FLAT:??_R1A@?0A@EA@exception@std@@8 ; std::exception::`RTTI Base Class Array'
rdata$r	ENDS
;	COMDAT ??_R3exception@std@@8
rdata$r	SEGMENT
??_R3exception@std@@8 DD 00H				; std::exception::`RTTI Class Hierarchy Descriptor'
	DD	00H
	DD	01H
	DD	FLAT:??_R2exception@std@@8
rdata$r	ENDS
;	COMDAT ??_R4exception@std@@6B@
rdata$r	SEGMENT
??_R4exception@std@@6B@ DD 00H				; std::exception::`RTTI Complete Object Locator'
	DD	00H
	DD	00H
	DD	FLAT:??_R0?AVexception@std@@@8
	DD	FLAT:??_R3exception@std@@8
rdata$r	ENDS
;	COMDAT ??_C@_0BA@FOIKENOD@vector?5too?5long@
CONST	SEGMENT
??_C@_0BA@FOIKENOD@vector?5too?5long@ DB 'vector too long', 00H ; `string'
CONST	ENDS
;	COMDAT ??_C@_00CNPNBAHC@@
CONST	SEGMENT
??_C@_00CNPNBAHC@@ DB 00H				; `string'
CONST	ENDS
;	COMDAT ??_C@_0BB@GCADKGJO@map?1set?5too?5long@
CONST	SEGMENT
??_C@_0BB@GCADKGJO@map?1set?5too?5long@ DB 'map/set too long', 00H ; `string'
CONST	ENDS
;	COMDAT ??_C@_0BA@JFNIOLAK@string?5too?5long@
CONST	SEGMENT
??_C@_0BA@JFNIOLAK@string?5too?5long@ DB 'string too long', 00H ; `string'
CONST	ENDS
;	COMDAT __CT??_R0?AVexception@std@@@8??0exception@std@@QAE@ABV01@@Z12
xdata$x	SEGMENT
__CT??_R0?AVexception@std@@@8??0exception@std@@QAE@ABV01@@Z12 DD 00H
	DD	FLAT:??_R0?AVexception@std@@@8
	DD	00H
	DD	0ffffffffH
	ORG $+4
	DD	0cH
	DD	FLAT:??0exception@std@@QAE@ABV01@@Z
xdata$x	ENDS
;	COMDAT ??_R0?AVexception@std@@@8
data$r	SEGMENT
??_R0?AVexception@std@@@8 DD FLAT:??_7type_info@@6B@	; std::exception `RTTI Type Descriptor'
	DD	00H
	DB	'.?AVexception@std@@', 00H
data$r	ENDS
;	COMDAT __CT??_R0?AVbad_alloc@std@@@8??0bad_alloc@std@@QAE@ABV01@@Z12
xdata$x	SEGMENT
__CT??_R0?AVbad_alloc@std@@@8??0bad_alloc@std@@QAE@ABV01@@Z12 DD 010H
	DD	FLAT:??_R0?AVbad_alloc@std@@@8
	DD	00H
	DD	0ffffffffH
	ORG $+4
	DD	0cH
	DD	FLAT:??0bad_alloc@std@@QAE@ABV01@@Z
xdata$x	ENDS
;	COMDAT ??_R0?AVbad_alloc@std@@@8
data$r	SEGMENT
??_R0?AVbad_alloc@std@@@8 DD FLAT:??_7type_info@@6B@	; std::bad_alloc `RTTI Type Descriptor'
	DD	00H
	DB	'.?AVbad_alloc@std@@', 00H
data$r	ENDS
;	COMDAT __CT??_R0?AVbad_array_new_length@std@@@8??0bad_array_new_length@std@@QAE@ABV01@@Z12
xdata$x	SEGMENT
__CT??_R0?AVbad_array_new_length@std@@@8??0bad_array_new_length@std@@QAE@ABV01@@Z12 DD 00H
	DD	FLAT:??_R0?AVbad_array_new_length@std@@@8
	DD	00H
	DD	0ffffffffH
	ORG $+4
	DD	0cH
	DD	FLAT:??0bad_array_new_length@std@@QAE@ABV01@@Z
xdata$x	ENDS
;	COMDAT ??_R0?AVbad_array_new_length@std@@@8
data$r	SEGMENT
??_R0?AVbad_array_new_length@std@@@8 DD FLAT:??_7type_info@@6B@ ; std::bad_array_new_length `RTTI Type Descriptor'
	DD	00H
	DB	'.?AVbad_array_new_length@std@@', 00H
data$r	ENDS
;	COMDAT __CTA3?AVbad_array_new_length@std@@
xdata$x	SEGMENT
__CTA3?AVbad_array_new_length@std@@ DD 03H
	DD	FLAT:__CT??_R0?AVbad_array_new_length@std@@@8??0bad_array_new_length@std@@QAE@ABV01@@Z12
	DD	FLAT:__CT??_R0?AVbad_alloc@std@@@8??0bad_alloc@std@@QAE@ABV01@@Z12
	DD	FLAT:__CT??_R0?AVexception@std@@@8??0exception@std@@QAE@ABV01@@Z12
xdata$x	ENDS
;	COMDAT __TI3?AVbad_array_new_length@std@@
xdata$x	SEGMENT
__TI3?AVbad_array_new_length@std@@ DD 00H
	DD	FLAT:??1bad_array_new_length@std@@UAE@XZ
	DD	00H
	DD	FLAT:__CTA3?AVbad_array_new_length@std@@
xdata$x	ENDS
;	COMDAT ??_C@_0BF@KINCDENJ@bad?5array?5new?5length@
CONST	SEGMENT
??_C@_0BF@KINCDENJ@bad?5array?5new?5length@ DB 'bad array new length', 00H ; `string'
CONST	ENDS
;	COMDAT ??_7bad_array_new_length@std@@6B@
CONST	SEGMENT
??_7bad_array_new_length@std@@6B@ DD FLAT:??_R4bad_array_new_length@std@@6B@ ; std::bad_array_new_length::`vftable'
	DD	FLAT:??_Ebad_array_new_length@std@@UAEPAXI@Z
	DD	FLAT:?what@exception@std@@UBEPBDXZ
CONST	ENDS
;	COMDAT ??_7bad_alloc@std@@6B@
CONST	SEGMENT
??_7bad_alloc@std@@6B@ DD FLAT:??_R4bad_alloc@std@@6B@	; std::bad_alloc::`vftable'
	DD	FLAT:??_Ebad_alloc@std@@UAEPAXI@Z
	DD	FLAT:?what@exception@std@@UBEPBDXZ
CONST	ENDS
;	COMDAT ??_C@_0BC@EOODALEL@Unknown?5exception@
CONST	SEGMENT
??_C@_0BC@EOODALEL@Unknown?5exception@ DB 'Unknown exception', 00H ; `string'
CONST	ENDS
;	COMDAT ??_7exception@std@@6B@
CONST	SEGMENT
??_7exception@std@@6B@ DD FLAT:??_R4exception@std@@6B@	; std::exception::`vftable'
	DD	FLAT:??_Eexception@std@@UAEPAXI@Z
	DD	FLAT:?what@exception@std@@UBEPBDXZ
CONST	ENDS
;	COMDAT xdata$x
xdata$x	SEGMENT
__unwindtable$??$?0ABUpiecewise_construct_t@std@@V?$tuple@$$QAV?$basic_string@DU?$char_traits@D@std@@V?$allocator@D@2@@std@@@1@V?$tuple@$$V@1@@?$_Tree_temp_node@V?$allocator@U?$_Tree_node@U?$pair@$$CBV?$basic_string@DU?$char_traits@D@std@@V?$allocator@D@2@@std@@H@std@@PAX@std@@@std@@@std@@QAE@AAV?$allocator@U?$_Tree_node@U?$pair@$$CBV?$basic_string@DU?$char_traits@D@std@@V?$allocator@D@2@@std@@H@std@@PAX@std@@@1@PAU?$_Tree_node@U?$pair@$$CBV?$basic_string@DU?$char_traits@D@std@@V?$allocator@D@2@@std@@H@std@@PAX@1@ABUpiecewise_construct_t@1@$$QAV?$tuple@$$QAV?$basic_string@DU?$char_traits@D@std@@V?$allocator@D@2@@std@@@1@$$QAV?$tuple@$$V@1@@Z DD 0ffffffffH
	DD	FLAT:__unwindfunclet$??$?0ABUpiecewise_construct_t@std@@V?$tuple@$$QAV?$basic_string@DU?$char_traits@D@std@@V?$allocator@D@2@@std@@@1@V?$tuple@$$V@1@@?$_Tree_temp_node@V?$allocator@U?$_Tree_node@U?$pair@$$CBV?$basic_string@DU?$char_traits@D@std@@V?$allocator@D@2@@std@@H@std@@PAX@std@@@std@@@std@@QAE@AAV?$allocator@U?$_Tree_node@U?$pair@$$CBV?$basic_string@DU?$char_traits@D@std@@V?$allocator@D@2@@std@@H@std@@PAX@std@@@1@PAU?$_Tree_node@U?$pair@$$CBV?$basic_string@DU?$char_traits@D@std@@V?$allocator@D@2@@std@@H@std@@PAX@1@ABUpiecewise_construct_t@1@$$QAV?$tuple@$$QAV?$basic_string@DU?$char_traits@D@std@@V?$allocator@D@2@@std@@@1@$$QAV?$tuple@$$V@1@@Z$1
__ehfuncinfo$??$?0ABUpiecewise_construct_t@std@@V?$tuple@$$QAV?$basic_string@DU?$char_traits@D@std@@V?$allocator@D@2@@std@@@1@V?$tuple@$$V@1@@?$_Tree_temp_node@V?$allocator@U?$_Tree_node@U?$pair@$$CBV?$basic_string@DU?$char_traits@D@std@@V?$allocator@D@2@@std@@H@std@@PAX@std@@@std@@@std@@QAE@AAV?$allocator@U?$_Tree_node@U?$pair@$$CBV?$basic_string@DU?$char_traits@D@std@@V?$allocator@D@2@@std@@H@std@@PAX@std@@@1@PAU?$_Tree_node@U?$pair@$$CBV?$basic_string@DU?$char_traits@D@std@@V?$allocator@D@2@@std@@H@std@@PAX@1@ABUpiecewise_construct_t@1@$$QAV?$tuple@$$QAV?$basic_string@DU?$char_traits@D@std@@V?$allocator@D@2@@std@@@1@$$QAV?$tuple@$$V@1@@Z DD 019930522H
	DD	01H
	DD	FLAT:__unwindtable$??$?0ABUpiecewise_construct_t@std@@V?$tuple@$$QAV?$basic_string@DU?$char_traits@D@std@@V?$allocator@D@2@@std@@@1@V?$tuple@$$V@1@@?$_Tree_temp_node@V?$allocator@U?$_Tree_node@U?$pair@$$CBV?$basic_string@DU?$char_traits@D@std@@V?$allocator@D@2@@std@@H@std@@PAX@std@@@std@@@std@@QAE@AAV?$allocator@U?$_Tree_node@U?$pair@$$CBV?$basic_string@DU?$char_traits@D@std@@V?$allocator@D@2@@std@@H@std@@PAX@std@@@1@PAU?$_Tree_node@U?$pair@$$CBV?$basic_string@DU?$char_traits@D@std@@V?$allocator@D@2@@std@@H@std@@PAX@1@ABUpiecewise_construct_t@1@$$QAV?$tuple@$$QAV?$basic_string@DU?$char_traits@D@std@@V?$allocator@D@2@@std@@@1@$$QAV?$tuple@$$V@1@@Z
	DD	2 DUP(00H)
	DD	2 DUP(00H)
	DD	00H
	DD	01H
xdata$x	ENDS
;	COMDAT xdata$x
xdata$x	SEGMENT
__unwindtable$??0?$_Tree_temp_node_alloc@V?$allocator@U?$_Tree_node@U?$pair@$$CBV?$basic_string@DU?$char_traits@D@std@@V?$allocator@D@2@@std@@H@std@@PAX@std@@@std@@@std@@QAE@AAV?$allocator@U?$_Tree_node@U?$pair@$$CBV?$basic_string@DU?$char_traits@D@std@@V?$allocator@D@2@@std@@H@std@@PAX@std@@@1@@Z DD 0ffffffffH
	DD	FLAT:__unwindfunclet$??0?$_Tree_temp_node_alloc@V?$allocator@U?$_Tree_node@U?$pair@$$CBV?$basic_string@DU?$char_traits@D@std@@V?$allocator@D@2@@std@@H@std@@PAX@std@@@std@@@std@@QAE@AAV?$allocator@U?$_Tree_node@U?$pair@$$CBV?$basic_string@DU?$char_traits@D@std@@V?$allocator@D@2@@std@@H@std@@PAX@std@@@1@@Z$0
__ehfuncinfo$??0?$_Tree_temp_node_alloc@V?$allocator@U?$_Tree_node@U?$pair@$$CBV?$basic_string@DU?$char_traits@D@std@@V?$allocator@D@2@@std@@H@std@@PAX@std@@@std@@@std@@QAE@AAV?$allocator@U?$_Tree_node@U?$pair@$$CBV?$basic_string@DU?$char_traits@D@std@@V?$allocator@D@2@@std@@H@std@@PAX@std@@@1@@Z DD 019930522H
	DD	01H
	DD	FLAT:__unwindtable$??0?$_Tree_temp_node_alloc@V?$allocator@U?$_Tree_node@U?$pair@$$CBV?$basic_string@DU?$char_traits@D@std@@V?$allocator@D@2@@std@@H@std@@PAX@std@@@std@@@std@@QAE@AAV?$allocator@U?$_Tree_node@U?$pair@$$CBV?$basic_string@DU?$char_traits@D@std@@V?$allocator@D@2@@std@@H@std@@PAX@std@@@1@@Z
	DD	2 DUP(00H)
	DD	2 DUP(00H)
	DD	00H
	DD	01H
xdata$x	ENDS
;	COMDAT xdata$x
xdata$x	SEGMENT
__unwindtable$??$?0ABUSTextLine@CPythonEventManager@@@?$_List_node_emplace_op2@V?$allocator@U?$_List_node@USTextLine@CPythonEventManager@@PAX@std@@@std@@@std@@QAE@AAV?$allocator@U?$_List_node@USTextLine@CPythonEventManager@@PAX@std@@@1@ABUSTextLine@CPythonEventManager@@@Z DD 0ffffffffH
	DD	FLAT:__unwindfunclet$??$?0ABUSTextLine@CPythonEventManager@@@?$_List_node_emplace_op2@V?$allocator@U?$_List_node@USTextLine@CPythonEventManager@@PAX@std@@@std@@@std@@QAE@AAV?$allocator@U?$_List_node@USTextLine@CPythonEventManager@@PAX@std@@@1@ABUSTextLine@CPythonEventManager@@@Z$0
__ehfuncinfo$??$?0ABUSTextLine@CPythonEventManager@@@?$_List_node_emplace_op2@V?$allocator@U?$_List_node@USTextLine@CPythonEventManager@@PAX@std@@@std@@@std@@QAE@AAV?$allocator@U?$_List_node@USTextLine@CPythonEventManager@@PAX@std@@@1@ABUSTextLine@CPythonEventManager@@@Z DD 019930522H
	DD	01H
	DD	FLAT:__unwindtable$??$?0ABUSTextLine@CPythonEventManager@@@?$_List_node_emplace_op2@V?$allocator@U?$_List_node@USTextLine@CPythonEventManager@@PAX@std@@@std@@@std@@QAE@AAV?$allocator@U?$_List_node@USTextLine@CPythonEventManager@@PAX@std@@@1@ABUSTextLine@CPythonEventManager@@@Z
	DD	2 DUP(00H)
	DD	2 DUP(00H)
	DD	00H
	DD	01H
xdata$x	ENDS
;	COMDAT xdata$x
xdata$x	SEGMENT
__unwindtable$??$_Try_emplace@V?$basic_string@DU?$char_traits@D@std@@V?$allocator@D@2@@std@@$$V@?$map@V?$basic_string@DU?$char_traits@D@std@@V?$allocator@D@2@@std@@HU?$less@V?$basic_string@DU?$char_traits@D@std@@V?$allocator@D@2@@std@@@2@V?$allocator@U?$pair@$$CBV?$basic_string@DU?$char_traits@D@std@@V?$allocator@D@2@@std@@H@std@@@2@@std@@AAE?AU?$pair@PAU?$_Tree_node@U?$pair@$$CBV?$basic_string@DU?$char_traits@D@std@@V?$allocator@D@2@@std@@H@std@@PAX@std@@_N@1@$$QAV?$basic_string@DU?$char_traits@D@std@@V?$allocator@D@2@@1@@Z DD 0ffffffffH
	DD	FLAT:__unwindfunclet$??$_Try_emplace@V?$basic_string@DU?$char_traits@D@std@@V?$allocator@D@2@@std@@$$V@?$map@V?$basic_string@DU?$char_traits@D@std@@V?$allocator@D@2@@std@@HU?$less@V?$basic_string@DU?$char_traits@D@std@@V?$allocator@D@2@@std@@@2@V?$allocator@U?$pair@$$CBV?$basic_string@DU?$char_traits@D@std@@V?$allocator@D@2@@std@@H@std@@@2@@std@@AAE?AU?$pair@PAU?$_Tree_node@U?$pair@$$CBV?$basic_string@DU?$char_traits@D@std@@V?$allocator@D@2@@std@@H@std@@PAX@std@@_N@1@$$QAV?$basic_string@DU?$char_traits@D@std@@V?$allocator@D@2@@1@@Z$2
__ehfuncinfo$??$_Try_emplace@V?$basic_string@DU?$char_traits@D@std@@V?$allocator@D@2@@std@@$$V@?$map@V?$basic_string@DU?$char_traits@D@std@@V?$allocator@D@2@@std@@HU?$less@V?$basic_string@DU?$char_traits@D@std@@V?$allocator@D@2@@std@@@2@V?$allocator@U?$pair@$$CBV?$basic_string@DU?$char_traits@D@std@@V?$allocator@D@2@@std@@H@std@@@2@@std@@AAE?AU?$pair@PAU?$_Tree_node@U?$pair@$$CBV?$basic_string@DU?$char_traits@D@std@@V?$allocator@D@2@@std@@H@std@@PAX@std@@_N@1@$$QAV?$basic_string@DU?$char_traits@D@std@@V?$allocator@D@2@@1@@Z DD 019930522H
	DD	01H
	DD	FLAT:__unwindtable$??$_Try_emplace@V?$basic_string@DU?$char_traits@D@std@@V?$allocator@D@2@@std@@$$V@?$map@V?$basic_string@DU?$char_traits@D@std@@V?$allocator@D@2@@std@@HU?$less@V?$basic_string@DU?$char_traits@D@std@@V?$allocator@D@2@@std@@@2@V?$allocator@U?$pair@$$CBV?$basic_string@DU?$char_traits@D@std@@V?$allocator@D@2@@std@@H@std@@@2@@std@@AAE?AU?$pair@PAU?$_Tree_node@U?$pair@$$CBV?$basic_string@DU?$char_traits@D@std@@V?$allocator@D@2@@std@@H@std@@PAX@std@@_N@1@$$QAV?$basic_string@DU?$char_traits@D@std@@V?$allocator@D@2@@1@@Z
	DD	2 DUP(00H)
	DD	2 DUP(00H)
	DD	00H
	DD	01H
xdata$x	ENDS
;	COMDAT xdata$x
xdata$x	SEGMENT
__unwindtable$??$_Emplace@ABUSTextLine@CPythonEventManager@@@?$list@USTextLine@CPythonEventManager@@V?$allocator@USTextLine@CPythonEventManager@@@std@@@std@@QAEPAU?$_List_node@USTextLine@CPythonEventManager@@PAX@1@QAU21@ABUSTextLine@CPythonEventManager@@@Z DD 0ffffffffH
	DD	FLAT:__unwindfunclet$??$_Emplace@ABUSTextLine@CPythonEventManager@@@?$list@USTextLine@CPythonEventManager@@V?$allocator@USTextLine@CPythonEventManager@@@std@@@std@@QAEPAU?$_List_node@USTextLine@CPythonEventManager@@PAX@1@QAU21@ABUSTextLine@CPythonEventManager@@@Z$1
__ehfuncinfo$??$_Emplace@ABUSTextLine@CPythonEventManager@@@?$list@USTextLine@CPythonEventManager@@V?$allocator@USTextLine@CPythonEventManager@@@std@@@std@@QAEPAU?$_List_node@USTextLine@CPythonEventManager@@PAX@1@QAU21@ABUSTextLine@CPythonEventManager@@@Z DD 019930522H
	DD	01H
	DD	FLAT:__unwindtable$??$_Emplace@ABUSTextLine@CPythonEventManager@@@?$list@USTextLine@CPythonEventManager@@V?$allocator@USTextLine@CPythonEventManager@@@std@@@std@@QAEPAU?$_List_node@USTextLine@CPythonEventManager@@PAX@1@QAU21@ABUSTextLine@CPythonEventManager@@@Z
	DD	2 DUP(00H)
	DD	2 DUP(00H)
	DD	00H
	DD	01H
xdata$x	ENDS
;	COMDAT xdata$x
xdata$x	SEGMENT
__unwindtable$?GetArgumentString@@YAABV?$basic_string@DU?$char_traits@D@std@@V?$allocator@D@2@@std@@PBDAAV?$list@USArgumet@script@@V?$allocator@USArgumet@script@@@std@@@2@@Z DD 0ffffffffH
	DD	FLAT:__unwindfunclet$?GetArgumentString@@YAABV?$basic_string@DU?$char_traits@D@std@@V?$allocator@D@2@@std@@PBDAAV?$list@USArgumet@script@@V?$allocator@USArgumet@script@@@std@@@2@@Z$0
__ehfuncinfo$?GetArgumentString@@YAABV?$basic_string@DU?$char_traits@D@std@@V?$allocator@D@2@@std@@PBDAAV?$list@USArgumet@script@@V?$allocator@USArgumet@script@@@std@@@2@@Z DD 019930522H
	DD	01H
	DD	FLAT:__unwindtable$?GetArgumentString@@YAABV?$basic_string@DU?$char_traits@D@std@@V?$allocator@D@2@@std@@PBDAAV?$list@USArgumet@script@@V?$allocator@USArgumet@script@@@std@@@2@@Z
	DD	2 DUP(00H)
	DD	2 DUP(00H)
	DD	00H
	DD	01H
xdata$x	ENDS
;	COMDAT xdata$x
xdata$x	SEGMENT
__unwindtable$?Alloc@?$CDynamicPool@VCGraphicTextInstance@@@@QAEPAVCGraphicTextInstance@@XZ DD 0ffffffffH
	DD	FLAT:__unwindfunclet$?Alloc@?$CDynamicPool@VCGraphicTextInstance@@@@QAEPAVCGraphicTextInstance@@XZ$0
__ehfuncinfo$?Alloc@?$CDynamicPool@VCGraphicTextInstance@@@@QAEPAVCGraphicTextInstance@@XZ DD 019930522H
	DD	01H
	DD	FLAT:__unwindtable$?Alloc@?$CDynamicPool@VCGraphicTextInstance@@@@QAEPAVCGraphicTextInstance@@XZ
	DD	2 DUP(00H)
	DD	2 DUP(00H)
	DD	00H
	DD	01H
xdata$x	ENDS
;	COMDAT xdata$x
xdata$x	SEGMENT
__unwindtable$?Alloc@?$CDynamicPool@USEventSet@CPythonEventManager@@@@QAEPAUSEventSet@CPythonEventManager@@XZ DD 0ffffffffH
	DD	FLAT:__unwindfunclet$?Alloc@?$CDynamicPool@USEventSet@CPythonEventManager@@@@QAEPAUSEventSet@CPythonEventManager@@XZ$0
	DD	00H
	DD	FLAT:__unwindfunclet$?Alloc@?$CDynamicPool@USEventSet@CPythonEventManager@@@@QAEPAUSEventSet@CPythonEventManager@@XZ$1
	DD	01H
	DD	FLAT:__unwindfunclet$?Alloc@?$CDynamicPool@USEventSet@CPythonEventManager@@@@QAEPAUSEventSet@CPythonEventManager@@XZ$2
__ehfuncinfo$?Alloc@?$CDynamicPool@USEventSet@CPythonEventManager@@@@QAEPAUSEventSet@CPythonEventManager@@XZ DD 019930522H
	DD	03H
	DD	FLAT:__unwindtable$?Alloc@?$CDynamicPool@USEventSet@CPythonEventManager@@@@QAEPAUSEventSet@CPythonEventManager@@XZ
	DD	2 DUP(00H)
	DD	2 DUP(00H)
	DD	00H
	DD	01H
xdata$x	ENDS
;	COMDAT xdata$x
xdata$x	SEGMENT
__unwindtable$?ProcessEventSet@CPythonEventManager@@IAEXPAUSEventSet@1@@Z DD 0ffffffffH
	DD	FLAT:__unwindfunclet$?ProcessEventSet@CPythonEventManager@@IAEXPAUSEventSet@1@@Z$0
__ehfuncinfo$?ProcessEventSet@CPythonEventManager@@IAEXPAUSEventSet@1@@Z DD 019930522H
	DD	01H
	DD	FLAT:__unwindtable$?ProcessEventSet@CPythonEventManager@@IAEXPAUSEventSet@1@@Z
	DD	2 DUP(00H)
	DD	2 DUP(00H)
	DD	00H
	DD	01H
xdata$x	ENDS
;	COMDAT xdata$x
xdata$x	SEGMENT
__unwindtable$?__InsertLine@CPythonEventManager@@IAEXAAUSEventSet@1@HH@Z DD 0ffffffffH
	DD	FLAT:__unwindfunclet$?__InsertLine@CPythonEventManager@@IAEXAAUSEventSet@1@HH@Z$1
	DD	0ffffffffH
	DD	FLAT:__unwindfunclet$?__InsertLine@CPythonEventManager@@IAEXAAUSEventSet@1@HH@Z$3
__ehfuncinfo$?__InsertLine@CPythonEventManager@@IAEXAAUSEventSet@1@HH@Z DD 019930522H
	DD	02H
	DD	FLAT:__unwindtable$?__InsertLine@CPythonEventManager@@IAEXAAUSEventSet@1@HH@Z
	DD	2 DUP(00H)
	DD	2 DUP(00H)
	DD	00H
	DD	01H
xdata$x	ENDS
;	COMDAT xdata$x
xdata$x	SEGMENT
__unwindtable$?RegisterEventSetFromString@CPythonEventManager@@QAEHABV?$basic_string@DU?$char_traits@D@std@@V?$allocator@D@2@@std@@@Z DD 0ffffffffH
	DD	FLAT:__unwindfunclet$?RegisterEventSetFromString@CPythonEventManager@@QAEHABV?$basic_string@DU?$char_traits@D@std@@V?$allocator@D@2@@std@@@Z$0
	DD	00H
	DD	FLAT:__unwindfunclet$?RegisterEventSetFromString@CPythonEventManager@@QAEHABV?$basic_string@DU?$char_traits@D@std@@V?$allocator@D@2@@std@@@Z$1
__ehfuncinfo$?RegisterEventSetFromString@CPythonEventManager@@QAEHABV?$basic_string@DU?$char_traits@D@std@@V?$allocator@D@2@@std@@@Z DD 019930522H
	DD	02H
	DD	FLAT:__unwindtable$?RegisterEventSetFromString@CPythonEventManager@@QAEHABV?$basic_string@DU?$char_traits@D@std@@V?$allocator@D@2@@std@@@Z
	DD	2 DUP(00H)
	DD	2 DUP(00H)
	DD	00H
	DD	01H
xdata$x	ENDS
;	COMDAT xdata$x
xdata$x	SEGMENT
__unwindtable$?RegisterEventSet@CPythonEventManager@@QAEHPBD@Z DD 0ffffffffH
	DD	FLAT:__unwindfunclet$?RegisterEventSet@CPythonEventManager@@QAEHPBD@Z$0
	DD	00H
	DD	FLAT:__unwindfunclet$?RegisterEventSet@CPythonEventManager@@QAEHPBD@Z$1
__ehfuncinfo$?RegisterEventSet@CPythonEventManager@@QAEHPBD@Z DD 019930522H
	DD	02H
	DD	FLAT:__unwindtable$?RegisterEventSet@CPythonEventManager@@QAEHPBD@Z
	DD	2 DUP(00H)
	DD	2 DUP(00H)
	DD	00H
	DD	01H
xdata$x	ENDS
;	COMDAT xdata$x
xdata$x	SEGMENT
__ehfuncinfo$??0CPythonEventManager@@QAE@XZ DD 019930522H
	DD	034H
	DD	FLAT:__unwindtable$??0CPythonEventManager@@QAE@XZ
	DD	2 DUP(00H)
	DD	2 DUP(00H)
	DD	00H
	DD	01H
__unwindtable$??0CPythonEventManager@@QAE@XZ DD 0ffffffffH
	DD	FLAT:__unwindfunclet$??0CPythonEventManager@@QAE@XZ$0
	DD	00H
	DD	FLAT:__unwindfunclet$??0CPythonEventManager@@QAE@XZ$1
	DD	01H
	DD	FLAT:__unwindfunclet$??0CPythonEventManager@@QAE@XZ$2
	DD	02H
	DD	FLAT:__unwindfunclet$??0CPythonEventManager@@QAE@XZ$3
	DD	03H
	DD	FLAT:__unwindfunclet$??0CPythonEventManager@@QAE@XZ$4
	DD	04H
	DD	FLAT:__unwindfunclet$??0CPythonEventManager@@QAE@XZ$5
	DD	05H
	DD	FLAT:__unwindfunclet$??0CPythonEventManager@@QAE@XZ$6
	DD	06H
	DD	FLAT:__unwindfunclet$??0CPythonEventManager@@QAE@XZ$55
	DD	05H
	DD	FLAT:__unwindfunclet$??0CPythonEventManager@@QAE@XZ$7
	DD	08H
	DD	FLAT:__unwindfunclet$??0CPythonEventManager@@QAE@XZ$68
	DD	05H
	DD	FLAT:__unwindfunclet$??0CPythonEventManager@@QAE@XZ$8
	DD	0aH
	DD	FLAT:__unwindfunclet$??0CPythonEventManager@@QAE@XZ$81
	DD	05H
	DD	FLAT:__unwindfunclet$??0CPythonEventManager@@QAE@XZ$9
	DD	0cH
	DD	FLAT:__unwindfunclet$??0CPythonEventManager@@QAE@XZ$94
	DD	05H
	DD	FLAT:__unwindfunclet$??0CPythonEventManager@@QAE@XZ$10
	DD	05H
	DD	FLAT:__unwindfunclet$??0CPythonEventManager@@QAE@XZ$11
	DD	05H
	DD	FLAT:__unwindfunclet$??0CPythonEventManager@@QAE@XZ$12
	DD	05H
	DD	FLAT:__unwindfunclet$??0CPythonEventManager@@QAE@XZ$13
	DD	05H
	DD	FLAT:__unwindfunclet$??0CPythonEventManager@@QAE@XZ$14
	DD	05H
	DD	FLAT:__unwindfunclet$??0CPythonEventManager@@QAE@XZ$15
	DD	05H
	DD	FLAT:__unwindfunclet$??0CPythonEventManager@@QAE@XZ$16
	DD	05H
	DD	FLAT:__unwindfunclet$??0CPythonEventManager@@QAE@XZ$17
	DD	05H
	DD	FLAT:__unwindfunclet$??0CPythonEventManager@@QAE@XZ$18
	DD	05H
	DD	FLAT:__unwindfunclet$??0CPythonEventManager@@QAE@XZ$19
	DD	05H
	DD	FLAT:__unwindfunclet$??0CPythonEventManager@@QAE@XZ$20
	DD	05H
	DD	FLAT:__unwindfunclet$??0CPythonEventManager@@QAE@XZ$21
	DD	05H
	DD	FLAT:__unwindfunclet$??0CPythonEventManager@@QAE@XZ$22
	DD	05H
	DD	FLAT:__unwindfunclet$??0CPythonEventManager@@QAE@XZ$23
	DD	05H
	DD	FLAT:__unwindfunclet$??0CPythonEventManager@@QAE@XZ$24
	DD	05H
	DD	FLAT:__unwindfunclet$??0CPythonEventManager@@QAE@XZ$25
	DD	05H
	DD	FLAT:__unwindfunclet$??0CPythonEventManager@@QAE@XZ$26
	DD	05H
	DD	FLAT:__unwindfunclet$??0CPythonEventManager@@QAE@XZ$27
	DD	05H
	DD	FLAT:__unwindfunclet$??0CPythonEventManager@@QAE@XZ$28
	DD	05H
	DD	FLAT:__unwindfunclet$??0CPythonEventManager@@QAE@XZ$29
	DD	05H
	DD	FLAT:__unwindfunclet$??0CPythonEventManager@@QAE@XZ$30
	DD	05H
	DD	FLAT:__unwindfunclet$??0CPythonEventManager@@QAE@XZ$31
	DD	05H
	DD	FLAT:__unwindfunclet$??0CPythonEventManager@@QAE@XZ$32
	DD	05H
	DD	FLAT:__unwindfunclet$??0CPythonEventManager@@QAE@XZ$33
	DD	05H
	DD	FLAT:__unwindfunclet$??0CPythonEventManager@@QAE@XZ$34
	DD	05H
	DD	FLAT:__unwindfunclet$??0CPythonEventManager@@QAE@XZ$35
	DD	05H
	DD	FLAT:__unwindfunclet$??0CPythonEventManager@@QAE@XZ$36
	DD	05H
	DD	FLAT:__unwindfunclet$??0CPythonEventManager@@QAE@XZ$37
	DD	05H
	DD	FLAT:__unwindfunclet$??0CPythonEventManager@@QAE@XZ$38
	DD	05H
	DD	FLAT:__unwindfunclet$??0CPythonEventManager@@QAE@XZ$39
	DD	05H
	DD	FLAT:__unwindfunclet$??0CPythonEventManager@@QAE@XZ$40
	DD	05H
	DD	FLAT:__unwindfunclet$??0CPythonEventManager@@QAE@XZ$41
	DD	05H
	DD	FLAT:__unwindfunclet$??0CPythonEventManager@@QAE@XZ$42
	DD	05H
	DD	FLAT:__unwindfunclet$??0CPythonEventManager@@QAE@XZ$43
	DD	05H
	DD	FLAT:__unwindfunclet$??0CPythonEventManager@@QAE@XZ$44
	DD	05H
	DD	FLAT:__unwindfunclet$??0CPythonEventManager@@QAE@XZ$45
	DD	05H
	DD	FLAT:__unwindfunclet$??0CPythonEventManager@@QAE@XZ$46
	DD	05H
	DD	FLAT:__unwindfunclet$??0CPythonEventManager@@QAE@XZ$47
xdata$x	ENDS
;	COMDAT xdata$x
xdata$x	SEGMENT
__unwindtable$??0SEventSet@CPythonEventManager@@QAE@XZ DD 0ffffffffH
	DD	FLAT:__unwindfunclet$??0SEventSet@CPythonEventManager@@QAE@XZ$0
	DD	00H
	DD	FLAT:__unwindfunclet$??0SEventSet@CPythonEventManager@@QAE@XZ$1
__ehfuncinfo$??0SEventSet@CPythonEventManager@@QAE@XZ DD 019930522H
	DD	02H
	DD	FLAT:__unwindtable$??0SEventSet@CPythonEventManager@@QAE@XZ
	DD	2 DUP(00H)
	DD	2 DUP(00H)
	DD	00H
	DD	01H
xdata$x	ENDS
;	COMDAT xdata$x
xdata$x	SEGMENT
__unwindtable$?push_back@?$list@USTextLine@CPythonEventManager@@V?$allocator@USTextLine@CPythonEventManager@@@std@@@std@@QAEXABUSTextLine@CPythonEventManager@@@Z DD 0ffffffffH
	DD	FLAT:__unwindfunclet$?push_back@?$list@USTextLine@CPythonEventManager@@V?$allocator@USTextLine@CPythonEventManager@@@std@@@std@@QAEXABUSTextLine@CPythonEventManager@@@Z$1
__ehfuncinfo$?push_back@?$list@USTextLine@CPythonEventManager@@V?$allocator@USTextLine@CPythonEventManager@@@std@@@std@@QAEXABUSTextLine@CPythonEventManager@@@Z DD 019930522H
	DD	01H
	DD	FLAT:__unwindtable$?push_back@?$list@USTextLine@CPythonEventManager@@V?$allocator@USTextLine@CPythonEventManager@@@std@@@std@@QAEXABUSTextLine@CPythonEventManager@@@Z
	DD	2 DUP(00H)
	DD	2 DUP(00H)
	DD	00H
	DD	01H
xdata$x	ENDS
;	COMDAT xdata$x
xdata$x	SEGMENT
__unwindtable$??A?$map@V?$basic_string@DU?$char_traits@D@std@@V?$allocator@D@2@@std@@HU?$less@V?$basic_string@DU?$char_traits@D@std@@V?$allocator@D@2@@std@@@2@V?$allocator@U?$pair@$$CBV?$basic_string@DU?$char_traits@D@std@@V?$allocator@D@2@@std@@H@std@@@2@@std@@QAEAAH$$QAV?$basic_string@DU?$char_traits@D@std@@V?$allocator@D@2@@1@@Z DD 0ffffffffH
	DD	FLAT:__unwindfunclet$??A?$map@V?$basic_string@DU?$char_traits@D@std@@V?$allocator@D@2@@std@@HU?$less@V?$basic_string@DU?$char_traits@D@std@@V?$allocator@D@2@@std@@@2@V?$allocator@U?$pair@$$CBV?$basic_string@DU?$char_traits@D@std@@V?$allocator@D@2@@std@@H@std@@@2@@std@@QAEAAH$$QAV?$basic_string@DU?$char_traits@D@std@@V?$allocator@D@2@@1@@Z$2
__ehfuncinfo$??A?$map@V?$basic_string@DU?$char_traits@D@std@@V?$allocator@D@2@@std@@HU?$less@V?$basic_string@DU?$char_traits@D@std@@V?$allocator@D@2@@std@@@2@V?$allocator@U?$pair@$$CBV?$basic_string@DU?$char_traits@D@std@@V?$allocator@D@2@@std@@H@std@@@2@@std@@QAEAAH$$QAV?$basic_string@DU?$char_traits@D@std@@V?$allocator@D@2@@1@@Z DD 019930522H
	DD	01H
	DD	FLAT:__unwindtable$??A?$map@V?$basic_string@DU?$char_traits@D@std@@V?$allocator@D@2@@std@@HU?$less@V?$basic_string@DU?$char_traits@D@std@@V?$allocator@D@2@@std@@@2@V?$allocator@U?$pair@$$CBV?$basic_string@DU?$char_traits@D@std@@V?$allocator@D@2@@std@@H@std@@@2@@std@@QAEAAH$$QAV?$basic_string@DU?$char_traits@D@std@@V?$allocator@D@2@@1@@Z
	DD	2 DUP(00H)
	DD	2 DUP(00H)
	DD	00H
	DD	01H
xdata$x	ENDS
;	COMDAT xdata$x
xdata$x	SEGMENT
__unwindtable$??0SCmd@script@@QAE@XZ DD 0ffffffffH
	DD	FLAT:__unwindfunclet$??0SCmd@script@@QAE@XZ$0
__ehfuncinfo$??0SCmd@script@@QAE@XZ DD 019930522H
	DD	01H
	DD	FLAT:__unwindtable$??0SCmd@script@@QAE@XZ
	DD	2 DUP(00H)
	DD	2 DUP(00H)
	DD	00H
	DD	01H
xdata$x	ENDS
; Function compile flags: /Ogtp
; File C:\Program Files (x86)\Microsoft Visual Studio\2019\Community\VC\Tools\MSVC\14.28.29333\include\xstring
;	COMDAT ??$?MDU?$char_traits@D@std@@V?$allocator@D@1@@std@@YA_NABV?$basic_string@DU?$char_traits@D@std@@V?$allocator@D@2@@0@0@Z
_TEXT	SEGMENT
__Left$ = 8						; size = 4
__Right$ = 12						; size = 4
??$?MDU?$char_traits@D@std@@V?$allocator@D@1@@std@@YA_NABV?$basic_string@DU?$char_traits@D@std@@V?$allocator@D@2@@0@0@Z PROC ; std::operator<<char,std::char_traits<char>,std::allocator<char> >, COMDAT

; 4586 :     const basic_string<_Elem, _Traits, _Alloc>& _Left, const basic_string<_Elem, _Traits, _Alloc>& _Right) noexcept {

  00000	55		 push	 ebp
  00001	8b ec		 mov	 ebp, esp

; 2218 :         const value_type* _Result = _Bx._Buf;

  00003	8b 45 0c	 mov	 eax, DWORD PTR __Right$[ebp]
  00006	8b d0		 mov	 edx, eax

; 2227 :         return _BUF_SIZE <= _Myres;

  00008	83 78 14 10	 cmp	 DWORD PTR [eax+20], 16	; 00000010H

; 2219 :         if (_Large_string_engaged()) {

  0000c	72 02		 jb	 SHORT $LN6@operator

; 2220 :             _Result = _Unfancy(_Bx._Ptr);

  0000e	8b 10		 mov	 edx, DWORD PTR [eax]
$LN6@operator:

; 2218 :         const value_type* _Result = _Bx._Buf;

  00010	8b 4d 08	 mov	 ecx, DWORD PTR __Left$[ebp]
  00013	56		 push	 esi
  00014	8b f1		 mov	 esi, ecx

; 2227 :         return _BUF_SIZE <= _Myres;

  00016	83 79 14 10	 cmp	 DWORD PTR [ecx+20], 16	; 00000010H

; 2219 :         if (_Large_string_engaged()) {

  0001a	72 02		 jb	 SHORT $LN11@operator

; 2220 :             _Result = _Unfancy(_Bx._Ptr);

  0001c	8b 31		 mov	 esi, DWORD PTR [ecx]
$LN11@operator:

; 4213 :         return _Traits_compare<_Traits>(_Mypair._Myval2._Myptr(), _Mypair._Myval2._Mysize,

  0001e	ff 70 10	 push	 DWORD PTR [eax+16]
  00021	52		 push	 edx
  00022	ff 71 10	 push	 DWORD PTR [ecx+16]
  00025	56		 push	 esi
  00026	e8 00 00 00 00	 call	 ??$_Traits_compare@U?$char_traits@D@std@@@std@@YAHQBDI0I@Z ; std::_Traits_compare<std::char_traits<char> >
  0002b	83 c4 10	 add	 esp, 16			; 00000010H

; 4587 :     return _Left.compare(_Right) < 0;

  0002e	c1 e8 1f	 shr	 eax, 31			; 0000001fH
  00031	5e		 pop	 esi

; 4588 : }

  00032	5d		 pop	 ebp
  00033	c3		 ret	 0
??$?MDU?$char_traits@D@std@@V?$allocator@D@1@@std@@YA_NABV?$basic_string@DU?$char_traits@D@std@@V?$allocator@D@2@@0@0@Z ENDP ; std::operator<<char,std::char_traits<char>,std::allocator<char> >
_TEXT	ENDS
; Function compile flags: /Ogtp
; File C:\Program Files (x86)\Microsoft Visual Studio\2019\Community\VC\Tools\MSVC\14.28.29333\include\xutility
;	COMDAT ??$_Copy_memmove@PAPAUSEventSet@CPythonEventManager@@PAPAU12@@std@@YAPAPAUSEventSet@CPythonEventManager@@PAPAU12@00@Z
_TEXT	SEGMENT
__First$ = 8						; size = 4
__Last$ = 12						; size = 4
__Dest$ = 16						; size = 4
??$_Copy_memmove@PAPAUSEventSet@CPythonEventManager@@PAPAU12@@std@@YAPAPAUSEventSet@CPythonEventManager@@PAPAU12@00@Z PROC ; std::_Copy_memmove<CPythonEventManager::SEventSet * *,CPythonEventManager::SEventSet * *>, COMDAT

; 4360 : _OutIt _Copy_memmove(_InIt _First, _InIt _Last, _OutIt _Dest) {

  00000	55		 push	 ebp
  00001	8b ec		 mov	 ebp, esp

; 4361 :     const char* const _First_ch = const_cast<const char*>(reinterpret_cast<const volatile char*>(_First));
; 4362 :     const char* const _Last_ch  = const_cast<const char*>(reinterpret_cast<const volatile char*>(_Last));
; 4363 :     char* const _Dest_ch        = const_cast<char*>(reinterpret_cast<volatile char*>(_Dest));
; 4364 :     const auto _Count           = static_cast<size_t>(_Last_ch - _First_ch);

  00003	8b 45 08	 mov	 eax, DWORD PTR __First$[ebp]
  00006	56		 push	 esi

; 4365 :     _CSTD memmove(_Dest_ch, _First_ch, _Count);

  00007	8b 75 10	 mov	 esi, DWORD PTR __Dest$[ebp]
  0000a	57		 push	 edi
  0000b	8b 7d 0c	 mov	 edi, DWORD PTR __Last$[ebp]
  0000e	2b f8		 sub	 edi, eax
  00010	57		 push	 edi
  00011	50		 push	 eax
  00012	56		 push	 esi
  00013	e8 00 00 00 00	 call	 _memmove
  00018	83 c4 0c	 add	 esp, 12			; 0000000cH

; 4366 :     return reinterpret_cast<_OutIt>(_Dest_ch + _Count);

  0001b	8d 04 37	 lea	 eax, DWORD PTR [edi+esi]
  0001e	5f		 pop	 edi
  0001f	5e		 pop	 esi

; 4367 : }

  00020	5d		 pop	 ebp
  00021	c3		 ret	 0
??$_Copy_memmove@PAPAUSEventSet@CPythonEventManager@@PAPAU12@@std@@YAPAPAUSEventSet@CPythonEventManager@@PAPAU12@00@Z ENDP ; std::_Copy_memmove<CPythonEventManager::SEventSet * *,CPythonEventManager::SEventSet * *>
_TEXT	ENDS
; Function compile flags: /Ogtp
; File C:\Program Files (x86)\Microsoft Visual Studio\2019\Community\VC\Tools\MSVC\14.28.29333\include\xutility
;	COMDAT ??$_Copy_memmove@PAPAVCGraphicTextInstance@@PAPAV1@@std@@YAPAPAVCGraphicTextInstance@@PAPAV1@00@Z
_TEXT	SEGMENT
__First$ = 8						; size = 4
__Last$ = 12						; size = 4
__Dest$ = 16						; size = 4
??$_Copy_memmove@PAPAVCGraphicTextInstance@@PAPAV1@@std@@YAPAPAVCGraphicTextInstance@@PAPAV1@00@Z PROC ; std::_Copy_memmove<CGraphicTextInstance * *,CGraphicTextInstance * *>, COMDAT

; 4360 : _OutIt _Copy_memmove(_InIt _First, _InIt _Last, _OutIt _Dest) {

  00000	55		 push	 ebp
  00001	8b ec		 mov	 ebp, esp

; 4361 :     const char* const _First_ch = const_cast<const char*>(reinterpret_cast<const volatile char*>(_First));
; 4362 :     const char* const _Last_ch  = const_cast<const char*>(reinterpret_cast<const volatile char*>(_Last));
; 4363 :     char* const _Dest_ch        = const_cast<char*>(reinterpret_cast<volatile char*>(_Dest));
; 4364 :     const auto _Count           = static_cast<size_t>(_Last_ch - _First_ch);

  00003	8b 45 08	 mov	 eax, DWORD PTR __First$[ebp]
  00006	56		 push	 esi

; 4365 :     _CSTD memmove(_Dest_ch, _First_ch, _Count);

  00007	8b 75 10	 mov	 esi, DWORD PTR __Dest$[ebp]
  0000a	57		 push	 edi
  0000b	8b 7d 0c	 mov	 edi, DWORD PTR __Last$[ebp]
  0000e	2b f8		 sub	 edi, eax
  00010	57		 push	 edi
  00011	50		 push	 eax
  00012	56		 push	 esi
  00013	e8 00 00 00 00	 call	 _memmove
  00018	83 c4 0c	 add	 esp, 12			; 0000000cH

; 4366 :     return reinterpret_cast<_OutIt>(_Dest_ch + _Count);

  0001b	8d 04 37	 lea	 eax, DWORD PTR [edi+esi]
  0001e	5f		 pop	 edi
  0001f	5e		 pop	 esi

; 4367 : }

  00020	5d		 pop	 ebp
  00021	c3		 ret	 0
??$_Copy_memmove@PAPAVCGraphicTextInstance@@PAPAV1@@std@@YAPAPAVCGraphicTextInstance@@PAPAV1@00@Z ENDP ; std::_Copy_memmove<CGraphicTextInstance * *,CGraphicTextInstance * *>
_TEXT	ENDS
; Function compile flags: /Ogtp
; File C:\Program Files (x86)\Microsoft Visual Studio\2019\Community\VC\Tools\MSVC\14.28.29333\include\xmemory
;	COMDAT ??$_Construct_in_place@PAU?$_Tree_node@U?$pair@$$CBV?$basic_string@DU?$char_traits@D@std@@V?$allocator@D@2@@std@@H@std@@PAX@std@@AAPAU12@@std@@YAXAAPAU?$_Tree_node@U?$pair@$$CBV?$basic_string@DU?$char_traits@D@std@@V?$allocator@D@2@@std@@H@std@@PAX@0@0@Z
_TEXT	SEGMENT
__Obj$ = 8						; size = 4
_<_Args_0>$ = 12					; size = 4
??$_Construct_in_place@PAU?$_Tree_node@U?$pair@$$CBV?$basic_string@DU?$char_traits@D@std@@V?$allocator@D@2@@std@@H@std@@PAX@std@@AAPAU12@@std@@YAXAAPAU?$_Tree_node@U?$pair@$$CBV?$basic_string@DU?$char_traits@D@std@@V?$allocator@D@2@@std@@H@std@@PAX@0@0@Z PROC ; std::_Construct_in_place<std::_Tree_node<std::pair<std::basic_string<char,std::char_traits<char>,std::allocator<char> > const ,int>,void *> *,std::_Tree_node<std::pair<std::basic_string<char,std::char_traits<char>,std::allocator<char> > const ,int>,void *> * &>, COMDAT

; 228  : void _Construct_in_place(_Ty& _Obj, _Types&&... _Args) noexcept(is_nothrow_constructible_v<_Ty, _Types...>) {

  00000	55		 push	 ebp
  00001	8b ec		 mov	 ebp, esp

; 229  :     ::new (const_cast<void*>(static_cast<const volatile void*>(_STD addressof(_Obj))))

  00003	8b 45 0c	 mov	 eax, DWORD PTR _<_Args_0>$[ebp]
  00006	8b 08		 mov	 ecx, DWORD PTR [eax]
  00008	8b 45 08	 mov	 eax, DWORD PTR __Obj$[ebp]
  0000b	89 08		 mov	 DWORD PTR [eax], ecx

; 230  :         _Ty(_STD forward<_Types>(_Args)...);
; 231  : }

  0000d	5d		 pop	 ebp
  0000e	c3		 ret	 0
??$_Construct_in_place@PAU?$_Tree_node@U?$pair@$$CBV?$basic_string@DU?$char_traits@D@std@@V?$allocator@D@2@@std@@H@std@@PAX@std@@AAPAU12@@std@@YAXAAPAU?$_Tree_node@U?$pair@$$CBV?$basic_string@DU?$char_traits@D@std@@V?$allocator@D@2@@std@@H@std@@PAX@0@0@Z ENDP ; std::_Construct_in_place<std::_Tree_node<std::pair<std::basic_string<char,std::char_traits<char>,std::allocator<char> > const ,int>,void *> *,std::_Tree_node<std::pair<std::basic_string<char,std::char_traits<char>,std::allocator<char> > const ,int>,void *> * &>
_TEXT	ENDS
; Function compile flags: /Ogtp
; File C:\Program Files (x86)\Microsoft Visual Studio\2019\Community\VC\Tools\MSVC\14.28.29333\include\xmemory
;	COMDAT ??$_Uninitialized_move@PAPAUSEventSet@CPythonEventManager@@V?$allocator@PAUSEventSet@CPythonEventManager@@@std@@@std@@YAPAPAUSEventSet@CPythonEventManager@@QAPAU12@0PAPAU12@AAV?$allocator@PAUSEventSet@CPythonEventManager@@@0@@Z
_TEXT	SEGMENT
__First$ = 8						; size = 4
__Last$ = 12						; size = 4
__Dest$ = 16						; size = 4
__Al$ = 20						; size = 4
??$_Uninitialized_move@PAPAUSEventSet@CPythonEventManager@@V?$allocator@PAUSEventSet@CPythonEventManager@@@std@@@std@@YAPAPAUSEventSet@CPythonEventManager@@QAPAU12@0PAPAU12@AAV?$allocator@PAUSEventSet@CPythonEventManager@@@0@@Z PROC ; std::_Uninitialized_move<CPythonEventManager::SEventSet * *,std::allocator<CPythonEventManager::SEventSet *> >, COMDAT

; 1685 :     const _InIt _First, const _InIt _Last, _Alloc_ptr_t<_Alloc> _Dest, _Alloc& _Al) {

  00000	55		 push	 ebp
  00001	8b ec		 mov	 ebp, esp
  00003	53		 push	 ebx

; 1686 :     // move [_First, _Last) to raw _Dest, using _Al
; 1687 :     // note: only called internally from elsewhere in the STL
; 1688 :     using _Ptrval     = typename _Alloc::value_type*;
; 1689 :     auto _UFirst      = _Get_unwrapped(_First);
; 1690 :     const auto _ULast = _Get_unwrapped(_Last);
; 1691 :     if constexpr (conjunction_v<bool_constant<_Ptr_move_cat<decltype(_UFirst), _Ptrval>::_Really_trivial>,
; 1692 :                       _Uses_default_construct<_Alloc, _Ptrval, decltype(_STD move(*_UFirst))>>) {
; 1693 :         _Copy_memmove(_UFirst, _ULast, _Unfancy(_Dest));

  00004	8b 5d 10	 mov	 ebx, DWORD PTR __Dest$[ebp]
  00007	57		 push	 edi
  00008	8b 7d 0c	 mov	 edi, DWORD PTR __Last$[ebp]
  0000b	53		 push	 ebx
  0000c	57		 push	 edi
  0000d	ff 75 08	 push	 DWORD PTR __First$[ebp]
  00010	e8 00 00 00 00	 call	 ??$_Copy_memmove@PAPAUSEventSet@CPythonEventManager@@PAPAU12@@std@@YAPAPAUSEventSet@CPythonEventManager@@PAPAU12@00@Z ; std::_Copy_memmove<CPythonEventManager::SEventSet * *,CPythonEventManager::SEventSet * *>

; 1694 :         return _Dest + (_ULast - _UFirst);

  00015	2b 7d 08	 sub	 edi, DWORD PTR __First$[ebp]
  00018	83 c4 0c	 add	 esp, 12			; 0000000cH
  0001b	c1 ff 02	 sar	 edi, 2
  0001e	8d 04 bb	 lea	 eax, DWORD PTR [ebx+edi*4]
  00021	5f		 pop	 edi
  00022	5b		 pop	 ebx

; 1695 :     } else {
; 1696 :         _Uninitialized_backout_al<_Alloc> _Backout{_Dest, _Al};
; 1697 :         for (; _UFirst != _ULast; ++_UFirst) {
; 1698 :             _Backout._Emplace_back(_STD move(*_UFirst));
; 1699 :         }
; 1700 : 
; 1701 :         return _Backout._Release();
; 1702 :     }
; 1703 : }

  00023	5d		 pop	 ebp
  00024	c3		 ret	 0
??$_Uninitialized_move@PAPAUSEventSet@CPythonEventManager@@V?$allocator@PAUSEventSet@CPythonEventManager@@@std@@@std@@YAPAPAUSEventSet@CPythonEventManager@@QAPAU12@0PAPAU12@AAV?$allocator@PAUSEventSet@CPythonEventManager@@@0@@Z ENDP ; std::_Uninitialized_move<CPythonEventManager::SEventSet * *,std::allocator<CPythonEventManager::SEventSet *> >
_TEXT	ENDS
; Function compile flags: /Ogtp
; File C:\Program Files (x86)\Microsoft Visual Studio\2019\Community\VC\Tools\MSVC\14.28.29333\include\xmemory
;	COMDAT ??$_Uninitialized_move@PAPAVCGraphicTextInstance@@V?$allocator@PAVCGraphicTextInstance@@@std@@@std@@YAPAPAVCGraphicTextInstance@@QAPAV1@0PAPAV1@AAV?$allocator@PAVCGraphicTextInstance@@@0@@Z
_TEXT	SEGMENT
__First$ = 8						; size = 4
__Last$ = 12						; size = 4
__Dest$ = 16						; size = 4
__Al$ = 20						; size = 4
??$_Uninitialized_move@PAPAVCGraphicTextInstance@@V?$allocator@PAVCGraphicTextInstance@@@std@@@std@@YAPAPAVCGraphicTextInstance@@QAPAV1@0PAPAV1@AAV?$allocator@PAVCGraphicTextInstance@@@0@@Z PROC ; std::_Uninitialized_move<CGraphicTextInstance * *,std::allocator<CGraphicTextInstance *> >, COMDAT

; 1685 :     const _InIt _First, const _InIt _Last, _Alloc_ptr_t<_Alloc> _Dest, _Alloc& _Al) {

  00000	55		 push	 ebp
  00001	8b ec		 mov	 ebp, esp
  00003	53		 push	 ebx

; 1686 :     // move [_First, _Last) to raw _Dest, using _Al
; 1687 :     // note: only called internally from elsewhere in the STL
; 1688 :     using _Ptrval     = typename _Alloc::value_type*;
; 1689 :     auto _UFirst      = _Get_unwrapped(_First);
; 1690 :     const auto _ULast = _Get_unwrapped(_Last);
; 1691 :     if constexpr (conjunction_v<bool_constant<_Ptr_move_cat<decltype(_UFirst), _Ptrval>::_Really_trivial>,
; 1692 :                       _Uses_default_construct<_Alloc, _Ptrval, decltype(_STD move(*_UFirst))>>) {
; 1693 :         _Copy_memmove(_UFirst, _ULast, _Unfancy(_Dest));

  00004	8b 5d 10	 mov	 ebx, DWORD PTR __Dest$[ebp]
  00007	57		 push	 edi
  00008	8b 7d 0c	 mov	 edi, DWORD PTR __Last$[ebp]
  0000b	53		 push	 ebx
  0000c	57		 push	 edi
  0000d	ff 75 08	 push	 DWORD PTR __First$[ebp]
  00010	e8 00 00 00 00	 call	 ??$_Copy_memmove@PAPAVCGraphicTextInstance@@PAPAV1@@std@@YAPAPAVCGraphicTextInstance@@PAPAV1@00@Z ; std::_Copy_memmove<CGraphicTextInstance * *,CGraphicTextInstance * *>

; 1694 :         return _Dest + (_ULast - _UFirst);

  00015	2b 7d 08	 sub	 edi, DWORD PTR __First$[ebp]
  00018	83 c4 0c	 add	 esp, 12			; 0000000cH
  0001b	c1 ff 02	 sar	 edi, 2
  0001e	8d 04 bb	 lea	 eax, DWORD PTR [ebx+edi*4]
  00021	5f		 pop	 edi
  00022	5b		 pop	 ebx

; 1695 :     } else {
; 1696 :         _Uninitialized_backout_al<_Alloc> _Backout{_Dest, _Al};
; 1697 :         for (; _UFirst != _ULast; ++_UFirst) {
; 1698 :             _Backout._Emplace_back(_STD move(*_UFirst));
; 1699 :         }
; 1700 : 
; 1701 :         return _Backout._Release();
; 1702 :     }
; 1703 : }

  00023	5d		 pop	 ebp
  00024	c3		 ret	 0
??$_Uninitialized_move@PAPAVCGraphicTextInstance@@V?$allocator@PAVCGraphicTextInstance@@@std@@@std@@YAPAPAVCGraphicTextInstance@@QAPAV1@0PAPAV1@AAV?$allocator@PAVCGraphicTextInstance@@@0@@Z ENDP ; std::_Uninitialized_move<CGraphicTextInstance * *,std::allocator<CGraphicTextInstance *> >
_TEXT	ENDS
; Function compile flags: /Ogtp
; File C:\Program Files (x86)\Microsoft Visual Studio\2019\Community\VC\Tools\MSVC\14.28.29333\include\xmemory
;	COMDAT ??$_Construct_in_place@PAU?$_List_node@USTextLine@CPythonEventManager@@PAX@std@@ABQAU12@@std@@YAXAAPAU?$_List_node@USTextLine@CPythonEventManager@@PAX@0@ABQAU10@@Z
_TEXT	SEGMENT
__Obj$ = 8						; size = 4
_<_Args_0>$ = 12					; size = 4
??$_Construct_in_place@PAU?$_List_node@USTextLine@CPythonEventManager@@PAX@std@@ABQAU12@@std@@YAXAAPAU?$_List_node@USTextLine@CPythonEventManager@@PAX@0@ABQAU10@@Z PROC ; std::_Construct_in_place<std::_List_node<CPythonEventManager::STextLine,void *> *,std::_List_node<CPythonEventManager::STextLine,void *> * const &>, COMDAT

; 228  : void _Construct_in_place(_Ty& _Obj, _Types&&... _Args) noexcept(is_nothrow_constructible_v<_Ty, _Types...>) {

  00000	55		 push	 ebp
  00001	8b ec		 mov	 ebp, esp

; 229  :     ::new (const_cast<void*>(static_cast<const volatile void*>(_STD addressof(_Obj))))

  00003	8b 45 0c	 mov	 eax, DWORD PTR _<_Args_0>$[ebp]
  00006	8b 08		 mov	 ecx, DWORD PTR [eax]
  00008	8b 45 08	 mov	 eax, DWORD PTR __Obj$[ebp]
  0000b	89 08		 mov	 DWORD PTR [eax], ecx

; 230  :         _Ty(_STD forward<_Types>(_Args)...);
; 231  : }

  0000d	5d		 pop	 ebp
  0000e	c3		 ret	 0
??$_Construct_in_place@PAU?$_List_node@USTextLine@CPythonEventManager@@PAX@std@@ABQAU12@@std@@YAXAAPAU?$_List_node@USTextLine@CPythonEventManager@@PAX@0@ABQAU10@@Z ENDP ; std::_Construct_in_place<std::_List_node<CPythonEventManager::STextLine,void *> *,std::_List_node<CPythonEventManager::STextLine,void *> * const &>
_TEXT	ENDS
; Function compile flags: /Ogtp
; File C:\Program Files (x86)\Microsoft Visual Studio\2019\Community\VC\Tools\MSVC\14.28.29333\include\xmemory
;	COMDAT ??$_Destroy_in_place@PAU?$_Tree_node@U?$pair@$$CBV?$basic_string@DU?$char_traits@D@std@@V?$allocator@D@2@@std@@H@std@@PAX@std@@@std@@YAXAAPAU?$_Tree_node@U?$pair@$$CBV?$basic_string@DU?$char_traits@D@std@@V?$allocator@D@2@@std@@H@std@@PAX@0@@Z
_TEXT	SEGMENT
__Obj$ = 8						; size = 4
??$_Destroy_in_place@PAU?$_Tree_node@U?$pair@$$CBV?$basic_string@DU?$char_traits@D@std@@V?$allocator@D@2@@std@@H@std@@PAX@std@@@std@@YAXAAPAU?$_Tree_node@U?$pair@$$CBV?$basic_string@DU?$char_traits@D@std@@V?$allocator@D@2@@std@@H@std@@PAX@0@@Z PROC ; std::_Destroy_in_place<std::_Tree_node<std::pair<std::basic_string<char,std::char_traits<char>,std::allocator<char> > const ,int>,void *> *>, COMDAT

; 271  : #if _HAS_IF_CONSTEXPR
; 272  :     if constexpr (is_array_v<_Ty>) {
; 273  :         _Destroy_range(_Obj, _Obj + extent_v<_Ty>);
; 274  :     } else
; 275  : #endif // _HAS_IF_CONSTEXPR
; 276  :     {
; 277  :         _Obj.~_Ty();
; 278  :     }
; 279  : }

  00000	c2 00 00	 ret	 0
??$_Destroy_in_place@PAU?$_Tree_node@U?$pair@$$CBV?$basic_string@DU?$char_traits@D@std@@V?$allocator@D@2@@std@@H@std@@PAX@std@@@std@@YAXAAPAU?$_Tree_node@U?$pair@$$CBV?$basic_string@DU?$char_traits@D@std@@V?$allocator@D@2@@std@@H@std@@PAX@0@@Z ENDP ; std::_Destroy_in_place<std::_Tree_node<std::pair<std::basic_string<char,std::char_traits<char>,std::allocator<char> > const ,int>,void *> *>
_TEXT	ENDS
; Function compile flags: /Ogtp
; File C:\Program Files (x86)\Microsoft Visual Studio\2019\Community\VC\Tools\MSVC\14.28.29333\include\xmemory
;	COMDAT ??$_Construct_in_place@PAU?$_Tree_node@U?$pair@$$CBV?$basic_string@DU?$char_traits@D@std@@V?$allocator@D@2@@std@@H@std@@PAX@std@@ABQAU12@@std@@YAXAAPAU?$_Tree_node@U?$pair@$$CBV?$basic_string@DU?$char_traits@D@std@@V?$allocator@D@2@@std@@H@std@@PAX@0@ABQAU10@@Z
_TEXT	SEGMENT
__Obj$ = 8						; size = 4
_<_Args_0>$ = 12					; size = 4
??$_Construct_in_place@PAU?$_Tree_node@U?$pair@$$CBV?$basic_string@DU?$char_traits@D@std@@V?$allocator@D@2@@std@@H@std@@PAX@std@@ABQAU12@@std@@YAXAAPAU?$_Tree_node@U?$pair@$$CBV?$basic_string@DU?$char_traits@D@std@@V?$allocator@D@2@@std@@H@std@@PAX@0@ABQAU10@@Z PROC ; std::_Construct_in_place<std::_Tree_node<std::pair<std::basic_string<char,std::char_traits<char>,std::allocator<char> > const ,int>,void *> *,std::_Tree_node<std::pair<std::basic_string<char,std::char_traits<char>,std::allocator<char> > const ,int>,void *> * const &>, COMDAT

; 228  : void _Construct_in_place(_Ty& _Obj, _Types&&... _Args) noexcept(is_nothrow_constructible_v<_Ty, _Types...>) {

  00000	55		 push	 ebp
  00001	8b ec		 mov	 ebp, esp

; 229  :     ::new (const_cast<void*>(static_cast<const volatile void*>(_STD addressof(_Obj))))

  00003	8b 45 0c	 mov	 eax, DWORD PTR _<_Args_0>$[ebp]
  00006	8b 08		 mov	 ecx, DWORD PTR [eax]
  00008	8b 45 08	 mov	 eax, DWORD PTR __Obj$[ebp]
  0000b	89 08		 mov	 DWORD PTR [eax], ecx

; 230  :         _Ty(_STD forward<_Types>(_Args)...);
; 231  : }

  0000d	5d		 pop	 ebp
  0000e	c3		 ret	 0
??$_Construct_in_place@PAU?$_Tree_node@U?$pair@$$CBV?$basic_string@DU?$char_traits@D@std@@V?$allocator@D@2@@std@@H@std@@PAX@std@@ABQAU12@@std@@YAXAAPAU?$_Tree_node@U?$pair@$$CBV?$basic_string@DU?$char_traits@D@std@@V?$allocator@D@2@@std@@H@std@@PAX@0@ABQAU10@@Z ENDP ; std::_Construct_in_place<std::_Tree_node<std::pair<std::basic_string<char,std::char_traits<char>,std::allocator<char> > const ,int>,void *> *,std::_Tree_node<std::pair<std::basic_string<char,std::char_traits<char>,std::allocator<char> > const ,int>,void *> * const &>
_TEXT	ENDS
; Function compile flags: /Ogtp
; File C:\Program Files (x86)\Microsoft Visual Studio\2019\Community\VC\Tools\MSVC\14.28.29333\include\xmemory
;	COMDAT ??$_Destroy_in_place@PAU?$_List_node@USArgumet@script@@PAX@std@@@std@@YAXAAPAU?$_List_node@USArgumet@script@@PAX@0@@Z
_TEXT	SEGMENT
__Obj$ = 8						; size = 4
??$_Destroy_in_place@PAU?$_List_node@USArgumet@script@@PAX@std@@@std@@YAXAAPAU?$_List_node@USArgumet@script@@PAX@0@@Z PROC ; std::_Destroy_in_place<std::_List_node<script::SArgumet,void *> *>, COMDAT

; 271  : #if _HAS_IF_CONSTEXPR
; 272  :     if constexpr (is_array_v<_Ty>) {
; 273  :         _Destroy_range(_Obj, _Obj + extent_v<_Ty>);
; 274  :     } else
; 275  : #endif // _HAS_IF_CONSTEXPR
; 276  :     {
; 277  :         _Obj.~_Ty();
; 278  :     }
; 279  : }

  00000	c2 00 00	 ret	 0
??$_Destroy_in_place@PAU?$_List_node@USArgumet@script@@PAX@std@@@std@@YAXAAPAU?$_List_node@USArgumet@script@@PAX@0@@Z ENDP ; std::_Destroy_in_place<std::_List_node<script::SArgumet,void *> *>
_TEXT	ENDS
; Function compile flags: /Ogtp
; File C:\Program Files (x86)\Microsoft Visual Studio\2019\Community\VC\Tools\MSVC\14.28.29333\include\xmemory
;	COMDAT ??$_Destroy_in_place@PAU?$_List_node@USTextLine@CPythonEventManager@@PAX@std@@@std@@YAXAAPAU?$_List_node@USTextLine@CPythonEventManager@@PAX@0@@Z
_TEXT	SEGMENT
__Obj$ = 8						; size = 4
??$_Destroy_in_place@PAU?$_List_node@USTextLine@CPythonEventManager@@PAX@std@@@std@@YAXAAPAU?$_List_node@USTextLine@CPythonEventManager@@PAX@0@@Z PROC ; std::_Destroy_in_place<std::_List_node<CPythonEventManager::STextLine,void *> *>, COMDAT

; 271  : #if _HAS_IF_CONSTEXPR
; 272  :     if constexpr (is_array_v<_Ty>) {
; 273  :         _Destroy_range(_Obj, _Obj + extent_v<_Ty>);
; 274  :     } else
; 275  : #endif // _HAS_IF_CONSTEXPR
; 276  :     {
; 277  :         _Obj.~_Ty();
; 278  :     }
; 279  : }

  00000	c2 00 00	 ret	 0
??$_Destroy_in_place@PAU?$_List_node@USTextLine@CPythonEventManager@@PAX@std@@@std@@YAXAAPAU?$_List_node@USTextLine@CPythonEventManager@@PAX@0@@Z ENDP ; std::_Destroy_in_place<std::_List_node<CPythonEventManager::STextLine,void *> *>
_TEXT	ENDS
; Function compile flags: /Ogtp
; File C:\Program Files (x86)\Microsoft Visual Studio\2019\Community\VC\Tools\MSVC\14.28.29333\include\xtree
; File C:\Program Files (x86)\Microsoft Visual Studio\2019\Community\VC\Tools\MSVC\14.28.29333\include\utility
; File C:\Program Files (x86)\Microsoft Visual Studio\2019\Community\VC\Tools\MSVC\14.28.29333\include\xstring
; File C:\Program Files (x86)\Microsoft Visual Studio\2019\Community\VC\Tools\MSVC\14.28.29333\include\xmemory
; File C:\Program Files (x86)\Microsoft Visual Studio\2019\Community\VC\Tools\MSVC\14.28.29333\include\xstring
; File C:\Program Files (x86)\Microsoft Visual Studio\2019\Community\VC\Tools\MSVC\14.28.29333\include\xmemory
; File C:\Program Files (x86)\Microsoft Visual Studio\2019\Community\VC\Tools\MSVC\14.28.29333\include\xtree
; File C:\Program Files (x86)\Microsoft Visual Studio\2019\Community\VC\Tools\MSVC\14.28.29333\include\xmemory
; File C:\Program Files (x86)\Microsoft Visual Studio\2019\Community\VC\Tools\MSVC\14.28.29333\include\xtree
;	COMDAT ??$_Erase_tree@V?$allocator@U?$_Tree_node@U?$pair@$$CBV?$basic_string@DU?$char_traits@D@std@@V?$allocator@D@2@@std@@H@std@@PAX@std@@@std@@@?$_Tree_val@U?$_Tree_simple_types@U?$pair@$$CBV?$basic_string@DU?$char_traits@D@std@@V?$allocator@D@2@@std@@H@std@@@std@@@std@@QAEXAAV?$allocator@U?$_Tree_node@U?$pair@$$CBV?$basic_string@DU?$char_traits@D@std@@V?$allocator@D@2@@std@@H@std@@PAX@std@@@1@PAU?$_Tree_node@U?$pair@$$CBV?$basic_string@DU?$char_traits@D@std@@V?$allocator@D@2@@std@@H@std@@PAX@1@@Z
_TEXT	SEGMENT
_this$1$ = -4						; size = 4
__Al$ = 8						; size = 4
__Rootnode$ = 12					; size = 4
??$_Erase_tree@V?$allocator@U?$_Tree_node@U?$pair@$$CBV?$basic_string@DU?$char_traits@D@std@@V?$allocator@D@2@@std@@H@std@@PAX@std@@@std@@@?$_Tree_val@U?$_Tree_simple_types@U?$pair@$$CBV?$basic_string@DU?$char_traits@D@std@@V?$allocator@D@2@@std@@H@std@@@std@@@std@@QAEXAAV?$allocator@U?$_Tree_node@U?$pair@$$CBV?$basic_string@DU?$char_traits@D@std@@V?$allocator@D@2@@std@@H@std@@PAX@std@@@1@PAU?$_Tree_node@U?$pair@$$CBV?$basic_string@DU?$char_traits@D@std@@V?$allocator@D@2@@std@@H@std@@PAX@1@@Z PROC ; std::_Tree_val<std::_Tree_simple_types<std::pair<std::basic_string<char,std::char_traits<char>,std::allocator<char> > const ,int> > >::_Erase_tree<std::allocator<std::_Tree_node<std::pair<std::basic_string<char,std::char_traits<char>,std::allocator<char> > const ,int>,void *> > >, COMDAT
; _this$ = ecx

; 742  :     void _Erase_tree(_Alnode& _Al, _Nodeptr _Rootnode) noexcept {

  00000	55		 push	 ebp
  00001	8b ec		 mov	 ebp, esp
  00003	51		 push	 ecx
  00004	57		 push	 edi

; 743  :         while (!_Rootnode->_Isnil) { // free subtrees, then node

  00005	8b 7d 0c	 mov	 edi, DWORD PTR __Rootnode$[ebp]
  00008	8b c1		 mov	 eax, ecx
  0000a	89 45 fc	 mov	 DWORD PTR _this$1$[ebp], eax
  0000d	80 7f 0d 00	 cmp	 BYTE PTR [edi+13], 0
  00011	75 51		 jne	 SHORT $LN3@Erase_tree
  00013	53		 push	 ebx
  00014	8b 5d 08	 mov	 ebx, DWORD PTR __Al$[ebp]
  00017	56		 push	 esi
$LL2@Erase_tree:

; 744  :             _Erase_tree(_Al, _Rootnode->_Right);

  00018	ff 77 08	 push	 DWORD PTR [edi+8]
  0001b	8b c8		 mov	 ecx, eax
  0001d	53		 push	 ebx
  0001e	e8 00 00 00 00	 call	 ??$_Erase_tree@V?$allocator@U?$_Tree_node@U?$pair@$$CBV?$basic_string@DU?$char_traits@D@std@@V?$allocator@D@2@@std@@H@std@@PAX@std@@@std@@@?$_Tree_val@U?$_Tree_simple_types@U?$pair@$$CBV?$basic_string@DU?$char_traits@D@std@@V?$allocator@D@2@@std@@H@std@@@std@@@std@@QAEXAAV?$allocator@U?$_Tree_node@U?$pair@$$CBV?$basic_string@DU?$char_traits@D@std@@V?$allocator@D@2@@std@@H@std@@PAX@std@@@1@PAU?$_Tree_node@U?$pair@$$CBV?$basic_string@DU?$char_traits@D@std@@V?$allocator@D@2@@std@@H@std@@PAX@1@@Z ; std::_Tree_val<std::_Tree_simple_types<std::pair<std::basic_string<char,std::char_traits<char>,std::allocator<char> > const ,int> > >::_Erase_tree<std::allocator<std::_Tree_node<std::pair<std::basic_string<char,std::char_traits<char>,std::allocator<char> > const ,int>,void *> > >
; File C:\Program Files (x86)\Microsoft Visual Studio\2019\Community\VC\Tools\MSVC\14.28.29333\include\utility

; 598  :     _Ty _Old_val = static_cast<_Ty&&>(_Val);

  00023	8b f7		 mov	 esi, edi

; 599  :     _Val         = static_cast<_Other&&>(_New_val);

  00025	8b 3f		 mov	 edi, DWORD PTR [edi]
; File C:\Program Files (x86)\Microsoft Visual Studio\2019\Community\VC\Tools\MSVC\14.28.29333\include\xstring

; 2227 :         return _BUF_SIZE <= _Myres;

  00027	8b 46 24	 mov	 eax, DWORD PTR [esi+36]
  0002a	83 f8 10	 cmp	 eax, 16			; 00000010H

; 4385 :         if (_Mypair._Myval2._Large_string_engaged()) {

  0002d	72 0d		 jb	 SHORT $LN21@Erase_tree

; 4386 :             const pointer _Ptr = _Mypair._Myval2._Bx._Ptr;
; 4387 :             auto& _Al          = _Getal();
; 4388 :             _Destroy_in_place(_Mypair._Myval2._Bx._Ptr);
; 4389 :             _Al.deallocate(_Ptr, _Mypair._Myval2._Myres + 1);

  0002f	40		 inc	 eax
; File C:\Program Files (x86)\Microsoft Visual Studio\2019\Community\VC\Tools\MSVC\14.28.29333\include\xmemory

; 810  :         _Deallocate<_New_alignof<_Ty>>(_Ptr, sizeof(_Ty) * _Count);

  00030	50		 push	 eax
  00031	ff 76 10	 push	 DWORD PTR [esi+16]
  00034	e8 00 00 00 00	 call	 ??$_Deallocate@$07$0A@@std@@YAXPAXI@Z ; std::_Deallocate<8,0>
  00039	83 c4 08	 add	 esp, 8
$LN21@Erase_tree:

; 696  :         _Deallocate<_New_alignof<value_type>>(_Ptr, sizeof(value_type) * _Count);

  0003c	6a 2c		 push	 44			; 0000002cH
  0003e	56		 push	 esi
; File C:\Program Files (x86)\Microsoft Visual Studio\2019\Community\VC\Tools\MSVC\14.28.29333\include\xstring

; 4392 :         _Mypair._Myval2._Mysize = 0;

  0003f	c7 46 20 00 00
	00 00		 mov	 DWORD PTR [esi+32], 0

; 4393 :         _Mypair._Myval2._Myres  = _BUF_SIZE - 1;

  00046	c7 46 24 0f 00
	00 00		 mov	 DWORD PTR [esi+36], 15	; 0000000fH

; 4394 :         // the _Traits::assign is last so the codegen doesn't think the char write can alias this
; 4395 :         _Traits::assign(_Mypair._Myval2._Bx._Buf[0], _Elem());

  0004d	c6 46 10 00	 mov	 BYTE PTR [esi+16], 0
; File C:\Program Files (x86)\Microsoft Visual Studio\2019\Community\VC\Tools\MSVC\14.28.29333\include\xmemory

; 696  :         _Deallocate<_New_alignof<value_type>>(_Ptr, sizeof(value_type) * _Count);

  00051	e8 00 00 00 00	 call	 ??$_Deallocate@$07$0A@@std@@YAXPAXI@Z ; std::_Deallocate<8,0>
; File C:\Program Files (x86)\Microsoft Visual Studio\2019\Community\VC\Tools\MSVC\14.28.29333\include\xtree

; 743  :         while (!_Rootnode->_Isnil) { // free subtrees, then node

  00056	8b 45 fc	 mov	 eax, DWORD PTR _this$1$[ebp]
; File C:\Program Files (x86)\Microsoft Visual Studio\2019\Community\VC\Tools\MSVC\14.28.29333\include\xmemory

; 696  :         _Deallocate<_New_alignof<value_type>>(_Ptr, sizeof(value_type) * _Count);

  00059	83 c4 08	 add	 esp, 8
; File C:\Program Files (x86)\Microsoft Visual Studio\2019\Community\VC\Tools\MSVC\14.28.29333\include\xtree

; 743  :         while (!_Rootnode->_Isnil) { // free subtrees, then node

  0005c	80 7f 0d 00	 cmp	 BYTE PTR [edi+13], 0
  00060	74 b6		 je	 SHORT $LL2@Erase_tree
  00062	5e		 pop	 esi
  00063	5b		 pop	 ebx
$LN3@Erase_tree:
  00064	5f		 pop	 edi

; 745  :             _Alnode::value_type::_Freenode(_Al, _STD exchange(_Rootnode, _Rootnode->_Left));
; 746  :         }
; 747  :     }

  00065	8b e5		 mov	 esp, ebp
  00067	5d		 pop	 ebp
  00068	c2 08 00	 ret	 8
??$_Erase_tree@V?$allocator@U?$_Tree_node@U?$pair@$$CBV?$basic_string@DU?$char_traits@D@std@@V?$allocator@D@2@@std@@H@std@@PAX@std@@@std@@@?$_Tree_val@U?$_Tree_simple_types@U?$pair@$$CBV?$basic_string@DU?$char_traits@D@std@@V?$allocator@D@2@@std@@H@std@@@std@@@std@@QAEXAAV?$allocator@U?$_Tree_node@U?$pair@$$CBV?$basic_string@DU?$char_traits@D@std@@V?$allocator@D@2@@std@@H@std@@PAX@std@@@1@PAU?$_Tree_node@U?$pair@$$CBV?$basic_string@DU?$char_traits@D@std@@V?$allocator@D@2@@std@@H@std@@PAX@1@@Z ENDP ; std::_Tree_val<std::_Tree_simple_types<std::pair<std::basic_string<char,std::char_traits<char>,std::allocator<char> > const ,int> > >::_Erase_tree<std::allocator<std::_Tree_node<std::pair<std::basic_string<char,std::char_traits<char>,std::allocator<char> > const ,int>,void *> > >
_TEXT	ENDS
; Function compile flags: /Ogtp
; File C:\Program Files (x86)\Microsoft Visual Studio\2019\Community\VC\Tools\MSVC\14.28.29333\include\xmemory
;	COMDAT ??1?$_Alloc_construct_ptr@V?$allocator@U?$_Tree_node@U?$pair@$$CBV?$basic_string@DU?$char_traits@D@std@@V?$allocator@D@2@@std@@H@std@@PAX@std@@@std@@@std@@QAE@XZ
_TEXT	SEGMENT
??1?$_Alloc_construct_ptr@V?$allocator@U?$_Tree_node@U?$pair@$$CBV?$basic_string@DU?$char_traits@D@std@@V?$allocator@D@2@@std@@H@std@@PAX@std@@@std@@@std@@QAE@XZ PROC ; std::_Alloc_construct_ptr<std::allocator<std::_Tree_node<std::pair<std::basic_string<char,std::char_traits<char>,std::allocator<char> > const ,int>,void *> > >::~_Alloc_construct_ptr<std::allocator<std::_Tree_node<std::pair<std::basic_string<char,std::char_traits<char>,std::allocator<char> > const ,int>,void *> > >, COMDAT
; _this$ = ecx

; 1057 :         if (_Ptr) {

  00000	8b 41 04	 mov	 eax, DWORD PTR [ecx+4]
  00003	85 c0		 test	 eax, eax
  00005	74 0b		 je	 SHORT $LN2@Alloc_cons

; 810  :         _Deallocate<_New_alignof<_Ty>>(_Ptr, sizeof(_Ty) * _Count);

  00007	6a 2c		 push	 44			; 0000002cH
  00009	50		 push	 eax
  0000a	e8 00 00 00 00	 call	 ??$_Deallocate@$07$0A@@std@@YAXPAXI@Z ; std::_Deallocate<8,0>
  0000f	83 c4 08	 add	 esp, 8
$LN2@Alloc_cons:

; 1058 :             _Al.deallocate(_Ptr, 1);
; 1059 :         }
; 1060 :     }

  00012	c3		 ret	 0
??1?$_Alloc_construct_ptr@V?$allocator@U?$_Tree_node@U?$pair@$$CBV?$basic_string@DU?$char_traits@D@std@@V?$allocator@D@2@@std@@H@std@@PAX@std@@@std@@@std@@QAE@XZ ENDP ; std::_Alloc_construct_ptr<std::allocator<std::_Tree_node<std::pair<std::basic_string<char,std::char_traits<char>,std::allocator<char> > const ,int>,void *> > >::~_Alloc_construct_ptr<std::allocator<std::_Tree_node<std::pair<std::basic_string<char,std::char_traits<char>,std::allocator<char> > const ,int>,void *> > >
_TEXT	ENDS
; Function compile flags: /Ogtp
; File C:\Program Files (x86)\Microsoft Visual Studio\2019\Community\VC\Tools\MSVC\14.28.29333\include\xtree
; File C:\Program Files (x86)\Microsoft Visual Studio\2019\Community\VC\Tools\MSVC\14.28.29333\include\xstddef
; File C:\Program Files (x86)\Microsoft Visual Studio\2019\Community\VC\Tools\MSVC\14.28.29333\include\xtree
;	COMDAT ??$_Find_lower_bound@V?$basic_string@DU?$char_traits@D@std@@V?$allocator@D@2@@std@@@?$_Tree@V?$_Tmap_traits@V?$basic_string@DU?$char_traits@D@std@@V?$allocator@D@2@@std@@HU?$less@V?$basic_string@DU?$char_traits@D@std@@V?$allocator@D@2@@std@@@2@V?$allocator@U?$pair@$$CBV?$basic_string@DU?$char_traits@D@std@@V?$allocator@D@2@@std@@H@std@@@2@$0A@@std@@@std@@IBE?AU?$_Tree_find_result@PAU?$_Tree_node@U?$pair@$$CBV?$basic_string@DU?$char_traits@D@std@@V?$allocator@D@2@@std@@H@std@@PAX@std@@@1@ABV?$basic_string@DU?$char_traits@D@std@@V?$allocator@D@2@@1@@Z
_TEXT	SEGMENT
___$ReturnUdt$ = 8					; size = 4
__Keyval$ = 12						; size = 4
??$_Find_lower_bound@V?$basic_string@DU?$char_traits@D@std@@V?$allocator@D@2@@std@@@?$_Tree@V?$_Tmap_traits@V?$basic_string@DU?$char_traits@D@std@@V?$allocator@D@2@@std@@HU?$less@V?$basic_string@DU?$char_traits@D@std@@V?$allocator@D@2@@std@@@2@V?$allocator@U?$pair@$$CBV?$basic_string@DU?$char_traits@D@std@@V?$allocator@D@2@@std@@H@std@@@2@$0A@@std@@@std@@IBE?AU?$_Tree_find_result@PAU?$_Tree_node@U?$pair@$$CBV?$basic_string@DU?$char_traits@D@std@@V?$allocator@D@2@@std@@H@std@@PAX@std@@@1@ABV?$basic_string@DU?$char_traits@D@std@@V?$allocator@D@2@@1@@Z PROC ; std::_Tree<std::_Tmap_traits<std::basic_string<char,std::char_traits<char>,std::allocator<char> >,int,std::less<std::basic_string<char,std::char_traits<char>,std::allocator<char> > >,std::allocator<std::pair<std::basic_string<char,std::char_traits<char>,std::allocator<char> > const ,int> >,0> >::_Find_lower_bound<std::basic_string<char,std::char_traits<char>,std::allocator<char> > >, COMDAT
; _this$ = ecx

; 1699 :     _Tree_find_result<_Nodeptr> _Find_lower_bound(const _Keyty& _Keyval) const {

  00000	55		 push	 ebp
  00001	8b ec		 mov	 ebp, esp

; 1700 :         const auto _Scary = _Get_scary();
; 1701 :         _Tree_find_result<_Nodeptr> _Result{{_Scary->_Myhead->_Parent, _Tree_child::_Right}, _Scary->_Myhead};

  00003	8b 01		 mov	 eax, DWORD PTR [ecx]
  00005	56		 push	 esi
  00006	57		 push	 edi
  00007	8b 7d 08	 mov	 edi, DWORD PTR ___$ReturnUdt$[ebp]
  0000a	8b 70 04	 mov	 esi, DWORD PTR [eax+4]
  0000d	89 37		 mov	 DWORD PTR [edi], esi

; 1702 :         _Nodeptr _Trynode = _Result._Location._Parent;
; 1703 :         while (!_Trynode->_Isnil) {

  0000f	80 7e 0d 00	 cmp	 BYTE PTR [esi+13], 0
  00013	c7 47 04 00 00
	00 00		 mov	 DWORD PTR [edi+4], 0
  0001a	89 47 08	 mov	 DWORD PTR [edi+8], eax
  0001d	75 32		 jne	 SHORT $LN12@Find_lower
  0001f	53		 push	 ebx
  00020	8b 5d 0c	 mov	 ebx, DWORD PTR __Keyval$[ebp]
$LL2@Find_lower:

; 1705 :             if (_DEBUG_LT_PRED(_Getcomp(), _Traits::_Kfn(_Trynode->_Myval), _Keyval)) {

  00023	8d 46 10	 lea	 eax, DWORD PTR [esi+16]
  00026	89 37		 mov	 DWORD PTR [edi], esi
; File C:\Program Files (x86)\Microsoft Visual Studio\2019\Community\VC\Tools\MSVC\14.28.29333\include\xstddef

; 127  :         return _Left < _Right;

  00028	53		 push	 ebx
  00029	50		 push	 eax
  0002a	e8 00 00 00 00	 call	 ??$?MDU?$char_traits@D@std@@V?$allocator@D@1@@std@@YA_NABV?$basic_string@DU?$char_traits@D@std@@V?$allocator@D@2@@0@0@Z ; std::operator<<char,std::char_traits<char>,std::allocator<char> >
  0002f	83 c4 08	 add	 esp, 8
; File C:\Program Files (x86)\Microsoft Visual Studio\2019\Community\VC\Tools\MSVC\14.28.29333\include\xtree

; 1705 :             if (_DEBUG_LT_PRED(_Getcomp(), _Traits::_Kfn(_Trynode->_Myval), _Keyval)) {

  00032	84 c0		 test	 al, al
  00034	74 07		 je	 SHORT $LN4@Find_lower

; 1706 :                 _Result._Location._Child = _Tree_child::_Right;
; 1707 :                 _Trynode                 = _Trynode->_Right;

  00036	8b 76 08	 mov	 esi, DWORD PTR [esi+8]
  00039	33 c0		 xor	 eax, eax

; 1708 :             } else {

  0003b	eb 0a		 jmp	 SHORT $LN5@Find_lower
$LN4@Find_lower:

; 1709 :                 _Result._Location._Child = _Tree_child::_Left;
; 1710 :                 _Result._Bound           = _Trynode;

  0003d	89 77 08	 mov	 DWORD PTR [edi+8], esi

; 1711 :                 _Trynode                 = _Trynode->_Left;

  00040	b8 01 00 00 00	 mov	 eax, 1
  00045	8b 36		 mov	 esi, DWORD PTR [esi]
$LN5@Find_lower:

; 1702 :         _Nodeptr _Trynode = _Result._Location._Parent;
; 1703 :         while (!_Trynode->_Isnil) {

  00047	89 47 04	 mov	 DWORD PTR [edi+4], eax
  0004a	80 7e 0d 00	 cmp	 BYTE PTR [esi+13], 0
  0004e	74 d3		 je	 SHORT $LL2@Find_lower

; 1712 :             }
; 1713 :         }
; 1714 : 
; 1715 :         return _Result;

  00050	5b		 pop	 ebx
$LN12@Find_lower:

; 1716 :     }

  00051	8b c7		 mov	 eax, edi
  00053	5f		 pop	 edi
  00054	5e		 pop	 esi
  00055	5d		 pop	 ebp
  00056	c2 08 00	 ret	 8
??$_Find_lower_bound@V?$basic_string@DU?$char_traits@D@std@@V?$allocator@D@2@@std@@@?$_Tree@V?$_Tmap_traits@V?$basic_string@DU?$char_traits@D@std@@V?$allocator@D@2@@std@@HU?$less@V?$basic_string@DU?$char_traits@D@std@@V?$allocator@D@2@@std@@@2@V?$allocator@U?$pair@$$CBV?$basic_string@DU?$char_traits@D@std@@V?$allocator@D@2@@std@@H@std@@@2@$0A@@std@@@std@@IBE?AU?$_Tree_find_result@PAU?$_Tree_node@U?$pair@$$CBV?$basic_string@DU?$char_traits@D@std@@V?$allocator@D@2@@std@@H@std@@PAX@std@@@1@ABV?$basic_string@DU?$char_traits@D@std@@V?$allocator@D@2@@1@@Z ENDP ; std::_Tree<std::_Tmap_traits<std::basic_string<char,std::char_traits<char>,std::allocator<char> >,int,std::less<std::basic_string<char,std::char_traits<char>,std::allocator<char> > >,std::allocator<std::pair<std::basic_string<char,std::char_traits<char>,std::allocator<char> > const ,int> >,0> >::_Find_lower_bound<std::basic_string<char,std::char_traits<char>,std::allocator<char> > >
_TEXT	ENDS
; Function compile flags: /Ogtp
; File C:\Program Files (x86)\Microsoft Visual Studio\2019\Community\VC\Tools\MSVC\14.28.29333\include\xmemory
;	COMDAT ??1?$_Alloc_construct_ptr@V?$allocator@U?$_List_node@USTextLine@CPythonEventManager@@PAX@std@@@std@@@std@@QAE@XZ
_TEXT	SEGMENT
??1?$_Alloc_construct_ptr@V?$allocator@U?$_List_node@USTextLine@CPythonEventManager@@PAX@std@@@std@@@std@@QAE@XZ PROC ; std::_Alloc_construct_ptr<std::allocator<std::_List_node<CPythonEventManager::STextLine,void *> > >::~_Alloc_construct_ptr<std::allocator<std::_List_node<CPythonEventManager::STextLine,void *> > >, COMDAT
; _this$ = ecx

; 1057 :         if (_Ptr) {

  00000	8b 41 04	 mov	 eax, DWORD PTR [ecx+4]
  00003	85 c0		 test	 eax, eax
  00005	74 0b		 je	 SHORT $LN2@Alloc_cons

; 810  :         _Deallocate<_New_alignof<_Ty>>(_Ptr, sizeof(_Ty) * _Count);

  00007	6a 14		 push	 20			; 00000014H
  00009	50		 push	 eax
  0000a	e8 00 00 00 00	 call	 ??$_Deallocate@$07$0A@@std@@YAXPAXI@Z ; std::_Deallocate<8,0>
  0000f	83 c4 08	 add	 esp, 8
$LN2@Alloc_cons:

; 1058 :             _Al.deallocate(_Ptr, 1);
; 1059 :         }
; 1060 :     }

  00012	c3		 ret	 0
??1?$_Alloc_construct_ptr@V?$allocator@U?$_List_node@USTextLine@CPythonEventManager@@PAX@std@@@std@@@std@@QAE@XZ ENDP ; std::_Alloc_construct_ptr<std::allocator<std::_List_node<CPythonEventManager::STextLine,void *> > >::~_Alloc_construct_ptr<std::allocator<std::_List_node<CPythonEventManager::STextLine,void *> > >
_TEXT	ENDS
; Function compile flags: /Ogtp
; File C:\Program Files (x86)\Microsoft Visual Studio\2019\Community\VC\Tools\MSVC\14.28.29333\include\xmemory
;	COMDAT ??$_Destroy_range@V?$allocator@PAVCGraphicTextInstance@@@std@@@std@@YAXPAPAVCGraphicTextInstance@@QAPAV1@AAV?$allocator@PAVCGraphicTextInstance@@@0@@Z
_TEXT	SEGMENT
__First$ = 8						; size = 4
__Last$ = 12						; size = 4
__Al$ = 16						; size = 4
??$_Destroy_range@V?$allocator@PAVCGraphicTextInstance@@@std@@@std@@YAXPAPAVCGraphicTextInstance@@QAPAV1@AAV?$allocator@PAVCGraphicTextInstance@@@0@@Z PROC ; std::_Destroy_range<std::allocator<CGraphicTextInstance *> >, COMDAT

; 963  :     // note that this is an optimization for debug mode codegen; in release mode the BE removes all of this
; 964  :     using _Ty = typename _Alloc::value_type;
; 965  :     if _CONSTEXPR_IF (!conjunction_v<is_trivially_destructible<_Ty>, _Uses_default_destroy<_Alloc, _Ty*>>) {
; 966  :         for (; _First != _Last; ++_First) {
; 967  :             allocator_traits<_Alloc>::destroy(_Al, _Unfancy(_First));
; 968  :         }
; 969  :     }
; 970  : }

  00000	c2 00 00	 ret	 0
??$_Destroy_range@V?$allocator@PAVCGraphicTextInstance@@@std@@@std@@YAXPAPAVCGraphicTextInstance@@QAPAV1@AAV?$allocator@PAVCGraphicTextInstance@@@0@@Z ENDP ; std::_Destroy_range<std::allocator<CGraphicTextInstance *> >
_TEXT	ENDS
; Function compile flags: /Ogtp
; File C:\Program Files (x86)\Microsoft Visual Studio\2019\Community\VC\Tools\MSVC\14.28.29333\include\xmemory
;	COMDAT ??$_Construct_in_place@PAU?$_List_node@USArgumet@script@@PAX@std@@AAPAU12@@std@@YAXAAPAU?$_List_node@USArgumet@script@@PAX@0@0@Z
_TEXT	SEGMENT
__Obj$ = 8						; size = 4
_<_Args_0>$ = 12					; size = 4
??$_Construct_in_place@PAU?$_List_node@USArgumet@script@@PAX@std@@AAPAU12@@std@@YAXAAPAU?$_List_node@USArgumet@script@@PAX@0@0@Z PROC ; std::_Construct_in_place<std::_List_node<script::SArgumet,void *> *,std::_List_node<script::SArgumet,void *> * &>, COMDAT

; 228  : void _Construct_in_place(_Ty& _Obj, _Types&&... _Args) noexcept(is_nothrow_constructible_v<_Ty, _Types...>) {

  00000	55		 push	 ebp
  00001	8b ec		 mov	 ebp, esp

; 229  :     ::new (const_cast<void*>(static_cast<const volatile void*>(_STD addressof(_Obj))))

  00003	8b 45 0c	 mov	 eax, DWORD PTR _<_Args_0>$[ebp]
  00006	8b 08		 mov	 ecx, DWORD PTR [eax]
  00008	8b 45 08	 mov	 eax, DWORD PTR __Obj$[ebp]
  0000b	89 08		 mov	 DWORD PTR [eax], ecx

; 230  :         _Ty(_STD forward<_Types>(_Args)...);
; 231  : }

  0000d	5d		 pop	 ebp
  0000e	c3		 ret	 0
??$_Construct_in_place@PAU?$_List_node@USArgumet@script@@PAX@std@@AAPAU12@@std@@YAXAAPAU?$_List_node@USArgumet@script@@PAX@0@0@Z ENDP ; std::_Construct_in_place<std::_List_node<script::SArgumet,void *> *,std::_List_node<script::SArgumet,void *> * &>
_TEXT	ENDS
; Function compile flags: /Ogtp
; File C:\Program Files (x86)\Microsoft Visual Studio\2019\Community\VC\Tools\MSVC\14.28.29333\include\xmemory
;	COMDAT ??$_Construct_in_place@PAU?$_List_node@USTextLine@CPythonEventManager@@PAX@std@@AAPAU12@@std@@YAXAAPAU?$_List_node@USTextLine@CPythonEventManager@@PAX@0@0@Z
_TEXT	SEGMENT
__Obj$ = 8						; size = 4
_<_Args_0>$ = 12					; size = 4
??$_Construct_in_place@PAU?$_List_node@USTextLine@CPythonEventManager@@PAX@std@@AAPAU12@@std@@YAXAAPAU?$_List_node@USTextLine@CPythonEventManager@@PAX@0@0@Z PROC ; std::_Construct_in_place<std::_List_node<CPythonEventManager::STextLine,void *> *,std::_List_node<CPythonEventManager::STextLine,void *> * &>, COMDAT

; 228  : void _Construct_in_place(_Ty& _Obj, _Types&&... _Args) noexcept(is_nothrow_constructible_v<_Ty, _Types...>) {

  00000	55		 push	 ebp
  00001	8b ec		 mov	 ebp, esp

; 229  :     ::new (const_cast<void*>(static_cast<const volatile void*>(_STD addressof(_Obj))))

  00003	8b 45 0c	 mov	 eax, DWORD PTR _<_Args_0>$[ebp]
  00006	8b 08		 mov	 ecx, DWORD PTR [eax]
  00008	8b 45 08	 mov	 eax, DWORD PTR __Obj$[ebp]
  0000b	89 08		 mov	 DWORD PTR [eax], ecx

; 230  :         _Ty(_STD forward<_Types>(_Args)...);
; 231  : }

  0000d	5d		 pop	 ebp
  0000e	c3		 ret	 0
??$_Construct_in_place@PAU?$_List_node@USTextLine@CPythonEventManager@@PAX@std@@AAPAU12@@std@@YAXAAPAU?$_List_node@USTextLine@CPythonEventManager@@PAX@0@0@Z ENDP ; std::_Construct_in_place<std::_List_node<CPythonEventManager::STextLine,void *> *,std::_List_node<CPythonEventManager::STextLine,void *> * &>
_TEXT	ENDS
; Function compile flags: /Ogtp
; File C:\Program Files (x86)\Microsoft Visual Studio\2019\Community\VC\Tools\MSVC\14.28.29333\include\vector
; File C:\Program Files (x86)\Microsoft Visual Studio\2019\Community\VC\Tools\MSVC\14.28.29333\include\xmemory
; File C:\Program Files (x86)\Microsoft Visual Studio\2019\Community\VC\Tools\MSVC\14.28.29333\include\vector
; File C:\Program Files (x86)\Microsoft Visual Studio\2019\Community\VC\Tools\MSVC\14.28.29333\include\xmemory
; File C:\Program Files (x86)\Microsoft Visual Studio\2019\Community\VC\Tools\MSVC\14.28.29333\include\vector
; File C:\Program Files (x86)\Microsoft Visual Studio\2019\Community\VC\Tools\MSVC\14.28.29333\include\xmemory
; File C:\Program Files (x86)\Microsoft Visual Studio\2019\Community\VC\Tools\MSVC\14.28.29333\include\vector
; File C:\Program Files (x86)\Microsoft Visual Studio\2019\Community\VC\Tools\MSVC\14.28.29333\include\xmemory
; File C:\Program Files (x86)\Microsoft Visual Studio\2019\Community\VC\Tools\MSVC\14.28.29333\include\vector
; File C:\Program Files (x86)\Microsoft Visual Studio\2019\Community\VC\Tools\MSVC\14.28.29333\include\xmemory
; File C:\Program Files (x86)\Microsoft Visual Studio\2019\Community\VC\Tools\MSVC\14.28.29333\include\vector
; File C:\Program Files (x86)\Microsoft Visual Studio\2019\Community\VC\Tools\MSVC\14.28.29333\include\xmemory
; File C:\Program Files (x86)\Microsoft Visual Studio\2019\Community\VC\Tools\MSVC\14.28.29333\include\vector
;	COMDAT ??$_Emplace_reallocate@ABQAUSEventSet@CPythonEventManager@@@?$vector@PAUSEventSet@CPythonEventManager@@V?$allocator@PAUSEventSet@CPythonEventManager@@@std@@@std@@QAEPAPAUSEventSet@CPythonEventManager@@QAPAU23@ABQAU23@@Z
_TEXT	SEGMENT
tv435 = -12						; size = 4
__Newsize$1$ = -8					; size = 4
tv434 = -4						; size = 4
__Whereptr$ = 8						; size = 4
_<_Val_0>$ = 12						; size = 4
??$_Emplace_reallocate@ABQAUSEventSet@CPythonEventManager@@@?$vector@PAUSEventSet@CPythonEventManager@@V?$allocator@PAUSEventSet@CPythonEventManager@@@std@@@std@@QAEPAPAUSEventSet@CPythonEventManager@@QAPAU23@ABQAU23@@Z PROC ; std::vector<CPythonEventManager::SEventSet *,std::allocator<CPythonEventManager::SEventSet *> >::_Emplace_reallocate<CPythonEventManager::SEventSet * const &>, COMDAT
; _this$ = ecx

; 725  :     pointer _Emplace_reallocate(const pointer _Whereptr, _Valty&&... _Val) {

  00000	55		 push	 ebp
  00001	8b ec		 mov	 ebp, esp
  00003	83 ec 0c	 sub	 esp, 12			; 0000000cH
  00006	53		 push	 ebx

; 726  :         // reallocate and insert by perfectly forwarding _Val at _Whereptr
; 727  :         _Alty& _Al        = _Getal();
; 728  :         auto& _My_data    = _Mypair._Myval2;
; 729  :         pointer& _Myfirst = _My_data._Myfirst;
; 730  :         pointer& _Mylast  = _My_data._Mylast;
; 731  : 
; 732  :         _STL_INTERNAL_CHECK(_Mylast == _My_data._Myend); // check that we have no unused capacity
; 733  : 
; 734  :         const auto _Whereoff = static_cast<size_type>(_Whereptr - _Myfirst);

  00007	8b 5d 08	 mov	 ebx, DWORD PTR __Whereptr$[ebp]
  0000a	56		 push	 esi
  0000b	8b f1		 mov	 esi, ecx
  0000d	57		 push	 edi
  0000e	8b 16		 mov	 edx, DWORD PTR [esi]
  00010	2b da		 sub	 ebx, edx

; 735  :         const auto _Oldsize  = static_cast<size_type>(_Mylast - _Myfirst);

  00012	8b 46 04	 mov	 eax, DWORD PTR [esi+4]
  00015	2b c2		 sub	 eax, edx
  00017	c1 fb 02	 sar	 ebx, 2
  0001a	c1 f8 02	 sar	 eax, 2

; 736  : 
; 737  :         if (_Oldsize == max_size()) {

  0001d	3d ff ff ff 3f	 cmp	 eax, 1073741823		; 3fffffffH
  00022	0f 84 c4 00 00
	00		 je	 $LN39@Emplace_re

; 1494 :         return static_cast<size_type>(_My_data._Myend - _My_data._Myfirst);

  00028	8b 4e 08	 mov	 ecx, DWORD PTR [esi+8]

; 739  :         }
; 740  : 
; 741  :         const size_type _Newsize     = _Oldsize + 1;

  0002b	8d 78 01	 lea	 edi, DWORD PTR [eax+1]

; 1494 :         return static_cast<size_type>(_My_data._Myend - _My_data._Myfirst);

  0002e	2b ca		 sub	 ecx, edx

; 739  :         }
; 740  : 
; 741  :         const size_type _Newsize     = _Oldsize + 1;

  00030	89 7d f8	 mov	 DWORD PTR __Newsize$1$[ebp], edi

; 1494 :         return static_cast<size_type>(_My_data._Myend - _My_data._Myfirst);

  00033	c1 f9 02	 sar	 ecx, 2

; 1620 :         if (_Oldcapacity > _Max - _Oldcapacity / 2) {

  00036	b8 ff ff ff 3f	 mov	 eax, 1073741823		; 3fffffffH
  0003b	8b d1		 mov	 edx, ecx
  0003d	d1 ea		 shr	 edx, 1
  0003f	2b c2		 sub	 eax, edx
  00041	3b c8		 cmp	 ecx, eax
  00043	76 3a		 jbe	 SHORT $LN12@Emplace_re

; 1621 :             return _Max; // geometric growth would overflow

  00045	b9 ff ff ff 3f	 mov	 ecx, 1073741823		; 3fffffffH
$LN20@Emplace_re:
; File C:\Program Files (x86)\Microsoft Visual Studio\2019\Community\VC\Tools\MSVC\14.28.29333\include\xmemory

; 65   :     return _Count * _Ty_size;

  0004a	8d 04 8d 00 00
	00 00		 lea	 eax, DWORD PTR [ecx*4]

; 814  :         return static_cast<_Ty*>(_Allocate<_New_alignof<_Ty>>(_Get_size_of_n<sizeof(_Ty)>(_Count)));

  00051	50		 push	 eax

; 65   :     return _Count * _Ty_size;

  00052	89 45 f4	 mov	 DWORD PTR tv435[ebp], eax

; 814  :         return static_cast<_Ty*>(_Allocate<_New_alignof<_Ty>>(_Get_size_of_n<sizeof(_Ty)>(_Count)));

  00055	e8 00 00 00 00	 call	 ??$_Allocate@$07U_Default_allocate_traits@std@@$0A@@std@@YAPAXI@Z ; std::_Allocate<8,std::_Default_allocate_traits,0>
; File C:\Program Files (x86)\Microsoft Visual Studio\2019\Community\VC\Tools\MSVC\14.28.29333\include\vector

; 749  :         _Alty_traits::construct(_Al, _Unfancy(_Newvec + _Whereoff), _STD forward<_Valty>(_Val)...);

  0005a	8b 4d 0c	 mov	 ecx, DWORD PTR _<_Val_0>$[ebp]
; File C:\Program Files (x86)\Microsoft Visual Studio\2019\Community\VC\Tools\MSVC\14.28.29333\include\xmemory

; 814  :         return static_cast<_Ty*>(_Allocate<_New_alignof<_Ty>>(_Get_size_of_n<sizeof(_Ty)>(_Count)));

  0005d	8b f8		 mov	 edi, eax
; File C:\Program Files (x86)\Microsoft Visual Studio\2019\Community\VC\Tools\MSVC\14.28.29333\include\vector

; 749  :         _Alty_traits::construct(_Al, _Unfancy(_Newvec + _Whereoff), _STD forward<_Valty>(_Val)...);

  0005f	8d 04 9f	 lea	 eax, DWORD PTR [edi+ebx*4]
; File C:\Program Files (x86)\Microsoft Visual Studio\2019\Community\VC\Tools\MSVC\14.28.29333\include\xmemory

; 814  :         return static_cast<_Ty*>(_Allocate<_New_alignof<_Ty>>(_Get_size_of_n<sizeof(_Ty)>(_Count)));

  00062	83 c4 04	 add	 esp, 4
; File C:\Program Files (x86)\Microsoft Visual Studio\2019\Community\VC\Tools\MSVC\14.28.29333\include\vector

; 752  :         if (_Whereptr == _Mylast) { // at back, provide strong guarantee

  00065	8b 5d 08	 mov	 ebx, DWORD PTR __Whereptr$[ebp]
  00068	89 45 fc	 mov	 DWORD PTR tv434[ebp], eax
  0006b	8b 09		 mov	 ecx, DWORD PTR [ecx]
  0006d	89 08		 mov	 DWORD PTR [eax], ecx
  0006f	8b 56 04	 mov	 edx, DWORD PTR [esi+4]
  00072	8b 0e		 mov	 ecx, DWORD PTR [esi]
  00074	3b da		 cmp	 ebx, edx
  00076	75 1b		 jne	 SHORT $LN4@Emplace_re

; 753  :             _Umove_if_noexcept(_Myfirst, _Mylast, _Newvec);
; 754  :         } else { // provide basic guarantee

  00078	8b 5d fc	 mov	 ebx, DWORD PTR tv434[ebp]

; 1597 :         _Uninitialized_move(_First, _Last, _Dest, _Getal());

  0007b	8b c7		 mov	 eax, edi

; 753  :             _Umove_if_noexcept(_Myfirst, _Mylast, _Newvec);
; 754  :         } else { // provide basic guarantee

  0007d	eb 2b		 jmp	 SHORT $LN5@Emplace_re
$LN12@Emplace_re:

; 1624 :         const size_type _Geometric = _Oldcapacity + _Oldcapacity / 2;

  0007f	8d 04 0a	 lea	 eax, DWORD PTR [edx+ecx]
; File C:\Program Files (x86)\Microsoft Visual Studio\2019\Community\VC\Tools\MSVC\14.28.29333\include\xmemory

; 60   :         if (_Count > _Max_possible) {

  00082	8b cf		 mov	 ecx, edi
  00084	3b c7		 cmp	 eax, edi
  00086	0f 43 c8	 cmovae	 ecx, eax
  00089	81 f9 ff ff ff
	3f		 cmp	 ecx, 1073741823		; 3fffffffH
  0008f	77 60		 ja	 SHORT $LN40@Emplace_re
  00091	eb b7		 jmp	 SHORT $LN20@Emplace_re
$LN4@Emplace_re:
; File C:\Program Files (x86)\Microsoft Visual Studio\2019\Community\VC\Tools\MSVC\14.28.29333\include\vector

; 1592 :         return _Uninitialized_move(_First, _Last, _Dest, _Getal());

  00093	56		 push	 esi
  00094	57		 push	 edi
  00095	53		 push	 ebx
  00096	51		 push	 ecx
  00097	e8 00 00 00 00	 call	 ??$_Uninitialized_move@PAPAUSEventSet@CPythonEventManager@@V?$allocator@PAUSEventSet@CPythonEventManager@@@std@@@std@@YAPAPAUSEventSet@CPythonEventManager@@QAPAU12@0PAPAU12@AAV?$allocator@PAUSEventSet@CPythonEventManager@@@0@@Z ; std::_Uninitialized_move<CPythonEventManager::SEventSet * *,std::allocator<CPythonEventManager::SEventSet *> >
  0009c	8b 56 04	 mov	 edx, DWORD PTR [esi+4]
  0009f	8b cb		 mov	 ecx, ebx

; 755  :             _Umove(_Myfirst, _Whereptr, _Newvec);
; 756  :             _Constructed_first = _Newvec;
; 757  :             _Umove(_Whereptr, _Mylast, _Newvec + _Whereoff + 1);

  000a1	8b 5d fc	 mov	 ebx, DWORD PTR tv434[ebp]

; 1592 :         return _Uninitialized_move(_First, _Last, _Dest, _Getal());

  000a4	83 c4 10	 add	 esp, 16			; 00000010H

; 755  :             _Umove(_Myfirst, _Whereptr, _Newvec);
; 756  :             _Constructed_first = _Newvec;
; 757  :             _Umove(_Whereptr, _Mylast, _Newvec + _Whereoff + 1);

  000a7	8d 43 04	 lea	 eax, DWORD PTR [ebx+4]
$LN5@Emplace_re:
  000aa	56		 push	 esi
  000ab	50		 push	 eax
  000ac	52		 push	 edx
  000ad	51		 push	 ecx
  000ae	e8 00 00 00 00	 call	 ??$_Uninitialized_move@PAPAUSEventSet@CPythonEventManager@@V?$allocator@PAUSEventSet@CPythonEventManager@@@std@@@std@@YAPAPAUSEventSet@CPythonEventManager@@QAPAU12@0PAPAU12@AAV?$allocator@PAUSEventSet@CPythonEventManager@@@0@@Z ; std::_Uninitialized_move<CPythonEventManager::SEventSet * *,std::allocator<CPythonEventManager::SEventSet *> >

; 1676 :         if (_Myfirst) { // destroy and deallocate old array

  000b3	8b 0e		 mov	 ecx, DWORD PTR [esi]

; 755  :             _Umove(_Myfirst, _Whereptr, _Newvec);
; 756  :             _Constructed_first = _Newvec;
; 757  :             _Umove(_Whereptr, _Mylast, _Newvec + _Whereoff + 1);

  000b5	83 c4 10	 add	 esp, 16			; 00000010H

; 1676 :         if (_Myfirst) { // destroy and deallocate old array

  000b8	85 c9		 test	 ecx, ecx
  000ba	74 12		 je	 SHORT $LN33@Emplace_re

; 1677 :             _Destroy(_Myfirst, _Mylast);
; 1678 :             _Getal().deallocate(_Myfirst, static_cast<size_type>(_Myend - _Myfirst));

  000bc	8b 46 08	 mov	 eax, DWORD PTR [esi+8]
  000bf	2b c1		 sub	 eax, ecx
; File C:\Program Files (x86)\Microsoft Visual Studio\2019\Community\VC\Tools\MSVC\14.28.29333\include\xmemory

; 810  :         _Deallocate<_New_alignof<_Ty>>(_Ptr, sizeof(_Ty) * _Count);

  000c1	83 e0 fc	 and	 eax, -4			; fffffffcH
  000c4	50		 push	 eax
  000c5	51		 push	 ecx
  000c6	e8 00 00 00 00	 call	 ??$_Deallocate@$07$0A@@std@@YAXPAXI@Z ; std::_Deallocate<8,0>
  000cb	83 c4 08	 add	 esp, 8
$LN33@Emplace_re:
; File C:\Program Files (x86)\Microsoft Visual Studio\2019\Community\VC\Tools\MSVC\14.28.29333\include\vector

; 1682 :         _Mylast  = _Newvec + _Newsize;

  000ce	8b 45 f8	 mov	 eax, DWORD PTR __Newsize$1$[ebp]
  000d1	89 3e		 mov	 DWORD PTR [esi], edi
  000d3	8d 0c 87	 lea	 ecx, DWORD PTR [edi+eax*4]

; 758  :         }
; 759  :         _CATCH_ALL
; 760  :         _Destroy(_Constructed_first, _Constructed_last);
; 761  :         _Al.deallocate(_Newvec, _Newcapacity);
; 762  :         _RERAISE;
; 763  :         _CATCH_END
; 764  : 
; 765  :         _Change_array(_Newvec, _Newsize, _Newcapacity);
; 766  :         return _Newvec + _Whereoff;

  000d6	8b c3		 mov	 eax, ebx

; 1682 :         _Mylast  = _Newvec + _Newsize;

  000d8	89 4e 04	 mov	 DWORD PTR [esi+4], ecx

; 1683 :         _Myend   = _Newvec + _Newcapacity;

  000db	8b 4d f4	 mov	 ecx, DWORD PTR tv435[ebp]
  000de	03 cf		 add	 ecx, edi

; 758  :         }
; 759  :         _CATCH_ALL
; 760  :         _Destroy(_Constructed_first, _Constructed_last);
; 761  :         _Al.deallocate(_Newvec, _Newcapacity);
; 762  :         _RERAISE;
; 763  :         _CATCH_END
; 764  : 
; 765  :         _Change_array(_Newvec, _Newsize, _Newcapacity);
; 766  :         return _Newvec + _Whereoff;

  000e0	5f		 pop	 edi

; 1683 :         _Myend   = _Newvec + _Newcapacity;

  000e1	89 4e 08	 mov	 DWORD PTR [esi+8], ecx

; 758  :         }
; 759  :         _CATCH_ALL
; 760  :         _Destroy(_Constructed_first, _Constructed_last);
; 761  :         _Al.deallocate(_Newvec, _Newcapacity);
; 762  :         _RERAISE;
; 763  :         _CATCH_END
; 764  : 
; 765  :         _Change_array(_Newvec, _Newsize, _Newcapacity);
; 766  :         return _Newvec + _Whereoff;

  000e4	5e		 pop	 esi
  000e5	5b		 pop	 ebx

; 767  :     }

  000e6	8b e5		 mov	 esp, ebp
  000e8	5d		 pop	 ebp
  000e9	c2 08 00	 ret	 8
$LN39@Emplace_re:

; 738  :             _Xlength();

  000ec	e8 00 00 00 00	 call	 ?_Xlength@?$vector@PAUSEventSet@CPythonEventManager@@V?$allocator@PAUSEventSet@CPythonEventManager@@@std@@@std@@CAXXZ ; std::vector<CPythonEventManager::SEventSet *,std::allocator<CPythonEventManager::SEventSet *> >::_Xlength
$LN40@Emplace_re:
; File C:\Program Files (x86)\Microsoft Visual Studio\2019\Community\VC\Tools\MSVC\14.28.29333\include\xmemory

; 61   :             _Throw_bad_array_new_length(); // multiply overflow

  000f1	e8 00 00 00 00	 call	 ?_Throw_bad_array_new_length@std@@YAXXZ ; std::_Throw_bad_array_new_length
$LN37@Emplace_re:
  000f6	cc		 int	 3
??$_Emplace_reallocate@ABQAUSEventSet@CPythonEventManager@@@?$vector@PAUSEventSet@CPythonEventManager@@V?$allocator@PAUSEventSet@CPythonEventManager@@@std@@@std@@QAEPAPAUSEventSet@CPythonEventManager@@QAPAU23@ABQAU23@@Z ENDP ; std::vector<CPythonEventManager::SEventSet *,std::allocator<CPythonEventManager::SEventSet *> >::_Emplace_reallocate<CPythonEventManager::SEventSet * const &>
_TEXT	ENDS
; Function compile flags: /Ogtp
; File C:\Program Files (x86)\Microsoft Visual Studio\2019\Community\VC\Tools\MSVC\14.28.29333\include\xmemory
;	COMDAT ??$_Destroy_range@V?$allocator@PAUSEventSet@CPythonEventManager@@@std@@@std@@YAXPAPAUSEventSet@CPythonEventManager@@QAPAU12@AAV?$allocator@PAUSEventSet@CPythonEventManager@@@0@@Z
_TEXT	SEGMENT
__First$ = 8						; size = 4
__Last$ = 12						; size = 4
__Al$ = 16						; size = 4
??$_Destroy_range@V?$allocator@PAUSEventSet@CPythonEventManager@@@std@@@std@@YAXPAPAUSEventSet@CPythonEventManager@@QAPAU12@AAV?$allocator@PAUSEventSet@CPythonEventManager@@@0@@Z PROC ; std::_Destroy_range<std::allocator<CPythonEventManager::SEventSet *> >, COMDAT

; 963  :     // note that this is an optimization for debug mode codegen; in release mode the BE removes all of this
; 964  :     using _Ty = typename _Alloc::value_type;
; 965  :     if _CONSTEXPR_IF (!conjunction_v<is_trivially_destructible<_Ty>, _Uses_default_destroy<_Alloc, _Ty*>>) {
; 966  :         for (; _First != _Last; ++_First) {
; 967  :             allocator_traits<_Alloc>::destroy(_Al, _Unfancy(_First));
; 968  :         }
; 969  :     }
; 970  : }

  00000	c2 00 00	 ret	 0
??$_Destroy_range@V?$allocator@PAUSEventSet@CPythonEventManager@@@std@@@std@@YAXPAPAUSEventSet@CPythonEventManager@@QAPAU12@AAV?$allocator@PAUSEventSet@CPythonEventManager@@@0@@Z ENDP ; std::_Destroy_range<std::allocator<CPythonEventManager::SEventSet *> >
_TEXT	ENDS
; Function compile flags: /Ogtp
; File C:\Program Files (x86)\Microsoft Visual Studio\2019\Community\VC\Tools\MSVC\14.28.29333\include\vector
; File C:\Program Files (x86)\Microsoft Visual Studio\2019\Community\VC\Tools\MSVC\14.28.29333\include\xmemory
; File C:\Program Files (x86)\Microsoft Visual Studio\2019\Community\VC\Tools\MSVC\14.28.29333\include\vector
; File C:\Program Files (x86)\Microsoft Visual Studio\2019\Community\VC\Tools\MSVC\14.28.29333\include\xmemory
; File C:\Program Files (x86)\Microsoft Visual Studio\2019\Community\VC\Tools\MSVC\14.28.29333\include\vector
; File C:\Program Files (x86)\Microsoft Visual Studio\2019\Community\VC\Tools\MSVC\14.28.29333\include\xmemory
; File C:\Program Files (x86)\Microsoft Visual Studio\2019\Community\VC\Tools\MSVC\14.28.29333\include\vector
; File C:\Program Files (x86)\Microsoft Visual Studio\2019\Community\VC\Tools\MSVC\14.28.29333\include\xmemory
; File C:\Program Files (x86)\Microsoft Visual Studio\2019\Community\VC\Tools\MSVC\14.28.29333\include\vector
; File C:\Program Files (x86)\Microsoft Visual Studio\2019\Community\VC\Tools\MSVC\14.28.29333\include\xmemory
; File C:\Program Files (x86)\Microsoft Visual Studio\2019\Community\VC\Tools\MSVC\14.28.29333\include\vector
; File C:\Program Files (x86)\Microsoft Visual Studio\2019\Community\VC\Tools\MSVC\14.28.29333\include\xmemory
; File C:\Program Files (x86)\Microsoft Visual Studio\2019\Community\VC\Tools\MSVC\14.28.29333\include\vector
;	COMDAT ??$_Emplace_reallocate@ABQAVCGraphicTextInstance@@@?$vector@PAVCGraphicTextInstance@@V?$allocator@PAVCGraphicTextInstance@@@std@@@std@@QAEPAPAVCGraphicTextInstance@@QAPAV2@ABQAV2@@Z
_TEXT	SEGMENT
tv435 = -12						; size = 4
__Newsize$1$ = -8					; size = 4
tv434 = -4						; size = 4
__Whereptr$ = 8						; size = 4
_<_Val_0>$ = 12						; size = 4
??$_Emplace_reallocate@ABQAVCGraphicTextInstance@@@?$vector@PAVCGraphicTextInstance@@V?$allocator@PAVCGraphicTextInstance@@@std@@@std@@QAEPAPAVCGraphicTextInstance@@QAPAV2@ABQAV2@@Z PROC ; std::vector<CGraphicTextInstance *,std::allocator<CGraphicTextInstance *> >::_Emplace_reallocate<CGraphicTextInstance * const &>, COMDAT
; _this$ = ecx

; 725  :     pointer _Emplace_reallocate(const pointer _Whereptr, _Valty&&... _Val) {

  00000	55		 push	 ebp
  00001	8b ec		 mov	 ebp, esp
  00003	83 ec 0c	 sub	 esp, 12			; 0000000cH
  00006	53		 push	 ebx

; 726  :         // reallocate and insert by perfectly forwarding _Val at _Whereptr
; 727  :         _Alty& _Al        = _Getal();
; 728  :         auto& _My_data    = _Mypair._Myval2;
; 729  :         pointer& _Myfirst = _My_data._Myfirst;
; 730  :         pointer& _Mylast  = _My_data._Mylast;
; 731  : 
; 732  :         _STL_INTERNAL_CHECK(_Mylast == _My_data._Myend); // check that we have no unused capacity
; 733  : 
; 734  :         const auto _Whereoff = static_cast<size_type>(_Whereptr - _Myfirst);

  00007	8b 5d 08	 mov	 ebx, DWORD PTR __Whereptr$[ebp]
  0000a	56		 push	 esi
  0000b	8b f1		 mov	 esi, ecx
  0000d	57		 push	 edi
  0000e	8b 16		 mov	 edx, DWORD PTR [esi]
  00010	2b da		 sub	 ebx, edx

; 735  :         const auto _Oldsize  = static_cast<size_type>(_Mylast - _Myfirst);

  00012	8b 46 04	 mov	 eax, DWORD PTR [esi+4]
  00015	2b c2		 sub	 eax, edx
  00017	c1 fb 02	 sar	 ebx, 2
  0001a	c1 f8 02	 sar	 eax, 2

; 736  : 
; 737  :         if (_Oldsize == max_size()) {

  0001d	3d ff ff ff 3f	 cmp	 eax, 1073741823		; 3fffffffH
  00022	0f 84 c4 00 00
	00		 je	 $LN39@Emplace_re

; 1494 :         return static_cast<size_type>(_My_data._Myend - _My_data._Myfirst);

  00028	8b 4e 08	 mov	 ecx, DWORD PTR [esi+8]

; 739  :         }
; 740  : 
; 741  :         const size_type _Newsize     = _Oldsize + 1;

  0002b	8d 78 01	 lea	 edi, DWORD PTR [eax+1]

; 1494 :         return static_cast<size_type>(_My_data._Myend - _My_data._Myfirst);

  0002e	2b ca		 sub	 ecx, edx

; 739  :         }
; 740  : 
; 741  :         const size_type _Newsize     = _Oldsize + 1;

  00030	89 7d f8	 mov	 DWORD PTR __Newsize$1$[ebp], edi

; 1494 :         return static_cast<size_type>(_My_data._Myend - _My_data._Myfirst);

  00033	c1 f9 02	 sar	 ecx, 2

; 1620 :         if (_Oldcapacity > _Max - _Oldcapacity / 2) {

  00036	b8 ff ff ff 3f	 mov	 eax, 1073741823		; 3fffffffH
  0003b	8b d1		 mov	 edx, ecx
  0003d	d1 ea		 shr	 edx, 1
  0003f	2b c2		 sub	 eax, edx
  00041	3b c8		 cmp	 ecx, eax
  00043	76 3a		 jbe	 SHORT $LN12@Emplace_re

; 1621 :             return _Max; // geometric growth would overflow

  00045	b9 ff ff ff 3f	 mov	 ecx, 1073741823		; 3fffffffH
$LN20@Emplace_re:
; File C:\Program Files (x86)\Microsoft Visual Studio\2019\Community\VC\Tools\MSVC\14.28.29333\include\xmemory

; 65   :     return _Count * _Ty_size;

  0004a	8d 04 8d 00 00
	00 00		 lea	 eax, DWORD PTR [ecx*4]

; 814  :         return static_cast<_Ty*>(_Allocate<_New_alignof<_Ty>>(_Get_size_of_n<sizeof(_Ty)>(_Count)));

  00051	50		 push	 eax

; 65   :     return _Count * _Ty_size;

  00052	89 45 f4	 mov	 DWORD PTR tv435[ebp], eax

; 814  :         return static_cast<_Ty*>(_Allocate<_New_alignof<_Ty>>(_Get_size_of_n<sizeof(_Ty)>(_Count)));

  00055	e8 00 00 00 00	 call	 ??$_Allocate@$07U_Default_allocate_traits@std@@$0A@@std@@YAPAXI@Z ; std::_Allocate<8,std::_Default_allocate_traits,0>
; File C:\Program Files (x86)\Microsoft Visual Studio\2019\Community\VC\Tools\MSVC\14.28.29333\include\vector

; 749  :         _Alty_traits::construct(_Al, _Unfancy(_Newvec + _Whereoff), _STD forward<_Valty>(_Val)...);

  0005a	8b 4d 0c	 mov	 ecx, DWORD PTR _<_Val_0>$[ebp]
; File C:\Program Files (x86)\Microsoft Visual Studio\2019\Community\VC\Tools\MSVC\14.28.29333\include\xmemory

; 814  :         return static_cast<_Ty*>(_Allocate<_New_alignof<_Ty>>(_Get_size_of_n<sizeof(_Ty)>(_Count)));

  0005d	8b f8		 mov	 edi, eax
; File C:\Program Files (x86)\Microsoft Visual Studio\2019\Community\VC\Tools\MSVC\14.28.29333\include\vector

; 749  :         _Alty_traits::construct(_Al, _Unfancy(_Newvec + _Whereoff), _STD forward<_Valty>(_Val)...);

  0005f	8d 04 9f	 lea	 eax, DWORD PTR [edi+ebx*4]
; File C:\Program Files (x86)\Microsoft Visual Studio\2019\Community\VC\Tools\MSVC\14.28.29333\include\xmemory

; 814  :         return static_cast<_Ty*>(_Allocate<_New_alignof<_Ty>>(_Get_size_of_n<sizeof(_Ty)>(_Count)));

  00062	83 c4 04	 add	 esp, 4
; File C:\Program Files (x86)\Microsoft Visual Studio\2019\Community\VC\Tools\MSVC\14.28.29333\include\vector

; 752  :         if (_Whereptr == _Mylast) { // at back, provide strong guarantee

  00065	8b 5d 08	 mov	 ebx, DWORD PTR __Whereptr$[ebp]
  00068	89 45 fc	 mov	 DWORD PTR tv434[ebp], eax
  0006b	8b 09		 mov	 ecx, DWORD PTR [ecx]
  0006d	89 08		 mov	 DWORD PTR [eax], ecx
  0006f	8b 56 04	 mov	 edx, DWORD PTR [esi+4]
  00072	8b 0e		 mov	 ecx, DWORD PTR [esi]
  00074	3b da		 cmp	 ebx, edx
  00076	75 1b		 jne	 SHORT $LN4@Emplace_re

; 753  :             _Umove_if_noexcept(_Myfirst, _Mylast, _Newvec);
; 754  :         } else { // provide basic guarantee

  00078	8b 5d fc	 mov	 ebx, DWORD PTR tv434[ebp]

; 1597 :         _Uninitialized_move(_First, _Last, _Dest, _Getal());

  0007b	8b c7		 mov	 eax, edi

; 753  :             _Umove_if_noexcept(_Myfirst, _Mylast, _Newvec);
; 754  :         } else { // provide basic guarantee

  0007d	eb 2b		 jmp	 SHORT $LN5@Emplace_re
$LN12@Emplace_re:

; 1624 :         const size_type _Geometric = _Oldcapacity + _Oldcapacity / 2;

  0007f	8d 04 0a	 lea	 eax, DWORD PTR [edx+ecx]
; File C:\Program Files (x86)\Microsoft Visual Studio\2019\Community\VC\Tools\MSVC\14.28.29333\include\xmemory

; 60   :         if (_Count > _Max_possible) {

  00082	8b cf		 mov	 ecx, edi
  00084	3b c7		 cmp	 eax, edi
  00086	0f 43 c8	 cmovae	 ecx, eax
  00089	81 f9 ff ff ff
	3f		 cmp	 ecx, 1073741823		; 3fffffffH
  0008f	77 60		 ja	 SHORT $LN40@Emplace_re
  00091	eb b7		 jmp	 SHORT $LN20@Emplace_re
$LN4@Emplace_re:
; File C:\Program Files (x86)\Microsoft Visual Studio\2019\Community\VC\Tools\MSVC\14.28.29333\include\vector

; 1592 :         return _Uninitialized_move(_First, _Last, _Dest, _Getal());

  00093	56		 push	 esi
  00094	57		 push	 edi
  00095	53		 push	 ebx
  00096	51		 push	 ecx
  00097	e8 00 00 00 00	 call	 ??$_Uninitialized_move@PAPAVCGraphicTextInstance@@V?$allocator@PAVCGraphicTextInstance@@@std@@@std@@YAPAPAVCGraphicTextInstance@@QAPAV1@0PAPAV1@AAV?$allocator@PAVCGraphicTextInstance@@@0@@Z ; std::_Uninitialized_move<CGraphicTextInstance * *,std::allocator<CGraphicTextInstance *> >
  0009c	8b 56 04	 mov	 edx, DWORD PTR [esi+4]
  0009f	8b cb		 mov	 ecx, ebx

; 755  :             _Umove(_Myfirst, _Whereptr, _Newvec);
; 756  :             _Constructed_first = _Newvec;
; 757  :             _Umove(_Whereptr, _Mylast, _Newvec + _Whereoff + 1);

  000a1	8b 5d fc	 mov	 ebx, DWORD PTR tv434[ebp]

; 1592 :         return _Uninitialized_move(_First, _Last, _Dest, _Getal());

  000a4	83 c4 10	 add	 esp, 16			; 00000010H

; 755  :             _Umove(_Myfirst, _Whereptr, _Newvec);
; 756  :             _Constructed_first = _Newvec;
; 757  :             _Umove(_Whereptr, _Mylast, _Newvec + _Whereoff + 1);

  000a7	8d 43 04	 lea	 eax, DWORD PTR [ebx+4]
$LN5@Emplace_re:
  000aa	56		 push	 esi
  000ab	50		 push	 eax
  000ac	52		 push	 edx
  000ad	51		 push	 ecx
  000ae	e8 00 00 00 00	 call	 ??$_Uninitialized_move@PAPAVCGraphicTextInstance@@V?$allocator@PAVCGraphicTextInstance@@@std@@@std@@YAPAPAVCGraphicTextInstance@@QAPAV1@0PAPAV1@AAV?$allocator@PAVCGraphicTextInstance@@@0@@Z ; std::_Uninitialized_move<CGraphicTextInstance * *,std::allocator<CGraphicTextInstance *> >

; 1676 :         if (_Myfirst) { // destroy and deallocate old array

  000b3	8b 0e		 mov	 ecx, DWORD PTR [esi]

; 755  :             _Umove(_Myfirst, _Whereptr, _Newvec);
; 756  :             _Constructed_first = _Newvec;
; 757  :             _Umove(_Whereptr, _Mylast, _Newvec + _Whereoff + 1);

  000b5	83 c4 10	 add	 esp, 16			; 00000010H

; 1676 :         if (_Myfirst) { // destroy and deallocate old array

  000b8	85 c9		 test	 ecx, ecx
  000ba	74 12		 je	 SHORT $LN33@Emplace_re

; 1677 :             _Destroy(_Myfirst, _Mylast);
; 1678 :             _Getal().deallocate(_Myfirst, static_cast<size_type>(_Myend - _Myfirst));

  000bc	8b 46 08	 mov	 eax, DWORD PTR [esi+8]
  000bf	2b c1		 sub	 eax, ecx
; File C:\Program Files (x86)\Microsoft Visual Studio\2019\Community\VC\Tools\MSVC\14.28.29333\include\xmemory

; 810  :         _Deallocate<_New_alignof<_Ty>>(_Ptr, sizeof(_Ty) * _Count);

  000c1	83 e0 fc	 and	 eax, -4			; fffffffcH
  000c4	50		 push	 eax
  000c5	51		 push	 ecx
  000c6	e8 00 00 00 00	 call	 ??$_Deallocate@$07$0A@@std@@YAXPAXI@Z ; std::_Deallocate<8,0>
  000cb	83 c4 08	 add	 esp, 8
$LN33@Emplace_re:
; File C:\Program Files (x86)\Microsoft Visual Studio\2019\Community\VC\Tools\MSVC\14.28.29333\include\vector

; 1682 :         _Mylast  = _Newvec + _Newsize;

  000ce	8b 45 f8	 mov	 eax, DWORD PTR __Newsize$1$[ebp]
  000d1	89 3e		 mov	 DWORD PTR [esi], edi
  000d3	8d 0c 87	 lea	 ecx, DWORD PTR [edi+eax*4]

; 758  :         }
; 759  :         _CATCH_ALL
; 760  :         _Destroy(_Constructed_first, _Constructed_last);
; 761  :         _Al.deallocate(_Newvec, _Newcapacity);
; 762  :         _RERAISE;
; 763  :         _CATCH_END
; 764  : 
; 765  :         _Change_array(_Newvec, _Newsize, _Newcapacity);
; 766  :         return _Newvec + _Whereoff;

  000d6	8b c3		 mov	 eax, ebx

; 1682 :         _Mylast  = _Newvec + _Newsize;

  000d8	89 4e 04	 mov	 DWORD PTR [esi+4], ecx

; 1683 :         _Myend   = _Newvec + _Newcapacity;

  000db	8b 4d f4	 mov	 ecx, DWORD PTR tv435[ebp]
  000de	03 cf		 add	 ecx, edi

; 758  :         }
; 759  :         _CATCH_ALL
; 760  :         _Destroy(_Constructed_first, _Constructed_last);
; 761  :         _Al.deallocate(_Newvec, _Newcapacity);
; 762  :         _RERAISE;
; 763  :         _CATCH_END
; 764  : 
; 765  :         _Change_array(_Newvec, _Newsize, _Newcapacity);
; 766  :         return _Newvec + _Whereoff;

  000e0	5f		 pop	 edi

; 1683 :         _Myend   = _Newvec + _Newcapacity;

  000e1	89 4e 08	 mov	 DWORD PTR [esi+8], ecx

; 758  :         }
; 759  :         _CATCH_ALL
; 760  :         _Destroy(_Constructed_first, _Constructed_last);
; 761  :         _Al.deallocate(_Newvec, _Newcapacity);
; 762  :         _RERAISE;
; 763  :         _CATCH_END
; 764  : 
; 765  :         _Change_array(_Newvec, _Newsize, _Newcapacity);
; 766  :         return _Newvec + _Whereoff;

  000e4	5e		 pop	 esi
  000e5	5b		 pop	 ebx

; 767  :     }

  000e6	8b e5		 mov	 esp, ebp
  000e8	5d		 pop	 ebp
  000e9	c2 08 00	 ret	 8
$LN39@Emplace_re:

; 738  :             _Xlength();

  000ec	e8 00 00 00 00	 call	 ?_Xlength@?$vector@PAVCGraphicTextInstance@@V?$allocator@PAVCGraphicTextInstance@@@std@@@std@@CAXXZ ; std::vector<CGraphicTextInstance *,std::allocator<CGraphicTextInstance *> >::_Xlength
$LN40@Emplace_re:
; File C:\Program Files (x86)\Microsoft Visual Studio\2019\Community\VC\Tools\MSVC\14.28.29333\include\xmemory

; 61   :             _Throw_bad_array_new_length(); // multiply overflow

  000f1	e8 00 00 00 00	 call	 ?_Throw_bad_array_new_length@std@@YAXXZ ; std::_Throw_bad_array_new_length
$LN37@Emplace_re:
  000f6	cc		 int	 3
??$_Emplace_reallocate@ABQAVCGraphicTextInstance@@@?$vector@PAVCGraphicTextInstance@@V?$allocator@PAVCGraphicTextInstance@@@std@@@std@@QAEPAPAVCGraphicTextInstance@@QAPAV2@ABQAV2@@Z ENDP ; std::vector<CGraphicTextInstance *,std::allocator<CGraphicTextInstance *> >::_Emplace_reallocate<CGraphicTextInstance * const &>
_TEXT	ENDS
; Function compile flags: /Ogtp
; File C:\Program Files (x86)\Microsoft Visual Studio\2019\Community\VC\Tools\MSVC\14.28.29333\include\vector
; File C:\Program Files (x86)\Microsoft Visual Studio\2019\Community\VC\Tools\MSVC\14.28.29333\include\xmemory
; File C:\Program Files (x86)\Microsoft Visual Studio\2019\Community\VC\Tools\MSVC\14.28.29333\include\vector
; File C:\Program Files (x86)\Microsoft Visual Studio\2019\Community\VC\Tools\MSVC\14.28.29333\include\xmemory
; File C:\Program Files (x86)\Microsoft Visual Studio\2019\Community\VC\Tools\MSVC\14.28.29333\include\vector
; File C:\Program Files (x86)\Microsoft Visual Studio\2019\Community\VC\Tools\MSVC\14.28.29333\include\xmemory
; File C:\Program Files (x86)\Microsoft Visual Studio\2019\Community\VC\Tools\MSVC\14.28.29333\include\vector
; File C:\Program Files (x86)\Microsoft Visual Studio\2019\Community\VC\Tools\MSVC\14.28.29333\include\xmemory
; File C:\Program Files (x86)\Microsoft Visual Studio\2019\Community\VC\Tools\MSVC\14.28.29333\include\vector
; File C:\Program Files (x86)\Microsoft Visual Studio\2019\Community\VC\Tools\MSVC\14.28.29333\include\xmemory
; File C:\Program Files (x86)\Microsoft Visual Studio\2019\Community\VC\Tools\MSVC\14.28.29333\include\vector
; File C:\Program Files (x86)\Microsoft Visual Studio\2019\Community\VC\Tools\MSVC\14.28.29333\include\xmemory
; File C:\Program Files (x86)\Microsoft Visual Studio\2019\Community\VC\Tools\MSVC\14.28.29333\include\vector
;	COMDAT ??$_Emplace_reallocate@PAUSEventSet@CPythonEventManager@@@?$vector@PAUSEventSet@CPythonEventManager@@V?$allocator@PAUSEventSet@CPythonEventManager@@@std@@@std@@QAEPAPAUSEventSet@CPythonEventManager@@QAPAU23@$$QAPAU23@@Z
_TEXT	SEGMENT
tv435 = -12						; size = 4
__Newsize$1$ = -8					; size = 4
tv434 = -4						; size = 4
__Whereptr$ = 8						; size = 4
_<_Val_0>$ = 12						; size = 4
??$_Emplace_reallocate@PAUSEventSet@CPythonEventManager@@@?$vector@PAUSEventSet@CPythonEventManager@@V?$allocator@PAUSEventSet@CPythonEventManager@@@std@@@std@@QAEPAPAUSEventSet@CPythonEventManager@@QAPAU23@$$QAPAU23@@Z PROC ; std::vector<CPythonEventManager::SEventSet *,std::allocator<CPythonEventManager::SEventSet *> >::_Emplace_reallocate<CPythonEventManager::SEventSet *>, COMDAT
; _this$ = ecx

; 725  :     pointer _Emplace_reallocate(const pointer _Whereptr, _Valty&&... _Val) {

  00000	55		 push	 ebp
  00001	8b ec		 mov	 ebp, esp
  00003	83 ec 0c	 sub	 esp, 12			; 0000000cH
  00006	53		 push	 ebx

; 726  :         // reallocate and insert by perfectly forwarding _Val at _Whereptr
; 727  :         _Alty& _Al        = _Getal();
; 728  :         auto& _My_data    = _Mypair._Myval2;
; 729  :         pointer& _Myfirst = _My_data._Myfirst;
; 730  :         pointer& _Mylast  = _My_data._Mylast;
; 731  : 
; 732  :         _STL_INTERNAL_CHECK(_Mylast == _My_data._Myend); // check that we have no unused capacity
; 733  : 
; 734  :         const auto _Whereoff = static_cast<size_type>(_Whereptr - _Myfirst);

  00007	8b 5d 08	 mov	 ebx, DWORD PTR __Whereptr$[ebp]
  0000a	56		 push	 esi
  0000b	8b f1		 mov	 esi, ecx
  0000d	57		 push	 edi
  0000e	8b 16		 mov	 edx, DWORD PTR [esi]
  00010	2b da		 sub	 ebx, edx

; 735  :         const auto _Oldsize  = static_cast<size_type>(_Mylast - _Myfirst);

  00012	8b 46 04	 mov	 eax, DWORD PTR [esi+4]
  00015	2b c2		 sub	 eax, edx
  00017	c1 fb 02	 sar	 ebx, 2
  0001a	c1 f8 02	 sar	 eax, 2

; 736  : 
; 737  :         if (_Oldsize == max_size()) {

  0001d	3d ff ff ff 3f	 cmp	 eax, 1073741823		; 3fffffffH
  00022	0f 84 c4 00 00
	00		 je	 $LN39@Emplace_re

; 1494 :         return static_cast<size_type>(_My_data._Myend - _My_data._Myfirst);

  00028	8b 4e 08	 mov	 ecx, DWORD PTR [esi+8]

; 739  :         }
; 740  : 
; 741  :         const size_type _Newsize     = _Oldsize + 1;

  0002b	8d 78 01	 lea	 edi, DWORD PTR [eax+1]

; 1494 :         return static_cast<size_type>(_My_data._Myend - _My_data._Myfirst);

  0002e	2b ca		 sub	 ecx, edx

; 739  :         }
; 740  : 
; 741  :         const size_type _Newsize     = _Oldsize + 1;

  00030	89 7d f8	 mov	 DWORD PTR __Newsize$1$[ebp], edi

; 1494 :         return static_cast<size_type>(_My_data._Myend - _My_data._Myfirst);

  00033	c1 f9 02	 sar	 ecx, 2

; 1620 :         if (_Oldcapacity > _Max - _Oldcapacity / 2) {

  00036	b8 ff ff ff 3f	 mov	 eax, 1073741823		; 3fffffffH
  0003b	8b d1		 mov	 edx, ecx
  0003d	d1 ea		 shr	 edx, 1
  0003f	2b c2		 sub	 eax, edx
  00041	3b c8		 cmp	 ecx, eax
  00043	76 3a		 jbe	 SHORT $LN12@Emplace_re

; 1621 :             return _Max; // geometric growth would overflow

  00045	b9 ff ff ff 3f	 mov	 ecx, 1073741823		; 3fffffffH
$LN20@Emplace_re:
; File C:\Program Files (x86)\Microsoft Visual Studio\2019\Community\VC\Tools\MSVC\14.28.29333\include\xmemory

; 65   :     return _Count * _Ty_size;

  0004a	8d 04 8d 00 00
	00 00		 lea	 eax, DWORD PTR [ecx*4]

; 814  :         return static_cast<_Ty*>(_Allocate<_New_alignof<_Ty>>(_Get_size_of_n<sizeof(_Ty)>(_Count)));

  00051	50		 push	 eax

; 65   :     return _Count * _Ty_size;

  00052	89 45 f4	 mov	 DWORD PTR tv435[ebp], eax

; 814  :         return static_cast<_Ty*>(_Allocate<_New_alignof<_Ty>>(_Get_size_of_n<sizeof(_Ty)>(_Count)));

  00055	e8 00 00 00 00	 call	 ??$_Allocate@$07U_Default_allocate_traits@std@@$0A@@std@@YAPAXI@Z ; std::_Allocate<8,std::_Default_allocate_traits,0>
; File C:\Program Files (x86)\Microsoft Visual Studio\2019\Community\VC\Tools\MSVC\14.28.29333\include\vector

; 749  :         _Alty_traits::construct(_Al, _Unfancy(_Newvec + _Whereoff), _STD forward<_Valty>(_Val)...);

  0005a	8b 4d 0c	 mov	 ecx, DWORD PTR _<_Val_0>$[ebp]
; File C:\Program Files (x86)\Microsoft Visual Studio\2019\Community\VC\Tools\MSVC\14.28.29333\include\xmemory

; 814  :         return static_cast<_Ty*>(_Allocate<_New_alignof<_Ty>>(_Get_size_of_n<sizeof(_Ty)>(_Count)));

  0005d	8b f8		 mov	 edi, eax
; File C:\Program Files (x86)\Microsoft Visual Studio\2019\Community\VC\Tools\MSVC\14.28.29333\include\vector

; 749  :         _Alty_traits::construct(_Al, _Unfancy(_Newvec + _Whereoff), _STD forward<_Valty>(_Val)...);

  0005f	8d 04 9f	 lea	 eax, DWORD PTR [edi+ebx*4]
; File C:\Program Files (x86)\Microsoft Visual Studio\2019\Community\VC\Tools\MSVC\14.28.29333\include\xmemory

; 814  :         return static_cast<_Ty*>(_Allocate<_New_alignof<_Ty>>(_Get_size_of_n<sizeof(_Ty)>(_Count)));

  00062	83 c4 04	 add	 esp, 4
; File C:\Program Files (x86)\Microsoft Visual Studio\2019\Community\VC\Tools\MSVC\14.28.29333\include\vector

; 752  :         if (_Whereptr == _Mylast) { // at back, provide strong guarantee

  00065	8b 5d 08	 mov	 ebx, DWORD PTR __Whereptr$[ebp]
  00068	89 45 fc	 mov	 DWORD PTR tv434[ebp], eax
  0006b	8b 09		 mov	 ecx, DWORD PTR [ecx]
  0006d	89 08		 mov	 DWORD PTR [eax], ecx
  0006f	8b 56 04	 mov	 edx, DWORD PTR [esi+4]
  00072	8b 0e		 mov	 ecx, DWORD PTR [esi]
  00074	3b da		 cmp	 ebx, edx
  00076	75 1b		 jne	 SHORT $LN4@Emplace_re

; 753  :             _Umove_if_noexcept(_Myfirst, _Mylast, _Newvec);
; 754  :         } else { // provide basic guarantee

  00078	8b 5d fc	 mov	 ebx, DWORD PTR tv434[ebp]

; 1597 :         _Uninitialized_move(_First, _Last, _Dest, _Getal());

  0007b	8b c7		 mov	 eax, edi

; 753  :             _Umove_if_noexcept(_Myfirst, _Mylast, _Newvec);
; 754  :         } else { // provide basic guarantee

  0007d	eb 2b		 jmp	 SHORT $LN5@Emplace_re
$LN12@Emplace_re:

; 1624 :         const size_type _Geometric = _Oldcapacity + _Oldcapacity / 2;

  0007f	8d 04 0a	 lea	 eax, DWORD PTR [edx+ecx]
; File C:\Program Files (x86)\Microsoft Visual Studio\2019\Community\VC\Tools\MSVC\14.28.29333\include\xmemory

; 60   :         if (_Count > _Max_possible) {

  00082	8b cf		 mov	 ecx, edi
  00084	3b c7		 cmp	 eax, edi
  00086	0f 43 c8	 cmovae	 ecx, eax
  00089	81 f9 ff ff ff
	3f		 cmp	 ecx, 1073741823		; 3fffffffH
  0008f	77 60		 ja	 SHORT $LN40@Emplace_re
  00091	eb b7		 jmp	 SHORT $LN20@Emplace_re
$LN4@Emplace_re:
; File C:\Program Files (x86)\Microsoft Visual Studio\2019\Community\VC\Tools\MSVC\14.28.29333\include\vector

; 1592 :         return _Uninitialized_move(_First, _Last, _Dest, _Getal());

  00093	56		 push	 esi
  00094	57		 push	 edi
  00095	53		 push	 ebx
  00096	51		 push	 ecx
  00097	e8 00 00 00 00	 call	 ??$_Uninitialized_move@PAPAUSEventSet@CPythonEventManager@@V?$allocator@PAUSEventSet@CPythonEventManager@@@std@@@std@@YAPAPAUSEventSet@CPythonEventManager@@QAPAU12@0PAPAU12@AAV?$allocator@PAUSEventSet@CPythonEventManager@@@0@@Z ; std::_Uninitialized_move<CPythonEventManager::SEventSet * *,std::allocator<CPythonEventManager::SEventSet *> >
  0009c	8b 56 04	 mov	 edx, DWORD PTR [esi+4]
  0009f	8b cb		 mov	 ecx, ebx

; 755  :             _Umove(_Myfirst, _Whereptr, _Newvec);
; 756  :             _Constructed_first = _Newvec;
; 757  :             _Umove(_Whereptr, _Mylast, _Newvec + _Whereoff + 1);

  000a1	8b 5d fc	 mov	 ebx, DWORD PTR tv434[ebp]

; 1592 :         return _Uninitialized_move(_First, _Last, _Dest, _Getal());

  000a4	83 c4 10	 add	 esp, 16			; 00000010H

; 755  :             _Umove(_Myfirst, _Whereptr, _Newvec);
; 756  :             _Constructed_first = _Newvec;
; 757  :             _Umove(_Whereptr, _Mylast, _Newvec + _Whereoff + 1);

  000a7	8d 43 04	 lea	 eax, DWORD PTR [ebx+4]
$LN5@Emplace_re:
  000aa	56		 push	 esi
  000ab	50		 push	 eax
  000ac	52		 push	 edx
  000ad	51		 push	 ecx
  000ae	e8 00 00 00 00	 call	 ??$_Uninitialized_move@PAPAUSEventSet@CPythonEventManager@@V?$allocator@PAUSEventSet@CPythonEventManager@@@std@@@std@@YAPAPAUSEventSet@CPythonEventManager@@QAPAU12@0PAPAU12@AAV?$allocator@PAUSEventSet@CPythonEventManager@@@0@@Z ; std::_Uninitialized_move<CPythonEventManager::SEventSet * *,std::allocator<CPythonEventManager::SEventSet *> >

; 1676 :         if (_Myfirst) { // destroy and deallocate old array

  000b3	8b 0e		 mov	 ecx, DWORD PTR [esi]

; 755  :             _Umove(_Myfirst, _Whereptr, _Newvec);
; 756  :             _Constructed_first = _Newvec;
; 757  :             _Umove(_Whereptr, _Mylast, _Newvec + _Whereoff + 1);

  000b5	83 c4 10	 add	 esp, 16			; 00000010H

; 1676 :         if (_Myfirst) { // destroy and deallocate old array

  000b8	85 c9		 test	 ecx, ecx
  000ba	74 12		 je	 SHORT $LN33@Emplace_re

; 1677 :             _Destroy(_Myfirst, _Mylast);
; 1678 :             _Getal().deallocate(_Myfirst, static_cast<size_type>(_Myend - _Myfirst));

  000bc	8b 46 08	 mov	 eax, DWORD PTR [esi+8]
  000bf	2b c1		 sub	 eax, ecx
; File C:\Program Files (x86)\Microsoft Visual Studio\2019\Community\VC\Tools\MSVC\14.28.29333\include\xmemory

; 810  :         _Deallocate<_New_alignof<_Ty>>(_Ptr, sizeof(_Ty) * _Count);

  000c1	83 e0 fc	 and	 eax, -4			; fffffffcH
  000c4	50		 push	 eax
  000c5	51		 push	 ecx
  000c6	e8 00 00 00 00	 call	 ??$_Deallocate@$07$0A@@std@@YAXPAXI@Z ; std::_Deallocate<8,0>
  000cb	83 c4 08	 add	 esp, 8
$LN33@Emplace_re:
; File C:\Program Files (x86)\Microsoft Visual Studio\2019\Community\VC\Tools\MSVC\14.28.29333\include\vector

; 1682 :         _Mylast  = _Newvec + _Newsize;

  000ce	8b 45 f8	 mov	 eax, DWORD PTR __Newsize$1$[ebp]
  000d1	89 3e		 mov	 DWORD PTR [esi], edi
  000d3	8d 0c 87	 lea	 ecx, DWORD PTR [edi+eax*4]

; 758  :         }
; 759  :         _CATCH_ALL
; 760  :         _Destroy(_Constructed_first, _Constructed_last);
; 761  :         _Al.deallocate(_Newvec, _Newcapacity);
; 762  :         _RERAISE;
; 763  :         _CATCH_END
; 764  : 
; 765  :         _Change_array(_Newvec, _Newsize, _Newcapacity);
; 766  :         return _Newvec + _Whereoff;

  000d6	8b c3		 mov	 eax, ebx

; 1682 :         _Mylast  = _Newvec + _Newsize;

  000d8	89 4e 04	 mov	 DWORD PTR [esi+4], ecx

; 1683 :         _Myend   = _Newvec + _Newcapacity;

  000db	8b 4d f4	 mov	 ecx, DWORD PTR tv435[ebp]
  000de	03 cf		 add	 ecx, edi

; 758  :         }
; 759  :         _CATCH_ALL
; 760  :         _Destroy(_Constructed_first, _Constructed_last);
; 761  :         _Al.deallocate(_Newvec, _Newcapacity);
; 762  :         _RERAISE;
; 763  :         _CATCH_END
; 764  : 
; 765  :         _Change_array(_Newvec, _Newsize, _Newcapacity);
; 766  :         return _Newvec + _Whereoff;

  000e0	5f		 pop	 edi

; 1683 :         _Myend   = _Newvec + _Newcapacity;

  000e1	89 4e 08	 mov	 DWORD PTR [esi+8], ecx

; 758  :         }
; 759  :         _CATCH_ALL
; 760  :         _Destroy(_Constructed_first, _Constructed_last);
; 761  :         _Al.deallocate(_Newvec, _Newcapacity);
; 762  :         _RERAISE;
; 763  :         _CATCH_END
; 764  : 
; 765  :         _Change_array(_Newvec, _Newsize, _Newcapacity);
; 766  :         return _Newvec + _Whereoff;

  000e4	5e		 pop	 esi
  000e5	5b		 pop	 ebx

; 767  :     }

  000e6	8b e5		 mov	 esp, ebp
  000e8	5d		 pop	 ebp
  000e9	c2 08 00	 ret	 8
$LN39@Emplace_re:

; 738  :             _Xlength();

  000ec	e8 00 00 00 00	 call	 ?_Xlength@?$vector@PAUSEventSet@CPythonEventManager@@V?$allocator@PAUSEventSet@CPythonEventManager@@@std@@@std@@CAXXZ ; std::vector<CPythonEventManager::SEventSet *,std::allocator<CPythonEventManager::SEventSet *> >::_Xlength
$LN40@Emplace_re:
; File C:\Program Files (x86)\Microsoft Visual Studio\2019\Community\VC\Tools\MSVC\14.28.29333\include\xmemory

; 61   :             _Throw_bad_array_new_length(); // multiply overflow

  000f1	e8 00 00 00 00	 call	 ?_Throw_bad_array_new_length@std@@YAXXZ ; std::_Throw_bad_array_new_length
$LN37@Emplace_re:
  000f6	cc		 int	 3
??$_Emplace_reallocate@PAUSEventSet@CPythonEventManager@@@?$vector@PAUSEventSet@CPythonEventManager@@V?$allocator@PAUSEventSet@CPythonEventManager@@@std@@@std@@QAEPAPAUSEventSet@CPythonEventManager@@QAPAU23@$$QAPAU23@@Z ENDP ; std::vector<CPythonEventManager::SEventSet *,std::allocator<CPythonEventManager::SEventSet *> >::_Emplace_reallocate<CPythonEventManager::SEventSet *>
_TEXT	ENDS
; Function compile flags: /Ogtp
; File D:\Metin2 Server Files\mainline\SRC_2014\Metin2Client\UserInterface\PythonEventManager.cpp
;	COMDAT ?GetCameraSettingFromArgList@@YAXAAV?$list@USArgumet@script@@V?$allocator@USArgumet@script@@@std@@@std@@PAUSCameraSetting@IAbstractApplication@@@Z
_TEXT	SEGMENT
_iViewDir$1$ = -20					; size = 4
_iUpDir$1$ = -16					; size = 4
_iz$1$ = -12						; size = 4
_iy$1$ = -8						; size = 4
_ix$1$ = -4						; size = 4
_rArgList$ = 8						; size = 4
_pCameraSetting$ = 12					; size = 4
?GetCameraSettingFromArgList@@YAXAAV?$list@USArgumet@script@@V?$allocator@USArgumet@script@@@std@@@std@@PAUSCameraSetting@IAbstractApplication@@@Z PROC ; GetCameraSettingFromArgList, COMDAT

; 49   : {

  00000	55		 push	 ebp
  00001	8b ec		 mov	 ebp, esp
  00003	83 ec 14	 sub	 esp, 20			; 00000014H
  00006	53		 push	 ebx
  00007	56		 push	 esi

; 50   : 	int ix = atoi(GetArgument("x", rArgList));

  00008	8b 75 08	 mov	 esi, DWORD PTR _rArgList$[ebp]
  0000b	57		 push	 edi
  0000c	56		 push	 esi
  0000d	68 00 00 00 00	 push	 OFFSET ??_C@_01FJMABOPO@x@
  00012	e8 00 00 00 00	 call	 ?GetArgument@@YAPBDPBDAAV?$list@USArgumet@script@@V?$allocator@USArgumet@script@@@std@@@std@@@Z ; GetArgument
  00017	50		 push	 eax
  00018	e8 00 00 00 00	 call	 __atoi64

; 51   : 	int iy = atoi(GetArgument("y", rArgList));

  0001d	56		 push	 esi
  0001e	68 00 00 00 00	 push	 OFFSET ??_C@_01EANLCPLP@y@
  00023	89 45 fc	 mov	 DWORD PTR _ix$1$[ebp], eax
  00026	e8 00 00 00 00	 call	 ?GetArgument@@YAPBDPBDAAV?$list@USArgumet@script@@V?$allocator@USArgumet@script@@@std@@@std@@@Z ; GetArgument
  0002b	50		 push	 eax
  0002c	e8 00 00 00 00	 call	 __atoi64

; 52   : 	int iz = atoi(GetArgument("z", rArgList));

  00031	56		 push	 esi
  00032	68 00 00 00 00	 push	 OFFSET ??_C@_01GLPGHMHM@z@
  00037	89 45 f8	 mov	 DWORD PTR _iy$1$[ebp], eax
  0003a	e8 00 00 00 00	 call	 ?GetArgument@@YAPBDPBDAAV?$list@USArgumet@script@@V?$allocator@USArgumet@script@@@std@@@std@@@Z ; GetArgument
  0003f	50		 push	 eax
  00040	e8 00 00 00 00	 call	 __atoi64

; 53   : 	int iUpDir = atoi(GetArgument("up", rArgList));

  00045	56		 push	 esi
  00046	68 00 00 00 00	 push	 OFFSET ??_C@_02HNLLPFKA@up@
  0004b	89 45 f4	 mov	 DWORD PTR _iz$1$[ebp], eax
  0004e	e8 00 00 00 00	 call	 ?GetArgument@@YAPBDPBDAAV?$list@USArgumet@script@@V?$allocator@USArgumet@script@@@std@@@std@@@Z ; GetArgument
  00053	50		 push	 eax
  00054	e8 00 00 00 00	 call	 __atoi64

; 54   : 	int iViewDir = atoi(GetArgument("view", rArgList));

  00059	56		 push	 esi
  0005a	68 00 00 00 00	 push	 OFFSET ??_C@_04CHADEDPO@view@
  0005f	89 45 f0	 mov	 DWORD PTR _iUpDir$1$[ebp], eax
  00062	e8 00 00 00 00	 call	 ?GetArgument@@YAPBDPBDAAV?$list@USArgumet@script@@V?$allocator@USArgumet@script@@@std@@@std@@@Z ; GetArgument
  00067	50		 push	 eax
  00068	e8 00 00 00 00	 call	 __atoi64

; 55   : 	int iCrossDir = atoi(GetArgument("cross", rArgList));

  0006d	56		 push	 esi
  0006e	68 00 00 00 00	 push	 OFFSET ??_C@_05HCKPILGO@cross@
  00073	89 45 ec	 mov	 DWORD PTR _iViewDir$1$[ebp], eax
  00076	e8 00 00 00 00	 call	 ?GetArgument@@YAPBDPBDAAV?$list@USArgumet@script@@V?$allocator@USArgumet@script@@@std@@@std@@@Z ; GetArgument
  0007b	83 c4 44	 add	 esp, 68			; 00000044H
  0007e	50		 push	 eax
  0007f	e8 00 00 00 00	 call	 __atoi64

; 56   : 	int iDistance = atoi(GetArgument("distance", rArgList));

  00084	56		 push	 esi
  00085	68 00 00 00 00	 push	 OFFSET ??_C@_08LHFODBFO@distance@
  0008a	8b d8		 mov	 ebx, eax
  0008c	e8 00 00 00 00	 call	 ?GetArgument@@YAPBDPBDAAV?$list@USArgumet@script@@V?$allocator@USArgumet@script@@@std@@@std@@@Z ; GetArgument
  00091	50		 push	 eax
  00092	e8 00 00 00 00	 call	 __atoi64

; 57   : 	int iRot = atoi(GetArgument("rot", rArgList));

  00097	56		 push	 esi
  00098	68 00 00 00 00	 push	 OFFSET ??_C@_03BHFFHIBL@rot@
  0009d	8b f8		 mov	 edi, eax
  0009f	e8 00 00 00 00	 call	 ?GetArgument@@YAPBDPBDAAV?$list@USArgumet@script@@V?$allocator@USArgumet@script@@@std@@@std@@@Z ; GetArgument
  000a4	50		 push	 eax
  000a5	e8 00 00 00 00	 call	 __atoi64

; 58   : 	int iPitch = atoi(GetArgument("pitch", rArgList));

  000aa	ff 75 08	 push	 DWORD PTR _rArgList$[ebp]
  000ad	8b f0		 mov	 esi, eax
  000af	68 00 00 00 00	 push	 OFFSET ??_C@_05NCNFOFLM@pitch@
  000b4	e8 00 00 00 00	 call	 ?GetArgument@@YAPBDPBDAAV?$list@USArgumet@script@@V?$allocator@USArgumet@script@@@std@@@std@@@Z ; GetArgument
  000b9	50		 push	 eax
  000ba	e8 00 00 00 00	 call	 __atoi64

; 59   : 
; 60   : 	ZeroMemory(pCameraSetting, sizeof(IAbstractApplication::SCameraSetting));
; 61   : 	pCameraSetting->v3CenterPosition.x = float(ix);

  000bf	8b 4d 0c	 mov	 ecx, DWORD PTR _pCameraSetting$[ebp]
  000c2	83 c4 28	 add	 esp, 40			; 00000028H
  000c5	66 0f 6e 45 fc	 movd	 xmm0, DWORD PTR _ix$1$[ebp]
  000ca	0f 5b c0	 cvtdq2ps xmm0, xmm0
  000cd	f3 0f 11 01	 movss	 DWORD PTR [ecx], xmm0
  000d1	66 0f 6e 45 f8	 movd	 xmm0, DWORD PTR _iy$1$[ebp]

; 62   : 	pCameraSetting->v3CenterPosition.y = float(iy);

  000d6	0f 5b c0	 cvtdq2ps xmm0, xmm0
  000d9	f3 0f 11 41 04	 movss	 DWORD PTR [ecx+4], xmm0
  000de	66 0f 6e 45 f4	 movd	 xmm0, DWORD PTR _iz$1$[ebp]

; 63   : 	pCameraSetting->v3CenterPosition.z = float(iz);

  000e3	0f 5b c0	 cvtdq2ps xmm0, xmm0
  000e6	f3 0f 11 41 08	 movss	 DWORD PTR [ecx+8], xmm0
  000eb	66 0f 6e 45 f0	 movd	 xmm0, DWORD PTR _iUpDir$1$[ebp]

; 64   : 	pCameraSetting->kCmrPos.m_fUpDir = float(iUpDir);

  000f0	0f 5b c0	 cvtdq2ps xmm0, xmm0
  000f3	f3 0f 11 41 0c	 movss	 DWORD PTR [ecx+12], xmm0
  000f8	66 0f 6e 45 ec	 movd	 xmm0, DWORD PTR _iViewDir$1$[ebp]

; 65   : 	pCameraSetting->kCmrPos.m_fViewDir = float(iViewDir);

  000fd	0f 5b c0	 cvtdq2ps xmm0, xmm0
  00100	f3 0f 11 41 10	 movss	 DWORD PTR [ecx+16], xmm0
  00105	66 0f 6e c3	 movd	 xmm0, ebx

; 66   : 	pCameraSetting->kCmrPos.m_fCrossDir = float(iCrossDir);

  00109	0f 5b c0	 cvtdq2ps xmm0, xmm0
  0010c	f3 0f 11 41 14	 movss	 DWORD PTR [ecx+20], xmm0
  00111	66 0f 6e c7	 movd	 xmm0, edi

; 67   : 	pCameraSetting->fZoom = float(iDistance);

  00115	0f 5b c0	 cvtdq2ps xmm0, xmm0
  00118	f3 0f 11 41 20	 movss	 DWORD PTR [ecx+32], xmm0

; 68   : 	pCameraSetting->fRotation = float(iRot);

  0011d	66 0f 6e c6	 movd	 xmm0, esi
  00121	0f 5b c0	 cvtdq2ps xmm0, xmm0

; 69   : 	pCameraSetting->fPitch = float(iPitch);

  00124	5f		 pop	 edi
  00125	5e		 pop	 esi
  00126	5b		 pop	 ebx
  00127	f3 0f 11 41 18	 movss	 DWORD PTR [ecx+24], xmm0
  0012c	66 0f 6e c0	 movd	 xmm0, eax
  00130	0f 5b c0	 cvtdq2ps xmm0, xmm0
  00133	f3 0f 11 41 1c	 movss	 DWORD PTR [ecx+28], xmm0

; 70   : }

  00138	8b e5		 mov	 esp, ebp
  0013a	5d		 pop	 ebp
  0013b	c3		 ret	 0
?GetCameraSettingFromArgList@@YAXAAV?$list@USArgumet@script@@V?$allocator@USArgumet@script@@@std@@@std@@PAUSCameraSetting@IAbstractApplication@@@Z ENDP ; GetCameraSettingFromArgList
_TEXT	ENDS
; Function compile flags: /Ogtp
; File D:\Metin2 Server Files\mainline\SRC_2014\Metin2Client\UserInterface\PythonEventManager.cpp
; File C:\Program Files (x86)\Microsoft Visual Studio\2019\Community\VC\Tools\MSVC\14.28.29333\include\xstring
; File D:\Metin2 Server Files\mainline\SRC_2014\Metin2Client\UserInterface\PythonEventManager.cpp
;	COMDAT ?GetArgument@@YAPBDPBDAAV?$list@USArgumet@script@@V?$allocator@USArgumet@script@@@std@@@std@@@Z
_TEXT	SEGMENT
_c_szName$ = 8						; size = 4
_rArgumentList$ = 12					; size = 4
?GetArgument@@YAPBDPBDAAV?$list@USArgumet@script@@V?$allocator@USArgumet@script@@@std@@@std@@@Z PROC ; GetArgument, COMDAT

; 44   : {

  00000	55		 push	 ebp
  00001	8b ec		 mov	 ebp, esp

; 45   : 	return GetArgumentString(c_szName, rArgumentList).c_str();

  00003	ff 75 0c	 push	 DWORD PTR _rArgumentList$[ebp]
  00006	ff 75 08	 push	 DWORD PTR _c_szName$[ebp]
  00009	e8 00 00 00 00	 call	 ?GetArgumentString@@YAABV?$basic_string@DU?$char_traits@D@std@@V?$allocator@D@2@@std@@PBDAAV?$list@USArgumet@script@@V?$allocator@USArgumet@script@@@std@@@2@@Z ; GetArgumentString
  0000e	83 c4 08	 add	 esp, 8
; File C:\Program Files (x86)\Microsoft Visual Studio\2019\Community\VC\Tools\MSVC\14.28.29333\include\xstring

; 2227 :         return _BUF_SIZE <= _Myres;

  00011	83 78 14 10	 cmp	 DWORD PTR [eax+20], 16	; 00000010H

; 2219 :         if (_Large_string_engaged()) {

  00015	72 02		 jb	 SHORT $LN6@GetArgumen
; File D:\Metin2 Server Files\mainline\SRC_2014\Metin2Client\UserInterface\PythonEventManager.cpp

; 45   : 	return GetArgumentString(c_szName, rArgumentList).c_str();

  00017	8b 00		 mov	 eax, DWORD PTR [eax]
$LN6@GetArgumen:

; 46   : }

  00019	5d		 pop	 ebp
  0001a	c3		 ret	 0
?GetArgument@@YAPBDPBDAAV?$list@USArgumet@script@@V?$allocator@USArgumet@script@@@std@@@std@@@Z ENDP ; GetArgument
_TEXT	ENDS
; Function compile flags: /Ogtp
; File C:\Program Files (x86)\Microsoft Visual Studio\2019\Community\VC\Tools\MSVC\14.28.29333\include\xstring
; File C:\Program Files (x86)\Microsoft Visual Studio\2019\Community\VC\Tools\MSVC\14.28.29333\include\xmemory
; File C:\Program Files (x86)\Microsoft Visual Studio\2019\Community\VC\Tools\MSVC\14.28.29333\include\xstring
;	COMDAT ??__FstrEmptyValue@?1??GetArgumentString@@YAABV?$basic_string@DU?$char_traits@D@std@@V?$allocator@D@2@@std@@PBDAAV?$list@USArgumet@script@@V?$allocator@USArgumet@script@@@std@@@2@@Z@YAXXZ
text$yd	SEGMENT
??__FstrEmptyValue@?1??GetArgumentString@@YAABV?$basic_string@DU?$char_traits@D@std@@V?$allocator@D@2@@std@@PBDAAV?$list@USArgumet@script@@V?$allocator@USArgumet@script@@@std@@@2@@Z@YAXXZ PROC ; `GetArgumentString'::`2'::`dynamic atexit destructor for 'strEmptyValue'', COMDAT

; 2227 :         return _BUF_SIZE <= _Myres;

  00000	83 3d 14 00 00
	00 10		 cmp	 DWORD PTR ?strEmptyValue@?1??GetArgumentString@@YAABV?$basic_string@DU?$char_traits@D@std@@V?$allocator@D@2@@std@@PBDAAV?$list@USArgumet@script@@V?$allocator@USArgumet@script@@@std@@@3@@Z@4V23@A+20, 16 ; 00000010H

; 4385 :         if (_Mypair._Myval2._Large_string_engaged()) {

  00007	72 22		 jb	 SHORT $LN7@dynamic

; 4386 :             const pointer _Ptr = _Mypair._Myval2._Bx._Ptr;

  00009	56		 push	 esi
  0000a	8b 35 00 00 00
	00		 mov	 esi, DWORD PTR ?strEmptyValue@?1??GetArgumentString@@YAABV?$basic_string@DU?$char_traits@D@std@@V?$allocator@D@2@@std@@PBDAAV?$list@USArgumet@script@@V?$allocator@USArgumet@script@@@std@@@3@@Z@4V23@A

; 4387 :             auto& _Al          = _Getal();
; 4388 :             _Destroy_in_place(_Mypair._Myval2._Bx._Ptr);

  00010	68 00 00 00 00	 push	 OFFSET ?strEmptyValue@?1??GetArgumentString@@YAABV?$basic_string@DU?$char_traits@D@std@@V?$allocator@D@2@@std@@PBDAAV?$list@USArgumet@script@@V?$allocator@USArgumet@script@@@std@@@3@@Z@4V23@A
  00015	e8 00 00 00 00	 call	 ??$_Destroy_in_place@PAD@std@@YAXAAPAD@Z ; std::_Destroy_in_place<char *>

; 4389 :             _Al.deallocate(_Ptr, _Mypair._Myval2._Myres + 1);

  0001a	a1 14 00 00 00	 mov	 eax, DWORD PTR ?strEmptyValue@?1??GetArgumentString@@YAABV?$basic_string@DU?$char_traits@D@std@@V?$allocator@D@2@@std@@PBDAAV?$list@USArgumet@script@@V?$allocator@USArgumet@script@@@std@@@3@@Z@4V23@A+20
  0001f	40		 inc	 eax
; File C:\Program Files (x86)\Microsoft Visual Studio\2019\Community\VC\Tools\MSVC\14.28.29333\include\xmemory

; 810  :         _Deallocate<_New_alignof<_Ty>>(_Ptr, sizeof(_Ty) * _Count);

  00020	50		 push	 eax
  00021	56		 push	 esi
  00022	e8 00 00 00 00	 call	 ??$_Deallocate@$07$0A@@std@@YAXPAXI@Z ; std::_Deallocate<8,0>
  00027	83 c4 0c	 add	 esp, 12			; 0000000cH
  0002a	5e		 pop	 esi
$LN7@dynamic:
; File C:\Program Files (x86)\Microsoft Visual Studio\2019\Community\VC\Tools\MSVC\14.28.29333\include\xstring

; 4392 :         _Mypair._Myval2._Mysize = 0;

  0002b	c7 05 10 00 00
	00 00 00 00 00	 mov	 DWORD PTR ?strEmptyValue@?1??GetArgumentString@@YAABV?$basic_string@DU?$char_traits@D@std@@V?$allocator@D@2@@std@@PBDAAV?$list@USArgumet@script@@V?$allocator@USArgumet@script@@@std@@@3@@Z@4V23@A+16, 0

; 4393 :         _Mypair._Myval2._Myres  = _BUF_SIZE - 1;

  00035	c7 05 14 00 00
	00 0f 00 00 00	 mov	 DWORD PTR ?strEmptyValue@?1??GetArgumentString@@YAABV?$basic_string@DU?$char_traits@D@std@@V?$allocator@D@2@@std@@PBDAAV?$list@USArgumet@script@@V?$allocator@USArgumet@script@@@std@@@3@@Z@4V23@A+20, 15 ; 0000000fH

; 4394 :         // the _Traits::assign is last so the codegen doesn't think the char write can alias this
; 4395 :         _Traits::assign(_Mypair._Myval2._Bx._Buf[0], _Elem());

  0003f	c6 05 00 00 00
	00 00		 mov	 BYTE PTR ?strEmptyValue@?1??GetArgumentString@@YAABV?$basic_string@DU?$char_traits@D@std@@V?$allocator@D@2@@std@@PBDAAV?$list@USArgumet@script@@V?$allocator@USArgumet@script@@@std@@@3@@Z@4V23@A, 0
  00046	c3		 ret	 0
??__FstrEmptyValue@?1??GetArgumentString@@YAABV?$basic_string@DU?$char_traits@D@std@@V?$allocator@D@2@@std@@PBDAAV?$list@USArgumet@script@@V?$allocator@USArgumet@script@@@std@@@2@@Z@YAXXZ ENDP ; `GetArgumentString'::`2'::`dynamic atexit destructor for 'strEmptyValue''
text$yd	ENDS
; Function compile flags: /Ogtp
; File D:\Metin2 Server Files\mainline\SRC_2014\Metin2Client\UserInterface\PythonEventManager.cpp
; File C:\Program Files (x86)\Microsoft Visual Studio\2019\Community\VC\Tools\MSVC\14.28.29333\include\list
; File D:\Metin2 Server Files\mainline\SRC_2014\Metin2Client\UserInterface\PythonEventManager.cpp
; File C:\Program Files (x86)\Microsoft Visual Studio\2019\Community\VC\Tools\MSVC\14.28.29333\include\xstring
; File D:\Metin2 Server Files\mainline\SRC_2014\Metin2Client\UserInterface\PythonEventManager.cpp
; File C:\Program Files (x86)\Microsoft Visual Studio\2019\Community\VC\Tools\MSVC\14.28.29333\include\list
; File D:\Metin2 Server Files\mainline\SRC_2014\Metin2Client\UserInterface\PythonEventManager.cpp
;	COMDAT ?GetArgumentString@@YAABV?$basic_string@DU?$char_traits@D@std@@V?$allocator@D@2@@std@@PBDAAV?$list@USArgumet@script@@V?$allocator@USArgumet@script@@@std@@@2@@Z
_TEXT	SEGMENT
__$EHRec$ = -12						; size = 12
_c_szName$ = 8						; size = 4
_rArgumentList$ = 12					; size = 4
?GetArgumentString@@YAABV?$basic_string@DU?$char_traits@D@std@@V?$allocator@D@2@@std@@PBDAAV?$list@USArgumet@script@@V?$allocator@USArgumet@script@@@std@@@2@@Z PROC ; GetArgumentString, COMDAT

; 30   : {

  00000	55		 push	 ebp
  00001	8b ec		 mov	 ebp, esp
  00003	6a ff		 push	 -1
  00005	68 00 00 00 00	 push	 __ehhandler$?GetArgumentString@@YAABV?$basic_string@DU?$char_traits@D@std@@V?$allocator@D@2@@std@@PBDAAV?$list@USArgumet@script@@V?$allocator@USArgumet@script@@@std@@@2@@Z
  0000a	64 a1 00 00 00
	00		 mov	 eax, DWORD PTR fs:0
  00010	50		 push	 eax
  00011	53		 push	 ebx
  00012	56		 push	 esi
  00013	57		 push	 edi
  00014	a1 00 00 00 00	 mov	 eax, DWORD PTR ___security_cookie
  00019	33 c5		 xor	 eax, ebp
  0001b	50		 push	 eax
  0001c	8d 45 f4	 lea	 eax, DWORD PTR __$EHRec$[ebp]
  0001f	64 a3 00 00 00
	00		 mov	 DWORD PTR fs:0, eax
; File C:\Program Files (x86)\Microsoft Visual Studio\2019\Community\VC\Tools\MSVC\14.28.29333\include\list

; 1092 :         return iterator(_Mypair._Myval2._Myhead->_Next, _STD addressof(_Mypair._Myval2));

  00025	8b 45 0c	 mov	 eax, DWORD PTR _rArgumentList$[ebp]
  00028	8b 38		 mov	 edi, DWORD PTR [eax]

; 39   :     _List_unchecked_const_iterator(_Nodeptr _Pnode, const _Mylist* _Plist) noexcept : _Ptr(_Pnode) {

  0002a	8b 37		 mov	 esi, DWORD PTR [edi]
; File D:\Metin2 Server Files\mainline\SRC_2014\Metin2Client\UserInterface\PythonEventManager.cpp

; 31   : 	for (script::TArgList::iterator itor = rArgumentList.begin(); itor != rArgumentList.end(); ++itor)

  0002c	3b f7		 cmp	 esi, edi
  0002e	74 37		 je	 SHORT $LN3@GetArgumen
$LL20@GetArgumen:
; File C:\Program Files (x86)\Microsoft Visual Studio\2019\Community\VC\Tools\MSVC\14.28.29333\include\xstring

; 389  :         return _CSTD strlen(reinterpret_cast<const char*>(_First));

  00030	8b 45 08	 mov	 eax, DWORD PTR _c_szName$[ebp]
  00033	8d 58 01	 lea	 ebx, DWORD PTR [eax+1]
$LL104@GetArgumen:
  00036	8a 08		 mov	 cl, BYTE PTR [eax]
  00038	40		 inc	 eax
  00039	84 c9		 test	 cl, cl
  0003b	75 f9		 jne	 SHORT $LL104@GetArgumen
  0003d	2b c3		 sub	 eax, ebx

; 2218 :         const value_type* _Result = _Bx._Buf;

  0003f	8d 4e 08	 lea	 ecx, DWORD PTR [esi+8]

; 2219 :         if (_Large_string_engaged()) {

  00042	83 7e 1c 10	 cmp	 DWORD PTR [esi+28], 16	; 00000010H
  00046	72 03		 jb	 SHORT $LN42@GetArgumen

; 2220 :             _Result = _Unfancy(_Bx._Ptr);

  00048	8b 4e 08	 mov	 ecx, DWORD PTR [esi+8]
$LN42@GetArgumen:

; 4235 :         return _Traits_compare<_Traits>(_Mypair._Myval2._Myptr(), _Mypair._Myval2._Mysize, _Ptr, _Traits::length(_Ptr));

  0004b	50		 push	 eax
  0004c	ff 75 08	 push	 DWORD PTR _c_szName$[ebp]
  0004f	ff 76 18	 push	 DWORD PTR [esi+24]
  00052	51		 push	 ecx
  00053	e8 00 00 00 00	 call	 ??$_Traits_compare@U?$char_traits@D@std@@@std@@YAHQBDI0I@Z ; std::_Traits_compare<std::char_traits<char> >
  00058	83 c4 10	 add	 esp, 16			; 00000010H
; File D:\Metin2 Server Files\mainline\SRC_2014\Metin2Client\UserInterface\PythonEventManager.cpp

; 35   : 		if (0 == rName.compare(c_szName))

  0005b	85 c0		 test	 eax, eax
  0005d	74 3b		 je	 SHORT $LN100@GetArgumen
; File C:\Program Files (x86)\Microsoft Visual Studio\2019\Community\VC\Tools\MSVC\14.28.29333\include\list

; 166  :         this->_Ptr = this->_Ptr->_Next;

  0005f	8b 06		 mov	 eax, DWORD PTR [esi]
  00061	8b f0		 mov	 esi, eax
; File D:\Metin2 Server Files\mainline\SRC_2014\Metin2Client\UserInterface\PythonEventManager.cpp

; 31   : 	for (script::TArgList::iterator itor = rArgumentList.begin(); itor != rArgumentList.end(); ++itor)

  00063	3b c7		 cmp	 eax, edi
  00065	75 c9		 jne	 SHORT $LL20@GetArgumen
$LN3@GetArgumen:

; 37   : 	}
; 38   : 
; 39   : 	static std::string strEmptyValue = "";

  00067	64 a1 00 00 00
	00		 mov	 eax, DWORD PTR fs:__tls_array
  0006d	8b 0d 00 00 00
	00		 mov	 ecx, DWORD PTR __tls_index
  00073	8b 0c 88	 mov	 ecx, DWORD PTR [eax+ecx*4]
  00076	a1 00 00 00 00	 mov	 eax, DWORD PTR ?$TSS0@?1??GetArgumentString@@YAABV?$basic_string@DU?$char_traits@D@std@@V?$allocator@D@2@@std@@PBDAAV?$list@USArgumet@script@@V?$allocator@USArgumet@script@@@std@@@3@@Z@4HA
  0007b	3b 81 00 00 00
	00		 cmp	 eax, DWORD PTR __Init_thread_epoch[ecx]
  00081	7f 2c		 jg	 SHORT $LN107@GetArgumen
$LN5@GetArgumen:

; 40   : 	return strEmptyValue;

  00083	b8 00 00 00 00	 mov	 eax, OFFSET ?strEmptyValue@?1??GetArgumentString@@YAABV?$basic_string@DU?$char_traits@D@std@@V?$allocator@D@2@@std@@PBDAAV?$list@USArgumet@script@@V?$allocator@USArgumet@script@@@std@@@3@@Z@4V23@A

; 41   : }

  00088	8b 4d f4	 mov	 ecx, DWORD PTR __$EHRec$[ebp]
  0008b	64 89 0d 00 00
	00 00		 mov	 DWORD PTR fs:0, ecx
  00092	59		 pop	 ecx
  00093	5f		 pop	 edi
  00094	5e		 pop	 esi
  00095	5b		 pop	 ebx
  00096	8b e5		 mov	 esp, ebp
  00098	5d		 pop	 ebp
  00099	c3		 ret	 0
$LN100@GetArgumen:

; 36   : 			return (*itor).strValue;

  0009a	8d 46 20	 lea	 eax, DWORD PTR [esi+32]

; 41   : }

  0009d	8b 4d f4	 mov	 ecx, DWORD PTR __$EHRec$[ebp]
  000a0	64 89 0d 00 00
	00 00		 mov	 DWORD PTR fs:0, ecx
  000a7	59		 pop	 ecx
  000a8	5f		 pop	 edi
  000a9	5e		 pop	 esi
  000aa	5b		 pop	 ebx
  000ab	8b e5		 mov	 esp, ebp
  000ad	5d		 pop	 ebp
  000ae	c3		 ret	 0
$LN107@GetArgumen:

; 37   : 	}
; 38   : 
; 39   : 	static std::string strEmptyValue = "";

  000af	68 00 00 00 00	 push	 OFFSET ?$TSS0@?1??GetArgumentString@@YAABV?$basic_string@DU?$char_traits@D@std@@V?$allocator@D@2@@std@@PBDAAV?$list@USArgumet@script@@V?$allocator@USArgumet@script@@@std@@@3@@Z@4HA
  000b4	e8 00 00 00 00	 call	 __Init_thread_header
  000b9	83 c4 04	 add	 esp, 4
  000bc	83 3d 00 00 00
	00 ff		 cmp	 DWORD PTR ?$TSS0@?1??GetArgumentString@@YAABV?$basic_string@DU?$char_traits@D@std@@V?$allocator@D@2@@std@@PBDAAV?$list@USArgumet@script@@V?$allocator@USArgumet@script@@@std@@@3@@Z@4HA, -1
  000c3	75 be		 jne	 SHORT $LN5@GetArgumen
  000c5	68 00 00 00 00	 push	 OFFSET ??__FstrEmptyValue@?1??GetArgumentString@@YAABV?$basic_string@DU?$char_traits@D@std@@V?$allocator@D@2@@std@@PBDAAV?$list@USArgumet@script@@V?$allocator@USArgumet@script@@@std@@@2@@Z@YAXXZ ; `GetArgumentString'::`2'::`dynamic atexit destructor for 'strEmptyValue''
  000ca	e8 00 00 00 00	 call	 _atexit
  000cf	68 00 00 00 00	 push	 OFFSET ?$TSS0@?1??GetArgumentString@@YAABV?$basic_string@DU?$char_traits@D@std@@V?$allocator@D@2@@std@@PBDAAV?$list@USArgumet@script@@V?$allocator@USArgumet@script@@@std@@@3@@Z@4HA
  000d4	e8 00 00 00 00	 call	 __Init_thread_footer
  000d9	83 c4 08	 add	 esp, 8
  000dc	eb a5		 jmp	 SHORT $LN5@GetArgumen
_TEXT	ENDS
;	COMDAT text$x
text$x	SEGMENT
__unwindfunclet$?GetArgumentString@@YAABV?$basic_string@DU?$char_traits@D@std@@V?$allocator@D@2@@std@@PBDAAV?$list@USArgumet@script@@V?$allocator@USArgumet@script@@@std@@@2@@Z$0:
  00000	68 00 00 00 00	 push	 OFFSET ?$TSS0@?1??GetArgumentString@@YAABV?$basic_string@DU?$char_traits@D@std@@V?$allocator@D@2@@std@@PBDAAV?$list@USArgumet@script@@V?$allocator@USArgumet@script@@@std@@@3@@Z@4HA
  00005	e8 00 00 00 00	 call	 __Init_thread_abort
  0000a	59		 pop	 ecx
  0000b	c3		 ret	 0
  0000c	cc		 int	 3
  0000d	cc		 int	 3
  0000e	cc		 int	 3
  0000f	cc		 int	 3
  00010	cc		 int	 3
__ehhandler$?GetArgumentString@@YAABV?$basic_string@DU?$char_traits@D@std@@V?$allocator@D@2@@std@@PBDAAV?$list@USArgumet@script@@V?$allocator@USArgumet@script@@@std@@@2@@Z:
  00011	90		 npad	 1
  00012	90		 npad	 1
  00013	8b 54 24 08	 mov	 edx, DWORD PTR [esp+8]
  00017	8d 42 0c	 lea	 eax, DWORD PTR [edx+12]
  0001a	8b 4a f0	 mov	 ecx, DWORD PTR [edx-16]
  0001d	33 c8		 xor	 ecx, eax
  0001f	e8 00 00 00 00	 call	 @__security_check_cookie@4
  00024	b8 00 00 00 00	 mov	 eax, OFFSET __ehfuncinfo$?GetArgumentString@@YAABV?$basic_string@DU?$char_traits@D@std@@V?$allocator@D@2@@std@@PBDAAV?$list@USArgumet@script@@V?$allocator@USArgumet@script@@@std@@@2@@Z
  00029	e9 00 00 00 00	 jmp	 ___CxxFrameHandler3
text$x	ENDS
?GetArgumentString@@YAABV?$basic_string@DU?$char_traits@D@std@@V?$allocator@D@2@@std@@PBDAAV?$list@USArgumet@script@@V?$allocator@USArgumet@script@@@std@@@2@@Z ENDP ; GetArgumentString
; Function compile flags: /Ogtp
; File D:\Metin2 Server Files\mainline\SRC_2014\Metin2Client\UserInterface\PythonEventManager.cpp
; File C:\Program Files (x86)\Microsoft Visual Studio\2019\Community\VC\Tools\MSVC\14.28.29333\include\list
; File D:\Metin2 Server Files\mainline\SRC_2014\Metin2Client\UserInterface\PythonEventManager.cpp
; File C:\Program Files (x86)\Microsoft Visual Studio\2019\Community\VC\Tools\MSVC\14.28.29333\include\xstring
; File C:\Program Files (x86)\Microsoft Visual Studio\2019\Community\VC\Tools\MSVC\14.28.29333\include\list
; File C:\Program Files (x86)\Microsoft Visual Studio\2019\Community\VC\Tools\MSVC\14.28.29333\include\xstring
; File D:\Metin2 Server Files\mainline\SRC_2014\Metin2Client\UserInterface\PythonEventManager.cpp
; File C:\Program Files (x86)\Microsoft Visual Studio\2019\Community\VC\Tools\MSVC\14.28.29333\include\list
; File D:\Metin2 Server Files\mainline\SRC_2014\Metin2Client\UserInterface\PythonEventManager.cpp
; File C:\Program Files (x86)\Microsoft Visual Studio\2019\Community\VC\Tools\MSVC\14.28.29333\include\list
; File D:\Metin2 Server Files\mainline\SRC_2014\Metin2Client\UserInterface\PythonEventManager.cpp
;	COMDAT ?ShowArgument@@YAXAAV?$list@USArgumet@script@@V?$allocator@USArgumet@script@@@std@@@std@@@Z
_TEXT	SEGMENT
_rArgumentList$ = 8					; size = 4
?ShowArgument@@YAXAAV?$list@USArgumet@script@@V?$allocator@USArgumet@script@@@std@@@std@@@Z PROC ; ShowArgument, COMDAT

; 19   : {

  00000	55		 push	 ebp
  00001	8b ec		 mov	 ebp, esp
  00003	56		 push	 esi
  00004	57		 push	 edi
; File C:\Program Files (x86)\Microsoft Visual Studio\2019\Community\VC\Tools\MSVC\14.28.29333\include\list

; 1092 :         return iterator(_Mypair._Myval2._Myhead->_Next, _STD addressof(_Mypair._Myval2));

  00005	8b 7d 08	 mov	 edi, DWORD PTR _rArgumentList$[ebp]
  00008	8b 07		 mov	 eax, DWORD PTR [edi]

; 39   :     _List_unchecked_const_iterator(_Nodeptr _Pnode, const _Mylist* _Plist) noexcept : _Ptr(_Pnode) {

  0000a	8b 30		 mov	 esi, DWORD PTR [eax]
  0000c	3b f0		 cmp	 esi, eax
; File D:\Metin2 Server Files\mainline\SRC_2014\Metin2Client\UserInterface\PythonEventManager.cpp

; 20   : 	for (script::TArgList::iterator itor=rArgumentList.begin(); itor!=rArgumentList.end(); ++itor)

  0000e	74 1a		 je	 SHORT $LN3@ShowArgume
$LL17@ShowArgume:
; File C:\Program Files (x86)\Microsoft Visual Studio\2019\Community\VC\Tools\MSVC\14.28.29333\include\xstring

; 2227 :         return _BUF_SIZE <= _Myres;

  00010	83 7e 1c 10	 cmp	 DWORD PTR [esi+28], 16	; 00000010H
; File C:\Program Files (x86)\Microsoft Visual Studio\2019\Community\VC\Tools\MSVC\14.28.29333\include\list

; 152  :         return this->_Ptr->_Myval;

  00014	8d 46 08	 lea	 eax, DWORD PTR [esi+8]
; File C:\Program Files (x86)\Microsoft Visual Studio\2019\Community\VC\Tools\MSVC\14.28.29333\include\xstring

; 2219 :         if (_Large_string_engaged()) {

  00017	72 02		 jb	 SHORT $LN37@ShowArgume

; 2220 :             _Result = _Unfancy(_Bx._Ptr);

  00019	8b 00		 mov	 eax, DWORD PTR [eax]
$LN37@ShowArgume:
; File D:\Metin2 Server Files\mainline\SRC_2014\Metin2Client\UserInterface\PythonEventManager.cpp

; 24   : 		Tracen(rName.c_str());		

  0001b	50		 push	 eax
  0001c	e8 00 00 00 00	 call	 ?Tracen@@YAXPBD@Z	; Tracen
; File C:\Program Files (x86)\Microsoft Visual Studio\2019\Community\VC\Tools\MSVC\14.28.29333\include\list

; 166  :         this->_Ptr = this->_Ptr->_Next;

  00021	8b 36		 mov	 esi, DWORD PTR [esi]
; File D:\Metin2 Server Files\mainline\SRC_2014\Metin2Client\UserInterface\PythonEventManager.cpp

; 24   : 		Tracen(rName.c_str());		

  00023	83 c4 04	 add	 esp, 4
; File C:\Program Files (x86)\Microsoft Visual Studio\2019\Community\VC\Tools\MSVC\14.28.29333\include\list

; 199  :         return this->_Ptr == _Right._Ptr;

  00026	3b 37		 cmp	 esi, DWORD PTR [edi]
; File D:\Metin2 Server Files\mainline\SRC_2014\Metin2Client\UserInterface\PythonEventManager.cpp

; 20   : 	for (script::TArgList::iterator itor=rArgumentList.begin(); itor!=rArgumentList.end(); ++itor)

  00028	75 e6		 jne	 SHORT $LL17@ShowArgume
$LN3@ShowArgume:
  0002a	5f		 pop	 edi

; 25   : 	}
; 26   : 
; 27   : }

  0002b	5e		 pop	 esi
  0002c	5d		 pop	 ebp
  0002d	c3		 ret	 0
?ShowArgument@@YAXAAV?$list@USArgumet@script@@V?$allocator@USArgumet@script@@@std@@@std@@@Z ENDP ; ShowArgument
_TEXT	ENDS
; Function compile flags: /Ogtp
; File D:\Metin2 Server Files\mainline\SRC_2014\Metin2Client\UserInterface\AbstractApplication.h
; File D:\Metin2 Server Files\mainline\SRC_2014\M2Data\include\d3dx8math.inl
; File D:\Metin2 Server Files\mainline\SRC_2014\Metin2Client\UserInterface\AbstractApplication.h
; File D:\Metin2 Server Files\mainline\SRC_2014\M2Data\include\d3dx8math.inl
; File D:\Metin2 Server Files\mainline\SRC_2014\Metin2Client\UserInterface\AbstractApplication.h
;	COMDAT ??0SCameraSetting@IAbstractApplication@@QAE@XZ
_TEXT	SEGMENT
??0SCameraSetting@IAbstractApplication@@QAE@XZ PROC	; IAbstractApplication::SCameraSetting::SCameraSetting, COMDAT
; _this$ = ecx
; File D:\Metin2 Server Files\mainline\SRC_2014\M2Data\include\d3dx8math.inl

; 180  :     x = fx;

  00000	c7 01 00 00 00
	00		 mov	 DWORD PTR [ecx], 0
; File D:\Metin2 Server Files\mainline\SRC_2014\Metin2Client\UserInterface\AbstractApplication.h

; 28   : 								fZoom(0.0f) {}

  00006	8b c1		 mov	 eax, ecx
; File D:\Metin2 Server Files\mainline\SRC_2014\M2Data\include\d3dx8math.inl

; 181  :     y = fy;

  00008	c7 41 04 00 00
	00 00		 mov	 DWORD PTR [ecx+4], 0

; 182  :     z = fz;

  0000f	c7 41 08 00 00
	00 00		 mov	 DWORD PTR [ecx+8], 0
; File D:\Metin2 Server Files\mainline\SRC_2014\Metin2Client\UserInterface\AbstractApplication.h

; 14   : 			SCameraPos() : m_fUpDir(0.0f), m_fViewDir(0.0f), m_fCrossDir(0.0f) {}

  00016	c7 41 0c 00 00
	00 00		 mov	 DWORD PTR [ecx+12], 0
  0001d	c7 41 10 00 00
	00 00		 mov	 DWORD PTR [ecx+16], 0
  00024	c7 41 14 00 00
	00 00		 mov	 DWORD PTR [ecx+20], 0

; 15   : 		};
; 16   : 
; 17   : 		struct SCameraSetting
; 18   : 		{
; 19   : 			D3DXVECTOR3				v3CenterPosition;
; 20   : 			SCameraPos				kCmrPos;
; 21   : 			float					fRotation;
; 22   : 			float					fPitch;
; 23   : 			float					fZoom;
; 24   : 
; 25   : 			SCameraSetting() :	v3CenterPosition(0.0f, 0.0f, 0.0f),
; 26   : 								fRotation(0.0f),

  0002b	c7 41 18 00 00
	00 00		 mov	 DWORD PTR [ecx+24], 0

; 27   : 								fPitch(0.0f),

  00032	c7 41 1c 00 00
	00 00		 mov	 DWORD PTR [ecx+28], 0

; 28   : 								fZoom(0.0f) {}

  00039	c7 41 20 00 00
	00 00		 mov	 DWORD PTR [ecx+32], 0
  00040	c3		 ret	 0
??0SCameraSetting@IAbstractApplication@@QAE@XZ ENDP	; IAbstractApplication::SCameraSetting::SCameraSetting
_TEXT	ENDS
; Function compile flags: /Ogtp
;	COMDAT ??_GCPythonEventManager@@UAEPAXI@Z
_TEXT	SEGMENT
___flags$ = 8						; size = 4
??_GCPythonEventManager@@UAEPAXI@Z PROC			; CPythonEventManager::`scalar deleting destructor', COMDAT
; _this$ = ecx
  00000	55		 push	 ebp
  00001	8b ec		 mov	 ebp, esp
  00003	56		 push	 esi
  00004	8b f1		 mov	 esi, ecx
  00006	e8 00 00 00 00	 call	 ??1CPythonEventManager@@UAE@XZ ; CPythonEventManager::~CPythonEventManager
  0000b	f6 45 08 01	 test	 BYTE PTR ___flags$[ebp], 1
  0000f	74 0e		 je	 SHORT $LN4@scalar
  00011	68 80 00 00 00	 push	 128			; 00000080H
  00016	56		 push	 esi
  00017	e8 00 00 00 00	 call	 ??3@YAXPAXI@Z		; operator delete
  0001c	83 c4 08	 add	 esp, 8
$LN4@scalar:
  0001f	8b c6		 mov	 eax, esi
  00021	5e		 pop	 esi
  00022	5d		 pop	 ebp
  00023	c2 04 00	 ret	 4
??_GCPythonEventManager@@UAEPAXI@Z ENDP			; CPythonEventManager::`scalar deleting destructor'
_TEXT	ENDS
; Function compile flags: /Ogtp
;	COMDAT ??_G?$CDynamicPool@VCGraphicTextInstance@@@@UAEPAXI@Z
_TEXT	SEGMENT
___flags$ = 8						; size = 4
??_G?$CDynamicPool@VCGraphicTextInstance@@@@UAEPAXI@Z PROC ; CDynamicPool<CGraphicTextInstance>::`scalar deleting destructor', COMDAT
; _this$ = ecx
  00000	55		 push	 ebp
  00001	8b ec		 mov	 ebp, esp
  00003	56		 push	 esi
  00004	8b f1		 mov	 esi, ecx
  00006	e8 00 00 00 00	 call	 ??1?$CDynamicPool@VCGraphicTextInstance@@@@UAE@XZ ; CDynamicPool<CGraphicTextInstance>::~CDynamicPool<CGraphicTextInstance>
  0000b	f6 45 08 01	 test	 BYTE PTR ___flags$[ebp], 1
  0000f	74 0b		 je	 SHORT $LN4@scalar
  00011	6a 24		 push	 36			; 00000024H
  00013	56		 push	 esi
  00014	e8 00 00 00 00	 call	 ??3@YAXPAXI@Z		; operator delete
  00019	83 c4 08	 add	 esp, 8
$LN4@scalar:
  0001c	8b c6		 mov	 eax, esi
  0001e	5e		 pop	 esi
  0001f	5d		 pop	 ebp
  00020	c2 04 00	 ret	 4
??_G?$CDynamicPool@VCGraphicTextInstance@@@@UAEPAXI@Z ENDP ; CDynamicPool<CGraphicTextInstance>::`scalar deleting destructor'
_TEXT	ENDS
; Function compile flags: /Ogtp
; File C:\Program Files (x86)\Microsoft Visual Studio\2019\Community\VC\Tools\MSVC\14.28.29333\include\vector
;	COMDAT ?_Xlength@?$vector@PAVCGraphicTextInstance@@V?$allocator@PAVCGraphicTextInstance@@@std@@@std@@CAXXZ
_TEXT	SEGMENT
?_Xlength@?$vector@PAVCGraphicTextInstance@@V?$allocator@PAVCGraphicTextInstance@@@std@@@std@@CAXXZ PROC ; std::vector<CGraphicTextInstance *,std::allocator<CGraphicTextInstance *> >::_Xlength, COMDAT

; 1705 :         _Xlength_error("vector too long");

  00000	68 00 00 00 00	 push	 OFFSET ??_C@_0BA@FOIKENOD@vector?5too?5long@
  00005	e8 00 00 00 00	 call	 ?_Xlength_error@std@@YAXPBD@Z ; std::_Xlength_error
$LN3@Xlength:
  0000a	cc		 int	 3
?_Xlength@?$vector@PAVCGraphicTextInstance@@V?$allocator@PAVCGraphicTextInstance@@@std@@@std@@CAXXZ ENDP ; std::vector<CGraphicTextInstance *,std::allocator<CGraphicTextInstance *> >::_Xlength
_TEXT	ENDS
; Function compile flags: /Ogtp
; File D:\Metin2 Server Files\mainline\SRC_2014\Metin2Client\eterLib\Pool.h
;	COMDAT ?Delete@?$CDynamicPool@VCGraphicTextInstance@@@@KAXPAVCGraphicTextInstance@@@Z
_TEXT	SEGMENT
_pkData$ = 8						; size = 4
?Delete@?$CDynamicPool@VCGraphicTextInstance@@@@KAXPAVCGraphicTextInstance@@@Z PROC ; CDynamicPool<CGraphicTextInstance>::Delete, COMDAT

; 109  : 		{

  00000	55		 push	 ebp
  00001	8b ec		 mov	 ebp, esp

; 110  : 			delete pkData;

  00003	8b 4d 08	 mov	 ecx, DWORD PTR _pkData$[ebp]
  00006	85 c9		 test	 ecx, ecx
  00008	74 06		 je	 SHORT $LN3@Delete
  0000a	8b 01		 mov	 eax, DWORD PTR [ecx]
  0000c	6a 01		 push	 1
  0000e	ff 10		 call	 DWORD PTR [eax]
$LN3@Delete:

; 111  : 		}

  00010	5d		 pop	 ebp
  00011	c3		 ret	 0
?Delete@?$CDynamicPool@VCGraphicTextInstance@@@@KAXPAVCGraphicTextInstance@@@Z ENDP ; CDynamicPool<CGraphicTextInstance>::Delete
_TEXT	ENDS
; Function compile flags: /Ogtp
; File D:\Metin2 Server Files\mainline\SRC_2014\Metin2Client\eterLib\Pool.h
; File C:\Program Files (x86)\Microsoft Visual Studio\2019\Community\VC\Tools\MSVC\14.28.29333\include\vector
; File C:\Program Files (x86)\Microsoft Visual Studio\2019\Community\VC\Tools\MSVC\14.28.29333\include\xmemory
; File C:\Program Files (x86)\Microsoft Visual Studio\2019\Community\VC\Tools\MSVC\14.28.29333\include\vector
; File C:\Program Files (x86)\Microsoft Visual Studio\2019\Community\VC\Tools\MSVC\14.28.29333\include\xmemory
; File C:\Program Files (x86)\Microsoft Visual Studio\2019\Community\VC\Tools\MSVC\14.28.29333\include\vector
; File C:\Program Files (x86)\Microsoft Visual Studio\2019\Community\VC\Tools\MSVC\14.28.29333\include\xmemory
; File C:\Program Files (x86)\Microsoft Visual Studio\2019\Community\VC\Tools\MSVC\14.28.29333\include\vector
; File C:\Program Files (x86)\Microsoft Visual Studio\2019\Community\VC\Tools\MSVC\14.28.29333\include\xmemory
; File C:\Program Files (x86)\Microsoft Visual Studio\2019\Community\VC\Tools\MSVC\14.28.29333\include\vector
; File D:\Metin2 Server Files\mainline\SRC_2014\Metin2Client\eterLib\Pool.h
;	COMDAT ??1?$CDynamicPool@VCGraphicTextInstance@@@@UAE@XZ
_TEXT	SEGMENT
??1?$CDynamicPool@VCGraphicTextInstance@@@@UAE@XZ PROC	; CDynamicPool<CGraphicTextInstance>::~CDynamicPool<CGraphicTextInstance>, COMDAT
; _this$ = ecx

; 18   : 		{

  00000	56		 push	 esi
  00001	8b f1		 mov	 esi, ecx
  00003	c7 06 00 00 00
	00		 mov	 DWORD PTR [esi], OFFSET ??_7?$CDynamicPool@VCGraphicTextInstance@@@@6B@
; File C:\Program Files (x86)\Microsoft Visual Studio\2019\Community\VC\Tools\MSVC\14.28.29333\include\vector

; 1694 :         if (_Myfirst) { // destroy and deallocate old array

  00009	8b 4e 10	 mov	 ecx, DWORD PTR [esi+16]
  0000c	85 c9		 test	 ecx, ecx
  0000e	74 27		 je	 SHORT $LN6@CDynamicPo

; 1695 :             _Destroy(_Myfirst, _Mylast);
; 1696 :             _Getal().deallocate(_Myfirst, static_cast<size_type>(_Myend - _Myfirst));

  00010	8b 46 18	 mov	 eax, DWORD PTR [esi+24]
  00013	2b c1		 sub	 eax, ecx
; File C:\Program Files (x86)\Microsoft Visual Studio\2019\Community\VC\Tools\MSVC\14.28.29333\include\xmemory

; 810  :         _Deallocate<_New_alignof<_Ty>>(_Ptr, sizeof(_Ty) * _Count);

  00015	83 e0 fc	 and	 eax, -4			; fffffffcH
  00018	50		 push	 eax
  00019	51		 push	 ecx
  0001a	e8 00 00 00 00	 call	 ??$_Deallocate@$07$0A@@std@@YAXPAXI@Z ; std::_Deallocate<8,0>
; File C:\Program Files (x86)\Microsoft Visual Studio\2019\Community\VC\Tools\MSVC\14.28.29333\include\vector

; 1698 :             _Myfirst = pointer();

  0001f	c7 46 10 00 00
	00 00		 mov	 DWORD PTR [esi+16], 0
; File C:\Program Files (x86)\Microsoft Visual Studio\2019\Community\VC\Tools\MSVC\14.28.29333\include\xmemory

; 810  :         _Deallocate<_New_alignof<_Ty>>(_Ptr, sizeof(_Ty) * _Count);

  00026	83 c4 08	 add	 esp, 8
; File C:\Program Files (x86)\Microsoft Visual Studio\2019\Community\VC\Tools\MSVC\14.28.29333\include\vector

; 1699 :             _Mylast  = pointer();

  00029	c7 46 14 00 00
	00 00		 mov	 DWORD PTR [esi+20], 0

; 1700 :             _Myend   = pointer();

  00030	c7 46 18 00 00
	00 00		 mov	 DWORD PTR [esi+24], 0
$LN6@CDynamicPo:

; 1694 :         if (_Myfirst) { // destroy and deallocate old array

  00037	8b 4e 04	 mov	 ecx, DWORD PTR [esi+4]
  0003a	85 c9		 test	 ecx, ecx
  0003c	74 27		 je	 SHORT $LN13@CDynamicPo

; 1695 :             _Destroy(_Myfirst, _Mylast);
; 1696 :             _Getal().deallocate(_Myfirst, static_cast<size_type>(_Myend - _Myfirst));

  0003e	8b 46 0c	 mov	 eax, DWORD PTR [esi+12]
  00041	2b c1		 sub	 eax, ecx
; File C:\Program Files (x86)\Microsoft Visual Studio\2019\Community\VC\Tools\MSVC\14.28.29333\include\xmemory

; 810  :         _Deallocate<_New_alignof<_Ty>>(_Ptr, sizeof(_Ty) * _Count);

  00043	83 e0 fc	 and	 eax, -4			; fffffffcH
  00046	50		 push	 eax
  00047	51		 push	 ecx
  00048	e8 00 00 00 00	 call	 ??$_Deallocate@$07$0A@@std@@YAXPAXI@Z ; std::_Deallocate<8,0>
; File C:\Program Files (x86)\Microsoft Visual Studio\2019\Community\VC\Tools\MSVC\14.28.29333\include\vector

; 1698 :             _Myfirst = pointer();

  0004d	c7 46 04 00 00
	00 00		 mov	 DWORD PTR [esi+4], 0
; File C:\Program Files (x86)\Microsoft Visual Studio\2019\Community\VC\Tools\MSVC\14.28.29333\include\xmemory

; 810  :         _Deallocate<_New_alignof<_Ty>>(_Ptr, sizeof(_Ty) * _Count);

  00054	83 c4 08	 add	 esp, 8
; File C:\Program Files (x86)\Microsoft Visual Studio\2019\Community\VC\Tools\MSVC\14.28.29333\include\vector

; 1699 :             _Mylast  = pointer();

  00057	c7 46 08 00 00
	00 00		 mov	 DWORD PTR [esi+8], 0

; 1700 :             _Myend   = pointer();

  0005e	c7 46 0c 00 00
	00 00		 mov	 DWORD PTR [esi+12], 0
$LN13@CDynamicPo:
  00065	5e		 pop	 esi
; File D:\Metin2 Server Files\mainline\SRC_2014\Metin2Client\eterLib\Pool.h

; 26   : 		}

  00066	c3		 ret	 0
??1?$CDynamicPool@VCGraphicTextInstance@@@@UAE@XZ ENDP	; CDynamicPool<CGraphicTextInstance>::~CDynamicPool<CGraphicTextInstance>
_TEXT	ENDS
; Function compile flags: /Ogtp
;	COMDAT ??_G?$CDynamicPool@USEventSet@CPythonEventManager@@@@UAEPAXI@Z
_TEXT	SEGMENT
___flags$ = 8						; size = 4
??_G?$CDynamicPool@USEventSet@CPythonEventManager@@@@UAEPAXI@Z PROC ; CDynamicPool<CPythonEventManager::SEventSet>::`scalar deleting destructor', COMDAT
; _this$ = ecx
  00000	55		 push	 ebp
  00001	8b ec		 mov	 ebp, esp
  00003	56		 push	 esi
  00004	8b f1		 mov	 esi, ecx
  00006	e8 00 00 00 00	 call	 ??1?$CDynamicPool@USEventSet@CPythonEventManager@@@@UAE@XZ ; CDynamicPool<CPythonEventManager::SEventSet>::~CDynamicPool<CPythonEventManager::SEventSet>
  0000b	f6 45 08 01	 test	 BYTE PTR ___flags$[ebp], 1
  0000f	74 0b		 je	 SHORT $LN4@scalar
  00011	6a 24		 push	 36			; 00000024H
  00013	56		 push	 esi
  00014	e8 00 00 00 00	 call	 ??3@YAXPAXI@Z		; operator delete
  00019	83 c4 08	 add	 esp, 8
$LN4@scalar:
  0001c	8b c6		 mov	 eax, esi
  0001e	5e		 pop	 esi
  0001f	5d		 pop	 ebp
  00020	c2 04 00	 ret	 4
??_G?$CDynamicPool@USEventSet@CPythonEventManager@@@@UAEPAXI@Z ENDP ; CDynamicPool<CPythonEventManager::SEventSet>::`scalar deleting destructor'
_TEXT	ENDS
; Function compile flags: /Ogtp
; File D:\Metin2 Server Files\mainline\SRC_2014\Metin2Client\eterLib\Pool.h
;	COMDAT ?Delete@?$CDynamicPool@USEventSet@CPythonEventManager@@@@KAXPAUSEventSet@CPythonEventManager@@@Z
_TEXT	SEGMENT
_pkData$ = 8						; size = 4
?Delete@?$CDynamicPool@USEventSet@CPythonEventManager@@@@KAXPAUSEventSet@CPythonEventManager@@@Z PROC ; CDynamicPool<CPythonEventManager::SEventSet>::Delete, COMDAT

; 109  : 		{

  00000	55		 push	 ebp
  00001	8b ec		 mov	 ebp, esp

; 110  : 			delete pkData;

  00003	8b 4d 08	 mov	 ecx, DWORD PTR _pkData$[ebp]
  00006	85 c9		 test	 ecx, ecx
  00008	74 06		 je	 SHORT $LN3@Delete
  0000a	8b 01		 mov	 eax, DWORD PTR [ecx]
  0000c	6a 01		 push	 1
  0000e	ff 10		 call	 DWORD PTR [eax]
$LN3@Delete:

; 111  : 		}

  00010	5d		 pop	 ebp
  00011	c3		 ret	 0
?Delete@?$CDynamicPool@USEventSet@CPythonEventManager@@@@KAXPAUSEventSet@CPythonEventManager@@@Z ENDP ; CDynamicPool<CPythonEventManager::SEventSet>::Delete
_TEXT	ENDS
; Function compile flags: /Ogtp
; File D:\Metin2 Server Files\mainline\SRC_2014\Metin2Client\eterLib\Pool.h
; File D:\Metin2 Server Files\mainline\SRC_2014\Metin2Client\UserInterface\PythonEventManager.h
; File C:\Program Files (x86)\Microsoft Visual Studio\2019\Community\VC\Tools\MSVC\14.28.29333\include\xstring
; File C:\Program Files (x86)\Microsoft Visual Studio\2019\Community\VC\Tools\MSVC\14.28.29333\include\xmemory
; File D:\Metin2 Server Files\mainline\SRC_2014\Metin2Client\UserInterface\PythonEventManager.h
; File C:\Program Files (x86)\Microsoft Visual Studio\2019\Community\VC\Tools\MSVC\14.28.29333\include\list
; File C:\Program Files (x86)\Microsoft Visual Studio\2019\Community\VC\Tools\MSVC\14.28.29333\include\xmemory
; File C:\Program Files (x86)\Microsoft Visual Studio\2019\Community\VC\Tools\MSVC\14.28.29333\include\list
; File D:\Metin2 Server Files\mainline\SRC_2014\Metin2Client\UserInterface\PythonEventManager.h
; File D:\Metin2 Server Files\mainline\SRC_2014\Metin2Client\eterLib\Pool.h
; File C:\Program Files (x86)\Microsoft Visual Studio\2019\Community\VC\Tools\MSVC\14.28.29333\include\vector
; File D:\Metin2 Server Files\mainline\SRC_2014\Metin2Client\eterLib\Pool.h
; File C:\Program Files (x86)\Microsoft Visual Studio\2019\Community\VC\Tools\MSVC\14.28.29333\include\vector
; File D:\Metin2 Server Files\mainline\SRC_2014\Metin2Client\eterLib\Pool.h
; File C:\Program Files (x86)\Microsoft Visual Studio\2019\Community\VC\Tools\MSVC\14.28.29333\include\vector
; File D:\Metin2 Server Files\mainline\SRC_2014\Metin2Client\eterLib\Pool.h
; File C:\Program Files (x86)\Microsoft Visual Studio\2019\Community\VC\Tools\MSVC\14.28.29333\include\vector
; File D:\Metin2 Server Files\mainline\SRC_2014\Metin2Client\eterLib\Pool.h
; File C:\Program Files (x86)\Microsoft Visual Studio\2019\Community\VC\Tools\MSVC\14.28.29333\include\vector
; File D:\Metin2 Server Files\mainline\SRC_2014\Metin2Client\eterLib\Pool.h
; File C:\Program Files (x86)\Microsoft Visual Studio\2019\Community\VC\Tools\MSVC\14.28.29333\include\vector
; File D:\Metin2 Server Files\mainline\SRC_2014\Metin2Client\eterLib\Pool.h
;	COMDAT ?Alloc@?$CDynamicPool@USEventSet@CPythonEventManager@@@@QAEPAUSEventSet@CPythonEventManager@@XZ
_TEXT	SEGMENT
$T2 = -20						; size = 4
__Newhead$3 = -16					; size = 4
_pkNewData$4 = -16					; size = 4
__$EHRec$ = -12						; size = 12
?Alloc@?$CDynamicPool@USEventSet@CPythonEventManager@@@@QAEPAUSEventSet@CPythonEventManager@@XZ PROC ; CDynamicPool<CPythonEventManager::SEventSet>::Alloc, COMDAT
; _this$ = ecx

; 62   : 		{

  00000	55		 push	 ebp
  00001	8b ec		 mov	 ebp, esp
  00003	6a ff		 push	 -1
  00005	68 00 00 00 00	 push	 __ehhandler$?Alloc@?$CDynamicPool@USEventSet@CPythonEventManager@@@@QAEPAUSEventSet@CPythonEventManager@@XZ
  0000a	64 a1 00 00 00
	00		 mov	 eax, DWORD PTR fs:0
  00010	50		 push	 eax
  00011	83 ec 08	 sub	 esp, 8
  00014	53		 push	 ebx
  00015	56		 push	 esi
  00016	57		 push	 edi
  00017	a1 00 00 00 00	 mov	 eax, DWORD PTR ___security_cookie
  0001c	33 c5		 xor	 eax, ebp
  0001e	50		 push	 eax
  0001f	8d 45 f4	 lea	 eax, DWORD PTR __$EHRec$[ebp]
  00022	64 a3 00 00 00
	00		 mov	 DWORD PTR fs:0, eax
  00028	8b d9		 mov	 ebx, ecx

; 63   : 			if (m_kVct_pkFree.empty())

  0002a	8b 43 10	 mov	 eax, DWORD PTR [ebx+16]
  0002d	3b 43 14	 cmp	 eax, DWORD PTR [ebx+20]
  00030	0f 85 d3 00 00
	00		 jne	 $LN2@Alloc

; 65   : 				T* pkNewData=new T;

  00036	68 d4 00 00 00	 push	 212			; 000000d4H
  0003b	e8 00 00 00 00	 call	 ??2@YAPAXI@Z		; operator new
  00040	8b f8		 mov	 edi, eax
  00042	83 c4 04	 add	 esp, 4
  00045	89 7d ec	 mov	 DWORD PTR $T2[ebp], edi
  00048	c7 45 fc 00 00
	00 00		 mov	 DWORD PTR __$EHRec$[ebp+8], 0
  0004f	85 ff		 test	 edi, edi
  00051	74 61		 je	 SHORT $LN4@Alloc
; File D:\Metin2 Server Files\mainline\SRC_2014\Metin2Client\UserInterface\PythonEventManager.h

; 143  : 			SEventSet() {}

  00053	c7 07 00 00 00
	00		 mov	 DWORD PTR [edi], OFFSET ??_7SEventSet@CPythonEventManager@@6B@
; File C:\Program Files (x86)\Microsoft Visual Studio\2019\Community\VC\Tools\MSVC\14.28.29333\include\xstring

; 4377 :         _Mypair._Myval2._Mysize = 0;

  00059	c7 47 40 00 00
	00 00		 mov	 DWORD PTR [edi+64], 0

; 4378 :         _Mypair._Myval2._Myres  = _BUF_SIZE - 1;

  00060	c7 47 44 0f 00
	00 00		 mov	 DWORD PTR [edi+68], 15	; 0000000fH

; 4379 :         // the _Traits::assign is last so the codegen doesn't think the char write can alias this
; 4380 :         _Traits::assign(_Mypair._Myval2._Bx._Buf[0], _Elem());

  00067	c6 47 30 00	 mov	 BYTE PTR [edi+48], 0
; File C:\Program Files (x86)\Microsoft Visual Studio\2019\Community\VC\Tools\MSVC\14.28.29333\include\xmemory

; 814  :         return static_cast<_Ty*>(_Allocate<_New_alignof<_Ty>>(_Get_size_of_n<sizeof(_Ty)>(_Count)));

  0006b	6a 14		 push	 20			; 00000014H
; File D:\Metin2 Server Files\mainline\SRC_2014\Metin2Client\UserInterface\PythonEventManager.h

; 143  : 			SEventSet() {}

  0006d	c6 45 fc 01	 mov	 BYTE PTR __$EHRec$[ebp+8], 1
; File C:\Program Files (x86)\Microsoft Visual Studio\2019\Community\VC\Tools\MSVC\14.28.29333\include\list

; 354  :     _List_val() noexcept : _Myhead(), _Mysize(0) {} // initialize data

  00071	c7 47 4c 00 00
	00 00		 mov	 DWORD PTR [edi+76], 0
  00078	c7 47 50 00 00
	00 00		 mov	 DWORD PTR [edi+80], 0
; File C:\Program Files (x86)\Microsoft Visual Studio\2019\Community\VC\Tools\MSVC\14.28.29333\include\xmemory

; 814  :         return static_cast<_Ty*>(_Allocate<_New_alignof<_Ty>>(_Get_size_of_n<sizeof(_Ty)>(_Count)));

  0007f	e8 00 00 00 00	 call	 ??$_Allocate@$07U_Default_allocate_traits@std@@$0A@@std@@YAPAXI@Z ; std::_Allocate<8,std::_Default_allocate_traits,0>
; File C:\Program Files (x86)\Microsoft Visual Studio\2019\Community\VC\Tools\MSVC\14.28.29333\include\list

; 1775 :         auto _Newhead = _Al.allocate(1);

  00084	8b f0		 mov	 esi, eax

; 1776 :         _Construct_in_place(_Newhead->_Next, _Newhead);

  00086	8d 45 f0	 lea	 eax, DWORD PTR __Newhead$3[ebp]
  00089	50		 push	 eax
  0008a	56		 push	 esi
  0008b	89 75 f0	 mov	 DWORD PTR __Newhead$3[ebp], esi
  0008e	e8 00 00 00 00	 call	 ??$_Construct_in_place@PAU?$_List_node@USTextLine@CPythonEventManager@@PAX@std@@AAPAU12@@std@@YAXAAPAU?$_List_node@USTextLine@CPythonEventManager@@PAX@0@0@Z ; std::_Construct_in_place<std::_List_node<CPythonEventManager::STextLine,void *> *,std::_List_node<CPythonEventManager::STextLine,void *> * &>

; 1777 :         _Construct_in_place(_Newhead->_Prev, _Newhead);

  00093	8d 45 f0	 lea	 eax, DWORD PTR __Newhead$3[ebp]
  00096	50		 push	 eax
  00097	8d 4e 04	 lea	 ecx, DWORD PTR [esi+4]
  0009a	51		 push	 ecx
  0009b	e8 00 00 00 00	 call	 ??$_Construct_in_place@PAU?$_List_node@USTextLine@CPythonEventManager@@PAX@std@@AAPAU12@@std@@YAXAAPAU?$_List_node@USTextLine@CPythonEventManager@@PAX@0@0@Z ; std::_Construct_in_place<std::_List_node<CPythonEventManager::STextLine,void *> *,std::_List_node<CPythonEventManager::STextLine,void *> * &>
  000a0	83 c4 14	 add	 esp, 20			; 00000014H

; 1778 :         _Mypair._Myval2._Myhead = _Newhead;

  000a3	89 77 4c	 mov	 DWORD PTR [edi+76], esi
; File D:\Metin2 Server Files\mainline\SRC_2014\Metin2Client\UserInterface\PythonEventManager.h

; 143  : 			SEventSet() {}

  000a6	8d 4f 60	 lea	 ecx, DWORD PTR [edi+96]
  000a9	c6 45 fc 02	 mov	 BYTE PTR __$EHRec$[ebp+8], 2
  000ad	e8 00 00 00 00	 call	 ??0Group@script@@QAE@XZ	; script::Group::Group
; File D:\Metin2 Server Files\mainline\SRC_2014\Metin2Client\eterLib\Pool.h

; 65   : 				T* pkNewData=new T;

  000b2	eb 02		 jmp	 SHORT $LN5@Alloc
$LN4@Alloc:
  000b4	33 ff		 xor	 edi, edi
$LN5@Alloc:
; File C:\Program Files (x86)\Microsoft Visual Studio\2019\Community\VC\Tools\MSVC\14.28.29333\include\vector

; 704  :         if (_Mylast != _My_data._Myend) {

  000b6	8b 43 08	 mov	 eax, DWORD PTR [ebx+8]
; File D:\Metin2 Server Files\mainline\SRC_2014\Metin2Client\eterLib\Pool.h

; 66   : 				m_kVct_pkData.push_back(pkNewData);

  000b9	8d 4b 04	 lea	 ecx, DWORD PTR [ebx+4]
  000bc	c7 45 fc ff ff
	ff ff		 mov	 DWORD PTR __$EHRec$[ebp+8], -1
  000c3	89 7d f0	 mov	 DWORD PTR _pkNewData$4[ebp], edi
; File C:\Program Files (x86)\Microsoft Visual Studio\2019\Community\VC\Tools\MSVC\14.28.29333\include\vector

; 704  :         if (_Mylast != _My_data._Myend) {

  000c6	3b 41 08	 cmp	 eax, DWORD PTR [ecx+8]
  000c9	74 1d		 je	 SHORT $LN46@Alloc

; 687  :         _Alty_traits::construct(_Getal(), _Unfancy(_Mylast), _STD forward<_Valty>(_Val)...);

  000cb	89 38		 mov	 DWORD PTR [eax], edi
; File D:\Metin2 Server Files\mainline\SRC_2014\Metin2Client\eterLib\Pool.h

; 68   : 				return pkNewData;

  000cd	8b c7		 mov	 eax, edi
; File C:\Program Files (x86)\Microsoft Visual Studio\2019\Community\VC\Tools\MSVC\14.28.29333\include\vector

; 690  :         ++_Mylast;

  000cf	83 41 04 04	 add	 DWORD PTR [ecx+4], 4
; File D:\Metin2 Server Files\mainline\SRC_2014\Metin2Client\eterLib\Pool.h

; 67   : 				++m_uUsedCapacity;

  000d3	ff 43 20	 inc	 DWORD PTR [ebx+32]

; 74   : 		}

  000d6	8b 4d f4	 mov	 ecx, DWORD PTR __$EHRec$[ebp]
  000d9	64 89 0d 00 00
	00 00		 mov	 DWORD PTR fs:0, ecx
  000e0	59		 pop	 ecx
  000e1	5f		 pop	 edi
  000e2	5e		 pop	 esi
  000e3	5b		 pop	 ebx
  000e4	8b e5		 mov	 esp, ebp
  000e6	5d		 pop	 ebp
  000e7	c3		 ret	 0
$LN46@Alloc:
; File C:\Program Files (x86)\Microsoft Visual Studio\2019\Community\VC\Tools\MSVC\14.28.29333\include\vector

; 708  :         _Ty& _Result = *_Emplace_reallocate(_Mylast, _STD forward<_Valty>(_Val)...);

  000e8	8d 55 f0	 lea	 edx, DWORD PTR _pkNewData$4[ebp]
  000eb	52		 push	 edx
  000ec	50		 push	 eax
  000ed	e8 00 00 00 00	 call	 ??$_Emplace_reallocate@ABQAUSEventSet@CPythonEventManager@@@?$vector@PAUSEventSet@CPythonEventManager@@V?$allocator@PAUSEventSet@CPythonEventManager@@@std@@@std@@QAEPAPAUSEventSet@CPythonEventManager@@QAPAU23@ABQAU23@@Z ; std::vector<CPythonEventManager::SEventSet *,std::allocator<CPythonEventManager::SEventSet *> >::_Emplace_reallocate<CPythonEventManager::SEventSet * const &>
; File D:\Metin2 Server Files\mainline\SRC_2014\Metin2Client\eterLib\Pool.h

; 67   : 				++m_uUsedCapacity;

  000f2	ff 43 20	 inc	 DWORD PTR [ebx+32]

; 68   : 				return pkNewData;

  000f5	8b c7		 mov	 eax, edi

; 74   : 		}

  000f7	8b 4d f4	 mov	 ecx, DWORD PTR __$EHRec$[ebp]
  000fa	64 89 0d 00 00
	00 00		 mov	 DWORD PTR fs:0, ecx
  00101	59		 pop	 ecx
  00102	5f		 pop	 edi
  00103	5e		 pop	 esi
  00104	5b		 pop	 ebx
  00105	8b e5		 mov	 esp, ebp
  00107	5d		 pop	 ebp
  00108	c3		 ret	 0
$LN2@Alloc:
; File C:\Program Files (x86)\Microsoft Visual Studio\2019\Community\VC\Tools\MSVC\14.28.29333\include\vector

; 1559 :         return _My_data._Mylast[-1];

  00109	8b 43 14	 mov	 eax, DWORD PTR [ebx+20]
  0010c	83 c0 fc	 add	 eax, -4			; fffffffcH
; File D:\Metin2 Server Files\mainline\SRC_2014\Metin2Client\eterLib\Pool.h

; 71   : 			T* pkFreeData=m_kVct_pkFree.back();

  0010f	8b 08		 mov	 ecx, DWORD PTR [eax]
; File C:\Program Files (x86)\Microsoft Visual Studio\2019\Community\VC\Tools\MSVC\14.28.29333\include\vector

; 1338 :         --_Mylast;

  00111	89 43 14	 mov	 DWORD PTR [ebx+20], eax
; File D:\Metin2 Server Files\mainline\SRC_2014\Metin2Client\eterLib\Pool.h

; 73   : 			return pkFreeData;

  00114	8b c1		 mov	 eax, ecx

; 74   : 		}

  00116	8b 4d f4	 mov	 ecx, DWORD PTR __$EHRec$[ebp]
  00119	64 89 0d 00 00
	00 00		 mov	 DWORD PTR fs:0, ecx
  00120	59		 pop	 ecx
  00121	5f		 pop	 edi
  00122	5e		 pop	 esi
  00123	5b		 pop	 ebx
  00124	8b e5		 mov	 esp, ebp
  00126	5d		 pop	 ebp
  00127	c3		 ret	 0
_TEXT	ENDS
;	COMDAT text$x
text$x	SEGMENT
__unwindfunclet$?Alloc@?$CDynamicPool@USEventSet@CPythonEventManager@@@@QAEPAUSEventSet@CPythonEventManager@@XZ$0:
  00000	68 d4 00 00 00	 push	 212			; 000000d4H
  00005	8b 45 ec	 mov	 eax, DWORD PTR $T2[ebp]
  00008	50		 push	 eax
  00009	e8 00 00 00 00	 call	 ??3@YAXPAXI@Z		; operator delete
  0000e	83 c4 08	 add	 esp, 8
  00011	c3		 ret	 0
__unwindfunclet$?Alloc@?$CDynamicPool@USEventSet@CPythonEventManager@@@@QAEPAUSEventSet@CPythonEventManager@@XZ$1:
  00012	8b 4d ec	 mov	 ecx, DWORD PTR $T2[ebp]
  00015	83 c1 30	 add	 ecx, 48			; 00000030H
  00018	e9 00 00 00 00	 jmp	 ??1?$basic_string@DU?$char_traits@D@std@@V?$allocator@D@2@@std@@QAE@XZ ; std::basic_string<char,std::char_traits<char>,std::allocator<char> >::~basic_string<char,std::char_traits<char>,std::allocator<char> >
__unwindfunclet$?Alloc@?$CDynamicPool@USEventSet@CPythonEventManager@@@@QAEPAUSEventSet@CPythonEventManager@@XZ$2:
  0001d	8b 4d ec	 mov	 ecx, DWORD PTR $T2[ebp]
  00020	83 c1 4c	 add	 ecx, 76			; 0000004cH
  00023	e9 00 00 00 00	 jmp	 ??1?$list@USTextLine@CPythonEventManager@@V?$allocator@USTextLine@CPythonEventManager@@@std@@@std@@QAE@XZ ; std::list<CPythonEventManager::STextLine,std::allocator<CPythonEventManager::STextLine> >::~list<CPythonEventManager::STextLine,std::allocator<CPythonEventManager::STextLine> >
  00028	cc		 int	 3
  00029	cc		 int	 3
  0002a	cc		 int	 3
  0002b	cc		 int	 3
  0002c	cc		 int	 3
__ehhandler$?Alloc@?$CDynamicPool@USEventSet@CPythonEventManager@@@@QAEPAUSEventSet@CPythonEventManager@@XZ:
  0002d	90		 npad	 1
  0002e	90		 npad	 1
  0002f	8b 54 24 08	 mov	 edx, DWORD PTR [esp+8]
  00033	8d 42 0c	 lea	 eax, DWORD PTR [edx+12]
  00036	8b 4a e8	 mov	 ecx, DWORD PTR [edx-24]
  00039	33 c8		 xor	 ecx, eax
  0003b	e8 00 00 00 00	 call	 @__security_check_cookie@4
  00040	b8 00 00 00 00	 mov	 eax, OFFSET __ehfuncinfo$?Alloc@?$CDynamicPool@USEventSet@CPythonEventManager@@@@QAEPAUSEventSet@CPythonEventManager@@XZ
  00045	e9 00 00 00 00	 jmp	 ___CxxFrameHandler3
text$x	ENDS
?Alloc@?$CDynamicPool@USEventSet@CPythonEventManager@@@@QAEPAUSEventSet@CPythonEventManager@@XZ ENDP ; CDynamicPool<CPythonEventManager::SEventSet>::Alloc
; Function compile flags: /Ogtp
; File D:\Metin2 Server Files\mainline\SRC_2014\Metin2Client\eterLib\Pool.h
; File C:\Program Files (x86)\Microsoft Visual Studio\2019\Community\VC\Tools\MSVC\14.28.29333\include\vector
; File C:\Program Files (x86)\Microsoft Visual Studio\2019\Community\VC\Tools\MSVC\14.28.29333\include\xmemory
; File C:\Program Files (x86)\Microsoft Visual Studio\2019\Community\VC\Tools\MSVC\14.28.29333\include\vector
; File C:\Program Files (x86)\Microsoft Visual Studio\2019\Community\VC\Tools\MSVC\14.28.29333\include\xmemory
; File C:\Program Files (x86)\Microsoft Visual Studio\2019\Community\VC\Tools\MSVC\14.28.29333\include\vector
; File C:\Program Files (x86)\Microsoft Visual Studio\2019\Community\VC\Tools\MSVC\14.28.29333\include\xmemory
; File C:\Program Files (x86)\Microsoft Visual Studio\2019\Community\VC\Tools\MSVC\14.28.29333\include\vector
; File C:\Program Files (x86)\Microsoft Visual Studio\2019\Community\VC\Tools\MSVC\14.28.29333\include\xmemory
; File C:\Program Files (x86)\Microsoft Visual Studio\2019\Community\VC\Tools\MSVC\14.28.29333\include\vector
; File D:\Metin2 Server Files\mainline\SRC_2014\Metin2Client\eterLib\Pool.h
;	COMDAT ??1?$CDynamicPool@USEventSet@CPythonEventManager@@@@UAE@XZ
_TEXT	SEGMENT
??1?$CDynamicPool@USEventSet@CPythonEventManager@@@@UAE@XZ PROC ; CDynamicPool<CPythonEventManager::SEventSet>::~CDynamicPool<CPythonEventManager::SEventSet>, COMDAT
; _this$ = ecx

; 18   : 		{

  00000	56		 push	 esi
  00001	8b f1		 mov	 esi, ecx
  00003	c7 06 00 00 00
	00		 mov	 DWORD PTR [esi], OFFSET ??_7?$CDynamicPool@USEventSet@CPythonEventManager@@@@6B@
; File C:\Program Files (x86)\Microsoft Visual Studio\2019\Community\VC\Tools\MSVC\14.28.29333\include\vector

; 1694 :         if (_Myfirst) { // destroy and deallocate old array

  00009	8b 4e 10	 mov	 ecx, DWORD PTR [esi+16]
  0000c	85 c9		 test	 ecx, ecx
  0000e	74 27		 je	 SHORT $LN6@CDynamicPo

; 1695 :             _Destroy(_Myfirst, _Mylast);
; 1696 :             _Getal().deallocate(_Myfirst, static_cast<size_type>(_Myend - _Myfirst));

  00010	8b 46 18	 mov	 eax, DWORD PTR [esi+24]
  00013	2b c1		 sub	 eax, ecx
; File C:\Program Files (x86)\Microsoft Visual Studio\2019\Community\VC\Tools\MSVC\14.28.29333\include\xmemory

; 810  :         _Deallocate<_New_alignof<_Ty>>(_Ptr, sizeof(_Ty) * _Count);

  00015	83 e0 fc	 and	 eax, -4			; fffffffcH
  00018	50		 push	 eax
  00019	51		 push	 ecx
  0001a	e8 00 00 00 00	 call	 ??$_Deallocate@$07$0A@@std@@YAXPAXI@Z ; std::_Deallocate<8,0>
; File C:\Program Files (x86)\Microsoft Visual Studio\2019\Community\VC\Tools\MSVC\14.28.29333\include\vector

; 1698 :             _Myfirst = pointer();

  0001f	c7 46 10 00 00
	00 00		 mov	 DWORD PTR [esi+16], 0
; File C:\Program Files (x86)\Microsoft Visual Studio\2019\Community\VC\Tools\MSVC\14.28.29333\include\xmemory

; 810  :         _Deallocate<_New_alignof<_Ty>>(_Ptr, sizeof(_Ty) * _Count);

  00026	83 c4 08	 add	 esp, 8
; File C:\Program Files (x86)\Microsoft Visual Studio\2019\Community\VC\Tools\MSVC\14.28.29333\include\vector

; 1699 :             _Mylast  = pointer();

  00029	c7 46 14 00 00
	00 00		 mov	 DWORD PTR [esi+20], 0

; 1700 :             _Myend   = pointer();

  00030	c7 46 18 00 00
	00 00		 mov	 DWORD PTR [esi+24], 0
$LN6@CDynamicPo:

; 1694 :         if (_Myfirst) { // destroy and deallocate old array

  00037	8b 4e 04	 mov	 ecx, DWORD PTR [esi+4]
  0003a	85 c9		 test	 ecx, ecx
  0003c	74 27		 je	 SHORT $LN13@CDynamicPo

; 1695 :             _Destroy(_Myfirst, _Mylast);
; 1696 :             _Getal().deallocate(_Myfirst, static_cast<size_type>(_Myend - _Myfirst));

  0003e	8b 46 0c	 mov	 eax, DWORD PTR [esi+12]
  00041	2b c1		 sub	 eax, ecx
; File C:\Program Files (x86)\Microsoft Visual Studio\2019\Community\VC\Tools\MSVC\14.28.29333\include\xmemory

; 810  :         _Deallocate<_New_alignof<_Ty>>(_Ptr, sizeof(_Ty) * _Count);

  00043	83 e0 fc	 and	 eax, -4			; fffffffcH
  00046	50		 push	 eax
  00047	51		 push	 ecx
  00048	e8 00 00 00 00	 call	 ??$_Deallocate@$07$0A@@std@@YAXPAXI@Z ; std::_Deallocate<8,0>
; File C:\Program Files (x86)\Microsoft Visual Studio\2019\Community\VC\Tools\MSVC\14.28.29333\include\vector

; 1698 :             _Myfirst = pointer();

  0004d	c7 46 04 00 00
	00 00		 mov	 DWORD PTR [esi+4], 0
; File C:\Program Files (x86)\Microsoft Visual Studio\2019\Community\VC\Tools\MSVC\14.28.29333\include\xmemory

; 810  :         _Deallocate<_New_alignof<_Ty>>(_Ptr, sizeof(_Ty) * _Count);

  00054	83 c4 08	 add	 esp, 8
; File C:\Program Files (x86)\Microsoft Visual Studio\2019\Community\VC\Tools\MSVC\14.28.29333\include\vector

; 1699 :             _Mylast  = pointer();

  00057	c7 46 08 00 00
	00 00		 mov	 DWORD PTR [esi+8], 0

; 1700 :             _Myend   = pointer();

  0005e	c7 46 0c 00 00
	00 00		 mov	 DWORD PTR [esi+12], 0
$LN13@CDynamicPo:
  00065	5e		 pop	 esi
; File D:\Metin2 Server Files\mainline\SRC_2014\Metin2Client\eterLib\Pool.h

; 26   : 		}

  00066	c3		 ret	 0
??1?$CDynamicPool@USEventSet@CPythonEventManager@@@@UAE@XZ ENDP ; CDynamicPool<CPythonEventManager::SEventSet>::~CDynamicPool<CPythonEventManager::SEventSet>
_TEXT	ENDS
; Function compile flags: /Ogtp
; File C:\Program Files (x86)\Microsoft Visual Studio\2019\Community\VC\Tools\MSVC\14.28.29333\include\vector
;	COMDAT ?_Xlength@?$vector@PAUSEventSet@CPythonEventManager@@V?$allocator@PAUSEventSet@CPythonEventManager@@@std@@@std@@CAXXZ
_TEXT	SEGMENT
?_Xlength@?$vector@PAUSEventSet@CPythonEventManager@@V?$allocator@PAUSEventSet@CPythonEventManager@@@std@@@std@@CAXXZ PROC ; std::vector<CPythonEventManager::SEventSet *,std::allocator<CPythonEventManager::SEventSet *> >::_Xlength, COMDAT

; 1705 :         _Xlength_error("vector too long");

  00000	68 00 00 00 00	 push	 OFFSET ??_C@_0BA@FOIKENOD@vector?5too?5long@
  00005	e8 00 00 00 00	 call	 ?_Xlength_error@std@@YAXPBD@Z ; std::_Xlength_error
$LN3@Xlength:
  0000a	cc		 int	 3
?_Xlength@?$vector@PAUSEventSet@CPythonEventManager@@V?$allocator@PAUSEventSet@CPythonEventManager@@@std@@@std@@CAXXZ ENDP ; std::vector<CPythonEventManager::SEventSet *,std::allocator<CPythonEventManager::SEventSet *> >::_Xlength
_TEXT	ENDS
; Function compile flags: /Ogtp
; File C:\Program Files (x86)\Microsoft Visual Studio\2019\Community\VC\Tools\MSVC\14.28.29333\include\vector
; File C:\Program Files (x86)\Microsoft Visual Studio\2019\Community\VC\Tools\MSVC\14.28.29333\include\xmemory
; File C:\Program Files (x86)\Microsoft Visual Studio\2019\Community\VC\Tools\MSVC\14.28.29333\include\vector
; File C:\Program Files (x86)\Microsoft Visual Studio\2019\Community\VC\Tools\MSVC\14.28.29333\include\xmemory
; File C:\Program Files (x86)\Microsoft Visual Studio\2019\Community\VC\Tools\MSVC\14.28.29333\include\vector
;	COMDAT ??1?$vector@PAUSEventSet@CPythonEventManager@@V?$allocator@PAUSEventSet@CPythonEventManager@@@std@@@std@@QAE@XZ
_TEXT	SEGMENT
??1?$vector@PAUSEventSet@CPythonEventManager@@V?$allocator@PAUSEventSet@CPythonEventManager@@@std@@@std@@QAE@XZ PROC ; std::vector<CPythonEventManager::SEventSet *,std::allocator<CPythonEventManager::SEventSet *> >::~vector<CPythonEventManager::SEventSet *,std::allocator<CPythonEventManager::SEventSet *> >, COMDAT
; _this$ = ecx

; 672  :     ~vector() noexcept {

  00000	56		 push	 esi
  00001	8b f1		 mov	 esi, ecx

; 1694 :         if (_Myfirst) { // destroy and deallocate old array

  00003	8b 0e		 mov	 ecx, DWORD PTR [esi]
  00005	85 c9		 test	 ecx, ecx
  00007	74 26		 je	 SHORT $LN4@vector

; 1695 :             _Destroy(_Myfirst, _Mylast);
; 1696 :             _Getal().deallocate(_Myfirst, static_cast<size_type>(_Myend - _Myfirst));

  00009	8b 46 08	 mov	 eax, DWORD PTR [esi+8]
  0000c	2b c1		 sub	 eax, ecx
; File C:\Program Files (x86)\Microsoft Visual Studio\2019\Community\VC\Tools\MSVC\14.28.29333\include\xmemory

; 810  :         _Deallocate<_New_alignof<_Ty>>(_Ptr, sizeof(_Ty) * _Count);

  0000e	83 e0 fc	 and	 eax, -4			; fffffffcH
  00011	50		 push	 eax
  00012	51		 push	 ecx
  00013	e8 00 00 00 00	 call	 ??$_Deallocate@$07$0A@@std@@YAXPAXI@Z ; std::_Deallocate<8,0>
; File C:\Program Files (x86)\Microsoft Visual Studio\2019\Community\VC\Tools\MSVC\14.28.29333\include\vector

; 1698 :             _Myfirst = pointer();

  00018	c7 06 00 00 00
	00		 mov	 DWORD PTR [esi], 0
; File C:\Program Files (x86)\Microsoft Visual Studio\2019\Community\VC\Tools\MSVC\14.28.29333\include\xmemory

; 810  :         _Deallocate<_New_alignof<_Ty>>(_Ptr, sizeof(_Ty) * _Count);

  0001e	83 c4 08	 add	 esp, 8
; File C:\Program Files (x86)\Microsoft Visual Studio\2019\Community\VC\Tools\MSVC\14.28.29333\include\vector

; 1699 :             _Mylast  = pointer();

  00021	c7 46 04 00 00
	00 00		 mov	 DWORD PTR [esi+4], 0

; 1700 :             _Myend   = pointer();

  00028	c7 46 08 00 00
	00 00		 mov	 DWORD PTR [esi+8], 0
$LN4@vector:
  0002f	5e		 pop	 esi

; 673  :         _Tidy();
; 674  : #if _ITERATOR_DEBUG_LEVEL != 0
; 675  :         auto&& _Alproxy = _GET_PROXY_ALLOCATOR(_Alty, _Getal());
; 676  :         _Delete_plain_internal(_Alproxy, _STD exchange(_Mypair._Myval2._Myproxy, nullptr));
; 677  : #endif // _ITERATOR_DEBUG_LEVEL != 0
; 678  :     }

  00030	c3		 ret	 0
??1?$vector@PAUSEventSet@CPythonEventManager@@V?$allocator@PAUSEventSet@CPythonEventManager@@@std@@@std@@QAE@XZ ENDP ; std::vector<CPythonEventManager::SEventSet *,std::allocator<CPythonEventManager::SEventSet *> >::~vector<CPythonEventManager::SEventSet *,std::allocator<CPythonEventManager::SEventSet *> >
_TEXT	ENDS
; Function compile flags: /Ogtp
; File D:\Metin2 Server Files\mainline\SRC_2014\Metin2Client\UserInterface\PythonEventManager.cpp
;	COMDAT ?MakeNextButton@CPythonEventManager@@IAEXPAUSEventSet@1@H@Z
_TEXT	SEGMENT
_pEventSet$ = 8						; size = 4
_iButtonType$ = 12					; size = 4
?MakeNextButton@CPythonEventManager@@IAEXPAUSEventSet@1@H@Z PROC ; CPythonEventManager::MakeNextButton, COMDAT
; _this$ = ecx

; 879  : {

  00000	55		 push	 ebp
  00001	8b ec		 mov	 ebp, esp
  00003	56		 push	 esi

; 880  : 	__AddSpace(*pEventSet, c_fLine_Temp+5);

  00004	8b 75 08	 mov	 esi, DWORD PTR _pEventSet$[ebp]
  00007	6a 15		 push	 21			; 00000015H
  00009	56		 push	 esi
  0000a	e8 00 00 00 00	 call	 ?__AddSpace@CPythonEventManager@@IAEXAAUSEventSet@1@H@Z ; CPythonEventManager::__AddSpace

; 881  : 	PyCallClassMemberFunc(pEventSet->poEventHandler, "MakeNextButton", Py_BuildValue("(i)", iButtonType));

  0000f	ff 75 0c	 push	 DWORD PTR _iButtonType$[ebp]
  00012	68 00 00 00 00	 push	 OFFSET ??_C@_03LIHNMIHG@?$CIi?$CJ@
  00017	ff 15 00 00 00
	00		 call	 DWORD PTR __imp__Py_BuildValue
  0001d	50		 push	 eax
  0001e	68 00 00 00 00	 push	 OFFSET ??_C@_0P@FONAKFHL@MakeNextButton@
  00023	ff b6 d0 00 00
	00		 push	 DWORD PTR [esi+208]
  00029	e8 00 00 00 00	 call	 ?PyCallClassMemberFunc@@YA_NPAU_object@@PBD0@Z ; PyCallClassMemberFunc
  0002e	83 c4 14	 add	 esp, 20			; 00000014H
  00031	5e		 pop	 esi

; 882  : }

  00032	5d		 pop	 ebp
  00033	c2 08 00	 ret	 8
?MakeNextButton@CPythonEventManager@@IAEXPAUSEventSet@1@H@Z ENDP ; CPythonEventManager::MakeNextButton
_TEXT	ENDS
; Function compile flags: /Ogtp
; File D:\Metin2 Server Files\mainline\SRC_2014\Metin2Client\UserInterface\PythonEventManager.cpp
; File C:\Program Files (x86)\Microsoft Visual Studio\2019\Community\VC\Tools\MSVC\14.28.29333\include\list
; File D:\Metin2 Server Files\mainline\SRC_2014\Metin2Client\UserInterface\PythonEventManager.cpp
; File C:\Program Files (x86)\Microsoft Visual Studio\2019\Community\VC\Tools\MSVC\14.28.29333\include\list
; File D:\Metin2 Server Files\mainline\SRC_2014\Metin2Client\UserInterface\PythonEventManager.cpp
; File C:\Program Files (x86)\Microsoft Visual Studio\2019\Community\VC\Tools\MSVC\14.28.29333\include\xstring
; File D:\Metin2 Server Files\mainline\SRC_2014\Metin2Client\UserInterface\PythonEventManager.cpp
; File C:\Program Files (x86)\Microsoft Visual Studio\2019\Community\VC\Tools\MSVC\14.28.29333\include\list
; File D:\Metin2 Server Files\mainline\SRC_2014\Metin2Client\UserInterface\PythonEventManager.cpp
; File C:\Program Files (x86)\Microsoft Visual Studio\2019\Community\VC\Tools\MSVC\14.28.29333\include\list
; File D:\Metin2 Server Files\mainline\SRC_2014\Metin2Client\UserInterface\PythonEventManager.cpp
;	COMDAT ?MakeQuestion@CPythonEventManager@@IAEXPAUSEventSet@1@AAV?$list@USArgumet@script@@V?$allocator@USArgumet@script@@@std@@@std@@@Z
_TEXT	SEGMENT
_pEventSet$ = 8						; size = 4
_rArgumentList$ = 12					; size = 4
?MakeQuestion@CPythonEventManager@@IAEXPAUSEventSet@1@AAV?$list@USArgumet@script@@V?$allocator@USArgumet@script@@@std@@@std@@@Z PROC ; CPythonEventManager::MakeQuestion, COMDAT
; _this$ = ecx

; 885  : {

  00000	55		 push	 ebp
  00001	8b ec		 mov	 ebp, esp
  00003	53		 push	 ebx
; File C:\Program Files (x86)\Microsoft Visual Studio\2019\Community\VC\Tools\MSVC\14.28.29333\include\list

; 1200 :         return _Mypair._Myval2._Mysize == 0;

  00004	8b 5d 0c	 mov	 ebx, DWORD PTR _rArgumentList$[ebp]
  00007	8b 43 04	 mov	 eax, DWORD PTR [ebx+4]
  0000a	85 c0		 test	 eax, eax
; File D:\Metin2 Server Files\mainline\SRC_2014\Metin2Client\UserInterface\PythonEventManager.cpp

; 886  : 	if (rArgumentList.empty())

  0000c	74 70		 je	 SHORT $LN3@MakeQuesti

; 887  : 		return;
; 888  : 
; 889  : 	PyCallClassMemberFunc(pEventSet->poEventHandler, "MakeQuestion", Py_BuildValue("(i)", rArgumentList.size()));

  0000e	56		 push	 esi
  0000f	57		 push	 edi
  00010	50		 push	 eax
  00011	68 00 00 00 00	 push	 OFFSET ??_C@_03LIHNMIHG@?$CIi?$CJ@
  00016	ff 15 00 00 00
	00		 call	 DWORD PTR __imp__Py_BuildValue
  0001c	8b 75 08	 mov	 esi, DWORD PTR _pEventSet$[ebp]
  0001f	50		 push	 eax
  00020	68 00 00 00 00	 push	 OFFSET ??_C@_0N@NKMOFENJ@MakeQuestion@
  00025	ff b6 d0 00 00
	00		 push	 DWORD PTR [esi+208]
  0002b	e8 00 00 00 00	 call	 ?PyCallClassMemberFunc@@YA_NPAU_object@@PBD0@Z ; PyCallClassMemberFunc

; 890  : 	pEventSet->nAnswer = rArgumentList.size();

  00030	8b 43 04	 mov	 eax, DWORD PTR [ebx+4]
  00033	83 c4 14	 add	 esp, 20			; 00000014H
  00036	89 86 c8 00 00
	00		 mov	 DWORD PTR [esi+200], eax

; 891  : 
; 892  : 	int iIndex = 0;

  0003c	33 ff		 xor	 edi, edi
; File C:\Program Files (x86)\Microsoft Visual Studio\2019\Community\VC\Tools\MSVC\14.28.29333\include\list

; 1092 :         return iterator(_Mypair._Myval2._Myhead->_Next, _STD addressof(_Mypair._Myval2));

  0003e	8b 03		 mov	 eax, DWORD PTR [ebx]

; 39   :     _List_unchecked_const_iterator(_Nodeptr _Pnode, const _Mylist* _Plist) noexcept : _Ptr(_Pnode) {

  00040	8b 30		 mov	 esi, DWORD PTR [eax]
  00042	3b f0		 cmp	 esi, eax
; File D:\Metin2 Server Files\mainline\SRC_2014\Metin2Client\UserInterface\PythonEventManager.cpp

; 893  : 	for (script::TArgList::iterator itor=rArgumentList.begin(); itor!=rArgumentList.end(); ++itor)

  00044	74 36		 je	 SHORT $LN48@MakeQuesti
$LL20@MakeQuesti:
; File C:\Program Files (x86)\Microsoft Visual Studio\2019\Community\VC\Tools\MSVC\14.28.29333\include\xstring

; 2227 :         return _BUF_SIZE <= _Myres;

  00046	83 7e 34 10	 cmp	 DWORD PTR [esi+52], 16	; 00000010H

; 3752 :         return _Mypair._Myval2._Myptr();

  0004a	8d 46 20	 lea	 eax, DWORD PTR [esi+32]

; 2219 :         if (_Large_string_engaged()) {

  0004d	72 02		 jb	 SHORT $LN40@MakeQuesti

; 2220 :             _Result = _Unfancy(_Bx._Ptr);

  0004f	8b 00		 mov	 eax, DWORD PTR [eax]
$LN40@MakeQuesti:
; File D:\Metin2 Server Files\mainline\SRC_2014\Metin2Client\UserInterface\PythonEventManager.cpp

; 896  : 		PyCallClassMemberFunc(pEventSet->poEventHandler, "AppendQuestion", Py_BuildValue("(si)", rArgument.strValue.c_str(), iIndex));

  00051	57		 push	 edi
  00052	50		 push	 eax
  00053	68 00 00 00 00	 push	 OFFSET ??_C@_04LCKGAMBB@?$CIsi?$CJ@
  00058	ff 15 00 00 00
	00		 call	 DWORD PTR __imp__Py_BuildValue
  0005e	50		 push	 eax
  0005f	8b 45 08	 mov	 eax, DWORD PTR _pEventSet$[ebp]
  00062	68 00 00 00 00	 push	 OFFSET ??_C@_0P@EGMAHDDO@AppendQuestion@
  00067	ff b0 d0 00 00
	00		 push	 DWORD PTR [eax+208]
  0006d	e8 00 00 00 00	 call	 ?PyCallClassMemberFunc@@YA_NPAU_object@@PBD0@Z ; PyCallClassMemberFunc
; File C:\Program Files (x86)\Microsoft Visual Studio\2019\Community\VC\Tools\MSVC\14.28.29333\include\list

; 166  :         this->_Ptr = this->_Ptr->_Next;

  00072	8b 36		 mov	 esi, DWORD PTR [esi]
; File D:\Metin2 Server Files\mainline\SRC_2014\Metin2Client\UserInterface\PythonEventManager.cpp

; 896  : 		PyCallClassMemberFunc(pEventSet->poEventHandler, "AppendQuestion", Py_BuildValue("(si)", rArgument.strValue.c_str(), iIndex));

  00074	83 c4 18	 add	 esp, 24			; 00000018H

; 897  : 		++iIndex;

  00077	47		 inc	 edi
; File C:\Program Files (x86)\Microsoft Visual Studio\2019\Community\VC\Tools\MSVC\14.28.29333\include\list

; 199  :         return this->_Ptr == _Right._Ptr;

  00078	3b 33		 cmp	 esi, DWORD PTR [ebx]
