; Listing generated by Microsoft (R) Optimizing Compiler Version 19.28.29335.0 

	TITLE	D:\Metin2 Server Files\mainline\SRC_2014\Metin2Client\UserInterface\PythonCharacterManager.cpp
	.686P
	.XMM
	include listing.inc
	.model	flat

INCLUDELIB LIBCMT
INCLUDELIB OLDNAMES

PUBLIC	??_7?$CDynamicPoolEx@VCRotationDecorator@NEffectUpdateDecorator@@@@6B@ ; CDynamicPoolEx<NEffectUpdateDecorator::CRotationDecorator>::`vftable'
PUBLIC	??_G?$CDynamicPoolEx@VCRotationDecorator@NEffectUpdateDecorator@@@@UAEPAXI@Z ; CDynamicPoolEx<NEffectUpdateDecorator::CRotationDecorator>::`scalar deleting destructor'
PUBLIC	??_7?$CDynamicPoolEx@VCGravityDecorator@NEffectUpdateDecorator@@@@6B@ ; CDynamicPoolEx<NEffectUpdateDecorator::CGravityDecorator>::`vftable'
PUBLIC	??_G?$CDynamicPoolEx@VCGravityDecorator@NEffectUpdateDecorator@@@@UAEPAXI@Z ; CDynamicPoolEx<NEffectUpdateDecorator::CGravityDecorator>::`scalar deleting destructor'
PUBLIC	??_R4?$CDynamicPoolEx@VCHeaderDecorator@NEffectUpdateDecorator@@@@6B@ ; CDynamicPoolEx<NEffectUpdateDecorator::CHeaderDecorator>::`RTTI Complete Object Locator'
PUBLIC	??_R0?AV?$CDynamicPoolEx@VCHeaderDecorator@NEffectUpdateDecorator@@@@@8 ; CDynamicPoolEx<NEffectUpdateDecorator::CHeaderDecorator> `RTTI Type Descriptor'
PUBLIC	??_R3?$CDynamicPoolEx@VCHeaderDecorator@NEffectUpdateDecorator@@@@8 ; CDynamicPoolEx<NEffectUpdateDecorator::CHeaderDecorator>::`RTTI Class Hierarchy Descriptor'
PUBLIC	??_R2?$CDynamicPoolEx@VCHeaderDecorator@NEffectUpdateDecorator@@@@8 ; CDynamicPoolEx<NEffectUpdateDecorator::CHeaderDecorator>::`RTTI Base Class Array'
PUBLIC	??_R1A@?0A@EA@?$CDynamicPoolEx@VCHeaderDecorator@NEffectUpdateDecorator@@@@8 ; CDynamicPoolEx<NEffectUpdateDecorator::CHeaderDecorator>::`RTTI Base Class Descriptor at (0,-1,0,64)'
PUBLIC	??_R4?$CDynamicPoolEx@VCNullDecorator@NEffectUpdateDecorator@@@@6B@ ; CDynamicPoolEx<NEffectUpdateDecorator::CNullDecorator>::`RTTI Complete Object Locator'
PUBLIC	??_R0?AV?$CDynamicPoolEx@VCNullDecorator@NEffectUpdateDecorator@@@@@8 ; CDynamicPoolEx<NEffectUpdateDecorator::CNullDecorator> `RTTI Type Descriptor'
PUBLIC	??_R3?$CDynamicPoolEx@VCNullDecorator@NEffectUpdateDecorator@@@@8 ; CDynamicPoolEx<NEffectUpdateDecorator::CNullDecorator>::`RTTI Class Hierarchy Descriptor'
PUBLIC	??_R2?$CDynamicPoolEx@VCNullDecorator@NEffectUpdateDecorator@@@@8 ; CDynamicPoolEx<NEffectUpdateDecorator::CNullDecorator>::`RTTI Base Class Array'
PUBLIC	??_R1A@?0A@EA@?$CDynamicPoolEx@VCNullDecorator@NEffectUpdateDecorator@@@@8 ; CDynamicPoolEx<NEffectUpdateDecorator::CNullDecorator>::`RTTI Base Class Descriptor at (0,-1,0,64)'
PUBLIC	??_R4?$CDynamicPoolEx@VCTextureAnimationCWDecorator@NEffectUpdateDecorator@@@@6B@ ; CDynamicPoolEx<NEffectUpdateDecorator::CTextureAnimationCWDecorator>::`RTTI Complete Object Locator'
PUBLIC	??_R0?AV?$CDynamicPoolEx@VCTextureAnimationCWDecorator@NEffectUpdateDecorator@@@@@8 ; CDynamicPoolEx<NEffectUpdateDecorator::CTextureAnimationCWDecorator> `RTTI Type Descriptor'
PUBLIC	??_R3?$CDynamicPoolEx@VCTextureAnimationCWDecorator@NEffectUpdateDecorator@@@@8 ; CDynamicPoolEx<NEffectUpdateDecorator::CTextureAnimationCWDecorator>::`RTTI Class Hierarchy Descriptor'
PUBLIC	??_R2?$CDynamicPoolEx@VCTextureAnimationCWDecorator@NEffectUpdateDecorator@@@@8 ; CDynamicPoolEx<NEffectUpdateDecorator::CTextureAnimationCWDecorator>::`RTTI Base Class Array'
PUBLIC	??_R1A@?0A@EA@?$CDynamicPoolEx@VCTextureAnimationCWDecorator@NEffectUpdateDecorator@@@@8 ; CDynamicPoolEx<NEffectUpdateDecorator::CTextureAnimationCWDecorator>::`RTTI Base Class Descriptor at (0,-1,0,64)'
PUBLIC	??_R4?$CDynamicPoolEx@VCTextureAnimationCCWDecorator@NEffectUpdateDecorator@@@@6B@ ; CDynamicPoolEx<NEffectUpdateDecorator::CTextureAnimationCCWDecorator>::`RTTI Complete Object Locator'
PUBLIC	??_R0?AV?$CDynamicPoolEx@VCTextureAnimationCCWDecorator@NEffectUpdateDecorator@@@@@8 ; CDynamicPoolEx<NEffectUpdateDecorator::CTextureAnimationCCWDecorator> `RTTI Type Descriptor'
PUBLIC	??_R3?$CDynamicPoolEx@VCTextureAnimationCCWDecorator@NEffectUpdateDecorator@@@@8 ; CDynamicPoolEx<NEffectUpdateDecorator::CTextureAnimationCCWDecorator>::`RTTI Class Hierarchy Descriptor'
PUBLIC	??_R2?$CDynamicPoolEx@VCTextureAnimationCCWDecorator@NEffectUpdateDecorator@@@@8 ; CDynamicPoolEx<NEffectUpdateDecorator::CTextureAnimationCCWDecorator>::`RTTI Base Class Array'
PUBLIC	??_R1A@?0A@EA@?$CDynamicPoolEx@VCTextureAnimationCCWDecorator@NEffectUpdateDecorator@@@@8 ; CDynamicPoolEx<NEffectUpdateDecorator::CTextureAnimationCCWDecorator>::`RTTI Base Class Descriptor at (0,-1,0,64)'
PUBLIC	??_R4?$CDynamicPoolEx@VCTextureAnimationRandomDecorator@NEffectUpdateDecorator@@@@6B@ ; CDynamicPoolEx<NEffectUpdateDecorator::CTextureAnimationRandomDecorator>::`RTTI Complete Object Locator'
PUBLIC	??_R0?AV?$CDynamicPoolEx@VCTextureAnimationRandomDecorator@NEffectUpdateDecorator@@@@@8 ; CDynamicPoolEx<NEffectUpdateDecorator::CTextureAnimationRandomDecorator> `RTTI Type Descriptor'
PUBLIC	??_R3?$CDynamicPoolEx@VCTextureAnimationRandomDecorator@NEffectUpdateDecorator@@@@8 ; CDynamicPoolEx<NEffectUpdateDecorator::CTextureAnimationRandomDecorator>::`RTTI Class Hierarchy Descriptor'
PUBLIC	??_R2?$CDynamicPoolEx@VCTextureAnimationRandomDecorator@NEffectUpdateDecorator@@@@8 ; CDynamicPoolEx<NEffectUpdateDecorator::CTextureAnimationRandomDecorator>::`RTTI Base Class Array'
PUBLIC	??_R1A@?0A@EA@?$CDynamicPoolEx@VCTextureAnimationRandomDecorator@NEffectUpdateDecorator@@@@8 ; CDynamicPoolEx<NEffectUpdateDecorator::CTextureAnimationRandomDecorator>::`RTTI Base Class Descriptor at (0,-1,0,64)'
PUBLIC	??_R4?$CDynamicPoolEx@VCAirResistanceDecorator@NEffectUpdateDecorator@@@@6B@ ; CDynamicPoolEx<NEffectUpdateDecorator::CAirResistanceDecorator>::`RTTI Complete Object Locator'
PUBLIC	??_R0?AV?$CDynamicPoolEx@VCAirResistanceDecorator@NEffectUpdateDecorator@@@@@8 ; CDynamicPoolEx<NEffectUpdateDecorator::CAirResistanceDecorator> `RTTI Type Descriptor'
PUBLIC	??_R3?$CDynamicPoolEx@VCAirResistanceDecorator@NEffectUpdateDecorator@@@@8 ; CDynamicPoolEx<NEffectUpdateDecorator::CAirResistanceDecorator>::`RTTI Class Hierarchy Descriptor'
PUBLIC	??_R2?$CDynamicPoolEx@VCAirResistanceDecorator@NEffectUpdateDecorator@@@@8 ; CDynamicPoolEx<NEffectUpdateDecorator::CAirResistanceDecorator>::`RTTI Base Class Array'
PUBLIC	??_R1A@?0A@EA@?$CDynamicPoolEx@VCAirResistanceDecorator@NEffectUpdateDecorator@@@@8 ; CDynamicPoolEx<NEffectUpdateDecorator::CAirResistanceDecorator>::`RTTI Base Class Descriptor at (0,-1,0,64)'
PUBLIC	??_R4?$CDynamicPoolEx@VCGravityDecorator@NEffectUpdateDecorator@@@@6B@ ; CDynamicPoolEx<NEffectUpdateDecorator::CGravityDecorator>::`RTTI Complete Object Locator'
PUBLIC	??_R0?AV?$CDynamicPoolEx@VCGravityDecorator@NEffectUpdateDecorator@@@@@8 ; CDynamicPoolEx<NEffectUpdateDecorator::CGravityDecorator> `RTTI Type Descriptor'
PUBLIC	??_R3?$CDynamicPoolEx@VCGravityDecorator@NEffectUpdateDecorator@@@@8 ; CDynamicPoolEx<NEffectUpdateDecorator::CGravityDecorator>::`RTTI Class Hierarchy Descriptor'
PUBLIC	??_R2?$CDynamicPoolEx@VCGravityDecorator@NEffectUpdateDecorator@@@@8 ; CDynamicPoolEx<NEffectUpdateDecorator::CGravityDecorator>::`RTTI Base Class Array'
PUBLIC	??_R1A@?0A@EA@?$CDynamicPoolEx@VCGravityDecorator@NEffectUpdateDecorator@@@@8 ; CDynamicPoolEx<NEffectUpdateDecorator::CGravityDecorator>::`RTTI Base Class Descriptor at (0,-1,0,64)'
PUBLIC	??_R4?$CDynamicPoolEx@VCRotationDecorator@NEffectUpdateDecorator@@@@6B@ ; CDynamicPoolEx<NEffectUpdateDecorator::CRotationDecorator>::`RTTI Complete Object Locator'
PUBLIC	??_R0?AV?$CDynamicPoolEx@VCRotationDecorator@NEffectUpdateDecorator@@@@@8 ; CDynamicPoolEx<NEffectUpdateDecorator::CRotationDecorator> `RTTI Type Descriptor'
PUBLIC	??_R3?$CDynamicPoolEx@VCRotationDecorator@NEffectUpdateDecorator@@@@8 ; CDynamicPoolEx<NEffectUpdateDecorator::CRotationDecorator>::`RTTI Class Hierarchy Descriptor'
PUBLIC	??_R2?$CDynamicPoolEx@VCRotationDecorator@NEffectUpdateDecorator@@@@8 ; CDynamicPoolEx<NEffectUpdateDecorator::CRotationDecorator>::`RTTI Base Class Array'
PUBLIC	??_R1A@?0A@EA@?$CDynamicPoolEx@VCRotationDecorator@NEffectUpdateDecorator@@@@8 ; CDynamicPoolEx<NEffectUpdateDecorator::CRotationDecorator>::`RTTI Base Class Descriptor at (0,-1,0,64)'
PUBLIC	??_7?$CDynamicPoolEx@VCAirResistanceDecorator@NEffectUpdateDecorator@@@@6B@ ; CDynamicPoolEx<NEffectUpdateDecorator::CAirResistanceDecorator>::`vftable'
PUBLIC	??_G?$CDynamicPoolEx@VCAirResistanceDecorator@NEffectUpdateDecorator@@@@UAEPAXI@Z ; CDynamicPoolEx<NEffectUpdateDecorator::CAirResistanceDecorator>::`scalar deleting destructor'
PUBLIC	??_7?$CDynamicPoolEx@VCTextureAnimationRandomDecorator@NEffectUpdateDecorator@@@@6B@ ; CDynamicPoolEx<NEffectUpdateDecorator::CTextureAnimationRandomDecorator>::`vftable'
PUBLIC	??_G?$CDynamicPoolEx@VCTextureAnimationRandomDecorator@NEffectUpdateDecorator@@@@UAEPAXI@Z ; CDynamicPoolEx<NEffectUpdateDecorator::CTextureAnimationRandomDecorator>::`scalar deleting destructor'
PUBLIC	??_7?$CDynamicPoolEx@VCTextureAnimationCCWDecorator@NEffectUpdateDecorator@@@@6B@ ; CDynamicPoolEx<NEffectUpdateDecorator::CTextureAnimationCCWDecorator>::`vftable'
PUBLIC	??_G?$CDynamicPoolEx@VCTextureAnimationCCWDecorator@NEffectUpdateDecorator@@@@UAEPAXI@Z ; CDynamicPoolEx<NEffectUpdateDecorator::CTextureAnimationCCWDecorator>::`scalar deleting destructor'
PUBLIC	??_7?$CDynamicPoolEx@VCTextureAnimationCWDecorator@NEffectUpdateDecorator@@@@6B@ ; CDynamicPoolEx<NEffectUpdateDecorator::CTextureAnimationCWDecorator>::`vftable'
PUBLIC	??_G?$CDynamicPoolEx@VCTextureAnimationCWDecorator@NEffectUpdateDecorator@@@@UAEPAXI@Z ; CDynamicPoolEx<NEffectUpdateDecorator::CTextureAnimationCWDecorator>::`scalar deleting destructor'
PUBLIC	??_7?$CDynamicPoolEx@VCNullDecorator@NEffectUpdateDecorator@@@@6B@ ; CDynamicPoolEx<NEffectUpdateDecorator::CNullDecorator>::`vftable'
PUBLIC	??_G?$CDynamicPoolEx@VCNullDecorator@NEffectUpdateDecorator@@@@UAEPAXI@Z ; CDynamicPoolEx<NEffectUpdateDecorator::CNullDecorator>::`scalar deleting destructor'
PUBLIC	??_7?$CDynamicPoolEx@VCHeaderDecorator@NEffectUpdateDecorator@@@@6B@ ; CDynamicPoolEx<NEffectUpdateDecorator::CHeaderDecorator>::`vftable'
PUBLIC	??_G?$CDynamicPoolEx@VCHeaderDecorator@NEffectUpdateDecorator@@@@UAEPAXI@Z ; CDynamicPoolEx<NEffectUpdateDecorator::CHeaderDecorator>::`scalar deleting destructor'
PUBLIC	?CHAR_STAGE_VIEW_BOUND@@3HA			; CHAR_STAGE_VIEW_BOUND
EXTRN	??_E?$CDynamicPoolEx@VCRotationDecorator@NEffectUpdateDecorator@@@@UAEPAXI@Z:PROC ; CDynamicPoolEx<NEffectUpdateDecorator::CRotationDecorator>::`vector deleting destructor'
EXTRN	??_E?$CDynamicPoolEx@VCGravityDecorator@NEffectUpdateDecorator@@@@UAEPAXI@Z:PROC ; CDynamicPoolEx<NEffectUpdateDecorator::CGravityDecorator>::`vector deleting destructor'
EXTRN	??_E?$CDynamicPoolEx@VCAirResistanceDecorator@NEffectUpdateDecorator@@@@UAEPAXI@Z:PROC ; CDynamicPoolEx<NEffectUpdateDecorator::CAirResistanceDecorator>::`vector deleting destructor'
EXTRN	??_E?$CDynamicPoolEx@VCTextureAnimationRandomDecorator@NEffectUpdateDecorator@@@@UAEPAXI@Z:PROC ; CDynamicPoolEx<NEffectUpdateDecorator::CTextureAnimationRandomDecorator>::`vector deleting destructor'
EXTRN	??_E?$CDynamicPoolEx@VCTextureAnimationCCWDecorator@NEffectUpdateDecorator@@@@UAEPAXI@Z:PROC ; CDynamicPoolEx<NEffectUpdateDecorator::CTextureAnimationCCWDecorator>::`vector deleting destructor'
EXTRN	??_E?$CDynamicPoolEx@VCTextureAnimationCWDecorator@NEffectUpdateDecorator@@@@UAEPAXI@Z:PROC ; CDynamicPoolEx<NEffectUpdateDecorator::CTextureAnimationCWDecorator>::`vector deleting destructor'
EXTRN	??_E?$CDynamicPoolEx@VCNullDecorator@NEffectUpdateDecorator@@@@UAEPAXI@Z:PROC ; CDynamicPoolEx<NEffectUpdateDecorator::CNullDecorator>::`vector deleting destructor'
EXTRN	??_E?$CDynamicPoolEx@VCHeaderDecorator@NEffectUpdateDecorator@@@@UAEPAXI@Z:PROC ; CDynamicPoolEx<NEffectUpdateDecorator::CHeaderDecorator>::`vector deleting destructor'
EXTRN	??_7type_info@@6B@:QWORD			; type_info::`vftable'
_DATA	SEGMENT
?CHAR_STAGE_VIEW_BOUND@@3HA DD 04e20H			; CHAR_STAGE_VIEW_BOUND
_DATA	ENDS
;	COMDAT ??_7?$CDynamicPoolEx@VCHeaderDecorator@NEffectUpdateDecorator@@@@6B@
CONST	SEGMENT
??_7?$CDynamicPoolEx@VCHeaderDecorator@NEffectUpdateDecorator@@@@6B@ DD FLAT:??_R4?$CDynamicPoolEx@VCHeaderDecorator@NEffectUpdateDecorator@@@@6B@ ; CDynamicPoolEx<NEffectUpdateDecorator::CHeaderDecorator>::`vftable'
	DD	FLAT:??_E?$CDynamicPoolEx@VCHeaderDecorator@NEffectUpdateDecorator@@@@UAEPAXI@Z
CONST	ENDS
;	COMDAT ??_7?$CDynamicPoolEx@VCNullDecorator@NEffectUpdateDecorator@@@@6B@
CONST	SEGMENT
??_7?$CDynamicPoolEx@VCNullDecorator@NEffectUpdateDecorator@@@@6B@ DD FLAT:??_R4?$CDynamicPoolEx@VCNullDecorator@NEffectUpdateDecorator@@@@6B@ ; CDynamicPoolEx<NEffectUpdateDecorator::CNullDecorator>::`vftable'
	DD	FLAT:??_E?$CDynamicPoolEx@VCNullDecorator@NEffectUpdateDecorator@@@@UAEPAXI@Z
CONST	ENDS
;	COMDAT ??_7?$CDynamicPoolEx@VCTextureAnimationCWDecorator@NEffectUpdateDecorator@@@@6B@
CONST	SEGMENT
??_7?$CDynamicPoolEx@VCTextureAnimationCWDecorator@NEffectUpdateDecorator@@@@6B@ DD FLAT:??_R4?$CDynamicPoolEx@VCTextureAnimationCWDecorator@NEffectUpdateDecorator@@@@6B@ ; CDynamicPoolEx<NEffectUpdateDecorator::CTextureAnimationCWDecorator>::`vftable'
	DD	FLAT:??_E?$CDynamicPoolEx@VCTextureAnimationCWDecorator@NEffectUpdateDecorator@@@@UAEPAXI@Z
CONST	ENDS
;	COMDAT ??_7?$CDynamicPoolEx@VCTextureAnimationCCWDecorator@NEffectUpdateDecorator@@@@6B@
CONST	SEGMENT
??_7?$CDynamicPoolEx@VCTextureAnimationCCWDecorator@NEffectUpdateDecorator@@@@6B@ DD FLAT:??_R4?$CDynamicPoolEx@VCTextureAnimationCCWDecorator@NEffectUpdateDecorator@@@@6B@ ; CDynamicPoolEx<NEffectUpdateDecorator::CTextureAnimationCCWDecorator>::`vftable'
	DD	FLAT:??_E?$CDynamicPoolEx@VCTextureAnimationCCWDecorator@NEffectUpdateDecorator@@@@UAEPAXI@Z
CONST	ENDS
;	COMDAT ??_7?$CDynamicPoolEx@VCTextureAnimationRandomDecorator@NEffectUpdateDecorator@@@@6B@
CONST	SEGMENT
??_7?$CDynamicPoolEx@VCTextureAnimationRandomDecorator@NEffectUpdateDecorator@@@@6B@ DD FLAT:??_R4?$CDynamicPoolEx@VCTextureAnimationRandomDecorator@NEffectUpdateDecorator@@@@6B@ ; CDynamicPoolEx<NEffectUpdateDecorator::CTextureAnimationRandomDecorator>::`vftable'
	DD	FLAT:??_E?$CDynamicPoolEx@VCTextureAnimationRandomDecorator@NEffectUpdateDecorator@@@@UAEPAXI@Z
CONST	ENDS
;	COMDAT ??_7?$CDynamicPoolEx@VCAirResistanceDecorator@NEffectUpdateDecorator@@@@6B@
CONST	SEGMENT
??_7?$CDynamicPoolEx@VCAirResistanceDecorator@NEffectUpdateDecorator@@@@6B@ DD FLAT:??_R4?$CDynamicPoolEx@VCAirResistanceDecorator@NEffectUpdateDecorator@@@@6B@ ; CDynamicPoolEx<NEffectUpdateDecorator::CAirResistanceDecorator>::`vftable'
	DD	FLAT:??_E?$CDynamicPoolEx@VCAirResistanceDecorator@NEffectUpdateDecorator@@@@UAEPAXI@Z
CONST	ENDS
;	COMDAT ??_R1A@?0A@EA@?$CDynamicPoolEx@VCRotationDecorator@NEffectUpdateDecorator@@@@8
rdata$r	SEGMENT
??_R1A@?0A@EA@?$CDynamicPoolEx@VCRotationDecorator@NEffectUpdateDecorator@@@@8 DD FLAT:??_R0?AV?$CDynamicPoolEx@VCRotationDecorator@NEffectUpdateDecorator@@@@@8 ; CDynamicPoolEx<NEffectUpdateDecorator::CRotationDecorator>::`RTTI Base Class Descriptor at (0,-1,0,64)'
	DD	00H
	DD	00H
	DD	0ffffffffH
	DD	00H
	DD	040H
	DD	FLAT:??_R3?$CDynamicPoolEx@VCRotationDecorator@NEffectUpdateDecorator@@@@8
rdata$r	ENDS
;	COMDAT ??_R2?$CDynamicPoolEx@VCRotationDecorator@NEffectUpdateDecorator@@@@8
rdata$r	SEGMENT
??_R2?$CDynamicPoolEx@VCRotationDecorator@NEffectUpdateDecorator@@@@8 DD FLAT:??_R1A@?0A@EA@?$CDynamicPoolEx@VCRotationDecorator@NEffectUpdateDecorator@@@@8 ; CDynamicPoolEx<NEffectUpdateDecorator::CRotationDecorator>::`RTTI Base Class Array'
rdata$r	ENDS
;	COMDAT ??_R3?$CDynamicPoolEx@VCRotationDecorator@NEffectUpdateDecorator@@@@8
rdata$r	SEGMENT
??_R3?$CDynamicPoolEx@VCRotationDecorator@NEffectUpdateDecorator@@@@8 DD 00H ; CDynamicPoolEx<NEffectUpdateDecorator::CRotationDecorator>::`RTTI Class Hierarchy Descriptor'
	DD	00H
	DD	01H
	DD	FLAT:??_R2?$CDynamicPoolEx@VCRotationDecorator@NEffectUpdateDecorator@@@@8
rdata$r	ENDS
;	COMDAT ??_R0?AV?$CDynamicPoolEx@VCRotationDecorator@NEffectUpdateDecorator@@@@@8
data$rs	SEGMENT
??_R0?AV?$CDynamicPoolEx@VCRotationDecorator@NEffectUpdateDecorator@@@@@8 DD FLAT:??_7type_info@@6B@ ; CDynamicPoolEx<NEffectUpdateDecorator::CRotationDecorator> `RTTI Type Descriptor'
	DD	00H
	DB	'.?AV?$CDynamicPoolEx@VCRotationDecorator@NEffectUpdateDe'
	DB	'corator@@@@', 00H
data$rs	ENDS
;	COMDAT ??_R4?$CDynamicPoolEx@VCRotationDecorator@NEffectUpdateDecorator@@@@6B@
rdata$r	SEGMENT
??_R4?$CDynamicPoolEx@VCRotationDecorator@NEffectUpdateDecorator@@@@6B@ DD 00H ; CDynamicPoolEx<NEffectUpdateDecorator::CRotationDecorator>::`RTTI Complete Object Locator'
	DD	00H
	DD	00H
	DD	FLAT:??_R0?AV?$CDynamicPoolEx@VCRotationDecorator@NEffectUpdateDecorator@@@@@8
	DD	FLAT:??_R3?$CDynamicPoolEx@VCRotationDecorator@NEffectUpdateDecorator@@@@8
rdata$r	ENDS
;	COMDAT ??_R1A@?0A@EA@?$CDynamicPoolEx@VCGravityDecorator@NEffectUpdateDecorator@@@@8
rdata$r	SEGMENT
??_R1A@?0A@EA@?$CDynamicPoolEx@VCGravityDecorator@NEffectUpdateDecorator@@@@8 DD FLAT:??_R0?AV?$CDynamicPoolEx@VCGravityDecorator@NEffectUpdateDecorator@@@@@8 ; CDynamicPoolEx<NEffectUpdateDecorator::CGravityDecorator>::`RTTI Base Class Descriptor at (0,-1,0,64)'
	DD	00H
	DD	00H
	DD	0ffffffffH
	DD	00H
	DD	040H
	DD	FLAT:??_R3?$CDynamicPoolEx@VCGravityDecorator@NEffectUpdateDecorator@@@@8
rdata$r	ENDS
;	COMDAT ??_R2?$CDynamicPoolEx@VCGravityDecorator@NEffectUpdateDecorator@@@@8
rdata$r	SEGMENT
??_R2?$CDynamicPoolEx@VCGravityDecorator@NEffectUpdateDecorator@@@@8 DD FLAT:??_R1A@?0A@EA@?$CDynamicPoolEx@VCGravityDecorator@NEffectUpdateDecorator@@@@8 ; CDynamicPoolEx<NEffectUpdateDecorator::CGravityDecorator>::`RTTI Base Class Array'
rdata$r	ENDS
;	COMDAT ??_R3?$CDynamicPoolEx@VCGravityDecorator@NEffectUpdateDecorator@@@@8
rdata$r	SEGMENT
??_R3?$CDynamicPoolEx@VCGravityDecorator@NEffectUpdateDecorator@@@@8 DD 00H ; CDynamicPoolEx<NEffectUpdateDecorator::CGravityDecorator>::`RTTI Class Hierarchy Descriptor'
	DD	00H
	DD	01H
	DD	FLAT:??_R2?$CDynamicPoolEx@VCGravityDecorator@NEffectUpdateDecorator@@@@8
rdata$r	ENDS
;	COMDAT ??_R0?AV?$CDynamicPoolEx@VCGravityDecorator@NEffectUpdateDecorator@@@@@8
data$rs	SEGMENT
??_R0?AV?$CDynamicPoolEx@VCGravityDecorator@NEffectUpdateDecorator@@@@@8 DD FLAT:??_7type_info@@6B@ ; CDynamicPoolEx<NEffectUpdateDecorator::CGravityDecorator> `RTTI Type Descriptor'
	DD	00H
	DB	'.?AV?$CDynamicPoolEx@VCGravityDecorator@NEffectUpdateDec'
	DB	'orator@@@@', 00H
data$rs	ENDS
;	COMDAT ??_R4?$CDynamicPoolEx@VCGravityDecorator@NEffectUpdateDecorator@@@@6B@
rdata$r	SEGMENT
??_R4?$CDynamicPoolEx@VCGravityDecorator@NEffectUpdateDecorator@@@@6B@ DD 00H ; CDynamicPoolEx<NEffectUpdateDecorator::CGravityDecorator>::`RTTI Complete Object Locator'
	DD	00H
	DD	00H
	DD	FLAT:??_R0?AV?$CDynamicPoolEx@VCGravityDecorator@NEffectUpdateDecorator@@@@@8
	DD	FLAT:??_R3?$CDynamicPoolEx@VCGravityDecorator@NEffectUpdateDecorator@@@@8
rdata$r	ENDS
;	COMDAT ??_R1A@?0A@EA@?$CDynamicPoolEx@VCAirResistanceDecorator@NEffectUpdateDecorator@@@@8
rdata$r	SEGMENT
??_R1A@?0A@EA@?$CDynamicPoolEx@VCAirResistanceDecorator@NEffectUpdateDecorator@@@@8 DD FLAT:??_R0?AV?$CDynamicPoolEx@VCAirResistanceDecorator@NEffectUpdateDecorator@@@@@8 ; CDynamicPoolEx<NEffectUpdateDecorator::CAirResistanceDecorator>::`RTTI Base Class Descriptor at (0,-1,0,64)'
	DD	00H
	DD	00H
	DD	0ffffffffH
	DD	00H
	DD	040H
	DD	FLAT:??_R3?$CDynamicPoolEx@VCAirResistanceDecorator@NEffectUpdateDecorator@@@@8
rdata$r	ENDS
;	COMDAT ??_R2?$CDynamicPoolEx@VCAirResistanceDecorator@NEffectUpdateDecorator@@@@8
rdata$r	SEGMENT
??_R2?$CDynamicPoolEx@VCAirResistanceDecorator@NEffectUpdateDecorator@@@@8 DD FLAT:??_R1A@?0A@EA@?$CDynamicPoolEx@VCAirResistanceDecorator@NEffectUpdateDecorator@@@@8 ; CDynamicPoolEx<NEffectUpdateDecorator::CAirResistanceDecorator>::`RTTI Base Class Array'
rdata$r	ENDS
;	COMDAT ??_R3?$CDynamicPoolEx@VCAirResistanceDecorator@NEffectUpdateDecorator@@@@8
rdata$r	SEGMENT
??_R3?$CDynamicPoolEx@VCAirResistanceDecorator@NEffectUpdateDecorator@@@@8 DD 00H ; CDynamicPoolEx<NEffectUpdateDecorator::CAirResistanceDecorator>::`RTTI Class Hierarchy Descriptor'
	DD	00H
	DD	01H
	DD	FLAT:??_R2?$CDynamicPoolEx@VCAirResistanceDecorator@NEffectUpdateDecorator@@@@8
rdata$r	ENDS
;	COMDAT ??_R0?AV?$CDynamicPoolEx@VCAirResistanceDecorator@NEffectUpdateDecorator@@@@@8
data$rs	SEGMENT
??_R0?AV?$CDynamicPoolEx@VCAirResistanceDecorator@NEffectUpdateDecorator@@@@@8 DD FLAT:??_7type_info@@6B@ ; CDynamicPoolEx<NEffectUpdateDecorator::CAirResistanceDecorator> `RTTI Type Descriptor'
	DD	00H
	DB	'.?AV?$CDynamicPoolEx@VCAirResistanceDecorator@NEffectUpd'
	DB	'ateDecorator@@@@', 00H
data$rs	ENDS
;	COMDAT ??_R4?$CDynamicPoolEx@VCAirResistanceDecorator@NEffectUpdateDecorator@@@@6B@
rdata$r	SEGMENT
??_R4?$CDynamicPoolEx@VCAirResistanceDecorator@NEffectUpdateDecorator@@@@6B@ DD 00H ; CDynamicPoolEx<NEffectUpdateDecorator::CAirResistanceDecorator>::`RTTI Complete Object Locator'
	DD	00H
	DD	00H
	DD	FLAT:??_R0?AV?$CDynamicPoolEx@VCAirResistanceDecorator@NEffectUpdateDecorator@@@@@8
	DD	FLAT:??_R3?$CDynamicPoolEx@VCAirResistanceDecorator@NEffectUpdateDecorator@@@@8
rdata$r	ENDS
;	COMDAT ??_R1A@?0A@EA@?$CDynamicPoolEx@VCTextureAnimationRandomDecorator@NEffectUpdateDecorator@@@@8
rdata$r	SEGMENT
??_R1A@?0A@EA@?$CDynamicPoolEx@VCTextureAnimationRandomDecorator@NEffectUpdateDecorator@@@@8 DD FLAT:??_R0?AV?$CDynamicPoolEx@VCTextureAnimationRandomDecorator@NEffectUpdateDecorator@@@@@8 ; CDynamicPoolEx<NEffectUpdateDecorator::CTextureAnimationRandomDecorator>::`RTTI Base Class Descriptor at (0,-1,0,64)'
	DD	00H
	DD	00H
	DD	0ffffffffH
	DD	00H
	DD	040H
	DD	FLAT:??_R3?$CDynamicPoolEx@VCTextureAnimationRandomDecorator@NEffectUpdateDecorator@@@@8
rdata$r	ENDS
;	COMDAT ??_R2?$CDynamicPoolEx@VCTextureAnimationRandomDecorator@NEffectUpdateDecorator@@@@8
rdata$r	SEGMENT
??_R2?$CDynamicPoolEx@VCTextureAnimationRandomDecorator@NEffectUpdateDecorator@@@@8 DD FLAT:??_R1A@?0A@EA@?$CDynamicPoolEx@VCTextureAnimationRandomDecorator@NEffectUpdateDecorator@@@@8 ; CDynamicPoolEx<NEffectUpdateDecorator::CTextureAnimationRandomDecorator>::`RTTI Base Class Array'
rdata$r	ENDS
;	COMDAT ??_R3?$CDynamicPoolEx@VCTextureAnimationRandomDecorator@NEffectUpdateDecorator@@@@8
rdata$r	SEGMENT
??_R3?$CDynamicPoolEx@VCTextureAnimationRandomDecorator@NEffectUpdateDecorator@@@@8 DD 00H ; CDynamicPoolEx<NEffectUpdateDecorator::CTextureAnimationRandomDecorator>::`RTTI Class Hierarchy Descriptor'
	DD	00H
	DD	01H
	DD	FLAT:??_R2?$CDynamicPoolEx@VCTextureAnimationRandomDecorator@NEffectUpdateDecorator@@@@8
rdata$r	ENDS
;	COMDAT ??_R0?AV?$CDynamicPoolEx@VCTextureAnimationRandomDecorator@NEffectUpdateDecorator@@@@@8
data$rs	SEGMENT
??_R0?AV?$CDynamicPoolEx@VCTextureAnimationRandomDecorator@NEffectUpdateDecorator@@@@@8 DD FLAT:??_7type_info@@6B@ ; CDynamicPoolEx<NEffectUpdateDecorator::CTextureAnimationRandomDecorator> `RTTI Type Descriptor'
	DD	00H
	DB	'.?AV?$CDynamicPoolEx@VCTextureAnimationRandomDecorator@N'
	DB	'EffectUpdateDecorator@@@@', 00H
data$rs	ENDS
;	COMDAT ??_R4?$CDynamicPoolEx@VCTextureAnimationRandomDecorator@NEffectUpdateDecorator@@@@6B@
rdata$r	SEGMENT
??_R4?$CDynamicPoolEx@VCTextureAnimationRandomDecorator@NEffectUpdateDecorator@@@@6B@ DD 00H ; CDynamicPoolEx<NEffectUpdateDecorator::CTextureAnimationRandomDecorator>::`RTTI Complete Object Locator'
	DD	00H
	DD	00H
	DD	FLAT:??_R0?AV?$CDynamicPoolEx@VCTextureAnimationRandomDecorator@NEffectUpdateDecorator@@@@@8
	DD	FLAT:??_R3?$CDynamicPoolEx@VCTextureAnimationRandomDecorator@NEffectUpdateDecorator@@@@8
rdata$r	ENDS
;	COMDAT ??_R1A@?0A@EA@?$CDynamicPoolEx@VCTextureAnimationCCWDecorator@NEffectUpdateDecorator@@@@8
rdata$r	SEGMENT
??_R1A@?0A@EA@?$CDynamicPoolEx@VCTextureAnimationCCWDecorator@NEffectUpdateDecorator@@@@8 DD FLAT:??_R0?AV?$CDynamicPoolEx@VCTextureAnimationCCWDecorator@NEffectUpdateDecorator@@@@@8 ; CDynamicPoolEx<NEffectUpdateDecorator::CTextureAnimationCCWDecorator>::`RTTI Base Class Descriptor at (0,-1,0,64)'
	DD	00H
	DD	00H
	DD	0ffffffffH
	DD	00H
	DD	040H
	DD	FLAT:??_R3?$CDynamicPoolEx@VCTextureAnimationCCWDecorator@NEffectUpdateDecorator@@@@8
rdata$r	ENDS
;	COMDAT ??_R2?$CDynamicPoolEx@VCTextureAnimationCCWDecorator@NEffectUpdateDecorator@@@@8
rdata$r	SEGMENT
??_R2?$CDynamicPoolEx@VCTextureAnimationCCWDecorator@NEffectUpdateDecorator@@@@8 DD FLAT:??_R1A@?0A@EA@?$CDynamicPoolEx@VCTextureAnimationCCWDecorator@NEffectUpdateDecorator@@@@8 ; CDynamicPoolEx<NEffectUpdateDecorator::CTextureAnimationCCWDecorator>::`RTTI Base Class Array'
rdata$r	ENDS
;	COMDAT ??_R3?$CDynamicPoolEx@VCTextureAnimationCCWDecorator@NEffectUpdateDecorator@@@@8
rdata$r	SEGMENT
??_R3?$CDynamicPoolEx@VCTextureAnimationCCWDecorator@NEffectUpdateDecorator@@@@8 DD 00H ; CDynamicPoolEx<NEffectUpdateDecorator::CTextureAnimationCCWDecorator>::`RTTI Class Hierarchy Descriptor'
	DD	00H
	DD	01H
	DD	FLAT:??_R2?$CDynamicPoolEx@VCTextureAnimationCCWDecorator@NEffectUpdateDecorator@@@@8
rdata$r	ENDS
;	COMDAT ??_R0?AV?$CDynamicPoolEx@VCTextureAnimationCCWDecorator@NEffectUpdateDecorator@@@@@8
data$rs	SEGMENT
??_R0?AV?$CDynamicPoolEx@VCTextureAnimationCCWDecorator@NEffectUpdateDecorator@@@@@8 DD FLAT:??_7type_info@@6B@ ; CDynamicPoolEx<NEffectUpdateDecorator::CTextureAnimationCCWDecorator> `RTTI Type Descriptor'
	DD	00H
	DB	'.?AV?$CDynamicPoolEx@VCTextureAnimationCCWDecorator@NEff'
	DB	'ectUpdateDecorator@@@@', 00H
data$rs	ENDS
;	COMDAT ??_R4?$CDynamicPoolEx@VCTextureAnimationCCWDecorator@NEffectUpdateDecorator@@@@6B@
rdata$r	SEGMENT
??_R4?$CDynamicPoolEx@VCTextureAnimationCCWDecorator@NEffectUpdateDecorator@@@@6B@ DD 00H ; CDynamicPoolEx<NEffectUpdateDecorator::CTextureAnimationCCWDecorator>::`RTTI Complete Object Locator'
	DD	00H
	DD	00H
	DD	FLAT:??_R0?AV?$CDynamicPoolEx@VCTextureAnimationCCWDecorator@NEffectUpdateDecorator@@@@@8
	DD	FLAT:??_R3?$CDynamicPoolEx@VCTextureAnimationCCWDecorator@NEffectUpdateDecorator@@@@8
rdata$r	ENDS
;	COMDAT ??_R1A@?0A@EA@?$CDynamicPoolEx@VCTextureAnimationCWDecorator@NEffectUpdateDecorator@@@@8
rdata$r	SEGMENT
??_R1A@?0A@EA@?$CDynamicPoolEx@VCTextureAnimationCWDecorator@NEffectUpdateDecorator@@@@8 DD FLAT:??_R0?AV?$CDynamicPoolEx@VCTextureAnimationCWDecorator@NEffectUpdateDecorator@@@@@8 ; CDynamicPoolEx<NEffectUpdateDecorator::CTextureAnimationCWDecorator>::`RTTI Base Class Descriptor at (0,-1,0,64)'
	DD	00H
	DD	00H
	DD	0ffffffffH
	DD	00H
	DD	040H
	DD	FLAT:??_R3?$CDynamicPoolEx@VCTextureAnimationCWDecorator@NEffectUpdateDecorator@@@@8
rdata$r	ENDS
;	COMDAT ??_R2?$CDynamicPoolEx@VCTextureAnimationCWDecorator@NEffectUpdateDecorator@@@@8
rdata$r	SEGMENT
??_R2?$CDynamicPoolEx@VCTextureAnimationCWDecorator@NEffectUpdateDecorator@@@@8 DD FLAT:??_R1A@?0A@EA@?$CDynamicPoolEx@VCTextureAnimationCWDecorator@NEffectUpdateDecorator@@@@8 ; CDynamicPoolEx<NEffectUpdateDecorator::CTextureAnimationCWDecorator>::`RTTI Base Class Array'
rdata$r	ENDS
;	COMDAT ??_R3?$CDynamicPoolEx@VCTextureAnimationCWDecorator@NEffectUpdateDecorator@@@@8
rdata$r	SEGMENT
??_R3?$CDynamicPoolEx@VCTextureAnimationCWDecorator@NEffectUpdateDecorator@@@@8 DD 00H ; CDynamicPoolEx<NEffectUpdateDecorator::CTextureAnimationCWDecorator>::`RTTI Class Hierarchy Descriptor'
	DD	00H
	DD	01H
	DD	FLAT:??_R2?$CDynamicPoolEx@VCTextureAnimationCWDecorator@NEffectUpdateDecorator@@@@8
rdata$r	ENDS
;	COMDAT ??_R0?AV?$CDynamicPoolEx@VCTextureAnimationCWDecorator@NEffectUpdateDecorator@@@@@8
data$rs	SEGMENT
??_R0?AV?$CDynamicPoolEx@VCTextureAnimationCWDecorator@NEffectUpdateDecorator@@@@@8 DD FLAT:??_7type_info@@6B@ ; CDynamicPoolEx<NEffectUpdateDecorator::CTextureAnimationCWDecorator> `RTTI Type Descriptor'
	DD	00H
	DB	'.?AV?$CDynamicPoolEx@VCTextureAnimationCWDecorator@NEffe'
	DB	'ctUpdateDecorator@@@@', 00H
data$rs	ENDS
;	COMDAT ??_R4?$CDynamicPoolEx@VCTextureAnimationCWDecorator@NEffectUpdateDecorator@@@@6B@
rdata$r	SEGMENT
??_R4?$CDynamicPoolEx@VCTextureAnimationCWDecorator@NEffectUpdateDecorator@@@@6B@ DD 00H ; CDynamicPoolEx<NEffectUpdateDecorator::CTextureAnimationCWDecorator>::`RTTI Complete Object Locator'
	DD	00H
	DD	00H
	DD	FLAT:??_R0?AV?$CDynamicPoolEx@VCTextureAnimationCWDecorator@NEffectUpdateDecorator@@@@@8
	DD	FLAT:??_R3?$CDynamicPoolEx@VCTextureAnimationCWDecorator@NEffectUpdateDecorator@@@@8
rdata$r	ENDS
;	COMDAT ??_R1A@?0A@EA@?$CDynamicPoolEx@VCNullDecorator@NEffectUpdateDecorator@@@@8
rdata$r	SEGMENT
??_R1A@?0A@EA@?$CDynamicPoolEx@VCNullDecorator@NEffectUpdateDecorator@@@@8 DD FLAT:??_R0?AV?$CDynamicPoolEx@VCNullDecorator@NEffectUpdateDecorator@@@@@8 ; CDynamicPoolEx<NEffectUpdateDecorator::CNullDecorator>::`RTTI Base Class Descriptor at (0,-1,0,64)'
	DD	00H
	DD	00H
	DD	0ffffffffH
	DD	00H
	DD	040H
	DD	FLAT:??_R3?$CDynamicPoolEx@VCNullDecorator@NEffectUpdateDecorator@@@@8
rdata$r	ENDS
;	COMDAT ??_R2?$CDynamicPoolEx@VCNullDecorator@NEffectUpdateDecorator@@@@8
rdata$r	SEGMENT
??_R2?$CDynamicPoolEx@VCNullDecorator@NEffectUpdateDecorator@@@@8 DD FLAT:??_R1A@?0A@EA@?$CDynamicPoolEx@VCNullDecorator@NEffectUpdateDecorator@@@@8 ; CDynamicPoolEx<NEffectUpdateDecorator::CNullDecorator>::`RTTI Base Class Array'
rdata$r	ENDS
;	COMDAT ??_R3?$CDynamicPoolEx@VCNullDecorator@NEffectUpdateDecorator@@@@8
rdata$r	SEGMENT
??_R3?$CDynamicPoolEx@VCNullDecorator@NEffectUpdateDecorator@@@@8 DD 00H ; CDynamicPoolEx<NEffectUpdateDecorator::CNullDecorator>::`RTTI Class Hierarchy Descriptor'
	DD	00H
	DD	01H
	DD	FLAT:??_R2?$CDynamicPoolEx@VCNullDecorator@NEffectUpdateDecorator@@@@8
rdata$r	ENDS
;	COMDAT ??_R0?AV?$CDynamicPoolEx@VCNullDecorator@NEffectUpdateDecorator@@@@@8
data$rs	SEGMENT
??_R0?AV?$CDynamicPoolEx@VCNullDecorator@NEffectUpdateDecorator@@@@@8 DD FLAT:??_7type_info@@6B@ ; CDynamicPoolEx<NEffectUpdateDecorator::CNullDecorator> `RTTI Type Descriptor'
	DD	00H
	DB	'.?AV?$CDynamicPoolEx@VCNullDecorator@NEffectUpdateDecora'
	DB	'tor@@@@', 00H
data$rs	ENDS
;	COMDAT ??_R4?$CDynamicPoolEx@VCNullDecorator@NEffectUpdateDecorator@@@@6B@
rdata$r	SEGMENT
??_R4?$CDynamicPoolEx@VCNullDecorator@NEffectUpdateDecorator@@@@6B@ DD 00H ; CDynamicPoolEx<NEffectUpdateDecorator::CNullDecorator>::`RTTI Complete Object Locator'
	DD	00H
	DD	00H
	DD	FLAT:??_R0?AV?$CDynamicPoolEx@VCNullDecorator@NEffectUpdateDecorator@@@@@8
	DD	FLAT:??_R3?$CDynamicPoolEx@VCNullDecorator@NEffectUpdateDecorator@@@@8
rdata$r	ENDS
;	COMDAT ??_R1A@?0A@EA@?$CDynamicPoolEx@VCHeaderDecorator@NEffectUpdateDecorator@@@@8
rdata$r	SEGMENT
??_R1A@?0A@EA@?$CDynamicPoolEx@VCHeaderDecorator@NEffectUpdateDecorator@@@@8 DD FLAT:??_R0?AV?$CDynamicPoolEx@VCHeaderDecorator@NEffectUpdateDecorator@@@@@8 ; CDynamicPoolEx<NEffectUpdateDecorator::CHeaderDecorator>::`RTTI Base Class Descriptor at (0,-1,0,64)'
	DD	00H
	DD	00H
	DD	0ffffffffH
	DD	00H
	DD	040H
	DD	FLAT:??_R3?$CDynamicPoolEx@VCHeaderDecorator@NEffectUpdateDecorator@@@@8
rdata$r	ENDS
;	COMDAT ??_R2?$CDynamicPoolEx@VCHeaderDecorator@NEffectUpdateDecorator@@@@8
rdata$r	SEGMENT
??_R2?$CDynamicPoolEx@VCHeaderDecorator@NEffectUpdateDecorator@@@@8 DD FLAT:??_R1A@?0A@EA@?$CDynamicPoolEx@VCHeaderDecorator@NEffectUpdateDecorator@@@@8 ; CDynamicPoolEx<NEffectUpdateDecorator::CHeaderDecorator>::`RTTI Base Class Array'
rdata$r	ENDS
;	COMDAT ??_R3?$CDynamicPoolEx@VCHeaderDecorator@NEffectUpdateDecorator@@@@8
rdata$r	SEGMENT
??_R3?$CDynamicPoolEx@VCHeaderDecorator@NEffectUpdateDecorator@@@@8 DD 00H ; CDynamicPoolEx<NEffectUpdateDecorator::CHeaderDecorator>::`RTTI Class Hierarchy Descriptor'
	DD	00H
	DD	01H
	DD	FLAT:??_R2?$CDynamicPoolEx@VCHeaderDecorator@NEffectUpdateDecorator@@@@8
rdata$r	ENDS
;	COMDAT ??_R0?AV?$CDynamicPoolEx@VCHeaderDecorator@NEffectUpdateDecorator@@@@@8
data$rs	SEGMENT
??_R0?AV?$CDynamicPoolEx@VCHeaderDecorator@NEffectUpdateDecorator@@@@@8 DD FLAT:??_7type_info@@6B@ ; CDynamicPoolEx<NEffectUpdateDecorator::CHeaderDecorator> `RTTI Type Descriptor'
	DD	00H
	DB	'.?AV?$CDynamicPoolEx@VCHeaderDecorator@NEffectUpdateDeco'
	DB	'rator@@@@', 00H
data$rs	ENDS
;	COMDAT ??_R4?$CDynamicPoolEx@VCHeaderDecorator@NEffectUpdateDecorator@@@@6B@
rdata$r	SEGMENT
??_R4?$CDynamicPoolEx@VCHeaderDecorator@NEffectUpdateDecorator@@@@6B@ DD 00H ; CDynamicPoolEx<NEffectUpdateDecorator::CHeaderDecorator>::`RTTI Complete Object Locator'
	DD	00H
	DD	00H
	DD	FLAT:??_R0?AV?$CDynamicPoolEx@VCHeaderDecorator@NEffectUpdateDecorator@@@@@8
	DD	FLAT:??_R3?$CDynamicPoolEx@VCHeaderDecorator@NEffectUpdateDecorator@@@@8
rdata$r	ENDS
;	COMDAT ??_7?$CDynamicPoolEx@VCGravityDecorator@NEffectUpdateDecorator@@@@6B@
CONST	SEGMENT
??_7?$CDynamicPoolEx@VCGravityDecorator@NEffectUpdateDecorator@@@@6B@ DD FLAT:??_R4?$CDynamicPoolEx@VCGravityDecorator@NEffectUpdateDecorator@@@@6B@ ; CDynamicPoolEx<NEffectUpdateDecorator::CGravityDecorator>::`vftable'
	DD	FLAT:??_E?$CDynamicPoolEx@VCGravityDecorator@NEffectUpdateDecorator@@@@UAEPAXI@Z
CONST	ENDS
;	COMDAT ??_7?$CDynamicPoolEx@VCRotationDecorator@NEffectUpdateDecorator@@@@6B@
CONST	SEGMENT
??_7?$CDynamicPoolEx@VCRotationDecorator@NEffectUpdateDecorator@@@@6B@ DD FLAT:??_R4?$CDynamicPoolEx@VCRotationDecorator@NEffectUpdateDecorator@@@@6B@ ; CDynamicPoolEx<NEffectUpdateDecorator::CRotationDecorator>::`vftable'
	DD	FLAT:??_E?$CDynamicPoolEx@VCRotationDecorator@NEffectUpdateDecorator@@@@UAEPAXI@Z
CONST	ENDS
PUBLIC	??_H@YGXPAXIIP6EPAX0@Z@Z			; `vector constructor iterator'
PUBLIC	?__empty_global_delete@@YAXPAX@Z		; __empty_global_delete
PUBLIC	?__empty_global_delete@@YAXPAXI@Z		; __empty_global_delete
PUBLIC	___local_stdio_printf_options
PUBLIC	_sprintf
PUBLIC	??0exception@std@@QAE@ABV01@@Z			; std::exception::exception
PUBLIC	??1exception@std@@UAE@XZ			; std::exception::~exception
PUBLIC	?what@exception@std@@UBEPBDXZ			; std::exception::what
PUBLIC	??_Gexception@std@@UAEPAXI@Z			; std::exception::`scalar deleting destructor'
PUBLIC	??0bad_alloc@std@@QAE@ABV01@@Z			; std::bad_alloc::bad_alloc
PUBLIC	??_Gbad_alloc@std@@UAEPAXI@Z			; std::bad_alloc::`scalar deleting destructor'
PUBLIC	??0bad_array_new_length@std@@QAE@XZ		; std::bad_array_new_length::bad_array_new_length
PUBLIC	??1bad_array_new_length@std@@UAE@XZ		; std::bad_array_new_length::~bad_array_new_length
PUBLIC	??0bad_array_new_length@std@@QAE@ABV01@@Z	; std::bad_array_new_length::bad_array_new_length
PUBLIC	??_Gbad_array_new_length@std@@UAEPAXI@Z		; std::bad_array_new_length::`scalar deleting destructor'
PUBLIC	?_Throw_bad_array_new_length@std@@YAXXZ		; std::_Throw_bad_array_new_length
PUBLIC	?_Xlen_string@std@@YAXXZ			; std::_Xlen_string
PUBLIC	?append@?$basic_string@DU?$char_traits@D@std@@V?$allocator@D@2@@std@@QAEAAV12@QBD@Z ; std::basic_string<char,std::char_traits<char>,std::allocator<char> >::append
PUBLIC	?_Throw_tree_length_error@std@@YAXXZ		; std::_Throw_tree_length_error
PUBLIC	??$_Construct_in_place@PADABQAD@std@@YAXAAPADABQAD@Z ; std::_Construct_in_place<char *,char * const &>
PUBLIC	??$_Deallocate@$07$0A@@std@@YAXPAXI@Z		; std::_Deallocate<8,0>
PUBLIC	??$_Allocate@$07U_Default_allocate_traits@std@@$0A@@std@@YAPAXI@Z ; std::_Allocate<8,std::_Default_allocate_traits,0>
PUBLIC	??$_Allocate_manually_vector_aligned@U_Default_allocate_traits@std@@@std@@YAPAXI@Z ; std::_Allocate_manually_vector_aligned<std::_Default_allocate_traits>
PUBLIC	??1?$TAbstractSingleton@VIAbstractCharacterManager@@@@UAE@XZ ; TAbstractSingleton<IAbstractCharacterManager>::~TAbstractSingleton<IAbstractCharacterManager>
PUBLIC	??_G?$TAbstractSingleton@VIAbstractCharacterManager@@@@UAEPAXI@Z ; TAbstractSingleton<IAbstractCharacterManager>::`scalar deleting destructor'
PUBLIC	??1IAbstractCharacterManager@@UAE@XZ		; IAbstractCharacterManager::~IAbstractCharacterManager
PUBLIC	??_GIAbstractCharacterManager@@UAEPAXI@Z	; IAbstractCharacterManager::`scalar deleting destructor'
PUBLIC	??1IObjectManager@@UAE@XZ			; IObjectManager::~IObjectManager
PUBLIC	??_GIObjectManager@@UAEPAXI@Z			; IObjectManager::`scalar deleting destructor'
PUBLIC	??1?$CSingleton@VCPythonCharacterManager@@@@UAE@XZ ; CSingleton<CPythonCharacterManager>::~CSingleton<CPythonCharacterManager>
PUBLIC	??_G?$CSingleton@VCPythonCharacterManager@@@@UAEPAXI@Z ; CSingleton<CPythonCharacterManager>::`scalar deleting destructor'
PUBLIC	??0CPythonCharacterManager@@QAE@XZ		; CPythonCharacterManager::CPythonCharacterManager
PUBLIC	??1CPythonCharacterManager@@UAE@XZ		; CPythonCharacterManager::~CPythonCharacterManager
PUBLIC	?AdjustCollisionWithOtherObjects@CPythonCharacterManager@@UAEXPAVCActorInstance@@@Z ; CPythonCharacterManager::AdjustCollisionWithOtherObjects
PUBLIC	?EnableSortRendering@CPythonCharacterManager@@QAEX_N@Z ; CPythonCharacterManager::EnableSortRendering
PUBLIC	?IsRegisteredVID@CPythonCharacterManager@@QAE_NK@Z ; CPythonCharacterManager::IsRegisteredVID
PUBLIC	?IsAliveVID@CPythonCharacterManager@@QAE_NK@Z	; CPythonCharacterManager::IsAliveVID
PUBLIC	?IsDeadVID@CPythonCharacterManager@@QAE_NK@Z	; CPythonCharacterManager::IsDeadVID
PUBLIC	?IsCacheMode@CPythonCharacterManager@@QAE_NXZ	; CPythonCharacterManager::IsCacheMode
PUBLIC	?OLD_GetPickedInstanceVID@CPythonCharacterManager@@QAE_NPAK@Z ; CPythonCharacterManager::OLD_GetPickedInstanceVID
PUBLIC	?OLD_GetPickedInstancePtr@CPythonCharacterManager@@QAEPAVCInstanceBase@@XZ ; CPythonCharacterManager::OLD_GetPickedInstancePtr
PUBLIC	?OLD_GetPickedInstPosReference@CPythonCharacterManager@@QAEAAUD3DXVECTOR2@@XZ ; CPythonCharacterManager::OLD_GetPickedInstPosReference
PUBLIC	?FindClickableInstancePtr@CPythonCharacterManager@@QAEPAVCInstanceBase@@XZ ; CPythonCharacterManager::FindClickableInstancePtr
PUBLIC	?InsertPVPKey@CPythonCharacterManager@@QAEXKK@Z	; CPythonCharacterManager::InsertPVPKey
PUBLIC	?RemovePVPKey@CPythonCharacterManager@@QAEXKK@Z	; CPythonCharacterManager::RemovePVPKey
PUBLIC	?ChangeGVG@CPythonCharacterManager@@QAEXKK@Z	; CPythonCharacterManager::ChangeGVG
PUBLIC	?GetInfo@CPythonCharacterManager@@QAEXPAV?$basic_string@DU?$char_traits@D@std@@V?$allocator@D@2@@std@@@Z ; CPythonCharacterManager::GetInfo
PUBLIC	?ClearMainInstance@CPythonCharacterManager@@QAEXXZ ; CPythonCharacterManager::ClearMainInstance
PUBLIC	?SetMainInstance@CPythonCharacterManager@@QAE_NK@Z ; CPythonCharacterManager::SetMainInstance
PUBLIC	?GetMainInstancePtr@CPythonCharacterManager@@QAEPAVCInstanceBase@@XZ ; CPythonCharacterManager::GetMainInstancePtr
PUBLIC	?ShowPointEffect@CPythonCharacterManager@@QAEXKK@Z ; CPythonCharacterManager::ShowPointEffect
PUBLIC	?RegisterPointEffect@CPythonCharacterManager@@QAE_NKPBD@Z ; CPythonCharacterManager::RegisterPointEffect
PUBLIC	?Destroy@CPythonCharacterManager@@UAEXXZ	; CPythonCharacterManager::Destroy
PUBLIC	?DeleteAllInstances@CPythonCharacterManager@@QAEXXZ ; CPythonCharacterManager::DeleteAllInstances
PUBLIC	?Update@CPythonCharacterManager@@QAEXXZ		; CPythonCharacterManager::Update
PUBLIC	?Deform@CPythonCharacterManager@@QAEXXZ		; CPythonCharacterManager::Deform
PUBLIC	?Render@CPythonCharacterManager@@QAEXXZ		; CPythonCharacterManager::Render
PUBLIC	?RenderShadowMainInstance@CPythonCharacterManager@@QAEXXZ ; CPythonCharacterManager::RenderShadowMainInstance
PUBLIC	?RenderShadowAllInstances@CPythonCharacterManager@@QAEXXZ ; CPythonCharacterManager::RenderShadowAllInstances
PUBLIC	?RenderCollision@CPythonCharacterManager@@QAEXXZ ; CPythonCharacterManager::RenderCollision
PUBLIC	?CreateInstance@CPythonCharacterManager@@QAEPAVCInstanceBase@@ABUSCreateData@2@@Z ; CPythonCharacterManager::CreateInstance
PUBLIC	?RegisterInstance@CPythonCharacterManager@@QAEPAVCInstanceBase@@K@Z ; CPythonCharacterManager::RegisterInstance
PUBLIC	?DeleteInstance@CPythonCharacterManager@@QAEXK@Z ; CPythonCharacterManager::DeleteInstance
PUBLIC	?DeleteInstanceByFade@CPythonCharacterManager@@QAEXK@Z ; CPythonCharacterManager::DeleteInstanceByFade
PUBLIC	?DestroyAliveInstanceMap@CPythonCharacterManager@@QAEXXZ ; CPythonCharacterManager::DestroyAliveInstanceMap
PUBLIC	?DestroyDeadInstanceList@CPythonCharacterManager@@QAEXXZ ; CPythonCharacterManager::DestroyDeadInstanceList
PUBLIC	?SelectInstance@CPythonCharacterManager@@QAEXK@Z ; CPythonCharacterManager::SelectInstance
PUBLIC	?GetSelectedInstancePtr@CPythonCharacterManager@@QAEPAVCInstanceBase@@XZ ; CPythonCharacterManager::GetSelectedInstancePtr
PUBLIC	?GetInstancePtr@CPythonCharacterManager@@UAEPAVCInstanceBase@@K@Z ; CPythonCharacterManager::GetInstancePtr
PUBLIC	?GetInstancePtrByName@CPythonCharacterManager@@QAEPAVCInstanceBase@@PBD@Z ; CPythonCharacterManager::GetInstancePtrByName
PUBLIC	?PickAll@CPythonCharacterManager@@QAEHXZ	; CPythonCharacterManager::PickAll
PUBLIC	?GetCloseInstance@CPythonCharacterManager@@QAEPAVCInstanceBase@@PAV2@@Z ; CPythonCharacterManager::GetCloseInstance
PUBLIC	?RefreshAllPCTextTail@CPythonCharacterManager@@QAEXXZ ; CPythonCharacterManager::RefreshAllPCTextTail
PUBLIC	?RefreshAllGuildMark@CPythonCharacterManager@@QAEXXZ ; CPythonCharacterManager::RefreshAllGuildMark
PUBLIC	?UpdateTransform@CPythonCharacterManager@@IAEXXZ ; CPythonCharacterManager::UpdateTransform
PUBLIC	?UpdateDeleting@CPythonCharacterManager@@IAEXXZ	; CPythonCharacterManager::UpdateDeleting
PUBLIC	?__Initialize@CPythonCharacterManager@@IAEXXZ	; CPythonCharacterManager::__Initialize
PUBLIC	?__DeleteBlendOutInstance@CPythonCharacterManager@@IAEXPAVCInstanceBase@@@Z ; CPythonCharacterManager::__DeleteBlendOutInstance
PUBLIC	?__OLD_Pick@CPythonCharacterManager@@IAEXXZ	; CPythonCharacterManager::__OLD_Pick
PUBLIC	?__NEW_Pick@CPythonCharacterManager@@IAEXXZ	; CPythonCharacterManager::__NEW_Pick
PUBLIC	?__UpdateSortPickedActorList@CPythonCharacterManager@@IAEXXZ ; CPythonCharacterManager::__UpdateSortPickedActorList
PUBLIC	?__UpdatePickedActorList@CPythonCharacterManager@@IAEXXZ ; CPythonCharacterManager::__UpdatePickedActorList
PUBLIC	?__SortPickedActorList@CPythonCharacterManager@@IAEXXZ ; CPythonCharacterManager::__SortPickedActorList
PUBLIC	?__RenderSortedAliveActorList@CPythonCharacterManager@@IAEXXZ ; CPythonCharacterManager::__RenderSortedAliveActorList
PUBLIC	?__RenderSortedDeadActorList@CPythonCharacterManager@@IAEXXZ ; CPythonCharacterManager::__RenderSortedDeadActorList
PUBLIC	??1?$_Tree@V?$_Tmap_traits@KPAVCInstanceBase@@U?$less@K@std@@V?$allocator@U?$pair@$$CBKPAVCInstanceBase@@@std@@@3@$0A@@std@@@std@@QAE@XZ ; std::_Tree<std::_Tmap_traits<unsigned long,CInstanceBase *,std::less<unsigned long>,std::allocator<std::pair<unsigned long const ,CInstanceBase *> >,0> >::~_Tree<std::_Tmap_traits<unsigned long,CInstanceBase *,std::less<unsigned long>,std::allocator<std::pair<unsigned long const ,CInstanceBase *> >,0> >
PUBLIC	?_Lrotate@?$_Tree_val@U?$_Tree_simple_types@U?$pair@$$CBKPAVCInstanceBase@@@std@@@std@@@std@@QAEXPAU?$_Tree_node@U?$pair@$$CBKPAVCInstanceBase@@@std@@PAX@2@@Z ; std::_Tree_val<std::_Tree_simple_types<std::pair<unsigned long const ,CInstanceBase *> > >::_Lrotate
PUBLIC	?_Rrotate@?$_Tree_val@U?$_Tree_simple_types@U?$pair@$$CBKPAVCInstanceBase@@@std@@@std@@@std@@QAEXPAU?$_Tree_node@U?$pair@$$CBKPAVCInstanceBase@@@std@@PAX@2@@Z ; std::_Tree_val<std::_Tree_simple_types<std::pair<unsigned long const ,CInstanceBase *> > >::_Rrotate
PUBLIC	?_Extract@?$_Tree_val@U?$_Tree_simple_types@U?$pair@$$CBKPAVCInstanceBase@@@std@@@std@@@std@@QAEPAU?$_Tree_node@U?$pair@$$CBKPAVCInstanceBase@@@std@@PAX@2@V?$_Tree_unchecked_const_iterator@V?$_Tree_val@U?$_Tree_simple_types@U?$pair@$$CBKPAVCInstanceBase@@@std@@@std@@@std@@U_Iterator_base0@2@@2@@Z ; std::_Tree_val<std::_Tree_simple_types<std::pair<unsigned long const ,CInstanceBase *> > >::_Extract
PUBLIC	?_Insert_node@?$_Tree_val@U?$_Tree_simple_types@U?$pair@$$CBKPAVCInstanceBase@@@std@@@std@@@std@@QAEPAU?$_Tree_node@U?$pair@$$CBKPAVCInstanceBase@@@std@@PAX@2@U?$_Tree_id@PAU?$_Tree_node@U?$pair@$$CBKPAVCInstanceBase@@@std@@PAX@std@@@2@QAU32@@Z ; std::_Tree_val<std::_Tree_simple_types<std::pair<unsigned long const ,CInstanceBase *> > >::_Insert_node
PUBLIC	??1?$map@KPAVCInstanceBase@@U?$less@K@std@@V?$allocator@U?$pair@$$CBKPAVCInstanceBase@@@std@@@3@@std@@QAE@XZ ; std::map<unsigned long,CInstanceBase *,std::less<unsigned long>,std::allocator<std::pair<unsigned long const ,CInstanceBase *> > >::~map<unsigned long,CInstanceBase *,std::less<unsigned long>,std::allocator<std::pair<unsigned long const ,CInstanceBase *> > >
PUBLIC	?_Xlength@?$vector@PAVCInstanceBase@@V?$allocator@PAVCInstanceBase@@@std@@@std@@CAXXZ ; std::vector<CInstanceBase *,std::allocator<CInstanceBase *> >::_Xlength
PUBLIC	??E?$_Tree_unchecked_const_iterator@V?$_Tree_val@U?$_Tree_simple_types@U?$pair@$$CBKPAVCInstanceBase@@@std@@@std@@@std@@U_Iterator_base0@2@@std@@QAEAAV01@XZ ; std::_Tree_unchecked_const_iterator<std::_Tree_val<std::_Tree_simple_types<std::pair<unsigned long const ,CInstanceBase *> > >,std::_Iterator_base0>::operator++
PUBLIC	??_GCPythonCharacterManager@@UAEPAXI@Z		; CPythonCharacterManager::`scalar deleting destructor'
PUBLIC	??$_Emplace_reallocate@ABQAVCInstanceBase@@@?$vector@PAVCInstanceBase@@V?$allocator@PAVCInstanceBase@@@std@@@std@@QAEPAPAVCInstanceBase@@QAPAV2@ABQAV2@@Z ; std::vector<CInstanceBase *,std::allocator<CInstanceBase *> >::_Emplace_reallocate<CInstanceBase * const &>
PUBLIC	??$_Erase_tree@V?$allocator@U?$_Tree_node@U?$pair@$$CBKPAVCInstanceBase@@@std@@PAX@std@@@std@@@?$_Tree_val@U?$_Tree_simple_types@U?$pair@$$CBKPAVCInstanceBase@@@std@@@std@@@std@@QAEXAAV?$allocator@U?$_Tree_node@U?$pair@$$CBKPAVCInstanceBase@@@std@@PAX@std@@@1@PAU?$_Tree_node@U?$pair@$$CBKPAVCInstanceBase@@@std@@PAX@1@@Z ; std::_Tree_val<std::_Tree_simple_types<std::pair<unsigned long const ,CInstanceBase *> > >::_Erase_tree<std::allocator<std::_Tree_node<std::pair<unsigned long const ,CInstanceBase *>,void *> > >
PUBLIC	??1?$CDynamicPoolEx@VCRotationDecorator@NEffectUpdateDecorator@@@@UAE@XZ ; CDynamicPoolEx<NEffectUpdateDecorator::CRotationDecorator>::~CDynamicPoolEx<NEffectUpdateDecorator::CRotationDecorator>
PUBLIC	?Delete@?$CDynamicPoolEx@VCRotationDecorator@NEffectUpdateDecorator@@@@KAXPAVCRotationDecorator@NEffectUpdateDecorator@@@Z ; CDynamicPoolEx<NEffectUpdateDecorator::CRotationDecorator>::Delete
PUBLIC	??1?$CDynamicPoolEx@VCGravityDecorator@NEffectUpdateDecorator@@@@UAE@XZ ; CDynamicPoolEx<NEffectUpdateDecorator::CGravityDecorator>::~CDynamicPoolEx<NEffectUpdateDecorator::CGravityDecorator>
PUBLIC	?Delete@?$CDynamicPoolEx@VCGravityDecorator@NEffectUpdateDecorator@@@@KAXPAVCGravityDecorator@NEffectUpdateDecorator@@@Z ; CDynamicPoolEx<NEffectUpdateDecorator::CGravityDecorator>::Delete
PUBLIC	??1?$CDynamicPoolEx@VCAirResistanceDecorator@NEffectUpdateDecorator@@@@UAE@XZ ; CDynamicPoolEx<NEffectUpdateDecorator::CAirResistanceDecorator>::~CDynamicPoolEx<NEffectUpdateDecorator::CAirResistanceDecorator>
PUBLIC	?Delete@?$CDynamicPoolEx@VCAirResistanceDecorator@NEffectUpdateDecorator@@@@KAXPAVCAirResistanceDecorator@NEffectUpdateDecorator@@@Z ; CDynamicPoolEx<NEffectUpdateDecorator::CAirResistanceDecorator>::Delete
PUBLIC	??1?$CDynamicPoolEx@VCTextureAnimationRandomDecorator@NEffectUpdateDecorator@@@@UAE@XZ ; CDynamicPoolEx<NEffectUpdateDecorator::CTextureAnimationRandomDecorator>::~CDynamicPoolEx<NEffectUpdateDecorator::CTextureAnimationRandomDecorator>
PUBLIC	?Delete@?$CDynamicPoolEx@VCTextureAnimationRandomDecorator@NEffectUpdateDecorator@@@@KAXPAVCTextureAnimationRandomDecorator@NEffectUpdateDecorator@@@Z ; CDynamicPoolEx<NEffectUpdateDecorator::CTextureAnimationRandomDecorator>::Delete
PUBLIC	??1?$CDynamicPoolEx@VCTextureAnimationCCWDecorator@NEffectUpdateDecorator@@@@UAE@XZ ; CDynamicPoolEx<NEffectUpdateDecorator::CTextureAnimationCCWDecorator>::~CDynamicPoolEx<NEffectUpdateDecorator::CTextureAnimationCCWDecorator>
PUBLIC	?Delete@?$CDynamicPoolEx@VCTextureAnimationCCWDecorator@NEffectUpdateDecorator@@@@KAXPAVCTextureAnimationCCWDecorator@NEffectUpdateDecorator@@@Z ; CDynamicPoolEx<NEffectUpdateDecorator::CTextureAnimationCCWDecorator>::Delete
PUBLIC	??1?$CDynamicPoolEx@VCTextureAnimationCWDecorator@NEffectUpdateDecorator@@@@UAE@XZ ; CDynamicPoolEx<NEffectUpdateDecorator::CTextureAnimationCWDecorator>::~CDynamicPoolEx<NEffectUpdateDecorator::CTextureAnimationCWDecorator>
PUBLIC	?Delete@?$CDynamicPoolEx@VCTextureAnimationCWDecorator@NEffectUpdateDecorator@@@@KAXPAVCTextureAnimationCWDecorator@NEffectUpdateDecorator@@@Z ; CDynamicPoolEx<NEffectUpdateDecorator::CTextureAnimationCWDecorator>::Delete
PUBLIC	??1?$CDynamicPoolEx@VCNullDecorator@NEffectUpdateDecorator@@@@UAE@XZ ; CDynamicPoolEx<NEffectUpdateDecorator::CNullDecorator>::~CDynamicPoolEx<NEffectUpdateDecorator::CNullDecorator>
PUBLIC	?Delete@?$CDynamicPoolEx@VCNullDecorator@NEffectUpdateDecorator@@@@KAXPAVCNullDecorator@NEffectUpdateDecorator@@@Z ; CDynamicPoolEx<NEffectUpdateDecorator::CNullDecorator>::Delete
PUBLIC	??1?$CDynamicPoolEx@VCHeaderDecorator@NEffectUpdateDecorator@@@@UAE@XZ ; CDynamicPoolEx<NEffectUpdateDecorator::CHeaderDecorator>::~CDynamicPoolEx<NEffectUpdateDecorator::CHeaderDecorator>
PUBLIC	?Delete@?$CDynamicPoolEx@VCHeaderDecorator@NEffectUpdateDecorator@@@@KAXPAVCHeaderDecorator@NEffectUpdateDecorator@@@Z ; CDynamicPoolEx<NEffectUpdateDecorator::CHeaderDecorator>::Delete
PUBLIC	??$_Destroy_range@V?$allocator@PAVCInstanceBase@@@std@@@std@@YAXPAPAVCInstanceBase@@QAPAV1@AAV?$allocator@PAVCInstanceBase@@@0@@Z ; std::_Destroy_range<std::allocator<CInstanceBase *> >
PUBLIC	??$_Construct_in_place@PAU?$_List_node@PAVCInstanceBase@@PAX@std@@AAPAU12@@std@@YAXAAPAU?$_List_node@PAVCInstanceBase@@PAX@0@0@Z ; std::_Construct_in_place<std::_List_node<CInstanceBase *,void *> *,std::_List_node<CInstanceBase *,void *> * &>
PUBLIC	??$_Destroy_range@V?$allocator@PAVCHeaderDecorator@NEffectUpdateDecorator@@@std@@@std@@YAXPAPAVCHeaderDecorator@NEffectUpdateDecorator@@QAPAV12@AAV?$allocator@PAVCHeaderDecorator@NEffectUpdateDecorator@@@0@@Z ; std::_Destroy_range<std::allocator<NEffectUpdateDecorator::CHeaderDecorator *> >
PUBLIC	??$_Destroy_range@V?$allocator@PAVCNullDecorator@NEffectUpdateDecorator@@@std@@@std@@YAXPAPAVCNullDecorator@NEffectUpdateDecorator@@QAPAV12@AAV?$allocator@PAVCNullDecorator@NEffectUpdateDecorator@@@0@@Z ; std::_Destroy_range<std::allocator<NEffectUpdateDecorator::CNullDecorator *> >
PUBLIC	??$_Destroy_range@V?$allocator@PAVCTextureAnimationCWDecorator@NEffectUpdateDecorator@@@std@@@std@@YAXPAPAVCTextureAnimationCWDecorator@NEffectUpdateDecorator@@QAPAV12@AAV?$allocator@PAVCTextureAnimationCWDecorator@NEffectUpdateDecorator@@@0@@Z ; std::_Destroy_range<std::allocator<NEffectUpdateDecorator::CTextureAnimationCWDecorator *> >
PUBLIC	??$_Destroy_range@V?$allocator@PAVCTextureAnimationCCWDecorator@NEffectUpdateDecorator@@@std@@@std@@YAXPAPAVCTextureAnimationCCWDecorator@NEffectUpdateDecorator@@QAPAV12@AAV?$allocator@PAVCTextureAnimationCCWDecorator@NEffectUpdateDecorator@@@0@@Z ; std::_Destroy_range<std::allocator<NEffectUpdateDecorator::CTextureAnimationCCWDecorator *> >
PUBLIC	??$_Destroy_range@V?$allocator@PAVCTextureAnimationRandomDecorator@NEffectUpdateDecorator@@@std@@@std@@YAXPAPAVCTextureAnimationRandomDecorator@NEffectUpdateDecorator@@QAPAV12@AAV?$allocator@PAVCTextureAnimationRandomDecorator@NEffectUpdateDecorator@@@0@@Z ; std::_Destroy_range<std::allocator<NEffectUpdateDecorator::CTextureAnimationRandomDecorator *> >
PUBLIC	??$_Destroy_range@V?$allocator@PAVCAirResistanceDecorator@NEffectUpdateDecorator@@@std@@@std@@YAXPAPAVCAirResistanceDecorator@NEffectUpdateDecorator@@QAPAV12@AAV?$allocator@PAVCAirResistanceDecorator@NEffectUpdateDecorator@@@0@@Z ; std::_Destroy_range<std::allocator<NEffectUpdateDecorator::CAirResistanceDecorator *> >
PUBLIC	??$_Destroy_range@V?$allocator@PAVCGravityDecorator@NEffectUpdateDecorator@@@std@@@std@@YAXPAPAVCGravityDecorator@NEffectUpdateDecorator@@QAPAV12@AAV?$allocator@PAVCGravityDecorator@NEffectUpdateDecorator@@@0@@Z ; std::_Destroy_range<std::allocator<NEffectUpdateDecorator::CGravityDecorator *> >
PUBLIC	??$_Destroy_range@V?$allocator@PAVCRotationDecorator@NEffectUpdateDecorator@@@std@@@std@@YAXPAPAVCRotationDecorator@NEffectUpdateDecorator@@QAPAV12@AAV?$allocator@PAVCRotationDecorator@NEffectUpdateDecorator@@@0@@Z ; std::_Destroy_range<std::allocator<NEffectUpdateDecorator::CRotationDecorator *> >
PUBLIC	??$_Sort_unchecked@PAPAVCInstanceBase@@ULessCharacterInstancePtrRenderOrder@@@std@@YAXPAPAVCInstanceBase@@0HULessCharacterInstancePtrRenderOrder@@@Z ; std::_Sort_unchecked<CInstanceBase * *,LessCharacterInstancePtrRenderOrder>
PUBLIC	??$_Sort_unchecked@PAPAVCInstanceBase@@U?$_Ref_fn@UCInstanceBase_SLessCameraDistance@@@std@@@std@@YAXPAPAVCInstanceBase@@0HU?$_Ref_fn@UCInstanceBase_SLessCameraDistance@@@0@@Z ; std::_Sort_unchecked<CInstanceBase * *,std::_Ref_fn<CInstanceBase_SLessCameraDistance> >
PUBLIC	??1?$_Alloc_construct_ptr@V?$allocator@U?$_List_node@PAVCInstanceBase@@PAX@std@@@std@@@std@@QAE@XZ ; std::_Alloc_construct_ptr<std::allocator<std::_List_node<CInstanceBase *,void *> > >::~_Alloc_construct_ptr<std::allocator<std::_List_node<CInstanceBase *,void *> > >
PUBLIC	??$_Find_lower_bound@K@?$_Tree@V?$_Tmap_traits@KPAVCInstanceBase@@U?$less@K@std@@V?$allocator@U?$pair@$$CBKPAVCInstanceBase@@@std@@@3@$0A@@std@@@std@@IBE?AU?$_Tree_find_result@PAU?$_Tree_node@U?$pair@$$CBKPAVCInstanceBase@@@std@@PAX@std@@@1@ABK@Z ; std::_Tree<std::_Tmap_traits<unsigned long,CInstanceBase *,std::less<unsigned long>,std::allocator<std::pair<unsigned long const ,CInstanceBase *> >,0> >::_Find_lower_bound<unsigned long>
PUBLIC	??$_Destroy_in_place@PAU?$_List_node@PAVCInstanceBase@@PAX@std@@@std@@YAXAAPAU?$_List_node@PAVCInstanceBase@@PAX@0@@Z ; std::_Destroy_in_place<std::_List_node<CInstanceBase *,void *> *>
PUBLIC	??$_Construct_in_place@PAU?$_Tree_node@U?$pair@$$CBKPAVCInstanceBase@@@std@@PAX@std@@ABQAU12@@std@@YAXAAPAU?$_Tree_node@U?$pair@$$CBKPAVCInstanceBase@@@std@@PAX@0@ABQAU10@@Z ; std::_Construct_in_place<std::_Tree_node<std::pair<unsigned long const ,CInstanceBase *>,void *> *,std::_Tree_node<std::pair<unsigned long const ,CInstanceBase *>,void *> * const &>
PUBLIC	??$_Construct_in_place@PAU?$_List_node@PAVCInstanceBase@@PAX@std@@ABQAU12@@std@@YAXAAPAU?$_List_node@PAVCInstanceBase@@PAX@0@ABQAU10@@Z ; std::_Construct_in_place<std::_List_node<CInstanceBase *,void *> *,std::_List_node<CInstanceBase *,void *> * const &>
PUBLIC	??$_Uninitialized_move@PAPAVCInstanceBase@@V?$allocator@PAVCInstanceBase@@@std@@@std@@YAPAPAVCInstanceBase@@QAPAV1@0PAPAV1@AAV?$allocator@PAVCInstanceBase@@@0@@Z ; std::_Uninitialized_move<CInstanceBase * *,std::allocator<CInstanceBase *> >
PUBLIC	??$_Partition_by_median_guess_unchecked@PAPAVCInstanceBase@@ULessCharacterInstancePtrRenderOrder@@@std@@YA?AU?$pair@PAPAVCInstanceBase@@PAPAV1@@0@PAPAVCInstanceBase@@0ULessCharacterInstancePtrRenderOrder@@@Z ; std::_Partition_by_median_guess_unchecked<CInstanceBase * *,LessCharacterInstancePtrRenderOrder>
PUBLIC	??1?$_Alloc_construct_ptr@V?$allocator@U?$_Tree_node@U?$pair@$$CBKPAVCInstanceBase@@@std@@PAX@std@@@std@@@std@@QAE@XZ ; std::_Alloc_construct_ptr<std::allocator<std::_Tree_node<std::pair<unsigned long const ,CInstanceBase *>,void *> > >::~_Alloc_construct_ptr<std::allocator<std::_Tree_node<std::pair<unsigned long const ,CInstanceBase *>,void *> > >
PUBLIC	??$_Partition_by_median_guess_unchecked@PAPAVCInstanceBase@@U?$_Ref_fn@UCInstanceBase_SLessCameraDistance@@@std@@@std@@YA?AU?$pair@PAPAVCInstanceBase@@PAPAV1@@0@PAPAVCInstanceBase@@0U?$_Ref_fn@UCInstanceBase_SLessCameraDistance@@@0@@Z ; std::_Partition_by_median_guess_unchecked<CInstanceBase * *,std::_Ref_fn<CInstanceBase_SLessCameraDistance> >
PUBLIC	??$_Destroy_in_place@PAU?$_Tree_node@U?$pair@$$CBKPAVCInstanceBase@@@std@@PAX@std@@@std@@YAXAAPAU?$_Tree_node@U?$pair@$$CBKPAVCInstanceBase@@@std@@PAX@0@@Z ; std::_Destroy_in_place<std::_Tree_node<std::pair<unsigned long const ,CInstanceBase *>,void *> *>
PUBLIC	??$_Copy_memmove@PAPAVCInstanceBase@@PAPAV1@@std@@YAPAPAVCInstanceBase@@PAPAV1@00@Z ; std::_Copy_memmove<CInstanceBase * *,CInstanceBase * *>
PUBLIC	??$_Refancy@PAPAVCInstanceBase@@$0A@@std@@YAPAPAVCInstanceBase@@PAPAV1@@Z ; std::_Refancy<CInstanceBase * *,0>
PUBLIC	??$_Pop_heap_hole_by_index@PAPAVCInstanceBase@@PAV1@ULessCharacterInstancePtrRenderOrder@@@std@@YAXPAPAVCInstanceBase@@HH$$QAPAV1@ULessCharacterInstancePtrRenderOrder@@@Z ; std::_Pop_heap_hole_by_index<CInstanceBase * *,CInstanceBase *,LessCharacterInstancePtrRenderOrder>
PUBLIC	??$_Guess_median_unchecked@PAPAVCInstanceBase@@ULessCharacterInstancePtrRenderOrder@@@std@@YAXPAPAVCInstanceBase@@00ULessCharacterInstancePtrRenderOrder@@@Z ; std::_Guess_median_unchecked<CInstanceBase * *,LessCharacterInstancePtrRenderOrder>
PUBLIC	??$_Construct_in_place@PAU?$_Tree_node@U?$pair@$$CBKPAVCInstanceBase@@@std@@PAX@std@@AAPAU12@@std@@YAXAAPAU?$_Tree_node@U?$pair@$$CBKPAVCInstanceBase@@@std@@PAX@0@0@Z ; std::_Construct_in_place<std::_Tree_node<std::pair<unsigned long const ,CInstanceBase *>,void *> *,std::_Tree_node<std::pair<unsigned long const ,CInstanceBase *>,void *> * &>
PUBLIC	??$_Pop_heap_hole_by_index@PAPAVCInstanceBase@@PAV1@U?$_Ref_fn@UCInstanceBase_SLessCameraDistance@@@std@@@std@@YAXPAPAVCInstanceBase@@HH$$QAPAV1@U?$_Ref_fn@UCInstanceBase_SLessCameraDistance@@@0@@Z ; std::_Pop_heap_hole_by_index<CInstanceBase * *,CInstanceBase *,std::_Ref_fn<CInstanceBase_SLessCameraDistance> >
PUBLIC	??$_Copy_backward_memmove@PAPAVCInstanceBase@@PAPAV1@@std@@YAPAPAVCInstanceBase@@PAPAV1@00@Z ; std::_Copy_backward_memmove<CInstanceBase * *,CInstanceBase * *>
PUBLIC	??$_Med3_unchecked@PAPAVCInstanceBase@@U?$_Ref_fn@UCInstanceBase_SLessCameraDistance@@@std@@@std@@YAXPAPAVCInstanceBase@@00U?$_Ref_fn@UCInstanceBase_SLessCameraDistance@@@0@@Z ; std::_Med3_unchecked<CInstanceBase * *,std::_Ref_fn<CInstanceBase_SLessCameraDistance> >
PUBLIC	??_ECPythonCharacterManager@@W3AEPAXI@Z		; [thunk]:CPythonCharacterManager::`vector deleting destructor'
PUBLIC	??_ECPythonCharacterManager@@W7AEPAXI@Z		; [thunk]:CPythonCharacterManager::`vector deleting destructor'
PUBLIC	?_OptionsStorage@?1??__local_stdio_printf_options@@9@4_KA ; `__local_stdio_printf_options'::`2'::_OptionsStorage
PUBLIC	??_7exception@std@@6B@				; std::exception::`vftable'
PUBLIC	??_C@_0BC@EOODALEL@Unknown?5exception@		; `string'
PUBLIC	??_7bad_alloc@std@@6B@				; std::bad_alloc::`vftable'
PUBLIC	??_7bad_array_new_length@std@@6B@		; std::bad_array_new_length::`vftable'
PUBLIC	??_C@_0BF@KINCDENJ@bad?5array?5new?5length@	; `string'
PUBLIC	__TI3?AVbad_array_new_length@std@@
PUBLIC	__CTA3?AVbad_array_new_length@std@@
PUBLIC	??_R0?AVbad_array_new_length@std@@@8		; std::bad_array_new_length `RTTI Type Descriptor'
PUBLIC	__CT??_R0?AVbad_array_new_length@std@@@8??0bad_array_new_length@std@@QAE@ABV01@@Z12
PUBLIC	??_R0?AVbad_alloc@std@@@8			; std::bad_alloc `RTTI Type Descriptor'
PUBLIC	__CT??_R0?AVbad_alloc@std@@@8??0bad_alloc@std@@QAE@ABV01@@Z12
PUBLIC	??_R0?AVexception@std@@@8			; std::exception `RTTI Type Descriptor'
PUBLIC	__CT??_R0?AVexception@std@@@8??0exception@std@@QAE@ABV01@@Z12
PUBLIC	??_C@_0BA@JFNIOLAK@string?5too?5long@		; `string'
PUBLIC	??_C@_0BB@GCADKGJO@map?1set?5too?5long@		; `string'
PUBLIC	?ms_singleton@?$CSingleton@VCPythonGraphic@@@@0PAVCPythonGraphic@@A ; CSingleton<CPythonGraphic>::ms_singleton
PUBLIC	??_C@_0BA@FOIKENOD@vector?5too?5long@		; `string'
PUBLIC	??_R4exception@std@@6B@				; std::exception::`RTTI Complete Object Locator'
PUBLIC	??_R3exception@std@@8				; std::exception::`RTTI Class Hierarchy Descriptor'
PUBLIC	??_R2exception@std@@8				; std::exception::`RTTI Base Class Array'
PUBLIC	??_R1A@?0A@EA@exception@std@@8			; std::exception::`RTTI Base Class Descriptor at (0,-1,0,64)'
PUBLIC	??_R4bad_alloc@std@@6B@				; std::bad_alloc::`RTTI Complete Object Locator'
PUBLIC	??_R3bad_alloc@std@@8				; std::bad_alloc::`RTTI Class Hierarchy Descriptor'
PUBLIC	??_R2bad_alloc@std@@8				; std::bad_alloc::`RTTI Base Class Array'
PUBLIC	??_R1A@?0A@EA@bad_alloc@std@@8			; std::bad_alloc::`RTTI Base Class Descriptor at (0,-1,0,64)'
PUBLIC	??_R4bad_array_new_length@std@@6B@		; std::bad_array_new_length::`RTTI Complete Object Locator'
PUBLIC	??_R3bad_array_new_length@std@@8		; std::bad_array_new_length::`RTTI Class Hierarchy Descriptor'
PUBLIC	??_R2bad_array_new_length@std@@8		; std::bad_array_new_length::`RTTI Base Class Array'
PUBLIC	??_R1A@?0A@EA@bad_array_new_length@std@@8	; std::bad_array_new_length::`RTTI Base Class Descriptor at (0,-1,0,64)'
PUBLIC	?ms_singleton@?$TAbstractSingleton@VIAbstractCharacterManager@@@@0PAVIAbstractCharacterManager@@A ; TAbstractSingleton<IAbstractCharacterManager>::ms_singleton
PUBLIC	??_7?$TAbstractSingleton@VIAbstractCharacterManager@@@@6B@ ; TAbstractSingleton<IAbstractCharacterManager>::`vftable'
PUBLIC	??_7IAbstractCharacterManager@@6B@		; IAbstractCharacterManager::`vftable'
PUBLIC	?ms_kPool@?$CPooledObject@VCHeaderDecorator@NEffectUpdateDecorator@@@@1V?$CDynamicPoolEx@VCHeaderDecorator@NEffectUpdateDecorator@@@@A ; CPooledObject<NEffectUpdateDecorator::CHeaderDecorator>::ms_kPool
PUBLIC	?ms_kPool@?$CPooledObject@VCNullDecorator@NEffectUpdateDecorator@@@@1V?$CDynamicPoolEx@VCNullDecorator@NEffectUpdateDecorator@@@@A ; CPooledObject<NEffectUpdateDecorator::CNullDecorator>::ms_kPool
PUBLIC	?ms_kPool@?$CPooledObject@VCTextureAnimationCWDecorator@NEffectUpdateDecorator@@@@1V?$CDynamicPoolEx@VCTextureAnimationCWDecorator@NEffectUpdateDecorator@@@@A ; CPooledObject<NEffectUpdateDecorator::CTextureAnimationCWDecorator>::ms_kPool
PUBLIC	?ms_kPool@?$CPooledObject@VCTextureAnimationCCWDecorator@NEffectUpdateDecorator@@@@1V?$CDynamicPoolEx@VCTextureAnimationCCWDecorator@NEffectUpdateDecorator@@@@A ; CPooledObject<NEffectUpdateDecorator::CTextureAnimationCCWDecorator>::ms_kPool
PUBLIC	?ms_kPool@?$CPooledObject@VCTextureAnimationRandomDecorator@NEffectUpdateDecorator@@@@1V?$CDynamicPoolEx@VCTextureAnimationRandomDecorator@NEffectUpdateDecorator@@@@A ; CPooledObject<NEffectUpdateDecorator::CTextureAnimationRandomDecorator>::ms_kPool
PUBLIC	?ms_kPool@?$CPooledObject@VCAirResistanceDecorator@NEffectUpdateDecorator@@@@1V?$CDynamicPoolEx@VCAirResistanceDecorator@NEffectUpdateDecorator@@@@A ; CPooledObject<NEffectUpdateDecorator::CAirResistanceDecorator>::ms_kPool
PUBLIC	?ms_kPool@?$CPooledObject@VCGravityDecorator@NEffectUpdateDecorator@@@@1V?$CDynamicPoolEx@VCGravityDecorator@NEffectUpdateDecorator@@@@A ; CPooledObject<NEffectUpdateDecorator::CGravityDecorator>::ms_kPool
PUBLIC	?ms_kPool@?$CPooledObject@VCRotationDecorator@NEffectUpdateDecorator@@@@1V?$CDynamicPoolEx@VCRotationDecorator@NEffectUpdateDecorator@@@@A ; CPooledObject<NEffectUpdateDecorator::CRotationDecorator>::ms_kPool
PUBLIC	?ms_singleton@?$CSingleton@VCStateManager@@@@0PAVCStateManager@@A ; CSingleton<CStateManager>::ms_singleton
PUBLIC	?ms_singleton@?$CSingleton@VCEffectManager@@@@0PAVCEffectManager@@A ; CSingleton<CEffectManager>::ms_singleton
PUBLIC	??_7IObjectManager@@6B@				; IObjectManager::`vftable'
PUBLIC	?ms_singleton@?$CSingleton@VCPythonCharacterManager@@@@0PAVCPythonCharacterManager@@A ; CSingleton<CPythonCharacterManager>::ms_singleton
PUBLIC	??_7?$CSingleton@VCPythonCharacterManager@@@@6B@ ; CSingleton<CPythonCharacterManager>::`vftable'
PUBLIC	??_7CPythonCharacterManager@@6B?$CSingleton@VCPythonCharacterManager@@@@@ ; CPythonCharacterManager::`vftable'
PUBLIC	??_7CPythonCharacterManager@@6BIAbstractCharacterManager@@@ ; CPythonCharacterManager::`vftable'
PUBLIC	??_7CPythonCharacterManager@@6BIObjectManager@@@ ; CPythonCharacterManager::`vftable'
PUBLIC	?ms_singleton@?$CSingleton@VCPythonBackground@@@@0PAVCPythonBackground@@A ; CSingleton<CPythonBackground>::ms_singleton
PUBLIC	?ms_singleton@?$CSingleton@VCPythonNonPlayer@@@@0PAVCPythonNonPlayer@@A ; CSingleton<CPythonNonPlayer>::ms_singleton
PUBLIC	?ms_singleton@?$TAbstractSingleton@VIAbstractPlayer@@@@0PAVIAbstractPlayer@@A ; TAbstractSingleton<IAbstractPlayer>::ms_singleton
PUBLIC	?ms_singleton@?$CSingleton@VCCameraManager@@@@0PAVCCameraManager@@A ; CSingleton<CCameraManager>::ms_singleton
PUBLIC	??_C@_07DDCLDHCF@Actor?3?5@			; `string'
PUBLIC	??_C@_0BN@MCDFNGBH@Container?5?9?5Live?5?$CFd?0?5Dead?5?$CFd@ ; `string'
PUBLIC	??_C@_0EC@KAFJJKBD@CPythonCharacterManager?3?3Create@ ; `string'
PUBLIC	??_C@_0DJ@DCBIHGAA@CPythonCharacterManager?3?3Create@ ; `string'
PUBLIC	??_C@_0CH@HECKLEJN@DeleteCharacterInstance?3?5no?5vid@ ; `string'
PUBLIC	??_C@_0CH@DINFEOPA@SelectCharacterInstance?3?5no?5vid@ ; `string'
PUBLIC	??_C@_0O@NKNMEGII@list?5too?5long@		; `string'
PUBLIC	??_R4IAbstractCharacterManager@@6B@		; IAbstractCharacterManager::`RTTI Complete Object Locator'
PUBLIC	??_R0?AVIAbstractCharacterManager@@@8		; IAbstractCharacterManager `RTTI Type Descriptor'
PUBLIC	??_R3IAbstractCharacterManager@@8		; IAbstractCharacterManager::`RTTI Class Hierarchy Descriptor'
PUBLIC	??_R2IAbstractCharacterManager@@8		; IAbstractCharacterManager::`RTTI Base Class Array'
PUBLIC	??_R1A@?0A@EA@IAbstractCharacterManager@@8	; IAbstractCharacterManager::`RTTI Base Class Descriptor at (0,-1,0,64)'
PUBLIC	??_R1A@?0A@EA@?$TAbstractSingleton@VIAbstractCharacterManager@@@@8 ; TAbstractSingleton<IAbstractCharacterManager>::`RTTI Base Class Descriptor at (0,-1,0,64)'
PUBLIC	??_R0?AV?$TAbstractSingleton@VIAbstractCharacterManager@@@@@8 ; TAbstractSingleton<IAbstractCharacterManager> `RTTI Type Descriptor'
PUBLIC	??_R3?$TAbstractSingleton@VIAbstractCharacterManager@@@@8 ; TAbstractSingleton<IAbstractCharacterManager>::`RTTI Class Hierarchy Descriptor'
PUBLIC	??_R2?$TAbstractSingleton@VIAbstractCharacterManager@@@@8 ; TAbstractSingleton<IAbstractCharacterManager>::`RTTI Base Class Array'
PUBLIC	??_R4?$TAbstractSingleton@VIAbstractCharacterManager@@@@6B@ ; TAbstractSingleton<IAbstractCharacterManager>::`RTTI Complete Object Locator'
PUBLIC	??_R4IObjectManager@@6B@			; IObjectManager::`RTTI Complete Object Locator'
PUBLIC	??_R0?AVIObjectManager@@@8			; IObjectManager `RTTI Type Descriptor'
PUBLIC	??_R3IObjectManager@@8				; IObjectManager::`RTTI Class Hierarchy Descriptor'
PUBLIC	??_R2IObjectManager@@8				; IObjectManager::`RTTI Base Class Array'
PUBLIC	??_R1A@?0A@EA@IObjectManager@@8			; IObjectManager::`RTTI Base Class Descriptor at (0,-1,0,64)'
PUBLIC	??_R4CPythonCharacterManager@@6B?$CSingleton@VCPythonCharacterManager@@@@@ ; CPythonCharacterManager::`RTTI Complete Object Locator'
PUBLIC	??_R0?AVCPythonCharacterManager@@@8		; CPythonCharacterManager `RTTI Type Descriptor'
PUBLIC	??_R3CPythonCharacterManager@@8			; CPythonCharacterManager::`RTTI Class Hierarchy Descriptor'
PUBLIC	??_R2CPythonCharacterManager@@8			; CPythonCharacterManager::`RTTI Base Class Array'
PUBLIC	??_R1A@?0A@EA@CPythonCharacterManager@@8	; CPythonCharacterManager::`RTTI Base Class Descriptor at (0,-1,0,64)'
PUBLIC	??_R1A@?0A@EA@?$CSingleton@VCPythonCharacterManager@@@@8 ; CSingleton<CPythonCharacterManager>::`RTTI Base Class Descriptor at (0,-1,0,64)'
PUBLIC	??_R0?AV?$CSingleton@VCPythonCharacterManager@@@@@8 ; CSingleton<CPythonCharacterManager> `RTTI Type Descriptor'
PUBLIC	??_R3?$CSingleton@VCPythonCharacterManager@@@@8	; CSingleton<CPythonCharacterManager>::`RTTI Class Hierarchy Descriptor'
PUBLIC	??_R2?$CSingleton@VCPythonCharacterManager@@@@8	; CSingleton<CPythonCharacterManager>::`RTTI Base Class Array'
PUBLIC	??_R13?0A@EA@IAbstractCharacterManager@@8	; IAbstractCharacterManager::`RTTI Base Class Descriptor at (4,-1,0,64)'
PUBLIC	??_R13?0A@EA@?$TAbstractSingleton@VIAbstractCharacterManager@@@@8 ; TAbstractSingleton<IAbstractCharacterManager>::`RTTI Base Class Descriptor at (4,-1,0,64)'
PUBLIC	??_R17?0A@EA@IObjectManager@@8			; IObjectManager::`RTTI Base Class Descriptor at (8,-1,0,64)'
PUBLIC	??_R4CPythonCharacterManager@@6BIAbstractCharacterManager@@@ ; CPythonCharacterManager::`RTTI Complete Object Locator'
PUBLIC	??_R4CPythonCharacterManager@@6BIObjectManager@@@ ; CPythonCharacterManager::`RTTI Complete Object Locator'
PUBLIC	??_R4?$CSingleton@VCPythonCharacterManager@@@@6B@ ; CSingleton<CPythonCharacterManager>::`RTTI Complete Object Locator'
PUBLIC	__real@461c4000
PUBLIC	__xmm@80000000800000008000000080000000
EXTRN	__purecall:PROC
EXTRN	??2@YAPAXI@Z:PROC				; operator new
EXTRN	??3@YAXPAX@Z:PROC				; operator delete
EXTRN	??3@YAXPAXI@Z:PROC				; operator delete
EXTRN	_atexit:PROC
EXTRN	__Init_thread_header:PROC
EXTRN	__Init_thread_footer:PROC
EXTRN	__invalid_parameter_noinfo_noreturn:PROC
EXTRN	___stdio_common_vsprintf:PROC
EXTRN	___std_exception_copy:PROC
EXTRN	___std_exception_destroy:PROC
EXTRN	??_Eexception@std@@UAEPAXI@Z:PROC		; std::exception::`vector deleting destructor'
EXTRN	??_Ebad_alloc@std@@UAEPAXI@Z:PROC		; std::bad_alloc::`vector deleting destructor'
EXTRN	??_Ebad_array_new_length@std@@UAEPAXI@Z:PROC	; std::bad_array_new_length::`vector deleting destructor'
EXTRN	?_Xlength_error@std@@YAXPBD@Z:PROC		; std::_Xlength_error
EXTRN	?Tracef@@YAXPBDZZ:PROC				; Tracef
EXTRN	?TraceError@@YAXPBDZZ:PROC			; TraceError
EXTRN	?ProjectPosition@CScreen@@QAEXMMMPAM0@Z:PROC	; CScreen::ProjectPosition
EXTRN	?GetPosition@CGraphicObjectInstance@@QBEABUD3DXVECTOR3@@XZ:PROC ; CGraphicObjectInstance::GetPosition
EXTRN	??_E?$TAbstractSingleton@VIAbstractCharacterManager@@@@UAEPAXI@Z:PROC ; TAbstractSingleton<IAbstractCharacterManager>::`vector deleting destructor'
EXTRN	??_EIAbstractCharacterManager@@UAEPAXI@Z:PROC	; IAbstractCharacterManager::`vector deleting destructor'
EXTRN	?SetTexture@CStateManager@@QAEXKPAUIDirect3DBaseTexture8@@@Z:PROC ; CStateManager::SetTexture
EXTRN	?SetTextureStageState@CStateManager@@QAEXKW4_D3DTEXTURESTAGESTATETYPE@@K@Z:PROC ; CStateManager::SetTextureStageState
EXTRN	?RegisterEffect2@CEffectManager@@QAEHPBDPAK_N@Z:PROC ; CEffectManager::RegisterEffect2
EXTRN	??_EIObjectManager@@UAEPAXI@Z:PROC		; IObjectManager::`vector deleting destructor'
EXTRN	?IsPC@CActorInstance@@QAE_NXZ:PROC		; CActorInstance::IsPC
EXTRN	?IsNPC@CActorInstance@@QAE_NXZ:PROC		; CActorInstance::IsNPC
EXTRN	?IsEnemy@CActorInstance@@QAE_NXZ:PROC		; CActorInstance::IsEnemy
EXTRN	?TestPhysicsBlendingCollision@CActorInstance@@QAEHAAV1@@Z:PROC ; CActorInstance::TestPhysicsBlendingCollision
EXTRN	?SetBlendingPosition@CActorInstance@@QAEXABUD3DXVECTOR3@@M@Z:PROC ; CActorInstance::SetBlendingPosition
EXTRN	?GetPixelPosition@CActorInstance@@QAEXPAUD3DXVECTOR3@@@Z:PROC ; CActorInstance::GetPixelPosition
EXTRN	?DestroySystem@CInstanceBase@@SAXXZ:PROC	; CInstanceBase::DestroySystem
EXTRN	?OnSelected@CInstanceBase@@QAEXXZ:PROC		; CInstanceBase::OnSelected
EXTRN	?OnUnselected@CInstanceBase@@QAEXXZ:PROC	; CInstanceBase::OnUnselected
EXTRN	?LessRenderOrder@CInstanceBase@@QAE_NPAV1@@Z:PROC ; CInstanceBase::LessRenderOrder
EXTRN	?CalculateDistanceSq3d@CInstanceBase@@QAEMABUD3DXVECTOR3@@@Z:PROC ; CInstanceBase::CalculateDistanceSq3d
EXTRN	?DeleteBlendOut@CInstanceBase@@QAEXXZ:PROC	; CInstanceBase::DeleteBlendOut
EXTRN	?RefreshTextTail@CInstanceBase@@QAEXXZ:PROC	; CInstanceBase::RefreshTextTail
EXTRN	?Create@CInstanceBase@@QAE_NABUSCreateData@1@@Z:PROC ; CInstanceBase::Create
EXTRN	?Update@CInstanceBase@@QAEXXZ:PROC		; CInstanceBase::Update
EXTRN	?UpdateDeleting@CInstanceBase@@QAE_NXZ:PROC	; CInstanceBase::UpdateDeleting
EXTRN	?Transform@CInstanceBase@@QAEXXZ:PROC		; CInstanceBase::Transform
EXTRN	?Deform@CInstanceBase@@QAEXXZ:PROC		; CInstanceBase::Deform
EXTRN	?Render@CInstanceBase@@QAEXXZ:PROC		; CInstanceBase::Render
EXTRN	?RenderTrace@CInstanceBase@@QAEXXZ:PROC		; CInstanceBase::RenderTrace
EXTRN	?RenderToShadowMap@CInstanceBase@@QAEXXZ:PROC	; CInstanceBase::RenderToShadowMap
EXTRN	?RenderCollision@CInstanceBase@@QAEXXZ:PROC	; CInstanceBase::RenderCollision
EXTRN	?ChangeGuild@CInstanceBase@@QAEXK@Z:PROC	; CInstanceBase::ChangeGuild
EXTRN	?GetNameString@CInstanceBase@@QAEPBDXZ:PROC	; CInstanceBase::GetNameString
EXTRN	?GetVirtualID@CInstanceBase@@QAEKXZ:PROC	; CInstanceBase::GetVirtualID
EXTRN	?GetVirtualNumber@CInstanceBase@@QAEKXZ:PROC	; CInstanceBase::GetVirtualNumber
EXTRN	?GetGuildID@CInstanceBase@@QAEKXZ:PROC		; CInstanceBase::GetGuildID
EXTRN	?LevelUp@CInstanceBase@@QAEXXZ:PROC		; CInstanceBase::LevelUp
EXTRN	?SkillUp@CInstanceBase@@QAEXXZ:PROC		; CInstanceBase::SkillUp
EXTRN	?CanPickInstance@CInstanceBase@@QAE_NXZ:PROC	; CInstanceBase::CanPickInstance
EXTRN	?IsForceVisible@CInstanceBase@@QAEHXZ:PROC	; CInstanceBase::IsForceVisible
EXTRN	?IsPC@CInstanceBase@@QAEHXZ:PROC		; CInstanceBase::IsPC
EXTRN	?IsDead@CInstanceBase@@QAEHXZ:PROC		; CInstanceBase::IsDead
EXTRN	?IsPushing@CInstanceBase@@QAEHXZ:PROC		; CInstanceBase::IsPushing
EXTRN	?NEW_GetDistanceFromDestInstance@CInstanceBase@@QAEMAAV1@@Z:PROC ; CInstanceBase::NEW_GetDistanceFromDestInstance
EXTRN	?CheckAdvancing@CInstanceBase@@QAEHXZ:PROC	; CInstanceBase::CheckAdvancing
EXTRN	?IntersectDefendingSphere@CInstanceBase@@QAE_NXZ:PROC ; CInstanceBase::IntersectDefendingSphere
EXTRN	?IntersectBoundingBox@CInstanceBase@@QAE_NXZ:PROC ; CInstanceBase::IntersectBoundingBox
EXTRN	?GetDistance@CInstanceBase@@QAEMPAV1@@Z:PROC	; CInstanceBase::GetDistance
EXTRN	?GetGraphicThingInstanceRef@CInstanceBase@@QAEAAVCActorInstance@@XZ:PROC ; CInstanceBase::GetGraphicThingInstanceRef
EXTRN	?GetGraphicThingInstancePtr@CInstanceBase@@QAEPAVCActorInstance@@XZ:PROC ; CInstanceBase::GetGraphicThingInstancePtr
EXTRN	?InsertPVPKey@CInstanceBase@@SAXKK@Z:PROC	; CInstanceBase::InsertPVPKey
EXTRN	?RemovePVPKey@CInstanceBase@@SAXKK@Z:PROC	; CInstanceBase::RemovePVPKey
EXTRN	?ResetPerformanceCounter@CInstanceBase@@SAXXZ:PROC ; CInstanceBase::ResetPerformanceCounter
EXTRN	?GetInfo@CInstanceBase@@SAXPAV?$basic_string@DU?$char_traits@D@std@@V?$allocator@D@2@@std@@@Z:PROC ; CInstanceBase::GetInfo
EXTRN	?New@CInstanceBase@@SAPAV1@XZ:PROC		; CInstanceBase::New
EXTRN	?Delete@CInstanceBase@@SAXPAV1@@Z:PROC		; CInstanceBase::Delete
EXTRN	??_E?$CSingleton@VCPythonCharacterManager@@@@UAEPAXI@Z:PROC ; CSingleton<CPythonCharacterManager>::`vector deleting destructor'
EXTRN	??_ECPythonCharacterManager@@UAEPAXI@Z:PROC	; CPythonCharacterManager::`vector deleting destructor'
EXTRN	?CheckAdvancing@CPythonBackground@@QAE_NPAVCInstanceBase@@@Z:PROC ; CPythonBackground::CheckAdvancing
EXTRN	?GetEventType@CPythonNonPlayer@@QAEEK@Z:PROC	; CPythonNonPlayer::GetEventType
EXTRN	?GetCurrentCamera@CCameraManager@@QAEPAVCCamera@@XZ:PROC ; CCameraManager::GetCurrentCamera
EXTRN	@__security_check_cookie@4:PROC
EXTRN	__CxxThrowException@8:PROC
EXTRN	___CxxFrameHandler3:PROC
EXTRN	_memcpy:PROC
EXTRN	_memmove:PROC
EXTRN	_memset:PROC
EXTRN	__Init_thread_epoch:DWORD
EXTRN	?ms_ObjManager@IObjectManager@@0PAV1@A:DWORD	; IObjectManager::ms_ObjManager
EXTRN	___security_cookie:DWORD
EXTRN	__fltused:DWORD
EXTRN	__tls_array:DWORD
EXTRN	__tls_index:DWORD
;	COMDAT ?_OptionsStorage@?1??__local_stdio_printf_options@@9@4_KA
_BSS	SEGMENT
?_OptionsStorage@?1??__local_stdio_printf_options@@9@4_KA DQ 01H DUP (?) ; `__local_stdio_printf_options'::`2'::_OptionsStorage
_BSS	ENDS
;	COMDAT ?ms_singleton@?$CSingleton@VCPythonGraphic@@@@0PAVCPythonGraphic@@A
_BSS	SEGMENT
?ms_singleton@?$CSingleton@VCPythonGraphic@@@@0PAVCPythonGraphic@@A DD 01H DUP (?) ; CSingleton<CPythonGraphic>::ms_singleton
_BSS	ENDS
;	COMDAT ?ms_singleton@?$TAbstractSingleton@VIAbstractCharacterManager@@@@0PAVIAbstractCharacterManager@@A
_BSS	SEGMENT
?ms_singleton@?$TAbstractSingleton@VIAbstractCharacterManager@@@@0PAVIAbstractCharacterManager@@A DD 01H DUP (?) ; TAbstractSingleton<IAbstractCharacterManager>::ms_singleton
_BSS	ENDS
;	COMDAT ?ms_singleton@?$CSingleton@VCStateManager@@@@0PAVCStateManager@@A
_BSS	SEGMENT
?ms_singleton@?$CSingleton@VCStateManager@@@@0PAVCStateManager@@A DD 01H DUP (?) ; CSingleton<CStateManager>::ms_singleton
_BSS	ENDS
;	COMDAT ?ms_singleton@?$CSingleton@VCEffectManager@@@@0PAVCEffectManager@@A
_BSS	SEGMENT
?ms_singleton@?$CSingleton@VCEffectManager@@@@0PAVCEffectManager@@A DD 01H DUP (?) ; CSingleton<CEffectManager>::ms_singleton
_BSS	ENDS
;	COMDAT ?ms_singleton@?$CSingleton@VCPythonCharacterManager@@@@0PAVCPythonCharacterManager@@A
_BSS	SEGMENT
?ms_singleton@?$CSingleton@VCPythonCharacterManager@@@@0PAVCPythonCharacterManager@@A DD 01H DUP (?) ; CSingleton<CPythonCharacterManager>::ms_singleton
_BSS	ENDS
;	COMDAT ?ms_singleton@?$CSingleton@VCPythonBackground@@@@0PAVCPythonBackground@@A
_BSS	SEGMENT
?ms_singleton@?$CSingleton@VCPythonBackground@@@@0PAVCPythonBackground@@A DD 01H DUP (?) ; CSingleton<CPythonBackground>::ms_singleton
_BSS	ENDS
;	COMDAT ?ms_singleton@?$CSingleton@VCPythonNonPlayer@@@@0PAVCPythonNonPlayer@@A
_BSS	SEGMENT
?ms_singleton@?$CSingleton@VCPythonNonPlayer@@@@0PAVCPythonNonPlayer@@A DD 01H DUP (?) ; CSingleton<CPythonNonPlayer>::ms_singleton
_BSS	ENDS
;	COMDAT ?ms_singleton@?$TAbstractSingleton@VIAbstractPlayer@@@@0PAVIAbstractPlayer@@A
_BSS	SEGMENT
?ms_singleton@?$TAbstractSingleton@VIAbstractPlayer@@@@0PAVIAbstractPlayer@@A DD 01H DUP (?) ; TAbstractSingleton<IAbstractPlayer>::ms_singleton
_BSS	ENDS
;	COMDAT ?ms_singleton@?$CSingleton@VCCameraManager@@@@0PAVCCameraManager@@A
_BSS	SEGMENT
?ms_singleton@?$CSingleton@VCCameraManager@@@@0PAVCCameraManager@@A DD 01H DUP (?) ; CSingleton<CCameraManager>::ms_singleton
_BSS	ENDS
;	COMDAT ?s_isOldCacheMode@?1??IsCacheMode@CPythonCharacterManager@@QAE_NXZ@4_NA
_BSS	SEGMENT
?s_isOldCacheMode@?1??IsCacheMode@CPythonCharacterManager@@QAE_NXZ@4_NA DB 01H DUP (?) ; `CPythonCharacterManager::IsCacheMode'::`2'::s_isOldCacheMode
_BSS	ENDS
;	COMDAT ?s_kVct_pkInstAliveSort@?1??__RenderSortedAliveActorList@CPythonCharacterManager@@IAEXXZ@4V?$vector@PAVCInstanceBase@@V?$allocator@PAVCInstanceBase@@@std@@@std@@A
_BSS	SEGMENT
?s_kVct_pkInstAliveSort@?1??__RenderSortedAliveActorList@CPythonCharacterManager@@IAEXXZ@4V?$vector@PAVCInstanceBase@@V?$allocator@PAVCInstanceBase@@@std@@@std@@A DB 0cH DUP (?) ; `CPythonCharacterManager::__RenderSortedAliveActorList'::`2'::s_kVct_pkInstAliveSort
_BSS	ENDS
;	COMDAT ?$TSS0@?1??__RenderSortedAliveActorList@CPythonCharacterManager@@IAEXXZ@4HA
_BSS	SEGMENT
?$TSS0@?1??__RenderSortedAliveActorList@CPythonCharacterManager@@IAEXXZ@4HA DD 01H DUP (?) ; `CPythonCharacterManager::__RenderSortedAliveActorList'::`2'::$TSS0
_BSS	ENDS
;	COMDAT ?s_kVct_pkInstDeadSort@?1??__RenderSortedDeadActorList@CPythonCharacterManager@@IAEXXZ@4V?$vector@PAVCInstanceBase@@V?$allocator@PAVCInstanceBase@@@std@@@std@@A
_BSS	SEGMENT
?s_kVct_pkInstDeadSort@?1??__RenderSortedDeadActorList@CPythonCharacterManager@@IAEXXZ@4V?$vector@PAVCInstanceBase@@V?$allocator@PAVCInstanceBase@@@std@@@std@@A DB 0cH DUP (?) ; `CPythonCharacterManager::__RenderSortedDeadActorList'::`2'::s_kVct_pkInstDeadSort
_BSS	ENDS
;	COMDAT ?$TSS0@?1??__RenderSortedDeadActorList@CPythonCharacterManager@@IAEXXZ@4HA
_BSS	SEGMENT
?$TSS0@?1??__RenderSortedDeadActorList@CPythonCharacterManager@@IAEXXZ@4HA DD 01H DUP (?) ; `CPythonCharacterManager::__RenderSortedDeadActorList'::`2'::$TSS0
_BSS	ENDS
;	COMDAT CRT$XCU
CRT$XCU	SEGMENT
??ms_kPool$initializer$@?$CPooledObject@VCHeaderDecorator@NEffectUpdateDecorator@@@@1P6AXXZA@@3P6AXXZA DD FLAT:??__E?ms_kPool@?$CPooledObject@VCHeaderDecorator@NEffectUpdateDecorator@@@@1V?$CDynamicPoolEx@VCHeaderDecorator@NEffectUpdateDecorator@@@@A@@YAXXZ ; ??ms_kPool$initializer$@?$CPooledObject@VCHeaderDecorator@NEffectUpdateDecorator@@@@1P6AXXZA@@3P6AXXZA
CRT$XCU	ENDS
;	COMDAT __xmm@80000000800000008000000080000000
CONST	SEGMENT
__xmm@80000000800000008000000080000000 DB 00H, 00H, 00H, 080H, 00H, 00H, 00H
	DB	080H, 00H, 00H, 00H, 080H, 00H, 00H, 00H, 080H
CONST	ENDS
;	COMDAT __real@461c4000
CONST	SEGMENT
__real@461c4000 DD 0461c4000r			; 10000
CONST	ENDS
;	COMDAT ??_R4?$CSingleton@VCPythonCharacterManager@@@@6B@
rdata$r	SEGMENT
??_R4?$CSingleton@VCPythonCharacterManager@@@@6B@ DD 00H ; CSingleton<CPythonCharacterManager>::`RTTI Complete Object Locator'
	DD	00H
	DD	00H
	DD	FLAT:??_R0?AV?$CSingleton@VCPythonCharacterManager@@@@@8
	DD	FLAT:??_R3?$CSingleton@VCPythonCharacterManager@@@@8
rdata$r	ENDS
;	COMDAT ??_R4CPythonCharacterManager@@6BIObjectManager@@@
rdata$r	SEGMENT
??_R4CPythonCharacterManager@@6BIObjectManager@@@ DD 00H ; CPythonCharacterManager::`RTTI Complete Object Locator'
	DD	08H
	DD	00H
	DD	FLAT:??_R0?AVCPythonCharacterManager@@@8
	DD	FLAT:??_R3CPythonCharacterManager@@8
rdata$r	ENDS
;	COMDAT ??_R4CPythonCharacterManager@@6BIAbstractCharacterManager@@@
rdata$r	SEGMENT
??_R4CPythonCharacterManager@@6BIAbstractCharacterManager@@@ DD 00H ; CPythonCharacterManager::`RTTI Complete Object Locator'
	DD	04H
	DD	00H
	DD	FLAT:??_R0?AVCPythonCharacterManager@@@8
	DD	FLAT:??_R3CPythonCharacterManager@@8
rdata$r	ENDS
;	COMDAT ??_R17?0A@EA@IObjectManager@@8
rdata$r	SEGMENT
??_R17?0A@EA@IObjectManager@@8 DD FLAT:??_R0?AVIObjectManager@@@8 ; IObjectManager::`RTTI Base Class Descriptor at (8,-1,0,64)'
	DD	00H
	DD	08H
	DD	0ffffffffH
	DD	00H
	DD	040H
	DD	FLAT:??_R3IObjectManager@@8
rdata$r	ENDS
;	COMDAT ??_R13?0A@EA@?$TAbstractSingleton@VIAbstractCharacterManager@@@@8
rdata$r	SEGMENT
??_R13?0A@EA@?$TAbstractSingleton@VIAbstractCharacterManager@@@@8 DD FLAT:??_R0?AV?$TAbstractSingleton@VIAbstractCharacterManager@@@@@8 ; TAbstractSingleton<IAbstractCharacterManager>::`RTTI Base Class Descriptor at (4,-1,0,64)'
	DD	00H
	DD	04H
	DD	0ffffffffH
	DD	00H
	DD	040H
	DD	FLAT:??_R3?$TAbstractSingleton@VIAbstractCharacterManager@@@@8
rdata$r	ENDS
;	COMDAT ??_R13?0A@EA@IAbstractCharacterManager@@8
rdata$r	SEGMENT
??_R13?0A@EA@IAbstractCharacterManager@@8 DD FLAT:??_R0?AVIAbstractCharacterManager@@@8 ; IAbstractCharacterManager::`RTTI Base Class Descriptor at (4,-1,0,64)'
	DD	01H
	DD	04H
	DD	0ffffffffH
	DD	00H
	DD	040H
	DD	FLAT:??_R3IAbstractCharacterManager@@8
rdata$r	ENDS
;	COMDAT ??_R2?$CSingleton@VCPythonCharacterManager@@@@8
rdata$r	SEGMENT
??_R2?$CSingleton@VCPythonCharacterManager@@@@8 DD FLAT:??_R1A@?0A@EA@?$CSingleton@VCPythonCharacterManager@@@@8 ; CSingleton<CPythonCharacterManager>::`RTTI Base Class Array'
rdata$r	ENDS
;	COMDAT ??_R3?$CSingleton@VCPythonCharacterManager@@@@8
rdata$r	SEGMENT
??_R3?$CSingleton@VCPythonCharacterManager@@@@8 DD 00H	; CSingleton<CPythonCharacterManager>::`RTTI Class Hierarchy Descriptor'
	DD	00H
	DD	01H
	DD	FLAT:??_R2?$CSingleton@VCPythonCharacterManager@@@@8
rdata$r	ENDS
;	COMDAT ??_R0?AV?$CSingleton@VCPythonCharacterManager@@@@@8
data$rs	SEGMENT
??_R0?AV?$CSingleton@VCPythonCharacterManager@@@@@8 DD FLAT:??_7type_info@@6B@ ; CSingleton<CPythonCharacterManager> `RTTI Type Descriptor'
	DD	00H
	DB	'.?AV?$CSingleton@VCPythonCharacterManager@@@@', 00H
data$rs	ENDS
;	COMDAT ??_R1A@?0A@EA@?$CSingleton@VCPythonCharacterManager@@@@8
rdata$r	SEGMENT
??_R1A@?0A@EA@?$CSingleton@VCPythonCharacterManager@@@@8 DD FLAT:??_R0?AV?$CSingleton@VCPythonCharacterManager@@@@@8 ; CSingleton<CPythonCharacterManager>::`RTTI Base Class Descriptor at (0,-1,0,64)'
	DD	00H
	DD	00H
	DD	0ffffffffH
	DD	00H
	DD	040H
	DD	FLAT:??_R3?$CSingleton@VCPythonCharacterManager@@@@8
rdata$r	ENDS
;	COMDAT ??_R1A@?0A@EA@CPythonCharacterManager@@8
rdata$r	SEGMENT
??_R1A@?0A@EA@CPythonCharacterManager@@8 DD FLAT:??_R0?AVCPythonCharacterManager@@@8 ; CPythonCharacterManager::`RTTI Base Class Descriptor at (0,-1,0,64)'
	DD	04H
	DD	00H
	DD	0ffffffffH
	DD	00H
	DD	040H
	DD	FLAT:??_R3CPythonCharacterManager@@8
rdata$r	ENDS
;	COMDAT ??_R2CPythonCharacterManager@@8
rdata$r	SEGMENT
??_R2CPythonCharacterManager@@8 DD FLAT:??_R1A@?0A@EA@CPythonCharacterManager@@8 ; CPythonCharacterManager::`RTTI Base Class Array'
	DD	FLAT:??_R1A@?0A@EA@?$CSingleton@VCPythonCharacterManager@@@@8
	DD	FLAT:??_R13?0A@EA@IAbstractCharacterManager@@8
	DD	FLAT:??_R13?0A@EA@?$TAbstractSingleton@VIAbstractCharacterManager@@@@8
	DD	FLAT:??_R17?0A@EA@IObjectManager@@8
rdata$r	ENDS
;	COMDAT ??_R3CPythonCharacterManager@@8
rdata$r	SEGMENT
??_R3CPythonCharacterManager@@8 DD 00H			; CPythonCharacterManager::`RTTI Class Hierarchy Descriptor'
	DD	01H
	DD	05H
	DD	FLAT:??_R2CPythonCharacterManager@@8
rdata$r	ENDS
;	COMDAT ??_R0?AVCPythonCharacterManager@@@8
data$rs	SEGMENT
??_R0?AVCPythonCharacterManager@@@8 DD FLAT:??_7type_info@@6B@ ; CPythonCharacterManager `RTTI Type Descriptor'
	DD	00H
	DB	'.?AVCPythonCharacterManager@@', 00H
data$rs	ENDS
;	COMDAT ??_R4CPythonCharacterManager@@6B?$CSingleton@VCPythonCharacterManager@@@@@
rdata$r	SEGMENT
??_R4CPythonCharacterManager@@6B?$CSingleton@VCPythonCharacterManager@@@@@ DD 00H ; CPythonCharacterManager::`RTTI Complete Object Locator'
	DD	00H
	DD	00H
	DD	FLAT:??_R0?AVCPythonCharacterManager@@@8
	DD	FLAT:??_R3CPythonCharacterManager@@8
rdata$r	ENDS
;	COMDAT ??_R1A@?0A@EA@IObjectManager@@8
rdata$r	SEGMENT
??_R1A@?0A@EA@IObjectManager@@8 DD FLAT:??_R0?AVIObjectManager@@@8 ; IObjectManager::`RTTI Base Class Descriptor at (0,-1,0,64)'
	DD	00H
	DD	00H
	DD	0ffffffffH
	DD	00H
	DD	040H
	DD	FLAT:??_R3IObjectManager@@8
rdata$r	ENDS
;	COMDAT ??_R2IObjectManager@@8
rdata$r	SEGMENT
??_R2IObjectManager@@8 DD FLAT:??_R1A@?0A@EA@IObjectManager@@8 ; IObjectManager::`RTTI Base Class Array'
rdata$r	ENDS
;	COMDAT ??_R3IObjectManager@@8
rdata$r	SEGMENT
??_R3IObjectManager@@8 DD 00H				; IObjectManager::`RTTI Class Hierarchy Descriptor'
	DD	00H
	DD	01H
	DD	FLAT:??_R2IObjectManager@@8
rdata$r	ENDS
;	COMDAT ??_R0?AVIObjectManager@@@8
data$rs	SEGMENT
??_R0?AVIObjectManager@@@8 DD FLAT:??_7type_info@@6B@	; IObjectManager `RTTI Type Descriptor'
	DD	00H
	DB	'.?AVIObjectManager@@', 00H
data$rs	ENDS
;	COMDAT ??_R4IObjectManager@@6B@
rdata$r	SEGMENT
??_R4IObjectManager@@6B@ DD 00H				; IObjectManager::`RTTI Complete Object Locator'
	DD	00H
	DD	00H
	DD	FLAT:??_R0?AVIObjectManager@@@8
	DD	FLAT:??_R3IObjectManager@@8
rdata$r	ENDS
;	COMDAT ??_R4?$TAbstractSingleton@VIAbstractCharacterManager@@@@6B@
rdata$r	SEGMENT
??_R4?$TAbstractSingleton@VIAbstractCharacterManager@@@@6B@ DD 00H ; TAbstractSingleton<IAbstractCharacterManager>::`RTTI Complete Object Locator'
	DD	00H
	DD	00H
	DD	FLAT:??_R0?AV?$TAbstractSingleton@VIAbstractCharacterManager@@@@@8
	DD	FLAT:??_R3?$TAbstractSingleton@VIAbstractCharacterManager@@@@8
rdata$r	ENDS
;	COMDAT ??_R2?$TAbstractSingleton@VIAbstractCharacterManager@@@@8
rdata$r	SEGMENT
??_R2?$TAbstractSingleton@VIAbstractCharacterManager@@@@8 DD FLAT:??_R1A@?0A@EA@?$TAbstractSingleton@VIAbstractCharacterManager@@@@8 ; TAbstractSingleton<IAbstractCharacterManager>::`RTTI Base Class Array'
rdata$r	ENDS
;	COMDAT ??_R3?$TAbstractSingleton@VIAbstractCharacterManager@@@@8
rdata$r	SEGMENT
??_R3?$TAbstractSingleton@VIAbstractCharacterManager@@@@8 DD 00H ; TAbstractSingleton<IAbstractCharacterManager>::`RTTI Class Hierarchy Descriptor'
	DD	00H
	DD	01H
	DD	FLAT:??_R2?$TAbstractSingleton@VIAbstractCharacterManager@@@@8
rdata$r	ENDS
;	COMDAT ??_R0?AV?$TAbstractSingleton@VIAbstractCharacterManager@@@@@8
data$rs	SEGMENT
??_R0?AV?$TAbstractSingleton@VIAbstractCharacterManager@@@@@8 DD FLAT:??_7type_info@@6B@ ; TAbstractSingleton<IAbstractCharacterManager> `RTTI Type Descriptor'
	DD	00H
	DB	'.?AV?$TAbstractSingleton@VIAbstractCharacterManager@@@@', 00H
data$rs	ENDS
;	COMDAT ??_R1A@?0A@EA@?$TAbstractSingleton@VIAbstractCharacterManager@@@@8
rdata$r	SEGMENT
??_R1A@?0A@EA@?$TAbstractSingleton@VIAbstractCharacterManager@@@@8 DD FLAT:??_R0?AV?$TAbstractSingleton@VIAbstractCharacterManager@@@@@8 ; TAbstractSingleton<IAbstractCharacterManager>::`RTTI Base Class Descriptor at (0,-1,0,64)'
	DD	00H
	DD	00H
	DD	0ffffffffH
	DD	00H
	DD	040H
	DD	FLAT:??_R3?$TAbstractSingleton@VIAbstractCharacterManager@@@@8
rdata$r	ENDS
;	COMDAT ??_R1A@?0A@EA@IAbstractCharacterManager@@8
rdata$r	SEGMENT
??_R1A@?0A@EA@IAbstractCharacterManager@@8 DD FLAT:??_R0?AVIAbstractCharacterManager@@@8 ; IAbstractCharacterManager::`RTTI Base Class Descriptor at (0,-1,0,64)'
	DD	01H
	DD	00H
	DD	0ffffffffH
	DD	00H
	DD	040H
	DD	FLAT:??_R3IAbstractCharacterManager@@8
rdata$r	ENDS
;	COMDAT ??_R2IAbstractCharacterManager@@8
rdata$r	SEGMENT
??_R2IAbstractCharacterManager@@8 DD FLAT:??_R1A@?0A@EA@IAbstractCharacterManager@@8 ; IAbstractCharacterManager::`RTTI Base Class Array'
	DD	FLAT:??_R1A@?0A@EA@?$TAbstractSingleton@VIAbstractCharacterManager@@@@8
rdata$r	ENDS
;	COMDAT ??_R3IAbstractCharacterManager@@8
rdata$r	SEGMENT
??_R3IAbstractCharacterManager@@8 DD 00H		; IAbstractCharacterManager::`RTTI Class Hierarchy Descriptor'
	DD	00H
	DD	02H
	DD	FLAT:??_R2IAbstractCharacterManager@@8
rdata$r	ENDS
;	COMDAT ??_R0?AVIAbstractCharacterManager@@@8
data$rs	SEGMENT
??_R0?AVIAbstractCharacterManager@@@8 DD FLAT:??_7type_info@@6B@ ; IAbstractCharacterManager `RTTI Type Descriptor'
	DD	00H
	DB	'.?AVIAbstractCharacterManager@@', 00H
data$rs	ENDS
;	COMDAT ??_R4IAbstractCharacterManager@@6B@
rdata$r	SEGMENT
??_R4IAbstractCharacterManager@@6B@ DD 00H		; IAbstractCharacterManager::`RTTI Complete Object Locator'
	DD	00H
	DD	00H
	DD	FLAT:??_R0?AVIAbstractCharacterManager@@@8
	DD	FLAT:??_R3IAbstractCharacterManager@@8
rdata$r	ENDS
;	COMDAT ??_C@_0O@NKNMEGII@list?5too?5long@
CONST	SEGMENT
??_C@_0O@NKNMEGII@list?5too?5long@ DB 'list too long', 00H ; `string'
CONST	ENDS
;	COMDAT ??_C@_0CH@DINFEOPA@SelectCharacterInstance?3?5no?5vid@
CONST	SEGMENT
??_C@_0CH@DINFEOPA@SelectCharacterInstance?3?5no?5vid@ DB 'SelectCharacte'
	DB	'rInstance: no vid by %d', 0aH, 00H		; `string'
CONST	ENDS
;	COMDAT ??_C@_0CH@HECKLEJN@DeleteCharacterInstance?3?5no?5vid@
CONST	SEGMENT
??_C@_0CH@HECKLEJN@DeleteCharacterInstance?3?5no?5vid@ DB 'DeleteCharacte'
	DB	'rInstance: no vid by %d', 0aH, 00H		; `string'
CONST	ENDS
;	COMDAT ??_C@_0DJ@DCBIHGAA@CPythonCharacterManager?3?3Create@
CONST	SEGMENT
??_C@_0DJ@DCBIHGAA@CPythonCharacterManager?3?3Create@ DB 'CPythonCharacte'
	DB	'rManager::CreateInstance VID[%d] Race[%d]', 00H ; `string'
CONST	ENDS
;	COMDAT ??_C@_0EC@KAFJJKBD@CPythonCharacterManager?3?3Create@
CONST	SEGMENT
??_C@_0EC@KAFJJKBD@CPythonCharacterManager?3?3Create@ DB 'CPythonCharacte'
	DB	'rManager::CreateInstance: VID[%d] - ALREADY EXIST', 0aH, 00H ; `string'
CONST	ENDS
;	COMDAT ??_C@_0BN@MCDFNGBH@Container?5?9?5Live?5?$CFd?0?5Dead?5?$CFd@
CONST	SEGMENT
??_C@_0BN@MCDFNGBH@Container?5?9?5Live?5?$CFd?0?5Dead?5?$CFd@ DB 'Contain'
	DB	'er - Live %d, Dead %d', 00H			; `string'
CONST	ENDS
;	COMDAT ??_C@_07DDCLDHCF@Actor?3?5@
CONST	SEGMENT
??_C@_07DDCLDHCF@Actor?3?5@ DB 'Actor: ', 00H		; `string'
CONST	ENDS
;	COMDAT ??_7CPythonCharacterManager@@6BIObjectManager@@@
CONST	SEGMENT
??_7CPythonCharacterManager@@6BIObjectManager@@@ DD FLAT:??_R4CPythonCharacterManager@@6BIObjectManager@@@ ; CPythonCharacterManager::`vftable'
	DD	FLAT:??_ECPythonCharacterManager@@W7AEPAXI@Z
	DD	FLAT:?AdjustCollisionWithOtherObjects@CPythonCharacterManager@@UAEXPAVCActorInstance@@@Z
CONST	ENDS
;	COMDAT ??_7CPythonCharacterManager@@6BIAbstractCharacterManager@@@
CONST	SEGMENT
??_7CPythonCharacterManager@@6BIAbstractCharacterManager@@@ DD FLAT:??_R4CPythonCharacterManager@@6BIAbstractCharacterManager@@@ ; CPythonCharacterManager::`vftable'
	DD	FLAT:??_ECPythonCharacterManager@@W3AEPAXI@Z
	DD	FLAT:?Destroy@CPythonCharacterManager@@UAEXXZ
	DD	FLAT:?GetInstancePtr@CPythonCharacterManager@@UAEPAVCInstanceBase@@K@Z
CONST	ENDS
;	COMDAT ??_7CPythonCharacterManager@@6B?$CSingleton@VCPythonCharacterManager@@@@@
CONST	SEGMENT
??_7CPythonCharacterManager@@6B?$CSingleton@VCPythonCharacterManager@@@@@ DD FLAT:??_R4CPythonCharacterManager@@6B?$CSingleton@VCPythonCharacterManager@@@@@ ; CPythonCharacterManager::`vftable'
	DD	FLAT:??_ECPythonCharacterManager@@UAEPAXI@Z
CONST	ENDS
;	COMDAT ??_7?$CSingleton@VCPythonCharacterManager@@@@6B@
CONST	SEGMENT
??_7?$CSingleton@VCPythonCharacterManager@@@@6B@ DD FLAT:??_R4?$CSingleton@VCPythonCharacterManager@@@@6B@ ; CSingleton<CPythonCharacterManager>::`vftable'
	DD	FLAT:??_E?$CSingleton@VCPythonCharacterManager@@@@UAEPAXI@Z
CONST	ENDS
;	COMDAT ??_7IObjectManager@@6B@
CONST	SEGMENT
??_7IObjectManager@@6B@ DD FLAT:??_R4IObjectManager@@6B@ ; IObjectManager::`vftable'
	DD	FLAT:??_EIObjectManager@@UAEPAXI@Z
	DD	FLAT:__purecall
CONST	ENDS
;	COMDAT ?ms_kPool@?$CPooledObject@VCRotationDecorator@NEffectUpdateDecorator@@@@1V?$CDynamicPoolEx@VCRotationDecorator@NEffectUpdateDecorator@@@@A
_DATA	SEGMENT
?ms_kPool@?$CPooledObject@VCRotationDecorator@NEffectUpdateDecorator@@@@1V?$CDynamicPoolEx@VCRotationDecorator@NEffectUpdateDecorator@@@@A DD FLAT:??_7?$CDynamicPoolEx@VCRotationDecorator@NEffectUpdateDecorator@@@@6B@ ; CPooledObject<NEffectUpdateDecorator::CRotationDecorator>::ms_kPool
	DD	00H
	DD	00H
	DD	00H
	DD	00H
	DD	00H
	DD	00H
	DD	00H
	DD	00H
_DATA	ENDS
;	COMDAT ?ms_kPool@?$CPooledObject@VCGravityDecorator@NEffectUpdateDecorator@@@@1V?$CDynamicPoolEx@VCGravityDecorator@NEffectUpdateDecorator@@@@A
_DATA	SEGMENT
?ms_kPool@?$CPooledObject@VCGravityDecorator@NEffectUpdateDecorator@@@@1V?$CDynamicPoolEx@VCGravityDecorator@NEffectUpdateDecorator@@@@A DD FLAT:??_7?$CDynamicPoolEx@VCGravityDecorator@NEffectUpdateDecorator@@@@6B@ ; CPooledObject<NEffectUpdateDecorator::CGravityDecorator>::ms_kPool
	DD	00H
	DD	00H
	DD	00H
	DD	00H
	DD	00H
	DD	00H
	DD	00H
	DD	00H
_DATA	ENDS
;	COMDAT ?ms_kPool@?$CPooledObject@VCAirResistanceDecorator@NEffectUpdateDecorator@@@@1V?$CDynamicPoolEx@VCAirResistanceDecorator@NEffectUpdateDecorator@@@@A
_DATA	SEGMENT
?ms_kPool@?$CPooledObject@VCAirResistanceDecorator@NEffectUpdateDecorator@@@@1V?$CDynamicPoolEx@VCAirResistanceDecorator@NEffectUpdateDecorator@@@@A DD FLAT:??_7?$CDynamicPoolEx@VCAirResistanceDecorator@NEffectUpdateDecorator@@@@6B@ ; CPooledObject<NEffectUpdateDecorator::CAirResistanceDecorator>::ms_kPool
	DD	00H
	DD	00H
	DD	00H
	DD	00H
	DD	00H
	DD	00H
	DD	00H
	DD	00H
_DATA	ENDS
;	COMDAT ?ms_kPool@?$CPooledObject@VCTextureAnimationRandomDecorator@NEffectUpdateDecorator@@@@1V?$CDynamicPoolEx@VCTextureAnimationRandomDecorator@NEffectUpdateDecorator@@@@A
_DATA	SEGMENT
?ms_kPool@?$CPooledObject@VCTextureAnimationRandomDecorator@NEffectUpdateDecorator@@@@1V?$CDynamicPoolEx@VCTextureAnimationRandomDecorator@NEffectUpdateDecorator@@@@A DD FLAT:??_7?$CDynamicPoolEx@VCTextureAnimationRandomDecorator@NEffectUpdateDecorator@@@@6B@ ; CPooledObject<NEffectUpdateDecorator::CTextureAnimationRandomDecorator>::ms_kPool
	DD	00H
	DD	00H
	DD	00H
	DD	00H
	DD	00H
	DD	00H
	DD	00H
	DD	00H
_DATA	ENDS
;	COMDAT ?ms_kPool@?$CPooledObject@VCTextureAnimationCCWDecorator@NEffectUpdateDecorator@@@@1V?$CDynamicPoolEx@VCTextureAnimationCCWDecorator@NEffectUpdateDecorator@@@@A
_DATA	SEGMENT
?ms_kPool@?$CPooledObject@VCTextureAnimationCCWDecorator@NEffectUpdateDecorator@@@@1V?$CDynamicPoolEx@VCTextureAnimationCCWDecorator@NEffectUpdateDecorator@@@@A DD FLAT:??_7?$CDynamicPoolEx@VCTextureAnimationCCWDecorator@NEffectUpdateDecorator@@@@6B@ ; CPooledObject<NEffectUpdateDecorator::CTextureAnimationCCWDecorator>::ms_kPool
	DD	00H
	DD	00H
	DD	00H
	DD	00H
	DD	00H
	DD	00H
	DD	00H
	DD	00H
_DATA	ENDS
;	COMDAT ?ms_kPool@?$CPooledObject@VCTextureAnimationCWDecorator@NEffectUpdateDecorator@@@@1V?$CDynamicPoolEx@VCTextureAnimationCWDecorator@NEffectUpdateDecorator@@@@A
_DATA	SEGMENT
?ms_kPool@?$CPooledObject@VCTextureAnimationCWDecorator@NEffectUpdateDecorator@@@@1V?$CDynamicPoolEx@VCTextureAnimationCWDecorator@NEffectUpdateDecorator@@@@A DD FLAT:??_7?$CDynamicPoolEx@VCTextureAnimationCWDecorator@NEffectUpdateDecorator@@@@6B@ ; CPooledObject<NEffectUpdateDecorator::CTextureAnimationCWDecorator>::ms_kPool
	DD	00H
	DD	00H
	DD	00H
	DD	00H
	DD	00H
	DD	00H
	DD	00H
	DD	00H
_DATA	ENDS
;	COMDAT ?ms_kPool@?$CPooledObject@VCNullDecorator@NEffectUpdateDecorator@@@@1V?$CDynamicPoolEx@VCNullDecorator@NEffectUpdateDecorator@@@@A
_DATA	SEGMENT
?ms_kPool@?$CPooledObject@VCNullDecorator@NEffectUpdateDecorator@@@@1V?$CDynamicPoolEx@VCNullDecorator@NEffectUpdateDecorator@@@@A DD FLAT:??_7?$CDynamicPoolEx@VCNullDecorator@NEffectUpdateDecorator@@@@6B@ ; CPooledObject<NEffectUpdateDecorator::CNullDecorator>::ms_kPool
	DD	00H
	DD	00H
	DD	00H
	DD	00H
	DD	00H
	DD	00H
	DD	00H
	DD	00H
_DATA	ENDS
;	COMDAT ?ms_kPool@?$CPooledObject@VCHeaderDecorator@NEffectUpdateDecorator@@@@1V?$CDynamicPoolEx@VCHeaderDecorator@NEffectUpdateDecorator@@@@A
_DATA	SEGMENT
?ms_kPool@?$CPooledObject@VCHeaderDecorator@NEffectUpdateDecorator@@@@1V?$CDynamicPoolEx@VCHeaderDecorator@NEffectUpdateDecorator@@@@A DD FLAT:??_7?$CDynamicPoolEx@VCHeaderDecorator@NEffectUpdateDecorator@@@@6B@ ; CPooledObject<NEffectUpdateDecorator::CHeaderDecorator>::ms_kPool
	DD	00H
	DD	00H
	DD	00H
	DD	00H
	DD	00H
	DD	00H
	DD	00H
	DD	00H
_DATA	ENDS
;	COMDAT ??_7IAbstractCharacterManager@@6B@
CONST	SEGMENT
??_7IAbstractCharacterManager@@6B@ DD FLAT:??_R4IAbstractCharacterManager@@6B@ ; IAbstractCharacterManager::`vftable'
	DD	FLAT:??_EIAbstractCharacterManager@@UAEPAXI@Z
	DD	FLAT:__purecall
	DD	FLAT:__purecall
CONST	ENDS
;	COMDAT ??_7?$TAbstractSingleton@VIAbstractCharacterManager@@@@6B@
CONST	SEGMENT
??_7?$TAbstractSingleton@VIAbstractCharacterManager@@@@6B@ DD FLAT:??_R4?$TAbstractSingleton@VIAbstractCharacterManager@@@@6B@ ; TAbstractSingleton<IAbstractCharacterManager>::`vftable'
	DD	FLAT:??_E?$TAbstractSingleton@VIAbstractCharacterManager@@@@UAEPAXI@Z
CONST	ENDS
;	COMDAT ??_R1A@?0A@EA@bad_array_new_length@std@@8
rdata$r	SEGMENT
??_R1A@?0A@EA@bad_array_new_length@std@@8 DD FLAT:??_R0?AVbad_array_new_length@std@@@8 ; std::bad_array_new_length::`RTTI Base Class Descriptor at (0,-1,0,64)'
	DD	02H
	DD	00H
	DD	0ffffffffH
	DD	00H
	DD	040H
	DD	FLAT:??_R3bad_array_new_length@std@@8
rdata$r	ENDS
;	COMDAT ??_R2bad_array_new_length@std@@8
rdata$r	SEGMENT
??_R2bad_array_new_length@std@@8 DD FLAT:??_R1A@?0A@EA@bad_array_new_length@std@@8 ; std::bad_array_new_length::`RTTI Base Class Array'
	DD	FLAT:??_R1A@?0A@EA@bad_alloc@std@@8
	DD	FLAT:??_R1A@?0A@EA@exception@std@@8
rdata$r	ENDS
;	COMDAT ??_R3bad_array_new_length@std@@8
rdata$r	SEGMENT
??_R3bad_array_new_length@std@@8 DD 00H			; std::bad_array_new_length::`RTTI Class Hierarchy Descriptor'
	DD	00H
	DD	03H
	DD	FLAT:??_R2bad_array_new_length@std@@8
rdata$r	ENDS
;	COMDAT ??_R4bad_array_new_length@std@@6B@
rdata$r	SEGMENT
??_R4bad_array_new_length@std@@6B@ DD 00H		; std::bad_array_new_length::`RTTI Complete Object Locator'
	DD	00H
	DD	00H
	DD	FLAT:??_R0?AVbad_array_new_length@std@@@8
	DD	FLAT:??_R3bad_array_new_length@std@@8
rdata$r	ENDS
;	COMDAT ??_R1A@?0A@EA@bad_alloc@std@@8
rdata$r	SEGMENT
??_R1A@?0A@EA@bad_alloc@std@@8 DD FLAT:??_R0?AVbad_alloc@std@@@8 ; std::bad_alloc::`RTTI Base Class Descriptor at (0,-1,0,64)'
	DD	01H
	DD	00H
	DD	0ffffffffH
	DD	00H
	DD	040H
	DD	FLAT:??_R3bad_alloc@std@@8
rdata$r	ENDS
;	COMDAT ??_R2bad_alloc@std@@8
rdata$r	SEGMENT
??_R2bad_alloc@std@@8 DD FLAT:??_R1A@?0A@EA@bad_alloc@std@@8 ; std::bad_alloc::`RTTI Base Class Array'
	DD	FLAT:??_R1A@?0A@EA@exception@std@@8
rdata$r	ENDS
;	COMDAT ??_R3bad_alloc@std@@8
rdata$r	SEGMENT
??_R3bad_alloc@std@@8 DD 00H				; std::bad_alloc::`RTTI Class Hierarchy Descriptor'
	DD	00H
	DD	02H
	DD	FLAT:??_R2bad_alloc@std@@8
rdata$r	ENDS
;	COMDAT ??_R4bad_alloc@std@@6B@
rdata$r	SEGMENT
??_R4bad_alloc@std@@6B@ DD 00H				; std::bad_alloc::`RTTI Complete Object Locator'
	DD	00H
	DD	00H
	DD	FLAT:??_R0?AVbad_alloc@std@@@8
	DD	FLAT:??_R3bad_alloc@std@@8
rdata$r	ENDS
;	COMDAT ??_R1A@?0A@EA@exception@std@@8
rdata$r	SEGMENT
??_R1A@?0A@EA@exception@std@@8 DD FLAT:??_R0?AVexception@std@@@8 ; std::exception::`RTTI Base Class Descriptor at (0,-1,0,64)'
	DD	00H
	DD	00H
	DD	0ffffffffH
	DD	00H
	DD	040H
	DD	FLAT:??_R3exception@std@@8
rdata$r	ENDS
;	COMDAT ??_R2exception@std@@8
rdata$r	SEGMENT
??_R2exception@std@@8 DD FLAT:??_R1A@?0A@EA@exception@std@@8 ; std::exception::`RTTI Base Class Array'
rdata$r	ENDS
;	COMDAT ??_R3exception@std@@8
rdata$r	SEGMENT
??_R3exception@std@@8 DD 00H				; std::exception::`RTTI Class Hierarchy Descriptor'
	DD	00H
	DD	01H
	DD	FLAT:??_R2exception@std@@8
rdata$r	ENDS
;	COMDAT ??_R4exception@std@@6B@
rdata$r	SEGMENT
??_R4exception@std@@6B@ DD 00H				; std::exception::`RTTI Complete Object Locator'
	DD	00H
	DD	00H
	DD	FLAT:??_R0?AVexception@std@@@8
	DD	FLAT:??_R3exception@std@@8
rdata$r	ENDS
;	COMDAT ??_C@_0BA@FOIKENOD@vector?5too?5long@
CONST	SEGMENT
??_C@_0BA@FOIKENOD@vector?5too?5long@ DB 'vector too long', 00H ; `string'
CONST	ENDS
;	COMDAT ??_C@_0BB@GCADKGJO@map?1set?5too?5long@
CONST	SEGMENT
??_C@_0BB@GCADKGJO@map?1set?5too?5long@ DB 'map/set too long', 00H ; `string'
CONST	ENDS
;	COMDAT ??_C@_0BA@JFNIOLAK@string?5too?5long@
CONST	SEGMENT
??_C@_0BA@JFNIOLAK@string?5too?5long@ DB 'string too long', 00H ; `string'
CONST	ENDS
;	COMDAT __CT??_R0?AVexception@std@@@8??0exception@std@@QAE@ABV01@@Z12
xdata$x	SEGMENT
__CT??_R0?AVexception@std@@@8??0exception@std@@QAE@ABV01@@Z12 DD 00H
	DD	FLAT:??_R0?AVexception@std@@@8
	DD	00H
	DD	0ffffffffH
	ORG $+4
	DD	0cH
	DD	FLAT:??0exception@std@@QAE@ABV01@@Z
xdata$x	ENDS
;	COMDAT ??_R0?AVexception@std@@@8
data$r	SEGMENT
??_R0?AVexception@std@@@8 DD FLAT:??_7type_info@@6B@	; std::exception `RTTI Type Descriptor'
	DD	00H
	DB	'.?AVexception@std@@', 00H
data$r	ENDS
;	COMDAT __CT??_R0?AVbad_alloc@std@@@8??0bad_alloc@std@@QAE@ABV01@@Z12
xdata$x	SEGMENT
__CT??_R0?AVbad_alloc@std@@@8??0bad_alloc@std@@QAE@ABV01@@Z12 DD 010H
	DD	FLAT:??_R0?AVbad_alloc@std@@@8
	DD	00H
	DD	0ffffffffH
	ORG $+4
	DD	0cH
	DD	FLAT:??0bad_alloc@std@@QAE@ABV01@@Z
xdata$x	ENDS
;	COMDAT ??_R0?AVbad_alloc@std@@@8
data$r	SEGMENT
??_R0?AVbad_alloc@std@@@8 DD FLAT:??_7type_info@@6B@	; std::bad_alloc `RTTI Type Descriptor'
	DD	00H
	DB	'.?AVbad_alloc@std@@', 00H
data$r	ENDS
;	COMDAT __CT??_R0?AVbad_array_new_length@std@@@8??0bad_array_new_length@std@@QAE@ABV01@@Z12
xdata$x	SEGMENT
__CT??_R0?AVbad_array_new_length@std@@@8??0bad_array_new_length@std@@QAE@ABV01@@Z12 DD 00H
	DD	FLAT:??_R0?AVbad_array_new_length@std@@@8
	DD	00H
	DD	0ffffffffH
	ORG $+4
	DD	0cH
	DD	FLAT:??0bad_array_new_length@std@@QAE@ABV01@@Z
xdata$x	ENDS
;	COMDAT ??_R0?AVbad_array_new_length@std@@@8
data$r	SEGMENT
??_R0?AVbad_array_new_length@std@@@8 DD FLAT:??_7type_info@@6B@ ; std::bad_array_new_length `RTTI Type Descriptor'
	DD	00H
	DB	'.?AVbad_array_new_length@std@@', 00H
data$r	ENDS
;	COMDAT __CTA3?AVbad_array_new_length@std@@
xdata$x	SEGMENT
__CTA3?AVbad_array_new_length@std@@ DD 03H
	DD	FLAT:__CT??_R0?AVbad_array_new_length@std@@@8??0bad_array_new_length@std@@QAE@ABV01@@Z12
	DD	FLAT:__CT??_R0?AVbad_alloc@std@@@8??0bad_alloc@std@@QAE@ABV01@@Z12
	DD	FLAT:__CT??_R0?AVexception@std@@@8??0exception@std@@QAE@ABV01@@Z12
xdata$x	ENDS
;	COMDAT __TI3?AVbad_array_new_length@std@@
xdata$x	SEGMENT
__TI3?AVbad_array_new_length@std@@ DD 00H
	DD	FLAT:??1bad_array_new_length@std@@UAE@XZ
	DD	00H
	DD	FLAT:__CTA3?AVbad_array_new_length@std@@
xdata$x	ENDS
;	COMDAT ??_C@_0BF@KINCDENJ@bad?5array?5new?5length@
CONST	SEGMENT
??_C@_0BF@KINCDENJ@bad?5array?5new?5length@ DB 'bad array new length', 00H ; `string'
CONST	ENDS
;	COMDAT ??_7bad_array_new_length@std@@6B@
CONST	SEGMENT
??_7bad_array_new_length@std@@6B@ DD FLAT:??_R4bad_array_new_length@std@@6B@ ; std::bad_array_new_length::`vftable'
	DD	FLAT:??_Ebad_array_new_length@std@@UAEPAXI@Z
	DD	FLAT:?what@exception@std@@UBEPBDXZ
CONST	ENDS
;	COMDAT ??_7bad_alloc@std@@6B@
CONST	SEGMENT
??_7bad_alloc@std@@6B@ DD FLAT:??_R4bad_alloc@std@@6B@	; std::bad_alloc::`vftable'
	DD	FLAT:??_Ebad_alloc@std@@UAEPAXI@Z
	DD	FLAT:?what@exception@std@@UBEPBDXZ
CONST	ENDS
;	COMDAT ??_C@_0BC@EOODALEL@Unknown?5exception@
CONST	SEGMENT
??_C@_0BC@EOODALEL@Unknown?5exception@ DB 'Unknown exception', 00H ; `string'
CONST	ENDS
;	COMDAT ??_7exception@std@@6B@
CONST	SEGMENT
??_7exception@std@@6B@ DD FLAT:??_R4exception@std@@6B@	; std::exception::`vftable'
	DD	FLAT:??_Eexception@std@@UAEPAXI@Z
	DD	FLAT:?what@exception@std@@UBEPBDXZ
CONST	ENDS
;	COMDAT xdata$x
xdata$x	SEGMENT
__unwindtable$??$?0U?$pair@$$CBKPAVCInstanceBase@@@std@@@?$_Tree_temp_node@V?$allocator@U?$_Tree_node@U?$pair@$$CBKPAVCInstanceBase@@@std@@PAX@std@@@std@@@std@@QAE@AAV?$allocator@U?$_Tree_node@U?$pair@$$CBKPAVCInstanceBase@@@std@@PAX@std@@@1@PAU?$_Tree_node@U?$pair@$$CBKPAVCInstanceBase@@@std@@PAX@1@$$QAU?$pair@$$CBKPAVCInstanceBase@@@1@@Z DD 0ffffffffH
	DD	FLAT:__unwindfunclet$??$?0U?$pair@$$CBKPAVCInstanceBase@@@std@@@?$_Tree_temp_node@V?$allocator@U?$_Tree_node@U?$pair@$$CBKPAVCInstanceBase@@@std@@PAX@std@@@std@@@std@@QAE@AAV?$allocator@U?$_Tree_node@U?$pair@$$CBKPAVCInstanceBase@@@std@@PAX@std@@@1@PAU?$_Tree_node@U?$pair@$$CBKPAVCInstanceBase@@@std@@PAX@1@$$QAU?$pair@$$CBKPAVCInstanceBase@@@1@@Z$1
__ehfuncinfo$??$?0U?$pair@$$CBKPAVCInstanceBase@@@std@@@?$_Tree_temp_node@V?$allocator@U?$_Tree_node@U?$pair@$$CBKPAVCInstanceBase@@@std@@PAX@std@@@std@@@std@@QAE@AAV?$allocator@U?$_Tree_node@U?$pair@$$CBKPAVCInstanceBase@@@std@@PAX@std@@@1@PAU?$_Tree_node@U?$pair@$$CBKPAVCInstanceBase@@@std@@PAX@1@$$QAU?$pair@$$CBKPAVCInstanceBase@@@1@@Z DD 019930522H
	DD	01H
	DD	FLAT:__unwindtable$??$?0U?$pair@$$CBKPAVCInstanceBase@@@std@@@?$_Tree_temp_node@V?$allocator@U?$_Tree_node@U?$pair@$$CBKPAVCInstanceBase@@@std@@PAX@std@@@std@@@std@@QAE@AAV?$allocator@U?$_Tree_node@U?$pair@$$CBKPAVCInstanceBase@@@std@@PAX@std@@@1@PAU?$_Tree_node@U?$pair@$$CBKPAVCInstanceBase@@@std@@PAX@1@$$QAU?$pair@$$CBKPAVCInstanceBase@@@1@@Z
	DD	2 DUP(00H)
	DD	2 DUP(00H)
	DD	00H
	DD	01H
xdata$x	ENDS
;	COMDAT xdata$x
xdata$x	SEGMENT
__unwindtable$??0?$_Tree_temp_node_alloc@V?$allocator@U?$_Tree_node@U?$pair@$$CBKPAVCInstanceBase@@@std@@PAX@std@@@std@@@std@@QAE@AAV?$allocator@U?$_Tree_node@U?$pair@$$CBKPAVCInstanceBase@@@std@@PAX@std@@@1@@Z DD 0ffffffffH
	DD	FLAT:__unwindfunclet$??0?$_Tree_temp_node_alloc@V?$allocator@U?$_Tree_node@U?$pair@$$CBKPAVCInstanceBase@@@std@@PAX@std@@@std@@@std@@QAE@AAV?$allocator@U?$_Tree_node@U?$pair@$$CBKPAVCInstanceBase@@@std@@PAX@std@@@1@@Z$0
__ehfuncinfo$??0?$_Tree_temp_node_alloc@V?$allocator@U?$_Tree_node@U?$pair@$$CBKPAVCInstanceBase@@@std@@PAX@std@@@std@@@std@@QAE@AAV?$allocator@U?$_Tree_node@U?$pair@$$CBKPAVCInstanceBase@@@std@@PAX@std@@@1@@Z DD 019930522H
	DD	01H
	DD	FLAT:__unwindtable$??0?$_Tree_temp_node_alloc@V?$allocator@U?$_Tree_node@U?$pair@$$CBKPAVCInstanceBase@@@std@@PAX@std@@@std@@@std@@QAE@AAV?$allocator@U?$_Tree_node@U?$pair@$$CBKPAVCInstanceBase@@@std@@PAX@std@@@1@@Z
	DD	2 DUP(00H)
	DD	2 DUP(00H)
	DD	00H
	DD	01H
xdata$x	ENDS
;	COMDAT xdata$x
xdata$x	SEGMENT
__unwindtable$??$?0ABQAVCInstanceBase@@@?$_List_node_emplace_op2@V?$allocator@U?$_List_node@PAVCInstanceBase@@PAX@std@@@std@@@std@@QAE@AAV?$allocator@U?$_List_node@PAVCInstanceBase@@PAX@std@@@1@ABQAVCInstanceBase@@@Z DD 0ffffffffH
	DD	FLAT:__unwindfunclet$??$?0ABQAVCInstanceBase@@@?$_List_node_emplace_op2@V?$allocator@U?$_List_node@PAVCInstanceBase@@PAX@std@@@std@@@std@@QAE@AAV?$allocator@U?$_List_node@PAVCInstanceBase@@PAX@std@@@1@ABQAVCInstanceBase@@@Z$0
__ehfuncinfo$??$?0ABQAVCInstanceBase@@@?$_List_node_emplace_op2@V?$allocator@U?$_List_node@PAVCInstanceBase@@PAX@std@@@std@@@std@@QAE@AAV?$allocator@U?$_List_node@PAVCInstanceBase@@PAX@std@@@1@ABQAVCInstanceBase@@@Z DD 019930522H
	DD	01H
	DD	FLAT:__unwindtable$??$?0ABQAVCInstanceBase@@@?$_List_node_emplace_op2@V?$allocator@U?$_List_node@PAVCInstanceBase@@PAX@std@@@std@@@std@@QAE@AAV?$allocator@U?$_List_node@PAVCInstanceBase@@PAX@std@@@1@ABQAVCInstanceBase@@@Z
	DD	2 DUP(00H)
	DD	2 DUP(00H)
	DD	00H
	DD	01H
xdata$x	ENDS
;	COMDAT xdata$x
xdata$x	SEGMENT
__unwindtable$??$_Emplace@U?$pair@$$CBKPAVCInstanceBase@@@std@@@?$_Tree@V?$_Tmap_traits@KPAVCInstanceBase@@U?$less@K@std@@V?$allocator@U?$pair@$$CBKPAVCInstanceBase@@@std@@@3@$0A@@std@@@std@@IAE?AU?$pair@PAU?$_Tree_node@U?$pair@$$CBKPAVCInstanceBase@@@std@@PAX@std@@_N@1@$$QAU?$pair@$$CBKPAVCInstanceBase@@@1@@Z DD 0ffffffffH
	DD	FLAT:__unwindfunclet$??$_Emplace@U?$pair@$$CBKPAVCInstanceBase@@@std@@@?$_Tree@V?$_Tmap_traits@KPAVCInstanceBase@@U?$less@K@std@@V?$allocator@U?$pair@$$CBKPAVCInstanceBase@@@std@@@3@$0A@@std@@@std@@IAE?AU?$pair@PAU?$_Tree_node@U?$pair@$$CBKPAVCInstanceBase@@@std@@PAX@std@@_N@1@$$QAU?$pair@$$CBKPAVCInstanceBase@@@1@@Z$2
__ehfuncinfo$??$_Emplace@U?$pair@$$CBKPAVCInstanceBase@@@std@@@?$_Tree@V?$_Tmap_traits@KPAVCInstanceBase@@U?$less@K@std@@V?$allocator@U?$pair@$$CBKPAVCInstanceBase@@@std@@@3@$0A@@std@@@std@@IAE?AU?$pair@PAU?$_Tree_node@U?$pair@$$CBKPAVCInstanceBase@@@std@@PAX@std@@_N@1@$$QAU?$pair@$$CBKPAVCInstanceBase@@@1@@Z DD 019930522H
	DD	01H
	DD	FLAT:__unwindtable$??$_Emplace@U?$pair@$$CBKPAVCInstanceBase@@@std@@@?$_Tree@V?$_Tmap_traits@KPAVCInstanceBase@@U?$less@K@std@@V?$allocator@U?$pair@$$CBKPAVCInstanceBase@@@std@@@3@$0A@@std@@@std@@IAE?AU?$pair@PAU?$_Tree_node@U?$pair@$$CBKPAVCInstanceBase@@@std@@PAX@std@@_N@1@$$QAU?$pair@$$CBKPAVCInstanceBase@@@1@@Z
	DD	2 DUP(00H)
	DD	2 DUP(00H)
	DD	00H
	DD	01H
xdata$x	ENDS
;	COMDAT xdata$x
xdata$x	SEGMENT
__unwindtable$??$_Emplace@ABQAVCInstanceBase@@@?$list@PAVCInstanceBase@@V?$allocator@PAVCInstanceBase@@@std@@@std@@QAEPAU?$_List_node@PAVCInstanceBase@@PAX@1@QAU21@ABQAVCInstanceBase@@@Z DD 0ffffffffH
	DD	FLAT:__unwindfunclet$??$_Emplace@ABQAVCInstanceBase@@@?$list@PAVCInstanceBase@@V?$allocator@PAVCInstanceBase@@@std@@@std@@QAEPAU?$_List_node@PAVCInstanceBase@@PAX@1@QAU21@ABQAVCInstanceBase@@@Z$1
__ehfuncinfo$??$_Emplace@ABQAVCInstanceBase@@@?$list@PAVCInstanceBase@@V?$allocator@PAVCInstanceBase@@@std@@@std@@QAEPAU?$_List_node@PAVCInstanceBase@@PAX@1@QAU21@ABQAVCInstanceBase@@@Z DD 019930522H
	DD	01H
	DD	FLAT:__unwindtable$??$_Emplace@ABQAVCInstanceBase@@@?$list@PAVCInstanceBase@@V?$allocator@PAVCInstanceBase@@@std@@@std@@QAEPAU?$_List_node@PAVCInstanceBase@@PAX@1@QAU21@ABQAVCInstanceBase@@@Z
	DD	2 DUP(00H)
	DD	2 DUP(00H)
	DD	00H
	DD	01H
xdata$x	ENDS
;	COMDAT xdata$x
xdata$x	SEGMENT
__unwindtable$??$insert@$0A@$0A@@?$_Tree@V?$_Tmap_traits@KPAVCInstanceBase@@U?$less@K@std@@V?$allocator@U?$pair@$$CBKPAVCInstanceBase@@@std@@@3@$0A@@std@@@std@@QAE?AU?$pair@V?$_Tree_iterator@V?$_Tree_val@U?$_Tree_simple_types@U?$pair@$$CBKPAVCInstanceBase@@@std@@@std@@@std@@@std@@_N@1@$$QAU?$pair@$$CBKPAVCInstanceBase@@@1@@Z DD 0ffffffffH
	DD	FLAT:__unwindfunclet$??$insert@$0A@$0A@@?$_Tree@V?$_Tmap_traits@KPAVCInstanceBase@@U?$less@K@std@@V?$allocator@U?$pair@$$CBKPAVCInstanceBase@@@std@@@3@$0A@@std@@@std@@QAE?AU?$pair@V?$_Tree_iterator@V?$_Tree_val@U?$_Tree_simple_types@U?$pair@$$CBKPAVCInstanceBase@@@std@@@std@@@std@@@std@@_N@1@$$QAU?$pair@$$CBKPAVCInstanceBase@@@1@@Z$2
__ehfuncinfo$??$insert@$0A@$0A@@?$_Tree@V?$_Tmap_traits@KPAVCInstanceBase@@U?$less@K@std@@V?$allocator@U?$pair@$$CBKPAVCInstanceBase@@@std@@@3@$0A@@std@@@std@@QAE?AU?$pair@V?$_Tree_iterator@V?$_Tree_val@U?$_Tree_simple_types@U?$pair@$$CBKPAVCInstanceBase@@@std@@@std@@@std@@@std@@_N@1@$$QAU?$pair@$$CBKPAVCInstanceBase@@@1@@Z DD 019930522H
	DD	01H
	DD	FLAT:__unwindtable$??$insert@$0A@$0A@@?$_Tree@V?$_Tmap_traits@KPAVCInstanceBase@@U?$less@K@std@@V?$allocator@U?$pair@$$CBKPAVCInstanceBase@@@std@@@3@$0A@@std@@@std@@QAE?AU?$pair@V?$_Tree_iterator@V?$_Tree_val@U?$_Tree_simple_types@U?$pair@$$CBKPAVCInstanceBase@@@std@@@std@@@std@@@std@@_N@1@$$QAU?$pair@$$CBKPAVCInstanceBase@@@1@@Z
	DD	2 DUP(00H)
	DD	2 DUP(00H)
	DD	00H
	DD	01H
xdata$x	ENDS
;	COMDAT xdata$x
xdata$x	SEGMENT
__unwindtable$?push_back@?$list@PAVCInstanceBase@@V?$allocator@PAVCInstanceBase@@@std@@@std@@QAEXABQAVCInstanceBase@@@Z DD 0ffffffffH
	DD	FLAT:__unwindfunclet$?push_back@?$list@PAVCInstanceBase@@V?$allocator@PAVCInstanceBase@@@std@@@std@@QAEXABQAVCInstanceBase@@@Z$1
__ehfuncinfo$?push_back@?$list@PAVCInstanceBase@@V?$allocator@PAVCInstanceBase@@@std@@@std@@QAEXABQAVCInstanceBase@@@Z DD 019930522H
	DD	01H
	DD	FLAT:__unwindtable$?push_back@?$list@PAVCInstanceBase@@V?$allocator@PAVCInstanceBase@@@std@@@std@@QAEXABQAVCInstanceBase@@@Z
	DD	2 DUP(00H)
	DD	2 DUP(00H)
	DD	00H
	DD	01H
xdata$x	ENDS
;	COMDAT xdata$x
xdata$x	SEGMENT
__unwindtable$?__DeleteBlendOutInstance@CPythonCharacterManager@@IAEXPAVCInstanceBase@@@Z DD 0ffffffffH
	DD	FLAT:__unwindfunclet$?__DeleteBlendOutInstance@CPythonCharacterManager@@IAEXPAVCInstanceBase@@@Z$1
__ehfuncinfo$?__DeleteBlendOutInstance@CPythonCharacterManager@@IAEXPAVCInstanceBase@@@Z DD 019930522H
	DD	01H
	DD	FLAT:__unwindtable$?__DeleteBlendOutInstance@CPythonCharacterManager@@IAEXPAVCInstanceBase@@@Z
	DD	2 DUP(00H)
	DD	2 DUP(00H)
	DD	00H
	DD	01H
xdata$x	ENDS
;	COMDAT xdata$x
xdata$x	SEGMENT
__unwindtable$?RegisterInstance@CPythonCharacterManager@@QAEPAVCInstanceBase@@K@Z DD 0ffffffffH
	DD	FLAT:__unwindfunclet$?RegisterInstance@CPythonCharacterManager@@QAEPAVCInstanceBase@@K@Z$2
__ehfuncinfo$?RegisterInstance@CPythonCharacterManager@@QAEPAVCInstanceBase@@K@Z DD 019930522H
	DD	01H
	DD	FLAT:__unwindtable$?RegisterInstance@CPythonCharacterManager@@QAEPAVCInstanceBase@@K@Z
	DD	2 DUP(00H)
	DD	2 DUP(00H)
	DD	00H
	DD	01H
xdata$x	ENDS
;	COMDAT xdata$x
xdata$x	SEGMENT
__ehfuncinfo$??1CPythonCharacterManager@@UAE@XZ DD 019930522H
	DD	00H
	DD	00H
	DD	2 DUP(00H)
	DD	2 DUP(00H)
	DD	00H
	DD	05H
xdata$x	ENDS
;	COMDAT xdata$x
xdata$x	SEGMENT
__unwindtable$??0CPythonCharacterManager@@QAE@XZ DD 0ffffffffH
	DD	FLAT:__unwindfunclet$??0CPythonCharacterManager@@QAE@XZ$0
	DD	00H
	DD	FLAT:__unwindfunclet$??0CPythonCharacterManager@@QAE@XZ$1
	DD	01H
	DD	FLAT:__unwindfunclet$??0CPythonCharacterManager@@QAE@XZ$2
	DD	02H
	DD	FLAT:__unwindfunclet$??0CPythonCharacterManager@@QAE@XZ$3
__ehfuncinfo$??0CPythonCharacterManager@@QAE@XZ DD 019930522H
	DD	04H
	DD	FLAT:__unwindtable$??0CPythonCharacterManager@@QAE@XZ
	DD	2 DUP(00H)
	DD	2 DUP(00H)
	DD	00H
	DD	01H
xdata$x	ENDS
;	COMDAT CRT$XCU
CRT$XCU	SEGMENT
??ms_kPool$initializer$@?$CPooledObject@VCNullDecorator@NEffectUpdateDecorator@@@@1P6AXXZA@@3P6AXXZA DD FLAT:??__E?ms_kPool@?$CPooledObject@VCNullDecorator@NEffectUpdateDecorator@@@@1V?$CDynamicPoolEx@VCNullDecorator@NEffectUpdateDecorator@@@@A@@YAXXZ ; ??ms_kPool$initializer$@?$CPooledObject@VCNullDecorator@NEffectUpdateDecorator@@@@1P6AXXZA@@3P6AXXZA
CRT$XCU	ENDS
;	COMDAT CRT$XCU
CRT$XCU	SEGMENT
??ms_kPool$initializer$@?$CPooledObject@VCTextureAnimationCWDecorator@NEffectUpdateDecorator@@@@1P6AXXZA@@3P6AXXZA DD FLAT:??__E?ms_kPool@?$CPooledObject@VCTextureAnimationCWDecorator@NEffectUpdateDecorator@@@@1V?$CDynamicPoolEx@VCTextureAnimationCWDecorator@NEffectUpdateDecorator@@@@A@@YAXXZ ; ??ms_kPool$initializer$@?$CPooledObject@VCTextureAnimationCWDecorator@NEffectUpdateDecorator@@@@1P6AXXZA@@3P6AXXZA
CRT$XCU	ENDS
;	COMDAT CRT$XCU
CRT$XCU	SEGMENT
??ms_kPool$initializer$@?$CPooledObject@VCTextureAnimationCCWDecorator@NEffectUpdateDecorator@@@@1P6AXXZA@@3P6AXXZA DD FLAT:??__E?ms_kPool@?$CPooledObject@VCTextureAnimationCCWDecorator@NEffectUpdateDecorator@@@@1V?$CDynamicPoolEx@VCTextureAnimationCCWDecorator@NEffectUpdateDecorator@@@@A@@YAXXZ ; ??ms_kPool$initializer$@?$CPooledObject@VCTextureAnimationCCWDecorator@NEffectUpdateDecorator@@@@1P6AXXZA@@3P6AXXZA
CRT$XCU	ENDS
;	COMDAT CRT$XCU
CRT$XCU	SEGMENT
??ms_kPool$initializer$@?$CPooledObject@VCTextureAnimationRandomDecorator@NEffectUpdateDecorator@@@@1P6AXXZA@@3P6AXXZA DD FLAT:??__E?ms_kPool@?$CPooledObject@VCTextureAnimationRandomDecorator@NEffectUpdateDecorator@@@@1V?$CDynamicPoolEx@VCTextureAnimationRandomDecorator@NEffectUpdateDecorator@@@@A@@YAXXZ ; ??ms_kPool$initializer$@?$CPooledObject@VCTextureAnimationRandomDecorator@NEffectUpdateDecorator@@@@1P6AXXZA@@3P6AXXZA
CRT$XCU	ENDS
;	COMDAT CRT$XCU
CRT$XCU	SEGMENT
??ms_kPool$initializer$@?$CPooledObject@VCAirResistanceDecorator@NEffectUpdateDecorator@@@@1P6AXXZA@@3P6AXXZA DD FLAT:??__E?ms_kPool@?$CPooledObject@VCAirResistanceDecorator@NEffectUpdateDecorator@@@@1V?$CDynamicPoolEx@VCAirResistanceDecorator@NEffectUpdateDecorator@@@@A@@YAXXZ ; ??ms_kPool$initializer$@?$CPooledObject@VCAirResistanceDecorator@NEffectUpdateDecorator@@@@1P6AXXZA@@3P6AXXZA
CRT$XCU	ENDS
;	COMDAT CRT$XCU
CRT$XCU	SEGMENT
??ms_kPool$initializer$@?$CPooledObject@VCGravityDecorator@NEffectUpdateDecorator@@@@1P6AXXZA@@3P6AXXZA DD FLAT:??__E?ms_kPool@?$CPooledObject@VCGravityDecorator@NEffectUpdateDecorator@@@@1V?$CDynamicPoolEx@VCGravityDecorator@NEffectUpdateDecorator@@@@A@@YAXXZ ; ??ms_kPool$initializer$@?$CPooledObject@VCGravityDecorator@NEffectUpdateDecorator@@@@1P6AXXZA@@3P6AXXZA
CRT$XCU	ENDS
;	COMDAT CRT$XCU
CRT$XCU	SEGMENT
??ms_kPool$initializer$@?$CPooledObject@VCRotationDecorator@NEffectUpdateDecorator@@@@1P6AXXZA@@3P6AXXZA DD FLAT:??__E?ms_kPool@?$CPooledObject@VCRotationDecorator@NEffectUpdateDecorator@@@@1V?$CDynamicPoolEx@VCRotationDecorator@NEffectUpdateDecorator@@@@A@@YAXXZ ; ??ms_kPool$initializer$@?$CPooledObject@VCRotationDecorator@NEffectUpdateDecorator@@@@1P6AXXZA@@3P6AXXZA
CRT$XCU	ENDS
; Function compile flags: /Odsp
;	COMDAT ??_ECPythonCharacterManager@@W7AEPAXI@Z
_TEXT	SEGMENT
??_ECPythonCharacterManager@@W7AEPAXI@Z PROC		; [thunk]:CPythonCharacterManager::`vector deleting destructor', COMDAT
  00000	83 e9 08	 sub	 ecx, 8
  00003	e9 00 00 00 00	 jmp	 ??_ECPythonCharacterManager@@UAEPAXI@Z
??_ECPythonCharacterManager@@W7AEPAXI@Z ENDP		; [thunk]:CPythonCharacterManager::`vector deleting destructor'
_TEXT	ENDS
; Function compile flags: /Odsp
;	COMDAT ??_ECPythonCharacterManager@@W3AEPAXI@Z
_TEXT	SEGMENT
??_ECPythonCharacterManager@@W3AEPAXI@Z PROC		; [thunk]:CPythonCharacterManager::`vector deleting destructor', COMDAT
  00000	83 e9 04	 sub	 ecx, 4
  00003	e9 00 00 00 00	 jmp	 ??_ECPythonCharacterManager@@UAEPAXI@Z
??_ECPythonCharacterManager@@W3AEPAXI@Z ENDP		; [thunk]:CPythonCharacterManager::`vector deleting destructor'
_TEXT	ENDS
; Function compile flags: /Ogtp
; File C:\Program Files (x86)\Microsoft Visual Studio\2019\Community\VC\Tools\MSVC\14.28.29333\include\algorithm
; File C:\Program Files (x86)\Microsoft Visual Studio\2019\Community\VC\Tools\MSVC\14.28.29333\include\xutility
; File C:\Program Files (x86)\Microsoft Visual Studio\2019\Community\VC\Tools\MSVC\14.28.29333\include\algorithm
; File C:\Program Files (x86)\Microsoft Visual Studio\2019\Community\VC\Tools\MSVC\14.28.29333\include\xutility
; File C:\Program Files (x86)\Microsoft Visual Studio\2019\Community\VC\Tools\MSVC\14.28.29333\include\algorithm
; File C:\Program Files (x86)\Microsoft Visual Studio\2019\Community\VC\Tools\MSVC\14.28.29333\include\xutility
; File D:\Metin2 Server Files\mainline\SRC_2014\Metin2Client\UserInterface\PythonCharacterManager.cpp
; File C:\Program Files (x86)\Microsoft Visual Studio\2019\Community\VC\Tools\MSVC\14.28.29333\include\xutility
; File D:\Metin2 Server Files\mainline\SRC_2014\Metin2Client\UserInterface\PythonCharacterManager.cpp
; File C:\Program Files (x86)\Microsoft Visual Studio\2019\Community\VC\Tools\MSVC\14.28.29333\include\utility
; File C:\Program Files (x86)\Microsoft Visual Studio\2019\Community\VC\Tools\MSVC\14.28.29333\include\xutility
; File D:\Metin2 Server Files\mainline\SRC_2014\Metin2Client\UserInterface\PythonCharacterManager.cpp
; File C:\Program Files (x86)\Microsoft Visual Studio\2019\Community\VC\Tools\MSVC\14.28.29333\include\xutility
; File D:\Metin2 Server Files\mainline\SRC_2014\Metin2Client\UserInterface\PythonCharacterManager.cpp
; File C:\Program Files (x86)\Microsoft Visual Studio\2019\Community\VC\Tools\MSVC\14.28.29333\include\utility
; File D:\Metin2 Server Files\mainline\SRC_2014\Metin2Client\UserInterface\PythonCharacterManager.cpp
; File C:\Program Files (x86)\Microsoft Visual Studio\2019\Community\VC\Tools\MSVC\14.28.29333\include\utility
; File C:\Program Files (x86)\Microsoft Visual Studio\2019\Community\VC\Tools\MSVC\14.28.29333\include\xutility
; File C:\Program Files (x86)\Microsoft Visual Studio\2019\Community\VC\Tools\MSVC\14.28.29333\include\utility
; File C:\Program Files (x86)\Microsoft Visual Studio\2019\Community\VC\Tools\MSVC\14.28.29333\include\xutility
; File D:\Metin2 Server Files\mainline\SRC_2014\Metin2Client\UserInterface\PythonCharacterManager.cpp
; File C:\Program Files (x86)\Microsoft Visual Studio\2019\Community\VC\Tools\MSVC\14.28.29333\include\utility
; File C:\Program Files (x86)\Microsoft Visual Studio\2019\Community\VC\Tools\MSVC\14.28.29333\include\algorithm
;	COMDAT ??$_Med3_unchecked@PAPAVCInstanceBase@@U?$_Ref_fn@UCInstanceBase_SLessCameraDistance@@@std@@@std@@YAXPAPAVCInstanceBase@@00U?$_Ref_fn@UCInstanceBase_SLessCameraDistance@@@0@@Z
_TEXT	SEGMENT
_pkInstLeft$1$ = -4					; size = 4
_pkInstLeft$1$ = -4					; size = 4
_this$1$ = 8						; size = 4
_pkInstRight$1$ = 8					; size = 4
tv227 = 8						; size = 4
tv216 = 8						; size = 4
tv177 = 8						; size = 4
_pkInstRight$1$ = 8					; size = 4
__First$ = 8						; size = 4
__Tmp$1$ = 12						; size = 4
_this$1$ = 12						; size = 4
tv231 = 12						; size = 4
tv220 = 12						; size = 4
_this$1$ = 12						; size = 4
__Mid$ = 12						; size = 4
_pkInstRight$1$ = 16					; size = 4
__Last$ = 16						; size = 4
tv206 = 20						; size = 4
__Pred$ = 20						; size = 4
??$_Med3_unchecked@PAPAVCInstanceBase@@U?$_Ref_fn@UCInstanceBase_SLessCameraDistance@@@std@@@std@@YAXPAPAVCInstanceBase@@00U?$_Ref_fn@UCInstanceBase_SLessCameraDistance@@@0@@Z PROC ; std::_Med3_unchecked<CInstanceBase * *,std::_Ref_fn<CInstanceBase_SLessCameraDistance> >, COMDAT

; 7434 : _CONSTEXPR20 void _Med3_unchecked(_RanIt _First, _RanIt _Mid, _RanIt _Last, _Pr _Pred) {

  00000	55		 push	 ebp
  00001	8b ec		 mov	 ebp, esp
  00003	51		 push	 ecx
; File C:\Program Files (x86)\Microsoft Visual Studio\2019\Community\VC\Tools\MSVC\14.28.29333\include\xutility

; 203  :             return _Fn(_STD forward<_Args>(_Vals)...);

  00004	8b 4d 14	 mov	 ecx, DWORD PTR __Pred$[ebp]
; File C:\Program Files (x86)\Microsoft Visual Studio\2019\Community\VC\Tools\MSVC\14.28.29333\include\algorithm

; 7434 : _CONSTEXPR20 void _Med3_unchecked(_RanIt _First, _RanIt _Mid, _RanIt _Last, _Pr _Pred) {

  00007	53		 push	 ebx
; File C:\Program Files (x86)\Microsoft Visual Studio\2019\Community\VC\Tools\MSVC\14.28.29333\include\xutility

; 203  :             return _Fn(_STD forward<_Args>(_Vals)...);

  00008	8b 5d 08	 mov	 ebx, DWORD PTR __First$[ebp]
; File C:\Program Files (x86)\Microsoft Visual Studio\2019\Community\VC\Tools\MSVC\14.28.29333\include\algorithm

; 7434 : _CONSTEXPR20 void _Med3_unchecked(_RanIt _First, _RanIt _Mid, _RanIt _Last, _Pr _Pred) {

  0000b	56		 push	 esi
  0000c	57		 push	 edi
; File C:\Program Files (x86)\Microsoft Visual Studio\2019\Community\VC\Tools\MSVC\14.28.29333\include\xutility

; 203  :             return _Fn(_STD forward<_Args>(_Vals)...);

  0000d	8b 7d 0c	 mov	 edi, DWORD PTR __Mid$[ebp]
  00010	8b 03		 mov	 eax, DWORD PTR [ebx]
  00012	89 45 08	 mov	 DWORD PTR _pkInstRight$1$[ebp], eax
  00015	89 4d 0c	 mov	 DWORD PTR _this$1$[ebp], ecx
  00018	8b 07		 mov	 eax, DWORD PTR [edi]
; File D:\Metin2 Server Files\mainline\SRC_2014\Metin2Client\UserInterface\PythonCharacterManager.cpp

; 714  : 		int nLeftDeadPoint=pkInstLeft->IsDead();

  0001a	8b c8		 mov	 ecx, eax
; File C:\Program Files (x86)\Microsoft Visual Studio\2019\Community\VC\Tools\MSVC\14.28.29333\include\xutility

; 203  :             return _Fn(_STD forward<_Args>(_Vals)...);

  0001c	89 45 fc	 mov	 DWORD PTR _pkInstLeft$1$[ebp], eax
; File D:\Metin2 Server Files\mainline\SRC_2014\Metin2Client\UserInterface\PythonCharacterManager.cpp

; 714  : 		int nLeftDeadPoint=pkInstLeft->IsDead();

  0001f	e8 00 00 00 00	 call	 ?IsDead@CInstanceBase@@QAEHXZ ; CInstanceBase::IsDead

; 715  : 		int nRightDeadPoint=pkInstRight->IsDead();

  00024	8b 4d 08	 mov	 ecx, DWORD PTR _pkInstRight$1$[ebp]
  00027	8b f0		 mov	 esi, eax
  00029	e8 00 00 00 00	 call	 ?IsDead@CInstanceBase@@QAEHXZ ; CInstanceBase::IsDead

; 716  : 
; 717  : 		if (nLeftDeadPoint<nRightDeadPoint)

  0002e	3b f0		 cmp	 esi, eax
  00030	7c 26		 jl	 SHORT $LN37@Med3_unche

; 718  : 			return true;
; 719  : 
; 720  : 		if (pkInstLeft->CalculateDistanceSq3d(m_kPPosEye)<pkInstRight->CalculateDistanceSq3d(m_kPPosEye))

  00032	8b 75 0c	 mov	 esi, DWORD PTR _this$1$[ebp]
  00035	8b 4d fc	 mov	 ecx, DWORD PTR _pkInstLeft$1$[ebp]
  00038	56		 push	 esi
  00039	e8 00 00 00 00	 call	 ?CalculateDistanceSq3d@CInstanceBase@@QAEMABUD3DXVECTOR3@@@Z ; CInstanceBase::CalculateDistanceSq3d
  0003e	8b 4d 08	 mov	 ecx, DWORD PTR _pkInstRight$1$[ebp]
  00041	d9 5d 0c	 fstp	 DWORD PTR tv231[ebp]
  00044	56		 push	 esi
  00045	e8 00 00 00 00	 call	 ?CalculateDistanceSq3d@CInstanceBase@@QAEMABUD3DXVECTOR3@@@Z ; CInstanceBase::CalculateDistanceSq3d
  0004a	d9 5d 08	 fstp	 DWORD PTR tv227[ebp]
  0004d	f3 0f 10 45 08	 movss	 xmm0, DWORD PTR tv227[ebp]
  00052	0f 2f 45 0c	 comiss	 xmm0, DWORD PTR tv231[ebp]
  00056	76 08		 jbe	 SHORT $LN36@Med3_unche
$LN37@Med3_unche:
; File C:\Program Files (x86)\Microsoft Visual Studio\2019\Community\VC\Tools\MSVC\14.28.29333\include\utility

; 104  :     _Ty _Tmp = _STD move(_Left);

  00058	8b 0f		 mov	 ecx, DWORD PTR [edi]

; 105  :     _Left    = _STD move(_Right);

  0005a	8b 03		 mov	 eax, DWORD PTR [ebx]
  0005c	89 07		 mov	 DWORD PTR [edi], eax

; 106  :     _Right   = _STD move(_Tmp);

  0005e	89 0b		 mov	 DWORD PTR [ebx], ecx
$LN36@Med3_unche:
; File C:\Program Files (x86)\Microsoft Visual Studio\2019\Community\VC\Tools\MSVC\14.28.29333\include\xutility

; 203  :             return _Fn(_STD forward<_Args>(_Vals)...);

  00060	8b 07		 mov	 eax, DWORD PTR [edi]
  00062	8b 4d 14	 mov	 ecx, DWORD PTR __Pred$[ebp]
  00065	89 45 08	 mov	 DWORD PTR _pkInstRight$1$[ebp], eax
  00068	8b 45 10	 mov	 eax, DWORD PTR __Last$[ebp]
  0006b	89 4d 0c	 mov	 DWORD PTR _this$1$[ebp], ecx
  0006e	8b 00		 mov	 eax, DWORD PTR [eax]
; File D:\Metin2 Server Files\mainline\SRC_2014\Metin2Client\UserInterface\PythonCharacterManager.cpp

; 714  : 		int nLeftDeadPoint=pkInstLeft->IsDead();

  00070	8b c8		 mov	 ecx, eax
; File C:\Program Files (x86)\Microsoft Visual Studio\2019\Community\VC\Tools\MSVC\14.28.29333\include\xutility

; 203  :             return _Fn(_STD forward<_Args>(_Vals)...);

  00072	89 45 fc	 mov	 DWORD PTR _pkInstLeft$1$[ebp], eax
; File D:\Metin2 Server Files\mainline\SRC_2014\Metin2Client\UserInterface\PythonCharacterManager.cpp

; 714  : 		int nLeftDeadPoint=pkInstLeft->IsDead();

  00075	e8 00 00 00 00	 call	 ?IsDead@CInstanceBase@@QAEHXZ ; CInstanceBase::IsDead

; 715  : 		int nRightDeadPoint=pkInstRight->IsDead();

  0007a	8b 4d 08	 mov	 ecx, DWORD PTR _pkInstRight$1$[ebp]
  0007d	8b f0		 mov	 esi, eax
  0007f	e8 00 00 00 00	 call	 ?IsDead@CInstanceBase@@QAEHXZ ; CInstanceBase::IsDead

; 716  : 
; 717  : 		if (nLeftDeadPoint<nRightDeadPoint)

  00084	3b f0		 cmp	 esi, eax
  00086	7c 26		 jl	 SHORT $LN38@Med3_unche

; 718  : 			return true;
; 719  : 
; 720  : 		if (pkInstLeft->CalculateDistanceSq3d(m_kPPosEye)<pkInstRight->CalculateDistanceSq3d(m_kPPosEye))

  00088	8b 75 0c	 mov	 esi, DWORD PTR _this$1$[ebp]
  0008b	8b 4d fc	 mov	 ecx, DWORD PTR _pkInstLeft$1$[ebp]
  0008e	56		 push	 esi
  0008f	e8 00 00 00 00	 call	 ?CalculateDistanceSq3d@CInstanceBase@@QAEMABUD3DXVECTOR3@@@Z ; CInstanceBase::CalculateDistanceSq3d
  00094	8b 4d 08	 mov	 ecx, DWORD PTR _pkInstRight$1$[ebp]
  00097	d9 5d 0c	 fstp	 DWORD PTR tv220[ebp]
  0009a	56		 push	 esi
  0009b	e8 00 00 00 00	 call	 ?CalculateDistanceSq3d@CInstanceBase@@QAEMABUD3DXVECTOR3@@@Z ; CInstanceBase::CalculateDistanceSq3d
  000a0	d9 5d 08	 fstp	 DWORD PTR tv216[ebp]
  000a3	f3 0f 10 45 08	 movss	 xmm0, DWORD PTR tv216[ebp]
  000a8	0f 2f 45 0c	 comiss	 xmm0, DWORD PTR tv220[ebp]
  000ac	76 5c		 jbe	 SHORT $LN35@Med3_unche
$LN38@Med3_unche:
; File C:\Program Files (x86)\Microsoft Visual Studio\2019\Community\VC\Tools\MSVC\14.28.29333\include\utility

; 104  :     _Ty _Tmp = _STD move(_Left);

  000ae	8b 4d 10	 mov	 ecx, DWORD PTR __Last$[ebp]

; 105  :     _Left    = _STD move(_Right);

  000b1	8b 07		 mov	 eax, DWORD PTR [edi]
  000b3	8b 11		 mov	 edx, DWORD PTR [ecx]
  000b5	89 01		 mov	 DWORD PTR [ecx], eax
; File D:\Metin2 Server Files\mainline\SRC_2014\Metin2Client\UserInterface\PythonCharacterManager.cpp

; 714  : 		int nLeftDeadPoint=pkInstLeft->IsDead();

  000b7	8b ca		 mov	 ecx, edx
; File C:\Program Files (x86)\Microsoft Visual Studio\2019\Community\VC\Tools\MSVC\14.28.29333\include\utility

; 106  :     _Right   = _STD move(_Tmp);

  000b9	89 17		 mov	 DWORD PTR [edi], edx
; File C:\Program Files (x86)\Microsoft Visual Studio\2019\Community\VC\Tools\MSVC\14.28.29333\include\xutility

; 203  :             return _Fn(_STD forward<_Args>(_Vals)...);

  000bb	8b 03		 mov	 eax, DWORD PTR [ebx]
  000bd	89 45 10	 mov	 DWORD PTR _pkInstRight$1$[ebp], eax
  000c0	8b 45 14	 mov	 eax, DWORD PTR __Pred$[ebp]
; File C:\Program Files (x86)\Microsoft Visual Studio\2019\Community\VC\Tools\MSVC\14.28.29333\include\utility

; 104  :     _Ty _Tmp = _STD move(_Left);

  000c3	89 55 0c	 mov	 DWORD PTR __Tmp$1$[ebp], edx
; File C:\Program Files (x86)\Microsoft Visual Studio\2019\Community\VC\Tools\MSVC\14.28.29333\include\xutility

; 203  :             return _Fn(_STD forward<_Args>(_Vals)...);

  000c6	89 45 08	 mov	 DWORD PTR _this$1$[ebp], eax
; File D:\Metin2 Server Files\mainline\SRC_2014\Metin2Client\UserInterface\PythonCharacterManager.cpp

; 714  : 		int nLeftDeadPoint=pkInstLeft->IsDead();

  000c9	e8 00 00 00 00	 call	 ?IsDead@CInstanceBase@@QAEHXZ ; CInstanceBase::IsDead

; 715  : 		int nRightDeadPoint=pkInstRight->IsDead();

  000ce	8b 4d 10	 mov	 ecx, DWORD PTR _pkInstRight$1$[ebp]
  000d1	8b f0		 mov	 esi, eax
  000d3	e8 00 00 00 00	 call	 ?IsDead@CInstanceBase@@QAEHXZ ; CInstanceBase::IsDead

; 716  : 
; 717  : 		if (nLeftDeadPoint<nRightDeadPoint)

  000d8	3b f0		 cmp	 esi, eax
  000da	7c 26		 jl	 SHORT $LN39@Med3_unche

; 718  : 			return true;
; 719  : 
; 720  : 		if (pkInstLeft->CalculateDistanceSq3d(m_kPPosEye)<pkInstRight->CalculateDistanceSq3d(m_kPPosEye))

  000dc	8b 75 08	 mov	 esi, DWORD PTR _this$1$[ebp]
  000df	8b 4d 0c	 mov	 ecx, DWORD PTR __Tmp$1$[ebp]
  000e2	56		 push	 esi
  000e3	e8 00 00 00 00	 call	 ?CalculateDistanceSq3d@CInstanceBase@@QAEMABUD3DXVECTOR3@@@Z ; CInstanceBase::CalculateDistanceSq3d
  000e8	8b 4d 10	 mov	 ecx, DWORD PTR _pkInstRight$1$[ebp]
  000eb	d9 5d 08	 fstp	 DWORD PTR tv177[ebp]
  000ee	56		 push	 esi
  000ef	e8 00 00 00 00	 call	 ?CalculateDistanceSq3d@CInstanceBase@@QAEMABUD3DXVECTOR3@@@Z ; CInstanceBase::CalculateDistanceSq3d
  000f4	d9 5d 14	 fstp	 DWORD PTR tv206[ebp]
  000f7	f3 0f 10 45 14	 movss	 xmm0, DWORD PTR tv206[ebp]
  000fc	0f 2f 45 08	 comiss	 xmm0, DWORD PTR tv177[ebp]
  00100	76 08		 jbe	 SHORT $LN35@Med3_unche
$LN39@Med3_unche:
; File C:\Program Files (x86)\Microsoft Visual Studio\2019\Community\VC\Tools\MSVC\14.28.29333\include\utility

; 104  :     _Ty _Tmp = _STD move(_Left);

  00102	8b 0f		 mov	 ecx, DWORD PTR [edi]

; 105  :     _Left    = _STD move(_Right);

  00104	8b 03		 mov	 eax, DWORD PTR [ebx]
  00106	89 07		 mov	 DWORD PTR [edi], eax

; 106  :     _Right   = _STD move(_Tmp);

  00108	89 0b		 mov	 DWORD PTR [ebx], ecx
$LN35@Med3_unche:
  0010a	5f		 pop	 edi
; File C:\Program Files (x86)\Microsoft Visual Studio\2019\Community\VC\Tools\MSVC\14.28.29333\include\algorithm

; 7447 : }

  0010b	5e		 pop	 esi
  0010c	5b		 pop	 ebx
  0010d	8b e5		 mov	 esp, ebp
  0010f	5d		 pop	 ebp
  00110	c3		 ret	 0
??$_Med3_unchecked@PAPAVCInstanceBase@@U?$_Ref_fn@UCInstanceBase_SLessCameraDistance@@@std@@@std@@YAXPAPAVCInstanceBase@@00U?$_Ref_fn@UCInstanceBase_SLessCameraDistance@@@0@@Z ENDP ; std::_Med3_unchecked<CInstanceBase * *,std::_Ref_fn<CInstanceBase_SLessCameraDistance> >
_TEXT	ENDS
; Function compile flags: /Ogtp
; File C:\Program Files (x86)\Microsoft Visual Studio\2019\Community\VC\Tools\MSVC\14.28.29333\include\xutility
;	COMDAT ??$_Copy_backward_memmove@PAPAVCInstanceBase@@PAPAV1@@std@@YAPAPAVCInstanceBase@@PAPAV1@00@Z
_TEXT	SEGMENT
__First$ = 8						; size = 4
__Last$ = 12						; size = 4
__Dest$ = 16						; size = 4
??$_Copy_backward_memmove@PAPAVCInstanceBase@@PAPAV1@@std@@YAPAPAVCInstanceBase@@PAPAV1@00@Z PROC ; std::_Copy_backward_memmove<CInstanceBase * *,CInstanceBase * *>, COMDAT

; 4535 : _BidIt2 _Copy_backward_memmove(_BidIt1 _First, _BidIt1 _Last, _BidIt2 _Dest) {

  00000	55		 push	 ebp
  00001	8b ec		 mov	 ebp, esp

; 4536 :     // implement copy_backward-like function as memmove
; 4537 :     const char* const _First_ch = const_cast<const char*>(reinterpret_cast<const volatile char*>(_First));
; 4538 :     const char* const _Last_ch  = const_cast<const char*>(reinterpret_cast<const volatile char*>(_Last));
; 4539 :     char* const _Dest_ch        = const_cast<char*>(reinterpret_cast<volatile char*>(_Dest));
; 4540 :     const auto _Count           = static_cast<size_t>(_Last_ch - _First_ch);

  00003	8b 45 08	 mov	 eax, DWORD PTR __First$[ebp]
  00006	8b 4d 0c	 mov	 ecx, DWORD PTR __Last$[ebp]
  00009	2b c8		 sub	 ecx, eax

; 4541 :     return static_cast<_BidIt2>(_CSTD memmove(_Dest_ch - _Count, _First_ch, _Count));

  0000b	51		 push	 ecx
  0000c	50		 push	 eax
  0000d	8b 45 10	 mov	 eax, DWORD PTR __Dest$[ebp]
  00010	2b c1		 sub	 eax, ecx
  00012	50		 push	 eax
  00013	e8 00 00 00 00	 call	 _memmove
  00018	83 c4 0c	 add	 esp, 12			; 0000000cH

; 4542 : }

  0001b	5d		 pop	 ebp
  0001c	c3		 ret	 0
??$_Copy_backward_memmove@PAPAVCInstanceBase@@PAPAV1@@std@@YAPAPAVCInstanceBase@@PAPAV1@00@Z ENDP ; std::_Copy_backward_memmove<CInstanceBase * *,CInstanceBase * *>
_TEXT	ENDS
; Function compile flags: /Ogtp
; File C:\Program Files (x86)\Microsoft Visual Studio\2019\Community\VC\Tools\MSVC\14.28.29333\include\algorithm
; File C:\Program Files (x86)\Microsoft Visual Studio\2019\Community\VC\Tools\MSVC\14.28.29333\include\xutility
; File C:\Program Files (x86)\Microsoft Visual Studio\2019\Community\VC\Tools\MSVC\14.28.29333\include\algorithm
; File C:\Program Files (x86)\Microsoft Visual Studio\2019\Community\VC\Tools\MSVC\14.28.29333\include\xutility
; File D:\Metin2 Server Files\mainline\SRC_2014\Metin2Client\UserInterface\PythonCharacterManager.cpp
; File C:\Program Files (x86)\Microsoft Visual Studio\2019\Community\VC\Tools\MSVC\14.28.29333\include\xutility
; File D:\Metin2 Server Files\mainline\SRC_2014\Metin2Client\UserInterface\PythonCharacterManager.cpp
; File C:\Program Files (x86)\Microsoft Visual Studio\2019\Community\VC\Tools\MSVC\14.28.29333\include\algorithm
; File C:\Program Files (x86)\Microsoft Visual Studio\2019\Community\VC\Tools\MSVC\14.28.29333\include\xutility
; File C:\Program Files (x86)\Microsoft Visual Studio\2019\Community\VC\Tools\MSVC\14.28.29333\include\algorithm
; File C:\Program Files (x86)\Microsoft Visual Studio\2019\Community\VC\Tools\MSVC\14.28.29333\include\xutility
; File D:\Metin2 Server Files\mainline\SRC_2014\Metin2Client\UserInterface\PythonCharacterManager.cpp
; File C:\Program Files (x86)\Microsoft Visual Studio\2019\Community\VC\Tools\MSVC\14.28.29333\include\xutility
; File D:\Metin2 Server Files\mainline\SRC_2014\Metin2Client\UserInterface\PythonCharacterManager.cpp
; File C:\Program Files (x86)\Microsoft Visual Studio\2019\Community\VC\Tools\MSVC\14.28.29333\include\algorithm
;	COMDAT ??$_Pop_heap_hole_by_index@PAPAVCInstanceBase@@PAV1@U?$_Ref_fn@UCInstanceBase_SLessCameraDistance@@@std@@@std@@YAXPAPAVCInstanceBase@@HH$$QAPAV1@U?$_Ref_fn@UCInstanceBase_SLessCameraDistance@@@0@@Z
_TEXT	SEGMENT
__Idx$1$ = -20						; size = 4
tv422 = -20						; size = 4
__Max_sequence_non_leaf$1$ = -16			; size = 4
tv421 = -12						; size = 4
_pkInstLeft$1$ = -8					; size = 4
__Top$1$ = -4						; size = 4
_pkInstLeft$1$ = 8					; size = 4
_this$1$ = 8						; size = 4
tv448 = 8						; size = 4
tv192 = 8						; size = 4
__First$ = 8						; size = 4
_pkInstRight$1$ = 12					; size = 4
tv444 = 12						; size = 4
__Hole$ = 12						; size = 4
_pkInstRight$1$ = 16					; size = 4
tv430 = 16						; size = 4
__Bottom$ = 16						; size = 4
__Val$ = 20						; size = 4
__Pred$ = 24						; size = 4
??$_Pop_heap_hole_by_index@PAPAVCInstanceBase@@PAV1@U?$_Ref_fn@UCInstanceBase_SLessCameraDistance@@@std@@@std@@YAXPAPAVCInstanceBase@@HH$$QAPAV1@U?$_Ref_fn@UCInstanceBase_SLessCameraDistance@@@0@@Z PROC ; std::_Pop_heap_hole_by_index<CInstanceBase * *,CInstanceBase *,std::_Ref_fn<CInstanceBase_SLessCameraDistance> >, COMDAT

; 6186 :     _RanIt _First, _Iter_diff_t<_RanIt> _Hole, _Iter_diff_t<_RanIt> _Bottom, _Ty&& _Val, _Pr _Pred) {

  00000	55		 push	 ebp
  00001	8b ec		 mov	 ebp, esp
  00003	83 ec 14	 sub	 esp, 20			; 00000014H
  00006	53		 push	 ebx

; 6187 :     // percolate _Hole to _Bottom, then push _Val
; 6188 :     _STL_INTERNAL_CHECK(_Bottom > 0);
; 6189 : 
; 6190 :     using _Diff      = _Iter_diff_t<_RanIt>;
; 6191 :     const _Diff _Top = _Hole;
; 6192 :     _Diff _Idx       = _Hole;
; 6193 : 
; 6194 :     // Check whether _Idx can have a child before calculating that child's index, since
; 6195 :     // calculating the child's index can trigger integer overflows
; 6196 :     const _Diff _Max_sequence_non_leaf = (_Bottom - 1) >> 1; // shift for codegen
; 6197 :     while (_Idx < _Max_sequence_non_leaf) { // move _Hole down to larger child

  00007	8b 5d 08	 mov	 ebx, DWORD PTR __First$[ebp]
  0000a	56		 push	 esi
  0000b	8b 75 10	 mov	 esi, DWORD PTR __Bottom$[ebp]
  0000e	4e		 dec	 esi
  0000f	8b c6		 mov	 eax, esi
  00011	89 75 ec	 mov	 DWORD PTR tv422[ebp], esi
  00014	57		 push	 edi
  00015	8b 7d 0c	 mov	 edi, DWORD PTR __Hole$[ebp]
  00018	8b d7		 mov	 edx, edi
  0001a	d1 f8		 sar	 eax, 1
  0001c	8b cf		 mov	 ecx, edi
  0001e	89 55 fc	 mov	 DWORD PTR __Top$1$[ebp], edx
  00021	89 45 f0	 mov	 DWORD PTR __Max_sequence_non_leaf$1$[ebp], eax
  00024	3b f8		 cmp	 edi, eax
  00026	0f 8d 81 00 00
	00		 jge	 $LN3@Pop_heap_h
  0002c	0f 1f 40 00	 npad	 4
$LL2@Pop_heap_h:

; 6198 :         _Idx = 2 * _Idx + 2;

  00030	8d 04 09	 lea	 eax, DWORD PTR [ecx+ecx]
; File C:\Program Files (x86)\Microsoft Visual Studio\2019\Community\VC\Tools\MSVC\14.28.29333\include\xutility

; 203  :             return _Fn(_STD forward<_Args>(_Vals)...);

  00033	8b 4c 83 04	 mov	 ecx, DWORD PTR [ebx+eax*4+4]
  00037	89 4d 0c	 mov	 DWORD PTR _pkInstRight$1$[ebp], ecx
  0003a	8b 4d 18	 mov	 ecx, DWORD PTR __Pred$[ebp]
; File C:\Program Files (x86)\Microsoft Visual Studio\2019\Community\VC\Tools\MSVC\14.28.29333\include\algorithm

; 6198 :         _Idx = 2 * _Idx + 2;

  0003d	89 45 f4	 mov	 DWORD PTR tv421[ebp], eax
; File C:\Program Files (x86)\Microsoft Visual Studio\2019\Community\VC\Tools\MSVC\14.28.29333\include\xutility

; 203  :             return _Fn(_STD forward<_Args>(_Vals)...);

  00040	8b 44 83 08	 mov	 eax, DWORD PTR [ebx+eax*4+8]
  00044	89 4d 08	 mov	 DWORD PTR _this$1$[ebp], ecx
; File D:\Metin2 Server Files\mainline\SRC_2014\Metin2Client\UserInterface\PythonCharacterManager.cpp

; 714  : 		int nLeftDeadPoint=pkInstLeft->IsDead();

  00047	8b c8		 mov	 ecx, eax
; File C:\Program Files (x86)\Microsoft Visual Studio\2019\Community\VC\Tools\MSVC\14.28.29333\include\xutility

; 203  :             return _Fn(_STD forward<_Args>(_Vals)...);

  00049	89 45 f8	 mov	 DWORD PTR _pkInstLeft$1$[ebp], eax
; File D:\Metin2 Server Files\mainline\SRC_2014\Metin2Client\UserInterface\PythonCharacterManager.cpp

; 714  : 		int nLeftDeadPoint=pkInstLeft->IsDead();

  0004c	e8 00 00 00 00	 call	 ?IsDead@CInstanceBase@@QAEHXZ ; CInstanceBase::IsDead

; 715  : 		int nRightDeadPoint=pkInstRight->IsDead();

  00051	8b 4d 0c	 mov	 ecx, DWORD PTR _pkInstRight$1$[ebp]
  00054	8b f0		 mov	 esi, eax
  00056	e8 00 00 00 00	 call	 ?IsDead@CInstanceBase@@QAEHXZ ; CInstanceBase::IsDead

; 716  : 
; 717  : 		if (nLeftDeadPoint<nRightDeadPoint)

  0005b	3b f0		 cmp	 esi, eax
  0005d	7d 07		 jge	 SHORT $LN10@Pop_heap_h

; 718  : 			return true;

  0005f	b8 01 00 00 00	 mov	 eax, 1
  00064	eb 2a		 jmp	 SHORT $LN11@Pop_heap_h
$LN10@Pop_heap_h:

; 719  : 
; 720  : 		if (pkInstLeft->CalculateDistanceSq3d(m_kPPosEye)<pkInstRight->CalculateDistanceSq3d(m_kPPosEye))

  00066	8b 75 08	 mov	 esi, DWORD PTR _this$1$[ebp]
  00069	8b 4d f8	 mov	 ecx, DWORD PTR _pkInstLeft$1$[ebp]
  0006c	56		 push	 esi
  0006d	e8 00 00 00 00	 call	 ?CalculateDistanceSq3d@CInstanceBase@@QAEMABUD3DXVECTOR3@@@Z ; CInstanceBase::CalculateDistanceSq3d
  00072	8b 4d 0c	 mov	 ecx, DWORD PTR _pkInstRight$1$[ebp]
  00075	d9 5d 08	 fstp	 DWORD PTR tv448[ebp]
  00078	56		 push	 esi
  00079	e8 00 00 00 00	 call	 ?CalculateDistanceSq3d@CInstanceBase@@QAEMABUD3DXVECTOR3@@@Z ; CInstanceBase::CalculateDistanceSq3d
  0007e	d9 5d 0c	 fstp	 DWORD PTR tv444[ebp]
  00081	f3 0f 10 45 0c	 movss	 xmm0, DWORD PTR tv444[ebp]
  00086	33 c0		 xor	 eax, eax
  00088	0f 2f 45 08	 comiss	 xmm0, DWORD PTR tv448[ebp]
  0008c	0f 96 c0	 setbe	 al
  0008f	40		 inc	 eax
$LN11@Pop_heap_h:
; File C:\Program Files (x86)\Microsoft Visual Studio\2019\Community\VC\Tools\MSVC\14.28.29333\include\algorithm

; 6202 :         *(_First + _Hole) = _STD move(*(_First + _Idx));

  00090	8b 4d f4	 mov	 ecx, DWORD PTR tv421[ebp]
  00093	03 c8		 add	 ecx, eax
  00095	8b 04 8b	 mov	 eax, DWORD PTR [ebx+ecx*4]
  00098	89 04 bb	 mov	 DWORD PTR [ebx+edi*4], eax

; 6203 :         _Hole             = _Idx;

  0009b	8b f9		 mov	 edi, ecx
  0009d	8b 45 f0	 mov	 eax, DWORD PTR __Max_sequence_non_leaf$1$[ebp]
  000a0	3b c8		 cmp	 ecx, eax
  000a2	7c 8c		 jl	 SHORT $LL2@Pop_heap_h
  000a4	8b 55 fc	 mov	 edx, DWORD PTR __Top$1$[ebp]
  000a7	8b 75 ec	 mov	 esi, DWORD PTR tv422[ebp]
  000aa	89 7d 0c	 mov	 DWORD PTR __Hole$[ebp], edi
$LN3@Pop_heap_h:

; 6204 :     }
; 6205 : 
; 6206 :     if (_Idx == _Max_sequence_non_leaf && _Bottom % 2 == 0) { // only child at bottom, move _Hole down to it

  000ad	3b c8		 cmp	 ecx, eax
  000af	75 13		 jne	 SHORT $LN5@Pop_heap_h
  000b1	8b 45 10	 mov	 eax, DWORD PTR __Bottom$[ebp]
  000b4	a8 01		 test	 al, 1
  000b6	75 0c		 jne	 SHORT $LN5@Pop_heap_h

; 6207 :         *(_First + _Hole) = _STD move(*(_First + (_Bottom - 1)));

  000b8	8b 44 83 fc	 mov	 eax, DWORD PTR [ebx+eax*4-4]
  000bc	89 04 bb	 mov	 DWORD PTR [ebx+edi*4], eax

; 6208 :         _Hole             = _Bottom - 1;

  000bf	8b fe		 mov	 edi, esi
  000c1	89 7d 0c	 mov	 DWORD PTR __Hole$[ebp], edi
$LN5@Pop_heap_h:

; 6209 :     }
; 6210 : 
; 6211 :     _Push_heap_by_index(_First, _Hole, _Top, _STD forward<_Ty>(_Val), _Pred);

  000c4	8b 75 18	 mov	 esi, DWORD PTR __Pred$[ebp]

; 6077 :          _Top < _Hole && _DEBUG_LT_PRED(_Pred, *(_First + _Idx), _Val); //

  000c7	3b d7		 cmp	 edx, edi
  000c9	7d 69		 jge	 SHORT $LN34@Pop_heap_h
  000cb	0f 1f 44 00 00	 npad	 5
$LL16@Pop_heap_h:
; File C:\Program Files (x86)\Microsoft Visual Studio\2019\Community\VC\Tools\MSVC\14.28.29333\include\xutility

; 203  :             return _Fn(_STD forward<_Args>(_Vals)...);

  000d0	8b 4d 14	 mov	 ecx, DWORD PTR __Val$[ebp]
; File C:\Program Files (x86)\Microsoft Visual Studio\2019\Community\VC\Tools\MSVC\14.28.29333\include\algorithm

; 6076 :     for (_Diff _Idx = (_Hole - 1) >> 1; // shift for codegen

  000d3	8d 47 ff	 lea	 eax, DWORD PTR [edi-1]
  000d6	d1 f8		 sar	 eax, 1
  000d8	89 45 ec	 mov	 DWORD PTR __Idx$1$[ebp], eax
; File C:\Program Files (x86)\Microsoft Visual Studio\2019\Community\VC\Tools\MSVC\14.28.29333\include\xutility

; 203  :             return _Fn(_STD forward<_Args>(_Vals)...);

  000db	8b 09		 mov	 ecx, DWORD PTR [ecx]
  000dd	8b 04 83	 mov	 eax, DWORD PTR [ebx+eax*4]
  000e0	89 4d 10	 mov	 DWORD PTR _pkInstRight$1$[ebp], ecx
; File D:\Metin2 Server Files\mainline\SRC_2014\Metin2Client\UserInterface\PythonCharacterManager.cpp

; 714  : 		int nLeftDeadPoint=pkInstLeft->IsDead();

  000e3	8b c8		 mov	 ecx, eax
; File C:\Program Files (x86)\Microsoft Visual Studio\2019\Community\VC\Tools\MSVC\14.28.29333\include\xutility

; 203  :             return _Fn(_STD forward<_Args>(_Vals)...);

  000e5	89 45 08	 mov	 DWORD PTR _pkInstLeft$1$[ebp], eax
; File D:\Metin2 Server Files\mainline\SRC_2014\Metin2Client\UserInterface\PythonCharacterManager.cpp

; 714  : 		int nLeftDeadPoint=pkInstLeft->IsDead();

  000e8	e8 00 00 00 00	 call	 ?IsDead@CInstanceBase@@QAEHXZ ; CInstanceBase::IsDead

; 715  : 		int nRightDeadPoint=pkInstRight->IsDead();

  000ed	8b 4d 10	 mov	 ecx, DWORD PTR _pkInstRight$1$[ebp]
  000f0	8b f8		 mov	 edi, eax
  000f2	e8 00 00 00 00	 call	 ?IsDead@CInstanceBase@@QAEHXZ ; CInstanceBase::IsDead

; 716  : 
; 717  : 		if (nLeftDeadPoint<nRightDeadPoint)

  000f7	3b f8		 cmp	 edi, eax
  000f9	7c 23		 jl	 SHORT $LN32@Pop_heap_h

; 719  : 
; 720  : 		if (pkInstLeft->CalculateDistanceSq3d(m_kPPosEye)<pkInstRight->CalculateDistanceSq3d(m_kPPosEye))

  000fb	8b 4d 08	 mov	 ecx, DWORD PTR _pkInstLeft$1$[ebp]
  000fe	56		 push	 esi
  000ff	e8 00 00 00 00	 call	 ?CalculateDistanceSq3d@CInstanceBase@@QAEMABUD3DXVECTOR3@@@Z ; CInstanceBase::CalculateDistanceSq3d
  00104	8b 4d 10	 mov	 ecx, DWORD PTR _pkInstRight$1$[ebp]
  00107	d9 5d 08	 fstp	 DWORD PTR tv192[ebp]
  0010a	56		 push	 esi
  0010b	e8 00 00 00 00	 call	 ?CalculateDistanceSq3d@CInstanceBase@@QAEMABUD3DXVECTOR3@@@Z ; CInstanceBase::CalculateDistanceSq3d
  00110	d9 5d 10	 fstp	 DWORD PTR tv430[ebp]
  00113	f3 0f 10 45 10	 movss	 xmm0, DWORD PTR tv430[ebp]
  00118	0f 2f 45 08	 comiss	 xmm0, DWORD PTR tv192[ebp]
  0011c	76 25		 jbe	 SHORT $LN33@Pop_heap_h
$LN32@Pop_heap_h:
; File C:\Program Files (x86)\Microsoft Visual Studio\2019\Community\VC\Tools\MSVC\14.28.29333\include\algorithm

; 6080 :         *(_First + _Hole) = _STD move(*(_First + _Idx));

  0011e	8b 4d ec	 mov	 ecx, DWORD PTR __Idx$1$[ebp]
  00121	8b 7d 0c	 mov	 edi, DWORD PTR __Hole$[ebp]
  00124	8b 04 8b	 mov	 eax, DWORD PTR [ebx+ecx*4]
  00127	89 04 bb	 mov	 DWORD PTR [ebx+edi*4], eax

; 6081 :         _Hole             = _Idx;

  0012a	8b f9		 mov	 edi, ecx
  0012c	89 7d 0c	 mov	 DWORD PTR __Hole$[ebp], edi
  0012f	39 4d fc	 cmp	 DWORD PTR __Top$1$[ebp], ecx
  00132	7c 9c		 jl	 SHORT $LL16@Pop_heap_h
$LN34@Pop_heap_h:

; 6212 : }

  00134	8b 45 14	 mov	 eax, DWORD PTR __Val$[ebp]
  00137	8b 00		 mov	 eax, DWORD PTR [eax]
  00139	89 04 bb	 mov	 DWORD PTR [ebx+edi*4], eax
  0013c	5f		 pop	 edi
  0013d	5e		 pop	 esi
  0013e	5b		 pop	 ebx
  0013f	8b e5		 mov	 esp, ebp
  00141	5d		 pop	 ebp
  00142	c3		 ret	 0
$LN33@Pop_heap_h:

; 6084 :     *(_First + _Hole) = _STD forward<_Ty>(_Val); // drop _Val into final hole

  00143	8b 45 14	 mov	 eax, DWORD PTR __Val$[ebp]
  00146	8b 4d 0c	 mov	 ecx, DWORD PTR __Hole$[ebp]
  00149	5f		 pop	 edi

; 6212 : }

  0014a	5e		 pop	 esi

; 6084 :     *(_First + _Hole) = _STD forward<_Ty>(_Val); // drop _Val into final hole

  0014b	8b 00		 mov	 eax, DWORD PTR [eax]
  0014d	89 04 8b	 mov	 DWORD PTR [ebx+ecx*4], eax

; 6212 : }

  00150	5b		 pop	 ebx
  00151	8b e5		 mov	 esp, ebp
  00153	5d		 pop	 ebp
  00154	c3		 ret	 0
??$_Pop_heap_hole_by_index@PAPAVCInstanceBase@@PAV1@U?$_Ref_fn@UCInstanceBase_SLessCameraDistance@@@std@@@std@@YAXPAPAVCInstanceBase@@HH$$QAPAV1@U?$_Ref_fn@UCInstanceBase_SLessCameraDistance@@@0@@Z ENDP ; std::_Pop_heap_hole_by_index<CInstanceBase * *,CInstanceBase *,std::_Ref_fn<CInstanceBase_SLessCameraDistance> >
_TEXT	ENDS
; Function compile flags: /Ogtp
; File C:\Program Files (x86)\Microsoft Visual Studio\2019\Community\VC\Tools\MSVC\14.28.29333\include\xmemory
;	COMDAT ??$_Construct_in_place@PAU?$_Tree_node@U?$pair@$$CBKPAVCInstanceBase@@@std@@PAX@std@@AAPAU12@@std@@YAXAAPAU?$_Tree_node@U?$pair@$$CBKPAVCInstanceBase@@@std@@PAX@0@0@Z
_TEXT	SEGMENT
__Obj$ = 8						; size = 4
_<_Args_0>$ = 12					; size = 4
??$_Construct_in_place@PAU?$_Tree_node@U?$pair@$$CBKPAVCInstanceBase@@@std@@PAX@std@@AAPAU12@@std@@YAXAAPAU?$_Tree_node@U?$pair@$$CBKPAVCInstanceBase@@@std@@PAX@0@0@Z PROC ; std::_Construct_in_place<std::_Tree_node<std::pair<unsigned long const ,CInstanceBase *>,void *> *,std::_Tree_node<std::pair<unsigned long const ,CInstanceBase *>,void *> * &>, COMDAT

; 228  : void _Construct_in_place(_Ty& _Obj, _Types&&... _Args) noexcept(is_nothrow_constructible_v<_Ty, _Types...>) {

  00000	55		 push	 ebp
  00001	8b ec		 mov	 ebp, esp

; 229  :     ::new (const_cast<void*>(static_cast<const volatile void*>(_STD addressof(_Obj))))

  00003	8b 45 0c	 mov	 eax, DWORD PTR _<_Args_0>$[ebp]
  00006	8b 08		 mov	 ecx, DWORD PTR [eax]
  00008	8b 45 08	 mov	 eax, DWORD PTR __Obj$[ebp]
  0000b	89 08		 mov	 DWORD PTR [eax], ecx

; 230  :         _Ty(_STD forward<_Types>(_Args)...);
; 231  : }

  0000d	5d		 pop	 ebp
  0000e	c3		 ret	 0
??$_Construct_in_place@PAU?$_Tree_node@U?$pair@$$CBKPAVCInstanceBase@@@std@@PAX@std@@AAPAU12@@std@@YAXAAPAU?$_Tree_node@U?$pair@$$CBKPAVCInstanceBase@@@std@@PAX@0@0@Z ENDP ; std::_Construct_in_place<std::_Tree_node<std::pair<unsigned long const ,CInstanceBase *>,void *> *,std::_Tree_node<std::pair<unsigned long const ,CInstanceBase *>,void *> * &>
_TEXT	ENDS
; Function compile flags: /Ogtp
; File C:\Program Files (x86)\Microsoft Visual Studio\2019\Community\VC\Tools\MSVC\14.28.29333\include\algorithm
; File D:\Metin2 Server Files\mainline\SRC_2014\Metin2Client\UserInterface\PythonCharacterManager.cpp
; File C:\Program Files (x86)\Microsoft Visual Studio\2019\Community\VC\Tools\MSVC\14.28.29333\include\algorithm
; File D:\Metin2 Server Files\mainline\SRC_2014\Metin2Client\UserInterface\PythonCharacterManager.cpp
; File C:\Program Files (x86)\Microsoft Visual Studio\2019\Community\VC\Tools\MSVC\14.28.29333\include\algorithm
; File C:\Program Files (x86)\Microsoft Visual Studio\2019\Community\VC\Tools\MSVC\14.28.29333\include\utility
; File D:\Metin2 Server Files\mainline\SRC_2014\Metin2Client\UserInterface\PythonCharacterManager.cpp
; File C:\Program Files (x86)\Microsoft Visual Studio\2019\Community\VC\Tools\MSVC\14.28.29333\include\algorithm
; File C:\Program Files (x86)\Microsoft Visual Studio\2019\Community\VC\Tools\MSVC\14.28.29333\include\utility
; File D:\Metin2 Server Files\mainline\SRC_2014\Metin2Client\UserInterface\PythonCharacterManager.cpp
; File C:\Program Files (x86)\Microsoft Visual Studio\2019\Community\VC\Tools\MSVC\14.28.29333\include\algorithm
; File C:\Program Files (x86)\Microsoft Visual Studio\2019\Community\VC\Tools\MSVC\14.28.29333\include\utility
; File C:\Program Files (x86)\Microsoft Visual Studio\2019\Community\VC\Tools\MSVC\14.28.29333\include\algorithm
; File D:\Metin2 Server Files\mainline\SRC_2014\Metin2Client\UserInterface\PythonCharacterManager.cpp
; File C:\Program Files (x86)\Microsoft Visual Studio\2019\Community\VC\Tools\MSVC\14.28.29333\include\algorithm
; File C:\Program Files (x86)\Microsoft Visual Studio\2019\Community\VC\Tools\MSVC\14.28.29333\include\utility
; File D:\Metin2 Server Files\mainline\SRC_2014\Metin2Client\UserInterface\PythonCharacterManager.cpp
; File C:\Program Files (x86)\Microsoft Visual Studio\2019\Community\VC\Tools\MSVC\14.28.29333\include\algorithm
; File C:\Program Files (x86)\Microsoft Visual Studio\2019\Community\VC\Tools\MSVC\14.28.29333\include\utility
; File D:\Metin2 Server Files\mainline\SRC_2014\Metin2Client\UserInterface\PythonCharacterManager.cpp
; File C:\Program Files (x86)\Microsoft Visual Studio\2019\Community\VC\Tools\MSVC\14.28.29333\include\utility
; File D:\Metin2 Server Files\mainline\SRC_2014\Metin2Client\UserInterface\PythonCharacterManager.cpp
; File C:\Program Files (x86)\Microsoft Visual Studio\2019\Community\VC\Tools\MSVC\14.28.29333\include\algorithm
; File C:\Program Files (x86)\Microsoft Visual Studio\2019\Community\VC\Tools\MSVC\14.28.29333\include\utility
; File C:\Program Files (x86)\Microsoft Visual Studio\2019\Community\VC\Tools\MSVC\14.28.29333\include\algorithm
; File D:\Metin2 Server Files\mainline\SRC_2014\Metin2Client\UserInterface\PythonCharacterManager.cpp
; File C:\Program Files (x86)\Microsoft Visual Studio\2019\Community\VC\Tools\MSVC\14.28.29333\include\algorithm
; File C:\Program Files (x86)\Microsoft Visual Studio\2019\Community\VC\Tools\MSVC\14.28.29333\include\utility
; File D:\Metin2 Server Files\mainline\SRC_2014\Metin2Client\UserInterface\PythonCharacterManager.cpp
; File C:\Program Files (x86)\Microsoft Visual Studio\2019\Community\VC\Tools\MSVC\14.28.29333\include\algorithm
; File C:\Program Files (x86)\Microsoft Visual Studio\2019\Community\VC\Tools\MSVC\14.28.29333\include\utility
; File D:\Metin2 Server Files\mainline\SRC_2014\Metin2Client\UserInterface\PythonCharacterManager.cpp
; File C:\Program Files (x86)\Microsoft Visual Studio\2019\Community\VC\Tools\MSVC\14.28.29333\include\utility
; File D:\Metin2 Server Files\mainline\SRC_2014\Metin2Client\UserInterface\PythonCharacterManager.cpp
; File C:\Program Files (x86)\Microsoft Visual Studio\2019\Community\VC\Tools\MSVC\14.28.29333\include\algorithm
; File C:\Program Files (x86)\Microsoft Visual Studio\2019\Community\VC\Tools\MSVC\14.28.29333\include\utility
; File D:\Metin2 Server Files\mainline\SRC_2014\Metin2Client\UserInterface\PythonCharacterManager.cpp
; File C:\Program Files (x86)\Microsoft Visual Studio\2019\Community\VC\Tools\MSVC\14.28.29333\include\algorithm
; File C:\Program Files (x86)\Microsoft Visual Studio\2019\Community\VC\Tools\MSVC\14.28.29333\include\utility
; File D:\Metin2 Server Files\mainline\SRC_2014\Metin2Client\UserInterface\PythonCharacterManager.cpp
; File C:\Program Files (x86)\Microsoft Visual Studio\2019\Community\VC\Tools\MSVC\14.28.29333\include\algorithm
; File C:\Program Files (x86)\Microsoft Visual Studio\2019\Community\VC\Tools\MSVC\14.28.29333\include\utility
; File D:\Metin2 Server Files\mainline\SRC_2014\Metin2Client\UserInterface\PythonCharacterManager.cpp
; File C:\Program Files (x86)\Microsoft Visual Studio\2019\Community\VC\Tools\MSVC\14.28.29333\include\algorithm
; File C:\Program Files (x86)\Microsoft Visual Studio\2019\Community\VC\Tools\MSVC\14.28.29333\include\utility
; File C:\Program Files (x86)\Microsoft Visual Studio\2019\Community\VC\Tools\MSVC\14.28.29333\include\algorithm
; File D:\Metin2 Server Files\mainline\SRC_2014\Metin2Client\UserInterface\PythonCharacterManager.cpp
; File C:\Program Files (x86)\Microsoft Visual Studio\2019\Community\VC\Tools\MSVC\14.28.29333\include\algorithm
; File C:\Program Files (x86)\Microsoft Visual Studio\2019\Community\VC\Tools\MSVC\14.28.29333\include\utility
; File D:\Metin2 Server Files\mainline\SRC_2014\Metin2Client\UserInterface\PythonCharacterManager.cpp
; File C:\Program Files (x86)\Microsoft Visual Studio\2019\Community\VC\Tools\MSVC\14.28.29333\include\algorithm
; File C:\Program Files (x86)\Microsoft Visual Studio\2019\Community\VC\Tools\MSVC\14.28.29333\include\utility
; File D:\Metin2 Server Files\mainline\SRC_2014\Metin2Client\UserInterface\PythonCharacterManager.cpp
; File C:\Program Files (x86)\Microsoft Visual Studio\2019\Community\VC\Tools\MSVC\14.28.29333\include\algorithm
; File C:\Program Files (x86)\Microsoft Visual Studio\2019\Community\VC\Tools\MSVC\14.28.29333\include\utility
; File C:\Program Files (x86)\Microsoft Visual Studio\2019\Community\VC\Tools\MSVC\14.28.29333\include\algorithm
;	COMDAT ??$_Guess_median_unchecked@PAPAVCInstanceBase@@ULessCharacterInstancePtrRenderOrder@@@std@@YAXPAPAVCInstanceBase@@00ULessCharacterInstancePtrRenderOrder@@@Z
_TEXT	SEGMENT
tv492 = -8						; size = 4
__First$1$ = -4						; size = 4
tv496 = 8						; size = 4
__First$1$ = 8						; size = 4
__First$ = 8						; size = 4
__Mid$ = 12						; size = 4
__Last$ = 16						; size = 4
__Pred$ = 20						; size = 1
??$_Guess_median_unchecked@PAPAVCInstanceBase@@ULessCharacterInstancePtrRenderOrder@@@std@@YAXPAPAVCInstanceBase@@00ULessCharacterInstancePtrRenderOrder@@@Z PROC ; std::_Guess_median_unchecked<CInstanceBase * *,LessCharacterInstancePtrRenderOrder>, COMDAT

; 7450 : _CONSTEXPR20 void _Guess_median_unchecked(_RanIt _First, _RanIt _Mid, _RanIt _Last, _Pr _Pred) {

  00000	55		 push	 ebp
  00001	8b ec		 mov	 ebp, esp
  00003	83 ec 08	 sub	 esp, 8
  00006	53		 push	 ebx

; 7451 :     // sort median element to middle
; 7452 :     using _Diff        = _Iter_diff_t<_RanIt>;
; 7453 :     const _Diff _Count = _Last - _First;

  00007	8b 5d 10	 mov	 ebx, DWORD PTR __Last$[ebp]
  0000a	8b c3		 mov	 eax, ebx
  0000c	56		 push	 esi
  0000d	8b 75 08	 mov	 esi, DWORD PTR __First$[ebp]
  00010	2b c6		 sub	 eax, esi
  00012	c1 f8 02	 sar	 eax, 2
  00015	57		 push	 edi
  00016	8b 0e		 mov	 ecx, DWORD PTR [esi]

; 7454 :     if (40 < _Count) { // Tukey's ninther

  00018	51		 push	 ecx
  00019	83 f8 28	 cmp	 eax, 40			; 00000028H
  0001c	0f 8e 52 01 00
	00		 jle	 $LN2@Guess_medi

; 7455 :         const _Diff _Step     = (_Count + 1) >> 3; // +1 can't overflow because range was made inclusive in caller

  00022	40		 inc	 eax
  00023	c1 f8 03	 sar	 eax, 3

; 7457 :         _Med3_unchecked(_First, _First + _Step, _First + _Two_step, _Pred);

  00026	8d 14 c5 00 00
	00 00		 lea	 edx, DWORD PTR [eax*8]
  0002d	c1 e0 02	 shl	 eax, 2
; File D:\Metin2 Server Files\mainline\SRC_2014\Metin2Client\UserInterface\PythonCharacterManager.cpp

; 427  : 		return pkLeft->LessRenderOrder(pkRight);		

  00030	8b 0c 30	 mov	 ecx, DWORD PTR [eax+esi]
; File C:\Program Files (x86)\Microsoft Visual Studio\2019\Community\VC\Tools\MSVC\14.28.29333\include\algorithm

; 7457 :         _Med3_unchecked(_First, _First + _Step, _First + _Two_step, _Pred);

  00033	8d 3c 30	 lea	 edi, DWORD PTR [eax+esi]
  00036	89 55 f8	 mov	 DWORD PTR tv492[ebp], edx
  00039	89 45 08	 mov	 DWORD PTR tv496[ebp], eax
; File D:\Metin2 Server Files\mainline\SRC_2014\Metin2Client\UserInterface\PythonCharacterManager.cpp

; 427  : 		return pkLeft->LessRenderOrder(pkRight);		

  0003c	e8 00 00 00 00	 call	 ?LessRenderOrder@CInstanceBase@@QAE_NPAV1@@Z ; CInstanceBase::LessRenderOrder
; File C:\Program Files (x86)\Microsoft Visual Studio\2019\Community\VC\Tools\MSVC\14.28.29333\include\algorithm

; 7436 :     if (_DEBUG_LT_PRED(_Pred, *_Mid, *_First)) {

  00041	84 c0		 test	 al, al
  00043	74 08		 je	 SHORT $LN125@Guess_medi
; File C:\Program Files (x86)\Microsoft Visual Studio\2019\Community\VC\Tools\MSVC\14.28.29333\include\utility

; 104  :     _Ty _Tmp = _STD move(_Left);

  00045	8b 0f		 mov	 ecx, DWORD PTR [edi]

; 105  :     _Left    = _STD move(_Right);

  00047	8b 06		 mov	 eax, DWORD PTR [esi]
  00049	89 07		 mov	 DWORD PTR [edi], eax

; 106  :     _Right   = _STD move(_Tmp);

  0004b	89 0e		 mov	 DWORD PTR [esi], ecx
$LN125@Guess_medi:
; File D:\Metin2 Server Files\mainline\SRC_2014\Metin2Client\UserInterface\PythonCharacterManager.cpp

; 427  : 		return pkLeft->LessRenderOrder(pkRight);		

  0004d	8b 45 f8	 mov	 eax, DWORD PTR tv492[ebp]
  00050	ff 37		 push	 DWORD PTR [edi]
  00052	8b 0c 30	 mov	 ecx, DWORD PTR [eax+esi]
  00055	e8 00 00 00 00	 call	 ?LessRenderOrder@CInstanceBase@@QAE_NPAV1@@Z ; CInstanceBase::LessRenderOrder
; File C:\Program Files (x86)\Microsoft Visual Studio\2019\Community\VC\Tools\MSVC\14.28.29333\include\algorithm

; 7440 :     if (_DEBUG_LT_PRED(_Pred, *_Last, *_Mid)) { // swap middle and last, then test first again

  0005a	84 c0		 test	 al, al
  0005c	74 20		 je	 SHORT $LN27@Guess_medi
; File C:\Program Files (x86)\Microsoft Visual Studio\2019\Community\VC\Tools\MSVC\14.28.29333\include\utility

; 104  :     _Ty _Tmp = _STD move(_Left);

  0005e	8b 55 f8	 mov	 edx, DWORD PTR tv492[ebp]

; 105  :     _Left    = _STD move(_Right);

  00061	8b 07		 mov	 eax, DWORD PTR [edi]
  00063	8b 0c 32	 mov	 ecx, DWORD PTR [edx+esi]
  00066	89 04 32	 mov	 DWORD PTR [edx+esi], eax

; 106  :     _Right   = _STD move(_Tmp);

  00069	89 0f		 mov	 DWORD PTR [edi], ecx
; File D:\Metin2 Server Files\mainline\SRC_2014\Metin2Client\UserInterface\PythonCharacterManager.cpp

; 427  : 		return pkLeft->LessRenderOrder(pkRight);		

  0006b	ff 36		 push	 DWORD PTR [esi]
  0006d	e8 00 00 00 00	 call	 ?LessRenderOrder@CInstanceBase@@QAE_NPAV1@@Z ; CInstanceBase::LessRenderOrder
; File C:\Program Files (x86)\Microsoft Visual Studio\2019\Community\VC\Tools\MSVC\14.28.29333\include\algorithm

; 7443 :         if (_DEBUG_LT_PRED(_Pred, *_Mid, *_First)) {

  00072	84 c0		 test	 al, al
  00074	74 08		 je	 SHORT $LN27@Guess_medi
; File C:\Program Files (x86)\Microsoft Visual Studio\2019\Community\VC\Tools\MSVC\14.28.29333\include\utility

; 104  :     _Ty _Tmp = _STD move(_Left);

  00076	8b 0f		 mov	 ecx, DWORD PTR [edi]

; 105  :     _Left    = _STD move(_Right);

  00078	8b 06		 mov	 eax, DWORD PTR [esi]
  0007a	89 07		 mov	 DWORD PTR [edi], eax

; 106  :     _Right   = _STD move(_Tmp);

  0007c	89 0e		 mov	 DWORD PTR [esi], ecx
$LN27@Guess_medi:
; File C:\Program Files (x86)\Microsoft Visual Studio\2019\Community\VC\Tools\MSVC\14.28.29333\include\algorithm

; 7458 :         _Med3_unchecked(_Mid - _Step, _Mid, _Mid + _Step, _Pred);

  0007e	8b 75 0c	 mov	 esi, DWORD PTR __Mid$[ebp]
  00081	8b c6		 mov	 eax, esi
  00083	2b 45 08	 sub	 eax, DWORD PTR tv496[ebp]
  00086	89 45 fc	 mov	 DWORD PTR __First$1$[ebp], eax
; File D:\Metin2 Server Files\mainline\SRC_2014\Metin2Client\UserInterface\PythonCharacterManager.cpp

; 427  : 		return pkLeft->LessRenderOrder(pkRight);		

  00089	8b 0e		 mov	 ecx, DWORD PTR [esi]
  0008b	ff 30		 push	 DWORD PTR [eax]
  0008d	e8 00 00 00 00	 call	 ?LessRenderOrder@CInstanceBase@@QAE_NPAV1@@Z ; CInstanceBase::LessRenderOrder
; File C:\Program Files (x86)\Microsoft Visual Studio\2019\Community\VC\Tools\MSVC\14.28.29333\include\algorithm

; 7436 :     if (_DEBUG_LT_PRED(_Pred, *_Mid, *_First)) {

  00092	84 c0		 test	 al, al
  00094	74 0b		 je	 SHORT $LN126@Guess_medi
; File C:\Program Files (x86)\Microsoft Visual Studio\2019\Community\VC\Tools\MSVC\14.28.29333\include\utility

; 105  :     _Left    = _STD move(_Right);

  00096	8b 55 fc	 mov	 edx, DWORD PTR __First$1$[ebp]
  00099	8b 0e		 mov	 ecx, DWORD PTR [esi]
  0009b	8b 02		 mov	 eax, DWORD PTR [edx]
  0009d	89 06		 mov	 DWORD PTR [esi], eax

; 106  :     _Right   = _STD move(_Tmp);

  0009f	89 0a		 mov	 DWORD PTR [edx], ecx
$LN126@Guess_medi:
; File D:\Metin2 Server Files\mainline\SRC_2014\Metin2Client\UserInterface\PythonCharacterManager.cpp

; 427  : 		return pkLeft->LessRenderOrder(pkRight);		

  000a1	8b 45 08	 mov	 eax, DWORD PTR tv496[ebp]
  000a4	ff 36		 push	 DWORD PTR [esi]
  000a6	8b 0c 30	 mov	 ecx, DWORD PTR [eax+esi]
  000a9	e8 00 00 00 00	 call	 ?LessRenderOrder@CInstanceBase@@QAE_NPAV1@@Z ; CInstanceBase::LessRenderOrder
; File C:\Program Files (x86)\Microsoft Visual Studio\2019\Community\VC\Tools\MSVC\14.28.29333\include\algorithm

; 7440 :     if (_DEBUG_LT_PRED(_Pred, *_Last, *_Mid)) { // swap middle and last, then test first again

  000ae	84 c0		 test	 al, al
  000b0	74 26		 je	 SHORT $LN50@Guess_medi
; File C:\Program Files (x86)\Microsoft Visual Studio\2019\Community\VC\Tools\MSVC\14.28.29333\include\utility

; 104  :     _Ty _Tmp = _STD move(_Left);

  000b2	8b 55 08	 mov	 edx, DWORD PTR tv496[ebp]

; 105  :     _Left    = _STD move(_Right);

  000b5	8b 06		 mov	 eax, DWORD PTR [esi]
  000b7	8b 0c 32	 mov	 ecx, DWORD PTR [edx+esi]
  000ba	89 04 32	 mov	 DWORD PTR [edx+esi], eax
; File D:\Metin2 Server Files\mainline\SRC_2014\Metin2Client\UserInterface\PythonCharacterManager.cpp

; 427  : 		return pkLeft->LessRenderOrder(pkRight);		

  000bd	8b 45 fc	 mov	 eax, DWORD PTR __First$1$[ebp]
; File C:\Program Files (x86)\Microsoft Visual Studio\2019\Community\VC\Tools\MSVC\14.28.29333\include\utility

; 106  :     _Right   = _STD move(_Tmp);

  000c0	89 0e		 mov	 DWORD PTR [esi], ecx
; File D:\Metin2 Server Files\mainline\SRC_2014\Metin2Client\UserInterface\PythonCharacterManager.cpp

; 427  : 		return pkLeft->LessRenderOrder(pkRight);		

  000c2	ff 30		 push	 DWORD PTR [eax]
  000c4	e8 00 00 00 00	 call	 ?LessRenderOrder@CInstanceBase@@QAE_NPAV1@@Z ; CInstanceBase::LessRenderOrder
; File C:\Program Files (x86)\Microsoft Visual Studio\2019\Community\VC\Tools\MSVC\14.28.29333\include\algorithm

; 7443 :         if (_DEBUG_LT_PRED(_Pred, *_Mid, *_First)) {

  000c9	84 c0		 test	 al, al
  000cb	74 0b		 je	 SHORT $LN50@Guess_medi
; File C:\Program Files (x86)\Microsoft Visual Studio\2019\Community\VC\Tools\MSVC\14.28.29333\include\utility

; 105  :     _Left    = _STD move(_Right);

  000cd	8b 55 fc	 mov	 edx, DWORD PTR __First$1$[ebp]
  000d0	8b 0e		 mov	 ecx, DWORD PTR [esi]
  000d2	8b 02		 mov	 eax, DWORD PTR [edx]
  000d4	89 06		 mov	 DWORD PTR [esi], eax

; 106  :     _Right   = _STD move(_Tmp);

  000d6	89 0a		 mov	 DWORD PTR [edx], ecx
$LN50@Guess_medi:
; File C:\Program Files (x86)\Microsoft Visual Studio\2019\Community\VC\Tools\MSVC\14.28.29333\include\algorithm

; 7459 :         _Med3_unchecked(_Last - _Two_step, _Last - _Step, _Last, _Pred);

  000d8	8b 45 10	 mov	 eax, DWORD PTR __Last$[ebp]
  000db	2b 45 f8	 sub	 eax, DWORD PTR tv492[ebp]
  000de	2b 5d 08	 sub	 ebx, DWORD PTR tv496[ebp]
  000e1	89 45 08	 mov	 DWORD PTR __First$1$[ebp], eax
; File D:\Metin2 Server Files\mainline\SRC_2014\Metin2Client\UserInterface\PythonCharacterManager.cpp

; 427  : 		return pkLeft->LessRenderOrder(pkRight);		

  000e4	ff 30		 push	 DWORD PTR [eax]
  000e6	8b 0b		 mov	 ecx, DWORD PTR [ebx]
  000e8	e8 00 00 00 00	 call	 ?LessRenderOrder@CInstanceBase@@QAE_NPAV1@@Z ; CInstanceBase::LessRenderOrder
; File C:\Program Files (x86)\Microsoft Visual Studio\2019\Community\VC\Tools\MSVC\14.28.29333\include\algorithm

; 7436 :     if (_DEBUG_LT_PRED(_Pred, *_Mid, *_First)) {

  000ed	84 c0		 test	 al, al
  000ef	74 0b		 je	 SHORT $LN127@Guess_medi
; File C:\Program Files (x86)\Microsoft Visual Studio\2019\Community\VC\Tools\MSVC\14.28.29333\include\utility

; 105  :     _Left    = _STD move(_Right);

  000f1	8b 55 08	 mov	 edx, DWORD PTR __First$1$[ebp]
  000f4	8b 0b		 mov	 ecx, DWORD PTR [ebx]
  000f6	8b 02		 mov	 eax, DWORD PTR [edx]
  000f8	89 03		 mov	 DWORD PTR [ebx], eax

; 106  :     _Right   = _STD move(_Tmp);

  000fa	89 0a		 mov	 DWORD PTR [edx], ecx
$LN127@Guess_medi:
; File D:\Metin2 Server Files\mainline\SRC_2014\Metin2Client\UserInterface\PythonCharacterManager.cpp

; 427  : 		return pkLeft->LessRenderOrder(pkRight);		

  000fc	8b 45 10	 mov	 eax, DWORD PTR __Last$[ebp]
  000ff	ff 33		 push	 DWORD PTR [ebx]
  00101	8b 08		 mov	 ecx, DWORD PTR [eax]
  00103	e8 00 00 00 00	 call	 ?LessRenderOrder@CInstanceBase@@QAE_NPAV1@@Z ; CInstanceBase::LessRenderOrder
; File C:\Program Files (x86)\Microsoft Visual Studio\2019\Community\VC\Tools\MSVC\14.28.29333\include\algorithm

; 7440 :     if (_DEBUG_LT_PRED(_Pred, *_Last, *_Mid)) { // swap middle and last, then test first again

  00108	84 c0		 test	 al, al
  0010a	74 24		 je	 SHORT $LN73@Guess_medi
; File C:\Program Files (x86)\Microsoft Visual Studio\2019\Community\VC\Tools\MSVC\14.28.29333\include\utility

; 104  :     _Ty _Tmp = _STD move(_Left);

  0010c	8b 55 10	 mov	 edx, DWORD PTR __Last$[ebp]

; 105  :     _Left    = _STD move(_Right);

  0010f	8b 03		 mov	 eax, DWORD PTR [ebx]
  00111	8b 0a		 mov	 ecx, DWORD PTR [edx]
  00113	89 02		 mov	 DWORD PTR [edx], eax
; File D:\Metin2 Server Files\mainline\SRC_2014\Metin2Client\UserInterface\PythonCharacterManager.cpp

; 427  : 		return pkLeft->LessRenderOrder(pkRight);		

  00115	8b 45 08	 mov	 eax, DWORD PTR __First$1$[ebp]
; File C:\Program Files (x86)\Microsoft Visual Studio\2019\Community\VC\Tools\MSVC\14.28.29333\include\utility

; 106  :     _Right   = _STD move(_Tmp);

  00118	89 0b		 mov	 DWORD PTR [ebx], ecx
; File D:\Metin2 Server Files\mainline\SRC_2014\Metin2Client\UserInterface\PythonCharacterManager.cpp

; 427  : 		return pkLeft->LessRenderOrder(pkRight);		

  0011a	ff 30		 push	 DWORD PTR [eax]
  0011c	e8 00 00 00 00	 call	 ?LessRenderOrder@CInstanceBase@@QAE_NPAV1@@Z ; CInstanceBase::LessRenderOrder
; File C:\Program Files (x86)\Microsoft Visual Studio\2019\Community\VC\Tools\MSVC\14.28.29333\include\algorithm

; 7443 :         if (_DEBUG_LT_PRED(_Pred, *_Mid, *_First)) {

  00121	84 c0		 test	 al, al
  00123	74 0b		 je	 SHORT $LN73@Guess_medi
; File C:\Program Files (x86)\Microsoft Visual Studio\2019\Community\VC\Tools\MSVC\14.28.29333\include\utility

; 105  :     _Left    = _STD move(_Right);

  00125	8b 55 08	 mov	 edx, DWORD PTR __First$1$[ebp]
  00128	8b 0b		 mov	 ecx, DWORD PTR [ebx]
  0012a	8b 02		 mov	 eax, DWORD PTR [edx]
  0012c	89 03		 mov	 DWORD PTR [ebx], eax

; 106  :     _Right   = _STD move(_Tmp);

  0012e	89 0a		 mov	 DWORD PTR [edx], ecx
$LN73@Guess_medi:
; File D:\Metin2 Server Files\mainline\SRC_2014\Metin2Client\UserInterface\PythonCharacterManager.cpp

; 427  : 		return pkLeft->LessRenderOrder(pkRight);		

  00130	ff 37		 push	 DWORD PTR [edi]
  00132	8b 0e		 mov	 ecx, DWORD PTR [esi]
  00134	e8 00 00 00 00	 call	 ?LessRenderOrder@CInstanceBase@@QAE_NPAV1@@Z ; CInstanceBase::LessRenderOrder
; File C:\Program Files (x86)\Microsoft Visual Studio\2019\Community\VC\Tools\MSVC\14.28.29333\include\algorithm

; 7436 :     if (_DEBUG_LT_PRED(_Pred, *_Mid, *_First)) {

  00139	84 c0		 test	 al, al
  0013b	74 08		 je	 SHORT $LN128@Guess_medi
; File C:\Program Files (x86)\Microsoft Visual Studio\2019\Community\VC\Tools\MSVC\14.28.29333\include\utility

; 104  :     _Ty _Tmp = _STD move(_Left);

  0013d	8b 0e		 mov	 ecx, DWORD PTR [esi]

; 105  :     _Left    = _STD move(_Right);

  0013f	8b 07		 mov	 eax, DWORD PTR [edi]
  00141	89 06		 mov	 DWORD PTR [esi], eax

; 106  :     _Right   = _STD move(_Tmp);

  00143	89 0f		 mov	 DWORD PTR [edi], ecx
$LN128@Guess_medi:
; File D:\Metin2 Server Files\mainline\SRC_2014\Metin2Client\UserInterface\PythonCharacterManager.cpp

; 427  : 		return pkLeft->LessRenderOrder(pkRight);		

  00145	ff 36		 push	 DWORD PTR [esi]
  00147	8b 0b		 mov	 ecx, DWORD PTR [ebx]
  00149	e8 00 00 00 00	 call	 ?LessRenderOrder@CInstanceBase@@QAE_NPAV1@@Z ; CInstanceBase::LessRenderOrder
; File C:\Program Files (x86)\Microsoft Visual Studio\2019\Community\VC\Tools\MSVC\14.28.29333\include\algorithm

; 7440 :     if (_DEBUG_LT_PRED(_Pred, *_Last, *_Mid)) { // swap middle and last, then test first again

  0014e	84 c0		 test	 al, al
  00150	74 60		 je	 SHORT $LN119@Guess_medi
; File C:\Program Files (x86)\Microsoft Visual Studio\2019\Community\VC\Tools\MSVC\14.28.29333\include\utility

; 104  :     _Ty _Tmp = _STD move(_Left);

  00152	8b 0b		 mov	 ecx, DWORD PTR [ebx]

; 105  :     _Left    = _STD move(_Right);

  00154	8b 06		 mov	 eax, DWORD PTR [esi]
  00156	89 03		 mov	 DWORD PTR [ebx], eax

; 106  :     _Right   = _STD move(_Tmp);

  00158	89 0e		 mov	 DWORD PTR [esi], ecx
; File D:\Metin2 Server Files\mainline\SRC_2014\Metin2Client\UserInterface\PythonCharacterManager.cpp

; 427  : 		return pkLeft->LessRenderOrder(pkRight);		

  0015a	ff 37		 push	 DWORD PTR [edi]
  0015c	e8 00 00 00 00	 call	 ?LessRenderOrder@CInstanceBase@@QAE_NPAV1@@Z ; CInstanceBase::LessRenderOrder
; File C:\Program Files (x86)\Microsoft Visual Studio\2019\Community\VC\Tools\MSVC\14.28.29333\include\algorithm

; 7443 :         if (_DEBUG_LT_PRED(_Pred, *_Mid, *_First)) {

  00161	84 c0		 test	 al, al
  00163	74 4d		 je	 SHORT $LN119@Guess_medi
; File C:\Program Files (x86)\Microsoft Visual Studio\2019\Community\VC\Tools\MSVC\14.28.29333\include\utility

; 104  :     _Ty _Tmp = _STD move(_Left);

  00165	8b 0e		 mov	 ecx, DWORD PTR [esi]

; 105  :     _Left    = _STD move(_Right);

  00167	8b 07		 mov	 eax, DWORD PTR [edi]
  00169	89 06		 mov	 DWORD PTR [esi], eax

; 106  :     _Right   = _STD move(_Tmp);

  0016b	89 0f		 mov	 DWORD PTR [edi], ecx
  0016d	5f		 pop	 edi
; File C:\Program Files (x86)\Microsoft Visual Studio\2019\Community\VC\Tools\MSVC\14.28.29333\include\algorithm

; 7464 : }

  0016e	5e		 pop	 esi
  0016f	5b		 pop	 ebx
  00170	8b e5		 mov	 esp, ebp
  00172	5d		 pop	 ebp
  00173	c3		 ret	 0
$LN2@Guess_medi:

; 7436 :     if (_DEBUG_LT_PRED(_Pred, *_Mid, *_First)) {

  00174	8b 7d 0c	 mov	 edi, DWORD PTR __Mid$[ebp]
; File D:\Metin2 Server Files\mainline\SRC_2014\Metin2Client\UserInterface\PythonCharacterManager.cpp

; 427  : 		return pkLeft->LessRenderOrder(pkRight);		

  00177	8b 0f		 mov	 ecx, DWORD PTR [edi]
  00179	e8 00 00 00 00	 call	 ?LessRenderOrder@CInstanceBase@@QAE_NPAV1@@Z ; CInstanceBase::LessRenderOrder
; File C:\Program Files (x86)\Microsoft Visual Studio\2019\Community\VC\Tools\MSVC\14.28.29333\include\algorithm

; 7436 :     if (_DEBUG_LT_PRED(_Pred, *_Mid, *_First)) {

  0017e	84 c0		 test	 al, al
  00180	74 08		 je	 SHORT $LN129@Guess_medi
; File C:\Program Files (x86)\Microsoft Visual Studio\2019\Community\VC\Tools\MSVC\14.28.29333\include\utility

; 104  :     _Ty _Tmp = _STD move(_Left);

  00182	8b 0f		 mov	 ecx, DWORD PTR [edi]

; 105  :     _Left    = _STD move(_Right);

  00184	8b 06		 mov	 eax, DWORD PTR [esi]
  00186	89 07		 mov	 DWORD PTR [edi], eax

; 106  :     _Right   = _STD move(_Tmp);

  00188	89 0e		 mov	 DWORD PTR [esi], ecx
$LN129@Guess_medi:
; File D:\Metin2 Server Files\mainline\SRC_2014\Metin2Client\UserInterface\PythonCharacterManager.cpp

; 427  : 		return pkLeft->LessRenderOrder(pkRight);		

  0018a	ff 37		 push	 DWORD PTR [edi]
  0018c	8b 0b		 mov	 ecx, DWORD PTR [ebx]
  0018e	e8 00 00 00 00	 call	 ?LessRenderOrder@CInstanceBase@@QAE_NPAV1@@Z ; CInstanceBase::LessRenderOrder
; File C:\Program Files (x86)\Microsoft Visual Studio\2019\Community\VC\Tools\MSVC\14.28.29333\include\algorithm

; 7440 :     if (_DEBUG_LT_PRED(_Pred, *_Last, *_Mid)) { // swap middle and last, then test first again

  00193	84 c0		 test	 al, al
  00195	74 1b		 je	 SHORT $LN119@Guess_medi
; File C:\Program Files (x86)\Microsoft Visual Studio\2019\Community\VC\Tools\MSVC\14.28.29333\include\utility

; 104  :     _Ty _Tmp = _STD move(_Left);

  00197	8b 0b		 mov	 ecx, DWORD PTR [ebx]

; 105  :     _Left    = _STD move(_Right);

  00199	8b 07		 mov	 eax, DWORD PTR [edi]
  0019b	89 03		 mov	 DWORD PTR [ebx], eax

; 106  :     _Right   = _STD move(_Tmp);

  0019d	89 0f		 mov	 DWORD PTR [edi], ecx
; File D:\Metin2 Server Files\mainline\SRC_2014\Metin2Client\UserInterface\PythonCharacterManager.cpp

; 427  : 		return pkLeft->LessRenderOrder(pkRight);		

  0019f	ff 36		 push	 DWORD PTR [esi]
  001a1	e8 00 00 00 00	 call	 ?LessRenderOrder@CInstanceBase@@QAE_NPAV1@@Z ; CInstanceBase::LessRenderOrder
; File C:\Program Files (x86)\Microsoft Visual Studio\2019\Community\VC\Tools\MSVC\14.28.29333\include\algorithm

; 7443 :         if (_DEBUG_LT_PRED(_Pred, *_Mid, *_First)) {

  001a6	84 c0		 test	 al, al
  001a8	74 08		 je	 SHORT $LN119@Guess_medi
; File C:\Program Files (x86)\Microsoft Visual Studio\2019\Community\VC\Tools\MSVC\14.28.29333\include\utility

; 104  :     _Ty _Tmp = _STD move(_Left);

  001aa	8b 0f		 mov	 ecx, DWORD PTR [edi]

; 105  :     _Left    = _STD move(_Right);

  001ac	8b 06		 mov	 eax, DWORD PTR [esi]
  001ae	89 07		 mov	 DWORD PTR [edi], eax

; 106  :     _Right   = _STD move(_Tmp);

  001b0	89 0e		 mov	 DWORD PTR [esi], ecx
$LN119@Guess_medi:
  001b2	5f		 pop	 edi
; File C:\Program Files (x86)\Microsoft Visual Studio\2019\Community\VC\Tools\MSVC\14.28.29333\include\algorithm

; 7464 : }

  001b3	5e		 pop	 esi
  001b4	5b		 pop	 ebx
  001b5	8b e5		 mov	 esp, ebp
  001b7	5d		 pop	 ebp
  001b8	c3		 ret	 0
??$_Guess_median_unchecked@PAPAVCInstanceBase@@ULessCharacterInstancePtrRenderOrder@@@std@@YAXPAPAVCInstanceBase@@00ULessCharacterInstancePtrRenderOrder@@@Z ENDP ; std::_Guess_median_unchecked<CInstanceBase * *,LessCharacterInstancePtrRenderOrder>
_TEXT	ENDS
; Function compile flags: /Ogtp
; File C:\Program Files (x86)\Microsoft Visual Studio\2019\Community\VC\Tools\MSVC\14.28.29333\include\algorithm
; File D:\Metin2 Server Files\mainline\SRC_2014\Metin2Client\UserInterface\PythonCharacterManager.cpp
; File C:\Program Files (x86)\Microsoft Visual Studio\2019\Community\VC\Tools\MSVC\14.28.29333\include\algorithm
; File D:\Metin2 Server Files\mainline\SRC_2014\Metin2Client\UserInterface\PythonCharacterManager.cpp
; File C:\Program Files (x86)\Microsoft Visual Studio\2019\Community\VC\Tools\MSVC\14.28.29333\include\algorithm
; File D:\Metin2 Server Files\mainline\SRC_2014\Metin2Client\UserInterface\PythonCharacterManager.cpp
; File C:\Program Files (x86)\Microsoft Visual Studio\2019\Community\VC\Tools\MSVC\14.28.29333\include\algorithm
; File D:\Metin2 Server Files\mainline\SRC_2014\Metin2Client\UserInterface\PythonCharacterManager.cpp
; File C:\Program Files (x86)\Microsoft Visual Studio\2019\Community\VC\Tools\MSVC\14.28.29333\include\algorithm
;	COMDAT ??$_Pop_heap_hole_by_index@PAPAVCInstanceBase@@PAV1@ULessCharacterInstancePtrRenderOrder@@@std@@YAXPAPAVCInstanceBase@@HH$$QAPAV1@ULessCharacterInstancePtrRenderOrder@@@Z
_TEXT	SEGMENT
__Max_sequence_non_leaf$1$ = -4				; size = 4
__First$ = 8						; size = 4
__Top$1$ = 12						; size = 4
__Hole$ = 12						; size = 4
__Bottom$ = 16						; size = 4
__Val$ = 20						; size = 4
__Pred$ = 24						; size = 1
??$_Pop_heap_hole_by_index@PAPAVCInstanceBase@@PAV1@ULessCharacterInstancePtrRenderOrder@@@std@@YAXPAPAVCInstanceBase@@HH$$QAPAV1@ULessCharacterInstancePtrRenderOrder@@@Z PROC ; std::_Pop_heap_hole_by_index<CInstanceBase * *,CInstanceBase *,LessCharacterInstancePtrRenderOrder>, COMDAT

; 6186 :     _RanIt _First, _Iter_diff_t<_RanIt> _Hole, _Iter_diff_t<_RanIt> _Bottom, _Ty&& _Val, _Pr _Pred) {

  00000	55		 push	 ebp
  00001	8b ec		 mov	 ebp, esp
  00003	51		 push	 ecx

; 6187 :     // percolate _Hole to _Bottom, then push _Val
; 6188 :     _STL_INTERNAL_CHECK(_Bottom > 0);
; 6189 : 
; 6190 :     using _Diff      = _Iter_diff_t<_RanIt>;
; 6191 :     const _Diff _Top = _Hole;
; 6192 :     _Diff _Idx       = _Hole;
; 6193 : 
; 6194 :     // Check whether _Idx can have a child before calculating that child's index, since
; 6195 :     // calculating the child's index can trigger integer overflows
; 6196 :     const _Diff _Max_sequence_non_leaf = (_Bottom - 1) >> 1; // shift for codegen

  00004	8b 55 10	 mov	 edx, DWORD PTR __Bottom$[ebp]
  00007	53		 push	 ebx

; 6197 :     while (_Idx < _Max_sequence_non_leaf) { // move _Hole down to larger child

  00008	8b 5d 08	 mov	 ebx, DWORD PTR __First$[ebp]
  0000b	56		 push	 esi
  0000c	8b 75 0c	 mov	 esi, DWORD PTR __Hole$[ebp]
  0000f	8d 42 ff	 lea	 eax, DWORD PTR [edx-1]
  00012	d1 f8		 sar	 eax, 1
  00014	8b ce		 mov	 ecx, esi
  00016	89 4d 0c	 mov	 DWORD PTR __Top$1$[ebp], ecx
  00019	89 45 fc	 mov	 DWORD PTR __Max_sequence_non_leaf$1$[ebp], eax
  0001c	57		 push	 edi
  0001d	8b fe		 mov	 edi, esi
  0001f	3b f0		 cmp	 esi, eax
  00021	7d 3b		 jge	 SHORT $LN3@Pop_heap_h
  00023	0f 1f 40 00 66
	0f 1f 84 00 00
	00 00 00	 npad	 13
$LL2@Pop_heap_h:
; File D:\Metin2 Server Files\mainline\SRC_2014\Metin2Client\UserInterface\PythonCharacterManager.cpp

; 427  : 		return pkLeft->LessRenderOrder(pkRight);		

  00030	ff 74 fb 04	 push	 DWORD PTR [ebx+edi*8+4]
  00034	8b 4c fb 08	 mov	 ecx, DWORD PTR [ebx+edi*8+8]
; File C:\Program Files (x86)\Microsoft Visual Studio\2019\Community\VC\Tools\MSVC\14.28.29333\include\algorithm

; 6198 :         _Idx = 2 * _Idx + 2;

  00038	8d 3c 7d 02 00
	00 00		 lea	 edi, DWORD PTR [edi*2+2]
; File D:\Metin2 Server Files\mainline\SRC_2014\Metin2Client\UserInterface\PythonCharacterManager.cpp

; 427  : 		return pkLeft->LessRenderOrder(pkRight);		

  0003f	e8 00 00 00 00	 call	 ?LessRenderOrder@CInstanceBase@@QAE_NPAV1@@Z ; CInstanceBase::LessRenderOrder
; File C:\Program Files (x86)\Microsoft Visual Studio\2019\Community\VC\Tools\MSVC\14.28.29333\include\algorithm

; 6199 :         if (_DEBUG_LT_PRED(_Pred, *(_First + _Idx), *(_First + (_Idx - 1)))) {

  00044	84 c0		 test	 al, al
  00046	74 01		 je	 SHORT $LN4@Pop_heap_h

; 6200 :             --_Idx;

  00048	4f		 dec	 edi
$LN4@Pop_heap_h:

; 6201 :         }
; 6202 :         *(_First + _Hole) = _STD move(*(_First + _Idx));

  00049	8b 04 bb	 mov	 eax, DWORD PTR [ebx+edi*4]
  0004c	89 04 b3	 mov	 DWORD PTR [ebx+esi*4], eax

; 6203 :         _Hole             = _Idx;

  0004f	8b f7		 mov	 esi, edi
  00051	8b 45 fc	 mov	 eax, DWORD PTR __Max_sequence_non_leaf$1$[ebp]
  00054	3b f8		 cmp	 edi, eax
  00056	7c d8		 jl	 SHORT $LL2@Pop_heap_h
  00058	8b 4d 0c	 mov	 ecx, DWORD PTR __Top$1$[ebp]
  0005b	8b 55 10	 mov	 edx, DWORD PTR __Bottom$[ebp]
$LN3@Pop_heap_h:

; 6204 :     }
; 6205 : 
; 6206 :     if (_Idx == _Max_sequence_non_leaf && _Bottom % 2 == 0) { // only child at bottom, move _Hole down to it

  0005e	3b f8		 cmp	 edi, eax
  00060	75 0f		 jne	 SHORT $LN5@Pop_heap_h
  00062	f6 c2 01	 test	 dl, 1
  00065	75 0a		 jne	 SHORT $LN5@Pop_heap_h

; 6207 :         *(_First + _Hole) = _STD move(*(_First + (_Bottom - 1)));

  00067	8b 44 93 fc	 mov	 eax, DWORD PTR [ebx+edx*4-4]
  0006b	89 04 b3	 mov	 DWORD PTR [ebx+esi*4], eax

; 6208 :         _Hole             = _Bottom - 1;

  0006e	8d 72 ff	 lea	 esi, DWORD PTR [edx-1]
$LN5@Pop_heap_h:

; 6077 :          _Top < _Hole && _DEBUG_LT_PRED(_Pred, *(_First + _Idx), _Val); //

  00071	3b ce		 cmp	 ecx, esi
  00073	7d 23		 jge	 SHORT $LN24@Pop_heap_h
$LL12@Pop_heap_h:
; File D:\Metin2 Server Files\mainline\SRC_2014\Metin2Client\UserInterface\PythonCharacterManager.cpp

; 427  : 		return pkLeft->LessRenderOrder(pkRight);		

  00075	8b 45 14	 mov	 eax, DWORD PTR __Val$[ebp]
; File C:\Program Files (x86)\Microsoft Visual Studio\2019\Community\VC\Tools\MSVC\14.28.29333\include\algorithm

; 6076 :     for (_Diff _Idx = (_Hole - 1) >> 1; // shift for codegen

  00078	8d 7e ff	 lea	 edi, DWORD PTR [esi-1]
  0007b	d1 ff		 sar	 edi, 1
; File D:\Metin2 Server Files\mainline\SRC_2014\Metin2Client\UserInterface\PythonCharacterManager.cpp

; 427  : 		return pkLeft->LessRenderOrder(pkRight);		

  0007d	ff 30		 push	 DWORD PTR [eax]
  0007f	8b 0c bb	 mov	 ecx, DWORD PTR [ebx+edi*4]
  00082	e8 00 00 00 00	 call	 ?LessRenderOrder@CInstanceBase@@QAE_NPAV1@@Z ; CInstanceBase::LessRenderOrder
; File C:\Program Files (x86)\Microsoft Visual Studio\2019\Community\VC\Tools\MSVC\14.28.29333\include\algorithm

; 6077 :          _Top < _Hole && _DEBUG_LT_PRED(_Pred, *(_First + _Idx), _Val); //

  00087	84 c0		 test	 al, al
  00089	74 0d		 je	 SHORT $LN24@Pop_heap_h

; 6078 :          _Idx = (_Hole - 1) >> 1) { // shift for codegen
; 6079 :         // move _Hole up to parent
; 6080 :         *(_First + _Hole) = _STD move(*(_First + _Idx));

  0008b	8b 04 bb	 mov	 eax, DWORD PTR [ebx+edi*4]
  0008e	89 04 b3	 mov	 DWORD PTR [ebx+esi*4], eax

; 6081 :         _Hole             = _Idx;

  00091	8b f7		 mov	 esi, edi
  00093	39 7d 0c	 cmp	 DWORD PTR __Top$1$[ebp], edi
  00096	7c dd		 jl	 SHORT $LL12@Pop_heap_h
$LN24@Pop_heap_h:

; 6209 :     }
; 6210 : 
; 6211 :     _Push_heap_by_index(_First, _Hole, _Top, _STD forward<_Ty>(_Val), _Pred);
; 6212 : }

  00098	8b 45 14	 mov	 eax, DWORD PTR __Val$[ebp]
  0009b	5f		 pop	 edi
  0009c	8b 00		 mov	 eax, DWORD PTR [eax]
  0009e	89 04 b3	 mov	 DWORD PTR [ebx+esi*4], eax
  000a1	5e		 pop	 esi
  000a2	5b		 pop	 ebx
  000a3	8b e5		 mov	 esp, ebp
  000a5	5d		 pop	 ebp
  000a6	c3		 ret	 0
??$_Pop_heap_hole_by_index@PAPAVCInstanceBase@@PAV1@ULessCharacterInstancePtrRenderOrder@@@std@@YAXPAPAVCInstanceBase@@HH$$QAPAV1@ULessCharacterInstancePtrRenderOrder@@@Z ENDP ; std::_Pop_heap_hole_by_index<CInstanceBase * *,CInstanceBase *,LessCharacterInstancePtrRenderOrder>
_TEXT	ENDS
; Function compile flags: /Ogtp
; File C:\Program Files (x86)\Microsoft Visual Studio\2019\Community\VC\Tools\MSVC\14.28.29333\include\xmemory
;	COMDAT ??$_Refancy@PAPAVCInstanceBase@@$0A@@std@@YAPAPAVCInstanceBase@@PAPAV1@@Z
_TEXT	SEGMENT
__Ptr$ = 8						; size = 4
??$_Refancy@PAPAVCInstanceBase@@$0A@@std@@YAPAPAVCInstanceBase@@PAPAV1@@Z PROC ; std::_Refancy<CInstanceBase * *,0>, COMDAT

; 261  : _Pointer _Refancy(_Pointer _Ptr) noexcept {

  00000	55		 push	 ebp
  00001	8b ec		 mov	 ebp, esp

; 262  :     return _Ptr;

  00003	8b 45 08	 mov	 eax, DWORD PTR __Ptr$[ebp]

; 263  : }

  00006	5d		 pop	 ebp
  00007	c3		 ret	 0
??$_Refancy@PAPAVCInstanceBase@@$0A@@std@@YAPAPAVCInstanceBase@@PAPAV1@@Z ENDP ; std::_Refancy<CInstanceBase * *,0>
_TEXT	ENDS
; Function compile flags: /Ogtp
; File C:\Program Files (x86)\Microsoft Visual Studio\2019\Community\VC\Tools\MSVC\14.28.29333\include\xutility
;	COMDAT ??$_Copy_memmove@PAPAVCInstanceBase@@PAPAV1@@std@@YAPAPAVCInstanceBase@@PAPAV1@00@Z
_TEXT	SEGMENT
__First$ = 8						; size = 4
__Last$ = 12						; size = 4
__Dest$ = 16						; size = 4
??$_Copy_memmove@PAPAVCInstanceBase@@PAPAV1@@std@@YAPAPAVCInstanceBase@@PAPAV1@00@Z PROC ; std::_Copy_memmove<CInstanceBase * *,CInstanceBase * *>, COMDAT

; 4360 : _OutIt _Copy_memmove(_InIt _First, _InIt _Last, _OutIt _Dest) {

  00000	55		 push	 ebp
  00001	8b ec		 mov	 ebp, esp

; 4361 :     const char* const _First_ch = const_cast<const char*>(reinterpret_cast<const volatile char*>(_First));
; 4362 :     const char* const _Last_ch  = const_cast<const char*>(reinterpret_cast<const volatile char*>(_Last));
; 4363 :     char* const _Dest_ch        = const_cast<char*>(reinterpret_cast<volatile char*>(_Dest));
; 4364 :     const auto _Count           = static_cast<size_t>(_Last_ch - _First_ch);

  00003	8b 45 08	 mov	 eax, DWORD PTR __First$[ebp]
  00006	56		 push	 esi

; 4365 :     _CSTD memmove(_Dest_ch, _First_ch, _Count);

  00007	8b 75 10	 mov	 esi, DWORD PTR __Dest$[ebp]
  0000a	57		 push	 edi
  0000b	8b 7d 0c	 mov	 edi, DWORD PTR __Last$[ebp]
  0000e	2b f8		 sub	 edi, eax
  00010	57		 push	 edi
  00011	50		 push	 eax
  00012	56		 push	 esi
  00013	e8 00 00 00 00	 call	 _memmove
  00018	83 c4 0c	 add	 esp, 12			; 0000000cH

; 4366 :     return reinterpret_cast<_OutIt>(_Dest_ch + _Count);

  0001b	8d 04 37	 lea	 eax, DWORD PTR [edi+esi]
  0001e	5f		 pop	 edi
  0001f	5e		 pop	 esi

; 4367 : }

  00020	5d		 pop	 ebp
  00021	c3		 ret	 0
??$_Copy_memmove@PAPAVCInstanceBase@@PAPAV1@@std@@YAPAPAVCInstanceBase@@PAPAV1@00@Z ENDP ; std::_Copy_memmove<CInstanceBase * *,CInstanceBase * *>
_TEXT	ENDS
; Function compile flags: /Ogtp
; File C:\Program Files (x86)\Microsoft Visual Studio\2019\Community\VC\Tools\MSVC\14.28.29333\include\xmemory
;	COMDAT ??$_Destroy_in_place@PAU?$_Tree_node@U?$pair@$$CBKPAVCInstanceBase@@@std@@PAX@std@@@std@@YAXAAPAU?$_Tree_node@U?$pair@$$CBKPAVCInstanceBase@@@std@@PAX@0@@Z
_TEXT	SEGMENT
__Obj$ = 8						; size = 4
??$_Destroy_in_place@PAU?$_Tree_node@U?$pair@$$CBKPAVCInstanceBase@@@std@@PAX@std@@@std@@YAXAAPAU?$_Tree_node@U?$pair@$$CBKPAVCInstanceBase@@@std@@PAX@0@@Z PROC ; std::_Destroy_in_place<std::_Tree_node<std::pair<unsigned long const ,CInstanceBase *>,void *> *>, COMDAT

; 271  : #if _HAS_IF_CONSTEXPR
; 272  :     if constexpr (is_array_v<_Ty>) {
; 273  :         _Destroy_range(_Obj, _Obj + extent_v<_Ty>);
; 274  :     } else
; 275  : #endif // _HAS_IF_CONSTEXPR
; 276  :     {
; 277  :         _Obj.~_Ty();
; 278  :     }
; 279  : }

  00000	c2 00 00	 ret	 0
??$_Destroy_in_place@PAU?$_Tree_node@U?$pair@$$CBKPAVCInstanceBase@@@std@@PAX@std@@@std@@YAXAAPAU?$_Tree_node@U?$pair@$$CBKPAVCInstanceBase@@@std@@PAX@0@@Z ENDP ; std::_Destroy_in_place<std::_Tree_node<std::pair<unsigned long const ,CInstanceBase *>,void *> *>
_TEXT	ENDS
; Function compile flags: /Ogtp
; File C:\Program Files (x86)\Microsoft Visual Studio\2019\Community\VC\Tools\MSVC\14.28.29333\include\algorithm
; File C:\Program Files (x86)\Microsoft Visual Studio\2019\Community\VC\Tools\MSVC\14.28.29333\include\xutility
; File D:\Metin2 Server Files\mainline\SRC_2014\Metin2Client\UserInterface\PythonCharacterManager.cpp
; File C:\Program Files (x86)\Microsoft Visual Studio\2019\Community\VC\Tools\MSVC\14.28.29333\include\xutility
; File D:\Metin2 Server Files\mainline\SRC_2014\Metin2Client\UserInterface\PythonCharacterManager.cpp
; File C:\Program Files (x86)\Microsoft Visual Studio\2019\Community\VC\Tools\MSVC\14.28.29333\include\xutility
; File D:\Metin2 Server Files\mainline\SRC_2014\Metin2Client\UserInterface\PythonCharacterManager.cpp
; File C:\Program Files (x86)\Microsoft Visual Studio\2019\Community\VC\Tools\MSVC\14.28.29333\include\xutility
; File D:\Metin2 Server Files\mainline\SRC_2014\Metin2Client\UserInterface\PythonCharacterManager.cpp
; File C:\Program Files (x86)\Microsoft Visual Studio\2019\Community\VC\Tools\MSVC\14.28.29333\include\algorithm
; File C:\Program Files (x86)\Microsoft Visual Studio\2019\Community\VC\Tools\MSVC\14.28.29333\include\xutility
; File D:\Metin2 Server Files\mainline\SRC_2014\Metin2Client\UserInterface\PythonCharacterManager.cpp
; File C:\Program Files (x86)\Microsoft Visual Studio\2019\Community\VC\Tools\MSVC\14.28.29333\include\xutility
; File D:\Metin2 Server Files\mainline\SRC_2014\Metin2Client\UserInterface\PythonCharacterManager.cpp
; File C:\Program Files (x86)\Microsoft Visual Studio\2019\Community\VC\Tools\MSVC\14.28.29333\include\xutility
; File D:\Metin2 Server Files\mainline\SRC_2014\Metin2Client\UserInterface\PythonCharacterManager.cpp
; File C:\Program Files (x86)\Microsoft Visual Studio\2019\Community\VC\Tools\MSVC\14.28.29333\include\algorithm
; File D:\Metin2 Server Files\mainline\SRC_2014\Metin2Client\UserInterface\PythonCharacterManager.cpp
; File C:\Program Files (x86)\Microsoft Visual Studio\2019\Community\VC\Tools\MSVC\14.28.29333\include\algorithm
; File C:\Program Files (x86)\Microsoft Visual Studio\2019\Community\VC\Tools\MSVC\14.28.29333\include\xutility
; File D:\Metin2 Server Files\mainline\SRC_2014\Metin2Client\UserInterface\PythonCharacterManager.cpp
; File C:\Program Files (x86)\Microsoft Visual Studio\2019\Community\VC\Tools\MSVC\14.28.29333\include\xutility
; File D:\Metin2 Server Files\mainline\SRC_2014\Metin2Client\UserInterface\PythonCharacterManager.cpp
; File C:\Program Files (x86)\Microsoft Visual Studio\2019\Community\VC\Tools\MSVC\14.28.29333\include\xutility
; File D:\Metin2 Server Files\mainline\SRC_2014\Metin2Client\UserInterface\PythonCharacterManager.cpp
; File C:\Program Files (x86)\Microsoft Visual Studio\2019\Community\VC\Tools\MSVC\14.28.29333\include\xutility
; File D:\Metin2 Server Files\mainline\SRC_2014\Metin2Client\UserInterface\PythonCharacterManager.cpp
; File C:\Program Files (x86)\Microsoft Visual Studio\2019\Community\VC\Tools\MSVC\14.28.29333\include\algorithm
; File C:\Program Files (x86)\Microsoft Visual Studio\2019\Community\VC\Tools\MSVC\14.28.29333\include\utility
; File C:\Program Files (x86)\Microsoft Visual Studio\2019\Community\VC\Tools\MSVC\14.28.29333\include\algorithm
; File C:\Program Files (x86)\Microsoft Visual Studio\2019\Community\VC\Tools\MSVC\14.28.29333\include\xutility
; File D:\Metin2 Server Files\mainline\SRC_2014\Metin2Client\UserInterface\PythonCharacterManager.cpp
; File C:\Program Files (x86)\Microsoft Visual Studio\2019\Community\VC\Tools\MSVC\14.28.29333\include\xutility
; File D:\Metin2 Server Files\mainline\SRC_2014\Metin2Client\UserInterface\PythonCharacterManager.cpp
; File C:\Program Files (x86)\Microsoft Visual Studio\2019\Community\VC\Tools\MSVC\14.28.29333\include\xutility
; File D:\Metin2 Server Files\mainline\SRC_2014\Metin2Client\UserInterface\PythonCharacterManager.cpp
; File C:\Program Files (x86)\Microsoft Visual Studio\2019\Community\VC\Tools\MSVC\14.28.29333\include\xutility
; File D:\Metin2 Server Files\mainline\SRC_2014\Metin2Client\UserInterface\PythonCharacterManager.cpp
; File C:\Program Files (x86)\Microsoft Visual Studio\2019\Community\VC\Tools\MSVC\14.28.29333\include\algorithm
; File C:\Program Files (x86)\Microsoft Visual Studio\2019\Community\VC\Tools\MSVC\14.28.29333\include\utility
; File C:\Program Files (x86)\Microsoft Visual Studio\2019\Community\VC\Tools\MSVC\14.28.29333\include\algorithm
; File D:\Metin2 Server Files\mainline\SRC_2014\Metin2Client\UserInterface\PythonCharacterManager.cpp
; File C:\Program Files (x86)\Microsoft Visual Studio\2019\Community\VC\Tools\MSVC\14.28.29333\include\algorithm
; File C:\Program Files (x86)\Microsoft Visual Studio\2019\Community\VC\Tools\MSVC\14.28.29333\include\utility
; File C:\Program Files (x86)\Microsoft Visual Studio\2019\Community\VC\Tools\MSVC\14.28.29333\include\algorithm
; File C:\Program Files (x86)\Microsoft Visual Studio\2019\Community\VC\Tools\MSVC\14.28.29333\include\utility
; File C:\Program Files (x86)\Microsoft Visual Studio\2019\Community\VC\Tools\MSVC\14.28.29333\include\algorithm
; File C:\Program Files (x86)\Microsoft Visual Studio\2019\Community\VC\Tools\MSVC\14.28.29333\include\utility
; File C:\Program Files (x86)\Microsoft Visual Studio\2019\Community\VC\Tools\MSVC\14.28.29333\include\algorithm
; File C:\Program Files (x86)\Microsoft Visual Studio\2019\Community\VC\Tools\MSVC\14.28.29333\include\utility
; File C:\Program Files (x86)\Microsoft Visual Studio\2019\Community\VC\Tools\MSVC\14.28.29333\include\algorithm
; File C:\Program Files (x86)\Microsoft Visual Studio\2019\Community\VC\Tools\MSVC\14.28.29333\include\utility
; File C:\Program Files (x86)\Microsoft Visual Studio\2019\Community\VC\Tools\MSVC\14.28.29333\include\algorithm
; File C:\Program Files (x86)\Microsoft Visual Studio\2019\Community\VC\Tools\MSVC\14.28.29333\include\utility
; File C:\Program Files (x86)\Microsoft Visual Studio\2019\Community\VC\Tools\MSVC\14.28.29333\include\algorithm
; File C:\Program Files (x86)\Microsoft Visual Studio\2019\Community\VC\Tools\MSVC\14.28.29333\include\utility
; File C:\Program Files (x86)\Microsoft Visual Studio\2019\Community\VC\Tools\MSVC\14.28.29333\include\algorithm
; File C:\Program Files (x86)\Microsoft Visual Studio\2019\Community\VC\Tools\MSVC\14.28.29333\include\utility
; File C:\Program Files (x86)\Microsoft Visual Studio\2019\Community\VC\Tools\MSVC\14.28.29333\include\algorithm
; File C:\Program Files (x86)\Microsoft Visual Studio\2019\Community\VC\Tools\MSVC\14.28.29333\include\utility
; File C:\Program Files (x86)\Microsoft Visual Studio\2019\Community\VC\Tools\MSVC\14.28.29333\include\algorithm
; File C:\Program Files (x86)\Microsoft Visual Studio\2019\Community\VC\Tools\MSVC\14.28.29333\include\utility
; File C:\Program Files (x86)\Microsoft Visual Studio\2019\Community\VC\Tools\MSVC\14.28.29333\include\algorithm
;	COMDAT ??$_Partition_by_median_guess_unchecked@PAPAVCInstanceBase@@U?$_Ref_fn@UCInstanceBase_SLessCameraDistance@@@std@@@std@@YA?AU?$pair@PAPAVCInstanceBase@@PAPAV1@@0@PAPAVCInstanceBase@@0U?$_Ref_fn@UCInstanceBase_SLessCameraDistance@@@0@@Z
_TEXT	SEGMENT
_this$1$ = -24						; size = 4
_pkInstLeft$1$ = -24					; size = 4
tv710 = -24						; size = 4
tv700 = -24						; size = 4
_pkInstLeft$1$ = -20					; size = 4
_this$1$ = -20						; size = 4
_this$1$ = -20						; size = 4
_pkInstLeft$1$ = -20					; size = 4
tv732 = -20						; size = 4
tv721 = -20						; size = 4
tv714 = -20						; size = 4
tv704 = -20						; size = 4
_pkInstRight$1$ = -16					; size = 4
_pkInstRight$1$ = -16					; size = 4
_pkInstLeft$1$ = -16					; size = 4
_this$1$ = -16						; size = 4
_this$1$ = -16						; size = 4
_this$1$ = -16						; size = 4
_this$1$ = -16						; size = 4
_this$1$ = -16						; size = 4
__Last$1$ = -16						; size = 4
tv774 = -16						; size = 4
tv764 = -16						; size = 4
tv754 = -16						; size = 4
tv743 = -16						; size = 4
tv736 = -16						; size = 4
tv725 = -16						; size = 4
_pkInstRight$1$ = -12					; size = 4
_pkInstRight$1$ = -12					; size = 4
_pkInstLeft$1$ = -12					; size = 4
_pkInstLeft$1$ = -12					; size = 4
_pkInstRight$1$ = -12					; size = 4
_pkInstRight$1$ = -12					; size = 4
__Gfirst$1$ = -12					; size = 4
tv758 = -12						; size = 4
tv748 = -12						; size = 4
tv687 = -12						; size = 4
_pkInstLeft$1$ = -8					; size = 4
_pkInstLeft$1$ = -8					; size = 4
__Glast$1$ = -8						; size = 4
__Pfirst$1$ = -8					; size = 4
tv778 = -8						; size = 4
tv768 = -8						; size = 4
__Plast$1$ = -4						; size = 4
___$ReturnUdt$ = 8					; size = 4
__First$ = 12						; size = 4
__Last$ = 16						; size = 4
__Pred$ = 20						; size = 4
??$_Partition_by_median_guess_unchecked@PAPAVCInstanceBase@@U?$_Ref_fn@UCInstanceBase_SLessCameraDistance@@@std@@@std@@YA?AU?$pair@PAPAVCInstanceBase@@PAPAV1@@0@PAPAVCInstanceBase@@0U?$_Ref_fn@UCInstanceBase_SLessCameraDistance@@@0@@Z PROC ; std::_Partition_by_median_guess_unchecked<CInstanceBase * *,std::_Ref_fn<CInstanceBase_SLessCameraDistance> >, COMDAT

; 7467 : _CONSTEXPR20 pair<_RanIt, _RanIt> _Partition_by_median_guess_unchecked(_RanIt _First, _RanIt _Last, _Pr _Pred) {

  00000	55		 push	 ebp
  00001	8b ec		 mov	 ebp, esp
  00003	83 ec 18	 sub	 esp, 24			; 00000018H

; 7468 :     // partition [_First, _Last)
; 7469 :     _RanIt _Mid = _First + ((_Last - _First) >> 1); // shift for codegen

  00006	8b 4d 10	 mov	 ecx, DWORD PTR __Last$[ebp]
  00009	8b c1		 mov	 eax, ecx
  0000b	8b 55 0c	 mov	 edx, DWORD PTR __First$[ebp]

; 7470 :     _Guess_median_unchecked(_First, _Mid, _Prev_iter(_Last), _Pred);

  0000e	83 c1 fc	 add	 ecx, -4			; fffffffcH
  00011	2b c2		 sub	 eax, edx
  00013	89 4d f0	 mov	 DWORD PTR __Last$1$[ebp], ecx
  00016	c1 f8 03	 sar	 eax, 3
  00019	53		 push	 ebx
  0001a	56		 push	 esi
  0001b	8b 75 14	 mov	 esi, DWORD PTR __Pred$[ebp]
  0001e	57		 push	 edi
  0001f	8d 3c 82	 lea	 edi, DWORD PTR [edx+eax*4]

; 7453 :     const _Diff _Count = _Last - _First;

  00022	8b c1		 mov	 eax, ecx
  00024	2b c2		 sub	 eax, edx

; 7468 :     // partition [_First, _Last)
; 7469 :     _RanIt _Mid = _First + ((_Last - _First) >> 1); // shift for codegen

  00026	89 7d f8	 mov	 DWORD PTR __Pfirst$1$[ebp], edi

; 7453 :     const _Diff _Count = _Last - _First;

  00029	c1 f8 02	 sar	 eax, 2

; 7454 :     if (40 < _Count) { // Tukey's ninther

  0002c	56		 push	 esi
  0002d	83 f8 28	 cmp	 eax, 40			; 00000028H
  00030	7e 5f		 jle	 SHORT $LN35@Partition_

; 7455 :         const _Diff _Step     = (_Count + 1) >> 3; // +1 can't overflow because range was made inclusive in caller

  00032	40		 inc	 eax
  00033	c1 f8 03	 sar	 eax, 3

; 7456 :         const _Diff _Two_step = _Step << 1; // note: intentionally discards low-order bit
; 7457 :         _Med3_unchecked(_First, _First + _Step, _First + _Two_step, _Pred);

  00036	8d 0c c5 00 00
	00 00		 lea	 ecx, DWORD PTR [eax*8]
  0003d	8d 1c 85 00 00
	00 00		 lea	 ebx, DWORD PTR [eax*4]
  00044	89 4d f4	 mov	 DWORD PTR tv687[ebp], ecx
  00047	8b 45 0c	 mov	 eax, DWORD PTR __First$[ebp]
  0004a	03 d3		 add	 edx, ebx
  0004c	03 c1		 add	 eax, ecx
  0004e	50		 push	 eax
  0004f	52		 push	 edx
  00050	ff 75 0c	 push	 DWORD PTR __First$[ebp]
  00053	e8 00 00 00 00	 call	 ??$_Med3_unchecked@PAPAVCInstanceBase@@U?$_Ref_fn@UCInstanceBase_SLessCameraDistance@@@std@@@std@@YAXPAPAVCInstanceBase@@00U?$_Ref_fn@UCInstanceBase_SLessCameraDistance@@@0@@Z ; std::_Med3_unchecked<CInstanceBase * *,std::_Ref_fn<CInstanceBase_SLessCameraDistance> >

; 7458 :         _Med3_unchecked(_Mid - _Step, _Mid, _Mid + _Step, _Pred);

  00058	56		 push	 esi
  00059	8d 04 3b	 lea	 eax, DWORD PTR [ebx+edi]
  0005c	50		 push	 eax
  0005d	8b c7		 mov	 eax, edi
  0005f	2b c3		 sub	 eax, ebx
  00061	57		 push	 edi
  00062	50		 push	 eax
  00063	e8 00 00 00 00	 call	 ??$_Med3_unchecked@PAPAVCInstanceBase@@U?$_Ref_fn@UCInstanceBase_SLessCameraDistance@@@std@@@std@@YAXPAPAVCInstanceBase@@00U?$_Ref_fn@UCInstanceBase_SLessCameraDistance@@@0@@Z ; std::_Med3_unchecked<CInstanceBase * *,std::_Ref_fn<CInstanceBase_SLessCameraDistance> >

; 7459 :         _Med3_unchecked(_Last - _Two_step, _Last - _Step, _Last, _Pred);

  00068	8b 45 f0	 mov	 eax, DWORD PTR __Last$1$[ebp]
  0006b	8b f8		 mov	 edi, eax
  0006d	56		 push	 esi
  0006e	50		 push	 eax
  0006f	2b 45 f4	 sub	 eax, DWORD PTR tv687[ebp]
  00072	2b fb		 sub	 edi, ebx
  00074	57		 push	 edi
  00075	50		 push	 eax
  00076	e8 00 00 00 00	 call	 ??$_Med3_unchecked@PAPAVCInstanceBase@@U?$_Ref_fn@UCInstanceBase_SLessCameraDistance@@@std@@@std@@YAXPAPAVCInstanceBase@@00U?$_Ref_fn@UCInstanceBase_SLessCameraDistance@@@0@@Z ; std::_Med3_unchecked<CInstanceBase * *,std::_Ref_fn<CInstanceBase_SLessCameraDistance> >

; 7460 :         _Med3_unchecked(_First + _Step, _Mid, _Last - _Step, _Pred);

  0007b	8b 45 0c	 mov	 eax, DWORD PTR __First$[ebp]
  0007e	56		 push	 esi
  0007f	57		 push	 edi
  00080	8b 7d f8	 mov	 edi, DWORD PTR __Pfirst$1$[ebp]
  00083	03 c3		 add	 eax, ebx
  00085	57		 push	 edi
  00086	50		 push	 eax
  00087	e8 00 00 00 00	 call	 ??$_Med3_unchecked@PAPAVCInstanceBase@@U?$_Ref_fn@UCInstanceBase_SLessCameraDistance@@@std@@@std@@YAXPAPAVCInstanceBase@@00U?$_Ref_fn@UCInstanceBase_SLessCameraDistance@@@0@@Z ; std::_Med3_unchecked<CInstanceBase * *,std::_Ref_fn<CInstanceBase_SLessCameraDistance> >
  0008c	83 c4 40	 add	 esp, 64			; 00000040H

; 7461 :     } else {

  0008f	eb 0b		 jmp	 SHORT $LN36@Partition_
$LN35@Partition_:

; 7462 :         _Med3_unchecked(_First, _Mid, _Last, _Pred);

  00091	51		 push	 ecx
  00092	57		 push	 edi
  00093	52		 push	 edx
  00094	e8 00 00 00 00	 call	 ??$_Med3_unchecked@PAPAVCInstanceBase@@U?$_Ref_fn@UCInstanceBase_SLessCameraDistance@@@std@@@std@@YAXPAPAVCInstanceBase@@00U?$_Ref_fn@UCInstanceBase_SLessCameraDistance@@@0@@Z ; std::_Med3_unchecked<CInstanceBase * *,std::_Ref_fn<CInstanceBase_SLessCameraDistance> >
  00099	83 c4 10	 add	 esp, 16			; 00000010H
$LN36@Partition_:

; 7471 :     _RanIt _Pfirst = _Mid;
; 7472 :     _RanIt _Plast  = _Next_iter(_Pfirst);

  0009c	8d 57 04	 lea	 edx, DWORD PTR [edi+4]
  0009f	89 55 fc	 mov	 DWORD PTR __Plast$1$[ebp], edx

; 7475 :            && !_Pred(*_Pfirst, *_Prev_iter(_Pfirst))) {

  000a2	39 7d 0c	 cmp	 DWORD PTR __First$[ebp], edi
  000a5	0f 83 ac 00 00
	00		 jae	 $LN148@Partition_
  000ab	0f 1f 44 00 00	 npad	 5
$LL2@Partition_:
; File C:\Program Files (x86)\Microsoft Visual Studio\2019\Community\VC\Tools\MSVC\14.28.29333\include\xutility

; 203  :             return _Fn(_STD forward<_Args>(_Vals)...);

  000b0	8b 07		 mov	 eax, DWORD PTR [edi]
  000b2	8b 4d 14	 mov	 ecx, DWORD PTR __Pred$[ebp]
  000b5	89 45 f4	 mov	 DWORD PTR _pkInstRight$1$[ebp], eax
  000b8	8b 47 fc	 mov	 eax, DWORD PTR [edi-4]
  000bb	89 4d f0	 mov	 DWORD PTR _this$1$[ebp], ecx
; File D:\Metin2 Server Files\mainline\SRC_2014\Metin2Client\UserInterface\PythonCharacterManager.cpp

; 714  : 		int nLeftDeadPoint=pkInstLeft->IsDead();

  000be	8b c8		 mov	 ecx, eax
; File C:\Program Files (x86)\Microsoft Visual Studio\2019\Community\VC\Tools\MSVC\14.28.29333\include\xutility

; 203  :             return _Fn(_STD forward<_Args>(_Vals)...);

  000c0	89 45 f8	 mov	 DWORD PTR _pkInstLeft$1$[ebp], eax
; File D:\Metin2 Server Files\mainline\SRC_2014\Metin2Client\UserInterface\PythonCharacterManager.cpp

; 714  : 		int nLeftDeadPoint=pkInstLeft->IsDead();

  000c3	e8 00 00 00 00	 call	 ?IsDead@CInstanceBase@@QAEHXZ ; CInstanceBase::IsDead

; 715  : 		int nRightDeadPoint=pkInstRight->IsDead();

  000c8	8b 4d f4	 mov	 ecx, DWORD PTR _pkInstRight$1$[ebp]
  000cb	8b f0		 mov	 esi, eax
  000cd	e8 00 00 00 00	 call	 ?IsDead@CInstanceBase@@QAEHXZ ; CInstanceBase::IsDead

; 717  : 		if (nLeftDeadPoint<nRightDeadPoint)

  000d2	3b f0		 cmp	 esi, eax
  000d4	7c 7e		 jl	 SHORT $LN163@Partition_

; 720  : 		if (pkInstLeft->CalculateDistanceSq3d(m_kPPosEye)<pkInstRight->CalculateDistanceSq3d(m_kPPosEye))

  000d6	8b 75 f0	 mov	 esi, DWORD PTR _this$1$[ebp]
  000d9	8b 4d f8	 mov	 ecx, DWORD PTR _pkInstLeft$1$[ebp]
  000dc	56		 push	 esi
  000dd	e8 00 00 00 00	 call	 ?CalculateDistanceSq3d@CInstanceBase@@QAEMABUD3DXVECTOR3@@@Z ; CInstanceBase::CalculateDistanceSq3d
  000e2	8b 4d f4	 mov	 ecx, DWORD PTR _pkInstRight$1$[ebp]
  000e5	d9 5d f8	 fstp	 DWORD PTR tv778[ebp]
  000e8	56		 push	 esi
  000e9	e8 00 00 00 00	 call	 ?CalculateDistanceSq3d@CInstanceBase@@QAEMABUD3DXVECTOR3@@@Z ; CInstanceBase::CalculateDistanceSq3d
  000ee	d9 5d f0	 fstp	 DWORD PTR tv774[ebp]
  000f1	f3 0f 10 45 f0	 movss	 xmm0, DWORD PTR tv774[ebp]
  000f6	0f 2f 45 f8	 comiss	 xmm0, DWORD PTR tv778[ebp]
  000fa	77 58		 ja	 SHORT $LN163@Partition_
; File C:\Program Files (x86)\Microsoft Visual Studio\2019\Community\VC\Tools\MSVC\14.28.29333\include\xutility

; 203  :             return _Fn(_STD forward<_Args>(_Vals)...);

  000fc	8b 47 fc	 mov	 eax, DWORD PTR [edi-4]
  000ff	8b 4d 14	 mov	 ecx, DWORD PTR __Pred$[ebp]
  00102	89 45 f4	 mov	 DWORD PTR _pkInstRight$1$[ebp], eax
  00105	8b 07		 mov	 eax, DWORD PTR [edi]
  00107	89 4d f0	 mov	 DWORD PTR _this$1$[ebp], ecx
; File D:\Metin2 Server Files\mainline\SRC_2014\Metin2Client\UserInterface\PythonCharacterManager.cpp

; 714  : 		int nLeftDeadPoint=pkInstLeft->IsDead();

  0010a	8b c8		 mov	 ecx, eax
; File C:\Program Files (x86)\Microsoft Visual Studio\2019\Community\VC\Tools\MSVC\14.28.29333\include\xutility

; 203  :             return _Fn(_STD forward<_Args>(_Vals)...);

  0010c	89 45 f8	 mov	 DWORD PTR _pkInstLeft$1$[ebp], eax
; File D:\Metin2 Server Files\mainline\SRC_2014\Metin2Client\UserInterface\PythonCharacterManager.cpp

; 714  : 		int nLeftDeadPoint=pkInstLeft->IsDead();

  0010f	e8 00 00 00 00	 call	 ?IsDead@CInstanceBase@@QAEHXZ ; CInstanceBase::IsDead

; 715  : 		int nRightDeadPoint=pkInstRight->IsDead();

  00114	8b 4d f4	 mov	 ecx, DWORD PTR _pkInstRight$1$[ebp]
  00117	8b f0		 mov	 esi, eax
  00119	e8 00 00 00 00	 call	 ?IsDead@CInstanceBase@@QAEHXZ ; CInstanceBase::IsDead

; 717  : 		if (nLeftDeadPoint<nRightDeadPoint)

  0011e	3b f0		 cmp	 esi, eax
  00120	7c 32		 jl	 SHORT $LN163@Partition_

; 720  : 		if (pkInstLeft->CalculateDistanceSq3d(m_kPPosEye)<pkInstRight->CalculateDistanceSq3d(m_kPPosEye))

  00122	8b 75 f0	 mov	 esi, DWORD PTR _this$1$[ebp]
  00125	8b 4d f8	 mov	 ecx, DWORD PTR _pkInstLeft$1$[ebp]
  00128	56		 push	 esi
  00129	e8 00 00 00 00	 call	 ?CalculateDistanceSq3d@CInstanceBase@@QAEMABUD3DXVECTOR3@@@Z ; CInstanceBase::CalculateDistanceSq3d
  0012e	8b 4d f4	 mov	 ecx, DWORD PTR _pkInstRight$1$[ebp]
  00131	d9 5d f8	 fstp	 DWORD PTR tv768[ebp]
  00134	56		 push	 esi
  00135	e8 00 00 00 00	 call	 ?CalculateDistanceSq3d@CInstanceBase@@QAEMABUD3DXVECTOR3@@@Z ; CInstanceBase::CalculateDistanceSq3d
  0013a	d9 5d f0	 fstp	 DWORD PTR tv764[ebp]
  0013d	f3 0f 10 45 f0	 movss	 xmm0, DWORD PTR tv764[ebp]
  00142	0f 2f 45 f8	 comiss	 xmm0, DWORD PTR tv768[ebp]
  00146	77 0c		 ja	 SHORT $LN163@Partition_
; File C:\Program Files (x86)\Microsoft Visual Studio\2019\Community\VC\Tools\MSVC\14.28.29333\include\algorithm

; 7475 :            && !_Pred(*_Pfirst, *_Prev_iter(_Pfirst))) {

  00148	83 c7 fc	 add	 edi, -4			; fffffffcH
  0014b	39 7d 0c	 cmp	 DWORD PTR __First$[ebp], edi
  0014e	0f 82 5c ff ff
	ff		 jb	 $LL2@Partition_
$LN163@Partition_:
  00154	8b 55 fc	 mov	 edx, DWORD PTR __Plast$1$[ebp]
$LN148@Partition_:

; 7476 :         --_Pfirst;
; 7477 :     }
; 7478 : 
; 7479 :     while (_Plast < _Last && !_DEBUG_LT_PRED(_Pred, *_Plast, *_Pfirst) && !_Pred(*_Pfirst, *_Plast)) {

  00157	8b 45 10	 mov	 eax, DWORD PTR __Last$[ebp]
  0015a	3b d0		 cmp	 edx, eax
  0015c	0f 83 af 00 00
	00		 jae	 $LN164@Partition_
$LL4@Partition_:
; File C:\Program Files (x86)\Microsoft Visual Studio\2019\Community\VC\Tools\MSVC\14.28.29333\include\xutility

; 203  :             return _Fn(_STD forward<_Args>(_Vals)...);

  00162	8b 4d 14	 mov	 ecx, DWORD PTR __Pred$[ebp]
  00165	8b 02		 mov	 eax, DWORD PTR [edx]
  00167	8b 1f		 mov	 ebx, DWORD PTR [edi]
  00169	89 4d f0	 mov	 DWORD PTR _this$1$[ebp], ecx
; File D:\Metin2 Server Files\mainline\SRC_2014\Metin2Client\UserInterface\PythonCharacterManager.cpp

; 714  : 		int nLeftDeadPoint=pkInstLeft->IsDead();

  0016c	8b c8		 mov	 ecx, eax
; File C:\Program Files (x86)\Microsoft Visual Studio\2019\Community\VC\Tools\MSVC\14.28.29333\include\xutility

; 203  :             return _Fn(_STD forward<_Args>(_Vals)...);

  0016e	89 45 f4	 mov	 DWORD PTR _pkInstLeft$1$[ebp], eax
; File D:\Metin2 Server Files\mainline\SRC_2014\Metin2Client\UserInterface\PythonCharacterManager.cpp

; 714  : 		int nLeftDeadPoint=pkInstLeft->IsDead();

  00171	e8 00 00 00 00	 call	 ?IsDead@CInstanceBase@@QAEHXZ ; CInstanceBase::IsDead

; 715  : 		int nRightDeadPoint=pkInstRight->IsDead();

  00176	8b cb		 mov	 ecx, ebx
  00178	8b f0		 mov	 esi, eax
  0017a	e8 00 00 00 00	 call	 ?IsDead@CInstanceBase@@QAEHXZ ; CInstanceBase::IsDead

; 717  : 		if (nLeftDeadPoint<nRightDeadPoint)

  0017f	3b f0		 cmp	 esi, eax
  00181	0f 8c 84 00 00
	00		 jl	 $LN170@Partition_

; 720  : 		if (pkInstLeft->CalculateDistanceSq3d(m_kPPosEye)<pkInstRight->CalculateDistanceSq3d(m_kPPosEye))

  00187	8b 75 f0	 mov	 esi, DWORD PTR _this$1$[ebp]
  0018a	8b 4d f4	 mov	 ecx, DWORD PTR _pkInstLeft$1$[ebp]
  0018d	56		 push	 esi
  0018e	e8 00 00 00 00	 call	 ?CalculateDistanceSq3d@CInstanceBase@@QAEMABUD3DXVECTOR3@@@Z ; CInstanceBase::CalculateDistanceSq3d
  00193	d9 5d f4	 fstp	 DWORD PTR tv758[ebp]
  00196	56		 push	 esi
  00197	8b cb		 mov	 ecx, ebx
  00199	e8 00 00 00 00	 call	 ?CalculateDistanceSq3d@CInstanceBase@@QAEMABUD3DXVECTOR3@@@Z ; CInstanceBase::CalculateDistanceSq3d
  0019e	d9 5d f0	 fstp	 DWORD PTR tv754[ebp]
  001a1	f3 0f 10 45 f0	 movss	 xmm0, DWORD PTR tv754[ebp]
  001a6	0f 2f 45 f4	 comiss	 xmm0, DWORD PTR tv758[ebp]
  001aa	77 5f		 ja	 SHORT $LN170@Partition_
; File C:\Program Files (x86)\Microsoft Visual Studio\2019\Community\VC\Tools\MSVC\14.28.29333\include\xutility

; 203  :             return _Fn(_STD forward<_Args>(_Vals)...);

  001ac	8b 4d fc	 mov	 ecx, DWORD PTR __Plast$1$[ebp]
  001af	8b 07		 mov	 eax, DWORD PTR [edi]
  001b1	89 45 f4	 mov	 DWORD PTR _pkInstLeft$1$[ebp], eax
  001b4	8b 19		 mov	 ebx, DWORD PTR [ecx]
  001b6	8b 4d 14	 mov	 ecx, DWORD PTR __Pred$[ebp]
  001b9	89 4d f0	 mov	 DWORD PTR _this$1$[ebp], ecx
; File D:\Metin2 Server Files\mainline\SRC_2014\Metin2Client\UserInterface\PythonCharacterManager.cpp

; 714  : 		int nLeftDeadPoint=pkInstLeft->IsDead();

  001bc	8b c8		 mov	 ecx, eax
  001be	e8 00 00 00 00	 call	 ?IsDead@CInstanceBase@@QAEHXZ ; CInstanceBase::IsDead

; 715  : 		int nRightDeadPoint=pkInstRight->IsDead();

  001c3	8b cb		 mov	 ecx, ebx
  001c5	8b f0		 mov	 esi, eax
  001c7	e8 00 00 00 00	 call	 ?IsDead@CInstanceBase@@QAEHXZ ; CInstanceBase::IsDead

; 717  : 		if (nLeftDeadPoint<nRightDeadPoint)

  001cc	3b f0		 cmp	 esi, eax
  001ce	7c 3b		 jl	 SHORT $LN170@Partition_

; 720  : 		if (pkInstLeft->CalculateDistanceSq3d(m_kPPosEye)<pkInstRight->CalculateDistanceSq3d(m_kPPosEye))

  001d0	8b 75 f0	 mov	 esi, DWORD PTR _this$1$[ebp]
  001d3	8b 4d f4	 mov	 ecx, DWORD PTR _pkInstLeft$1$[ebp]
  001d6	56		 push	 esi
  001d7	e8 00 00 00 00	 call	 ?CalculateDistanceSq3d@CInstanceBase@@QAEMABUD3DXVECTOR3@@@Z ; CInstanceBase::CalculateDistanceSq3d
  001dc	d9 5d f4	 fstp	 DWORD PTR tv748[ebp]
  001df	56		 push	 esi
  001e0	8b cb		 mov	 ecx, ebx
  001e2	e8 00 00 00 00	 call	 ?CalculateDistanceSq3d@CInstanceBase@@QAEMABUD3DXVECTOR3@@@Z ; CInstanceBase::CalculateDistanceSq3d
  001e7	8b 55 fc	 mov	 edx, DWORD PTR __Plast$1$[ebp]
  001ea	8b 45 10	 mov	 eax, DWORD PTR __Last$[ebp]
  001ed	d9 5d f0	 fstp	 DWORD PTR tv743[ebp]
  001f0	f3 0f 10 45 f0	 movss	 xmm0, DWORD PTR tv743[ebp]
  001f5	0f 2f 45 f4	 comiss	 xmm0, DWORD PTR tv748[ebp]
  001f9	77 16		 ja	 SHORT $LN164@Partition_
; File C:\Program Files (x86)\Microsoft Visual Studio\2019\Community\VC\Tools\MSVC\14.28.29333\include\algorithm

; 7480 :         ++_Plast;

  001fb	83 c2 04	 add	 edx, 4
  001fe	89 55 fc	 mov	 DWORD PTR __Plast$1$[ebp], edx
  00201	3b d0		 cmp	 edx, eax
  00203	0f 82 59 ff ff
	ff		 jb	 $LL4@Partition_
; File D:\Metin2 Server Files\mainline\SRC_2014\Metin2Client\UserInterface\PythonCharacterManager.cpp

; 717  : 		if (nLeftDeadPoint<nRightDeadPoint)

  00209	eb 06		 jmp	 SHORT $LN164@Partition_
$LN170@Partition_:
; File C:\Program Files (x86)\Microsoft Visual Studio\2019\Community\VC\Tools\MSVC\14.28.29333\include\algorithm

; 7483 :     _RanIt _Gfirst = _Plast;

  0020b	8b 55 fc	 mov	 edx, DWORD PTR __Plast$1$[ebp]
  0020e	8b 45 10	 mov	 eax, DWORD PTR __Last$[ebp]
$LN164@Partition_:
  00211	8b da		 mov	 ebx, edx

; 7484 :     _RanIt _Glast  = _Pfirst;

  00213	8b d7		 mov	 edx, edi
$LN176@Partition_:

; 7487 :         for (; _Gfirst < _Last; ++_Gfirst) {

  00215	89 55 f8	 mov	 DWORD PTR __Glast$1$[ebp], edx
$LN175@Partition_:
  00218	89 5d f4	 mov	 DWORD PTR __Gfirst$1$[ebp], ebx
  0021b	0f 1f 44 00 00	 npad	 5
$LL6@Partition_:
  00220	3b d8		 cmp	 ebx, eax
  00222	0f 83 c1 00 00
	00		 jae	 $LN156@Partition_
$LL11@Partition_:
; File C:\Program Files (x86)\Microsoft Visual Studio\2019\Community\VC\Tools\MSVC\14.28.29333\include\xutility

; 203  :             return _Fn(_STD forward<_Args>(_Vals)...);

  00228	8b 03		 mov	 eax, DWORD PTR [ebx]
  0022a	8b 4d 14	 mov	 ecx, DWORD PTR __Pred$[ebp]
  0022d	89 45 f4	 mov	 DWORD PTR _pkInstRight$1$[ebp], eax
  00230	8b 07		 mov	 eax, DWORD PTR [edi]
  00232	89 4d f0	 mov	 DWORD PTR _this$1$[ebp], ecx
; File D:\Metin2 Server Files\mainline\SRC_2014\Metin2Client\UserInterface\PythonCharacterManager.cpp

; 714  : 		int nLeftDeadPoint=pkInstLeft->IsDead();

  00235	8b c8		 mov	 ecx, eax
; File C:\Program Files (x86)\Microsoft Visual Studio\2019\Community\VC\Tools\MSVC\14.28.29333\include\xutility

; 203  :             return _Fn(_STD forward<_Args>(_Vals)...);

  00237	89 45 ec	 mov	 DWORD PTR _pkInstLeft$1$[ebp], eax
; File D:\Metin2 Server Files\mainline\SRC_2014\Metin2Client\UserInterface\PythonCharacterManager.cpp

; 714  : 		int nLeftDeadPoint=pkInstLeft->IsDead();

  0023a	e8 00 00 00 00	 call	 ?IsDead@CInstanceBase@@QAEHXZ ; CInstanceBase::IsDead

; 715  : 		int nRightDeadPoint=pkInstRight->IsDead();

  0023f	8b 4d f4	 mov	 ecx, DWORD PTR _pkInstRight$1$[ebp]
  00242	8b f0		 mov	 esi, eax
  00244	e8 00 00 00 00	 call	 ?IsDead@CInstanceBase@@QAEHXZ ; CInstanceBase::IsDead

; 717  : 		if (nLeftDeadPoint<nRightDeadPoint)

  00249	3b f0		 cmp	 esi, eax
  0024b	0f 8c 86 00 00
	00		 jl	 $LN9@Partition_

; 720  : 		if (pkInstLeft->CalculateDistanceSq3d(m_kPPosEye)<pkInstRight->CalculateDistanceSq3d(m_kPPosEye))

  00251	8b 75 f0	 mov	 esi, DWORD PTR _this$1$[ebp]
  00254	8b 4d ec	 mov	 ecx, DWORD PTR _pkInstLeft$1$[ebp]
  00257	56		 push	 esi
  00258	e8 00 00 00 00	 call	 ?CalculateDistanceSq3d@CInstanceBase@@QAEMABUD3DXVECTOR3@@@Z ; CInstanceBase::CalculateDistanceSq3d
  0025d	8b 4d f4	 mov	 ecx, DWORD PTR _pkInstRight$1$[ebp]
  00260	d9 5d f0	 fstp	 DWORD PTR tv736[ebp]
  00263	56		 push	 esi
  00264	e8 00 00 00 00	 call	 ?CalculateDistanceSq3d@CInstanceBase@@QAEMABUD3DXVECTOR3@@@Z ; CInstanceBase::CalculateDistanceSq3d
  00269	d9 5d ec	 fstp	 DWORD PTR tv732[ebp]
  0026c	f3 0f 10 45 ec	 movss	 xmm0, DWORD PTR tv732[ebp]
  00271	0f 2f 45 f0	 comiss	 xmm0, DWORD PTR tv736[ebp]
  00275	77 60		 ja	 SHORT $LN9@Partition_
; File C:\Program Files (x86)\Microsoft Visual Studio\2019\Community\VC\Tools\MSVC\14.28.29333\include\xutility

; 203  :             return _Fn(_STD forward<_Args>(_Vals)...);

  00277	8b 07		 mov	 eax, DWORD PTR [edi]
  00279	8b 4d 14	 mov	 ecx, DWORD PTR __Pred$[ebp]
  0027c	89 45 f4	 mov	 DWORD PTR _pkInstRight$1$[ebp], eax
  0027f	8b 03		 mov	 eax, DWORD PTR [ebx]
  00281	89 4d ec	 mov	 DWORD PTR _this$1$[ebp], ecx
; File D:\Metin2 Server Files\mainline\SRC_2014\Metin2Client\UserInterface\PythonCharacterManager.cpp

; 714  : 		int nLeftDeadPoint=pkInstLeft->IsDead();

  00284	8b c8		 mov	 ecx, eax
; File C:\Program Files (x86)\Microsoft Visual Studio\2019\Community\VC\Tools\MSVC\14.28.29333\include\xutility

; 203  :             return _Fn(_STD forward<_Args>(_Vals)...);

  00286	89 45 f0	 mov	 DWORD PTR _pkInstLeft$1$[ebp], eax
; File D:\Metin2 Server Files\mainline\SRC_2014\Metin2Client\UserInterface\PythonCharacterManager.cpp

; 714  : 		int nLeftDeadPoint=pkInstLeft->IsDead();

  00289	e8 00 00 00 00	 call	 ?IsDead@CInstanceBase@@QAEHXZ ; CInstanceBase::IsDead

; 715  : 		int nRightDeadPoint=pkInstRight->IsDead();

  0028e	8b 4d f4	 mov	 ecx, DWORD PTR _pkInstRight$1$[ebp]
  00291	8b f0		 mov	 esi, eax
  00293	e8 00 00 00 00	 call	 ?IsDead@CInstanceBase@@QAEHXZ ; CInstanceBase::IsDead

; 717  : 		if (nLeftDeadPoint<nRightDeadPoint)

  00298	3b f0		 cmp	 esi, eax
  0029a	7c 47		 jl	 SHORT $LN165@Partition_

; 720  : 		if (pkInstLeft->CalculateDistanceSq3d(m_kPPosEye)<pkInstRight->CalculateDistanceSq3d(m_kPPosEye))

  0029c	8b 75 ec	 mov	 esi, DWORD PTR _this$1$[ebp]
  0029f	8b 4d f0	 mov	 ecx, DWORD PTR _pkInstLeft$1$[ebp]
  002a2	56		 push	 esi
  002a3	e8 00 00 00 00	 call	 ?CalculateDistanceSq3d@CInstanceBase@@QAEMABUD3DXVECTOR3@@@Z ; CInstanceBase::CalculateDistanceSq3d
  002a8	8b 4d f4	 mov	 ecx, DWORD PTR _pkInstRight$1$[ebp]
  002ab	d9 5d f0	 fstp	 DWORD PTR tv725[ebp]
  002ae	56		 push	 esi
  002af	e8 00 00 00 00	 call	 ?CalculateDistanceSq3d@CInstanceBase@@QAEMABUD3DXVECTOR3@@@Z ; CInstanceBase::CalculateDistanceSq3d
  002b4	d9 5d ec	 fstp	 DWORD PTR tv721[ebp]
  002b7	f3 0f 10 45 ec	 movss	 xmm0, DWORD PTR tv721[ebp]
  002bc	0f 2f 45 f0	 comiss	 xmm0, DWORD PTR tv725[ebp]
  002c0	77 21		 ja	 SHORT $LN165@Partition_
; File C:\Program Files (x86)\Microsoft Visual Studio\2019\Community\VC\Tools\MSVC\14.28.29333\include\algorithm

; 7492 :             } else if (_Plast != _Gfirst) {

  002c2	8b 55 fc	 mov	 edx, DWORD PTR __Plast$1$[ebp]
  002c5	8d 72 04	 lea	 esi, DWORD PTR [edx+4]
  002c8	89 75 fc	 mov	 DWORD PTR __Plast$1$[ebp], esi
  002cb	3b d3		 cmp	 edx, ebx
  002cd	74 08		 je	 SHORT $LN9@Partition_
; File C:\Program Files (x86)\Microsoft Visual Studio\2019\Community\VC\Tools\MSVC\14.28.29333\include\utility

; 104  :     _Ty _Tmp = _STD move(_Left);

  002cf	8b 0a		 mov	 ecx, DWORD PTR [edx]

; 105  :     _Left    = _STD move(_Right);

  002d1	8b 03		 mov	 eax, DWORD PTR [ebx]
  002d3	89 02		 mov	 DWORD PTR [edx], eax

; 106  :     _Right   = _STD move(_Tmp);

  002d5	89 0b		 mov	 DWORD PTR [ebx], ecx
$LN9@Partition_:
; File C:\Program Files (x86)\Microsoft Visual Studio\2019\Community\VC\Tools\MSVC\14.28.29333\include\algorithm

; 7487 :         for (; _Gfirst < _Last; ++_Gfirst) {

  002d7	83 c3 04	 add	 ebx, 4
  002da	3b 5d 10	 cmp	 ebx, DWORD PTR __Last$[ebp]
  002dd	0f 82 45 ff ff
	ff		 jb	 $LL11@Partition_
$LN165@Partition_:
  002e3	8b 55 f8	 mov	 edx, DWORD PTR __Glast$1$[ebp]
  002e6	89 5d f4	 mov	 DWORD PTR __Gfirst$1$[ebp], ebx
$LN156@Partition_:

; 7500 :         for (; _First < _Glast; --_Glast) {

  002e9	8b 45 0c	 mov	 eax, DWORD PTR __First$[ebp]
  002ec	3b d0		 cmp	 edx, eax
  002ee	0f 86 d0 00 00
	00		 jbe	 $LN174@Partition_
  002f4	8d 5a fc	 lea	 ebx, DWORD PTR [edx-4]
$LL14@Partition_:
; File C:\Program Files (x86)\Microsoft Visual Studio\2019\Community\VC\Tools\MSVC\14.28.29333\include\xutility

; 203  :             return _Fn(_STD forward<_Args>(_Vals)...);

  002f7	8b 07		 mov	 eax, DWORD PTR [edi]
  002f9	8b 4d 14	 mov	 ecx, DWORD PTR __Pred$[ebp]
  002fc	89 45 f0	 mov	 DWORD PTR _pkInstRight$1$[ebp], eax
  002ff	8b 03		 mov	 eax, DWORD PTR [ebx]
  00301	89 4d ec	 mov	 DWORD PTR _this$1$[ebp], ecx
; File D:\Metin2 Server Files\mainline\SRC_2014\Metin2Client\UserInterface\PythonCharacterManager.cpp

; 714  : 		int nLeftDeadPoint=pkInstLeft->IsDead();

  00304	8b c8		 mov	 ecx, eax
; File C:\Program Files (x86)\Microsoft Visual Studio\2019\Community\VC\Tools\MSVC\14.28.29333\include\xutility

; 203  :             return _Fn(_STD forward<_Args>(_Vals)...);

  00306	89 45 e8	 mov	 DWORD PTR _pkInstLeft$1$[ebp], eax
; File D:\Metin2 Server Files\mainline\SRC_2014\Metin2Client\UserInterface\PythonCharacterManager.cpp

; 714  : 		int nLeftDeadPoint=pkInstLeft->IsDead();

  00309	e8 00 00 00 00	 call	 ?IsDead@CInstanceBase@@QAEHXZ ; CInstanceBase::IsDead

; 715  : 		int nRightDeadPoint=pkInstRight->IsDead();

  0030e	8b 4d f0	 mov	 ecx, DWORD PTR _pkInstRight$1$[ebp]
  00311	8b f0		 mov	 esi, eax
  00313	e8 00 00 00 00	 call	 ?IsDead@CInstanceBase@@QAEHXZ ; CInstanceBase::IsDead

; 717  : 		if (nLeftDeadPoint<nRightDeadPoint)

  00318	3b f0		 cmp	 esi, eax
  0031a	0f 8c 80 00 00
	00		 jl	 $LN12@Partition_

; 720  : 		if (pkInstLeft->CalculateDistanceSq3d(m_kPPosEye)<pkInstRight->CalculateDistanceSq3d(m_kPPosEye))

  00320	8b 75 ec	 mov	 esi, DWORD PTR _this$1$[ebp]
  00323	8b 4d e8	 mov	 ecx, DWORD PTR _pkInstLeft$1$[ebp]
  00326	56		 push	 esi
  00327	e8 00 00 00 00	 call	 ?CalculateDistanceSq3d@CInstanceBase@@QAEMABUD3DXVECTOR3@@@Z ; CInstanceBase::CalculateDistanceSq3d
  0032c	8b 4d f0	 mov	 ecx, DWORD PTR _pkInstRight$1$[ebp]
  0032f	d9 5d ec	 fstp	 DWORD PTR tv714[ebp]
  00332	56		 push	 esi
  00333	e8 00 00 00 00	 call	 ?CalculateDistanceSq3d@CInstanceBase@@QAEMABUD3DXVECTOR3@@@Z ; CInstanceBase::CalculateDistanceSq3d
  00338	d9 5d e8	 fstp	 DWORD PTR tv710[ebp]
  0033b	f3 0f 10 45 e8	 movss	 xmm0, DWORD PTR tv710[ebp]
  00340	0f 2f 45 ec	 comiss	 xmm0, DWORD PTR tv714[ebp]
  00344	77 5a		 ja	 SHORT $LN12@Partition_
; File C:\Program Files (x86)\Microsoft Visual Studio\2019\Community\VC\Tools\MSVC\14.28.29333\include\xutility

; 203  :             return _Fn(_STD forward<_Args>(_Vals)...);

  00346	8b 03		 mov	 eax, DWORD PTR [ebx]
  00348	8b 4d 14	 mov	 ecx, DWORD PTR __Pred$[ebp]
  0034b	89 45 f0	 mov	 DWORD PTR _pkInstRight$1$[ebp], eax
  0034e	8b 07		 mov	 eax, DWORD PTR [edi]
  00350	89 4d e8	 mov	 DWORD PTR _this$1$[ebp], ecx
; File D:\Metin2 Server Files\mainline\SRC_2014\Metin2Client\UserInterface\PythonCharacterManager.cpp

; 714  : 		int nLeftDeadPoint=pkInstLeft->IsDead();

  00353	8b c8		 mov	 ecx, eax
; File C:\Program Files (x86)\Microsoft Visual Studio\2019\Community\VC\Tools\MSVC\14.28.29333\include\xutility

; 203  :             return _Fn(_STD forward<_Args>(_Vals)...);

  00355	89 45 ec	 mov	 DWORD PTR _pkInstLeft$1$[ebp], eax
; File D:\Metin2 Server Files\mainline\SRC_2014\Metin2Client\UserInterface\PythonCharacterManager.cpp

; 714  : 		int nLeftDeadPoint=pkInstLeft->IsDead();

  00358	e8 00 00 00 00	 call	 ?IsDead@CInstanceBase@@QAEHXZ ; CInstanceBase::IsDead

; 715  : 		int nRightDeadPoint=pkInstRight->IsDead();

  0035d	8b 4d f0	 mov	 ecx, DWORD PTR _pkInstRight$1$[ebp]
  00360	8b f0		 mov	 esi, eax
  00362	e8 00 00 00 00	 call	 ?IsDead@CInstanceBase@@QAEHXZ ; CInstanceBase::IsDead

; 717  : 		if (nLeftDeadPoint<nRightDeadPoint)

  00367	3b f0		 cmp	 esi, eax
  00369	7c 4e		 jl	 SHORT $LN172@Partition_

; 720  : 		if (pkInstLeft->CalculateDistanceSq3d(m_kPPosEye)<pkInstRight->CalculateDistanceSq3d(m_kPPosEye))

  0036b	8b 75 e8	 mov	 esi, DWORD PTR _this$1$[ebp]
  0036e	8b 4d ec	 mov	 ecx, DWORD PTR _pkInstLeft$1$[ebp]
  00371	56		 push	 esi
  00372	e8 00 00 00 00	 call	 ?CalculateDistanceSq3d@CInstanceBase@@QAEMABUD3DXVECTOR3@@@Z ; CInstanceBase::CalculateDistanceSq3d
  00377	8b 4d f0	 mov	 ecx, DWORD PTR _pkInstRight$1$[ebp]
  0037a	d9 5d ec	 fstp	 DWORD PTR tv704[ebp]
  0037d	56		 push	 esi
  0037e	e8 00 00 00 00	 call	 ?CalculateDistanceSq3d@CInstanceBase@@QAEMABUD3DXVECTOR3@@@Z ; CInstanceBase::CalculateDistanceSq3d
  00383	d9 5d e8	 fstp	 DWORD PTR tv700[ebp]
  00386	f3 0f 10 45 e8	 movss	 xmm0, DWORD PTR tv700[ebp]
  0038b	0f 2f 45 ec	 comiss	 xmm0, DWORD PTR tv704[ebp]
  0038f	77 28		 ja	 SHORT $LN172@Partition_
; File C:\Program Files (x86)\Microsoft Visual Studio\2019\Community\VC\Tools\MSVC\14.28.29333\include\algorithm

; 7505 :             } else if (--_Pfirst != _Prev_iter(_Glast)) {

  00391	83 ef 04	 sub	 edi, 4
  00394	3b fb		 cmp	 edi, ebx
  00396	74 08		 je	 SHORT $LN12@Partition_
; File C:\Program Files (x86)\Microsoft Visual Studio\2019\Community\VC\Tools\MSVC\14.28.29333\include\utility

; 104  :     _Ty _Tmp = _STD move(_Left);

  00398	8b 0f		 mov	 ecx, DWORD PTR [edi]

; 105  :     _Left    = _STD move(_Right);

  0039a	8b 03		 mov	 eax, DWORD PTR [ebx]
  0039c	89 07		 mov	 DWORD PTR [edi], eax

; 106  :     _Right   = _STD move(_Tmp);

  0039e	89 0b		 mov	 DWORD PTR [ebx], ecx
$LN12@Partition_:
; File C:\Program Files (x86)\Microsoft Visual Studio\2019\Community\VC\Tools\MSVC\14.28.29333\include\algorithm

; 7500 :         for (; _First < _Glast; --_Glast) {

  003a0	8b 55 f8	 mov	 edx, DWORD PTR __Glast$1$[ebp]
  003a3	83 eb 04	 sub	 ebx, 4
  003a6	8b 45 0c	 mov	 eax, DWORD PTR __First$[ebp]
  003a9	83 ea 04	 sub	 edx, 4
  003ac	89 55 f8	 mov	 DWORD PTR __Glast$1$[ebp], edx
  003af	3b c2		 cmp	 eax, edx
  003b1	0f 82 40 ff ff
	ff		 jb	 $LL14@Partition_
; File D:\Metin2 Server Files\mainline\SRC_2014\Metin2Client\UserInterface\PythonCharacterManager.cpp

; 720  : 		if (pkInstLeft->CalculateDistanceSq3d(m_kPPosEye)<pkInstRight->CalculateDistanceSq3d(m_kPPosEye))

  003b7	eb 06		 jmp	 SHORT $LN166@Partition_
$LN172@Partition_:
; File C:\Program Files (x86)\Microsoft Visual Studio\2019\Community\VC\Tools\MSVC\14.28.29333\include\algorithm

; 7510 :         if (_Glast == _First && _Gfirst == _Last) {

  003b9	8b 45 0c	 mov	 eax, DWORD PTR __First$[ebp]
  003bc	8b 55 f8	 mov	 edx, DWORD PTR __Glast$1$[ebp]
$LN166@Partition_:
  003bf	8b 5d f4	 mov	 ebx, DWORD PTR __Gfirst$1$[ebp]
  003c2	3b d0		 cmp	 edx, eax
$LN174@Partition_:
  003c4	75 33		 jne	 SHORT $LN27@Partition_
  003c6	3b 5d 10	 cmp	 ebx, DWORD PTR __Last$[ebp]
  003c9	74 79		 je	 SHORT $LN124@Partition_

; 7512 :         }
; 7513 : 
; 7514 :         if (_Glast == _First) { // no room at bottom, rotate pivot upward
; 7515 :             if (_Plast != _Gfirst) {

  003cb	8b 55 fc	 mov	 edx, DWORD PTR __Plast$1$[ebp]
  003ce	3b d3		 cmp	 edx, ebx
  003d0	74 08		 je	 SHORT $LN99@Partition_
; File C:\Program Files (x86)\Microsoft Visual Studio\2019\Community\VC\Tools\MSVC\14.28.29333\include\utility

; 104  :     _Ty _Tmp = _STD move(_Left);

  003d2	8b 0f		 mov	 ecx, DWORD PTR [edi]

; 105  :     _Left    = _STD move(_Right);

  003d4	8b 02		 mov	 eax, DWORD PTR [edx]
  003d6	89 07		 mov	 DWORD PTR [edi], eax

; 106  :     _Right   = _STD move(_Tmp);

  003d8	89 0a		 mov	 DWORD PTR [edx], ecx
$LN99@Partition_:

; 105  :     _Left    = _STD move(_Right);

  003da	8b 03		 mov	 eax, DWORD PTR [ebx]
; File C:\Program Files (x86)\Microsoft Visual Studio\2019\Community\VC\Tools\MSVC\14.28.29333\include\algorithm

; 7519 :             ++_Plast;

  003dc	83 c2 04	 add	 edx, 4
; File C:\Program Files (x86)\Microsoft Visual Studio\2019\Community\VC\Tools\MSVC\14.28.29333\include\utility

; 104  :     _Ty _Tmp = _STD move(_Left);

  003df	8b 0f		 mov	 ecx, DWORD PTR [edi]

; 105  :     _Left    = _STD move(_Right);

  003e1	89 07		 mov	 DWORD PTR [edi], eax
; File C:\Program Files (x86)\Microsoft Visual Studio\2019\Community\VC\Tools\MSVC\14.28.29333\include\algorithm

; 7521 :             ++_Pfirst;

  003e3	83 c7 04	 add	 edi, 4

; 7522 :             ++_Gfirst;

  003e6	8b 45 10	 mov	 eax, DWORD PTR __Last$[ebp]
  003e9	89 55 fc	 mov	 DWORD PTR __Plast$1$[ebp], edx
  003ec	8b 55 f8	 mov	 edx, DWORD PTR __Glast$1$[ebp]
; File C:\Program Files (x86)\Microsoft Visual Studio\2019\Community\VC\Tools\MSVC\14.28.29333\include\utility

; 106  :     _Right   = _STD move(_Tmp);

  003ef	89 0b		 mov	 DWORD PTR [ebx], ecx
; File C:\Program Files (x86)\Microsoft Visual Studio\2019\Community\VC\Tools\MSVC\14.28.29333\include\algorithm

; 7522 :             ++_Gfirst;

  003f1	83 c3 04	 add	 ebx, 4
  003f4	e9 1f fe ff ff	 jmp	 $LN175@Partition_
$LN27@Partition_:

; 7523 :         } else if (_Gfirst == _Last) { // no room at top, rotate pivot downward

  003f9	83 c2 fc	 add	 edx, -4			; fffffffcH
  003fc	89 55 f8	 mov	 DWORD PTR __Glast$1$[ebp], edx
  003ff	3b 5d 10	 cmp	 ebx, DWORD PTR __Last$[ebp]
  00402	75 2d		 jne	 SHORT $LN30@Partition_

; 7524 :             if (--_Glast != --_Pfirst) {

  00404	83 ef 04	 sub	 edi, 4
  00407	3b d7		 cmp	 edx, edi
  00409	74 0a		 je	 SHORT $LN134@Partition_
; File C:\Program Files (x86)\Microsoft Visual Studio\2019\Community\VC\Tools\MSVC\14.28.29333\include\utility

; 104  :     _Ty _Tmp = _STD move(_Left);

  0040b	8b 0a		 mov	 ecx, DWORD PTR [edx]

; 105  :     _Left    = _STD move(_Right);

  0040d	8b 07		 mov	 eax, DWORD PTR [edi]
  0040f	89 02		 mov	 DWORD PTR [edx], eax

; 106  :     _Right   = _STD move(_Tmp);

  00411	89 0f		 mov	 DWORD PTR [edi], ecx
  00413	eb 02		 jmp	 SHORT $LN107@Partition_
$LN134@Partition_:
  00415	8b 0f		 mov	 ecx, DWORD PTR [edi]
$LN107@Partition_:
; File C:\Program Files (x86)\Microsoft Visual Studio\2019\Community\VC\Tools\MSVC\14.28.29333\include\algorithm

; 7528 :             _STD iter_swap(_Pfirst, --_Plast);

  00417	8b 55 fc	 mov	 edx, DWORD PTR __Plast$1$[ebp]
  0041a	83 ea 04	 sub	 edx, 4
  0041d	89 55 fc	 mov	 DWORD PTR __Plast$1$[ebp], edx
; File C:\Program Files (x86)\Microsoft Visual Studio\2019\Community\VC\Tools\MSVC\14.28.29333\include\utility

; 105  :     _Left    = _STD move(_Right);

  00420	8b 02		 mov	 eax, DWORD PTR [edx]
  00422	89 07		 mov	 DWORD PTR [edi], eax
; File C:\Program Files (x86)\Microsoft Visual Studio\2019\Community\VC\Tools\MSVC\14.28.29333\include\algorithm

; 7529 :         } else {

  00424	8b 45 10	 mov	 eax, DWORD PTR __Last$[ebp]
; File C:\Program Files (x86)\Microsoft Visual Studio\2019\Community\VC\Tools\MSVC\14.28.29333\include\utility

; 106  :     _Right   = _STD move(_Tmp);

  00427	89 0a		 mov	 DWORD PTR [edx], ecx
; File C:\Program Files (x86)\Microsoft Visual Studio\2019\Community\VC\Tools\MSVC\14.28.29333\include\algorithm

; 7529 :         } else {

  00429	8b 55 f8	 mov	 edx, DWORD PTR __Glast$1$[ebp]
  0042c	e9 ef fd ff ff	 jmp	 $LL6@Partition_
$LN30@Partition_:
; File C:\Program Files (x86)\Microsoft Visual Studio\2019\Community\VC\Tools\MSVC\14.28.29333\include\utility

; 104  :     _Ty _Tmp = _STD move(_Left);

  00431	8b 0b		 mov	 ecx, DWORD PTR [ebx]

; 105  :     _Left    = _STD move(_Right);

  00433	8b 02		 mov	 eax, DWORD PTR [edx]
  00435	89 03		 mov	 DWORD PTR [ebx], eax
; File C:\Program Files (x86)\Microsoft Visual Studio\2019\Community\VC\Tools\MSVC\14.28.29333\include\algorithm

; 7531 :             ++_Gfirst;

  00437	83 c3 04	 add	 ebx, 4

; 7533 :     }

  0043a	8b 45 10	 mov	 eax, DWORD PTR __Last$[ebp]
; File C:\Program Files (x86)\Microsoft Visual Studio\2019\Community\VC\Tools\MSVC\14.28.29333\include\utility

; 106  :     _Right   = _STD move(_Tmp);

  0043d	89 0a		 mov	 DWORD PTR [edx], ecx
; File C:\Program Files (x86)\Microsoft Visual Studio\2019\Community\VC\Tools\MSVC\14.28.29333\include\algorithm

; 7533 :     }

  0043f	e9 d1 fd ff ff	 jmp	 $LN176@Partition_
$LN124@Partition_:
; File C:\Program Files (x86)\Microsoft Visual Studio\2019\Community\VC\Tools\MSVC\14.28.29333\include\utility

; 190  :         : first(_STD forward<_Other1>(_Val1)), second(_STD forward<_Other2>(_Val2)) {}

  00444	8b 45 08	 mov	 eax, DWORD PTR ___$ReturnUdt$[ebp]
  00447	8b 4d fc	 mov	 ecx, DWORD PTR __Plast$1$[ebp]
  0044a	89 38		 mov	 DWORD PTR [eax], edi
; File C:\Program Files (x86)\Microsoft Visual Studio\2019\Community\VC\Tools\MSVC\14.28.29333\include\algorithm

; 7511 :             return pair<_RanIt, _RanIt>(_Pfirst, _Plast);

  0044c	5f		 pop	 edi
  0044d	5e		 pop	 esi
; File C:\Program Files (x86)\Microsoft Visual Studio\2019\Community\VC\Tools\MSVC\14.28.29333\include\utility

; 190  :         : first(_STD forward<_Other1>(_Val1)), second(_STD forward<_Other2>(_Val2)) {}

  0044e	89 48 04	 mov	 DWORD PTR [eax+4], ecx
; File C:\Program Files (x86)\Microsoft Visual Studio\2019\Community\VC\Tools\MSVC\14.28.29333\include\algorithm

; 7511 :             return pair<_RanIt, _RanIt>(_Pfirst, _Plast);

  00451	5b		 pop	 ebx

; 7534 : }

  00452	8b e5		 mov	 esp, ebp
  00454	5d		 pop	 ebp
  00455	c3		 ret	 0
??$_Partition_by_median_guess_unchecked@PAPAVCInstanceBase@@U?$_Ref_fn@UCInstanceBase_SLessCameraDistance@@@std@@@std@@YA?AU?$pair@PAPAVCInstanceBase@@PAPAV1@@0@PAPAVCInstanceBase@@0U?$_Ref_fn@UCInstanceBase_SLessCameraDistance@@@0@@Z ENDP ; std::_Partition_by_median_guess_unchecked<CInstanceBase * *,std::_Ref_fn<CInstanceBase_SLessCameraDistance> >
_TEXT	ENDS
; Function compile flags: /Ogtp
; File C:\Program Files (x86)\Microsoft Visual Studio\2019\Community\VC\Tools\MSVC\14.28.29333\include\xmemory
;	COMDAT ??1?$_Alloc_construct_ptr@V?$allocator@U?$_Tree_node@U?$pair@$$CBKPAVCInstanceBase@@@std@@PAX@std@@@std@@@std@@QAE@XZ
_TEXT	SEGMENT
??1?$_Alloc_construct_ptr@V?$allocator@U?$_Tree_node@U?$pair@$$CBKPAVCInstanceBase@@@std@@PAX@std@@@std@@@std@@QAE@XZ PROC ; std::_Alloc_construct_ptr<std::allocator<std::_Tree_node<std::pair<unsigned long const ,CInstanceBase *>,void *> > >::~_Alloc_construct_ptr<std::allocator<std::_Tree_node<std::pair<unsigned long const ,CInstanceBase *>,void *> > >, COMDAT
; _this$ = ecx

; 1057 :         if (_Ptr) {

  00000	8b 41 04	 mov	 eax, DWORD PTR [ecx+4]
  00003	85 c0		 test	 eax, eax
  00005	74 0b		 je	 SHORT $LN2@Alloc_cons

; 810  :         _Deallocate<_New_alignof<_Ty>>(_Ptr, sizeof(_Ty) * _Count);

  00007	6a 18		 push	 24			; 00000018H
  00009	50		 push	 eax
  0000a	e8 00 00 00 00	 call	 ??$_Deallocate@$07$0A@@std@@YAXPAXI@Z ; std::_Deallocate<8,0>
  0000f	83 c4 08	 add	 esp, 8
$LN2@Alloc_cons:

; 1058 :             _Al.deallocate(_Ptr, 1);
; 1059 :         }
; 1060 :     }

  00012	c3		 ret	 0
??1?$_Alloc_construct_ptr@V?$allocator@U?$_Tree_node@U?$pair@$$CBKPAVCInstanceBase@@@std@@PAX@std@@@std@@@std@@QAE@XZ ENDP ; std::_Alloc_construct_ptr<std::allocator<std::_Tree_node<std::pair<unsigned long const ,CInstanceBase *>,void *> > >::~_Alloc_construct_ptr<std::allocator<std::_Tree_node<std::pair<unsigned long const ,CInstanceBase *>,void *> > >
_TEXT	ENDS
; Function compile flags: /Ogtp
; File C:\Program Files (x86)\Microsoft Visual Studio\2019\Community\VC\Tools\MSVC\14.28.29333\include\algorithm
; File D:\Metin2 Server Files\mainline\SRC_2014\Metin2Client\UserInterface\PythonCharacterManager.cpp
; File C:\Program Files (x86)\Microsoft Visual Studio\2019\Community\VC\Tools\MSVC\14.28.29333\include\algorithm
; File D:\Metin2 Server Files\mainline\SRC_2014\Metin2Client\UserInterface\PythonCharacterManager.cpp
; File C:\Program Files (x86)\Microsoft Visual Studio\2019\Community\VC\Tools\MSVC\14.28.29333\include\algorithm
; File D:\Metin2 Server Files\mainline\SRC_2014\Metin2Client\UserInterface\PythonCharacterManager.cpp
; File C:\Program Files (x86)\Microsoft Visual Studio\2019\Community\VC\Tools\MSVC\14.28.29333\include\algorithm
; File D:\Metin2 Server Files\mainline\SRC_2014\Metin2Client\UserInterface\PythonCharacterManager.cpp
; File C:\Program Files (x86)\Microsoft Visual Studio\2019\Community\VC\Tools\MSVC\14.28.29333\include\algorithm
; File D:\Metin2 Server Files\mainline\SRC_2014\Metin2Client\UserInterface\PythonCharacterManager.cpp
; File C:\Program Files (x86)\Microsoft Visual Studio\2019\Community\VC\Tools\MSVC\14.28.29333\include\algorithm
; File D:\Metin2 Server Files\mainline\SRC_2014\Metin2Client\UserInterface\PythonCharacterManager.cpp
; File C:\Program Files (x86)\Microsoft Visual Studio\2019\Community\VC\Tools\MSVC\14.28.29333\include\algorithm
; File C:\Program Files (x86)\Microsoft Visual Studio\2019\Community\VC\Tools\MSVC\14.28.29333\include\utility
; File C:\Program Files (x86)\Microsoft Visual Studio\2019\Community\VC\Tools\MSVC\14.28.29333\include\algorithm
; File D:\Metin2 Server Files\mainline\SRC_2014\Metin2Client\UserInterface\PythonCharacterManager.cpp
; File C:\Program Files (x86)\Microsoft Visual Studio\2019\Community\VC\Tools\MSVC\14.28.29333\include\algorithm
; File D:\Metin2 Server Files\mainline\SRC_2014\Metin2Client\UserInterface\PythonCharacterManager.cpp
; File C:\Program Files (x86)\Microsoft Visual Studio\2019\Community\VC\Tools\MSVC\14.28.29333\include\algorithm
; File C:\Program Files (x86)\Microsoft Visual Studio\2019\Community\VC\Tools\MSVC\14.28.29333\include\utility
; File C:\Program Files (x86)\Microsoft Visual Studio\2019\Community\VC\Tools\MSVC\14.28.29333\include\algorithm
; File C:\Program Files (x86)\Microsoft Visual Studio\2019\Community\VC\Tools\MSVC\14.28.29333\include\utility
; File C:\Program Files (x86)\Microsoft Visual Studio\2019\Community\VC\Tools\MSVC\14.28.29333\include\algorithm
; File C:\Program Files (x86)\Microsoft Visual Studio\2019\Community\VC\Tools\MSVC\14.28.29333\include\utility
; File C:\Program Files (x86)\Microsoft Visual Studio\2019\Community\VC\Tools\MSVC\14.28.29333\include\algorithm
; File C:\Program Files (x86)\Microsoft Visual Studio\2019\Community\VC\Tools\MSVC\14.28.29333\include\utility
; File C:\Program Files (x86)\Microsoft Visual Studio\2019\Community\VC\Tools\MSVC\14.28.29333\include\algorithm
; File C:\Program Files (x86)\Microsoft Visual Studio\2019\Community\VC\Tools\MSVC\14.28.29333\include\utility
; File C:\Program Files (x86)\Microsoft Visual Studio\2019\Community\VC\Tools\MSVC\14.28.29333\include\algorithm
; File C:\Program Files (x86)\Microsoft Visual Studio\2019\Community\VC\Tools\MSVC\14.28.29333\include\utility
; File C:\Program Files (x86)\Microsoft Visual Studio\2019\Community\VC\Tools\MSVC\14.28.29333\include\algorithm
; File C:\Program Files (x86)\Microsoft Visual Studio\2019\Community\VC\Tools\MSVC\14.28.29333\include\utility
; File C:\Program Files (x86)\Microsoft Visual Studio\2019\Community\VC\Tools\MSVC\14.28.29333\include\algorithm
; File C:\Program Files (x86)\Microsoft Visual Studio\2019\Community\VC\Tools\MSVC\14.28.29333\include\utility
; File C:\Program Files (x86)\Microsoft Visual Studio\2019\Community\VC\Tools\MSVC\14.28.29333\include\algorithm
; File C:\Program Files (x86)\Microsoft Visual Studio\2019\Community\VC\Tools\MSVC\14.28.29333\include\utility
; File C:\Program Files (x86)\Microsoft Visual Studio\2019\Community\VC\Tools\MSVC\14.28.29333\include\algorithm
; File C:\Program Files (x86)\Microsoft Visual Studio\2019\Community\VC\Tools\MSVC\14.28.29333\include\utility
; File C:\Program Files (x86)\Microsoft Visual Studio\2019\Community\VC\Tools\MSVC\14.28.29333\include\algorithm
; File C:\Program Files (x86)\Microsoft Visual Studio\2019\Community\VC\Tools\MSVC\14.28.29333\include\utility
; File C:\Program Files (x86)\Microsoft Visual Studio\2019\Community\VC\Tools\MSVC\14.28.29333\include\algorithm
; File C:\Program Files (x86)\Microsoft Visual Studio\2019\Community\VC\Tools\MSVC\14.28.29333\include\utility
; File C:\Program Files (x86)\Microsoft Visual Studio\2019\Community\VC\Tools\MSVC\14.28.29333\include\algorithm
; File C:\Program Files (x86)\Microsoft Visual Studio\2019\Community\VC\Tools\MSVC\14.28.29333\include\utility
; File C:\Program Files (x86)\Microsoft Visual Studio\2019\Community\VC\Tools\MSVC\14.28.29333\include\algorithm
; File C:\Program Files (x86)\Microsoft Visual Studio\2019\Community\VC\Tools\MSVC\14.28.29333\include\utility
; File C:\Program Files (x86)\Microsoft Visual Studio\2019\Community\VC\Tools\MSVC\14.28.29333\include\algorithm
;	COMDAT ??$_Partition_by_median_guess_unchecked@PAPAVCInstanceBase@@ULessCharacterInstancePtrRenderOrder@@@std@@YA?AU?$pair@PAPAVCInstanceBase@@PAPAV1@@0@PAPAVCInstanceBase@@0ULessCharacterInstancePtrRenderOrder@@@Z
_TEXT	SEGMENT
__Gfirst$1$ = -12					; size = 4
__Glast$1$ = -8						; size = 4
__Plast$1$ = -4						; size = 4
___$ReturnUdt$ = 8					; size = 4
__First$ = 12						; size = 4
__Last$ = 16						; size = 4
__Pred$ = 20						; size = 1
??$_Partition_by_median_guess_unchecked@PAPAVCInstanceBase@@ULessCharacterInstancePtrRenderOrder@@@std@@YA?AU?$pair@PAPAVCInstanceBase@@PAPAV1@@0@PAPAVCInstanceBase@@0ULessCharacterInstancePtrRenderOrder@@@Z PROC ; std::_Partition_by_median_guess_unchecked<CInstanceBase * *,LessCharacterInstancePtrRenderOrder>, COMDAT

; 7467 : _CONSTEXPR20 pair<_RanIt, _RanIt> _Partition_by_median_guess_unchecked(_RanIt _First, _RanIt _Last, _Pr _Pred) {

  00000	55		 push	 ebp
  00001	8b ec		 mov	 ebp, esp
  00003	83 ec 0c	 sub	 esp, 12			; 0000000cH

; 7468 :     // partition [_First, _Last)
; 7469 :     _RanIt _Mid = _First + ((_Last - _First) >> 1); // shift for codegen

  00006	8b 4d 0c	 mov	 ecx, DWORD PTR __First$[ebp]
  00009	53		 push	 ebx
  0000a	56		 push	 esi
  0000b	57		 push	 edi
  0000c	8b 7d 10	 mov	 edi, DWORD PTR __Last$[ebp]
  0000f	8b c7		 mov	 eax, edi

; 7470 :     _Guess_median_unchecked(_First, _Mid, _Prev_iter(_Last), _Pred);

  00011	ff 75 14	 push	 DWORD PTR __Pred$[ebp]
  00014	2b c1		 sub	 eax, ecx
  00016	c1 f8 03	 sar	 eax, 3
  00019	8d 34 81	 lea	 esi, DWORD PTR [ecx+eax*4]
  0001c	8d 47 fc	 lea	 eax, DWORD PTR [edi-4]
  0001f	50		 push	 eax
  00020	56		 push	 esi
  00021	51		 push	 ecx
  00022	e8 00 00 00 00	 call	 ??$_Guess_median_unchecked@PAPAVCInstanceBase@@ULessCharacterInstancePtrRenderOrder@@@std@@YAXPAPAVCInstanceBase@@00ULessCharacterInstancePtrRenderOrder@@@Z ; std::_Guess_median_unchecked<CInstanceBase * *,LessCharacterInstancePtrRenderOrder>
  00027	83 c4 10	 add	 esp, 16			; 00000010H

; 7471 :     _RanIt _Pfirst = _Mid;
; 7472 :     _RanIt _Plast  = _Next_iter(_Pfirst);

  0002a	8d 5e 04	 lea	 ebx, DWORD PTR [esi+4]
  0002d	89 5d fc	 mov	 DWORD PTR __Plast$1$[ebp], ebx

; 7475 :            && !_Pred(*_Pfirst, *_Prev_iter(_Pfirst))) {

  00030	39 75 0c	 cmp	 DWORD PTR __First$[ebp], esi
  00033	73 31		 jae	 SHORT $LN82@Partition_
  00035	8b 5d 0c	 mov	 ebx, DWORD PTR __First$[ebp]
  00038	0f 1f 84 00 00
	00 00 00	 npad	 8
$LL2@Partition_:
; File D:\Metin2 Server Files\mainline\SRC_2014\Metin2Client\UserInterface\PythonCharacterManager.cpp

; 427  : 		return pkLeft->LessRenderOrder(pkRight);		

  00040	ff 36		 push	 DWORD PTR [esi]
  00042	8b 4e fc	 mov	 ecx, DWORD PTR [esi-4]
  00045	e8 00 00 00 00	 call	 ?LessRenderOrder@CInstanceBase@@QAE_NPAV1@@Z ; CInstanceBase::LessRenderOrder
; File C:\Program Files (x86)\Microsoft Visual Studio\2019\Community\VC\Tools\MSVC\14.28.29333\include\algorithm

; 7475 :            && !_Pred(*_Pfirst, *_Prev_iter(_Pfirst))) {

  0004a	84 c0		 test	 al, al
  0004c	75 15		 jne	 SHORT $LN107@Partition_
; File D:\Metin2 Server Files\mainline\SRC_2014\Metin2Client\UserInterface\PythonCharacterManager.cpp

; 427  : 		return pkLeft->LessRenderOrder(pkRight);		

  0004e	ff 76 fc	 push	 DWORD PTR [esi-4]
  00051	8b 0e		 mov	 ecx, DWORD PTR [esi]
  00053	e8 00 00 00 00	 call	 ?LessRenderOrder@CInstanceBase@@QAE_NPAV1@@Z ; CInstanceBase::LessRenderOrder
; File C:\Program Files (x86)\Microsoft Visual Studio\2019\Community\VC\Tools\MSVC\14.28.29333\include\algorithm

; 7475 :            && !_Pred(*_Pfirst, *_Prev_iter(_Pfirst))) {

  00058	84 c0		 test	 al, al
  0005a	75 07		 jne	 SHORT $LN107@Partition_

; 7476 :         --_Pfirst;

  0005c	83 c6 fc	 add	 esi, -4			; fffffffcH
  0005f	3b de		 cmp	 ebx, esi
  00061	72 dd		 jb	 SHORT $LL2@Partition_
$LN107@Partition_:
  00063	8b 5d fc	 mov	 ebx, DWORD PTR __Plast$1$[ebp]
$LN82@Partition_:

; 7479 :     while (_Plast < _Last && !_DEBUG_LT_PRED(_Pred, *_Plast, *_Pfirst) && !_Pred(*_Pfirst, *_Plast)) {

  00066	3b df		 cmp	 ebx, edi
  00068	73 2a		 jae	 SHORT $LN5@Partition_
  0006a	66 0f 1f 44 00
	00		 npad	 6
$LL4@Partition_:
; File D:\Metin2 Server Files\mainline\SRC_2014\Metin2Client\UserInterface\PythonCharacterManager.cpp

; 427  : 		return pkLeft->LessRenderOrder(pkRight);		

  00070	ff 36		 push	 DWORD PTR [esi]
  00072	8b 0b		 mov	 ecx, DWORD PTR [ebx]
  00074	e8 00 00 00 00	 call	 ?LessRenderOrder@CInstanceBase@@QAE_NPAV1@@Z ; CInstanceBase::LessRenderOrder
; File C:\Program Files (x86)\Microsoft Visual Studio\2019\Community\VC\Tools\MSVC\14.28.29333\include\algorithm

; 7479 :     while (_Plast < _Last && !_DEBUG_LT_PRED(_Pred, *_Plast, *_Pfirst) && !_Pred(*_Pfirst, *_Plast)) {

  00079	84 c0		 test	 al, al
  0007b	75 14		 jne	 SHORT $LN108@Partition_
; File D:\Metin2 Server Files\mainline\SRC_2014\Metin2Client\UserInterface\PythonCharacterManager.cpp

; 427  : 		return pkLeft->LessRenderOrder(pkRight);		

  0007d	ff 33		 push	 DWORD PTR [ebx]
  0007f	8b 0e		 mov	 ecx, DWORD PTR [esi]
  00081	e8 00 00 00 00	 call	 ?LessRenderOrder@CInstanceBase@@QAE_NPAV1@@Z ; CInstanceBase::LessRenderOrder
; File C:\Program Files (x86)\Microsoft Visual Studio\2019\Community\VC\Tools\MSVC\14.28.29333\include\algorithm

; 7479 :     while (_Plast < _Last && !_DEBUG_LT_PRED(_Pred, *_Plast, *_Pfirst) && !_Pred(*_Pfirst, *_Plast)) {

  00086	84 c0		 test	 al, al
  00088	75 07		 jne	 SHORT $LN108@Partition_

; 7480 :         ++_Plast;

  0008a	83 c3 04	 add	 ebx, 4
  0008d	3b df		 cmp	 ebx, edi
  0008f	72 df		 jb	 SHORT $LL4@Partition_
$LN108@Partition_:
  00091	89 5d fc	 mov	 DWORD PTR __Plast$1$[ebp], ebx
$LN5@Partition_:

; 7481 :     }
; 7482 : 
; 7483 :     _RanIt _Gfirst = _Plast;

  00094	8b fb		 mov	 edi, ebx

; 7484 :     _RanIt _Glast  = _Pfirst;

  00096	8b d6		 mov	 edx, esi
$LN114@Partition_:

; 7487 :         for (; _Gfirst < _Last; ++_Gfirst) {

  00098	89 55 f8	 mov	 DWORD PTR __Glast$1$[ebp], edx
$LN113@Partition_:
  0009b	89 7d f4	 mov	 DWORD PTR __Gfirst$1$[ebp], edi
  0009e	66 90		 npad	 2
$LL6@Partition_:
  000a0	3b 7d 10	 cmp	 edi, DWORD PTR __Last$[ebp]
  000a3	73 3a		 jae	 SHORT $LN86@Partition_
$LL11@Partition_:
; File D:\Metin2 Server Files\mainline\SRC_2014\Metin2Client\UserInterface\PythonCharacterManager.cpp

; 427  : 		return pkLeft->LessRenderOrder(pkRight);		

  000a5	ff 37		 push	 DWORD PTR [edi]
  000a7	8b 0e		 mov	 ecx, DWORD PTR [esi]
  000a9	e8 00 00 00 00	 call	 ?LessRenderOrder@CInstanceBase@@QAE_NPAV1@@Z ; CInstanceBase::LessRenderOrder
; File C:\Program Files (x86)\Microsoft Visual Studio\2019\Community\VC\Tools\MSVC\14.28.29333\include\algorithm

; 7488 :             if (_DEBUG_LT_PRED(_Pred, *_Pfirst, *_Gfirst)) {

  000ae	84 c0		 test	 al, al
  000b0	75 1c		 jne	 SHORT $LN9@Partition_
; File D:\Metin2 Server Files\mainline\SRC_2014\Metin2Client\UserInterface\PythonCharacterManager.cpp

; 427  : 		return pkLeft->LessRenderOrder(pkRight);		

  000b2	ff 36		 push	 DWORD PTR [esi]
  000b4	8b 0f		 mov	 ecx, DWORD PTR [edi]
  000b6	e8 00 00 00 00	 call	 ?LessRenderOrder@CInstanceBase@@QAE_NPAV1@@Z ; CInstanceBase::LessRenderOrder
; File C:\Program Files (x86)\Microsoft Visual Studio\2019\Community\VC\Tools\MSVC\14.28.29333\include\algorithm

; 7490 :             } else if (_Pred(*_Gfirst, *_Pfirst)) {

  000bb	84 c0		 test	 al, al
  000bd	75 17		 jne	 SHORT $LN109@Partition_

; 7491 :                 break;
; 7492 :             } else if (_Plast != _Gfirst) {

  000bf	3b df		 cmp	 ebx, edi
  000c1	74 08		 je	 SHORT $LN19@Partition_
; File C:\Program Files (x86)\Microsoft Visual Studio\2019\Community\VC\Tools\MSVC\14.28.29333\include\utility

; 104  :     _Ty _Tmp = _STD move(_Left);

  000c3	8b 0b		 mov	 ecx, DWORD PTR [ebx]

; 105  :     _Left    = _STD move(_Right);

  000c5	8b 07		 mov	 eax, DWORD PTR [edi]
  000c7	89 03		 mov	 DWORD PTR [ebx], eax

; 106  :     _Right   = _STD move(_Tmp);

  000c9	89 0f		 mov	 DWORD PTR [edi], ecx
$LN19@Partition_:
; File C:\Program Files (x86)\Microsoft Visual Studio\2019\Community\VC\Tools\MSVC\14.28.29333\include\algorithm

; 7487 :         for (; _Gfirst < _Last; ++_Gfirst) {

  000cb	83 c3 04	 add	 ebx, 4
$LN9@Partition_:
  000ce	83 c7 04	 add	 edi, 4
  000d1	3b 7d 10	 cmp	 edi, DWORD PTR __Last$[ebp]
  000d4	72 cf		 jb	 SHORT $LL11@Partition_
$LN109@Partition_:
  000d6	8b 55 f8	 mov	 edx, DWORD PTR __Glast$1$[ebp]
  000d9	89 5d fc	 mov	 DWORD PTR __Plast$1$[ebp], ebx
  000dc	89 7d f4	 mov	 DWORD PTR __Gfirst$1$[ebp], edi
$LN86@Partition_:

; 7500 :         for (; _First < _Glast; --_Glast) {

  000df	8b 45 0c	 mov	 eax, DWORD PTR __First$[ebp]
  000e2	3b d0		 cmp	 edx, eax
  000e4	76 53		 jbe	 SHORT $LN112@Partition_
  000e6	8b 5d f8	 mov	 ebx, DWORD PTR __Glast$1$[ebp]
  000e9	8d 7b fc	 lea	 edi, DWORD PTR [ebx-4]
  000ec	0f 1f 40 00	 npad	 4
$LL14@Partition_:
; File D:\Metin2 Server Files\mainline\SRC_2014\Metin2Client\UserInterface\PythonCharacterManager.cpp

; 427  : 		return pkLeft->LessRenderOrder(pkRight);		

  000f0	ff 36		 push	 DWORD PTR [esi]
  000f2	8b 0f		 mov	 ecx, DWORD PTR [edi]
  000f4	e8 00 00 00 00	 call	 ?LessRenderOrder@CInstanceBase@@QAE_NPAV1@@Z ; CInstanceBase::LessRenderOrder
; File C:\Program Files (x86)\Microsoft Visual Studio\2019\Community\VC\Tools\MSVC\14.28.29333\include\algorithm

; 7501 :             if (_DEBUG_LT_PRED(_Pred, *_Prev_iter(_Glast), *_Pfirst)) {

  000f9	84 c0		 test	 al, al
  000fb	75 1c		 jne	 SHORT $LN12@Partition_
; File D:\Metin2 Server Files\mainline\SRC_2014\Metin2Client\UserInterface\PythonCharacterManager.cpp

; 427  : 		return pkLeft->LessRenderOrder(pkRight);		

  000fd	ff 37		 push	 DWORD PTR [edi]
  000ff	8b 0e		 mov	 ecx, DWORD PTR [esi]
  00101	e8 00 00 00 00	 call	 ?LessRenderOrder@CInstanceBase@@QAE_NPAV1@@Z ; CInstanceBase::LessRenderOrder
; File C:\Program Files (x86)\Microsoft Visual Studio\2019\Community\VC\Tools\MSVC\14.28.29333\include\algorithm

; 7503 :             } else if (_Pred(*_Pfirst, *_Prev_iter(_Glast))) {

  00106	84 c0		 test	 al, al
  00108	75 1e		 jne	 SHORT $LN111@Partition_

; 7504 :                 break;
; 7505 :             } else if (--_Pfirst != _Prev_iter(_Glast)) {

  0010a	83 ee 04	 sub	 esi, 4
  0010d	3b f7		 cmp	 esi, edi
  0010f	74 08		 je	 SHORT $LN12@Partition_
; File C:\Program Files (x86)\Microsoft Visual Studio\2019\Community\VC\Tools\MSVC\14.28.29333\include\utility

; 104  :     _Ty _Tmp = _STD move(_Left);

  00111	8b 0e		 mov	 ecx, DWORD PTR [esi]

; 105  :     _Left    = _STD move(_Right);

  00113	8b 07		 mov	 eax, DWORD PTR [edi]
  00115	89 06		 mov	 DWORD PTR [esi], eax

; 106  :     _Right   = _STD move(_Tmp);

  00117	89 0f		 mov	 DWORD PTR [edi], ecx
$LN12@Partition_:
; File C:\Program Files (x86)\Microsoft Visual Studio\2019\Community\VC\Tools\MSVC\14.28.29333\include\algorithm

; 7500 :         for (; _First < _Glast; --_Glast) {

  00119	8b 45 0c	 mov	 eax, DWORD PTR __First$[ebp]
  0011c	83 eb 04	 sub	 ebx, 4
  0011f	83 ef 04	 sub	 edi, 4
  00122	3b c3		 cmp	 eax, ebx
  00124	72 ca		 jb	 SHORT $LL14@Partition_

; 7503 :             } else if (_Pred(*_Pfirst, *_Prev_iter(_Glast))) {

  00126	eb 03		 jmp	 SHORT $LN110@Partition_
$LN111@Partition_:
  00128	8b 45 0c	 mov	 eax, DWORD PTR __First$[ebp]
$LN110@Partition_:
  0012b	8b 7d f4	 mov	 edi, DWORD PTR __Gfirst$1$[ebp]
  0012e	89 5d f8	 mov	 DWORD PTR __Glast$1$[ebp], ebx
  00131	8b 55 f8	 mov	 edx, DWORD PTR __Glast$1$[ebp]

; 7506 :                 _STD iter_swap(_Pfirst, _Prev_iter(_Glast));
; 7507 :             }
; 7508 :         }
; 7509 : 
; 7510 :         if (_Glast == _First && _Gfirst == _Last) {

  00134	3b d0		 cmp	 edx, eax
  00136	8b 5d fc	 mov	 ebx, DWORD PTR __Plast$1$[ebp]
$LN112@Partition_:
  00139	75 2a		 jne	 SHORT $LN27@Partition_
  0013b	3b 7d 10	 cmp	 edi, DWORD PTR __Last$[ebp]
  0013e	74 73		 je	 SHORT $LN88@Partition_

; 7512 :         }
; 7513 : 
; 7514 :         if (_Glast == _First) { // no room at bottom, rotate pivot upward
; 7515 :             if (_Plast != _Gfirst) {

  00140	3b df		 cmp	 ebx, edi
  00142	74 08		 je	 SHORT $LN63@Partition_
; File C:\Program Files (x86)\Microsoft Visual Studio\2019\Community\VC\Tools\MSVC\14.28.29333\include\utility

; 104  :     _Ty _Tmp = _STD move(_Left);

  00144	8b 0e		 mov	 ecx, DWORD PTR [esi]

; 105  :     _Left    = _STD move(_Right);

  00146	8b 03		 mov	 eax, DWORD PTR [ebx]
  00148	89 06		 mov	 DWORD PTR [esi], eax

; 106  :     _Right   = _STD move(_Tmp);

  0014a	89 0b		 mov	 DWORD PTR [ebx], ecx
$LN63@Partition_:

; 104  :     _Ty _Tmp = _STD move(_Left);

  0014c	8b 0e		 mov	 ecx, DWORD PTR [esi]
; File C:\Program Files (x86)\Microsoft Visual Studio\2019\Community\VC\Tools\MSVC\14.28.29333\include\algorithm

; 7519 :             ++_Plast;

  0014e	83 c3 04	 add	 ebx, 4
; File C:\Program Files (x86)\Microsoft Visual Studio\2019\Community\VC\Tools\MSVC\14.28.29333\include\utility

; 105  :     _Left    = _STD move(_Right);

  00151	8b 07		 mov	 eax, DWORD PTR [edi]
  00153	89 06		 mov	 DWORD PTR [esi], eax
; File C:\Program Files (x86)\Microsoft Visual Studio\2019\Community\VC\Tools\MSVC\14.28.29333\include\algorithm

; 7521 :             ++_Pfirst;

  00155	83 c6 04	 add	 esi, 4
; File C:\Program Files (x86)\Microsoft Visual Studio\2019\Community\VC\Tools\MSVC\14.28.29333\include\utility

; 106  :     _Right   = _STD move(_Tmp);

  00158	89 0f		 mov	 DWORD PTR [edi], ecx
; File C:\Program Files (x86)\Microsoft Visual Studio\2019\Community\VC\Tools\MSVC\14.28.29333\include\algorithm

; 7522 :             ++_Gfirst;

  0015a	83 c7 04	 add	 edi, 4
  0015d	89 5d fc	 mov	 DWORD PTR __Plast$1$[ebp], ebx
  00160	e9 36 ff ff ff	 jmp	 $LN113@Partition_
$LN27@Partition_:

; 7523 :         } else if (_Gfirst == _Last) { // no room at top, rotate pivot downward

  00165	83 c2 fc	 add	 edx, -4			; fffffffcH
  00168	89 55 f8	 mov	 DWORD PTR __Glast$1$[ebp], edx
  0016b	3b 7d 10	 cmp	 edi, DWORD PTR __Last$[ebp]
  0016e	75 33		 jne	 SHORT $LN30@Partition_

; 7524 :             if (--_Glast != --_Pfirst) {

  00170	83 ee 04	 sub	 esi, 4
  00173	3b d6		 cmp	 edx, esi
  00175	74 19		 je	 SHORT $LN98@Partition_
