; Listing generated by Microsoft (R) Optimizing Compiler Version 19.28.29335.0 

	TITLE	D:\Metin2 Server Files\mainline\SRC_2014\Metin2Client\UserInterface\PythonPlayerSkill.cpp
	.686P
	.XMM
	include listing.inc
	.model	flat

INCLUDELIB LIBCMT
INCLUDELIB OLDNAMES

PUBLIC	??_7?$CDynamicPoolEx@VCTextureAnimationRandomDecorator@NEffectUpdateDecorator@@@@6B@ ; CDynamicPoolEx<NEffectUpdateDecorator::CTextureAnimationRandomDecorator>::`vftable'
PUBLIC	??_G?$CDynamicPoolEx@VCTextureAnimationRandomDecorator@NEffectUpdateDecorator@@@@UAEPAXI@Z ; CDynamicPoolEx<NEffectUpdateDecorator::CTextureAnimationRandomDecorator>::`scalar deleting destructor'
PUBLIC	??_7?$CDynamicPoolEx@VCTextureAnimationCCWDecorator@NEffectUpdateDecorator@@@@6B@ ; CDynamicPoolEx<NEffectUpdateDecorator::CTextureAnimationCCWDecorator>::`vftable'
PUBLIC	??_G?$CDynamicPoolEx@VCTextureAnimationCCWDecorator@NEffectUpdateDecorator@@@@UAEPAXI@Z ; CDynamicPoolEx<NEffectUpdateDecorator::CTextureAnimationCCWDecorator>::`scalar deleting destructor'
PUBLIC	??_7?$CDynamicPoolEx@VCTextureAnimationCWDecorator@NEffectUpdateDecorator@@@@6B@ ; CDynamicPoolEx<NEffectUpdateDecorator::CTextureAnimationCWDecorator>::`vftable'
PUBLIC	??_G?$CDynamicPoolEx@VCTextureAnimationCWDecorator@NEffectUpdateDecorator@@@@UAEPAXI@Z ; CDynamicPoolEx<NEffectUpdateDecorator::CTextureAnimationCWDecorator>::`scalar deleting destructor'
PUBLIC	??_7?$CDynamicPoolEx@VCNullDecorator@NEffectUpdateDecorator@@@@6B@ ; CDynamicPoolEx<NEffectUpdateDecorator::CNullDecorator>::`vftable'
PUBLIC	??_G?$CDynamicPoolEx@VCNullDecorator@NEffectUpdateDecorator@@@@UAEPAXI@Z ; CDynamicPoolEx<NEffectUpdateDecorator::CNullDecorator>::`scalar deleting destructor'
PUBLIC	??_7?$CDynamicPoolEx@VCHeaderDecorator@NEffectUpdateDecorator@@@@6B@ ; CDynamicPoolEx<NEffectUpdateDecorator::CHeaderDecorator>::`vftable'
PUBLIC	??_G?$CDynamicPoolEx@VCHeaderDecorator@NEffectUpdateDecorator@@@@UAEPAXI@Z ; CDynamicPoolEx<NEffectUpdateDecorator::CHeaderDecorator>::`scalar deleting destructor'
PUBLIC	??_R4?$CDynamicPoolEx@VCHeaderDecorator@NEffectUpdateDecorator@@@@6B@ ; CDynamicPoolEx<NEffectUpdateDecorator::CHeaderDecorator>::`RTTI Complete Object Locator'
PUBLIC	??_R0?AV?$CDynamicPoolEx@VCHeaderDecorator@NEffectUpdateDecorator@@@@@8 ; CDynamicPoolEx<NEffectUpdateDecorator::CHeaderDecorator> `RTTI Type Descriptor'
PUBLIC	??_R3?$CDynamicPoolEx@VCHeaderDecorator@NEffectUpdateDecorator@@@@8 ; CDynamicPoolEx<NEffectUpdateDecorator::CHeaderDecorator>::`RTTI Class Hierarchy Descriptor'
PUBLIC	??_R2?$CDynamicPoolEx@VCHeaderDecorator@NEffectUpdateDecorator@@@@8 ; CDynamicPoolEx<NEffectUpdateDecorator::CHeaderDecorator>::`RTTI Base Class Array'
PUBLIC	??_R1A@?0A@EA@?$CDynamicPoolEx@VCHeaderDecorator@NEffectUpdateDecorator@@@@8 ; CDynamicPoolEx<NEffectUpdateDecorator::CHeaderDecorator>::`RTTI Base Class Descriptor at (0,-1,0,64)'
PUBLIC	??_R4?$CDynamicPoolEx@VCNullDecorator@NEffectUpdateDecorator@@@@6B@ ; CDynamicPoolEx<NEffectUpdateDecorator::CNullDecorator>::`RTTI Complete Object Locator'
PUBLIC	??_R0?AV?$CDynamicPoolEx@VCNullDecorator@NEffectUpdateDecorator@@@@@8 ; CDynamicPoolEx<NEffectUpdateDecorator::CNullDecorator> `RTTI Type Descriptor'
PUBLIC	??_R3?$CDynamicPoolEx@VCNullDecorator@NEffectUpdateDecorator@@@@8 ; CDynamicPoolEx<NEffectUpdateDecorator::CNullDecorator>::`RTTI Class Hierarchy Descriptor'
PUBLIC	??_R2?$CDynamicPoolEx@VCNullDecorator@NEffectUpdateDecorator@@@@8 ; CDynamicPoolEx<NEffectUpdateDecorator::CNullDecorator>::`RTTI Base Class Array'
PUBLIC	??_R1A@?0A@EA@?$CDynamicPoolEx@VCNullDecorator@NEffectUpdateDecorator@@@@8 ; CDynamicPoolEx<NEffectUpdateDecorator::CNullDecorator>::`RTTI Base Class Descriptor at (0,-1,0,64)'
PUBLIC	??_R4?$CDynamicPoolEx@VCTextureAnimationCWDecorator@NEffectUpdateDecorator@@@@6B@ ; CDynamicPoolEx<NEffectUpdateDecorator::CTextureAnimationCWDecorator>::`RTTI Complete Object Locator'
PUBLIC	??_R0?AV?$CDynamicPoolEx@VCTextureAnimationCWDecorator@NEffectUpdateDecorator@@@@@8 ; CDynamicPoolEx<NEffectUpdateDecorator::CTextureAnimationCWDecorator> `RTTI Type Descriptor'
PUBLIC	??_R3?$CDynamicPoolEx@VCTextureAnimationCWDecorator@NEffectUpdateDecorator@@@@8 ; CDynamicPoolEx<NEffectUpdateDecorator::CTextureAnimationCWDecorator>::`RTTI Class Hierarchy Descriptor'
PUBLIC	??_R2?$CDynamicPoolEx@VCTextureAnimationCWDecorator@NEffectUpdateDecorator@@@@8 ; CDynamicPoolEx<NEffectUpdateDecorator::CTextureAnimationCWDecorator>::`RTTI Base Class Array'
PUBLIC	??_R1A@?0A@EA@?$CDynamicPoolEx@VCTextureAnimationCWDecorator@NEffectUpdateDecorator@@@@8 ; CDynamicPoolEx<NEffectUpdateDecorator::CTextureAnimationCWDecorator>::`RTTI Base Class Descriptor at (0,-1,0,64)'
PUBLIC	??_R4?$CDynamicPoolEx@VCTextureAnimationCCWDecorator@NEffectUpdateDecorator@@@@6B@ ; CDynamicPoolEx<NEffectUpdateDecorator::CTextureAnimationCCWDecorator>::`RTTI Complete Object Locator'
PUBLIC	??_R0?AV?$CDynamicPoolEx@VCTextureAnimationCCWDecorator@NEffectUpdateDecorator@@@@@8 ; CDynamicPoolEx<NEffectUpdateDecorator::CTextureAnimationCCWDecorator> `RTTI Type Descriptor'
PUBLIC	??_R3?$CDynamicPoolEx@VCTextureAnimationCCWDecorator@NEffectUpdateDecorator@@@@8 ; CDynamicPoolEx<NEffectUpdateDecorator::CTextureAnimationCCWDecorator>::`RTTI Class Hierarchy Descriptor'
PUBLIC	??_R2?$CDynamicPoolEx@VCTextureAnimationCCWDecorator@NEffectUpdateDecorator@@@@8 ; CDynamicPoolEx<NEffectUpdateDecorator::CTextureAnimationCCWDecorator>::`RTTI Base Class Array'
PUBLIC	??_R1A@?0A@EA@?$CDynamicPoolEx@VCTextureAnimationCCWDecorator@NEffectUpdateDecorator@@@@8 ; CDynamicPoolEx<NEffectUpdateDecorator::CTextureAnimationCCWDecorator>::`RTTI Base Class Descriptor at (0,-1,0,64)'
PUBLIC	??_R4?$CDynamicPoolEx@VCTextureAnimationRandomDecorator@NEffectUpdateDecorator@@@@6B@ ; CDynamicPoolEx<NEffectUpdateDecorator::CTextureAnimationRandomDecorator>::`RTTI Complete Object Locator'
PUBLIC	??_R0?AV?$CDynamicPoolEx@VCTextureAnimationRandomDecorator@NEffectUpdateDecorator@@@@@8 ; CDynamicPoolEx<NEffectUpdateDecorator::CTextureAnimationRandomDecorator> `RTTI Type Descriptor'
PUBLIC	??_R3?$CDynamicPoolEx@VCTextureAnimationRandomDecorator@NEffectUpdateDecorator@@@@8 ; CDynamicPoolEx<NEffectUpdateDecorator::CTextureAnimationRandomDecorator>::`RTTI Class Hierarchy Descriptor'
PUBLIC	??_R2?$CDynamicPoolEx@VCTextureAnimationRandomDecorator@NEffectUpdateDecorator@@@@8 ; CDynamicPoolEx<NEffectUpdateDecorator::CTextureAnimationRandomDecorator>::`RTTI Base Class Array'
PUBLIC	??_R1A@?0A@EA@?$CDynamicPoolEx@VCTextureAnimationRandomDecorator@NEffectUpdateDecorator@@@@8 ; CDynamicPoolEx<NEffectUpdateDecorator::CTextureAnimationRandomDecorator>::`RTTI Base Class Descriptor at (0,-1,0,64)'
PUBLIC	??_R4?$CDynamicPoolEx@VCAirResistanceDecorator@NEffectUpdateDecorator@@@@6B@ ; CDynamicPoolEx<NEffectUpdateDecorator::CAirResistanceDecorator>::`RTTI Complete Object Locator'
PUBLIC	??_R0?AV?$CDynamicPoolEx@VCAirResistanceDecorator@NEffectUpdateDecorator@@@@@8 ; CDynamicPoolEx<NEffectUpdateDecorator::CAirResistanceDecorator> `RTTI Type Descriptor'
PUBLIC	??_R3?$CDynamicPoolEx@VCAirResistanceDecorator@NEffectUpdateDecorator@@@@8 ; CDynamicPoolEx<NEffectUpdateDecorator::CAirResistanceDecorator>::`RTTI Class Hierarchy Descriptor'
PUBLIC	??_R2?$CDynamicPoolEx@VCAirResistanceDecorator@NEffectUpdateDecorator@@@@8 ; CDynamicPoolEx<NEffectUpdateDecorator::CAirResistanceDecorator>::`RTTI Base Class Array'
PUBLIC	??_R1A@?0A@EA@?$CDynamicPoolEx@VCAirResistanceDecorator@NEffectUpdateDecorator@@@@8 ; CDynamicPoolEx<NEffectUpdateDecorator::CAirResistanceDecorator>::`RTTI Base Class Descriptor at (0,-1,0,64)'
PUBLIC	??_R4?$CDynamicPoolEx@VCGravityDecorator@NEffectUpdateDecorator@@@@6B@ ; CDynamicPoolEx<NEffectUpdateDecorator::CGravityDecorator>::`RTTI Complete Object Locator'
PUBLIC	??_R0?AV?$CDynamicPoolEx@VCGravityDecorator@NEffectUpdateDecorator@@@@@8 ; CDynamicPoolEx<NEffectUpdateDecorator::CGravityDecorator> `RTTI Type Descriptor'
PUBLIC	??_R3?$CDynamicPoolEx@VCGravityDecorator@NEffectUpdateDecorator@@@@8 ; CDynamicPoolEx<NEffectUpdateDecorator::CGravityDecorator>::`RTTI Class Hierarchy Descriptor'
PUBLIC	??_R2?$CDynamicPoolEx@VCGravityDecorator@NEffectUpdateDecorator@@@@8 ; CDynamicPoolEx<NEffectUpdateDecorator::CGravityDecorator>::`RTTI Base Class Array'
PUBLIC	??_R1A@?0A@EA@?$CDynamicPoolEx@VCGravityDecorator@NEffectUpdateDecorator@@@@8 ; CDynamicPoolEx<NEffectUpdateDecorator::CGravityDecorator>::`RTTI Base Class Descriptor at (0,-1,0,64)'
PUBLIC	??_R4?$CDynamicPoolEx@VCRotationDecorator@NEffectUpdateDecorator@@@@6B@ ; CDynamicPoolEx<NEffectUpdateDecorator::CRotationDecorator>::`RTTI Complete Object Locator'
PUBLIC	??_R0?AV?$CDynamicPoolEx@VCRotationDecorator@NEffectUpdateDecorator@@@@@8 ; CDynamicPoolEx<NEffectUpdateDecorator::CRotationDecorator> `RTTI Type Descriptor'
PUBLIC	??_R3?$CDynamicPoolEx@VCRotationDecorator@NEffectUpdateDecorator@@@@8 ; CDynamicPoolEx<NEffectUpdateDecorator::CRotationDecorator>::`RTTI Class Hierarchy Descriptor'
PUBLIC	??_R2?$CDynamicPoolEx@VCRotationDecorator@NEffectUpdateDecorator@@@@8 ; CDynamicPoolEx<NEffectUpdateDecorator::CRotationDecorator>::`RTTI Base Class Array'
PUBLIC	??_R1A@?0A@EA@?$CDynamicPoolEx@VCRotationDecorator@NEffectUpdateDecorator@@@@8 ; CDynamicPoolEx<NEffectUpdateDecorator::CRotationDecorator>::`RTTI Base Class Descriptor at (0,-1,0,64)'
PUBLIC	??_7?$CDynamicPoolEx@VCRotationDecorator@NEffectUpdateDecorator@@@@6B@ ; CDynamicPoolEx<NEffectUpdateDecorator::CRotationDecorator>::`vftable'
PUBLIC	??_G?$CDynamicPoolEx@VCRotationDecorator@NEffectUpdateDecorator@@@@UAEPAXI@Z ; CDynamicPoolEx<NEffectUpdateDecorator::CRotationDecorator>::`scalar deleting destructor'
PUBLIC	??_7?$CDynamicPoolEx@VCGravityDecorator@NEffectUpdateDecorator@@@@6B@ ; CDynamicPoolEx<NEffectUpdateDecorator::CGravityDecorator>::`vftable'
PUBLIC	??_G?$CDynamicPoolEx@VCGravityDecorator@NEffectUpdateDecorator@@@@UAEPAXI@Z ; CDynamicPoolEx<NEffectUpdateDecorator::CGravityDecorator>::`scalar deleting destructor'
PUBLIC	??_7?$CDynamicPoolEx@VCAirResistanceDecorator@NEffectUpdateDecorator@@@@6B@ ; CDynamicPoolEx<NEffectUpdateDecorator::CAirResistanceDecorator>::`vftable'
PUBLIC	??_G?$CDynamicPoolEx@VCAirResistanceDecorator@NEffectUpdateDecorator@@@@UAEPAXI@Z ; CDynamicPoolEx<NEffectUpdateDecorator::CAirResistanceDecorator>::`scalar deleting destructor'
EXTRN	??_E?$CDynamicPoolEx@VCTextureAnimationRandomDecorator@NEffectUpdateDecorator@@@@UAEPAXI@Z:PROC ; CDynamicPoolEx<NEffectUpdateDecorator::CTextureAnimationRandomDecorator>::`vector deleting destructor'
EXTRN	??_E?$CDynamicPoolEx@VCTextureAnimationCCWDecorator@NEffectUpdateDecorator@@@@UAEPAXI@Z:PROC ; CDynamicPoolEx<NEffectUpdateDecorator::CTextureAnimationCCWDecorator>::`vector deleting destructor'
EXTRN	??_E?$CDynamicPoolEx@VCTextureAnimationCWDecorator@NEffectUpdateDecorator@@@@UAEPAXI@Z:PROC ; CDynamicPoolEx<NEffectUpdateDecorator::CTextureAnimationCWDecorator>::`vector deleting destructor'
EXTRN	??_E?$CDynamicPoolEx@VCNullDecorator@NEffectUpdateDecorator@@@@UAEPAXI@Z:PROC ; CDynamicPoolEx<NEffectUpdateDecorator::CNullDecorator>::`vector deleting destructor'
EXTRN	??_E?$CDynamicPoolEx@VCHeaderDecorator@NEffectUpdateDecorator@@@@UAEPAXI@Z:PROC ; CDynamicPoolEx<NEffectUpdateDecorator::CHeaderDecorator>::`vector deleting destructor'
EXTRN	??_7type_info@@6B@:QWORD			; type_info::`vftable'
EXTRN	??_E?$CDynamicPoolEx@VCRotationDecorator@NEffectUpdateDecorator@@@@UAEPAXI@Z:PROC ; CDynamicPoolEx<NEffectUpdateDecorator::CRotationDecorator>::`vector deleting destructor'
EXTRN	??_E?$CDynamicPoolEx@VCGravityDecorator@NEffectUpdateDecorator@@@@UAEPAXI@Z:PROC ; CDynamicPoolEx<NEffectUpdateDecorator::CGravityDecorator>::`vector deleting destructor'
EXTRN	??_E?$CDynamicPoolEx@VCAirResistanceDecorator@NEffectUpdateDecorator@@@@UAEPAXI@Z:PROC ; CDynamicPoolEx<NEffectUpdateDecorator::CAirResistanceDecorator>::`vector deleting destructor'
;	COMDAT ??_7?$CDynamicPoolEx@VCAirResistanceDecorator@NEffectUpdateDecorator@@@@6B@
CONST	SEGMENT
??_7?$CDynamicPoolEx@VCAirResistanceDecorator@NEffectUpdateDecorator@@@@6B@ DD FLAT:??_R4?$CDynamicPoolEx@VCAirResistanceDecorator@NEffectUpdateDecorator@@@@6B@ ; CDynamicPoolEx<NEffectUpdateDecorator::CAirResistanceDecorator>::`vftable'
	DD	FLAT:??_E?$CDynamicPoolEx@VCAirResistanceDecorator@NEffectUpdateDecorator@@@@UAEPAXI@Z
CONST	ENDS
;	COMDAT ??_7?$CDynamicPoolEx@VCGravityDecorator@NEffectUpdateDecorator@@@@6B@
CONST	SEGMENT
??_7?$CDynamicPoolEx@VCGravityDecorator@NEffectUpdateDecorator@@@@6B@ DD FLAT:??_R4?$CDynamicPoolEx@VCGravityDecorator@NEffectUpdateDecorator@@@@6B@ ; CDynamicPoolEx<NEffectUpdateDecorator::CGravityDecorator>::`vftable'
	DD	FLAT:??_E?$CDynamicPoolEx@VCGravityDecorator@NEffectUpdateDecorator@@@@UAEPAXI@Z
CONST	ENDS
;	COMDAT ??_7?$CDynamicPoolEx@VCRotationDecorator@NEffectUpdateDecorator@@@@6B@
CONST	SEGMENT
??_7?$CDynamicPoolEx@VCRotationDecorator@NEffectUpdateDecorator@@@@6B@ DD FLAT:??_R4?$CDynamicPoolEx@VCRotationDecorator@NEffectUpdateDecorator@@@@6B@ ; CDynamicPoolEx<NEffectUpdateDecorator::CRotationDecorator>::`vftable'
	DD	FLAT:??_E?$CDynamicPoolEx@VCRotationDecorator@NEffectUpdateDecorator@@@@UAEPAXI@Z
CONST	ENDS
;	COMDAT ??_R1A@?0A@EA@?$CDynamicPoolEx@VCRotationDecorator@NEffectUpdateDecorator@@@@8
rdata$r	SEGMENT
??_R1A@?0A@EA@?$CDynamicPoolEx@VCRotationDecorator@NEffectUpdateDecorator@@@@8 DD FLAT:??_R0?AV?$CDynamicPoolEx@VCRotationDecorator@NEffectUpdateDecorator@@@@@8 ; CDynamicPoolEx<NEffectUpdateDecorator::CRotationDecorator>::`RTTI Base Class Descriptor at (0,-1,0,64)'
	DD	00H
	DD	00H
	DD	0ffffffffH
	DD	00H
	DD	040H
	DD	FLAT:??_R3?$CDynamicPoolEx@VCRotationDecorator@NEffectUpdateDecorator@@@@8
rdata$r	ENDS
;	COMDAT ??_R2?$CDynamicPoolEx@VCRotationDecorator@NEffectUpdateDecorator@@@@8
rdata$r	SEGMENT
??_R2?$CDynamicPoolEx@VCRotationDecorator@NEffectUpdateDecorator@@@@8 DD FLAT:??_R1A@?0A@EA@?$CDynamicPoolEx@VCRotationDecorator@NEffectUpdateDecorator@@@@8 ; CDynamicPoolEx<NEffectUpdateDecorator::CRotationDecorator>::`RTTI Base Class Array'
rdata$r	ENDS
;	COMDAT ??_R3?$CDynamicPoolEx@VCRotationDecorator@NEffectUpdateDecorator@@@@8
rdata$r	SEGMENT
??_R3?$CDynamicPoolEx@VCRotationDecorator@NEffectUpdateDecorator@@@@8 DD 00H ; CDynamicPoolEx<NEffectUpdateDecorator::CRotationDecorator>::`RTTI Class Hierarchy Descriptor'
	DD	00H
	DD	01H
	DD	FLAT:??_R2?$CDynamicPoolEx@VCRotationDecorator@NEffectUpdateDecorator@@@@8
rdata$r	ENDS
;	COMDAT ??_R0?AV?$CDynamicPoolEx@VCRotationDecorator@NEffectUpdateDecorator@@@@@8
data$rs	SEGMENT
??_R0?AV?$CDynamicPoolEx@VCRotationDecorator@NEffectUpdateDecorator@@@@@8 DD FLAT:??_7type_info@@6B@ ; CDynamicPoolEx<NEffectUpdateDecorator::CRotationDecorator> `RTTI Type Descriptor'
	DD	00H
	DB	'.?AV?$CDynamicPoolEx@VCRotationDecorator@NEffectUpdateDe'
	DB	'corator@@@@', 00H
data$rs	ENDS
;	COMDAT ??_R4?$CDynamicPoolEx@VCRotationDecorator@NEffectUpdateDecorator@@@@6B@
rdata$r	SEGMENT
??_R4?$CDynamicPoolEx@VCRotationDecorator@NEffectUpdateDecorator@@@@6B@ DD 00H ; CDynamicPoolEx<NEffectUpdateDecorator::CRotationDecorator>::`RTTI Complete Object Locator'
	DD	00H
	DD	00H
	DD	FLAT:??_R0?AV?$CDynamicPoolEx@VCRotationDecorator@NEffectUpdateDecorator@@@@@8
	DD	FLAT:??_R3?$CDynamicPoolEx@VCRotationDecorator@NEffectUpdateDecorator@@@@8
rdata$r	ENDS
;	COMDAT ??_R1A@?0A@EA@?$CDynamicPoolEx@VCGravityDecorator@NEffectUpdateDecorator@@@@8
rdata$r	SEGMENT
??_R1A@?0A@EA@?$CDynamicPoolEx@VCGravityDecorator@NEffectUpdateDecorator@@@@8 DD FLAT:??_R0?AV?$CDynamicPoolEx@VCGravityDecorator@NEffectUpdateDecorator@@@@@8 ; CDynamicPoolEx<NEffectUpdateDecorator::CGravityDecorator>::`RTTI Base Class Descriptor at (0,-1,0,64)'
	DD	00H
	DD	00H
	DD	0ffffffffH
	DD	00H
	DD	040H
	DD	FLAT:??_R3?$CDynamicPoolEx@VCGravityDecorator@NEffectUpdateDecorator@@@@8
rdata$r	ENDS
;	COMDAT ??_R2?$CDynamicPoolEx@VCGravityDecorator@NEffectUpdateDecorator@@@@8
rdata$r	SEGMENT
??_R2?$CDynamicPoolEx@VCGravityDecorator@NEffectUpdateDecorator@@@@8 DD FLAT:??_R1A@?0A@EA@?$CDynamicPoolEx@VCGravityDecorator@NEffectUpdateDecorator@@@@8 ; CDynamicPoolEx<NEffectUpdateDecorator::CGravityDecorator>::`RTTI Base Class Array'
rdata$r	ENDS
;	COMDAT ??_R3?$CDynamicPoolEx@VCGravityDecorator@NEffectUpdateDecorator@@@@8
rdata$r	SEGMENT
??_R3?$CDynamicPoolEx@VCGravityDecorator@NEffectUpdateDecorator@@@@8 DD 00H ; CDynamicPoolEx<NEffectUpdateDecorator::CGravityDecorator>::`RTTI Class Hierarchy Descriptor'
	DD	00H
	DD	01H
	DD	FLAT:??_R2?$CDynamicPoolEx@VCGravityDecorator@NEffectUpdateDecorator@@@@8
rdata$r	ENDS
;	COMDAT ??_R0?AV?$CDynamicPoolEx@VCGravityDecorator@NEffectUpdateDecorator@@@@@8
data$rs	SEGMENT
??_R0?AV?$CDynamicPoolEx@VCGravityDecorator@NEffectUpdateDecorator@@@@@8 DD FLAT:??_7type_info@@6B@ ; CDynamicPoolEx<NEffectUpdateDecorator::CGravityDecorator> `RTTI Type Descriptor'
	DD	00H
	DB	'.?AV?$CDynamicPoolEx@VCGravityDecorator@NEffectUpdateDec'
	DB	'orator@@@@', 00H
data$rs	ENDS
;	COMDAT ??_R4?$CDynamicPoolEx@VCGravityDecorator@NEffectUpdateDecorator@@@@6B@
rdata$r	SEGMENT
??_R4?$CDynamicPoolEx@VCGravityDecorator@NEffectUpdateDecorator@@@@6B@ DD 00H ; CDynamicPoolEx<NEffectUpdateDecorator::CGravityDecorator>::`RTTI Complete Object Locator'
	DD	00H
	DD	00H
	DD	FLAT:??_R0?AV?$CDynamicPoolEx@VCGravityDecorator@NEffectUpdateDecorator@@@@@8
	DD	FLAT:??_R3?$CDynamicPoolEx@VCGravityDecorator@NEffectUpdateDecorator@@@@8
rdata$r	ENDS
;	COMDAT ??_R1A@?0A@EA@?$CDynamicPoolEx@VCAirResistanceDecorator@NEffectUpdateDecorator@@@@8
rdata$r	SEGMENT
??_R1A@?0A@EA@?$CDynamicPoolEx@VCAirResistanceDecorator@NEffectUpdateDecorator@@@@8 DD FLAT:??_R0?AV?$CDynamicPoolEx@VCAirResistanceDecorator@NEffectUpdateDecorator@@@@@8 ; CDynamicPoolEx<NEffectUpdateDecorator::CAirResistanceDecorator>::`RTTI Base Class Descriptor at (0,-1,0,64)'
	DD	00H
	DD	00H
	DD	0ffffffffH
	DD	00H
	DD	040H
	DD	FLAT:??_R3?$CDynamicPoolEx@VCAirResistanceDecorator@NEffectUpdateDecorator@@@@8
rdata$r	ENDS
;	COMDAT ??_R2?$CDynamicPoolEx@VCAirResistanceDecorator@NEffectUpdateDecorator@@@@8
rdata$r	SEGMENT
??_R2?$CDynamicPoolEx@VCAirResistanceDecorator@NEffectUpdateDecorator@@@@8 DD FLAT:??_R1A@?0A@EA@?$CDynamicPoolEx@VCAirResistanceDecorator@NEffectUpdateDecorator@@@@8 ; CDynamicPoolEx<NEffectUpdateDecorator::CAirResistanceDecorator>::`RTTI Base Class Array'
rdata$r	ENDS
;	COMDAT ??_R3?$CDynamicPoolEx@VCAirResistanceDecorator@NEffectUpdateDecorator@@@@8
rdata$r	SEGMENT
??_R3?$CDynamicPoolEx@VCAirResistanceDecorator@NEffectUpdateDecorator@@@@8 DD 00H ; CDynamicPoolEx<NEffectUpdateDecorator::CAirResistanceDecorator>::`RTTI Class Hierarchy Descriptor'
	DD	00H
	DD	01H
	DD	FLAT:??_R2?$CDynamicPoolEx@VCAirResistanceDecorator@NEffectUpdateDecorator@@@@8
rdata$r	ENDS
;	COMDAT ??_R0?AV?$CDynamicPoolEx@VCAirResistanceDecorator@NEffectUpdateDecorator@@@@@8
data$rs	SEGMENT
??_R0?AV?$CDynamicPoolEx@VCAirResistanceDecorator@NEffectUpdateDecorator@@@@@8 DD FLAT:??_7type_info@@6B@ ; CDynamicPoolEx<NEffectUpdateDecorator::CAirResistanceDecorator> `RTTI Type Descriptor'
	DD	00H
	DB	'.?AV?$CDynamicPoolEx@VCAirResistanceDecorator@NEffectUpd'
	DB	'ateDecorator@@@@', 00H
data$rs	ENDS
;	COMDAT ??_R4?$CDynamicPoolEx@VCAirResistanceDecorator@NEffectUpdateDecorator@@@@6B@
rdata$r	SEGMENT
??_R4?$CDynamicPoolEx@VCAirResistanceDecorator@NEffectUpdateDecorator@@@@6B@ DD 00H ; CDynamicPoolEx<NEffectUpdateDecorator::CAirResistanceDecorator>::`RTTI Complete Object Locator'
	DD	00H
	DD	00H
	DD	FLAT:??_R0?AV?$CDynamicPoolEx@VCAirResistanceDecorator@NEffectUpdateDecorator@@@@@8
	DD	FLAT:??_R3?$CDynamicPoolEx@VCAirResistanceDecorator@NEffectUpdateDecorator@@@@8
rdata$r	ENDS
;	COMDAT ??_R1A@?0A@EA@?$CDynamicPoolEx@VCTextureAnimationRandomDecorator@NEffectUpdateDecorator@@@@8
rdata$r	SEGMENT
??_R1A@?0A@EA@?$CDynamicPoolEx@VCTextureAnimationRandomDecorator@NEffectUpdateDecorator@@@@8 DD FLAT:??_R0?AV?$CDynamicPoolEx@VCTextureAnimationRandomDecorator@NEffectUpdateDecorator@@@@@8 ; CDynamicPoolEx<NEffectUpdateDecorator::CTextureAnimationRandomDecorator>::`RTTI Base Class Descriptor at (0,-1,0,64)'
	DD	00H
	DD	00H
	DD	0ffffffffH
	DD	00H
	DD	040H
	DD	FLAT:??_R3?$CDynamicPoolEx@VCTextureAnimationRandomDecorator@NEffectUpdateDecorator@@@@8
rdata$r	ENDS
;	COMDAT ??_R2?$CDynamicPoolEx@VCTextureAnimationRandomDecorator@NEffectUpdateDecorator@@@@8
rdata$r	SEGMENT
??_R2?$CDynamicPoolEx@VCTextureAnimationRandomDecorator@NEffectUpdateDecorator@@@@8 DD FLAT:??_R1A@?0A@EA@?$CDynamicPoolEx@VCTextureAnimationRandomDecorator@NEffectUpdateDecorator@@@@8 ; CDynamicPoolEx<NEffectUpdateDecorator::CTextureAnimationRandomDecorator>::`RTTI Base Class Array'
rdata$r	ENDS
;	COMDAT ??_R3?$CDynamicPoolEx@VCTextureAnimationRandomDecorator@NEffectUpdateDecorator@@@@8
rdata$r	SEGMENT
??_R3?$CDynamicPoolEx@VCTextureAnimationRandomDecorator@NEffectUpdateDecorator@@@@8 DD 00H ; CDynamicPoolEx<NEffectUpdateDecorator::CTextureAnimationRandomDecorator>::`RTTI Class Hierarchy Descriptor'
	DD	00H
	DD	01H
	DD	FLAT:??_R2?$CDynamicPoolEx@VCTextureAnimationRandomDecorator@NEffectUpdateDecorator@@@@8
rdata$r	ENDS
;	COMDAT ??_R0?AV?$CDynamicPoolEx@VCTextureAnimationRandomDecorator@NEffectUpdateDecorator@@@@@8
data$rs	SEGMENT
??_R0?AV?$CDynamicPoolEx@VCTextureAnimationRandomDecorator@NEffectUpdateDecorator@@@@@8 DD FLAT:??_7type_info@@6B@ ; CDynamicPoolEx<NEffectUpdateDecorator::CTextureAnimationRandomDecorator> `RTTI Type Descriptor'
	DD	00H
	DB	'.?AV?$CDynamicPoolEx@VCTextureAnimationRandomDecorator@N'
	DB	'EffectUpdateDecorator@@@@', 00H
data$rs	ENDS
;	COMDAT ??_R4?$CDynamicPoolEx@VCTextureAnimationRandomDecorator@NEffectUpdateDecorator@@@@6B@
rdata$r	SEGMENT
??_R4?$CDynamicPoolEx@VCTextureAnimationRandomDecorator@NEffectUpdateDecorator@@@@6B@ DD 00H ; CDynamicPoolEx<NEffectUpdateDecorator::CTextureAnimationRandomDecorator>::`RTTI Complete Object Locator'
	DD	00H
	DD	00H
	DD	FLAT:??_R0?AV?$CDynamicPoolEx@VCTextureAnimationRandomDecorator@NEffectUpdateDecorator@@@@@8
	DD	FLAT:??_R3?$CDynamicPoolEx@VCTextureAnimationRandomDecorator@NEffectUpdateDecorator@@@@8
rdata$r	ENDS
;	COMDAT ??_R1A@?0A@EA@?$CDynamicPoolEx@VCTextureAnimationCCWDecorator@NEffectUpdateDecorator@@@@8
rdata$r	SEGMENT
??_R1A@?0A@EA@?$CDynamicPoolEx@VCTextureAnimationCCWDecorator@NEffectUpdateDecorator@@@@8 DD FLAT:??_R0?AV?$CDynamicPoolEx@VCTextureAnimationCCWDecorator@NEffectUpdateDecorator@@@@@8 ; CDynamicPoolEx<NEffectUpdateDecorator::CTextureAnimationCCWDecorator>::`RTTI Base Class Descriptor at (0,-1,0,64)'
	DD	00H
	DD	00H
	DD	0ffffffffH
	DD	00H
	DD	040H
	DD	FLAT:??_R3?$CDynamicPoolEx@VCTextureAnimationCCWDecorator@NEffectUpdateDecorator@@@@8
rdata$r	ENDS
;	COMDAT ??_R2?$CDynamicPoolEx@VCTextureAnimationCCWDecorator@NEffectUpdateDecorator@@@@8
rdata$r	SEGMENT
??_R2?$CDynamicPoolEx@VCTextureAnimationCCWDecorator@NEffectUpdateDecorator@@@@8 DD FLAT:??_R1A@?0A@EA@?$CDynamicPoolEx@VCTextureAnimationCCWDecorator@NEffectUpdateDecorator@@@@8 ; CDynamicPoolEx<NEffectUpdateDecorator::CTextureAnimationCCWDecorator>::`RTTI Base Class Array'
rdata$r	ENDS
;	COMDAT ??_R3?$CDynamicPoolEx@VCTextureAnimationCCWDecorator@NEffectUpdateDecorator@@@@8
rdata$r	SEGMENT
??_R3?$CDynamicPoolEx@VCTextureAnimationCCWDecorator@NEffectUpdateDecorator@@@@8 DD 00H ; CDynamicPoolEx<NEffectUpdateDecorator::CTextureAnimationCCWDecorator>::`RTTI Class Hierarchy Descriptor'
	DD	00H
	DD	01H
	DD	FLAT:??_R2?$CDynamicPoolEx@VCTextureAnimationCCWDecorator@NEffectUpdateDecorator@@@@8
rdata$r	ENDS
;	COMDAT ??_R0?AV?$CDynamicPoolEx@VCTextureAnimationCCWDecorator@NEffectUpdateDecorator@@@@@8
data$rs	SEGMENT
??_R0?AV?$CDynamicPoolEx@VCTextureAnimationCCWDecorator@NEffectUpdateDecorator@@@@@8 DD FLAT:??_7type_info@@6B@ ; CDynamicPoolEx<NEffectUpdateDecorator::CTextureAnimationCCWDecorator> `RTTI Type Descriptor'
	DD	00H
	DB	'.?AV?$CDynamicPoolEx@VCTextureAnimationCCWDecorator@NEff'
	DB	'ectUpdateDecorator@@@@', 00H
data$rs	ENDS
;	COMDAT ??_R4?$CDynamicPoolEx@VCTextureAnimationCCWDecorator@NEffectUpdateDecorator@@@@6B@
rdata$r	SEGMENT
??_R4?$CDynamicPoolEx@VCTextureAnimationCCWDecorator@NEffectUpdateDecorator@@@@6B@ DD 00H ; CDynamicPoolEx<NEffectUpdateDecorator::CTextureAnimationCCWDecorator>::`RTTI Complete Object Locator'
	DD	00H
	DD	00H
	DD	FLAT:??_R0?AV?$CDynamicPoolEx@VCTextureAnimationCCWDecorator@NEffectUpdateDecorator@@@@@8
	DD	FLAT:??_R3?$CDynamicPoolEx@VCTextureAnimationCCWDecorator@NEffectUpdateDecorator@@@@8
rdata$r	ENDS
;	COMDAT ??_R1A@?0A@EA@?$CDynamicPoolEx@VCTextureAnimationCWDecorator@NEffectUpdateDecorator@@@@8
rdata$r	SEGMENT
??_R1A@?0A@EA@?$CDynamicPoolEx@VCTextureAnimationCWDecorator@NEffectUpdateDecorator@@@@8 DD FLAT:??_R0?AV?$CDynamicPoolEx@VCTextureAnimationCWDecorator@NEffectUpdateDecorator@@@@@8 ; CDynamicPoolEx<NEffectUpdateDecorator::CTextureAnimationCWDecorator>::`RTTI Base Class Descriptor at (0,-1,0,64)'
	DD	00H
	DD	00H
	DD	0ffffffffH
	DD	00H
	DD	040H
	DD	FLAT:??_R3?$CDynamicPoolEx@VCTextureAnimationCWDecorator@NEffectUpdateDecorator@@@@8
rdata$r	ENDS
;	COMDAT ??_R2?$CDynamicPoolEx@VCTextureAnimationCWDecorator@NEffectUpdateDecorator@@@@8
rdata$r	SEGMENT
??_R2?$CDynamicPoolEx@VCTextureAnimationCWDecorator@NEffectUpdateDecorator@@@@8 DD FLAT:??_R1A@?0A@EA@?$CDynamicPoolEx@VCTextureAnimationCWDecorator@NEffectUpdateDecorator@@@@8 ; CDynamicPoolEx<NEffectUpdateDecorator::CTextureAnimationCWDecorator>::`RTTI Base Class Array'
rdata$r	ENDS
;	COMDAT ??_R3?$CDynamicPoolEx@VCTextureAnimationCWDecorator@NEffectUpdateDecorator@@@@8
rdata$r	SEGMENT
??_R3?$CDynamicPoolEx@VCTextureAnimationCWDecorator@NEffectUpdateDecorator@@@@8 DD 00H ; CDynamicPoolEx<NEffectUpdateDecorator::CTextureAnimationCWDecorator>::`RTTI Class Hierarchy Descriptor'
	DD	00H
	DD	01H
	DD	FLAT:??_R2?$CDynamicPoolEx@VCTextureAnimationCWDecorator@NEffectUpdateDecorator@@@@8
rdata$r	ENDS
;	COMDAT ??_R0?AV?$CDynamicPoolEx@VCTextureAnimationCWDecorator@NEffectUpdateDecorator@@@@@8
data$rs	SEGMENT
??_R0?AV?$CDynamicPoolEx@VCTextureAnimationCWDecorator@NEffectUpdateDecorator@@@@@8 DD FLAT:??_7type_info@@6B@ ; CDynamicPoolEx<NEffectUpdateDecorator::CTextureAnimationCWDecorator> `RTTI Type Descriptor'
	DD	00H
	DB	'.?AV?$CDynamicPoolEx@VCTextureAnimationCWDecorator@NEffe'
	DB	'ctUpdateDecorator@@@@', 00H
data$rs	ENDS
;	COMDAT ??_R4?$CDynamicPoolEx@VCTextureAnimationCWDecorator@NEffectUpdateDecorator@@@@6B@
rdata$r	SEGMENT
??_R4?$CDynamicPoolEx@VCTextureAnimationCWDecorator@NEffectUpdateDecorator@@@@6B@ DD 00H ; CDynamicPoolEx<NEffectUpdateDecorator::CTextureAnimationCWDecorator>::`RTTI Complete Object Locator'
	DD	00H
	DD	00H
	DD	FLAT:??_R0?AV?$CDynamicPoolEx@VCTextureAnimationCWDecorator@NEffectUpdateDecorator@@@@@8
	DD	FLAT:??_R3?$CDynamicPoolEx@VCTextureAnimationCWDecorator@NEffectUpdateDecorator@@@@8
rdata$r	ENDS
;	COMDAT ??_R1A@?0A@EA@?$CDynamicPoolEx@VCNullDecorator@NEffectUpdateDecorator@@@@8
rdata$r	SEGMENT
??_R1A@?0A@EA@?$CDynamicPoolEx@VCNullDecorator@NEffectUpdateDecorator@@@@8 DD FLAT:??_R0?AV?$CDynamicPoolEx@VCNullDecorator@NEffectUpdateDecorator@@@@@8 ; CDynamicPoolEx<NEffectUpdateDecorator::CNullDecorator>::`RTTI Base Class Descriptor at (0,-1,0,64)'
	DD	00H
	DD	00H
	DD	0ffffffffH
	DD	00H
	DD	040H
	DD	FLAT:??_R3?$CDynamicPoolEx@VCNullDecorator@NEffectUpdateDecorator@@@@8
rdata$r	ENDS
;	COMDAT ??_R2?$CDynamicPoolEx@VCNullDecorator@NEffectUpdateDecorator@@@@8
rdata$r	SEGMENT
??_R2?$CDynamicPoolEx@VCNullDecorator@NEffectUpdateDecorator@@@@8 DD FLAT:??_R1A@?0A@EA@?$CDynamicPoolEx@VCNullDecorator@NEffectUpdateDecorator@@@@8 ; CDynamicPoolEx<NEffectUpdateDecorator::CNullDecorator>::`RTTI Base Class Array'
rdata$r	ENDS
;	COMDAT ??_R3?$CDynamicPoolEx@VCNullDecorator@NEffectUpdateDecorator@@@@8
rdata$r	SEGMENT
??_R3?$CDynamicPoolEx@VCNullDecorator@NEffectUpdateDecorator@@@@8 DD 00H ; CDynamicPoolEx<NEffectUpdateDecorator::CNullDecorator>::`RTTI Class Hierarchy Descriptor'
	DD	00H
	DD	01H
	DD	FLAT:??_R2?$CDynamicPoolEx@VCNullDecorator@NEffectUpdateDecorator@@@@8
rdata$r	ENDS
;	COMDAT ??_R0?AV?$CDynamicPoolEx@VCNullDecorator@NEffectUpdateDecorator@@@@@8
data$rs	SEGMENT
??_R0?AV?$CDynamicPoolEx@VCNullDecorator@NEffectUpdateDecorator@@@@@8 DD FLAT:??_7type_info@@6B@ ; CDynamicPoolEx<NEffectUpdateDecorator::CNullDecorator> `RTTI Type Descriptor'
	DD	00H
	DB	'.?AV?$CDynamicPoolEx@VCNullDecorator@NEffectUpdateDecora'
	DB	'tor@@@@', 00H
data$rs	ENDS
;	COMDAT ??_R4?$CDynamicPoolEx@VCNullDecorator@NEffectUpdateDecorator@@@@6B@
rdata$r	SEGMENT
??_R4?$CDynamicPoolEx@VCNullDecorator@NEffectUpdateDecorator@@@@6B@ DD 00H ; CDynamicPoolEx<NEffectUpdateDecorator::CNullDecorator>::`RTTI Complete Object Locator'
	DD	00H
	DD	00H
	DD	FLAT:??_R0?AV?$CDynamicPoolEx@VCNullDecorator@NEffectUpdateDecorator@@@@@8
	DD	FLAT:??_R3?$CDynamicPoolEx@VCNullDecorator@NEffectUpdateDecorator@@@@8
rdata$r	ENDS
;	COMDAT ??_R1A@?0A@EA@?$CDynamicPoolEx@VCHeaderDecorator@NEffectUpdateDecorator@@@@8
rdata$r	SEGMENT
??_R1A@?0A@EA@?$CDynamicPoolEx@VCHeaderDecorator@NEffectUpdateDecorator@@@@8 DD FLAT:??_R0?AV?$CDynamicPoolEx@VCHeaderDecorator@NEffectUpdateDecorator@@@@@8 ; CDynamicPoolEx<NEffectUpdateDecorator::CHeaderDecorator>::`RTTI Base Class Descriptor at (0,-1,0,64)'
	DD	00H
	DD	00H
	DD	0ffffffffH
	DD	00H
	DD	040H
	DD	FLAT:??_R3?$CDynamicPoolEx@VCHeaderDecorator@NEffectUpdateDecorator@@@@8
rdata$r	ENDS
;	COMDAT ??_R2?$CDynamicPoolEx@VCHeaderDecorator@NEffectUpdateDecorator@@@@8
rdata$r	SEGMENT
??_R2?$CDynamicPoolEx@VCHeaderDecorator@NEffectUpdateDecorator@@@@8 DD FLAT:??_R1A@?0A@EA@?$CDynamicPoolEx@VCHeaderDecorator@NEffectUpdateDecorator@@@@8 ; CDynamicPoolEx<NEffectUpdateDecorator::CHeaderDecorator>::`RTTI Base Class Array'
rdata$r	ENDS
;	COMDAT ??_R3?$CDynamicPoolEx@VCHeaderDecorator@NEffectUpdateDecorator@@@@8
rdata$r	SEGMENT
??_R3?$CDynamicPoolEx@VCHeaderDecorator@NEffectUpdateDecorator@@@@8 DD 00H ; CDynamicPoolEx<NEffectUpdateDecorator::CHeaderDecorator>::`RTTI Class Hierarchy Descriptor'
	DD	00H
	DD	01H
	DD	FLAT:??_R2?$CDynamicPoolEx@VCHeaderDecorator@NEffectUpdateDecorator@@@@8
rdata$r	ENDS
;	COMDAT ??_R0?AV?$CDynamicPoolEx@VCHeaderDecorator@NEffectUpdateDecorator@@@@@8
data$rs	SEGMENT
??_R0?AV?$CDynamicPoolEx@VCHeaderDecorator@NEffectUpdateDecorator@@@@@8 DD FLAT:??_7type_info@@6B@ ; CDynamicPoolEx<NEffectUpdateDecorator::CHeaderDecorator> `RTTI Type Descriptor'
	DD	00H
	DB	'.?AV?$CDynamicPoolEx@VCHeaderDecorator@NEffectUpdateDeco'
	DB	'rator@@@@', 00H
data$rs	ENDS
;	COMDAT ??_R4?$CDynamicPoolEx@VCHeaderDecorator@NEffectUpdateDecorator@@@@6B@
rdata$r	SEGMENT
??_R4?$CDynamicPoolEx@VCHeaderDecorator@NEffectUpdateDecorator@@@@6B@ DD 00H ; CDynamicPoolEx<NEffectUpdateDecorator::CHeaderDecorator>::`RTTI Complete Object Locator'
	DD	00H
	DD	00H
	DD	FLAT:??_R0?AV?$CDynamicPoolEx@VCHeaderDecorator@NEffectUpdateDecorator@@@@@8
	DD	FLAT:??_R3?$CDynamicPoolEx@VCHeaderDecorator@NEffectUpdateDecorator@@@@8
rdata$r	ENDS
;	COMDAT ??_7?$CDynamicPoolEx@VCHeaderDecorator@NEffectUpdateDecorator@@@@6B@
CONST	SEGMENT
??_7?$CDynamicPoolEx@VCHeaderDecorator@NEffectUpdateDecorator@@@@6B@ DD FLAT:??_R4?$CDynamicPoolEx@VCHeaderDecorator@NEffectUpdateDecorator@@@@6B@ ; CDynamicPoolEx<NEffectUpdateDecorator::CHeaderDecorator>::`vftable'
	DD	FLAT:??_E?$CDynamicPoolEx@VCHeaderDecorator@NEffectUpdateDecorator@@@@UAEPAXI@Z
CONST	ENDS
;	COMDAT ??_7?$CDynamicPoolEx@VCNullDecorator@NEffectUpdateDecorator@@@@6B@
CONST	SEGMENT
??_7?$CDynamicPoolEx@VCNullDecorator@NEffectUpdateDecorator@@@@6B@ DD FLAT:??_R4?$CDynamicPoolEx@VCNullDecorator@NEffectUpdateDecorator@@@@6B@ ; CDynamicPoolEx<NEffectUpdateDecorator::CNullDecorator>::`vftable'
	DD	FLAT:??_E?$CDynamicPoolEx@VCNullDecorator@NEffectUpdateDecorator@@@@UAEPAXI@Z
CONST	ENDS
;	COMDAT ??_7?$CDynamicPoolEx@VCTextureAnimationCWDecorator@NEffectUpdateDecorator@@@@6B@
CONST	SEGMENT
??_7?$CDynamicPoolEx@VCTextureAnimationCWDecorator@NEffectUpdateDecorator@@@@6B@ DD FLAT:??_R4?$CDynamicPoolEx@VCTextureAnimationCWDecorator@NEffectUpdateDecorator@@@@6B@ ; CDynamicPoolEx<NEffectUpdateDecorator::CTextureAnimationCWDecorator>::`vftable'
	DD	FLAT:??_E?$CDynamicPoolEx@VCTextureAnimationCWDecorator@NEffectUpdateDecorator@@@@UAEPAXI@Z
CONST	ENDS
;	COMDAT ??_7?$CDynamicPoolEx@VCTextureAnimationCCWDecorator@NEffectUpdateDecorator@@@@6B@
CONST	SEGMENT
??_7?$CDynamicPoolEx@VCTextureAnimationCCWDecorator@NEffectUpdateDecorator@@@@6B@ DD FLAT:??_R4?$CDynamicPoolEx@VCTextureAnimationCCWDecorator@NEffectUpdateDecorator@@@@6B@ ; CDynamicPoolEx<NEffectUpdateDecorator::CTextureAnimationCCWDecorator>::`vftable'
	DD	FLAT:??_E?$CDynamicPoolEx@VCTextureAnimationCCWDecorator@NEffectUpdateDecorator@@@@UAEPAXI@Z
CONST	ENDS
;	COMDAT ??_7?$CDynamicPoolEx@VCTextureAnimationRandomDecorator@NEffectUpdateDecorator@@@@6B@
CONST	SEGMENT
??_7?$CDynamicPoolEx@VCTextureAnimationRandomDecorator@NEffectUpdateDecorator@@@@6B@ DD FLAT:??_R4?$CDynamicPoolEx@VCTextureAnimationRandomDecorator@NEffectUpdateDecorator@@@@6B@ ; CDynamicPoolEx<NEffectUpdateDecorator::CTextureAnimationRandomDecorator>::`vftable'
	DD	FLAT:??_E?$CDynamicPoolEx@VCTextureAnimationRandomDecorator@NEffectUpdateDecorator@@@@UAEPAXI@Z
CONST	ENDS
PUBLIC	??_H@YGXPAXIIP6EPAX0@Z@Z			; `vector constructor iterator'
PUBLIC	?__empty_global_delete@@YAXPAX@Z		; __empty_global_delete
PUBLIC	?__empty_global_delete@@YAXPAXI@Z		; __empty_global_delete
PUBLIC	??$_Deallocate@$07$0A@@std@@YAXPAXI@Z		; std::_Deallocate<8,0>
PUBLIC	?ClickSkillSlot@CPythonPlayer@@QAEXK@Z		; CPythonPlayer::ClickSkillSlot
PUBLIC	?ChangeCurrentSkillNumberOnly@CPythonPlayer@@QAEXK@Z ; CPythonPlayer::ChangeCurrentSkillNumberOnly
PUBLIC	?FindSkillSlotIndexBySkillIndex@CPythonPlayer@@QAE_NKPAK@Z ; CPythonPlayer::FindSkillSlotIndexBySkillIndex
PUBLIC	?UseGuildSkill@CPythonPlayer@@QAEXK@Z		; CPythonPlayer::UseGuildSkill
PUBLIC	?SetAffect@CPythonPlayer@@QAEXI@Z		; CPythonPlayer::SetAffect
PUBLIC	?ResetAffect@CPythonPlayer@@QAEXI@Z		; CPythonPlayer::ResetAffect
PUBLIC	?ClearAffects@CPythonPlayer@@QAEXXZ		; CPythonPlayer::ClearAffects
PUBLIC	?SetComboSkillFlag@CPythonPlayer@@UAEXH@Z	; CPythonPlayer::SetComboSkillFlag
PUBLIC	?__CanUseSkill@CPythonPlayer@@IAE_NXZ		; CPythonPlayer::__CanUseSkill
PUBLIC	?__CheckSkillUsable@CPythonPlayer@@IAE_NK@Z	; CPythonPlayer::__CheckSkillUsable
PUBLIC	?__UseCurrentSkill@CPythonPlayer@@IAEXXZ	; CPythonPlayer::__UseCurrentSkill
PUBLIC	?__UseSkill@CPythonPlayer@@IAE_NK@Z		; CPythonPlayer::__UseSkill
PUBLIC	?__CheckSpecialSkill@CPythonPlayer@@IAE_NK@Z	; CPythonPlayer::__CheckSpecialSkill
PUBLIC	?__CheckRestSkillCoolTime@CPythonPlayer@@IAE_NK@Z ; CPythonPlayer::__CheckRestSkillCoolTime
PUBLIC	?__CheckShortLife@CPythonPlayer@@IAE_NAAUSSkillInstance@1@AAUSSkillData@CPythonSkill@@@Z ; CPythonPlayer::__CheckShortLife
PUBLIC	?__CheckShortMana@CPythonPlayer@@IAE_NAAUSSkillInstance@1@AAUSSkillData@CPythonSkill@@@Z ; CPythonPlayer::__CheckShortMana
PUBLIC	?__CheckShortArrow@CPythonPlayer@@IAE_NAAUSSkillInstance@1@AAUSSkillData@CPythonSkill@@@Z ; CPythonPlayer::__CheckShortArrow
PUBLIC	?__CheckDashAffect@CPythonPlayer@@IAE_NAAVCInstanceBase@@@Z ; CPythonPlayer::__CheckDashAffect
PUBLIC	?__SendUseSkill@CPythonPlayer@@IAEXKK@Z		; CPythonPlayer::__SendUseSkill
PUBLIC	?__RunCoolTime@CPythonPlayer@@IAEXK@Z		; CPythonPlayer::__RunCoolTime
PUBLIC	?__GetSkillType@CPythonPlayer@@IAEEK@Z		; CPythonPlayer::__GetSkillType
PUBLIC	?__GetSkillTargetRange@CPythonPlayer@@IAEKAAUSSkillData@CPythonSkill@@@Z ; CPythonPlayer::__GetSkillTargetRange
PUBLIC	?__ProcessEnemySkillTargetRange@CPythonPlayer@@IAE_NAAVCInstanceBase@@0AAUSSkillData@CPythonSkill@@K@Z ; CPythonPlayer::__ProcessEnemySkillTargetRange
PUBLIC	?__HasEnoughArrow@CPythonPlayer@@IAE_NXZ	; CPythonPlayer::__HasEnoughArrow
PUBLIC	?__HasItem@CPythonPlayer@@IAE_NK@Z		; CPythonPlayer::__HasItem
PUBLIC	??1?$vector@PAVCInstanceBase@@V?$allocator@PAVCInstanceBase@@@std@@@std@@QAE@XZ ; std::vector<CInstanceBase *,std::allocator<CInstanceBase *> >::~vector<CInstanceBase *,std::allocator<CInstanceBase *> >
PUBLIC	??1?$CDynamicPoolEx@VCRotationDecorator@NEffectUpdateDecorator@@@@UAE@XZ ; CDynamicPoolEx<NEffectUpdateDecorator::CRotationDecorator>::~CDynamicPoolEx<NEffectUpdateDecorator::CRotationDecorator>
PUBLIC	?Delete@?$CDynamicPoolEx@VCRotationDecorator@NEffectUpdateDecorator@@@@KAXPAVCRotationDecorator@NEffectUpdateDecorator@@@Z ; CDynamicPoolEx<NEffectUpdateDecorator::CRotationDecorator>::Delete
PUBLIC	??1?$CDynamicPoolEx@VCGravityDecorator@NEffectUpdateDecorator@@@@UAE@XZ ; CDynamicPoolEx<NEffectUpdateDecorator::CGravityDecorator>::~CDynamicPoolEx<NEffectUpdateDecorator::CGravityDecorator>
PUBLIC	?Delete@?$CDynamicPoolEx@VCGravityDecorator@NEffectUpdateDecorator@@@@KAXPAVCGravityDecorator@NEffectUpdateDecorator@@@Z ; CDynamicPoolEx<NEffectUpdateDecorator::CGravityDecorator>::Delete
PUBLIC	??1?$CDynamicPoolEx@VCAirResistanceDecorator@NEffectUpdateDecorator@@@@UAE@XZ ; CDynamicPoolEx<NEffectUpdateDecorator::CAirResistanceDecorator>::~CDynamicPoolEx<NEffectUpdateDecorator::CAirResistanceDecorator>
PUBLIC	?Delete@?$CDynamicPoolEx@VCAirResistanceDecorator@NEffectUpdateDecorator@@@@KAXPAVCAirResistanceDecorator@NEffectUpdateDecorator@@@Z ; CDynamicPoolEx<NEffectUpdateDecorator::CAirResistanceDecorator>::Delete
PUBLIC	??1?$CDynamicPoolEx@VCTextureAnimationRandomDecorator@NEffectUpdateDecorator@@@@UAE@XZ ; CDynamicPoolEx<NEffectUpdateDecorator::CTextureAnimationRandomDecorator>::~CDynamicPoolEx<NEffectUpdateDecorator::CTextureAnimationRandomDecorator>
PUBLIC	?Delete@?$CDynamicPoolEx@VCTextureAnimationRandomDecorator@NEffectUpdateDecorator@@@@KAXPAVCTextureAnimationRandomDecorator@NEffectUpdateDecorator@@@Z ; CDynamicPoolEx<NEffectUpdateDecorator::CTextureAnimationRandomDecorator>::Delete
PUBLIC	??1?$CDynamicPoolEx@VCTextureAnimationCCWDecorator@NEffectUpdateDecorator@@@@UAE@XZ ; CDynamicPoolEx<NEffectUpdateDecorator::CTextureAnimationCCWDecorator>::~CDynamicPoolEx<NEffectUpdateDecorator::CTextureAnimationCCWDecorator>
PUBLIC	?Delete@?$CDynamicPoolEx@VCTextureAnimationCCWDecorator@NEffectUpdateDecorator@@@@KAXPAVCTextureAnimationCCWDecorator@NEffectUpdateDecorator@@@Z ; CDynamicPoolEx<NEffectUpdateDecorator::CTextureAnimationCCWDecorator>::Delete
PUBLIC	??1?$CDynamicPoolEx@VCTextureAnimationCWDecorator@NEffectUpdateDecorator@@@@UAE@XZ ; CDynamicPoolEx<NEffectUpdateDecorator::CTextureAnimationCWDecorator>::~CDynamicPoolEx<NEffectUpdateDecorator::CTextureAnimationCWDecorator>
PUBLIC	?Delete@?$CDynamicPoolEx@VCTextureAnimationCWDecorator@NEffectUpdateDecorator@@@@KAXPAVCTextureAnimationCWDecorator@NEffectUpdateDecorator@@@Z ; CDynamicPoolEx<NEffectUpdateDecorator::CTextureAnimationCWDecorator>::Delete
PUBLIC	??1?$CDynamicPoolEx@VCNullDecorator@NEffectUpdateDecorator@@@@UAE@XZ ; CDynamicPoolEx<NEffectUpdateDecorator::CNullDecorator>::~CDynamicPoolEx<NEffectUpdateDecorator::CNullDecorator>
PUBLIC	?Delete@?$CDynamicPoolEx@VCNullDecorator@NEffectUpdateDecorator@@@@KAXPAVCNullDecorator@NEffectUpdateDecorator@@@Z ; CDynamicPoolEx<NEffectUpdateDecorator::CNullDecorator>::Delete
PUBLIC	??1?$CDynamicPoolEx@VCHeaderDecorator@NEffectUpdateDecorator@@@@UAE@XZ ; CDynamicPoolEx<NEffectUpdateDecorator::CHeaderDecorator>::~CDynamicPoolEx<NEffectUpdateDecorator::CHeaderDecorator>
PUBLIC	?Delete@?$CDynamicPoolEx@VCHeaderDecorator@NEffectUpdateDecorator@@@@KAXPAVCHeaderDecorator@NEffectUpdateDecorator@@@Z ; CDynamicPoolEx<NEffectUpdateDecorator::CHeaderDecorator>::Delete
PUBLIC	??$_Destroy_range@V?$allocator@PAVCInstanceBase@@@std@@@std@@YAXPAPAVCInstanceBase@@QAPAV1@AAV?$allocator@PAVCInstanceBase@@@0@@Z ; std::_Destroy_range<std::allocator<CInstanceBase *> >
PUBLIC	??$_Destroy_range@V?$allocator@PAVCHeaderDecorator@NEffectUpdateDecorator@@@std@@@std@@YAXPAPAVCHeaderDecorator@NEffectUpdateDecorator@@QAPAV12@AAV?$allocator@PAVCHeaderDecorator@NEffectUpdateDecorator@@@0@@Z ; std::_Destroy_range<std::allocator<NEffectUpdateDecorator::CHeaderDecorator *> >
PUBLIC	??$_Destroy_range@V?$allocator@PAVCNullDecorator@NEffectUpdateDecorator@@@std@@@std@@YAXPAPAVCNullDecorator@NEffectUpdateDecorator@@QAPAV12@AAV?$allocator@PAVCNullDecorator@NEffectUpdateDecorator@@@0@@Z ; std::_Destroy_range<std::allocator<NEffectUpdateDecorator::CNullDecorator *> >
PUBLIC	??$_Destroy_range@V?$allocator@PAVCTextureAnimationCWDecorator@NEffectUpdateDecorator@@@std@@@std@@YAXPAPAVCTextureAnimationCWDecorator@NEffectUpdateDecorator@@QAPAV12@AAV?$allocator@PAVCTextureAnimationCWDecorator@NEffectUpdateDecorator@@@0@@Z ; std::_Destroy_range<std::allocator<NEffectUpdateDecorator::CTextureAnimationCWDecorator *> >
PUBLIC	??$_Destroy_range@V?$allocator@PAVCTextureAnimationCCWDecorator@NEffectUpdateDecorator@@@std@@@std@@YAXPAPAVCTextureAnimationCCWDecorator@NEffectUpdateDecorator@@QAPAV12@AAV?$allocator@PAVCTextureAnimationCCWDecorator@NEffectUpdateDecorator@@@0@@Z ; std::_Destroy_range<std::allocator<NEffectUpdateDecorator::CTextureAnimationCCWDecorator *> >
PUBLIC	??$_Destroy_range@V?$allocator@PAVCTextureAnimationRandomDecorator@NEffectUpdateDecorator@@@std@@@std@@YAXPAPAVCTextureAnimationRandomDecorator@NEffectUpdateDecorator@@QAPAV12@AAV?$allocator@PAVCTextureAnimationRandomDecorator@NEffectUpdateDecorator@@@0@@Z ; std::_Destroy_range<std::allocator<NEffectUpdateDecorator::CTextureAnimationRandomDecorator *> >
PUBLIC	??$_Destroy_range@V?$allocator@PAVCAirResistanceDecorator@NEffectUpdateDecorator@@@std@@@std@@YAXPAPAVCAirResistanceDecorator@NEffectUpdateDecorator@@QAPAV12@AAV?$allocator@PAVCAirResistanceDecorator@NEffectUpdateDecorator@@@0@@Z ; std::_Destroy_range<std::allocator<NEffectUpdateDecorator::CAirResistanceDecorator *> >
PUBLIC	??$_Destroy_range@V?$allocator@PAVCGravityDecorator@NEffectUpdateDecorator@@@std@@@std@@YAXPAPAVCGravityDecorator@NEffectUpdateDecorator@@QAPAV12@AAV?$allocator@PAVCGravityDecorator@NEffectUpdateDecorator@@@0@@Z ; std::_Destroy_range<std::allocator<NEffectUpdateDecorator::CGravityDecorator *> >
PUBLIC	??$_Destroy_range@V?$allocator@PAVCRotationDecorator@NEffectUpdateDecorator@@@std@@@std@@YAXPAPAVCRotationDecorator@NEffectUpdateDecorator@@QAPAV12@AAV?$allocator@PAVCRotationDecorator@NEffectUpdateDecorator@@@0@@Z ; std::_Destroy_range<std::allocator<NEffectUpdateDecorator::CRotationDecorator *> >
PUBLIC	?ms_singleton@?$CSingleton@VCTimer@@@@0PAVCTimer@@A ; CSingleton<CTimer>::ms_singleton
PUBLIC	?ms_singleton@?$CSingleton@VIBackground@@@@0PAVIBackground@@A ; CSingleton<IBackground>::ms_singleton
PUBLIC	?ms_singleton@?$CSingleton@VCPythonSkill@@@@0PAVCPythonSkill@@A ; CSingleton<CPythonSkill>::ms_singleton
PUBLIC	?ms_singleton@?$CSingleton@VCPythonNetworkStream@@@@0PAVCPythonNetworkStream@@A ; CSingleton<CPythonNetworkStream>::ms_singleton
PUBLIC	?ms_kPool@?$CPooledObject@VCHeaderDecorator@NEffectUpdateDecorator@@@@1V?$CDynamicPoolEx@VCHeaderDecorator@NEffectUpdateDecorator@@@@A ; CPooledObject<NEffectUpdateDecorator::CHeaderDecorator>::ms_kPool
PUBLIC	?ms_kPool@?$CPooledObject@VCNullDecorator@NEffectUpdateDecorator@@@@1V?$CDynamicPoolEx@VCNullDecorator@NEffectUpdateDecorator@@@@A ; CPooledObject<NEffectUpdateDecorator::CNullDecorator>::ms_kPool
PUBLIC	?ms_kPool@?$CPooledObject@VCTextureAnimationCWDecorator@NEffectUpdateDecorator@@@@1V?$CDynamicPoolEx@VCTextureAnimationCWDecorator@NEffectUpdateDecorator@@@@A ; CPooledObject<NEffectUpdateDecorator::CTextureAnimationCWDecorator>::ms_kPool
PUBLIC	?ms_kPool@?$CPooledObject@VCTextureAnimationCCWDecorator@NEffectUpdateDecorator@@@@1V?$CDynamicPoolEx@VCTextureAnimationCCWDecorator@NEffectUpdateDecorator@@@@A ; CPooledObject<NEffectUpdateDecorator::CTextureAnimationCCWDecorator>::ms_kPool
PUBLIC	?ms_kPool@?$CPooledObject@VCTextureAnimationRandomDecorator@NEffectUpdateDecorator@@@@1V?$CDynamicPoolEx@VCTextureAnimationRandomDecorator@NEffectUpdateDecorator@@@@A ; CPooledObject<NEffectUpdateDecorator::CTextureAnimationRandomDecorator>::ms_kPool
PUBLIC	?ms_kPool@?$CPooledObject@VCAirResistanceDecorator@NEffectUpdateDecorator@@@@1V?$CDynamicPoolEx@VCAirResistanceDecorator@NEffectUpdateDecorator@@@@A ; CPooledObject<NEffectUpdateDecorator::CAirResistanceDecorator>::ms_kPool
PUBLIC	?ms_kPool@?$CPooledObject@VCGravityDecorator@NEffectUpdateDecorator@@@@1V?$CDynamicPoolEx@VCGravityDecorator@NEffectUpdateDecorator@@@@A ; CPooledObject<NEffectUpdateDecorator::CGravityDecorator>::ms_kPool
PUBLIC	?ms_kPool@?$CPooledObject@VCRotationDecorator@NEffectUpdateDecorator@@@@1V?$CDynamicPoolEx@VCRotationDecorator@NEffectUpdateDecorator@@@@A ; CPooledObject<NEffectUpdateDecorator::CRotationDecorator>::ms_kPool
PUBLIC	?ms_singleton@?$CSingleton@VCPythonChat@@@@0PAVCPythonChat@@A ; CSingleton<CPythonChat>::ms_singleton
PUBLIC	?ms_singleton@?$CSingleton@VCPythonGuild@@@@0PAVCPythonGuild@@A ; CSingleton<CPythonGuild>::ms_singleton
PUBLIC	?ms_singleton@?$CSingleton@VCItemManager@@@@0PAVCItemManager@@A ; CSingleton<CItemManager>::ms_singleton
PUBLIC	??_C@_02HCKGKOFO@?$CI?$CJ@			; `string'
PUBLIC	??_C@_0N@OADAMGHE@ClearAffects@			; `string'
PUBLIC	??_C@_03LIHNMIHG@?$CIi?$CJ@			; `string'
PUBLIC	??_C@_09FHCBCPJO@SetAffect@			; `string'
PUBLIC	??_C@_0M@HBOAHMLO@ResetAffect@			; `string'
PUBLIC	??_C@_0M@HCIEKIGP@NEED_TARGET@			; `string'
PUBLIC	??_C@_04JMLDJNEM@?$CIis?$CJ@			; `string'
PUBLIC	??_C@_0BB@BOHMBBJL@OnCannotUseSkill@		; `string'
PUBLIC	??_C@_0BD@IOEPNDLO@ChangeCurrentSkill@		; `string'
PUBLIC	??_C@_0BA@MEPOIIPE@NOT_HORSE_SKILL@		; `string'
PUBLIC	??_C@_0N@DJBFACMO@HAVE_TO_RIDE@			; `string'
PUBLIC	??_C@_07OAOBINCH@IN_SAFE@			; `string'
PUBLIC	??_C@_0BC@DDKDAKLO@NEED_EMPTY_BOTTLE@		; `string'
PUBLIC	??_C@_0BD@HPCMPHGF@NEED_POISON_BOTTLE@		; `string'
PUBLIC	??_C@_0BD@LIIMHBCN@REMOVE_FISHING_ROD@		; `string'
PUBLIC	??_C@_0O@PFLGBNMN@NOT_YET_LEARN@		; `string'
PUBLIC	??_C@_0BF@KPLOMIJE@NOT_MATCHABLE_WEAPON@	; `string'
PUBLIC	??_C@_0O@CCJDKKCC@WAIT_COOLTIME@		; `string'
PUBLIC	??_C@_0O@CILBJNOC@NOT_ENOUGH_HP@		; `string'
PUBLIC	??_C@_0O@DIMCNBHD@NOT_ENOUGH_SP@		; `string'
PUBLIC	??_C@_0DF@OHCKPFBO@?$CB?$CB?$CB?5Find?5strange?5game?5data?4?5Ple@ ; `string'
PUBLIC	??_C@_0BA@CFBPJACC@CANNOT_APPROACH@		; `string'
PUBLIC	??_C@_0EP@OENNGPFB@CPythonPlayer?3?3__UseSkill?$CIdwSlo@ ; `string'
PUBLIC	??_C@_0EB@JKMJGFLB@CPythonPlayer?3?3__UseSkill?$CIdwSlo@ ; `string'
PUBLIC	??_C@_0EC@MMFCNDJC@CPythonPlayer?3?3__UseSkill?$CIdwSlo@ ; `string'
PUBLIC	??_C@_0BA@GMGJKDGM@CANNOT_USE_SELF@		; `string'
PUBLIC	??_C@_0FC@NMOECDOK@?5?$FLALERT?$FN?5?$LF?$LP?$LH?a?$LP?$KB?$LA?T?5?$LL?g?$LP?k?G?O?$LE?B?5?$LB?b?$LM?z@ ; `string'
PUBLIC	??_C@_0BC@CKDFNGK@ONLY_FOR_ALLIANCE@		; `string'
PUBLIC	??_C@_0CB@HEDIGIHC@CANNOT_ATTACK_ENEMY_IN_SAFE_ARE@ ; `string'
PUBLIC	??_C@_0O@BIOLCACO@CANNOT_ATTACK@		; `string'
PUBLIC	??_C@_0DA@NPBLPNPC@?5?$FLALERT?$FN?5?E?$LI?$LA?Y?$MA?L?5?$LO?x?$LO?n?$LM?$KN?5?G?C?$LH?$LJ?$MA?L?$LO?n@ ; `string'
PUBLIC	??_C@_0BA@FPMNLALM@ONLY_FOR_CORPSE@		; `string'
PUBLIC	??_C@_0DN@DLLIDDMA@CPythonPlayer?3?3__UseSkill?$CI?$CFd?$CJ?5?9@ ; `string'
PUBLIC	??_C@_0EB@LKBFGOEE@CPythonPlayer?3?3__UseSkill?$CI?$CFd?$CJ?5?9@ ; `string'
PUBLIC	??_C@_0DP@EKGIGFIO@CPythonPlayer?3?3__SendUseSkill?$CId@ ; `string'
PUBLIC	??_C@_04IGFOPMNH@?$CIif?$CJ@			; `string'
PUBLIC	??_C@_0BB@GJACMMFG@RunUseSkillEvent@		; `string'
PUBLIC	??_C@_0M@FBIHMJDM@EMPTY_ARROW@			; `string'
PUBLIC	??_C@_0BC@FKINMGLI@OnCannotShotError@		; `string'
PUBLIC	??_C@_0FH@CAACOELN@CPythonPlayer?3?3UseGuildSkill?$CIdw@ ; `string'
PUBLIC	??_C@_0BD@OHHCPGPG@ONLY_FOR_GUILD_WAR@		; `string'
PUBLIC	??_C@_0EE@GICPADML@CPythonPlayer?3?3UseGuildSkill?$CI?$CFd@ ; `string'
PUBLIC	??_C@_0EI@OMJBNOHB@CPythonPlayer?3?3SetComboSkillFla@ ; `string'
PUBLIC	??_C@_0FM@DHHFNKGI@CPythonPlayer?3?3SetComboSkillFla@ ; `string'
PUBLIC	??_C@_0BC@ENEHNNJB@EQUIP_FISHING_ROD@		; `string'
PUBLIC	__real@42c80000
PUBLIC	__real@43480000
PUBLIC	__xmm@41f00000000000000000000000000000
PUBLIC	__xmm@80000000800000008000000080000000
EXTRN	??3@YAXPAX@Z:PROC				; operator delete
EXTRN	??3@YAXPAXI@Z:PROC				; operator delete
EXTRN	_atexit:PROC
EXTRN	__invalid_parameter_noinfo_noreturn:PROC
EXTRN	?Tracenf@@YAXPBDZZ:PROC				; Tracenf
EXTRN	?Tracef@@YAXPBDZZ:PROC				; Tracef
EXTRN	?TraceError@@YAXPBDZZ:PROC			; TraceError
EXTRN	?MIN@@YAHHH@Z:PROC				; MIN
EXTRN	__imp__Py_BuildValue:PROC
EXTRN	?PyCallClassMemberFunc@@YA_NPAU_object@@PBD0@Z:PROC ; PyCallClassMemberFunc
EXTRN	?GetCurrentSecond@CTimer@@QAEMXZ:PROC		; CTimer::GetCurrentSecond
EXTRN	?GetType@CItemData@@QBEEXZ:PROC			; CItemData::GetType
EXTRN	?GetSubType@CItemData@@QBEEXZ:PROC		; CItemData::GetSubType
EXTRN	?GetTargetRange@SSkillData@CPythonSkill@@QBEKXZ:PROC ; CPythonSkill::SSkillData::GetTargetRange
EXTRN	?CanChangeDirection@SSkillData@CPythonSkill@@QAEHXZ:PROC ; CPythonSkill::SSkillData::CanChangeDirection
EXTRN	?IsFanRange@SSkillData@CPythonSkill@@QAEHXZ:PROC ; CPythonSkill::SSkillData::IsFanRange
EXTRN	?IsCircleRange@SSkillData@CPythonSkill@@QAEHXZ:PROC ; CPythonSkill::SSkillData::IsCircleRange
EXTRN	?IsAutoSearchTarget@SSkillData@CPythonSkill@@QAEHXZ:PROC ; CPythonSkill::SSkillData::IsAutoSearchTarget
EXTRN	?IsNeedTarget@SSkillData@CPythonSkill@@QAEHXZ:PROC ; CPythonSkill::SSkillData::IsNeedTarget
EXTRN	?IsNeedCorpse@SSkillData@CPythonSkill@@QAEHXZ:PROC ; CPythonSkill::SSkillData::IsNeedCorpse
EXTRN	?IsToggleSkill@SSkillData@CPythonSkill@@QAEHXZ:PROC ; CPythonSkill::SSkillData::IsToggleSkill
EXTRN	?IsUseHPSkill@SSkillData@CPythonSkill@@QAEHXZ:PROC ; CPythonSkill::SSkillData::IsUseHPSkill
EXTRN	?IsStandingSkill@SSkillData@CPythonSkill@@QAEHXZ:PROC ; CPythonSkill::SSkillData::IsStandingSkill
EXTRN	?CanUseWeaponType@SSkillData@CPythonSkill@@QAEHK@Z:PROC ; CPythonSkill::SSkillData::CanUseWeaponType
EXTRN	?IsOnlyForAlliance@SSkillData@CPythonSkill@@QAEHXZ:PROC ; CPythonSkill::SSkillData::IsOnlyForAlliance
EXTRN	?CanUseForMe@SSkillData@CPythonSkill@@QAEHXZ:PROC ; CPythonSkill::SSkillData::CanUseForMe
EXTRN	?CanUseIfNotEnough@SSkillData@CPythonSkill@@QAEHXZ:PROC ; CPythonSkill::SSkillData::CanUseIfNotEnough
EXTRN	?IsNeedEmptyBottle@SSkillData@CPythonSkill@@QAEHXZ:PROC ; CPythonSkill::SSkillData::IsNeedEmptyBottle
EXTRN	?IsNeedPoisonBottle@SSkillData@CPythonSkill@@QAEHXZ:PROC ; CPythonSkill::SSkillData::IsNeedPoisonBottle
EXTRN	?IsNeedBow@SSkillData@CPythonSkill@@QAEHXZ:PROC	; CPythonSkill::SSkillData::IsNeedBow
EXTRN	?IsAttackSkill@SSkillData@CPythonSkill@@QAEHXZ:PROC ; CPythonSkill::SSkillData::IsAttackSkill
EXTRN	?IsHorseSkill@SSkillData@CPythonSkill@@QAEHXZ:PROC ; CPythonSkill::SSkillData::IsHorseSkill
EXTRN	?IsMovingSkill@SSkillData@CPythonSkill@@QAEHXZ:PROC ; CPythonSkill::SSkillData::IsMovingSkill
EXTRN	?IsChargeSkill@SSkillData@CPythonSkill@@QAEHXZ:PROC ; CPythonSkill::SSkillData::IsChargeSkill
EXTRN	?IsOnlyForGuildWar@SSkillData@CPythonSkill@@QAEHXZ:PROC ; CPythonSkill::SSkillData::IsOnlyForGuildWar
EXTRN	?GetSkillCoolTime@SSkillData@CPythonSkill@@QAEKM@Z:PROC ; CPythonSkill::SSkillData::GetSkillCoolTime
EXTRN	?GetNeedSP@SSkillData@CPythonSkill@@QAEHM@Z:PROC ; CPythonSkill::SSkillData::GetNeedSP
EXTRN	?GetMotionLoopCount@SSkillData@CPythonSkill@@QAEKM@Z:PROC ; CPythonSkill::SSkillData::GetMotionLoopCount
EXTRN	?GetTargetCount@SSkillData@CPythonSkill@@QAEKM@Z:PROC ; CPythonSkill::SSkillData::GetTargetCount
EXTRN	?GetSkillMotionIndex@SSkillData@CPythonSkill@@QAEKH@Z:PROC ; CPythonSkill::SSkillData::GetSkillMotionIndex
EXTRN	?IsCanUseSkill@SSkillData@CPythonSkill@@QAE_NXZ:PROC ; CPythonSkill::SSkillData::IsCanUseSkill
EXTRN	?IsNoMotion@SSkillData@CPythonSkill@@QAEHXZ:PROC ; CPythonSkill::SSkillData::IsNoMotion
EXTRN	?GetType@SSkillData@CPythonSkill@@QBEEXZ:PROC	; CPythonSkill::SSkillData::GetType
EXTRN	?GetSkillData@CPythonSkill@@QAEHKPAPAUSSkillData@1@@Z:PROC ; CPythonSkill::GetSkillData
EXTRN	?IsObserverMode@CPythonPlayer@@QAE_NXZ:PROC	; CPythonPlayer::IsObserverMode
EXTRN	?NEW_Fishing@CPythonPlayer@@QAEXXZ:PROC		; CPythonPlayer::NEW_Fishing
EXTRN	?NEW_FindActorPtr@CPythonPlayer@@QAEPAVCInstanceBase@@K@Z:PROC ; CPythonPlayer::NEW_FindActorPtr
EXTRN	?GetSkillSlotIndex@CPythonPlayer@@QAE_NKPAK@Z:PROC ; CPythonPlayer::GetSkillSlotIndex
EXTRN	?GetSkillGrade@CPythonPlayer@@QAEHK@Z:PROC	; CPythonPlayer::GetSkillGrade
EXTRN	?GetSkillLevel@CPythonPlayer@@QAEHK@Z:PROC	; CPythonPlayer::GetSkillLevel
EXTRN	?IsSkillActive@CPythonPlayer@@QAEHK@Z:PROC	; CPythonPlayer::IsSkillActive
EXTRN	?AffectIndexToSkillIndex@CPythonPlayer@@QAE_NKPAK@Z:PROC ; CPythonPlayer::AffectIndexToSkillIndex
EXTRN	?IsOpenPrivateShop@CPythonPlayer@@QAE_NXZ:PROC	; CPythonPlayer::IsOpenPrivateShop
EXTRN	?__DeactivateSkillSlot@CPythonPlayer@@IAEXK@Z:PROC ; CPythonPlayer::__DeactivateSkillSlot
EXTRN	?__ActivateSkillSlot@CPythonPlayer@@IAEXK@Z:PROC ; CPythonPlayer::__ActivateSkillSlot
EXTRN	?__GetPickedActorID@CPythonPlayer@@IAE_NPAK@Z:PROC ; CPythonPlayer::__GetPickedActorID
EXTRN	?__GetPickedGroundPos@CPythonPlayer@@IAE_NPAUD3DXVECTOR3@@@Z:PROC ; CPythonPlayer::__GetPickedGroundPos
EXTRN	?__ClearReservedAction@CPythonPlayer@@IAEXXZ:PROC ; CPythonPlayer::__ClearReservedAction
EXTRN	?__ReserveUseSkill@CPythonPlayer@@IAEXKKK@Z:PROC ; CPythonPlayer::__ReserveUseSkill
EXTRN	?__IsReservedUseSkill@CPythonPlayer@@IAE_NK@Z:PROC ; CPythonPlayer::__IsReservedUseSkill
EXTRN	?__IsTarget@CPythonPlayer@@IAE_NXZ:PROC		; CPythonPlayer::__IsTarget
EXTRN	?__ChangeTargetToPickedInstance@CPythonPlayer@@IAE_NXZ:PROC ; CPythonPlayer::__ChangeTargetToPickedInstance
EXTRN	?__GetAliveTargetInstancePtr@CPythonPlayer@@IAEPAVCInstanceBase@@XZ:PROC ; CPythonPlayer::__GetAliveTargetInstancePtr
EXTRN	?__GetDeadTargetInstancePtr@CPythonPlayer@@IAEPAVCInstanceBase@@XZ:PROC ; CPythonPlayer::__GetDeadTargetInstancePtr
EXTRN	?__IsRightButtonSkillMode@CPythonPlayer@@IAEHXZ:PROC ; CPythonPlayer::__IsRightButtonSkillMode
EXTRN	?SendUseSkillPacket@CPythonNetworkStream@@QAE_NKK@Z:PROC ; CPythonNetworkStream::SendUseSkillPacket
EXTRN	?SendAddFlyTargetingPacket@CPythonNetworkStream@@QAE_NKABUD3DXVECTOR3@@@Z:PROC ; CPythonNetworkStream::SendAddFlyTargetingPacket
EXTRN	?SendGuildUseSkillPacket@CPythonNetworkStream@@QAE_NKK@Z:PROC ; CPythonNetworkStream::SendGuildUseSkillPacket
EXTRN	?IsFlyTargetObject@CInstanceBase@@QAE_NXZ:PROC	; CInstanceBase::IsFlyTargetObject
EXTRN	?SetFlyTargetInstance@CInstanceBase@@QAEXAAV1@@Z:PROC ; CInstanceBase::SetFlyTargetInstance
EXTRN	?AddFlyTargetInstance@CInstanceBase@@QAEXAAV1@@Z:PROC ; CInstanceBase::AddFlyTargetInstance
EXTRN	?AddFlyTargetPosition@CInstanceBase@@QAEXABUD3DXVECTOR3@@@Z:PROC ; CInstanceBase::AddFlyTargetPosition
EXTRN	?GetWeaponType@CInstanceBase@@QAEKXZ:PROC	; CInstanceBase::GetWeaponType
EXTRN	?SetComboType@CInstanceBase@@QAEXI@Z:PROC	; CInstanceBase::SetComboType
EXTRN	?GetRace@CInstanceBase@@QAEKXZ:PROC		; CInstanceBase::GetRace
EXTRN	?GetVirtualID@CInstanceBase@@QAEKXZ:PROC	; CInstanceBase::GetVirtualID
EXTRN	?CanUseSkill@CInstanceBase@@QAE_NXZ:PROC	; CInstanceBase::CanUseSkill
EXTRN	?IsAttackableInstance@CInstanceBase@@QAE_NAAV1@@Z:PROC ; CInstanceBase::IsAttackableInstance
EXTRN	?IsAffect@CInstanceBase@@QAE_NI@Z:PROC		; CInstanceBase::IsAffect
EXTRN	?IsFishingMode@CInstanceBase@@QAEHXZ:PROC	; CInstanceBase::IsFishingMode
EXTRN	?IsMountingHorse@CInstanceBase@@QAEHXZ:PROC	; CInstanceBase::IsMountingHorse
EXTRN	?IsInSafe@CInstanceBase@@QAEHXZ:PROC		; CInstanceBase::IsInSafe
EXTRN	?IsPC@CInstanceBase@@QAEHXZ:PROC		; CInstanceBase::IsPC
EXTRN	?IsDead@CInstanceBase@@QAEHXZ:PROC		; CInstanceBase::IsDead
EXTRN	?IsUsingSkill@CInstanceBase@@QAEHXZ:PROC	; CInstanceBase::IsUsingSkill
EXTRN	?NEW_UseSkill@CInstanceBase@@QAE_NIII_N@Z:PROC	; CInstanceBase::NEW_UseSkill
EXTRN	?NEW_GetFrontInstance@CInstanceBase@@QAE_NPAPAV1@M@Z:PROC ; CInstanceBase::NEW_GetFrontInstance
EXTRN	?NEW_GetRandomPositionInFanRange@CInstanceBase@@QAEXAAV1@PAUD3DXVECTOR3@@@Z:PROC ; CInstanceBase::NEW_GetRandomPositionInFanRange
EXTRN	?NEW_GetInstanceVectorInFanRange@CInstanceBase@@QAE_NMAAV1@PAV?$vector@PAVCInstanceBase@@V?$allocator@PAVCInstanceBase@@@std@@@std@@@Z:PROC ; CInstanceBase::NEW_GetInstanceVectorInFanRange
EXTRN	?NEW_GetInstanceVectorInCircleRange@CInstanceBase@@QAE_NMPAV?$vector@PAVCInstanceBase@@V?$allocator@PAVCInstanceBase@@@std@@@std@@@Z:PROC ; CInstanceBase::NEW_GetInstanceVectorInCircleRange
EXTRN	?NEW_GetPixelPosition@CInstanceBase@@QAEXPAUD3DXVECTOR3@@@Z:PROC ; CInstanceBase::NEW_GetPixelPosition
EXTRN	?NEW_LookAtFlyTarget@CInstanceBase@@QAEXXZ:PROC	; CInstanceBase::NEW_LookAtFlyTarget
EXTRN	?NEW_LookAtDestInstance@CInstanceBase@@QAEXAAV1@@Z:PROC ; CInstanceBase::NEW_LookAtDestInstance
EXTRN	?NEW_LookAtDestPixelPosition@CInstanceBase@@QAEXABUD3DXVECTOR3@@@Z:PROC ; CInstanceBase::NEW_LookAtDestPixelPosition
EXTRN	?GetDistance@CInstanceBase@@QAEMPAV1@@Z:PROC	; CInstanceBase::GetDistance
EXTRN	?GetGraphicThingInstanceRef@CInstanceBase@@QAEAAVCActorInstance@@XZ:PROC ; CInstanceBase::GetGraphicThingInstanceRef
EXTRN	?IsDoingGuildWar@CPythonGuild@@QAEHXZ:PROC	; CPythonGuild::IsDoingGuildWar
EXTRN	?GetItemDataPointer@CItemManager@@QAEHKPAPAVCItemData@@@Z:PROC ; CItemManager::GetItemDataPointer
EXTRN	?IS_HUGE_RACE@@YA_NI@Z:PROC			; IS_HUGE_RACE
EXTRN	@__security_check_cookie@4:PROC
EXTRN	___CxxFrameHandler3:PROC
EXTRN	?c_iSkillIndex_Summon@@3KB:DWORD		; c_iSkillIndex_Summon
EXTRN	?c_iSkillIndex_Fishing@@3KB:DWORD		; c_iSkillIndex_Fishing
EXTRN	?c_iSkillIndex_Combo@@3KB:DWORD			; c_iSkillIndex_Combo
EXTRN	___security_cookie:DWORD
EXTRN	__fltused:DWORD
;	COMDAT ?ms_singleton@?$CSingleton@VCTimer@@@@0PAVCTimer@@A
_BSS	SEGMENT
?ms_singleton@?$CSingleton@VCTimer@@@@0PAVCTimer@@A DD 01H DUP (?) ; CSingleton<CTimer>::ms_singleton
_BSS	ENDS
;	COMDAT ?ms_singleton@?$CSingleton@VIBackground@@@@0PAVIBackground@@A
_BSS	SEGMENT
?ms_singleton@?$CSingleton@VIBackground@@@@0PAVIBackground@@A DD 01H DUP (?) ; CSingleton<IBackground>::ms_singleton
_BSS	ENDS
;	COMDAT ?ms_singleton@?$CSingleton@VCPythonSkill@@@@0PAVCPythonSkill@@A
_BSS	SEGMENT
?ms_singleton@?$CSingleton@VCPythonSkill@@@@0PAVCPythonSkill@@A DD 01H DUP (?) ; CSingleton<CPythonSkill>::ms_singleton
_BSS	ENDS
;	COMDAT ?ms_singleton@?$CSingleton@VCPythonNetworkStream@@@@0PAVCPythonNetworkStream@@A
_BSS	SEGMENT
?ms_singleton@?$CSingleton@VCPythonNetworkStream@@@@0PAVCPythonNetworkStream@@A DD 01H DUP (?) ; CSingleton<CPythonNetworkStream>::ms_singleton
_BSS	ENDS
;	COMDAT ?ms_singleton@?$CSingleton@VCPythonChat@@@@0PAVCPythonChat@@A
_BSS	SEGMENT
?ms_singleton@?$CSingleton@VCPythonChat@@@@0PAVCPythonChat@@A DD 01H DUP (?) ; CSingleton<CPythonChat>::ms_singleton
_BSS	ENDS
;	COMDAT ?ms_singleton@?$CSingleton@VCPythonGuild@@@@0PAVCPythonGuild@@A
_BSS	SEGMENT
?ms_singleton@?$CSingleton@VCPythonGuild@@@@0PAVCPythonGuild@@A DD 01H DUP (?) ; CSingleton<CPythonGuild>::ms_singleton
_BSS	ENDS
;	COMDAT ?ms_singleton@?$CSingleton@VCItemManager@@@@0PAVCItemManager@@A
_BSS	SEGMENT
?ms_singleton@?$CSingleton@VCItemManager@@@@0PAVCItemManager@@A DD 01H DUP (?) ; CSingleton<CItemManager>::ms_singleton
_BSS	ENDS
;	COMDAT CRT$XCU
CRT$XCU	SEGMENT
??ms_kPool$initializer$@?$CPooledObject@VCHeaderDecorator@NEffectUpdateDecorator@@@@1P6AXXZA@@3P6AXXZA DD FLAT:??__E?ms_kPool@?$CPooledObject@VCHeaderDecorator@NEffectUpdateDecorator@@@@1V?$CDynamicPoolEx@VCHeaderDecorator@NEffectUpdateDecorator@@@@A@@YAXXZ ; ??ms_kPool$initializer$@?$CPooledObject@VCHeaderDecorator@NEffectUpdateDecorator@@@@1P6AXXZA@@3P6AXXZA
CRT$XCU	ENDS
;	COMDAT __xmm@80000000800000008000000080000000
CONST	SEGMENT
__xmm@80000000800000008000000080000000 DB 00H, 00H, 00H, 080H, 00H, 00H, 00H
	DB	080H, 00H, 00H, 00H, 080H, 00H, 00H, 00H, 080H
CONST	ENDS
;	COMDAT __xmm@41f00000000000000000000000000000
CONST	SEGMENT
__xmm@41f00000000000000000000000000000 DB 00H, 00H, 00H, 00H, 00H, 00H, 00H
	DB	00H, 00H, 00H, 00H, 00H, 00H, 00H, 0f0H, 'A'
CONST	ENDS
;	COMDAT __real@43480000
CONST	SEGMENT
__real@43480000 DD 043480000r			; 200
CONST	ENDS
;	COMDAT __real@42c80000
CONST	SEGMENT
__real@42c80000 DD 042c80000r			; 100
CONST	ENDS
;	COMDAT ??_C@_0BC@ENEHNNJB@EQUIP_FISHING_ROD@
CONST	SEGMENT
??_C@_0BC@ENEHNNJB@EQUIP_FISHING_ROD@ DB 'EQUIP_FISHING_ROD', 00H ; `string'
CONST	ENDS
;	COMDAT ??_C@_0FM@DHHFNKGI@CPythonPlayer?3?3SetComboSkillFla@
CONST	SEGMENT
??_C@_0FM@DHHFNKGI@CPythonPlayer?3?3SetComboSkillFla@ DB 'CPythonPlayer::'
	DB	'SetComboSkillFlag(skillIndex=%d, skillLevel=%d) - Invalid Com'
	DB	'bo Skill Level', 0aH, 00H			; `string'
CONST	ENDS
;	COMDAT ??_C@_0EI@OMJBNOHB@CPythonPlayer?3?3SetComboSkillFla@
CONST	SEGMENT
??_C@_0EI@OMJBNOHB@CPythonPlayer?3?3SetComboSkillFla@ DB 'CPythonPlayer::'
	DB	'SetComboSkillFlag(killIndex=%d) - Can''t Find Slot Index', 0aH
	DB	00H						; `string'
CONST	ENDS
;	COMDAT ??_C@_0EE@GICPADML@CPythonPlayer?3?3UseGuildSkill?$CI?$CFd@
CONST	SEGMENT
??_C@_0EE@GICPADML@CPythonPlayer?3?3UseGuildSkill?$CI?$CFd@ DB 'CPythonPl'
	DB	'ayer::UseGuildSkill(%d) - pkInstMain->NEW_UseSkill - ERROR', 00H ; `string'
CONST	ENDS
;	COMDAT ??_C@_0BD@OHHCPGPG@ONLY_FOR_GUILD_WAR@
CONST	SEGMENT
??_C@_0BD@OHHCPGPG@ONLY_FOR_GUILD_WAR@ DB 'ONLY_FOR_GUILD_WAR', 00H ; `string'
CONST	ENDS
;	COMDAT ??_C@_0FH@CAACOELN@CPythonPlayer?3?3UseGuildSkill?$CIdw@
CONST	SEGMENT
??_C@_0FH@CAACOELN@CPythonPlayer?3?3UseGuildSkill?$CIdw@ DB 'CPythonPlaye'
	DB	'r::UseGuildSkill(dwSkillSlotIndex=%d) It''s not available ski'
	DB	'll slot number', 00H			; `string'
CONST	ENDS
;	COMDAT ??_C@_0BC@FKINMGLI@OnCannotShotError@
CONST	SEGMENT
??_C@_0BC@FKINMGLI@OnCannotShotError@ DB 'OnCannotShotError', 00H ; `string'
CONST	ENDS
;	COMDAT ??_C@_0M@FBIHMJDM@EMPTY_ARROW@
CONST	SEGMENT
??_C@_0M@FBIHMJDM@EMPTY_ARROW@ DB 'EMPTY_ARROW', 00H	; `string'
CONST	ENDS
;	COMDAT ??_C@_0BB@GJACMMFG@RunUseSkillEvent@
CONST	SEGMENT
??_C@_0BB@GJACMMFG@RunUseSkillEvent@ DB 'RunUseSkillEvent', 00H ; `string'
CONST	ENDS
;	COMDAT ??_C@_04IGFOPMNH@?$CIif?$CJ@
CONST	SEGMENT
??_C@_04IGFOPMNH@?$CIif?$CJ@ DB '(if)', 00H		; `string'
CONST	ENDS
;	COMDAT ??_C@_0DP@EKGIGFIO@CPythonPlayer?3?3__SendUseSkill?$CId@
CONST	SEGMENT
??_C@_0DP@EKGIGFIO@CPythonPlayer?3?3__SendUseSkill?$CId@ DB 'CPythonPlaye'
	DB	'r::__SendUseSkill(dwSkillSlotIndex=%d) - NOT CHECK', 00H ; `string'
CONST	ENDS
;	COMDAT ??_C@_0EB@LKBFGOEE@CPythonPlayer?3?3__UseSkill?$CI?$CFd?$CJ?5?9@
CONST	SEGMENT
??_C@_0EB@LKBFGOEE@CPythonPlayer?3?3__UseSkill?$CI?$CFd?$CJ?5?9@ DB 'CPyt'
	DB	'honPlayer::__UseSkill(%d) - pkInstMain->NEW_UseSkill - ERROR', 00H ; `string'
CONST	ENDS
;	COMDAT ??_C@_0DN@DLLIDDMA@CPythonPlayer?3?3__UseSkill?$CI?$CFd?$CJ?5?9@
CONST	SEGMENT
??_C@_0DN@DLLIDDMA@CPythonPlayer?3?3__UseSkill?$CI?$CFd?$CJ?5?9@ DB 'CPyt'
	DB	'honPlayer::__UseSkill(%d) - ', 0c8H, 0adH, 0b8H, 0e9H, ' ', 0b1H
	DB	0e2H, 0c1H, 0d8H, ' ', 0b9H, 0e6H, 0c7H, 0e2H, ' ', 0bcH, 0b3H
	DB	0c1H, 0a4H, 0c0H, 0bbH, ' ', 0c7H, 0d8H, 0beH, 0dfH, 0c7H, 0d4H
	DB	00H						; `string'
CONST	ENDS
;	COMDAT ??_C@_0BA@FPMNLALM@ONLY_FOR_CORPSE@
CONST	SEGMENT
??_C@_0BA@FPMNLALM@ONLY_FOR_CORPSE@ DB 'ONLY_FOR_CORPSE', 00H ; `string'
CONST	ENDS
;	COMDAT ??_C@_0DA@NPBLPNPC@?5?$FLALERT?$FN?5?E?$LI?$LA?Y?$MA?L?5?$LO?x?$LO?n?$LM?$KN?5?G?C?$LH?$LJ?$MA?L?$LO?n@
CONST	SEGMENT
??_C@_0DA@NPBLPNPC@?5?$FLALERT?$FN?5?E?$LI?$LA?Y?$MA?L?5?$LO?x?$LO?n?$LM?$KN?5?G?C?$LH?$LJ?$MA?L?$LO?n@ DB ' '
	DB	'[ALERT] ', 0c5H, 0b8H, 0b0H, 0d9H, 0c0H, 0ccH, ' ', 0beH, 0f8H
	DB	0beH, 0eeH, 0bcH, 0adH, ' ', 0c7H, 0c3H, 0b7H, 0b9H, 0c0H, 0ccH
	DB	0beH, 0eeH, 0bfH, 0a1H, 0b0H, 0d4H, ' ', 0bbH, 0e7H, 0bfH, 0ebH
	DB	0c7H, 0d5H, 0b4H, 0cfH, 0b4H, 0d9H, 0aH, 00H	; `string'
CONST	ENDS
;	COMDAT ??_C@_0O@BIOLCACO@CANNOT_ATTACK@
CONST	SEGMENT
??_C@_0O@BIOLCACO@CANNOT_ATTACK@ DB 'CANNOT_ATTACK', 00H ; `string'
CONST	ENDS
;	COMDAT ??_C@_0CB@HEDIGIHC@CANNOT_ATTACK_ENEMY_IN_SAFE_ARE@
CONST	SEGMENT
??_C@_0CB@HEDIGIHC@CANNOT_ATTACK_ENEMY_IN_SAFE_ARE@ DB 'CANNOT_ATTACK_ENE'
	DB	'MY_IN_SAFE_AREA', 00H			; `string'
CONST	ENDS
;	COMDAT ??_C@_0BC@CKDFNGK@ONLY_FOR_ALLIANCE@
CONST	SEGMENT
??_C@_0BC@CKDFNGK@ONLY_FOR_ALLIANCE@ DB 'ONLY_FOR_ALLIANCE', 00H ; `string'
CONST	ENDS
;	COMDAT ??_C@_0FC@NMOECDOK@?5?$FLALERT?$FN?5?$LF?$LP?$LH?a?$LP?$KB?$LA?T?5?$LL?g?$LP?k?G?O?$LE?B?5?$LB?b?$LM?z@
CONST	SEGMENT
??_C@_0FC@NMOECDOK@?5?$FLALERT?$FN?5?$LF?$LP?$LH?a?$LP?$KB?$LA?T?5?$LL?g?$LP?k?G?O?$LE?B?5?$LB?b?$LM?z@ DB ' '
	DB	'[ALERT] ', 0b5H, 0bfH, 0b7H, 0e1H, 0bfH, 0a1H, 0b0H, 0d4H, ' '
	DB	0bbH, 0e7H, 0bfH, 0ebH, 0c7H, 0cfH, 0b4H, 0c2H, ' ', 0b1H, 0e2H
	DB	0bcH, 0faH, 0c0H, 0d3H, 0bfH, 0a1H, 0b5H, 0b5H, ' ', 0c0H, 0fbH
	DB	0bfH, 0a1H, 0b0H, 0d4H, ' ', 0c5H, 0b8H, 0b0H, 0d9H, 0c6H, 0c3H
	DB	' ', 0b5H, 0c7H, 0beH, 0eeH, 0c0H, 0d6H, 0beH, 0eeH, 0bcH, 0adH
	DB	' ', 0c0H, 0daH, 0bdH, 0c5H, 0bfH, 0a1H, 0b0H, 0d4H, 0b7H, 0ceH
	DB	' ', 0c0H, 0e7H, 0bcH, 0b3H, 0c1H, 0a4H, 0aH, 00H ; `string'
CONST	ENDS
;	COMDAT ??_C@_0BA@GMGJKDGM@CANNOT_USE_SELF@
CONST	SEGMENT
??_C@_0BA@GMGJKDGM@CANNOT_USE_SELF@ DB 'CANNOT_USE_SELF', 00H ; `string'
CONST	ENDS
;	COMDAT ??_C@_0EC@MMFCNDJC@CPythonPlayer?3?3__UseSkill?$CIdwSlo@
CONST	SEGMENT
??_C@_0EC@MMFCNDJC@CPythonPlayer?3?3__UseSkill?$CIdwSlo@ DB 'CPythonPlaye'
	DB	'r::__UseSkill(dwSlotIndex=%d) There is no main player', 00H ; `string'
CONST	ENDS
;	COMDAT ??_C@_0EB@JKMJGFLB@CPythonPlayer?3?3__UseSkill?$CIdwSlo@
CONST	SEGMENT
??_C@_0EB@JKMJGFLB@CPythonPlayer?3?3__UseSkill?$CIdwSlo@ DB 'CPythonPlaye'
	DB	'r::__UseSkill(dwSlotIndex=%d) There is no skill data', 00H ; `string'
CONST	ENDS
;	COMDAT ??_C@_0EP@OENNGPFB@CPythonPlayer?3?3__UseSkill?$CIdwSlo@
CONST	SEGMENT
??_C@_0EP@OENNGPFB@CPythonPlayer?3?3__UseSkill?$CIdwSlo@ DB 'CPythonPlaye'
	DB	'r::__UseSkill(dwSlotIndex=%d) It''s not available skill slot '
	DB	'number', 00H				; `string'
CONST	ENDS
;	COMDAT ??_C@_0BA@CFBPJACC@CANNOT_APPROACH@
CONST	SEGMENT
??_C@_0BA@CFBPJACC@CANNOT_APPROACH@ DB 'CANNOT_APPROACH', 00H ; `string'
CONST	ENDS
;	COMDAT ??_C@_0DF@OHCKPFBO@?$CB?$CB?$CB?5Find?5strange?5game?5data?4?5Ple@
CONST	SEGMENT
??_C@_0DF@OHCKPFBO@?$CB?$CB?$CB?5Find?5strange?5game?5data?4?5Ple@ DB '!!'
	DB	'! Find strange game data. Please reinstall metin2.', 00H ; `string'
CONST	ENDS
;	COMDAT ??_C@_0O@DIMCNBHD@NOT_ENOUGH_SP@
CONST	SEGMENT
??_C@_0O@DIMCNBHD@NOT_ENOUGH_SP@ DB 'NOT_ENOUGH_SP', 00H ; `string'
CONST	ENDS
;	COMDAT ??_C@_0O@CILBJNOC@NOT_ENOUGH_HP@
CONST	SEGMENT
??_C@_0O@CILBJNOC@NOT_ENOUGH_HP@ DB 'NOT_ENOUGH_HP', 00H ; `string'
CONST	ENDS
;	COMDAT ??_C@_0O@CCJDKKCC@WAIT_COOLTIME@
CONST	SEGMENT
??_C@_0O@CCJDKKCC@WAIT_COOLTIME@ DB 'WAIT_COOLTIME', 00H ; `string'
CONST	ENDS
;	COMDAT ??_C@_0BF@KPLOMIJE@NOT_MATCHABLE_WEAPON@
CONST	SEGMENT
??_C@_0BF@KPLOMIJE@NOT_MATCHABLE_WEAPON@ DB 'NOT_MATCHABLE_WEAPON', 00H ; `string'
CONST	ENDS
;	COMDAT ??_C@_0O@PFLGBNMN@NOT_YET_LEARN@
CONST	SEGMENT
??_C@_0O@PFLGBNMN@NOT_YET_LEARN@ DB 'NOT_YET_LEARN', 00H ; `string'
CONST	ENDS
;	COMDAT ??_C@_0BD@LIIMHBCN@REMOVE_FISHING_ROD@
CONST	SEGMENT
??_C@_0BD@LIIMHBCN@REMOVE_FISHING_ROD@ DB 'REMOVE_FISHING_ROD', 00H ; `string'
CONST	ENDS
;	COMDAT ??_C@_0BD@HPCMPHGF@NEED_POISON_BOTTLE@
CONST	SEGMENT
??_C@_0BD@HPCMPHGF@NEED_POISON_BOTTLE@ DB 'NEED_POISON_BOTTLE', 00H ; `string'
CONST	ENDS
;	COMDAT ??_C@_0BC@DDKDAKLO@NEED_EMPTY_BOTTLE@
CONST	SEGMENT
??_C@_0BC@DDKDAKLO@NEED_EMPTY_BOTTLE@ DB 'NEED_EMPTY_BOTTLE', 00H ; `string'
CONST	ENDS
;	COMDAT ??_C@_07OAOBINCH@IN_SAFE@
CONST	SEGMENT
??_C@_07OAOBINCH@IN_SAFE@ DB 'IN_SAFE', 00H		; `string'
CONST	ENDS
;	COMDAT ??_C@_0N@DJBFACMO@HAVE_TO_RIDE@
CONST	SEGMENT
??_C@_0N@DJBFACMO@HAVE_TO_RIDE@ DB 'HAVE_TO_RIDE', 00H	; `string'
CONST	ENDS
;	COMDAT ??_C@_0BA@MEPOIIPE@NOT_HORSE_SKILL@
CONST	SEGMENT
??_C@_0BA@MEPOIIPE@NOT_HORSE_SKILL@ DB 'NOT_HORSE_SKILL', 00H ; `string'
CONST	ENDS
;	COMDAT ??_C@_0BD@IOEPNDLO@ChangeCurrentSkill@
CONST	SEGMENT
??_C@_0BD@IOEPNDLO@ChangeCurrentSkill@ DB 'ChangeCurrentSkill', 00H ; `string'
CONST	ENDS
;	COMDAT ??_C@_0BB@BOHMBBJL@OnCannotUseSkill@
CONST	SEGMENT
??_C@_0BB@BOHMBBJL@OnCannotUseSkill@ DB 'OnCannotUseSkill', 00H ; `string'
CONST	ENDS
;	COMDAT ??_C@_04JMLDJNEM@?$CIis?$CJ@
CONST	SEGMENT
??_C@_04JMLDJNEM@?$CIis?$CJ@ DB '(is)', 00H		; `string'
CONST	ENDS
;	COMDAT ??_C@_0M@HCIEKIGP@NEED_TARGET@
CONST	SEGMENT
??_C@_0M@HCIEKIGP@NEED_TARGET@ DB 'NEED_TARGET', 00H	; `string'
CONST	ENDS
;	COMDAT ??_C@_0M@HBOAHMLO@ResetAffect@
CONST	SEGMENT
??_C@_0M@HBOAHMLO@ResetAffect@ DB 'ResetAffect', 00H	; `string'
CONST	ENDS
;	COMDAT ??_C@_09FHCBCPJO@SetAffect@
CONST	SEGMENT
??_C@_09FHCBCPJO@SetAffect@ DB 'SetAffect', 00H		; `string'
CONST	ENDS
;	COMDAT ??_C@_03LIHNMIHG@?$CIi?$CJ@
CONST	SEGMENT
??_C@_03LIHNMIHG@?$CIi?$CJ@ DB '(i)', 00H		; `string'
CONST	ENDS
;	COMDAT ??_C@_0N@OADAMGHE@ClearAffects@
CONST	SEGMENT
??_C@_0N@OADAMGHE@ClearAffects@ DB 'ClearAffects', 00H	; `string'
CONST	ENDS
;	COMDAT ??_C@_02HCKGKOFO@?$CI?$CJ@
CONST	SEGMENT
??_C@_02HCKGKOFO@?$CI?$CJ@ DB '()', 00H			; `string'
CONST	ENDS
;	COMDAT ?ms_kPool@?$CPooledObject@VCRotationDecorator@NEffectUpdateDecorator@@@@1V?$CDynamicPoolEx@VCRotationDecorator@NEffectUpdateDecorator@@@@A
_DATA	SEGMENT
?ms_kPool@?$CPooledObject@VCRotationDecorator@NEffectUpdateDecorator@@@@1V?$CDynamicPoolEx@VCRotationDecorator@NEffectUpdateDecorator@@@@A DD FLAT:??_7?$CDynamicPoolEx@VCRotationDecorator@NEffectUpdateDecorator@@@@6B@ ; CPooledObject<NEffectUpdateDecorator::CRotationDecorator>::ms_kPool
	DD	00H
	DD	00H
	DD	00H
	DD	00H
	DD	00H
	DD	00H
	DD	00H
	DD	00H
_DATA	ENDS
;	COMDAT ?ms_kPool@?$CPooledObject@VCGravityDecorator@NEffectUpdateDecorator@@@@1V?$CDynamicPoolEx@VCGravityDecorator@NEffectUpdateDecorator@@@@A
_DATA	SEGMENT
?ms_kPool@?$CPooledObject@VCGravityDecorator@NEffectUpdateDecorator@@@@1V?$CDynamicPoolEx@VCGravityDecorator@NEffectUpdateDecorator@@@@A DD FLAT:??_7?$CDynamicPoolEx@VCGravityDecorator@NEffectUpdateDecorator@@@@6B@ ; CPooledObject<NEffectUpdateDecorator::CGravityDecorator>::ms_kPool
	DD	00H
	DD	00H
	DD	00H
	DD	00H
	DD	00H
	DD	00H
	DD	00H
	DD	00H
_DATA	ENDS
;	COMDAT ?ms_kPool@?$CPooledObject@VCAirResistanceDecorator@NEffectUpdateDecorator@@@@1V?$CDynamicPoolEx@VCAirResistanceDecorator@NEffectUpdateDecorator@@@@A
_DATA	SEGMENT
?ms_kPool@?$CPooledObject@VCAirResistanceDecorator@NEffectUpdateDecorator@@@@1V?$CDynamicPoolEx@VCAirResistanceDecorator@NEffectUpdateDecorator@@@@A DD FLAT:??_7?$CDynamicPoolEx@VCAirResistanceDecorator@NEffectUpdateDecorator@@@@6B@ ; CPooledObject<NEffectUpdateDecorator::CAirResistanceDecorator>::ms_kPool
	DD	00H
	DD	00H
	DD	00H
	DD	00H
	DD	00H
	DD	00H
	DD	00H
	DD	00H
_DATA	ENDS
;	COMDAT ?ms_kPool@?$CPooledObject@VCTextureAnimationRandomDecorator@NEffectUpdateDecorator@@@@1V?$CDynamicPoolEx@VCTextureAnimationRandomDecorator@NEffectUpdateDecorator@@@@A
_DATA	SEGMENT
?ms_kPool@?$CPooledObject@VCTextureAnimationRandomDecorator@NEffectUpdateDecorator@@@@1V?$CDynamicPoolEx@VCTextureAnimationRandomDecorator@NEffectUpdateDecorator@@@@A DD FLAT:??_7?$CDynamicPoolEx@VCTextureAnimationRandomDecorator@NEffectUpdateDecorator@@@@6B@ ; CPooledObject<NEffectUpdateDecorator::CTextureAnimationRandomDecorator>::ms_kPool
	DD	00H
	DD	00H
	DD	00H
	DD	00H
	DD	00H
	DD	00H
	DD	00H
	DD	00H
_DATA	ENDS
;	COMDAT ?ms_kPool@?$CPooledObject@VCTextureAnimationCCWDecorator@NEffectUpdateDecorator@@@@1V?$CDynamicPoolEx@VCTextureAnimationCCWDecorator@NEffectUpdateDecorator@@@@A
_DATA	SEGMENT
?ms_kPool@?$CPooledObject@VCTextureAnimationCCWDecorator@NEffectUpdateDecorator@@@@1V?$CDynamicPoolEx@VCTextureAnimationCCWDecorator@NEffectUpdateDecorator@@@@A DD FLAT:??_7?$CDynamicPoolEx@VCTextureAnimationCCWDecorator@NEffectUpdateDecorator@@@@6B@ ; CPooledObject<NEffectUpdateDecorator::CTextureAnimationCCWDecorator>::ms_kPool
	DD	00H
	DD	00H
	DD	00H
	DD	00H
	DD	00H
	DD	00H
	DD	00H
	DD	00H
_DATA	ENDS
;	COMDAT ?ms_kPool@?$CPooledObject@VCTextureAnimationCWDecorator@NEffectUpdateDecorator@@@@1V?$CDynamicPoolEx@VCTextureAnimationCWDecorator@NEffectUpdateDecorator@@@@A
_DATA	SEGMENT
?ms_kPool@?$CPooledObject@VCTextureAnimationCWDecorator@NEffectUpdateDecorator@@@@1V?$CDynamicPoolEx@VCTextureAnimationCWDecorator@NEffectUpdateDecorator@@@@A DD FLAT:??_7?$CDynamicPoolEx@VCTextureAnimationCWDecorator@NEffectUpdateDecorator@@@@6B@ ; CPooledObject<NEffectUpdateDecorator::CTextureAnimationCWDecorator>::ms_kPool
	DD	00H
	DD	00H
	DD	00H
	DD	00H
	DD	00H
	DD	00H
	DD	00H
	DD	00H
_DATA	ENDS
;	COMDAT ?ms_kPool@?$CPooledObject@VCNullDecorator@NEffectUpdateDecorator@@@@1V?$CDynamicPoolEx@VCNullDecorator@NEffectUpdateDecorator@@@@A
_DATA	SEGMENT
?ms_kPool@?$CPooledObject@VCNullDecorator@NEffectUpdateDecorator@@@@1V?$CDynamicPoolEx@VCNullDecorator@NEffectUpdateDecorator@@@@A DD FLAT:??_7?$CDynamicPoolEx@VCNullDecorator@NEffectUpdateDecorator@@@@6B@ ; CPooledObject<NEffectUpdateDecorator::CNullDecorator>::ms_kPool
	DD	00H
	DD	00H
	DD	00H
	DD	00H
	DD	00H
	DD	00H
	DD	00H
	DD	00H
_DATA	ENDS
;	COMDAT ?ms_kPool@?$CPooledObject@VCHeaderDecorator@NEffectUpdateDecorator@@@@1V?$CDynamicPoolEx@VCHeaderDecorator@NEffectUpdateDecorator@@@@A
_DATA	SEGMENT
?ms_kPool@?$CPooledObject@VCHeaderDecorator@NEffectUpdateDecorator@@@@1V?$CDynamicPoolEx@VCHeaderDecorator@NEffectUpdateDecorator@@@@A DD FLAT:??_7?$CDynamicPoolEx@VCHeaderDecorator@NEffectUpdateDecorator@@@@6B@ ; CPooledObject<NEffectUpdateDecorator::CHeaderDecorator>::ms_kPool
	DD	00H
	DD	00H
	DD	00H
	DD	00H
	DD	00H
	DD	00H
	DD	00H
	DD	00H
_DATA	ENDS
;	COMDAT xdata$x
xdata$x	SEGMENT
__unwindtable$?__UseSkill@CPythonPlayer@@IAE_NK@Z DD 0ffffffffH
	DD	FLAT:__unwindfunclet$?__UseSkill@CPythonPlayer@@IAE_NK@Z$0
__ehfuncinfo$?__UseSkill@CPythonPlayer@@IAE_NK@Z DD 019930522H
	DD	01H
	DD	FLAT:__unwindtable$?__UseSkill@CPythonPlayer@@IAE_NK@Z
	DD	2 DUP(00H)
	DD	2 DUP(00H)
	DD	00H
	DD	01H
xdata$x	ENDS
;	COMDAT CRT$XCU
CRT$XCU	SEGMENT
??ms_kPool$initializer$@?$CPooledObject@VCNullDecorator@NEffectUpdateDecorator@@@@1P6AXXZA@@3P6AXXZA DD FLAT:??__E?ms_kPool@?$CPooledObject@VCNullDecorator@NEffectUpdateDecorator@@@@1V?$CDynamicPoolEx@VCNullDecorator@NEffectUpdateDecorator@@@@A@@YAXXZ ; ??ms_kPool$initializer$@?$CPooledObject@VCNullDecorator@NEffectUpdateDecorator@@@@1P6AXXZA@@3P6AXXZA
CRT$XCU	ENDS
;	COMDAT CRT$XCU
CRT$XCU	SEGMENT
??ms_kPool$initializer$@?$CPooledObject@VCTextureAnimationCWDecorator@NEffectUpdateDecorator@@@@1P6AXXZA@@3P6AXXZA DD FLAT:??__E?ms_kPool@?$CPooledObject@VCTextureAnimationCWDecorator@NEffectUpdateDecorator@@@@1V?$CDynamicPoolEx@VCTextureAnimationCWDecorator@NEffectUpdateDecorator@@@@A@@YAXXZ ; ??ms_kPool$initializer$@?$CPooledObject@VCTextureAnimationCWDecorator@NEffectUpdateDecorator@@@@1P6AXXZA@@3P6AXXZA
CRT$XCU	ENDS
;	COMDAT CRT$XCU
CRT$XCU	SEGMENT
??ms_kPool$initializer$@?$CPooledObject@VCTextureAnimationCCWDecorator@NEffectUpdateDecorator@@@@1P6AXXZA@@3P6AXXZA DD FLAT:??__E?ms_kPool@?$CPooledObject@VCTextureAnimationCCWDecorator@NEffectUpdateDecorator@@@@1V?$CDynamicPoolEx@VCTextureAnimationCCWDecorator@NEffectUpdateDecorator@@@@A@@YAXXZ ; ??ms_kPool$initializer$@?$CPooledObject@VCTextureAnimationCCWDecorator@NEffectUpdateDecorator@@@@1P6AXXZA@@3P6AXXZA
CRT$XCU	ENDS
;	COMDAT CRT$XCU
CRT$XCU	SEGMENT
??ms_kPool$initializer$@?$CPooledObject@VCTextureAnimationRandomDecorator@NEffectUpdateDecorator@@@@1P6AXXZA@@3P6AXXZA DD FLAT:??__E?ms_kPool@?$CPooledObject@VCTextureAnimationRandomDecorator@NEffectUpdateDecorator@@@@1V?$CDynamicPoolEx@VCTextureAnimationRandomDecorator@NEffectUpdateDecorator@@@@A@@YAXXZ ; ??ms_kPool$initializer$@?$CPooledObject@VCTextureAnimationRandomDecorator@NEffectUpdateDecorator@@@@1P6AXXZA@@3P6AXXZA
CRT$XCU	ENDS
;	COMDAT CRT$XCU
CRT$XCU	SEGMENT
??ms_kPool$initializer$@?$CPooledObject@VCAirResistanceDecorator@NEffectUpdateDecorator@@@@1P6AXXZA@@3P6AXXZA DD FLAT:??__E?ms_kPool@?$CPooledObject@VCAirResistanceDecorator@NEffectUpdateDecorator@@@@1V?$CDynamicPoolEx@VCAirResistanceDecorator@NEffectUpdateDecorator@@@@A@@YAXXZ ; ??ms_kPool$initializer$@?$CPooledObject@VCAirResistanceDecorator@NEffectUpdateDecorator@@@@1P6AXXZA@@3P6AXXZA
CRT$XCU	ENDS
;	COMDAT CRT$XCU
CRT$XCU	SEGMENT
??ms_kPool$initializer$@?$CPooledObject@VCGravityDecorator@NEffectUpdateDecorator@@@@1P6AXXZA@@3P6AXXZA DD FLAT:??__E?ms_kPool@?$CPooledObject@VCGravityDecorator@NEffectUpdateDecorator@@@@1V?$CDynamicPoolEx@VCGravityDecorator@NEffectUpdateDecorator@@@@A@@YAXXZ ; ??ms_kPool$initializer$@?$CPooledObject@VCGravityDecorator@NEffectUpdateDecorator@@@@1P6AXXZA@@3P6AXXZA
CRT$XCU	ENDS
;	COMDAT CRT$XCU
CRT$XCU	SEGMENT
??ms_kPool$initializer$@?$CPooledObject@VCRotationDecorator@NEffectUpdateDecorator@@@@1P6AXXZA@@3P6AXXZA DD FLAT:??__E?ms_kPool@?$CPooledObject@VCRotationDecorator@NEffectUpdateDecorator@@@@1V?$CDynamicPoolEx@VCRotationDecorator@NEffectUpdateDecorator@@@@A@@YAXXZ ; ??ms_kPool$initializer$@?$CPooledObject@VCRotationDecorator@NEffectUpdateDecorator@@@@1P6AXXZA@@3P6AXXZA
CRT$XCU	ENDS
; Function compile flags: /Ogtp
;	COMDAT ??__F?ms_kPool@?$CPooledObject@VCRotationDecorator@NEffectUpdateDecorator@@@@1V?$CDynamicPoolEx@VCRotationDecorator@NEffectUpdateDecorator@@@@A@@YAXXZ
text$yd	SEGMENT
??__F?ms_kPool@?$CPooledObject@VCRotationDecorator@NEffectUpdateDecorator@@@@1V?$CDynamicPoolEx@VCRotationDecorator@NEffectUpdateDecorator@@@@A@@YAXXZ PROC ; `dynamic atexit destructor for 'CPooledObject<NEffectUpdateDecorator::CRotationDecorator>::ms_kPool'', COMDAT
  00000	b9 00 00 00 00	 mov	 ecx, OFFSET ?ms_kPool@?$CPooledObject@VCRotationDecorator@NEffectUpdateDecorator@@@@1V?$CDynamicPoolEx@VCRotationDecorator@NEffectUpdateDecorator@@@@A ; CPooledObject<NEffectUpdateDecorator::CRotationDecorator>::ms_kPool
  00005	e9 00 00 00 00	 jmp	 ??1?$CDynamicPoolEx@VCRotationDecorator@NEffectUpdateDecorator@@@@UAE@XZ ; CDynamicPoolEx<NEffectUpdateDecorator::CRotationDecorator>::~CDynamicPoolEx<NEffectUpdateDecorator::CRotationDecorator>
??__F?ms_kPool@?$CPooledObject@VCRotationDecorator@NEffectUpdateDecorator@@@@1V?$CDynamicPoolEx@VCRotationDecorator@NEffectUpdateDecorator@@@@A@@YAXXZ ENDP ; `dynamic atexit destructor for 'CPooledObject<NEffectUpdateDecorator::CRotationDecorator>::ms_kPool''
text$yd	ENDS
; Function compile flags: /Ogtp
; File D:\Metin2 Server Files\mainline\SRC_2014\Metin2Client\eterLib\Pool.h
;	COMDAT ??__E?ms_kPool@?$CPooledObject@VCRotationDecorator@NEffectUpdateDecorator@@@@1V?$CDynamicPoolEx@VCRotationDecorator@NEffectUpdateDecorator@@@@A@@YAXXZ
text$di	SEGMENT
??__E?ms_kPool@?$CPooledObject@VCRotationDecorator@NEffectUpdateDecorator@@@@1V?$CDynamicPoolEx@VCRotationDecorator@NEffectUpdateDecorator@@@@A@@YAXXZ PROC ; `dynamic initializer for 'CPooledObject<NEffectUpdateDecorator::CRotationDecorator>::ms_kPool'', COMDAT

; 272  : template <class T> CDynamicPoolEx<T> CPooledObject<T>::ms_kPool;

  00000	68 00 00 00 00	 push	 OFFSET ??__F?ms_kPool@?$CPooledObject@VCRotationDecorator@NEffectUpdateDecorator@@@@1V?$CDynamicPoolEx@VCRotationDecorator@NEffectUpdateDecorator@@@@A@@YAXXZ ; `dynamic atexit destructor for 'CPooledObject<NEffectUpdateDecorator::CRotationDecorator>::ms_kPool''
  00005	e8 00 00 00 00	 call	 _atexit
  0000a	59		 pop	 ecx
  0000b	c3		 ret	 0
??__E?ms_kPool@?$CPooledObject@VCRotationDecorator@NEffectUpdateDecorator@@@@1V?$CDynamicPoolEx@VCRotationDecorator@NEffectUpdateDecorator@@@@A@@YAXXZ ENDP ; `dynamic initializer for 'CPooledObject<NEffectUpdateDecorator::CRotationDecorator>::ms_kPool''
text$di	ENDS
; Function compile flags: /Ogtp
;	COMDAT ??__F?ms_kPool@?$CPooledObject@VCGravityDecorator@NEffectUpdateDecorator@@@@1V?$CDynamicPoolEx@VCGravityDecorator@NEffectUpdateDecorator@@@@A@@YAXXZ
text$yd	SEGMENT
??__F?ms_kPool@?$CPooledObject@VCGravityDecorator@NEffectUpdateDecorator@@@@1V?$CDynamicPoolEx@VCGravityDecorator@NEffectUpdateDecorator@@@@A@@YAXXZ PROC ; `dynamic atexit destructor for 'CPooledObject<NEffectUpdateDecorator::CGravityDecorator>::ms_kPool'', COMDAT
  00000	b9 00 00 00 00	 mov	 ecx, OFFSET ?ms_kPool@?$CPooledObject@VCGravityDecorator@NEffectUpdateDecorator@@@@1V?$CDynamicPoolEx@VCGravityDecorator@NEffectUpdateDecorator@@@@A ; CPooledObject<NEffectUpdateDecorator::CGravityDecorator>::ms_kPool
  00005	e9 00 00 00 00	 jmp	 ??1?$CDynamicPoolEx@VCGravityDecorator@NEffectUpdateDecorator@@@@UAE@XZ ; CDynamicPoolEx<NEffectUpdateDecorator::CGravityDecorator>::~CDynamicPoolEx<NEffectUpdateDecorator::CGravityDecorator>
??__F?ms_kPool@?$CPooledObject@VCGravityDecorator@NEffectUpdateDecorator@@@@1V?$CDynamicPoolEx@VCGravityDecorator@NEffectUpdateDecorator@@@@A@@YAXXZ ENDP ; `dynamic atexit destructor for 'CPooledObject<NEffectUpdateDecorator::CGravityDecorator>::ms_kPool''
text$yd	ENDS
; Function compile flags: /Ogtp
; File D:\Metin2 Server Files\mainline\SRC_2014\Metin2Client\eterLib\Pool.h
;	COMDAT ??__E?ms_kPool@?$CPooledObject@VCGravityDecorator@NEffectUpdateDecorator@@@@1V?$CDynamicPoolEx@VCGravityDecorator@NEffectUpdateDecorator@@@@A@@YAXXZ
text$di	SEGMENT
??__E?ms_kPool@?$CPooledObject@VCGravityDecorator@NEffectUpdateDecorator@@@@1V?$CDynamicPoolEx@VCGravityDecorator@NEffectUpdateDecorator@@@@A@@YAXXZ PROC ; `dynamic initializer for 'CPooledObject<NEffectUpdateDecorator::CGravityDecorator>::ms_kPool'', COMDAT

; 272  : template <class T> CDynamicPoolEx<T> CPooledObject<T>::ms_kPool;

  00000	68 00 00 00 00	 push	 OFFSET ??__F?ms_kPool@?$CPooledObject@VCGravityDecorator@NEffectUpdateDecorator@@@@1V?$CDynamicPoolEx@VCGravityDecorator@NEffectUpdateDecorator@@@@A@@YAXXZ ; `dynamic atexit destructor for 'CPooledObject<NEffectUpdateDecorator::CGravityDecorator>::ms_kPool''
  00005	e8 00 00 00 00	 call	 _atexit
  0000a	59		 pop	 ecx
  0000b	c3		 ret	 0
??__E?ms_kPool@?$CPooledObject@VCGravityDecorator@NEffectUpdateDecorator@@@@1V?$CDynamicPoolEx@VCGravityDecorator@NEffectUpdateDecorator@@@@A@@YAXXZ ENDP ; `dynamic initializer for 'CPooledObject<NEffectUpdateDecorator::CGravityDecorator>::ms_kPool''
text$di	ENDS
; Function compile flags: /Ogtp
;	COMDAT ??__F?ms_kPool@?$CPooledObject@VCAirResistanceDecorator@NEffectUpdateDecorator@@@@1V?$CDynamicPoolEx@VCAirResistanceDecorator@NEffectUpdateDecorator@@@@A@@YAXXZ
text$yd	SEGMENT
??__F?ms_kPool@?$CPooledObject@VCAirResistanceDecorator@NEffectUpdateDecorator@@@@1V?$CDynamicPoolEx@VCAirResistanceDecorator@NEffectUpdateDecorator@@@@A@@YAXXZ PROC ; `dynamic atexit destructor for 'CPooledObject<NEffectUpdateDecorator::CAirResistanceDecorator>::ms_kPool'', COMDAT
  00000	b9 00 00 00 00	 mov	 ecx, OFFSET ?ms_kPool@?$CPooledObject@VCAirResistanceDecorator@NEffectUpdateDecorator@@@@1V?$CDynamicPoolEx@VCAirResistanceDecorator@NEffectUpdateDecorator@@@@A ; CPooledObject<NEffectUpdateDecorator::CAirResistanceDecorator>::ms_kPool
  00005	e9 00 00 00 00	 jmp	 ??1?$CDynamicPoolEx@VCAirResistanceDecorator@NEffectUpdateDecorator@@@@UAE@XZ ; CDynamicPoolEx<NEffectUpdateDecorator::CAirResistanceDecorator>::~CDynamicPoolEx<NEffectUpdateDecorator::CAirResistanceDecorator>
??__F?ms_kPool@?$CPooledObject@VCAirResistanceDecorator@NEffectUpdateDecorator@@@@1V?$CDynamicPoolEx@VCAirResistanceDecorator@NEffectUpdateDecorator@@@@A@@YAXXZ ENDP ; `dynamic atexit destructor for 'CPooledObject<NEffectUpdateDecorator::CAirResistanceDecorator>::ms_kPool''
text$yd	ENDS
; Function compile flags: /Ogtp
; File D:\Metin2 Server Files\mainline\SRC_2014\Metin2Client\eterLib\Pool.h
;	COMDAT ??__E?ms_kPool@?$CPooledObject@VCAirResistanceDecorator@NEffectUpdateDecorator@@@@1V?$CDynamicPoolEx@VCAirResistanceDecorator@NEffectUpdateDecorator@@@@A@@YAXXZ
text$di	SEGMENT
??__E?ms_kPool@?$CPooledObject@VCAirResistanceDecorator@NEffectUpdateDecorator@@@@1V?$CDynamicPoolEx@VCAirResistanceDecorator@NEffectUpdateDecorator@@@@A@@YAXXZ PROC ; `dynamic initializer for 'CPooledObject<NEffectUpdateDecorator::CAirResistanceDecorator>::ms_kPool'', COMDAT

; 272  : template <class T> CDynamicPoolEx<T> CPooledObject<T>::ms_kPool;

  00000	68 00 00 00 00	 push	 OFFSET ??__F?ms_kPool@?$CPooledObject@VCAirResistanceDecorator@NEffectUpdateDecorator@@@@1V?$CDynamicPoolEx@VCAirResistanceDecorator@NEffectUpdateDecorator@@@@A@@YAXXZ ; `dynamic atexit destructor for 'CPooledObject<NEffectUpdateDecorator::CAirResistanceDecorator>::ms_kPool''
  00005	e8 00 00 00 00	 call	 _atexit
  0000a	59		 pop	 ecx
  0000b	c3		 ret	 0
??__E?ms_kPool@?$CPooledObject@VCAirResistanceDecorator@NEffectUpdateDecorator@@@@1V?$CDynamicPoolEx@VCAirResistanceDecorator@NEffectUpdateDecorator@@@@A@@YAXXZ ENDP ; `dynamic initializer for 'CPooledObject<NEffectUpdateDecorator::CAirResistanceDecorator>::ms_kPool''
text$di	ENDS
; Function compile flags: /Ogtp
;	COMDAT ??__F?ms_kPool@?$CPooledObject@VCTextureAnimationRandomDecorator@NEffectUpdateDecorator@@@@1V?$CDynamicPoolEx@VCTextureAnimationRandomDecorator@NEffectUpdateDecorator@@@@A@@YAXXZ
text$yd	SEGMENT
??__F?ms_kPool@?$CPooledObject@VCTextureAnimationRandomDecorator@NEffectUpdateDecorator@@@@1V?$CDynamicPoolEx@VCTextureAnimationRandomDecorator@NEffectUpdateDecorator@@@@A@@YAXXZ PROC ; `dynamic atexit destructor for 'CPooledObject<NEffectUpdateDecorator::CTextureAnimationRandomDecorator>::ms_kPool'', COMDAT
  00000	b9 00 00 00 00	 mov	 ecx, OFFSET ?ms_kPool@?$CPooledObject@VCTextureAnimationRandomDecorator@NEffectUpdateDecorator@@@@1V?$CDynamicPoolEx@VCTextureAnimationRandomDecorator@NEffectUpdateDecorator@@@@A ; CPooledObject<NEffectUpdateDecorator::CTextureAnimationRandomDecorator>::ms_kPool
  00005	e9 00 00 00 00	 jmp	 ??1?$CDynamicPoolEx@VCTextureAnimationRandomDecorator@NEffectUpdateDecorator@@@@UAE@XZ ; CDynamicPoolEx<NEffectUpdateDecorator::CTextureAnimationRandomDecorator>::~CDynamicPoolEx<NEffectUpdateDecorator::CTextureAnimationRandomDecorator>
??__F?ms_kPool@?$CPooledObject@VCTextureAnimationRandomDecorator@NEffectUpdateDecorator@@@@1V?$CDynamicPoolEx@VCTextureAnimationRandomDecorator@NEffectUpdateDecorator@@@@A@@YAXXZ ENDP ; `dynamic atexit destructor for 'CPooledObject<NEffectUpdateDecorator::CTextureAnimationRandomDecorator>::ms_kPool''
text$yd	ENDS
; Function compile flags: /Ogtp
; File D:\Metin2 Server Files\mainline\SRC_2014\Metin2Client\eterLib\Pool.h
;	COMDAT ??__E?ms_kPool@?$CPooledObject@VCTextureAnimationRandomDecorator@NEffectUpdateDecorator@@@@1V?$CDynamicPoolEx@VCTextureAnimationRandomDecorator@NEffectUpdateDecorator@@@@A@@YAXXZ
text$di	SEGMENT
??__E?ms_kPool@?$CPooledObject@VCTextureAnimationRandomDecorator@NEffectUpdateDecorator@@@@1V?$CDynamicPoolEx@VCTextureAnimationRandomDecorator@NEffectUpdateDecorator@@@@A@@YAXXZ PROC ; `dynamic initializer for 'CPooledObject<NEffectUpdateDecorator::CTextureAnimationRandomDecorator>::ms_kPool'', COMDAT

; 272  : template <class T> CDynamicPoolEx<T> CPooledObject<T>::ms_kPool;

  00000	68 00 00 00 00	 push	 OFFSET ??__F?ms_kPool@?$CPooledObject@VCTextureAnimationRandomDecorator@NEffectUpdateDecorator@@@@1V?$CDynamicPoolEx@VCTextureAnimationRandomDecorator@NEffectUpdateDecorator@@@@A@@YAXXZ ; `dynamic atexit destructor for 'CPooledObject<NEffectUpdateDecorator::CTextureAnimationRandomDecorator>::ms_kPool''
  00005	e8 00 00 00 00	 call	 _atexit
  0000a	59		 pop	 ecx
  0000b	c3		 ret	 0
??__E?ms_kPool@?$CPooledObject@VCTextureAnimationRandomDecorator@NEffectUpdateDecorator@@@@1V?$CDynamicPoolEx@VCTextureAnimationRandomDecorator@NEffectUpdateDecorator@@@@A@@YAXXZ ENDP ; `dynamic initializer for 'CPooledObject<NEffectUpdateDecorator::CTextureAnimationRandomDecorator>::ms_kPool''
text$di	ENDS
; Function compile flags: /Ogtp
;	COMDAT ??__F?ms_kPool@?$CPooledObject@VCTextureAnimationCCWDecorator@NEffectUpdateDecorator@@@@1V?$CDynamicPoolEx@VCTextureAnimationCCWDecorator@NEffectUpdateDecorator@@@@A@@YAXXZ
text$yd	SEGMENT
??__F?ms_kPool@?$CPooledObject@VCTextureAnimationCCWDecorator@NEffectUpdateDecorator@@@@1V?$CDynamicPoolEx@VCTextureAnimationCCWDecorator@NEffectUpdateDecorator@@@@A@@YAXXZ PROC ; `dynamic atexit destructor for 'CPooledObject<NEffectUpdateDecorator::CTextureAnimationCCWDecorator>::ms_kPool'', COMDAT
  00000	b9 00 00 00 00	 mov	 ecx, OFFSET ?ms_kPool@?$CPooledObject@VCTextureAnimationCCWDecorator@NEffectUpdateDecorator@@@@1V?$CDynamicPoolEx@VCTextureAnimationCCWDecorator@NEffectUpdateDecorator@@@@A ; CPooledObject<NEffectUpdateDecorator::CTextureAnimationCCWDecorator>::ms_kPool
  00005	e9 00 00 00 00	 jmp	 ??1?$CDynamicPoolEx@VCTextureAnimationCCWDecorator@NEffectUpdateDecorator@@@@UAE@XZ ; CDynamicPoolEx<NEffectUpdateDecorator::CTextureAnimationCCWDecorator>::~CDynamicPoolEx<NEffectUpdateDecorator::CTextureAnimationCCWDecorator>
??__F?ms_kPool@?$CPooledObject@VCTextureAnimationCCWDecorator@NEffectUpdateDecorator@@@@1V?$CDynamicPoolEx@VCTextureAnimationCCWDecorator@NEffectUpdateDecorator@@@@A@@YAXXZ ENDP ; `dynamic atexit destructor for 'CPooledObject<NEffectUpdateDecorator::CTextureAnimationCCWDecorator>::ms_kPool''
text$yd	ENDS
; Function compile flags: /Ogtp
; File D:\Metin2 Server Files\mainline\SRC_2014\Metin2Client\eterLib\Pool.h
;	COMDAT ??__E?ms_kPool@?$CPooledObject@VCTextureAnimationCCWDecorator@NEffectUpdateDecorator@@@@1V?$CDynamicPoolEx@VCTextureAnimationCCWDecorator@NEffectUpdateDecorator@@@@A@@YAXXZ
text$di	SEGMENT
??__E?ms_kPool@?$CPooledObject@VCTextureAnimationCCWDecorator@NEffectUpdateDecorator@@@@1V?$CDynamicPoolEx@VCTextureAnimationCCWDecorator@NEffectUpdateDecorator@@@@A@@YAXXZ PROC ; `dynamic initializer for 'CPooledObject<NEffectUpdateDecorator::CTextureAnimationCCWDecorator>::ms_kPool'', COMDAT

; 272  : template <class T> CDynamicPoolEx<T> CPooledObject<T>::ms_kPool;

  00000	68 00 00 00 00	 push	 OFFSET ??__F?ms_kPool@?$CPooledObject@VCTextureAnimationCCWDecorator@NEffectUpdateDecorator@@@@1V?$CDynamicPoolEx@VCTextureAnimationCCWDecorator@NEffectUpdateDecorator@@@@A@@YAXXZ ; `dynamic atexit destructor for 'CPooledObject<NEffectUpdateDecorator::CTextureAnimationCCWDecorator>::ms_kPool''
  00005	e8 00 00 00 00	 call	 _atexit
  0000a	59		 pop	 ecx
  0000b	c3		 ret	 0
??__E?ms_kPool@?$CPooledObject@VCTextureAnimationCCWDecorator@NEffectUpdateDecorator@@@@1V?$CDynamicPoolEx@VCTextureAnimationCCWDecorator@NEffectUpdateDecorator@@@@A@@YAXXZ ENDP ; `dynamic initializer for 'CPooledObject<NEffectUpdateDecorator::CTextureAnimationCCWDecorator>::ms_kPool''
text$di	ENDS
; Function compile flags: /Ogtp
;	COMDAT ??__F?ms_kPool@?$CPooledObject@VCTextureAnimationCWDecorator@NEffectUpdateDecorator@@@@1V?$CDynamicPoolEx@VCTextureAnimationCWDecorator@NEffectUpdateDecorator@@@@A@@YAXXZ
text$yd	SEGMENT
??__F?ms_kPool@?$CPooledObject@VCTextureAnimationCWDecorator@NEffectUpdateDecorator@@@@1V?$CDynamicPoolEx@VCTextureAnimationCWDecorator@NEffectUpdateDecorator@@@@A@@YAXXZ PROC ; `dynamic atexit destructor for 'CPooledObject<NEffectUpdateDecorator::CTextureAnimationCWDecorator>::ms_kPool'', COMDAT
  00000	b9 00 00 00 00	 mov	 ecx, OFFSET ?ms_kPool@?$CPooledObject@VCTextureAnimationCWDecorator@NEffectUpdateDecorator@@@@1V?$CDynamicPoolEx@VCTextureAnimationCWDecorator@NEffectUpdateDecorator@@@@A ; CPooledObject<NEffectUpdateDecorator::CTextureAnimationCWDecorator>::ms_kPool
  00005	e9 00 00 00 00	 jmp	 ??1?$CDynamicPoolEx@VCTextureAnimationCWDecorator@NEffectUpdateDecorator@@@@UAE@XZ ; CDynamicPoolEx<NEffectUpdateDecorator::CTextureAnimationCWDecorator>::~CDynamicPoolEx<NEffectUpdateDecorator::CTextureAnimationCWDecorator>
??__F?ms_kPool@?$CPooledObject@VCTextureAnimationCWDecorator@NEffectUpdateDecorator@@@@1V?$CDynamicPoolEx@VCTextureAnimationCWDecorator@NEffectUpdateDecorator@@@@A@@YAXXZ ENDP ; `dynamic atexit destructor for 'CPooledObject<NEffectUpdateDecorator::CTextureAnimationCWDecorator>::ms_kPool''
text$yd	ENDS
; Function compile flags: /Ogtp
; File D:\Metin2 Server Files\mainline\SRC_2014\Metin2Client\eterLib\Pool.h
;	COMDAT ??__E?ms_kPool@?$CPooledObject@VCTextureAnimationCWDecorator@NEffectUpdateDecorator@@@@1V?$CDynamicPoolEx@VCTextureAnimationCWDecorator@NEffectUpdateDecorator@@@@A@@YAXXZ
text$di	SEGMENT
??__E?ms_kPool@?$CPooledObject@VCTextureAnimationCWDecorator@NEffectUpdateDecorator@@@@1V?$CDynamicPoolEx@VCTextureAnimationCWDecorator@NEffectUpdateDecorator@@@@A@@YAXXZ PROC ; `dynamic initializer for 'CPooledObject<NEffectUpdateDecorator::CTextureAnimationCWDecorator>::ms_kPool'', COMDAT

; 272  : template <class T> CDynamicPoolEx<T> CPooledObject<T>::ms_kPool;

  00000	68 00 00 00 00	 push	 OFFSET ??__F?ms_kPool@?$CPooledObject@VCTextureAnimationCWDecorator@NEffectUpdateDecorator@@@@1V?$CDynamicPoolEx@VCTextureAnimationCWDecorator@NEffectUpdateDecorator@@@@A@@YAXXZ ; `dynamic atexit destructor for 'CPooledObject<NEffectUpdateDecorator::CTextureAnimationCWDecorator>::ms_kPool''
  00005	e8 00 00 00 00	 call	 _atexit
  0000a	59		 pop	 ecx
  0000b	c3		 ret	 0
??__E?ms_kPool@?$CPooledObject@VCTextureAnimationCWDecorator@NEffectUpdateDecorator@@@@1V?$CDynamicPoolEx@VCTextureAnimationCWDecorator@NEffectUpdateDecorator@@@@A@@YAXXZ ENDP ; `dynamic initializer for 'CPooledObject<NEffectUpdateDecorator::CTextureAnimationCWDecorator>::ms_kPool''
text$di	ENDS
; Function compile flags: /Ogtp
;	COMDAT ??__F?ms_kPool@?$CPooledObject@VCNullDecorator@NEffectUpdateDecorator@@@@1V?$CDynamicPoolEx@VCNullDecorator@NEffectUpdateDecorator@@@@A@@YAXXZ
text$yd	SEGMENT
??__F?ms_kPool@?$CPooledObject@VCNullDecorator@NEffectUpdateDecorator@@@@1V?$CDynamicPoolEx@VCNullDecorator@NEffectUpdateDecorator@@@@A@@YAXXZ PROC ; `dynamic atexit destructor for 'CPooledObject<NEffectUpdateDecorator::CNullDecorator>::ms_kPool'', COMDAT
  00000	b9 00 00 00 00	 mov	 ecx, OFFSET ?ms_kPool@?$CPooledObject@VCNullDecorator@NEffectUpdateDecorator@@@@1V?$CDynamicPoolEx@VCNullDecorator@NEffectUpdateDecorator@@@@A ; CPooledObject<NEffectUpdateDecorator::CNullDecorator>::ms_kPool
  00005	e9 00 00 00 00	 jmp	 ??1?$CDynamicPoolEx@VCNullDecorator@NEffectUpdateDecorator@@@@UAE@XZ ; CDynamicPoolEx<NEffectUpdateDecorator::CNullDecorator>::~CDynamicPoolEx<NEffectUpdateDecorator::CNullDecorator>
??__F?ms_kPool@?$CPooledObject@VCNullDecorator@NEffectUpdateDecorator@@@@1V?$CDynamicPoolEx@VCNullDecorator@NEffectUpdateDecorator@@@@A@@YAXXZ ENDP ; `dynamic atexit destructor for 'CPooledObject<NEffectUpdateDecorator::CNullDecorator>::ms_kPool''
text$yd	ENDS
; Function compile flags: /Ogtp
; File D:\Metin2 Server Files\mainline\SRC_2014\Metin2Client\eterLib\Pool.h
;	COMDAT ??__E?ms_kPool@?$CPooledObject@VCNullDecorator@NEffectUpdateDecorator@@@@1V?$CDynamicPoolEx@VCNullDecorator@NEffectUpdateDecorator@@@@A@@YAXXZ
text$di	SEGMENT
??__E?ms_kPool@?$CPooledObject@VCNullDecorator@NEffectUpdateDecorator@@@@1V?$CDynamicPoolEx@VCNullDecorator@NEffectUpdateDecorator@@@@A@@YAXXZ PROC ; `dynamic initializer for 'CPooledObject<NEffectUpdateDecorator::CNullDecorator>::ms_kPool'', COMDAT

; 272  : template <class T> CDynamicPoolEx<T> CPooledObject<T>::ms_kPool;

  00000	68 00 00 00 00	 push	 OFFSET ??__F?ms_kPool@?$CPooledObject@VCNullDecorator@NEffectUpdateDecorator@@@@1V?$CDynamicPoolEx@VCNullDecorator@NEffectUpdateDecorator@@@@A@@YAXXZ ; `dynamic atexit destructor for 'CPooledObject<NEffectUpdateDecorator::CNullDecorator>::ms_kPool''
  00005	e8 00 00 00 00	 call	 _atexit
  0000a	59		 pop	 ecx
  0000b	c3		 ret	 0
??__E?ms_kPool@?$CPooledObject@VCNullDecorator@NEffectUpdateDecorator@@@@1V?$CDynamicPoolEx@VCNullDecorator@NEffectUpdateDecorator@@@@A@@YAXXZ ENDP ; `dynamic initializer for 'CPooledObject<NEffectUpdateDecorator::CNullDecorator>::ms_kPool''
text$di	ENDS
; Function compile flags: /Ogtp
;	COMDAT ??__F?ms_kPool@?$CPooledObject@VCHeaderDecorator@NEffectUpdateDecorator@@@@1V?$CDynamicPoolEx@VCHeaderDecorator@NEffectUpdateDecorator@@@@A@@YAXXZ
text$yd	SEGMENT
??__F?ms_kPool@?$CPooledObject@VCHeaderDecorator@NEffectUpdateDecorator@@@@1V?$CDynamicPoolEx@VCHeaderDecorator@NEffectUpdateDecorator@@@@A@@YAXXZ PROC ; `dynamic atexit destructor for 'CPooledObject<NEffectUpdateDecorator::CHeaderDecorator>::ms_kPool'', COMDAT
  00000	b9 00 00 00 00	 mov	 ecx, OFFSET ?ms_kPool@?$CPooledObject@VCHeaderDecorator@NEffectUpdateDecorator@@@@1V?$CDynamicPoolEx@VCHeaderDecorator@NEffectUpdateDecorator@@@@A ; CPooledObject<NEffectUpdateDecorator::CHeaderDecorator>::ms_kPool
  00005	e9 00 00 00 00	 jmp	 ??1?$CDynamicPoolEx@VCHeaderDecorator@NEffectUpdateDecorator@@@@UAE@XZ ; CDynamicPoolEx<NEffectUpdateDecorator::CHeaderDecorator>::~CDynamicPoolEx<NEffectUpdateDecorator::CHeaderDecorator>
??__F?ms_kPool@?$CPooledObject@VCHeaderDecorator@NEffectUpdateDecorator@@@@1V?$CDynamicPoolEx@VCHeaderDecorator@NEffectUpdateDecorator@@@@A@@YAXXZ ENDP ; `dynamic atexit destructor for 'CPooledObject<NEffectUpdateDecorator::CHeaderDecorator>::ms_kPool''
text$yd	ENDS
; Function compile flags: /Ogtp
; File D:\Metin2 Server Files\mainline\SRC_2014\Metin2Client\eterLib\Pool.h
;	COMDAT ??__E?ms_kPool@?$CPooledObject@VCHeaderDecorator@NEffectUpdateDecorator@@@@1V?$CDynamicPoolEx@VCHeaderDecorator@NEffectUpdateDecorator@@@@A@@YAXXZ
text$di	SEGMENT
??__E?ms_kPool@?$CPooledObject@VCHeaderDecorator@NEffectUpdateDecorator@@@@1V?$CDynamicPoolEx@VCHeaderDecorator@NEffectUpdateDecorator@@@@A@@YAXXZ PROC ; `dynamic initializer for 'CPooledObject<NEffectUpdateDecorator::CHeaderDecorator>::ms_kPool'', COMDAT

; 272  : template <class T> CDynamicPoolEx<T> CPooledObject<T>::ms_kPool;

  00000	68 00 00 00 00	 push	 OFFSET ??__F?ms_kPool@?$CPooledObject@VCHeaderDecorator@NEffectUpdateDecorator@@@@1V?$CDynamicPoolEx@VCHeaderDecorator@NEffectUpdateDecorator@@@@A@@YAXXZ ; `dynamic atexit destructor for 'CPooledObject<NEffectUpdateDecorator::CHeaderDecorator>::ms_kPool''
  00005	e8 00 00 00 00	 call	 _atexit
  0000a	59		 pop	 ecx
  0000b	c3		 ret	 0
??__E?ms_kPool@?$CPooledObject@VCHeaderDecorator@NEffectUpdateDecorator@@@@1V?$CDynamicPoolEx@VCHeaderDecorator@NEffectUpdateDecorator@@@@A@@YAXXZ ENDP ; `dynamic initializer for 'CPooledObject<NEffectUpdateDecorator::CHeaderDecorator>::ms_kPool''
text$di	ENDS
; Function compile flags: /Ogtp
; File C:\Program Files (x86)\Microsoft Visual Studio\2019\Community\VC\Tools\MSVC\14.28.29333\include\xmemory
;	COMDAT ??$_Destroy_range@V?$allocator@PAVCRotationDecorator@NEffectUpdateDecorator@@@std@@@std@@YAXPAPAVCRotationDecorator@NEffectUpdateDecorator@@QAPAV12@AAV?$allocator@PAVCRotationDecorator@NEffectUpdateDecorator@@@0@@Z
_TEXT	SEGMENT
__First$ = 8						; size = 4
__Last$ = 12						; size = 4
__Al$ = 16						; size = 4
??$_Destroy_range@V?$allocator@PAVCRotationDecorator@NEffectUpdateDecorator@@@std@@@std@@YAXPAPAVCRotationDecorator@NEffectUpdateDecorator@@QAPAV12@AAV?$allocator@PAVCRotationDecorator@NEffectUpdateDecorator@@@0@@Z PROC ; std::_Destroy_range<std::allocator<NEffectUpdateDecorator::CRotationDecorator *> >, COMDAT

; 963  :     // note that this is an optimization for debug mode codegen; in release mode the BE removes all of this
; 964  :     using _Ty = typename _Alloc::value_type;
; 965  :     if _CONSTEXPR_IF (!conjunction_v<is_trivially_destructible<_Ty>, _Uses_default_destroy<_Alloc, _Ty*>>) {
; 966  :         for (; _First != _Last; ++_First) {
; 967  :             allocator_traits<_Alloc>::destroy(_Al, _Unfancy(_First));
; 968  :         }
; 969  :     }
; 970  : }

  00000	c2 00 00	 ret	 0
??$_Destroy_range@V?$allocator@PAVCRotationDecorator@NEffectUpdateDecorator@@@std@@@std@@YAXPAPAVCRotationDecorator@NEffectUpdateDecorator@@QAPAV12@AAV?$allocator@PAVCRotationDecorator@NEffectUpdateDecorator@@@0@@Z ENDP ; std::_Destroy_range<std::allocator<NEffectUpdateDecorator::CRotationDecorator *> >
_TEXT	ENDS
; Function compile flags: /Ogtp
; File C:\Program Files (x86)\Microsoft Visual Studio\2019\Community\VC\Tools\MSVC\14.28.29333\include\xmemory
;	COMDAT ??$_Destroy_range@V?$allocator@PAVCGravityDecorator@NEffectUpdateDecorator@@@std@@@std@@YAXPAPAVCGravityDecorator@NEffectUpdateDecorator@@QAPAV12@AAV?$allocator@PAVCGravityDecorator@NEffectUpdateDecorator@@@0@@Z
_TEXT	SEGMENT
__First$ = 8						; size = 4
__Last$ = 12						; size = 4
__Al$ = 16						; size = 4
??$_Destroy_range@V?$allocator@PAVCGravityDecorator@NEffectUpdateDecorator@@@std@@@std@@YAXPAPAVCGravityDecorator@NEffectUpdateDecorator@@QAPAV12@AAV?$allocator@PAVCGravityDecorator@NEffectUpdateDecorator@@@0@@Z PROC ; std::_Destroy_range<std::allocator<NEffectUpdateDecorator::CGravityDecorator *> >, COMDAT

; 963  :     // note that this is an optimization for debug mode codegen; in release mode the BE removes all of this
; 964  :     using _Ty = typename _Alloc::value_type;
; 965  :     if _CONSTEXPR_IF (!conjunction_v<is_trivially_destructible<_Ty>, _Uses_default_destroy<_Alloc, _Ty*>>) {
; 966  :         for (; _First != _Last; ++_First) {
; 967  :             allocator_traits<_Alloc>::destroy(_Al, _Unfancy(_First));
; 968  :         }
; 969  :     }
; 970  : }

  00000	c2 00 00	 ret	 0
??$_Destroy_range@V?$allocator@PAVCGravityDecorator@NEffectUpdateDecorator@@@std@@@std@@YAXPAPAVCGravityDecorator@NEffectUpdateDecorator@@QAPAV12@AAV?$allocator@PAVCGravityDecorator@NEffectUpdateDecorator@@@0@@Z ENDP ; std::_Destroy_range<std::allocator<NEffectUpdateDecorator::CGravityDecorator *> >
_TEXT	ENDS
; Function compile flags: /Ogtp
; File C:\Program Files (x86)\Microsoft Visual Studio\2019\Community\VC\Tools\MSVC\14.28.29333\include\xmemory
;	COMDAT ??$_Destroy_range@V?$allocator@PAVCAirResistanceDecorator@NEffectUpdateDecorator@@@std@@@std@@YAXPAPAVCAirResistanceDecorator@NEffectUpdateDecorator@@QAPAV12@AAV?$allocator@PAVCAirResistanceDecorator@NEffectUpdateDecorator@@@0@@Z
_TEXT	SEGMENT
__First$ = 8						; size = 4
__Last$ = 12						; size = 4
__Al$ = 16						; size = 4
??$_Destroy_range@V?$allocator@PAVCAirResistanceDecorator@NEffectUpdateDecorator@@@std@@@std@@YAXPAPAVCAirResistanceDecorator@NEffectUpdateDecorator@@QAPAV12@AAV?$allocator@PAVCAirResistanceDecorator@NEffectUpdateDecorator@@@0@@Z PROC ; std::_Destroy_range<std::allocator<NEffectUpdateDecorator::CAirResistanceDecorator *> >, COMDAT

; 963  :     // note that this is an optimization for debug mode codegen; in release mode the BE removes all of this
; 964  :     using _Ty = typename _Alloc::value_type;
; 965  :     if _CONSTEXPR_IF (!conjunction_v<is_trivially_destructible<_Ty>, _Uses_default_destroy<_Alloc, _Ty*>>) {
; 966  :         for (; _First != _Last; ++_First) {
; 967  :             allocator_traits<_Alloc>::destroy(_Al, _Unfancy(_First));
; 968  :         }
; 969  :     }
; 970  : }

  00000	c2 00 00	 ret	 0
??$_Destroy_range@V?$allocator@PAVCAirResistanceDecorator@NEffectUpdateDecorator@@@std@@@std@@YAXPAPAVCAirResistanceDecorator@NEffectUpdateDecorator@@QAPAV12@AAV?$allocator@PAVCAirResistanceDecorator@NEffectUpdateDecorator@@@0@@Z ENDP ; std::_Destroy_range<std::allocator<NEffectUpdateDecorator::CAirResistanceDecorator *> >
_TEXT	ENDS
; Function compile flags: /Ogtp
; File C:\Program Files (x86)\Microsoft Visual Studio\2019\Community\VC\Tools\MSVC\14.28.29333\include\xmemory
;	COMDAT ??$_Destroy_range@V?$allocator@PAVCTextureAnimationRandomDecorator@NEffectUpdateDecorator@@@std@@@std@@YAXPAPAVCTextureAnimationRandomDecorator@NEffectUpdateDecorator@@QAPAV12@AAV?$allocator@PAVCTextureAnimationRandomDecorator@NEffectUpdateDecorator@@@0@@Z
_TEXT	SEGMENT
__First$ = 8						; size = 4
__Last$ = 12						; size = 4
__Al$ = 16						; size = 4
??$_Destroy_range@V?$allocator@PAVCTextureAnimationRandomDecorator@NEffectUpdateDecorator@@@std@@@std@@YAXPAPAVCTextureAnimationRandomDecorator@NEffectUpdateDecorator@@QAPAV12@AAV?$allocator@PAVCTextureAnimationRandomDecorator@NEffectUpdateDecorator@@@0@@Z PROC ; std::_Destroy_range<std::allocator<NEffectUpdateDecorator::CTextureAnimationRandomDecorator *> >, COMDAT

; 963  :     // note that this is an optimization for debug mode codegen; in release mode the BE removes all of this
; 964  :     using _Ty = typename _Alloc::value_type;
; 965  :     if _CONSTEXPR_IF (!conjunction_v<is_trivially_destructible<_Ty>, _Uses_default_destroy<_Alloc, _Ty*>>) {
; 966  :         for (; _First != _Last; ++_First) {
; 967  :             allocator_traits<_Alloc>::destroy(_Al, _Unfancy(_First));
; 968  :         }
; 969  :     }
; 970  : }

  00000	c2 00 00	 ret	 0
??$_Destroy_range@V?$allocator@PAVCTextureAnimationRandomDecorator@NEffectUpdateDecorator@@@std@@@std@@YAXPAPAVCTextureAnimationRandomDecorator@NEffectUpdateDecorator@@QAPAV12@AAV?$allocator@PAVCTextureAnimationRandomDecorator@NEffectUpdateDecorator@@@0@@Z ENDP ; std::_Destroy_range<std::allocator<NEffectUpdateDecorator::CTextureAnimationRandomDecorator *> >
_TEXT	ENDS
; Function compile flags: /Ogtp
; File C:\Program Files (x86)\Microsoft Visual Studio\2019\Community\VC\Tools\MSVC\14.28.29333\include\xmemory
;	COMDAT ??$_Destroy_range@V?$allocator@PAVCTextureAnimationCCWDecorator@NEffectUpdateDecorator@@@std@@@std@@YAXPAPAVCTextureAnimationCCWDecorator@NEffectUpdateDecorator@@QAPAV12@AAV?$allocator@PAVCTextureAnimationCCWDecorator@NEffectUpdateDecorator@@@0@@Z
_TEXT	SEGMENT
__First$ = 8						; size = 4
__Last$ = 12						; size = 4
__Al$ = 16						; size = 4
??$_Destroy_range@V?$allocator@PAVCTextureAnimationCCWDecorator@NEffectUpdateDecorator@@@std@@@std@@YAXPAPAVCTextureAnimationCCWDecorator@NEffectUpdateDecorator@@QAPAV12@AAV?$allocator@PAVCTextureAnimationCCWDecorator@NEffectUpdateDecorator@@@0@@Z PROC ; std::_Destroy_range<std::allocator<NEffectUpdateDecorator::CTextureAnimationCCWDecorator *> >, COMDAT

; 963  :     // note that this is an optimization for debug mode codegen; in release mode the BE removes all of this
; 964  :     using _Ty = typename _Alloc::value_type;
; 965  :     if _CONSTEXPR_IF (!conjunction_v<is_trivially_destructible<_Ty>, _Uses_default_destroy<_Alloc, _Ty*>>) {
; 966  :         for (; _First != _Last; ++_First) {
; 967  :             allocator_traits<_Alloc>::destroy(_Al, _Unfancy(_First));
; 968  :         }
; 969  :     }
; 970  : }

  00000	c2 00 00	 ret	 0
??$_Destroy_range@V?$allocator@PAVCTextureAnimationCCWDecorator@NEffectUpdateDecorator@@@std@@@std@@YAXPAPAVCTextureAnimationCCWDecorator@NEffectUpdateDecorator@@QAPAV12@AAV?$allocator@PAVCTextureAnimationCCWDecorator@NEffectUpdateDecorator@@@0@@Z ENDP ; std::_Destroy_range<std::allocator<NEffectUpdateDecorator::CTextureAnimationCCWDecorator *> >
_TEXT	ENDS
; Function compile flags: /Ogtp
; File C:\Program Files (x86)\Microsoft Visual Studio\2019\Community\VC\Tools\MSVC\14.28.29333\include\xmemory
;	COMDAT ??$_Destroy_range@V?$allocator@PAVCTextureAnimationCWDecorator@NEffectUpdateDecorator@@@std@@@std@@YAXPAPAVCTextureAnimationCWDecorator@NEffectUpdateDecorator@@QAPAV12@AAV?$allocator@PAVCTextureAnimationCWDecorator@NEffectUpdateDecorator@@@0@@Z
_TEXT	SEGMENT
__First$ = 8						; size = 4
__Last$ = 12						; size = 4
__Al$ = 16						; size = 4
??$_Destroy_range@V?$allocator@PAVCTextureAnimationCWDecorator@NEffectUpdateDecorator@@@std@@@std@@YAXPAPAVCTextureAnimationCWDecorator@NEffectUpdateDecorator@@QAPAV12@AAV?$allocator@PAVCTextureAnimationCWDecorator@NEffectUpdateDecorator@@@0@@Z PROC ; std::_Destroy_range<std::allocator<NEffectUpdateDecorator::CTextureAnimationCWDecorator *> >, COMDAT

; 963  :     // note that this is an optimization for debug mode codegen; in release mode the BE removes all of this
; 964  :     using _Ty = typename _Alloc::value_type;
; 965  :     if _CONSTEXPR_IF (!conjunction_v<is_trivially_destructible<_Ty>, _Uses_default_destroy<_Alloc, _Ty*>>) {
; 966  :         for (; _First != _Last; ++_First) {
; 967  :             allocator_traits<_Alloc>::destroy(_Al, _Unfancy(_First));
; 968  :         }
; 969  :     }
; 970  : }

  00000	c2 00 00	 ret	 0
??$_Destroy_range@V?$allocator@PAVCTextureAnimationCWDecorator@NEffectUpdateDecorator@@@std@@@std@@YAXPAPAVCTextureAnimationCWDecorator@NEffectUpdateDecorator@@QAPAV12@AAV?$allocator@PAVCTextureAnimationCWDecorator@NEffectUpdateDecorator@@@0@@Z ENDP ; std::_Destroy_range<std::allocator<NEffectUpdateDecorator::CTextureAnimationCWDecorator *> >
_TEXT	ENDS
; Function compile flags: /Ogtp
; File C:\Program Files (x86)\Microsoft Visual Studio\2019\Community\VC\Tools\MSVC\14.28.29333\include\xmemory
;	COMDAT ??$_Destroy_range@V?$allocator@PAVCNullDecorator@NEffectUpdateDecorator@@@std@@@std@@YAXPAPAVCNullDecorator@NEffectUpdateDecorator@@QAPAV12@AAV?$allocator@PAVCNullDecorator@NEffectUpdateDecorator@@@0@@Z
_TEXT	SEGMENT
__First$ = 8						; size = 4
__Last$ = 12						; size = 4
__Al$ = 16						; size = 4
??$_Destroy_range@V?$allocator@PAVCNullDecorator@NEffectUpdateDecorator@@@std@@@std@@YAXPAPAVCNullDecorator@NEffectUpdateDecorator@@QAPAV12@AAV?$allocator@PAVCNullDecorator@NEffectUpdateDecorator@@@0@@Z PROC ; std::_Destroy_range<std::allocator<NEffectUpdateDecorator::CNullDecorator *> >, COMDAT

; 963  :     // note that this is an optimization for debug mode codegen; in release mode the BE removes all of this
; 964  :     using _Ty = typename _Alloc::value_type;
; 965  :     if _CONSTEXPR_IF (!conjunction_v<is_trivially_destructible<_Ty>, _Uses_default_destroy<_Alloc, _Ty*>>) {
; 966  :         for (; _First != _Last; ++_First) {
; 967  :             allocator_traits<_Alloc>::destroy(_Al, _Unfancy(_First));
; 968  :         }
; 969  :     }
; 970  : }

  00000	c2 00 00	 ret	 0
??$_Destroy_range@V?$allocator@PAVCNullDecorator@NEffectUpdateDecorator@@@std@@@std@@YAXPAPAVCNullDecorator@NEffectUpdateDecorator@@QAPAV12@AAV?$allocator@PAVCNullDecorator@NEffectUpdateDecorator@@@0@@Z ENDP ; std::_Destroy_range<std::allocator<NEffectUpdateDecorator::CNullDecorator *> >
_TEXT	ENDS
; Function compile flags: /Ogtp
; File C:\Program Files (x86)\Microsoft Visual Studio\2019\Community\VC\Tools\MSVC\14.28.29333\include\xmemory
;	COMDAT ??$_Destroy_range@V?$allocator@PAVCHeaderDecorator@NEffectUpdateDecorator@@@std@@@std@@YAXPAPAVCHeaderDecorator@NEffectUpdateDecorator@@QAPAV12@AAV?$allocator@PAVCHeaderDecorator@NEffectUpdateDecorator@@@0@@Z
_TEXT	SEGMENT
__First$ = 8						; size = 4
__Last$ = 12						; size = 4
__Al$ = 16						; size = 4
??$_Destroy_range@V?$allocator@PAVCHeaderDecorator@NEffectUpdateDecorator@@@std@@@std@@YAXPAPAVCHeaderDecorator@NEffectUpdateDecorator@@QAPAV12@AAV?$allocator@PAVCHeaderDecorator@NEffectUpdateDecorator@@@0@@Z PROC ; std::_Destroy_range<std::allocator<NEffectUpdateDecorator::CHeaderDecorator *> >, COMDAT

; 963  :     // note that this is an optimization for debug mode codegen; in release mode the BE removes all of this
; 964  :     using _Ty = typename _Alloc::value_type;
; 965  :     if _CONSTEXPR_IF (!conjunction_v<is_trivially_destructible<_Ty>, _Uses_default_destroy<_Alloc, _Ty*>>) {
; 966  :         for (; _First != _Last; ++_First) {
; 967  :             allocator_traits<_Alloc>::destroy(_Al, _Unfancy(_First));
; 968  :         }
; 969  :     }
; 970  : }

  00000	c2 00 00	 ret	 0
??$_Destroy_range@V?$allocator@PAVCHeaderDecorator@NEffectUpdateDecorator@@@std@@@std@@YAXPAPAVCHeaderDecorator@NEffectUpdateDecorator@@QAPAV12@AAV?$allocator@PAVCHeaderDecorator@NEffectUpdateDecorator@@@0@@Z ENDP ; std::_Destroy_range<std::allocator<NEffectUpdateDecorator::CHeaderDecorator *> >
_TEXT	ENDS
; Function compile flags: /Ogtp
; File C:\Program Files (x86)\Microsoft Visual Studio\2019\Community\VC\Tools\MSVC\14.28.29333\include\xmemory
;	COMDAT ??$_Destroy_range@V?$allocator@PAVCInstanceBase@@@std@@@std@@YAXPAPAVCInstanceBase@@QAPAV1@AAV?$allocator@PAVCInstanceBase@@@0@@Z
_TEXT	SEGMENT
__First$ = 8						; size = 4
__Last$ = 12						; size = 4
__Al$ = 16						; size = 4
??$_Destroy_range@V?$allocator@PAVCInstanceBase@@@std@@@std@@YAXPAPAVCInstanceBase@@QAPAV1@AAV?$allocator@PAVCInstanceBase@@@0@@Z PROC ; std::_Destroy_range<std::allocator<CInstanceBase *> >, COMDAT

; 963  :     // note that this is an optimization for debug mode codegen; in release mode the BE removes all of this
; 964  :     using _Ty = typename _Alloc::value_type;
; 965  :     if _CONSTEXPR_IF (!conjunction_v<is_trivially_destructible<_Ty>, _Uses_default_destroy<_Alloc, _Ty*>>) {
; 966  :         for (; _First != _Last; ++_First) {
; 967  :             allocator_traits<_Alloc>::destroy(_Al, _Unfancy(_First));
; 968  :         }
; 969  :     }
; 970  : }

  00000	c2 00 00	 ret	 0
??$_Destroy_range@V?$allocator@PAVCInstanceBase@@@std@@@std@@YAXPAPAVCInstanceBase@@QAPAV1@AAV?$allocator@PAVCInstanceBase@@@0@@Z ENDP ; std::_Destroy_range<std::allocator<CInstanceBase *> >
_TEXT	ENDS
; Function compile flags: /Ogtp
;	COMDAT ??_G?$CDynamicPoolEx@VCHeaderDecorator@NEffectUpdateDecorator@@@@UAEPAXI@Z
_TEXT	SEGMENT
___flags$ = 8						; size = 4
??_G?$CDynamicPoolEx@VCHeaderDecorator@NEffectUpdateDecorator@@@@UAEPAXI@Z PROC ; CDynamicPoolEx<NEffectUpdateDecorator::CHeaderDecorator>::`scalar deleting destructor', COMDAT
; _this$ = ecx
  00000	55		 push	 ebp
  00001	8b ec		 mov	 ebp, esp
  00003	56		 push	 esi
  00004	8b f1		 mov	 esi, ecx
  00006	e8 00 00 00 00	 call	 ??1?$CDynamicPoolEx@VCHeaderDecorator@NEffectUpdateDecorator@@@@UAE@XZ ; CDynamicPoolEx<NEffectUpdateDecorator::CHeaderDecorator>::~CDynamicPoolEx<NEffectUpdateDecorator::CHeaderDecorator>
  0000b	f6 45 08 01	 test	 BYTE PTR ___flags$[ebp], 1
  0000f	74 0b		 je	 SHORT $LN4@scalar
  00011	6a 24		 push	 36			; 00000024H
  00013	56		 push	 esi
  00014	e8 00 00 00 00	 call	 ??3@YAXPAXI@Z		; operator delete
  00019	83 c4 08	 add	 esp, 8
$LN4@scalar:
  0001c	8b c6		 mov	 eax, esi
  0001e	5e		 pop	 esi
  0001f	5d		 pop	 ebp
  00020	c2 04 00	 ret	 4
??_G?$CDynamicPoolEx@VCHeaderDecorator@NEffectUpdateDecorator@@@@UAEPAXI@Z ENDP ; CDynamicPoolEx<NEffectUpdateDecorator::CHeaderDecorator>::`scalar deleting destructor'
_TEXT	ENDS
; Function compile flags: /Ogtp
; File D:\Metin2 Server Files\mainline\SRC_2014\Metin2Client\eterLib\Pool.h
;	COMDAT ?Delete@?$CDynamicPoolEx@VCHeaderDecorator@NEffectUpdateDecorator@@@@KAXPAVCHeaderDecorator@NEffectUpdateDecorator@@@Z
_TEXT	SEGMENT
_pkData$ = 8						; size = 4
?Delete@?$CDynamicPoolEx@VCHeaderDecorator@NEffectUpdateDecorator@@@@KAXPAVCHeaderDecorator@NEffectUpdateDecorator@@@Z PROC ; CDynamicPoolEx<NEffectUpdateDecorator::CHeaderDecorator>::Delete, COMDAT

; 224  : 			::operator delete(pkData);

  00000	e9 00 00 00 00	 jmp	 ??3@YAXPAX@Z		; operator delete
?Delete@?$CDynamicPoolEx@VCHeaderDecorator@NEffectUpdateDecorator@@@@KAXPAVCHeaderDecorator@NEffectUpdateDecorator@@@Z ENDP ; CDynamicPoolEx<NEffectUpdateDecorator::CHeaderDecorator>::Delete
_TEXT	ENDS
; Function compile flags: /Ogtp
; File D:\Metin2 Server Files\mainline\SRC_2014\Metin2Client\eterLib\Pool.h
; File C:\Program Files (x86)\Microsoft Visual Studio\2019\Community\VC\Tools\MSVC\14.28.29333\include\vector
; File C:\Program Files (x86)\Microsoft Visual Studio\2019\Community\VC\Tools\MSVC\14.28.29333\include\algorithm
; File D:\Metin2 Server Files\mainline\SRC_2014\Metin2Client\eterLib\Pool.h
; File C:\Program Files (x86)\Microsoft Visual Studio\2019\Community\VC\Tools\MSVC\14.28.29333\include\algorithm
; File D:\Metin2 Server Files\mainline\SRC_2014\Metin2Client\eterLib\Pool.h
; File C:\Program Files (x86)\Microsoft Visual Studio\2019\Community\VC\Tools\MSVC\14.28.29333\include\algorithm
; File D:\Metin2 Server Files\mainline\SRC_2014\Metin2Client\eterLib\Pool.h
; File C:\Program Files (x86)\Microsoft Visual Studio\2019\Community\VC\Tools\MSVC\14.28.29333\include\vector
; File C:\Program Files (x86)\Microsoft Visual Studio\2019\Community\VC\Tools\MSVC\14.28.29333\include\xmemory
; File C:\Program Files (x86)\Microsoft Visual Studio\2019\Community\VC\Tools\MSVC\14.28.29333\include\vector
; File C:\Program Files (x86)\Microsoft Visual Studio\2019\Community\VC\Tools\MSVC\14.28.29333\include\xmemory
; File C:\Program Files (x86)\Microsoft Visual Studio\2019\Community\VC\Tools\MSVC\14.28.29333\include\vector
; File C:\Program Files (x86)\Microsoft Visual Studio\2019\Community\VC\Tools\MSVC\14.28.29333\include\xmemory
; File C:\Program Files (x86)\Microsoft Visual Studio\2019\Community\VC\Tools\MSVC\14.28.29333\include\vector
; File C:\Program Files (x86)\Microsoft Visual Studio\2019\Community\VC\Tools\MSVC\14.28.29333\include\xmemory
; File C:\Program Files (x86)\Microsoft Visual Studio\2019\Community\VC\Tools\MSVC\14.28.29333\include\vector
; File D:\Metin2 Server Files\mainline\SRC_2014\Metin2Client\eterLib\Pool.h
;	COMDAT ??1?$CDynamicPoolEx@VCHeaderDecorator@NEffectUpdateDecorator@@@@UAE@XZ
_TEXT	SEGMENT
??1?$CDynamicPoolEx@VCHeaderDecorator@NEffectUpdateDecorator@@@@UAE@XZ PROC ; CDynamicPoolEx<NEffectUpdateDecorator::CHeaderDecorator>::~CDynamicPoolEx<NEffectUpdateDecorator::CHeaderDecorator>, COMDAT
; _this$ = ecx

; 132  : 		{

  00000	53		 push	 ebx
  00001	56		 push	 esi
  00002	57		 push	 edi
  00003	8b f9		 mov	 edi, ecx
  00005	c7 07 00 00 00
	00		 mov	 DWORD PTR [edi], OFFSET ??_7?$CDynamicPoolEx@VCHeaderDecorator@NEffectUpdateDecorator@@@@6B@
; File C:\Program Files (x86)\Microsoft Visual Studio\2019\Community\VC\Tools\MSVC\14.28.29333\include\vector

; 42   :     _Vector_const_iterator(_Tptr _Parg, const _Container_base* _Pvector) noexcept : _Ptr(_Parg) {

  0000b	8b 5f 08	 mov	 ebx, DWORD PTR [edi+8]
  0000e	8b 77 04	 mov	 esi, DWORD PTR [edi+4]
; File C:\Program Files (x86)\Microsoft Visual Studio\2019\Community\VC\Tools\MSVC\14.28.29333\include\algorithm

; 307  :     for (; _UFirst != _ULast; ++_UFirst) {

  00011	3b f3		 cmp	 esi, ebx
  00013	74 14		 je	 SHORT $LN19@CDynamicPo
$LL20@CDynamicPo:
; File D:\Metin2 Server Files\mainline\SRC_2014\Metin2Client\eterLib\Pool.h

; 224  : 			::operator delete(pkData);

  00015	ff 36		 push	 DWORD PTR [esi]
  00017	e8 00 00 00 00	 call	 ??3@YAXPAX@Z		; operator delete
; File C:\Program Files (x86)\Microsoft Visual Studio\2019\Community\VC\Tools\MSVC\14.28.29333\include\algorithm

; 307  :     for (; _UFirst != _ULast; ++_UFirst) {

  0001c	83 c6 04	 add	 esi, 4
; File D:\Metin2 Server Files\mainline\SRC_2014\Metin2Client\eterLib\Pool.h

; 224  : 			::operator delete(pkData);

  0001f	83 c4 04	 add	 esp, 4
; File C:\Program Files (x86)\Microsoft Visual Studio\2019\Community\VC\Tools\MSVC\14.28.29333\include\algorithm

; 307  :     for (; _UFirst != _ULast; ++_UFirst) {

  00022	3b f3		 cmp	 esi, ebx
  00024	75 ef		 jne	 SHORT $LL20@CDynamicPo
  00026	8b 77 04	 mov	 esi, DWORD PTR [edi+4]
$LN19@CDynamicPo:
; File D:\Metin2 Server Files\mainline\SRC_2014\Metin2Client\eterLib\Pool.h

; 162  : 			m_kVct_pkFree.clear();

  00029	8b 4f 10	 mov	 ecx, DWORD PTR [edi+16]
  0002c	89 77 08	 mov	 DWORD PTR [edi+8], esi
  0002f	89 4f 14	 mov	 DWORD PTR [edi+20], ecx
; File C:\Program Files (x86)\Microsoft Visual Studio\2019\Community\VC\Tools\MSVC\14.28.29333\include\vector

; 1694 :         if (_Myfirst) { // destroy and deallocate old array

  00032	85 c9		 test	 ecx, ecx
  00034	74 27		 je	 SHORT $LN27@CDynamicPo

; 1695 :             _Destroy(_Myfirst, _Mylast);
; 1696 :             _Getal().deallocate(_Myfirst, static_cast<size_type>(_Myend - _Myfirst));

  00036	8b 47 18	 mov	 eax, DWORD PTR [edi+24]
  00039	2b c1		 sub	 eax, ecx
; File C:\Program Files (x86)\Microsoft Visual Studio\2019\Community\VC\Tools\MSVC\14.28.29333\include\xmemory

; 810  :         _Deallocate<_New_alignof<_Ty>>(_Ptr, sizeof(_Ty) * _Count);

  0003b	83 e0 fc	 and	 eax, -4			; fffffffcH
  0003e	50		 push	 eax
  0003f	51		 push	 ecx
  00040	e8 00 00 00 00	 call	 ??$_Deallocate@$07$0A@@std@@YAXPAXI@Z ; std::_Deallocate<8,0>
; File C:\Program Files (x86)\Microsoft Visual Studio\2019\Community\VC\Tools\MSVC\14.28.29333\include\vector

; 1698 :             _Myfirst = pointer();

  00045	c7 47 10 00 00
	00 00		 mov	 DWORD PTR [edi+16], 0
; File C:\Program Files (x86)\Microsoft Visual Studio\2019\Community\VC\Tools\MSVC\14.28.29333\include\xmemory

; 810  :         _Deallocate<_New_alignof<_Ty>>(_Ptr, sizeof(_Ty) * _Count);

  0004c	83 c4 08	 add	 esp, 8
; File C:\Program Files (x86)\Microsoft Visual Studio\2019\Community\VC\Tools\MSVC\14.28.29333\include\vector

; 1699 :             _Mylast  = pointer();

  0004f	c7 47 14 00 00
	00 00		 mov	 DWORD PTR [edi+20], 0

; 1700 :             _Myend   = pointer();

  00056	c7 47 18 00 00
	00 00		 mov	 DWORD PTR [edi+24], 0
$LN27@CDynamicPo:

; 1694 :         if (_Myfirst) { // destroy and deallocate old array

  0005d	8b 4f 04	 mov	 ecx, DWORD PTR [edi+4]
  00060	85 c9		 test	 ecx, ecx
  00062	74 27		 je	 SHORT $LN34@CDynamicPo

; 1695 :             _Destroy(_Myfirst, _Mylast);
; 1696 :             _Getal().deallocate(_Myfirst, static_cast<size_type>(_Myend - _Myfirst));

  00064	8b 47 0c	 mov	 eax, DWORD PTR [edi+12]
  00067	2b c1		 sub	 eax, ecx
; File C:\Program Files (x86)\Microsoft Visual Studio\2019\Community\VC\Tools\MSVC\14.28.29333\include\xmemory

; 810  :         _Deallocate<_New_alignof<_Ty>>(_Ptr, sizeof(_Ty) * _Count);

  00069	83 e0 fc	 and	 eax, -4			; fffffffcH
  0006c	50		 push	 eax
  0006d	51		 push	 ecx
  0006e	e8 00 00 00 00	 call	 ??$_Deallocate@$07$0A@@std@@YAXPAXI@Z ; std::_Deallocate<8,0>
; File C:\Program Files (x86)\Microsoft Visual Studio\2019\Community\VC\Tools\MSVC\14.28.29333\include\vector

; 1698 :             _Myfirst = pointer();

  00073	c7 47 04 00 00
	00 00		 mov	 DWORD PTR [edi+4], 0
; File C:\Program Files (x86)\Microsoft Visual Studio\2019\Community\VC\Tools\MSVC\14.28.29333\include\xmemory

; 810  :         _Deallocate<_New_alignof<_Ty>>(_Ptr, sizeof(_Ty) * _Count);

  0007a	83 c4 08	 add	 esp, 8
; File C:\Program Files (x86)\Microsoft Visual Studio\2019\Community\VC\Tools\MSVC\14.28.29333\include\vector

; 1699 :             _Mylast  = pointer();

  0007d	c7 47 08 00 00
	00 00		 mov	 DWORD PTR [edi+8], 0

; 1700 :             _Myend   = pointer();

  00084	c7 47 0c 00 00
	00 00		 mov	 DWORD PTR [edi+12], 0
$LN34@CDynamicPo:
  0008b	5f		 pop	 edi
; File D:\Metin2 Server Files\mainline\SRC_2014\Metin2Client\eterLib\Pool.h

; 142  : 		}

  0008c	5e		 pop	 esi
  0008d	5b		 pop	 ebx
  0008e	c3		 ret	 0
??1?$CDynamicPoolEx@VCHeaderDecorator@NEffectUpdateDecorator@@@@UAE@XZ ENDP ; CDynamicPoolEx<NEffectUpdateDecorator::CHeaderDecorator>::~CDynamicPoolEx<NEffectUpdateDecorator::CHeaderDecorator>
_TEXT	ENDS
; Function compile flags: /Ogtp
;	COMDAT ??_G?$CDynamicPoolEx@VCNullDecorator@NEffectUpdateDecorator@@@@UAEPAXI@Z
_TEXT	SEGMENT
___flags$ = 8						; size = 4
??_G?$CDynamicPoolEx@VCNullDecorator@NEffectUpdateDecorator@@@@UAEPAXI@Z PROC ; CDynamicPoolEx<NEffectUpdateDecorator::CNullDecorator>::`scalar deleting destructor', COMDAT
; _this$ = ecx
  00000	55		 push	 ebp
  00001	8b ec		 mov	 ebp, esp
  00003	56		 push	 esi
  00004	8b f1		 mov	 esi, ecx
  00006	e8 00 00 00 00	 call	 ??1?$CDynamicPoolEx@VCNullDecorator@NEffectUpdateDecorator@@@@UAE@XZ ; CDynamicPoolEx<NEffectUpdateDecorator::CNullDecorator>::~CDynamicPoolEx<NEffectUpdateDecorator::CNullDecorator>
  0000b	f6 45 08 01	 test	 BYTE PTR ___flags$[ebp], 1
  0000f	74 0b		 je	 SHORT $LN4@scalar
  00011	6a 24		 push	 36			; 00000024H
  00013	56		 push	 esi
  00014	e8 00 00 00 00	 call	 ??3@YAXPAXI@Z		; operator delete
  00019	83 c4 08	 add	 esp, 8
$LN4@scalar:
  0001c	8b c6		 mov	 eax, esi
  0001e	5e		 pop	 esi
  0001f	5d		 pop	 ebp
  00020	c2 04 00	 ret	 4
??_G?$CDynamicPoolEx@VCNullDecorator@NEffectUpdateDecorator@@@@UAEPAXI@Z ENDP ; CDynamicPoolEx<NEffectUpdateDecorator::CNullDecorator>::`scalar deleting destructor'
_TEXT	ENDS
; Function compile flags: /Ogtp
; File D:\Metin2 Server Files\mainline\SRC_2014\Metin2Client\eterLib\Pool.h
;	COMDAT ?Delete@?$CDynamicPoolEx@VCNullDecorator@NEffectUpdateDecorator@@@@KAXPAVCNullDecorator@NEffectUpdateDecorator@@@Z
_TEXT	SEGMENT
_pkData$ = 8						; size = 4
?Delete@?$CDynamicPoolEx@VCNullDecorator@NEffectUpdateDecorator@@@@KAXPAVCNullDecorator@NEffectUpdateDecorator@@@Z PROC ; CDynamicPoolEx<NEffectUpdateDecorator::CNullDecorator>::Delete, COMDAT

; 224  : 			::operator delete(pkData);

  00000	e9 00 00 00 00	 jmp	 ??3@YAXPAX@Z		; operator delete
?Delete@?$CDynamicPoolEx@VCNullDecorator@NEffectUpdateDecorator@@@@KAXPAVCNullDecorator@NEffectUpdateDecorator@@@Z ENDP ; CDynamicPoolEx<NEffectUpdateDecorator::CNullDecorator>::Delete
_TEXT	ENDS
; Function compile flags: /Ogtp
; File D:\Metin2 Server Files\mainline\SRC_2014\Metin2Client\eterLib\Pool.h
; File C:\Program Files (x86)\Microsoft Visual Studio\2019\Community\VC\Tools\MSVC\14.28.29333\include\vector
; File C:\Program Files (x86)\Microsoft Visual Studio\2019\Community\VC\Tools\MSVC\14.28.29333\include\algorithm
; File D:\Metin2 Server Files\mainline\SRC_2014\Metin2Client\eterLib\Pool.h
; File C:\Program Files (x86)\Microsoft Visual Studio\2019\Community\VC\Tools\MSVC\14.28.29333\include\algorithm
; File D:\Metin2 Server Files\mainline\SRC_2014\Metin2Client\eterLib\Pool.h
; File C:\Program Files (x86)\Microsoft Visual Studio\2019\Community\VC\Tools\MSVC\14.28.29333\include\algorithm
; File D:\Metin2 Server Files\mainline\SRC_2014\Metin2Client\eterLib\Pool.h
; File C:\Program Files (x86)\Microsoft Visual Studio\2019\Community\VC\Tools\MSVC\14.28.29333\include\vector
; File C:\Program Files (x86)\Microsoft Visual Studio\2019\Community\VC\Tools\MSVC\14.28.29333\include\xmemory
; File C:\Program Files (x86)\Microsoft Visual Studio\2019\Community\VC\Tools\MSVC\14.28.29333\include\vector
; File C:\Program Files (x86)\Microsoft Visual Studio\2019\Community\VC\Tools\MSVC\14.28.29333\include\xmemory
; File C:\Program Files (x86)\Microsoft Visual Studio\2019\Community\VC\Tools\MSVC\14.28.29333\include\vector
; File C:\Program Files (x86)\Microsoft Visual Studio\2019\Community\VC\Tools\MSVC\14.28.29333\include\xmemory
; File C:\Program Files (x86)\Microsoft Visual Studio\2019\Community\VC\Tools\MSVC\14.28.29333\include\vector
; File C:\Program Files (x86)\Microsoft Visual Studio\2019\Community\VC\Tools\MSVC\14.28.29333\include\xmemory
; File C:\Program Files (x86)\Microsoft Visual Studio\2019\Community\VC\Tools\MSVC\14.28.29333\include\vector
; File D:\Metin2 Server Files\mainline\SRC_2014\Metin2Client\eterLib\Pool.h
;	COMDAT ??1?$CDynamicPoolEx@VCNullDecorator@NEffectUpdateDecorator@@@@UAE@XZ
_TEXT	SEGMENT
??1?$CDynamicPoolEx@VCNullDecorator@NEffectUpdateDecorator@@@@UAE@XZ PROC ; CDynamicPoolEx<NEffectUpdateDecorator::CNullDecorator>::~CDynamicPoolEx<NEffectUpdateDecorator::CNullDecorator>, COMDAT
; _this$ = ecx

; 132  : 		{

  00000	53		 push	 ebx
  00001	56		 push	 esi
  00002	57		 push	 edi
  00003	8b f9		 mov	 edi, ecx
  00005	c7 07 00 00 00
	00		 mov	 DWORD PTR [edi], OFFSET ??_7?$CDynamicPoolEx@VCNullDecorator@NEffectUpdateDecorator@@@@6B@
; File C:\Program Files (x86)\Microsoft Visual Studio\2019\Community\VC\Tools\MSVC\14.28.29333\include\vector

; 42   :     _Vector_const_iterator(_Tptr _Parg, const _Container_base* _Pvector) noexcept : _Ptr(_Parg) {

  0000b	8b 5f 08	 mov	 ebx, DWORD PTR [edi+8]
  0000e	8b 77 04	 mov	 esi, DWORD PTR [edi+4]
; File C:\Program Files (x86)\Microsoft Visual Studio\2019\Community\VC\Tools\MSVC\14.28.29333\include\algorithm

; 307  :     for (; _UFirst != _ULast; ++_UFirst) {

  00011	3b f3		 cmp	 esi, ebx
  00013	74 14		 je	 SHORT $LN19@CDynamicPo
$LL20@CDynamicPo:
; File D:\Metin2 Server Files\mainline\SRC_2014\Metin2Client\eterLib\Pool.h

; 224  : 			::operator delete(pkData);

  00015	ff 36		 push	 DWORD PTR [esi]
  00017	e8 00 00 00 00	 call	 ??3@YAXPAX@Z		; operator delete
; File C:\Program Files (x86)\Microsoft Visual Studio\2019\Community\VC\Tools\MSVC\14.28.29333\include\algorithm

; 307  :     for (; _UFirst != _ULast; ++_UFirst) {

  0001c	83 c6 04	 add	 esi, 4
; File D:\Metin2 Server Files\mainline\SRC_2014\Metin2Client\eterLib\Pool.h

; 224  : 			::operator delete(pkData);

  0001f	83 c4 04	 add	 esp, 4
; File C:\Program Files (x86)\Microsoft Visual Studio\2019\Community\VC\Tools\MSVC\14.28.29333\include\algorithm

; 307  :     for (; _UFirst != _ULast; ++_UFirst) {

  00022	3b f3		 cmp	 esi, ebx
  00024	75 ef		 jne	 SHORT $LL20@CDynamicPo
  00026	8b 77 04	 mov	 esi, DWORD PTR [edi+4]
$LN19@CDynamicPo:
; File D:\Metin2 Server Files\mainline\SRC_2014\Metin2Client\eterLib\Pool.h

; 162  : 			m_kVct_pkFree.clear();

  00029	8b 4f 10	 mov	 ecx, DWORD PTR [edi+16]
  0002c	89 77 08	 mov	 DWORD PTR [edi+8], esi
  0002f	89 4f 14	 mov	 DWORD PTR [edi+20], ecx
; File C:\Program Files (x86)\Microsoft Visual Studio\2019\Community\VC\Tools\MSVC\14.28.29333\include\vector

; 1694 :         if (_Myfirst) { // destroy and deallocate old array

  00032	85 c9		 test	 ecx, ecx
  00034	74 27		 je	 SHORT $LN27@CDynamicPo

; 1695 :             _Destroy(_Myfirst, _Mylast);
; 1696 :             _Getal().deallocate(_Myfirst, static_cast<size_type>(_Myend - _Myfirst));

  00036	8b 47 18	 mov	 eax, DWORD PTR [edi+24]
  00039	2b c1		 sub	 eax, ecx
; File C:\Program Files (x86)\Microsoft Visual Studio\2019\Community\VC\Tools\MSVC\14.28.29333\include\xmemory

; 810  :         _Deallocate<_New_alignof<_Ty>>(_Ptr, sizeof(_Ty) * _Count);

  0003b	83 e0 fc	 and	 eax, -4			; fffffffcH
  0003e	50		 push	 eax
  0003f	51		 push	 ecx
  00040	e8 00 00 00 00	 call	 ??$_Deallocate@$07$0A@@std@@YAXPAXI@Z ; std::_Deallocate<8,0>
; File C:\Program Files (x86)\Microsoft Visual Studio\2019\Community\VC\Tools\MSVC\14.28.29333\include\vector

; 1698 :             _Myfirst = pointer();

  00045	c7 47 10 00 00
	00 00		 mov	 DWORD PTR [edi+16], 0
; File C:\Program Files (x86)\Microsoft Visual Studio\2019\Community\VC\Tools\MSVC\14.28.29333\include\xmemory

; 810  :         _Deallocate<_New_alignof<_Ty>>(_Ptr, sizeof(_Ty) * _Count);

  0004c	83 c4 08	 add	 esp, 8
; File C:\Program Files (x86)\Microsoft Visual Studio\2019\Community\VC\Tools\MSVC\14.28.29333\include\vector

; 1699 :             _Mylast  = pointer();

  0004f	c7 47 14 00 00
	00 00		 mov	 DWORD PTR [edi+20], 0

; 1700 :             _Myend   = pointer();

  00056	c7 47 18 00 00
	00 00		 mov	 DWORD PTR [edi+24], 0
$LN27@CDynamicPo:

; 1694 :         if (_Myfirst) { // destroy and deallocate old array

  0005d	8b 4f 04	 mov	 ecx, DWORD PTR [edi+4]
  00060	85 c9		 test	 ecx, ecx
  00062	74 27		 je	 SHORT $LN34@CDynamicPo

; 1695 :             _Destroy(_Myfirst, _Mylast);
; 1696 :             _Getal().deallocate(_Myfirst, static_cast<size_type>(_Myend - _Myfirst));

  00064	8b 47 0c	 mov	 eax, DWORD PTR [edi+12]
  00067	2b c1		 sub	 eax, ecx
; File C:\Program Files (x86)\Microsoft Visual Studio\2019\Community\VC\Tools\MSVC\14.28.29333\include\xmemory

; 810  :         _Deallocate<_New_alignof<_Ty>>(_Ptr, sizeof(_Ty) * _Count);

  00069	83 e0 fc	 and	 eax, -4			; fffffffcH
  0006c	50		 push	 eax
  0006d	51		 push	 ecx
  0006e	e8 00 00 00 00	 call	 ??$_Deallocate@$07$0A@@std@@YAXPAXI@Z ; std::_Deallocate<8,0>
; File C:\Program Files (x86)\Microsoft Visual Studio\2019\Community\VC\Tools\MSVC\14.28.29333\include\vector

; 1698 :             _Myfirst = pointer();

  00073	c7 47 04 00 00
	00 00		 mov	 DWORD PTR [edi+4], 0
; File C:\Program Files (x86)\Microsoft Visual Studio\2019\Community\VC\Tools\MSVC\14.28.29333\include\xmemory

; 810  :         _Deallocate<_New_alignof<_Ty>>(_Ptr, sizeof(_Ty) * _Count);

  0007a	83 c4 08	 add	 esp, 8
; File C:\Program Files (x86)\Microsoft Visual Studio\2019\Community\VC\Tools\MSVC\14.28.29333\include\vector

; 1699 :             _Mylast  = pointer();

  0007d	c7 47 08 00 00
	00 00		 mov	 DWORD PTR [edi+8], 0

; 1700 :             _Myend   = pointer();

  00084	c7 47 0c 00 00
	00 00		 mov	 DWORD PTR [edi+12], 0
$LN34@CDynamicPo:
  0008b	5f		 pop	 edi
; File D:\Metin2 Server Files\mainline\SRC_2014\Metin2Client\eterLib\Pool.h

; 142  : 		}

  0008c	5e		 pop	 esi
  0008d	5b		 pop	 ebx
  0008e	c3		 ret	 0
??1?$CDynamicPoolEx@VCNullDecorator@NEffectUpdateDecorator@@@@UAE@XZ ENDP ; CDynamicPoolEx<NEffectUpdateDecorator::CNullDecorator>::~CDynamicPoolEx<NEffectUpdateDecorator::CNullDecorator>
_TEXT	ENDS
; Function compile flags: /Ogtp
;	COMDAT ??_G?$CDynamicPoolEx@VCTextureAnimationCWDecorator@NEffectUpdateDecorator@@@@UAEPAXI@Z
_TEXT	SEGMENT
___flags$ = 8						; size = 4
??_G?$CDynamicPoolEx@VCTextureAnimationCWDecorator@NEffectUpdateDecorator@@@@UAEPAXI@Z PROC ; CDynamicPoolEx<NEffectUpdateDecorator::CTextureAnimationCWDecorator>::`scalar deleting destructor', COMDAT
; _this$ = ecx
  00000	55		 push	 ebp
  00001	8b ec		 mov	 ebp, esp
  00003	56		 push	 esi
  00004	8b f1		 mov	 esi, ecx
  00006	e8 00 00 00 00	 call	 ??1?$CDynamicPoolEx@VCTextureAnimationCWDecorator@NEffectUpdateDecorator@@@@UAE@XZ ; CDynamicPoolEx<NEffectUpdateDecorator::CTextureAnimationCWDecorator>::~CDynamicPoolEx<NEffectUpdateDecorator::CTextureAnimationCWDecorator>
  0000b	f6 45 08 01	 test	 BYTE PTR ___flags$[ebp], 1
  0000f	74 0b		 je	 SHORT $LN4@scalar
  00011	6a 24		 push	 36			; 00000024H
  00013	56		 push	 esi
  00014	e8 00 00 00 00	 call	 ??3@YAXPAXI@Z		; operator delete
  00019	83 c4 08	 add	 esp, 8
$LN4@scalar:
  0001c	8b c6		 mov	 eax, esi
  0001e	5e		 pop	 esi
  0001f	5d		 pop	 ebp
  00020	c2 04 00	 ret	 4
??_G?$CDynamicPoolEx@VCTextureAnimationCWDecorator@NEffectUpdateDecorator@@@@UAEPAXI@Z ENDP ; CDynamicPoolEx<NEffectUpdateDecorator::CTextureAnimationCWDecorator>::`scalar deleting destructor'
_TEXT	ENDS
; Function compile flags: /Ogtp
; File D:\Metin2 Server Files\mainline\SRC_2014\Metin2Client\eterLib\Pool.h
;	COMDAT ?Delete@?$CDynamicPoolEx@VCTextureAnimationCWDecorator@NEffectUpdateDecorator@@@@KAXPAVCTextureAnimationCWDecorator@NEffectUpdateDecorator@@@Z
_TEXT	SEGMENT
_pkData$ = 8						; size = 4
?Delete@?$CDynamicPoolEx@VCTextureAnimationCWDecorator@NEffectUpdateDecorator@@@@KAXPAVCTextureAnimationCWDecorator@NEffectUpdateDecorator@@@Z PROC ; CDynamicPoolEx<NEffectUpdateDecorator::CTextureAnimationCWDecorator>::Delete, COMDAT

; 224  : 			::operator delete(pkData);

  00000	e9 00 00 00 00	 jmp	 ??3@YAXPAX@Z		; operator delete
?Delete@?$CDynamicPoolEx@VCTextureAnimationCWDecorator@NEffectUpdateDecorator@@@@KAXPAVCTextureAnimationCWDecorator@NEffectUpdateDecorator@@@Z ENDP ; CDynamicPoolEx<NEffectUpdateDecorator::CTextureAnimationCWDecorator>::Delete
_TEXT	ENDS
; Function compile flags: /Ogtp
; File D:\Metin2 Server Files\mainline\SRC_2014\Metin2Client\eterLib\Pool.h
; File C:\Program Files (x86)\Microsoft Visual Studio\2019\Community\VC\Tools\MSVC\14.28.29333\include\vector
; File C:\Program Files (x86)\Microsoft Visual Studio\2019\Community\VC\Tools\MSVC\14.28.29333\include\algorithm
; File D:\Metin2 Server Files\mainline\SRC_2014\Metin2Client\eterLib\Pool.h
; File C:\Program Files (x86)\Microsoft Visual Studio\2019\Community\VC\Tools\MSVC\14.28.29333\include\algorithm
; File D:\Metin2 Server Files\mainline\SRC_2014\Metin2Client\eterLib\Pool.h
; File C:\Program Files (x86)\Microsoft Visual Studio\2019\Community\VC\Tools\MSVC\14.28.29333\include\algorithm
; File D:\Metin2 Server Files\mainline\SRC_2014\Metin2Client\eterLib\Pool.h
; File C:\Program Files (x86)\Microsoft Visual Studio\2019\Community\VC\Tools\MSVC\14.28.29333\include\vector
; File C:\Program Files (x86)\Microsoft Visual Studio\2019\Community\VC\Tools\MSVC\14.28.29333\include\xmemory
; File C:\Program Files (x86)\Microsoft Visual Studio\2019\Community\VC\Tools\MSVC\14.28.29333\include\vector
; File C:\Program Files (x86)\Microsoft Visual Studio\2019\Community\VC\Tools\MSVC\14.28.29333\include\xmemory
; File C:\Program Files (x86)\Microsoft Visual Studio\2019\Community\VC\Tools\MSVC\14.28.29333\include\vector
; File C:\Program Files (x86)\Microsoft Visual Studio\2019\Community\VC\Tools\MSVC\14.28.29333\include\xmemory
; File C:\Program Files (x86)\Microsoft Visual Studio\2019\Community\VC\Tools\MSVC\14.28.29333\include\vector
; File C:\Program Files (x86)\Microsoft Visual Studio\2019\Community\VC\Tools\MSVC\14.28.29333\include\xmemory
; File C:\Program Files (x86)\Microsoft Visual Studio\2019\Community\VC\Tools\MSVC\14.28.29333\include\vector
; File D:\Metin2 Server Files\mainline\SRC_2014\Metin2Client\eterLib\Pool.h
;	COMDAT ??1?$CDynamicPoolEx@VCTextureAnimationCWDecorator@NEffectUpdateDecorator@@@@UAE@XZ
_TEXT	SEGMENT
??1?$CDynamicPoolEx@VCTextureAnimationCWDecorator@NEffectUpdateDecorator@@@@UAE@XZ PROC ; CDynamicPoolEx<NEffectUpdateDecorator::CTextureAnimationCWDecorator>::~CDynamicPoolEx<NEffectUpdateDecorator::CTextureAnimationCWDecorator>, COMDAT
; _this$ = ecx

; 132  : 		{

  00000	53		 push	 ebx
  00001	56		 push	 esi
  00002	57		 push	 edi
  00003	8b f9		 mov	 edi, ecx
  00005	c7 07 00 00 00
	00		 mov	 DWORD PTR [edi], OFFSET ??_7?$CDynamicPoolEx@VCTextureAnimationCWDecorator@NEffectUpdateDecorator@@@@6B@
; File C:\Program Files (x86)\Microsoft Visual Studio\2019\Community\VC\Tools\MSVC\14.28.29333\include\vector

; 42   :     _Vector_const_iterator(_Tptr _Parg, const _Container_base* _Pvector) noexcept : _Ptr(_Parg) {

  0000b	8b 5f 08	 mov	 ebx, DWORD PTR [edi+8]
  0000e	8b 77 04	 mov	 esi, DWORD PTR [edi+4]
; File C:\Program Files (x86)\Microsoft Visual Studio\2019\Community\VC\Tools\MSVC\14.28.29333\include\algorithm

; 307  :     for (; _UFirst != _ULast; ++_UFirst) {

  00011	3b f3		 cmp	 esi, ebx
  00013	74 14		 je	 SHORT $LN19@CDynamicPo
$LL20@CDynamicPo:
; File D:\Metin2 Server Files\mainline\SRC_2014\Metin2Client\eterLib\Pool.h

; 224  : 			::operator delete(pkData);

  00015	ff 36		 push	 DWORD PTR [esi]
  00017	e8 00 00 00 00	 call	 ??3@YAXPAX@Z		; operator delete
; File C:\Program Files (x86)\Microsoft Visual Studio\2019\Community\VC\Tools\MSVC\14.28.29333\include\algorithm

; 307  :     for (; _UFirst != _ULast; ++_UFirst) {

  0001c	83 c6 04	 add	 esi, 4
; File D:\Metin2 Server Files\mainline\SRC_2014\Metin2Client\eterLib\Pool.h

; 224  : 			::operator delete(pkData);

  0001f	83 c4 04	 add	 esp, 4
; File C:\Program Files (x86)\Microsoft Visual Studio\2019\Community\VC\Tools\MSVC\14.28.29333\include\algorithm

; 307  :     for (; _UFirst != _ULast; ++_UFirst) {

  00022	3b f3		 cmp	 esi, ebx
  00024	75 ef		 jne	 SHORT $LL20@CDynamicPo
  00026	8b 77 04	 mov	 esi, DWORD PTR [edi+4]
$LN19@CDynamicPo:
; File D:\Metin2 Server Files\mainline\SRC_2014\Metin2Client\eterLib\Pool.h

; 162  : 			m_kVct_pkFree.clear();

  00029	8b 4f 10	 mov	 ecx, DWORD PTR [edi+16]
  0002c	89 77 08	 mov	 DWORD PTR [edi+8], esi
  0002f	89 4f 14	 mov	 DWORD PTR [edi+20], ecx
; File C:\Program Files (x86)\Microsoft Visual Studio\2019\Community\VC\Tools\MSVC\14.28.29333\include\vector

; 1694 :         if (_Myfirst) { // destroy and deallocate old array

  00032	85 c9		 test	 ecx, ecx
  00034	74 27		 je	 SHORT $LN27@CDynamicPo

; 1695 :             _Destroy(_Myfirst, _Mylast);
; 1696 :             _Getal().deallocate(_Myfirst, static_cast<size_type>(_Myend - _Myfirst));

  00036	8b 47 18	 mov	 eax, DWORD PTR [edi+24]
  00039	2b c1		 sub	 eax, ecx
; File C:\Program Files (x86)\Microsoft Visual Studio\2019\Community\VC\Tools\MSVC\14.28.29333\include\xmemory

; 810  :         _Deallocate<_New_alignof<_Ty>>(_Ptr, sizeof(_Ty) * _Count);

  0003b	83 e0 fc	 and	 eax, -4			; fffffffcH
  0003e	50		 push	 eax
  0003f	51		 push	 ecx
  00040	e8 00 00 00 00	 call	 ??$_Deallocate@$07$0A@@std@@YAXPAXI@Z ; std::_Deallocate<8,0>
; File C:\Program Files (x86)\Microsoft Visual Studio\2019\Community\VC\Tools\MSVC\14.28.29333\include\vector

; 1698 :             _Myfirst = pointer();

  00045	c7 47 10 00 00
	00 00		 mov	 DWORD PTR [edi+16], 0
; File C:\Program Files (x86)\Microsoft Visual Studio\2019\Community\VC\Tools\MSVC\14.28.29333\include\xmemory

; 810  :         _Deallocate<_New_alignof<_Ty>>(_Ptr, sizeof(_Ty) * _Count);

  0004c	83 c4 08	 add	 esp, 8
; File C:\Program Files (x86)\Microsoft Visual Studio\2019\Community\VC\Tools\MSVC\14.28.29333\include\vector

; 1699 :             _Mylast  = pointer();

  0004f	c7 47 14 00 00
	00 00		 mov	 DWORD PTR [edi+20], 0

; 1700 :             _Myend   = pointer();

  00056	c7 47 18 00 00
	00 00		 mov	 DWORD PTR [edi+24], 0
$LN27@CDynamicPo:

; 1694 :         if (_Myfirst) { // destroy and deallocate old array

  0005d	8b 4f 04	 mov	 ecx, DWORD PTR [edi+4]
  00060	85 c9		 test	 ecx, ecx
  00062	74 27		 je	 SHORT $LN34@CDynamicPo

; 1695 :             _Destroy(_Myfirst, _Mylast);
; 1696 :             _Getal().deallocate(_Myfirst, static_cast<size_type>(_Myend - _Myfirst));

  00064	8b 47 0c	 mov	 eax, DWORD PTR [edi+12]
  00067	2b c1		 sub	 eax, ecx
; File C:\Program Files (x86)\Microsoft Visual Studio\2019\Community\VC\Tools\MSVC\14.28.29333\include\xmemory

; 810  :         _Deallocate<_New_alignof<_Ty>>(_Ptr, sizeof(_Ty) * _Count);

  00069	83 e0 fc	 and	 eax, -4			; fffffffcH
  0006c	50		 push	 eax
  0006d	51		 push	 ecx
  0006e	e8 00 00 00 00	 call	 ??$_Deallocate@$07$0A@@std@@YAXPAXI@Z ; std::_Deallocate<8,0>
; File C:\Program Files (x86)\Microsoft Visual Studio\2019\Community\VC\Tools\MSVC\14.28.29333\include\vector

; 1698 :             _Myfirst = pointer();

  00073	c7 47 04 00 00
	00 00		 mov	 DWORD PTR [edi+4], 0
; File C:\Program Files (x86)\Microsoft Visual Studio\2019\Community\VC\Tools\MSVC\14.28.29333\include\xmemory

; 810  :         _Deallocate<_New_alignof<_Ty>>(_Ptr, sizeof(_Ty) * _Count);

  0007a	83 c4 08	 add	 esp, 8
; File C:\Program Files (x86)\Microsoft Visual Studio\2019\Community\VC\Tools\MSVC\14.28.29333\include\vector

; 1699 :             _Mylast  = pointer();

  0007d	c7 47 08 00 00
	00 00		 mov	 DWORD PTR [edi+8], 0

; 1700 :             _Myend   = pointer();

  00084	c7 47 0c 00 00
	00 00		 mov	 DWORD PTR [edi+12], 0
$LN34@CDynamicPo:
  0008b	5f		 pop	 edi
; File D:\Metin2 Server Files\mainline\SRC_2014\Metin2Client\eterLib\Pool.h

; 142  : 		}

  0008c	5e		 pop	 esi
  0008d	5b		 pop	 ebx
  0008e	c3		 ret	 0
??1?$CDynamicPoolEx@VCTextureAnimationCWDecorator@NEffectUpdateDecorator@@@@UAE@XZ ENDP ; CDynamicPoolEx<NEffectUpdateDecorator::CTextureAnimationCWDecorator>::~CDynamicPoolEx<NEffectUpdateDecorator::CTextureAnimationCWDecorator>
_TEXT	ENDS
; Function compile flags: /Ogtp
;	COMDAT ??_G?$CDynamicPoolEx@VCTextureAnimationCCWDecorator@NEffectUpdateDecorator@@@@UAEPAXI@Z
_TEXT	SEGMENT
___flags$ = 8						; size = 4
??_G?$CDynamicPoolEx@VCTextureAnimationCCWDecorator@NEffectUpdateDecorator@@@@UAEPAXI@Z PROC ; CDynamicPoolEx<NEffectUpdateDecorator::CTextureAnimationCCWDecorator>::`scalar deleting destructor', COMDAT
; _this$ = ecx
  00000	55		 push	 ebp
  00001	8b ec		 mov	 ebp, esp
  00003	56		 push	 esi
  00004	8b f1		 mov	 esi, ecx
  00006	e8 00 00 00 00	 call	 ??1?$CDynamicPoolEx@VCTextureAnimationCCWDecorator@NEffectUpdateDecorator@@@@UAE@XZ ; CDynamicPoolEx<NEffectUpdateDecorator::CTextureAnimationCCWDecorator>::~CDynamicPoolEx<NEffectUpdateDecorator::CTextureAnimationCCWDecorator>
  0000b	f6 45 08 01	 test	 BYTE PTR ___flags$[ebp], 1
  0000f	74 0b		 je	 SHORT $LN4@scalar
  00011	6a 24		 push	 36			; 00000024H
  00013	56		 push	 esi
  00014	e8 00 00 00 00	 call	 ??3@YAXPAXI@Z		; operator delete
  00019	83 c4 08	 add	 esp, 8
$LN4@scalar:
  0001c	8b c6		 mov	 eax, esi
  0001e	5e		 pop	 esi
  0001f	5d		 pop	 ebp
  00020	c2 04 00	 ret	 4
??_G?$CDynamicPoolEx@VCTextureAnimationCCWDecorator@NEffectUpdateDecorator@@@@UAEPAXI@Z ENDP ; CDynamicPoolEx<NEffectUpdateDecorator::CTextureAnimationCCWDecorator>::`scalar deleting destructor'
_TEXT	ENDS
; Function compile flags: /Ogtp
; File D:\Metin2 Server Files\mainline\SRC_2014\Metin2Client\eterLib\Pool.h
;	COMDAT ?Delete@?$CDynamicPoolEx@VCTextureAnimationCCWDecorator@NEffectUpdateDecorator@@@@KAXPAVCTextureAnimationCCWDecorator@NEffectUpdateDecorator@@@Z
_TEXT	SEGMENT
_pkData$ = 8						; size = 4
?Delete@?$CDynamicPoolEx@VCTextureAnimationCCWDecorator@NEffectUpdateDecorator@@@@KAXPAVCTextureAnimationCCWDecorator@NEffectUpdateDecorator@@@Z PROC ; CDynamicPoolEx<NEffectUpdateDecorator::CTextureAnimationCCWDecorator>::Delete, COMDAT

; 224  : 			::operator delete(pkData);

  00000	e9 00 00 00 00	 jmp	 ??3@YAXPAX@Z		; operator delete
?Delete@?$CDynamicPoolEx@VCTextureAnimationCCWDecorator@NEffectUpdateDecorator@@@@KAXPAVCTextureAnimationCCWDecorator@NEffectUpdateDecorator@@@Z ENDP ; CDynamicPoolEx<NEffectUpdateDecorator::CTextureAnimationCCWDecorator>::Delete
_TEXT	ENDS
; Function compile flags: /Ogtp
; File D:\Metin2 Server Files\mainline\SRC_2014\Metin2Client\eterLib\Pool.h
; File C:\Program Files (x86)\Microsoft Visual Studio\2019\Community\VC\Tools\MSVC\14.28.29333\include\vector
; File C:\Program Files (x86)\Microsoft Visual Studio\2019\Community\VC\Tools\MSVC\14.28.29333\include\algorithm
; File D:\Metin2 Server Files\mainline\SRC_2014\Metin2Client\eterLib\Pool.h
; File C:\Program Files (x86)\Microsoft Visual Studio\2019\Community\VC\Tools\MSVC\14.28.29333\include\algorithm
; File D:\Metin2 Server Files\mainline\SRC_2014\Metin2Client\eterLib\Pool.h
; File C:\Program Files (x86)\Microsoft Visual Studio\2019\Community\VC\Tools\MSVC\14.28.29333\include\algorithm
; File D:\Metin2 Server Files\mainline\SRC_2014\Metin2Client\eterLib\Pool.h
; File C:\Program Files (x86)\Microsoft Visual Studio\2019\Community\VC\Tools\MSVC\14.28.29333\include\vector
; File C:\Program Files (x86)\Microsoft Visual Studio\2019\Community\VC\Tools\MSVC\14.28.29333\include\xmemory
; File C:\Program Files (x86)\Microsoft Visual Studio\2019\Community\VC\Tools\MSVC\14.28.29333\include\vector
; File C:\Program Files (x86)\Microsoft Visual Studio\2019\Community\VC\Tools\MSVC\14.28.29333\include\xmemory
; File C:\Program Files (x86)\Microsoft Visual Studio\2019\Community\VC\Tools\MSVC\14.28.29333\include\vector
; File C:\Program Files (x86)\Microsoft Visual Studio\2019\Community\VC\Tools\MSVC\14.28.29333\include\xmemory
; File C:\Program Files (x86)\Microsoft Visual Studio\2019\Community\VC\Tools\MSVC\14.28.29333\include\vector
; File C:\Program Files (x86)\Microsoft Visual Studio\2019\Community\VC\Tools\MSVC\14.28.29333\include\xmemory
; File C:\Program Files (x86)\Microsoft Visual Studio\2019\Community\VC\Tools\MSVC\14.28.29333\include\vector
; File D:\Metin2 Server Files\mainline\SRC_2014\Metin2Client\eterLib\Pool.h
;	COMDAT ??1?$CDynamicPoolEx@VCTextureAnimationCCWDecorator@NEffectUpdateDecorator@@@@UAE@XZ
_TEXT	SEGMENT
??1?$CDynamicPoolEx@VCTextureAnimationCCWDecorator@NEffectUpdateDecorator@@@@UAE@XZ PROC ; CDynamicPoolEx<NEffectUpdateDecorator::CTextureAnimationCCWDecorator>::~CDynamicPoolEx<NEffectUpdateDecorator::CTextureAnimationCCWDecorator>, COMDAT
; _this$ = ecx

; 132  : 		{

  00000	53		 push	 ebx
  00001	56		 push	 esi
  00002	57		 push	 edi
  00003	8b f9		 mov	 edi, ecx
  00005	c7 07 00 00 00
	00		 mov	 DWORD PTR [edi], OFFSET ??_7?$CDynamicPoolEx@VCTextureAnimationCCWDecorator@NEffectUpdateDecorator@@@@6B@
; File C:\Program Files (x86)\Microsoft Visual Studio\2019\Community\VC\Tools\MSVC\14.28.29333\include\vector

; 42   :     _Vector_const_iterator(_Tptr _Parg, const _Container_base* _Pvector) noexcept : _Ptr(_Parg) {

  0000b	8b 5f 08	 mov	 ebx, DWORD PTR [edi+8]
  0000e	8b 77 04	 mov	 esi, DWORD PTR [edi+4]
; File C:\Program Files (x86)\Microsoft Visual Studio\2019\Community\VC\Tools\MSVC\14.28.29333\include\algorithm

; 307  :     for (; _UFirst != _ULast; ++_UFirst) {

  00011	3b f3		 cmp	 esi, ebx
  00013	74 14		 je	 SHORT $LN19@CDynamicPo
$LL20@CDynamicPo:
; File D:\Metin2 Server Files\mainline\SRC_2014\Metin2Client\eterLib\Pool.h

; 224  : 			::operator delete(pkData);

  00015	ff 36		 push	 DWORD PTR [esi]
  00017	e8 00 00 00 00	 call	 ??3@YAXPAX@Z		; operator delete
; File C:\Program Files (x86)\Microsoft Visual Studio\2019\Community\VC\Tools\MSVC\14.28.29333\include\algorithm

; 307  :     for (; _UFirst != _ULast; ++_UFirst) {

  0001c	83 c6 04	 add	 esi, 4
; File D:\Metin2 Server Files\mainline\SRC_2014\Metin2Client\eterLib\Pool.h

; 224  : 			::operator delete(pkData);

  0001f	83 c4 04	 add	 esp, 4
; File C:\Program Files (x86)\Microsoft Visual Studio\2019\Community\VC\Tools\MSVC\14.28.29333\include\algorithm

; 307  :     for (; _UFirst != _ULast; ++_UFirst) {

  00022	3b f3		 cmp	 esi, ebx
  00024	75 ef		 jne	 SHORT $LL20@CDynamicPo
  00026	8b 77 04	 mov	 esi, DWORD PTR [edi+4]
$LN19@CDynamicPo:
; File D:\Metin2 Server Files\mainline\SRC_2014\Metin2Client\eterLib\Pool.h

; 162  : 			m_kVct_pkFree.clear();

  00029	8b 4f 10	 mov	 ecx, DWORD PTR [edi+16]
  0002c	89 77 08	 mov	 DWORD PTR [edi+8], esi
  0002f	89 4f 14	 mov	 DWORD PTR [edi+20], ecx
; File C:\Program Files (x86)\Microsoft Visual Studio\2019\Community\VC\Tools\MSVC\14.28.29333\include\vector

; 1694 :         if (_Myfirst) { // destroy and deallocate old array

  00032	85 c9		 test	 ecx, ecx
  00034	74 27		 je	 SHORT $LN27@CDynamicPo

; 1695 :             _Destroy(_Myfirst, _Mylast);
; 1696 :             _Getal().deallocate(_Myfirst, static_cast<size_type>(_Myend - _Myfirst));

  00036	8b 47 18	 mov	 eax, DWORD PTR [edi+24]
  00039	2b c1		 sub	 eax, ecx
; File C:\Program Files (x86)\Microsoft Visual Studio\2019\Community\VC\Tools\MSVC\14.28.29333\include\xmemory

; 810  :         _Deallocate<_New_alignof<_Ty>>(_Ptr, sizeof(_Ty) * _Count);

  0003b	83 e0 fc	 and	 eax, -4			; fffffffcH
  0003e	50		 push	 eax
  0003f	51		 push	 ecx
  00040	e8 00 00 00 00	 call	 ??$_Deallocate@$07$0A@@std@@YAXPAXI@Z ; std::_Deallocate<8,0>
; File C:\Program Files (x86)\Microsoft Visual Studio\2019\Community\VC\Tools\MSVC\14.28.29333\include\vector

; 1698 :             _Myfirst = pointer();

  00045	c7 47 10 00 00
	00 00		 mov	 DWORD PTR [edi+16], 0
; File C:\Program Files (x86)\Microsoft Visual Studio\2019\Community\VC\Tools\MSVC\14.28.29333\include\xmemory

; 810  :         _Deallocate<_New_alignof<_Ty>>(_Ptr, sizeof(_Ty) * _Count);

  0004c	83 c4 08	 add	 esp, 8
; File C:\Program Files (x86)\Microsoft Visual Studio\2019\Community\VC\Tools\MSVC\14.28.29333\include\vector

; 1699 :             _Mylast  = pointer();

  0004f	c7 47 14 00 00
	00 00		 mov	 DWORD PTR [edi+20], 0

; 1700 :             _Myend   = pointer();

  00056	c7 47 18 00 00
	00 00		 mov	 DWORD PTR [edi+24], 0
$LN27@CDynamicPo:

; 1694 :         if (_Myfirst) { // destroy and deallocate old array

  0005d	8b 4f 04	 mov	 ecx, DWORD PTR [edi+4]
  00060	85 c9		 test	 ecx, ecx
  00062	74 27		 je	 SHORT $LN34@CDynamicPo

; 1695 :             _Destroy(_Myfirst, _Mylast);
; 1696 :             _Getal().deallocate(_Myfirst, static_cast<size_type>(_Myend - _Myfirst));

  00064	8b 47 0c	 mov	 eax, DWORD PTR [edi+12]
  00067	2b c1		 sub	 eax, ecx
; File C:\Program Files (x86)\Microsoft Visual Studio\2019\Community\VC\Tools\MSVC\14.28.29333\include\xmemory

; 810  :         _Deallocate<_New_alignof<_Ty>>(_Ptr, sizeof(_Ty) * _Count);

  00069	83 e0 fc	 and	 eax, -4			; fffffffcH
  0006c	50		 push	 eax
  0006d	51		 push	 ecx
  0006e	e8 00 00 00 00	 call	 ??$_Deallocate@$07$0A@@std@@YAXPAXI@Z ; std::_Deallocate<8,0>
; File C:\Program Files (x86)\Microsoft Visual Studio\2019\Community\VC\Tools\MSVC\14.28.29333\include\vector

; 1698 :             _Myfirst = pointer();

  00073	c7 47 04 00 00
	00 00		 mov	 DWORD PTR [edi+4], 0
; File C:\Program Files (x86)\Microsoft Visual Studio\2019\Community\VC\Tools\MSVC\14.28.29333\include\xmemory

; 810  :         _Deallocate<_New_alignof<_Ty>>(_Ptr, sizeof(_Ty) * _Count);

  0007a	83 c4 08	 add	 esp, 8
; File C:\Program Files (x86)\Microsoft Visual Studio\2019\Community\VC\Tools\MSVC\14.28.29333\include\vector

; 1699 :             _Mylast  = pointer();

  0007d	c7 47 08 00 00
	00 00		 mov	 DWORD PTR [edi+8], 0

; 1700 :             _Myend   = pointer();

  00084	c7 47 0c 00 00
	00 00		 mov	 DWORD PTR [edi+12], 0
$LN34@CDynamicPo:
  0008b	5f		 pop	 edi
; File D:\Metin2 Server Files\mainline\SRC_2014\Metin2Client\eterLib\Pool.h

; 142  : 		}

  0008c	5e		 pop	 esi
  0008d	5b		 pop	 ebx
  0008e	c3		 ret	 0
??1?$CDynamicPoolEx@VCTextureAnimationCCWDecorator@NEffectUpdateDecorator@@@@UAE@XZ ENDP ; CDynamicPoolEx<NEffectUpdateDecorator::CTextureAnimationCCWDecorator>::~CDynamicPoolEx<NEffectUpdateDecorator::CTextureAnimationCCWDecorator>
_TEXT	ENDS
; Function compile flags: /Ogtp
;	COMDAT ??_G?$CDynamicPoolEx@VCTextureAnimationRandomDecorator@NEffectUpdateDecorator@@@@UAEPAXI@Z
_TEXT	SEGMENT
___flags$ = 8						; size = 4
??_G?$CDynamicPoolEx@VCTextureAnimationRandomDecorator@NEffectUpdateDecorator@@@@UAEPAXI@Z PROC ; CDynamicPoolEx<NEffectUpdateDecorator::CTextureAnimationRandomDecorator>::`scalar deleting destructor', COMDAT
; _this$ = ecx
  00000	55		 push	 ebp
  00001	8b ec		 mov	 ebp, esp
  00003	56		 push	 esi
  00004	8b f1		 mov	 esi, ecx
  00006	e8 00 00 00 00	 call	 ??1?$CDynamicPoolEx@VCTextureAnimationRandomDecorator@NEffectUpdateDecorator@@@@UAE@XZ ; CDynamicPoolEx<NEffectUpdateDecorator::CTextureAnimationRandomDecorator>::~CDynamicPoolEx<NEffectUpdateDecorator::CTextureAnimationRandomDecorator>
  0000b	f6 45 08 01	 test	 BYTE PTR ___flags$[ebp], 1
  0000f	74 0b		 je	 SHORT $LN4@scalar
  00011	6a 24		 push	 36			; 00000024H
  00013	56		 push	 esi
  00014	e8 00 00 00 00	 call	 ??3@YAXPAXI@Z		; operator delete
  00019	83 c4 08	 add	 esp, 8
$LN4@scalar:
  0001c	8b c6		 mov	 eax, esi
  0001e	5e		 pop	 esi
  0001f	5d		 pop	 ebp
  00020	c2 04 00	 ret	 4
??_G?$CDynamicPoolEx@VCTextureAnimationRandomDecorator@NEffectUpdateDecorator@@@@UAEPAXI@Z ENDP ; CDynamicPoolEx<NEffectUpdateDecorator::CTextureAnimationRandomDecorator>::`scalar deleting destructor'
_TEXT	ENDS
; Function compile flags: /Ogtp
; File D:\Metin2 Server Files\mainline\SRC_2014\Metin2Client\eterLib\Pool.h
;	COMDAT ?Delete@?$CDynamicPoolEx@VCTextureAnimationRandomDecorator@NEffectUpdateDecorator@@@@KAXPAVCTextureAnimationRandomDecorator@NEffectUpdateDecorator@@@Z
_TEXT	SEGMENT
_pkData$ = 8						; size = 4
?Delete@?$CDynamicPoolEx@VCTextureAnimationRandomDecorator@NEffectUpdateDecorator@@@@KAXPAVCTextureAnimationRandomDecorator@NEffectUpdateDecorator@@@Z PROC ; CDynamicPoolEx<NEffectUpdateDecorator::CTextureAnimationRandomDecorator>::Delete, COMDAT

; 224  : 			::operator delete(pkData);

  00000	e9 00 00 00 00	 jmp	 ??3@YAXPAX@Z		; operator delete
?Delete@?$CDynamicPoolEx@VCTextureAnimationRandomDecorator@NEffectUpdateDecorator@@@@KAXPAVCTextureAnimationRandomDecorator@NEffectUpdateDecorator@@@Z ENDP ; CDynamicPoolEx<NEffectUpdateDecorator::CTextureAnimationRandomDecorator>::Delete
_TEXT	ENDS
; Function compile flags: /Ogtp
; File D:\Metin2 Server Files\mainline\SRC_2014\Metin2Client\eterLib\Pool.h
; File C:\Program Files (x86)\Microsoft Visual Studio\2019\Community\VC\Tools\MSVC\14.28.29333\include\vector
; File C:\Program Files (x86)\Microsoft Visual Studio\2019\Community\VC\Tools\MSVC\14.28.29333\include\algorithm
; File D:\Metin2 Server Files\mainline\SRC_2014\Metin2Client\eterLib\Pool.h
; File C:\Program Files (x86)\Microsoft Visual Studio\2019\Community\VC\Tools\MSVC\14.28.29333\include\algorithm
; File D:\Metin2 Server Files\mainline\SRC_2014\Metin2Client\eterLib\Pool.h
; File C:\Program Files (x86)\Microsoft Visual Studio\2019\Community\VC\Tools\MSVC\14.28.29333\include\algorithm
; File D:\Metin2 Server Files\mainline\SRC_2014\Metin2Client\eterLib\Pool.h
; File C:\Program Files (x86)\Microsoft Visual Studio\2019\Community\VC\Tools\MSVC\14.28.29333\include\vector
; File C:\Program Files (x86)\Microsoft Visual Studio\2019\Community\VC\Tools\MSVC\14.28.29333\include\xmemory
; File C:\Program Files (x86)\Microsoft Visual Studio\2019\Community\VC\Tools\MSVC\14.28.29333\include\vector
; File C:\Program Files (x86)\Microsoft Visual Studio\2019\Community\VC\Tools\MSVC\14.28.29333\include\xmemory
; File C:\Program Files (x86)\Microsoft Visual Studio\2019\Community\VC\Tools\MSVC\14.28.29333\include\vector
; File C:\Program Files (x86)\Microsoft Visual Studio\2019\Community\VC\Tools\MSVC\14.28.29333\include\xmemory
; File C:\Program Files (x86)\Microsoft Visual Studio\2019\Community\VC\Tools\MSVC\14.28.29333\include\vector
; File C:\Program Files (x86)\Microsoft Visual Studio\2019\Community\VC\Tools\MSVC\14.28.29333\include\xmemory
; File C:\Program Files (x86)\Microsoft Visual Studio\2019\Community\VC\Tools\MSVC\14.28.29333\include\vector
; File D:\Metin2 Server Files\mainline\SRC_2014\Metin2Client\eterLib\Pool.h
;	COMDAT ??1?$CDynamicPoolEx@VCTextureAnimationRandomDecorator@NEffectUpdateDecorator@@@@UAE@XZ
_TEXT	SEGMENT
??1?$CDynamicPoolEx@VCTextureAnimationRandomDecorator@NEffectUpdateDecorator@@@@UAE@XZ PROC ; CDynamicPoolEx<NEffectUpdateDecorator::CTextureAnimationRandomDecorator>::~CDynamicPoolEx<NEffectUpdateDecorator::CTextureAnimationRandomDecorator>, COMDAT
; _this$ = ecx

; 132  : 		{

  00000	53		 push	 ebx
  00001	56		 push	 esi
  00002	57		 push	 edi
  00003	8b f9		 mov	 edi, ecx
  00005	c7 07 00 00 00
	00		 mov	 DWORD PTR [edi], OFFSET ??_7?$CDynamicPoolEx@VCTextureAnimationRandomDecorator@NEffectUpdateDecorator@@@@6B@
; File C:\Program Files (x86)\Microsoft Visual Studio\2019\Community\VC\Tools\MSVC\14.28.29333\include\vector

; 42   :     _Vector_const_iterator(_Tptr _Parg, const _Container_base* _Pvector) noexcept : _Ptr(_Parg) {

  0000b	8b 5f 08	 mov	 ebx, DWORD PTR [edi+8]
  0000e	8b 77 04	 mov	 esi, DWORD PTR [edi+4]
; File C:\Program Files (x86)\Microsoft Visual Studio\2019\Community\VC\Tools\MSVC\14.28.29333\include\algorithm

; 307  :     for (; _UFirst != _ULast; ++_UFirst) {

  00011	3b f3		 cmp	 esi, ebx
  00013	74 14		 je	 SHORT $LN19@CDynamicPo
$LL20@CDynamicPo:
; File D:\Metin2 Server Files\mainline\SRC_2014\Metin2Client\eterLib\Pool.h

; 224  : 			::operator delete(pkData);

  00015	ff 36		 push	 DWORD PTR [esi]
  00017	e8 00 00 00 00	 call	 ??3@YAXPAX@Z		; operator delete
; File C:\Program Files (x86)\Microsoft Visual Studio\2019\Community\VC\Tools\MSVC\14.28.29333\include\algorithm

; 307  :     for (; _UFirst != _ULast; ++_UFirst) {

  0001c	83 c6 04	 add	 esi, 4
; File D:\Metin2 Server Files\mainline\SRC_2014\Metin2Client\eterLib\Pool.h

; 224  : 			::operator delete(pkData);

  0001f	83 c4 04	 add	 esp, 4
; File C:\Program Files (x86)\Microsoft Visual Studio\2019\Community\VC\Tools\MSVC\14.28.29333\include\algorithm

; 307  :     for (; _UFirst != _ULast; ++_UFirst) {

  00022	3b f3		 cmp	 esi, ebx
  00024	75 ef		 jne	 SHORT $LL20@CDynamicPo
  00026	8b 77 04	 mov	 esi, DWORD PTR [edi+4]
$LN19@CDynamicPo:
; File D:\Metin2 Server Files\mainline\SRC_2014\Metin2Client\eterLib\Pool.h

; 162  : 			m_kVct_pkFree.clear();

  00029	8b 4f 10	 mov	 ecx, DWORD PTR [edi+16]
  0002c	89 77 08	 mov	 DWORD PTR [edi+8], esi
  0002f	89 4f 14	 mov	 DWORD PTR [edi+20], ecx
; File C:\Program Files (x86)\Microsoft Visual Studio\2019\Community\VC\Tools\MSVC\14.28.29333\include\vector

; 1694 :         if (_Myfirst) { // destroy and deallocate old array

  00032	85 c9		 test	 ecx, ecx
  00034	74 27		 je	 SHORT $LN27@CDynamicPo

; 1695 :             _Destroy(_Myfirst, _Mylast);
; 1696 :             _Getal().deallocate(_Myfirst, static_cast<size_type>(_Myend - _Myfirst));

  00036	8b 47 18	 mov	 eax, DWORD PTR [edi+24]
  00039	2b c1		 sub	 eax, ecx
; File C:\Program Files (x86)\Microsoft Visual Studio\2019\Community\VC\Tools\MSVC\14.28.29333\include\xmemory

; 810  :         _Deallocate<_New_alignof<_Ty>>(_Ptr, sizeof(_Ty) * _Count);

  0003b	83 e0 fc	 and	 eax, -4			; fffffffcH
  0003e	50		 push	 eax
  0003f	51		 push	 ecx
  00040	e8 00 00 00 00	 call	 ??$_Deallocate@$07$0A@@std@@YAXPAXI@Z ; std::_Deallocate<8,0>
; File C:\Program Files (x86)\Microsoft Visual Studio\2019\Community\VC\Tools\MSVC\14.28.29333\include\vector

; 1698 :             _Myfirst = pointer();

  00045	c7 47 10 00 00
	00 00		 mov	 DWORD PTR [edi+16], 0
; File C:\Program Files (x86)\Microsoft Visual Studio\2019\Community\VC\Tools\MSVC\14.28.29333\include\xmemory

; 810  :         _Deallocate<_New_alignof<_Ty>>(_Ptr, sizeof(_Ty) * _Count);

  0004c	83 c4 08	 add	 esp, 8
; File C:\Program Files (x86)\Microsoft Visual Studio\2019\Community\VC\Tools\MSVC\14.28.29333\include\vector

; 1699 :             _Mylast  = pointer();

  0004f	c7 47 14 00 00
	00 00		 mov	 DWORD PTR [edi+20], 0

; 1700 :             _Myend   = pointer();

  00056	c7 47 18 00 00
	00 00		 mov	 DWORD PTR [edi+24], 0
$LN27@CDynamicPo:

; 1694 :         if (_Myfirst) { // destroy and deallocate old array

  0005d	8b 4f 04	 mov	 ecx, DWORD PTR [edi+4]
  00060	85 c9		 test	 ecx, ecx
  00062	74 27		 je	 SHORT $LN34@CDynamicPo

; 1695 :             _Destroy(_Myfirst, _Mylast);
; 1696 :             _Getal().deallocate(_Myfirst, static_cast<size_type>(_Myend - _Myfirst));

  00064	8b 47 0c	 mov	 eax, DWORD PTR [edi+12]
  00067	2b c1		 sub	 eax, ecx
; File C:\Program Files (x86)\Microsoft Visual Studio\2019\Community\VC\Tools\MSVC\14.28.29333\include\xmemory

; 810  :         _Deallocate<_New_alignof<_Ty>>(_Ptr, sizeof(_Ty) * _Count);

  00069	83 e0 fc	 and	 eax, -4			; fffffffcH
  0006c	50		 push	 eax
  0006d	51		 push	 ecx
  0006e	e8 00 00 00 00	 call	 ??$_Deallocate@$07$0A@@std@@YAXPAXI@Z ; std::_Deallocate<8,0>
; File C:\Program Files (x86)\Microsoft Visual Studio\2019\Community\VC\Tools\MSVC\14.28.29333\include\vector

; 1698 :             _Myfirst = pointer();

  00073	c7 47 04 00 00
	00 00		 mov	 DWORD PTR [edi+4], 0
; File C:\Program Files (x86)\Microsoft Visual Studio\2019\Community\VC\Tools\MSVC\14.28.29333\include\xmemory

; 810  :         _Deallocate<_New_alignof<_Ty>>(_Ptr, sizeof(_Ty) * _Count);

  0007a	83 c4 08	 add	 esp, 8
; File C:\Program Files (x86)\Microsoft Visual Studio\2019\Community\VC\Tools\MSVC\14.28.29333\include\vector

; 1699 :             _Mylast  = pointer();

  0007d	c7 47 08 00 00
	00 00		 mov	 DWORD PTR [edi+8], 0

; 1700 :             _Myend   = pointer();

  00084	c7 47 0c 00 00
	00 00		 mov	 DWORD PTR [edi+12], 0
$LN34@CDynamicPo:
  0008b	5f		 pop	 edi
; File D:\Metin2 Server Files\mainline\SRC_2014\Metin2Client\eterLib\Pool.h

; 142  : 		}

  0008c	5e		 pop	 esi
  0008d	5b		 pop	 ebx
  0008e	c3		 ret	 0
??1?$CDynamicPoolEx@VCTextureAnimationRandomDecorator@NEffectUpdateDecorator@@@@UAE@XZ ENDP ; CDynamicPoolEx<NEffectUpdateDecorator::CTextureAnimationRandomDecorator>::~CDynamicPoolEx<NEffectUpdateDecorator::CTextureAnimationRandomDecorator>
_TEXT	ENDS
; Function compile flags: /Ogtp
;	COMDAT ??_G?$CDynamicPoolEx@VCAirResistanceDecorator@NEffectUpdateDecorator@@@@UAEPAXI@Z
_TEXT	SEGMENT
___flags$ = 8						; size = 4
??_G?$CDynamicPoolEx@VCAirResistanceDecorator@NEffectUpdateDecorator@@@@UAEPAXI@Z PROC ; CDynamicPoolEx<NEffectUpdateDecorator::CAirResistanceDecorator>::`scalar deleting destructor', COMDAT
; _this$ = ecx
  00000	55		 push	 ebp
  00001	8b ec		 mov	 ebp, esp
  00003	56		 push	 esi
  00004	8b f1		 mov	 esi, ecx
  00006	e8 00 00 00 00	 call	 ??1?$CDynamicPoolEx@VCAirResistanceDecorator@NEffectUpdateDecorator@@@@UAE@XZ ; CDynamicPoolEx<NEffectUpdateDecorator::CAirResistanceDecorator>::~CDynamicPoolEx<NEffectUpdateDecorator::CAirResistanceDecorator>
  0000b	f6 45 08 01	 test	 BYTE PTR ___flags$[ebp], 1
  0000f	74 0b		 je	 SHORT $LN4@scalar
  00011	6a 24		 push	 36			; 00000024H
  00013	56		 push	 esi
  00014	e8 00 00 00 00	 call	 ??3@YAXPAXI@Z		; operator delete
  00019	83 c4 08	 add	 esp, 8
$LN4@scalar:
  0001c	8b c6		 mov	 eax, esi
  0001e	5e		 pop	 esi
  0001f	5d		 pop	 ebp
  00020	c2 04 00	 ret	 4
??_G?$CDynamicPoolEx@VCAirResistanceDecorator@NEffectUpdateDecorator@@@@UAEPAXI@Z ENDP ; CDynamicPoolEx<NEffectUpdateDecorator::CAirResistanceDecorator>::`scalar deleting destructor'
_TEXT	ENDS
; Function compile flags: /Ogtp
; File D:\Metin2 Server Files\mainline\SRC_2014\Metin2Client\eterLib\Pool.h
;	COMDAT ?Delete@?$CDynamicPoolEx@VCAirResistanceDecorator@NEffectUpdateDecorator@@@@KAXPAVCAirResistanceDecorator@NEffectUpdateDecorator@@@Z
_TEXT	SEGMENT
_pkData$ = 8						; size = 4
?Delete@?$CDynamicPoolEx@VCAirResistanceDecorator@NEffectUpdateDecorator@@@@KAXPAVCAirResistanceDecorator@NEffectUpdateDecorator@@@Z PROC ; CDynamicPoolEx<NEffectUpdateDecorator::CAirResistanceDecorator>::Delete, COMDAT

; 224  : 			::operator delete(pkData);

  00000	e9 00 00 00 00	 jmp	 ??3@YAXPAX@Z		; operator delete
?Delete@?$CDynamicPoolEx@VCAirResistanceDecorator@NEffectUpdateDecorator@@@@KAXPAVCAirResistanceDecorator@NEffectUpdateDecorator@@@Z ENDP ; CDynamicPoolEx<NEffectUpdateDecorator::CAirResistanceDecorator>::Delete
_TEXT	ENDS
; Function compile flags: /Ogtp
; File D:\Metin2 Server Files\mainline\SRC_2014\Metin2Client\eterLib\Pool.h
; File C:\Program Files (x86)\Microsoft Visual Studio\2019\Community\VC\Tools\MSVC\14.28.29333\include\vector
; File C:\Program Files (x86)\Microsoft Visual Studio\2019\Community\VC\Tools\MSVC\14.28.29333\include\algorithm
; File D:\Metin2 Server Files\mainline\SRC_2014\Metin2Client\eterLib\Pool.h
; File C:\Program Files (x86)\Microsoft Visual Studio\2019\Community\VC\Tools\MSVC\14.28.29333\include\algorithm
; File D:\Metin2 Server Files\mainline\SRC_2014\Metin2Client\eterLib\Pool.h
; File C:\Program Files (x86)\Microsoft Visual Studio\2019\Community\VC\Tools\MSVC\14.28.29333\include\algorithm
; File D:\Metin2 Server Files\mainline\SRC_2014\Metin2Client\eterLib\Pool.h
; File C:\Program Files (x86)\Microsoft Visual Studio\2019\Community\VC\Tools\MSVC\14.28.29333\include\vector
; File C:\Program Files (x86)\Microsoft Visual Studio\2019\Community\VC\Tools\MSVC\14.28.29333\include\xmemory
; File C:\Program Files (x86)\Microsoft Visual Studio\2019\Community\VC\Tools\MSVC\14.28.29333\include\vector
; File C:\Program Files (x86)\Microsoft Visual Studio\2019\Community\VC\Tools\MSVC\14.28.29333\include\xmemory
; File C:\Program Files (x86)\Microsoft Visual Studio\2019\Community\VC\Tools\MSVC\14.28.29333\include\vector
; File C:\Program Files (x86)\Microsoft Visual Studio\2019\Community\VC\Tools\MSVC\14.28.29333\include\xmemory
; File C:\Program Files (x86)\Microsoft Visual Studio\2019\Community\VC\Tools\MSVC\14.28.29333\include\vector
; File C:\Program Files (x86)\Microsoft Visual Studio\2019\Community\VC\Tools\MSVC\14.28.29333\include\xmemory
; File C:\Program Files (x86)\Microsoft Visual Studio\2019\Community\VC\Tools\MSVC\14.28.29333\include\vector
; File D:\Metin2 Server Files\mainline\SRC_2014\Metin2Client\eterLib\Pool.h
;	COMDAT ??1?$CDynamicPoolEx@VCAirResistanceDecorator@NEffectUpdateDecorator@@@@UAE@XZ
_TEXT	SEGMENT
??1?$CDynamicPoolEx@VCAirResistanceDecorator@NEffectUpdateDecorator@@@@UAE@XZ PROC ; CDynamicPoolEx<NEffectUpdateDecorator::CAirResistanceDecorator>::~CDynamicPoolEx<NEffectUpdateDecorator::CAirResistanceDecorator>, COMDAT
; _this$ = ecx

; 132  : 		{

  00000	53		 push	 ebx
  00001	56		 push	 esi
  00002	57		 push	 edi
  00003	8b f9		 mov	 edi, ecx
  00005	c7 07 00 00 00
	00		 mov	 DWORD PTR [edi], OFFSET ??_7?$CDynamicPoolEx@VCAirResistanceDecorator@NEffectUpdateDecorator@@@@6B@
; File C:\Program Files (x86)\Microsoft Visual Studio\2019\Community\VC\Tools\MSVC\14.28.29333\include\vector

; 42   :     _Vector_const_iterator(_Tptr _Parg, const _Container_base* _Pvector) noexcept : _Ptr(_Parg) {

  0000b	8b 5f 08	 mov	 ebx, DWORD PTR [edi+8]
  0000e	8b 77 04	 mov	 esi, DWORD PTR [edi+4]
; File C:\Program Files (x86)\Microsoft Visual Studio\2019\Community\VC\Tools\MSVC\14.28.29333\include\algorithm

; 307  :     for (; _UFirst != _ULast; ++_UFirst) {

  00011	3b f3		 cmp	 esi, ebx
  00013	74 14		 je	 SHORT $LN19@CDynamicPo
$LL20@CDynamicPo:
; File D:\Metin2 Server Files\mainline\SRC_2014\Metin2Client\eterLib\Pool.h

; 224  : 			::operator delete(pkData);

  00015	ff 36		 push	 DWORD PTR [esi]
  00017	e8 00 00 00 00	 call	 ??3@YAXPAX@Z		; operator delete
; File C:\Program Files (x86)\Microsoft Visual Studio\2019\Community\VC\Tools\MSVC\14.28.29333\include\algorithm

; 307  :     for (; _UFirst != _ULast; ++_UFirst) {

  0001c	83 c6 04	 add	 esi, 4
; File D:\Metin2 Server Files\mainline\SRC_2014\Metin2Client\eterLib\Pool.h

; 224  : 			::operator delete(pkData);

  0001f	83 c4 04	 add	 esp, 4
; File C:\Program Files (x86)\Microsoft Visual Studio\2019\Community\VC\Tools\MSVC\14.28.29333\include\algorithm

; 307  :     for (; _UFirst != _ULast; ++_UFirst) {

  00022	3b f3		 cmp	 esi, ebx
  00024	75 ef		 jne	 SHORT $LL20@CDynamicPo
  00026	8b 77 04	 mov	 esi, DWORD PTR [edi+4]
$LN19@CDynamicPo:
; File D:\Metin2 Server Files\mainline\SRC_2014\Metin2Client\eterLib\Pool.h

; 162  : 			m_kVct_pkFree.clear();

  00029	8b 4f 10	 mov	 ecx, DWORD PTR [edi+16]
  0002c	89 77 08	 mov	 DWORD PTR [edi+8], esi
  0002f	89 4f 14	 mov	 DWORD PTR [edi+20], ecx
; File C:\Program Files (x86)\Microsoft Visual Studio\2019\Community\VC\Tools\MSVC\14.28.29333\include\vector

; 1694 :         if (_Myfirst) { // destroy and deallocate old array

  00032	85 c9		 test	 ecx, ecx
  00034	74 27		 je	 SHORT $LN27@CDynamicPo

; 1695 :             _Destroy(_Myfirst, _Mylast);
; 1696 :             _Getal().deallocate(_Myfirst, static_cast<size_type>(_Myend - _Myfirst));

  00036	8b 47 18	 mov	 eax, DWORD PTR [edi+24]
  00039	2b c1		 sub	 eax, ecx
; File C:\Program Files (x86)\Microsoft Visual Studio\2019\Community\VC\Tools\MSVC\14.28.29333\include\xmemory

; 810  :         _Deallocate<_New_alignof<_Ty>>(_Ptr, sizeof(_Ty) * _Count);

  0003b	83 e0 fc	 and	 eax, -4			; fffffffcH
  0003e	50		 push	 eax
  0003f	51		 push	 ecx
  00040	e8 00 00 00 00	 call	 ??$_Deallocate@$07$0A@@std@@YAXPAXI@Z ; std::_Deallocate<8,0>
; File C:\Program Files (x86)\Microsoft Visual Studio\2019\Community\VC\Tools\MSVC\14.28.29333\include\vector

; 1698 :             _Myfirst = pointer();

  00045	c7 47 10 00 00
	00 00		 mov	 DWORD PTR [edi+16], 0
; File C:\Program Files (x86)\Microsoft Visual Studio\2019\Community\VC\Tools\MSVC\14.28.29333\include\xmemory

; 810  :         _Deallocate<_New_alignof<_Ty>>(_Ptr, sizeof(_Ty) * _Count);

  0004c	83 c4 08	 add	 esp, 8
; File C:\Program Files (x86)\Microsoft Visual Studio\2019\Community\VC\Tools\MSVC\14.28.29333\include\vector

; 1699 :             _Mylast  = pointer();

  0004f	c7 47 14 00 00
	00 00		 mov	 DWORD PTR [edi+20], 0

; 1700 :             _Myend   = pointer();

  00056	c7 47 18 00 00
	00 00		 mov	 DWORD PTR [edi+24], 0
$LN27@CDynamicPo:

; 1694 :         if (_Myfirst) { // destroy and deallocate old array

  0005d	8b 4f 04	 mov	 ecx, DWORD PTR [edi+4]
  00060	85 c9		 test	 ecx, ecx
  00062	74 27		 je	 SHORT $LN34@CDynamicPo

; 1695 :             _Destroy(_Myfirst, _Mylast);
; 1696 :             _Getal().deallocate(_Myfirst, static_cast<size_type>(_Myend - _Myfirst));

  00064	8b 47 0c	 mov	 eax, DWORD PTR [edi+12]
  00067	2b c1		 sub	 eax, ecx
; File C:\Program Files (x86)\Microsoft Visual Studio\2019\Community\VC\Tools\MSVC\14.28.29333\include\xmemory

; 810  :         _Deallocate<_New_alignof<_Ty>>(_Ptr, sizeof(_Ty) * _Count);

  00069	83 e0 fc	 and	 eax, -4			; fffffffcH
  0006c	50		 push	 eax
  0006d	51		 push	 ecx
  0006e	e8 00 00 00 00	 call	 ??$_Deallocate@$07$0A@@std@@YAXPAXI@Z ; std::_Deallocate<8,0>
; File C:\Program Files (x86)\Microsoft Visual Studio\2019\Community\VC\Tools\MSVC\14.28.29333\include\vector

; 1698 :             _Myfirst = pointer();

  00073	c7 47 04 00 00
	00 00		 mov	 DWORD PTR [edi+4], 0
; File C:\Program Files (x86)\Microsoft Visual Studio\2019\Community\VC\Tools\MSVC\14.28.29333\include\xmemory

; 810  :         _Deallocate<_New_alignof<_Ty>>(_Ptr, sizeof(_Ty) * _Count);

  0007a	83 c4 08	 add	 esp, 8
; File C:\Program Files (x86)\Microsoft Visual Studio\2019\Community\VC\Tools\MSVC\14.28.29333\include\vector

; 1699 :             _Mylast  = pointer();

  0007d	c7 47 08 00 00
	00 00		 mov	 DWORD PTR [edi+8], 0

; 1700 :             _Myend   = pointer();

  00084	c7 47 0c 00 00
	00 00		 mov	 DWORD PTR [edi+12], 0
$LN34@CDynamicPo:
  0008b	5f		 pop	 edi
; File D:\Metin2 Server Files\mainline\SRC_2014\Metin2Client\eterLib\Pool.h

; 142  : 		}

  0008c	5e		 pop	 esi
  0008d	5b		 pop	 ebx
  0008e	c3		 ret	 0
??1?$CDynamicPoolEx@VCAirResistanceDecorator@NEffectUpdateDecorator@@@@UAE@XZ ENDP ; CDynamicPoolEx<NEffectUpdateDecorator::CAirResistanceDecorator>::~CDynamicPoolEx<NEffectUpdateDecorator::CAirResistanceDecorator>
_TEXT	ENDS
; Function compile flags: /Ogtp
;	COMDAT ??_G?$CDynamicPoolEx@VCGravityDecorator@NEffectUpdateDecorator@@@@UAEPAXI@Z
_TEXT	SEGMENT
___flags$ = 8						; size = 4
??_G?$CDynamicPoolEx@VCGravityDecorator@NEffectUpdateDecorator@@@@UAEPAXI@Z PROC ; CDynamicPoolEx<NEffectUpdateDecorator::CGravityDecorator>::`scalar deleting destructor', COMDAT
; _this$ = ecx
  00000	55		 push	 ebp
  00001	8b ec		 mov	 ebp, esp
  00003	56		 push	 esi
  00004	8b f1		 mov	 esi, ecx
  00006	e8 00 00 00 00	 call	 ??1?$CDynamicPoolEx@VCGravityDecorator@NEffectUpdateDecorator@@@@UAE@XZ ; CDynamicPoolEx<NEffectUpdateDecorator::CGravityDecorator>::~CDynamicPoolEx<NEffectUpdateDecorator::CGravityDecorator>
  0000b	f6 45 08 01	 test	 BYTE PTR ___flags$[ebp], 1
  0000f	74 0b		 je	 SHORT $LN4@scalar
  00011	6a 24		 push	 36			; 00000024H
  00013	56		 push	 esi
  00014	e8 00 00 00 00	 call	 ??3@YAXPAXI@Z		; operator delete
  00019	83 c4 08	 add	 esp, 8
$LN4@scalar:
  0001c	8b c6		 mov	 eax, esi
  0001e	5e		 pop	 esi
  0001f	5d		 pop	 ebp
  00020	c2 04 00	 ret	 4
??_G?$CDynamicPoolEx@VCGravityDecorator@NEffectUpdateDecorator@@@@UAEPAXI@Z ENDP ; CDynamicPoolEx<NEffectUpdateDecorator::CGravityDecorator>::`scalar deleting destructor'
_TEXT	ENDS
; Function compile flags: /Ogtp
; File D:\Metin2 Server Files\mainline\SRC_2014\Metin2Client\eterLib\Pool.h
;	COMDAT ?Delete@?$CDynamicPoolEx@VCGravityDecorator@NEffectUpdateDecorator@@@@KAXPAVCGravityDecorator@NEffectUpdateDecorator@@@Z
_TEXT	SEGMENT
_pkData$ = 8						; size = 4
?Delete@?$CDynamicPoolEx@VCGravityDecorator@NEffectUpdateDecorator@@@@KAXPAVCGravityDecorator@NEffectUpdateDecorator@@@Z PROC ; CDynamicPoolEx<NEffectUpdateDecorator::CGravityDecorator>::Delete, COMDAT

; 224  : 			::operator delete(pkData);

  00000	e9 00 00 00 00	 jmp	 ??3@YAXPAX@Z		; operator delete
?Delete@?$CDynamicPoolEx@VCGravityDecorator@NEffectUpdateDecorator@@@@KAXPAVCGravityDecorator@NEffectUpdateDecorator@@@Z ENDP ; CDynamicPoolEx<NEffectUpdateDecorator::CGravityDecorator>::Delete
_TEXT	ENDS
; Function compile flags: /Ogtp
; File D:\Metin2 Server Files\mainline\SRC_2014\Metin2Client\eterLib\Pool.h
; File C:\Program Files (x86)\Microsoft Visual Studio\2019\Community\VC\Tools\MSVC\14.28.29333\include\vector
; File C:\Program Files (x86)\Microsoft Visual Studio\2019\Community\VC\Tools\MSVC\14.28.29333\include\algorithm
; File D:\Metin2 Server Files\mainline\SRC_2014\Metin2Client\eterLib\Pool.h
; File C:\Program Files (x86)\Microsoft Visual Studio\2019\Community\VC\Tools\MSVC\14.28.29333\include\algorithm
; File D:\Metin2 Server Files\mainline\SRC_2014\Metin2Client\eterLib\Pool.h
; File C:\Program Files (x86)\Microsoft Visual Studio\2019\Community\VC\Tools\MSVC\14.28.29333\include\algorithm
; File D:\Metin2 Server Files\mainline\SRC_2014\Metin2Client\eterLib\Pool.h
; File C:\Program Files (x86)\Microsoft Visual Studio\2019\Community\VC\Tools\MSVC\14.28.29333\include\vector
; File C:\Program Files (x86)\Microsoft Visual Studio\2019\Community\VC\Tools\MSVC\14.28.29333\include\xmemory
; File C:\Program Files (x86)\Microsoft Visual Studio\2019\Community\VC\Tools\MSVC\14.28.29333\include\vector
; File C:\Program Files (x86)\Microsoft Visual Studio\2019\Community\VC\Tools\MSVC\14.28.29333\include\xmemory
; File C:\Program Files (x86)\Microsoft Visual Studio\2019\Community\VC\Tools\MSVC\14.28.29333\include\vector
; File C:\Program Files (x86)\Microsoft Visual Studio\2019\Community\VC\Tools\MSVC\14.28.29333\include\xmemory
; File C:\Program Files (x86)\Microsoft Visual Studio\2019\Community\VC\Tools\MSVC\14.28.29333\include\vector
; File C:\Program Files (x86)\Microsoft Visual Studio\2019\Community\VC\Tools\MSVC\14.28.29333\include\xmemory
; File C:\Program Files (x86)\Microsoft Visual Studio\2019\Community\VC\Tools\MSVC\14.28.29333\include\vector
; File D:\Metin2 Server Files\mainline\SRC_2014\Metin2Client\eterLib\Pool.h
;	COMDAT ??1?$CDynamicPoolEx@VCGravityDecorator@NEffectUpdateDecorator@@@@UAE@XZ
_TEXT	SEGMENT
??1?$CDynamicPoolEx@VCGravityDecorator@NEffectUpdateDecorator@@@@UAE@XZ PROC ; CDynamicPoolEx<NEffectUpdateDecorator::CGravityDecorator>::~CDynamicPoolEx<NEffectUpdateDecorator::CGravityDecorator>, COMDAT
; _this$ = ecx

; 132  : 		{

  00000	53		 push	 ebx
  00001	56		 push	 esi
  00002	57		 push	 edi
  00003	8b f9		 mov	 edi, ecx
  00005	c7 07 00 00 00
	00		 mov	 DWORD PTR [edi], OFFSET ??_7?$CDynamicPoolEx@VCGravityDecorator@NEffectUpdateDecorator@@@@6B@
; File C:\Program Files (x86)\Microsoft Visual Studio\2019\Community\VC\Tools\MSVC\14.28.29333\include\vector

; 42   :     _Vector_const_iterator(_Tptr _Parg, const _Container_base* _Pvector) noexcept : _Ptr(_Parg) {

  0000b	8b 5f 08	 mov	 ebx, DWORD PTR [edi+8]
  0000e	8b 77 04	 mov	 esi, DWORD PTR [edi+4]
; File C:\Program Files (x86)\Microsoft Visual Studio\2019\Community\VC\Tools\MSVC\14.28.29333\include\algorithm

; 307  :     for (; _UFirst != _ULast; ++_UFirst) {

  00011	3b f3		 cmp	 esi, ebx
  00013	74 14		 je	 SHORT $LN19@CDynamicPo
$LL20@CDynamicPo:
; File D:\Metin2 Server Files\mainline\SRC_2014\Metin2Client\eterLib\Pool.h

; 224  : 			::operator delete(pkData);

  00015	ff 36		 push	 DWORD PTR [esi]
  00017	e8 00 00 00 00	 call	 ??3@YAXPAX@Z		; operator delete
; File C:\Program Files (x86)\Microsoft Visual Studio\2019\Community\VC\Tools\MSVC\14.28.29333\include\algorithm

; 307  :     for (; _UFirst != _ULast; ++_UFirst) {

  0001c	83 c6 04	 add	 esi, 4
; File D:\Metin2 Server Files\mainline\SRC_2014\Metin2Client\eterLib\Pool.h

; 224  : 			::operator delete(pkData);

  0001f	83 c4 04	 add	 esp, 4
; File C:\Program Files (x86)\Microsoft Visual Studio\2019\Community\VC\Tools\MSVC\14.28.29333\include\algorithm

; 307  :     for (; _UFirst != _ULast; ++_UFirst) {

  00022	3b f3		 cmp	 esi, ebx
  00024	75 ef		 jne	 SHORT $LL20@CDynamicPo
  00026	8b 77 04	 mov	 esi, DWORD PTR [edi+4]
$LN19@CDynamicPo:
; File D:\Metin2 Server Files\mainline\SRC_2014\Metin2Client\eterLib\Pool.h

; 162  : 			m_kVct_pkFree.clear();

  00029	8b 4f 10	 mov	 ecx, DWORD PTR [edi+16]
  0002c	89 77 08	 mov	 DWORD PTR [edi+8], esi
  0002f	89 4f 14	 mov	 DWORD PTR [edi+20], ecx
; File C:\Program Files (x86)\Microsoft Visual Studio\2019\Community\VC\Tools\MSVC\14.28.29333\include\vector

; 1694 :         if (_Myfirst) { // destroy and deallocate old array

  00032	85 c9		 test	 ecx, ecx
  00034	74 27		 je	 SHORT $LN27@CDynamicPo

; 1695 :             _Destroy(_Myfirst, _Mylast);
; 1696 :             _Getal().deallocate(_Myfirst, static_cast<size_type>(_Myend - _Myfirst));

  00036	8b 47 18	 mov	 eax, DWORD PTR [edi+24]
  00039	2b c1		 sub	 eax, ecx
; File C:\Program Files (x86)\Microsoft Visual Studio\2019\Community\VC\Tools\MSVC\14.28.29333\include\xmemory

; 810  :         _Deallocate<_New_alignof<_Ty>>(_Ptr, sizeof(_Ty) * _Count);

  0003b	83 e0 fc	 and	 eax, -4			; fffffffcH
  0003e	50		 push	 eax
  0003f	51		 push	 ecx
  00040	e8 00 00 00 00	 call	 ??$_Deallocate@$07$0A@@std@@YAXPAXI@Z ; std::_Deallocate<8,0>
; File C:\Program Files (x86)\Microsoft Visual Studio\2019\Community\VC\Tools\MSVC\14.28.29333\include\vector

; 1698 :             _Myfirst = pointer();

  00045	c7 47 10 00 00
	00 00		 mov	 DWORD PTR [edi+16], 0
; File C:\Program Files (x86)\Microsoft Visual Studio\2019\Community\VC\Tools\MSVC\14.28.29333\include\xmemory

; 810  :         _Deallocate<_New_alignof<_Ty>>(_Ptr, sizeof(_Ty) * _Count);

  0004c	83 c4 08	 add	 esp, 8
; File C:\Program Files (x86)\Microsoft Visual Studio\2019\Community\VC\Tools\MSVC\14.28.29333\include\vector

; 1699 :             _Mylast  = pointer();

  0004f	c7 47 14 00 00
	00 00		 mov	 DWORD PTR [edi+20], 0

; 1700 :             _Myend   = pointer();

  00056	c7 47 18 00 00
	00 00		 mov	 DWORD PTR [edi+24], 0
$LN27@CDynamicPo:

; 1694 :         if (_Myfirst) { // destroy and deallocate old array

  0005d	8b 4f 04	 mov	 ecx, DWORD PTR [edi+4]
  00060	85 c9		 test	 ecx, ecx
  00062	74 27		 je	 SHORT $LN34@CDynamicPo

; 1695 :             _Destroy(_Myfirst, _Mylast);
; 1696 :             _Getal().deallocate(_Myfirst, static_cast<size_type>(_Myend - _Myfirst));

  00064	8b 47 0c	 mov	 eax, DWORD PTR [edi+12]
  00067	2b c1		 sub	 eax, ecx
; File C:\Program Files (x86)\Microsoft Visual Studio\2019\Community\VC\Tools\MSVC\14.28.29333\include\xmemory

; 810  :         _Deallocate<_New_alignof<_Ty>>(_Ptr, sizeof(_Ty) * _Count);

  00069	83 e0 fc	 and	 eax, -4			; fffffffcH
  0006c	50		 push	 eax
  0006d	51		 push	 ecx
  0006e	e8 00 00 00 00	 call	 ??$_Deallocate@$07$0A@@std@@YAXPAXI@Z ; std::_Deallocate<8,0>
; File C:\Program Files (x86)\Microsoft Visual Studio\2019\Community\VC\Tools\MSVC\14.28.29333\include\vector

; 1698 :             _Myfirst = pointer();

  00073	c7 47 04 00 00
	00 00		 mov	 DWORD PTR [edi+4], 0
; File C:\Program Files (x86)\Microsoft Visual Studio\2019\Community\VC\Tools\MSVC\14.28.29333\include\xmemory

; 810  :         _Deallocate<_New_alignof<_Ty>>(_Ptr, sizeof(_Ty) * _Count);

  0007a	83 c4 08	 add	 esp, 8
; File C:\Program Files (x86)\Microsoft Visual Studio\2019\Community\VC\Tools\MSVC\14.28.29333\include\vector

; 1699 :             _Mylast  = pointer();

  0007d	c7 47 08 00 00
	00 00		 mov	 DWORD PTR [edi+8], 0

; 1700 :             _Myend   = pointer();

  00084	c7 47 0c 00 00
	00 00		 mov	 DWORD PTR [edi+12], 0
$LN34@CDynamicPo:
  0008b	5f		 pop	 edi
; File D:\Metin2 Server Files\mainline\SRC_2014\Metin2Client\eterLib\Pool.h

; 142  : 		}

  0008c	5e		 pop	 esi
  0008d	5b		 pop	 ebx
  0008e	c3		 ret	 0
??1?$CDynamicPoolEx@VCGravityDecorator@NEffectUpdateDecorator@@@@UAE@XZ ENDP ; CDynamicPoolEx<NEffectUpdateDecorator::CGravityDecorator>::~CDynamicPoolEx<NEffectUpdateDecorator::CGravityDecorator>
_TEXT	ENDS
; Function compile flags: /Ogtp
;	COMDAT ??_G?$CDynamicPoolEx@VCRotationDecorator@NEffectUpdateDecorator@@@@UAEPAXI@Z
_TEXT	SEGMENT
___flags$ = 8						; size = 4
??_G?$CDynamicPoolEx@VCRotationDecorator@NEffectUpdateDecorator@@@@UAEPAXI@Z PROC ; CDynamicPoolEx<NEffectUpdateDecorator::CRotationDecorator>::`scalar deleting destructor', COMDAT
; _this$ = ecx
  00000	55		 push	 ebp
  00001	8b ec		 mov	 ebp, esp
  00003	56		 push	 esi
  00004	8b f1		 mov	 esi, ecx
  00006	e8 00 00 00 00	 call	 ??1?$CDynamicPoolEx@VCRotationDecorator@NEffectUpdateDecorator@@@@UAE@XZ ; CDynamicPoolEx<NEffectUpdateDecorator::CRotationDecorator>::~CDynamicPoolEx<NEffectUpdateDecorator::CRotationDecorator>
  0000b	f6 45 08 01	 test	 BYTE PTR ___flags$[ebp], 1
  0000f	74 0b		 je	 SHORT $LN4@scalar
  00011	6a 24		 push	 36			; 00000024H
  00013	56		 push	 esi
  00014	e8 00 00 00 00	 call	 ??3@YAXPAXI@Z		; operator delete
  00019	83 c4 08	 add	 esp, 8
$LN4@scalar:
  0001c	8b c6		 mov	 eax, esi
  0001e	5e		 pop	 esi
  0001f	5d		 pop	 ebp
  00020	c2 04 00	 ret	 4
??_G?$CDynamicPoolEx@VCRotationDecorator@NEffectUpdateDecorator@@@@UAEPAXI@Z ENDP ; CDynamicPoolEx<NEffectUpdateDecorator::CRotationDecorator>::`scalar deleting destructor'
_TEXT	ENDS
; Function compile flags: /Ogtp
; File D:\Metin2 Server Files\mainline\SRC_2014\Metin2Client\eterLib\Pool.h
;	COMDAT ?Delete@?$CDynamicPoolEx@VCRotationDecorator@NEffectUpdateDecorator@@@@KAXPAVCRotationDecorator@NEffectUpdateDecorator@@@Z
_TEXT	SEGMENT
_pkData$ = 8						; size = 4
?Delete@?$CDynamicPoolEx@VCRotationDecorator@NEffectUpdateDecorator@@@@KAXPAVCRotationDecorator@NEffectUpdateDecorator@@@Z PROC ; CDynamicPoolEx<NEffectUpdateDecorator::CRotationDecorator>::Delete, COMDAT

; 224  : 			::operator delete(pkData);

  00000	e9 00 00 00 00	 jmp	 ??3@YAXPAX@Z		; operator delete
?Delete@?$CDynamicPoolEx@VCRotationDecorator@NEffectUpdateDecorator@@@@KAXPAVCRotationDecorator@NEffectUpdateDecorator@@@Z ENDP ; CDynamicPoolEx<NEffectUpdateDecorator::CRotationDecorator>::Delete
_TEXT	ENDS
; Function compile flags: /Ogtp
; File D:\Metin2 Server Files\mainline\SRC_2014\Metin2Client\eterLib\Pool.h
; File C:\Program Files (x86)\Microsoft Visual Studio\2019\Community\VC\Tools\MSVC\14.28.29333\include\vector
; File C:\Program Files (x86)\Microsoft Visual Studio\2019\Community\VC\Tools\MSVC\14.28.29333\include\algorithm
; File D:\Metin2 Server Files\mainline\SRC_2014\Metin2Client\eterLib\Pool.h
; File C:\Program Files (x86)\Microsoft Visual Studio\2019\Community\VC\Tools\MSVC\14.28.29333\include\algorithm
; File D:\Metin2 Server Files\mainline\SRC_2014\Metin2Client\eterLib\Pool.h
; File C:\Program Files (x86)\Microsoft Visual Studio\2019\Community\VC\Tools\MSVC\14.28.29333\include\algorithm
; File D:\Metin2 Server Files\mainline\SRC_2014\Metin2Client\eterLib\Pool.h
; File C:\Program Files (x86)\Microsoft Visual Studio\2019\Community\VC\Tools\MSVC\14.28.29333\include\vector
; File C:\Program Files (x86)\Microsoft Visual Studio\2019\Community\VC\Tools\MSVC\14.28.29333\include\xmemory
; File C:\Program Files (x86)\Microsoft Visual Studio\2019\Community\VC\Tools\MSVC\14.28.29333\include\vector
; File C:\Program Files (x86)\Microsoft Visual Studio\2019\Community\VC\Tools\MSVC\14.28.29333\include\xmemory
; File C:\Program Files (x86)\Microsoft Visual Studio\2019\Community\VC\Tools\MSVC\14.28.29333\include\vector
; File C:\Program Files (x86)\Microsoft Visual Studio\2019\Community\VC\Tools\MSVC\14.28.29333\include\xmemory
; File C:\Program Files (x86)\Microsoft Visual Studio\2019\Community\VC\Tools\MSVC\14.28.29333\include\vector
; File C:\Program Files (x86)\Microsoft Visual Studio\2019\Community\VC\Tools\MSVC\14.28.29333\include\xmemory
; File C:\Program Files (x86)\Microsoft Visual Studio\2019\Community\VC\Tools\MSVC\14.28.29333\include\vector
; File D:\Metin2 Server Files\mainline\SRC_2014\Metin2Client\eterLib\Pool.h
;	COMDAT ??1?$CDynamicPoolEx@VCRotationDecorator@NEffectUpdateDecorator@@@@UAE@XZ
_TEXT	SEGMENT
??1?$CDynamicPoolEx@VCRotationDecorator@NEffectUpdateDecorator@@@@UAE@XZ PROC ; CDynamicPoolEx<NEffectUpdateDecorator::CRotationDecorator>::~CDynamicPoolEx<NEffectUpdateDecorator::CRotationDecorator>, COMDAT
; _this$ = ecx

; 132  : 		{

  00000	53		 push	 ebx
  00001	56		 push	 esi
  00002	57		 push	 edi
  00003	8b f9		 mov	 edi, ecx
  00005	c7 07 00 00 00
	00		 mov	 DWORD PTR [edi], OFFSET ??_7?$CDynamicPoolEx@VCRotationDecorator@NEffectUpdateDecorator@@@@6B@
; File C:\Program Files (x86)\Microsoft Visual Studio\2019\Community\VC\Tools\MSVC\14.28.29333\include\vector

; 42   :     _Vector_const_iterator(_Tptr _Parg, const _Container_base* _Pvector) noexcept : _Ptr(_Parg) {

  0000b	8b 5f 08	 mov	 ebx, DWORD PTR [edi+8]
  0000e	8b 77 04	 mov	 esi, DWORD PTR [edi+4]
; File C:\Program Files (x86)\Microsoft Visual Studio\2019\Community\VC\Tools\MSVC\14.28.29333\include\algorithm

; 307  :     for (; _UFirst != _ULast; ++_UFirst) {

  00011	3b f3		 cmp	 esi, ebx
  00013	74 14		 je	 SHORT $LN19@CDynamicPo
$LL20@CDynamicPo:
; File D:\Metin2 Server Files\mainline\SRC_2014\Metin2Client\eterLib\Pool.h

; 224  : 			::operator delete(pkData);

  00015	ff 36		 push	 DWORD PTR [esi]
  00017	e8 00 00 00 00	 call	 ??3@YAXPAX@Z		; operator delete
; File C:\Program Files (x86)\Microsoft Visual Studio\2019\Community\VC\Tools\MSVC\14.28.29333\include\algorithm

; 307  :     for (; _UFirst != _ULast; ++_UFirst) {

  0001c	83 c6 04	 add	 esi, 4
; File D:\Metin2 Server Files\mainline\SRC_2014\Metin2Client\eterLib\Pool.h

; 224  : 			::operator delete(pkData);

  0001f	83 c4 04	 add	 esp, 4
; File C:\Program Files (x86)\Microsoft Visual Studio\2019\Community\VC\Tools\MSVC\14.28.29333\include\algorithm

; 307  :     for (; _UFirst != _ULast; ++_UFirst) {

  00022	3b f3		 cmp	 esi, ebx
  00024	75 ef		 jne	 SHORT $LL20@CDynamicPo
  00026	8b 77 04	 mov	 esi, DWORD PTR [edi+4]
$LN19@CDynamicPo:
; File D:\Metin2 Server Files\mainline\SRC_2014\Metin2Client\eterLib\Pool.h

; 162  : 			m_kVct_pkFree.clear();

  00029	8b 4f 10	 mov	 ecx, DWORD PTR [edi+16]
  0002c	89 77 08	 mov	 DWORD PTR [edi+8], esi
  0002f	89 4f 14	 mov	 DWORD PTR [edi+20], ecx
; File C:\Program Files (x86)\Microsoft Visual Studio\2019\Community\VC\Tools\MSVC\14.28.29333\include\vector

; 1694 :         if (_Myfirst) { // destroy and deallocate old array

  00032	85 c9		 test	 ecx, ecx
  00034	74 27		 je	 SHORT $LN27@CDynamicPo

; 1695 :             _Destroy(_Myfirst, _Mylast);
; 1696 :             _Getal().deallocate(_Myfirst, static_cast<size_type>(_Myend - _Myfirst));

  00036	8b 47 18	 mov	 eax, DWORD PTR [edi+24]
  00039	2b c1		 sub	 eax, ecx
; File C:\Program Files (x86)\Microsoft Visual Studio\2019\Community\VC\Tools\MSVC\14.28.29333\include\xmemory

; 810  :         _Deallocate<_New_alignof<_Ty>>(_Ptr, sizeof(_Ty) * _Count);

  0003b	83 e0 fc	 and	 eax, -4			; fffffffcH
  0003e	50		 push	 eax
  0003f	51		 push	 ecx
  00040	e8 00 00 00 00	 call	 ??$_Deallocate@$07$0A@@std@@YAXPAXI@Z ; std::_Deallocate<8,0>
; File C:\Program Files (x86)\Microsoft Visual Studio\2019\Community\VC\Tools\MSVC\14.28.29333\include\vector

; 1698 :             _Myfirst = pointer();

  00045	c7 47 10 00 00
	00 00		 mov	 DWORD PTR [edi+16], 0
; File C:\Program Files (x86)\Microsoft Visual Studio\2019\Community\VC\Tools\MSVC\14.28.29333\include\xmemory

; 810  :         _Deallocate<_New_alignof<_Ty>>(_Ptr, sizeof(_Ty) * _Count);

  0004c	83 c4 08	 add	 esp, 8
; File C:\Program Files (x86)\Microsoft Visual Studio\2019\Community\VC\Tools\MSVC\14.28.29333\include\vector

; 1699 :             _Mylast  = pointer();

  0004f	c7 47 14 00 00
	00 00		 mov	 DWORD PTR [edi+20], 0

; 1700 :             _Myend   = pointer();

  00056	c7 47 18 00 00
	00 00		 mov	 DWORD PTR [edi+24], 0
$LN27@CDynamicPo:

; 1694 :         if (_Myfirst) { // destroy and deallocate old array

  0005d	8b 4f 04	 mov	 ecx, DWORD PTR [edi+4]
  00060	85 c9		 test	 ecx, ecx
  00062	74 27		 je	 SHORT $LN34@CDynamicPo

; 1695 :             _Destroy(_Myfirst, _Mylast);
; 1696 :             _Getal().deallocate(_Myfirst, static_cast<size_type>(_Myend - _Myfirst));

  00064	8b 47 0c	 mov	 eax, DWORD PTR [edi+12]
  00067	2b c1		 sub	 eax, ecx
; File C:\Program Files (x86)\Microsoft Visual Studio\2019\Community\VC\Tools\MSVC\14.28.29333\include\xmemory

; 810  :         _Deallocate<_New_alignof<_Ty>>(_Ptr, sizeof(_Ty) * _Count);

  00069	83 e0 fc	 and	 eax, -4			; fffffffcH
  0006c	50		 push	 eax
  0006d	51		 push	 ecx
  0006e	e8 00 00 00 00	 call	 ??$_Deallocate@$07$0A@@std@@YAXPAXI@Z ; std::_Deallocate<8,0>
; File C:\Program Files (x86)\Microsoft Visual Studio\2019\Community\VC\Tools\MSVC\14.28.29333\include\vector

; 1698 :             _Myfirst = pointer();

  00073	c7 47 04 00 00
	00 00		 mov	 DWORD PTR [edi+4], 0
; File C:\Program Files (x86)\Microsoft Visual Studio\2019\Community\VC\Tools\MSVC\14.28.29333\include\xmemory

; 810  :         _Deallocate<_New_alignof<_Ty>>(_Ptr, sizeof(_Ty) * _Count);

  0007a	83 c4 08	 add	 esp, 8
; File C:\Program Files (x86)\Microsoft Visual Studio\2019\Community\VC\Tools\MSVC\14.28.29333\include\vector

; 1699 :             _Mylast  = pointer();

  0007d	c7 47 08 00 00
	00 00		 mov	 DWORD PTR [edi+8], 0

; 1700 :             _Myend   = pointer();

  00084	c7 47 0c 00 00
	00 00		 mov	 DWORD PTR [edi+12], 0
$LN34@CDynamicPo:
  0008b	5f		 pop	 edi
; File D:\Metin2 Server Files\mainline\SRC_2014\Metin2Client\eterLib\Pool.h

; 142  : 		}

  0008c	5e		 pop	 esi
  0008d	5b		 pop	 ebx
  0008e	c3		 ret	 0
??1?$CDynamicPoolEx@VCRotationDecorator@NEffectUpdateDecorator@@@@UAE@XZ ENDP ; CDynamicPoolEx<NEffectUpdateDecorator::CRotationDecorator>::~CDynamicPoolEx<NEffectUpdateDecorator::CRotationDecorator>
_TEXT	ENDS
; Function compile flags: /Ogtp
; File C:\Program Files (x86)\Microsoft Visual Studio\2019\Community\VC\Tools\MSVC\14.28.29333\include\vector
; File C:\Program Files (x86)\Microsoft Visual Studio\2019\Community\VC\Tools\MSVC\14.28.29333\include\xmemory
; File C:\Program Files (x86)\Microsoft Visual Studio\2019\Community\VC\Tools\MSVC\14.28.29333\include\vector
; File C:\Program Files (x86)\Microsoft Visual Studio\2019\Community\VC\Tools\MSVC\14.28.29333\include\xmemory
; File C:\Program Files (x86)\Microsoft Visual Studio\2019\Community\VC\Tools\MSVC\14.28.29333\include\vector
;	COMDAT ??1?$vector@PAVCInstanceBase@@V?$allocator@PAVCInstanceBase@@@std@@@std@@QAE@XZ
_TEXT	SEGMENT
??1?$vector@PAVCInstanceBase@@V?$allocator@PAVCInstanceBase@@@std@@@std@@QAE@XZ PROC ; std::vector<CInstanceBase *,std::allocator<CInstanceBase *> >::~vector<CInstanceBase *,std::allocator<CInstanceBase *> >, COMDAT
; _this$ = ecx

; 672  :     ~vector() noexcept {

  00000	56		 push	 esi
  00001	8b f1		 mov	 esi, ecx

; 1694 :         if (_Myfirst) { // destroy and deallocate old array

  00003	8b 0e		 mov	 ecx, DWORD PTR [esi]
  00005	85 c9		 test	 ecx, ecx
  00007	74 26		 je	 SHORT $LN4@vector

; 1695 :             _Destroy(_Myfirst, _Mylast);
; 1696 :             _Getal().deallocate(_Myfirst, static_cast<size_type>(_Myend - _Myfirst));

  00009	8b 46 08	 mov	 eax, DWORD PTR [esi+8]
  0000c	2b c1		 sub	 eax, ecx
; File C:\Program Files (x86)\Microsoft Visual Studio\2019\Community\VC\Tools\MSVC\14.28.29333\include\xmemory

; 810  :         _Deallocate<_New_alignof<_Ty>>(_Ptr, sizeof(_Ty) * _Count);

  0000e	83 e0 fc	 and	 eax, -4			; fffffffcH
  00011	50		 push	 eax
  00012	51		 push	 ecx
  00013	e8 00 00 00 00	 call	 ??$_Deallocate@$07$0A@@std@@YAXPAXI@Z ; std::_Deallocate<8,0>
; File C:\Program Files (x86)\Microsoft Visual Studio\2019\Community\VC\Tools\MSVC\14.28.29333\include\vector

; 1698 :             _Myfirst = pointer();

  00018	c7 06 00 00 00
	00		 mov	 DWORD PTR [esi], 0
; File C:\Program Files (x86)\Microsoft Visual Studio\2019\Community\VC\Tools\MSVC\14.28.29333\include\xmemory

; 810  :         _Deallocate<_New_alignof<_Ty>>(_Ptr, sizeof(_Ty) * _Count);

  0001e	83 c4 08	 add	 esp, 8
; File C:\Program Files (x86)\Microsoft Visual Studio\2019\Community\VC\Tools\MSVC\14.28.29333\include\vector

; 1699 :             _Mylast  = pointer();

  00021	c7 46 04 00 00
	00 00		 mov	 DWORD PTR [esi+4], 0

; 1700 :             _Myend   = pointer();

  00028	c7 46 08 00 00
	00 00		 mov	 DWORD PTR [esi+8], 0
$LN4@vector:
  0002f	5e		 pop	 esi

; 673  :         _Tidy();
; 674  : #if _ITERATOR_DEBUG_LEVEL != 0
; 675  :         auto&& _Alproxy = _GET_PROXY_ALLOCATOR(_Alty, _Getal());
; 676  :         _Delete_plain_internal(_Alproxy, _STD exchange(_Mypair._Myval2._Myproxy, nullptr));
; 677  : #endif // _ITERATOR_DEBUG_LEVEL != 0
; 678  :     }

  00030	c3		 ret	 0
??1?$vector@PAVCInstanceBase@@V?$allocator@PAVCInstanceBase@@@std@@@std@@QAE@XZ ENDP ; std::vector<CInstanceBase *,std::allocator<CInstanceBase *> >::~vector<CInstanceBase *,std::allocator<CInstanceBase *> >
_TEXT	ENDS
; Function compile flags: /Ogtp
; File D:\Metin2 Server Files\mainline\SRC_2014\Metin2Client\UserInterface\PythonPlayerSkill.cpp
; File D:\Metin2 Server Files\mainline\SRC_2014\Metin2Client\UserInterface\GameType.h
; File D:\Metin2 Server Files\mainline\SRC_2014\Metin2Client\UserInterface\PythonPlayerSkill.cpp
; File D:\Metin2 Server Files\mainline\SRC_2014\Metin2Client\UserInterface\GameType.h
; File D:\Metin2 Server Files\mainline\SRC_2014\Metin2Client\UserInterface\PythonPlayerSkill.cpp
; File D:\Metin2 Server Files\mainline\SRC_2014\Metin2Client\UserInterface\GameType.h
; File D:\Metin2 Server Files\mainline\SRC_2014\Metin2Client\UserInterface\PythonPlayerSkill.cpp
; File D:\Metin2 Server Files\mainline\SRC_2014\Metin2Client\UserInterface\GameType.h
; File D:\Metin2 Server Files\mainline\SRC_2014\Metin2Client\UserInterface\PythonPlayerSkill.cpp
; File D:\Metin2 Server Files\mainline\SRC_2014\Metin2Client\UserInterface\GameType.h
; File D:\Metin2 Server Files\mainline\SRC_2014\Metin2Client\UserInterface\PythonPlayerSkill.cpp
;	COMDAT ?__HasItem@CPythonPlayer@@IAE_NK@Z
_TEXT	SEGMENT
$T1 = -3						; size = 3
_dwItemID$ = 8						; size = 4
$T2 = 9							; size = 3
?__HasItem@CPythonPlayer@@IAE_NK@Z PROC			; CPythonPlayer::__HasItem, COMDAT
; _this$ = ecx

; 840  : {

  00000	55		 push	 ebp
  00001	8b ec		 mov	 ebp, esp
  00003	51		 push	 ecx
  00004	53		 push	 ebx
; File D:\Metin2 Server Files\mainline\SRC_2014\Metin2Client\UserInterface\GameType.h

; 191  :         window_type = _window_type;

  00005	8b 5d 08	 mov	 ebx, DWORD PTR _dwItemID$[ebp]
; File D:\Metin2 Server Files\mainline\SRC_2014\Metin2Client\UserInterface\PythonPlayerSkill.cpp

; 840  : {

  00008	56		 push	 esi
  00009	57		 push	 edi

; 841  : 	for (int i = 0; i < c_Inventory_Count; ++i)

  0000a	33 f6		 xor	 esi, esi
; File D:\Metin2 Server Files\mainline\SRC_2014\Metin2Client\UserInterface\GameType.h

; 191  :         window_type = _window_type;

  0000c	c6 45 fd 01	 mov	 BYTE PTR $T1[ebp], 1
  00010	8d 79 04	 lea	 edi, DWORD PTR [ecx+4]
$LL4@HasItem:
; File D:\Metin2 Server Files\mainline\SRC_2014\Metin2Client\UserInterface\PythonPlayerSkill.cpp

; 843  : 		if (dwItemID == GetItemIndex(TItemPos (INVENTORY, i)))

  00013	8b 17		 mov	 edx, DWORD PTR [edi]
  00015	51		 push	 ecx
  00016	8b cc		 mov	 ecx, esp
; File D:\Metin2 Server Files\mainline\SRC_2014\Metin2Client\UserInterface\GameType.h

; 192  :         cell = _cell;

  00018	66 89 75 fe	 mov	 WORD PTR $T1[ebp+1], si
; File D:\Metin2 Server Files\mainline\SRC_2014\Metin2Client\UserInterface\PythonPlayerSkill.cpp

; 843  : 		if (dwItemID == GetItemIndex(TItemPos (INVENTORY, i)))

  0001c	66 8b 45 fd	 mov	 ax, WORD PTR $T1[ebp]
  00020	66 89 01	 mov	 WORD PTR [ecx], ax
  00023	8a 45 ff	 mov	 al, BYTE PTR $T1[ebp+2]
  00026	88 41 02	 mov	 BYTE PTR [ecx+2], al
  00029	8b cf		 mov	 ecx, edi
  0002b	ff 52 40	 call	 DWORD PTR [edx+64]
  0002e	3b d8		 cmp	 ebx, eax
  00030	74 42		 je	 SHORT $LN18@HasItem

; 841  : 	for (int i = 0; i < c_Inventory_Count; ++i)

  00032	46		 inc	 esi
  00033	81 fe a8 00 00
	00		 cmp	 esi, 168		; 000000a8H
  00039	72 d8		 jb	 SHORT $LL4@HasItem

; 844  : 			return true;
; 845  : 	}
; 846  : 	for (int i = 0; i < c_DragonSoul_Inventory_Count; ++i)

  0003b	33 f6		 xor	 esi, esi
; File D:\Metin2 Server Files\mainline\SRC_2014\Metin2Client\UserInterface\GameType.h

; 191  :         window_type = _window_type;

  0003d	c6 45 09 05	 mov	 BYTE PTR $T2[ebp], 5
$LL7@HasItem:
; File D:\Metin2 Server Files\mainline\SRC_2014\Metin2Client\UserInterface\PythonPlayerSkill.cpp

; 848  : 		if (dwItemID == GetItemIndex(TItemPos (DRAGON_SOUL_INVENTORY, i)))

  00041	8b 17		 mov	 edx, DWORD PTR [edi]
  00043	51		 push	 ecx
  00044	8b cc		 mov	 ecx, esp
; File D:\Metin2 Server Files\mainline\SRC_2014\Metin2Client\UserInterface\GameType.h

; 192  :         cell = _cell;

  00046	66 89 75 0a	 mov	 WORD PTR $T2[ebp+1], si
; File D:\Metin2 Server Files\mainline\SRC_2014\Metin2Client\UserInterface\PythonPlayerSkill.cpp

; 848  : 		if (dwItemID == GetItemIndex(TItemPos (DRAGON_SOUL_INVENTORY, i)))

  0004a	66 8b 45 09	 mov	 ax, WORD PTR $T2[ebp]
  0004e	66 89 01	 mov	 WORD PTR [ecx], ax
  00051	8a 45 0b	 mov	 al, BYTE PTR $T2[ebp+2]
  00054	88 41 02	 mov	 BYTE PTR [ecx+2], al
  00057	8b cf		 mov	 ecx, edi
  00059	ff 52 40	 call	 DWORD PTR [edx+64]
  0005c	3b d8		 cmp	 ebx, eax
  0005e	74 14		 je	 SHORT $LN18@HasItem

; 844  : 			return true;
; 845  : 	}
; 846  : 	for (int i = 0; i < c_DragonSoul_Inventory_Count; ++i)

  00060	46		 inc	 esi
  00061	81 fe c0 03 00
	00		 cmp	 esi, 960		; 000003c0H
  00067	72 d8		 jb	 SHORT $LL7@HasItem

; 849  : 			return true;
; 850  : 	}
; 851  : 
; 852  : 	return false;

  00069	32 c0		 xor	 al, al

; 853  : }

  0006b	5f		 pop	 edi
  0006c	5e		 pop	 esi
  0006d	5b		 pop	 ebx
  0006e	8b e5		 mov	 esp, ebp
  00070	5d		 pop	 ebp
  00071	c2 04 00	 ret	 4
$LN18@HasItem:
  00074	5f		 pop	 edi
  00075	5e		 pop	 esi
  00076	b0 01		 mov	 al, 1
  00078	5b		 pop	 ebx
  00079	8b e5		 mov	 esp, ebp
  0007b	5d		 pop	 ebp
  0007c	c2 04 00	 ret	 4
?__HasItem@CPythonPlayer@@IAE_NK@Z ENDP			; CPythonPlayer::__HasItem
_TEXT	ENDS
; Function compile flags: /Ogtp
; File D:\Metin2 Server Files\mainline\SRC_2014\Metin2Client\UserInterface\PythonPlayerSkill.cpp
; File D:\Metin2 Server Files\mainline\SRC_2014\Metin2Client\UserInterface\GameType.h
; File D:\Metin2 Server Files\mainline\SRC_2014\Metin2Client\UserInterface\PythonPlayerSkill.cpp
;	COMDAT ?__HasEnoughArrow@CPythonPlayer@@IAE_NXZ
_TEXT	SEGMENT
_pItemData$ = -8					; size = 4
$T1 = -3						; size = 3
?__HasEnoughArrow@CPythonPlayer@@IAE_NXZ PROC		; CPythonPlayer::__HasEnoughArrow, COMDAT
; _this$ = ecx

; 826  : {

  00000	55		 push	 ebp
  00001	8b ec		 mov	 ebp, esp
  00003	83 ec 08	 sub	 esp, 8
  00006	56		 push	 esi
; File D:\Metin2 Server Files\mainline\SRC_2014\Metin2Client\UserInterface\GameType.h

; 192  :         cell = _cell;

  00007	b8 63 00 00 00	 mov	 eax, 99			; 00000063H
  0000c	c6 45 fd 01	 mov	 BYTE PTR $T1[ebp], 1
  00010	66 89 45 fe	 mov	 WORD PTR $T1[ebp+1], ax
; File D:\Metin2 Server Files\mainline\SRC_2014\Metin2Client\UserInterface\PythonPlayerSkill.cpp

; 828  : 	if (CItemManager::Instance().GetItemDataPointer(GetItemIndex(TItemPos(INVENTORY, c_Equipment_Arrow)), &pItemData))

  00014	8d 45 f8	 lea	 eax, DWORD PTR _pItemData$[ebp]
  00017	57		 push	 edi
  00018	50		 push	 eax
  00019	66 8b 45 fd	 mov	 ax, WORD PTR $T1[ebp]
  0001d	8b f9		 mov	 edi, ecx
  0001f	51		 push	 ecx
  00020	8b cc		 mov	 ecx, esp
  00022	8b 57 04	 mov	 edx, DWORD PTR [edi+4]
  00025	66 89 01	 mov	 WORD PTR [ecx], ax
  00028	8a 45 ff	 mov	 al, BYTE PTR $T1[ebp+2]
  0002b	88 41 02	 mov	 BYTE PTR [ecx+2], al
  0002e	8d 4f 04	 lea	 ecx, DWORD PTR [edi+4]
  00031	ff 52 40	 call	 DWORD PTR [edx+64]
  00034	8b 0d 00 00 00
	00		 mov	 ecx, DWORD PTR ?ms_singleton@?$CSingleton@VCItemManager@@@@0PAVCItemManager@@A ; CSingleton<CItemManager>::ms_singleton
  0003a	50		 push	 eax
  0003b	e8 00 00 00 00	 call	 ?GetItemDataPointer@CItemManager@@QAEHKPAPAVCItemData@@@Z ; CItemManager::GetItemDataPointer
  00040	85 c0		 test	 eax, eax
  00042	74 20		 je	 SHORT $LN4@HasEnoughA

; 829  : 	if (CItemData::ITEM_TYPE_WEAPON == pItemData->GetType())

  00044	8b 4d f8	 mov	 ecx, DWORD PTR _pItemData$[ebp]
  00047	e8 00 00 00 00	 call	 ?GetType@CItemData@@QBEEXZ ; CItemData::GetType
  0004c	3c 01		 cmp	 al, 1
  0004e	75 14		 jne	 SHORT $LN4@HasEnoughA

; 830  : 	if (CItemData::WEAPON_ARROW == pItemData->GetSubType())

  00050	8b 4d f8	 mov	 ecx, DWORD PTR _pItemData$[ebp]
  00053	e8 00 00 00 00	 call	 ?GetSubType@CItemData@@QBEEXZ ; CItemData::GetSubType
  00058	3c 06		 cmp	 al, 6
  0005a	75 08		 jne	 SHORT $LN4@HasEnoughA

; 831  : 	{
; 832  : 		return true;

  0005c	b0 01		 mov	 al, 1

; 837  : }

  0005e	5f		 pop	 edi
  0005f	5e		 pop	 esi
  00060	8b e5		 mov	 esp, ebp
  00062	5d		 pop	 ebp
  00063	c3		 ret	 0
$LN4@HasEnoughA:

; 833  : 	}
; 834  : 
; 835  : 	PyCallClassMemberFunc(m_ppyGameWindow, "OnCannotShotError", Py_BuildValue("(is)", GetMainCharacterIndex(), "EMPTY_ARROW"));

  00064	8b 47 04	 mov	 eax, DWORD PTR [edi+4]
  00067	8d 4f 04	 lea	 ecx, DWORD PTR [edi+4]
  0006a	68 00 00 00 00	 push	 OFFSET ??_C@_0M@FBIHMJDM@EMPTY_ARROW@
  0006f	ff 50 04	 call	 DWORD PTR [eax+4]
  00072	50		 push	 eax
  00073	68 00 00 00 00	 push	 OFFSET ??_C@_04JMLDJNEM@?$CIis?$CJ@
  00078	ff 15 00 00 00
	00		 call	 DWORD PTR __imp__Py_BuildValue
  0007e	50		 push	 eax
  0007f	68 00 00 00 00	 push	 OFFSET ??_C@_0BC@FKINMGLI@OnCannotShotError@
  00084	ff 77 08	 push	 DWORD PTR [edi+8]
  00087	e8 00 00 00 00	 call	 ?PyCallClassMemberFunc@@YA_NPAU_object@@PBD0@Z ; PyCallClassMemberFunc
  0008c	83 c4 18	 add	 esp, 24			; 00000018H

; 836  : 	return false;

  0008f	32 c0		 xor	 al, al

; 837  : }

  00091	5f		 pop	 edi
  00092	5e		 pop	 esi
  00093	8b e5		 mov	 esp, ebp
  00095	5d		 pop	 ebp
  00096	c3		 ret	 0
?__HasEnoughArrow@CPythonPlayer@@IAE_NXZ ENDP		; CPythonPlayer::__HasEnoughArrow
_TEXT	ENDS
; Function compile flags: /Ogtp
; File D:\Metin2 Server Files\mainline\SRC_2014\Metin2Client\UserInterface\PythonPlayerSkill.cpp
;	COMDAT ?__ProcessEnemySkillTargetRange@CPythonPlayer@@IAE_NAAVCInstanceBase@@0AAUSSkillData@CPythonSkill@@K@Z
_TEXT	SEGMENT
_dwSkillTargetRange$1$ = -28				; size = 4
_fSkillTargetRange$1$ = -24				; size = 4
_rkInstMain$GSCopy$1$ = -20				; size = 4
_fTargetDistance$ = -20					; size = 4
_kPPosTarget$ = -16					; size = 12
__$ArrayPad$ = -4					; size = 4
_rkInstMain$ = 8					; size = 4
_rkInstTarget$ = 12					; size = 4
_rkSkillData$ = 16					; size = 4
_dwSkillSlotIndex$ = 20					; size = 4
?__ProcessEnemySkillTargetRange@CPythonPlayer@@IAE_NAAVCInstanceBase@@0AAUSSkillData@CPythonSkill@@K@Z PROC ; CPythonPlayer::__ProcessEnemySkillTargetRange, COMDAT
; _this$ = ecx

; 397  : {

  00000	55		 push	 ebp
  00001	8b ec		 mov	 ebp, esp
  00003	83 ec 1c	 sub	 esp, 28			; 0000001cH
  00006	a1 00 00 00 00	 mov	 eax, DWORD PTR ___security_cookie
  0000b	33 c5		 xor	 eax, ebp
  0000d	89 45 fc	 mov	 DWORD PTR __$ArrayPad$[ebp], eax
  00010	8b 45 08	 mov	 eax, DWORD PTR _rkInstMain$[ebp]
  00013	53		 push	 ebx
  00014	8b 5d 0c	 mov	 ebx, DWORD PTR _rkInstTarget$[ebp]
  00017	56		 push	 esi
  00018	57		 push	 edi
  00019	8b 7d 10	 mov	 edi, DWORD PTR _rkSkillData$[ebp]
  0001c	8b f1		 mov	 esi, ecx

; 398  : 	DWORD dwSkillTargetRange=__GetSkillTargetRange(rkSkillData);

  0001e	57		 push	 edi
  0001f	89 45 ec	 mov	 DWORD PTR _rkInstMain$GSCopy$1$[ebp], eax
  00022	e8 00 00 00 00	 call	 ?__GetSkillTargetRange@CPythonPlayer@@IAEKAAUSSkillData@CPythonSkill@@@Z ; CPythonPlayer::__GetSkillTargetRange

; 399  : 	float fSkillTargetRange = float(dwSkillTargetRange);

  00027	8b c8		 mov	 ecx, eax
  00029	89 45 e4	 mov	 DWORD PTR _dwSkillTargetRange$1$[ebp], eax
  0002c	c1 e9 1f	 shr	 ecx, 31			; 0000001fH
  0002f	66 0f 6e c0	 movd	 xmm0, eax
  00033	f3 0f e6 c0	 cvtdq2pd xmm0, xmm0
  00037	f2 0f 58 04 cd
	00 00 00 00	 addsd	 xmm0, QWORD PTR __xmm@41f00000000000000000000000000000[ecx*8]
  00040	66 0f 5a c8	 cvtpd2ps xmm1, xmm0
  00044	0f 57 c0	 xorps	 xmm0, xmm0

; 400  : 	if (fSkillTargetRange <= 0.0f)

  00047	0f 2f c1	 comiss	 xmm0, xmm1
  0004a	f3 0f 11 4d e8	 movss	 DWORD PTR _fSkillTargetRange$1$[ebp], xmm1
  0004f	0f 83 e7 00 00
	00		 jae	 $LN7@ProcessEne

; 401  : 		return true;
; 402  : 
; 403  : 	// #0000806: [M2EU]  ()    	
; 404  : 	float fTargetDistance = rkInstMain.GetDistance(&rkInstTarget);

  00055	8b 4d ec	 mov	 ecx, DWORD PTR _rkInstMain$GSCopy$1$[ebp]
  00058	53		 push	 ebx
  00059	e8 00 00 00 00	 call	 ?GetDistance@CInstanceBase@@QAEMPAV1@@Z ; CInstanceBase::GetDistance

; 405  : 
; 406  : 	extern bool IS_HUGE_RACE(unsigned int vnum);
; 407  : 	if (IS_HUGE_RACE(rkInstTarget.GetRace()))

  0005e	8b cb		 mov	 ecx, ebx
  00060	d9 5d ec	 fstp	 DWORD PTR _fTargetDistance$[ebp]
  00063	e8 00 00 00 00	 call	 ?GetRace@CInstanceBase@@QAEKXZ ; CInstanceBase::GetRace
  00068	50		 push	 eax
  00069	e8 00 00 00 00	 call	 ?IS_HUGE_RACE@@YA_NI@Z	; IS_HUGE_RACE
  0006e	f3 0f 10 45 ec	 movss	 xmm0, DWORD PTR _fTargetDistance$[ebp]
  00073	83 c4 04	 add	 esp, 4
  00076	84 c0		 test	 al, al
  00078	74 08		 je	 SHORT $LN3@ProcessEne

; 408  : 	{
; 409  : 		fTargetDistance -= 200.0f; // TEMP:    .    

  0007a	f3 0f 5c 05 00
	00 00 00	 subss	 xmm0, DWORD PTR __real@43480000
$LN3@ProcessEne:

; 410  : 	}
; 411  : 
; 412  : 	if (fTargetDistance >= fSkillTargetRange)

  00082	0f 2f 45 e8	 comiss	 xmm0, DWORD PTR _fSkillTargetRange$1$[ebp]
  00086	72 4c		 jb	 SHORT $LN4@ProcessEne

; 413  : 	{
; 414  : 		if (rkSkillData.IsChargeSkill())

  00088	8b cf		 mov	 ecx, edi
  0008a	e8 00 00 00 00	 call	 ?IsChargeSkill@SSkillData@CPythonSkill@@QAEHXZ ; CPythonSkill::SSkillData::IsChargeSkill
  0008f	8b 7d 14	 mov	 edi, DWORD PTR _dwSkillSlotIndex$[ebp]
  00092	85 c0		 test	 eax, eax
  00094	74 16		 je	 SHORT $LN6@ProcessEne

; 415  : 		{
; 416  : 			if (!__IsReservedUseSkill(dwSkillSlotIndex))

  00096	57		 push	 edi
  00097	8b ce		 mov	 ecx, esi
  00099	e8 00 00 00 00	 call	 ?__IsReservedUseSkill@CPythonPlayer@@IAE_NK@Z ; CPythonPlayer::__IsReservedUseSkill
  0009e	84 c0		 test	 al, al
  000a0	75 0a		 jne	 SHORT $LN6@ProcessEne

; 417  : 				__SendUseSkill(dwSkillSlotIndex, 0);

  000a2	6a 00		 push	 0
  000a4	57		 push	 edi
  000a5	8b ce		 mov	 ecx, esi
  000a7	e8 00 00 00 00	 call	 ?__SendUseSkill@CPythonPlayer@@IAEXKK@Z ; CPythonPlayer::__SendUseSkill
$LN6@ProcessEne:

; 418  : 		}
; 419  : 
; 420  : 		__ReserveUseSkill(rkInstTarget.GetVirtualID(), dwSkillSlotIndex, dwSkillTargetRange);

  000ac	ff 75 e4	 push	 DWORD PTR _dwSkillTargetRange$1$[ebp]
  000af	8b cb		 mov	 ecx, ebx
  000b1	57		 push	 edi
  000b2	e8 00 00 00 00	 call	 ?GetVirtualID@CInstanceBase@@QAEKXZ ; CInstanceBase::GetVirtualID
  000b7	50		 push	 eax
  000b8	8b ce		 mov	 ecx, esi
  000ba	e8 00 00 00 00	 call	 ?__ReserveUseSkill@CPythonPlayer@@IAEXKKK@Z ; CPythonPlayer::__ReserveUseSkill
  000bf	5f		 pop	 edi

; 434  : 	}
; 435  : 
; 436  : 	return true;
; 437  : }

  000c0	5e		 pop	 esi
  000c1	32 c0		 xor	 al, al
  000c3	5b		 pop	 ebx
  000c4	8b 4d fc	 mov	 ecx, DWORD PTR __$ArrayPad$[ebp]
  000c7	33 cd		 xor	 ecx, ebp
  000c9	e8 00 00 00 00	 call	 @__security_check_cookie@4
  000ce	8b e5		 mov	 esp, ebp
  000d0	5d		 pop	 ebp
  000d1	c2 10 00	 ret	 16			; 00000010H
$LN4@ProcessEne:

; 421  : 
; 422  : 		return false;
; 423  : 	}
; 424  : 
; 425  : 	// 2004.07.05.myevan.    .    
; 426  : 	TPixelPosition kPPosTarget;
; 427  : 	rkInstTarget.NEW_GetPixelPosition(&kPPosTarget);

  000d4	8d 45 f0	 lea	 eax, DWORD PTR _kPPosTarget$[ebp]
  000d7	8b cb		 mov	 ecx, ebx
  000d9	50		 push	 eax
  000da	e8 00 00 00 00	 call	 ?NEW_GetPixelPosition@CInstanceBase@@QAEXPAUD3DXVECTOR3@@@Z ; CInstanceBase::NEW_GetPixelPosition

; 428  : 
; 429  : 	IBackground& rkBG=IBackground::Instance();
; 430  : 	if (rkBG.IsBlock(kPPosTarget.x, kPPosTarget.y))

  000df	f3 0f 2c 45 f4	 cvttss2si eax, DWORD PTR _kPPosTarget$[ebp+4]
  000e4	8b 0d 00 00 00
	00		 mov	 ecx, DWORD PTR ?ms_singleton@?$CSingleton@VIBackground@@@@0PAVIBackground@@A ; CSingleton<IBackground>::ms_singleton
  000ea	8b 11		 mov	 edx, DWORD PTR [ecx]
  000ec	50		 push	 eax
  000ed	f3 0f 2c 45 f0	 cvttss2si eax, DWORD PTR _kPPosTarget$[ebp]
  000f2	50		 push	 eax
  000f3	8b 42 04	 mov	 eax, DWORD PTR [edx+4]
  000f6	ff d0		 call	 eax
  000f8	84 c0		 test	 al, al
  000fa	74 40		 je	 SHORT $LN7@ProcessEne

; 431  : 	{
; 432  : 		PyCallClassMemberFunc(m_ppyGameWindow, "OnCannotUseSkill", Py_BuildValue("(is)", GetMainCharacterIndex(), "CANNOT_APPROACH"));

  000fc	8b 46 04	 mov	 eax, DWORD PTR [esi+4]
  000ff	8d 4e 04	 lea	 ecx, DWORD PTR [esi+4]
  00102	68 00 00 00 00	 push	 OFFSET ??_C@_0BA@CFBPJACC@CANNOT_APPROACH@
  00107	ff 50 04	 call	 DWORD PTR [eax+4]
  0010a	50		 push	 eax
  0010b	68 00 00 00 00	 push	 OFFSET ??_C@_04JMLDJNEM@?$CIis?$CJ@
  00110	ff 15 00 00 00
	00		 call	 DWORD PTR __imp__Py_BuildValue
  00116	50		 push	 eax
  00117	68 00 00 00 00	 push	 OFFSET ??_C@_0BB@BOHMBBJL@OnCannotUseSkill@
  0011c	ff 76 08	 push	 DWORD PTR [esi+8]
  0011f	e8 00 00 00 00	 call	 ?PyCallClassMemberFunc@@YA_NPAU_object@@PBD0@Z ; PyCallClassMemberFunc
  00124	83 c4 18	 add	 esp, 24			; 00000018H

; 433  : 		return false;

  00127	32 c0		 xor	 al, al
  00129	5f		 pop	 edi

; 434  : 	}
; 435  : 
; 436  : 	return true;
; 437  : }

  0012a	5e		 pop	 esi
  0012b	5b		 pop	 ebx
  0012c	8b 4d fc	 mov	 ecx, DWORD PTR __$ArrayPad$[ebp]
  0012f	33 cd		 xor	 ecx, ebp
  00131	e8 00 00 00 00	 call	 @__security_check_cookie@4
  00136	8b e5		 mov	 esp, ebp
  00138	5d		 pop	 ebp
  00139	c2 10 00	 ret	 16			; 00000010H
$LN7@ProcessEne:
  0013c	8b 4d fc	 mov	 ecx, DWORD PTR __$ArrayPad$[ebp]
  0013f	b0 01		 mov	 al, 1
  00141	5f		 pop	 edi
  00142	5e		 pop	 esi
  00143	33 cd		 xor	 ecx, ebp
  00145	5b		 pop	 ebx
  00146	e8 00 00 00 00	 call	 @__security_check_cookie@4
  0014b	8b e5		 mov	 esp, ebp
  0014d	5d		 pop	 ebp
  0014e	c2 10 00	 ret	 16			; 00000010H
?__ProcessEnemySkillTargetRange@CPythonPlayer@@IAE_NAAVCInstanceBase@@0AAUSSkillData@CPythonSkill@@K@Z ENDP ; CPythonPlayer::__ProcessEnemySkillTargetRange
_TEXT	ENDS
; Function compile flags: /Ogtp
; File D:\Metin2 Server Files\mainline\SRC_2014\Metin2Client\UserInterface\PythonPlayerSkill.cpp
;	COMDAT ?__GetSkillTargetRange@CPythonPlayer@@IAEKAAUSSkillData@CPythonSkill@@@Z
_TEXT	SEGMENT
_rkSkillData$ = 8					; size = 4
?__GetSkillTargetRange@CPythonPlayer@@IAEKAAUSSkillData@CPythonSkill@@@Z PROC ; CPythonPlayer::__GetSkillTargetRange, COMDAT
; _this$ = ecx

; 392  : {

  00000	55		 push	 ebp
  00001	8b ec		 mov	 ebp, esp

; 393  : 	return rkSkillData.GetTargetRange() + GetStatus(POINT_BOW_DISTANCE)*100;

  00003	8b 41 04	 mov	 eax, DWORD PTR [ecx+4]
  00006	83 c1 04	 add	 ecx, 4
  00009	56		 push	 esi
  0000a	6a 22		 push	 34			; 00000022H
  0000c	ff 50 10	 call	 DWORD PTR [eax+16]
  0000f	8b 4d 08	 mov	 ecx, DWORD PTR _rkSkillData$[ebp]
  00012	6b f0 64	 imul	 esi, eax, 100
  00015	e8 00 00 00 00	 call	 ?GetTargetRange@SSkillData@CPythonSkill@@QBEKXZ ; CPythonSkill::SSkillData::GetTargetRange
  0001a	03 c6		 add	 eax, esi
  0001c	5e		 pop	 esi

; 394  : }

  0001d	5d		 pop	 ebp
  0001e	c2 04 00	 ret	 4
?__GetSkillTargetRange@CPythonPlayer@@IAEKAAUSSkillData@CPythonSkill@@@Z ENDP ; CPythonPlayer::__GetSkillTargetRange
_TEXT	ENDS
; Function compile flags: /Ogtp
; File D:\Metin2 Server Files\mainline\SRC_2014\Metin2Client\UserInterface\PythonPlayerSkill.cpp
;	COMDAT ?__GetSkillType@CPythonPlayer@@IAEEK@Z
_TEXT	SEGMENT
_pkSkillData$ = -4					; size = 4
_dwSkillSlotIndex$ = 8					; size = 4
?__GetSkillType@CPythonPlayer@@IAEEK@Z PROC		; CPythonPlayer::__GetSkillType, COMDAT
; _this$ = ecx

; 783  : {

  00000	55		 push	 ebp
  00001	8b ec		 mov	 ebp, esp
  00003	51		 push	 ecx

; 784  : 	TSkillInstance & rkSkillInst = m_playerStatus.aSkill[dwSkillSlotIndex];
; 785  : 
; 786  : 	CPythonSkill::TSkillData * pkSkillData;
; 787  : 	CPythonSkill& rkPythonSkill = CPythonSkill::Instance();
; 788  : 	if (!rkPythonSkill.GetSkillData(rkSkillInst.dwIndex, &pkSkillData))

  00004	8d 45 fc	 lea	 eax, DWORD PTR _pkSkillData$[ebp]
  00007	50		 push	 eax
  00008	8b 45 08	 mov	 eax, DWORD PTR _dwSkillSlotIndex$[ebp]
  0000b	8d 04 80	 lea	 eax, DWORD PTR [eax+eax*4]
  0000e	ff b4 c1 68 cb
	00 00		 push	 DWORD PTR [ecx+eax*8+52072]
  00015	8b 0d 00 00 00
	00		 mov	 ecx, DWORD PTR ?ms_singleton@?$CSingleton@VCPythonSkill@@@@0PAVCPythonSkill@@A ; CSingleton<CPythonSkill>::ms_singleton
  0001b	e8 00 00 00 00	 call	 ?GetSkillData@CPythonSkill@@QAEHKPAPAUSSkillData@1@@Z ; CPythonSkill::GetSkillData
  00020	85 c0		 test	 eax, eax
  00022	75 08		 jne	 SHORT $LN2@GetSkillTy

; 789  : 	{
; 790  : 		//TraceError("CPythonPlayer::__GetSkillType(dwSkillSlotIndex=%d) - NOT CHECK", dwSkillSlotIndex);
; 791  : 		return 0;

  00024	32 c0		 xor	 al, al

; 794  : }

  00026	8b e5		 mov	 esp, ebp
  00028	5d		 pop	 ebp
  00029	c2 04 00	 ret	 4
$LN2@GetSkillTy:

; 792  : 	}
; 793  : 	return pkSkillData->GetType();

  0002c	8b 4d fc	 mov	 ecx, DWORD PTR _pkSkillData$[ebp]
  0002f	e8 00 00 00 00	 call	 ?GetType@SSkillData@CPythonSkill@@QBEEXZ ; CPythonSkill::SSkillData::GetType

; 794  : }

  00034	8b e5		 mov	 esp, ebp
  00036	5d		 pop	 ebp
  00037	c2 04 00	 ret	 4
?__GetSkillType@CPythonPlayer@@IAEEK@Z ENDP		; CPythonPlayer::__GetSkillType
_TEXT	ENDS
; Function compile flags: /Ogtp
; File D:\Metin2 Server Files\mainline\SRC_2014\Metin2Client\UserInterface\PythonPlayerSkill.cpp
;	COMDAT ?__RunCoolTime@CPythonPlayer@@IAEXK@Z
_TEXT	SEGMENT
tv169 = -4						; size = 4
_pkSkillData$ = 8					; size = 4
_dwSkillSlotIndex$ = 8					; size = 4
?__RunCoolTime@CPythonPlayer@@IAEXK@Z PROC		; CPythonPlayer::__RunCoolTime, COMDAT
; _this$ = ecx

; 797  : {

  00000	55		 push	 ebp
  00001	8b ec		 mov	 ebp, esp
  00003	51		 push	 ecx
  00004	53		 push	 ebx
  00005	56		 push	 esi
  00006	57		 push	 edi

; 798  : 	TSkillInstance & rkSkillInst = m_playerStatus.aSkill[dwSkillSlotIndex];

  00007	8b 7d 08	 mov	 edi, DWORD PTR _dwSkillSlotIndex$[ebp]

; 799  : 
; 800  : 	CPythonSkill::TSkillData * pkSkillData;
; 801  : 	if (!CPythonSkill::Instance().GetSkillData(rkSkillInst.dwIndex, &pkSkillData))

  0000a	8d 45 08	 lea	 eax, DWORD PTR _pkSkillData$[ebp]
  0000d	8b f1		 mov	 esi, ecx
  0000f	8b 0d 00 00 00
	00		 mov	 ecx, DWORD PTR ?ms_singleton@?$CSingleton@VCPythonSkill@@@@0PAVCPythonSkill@@A ; CSingleton<CPythonSkill>::ms_singleton
  00015	50		 push	 eax
  00016	8d 1c bf	 lea	 ebx, DWORD PTR [edi+edi*4]
  00019	ff b4 de 68 cb
	00 00		 push	 DWORD PTR [esi+ebx*8+52072]
  00020	e8 00 00 00 00	 call	 ?GetSkillData@CPythonSkill@@QAEHKPAPAUSSkillData@1@@Z ; CPythonSkill::GetSkillData
  00025	85 c0		 test	 eax, eax
  00027	75 17		 jne	 SHORT $LN2@RunCoolTim

; 802  : 	{
; 803  : 		TraceError("CPythonPlayer::__SendUseSkill(dwSkillSlotIndex=%d) - NOT CHECK", dwSkillSlotIndex);

  00029	57		 push	 edi
  0002a	68 00 00 00 00	 push	 OFFSET ??_C@_0DP@EKGIGFIO@CPythonPlayer?3?3__SendUseSkill?$CId@
  0002f	e8 00 00 00 00	 call	 ?TraceError@@YAXPBDZZ	; TraceError
  00034	83 c4 08	 add	 esp, 8
  00037	5f		 pop	 edi

; 823  : }

  00038	5e		 pop	 esi
  00039	5b		 pop	 ebx
  0003a	8b e5		 mov	 esp, ebp
  0003c	5d		 pop	 ebp
  0003d	c2 04 00	 ret	 4
$LN2@RunCoolTim:

; 804  : 		return;
; 805  : 	}
; 806  : 
; 807  : 	CPythonSkill::TSkillData& rkSkillData=*pkSkillData;
; 808  : 
; 809  : 	rkSkillInst.fCoolTime = rkSkillData.GetSkillCoolTime(rkSkillInst.fcurEfficientPercentage);

  00040	f3 0f 10 84 de
	78 cb 00 00	 movss	 xmm0, DWORD PTR [esi+ebx*8+52088]
  00049	51		 push	 ecx
  0004a	8b 4d 08	 mov	 ecx, DWORD PTR _pkSkillData$[ebp]
  0004d	f3 0f 11 04 24	 movss	 DWORD PTR [esp], xmm0
  00052	e8 00 00 00 00	 call	 ?GetSkillCoolTime@SSkillData@CPythonSkill@@QAEKM@Z ; CPythonSkill::SSkillData::GetSkillCoolTime
  00057	66 0f 6e c0	 movd	 xmm0, eax
  0005b	f3 0f e6 c0	 cvtdq2pd xmm0, xmm0
  0005f	c1 e8 1f	 shr	 eax, 31			; 0000001fH
  00062	f2 0f 58 04 c5
	00 00 00 00	 addsd	 xmm0, QWORD PTR __xmm@41f00000000000000000000000000000[eax*8]
  0006b	66 0f 5a c0	 cvtpd2ps xmm0, xmm0
  0006f	f3 0f 11 84 de
	84 cb 00 00	 movss	 DWORD PTR [esi+ebx*8+52100], xmm0

; 810  : 	rkSkillInst.fLastUsedTime = CTimer::Instance().GetCurrentSecond();

  00078	8b 0d 00 00 00
	00		 mov	 ecx, DWORD PTR ?ms_singleton@?$CSingleton@VCTimer@@@@0PAVCTimer@@A ; CSingleton<CTimer>::ms_singleton
  0007e	e8 00 00 00 00	 call	 ?GetCurrentSecond@CTimer@@QAEMXZ ; CTimer::GetCurrentSecond

; 811  : 
; 812  : 	int iSpd = 100 - GetStatus(POINT_CASTING_SPEED);

  00083	8d 4e 04	 lea	 ecx, DWORD PTR [esi+4]
  00086	d9 9c de 88 cb
	00 00		 fstp	 DWORD PTR [esi+ebx*8+52104]
  0008d	8b 01		 mov	 eax, DWORD PTR [ecx]
  0008f	6a 15		 push	 21			; 00000015H
  00091	ff 50 10	 call	 DWORD PTR [eax+16]
  00094	ba 64 00 00 00	 mov	 edx, 100		; 00000064H
  00099	8b ca		 mov	 ecx, edx
  0009b	2b c8		 sub	 ecx, eax

; 813  : 	if (iSpd > 0)

  0009d	85 c9		 test	 ecx, ecx
  0009f	7e 04		 jle	 SHORT $LN8@RunCoolTim

; 814  : 		iSpd = 100 + iSpd;

  000a1	03 ca		 add	 ecx, edx
  000a3	eb 16		 jmp	 SHORT $LN6@RunCoolTim
$LN8@RunCoolTim:

; 815  : 	else if (iSpd < 0)

  000a5	79 12		 jns	 SHORT $LN5@RunCoolTim

; 816  : 		iSpd = 10000 / (100 - iSpd);

  000a7	2b d1		 sub	 edx, ecx
  000a9	b8 10 27 00 00	 mov	 eax, 10000		; 00002710H
  000ae	89 55 fc	 mov	 DWORD PTR tv169[ebp], edx
  000b1	99		 cdq
  000b2	f7 7d fc	 idiv	 DWORD PTR tv169[ebp]
  000b5	8b c8		 mov	 ecx, eax
  000b7	eb 02		 jmp	 SHORT $LN6@RunCoolTim
$LN5@RunCoolTim:

; 817  : 	else
; 818  : 		iSpd = 100;

  000b9	8b ca		 mov	 ecx, edx
$LN6@RunCoolTim:
  000bb	66 0f 6e c1	 movd	 xmm0, ecx

; 819  : 
; 820  : 	rkSkillInst.fCoolTime = rkSkillInst.fCoolTime * iSpd / 100;
; 821  : 
; 822  : 	PyCallClassMemberFunc(m_ppyGameWindow, "RunUseSkillEvent", Py_BuildValue("(if)", dwSkillSlotIndex, rkSkillInst.fCoolTime));

  000bf	83 ec 08	 sub	 esp, 8
  000c2	0f 5b c0	 cvtdq2ps xmm0, xmm0
  000c5	f3 0f 59 84 de
	84 cb 00 00	 mulss	 xmm0, DWORD PTR [esi+ebx*8+52100]
  000ce	f3 0f 5e 05 00
	00 00 00	 divss	 xmm0, DWORD PTR __real@42c80000
  000d6	f3 0f 11 84 de
	84 cb 00 00	 movss	 DWORD PTR [esi+ebx*8+52100], xmm0
  000df	0f 5a c0	 cvtps2pd xmm0, xmm0
  000e2	f2 0f 11 04 24	 movsd	 QWORD PTR [esp], xmm0
  000e7	57		 push	 edi
  000e8	68 00 00 00 00	 push	 OFFSET ??_C@_04IGFOPMNH@?$CIif?$CJ@
  000ed	ff 15 00 00 00
	00		 call	 DWORD PTR __imp__Py_BuildValue
  000f3	50		 push	 eax
  000f4	68 00 00 00 00	 push	 OFFSET ??_C@_0BB@GJACMMFG@RunUseSkillEvent@
  000f9	ff 76 08	 push	 DWORD PTR [esi+8]
  000fc	e8 00 00 00 00	 call	 ?PyCallClassMemberFunc@@YA_NPAU_object@@PBD0@Z ; PyCallClassMemberFunc
  00101	83 c4 1c	 add	 esp, 28			; 0000001cH
  00104	5f		 pop	 edi

; 823  : }

  00105	5e		 pop	 esi
  00106	5b		 pop	 ebx
  00107	8b e5		 mov	 esp, ebp
  00109	5d		 pop	 ebp
  0010a	c2 04 00	 ret	 4
?__RunCoolTime@CPythonPlayer@@IAEXK@Z ENDP		; CPythonPlayer::__RunCoolTime
_TEXT	ENDS
; Function compile flags: /Ogtp
; File D:\Metin2 Server Files\mainline\SRC_2014\Metin2Client\UserInterface\PythonPlayerSkill.cpp
;	COMDAT ?__SendUseSkill@CPythonPlayer@@IAEXKK@Z
_TEXT	SEGMENT
_dwSkillSlotIndex$ = 8					; size = 4
_dwTargetVID$ = 12					; size = 4
?__SendUseSkill@CPythonPlayer@@IAEXKK@Z PROC		; CPythonPlayer::__SendUseSkill, COMDAT
; _this$ = ecx

; 773  : {

  00000	55		 push	 ebp
  00001	8b ec		 mov	 ebp, esp
  00003	56		 push	 esi

; 774  : 	TSkillInstance & rkSkillInst = m_playerStatus.aSkill[dwSkillSlotIndex];

  00004	8b 75 08	 mov	 esi, DWORD PTR _dwSkillSlotIndex$[ebp]
  00007	57		 push	 edi

; 775  : 
; 776  : 	CPythonNetworkStream& rkNetStream=CPythonNetworkStream::Instance();
; 777  : 	rkNetStream.SendUseSkillPacket(rkSkillInst.dwIndex, dwTargetVID);

  00008	ff 75 0c	 push	 DWORD PTR _dwTargetVID$[ebp]
  0000b	8b f9		 mov	 edi, ecx
  0000d	8b 0d 00 00 00
	00		 mov	 ecx, DWORD PTR ?ms_singleton@?$CSingleton@VCPythonNetworkStream@@@@0PAVCPythonNetworkStream@@A ; CSingleton<CPythonNetworkStream>::ms_singleton
  00013	8d 04 b6	 lea	 eax, DWORD PTR [esi+esi*4]
  00016	ff b4 c7 68 cb
	00 00		 push	 DWORD PTR [edi+eax*8+52072]
  0001d	e8 00 00 00 00	 call	 ?SendUseSkillPacket@CPythonNetworkStream@@QAE_NKK@Z ; CPythonNetworkStream::SendUseSkillPacket

; 778  : 
; 779  : 	__RunCoolTime(dwSkillSlotIndex);

  00022	56		 push	 esi
  00023	8b cf		 mov	 ecx, edi
  00025	e8 00 00 00 00	 call	 ?__RunCoolTime@CPythonPlayer@@IAEXK@Z ; CPythonPlayer::__RunCoolTime
  0002a	5f		 pop	 edi
  0002b	5e		 pop	 esi

; 780  : }

  0002c	5d		 pop	 ebp
  0002d	c2 08 00	 ret	 8
?__SendUseSkill@CPythonPlayer@@IAEXKK@Z ENDP		; CPythonPlayer::__SendUseSkill
_TEXT	ENDS
; Function compile flags: /Ogtp
; File D:\Metin2 Server Files\mainline\SRC_2014\Metin2Client\UserInterface\PythonPlayerSkill.cpp
;	COMDAT ?__CheckDashAffect@CPythonPlayer@@IAE_NAAVCInstanceBase@@@Z
_TEXT	SEGMENT
_rkInstMain$ = 8					; size = 4
?__CheckDashAffect@CPythonPlayer@@IAE_NAAVCInstanceBase@@@Z PROC ; CPythonPlayer::__CheckDashAffect, COMDAT
; _this$ = ecx

; 382  : {

  00000	55		 push	 ebp
  00001	8b ec		 mov	 ebp, esp

; 383  : 	return rkInstMain.IsAffect(CInstanceBase::AFFECT_DASH);

  00003	8b 4d 08	 mov	 ecx, DWORD PTR _rkInstMain$[ebp]
  00006	6a 1f		 push	 31			; 0000001fH
  00008	e8 00 00 00 00	 call	 ?IsAffect@CInstanceBase@@QAE_NI@Z ; CInstanceBase::IsAffect

; 384  : }

  0000d	5d		 pop	 ebp
  0000e	c2 04 00	 ret	 4
?__CheckDashAffect@CPythonPlayer@@IAE_NAAVCInstanceBase@@@Z ENDP ; CPythonPlayer::__CheckDashAffect
_TEXT	ENDS
; Function compile flags: /Ogtp
; File D:\Metin2 Server Files\mainline\SRC_2014\Metin2Client\UserInterface\PythonPlayerSkill.cpp
;	COMDAT ?__CheckShortArrow@CPythonPlayer@@IAE_NAAUSSkillInstance@1@AAUSSkillData@CPythonSkill@@@Z
_TEXT	SEGMENT
_rkSkillInst$ = 8					; size = 4
_rkSkillData$ = 12					; size = 4
?__CheckShortArrow@CPythonPlayer@@IAE_NAAUSSkillInstance@1@AAUSSkillData@CPythonSkill@@@Z PROC ; CPythonPlayer::__CheckShortArrow, COMDAT
; _this$ = ecx

; 310  : {

  00000	55		 push	 ebp
  00001	8b ec		 mov	 ebp, esp
  00003	56		 push	 esi
  00004	8b f1		 mov	 esi, ecx

; 311  : 	if (!rkSkillData.IsNeedBow())

  00006	8b 4d 0c	 mov	 ecx, DWORD PTR _rkSkillData$[ebp]
  00009	e8 00 00 00 00	 call	 ?IsNeedBow@SSkillData@CPythonSkill@@QAEHXZ ; CPythonSkill::SSkillData::IsNeedBow
  0000e	85 c0		 test	 eax, eax
  00010	74 12		 je	 SHORT $LN5@CheckShort

; 312  : 		return false;
; 313  : 
; 314  : 	if (__HasEnoughArrow())

  00012	8b ce		 mov	 ecx, esi
  00014	e8 00 00 00 00	 call	 ?__HasEnoughArrow@CPythonPlayer@@IAE_NXZ ; CPythonPlayer::__HasEnoughArrow
  00019	84 c0		 test	 al, al
  0001b	75 07		 jne	 SHORT $LN5@CheckShort

; 316  : 	
; 317  : 	return true;

  0001d	b0 01		 mov	 al, 1
  0001f	5e		 pop	 esi

; 318  : }

  00020	5d		 pop	 ebp
  00021	c2 08 00	 ret	 8
$LN5@CheckShort:

; 315  : 		return false;

  00024	32 c0		 xor	 al, al
  00026	5e		 pop	 esi

; 318  : }

  00027	5d		 pop	 ebp
  00028	c2 08 00	 ret	 8
?__CheckShortArrow@CPythonPlayer@@IAE_NAAUSSkillInstance@1@AAUSSkillData@CPythonSkill@@@Z ENDP ; CPythonPlayer::__CheckShortArrow
_TEXT	ENDS
; Function compile flags: /Ogtp
; File D:\Metin2 Server Files\mainline\SRC_2014\Metin2Client\UserInterface\PythonPlayerSkill.cpp
;	COMDAT ?__CheckShortMana@CPythonPlayer@@IAE_NAAUSSkillInstance@1@AAUSSkillData@CPythonSkill@@@Z
_TEXT	SEGMENT
_rkSkillInst$ = 8					; size = 4
_rkSkillData$ = 12					; size = 4
?__CheckShortMana@CPythonPlayer@@IAE_NAAUSSkillInstance@1@AAUSSkillData@CPythonSkill@@@Z PROC ; CPythonPlayer::__CheckShortMana, COMDAT
; _this$ = ecx

; 321  : {

  00000	55		 push	 ebp
  00001	8b ec		 mov	 ebp, esp

; 322  : 	extern const DWORD c_iSkillIndex_Summon;
; 323  : 	if (c_iSkillIndex_Summon == rkSkillInst.dwIndex)

  00003	8b 55 08	 mov	 edx, DWORD PTR _rkSkillInst$[ebp]
  00006	a1 00 00 00 00	 mov	 eax, DWORD PTR ?c_iSkillIndex_Summon@@3KB ; c_iSkillIndex_Summon
  0000b	53		 push	 ebx
  0000c	56		 push	 esi
  0000d	57		 push	 edi
  0000e	8b f9		 mov	 edi, ecx
  00010	3b 02		 cmp	 eax, DWORD PTR [edx]
  00012	74 72		 je	 SHORT $LN9@CheckShort

; 324  : 		return false;
; 325  : 
; 326  : 	int iNeedSP = rkSkillData.GetNeedSP(rkSkillInst.fcurEfficientPercentage);

  00014	f3 0f 10 42 10	 movss	 xmm0, DWORD PTR [edx+16]
  00019	8b 5d 0c	 mov	 ebx, DWORD PTR _rkSkillData$[ebp]
  0001c	51		 push	 ecx
  0001d	8b cb		 mov	 ecx, ebx
  0001f	f3 0f 11 04 24	 movss	 DWORD PTR [esp], xmm0
  00024	e8 00 00 00 00	 call	 ?GetNeedSP@SSkillData@CPythonSkill@@QAEHM@Z ; CPythonSkill::SSkillData::GetNeedSP

; 327  : 	int icurSP = GetStatus(POINT_SP);

  00029	8b 57 04	 mov	 edx, DWORD PTR [edi+4]
  0002c	8d 4f 04	 lea	 ecx, DWORD PTR [edi+4]
  0002f	6a 07		 push	 7
  00031	8b f0		 mov	 esi, eax
  00033	ff 52 10	 call	 DWORD PTR [edx+16]

; 328  : 
; 329  : 	// NOTE : ToggleSkill    SP  0 .
; 330  : 	if (!rkSkillData.IsToggleSkill())

  00036	8b cb		 mov	 ecx, ebx
  00038	8b f8		 mov	 edi, eax
  0003a	e8 00 00 00 00	 call	 ?IsToggleSkill@SSkillData@CPythonSkill@@QAEHXZ ; CPythonSkill::SSkillData::IsToggleSkill
  0003f	85 c0		 test	 eax, eax
  00041	75 22		 jne	 SHORT $LN4@CheckShort

; 331  : 	{
; 332  : 		if (iNeedSP == 0)

  00043	85 f6		 test	 esi, esi
  00045	75 1e		 jne	 SHORT $LN4@CheckShort

; 333  : 		{
; 334  : 			CPythonChat::Instance().AppendChat(CHAT_TYPE_INFO, "!!! Find strange game data. Please reinstall metin2.");

  00047	8b 0d 00 00 00
	00		 mov	 ecx, DWORD PTR ?ms_singleton@?$CSingleton@VCPythonChat@@@@0PAVCPythonChat@@A ; CSingleton<CPythonChat>::ms_singleton
  0004d	83 c1 04	 add	 ecx, 4
  00050	68 00 00 00 00	 push	 OFFSET ??_C@_0DF@OHCKPFBO@?$CB?$CB?$CB?5Find?5strange?5game?5data?4?5Ple@
  00055	6a 01		 push	 1
  00057	8b 01		 mov	 eax, DWORD PTR [ecx]
  00059	ff 50 04	 call	 DWORD PTR [eax+4]
$LN11@CheckShort:

; 348  : 				return true;
; 349  : 	}
; 350  : 
; 351  : 	return false;
; 352  : }

  0005c	5f		 pop	 edi
  0005d	5e		 pop	 esi
  0005e	b0 01		 mov	 al, 1
  00060	5b		 pop	 ebx
  00061	5d		 pop	 ebp
  00062	c2 08 00	 ret	 8
$LN4@CheckShort:

; 335  : 			return true;
; 336  : 		}
; 337  : 	}
; 338  : 
; 339  : 	if (rkSkillData.CanUseIfNotEnough())

  00065	8b cb		 mov	 ecx, ebx
  00067	e8 00 00 00 00	 call	 ?CanUseIfNotEnough@SSkillData@CPythonSkill@@QAEHXZ ; CPythonSkill::SSkillData::CanUseIfNotEnough
  0006c	85 c0		 test	 eax, eax
  0006e	74 0d		 je	 SHORT $LN5@CheckShort

; 340  : 	{
; 341  : 		if (icurSP <= 0)

  00070	85 ff		 test	 edi, edi
  00072	7f 12		 jg	 SHORT $LN9@CheckShort

; 348  : 				return true;
; 349  : 	}
; 350  : 
; 351  : 	return false;
; 352  : }

  00074	5f		 pop	 edi
  00075	5e		 pop	 esi
  00076	b0 01		 mov	 al, 1
  00078	5b		 pop	 ebx
  00079	5d		 pop	 ebp
  0007a	c2 08 00	 ret	 8
$LN5@CheckShort:

; 342  : 			return true;
; 343  : 	}
; 344  : 	else
; 345  : 	{
; 346  : 		if (-1 != iNeedSP)

  0007d	83 fe ff	 cmp	 esi, -1
  00080	74 04		 je	 SHORT $LN9@CheckShort

; 347  : 			if (iNeedSP > icurSP)

  00082	3b f7		 cmp	 esi, edi
  00084	7f d6		 jg	 SHORT $LN11@CheckShort
$LN9@CheckShort:
  00086	5f		 pop	 edi

; 348  : 				return true;
; 349  : 	}
; 350  : 
; 351  : 	return false;
; 352  : }

  00087	5e		 pop	 esi
  00088	32 c0		 xor	 al, al
  0008a	5b		 pop	 ebx
  0008b	5d		 pop	 ebp
  0008c	c2 08 00	 ret	 8
?__CheckShortMana@CPythonPlayer@@IAE_NAAUSSkillInstance@1@AAUSSkillData@CPythonSkill@@@Z ENDP ; CPythonPlayer::__CheckShortMana
_TEXT	ENDS
; Function compile flags: /Ogtp
; File D:\Metin2 Server Files\mainline\SRC_2014\Metin2Client\UserInterface\PythonPlayerSkill.cpp
;	COMDAT ?__CheckShortLife@CPythonPlayer@@IAE_NAAUSSkillInstance@1@AAUSSkillData@CPythonSkill@@@Z
_TEXT	SEGMENT
_rkSkillInst$ = 8					; size = 4
_rkSkillData$ = 12					; size = 4
?__CheckShortLife@CPythonPlayer@@IAE_NAAUSSkillInstance@1@AAUSSkillData@CPythonSkill@@@Z PROC ; CPythonPlayer::__CheckShortLife, COMDAT
; _this$ = ecx

; 355  : {

  00000	55		 push	 ebp
  00001	8b ec		 mov	 ebp, esp
  00003	56		 push	 esi

; 356  : 	if (!rkSkillData.IsUseHPSkill())

  00004	8b 75 0c	 mov	 esi, DWORD PTR _rkSkillData$[ebp]
  00007	57		 push	 edi
  00008	8b f9		 mov	 edi, ecx
  0000a	8b ce		 mov	 ecx, esi
  0000c	e8 00 00 00 00	 call	 ?IsUseHPSkill@SSkillData@CPythonSkill@@QAEHXZ ; CPythonSkill::SSkillData::IsUseHPSkill
  00011	85 c0		 test	 eax, eax
  00013	74 2e		 je	 SHORT $LN5@CheckShort

; 357  : 		return false;
; 358  : 	
; 359  : 	DWORD dwNeedHP = rkSkillData.GetNeedSP(rkSkillInst.fcurEfficientPercentage);

  00015	8b 45 08	 mov	 eax, DWORD PTR _rkSkillInst$[ebp]
  00018	51		 push	 ecx
  00019	8b ce		 mov	 ecx, esi
  0001b	f3 0f 10 40 10	 movss	 xmm0, DWORD PTR [eax+16]
  00020	f3 0f 11 04 24	 movss	 DWORD PTR [esp], xmm0
  00025	e8 00 00 00 00	 call	 ?GetNeedSP@SSkillData@CPythonSkill@@QAEHM@Z ; CPythonSkill::SSkillData::GetNeedSP

; 360  : 	if (dwNeedHP <= GetStatus(POINT_HP))

  0002a	8b 57 04	 mov	 edx, DWORD PTR [edi+4]
  0002d	8d 4f 04	 lea	 ecx, DWORD PTR [edi+4]
  00030	6a 05		 push	 5
  00032	8b f0		 mov	 esi, eax
  00034	ff 52 10	 call	 DWORD PTR [edx+16]
  00037	3b f0		 cmp	 esi, eax
  00039	76 08		 jbe	 SHORT $LN5@CheckShort

; 362  : 
; 363  : 	return true;

  0003b	5f		 pop	 edi
  0003c	b0 01		 mov	 al, 1

; 364  : }

  0003e	5e		 pop	 esi
  0003f	5d		 pop	 ebp
  00040	c2 08 00	 ret	 8
$LN5@CheckShort:
  00043	5f		 pop	 edi

; 361  : 		return false;

  00044	32 c0		 xor	 al, al

; 364  : }

  00046	5e		 pop	 esi
  00047	5d		 pop	 ebp
  00048	c2 08 00	 ret	 8
?__CheckShortLife@CPythonPlayer@@IAE_NAAUSSkillInstance@1@AAUSSkillData@CPythonSkill@@@Z ENDP ; CPythonPlayer::__CheckShortLife
_TEXT	ENDS
; Function compile flags: /Ogtp
; File D:\Metin2 Server Files\mainline\SRC_2014\Metin2Client\UserInterface\PythonPlayerSkill.cpp
;	COMDAT ?__CheckRestSkillCoolTime@CPythonPlayer@@IAE_NK@Z
_TEXT	SEGMENT
_fElapsedTime$ = 8					; size = 4
_dwSlotIndex$ = 8					; size = 4
?__CheckRestSkillCoolTime@CPythonPlayer@@IAE_NK@Z PROC	; CPythonPlayer::__CheckRestSkillCoolTime, COMDAT
; _this$ = ecx

; 367  : {

  00000	55		 push	 ebp
  00001	8b ec		 mov	 ebp, esp
  00003	57		 push	 edi
  00004	8b f9		 mov	 edi, ecx

; 368  : 	if (!m_sysIsCoolTime)

  00006	83 bf bc f7 00
	00 00		 cmp	 DWORD PTR [edi+63420], 0
  0000d	74 3a		 je	 SHORT $LN6@CheckRestS

; 369  : 		return false;
; 370  : 
; 371  : 	if (dwSlotIndex >= SKILL_MAX_NUM)

  0000f	8b 45 08	 mov	 eax, DWORD PTR _dwSlotIndex$[ebp]
  00012	3d ff 00 00 00	 cmp	 eax, 255		; 000000ffH
  00017	73 30		 jae	 SHORT $LN6@CheckRestS

; 372  : 		return false;
; 373  : 
; 374  : 	float fElapsedTime = CTimer::Instance().GetCurrentSecond() - m_playerStatus.aSkill[dwSlotIndex].fLastUsedTime;

  00019	8b 0d 00 00 00
	00		 mov	 ecx, DWORD PTR ?ms_singleton@?$CSingleton@VCTimer@@@@0PAVCTimer@@A ; CSingleton<CTimer>::ms_singleton
  0001f	56		 push	 esi
  00020	8d 34 80	 lea	 esi, DWORD PTR [eax+eax*4]
  00023	e8 00 00 00 00	 call	 ?GetCurrentSecond@CTimer@@QAEMXZ ; CTimer::GetCurrentSecond
  00028	d8 a4 f7 88 cb
	00 00		 fsub	 DWORD PTR [edi+esi*8+52104]
  0002f	d9 5d 08	 fstp	 DWORD PTR _fElapsedTime$[ebp]

; 375  : 	if (fElapsedTime >= m_playerStatus.aSkill[dwSlotIndex].fCoolTime)

  00032	f3 0f 10 45 08	 movss	 xmm0, DWORD PTR _fElapsedTime$[ebp]
  00037	0f 2f 84 f7 84
	cb 00 00	 comiss	 xmm0, DWORD PTR [edi+esi*8+52100]
  0003f	5e		 pop	 esi
  00040	73 07		 jae	 SHORT $LN6@CheckRestS

; 377  : 
; 378  : 	return true;

  00042	b0 01		 mov	 al, 1
  00044	5f		 pop	 edi

; 379  : }

  00045	5d		 pop	 ebp
  00046	c2 04 00	 ret	 4
$LN6@CheckRestS:

; 376  : 		return false;	

  00049	32 c0		 xor	 al, al
  0004b	5f		 pop	 edi

; 379  : }

  0004c	5d		 pop	 ebp
  0004d	c2 04 00	 ret	 4
?__CheckRestSkillCoolTime@CPythonPlayer@@IAE_NK@Z ENDP	; CPythonPlayer::__CheckRestSkillCoolTime
_TEXT	ENDS
; Function compile flags: /Ogtp
; File D:\Metin2 Server Files\mainline\SRC_2014\Metin2Client\UserInterface\PythonPlayerSkill.cpp
;	COMDAT ?__CheckSpecialSkill@CPythonPlayer@@IAE_NK@Z
_TEXT	SEGMENT
_dwSlotIndex$1 = 8					; size = 4
_dwSkillIndex$ = 8					; size = 4
?__CheckSpecialSkill@CPythonPlayer@@IAE_NK@Z PROC	; CPythonPlayer::__CheckSpecialSkill, COMDAT
; _this$ = ecx

; 951  : {

  00000	55		 push	 ebp
  00001	8b ec		 mov	 ebp, esp
  00003	53		 push	 ebx
  00004	56		 push	 esi
  00005	57		 push	 edi
  00006	8b f9		 mov	 edi, ecx

; 952  : 	CInstanceBase* pkInstMain = NEW_GetMainActorPtr();

  00008	8b 47 04	 mov	 eax, DWORD PTR [edi+4]
  0000b	8d 4f 04	 lea	 ecx, DWORD PTR [edi+4]
  0000e	ff 90 88 00 00
	00		 call	 DWORD PTR [eax+136]

; 953  : 	if (!pkInstMain)

  00014	85 c0		 test	 eax, eax
  00016	0f 84 9e 00 00
	00		 je	 $LN7@CheckSpeci

; 954  : 		return false;
; 955  : 
; 956  : 	// Fishing
; 957  : 	if (c_iSkillIndex_Fishing == dwSkillIndex)

  0001c	8b 75 08	 mov	 esi, DWORD PTR _dwSkillIndex$[ebp]
  0001f	39 35 00 00 00
	00		 cmp	 DWORD PTR ?c_iSkillIndex_Fishing@@3KB, esi ; c_iSkillIndex_Fishing
  00025	75 22		 jne	 SHORT $LN3@CheckSpeci

; 958  : 	{
; 959  : 		if (pkInstMain->IsFishingMode())

  00027	8b c8		 mov	 ecx, eax
  00029	e8 00 00 00 00	 call	 ?IsFishingMode@CInstanceBase@@QAEHXZ ; CInstanceBase::IsFishingMode
  0002e	85 c0		 test	 eax, eax
  00030	74 10		 je	 SHORT $LN5@CheckSpeci

; 960  : 		{
; 961  : 			NEW_Fishing();

  00032	8b cf		 mov	 ecx, edi
  00034	e8 00 00 00 00	 call	 ?NEW_Fishing@CPythonPlayer@@QAEXXZ ; CPythonPlayer::NEW_Fishing
  00039	5f		 pop	 edi

; 988  : 	}
; 989  : 
; 990  : 	return false;
; 991  : }

  0003a	5e		 pop	 esi
  0003b	b0 01		 mov	 al, 1
  0003d	5b		 pop	 ebx
  0003e	5d		 pop	 ebp
  0003f	c2 04 00	 ret	 4
$LN5@CheckSpeci:

; 962  : 		}
; 963  : 		else
; 964  : 		{
; 965  : 			PyCallClassMemberFunc(m_ppyGameWindow, "OnCannotUseSkill", Py_BuildValue("(is)", GetMainCharacterIndex(), "EQUIP_FISHING_ROD"));

  00042	68 00 00 00 00	 push	 OFFSET ??_C@_0BC@ENEHNNJB@EQUIP_FISHING_ROD@
  00047	eb 42		 jmp	 SHORT $LN12@CheckSpeci
$LN3@CheckSpeci:

; 966  : 		}
; 967  : 		return true;
; 968  : 	}
; 969  : 
; 970  : 	// Combo
; 971  : 	else if (c_iSkillIndex_Combo == dwSkillIndex)

  00049	39 35 00 00 00
	00		 cmp	 DWORD PTR ?c_iSkillIndex_Combo@@3KB, esi ; c_iSkillIndex_Combo
  0004f	75 69		 jne	 SHORT $LN7@CheckSpeci

; 972  : 	{
; 973  : 		DWORD dwSlotIndex;
; 974  : 		if (!GetSkillSlotIndex(dwSkillIndex, &dwSlotIndex))

  00051	8d 45 08	 lea	 eax, DWORD PTR _dwSlotIndex$1[ebp]
  00054	8b cf		 mov	 ecx, edi
  00056	50		 push	 eax
  00057	56		 push	 esi
  00058	e8 00 00 00 00	 call	 ?GetSkillSlotIndex@CPythonPlayer@@QAE_NKPAK@Z ; CPythonPlayer::GetSkillSlotIndex
  0005d	84 c0		 test	 al, al
  0005f	74 59		 je	 SHORT $LN7@CheckSpeci

; 975  : 			return false;
; 976  : 
; 977  : 		int iLevel = GetSkillLevel(dwSlotIndex);

  00061	ff 75 08	 push	 DWORD PTR _dwSlotIndex$1[ebp]
  00064	8b cf		 mov	 ecx, edi
  00066	e8 00 00 00 00	 call	 ?GetSkillLevel@CPythonPlayer@@QAEHK@Z ; CPythonPlayer::GetSkillLevel

; 978  : 		if (iLevel > 0)

  0006b	85 c0		 test	 eax, eax
  0006d	7e 17		 jle	 SHORT $LN9@CheckSpeci

; 979  : 		{
; 980  : 			CPythonNetworkStream::Instance().SendUseSkillPacket(dwSkillIndex);

  0006f	8b 0d 00 00 00
	00		 mov	 ecx, DWORD PTR ?ms_singleton@?$CSingleton@VCPythonNetworkStream@@@@0PAVCPythonNetworkStream@@A ; CSingleton<CPythonNetworkStream>::ms_singleton
  00075	6a 00		 push	 0
  00077	56		 push	 esi
  00078	e8 00 00 00 00	 call	 ?SendUseSkillPacket@CPythonNetworkStream@@QAE_NKK@Z ; CPythonNetworkStream::SendUseSkillPacket
  0007d	5f		 pop	 edi

; 988  : 	}
; 989  : 
; 990  : 	return false;
; 991  : }

  0007e	5e		 pop	 esi
  0007f	b0 01		 mov	 al, 1
  00081	5b		 pop	 ebx
  00082	5d		 pop	 ebp
  00083	c2 04 00	 ret	 4
$LN9@CheckSpeci:

; 981  : 		}
; 982  : 		else
; 983  : 		{
; 984  : 			PyCallClassMemberFunc(m_ppyGameWindow, "OnCannotUseSkill", Py_BuildValue("(is)", GetMainCharacterIndex(), "NOT_YET_LEARN"));

  00086	68 00 00 00 00	 push	 OFFSET ??_C@_0O@PFLGBNMN@NOT_YET_LEARN@
$LN12@CheckSpeci:

; 985  : 		}
; 986  : 
; 987  : 		return true;

  0008b	8b 47 04	 mov	 eax, DWORD PTR [edi+4]
  0008e	8d 4f 04	 lea	 ecx, DWORD PTR [edi+4]
  00091	ff 50 04	 call	 DWORD PTR [eax+4]
  00094	50		 push	 eax
  00095	68 00 00 00 00	 push	 OFFSET ??_C@_04JMLDJNEM@?$CIis?$CJ@
  0009a	ff 15 00 00 00
	00		 call	 DWORD PTR __imp__Py_BuildValue
  000a0	50		 push	 eax
  000a1	68 00 00 00 00	 push	 OFFSET ??_C@_0BB@BOHMBBJL@OnCannotUseSkill@
  000a6	ff 77 08	 push	 DWORD PTR [edi+8]
  000a9	e8 00 00 00 00	 call	 ?PyCallClassMemberFunc@@YA_NPAU_object@@PBD0@Z ; PyCallClassMemberFunc
  000ae	83 c4 18	 add	 esp, 24			; 00000018H
  000b1	b0 01		 mov	 al, 1
  000b3	5f		 pop	 edi

; 988  : 	}
; 989  : 
; 990  : 	return false;
; 991  : }

  000b4	5e		 pop	 esi
  000b5	5b		 pop	 ebx
  000b6	5d		 pop	 ebp
  000b7	c2 04 00	 ret	 4
$LN7@CheckSpeci:
  000ba	5f		 pop	 edi
  000bb	5e		 pop	 esi
  000bc	32 c0		 xor	 al, al
  000be	5b		 pop	 ebx
  000bf	5d		 pop	 ebp
  000c0	c2 04 00	 ret	 4
?__CheckSpecialSkill@CPythonPlayer@@IAE_NK@Z ENDP	; CPythonPlayer::__CheckSpecialSkill
_TEXT	ENDS
; Function compile flags: /Ogtp
; File D:\Metin2 Server Files\mainline\SRC_2014\Metin2Client\UserInterface\PythonPlayerSkill.cpp
; File C:\Program Files (x86)\Microsoft Visual Studio\2019\Community\VC\Tools\MSVC\14.28.29333\include\vector
; File D:\Metin2 Server Files\mainline\SRC_2014\Metin2Client\UserInterface\PythonPlayerSkill.cpp
; File C:\Program Files (x86)\Microsoft Visual Studio\2019\Community\VC\Tools\MSVC\14.28.29333\include\vector
; File D:\Metin2 Server Files\mainline\SRC_2014\Metin2Client\UserInterface\PythonPlayerSkill.cpp
; File C:\Program Files (x86)\Microsoft Visual Studio\2019\Community\VC\Tools\MSVC\14.28.29333\include\vector
; File D:\Metin2 Server Files\mainline\SRC_2014\Metin2Client\UserInterface\PythonPlayerSkill.cpp
; File C:\Program Files (x86)\Microsoft Visual Studio\2019\Community\VC\Tools\MSVC\14.28.29333\include\vector
; File D:\Metin2 Server Files\mainline\SRC_2014\Metin2Client\UserInterface\PythonPlayerSkill.cpp
; File C:\Program Files (x86)\Microsoft Visual Studio\2019\Community\VC\Tools\MSVC\14.28.29333\include\vector
; File C:\Program Files (x86)\Microsoft Visual Studio\2019\Community\VC\Tools\MSVC\14.28.29333\include\xmemory
; File C:\Program Files (x86)\Microsoft Visual Studio\2019\Community\VC\Tools\MSVC\14.28.29333\include\vector
; File D:\Metin2 Server Files\mainline\SRC_2014\Metin2Client\UserInterface\PythonPlayerSkill.cpp
;	COMDAT ?__UseSkill@CPythonPlayer@@IAE_NK@Z
_TEXT	SEGMENT
_this$GSCopy$1$ = -88					; size = 4
_kVct_pkInstTarget$2 = -84				; size = 12
tv979 = -72						; size = 4
_dwTargetMaxCount$1$ = -68				; size = 4
_fDistance$3 = -68					; size = 4
_dwSlotIndex$GSCopy$1$ = -64				; size = 4
_pkInstMain$1$ = -60					; size = 4
_dwTargetCount$1$ = -56					; size = 4
tv1067 = -52						; size = 4
_pkInstEach$1$ = -52					; size = 4
_pkInstEach$1$ = -52					; size = 4
_dwRange$1$ = -52					; size = 4
_dwSkillRange$1$ = -52					; size = 4
_dwPickedActorID$4 = -52				; size = 4
_pkInstTarget$ = -48					; size = 4
_pSkillData$ = -44					; size = 4
$T5 = -40						; size = 12
$T6 = -40						; size = 12
_kPPosPickedGround$7 = -40				; size = 12
_kPPosDst$8 = -28					; size = 12
__$ArrayPad$ = -16					; size = 4
__$EHRec$ = -12						; size = 12
_dwSlotIndex$ = 8					; size = 4
?__UseSkill@CPythonPlayer@@IAE_NK@Z PROC		; CPythonPlayer::__UseSkill, COMDAT
; _this$ = ecx

; 461  : {

  00000	55		 push	 ebp
  00001	8b ec		 mov	 ebp, esp
  00003	6a ff		 push	 -1
  00005	68 00 00 00 00	 push	 __ehhandler$?__UseSkill@CPythonPlayer@@IAE_NK@Z
  0000a	64 a1 00 00 00
	00		 mov	 eax, DWORD PTR fs:0
  00010	50		 push	 eax
  00011	83 ec 4c	 sub	 esp, 76			; 0000004cH
  00014	a1 00 00 00 00	 mov	 eax, DWORD PTR ___security_cookie
  00019	33 c5		 xor	 eax, ebp
  0001b	89 45 f0	 mov	 DWORD PTR __$ArrayPad$[ebp], eax
  0001e	56		 push	 esi
  0001f	57		 push	 edi
  00020	50		 push	 eax
  00021	8d 45 f4	 lea	 eax, DWORD PTR __$EHRec$[ebp]
  00024	64 a3 00 00 00
	00		 mov	 DWORD PTR fs:0, eax
  0002a	8b f9		 mov	 edi, ecx
  0002c	89 7d a8	 mov	 DWORD PTR _this$GSCopy$1$[ebp], edi
  0002f	8b 75 08	 mov	 esi, DWORD PTR _dwSlotIndex$[ebp]
  00032	89 75 c0	 mov	 DWORD PTR _dwSlotIndex$GSCopy$1$[ebp], esi

; 462  : 	// PrivateShop
; 463  : 	if (IsOpenPrivateShop())

  00035	e8 00 00 00 00	 call	 ?IsOpenPrivateShop@CPythonPlayer@@QAE_NXZ ; CPythonPlayer::IsOpenPrivateShop
  0003a	84 c0		 test	 al, al
  0003c	0f 85 14 07 00
	00		 jne	 $LN159@UseSkill

; 464  : 	{
; 465  : 		return true;
; 466  : 	}
; 467  : 
; 468  : 	if (!__CanUseSkill())

  00042	8b cf		 mov	 ecx, edi
  00044	e8 00 00 00 00	 call	 ?__CanUseSkill@CPythonPlayer@@IAE_NXZ ; CPythonPlayer::__CanUseSkill
  00049	84 c0		 test	 al, al
  0004b	74 16		 je	 SHORT $LN158@UseSkill

; 469  : 	{
; 470  : 		return false;
; 471  : 	}
; 472  : 
; 473  : 	if (dwSlotIndex >= SKILL_MAX_NUM)

  0004d	81 fe ff 00 00
	00		 cmp	 esi, 255		; 000000ffH
  00053	72 15		 jb	 SHORT $LN12@UseSkill

; 474  : 	{
; 475  : 		Tracenf("CPythonPlayer::__UseSkill(dwSlotIndex=%d) It's not available skill slot number", dwSlotIndex);

  00055	56		 push	 esi
  00056	68 00 00 00 00	 push	 OFFSET ??_C@_0EP@OENNGPFB@CPythonPlayer?3?3__UseSkill?$CIdwSlo@
  0005b	e8 00 00 00 00	 call	 ?Tracenf@@YAXPBDZZ	; Tracenf
  00060	83 c4 08	 add	 esp, 8
$LN158@UseSkill:

; 769  : 	return true;
; 770  : }

  00063	32 c0		 xor	 al, al
  00065	e9 ee 06 00 00	 jmp	 $LN1@UseSkill
$LN12@UseSkill:

; 476  : 		return false;
; 477  : 	}
; 478  : 
; 479  : 	TSkillInstance & rkSkillInst = m_playerStatus.aSkill[dwSlotIndex];

  0006a	8d 04 b6	 lea	 eax, DWORD PTR [esi+esi*4]

; 480  : 
; 481  : 	if (__CheckSpecialSkill(rkSkillInst.dwIndex))

  0006d	8b cf		 mov	 ecx, edi
  0006f	ff b4 c7 68 cb
	00 00		 push	 DWORD PTR [edi+eax*8+52072]
  00076	89 45 b8	 mov	 DWORD PTR tv979[ebp], eax
  00079	e8 00 00 00 00	 call	 ?__CheckSpecialSkill@CPythonPlayer@@IAE_NK@Z ; CPythonPlayer::__CheckSpecialSkill
  0007e	84 c0		 test	 al, al
  00080	0f 85 d0 06 00
	00		 jne	 $LN159@UseSkill

; 482  : 	{
; 483  : 		return true;
; 484  : 	}
; 485  : 
; 486  : 	CPythonSkill::TSkillData * pSkillData;
; 487  : 	if (!CPythonSkill::Instance().GetSkillData(rkSkillInst.dwIndex, &pSkillData))

  00086	8b 0d 00 00 00
	00		 mov	 ecx, DWORD PTR ?ms_singleton@?$CSingleton@VCPythonSkill@@@@0PAVCPythonSkill@@A ; CSingleton<CPythonSkill>::ms_singleton
  0008c	8d 45 d4	 lea	 eax, DWORD PTR _pSkillData$[ebp]
  0008f	50		 push	 eax
  00090	8b 45 b8	 mov	 eax, DWORD PTR tv979[ebp]
  00093	ff b4 c7 68 cb
	00 00		 push	 DWORD PTR [edi+eax*8+52072]
  0009a	e8 00 00 00 00	 call	 ?GetSkillData@CPythonSkill@@QAEHKPAPAUSSkillData@1@@Z ; CPythonSkill::GetSkillData
  0009f	85 c0		 test	 eax, eax
  000a1	75 15		 jne	 SHORT $LN14@UseSkill

; 488  : 	{
; 489  : 		Tracenf("CPythonPlayer::__UseSkill(dwSlotIndex=%d) There is no skill data", dwSlotIndex);

  000a3	56		 push	 esi
  000a4	68 00 00 00 00	 push	 OFFSET ??_C@_0EB@JKMJGFLB@CPythonPlayer?3?3__UseSkill?$CIdwSlo@
  000a9	e8 00 00 00 00	 call	 ?Tracenf@@YAXPBDZZ	; Tracenf
  000ae	83 c4 08	 add	 esp, 8

; 490  : 		return false;

  000b1	32 c0		 xor	 al, al
  000b3	e9 a0 06 00 00	 jmp	 $LN1@UseSkill
$LN14@UseSkill:

; 491  : 	}
; 492  : 
; 493  : 	if (pSkillData->IsToggleSkill())

  000b8	8b 4d d4	 mov	 ecx, DWORD PTR _pSkillData$[ebp]
  000bb	e8 00 00 00 00	 call	 ?IsToggleSkill@SSkillData@CPythonSkill@@QAEHXZ ; CPythonSkill::SSkillData::IsToggleSkill
  000c0	85 c0		 test	 eax, eax
  000c2	74 29		 je	 SHORT $LN16@UseSkill

; 494  : 	{
; 495  : 		if (IsSkillActive(dwSlotIndex))

  000c4	56		 push	 esi
  000c5	8b cf		 mov	 ecx, edi
  000c7	e8 00 00 00 00	 call	 ?IsSkillActive@CPythonPlayer@@QAEHK@Z ; CPythonPlayer::IsSkillActive
  000cc	85 c0		 test	 eax, eax
  000ce	74 1d		 je	 SHORT $LN16@UseSkill

; 496  : 		{
; 497  : 			CPythonNetworkStream::Instance().SendUseSkillPacket(rkSkillInst.dwIndex, dwSlotIndex);

  000d0	8b 45 b8	 mov	 eax, DWORD PTR tv979[ebp]
  000d3	8b 0d 00 00 00
	00		 mov	 ecx, DWORD PTR ?ms_singleton@?$CSingleton@VCPythonNetworkStream@@@@0PAVCPythonNetworkStream@@A ; CSingleton<CPythonNetworkStream>::ms_singleton
  000d9	56		 push	 esi
  000da	ff b4 c7 68 cb
	00 00		 push	 DWORD PTR [edi+eax*8+52072]
  000e1	e8 00 00 00 00	 call	 ?SendUseSkillPacket@CPythonNetworkStream@@QAE_NKK@Z ; CPythonNetworkStream::SendUseSkillPacket

; 498  : 			return false;

  000e6	32 c0		 xor	 al, al
  000e8	e9 6b 06 00 00	 jmp	 $LN1@UseSkill
$LN16@UseSkill:

; 499  : 		}
; 500  : 	}
; 501  : 
; 502  : 	if (!__CheckSkillUsable(dwSlotIndex))

  000ed	56		 push	 esi
  000ee	8b cf		 mov	 ecx, edi
  000f0	e8 00 00 00 00	 call	 ?__CheckSkillUsable@CPythonPlayer@@IAE_NK@Z ; CPythonPlayer::__CheckSkillUsable
  000f5	84 c0		 test	 al, al
  000f7	0f 84 66 ff ff
	ff		 je	 $LN158@UseSkill

; 503  : 	{
; 504  : 		return false;
; 505  : 	}
; 506  : 
; 507  : 	CInstanceBase * pkInstMain = NEW_GetMainActorPtr();

  000fd	8b 47 04	 mov	 eax, DWORD PTR [edi+4]
  00100	8d 4f 04	 lea	 ecx, DWORD PTR [edi+4]
  00103	8b 80 88 00 00
	00		 mov	 eax, DWORD PTR [eax+136]
  00109	ff d0		 call	 eax
  0010b	8b f0		 mov	 esi, eax
  0010d	89 75 c4	 mov	 DWORD PTR _pkInstMain$1$[ebp], esi

; 508  : 	if (!pkInstMain)

  00110	85 f6		 test	 esi, esi
  00112	75 17		 jne	 SHORT $LN18@UseSkill

; 509  : 	{
; 510  : 		Tracenf("CPythonPlayer::__UseSkill(dwSlotIndex=%d) There is no main player", dwSlotIndex);

  00114	ff 75 c0	 push	 DWORD PTR _dwSlotIndex$GSCopy$1$[ebp]
  00117	68 00 00 00 00	 push	 OFFSET ??_C@_0EC@MMFCNDJC@CPythonPlayer?3?3__UseSkill?$CIdwSlo@
  0011c	e8 00 00 00 00	 call	 ?Tracenf@@YAXPBDZZ	; Tracenf
  00121	83 c4 08	 add	 esp, 8

; 511  : 		return false;

  00124	32 c0		 xor	 al, al
  00126	e9 2d 06 00 00	 jmp	 $LN1@UseSkill
$LN18@UseSkill:

; 512  : 	}
; 513  : 
; 514  : 	if (pkInstMain->IsUsingSkill())

  0012b	8b ce		 mov	 ecx, esi
  0012d	e8 00 00 00 00	 call	 ?IsUsingSkill@CInstanceBase@@QAEHXZ ; CInstanceBase::IsUsingSkill
  00132	85 c0		 test	 eax, eax
  00134	0f 85 29 ff ff
	ff		 jne	 $LN158@UseSkill

; 515  : 	{
; 516  : 		return false;
; 517  : 	}
; 518  : 
; 519  : 	CInstanceBase * pkInstTarget = NULL;
; 520  : 
; 521  : 	// NOTE :   
; 522  : 	if (pSkillData->IsNeedTarget() ||
; 523  : 		pSkillData->CanChangeDirection() ||

  0013a	8b 4d d4	 mov	 ecx, DWORD PTR _pSkillData$[ebp]
  0013d	89 45 d0	 mov	 DWORD PTR _pkInstTarget$[ebp], eax
  00140	e8 00 00 00 00	 call	 ?IsNeedTarget@SSkillData@CPythonSkill@@QAEHXZ ; CPythonSkill::SSkillData::IsNeedTarget
  00145	85 c0		 test	 eax, eax
  00147	75 1c		 jne	 SHORT $LN21@UseSkill
  00149	8b 4d d4	 mov	 ecx, DWORD PTR _pSkillData$[ebp]
  0014c	e8 00 00 00 00	 call	 ?CanChangeDirection@SSkillData@CPythonSkill@@QAEHXZ ; CPythonSkill::SSkillData::CanChangeDirection
  00151	85 c0		 test	 eax, eax
  00153	75 10		 jne	 SHORT $LN21@UseSkill
  00155	8b 4d d4	 mov	 ecx, DWORD PTR _pSkillData$[ebp]
  00158	e8 00 00 00 00	 call	 ?IsAutoSearchTarget@SSkillData@CPythonSkill@@QAEHXZ ; CPythonSkill::SSkillData::IsAutoSearchTarget
  0015d	85 c0		 test	 eax, eax
  0015f	0f 84 6f 02 00
	00		 je	 $LN54@UseSkill
$LN21@UseSkill:

; 524  : 		pSkillData->IsAutoSearchTarget())
; 525  : 	{
; 526  : 		if (pSkillData->IsNeedCorpse())

  00165	8b 4d d4	 mov	 ecx, DWORD PTR _pSkillData$[ebp]
  00168	e8 00 00 00 00	 call	 ?IsNeedCorpse@SSkillData@CPythonSkill@@QAEHXZ ; CPythonSkill::SSkillData::IsNeedCorpse
  0016d	8b cf		 mov	 ecx, edi
  0016f	85 c0		 test	 eax, eax
  00171	74 07		 je	 SHORT $LN22@UseSkill

; 527  : 			pkInstTarget=__GetDeadTargetInstancePtr();

  00173	e8 00 00 00 00	 call	 ?__GetDeadTargetInstancePtr@CPythonPlayer@@IAEPAVCInstanceBase@@XZ ; CPythonPlayer::__GetDeadTargetInstancePtr
  00178	eb 05		 jmp	 SHORT $LN23@UseSkill
$LN22@UseSkill:

; 528  : 		else
; 529  : 			pkInstTarget=__GetAliveTargetInstancePtr();

  0017a	e8 00 00 00 00	 call	 ?__GetAliveTargetInstancePtr@CPythonPlayer@@IAEPAVCInstanceBase@@XZ ; CPythonPlayer::__GetAliveTargetInstancePtr
$LN23@UseSkill:

; 530  : 
; 531  : 		//   ..
; 532  : 		if (!pkInstTarget)

  0017f	89 45 d0	 mov	 DWORD PTR _pkInstTarget$[ebp], eax
  00182	85 c0		 test	 eax, eax
  00184	0f 85 db 00 00
	00		 jne	 $LN156@UseSkill

; 533  : 		{
; 534  : 			// ..
; 535  : 			__ChangeTargetToPickedInstance();

  0018a	8b cf		 mov	 ecx, edi
  0018c	e8 00 00 00 00	 call	 ?__ChangeTargetToPickedInstance@CPythonPlayer@@IAE_NXZ ; CPythonPlayer::__ChangeTargetToPickedInstance

; 536  : 
; 537  : 			//  .
; 538  : 			if (pSkillData->IsNeedCorpse())

  00191	8b 4d d4	 mov	 ecx, DWORD PTR _pSkillData$[ebp]
  00194	e8 00 00 00 00	 call	 ?IsNeedCorpse@SSkillData@CPythonSkill@@QAEHXZ ; CPythonSkill::SSkillData::IsNeedCorpse
  00199	8b cf		 mov	 ecx, edi
  0019b	85 c0		 test	 eax, eax
  0019d	74 07		 je	 SHORT $LN25@UseSkill

; 539  : 				pkInstTarget=__GetDeadTargetInstancePtr();

  0019f	e8 00 00 00 00	 call	 ?__GetDeadTargetInstancePtr@CPythonPlayer@@IAEPAVCInstanceBase@@XZ ; CPythonPlayer::__GetDeadTargetInstancePtr
  001a4	eb 05		 jmp	 SHORT $LN26@UseSkill
$LN25@UseSkill:

; 540  : 			else
; 541  : 				pkInstTarget=__GetAliveTargetInstancePtr();

  001a6	e8 00 00 00 00	 call	 ?__GetAliveTargetInstancePtr@CPythonPlayer@@IAEPAVCInstanceBase@@XZ ; CPythonPlayer::__GetAliveTargetInstancePtr
$LN26@UseSkill:

; 542  : 		}
; 543  : 
; 544  : 		if (pkInstTarget)

  001ab	89 45 d0	 mov	 DWORD PTR _pkInstTarget$[ebp], eax
  001ae	85 c0		 test	 eax, eax
  001b0	0f 85 af 00 00
	00		 jne	 $LN156@UseSkill

; 615  : 				}
; 616  : 			}
; 617  : 		}
; 618  : 		else
; 619  : 		{
; 620  : 			if (pSkillData->IsAutoSearchTarget())

  001b6	8b 4d d4	 mov	 ecx, DWORD PTR _pSkillData$[ebp]
  001b9	e8 00 00 00 00	 call	 ?IsAutoSearchTarget@SSkillData@CPythonSkill@@QAEHXZ ; CPythonSkill::SSkillData::IsAutoSearchTarget
  001be	85 c0		 test	 eax, eax
  001c0	74 4d		 je	 SHORT $LN49@UseSkill

; 621  : 			{
; 622  : 				if (pkInstMain->NEW_GetFrontInstance(&pkInstTarget, 2000.0f))

  001c2	51		 push	 ecx
  001c3	8d 45 d0	 lea	 eax, DWORD PTR _pkInstTarget$[ebp]
  001c6	c7 04 24 00 00
	fa 44		 mov	 DWORD PTR [esp], 1157234688 ; 44fa0000H
  001cd	50		 push	 eax
  001ce	8b ce		 mov	 ecx, esi
  001d0	e8 00 00 00 00	 call	 ?NEW_GetFrontInstance@CInstanceBase@@QAE_NPAPAV1@M@Z ; CInstanceBase::NEW_GetFrontInstance
  001d5	8b 57 04	 mov	 edx, DWORD PTR [edi+4]
  001d8	8d 4f 04	 lea	 ecx, DWORD PTR [edi+4]
  001db	89 55 cc	 mov	 DWORD PTR tv1067[ebp], edx
  001de	84 c0		 test	 al, al
  001e0	74 56		 je	 SHORT $LN48@UseSkill

; 623  : 				{
; 624  : 					SetTarget(pkInstTarget->GetVirtualID());

  001e2	8b 4d d0	 mov	 ecx, DWORD PTR _pkInstTarget$[ebp]
  001e5	6a 01		 push	 1
  001e7	e8 00 00 00 00	 call	 ?GetVirtualID@CInstanceBase@@QAEKXZ ; CInstanceBase::GetVirtualID
  001ec	50		 push	 eax
  001ed	8b 45 cc	 mov	 eax, DWORD PTR tv1067[ebp]
  001f0	8d 4f 04	 lea	 ecx, DWORD PTR [edi+4]
  001f3	ff 50 60	 call	 DWORD PTR [eax+96]

; 625  : 					if (!__ProcessEnemySkillTargetRange(*pkInstMain, *pkInstTarget, *pSkillData, dwSlotIndex))

