; Listing generated by Microsoft (R) Optimizing Compiler Version 19.28.29335.0 

	TITLE	D:\Metin2 Server Files\mainline\SRC_2014\Metin2Client\UserInterface\PythonSystem.cpp
	.686P
	.XMM
	include listing.inc
	.model	flat

INCLUDELIB LIBCMT
INCLUDELIB OLDNAMES

PUBLIC	??_R4?$CDynamicPoolEx@VCHeaderDecorator@NEffectUpdateDecorator@@@@6B@ ; CDynamicPoolEx<NEffectUpdateDecorator::CHeaderDecorator>::`RTTI Complete Object Locator'
PUBLIC	??_R0?AV?$CDynamicPoolEx@VCHeaderDecorator@NEffectUpdateDecorator@@@@@8 ; CDynamicPoolEx<NEffectUpdateDecorator::CHeaderDecorator> `RTTI Type Descriptor'
PUBLIC	??_R3?$CDynamicPoolEx@VCHeaderDecorator@NEffectUpdateDecorator@@@@8 ; CDynamicPoolEx<NEffectUpdateDecorator::CHeaderDecorator>::`RTTI Class Hierarchy Descriptor'
PUBLIC	??_R2?$CDynamicPoolEx@VCHeaderDecorator@NEffectUpdateDecorator@@@@8 ; CDynamicPoolEx<NEffectUpdateDecorator::CHeaderDecorator>::`RTTI Base Class Array'
PUBLIC	??_R1A@?0A@EA@?$CDynamicPoolEx@VCHeaderDecorator@NEffectUpdateDecorator@@@@8 ; CDynamicPoolEx<NEffectUpdateDecorator::CHeaderDecorator>::`RTTI Base Class Descriptor at (0,-1,0,64)'
PUBLIC	??_R4?$CDynamicPoolEx@VCNullDecorator@NEffectUpdateDecorator@@@@6B@ ; CDynamicPoolEx<NEffectUpdateDecorator::CNullDecorator>::`RTTI Complete Object Locator'
PUBLIC	??_R0?AV?$CDynamicPoolEx@VCNullDecorator@NEffectUpdateDecorator@@@@@8 ; CDynamicPoolEx<NEffectUpdateDecorator::CNullDecorator> `RTTI Type Descriptor'
PUBLIC	??_R3?$CDynamicPoolEx@VCNullDecorator@NEffectUpdateDecorator@@@@8 ; CDynamicPoolEx<NEffectUpdateDecorator::CNullDecorator>::`RTTI Class Hierarchy Descriptor'
PUBLIC	??_R2?$CDynamicPoolEx@VCNullDecorator@NEffectUpdateDecorator@@@@8 ; CDynamicPoolEx<NEffectUpdateDecorator::CNullDecorator>::`RTTI Base Class Array'
PUBLIC	??_R1A@?0A@EA@?$CDynamicPoolEx@VCNullDecorator@NEffectUpdateDecorator@@@@8 ; CDynamicPoolEx<NEffectUpdateDecorator::CNullDecorator>::`RTTI Base Class Descriptor at (0,-1,0,64)'
PUBLIC	??_R4?$CDynamicPoolEx@VCTextureAnimationCWDecorator@NEffectUpdateDecorator@@@@6B@ ; CDynamicPoolEx<NEffectUpdateDecorator::CTextureAnimationCWDecorator>::`RTTI Complete Object Locator'
PUBLIC	??_R0?AV?$CDynamicPoolEx@VCTextureAnimationCWDecorator@NEffectUpdateDecorator@@@@@8 ; CDynamicPoolEx<NEffectUpdateDecorator::CTextureAnimationCWDecorator> `RTTI Type Descriptor'
PUBLIC	??_R3?$CDynamicPoolEx@VCTextureAnimationCWDecorator@NEffectUpdateDecorator@@@@8 ; CDynamicPoolEx<NEffectUpdateDecorator::CTextureAnimationCWDecorator>::`RTTI Class Hierarchy Descriptor'
PUBLIC	??_R2?$CDynamicPoolEx@VCTextureAnimationCWDecorator@NEffectUpdateDecorator@@@@8 ; CDynamicPoolEx<NEffectUpdateDecorator::CTextureAnimationCWDecorator>::`RTTI Base Class Array'
PUBLIC	??_R1A@?0A@EA@?$CDynamicPoolEx@VCTextureAnimationCWDecorator@NEffectUpdateDecorator@@@@8 ; CDynamicPoolEx<NEffectUpdateDecorator::CTextureAnimationCWDecorator>::`RTTI Base Class Descriptor at (0,-1,0,64)'
PUBLIC	??_R4?$CDynamicPoolEx@VCTextureAnimationCCWDecorator@NEffectUpdateDecorator@@@@6B@ ; CDynamicPoolEx<NEffectUpdateDecorator::CTextureAnimationCCWDecorator>::`RTTI Complete Object Locator'
PUBLIC	??_R0?AV?$CDynamicPoolEx@VCTextureAnimationCCWDecorator@NEffectUpdateDecorator@@@@@8 ; CDynamicPoolEx<NEffectUpdateDecorator::CTextureAnimationCCWDecorator> `RTTI Type Descriptor'
PUBLIC	??_R3?$CDynamicPoolEx@VCTextureAnimationCCWDecorator@NEffectUpdateDecorator@@@@8 ; CDynamicPoolEx<NEffectUpdateDecorator::CTextureAnimationCCWDecorator>::`RTTI Class Hierarchy Descriptor'
PUBLIC	??_R2?$CDynamicPoolEx@VCTextureAnimationCCWDecorator@NEffectUpdateDecorator@@@@8 ; CDynamicPoolEx<NEffectUpdateDecorator::CTextureAnimationCCWDecorator>::`RTTI Base Class Array'
PUBLIC	??_R1A@?0A@EA@?$CDynamicPoolEx@VCTextureAnimationCCWDecorator@NEffectUpdateDecorator@@@@8 ; CDynamicPoolEx<NEffectUpdateDecorator::CTextureAnimationCCWDecorator>::`RTTI Base Class Descriptor at (0,-1,0,64)'
PUBLIC	??_R4?$CDynamicPoolEx@VCTextureAnimationRandomDecorator@NEffectUpdateDecorator@@@@6B@ ; CDynamicPoolEx<NEffectUpdateDecorator::CTextureAnimationRandomDecorator>::`RTTI Complete Object Locator'
PUBLIC	??_R0?AV?$CDynamicPoolEx@VCTextureAnimationRandomDecorator@NEffectUpdateDecorator@@@@@8 ; CDynamicPoolEx<NEffectUpdateDecorator::CTextureAnimationRandomDecorator> `RTTI Type Descriptor'
PUBLIC	??_R3?$CDynamicPoolEx@VCTextureAnimationRandomDecorator@NEffectUpdateDecorator@@@@8 ; CDynamicPoolEx<NEffectUpdateDecorator::CTextureAnimationRandomDecorator>::`RTTI Class Hierarchy Descriptor'
PUBLIC	??_R2?$CDynamicPoolEx@VCTextureAnimationRandomDecorator@NEffectUpdateDecorator@@@@8 ; CDynamicPoolEx<NEffectUpdateDecorator::CTextureAnimationRandomDecorator>::`RTTI Base Class Array'
PUBLIC	??_R1A@?0A@EA@?$CDynamicPoolEx@VCTextureAnimationRandomDecorator@NEffectUpdateDecorator@@@@8 ; CDynamicPoolEx<NEffectUpdateDecorator::CTextureAnimationRandomDecorator>::`RTTI Base Class Descriptor at (0,-1,0,64)'
PUBLIC	??_R4?$CDynamicPoolEx@VCAirResistanceDecorator@NEffectUpdateDecorator@@@@6B@ ; CDynamicPoolEx<NEffectUpdateDecorator::CAirResistanceDecorator>::`RTTI Complete Object Locator'
PUBLIC	??_R0?AV?$CDynamicPoolEx@VCAirResistanceDecorator@NEffectUpdateDecorator@@@@@8 ; CDynamicPoolEx<NEffectUpdateDecorator::CAirResistanceDecorator> `RTTI Type Descriptor'
PUBLIC	??_R3?$CDynamicPoolEx@VCAirResistanceDecorator@NEffectUpdateDecorator@@@@8 ; CDynamicPoolEx<NEffectUpdateDecorator::CAirResistanceDecorator>::`RTTI Class Hierarchy Descriptor'
PUBLIC	??_R2?$CDynamicPoolEx@VCAirResistanceDecorator@NEffectUpdateDecorator@@@@8 ; CDynamicPoolEx<NEffectUpdateDecorator::CAirResistanceDecorator>::`RTTI Base Class Array'
PUBLIC	??_R1A@?0A@EA@?$CDynamicPoolEx@VCAirResistanceDecorator@NEffectUpdateDecorator@@@@8 ; CDynamicPoolEx<NEffectUpdateDecorator::CAirResistanceDecorator>::`RTTI Base Class Descriptor at (0,-1,0,64)'
PUBLIC	??_R4?$CDynamicPoolEx@VCGravityDecorator@NEffectUpdateDecorator@@@@6B@ ; CDynamicPoolEx<NEffectUpdateDecorator::CGravityDecorator>::`RTTI Complete Object Locator'
PUBLIC	??_R0?AV?$CDynamicPoolEx@VCGravityDecorator@NEffectUpdateDecorator@@@@@8 ; CDynamicPoolEx<NEffectUpdateDecorator::CGravityDecorator> `RTTI Type Descriptor'
PUBLIC	??_R3?$CDynamicPoolEx@VCGravityDecorator@NEffectUpdateDecorator@@@@8 ; CDynamicPoolEx<NEffectUpdateDecorator::CGravityDecorator>::`RTTI Class Hierarchy Descriptor'
PUBLIC	??_R2?$CDynamicPoolEx@VCGravityDecorator@NEffectUpdateDecorator@@@@8 ; CDynamicPoolEx<NEffectUpdateDecorator::CGravityDecorator>::`RTTI Base Class Array'
PUBLIC	??_R1A@?0A@EA@?$CDynamicPoolEx@VCGravityDecorator@NEffectUpdateDecorator@@@@8 ; CDynamicPoolEx<NEffectUpdateDecorator::CGravityDecorator>::`RTTI Base Class Descriptor at (0,-1,0,64)'
PUBLIC	??_R4?$CDynamicPoolEx@VCRotationDecorator@NEffectUpdateDecorator@@@@6B@ ; CDynamicPoolEx<NEffectUpdateDecorator::CRotationDecorator>::`RTTI Complete Object Locator'
PUBLIC	??_R0?AV?$CDynamicPoolEx@VCRotationDecorator@NEffectUpdateDecorator@@@@@8 ; CDynamicPoolEx<NEffectUpdateDecorator::CRotationDecorator> `RTTI Type Descriptor'
PUBLIC	??_R3?$CDynamicPoolEx@VCRotationDecorator@NEffectUpdateDecorator@@@@8 ; CDynamicPoolEx<NEffectUpdateDecorator::CRotationDecorator>::`RTTI Class Hierarchy Descriptor'
PUBLIC	??_R2?$CDynamicPoolEx@VCRotationDecorator@NEffectUpdateDecorator@@@@8 ; CDynamicPoolEx<NEffectUpdateDecorator::CRotationDecorator>::`RTTI Base Class Array'
PUBLIC	??_R1A@?0A@EA@?$CDynamicPoolEx@VCRotationDecorator@NEffectUpdateDecorator@@@@8 ; CDynamicPoolEx<NEffectUpdateDecorator::CRotationDecorator>::`RTTI Base Class Descriptor at (0,-1,0,64)'
PUBLIC	??_7?$CDynamicPoolEx@VCRotationDecorator@NEffectUpdateDecorator@@@@6B@ ; CDynamicPoolEx<NEffectUpdateDecorator::CRotationDecorator>::`vftable'
PUBLIC	??_G?$CDynamicPoolEx@VCRotationDecorator@NEffectUpdateDecorator@@@@UAEPAXI@Z ; CDynamicPoolEx<NEffectUpdateDecorator::CRotationDecorator>::`scalar deleting destructor'
PUBLIC	??_7?$CDynamicPoolEx@VCGravityDecorator@NEffectUpdateDecorator@@@@6B@ ; CDynamicPoolEx<NEffectUpdateDecorator::CGravityDecorator>::`vftable'
PUBLIC	??_G?$CDynamicPoolEx@VCGravityDecorator@NEffectUpdateDecorator@@@@UAEPAXI@Z ; CDynamicPoolEx<NEffectUpdateDecorator::CGravityDecorator>::`scalar deleting destructor'
PUBLIC	??_7?$CDynamicPoolEx@VCAirResistanceDecorator@NEffectUpdateDecorator@@@@6B@ ; CDynamicPoolEx<NEffectUpdateDecorator::CAirResistanceDecorator>::`vftable'
PUBLIC	??_G?$CDynamicPoolEx@VCAirResistanceDecorator@NEffectUpdateDecorator@@@@UAEPAXI@Z ; CDynamicPoolEx<NEffectUpdateDecorator::CAirResistanceDecorator>::`scalar deleting destructor'
PUBLIC	??_7?$CDynamicPoolEx@VCTextureAnimationRandomDecorator@NEffectUpdateDecorator@@@@6B@ ; CDynamicPoolEx<NEffectUpdateDecorator::CTextureAnimationRandomDecorator>::`vftable'
PUBLIC	??_G?$CDynamicPoolEx@VCTextureAnimationRandomDecorator@NEffectUpdateDecorator@@@@UAEPAXI@Z ; CDynamicPoolEx<NEffectUpdateDecorator::CTextureAnimationRandomDecorator>::`scalar deleting destructor'
PUBLIC	??_7?$CDynamicPoolEx@VCTextureAnimationCCWDecorator@NEffectUpdateDecorator@@@@6B@ ; CDynamicPoolEx<NEffectUpdateDecorator::CTextureAnimationCCWDecorator>::`vftable'
PUBLIC	??_G?$CDynamicPoolEx@VCTextureAnimationCCWDecorator@NEffectUpdateDecorator@@@@UAEPAXI@Z ; CDynamicPoolEx<NEffectUpdateDecorator::CTextureAnimationCCWDecorator>::`scalar deleting destructor'
PUBLIC	??_7?$CDynamicPoolEx@VCTextureAnimationCWDecorator@NEffectUpdateDecorator@@@@6B@ ; CDynamicPoolEx<NEffectUpdateDecorator::CTextureAnimationCWDecorator>::`vftable'
PUBLIC	??_G?$CDynamicPoolEx@VCTextureAnimationCWDecorator@NEffectUpdateDecorator@@@@UAEPAXI@Z ; CDynamicPoolEx<NEffectUpdateDecorator::CTextureAnimationCWDecorator>::`scalar deleting destructor'
PUBLIC	??_7?$CDynamicPoolEx@VCNullDecorator@NEffectUpdateDecorator@@@@6B@ ; CDynamicPoolEx<NEffectUpdateDecorator::CNullDecorator>::`vftable'
PUBLIC	??_G?$CDynamicPoolEx@VCNullDecorator@NEffectUpdateDecorator@@@@UAEPAXI@Z ; CDynamicPoolEx<NEffectUpdateDecorator::CNullDecorator>::`scalar deleting destructor'
PUBLIC	??_7?$CDynamicPoolEx@VCHeaderDecorator@NEffectUpdateDecorator@@@@6B@ ; CDynamicPoolEx<NEffectUpdateDecorator::CHeaderDecorator>::`vftable'
PUBLIC	??_G?$CDynamicPoolEx@VCHeaderDecorator@NEffectUpdateDecorator@@@@UAEPAXI@Z ; CDynamicPoolEx<NEffectUpdateDecorator::CHeaderDecorator>::`scalar deleting destructor'
EXTRN	??_E?$CDynamicPoolEx@VCRotationDecorator@NEffectUpdateDecorator@@@@UAEPAXI@Z:PROC ; CDynamicPoolEx<NEffectUpdateDecorator::CRotationDecorator>::`vector deleting destructor'
EXTRN	??_E?$CDynamicPoolEx@VCGravityDecorator@NEffectUpdateDecorator@@@@UAEPAXI@Z:PROC ; CDynamicPoolEx<NEffectUpdateDecorator::CGravityDecorator>::`vector deleting destructor'
EXTRN	??_E?$CDynamicPoolEx@VCAirResistanceDecorator@NEffectUpdateDecorator@@@@UAEPAXI@Z:PROC ; CDynamicPoolEx<NEffectUpdateDecorator::CAirResistanceDecorator>::`vector deleting destructor'
EXTRN	??_E?$CDynamicPoolEx@VCTextureAnimationRandomDecorator@NEffectUpdateDecorator@@@@UAEPAXI@Z:PROC ; CDynamicPoolEx<NEffectUpdateDecorator::CTextureAnimationRandomDecorator>::`vector deleting destructor'
EXTRN	??_E?$CDynamicPoolEx@VCTextureAnimationCCWDecorator@NEffectUpdateDecorator@@@@UAEPAXI@Z:PROC ; CDynamicPoolEx<NEffectUpdateDecorator::CTextureAnimationCCWDecorator>::`vector deleting destructor'
EXTRN	??_E?$CDynamicPoolEx@VCTextureAnimationCWDecorator@NEffectUpdateDecorator@@@@UAEPAXI@Z:PROC ; CDynamicPoolEx<NEffectUpdateDecorator::CTextureAnimationCWDecorator>::`vector deleting destructor'
EXTRN	??_7type_info@@6B@:QWORD			; type_info::`vftable'
EXTRN	??_E?$CDynamicPoolEx@VCNullDecorator@NEffectUpdateDecorator@@@@UAEPAXI@Z:PROC ; CDynamicPoolEx<NEffectUpdateDecorator::CNullDecorator>::`vector deleting destructor'
EXTRN	??_E?$CDynamicPoolEx@VCHeaderDecorator@NEffectUpdateDecorator@@@@UAEPAXI@Z:PROC ; CDynamicPoolEx<NEffectUpdateDecorator::CHeaderDecorator>::`vector deleting destructor'
;	COMDAT ??_7?$CDynamicPoolEx@VCHeaderDecorator@NEffectUpdateDecorator@@@@6B@
CONST	SEGMENT
??_7?$CDynamicPoolEx@VCHeaderDecorator@NEffectUpdateDecorator@@@@6B@ DD FLAT:??_R4?$CDynamicPoolEx@VCHeaderDecorator@NEffectUpdateDecorator@@@@6B@ ; CDynamicPoolEx<NEffectUpdateDecorator::CHeaderDecorator>::`vftable'
	DD	FLAT:??_E?$CDynamicPoolEx@VCHeaderDecorator@NEffectUpdateDecorator@@@@UAEPAXI@Z
CONST	ENDS
;	COMDAT ??_7?$CDynamicPoolEx@VCNullDecorator@NEffectUpdateDecorator@@@@6B@
CONST	SEGMENT
??_7?$CDynamicPoolEx@VCNullDecorator@NEffectUpdateDecorator@@@@6B@ DD FLAT:??_R4?$CDynamicPoolEx@VCNullDecorator@NEffectUpdateDecorator@@@@6B@ ; CDynamicPoolEx<NEffectUpdateDecorator::CNullDecorator>::`vftable'
	DD	FLAT:??_E?$CDynamicPoolEx@VCNullDecorator@NEffectUpdateDecorator@@@@UAEPAXI@Z
CONST	ENDS
;	COMDAT ??_7?$CDynamicPoolEx@VCTextureAnimationCWDecorator@NEffectUpdateDecorator@@@@6B@
CONST	SEGMENT
??_7?$CDynamicPoolEx@VCTextureAnimationCWDecorator@NEffectUpdateDecorator@@@@6B@ DD FLAT:??_R4?$CDynamicPoolEx@VCTextureAnimationCWDecorator@NEffectUpdateDecorator@@@@6B@ ; CDynamicPoolEx<NEffectUpdateDecorator::CTextureAnimationCWDecorator>::`vftable'
	DD	FLAT:??_E?$CDynamicPoolEx@VCTextureAnimationCWDecorator@NEffectUpdateDecorator@@@@UAEPAXI@Z
CONST	ENDS
;	COMDAT ??_7?$CDynamicPoolEx@VCTextureAnimationCCWDecorator@NEffectUpdateDecorator@@@@6B@
CONST	SEGMENT
??_7?$CDynamicPoolEx@VCTextureAnimationCCWDecorator@NEffectUpdateDecorator@@@@6B@ DD FLAT:??_R4?$CDynamicPoolEx@VCTextureAnimationCCWDecorator@NEffectUpdateDecorator@@@@6B@ ; CDynamicPoolEx<NEffectUpdateDecorator::CTextureAnimationCCWDecorator>::`vftable'
	DD	FLAT:??_E?$CDynamicPoolEx@VCTextureAnimationCCWDecorator@NEffectUpdateDecorator@@@@UAEPAXI@Z
CONST	ENDS
;	COMDAT ??_7?$CDynamicPoolEx@VCTextureAnimationRandomDecorator@NEffectUpdateDecorator@@@@6B@
CONST	SEGMENT
??_7?$CDynamicPoolEx@VCTextureAnimationRandomDecorator@NEffectUpdateDecorator@@@@6B@ DD FLAT:??_R4?$CDynamicPoolEx@VCTextureAnimationRandomDecorator@NEffectUpdateDecorator@@@@6B@ ; CDynamicPoolEx<NEffectUpdateDecorator::CTextureAnimationRandomDecorator>::`vftable'
	DD	FLAT:??_E?$CDynamicPoolEx@VCTextureAnimationRandomDecorator@NEffectUpdateDecorator@@@@UAEPAXI@Z
CONST	ENDS
;	COMDAT ??_7?$CDynamicPoolEx@VCAirResistanceDecorator@NEffectUpdateDecorator@@@@6B@
CONST	SEGMENT
??_7?$CDynamicPoolEx@VCAirResistanceDecorator@NEffectUpdateDecorator@@@@6B@ DD FLAT:??_R4?$CDynamicPoolEx@VCAirResistanceDecorator@NEffectUpdateDecorator@@@@6B@ ; CDynamicPoolEx<NEffectUpdateDecorator::CAirResistanceDecorator>::`vftable'
	DD	FLAT:??_E?$CDynamicPoolEx@VCAirResistanceDecorator@NEffectUpdateDecorator@@@@UAEPAXI@Z
CONST	ENDS
;	COMDAT ??_7?$CDynamicPoolEx@VCGravityDecorator@NEffectUpdateDecorator@@@@6B@
CONST	SEGMENT
??_7?$CDynamicPoolEx@VCGravityDecorator@NEffectUpdateDecorator@@@@6B@ DD FLAT:??_R4?$CDynamicPoolEx@VCGravityDecorator@NEffectUpdateDecorator@@@@6B@ ; CDynamicPoolEx<NEffectUpdateDecorator::CGravityDecorator>::`vftable'
	DD	FLAT:??_E?$CDynamicPoolEx@VCGravityDecorator@NEffectUpdateDecorator@@@@UAEPAXI@Z
CONST	ENDS
;	COMDAT ??_7?$CDynamicPoolEx@VCRotationDecorator@NEffectUpdateDecorator@@@@6B@
CONST	SEGMENT
??_7?$CDynamicPoolEx@VCRotationDecorator@NEffectUpdateDecorator@@@@6B@ DD FLAT:??_R4?$CDynamicPoolEx@VCRotationDecorator@NEffectUpdateDecorator@@@@6B@ ; CDynamicPoolEx<NEffectUpdateDecorator::CRotationDecorator>::`vftable'
	DD	FLAT:??_E?$CDynamicPoolEx@VCRotationDecorator@NEffectUpdateDecorator@@@@UAEPAXI@Z
CONST	ENDS
;	COMDAT ??_R1A@?0A@EA@?$CDynamicPoolEx@VCRotationDecorator@NEffectUpdateDecorator@@@@8
rdata$r	SEGMENT
??_R1A@?0A@EA@?$CDynamicPoolEx@VCRotationDecorator@NEffectUpdateDecorator@@@@8 DD FLAT:??_R0?AV?$CDynamicPoolEx@VCRotationDecorator@NEffectUpdateDecorator@@@@@8 ; CDynamicPoolEx<NEffectUpdateDecorator::CRotationDecorator>::`RTTI Base Class Descriptor at (0,-1,0,64)'
	DD	00H
	DD	00H
	DD	0ffffffffH
	DD	00H
	DD	040H
	DD	FLAT:??_R3?$CDynamicPoolEx@VCRotationDecorator@NEffectUpdateDecorator@@@@8
rdata$r	ENDS
;	COMDAT ??_R2?$CDynamicPoolEx@VCRotationDecorator@NEffectUpdateDecorator@@@@8
rdata$r	SEGMENT
??_R2?$CDynamicPoolEx@VCRotationDecorator@NEffectUpdateDecorator@@@@8 DD FLAT:??_R1A@?0A@EA@?$CDynamicPoolEx@VCRotationDecorator@NEffectUpdateDecorator@@@@8 ; CDynamicPoolEx<NEffectUpdateDecorator::CRotationDecorator>::`RTTI Base Class Array'
rdata$r	ENDS
;	COMDAT ??_R3?$CDynamicPoolEx@VCRotationDecorator@NEffectUpdateDecorator@@@@8
rdata$r	SEGMENT
??_R3?$CDynamicPoolEx@VCRotationDecorator@NEffectUpdateDecorator@@@@8 DD 00H ; CDynamicPoolEx<NEffectUpdateDecorator::CRotationDecorator>::`RTTI Class Hierarchy Descriptor'
	DD	00H
	DD	01H
	DD	FLAT:??_R2?$CDynamicPoolEx@VCRotationDecorator@NEffectUpdateDecorator@@@@8
rdata$r	ENDS
;	COMDAT ??_R0?AV?$CDynamicPoolEx@VCRotationDecorator@NEffectUpdateDecorator@@@@@8
data$rs	SEGMENT
??_R0?AV?$CDynamicPoolEx@VCRotationDecorator@NEffectUpdateDecorator@@@@@8 DD FLAT:??_7type_info@@6B@ ; CDynamicPoolEx<NEffectUpdateDecorator::CRotationDecorator> `RTTI Type Descriptor'
	DD	00H
	DB	'.?AV?$CDynamicPoolEx@VCRotationDecorator@NEffectUpdateDe'
	DB	'corator@@@@', 00H
data$rs	ENDS
;	COMDAT ??_R4?$CDynamicPoolEx@VCRotationDecorator@NEffectUpdateDecorator@@@@6B@
rdata$r	SEGMENT
??_R4?$CDynamicPoolEx@VCRotationDecorator@NEffectUpdateDecorator@@@@6B@ DD 00H ; CDynamicPoolEx<NEffectUpdateDecorator::CRotationDecorator>::`RTTI Complete Object Locator'
	DD	00H
	DD	00H
	DD	FLAT:??_R0?AV?$CDynamicPoolEx@VCRotationDecorator@NEffectUpdateDecorator@@@@@8
	DD	FLAT:??_R3?$CDynamicPoolEx@VCRotationDecorator@NEffectUpdateDecorator@@@@8
rdata$r	ENDS
;	COMDAT ??_R1A@?0A@EA@?$CDynamicPoolEx@VCGravityDecorator@NEffectUpdateDecorator@@@@8
rdata$r	SEGMENT
??_R1A@?0A@EA@?$CDynamicPoolEx@VCGravityDecorator@NEffectUpdateDecorator@@@@8 DD FLAT:??_R0?AV?$CDynamicPoolEx@VCGravityDecorator@NEffectUpdateDecorator@@@@@8 ; CDynamicPoolEx<NEffectUpdateDecorator::CGravityDecorator>::`RTTI Base Class Descriptor at (0,-1,0,64)'
	DD	00H
	DD	00H
	DD	0ffffffffH
	DD	00H
	DD	040H
	DD	FLAT:??_R3?$CDynamicPoolEx@VCGravityDecorator@NEffectUpdateDecorator@@@@8
rdata$r	ENDS
;	COMDAT ??_R2?$CDynamicPoolEx@VCGravityDecorator@NEffectUpdateDecorator@@@@8
rdata$r	SEGMENT
??_R2?$CDynamicPoolEx@VCGravityDecorator@NEffectUpdateDecorator@@@@8 DD FLAT:??_R1A@?0A@EA@?$CDynamicPoolEx@VCGravityDecorator@NEffectUpdateDecorator@@@@8 ; CDynamicPoolEx<NEffectUpdateDecorator::CGravityDecorator>::`RTTI Base Class Array'
rdata$r	ENDS
;	COMDAT ??_R3?$CDynamicPoolEx@VCGravityDecorator@NEffectUpdateDecorator@@@@8
rdata$r	SEGMENT
??_R3?$CDynamicPoolEx@VCGravityDecorator@NEffectUpdateDecorator@@@@8 DD 00H ; CDynamicPoolEx<NEffectUpdateDecorator::CGravityDecorator>::`RTTI Class Hierarchy Descriptor'
	DD	00H
	DD	01H
	DD	FLAT:??_R2?$CDynamicPoolEx@VCGravityDecorator@NEffectUpdateDecorator@@@@8
rdata$r	ENDS
;	COMDAT ??_R0?AV?$CDynamicPoolEx@VCGravityDecorator@NEffectUpdateDecorator@@@@@8
data$rs	SEGMENT
??_R0?AV?$CDynamicPoolEx@VCGravityDecorator@NEffectUpdateDecorator@@@@@8 DD FLAT:??_7type_info@@6B@ ; CDynamicPoolEx<NEffectUpdateDecorator::CGravityDecorator> `RTTI Type Descriptor'
	DD	00H
	DB	'.?AV?$CDynamicPoolEx@VCGravityDecorator@NEffectUpdateDec'
	DB	'orator@@@@', 00H
data$rs	ENDS
;	COMDAT ??_R4?$CDynamicPoolEx@VCGravityDecorator@NEffectUpdateDecorator@@@@6B@
rdata$r	SEGMENT
??_R4?$CDynamicPoolEx@VCGravityDecorator@NEffectUpdateDecorator@@@@6B@ DD 00H ; CDynamicPoolEx<NEffectUpdateDecorator::CGravityDecorator>::`RTTI Complete Object Locator'
	DD	00H
	DD	00H
	DD	FLAT:??_R0?AV?$CDynamicPoolEx@VCGravityDecorator@NEffectUpdateDecorator@@@@@8
	DD	FLAT:??_R3?$CDynamicPoolEx@VCGravityDecorator@NEffectUpdateDecorator@@@@8
rdata$r	ENDS
;	COMDAT ??_R1A@?0A@EA@?$CDynamicPoolEx@VCAirResistanceDecorator@NEffectUpdateDecorator@@@@8
rdata$r	SEGMENT
??_R1A@?0A@EA@?$CDynamicPoolEx@VCAirResistanceDecorator@NEffectUpdateDecorator@@@@8 DD FLAT:??_R0?AV?$CDynamicPoolEx@VCAirResistanceDecorator@NEffectUpdateDecorator@@@@@8 ; CDynamicPoolEx<NEffectUpdateDecorator::CAirResistanceDecorator>::`RTTI Base Class Descriptor at (0,-1,0,64)'
	DD	00H
	DD	00H
	DD	0ffffffffH
	DD	00H
	DD	040H
	DD	FLAT:??_R3?$CDynamicPoolEx@VCAirResistanceDecorator@NEffectUpdateDecorator@@@@8
rdata$r	ENDS
;	COMDAT ??_R2?$CDynamicPoolEx@VCAirResistanceDecorator@NEffectUpdateDecorator@@@@8
rdata$r	SEGMENT
??_R2?$CDynamicPoolEx@VCAirResistanceDecorator@NEffectUpdateDecorator@@@@8 DD FLAT:??_R1A@?0A@EA@?$CDynamicPoolEx@VCAirResistanceDecorator@NEffectUpdateDecorator@@@@8 ; CDynamicPoolEx<NEffectUpdateDecorator::CAirResistanceDecorator>::`RTTI Base Class Array'
rdata$r	ENDS
;	COMDAT ??_R3?$CDynamicPoolEx@VCAirResistanceDecorator@NEffectUpdateDecorator@@@@8
rdata$r	SEGMENT
??_R3?$CDynamicPoolEx@VCAirResistanceDecorator@NEffectUpdateDecorator@@@@8 DD 00H ; CDynamicPoolEx<NEffectUpdateDecorator::CAirResistanceDecorator>::`RTTI Class Hierarchy Descriptor'
	DD	00H
	DD	01H
	DD	FLAT:??_R2?$CDynamicPoolEx@VCAirResistanceDecorator@NEffectUpdateDecorator@@@@8
rdata$r	ENDS
;	COMDAT ??_R0?AV?$CDynamicPoolEx@VCAirResistanceDecorator@NEffectUpdateDecorator@@@@@8
data$rs	SEGMENT
??_R0?AV?$CDynamicPoolEx@VCAirResistanceDecorator@NEffectUpdateDecorator@@@@@8 DD FLAT:??_7type_info@@6B@ ; CDynamicPoolEx<NEffectUpdateDecorator::CAirResistanceDecorator> `RTTI Type Descriptor'
	DD	00H
	DB	'.?AV?$CDynamicPoolEx@VCAirResistanceDecorator@NEffectUpd'
	DB	'ateDecorator@@@@', 00H
data$rs	ENDS
;	COMDAT ??_R4?$CDynamicPoolEx@VCAirResistanceDecorator@NEffectUpdateDecorator@@@@6B@
rdata$r	SEGMENT
??_R4?$CDynamicPoolEx@VCAirResistanceDecorator@NEffectUpdateDecorator@@@@6B@ DD 00H ; CDynamicPoolEx<NEffectUpdateDecorator::CAirResistanceDecorator>::`RTTI Complete Object Locator'
	DD	00H
	DD	00H
	DD	FLAT:??_R0?AV?$CDynamicPoolEx@VCAirResistanceDecorator@NEffectUpdateDecorator@@@@@8
	DD	FLAT:??_R3?$CDynamicPoolEx@VCAirResistanceDecorator@NEffectUpdateDecorator@@@@8
rdata$r	ENDS
;	COMDAT ??_R1A@?0A@EA@?$CDynamicPoolEx@VCTextureAnimationRandomDecorator@NEffectUpdateDecorator@@@@8
rdata$r	SEGMENT
??_R1A@?0A@EA@?$CDynamicPoolEx@VCTextureAnimationRandomDecorator@NEffectUpdateDecorator@@@@8 DD FLAT:??_R0?AV?$CDynamicPoolEx@VCTextureAnimationRandomDecorator@NEffectUpdateDecorator@@@@@8 ; CDynamicPoolEx<NEffectUpdateDecorator::CTextureAnimationRandomDecorator>::`RTTI Base Class Descriptor at (0,-1,0,64)'
	DD	00H
	DD	00H
	DD	0ffffffffH
	DD	00H
	DD	040H
	DD	FLAT:??_R3?$CDynamicPoolEx@VCTextureAnimationRandomDecorator@NEffectUpdateDecorator@@@@8
rdata$r	ENDS
;	COMDAT ??_R2?$CDynamicPoolEx@VCTextureAnimationRandomDecorator@NEffectUpdateDecorator@@@@8
rdata$r	SEGMENT
??_R2?$CDynamicPoolEx@VCTextureAnimationRandomDecorator@NEffectUpdateDecorator@@@@8 DD FLAT:??_R1A@?0A@EA@?$CDynamicPoolEx@VCTextureAnimationRandomDecorator@NEffectUpdateDecorator@@@@8 ; CDynamicPoolEx<NEffectUpdateDecorator::CTextureAnimationRandomDecorator>::`RTTI Base Class Array'
rdata$r	ENDS
;	COMDAT ??_R3?$CDynamicPoolEx@VCTextureAnimationRandomDecorator@NEffectUpdateDecorator@@@@8
rdata$r	SEGMENT
??_R3?$CDynamicPoolEx@VCTextureAnimationRandomDecorator@NEffectUpdateDecorator@@@@8 DD 00H ; CDynamicPoolEx<NEffectUpdateDecorator::CTextureAnimationRandomDecorator>::`RTTI Class Hierarchy Descriptor'
	DD	00H
	DD	01H
	DD	FLAT:??_R2?$CDynamicPoolEx@VCTextureAnimationRandomDecorator@NEffectUpdateDecorator@@@@8
rdata$r	ENDS
;	COMDAT ??_R0?AV?$CDynamicPoolEx@VCTextureAnimationRandomDecorator@NEffectUpdateDecorator@@@@@8
data$rs	SEGMENT
??_R0?AV?$CDynamicPoolEx@VCTextureAnimationRandomDecorator@NEffectUpdateDecorator@@@@@8 DD FLAT:??_7type_info@@6B@ ; CDynamicPoolEx<NEffectUpdateDecorator::CTextureAnimationRandomDecorator> `RTTI Type Descriptor'
	DD	00H
	DB	'.?AV?$CDynamicPoolEx@VCTextureAnimationRandomDecorator@N'
	DB	'EffectUpdateDecorator@@@@', 00H
data$rs	ENDS
;	COMDAT ??_R4?$CDynamicPoolEx@VCTextureAnimationRandomDecorator@NEffectUpdateDecorator@@@@6B@
rdata$r	SEGMENT
??_R4?$CDynamicPoolEx@VCTextureAnimationRandomDecorator@NEffectUpdateDecorator@@@@6B@ DD 00H ; CDynamicPoolEx<NEffectUpdateDecorator::CTextureAnimationRandomDecorator>::`RTTI Complete Object Locator'
	DD	00H
	DD	00H
	DD	FLAT:??_R0?AV?$CDynamicPoolEx@VCTextureAnimationRandomDecorator@NEffectUpdateDecorator@@@@@8
	DD	FLAT:??_R3?$CDynamicPoolEx@VCTextureAnimationRandomDecorator@NEffectUpdateDecorator@@@@8
rdata$r	ENDS
;	COMDAT ??_R1A@?0A@EA@?$CDynamicPoolEx@VCTextureAnimationCCWDecorator@NEffectUpdateDecorator@@@@8
rdata$r	SEGMENT
??_R1A@?0A@EA@?$CDynamicPoolEx@VCTextureAnimationCCWDecorator@NEffectUpdateDecorator@@@@8 DD FLAT:??_R0?AV?$CDynamicPoolEx@VCTextureAnimationCCWDecorator@NEffectUpdateDecorator@@@@@8 ; CDynamicPoolEx<NEffectUpdateDecorator::CTextureAnimationCCWDecorator>::`RTTI Base Class Descriptor at (0,-1,0,64)'
	DD	00H
	DD	00H
	DD	0ffffffffH
	DD	00H
	DD	040H
	DD	FLAT:??_R3?$CDynamicPoolEx@VCTextureAnimationCCWDecorator@NEffectUpdateDecorator@@@@8
rdata$r	ENDS
;	COMDAT ??_R2?$CDynamicPoolEx@VCTextureAnimationCCWDecorator@NEffectUpdateDecorator@@@@8
rdata$r	SEGMENT
??_R2?$CDynamicPoolEx@VCTextureAnimationCCWDecorator@NEffectUpdateDecorator@@@@8 DD FLAT:??_R1A@?0A@EA@?$CDynamicPoolEx@VCTextureAnimationCCWDecorator@NEffectUpdateDecorator@@@@8 ; CDynamicPoolEx<NEffectUpdateDecorator::CTextureAnimationCCWDecorator>::`RTTI Base Class Array'
rdata$r	ENDS
;	COMDAT ??_R3?$CDynamicPoolEx@VCTextureAnimationCCWDecorator@NEffectUpdateDecorator@@@@8
rdata$r	SEGMENT
??_R3?$CDynamicPoolEx@VCTextureAnimationCCWDecorator@NEffectUpdateDecorator@@@@8 DD 00H ; CDynamicPoolEx<NEffectUpdateDecorator::CTextureAnimationCCWDecorator>::`RTTI Class Hierarchy Descriptor'
	DD	00H
	DD	01H
	DD	FLAT:??_R2?$CDynamicPoolEx@VCTextureAnimationCCWDecorator@NEffectUpdateDecorator@@@@8
rdata$r	ENDS
;	COMDAT ??_R0?AV?$CDynamicPoolEx@VCTextureAnimationCCWDecorator@NEffectUpdateDecorator@@@@@8
data$rs	SEGMENT
??_R0?AV?$CDynamicPoolEx@VCTextureAnimationCCWDecorator@NEffectUpdateDecorator@@@@@8 DD FLAT:??_7type_info@@6B@ ; CDynamicPoolEx<NEffectUpdateDecorator::CTextureAnimationCCWDecorator> `RTTI Type Descriptor'
	DD	00H
	DB	'.?AV?$CDynamicPoolEx@VCTextureAnimationCCWDecorator@NEff'
	DB	'ectUpdateDecorator@@@@', 00H
data$rs	ENDS
;	COMDAT ??_R4?$CDynamicPoolEx@VCTextureAnimationCCWDecorator@NEffectUpdateDecorator@@@@6B@
rdata$r	SEGMENT
??_R4?$CDynamicPoolEx@VCTextureAnimationCCWDecorator@NEffectUpdateDecorator@@@@6B@ DD 00H ; CDynamicPoolEx<NEffectUpdateDecorator::CTextureAnimationCCWDecorator>::`RTTI Complete Object Locator'
	DD	00H
	DD	00H
	DD	FLAT:??_R0?AV?$CDynamicPoolEx@VCTextureAnimationCCWDecorator@NEffectUpdateDecorator@@@@@8
	DD	FLAT:??_R3?$CDynamicPoolEx@VCTextureAnimationCCWDecorator@NEffectUpdateDecorator@@@@8
rdata$r	ENDS
;	COMDAT ??_R1A@?0A@EA@?$CDynamicPoolEx@VCTextureAnimationCWDecorator@NEffectUpdateDecorator@@@@8
rdata$r	SEGMENT
??_R1A@?0A@EA@?$CDynamicPoolEx@VCTextureAnimationCWDecorator@NEffectUpdateDecorator@@@@8 DD FLAT:??_R0?AV?$CDynamicPoolEx@VCTextureAnimationCWDecorator@NEffectUpdateDecorator@@@@@8 ; CDynamicPoolEx<NEffectUpdateDecorator::CTextureAnimationCWDecorator>::`RTTI Base Class Descriptor at (0,-1,0,64)'
	DD	00H
	DD	00H
	DD	0ffffffffH
	DD	00H
	DD	040H
	DD	FLAT:??_R3?$CDynamicPoolEx@VCTextureAnimationCWDecorator@NEffectUpdateDecorator@@@@8
rdata$r	ENDS
;	COMDAT ??_R2?$CDynamicPoolEx@VCTextureAnimationCWDecorator@NEffectUpdateDecorator@@@@8
rdata$r	SEGMENT
??_R2?$CDynamicPoolEx@VCTextureAnimationCWDecorator@NEffectUpdateDecorator@@@@8 DD FLAT:??_R1A@?0A@EA@?$CDynamicPoolEx@VCTextureAnimationCWDecorator@NEffectUpdateDecorator@@@@8 ; CDynamicPoolEx<NEffectUpdateDecorator::CTextureAnimationCWDecorator>::`RTTI Base Class Array'
rdata$r	ENDS
;	COMDAT ??_R3?$CDynamicPoolEx@VCTextureAnimationCWDecorator@NEffectUpdateDecorator@@@@8
rdata$r	SEGMENT
??_R3?$CDynamicPoolEx@VCTextureAnimationCWDecorator@NEffectUpdateDecorator@@@@8 DD 00H ; CDynamicPoolEx<NEffectUpdateDecorator::CTextureAnimationCWDecorator>::`RTTI Class Hierarchy Descriptor'
	DD	00H
	DD	01H
	DD	FLAT:??_R2?$CDynamicPoolEx@VCTextureAnimationCWDecorator@NEffectUpdateDecorator@@@@8
rdata$r	ENDS
;	COMDAT ??_R0?AV?$CDynamicPoolEx@VCTextureAnimationCWDecorator@NEffectUpdateDecorator@@@@@8
data$rs	SEGMENT
??_R0?AV?$CDynamicPoolEx@VCTextureAnimationCWDecorator@NEffectUpdateDecorator@@@@@8 DD FLAT:??_7type_info@@6B@ ; CDynamicPoolEx<NEffectUpdateDecorator::CTextureAnimationCWDecorator> `RTTI Type Descriptor'
	DD	00H
	DB	'.?AV?$CDynamicPoolEx@VCTextureAnimationCWDecorator@NEffe'
	DB	'ctUpdateDecorator@@@@', 00H
data$rs	ENDS
;	COMDAT ??_R4?$CDynamicPoolEx@VCTextureAnimationCWDecorator@NEffectUpdateDecorator@@@@6B@
rdata$r	SEGMENT
??_R4?$CDynamicPoolEx@VCTextureAnimationCWDecorator@NEffectUpdateDecorator@@@@6B@ DD 00H ; CDynamicPoolEx<NEffectUpdateDecorator::CTextureAnimationCWDecorator>::`RTTI Complete Object Locator'
	DD	00H
	DD	00H
	DD	FLAT:??_R0?AV?$CDynamicPoolEx@VCTextureAnimationCWDecorator@NEffectUpdateDecorator@@@@@8
	DD	FLAT:??_R3?$CDynamicPoolEx@VCTextureAnimationCWDecorator@NEffectUpdateDecorator@@@@8
rdata$r	ENDS
;	COMDAT ??_R1A@?0A@EA@?$CDynamicPoolEx@VCNullDecorator@NEffectUpdateDecorator@@@@8
rdata$r	SEGMENT
??_R1A@?0A@EA@?$CDynamicPoolEx@VCNullDecorator@NEffectUpdateDecorator@@@@8 DD FLAT:??_R0?AV?$CDynamicPoolEx@VCNullDecorator@NEffectUpdateDecorator@@@@@8 ; CDynamicPoolEx<NEffectUpdateDecorator::CNullDecorator>::`RTTI Base Class Descriptor at (0,-1,0,64)'
	DD	00H
	DD	00H
	DD	0ffffffffH
	DD	00H
	DD	040H
	DD	FLAT:??_R3?$CDynamicPoolEx@VCNullDecorator@NEffectUpdateDecorator@@@@8
rdata$r	ENDS
;	COMDAT ??_R2?$CDynamicPoolEx@VCNullDecorator@NEffectUpdateDecorator@@@@8
rdata$r	SEGMENT
??_R2?$CDynamicPoolEx@VCNullDecorator@NEffectUpdateDecorator@@@@8 DD FLAT:??_R1A@?0A@EA@?$CDynamicPoolEx@VCNullDecorator@NEffectUpdateDecorator@@@@8 ; CDynamicPoolEx<NEffectUpdateDecorator::CNullDecorator>::`RTTI Base Class Array'
rdata$r	ENDS
;	COMDAT ??_R3?$CDynamicPoolEx@VCNullDecorator@NEffectUpdateDecorator@@@@8
rdata$r	SEGMENT
??_R3?$CDynamicPoolEx@VCNullDecorator@NEffectUpdateDecorator@@@@8 DD 00H ; CDynamicPoolEx<NEffectUpdateDecorator::CNullDecorator>::`RTTI Class Hierarchy Descriptor'
	DD	00H
	DD	01H
	DD	FLAT:??_R2?$CDynamicPoolEx@VCNullDecorator@NEffectUpdateDecorator@@@@8
rdata$r	ENDS
;	COMDAT ??_R0?AV?$CDynamicPoolEx@VCNullDecorator@NEffectUpdateDecorator@@@@@8
data$rs	SEGMENT
??_R0?AV?$CDynamicPoolEx@VCNullDecorator@NEffectUpdateDecorator@@@@@8 DD FLAT:??_7type_info@@6B@ ; CDynamicPoolEx<NEffectUpdateDecorator::CNullDecorator> `RTTI Type Descriptor'
	DD	00H
	DB	'.?AV?$CDynamicPoolEx@VCNullDecorator@NEffectUpdateDecora'
	DB	'tor@@@@', 00H
data$rs	ENDS
;	COMDAT ??_R4?$CDynamicPoolEx@VCNullDecorator@NEffectUpdateDecorator@@@@6B@
rdata$r	SEGMENT
??_R4?$CDynamicPoolEx@VCNullDecorator@NEffectUpdateDecorator@@@@6B@ DD 00H ; CDynamicPoolEx<NEffectUpdateDecorator::CNullDecorator>::`RTTI Complete Object Locator'
	DD	00H
	DD	00H
	DD	FLAT:??_R0?AV?$CDynamicPoolEx@VCNullDecorator@NEffectUpdateDecorator@@@@@8
	DD	FLAT:??_R3?$CDynamicPoolEx@VCNullDecorator@NEffectUpdateDecorator@@@@8
rdata$r	ENDS
;	COMDAT ??_R1A@?0A@EA@?$CDynamicPoolEx@VCHeaderDecorator@NEffectUpdateDecorator@@@@8
rdata$r	SEGMENT
??_R1A@?0A@EA@?$CDynamicPoolEx@VCHeaderDecorator@NEffectUpdateDecorator@@@@8 DD FLAT:??_R0?AV?$CDynamicPoolEx@VCHeaderDecorator@NEffectUpdateDecorator@@@@@8 ; CDynamicPoolEx<NEffectUpdateDecorator::CHeaderDecorator>::`RTTI Base Class Descriptor at (0,-1,0,64)'
	DD	00H
	DD	00H
	DD	0ffffffffH
	DD	00H
	DD	040H
	DD	FLAT:??_R3?$CDynamicPoolEx@VCHeaderDecorator@NEffectUpdateDecorator@@@@8
rdata$r	ENDS
;	COMDAT ??_R2?$CDynamicPoolEx@VCHeaderDecorator@NEffectUpdateDecorator@@@@8
rdata$r	SEGMENT
??_R2?$CDynamicPoolEx@VCHeaderDecorator@NEffectUpdateDecorator@@@@8 DD FLAT:??_R1A@?0A@EA@?$CDynamicPoolEx@VCHeaderDecorator@NEffectUpdateDecorator@@@@8 ; CDynamicPoolEx<NEffectUpdateDecorator::CHeaderDecorator>::`RTTI Base Class Array'
rdata$r	ENDS
;	COMDAT ??_R3?$CDynamicPoolEx@VCHeaderDecorator@NEffectUpdateDecorator@@@@8
rdata$r	SEGMENT
??_R3?$CDynamicPoolEx@VCHeaderDecorator@NEffectUpdateDecorator@@@@8 DD 00H ; CDynamicPoolEx<NEffectUpdateDecorator::CHeaderDecorator>::`RTTI Class Hierarchy Descriptor'
	DD	00H
	DD	01H
	DD	FLAT:??_R2?$CDynamicPoolEx@VCHeaderDecorator@NEffectUpdateDecorator@@@@8
rdata$r	ENDS
;	COMDAT ??_R0?AV?$CDynamicPoolEx@VCHeaderDecorator@NEffectUpdateDecorator@@@@@8
data$rs	SEGMENT
??_R0?AV?$CDynamicPoolEx@VCHeaderDecorator@NEffectUpdateDecorator@@@@@8 DD FLAT:??_7type_info@@6B@ ; CDynamicPoolEx<NEffectUpdateDecorator::CHeaderDecorator> `RTTI Type Descriptor'
	DD	00H
	DB	'.?AV?$CDynamicPoolEx@VCHeaderDecorator@NEffectUpdateDeco'
	DB	'rator@@@@', 00H
data$rs	ENDS
;	COMDAT ??_R4?$CDynamicPoolEx@VCHeaderDecorator@NEffectUpdateDecorator@@@@6B@
rdata$r	SEGMENT
??_R4?$CDynamicPoolEx@VCHeaderDecorator@NEffectUpdateDecorator@@@@6B@ DD 00H ; CDynamicPoolEx<NEffectUpdateDecorator::CHeaderDecorator>::`RTTI Complete Object Locator'
	DD	00H
	DD	00H
	DD	FLAT:??_R0?AV?$CDynamicPoolEx@VCHeaderDecorator@NEffectUpdateDecorator@@@@@8
	DD	FLAT:??_R3?$CDynamicPoolEx@VCHeaderDecorator@NEffectUpdateDecorator@@@@8
rdata$r	ENDS
PUBLIC	??_H@YGXPAXIIP6EPAX0@Z@Z			; `vector constructor iterator'
PUBLIC	?__empty_global_delete@@YAXPAX@Z		; __empty_global_delete
PUBLIC	?__empty_global_delete@@YAXPAXI@Z		; __empty_global_delete
PUBLIC	___local_stdio_printf_options
PUBLIC	___local_stdio_scanf_options
PUBLIC	_fprintf
PUBLIC	_sscanf
PUBLIC	??$_Deallocate@$07$0A@@std@@YAXPAXI@Z		; std::_Deallocate<8,0>
PUBLIC	??1?$CSingleton@VCPythonSystem@@@@UAE@XZ	; CSingleton<CPythonSystem>::~CSingleton<CPythonSystem>
PUBLIC	??_G?$CSingleton@VCPythonSystem@@@@UAEPAXI@Z	; CSingleton<CPythonSystem>::`scalar deleting destructor'
PUBLIC	??0CPythonSystem@@QAE@XZ			; CPythonSystem::CPythonSystem
PUBLIC	??1CPythonSystem@@UAE@XZ			; CPythonSystem::~CPythonSystem
PUBLIC	?Clear@CPythonSystem@@QAEXXZ			; CPythonSystem::Clear
PUBLIC	?SetInterfaceHandler@CPythonSystem@@QAEXPAU_object@@@Z ; CPythonSystem::SetInterfaceHandler
PUBLIC	?DestroyInterfaceHandler@CPythonSystem@@QAEXXZ	; CPythonSystem::DestroyInterfaceHandler
PUBLIC	?SetDefaultConfig@CPythonSystem@@QAEXXZ		; CPythonSystem::SetDefaultConfig
PUBLIC	?LoadConfig@CPythonSystem@@QAE_NXZ		; CPythonSystem::LoadConfig
PUBLIC	?SaveConfig@CPythonSystem@@QAE_NXZ		; CPythonSystem::SaveConfig
PUBLIC	?ApplyConfig@CPythonSystem@@QAEXXZ		; CPythonSystem::ApplyConfig
PUBLIC	?SetConfig@CPythonSystem@@QAEXPAUSConfig@1@@Z	; CPythonSystem::SetConfig
PUBLIC	?GetConfig@CPythonSystem@@QAEPAUSConfig@1@XZ	; CPythonSystem::GetConfig
PUBLIC	?ChangeSystem@CPythonSystem@@QAEXXZ		; CPythonSystem::ChangeSystem
PUBLIC	?LoadInterfaceStatus@CPythonSystem@@QAE_NXZ	; CPythonSystem::LoadInterfaceStatus
PUBLIC	?SaveInterfaceStatus@CPythonSystem@@QAEXXZ	; CPythonSystem::SaveInterfaceStatus
PUBLIC	?isInterfaceConfig@CPythonSystem@@QAE_NXZ	; CPythonSystem::isInterfaceConfig
PUBLIC	?GetWindowStatusReference@CPythonSystem@@QAEABUSWindowStatus@1@H@Z ; CPythonSystem::GetWindowStatusReference
PUBLIC	?GetWidth@CPythonSystem@@QAEKXZ			; CPythonSystem::GetWidth
PUBLIC	?GetHeight@CPythonSystem@@QAEKXZ		; CPythonSystem::GetHeight
PUBLIC	?GetBPP@CPythonSystem@@QAEKXZ			; CPythonSystem::GetBPP
PUBLIC	?GetFrequency@CPythonSystem@@QAEKXZ		; CPythonSystem::GetFrequency
PUBLIC	?IsSoftwareCursor@CPythonSystem@@QAE_NXZ	; CPythonSystem::IsSoftwareCursor
PUBLIC	?IsWindowed@CPythonSystem@@QAE_NXZ		; CPythonSystem::IsWindowed
PUBLIC	?IsViewChat@CPythonSystem@@QAE_NXZ		; CPythonSystem::IsViewChat
PUBLIC	?IsAlwaysShowName@CPythonSystem@@QAE_NXZ	; CPythonSystem::IsAlwaysShowName
PUBLIC	?IsShowDamage@CPythonSystem@@QAE_NXZ		; CPythonSystem::IsShowDamage
PUBLIC	?IsShowSalesText@CPythonSystem@@QAE_NXZ		; CPythonSystem::IsShowSalesText
PUBLIC	?IsUseDefaultIME@CPythonSystem@@QAE_NXZ		; CPythonSystem::IsUseDefaultIME
PUBLIC	?IsNoSoundCard@CPythonSystem@@QAE_NXZ		; CPythonSystem::IsNoSoundCard
PUBLIC	?IsAutoTiling@CPythonSystem@@QAE_NXZ		; CPythonSystem::IsAutoTiling
PUBLIC	?IsSoftwareTiling@CPythonSystem@@QAE_NXZ	; CPythonSystem::IsSoftwareTiling
PUBLIC	?SetSoftwareTiling@CPythonSystem@@QAEX_N@Z	; CPythonSystem::SetSoftwareTiling
PUBLIC	?SetViewChatFlag@CPythonSystem@@QAEXH@Z		; CPythonSystem::SetViewChatFlag
PUBLIC	?SetAlwaysShowNameFlag@CPythonSystem@@QAEXH@Z	; CPythonSystem::SetAlwaysShowNameFlag
PUBLIC	?SetShowDamageFlag@CPythonSystem@@QAEXH@Z	; CPythonSystem::SetShowDamageFlag
PUBLIC	?SetShowSalesTextFlag@CPythonSystem@@QAEXH@Z	; CPythonSystem::SetShowSalesTextFlag
PUBLIC	?SaveWindowStatus@CPythonSystem@@QAEXHHHHHH@Z	; CPythonSystem::SaveWindowStatus
PUBLIC	?IsSaveID@CPythonSystem@@QAEHXZ			; CPythonSystem::IsSaveID
PUBLIC	?GetSaveID@CPythonSystem@@QAEPBDXZ		; CPythonSystem::GetSaveID
PUBLIC	?SetSaveID@CPythonSystem@@QAEXHPBD@Z		; CPythonSystem::SetSaveID
PUBLIC	?GetDisplaySettings@CPythonSystem@@QAEXXZ	; CPythonSystem::GetDisplaySettings
PUBLIC	?GetResolutionCount@CPythonSystem@@QAEHXZ	; CPythonSystem::GetResolutionCount
PUBLIC	?GetFrequencyCount@CPythonSystem@@QAEHH@Z	; CPythonSystem::GetFrequencyCount
PUBLIC	?GetResolution@CPythonSystem@@QAE_NHPAK00@Z	; CPythonSystem::GetResolution
PUBLIC	?GetFrequency@CPythonSystem@@QAE_NHHPAK@Z	; CPythonSystem::GetFrequency
PUBLIC	?GetResolutionIndex@CPythonSystem@@QAEHKKK@Z	; CPythonSystem::GetResolutionIndex
PUBLIC	?GetFrequencyIndex@CPythonSystem@@QAEHHK@Z	; CPythonSystem::GetFrequencyIndex
PUBLIC	?isViewCulling@CPythonSystem@@QAE_NXZ		; CPythonSystem::isViewCulling
PUBLIC	?GetMusicVolume@CPythonSystem@@QAEMXZ		; CPythonSystem::GetMusicVolume
PUBLIC	?GetSoundVolume@CPythonSystem@@QAEHXZ		; CPythonSystem::GetSoundVolume
PUBLIC	?SetMusicVolume@CPythonSystem@@QAEXM@Z		; CPythonSystem::SetMusicVolume
PUBLIC	?SetSoundVolumef@CPythonSystem@@QAEXM@Z		; CPythonSystem::SetSoundVolumef
PUBLIC	?GetDistance@CPythonSystem@@QAEHXZ		; CPythonSystem::GetDistance
PUBLIC	?GetShadowLevel@CPythonSystem@@QAEHXZ		; CPythonSystem::GetShadowLevel
PUBLIC	?SetShadowLevel@CPythonSystem@@QAEXI@Z		; CPythonSystem::SetShadowLevel
PUBLIC	??_GCPythonSystem@@UAEPAXI@Z			; CPythonSystem::`scalar deleting destructor'
PUBLIC	??1?$CDynamicPoolEx@VCRotationDecorator@NEffectUpdateDecorator@@@@UAE@XZ ; CDynamicPoolEx<NEffectUpdateDecorator::CRotationDecorator>::~CDynamicPoolEx<NEffectUpdateDecorator::CRotationDecorator>
PUBLIC	?Delete@?$CDynamicPoolEx@VCRotationDecorator@NEffectUpdateDecorator@@@@KAXPAVCRotationDecorator@NEffectUpdateDecorator@@@Z ; CDynamicPoolEx<NEffectUpdateDecorator::CRotationDecorator>::Delete
PUBLIC	??1?$CDynamicPoolEx@VCGravityDecorator@NEffectUpdateDecorator@@@@UAE@XZ ; CDynamicPoolEx<NEffectUpdateDecorator::CGravityDecorator>::~CDynamicPoolEx<NEffectUpdateDecorator::CGravityDecorator>
PUBLIC	?Delete@?$CDynamicPoolEx@VCGravityDecorator@NEffectUpdateDecorator@@@@KAXPAVCGravityDecorator@NEffectUpdateDecorator@@@Z ; CDynamicPoolEx<NEffectUpdateDecorator::CGravityDecorator>::Delete
PUBLIC	??1?$CDynamicPoolEx@VCAirResistanceDecorator@NEffectUpdateDecorator@@@@UAE@XZ ; CDynamicPoolEx<NEffectUpdateDecorator::CAirResistanceDecorator>::~CDynamicPoolEx<NEffectUpdateDecorator::CAirResistanceDecorator>
PUBLIC	?Delete@?$CDynamicPoolEx@VCAirResistanceDecorator@NEffectUpdateDecorator@@@@KAXPAVCAirResistanceDecorator@NEffectUpdateDecorator@@@Z ; CDynamicPoolEx<NEffectUpdateDecorator::CAirResistanceDecorator>::Delete
PUBLIC	??1?$CDynamicPoolEx@VCTextureAnimationRandomDecorator@NEffectUpdateDecorator@@@@UAE@XZ ; CDynamicPoolEx<NEffectUpdateDecorator::CTextureAnimationRandomDecorator>::~CDynamicPoolEx<NEffectUpdateDecorator::CTextureAnimationRandomDecorator>
PUBLIC	?Delete@?$CDynamicPoolEx@VCTextureAnimationRandomDecorator@NEffectUpdateDecorator@@@@KAXPAVCTextureAnimationRandomDecorator@NEffectUpdateDecorator@@@Z ; CDynamicPoolEx<NEffectUpdateDecorator::CTextureAnimationRandomDecorator>::Delete
PUBLIC	??1?$CDynamicPoolEx@VCTextureAnimationCCWDecorator@NEffectUpdateDecorator@@@@UAE@XZ ; CDynamicPoolEx<NEffectUpdateDecorator::CTextureAnimationCCWDecorator>::~CDynamicPoolEx<NEffectUpdateDecorator::CTextureAnimationCCWDecorator>
PUBLIC	?Delete@?$CDynamicPoolEx@VCTextureAnimationCCWDecorator@NEffectUpdateDecorator@@@@KAXPAVCTextureAnimationCCWDecorator@NEffectUpdateDecorator@@@Z ; CDynamicPoolEx<NEffectUpdateDecorator::CTextureAnimationCCWDecorator>::Delete
PUBLIC	??1?$CDynamicPoolEx@VCTextureAnimationCWDecorator@NEffectUpdateDecorator@@@@UAE@XZ ; CDynamicPoolEx<NEffectUpdateDecorator::CTextureAnimationCWDecorator>::~CDynamicPoolEx<NEffectUpdateDecorator::CTextureAnimationCWDecorator>
PUBLIC	?Delete@?$CDynamicPoolEx@VCTextureAnimationCWDecorator@NEffectUpdateDecorator@@@@KAXPAVCTextureAnimationCWDecorator@NEffectUpdateDecorator@@@Z ; CDynamicPoolEx<NEffectUpdateDecorator::CTextureAnimationCWDecorator>::Delete
PUBLIC	??1?$CDynamicPoolEx@VCNullDecorator@NEffectUpdateDecorator@@@@UAE@XZ ; CDynamicPoolEx<NEffectUpdateDecorator::CNullDecorator>::~CDynamicPoolEx<NEffectUpdateDecorator::CNullDecorator>
PUBLIC	?Delete@?$CDynamicPoolEx@VCNullDecorator@NEffectUpdateDecorator@@@@KAXPAVCNullDecorator@NEffectUpdateDecorator@@@Z ; CDynamicPoolEx<NEffectUpdateDecorator::CNullDecorator>::Delete
PUBLIC	??1?$CDynamicPoolEx@VCHeaderDecorator@NEffectUpdateDecorator@@@@UAE@XZ ; CDynamicPoolEx<NEffectUpdateDecorator::CHeaderDecorator>::~CDynamicPoolEx<NEffectUpdateDecorator::CHeaderDecorator>
PUBLIC	?Delete@?$CDynamicPoolEx@VCHeaderDecorator@NEffectUpdateDecorator@@@@KAXPAVCHeaderDecorator@NEffectUpdateDecorator@@@Z ; CDynamicPoolEx<NEffectUpdateDecorator::CHeaderDecorator>::Delete
PUBLIC	??$_Destroy_range@V?$allocator@PAVCHeaderDecorator@NEffectUpdateDecorator@@@std@@@std@@YAXPAPAVCHeaderDecorator@NEffectUpdateDecorator@@QAPAV12@AAV?$allocator@PAVCHeaderDecorator@NEffectUpdateDecorator@@@0@@Z ; std::_Destroy_range<std::allocator<NEffectUpdateDecorator::CHeaderDecorator *> >
PUBLIC	??$_Destroy_range@V?$allocator@PAVCNullDecorator@NEffectUpdateDecorator@@@std@@@std@@YAXPAPAVCNullDecorator@NEffectUpdateDecorator@@QAPAV12@AAV?$allocator@PAVCNullDecorator@NEffectUpdateDecorator@@@0@@Z ; std::_Destroy_range<std::allocator<NEffectUpdateDecorator::CNullDecorator *> >
PUBLIC	??$_Destroy_range@V?$allocator@PAVCTextureAnimationCWDecorator@NEffectUpdateDecorator@@@std@@@std@@YAXPAPAVCTextureAnimationCWDecorator@NEffectUpdateDecorator@@QAPAV12@AAV?$allocator@PAVCTextureAnimationCWDecorator@NEffectUpdateDecorator@@@0@@Z ; std::_Destroy_range<std::allocator<NEffectUpdateDecorator::CTextureAnimationCWDecorator *> >
PUBLIC	??$_Destroy_range@V?$allocator@PAVCTextureAnimationCCWDecorator@NEffectUpdateDecorator@@@std@@@std@@YAXPAPAVCTextureAnimationCCWDecorator@NEffectUpdateDecorator@@QAPAV12@AAV?$allocator@PAVCTextureAnimationCCWDecorator@NEffectUpdateDecorator@@@0@@Z ; std::_Destroy_range<std::allocator<NEffectUpdateDecorator::CTextureAnimationCCWDecorator *> >
PUBLIC	??$_Destroy_range@V?$allocator@PAVCTextureAnimationRandomDecorator@NEffectUpdateDecorator@@@std@@@std@@YAXPAPAVCTextureAnimationRandomDecorator@NEffectUpdateDecorator@@QAPAV12@AAV?$allocator@PAVCTextureAnimationRandomDecorator@NEffectUpdateDecorator@@@0@@Z ; std::_Destroy_range<std::allocator<NEffectUpdateDecorator::CTextureAnimationRandomDecorator *> >
PUBLIC	??$_Destroy_range@V?$allocator@PAVCAirResistanceDecorator@NEffectUpdateDecorator@@@std@@@std@@YAXPAPAVCAirResistanceDecorator@NEffectUpdateDecorator@@QAPAV12@AAV?$allocator@PAVCAirResistanceDecorator@NEffectUpdateDecorator@@@0@@Z ; std::_Destroy_range<std::allocator<NEffectUpdateDecorator::CAirResistanceDecorator *> >
PUBLIC	??$_Destroy_range@V?$allocator@PAVCGravityDecorator@NEffectUpdateDecorator@@@std@@@std@@YAXPAPAVCGravityDecorator@NEffectUpdateDecorator@@QAPAV12@AAV?$allocator@PAVCGravityDecorator@NEffectUpdateDecorator@@@0@@Z ; std::_Destroy_range<std::allocator<NEffectUpdateDecorator::CGravityDecorator *> >
PUBLIC	??$_Destroy_range@V?$allocator@PAVCRotationDecorator@NEffectUpdateDecorator@@@std@@@std@@YAXPAPAVCRotationDecorator@NEffectUpdateDecorator@@QAPAV12@AAV?$allocator@PAVCRotationDecorator@NEffectUpdateDecorator@@@0@@Z ; std::_Destroy_range<std::allocator<NEffectUpdateDecorator::CRotationDecorator *> >
PUBLIC	?_OptionsStorage@?1??__local_stdio_printf_options@@9@4_KA ; `__local_stdio_printf_options'::`2'::_OptionsStorage
PUBLIC	?_OptionsStorage@?1??__local_stdio_scanf_options@@9@4_KA ; `__local_stdio_scanf_options'::`2'::_OptionsStorage
PUBLIC	?ms_singleton@?$CSingleton@VCPythonGraphic@@@@0PAVCPythonGraphic@@A ; CSingleton<CPythonGraphic>::ms_singleton
PUBLIC	?ms_singleton@?$CSingleton@VCSoundManager@@@@0PAVCSoundManager@@A ; CSingleton<CSoundManager>::ms_singleton
PUBLIC	?ms_singleton@?$CSingleton@VCPythonSystem@@@@0PAVCPythonSystem@@A ; CSingleton<CPythonSystem>::ms_singleton
PUBLIC	??_7?$CSingleton@VCPythonSystem@@@@6B@		; CSingleton<CPythonSystem>::`vftable'
PUBLIC	??_7CPythonSystem@@6B@				; CPythonSystem::`vftable'
PUBLIC	?ms_kPool@?$CPooledObject@VCHeaderDecorator@NEffectUpdateDecorator@@@@1V?$CDynamicPoolEx@VCHeaderDecorator@NEffectUpdateDecorator@@@@A ; CPooledObject<NEffectUpdateDecorator::CHeaderDecorator>::ms_kPool
PUBLIC	?ms_kPool@?$CPooledObject@VCNullDecorator@NEffectUpdateDecorator@@@@1V?$CDynamicPoolEx@VCNullDecorator@NEffectUpdateDecorator@@@@A ; CPooledObject<NEffectUpdateDecorator::CNullDecorator>::ms_kPool
PUBLIC	?ms_kPool@?$CPooledObject@VCTextureAnimationCWDecorator@NEffectUpdateDecorator@@@@1V?$CDynamicPoolEx@VCTextureAnimationCWDecorator@NEffectUpdateDecorator@@@@A ; CPooledObject<NEffectUpdateDecorator::CTextureAnimationCWDecorator>::ms_kPool
PUBLIC	?ms_kPool@?$CPooledObject@VCTextureAnimationCCWDecorator@NEffectUpdateDecorator@@@@1V?$CDynamicPoolEx@VCTextureAnimationCCWDecorator@NEffectUpdateDecorator@@@@A ; CPooledObject<NEffectUpdateDecorator::CTextureAnimationCCWDecorator>::ms_kPool
PUBLIC	?ms_kPool@?$CPooledObject@VCTextureAnimationRandomDecorator@NEffectUpdateDecorator@@@@1V?$CDynamicPoolEx@VCTextureAnimationRandomDecorator@NEffectUpdateDecorator@@@@A ; CPooledObject<NEffectUpdateDecorator::CTextureAnimationRandomDecorator>::ms_kPool
PUBLIC	?ms_kPool@?$CPooledObject@VCAirResistanceDecorator@NEffectUpdateDecorator@@@@1V?$CDynamicPoolEx@VCAirResistanceDecorator@NEffectUpdateDecorator@@@@A ; CPooledObject<NEffectUpdateDecorator::CAirResistanceDecorator>::ms_kPool
PUBLIC	?ms_kPool@?$CPooledObject@VCGravityDecorator@NEffectUpdateDecorator@@@@1V?$CDynamicPoolEx@VCGravityDecorator@NEffectUpdateDecorator@@@@A ; CPooledObject<NEffectUpdateDecorator::CGravityDecorator>::ms_kPool
PUBLIC	?ms_kPool@?$CPooledObject@VCRotationDecorator@NEffectUpdateDecorator@@@@1V?$CDynamicPoolEx@VCRotationDecorator@NEffectUpdateDecorator@@@@A ; CPooledObject<NEffectUpdateDecorator::CRotationDecorator>::ms_kPool
PUBLIC	??_C@_01EEMJAFIK@?6@				; `string'
PUBLIC	?ms_singleton@?$CSingleton@VCPythonBackground@@@@0PAVCPythonBackground@@A ; CSingleton<CPythonBackground>::ms_singleton
PUBLIC	??_C@_02BMJICGCB@rt@				; `string'
PUBLIC	??_C@_0L@PJKCGBDF@metin2?4cfg@			; `string'
PUBLIC	??_C@_07IJONGFBP@?5?$CFs?5?$CFs?6@		; `string'
PUBLIC	??_C@_05ENDGNACA@WIDTH@				; `string'
PUBLIC	??_C@_06LJJMJONE@HEIGHT@			; `string'
PUBLIC	??_C@_03DJKBMDLB@BPP@				; `string'
PUBLIC	??_C@_09JJJEBDOD@FREQUENCY@			; `string'
PUBLIC	??_C@_0BA@KHKJCKOL@SOFTWARE_CURSOR@		; `string'
PUBLIC	??_C@_0P@HLGCIFEM@OBJECT_CULLING@		; `string'
PUBLIC	??_C@_0L@JLMBCMBB@VISIBILITY@			; `string'
PUBLIC	??_C@_0N@GMIPKHGM@MUSIC_VOLUME@			; `string'
PUBLIC	??_C@_0N@PBAPMOIE@VOICE_VOLUME@			; `string'
PUBLIC	??_C@_05MBKNPFEG@GAMMA@				; `string'
PUBLIC	??_C@_0L@MNJEEPBE@IS_SAVE_ID@			; `string'
PUBLIC	??_C@_07JBPMLFBH@SAVE_ID@			; `string'
PUBLIC	??_C@_0BH@DLIOKMKH@PRE_LOADING_DELAY_TIME@	; `string'
PUBLIC	??_C@_08NHNHGFNP@WINDOWED@			; `string'
PUBLIC	??_C@_0BA@LLBGEPPK@USE_DEFAULT_IME@		; `string'
PUBLIC	??_C@_0BA@KHMHFIHA@SOFTWARE_TILING@		; `string'
PUBLIC	??_C@_0N@FFBEOPBM@SHADOW_LEVEL@			; `string'
PUBLIC	??_C@_0BF@BGGNMKON@DECOMPRESSED_TEXTURE@	; `string'
PUBLIC	??_C@_0O@HAABBABC@NO_SOUND_CARD@		; `string'
PUBLIC	??_C@_09EOOFFIKE@VIEW_CHAT@			; `string'
PUBLIC	??_C@_0BB@PPFHKIN@ALWAYS_VIEW_NAME@		; `string'
PUBLIC	??_C@_0M@FJJANDDI@SHOW_DAMAGE@			; `string'
PUBLIC	??_C@_0P@FIIALOBN@SHOW_SALESTEXT@		; `string'
PUBLIC	??_C@_02BKFDOEMK@wt@				; `string'
PUBLIC	??_C@_0BAC@DOGJKKLN@WIDTH?7?7?7?7?7?7?$CFd?6HEIGHT?7?7?7?7?7?7?$CFd?6BP@ ; `string'
PUBLIC	??_C@_0BA@HPBHGBH@WINDOWED?7?7?7?7?$CFd?6@	; `string'
PUBLIC	??_C@_0BB@EKNDKDHN@VIEW_CHAT?7?7?7?7?$CFd?6@	; `string'
PUBLIC	??_C@_0BG@HBKBHOOM@ALWAYS_VIEW_NAME?7?7?$CFd?6@	; `string'
PUBLIC	??_C@_0BB@DLBIFMBO@SHOW_DAMAGE?7?7?$CFd?6@	; `string'
PUBLIC	??_C@_0BE@POEIEBIF@SHOW_SALESTEXT?7?7?$CFd?6@	; `string'
PUBLIC	??_C@_0BF@NGKLEPOF@USE_DEFAULT_IME?7?7?$CFd?6@	; `string'
PUBLIC	??_C@_0BF@IKAPIKKK@SOFTWARE_TILING?7?7?$CFd?6@	; `string'
PUBLIC	??_C@_0BD@PGMGBMGN@SHADOW_LEVEL?7?7?7?$CFd?6@	; `string'
PUBLIC	??_C@_02JDPG@rb@				; `string'
PUBLIC	??_C@_0O@OMHCOGAL@interface?4cfg@		; `string'
PUBLIC	??_C@_02HCKGKOFO@?$CI?$CJ@			; `string'
PUBLIC	??_C@_0BG@OMGMEENH@OnSaveInterfaceStatus@	; `string'
PUBLIC	??_C@_02GMLFBBN@wb@				; `string'
PUBLIC	??_C@_0BK@BDPDEBGA@Cannot?5open?5interface?4cfg@ ; `string'
PUBLIC	??_R4CPythonSystem@@6B@				; CPythonSystem::`RTTI Complete Object Locator'
PUBLIC	??_R0?AVCPythonSystem@@@8			; CPythonSystem `RTTI Type Descriptor'
PUBLIC	??_R3CPythonSystem@@8				; CPythonSystem::`RTTI Class Hierarchy Descriptor'
PUBLIC	??_R2CPythonSystem@@8				; CPythonSystem::`RTTI Base Class Array'
PUBLIC	??_R1A@?0A@EA@CPythonSystem@@8			; CPythonSystem::`RTTI Base Class Descriptor at (0,-1,0,64)'
PUBLIC	??_R1A@?0A@EA@?$CSingleton@VCPythonSystem@@@@8	; CSingleton<CPythonSystem>::`RTTI Base Class Descriptor at (0,-1,0,64)'
PUBLIC	??_R0?AV?$CSingleton@VCPythonSystem@@@@@8	; CSingleton<CPythonSystem> `RTTI Type Descriptor'
PUBLIC	??_R3?$CSingleton@VCPythonSystem@@@@8		; CSingleton<CPythonSystem>::`RTTI Class Hierarchy Descriptor'
PUBLIC	??_R2?$CSingleton@VCPythonSystem@@@@8		; CSingleton<CPythonSystem>::`RTTI Base Class Array'
PUBLIC	??_R4?$CSingleton@VCPythonSystem@@@@6B@		; CSingleton<CPythonSystem>::`RTTI Complete Object Locator'
PUBLIC	__real@3ecccccd
PUBLIC	__real@3f333333
PUBLIC	__real@3f800000
PUBLIC	__real@3f99999a
PUBLIC	__real@3fb33333
PUBLIC	__real@4024000000000000
PUBLIC	__real@40a00000
EXTRN	??3@YAXPAX@Z:PROC				; operator delete
EXTRN	??3@YAXPAXI@Z:PROC				; operator delete
EXTRN	_atexit:PROC
EXTRN	__invalid_parameter_noinfo_noreturn:PROC
EXTRN	_atof:PROC
EXTRN	__atoi64:PROC
EXTRN	_strchr:PROC
EXTRN	__stricmp:PROC
EXTRN	_strncpy:PROC
EXTRN	__imp__GetSystemMetrics@4:PROC
EXTRN	_fclose:PROC
EXTRN	_fgets:PROC
EXTRN	_fopen:PROC
EXTRN	_fread:PROC
EXTRN	_fwrite:PROC
EXTRN	___stdio_common_vfprintf:PROC
EXTRN	___stdio_common_vsscanf:PROC
EXTRN	?TraceError@@YAXPBDZZ:PROC			; TraceError
EXTRN	?MIN@@YAHHH@Z:PROC				; MIN
EXTRN	__imp__Py_BuildValue:PROC
EXTRN	?PyCallClassMemberFunc@@YA_NPAU_object@@PBD0@Z:PROC ; PyCallClassMemberFunc
EXTRN	?GetD3D@CPythonGraphic@@QAEPAUIDirect3D8@@XZ:PROC ; CPythonGraphic::GetD3D
EXTRN	?SetGamma@CPythonGraphic@@QAEXM@Z:PROC		; CPythonGraphic::SetGamma
EXTRN	?SetMusicVolume@CSoundManager@@QAEXM@Z:PROC	; CSoundManager::SetMusicVolume
EXTRN	?SetSoundVolumeGrade@CSoundManager@@QAEXH@Z:PROC ; CSoundManager::SetSoundVolumeGrade
EXTRN	??_E?$CSingleton@VCPythonSystem@@@@UAEPAXI@Z:PROC ; CSingleton<CPythonSystem>::`vector deleting destructor'
EXTRN	??_ECPythonSystem@@UAEPAXI@Z:PROC		; CPythonSystem::`vector deleting destructor'
EXTRN	?RefreshShadowLevel@CPythonBackground@@QAEXXZ:PROC ; CPythonBackground::RefreshShadowLevel
EXTRN	?SetCursorMode@CPythonApplication@@QAEXH@Z:PROC	; CPythonApplication::SetCursorMode
EXTRN	@__security_check_cookie@4:PROC
EXTRN	___CxxFrameHandler3:PROC
EXTRN	__libm_sse2_pow_precise:PROC
EXTRN	__ltod3:PROC
EXTRN	_memset:PROC
EXTRN	?g_iLoadingDelayTime@@3HA:DWORD			; g_iLoadingDelayTime
EXTRN	?ms_pInstance@CPythonApplication@@1PAV1@A:DWORD	; CPythonApplication::ms_pInstance
EXTRN	___security_cookie:DWORD
EXTRN	__fltused:DWORD
;	COMDAT ?_OptionsStorage@?1??__local_stdio_printf_options@@9@4_KA
_BSS	SEGMENT
?_OptionsStorage@?1??__local_stdio_printf_options@@9@4_KA DQ 01H DUP (?) ; `__local_stdio_printf_options'::`2'::_OptionsStorage
_BSS	ENDS
;	COMDAT ?_OptionsStorage@?1??__local_stdio_scanf_options@@9@4_KA
_BSS	SEGMENT
?_OptionsStorage@?1??__local_stdio_scanf_options@@9@4_KA DQ 01H DUP (?) ; `__local_stdio_scanf_options'::`2'::_OptionsStorage
_BSS	ENDS
;	COMDAT ?ms_singleton@?$CSingleton@VCPythonGraphic@@@@0PAVCPythonGraphic@@A
_BSS	SEGMENT
?ms_singleton@?$CSingleton@VCPythonGraphic@@@@0PAVCPythonGraphic@@A DD 01H DUP (?) ; CSingleton<CPythonGraphic>::ms_singleton
_BSS	ENDS
;	COMDAT ?ms_singleton@?$CSingleton@VCSoundManager@@@@0PAVCSoundManager@@A
_BSS	SEGMENT
?ms_singleton@?$CSingleton@VCSoundManager@@@@0PAVCSoundManager@@A DD 01H DUP (?) ; CSingleton<CSoundManager>::ms_singleton
_BSS	ENDS
;	COMDAT ?ms_singleton@?$CSingleton@VCPythonSystem@@@@0PAVCPythonSystem@@A
_BSS	SEGMENT
?ms_singleton@?$CSingleton@VCPythonSystem@@@@0PAVCPythonSystem@@A DD 01H DUP (?) ; CSingleton<CPythonSystem>::ms_singleton
_BSS	ENDS
;	COMDAT ?ms_singleton@?$CSingleton@VCPythonBackground@@@@0PAVCPythonBackground@@A
_BSS	SEGMENT
?ms_singleton@?$CSingleton@VCPythonBackground@@@@0PAVCPythonBackground@@A DD 01H DUP (?) ; CSingleton<CPythonBackground>::ms_singleton
_BSS	ENDS
;	COMDAT CRT$XCU
CRT$XCU	SEGMENT
??ms_kPool$initializer$@?$CPooledObject@VCHeaderDecorator@NEffectUpdateDecorator@@@@1P6AXXZA@@3P6AXXZA DD FLAT:??__E?ms_kPool@?$CPooledObject@VCHeaderDecorator@NEffectUpdateDecorator@@@@1V?$CDynamicPoolEx@VCHeaderDecorator@NEffectUpdateDecorator@@@@A@@YAXXZ ; ??ms_kPool$initializer$@?$CPooledObject@VCHeaderDecorator@NEffectUpdateDecorator@@@@1P6AXXZA@@3P6AXXZA
CRT$XCU	ENDS
;	COMDAT __real@40a00000
CONST	SEGMENT
__real@40a00000 DD 040a00000r			; 5
CONST	ENDS
;	COMDAT __real@4024000000000000
CONST	SEGMENT
__real@4024000000000000 DQ 04024000000000000r	; 10
CONST	ENDS
;	COMDAT __real@3fb33333
CONST	SEGMENT
__real@3fb33333 DD 03fb33333r			; 1.4
CONST	ENDS
;	COMDAT __real@3f99999a
CONST	SEGMENT
__real@3f99999a DD 03f99999ar			; 1.2
CONST	ENDS
;	COMDAT __real@3f800000
CONST	SEGMENT
__real@3f800000 DD 03f800000r			; 1
CONST	ENDS
;	COMDAT __real@3f333333
CONST	SEGMENT
__real@3f333333 DD 03f333333r			; 0.7
CONST	ENDS
;	COMDAT __real@3ecccccd
CONST	SEGMENT
__real@3ecccccd DD 03ecccccdr			; 0.4
CONST	ENDS
;	COMDAT ??_R4?$CSingleton@VCPythonSystem@@@@6B@
rdata$r	SEGMENT
??_R4?$CSingleton@VCPythonSystem@@@@6B@ DD 00H		; CSingleton<CPythonSystem>::`RTTI Complete Object Locator'
	DD	00H
	DD	00H
	DD	FLAT:??_R0?AV?$CSingleton@VCPythonSystem@@@@@8
	DD	FLAT:??_R3?$CSingleton@VCPythonSystem@@@@8
rdata$r	ENDS
;	COMDAT ??_R2?$CSingleton@VCPythonSystem@@@@8
rdata$r	SEGMENT
??_R2?$CSingleton@VCPythonSystem@@@@8 DD FLAT:??_R1A@?0A@EA@?$CSingleton@VCPythonSystem@@@@8 ; CSingleton<CPythonSystem>::`RTTI Base Class Array'
rdata$r	ENDS
;	COMDAT ??_R3?$CSingleton@VCPythonSystem@@@@8
rdata$r	SEGMENT
??_R3?$CSingleton@VCPythonSystem@@@@8 DD 00H		; CSingleton<CPythonSystem>::`RTTI Class Hierarchy Descriptor'
	DD	00H
	DD	01H
	DD	FLAT:??_R2?$CSingleton@VCPythonSystem@@@@8
rdata$r	ENDS
;	COMDAT ??_R0?AV?$CSingleton@VCPythonSystem@@@@@8
data$rs	SEGMENT
??_R0?AV?$CSingleton@VCPythonSystem@@@@@8 DD FLAT:??_7type_info@@6B@ ; CSingleton<CPythonSystem> `RTTI Type Descriptor'
	DD	00H
	DB	'.?AV?$CSingleton@VCPythonSystem@@@@', 00H
data$rs	ENDS
;	COMDAT ??_R1A@?0A@EA@?$CSingleton@VCPythonSystem@@@@8
rdata$r	SEGMENT
??_R1A@?0A@EA@?$CSingleton@VCPythonSystem@@@@8 DD FLAT:??_R0?AV?$CSingleton@VCPythonSystem@@@@@8 ; CSingleton<CPythonSystem>::`RTTI Base Class Descriptor at (0,-1,0,64)'
	DD	00H
	DD	00H
	DD	0ffffffffH
	DD	00H
	DD	040H
	DD	FLAT:??_R3?$CSingleton@VCPythonSystem@@@@8
rdata$r	ENDS
;	COMDAT ??_R1A@?0A@EA@CPythonSystem@@8
rdata$r	SEGMENT
??_R1A@?0A@EA@CPythonSystem@@8 DD FLAT:??_R0?AVCPythonSystem@@@8 ; CPythonSystem::`RTTI Base Class Descriptor at (0,-1,0,64)'
	DD	01H
	DD	00H
	DD	0ffffffffH
	DD	00H
	DD	040H
	DD	FLAT:??_R3CPythonSystem@@8
rdata$r	ENDS
;	COMDAT ??_R2CPythonSystem@@8
rdata$r	SEGMENT
??_R2CPythonSystem@@8 DD FLAT:??_R1A@?0A@EA@CPythonSystem@@8 ; CPythonSystem::`RTTI Base Class Array'
	DD	FLAT:??_R1A@?0A@EA@?$CSingleton@VCPythonSystem@@@@8
rdata$r	ENDS
;	COMDAT ??_R3CPythonSystem@@8
rdata$r	SEGMENT
??_R3CPythonSystem@@8 DD 00H				; CPythonSystem::`RTTI Class Hierarchy Descriptor'
	DD	00H
	DD	02H
	DD	FLAT:??_R2CPythonSystem@@8
rdata$r	ENDS
;	COMDAT ??_R0?AVCPythonSystem@@@8
data$rs	SEGMENT
??_R0?AVCPythonSystem@@@8 DD FLAT:??_7type_info@@6B@	; CPythonSystem `RTTI Type Descriptor'
	DD	00H
	DB	'.?AVCPythonSystem@@', 00H
data$rs	ENDS
;	COMDAT ??_R4CPythonSystem@@6B@
rdata$r	SEGMENT
??_R4CPythonSystem@@6B@ DD 00H				; CPythonSystem::`RTTI Complete Object Locator'
	DD	00H
	DD	00H
	DD	FLAT:??_R0?AVCPythonSystem@@@8
	DD	FLAT:??_R3CPythonSystem@@8
rdata$r	ENDS
;	COMDAT ??_C@_0BK@BDPDEBGA@Cannot?5open?5interface?4cfg@
CONST	SEGMENT
??_C@_0BK@BDPDEBGA@Cannot?5open?5interface?4cfg@ DB 'Cannot open interfac'
	DB	'e.cfg', 00H					; `string'
CONST	ENDS
;	COMDAT ??_C@_02GMLFBBN@wb@
CONST	SEGMENT
??_C@_02GMLFBBN@wb@ DB 'wb', 00H			; `string'
CONST	ENDS
;	COMDAT ??_C@_0BG@OMGMEENH@OnSaveInterfaceStatus@
CONST	SEGMENT
??_C@_0BG@OMGMEENH@OnSaveInterfaceStatus@ DB 'OnSaveInterfaceStatus', 00H ; `string'
CONST	ENDS
;	COMDAT ??_C@_02HCKGKOFO@?$CI?$CJ@
CONST	SEGMENT
??_C@_02HCKGKOFO@?$CI?$CJ@ DB '()', 00H			; `string'
CONST	ENDS
;	COMDAT ??_C@_0O@OMHCOGAL@interface?4cfg@
CONST	SEGMENT
??_C@_0O@OMHCOGAL@interface?4cfg@ DB 'interface.cfg', 00H ; `string'
CONST	ENDS
;	COMDAT ??_C@_02JDPG@rb@
CONST	SEGMENT
??_C@_02JDPG@rb@ DB 'rb', 00H				; `string'
CONST	ENDS
;	COMDAT ??_C@_0BD@PGMGBMGN@SHADOW_LEVEL?7?7?7?$CFd?6@
CONST	SEGMENT
??_C@_0BD@PGMGBMGN@SHADOW_LEVEL?7?7?7?$CFd?6@ DB 'SHADOW_LEVEL', 09H, 09H
	DB	09H, '%d', 0aH, 00H				; `string'
CONST	ENDS
;	COMDAT ??_C@_0BF@IKAPIKKK@SOFTWARE_TILING?7?7?$CFd?6@
CONST	SEGMENT
??_C@_0BF@IKAPIKKK@SOFTWARE_TILING?7?7?$CFd?6@ DB 'SOFTWARE_TILING', 09H, 09H
	DB	'%d', 0aH, 00H				; `string'
CONST	ENDS
;	COMDAT ??_C@_0BF@NGKLEPOF@USE_DEFAULT_IME?7?7?$CFd?6@
CONST	SEGMENT
??_C@_0BF@NGKLEPOF@USE_DEFAULT_IME?7?7?$CFd?6@ DB 'USE_DEFAULT_IME', 09H, 09H
	DB	'%d', 0aH, 00H				; `string'
CONST	ENDS
;	COMDAT ??_C@_0BE@POEIEBIF@SHOW_SALESTEXT?7?7?$CFd?6@
CONST	SEGMENT
??_C@_0BE@POEIEBIF@SHOW_SALESTEXT?7?7?$CFd?6@ DB 'SHOW_SALESTEXT', 09H, 09H
	DB	'%d', 0aH, 00H				; `string'
CONST	ENDS
;	COMDAT ??_C@_0BB@DLBIFMBO@SHOW_DAMAGE?7?7?$CFd?6@
CONST	SEGMENT
??_C@_0BB@DLBIFMBO@SHOW_DAMAGE?7?7?$CFd?6@ DB 'SHOW_DAMAGE', 09H, 09H, '%'
	DB	'd', 0aH, 00H				; `string'
CONST	ENDS
;	COMDAT ??_C@_0BG@HBKBHOOM@ALWAYS_VIEW_NAME?7?7?$CFd?6@
CONST	SEGMENT
??_C@_0BG@HBKBHOOM@ALWAYS_VIEW_NAME?7?7?$CFd?6@ DB 'ALWAYS_VIEW_NAME', 09H
	DB	09H, '%d', 0aH, 00H				; `string'
CONST	ENDS
;	COMDAT ??_C@_0BB@EKNDKDHN@VIEW_CHAT?7?7?7?7?$CFd?6@
CONST	SEGMENT
??_C@_0BB@EKNDKDHN@VIEW_CHAT?7?7?7?7?$CFd?6@ DB 'VIEW_CHAT', 09H, 09H, 09H
	DB	09H, '%d', 0aH, 00H				; `string'
CONST	ENDS
;	COMDAT ??_C@_0BA@HPBHGBH@WINDOWED?7?7?7?7?$CFd?6@
CONST	SEGMENT
??_C@_0BA@HPBHGBH@WINDOWED?7?7?7?7?$CFd?6@ DB 'WINDOWED', 09H, 09H, 09H, 09H
	DB	'%d', 0aH, 00H				; `string'
CONST	ENDS
;	COMDAT ??_C@_0BAC@DOGJKKLN@WIDTH?7?7?7?7?7?7?$CFd?6HEIGHT?7?7?7?7?7?7?$CFd?6BP@
CONST	SEGMENT
??_C@_0BAC@DOGJKKLN@WIDTH?7?7?7?7?7?7?$CFd?6HEIGHT?7?7?7?7?7?7?$CFd?6BP@ DB 'W'
	DB	'IDTH', 09H, 09H, 09H, 09H, 09H, 09H, '%d', 0aH, 'HEIGHT', 09H
	DB	09H, 09H, 09H, 09H, 09H, '%d', 0aH, 'BPP', 09H, 09H, 09H, 09H, 09H
	DB	09H, '%d', 0aH, 'FREQUENCY', 09H, 09H, 09H, 09H, 09H, '%d', 0aH
	DB	'SOFTWARE_CURSOR', 09H, 09H, 09H, '%d', 0aH, 'OBJECT_CULLING', 09H
	DB	09H, 09H, 09H, '%d', 0aH, 'VISIBILITY', 09H, 09H, 09H, 09H, 09H
	DB	'%d', 0aH, 'MUSIC_VOLUME', 09H, 09H, 09H, 09H, '%.3f', 0aH, 'V'
	DB	'OICE_VOLUME', 09H, 09H, 09H, 09H, '%d', 0aH, 'GAMMA', 09H, 09H
	DB	09H, 09H, 09H, 09H, '%d', 0aH, 'IS_SAVE_ID', 09H, 09H, 09H, 09H
	DB	09H, '%d', 0aH, 'SAVE_ID', 09H, 09H, 09H, 09H, 09H, '%s', 0aH, 'P'
	DB	'RE_LOADING_DELAY_TIME', 09H, 09H, '%d', 0aH, 'DECOMPRESSED_TE'
	DB	'XTURE', 09H, 09H, '%d', 0aH, 00H		; `string'
CONST	ENDS
;	COMDAT ??_C@_02BKFDOEMK@wt@
CONST	SEGMENT
??_C@_02BKFDOEMK@wt@ DB 'wt', 00H			; `string'
CONST	ENDS
;	COMDAT ??_C@_0P@FIIALOBN@SHOW_SALESTEXT@
CONST	SEGMENT
??_C@_0P@FIIALOBN@SHOW_SALESTEXT@ DB 'SHOW_SALESTEXT', 00H ; `string'
CONST	ENDS
;	COMDAT ??_C@_0M@FJJANDDI@SHOW_DAMAGE@
CONST	SEGMENT
??_C@_0M@FJJANDDI@SHOW_DAMAGE@ DB 'SHOW_DAMAGE', 00H	; `string'
CONST	ENDS
;	COMDAT ??_C@_0BB@PPFHKIN@ALWAYS_VIEW_NAME@
CONST	SEGMENT
??_C@_0BB@PPFHKIN@ALWAYS_VIEW_NAME@ DB 'ALWAYS_VIEW_NAME', 00H ; `string'
CONST	ENDS
;	COMDAT ??_C@_09EOOFFIKE@VIEW_CHAT@
CONST	SEGMENT
??_C@_09EOOFFIKE@VIEW_CHAT@ DB 'VIEW_CHAT', 00H		; `string'
CONST	ENDS
;	COMDAT ??_C@_0O@HAABBABC@NO_SOUND_CARD@
CONST	SEGMENT
??_C@_0O@HAABBABC@NO_SOUND_CARD@ DB 'NO_SOUND_CARD', 00H ; `string'
CONST	ENDS
;	COMDAT ??_C@_0BF@BGGNMKON@DECOMPRESSED_TEXTURE@
CONST	SEGMENT
??_C@_0BF@BGGNMKON@DECOMPRESSED_TEXTURE@ DB 'DECOMPRESSED_TEXTURE', 00H ; `string'
CONST	ENDS
;	COMDAT ??_C@_0N@FFBEOPBM@SHADOW_LEVEL@
CONST	SEGMENT
??_C@_0N@FFBEOPBM@SHADOW_LEVEL@ DB 'SHADOW_LEVEL', 00H	; `string'
CONST	ENDS
;	COMDAT ??_C@_0BA@KHMHFIHA@SOFTWARE_TILING@
CONST	SEGMENT
??_C@_0BA@KHMHFIHA@SOFTWARE_TILING@ DB 'SOFTWARE_TILING', 00H ; `string'
CONST	ENDS
;	COMDAT ??_C@_0BA@LLBGEPPK@USE_DEFAULT_IME@
CONST	SEGMENT
??_C@_0BA@LLBGEPPK@USE_DEFAULT_IME@ DB 'USE_DEFAULT_IME', 00H ; `string'
CONST	ENDS
;	COMDAT ??_C@_08NHNHGFNP@WINDOWED@
CONST	SEGMENT
??_C@_08NHNHGFNP@WINDOWED@ DB 'WINDOWED', 00H		; `string'
CONST	ENDS
;	COMDAT ??_C@_0BH@DLIOKMKH@PRE_LOADING_DELAY_TIME@
CONST	SEGMENT
??_C@_0BH@DLIOKMKH@PRE_LOADING_DELAY_TIME@ DB 'PRE_LOADING_DELAY_TIME', 00H ; `string'
CONST	ENDS
;	COMDAT ??_C@_07JBPMLFBH@SAVE_ID@
CONST	SEGMENT
??_C@_07JBPMLFBH@SAVE_ID@ DB 'SAVE_ID', 00H		; `string'
CONST	ENDS
;	COMDAT ??_C@_0L@MNJEEPBE@IS_SAVE_ID@
CONST	SEGMENT
??_C@_0L@MNJEEPBE@IS_SAVE_ID@ DB 'IS_SAVE_ID', 00H	; `string'
CONST	ENDS
;	COMDAT ??_C@_05MBKNPFEG@GAMMA@
CONST	SEGMENT
??_C@_05MBKNPFEG@GAMMA@ DB 'GAMMA', 00H			; `string'
CONST	ENDS
;	COMDAT ??_C@_0N@PBAPMOIE@VOICE_VOLUME@
CONST	SEGMENT
??_C@_0N@PBAPMOIE@VOICE_VOLUME@ DB 'VOICE_VOLUME', 00H	; `string'
CONST	ENDS
;	COMDAT ??_C@_0N@GMIPKHGM@MUSIC_VOLUME@
CONST	SEGMENT
??_C@_0N@GMIPKHGM@MUSIC_VOLUME@ DB 'MUSIC_VOLUME', 00H	; `string'
CONST	ENDS
;	COMDAT ??_C@_0L@JLMBCMBB@VISIBILITY@
CONST	SEGMENT
??_C@_0L@JLMBCMBB@VISIBILITY@ DB 'VISIBILITY', 00H	; `string'
CONST	ENDS
;	COMDAT ??_C@_0P@HLGCIFEM@OBJECT_CULLING@
CONST	SEGMENT
??_C@_0P@HLGCIFEM@OBJECT_CULLING@ DB 'OBJECT_CULLING', 00H ; `string'
CONST	ENDS
;	COMDAT ??_C@_0BA@KHKJCKOL@SOFTWARE_CURSOR@
CONST	SEGMENT
??_C@_0BA@KHKJCKOL@SOFTWARE_CURSOR@ DB 'SOFTWARE_CURSOR', 00H ; `string'
CONST	ENDS
;	COMDAT ??_C@_09JJJEBDOD@FREQUENCY@
CONST	SEGMENT
??_C@_09JJJEBDOD@FREQUENCY@ DB 'FREQUENCY', 00H		; `string'
CONST	ENDS
;	COMDAT ??_C@_03DJKBMDLB@BPP@
CONST	SEGMENT
??_C@_03DJKBMDLB@BPP@ DB 'BPP', 00H			; `string'
CONST	ENDS
;	COMDAT ??_C@_06LJJMJONE@HEIGHT@
CONST	SEGMENT
??_C@_06LJJMJONE@HEIGHT@ DB 'HEIGHT', 00H		; `string'
CONST	ENDS
;	COMDAT ??_C@_05ENDGNACA@WIDTH@
CONST	SEGMENT
??_C@_05ENDGNACA@WIDTH@ DB 'WIDTH', 00H			; `string'
CONST	ENDS
;	COMDAT ??_C@_07IJONGFBP@?5?$CFs?5?$CFs?6@
CONST	SEGMENT
??_C@_07IJONGFBP@?5?$CFs?5?$CFs?6@ DB ' %s %s', 0aH, 00H ; `string'
CONST	ENDS
;	COMDAT ??_C@_0L@PJKCGBDF@metin2?4cfg@
CONST	SEGMENT
??_C@_0L@PJKCGBDF@metin2?4cfg@ DB 'metin2.cfg', 00H	; `string'
CONST	ENDS
;	COMDAT ??_C@_02BMJICGCB@rt@
CONST	SEGMENT
??_C@_02BMJICGCB@rt@ DB 'rt', 00H			; `string'
CONST	ENDS
;	COMDAT ??_C@_01EEMJAFIK@?6@
CONST	SEGMENT
??_C@_01EEMJAFIK@?6@ DB 0aH, 00H			; `string'
CONST	ENDS
;	COMDAT ?ms_kPool@?$CPooledObject@VCRotationDecorator@NEffectUpdateDecorator@@@@1V?$CDynamicPoolEx@VCRotationDecorator@NEffectUpdateDecorator@@@@A
_DATA	SEGMENT
?ms_kPool@?$CPooledObject@VCRotationDecorator@NEffectUpdateDecorator@@@@1V?$CDynamicPoolEx@VCRotationDecorator@NEffectUpdateDecorator@@@@A DD FLAT:??_7?$CDynamicPoolEx@VCRotationDecorator@NEffectUpdateDecorator@@@@6B@ ; CPooledObject<NEffectUpdateDecorator::CRotationDecorator>::ms_kPool
	DD	00H
	DD	00H
	DD	00H
	DD	00H
	DD	00H
	DD	00H
	DD	00H
	DD	00H
_DATA	ENDS
;	COMDAT ?ms_kPool@?$CPooledObject@VCGravityDecorator@NEffectUpdateDecorator@@@@1V?$CDynamicPoolEx@VCGravityDecorator@NEffectUpdateDecorator@@@@A
_DATA	SEGMENT
?ms_kPool@?$CPooledObject@VCGravityDecorator@NEffectUpdateDecorator@@@@1V?$CDynamicPoolEx@VCGravityDecorator@NEffectUpdateDecorator@@@@A DD FLAT:??_7?$CDynamicPoolEx@VCGravityDecorator@NEffectUpdateDecorator@@@@6B@ ; CPooledObject<NEffectUpdateDecorator::CGravityDecorator>::ms_kPool
	DD	00H
	DD	00H
	DD	00H
	DD	00H
	DD	00H
	DD	00H
	DD	00H
	DD	00H
_DATA	ENDS
;	COMDAT ?ms_kPool@?$CPooledObject@VCAirResistanceDecorator@NEffectUpdateDecorator@@@@1V?$CDynamicPoolEx@VCAirResistanceDecorator@NEffectUpdateDecorator@@@@A
_DATA	SEGMENT
?ms_kPool@?$CPooledObject@VCAirResistanceDecorator@NEffectUpdateDecorator@@@@1V?$CDynamicPoolEx@VCAirResistanceDecorator@NEffectUpdateDecorator@@@@A DD FLAT:??_7?$CDynamicPoolEx@VCAirResistanceDecorator@NEffectUpdateDecorator@@@@6B@ ; CPooledObject<NEffectUpdateDecorator::CAirResistanceDecorator>::ms_kPool
	DD	00H
	DD	00H
	DD	00H
	DD	00H
	DD	00H
	DD	00H
	DD	00H
	DD	00H
_DATA	ENDS
;	COMDAT ?ms_kPool@?$CPooledObject@VCTextureAnimationRandomDecorator@NEffectUpdateDecorator@@@@1V?$CDynamicPoolEx@VCTextureAnimationRandomDecorator@NEffectUpdateDecorator@@@@A
_DATA	SEGMENT
?ms_kPool@?$CPooledObject@VCTextureAnimationRandomDecorator@NEffectUpdateDecorator@@@@1V?$CDynamicPoolEx@VCTextureAnimationRandomDecorator@NEffectUpdateDecorator@@@@A DD FLAT:??_7?$CDynamicPoolEx@VCTextureAnimationRandomDecorator@NEffectUpdateDecorator@@@@6B@ ; CPooledObject<NEffectUpdateDecorator::CTextureAnimationRandomDecorator>::ms_kPool
	DD	00H
	DD	00H
	DD	00H
	DD	00H
	DD	00H
	DD	00H
	DD	00H
	DD	00H
_DATA	ENDS
;	COMDAT ?ms_kPool@?$CPooledObject@VCTextureAnimationCCWDecorator@NEffectUpdateDecorator@@@@1V?$CDynamicPoolEx@VCTextureAnimationCCWDecorator@NEffectUpdateDecorator@@@@A
_DATA	SEGMENT
?ms_kPool@?$CPooledObject@VCTextureAnimationCCWDecorator@NEffectUpdateDecorator@@@@1V?$CDynamicPoolEx@VCTextureAnimationCCWDecorator@NEffectUpdateDecorator@@@@A DD FLAT:??_7?$CDynamicPoolEx@VCTextureAnimationCCWDecorator@NEffectUpdateDecorator@@@@6B@ ; CPooledObject<NEffectUpdateDecorator::CTextureAnimationCCWDecorator>::ms_kPool
	DD	00H
	DD	00H
	DD	00H
	DD	00H
	DD	00H
	DD	00H
	DD	00H
	DD	00H
_DATA	ENDS
;	COMDAT ?ms_kPool@?$CPooledObject@VCTextureAnimationCWDecorator@NEffectUpdateDecorator@@@@1V?$CDynamicPoolEx@VCTextureAnimationCWDecorator@NEffectUpdateDecorator@@@@A
_DATA	SEGMENT
?ms_kPool@?$CPooledObject@VCTextureAnimationCWDecorator@NEffectUpdateDecorator@@@@1V?$CDynamicPoolEx@VCTextureAnimationCWDecorator@NEffectUpdateDecorator@@@@A DD FLAT:??_7?$CDynamicPoolEx@VCTextureAnimationCWDecorator@NEffectUpdateDecorator@@@@6B@ ; CPooledObject<NEffectUpdateDecorator::CTextureAnimationCWDecorator>::ms_kPool
	DD	00H
	DD	00H
	DD	00H
	DD	00H
	DD	00H
	DD	00H
	DD	00H
	DD	00H
_DATA	ENDS
;	COMDAT ?ms_kPool@?$CPooledObject@VCNullDecorator@NEffectUpdateDecorator@@@@1V?$CDynamicPoolEx@VCNullDecorator@NEffectUpdateDecorator@@@@A
_DATA	SEGMENT
?ms_kPool@?$CPooledObject@VCNullDecorator@NEffectUpdateDecorator@@@@1V?$CDynamicPoolEx@VCNullDecorator@NEffectUpdateDecorator@@@@A DD FLAT:??_7?$CDynamicPoolEx@VCNullDecorator@NEffectUpdateDecorator@@@@6B@ ; CPooledObject<NEffectUpdateDecorator::CNullDecorator>::ms_kPool
	DD	00H
	DD	00H
	DD	00H
	DD	00H
	DD	00H
	DD	00H
	DD	00H
	DD	00H
_DATA	ENDS
;	COMDAT ?ms_kPool@?$CPooledObject@VCHeaderDecorator@NEffectUpdateDecorator@@@@1V?$CDynamicPoolEx@VCHeaderDecorator@NEffectUpdateDecorator@@@@A
_DATA	SEGMENT
?ms_kPool@?$CPooledObject@VCHeaderDecorator@NEffectUpdateDecorator@@@@1V?$CDynamicPoolEx@VCHeaderDecorator@NEffectUpdateDecorator@@@@A DD FLAT:??_7?$CDynamicPoolEx@VCHeaderDecorator@NEffectUpdateDecorator@@@@6B@ ; CPooledObject<NEffectUpdateDecorator::CHeaderDecorator>::ms_kPool
	DD	00H
	DD	00H
	DD	00H
	DD	00H
	DD	00H
	DD	00H
	DD	00H
	DD	00H
_DATA	ENDS
;	COMDAT ??_7CPythonSystem@@6B@
CONST	SEGMENT
??_7CPythonSystem@@6B@ DD FLAT:??_R4CPythonSystem@@6B@	; CPythonSystem::`vftable'
	DD	FLAT:??_ECPythonSystem@@UAEPAXI@Z
CONST	ENDS
;	COMDAT ??_7?$CSingleton@VCPythonSystem@@@@6B@
CONST	SEGMENT
??_7?$CSingleton@VCPythonSystem@@@@6B@ DD FLAT:??_R4?$CSingleton@VCPythonSystem@@@@6B@ ; CSingleton<CPythonSystem>::`vftable'
	DD	FLAT:??_E?$CSingleton@VCPythonSystem@@@@UAEPAXI@Z
CONST	ENDS
;	COMDAT xdata$x
xdata$x	SEGMENT
__unwindtable$??0CPythonSystem@@QAE@XZ DD 0ffffffffH
	DD	FLAT:__unwindfunclet$??0CPythonSystem@@QAE@XZ$0
__ehfuncinfo$??0CPythonSystem@@QAE@XZ DD 019930522H
	DD	01H
	DD	FLAT:__unwindtable$??0CPythonSystem@@QAE@XZ
	DD	2 DUP(00H)
	DD	2 DUP(00H)
	DD	00H
	DD	01H
xdata$x	ENDS
;	COMDAT CRT$XCU
CRT$XCU	SEGMENT
??ms_kPool$initializer$@?$CPooledObject@VCNullDecorator@NEffectUpdateDecorator@@@@1P6AXXZA@@3P6AXXZA DD FLAT:??__E?ms_kPool@?$CPooledObject@VCNullDecorator@NEffectUpdateDecorator@@@@1V?$CDynamicPoolEx@VCNullDecorator@NEffectUpdateDecorator@@@@A@@YAXXZ ; ??ms_kPool$initializer$@?$CPooledObject@VCNullDecorator@NEffectUpdateDecorator@@@@1P6AXXZA@@3P6AXXZA
CRT$XCU	ENDS
;	COMDAT CRT$XCU
CRT$XCU	SEGMENT
??ms_kPool$initializer$@?$CPooledObject@VCTextureAnimationCWDecorator@NEffectUpdateDecorator@@@@1P6AXXZA@@3P6AXXZA DD FLAT:??__E?ms_kPool@?$CPooledObject@VCTextureAnimationCWDecorator@NEffectUpdateDecorator@@@@1V?$CDynamicPoolEx@VCTextureAnimationCWDecorator@NEffectUpdateDecorator@@@@A@@YAXXZ ; ??ms_kPool$initializer$@?$CPooledObject@VCTextureAnimationCWDecorator@NEffectUpdateDecorator@@@@1P6AXXZA@@3P6AXXZA
CRT$XCU	ENDS
;	COMDAT CRT$XCU
CRT$XCU	SEGMENT
??ms_kPool$initializer$@?$CPooledObject@VCTextureAnimationCCWDecorator@NEffectUpdateDecorator@@@@1P6AXXZA@@3P6AXXZA DD FLAT:??__E?ms_kPool@?$CPooledObject@VCTextureAnimationCCWDecorator@NEffectUpdateDecorator@@@@1V?$CDynamicPoolEx@VCTextureAnimationCCWDecorator@NEffectUpdateDecorator@@@@A@@YAXXZ ; ??ms_kPool$initializer$@?$CPooledObject@VCTextureAnimationCCWDecorator@NEffectUpdateDecorator@@@@1P6AXXZA@@3P6AXXZA
CRT$XCU	ENDS
;	COMDAT CRT$XCU
CRT$XCU	SEGMENT
??ms_kPool$initializer$@?$CPooledObject@VCTextureAnimationRandomDecorator@NEffectUpdateDecorator@@@@1P6AXXZA@@3P6AXXZA DD FLAT:??__E?ms_kPool@?$CPooledObject@VCTextureAnimationRandomDecorator@NEffectUpdateDecorator@@@@1V?$CDynamicPoolEx@VCTextureAnimationRandomDecorator@NEffectUpdateDecorator@@@@A@@YAXXZ ; ??ms_kPool$initializer$@?$CPooledObject@VCTextureAnimationRandomDecorator@NEffectUpdateDecorator@@@@1P6AXXZA@@3P6AXXZA
CRT$XCU	ENDS
;	COMDAT CRT$XCU
CRT$XCU	SEGMENT
??ms_kPool$initializer$@?$CPooledObject@VCAirResistanceDecorator@NEffectUpdateDecorator@@@@1P6AXXZA@@3P6AXXZA DD FLAT:??__E?ms_kPool@?$CPooledObject@VCAirResistanceDecorator@NEffectUpdateDecorator@@@@1V?$CDynamicPoolEx@VCAirResistanceDecorator@NEffectUpdateDecorator@@@@A@@YAXXZ ; ??ms_kPool$initializer$@?$CPooledObject@VCAirResistanceDecorator@NEffectUpdateDecorator@@@@1P6AXXZA@@3P6AXXZA
CRT$XCU	ENDS
;	COMDAT CRT$XCU
CRT$XCU	SEGMENT
??ms_kPool$initializer$@?$CPooledObject@VCGravityDecorator@NEffectUpdateDecorator@@@@1P6AXXZA@@3P6AXXZA DD FLAT:??__E?ms_kPool@?$CPooledObject@VCGravityDecorator@NEffectUpdateDecorator@@@@1V?$CDynamicPoolEx@VCGravityDecorator@NEffectUpdateDecorator@@@@A@@YAXXZ ; ??ms_kPool$initializer$@?$CPooledObject@VCGravityDecorator@NEffectUpdateDecorator@@@@1P6AXXZA@@3P6AXXZA
CRT$XCU	ENDS
;	COMDAT CRT$XCU
CRT$XCU	SEGMENT
??ms_kPool$initializer$@?$CPooledObject@VCRotationDecorator@NEffectUpdateDecorator@@@@1P6AXXZA@@3P6AXXZA DD FLAT:??__E?ms_kPool@?$CPooledObject@VCRotationDecorator@NEffectUpdateDecorator@@@@1V?$CDynamicPoolEx@VCRotationDecorator@NEffectUpdateDecorator@@@@A@@YAXXZ ; ??ms_kPool$initializer$@?$CPooledObject@VCRotationDecorator@NEffectUpdateDecorator@@@@1P6AXXZA@@3P6AXXZA
CRT$XCU	ENDS
; Function compile flags: /Ogtp
;	COMDAT ??__F?ms_kPool@?$CPooledObject@VCRotationDecorator@NEffectUpdateDecorator@@@@1V?$CDynamicPoolEx@VCRotationDecorator@NEffectUpdateDecorator@@@@A@@YAXXZ
text$yd	SEGMENT
??__F?ms_kPool@?$CPooledObject@VCRotationDecorator@NEffectUpdateDecorator@@@@1V?$CDynamicPoolEx@VCRotationDecorator@NEffectUpdateDecorator@@@@A@@YAXXZ PROC ; `dynamic atexit destructor for 'CPooledObject<NEffectUpdateDecorator::CRotationDecorator>::ms_kPool'', COMDAT
  00000	b9 00 00 00 00	 mov	 ecx, OFFSET ?ms_kPool@?$CPooledObject@VCRotationDecorator@NEffectUpdateDecorator@@@@1V?$CDynamicPoolEx@VCRotationDecorator@NEffectUpdateDecorator@@@@A ; CPooledObject<NEffectUpdateDecorator::CRotationDecorator>::ms_kPool
  00005	e9 00 00 00 00	 jmp	 ??1?$CDynamicPoolEx@VCRotationDecorator@NEffectUpdateDecorator@@@@UAE@XZ ; CDynamicPoolEx<NEffectUpdateDecorator::CRotationDecorator>::~CDynamicPoolEx<NEffectUpdateDecorator::CRotationDecorator>
??__F?ms_kPool@?$CPooledObject@VCRotationDecorator@NEffectUpdateDecorator@@@@1V?$CDynamicPoolEx@VCRotationDecorator@NEffectUpdateDecorator@@@@A@@YAXXZ ENDP ; `dynamic atexit destructor for 'CPooledObject<NEffectUpdateDecorator::CRotationDecorator>::ms_kPool''
text$yd	ENDS
; Function compile flags: /Ogtp
; File D:\Metin2 Server Files\mainline\SRC_2014\Metin2Client\eterLib\Pool.h
;	COMDAT ??__E?ms_kPool@?$CPooledObject@VCRotationDecorator@NEffectUpdateDecorator@@@@1V?$CDynamicPoolEx@VCRotationDecorator@NEffectUpdateDecorator@@@@A@@YAXXZ
text$di	SEGMENT
??__E?ms_kPool@?$CPooledObject@VCRotationDecorator@NEffectUpdateDecorator@@@@1V?$CDynamicPoolEx@VCRotationDecorator@NEffectUpdateDecorator@@@@A@@YAXXZ PROC ; `dynamic initializer for 'CPooledObject<NEffectUpdateDecorator::CRotationDecorator>::ms_kPool'', COMDAT

; 272  : template <class T> CDynamicPoolEx<T> CPooledObject<T>::ms_kPool;

  00000	68 00 00 00 00	 push	 OFFSET ??__F?ms_kPool@?$CPooledObject@VCRotationDecorator@NEffectUpdateDecorator@@@@1V?$CDynamicPoolEx@VCRotationDecorator@NEffectUpdateDecorator@@@@A@@YAXXZ ; `dynamic atexit destructor for 'CPooledObject<NEffectUpdateDecorator::CRotationDecorator>::ms_kPool''
  00005	e8 00 00 00 00	 call	 _atexit
  0000a	59		 pop	 ecx
  0000b	c3		 ret	 0
??__E?ms_kPool@?$CPooledObject@VCRotationDecorator@NEffectUpdateDecorator@@@@1V?$CDynamicPoolEx@VCRotationDecorator@NEffectUpdateDecorator@@@@A@@YAXXZ ENDP ; `dynamic initializer for 'CPooledObject<NEffectUpdateDecorator::CRotationDecorator>::ms_kPool''
text$di	ENDS
; Function compile flags: /Ogtp
;	COMDAT ??__F?ms_kPool@?$CPooledObject@VCGravityDecorator@NEffectUpdateDecorator@@@@1V?$CDynamicPoolEx@VCGravityDecorator@NEffectUpdateDecorator@@@@A@@YAXXZ
text$yd	SEGMENT
??__F?ms_kPool@?$CPooledObject@VCGravityDecorator@NEffectUpdateDecorator@@@@1V?$CDynamicPoolEx@VCGravityDecorator@NEffectUpdateDecorator@@@@A@@YAXXZ PROC ; `dynamic atexit destructor for 'CPooledObject<NEffectUpdateDecorator::CGravityDecorator>::ms_kPool'', COMDAT
  00000	b9 00 00 00 00	 mov	 ecx, OFFSET ?ms_kPool@?$CPooledObject@VCGravityDecorator@NEffectUpdateDecorator@@@@1V?$CDynamicPoolEx@VCGravityDecorator@NEffectUpdateDecorator@@@@A ; CPooledObject<NEffectUpdateDecorator::CGravityDecorator>::ms_kPool
  00005	e9 00 00 00 00	 jmp	 ??1?$CDynamicPoolEx@VCGravityDecorator@NEffectUpdateDecorator@@@@UAE@XZ ; CDynamicPoolEx<NEffectUpdateDecorator::CGravityDecorator>::~CDynamicPoolEx<NEffectUpdateDecorator::CGravityDecorator>
??__F?ms_kPool@?$CPooledObject@VCGravityDecorator@NEffectUpdateDecorator@@@@1V?$CDynamicPoolEx@VCGravityDecorator@NEffectUpdateDecorator@@@@A@@YAXXZ ENDP ; `dynamic atexit destructor for 'CPooledObject<NEffectUpdateDecorator::CGravityDecorator>::ms_kPool''
text$yd	ENDS
; Function compile flags: /Ogtp
; File D:\Metin2 Server Files\mainline\SRC_2014\Metin2Client\eterLib\Pool.h
;	COMDAT ??__E?ms_kPool@?$CPooledObject@VCGravityDecorator@NEffectUpdateDecorator@@@@1V?$CDynamicPoolEx@VCGravityDecorator@NEffectUpdateDecorator@@@@A@@YAXXZ
text$di	SEGMENT
??__E?ms_kPool@?$CPooledObject@VCGravityDecorator@NEffectUpdateDecorator@@@@1V?$CDynamicPoolEx@VCGravityDecorator@NEffectUpdateDecorator@@@@A@@YAXXZ PROC ; `dynamic initializer for 'CPooledObject<NEffectUpdateDecorator::CGravityDecorator>::ms_kPool'', COMDAT

; 272  : template <class T> CDynamicPoolEx<T> CPooledObject<T>::ms_kPool;

  00000	68 00 00 00 00	 push	 OFFSET ??__F?ms_kPool@?$CPooledObject@VCGravityDecorator@NEffectUpdateDecorator@@@@1V?$CDynamicPoolEx@VCGravityDecorator@NEffectUpdateDecorator@@@@A@@YAXXZ ; `dynamic atexit destructor for 'CPooledObject<NEffectUpdateDecorator::CGravityDecorator>::ms_kPool''
  00005	e8 00 00 00 00	 call	 _atexit
  0000a	59		 pop	 ecx
  0000b	c3		 ret	 0
??__E?ms_kPool@?$CPooledObject@VCGravityDecorator@NEffectUpdateDecorator@@@@1V?$CDynamicPoolEx@VCGravityDecorator@NEffectUpdateDecorator@@@@A@@YAXXZ ENDP ; `dynamic initializer for 'CPooledObject<NEffectUpdateDecorator::CGravityDecorator>::ms_kPool''
text$di	ENDS
; Function compile flags: /Ogtp
;	COMDAT ??__F?ms_kPool@?$CPooledObject@VCAirResistanceDecorator@NEffectUpdateDecorator@@@@1V?$CDynamicPoolEx@VCAirResistanceDecorator@NEffectUpdateDecorator@@@@A@@YAXXZ
text$yd	SEGMENT
??__F?ms_kPool@?$CPooledObject@VCAirResistanceDecorator@NEffectUpdateDecorator@@@@1V?$CDynamicPoolEx@VCAirResistanceDecorator@NEffectUpdateDecorator@@@@A@@YAXXZ PROC ; `dynamic atexit destructor for 'CPooledObject<NEffectUpdateDecorator::CAirResistanceDecorator>::ms_kPool'', COMDAT
  00000	b9 00 00 00 00	 mov	 ecx, OFFSET ?ms_kPool@?$CPooledObject@VCAirResistanceDecorator@NEffectUpdateDecorator@@@@1V?$CDynamicPoolEx@VCAirResistanceDecorator@NEffectUpdateDecorator@@@@A ; CPooledObject<NEffectUpdateDecorator::CAirResistanceDecorator>::ms_kPool
  00005	e9 00 00 00 00	 jmp	 ??1?$CDynamicPoolEx@VCAirResistanceDecorator@NEffectUpdateDecorator@@@@UAE@XZ ; CDynamicPoolEx<NEffectUpdateDecorator::CAirResistanceDecorator>::~CDynamicPoolEx<NEffectUpdateDecorator::CAirResistanceDecorator>
??__F?ms_kPool@?$CPooledObject@VCAirResistanceDecorator@NEffectUpdateDecorator@@@@1V?$CDynamicPoolEx@VCAirResistanceDecorator@NEffectUpdateDecorator@@@@A@@YAXXZ ENDP ; `dynamic atexit destructor for 'CPooledObject<NEffectUpdateDecorator::CAirResistanceDecorator>::ms_kPool''
text$yd	ENDS
; Function compile flags: /Ogtp
; File D:\Metin2 Server Files\mainline\SRC_2014\Metin2Client\eterLib\Pool.h
;	COMDAT ??__E?ms_kPool@?$CPooledObject@VCAirResistanceDecorator@NEffectUpdateDecorator@@@@1V?$CDynamicPoolEx@VCAirResistanceDecorator@NEffectUpdateDecorator@@@@A@@YAXXZ
text$di	SEGMENT
??__E?ms_kPool@?$CPooledObject@VCAirResistanceDecorator@NEffectUpdateDecorator@@@@1V?$CDynamicPoolEx@VCAirResistanceDecorator@NEffectUpdateDecorator@@@@A@@YAXXZ PROC ; `dynamic initializer for 'CPooledObject<NEffectUpdateDecorator::CAirResistanceDecorator>::ms_kPool'', COMDAT

; 272  : template <class T> CDynamicPoolEx<T> CPooledObject<T>::ms_kPool;

  00000	68 00 00 00 00	 push	 OFFSET ??__F?ms_kPool@?$CPooledObject@VCAirResistanceDecorator@NEffectUpdateDecorator@@@@1V?$CDynamicPoolEx@VCAirResistanceDecorator@NEffectUpdateDecorator@@@@A@@YAXXZ ; `dynamic atexit destructor for 'CPooledObject<NEffectUpdateDecorator::CAirResistanceDecorator>::ms_kPool''
  00005	e8 00 00 00 00	 call	 _atexit
  0000a	59		 pop	 ecx
  0000b	c3		 ret	 0
??__E?ms_kPool@?$CPooledObject@VCAirResistanceDecorator@NEffectUpdateDecorator@@@@1V?$CDynamicPoolEx@VCAirResistanceDecorator@NEffectUpdateDecorator@@@@A@@YAXXZ ENDP ; `dynamic initializer for 'CPooledObject<NEffectUpdateDecorator::CAirResistanceDecorator>::ms_kPool''
text$di	ENDS
; Function compile flags: /Ogtp
;	COMDAT ??__F?ms_kPool@?$CPooledObject@VCTextureAnimationRandomDecorator@NEffectUpdateDecorator@@@@1V?$CDynamicPoolEx@VCTextureAnimationRandomDecorator@NEffectUpdateDecorator@@@@A@@YAXXZ
text$yd	SEGMENT
??__F?ms_kPool@?$CPooledObject@VCTextureAnimationRandomDecorator@NEffectUpdateDecorator@@@@1V?$CDynamicPoolEx@VCTextureAnimationRandomDecorator@NEffectUpdateDecorator@@@@A@@YAXXZ PROC ; `dynamic atexit destructor for 'CPooledObject<NEffectUpdateDecorator::CTextureAnimationRandomDecorator>::ms_kPool'', COMDAT
  00000	b9 00 00 00 00	 mov	 ecx, OFFSET ?ms_kPool@?$CPooledObject@VCTextureAnimationRandomDecorator@NEffectUpdateDecorator@@@@1V?$CDynamicPoolEx@VCTextureAnimationRandomDecorator@NEffectUpdateDecorator@@@@A ; CPooledObject<NEffectUpdateDecorator::CTextureAnimationRandomDecorator>::ms_kPool
  00005	e9 00 00 00 00	 jmp	 ??1?$CDynamicPoolEx@VCTextureAnimationRandomDecorator@NEffectUpdateDecorator@@@@UAE@XZ ; CDynamicPoolEx<NEffectUpdateDecorator::CTextureAnimationRandomDecorator>::~CDynamicPoolEx<NEffectUpdateDecorator::CTextureAnimationRandomDecorator>
??__F?ms_kPool@?$CPooledObject@VCTextureAnimationRandomDecorator@NEffectUpdateDecorator@@@@1V?$CDynamicPoolEx@VCTextureAnimationRandomDecorator@NEffectUpdateDecorator@@@@A@@YAXXZ ENDP ; `dynamic atexit destructor for 'CPooledObject<NEffectUpdateDecorator::CTextureAnimationRandomDecorator>::ms_kPool''
text$yd	ENDS
; Function compile flags: /Ogtp
; File D:\Metin2 Server Files\mainline\SRC_2014\Metin2Client\eterLib\Pool.h
;	COMDAT ??__E?ms_kPool@?$CPooledObject@VCTextureAnimationRandomDecorator@NEffectUpdateDecorator@@@@1V?$CDynamicPoolEx@VCTextureAnimationRandomDecorator@NEffectUpdateDecorator@@@@A@@YAXXZ
text$di	SEGMENT
??__E?ms_kPool@?$CPooledObject@VCTextureAnimationRandomDecorator@NEffectUpdateDecorator@@@@1V?$CDynamicPoolEx@VCTextureAnimationRandomDecorator@NEffectUpdateDecorator@@@@A@@YAXXZ PROC ; `dynamic initializer for 'CPooledObject<NEffectUpdateDecorator::CTextureAnimationRandomDecorator>::ms_kPool'', COMDAT

; 272  : template <class T> CDynamicPoolEx<T> CPooledObject<T>::ms_kPool;

  00000	68 00 00 00 00	 push	 OFFSET ??__F?ms_kPool@?$CPooledObject@VCTextureAnimationRandomDecorator@NEffectUpdateDecorator@@@@1V?$CDynamicPoolEx@VCTextureAnimationRandomDecorator@NEffectUpdateDecorator@@@@A@@YAXXZ ; `dynamic atexit destructor for 'CPooledObject<NEffectUpdateDecorator::CTextureAnimationRandomDecorator>::ms_kPool''
  00005	e8 00 00 00 00	 call	 _atexit
  0000a	59		 pop	 ecx
  0000b	c3		 ret	 0
??__E?ms_kPool@?$CPooledObject@VCTextureAnimationRandomDecorator@NEffectUpdateDecorator@@@@1V?$CDynamicPoolEx@VCTextureAnimationRandomDecorator@NEffectUpdateDecorator@@@@A@@YAXXZ ENDP ; `dynamic initializer for 'CPooledObject<NEffectUpdateDecorator::CTextureAnimationRandomDecorator>::ms_kPool''
text$di	ENDS
; Function compile flags: /Ogtp
;	COMDAT ??__F?ms_kPool@?$CPooledObject@VCTextureAnimationCCWDecorator@NEffectUpdateDecorator@@@@1V?$CDynamicPoolEx@VCTextureAnimationCCWDecorator@NEffectUpdateDecorator@@@@A@@YAXXZ
text$yd	SEGMENT
??__F?ms_kPool@?$CPooledObject@VCTextureAnimationCCWDecorator@NEffectUpdateDecorator@@@@1V?$CDynamicPoolEx@VCTextureAnimationCCWDecorator@NEffectUpdateDecorator@@@@A@@YAXXZ PROC ; `dynamic atexit destructor for 'CPooledObject<NEffectUpdateDecorator::CTextureAnimationCCWDecorator>::ms_kPool'', COMDAT
  00000	b9 00 00 00 00	 mov	 ecx, OFFSET ?ms_kPool@?$CPooledObject@VCTextureAnimationCCWDecorator@NEffectUpdateDecorator@@@@1V?$CDynamicPoolEx@VCTextureAnimationCCWDecorator@NEffectUpdateDecorator@@@@A ; CPooledObject<NEffectUpdateDecorator::CTextureAnimationCCWDecorator>::ms_kPool
  00005	e9 00 00 00 00	 jmp	 ??1?$CDynamicPoolEx@VCTextureAnimationCCWDecorator@NEffectUpdateDecorator@@@@UAE@XZ ; CDynamicPoolEx<NEffectUpdateDecorator::CTextureAnimationCCWDecorator>::~CDynamicPoolEx<NEffectUpdateDecorator::CTextureAnimationCCWDecorator>
??__F?ms_kPool@?$CPooledObject@VCTextureAnimationCCWDecorator@NEffectUpdateDecorator@@@@1V?$CDynamicPoolEx@VCTextureAnimationCCWDecorator@NEffectUpdateDecorator@@@@A@@YAXXZ ENDP ; `dynamic atexit destructor for 'CPooledObject<NEffectUpdateDecorator::CTextureAnimationCCWDecorator>::ms_kPool''
text$yd	ENDS
; Function compile flags: /Ogtp
; File D:\Metin2 Server Files\mainline\SRC_2014\Metin2Client\eterLib\Pool.h
;	COMDAT ??__E?ms_kPool@?$CPooledObject@VCTextureAnimationCCWDecorator@NEffectUpdateDecorator@@@@1V?$CDynamicPoolEx@VCTextureAnimationCCWDecorator@NEffectUpdateDecorator@@@@A@@YAXXZ
text$di	SEGMENT
??__E?ms_kPool@?$CPooledObject@VCTextureAnimationCCWDecorator@NEffectUpdateDecorator@@@@1V?$CDynamicPoolEx@VCTextureAnimationCCWDecorator@NEffectUpdateDecorator@@@@A@@YAXXZ PROC ; `dynamic initializer for 'CPooledObject<NEffectUpdateDecorator::CTextureAnimationCCWDecorator>::ms_kPool'', COMDAT

; 272  : template <class T> CDynamicPoolEx<T> CPooledObject<T>::ms_kPool;

  00000	68 00 00 00 00	 push	 OFFSET ??__F?ms_kPool@?$CPooledObject@VCTextureAnimationCCWDecorator@NEffectUpdateDecorator@@@@1V?$CDynamicPoolEx@VCTextureAnimationCCWDecorator@NEffectUpdateDecorator@@@@A@@YAXXZ ; `dynamic atexit destructor for 'CPooledObject<NEffectUpdateDecorator::CTextureAnimationCCWDecorator>::ms_kPool''
  00005	e8 00 00 00 00	 call	 _atexit
  0000a	59		 pop	 ecx
  0000b	c3		 ret	 0
??__E?ms_kPool@?$CPooledObject@VCTextureAnimationCCWDecorator@NEffectUpdateDecorator@@@@1V?$CDynamicPoolEx@VCTextureAnimationCCWDecorator@NEffectUpdateDecorator@@@@A@@YAXXZ ENDP ; `dynamic initializer for 'CPooledObject<NEffectUpdateDecorator::CTextureAnimationCCWDecorator>::ms_kPool''
text$di	ENDS
; Function compile flags: /Ogtp
;	COMDAT ??__F?ms_kPool@?$CPooledObject@VCTextureAnimationCWDecorator@NEffectUpdateDecorator@@@@1V?$CDynamicPoolEx@VCTextureAnimationCWDecorator@NEffectUpdateDecorator@@@@A@@YAXXZ
text$yd	SEGMENT
??__F?ms_kPool@?$CPooledObject@VCTextureAnimationCWDecorator@NEffectUpdateDecorator@@@@1V?$CDynamicPoolEx@VCTextureAnimationCWDecorator@NEffectUpdateDecorator@@@@A@@YAXXZ PROC ; `dynamic atexit destructor for 'CPooledObject<NEffectUpdateDecorator::CTextureAnimationCWDecorator>::ms_kPool'', COMDAT
  00000	b9 00 00 00 00	 mov	 ecx, OFFSET ?ms_kPool@?$CPooledObject@VCTextureAnimationCWDecorator@NEffectUpdateDecorator@@@@1V?$CDynamicPoolEx@VCTextureAnimationCWDecorator@NEffectUpdateDecorator@@@@A ; CPooledObject<NEffectUpdateDecorator::CTextureAnimationCWDecorator>::ms_kPool
  00005	e9 00 00 00 00	 jmp	 ??1?$CDynamicPoolEx@VCTextureAnimationCWDecorator@NEffectUpdateDecorator@@@@UAE@XZ ; CDynamicPoolEx<NEffectUpdateDecorator::CTextureAnimationCWDecorator>::~CDynamicPoolEx<NEffectUpdateDecorator::CTextureAnimationCWDecorator>
??__F?ms_kPool@?$CPooledObject@VCTextureAnimationCWDecorator@NEffectUpdateDecorator@@@@1V?$CDynamicPoolEx@VCTextureAnimationCWDecorator@NEffectUpdateDecorator@@@@A@@YAXXZ ENDP ; `dynamic atexit destructor for 'CPooledObject<NEffectUpdateDecorator::CTextureAnimationCWDecorator>::ms_kPool''
text$yd	ENDS
; Function compile flags: /Ogtp
; File D:\Metin2 Server Files\mainline\SRC_2014\Metin2Client\eterLib\Pool.h
;	COMDAT ??__E?ms_kPool@?$CPooledObject@VCTextureAnimationCWDecorator@NEffectUpdateDecorator@@@@1V?$CDynamicPoolEx@VCTextureAnimationCWDecorator@NEffectUpdateDecorator@@@@A@@YAXXZ
text$di	SEGMENT
??__E?ms_kPool@?$CPooledObject@VCTextureAnimationCWDecorator@NEffectUpdateDecorator@@@@1V?$CDynamicPoolEx@VCTextureAnimationCWDecorator@NEffectUpdateDecorator@@@@A@@YAXXZ PROC ; `dynamic initializer for 'CPooledObject<NEffectUpdateDecorator::CTextureAnimationCWDecorator>::ms_kPool'', COMDAT

; 272  : template <class T> CDynamicPoolEx<T> CPooledObject<T>::ms_kPool;

  00000	68 00 00 00 00	 push	 OFFSET ??__F?ms_kPool@?$CPooledObject@VCTextureAnimationCWDecorator@NEffectUpdateDecorator@@@@1V?$CDynamicPoolEx@VCTextureAnimationCWDecorator@NEffectUpdateDecorator@@@@A@@YAXXZ ; `dynamic atexit destructor for 'CPooledObject<NEffectUpdateDecorator::CTextureAnimationCWDecorator>::ms_kPool''
  00005	e8 00 00 00 00	 call	 _atexit
  0000a	59		 pop	 ecx
  0000b	c3		 ret	 0
??__E?ms_kPool@?$CPooledObject@VCTextureAnimationCWDecorator@NEffectUpdateDecorator@@@@1V?$CDynamicPoolEx@VCTextureAnimationCWDecorator@NEffectUpdateDecorator@@@@A@@YAXXZ ENDP ; `dynamic initializer for 'CPooledObject<NEffectUpdateDecorator::CTextureAnimationCWDecorator>::ms_kPool''
text$di	ENDS
; Function compile flags: /Ogtp
;	COMDAT ??__F?ms_kPool@?$CPooledObject@VCNullDecorator@NEffectUpdateDecorator@@@@1V?$CDynamicPoolEx@VCNullDecorator@NEffectUpdateDecorator@@@@A@@YAXXZ
text$yd	SEGMENT
??__F?ms_kPool@?$CPooledObject@VCNullDecorator@NEffectUpdateDecorator@@@@1V?$CDynamicPoolEx@VCNullDecorator@NEffectUpdateDecorator@@@@A@@YAXXZ PROC ; `dynamic atexit destructor for 'CPooledObject<NEffectUpdateDecorator::CNullDecorator>::ms_kPool'', COMDAT
  00000	b9 00 00 00 00	 mov	 ecx, OFFSET ?ms_kPool@?$CPooledObject@VCNullDecorator@NEffectUpdateDecorator@@@@1V?$CDynamicPoolEx@VCNullDecorator@NEffectUpdateDecorator@@@@A ; CPooledObject<NEffectUpdateDecorator::CNullDecorator>::ms_kPool
  00005	e9 00 00 00 00	 jmp	 ??1?$CDynamicPoolEx@VCNullDecorator@NEffectUpdateDecorator@@@@UAE@XZ ; CDynamicPoolEx<NEffectUpdateDecorator::CNullDecorator>::~CDynamicPoolEx<NEffectUpdateDecorator::CNullDecorator>
??__F?ms_kPool@?$CPooledObject@VCNullDecorator@NEffectUpdateDecorator@@@@1V?$CDynamicPoolEx@VCNullDecorator@NEffectUpdateDecorator@@@@A@@YAXXZ ENDP ; `dynamic atexit destructor for 'CPooledObject<NEffectUpdateDecorator::CNullDecorator>::ms_kPool''
text$yd	ENDS
; Function compile flags: /Ogtp
; File D:\Metin2 Server Files\mainline\SRC_2014\Metin2Client\eterLib\Pool.h
;	COMDAT ??__E?ms_kPool@?$CPooledObject@VCNullDecorator@NEffectUpdateDecorator@@@@1V?$CDynamicPoolEx@VCNullDecorator@NEffectUpdateDecorator@@@@A@@YAXXZ
text$di	SEGMENT
??__E?ms_kPool@?$CPooledObject@VCNullDecorator@NEffectUpdateDecorator@@@@1V?$CDynamicPoolEx@VCNullDecorator@NEffectUpdateDecorator@@@@A@@YAXXZ PROC ; `dynamic initializer for 'CPooledObject<NEffectUpdateDecorator::CNullDecorator>::ms_kPool'', COMDAT

; 272  : template <class T> CDynamicPoolEx<T> CPooledObject<T>::ms_kPool;

  00000	68 00 00 00 00	 push	 OFFSET ??__F?ms_kPool@?$CPooledObject@VCNullDecorator@NEffectUpdateDecorator@@@@1V?$CDynamicPoolEx@VCNullDecorator@NEffectUpdateDecorator@@@@A@@YAXXZ ; `dynamic atexit destructor for 'CPooledObject<NEffectUpdateDecorator::CNullDecorator>::ms_kPool''
  00005	e8 00 00 00 00	 call	 _atexit
  0000a	59		 pop	 ecx
  0000b	c3		 ret	 0
??__E?ms_kPool@?$CPooledObject@VCNullDecorator@NEffectUpdateDecorator@@@@1V?$CDynamicPoolEx@VCNullDecorator@NEffectUpdateDecorator@@@@A@@YAXXZ ENDP ; `dynamic initializer for 'CPooledObject<NEffectUpdateDecorator::CNullDecorator>::ms_kPool''
text$di	ENDS
; Function compile flags: /Ogtp
;	COMDAT ??__F?ms_kPool@?$CPooledObject@VCHeaderDecorator@NEffectUpdateDecorator@@@@1V?$CDynamicPoolEx@VCHeaderDecorator@NEffectUpdateDecorator@@@@A@@YAXXZ
text$yd	SEGMENT
??__F?ms_kPool@?$CPooledObject@VCHeaderDecorator@NEffectUpdateDecorator@@@@1V?$CDynamicPoolEx@VCHeaderDecorator@NEffectUpdateDecorator@@@@A@@YAXXZ PROC ; `dynamic atexit destructor for 'CPooledObject<NEffectUpdateDecorator::CHeaderDecorator>::ms_kPool'', COMDAT
  00000	b9 00 00 00 00	 mov	 ecx, OFFSET ?ms_kPool@?$CPooledObject@VCHeaderDecorator@NEffectUpdateDecorator@@@@1V?$CDynamicPoolEx@VCHeaderDecorator@NEffectUpdateDecorator@@@@A ; CPooledObject<NEffectUpdateDecorator::CHeaderDecorator>::ms_kPool
  00005	e9 00 00 00 00	 jmp	 ??1?$CDynamicPoolEx@VCHeaderDecorator@NEffectUpdateDecorator@@@@UAE@XZ ; CDynamicPoolEx<NEffectUpdateDecorator::CHeaderDecorator>::~CDynamicPoolEx<NEffectUpdateDecorator::CHeaderDecorator>
??__F?ms_kPool@?$CPooledObject@VCHeaderDecorator@NEffectUpdateDecorator@@@@1V?$CDynamicPoolEx@VCHeaderDecorator@NEffectUpdateDecorator@@@@A@@YAXXZ ENDP ; `dynamic atexit destructor for 'CPooledObject<NEffectUpdateDecorator::CHeaderDecorator>::ms_kPool''
text$yd	ENDS
; Function compile flags: /Ogtp
; File D:\Metin2 Server Files\mainline\SRC_2014\Metin2Client\eterLib\Pool.h
;	COMDAT ??__E?ms_kPool@?$CPooledObject@VCHeaderDecorator@NEffectUpdateDecorator@@@@1V?$CDynamicPoolEx@VCHeaderDecorator@NEffectUpdateDecorator@@@@A@@YAXXZ
text$di	SEGMENT
??__E?ms_kPool@?$CPooledObject@VCHeaderDecorator@NEffectUpdateDecorator@@@@1V?$CDynamicPoolEx@VCHeaderDecorator@NEffectUpdateDecorator@@@@A@@YAXXZ PROC ; `dynamic initializer for 'CPooledObject<NEffectUpdateDecorator::CHeaderDecorator>::ms_kPool'', COMDAT

; 272  : template <class T> CDynamicPoolEx<T> CPooledObject<T>::ms_kPool;

  00000	68 00 00 00 00	 push	 OFFSET ??__F?ms_kPool@?$CPooledObject@VCHeaderDecorator@NEffectUpdateDecorator@@@@1V?$CDynamicPoolEx@VCHeaderDecorator@NEffectUpdateDecorator@@@@A@@YAXXZ ; `dynamic atexit destructor for 'CPooledObject<NEffectUpdateDecorator::CHeaderDecorator>::ms_kPool''
  00005	e8 00 00 00 00	 call	 _atexit
  0000a	59		 pop	 ecx
  0000b	c3		 ret	 0
??__E?ms_kPool@?$CPooledObject@VCHeaderDecorator@NEffectUpdateDecorator@@@@1V?$CDynamicPoolEx@VCHeaderDecorator@NEffectUpdateDecorator@@@@A@@YAXXZ ENDP ; `dynamic initializer for 'CPooledObject<NEffectUpdateDecorator::CHeaderDecorator>::ms_kPool''
text$di	ENDS
; Function compile flags: /Ogtp
; File C:\Program Files (x86)\Microsoft Visual Studio\2019\Community\VC\Tools\MSVC\14.28.29333\include\xmemory
;	COMDAT ??$_Destroy_range@V?$allocator@PAVCRotationDecorator@NEffectUpdateDecorator@@@std@@@std@@YAXPAPAVCRotationDecorator@NEffectUpdateDecorator@@QAPAV12@AAV?$allocator@PAVCRotationDecorator@NEffectUpdateDecorator@@@0@@Z
_TEXT	SEGMENT
__First$ = 8						; size = 4
__Last$ = 12						; size = 4
__Al$ = 16						; size = 4
??$_Destroy_range@V?$allocator@PAVCRotationDecorator@NEffectUpdateDecorator@@@std@@@std@@YAXPAPAVCRotationDecorator@NEffectUpdateDecorator@@QAPAV12@AAV?$allocator@PAVCRotationDecorator@NEffectUpdateDecorator@@@0@@Z PROC ; std::_Destroy_range<std::allocator<NEffectUpdateDecorator::CRotationDecorator *> >, COMDAT

; 963  :     // note that this is an optimization for debug mode codegen; in release mode the BE removes all of this
; 964  :     using _Ty = typename _Alloc::value_type;
; 965  :     if _CONSTEXPR_IF (!conjunction_v<is_trivially_destructible<_Ty>, _Uses_default_destroy<_Alloc, _Ty*>>) {
; 966  :         for (; _First != _Last; ++_First) {
; 967  :             allocator_traits<_Alloc>::destroy(_Al, _Unfancy(_First));
; 968  :         }
; 969  :     }
; 970  : }

  00000	c2 00 00	 ret	 0
??$_Destroy_range@V?$allocator@PAVCRotationDecorator@NEffectUpdateDecorator@@@std@@@std@@YAXPAPAVCRotationDecorator@NEffectUpdateDecorator@@QAPAV12@AAV?$allocator@PAVCRotationDecorator@NEffectUpdateDecorator@@@0@@Z ENDP ; std::_Destroy_range<std::allocator<NEffectUpdateDecorator::CRotationDecorator *> >
_TEXT	ENDS
; Function compile flags: /Ogtp
; File C:\Program Files (x86)\Microsoft Visual Studio\2019\Community\VC\Tools\MSVC\14.28.29333\include\xmemory
;	COMDAT ??$_Destroy_range@V?$allocator@PAVCGravityDecorator@NEffectUpdateDecorator@@@std@@@std@@YAXPAPAVCGravityDecorator@NEffectUpdateDecorator@@QAPAV12@AAV?$allocator@PAVCGravityDecorator@NEffectUpdateDecorator@@@0@@Z
_TEXT	SEGMENT
__First$ = 8						; size = 4
__Last$ = 12						; size = 4
__Al$ = 16						; size = 4
??$_Destroy_range@V?$allocator@PAVCGravityDecorator@NEffectUpdateDecorator@@@std@@@std@@YAXPAPAVCGravityDecorator@NEffectUpdateDecorator@@QAPAV12@AAV?$allocator@PAVCGravityDecorator@NEffectUpdateDecorator@@@0@@Z PROC ; std::_Destroy_range<std::allocator<NEffectUpdateDecorator::CGravityDecorator *> >, COMDAT

; 963  :     // note that this is an optimization for debug mode codegen; in release mode the BE removes all of this
; 964  :     using _Ty = typename _Alloc::value_type;
; 965  :     if _CONSTEXPR_IF (!conjunction_v<is_trivially_destructible<_Ty>, _Uses_default_destroy<_Alloc, _Ty*>>) {
; 966  :         for (; _First != _Last; ++_First) {
; 967  :             allocator_traits<_Alloc>::destroy(_Al, _Unfancy(_First));
; 968  :         }
; 969  :     }
; 970  : }

  00000	c2 00 00	 ret	 0
??$_Destroy_range@V?$allocator@PAVCGravityDecorator@NEffectUpdateDecorator@@@std@@@std@@YAXPAPAVCGravityDecorator@NEffectUpdateDecorator@@QAPAV12@AAV?$allocator@PAVCGravityDecorator@NEffectUpdateDecorator@@@0@@Z ENDP ; std::_Destroy_range<std::allocator<NEffectUpdateDecorator::CGravityDecorator *> >
_TEXT	ENDS
; Function compile flags: /Ogtp
; File C:\Program Files (x86)\Microsoft Visual Studio\2019\Community\VC\Tools\MSVC\14.28.29333\include\xmemory
;	COMDAT ??$_Destroy_range@V?$allocator@PAVCAirResistanceDecorator@NEffectUpdateDecorator@@@std@@@std@@YAXPAPAVCAirResistanceDecorator@NEffectUpdateDecorator@@QAPAV12@AAV?$allocator@PAVCAirResistanceDecorator@NEffectUpdateDecorator@@@0@@Z
_TEXT	SEGMENT
__First$ = 8						; size = 4
__Last$ = 12						; size = 4
__Al$ = 16						; size = 4
??$_Destroy_range@V?$allocator@PAVCAirResistanceDecorator@NEffectUpdateDecorator@@@std@@@std@@YAXPAPAVCAirResistanceDecorator@NEffectUpdateDecorator@@QAPAV12@AAV?$allocator@PAVCAirResistanceDecorator@NEffectUpdateDecorator@@@0@@Z PROC ; std::_Destroy_range<std::allocator<NEffectUpdateDecorator::CAirResistanceDecorator *> >, COMDAT

; 963  :     // note that this is an optimization for debug mode codegen; in release mode the BE removes all of this
; 964  :     using _Ty = typename _Alloc::value_type;
; 965  :     if _CONSTEXPR_IF (!conjunction_v<is_trivially_destructible<_Ty>, _Uses_default_destroy<_Alloc, _Ty*>>) {
; 966  :         for (; _First != _Last; ++_First) {
; 967  :             allocator_traits<_Alloc>::destroy(_Al, _Unfancy(_First));
; 968  :         }
; 969  :     }
; 970  : }

  00000	c2 00 00	 ret	 0
??$_Destroy_range@V?$allocator@PAVCAirResistanceDecorator@NEffectUpdateDecorator@@@std@@@std@@YAXPAPAVCAirResistanceDecorator@NEffectUpdateDecorator@@QAPAV12@AAV?$allocator@PAVCAirResistanceDecorator@NEffectUpdateDecorator@@@0@@Z ENDP ; std::_Destroy_range<std::allocator<NEffectUpdateDecorator::CAirResistanceDecorator *> >
_TEXT	ENDS
; Function compile flags: /Ogtp
; File C:\Program Files (x86)\Microsoft Visual Studio\2019\Community\VC\Tools\MSVC\14.28.29333\include\xmemory
;	COMDAT ??$_Destroy_range@V?$allocator@PAVCTextureAnimationRandomDecorator@NEffectUpdateDecorator@@@std@@@std@@YAXPAPAVCTextureAnimationRandomDecorator@NEffectUpdateDecorator@@QAPAV12@AAV?$allocator@PAVCTextureAnimationRandomDecorator@NEffectUpdateDecorator@@@0@@Z
_TEXT	SEGMENT
__First$ = 8						; size = 4
__Last$ = 12						; size = 4
__Al$ = 16						; size = 4
??$_Destroy_range@V?$allocator@PAVCTextureAnimationRandomDecorator@NEffectUpdateDecorator@@@std@@@std@@YAXPAPAVCTextureAnimationRandomDecorator@NEffectUpdateDecorator@@QAPAV12@AAV?$allocator@PAVCTextureAnimationRandomDecorator@NEffectUpdateDecorator@@@0@@Z PROC ; std::_Destroy_range<std::allocator<NEffectUpdateDecorator::CTextureAnimationRandomDecorator *> >, COMDAT

; 963  :     // note that this is an optimization for debug mode codegen; in release mode the BE removes all of this
; 964  :     using _Ty = typename _Alloc::value_type;
; 965  :     if _CONSTEXPR_IF (!conjunction_v<is_trivially_destructible<_Ty>, _Uses_default_destroy<_Alloc, _Ty*>>) {
; 966  :         for (; _First != _Last; ++_First) {
; 967  :             allocator_traits<_Alloc>::destroy(_Al, _Unfancy(_First));
; 968  :         }
; 969  :     }
; 970  : }

  00000	c2 00 00	 ret	 0
??$_Destroy_range@V?$allocator@PAVCTextureAnimationRandomDecorator@NEffectUpdateDecorator@@@std@@@std@@YAXPAPAVCTextureAnimationRandomDecorator@NEffectUpdateDecorator@@QAPAV12@AAV?$allocator@PAVCTextureAnimationRandomDecorator@NEffectUpdateDecorator@@@0@@Z ENDP ; std::_Destroy_range<std::allocator<NEffectUpdateDecorator::CTextureAnimationRandomDecorator *> >
_TEXT	ENDS
; Function compile flags: /Ogtp
; File C:\Program Files (x86)\Microsoft Visual Studio\2019\Community\VC\Tools\MSVC\14.28.29333\include\xmemory
;	COMDAT ??$_Destroy_range@V?$allocator@PAVCTextureAnimationCCWDecorator@NEffectUpdateDecorator@@@std@@@std@@YAXPAPAVCTextureAnimationCCWDecorator@NEffectUpdateDecorator@@QAPAV12@AAV?$allocator@PAVCTextureAnimationCCWDecorator@NEffectUpdateDecorator@@@0@@Z
_TEXT	SEGMENT
__First$ = 8						; size = 4
__Last$ = 12						; size = 4
__Al$ = 16						; size = 4
??$_Destroy_range@V?$allocator@PAVCTextureAnimationCCWDecorator@NEffectUpdateDecorator@@@std@@@std@@YAXPAPAVCTextureAnimationCCWDecorator@NEffectUpdateDecorator@@QAPAV12@AAV?$allocator@PAVCTextureAnimationCCWDecorator@NEffectUpdateDecorator@@@0@@Z PROC ; std::_Destroy_range<std::allocator<NEffectUpdateDecorator::CTextureAnimationCCWDecorator *> >, COMDAT

; 963  :     // note that this is an optimization for debug mode codegen; in release mode the BE removes all of this
; 964  :     using _Ty = typename _Alloc::value_type;
; 965  :     if _CONSTEXPR_IF (!conjunction_v<is_trivially_destructible<_Ty>, _Uses_default_destroy<_Alloc, _Ty*>>) {
; 966  :         for (; _First != _Last; ++_First) {
; 967  :             allocator_traits<_Alloc>::destroy(_Al, _Unfancy(_First));
; 968  :         }
; 969  :     }
; 970  : }

  00000	c2 00 00	 ret	 0
??$_Destroy_range@V?$allocator@PAVCTextureAnimationCCWDecorator@NEffectUpdateDecorator@@@std@@@std@@YAXPAPAVCTextureAnimationCCWDecorator@NEffectUpdateDecorator@@QAPAV12@AAV?$allocator@PAVCTextureAnimationCCWDecorator@NEffectUpdateDecorator@@@0@@Z ENDP ; std::_Destroy_range<std::allocator<NEffectUpdateDecorator::CTextureAnimationCCWDecorator *> >
_TEXT	ENDS
; Function compile flags: /Ogtp
; File C:\Program Files (x86)\Microsoft Visual Studio\2019\Community\VC\Tools\MSVC\14.28.29333\include\xmemory
;	COMDAT ??$_Destroy_range@V?$allocator@PAVCTextureAnimationCWDecorator@NEffectUpdateDecorator@@@std@@@std@@YAXPAPAVCTextureAnimationCWDecorator@NEffectUpdateDecorator@@QAPAV12@AAV?$allocator@PAVCTextureAnimationCWDecorator@NEffectUpdateDecorator@@@0@@Z
_TEXT	SEGMENT
__First$ = 8						; size = 4
__Last$ = 12						; size = 4
__Al$ = 16						; size = 4
??$_Destroy_range@V?$allocator@PAVCTextureAnimationCWDecorator@NEffectUpdateDecorator@@@std@@@std@@YAXPAPAVCTextureAnimationCWDecorator@NEffectUpdateDecorator@@QAPAV12@AAV?$allocator@PAVCTextureAnimationCWDecorator@NEffectUpdateDecorator@@@0@@Z PROC ; std::_Destroy_range<std::allocator<NEffectUpdateDecorator::CTextureAnimationCWDecorator *> >, COMDAT

; 963  :     // note that this is an optimization for debug mode codegen; in release mode the BE removes all of this
; 964  :     using _Ty = typename _Alloc::value_type;
; 965  :     if _CONSTEXPR_IF (!conjunction_v<is_trivially_destructible<_Ty>, _Uses_default_destroy<_Alloc, _Ty*>>) {
; 966  :         for (; _First != _Last; ++_First) {
; 967  :             allocator_traits<_Alloc>::destroy(_Al, _Unfancy(_First));
; 968  :         }
; 969  :     }
; 970  : }

  00000	c2 00 00	 ret	 0
??$_Destroy_range@V?$allocator@PAVCTextureAnimationCWDecorator@NEffectUpdateDecorator@@@std@@@std@@YAXPAPAVCTextureAnimationCWDecorator@NEffectUpdateDecorator@@QAPAV12@AAV?$allocator@PAVCTextureAnimationCWDecorator@NEffectUpdateDecorator@@@0@@Z ENDP ; std::_Destroy_range<std::allocator<NEffectUpdateDecorator::CTextureAnimationCWDecorator *> >
_TEXT	ENDS
; Function compile flags: /Ogtp
; File C:\Program Files (x86)\Microsoft Visual Studio\2019\Community\VC\Tools\MSVC\14.28.29333\include\xmemory
;	COMDAT ??$_Destroy_range@V?$allocator@PAVCNullDecorator@NEffectUpdateDecorator@@@std@@@std@@YAXPAPAVCNullDecorator@NEffectUpdateDecorator@@QAPAV12@AAV?$allocator@PAVCNullDecorator@NEffectUpdateDecorator@@@0@@Z
_TEXT	SEGMENT
__First$ = 8						; size = 4
__Last$ = 12						; size = 4
__Al$ = 16						; size = 4
??$_Destroy_range@V?$allocator@PAVCNullDecorator@NEffectUpdateDecorator@@@std@@@std@@YAXPAPAVCNullDecorator@NEffectUpdateDecorator@@QAPAV12@AAV?$allocator@PAVCNullDecorator@NEffectUpdateDecorator@@@0@@Z PROC ; std::_Destroy_range<std::allocator<NEffectUpdateDecorator::CNullDecorator *> >, COMDAT

; 963  :     // note that this is an optimization for debug mode codegen; in release mode the BE removes all of this
; 964  :     using _Ty = typename _Alloc::value_type;
; 965  :     if _CONSTEXPR_IF (!conjunction_v<is_trivially_destructible<_Ty>, _Uses_default_destroy<_Alloc, _Ty*>>) {
; 966  :         for (; _First != _Last; ++_First) {
; 967  :             allocator_traits<_Alloc>::destroy(_Al, _Unfancy(_First));
; 968  :         }
; 969  :     }
; 970  : }

  00000	c2 00 00	 ret	 0
??$_Destroy_range@V?$allocator@PAVCNullDecorator@NEffectUpdateDecorator@@@std@@@std@@YAXPAPAVCNullDecorator@NEffectUpdateDecorator@@QAPAV12@AAV?$allocator@PAVCNullDecorator@NEffectUpdateDecorator@@@0@@Z ENDP ; std::_Destroy_range<std::allocator<NEffectUpdateDecorator::CNullDecorator *> >
_TEXT	ENDS
; Function compile flags: /Ogtp
; File C:\Program Files (x86)\Microsoft Visual Studio\2019\Community\VC\Tools\MSVC\14.28.29333\include\xmemory
;	COMDAT ??$_Destroy_range@V?$allocator@PAVCHeaderDecorator@NEffectUpdateDecorator@@@std@@@std@@YAXPAPAVCHeaderDecorator@NEffectUpdateDecorator@@QAPAV12@AAV?$allocator@PAVCHeaderDecorator@NEffectUpdateDecorator@@@0@@Z
_TEXT	SEGMENT
__First$ = 8						; size = 4
__Last$ = 12						; size = 4
__Al$ = 16						; size = 4
??$_Destroy_range@V?$allocator@PAVCHeaderDecorator@NEffectUpdateDecorator@@@std@@@std@@YAXPAPAVCHeaderDecorator@NEffectUpdateDecorator@@QAPAV12@AAV?$allocator@PAVCHeaderDecorator@NEffectUpdateDecorator@@@0@@Z PROC ; std::_Destroy_range<std::allocator<NEffectUpdateDecorator::CHeaderDecorator *> >, COMDAT

; 963  :     // note that this is an optimization for debug mode codegen; in release mode the BE removes all of this
; 964  :     using _Ty = typename _Alloc::value_type;
; 965  :     if _CONSTEXPR_IF (!conjunction_v<is_trivially_destructible<_Ty>, _Uses_default_destroy<_Alloc, _Ty*>>) {
; 966  :         for (; _First != _Last; ++_First) {
; 967  :             allocator_traits<_Alloc>::destroy(_Al, _Unfancy(_First));
; 968  :         }
; 969  :     }
; 970  : }

  00000	c2 00 00	 ret	 0
??$_Destroy_range@V?$allocator@PAVCHeaderDecorator@NEffectUpdateDecorator@@@std@@@std@@YAXPAPAVCHeaderDecorator@NEffectUpdateDecorator@@QAPAV12@AAV?$allocator@PAVCHeaderDecorator@NEffectUpdateDecorator@@@0@@Z ENDP ; std::_Destroy_range<std::allocator<NEffectUpdateDecorator::CHeaderDecorator *> >
_TEXT	ENDS
; Function compile flags: /Ogtp
;	COMDAT ??_G?$CDynamicPoolEx@VCHeaderDecorator@NEffectUpdateDecorator@@@@UAEPAXI@Z
_TEXT	SEGMENT
___flags$ = 8						; size = 4
??_G?$CDynamicPoolEx@VCHeaderDecorator@NEffectUpdateDecorator@@@@UAEPAXI@Z PROC ; CDynamicPoolEx<NEffectUpdateDecorator::CHeaderDecorator>::`scalar deleting destructor', COMDAT
; _this$ = ecx
  00000	55		 push	 ebp
  00001	8b ec		 mov	 ebp, esp
  00003	56		 push	 esi
  00004	8b f1		 mov	 esi, ecx
  00006	e8 00 00 00 00	 call	 ??1?$CDynamicPoolEx@VCHeaderDecorator@NEffectUpdateDecorator@@@@UAE@XZ ; CDynamicPoolEx<NEffectUpdateDecorator::CHeaderDecorator>::~CDynamicPoolEx<NEffectUpdateDecorator::CHeaderDecorator>
  0000b	f6 45 08 01	 test	 BYTE PTR ___flags$[ebp], 1
  0000f	74 0b		 je	 SHORT $LN4@scalar
  00011	6a 24		 push	 36			; 00000024H
  00013	56		 push	 esi
  00014	e8 00 00 00 00	 call	 ??3@YAXPAXI@Z		; operator delete
  00019	83 c4 08	 add	 esp, 8
$LN4@scalar:
  0001c	8b c6		 mov	 eax, esi
  0001e	5e		 pop	 esi
  0001f	5d		 pop	 ebp
  00020	c2 04 00	 ret	 4
??_G?$CDynamicPoolEx@VCHeaderDecorator@NEffectUpdateDecorator@@@@UAEPAXI@Z ENDP ; CDynamicPoolEx<NEffectUpdateDecorator::CHeaderDecorator>::`scalar deleting destructor'
_TEXT	ENDS
; Function compile flags: /Ogtp
; File D:\Metin2 Server Files\mainline\SRC_2014\Metin2Client\eterLib\Pool.h
;	COMDAT ?Delete@?$CDynamicPoolEx@VCHeaderDecorator@NEffectUpdateDecorator@@@@KAXPAVCHeaderDecorator@NEffectUpdateDecorator@@@Z
_TEXT	SEGMENT
_pkData$ = 8						; size = 4
?Delete@?$CDynamicPoolEx@VCHeaderDecorator@NEffectUpdateDecorator@@@@KAXPAVCHeaderDecorator@NEffectUpdateDecorator@@@Z PROC ; CDynamicPoolEx<NEffectUpdateDecorator::CHeaderDecorator>::Delete, COMDAT

; 224  : 			::operator delete(pkData);

  00000	e9 00 00 00 00	 jmp	 ??3@YAXPAX@Z		; operator delete
?Delete@?$CDynamicPoolEx@VCHeaderDecorator@NEffectUpdateDecorator@@@@KAXPAVCHeaderDecorator@NEffectUpdateDecorator@@@Z ENDP ; CDynamicPoolEx<NEffectUpdateDecorator::CHeaderDecorator>::Delete
_TEXT	ENDS
; Function compile flags: /Ogtp
; File D:\Metin2 Server Files\mainline\SRC_2014\Metin2Client\eterLib\Pool.h
; File C:\Program Files (x86)\Microsoft Visual Studio\2019\Community\VC\Tools\MSVC\14.28.29333\include\vector
; File C:\Program Files (x86)\Microsoft Visual Studio\2019\Community\VC\Tools\MSVC\14.28.29333\include\algorithm
; File D:\Metin2 Server Files\mainline\SRC_2014\Metin2Client\eterLib\Pool.h
; File C:\Program Files (x86)\Microsoft Visual Studio\2019\Community\VC\Tools\MSVC\14.28.29333\include\algorithm
; File D:\Metin2 Server Files\mainline\SRC_2014\Metin2Client\eterLib\Pool.h
; File C:\Program Files (x86)\Microsoft Visual Studio\2019\Community\VC\Tools\MSVC\14.28.29333\include\algorithm
; File D:\Metin2 Server Files\mainline\SRC_2014\Metin2Client\eterLib\Pool.h
; File C:\Program Files (x86)\Microsoft Visual Studio\2019\Community\VC\Tools\MSVC\14.28.29333\include\vector
; File C:\Program Files (x86)\Microsoft Visual Studio\2019\Community\VC\Tools\MSVC\14.28.29333\include\xmemory
; File C:\Program Files (x86)\Microsoft Visual Studio\2019\Community\VC\Tools\MSVC\14.28.29333\include\vector
; File C:\Program Files (x86)\Microsoft Visual Studio\2019\Community\VC\Tools\MSVC\14.28.29333\include\xmemory
; File C:\Program Files (x86)\Microsoft Visual Studio\2019\Community\VC\Tools\MSVC\14.28.29333\include\vector
; File C:\Program Files (x86)\Microsoft Visual Studio\2019\Community\VC\Tools\MSVC\14.28.29333\include\xmemory
; File C:\Program Files (x86)\Microsoft Visual Studio\2019\Community\VC\Tools\MSVC\14.28.29333\include\vector
; File C:\Program Files (x86)\Microsoft Visual Studio\2019\Community\VC\Tools\MSVC\14.28.29333\include\xmemory
; File C:\Program Files (x86)\Microsoft Visual Studio\2019\Community\VC\Tools\MSVC\14.28.29333\include\vector
; File D:\Metin2 Server Files\mainline\SRC_2014\Metin2Client\eterLib\Pool.h
;	COMDAT ??1?$CDynamicPoolEx@VCHeaderDecorator@NEffectUpdateDecorator@@@@UAE@XZ
_TEXT	SEGMENT
??1?$CDynamicPoolEx@VCHeaderDecorator@NEffectUpdateDecorator@@@@UAE@XZ PROC ; CDynamicPoolEx<NEffectUpdateDecorator::CHeaderDecorator>::~CDynamicPoolEx<NEffectUpdateDecorator::CHeaderDecorator>, COMDAT
; _this$ = ecx

; 132  : 		{

  00000	53		 push	 ebx
  00001	56		 push	 esi
  00002	57		 push	 edi
  00003	8b f9		 mov	 edi, ecx
  00005	c7 07 00 00 00
	00		 mov	 DWORD PTR [edi], OFFSET ??_7?$CDynamicPoolEx@VCHeaderDecorator@NEffectUpdateDecorator@@@@6B@
; File C:\Program Files (x86)\Microsoft Visual Studio\2019\Community\VC\Tools\MSVC\14.28.29333\include\vector

; 42   :     _Vector_const_iterator(_Tptr _Parg, const _Container_base* _Pvector) noexcept : _Ptr(_Parg) {

  0000b	8b 5f 08	 mov	 ebx, DWORD PTR [edi+8]
  0000e	8b 77 04	 mov	 esi, DWORD PTR [edi+4]
; File C:\Program Files (x86)\Microsoft Visual Studio\2019\Community\VC\Tools\MSVC\14.28.29333\include\algorithm

; 307  :     for (; _UFirst != _ULast; ++_UFirst) {

  00011	3b f3		 cmp	 esi, ebx
  00013	74 14		 je	 SHORT $LN19@CDynamicPo
$LL20@CDynamicPo:
; File D:\Metin2 Server Files\mainline\SRC_2014\Metin2Client\eterLib\Pool.h

; 224  : 			::operator delete(pkData);

  00015	ff 36		 push	 DWORD PTR [esi]
  00017	e8 00 00 00 00	 call	 ??3@YAXPAX@Z		; operator delete
; File C:\Program Files (x86)\Microsoft Visual Studio\2019\Community\VC\Tools\MSVC\14.28.29333\include\algorithm

; 307  :     for (; _UFirst != _ULast; ++_UFirst) {

  0001c	83 c6 04	 add	 esi, 4
; File D:\Metin2 Server Files\mainline\SRC_2014\Metin2Client\eterLib\Pool.h

; 224  : 			::operator delete(pkData);

  0001f	83 c4 04	 add	 esp, 4
; File C:\Program Files (x86)\Microsoft Visual Studio\2019\Community\VC\Tools\MSVC\14.28.29333\include\algorithm

; 307  :     for (; _UFirst != _ULast; ++_UFirst) {

  00022	3b f3		 cmp	 esi, ebx
  00024	75 ef		 jne	 SHORT $LL20@CDynamicPo
  00026	8b 77 04	 mov	 esi, DWORD PTR [edi+4]
$LN19@CDynamicPo:
; File D:\Metin2 Server Files\mainline\SRC_2014\Metin2Client\eterLib\Pool.h

; 162  : 			m_kVct_pkFree.clear();

  00029	8b 4f 10	 mov	 ecx, DWORD PTR [edi+16]
  0002c	89 77 08	 mov	 DWORD PTR [edi+8], esi
  0002f	89 4f 14	 mov	 DWORD PTR [edi+20], ecx
; File C:\Program Files (x86)\Microsoft Visual Studio\2019\Community\VC\Tools\MSVC\14.28.29333\include\vector

; 1694 :         if (_Myfirst) { // destroy and deallocate old array

  00032	85 c9		 test	 ecx, ecx
  00034	74 27		 je	 SHORT $LN27@CDynamicPo

; 1695 :             _Destroy(_Myfirst, _Mylast);
; 1696 :             _Getal().deallocate(_Myfirst, static_cast<size_type>(_Myend - _Myfirst));

  00036	8b 47 18	 mov	 eax, DWORD PTR [edi+24]
  00039	2b c1		 sub	 eax, ecx
; File C:\Program Files (x86)\Microsoft Visual Studio\2019\Community\VC\Tools\MSVC\14.28.29333\include\xmemory

; 810  :         _Deallocate<_New_alignof<_Ty>>(_Ptr, sizeof(_Ty) * _Count);

  0003b	83 e0 fc	 and	 eax, -4			; fffffffcH
  0003e	50		 push	 eax
  0003f	51		 push	 ecx
  00040	e8 00 00 00 00	 call	 ??$_Deallocate@$07$0A@@std@@YAXPAXI@Z ; std::_Deallocate<8,0>
; File C:\Program Files (x86)\Microsoft Visual Studio\2019\Community\VC\Tools\MSVC\14.28.29333\include\vector

; 1698 :             _Myfirst = pointer();

  00045	c7 47 10 00 00
	00 00		 mov	 DWORD PTR [edi+16], 0
; File C:\Program Files (x86)\Microsoft Visual Studio\2019\Community\VC\Tools\MSVC\14.28.29333\include\xmemory

; 810  :         _Deallocate<_New_alignof<_Ty>>(_Ptr, sizeof(_Ty) * _Count);

  0004c	83 c4 08	 add	 esp, 8
; File C:\Program Files (x86)\Microsoft Visual Studio\2019\Community\VC\Tools\MSVC\14.28.29333\include\vector

; 1699 :             _Mylast  = pointer();

  0004f	c7 47 14 00 00
	00 00		 mov	 DWORD PTR [edi+20], 0

; 1700 :             _Myend   = pointer();

  00056	c7 47 18 00 00
	00 00		 mov	 DWORD PTR [edi+24], 0
$LN27@CDynamicPo:

; 1694 :         if (_Myfirst) { // destroy and deallocate old array

  0005d	8b 4f 04	 mov	 ecx, DWORD PTR [edi+4]
  00060	85 c9		 test	 ecx, ecx
  00062	74 27		 je	 SHORT $LN34@CDynamicPo

; 1695 :             _Destroy(_Myfirst, _Mylast);
; 1696 :             _Getal().deallocate(_Myfirst, static_cast<size_type>(_Myend - _Myfirst));

  00064	8b 47 0c	 mov	 eax, DWORD PTR [edi+12]
  00067	2b c1		 sub	 eax, ecx
; File C:\Program Files (x86)\Microsoft Visual Studio\2019\Community\VC\Tools\MSVC\14.28.29333\include\xmemory

; 810  :         _Deallocate<_New_alignof<_Ty>>(_Ptr, sizeof(_Ty) * _Count);

  00069	83 e0 fc	 and	 eax, -4			; fffffffcH
  0006c	50		 push	 eax
  0006d	51		 push	 ecx
  0006e	e8 00 00 00 00	 call	 ??$_Deallocate@$07$0A@@std@@YAXPAXI@Z ; std::_Deallocate<8,0>
; File C:\Program Files (x86)\Microsoft Visual Studio\2019\Community\VC\Tools\MSVC\14.28.29333\include\vector

; 1698 :             _Myfirst = pointer();

  00073	c7 47 04 00 00
	00 00		 mov	 DWORD PTR [edi+4], 0
; File C:\Program Files (x86)\Microsoft Visual Studio\2019\Community\VC\Tools\MSVC\14.28.29333\include\xmemory

; 810  :         _Deallocate<_New_alignof<_Ty>>(_Ptr, sizeof(_Ty) * _Count);

  0007a	83 c4 08	 add	 esp, 8
; File C:\Program Files (x86)\Microsoft Visual Studio\2019\Community\VC\Tools\MSVC\14.28.29333\include\vector

; 1699 :             _Mylast  = pointer();

  0007d	c7 47 08 00 00
	00 00		 mov	 DWORD PTR [edi+8], 0

; 1700 :             _Myend   = pointer();

  00084	c7 47 0c 00 00
	00 00		 mov	 DWORD PTR [edi+12], 0
$LN34@CDynamicPo:
  0008b	5f		 pop	 edi
; File D:\Metin2 Server Files\mainline\SRC_2014\Metin2Client\eterLib\Pool.h

; 142  : 		}

  0008c	5e		 pop	 esi
  0008d	5b		 pop	 ebx
  0008e	c3		 ret	 0
??1?$CDynamicPoolEx@VCHeaderDecorator@NEffectUpdateDecorator@@@@UAE@XZ ENDP ; CDynamicPoolEx<NEffectUpdateDecorator::CHeaderDecorator>::~CDynamicPoolEx<NEffectUpdateDecorator::CHeaderDecorator>
_TEXT	ENDS
; Function compile flags: /Ogtp
;	COMDAT ??_G?$CDynamicPoolEx@VCNullDecorator@NEffectUpdateDecorator@@@@UAEPAXI@Z
_TEXT	SEGMENT
___flags$ = 8						; size = 4
??_G?$CDynamicPoolEx@VCNullDecorator@NEffectUpdateDecorator@@@@UAEPAXI@Z PROC ; CDynamicPoolEx<NEffectUpdateDecorator::CNullDecorator>::`scalar deleting destructor', COMDAT
; _this$ = ecx
  00000	55		 push	 ebp
  00001	8b ec		 mov	 ebp, esp
  00003	56		 push	 esi
  00004	8b f1		 mov	 esi, ecx
  00006	e8 00 00 00 00	 call	 ??1?$CDynamicPoolEx@VCNullDecorator@NEffectUpdateDecorator@@@@UAE@XZ ; CDynamicPoolEx<NEffectUpdateDecorator::CNullDecorator>::~CDynamicPoolEx<NEffectUpdateDecorator::CNullDecorator>
  0000b	f6 45 08 01	 test	 BYTE PTR ___flags$[ebp], 1
  0000f	74 0b		 je	 SHORT $LN4@scalar
  00011	6a 24		 push	 36			; 00000024H
  00013	56		 push	 esi
  00014	e8 00 00 00 00	 call	 ??3@YAXPAXI@Z		; operator delete
  00019	83 c4 08	 add	 esp, 8
$LN4@scalar:
  0001c	8b c6		 mov	 eax, esi
  0001e	5e		 pop	 esi
  0001f	5d		 pop	 ebp
  00020	c2 04 00	 ret	 4
??_G?$CDynamicPoolEx@VCNullDecorator@NEffectUpdateDecorator@@@@UAEPAXI@Z ENDP ; CDynamicPoolEx<NEffectUpdateDecorator::CNullDecorator>::`scalar deleting destructor'
_TEXT	ENDS
; Function compile flags: /Ogtp
; File D:\Metin2 Server Files\mainline\SRC_2014\Metin2Client\eterLib\Pool.h
;	COMDAT ?Delete@?$CDynamicPoolEx@VCNullDecorator@NEffectUpdateDecorator@@@@KAXPAVCNullDecorator@NEffectUpdateDecorator@@@Z
_TEXT	SEGMENT
_pkData$ = 8						; size = 4
?Delete@?$CDynamicPoolEx@VCNullDecorator@NEffectUpdateDecorator@@@@KAXPAVCNullDecorator@NEffectUpdateDecorator@@@Z PROC ; CDynamicPoolEx<NEffectUpdateDecorator::CNullDecorator>::Delete, COMDAT

; 224  : 			::operator delete(pkData);

  00000	e9 00 00 00 00	 jmp	 ??3@YAXPAX@Z		; operator delete
?Delete@?$CDynamicPoolEx@VCNullDecorator@NEffectUpdateDecorator@@@@KAXPAVCNullDecorator@NEffectUpdateDecorator@@@Z ENDP ; CDynamicPoolEx<NEffectUpdateDecorator::CNullDecorator>::Delete
_TEXT	ENDS
; Function compile flags: /Ogtp
; File D:\Metin2 Server Files\mainline\SRC_2014\Metin2Client\eterLib\Pool.h
; File C:\Program Files (x86)\Microsoft Visual Studio\2019\Community\VC\Tools\MSVC\14.28.29333\include\vector
; File C:\Program Files (x86)\Microsoft Visual Studio\2019\Community\VC\Tools\MSVC\14.28.29333\include\algorithm
; File D:\Metin2 Server Files\mainline\SRC_2014\Metin2Client\eterLib\Pool.h
; File C:\Program Files (x86)\Microsoft Visual Studio\2019\Community\VC\Tools\MSVC\14.28.29333\include\algorithm
; File D:\Metin2 Server Files\mainline\SRC_2014\Metin2Client\eterLib\Pool.h
; File C:\Program Files (x86)\Microsoft Visual Studio\2019\Community\VC\Tools\MSVC\14.28.29333\include\algorithm
; File D:\Metin2 Server Files\mainline\SRC_2014\Metin2Client\eterLib\Pool.h
; File C:\Program Files (x86)\Microsoft Visual Studio\2019\Community\VC\Tools\MSVC\14.28.29333\include\vector
; File C:\Program Files (x86)\Microsoft Visual Studio\2019\Community\VC\Tools\MSVC\14.28.29333\include\xmemory
; File C:\Program Files (x86)\Microsoft Visual Studio\2019\Community\VC\Tools\MSVC\14.28.29333\include\vector
; File C:\Program Files (x86)\Microsoft Visual Studio\2019\Community\VC\Tools\MSVC\14.28.29333\include\xmemory
; File C:\Program Files (x86)\Microsoft Visual Studio\2019\Community\VC\Tools\MSVC\14.28.29333\include\vector
; File C:\Program Files (x86)\Microsoft Visual Studio\2019\Community\VC\Tools\MSVC\14.28.29333\include\xmemory
; File C:\Program Files (x86)\Microsoft Visual Studio\2019\Community\VC\Tools\MSVC\14.28.29333\include\vector
; File C:\Program Files (x86)\Microsoft Visual Studio\2019\Community\VC\Tools\MSVC\14.28.29333\include\xmemory
; File C:\Program Files (x86)\Microsoft Visual Studio\2019\Community\VC\Tools\MSVC\14.28.29333\include\vector
; File D:\Metin2 Server Files\mainline\SRC_2014\Metin2Client\eterLib\Pool.h
;	COMDAT ??1?$CDynamicPoolEx@VCNullDecorator@NEffectUpdateDecorator@@@@UAE@XZ
_TEXT	SEGMENT
??1?$CDynamicPoolEx@VCNullDecorator@NEffectUpdateDecorator@@@@UAE@XZ PROC ; CDynamicPoolEx<NEffectUpdateDecorator::CNullDecorator>::~CDynamicPoolEx<NEffectUpdateDecorator::CNullDecorator>, COMDAT
; _this$ = ecx

; 132  : 		{

  00000	53		 push	 ebx
  00001	56		 push	 esi
  00002	57		 push	 edi
  00003	8b f9		 mov	 edi, ecx
  00005	c7 07 00 00 00
	00		 mov	 DWORD PTR [edi], OFFSET ??_7?$CDynamicPoolEx@VCNullDecorator@NEffectUpdateDecorator@@@@6B@
; File C:\Program Files (x86)\Microsoft Visual Studio\2019\Community\VC\Tools\MSVC\14.28.29333\include\vector

; 42   :     _Vector_const_iterator(_Tptr _Parg, const _Container_base* _Pvector) noexcept : _Ptr(_Parg) {

  0000b	8b 5f 08	 mov	 ebx, DWORD PTR [edi+8]
  0000e	8b 77 04	 mov	 esi, DWORD PTR [edi+4]
; File C:\Program Files (x86)\Microsoft Visual Studio\2019\Community\VC\Tools\MSVC\14.28.29333\include\algorithm

; 307  :     for (; _UFirst != _ULast; ++_UFirst) {

  00011	3b f3		 cmp	 esi, ebx
  00013	74 14		 je	 SHORT $LN19@CDynamicPo
$LL20@CDynamicPo:
; File D:\Metin2 Server Files\mainline\SRC_2014\Metin2Client\eterLib\Pool.h

; 224  : 			::operator delete(pkData);

  00015	ff 36		 push	 DWORD PTR [esi]
  00017	e8 00 00 00 00	 call	 ??3@YAXPAX@Z		; operator delete
; File C:\Program Files (x86)\Microsoft Visual Studio\2019\Community\VC\Tools\MSVC\14.28.29333\include\algorithm

; 307  :     for (; _UFirst != _ULast; ++_UFirst) {

  0001c	83 c6 04	 add	 esi, 4
; File D:\Metin2 Server Files\mainline\SRC_2014\Metin2Client\eterLib\Pool.h

; 224  : 			::operator delete(pkData);

  0001f	83 c4 04	 add	 esp, 4
; File C:\Program Files (x86)\Microsoft Visual Studio\2019\Community\VC\Tools\MSVC\14.28.29333\include\algorithm

; 307  :     for (; _UFirst != _ULast; ++_UFirst) {

  00022	3b f3		 cmp	 esi, ebx
  00024	75 ef		 jne	 SHORT $LL20@CDynamicPo
  00026	8b 77 04	 mov	 esi, DWORD PTR [edi+4]
$LN19@CDynamicPo:
; File D:\Metin2 Server Files\mainline\SRC_2014\Metin2Client\eterLib\Pool.h

; 162  : 			m_kVct_pkFree.clear();

  00029	8b 4f 10	 mov	 ecx, DWORD PTR [edi+16]
  0002c	89 77 08	 mov	 DWORD PTR [edi+8], esi
  0002f	89 4f 14	 mov	 DWORD PTR [edi+20], ecx
; File C:\Program Files (x86)\Microsoft Visual Studio\2019\Community\VC\Tools\MSVC\14.28.29333\include\vector

; 1694 :         if (_Myfirst) { // destroy and deallocate old array

  00032	85 c9		 test	 ecx, ecx
  00034	74 27		 je	 SHORT $LN27@CDynamicPo

; 1695 :             _Destroy(_Myfirst, _Mylast);
; 1696 :             _Getal().deallocate(_Myfirst, static_cast<size_type>(_Myend - _Myfirst));

  00036	8b 47 18	 mov	 eax, DWORD PTR [edi+24]
  00039	2b c1		 sub	 eax, ecx
; File C:\Program Files (x86)\Microsoft Visual Studio\2019\Community\VC\Tools\MSVC\14.28.29333\include\xmemory

; 810  :         _Deallocate<_New_alignof<_Ty>>(_Ptr, sizeof(_Ty) * _Count);

  0003b	83 e0 fc	 and	 eax, -4			; fffffffcH
  0003e	50		 push	 eax
  0003f	51		 push	 ecx
  00040	e8 00 00 00 00	 call	 ??$_Deallocate@$07$0A@@std@@YAXPAXI@Z ; std::_Deallocate<8,0>
; File C:\Program Files (x86)\Microsoft Visual Studio\2019\Community\VC\Tools\MSVC\14.28.29333\include\vector

; 1698 :             _Myfirst = pointer();

  00045	c7 47 10 00 00
	00 00		 mov	 DWORD PTR [edi+16], 0
; File C:\Program Files (x86)\Microsoft Visual Studio\2019\Community\VC\Tools\MSVC\14.28.29333\include\xmemory

; 810  :         _Deallocate<_New_alignof<_Ty>>(_Ptr, sizeof(_Ty) * _Count);

  0004c	83 c4 08	 add	 esp, 8
; File C:\Program Files (x86)\Microsoft Visual Studio\2019\Community\VC\Tools\MSVC\14.28.29333\include\vector

; 1699 :             _Mylast  = pointer();

  0004f	c7 47 14 00 00
	00 00		 mov	 DWORD PTR [edi+20], 0

; 1700 :             _Myend   = pointer();

  00056	c7 47 18 00 00
	00 00		 mov	 DWORD PTR [edi+24], 0
$LN27@CDynamicPo:

; 1694 :         if (_Myfirst) { // destroy and deallocate old array

  0005d	8b 4f 04	 mov	 ecx, DWORD PTR [edi+4]
  00060	85 c9		 test	 ecx, ecx
  00062	74 27		 je	 SHORT $LN34@CDynamicPo

; 1695 :             _Destroy(_Myfirst, _Mylast);
; 1696 :             _Getal().deallocate(_Myfirst, static_cast<size_type>(_Myend - _Myfirst));

  00064	8b 47 0c	 mov	 eax, DWORD PTR [edi+12]
  00067	2b c1		 sub	 eax, ecx
; File C:\Program Files (x86)\Microsoft Visual Studio\2019\Community\VC\Tools\MSVC\14.28.29333\include\xmemory

; 810  :         _Deallocate<_New_alignof<_Ty>>(_Ptr, sizeof(_Ty) * _Count);

  00069	83 e0 fc	 and	 eax, -4			; fffffffcH
  0006c	50		 push	 eax
  0006d	51		 push	 ecx
  0006e	e8 00 00 00 00	 call	 ??$_Deallocate@$07$0A@@std@@YAXPAXI@Z ; std::_Deallocate<8,0>
; File C:\Program Files (x86)\Microsoft Visual Studio\2019\Community\VC\Tools\MSVC\14.28.29333\include\vector

; 1698 :             _Myfirst = pointer();

  00073	c7 47 04 00 00
	00 00		 mov	 DWORD PTR [edi+4], 0
; File C:\Program Files (x86)\Microsoft Visual Studio\2019\Community\VC\Tools\MSVC\14.28.29333\include\xmemory

; 810  :         _Deallocate<_New_alignof<_Ty>>(_Ptr, sizeof(_Ty) * _Count);

  0007a	83 c4 08	 add	 esp, 8
; File C:\Program Files (x86)\Microsoft Visual Studio\2019\Community\VC\Tools\MSVC\14.28.29333\include\vector

; 1699 :             _Mylast  = pointer();

  0007d	c7 47 08 00 00
	00 00		 mov	 DWORD PTR [edi+8], 0

; 1700 :             _Myend   = pointer();

  00084	c7 47 0c 00 00
	00 00		 mov	 DWORD PTR [edi+12], 0
$LN34@CDynamicPo:
  0008b	5f		 pop	 edi
; File D:\Metin2 Server Files\mainline\SRC_2014\Metin2Client\eterLib\Pool.h

; 142  : 		}

  0008c	5e		 pop	 esi
  0008d	5b		 pop	 ebx
  0008e	c3		 ret	 0
??1?$CDynamicPoolEx@VCNullDecorator@NEffectUpdateDecorator@@@@UAE@XZ ENDP ; CDynamicPoolEx<NEffectUpdateDecorator::CNullDecorator>::~CDynamicPoolEx<NEffectUpdateDecorator::CNullDecorator>
_TEXT	ENDS
; Function compile flags: /Ogtp
;	COMDAT ??_G?$CDynamicPoolEx@VCTextureAnimationCWDecorator@NEffectUpdateDecorator@@@@UAEPAXI@Z
_TEXT	SEGMENT
___flags$ = 8						; size = 4
??_G?$CDynamicPoolEx@VCTextureAnimationCWDecorator@NEffectUpdateDecorator@@@@UAEPAXI@Z PROC ; CDynamicPoolEx<NEffectUpdateDecorator::CTextureAnimationCWDecorator>::`scalar deleting destructor', COMDAT
; _this$ = ecx
  00000	55		 push	 ebp
  00001	8b ec		 mov	 ebp, esp
  00003	56		 push	 esi
  00004	8b f1		 mov	 esi, ecx
  00006	e8 00 00 00 00	 call	 ??1?$CDynamicPoolEx@VCTextureAnimationCWDecorator@NEffectUpdateDecorator@@@@UAE@XZ ; CDynamicPoolEx<NEffectUpdateDecorator::CTextureAnimationCWDecorator>::~CDynamicPoolEx<NEffectUpdateDecorator::CTextureAnimationCWDecorator>
  0000b	f6 45 08 01	 test	 BYTE PTR ___flags$[ebp], 1
  0000f	74 0b		 je	 SHORT $LN4@scalar
  00011	6a 24		 push	 36			; 00000024H
  00013	56		 push	 esi
  00014	e8 00 00 00 00	 call	 ??3@YAXPAXI@Z		; operator delete
  00019	83 c4 08	 add	 esp, 8
$LN4@scalar:
  0001c	8b c6		 mov	 eax, esi
  0001e	5e		 pop	 esi
  0001f	5d		 pop	 ebp
  00020	c2 04 00	 ret	 4
??_G?$CDynamicPoolEx@VCTextureAnimationCWDecorator@NEffectUpdateDecorator@@@@UAEPAXI@Z ENDP ; CDynamicPoolEx<NEffectUpdateDecorator::CTextureAnimationCWDecorator>::`scalar deleting destructor'
_TEXT	ENDS
; Function compile flags: /Ogtp
; File D:\Metin2 Server Files\mainline\SRC_2014\Metin2Client\eterLib\Pool.h
;	COMDAT ?Delete@?$CDynamicPoolEx@VCTextureAnimationCWDecorator@NEffectUpdateDecorator@@@@KAXPAVCTextureAnimationCWDecorator@NEffectUpdateDecorator@@@Z
_TEXT	SEGMENT
_pkData$ = 8						; size = 4
?Delete@?$CDynamicPoolEx@VCTextureAnimationCWDecorator@NEffectUpdateDecorator@@@@KAXPAVCTextureAnimationCWDecorator@NEffectUpdateDecorator@@@Z PROC ; CDynamicPoolEx<NEffectUpdateDecorator::CTextureAnimationCWDecorator>::Delete, COMDAT

; 224  : 			::operator delete(pkData);

  00000	e9 00 00 00 00	 jmp	 ??3@YAXPAX@Z		; operator delete
?Delete@?$CDynamicPoolEx@VCTextureAnimationCWDecorator@NEffectUpdateDecorator@@@@KAXPAVCTextureAnimationCWDecorator@NEffectUpdateDecorator@@@Z ENDP ; CDynamicPoolEx<NEffectUpdateDecorator::CTextureAnimationCWDecorator>::Delete
_TEXT	ENDS
; Function compile flags: /Ogtp
; File D:\Metin2 Server Files\mainline\SRC_2014\Metin2Client\eterLib\Pool.h
; File C:\Program Files (x86)\Microsoft Visual Studio\2019\Community\VC\Tools\MSVC\14.28.29333\include\vector
; File C:\Program Files (x86)\Microsoft Visual Studio\2019\Community\VC\Tools\MSVC\14.28.29333\include\algorithm
; File D:\Metin2 Server Files\mainline\SRC_2014\Metin2Client\eterLib\Pool.h
; File C:\Program Files (x86)\Microsoft Visual Studio\2019\Community\VC\Tools\MSVC\14.28.29333\include\algorithm
; File D:\Metin2 Server Files\mainline\SRC_2014\Metin2Client\eterLib\Pool.h
; File C:\Program Files (x86)\Microsoft Visual Studio\2019\Community\VC\Tools\MSVC\14.28.29333\include\algorithm
; File D:\Metin2 Server Files\mainline\SRC_2014\Metin2Client\eterLib\Pool.h
; File C:\Program Files (x86)\Microsoft Visual Studio\2019\Community\VC\Tools\MSVC\14.28.29333\include\vector
; File C:\Program Files (x86)\Microsoft Visual Studio\2019\Community\VC\Tools\MSVC\14.28.29333\include\xmemory
; File C:\Program Files (x86)\Microsoft Visual Studio\2019\Community\VC\Tools\MSVC\14.28.29333\include\vector
; File C:\Program Files (x86)\Microsoft Visual Studio\2019\Community\VC\Tools\MSVC\14.28.29333\include\xmemory
; File C:\Program Files (x86)\Microsoft Visual Studio\2019\Community\VC\Tools\MSVC\14.28.29333\include\vector
; File C:\Program Files (x86)\Microsoft Visual Studio\2019\Community\VC\Tools\MSVC\14.28.29333\include\xmemory
; File C:\Program Files (x86)\Microsoft Visual Studio\2019\Community\VC\Tools\MSVC\14.28.29333\include\vector
; File C:\Program Files (x86)\Microsoft Visual Studio\2019\Community\VC\Tools\MSVC\14.28.29333\include\xmemory
; File C:\Program Files (x86)\Microsoft Visual Studio\2019\Community\VC\Tools\MSVC\14.28.29333\include\vector
; File D:\Metin2 Server Files\mainline\SRC_2014\Metin2Client\eterLib\Pool.h
;	COMDAT ??1?$CDynamicPoolEx@VCTextureAnimationCWDecorator@NEffectUpdateDecorator@@@@UAE@XZ
_TEXT	SEGMENT
??1?$CDynamicPoolEx@VCTextureAnimationCWDecorator@NEffectUpdateDecorator@@@@UAE@XZ PROC ; CDynamicPoolEx<NEffectUpdateDecorator::CTextureAnimationCWDecorator>::~CDynamicPoolEx<NEffectUpdateDecorator::CTextureAnimationCWDecorator>, COMDAT
; _this$ = ecx

; 132  : 		{

  00000	53		 push	 ebx
  00001	56		 push	 esi
  00002	57		 push	 edi
  00003	8b f9		 mov	 edi, ecx
  00005	c7 07 00 00 00
	00		 mov	 DWORD PTR [edi], OFFSET ??_7?$CDynamicPoolEx@VCTextureAnimationCWDecorator@NEffectUpdateDecorator@@@@6B@
; File C:\Program Files (x86)\Microsoft Visual Studio\2019\Community\VC\Tools\MSVC\14.28.29333\include\vector

; 42   :     _Vector_const_iterator(_Tptr _Parg, const _Container_base* _Pvector) noexcept : _Ptr(_Parg) {

  0000b	8b 5f 08	 mov	 ebx, DWORD PTR [edi+8]
  0000e	8b 77 04	 mov	 esi, DWORD PTR [edi+4]
; File C:\Program Files (x86)\Microsoft Visual Studio\2019\Community\VC\Tools\MSVC\14.28.29333\include\algorithm

; 307  :     for (; _UFirst != _ULast; ++_UFirst) {

  00011	3b f3		 cmp	 esi, ebx
  00013	74 14		 je	 SHORT $LN19@CDynamicPo
$LL20@CDynamicPo:
; File D:\Metin2 Server Files\mainline\SRC_2014\Metin2Client\eterLib\Pool.h

; 224  : 			::operator delete(pkData);

  00015	ff 36		 push	 DWORD PTR [esi]
  00017	e8 00 00 00 00	 call	 ??3@YAXPAX@Z		; operator delete
; File C:\Program Files (x86)\Microsoft Visual Studio\2019\Community\VC\Tools\MSVC\14.28.29333\include\algorithm

; 307  :     for (; _UFirst != _ULast; ++_UFirst) {

  0001c	83 c6 04	 add	 esi, 4
; File D:\Metin2 Server Files\mainline\SRC_2014\Metin2Client\eterLib\Pool.h

; 224  : 			::operator delete(pkData);

  0001f	83 c4 04	 add	 esp, 4
; File C:\Program Files (x86)\Microsoft Visual Studio\2019\Community\VC\Tools\MSVC\14.28.29333\include\algorithm

; 307  :     for (; _UFirst != _ULast; ++_UFirst) {

  00022	3b f3		 cmp	 esi, ebx
  00024	75 ef		 jne	 SHORT $LL20@CDynamicPo
  00026	8b 77 04	 mov	 esi, DWORD PTR [edi+4]
$LN19@CDynamicPo:
; File D:\Metin2 Server Files\mainline\SRC_2014\Metin2Client\eterLib\Pool.h

; 162  : 			m_kVct_pkFree.clear();

  00029	8b 4f 10	 mov	 ecx, DWORD PTR [edi+16]
  0002c	89 77 08	 mov	 DWORD PTR [edi+8], esi
  0002f	89 4f 14	 mov	 DWORD PTR [edi+20], ecx
; File C:\Program Files (x86)\Microsoft Visual Studio\2019\Community\VC\Tools\MSVC\14.28.29333\include\vector

; 1694 :         if (_Myfirst) { // destroy and deallocate old array

  00032	85 c9		 test	 ecx, ecx
  00034	74 27		 je	 SHORT $LN27@CDynamicPo

; 1695 :             _Destroy(_Myfirst, _Mylast);
; 1696 :             _Getal().deallocate(_Myfirst, static_cast<size_type>(_Myend - _Myfirst));

  00036	8b 47 18	 mov	 eax, DWORD PTR [edi+24]
  00039	2b c1		 sub	 eax, ecx
; File C:\Program Files (x86)\Microsoft Visual Studio\2019\Community\VC\Tools\MSVC\14.28.29333\include\xmemory

; 810  :         _Deallocate<_New_alignof<_Ty>>(_Ptr, sizeof(_Ty) * _Count);

  0003b	83 e0 fc	 and	 eax, -4			; fffffffcH
  0003e	50		 push	 eax
  0003f	51		 push	 ecx
  00040	e8 00 00 00 00	 call	 ??$_Deallocate@$07$0A@@std@@YAXPAXI@Z ; std::_Deallocate<8,0>
; File C:\Program Files (x86)\Microsoft Visual Studio\2019\Community\VC\Tools\MSVC\14.28.29333\include\vector

; 1698 :             _Myfirst = pointer();

  00045	c7 47 10 00 00
	00 00		 mov	 DWORD PTR [edi+16], 0
; File C:\Program Files (x86)\Microsoft Visual Studio\2019\Community\VC\Tools\MSVC\14.28.29333\include\xmemory

; 810  :         _Deallocate<_New_alignof<_Ty>>(_Ptr, sizeof(_Ty) * _Count);

  0004c	83 c4 08	 add	 esp, 8
; File C:\Program Files (x86)\Microsoft Visual Studio\2019\Community\VC\Tools\MSVC\14.28.29333\include\vector

; 1699 :             _Mylast  = pointer();

  0004f	c7 47 14 00 00
	00 00		 mov	 DWORD PTR [edi+20], 0

; 1700 :             _Myend   = pointer();

  00056	c7 47 18 00 00
	00 00		 mov	 DWORD PTR [edi+24], 0
$LN27@CDynamicPo:

; 1694 :         if (_Myfirst) { // destroy and deallocate old array

  0005d	8b 4f 04	 mov	 ecx, DWORD PTR [edi+4]
  00060	85 c9		 test	 ecx, ecx
  00062	74 27		 je	 SHORT $LN34@CDynamicPo

; 1695 :             _Destroy(_Myfirst, _Mylast);
; 1696 :             _Getal().deallocate(_Myfirst, static_cast<size_type>(_Myend - _Myfirst));

  00064	8b 47 0c	 mov	 eax, DWORD PTR [edi+12]
  00067	2b c1		 sub	 eax, ecx
; File C:\Program Files (x86)\Microsoft Visual Studio\2019\Community\VC\Tools\MSVC\14.28.29333\include\xmemory

; 810  :         _Deallocate<_New_alignof<_Ty>>(_Ptr, sizeof(_Ty) * _Count);

  00069	83 e0 fc	 and	 eax, -4			; fffffffcH
  0006c	50		 push	 eax
  0006d	51		 push	 ecx
  0006e	e8 00 00 00 00	 call	 ??$_Deallocate@$07$0A@@std@@YAXPAXI@Z ; std::_Deallocate<8,0>
; File C:\Program Files (x86)\Microsoft Visual Studio\2019\Community\VC\Tools\MSVC\14.28.29333\include\vector

; 1698 :             _Myfirst = pointer();

  00073	c7 47 04 00 00
	00 00		 mov	 DWORD PTR [edi+4], 0
; File C:\Program Files (x86)\Microsoft Visual Studio\2019\Community\VC\Tools\MSVC\14.28.29333\include\xmemory

; 810  :         _Deallocate<_New_alignof<_Ty>>(_Ptr, sizeof(_Ty) * _Count);

  0007a	83 c4 08	 add	 esp, 8
; File C:\Program Files (x86)\Microsoft Visual Studio\2019\Community\VC\Tools\MSVC\14.28.29333\include\vector

; 1699 :             _Mylast  = pointer();

  0007d	c7 47 08 00 00
	00 00		 mov	 DWORD PTR [edi+8], 0

; 1700 :             _Myend   = pointer();

  00084	c7 47 0c 00 00
	00 00		 mov	 DWORD PTR [edi+12], 0
$LN34@CDynamicPo:
  0008b	5f		 pop	 edi
; File D:\Metin2 Server Files\mainline\SRC_2014\Metin2Client\eterLib\Pool.h

; 142  : 		}

  0008c	5e		 pop	 esi
  0008d	5b		 pop	 ebx
  0008e	c3		 ret	 0
??1?$CDynamicPoolEx@VCTextureAnimationCWDecorator@NEffectUpdateDecorator@@@@UAE@XZ ENDP ; CDynamicPoolEx<NEffectUpdateDecorator::CTextureAnimationCWDecorator>::~CDynamicPoolEx<NEffectUpdateDecorator::CTextureAnimationCWDecorator>
_TEXT	ENDS
; Function compile flags: /Ogtp
;	COMDAT ??_G?$CDynamicPoolEx@VCTextureAnimationCCWDecorator@NEffectUpdateDecorator@@@@UAEPAXI@Z
_TEXT	SEGMENT
___flags$ = 8						; size = 4
??_G?$CDynamicPoolEx@VCTextureAnimationCCWDecorator@NEffectUpdateDecorator@@@@UAEPAXI@Z PROC ; CDynamicPoolEx<NEffectUpdateDecorator::CTextureAnimationCCWDecorator>::`scalar deleting destructor', COMDAT
; _this$ = ecx
  00000	55		 push	 ebp
  00001	8b ec		 mov	 ebp, esp
  00003	56		 push	 esi
  00004	8b f1		 mov	 esi, ecx
  00006	e8 00 00 00 00	 call	 ??1?$CDynamicPoolEx@VCTextureAnimationCCWDecorator@NEffectUpdateDecorator@@@@UAE@XZ ; CDynamicPoolEx<NEffectUpdateDecorator::CTextureAnimationCCWDecorator>::~CDynamicPoolEx<NEffectUpdateDecorator::CTextureAnimationCCWDecorator>
  0000b	f6 45 08 01	 test	 BYTE PTR ___flags$[ebp], 1
  0000f	74 0b		 je	 SHORT $LN4@scalar
  00011	6a 24		 push	 36			; 00000024H
  00013	56		 push	 esi
  00014	e8 00 00 00 00	 call	 ??3@YAXPAXI@Z		; operator delete
  00019	83 c4 08	 add	 esp, 8
$LN4@scalar:
  0001c	8b c6		 mov	 eax, esi
  0001e	5e		 pop	 esi
  0001f	5d		 pop	 ebp
  00020	c2 04 00	 ret	 4
??_G?$CDynamicPoolEx@VCTextureAnimationCCWDecorator@NEffectUpdateDecorator@@@@UAEPAXI@Z ENDP ; CDynamicPoolEx<NEffectUpdateDecorator::CTextureAnimationCCWDecorator>::`scalar deleting destructor'
_TEXT	ENDS
; Function compile flags: /Ogtp
; File D:\Metin2 Server Files\mainline\SRC_2014\Metin2Client\eterLib\Pool.h
;	COMDAT ?Delete@?$CDynamicPoolEx@VCTextureAnimationCCWDecorator@NEffectUpdateDecorator@@@@KAXPAVCTextureAnimationCCWDecorator@NEffectUpdateDecorator@@@Z
_TEXT	SEGMENT
_pkData$ = 8						; size = 4
?Delete@?$CDynamicPoolEx@VCTextureAnimationCCWDecorator@NEffectUpdateDecorator@@@@KAXPAVCTextureAnimationCCWDecorator@NEffectUpdateDecorator@@@Z PROC ; CDynamicPoolEx<NEffectUpdateDecorator::CTextureAnimationCCWDecorator>::Delete, COMDAT

; 224  : 			::operator delete(pkData);

  00000	e9 00 00 00 00	 jmp	 ??3@YAXPAX@Z		; operator delete
?Delete@?$CDynamicPoolEx@VCTextureAnimationCCWDecorator@NEffectUpdateDecorator@@@@KAXPAVCTextureAnimationCCWDecorator@NEffectUpdateDecorator@@@Z ENDP ; CDynamicPoolEx<NEffectUpdateDecorator::CTextureAnimationCCWDecorator>::Delete
_TEXT	ENDS
; Function compile flags: /Ogtp
; File D:\Metin2 Server Files\mainline\SRC_2014\Metin2Client\eterLib\Pool.h
; File C:\Program Files (x86)\Microsoft Visual Studio\2019\Community\VC\Tools\MSVC\14.28.29333\include\vector
; File C:\Program Files (x86)\Microsoft Visual Studio\2019\Community\VC\Tools\MSVC\14.28.29333\include\algorithm
; File D:\Metin2 Server Files\mainline\SRC_2014\Metin2Client\eterLib\Pool.h
; File C:\Program Files (x86)\Microsoft Visual Studio\2019\Community\VC\Tools\MSVC\14.28.29333\include\algorithm
; File D:\Metin2 Server Files\mainline\SRC_2014\Metin2Client\eterLib\Pool.h
; File C:\Program Files (x86)\Microsoft Visual Studio\2019\Community\VC\Tools\MSVC\14.28.29333\include\algorithm
; File D:\Metin2 Server Files\mainline\SRC_2014\Metin2Client\eterLib\Pool.h
; File C:\Program Files (x86)\Microsoft Visual Studio\2019\Community\VC\Tools\MSVC\14.28.29333\include\vector
; File C:\Program Files (x86)\Microsoft Visual Studio\2019\Community\VC\Tools\MSVC\14.28.29333\include\xmemory
; File C:\Program Files (x86)\Microsoft Visual Studio\2019\Community\VC\Tools\MSVC\14.28.29333\include\vector
; File C:\Program Files (x86)\Microsoft Visual Studio\2019\Community\VC\Tools\MSVC\14.28.29333\include\xmemory
; File C:\Program Files (x86)\Microsoft Visual Studio\2019\Community\VC\Tools\MSVC\14.28.29333\include\vector
; File C:\Program Files (x86)\Microsoft Visual Studio\2019\Community\VC\Tools\MSVC\14.28.29333\include\xmemory
; File C:\Program Files (x86)\Microsoft Visual Studio\2019\Community\VC\Tools\MSVC\14.28.29333\include\vector
; File C:\Program Files (x86)\Microsoft Visual Studio\2019\Community\VC\Tools\MSVC\14.28.29333\include\xmemory
; File C:\Program Files (x86)\Microsoft Visual Studio\2019\Community\VC\Tools\MSVC\14.28.29333\include\vector
; File D:\Metin2 Server Files\mainline\SRC_2014\Metin2Client\eterLib\Pool.h
;	COMDAT ??1?$CDynamicPoolEx@VCTextureAnimationCCWDecorator@NEffectUpdateDecorator@@@@UAE@XZ
_TEXT	SEGMENT
??1?$CDynamicPoolEx@VCTextureAnimationCCWDecorator@NEffectUpdateDecorator@@@@UAE@XZ PROC ; CDynamicPoolEx<NEffectUpdateDecorator::CTextureAnimationCCWDecorator>::~CDynamicPoolEx<NEffectUpdateDecorator::CTextureAnimationCCWDecorator>, COMDAT
; _this$ = ecx

; 132  : 		{

  00000	53		 push	 ebx
  00001	56		 push	 esi
  00002	57		 push	 edi
  00003	8b f9		 mov	 edi, ecx
  00005	c7 07 00 00 00
	00		 mov	 DWORD PTR [edi], OFFSET ??_7?$CDynamicPoolEx@VCTextureAnimationCCWDecorator@NEffectUpdateDecorator@@@@6B@
; File C:\Program Files (x86)\Microsoft Visual Studio\2019\Community\VC\Tools\MSVC\14.28.29333\include\vector

; 42   :     _Vector_const_iterator(_Tptr _Parg, const _Container_base* _Pvector) noexcept : _Ptr(_Parg) {

  0000b	8b 5f 08	 mov	 ebx, DWORD PTR [edi+8]
  0000e	8b 77 04	 mov	 esi, DWORD PTR [edi+4]
; File C:\Program Files (x86)\Microsoft Visual Studio\2019\Community\VC\Tools\MSVC\14.28.29333\include\algorithm

; 307  :     for (; _UFirst != _ULast; ++_UFirst) {

  00011	3b f3		 cmp	 esi, ebx
  00013	74 14		 je	 SHORT $LN19@CDynamicPo
$LL20@CDynamicPo:
; File D:\Metin2 Server Files\mainline\SRC_2014\Metin2Client\eterLib\Pool.h

; 224  : 			::operator delete(pkData);

  00015	ff 36		 push	 DWORD PTR [esi]
  00017	e8 00 00 00 00	 call	 ??3@YAXPAX@Z		; operator delete
; File C:\Program Files (x86)\Microsoft Visual Studio\2019\Community\VC\Tools\MSVC\14.28.29333\include\algorithm

; 307  :     for (; _UFirst != _ULast; ++_UFirst) {

  0001c	83 c6 04	 add	 esi, 4
; File D:\Metin2 Server Files\mainline\SRC_2014\Metin2Client\eterLib\Pool.h

; 224  : 			::operator delete(pkData);

  0001f	83 c4 04	 add	 esp, 4
; File C:\Program Files (x86)\Microsoft Visual Studio\2019\Community\VC\Tools\MSVC\14.28.29333\include\algorithm

; 307  :     for (; _UFirst != _ULast; ++_UFirst) {

  00022	3b f3		 cmp	 esi, ebx
  00024	75 ef		 jne	 SHORT $LL20@CDynamicPo
  00026	8b 77 04	 mov	 esi, DWORD PTR [edi+4]
$LN19@CDynamicPo:
; File D:\Metin2 Server Files\mainline\SRC_2014\Metin2Client\eterLib\Pool.h

; 162  : 			m_kVct_pkFree.clear();

  00029	8b 4f 10	 mov	 ecx, DWORD PTR [edi+16]
  0002c	89 77 08	 mov	 DWORD PTR [edi+8], esi
  0002f	89 4f 14	 mov	 DWORD PTR [edi+20], ecx
; File C:\Program Files (x86)\Microsoft Visual Studio\2019\Community\VC\Tools\MSVC\14.28.29333\include\vector

; 1694 :         if (_Myfirst) { // destroy and deallocate old array

  00032	85 c9		 test	 ecx, ecx
  00034	74 27		 je	 SHORT $LN27@CDynamicPo

; 1695 :             _Destroy(_Myfirst, _Mylast);
; 1696 :             _Getal().deallocate(_Myfirst, static_cast<size_type>(_Myend - _Myfirst));

  00036	8b 47 18	 mov	 eax, DWORD PTR [edi+24]
  00039	2b c1		 sub	 eax, ecx
; File C:\Program Files (x86)\Microsoft Visual Studio\2019\Community\VC\Tools\MSVC\14.28.29333\include\xmemory

; 810  :         _Deallocate<_New_alignof<_Ty>>(_Ptr, sizeof(_Ty) * _Count);

  0003b	83 e0 fc	 and	 eax, -4			; fffffffcH
  0003e	50		 push	 eax
  0003f	51		 push	 ecx
  00040	e8 00 00 00 00	 call	 ??$_Deallocate@$07$0A@@std@@YAXPAXI@Z ; std::_Deallocate<8,0>
; File C:\Program Files (x86)\Microsoft Visual Studio\2019\Community\VC\Tools\MSVC\14.28.29333\include\vector

; 1698 :             _Myfirst = pointer();

  00045	c7 47 10 00 00
	00 00		 mov	 DWORD PTR [edi+16], 0
; File C:\Program Files (x86)\Microsoft Visual Studio\2019\Community\VC\Tools\MSVC\14.28.29333\include\xmemory

; 810  :         _Deallocate<_New_alignof<_Ty>>(_Ptr, sizeof(_Ty) * _Count);

  0004c	83 c4 08	 add	 esp, 8
; File C:\Program Files (x86)\Microsoft Visual Studio\2019\Community\VC\Tools\MSVC\14.28.29333\include\vector

; 1699 :             _Mylast  = pointer();

  0004f	c7 47 14 00 00
	00 00		 mov	 DWORD PTR [edi+20], 0

; 1700 :             _Myend   = pointer();

  00056	c7 47 18 00 00
	00 00		 mov	 DWORD PTR [edi+24], 0
$LN27@CDynamicPo:

; 1694 :         if (_Myfirst) { // destroy and deallocate old array

  0005d	8b 4f 04	 mov	 ecx, DWORD PTR [edi+4]
  00060	85 c9		 test	 ecx, ecx
  00062	74 27		 je	 SHORT $LN34@CDynamicPo

; 1695 :             _Destroy(_Myfirst, _Mylast);
; 1696 :             _Getal().deallocate(_Myfirst, static_cast<size_type>(_Myend - _Myfirst));

  00064	8b 47 0c	 mov	 eax, DWORD PTR [edi+12]
  00067	2b c1		 sub	 eax, ecx
; File C:\Program Files (x86)\Microsoft Visual Studio\2019\Community\VC\Tools\MSVC\14.28.29333\include\xmemory

; 810  :         _Deallocate<_New_alignof<_Ty>>(_Ptr, sizeof(_Ty) * _Count);

  00069	83 e0 fc	 and	 eax, -4			; fffffffcH
  0006c	50		 push	 eax
  0006d	51		 push	 ecx
  0006e	e8 00 00 00 00	 call	 ??$_Deallocate@$07$0A@@std@@YAXPAXI@Z ; std::_Deallocate<8,0>
; File C:\Program Files (x86)\Microsoft Visual Studio\2019\Community\VC\Tools\MSVC\14.28.29333\include\vector

; 1698 :             _Myfirst = pointer();

  00073	c7 47 04 00 00
	00 00		 mov	 DWORD PTR [edi+4], 0
; File C:\Program Files (x86)\Microsoft Visual Studio\2019\Community\VC\Tools\MSVC\14.28.29333\include\xmemory

; 810  :         _Deallocate<_New_alignof<_Ty>>(_Ptr, sizeof(_Ty) * _Count);

  0007a	83 c4 08	 add	 esp, 8
; File C:\Program Files (x86)\Microsoft Visual Studio\2019\Community\VC\Tools\MSVC\14.28.29333\include\vector

; 1699 :             _Mylast  = pointer();

  0007d	c7 47 08 00 00
	00 00		 mov	 DWORD PTR [edi+8], 0

; 1700 :             _Myend   = pointer();

  00084	c7 47 0c 00 00
	00 00		 mov	 DWORD PTR [edi+12], 0
$LN34@CDynamicPo:
  0008b	5f		 pop	 edi
; File D:\Metin2 Server Files\mainline\SRC_2014\Metin2Client\eterLib\Pool.h

; 142  : 		}

  0008c	5e		 pop	 esi
  0008d	5b		 pop	 ebx
  0008e	c3		 ret	 0
??1?$CDynamicPoolEx@VCTextureAnimationCCWDecorator@NEffectUpdateDecorator@@@@UAE@XZ ENDP ; CDynamicPoolEx<NEffectUpdateDecorator::CTextureAnimationCCWDecorator>::~CDynamicPoolEx<NEffectUpdateDecorator::CTextureAnimationCCWDecorator>
_TEXT	ENDS
; Function compile flags: /Ogtp
;	COMDAT ??_G?$CDynamicPoolEx@VCTextureAnimationRandomDecorator@NEffectUpdateDecorator@@@@UAEPAXI@Z
_TEXT	SEGMENT
___flags$ = 8						; size = 4
??_G?$CDynamicPoolEx@VCTextureAnimationRandomDecorator@NEffectUpdateDecorator@@@@UAEPAXI@Z PROC ; CDynamicPoolEx<NEffectUpdateDecorator::CTextureAnimationRandomDecorator>::`scalar deleting destructor', COMDAT
; _this$ = ecx
  00000	55		 push	 ebp
  00001	8b ec		 mov	 ebp, esp
  00003	56		 push	 esi
  00004	8b f1		 mov	 esi, ecx
  00006	e8 00 00 00 00	 call	 ??1?$CDynamicPoolEx@VCTextureAnimationRandomDecorator@NEffectUpdateDecorator@@@@UAE@XZ ; CDynamicPoolEx<NEffectUpdateDecorator::CTextureAnimationRandomDecorator>::~CDynamicPoolEx<NEffectUpdateDecorator::CTextureAnimationRandomDecorator>
  0000b	f6 45 08 01	 test	 BYTE PTR ___flags$[ebp], 1
  0000f	74 0b		 je	 SHORT $LN4@scalar
  00011	6a 24		 push	 36			; 00000024H
  00013	56		 push	 esi
  00014	e8 00 00 00 00	 call	 ??3@YAXPAXI@Z		; operator delete
  00019	83 c4 08	 add	 esp, 8
$LN4@scalar:
  0001c	8b c6		 mov	 eax, esi
  0001e	5e		 pop	 esi
  0001f	5d		 pop	 ebp
  00020	c2 04 00	 ret	 4
??_G?$CDynamicPoolEx@VCTextureAnimationRandomDecorator@NEffectUpdateDecorator@@@@UAEPAXI@Z ENDP ; CDynamicPoolEx<NEffectUpdateDecorator::CTextureAnimationRandomDecorator>::`scalar deleting destructor'
_TEXT	ENDS
; Function compile flags: /Ogtp
; File D:\Metin2 Server Files\mainline\SRC_2014\Metin2Client\eterLib\Pool.h
;	COMDAT ?Delete@?$CDynamicPoolEx@VCTextureAnimationRandomDecorator@NEffectUpdateDecorator@@@@KAXPAVCTextureAnimationRandomDecorator@NEffectUpdateDecorator@@@Z
_TEXT	SEGMENT
_pkData$ = 8						; size = 4
?Delete@?$CDynamicPoolEx@VCTextureAnimationRandomDecorator@NEffectUpdateDecorator@@@@KAXPAVCTextureAnimationRandomDecorator@NEffectUpdateDecorator@@@Z PROC ; CDynamicPoolEx<NEffectUpdateDecorator::CTextureAnimationRandomDecorator>::Delete, COMDAT

; 224  : 			::operator delete(pkData);

  00000	e9 00 00 00 00	 jmp	 ??3@YAXPAX@Z		; operator delete
?Delete@?$CDynamicPoolEx@VCTextureAnimationRandomDecorator@NEffectUpdateDecorator@@@@KAXPAVCTextureAnimationRandomDecorator@NEffectUpdateDecorator@@@Z ENDP ; CDynamicPoolEx<NEffectUpdateDecorator::CTextureAnimationRandomDecorator>::Delete
_TEXT	ENDS
; Function compile flags: /Ogtp
; File D:\Metin2 Server Files\mainline\SRC_2014\Metin2Client\eterLib\Pool.h
; File C:\Program Files (x86)\Microsoft Visual Studio\2019\Community\VC\Tools\MSVC\14.28.29333\include\vector
; File C:\Program Files (x86)\Microsoft Visual Studio\2019\Community\VC\Tools\MSVC\14.28.29333\include\algorithm
; File D:\Metin2 Server Files\mainline\SRC_2014\Metin2Client\eterLib\Pool.h
; File C:\Program Files (x86)\Microsoft Visual Studio\2019\Community\VC\Tools\MSVC\14.28.29333\include\algorithm
; File D:\Metin2 Server Files\mainline\SRC_2014\Metin2Client\eterLib\Pool.h
; File C:\Program Files (x86)\Microsoft Visual Studio\2019\Community\VC\Tools\MSVC\14.28.29333\include\algorithm
; File D:\Metin2 Server Files\mainline\SRC_2014\Metin2Client\eterLib\Pool.h
; File C:\Program Files (x86)\Microsoft Visual Studio\2019\Community\VC\Tools\MSVC\14.28.29333\include\vector
; File C:\Program Files (x86)\Microsoft Visual Studio\2019\Community\VC\Tools\MSVC\14.28.29333\include\xmemory
; File C:\Program Files (x86)\Microsoft Visual Studio\2019\Community\VC\Tools\MSVC\14.28.29333\include\vector
; File C:\Program Files (x86)\Microsoft Visual Studio\2019\Community\VC\Tools\MSVC\14.28.29333\include\xmemory
; File C:\Program Files (x86)\Microsoft Visual Studio\2019\Community\VC\Tools\MSVC\14.28.29333\include\vector
; File C:\Program Files (x86)\Microsoft Visual Studio\2019\Community\VC\Tools\MSVC\14.28.29333\include\xmemory
; File C:\Program Files (x86)\Microsoft Visual Studio\2019\Community\VC\Tools\MSVC\14.28.29333\include\vector
; File C:\Program Files (x86)\Microsoft Visual Studio\2019\Community\VC\Tools\MSVC\14.28.29333\include\xmemory
; File C:\Program Files (x86)\Microsoft Visual Studio\2019\Community\VC\Tools\MSVC\14.28.29333\include\vector
; File D:\Metin2 Server Files\mainline\SRC_2014\Metin2Client\eterLib\Pool.h
;	COMDAT ??1?$CDynamicPoolEx@VCTextureAnimationRandomDecorator@NEffectUpdateDecorator@@@@UAE@XZ
_TEXT	SEGMENT
??1?$CDynamicPoolEx@VCTextureAnimationRandomDecorator@NEffectUpdateDecorator@@@@UAE@XZ PROC ; CDynamicPoolEx<NEffectUpdateDecorator::CTextureAnimationRandomDecorator>::~CDynamicPoolEx<NEffectUpdateDecorator::CTextureAnimationRandomDecorator>, COMDAT
; _this$ = ecx

; 132  : 		{

  00000	53		 push	 ebx
  00001	56		 push	 esi
  00002	57		 push	 edi
  00003	8b f9		 mov	 edi, ecx
  00005	c7 07 00 00 00
	00		 mov	 DWORD PTR [edi], OFFSET ??_7?$CDynamicPoolEx@VCTextureAnimationRandomDecorator@NEffectUpdateDecorator@@@@6B@
; File C:\Program Files (x86)\Microsoft Visual Studio\2019\Community\VC\Tools\MSVC\14.28.29333\include\vector

; 42   :     _Vector_const_iterator(_Tptr _Parg, const _Container_base* _Pvector) noexcept : _Ptr(_Parg) {

  0000b	8b 5f 08	 mov	 ebx, DWORD PTR [edi+8]
  0000e	8b 77 04	 mov	 esi, DWORD PTR [edi+4]
; File C:\Program Files (x86)\Microsoft Visual Studio\2019\Community\VC\Tools\MSVC\14.28.29333\include\algorithm

; 307  :     for (; _UFirst != _ULast; ++_UFirst) {

  00011	3b f3		 cmp	 esi, ebx
  00013	74 14		 je	 SHORT $LN19@CDynamicPo
$LL20@CDynamicPo:
; File D:\Metin2 Server Files\mainline\SRC_2014\Metin2Client\eterLib\Pool.h

; 224  : 			::operator delete(pkData);

  00015	ff 36		 push	 DWORD PTR [esi]
  00017	e8 00 00 00 00	 call	 ??3@YAXPAX@Z		; operator delete
; File C:\Program Files (x86)\Microsoft Visual Studio\2019\Community\VC\Tools\MSVC\14.28.29333\include\algorithm

; 307  :     for (; _UFirst != _ULast; ++_UFirst) {

  0001c	83 c6 04	 add	 esi, 4
; File D:\Metin2 Server Files\mainline\SRC_2014\Metin2Client\eterLib\Pool.h

; 224  : 			::operator delete(pkData);

  0001f	83 c4 04	 add	 esp, 4
; File C:\Program Files (x86)\Microsoft Visual Studio\2019\Community\VC\Tools\MSVC\14.28.29333\include\algorithm

; 307  :     for (; _UFirst != _ULast; ++_UFirst) {

  00022	3b f3		 cmp	 esi, ebx
  00024	75 ef		 jne	 SHORT $LL20@CDynamicPo
  00026	8b 77 04	 mov	 esi, DWORD PTR [edi+4]
$LN19@CDynamicPo:
; File D:\Metin2 Server Files\mainline\SRC_2014\Metin2Client\eterLib\Pool.h

; 162  : 			m_kVct_pkFree.clear();

  00029	8b 4f 10	 mov	 ecx, DWORD PTR [edi+16]
  0002c	89 77 08	 mov	 DWORD PTR [edi+8], esi
  0002f	89 4f 14	 mov	 DWORD PTR [edi+20], ecx
; File C:\Program Files (x86)\Microsoft Visual Studio\2019\Community\VC\Tools\MSVC\14.28.29333\include\vector

; 1694 :         if (_Myfirst) { // destroy and deallocate old array

  00032	85 c9		 test	 ecx, ecx
  00034	74 27		 je	 SHORT $LN27@CDynamicPo

; 1695 :             _Destroy(_Myfirst, _Mylast);
; 1696 :             _Getal().deallocate(_Myfirst, static_cast<size_type>(_Myend - _Myfirst));

  00036	8b 47 18	 mov	 eax, DWORD PTR [edi+24]
  00039	2b c1		 sub	 eax, ecx
; File C:\Program Files (x86)\Microsoft Visual Studio\2019\Community\VC\Tools\MSVC\14.28.29333\include\xmemory

; 810  :         _Deallocate<_New_alignof<_Ty>>(_Ptr, sizeof(_Ty) * _Count);

  0003b	83 e0 fc	 and	 eax, -4			; fffffffcH
  0003e	50		 push	 eax
  0003f	51		 push	 ecx
  00040	e8 00 00 00 00	 call	 ??$_Deallocate@$07$0A@@std@@YAXPAXI@Z ; std::_Deallocate<8,0>
; File C:\Program Files (x86)\Microsoft Visual Studio\2019\Community\VC\Tools\MSVC\14.28.29333\include\vector

; 1698 :             _Myfirst = pointer();

  00045	c7 47 10 00 00
	00 00		 mov	 DWORD PTR [edi+16], 0
; File C:\Program Files (x86)\Microsoft Visual Studio\2019\Community\VC\Tools\MSVC\14.28.29333\include\xmemory

; 810  :         _Deallocate<_New_alignof<_Ty>>(_Ptr, sizeof(_Ty) * _Count);

  0004c	83 c4 08	 add	 esp, 8
; File C:\Program Files (x86)\Microsoft Visual Studio\2019\Community\VC\Tools\MSVC\14.28.29333\include\vector

; 1699 :             _Mylast  = pointer();

  0004f	c7 47 14 00 00
	00 00		 mov	 DWORD PTR [edi+20], 0

; 1700 :             _Myend   = pointer();

  00056	c7 47 18 00 00
	00 00		 mov	 DWORD PTR [edi+24], 0
$LN27@CDynamicPo:

; 1694 :         if (_Myfirst) { // destroy and deallocate old array

  0005d	8b 4f 04	 mov	 ecx, DWORD PTR [edi+4]
  00060	85 c9		 test	 ecx, ecx
  00062	74 27		 je	 SHORT $LN34@CDynamicPo

; 1695 :             _Destroy(_Myfirst, _Mylast);
; 1696 :             _Getal().deallocate(_Myfirst, static_cast<size_type>(_Myend - _Myfirst));

  00064	8b 47 0c	 mov	 eax, DWORD PTR [edi+12]
  00067	2b c1		 sub	 eax, ecx
; File C:\Program Files (x86)\Microsoft Visual Studio\2019\Community\VC\Tools\MSVC\14.28.29333\include\xmemory

; 810  :         _Deallocate<_New_alignof<_Ty>>(_Ptr, sizeof(_Ty) * _Count);

  00069	83 e0 fc	 and	 eax, -4			; fffffffcH
  0006c	50		 push	 eax
  0006d	51		 push	 ecx
  0006e	e8 00 00 00 00	 call	 ??$_Deallocate@$07$0A@@std@@YAXPAXI@Z ; std::_Deallocate<8,0>
; File C:\Program Files (x86)\Microsoft Visual Studio\2019\Community\VC\Tools\MSVC\14.28.29333\include\vector

; 1698 :             _Myfirst = pointer();

  00073	c7 47 04 00 00
	00 00		 mov	 DWORD PTR [edi+4], 0
; File C:\Program Files (x86)\Microsoft Visual Studio\2019\Community\VC\Tools\MSVC\14.28.29333\include\xmemory

; 810  :         _Deallocate<_New_alignof<_Ty>>(_Ptr, sizeof(_Ty) * _Count);

  0007a	83 c4 08	 add	 esp, 8
; File C:\Program Files (x86)\Microsoft Visual Studio\2019\Community\VC\Tools\MSVC\14.28.29333\include\vector

; 1699 :             _Mylast  = pointer();

  0007d	c7 47 08 00 00
	00 00		 mov	 DWORD PTR [edi+8], 0

; 1700 :             _Myend   = pointer();

  00084	c7 47 0c 00 00
	00 00		 mov	 DWORD PTR [edi+12], 0
$LN34@CDynamicPo:
  0008b	5f		 pop	 edi
; File D:\Metin2 Server Files\mainline\SRC_2014\Metin2Client\eterLib\Pool.h

; 142  : 		}

  0008c	5e		 pop	 esi
  0008d	5b		 pop	 ebx
  0008e	c3		 ret	 0
??1?$CDynamicPoolEx@VCTextureAnimationRandomDecorator@NEffectUpdateDecorator@@@@UAE@XZ ENDP ; CDynamicPoolEx<NEffectUpdateDecorator::CTextureAnimationRandomDecorator>::~CDynamicPoolEx<NEffectUpdateDecorator::CTextureAnimationRandomDecorator>
_TEXT	ENDS
; Function compile flags: /Ogtp
;	COMDAT ??_G?$CDynamicPoolEx@VCAirResistanceDecorator@NEffectUpdateDecorator@@@@UAEPAXI@Z
_TEXT	SEGMENT
___flags$ = 8						; size = 4
??_G?$CDynamicPoolEx@VCAirResistanceDecorator@NEffectUpdateDecorator@@@@UAEPAXI@Z PROC ; CDynamicPoolEx<NEffectUpdateDecorator::CAirResistanceDecorator>::`scalar deleting destructor', COMDAT
; _this$ = ecx
  00000	55		 push	 ebp
  00001	8b ec		 mov	 ebp, esp
  00003	56		 push	 esi
  00004	8b f1		 mov	 esi, ecx
  00006	e8 00 00 00 00	 call	 ??1?$CDynamicPoolEx@VCAirResistanceDecorator@NEffectUpdateDecorator@@@@UAE@XZ ; CDynamicPoolEx<NEffectUpdateDecorator::CAirResistanceDecorator>::~CDynamicPoolEx<NEffectUpdateDecorator::CAirResistanceDecorator>
  0000b	f6 45 08 01	 test	 BYTE PTR ___flags$[ebp], 1
  0000f	74 0b		 je	 SHORT $LN4@scalar
  00011	6a 24		 push	 36			; 00000024H
  00013	56		 push	 esi
  00014	e8 00 00 00 00	 call	 ??3@YAXPAXI@Z		; operator delete
  00019	83 c4 08	 add	 esp, 8
$LN4@scalar:
  0001c	8b c6		 mov	 eax, esi
  0001e	5e		 pop	 esi
  0001f	5d		 pop	 ebp
  00020	c2 04 00	 ret	 4
??_G?$CDynamicPoolEx@VCAirResistanceDecorator@NEffectUpdateDecorator@@@@UAEPAXI@Z ENDP ; CDynamicPoolEx<NEffectUpdateDecorator::CAirResistanceDecorator>::`scalar deleting destructor'
_TEXT	ENDS
; Function compile flags: /Ogtp
; File D:\Metin2 Server Files\mainline\SRC_2014\Metin2Client\eterLib\Pool.h
;	COMDAT ?Delete@?$CDynamicPoolEx@VCAirResistanceDecorator@NEffectUpdateDecorator@@@@KAXPAVCAirResistanceDecorator@NEffectUpdateDecorator@@@Z
_TEXT	SEGMENT
_pkData$ = 8						; size = 4
?Delete@?$CDynamicPoolEx@VCAirResistanceDecorator@NEffectUpdateDecorator@@@@KAXPAVCAirResistanceDecorator@NEffectUpdateDecorator@@@Z PROC ; CDynamicPoolEx<NEffectUpdateDecorator::CAirResistanceDecorator>::Delete, COMDAT

; 224  : 			::operator delete(pkData);

  00000	e9 00 00 00 00	 jmp	 ??3@YAXPAX@Z		; operator delete
?Delete@?$CDynamicPoolEx@VCAirResistanceDecorator@NEffectUpdateDecorator@@@@KAXPAVCAirResistanceDecorator@NEffectUpdateDecorator@@@Z ENDP ; CDynamicPoolEx<NEffectUpdateDecorator::CAirResistanceDecorator>::Delete
_TEXT	ENDS
; Function compile flags: /Ogtp
; File D:\Metin2 Server Files\mainline\SRC_2014\Metin2Client\eterLib\Pool.h
; File C:\Program Files (x86)\Microsoft Visual Studio\2019\Community\VC\Tools\MSVC\14.28.29333\include\vector
; File C:\Program Files (x86)\Microsoft Visual Studio\2019\Community\VC\Tools\MSVC\14.28.29333\include\algorithm
; File D:\Metin2 Server Files\mainline\SRC_2014\Metin2Client\eterLib\Pool.h
; File C:\Program Files (x86)\Microsoft Visual Studio\2019\Community\VC\Tools\MSVC\14.28.29333\include\algorithm
; File D:\Metin2 Server Files\mainline\SRC_2014\Metin2Client\eterLib\Pool.h
; File C:\Program Files (x86)\Microsoft Visual Studio\2019\Community\VC\Tools\MSVC\14.28.29333\include\algorithm
; File D:\Metin2 Server Files\mainline\SRC_2014\Metin2Client\eterLib\Pool.h
; File C:\Program Files (x86)\Microsoft Visual Studio\2019\Community\VC\Tools\MSVC\14.28.29333\include\vector
; File C:\Program Files (x86)\Microsoft Visual Studio\2019\Community\VC\Tools\MSVC\14.28.29333\include\xmemory
; File C:\Program Files (x86)\Microsoft Visual Studio\2019\Community\VC\Tools\MSVC\14.28.29333\include\vector
; File C:\Program Files (x86)\Microsoft Visual Studio\2019\Community\VC\Tools\MSVC\14.28.29333\include\xmemory
; File C:\Program Files (x86)\Microsoft Visual Studio\2019\Community\VC\Tools\MSVC\14.28.29333\include\vector
; File C:\Program Files (x86)\Microsoft Visual Studio\2019\Community\VC\Tools\MSVC\14.28.29333\include\xmemory
; File C:\Program Files (x86)\Microsoft Visual Studio\2019\Community\VC\Tools\MSVC\14.28.29333\include\vector
; File C:\Program Files (x86)\Microsoft Visual Studio\2019\Community\VC\Tools\MSVC\14.28.29333\include\xmemory
; File C:\Program Files (x86)\Microsoft Visual Studio\2019\Community\VC\Tools\MSVC\14.28.29333\include\vector
; File D:\Metin2 Server Files\mainline\SRC_2014\Metin2Client\eterLib\Pool.h
;	COMDAT ??1?$CDynamicPoolEx@VCAirResistanceDecorator@NEffectUpdateDecorator@@@@UAE@XZ
_TEXT	SEGMENT
??1?$CDynamicPoolEx@VCAirResistanceDecorator@NEffectUpdateDecorator@@@@UAE@XZ PROC ; CDynamicPoolEx<NEffectUpdateDecorator::CAirResistanceDecorator>::~CDynamicPoolEx<NEffectUpdateDecorator::CAirResistanceDecorator>, COMDAT
; _this$ = ecx

; 132  : 		{

  00000	53		 push	 ebx
  00001	56		 push	 esi
  00002	57		 push	 edi
  00003	8b f9		 mov	 edi, ecx
  00005	c7 07 00 00 00
	00		 mov	 DWORD PTR [edi], OFFSET ??_7?$CDynamicPoolEx@VCAirResistanceDecorator@NEffectUpdateDecorator@@@@6B@
; File C:\Program Files (x86)\Microsoft Visual Studio\2019\Community\VC\Tools\MSVC\14.28.29333\include\vector

; 42   :     _Vector_const_iterator(_Tptr _Parg, const _Container_base* _Pvector) noexcept : _Ptr(_Parg) {

  0000b	8b 5f 08	 mov	 ebx, DWORD PTR [edi+8]
  0000e	8b 77 04	 mov	 esi, DWORD PTR [edi+4]
; File C:\Program Files (x86)\Microsoft Visual Studio\2019\Community\VC\Tools\MSVC\14.28.29333\include\algorithm

; 307  :     for (; _UFirst != _ULast; ++_UFirst) {

  00011	3b f3		 cmp	 esi, ebx
  00013	74 14		 je	 SHORT $LN19@CDynamicPo
$LL20@CDynamicPo:
; File D:\Metin2 Server Files\mainline\SRC_2014\Metin2Client\eterLib\Pool.h

; 224  : 			::operator delete(pkData);

  00015	ff 36		 push	 DWORD PTR [esi]
  00017	e8 00 00 00 00	 call	 ??3@YAXPAX@Z		; operator delete
; File C:\Program Files (x86)\Microsoft Visual Studio\2019\Community\VC\Tools\MSVC\14.28.29333\include\algorithm

; 307  :     for (; _UFirst != _ULast; ++_UFirst) {

  0001c	83 c6 04	 add	 esi, 4
; File D:\Metin2 Server Files\mainline\SRC_2014\Metin2Client\eterLib\Pool.h

; 224  : 			::operator delete(pkData);

  0001f	83 c4 04	 add	 esp, 4
; File C:\Program Files (x86)\Microsoft Visual Studio\2019\Community\VC\Tools\MSVC\14.28.29333\include\algorithm

; 307  :     for (; _UFirst != _ULast; ++_UFirst) {

  00022	3b f3		 cmp	 esi, ebx
  00024	75 ef		 jne	 SHORT $LL20@CDynamicPo
  00026	8b 77 04	 mov	 esi, DWORD PTR [edi+4]
$LN19@CDynamicPo:
; File D:\Metin2 Server Files\mainline\SRC_2014\Metin2Client\eterLib\Pool.h

; 162  : 			m_kVct_pkFree.clear();

  00029	8b 4f 10	 mov	 ecx, DWORD PTR [edi+16]
  0002c	89 77 08	 mov	 DWORD PTR [edi+8], esi
  0002f	89 4f 14	 mov	 DWORD PTR [edi+20], ecx
; File C:\Program Files (x86)\Microsoft Visual Studio\2019\Community\VC\Tools\MSVC\14.28.29333\include\vector

; 1694 :         if (_Myfirst) { // destroy and deallocate old array

  00032	85 c9		 test	 ecx, ecx
  00034	74 27		 je	 SHORT $LN27@CDynamicPo

; 1695 :             _Destroy(_Myfirst, _Mylast);
; 1696 :             _Getal().deallocate(_Myfirst, static_cast<size_type>(_Myend - _Myfirst));

  00036	8b 47 18	 mov	 eax, DWORD PTR [edi+24]
  00039	2b c1		 sub	 eax, ecx
; File C:\Program Files (x86)\Microsoft Visual Studio\2019\Community\VC\Tools\MSVC\14.28.29333\include\xmemory

; 810  :         _Deallocate<_New_alignof<_Ty>>(_Ptr, sizeof(_Ty) * _Count);

  0003b	83 e0 fc	 and	 eax, -4			; fffffffcH
  0003e	50		 push	 eax
  0003f	51		 push	 ecx
  00040	e8 00 00 00 00	 call	 ??$_Deallocate@$07$0A@@std@@YAXPAXI@Z ; std::_Deallocate<8,0>
; File C:\Program Files (x86)\Microsoft Visual Studio\2019\Community\VC\Tools\MSVC\14.28.29333\include\vector

; 1698 :             _Myfirst = pointer();

  00045	c7 47 10 00 00
	00 00		 mov	 DWORD PTR [edi+16], 0
; File C:\Program Files (x86)\Microsoft Visual Studio\2019\Community\VC\Tools\MSVC\14.28.29333\include\xmemory

; 810  :         _Deallocate<_New_alignof<_Ty>>(_Ptr, sizeof(_Ty) * _Count);

  0004c	83 c4 08	 add	 esp, 8
; File C:\Program Files (x86)\Microsoft Visual Studio\2019\Community\VC\Tools\MSVC\14.28.29333\include\vector

; 1699 :             _Mylast  = pointer();

  0004f	c7 47 14 00 00
	00 00		 mov	 DWORD PTR [edi+20], 0

; 1700 :             _Myend   = pointer();

  00056	c7 47 18 00 00
	00 00		 mov	 DWORD PTR [edi+24], 0
$LN27@CDynamicPo:

; 1694 :         if (_Myfirst) { // destroy and deallocate old array

  0005d	8b 4f 04	 mov	 ecx, DWORD PTR [edi+4]
  00060	85 c9		 test	 ecx, ecx
  00062	74 27		 je	 SHORT $LN34@CDynamicPo

; 1695 :             _Destroy(_Myfirst, _Mylast);
; 1696 :             _Getal().deallocate(_Myfirst, static_cast<size_type>(_Myend - _Myfirst));

  00064	8b 47 0c	 mov	 eax, DWORD PTR [edi+12]
  00067	2b c1		 sub	 eax, ecx
; File C:\Program Files (x86)\Microsoft Visual Studio\2019\Community\VC\Tools\MSVC\14.28.29333\include\xmemory

; 810  :         _Deallocate<_New_alignof<_Ty>>(_Ptr, sizeof(_Ty) * _Count);

  00069	83 e0 fc	 and	 eax, -4			; fffffffcH
  0006c	50		 push	 eax
  0006d	51		 push	 ecx
  0006e	e8 00 00 00 00	 call	 ??$_Deallocate@$07$0A@@std@@YAXPAXI@Z ; std::_Deallocate<8,0>
; File C:\Program Files (x86)\Microsoft Visual Studio\2019\Community\VC\Tools\MSVC\14.28.29333\include\vector

; 1698 :             _Myfirst = pointer();

  00073	c7 47 04 00 00
	00 00		 mov	 DWORD PTR [edi+4], 0
; File C:\Program Files (x86)\Microsoft Visual Studio\2019\Community\VC\Tools\MSVC\14.28.29333\include\xmemory

; 810  :         _Deallocate<_New_alignof<_Ty>>(_Ptr, sizeof(_Ty) * _Count);

  0007a	83 c4 08	 add	 esp, 8
; File C:\Program Files (x86)\Microsoft Visual Studio\2019\Community\VC\Tools\MSVC\14.28.29333\include\vector

; 1699 :             _Mylast  = pointer();

  0007d	c7 47 08 00 00
	00 00		 mov	 DWORD PTR [edi+8], 0

; 1700 :             _Myend   = pointer();

  00084	c7 47 0c 00 00
	00 00		 mov	 DWORD PTR [edi+12], 0
$LN34@CDynamicPo:
  0008b	5f		 pop	 edi
; File D:\Metin2 Server Files\mainline\SRC_2014\Metin2Client\eterLib\Pool.h

; 142  : 		}

  0008c	5e		 pop	 esi
  0008d	5b		 pop	 ebx
  0008e	c3		 ret	 0
??1?$CDynamicPoolEx@VCAirResistanceDecorator@NEffectUpdateDecorator@@@@UAE@XZ ENDP ; CDynamicPoolEx<NEffectUpdateDecorator::CAirResistanceDecorator>::~CDynamicPoolEx<NEffectUpdateDecorator::CAirResistanceDecorator>
_TEXT	ENDS
; Function compile flags: /Ogtp
;	COMDAT ??_G?$CDynamicPoolEx@VCGravityDecorator@NEffectUpdateDecorator@@@@UAEPAXI@Z
_TEXT	SEGMENT
___flags$ = 8						; size = 4
??_G?$CDynamicPoolEx@VCGravityDecorator@NEffectUpdateDecorator@@@@UAEPAXI@Z PROC ; CDynamicPoolEx<NEffectUpdateDecorator::CGravityDecorator>::`scalar deleting destructor', COMDAT
; _this$ = ecx
  00000	55		 push	 ebp
  00001	8b ec		 mov	 ebp, esp
  00003	56		 push	 esi
  00004	8b f1		 mov	 esi, ecx
  00006	e8 00 00 00 00	 call	 ??1?$CDynamicPoolEx@VCGravityDecorator@NEffectUpdateDecorator@@@@UAE@XZ ; CDynamicPoolEx<NEffectUpdateDecorator::CGravityDecorator>::~CDynamicPoolEx<NEffectUpdateDecorator::CGravityDecorator>
  0000b	f6 45 08 01	 test	 BYTE PTR ___flags$[ebp], 1
  0000f	74 0b		 je	 SHORT $LN4@scalar
  00011	6a 24		 push	 36			; 00000024H
  00013	56		 push	 esi
  00014	e8 00 00 00 00	 call	 ??3@YAXPAXI@Z		; operator delete
  00019	83 c4 08	 add	 esp, 8
$LN4@scalar:
  0001c	8b c6		 mov	 eax, esi
  0001e	5e		 pop	 esi
  0001f	5d		 pop	 ebp
  00020	c2 04 00	 ret	 4
??_G?$CDynamicPoolEx@VCGravityDecorator@NEffectUpdateDecorator@@@@UAEPAXI@Z ENDP ; CDynamicPoolEx<NEffectUpdateDecorator::CGravityDecorator>::`scalar deleting destructor'
_TEXT	ENDS
; Function compile flags: /Ogtp
; File D:\Metin2 Server Files\mainline\SRC_2014\Metin2Client\eterLib\Pool.h
;	COMDAT ?Delete@?$CDynamicPoolEx@VCGravityDecorator@NEffectUpdateDecorator@@@@KAXPAVCGravityDecorator@NEffectUpdateDecorator@@@Z
_TEXT	SEGMENT
_pkData$ = 8						; size = 4
?Delete@?$CDynamicPoolEx@VCGravityDecorator@NEffectUpdateDecorator@@@@KAXPAVCGravityDecorator@NEffectUpdateDecorator@@@Z PROC ; CDynamicPoolEx<NEffectUpdateDecorator::CGravityDecorator>::Delete, COMDAT

; 224  : 			::operator delete(pkData);

  00000	e9 00 00 00 00	 jmp	 ??3@YAXPAX@Z		; operator delete
?Delete@?$CDynamicPoolEx@VCGravityDecorator@NEffectUpdateDecorator@@@@KAXPAVCGravityDecorator@NEffectUpdateDecorator@@@Z ENDP ; CDynamicPoolEx<NEffectUpdateDecorator::CGravityDecorator>::Delete
_TEXT	ENDS
; Function compile flags: /Ogtp
; File D:\Metin2 Server Files\mainline\SRC_2014\Metin2Client\eterLib\Pool.h
; File C:\Program Files (x86)\Microsoft Visual Studio\2019\Community\VC\Tools\MSVC\14.28.29333\include\vector
; File C:\Program Files (x86)\Microsoft Visual Studio\2019\Community\VC\Tools\MSVC\14.28.29333\include\algorithm
; File D:\Metin2 Server Files\mainline\SRC_2014\Metin2Client\eterLib\Pool.h
; File C:\Program Files (x86)\Microsoft Visual Studio\2019\Community\VC\Tools\MSVC\14.28.29333\include\algorithm
; File D:\Metin2 Server Files\mainline\SRC_2014\Metin2Client\eterLib\Pool.h
; File C:\Program Files (x86)\Microsoft Visual Studio\2019\Community\VC\Tools\MSVC\14.28.29333\include\algorithm
; File D:\Metin2 Server Files\mainline\SRC_2014\Metin2Client\eterLib\Pool.h
; File C:\Program Files (x86)\Microsoft Visual Studio\2019\Community\VC\Tools\MSVC\14.28.29333\include\vector
; File C:\Program Files (x86)\Microsoft Visual Studio\2019\Community\VC\Tools\MSVC\14.28.29333\include\xmemory
; File C:\Program Files (x86)\Microsoft Visual Studio\2019\Community\VC\Tools\MSVC\14.28.29333\include\vector
; File C:\Program Files (x86)\Microsoft Visual Studio\2019\Community\VC\Tools\MSVC\14.28.29333\include\xmemory
; File C:\Program Files (x86)\Microsoft Visual Studio\2019\Community\VC\Tools\MSVC\14.28.29333\include\vector
; File C:\Program Files (x86)\Microsoft Visual Studio\2019\Community\VC\Tools\MSVC\14.28.29333\include\xmemory
; File C:\Program Files (x86)\Microsoft Visual Studio\2019\Community\VC\Tools\MSVC\14.28.29333\include\vector
; File C:\Program Files (x86)\Microsoft Visual Studio\2019\Community\VC\Tools\MSVC\14.28.29333\include\xmemory
; File C:\Program Files (x86)\Microsoft Visual Studio\2019\Community\VC\Tools\MSVC\14.28.29333\include\vector
; File D:\Metin2 Server Files\mainline\SRC_2014\Metin2Client\eterLib\Pool.h
;	COMDAT ??1?$CDynamicPoolEx@VCGravityDecorator@NEffectUpdateDecorator@@@@UAE@XZ
_TEXT	SEGMENT
??1?$CDynamicPoolEx@VCGravityDecorator@NEffectUpdateDecorator@@@@UAE@XZ PROC ; CDynamicPoolEx<NEffectUpdateDecorator::CGravityDecorator>::~CDynamicPoolEx<NEffectUpdateDecorator::CGravityDecorator>, COMDAT
; _this$ = ecx

; 132  : 		{

  00000	53		 push	 ebx
  00001	56		 push	 esi
  00002	57		 push	 edi
  00003	8b f9		 mov	 edi, ecx
  00005	c7 07 00 00 00
	00		 mov	 DWORD PTR [edi], OFFSET ??_7?$CDynamicPoolEx@VCGravityDecorator@NEffectUpdateDecorator@@@@6B@
; File C:\Program Files (x86)\Microsoft Visual Studio\2019\Community\VC\Tools\MSVC\14.28.29333\include\vector

; 42   :     _Vector_const_iterator(_Tptr _Parg, const _Container_base* _Pvector) noexcept : _Ptr(_Parg) {

  0000b	8b 5f 08	 mov	 ebx, DWORD PTR [edi+8]
  0000e	8b 77 04	 mov	 esi, DWORD PTR [edi+4]
; File C:\Program Files (x86)\Microsoft Visual Studio\2019\Community\VC\Tools\MSVC\14.28.29333\include\algorithm

; 307  :     for (; _UFirst != _ULast; ++_UFirst) {

  00011	3b f3		 cmp	 esi, ebx
  00013	74 14		 je	 SHORT $LN19@CDynamicPo
$LL20@CDynamicPo:
; File D:\Metin2 Server Files\mainline\SRC_2014\Metin2Client\eterLib\Pool.h

; 224  : 			::operator delete(pkData);

  00015	ff 36		 push	 DWORD PTR [esi]
  00017	e8 00 00 00 00	 call	 ??3@YAXPAX@Z		; operator delete
; File C:\Program Files (x86)\Microsoft Visual Studio\2019\Community\VC\Tools\MSVC\14.28.29333\include\algorithm

; 307  :     for (; _UFirst != _ULast; ++_UFirst) {

  0001c	83 c6 04	 add	 esi, 4
; File D:\Metin2 Server Files\mainline\SRC_2014\Metin2Client\eterLib\Pool.h

; 224  : 			::operator delete(pkData);

  0001f	83 c4 04	 add	 esp, 4
; File C:\Program Files (x86)\Microsoft Visual Studio\2019\Community\VC\Tools\MSVC\14.28.29333\include\algorithm

; 307  :     for (; _UFirst != _ULast; ++_UFirst) {

  00022	3b f3		 cmp	 esi, ebx
  00024	75 ef		 jne	 SHORT $LL20@CDynamicPo
  00026	8b 77 04	 mov	 esi, DWORD PTR [edi+4]
$LN19@CDynamicPo:
; File D:\Metin2 Server Files\mainline\SRC_2014\Metin2Client\eterLib\Pool.h

; 162  : 			m_kVct_pkFree.clear();

  00029	8b 4f 10	 mov	 ecx, DWORD PTR [edi+16]
  0002c	89 77 08	 mov	 DWORD PTR [edi+8], esi
  0002f	89 4f 14	 mov	 DWORD PTR [edi+20], ecx
; File C:\Program Files (x86)\Microsoft Visual Studio\2019\Community\VC\Tools\MSVC\14.28.29333\include\vector

; 1694 :         if (_Myfirst) { // destroy and deallocate old array

  00032	85 c9		 test	 ecx, ecx
  00034	74 27		 je	 SHORT $LN27@CDynamicPo

; 1695 :             _Destroy(_Myfirst, _Mylast);
; 1696 :             _Getal().deallocate(_Myfirst, static_cast<size_type>(_Myend - _Myfirst));

  00036	8b 47 18	 mov	 eax, DWORD PTR [edi+24]
  00039	2b c1		 sub	 eax, ecx
; File C:\Program Files (x86)\Microsoft Visual Studio\2019\Community\VC\Tools\MSVC\14.28.29333\include\xmemory

; 810  :         _Deallocate<_New_alignof<_Ty>>(_Ptr, sizeof(_Ty) * _Count);

  0003b	83 e0 fc	 and	 eax, -4			; fffffffcH
  0003e	50		 push	 eax
  0003f	51		 push	 ecx
  00040	e8 00 00 00 00	 call	 ??$_Deallocate@$07$0A@@std@@YAXPAXI@Z ; std::_Deallocate<8,0>
; File C:\Program Files (x86)\Microsoft Visual Studio\2019\Community\VC\Tools\MSVC\14.28.29333\include\vector

; 1698 :             _Myfirst = pointer();

  00045	c7 47 10 00 00
	00 00		 mov	 DWORD PTR [edi+16], 0
; File C:\Program Files (x86)\Microsoft Visual Studio\2019\Community\VC\Tools\MSVC\14.28.29333\include\xmemory

; 810  :         _Deallocate<_New_alignof<_Ty>>(_Ptr, sizeof(_Ty) * _Count);

  0004c	83 c4 08	 add	 esp, 8
; File C:\Program Files (x86)\Microsoft Visual Studio\2019\Community\VC\Tools\MSVC\14.28.29333\include\vector

; 1699 :             _Mylast  = pointer();

  0004f	c7 47 14 00 00
	00 00		 mov	 DWORD PTR [edi+20], 0

; 1700 :             _Myend   = pointer();

  00056	c7 47 18 00 00
	00 00		 mov	 DWORD PTR [edi+24], 0
$LN27@CDynamicPo:

; 1694 :         if (_Myfirst) { // destroy and deallocate old array

  0005d	8b 4f 04	 mov	 ecx, DWORD PTR [edi+4]
  00060	85 c9		 test	 ecx, ecx
  00062	74 27		 je	 SHORT $LN34@CDynamicPo

; 1695 :             _Destroy(_Myfirst, _Mylast);
; 1696 :             _Getal().deallocate(_Myfirst, static_cast<size_type>(_Myend - _Myfirst));

  00064	8b 47 0c	 mov	 eax, DWORD PTR [edi+12]
  00067	2b c1		 sub	 eax, ecx
; File C:\Program Files (x86)\Microsoft Visual Studio\2019\Community\VC\Tools\MSVC\14.28.29333\include\xmemory

; 810  :         _Deallocate<_New_alignof<_Ty>>(_Ptr, sizeof(_Ty) * _Count);

  00069	83 e0 fc	 and	 eax, -4			; fffffffcH
  0006c	50		 push	 eax
  0006d	51		 push	 ecx
  0006e	e8 00 00 00 00	 call	 ??$_Deallocate@$07$0A@@std@@YAXPAXI@Z ; std::_Deallocate<8,0>
; File C:\Program Files (x86)\Microsoft Visual Studio\2019\Community\VC\Tools\MSVC\14.28.29333\include\vector

; 1698 :             _Myfirst = pointer();

  00073	c7 47 04 00 00
	00 00		 mov	 DWORD PTR [edi+4], 0
; File C:\Program Files (x86)\Microsoft Visual Studio\2019\Community\VC\Tools\MSVC\14.28.29333\include\xmemory

; 810  :         _Deallocate<_New_alignof<_Ty>>(_Ptr, sizeof(_Ty) * _Count);

  0007a	83 c4 08	 add	 esp, 8
; File C:\Program Files (x86)\Microsoft Visual Studio\2019\Community\VC\Tools\MSVC\14.28.29333\include\vector

; 1699 :             _Mylast  = pointer();

  0007d	c7 47 08 00 00
	00 00		 mov	 DWORD PTR [edi+8], 0

; 1700 :             _Myend   = pointer();

  00084	c7 47 0c 00 00
	00 00		 mov	 DWORD PTR [edi+12], 0
$LN34@CDynamicPo:
  0008b	5f		 pop	 edi
; File D:\Metin2 Server Files\mainline\SRC_2014\Metin2Client\eterLib\Pool.h

; 142  : 		}

  0008c	5e		 pop	 esi
  0008d	5b		 pop	 ebx
  0008e	c3		 ret	 0
??1?$CDynamicPoolEx@VCGravityDecorator@NEffectUpdateDecorator@@@@UAE@XZ ENDP ; CDynamicPoolEx<NEffectUpdateDecorator::CGravityDecorator>::~CDynamicPoolEx<NEffectUpdateDecorator::CGravityDecorator>
_TEXT	ENDS
; Function compile flags: /Ogtp
;	COMDAT ??_G?$CDynamicPoolEx@VCRotationDecorator@NEffectUpdateDecorator@@@@UAEPAXI@Z
_TEXT	SEGMENT
___flags$ = 8						; size = 4
??_G?$CDynamicPoolEx@VCRotationDecorator@NEffectUpdateDecorator@@@@UAEPAXI@Z PROC ; CDynamicPoolEx<NEffectUpdateDecorator::CRotationDecorator>::`scalar deleting destructor', COMDAT
; _this$ = ecx
  00000	55		 push	 ebp
  00001	8b ec		 mov	 ebp, esp
  00003	56		 push	 esi
  00004	8b f1		 mov	 esi, ecx
  00006	e8 00 00 00 00	 call	 ??1?$CDynamicPoolEx@VCRotationDecorator@NEffectUpdateDecorator@@@@UAE@XZ ; CDynamicPoolEx<NEffectUpdateDecorator::CRotationDecorator>::~CDynamicPoolEx<NEffectUpdateDecorator::CRotationDecorator>
  0000b	f6 45 08 01	 test	 BYTE PTR ___flags$[ebp], 1
  0000f	74 0b		 je	 SHORT $LN4@scalar
  00011	6a 24		 push	 36			; 00000024H
  00013	56		 push	 esi
  00014	e8 00 00 00 00	 call	 ??3@YAXPAXI@Z		; operator delete
  00019	83 c4 08	 add	 esp, 8
$LN4@scalar:
  0001c	8b c6		 mov	 eax, esi
  0001e	5e		 pop	 esi
  0001f	5d		 pop	 ebp
  00020	c2 04 00	 ret	 4
??_G?$CDynamicPoolEx@VCRotationDecorator@NEffectUpdateDecorator@@@@UAEPAXI@Z ENDP ; CDynamicPoolEx<NEffectUpdateDecorator::CRotationDecorator>::`scalar deleting destructor'
_TEXT	ENDS
; Function compile flags: /Ogtp
; File D:\Metin2 Server Files\mainline\SRC_2014\Metin2Client\eterLib\Pool.h
;	COMDAT ?Delete@?$CDynamicPoolEx@VCRotationDecorator@NEffectUpdateDecorator@@@@KAXPAVCRotationDecorator@NEffectUpdateDecorator@@@Z
_TEXT	SEGMENT
_pkData$ = 8						; size = 4
?Delete@?$CDynamicPoolEx@VCRotationDecorator@NEffectUpdateDecorator@@@@KAXPAVCRotationDecorator@NEffectUpdateDecorator@@@Z PROC ; CDynamicPoolEx<NEffectUpdateDecorator::CRotationDecorator>::Delete, COMDAT

; 224  : 			::operator delete(pkData);

  00000	e9 00 00 00 00	 jmp	 ??3@YAXPAX@Z		; operator delete
?Delete@?$CDynamicPoolEx@VCRotationDecorator@NEffectUpdateDecorator@@@@KAXPAVCRotationDecorator@NEffectUpdateDecorator@@@Z ENDP ; CDynamicPoolEx<NEffectUpdateDecorator::CRotationDecorator>::Delete
_TEXT	ENDS
; Function compile flags: /Ogtp
; File D:\Metin2 Server Files\mainline\SRC_2014\Metin2Client\eterLib\Pool.h
; File C:\Program Files (x86)\Microsoft Visual Studio\2019\Community\VC\Tools\MSVC\14.28.29333\include\vector
; File C:\Program Files (x86)\Microsoft Visual Studio\2019\Community\VC\Tools\MSVC\14.28.29333\include\algorithm
; File D:\Metin2 Server Files\mainline\SRC_2014\Metin2Client\eterLib\Pool.h
; File C:\Program Files (x86)\Microsoft Visual Studio\2019\Community\VC\Tools\MSVC\14.28.29333\include\algorithm
; File D:\Metin2 Server Files\mainline\SRC_2014\Metin2Client\eterLib\Pool.h
; File C:\Program Files (x86)\Microsoft Visual Studio\2019\Community\VC\Tools\MSVC\14.28.29333\include\algorithm
; File D:\Metin2 Server Files\mainline\SRC_2014\Metin2Client\eterLib\Pool.h
; File C:\Program Files (x86)\Microsoft Visual Studio\2019\Community\VC\Tools\MSVC\14.28.29333\include\vector
; File C:\Program Files (x86)\Microsoft Visual Studio\2019\Community\VC\Tools\MSVC\14.28.29333\include\xmemory
; File C:\Program Files (x86)\Microsoft Visual Studio\2019\Community\VC\Tools\MSVC\14.28.29333\include\vector
; File C:\Program Files (x86)\Microsoft Visual Studio\2019\Community\VC\Tools\MSVC\14.28.29333\include\xmemory
; File C:\Program Files (x86)\Microsoft Visual Studio\2019\Community\VC\Tools\MSVC\14.28.29333\include\vector
; File C:\Program Files (x86)\Microsoft Visual Studio\2019\Community\VC\Tools\MSVC\14.28.29333\include\xmemory
; File C:\Program Files (x86)\Microsoft Visual Studio\2019\Community\VC\Tools\MSVC\14.28.29333\include\vector
; File C:\Program Files (x86)\Microsoft Visual Studio\2019\Community\VC\Tools\MSVC\14.28.29333\include\xmemory
; File C:\Program Files (x86)\Microsoft Visual Studio\2019\Community\VC\Tools\MSVC\14.28.29333\include\vector
; File D:\Metin2 Server Files\mainline\SRC_2014\Metin2Client\eterLib\Pool.h
;	COMDAT ??1?$CDynamicPoolEx@VCRotationDecorator@NEffectUpdateDecorator@@@@UAE@XZ
_TEXT	SEGMENT
??1?$CDynamicPoolEx@VCRotationDecorator@NEffectUpdateDecorator@@@@UAE@XZ PROC ; CDynamicPoolEx<NEffectUpdateDecorator::CRotationDecorator>::~CDynamicPoolEx<NEffectUpdateDecorator::CRotationDecorator>, COMDAT
; _this$ = ecx

; 132  : 		{

  00000	53		 push	 ebx
  00001	56		 push	 esi
  00002	57		 push	 edi
  00003	8b f9		 mov	 edi, ecx
  00005	c7 07 00 00 00
	00		 mov	 DWORD PTR [edi], OFFSET ??_7?$CDynamicPoolEx@VCRotationDecorator@NEffectUpdateDecorator@@@@6B@
; File C:\Program Files (x86)\Microsoft Visual Studio\2019\Community\VC\Tools\MSVC\14.28.29333\include\vector

; 42   :     _Vector_const_iterator(_Tptr _Parg, const _Container_base* _Pvector) noexcept : _Ptr(_Parg) {

  0000b	8b 5f 08	 mov	 ebx, DWORD PTR [edi+8]
  0000e	8b 77 04	 mov	 esi, DWORD PTR [edi+4]
; File C:\Program Files (x86)\Microsoft Visual Studio\2019\Community\VC\Tools\MSVC\14.28.29333\include\algorithm

; 307  :     for (; _UFirst != _ULast; ++_UFirst) {

  00011	3b f3		 cmp	 esi, ebx
  00013	74 14		 je	 SHORT $LN19@CDynamicPo
$LL20@CDynamicPo:
; File D:\Metin2 Server Files\mainline\SRC_2014\Metin2Client\eterLib\Pool.h

; 224  : 			::operator delete(pkData);

  00015	ff 36		 push	 DWORD PTR [esi]
  00017	e8 00 00 00 00	 call	 ??3@YAXPAX@Z		; operator delete
; File C:\Program Files (x86)\Microsoft Visual Studio\2019\Community\VC\Tools\MSVC\14.28.29333\include\algorithm

; 307  :     for (; _UFirst != _ULast; ++_UFirst) {

  0001c	83 c6 04	 add	 esi, 4
; File D:\Metin2 Server Files\mainline\SRC_2014\Metin2Client\eterLib\Pool.h

; 224  : 			::operator delete(pkData);

  0001f	83 c4 04	 add	 esp, 4
; File C:\Program Files (x86)\Microsoft Visual Studio\2019\Community\VC\Tools\MSVC\14.28.29333\include\algorithm

; 307  :     for (; _UFirst != _ULast; ++_UFirst) {

  00022	3b f3		 cmp	 esi, ebx
  00024	75 ef		 jne	 SHORT $LL20@CDynamicPo
  00026	8b 77 04	 mov	 esi, DWORD PTR [edi+4]
$LN19@CDynamicPo:
; File D:\Metin2 Server Files\mainline\SRC_2014\Metin2Client\eterLib\Pool.h

; 162  : 			m_kVct_pkFree.clear();

  00029	8b 4f 10	 mov	 ecx, DWORD PTR [edi+16]
  0002c	89 77 08	 mov	 DWORD PTR [edi+8], esi
  0002f	89 4f 14	 mov	 DWORD PTR [edi+20], ecx
; File C:\Program Files (x86)\Microsoft Visual Studio\2019\Community\VC\Tools\MSVC\14.28.29333\include\vector

; 1694 :         if (_Myfirst) { // destroy and deallocate old array

  00032	85 c9		 test	 ecx, ecx
  00034	74 27		 je	 SHORT $LN27@CDynamicPo

; 1695 :             _Destroy(_Myfirst, _Mylast);
; 1696 :             _Getal().deallocate(_Myfirst, static_cast<size_type>(_Myend - _Myfirst));

  00036	8b 47 18	 mov	 eax, DWORD PTR [edi+24]
  00039	2b c1		 sub	 eax, ecx
; File C:\Program Files (x86)\Microsoft Visual Studio\2019\Community\VC\Tools\MSVC\14.28.29333\include\xmemory

; 810  :         _Deallocate<_New_alignof<_Ty>>(_Ptr, sizeof(_Ty) * _Count);

  0003b	83 e0 fc	 and	 eax, -4			; fffffffcH
  0003e	50		 push	 eax
  0003f	51		 push	 ecx
  00040	e8 00 00 00 00	 call	 ??$_Deallocate@$07$0A@@std@@YAXPAXI@Z ; std::_Deallocate<8,0>
; File C:\Program Files (x86)\Microsoft Visual Studio\2019\Community\VC\Tools\MSVC\14.28.29333\include\vector

; 1698 :             _Myfirst = pointer();

  00045	c7 47 10 00 00
	00 00		 mov	 DWORD PTR [edi+16], 0
; File C:\Program Files (x86)\Microsoft Visual Studio\2019\Community\VC\Tools\MSVC\14.28.29333\include\xmemory

; 810  :         _Deallocate<_New_alignof<_Ty>>(_Ptr, sizeof(_Ty) * _Count);

  0004c	83 c4 08	 add	 esp, 8
; File C:\Program Files (x86)\Microsoft Visual Studio\2019\Community\VC\Tools\MSVC\14.28.29333\include\vector

; 1699 :             _Mylast  = pointer();

  0004f	c7 47 14 00 00
	00 00		 mov	 DWORD PTR [edi+20], 0

; 1700 :             _Myend   = pointer();

  00056	c7 47 18 00 00
	00 00		 mov	 DWORD PTR [edi+24], 0
$LN27@CDynamicPo:

; 1694 :         if (_Myfirst) { // destroy and deallocate old array

  0005d	8b 4f 04	 mov	 ecx, DWORD PTR [edi+4]
  00060	85 c9		 test	 ecx, ecx
  00062	74 27		 je	 SHORT $LN34@CDynamicPo

; 1695 :             _Destroy(_Myfirst, _Mylast);
; 1696 :             _Getal().deallocate(_Myfirst, static_cast<size_type>(_Myend - _Myfirst));

  00064	8b 47 0c	 mov	 eax, DWORD PTR [edi+12]
  00067	2b c1		 sub	 eax, ecx
; File C:\Program Files (x86)\Microsoft Visual Studio\2019\Community\VC\Tools\MSVC\14.28.29333\include\xmemory

; 810  :         _Deallocate<_New_alignof<_Ty>>(_Ptr, sizeof(_Ty) * _Count);

  00069	83 e0 fc	 and	 eax, -4			; fffffffcH
  0006c	50		 push	 eax
  0006d	51		 push	 ecx
  0006e	e8 00 00 00 00	 call	 ??$_Deallocate@$07$0A@@std@@YAXPAXI@Z ; std::_Deallocate<8,0>
; File C:\Program Files (x86)\Microsoft Visual Studio\2019\Community\VC\Tools\MSVC\14.28.29333\include\vector

; 1698 :             _Myfirst = pointer();

  00073	c7 47 04 00 00
	00 00		 mov	 DWORD PTR [edi+4], 0
; File C:\Program Files (x86)\Microsoft Visual Studio\2019\Community\VC\Tools\MSVC\14.28.29333\include\xmemory

; 810  :         _Deallocate<_New_alignof<_Ty>>(_Ptr, sizeof(_Ty) * _Count);

  0007a	83 c4 08	 add	 esp, 8
; File C:\Program Files (x86)\Microsoft Visual Studio\2019\Community\VC\Tools\MSVC\14.28.29333\include\vector

; 1699 :             _Mylast  = pointer();

  0007d	c7 47 08 00 00
	00 00		 mov	 DWORD PTR [edi+8], 0

; 1700 :             _Myend   = pointer();

  00084	c7 47 0c 00 00
	00 00		 mov	 DWORD PTR [edi+12], 0
$LN34@CDynamicPo:
  0008b	5f		 pop	 edi
; File D:\Metin2 Server Files\mainline\SRC_2014\Metin2Client\eterLib\Pool.h

; 142  : 		}

  0008c	5e		 pop	 esi
  0008d	5b		 pop	 ebx
  0008e	c3		 ret	 0
??1?$CDynamicPoolEx@VCRotationDecorator@NEffectUpdateDecorator@@@@UAE@XZ ENDP ; CDynamicPoolEx<NEffectUpdateDecorator::CRotationDecorator>::~CDynamicPoolEx<NEffectUpdateDecorator::CRotationDecorator>
_TEXT	ENDS
; Function compile flags: /Ogtp
;	COMDAT ??_GCPythonSystem@@UAEPAXI@Z
_TEXT	SEGMENT
___flags$ = 8						; size = 4
??_GCPythonSystem@@UAEPAXI@Z PROC			; CPythonSystem::`scalar deleting destructor', COMDAT
; _this$ = ecx
  00000	55		 push	 ebp
  00001	8b ec		 mov	 ebp, esp
  00003	56		 push	 esi
  00004	8b f1		 mov	 esi, ecx
  00006	e8 00 00 00 00	 call	 ??1CPythonSystem@@UAE@XZ ; CPythonSystem::~CPythonSystem
  0000b	f6 45 08 01	 test	 BYTE PTR ___flags$[ebp], 1
  0000f	74 0e		 je	 SHORT $LN4@scalar
  00011	68 f0 26 00 00	 push	 9968			; 000026f0H
  00016	56		 push	 esi
  00017	e8 00 00 00 00	 call	 ??3@YAXPAXI@Z		; operator delete
  0001c	83 c4 08	 add	 esp, 8
$LN4@scalar:
  0001f	8b c6		 mov	 eax, esi
  00021	5e		 pop	 esi
  00022	5d		 pop	 ebp
  00023	c2 04 00	 ret	 4
??_GCPythonSystem@@UAEPAXI@Z ENDP			; CPythonSystem::`scalar deleting destructor'
_TEXT	ENDS
; Function compile flags: /Ogtp
; File D:\Metin2 Server Files\mainline\SRC_2014\Metin2Client\UserInterface\PythonSystem.cpp
;	COMDAT ?SetShadowLevel@CPythonSystem@@QAEXI@Z
_TEXT	SEGMENT
_level$ = 8						; size = 4
?SetShadowLevel@CPythonSystem@@QAEXI@Z PROC		; CPythonSystem::SetShadowLevel, COMDAT
; _this$ = ecx

; 242  : {

  00000	55		 push	 ebp
  00001	8b ec		 mov	 ebp, esp
  00003	56		 push	 esi

; 243  : 	m_Config.iShadowLevel = MIN(level, 5);

  00004	6a 05		 push	 5
  00006	ff 75 08	 push	 DWORD PTR _level$[ebp]
  00009	8b f1		 mov	 esi, ecx
  0000b	e8 00 00 00 00	 call	 ?MIN@@YAHHH@Z		; MIN
  00010	83 c4 08	 add	 esp, 8
  00013	89 86 a0 25 00
	00		 mov	 DWORD PTR [esi+9632], eax

; 244  : 	CPythonBackground::instance().RefreshShadowLevel();

  00019	8b 0d 00 00 00
	00		 mov	 ecx, DWORD PTR ?ms_singleton@?$CSingleton@VCPythonBackground@@@@0PAVCPythonBackground@@A ; CSingleton<CPythonBackground>::ms_singleton
  0001f	e8 00 00 00 00	 call	 ?RefreshShadowLevel@CPythonBackground@@QAEXXZ ; CPythonBackground::RefreshShadowLevel
  00024	5e		 pop	 esi

; 245  : }

  00025	5d		 pop	 ebp
  00026	c2 04 00	 ret	 4
?SetShadowLevel@CPythonSystem@@QAEXI@Z ENDP		; CPythonSystem::SetShadowLevel
_TEXT	ENDS
; Function compile flags: /Ogtp
; File D:\Metin2 Server Files\mainline\SRC_2014\Metin2Client\UserInterface\PythonSystem.cpp
;	COMDAT ?GetShadowLevel@CPythonSystem@@QAEHXZ
_TEXT	SEGMENT
?GetShadowLevel@CPythonSystem@@QAEHXZ PROC		; CPythonSystem::GetShadowLevel, COMDAT
; _this$ = ecx

; 238  : 	return m_Config.iShadowLevel;

  00000	8b 81 a0 25 00
	00		 mov	 eax, DWORD PTR [ecx+9632]

; 239  : }

  00006	c3		 ret	 0
?GetShadowLevel@CPythonSystem@@QAEHXZ ENDP		; CPythonSystem::GetShadowLevel
_TEXT	ENDS
; Function compile flags: /Ogtp
; File D:\Metin2 Server Files\mainline\SRC_2014\Metin2Client\UserInterface\PythonSystem.cpp
;	COMDAT ?GetDistance@CPythonSystem@@QAEHXZ
_TEXT	SEGMENT
?GetDistance@CPythonSystem@@QAEHXZ PROC			; CPythonSystem::GetDistance, COMDAT
; _this$ = ecx

; 233  : 	return m_Config.iDistance;

  00000	8b 81 9c 25 00
	00		 mov	 eax, DWORD PTR [ecx+9628]

; 234  : }

  00006	c3		 ret	 0
?GetDistance@CPythonSystem@@QAEHXZ ENDP			; CPythonSystem::GetDistance
_TEXT	ENDS
; Function compile flags: /Ogtp
; File D:\Metin2 Server Files\mainline\SRC_2014\Metin2Client\UserInterface\PythonSystem.cpp
;	COMDAT ?SetSoundVolumef@CPythonSystem@@QAEXM@Z
_TEXT	SEGMENT
_fVolume$ = 8						; size = 4
?SetSoundVolumef@CPythonSystem@@QAEXM@Z PROC		; CPythonSystem::SetSoundVolumef, COMDAT
; _this$ = ecx

; 227  : {

  00000	55		 push	 ebp
  00001	8b ec		 mov	 ebp, esp

; 228  : 	m_Config.voice_volume = int(5 * fVolume);

  00003	f3 0f 10 45 08	 movss	 xmm0, DWORD PTR _fVolume$[ebp]
  00008	f3 0f 59 05 00
	00 00 00	 mulss	 xmm0, DWORD PTR __real@40a00000
  00010	f3 0f 2c c0	 cvttss2si eax, xmm0
  00014	88 81 a8 25 00
	00		 mov	 BYTE PTR [ecx+9640], al

; 229  : }

  0001a	5d		 pop	 ebp
  0001b	c2 04 00	 ret	 4
?SetSoundVolumef@CPythonSystem@@QAEXM@Z ENDP		; CPythonSystem::SetSoundVolumef
_TEXT	ENDS
; Function compile flags: /Ogtp
; File D:\Metin2 Server Files\mainline\SRC_2014\Metin2Client\UserInterface\PythonSystem.cpp
;	COMDAT ?SetMusicVolume@CPythonSystem@@QAEXM@Z
_TEXT	SEGMENT
_fVolume$ = 8						; size = 4
?SetMusicVolume@CPythonSystem@@QAEXM@Z PROC		; CPythonSystem::SetMusicVolume, COMDAT
; _this$ = ecx

; 222  : {

  00000	55		 push	 ebp
  00001	8b ec		 mov	 ebp, esp

; 223  : 	m_Config.music_volume = fVolume;

  00003	f3 0f 10 45 08	 movss	 xmm0, DWORD PTR _fVolume$[ebp]
  00008	f3 0f 11 81 a4
	25 00 00	 movss	 DWORD PTR [ecx+9636], xmm0

; 224  : }

  00010	5d		 pop	 ebp
  00011	c2 04 00	 ret	 4
?SetMusicVolume@CPythonSystem@@QAEXM@Z ENDP		; CPythonSystem::SetMusicVolume
_TEXT	ENDS
; Function compile flags: /Ogtp
; File D:\Metin2 Server Files\mainline\SRC_2014\Metin2Client\UserInterface\PythonSystem.cpp
;	COMDAT ?GetSoundVolume@CPythonSystem@@QAEHXZ
_TEXT	SEGMENT
?GetSoundVolume@CPythonSystem@@QAEHXZ PROC		; CPythonSystem::GetSoundVolume, COMDAT
; _this$ = ecx

; 218  : 	return m_Config.voice_volume;

  00000	0f b6 81 a8 25
	00 00		 movzx	 eax, BYTE PTR [ecx+9640]

; 219  : }

  00007	c3		 ret	 0
?GetSoundVolume@CPythonSystem@@QAEHXZ ENDP		; CPythonSystem::GetSoundVolume
_TEXT	ENDS
; Function compile flags: /Ogtp
; File D:\Metin2 Server Files\mainline\SRC_2014\Metin2Client\UserInterface\PythonSystem.cpp
;	COMDAT ?GetMusicVolume@CPythonSystem@@QAEMXZ
_TEXT	SEGMENT
?GetMusicVolume@CPythonSystem@@QAEMXZ PROC		; CPythonSystem::GetMusicVolume, COMDAT
; _this$ = ecx

; 213  : 	return m_Config.music_volume;

  00000	d9 81 a4 25 00
	00		 fld	 DWORD PTR [ecx+9636]

; 214  : }

  00006	c3		 ret	 0
?GetMusicVolume@CPythonSystem@@QAEMXZ ENDP		; CPythonSystem::GetMusicVolume
_TEXT	ENDS
; Function compile flags: /Ogtp
; File D:\Metin2 Server Files\mainline\SRC_2014\Metin2Client\UserInterface\PythonSystem.cpp
;	COMDAT ?isViewCulling@CPythonSystem@@QAE_NXZ
_TEXT	SEGMENT
?isViewCulling@CPythonSystem@@QAE_NXZ PROC		; CPythonSystem::isViewCulling, COMDAT
; _this$ = ecx

; 259  : 	return m_Config.is_object_culling;

  00000	8a 81 99 25 00
	00		 mov	 al, BYTE PTR [ecx+9625]

; 260  : }

  00006	c3		 ret	 0
?isViewCulling@CPythonSystem@@QAE_NXZ ENDP		; CPythonSystem::isViewCulling
_TEXT	ENDS
; Function compile flags: /Ogtp
; File D:\Metin2 Server Files\mainline\SRC_2014\Metin2Client\UserInterface\PythonSystem.cpp
;	COMDAT ?GetFrequencyIndex@CPythonSystem@@QAEHHK@Z
_TEXT	SEGMENT
_re_frequency$ = -4					; size = 4
_res_index$ = 8						; size = 4
_frequency$ = 12					; size = 4
?GetFrequencyIndex@CPythonSystem@@QAEHHK@Z PROC		; CPythonSystem::GetFrequencyIndex, COMDAT
; _this$ = ecx

; 168  : {

  00000	55		 push	 ebp
  00001	8b ec		 mov	 ebp, esp
  00003	51		 push	 ecx
  00004	53		 push	 ebx
  00005	56		 push	 esi
  00006	57		 push	 edi

; 169  : 	DWORD re_frequency;
; 170  : 	int i = 0;
; 171  : 
; 172  : 	while (GetFrequency(res_index, i, &re_frequency))

  00007	8d 45 fc	 lea	 eax, DWORD PTR _re_frequency$[ebp]
  0000a	33 f6		 xor	 esi, esi
  0000c	50		 push	 eax
  0000d	56		 push	 esi
  0000e	ff 75 08	 push	 DWORD PTR _res_index$[ebp]
  00011	8b d9		 mov	 ebx, ecx
  00013	e8 00 00 00 00	 call	 ?GetFrequency@CPythonSystem@@QAE_NHHPAK@Z ; CPythonSystem::GetFrequency
  00018	84 c0		 test	 al, al
  0001a	74 1d		 je	 SHORT $LN3@GetFrequen
  0001c	8b 7d 0c	 mov	 edi, DWORD PTR _frequency$[ebp]
  0001f	90		 npad	 1
$LL2@GetFrequen:

; 173  : 	{
; 174  : 		if (re_frequency == frequency)

  00020	39 7d fc	 cmp	 DWORD PTR _re_frequency$[ebp], edi
  00023	74 1f		 je	 SHORT $LN7@GetFrequen

; 176  : 
; 177  : 		i++;

  00025	8d 45 fc	 lea	 eax, DWORD PTR _re_frequency$[ebp]
  00028	46		 inc	 esi
  00029	50		 push	 eax
  0002a	56		 push	 esi
  0002b	ff 75 08	 push	 DWORD PTR _res_index$[ebp]
  0002e	8b cb		 mov	 ecx, ebx
  00030	e8 00 00 00 00	 call	 ?GetFrequency@CPythonSystem@@QAE_NHHPAK@Z ; CPythonSystem::GetFrequency
  00035	84 c0		 test	 al, al
  00037	75 e7		 jne	 SHORT $LL2@GetFrequen
$LN3@GetFrequen:
  00039	5f		 pop	 edi

; 178  : 	}
; 179  : 
; 180  : 	return 0;
; 181  : }

  0003a	5e		 pop	 esi
  0003b	33 c0		 xor	 eax, eax
  0003d	5b		 pop	 ebx
  0003e	8b e5		 mov	 esp, ebp
  00040	5d		 pop	 ebp
  00041	c2 08 00	 ret	 8
$LN7@GetFrequen:
  00044	5f		 pop	 edi

; 175  : 			return i;

  00045	8b c6		 mov	 eax, esi

; 178  : 	}
; 179  : 
; 180  : 	return 0;
; 181  : }

  00047	5e		 pop	 esi
  00048	5b		 pop	 ebx
  00049	8b e5		 mov	 esp, ebp
  0004b	5d		 pop	 ebp
  0004c	c2 08 00	 ret	 8
?GetFrequencyIndex@CPythonSystem@@QAEHHK@Z ENDP		; CPythonSystem::GetFrequencyIndex
_TEXT	ENDS
; Function compile flags: /Ogtp
; File D:\Metin2 Server Files\mainline\SRC_2014\Metin2Client\UserInterface\PythonSystem.cpp
;	COMDAT ?GetResolutionIndex@CPythonSystem@@QAEHKKK@Z
_TEXT	SEGMENT
_this$1$ = -16						; size = 4
_re_width$ = -12					; size = 4
_re_height$ = -8					; size = 4
_re_bit$ = -4						; size = 4
_width$ = 8						; size = 4
_height$ = 12						; size = 4
_bit$ = 16						; size = 4
?GetResolutionIndex@CPythonSystem@@QAEHKKK@Z PROC	; CPythonSystem::GetResolutionIndex, COMDAT
; _this$ = ecx

; 151  : {

  00000	55		 push	 ebp
  00001	8b ec		 mov	 ebp, esp
  00003	83 ec 10	 sub	 esp, 16			; 00000010H
  00006	53		 push	 ebx
  00007	56		 push	 esi
  00008	8b c1		 mov	 eax, ecx

; 152  : 	DWORD re_width, re_height, re_bit;
; 153  : 	int i = 0;

  0000a	33 f6		 xor	 esi, esi
  0000c	57		 push	 edi

; 154  : 
; 155  : 	while (GetResolution(i, &re_width, &re_height, &re_bit))

  0000d	8d 4d fc	 lea	 ecx, DWORD PTR _re_bit$[ebp]
  00010	89 45 f0	 mov	 DWORD PTR _this$1$[ebp], eax
  00013	51		 push	 ecx
  00014	8d 4d f8	 lea	 ecx, DWORD PTR _re_height$[ebp]
  00017	51		 push	 ecx
  00018	8d 4d f4	 lea	 ecx, DWORD PTR _re_width$[ebp]
  0001b	51		 push	 ecx
  0001c	56		 push	 esi
  0001d	8b c8		 mov	 ecx, eax
  0001f	e8 00 00 00 00	 call	 ?GetResolution@CPythonSystem@@QAE_NHPAK00@Z ; CPythonSystem::GetResolution
  00024	84 c0		 test	 al, al
  00026	74 34		 je	 SHORT $LN13@GetResolut
  00028	8b 7d 10	 mov	 edi, DWORD PTR _bit$[ebp]
  0002b	8b 5d 0c	 mov	 ebx, DWORD PTR _height$[ebp]
  0002e	66 90		 npad	 2
$LL2@GetResolut:

; 156  : 	{
; 157  : 		if (re_width == width)

  00030	8b 45 08	 mov	 eax, DWORD PTR _width$[ebp]
  00033	39 45 f4	 cmp	 DWORD PTR _re_width$[ebp], eax
  00036	75 0a		 jne	 SHORT $LN6@GetResolut

; 158  : 			if (re_height == height)

  00038	39 5d f8	 cmp	 DWORD PTR _re_height$[ebp], ebx
  0003b	75 05		 jne	 SHORT $LN6@GetResolut

; 159  : 				if (re_bit == bit)

  0003d	39 7d fc	 cmp	 DWORD PTR _re_bit$[ebp], edi
  00040	74 25		 je	 SHORT $LN9@GetResolut
$LN6@GetResolut:

; 154  : 
; 155  : 	while (GetResolution(i, &re_width, &re_height, &re_bit))

  00042	8b 4d f0	 mov	 ecx, DWORD PTR _this$1$[ebp]
  00045	8d 45 fc	 lea	 eax, DWORD PTR _re_bit$[ebp]
  00048	50		 push	 eax
  00049	8d 45 f8	 lea	 eax, DWORD PTR _re_height$[ebp]

; 161  : 		i++;

  0004c	46		 inc	 esi
  0004d	50		 push	 eax
  0004e	8d 45 f4	 lea	 eax, DWORD PTR _re_width$[ebp]
  00051	50		 push	 eax
  00052	56		 push	 esi
  00053	e8 00 00 00 00	 call	 ?GetResolution@CPythonSystem@@QAE_NHPAK00@Z ; CPythonSystem::GetResolution
  00058	84 c0		 test	 al, al
  0005a	75 d4		 jne	 SHORT $LL2@GetResolut
$LN13@GetResolut:
  0005c	5f		 pop	 edi

; 162  : 	}
; 163  : 
; 164  : 	return 0;
; 165  : }

  0005d	5e		 pop	 esi
  0005e	33 c0		 xor	 eax, eax
  00060	5b		 pop	 ebx
  00061	8b e5		 mov	 esp, ebp
  00063	5d		 pop	 ebp
  00064	c2 0c 00	 ret	 12			; 0000000cH
$LN9@GetResolut:
  00067	5f		 pop	 edi

; 160  : 					return i;

  00068	8b c6		 mov	 eax, esi

; 162  : 	}
; 163  : 
; 164  : 	return 0;
; 165  : }

  0006a	5e		 pop	 esi
  0006b	5b		 pop	 ebx
  0006c	8b e5		 mov	 esp, ebp
  0006e	5d		 pop	 ebp
  0006f	c2 0c 00	 ret	 12			; 0000000cH
?GetResolutionIndex@CPythonSystem@@QAEHKKK@Z ENDP	; CPythonSystem::GetResolutionIndex
_TEXT	ENDS
; Function compile flags: /Ogtp
; File D:\Metin2 Server Files\mainline\SRC_2014\Metin2Client\UserInterface\PythonSystem.cpp
;	COMDAT ?GetFrequency@CPythonSystem@@QAE_NHHPAK@Z
_TEXT	SEGMENT
_index$ = 8						; size = 4
_freq_index$ = 12					; size = 4
_frequncy$ = 16						; size = 4
?GetFrequency@CPythonSystem@@QAE_NHHPAK@Z PROC		; CPythonSystem::GetFrequency, COMDAT
; _this$ = ecx

; 139  : {

  00000	55		 push	 ebp
  00001	8b ec		 mov	 ebp, esp

; 140  : 	if (index >= m_ResolutionCount)

  00003	8b 55 08	 mov	 edx, DWORD PTR _index$[ebp]
  00006	56		 push	 esi
  00007	3b 91 84 25 00
	00		 cmp	 edx, DWORD PTR [ecx+9604]
  0000d	7d 2a		 jge	 SHORT $LN5@GetFrequen

; 141  : 		return false;
; 142  : 
; 143  : 	if (freq_index >= m_ResolutionList[index].frequency_count)

  0000f	8b 75 0c	 mov	 esi, DWORD PTR _freq_index$[ebp]
  00012	8d 42 01	 lea	 eax, DWORD PTR [edx+1]
  00015	8d 04 40	 lea	 eax, DWORD PTR [eax+eax*2]
  00018	c1 e0 05	 shl	 eax, 5
  0001b	0f b6 04 08	 movzx	 eax, BYTE PTR [eax+ecx]
  0001f	3b f0		 cmp	 esi, eax
  00021	7d 16		 jge	 SHORT $LN5@GetFrequen

; 145  : 
; 146  : 	*frequncy = m_ResolutionList[index].frequency[freq_index];

  00023	8d 04 52	 lea	 eax, DWORD PTR [edx+edx*2]
  00026	8d 04 c6	 lea	 eax, DWORD PTR [esi+eax*8]
  00029	8b 4c 81 10	 mov	 ecx, DWORD PTR [ecx+eax*4+16]
  0002d	8b 45 10	 mov	 eax, DWORD PTR _frequncy$[ebp]
  00030	5e		 pop	 esi
  00031	89 08		 mov	 DWORD PTR [eax], ecx

; 147  : 	return true;

  00033	b0 01		 mov	 al, 1

; 148  : }

  00035	5d		 pop	 ebp
  00036	c2 0c 00	 ret	 12			; 0000000cH
$LN5@GetFrequen:

; 144  : 		return false;

  00039	32 c0		 xor	 al, al
  0003b	5e		 pop	 esi

; 148  : }

  0003c	5d		 pop	 ebp
  0003d	c2 0c 00	 ret	 12			; 0000000cH
?GetFrequency@CPythonSystem@@QAE_NHHPAK@Z ENDP		; CPythonSystem::GetFrequency
_TEXT	ENDS
; Function compile flags: /Ogtp
; File D:\Metin2 Server Files\mainline\SRC_2014\Metin2Client\UserInterface\PythonSystem.cpp
;	COMDAT ?GetResolution@CPythonSystem@@QAE_NHPAK00@Z
_TEXT	SEGMENT
_index$ = 8						; size = 4
_width$ = 12						; size = 4
_height$ = 16						; size = 4
_bpp$ = 20						; size = 4
?GetResolution@CPythonSystem@@QAE_NHPAK00@Z PROC	; CPythonSystem::GetResolution, COMDAT
; _this$ = ecx

; 128  : {

  00000	55		 push	 ebp
  00001	8b ec		 mov	 ebp, esp

; 129  : 	if (index >= m_ResolutionCount)

  00003	8b 45 08	 mov	 eax, DWORD PTR _index$[ebp]
  00006	3b 81 84 25 00
	00		 cmp	 eax, DWORD PTR [ecx+9604]
  0000c	7c 06		 jl	 SHORT $LN2@GetResolut

; 130  : 		return false;

  0000e	32 c0		 xor	 al, al

; 136  : }

  00010	5d		 pop	 ebp
  00011	c2 10 00	 ret	 16			; 00000010H
$LN2@GetResolut:

; 131  : 
; 132  : 	*width = m_ResolutionList[index].width;

  00014	8d 14 40	 lea	 edx, DWORD PTR [eax+eax*2]
  00017	8b 45 0c	 mov	 eax, DWORD PTR _width$[ebp]
  0001a	c1 e2 05	 shl	 edx, 5
  0001d	03 d1		 add	 edx, ecx
  0001f	8b 4a 04	 mov	 ecx, DWORD PTR [edx+4]
  00022	89 08		 mov	 DWORD PTR [eax], ecx

; 133  : 	*height = m_ResolutionList[index].height;

  00024	8b 45 10	 mov	 eax, DWORD PTR _height$[ebp]
  00027	8b 4a 08	 mov	 ecx, DWORD PTR [edx+8]
  0002a	89 08		 mov	 DWORD PTR [eax], ecx

; 134  : 	*bpp = m_ResolutionList[index].bpp;

  0002c	8b 45 14	 mov	 eax, DWORD PTR _bpp$[ebp]
  0002f	8b 4a 0c	 mov	 ecx, DWORD PTR [edx+12]
  00032	89 08		 mov	 DWORD PTR [eax], ecx

; 135  : 	return true;

  00034	b0 01		 mov	 al, 1

; 136  : }

  00036	5d		 pop	 ebp
  00037	c2 10 00	 ret	 16			; 00000010H
?GetResolution@CPythonSystem@@QAE_NHPAK00@Z ENDP	; CPythonSystem::GetResolution
_TEXT	ENDS
; Function compile flags: /Ogtp
; File D:\Metin2 Server Files\mainline\SRC_2014\Metin2Client\UserInterface\PythonSystem.cpp
;	COMDAT ?GetFrequencyCount@CPythonSystem@@QAEHH@Z
_TEXT	SEGMENT
_index$ = 8						; size = 4
?GetFrequencyCount@CPythonSystem@@QAEHH@Z PROC		; CPythonSystem::GetFrequencyCount, COMDAT
; _this$ = ecx

; 120  : {

  00000	55		 push	 ebp
  00001	8b ec		 mov	 ebp, esp

; 121  : 	if (index >= m_ResolutionCount)

  00003	8b 45 08	 mov	 eax, DWORD PTR _index$[ebp]
  00006	3b 81 84 25 00
	00		 cmp	 eax, DWORD PTR [ecx+9604]
  0000c	7c 06		 jl	 SHORT $LN2@GetFrequen

; 122  : 		return 0;

  0000e	33 c0		 xor	 eax, eax

; 125  : }

  00010	5d		 pop	 ebp
  00011	c2 04 00	 ret	 4
$LN2@GetFrequen:

; 123  : 
; 124  :     return m_ResolutionList[index].frequency_count;

  00014	8d 04 40	 lea	 eax, DWORD PTR [eax+eax*2]
  00017	83 c0 03	 add	 eax, 3
  0001a	c1 e0 05	 shl	 eax, 5
  0001d	0f b6 04 08	 movzx	 eax, BYTE PTR [eax+ecx]

; 125  : }

  00021	5d		 pop	 ebp
  00022	c2 04 00	 ret	 4
?GetFrequencyCount@CPythonSystem@@QAEHH@Z ENDP		; CPythonSystem::GetFrequencyCount
_TEXT	ENDS
; Function compile flags: /Ogtp
; File D:\Metin2 Server Files\mainline\SRC_2014\Metin2Client\UserInterface\PythonSystem.cpp
;	COMDAT ?GetResolutionCount@CPythonSystem@@QAEHXZ
_TEXT	SEGMENT
?GetResolutionCount@CPythonSystem@@QAEHXZ PROC		; CPythonSystem::GetResolutionCount, COMDAT
; _this$ = ecx

; 116  : 	return m_ResolutionCount;

  00000	8b 81 84 25 00
	00		 mov	 eax, DWORD PTR [ecx+9604]

; 117  : }

  00006	c3		 ret	 0
?GetResolutionCount@CPythonSystem@@QAEHXZ ENDP		; CPythonSystem::GetResolutionCount
_TEXT	ENDS
; Function compile flags: /Ogtp
; File D:\Metin2 Server Files\mainline\SRC_2014\Metin2Client\UserInterface\PythonSystem.cpp
;	COMDAT ?GetDisplaySettings@CPythonSystem@@QAEXXZ
_TEXT	SEGMENT
_dwNumAdapterModes$1$ = -1132				; size = 4
tv701 = -1128						; size = 4
_iMode$1$ = -1124					; size = 4
_DisplayMode$1$ = -1120					; size = 4
_this$GSCopy$1$ = -1116					; size = 4
_lpD3D$1$ = -1112					; size = 4
tv694 = -1105						; size = 1
_d3dAdapterIdentifier$ = -1104				; size = 1068
_d3ddmDesktop$ = -36					; size = 16
_DisplayMode$1 = -20					; size = 16
__$ArrayPad$ = -4					; size = 4
?GetDisplaySettings@CPythonSystem@@QAEXXZ PROC		; CPythonSystem::GetDisplaySettings, COMDAT
; _this$ = ecx

; 35   : {

  00000	55		 push	 ebp
  00001	8b ec		 mov	 ebp, esp
  00003	81 ec 6c 04 00
	00		 sub	 esp, 1132		; 0000046cH
  00009	a1 00 00 00 00	 mov	 eax, DWORD PTR ___security_cookie
  0000e	33 c5		 xor	 eax, ebp
  00010	89 45 fc	 mov	 DWORD PTR __$ArrayPad$[ebp], eax
  00013	53		 push	 ebx
  00014	8b d9		 mov	 ebx, ecx

; 36   : 	memset(m_ResolutionList, 0, sizeof(TResolution) * RESOLUTION_MAX_NUM);

  00016	68 80 25 00 00	 push	 9600			; 00002580H
  0001b	6a 00		 push	 0
  0001d	89 9d a4 fb ff
	ff		 mov	 DWORD PTR _this$GSCopy$1$[ebp], ebx
  00023	8d 43 04	 lea	 eax, DWORD PTR [ebx+4]
  00026	50		 push	 eax
  00027	89 85 98 fb ff
	ff		 mov	 DWORD PTR tv701[ebp], eax
  0002d	e8 00 00 00 00	 call	 _memset
  00032	83 c4 0c	 add	 esp, 12			; 0000000cH

; 37   : 	m_ResolutionCount = 0;

  00035	c7 83 84 25 00
	00 00 00 00 00	 mov	 DWORD PTR [ebx+9604], 0

; 38   : 
; 39   : 	LPDIRECT3D8 lpD3D = CPythonGraphic::Instance().GetD3D();

  0003f	8b 0d 00 00 00
	00		 mov	 ecx, DWORD PTR ?ms_singleton@?$CSingleton@VCPythonGraphic@@@@0PAVCPythonGraphic@@A ; CSingleton<CPythonGraphic>::ms_singleton
  00045	e8 00 00 00 00	 call	 ?GetD3D@CPythonGraphic@@QAEPAUIDirect3D8@@XZ ; CPythonGraphic::GetD3D
  0004a	8b d8		 mov	 ebx, eax

; 40   : 
; 41   : 	D3DADAPTER_IDENTIFIER8 d3dAdapterIdentifier;
; 42   : 	D3DDISPLAYMODE d3ddmDesktop;
; 43   : 
; 44   : 	lpD3D->GetAdapterIdentifier(0, D3DENUM_NO_WHQL_LEVEL, &d3dAdapterIdentifier);

  0004c	8d 85 b0 fb ff
	ff		 lea	 eax, DWORD PTR _d3dAdapterIdentifier$[ebp]
  00052	50		 push	 eax
  00053	6a 02		 push	 2
  00055	6a 00		 push	 0
  00057	8b 0b		 mov	 ecx, DWORD PTR [ebx]
  00059	53		 push	 ebx
  0005a	89 9d a8 fb ff
	ff		 mov	 DWORD PTR _lpD3D$1$[ebp], ebx
  00060	ff 51 14	 call	 DWORD PTR [ecx+20]

; 45   : 	lpD3D->GetAdapterDisplayMode(0, &d3ddmDesktop);

  00063	8b 0b		 mov	 ecx, DWORD PTR [ebx]
  00065	8d 45 dc	 lea	 eax, DWORD PTR _d3ddmDesktop$[ebp]
  00068	50		 push	 eax
  00069	6a 00		 push	 0
  0006b	53		 push	 ebx
  0006c	ff 51 20	 call	 DWORD PTR [ecx+32]

; 46   : 
; 47   : 	//       ..
; 48   : 	DWORD dwNumAdapterModes = lpD3D->GetAdapterModeCount(0);

  0006f	8b 03		 mov	 eax, DWORD PTR [ebx]
  00071	6a 00		 push	 0
  00073	53		 push	 ebx
  00074	ff 50 18	 call	 DWORD PTR [eax+24]
  00077	8b c8		 mov	 ecx, eax
  00079	33 c0		 xor	 eax, eax
  0007b	89 8d 94 fb ff
	ff		 mov	 DWORD PTR _dwNumAdapterModes$1$[ebp], ecx
  00081	89 85 9c fb ff
	ff		 mov	 DWORD PTR _iMode$1$[ebp], eax

; 49   : 
; 50   : 	for (UINT iMode = 0; iMode < dwNumAdapterModes; iMode++)

  00087	85 c9		 test	 ecx, ecx
  00089	0f 84 54 01 00
	00		 je	 $LN3@GetDisplay
  0008f	56		 push	 esi
  00090	57		 push	 edi
$LL4@GetDisplay:

; 51   : 	{
; 52   : 		D3DDISPLAYMODE DisplayMode;
; 53   : 		lpD3D->EnumAdapterModes(0, iMode, &DisplayMode);

  00091	8b 0b		 mov	 ecx, DWORD PTR [ebx]
  00093	8d 55 ec	 lea	 edx, DWORD PTR _DisplayMode$1[ebp]
  00096	52		 push	 edx
  00097	50		 push	 eax
  00098	6a 00		 push	 0
  0009a	53		 push	 ebx
  0009b	ff 51 1c	 call	 DWORD PTR [ecx+28]

; 54   : 		DWORD bpp = 0;
; 55   : 
; 56   : 		// 800 600  .
; 57   : 		if (DisplayMode.Width < 800 || DisplayMode.Height < 600)

  0009e	8b 45 ec	 mov	 eax, DWORD PTR _DisplayMode$1[ebp]
  000a1	89 85 a0 fb ff
	ff		 mov	 DWORD PTR _DisplayMode$1$[ebp], eax
  000a7	3d 20 03 00 00	 cmp	 eax, 800		; 00000320H
  000ac	0f 82 16 01 00
	00		 jb	 $LN2@GetDisplay
  000b2	8b 5d f0	 mov	 ebx, DWORD PTR _DisplayMode$1[ebp+4]
  000b5	81 fb 58 02 00
	00		 cmp	 ebx, 600		; 00000258H
  000bb	0f 82 01 01 00
	00		 jb	 $LN46@GetDisplay

; 58   : 			continue;
; 59   : 
; 60   : 		//  16bbp  32bbp .
; 61   : 		// 16bbp   - [levites]
; 62   : 		if (DisplayMode.Format == D3DFMT_R5G6B5)

  000c1	8b 45 f8	 mov	 eax, DWORD PTR _DisplayMode$1[ebp+12]
  000c4	83 f8 17	 cmp	 eax, 23			; 00000017H
  000c7	75 05		 jne	 SHORT $LN13@GetDisplay

; 63   : 			bpp = 16;

  000c9	8d 78 f9	 lea	 edi, DWORD PTR [eax-7]
  000cc	eb 0c		 jmp	 SHORT $LN16@GetDisplay
$LN13@GetDisplay:

; 64   : 		else if (DisplayMode.Format == D3DFMT_X8R8G8B8)

  000ce	83 f8 16	 cmp	 eax, 22			; 00000016H
  000d1	0f 85 eb 00 00
	00		 jne	 $LN46@GetDisplay

; 65   : 			bpp = 32;

  000d7	8d 78 0a	 lea	 edi, DWORD PTR [eax+10]
$LN16@GetDisplay:

; 66   : 		else
; 67   : 			continue;
; 68   : 
; 69   : 		int check_res = false;

  000da	8b 85 98 fb ff
	ff		 mov	 eax, DWORD PTR tv701[ebp]

; 70   : 
; 71   : 		for (int i = 0; !check_res && i < m_ResolutionCount; ++i)

  000e0	33 c9		 xor	 ecx, ecx
  000e2	33 f6		 xor	 esi, esi
  000e4	0f 1f 40 00 0f
	1f 84 00 00 00
	00 00		 npad	 12
$LL7@GetDisplay:
  000f0	8b 95 a4 fb ff
	ff		 mov	 edx, DWORD PTR _this$GSCopy$1$[ebp]
  000f6	8b 92 84 25 00
	00		 mov	 edx, DWORD PTR [edx+9604]
  000fc	3b ca		 cmp	 ecx, edx
  000fe	7d 5a		 jge	 SHORT $LN39@GetDisplay

; 72   : 		{
; 73   : 			if (m_ResolutionList[i].bpp != bpp ||
; 74   : 				m_ResolutionList[i].width != DisplayMode.Width ||

  00100	39 78 08	 cmp	 DWORD PTR [eax+8], edi
  00103	75 0f		 jne	 SHORT $LN5@GetDisplay
  00105	8b 95 a0 fb ff
	ff		 mov	 edx, DWORD PTR _DisplayMode$1$[ebp]
  0010b	39 10		 cmp	 DWORD PTR [eax], edx
  0010d	75 05		 jne	 SHORT $LN5@GetDisplay
  0010f	39 58 04	 cmp	 DWORD PTR [eax+4], ebx
  00112	74 09		 je	 SHORT $LN41@GetDisplay
$LN5@GetDisplay:

; 70   : 
; 71   : 		for (int i = 0; !check_res && i < m_ResolutionCount; ++i)

  00114	41		 inc	 ecx
  00115	83 c6 18	 add	 esi, 24			; 00000018H
  00118	83 c0 60	 add	 eax, 96			; 00000060H
  0011b	eb d3		 jmp	 SHORT $LL7@GetDisplay
$LN41@GetDisplay:

; 75   : 				m_ResolutionList[i].height != DisplayMode.Height)
; 76   : 				continue;
; 77   : 
; 78   : 			int check_fre = false;
; 79   : 
; 80   : 			//    .
; 81   : 			for (int j = 0; j < m_ResolutionList[i].frequency_count; ++j)

  0011d	8a 48 5c	 mov	 cl, BYTE PTR [eax+92]
  00120	33 d2		 xor	 edx, edx
  00122	8b 5d f4	 mov	 ebx, DWORD PTR _DisplayMode$1[ebp+8]
  00125	0f b6 f9	 movzx	 edi, cl
  00128	84 c9		 test	 cl, cl
  0012a	74 17		 je	 SHORT $LN38@GetDisplay
  0012c	8d 48 0c	 lea	 ecx, DWORD PTR [eax+12]
  0012f	90		 npad	 1
$LL10@GetDisplay:

; 82   : 			{
; 83   : 				if (m_ResolutionList[i].frequency[j] == DisplayMode.RefreshRate)

  00130	39 19		 cmp	 DWORD PTR [ecx], ebx
  00132	0f 84 8a 00 00
	00		 je	 $LN46@GetDisplay

; 75   : 				m_ResolutionList[i].height != DisplayMode.Height)
; 76   : 				continue;
; 77   : 
; 78   : 			int check_fre = false;
; 79   : 
; 80   : 			//    .
; 81   : 			for (int j = 0; j < m_ResolutionList[i].frequency_count; ++j)

  00138	42		 inc	 edx
  00139	83 c1 04	 add	 ecx, 4
  0013c	3b d7		 cmp	 edx, edi
  0013e	7c f0		 jl	 SHORT $LL10@GetDisplay
  00140	8a 48 5c	 mov	 cl, BYTE PTR [eax+92]
$LN38@GetDisplay:

; 84   : 				{
; 85   : 					check_fre = true;
; 86   : 					break;
; 87   : 				}
; 88   : 			}
; 89   : 
; 90   : 			if (!check_fre)
; 91   : 				if (m_ResolutionList[i].frequency_count < FREQUENCY_MAX_NUM)

  00143	80 f9 1e	 cmp	 cl, 30			; 0000001eH
  00146	73 7a		 jae	 SHORT $LN46@GetDisplay

; 92   : 					m_ResolutionList[i].frequency[m_ResolutionList[i].frequency_count++] = DisplayMode.RefreshRate;

  00148	8b 95 a4 fb ff
	ff		 mov	 edx, DWORD PTR _this$GSCopy$1$[ebp]
  0014e	8d 0c 37	 lea	 ecx, DWORD PTR [edi+esi]
  00151	89 5c 8a 10	 mov	 DWORD PTR [edx+ecx*4+16], ebx
  00155	fe 40 5c	 inc	 BYTE PTR [eax+92]
  00158	eb 68		 jmp	 SHORT $LN46@GetDisplay
$LN39@GetDisplay:

; 93   : 
; 94   : 			check_res = true;
; 95   : 		}
; 96   : 
; 97   : 		if (!check_res)
; 98   : 		{
; 99   : 			//   .
; 100  : 			if (m_ResolutionCount < RESOLUTION_MAX_NUM)

  0015a	83 fa 64	 cmp	 edx, 100		; 00000064H
  0015d	7d 63		 jge	 SHORT $LN46@GetDisplay

; 101  : 			{
; 102  : 				m_ResolutionList[m_ResolutionCount].width			= DisplayMode.Width;

  0015f	8b 9d a4 fb ff
	ff		 mov	 ebx, DWORD PTR _this$GSCopy$1$[ebp]
  00165	8d 04 52	 lea	 eax, DWORD PTR [edx+edx*2]
  00168	8b 8d a0 fb ff
	ff		 mov	 ecx, DWORD PTR _DisplayMode$1$[ebp]
  0016e	c1 e0 05	 shl	 eax, 5
  00171	89 4c 18 04	 mov	 DWORD PTR [eax+ebx+4], ecx

; 103  : 				m_ResolutionList[m_ResolutionCount].height			= DisplayMode.Height;

  00175	8b 83 84 25 00
	00		 mov	 eax, DWORD PTR [ebx+9604]
  0017b	8d 0c 40	 lea	 ecx, DWORD PTR [eax+eax*2]
  0017e	8b 45 f0	 mov	 eax, DWORD PTR _DisplayMode$1[ebp+4]
  00181	c1 e1 05	 shl	 ecx, 5
  00184	89 44 19 08	 mov	 DWORD PTR [ecx+ebx+8], eax

; 104  : 				m_ResolutionList[m_ResolutionCount].bpp				= bpp;

  00188	8b 83 84 25 00
	00		 mov	 eax, DWORD PTR [ebx+9604]
  0018e	8d 04 40	 lea	 eax, DWORD PTR [eax+eax*2]
  00191	c1 e0 05	 shl	 eax, 5
  00194	89 7c 18 0c	 mov	 DWORD PTR [eax+ebx+12], edi

; 105  : 				m_ResolutionList[m_ResolutionCount].frequency[0]	= DisplayMode.RefreshRate;

  00198	8b 83 84 25 00
	00		 mov	 eax, DWORD PTR [ebx+9604]
  0019e	8d 0c 40	 lea	 ecx, DWORD PTR [eax+eax*2]
  001a1	8b 45 f4	 mov	 eax, DWORD PTR _DisplayMode$1[ebp+8]
  001a4	c1 e1 05	 shl	 ecx, 5
  001a7	89 44 19 10	 mov	 DWORD PTR [ecx+ebx+16], eax

; 106  : 				m_ResolutionList[m_ResolutionCount].frequency_count	= 1;

  001ab	8b 83 84 25 00
	00		 mov	 eax, DWORD PTR [ebx+9604]
  001b1	40		 inc	 eax
  001b2	8d 04 40	 lea	 eax, DWORD PTR [eax+eax*2]
  001b5	c1 e0 05	 shl	 eax, 5
  001b8	c6 04 18 01	 mov	 BYTE PTR [eax+ebx], 1

; 107  : 
; 108  : 				++m_ResolutionCount;

  001bc	ff 83 84 25 00
	00		 inc	 DWORD PTR [ebx+9604]
$LN46@GetDisplay:

; 49   : 
; 50   : 	for (UINT iMode = 0; iMode < dwNumAdapterModes; iMode++)

  001c2	8b 9d a8 fb ff
	ff		 mov	 ebx, DWORD PTR _lpD3D$1$[ebp]
$LN2@GetDisplay:
  001c8	8b 85 9c fb ff
	ff		 mov	 eax, DWORD PTR _iMode$1$[ebp]
  001ce	40		 inc	 eax
  001cf	89 85 9c fb ff
	ff		 mov	 DWORD PTR _iMode$1$[ebp], eax
  001d5	3b 85 94 fb ff
	ff		 cmp	 eax, DWORD PTR _dwNumAdapterModes$1$[ebp]
  001db	0f 82 b0 fe ff
	ff		 jb	 $LL4@GetDisplay
  001e1	5f		 pop	 edi
  001e2	5e		 pop	 esi
$LN3@GetDisplay:

; 109  : 			}
; 110  : 		}
; 111  : 	}
; 112  : }

  001e3	8b 4d fc	 mov	 ecx, DWORD PTR __$ArrayPad$[ebp]
  001e6	33 cd		 xor	 ecx, ebp
  001e8	5b		 pop	 ebx
  001e9	e8 00 00 00 00	 call	 @__security_check_cookie@4
  001ee	8b e5		 mov	 esp, ebp
  001f0	5d		 pop	 ebp
  001f1	c3		 ret	 0
?GetDisplaySettings@CPythonSystem@@QAEXXZ ENDP		; CPythonSystem::GetDisplaySettings
_TEXT	ENDS
; Function compile flags: /Ogtp
; File D:\Metin2 Server Files\mainline\SRC_2014\Metin2Client\UserInterface\PythonSystem.cpp
;	COMDAT ?SetSaveID@CPythonSystem@@QAEXHPBD@Z
_TEXT	SEGMENT
_iValue$ = 8						; size = 4
_c_szSaveID$ = 12					; size = 4
?SetSaveID@CPythonSystem@@QAEXHPBD@Z PROC		; CPythonSystem::SetSaveID, COMDAT
; _this$ = ecx

; 263  : {

  00000	55		 push	 ebp
  00001	8b ec		 mov	 ebp, esp

; 264  : 	if (iValue != 1)

  00003	83 7d 08 01	 cmp	 DWORD PTR _iValue$[ebp], 1
  00007	75 1e		 jne	 SHORT $LN1@SetSaveID

; 265  : 		return;
; 266  : 	
; 267  : 	m_Config.isSaveID = iValue;
; 268  : 	strncpy(m_Config.SaveID, c_szSaveID, sizeof(m_Config.SaveID) - 1);

  00009	6a 13		 push	 19			; 00000013H
  0000b	ff 75 0c	 push	 DWORD PTR _c_szSaveID$[ebp]
  0000e	8d 81 b4 25 00
	00		 lea	 eax, DWORD PTR [ecx+9652]
  00014	c7 81 b0 25 00
	00 01 00 00 00	 mov	 DWORD PTR [ecx+9648], 1
  0001e	50		 push	 eax
  0001f	e8 00 00 00 00	 call	 _strncpy
  00024	83 c4 0c	 add	 esp, 12			; 0000000cH
$LN1@SetSaveID:

; 269  : }

  00027	5d		 pop	 ebp
  00028	c2 08 00	 ret	 8
?SetSaveID@CPythonSystem@@QAEXHPBD@Z ENDP		; CPythonSystem::SetSaveID
_TEXT	ENDS
; Function compile flags: /Ogtp
; File D:\Metin2 Server Files\mainline\SRC_2014\Metin2Client\UserInterface\PythonSystem.cpp
;	COMDAT ?GetSaveID@CPythonSystem@@QAEPBDXZ
_TEXT	SEGMENT
?GetSaveID@CPythonSystem@@QAEPBDXZ PROC			; CPythonSystem::GetSaveID, COMDAT
; _this$ = ecx

; 254  : 	return m_Config.SaveID;

  00000	8d 81 b4 25 00
	00		 lea	 eax, DWORD PTR [ecx+9652]

; 255  : }

  00006	c3		 ret	 0
?GetSaveID@CPythonSystem@@QAEPBDXZ ENDP			; CPythonSystem::GetSaveID
_TEXT	ENDS
; Function compile flags: /Ogtp
; File D:\Metin2 Server Files\mainline\SRC_2014\Metin2Client\UserInterface\PythonSystem.cpp
;	COMDAT ?IsSaveID@CPythonSystem@@QAEHXZ
_TEXT	SEGMENT
?IsSaveID@CPythonSystem@@QAEHXZ PROC			; CPythonSystem::IsSaveID, COMDAT
; _this$ = ecx

; 249  : 	return m_Config.isSaveID;

  00000	8b 81 b0 25 00
	00		 mov	 eax, DWORD PTR [ecx+9648]

; 250  : }

  00006	c3		 ret	 0
?IsSaveID@CPythonSystem@@QAEHXZ ENDP			; CPythonSystem::IsSaveID
_TEXT	ENDS
; Function compile flags: /Ogtp
; File D:\Metin2 Server Files\mainline\SRC_2014\Metin2Client\UserInterface\PythonSystem.cpp
;	COMDAT ?SaveWindowStatus@CPythonSystem@@QAEXHHHHHH@Z
_TEXT	SEGMENT
_iIndex$ = 8						; size = 4
_iVisible$ = 12						; size = 4
_iMinimized$ = 16					; size = 4
_ix$ = 20						; size = 4
_iy$ = 24						; size = 4
_iHeight$ = 28						; size = 4
?SaveWindowStatus@CPythonSystem@@QAEXHHHHHH@Z PROC	; CPythonSystem::SaveWindowStatus, COMDAT
; _this$ = ecx

; 26   : {

  00000	55		 push	 ebp
  00001	8b ec		 mov	 ebp, esp

; 27   : 	m_WindowStatus[iIndex].isVisible	= iVisible;

  00003	8b 55 08	 mov	 edx, DWORD PTR _iIndex$[ebp]
  00006	56		 push	 esi
  00007	57		 push	 edi
  00008	8b f9		 mov	 edi, ecx
  0000a	8d 04 92	 lea	 eax, DWORD PTR [edx+edx*4]
  0000d	8d 34 87	 lea	 esi, DWORD PTR [edi+eax*4]
  00010	8b 45 0c	 mov	 eax, DWORD PTR _iVisible$[ebp]
  00013	89 86 28 26 00
	00		 mov	 DWORD PTR [esi+9768], eax

; 28   : 	m_WindowStatus[iIndex].isMinimized	= iMinimized;
; 29   : 	m_WindowStatus[iIndex].ixPosition	= ix;
; 30   : 	m_WindowStatus[iIndex].iyPosition	= iy;

  00019	8d 0c 92	 lea	 ecx, DWORD PTR [edx+edx*4]
  0001c	8b 45 10	 mov	 eax, DWORD PTR _iMinimized$[ebp]
  0001f	89 86 2c 26 00
	00		 mov	 DWORD PTR [esi+9772], eax
  00025	8b 45 14	 mov	 eax, DWORD PTR _ix$[ebp]
  00028	89 86 30 26 00
	00		 mov	 DWORD PTR [esi+9776], eax
  0002e	8b 45 18	 mov	 eax, DWORD PTR _iy$[ebp]
  00031	89 84 8f 34 26
	00 00		 mov	 DWORD PTR [edi+ecx*4+9780], eax

; 31   : 	m_WindowStatus[iIndex].iHeight		= iHeight;

  00038	8b 45 1c	 mov	 eax, DWORD PTR _iHeight$[ebp]
  0003b	5f		 pop	 edi
  0003c	89 86 38 26 00
	00		 mov	 DWORD PTR [esi+9784], eax
  00042	5e		 pop	 esi

; 32   : }

  00043	5d		 pop	 ebp
  00044	c2 18 00	 ret	 24			; 00000018H
?SaveWindowStatus@CPythonSystem@@QAEXHHHHHH@Z ENDP	; CPythonSystem::SaveWindowStatus
_TEXT	ENDS
; Function compile flags: /Ogtp
; File D:\Metin2 Server Files\mainline\SRC_2014\Metin2Client\UserInterface\PythonSystem.cpp
;	COMDAT ?SetShowSalesTextFlag@CPythonSystem@@QAEXH@Z
_TEXT	SEGMENT
_iFlag$ = 8						; size = 4
?SetShowSalesTextFlag@CPythonSystem@@QAEXH@Z PROC	; CPythonSystem::SetShowSalesTextFlag, COMDAT
; _this$ = ecx

; 353  : {

  00000	55		 push	 ebp
  00001	8b ec		 mov	 ebp, esp

; 354  : 	m_Config.bShowSalesText = iFlag == 1 ? true : false;

  00003	83 7d 08 01	 cmp	 DWORD PTR _iFlag$[ebp], 1
  00007	0f 94 c0	 sete	 al
  0000a	88 81 d0 25 00
	00		 mov	 BYTE PTR [ecx+9680], al

; 355  : }

  00010	5d		 pop	 ebp
  00011	c2 04 00	 ret	 4
?SetShowSalesTextFlag@CPythonSystem@@QAEXH@Z ENDP	; CPythonSystem::SetShowSalesTextFlag
_TEXT	ENDS
; Function compile flags: /Ogtp
; File D:\Metin2 Server Files\mainline\SRC_2014\Metin2Client\UserInterface\PythonSystem.cpp
;	COMDAT ?SetShowDamageFlag@CPythonSystem@@QAEXH@Z
_TEXT	SEGMENT
_iFlag$ = 8						; size = 4
?SetShowDamageFlag@CPythonSystem@@QAEXH@Z PROC		; CPythonSystem::SetShowDamageFlag, COMDAT
; _this$ = ecx

; 343  : {

  00000	55		 push	 ebp
  00001	8b ec		 mov	 ebp, esp

; 344  : 	m_Config.bShowDamage = iFlag == 1 ? true : false;

  00003	83 7d 08 01	 cmp	 DWORD PTR _iFlag$[ebp], 1
  00007	0f 94 c0	 sete	 al
  0000a	88 81 cf 25 00
	00		 mov	 BYTE PTR [ecx+9679], al

; 345  : }

  00010	5d		 pop	 ebp
  00011	c2 04 00	 ret	 4
?SetShowDamageFlag@CPythonSystem@@QAEXH@Z ENDP		; CPythonSystem::SetShowDamageFlag
_TEXT	ENDS
; Function compile flags: /Ogtp
; File D:\Metin2 Server Files\mainline\SRC_2014\Metin2Client\UserInterface\PythonSystem.cpp
;	COMDAT ?SetAlwaysShowNameFlag@CPythonSystem@@QAEXH@Z
_TEXT	SEGMENT
_iFlag$ = 8						; size = 4
?SetAlwaysShowNameFlag@CPythonSystem@@QAEXH@Z PROC	; CPythonSystem::SetAlwaysShowNameFlag, COMDAT
; _this$ = ecx

; 333  : {

  00000	55		 push	 ebp
  00001	8b ec		 mov	 ebp, esp

; 334  : 	m_Config.bAlwaysShowName = iFlag == 1 ? true : false;

  00003	83 7d 08 01	 cmp	 DWORD PTR _iFlag$[ebp], 1
  00007	0f 94 c0	 sete	 al
  0000a	88 81 ce 25 00
	00		 mov	 BYTE PTR [ecx+9678], al

; 335  : }

  00010	5d		 pop	 ebp
  00011	c2 04 00	 ret	 4
?SetAlwaysShowNameFlag@CPythonSystem@@QAEXH@Z ENDP	; CPythonSystem::SetAlwaysShowNameFlag
_TEXT	ENDS
; Function compile flags: /Ogtp
; File D:\Metin2 Server Files\mainline\SRC_2014\Metin2Client\UserInterface\PythonSystem.cpp
;	COMDAT ?SetViewChatFlag@CPythonSystem@@QAEXH@Z
_TEXT	SEGMENT
_iFlag$ = 8						; size = 4
?SetViewChatFlag@CPythonSystem@@QAEXH@Z PROC		; CPythonSystem::SetViewChatFlag, COMDAT
; _this$ = ecx

; 323  : {

  00000	55		 push	 ebp
  00001	8b ec		 mov	 ebp, esp

; 324  : 	m_Config.bViewChat = iFlag == 1 ? true : false;

  00003	83 7d 08 01	 cmp	 DWORD PTR _iFlag$[ebp], 1
  00007	0f 94 c0	 sete	 al
  0000a	88 81 cd 25 00
	00		 mov	 BYTE PTR [ecx+9677], al

; 325  : }

  00010	5d		 pop	 ebp
  00011	c2 04 00	 ret	 4
?SetViewChatFlag@CPythonSystem@@QAEXH@Z ENDP		; CPythonSystem::SetViewChatFlag
_TEXT	ENDS
; Function compile flags: /Ogtp
; File D:\Metin2 Server Files\mainline\SRC_2014\Metin2Client\UserInterface\PythonSystem.cpp
;	COMDAT ?SetSoftwareTiling@CPythonSystem@@QAEX_N@Z
_TEXT	SEGMENT
_isEnable$ = 8						; size = 1
?SetSoftwareTiling@CPythonSystem@@QAEX_N@Z PROC		; CPythonSystem::SetSoftwareTiling, COMDAT
; _this$ = ecx

; 366  : {

  00000	55		 push	 ebp
  00001	8b ec		 mov	 ebp, esp

; 367  : 	if (isEnable)
; 368  : 		m_Config.bSoftwareTiling=1;
; 369  : 	else
; 370  : 		m_Config.bSoftwareTiling=2;
; 371  : }

  00003	8a 45 08	 mov	 al, BYTE PTR _isEnable$[ebp]
  00006	34 01		 xor	 al, 1
  00008	fe c0		 inc	 al
  0000a	88 81 cc 25 00
	00		 mov	 BYTE PTR [ecx+9676], al
  00010	5d		 pop	 ebp
  00011	c2 04 00	 ret	 4
?SetSoftwareTiling@CPythonSystem@@QAEX_N@Z ENDP		; CPythonSystem::SetSoftwareTiling
_TEXT	ENDS
; Function compile flags: /Ogtp
; File D:\Metin2 Server Files\mainline\SRC_2014\Metin2Client\UserInterface\PythonSystem.cpp
;	COMDAT ?IsSoftwareTiling@CPythonSystem@@QAE_NXZ
_TEXT	SEGMENT
?IsSoftwareTiling@CPythonSystem@@QAE_NXZ PROC		; CPythonSystem::IsSoftwareTiling, COMDAT
; _this$ = ecx

; 375  : 	if (m_Config.bSoftwareTiling==1)

  00000	80 b9 cc 25 00
	00 01		 cmp	 BYTE PTR [ecx+9676], 1
  00007	0f 94 c0	 sete	 al

; 376  : 		return true;
; 377  : 
; 378  : 	return false;
; 379  : }

  0000a	c3		 ret	 0
?IsSoftwareTiling@CPythonSystem@@QAE_NXZ ENDP		; CPythonSystem::IsSoftwareTiling
_TEXT	ENDS
; Function compile flags: /Ogtp
; File D:\Metin2 Server Files\mainline\SRC_2014\Metin2Client\UserInterface\PythonSystem.cpp
;	COMDAT ?IsAutoTiling@CPythonSystem@@QAE_NXZ
_TEXT	SEGMENT
?IsAutoTiling@CPythonSystem@@QAE_NXZ PROC		; CPythonSystem::IsAutoTiling, COMDAT
; _this$ = ecx

; 359  : 	if (m_Config.bSoftwareTiling == 0)

  00000	80 b9 cc 25 00
	00 00		 cmp	 BYTE PTR [ecx+9676], 0
  00007	0f 94 c0	 sete	 al

; 360  : 		return true;
; 361  : 
; 362  : 	return false;
; 363  : }

  0000a	c3		 ret	 0
?IsAutoTiling@CPythonSystem@@QAE_NXZ ENDP		; CPythonSystem::IsAutoTiling
_TEXT	ENDS
; Function compile flags: /Ogtp
; File D:\Metin2 Server Files\mainline\SRC_2014\Metin2Client\UserInterface\PythonSystem.cpp
;	COMDAT ?IsNoSoundCard@CPythonSystem@@QAE_NXZ
_TEXT	SEGMENT
?IsNoSoundCard@CPythonSystem@@QAE_NXZ PROC		; CPythonSystem::IsNoSoundCard, COMDAT
; _this$ = ecx

; 203  : 	return m_Config.bNoSoundCard;

  00000	8a 81 ca 25 00
	00		 mov	 al, BYTE PTR [ecx+9674]

; 204  : }

  00006	c3		 ret	 0
?IsNoSoundCard@CPythonSystem@@QAE_NXZ ENDP		; CPythonSystem::IsNoSoundCard
_TEXT	ENDS
; Function compile flags: /Ogtp
; File D:\Metin2 Server Files\mainline\SRC_2014\Metin2Client\UserInterface\PythonSystem.cpp
;	COMDAT ?IsUseDefaultIME@CPythonSystem@@QAE_NXZ
_TEXT	SEGMENT
?IsUseDefaultIME@CPythonSystem@@QAE_NXZ PROC		; CPythonSystem::IsUseDefaultIME, COMDAT
; _this$ = ecx

; 383  : 	return m_Config.bUseDefaultIME;

  00000	8a 81 cb 25 00
	00		 mov	 al, BYTE PTR [ecx+9675]

; 384  : }

  00006	c3		 ret	 0
?IsUseDefaultIME@CPythonSystem@@QAE_NXZ ENDP		; CPythonSystem::IsUseDefaultIME
_TEXT	ENDS
; Function compile flags: /Ogtp
; File D:\Metin2 Server Files\mainline\SRC_2014\Metin2Client\UserInterface\PythonSystem.cpp
;	COMDAT ?IsShowSalesText@CPythonSystem@@QAE_NXZ
_TEXT	SEGMENT
?IsShowSalesText@CPythonSystem@@QAE_NXZ PROC		; CPythonSystem::IsShowSalesText, COMDAT
; _this$ = ecx

; 349  : 	return m_Config.bShowSalesText;

  00000	8a 81 d0 25 00
	00		 mov	 al, BYTE PTR [ecx+9680]

; 350  : }

  00006	c3		 ret	 0
?IsShowSalesText@CPythonSystem@@QAE_NXZ ENDP		; CPythonSystem::IsShowSalesText
_TEXT	ENDS
; Function compile flags: /Ogtp
; File D:\Metin2 Server Files\mainline\SRC_2014\Metin2Client\UserInterface\PythonSystem.cpp
;	COMDAT ?IsShowDamage@CPythonSystem@@QAE_NXZ
_TEXT	SEGMENT
?IsShowDamage@CPythonSystem@@QAE_NXZ PROC		; CPythonSystem::IsShowDamage, COMDAT
; _this$ = ecx

; 339  : 	return m_Config.bShowDamage;

  00000	8a 81 cf 25 00
	00		 mov	 al, BYTE PTR [ecx+9679]

; 340  : }

  00006	c3		 ret	 0
?IsShowDamage@CPythonSystem@@QAE_NXZ ENDP		; CPythonSystem::IsShowDamage
_TEXT	ENDS
; Function compile flags: /Ogtp
; File D:\Metin2 Server Files\mainline\SRC_2014\Metin2Client\UserInterface\PythonSystem.cpp
;	COMDAT ?IsAlwaysShowName@CPythonSystem@@QAE_NXZ
_TEXT	SEGMENT
?IsAlwaysShowName@CPythonSystem@@QAE_NXZ PROC		; CPythonSystem::IsAlwaysShowName, COMDAT
; _this$ = ecx

; 329  : 	return m_Config.bAlwaysShowName;

  00000	8a 81 ce 25 00
	00		 mov	 al, BYTE PTR [ecx+9678]

; 330  : }

  00006	c3		 ret	 0
?IsAlwaysShowName@CPythonSystem@@QAE_NXZ ENDP		; CPythonSystem::IsAlwaysShowName
_TEXT	ENDS
; Function compile flags: /Ogtp
; File D:\Metin2 Server Files\mainline\SRC_2014\Metin2Client\UserInterface\PythonSystem.cpp
;	COMDAT ?IsViewChat@CPythonSystem@@QAE_NXZ
_TEXT	SEGMENT
?IsViewChat@CPythonSystem@@QAE_NXZ PROC			; CPythonSystem::IsViewChat, COMDAT
; _this$ = ecx

; 319  : 	return m_Config.bViewChat;

  00000	8a 81 cd 25 00
	00		 mov	 al, BYTE PTR [ecx+9677]

; 320  : }

  00006	c3		 ret	 0
?IsViewChat@CPythonSystem@@QAE_NXZ ENDP			; CPythonSystem::IsViewChat
_TEXT	ENDS
; Function compile flags: /Ogtp
; File D:\Metin2 Server Files\mainline\SRC_2014\Metin2Client\UserInterface\PythonSystem.cpp
;	COMDAT ?IsWindowed@CPythonSystem@@QAE_NXZ
_TEXT	SEGMENT
?IsWindowed@CPythonSystem@@QAE_NXZ PROC			; CPythonSystem::IsWindowed, COMDAT
; _this$ = ecx

; 314  : 	return m_Config.bWindowed;

  00000	8a 81 c8 25 00
	00		 mov	 al, BYTE PTR [ecx+9672]

; 315  : }

  00006	c3		 ret	 0
?IsWindowed@CPythonSystem@@QAE_NXZ ENDP			; CPythonSystem::IsWindowed
_TEXT	ENDS
; Function compile flags: /Ogtp
; File D:\Metin2 Server Files\mainline\SRC_2014\Metin2Client\UserInterface\PythonSystem.cpp
;	COMDAT ?IsSoftwareCursor@CPythonSystem@@QAE_NXZ
_TEXT	SEGMENT
?IsSoftwareCursor@CPythonSystem@@QAE_NXZ PROC		; CPythonSystem::IsSoftwareCursor, COMDAT
; _this$ = ecx

; 208  : 	return m_Config.is_software_cursor;

  00000	8a 81 98 25 00
	00		 mov	 al, BYTE PTR [ecx+9624]

; 209  : }

  00006	c3		 ret	 0
?IsSoftwareCursor@CPythonSystem@@QAE_NXZ ENDP		; CPythonSystem::IsSoftwareCursor
_TEXT	ENDS
; Function compile flags: /Ogtp
; File D:\Metin2 Server Files\mainline\SRC_2014\Metin2Client\UserInterface\PythonSystem.cpp
;	COMDAT ?GetFrequency@CPythonSystem@@QAEKXZ
_TEXT	SEGMENT
?GetFrequency@CPythonSystem@@QAEKXZ PROC		; CPythonSystem::GetFrequency, COMDAT
; _this$ = ecx

; 198  : 	return m_Config.frequency;

  00000	8b 81 94 25 00
	00		 mov	 eax, DWORD PTR [ecx+9620]

; 199  : }

  00006	c3		 ret	 0
?GetFrequency@CPythonSystem@@QAEKXZ ENDP		; CPythonSystem::GetFrequency
_TEXT	ENDS
; Function compile flags: /Ogtp
; File D:\Metin2 Server Files\mainline\SRC_2014\Metin2Client\UserInterface\PythonSystem.cpp
;	COMDAT ?GetBPP@CPythonSystem@@QAEKXZ
_TEXT	SEGMENT
?GetBPP@CPythonSystem@@QAEKXZ PROC			; CPythonSystem::GetBPP, COMDAT
; _this$ = ecx

; 194  : 	return m_Config.bpp;

  00000	8b 81 90 25 00
	00		 mov	 eax, DWORD PTR [ecx+9616]

; 195  : }

  00006	c3		 ret	 0
?GetBPP@CPythonSystem@@QAEKXZ ENDP			; CPythonSystem::GetBPP
_TEXT	ENDS
; Function compile flags: /Ogtp
; File D:\Metin2 Server Files\mainline\SRC_2014\Metin2Client\UserInterface\PythonSystem.cpp
;	COMDAT ?GetHeight@CPythonSystem@@QAEKXZ
_TEXT	SEGMENT
?GetHeight@CPythonSystem@@QAEKXZ PROC			; CPythonSystem::GetHeight, COMDAT
; _this$ = ecx

; 190  : 	return m_Config.height;

  00000	8b 81 8c 25 00
	00		 mov	 eax, DWORD PTR [ecx+9612]

; 191  : }

  00006	c3		 ret	 0
?GetHeight@CPythonSystem@@QAEKXZ ENDP			; CPythonSystem::GetHeight
_TEXT	ENDS
; Function compile flags: /Ogtp
; File D:\Metin2 Server Files\mainline\SRC_2014\Metin2Client\UserInterface\PythonSystem.cpp
;	COMDAT ?GetWidth@CPythonSystem@@QAEKXZ
_TEXT	SEGMENT
?GetWidth@CPythonSystem@@QAEKXZ PROC			; CPythonSystem::GetWidth, COMDAT
; _this$ = ecx

; 185  : 	return m_Config.width;

  00000	8b 81 88 25 00
	00		 mov	 eax, DWORD PTR [ecx+9608]

; 186  : }

  00006	c3		 ret	 0
?GetWidth@CPythonSystem@@QAEKXZ ENDP			; CPythonSystem::GetWidth
_TEXT	ENDS
; Function compile flags: /Ogtp
; File D:\Metin2 Server Files\mainline\SRC_2014\Metin2Client\UserInterface\PythonSystem.cpp
;	COMDAT ?GetWindowStatusReference@CPythonSystem@@QAEABUSWindowStatus@1@H@Z
_TEXT	SEGMENT
_iIndex$ = 8						; size = 4
?GetWindowStatusReference@CPythonSystem@@QAEABUSWindowStatus@1@H@Z PROC ; CPythonSystem::GetWindowStatusReference, COMDAT
; _this$ = ecx

; 585  : {

  00000	55		 push	 ebp
  00001	8b ec		 mov	 ebp, esp

; 586  : 	return m_WindowStatus[iIndex];

  00003	8b 45 08	 mov	 eax, DWORD PTR _iIndex$[ebp]
  00006	8d 04 80	 lea	 eax, DWORD PTR [eax+eax*4]
  00009	8d 80 8a 09 00
	00		 lea	 eax, DWORD PTR [eax+2442]
  0000f	8d 04 81	 lea	 eax, DWORD PTR [ecx+eax*4]

; 587  : }

  00012	5d		 pop	 ebp
  00013	c2 04 00	 ret	 4
?GetWindowStatusReference@CPythonSystem@@QAEABUSWindowStatus@1@H@Z ENDP ; CPythonSystem::GetWindowStatusReference
_TEXT	ENDS
; Function compile flags: /Ogtp
; File D:\Metin2 Server Files\mainline\SRC_2014\Metin2Client\UserInterface\PythonSystem.cpp
;	COMDAT ?isInterfaceConfig@CPythonSystem@@QAE_NXZ
_TEXT	SEGMENT
?isInterfaceConfig@CPythonSystem@@QAE_NXZ PROC		; CPythonSystem::isInterfaceConfig, COMDAT
; _this$ = ecx

; 581  : 	return m_isInterfaceConfig;

  00000	8a 81 20 26 00
	00		 mov	 al, BYTE PTR [ecx+9760]

; 582  : }

  00006	c3		 ret	 0
?isInterfaceConfig@CPythonSystem@@QAE_NXZ ENDP		; CPythonSystem::isInterfaceConfig
_TEXT	ENDS
; Function compile flags: /Ogtp
; File D:\Metin2 Server Files\mainline\SRC_2014\Metin2Client\UserInterface\PythonSystem.cpp
;	COMDAT ?SaveInterfaceStatus@CPythonSystem@@QAEXXZ
_TEXT	SEGMENT
?SaveInterfaceStatus@CPythonSystem@@QAEXXZ PROC		; CPythonSystem::SaveInterfaceStatus, COMDAT
; _this$ = ecx

; 559  : {

  00000	56		 push	 esi
  00001	8b f1		 mov	 esi, ecx

; 560  : 	if (!m_poInterfaceHandler)

  00003	83 be 24 26 00
	00 00		 cmp	 DWORD PTR [esi+9764], 0
  0000a	74 63		 je	 SHORT $LN1@SaveInterf

; 561  : 		return;
; 562  : 
; 563  : 	PyCallClassMemberFunc(m_poInterfaceHandler, "OnSaveInterfaceStatus", Py_BuildValue("()"));

  0000c	57		 push	 edi
  0000d	68 00 00 00 00	 push	 OFFSET ??_C@_02HCKGKOFO@?$CI?$CJ@
  00012	ff 15 00 00 00
	00		 call	 DWORD PTR __imp__Py_BuildValue
  00018	50		 push	 eax
  00019	68 00 00 00 00	 push	 OFFSET ??_C@_0BG@OMGMEENH@OnSaveInterfaceStatus@
  0001e	ff b6 24 26 00
	00		 push	 DWORD PTR [esi+9764]
  00024	e8 00 00 00 00	 call	 ?PyCallClassMemberFunc@@YA_NPAU_object@@PBD0@Z ; PyCallClassMemberFunc

; 564  : 
; 565  : 	FILE * File;
; 566  : 
; 567  : 	File = fopen("interface.cfg", "wb");

  00029	68 00 00 00 00	 push	 OFFSET ??_C@_02GMLFBBN@wb@
  0002e	68 00 00 00 00	 push	 OFFSET ??_C@_0O@OMHCOGAL@interface?4cfg@
  00033	e8 00 00 00 00	 call	 _fopen
  00038	8b f8		 mov	 edi, eax
  0003a	83 c4 18	 add	 esp, 24			; 00000018H

; 568  : 
; 569  : 	if (!File)

  0003d	85 ff		 test	 edi, edi
  0003f	75 10		 jne	 SHORT $LN3@SaveInterf

; 570  : 	{
; 571  : 		TraceError("Cannot open interface.cfg");

  00041	68 00 00 00 00	 push	 OFFSET ??_C@_0BK@BDPDEBGA@Cannot?5open?5interface?4cfg@
  00046	e8 00 00 00 00	 call	 ?TraceError@@YAXPBDZZ	; TraceError
  0004b	83 c4 04	 add	 esp, 4
  0004e	5f		 pop	 edi
  0004f	5e		 pop	 esi

; 577  : }

  00050	c3		 ret	 0
$LN3@SaveInterf:

; 572  : 		return;
; 573  : 	}
; 574  : 
; 575  : 	fwrite(m_WindowStatus, 1, sizeof(TWindowStatus) * WINDOW_MAX_NUM, File);

  00051	57		 push	 edi
  00052	68 c8 00 00 00	 push	 200			; 000000c8H
  00057	8d 86 28 26 00
	00		 lea	 eax, DWORD PTR [esi+9768]
  0005d	6a 01		 push	 1
  0005f	50		 push	 eax
  00060	e8 00 00 00 00	 call	 _fwrite

; 576  : 	fclose(File);

  00065	57		 push	 edi
  00066	e8 00 00 00 00	 call	 _fclose
  0006b	83 c4 14	 add	 esp, 20			; 00000014H
  0006e	5f		 pop	 edi
$LN1@SaveInterf:

; 577  : }

  0006f	5e		 pop	 esi
  00070	c3		 ret	 0
?SaveInterfaceStatus@CPythonSystem@@QAEXXZ ENDP		; CPythonSystem::SaveInterfaceStatus
_TEXT	ENDS
; Function compile flags: /Ogtp
; File D:\Metin2 Server Files\mainline\SRC_2014\Metin2Client\UserInterface\PythonSystem.cpp
;	COMDAT ?LoadInterfaceStatus@CPythonSystem@@QAE_NXZ
_TEXT	SEGMENT
?LoadInterfaceStatus@CPythonSystem@@QAE_NXZ PROC	; CPythonSystem::LoadInterfaceStatus, COMDAT
; _this$ = ecx

; 546  : {

  00000	56		 push	 esi
  00001	57		 push	 edi

; 547  : 	FILE * File;
; 548  : 	File = fopen("interface.cfg", "rb");

  00002	68 00 00 00 00	 push	 OFFSET ??_C@_02JDPG@rb@
  00007	68 00 00 00 00	 push	 OFFSET ??_C@_0O@OMHCOGAL@interface?4cfg@
  0000c	8b f9		 mov	 edi, ecx
  0000e	e8 00 00 00 00	 call	 _fopen
  00013	8b f0		 mov	 esi, eax
  00015	83 c4 08	 add	 esp, 8

; 549  : 
; 550  : 	if (!File)

  00018	85 f6		 test	 esi, esi
  0001a	75 05		 jne	 SHORT $LN2@LoadInterf

; 551  : 		return false;

  0001c	5f		 pop	 edi
  0001d	32 c0		 xor	 al, al

; 556  : }

  0001f	5e		 pop	 esi
  00020	c3		 ret	 0
$LN2@LoadInterf:

; 552  : 
; 553  : 	fread(m_WindowStatus, 1, sizeof(TWindowStatus) * WINDOW_MAX_NUM, File);

  00021	56		 push	 esi
  00022	68 c8 00 00 00	 push	 200			; 000000c8H
  00027	8d 87 28 26 00
	00		 lea	 eax, DWORD PTR [edi+9768]
  0002d	6a 01		 push	 1
  0002f	50		 push	 eax
  00030	e8 00 00 00 00	 call	 _fread

; 554  : 	fclose(File);

  00035	56		 push	 esi
  00036	e8 00 00 00 00	 call	 _fclose
  0003b	83 c4 14	 add	 esp, 20			; 00000014H

; 555  : 	return true;

  0003e	b0 01		 mov	 al, 1
  00040	5f		 pop	 edi

; 556  : }

  00041	5e		 pop	 esi
  00042	c3		 ret	 0
?LoadInterfaceStatus@CPythonSystem@@QAE_NXZ ENDP	; CPythonSystem::LoadInterfaceStatus
_TEXT	ENDS
; Function compile flags: /Ogtp
; File D:\Metin2 Server Files\mainline\SRC_2014\Metin2Client\UserInterface\PythonSystem.cpp
;	COMDAT ?ChangeSystem@CPythonSystem@@QAEXXZ
_TEXT	SEGMENT
?ChangeSystem@CPythonSystem@@QAEXXZ PROC		; CPythonSystem::ChangeSystem, COMDAT
; _this$ = ecx

; 621  : {

  00000	56		 push	 esi
  00001	8b f1		 mov	 esi, ecx
  00003	57		 push	 edi

; 622  : 	// Shadow
; 623  : 	/*
; 624  : 	if (m_Config.is_shadow)
; 625  : 		CScreen::SetShadowFlag(true);
; 626  : 	else
; 627  : 		CScreen::SetShadowFlag(false);
; 628  : 	*/
; 629  : 	CSoundManager& rkSndMgr = CSoundManager::Instance();

  00004	8b 3d 00 00 00
	00		 mov	 edi, DWORD PTR ?ms_singleton@?$CSingleton@VCSoundManager@@@@0PAVCSoundManager@@A ; CSingleton<CSoundManager>::ms_singleton

; 630  : 	/*
; 631  : 	float fMusicVolume;
; 632  : 	if (0 == m_Config.music_volume)
; 633  : 		fMusicVolume = 0.0f;
; 634  : 	else
; 635  : 		fMusicVolume= (float)pow(10.0f, (-1.0f + (float)m_Config.music_volume / 5.0f));
; 636  : 		*/
; 637  : 	rkSndMgr.SetMusicVolume(m_Config.music_volume);

  0000a	51		 push	 ecx
  0000b	f3 0f 10 86 a4
	25 00 00	 movss	 xmm0, DWORD PTR [esi+9636]
  00013	8b cf		 mov	 ecx, edi
  00015	f3 0f 11 04 24	 movss	 DWORD PTR [esp], xmm0
  0001a	e8 00 00 00 00	 call	 ?SetMusicVolume@CSoundManager@@QAEXM@Z ; CSoundManager::SetMusicVolume

; 638  : 
; 639  : 	/*
; 640  : 	float fVoiceVolume;
; 641  : 	if (0 == m_Config.voice_volume)
; 642  : 		fVoiceVolume = 0.0f;
; 643  : 	else
; 644  : 		fVoiceVolume = (float)pow(10.0f, (-1.0f + (float)m_Config.voice_volume / 5.0f));
; 645  : 	*/
; 646  : 	rkSndMgr.SetSoundVolumeGrade(m_Config.voice_volume);	

  0001f	0f b6 86 a8 25
	00 00		 movzx	 eax, BYTE PTR [esi+9640]
  00026	8b cf		 mov	 ecx, edi
  00028	50		 push	 eax
  00029	e8 00 00 00 00	 call	 ?SetSoundVolumeGrade@CSoundManager@@QAEXH@Z ; CSoundManager::SetSoundVolumeGrade
  0002e	5f		 pop	 edi
  0002f	5e		 pop	 esi

; 647  : }

  00030	c3		 ret	 0
?ChangeSystem@CPythonSystem@@QAEXXZ ENDP		; CPythonSystem::ChangeSystem
_TEXT	ENDS
; Function compile flags: /Ogtp
; File D:\Metin2 Server Files\mainline\SRC_2014\Metin2Client\UserInterface\PythonSystem.cpp
;	COMDAT ?GetConfig@CPythonSystem@@QAEPAUSConfig@1@XZ
_TEXT	SEGMENT
?GetConfig@CPythonSystem@@QAEPAUSConfig@1@XZ PROC	; CPythonSystem::GetConfig, COMDAT
; _this$ = ecx

; 273  : 	return &m_Config;

  00000	8d 81 88 25 00
	00		 lea	 eax, DWORD PTR [ecx+9608]

; 274  : }

  00006	c3		 ret	 0
?GetConfig@CPythonSystem@@QAEPAUSConfig@1@XZ ENDP	; CPythonSystem::GetConfig
_TEXT	ENDS
; Function compile flags: /Ogtp
; File D:\Metin2 Server Files\mainline\SRC_2014\Metin2Client\UserInterface\PythonSystem.cpp
;	COMDAT ?SetConfig@CPythonSystem@@QAEXPAUSConfig@1@@Z
_TEXT	SEGMENT
_pNewConfig$ = 8					; size = 4
?SetConfig@CPythonSystem@@QAEXPAUSConfig@1@@Z PROC	; CPythonSystem::SetConfig, COMDAT
; _this$ = ecx

; 277  : {

  00000	55		 push	 ebp
  00001	8b ec		 mov	 ebp, esp

; 278  : 	m_Config = *pNewConfig;

  00003	8b 45 08	 mov	 eax, DWORD PTR _pNewConfig$[ebp]
  00006	0f 10 00	 movups	 xmm0, XMMWORD PTR [eax]
  00009	0f 11 81 88 25
	00 00		 movups	 XMMWORD PTR [ecx+9608], xmm0
  00010	0f 10 40 10	 movups	 xmm0, XMMWORD PTR [eax+16]
  00014	0f 11 81 98 25
	00 00		 movups	 XMMWORD PTR [ecx+9624], xmm0
  0001b	0f 10 40 20	 movups	 xmm0, XMMWORD PTR [eax+32]
  0001f	0f 11 81 a8 25
	00 00		 movups	 XMMWORD PTR [ecx+9640], xmm0
  00026	0f 10 40 30	 movups	 xmm0, XMMWORD PTR [eax+48]
  0002a	0f 11 81 b8 25
	00 00		 movups	 XMMWORD PTR [ecx+9656], xmm0
  00031	f3 0f 7e 40 40	 movq	 xmm0, QWORD PTR [eax+64]
  00036	66 0f d6 81 c8
	25 00 00	 movq	 QWORD PTR [ecx+9672], xmm0
  0003e	8b 40 48	 mov	 eax, DWORD PTR [eax+72]
  00041	89 81 d0 25 00
	00		 mov	 DWORD PTR [ecx+9680], eax

; 279  : }

  00047	5d		 pop	 ebp
  00048	c2 04 00	 ret	 4
?SetConfig@CPythonSystem@@QAEXPAUSConfig@1@@Z ENDP	; CPythonSystem::SetConfig
_TEXT	ENDS
; Function compile flags: /Ogtp
; File D:\Metin2 Server Files\mainline\SRC_2014\Metin2Client\UserInterface\PythonSystem.cpp
;	COMDAT ?ApplyConfig@CPythonSystem@@QAEXXZ
_TEXT	SEGMENT
?ApplyConfig@CPythonSystem@@QAEXXZ PROC			; CPythonSystem::ApplyConfig, COMDAT
; _this$ = ecx

; 590  : {

  00000	56		 push	 esi
  00001	8b f1		 mov	 esi, ecx

; 591  : 	if (m_OldConfig.gamma != m_Config.gamma)

  00003	8b 86 ac 25 00
	00		 mov	 eax, DWORD PTR [esi+9644]
  00009	39 86 f8 25 00
	00		 cmp	 DWORD PTR [esi+9720], eax
  0000f	74 4b		 je	 SHORT $LN4@ApplyConfi

; 592  : 	{
; 593  : 		float val = 1.0f;

  00011	f3 0f 10 05 00
	00 00 00	 movss	 xmm0, DWORD PTR __real@3f800000

; 594  : 		
; 595  : 		switch (m_Config.gamma)

  00019	83 f8 04	 cmp	 eax, 4
  0001c	77 2d		 ja	 SHORT $LN2@ApplyConfi
  0001e	ff 24 85 00 00
	00 00		 jmp	 DWORD PTR $LN14@ApplyConfi[eax*4]
$LN5@ApplyConfi:

; 596  : 		{
; 597  : 			case 0: val = 0.4f;	break;

  00025	f3 0f 10 05 00
	00 00 00	 movss	 xmm0, DWORD PTR __real@3ecccccd
  0002d	eb 1c		 jmp	 SHORT $LN2@ApplyConfi
$LN6@ApplyConfi:

; 598  : 			case 1: val = 0.7f; break;

  0002f	f3 0f 10 05 00
	00 00 00	 movss	 xmm0, DWORD PTR __real@3f333333
  00037	eb 12		 jmp	 SHORT $LN2@ApplyConfi
$LN8@ApplyConfi:

; 599  : 			case 2: val = 1.0f; break;
; 600  : 			case 3: val = 1.2f; break;

  00039	f3 0f 10 05 00
	00 00 00	 movss	 xmm0, DWORD PTR __real@3f99999a
  00041	eb 08		 jmp	 SHORT $LN2@ApplyConfi
$LN9@ApplyConfi:

; 601  : 			case 4: val = 1.4f; break;

  00043	f3 0f 10 05 00
	00 00 00	 movss	 xmm0, DWORD PTR __real@3fb33333
$LN2@ApplyConfi:

; 602  : 		}
; 603  : 		
; 604  : 		CPythonGraphic::Instance().SetGamma(val);

  0004b	51		 push	 ecx
  0004c	8b 0d 00 00 00
	00		 mov	 ecx, DWORD PTR ?ms_singleton@?$CSingleton@VCPythonGraphic@@@@0PAVCPythonGraphic@@A ; CSingleton<CPythonGraphic>::ms_singleton
  00052	f3 0f 11 04 24	 movss	 DWORD PTR [esp], xmm0
  00057	e8 00 00 00 00	 call	 ?SetGamma@CPythonGraphic@@QAEXM@Z ; CPythonGraphic::SetGamma
$LN4@ApplyConfi:

; 605  : 	}
; 606  : 
; 607  : 	if (m_OldConfig.is_software_cursor != m_Config.is_software_cursor)

  0005c	8a 86 98 25 00
	00		 mov	 al, BYTE PTR [esi+9624]
  00062	38 86 e4 25 00
	00		 cmp	 BYTE PTR [esi+9700], al
  00068	74 15		 je	 SHORT $LN12@ApplyConfi

; 608  : 	{
; 609  : 		if (m_Config.is_software_cursor)

  0006a	8b 0d 00 00 00
	00		 mov	 ecx, DWORD PTR ?ms_pInstance@CPythonApplication@@1PAV1@A ; CPythonApplication::ms_pInstance
  00070	84 c0		 test	 al, al
  00072	74 04		 je	 SHORT $LN11@ApplyConfi

; 610  : 			CPythonApplication::Instance().SetCursorMode(CPythonApplication::CURSOR_MODE_SOFTWARE);

  00074	6a 01		 push	 1
  00076	eb 02		 jmp	 SHORT $LN17@ApplyConfi
$LN11@ApplyConfi:

; 611  : 		else
; 612  : 			CPythonApplication::Instance().SetCursorMode(CPythonApplication::CURSOR_MODE_HARDWARE);

  00078	6a 00		 push	 0
$LN17@ApplyConfi:

; 613  : 	}
; 614  : 
; 615  : 	m_OldConfig = m_Config;

  0007a	e8 00 00 00 00	 call	 ?SetCursorMode@CPythonApplication@@QAEXH@Z ; CPythonApplication::SetCursorMode
$LN12@ApplyConfi:
  0007f	0f 10 86 88 25
	00 00		 movups	 xmm0, XMMWORD PTR [esi+9608]
  00086	8b 86 d0 25 00
	00		 mov	 eax, DWORD PTR [esi+9680]

; 616  : 
; 617  : 	ChangeSystem();

  0008c	8b ce		 mov	 ecx, esi
  0008e	0f 11 86 d4 25
	00 00		 movups	 XMMWORD PTR [esi+9684], xmm0
  00095	0f 10 86 98 25
	00 00		 movups	 xmm0, XMMWORD PTR [esi+9624]
  0009c	0f 11 86 e4 25
	00 00		 movups	 XMMWORD PTR [esi+9700], xmm0
  000a3	0f 10 86 a8 25
	00 00		 movups	 xmm0, XMMWORD PTR [esi+9640]
  000aa	0f 11 86 f4 25
	00 00		 movups	 XMMWORD PTR [esi+9716], xmm0
  000b1	0f 10 86 b8 25
	00 00		 movups	 xmm0, XMMWORD PTR [esi+9656]
  000b8	0f 11 86 04 26
	00 00		 movups	 XMMWORD PTR [esi+9732], xmm0
  000bf	f3 0f 7e 86 c8
	25 00 00	 movq	 xmm0, QWORD PTR [esi+9672]
  000c7	66 0f d6 86 14
	26 00 00	 movq	 QWORD PTR [esi+9748], xmm0
  000cf	89 86 1c 26 00
	00		 mov	 DWORD PTR [esi+9756], eax
  000d5	5e		 pop	 esi
  000d6	e9 00 00 00 00	 jmp	 ?ChangeSystem@CPythonSystem@@QAEXXZ ; CPythonSystem::ChangeSystem
  000db	90		 npad	 1
$LN14@ApplyConfi:

; 618  : }

  000dc	00 00 00 00	 DD	 $LN5@ApplyConfi
  000e0	00 00 00 00	 DD	 $LN6@ApplyConfi
  000e4	00 00 00 00	 DD	 $LN2@ApplyConfi
  000e8	00 00 00 00	 DD	 $LN8@ApplyConfi
  000ec	00 00 00 00	 DD	 $LN9@ApplyConfi
?ApplyConfig@CPythonSystem@@QAEXXZ ENDP			; CPythonSystem::ApplyConfig
_TEXT	ENDS
; Function compile flags: /Ogtp
; File D:\Metin2 Server Files\mainline\SRC_2014\Metin2Client\UserInterface\PythonSystem.cpp
;	COMDAT ?SaveConfig@CPythonSystem@@QAE_NXZ
_TEXT	SEGMENT
?SaveConfig@CPythonSystem@@QAE_NXZ PROC			; CPythonSystem::SaveConfig, COMDAT
; _this$ = ecx

; 490  : {

  00000	56		 push	 esi
  00001	57		 push	 edi

; 491  : 	FILE *fp;
; 492  : 
; 493  : 	if (NULL == (fp = fopen("metin2.cfg", "wt")))

  00002	68 00 00 00 00	 push	 OFFSET ??_C@_02BKFDOEMK@wt@
  00007	68 00 00 00 00	 push	 OFFSET ??_C@_0L@PJKCGBDF@metin2?4cfg@
  0000c	8b f9		 mov	 edi, ecx
  0000e	e8 00 00 00 00	 call	 _fopen
  00013	8b f0		 mov	 esi, eax
  00015	83 c4 08	 add	 esp, 8
  00018	85 f6		 test	 esi, esi
  0001a	75 05		 jne	 SHORT $LN2@SaveConfig

; 494  : 		return false;

  0001c	5f		 pop	 edi
  0001d	32 c0		 xor	 al, al

; 543  : }

  0001f	5e		 pop	 esi
  00020	c3		 ret	 0
$LN2@SaveConfig:

; 495  : 
; 496  : 	fprintf(fp, "WIDTH						%d\n"

  00021	0f b6 87 c9 25
	00 00		 movzx	 eax, BYTE PTR [edi+9673]
  00028	f3 0f 10 87 a4
	25 00 00	 movss	 xmm0, DWORD PTR [edi+9636]
  00030	50		 push	 eax
  00031	ff 35 00 00 00
	00		 push	 DWORD PTR ?g_iLoadingDelayTime@@3HA ; g_iLoadingDelayTime
  00037	8d 87 b4 25 00
	00		 lea	 eax, DWORD PTR [edi+9652]
  0003d	50		 push	 eax
  0003e	ff b7 b0 25 00
	00		 push	 DWORD PTR [edi+9648]
  00044	0f b6 87 a8 25
	00 00		 movzx	 eax, BYTE PTR [edi+9640]
  0004b	ff b7 ac 25 00
	00		 push	 DWORD PTR [edi+9644]
  00051	0f 5a c0	 cvtps2pd xmm0, xmm0
  00054	50		 push	 eax
  00055	0f b6 87 99 25
	00 00		 movzx	 eax, BYTE PTR [edi+9625]
  0005c	83 ec 08	 sub	 esp, 8
  0005f	f2 0f 11 04 24	 movsd	 QWORD PTR [esp], xmm0
  00064	ff b7 9c 25 00
	00		 push	 DWORD PTR [edi+9628]
  0006a	50		 push	 eax
  0006b	0f b6 87 98 25
	00 00		 movzx	 eax, BYTE PTR [edi+9624]
  00072	50		 push	 eax
  00073	ff b7 94 25 00
	00		 push	 DWORD PTR [edi+9620]
  00079	ff b7 90 25 00
	00		 push	 DWORD PTR [edi+9616]
  0007f	ff b7 8c 25 00
	00		 push	 DWORD PTR [edi+9612]
  00085	ff b7 88 25 00
	00		 push	 DWORD PTR [edi+9608]
  0008b	68 00 00 00 00	 push	 OFFSET ??_C@_0BAC@DOGJKKLN@WIDTH?7?7?7?7?7?7?$CFd?6HEIGHT?7?7?7?7?7?7?$CFd?6BP@
  00090	56		 push	 esi
  00091	e8 00 00 00 00	 call	 _fprintf
  00096	83 c4 44	 add	 esp, 68			; 00000044H

; 497  : 				"HEIGHT						%d\n"
; 498  : 				"BPP						%d\n"
; 499  : 				"FREQUENCY					%d\n"
; 500  : 				"SOFTWARE_CURSOR			%d\n"
; 501  : 				"OBJECT_CULLING				%d\n"
; 502  : 				"VISIBILITY					%d\n"
; 503  : 				"MUSIC_VOLUME				%.3f\n"
; 504  : 				"VOICE_VOLUME				%d\n"
; 505  : 				"GAMMA						%d\n"
; 506  : 				"IS_SAVE_ID					%d\n"
; 507  : 				"SAVE_ID					%s\n"
; 508  : 				"PRE_LOADING_DELAY_TIME		%d\n"
; 509  : 				"DECOMPRESSED_TEXTURE		%d\n",
; 510  : 				m_Config.width,
; 511  : 				m_Config.height,
; 512  : 				m_Config.bpp,
; 513  : 				m_Config.frequency,
; 514  : 				m_Config.is_software_cursor,
; 515  : 				m_Config.is_object_culling,
; 516  : 				m_Config.iDistance,
; 517  : 				m_Config.music_volume,
; 518  : 				m_Config.voice_volume,
; 519  : 				m_Config.gamma,
; 520  : 				m_Config.isSaveID,
; 521  : 				m_Config.SaveID,
; 522  : 				g_iLoadingDelayTime,
; 523  : 				m_Config.bDecompressDDS);
; 524  : 
; 525  : 	if (m_Config.bWindowed == 1)

  00099	80 bf c8 25 00
	00 01		 cmp	 BYTE PTR [edi+9672], 1
  000a0	75 10		 jne	 SHORT $LN3@SaveConfig

; 526  : 		fprintf(fp, "WINDOWED				%d\n", m_Config.bWindowed);

  000a2	6a 01		 push	 1
  000a4	68 00 00 00 00	 push	 OFFSET ??_C@_0BA@HPBHGBH@WINDOWED?7?7?7?7?$CFd?6@
  000a9	56		 push	 esi
  000aa	e8 00 00 00 00	 call	 _fprintf
  000af	83 c4 0c	 add	 esp, 12			; 0000000cH
$LN3@SaveConfig:

; 527  : 	if (m_Config.bViewChat == 0)

  000b2	80 bf cd 25 00
	00 00		 cmp	 BYTE PTR [edi+9677], 0
  000b9	75 10		 jne	 SHORT $LN4@SaveConfig

; 528  : 		fprintf(fp, "VIEW_CHAT				%d\n", m_Config.bViewChat);

  000bb	6a 00		 push	 0
  000bd	68 00 00 00 00	 push	 OFFSET ??_C@_0BB@EKNDKDHN@VIEW_CHAT?7?7?7?7?$CFd?6@
  000c2	56		 push	 esi
  000c3	e8 00 00 00 00	 call	 _fprintf
  000c8	83 c4 0c	 add	 esp, 12			; 0000000cH
$LN4@SaveConfig:

; 529  : 	if (m_Config.bAlwaysShowName != DEFAULT_VALUE_ALWAYS_SHOW_NAME)

  000cb	8a 87 ce 25 00
	00		 mov	 al, BYTE PTR [edi+9678]
  000d1	3c 01		 cmp	 al, 1
  000d3	74 12		 je	 SHORT $LN5@SaveConfig

; 530  : 		fprintf(fp, "ALWAYS_VIEW_NAME		%d\n", m_Config.bAlwaysShowName);

  000d5	0f b6 c0	 movzx	 eax, al
  000d8	50		 push	 eax
  000d9	68 00 00 00 00	 push	 OFFSET ??_C@_0BG@HBKBHOOM@ALWAYS_VIEW_NAME?7?7?$CFd?6@
  000de	56		 push	 esi
  000df	e8 00 00 00 00	 call	 _fprintf
  000e4	83 c4 0c	 add	 esp, 12			; 0000000cH
$LN5@SaveConfig:

; 531  : 	if (m_Config.bShowDamage == 0)

  000e7	80 bf cf 25 00
	00 00		 cmp	 BYTE PTR [edi+9679], 0
  000ee	75 10		 jne	 SHORT $LN6@SaveConfig

; 532  : 		fprintf(fp, "SHOW_DAMAGE		%d\n", m_Config.bShowDamage);

  000f0	6a 00		 push	 0
  000f2	68 00 00 00 00	 push	 OFFSET ??_C@_0BB@DLBIFMBO@SHOW_DAMAGE?7?7?$CFd?6@
  000f7	56		 push	 esi
  000f8	e8 00 00 00 00	 call	 _fprintf
  000fd	83 c4 0c	 add	 esp, 12			; 0000000cH
$LN6@SaveConfig:

; 533  : 	if (m_Config.bShowSalesText == 0)

  00100	80 bf d0 25 00
	00 00		 cmp	 BYTE PTR [edi+9680], 0
  00107	75 10		 jne	 SHORT $LN7@SaveConfig

; 534  : 		fprintf(fp, "SHOW_SALESTEXT		%d\n", m_Config.bShowSalesText);

  00109	6a 00		 push	 0
  0010b	68 00 00 00 00	 push	 OFFSET ??_C@_0BE@POEIEBIF@SHOW_SALESTEXT?7?7?$CFd?6@
  00110	56		 push	 esi
  00111	e8 00 00 00 00	 call	 _fprintf
  00116	83 c4 0c	 add	 esp, 12			; 0000000cH
$LN7@SaveConfig:

; 535  : 
; 536  : 	fprintf(fp, "USE_DEFAULT_IME		%d\n", m_Config.bUseDefaultIME);

  00119	0f b6 87 cb 25
	00 00		 movzx	 eax, BYTE PTR [edi+9675]
  00120	50		 push	 eax
  00121	68 00 00 00 00	 push	 OFFSET ??_C@_0BF@NGKLEPOF@USE_DEFAULT_IME?7?7?$CFd?6@
  00126	56		 push	 esi
  00127	e8 00 00 00 00	 call	 _fprintf

; 537  : 	fprintf(fp, "SOFTWARE_TILING		%d\n", m_Config.bSoftwareTiling);

  0012c	0f b6 87 cc 25
	00 00		 movzx	 eax, BYTE PTR [edi+9676]
  00133	50		 push	 eax
  00134	68 00 00 00 00	 push	 OFFSET ??_C@_0BF@IKAPIKKK@SOFTWARE_TILING?7?7?$CFd?6@
  00139	56		 push	 esi
  0013a	e8 00 00 00 00	 call	 _fprintf

; 538  : 	fprintf(fp, "SHADOW_LEVEL			%d\n", m_Config.iShadowLevel);

  0013f	ff b7 a0 25 00
	00		 push	 DWORD PTR [edi+9632]
  00145	68 00 00 00 00	 push	 OFFSET ??_C@_0BD@PGMGBMGN@SHADOW_LEVEL?7?7?7?$CFd?6@
  0014a	56		 push	 esi
  0014b	e8 00 00 00 00	 call	 _fprintf

; 539  : 	fprintf(fp, "\n");

  00150	68 00 00 00 00	 push	 OFFSET ??_C@_01EEMJAFIK@?6@
  00155	56		 push	 esi
  00156	e8 00 00 00 00	 call	 _fprintf

; 540  : 
; 541  : 	fclose(fp);

  0015b	56		 push	 esi
  0015c	e8 00 00 00 00	 call	 _fclose
  00161	83 c4 30	 add	 esp, 48			; 00000030H

; 542  : 	return true;

  00164	b0 01		 mov	 al, 1
  00166	5f		 pop	 edi

; 543  : }

  00167	5e		 pop	 esi
  00168	c3		 ret	 0
?SaveConfig@CPythonSystem@@QAE_NXZ ENDP			; CPythonSystem::SaveConfig
_TEXT	ENDS
; Function compile flags: /Ogtp
; File D:\Metin2 Server Files\mainline\SRC_2014\Metin2Client\UserInterface\PythonSystem.cpp
; File C:\Program Files (x86)\Windows Kits\10\Include\10.0.18362.0\ucrt\string.h
; File D:\Metin2 Server Files\mainline\SRC_2014\Metin2Client\UserInterface\PythonSystem.cpp
; File C:\Program Files (x86)\Windows Kits\10\Include\10.0.18362.0\ucrt\corecrt_math.h
; File D:\Metin2 Server Files\mainline\SRC_2014\Metin2Client\UserInterface\PythonSystem.cpp
;	COMDAT ?LoadConfig@CPythonSystem@@QAE_NXZ
_TEXT	SEGMENT
_fp$1$ = -776						; size = 4
_buf$ = -772						; size = 256
_command$ = -516					; size = 256
_value$ = -260						; size = 256
__$ArrayPad$ = -4					; size = 4
?LoadConfig@CPythonSystem@@QAE_NXZ PROC			; CPythonSystem::LoadConfig, COMDAT
; _this$ = ecx

; 387  : {

  00000	55		 push	 ebp
  00001	8b ec		 mov	 ebp, esp
  00003	81 ec 08 03 00
	00		 sub	 esp, 776		; 00000308H
  00009	a1 00 00 00 00	 mov	 eax, DWORD PTR ___security_cookie
  0000e	33 c5		 xor	 eax, ebp
  00010	89 45 fc	 mov	 DWORD PTR __$ArrayPad$[ebp], eax
  00013	53		 push	 ebx
  00014	57		 push	 edi

; 388  : 	FILE * fp = NULL;
; 389  : 
; 390  : 	if (NULL == (fp = fopen("metin2.cfg", "rt")))

  00015	68 00 00 00 00	 push	 OFFSET ??_C@_02BMJICGCB@rt@
  0001a	68 00 00 00 00	 push	 OFFSET ??_C@_0L@PJKCGBDF@metin2?4cfg@
  0001f	8b f9		 mov	 edi, ecx
  00021	e8 00 00 00 00	 call	 _fopen
  00026	8b d8		 mov	 ebx, eax
  00028	83 c4 08	 add	 esp, 8
  0002b	89 9d f8 fc ff
	ff		 mov	 DWORD PTR _fp$1$[ebp], ebx
  00031	85 db		 test	 ebx, ebx
  00033	75 12		 jne	 SHORT $LN84@LoadConfig

; 391  : 		return false;

  00035	5f		 pop	 edi
  00036	32 c0		 xor	 al, al

; 475  : 
; 476  : //	Tracef("LoadConfig: Resolution: %dx%d %dBPP %dHZ Software Cursor: %d, Music/Voice Volume: %d/%d Gamma: %d\n",
; 477  : //		m_Config.width,
; 478  : //		m_Config.height,
; 479  : //		m_Config.bpp,
; 480  : //		m_Config.frequency,
; 481  : //		m_Config.is_software_cursor,
; 482  : //		m_Config.music_volume,
; 483  : //		m_Config.voice_volume,
; 484  : //		m_Config.gamma);
; 485  : 
; 486  : 	return true;
; 487  : }

  00038	5b		 pop	 ebx
  00039	8b 4d fc	 mov	 ecx, DWORD PTR __$ArrayPad$[ebp]
  0003c	33 cd		 xor	 ecx, ebp
  0003e	e8 00 00 00 00	 call	 @__security_check_cookie@4
  00043	8b e5		 mov	 esp, ebp
  00045	5d		 pop	 ebp
  00046	c3		 ret	 0
$LN84@LoadConfig:

; 392  : 
; 393  : 	char buf[256];
; 394  : 	char command[256];
; 395  : 	char value[256];
; 396  : 
; 397  : 	while (fgets(buf, 256, fp))

  00047	53		 push	 ebx
  00048	8d 85 fc fc ff
	ff		 lea	 eax, DWORD PTR _buf$[ebp]
  0004e	68 00 01 00 00	 push	 256			; 00000100H
  00053	50		 push	 eax
  00054	e8 00 00 00 00	 call	 _fgets
  00059	83 c4 0c	 add	 esp, 12			; 0000000cH
  0005c	85 c0		 test	 eax, eax
  0005e	0f 84 21 06 00
	00		 je	 $LN88@LoadConfig
  00064	0f 1f 40 00 0f
	1f 84 00 00 00
	00 00		 npad	 12
$LL2@LoadConfig:

; 398  : 	{
; 399  : 		if (sscanf(buf, " %s %s\n", command, value) == EOF)

  00070	8d 85 fc fe ff
	ff		 lea	 eax, DWORD PTR _value$[ebp]
  00076	50		 push	 eax
  00077	8d 85 fc fd ff
	ff		 lea	 eax, DWORD PTR _command$[ebp]
  0007d	50		 push	 eax
  0007e	8d 85 fc fc ff
	ff		 lea	 eax, DWORD PTR _buf$[ebp]
  00084	68 00 00 00 00	 push	 OFFSET ??_C@_07IJONGFBP@?5?$CFs?5?$CFs?6@
  00089	50		 push	 eax
  0008a	e8 00 00 00 00	 call	 _sscanf
  0008f	83 c4 10	 add	 esp, 16			; 00000010H
  00092	83 f8 ff	 cmp	 eax, -1
  00095	0f 84 ea 05 00
	00		 je	 $LN88@LoadConfig

; 400  : 			break;
; 401  : 
; 402  : 		if (!stricmp(command, "WIDTH"))

  0009b	8d 85 fc fd ff
	ff		 lea	 eax, DWORD PTR _command$[ebp]
  000a1	68 00 00 00 00	 push	 OFFSET ??_C@_05ENDGNACA@WIDTH@
  000a6	50		 push	 eax
  000a7	e8 00 00 00 00	 call	 __stricmp
  000ac	83 c4 08	 add	 esp, 8
  000af	85 c0		 test	 eax, eax
  000b1	75 1a		 jne	 SHORT $LN6@LoadConfig

; 403  : 			m_Config.width		= atoi(value);

  000b3	8d 85 fc fe ff
	ff		 lea	 eax, DWORD PTR _value$[ebp]
  000b9	50		 push	 eax
  000ba	e8 00 00 00 00	 call	 __atoi64
  000bf	83 c4 04	 add	 esp, 4
  000c2	89 87 88 25 00
	00		 mov	 DWORD PTR [edi+9608], eax
  000c8	e9 9b 05 00 00	 jmp	 $LN53@LoadConfig
$LN6@LoadConfig:

; 404  : 		else if (!stricmp(command, "HEIGHT"))

  000cd	8d 85 fc fd ff
	ff		 lea	 eax, DWORD PTR _command$[ebp]
  000d3	68 00 00 00 00	 push	 OFFSET ??_C@_06LJJMJONE@HEIGHT@
  000d8	50		 push	 eax
  000d9	e8 00 00 00 00	 call	 __stricmp
  000de	83 c4 08	 add	 esp, 8
  000e1	85 c0		 test	 eax, eax
  000e3	75 1a		 jne	 SHORT $LN8@LoadConfig

; 405  : 			m_Config.height	= atoi(value);

  000e5	8d 85 fc fe ff
	ff		 lea	 eax, DWORD PTR _value$[ebp]
  000eb	50		 push	 eax
  000ec	e8 00 00 00 00	 call	 __atoi64
  000f1	83 c4 04	 add	 esp, 4
  000f4	89 87 8c 25 00
	00		 mov	 DWORD PTR [edi+9612], eax
  000fa	e9 69 05 00 00	 jmp	 $LN53@LoadConfig
$LN8@LoadConfig:

; 406  : 		else if (!stricmp(command, "BPP"))

  000ff	8d 85 fc fd ff
	ff		 lea	 eax, DWORD PTR _command$[ebp]
  00105	68 00 00 00 00	 push	 OFFSET ??_C@_03DJKBMDLB@BPP@
  0010a	50		 push	 eax
  0010b	e8 00 00 00 00	 call	 __stricmp
  00110	83 c4 08	 add	 esp, 8
  00113	85 c0		 test	 eax, eax
  00115	75 1a		 jne	 SHORT $LN10@LoadConfig

; 407  : 			m_Config.bpp		= atoi(value);

  00117	8d 85 fc fe ff
	ff		 lea	 eax, DWORD PTR _value$[ebp]
  0011d	50		 push	 eax
  0011e	e8 00 00 00 00	 call	 __atoi64
  00123	83 c4 04	 add	 esp, 4
  00126	89 87 90 25 00
	00		 mov	 DWORD PTR [edi+9616], eax
  0012c	e9 37 05 00 00	 jmp	 $LN53@LoadConfig
$LN10@LoadConfig:

; 408  : 		else if (!stricmp(command, "FREQUENCY"))

  00131	8d 85 fc fd ff
	ff		 lea	 eax, DWORD PTR _command$[ebp]
  00137	68 00 00 00 00	 push	 OFFSET ??_C@_09JJJEBDOD@FREQUENCY@
  0013c	50		 push	 eax
  0013d	e8 00 00 00 00	 call	 __stricmp
  00142	83 c4 08	 add	 esp, 8
  00145	85 c0		 test	 eax, eax
  00147	75 1a		 jne	 SHORT $LN12@LoadConfig

; 409  : 			m_Config.frequency = atoi(value);

  00149	8d 85 fc fe ff
	ff		 lea	 eax, DWORD PTR _value$[ebp]
  0014f	50		 push	 eax
  00150	e8 00 00 00 00	 call	 __atoi64
  00155	83 c4 04	 add	 esp, 4
  00158	89 87 94 25 00
	00		 mov	 DWORD PTR [edi+9620], eax
  0015e	e9 05 05 00 00	 jmp	 $LN53@LoadConfig
$LN12@LoadConfig:

; 410  : 		else if (!stricmp(command, "SOFTWARE_CURSOR"))

  00163	8d 85 fc fd ff
	ff		 lea	 eax, DWORD PTR _command$[ebp]
  00169	68 00 00 00 00	 push	 OFFSET ??_C@_0BA@KHKJCKOL@SOFTWARE_CURSOR@
  0016e	50		 push	 eax
  0016f	e8 00 00 00 00	 call	 __stricmp
  00174	83 c4 08	 add	 esp, 8
  00177	85 c0		 test	 eax, eax
  00179	75 2d		 jne	 SHORT $LN14@LoadConfig

; 411  : 			m_Config.is_software_cursor = atoi(value) ? true : false;

  0017b	8d 85 fc fe ff
	ff		 lea	 eax, DWORD PTR _value$[ebp]
  00181	50		 push	 eax
  00182	e8 00 00 00 00	 call	 __atoi64
  00187	83 c4 04	 add	 esp, 4
  0018a	0b c2		 or	 eax, edx
  0018c	74 0d		 je	 SHORT $LN58@LoadConfig
  0018e	b0 01		 mov	 al, 1
  00190	88 87 98 25 00
	00		 mov	 BYTE PTR [edi+9624], al
  00196	e9 cd 04 00 00	 jmp	 $LN53@LoadConfig
$LN58@LoadConfig:
  0019b	32 c0		 xor	 al, al
  0019d	88 87 98 25 00
	00		 mov	 BYTE PTR [edi+9624], al
  001a3	e9 c0 04 00 00	 jmp	 $LN53@LoadConfig
$LN14@LoadConfig:

; 412  : 		else if (!stricmp(command, "OBJECT_CULLING"))

  001a8	8d 85 fc fd ff
	ff		 lea	 eax, DWORD PTR _command$[ebp]
  001ae	68 00 00 00 00	 push	 OFFSET ??_C@_0P@HLGCIFEM@OBJECT_CULLING@
  001b3	50		 push	 eax
  001b4	e8 00 00 00 00	 call	 __stricmp
  001b9	83 c4 08	 add	 esp, 8
  001bc	85 c0		 test	 eax, eax
  001be	75 2d		 jne	 SHORT $LN16@LoadConfig

; 413  : 			m_Config.is_object_culling = atoi(value) ? true : false;

  001c0	8d 85 fc fe ff
	ff		 lea	 eax, DWORD PTR _value$[ebp]
  001c6	50		 push	 eax
  001c7	e8 00 00 00 00	 call	 __atoi64
  001cc	83 c4 04	 add	 esp, 4
  001cf	0b c2		 or	 eax, edx
  001d1	74 0d		 je	 SHORT $LN60@LoadConfig
  001d3	b0 01		 mov	 al, 1
  001d5	88 87 99 25 00
	00		 mov	 BYTE PTR [edi+9625], al
  001db	e9 88 04 00 00	 jmp	 $LN53@LoadConfig
$LN60@LoadConfig:
  001e0	32 c0		 xor	 al, al
  001e2	88 87 99 25 00
	00		 mov	 BYTE PTR [edi+9625], al
  001e8	e9 7b 04 00 00	 jmp	 $LN53@LoadConfig
$LN16@LoadConfig:

; 414  : 		else if (!stricmp(command, "VISIBILITY"))

  001ed	8d 85 fc fd ff
	ff		 lea	 eax, DWORD PTR _command$[ebp]
  001f3	68 00 00 00 00	 push	 OFFSET ??_C@_0L@JLMBCMBB@VISIBILITY@
  001f8	50		 push	 eax
  001f9	e8 00 00 00 00	 call	 __stricmp
  001fe	83 c4 08	 add	 esp, 8
  00201	85 c0		 test	 eax, eax
  00203	75 1a		 jne	 SHORT $LN18@LoadConfig

; 415  : 			m_Config.iDistance = atoi(value);

  00205	8d 85 fc fe ff
	ff		 lea	 eax, DWORD PTR _value$[ebp]
  0020b	50		 push	 eax
  0020c	e8 00 00 00 00	 call	 __atoi64
  00211	83 c4 04	 add	 esp, 4
  00214	89 87 9c 25 00
	00		 mov	 DWORD PTR [edi+9628], eax
  0021a	e9 49 04 00 00	 jmp	 $LN53@LoadConfig
$LN18@LoadConfig:

; 416  : 		else if (!stricmp(command, "MUSIC_VOLUME")) {

  0021f	8d 85 fc fd ff
	ff		 lea	 eax, DWORD PTR _command$[ebp]
  00225	68 00 00 00 00	 push	 OFFSET ??_C@_0N@GMIPKHGM@MUSIC_VOLUME@
  0022a	50		 push	 eax
  0022b	e8 00 00 00 00	 call	 __stricmp
  00230	83 c4 08	 add	 esp, 8
  00233	85 c0		 test	 eax, eax
  00235	0f 85 91 00 00
	00		 jne	 $LN20@LoadConfig
; File C:\Program Files (x86)\Windows Kits\10\Include\10.0.18362.0\ucrt\string.h

; 506  :         return const_cast<char*>(strchr(static_cast<char const*>(_String), _Ch));

  0023b	8d 85 fc fe ff
	ff		 lea	 eax, DWORD PTR _value$[ebp]
  00241	6a 2e		 push	 46			; 0000002eH
  00243	50		 push	 eax
  00244	e8 00 00 00 00	 call	 _strchr
  00249	83 c4 08	 add	 esp, 8
; File D:\Metin2 Server Files\mainline\SRC_2014\Metin2Client\UserInterface\PythonSystem.cpp

; 417  : 			if(strchr(value, '.') == 0) { // Old compatiability

  0024c	85 c0		 test	 eax, eax
  0024e	8d 85 fc fe ff
	ff		 lea	 eax, DWORD PTR _value$[ebp]
  00254	50		 push	 eax
  00255	75 62		 jne	 SHORT $LN22@LoadConfig

; 418  : 				m_Config.music_volume = pow(10.0f, (-1.0f + (((float) atoi(value)) / 5.0f)));

  00257	e8 00 00 00 00	 call	 __atoi64
  0025c	83 c4 04	 add	 esp, 4
  0025f	8b c8		 mov	 ecx, eax
  00261	e8 00 00 00 00	 call	 __ltod3
  00266	f2 0f 5a c0	 cvtsd2ss xmm0, xmm0
  0026a	f3 0f 5e 05 00
	00 00 00	 divss	 xmm0, DWORD PTR __real@40a00000
  00272	f3 0f 5c 05 00
	00 00 00	 subss	 xmm0, DWORD PTR __real@3f800000
; File C:\Program Files (x86)\Windows Kits\10\Include\10.0.18362.0\ucrt\corecrt_math.h

; 745  :             return (float)pow(_X, _Y);

  0027a	f3 0f 5a c8	 cvtss2sd xmm1, xmm0
  0027e	f2 0f 10 05 00
	00 00 00	 movsd	 xmm0, QWORD PTR __real@4024000000000000
  00286	e8 00 00 00 00	 call	 __libm_sse2_pow_precise
  0028b	f2 0f 5a c0	 cvtsd2ss xmm0, xmm0
; File D:\Metin2 Server Files\mainline\SRC_2014\Metin2Client\UserInterface\PythonSystem.cpp

; 419  : 				if(atoi(value) == 0)

  0028f	8d 85 fc fe ff
	ff		 lea	 eax, DWORD PTR _value$[ebp]
  00295	50		 push	 eax
  00296	f3 0f 11 87 a4
	25 00 00	 movss	 DWORD PTR [edi+9636], xmm0
  0029e	e8 00 00 00 00	 call	 __atoi64
  002a3	83 c4 04	 add	 esp, 4
  002a6	0b c2		 or	 eax, edx
  002a8	0f 85 ba 03 00
	00		 jne	 $LN53@LoadConfig

; 420  : 					m_Config.music_volume = 0.0f;

  002ae	89 87 a4 25 00
	00		 mov	 DWORD PTR [edi+9636], eax

; 421  : 			} else

  002b4	e9 af 03 00 00	 jmp	 $LN53@LoadConfig
$LN22@LoadConfig:

; 422  : 				m_Config.music_volume = atof(value);

  002b9	e8 00 00 00 00	 call	 _atof
  002be	d9 9f a4 25 00
	00		 fstp	 DWORD PTR [edi+9636]
  002c4	83 c4 04	 add	 esp, 4
  002c7	e9 9c 03 00 00	 jmp	 $LN53@LoadConfig
$LN20@LoadConfig:

; 423  : 		} else if (!stricmp(command, "VOICE_VOLUME"))

  002cc	8d 85 fc fd ff
	ff		 lea	 eax, DWORD PTR _command$[ebp]
  002d2	68 00 00 00 00	 push	 OFFSET ??_C@_0N@PBAPMOIE@VOICE_VOLUME@
  002d7	50		 push	 eax
  002d8	e8 00 00 00 00	 call	 __stricmp
  002dd	83 c4 08	 add	 esp, 8
  002e0	85 c0		 test	 eax, eax
  002e2	75 1a		 jne	 SHORT $LN25@LoadConfig

; 424  : 			m_Config.voice_volume = (char) atoi(value);

  002e4	8d 85 fc fe ff
	ff		 lea	 eax, DWORD PTR _value$[ebp]
  002ea	50		 push	 eax
  002eb	e8 00 00 00 00	 call	 __atoi64
  002f0	83 c4 04	 add	 esp, 4
  002f3	88 87 a8 25 00
	00		 mov	 BYTE PTR [edi+9640], al
  002f9	e9 6a 03 00 00	 jmp	 $LN53@LoadConfig
$LN25@LoadConfig:

; 425  : 		else if (!stricmp(command, "GAMMA"))

  002fe	8d 85 fc fd ff
	ff		 lea	 eax, DWORD PTR _command$[ebp]
  00304	68 00 00 00 00	 push	 OFFSET ??_C@_05MBKNPFEG@GAMMA@
  00309	50		 push	 eax
  0030a	e8 00 00 00 00	 call	 __stricmp
  0030f	83 c4 08	 add	 esp, 8
  00312	85 c0		 test	 eax, eax
  00314	75 1a		 jne	 SHORT $LN27@LoadConfig

; 426  : 			m_Config.gamma = atoi(value);

  00316	8d 85 fc fe ff
	ff		 lea	 eax, DWORD PTR _value$[ebp]
  0031c	50		 push	 eax
  0031d	e8 00 00 00 00	 call	 __atoi64
  00322	83 c4 04	 add	 esp, 4
  00325	89 87 ac 25 00
	00		 mov	 DWORD PTR [edi+9644], eax
  0032b	e9 38 03 00 00	 jmp	 $LN53@LoadConfig
$LN27@LoadConfig:

; 427  : 		else if (!stricmp(command, "IS_SAVE_ID"))

  00330	8d 85 fc fd ff
	ff		 lea	 eax, DWORD PTR _command$[ebp]
  00336	68 00 00 00 00	 push	 OFFSET ??_C@_0L@MNJEEPBE@IS_SAVE_ID@
  0033b	50		 push	 eax
  0033c	e8 00 00 00 00	 call	 __stricmp
  00341	83 c4 08	 add	 esp, 8
  00344	85 c0		 test	 eax, eax
  00346	75 1a		 jne	 SHORT $LN29@LoadConfig

; 428  : 			m_Config.isSaveID = atoi(value);

  00348	8d 85 fc fe ff
	ff		 lea	 eax, DWORD PTR _value$[ebp]
  0034e	50		 push	 eax
  0034f	e8 00 00 00 00	 call	 __atoi64
  00354	83 c4 04	 add	 esp, 4
  00357	89 87 b0 25 00
	00		 mov	 DWORD PTR [edi+9648], eax
  0035d	e9 06 03 00 00	 jmp	 $LN53@LoadConfig
$LN29@LoadConfig:

; 429  : 		else if (!stricmp(command, "SAVE_ID"))

  00362	8d 85 fc fd ff
	ff		 lea	 eax, DWORD PTR _command$[ebp]
  00368	68 00 00 00 00	 push	 OFFSET ??_C@_07JBPMLFBH@SAVE_ID@
  0036d	50		 push	 eax
  0036e	e8 00 00 00 00	 call	 __stricmp
  00373	83 c4 08	 add	 esp, 8
  00376	85 c0		 test	 eax, eax
  00378	75 1d		 jne	 SHORT $LN31@LoadConfig

; 430  : 			strncpy(m_Config.SaveID, value, 20);

  0037a	6a 14		 push	 20			; 00000014H
  0037c	8d 85 fc fe ff
	ff		 lea	 eax, DWORD PTR _value$[ebp]
  00382	50		 push	 eax
  00383	8d 87 b4 25 00
	00		 lea	 eax, DWORD PTR [edi+9652]
  00389	50		 push	 eax
  0038a	e8 00 00 00 00	 call	 _strncpy
  0038f	83 c4 0c	 add	 esp, 12			; 0000000cH
  00392	e9 d1 02 00 00	 jmp	 $LN53@LoadConfig
$LN31@LoadConfig:

; 431  : 		else if (!stricmp(command, "PRE_LOADING_DELAY_TIME"))

  00397	8d 85 fc fd ff
	ff		 lea	 eax, DWORD PTR _command$[ebp]
  0039d	68 00 00 00 00	 push	 OFFSET ??_C@_0BH@DLIOKMKH@PRE_LOADING_DELAY_TIME@
  003a2	50		 push	 eax
  003a3	e8 00 00 00 00	 call	 __stricmp
  003a8	83 c4 08	 add	 esp, 8
  003ab	85 c0		 test	 eax, eax
  003ad	75 19		 jne	 SHORT $LN33@LoadConfig

; 432  : 			g_iLoadingDelayTime = atoi(value);

  003af	8d 85 fc fe ff
	ff		 lea	 eax, DWORD PTR _value$[ebp]
  003b5	50		 push	 eax
  003b6	e8 00 00 00 00	 call	 __atoi64
  003bb	83 c4 04	 add	 esp, 4
  003be	a3 00 00 00 00	 mov	 DWORD PTR ?g_iLoadingDelayTime@@3HA, eax ; g_iLoadingDelayTime
  003c3	e9 a0 02 00 00	 jmp	 $LN53@LoadConfig
$LN33@LoadConfig:

; 433  : 		else if (!stricmp(command, "WINDOWED"))

  003c8	8d 85 fc fd ff
	ff		 lea	 eax, DWORD PTR _command$[ebp]
  003ce	68 00 00 00 00	 push	 OFFSET ??_C@_08NHNHGFNP@WINDOWED@
  003d3	50		 push	 eax
  003d4	e8 00 00 00 00	 call	 __stricmp
  003d9	83 c4 08	 add	 esp, 8
  003dc	85 c0		 test	 eax, eax
  003de	75 32		 jne	 SHORT $LN35@LoadConfig

; 434  : 		{
; 435  : 			m_Config.bWindowed = atoi(value) == 1 ? true : false;

  003e0	8d 85 fc fe ff
	ff		 lea	 eax, DWORD PTR _value$[ebp]
  003e6	50		 push	 eax
  003e7	e8 00 00 00 00	 call	 __atoi64
  003ec	83 c4 04	 add	 esp, 4
  003ef	83 f8 01	 cmp	 eax, 1
  003f2	75 11		 jne	 SHORT $LN62@LoadConfig
  003f4	85 d2		 test	 edx, edx
  003f6	75 0d		 jne	 SHORT $LN62@LoadConfig
  003f8	8a c0		 mov	 al, al
  003fa	88 87 c8 25 00
	00		 mov	 BYTE PTR [edi+9672], al

; 436  : 		}

  00400	e9 63 02 00 00	 jmp	 $LN53@LoadConfig
$LN62@LoadConfig:

; 434  : 		{
; 435  : 			m_Config.bWindowed = atoi(value) == 1 ? true : false;

  00405	32 c0		 xor	 al, al
  00407	88 87 c8 25 00
	00		 mov	 BYTE PTR [edi+9672], al

; 436  : 		}

  0040d	e9 56 02 00 00	 jmp	 $LN53@LoadConfig
$LN35@LoadConfig:

; 437  : 		else if (!stricmp(command, "USE_DEFAULT_IME"))

  00412	8d 85 fc fd ff
	ff		 lea	 eax, DWORD PTR _command$[ebp]
  00418	68 00 00 00 00	 push	 OFFSET ??_C@_0BA@LLBGEPPK@USE_DEFAULT_IME@
  0041d	50		 push	 eax
  0041e	e8 00 00 00 00	 call	 __stricmp
  00423	83 c4 08	 add	 esp, 8
  00426	85 c0		 test	 eax, eax
  00428	75 32		 jne	 SHORT $LN37@LoadConfig

; 438  : 			m_Config.bUseDefaultIME = atoi(value) == 1 ? true : false;

  0042a	8d 85 fc fe ff
	ff		 lea	 eax, DWORD PTR _value$[ebp]
  00430	50		 push	 eax
  00431	e8 00 00 00 00	 call	 __atoi64
  00436	83 c4 04	 add	 esp, 4
  00439	83 f8 01	 cmp	 eax, 1
  0043c	75 11		 jne	 SHORT $LN64@LoadConfig
  0043e	85 d2		 test	 edx, edx
  00440	75 0d		 jne	 SHORT $LN64@LoadConfig
  00442	8a c0		 mov	 al, al
  00444	88 87 cb 25 00
	00		 mov	 BYTE PTR [edi+9675], al
  0044a	e9 19 02 00 00	 jmp	 $LN53@LoadConfig
$LN64@LoadConfig:
  0044f	32 c0		 xor	 al, al
  00451	88 87 cb 25 00
	00		 mov	 BYTE PTR [edi+9675], al
  00457	e9 0c 02 00 00	 jmp	 $LN53@LoadConfig
$LN37@LoadConfig:

; 439  : 		else if (!stricmp(command, "SOFTWARE_TILING"))

  0045c	8d 85 fc fd ff
	ff		 lea	 eax, DWORD PTR _command$[ebp]
  00462	68 00 00 00 00	 push	 OFFSET ??_C@_0BA@KHMHFIHA@SOFTWARE_TILING@
  00467	50		 push	 eax
  00468	e8 00 00 00 00	 call	 __stricmp
  0046d	83 c4 08	 add	 esp, 8
  00470	85 c0		 test	 eax, eax
  00472	75 1a		 jne	 SHORT $LN39@LoadConfig

; 440  : 			m_Config.bSoftwareTiling = atoi(value);

  00474	8d 85 fc fe ff
	ff		 lea	 eax, DWORD PTR _value$[ebp]
  0047a	50		 push	 eax
  0047b	e8 00 00 00 00	 call	 __atoi64
  00480	83 c4 04	 add	 esp, 4
  00483	88 87 cc 25 00
	00		 mov	 BYTE PTR [edi+9676], al
  00489	e9 da 01 00 00	 jmp	 $LN53@LoadConfig
$LN39@LoadConfig:

; 441  : 		else if (!stricmp(command, "SHADOW_LEVEL"))

  0048e	8d 85 fc fd ff
	ff		 lea	 eax, DWORD PTR _command$[ebp]
  00494	68 00 00 00 00	 push	 OFFSET ??_C@_0N@FFBEOPBM@SHADOW_LEVEL@
  00499	50		 push	 eax
  0049a	e8 00 00 00 00	 call	 __stricmp
  0049f	83 c4 08	 add	 esp, 8
  004a2	85 c0		 test	 eax, eax
  004a4	75 1a		 jne	 SHORT $LN41@LoadConfig

; 442  : 			m_Config.iShadowLevel = atoi(value);

  004a6	8d 85 fc fe ff
	ff		 lea	 eax, DWORD PTR _value$[ebp]
  004ac	50		 push	 eax
  004ad	e8 00 00 00 00	 call	 __atoi64
  004b2	83 c4 04	 add	 esp, 4
  004b5	89 87 a0 25 00
	00		 mov	 DWORD PTR [edi+9632], eax
  004bb	e9 a8 01 00 00	 jmp	 $LN53@LoadConfig
$LN41@LoadConfig:

; 443  : 		else if (!stricmp(command, "DECOMPRESSED_TEXTURE"))

  004c0	8d 85 fc fd ff
	ff		 lea	 eax, DWORD PTR _command$[ebp]
  004c6	68 00 00 00 00	 push	 OFFSET ??_C@_0BF@BGGNMKON@DECOMPRESSED_TEXTURE@
  004cb	50		 push	 eax
  004cc	e8 00 00 00 00	 call	 __stricmp
  004d1	83 c4 08	 add	 esp, 8
  004d4	85 c0		 test	 eax, eax
  004d6	75 32		 jne	 SHORT $LN43@LoadConfig

; 444  : 			m_Config.bDecompressDDS = atoi(value) == 1 ? true : false;

  004d8	8d 85 fc fe ff
	ff		 lea	 eax, DWORD PTR _value$[ebp]
  004de	50		 push	 eax
  004df	e8 00 00 00 00	 call	 __atoi64
  004e4	83 c4 04	 add	 esp, 4
  004e7	83 f8 01	 cmp	 eax, 1
  004ea	75 11		 jne	 SHORT $LN66@LoadConfig
  004ec	85 d2		 test	 edx, edx
  004ee	75 0d		 jne	 SHORT $LN66@LoadConfig
  004f0	8a c0		 mov	 al, al
  004f2	88 87 c9 25 00
	00		 mov	 BYTE PTR [edi+9673], al
  004f8	e9 6b 01 00 00	 jmp	 $LN53@LoadConfig
$LN66@LoadConfig:
  004fd	32 c0		 xor	 al, al
  004ff	88 87 c9 25 00
	00		 mov	 BYTE PTR [edi+9673], al
  00505	e9 5e 01 00 00	 jmp	 $LN53@LoadConfig
$LN43@LoadConfig:

; 445  : 		else if (!stricmp(command, "NO_SOUND_CARD"))

  0050a	8d 85 fc fd ff
	ff		 lea	 eax, DWORD PTR _command$[ebp]
  00510	68 00 00 00 00	 push	 OFFSET ??_C@_0O@HAABBABC@NO_SOUND_CARD@
  00515	50		 push	 eax
  00516	e8 00 00 00 00	 call	 __stricmp
  0051b	83 c4 08	 add	 esp, 8
  0051e	85 c0		 test	 eax, eax
  00520	75 32		 jne	 SHORT $LN45@LoadConfig

; 446  : 			m_Config.bNoSoundCard = atoi(value) == 1 ? true : false;

  00522	8d 85 fc fe ff
	ff		 lea	 eax, DWORD PTR _value$[ebp]
  00528	50		 push	 eax
  00529	e8 00 00 00 00	 call	 __atoi64
  0052e	83 c4 04	 add	 esp, 4
  00531	83 f8 01	 cmp	 eax, 1
  00534	75 11		 jne	 SHORT $LN68@LoadConfig
  00536	85 d2		 test	 edx, edx
  00538	75 0d		 jne	 SHORT $LN68@LoadConfig
  0053a	8a c0		 mov	 al, al
  0053c	88 87 ca 25 00
	00		 mov	 BYTE PTR [edi+9674], al
  00542	e9 21 01 00 00	 jmp	 $LN53@LoadConfig
$LN68@LoadConfig:
  00547	32 c0		 xor	 al, al
  00549	88 87 ca 25 00
	00		 mov	 BYTE PTR [edi+9674], al
  0054f	e9 14 01 00 00	 jmp	 $LN53@LoadConfig
$LN45@LoadConfig:

; 447  : 		else if (!stricmp(command, "VIEW_CHAT"))

  00554	8d 85 fc fd ff
	ff		 lea	 eax, DWORD PTR _command$[ebp]
  0055a	68 00 00 00 00	 push	 OFFSET ??_C@_09EOOFFIKE@VIEW_CHAT@
  0055f	50		 push	 eax
  00560	e8 00 00 00 00	 call	 __stricmp
  00565	83 c4 08	 add	 esp, 8
  00568	85 c0		 test	 eax, eax
  0056a	75 32		 jne	 SHORT $LN47@LoadConfig

; 448  : 			m_Config.bViewChat = atoi(value) == 1 ? true : false;

  0056c	8d 85 fc fe ff
	ff		 lea	 eax, DWORD PTR _value$[ebp]
  00572	50		 push	 eax
  00573	e8 00 00 00 00	 call	 __atoi64
  00578	83 c4 04	 add	 esp, 4
  0057b	83 f8 01	 cmp	 eax, 1
  0057e	75 11		 jne	 SHORT $LN70@LoadConfig
  00580	85 d2		 test	 edx, edx
  00582	75 0d		 jne	 SHORT $LN70@LoadConfig
  00584	8a c0		 mov	 al, al
  00586	88 87 cd 25 00
	00		 mov	 BYTE PTR [edi+9677], al
  0058c	e9 d7 00 00 00	 jmp	 $LN53@LoadConfig
$LN70@LoadConfig:
  00591	32 c0		 xor	 al, al
  00593	88 87 cd 25 00
	00		 mov	 BYTE PTR [edi+9677], al
  00599	e9 ca 00 00 00	 jmp	 $LN53@LoadConfig
$LN47@LoadConfig:

; 449  : 		else if (!stricmp(command, "ALWAYS_VIEW_NAME"))

  0059e	8d 85 fc fd ff
	ff		 lea	 eax, DWORD PTR _command$[ebp]
  005a4	68 00 00 00 00	 push	 OFFSET ??_C@_0BB@PPFHKIN@ALWAYS_VIEW_NAME@
  005a9	50		 push	 eax
  005aa	e8 00 00 00 00	 call	 __stricmp
  005af	83 c4 08	 add	 esp, 8
  005b2	85 c0		 test	 eax, eax
  005b4	75 32		 jne	 SHORT $LN49@LoadConfig

; 450  : 			m_Config.bAlwaysShowName = atoi(value) == 1 ? true : false;

  005b6	8d 85 fc fe ff
	ff		 lea	 eax, DWORD PTR _value$[ebp]
  005bc	50		 push	 eax
  005bd	e8 00 00 00 00	 call	 __atoi64
  005c2	83 c4 04	 add	 esp, 4
  005c5	83 f8 01	 cmp	 eax, 1
  005c8	75 11		 jne	 SHORT $LN72@LoadConfig
  005ca	85 d2		 test	 edx, edx
  005cc	75 0d		 jne	 SHORT $LN72@LoadConfig
  005ce	8a c0		 mov	 al, al
  005d0	88 87 ce 25 00
	00		 mov	 BYTE PTR [edi+9678], al
  005d6	e9 8d 00 00 00	 jmp	 $LN53@LoadConfig
$LN72@LoadConfig:
  005db	32 c0		 xor	 al, al
  005dd	88 87 ce 25 00
	00		 mov	 BYTE PTR [edi+9678], al
  005e3	e9 80 00 00 00	 jmp	 $LN53@LoadConfig
$LN49@LoadConfig:

; 451  : 		else if (!stricmp(command, "SHOW_DAMAGE"))

  005e8	8d 85 fc fd ff
	ff		 lea	 eax, DWORD PTR _command$[ebp]
  005ee	68 00 00 00 00	 push	 OFFSET ??_C@_0M@FJJANDDI@SHOW_DAMAGE@
  005f3	50		 push	 eax
  005f4	e8 00 00 00 00	 call	 __stricmp
  005f9	83 c4 08	 add	 esp, 8
  005fc	85 c0		 test	 eax, eax
  005fe	75 2c		 jne	 SHORT $LN51@LoadConfig

; 452  : 			m_Config.bShowDamage = atoi(value) == 1 ? true : false;

  00600	8d 85 fc fe ff
	ff		 lea	 eax, DWORD PTR _value$[ebp]
  00606	50		 push	 eax
  00607	e8 00 00 00 00	 call	 __atoi64
  0060c	83 c4 04	 add	 esp, 4
  0060f	83 f8 01	 cmp	 eax, 1
  00612	75 0e		 jne	 SHORT $LN74@LoadConfig
  00614	85 d2		 test	 edx, edx
  00616	75 0a		 jne	 SHORT $LN74@LoadConfig
  00618	8a c0		 mov	 al, al
  0061a	88 87 cf 25 00
	00		 mov	 BYTE PTR [edi+9679], al
  00620	eb 46		 jmp	 SHORT $LN53@LoadConfig
$LN74@LoadConfig:
  00622	32 c0		 xor	 al, al
  00624	88 87 cf 25 00
	00		 mov	 BYTE PTR [edi+9679], al
  0062a	eb 3c		 jmp	 SHORT $LN53@LoadConfig
$LN51@LoadConfig:

; 453  : 		else if (!stricmp(command, "SHOW_SALESTEXT"))

  0062c	8d 85 fc fd ff
	ff		 lea	 eax, DWORD PTR _command$[ebp]
  00632	68 00 00 00 00	 push	 OFFSET ??_C@_0P@FIIALOBN@SHOW_SALESTEXT@
  00637	50		 push	 eax
  00638	e8 00 00 00 00	 call	 __stricmp
  0063d	83 c4 08	 add	 esp, 8
  00640	85 c0		 test	 eax, eax
  00642	75 24		 jne	 SHORT $LN53@LoadConfig

; 454  : 			m_Config.bShowSalesText = atoi(value) == 1 ? true : false;

  00644	8d 85 fc fe ff
	ff		 lea	 eax, DWORD PTR _value$[ebp]
  0064a	50		 push	 eax
  0064b	e8 00 00 00 00	 call	 __atoi64
  00650	83 c4 04	 add	 esp, 4
  00653	83 f8 01	 cmp	 eax, 1
  00656	75 08		 jne	 SHORT $LN76@LoadConfig
  00658	85 d2		 test	 edx, edx
  0065a	75 04		 jne	 SHORT $LN76@LoadConfig
  0065c	8a c0		 mov	 al, al
  0065e	eb 02		 jmp	 SHORT $LN77@LoadConfig
$LN76@LoadConfig:
  00660	32 c0		 xor	 al, al
$LN77@LoadConfig:
  00662	88 87 d0 25 00
	00		 mov	 BYTE PTR [edi+9680], al
$LN53@LoadConfig:

; 392  : 
; 393  : 	char buf[256];
; 394  : 	char command[256];
; 395  : 	char value[256];
; 396  : 
; 397  : 	while (fgets(buf, 256, fp))

  00668	53		 push	 ebx
  00669	8d 85 fc fc ff
	ff		 lea	 eax, DWORD PTR _buf$[ebp]
  0066f	68 00 01 00 00	 push	 256			; 00000100H
  00674	50		 push	 eax
  00675	e8 00 00 00 00	 call	 _fgets
  0067a	83 c4 0c	 add	 esp, 12			; 0000000cH
  0067d	85 c0		 test	 eax, eax
  0067f	0f 85 eb f9 ff
	ff		 jne	 $LL2@LoadConfig
$LN88@LoadConfig:

; 455  : 	}
; 456  : 
; 457  : 	if (m_Config.bWindowed)

  00685	80 bf c8 25 00
	00 00		 cmp	 BYTE PTR [edi+9672], 0
  0068c	74 34		 je	 SHORT $LN56@LoadConfig

; 458  : 	{
; 459  : 		unsigned screen_width = GetSystemMetrics(SM_CXFULLSCREEN);

  0068e	6a 10		 push	 16			; 00000010H
  00690	ff 15 00 00 00
	00		 call	 DWORD PTR __imp__GetSystemMetrics@4

; 460  : 		unsigned screen_height = GetSystemMetrics(SM_CYFULLSCREEN);

  00696	6a 11		 push	 17			; 00000011H
  00698	8b d8		 mov	 ebx, eax
  0069a	ff 15 00 00 00
	00		 call	 DWORD PTR __imp__GetSystemMetrics@4

; 461  : 
; 462  : 		if (m_Config.width >= screen_width)

  006a0	39 9f 88 25 00
	00		 cmp	 DWORD PTR [edi+9608], ebx
  006a6	72 06		 jb	 SHORT $LN55@LoadConfig

; 463  : 		{
; 464  : 			m_Config.width = screen_width;

  006a8	89 9f 88 25 00
	00		 mov	 DWORD PTR [edi+9608], ebx
$LN55@LoadConfig:

; 465  : 		}
; 466  : 		if (m_Config.height >= screen_height)

  006ae	8b 9d f8 fc ff
	ff		 mov	 ebx, DWORD PTR _fp$1$[ebp]
  006b4	39 87 8c 25 00
	00		 cmp	 DWORD PTR [edi+9612], eax
  006ba	72 06		 jb	 SHORT $LN56@LoadConfig

; 467  : 		{
; 468  : 			m_Config.height = screen_height;

  006bc	89 87 8c 25 00
	00		 mov	 DWORD PTR [edi+9612], eax
$LN56@LoadConfig:

; 469  : 		}
; 470  : 	}
; 471  : 	
; 472  : 	m_OldConfig = m_Config;

  006c2	0f 10 87 88 25
	00 00		 movups	 xmm0, XMMWORD PTR [edi+9608]
  006c9	8b 87 d0 25 00
	00		 mov	 eax, DWORD PTR [edi+9680]

; 473  : 
; 474  : 	fclose(fp);

  006cf	53		 push	 ebx
  006d0	0f 11 87 d4 25
	00 00		 movups	 XMMWORD PTR [edi+9684], xmm0
  006d7	0f 10 87 98 25
	00 00		 movups	 xmm0, XMMWORD PTR [edi+9624]
  006de	0f 11 87 e4 25
	00 00		 movups	 XMMWORD PTR [edi+9700], xmm0
  006e5	0f 10 87 a8 25
	00 00		 movups	 xmm0, XMMWORD PTR [edi+9640]
  006ec	0f 11 87 f4 25
	00 00		 movups	 XMMWORD PTR [edi+9716], xmm0
  006f3	0f 10 87 b8 25
	00 00		 movups	 xmm0, XMMWORD PTR [edi+9656]
  006fa	0f 11 87 04 26
	00 00		 movups	 XMMWORD PTR [edi+9732], xmm0
  00701	f3 0f 7e 87 c8
	25 00 00	 movq	 xmm0, QWORD PTR [edi+9672]
  00709	66 0f d6 87 14
	26 00 00	 movq	 QWORD PTR [edi+9748], xmm0
  00711	89 87 1c 26 00
	00		 mov	 DWORD PTR [edi+9756], eax
  00717	e8 00 00 00 00	 call	 _fclose

; 475  : 
; 476  : //	Tracef("LoadConfig: Resolution: %dx%d %dBPP %dHZ Software Cursor: %d, Music/Voice Volume: %d/%d Gamma: %d\n",
; 477  : //		m_Config.width,
; 478  : //		m_Config.height,
; 479  : //		m_Config.bpp,
; 480  : //		m_Config.frequency,
; 481  : //		m_Config.is_software_cursor,
; 482  : //		m_Config.music_volume,
; 483  : //		m_Config.voice_volume,
; 484  : //		m_Config.gamma);
; 485  : 
; 486  : 	return true;
; 487  : }

  0071c	8b 4d fc	 mov	 ecx, DWORD PTR __$ArrayPad$[ebp]
  0071f	83 c4 04	 add	 esp, 4
  00722	33 cd		 xor	 ecx, ebp
  00724	b0 01		 mov	 al, 1
  00726	5f		 pop	 edi
  00727	5b		 pop	 ebx
  00728	e8 00 00 00 00	 call	 @__security_check_cookie@4
  0072d	8b e5		 mov	 esp, ebp
  0072f	5d		 pop	 ebp
  00730	c3		 ret	 0
?LoadConfig@CPythonSystem@@QAE_NXZ ENDP			; CPythonSystem::LoadConfig
_TEXT	ENDS
; Function compile flags: /Ogtp
; File D:\Metin2 Server Files\mainline\SRC_2014\Metin2Client\UserInterface\PythonSystem.cpp
;	COMDAT ?SetDefaultConfig@CPythonSystem@@QAEXXZ
_TEXT	SEGMENT
?SetDefaultConfig@CPythonSystem@@QAEXXZ PROC		; CPythonSystem::SetDefaultConfig, COMDAT
; _this$ = ecx

; 282  : {

  00000	56		 push	 esi
  00001	57		 push	 edi
  00002	8b f9		 mov	 edi, ecx

; 283  : 	memset(&m_Config, 0, sizeof(m_Config));

  00004	6a 4c		 push	 76			; 0000004cH
  00006	6a 00		 push	 0
  00008	8d b7 88 25 00
	00		 lea	 esi, DWORD PTR [edi+9608]
  0000e	56		 push	 esi
  0000f	e8 00 00 00 00	 call	 _memset
  00014	83 c4 0c	 add	 esp, 12			; 0000000cH

; 284  : 
; 285  : 	m_Config.width				= 1024;
; 286  : 	m_Config.height				= 768;

  00017	c7 87 8c 25 00
	00 00 03 00 00	 mov	 DWORD PTR [edi+9612], 768 ; 00000300H

; 287  : 	m_Config.bpp				= 32;

  00021	c7 87 90 25 00
	00 20 00 00 00	 mov	 DWORD PTR [edi+9616], 32 ; 00000020H

; 288  : 
; 289  : #if defined( LOCALE_SERVICE_WE_JAPAN )
; 290  : 	m_Config.bWindowed			= true;
; 291  : #else
; 292  : 	m_Config.bWindowed			= false;
; 293  : #endif
; 294  : 
; 295  : 	m_Config.is_software_cursor	= false;
; 296  : 	m_Config.is_object_culling	= true;

  0002b	c6 87 99 25 00
	00 01		 mov	 BYTE PTR [edi+9625], 1

; 297  : 	m_Config.iDistance			= 3;

  00032	c7 87 9c 25 00
	00 03 00 00 00	 mov	 DWORD PTR [edi+9628], 3

; 298  : 
; 299  : 	m_Config.gamma				= 3;

  0003c	c7 87 ac 25 00
	00 03 00 00 00	 mov	 DWORD PTR [edi+9644], 3

; 300  : 	m_Config.music_volume		= 1.0f;

  00046	c7 87 a4 25 00
	00 00 00 80 3f	 mov	 DWORD PTR [edi+9636], 1065353216 ; 3f800000H

; 301  : 	m_Config.voice_volume		= 5;

  00050	c6 87 a8 25 00
	00 05		 mov	 BYTE PTR [edi+9640], 5

; 302  : 
; 303  : 	m_Config.bDecompressDDS		= 0;

  00057	c6 87 c9 25 00
	00 00		 mov	 BYTE PTR [edi+9673], 0

; 304  : 	m_Config.bSoftwareTiling	= 0;

  0005e	c7 87 cc 25 00
	00 00 01 01 01	 mov	 DWORD PTR [edi+9676], 16843008 ; 01010100H

; 305  : 	m_Config.iShadowLevel		= 3;

  00068	c7 87 a0 25 00
	00 03 00 00 00	 mov	 DWORD PTR [edi+9632], 3

; 306  : 	m_Config.bViewChat			= true;
; 307  : 	m_Config.bAlwaysShowName	= DEFAULT_VALUE_ALWAYS_SHOW_NAME;
; 308  : 	m_Config.bShowDamage		= true;
; 309  : 	m_Config.bShowSalesText		= true;

  00072	c6 87 d0 25 00
	00 01		 mov	 BYTE PTR [edi+9680], 1
  00079	5f		 pop	 edi
  0007a	c7 06 00 04 00
	00		 mov	 DWORD PTR [esi], 1024	; 00000400H
  00080	5e		 pop	 esi

; 310  : }

  00081	c3		 ret	 0
?SetDefaultConfig@CPythonSystem@@QAEXXZ ENDP		; CPythonSystem::SetDefaultConfig
_TEXT	ENDS
; Function compile flags: /Ogtp
; File D:\Metin2 Server Files\mainline\SRC_2014\Metin2Client\UserInterface\PythonSystem.cpp
;	COMDAT ?DestroyInterfaceHandler@CPythonSystem@@QAEXXZ
_TEXT	SEGMENT
?DestroyInterfaceHandler@CPythonSystem@@QAEXXZ PROC	; CPythonSystem::DestroyInterfaceHandler, COMDAT
; _this$ = ecx

; 22   : 	m_poInterfaceHandler = NULL;

  00000	c7 81 24 26 00
	00 00 00 00 00	 mov	 DWORD PTR [ecx+9764], 0

; 23   : }

  0000a	c3		 ret	 0
?DestroyInterfaceHandler@CPythonSystem@@QAEXXZ ENDP	; CPythonSystem::DestroyInterfaceHandler
_TEXT	ENDS
; Function compile flags: /Ogtp
; File D:\Metin2 Server Files\mainline\SRC_2014\Metin2Client\UserInterface\PythonSystem.cpp
;	COMDAT ?SetInterfaceHandler@CPythonSystem@@QAEXPAU_object@@@Z
_TEXT	SEGMENT
_poHandler$ = 8						; size = 4
?SetInterfaceHandler@CPythonSystem@@QAEXPAU_object@@@Z PROC ; CPythonSystem::SetInterfaceHandler, COMDAT
; _this$ = ecx

; 8    : {

  00000	55		 push	 ebp
  00001	8b ec		 mov	 ebp, esp

; 9    : // NOTE :    .    Python    .
; 10   : //         __del__ Destroy  Handler NULL . - [levites]
; 11   : //	if (m_poInterfaceHandler)
; 12   : //		Py_DECREF(m_poInterfaceHandler);
; 13   : 
; 14   : 	m_poInterfaceHandler = poHandler;

  00003	8b 45 08	 mov	 eax, DWORD PTR _poHandler$[ebp]
  00006	89 81 24 26 00
	00		 mov	 DWORD PTR [ecx+9764], eax

; 15   : 
; 16   : //	if (m_poInterfaceHandler)
; 17   : //		Py_INCREF(m_poInterfaceHandler);
; 18   : }

  0000c	5d		 pop	 ebp
  0000d	c2 04 00	 ret	 4
?SetInterfaceHandler@CPythonSystem@@QAEXPAU_object@@@Z ENDP ; CPythonSystem::SetInterfaceHandler
_TEXT	ENDS
; Function compile flags: /Ogtp
; File D:\Metin2 Server Files\mainline\SRC_2014\Metin2Client\UserInterface\PythonSystem.cpp
;	COMDAT ?Clear@CPythonSystem@@QAEXXZ
_TEXT	SEGMENT
?Clear@CPythonSystem@@QAEXXZ PROC			; CPythonSystem::Clear, COMDAT
; _this$ = ecx

; 651  : 	SetInterfaceHandler(NULL);

  00000	6a 00		 push	 0
  00002	e8 00 00 00 00	 call	 ?SetInterfaceHandler@CPythonSystem@@QAEXPAU_object@@@Z ; CPythonSystem::SetInterfaceHandler

; 652  : }

  00007	c3		 ret	 0
?Clear@CPythonSystem@@QAEXXZ ENDP			; CPythonSystem::Clear
_TEXT	ENDS
; Function compile flags: /Ogtp
; File D:\Metin2 Server Files\mainline\SRC_2014\Metin2Client\UserInterface\PythonSystem.cpp
; File D:\Metin2 Server Files\mainline\SRC_2014\Metin2Client\eterBase\Singleton.h
; File D:\Metin2 Server Files\mainline\SRC_2014\Metin2Client\UserInterface\PythonSystem.cpp
;	COMDAT ??1CPythonSystem@@UAE@XZ
_TEXT	SEGMENT
??1CPythonSystem@@UAE@XZ PROC				; CPythonSystem::~CPythonSystem, COMDAT
; _this$ = ecx
; File D:\Metin2 Server Files\mainline\SRC_2014\Metin2Client\eterBase\Singleton.h

; 19   : 	{ 

  00000	c7 01 00 00 00
	00		 mov	 DWORD PTR [ecx], OFFSET ??_7?$CSingleton@VCPythonSystem@@@@6B@

; 20   : 		assert(ms_singleton);
; 21   : 		ms_singleton = 0; 

  00006	c7 05 00 00 00
	00 00 00 00 00	 mov	 DWORD PTR ?ms_singleton@?$CSingleton@VCPythonSystem@@@@0PAVCPythonSystem@@A, 0 ; CSingleton<CPythonSystem>::ms_singleton
; File D:\Metin2 Server Files\mainline\SRC_2014\Metin2Client\UserInterface\PythonSystem.cpp

; 675  : }

  00010	c3		 ret	 0
??1CPythonSystem@@UAE@XZ ENDP				; CPythonSystem::~CPythonSystem
_TEXT	ENDS
; Function compile flags: /Ogtp
; File D:\Metin2 Server Files\mainline\SRC_2014\Metin2Client\UserInterface\PythonSystem.cpp
; File D:\Metin2 Server Files\mainline\SRC_2014\Metin2Client\eterBase\Singleton.h
; File D:\Metin2 Server Files\mainline\SRC_2014\Metin2Client\UserInterface\PythonSystem.cpp
;	COMDAT ??0CPythonSystem@@QAE@XZ
_TEXT	SEGMENT
_this$ = -16						; size = 4
__$EHRec$ = -12						; size = 12
??0CPythonSystem@@QAE@XZ PROC				; CPythonSystem::CPythonSystem, COMDAT
; _this$ = ecx

; 655  : {

  00000	55		 push	 ebp
  00001	8b ec		 mov	 ebp, esp
  00003	6a ff		 push	 -1
  00005	68 00 00 00 00	 push	 __ehhandler$??0CPythonSystem@@QAE@XZ
  0000a	64 a1 00 00 00
	00		 mov	 eax, DWORD PTR fs:0
  00010	50		 push	 eax
  00011	51		 push	 ecx
  00012	56		 push	 esi
  00013	a1 00 00 00 00	 mov	 eax, DWORD PTR ___security_cookie
  00018	33 c5		 xor	 eax, ebp
  0001a	50		 push	 eax
  0001b	8d 45 f4	 lea	 eax, DWORD PTR __$EHRec$[ebp]
  0001e	64 a3 00 00 00
	00		 mov	 DWORD PTR fs:0, eax
  00024	8b f1		 mov	 esi, ecx
  00026	89 75 f0	 mov	 DWORD PTR _this$[ebp], esi
; File D:\Metin2 Server Files\mainline\SRC_2014\Metin2Client\eterBase\Singleton.h

; 15   : 		ms_singleton = (T*) ((int) this + offset);

  00029	89 35 00 00 00
	00		 mov	 DWORD PTR ?ms_singleton@?$CSingleton@VCPythonSystem@@@@0PAVCPythonSystem@@A, esi ; CSingleton<CPythonSystem>::ms_singleton
; File D:\Metin2 Server Files\mainline\SRC_2014\Metin2Client\UserInterface\PythonSystem.cpp

; 656  : 	memset(&m_Config, 0, sizeof(TConfig));

  0002f	6a 4c		 push	 76			; 0000004cH
  00031	8d 86 88 25 00
	00		 lea	 eax, DWORD PTR [esi+9608]
  00037	c7 45 fc 00 00
	00 00		 mov	 DWORD PTR __$EHRec$[ebp+8], 0
  0003e	6a 00		 push	 0
  00040	50		 push	 eax
  00041	c7 06 00 00 00
	00		 mov	 DWORD PTR [esi], OFFSET ??_7CPythonSystem@@6B@
  00047	e8 00 00 00 00	 call	 _memset
  0004c	83 c4 0c	 add	 esp, 12			; 0000000cH

; 657  : 
; 658  : 	m_poInterfaceHandler = NULL;

  0004f	c7 86 24 26 00
	00 00 00 00 00	 mov	 DWORD PTR [esi+9764], 0

; 659  : 
; 660  : 	SetDefaultConfig();

  00059	8b ce		 mov	 ecx, esi
  0005b	e8 00 00 00 00	 call	 ?SetDefaultConfig@CPythonSystem@@QAEXXZ ; CPythonSystem::SetDefaultConfig

; 661  : 
; 662  : 	LoadConfig();

  00060	8b ce		 mov	 ecx, esi
  00062	e8 00 00 00 00	 call	 ?LoadConfig@CPythonSystem@@QAE_NXZ ; CPythonSystem::LoadConfig

; 663  : 
; 664  : 	ChangeSystem();

  00067	8b ce		 mov	 ecx, esi
  00069	e8 00 00 00 00	 call	 ?ChangeSystem@CPythonSystem@@QAEXXZ ; CPythonSystem::ChangeSystem

; 665  : 
; 666  : 	if (LoadInterfaceStatus())

  0006e	8b ce		 mov	 ecx, esi
  00070	e8 00 00 00 00	 call	 ?LoadInterfaceStatus@CPythonSystem@@QAE_NXZ ; CPythonSystem::LoadInterfaceStatus
  00075	84 c0		 test	 al, al
  00077	74 04		 je	 SHORT $LN2@CPythonSys

; 667  : 		m_isInterfaceConfig = true;

  00079	b0 01		 mov	 al, 1
  0007b	eb 02		 jmp	 SHORT $LN9@CPythonSys
$LN2@CPythonSys:

; 668  : 	else
; 669  : 		m_isInterfaceConfig = false;

  0007d	32 c0		 xor	 al, al
$LN9@CPythonSys:

; 670  : }

  0007f	88 86 20 26 00
	00		 mov	 BYTE PTR [esi+9760], al
  00085	8b c6		 mov	 eax, esi
  00087	8b 4d f4	 mov	 ecx, DWORD PTR __$EHRec$[ebp]
  0008a	64 89 0d 00 00
	00 00		 mov	 DWORD PTR fs:0, ecx
  00091	59		 pop	 ecx
  00092	5e		 pop	 esi
  00093	8b e5		 mov	 esp, ebp
  00095	5d		 pop	 ebp
  00096	c3		 ret	 0
_TEXT	ENDS
;	COMDAT text$x
text$x	SEGMENT
__unwindfunclet$??0CPythonSystem@@QAE@XZ$0:
  00000	8b 4d f0	 mov	 ecx, DWORD PTR _this$[ebp]
  00003	e9 00 00 00 00	 jmp	 ??1?$CSingleton@VCPythonSystem@@@@UAE@XZ ; CSingleton<CPythonSystem>::~CSingleton<CPythonSystem>
  00008	cc		 int	 3
  00009	cc		 int	 3
  0000a	cc		 int	 3
  0000b	cc		 int	 3
  0000c	cc		 int	 3
__ehhandler$??0CPythonSystem@@QAE@XZ:
  0000d	90		 npad	 1
  0000e	90		 npad	 1
  0000f	8b 54 24 08	 mov	 edx, DWORD PTR [esp+8]
  00013	8d 42 0c	 lea	 eax, DWORD PTR [edx+12]
  00016	8b 4a f4	 mov	 ecx, DWORD PTR [edx-12]
  00019	33 c8		 xor	 ecx, eax
  0001b	e8 00 00 00 00	 call	 @__security_check_cookie@4
  00020	b8 00 00 00 00	 mov	 eax, OFFSET __ehfuncinfo$??0CPythonSystem@@QAE@XZ
  00025	e9 00 00 00 00	 jmp	 ___CxxFrameHandler3
text$x	ENDS
??0CPythonSystem@@QAE@XZ ENDP				; CPythonSystem::CPythonSystem
; Function compile flags: /Ogtp
; File D:\Metin2 Server Files\mainline\SRC_2014\Metin2Client\eterBase\Singleton.h
;	COMDAT ??_G?$CSingleton@VCPythonSystem@@@@UAEPAXI@Z
_TEXT	SEGMENT
___flags$ = 8						; size = 4
??_G?$CSingleton@VCPythonSystem@@@@UAEPAXI@Z PROC	; CSingleton<CPythonSystem>::`scalar deleting destructor', COMDAT
; _this$ = ecx
  00000	55		 push	 ebp
  00001	8b ec		 mov	 ebp, esp
  00003	f6 45 08 01	 test	 BYTE PTR ___flags$[ebp], 1

; 19   : 	{ 

  00007	56		 push	 esi
  00008	8b f1		 mov	 esi, ecx
  0000a	c7 06 00 00 00
	00		 mov	 DWORD PTR [esi], OFFSET ??_7?$CSingleton@VCPythonSystem@@@@6B@

; 20   : 		assert(ms_singleton);
; 21   : 		ms_singleton = 0; 

  00010	c7 05 00 00 00
	00 00 00 00 00	 mov	 DWORD PTR ?ms_singleton@?$CSingleton@VCPythonSystem@@@@0PAVCPythonSystem@@A, 0 ; CSingleton<CPythonSystem>::ms_singleton
  0001a	74 0b		 je	 SHORT $LN6@scalar
  0001c	6a 04		 push	 4
  0001e	56		 push	 esi
  0001f	e8 00 00 00 00	 call	 ??3@YAXPAXI@Z		; operator delete
  00024	83 c4 08	 add	 esp, 8
$LN6@scalar:
  00027	8b c6		 mov	 eax, esi
  00029	5e		 pop	 esi
  0002a	5d		 pop	 ebp
  0002b	c2 04 00	 ret	 4
??_G?$CSingleton@VCPythonSystem@@@@UAEPAXI@Z ENDP	; CSingleton<CPythonSystem>::`scalar deleting destructor'
_TEXT	ENDS
; Function compile flags: /Ogtp
; File D:\Metin2 Server Files\mainline\SRC_2014\Metin2Client\eterBase\Singleton.h
;	COMDAT ??1?$CSingleton@VCPythonSystem@@@@UAE@XZ
_TEXT	SEGMENT
??1?$CSingleton@VCPythonSystem@@@@UAE@XZ PROC		; CSingleton<CPythonSystem>::~CSingleton<CPythonSystem>, COMDAT
; _this$ = ecx

; 19   : 	{ 

  00000	c7 01 00 00 00
	00		 mov	 DWORD PTR [ecx], OFFSET ??_7?$CSingleton@VCPythonSystem@@@@6B@

; 20   : 		assert(ms_singleton);
; 21   : 		ms_singleton = 0; 

  00006	c7 05 00 00 00
	00 00 00 00 00	 mov	 DWORD PTR ?ms_singleton@?$CSingleton@VCPythonSystem@@@@0PAVCPythonSystem@@A, 0 ; CSingleton<CPythonSystem>::ms_singleton

; 22   : 	}

  00010	c3		 ret	 0
??1?$CSingleton@VCPythonSystem@@@@UAE@XZ ENDP		; CSingleton<CPythonSystem>::~CSingleton<CPythonSystem>
_TEXT	ENDS
; Function compile flags: /Ogtp
; File C:\Program Files (x86)\Microsoft Visual Studio\2019\Community\VC\Tools\MSVC\14.28.29333\include\xmemory
;	COMDAT ??$_Deallocate@$07$0A@@std@@YAXPAXI@Z
_TEXT	SEGMENT
__Ptr$ = 8						; size = 4
__Bytes$ = 12						; size = 4
??$_Deallocate@$07$0A@@std@@YAXPAXI@Z PROC		; std::_Deallocate<8,0>, COMDAT

; 213  : void _Deallocate(void* _Ptr, size_t _Bytes) noexcept {

  00000	55		 push	 ebp
  00001	8b ec		 mov	 ebp, esp

; 214  :     // deallocate storage allocated by _Allocate when !_HAS_ALIGNED_NEW || _Align <= __STDCPP_DEFAULT_NEW_ALIGNMENT__
; 215  : #if defined(_M_IX86) || defined(_M_X64)
; 216  :     if (_Bytes >= _Big_allocation_threshold) { // boost the alignment of big allocations to help autovectorization

  00003	8b 4d 0c	 mov	 ecx, DWORD PTR __Bytes$[ebp]
  00006	81 f9 00 10 00
	00		 cmp	 ecx, 4096		; 00001000H
  0000c	72 18		 jb	 SHORT $LN15@Deallocate

; 137  :     const uintptr_t _Ptr_container   = _Ptr_user[-1];

  0000e	8b 45 08	 mov	 eax, DWORD PTR __Ptr$[ebp]
  00011	83 c1 23	 add	 ecx, 35			; 00000023H
  00014	8b 50 fc	 mov	 edx, DWORD PTR [eax-4]

; 138  : 
; 139  :     // If the following asserts, it likely means that we are performing
; 140  :     // an aligned delete on memory coming from an unaligned allocation.
; 141  :     _STL_ASSERT(_Ptr_user[-2] == _Big_allocation_sentinel, "invalid argument");
; 142  : 
; 143  :     // Extra paranoia on aligned allocation/deallocation; ensure _Ptr_container is
; 144  :     // in range [_Min_back_shift, _Non_user_size]
; 145  : #ifdef _DEBUG
; 146  :     constexpr uintptr_t _Min_back_shift = 2 * sizeof(void*);
; 147  : #else // ^^^ _DEBUG ^^^ // vvv !_DEBUG vvv
; 148  :     constexpr uintptr_t _Min_back_shift = sizeof(void*);
; 149  : #endif // _DEBUG
; 150  :     const uintptr_t _Back_shift = reinterpret_cast<uintptr_t>(_Ptr) - _Ptr_container;

  00017	2b c2		 sub	 eax, edx

; 151  :     _STL_VERIFY(_Back_shift >= _Min_back_shift && _Back_shift <= _Non_user_size, "invalid argument");

  00019	83 c0 fc	 add	 eax, -4			; fffffffcH
  0001c	83 f8 1f	 cmp	 eax, 31			; 0000001fH
  0001f	76 08		 jbe	 SHORT $LN13@Deallocate
  00021	e9 00 00 00 00	 jmp	 __invalid_parameter_noinfo_noreturn
$LN15@Deallocate:

; 214  :     // deallocate storage allocated by _Allocate when !_HAS_ALIGNED_NEW || _Align <= __STDCPP_DEFAULT_NEW_ALIGNMENT__
; 215  : #if defined(_M_IX86) || defined(_M_X64)
; 216  :     if (_Bytes >= _Big_allocation_threshold) { // boost the alignment of big allocations to help autovectorization

  00026	8b 55 08	 mov	 edx, DWORD PTR __Ptr$[ebp]
$LN13@Deallocate:

; 217  :         _Adjust_manually_vector_aligned(_Ptr, _Bytes);
; 218  :     }
; 219  : #endif // defined(_M_IX86) || defined(_M_X64)
; 220  : 
; 221  :     ::operator delete(_Ptr, _Bytes);

  00029	89 4d 0c	 mov	 DWORD PTR __Bytes$[ebp], ecx
  0002c	89 55 08	 mov	 DWORD PTR __Ptr$[ebp], edx

; 222  : }

  0002f	5d		 pop	 ebp

; 217  :         _Adjust_manually_vector_aligned(_Ptr, _Bytes);
; 218  :     }
; 219  : #endif // defined(_M_IX86) || defined(_M_X64)
; 220  : 
; 221  :     ::operator delete(_Ptr, _Bytes);

  00030	e9 00 00 00 00	 jmp	 ??3@YAXPAXI@Z		; operator delete
??$_Deallocate@$07$0A@@std@@YAXPAXI@Z ENDP		; std::_Deallocate<8,0>
_TEXT	ENDS
; Function compile flags: /Ogtp
; File C:\Program Files (x86)\Windows Kits\10\Include\10.0.18362.0\ucrt\stdio.h
;	COMDAT _sscanf
_TEXT	SEGMENT
__Buffer$ = 8						; size = 4
__Format$ = 12						; size = 4
_sscanf	PROC						; COMDAT

; 2270 :     {

  00000	55		 push	 ebp
  00001	8b ec		 mov	 ebp, esp

; 2176 :         return __stdio_common_vsscanf(

  00003	8d 45 10	 lea	 eax, DWORD PTR __Format$[ebp+4]
  00006	50		 push	 eax
  00007	6a 00		 push	 0
  00009	ff 75 0c	 push	 DWORD PTR __Format$[ebp]
  0000c	6a ff		 push	 -1
  0000e	ff 75 08	 push	 DWORD PTR __Buffer$[ebp]
  00011	e8 00 00 00 00	 call	 ___local_stdio_scanf_options
  00016	ff 70 04	 push	 DWORD PTR [eax+4]
  00019	ff 30		 push	 DWORD PTR [eax]
  0001b	e8 00 00 00 00	 call	 ___stdio_common_vsscanf
  00020	83 c4 1c	 add	 esp, 28			; 0000001cH

; 2271 :         int _Result;
; 2272 :         va_list _ArgList;
; 2273 :         __crt_va_start(_ArgList, _Format);
; 2274 :         _Result = _vsscanf_l(_Buffer, _Format, NULL, _ArgList);
; 2275 :         __crt_va_end(_ArgList);
; 2276 :         return _Result;
; 2277 :     }

  00023	5d		 pop	 ebp
  00024	c3		 ret	 0
_sscanf	ENDP
_TEXT	ENDS
; Function compile flags: /Ogtp
; File C:\Program Files (x86)\Windows Kits\10\Include\10.0.18362.0\ucrt\stdio.h
;	COMDAT _fprintf
_TEXT	SEGMENT
__Stream$ = 8						; size = 4
__Format$ = 12						; size = 4
_fprintf PROC						; COMDAT

; 835  :     {

  00000	55		 push	 ebp
  00001	8b ec		 mov	 ebp, esp

; 643  :         return __stdio_common_vfprintf(_CRT_INTERNAL_LOCAL_PRINTF_OPTIONS, _Stream, _Format, _Locale, _ArgList);

  00003	8d 45 10	 lea	 eax, DWORD PTR __Format$[ebp+4]
  00006	50		 push	 eax
  00007	6a 00		 push	 0
  00009	ff 75 0c	 push	 DWORD PTR __Format$[ebp]
  0000c	ff 75 08	 push	 DWORD PTR __Stream$[ebp]
  0000f	e8 00 00 00 00	 call	 ___local_stdio_printf_options
  00014	ff 70 04	 push	 DWORD PTR [eax+4]
  00017	ff 30		 push	 DWORD PTR [eax]
  00019	e8 00 00 00 00	 call	 ___stdio_common_vfprintf
  0001e	83 c4 18	 add	 esp, 24			; 00000018H

; 836  :         int _Result;
; 837  :         va_list _ArgList;
; 838  :         __crt_va_start(_ArgList, _Format);
; 839  :         _Result = _vfprintf_l(_Stream, _Format, NULL, _ArgList);
; 840  :         __crt_va_end(_ArgList);
; 841  :         return _Result;
; 842  :     }

  00021	5d		 pop	 ebp
  00022	c3		 ret	 0
_fprintf ENDP
_TEXT	ENDS
; Function compile flags: /Ogtp
; File C:\Program Files (x86)\Windows Kits\10\Include\10.0.18362.0\ucrt\corecrt_stdio_config.h
;	COMDAT ___local_stdio_scanf_options
_TEXT	SEGMENT
___local_stdio_scanf_options PROC			; COMDAT

; 97   :         static unsigned __int64 _OptionsStorage;
; 98   :         return &_OptionsStorage;

  00000	b8 00 00 00 00	 mov	 eax, OFFSET ?_OptionsStorage@?1??__local_stdio_scanf_options@@9@4_KA ; `__local_stdio_scanf_options'::`2'::_OptionsStorage

; 99   :     }

  00005	c3		 ret	 0
___local_stdio_scanf_options ENDP
_TEXT	ENDS
; Function compile flags: /Ogtp
; File C:\Program Files (x86)\Windows Kits\10\Include\10.0.18362.0\ucrt\corecrt_stdio_config.h
;	COMDAT ___local_stdio_printf_options
_TEXT	SEGMENT
___local_stdio_printf_options PROC			; COMDAT

; 87   :         static unsigned __int64 _OptionsStorage;
; 88   :         return &_OptionsStorage;

  00000	b8 00 00 00 00	 mov	 eax, OFFSET ?_OptionsStorage@?1??__local_stdio_printf_options@@9@4_KA ; `__local_stdio_printf_options'::`2'::_OptionsStorage

; 89   :     }

  00005	c3		 ret	 0
___local_stdio_printf_options ENDP
_TEXT	ENDS
; Function compile flags: /Ogtp
; File D:\Metin2 Server Files\mainline\SRC_2014\Metin2Client\UserInterface\PythonSystem.cpp
;	COMDAT ?__empty_global_delete@@YAXPAXI@Z
_TEXT	SEGMENT
___formal$ = 8						; size = 4
___formal$ = 12						; size = 4
?__empty_global_delete@@YAXPAXI@Z PROC			; __empty_global_delete, COMDAT

  00000	c2 00 00	 ret	 0
?__empty_global_delete@@YAXPAXI@Z ENDP			; __empty_global_delete
_TEXT	ENDS
; Function compile flags: /Ogtp
; File D:\Metin2 Server Files\mainline\SRC_2014\Metin2Client\UserInterface\PythonSystem.cpp
;	COMDAT ?__empty_global_delete@@YAXPAX@Z
_TEXT	SEGMENT
___formal$ = 8						; size = 4
?__empty_global_delete@@YAXPAX@Z PROC			; __empty_global_delete, COMDAT

  00000	c2 00 00	 ret	 0
?__empty_global_delete@@YAXPAX@Z ENDP			; __empty_global_delete
_TEXT	ENDS
; Function compile flags: /Ogtp
;	COMDAT ??_H@YGXPAXIIP6EPAX0@Z@Z
_TEXT	SEGMENT
___t$ = 8						; size = 4
___s$ = 12						; size = 4
___n$ = 16						; size = 4
___f$ = 20						; size = 4
??_H@YGXPAXIIP6EPAX0@Z@Z PROC				; `vector constructor iterator', COMDAT
  00000	55		 push	 ebp
  00001	8b ec		 mov	 ebp, esp
  00003	56		 push	 esi
  00004	8b 75 10	 mov	 esi, DWORD PTR ___n$[ebp]
  00007	85 f6		 test	 esi, esi
  00009	74 16		 je	 SHORT $LN6@vector
  0000b	53		 push	 ebx
  0000c	8b 5d 14	 mov	 ebx, DWORD PTR ___f$[ebp]
  0000f	57		 push	 edi
  00010	8b 7d 08	 mov	 edi, DWORD PTR ___t$[ebp]
$LL2@vector:
  00013	8b cf		 mov	 ecx, edi
  00015	ff d3		 call	 ebx
  00017	03 7d 0c	 add	 edi, DWORD PTR ___s$[ebp]
  0001a	83 ee 01	 sub	 esi, 1
  0001d	75 f4		 jne	 SHORT $LL2@vector
  0001f	5f		 pop	 edi
  00020	5b		 pop	 ebx
$LN6@vector:
  00021	5e		 pop	 esi
  00022	5d		 pop	 ebp
  00023	c2 10 00	 ret	 16			; 00000010H
??_H@YGXPAXIIP6EPAX0@Z@Z ENDP				; `vector constructor iterator'
_TEXT	ENDS
END
