; Listing generated by Microsoft (R) Optimizing Compiler Version 19.28.29335.0 

	TITLE	D:\Metin2 Server Files\mainline\SRC_2014\Metin2Client\UserInterface\PythonChatModule.cpp
	.686P
	.XMM
	include listing.inc
	.model	flat

INCLUDELIB LIBCMT
INCLUDELIB OLDNAMES

PUBLIC	??_H@YGXPAXIIP6EPAX0@Z@Z			; `vector constructor iterator'
PUBLIC	___local_stdio_printf_options
PUBLIC	__snprintf
PUBLIC	??0exception@std@@QAE@ABV01@@Z			; std::exception::exception
PUBLIC	??1exception@std@@UAE@XZ			; std::exception::~exception
PUBLIC	?what@exception@std@@UBEPBDXZ			; std::exception::what
PUBLIC	??_Gexception@std@@UAEPAXI@Z			; std::exception::`scalar deleting destructor'
PUBLIC	??0bad_alloc@std@@QAE@ABV01@@Z			; std::bad_alloc::bad_alloc
PUBLIC	??_Gbad_alloc@std@@UAEPAXI@Z			; std::bad_alloc::`scalar deleting destructor'
PUBLIC	??0bad_array_new_length@std@@QAE@XZ		; std::bad_array_new_length::bad_array_new_length
PUBLIC	??1bad_array_new_length@std@@UAE@XZ		; std::bad_array_new_length::~bad_array_new_length
PUBLIC	??0bad_array_new_length@std@@QAE@ABV01@@Z	; std::bad_array_new_length::bad_array_new_length
PUBLIC	??_Gbad_array_new_length@std@@UAEPAXI@Z		; std::bad_array_new_length::`scalar deleting destructor'
PUBLIC	?_Throw_bad_array_new_length@std@@YAXXZ		; std::_Throw_bad_array_new_length
PUBLIC	?_Xlen_string@std@@YAXXZ			; std::_Xlen_string
PUBLIC	??1?$basic_string@DU?$char_traits@D@std@@V?$allocator@D@2@@std@@QAE@XZ ; std::basic_string<char,std::char_traits<char>,std::allocator<char> >::~basic_string<char,std::char_traits<char>,std::allocator<char> >
PUBLIC	?assign@?$basic_string@DU?$char_traits@D@std@@V?$allocator@D@2@@std@@QAEAAV12@QBDI@Z ; std::basic_string<char,std::char_traits<char>,std::allocator<char> >::assign
PUBLIC	??1?$vector@V?$basic_string@DU?$char_traits@D@std@@V?$allocator@D@2@@std@@V?$allocator@V?$basic_string@DU?$char_traits@D@std@@V?$allocator@D@2@@std@@@2@@std@@QAE@XZ ; std::vector<std::basic_string<char,std::char_traits<char>,std::allocator<char> >,std::allocator<std::basic_string<char,std::char_traits<char>,std::allocator<char> > > >::~vector<std::basic_string<char,std::char_traits<char>,std::allocator<char> >,std::allocator<std::basic_string<char,std::char_traits<char>,std::allocator<char> > > >
PUBLIC	?initChat@@YAXXZ				; initChat
PUBLIC	??$_Destroy_in_place@PAD@std@@YAXAAPAD@Z	; std::_Destroy_in_place<char *>
PUBLIC	??$_Construct_in_place@PADABQAD@std@@YAXAAPADABQAD@Z ; std::_Construct_in_place<char *,char * const &>
PUBLIC	??$_Deallocate@$07$0A@@std@@YAXPAXI@Z		; std::_Deallocate<8,0>
PUBLIC	??$_Allocate@$07U_Default_allocate_traits@std@@$0A@@std@@YAPAXI@Z ; std::_Allocate<8,std::_Default_allocate_traits,0>
PUBLIC	??$_Allocate_manually_vector_aligned@U_Default_allocate_traits@std@@@std@@YAPAXI@Z ; std::_Allocate_manually_vector_aligned<std::_Default_allocate_traits>
PUBLIC	?chatSetChatColor@@YAPAU_object@@PAU1@0@Z	; chatSetChatColor
PUBLIC	?chatClear@@YAPAU_object@@PAU1@0@Z		; chatClear
PUBLIC	?chatClose@@YAPAU_object@@PAU1@0@Z		; chatClose
PUBLIC	?chatCreateChatSet@@YAPAU_object@@PAU1@0@Z	; chatCreateChatSet
PUBLIC	?chatUpdate@@YAPAU_object@@PAU1@0@Z		; chatUpdate
PUBLIC	?chatRender@@YAPAU_object@@PAU1@0@Z		; chatRender
PUBLIC	?chatSetBoardState@@YAPAU_object@@PAU1@0@Z	; chatSetBoardState
PUBLIC	?chatSetPosition@@YAPAU_object@@PAU1@0@Z	; chatSetPosition
PUBLIC	?chatSetHeight@@YAPAU_object@@PAU1@0@Z		; chatSetHeight
PUBLIC	?chatSetStep@@YAPAU_object@@PAU1@0@Z		; chatSetStep
PUBLIC	?chatToggleChatMode@@YAPAU_object@@PAU1@0@Z	; chatToggleChatMode
PUBLIC	?chatEnableChatMode@@YAPAU_object@@PAU1@0@Z	; chatEnableChatMode
PUBLIC	?chatDisableChatMode@@YAPAU_object@@PAU1@0@Z	; chatDisableChatMode
PUBLIC	?chatSetEndPos@@YAPAU_object@@PAU1@0@Z		; chatSetEndPos
PUBLIC	?chatGetLineCount@@YAPAU_object@@PAU1@0@Z	; chatGetLineCount
PUBLIC	?chatGetVisibleLineCount@@YAPAU_object@@PAU1@0@Z ; chatGetVisibleLineCount
PUBLIC	?chatGetLineStep@@YAPAU_object@@PAU1@0@Z	; chatGetLineStep
PUBLIC	?chatAppendChat@@YAPAU_object@@PAU1@0@Z		; chatAppendChat
PUBLIC	?chatAppendChatWithDelay@@YAPAU_object@@PAU1@0@Z ; chatAppendChatWithDelay
PUBLIC	?chatArrangeShowingChat@@YAPAU_object@@PAU1@0@Z	; chatArrangeShowingChat
PUBLIC	?chatIgnoreCharacter@@YAPAU_object@@PAU1@0@Z	; chatIgnoreCharacter
PUBLIC	?chatIsIgnoreCharacter@@YAPAU_object@@PAU1@0@Z	; chatIsIgnoreCharacter
PUBLIC	?chatCreateWhisper@@YAPAU_object@@PAU1@0@Z	; chatCreateWhisper
PUBLIC	?chatAppendWhisper@@YAPAU_object@@PAU1@0@Z	; chatAppendWhisper
PUBLIC	?chatRenderWhisper@@YAPAU_object@@PAU1@0@Z	; chatRenderWhisper
PUBLIC	?chatSetWhisperBoxSize@@YAPAU_object@@PAU1@0@Z	; chatSetWhisperBoxSize
PUBLIC	?chatSetWhisperPosition@@YAPAU_object@@PAU1@0@Z	; chatSetWhisperPosition
PUBLIC	?chatClearWhisper@@YAPAU_object@@PAU1@0@Z	; chatClearWhisper
PUBLIC	?chatInitWhisper@@YAPAU_object@@PAU1@0@Z	; chatInitWhisper
PUBLIC	?chatGetLinkFromHyperlink@@YAPAU_object@@PAU1@0@Z ; chatGetLinkFromHyperlink
PUBLIC	??$_Destroy_range@V?$allocator@V?$basic_string@DU?$char_traits@D@std@@V?$allocator@D@2@@std@@@std@@@std@@YAXPAV?$basic_string@DU?$char_traits@D@std@@V?$allocator@D@2@@0@QAV10@AAV?$allocator@V?$basic_string@DU?$char_traits@D@std@@V?$allocator@D@2@@std@@@0@@Z ; std::_Destroy_range<std::allocator<std::basic_string<char,std::char_traits<char>,std::allocator<char> > > >
PUBLIC	?_OptionsStorage@?1??__local_stdio_printf_options@@9@4_KA ; `__local_stdio_printf_options'::`2'::_OptionsStorage
PUBLIC	??_7exception@std@@6B@				; std::exception::`vftable'
PUBLIC	??_C@_0BC@EOODALEL@Unknown?5exception@		; `string'
PUBLIC	??_7bad_alloc@std@@6B@				; std::bad_alloc::`vftable'
PUBLIC	??_7bad_array_new_length@std@@6B@		; std::bad_array_new_length::`vftable'
PUBLIC	??_C@_0BF@KINCDENJ@bad?5array?5new?5length@	; `string'
PUBLIC	__TI3?AVbad_array_new_length@std@@
PUBLIC	__CTA3?AVbad_array_new_length@std@@
PUBLIC	??_R0?AVbad_array_new_length@std@@@8		; std::bad_array_new_length `RTTI Type Descriptor'
PUBLIC	__CT??_R0?AVbad_array_new_length@std@@@8??0bad_array_new_length@std@@QAE@ABV01@@Z12
PUBLIC	??_R0?AVbad_alloc@std@@@8			; std::bad_alloc `RTTI Type Descriptor'
PUBLIC	__CT??_R0?AVbad_alloc@std@@@8??0bad_alloc@std@@QAE@ABV01@@Z12
PUBLIC	??_R0?AVexception@std@@@8			; std::exception `RTTI Type Descriptor'
PUBLIC	__CT??_R0?AVexception@std@@@8??0exception@std@@QAE@ABV01@@Z12
PUBLIC	??_C@_0BA@JFNIOLAK@string?5too?5long@		; `string'
PUBLIC	??_C@_00CNPNBAHC@@				; `string'
PUBLIC	??_R4exception@std@@6B@				; std::exception::`RTTI Complete Object Locator'
PUBLIC	??_R3exception@std@@8				; std::exception::`RTTI Class Hierarchy Descriptor'
PUBLIC	??_R2exception@std@@8				; std::exception::`RTTI Base Class Array'
PUBLIC	??_R1A@?0A@EA@exception@std@@8			; std::exception::`RTTI Base Class Descriptor at (0,-1,0,64)'
PUBLIC	??_R4bad_alloc@std@@6B@				; std::bad_alloc::`RTTI Complete Object Locator'
PUBLIC	??_R3bad_alloc@std@@8				; std::bad_alloc::`RTTI Class Hierarchy Descriptor'
PUBLIC	??_R2bad_alloc@std@@8				; std::bad_alloc::`RTTI Base Class Array'
PUBLIC	??_R1A@?0A@EA@bad_alloc@std@@8			; std::bad_alloc::`RTTI Base Class Descriptor at (0,-1,0,64)'
PUBLIC	??_R4bad_array_new_length@std@@6B@		; std::bad_array_new_length::`RTTI Complete Object Locator'
PUBLIC	??_R3bad_array_new_length@std@@8		; std::bad_array_new_length::`RTTI Class Hierarchy Descriptor'
PUBLIC	??_R2bad_array_new_length@std@@8		; std::bad_array_new_length::`RTTI Base Class Array'
PUBLIC	??_R1A@?0A@EA@bad_array_new_length@std@@8	; std::bad_array_new_length::`RTTI Base Class Descriptor at (0,-1,0,64)'
PUBLIC	?ms_singleton@?$CSingleton@VCPythonChat@@@@0PAVCPythonChat@@A ; CSingleton<CPythonChat>::ms_singleton
PUBLIC	?ms_singleton@?$CSingleton@VCItemManager@@@@0PAVCItemManager@@A ; CSingleton<CItemManager>::ms_singleton
PUBLIC	??_C@_01KBJDNOO@i@				; `string'
PUBLIC	??_C@_04NHONDGDE@item@				; `string'
PUBLIC	??_C@_01LKDEMHDF@s@				; `string'
PUBLIC	??_C@_0BE@FGPADLIF@item?3?$CFx?3?$CFx?3?$CFx?3?$CFx?3?$CFx@ ; `string'
PUBLIC	??_C@_06FAMCNHHL@?3?$CFx?3?$CFd@		; `string'
PUBLIC	??_C@_0BJ@DABMGIOF@?$HMcffffc700?$HMH?$CFs?$HMh?$FL?$CFs?$FN?$HMh?$HMr@ ; `string'
PUBLIC	??_C@_0BJ@GPGFNPLK@?$HMcfff1e6c0?$HMH?$CFs?$HMh?$FL?$CFs?$FN?$HMh?$HMr@ ; `string'
PUBLIC	??_C@_0N@JBENFECF@SetChatColor@			; `string'
PUBLIC	??_C@_05MDNHABIA@Clear@				; `string'
PUBLIC	??_C@_05LGELBCGM@Close@				; `string'
PUBLIC	??_C@_0O@NIPGGDN@CreateChatSet@			; `string'
PUBLIC	??_C@_06LMAGPFNF@Update@			; `string'
PUBLIC	??_C@_06EPLDPNDB@Render@			; `string'
PUBLIC	??_C@_0O@HLECNMMJ@SetBoardState@		; `string'
PUBLIC	??_C@_0M@GKIFPNAD@SetPosition@			; `string'
PUBLIC	??_C@_09GACBKIFI@SetHeight@			; `string'
PUBLIC	??_C@_07PCIEAKML@SetStep@			; `string'
PUBLIC	??_C@_0P@HJNLNPCF@ToggleChatMode@		; `string'
PUBLIC	??_C@_0P@CBALNCDJ@EnableChatMode@		; `string'
PUBLIC	??_C@_0BA@PMFEPLLL@DisableChatMode@		; `string'
PUBLIC	??_C@_09LEFDLNLA@SetEndPos@			; `string'
PUBLIC	??_C@_0N@GBIDIHNF@GetLineCount@			; `string'
PUBLIC	??_C@_0BE@ECGLNJIP@GetVisibleLineCount@		; `string'
PUBLIC	??_C@_0M@JAIPGIEI@GetLineStep@			; `string'
PUBLIC	??_C@_0L@LGDEPKMK@AppendChat@			; `string'
PUBLIC	??_C@_0BE@OLLFFMAP@AppendChatWithDelay@		; `string'
PUBLIC	??_C@_0BD@PGAGKLIB@ArrangeShowingChat@		; `string'
PUBLIC	??_C@_0BA@OBLLPMIK@IgnoreCharacter@		; `string'
PUBLIC	??_C@_0BC@BPLLIFOI@IsIgnoreCharacter@		; `string'
PUBLIC	??_C@_0O@EPNAKAMH@CreateWhisper@		; `string'
PUBLIC	??_C@_0O@MNHHDNCN@AppendWhisper@		; `string'
PUBLIC	??_C@_0O@HNBBBAHN@RenderWhisper@		; `string'
PUBLIC	??_C@_0BC@IEABADGD@SetWhisperBoxSize@		; `string'
PUBLIC	??_C@_0BD@NNNKEDJK@SetWhisperPosition@		; `string'
PUBLIC	??_C@_0N@FCHOFFAF@ClearWhisper@			; `string'
PUBLIC	??_C@_0M@OFOGDKFP@InitWhisper@			; `string'
PUBLIC	??_C@_0BF@BJFLHIAM@GetLinkFromHyperlink@	; `string'
PUBLIC	??_C@_04BLJLMHHG@chat@				; `string'
PUBLIC	??_C@_0BC@EHLMCJH@CHAT_TYPE_TALKING@		; `string'
PUBLIC	??_C@_0P@MIHHHBMP@CHAT_TYPE_INFO@		; `string'
PUBLIC	??_C@_0BB@KFACLMJA@CHAT_TYPE_NOTICE@		; `string'
PUBLIC	??_C@_0BA@JOLAGJG@CHAT_TYPE_PARTY@		; `string'
PUBLIC	??_C@_0BA@OIBJELLN@CHAT_TYPE_GUILD@		; `string'
PUBLIC	??_C@_0BC@IILPNMNB@CHAT_TYPE_COMMAND@		; `string'
PUBLIC	??_C@_0BA@JEHAINHB@CHAT_TYPE_SHOUT@		; `string'
PUBLIC	??_C@_0BC@JMANMLH@CHAT_TYPE_WHISPER@		; `string'
PUBLIC	??_C@_0BC@LIEDKBDG@WHISPER_TYPE_CHAT@		; `string'
PUBLIC	??_C@_0BE@KODPENDJ@WHISPER_TYPE_SYSTEM@		; `string'
PUBLIC	??_C@_0BA@KLIHGMFD@WHISPER_TYPE_GM@		; `string'
PUBLIC	??_C@_0BB@OJGJMFKD@BOARD_STATE_VIEW@		; `string'
PUBLIC	??_C@_0BB@BOHEFKIL@BOARD_STATE_EDIT@		; `string'
PUBLIC	??_C@_0BA@PGHAPLJK@BOARD_STATE_LOG@		; `string'
PUBLIC	??_C@_0BF@FCHEGAKH@CHAT_SET_CHAT_WINDOW@	; `string'
PUBLIC	??_C@_0BE@OPDJLJMH@CHAT_SET_LOG_WINDOW@		; `string'
EXTRN	??2@YAPAXI@Z:PROC				; operator new
EXTRN	??3@YAXPAXI@Z:PROC				; operator delete
EXTRN	__invalid_parameter_noinfo_noreturn:PROC
EXTRN	__atoi64:PROC
EXTRN	___stdio_common_vsprintf:PROC
EXTRN	___std_exception_copy:PROC
EXTRN	___std_exception_destroy:PROC
EXTRN	??_Eexception@std@@UAEPAXI@Z:PROC		; std::exception::`vector deleting destructor'
EXTRN	??_Ebad_alloc@std@@UAEPAXI@Z:PROC		; std::bad_alloc::`vector deleting destructor'
EXTRN	??_Ebad_array_new_length@std@@UAEPAXI@Z:PROC	; std::bad_array_new_length::`vector deleting destructor'
EXTRN	?_Xlength_error@std@@YAXPBD@Z:PROC		; std::_Xlength_error
EXTRN	?split_string@@YAHABV?$basic_string@DU?$char_traits@D@std@@V?$allocator@D@2@@std@@0AAV?$vector@V?$basic_string@DU?$char_traits@D@std@@V?$allocator@D@2@@std@@V?$allocator@V?$basic_string@DU?$char_traits@D@std@@V?$allocator@D@2@@std@@@2@@2@_N@Z:PROC ; split_string
EXTRN	__imp__Py_BuildValue:PROC
EXTRN	__imp__PyModule_AddIntConstant:PROC
EXTRN	__imp__Py_InitModule4:PROC
EXTRN	?PyTuple_GetString@@YA_NPAU_object@@HPAPAD@Z:PROC ; PyTuple_GetString
EXTRN	?PyTuple_GetInteger@@YA_NPAU_object@@HPAH@Z:PROC ; PyTuple_GetInteger
EXTRN	?PyTuple_GetFloat@@YA_NPAU_object@@HPAM@Z:PROC	; PyTuple_GetFloat
EXTRN	?PyTuple_GetObject@@YA_NPAU_object@@HPAPAU1@@Z:PROC ; PyTuple_GetObject
EXTRN	?Py_BuildException@@YAPAU_object@@PBDZZ:PROC	; Py_BuildException
EXTRN	?Py_BuildNone@@YAPAU_object@@XZ:PROC		; Py_BuildNone
EXTRN	?GetName@CItemData@@QBEPBDXZ:PROC		; CItemData::GetName
EXTRN	?SetPosition@CWhisper@@QAEXM@Z:PROC		; CWhisper::SetPosition
EXTRN	?SetBoxSize@CWhisper@@QAEXMM@Z:PROC		; CWhisper::SetBoxSize
EXTRN	?Render@CWhisper@@QAEXMM@Z:PROC			; CWhisper::Render
EXTRN	?SetChatColor@CPythonChat@@QAEXIIII@Z:PROC	; CPythonChat::SetChatColor
EXTRN	?Destroy@CPythonChat@@QAEXXZ:PROC		; CPythonChat::Destroy
EXTRN	?Close@CPythonChat@@QAEXXZ:PROC			; CPythonChat::Close
EXTRN	?CreateChatSet@CPythonChat@@QAEHK@Z:PROC	; CPythonChat::CreateChatSet
EXTRN	?Update@CPythonChat@@QAEXK@Z:PROC		; CPythonChat::Update
EXTRN	?Render@CPythonChat@@QAEXK@Z:PROC		; CPythonChat::Render
EXTRN	?SetBoardState@CPythonChat@@QAEXKH@Z:PROC	; CPythonChat::SetBoardState
EXTRN	?SetPosition@CPythonChat@@QAEXKHH@Z:PROC	; CPythonChat::SetPosition
EXTRN	?SetHeight@CPythonChat@@QAEXKH@Z:PROC		; CPythonChat::SetHeight
EXTRN	?SetStep@CPythonChat@@QAEXKH@Z:PROC		; CPythonChat::SetStep
EXTRN	?ToggleChatMode@CPythonChat@@QAEXKH@Z:PROC	; CPythonChat::ToggleChatMode
EXTRN	?EnableChatMode@CPythonChat@@QAEXKH@Z:PROC	; CPythonChat::EnableChatMode
EXTRN	?DisableChatMode@CPythonChat@@QAEXKH@Z:PROC	; CPythonChat::DisableChatMode
EXTRN	?SetEndPos@CPythonChat@@QAEXKM@Z:PROC		; CPythonChat::SetEndPos
EXTRN	?GetVisibleLineCount@CPythonChat@@QAEHK@Z:PROC	; CPythonChat::GetVisibleLineCount
EXTRN	?GetLineCount@CPythonChat@@QAEHK@Z:PROC		; CPythonChat::GetLineCount
EXTRN	?GetLineStep@CPythonChat@@QAEHK@Z:PROC		; CPythonChat::GetLineStep
EXTRN	?AppendChatWithDelay@CPythonChat@@QAEXHPBDH@Z:PROC ; CPythonChat::AppendChatWithDelay
EXTRN	?ArrangeShowingChat@CPythonChat@@QAEXK@Z:PROC	; CPythonChat::ArrangeShowingChat
EXTRN	?IgnoreCharacter@CPythonChat@@QAEXPBD@Z:PROC	; CPythonChat::IgnoreCharacter
EXTRN	?IsIgnoreCharacter@CPythonChat@@QAEHPBD@Z:PROC	; CPythonChat::IsIgnoreCharacter
EXTRN	?CreateWhisper@CPythonChat@@QAEPAVCWhisper@@PBD@Z:PROC ; CPythonChat::CreateWhisper
EXTRN	?AppendWhisper@CPythonChat@@QAEXHPBD0@Z:PROC	; CPythonChat::AppendWhisper
EXTRN	?ClearWhisper@CPythonChat@@QAEXPBD@Z:PROC	; CPythonChat::ClearWhisper
EXTRN	?GetWhisper@CPythonChat@@QAEHPBDPAPAVCWhisper@@@Z:PROC ; CPythonChat::GetWhisper
EXTRN	?InitWhisper@CPythonChat@@QAEXPAU_object@@@Z:PROC ; CPythonChat::InitWhisper
EXTRN	?GetItemDataPointer@CItemManager@@QAEHKPAPAVCItemData@@@Z:PROC ; CItemManager::GetItemDataPointer
EXTRN	@__security_check_cookie@4:PROC
EXTRN	__CxxThrowException@8:PROC
EXTRN	___CxxFrameHandler3:PROC
EXTRN	_memcpy:PROC
EXTRN	_memmove:PROC
EXTRN	_memset:PROC
EXTRN	??_7type_info@@6B@:QWORD			; type_info::`vftable'
EXTRN	___security_cookie:DWORD
EXTRN	__fltused:DWORD
;	COMDAT ?_OptionsStorage@?1??__local_stdio_printf_options@@9@4_KA
_BSS	SEGMENT
?_OptionsStorage@?1??__local_stdio_printf_options@@9@4_KA DQ 01H DUP (?) ; `__local_stdio_printf_options'::`2'::_OptionsStorage
_BSS	ENDS
;	COMDAT ?ms_singleton@?$CSingleton@VCPythonChat@@@@0PAVCPythonChat@@A
_BSS	SEGMENT
?ms_singleton@?$CSingleton@VCPythonChat@@@@0PAVCPythonChat@@A DD 01H DUP (?) ; CSingleton<CPythonChat>::ms_singleton
_BSS	ENDS
;	COMDAT ?ms_singleton@?$CSingleton@VCItemManager@@@@0PAVCItemManager@@A
_BSS	SEGMENT
?ms_singleton@?$CSingleton@VCItemManager@@@@0PAVCItemManager@@A DD 01H DUP (?) ; CSingleton<CItemManager>::ms_singleton
_BSS	ENDS
;	COMDAT ??_C@_0BE@OPDJLJMH@CHAT_SET_LOG_WINDOW@
CONST	SEGMENT
??_C@_0BE@OPDJLJMH@CHAT_SET_LOG_WINDOW@ DB 'CHAT_SET_LOG_WINDOW', 00H ; `string'
CONST	ENDS
;	COMDAT ??_C@_0BF@FCHEGAKH@CHAT_SET_CHAT_WINDOW@
CONST	SEGMENT
??_C@_0BF@FCHEGAKH@CHAT_SET_CHAT_WINDOW@ DB 'CHAT_SET_CHAT_WINDOW', 00H ; `string'
CONST	ENDS
;	COMDAT ??_C@_0BA@PGHAPLJK@BOARD_STATE_LOG@
CONST	SEGMENT
??_C@_0BA@PGHAPLJK@BOARD_STATE_LOG@ DB 'BOARD_STATE_LOG', 00H ; `string'
CONST	ENDS
;	COMDAT ??_C@_0BB@BOHEFKIL@BOARD_STATE_EDIT@
CONST	SEGMENT
??_C@_0BB@BOHEFKIL@BOARD_STATE_EDIT@ DB 'BOARD_STATE_EDIT', 00H ; `string'
CONST	ENDS
;	COMDAT ??_C@_0BB@OJGJMFKD@BOARD_STATE_VIEW@
CONST	SEGMENT
??_C@_0BB@OJGJMFKD@BOARD_STATE_VIEW@ DB 'BOARD_STATE_VIEW', 00H ; `string'
CONST	ENDS
;	COMDAT ??_C@_0BA@KLIHGMFD@WHISPER_TYPE_GM@
CONST	SEGMENT
??_C@_0BA@KLIHGMFD@WHISPER_TYPE_GM@ DB 'WHISPER_TYPE_GM', 00H ; `string'
CONST	ENDS
;	COMDAT ??_C@_0BE@KODPENDJ@WHISPER_TYPE_SYSTEM@
CONST	SEGMENT
??_C@_0BE@KODPENDJ@WHISPER_TYPE_SYSTEM@ DB 'WHISPER_TYPE_SYSTEM', 00H ; `string'
CONST	ENDS
;	COMDAT ??_C@_0BC@LIEDKBDG@WHISPER_TYPE_CHAT@
CONST	SEGMENT
??_C@_0BC@LIEDKBDG@WHISPER_TYPE_CHAT@ DB 'WHISPER_TYPE_CHAT', 00H ; `string'
CONST	ENDS
;	COMDAT ??_C@_0BC@JMANMLH@CHAT_TYPE_WHISPER@
CONST	SEGMENT
??_C@_0BC@JMANMLH@CHAT_TYPE_WHISPER@ DB 'CHAT_TYPE_WHISPER', 00H ; `string'
CONST	ENDS
;	COMDAT ??_C@_0BA@JEHAINHB@CHAT_TYPE_SHOUT@
CONST	SEGMENT
??_C@_0BA@JEHAINHB@CHAT_TYPE_SHOUT@ DB 'CHAT_TYPE_SHOUT', 00H ; `string'
CONST	ENDS
;	COMDAT ??_C@_0BC@IILPNMNB@CHAT_TYPE_COMMAND@
CONST	SEGMENT
??_C@_0BC@IILPNMNB@CHAT_TYPE_COMMAND@ DB 'CHAT_TYPE_COMMAND', 00H ; `string'
CONST	ENDS
;	COMDAT ??_C@_0BA@OIBJELLN@CHAT_TYPE_GUILD@
CONST	SEGMENT
??_C@_0BA@OIBJELLN@CHAT_TYPE_GUILD@ DB 'CHAT_TYPE_GUILD', 00H ; `string'
CONST	ENDS
;	COMDAT ??_C@_0BA@JOLAGJG@CHAT_TYPE_PARTY@
CONST	SEGMENT
??_C@_0BA@JOLAGJG@CHAT_TYPE_PARTY@ DB 'CHAT_TYPE_PARTY', 00H ; `string'
CONST	ENDS
;	COMDAT ??_C@_0BB@KFACLMJA@CHAT_TYPE_NOTICE@
CONST	SEGMENT
??_C@_0BB@KFACLMJA@CHAT_TYPE_NOTICE@ DB 'CHAT_TYPE_NOTICE', 00H ; `string'
CONST	ENDS
;	COMDAT ??_C@_0P@MIHHHBMP@CHAT_TYPE_INFO@
CONST	SEGMENT
??_C@_0P@MIHHHBMP@CHAT_TYPE_INFO@ DB 'CHAT_TYPE_INFO', 00H ; `string'
CONST	ENDS
;	COMDAT ??_C@_0BC@EHLMCJH@CHAT_TYPE_TALKING@
CONST	SEGMENT
??_C@_0BC@EHLMCJH@CHAT_TYPE_TALKING@ DB 'CHAT_TYPE_TALKING', 00H ; `string'
CONST	ENDS
;	COMDAT ??_C@_04BLJLMHHG@chat@
CONST	SEGMENT
??_C@_04BLJLMHHG@chat@ DB 'chat', 00H			; `string'
CONST	ENDS
;	COMDAT ??_C@_0BF@BJFLHIAM@GetLinkFromHyperlink@
CONST	SEGMENT
??_C@_0BF@BJFLHIAM@GetLinkFromHyperlink@ DB 'GetLinkFromHyperlink', 00H ; `string'
CONST	ENDS
;	COMDAT ??_C@_0M@OFOGDKFP@InitWhisper@
CONST	SEGMENT
??_C@_0M@OFOGDKFP@InitWhisper@ DB 'InitWhisper', 00H	; `string'
CONST	ENDS
;	COMDAT ??_C@_0N@FCHOFFAF@ClearWhisper@
CONST	SEGMENT
??_C@_0N@FCHOFFAF@ClearWhisper@ DB 'ClearWhisper', 00H	; `string'
CONST	ENDS
;	COMDAT ??_C@_0BD@NNNKEDJK@SetWhisperPosition@
CONST	SEGMENT
??_C@_0BD@NNNKEDJK@SetWhisperPosition@ DB 'SetWhisperPosition', 00H ; `string'
CONST	ENDS
;	COMDAT ??_C@_0BC@IEABADGD@SetWhisperBoxSize@
CONST	SEGMENT
??_C@_0BC@IEABADGD@SetWhisperBoxSize@ DB 'SetWhisperBoxSize', 00H ; `string'
CONST	ENDS
;	COMDAT ??_C@_0O@HNBBBAHN@RenderWhisper@
CONST	SEGMENT
??_C@_0O@HNBBBAHN@RenderWhisper@ DB 'RenderWhisper', 00H ; `string'
CONST	ENDS
;	COMDAT ??_C@_0O@MNHHDNCN@AppendWhisper@
CONST	SEGMENT
??_C@_0O@MNHHDNCN@AppendWhisper@ DB 'AppendWhisper', 00H ; `string'
CONST	ENDS
;	COMDAT ??_C@_0O@EPNAKAMH@CreateWhisper@
CONST	SEGMENT
??_C@_0O@EPNAKAMH@CreateWhisper@ DB 'CreateWhisper', 00H ; `string'
CONST	ENDS
;	COMDAT ??_C@_0BC@BPLLIFOI@IsIgnoreCharacter@
CONST	SEGMENT
??_C@_0BC@BPLLIFOI@IsIgnoreCharacter@ DB 'IsIgnoreCharacter', 00H ; `string'
CONST	ENDS
;	COMDAT ??_C@_0BA@OBLLPMIK@IgnoreCharacter@
CONST	SEGMENT
??_C@_0BA@OBLLPMIK@IgnoreCharacter@ DB 'IgnoreCharacter', 00H ; `string'
CONST	ENDS
;	COMDAT ??_C@_0BD@PGAGKLIB@ArrangeShowingChat@
CONST	SEGMENT
??_C@_0BD@PGAGKLIB@ArrangeShowingChat@ DB 'ArrangeShowingChat', 00H ; `string'
CONST	ENDS
;	COMDAT ??_C@_0BE@OLLFFMAP@AppendChatWithDelay@
CONST	SEGMENT
??_C@_0BE@OLLFFMAP@AppendChatWithDelay@ DB 'AppendChatWithDelay', 00H ; `string'
CONST	ENDS
;	COMDAT ??_C@_0L@LGDEPKMK@AppendChat@
CONST	SEGMENT
??_C@_0L@LGDEPKMK@AppendChat@ DB 'AppendChat', 00H	; `string'
CONST	ENDS
;	COMDAT ??_C@_0M@JAIPGIEI@GetLineStep@
CONST	SEGMENT
??_C@_0M@JAIPGIEI@GetLineStep@ DB 'GetLineStep', 00H	; `string'
CONST	ENDS
;	COMDAT ??_C@_0BE@ECGLNJIP@GetVisibleLineCount@
CONST	SEGMENT
??_C@_0BE@ECGLNJIP@GetVisibleLineCount@ DB 'GetVisibleLineCount', 00H ; `string'
CONST	ENDS
;	COMDAT ??_C@_0N@GBIDIHNF@GetLineCount@
CONST	SEGMENT
??_C@_0N@GBIDIHNF@GetLineCount@ DB 'GetLineCount', 00H	; `string'
CONST	ENDS
;	COMDAT ??_C@_09LEFDLNLA@SetEndPos@
CONST	SEGMENT
??_C@_09LEFDLNLA@SetEndPos@ DB 'SetEndPos', 00H		; `string'
CONST	ENDS
;	COMDAT ??_C@_0BA@PMFEPLLL@DisableChatMode@
CONST	SEGMENT
??_C@_0BA@PMFEPLLL@DisableChatMode@ DB 'DisableChatMode', 00H ; `string'
CONST	ENDS
;	COMDAT ??_C@_0P@CBALNCDJ@EnableChatMode@
CONST	SEGMENT
??_C@_0P@CBALNCDJ@EnableChatMode@ DB 'EnableChatMode', 00H ; `string'
CONST	ENDS
;	COMDAT ??_C@_0P@HJNLNPCF@ToggleChatMode@
CONST	SEGMENT
??_C@_0P@HJNLNPCF@ToggleChatMode@ DB 'ToggleChatMode', 00H ; `string'
CONST	ENDS
;	COMDAT ??_C@_07PCIEAKML@SetStep@
CONST	SEGMENT
??_C@_07PCIEAKML@SetStep@ DB 'SetStep', 00H		; `string'
CONST	ENDS
;	COMDAT ??_C@_09GACBKIFI@SetHeight@
CONST	SEGMENT
??_C@_09GACBKIFI@SetHeight@ DB 'SetHeight', 00H		; `string'
CONST	ENDS
;	COMDAT ??_C@_0M@GKIFPNAD@SetPosition@
CONST	SEGMENT
??_C@_0M@GKIFPNAD@SetPosition@ DB 'SetPosition', 00H	; `string'
CONST	ENDS
;	COMDAT ??_C@_0O@HLECNMMJ@SetBoardState@
CONST	SEGMENT
??_C@_0O@HLECNMMJ@SetBoardState@ DB 'SetBoardState', 00H ; `string'
CONST	ENDS
;	COMDAT ??_C@_06EPLDPNDB@Render@
CONST	SEGMENT
??_C@_06EPLDPNDB@Render@ DB 'Render', 00H		; `string'
CONST	ENDS
;	COMDAT ??_C@_06LMAGPFNF@Update@
CONST	SEGMENT
??_C@_06LMAGPFNF@Update@ DB 'Update', 00H		; `string'
CONST	ENDS
;	COMDAT ??_C@_0O@NIPGGDN@CreateChatSet@
CONST	SEGMENT
??_C@_0O@NIPGGDN@CreateChatSet@ DB 'CreateChatSet', 00H	; `string'
CONST	ENDS
;	COMDAT ??_C@_05LGELBCGM@Close@
CONST	SEGMENT
??_C@_05LGELBCGM@Close@ DB 'Close', 00H			; `string'
CONST	ENDS
;	COMDAT ??_C@_05MDNHABIA@Clear@
CONST	SEGMENT
??_C@_05MDNHABIA@Clear@ DB 'Clear', 00H			; `string'
CONST	ENDS
;	COMDAT ??_C@_0N@JBENFECF@SetChatColor@
CONST	SEGMENT
??_C@_0N@JBENFECF@SetChatColor@ DB 'SetChatColor', 00H	; `string'
CONST	ENDS
;	COMDAT ?s_methods@?1??initChat@@YAXXZ@4PAUPyMethodDef@@A
_DATA	SEGMENT
?s_methods@?1??initChat@@YAXXZ@4PAUPyMethodDef@@A DD FLAT:??_C@_0N@JBENFECF@SetChatColor@ ; `initChat'::`2'::s_methods
	DD	FLAT:?chatSetChatColor@@YAPAU_object@@PAU1@0@Z
	DD	01H
	ORG $+4
	DD	FLAT:??_C@_05MDNHABIA@Clear@
	DD	FLAT:?chatClear@@YAPAU_object@@PAU1@0@Z
	DD	01H
	ORG $+4
	DD	FLAT:??_C@_05LGELBCGM@Close@
	DD	FLAT:?chatClose@@YAPAU_object@@PAU1@0@Z
	DD	01H
	ORG $+4
	DD	FLAT:??_C@_0O@NIPGGDN@CreateChatSet@
	DD	FLAT:?chatCreateChatSet@@YAPAU_object@@PAU1@0@Z
	DD	01H
	ORG $+4
	DD	FLAT:??_C@_06LMAGPFNF@Update@
	DD	FLAT:?chatUpdate@@YAPAU_object@@PAU1@0@Z
	DD	01H
	ORG $+4
	DD	FLAT:??_C@_06EPLDPNDB@Render@
	DD	FLAT:?chatRender@@YAPAU_object@@PAU1@0@Z
	DD	01H
	ORG $+4
	DD	FLAT:??_C@_0O@HLECNMMJ@SetBoardState@
	DD	FLAT:?chatSetBoardState@@YAPAU_object@@PAU1@0@Z
	DD	01H
	ORG $+4
	DD	FLAT:??_C@_0M@GKIFPNAD@SetPosition@
	DD	FLAT:?chatSetPosition@@YAPAU_object@@PAU1@0@Z
	DD	01H
	ORG $+4
	DD	FLAT:??_C@_09GACBKIFI@SetHeight@
	DD	FLAT:?chatSetHeight@@YAPAU_object@@PAU1@0@Z
	DD	01H
	ORG $+4
	DD	FLAT:??_C@_07PCIEAKML@SetStep@
	DD	FLAT:?chatSetStep@@YAPAU_object@@PAU1@0@Z
	DD	01H
	ORG $+4
	DD	FLAT:??_C@_0P@HJNLNPCF@ToggleChatMode@
	DD	FLAT:?chatToggleChatMode@@YAPAU_object@@PAU1@0@Z
	DD	01H
	ORG $+4
	DD	FLAT:??_C@_0P@CBALNCDJ@EnableChatMode@
	DD	FLAT:?chatEnableChatMode@@YAPAU_object@@PAU1@0@Z
	DD	01H
	ORG $+4
	DD	FLAT:??_C@_0BA@PMFEPLLL@DisableChatMode@
	DD	FLAT:?chatDisableChatMode@@YAPAU_object@@PAU1@0@Z
	DD	01H
	ORG $+4
	DD	FLAT:??_C@_09LEFDLNLA@SetEndPos@
	DD	FLAT:?chatSetEndPos@@YAPAU_object@@PAU1@0@Z
	DD	01H
	ORG $+4
	DD	FLAT:??_C@_0N@GBIDIHNF@GetLineCount@
	DD	FLAT:?chatGetLineCount@@YAPAU_object@@PAU1@0@Z
	DD	01H
	ORG $+4
	DD	FLAT:??_C@_0BE@ECGLNJIP@GetVisibleLineCount@
	DD	FLAT:?chatGetVisibleLineCount@@YAPAU_object@@PAU1@0@Z
	DD	01H
	ORG $+4
	DD	FLAT:??_C@_0M@JAIPGIEI@GetLineStep@
	DD	FLAT:?chatGetLineStep@@YAPAU_object@@PAU1@0@Z
	DD	01H
	ORG $+4
	DD	FLAT:??_C@_0L@LGDEPKMK@AppendChat@
	DD	FLAT:?chatAppendChat@@YAPAU_object@@PAU1@0@Z
	DD	01H
	ORG $+4
	DD	FLAT:??_C@_0BE@OLLFFMAP@AppendChatWithDelay@
	DD	FLAT:?chatAppendChatWithDelay@@YAPAU_object@@PAU1@0@Z
	DD	01H
	ORG $+4
	DD	FLAT:??_C@_0BD@PGAGKLIB@ArrangeShowingChat@
	DD	FLAT:?chatArrangeShowingChat@@YAPAU_object@@PAU1@0@Z
	DD	01H
	ORG $+4
	DD	FLAT:??_C@_0BA@OBLLPMIK@IgnoreCharacter@
	DD	FLAT:?chatIgnoreCharacter@@YAPAU_object@@PAU1@0@Z
	DD	01H
	ORG $+4
	DD	FLAT:??_C@_0BC@BPLLIFOI@IsIgnoreCharacter@
	DD	FLAT:?chatIsIgnoreCharacter@@YAPAU_object@@PAU1@0@Z
	DD	01H
	ORG $+4
	DD	FLAT:??_C@_0O@EPNAKAMH@CreateWhisper@
	DD	FLAT:?chatCreateWhisper@@YAPAU_object@@PAU1@0@Z
	DD	01H
	ORG $+4
	DD	FLAT:??_C@_0O@MNHHDNCN@AppendWhisper@
	DD	FLAT:?chatAppendWhisper@@YAPAU_object@@PAU1@0@Z
	DD	01H
	ORG $+4
	DD	FLAT:??_C@_0O@HNBBBAHN@RenderWhisper@
	DD	FLAT:?chatRenderWhisper@@YAPAU_object@@PAU1@0@Z
	DD	01H
	ORG $+4
	DD	FLAT:??_C@_0BC@IEABADGD@SetWhisperBoxSize@
	DD	FLAT:?chatSetWhisperBoxSize@@YAPAU_object@@PAU1@0@Z
	DD	01H
	ORG $+4
	DD	FLAT:??_C@_0BD@NNNKEDJK@SetWhisperPosition@
	DD	FLAT:?chatSetWhisperPosition@@YAPAU_object@@PAU1@0@Z
	DD	01H
	ORG $+4
	DD	FLAT:??_C@_0N@FCHOFFAF@ClearWhisper@
	DD	FLAT:?chatClearWhisper@@YAPAU_object@@PAU1@0@Z
	DD	01H
	ORG $+4
	DD	FLAT:??_C@_0M@OFOGDKFP@InitWhisper@
	DD	FLAT:?chatInitWhisper@@YAPAU_object@@PAU1@0@Z
	DD	01H
	ORG $+4
	DD	FLAT:??_C@_0BF@BJFLHIAM@GetLinkFromHyperlink@
	DD	FLAT:?chatGetLinkFromHyperlink@@YAPAU_object@@PAU1@0@Z
	DD	01H
	ORG $+4
	DD	00H
	DD	00H
	DD	00H
	ORG $+4
_DATA	ENDS
;	COMDAT ??_C@_0BJ@GPGFNPLK@?$HMcfff1e6c0?$HMH?$CFs?$HMh?$FL?$CFs?$FN?$HMh?$HMr@
CONST	SEGMENT
??_C@_0BJ@GPGFNPLK@?$HMcfff1e6c0?$HMH?$CFs?$HMh?$FL?$CFs?$FN?$HMh?$HMr@ DB '|'
	DB	'cfff1e6c0|H%s|h[%s]|h|r', 00H		; `string'
CONST	ENDS
;	COMDAT ??_C@_0BJ@DABMGIOF@?$HMcffffc700?$HMH?$CFs?$HMh?$FL?$CFs?$FN?$HMh?$HMr@
CONST	SEGMENT
??_C@_0BJ@DABMGIOF@?$HMcffffc700?$HMH?$CFs?$HMh?$FL?$CFs?$FN?$HMh?$HMr@ DB '|'
	DB	'cffffc700|H%s|h[%s]|h|r', 00H		; `string'
CONST	ENDS
;	COMDAT ??_C@_06FAMCNHHL@?3?$CFx?3?$CFd@
CONST	SEGMENT
??_C@_06FAMCNHHL@?3?$CFx?3?$CFd@ DB ':%x:%d', 00H	; `string'
CONST	ENDS
;	COMDAT ??_C@_0BE@FGPADLIF@item?3?$CFx?3?$CFx?3?$CFx?3?$CFx?3?$CFx@
CONST	SEGMENT
??_C@_0BE@FGPADLIF@item?3?$CFx?3?$CFx?3?$CFx?3?$CFx?3?$CFx@ DB 'item:%x:%'
	DB	'x:%x:%x:%x', 00H				; `string'
CONST	ENDS
;	COMDAT ??_C@_01LKDEMHDF@s@
CONST	SEGMENT
??_C@_01LKDEMHDF@s@ DB 's', 00H				; `string'
CONST	ENDS
;	COMDAT ??_C@_04NHONDGDE@item@
CONST	SEGMENT
??_C@_04NHONDGDE@item@ DB 'item', 00H			; `string'
CONST	ENDS
;	COMDAT ??_C@_01KBJDNOO@i@
CONST	SEGMENT
??_C@_01KBJDNOO@i@ DB 'i', 00H				; `string'
CONST	ENDS
;	COMDAT ??_R1A@?0A@EA@bad_array_new_length@std@@8
rdata$r	SEGMENT
??_R1A@?0A@EA@bad_array_new_length@std@@8 DD FLAT:??_R0?AVbad_array_new_length@std@@@8 ; std::bad_array_new_length::`RTTI Base Class Descriptor at (0,-1,0,64)'
	DD	02H
	DD	00H
	DD	0ffffffffH
	DD	00H
	DD	040H
	DD	FLAT:??_R3bad_array_new_length@std@@8
rdata$r	ENDS
;	COMDAT ??_R2bad_array_new_length@std@@8
rdata$r	SEGMENT
??_R2bad_array_new_length@std@@8 DD FLAT:??_R1A@?0A@EA@bad_array_new_length@std@@8 ; std::bad_array_new_length::`RTTI Base Class Array'
	DD	FLAT:??_R1A@?0A@EA@bad_alloc@std@@8
	DD	FLAT:??_R1A@?0A@EA@exception@std@@8
rdata$r	ENDS
;	COMDAT ??_R3bad_array_new_length@std@@8
rdata$r	SEGMENT
??_R3bad_array_new_length@std@@8 DD 00H			; std::bad_array_new_length::`RTTI Class Hierarchy Descriptor'
	DD	00H
	DD	03H
	DD	FLAT:??_R2bad_array_new_length@std@@8
rdata$r	ENDS
;	COMDAT ??_R4bad_array_new_length@std@@6B@
rdata$r	SEGMENT
??_R4bad_array_new_length@std@@6B@ DD 00H		; std::bad_array_new_length::`RTTI Complete Object Locator'
	DD	00H
	DD	00H
	DD	FLAT:??_R0?AVbad_array_new_length@std@@@8
	DD	FLAT:??_R3bad_array_new_length@std@@8
rdata$r	ENDS
;	COMDAT ??_R1A@?0A@EA@bad_alloc@std@@8
rdata$r	SEGMENT
??_R1A@?0A@EA@bad_alloc@std@@8 DD FLAT:??_R0?AVbad_alloc@std@@@8 ; std::bad_alloc::`RTTI Base Class Descriptor at (0,-1,0,64)'
	DD	01H
	DD	00H
	DD	0ffffffffH
	DD	00H
	DD	040H
	DD	FLAT:??_R3bad_alloc@std@@8
rdata$r	ENDS
;	COMDAT ??_R2bad_alloc@std@@8
rdata$r	SEGMENT
??_R2bad_alloc@std@@8 DD FLAT:??_R1A@?0A@EA@bad_alloc@std@@8 ; std::bad_alloc::`RTTI Base Class Array'
	DD	FLAT:??_R1A@?0A@EA@exception@std@@8
rdata$r	ENDS
;	COMDAT ??_R3bad_alloc@std@@8
rdata$r	SEGMENT
??_R3bad_alloc@std@@8 DD 00H				; std::bad_alloc::`RTTI Class Hierarchy Descriptor'
	DD	00H
	DD	02H
	DD	FLAT:??_R2bad_alloc@std@@8
rdata$r	ENDS
;	COMDAT ??_R4bad_alloc@std@@6B@
rdata$r	SEGMENT
??_R4bad_alloc@std@@6B@ DD 00H				; std::bad_alloc::`RTTI Complete Object Locator'
	DD	00H
	DD	00H
	DD	FLAT:??_R0?AVbad_alloc@std@@@8
	DD	FLAT:??_R3bad_alloc@std@@8
rdata$r	ENDS
;	COMDAT ??_R1A@?0A@EA@exception@std@@8
rdata$r	SEGMENT
??_R1A@?0A@EA@exception@std@@8 DD FLAT:??_R0?AVexception@std@@@8 ; std::exception::`RTTI Base Class Descriptor at (0,-1,0,64)'
	DD	00H
	DD	00H
	DD	0ffffffffH
	DD	00H
	DD	040H
	DD	FLAT:??_R3exception@std@@8
rdata$r	ENDS
;	COMDAT ??_R2exception@std@@8
rdata$r	SEGMENT
??_R2exception@std@@8 DD FLAT:??_R1A@?0A@EA@exception@std@@8 ; std::exception::`RTTI Base Class Array'
rdata$r	ENDS
;	COMDAT ??_R3exception@std@@8
rdata$r	SEGMENT
??_R3exception@std@@8 DD 00H				; std::exception::`RTTI Class Hierarchy Descriptor'
	DD	00H
	DD	01H
	DD	FLAT:??_R2exception@std@@8
rdata$r	ENDS
;	COMDAT ??_R4exception@std@@6B@
rdata$r	SEGMENT
??_R4exception@std@@6B@ DD 00H				; std::exception::`RTTI Complete Object Locator'
	DD	00H
	DD	00H
	DD	FLAT:??_R0?AVexception@std@@@8
	DD	FLAT:??_R3exception@std@@8
rdata$r	ENDS
;	COMDAT ??_C@_00CNPNBAHC@@
CONST	SEGMENT
??_C@_00CNPNBAHC@@ DB 00H				; `string'
CONST	ENDS
;	COMDAT ??_C@_0BA@JFNIOLAK@string?5too?5long@
CONST	SEGMENT
??_C@_0BA@JFNIOLAK@string?5too?5long@ DB 'string too long', 00H ; `string'
CONST	ENDS
;	COMDAT __CT??_R0?AVexception@std@@@8??0exception@std@@QAE@ABV01@@Z12
xdata$x	SEGMENT
__CT??_R0?AVexception@std@@@8??0exception@std@@QAE@ABV01@@Z12 DD 00H
	DD	FLAT:??_R0?AVexception@std@@@8
	DD	00H
	DD	0ffffffffH
	ORG $+4
	DD	0cH
	DD	FLAT:??0exception@std@@QAE@ABV01@@Z
xdata$x	ENDS
;	COMDAT ??_R0?AVexception@std@@@8
data$r	SEGMENT
??_R0?AVexception@std@@@8 DD FLAT:??_7type_info@@6B@	; std::exception `RTTI Type Descriptor'
	DD	00H
	DB	'.?AVexception@std@@', 00H
data$r	ENDS
;	COMDAT __CT??_R0?AVbad_alloc@std@@@8??0bad_alloc@std@@QAE@ABV01@@Z12
xdata$x	SEGMENT
__CT??_R0?AVbad_alloc@std@@@8??0bad_alloc@std@@QAE@ABV01@@Z12 DD 010H
	DD	FLAT:??_R0?AVbad_alloc@std@@@8
	DD	00H
	DD	0ffffffffH
	ORG $+4
	DD	0cH
	DD	FLAT:??0bad_alloc@std@@QAE@ABV01@@Z
xdata$x	ENDS
;	COMDAT ??_R0?AVbad_alloc@std@@@8
data$r	SEGMENT
??_R0?AVbad_alloc@std@@@8 DD FLAT:??_7type_info@@6B@	; std::bad_alloc `RTTI Type Descriptor'
	DD	00H
	DB	'.?AVbad_alloc@std@@', 00H
data$r	ENDS
;	COMDAT __CT??_R0?AVbad_array_new_length@std@@@8??0bad_array_new_length@std@@QAE@ABV01@@Z12
xdata$x	SEGMENT
__CT??_R0?AVbad_array_new_length@std@@@8??0bad_array_new_length@std@@QAE@ABV01@@Z12 DD 00H
	DD	FLAT:??_R0?AVbad_array_new_length@std@@@8
	DD	00H
	DD	0ffffffffH
	ORG $+4
	DD	0cH
	DD	FLAT:??0bad_array_new_length@std@@QAE@ABV01@@Z
xdata$x	ENDS
;	COMDAT ??_R0?AVbad_array_new_length@std@@@8
data$r	SEGMENT
??_R0?AVbad_array_new_length@std@@@8 DD FLAT:??_7type_info@@6B@ ; std::bad_array_new_length `RTTI Type Descriptor'
	DD	00H
	DB	'.?AVbad_array_new_length@std@@', 00H
data$r	ENDS
;	COMDAT __CTA3?AVbad_array_new_length@std@@
xdata$x	SEGMENT
__CTA3?AVbad_array_new_length@std@@ DD 03H
	DD	FLAT:__CT??_R0?AVbad_array_new_length@std@@@8??0bad_array_new_length@std@@QAE@ABV01@@Z12
	DD	FLAT:__CT??_R0?AVbad_alloc@std@@@8??0bad_alloc@std@@QAE@ABV01@@Z12
	DD	FLAT:__CT??_R0?AVexception@std@@@8??0exception@std@@QAE@ABV01@@Z12
xdata$x	ENDS
;	COMDAT __TI3?AVbad_array_new_length@std@@
xdata$x	SEGMENT
__TI3?AVbad_array_new_length@std@@ DD 00H
	DD	FLAT:??1bad_array_new_length@std@@UAE@XZ
	DD	00H
	DD	FLAT:__CTA3?AVbad_array_new_length@std@@
xdata$x	ENDS
;	COMDAT ??_C@_0BF@KINCDENJ@bad?5array?5new?5length@
CONST	SEGMENT
??_C@_0BF@KINCDENJ@bad?5array?5new?5length@ DB 'bad array new length', 00H ; `string'
CONST	ENDS
;	COMDAT ??_7bad_array_new_length@std@@6B@
CONST	SEGMENT
??_7bad_array_new_length@std@@6B@ DD FLAT:??_R4bad_array_new_length@std@@6B@ ; std::bad_array_new_length::`vftable'
	DD	FLAT:??_Ebad_array_new_length@std@@UAEPAXI@Z
	DD	FLAT:?what@exception@std@@UBEPBDXZ
CONST	ENDS
;	COMDAT ??_7bad_alloc@std@@6B@
CONST	SEGMENT
??_7bad_alloc@std@@6B@ DD FLAT:??_R4bad_alloc@std@@6B@	; std::bad_alloc::`vftable'
	DD	FLAT:??_Ebad_alloc@std@@UAEPAXI@Z
	DD	FLAT:?what@exception@std@@UBEPBDXZ
CONST	ENDS
;	COMDAT ??_C@_0BC@EOODALEL@Unknown?5exception@
CONST	SEGMENT
??_C@_0BC@EOODALEL@Unknown?5exception@ DB 'Unknown exception', 00H ; `string'
CONST	ENDS
;	COMDAT ??_7exception@std@@6B@
CONST	SEGMENT
??_7exception@std@@6B@ DD FLAT:??_R4exception@std@@6B@	; std::exception::`vftable'
	DD	FLAT:??_Eexception@std@@UAEPAXI@Z
	DD	FLAT:?what@exception@std@@UBEPBDXZ
CONST	ENDS
;	COMDAT xdata$x
xdata$x	SEGMENT
__unwindtable$?chatGetLinkFromHyperlink@@YAPAU_object@@PAU1@0@Z DD 0ffffffffH
	DD	FLAT:__unwindfunclet$?chatGetLinkFromHyperlink@@YAPAU_object@@PAU1@0@Z$0
	DD	00H
	DD	FLAT:__unwindfunclet$?chatGetLinkFromHyperlink@@YAPAU_object@@PAU1@0@Z$1
	DD	01H
	DD	FLAT:__unwindfunclet$?chatGetLinkFromHyperlink@@YAPAU_object@@PAU1@0@Z$2
__ehfuncinfo$?chatGetLinkFromHyperlink@@YAPAU_object@@PAU1@0@Z DD 019930522H
	DD	03H
	DD	FLAT:__unwindtable$?chatGetLinkFromHyperlink@@YAPAU_object@@PAU1@0@Z
	DD	2 DUP(00H)
	DD	2 DUP(00H)
	DD	00H
	DD	01H
xdata$x	ENDS
; Function compile flags: /Ogtp
; File C:\Program Files (x86)\Microsoft Visual Studio\2019\Community\VC\Tools\MSVC\14.28.29333\include\xmemory
; File C:\Program Files (x86)\Microsoft Visual Studio\2019\Community\VC\Tools\MSVC\14.28.29333\include\xstring
; File C:\Program Files (x86)\Microsoft Visual Studio\2019\Community\VC\Tools\MSVC\14.28.29333\include\xmemory
; File C:\Program Files (x86)\Microsoft Visual Studio\2019\Community\VC\Tools\MSVC\14.28.29333\include\xstring
; File C:\Program Files (x86)\Microsoft Visual Studio\2019\Community\VC\Tools\MSVC\14.28.29333\include\xmemory
;	COMDAT ??$_Destroy_range@V?$allocator@V?$basic_string@DU?$char_traits@D@std@@V?$allocator@D@2@@std@@@std@@@std@@YAXPAV?$basic_string@DU?$char_traits@D@std@@V?$allocator@D@2@@0@QAV10@AAV?$allocator@V?$basic_string@DU?$char_traits@D@std@@V?$allocator@D@2@@std@@@0@@Z
_TEXT	SEGMENT
__First$ = 8						; size = 4
__Last$ = 12						; size = 4
__Al$ = 16						; size = 4
??$_Destroy_range@V?$allocator@V?$basic_string@DU?$char_traits@D@std@@V?$allocator@D@2@@std@@@std@@@std@@YAXPAV?$basic_string@DU?$char_traits@D@std@@V?$allocator@D@2@@0@QAV10@AAV?$allocator@V?$basic_string@DU?$char_traits@D@std@@V?$allocator@D@2@@std@@@0@@Z PROC ; std::_Destroy_range<std::allocator<std::basic_string<char,std::char_traits<char>,std::allocator<char> > > >, COMDAT

; 962  :     _Alloc_ptr_t<_Alloc> _First, const _Alloc_ptr_t<_Alloc> _Last, _Alloc& _Al) noexcept {

  00000	55		 push	 ebp
  00001	8b ec		 mov	 ebp, esp
  00003	56		 push	 esi

; 966  :         for (; _First != _Last; ++_First) {

  00004	8b 75 08	 mov	 esi, DWORD PTR __First$[ebp]
  00007	57		 push	 edi
  00008	8b 7d 0c	 mov	 edi, DWORD PTR __Last$[ebp]
  0000b	3b f7		 cmp	 esi, edi
  0000d	74 2d		 je	 SHORT $LN3@Destroy_ra
  0000f	90		 npad	 1
$LL4@Destroy_ra:
; File C:\Program Files (x86)\Microsoft Visual Studio\2019\Community\VC\Tools\MSVC\14.28.29333\include\xstring

; 2227 :         return _BUF_SIZE <= _Myres;

  00010	8b 46 14	 mov	 eax, DWORD PTR [esi+20]
  00013	83 f8 10	 cmp	 eax, 16			; 00000010H

; 4385 :         if (_Mypair._Myval2._Large_string_engaged()) {

  00016	72 0c		 jb	 SHORT $LN15@Destroy_ra

; 4386 :             const pointer _Ptr = _Mypair._Myval2._Bx._Ptr;
; 4387 :             auto& _Al          = _Getal();
; 4388 :             _Destroy_in_place(_Mypair._Myval2._Bx._Ptr);
; 4389 :             _Al.deallocate(_Ptr, _Mypair._Myval2._Myres + 1);

  00018	40		 inc	 eax
; File C:\Program Files (x86)\Microsoft Visual Studio\2019\Community\VC\Tools\MSVC\14.28.29333\include\xmemory

; 810  :         _Deallocate<_New_alignof<_Ty>>(_Ptr, sizeof(_Ty) * _Count);

  00019	50		 push	 eax
  0001a	ff 36		 push	 DWORD PTR [esi]
  0001c	e8 00 00 00 00	 call	 ??$_Deallocate@$07$0A@@std@@YAXPAXI@Z ; std::_Deallocate<8,0>
  00021	83 c4 08	 add	 esp, 8
$LN15@Destroy_ra:
; File C:\Program Files (x86)\Microsoft Visual Studio\2019\Community\VC\Tools\MSVC\14.28.29333\include\xstring

; 4392 :         _Mypair._Myval2._Mysize = 0;

  00024	c7 46 10 00 00
	00 00		 mov	 DWORD PTR [esi+16], 0

; 4393 :         _Mypair._Myval2._Myres  = _BUF_SIZE - 1;

  0002b	c7 46 14 0f 00
	00 00		 mov	 DWORD PTR [esi+20], 15	; 0000000fH

; 4394 :         // the _Traits::assign is last so the codegen doesn't think the char write can alias this
; 4395 :         _Traits::assign(_Mypair._Myval2._Bx._Buf[0], _Elem());

  00032	c6 06 00	 mov	 BYTE PTR [esi], 0
; File C:\Program Files (x86)\Microsoft Visual Studio\2019\Community\VC\Tools\MSVC\14.28.29333\include\xmemory

; 966  :         for (; _First != _Last; ++_First) {

  00035	83 c6 18	 add	 esi, 24			; 00000018H
  00038	3b f7		 cmp	 esi, edi
  0003a	75 d4		 jne	 SHORT $LL4@Destroy_ra
$LN3@Destroy_ra:
  0003c	5f		 pop	 edi

; 967  :             allocator_traits<_Alloc>::destroy(_Al, _Unfancy(_First));
; 968  :         }
; 969  :     }
; 970  : }

  0003d	5e		 pop	 esi
  0003e	5d		 pop	 ebp
  0003f	c3		 ret	 0
??$_Destroy_range@V?$allocator@V?$basic_string@DU?$char_traits@D@std@@V?$allocator@D@2@@std@@@std@@@std@@YAXPAV?$basic_string@DU?$char_traits@D@std@@V?$allocator@D@2@@0@QAV10@AAV?$allocator@V?$basic_string@DU?$char_traits@D@std@@V?$allocator@D@2@@std@@@0@@Z ENDP ; std::_Destroy_range<std::allocator<std::basic_string<char,std::char_traits<char>,std::allocator<char> > > >
_TEXT	ENDS
; Function compile flags: /Ogtp
; File D:\Metin2 Server Files\mainline\SRC_2014\Metin2Client\UserInterface\PythonChatModule.cpp
; File C:\Program Files (x86)\Microsoft Visual Studio\2019\Community\VC\Tools\MSVC\14.28.29333\include\xstring
; File D:\Metin2 Server Files\mainline\SRC_2014\Metin2Client\UserInterface\PythonChatModule.cpp
; File C:\Program Files (x86)\Microsoft Visual Studio\2019\Community\VC\Tools\MSVC\14.28.29333\include\vector
; File C:\Program Files (x86)\Microsoft Visual Studio\2019\Community\VC\Tools\MSVC\14.28.29333\include\xstring
; File D:\Metin2 Server Files\mainline\SRC_2014\Metin2Client\UserInterface\PythonChatModule.cpp
; File C:\Program Files (x86)\Microsoft Visual Studio\2019\Community\VC\Tools\MSVC\14.28.29333\include\xstring
; File D:\Metin2 Server Files\mainline\SRC_2014\Metin2Client\UserInterface\PythonChatModule.cpp
; File C:\Program Files (x86)\Microsoft Visual Studio\2019\Community\VC\Tools\MSVC\14.28.29333\include\xstring
; File C:\Program Files (x86)\Microsoft Visual Studio\2019\Community\VC\Tools\MSVC\14.28.29333\include\xmemory
; File C:\Program Files (x86)\Microsoft Visual Studio\2019\Community\VC\Tools\MSVC\14.28.29333\include\xstring
; File C:\Program Files (x86)\Microsoft Visual Studio\2019\Community\VC\Tools\MSVC\14.28.29333\include\utility
; File C:\Program Files (x86)\Microsoft Visual Studio\2019\Community\VC\Tools\MSVC\14.28.29333\include\xstring
; File C:\Program Files (x86)\Microsoft Visual Studio\2019\Community\VC\Tools\MSVC\14.28.29333\include\utility
; File C:\Program Files (x86)\Microsoft Visual Studio\2019\Community\VC\Tools\MSVC\14.28.29333\include\xstring
; File C:\Program Files (x86)\Microsoft Visual Studio\2019\Community\VC\Tools\MSVC\14.28.29333\include\vector
; File D:\Metin2 Server Files\mainline\SRC_2014\Metin2Client\UserInterface\PythonChatModule.cpp
; File C:\Program Files (x86)\Microsoft Visual Studio\2019\Community\VC\Tools\MSVC\14.28.29333\include\vector
; File D:\Metin2 Server Files\mainline\SRC_2014\Metin2Client\UserInterface\PythonChatModule.cpp
; File C:\Program Files (x86)\Microsoft Visual Studio\2019\Community\VC\Tools\MSVC\14.28.29333\include\xstring
; File D:\Metin2 Server Files\mainline\SRC_2014\Metin2Client\eterBase\Utils.h
; File D:\Metin2 Server Files\mainline\SRC_2014\Metin2Client\UserInterface\PythonChatModule.cpp
; File D:\Metin2 Server Files\mainline\SRC_2014\Metin2Client\eterBase\Utils.h
; File D:\Metin2 Server Files\mainline\SRC_2014\Metin2Client\UserInterface\PythonChatModule.cpp
; File C:\Program Files (x86)\Microsoft Visual Studio\2019\Community\VC\Tools\MSVC\14.28.29333\include\vector
; File D:\Metin2 Server Files\mainline\SRC_2014\Metin2Client\UserInterface\PythonChatModule.cpp
; File C:\Program Files (x86)\Microsoft Visual Studio\2019\Community\VC\Tools\MSVC\14.28.29333\include\vector
; File C:\Program Files (x86)\Microsoft Visual Studio\2019\Community\VC\Tools\MSVC\14.28.29333\include\xstring
; File D:\Metin2 Server Files\mainline\SRC_2014\Metin2Client\eterBase\Utils.h
; File D:\Metin2 Server Files\mainline\SRC_2014\Metin2Client\UserInterface\PythonChatModule.cpp
; File D:\Metin2 Server Files\mainline\SRC_2014\Metin2Client\eterBase\Utils.h
; File C:\Program Files (x86)\Microsoft Visual Studio\2019\Community\VC\Tools\MSVC\14.28.29333\include\vector
; File C:\Program Files (x86)\Microsoft Visual Studio\2019\Community\VC\Tools\MSVC\14.28.29333\include\xstring
; File D:\Metin2 Server Files\mainline\SRC_2014\Metin2Client\eterBase\Utils.h
; File D:\Metin2 Server Files\mainline\SRC_2014\Metin2Client\UserInterface\PythonChatModule.cpp
; File D:\Metin2 Server Files\mainline\SRC_2014\Metin2Client\eterBase\Utils.h
; File C:\Program Files (x86)\Microsoft Visual Studio\2019\Community\VC\Tools\MSVC\14.28.29333\include\vector
; File C:\Program Files (x86)\Microsoft Visual Studio\2019\Community\VC\Tools\MSVC\14.28.29333\include\xstring
; File D:\Metin2 Server Files\mainline\SRC_2014\Metin2Client\eterBase\Utils.h
; File D:\Metin2 Server Files\mainline\SRC_2014\Metin2Client\UserInterface\PythonChatModule.cpp
; File D:\Metin2 Server Files\mainline\SRC_2014\Metin2Client\eterBase\Utils.h
; File C:\Program Files (x86)\Microsoft Visual Studio\2019\Community\VC\Tools\MSVC\14.28.29333\include\vector
; File C:\Program Files (x86)\Microsoft Visual Studio\2019\Community\VC\Tools\MSVC\14.28.29333\include\xstring
; File D:\Metin2 Server Files\mainline\SRC_2014\Metin2Client\eterBase\Utils.h
; File D:\Metin2 Server Files\mainline\SRC_2014\Metin2Client\UserInterface\PythonChatModule.cpp
; File D:\Metin2 Server Files\mainline\SRC_2014\Metin2Client\eterBase\Utils.h
; File C:\Program Files (x86)\Microsoft Visual Studio\2019\Community\VC\Tools\MSVC\14.28.29333\include\vector
; File C:\Program Files (x86)\Microsoft Visual Studio\2019\Community\VC\Tools\MSVC\14.28.29333\include\xstring
; File D:\Metin2 Server Files\mainline\SRC_2014\Metin2Client\eterBase\Utils.h
; File D:\Metin2 Server Files\mainline\SRC_2014\Metin2Client\UserInterface\PythonChatModule.cpp
; File D:\Metin2 Server Files\mainline\SRC_2014\Metin2Client\eterBase\Utils.h
; File D:\Metin2 Server Files\mainline\SRC_2014\Metin2Client\UserInterface\PythonChatModule.cpp
; File C:\Program Files (x86)\Microsoft Visual Studio\2019\Community\VC\Tools\MSVC\14.28.29333\include\vector
; File D:\Metin2 Server Files\mainline\SRC_2014\Metin2Client\UserInterface\PythonChatModule.cpp
; File C:\Program Files (x86)\Microsoft Visual Studio\2019\Community\VC\Tools\MSVC\14.28.29333\include\vector
; File D:\Metin2 Server Files\mainline\SRC_2014\Metin2Client\UserInterface\PythonChatModule.cpp
; File C:\Program Files (x86)\Microsoft Visual Studio\2019\Community\VC\Tools\MSVC\14.28.29333\include\vector
; File D:\Metin2 Server Files\mainline\SRC_2014\Metin2Client\UserInterface\PythonChatModule.cpp
; File C:\Program Files (x86)\Microsoft Visual Studio\2019\Community\VC\Tools\MSVC\14.28.29333\include\vector
; File D:\Metin2 Server Files\mainline\SRC_2014\Metin2Client\UserInterface\PythonChatModule.cpp
; File C:\Program Files (x86)\Microsoft Visual Studio\2019\Community\VC\Tools\MSVC\14.28.29333\include\vector
; File C:\Program Files (x86)\Microsoft Visual Studio\2019\Community\VC\Tools\MSVC\14.28.29333\include\xstring
; File C:\Program Files (x86)\Microsoft Visual Studio\2019\Community\VC\Tools\MSVC\14.28.29333\include\vector
; File C:\Program Files (x86)\Microsoft Visual Studio\2019\Community\VC\Tools\MSVC\14.28.29333\include\xstring
; File D:\Metin2 Server Files\mainline\SRC_2014\Metin2Client\eterBase\Utils.h
; File D:\Metin2 Server Files\mainline\SRC_2014\Metin2Client\UserInterface\PythonChatModule.cpp
; File D:\Metin2 Server Files\mainline\SRC_2014\Metin2Client\eterBase\Utils.h
; File D:\Metin2 Server Files\mainline\SRC_2014\Metin2Client\UserInterface\PythonChatModule.cpp
; File C:\Program Files (x86)\Microsoft Visual Studio\2019\Community\VC\Tools\MSVC\14.28.29333\include\vector
; File D:\Metin2 Server Files\mainline\SRC_2014\Metin2Client\UserInterface\PythonChatModule.cpp
; File C:\Program Files (x86)\Microsoft Visual Studio\2019\Community\VC\Tools\MSVC\14.28.29333\include\vector
; File D:\Metin2 Server Files\mainline\SRC_2014\Metin2Client\UserInterface\PythonChatModule.cpp
; File C:\Program Files (x86)\Microsoft Visual Studio\2019\Community\VC\Tools\MSVC\14.28.29333\include\vector
; File D:\Metin2 Server Files\mainline\SRC_2014\Metin2Client\UserInterface\PythonChatModule.cpp
; File C:\Program Files (x86)\Microsoft Visual Studio\2019\Community\VC\Tools\MSVC\14.28.29333\include\vector
; File D:\Metin2 Server Files\mainline\SRC_2014\Metin2Client\UserInterface\PythonChatModule.cpp
; File C:\Program Files (x86)\Microsoft Visual Studio\2019\Community\VC\Tools\MSVC\14.28.29333\include\vector
; File D:\Metin2 Server Files\mainline\SRC_2014\Metin2Client\UserInterface\PythonChatModule.cpp
; File C:\Program Files (x86)\Microsoft Visual Studio\2019\Community\VC\Tools\MSVC\14.28.29333\include\vector
; File D:\Metin2 Server Files\mainline\SRC_2014\Metin2Client\UserInterface\PythonChatModule.cpp
; File C:\Program Files (x86)\Microsoft Visual Studio\2019\Community\VC\Tools\MSVC\14.28.29333\include\vector
; File C:\Program Files (x86)\Microsoft Visual Studio\2019\Community\VC\Tools\MSVC\14.28.29333\include\xmemory
; File C:\Program Files (x86)\Microsoft Visual Studio\2019\Community\VC\Tools\MSVC\14.28.29333\include\vector
; File C:\Program Files (x86)\Microsoft Visual Studio\2019\Community\VC\Tools\MSVC\14.28.29333\include\xstring
; File C:\Program Files (x86)\Microsoft Visual Studio\2019\Community\VC\Tools\MSVC\14.28.29333\include\xmemory
; File D:\Metin2 Server Files\mainline\SRC_2014\Metin2Client\UserInterface\PythonChatModule.cpp
;	COMDAT ?chatGetLinkFromHyperlink@@YAPAU_object@@PAU1@0@Z
_TEXT	SEGMENT
tv2373 = -1384						; size = 4
_szHyperlink$ = -1380					; size = 4
_pItemData$2 = -1376					; size = 4
__Result$1$ = -1372					; size = 4
$T3 = -1372						; size = 4
_results$ = -1368					; size = 12
__Result$1$ = -1356					; size = 4
_y$1$ = -1356						; size = 4
_len$1$ = -1356						; size = 4
_y$1$ = -1352						; size = 4
__Result$1$ = -1352					; size = 4
_i$1$ = -1352						; size = 4
tv2370 = -1348						; size = 4
tv2366 = -1348						; size = 4
tv2360 = -1348						; size = 4
tv2356 = -1348						; size = 4
tv2349 = -1348						; size = 4
tv2347 = -1348						; size = 4
tv2334 = -1348						; size = 4
tv2331 = -1348						; size = 4
tv2328 = -1348						; size = 4
tv2301 = -1348						; size = 4
_stHyperlink$ = -1344					; size = 24
$T4 = -1320						; size = 24
_buf$5 = -1296						; size = 1024
_itemlink$6 = -272					; size = 256
__$ArrayPad$ = -16					; size = 4
__$EHRec$ = -12						; size = 12
_poSelf$ = 8						; size = 4
_poArgs$ = 12						; size = 4
?chatGetLinkFromHyperlink@@YAPAU_object@@PAU1@0@Z PROC	; chatGetLinkFromHyperlink, COMDAT

; 394  : {

  00000	55		 push	 ebp
  00001	8b ec		 mov	 ebp, esp
  00003	6a ff		 push	 -1
  00005	68 00 00 00 00	 push	 __ehhandler$?chatGetLinkFromHyperlink@@YAPAU_object@@PAU1@0@Z
  0000a	64 a1 00 00 00
	00		 mov	 eax, DWORD PTR fs:0
  00010	50		 push	 eax
  00011	81 ec 5c 05 00
	00		 sub	 esp, 1372		; 0000055cH
  00017	a1 00 00 00 00	 mov	 eax, DWORD PTR ___security_cookie
  0001c	33 c5		 xor	 eax, ebp
  0001e	89 45 f0	 mov	 DWORD PTR __$ArrayPad$[ebp], eax
  00021	53		 push	 ebx
  00022	56		 push	 esi
  00023	57		 push	 edi
  00024	50		 push	 eax
  00025	8d 45 f4	 lea	 eax, DWORD PTR __$EHRec$[ebp]
  00028	64 a3 00 00 00
	00		 mov	 DWORD PTR fs:0, eax
  0002e	8b 45 0c	 mov	 eax, DWORD PTR _poArgs$[ebp]

; 395  : 	char * szHyperlink;
; 396  : 	
; 397  : 	if (!PyTuple_GetString(poArgs, 0, &szHyperlink))

  00031	8d 8d 9c fa ff
	ff		 lea	 ecx, DWORD PTR _szHyperlink$[ebp]
  00037	51		 push	 ecx
  00038	6a 00		 push	 0
  0003a	50		 push	 eax
  0003b	e8 00 00 00 00	 call	 ?PyTuple_GetString@@YA_NPAU_object@@HPAPAD@Z ; PyTuple_GetString
  00040	83 c4 0c	 add	 esp, 12			; 0000000cH
  00043	84 c0		 test	 al, al
  00045	75 0f		 jne	 SHORT $LN5@chatGetLin

; 398  : 		return Py_BuildException();

  00047	6a 00		 push	 0
  00049	e8 00 00 00 00	 call	 ?Py_BuildException@@YAPAU_object@@PBDZZ ; Py_BuildException
  0004e	83 c4 04	 add	 esp, 4
  00051	e9 5d 07 00 00	 jmp	 $LN1@chatGetLin
$LN5@chatGetLin:
; File C:\Program Files (x86)\Microsoft Visual Studio\2019\Community\VC\Tools\MSVC\14.28.29333\include\xstring

; 389  :         return _CSTD strlen(reinterpret_cast<const char*>(_First));

  00056	8b 95 9c fa ff
	ff		 mov	 edx, DWORD PTR _szHyperlink$[ebp]
  0005c	8b ca		 mov	 ecx, edx

; 4377 :         _Mypair._Myval2._Mysize = 0;

  0005e	c7 85 d0 fa ff
	ff 00 00 00 00	 mov	 DWORD PTR _stHyperlink$[ebp+16], 0

; 4378 :         _Mypair._Myval2._Myres  = _BUF_SIZE - 1;

  00068	c7 85 d4 fa ff
	ff 0f 00 00 00	 mov	 DWORD PTR _stHyperlink$[ebp+20], 15 ; 0000000fH

; 4379 :         // the _Traits::assign is last so the codegen doesn't think the char write can alias this
; 4380 :         _Traits::assign(_Mypair._Myval2._Bx._Buf[0], _Elem());

  00072	c6 85 c0 fa ff
	ff 00		 mov	 BYTE PTR _stHyperlink$[ebp], 0

; 389  :         return _CSTD strlen(reinterpret_cast<const char*>(_First));

  00079	8d 71 01	 lea	 esi, DWORD PTR [ecx+1]
  0007c	0f 1f 40 00	 npad	 4
$LL356@chatGetLin:
  00080	8a 01		 mov	 al, BYTE PTR [ecx]
  00082	41		 inc	 ecx
  00083	84 c0		 test	 al, al
  00085	75 f9		 jne	 SHORT $LL356@chatGetLin
  00087	2b ce		 sub	 ecx, esi

; 3062 :         return assign(_Ptr, _Convert_size<size_type>(_Traits::length(_Ptr)));

  00089	51		 push	 ecx
  0008a	52		 push	 edx
  0008b	8d 8d c0 fa ff
	ff		 lea	 ecx, DWORD PTR _stHyperlink$[ebp]
  00091	e8 00 00 00 00	 call	 ?assign@?$basic_string@DU?$char_traits@D@std@@V?$allocator@D@2@@std@@QAEAAV12@QBDI@Z ; std::basic_string<char,std::char_traits<char>,std::allocator<char> >::assign
; File D:\Metin2 Server Files\mainline\SRC_2014\Metin2Client\UserInterface\PythonChatModule.cpp

; 400  : 	std::string stHyperlink(szHyperlink);

  00096	c7 45 fc 00 00
	00 00		 mov	 DWORD PTR __$EHRec$[ebp+8], 0
; File C:\Program Files (x86)\Microsoft Visual Studio\2019\Community\VC\Tools\MSVC\14.28.29333\include\vector

; 375  :     _Vector_val() noexcept : _Myfirst(), _Mylast(), _Myend() {}

  0009d	c7 85 a8 fa ff
	ff 00 00 00 00	 mov	 DWORD PTR _results$[ebp], 0
  000a7	c7 85 ac fa ff
	ff 00 00 00 00	 mov	 DWORD PTR _results$[ebp+4], 0
  000b1	c7 85 b0 fa ff
	ff 00 00 00 00	 mov	 DWORD PTR _results$[ebp+8], 0
; File C:\Program Files (x86)\Microsoft Visual Studio\2019\Community\VC\Tools\MSVC\14.28.29333\include\xstring

; 4378 :         _Mypair._Myval2._Myres  = _BUF_SIZE - 1;

  000bb	c7 85 ec fa ff
	ff 0f 00 00 00	 mov	 DWORD PTR $T4[ebp+20], 15 ; 0000000fH

; 3046 :             _Mypair._Myval2._Mysize = _Count;

  000c5	c7 85 e8 fa ff
	ff 01 00 00 00	 mov	 DWORD PTR $T4[ebp+16], 1

; 119  :         _CSTD memmove(_First1, _First2, _Count * sizeof(_Elem));

  000cf	66 c7 85 d8 fa
	ff ff 3a 00	 mov	 WORD PTR $T4[ebp], 58	; 0000003aH
; File D:\Metin2 Server Files\mainline\SRC_2014\Metin2Client\UserInterface\PythonChatModule.cpp

; 403  : 	split_string(stHyperlink, ":", results, false);

  000d8	6a 00		 push	 0
  000da	8d 85 a8 fa ff
	ff		 lea	 eax, DWORD PTR _results$[ebp]
  000e0	c6 45 fc 02	 mov	 BYTE PTR __$EHRec$[ebp+8], 2
  000e4	50		 push	 eax
  000e5	8d 85 d8 fa ff
	ff		 lea	 eax, DWORD PTR $T4[ebp]
  000eb	50		 push	 eax
  000ec	8d 85 c0 fa ff
	ff		 lea	 eax, DWORD PTR _stHyperlink$[ebp]
  000f2	50		 push	 eax
  000f3	e8 00 00 00 00	 call	 ?split_string@@YAHABV?$basic_string@DU?$char_traits@D@std@@V?$allocator@D@2@@std@@0AAV?$vector@V?$basic_string@DU?$char_traits@D@std@@V?$allocator@D@2@@std@@V?$allocator@V?$basic_string@DU?$char_traits@D@std@@V?$allocator@D@2@@std@@@2@@2@_N@Z ; split_string
; File C:\Program Files (x86)\Microsoft Visual Studio\2019\Community\VC\Tools\MSVC\14.28.29333\include\xstring

; 2227 :         return _BUF_SIZE <= _Myres;

  000f8	8b 85 ec fa ff
	ff		 mov	 eax, DWORD PTR $T4[ebp+20]
; File D:\Metin2 Server Files\mainline\SRC_2014\Metin2Client\UserInterface\PythonChatModule.cpp

; 403  : 	split_string(stHyperlink, ":", results, false);

  000fe	83 c4 10	 add	 esp, 16			; 00000010H
  00101	c6 45 fc 01	 mov	 BYTE PTR __$EHRec$[ebp+8], 1
; File C:\Program Files (x86)\Microsoft Visual Studio\2019\Community\VC\Tools\MSVC\14.28.29333\include\xstring

; 2227 :         return _BUF_SIZE <= _Myres;

  00105	83 f8 10	 cmp	 eax, 16			; 00000010H

; 4385 :         if (_Mypair._Myval2._Large_string_engaged()) {

  00108	72 10		 jb	 SHORT $LN91@chatGetLin

; 4386 :             const pointer _Ptr = _Mypair._Myval2._Bx._Ptr;
; 4387 :             auto& _Al          = _Getal();
; 4388 :             _Destroy_in_place(_Mypair._Myval2._Bx._Ptr);
; 4389 :             _Al.deallocate(_Ptr, _Mypair._Myval2._Myres + 1);

  0010a	40		 inc	 eax
; File C:\Program Files (x86)\Microsoft Visual Studio\2019\Community\VC\Tools\MSVC\14.28.29333\include\xmemory

; 810  :         _Deallocate<_New_alignof<_Ty>>(_Ptr, sizeof(_Ty) * _Count);

  0010b	50		 push	 eax
  0010c	ff b5 d8 fa ff
	ff		 push	 DWORD PTR $T4[ebp]
  00112	e8 00 00 00 00	 call	 ??$_Deallocate@$07$0A@@std@@YAXPAXI@Z ; std::_Deallocate<8,0>
  00117	83 c4 08	 add	 esp, 8
$LN91@chatGetLin:
; File C:\Program Files (x86)\Microsoft Visual Studio\2019\Community\VC\Tools\MSVC\14.28.29333\include\xstring

; 2218 :         const value_type* _Result = _Bx._Buf;

  0011a	8b bd a8 fa ff
	ff		 mov	 edi, DWORD PTR _results$[ebp]
  00120	8b cf		 mov	 ecx, edi

; 2227 :         return _BUF_SIZE <= _Myres;

  00122	83 7f 14 10	 cmp	 DWORD PTR [edi+20], 16	; 00000010H

; 2219 :         if (_Large_string_engaged()) {

  00126	72 02		 jb	 SHORT $LN104@chatGetLin

; 2220 :             _Result = _Unfancy(_Bx._Ptr);

  00128	8b 0f		 mov	 ecx, DWORD PTR [edi]
$LN104@chatGetLin:

; 4235 :         return _Traits_compare<_Traits>(_Mypair._Myval2._Myptr(), _Mypair._Myval2._Mysize, _Ptr, _Traits::length(_Ptr));

  0012a	8b 5f 10	 mov	 ebx, DWORD PTR [edi+16]
; File C:\Program Files (x86)\Microsoft Visual Studio\2019\Community\VC\Tools\MSVC\14.28.29333\include\utility

; 68   :     return _Right < _Left ? _Right : _Left;

  0012d	b8 04 00 00 00	 mov	 eax, 4
  00132	3b d8		 cmp	 ebx, eax
  00134	8b d3		 mov	 edx, ebx
; File C:\Program Files (x86)\Microsoft Visual Studio\2019\Community\VC\Tools\MSVC\14.28.29333\include\xstring

; 369  :         return _CSTD memcmp(_First1, _First2, _Count);

  00136	be 00 00 00 00	 mov	 esi, OFFSET ??_C@_04NHONDGDE@item@
; File C:\Program Files (x86)\Microsoft Visual Studio\2019\Community\VC\Tools\MSVC\14.28.29333\include\utility

; 68   :     return _Right < _Left ? _Right : _Left;

  0013b	0f 47 d0	 cmova	 edx, eax
; File C:\Program Files (x86)\Microsoft Visual Studio\2019\Community\VC\Tools\MSVC\14.28.29333\include\xstring

; 369  :         return _CSTD memcmp(_First1, _First2, _Count);

  0013e	2b d0		 sub	 edx, eax
  00140	72 11		 jb	 SHORT $LN359@chatGetLin
$LL360@chatGetLin:
  00142	8b 01		 mov	 eax, DWORD PTR [ecx]
  00144	3b 06		 cmp	 eax, DWORD PTR [esi]
  00146	75 10		 jne	 SHORT $LN358@chatGetLin
  00148	83 c1 04	 add	 ecx, 4
  0014b	83 c6 04	 add	 esi, 4
  0014e	83 ea 04	 sub	 edx, 4
  00151	73 ef		 jae	 SHORT $LL360@chatGetLin
$LN359@chatGetLin:
  00153	83 fa fc	 cmp	 edx, -4			; fffffffcH
  00156	74 34		 je	 SHORT $LN357@chatGetLin
$LN358@chatGetLin:
  00158	8a 01		 mov	 al, BYTE PTR [ecx]
  0015a	3a 06		 cmp	 al, BYTE PTR [esi]
  0015c	75 27		 jne	 SHORT $LN361@chatGetLin
  0015e	83 fa fd	 cmp	 edx, -3			; fffffffdH
  00161	74 29		 je	 SHORT $LN357@chatGetLin
  00163	8a 41 01	 mov	 al, BYTE PTR [ecx+1]
  00166	3a 46 01	 cmp	 al, BYTE PTR [esi+1]
  00169	75 1a		 jne	 SHORT $LN361@chatGetLin
  0016b	83 fa fe	 cmp	 edx, -2			; fffffffeH
  0016e	74 1c		 je	 SHORT $LN357@chatGetLin
  00170	8a 41 02	 mov	 al, BYTE PTR [ecx+2]
  00173	3a 46 02	 cmp	 al, BYTE PTR [esi+2]
  00176	75 0d		 jne	 SHORT $LN361@chatGetLin
  00178	83 fa ff	 cmp	 edx, -1
  0017b	74 0f		 je	 SHORT $LN357@chatGetLin
  0017d	8a 41 03	 mov	 al, BYTE PTR [ecx+3]
  00180	3a 46 03	 cmp	 al, BYTE PTR [esi+3]
  00183	74 07		 je	 SHORT $LN357@chatGetLin
$LN361@chatGetLin:
  00185	1b c0		 sbb	 eax, eax
  00187	83 c8 01	 or	 eax, 1
  0018a	eb 02		 jmp	 SHORT $LN362@chatGetLin
$LN357@chatGetLin:
  0018c	33 c0		 xor	 eax, eax
$LN362@chatGetLin:

; 570  :     if (_Ans != 0) {

  0018e	85 c0		 test	 eax, eax
  00190	0f 85 81 05 00
	00		 jne	 $LN8@chatGetLin

; 571  :         return _Ans;
; 572  :     }
; 573  : 
; 574  :     if (_Left_size < _Right_size) {

  00196	83 fb 04	 cmp	 ebx, 4
  00199	0f 82 78 05 00
	00		 jb	 $LN8@chatGetLin

; 575  :         return -1;
; 576  :     }
; 577  : 
; 578  :     if (_Left_size > _Right_size) {

  0019f	0f 87 72 05 00
	00		 ja	 $LN8@chatGetLin
; File C:\Program Files (x86)\Microsoft Visual Studio\2019\Community\VC\Tools\MSVC\14.28.29333\include\vector

; 1484 :         return static_cast<size_type>(_My_data._Mylast - _My_data._Myfirst);

  001a5	8b 8d ac fa ff
	ff		 mov	 ecx, DWORD PTR _results$[ebp+4]
  001ab	b8 ab aa aa 2a	 mov	 eax, 715827883		; 2aaaaaabH
  001b0	2b cf		 sub	 ecx, edi
  001b2	f7 e9		 imul	 ecx
  001b4	c1 fa 02	 sar	 edx, 2
  001b7	8b c2		 mov	 eax, edx
  001b9	c1 e8 1f	 shr	 eax, 31			; 0000001fH
  001bc	03 c2		 add	 eax, edx
; File D:\Metin2 Server Files\mainline\SRC_2014\Metin2Client\UserInterface\PythonChatModule.cpp

; 408  : 		if (results.size() < 6)

  001be	83 f8 06	 cmp	 eax, 6
  001c1	0f 82 50 05 00
	00		 jb	 $LN8@chatGetLin
; File C:\Program Files (x86)\Microsoft Visual Studio\2019\Community\VC\Tools\MSVC\14.28.29333\include\vector

; 1504 :         return _My_data._Myfirst[_Pos];

  001c7	83 c7 18	 add	 edi, 24			; 00000018H
; File D:\Metin2 Server Files\mainline\SRC_2014\Metin2Client\UserInterface\PythonChatModule.cpp

; 411  : 		CItemData * pItemData = NULL;

  001ca	c7 85 a0 fa ff
	ff 00 00 00 00	 mov	 DWORD PTR _pItemData$2[ebp], 0
; File C:\Program Files (x86)\Microsoft Visual Studio\2019\Community\VC\Tools\MSVC\14.28.29333\include\xstring

; 2227 :         return _BUF_SIZE <= _Myres;

  001d4	83 7f 14 10	 cmp	 DWORD PTR [edi+20], 16	; 00000010H

; 2219 :         if (_Large_string_engaged()) {

  001d8	72 02		 jb	 SHORT $LN143@chatGetLin

; 2220 :             _Result = _Unfancy(_Bx._Ptr);

  001da	8b 3f		 mov	 edi, DWORD PTR [edi]
$LN143@chatGetLin:
; File D:\Metin2 Server Files\mainline\SRC_2014\Metin2Client\eterBase\Utils.h

; 193  :     int x = 0, y = 1;

  001dc	33 c9		 xor	 ecx, ecx

; 194  :     s += strlen(s);

  001de	8b d7		 mov	 edx, edi
  001e0	8d 71 01	 lea	 esi, DWORD PTR [ecx+1]
  001e3	8d 5a 01	 lea	 ebx, DWORD PTR [edx+1]
$LL363@chatGetLin:
  001e6	8a 02		 mov	 al, BYTE PTR [edx]
  001e8	42		 inc	 edx
  001e9	84 c0		 test	 al, al
  001eb	75 f9		 jne	 SHORT $LL363@chatGetLin
  001ed	2b d3		 sub	 edx, ebx

; 195  : 
; 196  :     while (t <= --s)

  001ef	4a		 dec	 edx
  001f0	03 d7		 add	 edx, edi
  001f2	3b fa		 cmp	 edi, edx
  001f4	77 46		 ja	 SHORT $LN147@chatGetLin
$LL148@chatGetLin:

; 197  :     {
; 198  : 		if ('0' <= *s && *s <= '9')

  001f6	8b d9		 mov	 ebx, ecx
  001f8	8a 0a		 mov	 cl, BYTE PTR [edx]
  001fa	8a c1		 mov	 al, cl
  001fc	2c 30		 sub	 al, 48			; 00000030H
  001fe	3c 09		 cmp	 al, 9
  00200	77 08		 ja	 SHORT $LN150@chatGetLin

; 199  :             x += y * (*s - '0');

  00202	0f be c1	 movsx	 eax, cl
  00205	83 e8 30	 sub	 eax, 48			; 00000030H
  00208	eb 1e		 jmp	 SHORT $LN155@chatGetLin
$LN150@chatGetLin:

; 200  :         else if ('a' <= *s && *s <= 'f')

  0020a	8a c1		 mov	 al, cl
  0020c	2c 61		 sub	 al, 97			; 00000061H
  0020e	3c 05		 cmp	 al, 5
  00210	77 08		 ja	 SHORT $LN152@chatGetLin

; 201  :             x += y * (*s - 'a' + 10);

  00212	0f be c1	 movsx	 eax, cl
  00215	83 e8 57	 sub	 eax, 87			; 00000057H
  00218	eb 0e		 jmp	 SHORT $LN155@chatGetLin
$LN152@chatGetLin:

; 202  :         else if ('A' <= *s && *s <= 'F')

  0021a	8a c1		 mov	 al, cl
  0021c	2c 41		 sub	 al, 65			; 00000041H
  0021e	3c 05		 cmp	 al, 5
  00220	77 17		 ja	 SHORT $LN154@chatGetLin

; 203  :             x += y * (10 + *s - 'A');

  00222	0f be c1	 movsx	 eax, cl
  00225	83 e8 37	 sub	 eax, 55			; 00000037H
$LN155@chatGetLin:

; 206  :         y <<= 4;

  00228	8b ce		 mov	 ecx, esi
  0022a	4a		 dec	 edx
  0022b	0f af c8	 imul	 ecx, eax
  0022e	c1 e6 04	 shl	 esi, 4
  00231	03 cb		 add	 ecx, ebx
  00233	3b fa		 cmp	 edi, edx
  00235	76 bf		 jbe	 SHORT $LL148@chatGetLin
; File D:\Metin2 Server Files\mainline\SRC_2014\Metin2Client\UserInterface\PythonChatModule.cpp

; 429  : 				for (int i = 6; i < results.size(); i += 2)

  00237	eb 03		 jmp	 SHORT $LN147@chatGetLin
$LN154@chatGetLin:
; File D:\Metin2 Server Files\mainline\SRC_2014\Metin2Client\eterBase\Utils.h

; 205  :             return -1; /* invalid input! */

  00239	83 c9 ff	 or	 ecx, -1
$LN147@chatGetLin:
; File D:\Metin2 Server Files\mainline\SRC_2014\Metin2Client\UserInterface\PythonChatModule.cpp

; 413  : 		if (CItemManager::Instance().GetItemDataPointer(htoi(results[1].c_str()), &pItemData))

  0023c	8d 85 a0 fa ff
	ff		 lea	 eax, DWORD PTR _pItemData$2[ebp]
  00242	50		 push	 eax
  00243	51		 push	 ecx
  00244	8b 0d 00 00 00
	00		 mov	 ecx, DWORD PTR ?ms_singleton@?$CSingleton@VCItemManager@@@@0PAVCItemManager@@A ; CSingleton<CItemManager>::ms_singleton
  0024a	e8 00 00 00 00	 call	 ?GetItemDataPointer@CItemManager@@QAEHKPAPAVCItemData@@@Z ; CItemManager::GetItemDataPointer
  0024f	85 c0		 test	 eax, eax
  00251	0f 84 c0 04 00
	00		 je	 $LN8@chatGetLin

; 415  : 			char buf[1024] = { 0 };

  00257	68 00 04 00 00	 push	 1024			; 00000400H
  0025c	8d 85 f0 fa ff
	ff		 lea	 eax, DWORD PTR _buf$5[ebp]
  00262	6a 00		 push	 0
  00264	50		 push	 eax
  00265	e8 00 00 00 00	 call	 _memset
; File C:\Program Files (x86)\Microsoft Visual Studio\2019\Community\VC\Tools\MSVC\14.28.29333\include\vector

; 1504 :         return _My_data._Myfirst[_Pos];

  0026a	8b bd a8 fa ff
	ff		 mov	 edi, DWORD PTR _results$[ebp]
; File D:\Metin2 Server Files\mainline\SRC_2014\Metin2Client\UserInterface\PythonChatModule.cpp

; 415  : 			char buf[1024] = { 0 };

  00270	83 c4 0c	 add	 esp, 12			; 0000000cH
; File C:\Program Files (x86)\Microsoft Visual Studio\2019\Community\VC\Tools\MSVC\14.28.29333\include\vector

; 1504 :         return _My_data._Myfirst[_Pos];

  00273	83 c7 78	 add	 edi, 120		; 00000078H
; File C:\Program Files (x86)\Microsoft Visual Studio\2019\Community\VC\Tools\MSVC\14.28.29333\include\xstring

; 2227 :         return _BUF_SIZE <= _Myres;

  00276	83 7f 14 10	 cmp	 DWORD PTR [edi+20], 16	; 00000010H

; 2219 :         if (_Large_string_engaged()) {

  0027a	72 02		 jb	 SHORT $LN162@chatGetLin

; 2220 :             _Result = _Unfancy(_Bx._Ptr);

  0027c	8b 3f		 mov	 edi, DWORD PTR [edi]
$LN162@chatGetLin:
; File D:\Metin2 Server Files\mainline\SRC_2014\Metin2Client\eterBase\Utils.h

; 193  :     int x = 0, y = 1;

  0027e	33 db		 xor	 ebx, ebx

; 194  :     s += strlen(s);

  00280	8b cf		 mov	 ecx, edi
  00282	89 9d a4 fa ff
	ff		 mov	 DWORD PTR $T3[ebp], ebx
  00288	8d 73 01	 lea	 esi, DWORD PTR [ebx+1]
  0028b	8d 51 01	 lea	 edx, DWORD PTR [ecx+1]
  0028e	66 90		 npad	 2
$LL364@chatGetLin:
  00290	8a 01		 mov	 al, BYTE PTR [ecx]
  00292	41		 inc	 ecx
  00293	84 c0		 test	 al, al
  00295	75 f9		 jne	 SHORT $LL364@chatGetLin
  00297	2b ca		 sub	 ecx, edx

; 195  : 
; 196  :     while (t <= --s)

  00299	8d 57 ff	 lea	 edx, DWORD PTR [edi-1]
  0029c	03 d1		 add	 edx, ecx
  0029e	3b fa		 cmp	 edi, edx
  002a0	77 5b		 ja	 SHORT $LN166@chatGetLin
$LL167@chatGetLin:

; 197  :     {
; 198  : 		if ('0' <= *s && *s <= '9')

  002a2	8a 0a		 mov	 cl, BYTE PTR [edx]
  002a4	8a c1		 mov	 al, cl
  002a6	89 9d bc fa ff
	ff		 mov	 DWORD PTR tv2356[ebp], ebx
  002ac	2c 30		 sub	 al, 48			; 00000030H
  002ae	3c 09		 cmp	 al, 9
  002b0	77 08		 ja	 SHORT $LN169@chatGetLin

; 199  :             x += y * (*s - '0');

  002b2	0f be c1	 movsx	 eax, cl
  002b5	83 e8 30	 sub	 eax, 48			; 00000030H
  002b8	eb 1e		 jmp	 SHORT $LN174@chatGetLin
$LN169@chatGetLin:

; 200  :         else if ('a' <= *s && *s <= 'f')

  002ba	8a c1		 mov	 al, cl
  002bc	2c 61		 sub	 al, 97			; 00000061H
  002be	3c 05		 cmp	 al, 5
  002c0	77 08		 ja	 SHORT $LN171@chatGetLin

; 201  :             x += y * (*s - 'a' + 10);

  002c2	0f be c1	 movsx	 eax, cl
  002c5	83 e8 57	 sub	 eax, 87			; 00000057H
  002c8	eb 0e		 jmp	 SHORT $LN174@chatGetLin
$LN171@chatGetLin:

; 202  :         else if ('A' <= *s && *s <= 'F')

  002ca	8a c1		 mov	 al, cl
  002cc	2c 41		 sub	 al, 65			; 00000041H
  002ce	3c 05		 cmp	 al, 5
  002d0	77 21		 ja	 SHORT $LN173@chatGetLin

; 203  :             x += y * (10 + *s - 'A');

  002d2	0f be c1	 movsx	 eax, cl
  002d5	83 e8 37	 sub	 eax, 55			; 00000037H
$LN174@chatGetLin:

; 206  :         y <<= 4;

  002d8	8b de		 mov	 ebx, esi
  002da	4a		 dec	 edx
  002db	0f af d8	 imul	 ebx, eax
  002de	c1 e6 04	 shl	 esi, 4
  002e1	03 9d bc fa ff
	ff		 add	 ebx, DWORD PTR tv2356[ebp]
  002e7	3b fa		 cmp	 edi, edx
  002e9	76 b7		 jbe	 SHORT $LL167@chatGetLin
; File D:\Metin2 Server Files\mainline\SRC_2014\Metin2Client\UserInterface\PythonChatModule.cpp

; 429  : 				for (int i = 6; i < results.size(); i += 2)

  002eb	89 9d a4 fa ff
	ff		 mov	 DWORD PTR $T3[ebp], ebx
  002f1	eb 0a		 jmp	 SHORT $LN166@chatGetLin
$LN173@chatGetLin:
; File D:\Metin2 Server Files\mainline\SRC_2014\Metin2Client\eterBase\Utils.h

; 205  :             return -1; /* invalid input! */

  002f3	c7 85 a4 fa ff
	ff ff ff ff ff	 mov	 DWORD PTR $T3[ebp], -1
$LN166@chatGetLin:
; File C:\Program Files (x86)\Microsoft Visual Studio\2019\Community\VC\Tools\MSVC\14.28.29333\include\vector

; 1504 :         return _My_data._Myfirst[_Pos];

  002fd	8b b5 a8 fa ff
	ff		 mov	 esi, DWORD PTR _results$[ebp]
  00303	83 c6 60	 add	 esi, 96			; 00000060H
; File C:\Program Files (x86)\Microsoft Visual Studio\2019\Community\VC\Tools\MSVC\14.28.29333\include\xstring

; 2227 :         return _BUF_SIZE <= _Myres;

  00306	83 7e 14 10	 cmp	 DWORD PTR [esi+20], 16	; 00000010H

; 2219 :         if (_Large_string_engaged()) {

  0030a	72 02		 jb	 SHORT $LN181@chatGetLin

; 2220 :             _Result = _Unfancy(_Bx._Ptr);

  0030c	8b 36		 mov	 esi, DWORD PTR [esi]
$LN181@chatGetLin:
; File D:\Metin2 Server Files\mainline\SRC_2014\Metin2Client\eterBase\Utils.h

; 193  :     int x = 0, y = 1;

  0030e	33 db		 xor	 ebx, ebx

; 194  :     s += strlen(s);

  00310	8b ce		 mov	 ecx, esi
  00312	8d 7b 01	 lea	 edi, DWORD PTR [ebx+1]
  00315	8d 51 01	 lea	 edx, DWORD PTR [ecx+1]
$LL365@chatGetLin:
  00318	8a 01		 mov	 al, BYTE PTR [ecx]
  0031a	41		 inc	 ecx
  0031b	84 c0		 test	 al, al
  0031d	75 f9		 jne	 SHORT $LL365@chatGetLin
  0031f	2b ca		 sub	 ecx, edx

; 195  : 
; 196  :     while (t <= --s)

  00321	8d 56 ff	 lea	 edx, DWORD PTR [esi-1]
  00324	03 d1		 add	 edx, ecx
  00326	3b f2		 cmp	 esi, edx
  00328	77 54		 ja	 SHORT $LN185@chatGetLin
  0032a	66 0f 1f 44 00
	00		 npad	 6
$LL186@chatGetLin:

; 197  :     {
; 198  : 		if ('0' <= *s && *s <= '9')

  00330	8a 0a		 mov	 cl, BYTE PTR [edx]
  00332	8a c1		 mov	 al, cl
  00334	89 9d bc fa ff
	ff		 mov	 DWORD PTR tv2347[ebp], ebx
  0033a	2c 30		 sub	 al, 48			; 00000030H
  0033c	3c 09		 cmp	 al, 9
  0033e	77 08		 ja	 SHORT $LN188@chatGetLin

; 199  :             x += y * (*s - '0');

  00340	0f be c1	 movsx	 eax, cl
  00343	83 e8 30	 sub	 eax, 48			; 00000030H
  00346	eb 1e		 jmp	 SHORT $LN193@chatGetLin
$LN188@chatGetLin:

; 200  :         else if ('a' <= *s && *s <= 'f')

  00348	8a c1		 mov	 al, cl
  0034a	2c 61		 sub	 al, 97			; 00000061H
  0034c	3c 05		 cmp	 al, 5
  0034e	77 08		 ja	 SHORT $LN190@chatGetLin

; 201  :             x += y * (*s - 'a' + 10);

  00350	0f be c1	 movsx	 eax, cl
  00353	83 e8 57	 sub	 eax, 87			; 00000057H
  00356	eb 0e		 jmp	 SHORT $LN193@chatGetLin
$LN190@chatGetLin:

; 202  :         else if ('A' <= *s && *s <= 'F')

  00358	8a c1		 mov	 al, cl
  0035a	2c 41		 sub	 al, 65			; 00000041H
  0035c	3c 05		 cmp	 al, 5
  0035e	77 1b		 ja	 SHORT $LN192@chatGetLin

; 203  :             x += y * (10 + *s - 'A');

  00360	0f be c1	 movsx	 eax, cl
  00363	83 e8 37	 sub	 eax, 55			; 00000037H
$LN193@chatGetLin:

; 206  :         y <<= 4;

  00366	8b df		 mov	 ebx, edi
  00368	4a		 dec	 edx
  00369	0f af d8	 imul	 ebx, eax
  0036c	c1 e7 04	 shl	 edi, 4
  0036f	03 9d bc fa ff
	ff		 add	 ebx, DWORD PTR tv2347[ebp]
  00375	3b f2		 cmp	 esi, edx
  00377	76 b7		 jbe	 SHORT $LL186@chatGetLin
; File D:\Metin2 Server Files\mainline\SRC_2014\Metin2Client\UserInterface\PythonChatModule.cpp

; 429  : 				for (int i = 6; i < results.size(); i += 2)

  00379	eb 03		 jmp	 SHORT $LN185@chatGetLin
$LN192@chatGetLin:
; File D:\Metin2 Server Files\mainline\SRC_2014\Metin2Client\eterBase\Utils.h

; 205  :             return -1; /* invalid input! */

  0037b	83 cb ff	 or	 ebx, -1
$LN185@chatGetLin:
; File C:\Program Files (x86)\Microsoft Visual Studio\2019\Community\VC\Tools\MSVC\14.28.29333\include\vector

; 1504 :         return _My_data._Myfirst[_Pos];

  0037e	8b b5 a8 fa ff
	ff		 mov	 esi, DWORD PTR _results$[ebp]
  00384	83 c6 48	 add	 esi, 72			; 00000048H
; File C:\Program Files (x86)\Microsoft Visual Studio\2019\Community\VC\Tools\MSVC\14.28.29333\include\xstring

; 2227 :         return _BUF_SIZE <= _Myres;

  00387	83 7e 14 10	 cmp	 DWORD PTR [esi+20], 16	; 00000010H

; 2219 :         if (_Large_string_engaged()) {

  0038b	72 02		 jb	 SHORT $LN200@chatGetLin

; 2220 :             _Result = _Unfancy(_Bx._Ptr);

  0038d	8b 36		 mov	 esi, DWORD PTR [esi]
$LN200@chatGetLin:
; File D:\Metin2 Server Files\mainline\SRC_2014\Metin2Client\eterBase\Utils.h

; 194  :     s += strlen(s);

  0038f	8b d6		 mov	 edx, esi
  00391	33 c9		 xor	 ecx, ecx
  00393	8d 42 01	 lea	 eax, DWORD PTR [edx+1]
  00396	8d 79 01	 lea	 edi, DWORD PTR [ecx+1]
  00399	89 85 bc fa ff
	ff		 mov	 DWORD PTR tv2328[ebp], eax
  0039f	90		 npad	 1
$LL366@chatGetLin:
  003a0	8a 02		 mov	 al, BYTE PTR [edx]
  003a2	42		 inc	 edx
  003a3	84 c0		 test	 al, al
  003a5	75 f9		 jne	 SHORT $LL366@chatGetLin
  003a7	2b 95 bc fa ff
	ff		 sub	 edx, DWORD PTR tv2328[ebp]

; 195  : 
; 196  :     while (t <= --s)

  003ad	4a		 dec	 edx
  003ae	03 d6		 add	 edx, esi
  003b0	3b f2		 cmp	 esi, edx
  003b2	77 4c		 ja	 SHORT $LN204@chatGetLin
$LL205@chatGetLin:

; 197  :     {
; 198  : 		if ('0' <= *s && *s <= '9')

  003b4	89 8d bc fa ff
	ff		 mov	 DWORD PTR tv2360[ebp], ecx
  003ba	8a 0a		 mov	 cl, BYTE PTR [edx]
  003bc	8a c1		 mov	 al, cl
  003be	2c 30		 sub	 al, 48			; 00000030H
  003c0	3c 09		 cmp	 al, 9
  003c2	77 08		 ja	 SHORT $LN207@chatGetLin

; 199  :             x += y * (*s - '0');

  003c4	0f be c9	 movsx	 ecx, cl
  003c7	83 e9 30	 sub	 ecx, 48			; 00000030H
  003ca	eb 1e		 jmp	 SHORT $LN212@chatGetLin
$LN207@chatGetLin:

; 200  :         else if ('a' <= *s && *s <= 'f')

  003cc	8a c1		 mov	 al, cl
  003ce	2c 61		 sub	 al, 97			; 00000061H
  003d0	3c 05		 cmp	 al, 5
  003d2	77 08		 ja	 SHORT $LN209@chatGetLin

; 201  :             x += y * (*s - 'a' + 10);

  003d4	0f be c9	 movsx	 ecx, cl
  003d7	83 e9 57	 sub	 ecx, 87			; 00000057H
  003da	eb 0e		 jmp	 SHORT $LN212@chatGetLin
$LN209@chatGetLin:

; 202  :         else if ('A' <= *s && *s <= 'F')

  003dc	8a c1		 mov	 al, cl
  003de	2c 41		 sub	 al, 65			; 00000041H
  003e0	3c 05		 cmp	 al, 5
  003e2	77 19		 ja	 SHORT $LN211@chatGetLin

; 203  :             x += y * (10 + *s - 'A');

  003e4	0f be c9	 movsx	 ecx, cl
  003e7	83 e9 37	 sub	 ecx, 55			; 00000037H
$LN212@chatGetLin:

; 206  :         y <<= 4;

  003ea	0f af cf	 imul	 ecx, edi
  003ed	4a		 dec	 edx
  003ee	c1 e7 04	 shl	 edi, 4
  003f1	03 8d bc fa ff
	ff		 add	 ecx, DWORD PTR tv2360[ebp]
  003f7	3b f2		 cmp	 esi, edx
  003f9	76 b9		 jbe	 SHORT $LL205@chatGetLin
; File D:\Metin2 Server Files\mainline\SRC_2014\Metin2Client\UserInterface\PythonChatModule.cpp

; 429  : 				for (int i = 6; i < results.size(); i += 2)

  003fb	eb 03		 jmp	 SHORT $LN204@chatGetLin
$LN211@chatGetLin:
; File D:\Metin2 Server Files\mainline\SRC_2014\Metin2Client\eterBase\Utils.h

; 205  :             return -1; /* invalid input! */

  003fd	83 c9 ff	 or	 ecx, -1
$LN204@chatGetLin:
; File C:\Program Files (x86)\Microsoft Visual Studio\2019\Community\VC\Tools\MSVC\14.28.29333\include\vector

; 1504 :         return _My_data._Myfirst[_Pos];

  00400	8b bd a8 fa ff
	ff		 mov	 edi, DWORD PTR _results$[ebp]
  00406	83 c7 30	 add	 edi, 48			; 00000030H
  00409	89 bd b8 fa ff
	ff		 mov	 DWORD PTR __Result$1$[ebp], edi
; File C:\Program Files (x86)\Microsoft Visual Studio\2019\Community\VC\Tools\MSVC\14.28.29333\include\xstring

; 2227 :         return _BUF_SIZE <= _Myres;

  0040f	83 7f 14 10	 cmp	 DWORD PTR [edi+20], 16	; 00000010H

; 2219 :         if (_Large_string_engaged()) {

  00413	72 08		 jb	 SHORT $LN219@chatGetLin

; 2220 :             _Result = _Unfancy(_Bx._Ptr);

  00415	8b 3f		 mov	 edi, DWORD PTR [edi]
  00417	89 bd b8 fa ff
	ff		 mov	 DWORD PTR __Result$1$[ebp], edi
$LN219@chatGetLin:
; File D:\Metin2 Server Files\mainline\SRC_2014\Metin2Client\eterBase\Utils.h

; 194  :     s += strlen(s);

  0041d	8b d7		 mov	 edx, edi
  0041f	c7 85 b4 fa ff
	ff 01 00 00 00	 mov	 DWORD PTR _y$1$[ebp], 1
  00429	33 f6		 xor	 esi, esi
  0042b	8d 42 01	 lea	 eax, DWORD PTR [edx+1]
  0042e	89 85 bc fa ff
	ff		 mov	 DWORD PTR tv2331[ebp], eax
$LL367@chatGetLin:
  00434	8a 02		 mov	 al, BYTE PTR [edx]
  00436	42		 inc	 edx
  00437	84 c0		 test	 al, al
  00439	75 f9		 jne	 SHORT $LL367@chatGetLin
  0043b	2b 95 bc fa ff
	ff		 sub	 edx, DWORD PTR tv2331[ebp]

; 195  : 
; 196  :     while (t <= --s)

  00441	4f		 dec	 edi
  00442	03 fa		 add	 edi, edx
  00444	39 bd b8 fa ff
	ff		 cmp	 DWORD PTR __Result$1$[ebp], edi
  0044a	77 62		 ja	 SHORT $LN223@chatGetLin
  0044c	0f 1f 40 00	 npad	 4
$LL224@chatGetLin:

; 197  :     {
; 198  : 		if ('0' <= *s && *s <= '9')

  00450	8a 17		 mov	 dl, BYTE PTR [edi]
  00452	8a c2		 mov	 al, dl
  00454	89 b5 bc fa ff
	ff		 mov	 DWORD PTR tv2366[ebp], esi
  0045a	2c 30		 sub	 al, 48			; 00000030H
  0045c	3c 09		 cmp	 al, 9
  0045e	77 08		 ja	 SHORT $LN226@chatGetLin

; 199  :             x += y * (*s - '0');

  00460	0f be c2	 movsx	 eax, dl
  00463	83 e8 30	 sub	 eax, 48			; 00000030H
  00466	eb 1e		 jmp	 SHORT $LN231@chatGetLin
$LN226@chatGetLin:

; 200  :         else if ('a' <= *s && *s <= 'f')

  00468	8a c2		 mov	 al, dl
  0046a	2c 61		 sub	 al, 97			; 00000061H
  0046c	3c 05		 cmp	 al, 5
  0046e	77 08		 ja	 SHORT $LN228@chatGetLin

; 201  :             x += y * (*s - 'a' + 10);

  00470	0f be c2	 movsx	 eax, dl
  00473	83 e8 57	 sub	 eax, 87			; 00000057H
  00476	eb 0e		 jmp	 SHORT $LN231@chatGetLin
$LN228@chatGetLin:

; 202  :         else if ('A' <= *s && *s <= 'F')

  00478	8a c2		 mov	 al, dl
  0047a	2c 41		 sub	 al, 65			; 00000041H
  0047c	3c 05		 cmp	 al, 5
  0047e	77 2b		 ja	 SHORT $LN230@chatGetLin

; 203  :             x += y * (10 + *s - 'A');

  00480	0f be c2	 movsx	 eax, dl
  00483	83 e8 37	 sub	 eax, 55			; 00000037H
$LN231@chatGetLin:

; 206  :         y <<= 4;

  00486	8b 95 b4 fa ff
	ff		 mov	 edx, DWORD PTR _y$1$[ebp]
  0048c	4f		 dec	 edi
  0048d	8b f2		 mov	 esi, edx
  0048f	c1 e2 04	 shl	 edx, 4
  00492	0f af f0	 imul	 esi, eax
  00495	89 95 b4 fa ff
	ff		 mov	 DWORD PTR _y$1$[ebp], edx
  0049b	03 b5 bc fa ff
	ff		 add	 esi, DWORD PTR tv2366[ebp]
  004a1	39 bd b8 fa ff
	ff		 cmp	 DWORD PTR __Result$1$[ebp], edi
  004a7	76 a7		 jbe	 SHORT $LL224@chatGetLin
; File D:\Metin2 Server Files\mainline\SRC_2014\Metin2Client\UserInterface\PythonChatModule.cpp

; 429  : 				for (int i = 6; i < results.size(); i += 2)

  004a9	eb 03		 jmp	 SHORT $LN223@chatGetLin
$LN230@chatGetLin:
; File D:\Metin2 Server Files\mainline\SRC_2014\Metin2Client\eterBase\Utils.h

; 205  :             return -1; /* invalid input! */

  004ab	83 ce ff	 or	 esi, -1
$LN223@chatGetLin:
; File C:\Program Files (x86)\Microsoft Visual Studio\2019\Community\VC\Tools\MSVC\14.28.29333\include\vector

; 1504 :         return _My_data._Myfirst[_Pos];

  004ae	8b 85 a8 fa ff
	ff		 mov	 eax, DWORD PTR _results$[ebp]
  004b4	83 c0 18	 add	 eax, 24			; 00000018H
  004b7	89 85 b4 fa ff
	ff		 mov	 DWORD PTR __Result$1$[ebp], eax
; File C:\Program Files (x86)\Microsoft Visual Studio\2019\Community\VC\Tools\MSVC\14.28.29333\include\xstring

; 2227 :         return _BUF_SIZE <= _Myres;

  004bd	83 78 14 10	 cmp	 DWORD PTR [eax+20], 16	; 00000010H

; 2219 :         if (_Large_string_engaged()) {

  004c1	72 08		 jb	 SHORT $LN238@chatGetLin

; 2220 :             _Result = _Unfancy(_Bx._Ptr);

  004c3	8b 00		 mov	 eax, DWORD PTR [eax]
  004c5	89 85 b4 fa ff
	ff		 mov	 DWORD PTR __Result$1$[ebp], eax
$LN238@chatGetLin:
; File D:\Metin2 Server Files\mainline\SRC_2014\Metin2Client\eterBase\Utils.h

; 194  :     s += strlen(s);

  004cb	8b f8		 mov	 edi, eax
  004cd	c7 85 b8 fa ff
	ff 01 00 00 00	 mov	 DWORD PTR _y$1$[ebp], 1
  004d7	33 d2		 xor	 edx, edx
  004d9	8d 47 01	 lea	 eax, DWORD PTR [edi+1]
  004dc	89 85 bc fa ff
	ff		 mov	 DWORD PTR tv2334[ebp], eax
$LL368@chatGetLin:
  004e2	8a 07		 mov	 al, BYTE PTR [edi]
  004e4	47		 inc	 edi
  004e5	84 c0		 test	 al, al
  004e7	75 f9		 jne	 SHORT $LL368@chatGetLin
  004e9	2b bd bc fa ff
	ff		 sub	 edi, DWORD PTR tv2334[ebp]

; 195  : 
; 196  :     while (t <= --s)

  004ef	4f		 dec	 edi
  004f0	03 bd b4 fa ff
	ff		 add	 edi, DWORD PTR __Result$1$[ebp]
  004f6	39 bd b4 fa ff
	ff		 cmp	 DWORD PTR __Result$1$[ebp], edi
  004fc	77 5c		 ja	 SHORT $LN242@chatGetLin
  004fe	66 90		 npad	 2
$LL243@chatGetLin:

; 197  :     {
; 198  : 		if ('0' <= *s && *s <= '9')

  00500	89 95 bc fa ff
	ff		 mov	 DWORD PTR tv2370[ebp], edx
  00506	8a 17		 mov	 dl, BYTE PTR [edi]
  00508	8a c2		 mov	 al, dl
  0050a	2c 30		 sub	 al, 48			; 00000030H
  0050c	3c 09		 cmp	 al, 9
  0050e	77 08		 ja	 SHORT $LN245@chatGetLin

; 199  :             x += y * (*s - '0');

  00510	0f be c2	 movsx	 eax, dl
  00513	83 e8 30	 sub	 eax, 48			; 00000030H
  00516	eb 1e		 jmp	 SHORT $LN250@chatGetLin
$LN245@chatGetLin:

; 200  :         else if ('a' <= *s && *s <= 'f')

  00518	8a c2		 mov	 al, dl
  0051a	2c 61		 sub	 al, 97			; 00000061H
  0051c	3c 05		 cmp	 al, 5
  0051e	77 08		 ja	 SHORT $LN247@chatGetLin

; 201  :             x += y * (*s - 'a' + 10);

  00520	0f be c2	 movsx	 eax, dl
  00523	83 e8 57	 sub	 eax, 87			; 00000057H
  00526	eb 0e		 jmp	 SHORT $LN250@chatGetLin
$LN247@chatGetLin:

; 202  :         else if ('A' <= *s && *s <= 'F')

  00528	8a c2		 mov	 al, dl
  0052a	2c 41		 sub	 al, 65			; 00000041H
  0052c	3c 05		 cmp	 al, 5
  0052e	77 27		 ja	 SHORT $LN249@chatGetLin

; 203  :             x += y * (10 + *s - 'A');

  00530	0f be c2	 movsx	 eax, dl
  00533	83 e8 37	 sub	 eax, 55			; 00000037H
$LN250@chatGetLin:

; 206  :         y <<= 4;

  00536	8b 95 b8 fa ff
	ff		 mov	 edx, DWORD PTR _y$1$[ebp]
  0053c	4f		 dec	 edi
  0053d	c1 a5 b8 fa ff
	ff 04		 shl	 DWORD PTR _y$1$[ebp], 4
  00544	0f af d0	 imul	 edx, eax
  00547	03 95 bc fa ff
	ff		 add	 edx, DWORD PTR tv2370[ebp]
  0054d	39 bd b4 fa ff
	ff		 cmp	 DWORD PTR __Result$1$[ebp], edi
  00553	76 ab		 jbe	 SHORT $LL243@chatGetLin
; File D:\Metin2 Server Files\mainline\SRC_2014\Metin2Client\UserInterface\PythonChatModule.cpp

; 429  : 				for (int i = 6; i < results.size(); i += 2)

  00555	eb 03		 jmp	 SHORT $LN242@chatGetLin
$LN249@chatGetLin:
; File D:\Metin2 Server Files\mainline\SRC_2014\Metin2Client\eterBase\Utils.h

; 205  :             return -1; /* invalid input! */

  00557	83 ca ff	 or	 edx, -1
$LN242@chatGetLin:
; File D:\Metin2 Server Files\mainline\SRC_2014\Metin2Client\UserInterface\PythonChatModule.cpp

; 420  : 			len = snprintf(itemlink, sizeof(itemlink), "item:%x:%x:%x:%x:%x", 

  0055a	ff b5 a4 fa ff
	ff		 push	 DWORD PTR $T3[ebp]
  00560	8d 85 f0 fe ff
	ff		 lea	 eax, DWORD PTR _itemlink$6[ebp]
  00566	53		 push	 ebx
  00567	51		 push	 ecx
  00568	56		 push	 esi
  00569	52		 push	 edx
  0056a	68 00 00 00 00	 push	 OFFSET ??_C@_0BE@FGPADLIF@item?3?$CFx?3?$CFx?3?$CFx?3?$CFx?3?$CFx@
  0056f	68 00 01 00 00	 push	 256			; 00000100H
  00574	50		 push	 eax
  00575	e8 00 00 00 00	 call	 __snprintf
; File C:\Program Files (x86)\Microsoft Visual Studio\2019\Community\VC\Tools\MSVC\14.28.29333\include\vector

; 1484 :         return static_cast<size_type>(_My_data._Mylast - _My_data._Myfirst);

  0057a	8b 8d ac fa ff
	ff		 mov	 ecx, DWORD PTR _results$[ebp+4]
; File D:\Metin2 Server Files\mainline\SRC_2014\Metin2Client\UserInterface\PythonChatModule.cpp

; 420  : 			len = snprintf(itemlink, sizeof(itemlink), "item:%x:%x:%x:%x:%x", 

  00580	83 c4 20	 add	 esp, 32			; 00000020H
; File C:\Program Files (x86)\Microsoft Visual Studio\2019\Community\VC\Tools\MSVC\14.28.29333\include\vector

; 1484 :         return static_cast<size_type>(_My_data._Mylast - _My_data._Myfirst);

  00583	8b b5 a8 fa ff
	ff		 mov	 esi, DWORD PTR _results$[ebp]
  00589	2b ce		 sub	 ecx, esi
; File D:\Metin2 Server Files\mainline\SRC_2014\Metin2Client\UserInterface\PythonChatModule.cpp

; 420  : 			len = snprintf(itemlink, sizeof(itemlink), "item:%x:%x:%x:%x:%x", 

  0058b	89 85 b4 fa ff
	ff		 mov	 DWORD PTR _len$1$[ebp], eax
; File C:\Program Files (x86)\Microsoft Visual Studio\2019\Community\VC\Tools\MSVC\14.28.29333\include\vector

; 1484 :         return static_cast<size_type>(_My_data._Mylast - _My_data._Myfirst);

  00591	b8 ab aa aa 2a	 mov	 eax, 715827883		; 2aaaaaabH
  00596	f7 e9		 imul	 ecx
  00598	c1 fa 02	 sar	 edx, 2
  0059b	8b c2		 mov	 eax, edx
  0059d	c1 e8 1f	 shr	 eax, 31			; 0000001fH
  005a0	03 c2		 add	 eax, edx
; File D:\Metin2 Server Files\mainline\SRC_2014\Metin2Client\UserInterface\PythonChatModule.cpp

; 427  : 			if (results.size() >= 8)

  005a2	83 f8 08	 cmp	 eax, 8
  005a5	0f 82 2b 01 00
	00		 jb	 $LN10@chatGetLin
; File C:\Program Files (x86)\Microsoft Visual Studio\2019\Community\VC\Tools\MSVC\14.28.29333\include\vector

; 1484 :         return static_cast<size_type>(_My_data._Mylast - _My_data._Myfirst);

  005ab	bb 90 00 00 00	 mov	 ebx, 144		; 00000090H
; File D:\Metin2 Server Files\mainline\SRC_2014\Metin2Client\UserInterface\PythonChatModule.cpp

; 429  : 				for (int i = 6; i < results.size(); i += 2)

  005b0	c7 85 b8 fa ff
	ff 06 00 00 00	 mov	 DWORD PTR _i$1$[ebp], 6
; File C:\Program Files (x86)\Microsoft Visual Studio\2019\Community\VC\Tools\MSVC\14.28.29333\include\vector

; 1484 :         return static_cast<size_type>(_My_data._Mylast - _My_data._Myfirst);

  005ba	89 9d bc fa ff
	ff		 mov	 DWORD PTR tv2301[ebp], ebx
$LL4@chatGetLin:

; 1504 :         return _My_data._Myfirst[_Pos];

  005c0	8d 3c 1e	 lea	 edi, DWORD PTR [esi+ebx]
; File C:\Program Files (x86)\Microsoft Visual Studio\2019\Community\VC\Tools\MSVC\14.28.29333\include\xstring

; 2227 :         return _BUF_SIZE <= _Myres;

  005c3	83 7f 2c 10	 cmp	 DWORD PTR [edi+44], 16	; 00000010H
; File C:\Program Files (x86)\Microsoft Visual Studio\2019\Community\VC\Tools\MSVC\14.28.29333\include\vector

; 1504 :         return _My_data._Myfirst[_Pos];

  005c7	8d 47 18	 lea	 eax, DWORD PTR [edi+24]
  005ca	89 85 a4 fa ff
	ff		 mov	 DWORD PTR __Result$1$[ebp], eax
; File C:\Program Files (x86)\Microsoft Visual Studio\2019\Community\VC\Tools\MSVC\14.28.29333\include\xstring

; 2219 :         if (_Large_string_engaged()) {

  005d0	72 08		 jb	 SHORT $LN261@chatGetLin

; 2220 :             _Result = _Unfancy(_Bx._Ptr);

  005d2	8b 00		 mov	 eax, DWORD PTR [eax]
  005d4	89 85 a4 fa ff
	ff		 mov	 DWORD PTR __Result$1$[ebp], eax
$LN261@chatGetLin:

; 2227 :         return _BUF_SIZE <= _Myres;

  005da	83 7f 14 10	 cmp	 DWORD PTR [edi+20], 16	; 00000010H

; 2219 :         if (_Large_string_engaged()) {

  005de	72 02		 jb	 SHORT $LN270@chatGetLin

; 2220 :             _Result = _Unfancy(_Bx._Ptr);

  005e0	8b 3f		 mov	 edi, DWORD PTR [edi]
$LN270@chatGetLin:
; File D:\Metin2 Server Files\mainline\SRC_2014\Metin2Client\eterBase\Utils.h

; 193  :     int x = 0, y = 1;

  005e2	33 f6		 xor	 esi, esi

; 194  :     s += strlen(s);

  005e4	8b cf		 mov	 ecx, edi
  005e6	8d 5e 01	 lea	 ebx, DWORD PTR [esi+1]
  005e9	8d 51 01	 lea	 edx, DWORD PTR [ecx+1]
  005ec	0f 1f 40 00	 npad	 4
$LL369@chatGetLin:
  005f0	8a 01		 mov	 al, BYTE PTR [ecx]
  005f2	41		 inc	 ecx
  005f3	84 c0		 test	 al, al
  005f5	75 f9		 jne	 SHORT $LL369@chatGetLin
  005f7	2b ca		 sub	 ecx, edx

; 195  : 
; 196  :     while (t <= --s)

  005f9	8d 51 ff	 lea	 edx, DWORD PTR [ecx-1]
  005fc	03 d7		 add	 edx, edi
  005fe	3b fa		 cmp	 edi, edx
  00600	77 4e		 ja	 SHORT $LN274@chatGetLin
$LL275@chatGetLin:

; 197  :     {
; 198  : 		if ('0' <= *s && *s <= '9')

  00602	8a 0a		 mov	 cl, BYTE PTR [edx]
  00604	8a c1		 mov	 al, cl
  00606	89 b5 98 fa ff
	ff		 mov	 DWORD PTR tv2373[ebp], esi
  0060c	2c 30		 sub	 al, 48			; 00000030H
  0060e	3c 09		 cmp	 al, 9
  00610	77 08		 ja	 SHORT $LN277@chatGetLin

; 199  :             x += y * (*s - '0');

  00612	0f be c1	 movsx	 eax, cl
  00615	83 e8 30	 sub	 eax, 48			; 00000030H
  00618	eb 1e		 jmp	 SHORT $LN282@chatGetLin
$LN277@chatGetLin:

; 200  :         else if ('a' <= *s && *s <= 'f')

  0061a	8a c1		 mov	 al, cl
  0061c	2c 61		 sub	 al, 97			; 00000061H
  0061e	3c 05		 cmp	 al, 5
  00620	77 08		 ja	 SHORT $LN279@chatGetLin

; 201  :             x += y * (*s - 'a' + 10);

  00622	0f be c1	 movsx	 eax, cl
  00625	83 e8 57	 sub	 eax, 87			; 00000057H
  00628	eb 0e		 jmp	 SHORT $LN282@chatGetLin
$LN279@chatGetLin:

; 202  :         else if ('A' <= *s && *s <= 'F')

  0062a	8a c1		 mov	 al, cl
  0062c	2c 41		 sub	 al, 65			; 00000041H
  0062e	3c 05		 cmp	 al, 5
  00630	77 1b		 ja	 SHORT $LN281@chatGetLin

; 203  :             x += y * (10 + *s - 'A');

  00632	0f be c1	 movsx	 eax, cl
  00635	83 e8 37	 sub	 eax, 55			; 00000037H
$LN282@chatGetLin:

; 206  :         y <<= 4;

  00638	8b f3		 mov	 esi, ebx
  0063a	4a		 dec	 edx
  0063b	0f af f0	 imul	 esi, eax
  0063e	c1 e3 04	 shl	 ebx, 4
  00641	03 b5 98 fa ff
	ff		 add	 esi, DWORD PTR tv2373[ebp]
  00647	3b fa		 cmp	 edi, edx
  00649	76 b7		 jbe	 SHORT $LL275@chatGetLin
; File D:\Metin2 Server Files\mainline\SRC_2014\Metin2Client\UserInterface\PythonChatModule.cpp

; 429  : 				for (int i = 6; i < results.size(); i += 2)

  0064b	eb 03		 jmp	 SHORT $LN274@chatGetLin
$LN281@chatGetLin:
; File D:\Metin2 Server Files\mainline\SRC_2014\Metin2Client\eterBase\Utils.h

; 205  :             return -1; /* invalid input! */

  0064d	83 ce ff	 or	 esi, -1
$LN274@chatGetLin:
; File D:\Metin2 Server Files\mainline\SRC_2014\Metin2Client\UserInterface\PythonChatModule.cpp

; 431  : 					len += snprintf(itemlink + len, sizeof(itemlink) - len, ":%x:%d", 

  00650	ff b5 a4 fa ff
	ff		 push	 DWORD PTR __Result$1$[ebp]
  00656	e8 00 00 00 00	 call	 __atoi64
  0065b	8b 9d b4 fa ff
	ff		 mov	 ebx, DWORD PTR _len$1$[ebp]
  00661	52		 push	 edx
  00662	50		 push	 eax
  00663	56		 push	 esi
  00664	b8 00 01 00 00	 mov	 eax, 256		; 00000100H
  00669	2b c3		 sub	 eax, ebx
  0066b	68 00 00 00 00	 push	 OFFSET ??_C@_06FAMCNHHL@?3?$CFx?3?$CFd@
  00670	50		 push	 eax
  00671	8d 85 f0 fe ff
	ff		 lea	 eax, DWORD PTR _itemlink$6[ebp]
  00677	03 c3		 add	 eax, ebx
  00679	50		 push	 eax
  0067a	e8 00 00 00 00	 call	 __snprintf
; File C:\Program Files (x86)\Microsoft Visual Studio\2019\Community\VC\Tools\MSVC\14.28.29333\include\vector

; 1484 :         return static_cast<size_type>(_My_data._Mylast - _My_data._Myfirst);

  0067f	8b 8d ac fa ff
	ff		 mov	 ecx, DWORD PTR _results$[ebp+4]
; File D:\Metin2 Server Files\mainline\SRC_2014\Metin2Client\UserInterface\PythonChatModule.cpp

; 431  : 					len += snprintf(itemlink + len, sizeof(itemlink) - len, ":%x:%d", 

  00685	03 d8		 add	 ebx, eax
; File C:\Program Files (x86)\Microsoft Visual Studio\2019\Community\VC\Tools\MSVC\14.28.29333\include\vector

; 1484 :         return static_cast<size_type>(_My_data._Mylast - _My_data._Myfirst);

  00687	8b b5 a8 fa ff
	ff		 mov	 esi, DWORD PTR _results$[ebp]
  0068d	b8 ab aa aa 2a	 mov	 eax, 715827883		; 2aaaaaabH
; File D:\Metin2 Server Files\mainline\SRC_2014\Metin2Client\UserInterface\PythonChatModule.cpp

; 429  : 				for (int i = 6; i < results.size(); i += 2)

  00692	8b bd b8 fa ff
	ff		 mov	 edi, DWORD PTR _i$1$[ebp]
; File C:\Program Files (x86)\Microsoft Visual Studio\2019\Community\VC\Tools\MSVC\14.28.29333\include\vector

; 1484 :         return static_cast<size_type>(_My_data._Mylast - _My_data._Myfirst);

  00698	2b ce		 sub	 ecx, esi
  0069a	f7 e9		 imul	 ecx
; File D:\Metin2 Server Files\mainline\SRC_2014\Metin2Client\UserInterface\PythonChatModule.cpp

; 431  : 					len += snprintf(itemlink + len, sizeof(itemlink) - len, ":%x:%d", 

  0069c	89 9d b4 fa ff
	ff		 mov	 DWORD PTR _len$1$[ebp], ebx
  006a2	83 c7 02	 add	 edi, 2
  006a5	8b 9d bc fa ff
	ff		 mov	 ebx, DWORD PTR tv2301[ebp]
  006ab	83 c4 1c	 add	 esp, 28			; 0000001cH
; File C:\Program Files (x86)\Microsoft Visual Studio\2019\Community\VC\Tools\MSVC\14.28.29333\include\vector

; 1484 :         return static_cast<size_type>(_My_data._Mylast - _My_data._Myfirst);

  006ae	c1 fa 02	 sar	 edx, 2
; File D:\Metin2 Server Files\mainline\SRC_2014\Metin2Client\UserInterface\PythonChatModule.cpp

; 429  : 				for (int i = 6; i < results.size(); i += 2)

  006b1	83 c3 30	 add	 ebx, 48			; 00000030H
; File C:\Program Files (x86)\Microsoft Visual Studio\2019\Community\VC\Tools\MSVC\14.28.29333\include\vector

; 1484 :         return static_cast<size_type>(_My_data._Mylast - _My_data._Myfirst);

  006b4	8b c2		 mov	 eax, edx
; File D:\Metin2 Server Files\mainline\SRC_2014\Metin2Client\UserInterface\PythonChatModule.cpp

; 429  : 				for (int i = 6; i < results.size(); i += 2)

  006b6	89 bd b8 fa ff
	ff		 mov	 DWORD PTR _i$1$[ebp], edi
; File C:\Program Files (x86)\Microsoft Visual Studio\2019\Community\VC\Tools\MSVC\14.28.29333\include\vector

; 1484 :         return static_cast<size_type>(_My_data._Mylast - _My_data._Myfirst);

  006bc	c1 e8 1f	 shr	 eax, 31			; 0000001fH
  006bf	03 c2		 add	 eax, edx
; File D:\Metin2 Server Files\mainline\SRC_2014\Metin2Client\UserInterface\PythonChatModule.cpp

; 429  : 				for (int i = 6; i < results.size(); i += 2)

  006c1	89 9d bc fa ff
	ff		 mov	 DWORD PTR tv2301[ebp], ebx
  006c7	3b f8		 cmp	 edi, eax
  006c9	0f 82 f1 fe ff
	ff		 jb	 $LL4@chatGetLin

; 432  : 							htoi(results[i].c_str()),
; 433  : 							atoi(results[i+1].c_str()));
; 434  : 					isAttr = true;
; 435  : 				}
; 436  : 			}
; 437  : 
; 438  : 			if (isAttr)
; 439  : 				//"item:::0:1:2"
; 440  : 				snprintf(buf, sizeof(buf), "|cffffc700|H%s|h[%s]|h|r", itemlink, pItemData->GetName());

  006cf	be 00 00 00 00	 mov	 esi, OFFSET ??_C@_0BJ@DABMGIOF@?$HMcffffc700?$HMH?$CFs?$HMh?$FL?$CFs?$FN?$HMh?$HMr@
  006d4	eb 05		 jmp	 SHORT $LN371@chatGetLin
$LN10@chatGetLin:

; 441  : 			else
; 442  : 				snprintf(buf, sizeof(buf), "|cfff1e6c0|H%s|h[%s]|h|r", itemlink, pItemData->GetName());

  006d6	be 00 00 00 00	 mov	 esi, OFFSET ??_C@_0BJ@GPGFNPLK@?$HMcfff1e6c0?$HMH?$CFs?$HMh?$FL?$CFs?$FN?$HMh?$HMr@
$LN371@chatGetLin:

; 443  : 
; 444  : 			return Py_BuildValue("s", buf);

  006db	8b 8d a0 fa ff
	ff		 mov	 ecx, DWORD PTR _pItemData$2[ebp]
  006e1	e8 00 00 00 00	 call	 ?GetName@CItemData@@QBEPBDXZ ; CItemData::GetName
  006e6	50		 push	 eax
  006e7	8d 85 f0 fe ff
	ff		 lea	 eax, DWORD PTR _itemlink$6[ebp]
  006ed	50		 push	 eax
  006ee	56		 push	 esi
  006ef	8d 85 f0 fa ff
	ff		 lea	 eax, DWORD PTR _buf$5[ebp]
  006f5	68 00 04 00 00	 push	 1024			; 00000400H
  006fa	50		 push	 eax
  006fb	e8 00 00 00 00	 call	 __snprintf
  00700	8d 85 f0 fa ff
	ff		 lea	 eax, DWORD PTR _buf$5[ebp]
  00706	50		 push	 eax
  00707	68 00 00 00 00	 push	 OFFSET ??_C@_01LKDEMHDF@s@
  0070c	ff 15 00 00 00
	00		 call	 DWORD PTR __imp__Py_BuildValue
  00712	83 c4 1c	 add	 esp, 28			; 0000001cH
  00715	eb 13		 jmp	 SHORT $LN372@chatGetLin
$LN8@chatGetLin:
; File C:\Program Files (x86)\Microsoft Visual Studio\2019\Community\VC\Tools\MSVC\14.28.29333\include\vector

; 1694 :         if (_Myfirst) { // destroy and deallocate old array

  00717	68 00 00 00 00	 push	 OFFSET ??_C@_00CNPNBAHC@@
  0071c	68 00 00 00 00	 push	 OFFSET ??_C@_01LKDEMHDF@s@
  00721	ff 15 00 00 00
	00		 call	 DWORD PTR __imp__Py_BuildValue
  00727	83 c4 08	 add	 esp, 8
$LN372@chatGetLin:
  0072a	8b 8d a8 fa ff
	ff		 mov	 ecx, DWORD PTR _results$[ebp]
  00730	8b f8		 mov	 edi, eax
  00732	85 c9		 test	 ecx, ecx
  00734	74 60		 je	 SHORT $LN306@chatGetLin

; 1612 :         _Destroy_range(_First, _Last, _Getal());

  00736	8d 85 a8 fa ff
	ff		 lea	 eax, DWORD PTR _results$[ebp]
  0073c	50		 push	 eax
  0073d	ff b5 ac fa ff
	ff		 push	 DWORD PTR _results$[ebp+4]
  00743	51		 push	 ecx
  00744	e8 00 00 00 00	 call	 ??$_Destroy_range@V?$allocator@V?$basic_string@DU?$char_traits@D@std@@V?$allocator@D@2@@std@@@std@@@std@@YAXPAV?$basic_string@DU?$char_traits@D@std@@V?$allocator@D@2@@0@QAV10@AAV?$allocator@V?$basic_string@DU?$char_traits@D@std@@V?$allocator@D@2@@std@@@0@@Z ; std::_Destroy_range<std::allocator<std::basic_string<char,std::char_traits<char>,std::allocator<char> > > >

; 1696 :             _Getal().deallocate(_Myfirst, static_cast<size_type>(_Myend - _Myfirst));

  00749	8b 8d b0 fa ff
	ff		 mov	 ecx, DWORD PTR _results$[ebp+8]
  0074f	b8 ab aa aa 2a	 mov	 eax, 715827883		; 2aaaaaabH
  00754	8b b5 a8 fa ff
	ff		 mov	 esi, DWORD PTR _results$[ebp]
  0075a	2b ce		 sub	 ecx, esi
  0075c	f7 e9		 imul	 ecx
  0075e	c1 fa 02	 sar	 edx, 2
  00761	8b c2		 mov	 eax, edx
  00763	c1 e8 1f	 shr	 eax, 31			; 0000001fH
  00766	03 c2		 add	 eax, edx
; File C:\Program Files (x86)\Microsoft Visual Studio\2019\Community\VC\Tools\MSVC\14.28.29333\include\xmemory

; 810  :         _Deallocate<_New_alignof<_Ty>>(_Ptr, sizeof(_Ty) * _Count);

  00768	8d 04 40	 lea	 eax, DWORD PTR [eax+eax*2]
  0076b	c1 e0 03	 shl	 eax, 3
  0076e	50		 push	 eax
  0076f	56		 push	 esi
  00770	e8 00 00 00 00	 call	 ??$_Deallocate@$07$0A@@std@@YAXPAXI@Z ; std::_Deallocate<8,0>
  00775	83 c4 14	 add	 esp, 20			; 00000014H
; File C:\Program Files (x86)\Microsoft Visual Studio\2019\Community\VC\Tools\MSVC\14.28.29333\include\vector

; 1698 :             _Myfirst = pointer();

  00778	c7 85 a8 fa ff
	ff 00 00 00 00	 mov	 DWORD PTR _results$[ebp], 0

; 1699 :             _Mylast  = pointer();

  00782	c7 85 ac fa ff
	ff 00 00 00 00	 mov	 DWORD PTR _results$[ebp+4], 0

; 1700 :             _Myend   = pointer();

  0078c	c7 85 b0 fa ff
	ff 00 00 00 00	 mov	 DWORD PTR _results$[ebp+8], 0
$LN306@chatGetLin:
; File C:\Program Files (x86)\Microsoft Visual Studio\2019\Community\VC\Tools\MSVC\14.28.29333\include\xstring

; 2227 :         return _BUF_SIZE <= _Myres;

  00796	8b 85 d4 fa ff
	ff		 mov	 eax, DWORD PTR _stHyperlink$[ebp+20]
  0079c	83 f8 10	 cmp	 eax, 16			; 00000010H

; 4385 :         if (_Mypair._Myval2._Large_string_engaged()) {

  0079f	72 10		 jb	 SHORT $LN316@chatGetLin

; 4386 :             const pointer _Ptr = _Mypair._Myval2._Bx._Ptr;
; 4387 :             auto& _Al          = _Getal();
; 4388 :             _Destroy_in_place(_Mypair._Myval2._Bx._Ptr);
; 4389 :             _Al.deallocate(_Ptr, _Mypair._Myval2._Myres + 1);

  007a1	40		 inc	 eax
; File C:\Program Files (x86)\Microsoft Visual Studio\2019\Community\VC\Tools\MSVC\14.28.29333\include\xmemory

; 810  :         _Deallocate<_New_alignof<_Ty>>(_Ptr, sizeof(_Ty) * _Count);

  007a2	50		 push	 eax
  007a3	ff b5 c0 fa ff
	ff		 push	 DWORD PTR _stHyperlink$[ebp]
  007a9	e8 00 00 00 00	 call	 ??$_Deallocate@$07$0A@@std@@YAXPAXI@Z ; std::_Deallocate<8,0>
  007ae	83 c4 08	 add	 esp, 8
$LN316@chatGetLin:
; File D:\Metin2 Server Files\mainline\SRC_2014\Metin2Client\UserInterface\PythonChatModule.cpp

; 448  : 	return Py_BuildValue("s", "");

  007b1	8b c7		 mov	 eax, edi
$LN1@chatGetLin:

; 449  : }

  007b3	8b 4d f4	 mov	 ecx, DWORD PTR __$EHRec$[ebp]
  007b6	64 89 0d 00 00
	00 00		 mov	 DWORD PTR fs:0, ecx
  007bd	59		 pop	 ecx
  007be	5f		 pop	 edi
  007bf	5e		 pop	 esi
  007c0	5b		 pop	 ebx
  007c1	8b 4d f0	 mov	 ecx, DWORD PTR __$ArrayPad$[ebp]
  007c4	33 cd		 xor	 ecx, ebp
  007c6	e8 00 00 00 00	 call	 @__security_check_cookie@4
  007cb	8b e5		 mov	 esp, ebp
  007cd	5d		 pop	 ebp
  007ce	c3		 ret	 0
_TEXT	ENDS
;	COMDAT text$x
text$x	SEGMENT
__unwindfunclet$?chatGetLinkFromHyperlink@@YAPAU_object@@PAU1@0@Z$0:
  00000	8d 8d c0 fa ff
	ff		 lea	 ecx, DWORD PTR _stHyperlink$[ebp]
  00006	e9 00 00 00 00	 jmp	 ??1?$basic_string@DU?$char_traits@D@std@@V?$allocator@D@2@@std@@QAE@XZ ; std::basic_string<char,std::char_traits<char>,std::allocator<char> >::~basic_string<char,std::char_traits<char>,std::allocator<char> >
__unwindfunclet$?chatGetLinkFromHyperlink@@YAPAU_object@@PAU1@0@Z$1:
  0000b	8d 8d a8 fa ff
	ff		 lea	 ecx, DWORD PTR _results$[ebp]
  00011	e9 00 00 00 00	 jmp	 ??1?$vector@V?$basic_string@DU?$char_traits@D@std@@V?$allocator@D@2@@std@@V?$allocator@V?$basic_string@DU?$char_traits@D@std@@V?$allocator@D@2@@std@@@2@@std@@QAE@XZ ; std::vector<std::basic_string<char,std::char_traits<char>,std::allocator<char> >,std::allocator<std::basic_string<char,std::char_traits<char>,std::allocator<char> > > >::~vector<std::basic_string<char,std::char_traits<char>,std::allocator<char> >,std::allocator<std::basic_string<char,std::char_traits<char>,std::allocator<char> > > >
__unwindfunclet$?chatGetLinkFromHyperlink@@YAPAU_object@@PAU1@0@Z$2:
  00016	8d 8d d8 fa ff
	ff		 lea	 ecx, DWORD PTR $T4[ebp]
  0001c	e9 00 00 00 00	 jmp	 ??1?$basic_string@DU?$char_traits@D@std@@V?$allocator@D@2@@std@@QAE@XZ ; std::basic_string<char,std::char_traits<char>,std::allocator<char> >::~basic_string<char,std::char_traits<char>,std::allocator<char> >
  00021	cc		 int	 3
  00022	cc		 int	 3
  00023	cc		 int	 3
  00024	cc		 int	 3
  00025	cc		 int	 3
__ehhandler$?chatGetLinkFromHyperlink@@YAPAU_object@@PAU1@0@Z:
  00026	90		 npad	 1
  00027	90		 npad	 1
  00028	8b 54 24 08	 mov	 edx, DWORD PTR [esp+8]
  0002c	8d 42 0c	 lea	 eax, DWORD PTR [edx+12]
  0002f	8b 8a 94 fa ff
	ff		 mov	 ecx, DWORD PTR [edx-1388]
  00035	33 c8		 xor	 ecx, eax
  00037	e8 00 00 00 00	 call	 @__security_check_cookie@4
  0003c	8b 4a fc	 mov	 ecx, DWORD PTR [edx-4]
  0003f	33 c8		 xor	 ecx, eax
  00041	e8 00 00 00 00	 call	 @__security_check_cookie@4
  00046	b8 00 00 00 00	 mov	 eax, OFFSET __ehfuncinfo$?chatGetLinkFromHyperlink@@YAPAU_object@@PAU1@0@Z
  0004b	e9 00 00 00 00	 jmp	 ___CxxFrameHandler3
text$x	ENDS
?chatGetLinkFromHyperlink@@YAPAU_object@@PAU1@0@Z ENDP	; chatGetLinkFromHyperlink
; Function compile flags: /Ogtp
; File D:\Metin2 Server Files\mainline\SRC_2014\Metin2Client\UserInterface\PythonChatModule.cpp
;	COMDAT ?chatInitWhisper@@YAPAU_object@@PAU1@0@Z
_TEXT	SEGMENT
_poInterface$ = -4					; size = 4
_poSelf$ = 8						; size = 4
_poArgs$ = 12						; size = 4
?chatInitWhisper@@YAPAU_object@@PAU1@0@Z PROC		; chatInitWhisper, COMDAT

; 384  : {

  00000	55		 push	 ebp
  00001	8b ec		 mov	 ebp, esp
  00003	51		 push	 ecx

; 385  : 	PyObject * poInterface;
; 386  : 	if (!PyTuple_GetObject(poArgs, 0, &poInterface))

  00004	8d 45 fc	 lea	 eax, DWORD PTR _poInterface$[ebp]
  00007	50		 push	 eax
  00008	6a 00		 push	 0
  0000a	ff 75 0c	 push	 DWORD PTR _poArgs$[ebp]
  0000d	e8 00 00 00 00	 call	 ?PyTuple_GetObject@@YA_NPAU_object@@HPAPAU1@@Z ; PyTuple_GetObject
  00012	83 c4 0c	 add	 esp, 12			; 0000000cH
  00015	84 c0		 test	 al, al
  00017	75 0e		 jne	 SHORT $LN2@chatInitWh

; 387  : 		return Py_BuildException();

  00019	6a 00		 push	 0
  0001b	e8 00 00 00 00	 call	 ?Py_BuildException@@YAPAU_object@@PBDZZ ; Py_BuildException
  00020	83 c4 04	 add	 esp, 4

; 391  : }

  00023	8b e5		 mov	 esp, ebp
  00025	5d		 pop	 ebp
  00026	c3		 ret	 0
$LN2@chatInitWh:

; 388  : 
; 389  : 	CPythonChat::Instance().InitWhisper(poInterface);

  00027	ff 75 fc	 push	 DWORD PTR _poInterface$[ebp]
  0002a	8b 0d 00 00 00
	00		 mov	 ecx, DWORD PTR ?ms_singleton@?$CSingleton@VCPythonChat@@@@0PAVCPythonChat@@A ; CSingleton<CPythonChat>::ms_singleton
  00030	e8 00 00 00 00	 call	 ?InitWhisper@CPythonChat@@QAEXPAU_object@@@Z ; CPythonChat::InitWhisper

; 390  : 	return Py_BuildNone();

  00035	e8 00 00 00 00	 call	 ?Py_BuildNone@@YAPAU_object@@XZ ; Py_BuildNone

; 391  : }

  0003a	8b e5		 mov	 esp, ebp
  0003c	5d		 pop	 ebp
  0003d	c3		 ret	 0
?chatInitWhisper@@YAPAU_object@@PAU1@0@Z ENDP		; chatInitWhisper
_TEXT	ENDS
; Function compile flags: /Ogtp
; File D:\Metin2 Server Files\mainline\SRC_2014\Metin2Client\UserInterface\PythonChatModule.cpp
;	COMDAT ?chatClearWhisper@@YAPAU_object@@PAU1@0@Z
_TEXT	SEGMENT
_szName$ = -4						; size = 4
_poSelf$ = 8						; size = 4
_poArgs$ = 12						; size = 4
?chatClearWhisper@@YAPAU_object@@PAU1@0@Z PROC		; chatClearWhisper, COMDAT

; 373  : {

  00000	55		 push	 ebp
  00001	8b ec		 mov	 ebp, esp
  00003	51		 push	 ecx

; 374  : 	char * szName;
; 375  : 	if (!PyTuple_GetString(poArgs, 0, &szName))

  00004	8d 45 fc	 lea	 eax, DWORD PTR _szName$[ebp]
  00007	50		 push	 eax
  00008	6a 00		 push	 0
  0000a	ff 75 0c	 push	 DWORD PTR _poArgs$[ebp]
  0000d	e8 00 00 00 00	 call	 ?PyTuple_GetString@@YA_NPAU_object@@HPAPAD@Z ; PyTuple_GetString
  00012	83 c4 0c	 add	 esp, 12			; 0000000cH
  00015	84 c0		 test	 al, al
  00017	75 0e		 jne	 SHORT $LN2@chatClearW

; 376  : 		return Py_BuildException();

  00019	6a 00		 push	 0
  0001b	e8 00 00 00 00	 call	 ?Py_BuildException@@YAPAU_object@@PBDZZ ; Py_BuildException
  00020	83 c4 04	 add	 esp, 4

; 381  : }

  00023	8b e5		 mov	 esp, ebp
  00025	5d		 pop	 ebp
  00026	c3		 ret	 0
$LN2@chatClearW:

; 377  : 
; 378  : 	CPythonChat::Instance().ClearWhisper(szName);

  00027	ff 75 fc	 push	 DWORD PTR _szName$[ebp]
  0002a	8b 0d 00 00 00
	00		 mov	 ecx, DWORD PTR ?ms_singleton@?$CSingleton@VCPythonChat@@@@0PAVCPythonChat@@A ; CSingleton<CPythonChat>::ms_singleton
  00030	e8 00 00 00 00	 call	 ?ClearWhisper@CPythonChat@@QAEXPBD@Z ; CPythonChat::ClearWhisper

; 379  : 
; 380  : 	return Py_BuildNone();

  00035	e8 00 00 00 00	 call	 ?Py_BuildNone@@YAPAU_object@@XZ ; Py_BuildNone

; 381  : }

  0003a	8b e5		 mov	 esp, ebp
  0003c	5d		 pop	 ebp
  0003d	c3		 ret	 0
?chatClearWhisper@@YAPAU_object@@PAU1@0@Z ENDP		; chatClearWhisper
_TEXT	ENDS
; Function compile flags: /Ogtp
; File D:\Metin2 Server Files\mainline\SRC_2014\Metin2Client\UserInterface\PythonChatModule.cpp
;	COMDAT ?chatSetWhisperPosition@@YAPAU_object@@PAU1@0@Z
_TEXT	SEGMENT
_pWhisper$ = -12					; size = 4
_fPosition$ = -8					; size = 4
_szName$ = -4						; size = 4
_poSelf$ = 8						; size = 4
_poArgs$ = 12						; size = 4
?chatSetWhisperPosition@@YAPAU_object@@PAU1@0@Z PROC	; chatSetWhisperPosition, COMDAT

; 354  : {

  00000	55		 push	 ebp
  00001	8b ec		 mov	 ebp, esp
  00003	83 ec 0c	 sub	 esp, 12			; 0000000cH

; 355  : 	char * szName;
; 356  : 	if (!PyTuple_GetString(poArgs, 0, &szName))

  00006	8d 45 fc	 lea	 eax, DWORD PTR _szName$[ebp]
  00009	50		 push	 eax
  0000a	6a 00		 push	 0
  0000c	ff 75 0c	 push	 DWORD PTR _poArgs$[ebp]
  0000f	e8 00 00 00 00	 call	 ?PyTuple_GetString@@YA_NPAU_object@@HPAPAD@Z ; PyTuple_GetString
  00014	83 c4 0c	 add	 esp, 12			; 0000000cH
  00017	84 c0		 test	 al, al
  00019	75 0e		 jne	 SHORT $LN2@chatSetWhi
$LN6@chatSetWhi:

; 370  : }

  0001b	6a 00		 push	 0
  0001d	e8 00 00 00 00	 call	 ?Py_BuildException@@YAPAU_object@@PBDZZ ; Py_BuildException
  00022	83 c4 04	 add	 esp, 4
  00025	8b e5		 mov	 esp, ebp
  00027	5d		 pop	 ebp
  00028	c3		 ret	 0
$LN2@chatSetWhi:

; 357  : 		return Py_BuildException();
; 358  : 
; 359  : 	float fPosition;
; 360  : 	if (!PyTuple_GetFloat(poArgs, 1, &fPosition))

  00029	8d 45 f8	 lea	 eax, DWORD PTR _fPosition$[ebp]
  0002c	50		 push	 eax
  0002d	6a 01		 push	 1
  0002f	ff 75 0c	 push	 DWORD PTR _poArgs$[ebp]
  00032	e8 00 00 00 00	 call	 ?PyTuple_GetFloat@@YA_NPAU_object@@HPAM@Z ; PyTuple_GetFloat
  00037	83 c4 0c	 add	 esp, 12			; 0000000cH
  0003a	84 c0		 test	 al, al
  0003c	74 dd		 je	 SHORT $LN6@chatSetWhi

; 361  : 		return Py_BuildException();
; 362  : 
; 363  : 	CWhisper * pWhisper;
; 364  : 	if (CPythonChat::Instance().GetWhisper(szName, &pWhisper))

  0003e	8b 0d 00 00 00
	00		 mov	 ecx, DWORD PTR ?ms_singleton@?$CSingleton@VCPythonChat@@@@0PAVCPythonChat@@A ; CSingleton<CPythonChat>::ms_singleton
  00044	8d 45 f4	 lea	 eax, DWORD PTR _pWhisper$[ebp]
  00047	50		 push	 eax
  00048	ff 75 fc	 push	 DWORD PTR _szName$[ebp]
  0004b	e8 00 00 00 00	 call	 ?GetWhisper@CPythonChat@@QAEHPBDPAPAVCWhisper@@@Z ; CPythonChat::GetWhisper
  00050	85 c0		 test	 eax, eax
  00052	74 13		 je	 SHORT $LN4@chatSetWhi

; 365  : 	{
; 366  : 		pWhisper->SetPosition(fPosition);

  00054	f3 0f 10 45 f8	 movss	 xmm0, DWORD PTR _fPosition$[ebp]
  00059	51		 push	 ecx
  0005a	8b 4d f4	 mov	 ecx, DWORD PTR _pWhisper$[ebp]
  0005d	f3 0f 11 04 24	 movss	 DWORD PTR [esp], xmm0
  00062	e8 00 00 00 00	 call	 ?SetPosition@CWhisper@@QAEXM@Z ; CWhisper::SetPosition
$LN4@chatSetWhi:

; 367  : 	}
; 368  : 
; 369  : 	return Py_BuildNone();

  00067	e8 00 00 00 00	 call	 ?Py_BuildNone@@YAPAU_object@@XZ ; Py_BuildNone

; 370  : }

  0006c	8b e5		 mov	 esp, ebp
  0006e	5d		 pop	 ebp
  0006f	c3		 ret	 0
?chatSetWhisperPosition@@YAPAU_object@@PAU1@0@Z ENDP	; chatSetWhisperPosition
_TEXT	ENDS
; Function compile flags: /Ogtp
; File D:\Metin2 Server Files\mainline\SRC_2014\Metin2Client\UserInterface\PythonChatModule.cpp
;	COMDAT ?chatSetWhisperBoxSize@@YAPAU_object@@PAU1@0@Z
_TEXT	SEGMENT
_pWhisper$ = -16					; size = 4
_fWidth$ = -12						; size = 4
_fHeight$ = -8						; size = 4
_szName$ = -4						; size = 4
_poSelf$ = 8						; size = 4
_poArgs$ = 12						; size = 4
?chatSetWhisperBoxSize@@YAPAU_object@@PAU1@0@Z PROC	; chatSetWhisperBoxSize, COMDAT

; 331  : {

  00000	55		 push	 ebp
  00001	8b ec		 mov	 ebp, esp
  00003	83 ec 10	 sub	 esp, 16			; 00000010H

; 332  : 	char * szName;
; 333  : 	if (!PyTuple_GetString(poArgs, 0, &szName))

  00006	8d 45 fc	 lea	 eax, DWORD PTR _szName$[ebp]
  00009	56		 push	 esi
  0000a	8b 75 0c	 mov	 esi, DWORD PTR _poArgs$[ebp]
  0000d	50		 push	 eax
  0000e	6a 00		 push	 0
  00010	56		 push	 esi
  00011	e8 00 00 00 00	 call	 ?PyTuple_GetString@@YA_NPAU_object@@HPAPAD@Z ; PyTuple_GetString
  00016	83 c4 0c	 add	 esp, 12			; 0000000cH
  00019	84 c0		 test	 al, al
  0001b	75 0f		 jne	 SHORT $LN2@chatSetWhi
$LN7@chatSetWhi:

; 351  : }

  0001d	6a 00		 push	 0
  0001f	e8 00 00 00 00	 call	 ?Py_BuildException@@YAPAU_object@@PBDZZ ; Py_BuildException
  00024	83 c4 04	 add	 esp, 4
  00027	5e		 pop	 esi
  00028	8b e5		 mov	 esp, ebp
  0002a	5d		 pop	 ebp
  0002b	c3		 ret	 0
$LN2@chatSetWhi:

; 334  : 		return Py_BuildException();
; 335  : 
; 336  : 	float fWidth;
; 337  : 	if (!PyTuple_GetFloat(poArgs, 1, &fWidth))

  0002c	8d 45 f4	 lea	 eax, DWORD PTR _fWidth$[ebp]
  0002f	50		 push	 eax
  00030	6a 01		 push	 1
  00032	56		 push	 esi
  00033	e8 00 00 00 00	 call	 ?PyTuple_GetFloat@@YA_NPAU_object@@HPAM@Z ; PyTuple_GetFloat
  00038	83 c4 0c	 add	 esp, 12			; 0000000cH
  0003b	84 c0		 test	 al, al
  0003d	74 de		 je	 SHORT $LN7@chatSetWhi

; 338  : 		return Py_BuildException();
; 339  : 
; 340  : 	float fHeight;
; 341  : 	if (!PyTuple_GetFloat(poArgs, 2, &fHeight))

  0003f	8d 45 f8	 lea	 eax, DWORD PTR _fHeight$[ebp]
  00042	50		 push	 eax
  00043	6a 02		 push	 2
  00045	56		 push	 esi
  00046	e8 00 00 00 00	 call	 ?PyTuple_GetFloat@@YA_NPAU_object@@HPAM@Z ; PyTuple_GetFloat
  0004b	83 c4 0c	 add	 esp, 12			; 0000000cH
  0004e	84 c0		 test	 al, al
  00050	74 cb		 je	 SHORT $LN7@chatSetWhi

; 342  : 		return Py_BuildException();
; 343  : 
; 344  : 	CWhisper * pWhisper;
; 345  : 	if (CPythonChat::Instance().GetWhisper(szName, &pWhisper))

  00052	8b 0d 00 00 00
	00		 mov	 ecx, DWORD PTR ?ms_singleton@?$CSingleton@VCPythonChat@@@@0PAVCPythonChat@@A ; CSingleton<CPythonChat>::ms_singleton
  00058	8d 45 f0	 lea	 eax, DWORD PTR _pWhisper$[ebp]
  0005b	50		 push	 eax
  0005c	ff 75 fc	 push	 DWORD PTR _szName$[ebp]
  0005f	e8 00 00 00 00	 call	 ?GetWhisper@CPythonChat@@QAEHPBDPAPAVCWhisper@@@Z ; CPythonChat::GetWhisper
  00064	85 c0		 test	 eax, eax
  00066	74 20		 je	 SHORT $LN5@chatSetWhi

; 346  : 	{
; 347  : 		pWhisper->SetBoxSize(fWidth, fHeight);

  00068	f3 0f 10 45 f8	 movss	 xmm0, DWORD PTR _fHeight$[ebp]
  0006d	83 ec 08	 sub	 esp, 8
  00070	8b 4d f0	 mov	 ecx, DWORD PTR _pWhisper$[ebp]
  00073	f3 0f 11 44 24
	04		 movss	 DWORD PTR [esp+4], xmm0
  00079	f3 0f 10 45 f4	 movss	 xmm0, DWORD PTR _fWidth$[ebp]
  0007e	f3 0f 11 04 24	 movss	 DWORD PTR [esp], xmm0
  00083	e8 00 00 00 00	 call	 ?SetBoxSize@CWhisper@@QAEXMM@Z ; CWhisper::SetBoxSize
$LN5@chatSetWhi:

; 348  : 	}
; 349  : 
; 350  : 	return Py_BuildNone();

  00088	e8 00 00 00 00	 call	 ?Py_BuildNone@@YAPAU_object@@XZ ; Py_BuildNone
  0008d	5e		 pop	 esi

; 351  : }

  0008e	8b e5		 mov	 esp, ebp
  00090	5d		 pop	 ebp
  00091	c3		 ret	 0
?chatSetWhisperBoxSize@@YAPAU_object@@PAU1@0@Z ENDP	; chatSetWhisperBoxSize
_TEXT	ENDS
; Function compile flags: /Ogtp
; File D:\Metin2 Server Files\mainline\SRC_2014\Metin2Client\UserInterface\PythonChatModule.cpp
;	COMDAT ?chatRenderWhisper@@YAPAU_object@@PAU1@0@Z
_TEXT	SEGMENT
_pWhisper$ = -16					; size = 4
_fx$ = -12						; size = 4
_fy$ = -8						; size = 4
_szName$ = -4						; size = 4
_poSelf$ = 8						; size = 4
_poArgs$ = 12						; size = 4
?chatRenderWhisper@@YAPAU_object@@PAU1@0@Z PROC		; chatRenderWhisper, COMDAT

; 308  : {

  00000	55		 push	 ebp
  00001	8b ec		 mov	 ebp, esp
  00003	83 ec 10	 sub	 esp, 16			; 00000010H

; 309  : 	char * szName;
; 310  : 	if (!PyTuple_GetString(poArgs, 0, &szName))

  00006	8d 45 fc	 lea	 eax, DWORD PTR _szName$[ebp]
  00009	56		 push	 esi
  0000a	8b 75 0c	 mov	 esi, DWORD PTR _poArgs$[ebp]
  0000d	50		 push	 eax
  0000e	6a 00		 push	 0
  00010	56		 push	 esi
  00011	e8 00 00 00 00	 call	 ?PyTuple_GetString@@YA_NPAU_object@@HPAPAD@Z ; PyTuple_GetString
  00016	83 c4 0c	 add	 esp, 12			; 0000000cH
  00019	84 c0		 test	 al, al
  0001b	75 0f		 jne	 SHORT $LN2@chatRender
$LN7@chatRender:

; 328  : }

  0001d	6a 00		 push	 0
  0001f	e8 00 00 00 00	 call	 ?Py_BuildException@@YAPAU_object@@PBDZZ ; Py_BuildException
  00024	83 c4 04	 add	 esp, 4
  00027	5e		 pop	 esi
  00028	8b e5		 mov	 esp, ebp
  0002a	5d		 pop	 ebp
  0002b	c3		 ret	 0
$LN2@chatRender:

; 311  : 		return Py_BuildException();
; 312  : 
; 313  : 	float fx;
; 314  : 	if (!PyTuple_GetFloat(poArgs, 1, &fx))

  0002c	8d 45 f4	 lea	 eax, DWORD PTR _fx$[ebp]
  0002f	50		 push	 eax
  00030	6a 01		 push	 1
  00032	56		 push	 esi
  00033	e8 00 00 00 00	 call	 ?PyTuple_GetFloat@@YA_NPAU_object@@HPAM@Z ; PyTuple_GetFloat
  00038	83 c4 0c	 add	 esp, 12			; 0000000cH
  0003b	84 c0		 test	 al, al
  0003d	74 de		 je	 SHORT $LN7@chatRender

; 315  : 		return Py_BuildException();
; 316  : 
; 317  : 	float fy;
; 318  : 	if (!PyTuple_GetFloat(poArgs, 2, &fy))

  0003f	8d 45 f8	 lea	 eax, DWORD PTR _fy$[ebp]
  00042	50		 push	 eax
  00043	6a 02		 push	 2
  00045	56		 push	 esi
  00046	e8 00 00 00 00	 call	 ?PyTuple_GetFloat@@YA_NPAU_object@@HPAM@Z ; PyTuple_GetFloat
  0004b	83 c4 0c	 add	 esp, 12			; 0000000cH
  0004e	84 c0		 test	 al, al
  00050	74 cb		 je	 SHORT $LN7@chatRender

; 319  : 		return Py_BuildException();
; 320  : 
; 321  : 	CWhisper * pWhisper;
; 322  : 	if (CPythonChat::Instance().GetWhisper(szName, &pWhisper))

  00052	8b 0d 00 00 00
	00		 mov	 ecx, DWORD PTR ?ms_singleton@?$CSingleton@VCPythonChat@@@@0PAVCPythonChat@@A ; CSingleton<CPythonChat>::ms_singleton
  00058	8d 45 f0	 lea	 eax, DWORD PTR _pWhisper$[ebp]
  0005b	50		 push	 eax
  0005c	ff 75 fc	 push	 DWORD PTR _szName$[ebp]
  0005f	e8 00 00 00 00	 call	 ?GetWhisper@CPythonChat@@QAEHPBDPAPAVCWhisper@@@Z ; CPythonChat::GetWhisper
  00064	85 c0		 test	 eax, eax
  00066	74 20		 je	 SHORT $LN5@chatRender

; 323  : 	{
; 324  : 		pWhisper->Render(fx, fy);

  00068	f3 0f 10 45 f8	 movss	 xmm0, DWORD PTR _fy$[ebp]
  0006d	83 ec 08	 sub	 esp, 8
  00070	8b 4d f0	 mov	 ecx, DWORD PTR _pWhisper$[ebp]
  00073	f3 0f 11 44 24
	04		 movss	 DWORD PTR [esp+4], xmm0
  00079	f3 0f 10 45 f4	 movss	 xmm0, DWORD PTR _fx$[ebp]
  0007e	f3 0f 11 04 24	 movss	 DWORD PTR [esp], xmm0
  00083	e8 00 00 00 00	 call	 ?Render@CWhisper@@QAEXMM@Z ; CWhisper::Render
$LN5@chatRender:

; 325  : 	}
; 326  : 
; 327  : 	return Py_BuildNone();

  00088	e8 00 00 00 00	 call	 ?Py_BuildNone@@YAPAU_object@@XZ ; Py_BuildNone
  0008d	5e		 pop	 esi

; 328  : }

  0008e	8b e5		 mov	 esp, ebp
  00090	5d		 pop	 ebp
  00091	c3		 ret	 0
?chatRenderWhisper@@YAPAU_object@@PAU1@0@Z ENDP		; chatRenderWhisper
_TEXT	ENDS
; Function compile flags: /Ogtp
; File D:\Metin2 Server Files\mainline\SRC_2014\Metin2Client\UserInterface\PythonChatModule.cpp
;	COMDAT ?chatAppendWhisper@@YAPAU_object@@PAU1@0@Z
_TEXT	SEGMENT
_iType$ = -12						; size = 4
_szName$ = -8						; size = 4
_szChat$ = -4						; size = 4
_poSelf$ = 8						; size = 4
_poArgs$ = 12						; size = 4
?chatAppendWhisper@@YAPAU_object@@PAU1@0@Z PROC		; chatAppendWhisper, COMDAT

; 290  : {

  00000	55		 push	 ebp
  00001	8b ec		 mov	 ebp, esp
  00003	83 ec 0c	 sub	 esp, 12			; 0000000cH

; 291  : 	int iType;
; 292  : 	if (!PyTuple_GetInteger(poArgs, 0, &iType))

  00006	8d 45 f4	 lea	 eax, DWORD PTR _iType$[ebp]
  00009	56		 push	 esi
  0000a	8b 75 0c	 mov	 esi, DWORD PTR _poArgs$[ebp]
  0000d	50		 push	 eax
  0000e	6a 00		 push	 0
  00010	56		 push	 esi
  00011	e8 00 00 00 00	 call	 ?PyTuple_GetInteger@@YA_NPAU_object@@HPAH@Z ; PyTuple_GetInteger
  00016	83 c4 0c	 add	 esp, 12			; 0000000cH
  00019	84 c0		 test	 al, al
  0001b	75 0f		 jne	 SHORT $LN2@chatAppend
$LN6@chatAppend:

; 305  : }

  0001d	6a 00		 push	 0
  0001f	e8 00 00 00 00	 call	 ?Py_BuildException@@YAPAU_object@@PBDZZ ; Py_BuildException
  00024	83 c4 04	 add	 esp, 4
  00027	5e		 pop	 esi
  00028	8b e5		 mov	 esp, ebp
  0002a	5d		 pop	 ebp
  0002b	c3		 ret	 0
$LN2@chatAppend:

; 293  : 		return Py_BuildException();
; 294  : 
; 295  : 	char * szName;
; 296  : 	if (!PyTuple_GetString(poArgs, 1, &szName))

  0002c	8d 45 f8	 lea	 eax, DWORD PTR _szName$[ebp]
  0002f	50		 push	 eax
  00030	6a 01		 push	 1
  00032	56		 push	 esi
  00033	e8 00 00 00 00	 call	 ?PyTuple_GetString@@YA_NPAU_object@@HPAPAD@Z ; PyTuple_GetString
  00038	83 c4 0c	 add	 esp, 12			; 0000000cH
  0003b	84 c0		 test	 al, al
  0003d	74 de		 je	 SHORT $LN6@chatAppend

; 297  : 		return Py_BuildException();
; 298  : 
; 299  : 	char * szChat;
; 300  : 	if (!PyTuple_GetString(poArgs, 2, &szChat))

  0003f	8d 45 fc	 lea	 eax, DWORD PTR _szChat$[ebp]
  00042	50		 push	 eax
  00043	6a 02		 push	 2
  00045	56		 push	 esi
  00046	e8 00 00 00 00	 call	 ?PyTuple_GetString@@YA_NPAU_object@@HPAPAD@Z ; PyTuple_GetString
  0004b	83 c4 0c	 add	 esp, 12			; 0000000cH
  0004e	84 c0		 test	 al, al
  00050	74 cb		 je	 SHORT $LN6@chatAppend

; 301  : 		return Py_BuildException();
; 302  : 
; 303  : 	CPythonChat::Instance().AppendWhisper(iType, szName, szChat);

  00052	ff 75 fc	 push	 DWORD PTR _szChat$[ebp]
  00055	8b 0d 00 00 00
	00		 mov	 ecx, DWORD PTR ?ms_singleton@?$CSingleton@VCPythonChat@@@@0PAVCPythonChat@@A ; CSingleton<CPythonChat>::ms_singleton
  0005b	ff 75 f8	 push	 DWORD PTR _szName$[ebp]
  0005e	ff 75 f4	 push	 DWORD PTR _iType$[ebp]
  00061	e8 00 00 00 00	 call	 ?AppendWhisper@CPythonChat@@QAEXHPBD0@Z ; CPythonChat::AppendWhisper

; 304  : 	return Py_BuildNone();

  00066	e8 00 00 00 00	 call	 ?Py_BuildNone@@YAPAU_object@@XZ ; Py_BuildNone
  0006b	5e		 pop	 esi

; 305  : }

  0006c	8b e5		 mov	 esp, ebp
  0006e	5d		 pop	 ebp
  0006f	c3		 ret	 0
?chatAppendWhisper@@YAPAU_object@@PAU1@0@Z ENDP		; chatAppendWhisper
_TEXT	ENDS
; Function compile flags: /Ogtp
; File D:\Metin2 Server Files\mainline\SRC_2014\Metin2Client\UserInterface\PythonChatModule.cpp
;	COMDAT ?chatCreateWhisper@@YAPAU_object@@PAU1@0@Z
_TEXT	SEGMENT
_szName$ = -4						; size = 4
_poSelf$ = 8						; size = 4
_poArgs$ = 12						; size = 4
?chatCreateWhisper@@YAPAU_object@@PAU1@0@Z PROC		; chatCreateWhisper, COMDAT

; 279  : {

  00000	55		 push	 ebp
  00001	8b ec		 mov	 ebp, esp
  00003	51		 push	 ecx

; 280  : 	char * szName;
; 281  : 	if (!PyTuple_GetString(poArgs, 0, &szName))

  00004	8d 45 fc	 lea	 eax, DWORD PTR _szName$[ebp]
  00007	50		 push	 eax
  00008	6a 00		 push	 0
  0000a	ff 75 0c	 push	 DWORD PTR _poArgs$[ebp]
  0000d	e8 00 00 00 00	 call	 ?PyTuple_GetString@@YA_NPAU_object@@HPAPAD@Z ; PyTuple_GetString
  00012	83 c4 0c	 add	 esp, 12			; 0000000cH
  00015	84 c0		 test	 al, al
  00017	75 0e		 jne	 SHORT $LN2@chatCreate

; 282  : 		return Py_BuildException();

  00019	6a 00		 push	 0
  0001b	e8 00 00 00 00	 call	 ?Py_BuildException@@YAPAU_object@@PBDZZ ; Py_BuildException
  00020	83 c4 04	 add	 esp, 4

; 287  : }

  00023	8b e5		 mov	 esp, ebp
  00025	5d		 pop	 ebp
  00026	c3		 ret	 0
$LN2@chatCreate:

; 283  : 
; 284  : 	CPythonChat::Instance().CreateWhisper(szName);

  00027	ff 75 fc	 push	 DWORD PTR _szName$[ebp]
  0002a	8b 0d 00 00 00
	00		 mov	 ecx, DWORD PTR ?ms_singleton@?$CSingleton@VCPythonChat@@@@0PAVCPythonChat@@A ; CSingleton<CPythonChat>::ms_singleton
  00030	e8 00 00 00 00	 call	 ?CreateWhisper@CPythonChat@@QAEPAVCWhisper@@PBD@Z ; CPythonChat::CreateWhisper

; 285  : 
; 286  : 	return Py_BuildNone();

  00035	e8 00 00 00 00	 call	 ?Py_BuildNone@@YAPAU_object@@XZ ; Py_BuildNone

; 287  : }

  0003a	8b e5		 mov	 esp, ebp
  0003c	5d		 pop	 ebp
  0003d	c3		 ret	 0
?chatCreateWhisper@@YAPAU_object@@PAU1@0@Z ENDP		; chatCreateWhisper
_TEXT	ENDS
; Function compile flags: /Ogtp
; File D:\Metin2 Server Files\mainline\SRC_2014\Metin2Client\UserInterface\PythonChatModule.cpp
;	COMDAT ?chatIsIgnoreCharacter@@YAPAU_object@@PAU1@0@Z
_TEXT	SEGMENT
_szName$ = -4						; size = 4
_poSelf$ = 8						; size = 4
_poArgs$ = 12						; size = 4
?chatIsIgnoreCharacter@@YAPAU_object@@PAU1@0@Z PROC	; chatIsIgnoreCharacter, COMDAT

; 268  : {

  00000	55		 push	 ebp
  00001	8b ec		 mov	 ebp, esp
  00003	51		 push	 ecx

; 269  : 	char * szName;
; 270  : 	if (!PyTuple_GetString(poArgs, 0, &szName))

  00004	8d 45 fc	 lea	 eax, DWORD PTR _szName$[ebp]
  00007	50		 push	 eax
  00008	6a 00		 push	 0
  0000a	ff 75 0c	 push	 DWORD PTR _poArgs$[ebp]
  0000d	e8 00 00 00 00	 call	 ?PyTuple_GetString@@YA_NPAU_object@@HPAPAD@Z ; PyTuple_GetString
  00012	83 c4 0c	 add	 esp, 12			; 0000000cH
  00015	84 c0		 test	 al, al
  00017	75 0e		 jne	 SHORT $LN2@chatIsIgno

; 271  : 		return Py_BuildException();

  00019	6a 00		 push	 0
  0001b	e8 00 00 00 00	 call	 ?Py_BuildException@@YAPAU_object@@PBDZZ ; Py_BuildException
  00020	83 c4 04	 add	 esp, 4

; 276  : }

  00023	8b e5		 mov	 esp, ebp
  00025	5d		 pop	 ebp
  00026	c3		 ret	 0
$LN2@chatIsIgno:

; 272  : 
; 273  : 	CPythonChat::Instance().IsIgnoreCharacter(szName);

  00027	ff 75 fc	 push	 DWORD PTR _szName$[ebp]
  0002a	8b 0d 00 00 00
	00		 mov	 ecx, DWORD PTR ?ms_singleton@?$CSingleton@VCPythonChat@@@@0PAVCPythonChat@@A ; CSingleton<CPythonChat>::ms_singleton
  00030	e8 00 00 00 00	 call	 ?IsIgnoreCharacter@CPythonChat@@QAEHPBD@Z ; CPythonChat::IsIgnoreCharacter

; 274  : 
; 275  : 	return Py_BuildNone();

  00035	e8 00 00 00 00	 call	 ?Py_BuildNone@@YAPAU_object@@XZ ; Py_BuildNone

; 276  : }

  0003a	8b e5		 mov	 esp, ebp
  0003c	5d		 pop	 ebp
  0003d	c3		 ret	 0
?chatIsIgnoreCharacter@@YAPAU_object@@PAU1@0@Z ENDP	; chatIsIgnoreCharacter
_TEXT	ENDS
; Function compile flags: /Ogtp
; File D:\Metin2 Server Files\mainline\SRC_2014\Metin2Client\UserInterface\PythonChatModule.cpp
;	COMDAT ?chatIgnoreCharacter@@YAPAU_object@@PAU1@0@Z
_TEXT	SEGMENT
_szName$ = -4						; size = 4
_poSelf$ = 8						; size = 4
_poArgs$ = 12						; size = 4
?chatIgnoreCharacter@@YAPAU_object@@PAU1@0@Z PROC	; chatIgnoreCharacter, COMDAT

; 257  : {

  00000	55		 push	 ebp
  00001	8b ec		 mov	 ebp, esp
  00003	51		 push	 ecx

; 258  : 	char * szName;
; 259  : 	if (!PyTuple_GetString(poArgs, 0, &szName))

  00004	8d 45 fc	 lea	 eax, DWORD PTR _szName$[ebp]
  00007	50		 push	 eax
  00008	6a 00		 push	 0
  0000a	ff 75 0c	 push	 DWORD PTR _poArgs$[ebp]
  0000d	e8 00 00 00 00	 call	 ?PyTuple_GetString@@YA_NPAU_object@@HPAPAD@Z ; PyTuple_GetString
  00012	83 c4 0c	 add	 esp, 12			; 0000000cH
  00015	84 c0		 test	 al, al
  00017	75 0e		 jne	 SHORT $LN2@chatIgnore

; 260  : 		return Py_BuildException();

  00019	6a 00		 push	 0
  0001b	e8 00 00 00 00	 call	 ?Py_BuildException@@YAPAU_object@@PBDZZ ; Py_BuildException
  00020	83 c4 04	 add	 esp, 4

; 265  : }

  00023	8b e5		 mov	 esp, ebp
  00025	5d		 pop	 ebp
  00026	c3		 ret	 0
$LN2@chatIgnore:

; 261  : 
; 262  : 	CPythonChat::Instance().IgnoreCharacter(szName);

  00027	ff 75 fc	 push	 DWORD PTR _szName$[ebp]
  0002a	8b 0d 00 00 00
	00		 mov	 ecx, DWORD PTR ?ms_singleton@?$CSingleton@VCPythonChat@@@@0PAVCPythonChat@@A ; CSingleton<CPythonChat>::ms_singleton
  00030	e8 00 00 00 00	 call	 ?IgnoreCharacter@CPythonChat@@QAEXPBD@Z ; CPythonChat::IgnoreCharacter

; 263  : 
; 264  : 	return Py_BuildNone();

  00035	e8 00 00 00 00	 call	 ?Py_BuildNone@@YAPAU_object@@XZ ; Py_BuildNone

; 265  : }

  0003a	8b e5		 mov	 esp, ebp
  0003c	5d		 pop	 ebp
  0003d	c3		 ret	 0
?chatIgnoreCharacter@@YAPAU_object@@PAU1@0@Z ENDP	; chatIgnoreCharacter
_TEXT	ENDS
; Function compile flags: /Ogtp
; File D:\Metin2 Server Files\mainline\SRC_2014\Metin2Client\UserInterface\PythonChatModule.cpp
;	COMDAT ?chatArrangeShowingChat@@YAPAU_object@@PAU1@0@Z
_TEXT	SEGMENT
_iID$ = -4						; size = 4
_poSelf$ = 8						; size = 4
_poArgs$ = 12						; size = 4
?chatArrangeShowingChat@@YAPAU_object@@PAU1@0@Z PROC	; chatArrangeShowingChat, COMDAT

; 246  : {

  00000	55		 push	 ebp
  00001	8b ec		 mov	 ebp, esp
  00003	51		 push	 ecx

; 247  : 	int iID;
; 248  : 	if (!PyTuple_GetInteger(poArgs, 0, &iID))

  00004	8d 45 fc	 lea	 eax, DWORD PTR _iID$[ebp]
  00007	50		 push	 eax
  00008	6a 00		 push	 0
  0000a	ff 75 0c	 push	 DWORD PTR _poArgs$[ebp]
  0000d	e8 00 00 00 00	 call	 ?PyTuple_GetInteger@@YA_NPAU_object@@HPAH@Z ; PyTuple_GetInteger
  00012	83 c4 0c	 add	 esp, 12			; 0000000cH
  00015	84 c0		 test	 al, al
  00017	75 0e		 jne	 SHORT $LN2@chatArrang

; 249  : 		return Py_BuildException();

  00019	6a 00		 push	 0
  0001b	e8 00 00 00 00	 call	 ?Py_BuildException@@YAPAU_object@@PBDZZ ; Py_BuildException
  00020	83 c4 04	 add	 esp, 4

; 254  : }

  00023	8b e5		 mov	 esp, ebp
  00025	5d		 pop	 ebp
  00026	c3		 ret	 0
$LN2@chatArrang:

; 250  : 
; 251  : 	CPythonChat::Instance().ArrangeShowingChat(iID);

  00027	ff 75 fc	 push	 DWORD PTR _iID$[ebp]
  0002a	8b 0d 00 00 00
	00		 mov	 ecx, DWORD PTR ?ms_singleton@?$CSingleton@VCPythonChat@@@@0PAVCPythonChat@@A ; CSingleton<CPythonChat>::ms_singleton
  00030	e8 00 00 00 00	 call	 ?ArrangeShowingChat@CPythonChat@@QAEXK@Z ; CPythonChat::ArrangeShowingChat

; 252  : 
; 253  : 	return Py_BuildNone();

  00035	e8 00 00 00 00	 call	 ?Py_BuildNone@@YAPAU_object@@XZ ; Py_BuildNone

; 254  : }

  0003a	8b e5		 mov	 esp, ebp
  0003c	5d		 pop	 ebp
  0003d	c3		 ret	 0
?chatArrangeShowingChat@@YAPAU_object@@PAU1@0@Z ENDP	; chatArrangeShowingChat
_TEXT	ENDS
; Function compile flags: /Ogtp
; File D:\Metin2 Server Files\mainline\SRC_2014\Metin2Client\UserInterface\PythonChatModule.cpp
;	COMDAT ?chatAppendChatWithDelay@@YAPAU_object@@PAU1@0@Z
_TEXT	SEGMENT
_iType$ = -12						; size = 4
_szChat$ = -8						; size = 4
_iDelay$ = -4						; size = 4
_poSelf$ = 8						; size = 4
_poArgs$ = 12						; size = 4
?chatAppendChatWithDelay@@YAPAU_object@@PAU1@0@Z PROC	; chatAppendChatWithDelay, COMDAT

; 227  : {

  00000	55		 push	 ebp
  00001	8b ec		 mov	 ebp, esp
  00003	83 ec 0c	 sub	 esp, 12			; 0000000cH

; 228  : 	int iType;
; 229  : 	if (!PyTuple_GetInteger(poArgs, 0, &iType))

  00006	8d 45 f4	 lea	 eax, DWORD PTR _iType$[ebp]
  00009	56		 push	 esi
  0000a	8b 75 0c	 mov	 esi, DWORD PTR _poArgs$[ebp]
  0000d	50		 push	 eax
  0000e	6a 00		 push	 0
  00010	56		 push	 esi
  00011	e8 00 00 00 00	 call	 ?PyTuple_GetInteger@@YA_NPAU_object@@HPAH@Z ; PyTuple_GetInteger
  00016	83 c4 0c	 add	 esp, 12			; 0000000cH
  00019	84 c0		 test	 al, al
  0001b	75 0f		 jne	 SHORT $LN2@chatAppend
$LN6@chatAppend:

; 243  : }

  0001d	6a 00		 push	 0
  0001f	e8 00 00 00 00	 call	 ?Py_BuildException@@YAPAU_object@@PBDZZ ; Py_BuildException
  00024	83 c4 04	 add	 esp, 4
  00027	5e		 pop	 esi
  00028	8b e5		 mov	 esp, ebp
  0002a	5d		 pop	 ebp
  0002b	c3		 ret	 0
$LN2@chatAppend:

; 230  : 		return Py_BuildException();
; 231  : 
; 232  : 	char * szChat;
; 233  : 	if (!PyTuple_GetString(poArgs, 1, &szChat))

  0002c	8d 45 f8	 lea	 eax, DWORD PTR _szChat$[ebp]
  0002f	50		 push	 eax
  00030	6a 01		 push	 1
  00032	56		 push	 esi
  00033	e8 00 00 00 00	 call	 ?PyTuple_GetString@@YA_NPAU_object@@HPAPAD@Z ; PyTuple_GetString
  00038	83 c4 0c	 add	 esp, 12			; 0000000cH
  0003b	84 c0		 test	 al, al
  0003d	74 de		 je	 SHORT $LN6@chatAppend

; 234  : 		return Py_BuildException();
; 235  : 
; 236  : 	int iDelay;
; 237  : 	if (!PyTuple_GetInteger(poArgs, 2, &iDelay))

  0003f	8d 45 fc	 lea	 eax, DWORD PTR _iDelay$[ebp]
  00042	50		 push	 eax
  00043	6a 02		 push	 2
  00045	56		 push	 esi
  00046	e8 00 00 00 00	 call	 ?PyTuple_GetInteger@@YA_NPAU_object@@HPAH@Z ; PyTuple_GetInteger
  0004b	83 c4 0c	 add	 esp, 12			; 0000000cH
  0004e	84 c0		 test	 al, al
  00050	74 cb		 je	 SHORT $LN6@chatAppend

; 238  : 		return Py_BuildException();
; 239  : 
; 240  : 	CPythonChat::Instance().AppendChatWithDelay(iType, szChat, iDelay);

  00052	ff 75 fc	 push	 DWORD PTR _iDelay$[ebp]
  00055	8b 0d 00 00 00
	00		 mov	 ecx, DWORD PTR ?ms_singleton@?$CSingleton@VCPythonChat@@@@0PAVCPythonChat@@A ; CSingleton<CPythonChat>::ms_singleton
  0005b	ff 75 f8	 push	 DWORD PTR _szChat$[ebp]
  0005e	ff 75 f4	 push	 DWORD PTR _iType$[ebp]
  00061	e8 00 00 00 00	 call	 ?AppendChatWithDelay@CPythonChat@@QAEXHPBDH@Z ; CPythonChat::AppendChatWithDelay

; 241  : 
; 242  : 	return Py_BuildNone();

  00066	e8 00 00 00 00	 call	 ?Py_BuildNone@@YAPAU_object@@XZ ; Py_BuildNone
  0006b	5e		 pop	 esi

; 243  : }

  0006c	8b e5		 mov	 esp, ebp
  0006e	5d		 pop	 ebp
  0006f	c3		 ret	 0
?chatAppendChatWithDelay@@YAPAU_object@@PAU1@0@Z ENDP	; chatAppendChatWithDelay
_TEXT	ENDS
; Function compile flags: /Ogtp
; File D:\Metin2 Server Files\mainline\SRC_2014\Metin2Client\UserInterface\PythonChatModule.cpp
;	COMDAT ?chatAppendChat@@YAPAU_object@@PAU1@0@Z
_TEXT	SEGMENT
_iType$ = -8						; size = 4
_szChat$ = -4						; size = 4
_poSelf$ = 8						; size = 4
_poArgs$ = 12						; size = 4
?chatAppendChat@@YAPAU_object@@PAU1@0@Z PROC		; chatAppendChat, COMDAT

; 212  : {

  00000	55		 push	 ebp
  00001	8b ec		 mov	 ebp, esp
  00003	83 ec 08	 sub	 esp, 8

; 213  : 	int iType;
; 214  : 	if (!PyTuple_GetInteger(poArgs, 0, &iType))

  00006	8d 45 f8	 lea	 eax, DWORD PTR _iType$[ebp]
  00009	50		 push	 eax
  0000a	6a 00		 push	 0
  0000c	ff 75 0c	 push	 DWORD PTR _poArgs$[ebp]
  0000f	e8 00 00 00 00	 call	 ?PyTuple_GetInteger@@YA_NPAU_object@@HPAH@Z ; PyTuple_GetInteger
  00014	83 c4 0c	 add	 esp, 12			; 0000000cH
  00017	84 c0		 test	 al, al
  00019	75 0e		 jne	 SHORT $LN2@chatAppend
$LN5@chatAppend:

; 224  : }

  0001b	6a 00		 push	 0
  0001d	e8 00 00 00 00	 call	 ?Py_BuildException@@YAPAU_object@@PBDZZ ; Py_BuildException
  00022	83 c4 04	 add	 esp, 4
  00025	8b e5		 mov	 esp, ebp
  00027	5d		 pop	 ebp
  00028	c3		 ret	 0
$LN2@chatAppend:

; 215  : 		return Py_BuildException();
; 216  : 
; 217  : 	char * szChat;
; 218  : 	if (!PyTuple_GetString(poArgs, 1, &szChat))

  00029	8d 45 fc	 lea	 eax, DWORD PTR _szChat$[ebp]
  0002c	50		 push	 eax
  0002d	6a 01		 push	 1
  0002f	ff 75 0c	 push	 DWORD PTR _poArgs$[ebp]
  00032	e8 00 00 00 00	 call	 ?PyTuple_GetString@@YA_NPAU_object@@HPAPAD@Z ; PyTuple_GetString
  00037	83 c4 0c	 add	 esp, 12			; 0000000cH
  0003a	84 c0		 test	 al, al
  0003c	74 dd		 je	 SHORT $LN5@chatAppend

; 219  : 		return Py_BuildException();
; 220  : 
; 221  : 	CPythonChat::Instance().AppendChat(iType, szChat);

  0003e	8b 0d 00 00 00
	00		 mov	 ecx, DWORD PTR ?ms_singleton@?$CSingleton@VCPythonChat@@@@0PAVCPythonChat@@A ; CSingleton<CPythonChat>::ms_singleton
  00044	ff 75 fc	 push	 DWORD PTR _szChat$[ebp]
  00047	83 c1 04	 add	 ecx, 4
  0004a	ff 75 f8	 push	 DWORD PTR _iType$[ebp]
  0004d	8b 01		 mov	 eax, DWORD PTR [ecx]
  0004f	ff 50 04	 call	 DWORD PTR [eax+4]

; 222  : 
; 223  : 	return Py_BuildNone();

  00052	e8 00 00 00 00	 call	 ?Py_BuildNone@@YAPAU_object@@XZ ; Py_BuildNone

; 224  : }

  00057	8b e5		 mov	 esp, ebp
  00059	5d		 pop	 ebp
  0005a	c3		 ret	 0
?chatAppendChat@@YAPAU_object@@PAU1@0@Z ENDP		; chatAppendChat
_TEXT	ENDS
; Function compile flags: /Ogtp
; File D:\Metin2 Server Files\mainline\SRC_2014\Metin2Client\UserInterface\PythonChatModule.cpp
;	COMDAT ?chatGetLineStep@@YAPAU_object@@PAU1@0@Z
_TEXT	SEGMENT
_iID$ = -4						; size = 4
_poSelf$ = 8						; size = 4
_poArgs$ = 12						; size = 4
?chatGetLineStep@@YAPAU_object@@PAU1@0@Z PROC		; chatGetLineStep, COMDAT

; 203  : {

  00000	55		 push	 ebp
  00001	8b ec		 mov	 ebp, esp
  00003	51		 push	 ecx

; 204  : 	int iID;
; 205  : 	if (!PyTuple_GetInteger(poArgs, 0, &iID))

  00004	8d 45 fc	 lea	 eax, DWORD PTR _iID$[ebp]
  00007	50		 push	 eax
  00008	6a 00		 push	 0
  0000a	ff 75 0c	 push	 DWORD PTR _poArgs$[ebp]
  0000d	e8 00 00 00 00	 call	 ?PyTuple_GetInteger@@YA_NPAU_object@@HPAH@Z ; PyTuple_GetInteger
  00012	83 c4 0c	 add	 esp, 12			; 0000000cH
  00015	84 c0		 test	 al, al
  00017	75 0e		 jne	 SHORT $LN2@chatGetLin

; 206  : 		return Py_BuildException();

  00019	6a 00		 push	 0
  0001b	e8 00 00 00 00	 call	 ?Py_BuildException@@YAPAU_object@@PBDZZ ; Py_BuildException
  00020	83 c4 04	 add	 esp, 4

; 209  : }

  00023	8b e5		 mov	 esp, ebp
  00025	5d		 pop	 ebp
  00026	c3		 ret	 0
$LN2@chatGetLin:

; 207  : 
; 208  : 	return Py_BuildValue("i", CPythonChat::Instance().GetLineStep(iID));

  00027	ff 75 fc	 push	 DWORD PTR _iID$[ebp]
  0002a	8b 0d 00 00 00
	00		 mov	 ecx, DWORD PTR ?ms_singleton@?$CSingleton@VCPythonChat@@@@0PAVCPythonChat@@A ; CSingleton<CPythonChat>::ms_singleton
  00030	e8 00 00 00 00	 call	 ?GetLineStep@CPythonChat@@QAEHK@Z ; CPythonChat::GetLineStep
  00035	50		 push	 eax
  00036	68 00 00 00 00	 push	 OFFSET ??_C@_01KBJDNOO@i@
  0003b	ff 15 00 00 00
	00		 call	 DWORD PTR __imp__Py_BuildValue
  00041	83 c4 08	 add	 esp, 8

; 209  : }

  00044	8b e5		 mov	 esp, ebp
  00046	5d		 pop	 ebp
  00047	c3		 ret	 0
?chatGetLineStep@@YAPAU_object@@PAU1@0@Z ENDP		; chatGetLineStep
_TEXT	ENDS
; Function compile flags: /Ogtp
; File D:\Metin2 Server Files\mainline\SRC_2014\Metin2Client\UserInterface\PythonChatModule.cpp
;	COMDAT ?chatGetVisibleLineCount@@YAPAU_object@@PAU1@0@Z
_TEXT	SEGMENT
_iID$ = -4						; size = 4
_poSelf$ = 8						; size = 4
_poArgs$ = 12						; size = 4
?chatGetVisibleLineCount@@YAPAU_object@@PAU1@0@Z PROC	; chatGetVisibleLineCount, COMDAT

; 194  : {

  00000	55		 push	 ebp
  00001	8b ec		 mov	 ebp, esp
  00003	51		 push	 ecx

; 195  : 	int iID;
; 196  : 	if (!PyTuple_GetInteger(poArgs, 0, &iID))

  00004	8d 45 fc	 lea	 eax, DWORD PTR _iID$[ebp]
  00007	50		 push	 eax
  00008	6a 00		 push	 0
  0000a	ff 75 0c	 push	 DWORD PTR _poArgs$[ebp]
  0000d	e8 00 00 00 00	 call	 ?PyTuple_GetInteger@@YA_NPAU_object@@HPAH@Z ; PyTuple_GetInteger
  00012	83 c4 0c	 add	 esp, 12			; 0000000cH
  00015	84 c0		 test	 al, al
  00017	75 0e		 jne	 SHORT $LN2@chatGetVis

; 197  : 		return Py_BuildException();

  00019	6a 00		 push	 0
  0001b	e8 00 00 00 00	 call	 ?Py_BuildException@@YAPAU_object@@PBDZZ ; Py_BuildException
  00020	83 c4 04	 add	 esp, 4

; 200  : }

  00023	8b e5		 mov	 esp, ebp
  00025	5d		 pop	 ebp
  00026	c3		 ret	 0
$LN2@chatGetVis:

; 198  : 
; 199  : 	return Py_BuildValue("i", CPythonChat::Instance().GetVisibleLineCount(iID));

  00027	ff 75 fc	 push	 DWORD PTR _iID$[ebp]
  0002a	8b 0d 00 00 00
	00		 mov	 ecx, DWORD PTR ?ms_singleton@?$CSingleton@VCPythonChat@@@@0PAVCPythonChat@@A ; CSingleton<CPythonChat>::ms_singleton
  00030	e8 00 00 00 00	 call	 ?GetVisibleLineCount@CPythonChat@@QAEHK@Z ; CPythonChat::GetVisibleLineCount
  00035	50		 push	 eax
  00036	68 00 00 00 00	 push	 OFFSET ??_C@_01KBJDNOO@i@
  0003b	ff 15 00 00 00
	00		 call	 DWORD PTR __imp__Py_BuildValue
  00041	83 c4 08	 add	 esp, 8

; 200  : }

  00044	8b e5		 mov	 esp, ebp
  00046	5d		 pop	 ebp
  00047	c3		 ret	 0
?chatGetVisibleLineCount@@YAPAU_object@@PAU1@0@Z ENDP	; chatGetVisibleLineCount
_TEXT	ENDS
; Function compile flags: /Ogtp
; File D:\Metin2 Server Files\mainline\SRC_2014\Metin2Client\UserInterface\PythonChatModule.cpp
;	COMDAT ?chatGetLineCount@@YAPAU_object@@PAU1@0@Z
_TEXT	SEGMENT
_iID$ = -4						; size = 4
_poSelf$ = 8						; size = 4
_poArgs$ = 12						; size = 4
?chatGetLineCount@@YAPAU_object@@PAU1@0@Z PROC		; chatGetLineCount, COMDAT

; 185  : {

  00000	55		 push	 ebp
  00001	8b ec		 mov	 ebp, esp
  00003	51		 push	 ecx

; 186  : 	int iID;
; 187  : 	if (!PyTuple_GetInteger(poArgs, 0, &iID))

  00004	8d 45 fc	 lea	 eax, DWORD PTR _iID$[ebp]
  00007	50		 push	 eax
  00008	6a 00		 push	 0
  0000a	ff 75 0c	 push	 DWORD PTR _poArgs$[ebp]
  0000d	e8 00 00 00 00	 call	 ?PyTuple_GetInteger@@YA_NPAU_object@@HPAH@Z ; PyTuple_GetInteger
  00012	83 c4 0c	 add	 esp, 12			; 0000000cH
  00015	84 c0		 test	 al, al
  00017	75 0e		 jne	 SHORT $LN2@chatGetLin

; 188  : 		return Py_BuildException();

  00019	6a 00		 push	 0
  0001b	e8 00 00 00 00	 call	 ?Py_BuildException@@YAPAU_object@@PBDZZ ; Py_BuildException
  00020	83 c4 04	 add	 esp, 4

; 191  : }

  00023	8b e5		 mov	 esp, ebp
  00025	5d		 pop	 ebp
  00026	c3		 ret	 0
$LN2@chatGetLin:

; 189  : 
; 190  : 	return Py_BuildValue("i", CPythonChat::Instance().GetLineCount(iID));

  00027	ff 75 fc	 push	 DWORD PTR _iID$[ebp]
  0002a	8b 0d 00 00 00
	00		 mov	 ecx, DWORD PTR ?ms_singleton@?$CSingleton@VCPythonChat@@@@0PAVCPythonChat@@A ; CSingleton<CPythonChat>::ms_singleton
  00030	e8 00 00 00 00	 call	 ?GetLineCount@CPythonChat@@QAEHK@Z ; CPythonChat::GetLineCount
  00035	50		 push	 eax
  00036	68 00 00 00 00	 push	 OFFSET ??_C@_01KBJDNOO@i@
  0003b	ff 15 00 00 00
	00		 call	 DWORD PTR __imp__Py_BuildValue
  00041	83 c4 08	 add	 esp, 8

; 191  : }

  00044	8b e5		 mov	 esp, ebp
  00046	5d		 pop	 ebp
  00047	c3		 ret	 0
?chatGetLineCount@@YAPAU_object@@PAU1@0@Z ENDP		; chatGetLineCount
_TEXT	ENDS
; Function compile flags: /Ogtp
; File D:\Metin2 Server Files\mainline\SRC_2014\Metin2Client\UserInterface\PythonChatModule.cpp
;	COMDAT ?chatSetEndPos@@YAPAU_object@@PAU1@0@Z
_TEXT	SEGMENT
_iID$ = -8						; size = 4
_fPos$ = -4						; size = 4
_poSelf$ = 8						; size = 4
_poArgs$ = 12						; size = 4
?chatSetEndPos@@YAPAU_object@@PAU1@0@Z PROC		; chatSetEndPos, COMDAT

; 171  : {

  00000	55		 push	 ebp
  00001	8b ec		 mov	 ebp, esp
  00003	83 ec 08	 sub	 esp, 8

; 172  : 	int iID;
; 173  : 	if (!PyTuple_GetInteger(poArgs, 0, &iID))

  00006	8d 45 f8	 lea	 eax, DWORD PTR _iID$[ebp]
  00009	50		 push	 eax
  0000a	6a 00		 push	 0
  0000c	ff 75 0c	 push	 DWORD PTR _poArgs$[ebp]
  0000f	e8 00 00 00 00	 call	 ?PyTuple_GetInteger@@YA_NPAU_object@@HPAH@Z ; PyTuple_GetInteger
  00014	83 c4 0c	 add	 esp, 12			; 0000000cH
  00017	84 c0		 test	 al, al
  00019	75 0e		 jne	 SHORT $LN2@chatSetEnd
$LN5@chatSetEnd:

; 182  : }

  0001b	6a 00		 push	 0
  0001d	e8 00 00 00 00	 call	 ?Py_BuildException@@YAPAU_object@@PBDZZ ; Py_BuildException
  00022	83 c4 04	 add	 esp, 4
  00025	8b e5		 mov	 esp, ebp
  00027	5d		 pop	 ebp
  00028	c3		 ret	 0
$LN2@chatSetEnd:

; 174  : 		return Py_BuildException();
; 175  : 	float fPos;
; 176  : 	if (!PyTuple_GetFloat(poArgs, 1, &fPos))

  00029	8d 45 fc	 lea	 eax, DWORD PTR _fPos$[ebp]
  0002c	50		 push	 eax
  0002d	6a 01		 push	 1
  0002f	ff 75 0c	 push	 DWORD PTR _poArgs$[ebp]
  00032	e8 00 00 00 00	 call	 ?PyTuple_GetFloat@@YA_NPAU_object@@HPAM@Z ; PyTuple_GetFloat
  00037	83 c4 0c	 add	 esp, 12			; 0000000cH
  0003a	84 c0		 test	 al, al
  0003c	74 dd		 je	 SHORT $LN5@chatSetEnd

; 177  : 		return Py_BuildException();
; 178  : 
; 179  : 	CPythonChat::Instance().SetEndPos(iID, fPos);

  0003e	f3 0f 10 45 fc	 movss	 xmm0, DWORD PTR _fPos$[ebp]
  00043	51		 push	 ecx
  00044	8b 0d 00 00 00
	00		 mov	 ecx, DWORD PTR ?ms_singleton@?$CSingleton@VCPythonChat@@@@0PAVCPythonChat@@A ; CSingleton<CPythonChat>::ms_singleton
  0004a	f3 0f 11 04 24	 movss	 DWORD PTR [esp], xmm0
  0004f	ff 75 f8	 push	 DWORD PTR _iID$[ebp]
  00052	e8 00 00 00 00	 call	 ?SetEndPos@CPythonChat@@QAEXKM@Z ; CPythonChat::SetEndPos

; 180  : 
; 181  : 	return Py_BuildNone();

  00057	e8 00 00 00 00	 call	 ?Py_BuildNone@@YAPAU_object@@XZ ; Py_BuildNone

; 182  : }

  0005c	8b e5		 mov	 esp, ebp
  0005e	5d		 pop	 ebp
  0005f	c3		 ret	 0
?chatSetEndPos@@YAPAU_object@@PAU1@0@Z ENDP		; chatSetEndPos
_TEXT	ENDS
; Function compile flags: /Ogtp
; File D:\Metin2 Server Files\mainline\SRC_2014\Metin2Client\UserInterface\PythonChatModule.cpp
;	COMDAT ?chatDisableChatMode@@YAPAU_object@@PAU1@0@Z
_TEXT	SEGMENT
_iID$ = -8						; size = 4
_iType$ = -4						; size = 4
_poSelf$ = 8						; size = 4
_poArgs$ = 12						; size = 4
?chatDisableChatMode@@YAPAU_object@@PAU1@0@Z PROC	; chatDisableChatMode, COMDAT

; 157  : {

  00000	55		 push	 ebp
  00001	8b ec		 mov	 ebp, esp
  00003	83 ec 08	 sub	 esp, 8

; 158  : 	int iID;
; 159  : 	if (!PyTuple_GetInteger(poArgs, 0, &iID))

  00006	8d 45 f8	 lea	 eax, DWORD PTR _iID$[ebp]
  00009	50		 push	 eax
  0000a	6a 00		 push	 0
  0000c	ff 75 0c	 push	 DWORD PTR _poArgs$[ebp]
  0000f	e8 00 00 00 00	 call	 ?PyTuple_GetInteger@@YA_NPAU_object@@HPAH@Z ; PyTuple_GetInteger
  00014	83 c4 0c	 add	 esp, 12			; 0000000cH
  00017	84 c0		 test	 al, al
  00019	75 0e		 jne	 SHORT $LN2@chatDisabl
$LN5@chatDisabl:

; 168  : }

  0001b	6a 00		 push	 0
  0001d	e8 00 00 00 00	 call	 ?Py_BuildException@@YAPAU_object@@PBDZZ ; Py_BuildException
  00022	83 c4 04	 add	 esp, 4
  00025	8b e5		 mov	 esp, ebp
  00027	5d		 pop	 ebp
  00028	c3		 ret	 0
$LN2@chatDisabl:

; 160  : 		return Py_BuildException();
; 161  : 	int iType;
; 162  : 	if (!PyTuple_GetInteger(poArgs, 1, &iType))

  00029	8d 45 fc	 lea	 eax, DWORD PTR _iType$[ebp]
  0002c	50		 push	 eax
  0002d	6a 01		 push	 1
  0002f	ff 75 0c	 push	 DWORD PTR _poArgs$[ebp]
  00032	e8 00 00 00 00	 call	 ?PyTuple_GetInteger@@YA_NPAU_object@@HPAH@Z ; PyTuple_GetInteger
  00037	83 c4 0c	 add	 esp, 12			; 0000000cH
  0003a	84 c0		 test	 al, al
  0003c	74 dd		 je	 SHORT $LN5@chatDisabl

; 163  : 		return Py_BuildException();
; 164  : 
; 165  : 	CPythonChat::Instance().DisableChatMode(iID, iType);

  0003e	ff 75 fc	 push	 DWORD PTR _iType$[ebp]
  00041	8b 0d 00 00 00
	00		 mov	 ecx, DWORD PTR ?ms_singleton@?$CSingleton@VCPythonChat@@@@0PAVCPythonChat@@A ; CSingleton<CPythonChat>::ms_singleton
  00047	ff 75 f8	 push	 DWORD PTR _iID$[ebp]
  0004a	e8 00 00 00 00	 call	 ?DisableChatMode@CPythonChat@@QAEXKH@Z ; CPythonChat::DisableChatMode

; 166  : 
; 167  : 	return Py_BuildNone();

  0004f	e8 00 00 00 00	 call	 ?Py_BuildNone@@YAPAU_object@@XZ ; Py_BuildNone

; 168  : }

  00054	8b e5		 mov	 esp, ebp
  00056	5d		 pop	 ebp
  00057	c3		 ret	 0
?chatDisableChatMode@@YAPAU_object@@PAU1@0@Z ENDP	; chatDisableChatMode
_TEXT	ENDS
; Function compile flags: /Ogtp
; File D:\Metin2 Server Files\mainline\SRC_2014\Metin2Client\UserInterface\PythonChatModule.cpp
;	COMDAT ?chatEnableChatMode@@YAPAU_object@@PAU1@0@Z
_TEXT	SEGMENT
_iID$ = -8						; size = 4
_iType$ = -4						; size = 4
_poSelf$ = 8						; size = 4
_poArgs$ = 12						; size = 4
?chatEnableChatMode@@YAPAU_object@@PAU1@0@Z PROC	; chatEnableChatMode, COMDAT

; 143  : {

  00000	55		 push	 ebp
  00001	8b ec		 mov	 ebp, esp
  00003	83 ec 08	 sub	 esp, 8

; 144  : 	int iID;
; 145  : 	if (!PyTuple_GetInteger(poArgs, 0, &iID))

  00006	8d 45 f8	 lea	 eax, DWORD PTR _iID$[ebp]
  00009	50		 push	 eax
  0000a	6a 00		 push	 0
  0000c	ff 75 0c	 push	 DWORD PTR _poArgs$[ebp]
  0000f	e8 00 00 00 00	 call	 ?PyTuple_GetInteger@@YA_NPAU_object@@HPAH@Z ; PyTuple_GetInteger
  00014	83 c4 0c	 add	 esp, 12			; 0000000cH
  00017	84 c0		 test	 al, al
  00019	75 0e		 jne	 SHORT $LN2@chatEnable
$LN5@chatEnable:

; 154  : }

  0001b	6a 00		 push	 0
  0001d	e8 00 00 00 00	 call	 ?Py_BuildException@@YAPAU_object@@PBDZZ ; Py_BuildException
  00022	83 c4 04	 add	 esp, 4
  00025	8b e5		 mov	 esp, ebp
  00027	5d		 pop	 ebp
  00028	c3		 ret	 0
$LN2@chatEnable:

; 146  : 		return Py_BuildException();
; 147  : 	int iType;
; 148  : 	if (!PyTuple_GetInteger(poArgs, 1, &iType))

  00029	8d 45 fc	 lea	 eax, DWORD PTR _iType$[ebp]
  0002c	50		 push	 eax
  0002d	6a 01		 push	 1
  0002f	ff 75 0c	 push	 DWORD PTR _poArgs$[ebp]
  00032	e8 00 00 00 00	 call	 ?PyTuple_GetInteger@@YA_NPAU_object@@HPAH@Z ; PyTuple_GetInteger
  00037	83 c4 0c	 add	 esp, 12			; 0000000cH
  0003a	84 c0		 test	 al, al
  0003c	74 dd		 je	 SHORT $LN5@chatEnable

; 149  : 		return Py_BuildException();
; 150  : 
; 151  : 	CPythonChat::Instance().EnableChatMode(iID, iType);

  0003e	ff 75 fc	 push	 DWORD PTR _iType$[ebp]
  00041	8b 0d 00 00 00
	00		 mov	 ecx, DWORD PTR ?ms_singleton@?$CSingleton@VCPythonChat@@@@0PAVCPythonChat@@A ; CSingleton<CPythonChat>::ms_singleton
  00047	ff 75 f8	 push	 DWORD PTR _iID$[ebp]
  0004a	e8 00 00 00 00	 call	 ?EnableChatMode@CPythonChat@@QAEXKH@Z ; CPythonChat::EnableChatMode

; 152  : 
; 153  : 	return Py_BuildNone();

  0004f	e8 00 00 00 00	 call	 ?Py_BuildNone@@YAPAU_object@@XZ ; Py_BuildNone

; 154  : }

  00054	8b e5		 mov	 esp, ebp
  00056	5d		 pop	 ebp
  00057	c3		 ret	 0
?chatEnableChatMode@@YAPAU_object@@PAU1@0@Z ENDP	; chatEnableChatMode
_TEXT	ENDS
; Function compile flags: /Ogtp
; File D:\Metin2 Server Files\mainline\SRC_2014\Metin2Client\UserInterface\PythonChatModule.cpp
;	COMDAT ?chatToggleChatMode@@YAPAU_object@@PAU1@0@Z
_TEXT	SEGMENT
_iID$ = -8						; size = 4
_iType$ = -4						; size = 4
_poSelf$ = 8						; size = 4
_poArgs$ = 12						; size = 4
?chatToggleChatMode@@YAPAU_object@@PAU1@0@Z PROC	; chatToggleChatMode, COMDAT

; 129  : {

  00000	55		 push	 ebp
  00001	8b ec		 mov	 ebp, esp
  00003	83 ec 08	 sub	 esp, 8

; 130  : 	int iID;
; 131  : 	if (!PyTuple_GetInteger(poArgs, 0, &iID))

  00006	8d 45 f8	 lea	 eax, DWORD PTR _iID$[ebp]
  00009	50		 push	 eax
  0000a	6a 00		 push	 0
  0000c	ff 75 0c	 push	 DWORD PTR _poArgs$[ebp]
  0000f	e8 00 00 00 00	 call	 ?PyTuple_GetInteger@@YA_NPAU_object@@HPAH@Z ; PyTuple_GetInteger
  00014	83 c4 0c	 add	 esp, 12			; 0000000cH
  00017	84 c0		 test	 al, al
  00019	75 0e		 jne	 SHORT $LN2@chatToggle
$LN5@chatToggle:

; 140  : }

  0001b	6a 00		 push	 0
  0001d	e8 00 00 00 00	 call	 ?Py_BuildException@@YAPAU_object@@PBDZZ ; Py_BuildException
  00022	83 c4 04	 add	 esp, 4
  00025	8b e5		 mov	 esp, ebp
  00027	5d		 pop	 ebp
  00028	c3		 ret	 0
$LN2@chatToggle:

; 132  : 		return Py_BuildException();
; 133  : 	int iType;
; 134  : 	if (!PyTuple_GetInteger(poArgs, 1, &iType))

  00029	8d 45 fc	 lea	 eax, DWORD PTR _iType$[ebp]
  0002c	50		 push	 eax
  0002d	6a 01		 push	 1
  0002f	ff 75 0c	 push	 DWORD PTR _poArgs$[ebp]
  00032	e8 00 00 00 00	 call	 ?PyTuple_GetInteger@@YA_NPAU_object@@HPAH@Z ; PyTuple_GetInteger
  00037	83 c4 0c	 add	 esp, 12			; 0000000cH
  0003a	84 c0		 test	 al, al
  0003c	74 dd		 je	 SHORT $LN5@chatToggle

; 135  : 		return Py_BuildException();
; 136  : 
; 137  : 	CPythonChat::Instance().ToggleChatMode(iID, iType);

  0003e	ff 75 fc	 push	 DWORD PTR _iType$[ebp]
  00041	8b 0d 00 00 00
	00		 mov	 ecx, DWORD PTR ?ms_singleton@?$CSingleton@VCPythonChat@@@@0PAVCPythonChat@@A ; CSingleton<CPythonChat>::ms_singleton
  00047	ff 75 f8	 push	 DWORD PTR _iID$[ebp]
  0004a	e8 00 00 00 00	 call	 ?ToggleChatMode@CPythonChat@@QAEXKH@Z ; CPythonChat::ToggleChatMode

; 138  : 
; 139  : 	return Py_BuildNone();

  0004f	e8 00 00 00 00	 call	 ?Py_BuildNone@@YAPAU_object@@XZ ; Py_BuildNone

; 140  : }

  00054	8b e5		 mov	 esp, ebp
  00056	5d		 pop	 ebp
  00057	c3		 ret	 0
?chatToggleChatMode@@YAPAU_object@@PAU1@0@Z ENDP	; chatToggleChatMode
_TEXT	ENDS
; Function compile flags: /Ogtp
; File D:\Metin2 Server Files\mainline\SRC_2014\Metin2Client\UserInterface\PythonChatModule.cpp
;	COMDAT ?chatSetStep@@YAPAU_object@@PAU1@0@Z
_TEXT	SEGMENT
_iID$ = -8						; size = 4
_iStep$ = -4						; size = 4
_poSelf$ = 8						; size = 4
_poArgs$ = 12						; size = 4
?chatSetStep@@YAPAU_object@@PAU1@0@Z PROC		; chatSetStep, COMDAT

; 115  : {

  00000	55		 push	 ebp
  00001	8b ec		 mov	 ebp, esp
  00003	83 ec 08	 sub	 esp, 8

; 116  : 	int iID;
; 117  : 	if (!PyTuple_GetInteger(poArgs, 0, &iID))

  00006	8d 45 f8	 lea	 eax, DWORD PTR _iID$[ebp]
  00009	50		 push	 eax
  0000a	6a 00		 push	 0
  0000c	ff 75 0c	 push	 DWORD PTR _poArgs$[ebp]
  0000f	e8 00 00 00 00	 call	 ?PyTuple_GetInteger@@YA_NPAU_object@@HPAH@Z ; PyTuple_GetInteger
  00014	83 c4 0c	 add	 esp, 12			; 0000000cH
  00017	84 c0		 test	 al, al
  00019	75 0e		 jne	 SHORT $LN2@chatSetSte
$LN5@chatSetSte:

; 126  : }

  0001b	6a 00		 push	 0
  0001d	e8 00 00 00 00	 call	 ?Py_BuildException@@YAPAU_object@@PBDZZ ; Py_BuildException
  00022	83 c4 04	 add	 esp, 4
  00025	8b e5		 mov	 esp, ebp
  00027	5d		 pop	 ebp
  00028	c3		 ret	 0
$LN2@chatSetSte:

; 118  : 		return Py_BuildException();
; 119  : 	int iStep;
; 120  : 	if (!PyTuple_GetInteger(poArgs, 1, &iStep))

  00029	8d 45 fc	 lea	 eax, DWORD PTR _iStep$[ebp]
  0002c	50		 push	 eax
  0002d	6a 01		 push	 1
  0002f	ff 75 0c	 push	 DWORD PTR _poArgs$[ebp]
  00032	e8 00 00 00 00	 call	 ?PyTuple_GetInteger@@YA_NPAU_object@@HPAH@Z ; PyTuple_GetInteger
  00037	83 c4 0c	 add	 esp, 12			; 0000000cH
  0003a	84 c0		 test	 al, al
  0003c	74 dd		 je	 SHORT $LN5@chatSetSte

; 121  : 		return Py_BuildException();
; 122  : 
; 123  : 	CPythonChat::Instance().SetStep(iID, iStep);

  0003e	ff 75 fc	 push	 DWORD PTR _iStep$[ebp]
  00041	8b 0d 00 00 00
	00		 mov	 ecx, DWORD PTR ?ms_singleton@?$CSingleton@VCPythonChat@@@@0PAVCPythonChat@@A ; CSingleton<CPythonChat>::ms_singleton
  00047	ff 75 f8	 push	 DWORD PTR _iID$[ebp]
  0004a	e8 00 00 00 00	 call	 ?SetStep@CPythonChat@@QAEXKH@Z ; CPythonChat::SetStep

; 124  : 
; 125  : 	return Py_BuildNone();

  0004f	e8 00 00 00 00	 call	 ?Py_BuildNone@@YAPAU_object@@XZ ; Py_BuildNone

; 126  : }

  00054	8b e5		 mov	 esp, ebp
  00056	5d		 pop	 ebp
  00057	c3		 ret	 0
?chatSetStep@@YAPAU_object@@PAU1@0@Z ENDP		; chatSetStep
_TEXT	ENDS
; Function compile flags: /Ogtp
; File D:\Metin2 Server Files\mainline\SRC_2014\Metin2Client\UserInterface\PythonChatModule.cpp
;	COMDAT ?chatSetHeight@@YAPAU_object@@PAU1@0@Z
_TEXT	SEGMENT
_iID$ = -8						; size = 4
_iHeight$ = -4						; size = 4
_poSelf$ = 8						; size = 4
_poArgs$ = 12						; size = 4
?chatSetHeight@@YAPAU_object@@PAU1@0@Z PROC		; chatSetHeight, COMDAT

; 101  : {

  00000	55		 push	 ebp
  00001	8b ec		 mov	 ebp, esp
  00003	83 ec 08	 sub	 esp, 8

; 102  : 	int iID;
; 103  : 	if (!PyTuple_GetInteger(poArgs, 0, &iID))

  00006	8d 45 f8	 lea	 eax, DWORD PTR _iID$[ebp]
  00009	50		 push	 eax
  0000a	6a 00		 push	 0
  0000c	ff 75 0c	 push	 DWORD PTR _poArgs$[ebp]
  0000f	e8 00 00 00 00	 call	 ?PyTuple_GetInteger@@YA_NPAU_object@@HPAH@Z ; PyTuple_GetInteger
  00014	83 c4 0c	 add	 esp, 12			; 0000000cH
  00017	84 c0		 test	 al, al
  00019	75 0e		 jne	 SHORT $LN2@chatSetHei
$LN5@chatSetHei:

; 112  : }

  0001b	6a 00		 push	 0
  0001d	e8 00 00 00 00	 call	 ?Py_BuildException@@YAPAU_object@@PBDZZ ; Py_BuildException
  00022	83 c4 04	 add	 esp, 4
  00025	8b e5		 mov	 esp, ebp
  00027	5d		 pop	 ebp
  00028	c3		 ret	 0
$LN2@chatSetHei:

; 104  : 		return Py_BuildException();
; 105  : 	int iHeight;
; 106  : 	if (!PyTuple_GetInteger(poArgs, 1, &iHeight))

  00029	8d 45 fc	 lea	 eax, DWORD PTR _iHeight$[ebp]
  0002c	50		 push	 eax
  0002d	6a 01		 push	 1
  0002f	ff 75 0c	 push	 DWORD PTR _poArgs$[ebp]
  00032	e8 00 00 00 00	 call	 ?PyTuple_GetInteger@@YA_NPAU_object@@HPAH@Z ; PyTuple_GetInteger
  00037	83 c4 0c	 add	 esp, 12			; 0000000cH
  0003a	84 c0		 test	 al, al
  0003c	74 dd		 je	 SHORT $LN5@chatSetHei

; 107  : 		return Py_BuildException();
; 108  : 
; 109  : 	CPythonChat::Instance().SetHeight(iID, iHeight);

  0003e	ff 75 fc	 push	 DWORD PTR _iHeight$[ebp]
  00041	8b 0d 00 00 00
	00		 mov	 ecx, DWORD PTR ?ms_singleton@?$CSingleton@VCPythonChat@@@@0PAVCPythonChat@@A ; CSingleton<CPythonChat>::ms_singleton
  00047	ff 75 f8	 push	 DWORD PTR _iID$[ebp]
  0004a	e8 00 00 00 00	 call	 ?SetHeight@CPythonChat@@QAEXKH@Z ; CPythonChat::SetHeight

; 110  : 
; 111  : 	return Py_BuildNone();

  0004f	e8 00 00 00 00	 call	 ?Py_BuildNone@@YAPAU_object@@XZ ; Py_BuildNone

; 112  : }

  00054	8b e5		 mov	 esp, ebp
  00056	5d		 pop	 ebp
  00057	c3		 ret	 0
?chatSetHeight@@YAPAU_object@@PAU1@0@Z ENDP		; chatSetHeight
_TEXT	ENDS
; Function compile flags: /Ogtp
; File D:\Metin2 Server Files\mainline\SRC_2014\Metin2Client\UserInterface\PythonChatModule.cpp
;	COMDAT ?chatSetPosition@@YAPAU_object@@PAU1@0@Z
_TEXT	SEGMENT
_iID$ = -12						; size = 4
_ix$ = -8						; size = 4
_iy$ = -4						; size = 4
_poSelf$ = 8						; size = 4
_poArgs$ = 12						; size = 4
?chatSetPosition@@YAPAU_object@@PAU1@0@Z PROC		; chatSetPosition, COMDAT

; 84   : {

  00000	55		 push	 ebp
  00001	8b ec		 mov	 ebp, esp
  00003	83 ec 0c	 sub	 esp, 12			; 0000000cH

; 85   : 	int iID;
; 86   : 	if (!PyTuple_GetInteger(poArgs, 0, &iID))

  00006	8d 45 f4	 lea	 eax, DWORD PTR _iID$[ebp]
  00009	56		 push	 esi
  0000a	8b 75 0c	 mov	 esi, DWORD PTR _poArgs$[ebp]
  0000d	50		 push	 eax
  0000e	6a 00		 push	 0
  00010	56		 push	 esi
  00011	e8 00 00 00 00	 call	 ?PyTuple_GetInteger@@YA_NPAU_object@@HPAH@Z ; PyTuple_GetInteger
  00016	83 c4 0c	 add	 esp, 12			; 0000000cH
  00019	84 c0		 test	 al, al
  0001b	75 0f		 jne	 SHORT $LN2@chatSetPos
$LN6@chatSetPos:

; 98   : }

  0001d	6a 00		 push	 0
  0001f	e8 00 00 00 00	 call	 ?Py_BuildException@@YAPAU_object@@PBDZZ ; Py_BuildException
  00024	83 c4 04	 add	 esp, 4
  00027	5e		 pop	 esi
  00028	8b e5		 mov	 esp, ebp
  0002a	5d		 pop	 ebp
  0002b	c3		 ret	 0
$LN2@chatSetPos:

; 87   : 		return Py_BuildException();
; 88   : 	int ix;
; 89   : 	if (!PyTuple_GetInteger(poArgs, 1, &ix))

  0002c	8d 45 f8	 lea	 eax, DWORD PTR _ix$[ebp]
  0002f	50		 push	 eax
  00030	6a 01		 push	 1
  00032	56		 push	 esi
  00033	e8 00 00 00 00	 call	 ?PyTuple_GetInteger@@YA_NPAU_object@@HPAH@Z ; PyTuple_GetInteger
  00038	83 c4 0c	 add	 esp, 12			; 0000000cH
  0003b	84 c0		 test	 al, al
  0003d	74 de		 je	 SHORT $LN6@chatSetPos

; 90   : 		return Py_BuildException();
; 91   : 	int iy;
; 92   : 	if (!PyTuple_GetInteger(poArgs, 2, &iy))

  0003f	8d 45 fc	 lea	 eax, DWORD PTR _iy$[ebp]
  00042	50		 push	 eax
  00043	6a 02		 push	 2
  00045	56		 push	 esi
  00046	e8 00 00 00 00	 call	 ?PyTuple_GetInteger@@YA_NPAU_object@@HPAH@Z ; PyTuple_GetInteger
  0004b	83 c4 0c	 add	 esp, 12			; 0000000cH
  0004e	84 c0		 test	 al, al
  00050	74 cb		 je	 SHORT $LN6@chatSetPos

; 93   : 		return Py_BuildException();
; 94   : 
; 95   : 	CPythonChat::Instance().SetPosition(iID, ix, iy);

  00052	ff 75 fc	 push	 DWORD PTR _iy$[ebp]
  00055	8b 0d 00 00 00
	00		 mov	 ecx, DWORD PTR ?ms_singleton@?$CSingleton@VCPythonChat@@@@0PAVCPythonChat@@A ; CSingleton<CPythonChat>::ms_singleton
  0005b	ff 75 f8	 push	 DWORD PTR _ix$[ebp]
  0005e	ff 75 f4	 push	 DWORD PTR _iID$[ebp]
  00061	e8 00 00 00 00	 call	 ?SetPosition@CPythonChat@@QAEXKHH@Z ; CPythonChat::SetPosition

; 96   : 
; 97   : 	return Py_BuildNone();

  00066	e8 00 00 00 00	 call	 ?Py_BuildNone@@YAPAU_object@@XZ ; Py_BuildNone
  0006b	5e		 pop	 esi

; 98   : }

  0006c	8b e5		 mov	 esp, ebp
  0006e	5d		 pop	 ebp
  0006f	c3		 ret	 0
?chatSetPosition@@YAPAU_object@@PAU1@0@Z ENDP		; chatSetPosition
_TEXT	ENDS
; Function compile flags: /Ogtp
; File D:\Metin2 Server Files\mainline\SRC_2014\Metin2Client\UserInterface\PythonChatModule.cpp
;	COMDAT ?chatSetBoardState@@YAPAU_object@@PAU1@0@Z
_TEXT	SEGMENT
_iID$ = -8						; size = 4
_iState$ = -4						; size = 4
_poSelf$ = 8						; size = 4
_poArgs$ = 12						; size = 4
?chatSetBoardState@@YAPAU_object@@PAU1@0@Z PROC		; chatSetBoardState, COMDAT

; 70   : {

  00000	55		 push	 ebp
  00001	8b ec		 mov	 ebp, esp
  00003	83 ec 08	 sub	 esp, 8

; 71   : 	int iID;
; 72   : 	if (!PyTuple_GetInteger(poArgs, 0, &iID))

  00006	8d 45 f8	 lea	 eax, DWORD PTR _iID$[ebp]
  00009	50		 push	 eax
  0000a	6a 00		 push	 0
  0000c	ff 75 0c	 push	 DWORD PTR _poArgs$[ebp]
  0000f	e8 00 00 00 00	 call	 ?PyTuple_GetInteger@@YA_NPAU_object@@HPAH@Z ; PyTuple_GetInteger
  00014	83 c4 0c	 add	 esp, 12			; 0000000cH
  00017	84 c0		 test	 al, al
  00019	75 0e		 jne	 SHORT $LN2@chatSetBoa
$LN5@chatSetBoa:

; 81   : }

  0001b	6a 00		 push	 0
  0001d	e8 00 00 00 00	 call	 ?Py_BuildException@@YAPAU_object@@PBDZZ ; Py_BuildException
  00022	83 c4 04	 add	 esp, 4
  00025	8b e5		 mov	 esp, ebp
  00027	5d		 pop	 ebp
  00028	c3		 ret	 0
$LN2@chatSetBoa:

; 73   : 		return Py_BuildException();
; 74   : 	int iState;
; 75   : 	if (!PyTuple_GetInteger(poArgs, 1, &iState))

  00029	8d 45 fc	 lea	 eax, DWORD PTR _iState$[ebp]
  0002c	50		 push	 eax
  0002d	6a 01		 push	 1
  0002f	ff 75 0c	 push	 DWORD PTR _poArgs$[ebp]
  00032	e8 00 00 00 00	 call	 ?PyTuple_GetInteger@@YA_NPAU_object@@HPAH@Z ; PyTuple_GetInteger
  00037	83 c4 0c	 add	 esp, 12			; 0000000cH
  0003a	84 c0		 test	 al, al
  0003c	74 dd		 je	 SHORT $LN5@chatSetBoa

; 76   : 		return Py_BuildException();
; 77   : 
; 78   : 	CPythonChat::Instance().SetBoardState(iID, iState);

  0003e	ff 75 fc	 push	 DWORD PTR _iState$[ebp]
  00041	8b 0d 00 00 00
	00		 mov	 ecx, DWORD PTR ?ms_singleton@?$CSingleton@VCPythonChat@@@@0PAVCPythonChat@@A ; CSingleton<CPythonChat>::ms_singleton
  00047	ff 75 f8	 push	 DWORD PTR _iID$[ebp]
  0004a	e8 00 00 00 00	 call	 ?SetBoardState@CPythonChat@@QAEXKH@Z ; CPythonChat::SetBoardState

; 79   : 
; 80   : 	return Py_BuildNone();

  0004f	e8 00 00 00 00	 call	 ?Py_BuildNone@@YAPAU_object@@XZ ; Py_BuildNone

; 81   : }

  00054	8b e5		 mov	 esp, ebp
  00056	5d		 pop	 ebp
  00057	c3		 ret	 0
?chatSetBoardState@@YAPAU_object@@PAU1@0@Z ENDP		; chatSetBoardState
_TEXT	ENDS
; Function compile flags: /Ogtp
; File D:\Metin2 Server Files\mainline\SRC_2014\Metin2Client\UserInterface\PythonChatModule.cpp
;	COMDAT ?chatRender@@YAPAU_object@@PAU1@0@Z
_TEXT	SEGMENT
_iID$ = -4						; size = 4
_poSelf$ = 8						; size = 4
_poArgs$ = 12						; size = 4
?chatRender@@YAPAU_object@@PAU1@0@Z PROC		; chatRender, COMDAT

; 60   : {

  00000	55		 push	 ebp
  00001	8b ec		 mov	 ebp, esp
  00003	51		 push	 ecx

; 61   : 	int iID;
; 62   : 	if (!PyTuple_GetInteger(poArgs, 0, &iID))

  00004	8d 45 fc	 lea	 eax, DWORD PTR _iID$[ebp]
  00007	50		 push	 eax
  00008	6a 00		 push	 0
  0000a	ff 75 0c	 push	 DWORD PTR _poArgs$[ebp]
  0000d	e8 00 00 00 00	 call	 ?PyTuple_GetInteger@@YA_NPAU_object@@HPAH@Z ; PyTuple_GetInteger
  00012	83 c4 0c	 add	 esp, 12			; 0000000cH
  00015	84 c0		 test	 al, al
  00017	75 0e		 jne	 SHORT $LN2@chatRender

; 63   : 		return Py_BuildException();

  00019	6a 00		 push	 0
  0001b	e8 00 00 00 00	 call	 ?Py_BuildException@@YAPAU_object@@PBDZZ ; Py_BuildException
  00020	83 c4 04	 add	 esp, 4

; 67   : }

  00023	8b e5		 mov	 esp, ebp
  00025	5d		 pop	 ebp
  00026	c3		 ret	 0
$LN2@chatRender:

; 64   : 
; 65   : 	CPythonChat::Instance().Render(iID);

  00027	ff 75 fc	 push	 DWORD PTR _iID$[ebp]
  0002a	8b 0d 00 00 00
	00		 mov	 ecx, DWORD PTR ?ms_singleton@?$CSingleton@VCPythonChat@@@@0PAVCPythonChat@@A ; CSingleton<CPythonChat>::ms_singleton
  00030	e8 00 00 00 00	 call	 ?Render@CPythonChat@@QAEXK@Z ; CPythonChat::Render

; 66   : 	return Py_BuildNone();

  00035	e8 00 00 00 00	 call	 ?Py_BuildNone@@YAPAU_object@@XZ ; Py_BuildNone

; 67   : }

  0003a	8b e5		 mov	 esp, ebp
  0003c	5d		 pop	 ebp
  0003d	c3		 ret	 0
?chatRender@@YAPAU_object@@PAU1@0@Z ENDP		; chatRender
_TEXT	ENDS
; Function compile flags: /Ogtp
; File D:\Metin2 Server Files\mainline\SRC_2014\Metin2Client\UserInterface\PythonChatModule.cpp
;	COMDAT ?chatUpdate@@YAPAU_object@@PAU1@0@Z
_TEXT	SEGMENT
_iID$ = -4						; size = 4
_poSelf$ = 8						; size = 4
_poArgs$ = 12						; size = 4
?chatUpdate@@YAPAU_object@@PAU1@0@Z PROC		; chatUpdate, COMDAT

; 50   : {

  00000	55		 push	 ebp
  00001	8b ec		 mov	 ebp, esp
  00003	51		 push	 ecx

; 51   : 	int iID;
; 52   : 	if (!PyTuple_GetInteger(poArgs, 0, &iID))

  00004	8d 45 fc	 lea	 eax, DWORD PTR _iID$[ebp]
  00007	50		 push	 eax
  00008	6a 00		 push	 0
  0000a	ff 75 0c	 push	 DWORD PTR _poArgs$[ebp]
  0000d	e8 00 00 00 00	 call	 ?PyTuple_GetInteger@@YA_NPAU_object@@HPAH@Z ; PyTuple_GetInteger
  00012	83 c4 0c	 add	 esp, 12			; 0000000cH
  00015	84 c0		 test	 al, al
  00017	75 0e		 jne	 SHORT $LN2@chatUpdate

; 53   : 		return Py_BuildException();

  00019	6a 00		 push	 0
  0001b	e8 00 00 00 00	 call	 ?Py_BuildException@@YAPAU_object@@PBDZZ ; Py_BuildException
  00020	83 c4 04	 add	 esp, 4

; 57   : }

  00023	8b e5		 mov	 esp, ebp
  00025	5d		 pop	 ebp
  00026	c3		 ret	 0
$LN2@chatUpdate:

; 54   : 
; 55   : 	CPythonChat::Instance().Update(iID);

  00027	ff 75 fc	 push	 DWORD PTR _iID$[ebp]
  0002a	8b 0d 00 00 00
	00		 mov	 ecx, DWORD PTR ?ms_singleton@?$CSingleton@VCPythonChat@@@@0PAVCPythonChat@@A ; CSingleton<CPythonChat>::ms_singleton
  00030	e8 00 00 00 00	 call	 ?Update@CPythonChat@@QAEXK@Z ; CPythonChat::Update

; 56   : 	return Py_BuildNone();

  00035	e8 00 00 00 00	 call	 ?Py_BuildNone@@YAPAU_object@@XZ ; Py_BuildNone

; 57   : }

  0003a	8b e5		 mov	 esp, ebp
  0003c	5d		 pop	 ebp
  0003d	c3		 ret	 0
?chatUpdate@@YAPAU_object@@PAU1@0@Z ENDP		; chatUpdate
_TEXT	ENDS
; Function compile flags: /Ogtp
; File D:\Metin2 Server Files\mainline\SRC_2014\Metin2Client\UserInterface\PythonChatModule.cpp
;	COMDAT ?chatCreateChatSet@@YAPAU_object@@PAU1@0@Z
_TEXT	SEGMENT
_iID$ = -4						; size = 4
_poSelf$ = 8						; size = 4
_poArgs$ = 12						; size = 4
?chatCreateChatSet@@YAPAU_object@@PAU1@0@Z PROC		; chatCreateChatSet, COMDAT

; 41   : {

  00000	55		 push	 ebp
  00001	8b ec		 mov	 ebp, esp
  00003	51		 push	 ecx

; 42   : 	int iID;
; 43   : 	if (!PyTuple_GetInteger(poArgs, 0, &iID))

  00004	8d 45 fc	 lea	 eax, DWORD PTR _iID$[ebp]
  00007	50		 push	 eax
  00008	6a 00		 push	 0
  0000a	ff 75 0c	 push	 DWORD PTR _poArgs$[ebp]
  0000d	e8 00 00 00 00	 call	 ?PyTuple_GetInteger@@YA_NPAU_object@@HPAH@Z ; PyTuple_GetInteger
  00012	83 c4 0c	 add	 esp, 12			; 0000000cH
  00015	84 c0		 test	 al, al
  00017	75 0e		 jne	 SHORT $LN2@chatCreate

; 44   : 		return Py_BuildException();

  00019	6a 00		 push	 0
  0001b	e8 00 00 00 00	 call	 ?Py_BuildException@@YAPAU_object@@PBDZZ ; Py_BuildException
  00020	83 c4 04	 add	 esp, 4

; 47   : }

  00023	8b e5		 mov	 esp, ebp
  00025	5d		 pop	 ebp
  00026	c3		 ret	 0
$LN2@chatCreate:

; 45   : 
; 46   : 	return Py_BuildValue("i", CPythonChat::Instance().CreateChatSet(iID));

  00027	ff 75 fc	 push	 DWORD PTR _iID$[ebp]
  0002a	8b 0d 00 00 00
	00		 mov	 ecx, DWORD PTR ?ms_singleton@?$CSingleton@VCPythonChat@@@@0PAVCPythonChat@@A ; CSingleton<CPythonChat>::ms_singleton
  00030	e8 00 00 00 00	 call	 ?CreateChatSet@CPythonChat@@QAEHK@Z ; CPythonChat::CreateChatSet
  00035	50		 push	 eax
  00036	68 00 00 00 00	 push	 OFFSET ??_C@_01KBJDNOO@i@
  0003b	ff 15 00 00 00
	00		 call	 DWORD PTR __imp__Py_BuildValue
  00041	83 c4 08	 add	 esp, 8

; 47   : }

  00044	8b e5		 mov	 esp, ebp
  00046	5d		 pop	 ebp
  00047	c3		 ret	 0
?chatCreateChatSet@@YAPAU_object@@PAU1@0@Z ENDP		; chatCreateChatSet
_TEXT	ENDS
; Function compile flags: /Ogtp
; File D:\Metin2 Server Files\mainline\SRC_2014\Metin2Client\UserInterface\PythonChatModule.cpp
;	COMDAT ?chatClose@@YAPAU_object@@PAU1@0@Z
_TEXT	SEGMENT
_poSelf$ = 8						; size = 4
_poArgs$ = 12						; size = 4
?chatClose@@YAPAU_object@@PAU1@0@Z PROC			; chatClose, COMDAT

; 36   : 	CPythonChat::Instance().Close();

  00000	8b 0d 00 00 00
	00		 mov	 ecx, DWORD PTR ?ms_singleton@?$CSingleton@VCPythonChat@@@@0PAVCPythonChat@@A ; CSingleton<CPythonChat>::ms_singleton
  00006	e8 00 00 00 00	 call	 ?Close@CPythonChat@@QAEXXZ ; CPythonChat::Close

; 37   : 	return Py_BuildNone();

  0000b	e9 00 00 00 00	 jmp	 ?Py_BuildNone@@YAPAU_object@@XZ ; Py_BuildNone
?chatClose@@YAPAU_object@@PAU1@0@Z ENDP			; chatClose
_TEXT	ENDS
; Function compile flags: /Ogtp
; File D:\Metin2 Server Files\mainline\SRC_2014\Metin2Client\UserInterface\PythonChatModule.cpp
;	COMDAT ?chatClear@@YAPAU_object@@PAU1@0@Z
_TEXT	SEGMENT
_poSelf$ = 8						; size = 4
_poArgs$ = 12						; size = 4
?chatClear@@YAPAU_object@@PAU1@0@Z PROC			; chatClear, COMDAT

; 30   : 	CPythonChat::Instance().Destroy();

  00000	8b 0d 00 00 00
	00		 mov	 ecx, DWORD PTR ?ms_singleton@?$CSingleton@VCPythonChat@@@@0PAVCPythonChat@@A ; CSingleton<CPythonChat>::ms_singleton
  00006	e8 00 00 00 00	 call	 ?Destroy@CPythonChat@@QAEXXZ ; CPythonChat::Destroy

; 31   : 	return Py_BuildNone();

  0000b	e9 00 00 00 00	 jmp	 ?Py_BuildNone@@YAPAU_object@@XZ ; Py_BuildNone
?chatClear@@YAPAU_object@@PAU1@0@Z ENDP			; chatClear
_TEXT	ENDS
; Function compile flags: /Ogtp
; File D:\Metin2 Server Files\mainline\SRC_2014\Metin2Client\UserInterface\PythonChatModule.cpp
;	COMDAT ?chatSetChatColor@@YAPAU_object@@PAU1@0@Z
_TEXT	SEGMENT
_iType$ = -16						; size = 4
_r$ = -12						; size = 4
_g$ = -8						; size = 4
_b$ = -4						; size = 4
_poSelf$ = 8						; size = 4
_poArgs$ = 12						; size = 4
?chatSetChatColor@@YAPAU_object@@PAU1@0@Z PROC		; chatSetChatColor, COMDAT

; 7    : {

  00000	55		 push	 ebp
  00001	8b ec		 mov	 ebp, esp
  00003	83 ec 10	 sub	 esp, 16			; 00000010H

; 8    : 	int iType;
; 9    : 	if (!PyTuple_GetInteger(poArgs, 0, &iType))

  00006	8d 45 f0	 lea	 eax, DWORD PTR _iType$[ebp]
  00009	56		 push	 esi
  0000a	8b 75 0c	 mov	 esi, DWORD PTR _poArgs$[ebp]
  0000d	50		 push	 eax
  0000e	6a 00		 push	 0
  00010	56		 push	 esi
  00011	e8 00 00 00 00	 call	 ?PyTuple_GetInteger@@YA_NPAU_object@@HPAH@Z ; PyTuple_GetInteger
  00016	83 c4 0c	 add	 esp, 12			; 0000000cH
  00019	84 c0		 test	 al, al
  0001b	75 0f		 jne	 SHORT $LN2@chatSetCha
$LN7@chatSetCha:

; 26   : }

  0001d	6a 00		 push	 0
  0001f	e8 00 00 00 00	 call	 ?Py_BuildException@@YAPAU_object@@PBDZZ ; Py_BuildException
  00024	83 c4 04	 add	 esp, 4
  00027	5e		 pop	 esi
  00028	8b e5		 mov	 esp, ebp
  0002a	5d		 pop	 ebp
  0002b	c3		 ret	 0
$LN2@chatSetCha:

; 10   : 		return Py_BuildException();
; 11   : 
; 12   : 	int r;
; 13   : 	if (!PyTuple_GetInteger(poArgs, 1, &r))

  0002c	8d 45 f4	 lea	 eax, DWORD PTR _r$[ebp]
  0002f	50		 push	 eax
  00030	6a 01		 push	 1
  00032	56		 push	 esi
  00033	e8 00 00 00 00	 call	 ?PyTuple_GetInteger@@YA_NPAU_object@@HPAH@Z ; PyTuple_GetInteger
  00038	83 c4 0c	 add	 esp, 12			; 0000000cH
  0003b	84 c0		 test	 al, al
  0003d	74 de		 je	 SHORT $LN7@chatSetCha

; 14   : 		return Py_BuildException();
; 15   : 
; 16   : 	int g;
; 17   : 	if (!PyTuple_GetInteger(poArgs, 2, &g))

  0003f	8d 45 f8	 lea	 eax, DWORD PTR _g$[ebp]
  00042	50		 push	 eax
  00043	6a 02		 push	 2
  00045	56		 push	 esi
  00046	e8 00 00 00 00	 call	 ?PyTuple_GetInteger@@YA_NPAU_object@@HPAH@Z ; PyTuple_GetInteger
  0004b	83 c4 0c	 add	 esp, 12			; 0000000cH
  0004e	84 c0		 test	 al, al
  00050	74 cb		 je	 SHORT $LN7@chatSetCha

; 18   : 		return Py_BuildException();
; 19   : 
; 20   : 	int b;
; 21   : 	if (!PyTuple_GetInteger(poArgs, 3, &b))

  00052	8d 45 fc	 lea	 eax, DWORD PTR _b$[ebp]
  00055	50		 push	 eax
  00056	6a 03		 push	 3
  00058	56		 push	 esi
  00059	e8 00 00 00 00	 call	 ?PyTuple_GetInteger@@YA_NPAU_object@@HPAH@Z ; PyTuple_GetInteger
  0005e	83 c4 0c	 add	 esp, 12			; 0000000cH
  00061	84 c0		 test	 al, al
  00063	74 b8		 je	 SHORT $LN7@chatSetCha

; 22   : 		return Py_BuildException();
; 23   : 
; 24   : 	CPythonChat::Instance().SetChatColor(iType, r, g, b);

  00065	ff 75 fc	 push	 DWORD PTR _b$[ebp]
  00068	8b 0d 00 00 00
	00		 mov	 ecx, DWORD PTR ?ms_singleton@?$CSingleton@VCPythonChat@@@@0PAVCPythonChat@@A ; CSingleton<CPythonChat>::ms_singleton
  0006e	ff 75 f8	 push	 DWORD PTR _g$[ebp]
  00071	ff 75 f4	 push	 DWORD PTR _r$[ebp]
  00074	ff 75 f0	 push	 DWORD PTR _iType$[ebp]
  00077	e8 00 00 00 00	 call	 ?SetChatColor@CPythonChat@@QAEXIIII@Z ; CPythonChat::SetChatColor

; 25   : 	return Py_BuildNone();

  0007c	e8 00 00 00 00	 call	 ?Py_BuildNone@@YAPAU_object@@XZ ; Py_BuildNone
  00081	5e		 pop	 esi

; 26   : }

  00082	8b e5		 mov	 esp, ebp
  00084	5d		 pop	 ebp
  00085	c3		 ret	 0
?chatSetChatColor@@YAPAU_object@@PAU1@0@Z ENDP		; chatSetChatColor
_TEXT	ENDS
; Function compile flags: /Ogtp
; File C:\Program Files (x86)\Microsoft Visual Studio\2019\Community\VC\Tools\MSVC\14.28.29333\include\xmemory
;	COMDAT ??$_Allocate_manually_vector_aligned@U_Default_allocate_traits@std@@@std@@YAPAXI@Z
_TEXT	SEGMENT
__Bytes$ = 8						; size = 4
??$_Allocate_manually_vector_aligned@U_Default_allocate_traits@std@@@std@@YAPAXI@Z PROC ; std::_Allocate_manually_vector_aligned<std::_Default_allocate_traits>, COMDAT

; 113  : __declspec(allocator) void* _Allocate_manually_vector_aligned(const size_t _Bytes) {

  00000	55		 push	 ebp
  00001	8b ec		 mov	 ebp, esp

; 114  :     // allocate _Bytes manually aligned to at least _Big_allocation_alignment
; 115  :     const size_t _Block_size = _Non_user_size + _Bytes;

  00003	8b 45 08	 mov	 eax, DWORD PTR __Bytes$[ebp]
  00006	8d 48 23	 lea	 ecx, DWORD PTR [eax+35]

; 116  :     if (_Block_size <= _Bytes) {

  00009	3b c8		 cmp	 ecx, eax
  0000b	0f 86 00 00 00
	00		 jbe	 ?_Throw_bad_array_new_length@std@@YAXXZ ; std::_Throw_bad_array_new_length

; 77   :         return ::operator new(_Bytes);

  00011	51		 push	 ecx
  00012	e8 00 00 00 00	 call	 ??2@YAPAXI@Z		; operator new

; 117  :         _Throw_bad_array_new_length(); // add overflow
; 118  :     }
; 119  : 
; 120  :     const uintptr_t _Ptr_container = reinterpret_cast<uintptr_t>(_Traits::_Allocate(_Block_size));

  00017	8b c8		 mov	 ecx, eax

; 77   :         return ::operator new(_Bytes);

  00019	83 c4 04	 add	 esp, 4

; 121  :     _STL_VERIFY(_Ptr_container != 0, "invalid argument"); // validate even in release since we're doing p[-1]

  0001c	85 c9		 test	 ecx, ecx
  0001e	74 0b		 je	 SHORT $LN7@Allocate_m

; 122  :     void* const _Ptr = reinterpret_cast<void*>((_Ptr_container + _Non_user_size) & ~(_Big_allocation_alignment - 1));

  00020	8d 41 23	 lea	 eax, DWORD PTR [ecx+35]
  00023	83 e0 e0	 and	 eax, -32		; ffffffe0H

; 123  :     static_cast<uintptr_t*>(_Ptr)[-1] = _Ptr_container;

  00026	89 48 fc	 mov	 DWORD PTR [eax-4], ecx

; 124  : 
; 125  : #ifdef _DEBUG
; 126  :     static_cast<uintptr_t*>(_Ptr)[-2] = _Big_allocation_sentinel;
; 127  : #endif // _DEBUG
; 128  :     return _Ptr;
; 129  : }

  00029	5d		 pop	 ebp
  0002a	c3		 ret	 0
$LN7@Allocate_m:

; 121  :     _STL_VERIFY(_Ptr_container != 0, "invalid argument"); // validate even in release since we're doing p[-1]

  0002b	e9 00 00 00 00	 jmp	 __invalid_parameter_noinfo_noreturn
??$_Allocate_manually_vector_aligned@U_Default_allocate_traits@std@@@std@@YAPAXI@Z ENDP ; std::_Allocate_manually_vector_aligned<std::_Default_allocate_traits>
_TEXT	ENDS
; Function compile flags: /Ogtp
; File C:\Program Files (x86)\Microsoft Visual Studio\2019\Community\VC\Tools\MSVC\14.28.29333\include\xmemory
;	COMDAT ??$_Allocate@$07U_Default_allocate_traits@std@@$0A@@std@@YAPAXI@Z
_TEXT	SEGMENT
__Bytes$ = 8						; size = 4
??$_Allocate@$07U_Default_allocate_traits@std@@$0A@@std@@YAPAXI@Z PROC ; std::_Allocate<8,std::_Default_allocate_traits,0>, COMDAT

; 197  : __declspec(allocator) void* _Allocate(const size_t _Bytes) {

  00000	55		 push	 ebp
  00001	8b ec		 mov	 ebp, esp

; 198  :     // allocate _Bytes when !_HAS_ALIGNED_NEW || _Align <= __STDCPP_DEFAULT_NEW_ALIGNMENT__
; 199  : #if defined(_M_IX86) || defined(_M_X64)
; 200  :     if (_Bytes >= _Big_allocation_threshold) { // boost the alignment of big allocations to help autovectorization

  00003	8b 45 08	 mov	 eax, DWORD PTR __Bytes$[ebp]
  00006	3d 00 10 00 00	 cmp	 eax, 4096		; 00001000H
  0000b	72 09		 jb	 SHORT $LN2@Allocate

; 201  :         return _Allocate_manually_vector_aligned<_Traits>(_Bytes);

  0000d	89 45 08	 mov	 DWORD PTR __Bytes$[ebp], eax

; 210  : }

  00010	5d		 pop	 ebp

; 201  :         return _Allocate_manually_vector_aligned<_Traits>(_Bytes);

  00011	e9 00 00 00 00	 jmp	 ??$_Allocate_manually_vector_aligned@U_Default_allocate_traits@std@@@std@@YAPAXI@Z ; std::_Allocate_manually_vector_aligned<std::_Default_allocate_traits>
$LN2@Allocate:

; 202  :     }
; 203  : #endif // defined(_M_IX86) || defined(_M_X64)
; 204  : 
; 205  :     if (_Bytes != 0) {

  00016	85 c0		 test	 eax, eax
  00018	74 09		 je	 SHORT $LN3@Allocate

; 77   :         return ::operator new(_Bytes);

  0001a	89 45 08	 mov	 DWORD PTR __Bytes$[ebp], eax

; 210  : }

  0001d	5d		 pop	 ebp

; 77   :         return ::operator new(_Bytes);

  0001e	e9 00 00 00 00	 jmp	 ??2@YAPAXI@Z		; operator new
$LN3@Allocate:

; 206  :         return _Traits::_Allocate(_Bytes);
; 207  :     }
; 208  : 
; 209  :     return nullptr;

  00023	33 c0		 xor	 eax, eax

; 210  : }

  00025	5d		 pop	 ebp
  00026	c3		 ret	 0
??$_Allocate@$07U_Default_allocate_traits@std@@$0A@@std@@YAPAXI@Z ENDP ; std::_Allocate<8,std::_Default_allocate_traits,0>
_TEXT	ENDS
; Function compile flags: /Ogtp
; File C:\Program Files (x86)\Microsoft Visual Studio\2019\Community\VC\Tools\MSVC\14.28.29333\include\xmemory
;	COMDAT ??$_Deallocate@$07$0A@@std@@YAXPAXI@Z
_TEXT	SEGMENT
__Ptr$ = 8						; size = 4
__Bytes$ = 12						; size = 4
??$_Deallocate@$07$0A@@std@@YAXPAXI@Z PROC		; std::_Deallocate<8,0>, COMDAT

; 213  : void _Deallocate(void* _Ptr, size_t _Bytes) noexcept {

  00000	55		 push	 ebp
  00001	8b ec		 mov	 ebp, esp

; 214  :     // deallocate storage allocated by _Allocate when !_HAS_ALIGNED_NEW || _Align <= __STDCPP_DEFAULT_NEW_ALIGNMENT__
; 215  : #if defined(_M_IX86) || defined(_M_X64)
; 216  :     if (_Bytes >= _Big_allocation_threshold) { // boost the alignment of big allocations to help autovectorization

  00003	8b 4d 0c	 mov	 ecx, DWORD PTR __Bytes$[ebp]
  00006	81 f9 00 10 00
	00		 cmp	 ecx, 4096		; 00001000H
  0000c	72 18		 jb	 SHORT $LN15@Deallocate

; 137  :     const uintptr_t _Ptr_container   = _Ptr_user[-1];

  0000e	8b 45 08	 mov	 eax, DWORD PTR __Ptr$[ebp]
  00011	83 c1 23	 add	 ecx, 35			; 00000023H
  00014	8b 50 fc	 mov	 edx, DWORD PTR [eax-4]

; 138  : 
; 139  :     // If the following asserts, it likely means that we are performing
; 140  :     // an aligned delete on memory coming from an unaligned allocation.
; 141  :     _STL_ASSERT(_Ptr_user[-2] == _Big_allocation_sentinel, "invalid argument");
; 142  : 
; 143  :     // Extra paranoia on aligned allocation/deallocation; ensure _Ptr_container is
; 144  :     // in range [_Min_back_shift, _Non_user_size]
; 145  : #ifdef _DEBUG
; 146  :     constexpr uintptr_t _Min_back_shift = 2 * sizeof(void*);
; 147  : #else // ^^^ _DEBUG ^^^ // vvv !_DEBUG vvv
; 148  :     constexpr uintptr_t _Min_back_shift = sizeof(void*);
; 149  : #endif // _DEBUG
; 150  :     const uintptr_t _Back_shift = reinterpret_cast<uintptr_t>(_Ptr) - _Ptr_container;

  00017	2b c2		 sub	 eax, edx

; 151  :     _STL_VERIFY(_Back_shift >= _Min_back_shift && _Back_shift <= _Non_user_size, "invalid argument");

  00019	83 c0 fc	 add	 eax, -4			; fffffffcH
  0001c	83 f8 1f	 cmp	 eax, 31			; 0000001fH
  0001f	76 08		 jbe	 SHORT $LN13@Deallocate
  00021	e9 00 00 00 00	 jmp	 __invalid_parameter_noinfo_noreturn
$LN15@Deallocate:

; 214  :     // deallocate storage allocated by _Allocate when !_HAS_ALIGNED_NEW || _Align <= __STDCPP_DEFAULT_NEW_ALIGNMENT__
; 215  : #if defined(_M_IX86) || defined(_M_X64)
; 216  :     if (_Bytes >= _Big_allocation_threshold) { // boost the alignment of big allocations to help autovectorization

  00026	8b 55 08	 mov	 edx, DWORD PTR __Ptr$[ebp]
$LN13@Deallocate:

; 217  :         _Adjust_manually_vector_aligned(_Ptr, _Bytes);
; 218  :     }
; 219  : #endif // defined(_M_IX86) || defined(_M_X64)
; 220  : 
; 221  :     ::operator delete(_Ptr, _Bytes);

  00029	89 4d 0c	 mov	 DWORD PTR __Bytes$[ebp], ecx
  0002c	89 55 08	 mov	 DWORD PTR __Ptr$[ebp], edx

; 222  : }

  0002f	5d		 pop	 ebp

; 217  :         _Adjust_manually_vector_aligned(_Ptr, _Bytes);
; 218  :     }
; 219  : #endif // defined(_M_IX86) || defined(_M_X64)
; 220  : 
; 221  :     ::operator delete(_Ptr, _Bytes);

  00030	e9 00 00 00 00	 jmp	 ??3@YAXPAXI@Z		; operator delete
??$_Deallocate@$07$0A@@std@@YAXPAXI@Z ENDP		; std::_Deallocate<8,0>
_TEXT	ENDS
; Function compile flags: /Ogtp
; File C:\Program Files (x86)\Microsoft Visual Studio\2019\Community\VC\Tools\MSVC\14.28.29333\include\xmemory
;	COMDAT ??$_Construct_in_place@PADABQAD@std@@YAXAAPADABQAD@Z
_TEXT	SEGMENT
__Obj$ = 8						; size = 4
_<_Args_0>$ = 12					; size = 4
??$_Construct_in_place@PADABQAD@std@@YAXAAPADABQAD@Z PROC ; std::_Construct_in_place<char *,char * const &>, COMDAT

; 228  : void _Construct_in_place(_Ty& _Obj, _Types&&... _Args) noexcept(is_nothrow_constructible_v<_Ty, _Types...>) {

  00000	55		 push	 ebp
  00001	8b ec		 mov	 ebp, esp

; 229  :     ::new (const_cast<void*>(static_cast<const volatile void*>(_STD addressof(_Obj))))

  00003	8b 45 0c	 mov	 eax, DWORD PTR _<_Args_0>$[ebp]
  00006	8b 08		 mov	 ecx, DWORD PTR [eax]
  00008	8b 45 08	 mov	 eax, DWORD PTR __Obj$[ebp]
  0000b	89 08		 mov	 DWORD PTR [eax], ecx

; 230  :         _Ty(_STD forward<_Types>(_Args)...);
; 231  : }

  0000d	5d		 pop	 ebp
  0000e	c3		 ret	 0
??$_Construct_in_place@PADABQAD@std@@YAXAAPADABQAD@Z ENDP ; std::_Construct_in_place<char *,char * const &>
_TEXT	ENDS
; Function compile flags: /Ogtp
; File C:\Program Files (x86)\Microsoft Visual Studio\2019\Community\VC\Tools\MSVC\14.28.29333\include\xmemory
;	COMDAT ??$_Destroy_in_place@PAD@std@@YAXAAPAD@Z
_TEXT	SEGMENT
__Obj$ = 8						; size = 4
??$_Destroy_in_place@PAD@std@@YAXAAPAD@Z PROC		; std::_Destroy_in_place<char *>, COMDAT

; 271  : #if _HAS_IF_CONSTEXPR
; 272  :     if constexpr (is_array_v<_Ty>) {
; 273  :         _Destroy_range(_Obj, _Obj + extent_v<_Ty>);
; 274  :     } else
; 275  : #endif // _HAS_IF_CONSTEXPR
; 276  :     {
; 277  :         _Obj.~_Ty();
; 278  :     }
; 279  : }

  00000	c2 00 00	 ret	 0
??$_Destroy_in_place@PAD@std@@YAXAAPAD@Z ENDP		; std::_Destroy_in_place<char *>
_TEXT	ENDS
; Function compile flags: /Ogtp
; File D:\Metin2 Server Files\mainline\SRC_2014\Metin2Client\UserInterface\PythonChatModule.cpp
;	COMDAT ?initChat@@YAXXZ
_TEXT	SEGMENT
?initChat@@YAXXZ PROC					; initChat, COMDAT

; 452  : {

  00000	56		 push	 esi
  00001	57		 push	 edi

; 453  : 	static PyMethodDef s_methods[] = 
; 454  : 	{
; 455  : 		{ "SetChatColor",			chatSetChatColor,			METH_VARARGS },
; 456  : 		{ "Clear",					chatClear,					METH_VARARGS },
; 457  : 		{ "Close",					chatClose,					METH_VARARGS },
; 458  : 
; 459  : 		{ "CreateChatSet",			chatCreateChatSet,			METH_VARARGS },
; 460  : 		{ "Update",					chatUpdate,					METH_VARARGS },
; 461  : 		{ "Render",					chatRender,					METH_VARARGS },
; 462  : 
; 463  : 		{ "SetBoardState",			chatSetBoardState,			METH_VARARGS },
; 464  : 		{ "SetPosition",			chatSetPosition,			METH_VARARGS },
; 465  : 		{ "SetHeight",				chatSetHeight,				METH_VARARGS },
; 466  : 		{ "SetStep",				chatSetStep,				METH_VARARGS },
; 467  : 		{ "ToggleChatMode",			chatToggleChatMode,			METH_VARARGS },
; 468  : 		{ "EnableChatMode",			chatEnableChatMode,			METH_VARARGS },
; 469  : 		{ "DisableChatMode",		chatDisableChatMode,		METH_VARARGS },
; 470  : 		{ "SetEndPos",				chatSetEndPos,				METH_VARARGS },
; 471  : 
; 472  : 		{ "GetLineCount",			chatGetLineCount,			METH_VARARGS },
; 473  : 		{ "GetVisibleLineCount",	chatGetVisibleLineCount,	METH_VARARGS },
; 474  : 		{ "GetLineStep",			chatGetLineStep,			METH_VARARGS },
; 475  : 
; 476  : 		// Chat
; 477  : 		{ "AppendChat",				chatAppendChat,				METH_VARARGS },
; 478  : 		{ "AppendChatWithDelay",	chatAppendChatWithDelay,	METH_VARARGS },
; 479  : 		{ "ArrangeShowingChat",		chatArrangeShowingChat,		METH_VARARGS },
; 480  : 
; 481  : 		// Ignore
; 482  : 		{ "IgnoreCharacter",		chatIgnoreCharacter,		METH_VARARGS },
; 483  : 		{ "IsIgnoreCharacter",		chatIsIgnoreCharacter,		METH_VARARGS },
; 484  : 
; 485  : 		// Whisper
; 486  : 		{ "CreateWhisper",			chatCreateWhisper,			METH_VARARGS },
; 487  : 		{ "AppendWhisper",			chatAppendWhisper,			METH_VARARGS },
; 488  : 		{ "RenderWhisper",			chatRenderWhisper,			METH_VARARGS },
; 489  : 		{ "SetWhisperBoxSize",		chatSetWhisperBoxSize,		METH_VARARGS },
; 490  : 		{ "SetWhisperPosition",		chatSetWhisperPosition,		METH_VARARGS },
; 491  : 		{ "ClearWhisper",			chatClearWhisper,			METH_VARARGS },
; 492  : 		{ "InitWhisper",			chatInitWhisper,			METH_VARARGS },
; 493  : 
; 494  : 		// Link
; 495  : 		{ "GetLinkFromHyperlink",	chatGetLinkFromHyperlink,	METH_VARARGS },
; 496  : 
; 497  : 		{ NULL,						NULL,						NULL },
; 498  : 	};
; 499  : 
; 500  : 	PyObject * poModule = Py_InitModule("chat", s_methods);

  00002	68 f5 03 00 00	 push	 1013			; 000003f5H
  00007	6a 00		 push	 0
  00009	6a 00		 push	 0
  0000b	68 00 00 00 00	 push	 OFFSET ?s_methods@?1??initChat@@YAXXZ@4PAUPyMethodDef@@A
  00010	68 00 00 00 00	 push	 OFFSET ??_C@_04BLJLMHHG@chat@
  00015	ff 15 00 00 00
	00		 call	 DWORD PTR __imp__Py_InitModule4

; 501  : 
; 502  : 	PyModule_AddIntConstant(poModule, "CHAT_TYPE_TALKING",		CHAT_TYPE_TALKING);

  0001b	8b 35 00 00 00
	00		 mov	 esi, DWORD PTR __imp__PyModule_AddIntConstant
  00021	8b f8		 mov	 edi, eax
  00023	6a 00		 push	 0
  00025	68 00 00 00 00	 push	 OFFSET ??_C@_0BC@EHLMCJH@CHAT_TYPE_TALKING@
  0002a	57		 push	 edi
  0002b	ff d6		 call	 esi

; 503  : 	PyModule_AddIntConstant(poModule, "CHAT_TYPE_INFO",			CHAT_TYPE_INFO);

  0002d	6a 01		 push	 1
  0002f	68 00 00 00 00	 push	 OFFSET ??_C@_0P@MIHHHBMP@CHAT_TYPE_INFO@
  00034	57		 push	 edi
  00035	ff d6		 call	 esi

; 504  : 	PyModule_AddIntConstant(poModule, "CHAT_TYPE_NOTICE",		CHAT_TYPE_NOTICE);

  00037	6a 02		 push	 2
  00039	68 00 00 00 00	 push	 OFFSET ??_C@_0BB@KFACLMJA@CHAT_TYPE_NOTICE@
  0003e	57		 push	 edi
  0003f	ff d6		 call	 esi

; 505  : 	PyModule_AddIntConstant(poModule, "CHAT_TYPE_PARTY",		CHAT_TYPE_PARTY);

  00041	6a 03		 push	 3
  00043	68 00 00 00 00	 push	 OFFSET ??_C@_0BA@JOLAGJG@CHAT_TYPE_PARTY@
  00048	57		 push	 edi
  00049	ff d6		 call	 esi
  0004b	83 c4 44	 add	 esp, 68			; 00000044H

; 506  : 	PyModule_AddIntConstant(poModule, "CHAT_TYPE_GUILD",		CHAT_TYPE_GUILD);

  0004e	6a 04		 push	 4
  00050	68 00 00 00 00	 push	 OFFSET ??_C@_0BA@OIBJELLN@CHAT_TYPE_GUILD@
  00055	57		 push	 edi
  00056	ff d6		 call	 esi

; 507  : 	PyModule_AddIntConstant(poModule, "CHAT_TYPE_COMMAND",		CHAT_TYPE_COMMAND);

  00058	6a 05		 push	 5
  0005a	68 00 00 00 00	 push	 OFFSET ??_C@_0BC@IILPNMNB@CHAT_TYPE_COMMAND@
  0005f	57		 push	 edi
  00060	ff d6		 call	 esi

; 508  : 	PyModule_AddIntConstant(poModule, "CHAT_TYPE_SHOUT",		CHAT_TYPE_SHOUT);

  00062	6a 06		 push	 6
  00064	68 00 00 00 00	 push	 OFFSET ??_C@_0BA@JEHAINHB@CHAT_TYPE_SHOUT@
  00069	57		 push	 edi
  0006a	ff d6		 call	 esi

; 509  : 	PyModule_AddIntConstant(poModule, "CHAT_TYPE_WHISPER",		CHAT_TYPE_WHISPER);

  0006c	6a 07		 push	 7
  0006e	68 00 00 00 00	 push	 OFFSET ??_C@_0BC@JMANMLH@CHAT_TYPE_WHISPER@
  00073	57		 push	 edi
  00074	ff d6		 call	 esi

; 510  : 	PyModule_AddIntConstant(poModule, "WHISPER_TYPE_CHAT",		CPythonChat::WHISPER_TYPE_CHAT);

  00076	6a 00		 push	 0
  00078	68 00 00 00 00	 push	 OFFSET ??_C@_0BC@LIEDKBDG@WHISPER_TYPE_CHAT@
  0007d	57		 push	 edi
  0007e	ff d6		 call	 esi

; 511  : 	PyModule_AddIntConstant(poModule, "WHISPER_TYPE_SYSTEM",	CPythonChat::WHISPER_TYPE_SYSTEM);

  00080	68 ff 00 00 00	 push	 255			; 000000ffH
  00085	68 00 00 00 00	 push	 OFFSET ??_C@_0BE@KODPENDJ@WHISPER_TYPE_SYSTEM@
  0008a	57		 push	 edi
  0008b	ff d6		 call	 esi
  0008d	83 c4 48	 add	 esp, 72			; 00000048H

; 512  : 	PyModule_AddIntConstant(poModule, "WHISPER_TYPE_GM",		CPythonChat::WHISPER_TYPE_GM);

  00090	6a 05		 push	 5
  00092	68 00 00 00 00	 push	 OFFSET ??_C@_0BA@KLIHGMFD@WHISPER_TYPE_GM@
  00097	57		 push	 edi
  00098	ff d6		 call	 esi

; 513  : 
; 514  : 	PyModule_AddIntConstant(poModule, "BOARD_STATE_VIEW",		CPythonChat::BOARD_STATE_VIEW);

  0009a	6a 00		 push	 0
  0009c	68 00 00 00 00	 push	 OFFSET ??_C@_0BB@OJGJMFKD@BOARD_STATE_VIEW@
  000a1	57		 push	 edi
  000a2	ff d6		 call	 esi

; 515  : 	PyModule_AddIntConstant(poModule, "BOARD_STATE_EDIT",		CPythonChat::BOARD_STATE_EDIT);

  000a4	6a 01		 push	 1
  000a6	68 00 00 00 00	 push	 OFFSET ??_C@_0BB@BOHEFKIL@BOARD_STATE_EDIT@
  000ab	57		 push	 edi
  000ac	ff d6		 call	 esi

; 516  : 	PyModule_AddIntConstant(poModule, "BOARD_STATE_LOG",		CPythonChat::BOARD_STATE_LOG);

  000ae	6a 02		 push	 2
  000b0	68 00 00 00 00	 push	 OFFSET ??_C@_0BA@PGHAPLJK@BOARD_STATE_LOG@
  000b5	57		 push	 edi
  000b6	ff d6		 call	 esi

; 517  : 
; 518  : 	PyModule_AddIntConstant(poModule, "CHAT_SET_CHAT_WINDOW",	0);

  000b8	6a 00		 push	 0
  000ba	68 00 00 00 00	 push	 OFFSET ??_C@_0BF@FCHEGAKH@CHAT_SET_CHAT_WINDOW@
  000bf	57		 push	 edi
  000c0	ff d6		 call	 esi

; 519  : 	PyModule_AddIntConstant(poModule, "CHAT_SET_LOG_WINDOW",	1);

  000c2	6a 01		 push	 1
  000c4	68 00 00 00 00	 push	 OFFSET ??_C@_0BE@OPDJLJMH@CHAT_SET_LOG_WINDOW@
  000c9	57		 push	 edi
  000ca	ff d6		 call	 esi
  000cc	83 c4 48	 add	 esp, 72			; 00000048H
  000cf	5f		 pop	 edi
  000d0	5e		 pop	 esi

; 520  : }

  000d1	c3		 ret	 0
?initChat@@YAXXZ ENDP					; initChat
_TEXT	ENDS
; Function compile flags: /Ogtp
; File C:\Program Files (x86)\Microsoft Visual Studio\2019\Community\VC\Tools\MSVC\14.28.29333\include\vector
; File C:\Program Files (x86)\Microsoft Visual Studio\2019\Community\VC\Tools\MSVC\14.28.29333\include\xmemory
; File C:\Program Files (x86)\Microsoft Visual Studio\2019\Community\VC\Tools\MSVC\14.28.29333\include\vector
; File C:\Program Files (x86)\Microsoft Visual Studio\2019\Community\VC\Tools\MSVC\14.28.29333\include\xmemory
; File C:\Program Files (x86)\Microsoft Visual Studio\2019\Community\VC\Tools\MSVC\14.28.29333\include\vector
;	COMDAT ??1?$vector@V?$basic_string@DU?$char_traits@D@std@@V?$allocator@D@2@@std@@V?$allocator@V?$basic_string@DU?$char_traits@D@std@@V?$allocator@D@2@@std@@@2@@std@@QAE@XZ
_TEXT	SEGMENT
??1?$vector@V?$basic_string@DU?$char_traits@D@std@@V?$allocator@D@2@@std@@V?$allocator@V?$basic_string@DU?$char_traits@D@std@@V?$allocator@D@2@@std@@@2@@std@@QAE@XZ PROC ; std::vector<std::basic_string<char,std::char_traits<char>,std::allocator<char> >,std::allocator<std::basic_string<char,std::char_traits<char>,std::allocator<char> > > >::~vector<std::basic_string<char,std::char_traits<char>,std::allocator<char> >,std::allocator<std::basic_string<char,std::char_traits<char>,std::allocator<char> > > >, COMDAT
; _this$ = ecx

; 672  :     ~vector() noexcept {

  00000	57		 push	 edi
  00001	8b f9		 mov	 edi, ecx

; 1694 :         if (_Myfirst) { // destroy and deallocate old array

  00003	8b 07		 mov	 eax, DWORD PTR [edi]
  00005	85 c0		 test	 eax, eax
  00007	74 45		 je	 SHORT $LN4@vector

; 1612 :         _Destroy_range(_First, _Last, _Getal());

  00009	57		 push	 edi
  0000a	ff 77 04	 push	 DWORD PTR [edi+4]
  0000d	50		 push	 eax
  0000e	e8 00 00 00 00	 call	 ??$_Destroy_range@V?$allocator@V?$basic_string@DU?$char_traits@D@std@@V?$allocator@D@2@@std@@@std@@@std@@YAXPAV?$basic_string@DU?$char_traits@D@std@@V?$allocator@D@2@@0@QAV10@AAV?$allocator@V?$basic_string@DU?$char_traits@D@std@@V?$allocator@D@2@@std@@@0@@Z ; std::_Destroy_range<std::allocator<std::basic_string<char,std::char_traits<char>,std::allocator<char> > > >

; 1696 :             _Getal().deallocate(_Myfirst, static_cast<size_type>(_Myend - _Myfirst));

  00013	8b 4f 08	 mov	 ecx, DWORD PTR [edi+8]
  00016	b8 ab aa aa 2a	 mov	 eax, 715827883		; 2aaaaaabH
  0001b	2b 0f		 sub	 ecx, DWORD PTR [edi]
  0001d	f7 e9		 imul	 ecx
  0001f	c1 fa 02	 sar	 edx, 2
  00022	8b c2		 mov	 eax, edx
  00024	c1 e8 1f	 shr	 eax, 31			; 0000001fH
  00027	03 c2		 add	 eax, edx
; File C:\Program Files (x86)\Microsoft Visual Studio\2019\Community\VC\Tools\MSVC\14.28.29333\include\xmemory

; 810  :         _Deallocate<_New_alignof<_Ty>>(_Ptr, sizeof(_Ty) * _Count);

  00029	8d 04 40	 lea	 eax, DWORD PTR [eax+eax*2]
  0002c	c1 e0 03	 shl	 eax, 3
  0002f	50		 push	 eax
  00030	ff 37		 push	 DWORD PTR [edi]
  00032	e8 00 00 00 00	 call	 ??$_Deallocate@$07$0A@@std@@YAXPAXI@Z ; std::_Deallocate<8,0>
; File C:\Program Files (x86)\Microsoft Visual Studio\2019\Community\VC\Tools\MSVC\14.28.29333\include\vector

; 1698 :             _Myfirst = pointer();

  00037	c7 07 00 00 00
	00		 mov	 DWORD PTR [edi], 0
; File C:\Program Files (x86)\Microsoft Visual Studio\2019\Community\VC\Tools\MSVC\14.28.29333\include\xmemory

; 810  :         _Deallocate<_New_alignof<_Ty>>(_Ptr, sizeof(_Ty) * _Count);

  0003d	83 c4 14	 add	 esp, 20			; 00000014H
; File C:\Program Files (x86)\Microsoft Visual Studio\2019\Community\VC\Tools\MSVC\14.28.29333\include\vector

; 1699 :             _Mylast  = pointer();

  00040	c7 47 04 00 00
	00 00		 mov	 DWORD PTR [edi+4], 0

; 1700 :             _Myend   = pointer();

  00047	c7 47 08 00 00
	00 00		 mov	 DWORD PTR [edi+8], 0
$LN4@vector:
  0004e	5f		 pop	 edi

; 673  :         _Tidy();
; 674  : #if _ITERATOR_DEBUG_LEVEL != 0
; 675  :         auto&& _Alproxy = _GET_PROXY_ALLOCATOR(_Alty, _Getal());
; 676  :         _Delete_plain_internal(_Alproxy, _STD exchange(_Mypair._Myval2._Myproxy, nullptr));
; 677  : #endif // _ITERATOR_DEBUG_LEVEL != 0
; 678  :     }

  0004f	c3		 ret	 0
??1?$vector@V?$basic_string@DU?$char_traits@D@std@@V?$allocator@D@2@@std@@V?$allocator@V?$basic_string@DU?$char_traits@D@std@@V?$allocator@D@2@@std@@@2@@std@@QAE@XZ ENDP ; std::vector<std::basic_string<char,std::char_traits<char>,std::allocator<char> >,std::allocator<std::basic_string<char,std::char_traits<char>,std::allocator<char> > > >::~vector<std::basic_string<char,std::char_traits<char>,std::allocator<char> >,std::allocator<std::basic_string<char,std::char_traits<char>,std::allocator<char> > > >
_TEXT	ENDS
; Function compile flags: /Ogtp
; File C:\Program Files (x86)\Microsoft Visual Studio\2019\Community\VC\Tools\MSVC\14.28.29333\include\xstring
; File C:\Program Files (x86)\Microsoft Visual Studio\2019\Community\VC\Tools\MSVC\14.28.29333\include\utility
; File C:\Program Files (x86)\Microsoft Visual Studio\2019\Community\VC\Tools\MSVC\14.28.29333\include\xstring
; File C:\Program Files (x86)\Microsoft Visual Studio\2019\Community\VC\Tools\MSVC\14.28.29333\include\xmemory
; File C:\Program Files (x86)\Microsoft Visual Studio\2019\Community\VC\Tools\MSVC\14.28.29333\include\xstring
; File C:\Program Files (x86)\Microsoft Visual Studio\2019\Community\VC\Tools\MSVC\14.28.29333\include\xmemory
; File C:\Program Files (x86)\Microsoft Visual Studio\2019\Community\VC\Tools\MSVC\14.28.29333\include\xstring
;	COMDAT ?assign@?$basic_string@DU?$char_traits@D@std@@V?$allocator@D@2@@std@@QAEAAV12@QBDI@Z
_TEXT	SEGMENT
__Old$1$ = -4						; size = 4
__Ptr$ = 8						; size = 4
__New_ptr$1 = 12					; size = 4
__Count$ = 12						; size = 4
?assign@?$basic_string@DU?$char_traits@D@std@@V?$allocator@D@2@@std@@QAEAAV12@QBDI@Z PROC ; std::basic_string<char,std::char_traits<char>,std::allocator<char> >::assign, COMDAT
; _this$ = ecx

; 3042 :     basic_string& assign(_In_reads_(_Count) const _Elem* const _Ptr, _CRT_GUARDOVERFLOW const size_type _Count) {

  00000	55		 push	 ebp
  00001	8b ec		 mov	 ebp, esp
  00003	51		 push	 ecx
  00004	53		 push	 ebx
  00005	56		 push	 esi
  00006	8b f1		 mov	 esi, ecx
  00008	57		 push	 edi

; 3043 :         // assign [_Ptr, _Ptr + _Count)
; 3044 :         if (_Count <= _Mypair._Myval2._Myres) {

  00009	8b 7d 0c	 mov	 edi, DWORD PTR __Count$[ebp]
  0000c	8b 4e 14	 mov	 ecx, DWORD PTR [esi+20]
  0000f	89 4d fc	 mov	 DWORD PTR __Old$1$[ebp], ecx
  00012	3b f9		 cmp	 edi, ecx
  00014	77 28		 ja	 SHORT $LN2@assign

; 2209 :         value_type* _Result = _Bx._Buf;

  00016	8b de		 mov	 ebx, esi

; 2227 :         return _BUF_SIZE <= _Myres;

  00018	83 f9 10	 cmp	 ecx, 16			; 00000010H

; 2210 :         if (_Large_string_engaged()) {

  0001b	72 02		 jb	 SHORT $LN5@assign

; 2211 :             _Result = _Unfancy(_Bx._Ptr);

  0001d	8b 1e		 mov	 ebx, DWORD PTR [esi]
$LN5@assign:

; 119  :         _CSTD memmove(_First1, _First2, _Count * sizeof(_Elem));

  0001f	57		 push	 edi
  00020	ff 75 08	 push	 DWORD PTR __Ptr$[ebp]

; 3045 :             _Elem* const _Old_ptr   = _Mypair._Myval2._Myptr();
; 3046 :             _Mypair._Myval2._Mysize = _Count;

  00023	89 7e 10	 mov	 DWORD PTR [esi+16], edi

; 119  :         _CSTD memmove(_First1, _First2, _Count * sizeof(_Elem));

  00026	53		 push	 ebx
  00027	e8 00 00 00 00	 call	 _memmove
  0002c	83 c4 0c	 add	 esp, 12			; 0000000cH

; 3047 :             _Traits::move(_Old_ptr, _Ptr, _Count);
; 3048 :             _Traits::assign(_Old_ptr[_Count], _Elem());

  0002f	c6 04 3b 00	 mov	 BYTE PTR [ebx+edi], 0

; 3059 :     }

  00033	8b c6		 mov	 eax, esi
  00035	5f		 pop	 edi
  00036	5e		 pop	 esi
  00037	5b		 pop	 ebx
  00038	8b e5		 mov	 esp, ebp
  0003a	5d		 pop	 ebp
  0003b	c2 08 00	 ret	 8
$LN2@assign:

; 4305 :         if (_New_size > max_size()) {

  0003e	81 ff ff ff ff
	7f		 cmp	 edi, 2147483647		; 7fffffffH
  00044	0f 87 91 00 00
	00		 ja	 $LN36@assign

; 4285 :         const size_type _Masked = _Requested | _ALLOC_MASK;

  0004a	8b df		 mov	 ebx, edi
  0004c	83 cb 0f	 or	 ebx, 15			; 0000000fH
  0004f	81 fb ff ff ff
	7f		 cmp	 ebx, 2147483647		; 7fffffffH

; 4286 :         if (_Masked > _Max) { // the mask overflows, settle for max_size()

  00055	76 07		 jbe	 SHORT $LN19@assign

; 4287 :             return _Max;

  00057	bb ff ff ff 7f	 mov	 ebx, 2147483647		; 7fffffffH
  0005c	eb 1e		 jmp	 SHORT $LN18@assign
$LN19@assign:

; 4288 :         }
; 4289 : 
; 4290 :         if (_Old > _Max - _Old / 2) { // similarly, geometric overflows

  0005e	8b d1		 mov	 edx, ecx
  00060	b8 ff ff ff 7f	 mov	 eax, 2147483647		; 7fffffffH
  00065	d1 ea		 shr	 edx, 1
  00067	2b c2		 sub	 eax, edx
  00069	3b c8		 cmp	 ecx, eax
  0006b	76 07		 jbe	 SHORT $LN20@assign

; 4291 :             return _Max;

  0006d	bb ff ff ff 7f	 mov	 ebx, 2147483647		; 7fffffffH
  00072	eb 08		 jmp	 SHORT $LN18@assign
$LN20@assign:

; 4292 :         }
; 4293 : 
; 4294 :         return (_STD max)(_Masked, _Old + _Old / 2);

  00074	8d 04 0a	 lea	 eax, DWORD PTR [edx+ecx]
; File C:\Program Files (x86)\Microsoft Visual Studio\2019\Community\VC\Tools\MSVC\14.28.29333\include\utility

; 44   :     return _Left < _Right ? _Right : _Left;

  00077	3b d8		 cmp	 ebx, eax
  00079	0f 42 d8	 cmovb	 ebx, eax
$LN18@assign:
; File C:\Program Files (x86)\Microsoft Visual Studio\2019\Community\VC\Tools\MSVC\14.28.29333\include\xstring

; 4312 :         const pointer _New_ptr        = _Al.allocate(_New_capacity + 1); // throws

  0007c	8d 43 01	 lea	 eax, DWORD PTR [ebx+1]
; File C:\Program Files (x86)\Microsoft Visual Studio\2019\Community\VC\Tools\MSVC\14.28.29333\include\xmemory

; 814  :         return static_cast<_Ty*>(_Allocate<_New_alignof<_Ty>>(_Get_size_of_n<sizeof(_Ty)>(_Count)));

  0007f	50		 push	 eax
  00080	e8 00 00 00 00	 call	 ??$_Allocate@$07U_Default_allocate_traits@std@@$0A@@std@@YAPAXI@Z ; std::_Allocate<8,std::_Default_allocate_traits,0>
; File C:\Program Files (x86)\Microsoft Visual Studio\2019\Community\VC\Tools\MSVC\14.28.29333\include\xstring

; 62   :         _CSTD memcpy(_First1, _First2, _Count * sizeof(_Elem));

  00085	57		 push	 edi
  00086	ff 75 08	 push	 DWORD PTR __Ptr$[ebp]

; 4312 :         const pointer _New_ptr        = _Al.allocate(_New_capacity + 1); // throws

  00089	89 45 0c	 mov	 DWORD PTR __New_ptr$1[ebp], eax

; 62   :         _CSTD memcpy(_First1, _First2, _Count * sizeof(_Elem));

  0008c	50		 push	 eax

; 4314 :         _Mypair._Myval2._Mysize = _New_size;

  0008d	89 7e 10	 mov	 DWORD PTR [esi+16], edi

; 4315 :         _Mypair._Myval2._Myres  = _New_capacity;

  00090	89 5e 14	 mov	 DWORD PTR [esi+20], ebx

; 62   :         _CSTD memcpy(_First1, _First2, _Count * sizeof(_Elem));

  00093	e8 00 00 00 00	 call	 _memcpy

; 3056 :                 _Traits::assign(_New_ptr[_Count], _Elem());

  00098	8b 5d 0c	 mov	 ebx, DWORD PTR __New_ptr$1[ebp]

; 62   :         _CSTD memcpy(_First1, _First2, _Count * sizeof(_Elem));

  0009b	83 c4 10	 add	 esp, 16			; 00000010H

; 4317 :         if (_BUF_SIZE <= _Old_capacity) {

  0009e	8b 45 fc	 mov	 eax, DWORD PTR __Old$1$[ebp]

; 3056 :                 _Traits::assign(_New_ptr[_Count], _Elem());

  000a1	c6 04 3b 00	 mov	 BYTE PTR [ebx+edi], 0

; 4317 :         if (_BUF_SIZE <= _Old_capacity) {

  000a5	83 f8 10	 cmp	 eax, 16			; 00000010H
  000a8	72 19		 jb	 SHORT $LN13@assign

; 4318 :             _Al.deallocate(_Mypair._Myval2._Bx._Ptr, _Old_capacity + 1);

  000aa	40		 inc	 eax
; File C:\Program Files (x86)\Microsoft Visual Studio\2019\Community\VC\Tools\MSVC\14.28.29333\include\xmemory

; 810  :         _Deallocate<_New_alignof<_Ty>>(_Ptr, sizeof(_Ty) * _Count);

  000ab	50		 push	 eax
  000ac	ff 36		 push	 DWORD PTR [esi]
  000ae	e8 00 00 00 00	 call	 ??$_Deallocate@$07$0A@@std@@YAXPAXI@Z ; std::_Deallocate<8,0>
; File C:\Program Files (x86)\Microsoft Visual Studio\2019\Community\VC\Tools\MSVC\14.28.29333\include\xstring

; 3059 :     }

  000b3	83 c4 08	 add	 esp, 8

; 4319 :             _Mypair._Myval2._Bx._Ptr = _New_ptr;

  000b6	89 1e		 mov	 DWORD PTR [esi], ebx

; 3059 :     }

  000b8	8b c6		 mov	 eax, esi
  000ba	5f		 pop	 edi
  000bb	5e		 pop	 esi
  000bc	5b		 pop	 ebx
  000bd	8b e5		 mov	 esp, ebp
  000bf	5d		 pop	 ebp
  000c0	c2 08 00	 ret	 8
$LN13@assign:

; 4321 :             _Construct_in_place(_Mypair._Myval2._Bx._Ptr, _New_ptr);

  000c3	8d 45 0c	 lea	 eax, DWORD PTR __New_ptr$1[ebp]
  000c6	50		 push	 eax
  000c7	56		 push	 esi
  000c8	e8 00 00 00 00	 call	 ??$_Construct_in_place@PADABQAD@std@@YAXAAPADABQAD@Z ; std::_Construct_in_place<char *,char * const &>

; 3059 :     }

  000cd	83 c4 08	 add	 esp, 8
  000d0	8b c6		 mov	 eax, esi
  000d2	5f		 pop	 edi
  000d3	5e		 pop	 esi
  000d4	5b		 pop	 ebx
  000d5	8b e5		 mov	 esp, ebp
  000d7	5d		 pop	 ebp
  000d8	c2 08 00	 ret	 8
$LN36@assign:

; 4306 :             _Xlen_string(); // result too long

  000db	e8 00 00 00 00	 call	 ?_Xlen_string@std@@YAXXZ ; std::_Xlen_string
$LN33@assign:
  000e0	cc		 int	 3
?assign@?$basic_string@DU?$char_traits@D@std@@V?$allocator@D@2@@std@@QAEAAV12@QBDI@Z ENDP ; std::basic_string<char,std::char_traits<char>,std::allocator<char> >::assign
_TEXT	ENDS
; Function compile flags: /Ogtp
; File C:\Program Files (x86)\Microsoft Visual Studio\2019\Community\VC\Tools\MSVC\14.28.29333\include\xstring
; File C:\Program Files (x86)\Microsoft Visual Studio\2019\Community\VC\Tools\MSVC\14.28.29333\include\xmemory
; File C:\Program Files (x86)\Microsoft Visual Studio\2019\Community\VC\Tools\MSVC\14.28.29333\include\xstring
;	COMDAT ??1?$basic_string@DU?$char_traits@D@std@@V?$allocator@D@2@@std@@QAE@XZ
_TEXT	SEGMENT
??1?$basic_string@DU?$char_traits@D@std@@V?$allocator@D@2@@std@@QAE@XZ PROC ; std::basic_string<char,std::char_traits<char>,std::allocator<char> >::~basic_string<char,std::char_traits<char>,std::allocator<char> >, COMDAT
; _this$ = ecx

; 2800 :     ~basic_string() noexcept {

  00000	56		 push	 esi
  00001	8b f1		 mov	 esi, ecx

; 2227 :         return _BUF_SIZE <= _Myres;

  00003	8b 46 14	 mov	 eax, DWORD PTR [esi+20]
  00006	83 f8 10	 cmp	 eax, 16			; 00000010H

; 4385 :         if (_Mypair._Myval2._Large_string_engaged()) {

  00009	72 0c		 jb	 SHORT $LN4@basic_stri

; 4386 :             const pointer _Ptr = _Mypair._Myval2._Bx._Ptr;
; 4387 :             auto& _Al          = _Getal();
; 4388 :             _Destroy_in_place(_Mypair._Myval2._Bx._Ptr);
; 4389 :             _Al.deallocate(_Ptr, _Mypair._Myval2._Myres + 1);

  0000b	40		 inc	 eax
; File C:\Program Files (x86)\Microsoft Visual Studio\2019\Community\VC\Tools\MSVC\14.28.29333\include\xmemory

; 810  :         _Deallocate<_New_alignof<_Ty>>(_Ptr, sizeof(_Ty) * _Count);

  0000c	50		 push	 eax
  0000d	ff 36		 push	 DWORD PTR [esi]
  0000f	e8 00 00 00 00	 call	 ??$_Deallocate@$07$0A@@std@@YAXPAXI@Z ; std::_Deallocate<8,0>
  00014	83 c4 08	 add	 esp, 8
$LN4@basic_stri:
; File C:\Program Files (x86)\Microsoft Visual Studio\2019\Community\VC\Tools\MSVC\14.28.29333\include\xstring

; 4392 :         _Mypair._Myval2._Mysize = 0;

  00017	c7 46 10 00 00
	00 00		 mov	 DWORD PTR [esi+16], 0

; 4393 :         _Mypair._Myval2._Myres  = _BUF_SIZE - 1;

  0001e	c7 46 14 0f 00
	00 00		 mov	 DWORD PTR [esi+20], 15	; 0000000fH

; 4394 :         // the _Traits::assign is last so the codegen doesn't think the char write can alias this
; 4395 :         _Traits::assign(_Mypair._Myval2._Bx._Buf[0], _Elem());

  00025	c6 06 00	 mov	 BYTE PTR [esi], 0
  00028	5e		 pop	 esi

; 2801 :         _Tidy_deallocate();
; 2802 : #if _ITERATOR_DEBUG_LEVEL != 0
; 2803 :         auto&& _Alproxy          = _GET_PROXY_ALLOCATOR(_Alty, _Getal());
; 2804 :         const auto _To_delete    = _Mypair._Myval2._Myproxy;
; 2805 :         _Mypair._Myval2._Myproxy = nullptr;
; 2806 :         _Delete_plain_internal(_Alproxy, _To_delete);
; 2807 : #endif // _ITERATOR_DEBUG_LEVEL != 0
; 2808 :     }

  00029	c3		 ret	 0
??1?$basic_string@DU?$char_traits@D@std@@V?$allocator@D@2@@std@@QAE@XZ ENDP ; std::basic_string<char,std::char_traits<char>,std::allocator<char> >::~basic_string<char,std::char_traits<char>,std::allocator<char> >
_TEXT	ENDS
; Function compile flags: /Ogtp
; File C:\Program Files (x86)\Microsoft Visual Studio\2019\Community\VC\Tools\MSVC\14.28.29333\include\xstring
;	COMDAT ?_Xlen_string@std@@YAXXZ
_TEXT	SEGMENT
?_Xlen_string@std@@YAXXZ PROC				; std::_Xlen_string, COMDAT

; 2275 :     _Xlength_error("string too long");

  00000	68 00 00 00 00	 push	 OFFSET ??_C@_0BA@JFNIOLAK@string?5too?5long@
  00005	e8 00 00 00 00	 call	 ?_Xlength_error@std@@YAXPBD@Z ; std::_Xlength_error
$LN3@Xlen_strin:
  0000a	cc		 int	 3
?_Xlen_string@std@@YAXXZ ENDP				; std::_Xlen_string
_TEXT	ENDS
; Function compile flags: /Ogtp
; File C:\Program Files (x86)\Microsoft Visual Studio\2019\Community\VC\Tools\MSVC\14.28.29333\include\exception
;	COMDAT ?_Throw_bad_array_new_length@std@@YAXXZ
_TEXT	SEGMENT
$T1 = -12						; size = 12
?_Throw_bad_array_new_length@std@@YAXXZ PROC		; std::_Throw_bad_array_new_length, COMDAT

; 320  : [[noreturn]] inline void _Throw_bad_array_new_length() {

  00000	55		 push	 ebp
  00001	8b ec		 mov	 ebp, esp
  00003	83 ec 0c	 sub	 esp, 12			; 0000000cH

; 321  :     _THROW(bad_array_new_length{});

  00006	8d 4d f4	 lea	 ecx, DWORD PTR $T1[ebp]
  00009	e8 00 00 00 00	 call	 ??0bad_array_new_length@std@@QAE@XZ ; std::bad_array_new_length::bad_array_new_length
  0000e	68 00 00 00 00	 push	 OFFSET __TI3?AVbad_array_new_length@std@@
  00013	8d 45 f4	 lea	 eax, DWORD PTR $T1[ebp]
  00016	50		 push	 eax
  00017	e8 00 00 00 00	 call	 __CxxThrowException@8
$LN3@Throw_bad_:
  0001c	cc		 int	 3
?_Throw_bad_array_new_length@std@@YAXXZ ENDP		; std::_Throw_bad_array_new_length
_TEXT	ENDS
; Function compile flags: /Ogtp
; File C:\Program Files (x86)\Microsoft Visual Studio\2019\Community\VC\Tools\MSVC\14.28.29333\include\vcruntime_exception.h
;	COMDAT ??_Gbad_array_new_length@std@@UAEPAXI@Z
_TEXT	SEGMENT
___flags$ = 8						; size = 4
??_Gbad_array_new_length@std@@UAEPAXI@Z PROC		; std::bad_array_new_length::`scalar deleting destructor', COMDAT
; _this$ = ecx
  00000	55		 push	 ebp
  00001	8b ec		 mov	 ebp, esp

; 89   :     {

  00003	56		 push	 esi
  00004	8b f1		 mov	 esi, ecx

; 90   :         __std_exception_destroy(&_Data);

  00006	8d 46 04	 lea	 eax, DWORD PTR [esi+4]
  00009	c7 06 00 00 00
	00		 mov	 DWORD PTR [esi], OFFSET ??_7exception@std@@6B@
  0000f	50		 push	 eax
  00010	e8 00 00 00 00	 call	 ___std_exception_destroy
  00015	83 c4 04	 add	 esp, 4
  00018	f6 45 08 01	 test	 BYTE PTR ___flags$[ebp], 1
  0001c	74 0b		 je	 SHORT $LN12@scalar
  0001e	6a 0c		 push	 12			; 0000000cH
  00020	56		 push	 esi
  00021	e8 00 00 00 00	 call	 ??3@YAXPAXI@Z		; operator delete
  00026	83 c4 08	 add	 esp, 8
$LN12@scalar:
  00029	8b c6		 mov	 eax, esi
  0002b	5e		 pop	 esi
  0002c	5d		 pop	 ebp
  0002d	c2 04 00	 ret	 4
??_Gbad_array_new_length@std@@UAEPAXI@Z ENDP		; std::bad_array_new_length::`scalar deleting destructor'
_TEXT	ENDS
; Function compile flags: /Ogtp
; File C:\Program Files (x86)\Microsoft Visual Studio\2019\Community\VC\Tools\MSVC\14.28.29333\include\vcruntime_exception.h
;	COMDAT ??0bad_array_new_length@std@@QAE@ABV01@@Z
_TEXT	SEGMENT
___that$ = 8						; size = 4
??0bad_array_new_length@std@@QAE@ABV01@@Z PROC		; std::bad_array_new_length::bad_array_new_length, COMDAT
; _this$ = ecx
  00000	55		 push	 ebp
  00001	8b ec		 mov	 ebp, esp

; 72   :     {

  00003	56		 push	 esi
  00004	8b f1		 mov	 esi, ecx
  00006	0f 57 c0	 xorps	 xmm0, xmm0

; 71   :         : _Data()

  00009	8d 46 04	 lea	 eax, DWORD PTR [esi+4]

; 73   :         __std_exception_copy(&_Other._Data, &_Data);

  0000c	50		 push	 eax
  0000d	c7 06 00 00 00
	00		 mov	 DWORD PTR [esi], OFFSET ??_7exception@std@@6B@
  00013	66 0f d6 00	 movq	 QWORD PTR [eax], xmm0
  00017	8b 45 08	 mov	 eax, DWORD PTR ___that$[ebp]
  0001a	83 c0 04	 add	 eax, 4
  0001d	50		 push	 eax
  0001e	e8 00 00 00 00	 call	 ___std_exception_copy
  00023	83 c4 08	 add	 esp, 8
  00026	c7 06 00 00 00
	00		 mov	 DWORD PTR [esi], OFFSET ??_7bad_array_new_length@std@@6B@
  0002c	8b c6		 mov	 eax, esi
  0002e	5e		 pop	 esi
  0002f	5d		 pop	 ebp
  00030	c2 04 00	 ret	 4
??0bad_array_new_length@std@@QAE@ABV01@@Z ENDP		; std::bad_array_new_length::bad_array_new_length
_TEXT	ENDS
; Function compile flags: /Ogtp
; File C:\Program Files (x86)\Microsoft Visual Studio\2019\Community\VC\Tools\MSVC\14.28.29333\include\vcruntime_exception.h
;	COMDAT ??1bad_array_new_length@std@@UAE@XZ
_TEXT	SEGMENT
??1bad_array_new_length@std@@UAE@XZ PROC		; std::bad_array_new_length::~bad_array_new_length, COMDAT
; _this$ = ecx

; 90   :         __std_exception_destroy(&_Data);

  00000	8d 41 04	 lea	 eax, DWORD PTR [ecx+4]
  00003	c7 01 00 00 00
	00		 mov	 DWORD PTR [ecx], OFFSET ??_7exception@std@@6B@
  00009	50		 push	 eax
  0000a	e8 00 00 00 00	 call	 ___std_exception_destroy
  0000f	59		 pop	 ecx
  00010	c3		 ret	 0
??1bad_array_new_length@std@@UAE@XZ ENDP		; std::bad_array_new_length::~bad_array_new_length
_TEXT	ENDS
; Function compile flags: /Ogtp
; File C:\Program Files (x86)\Microsoft Visual Studio\2019\Community\VC\Tools\MSVC\14.28.29333\include\vcruntime_exception.h
;	COMDAT ??0bad_array_new_length@std@@QAE@XZ
_TEXT	SEGMENT
??0bad_array_new_length@std@@QAE@XZ PROC		; std::bad_array_new_length::bad_array_new_length, COMDAT
; _this$ = ecx

; 141  :     {

  00000	0f 57 c0	 xorps	 xmm0, xmm0

; 142  :     }

  00003	8b c1		 mov	 eax, ecx

; 65   :         : _Data()

  00005	66 0f d6 41 04	 movq	 QWORD PTR [ecx+4], xmm0

; 66   :     {
; 67   :         _Data._What = _Message;

  0000a	c7 41 04 00 00
	00 00		 mov	 DWORD PTR [ecx+4], OFFSET ??_C@_0BF@KINCDENJ@bad?5array?5new?5length@

; 141  :     {

  00011	c7 01 00 00 00
	00		 mov	 DWORD PTR [ecx], OFFSET ??_7bad_array_new_length@std@@6B@

; 142  :     }

  00017	c3		 ret	 0
??0bad_array_new_length@std@@QAE@XZ ENDP		; std::bad_array_new_length::bad_array_new_length
_TEXT	ENDS
; Function compile flags: /Ogtp
; File C:\Program Files (x86)\Microsoft Visual Studio\2019\Community\VC\Tools\MSVC\14.28.29333\include\vcruntime_exception.h
;	COMDAT ??_Gbad_alloc@std@@UAEPAXI@Z
_TEXT	SEGMENT
___flags$ = 8						; size = 4
??_Gbad_alloc@std@@UAEPAXI@Z PROC			; std::bad_alloc::`scalar deleting destructor', COMDAT
; _this$ = ecx
  00000	55		 push	 ebp
  00001	8b ec		 mov	 ebp, esp

; 89   :     {

  00003	56		 push	 esi
  00004	8b f1		 mov	 esi, ecx

; 90   :         __std_exception_destroy(&_Data);

  00006	8d 46 04	 lea	 eax, DWORD PTR [esi+4]
  00009	c7 06 00 00 00
	00		 mov	 DWORD PTR [esi], OFFSET ??_7exception@std@@6B@
  0000f	50		 push	 eax
  00010	e8 00 00 00 00	 call	 ___std_exception_destroy
  00015	83 c4 04	 add	 esp, 4
  00018	f6 45 08 01	 test	 BYTE PTR ___flags$[ebp], 1
  0001c	74 0b		 je	 SHORT $LN9@scalar
  0001e	6a 0c		 push	 12			; 0000000cH
  00020	56		 push	 esi
  00021	e8 00 00 00 00	 call	 ??3@YAXPAXI@Z		; operator delete
  00026	83 c4 08	 add	 esp, 8
$LN9@scalar:
  00029	8b c6		 mov	 eax, esi
  0002b	5e		 pop	 esi
  0002c	5d		 pop	 ebp
  0002d	c2 04 00	 ret	 4
??_Gbad_alloc@std@@UAEPAXI@Z ENDP			; std::bad_alloc::`scalar deleting destructor'
_TEXT	ENDS
; Function compile flags: /Ogtp
; File C:\Program Files (x86)\Microsoft Visual Studio\2019\Community\VC\Tools\MSVC\14.28.29333\include\vcruntime_exception.h
;	COMDAT ??0bad_alloc@std@@QAE@ABV01@@Z
_TEXT	SEGMENT
___that$ = 8						; size = 4
??0bad_alloc@std@@QAE@ABV01@@Z PROC			; std::bad_alloc::bad_alloc, COMDAT
; _this$ = ecx
  00000	55		 push	 ebp
  00001	8b ec		 mov	 ebp, esp

; 72   :     {

  00003	56		 push	 esi
  00004	8b f1		 mov	 esi, ecx
  00006	0f 57 c0	 xorps	 xmm0, xmm0

; 71   :         : _Data()

  00009	8d 46 04	 lea	 eax, DWORD PTR [esi+4]

; 73   :         __std_exception_copy(&_Other._Data, &_Data);

  0000c	50		 push	 eax
  0000d	c7 06 00 00 00
	00		 mov	 DWORD PTR [esi], OFFSET ??_7exception@std@@6B@
  00013	66 0f d6 00	 movq	 QWORD PTR [eax], xmm0
  00017	8b 45 08	 mov	 eax, DWORD PTR ___that$[ebp]
  0001a	83 c0 04	 add	 eax, 4
  0001d	50		 push	 eax
  0001e	e8 00 00 00 00	 call	 ___std_exception_copy
  00023	83 c4 08	 add	 esp, 8
  00026	c7 06 00 00 00
	00		 mov	 DWORD PTR [esi], OFFSET ??_7bad_alloc@std@@6B@
  0002c	8b c6		 mov	 eax, esi
  0002e	5e		 pop	 esi
  0002f	5d		 pop	 ebp
  00030	c2 04 00	 ret	 4
??0bad_alloc@std@@QAE@ABV01@@Z ENDP			; std::bad_alloc::bad_alloc
_TEXT	ENDS
; Function compile flags: /Ogtp
; File C:\Program Files (x86)\Microsoft Visual Studio\2019\Community\VC\Tools\MSVC\14.28.29333\include\vcruntime_exception.h
;	COMDAT ??_Gexception@std@@UAEPAXI@Z
_TEXT	SEGMENT
___flags$ = 8						; size = 4
??_Gexception@std@@UAEPAXI@Z PROC			; std::exception::`scalar deleting destructor', COMDAT
; _this$ = ecx
  00000	55		 push	 ebp
  00001	8b ec		 mov	 ebp, esp

; 89   :     {

  00003	56		 push	 esi
  00004	8b f1		 mov	 esi, ecx

; 90   :         __std_exception_destroy(&_Data);

  00006	8d 46 04	 lea	 eax, DWORD PTR [esi+4]
  00009	c7 06 00 00 00
	00		 mov	 DWORD PTR [esi], OFFSET ??_7exception@std@@6B@
  0000f	50		 push	 eax
  00010	e8 00 00 00 00	 call	 ___std_exception_destroy
  00015	83 c4 04	 add	 esp, 4
  00018	f6 45 08 01	 test	 BYTE PTR ___flags$[ebp], 1
  0001c	74 0b		 je	 SHORT $LN6@scalar
  0001e	6a 0c		 push	 12			; 0000000cH
  00020	56		 push	 esi
  00021	e8 00 00 00 00	 call	 ??3@YAXPAXI@Z		; operator delete
  00026	83 c4 08	 add	 esp, 8
$LN6@scalar:
  00029	8b c6		 mov	 eax, esi
  0002b	5e		 pop	 esi
  0002c	5d		 pop	 ebp
  0002d	c2 04 00	 ret	 4
??_Gexception@std@@UAEPAXI@Z ENDP			; std::exception::`scalar deleting destructor'
_TEXT	ENDS
; Function compile flags: /Ogtp
; File C:\Program Files (x86)\Microsoft Visual Studio\2019\Community\VC\Tools\MSVC\14.28.29333\include\vcruntime_exception.h
;	COMDAT ?what@exception@std@@UBEPBDXZ
_TEXT	SEGMENT
?what@exception@std@@UBEPBDXZ PROC			; std::exception::what, COMDAT
; _this$ = ecx

; 95   :         return _Data._What ? _Data._What : "Unknown exception";

  00000	8b 49 04	 mov	 ecx, DWORD PTR [ecx+4]
  00003	b8 00 00 00 00	 mov	 eax, OFFSET ??_C@_0BC@EOODALEL@Unknown?5exception@
  00008	85 c9		 test	 ecx, ecx
  0000a	0f 45 c1	 cmovne	 eax, ecx

; 96   :     }

  0000d	c3		 ret	 0
?what@exception@std@@UBEPBDXZ ENDP			; std::exception::what
_TEXT	ENDS
; Function compile flags: /Ogtp
; File C:\Program Files (x86)\Microsoft Visual Studio\2019\Community\VC\Tools\MSVC\14.28.29333\include\vcruntime_exception.h
;	COMDAT ??1exception@std@@UAE@XZ
_TEXT	SEGMENT
??1exception@std@@UAE@XZ PROC				; std::exception::~exception, COMDAT
; _this$ = ecx

; 90   :         __std_exception_destroy(&_Data);

  00000	8d 41 04	 lea	 eax, DWORD PTR [ecx+4]
  00003	c7 01 00 00 00
	00		 mov	 DWORD PTR [ecx], OFFSET ??_7exception@std@@6B@
  00009	50		 push	 eax
  0000a	e8 00 00 00 00	 call	 ___std_exception_destroy
  0000f	59		 pop	 ecx

; 91   :     }

  00010	c3		 ret	 0
??1exception@std@@UAE@XZ ENDP				; std::exception::~exception
_TEXT	ENDS
; Function compile flags: /Ogtp
; File C:\Program Files (x86)\Microsoft Visual Studio\2019\Community\VC\Tools\MSVC\14.28.29333\include\vcruntime_exception.h
;	COMDAT ??0exception@std@@QAE@ABV01@@Z
_TEXT	SEGMENT
__Other$ = 8						; size = 4
??0exception@std@@QAE@ABV01@@Z PROC			; std::exception::exception, COMDAT
; _this$ = ecx

; 72   :     {

  00000	55		 push	 ebp
  00001	8b ec		 mov	 ebp, esp
  00003	56		 push	 esi
  00004	8b f1		 mov	 esi, ecx
  00006	0f 57 c0	 xorps	 xmm0, xmm0
  00009	8d 46 04	 lea	 eax, DWORD PTR [esi+4]

; 73   :         __std_exception_copy(&_Other._Data, &_Data);

  0000c	50		 push	 eax
  0000d	c7 06 00 00 00
	00		 mov	 DWORD PTR [esi], OFFSET ??_7exception@std@@6B@
  00013	66 0f d6 00	 movq	 QWORD PTR [eax], xmm0
  00017	8b 45 08	 mov	 eax, DWORD PTR __Other$[ebp]
  0001a	83 c0 04	 add	 eax, 4
  0001d	50		 push	 eax
  0001e	e8 00 00 00 00	 call	 ___std_exception_copy
  00023	83 c4 08	 add	 esp, 8

; 74   :     }

  00026	8b c6		 mov	 eax, esi
  00028	5e		 pop	 esi
  00029	5d		 pop	 ebp
  0002a	c2 04 00	 ret	 4
??0exception@std@@QAE@ABV01@@Z ENDP			; std::exception::exception
_TEXT	ENDS
; Function compile flags: /Ogtp
; File C:\Program Files (x86)\Windows Kits\10\Include\10.0.18362.0\ucrt\stdio.h
;	COMDAT __snprintf
_TEXT	SEGMENT
__Buffer$ = 8						; size = 4
__BufferCount$ = 12					; size = 4
__Format$ = 16						; size = 4
__snprintf PROC						; COMDAT

; 1969 :     {

  00000	55		 push	 ebp
  00001	8b ec		 mov	 ebp, esp

; 1390 :         int const _Result = __stdio_common_vsprintf(

  00003	8d 45 14	 lea	 eax, DWORD PTR __Format$[ebp+4]
  00006	50		 push	 eax
  00007	6a 00		 push	 0
  00009	ff 75 10	 push	 DWORD PTR __Format$[ebp]
  0000c	ff 75 0c	 push	 DWORD PTR __BufferCount$[ebp]
  0000f	ff 75 08	 push	 DWORD PTR __Buffer$[ebp]
  00012	e8 00 00 00 00	 call	 ___local_stdio_printf_options
  00017	8b 08		 mov	 ecx, DWORD PTR [eax]
  00019	ff 70 04	 push	 DWORD PTR [eax+4]
  0001c	83 c9 01	 or	 ecx, 1
  0001f	51		 push	 ecx
  00020	e8 00 00 00 00	 call	 ___stdio_common_vsprintf

; 1391 :             _CRT_INTERNAL_LOCAL_PRINTF_OPTIONS | _CRT_INTERNAL_PRINTF_LEGACY_VSPRINTF_NULL_TERMINATION,
; 1392 :             _Buffer, _BufferCount, _Format, _Locale, _ArgList);
; 1393 : 
; 1394 :         return _Result < 0 ? -1 : _Result;

  00025	83 c9 ff	 or	 ecx, -1
  00028	83 c4 1c	 add	 esp, 28			; 0000001cH
  0002b	85 c0		 test	 eax, eax
  0002d	0f 48 c1	 cmovs	 eax, ecx

; 1970 :         int _Result;
; 1971 :         va_list _ArgList;
; 1972 :         __crt_va_start(_ArgList, _Format);
; 1973 :     #pragma warning(suppress:28719)    // 28719
; 1974 :         _Result = _vsnprintf(_Buffer, _BufferCount, _Format, _ArgList);
; 1975 :         __crt_va_end(_ArgList);
; 1976 :         return _Result;
; 1977 :     }

  00030	5d		 pop	 ebp
  00031	c3		 ret	 0
__snprintf ENDP
_TEXT	ENDS
; Function compile flags: /Ogtp
; File C:\Program Files (x86)\Windows Kits\10\Include\10.0.18362.0\ucrt\corecrt_stdio_config.h
;	COMDAT ___local_stdio_printf_options
_TEXT	SEGMENT
___local_stdio_printf_options PROC			; COMDAT

; 87   :         static unsigned __int64 _OptionsStorage;
; 88   :         return &_OptionsStorage;

  00000	b8 00 00 00 00	 mov	 eax, OFFSET ?_OptionsStorage@?1??__local_stdio_printf_options@@9@4_KA ; `__local_stdio_printf_options'::`2'::_OptionsStorage

; 89   :     }

  00005	c3		 ret	 0
___local_stdio_printf_options ENDP
_TEXT	ENDS
; Function compile flags: /Ogtp
;	COMDAT ??_H@YGXPAXIIP6EPAX0@Z@Z
_TEXT	SEGMENT
___t$ = 8						; size = 4
___s$ = 12						; size = 4
___n$ = 16						; size = 4
___f$ = 20						; size = 4
??_H@YGXPAXIIP6EPAX0@Z@Z PROC				; `vector constructor iterator', COMDAT
  00000	55		 push	 ebp
  00001	8b ec		 mov	 ebp, esp
  00003	56		 push	 esi
  00004	8b 75 10	 mov	 esi, DWORD PTR ___n$[ebp]
  00007	85 f6		 test	 esi, esi
  00009	74 16		 je	 SHORT $LN6@vector
  0000b	53		 push	 ebx
  0000c	8b 5d 14	 mov	 ebx, DWORD PTR ___f$[ebp]
  0000f	57		 push	 edi
  00010	8b 7d 08	 mov	 edi, DWORD PTR ___t$[ebp]
$LL2@vector:
  00013	8b cf		 mov	 ecx, edi
  00015	ff d3		 call	 ebx
  00017	03 7d 0c	 add	 edi, DWORD PTR ___s$[ebp]
  0001a	83 ee 01	 sub	 esi, 1
  0001d	75 f4		 jne	 SHORT $LL2@vector
  0001f	5f		 pop	 edi
  00020	5b		 pop	 ebx
$LN6@vector:
  00021	5e		 pop	 esi
  00022	5d		 pop	 ebp
  00023	c2 10 00	 ret	 16			; 00000010H
??_H@YGXPAXIIP6EPAX0@Z@Z ENDP				; `vector constructor iterator'
_TEXT	ENDS
END
