; Listing generated by Microsoft (R) Optimizing Compiler Version 19.28.29335.0 

	TITLE	D:\Metin2 Server Files\mainline\SRC_2014\Metin2Client\UserInterface\PythonPlayerModule.cpp
	.686P
	.XMM
	include listing.inc
	.model	flat

INCLUDELIB LIBCMT
INCLUDELIB OLDNAMES

PUBLIC	??_7?$CDynamicPoolEx@VCHeaderDecorator@NEffectUpdateDecorator@@@@6B@ ; CDynamicPoolEx<NEffectUpdateDecorator::CHeaderDecorator>::`vftable'
PUBLIC	??_G?$CDynamicPoolEx@VCHeaderDecorator@NEffectUpdateDecorator@@@@UAEPAXI@Z ; CDynamicPoolEx<NEffectUpdateDecorator::CHeaderDecorator>::`scalar deleting destructor'
PUBLIC	??_7?$CDynamicPoolEx@VCRotationDecorator@NEffectUpdateDecorator@@@@6B@ ; CDynamicPoolEx<NEffectUpdateDecorator::CRotationDecorator>::`vftable'
PUBLIC	??_G?$CDynamicPoolEx@VCRotationDecorator@NEffectUpdateDecorator@@@@UAEPAXI@Z ; CDynamicPoolEx<NEffectUpdateDecorator::CRotationDecorator>::`scalar deleting destructor'
PUBLIC	??_7?$CDynamicPoolEx@VCGravityDecorator@NEffectUpdateDecorator@@@@6B@ ; CDynamicPoolEx<NEffectUpdateDecorator::CGravityDecorator>::`vftable'
PUBLIC	??_G?$CDynamicPoolEx@VCGravityDecorator@NEffectUpdateDecorator@@@@UAEPAXI@Z ; CDynamicPoolEx<NEffectUpdateDecorator::CGravityDecorator>::`scalar deleting destructor'
PUBLIC	??_7?$CDynamicPoolEx@VCAirResistanceDecorator@NEffectUpdateDecorator@@@@6B@ ; CDynamicPoolEx<NEffectUpdateDecorator::CAirResistanceDecorator>::`vftable'
PUBLIC	??_G?$CDynamicPoolEx@VCAirResistanceDecorator@NEffectUpdateDecorator@@@@UAEPAXI@Z ; CDynamicPoolEx<NEffectUpdateDecorator::CAirResistanceDecorator>::`scalar deleting destructor'
PUBLIC	??_R4?$CDynamicPoolEx@VCHeaderDecorator@NEffectUpdateDecorator@@@@6B@ ; CDynamicPoolEx<NEffectUpdateDecorator::CHeaderDecorator>::`RTTI Complete Object Locator'
PUBLIC	??_R0?AV?$CDynamicPoolEx@VCHeaderDecorator@NEffectUpdateDecorator@@@@@8 ; CDynamicPoolEx<NEffectUpdateDecorator::CHeaderDecorator> `RTTI Type Descriptor'
PUBLIC	??_R3?$CDynamicPoolEx@VCHeaderDecorator@NEffectUpdateDecorator@@@@8 ; CDynamicPoolEx<NEffectUpdateDecorator::CHeaderDecorator>::`RTTI Class Hierarchy Descriptor'
PUBLIC	??_R2?$CDynamicPoolEx@VCHeaderDecorator@NEffectUpdateDecorator@@@@8 ; CDynamicPoolEx<NEffectUpdateDecorator::CHeaderDecorator>::`RTTI Base Class Array'
PUBLIC	??_R1A@?0A@EA@?$CDynamicPoolEx@VCHeaderDecorator@NEffectUpdateDecorator@@@@8 ; CDynamicPoolEx<NEffectUpdateDecorator::CHeaderDecorator>::`RTTI Base Class Descriptor at (0,-1,0,64)'
PUBLIC	??_R4?$CDynamicPoolEx@VCNullDecorator@NEffectUpdateDecorator@@@@6B@ ; CDynamicPoolEx<NEffectUpdateDecorator::CNullDecorator>::`RTTI Complete Object Locator'
PUBLIC	??_R0?AV?$CDynamicPoolEx@VCNullDecorator@NEffectUpdateDecorator@@@@@8 ; CDynamicPoolEx<NEffectUpdateDecorator::CNullDecorator> `RTTI Type Descriptor'
PUBLIC	??_R3?$CDynamicPoolEx@VCNullDecorator@NEffectUpdateDecorator@@@@8 ; CDynamicPoolEx<NEffectUpdateDecorator::CNullDecorator>::`RTTI Class Hierarchy Descriptor'
PUBLIC	??_R2?$CDynamicPoolEx@VCNullDecorator@NEffectUpdateDecorator@@@@8 ; CDynamicPoolEx<NEffectUpdateDecorator::CNullDecorator>::`RTTI Base Class Array'
PUBLIC	??_R1A@?0A@EA@?$CDynamicPoolEx@VCNullDecorator@NEffectUpdateDecorator@@@@8 ; CDynamicPoolEx<NEffectUpdateDecorator::CNullDecorator>::`RTTI Base Class Descriptor at (0,-1,0,64)'
PUBLIC	??_R4?$CDynamicPoolEx@VCTextureAnimationCWDecorator@NEffectUpdateDecorator@@@@6B@ ; CDynamicPoolEx<NEffectUpdateDecorator::CTextureAnimationCWDecorator>::`RTTI Complete Object Locator'
PUBLIC	??_R0?AV?$CDynamicPoolEx@VCTextureAnimationCWDecorator@NEffectUpdateDecorator@@@@@8 ; CDynamicPoolEx<NEffectUpdateDecorator::CTextureAnimationCWDecorator> `RTTI Type Descriptor'
PUBLIC	??_R3?$CDynamicPoolEx@VCTextureAnimationCWDecorator@NEffectUpdateDecorator@@@@8 ; CDynamicPoolEx<NEffectUpdateDecorator::CTextureAnimationCWDecorator>::`RTTI Class Hierarchy Descriptor'
PUBLIC	??_R2?$CDynamicPoolEx@VCTextureAnimationCWDecorator@NEffectUpdateDecorator@@@@8 ; CDynamicPoolEx<NEffectUpdateDecorator::CTextureAnimationCWDecorator>::`RTTI Base Class Array'
PUBLIC	??_R1A@?0A@EA@?$CDynamicPoolEx@VCTextureAnimationCWDecorator@NEffectUpdateDecorator@@@@8 ; CDynamicPoolEx<NEffectUpdateDecorator::CTextureAnimationCWDecorator>::`RTTI Base Class Descriptor at (0,-1,0,64)'
PUBLIC	??_R4?$CDynamicPoolEx@VCTextureAnimationCCWDecorator@NEffectUpdateDecorator@@@@6B@ ; CDynamicPoolEx<NEffectUpdateDecorator::CTextureAnimationCCWDecorator>::`RTTI Complete Object Locator'
PUBLIC	??_R0?AV?$CDynamicPoolEx@VCTextureAnimationCCWDecorator@NEffectUpdateDecorator@@@@@8 ; CDynamicPoolEx<NEffectUpdateDecorator::CTextureAnimationCCWDecorator> `RTTI Type Descriptor'
PUBLIC	??_R3?$CDynamicPoolEx@VCTextureAnimationCCWDecorator@NEffectUpdateDecorator@@@@8 ; CDynamicPoolEx<NEffectUpdateDecorator::CTextureAnimationCCWDecorator>::`RTTI Class Hierarchy Descriptor'
PUBLIC	??_R2?$CDynamicPoolEx@VCTextureAnimationCCWDecorator@NEffectUpdateDecorator@@@@8 ; CDynamicPoolEx<NEffectUpdateDecorator::CTextureAnimationCCWDecorator>::`RTTI Base Class Array'
PUBLIC	??_R1A@?0A@EA@?$CDynamicPoolEx@VCTextureAnimationCCWDecorator@NEffectUpdateDecorator@@@@8 ; CDynamicPoolEx<NEffectUpdateDecorator::CTextureAnimationCCWDecorator>::`RTTI Base Class Descriptor at (0,-1,0,64)'
PUBLIC	??_R4?$CDynamicPoolEx@VCTextureAnimationRandomDecorator@NEffectUpdateDecorator@@@@6B@ ; CDynamicPoolEx<NEffectUpdateDecorator::CTextureAnimationRandomDecorator>::`RTTI Complete Object Locator'
PUBLIC	??_R0?AV?$CDynamicPoolEx@VCTextureAnimationRandomDecorator@NEffectUpdateDecorator@@@@@8 ; CDynamicPoolEx<NEffectUpdateDecorator::CTextureAnimationRandomDecorator> `RTTI Type Descriptor'
PUBLIC	??_R3?$CDynamicPoolEx@VCTextureAnimationRandomDecorator@NEffectUpdateDecorator@@@@8 ; CDynamicPoolEx<NEffectUpdateDecorator::CTextureAnimationRandomDecorator>::`RTTI Class Hierarchy Descriptor'
PUBLIC	??_R2?$CDynamicPoolEx@VCTextureAnimationRandomDecorator@NEffectUpdateDecorator@@@@8 ; CDynamicPoolEx<NEffectUpdateDecorator::CTextureAnimationRandomDecorator>::`RTTI Base Class Array'
PUBLIC	??_R1A@?0A@EA@?$CDynamicPoolEx@VCTextureAnimationRandomDecorator@NEffectUpdateDecorator@@@@8 ; CDynamicPoolEx<NEffectUpdateDecorator::CTextureAnimationRandomDecorator>::`RTTI Base Class Descriptor at (0,-1,0,64)'
PUBLIC	??_R4?$CDynamicPoolEx@VCAirResistanceDecorator@NEffectUpdateDecorator@@@@6B@ ; CDynamicPoolEx<NEffectUpdateDecorator::CAirResistanceDecorator>::`RTTI Complete Object Locator'
PUBLIC	??_R0?AV?$CDynamicPoolEx@VCAirResistanceDecorator@NEffectUpdateDecorator@@@@@8 ; CDynamicPoolEx<NEffectUpdateDecorator::CAirResistanceDecorator> `RTTI Type Descriptor'
PUBLIC	??_R3?$CDynamicPoolEx@VCAirResistanceDecorator@NEffectUpdateDecorator@@@@8 ; CDynamicPoolEx<NEffectUpdateDecorator::CAirResistanceDecorator>::`RTTI Class Hierarchy Descriptor'
PUBLIC	??_R2?$CDynamicPoolEx@VCAirResistanceDecorator@NEffectUpdateDecorator@@@@8 ; CDynamicPoolEx<NEffectUpdateDecorator::CAirResistanceDecorator>::`RTTI Base Class Array'
PUBLIC	??_R1A@?0A@EA@?$CDynamicPoolEx@VCAirResistanceDecorator@NEffectUpdateDecorator@@@@8 ; CDynamicPoolEx<NEffectUpdateDecorator::CAirResistanceDecorator>::`RTTI Base Class Descriptor at (0,-1,0,64)'
PUBLIC	??_R4?$CDynamicPoolEx@VCGravityDecorator@NEffectUpdateDecorator@@@@6B@ ; CDynamicPoolEx<NEffectUpdateDecorator::CGravityDecorator>::`RTTI Complete Object Locator'
PUBLIC	??_R0?AV?$CDynamicPoolEx@VCGravityDecorator@NEffectUpdateDecorator@@@@@8 ; CDynamicPoolEx<NEffectUpdateDecorator::CGravityDecorator> `RTTI Type Descriptor'
PUBLIC	??_R3?$CDynamicPoolEx@VCGravityDecorator@NEffectUpdateDecorator@@@@8 ; CDynamicPoolEx<NEffectUpdateDecorator::CGravityDecorator>::`RTTI Class Hierarchy Descriptor'
PUBLIC	??_R2?$CDynamicPoolEx@VCGravityDecorator@NEffectUpdateDecorator@@@@8 ; CDynamicPoolEx<NEffectUpdateDecorator::CGravityDecorator>::`RTTI Base Class Array'
PUBLIC	??_R1A@?0A@EA@?$CDynamicPoolEx@VCGravityDecorator@NEffectUpdateDecorator@@@@8 ; CDynamicPoolEx<NEffectUpdateDecorator::CGravityDecorator>::`RTTI Base Class Descriptor at (0,-1,0,64)'
PUBLIC	??_R4?$CDynamicPoolEx@VCRotationDecorator@NEffectUpdateDecorator@@@@6B@ ; CDynamicPoolEx<NEffectUpdateDecorator::CRotationDecorator>::`RTTI Complete Object Locator'
PUBLIC	??_R0?AV?$CDynamicPoolEx@VCRotationDecorator@NEffectUpdateDecorator@@@@@8 ; CDynamicPoolEx<NEffectUpdateDecorator::CRotationDecorator> `RTTI Type Descriptor'
PUBLIC	??_R3?$CDynamicPoolEx@VCRotationDecorator@NEffectUpdateDecorator@@@@8 ; CDynamicPoolEx<NEffectUpdateDecorator::CRotationDecorator>::`RTTI Class Hierarchy Descriptor'
PUBLIC	??_R2?$CDynamicPoolEx@VCRotationDecorator@NEffectUpdateDecorator@@@@8 ; CDynamicPoolEx<NEffectUpdateDecorator::CRotationDecorator>::`RTTI Base Class Array'
PUBLIC	??_R1A@?0A@EA@?$CDynamicPoolEx@VCRotationDecorator@NEffectUpdateDecorator@@@@8 ; CDynamicPoolEx<NEffectUpdateDecorator::CRotationDecorator>::`RTTI Base Class Descriptor at (0,-1,0,64)'
PUBLIC	??_7?$CDynamicPoolEx@VCTextureAnimationRandomDecorator@NEffectUpdateDecorator@@@@6B@ ; CDynamicPoolEx<NEffectUpdateDecorator::CTextureAnimationRandomDecorator>::`vftable'
PUBLIC	??_G?$CDynamicPoolEx@VCTextureAnimationRandomDecorator@NEffectUpdateDecorator@@@@UAEPAXI@Z ; CDynamicPoolEx<NEffectUpdateDecorator::CTextureAnimationRandomDecorator>::`scalar deleting destructor'
PUBLIC	??_7?$CDynamicPoolEx@VCTextureAnimationCCWDecorator@NEffectUpdateDecorator@@@@6B@ ; CDynamicPoolEx<NEffectUpdateDecorator::CTextureAnimationCCWDecorator>::`vftable'
PUBLIC	??_G?$CDynamicPoolEx@VCTextureAnimationCCWDecorator@NEffectUpdateDecorator@@@@UAEPAXI@Z ; CDynamicPoolEx<NEffectUpdateDecorator::CTextureAnimationCCWDecorator>::`scalar deleting destructor'
PUBLIC	??_7?$CDynamicPoolEx@VCTextureAnimationCWDecorator@NEffectUpdateDecorator@@@@6B@ ; CDynamicPoolEx<NEffectUpdateDecorator::CTextureAnimationCWDecorator>::`vftable'
PUBLIC	??_G?$CDynamicPoolEx@VCTextureAnimationCWDecorator@NEffectUpdateDecorator@@@@UAEPAXI@Z ; CDynamicPoolEx<NEffectUpdateDecorator::CTextureAnimationCWDecorator>::`scalar deleting destructor'
PUBLIC	?c_iSkillIndex_Tongsol@@3KB			; c_iSkillIndex_Tongsol
PUBLIC	?c_iSkillIndex_Combo@@3KB			; c_iSkillIndex_Combo
PUBLIC	?c_iSkillIndex_Fishing@@3KB			; c_iSkillIndex_Fishing
PUBLIC	?c_iSkillIndex_Mining@@3KB			; c_iSkillIndex_Mining
PUBLIC	?c_iSkillIndex_Making@@3KB			; c_iSkillIndex_Making
PUBLIC	?c_iSkillIndex_Language1@@3KB			; c_iSkillIndex_Language1
PUBLIC	?c_iSkillIndex_Language2@@3KB			; c_iSkillIndex_Language2
PUBLIC	?c_iSkillIndex_Language3@@3KB			; c_iSkillIndex_Language3
PUBLIC	?c_iSkillIndex_Polymorph@@3KB			; c_iSkillIndex_Polymorph
PUBLIC	?c_iSkillIndex_Riding@@3KB			; c_iSkillIndex_Riding
PUBLIC	?c_iSkillIndex_Summon@@3KB			; c_iSkillIndex_Summon
PUBLIC	??_7?$CDynamicPoolEx@VCNullDecorator@NEffectUpdateDecorator@@@@6B@ ; CDynamicPoolEx<NEffectUpdateDecorator::CNullDecorator>::`vftable'
PUBLIC	??_G?$CDynamicPoolEx@VCNullDecorator@NEffectUpdateDecorator@@@@UAEPAXI@Z ; CDynamicPoolEx<NEffectUpdateDecorator::CNullDecorator>::`scalar deleting destructor'
EXTRN	??_E?$CDynamicPoolEx@VCHeaderDecorator@NEffectUpdateDecorator@@@@UAEPAXI@Z:PROC ; CDynamicPoolEx<NEffectUpdateDecorator::CHeaderDecorator>::`vector deleting destructor'
EXTRN	??_E?$CDynamicPoolEx@VCRotationDecorator@NEffectUpdateDecorator@@@@UAEPAXI@Z:PROC ; CDynamicPoolEx<NEffectUpdateDecorator::CRotationDecorator>::`vector deleting destructor'
EXTRN	??_7type_info@@6B@:QWORD			; type_info::`vftable'
EXTRN	??_E?$CDynamicPoolEx@VCGravityDecorator@NEffectUpdateDecorator@@@@UAEPAXI@Z:PROC ; CDynamicPoolEx<NEffectUpdateDecorator::CGravityDecorator>::`vector deleting destructor'
EXTRN	??_E?$CDynamicPoolEx@VCAirResistanceDecorator@NEffectUpdateDecorator@@@@UAEPAXI@Z:PROC ; CDynamicPoolEx<NEffectUpdateDecorator::CAirResistanceDecorator>::`vector deleting destructor'
EXTRN	??_E?$CDynamicPoolEx@VCTextureAnimationRandomDecorator@NEffectUpdateDecorator@@@@UAEPAXI@Z:PROC ; CDynamicPoolEx<NEffectUpdateDecorator::CTextureAnimationRandomDecorator>::`vector deleting destructor'
EXTRN	??_E?$CDynamicPoolEx@VCTextureAnimationCCWDecorator@NEffectUpdateDecorator@@@@UAEPAXI@Z:PROC ; CDynamicPoolEx<NEffectUpdateDecorator::CTextureAnimationCCWDecorator>::`vector deleting destructor'
EXTRN	??_E?$CDynamicPoolEx@VCTextureAnimationCWDecorator@NEffectUpdateDecorator@@@@UAEPAXI@Z:PROC ; CDynamicPoolEx<NEffectUpdateDecorator::CTextureAnimationCWDecorator>::`vector deleting destructor'
EXTRN	??_E?$CDynamicPoolEx@VCNullDecorator@NEffectUpdateDecorator@@@@UAEPAXI@Z:PROC ; CDynamicPoolEx<NEffectUpdateDecorator::CNullDecorator>::`vector deleting destructor'
;	COMDAT ??_7?$CDynamicPoolEx@VCNullDecorator@NEffectUpdateDecorator@@@@6B@
CONST	SEGMENT
??_7?$CDynamicPoolEx@VCNullDecorator@NEffectUpdateDecorator@@@@6B@ DD FLAT:??_R4?$CDynamicPoolEx@VCNullDecorator@NEffectUpdateDecorator@@@@6B@ ; CDynamicPoolEx<NEffectUpdateDecorator::CNullDecorator>::`vftable'
	DD	FLAT:??_E?$CDynamicPoolEx@VCNullDecorator@NEffectUpdateDecorator@@@@UAEPAXI@Z
CONST	ENDS
;	COMDAT ??_7?$CDynamicPoolEx@VCTextureAnimationCWDecorator@NEffectUpdateDecorator@@@@6B@
CONST	SEGMENT
??_7?$CDynamicPoolEx@VCTextureAnimationCWDecorator@NEffectUpdateDecorator@@@@6B@ DD FLAT:??_R4?$CDynamicPoolEx@VCTextureAnimationCWDecorator@NEffectUpdateDecorator@@@@6B@ ; CDynamicPoolEx<NEffectUpdateDecorator::CTextureAnimationCWDecorator>::`vftable'
	DD	FLAT:??_E?$CDynamicPoolEx@VCTextureAnimationCWDecorator@NEffectUpdateDecorator@@@@UAEPAXI@Z
CONST	ENDS
;	COMDAT ??_7?$CDynamicPoolEx@VCTextureAnimationCCWDecorator@NEffectUpdateDecorator@@@@6B@
CONST	SEGMENT
??_7?$CDynamicPoolEx@VCTextureAnimationCCWDecorator@NEffectUpdateDecorator@@@@6B@ DD FLAT:??_R4?$CDynamicPoolEx@VCTextureAnimationCCWDecorator@NEffectUpdateDecorator@@@@6B@ ; CDynamicPoolEx<NEffectUpdateDecorator::CTextureAnimationCCWDecorator>::`vftable'
	DD	FLAT:??_E?$CDynamicPoolEx@VCTextureAnimationCCWDecorator@NEffectUpdateDecorator@@@@UAEPAXI@Z
CONST	ENDS
;	COMDAT ??_7?$CDynamicPoolEx@VCTextureAnimationRandomDecorator@NEffectUpdateDecorator@@@@6B@
CONST	SEGMENT
??_7?$CDynamicPoolEx@VCTextureAnimationRandomDecorator@NEffectUpdateDecorator@@@@6B@ DD FLAT:??_R4?$CDynamicPoolEx@VCTextureAnimationRandomDecorator@NEffectUpdateDecorator@@@@6B@ ; CDynamicPoolEx<NEffectUpdateDecorator::CTextureAnimationRandomDecorator>::`vftable'
	DD	FLAT:??_E?$CDynamicPoolEx@VCTextureAnimationRandomDecorator@NEffectUpdateDecorator@@@@UAEPAXI@Z
CONST	ENDS
;	COMDAT ??_R1A@?0A@EA@?$CDynamicPoolEx@VCRotationDecorator@NEffectUpdateDecorator@@@@8
rdata$r	SEGMENT
??_R1A@?0A@EA@?$CDynamicPoolEx@VCRotationDecorator@NEffectUpdateDecorator@@@@8 DD FLAT:??_R0?AV?$CDynamicPoolEx@VCRotationDecorator@NEffectUpdateDecorator@@@@@8 ; CDynamicPoolEx<NEffectUpdateDecorator::CRotationDecorator>::`RTTI Base Class Descriptor at (0,-1,0,64)'
	DD	00H
	DD	00H
	DD	0ffffffffH
	DD	00H
	DD	040H
	DD	FLAT:??_R3?$CDynamicPoolEx@VCRotationDecorator@NEffectUpdateDecorator@@@@8
rdata$r	ENDS
;	COMDAT ??_R2?$CDynamicPoolEx@VCRotationDecorator@NEffectUpdateDecorator@@@@8
rdata$r	SEGMENT
??_R2?$CDynamicPoolEx@VCRotationDecorator@NEffectUpdateDecorator@@@@8 DD FLAT:??_R1A@?0A@EA@?$CDynamicPoolEx@VCRotationDecorator@NEffectUpdateDecorator@@@@8 ; CDynamicPoolEx<NEffectUpdateDecorator::CRotationDecorator>::`RTTI Base Class Array'
rdata$r	ENDS
;	COMDAT ??_R3?$CDynamicPoolEx@VCRotationDecorator@NEffectUpdateDecorator@@@@8
rdata$r	SEGMENT
??_R3?$CDynamicPoolEx@VCRotationDecorator@NEffectUpdateDecorator@@@@8 DD 00H ; CDynamicPoolEx<NEffectUpdateDecorator::CRotationDecorator>::`RTTI Class Hierarchy Descriptor'
	DD	00H
	DD	01H
	DD	FLAT:??_R2?$CDynamicPoolEx@VCRotationDecorator@NEffectUpdateDecorator@@@@8
rdata$r	ENDS
;	COMDAT ??_R0?AV?$CDynamicPoolEx@VCRotationDecorator@NEffectUpdateDecorator@@@@@8
data$rs	SEGMENT
??_R0?AV?$CDynamicPoolEx@VCRotationDecorator@NEffectUpdateDecorator@@@@@8 DD FLAT:??_7type_info@@6B@ ; CDynamicPoolEx<NEffectUpdateDecorator::CRotationDecorator> `RTTI Type Descriptor'
	DD	00H
	DB	'.?AV?$CDynamicPoolEx@VCRotationDecorator@NEffectUpdateDe'
	DB	'corator@@@@', 00H
data$rs	ENDS
;	COMDAT ??_R4?$CDynamicPoolEx@VCRotationDecorator@NEffectUpdateDecorator@@@@6B@
rdata$r	SEGMENT
??_R4?$CDynamicPoolEx@VCRotationDecorator@NEffectUpdateDecorator@@@@6B@ DD 00H ; CDynamicPoolEx<NEffectUpdateDecorator::CRotationDecorator>::`RTTI Complete Object Locator'
	DD	00H
	DD	00H
	DD	FLAT:??_R0?AV?$CDynamicPoolEx@VCRotationDecorator@NEffectUpdateDecorator@@@@@8
	DD	FLAT:??_R3?$CDynamicPoolEx@VCRotationDecorator@NEffectUpdateDecorator@@@@8
rdata$r	ENDS
;	COMDAT ??_R1A@?0A@EA@?$CDynamicPoolEx@VCGravityDecorator@NEffectUpdateDecorator@@@@8
rdata$r	SEGMENT
??_R1A@?0A@EA@?$CDynamicPoolEx@VCGravityDecorator@NEffectUpdateDecorator@@@@8 DD FLAT:??_R0?AV?$CDynamicPoolEx@VCGravityDecorator@NEffectUpdateDecorator@@@@@8 ; CDynamicPoolEx<NEffectUpdateDecorator::CGravityDecorator>::`RTTI Base Class Descriptor at (0,-1,0,64)'
	DD	00H
	DD	00H
	DD	0ffffffffH
	DD	00H
	DD	040H
	DD	FLAT:??_R3?$CDynamicPoolEx@VCGravityDecorator@NEffectUpdateDecorator@@@@8
rdata$r	ENDS
;	COMDAT ??_R2?$CDynamicPoolEx@VCGravityDecorator@NEffectUpdateDecorator@@@@8
rdata$r	SEGMENT
??_R2?$CDynamicPoolEx@VCGravityDecorator@NEffectUpdateDecorator@@@@8 DD FLAT:??_R1A@?0A@EA@?$CDynamicPoolEx@VCGravityDecorator@NEffectUpdateDecorator@@@@8 ; CDynamicPoolEx<NEffectUpdateDecorator::CGravityDecorator>::`RTTI Base Class Array'
rdata$r	ENDS
;	COMDAT ??_R3?$CDynamicPoolEx@VCGravityDecorator@NEffectUpdateDecorator@@@@8
rdata$r	SEGMENT
??_R3?$CDynamicPoolEx@VCGravityDecorator@NEffectUpdateDecorator@@@@8 DD 00H ; CDynamicPoolEx<NEffectUpdateDecorator::CGravityDecorator>::`RTTI Class Hierarchy Descriptor'
	DD	00H
	DD	01H
	DD	FLAT:??_R2?$CDynamicPoolEx@VCGravityDecorator@NEffectUpdateDecorator@@@@8
rdata$r	ENDS
;	COMDAT ??_R0?AV?$CDynamicPoolEx@VCGravityDecorator@NEffectUpdateDecorator@@@@@8
data$rs	SEGMENT
??_R0?AV?$CDynamicPoolEx@VCGravityDecorator@NEffectUpdateDecorator@@@@@8 DD FLAT:??_7type_info@@6B@ ; CDynamicPoolEx<NEffectUpdateDecorator::CGravityDecorator> `RTTI Type Descriptor'
	DD	00H
	DB	'.?AV?$CDynamicPoolEx@VCGravityDecorator@NEffectUpdateDec'
	DB	'orator@@@@', 00H
data$rs	ENDS
;	COMDAT ??_R4?$CDynamicPoolEx@VCGravityDecorator@NEffectUpdateDecorator@@@@6B@
rdata$r	SEGMENT
??_R4?$CDynamicPoolEx@VCGravityDecorator@NEffectUpdateDecorator@@@@6B@ DD 00H ; CDynamicPoolEx<NEffectUpdateDecorator::CGravityDecorator>::`RTTI Complete Object Locator'
	DD	00H
	DD	00H
	DD	FLAT:??_R0?AV?$CDynamicPoolEx@VCGravityDecorator@NEffectUpdateDecorator@@@@@8
	DD	FLAT:??_R3?$CDynamicPoolEx@VCGravityDecorator@NEffectUpdateDecorator@@@@8
rdata$r	ENDS
;	COMDAT ??_R1A@?0A@EA@?$CDynamicPoolEx@VCAirResistanceDecorator@NEffectUpdateDecorator@@@@8
rdata$r	SEGMENT
??_R1A@?0A@EA@?$CDynamicPoolEx@VCAirResistanceDecorator@NEffectUpdateDecorator@@@@8 DD FLAT:??_R0?AV?$CDynamicPoolEx@VCAirResistanceDecorator@NEffectUpdateDecorator@@@@@8 ; CDynamicPoolEx<NEffectUpdateDecorator::CAirResistanceDecorator>::`RTTI Base Class Descriptor at (0,-1,0,64)'
	DD	00H
	DD	00H
	DD	0ffffffffH
	DD	00H
	DD	040H
	DD	FLAT:??_R3?$CDynamicPoolEx@VCAirResistanceDecorator@NEffectUpdateDecorator@@@@8
rdata$r	ENDS
;	COMDAT ??_R2?$CDynamicPoolEx@VCAirResistanceDecorator@NEffectUpdateDecorator@@@@8
rdata$r	SEGMENT
??_R2?$CDynamicPoolEx@VCAirResistanceDecorator@NEffectUpdateDecorator@@@@8 DD FLAT:??_R1A@?0A@EA@?$CDynamicPoolEx@VCAirResistanceDecorator@NEffectUpdateDecorator@@@@8 ; CDynamicPoolEx<NEffectUpdateDecorator::CAirResistanceDecorator>::`RTTI Base Class Array'
rdata$r	ENDS
;	COMDAT ??_R3?$CDynamicPoolEx@VCAirResistanceDecorator@NEffectUpdateDecorator@@@@8
rdata$r	SEGMENT
??_R3?$CDynamicPoolEx@VCAirResistanceDecorator@NEffectUpdateDecorator@@@@8 DD 00H ; CDynamicPoolEx<NEffectUpdateDecorator::CAirResistanceDecorator>::`RTTI Class Hierarchy Descriptor'
	DD	00H
	DD	01H
	DD	FLAT:??_R2?$CDynamicPoolEx@VCAirResistanceDecorator@NEffectUpdateDecorator@@@@8
rdata$r	ENDS
;	COMDAT ??_R0?AV?$CDynamicPoolEx@VCAirResistanceDecorator@NEffectUpdateDecorator@@@@@8
data$rs	SEGMENT
??_R0?AV?$CDynamicPoolEx@VCAirResistanceDecorator@NEffectUpdateDecorator@@@@@8 DD FLAT:??_7type_info@@6B@ ; CDynamicPoolEx<NEffectUpdateDecorator::CAirResistanceDecorator> `RTTI Type Descriptor'
	DD	00H
	DB	'.?AV?$CDynamicPoolEx@VCAirResistanceDecorator@NEffectUpd'
	DB	'ateDecorator@@@@', 00H
data$rs	ENDS
;	COMDAT ??_R4?$CDynamicPoolEx@VCAirResistanceDecorator@NEffectUpdateDecorator@@@@6B@
rdata$r	SEGMENT
??_R4?$CDynamicPoolEx@VCAirResistanceDecorator@NEffectUpdateDecorator@@@@6B@ DD 00H ; CDynamicPoolEx<NEffectUpdateDecorator::CAirResistanceDecorator>::`RTTI Complete Object Locator'
	DD	00H
	DD	00H
	DD	FLAT:??_R0?AV?$CDynamicPoolEx@VCAirResistanceDecorator@NEffectUpdateDecorator@@@@@8
	DD	FLAT:??_R3?$CDynamicPoolEx@VCAirResistanceDecorator@NEffectUpdateDecorator@@@@8
rdata$r	ENDS
;	COMDAT ??_R1A@?0A@EA@?$CDynamicPoolEx@VCTextureAnimationRandomDecorator@NEffectUpdateDecorator@@@@8
rdata$r	SEGMENT
??_R1A@?0A@EA@?$CDynamicPoolEx@VCTextureAnimationRandomDecorator@NEffectUpdateDecorator@@@@8 DD FLAT:??_R0?AV?$CDynamicPoolEx@VCTextureAnimationRandomDecorator@NEffectUpdateDecorator@@@@@8 ; CDynamicPoolEx<NEffectUpdateDecorator::CTextureAnimationRandomDecorator>::`RTTI Base Class Descriptor at (0,-1,0,64)'
	DD	00H
	DD	00H
	DD	0ffffffffH
	DD	00H
	DD	040H
	DD	FLAT:??_R3?$CDynamicPoolEx@VCTextureAnimationRandomDecorator@NEffectUpdateDecorator@@@@8
rdata$r	ENDS
;	COMDAT ??_R2?$CDynamicPoolEx@VCTextureAnimationRandomDecorator@NEffectUpdateDecorator@@@@8
rdata$r	SEGMENT
??_R2?$CDynamicPoolEx@VCTextureAnimationRandomDecorator@NEffectUpdateDecorator@@@@8 DD FLAT:??_R1A@?0A@EA@?$CDynamicPoolEx@VCTextureAnimationRandomDecorator@NEffectUpdateDecorator@@@@8 ; CDynamicPoolEx<NEffectUpdateDecorator::CTextureAnimationRandomDecorator>::`RTTI Base Class Array'
rdata$r	ENDS
;	COMDAT ??_R3?$CDynamicPoolEx@VCTextureAnimationRandomDecorator@NEffectUpdateDecorator@@@@8
rdata$r	SEGMENT
??_R3?$CDynamicPoolEx@VCTextureAnimationRandomDecorator@NEffectUpdateDecorator@@@@8 DD 00H ; CDynamicPoolEx<NEffectUpdateDecorator::CTextureAnimationRandomDecorator>::`RTTI Class Hierarchy Descriptor'
	DD	00H
	DD	01H
	DD	FLAT:??_R2?$CDynamicPoolEx@VCTextureAnimationRandomDecorator@NEffectUpdateDecorator@@@@8
rdata$r	ENDS
;	COMDAT ??_R0?AV?$CDynamicPoolEx@VCTextureAnimationRandomDecorator@NEffectUpdateDecorator@@@@@8
data$rs	SEGMENT
??_R0?AV?$CDynamicPoolEx@VCTextureAnimationRandomDecorator@NEffectUpdateDecorator@@@@@8 DD FLAT:??_7type_info@@6B@ ; CDynamicPoolEx<NEffectUpdateDecorator::CTextureAnimationRandomDecorator> `RTTI Type Descriptor'
	DD	00H
	DB	'.?AV?$CDynamicPoolEx@VCTextureAnimationRandomDecorator@N'
	DB	'EffectUpdateDecorator@@@@', 00H
data$rs	ENDS
;	COMDAT ??_R4?$CDynamicPoolEx@VCTextureAnimationRandomDecorator@NEffectUpdateDecorator@@@@6B@
rdata$r	SEGMENT
??_R4?$CDynamicPoolEx@VCTextureAnimationRandomDecorator@NEffectUpdateDecorator@@@@6B@ DD 00H ; CDynamicPoolEx<NEffectUpdateDecorator::CTextureAnimationRandomDecorator>::`RTTI Complete Object Locator'
	DD	00H
	DD	00H
	DD	FLAT:??_R0?AV?$CDynamicPoolEx@VCTextureAnimationRandomDecorator@NEffectUpdateDecorator@@@@@8
	DD	FLAT:??_R3?$CDynamicPoolEx@VCTextureAnimationRandomDecorator@NEffectUpdateDecorator@@@@8
rdata$r	ENDS
;	COMDAT ??_R1A@?0A@EA@?$CDynamicPoolEx@VCTextureAnimationCCWDecorator@NEffectUpdateDecorator@@@@8
rdata$r	SEGMENT
??_R1A@?0A@EA@?$CDynamicPoolEx@VCTextureAnimationCCWDecorator@NEffectUpdateDecorator@@@@8 DD FLAT:??_R0?AV?$CDynamicPoolEx@VCTextureAnimationCCWDecorator@NEffectUpdateDecorator@@@@@8 ; CDynamicPoolEx<NEffectUpdateDecorator::CTextureAnimationCCWDecorator>::`RTTI Base Class Descriptor at (0,-1,0,64)'
	DD	00H
	DD	00H
	DD	0ffffffffH
	DD	00H
	DD	040H
	DD	FLAT:??_R3?$CDynamicPoolEx@VCTextureAnimationCCWDecorator@NEffectUpdateDecorator@@@@8
rdata$r	ENDS
;	COMDAT ??_R2?$CDynamicPoolEx@VCTextureAnimationCCWDecorator@NEffectUpdateDecorator@@@@8
rdata$r	SEGMENT
??_R2?$CDynamicPoolEx@VCTextureAnimationCCWDecorator@NEffectUpdateDecorator@@@@8 DD FLAT:??_R1A@?0A@EA@?$CDynamicPoolEx@VCTextureAnimationCCWDecorator@NEffectUpdateDecorator@@@@8 ; CDynamicPoolEx<NEffectUpdateDecorator::CTextureAnimationCCWDecorator>::`RTTI Base Class Array'
rdata$r	ENDS
;	COMDAT ??_R3?$CDynamicPoolEx@VCTextureAnimationCCWDecorator@NEffectUpdateDecorator@@@@8
rdata$r	SEGMENT
??_R3?$CDynamicPoolEx@VCTextureAnimationCCWDecorator@NEffectUpdateDecorator@@@@8 DD 00H ; CDynamicPoolEx<NEffectUpdateDecorator::CTextureAnimationCCWDecorator>::`RTTI Class Hierarchy Descriptor'
	DD	00H
	DD	01H
	DD	FLAT:??_R2?$CDynamicPoolEx@VCTextureAnimationCCWDecorator@NEffectUpdateDecorator@@@@8
rdata$r	ENDS
;	COMDAT ??_R0?AV?$CDynamicPoolEx@VCTextureAnimationCCWDecorator@NEffectUpdateDecorator@@@@@8
data$rs	SEGMENT
??_R0?AV?$CDynamicPoolEx@VCTextureAnimationCCWDecorator@NEffectUpdateDecorator@@@@@8 DD FLAT:??_7type_info@@6B@ ; CDynamicPoolEx<NEffectUpdateDecorator::CTextureAnimationCCWDecorator> `RTTI Type Descriptor'
	DD	00H
	DB	'.?AV?$CDynamicPoolEx@VCTextureAnimationCCWDecorator@NEff'
	DB	'ectUpdateDecorator@@@@', 00H
data$rs	ENDS
;	COMDAT ??_R4?$CDynamicPoolEx@VCTextureAnimationCCWDecorator@NEffectUpdateDecorator@@@@6B@
rdata$r	SEGMENT
??_R4?$CDynamicPoolEx@VCTextureAnimationCCWDecorator@NEffectUpdateDecorator@@@@6B@ DD 00H ; CDynamicPoolEx<NEffectUpdateDecorator::CTextureAnimationCCWDecorator>::`RTTI Complete Object Locator'
	DD	00H
	DD	00H
	DD	FLAT:??_R0?AV?$CDynamicPoolEx@VCTextureAnimationCCWDecorator@NEffectUpdateDecorator@@@@@8
	DD	FLAT:??_R3?$CDynamicPoolEx@VCTextureAnimationCCWDecorator@NEffectUpdateDecorator@@@@8
rdata$r	ENDS
;	COMDAT ??_R1A@?0A@EA@?$CDynamicPoolEx@VCTextureAnimationCWDecorator@NEffectUpdateDecorator@@@@8
rdata$r	SEGMENT
??_R1A@?0A@EA@?$CDynamicPoolEx@VCTextureAnimationCWDecorator@NEffectUpdateDecorator@@@@8 DD FLAT:??_R0?AV?$CDynamicPoolEx@VCTextureAnimationCWDecorator@NEffectUpdateDecorator@@@@@8 ; CDynamicPoolEx<NEffectUpdateDecorator::CTextureAnimationCWDecorator>::`RTTI Base Class Descriptor at (0,-1,0,64)'
	DD	00H
	DD	00H
	DD	0ffffffffH
	DD	00H
	DD	040H
	DD	FLAT:??_R3?$CDynamicPoolEx@VCTextureAnimationCWDecorator@NEffectUpdateDecorator@@@@8
rdata$r	ENDS
;	COMDAT ??_R2?$CDynamicPoolEx@VCTextureAnimationCWDecorator@NEffectUpdateDecorator@@@@8
rdata$r	SEGMENT
??_R2?$CDynamicPoolEx@VCTextureAnimationCWDecorator@NEffectUpdateDecorator@@@@8 DD FLAT:??_R1A@?0A@EA@?$CDynamicPoolEx@VCTextureAnimationCWDecorator@NEffectUpdateDecorator@@@@8 ; CDynamicPoolEx<NEffectUpdateDecorator::CTextureAnimationCWDecorator>::`RTTI Base Class Array'
rdata$r	ENDS
;	COMDAT ??_R3?$CDynamicPoolEx@VCTextureAnimationCWDecorator@NEffectUpdateDecorator@@@@8
rdata$r	SEGMENT
??_R3?$CDynamicPoolEx@VCTextureAnimationCWDecorator@NEffectUpdateDecorator@@@@8 DD 00H ; CDynamicPoolEx<NEffectUpdateDecorator::CTextureAnimationCWDecorator>::`RTTI Class Hierarchy Descriptor'
	DD	00H
	DD	01H
	DD	FLAT:??_R2?$CDynamicPoolEx@VCTextureAnimationCWDecorator@NEffectUpdateDecorator@@@@8
rdata$r	ENDS
;	COMDAT ??_R0?AV?$CDynamicPoolEx@VCTextureAnimationCWDecorator@NEffectUpdateDecorator@@@@@8
data$rs	SEGMENT
??_R0?AV?$CDynamicPoolEx@VCTextureAnimationCWDecorator@NEffectUpdateDecorator@@@@@8 DD FLAT:??_7type_info@@6B@ ; CDynamicPoolEx<NEffectUpdateDecorator::CTextureAnimationCWDecorator> `RTTI Type Descriptor'
	DD	00H
	DB	'.?AV?$CDynamicPoolEx@VCTextureAnimationCWDecorator@NEffe'
	DB	'ctUpdateDecorator@@@@', 00H
data$rs	ENDS
;	COMDAT ??_R4?$CDynamicPoolEx@VCTextureAnimationCWDecorator@NEffectUpdateDecorator@@@@6B@
rdata$r	SEGMENT
??_R4?$CDynamicPoolEx@VCTextureAnimationCWDecorator@NEffectUpdateDecorator@@@@6B@ DD 00H ; CDynamicPoolEx<NEffectUpdateDecorator::CTextureAnimationCWDecorator>::`RTTI Complete Object Locator'
	DD	00H
	DD	00H
	DD	FLAT:??_R0?AV?$CDynamicPoolEx@VCTextureAnimationCWDecorator@NEffectUpdateDecorator@@@@@8
	DD	FLAT:??_R3?$CDynamicPoolEx@VCTextureAnimationCWDecorator@NEffectUpdateDecorator@@@@8
rdata$r	ENDS
;	COMDAT ??_R1A@?0A@EA@?$CDynamicPoolEx@VCNullDecorator@NEffectUpdateDecorator@@@@8
rdata$r	SEGMENT
??_R1A@?0A@EA@?$CDynamicPoolEx@VCNullDecorator@NEffectUpdateDecorator@@@@8 DD FLAT:??_R0?AV?$CDynamicPoolEx@VCNullDecorator@NEffectUpdateDecorator@@@@@8 ; CDynamicPoolEx<NEffectUpdateDecorator::CNullDecorator>::`RTTI Base Class Descriptor at (0,-1,0,64)'
	DD	00H
	DD	00H
	DD	0ffffffffH
	DD	00H
	DD	040H
	DD	FLAT:??_R3?$CDynamicPoolEx@VCNullDecorator@NEffectUpdateDecorator@@@@8
rdata$r	ENDS
;	COMDAT ??_R2?$CDynamicPoolEx@VCNullDecorator@NEffectUpdateDecorator@@@@8
rdata$r	SEGMENT
??_R2?$CDynamicPoolEx@VCNullDecorator@NEffectUpdateDecorator@@@@8 DD FLAT:??_R1A@?0A@EA@?$CDynamicPoolEx@VCNullDecorator@NEffectUpdateDecorator@@@@8 ; CDynamicPoolEx<NEffectUpdateDecorator::CNullDecorator>::`RTTI Base Class Array'
rdata$r	ENDS
;	COMDAT ??_R3?$CDynamicPoolEx@VCNullDecorator@NEffectUpdateDecorator@@@@8
rdata$r	SEGMENT
??_R3?$CDynamicPoolEx@VCNullDecorator@NEffectUpdateDecorator@@@@8 DD 00H ; CDynamicPoolEx<NEffectUpdateDecorator::CNullDecorator>::`RTTI Class Hierarchy Descriptor'
	DD	00H
	DD	01H
	DD	FLAT:??_R2?$CDynamicPoolEx@VCNullDecorator@NEffectUpdateDecorator@@@@8
rdata$r	ENDS
;	COMDAT ??_R0?AV?$CDynamicPoolEx@VCNullDecorator@NEffectUpdateDecorator@@@@@8
data$rs	SEGMENT
??_R0?AV?$CDynamicPoolEx@VCNullDecorator@NEffectUpdateDecorator@@@@@8 DD FLAT:??_7type_info@@6B@ ; CDynamicPoolEx<NEffectUpdateDecorator::CNullDecorator> `RTTI Type Descriptor'
	DD	00H
	DB	'.?AV?$CDynamicPoolEx@VCNullDecorator@NEffectUpdateDecora'
	DB	'tor@@@@', 00H
data$rs	ENDS
;	COMDAT ??_R4?$CDynamicPoolEx@VCNullDecorator@NEffectUpdateDecorator@@@@6B@
rdata$r	SEGMENT
??_R4?$CDynamicPoolEx@VCNullDecorator@NEffectUpdateDecorator@@@@6B@ DD 00H ; CDynamicPoolEx<NEffectUpdateDecorator::CNullDecorator>::`RTTI Complete Object Locator'
	DD	00H
	DD	00H
	DD	FLAT:??_R0?AV?$CDynamicPoolEx@VCNullDecorator@NEffectUpdateDecorator@@@@@8
	DD	FLAT:??_R3?$CDynamicPoolEx@VCNullDecorator@NEffectUpdateDecorator@@@@8
rdata$r	ENDS
;	COMDAT ??_R1A@?0A@EA@?$CDynamicPoolEx@VCHeaderDecorator@NEffectUpdateDecorator@@@@8
rdata$r	SEGMENT
??_R1A@?0A@EA@?$CDynamicPoolEx@VCHeaderDecorator@NEffectUpdateDecorator@@@@8 DD FLAT:??_R0?AV?$CDynamicPoolEx@VCHeaderDecorator@NEffectUpdateDecorator@@@@@8 ; CDynamicPoolEx<NEffectUpdateDecorator::CHeaderDecorator>::`RTTI Base Class Descriptor at (0,-1,0,64)'
	DD	00H
	DD	00H
	DD	0ffffffffH
	DD	00H
	DD	040H
	DD	FLAT:??_R3?$CDynamicPoolEx@VCHeaderDecorator@NEffectUpdateDecorator@@@@8
rdata$r	ENDS
;	COMDAT ??_R2?$CDynamicPoolEx@VCHeaderDecorator@NEffectUpdateDecorator@@@@8
rdata$r	SEGMENT
??_R2?$CDynamicPoolEx@VCHeaderDecorator@NEffectUpdateDecorator@@@@8 DD FLAT:??_R1A@?0A@EA@?$CDynamicPoolEx@VCHeaderDecorator@NEffectUpdateDecorator@@@@8 ; CDynamicPoolEx<NEffectUpdateDecorator::CHeaderDecorator>::`RTTI Base Class Array'
rdata$r	ENDS
;	COMDAT ??_R3?$CDynamicPoolEx@VCHeaderDecorator@NEffectUpdateDecorator@@@@8
rdata$r	SEGMENT
??_R3?$CDynamicPoolEx@VCHeaderDecorator@NEffectUpdateDecorator@@@@8 DD 00H ; CDynamicPoolEx<NEffectUpdateDecorator::CHeaderDecorator>::`RTTI Class Hierarchy Descriptor'
	DD	00H
	DD	01H
	DD	FLAT:??_R2?$CDynamicPoolEx@VCHeaderDecorator@NEffectUpdateDecorator@@@@8
rdata$r	ENDS
;	COMDAT ??_R0?AV?$CDynamicPoolEx@VCHeaderDecorator@NEffectUpdateDecorator@@@@@8
data$rs	SEGMENT
??_R0?AV?$CDynamicPoolEx@VCHeaderDecorator@NEffectUpdateDecorator@@@@@8 DD FLAT:??_7type_info@@6B@ ; CDynamicPoolEx<NEffectUpdateDecorator::CHeaderDecorator> `RTTI Type Descriptor'
	DD	00H
	DB	'.?AV?$CDynamicPoolEx@VCHeaderDecorator@NEffectUpdateDeco'
	DB	'rator@@@@', 00H
data$rs	ENDS
;	COMDAT ??_R4?$CDynamicPoolEx@VCHeaderDecorator@NEffectUpdateDecorator@@@@6B@
rdata$r	SEGMENT
??_R4?$CDynamicPoolEx@VCHeaderDecorator@NEffectUpdateDecorator@@@@6B@ DD 00H ; CDynamicPoolEx<NEffectUpdateDecorator::CHeaderDecorator>::`RTTI Complete Object Locator'
	DD	00H
	DD	00H
	DD	FLAT:??_R0?AV?$CDynamicPoolEx@VCHeaderDecorator@NEffectUpdateDecorator@@@@@8
	DD	FLAT:??_R3?$CDynamicPoolEx@VCHeaderDecorator@NEffectUpdateDecorator@@@@8
rdata$r	ENDS
;	COMDAT ??_7?$CDynamicPoolEx@VCAirResistanceDecorator@NEffectUpdateDecorator@@@@6B@
CONST	SEGMENT
??_7?$CDynamicPoolEx@VCAirResistanceDecorator@NEffectUpdateDecorator@@@@6B@ DD FLAT:??_R4?$CDynamicPoolEx@VCAirResistanceDecorator@NEffectUpdateDecorator@@@@6B@ ; CDynamicPoolEx<NEffectUpdateDecorator::CAirResistanceDecorator>::`vftable'
	DD	FLAT:??_E?$CDynamicPoolEx@VCAirResistanceDecorator@NEffectUpdateDecorator@@@@UAEPAXI@Z
CONST	ENDS
CONST	SEGMENT
?piecewise_construct@std@@3Upiecewise_construct_t@1@B	ORG $+1 ; std::piecewise_construct
	ORG $+3
?c_iSkillIndex_Tongsol@@3KB DD 079H			; c_iSkillIndex_Tongsol
?c_iSkillIndex_Combo@@3KB DD 07aH			; c_iSkillIndex_Combo
?c_iSkillIndex_Fishing@@3KB DD 07bH			; c_iSkillIndex_Fishing
?c_iSkillIndex_Mining@@3KB DD 07cH			; c_iSkillIndex_Mining
?c_iSkillIndex_Making@@3KB DD 07dH			; c_iSkillIndex_Making
?c_iSkillIndex_Language1@@3KB DD 07eH			; c_iSkillIndex_Language1
?c_iSkillIndex_Language2@@3KB DD 07fH			; c_iSkillIndex_Language2
?c_iSkillIndex_Language3@@3KB DD 080H			; c_iSkillIndex_Language3
?c_iSkillIndex_Polymorph@@3KB DD 081H			; c_iSkillIndex_Polymorph
?c_iSkillIndex_Riding@@3KB DD 082H			; c_iSkillIndex_Riding
?c_iSkillIndex_Summon@@3KB DD 083H			; c_iSkillIndex_Summon
CONST	ENDS
;	COMDAT ??_7?$CDynamicPoolEx@VCGravityDecorator@NEffectUpdateDecorator@@@@6B@
CONST	SEGMENT
??_7?$CDynamicPoolEx@VCGravityDecorator@NEffectUpdateDecorator@@@@6B@ DD FLAT:??_R4?$CDynamicPoolEx@VCGravityDecorator@NEffectUpdateDecorator@@@@6B@ ; CDynamicPoolEx<NEffectUpdateDecorator::CGravityDecorator>::`vftable'
	DD	FLAT:??_E?$CDynamicPoolEx@VCGravityDecorator@NEffectUpdateDecorator@@@@UAEPAXI@Z
CONST	ENDS
;	COMDAT ??_7?$CDynamicPoolEx@VCRotationDecorator@NEffectUpdateDecorator@@@@6B@
CONST	SEGMENT
??_7?$CDynamicPoolEx@VCRotationDecorator@NEffectUpdateDecorator@@@@6B@ DD FLAT:??_R4?$CDynamicPoolEx@VCRotationDecorator@NEffectUpdateDecorator@@@@6B@ ; CDynamicPoolEx<NEffectUpdateDecorator::CRotationDecorator>::`vftable'
	DD	FLAT:??_E?$CDynamicPoolEx@VCRotationDecorator@NEffectUpdateDecorator@@@@UAEPAXI@Z
CONST	ENDS
;	COMDAT ??_7?$CDynamicPoolEx@VCHeaderDecorator@NEffectUpdateDecorator@@@@6B@
CONST	SEGMENT
??_7?$CDynamicPoolEx@VCHeaderDecorator@NEffectUpdateDecorator@@@@6B@ DD FLAT:??_R4?$CDynamicPoolEx@VCHeaderDecorator@NEffectUpdateDecorator@@@@6B@ ; CDynamicPoolEx<NEffectUpdateDecorator::CHeaderDecorator>::`vftable'
	DD	FLAT:??_E?$CDynamicPoolEx@VCHeaderDecorator@NEffectUpdateDecorator@@@@UAEPAXI@Z
CONST	ENDS
PUBLIC	??_H@YGXPAXIIP6EPAX0@Z@Z			; `vector constructor iterator'
PUBLIC	?__empty_global_delete@@YAXPAX@Z		; __empty_global_delete
PUBLIC	?__empty_global_delete@@YAXPAXI@Z		; __empty_global_delete
PUBLIC	___local_stdio_printf_options
PUBLIC	__snprintf
PUBLIC	??0exception@std@@QAE@ABV01@@Z			; std::exception::exception
PUBLIC	??1exception@std@@UAE@XZ			; std::exception::~exception
PUBLIC	?what@exception@std@@UBEPBDXZ			; std::exception::what
PUBLIC	??_Gexception@std@@UAEPAXI@Z			; std::exception::`scalar deleting destructor'
PUBLIC	??0bad_alloc@std@@QAE@ABV01@@Z			; std::bad_alloc::bad_alloc
PUBLIC	??_Gbad_alloc@std@@UAEPAXI@Z			; std::bad_alloc::`scalar deleting destructor'
PUBLIC	??0bad_array_new_length@std@@QAE@XZ		; std::bad_array_new_length::bad_array_new_length
PUBLIC	??1bad_array_new_length@std@@UAE@XZ		; std::bad_array_new_length::~bad_array_new_length
PUBLIC	??0bad_array_new_length@std@@QAE@ABV01@@Z	; std::bad_array_new_length::bad_array_new_length
PUBLIC	??_Gbad_array_new_length@std@@UAEPAXI@Z		; std::bad_array_new_length::`scalar deleting destructor'
PUBLIC	?_Throw_bad_array_new_length@std@@YAXXZ		; std::_Throw_bad_array_new_length
PUBLIC	?_Xlen_string@std@@YAXXZ			; std::_Xlen_string
PUBLIC	??1?$basic_string@DU?$char_traits@D@std@@V?$allocator@D@2@@std@@QAE@XZ ; std::basic_string<char,std::char_traits<char>,std::allocator<char> >::~basic_string<char,std::char_traits<char>,std::allocator<char> >
PUBLIC	?assign@?$basic_string@DU?$char_traits@D@std@@V?$allocator@D@2@@std@@QAEAAV12@QBDI@Z ; std::basic_string<char,std::char_traits<char>,std::allocator<char> >::assign
PUBLIC	?_Throw_tree_length_error@std@@YAXXZ		; std::_Throw_tree_length_error
PUBLIC	??0SItemPos@@QAE@XZ				; SItemPos::SItemPos
PUBLIC	?initPlayer@@YAXXZ				; initPlayer
PUBLIC	??$_Destroy_in_place@PAD@std@@YAXAAPAD@Z	; std::_Destroy_in_place<char *>
PUBLIC	??$_Construct_in_place@PADABQAD@std@@YAXAAPADABQAD@Z ; std::_Construct_in_place<char *,char * const &>
PUBLIC	??$_Deallocate@$07$0A@@std@@YAXPAXI@Z		; std::_Deallocate<8,0>
PUBLIC	??$_Allocate@$07U_Default_allocate_traits@std@@$0A@@std@@YAPAXI@Z ; std::_Allocate<8,std::_Default_allocate_traits,0>
PUBLIC	??$_Allocate_manually_vector_aligned@U_Default_allocate_traits@std@@@std@@YAPAXI@Z ; std::_Allocate_manually_vector_aligned<std::_Default_allocate_traits>
PUBLIC	??1?$_Tree@V?$_Tmap_traits@HPAVCGraphicImage@@U?$less@H@std@@V?$allocator@U?$pair@$$CBHPAVCGraphicImage@@@std@@@3@$0A@@std@@@std@@QAE@XZ ; std::_Tree<std::_Tmap_traits<int,CGraphicImage *,std::less<int>,std::allocator<std::pair<int const ,CGraphicImage *> >,0> >::~_Tree<std::_Tmap_traits<int,CGraphicImage *,std::less<int>,std::allocator<std::pair<int const ,CGraphicImage *> >,0> >
PUBLIC	?_Insert_node@?$_Tree_val@U?$_Tree_simple_types@U?$pair@$$CBHPAVCGraphicImage@@@std@@@std@@@std@@QAEPAU?$_Tree_node@U?$pair@$$CBHPAVCGraphicImage@@@std@@PAX@2@U?$_Tree_id@PAU?$_Tree_node@U?$pair@$$CBHPAVCGraphicImage@@@std@@PAX@std@@@2@QAU32@@Z ; std::_Tree_val<std::_Tree_simple_types<std::pair<int const ,CGraphicImage *> > >::_Insert_node
PUBLIC	?playerPickCloseItem@@YAPAU_object@@PAU1@0@Z	; playerPickCloseItem
PUBLIC	?playerSetGameWindow@@YAPAU_object@@PAU1@0@Z	; playerSetGameWindow
PUBLIC	?playerSetQuickCameraMode@@YAPAU_object@@PAU1@0@Z ; playerSetQuickCameraMode
PUBLIC	?playerSetMainCharacterIndex@@YAPAU_object@@PAU1@0@Z ; playerSetMainCharacterIndex
PUBLIC	?playerGetMainCharacterIndex@@YAPAU_object@@PAU1@0@Z ; playerGetMainCharacterIndex
PUBLIC	?playerGetMainCharacterName@@YAPAU_object@@PAU1@0@Z ; playerGetMainCharacterName
PUBLIC	?playerGetMainCharacterPosition@@YAPAU_object@@PAU1@0@Z ; playerGetMainCharacterPosition
PUBLIC	?playerIsMainCharacterIndex@@YAPAU_object@@PAU1@0@Z ; playerIsMainCharacterIndex
PUBLIC	?playerCanAttackInstance@@YAPAU_object@@PAU1@0@Z ; playerCanAttackInstance
PUBLIC	?playerIsActingEmotion@@YAPAU_object@@PAU1@0@Z	; playerIsActingEmotion
PUBLIC	?playerIsPVPInstance@@YAPAU_object@@PAU1@0@Z	; playerIsPVPInstance
PUBLIC	?playerIsSameEmpire@@YAPAU_object@@PAU1@0@Z	; playerIsSameEmpire
PUBLIC	?playerIsChallengeInstance@@YAPAU_object@@PAU1@0@Z ; playerIsChallengeInstance
PUBLIC	?playerIsRevengeInstance@@YAPAU_object@@PAU1@0@Z ; playerIsRevengeInstance
PUBLIC	?playerIsCantFightInstance@@YAPAU_object@@PAU1@0@Z ; playerIsCantFightInstance
PUBLIC	?playerGetCharacterDistance@@YAPAU_object@@PAU1@0@Z ; playerGetCharacterDistance
PUBLIC	?playerIsInSafeArea@@YAPAU_object@@PAU1@0@Z	; playerIsInSafeArea
PUBLIC	?playerIsMountingHorse@@YAPAU_object@@PAU1@0@Z	; playerIsMountingHorse
PUBLIC	?playerIsObserverMode@@YAPAU_object@@PAU1@0@Z	; playerIsObserverMode
PUBLIC	?playerActEmotion@@YAPAU_object@@PAU1@0@Z	; playerActEmotion
PUBLIC	?playerShowPlayer@@YAPAU_object@@PAU1@0@Z	; playerShowPlayer
PUBLIC	?playerHidePlayer@@YAPAU_object@@PAU1@0@Z	; playerHidePlayer
PUBLIC	?playerComboAttack@@YAPAU_object@@PAU1@0@Z	; playerComboAttack
PUBLIC	?playerRegisterEffect@@YAPAU_object@@PAU1@0@Z	; playerRegisterEffect
PUBLIC	?playerRegisterCacheEffect@@YAPAU_object@@PAU1@0@Z ; playerRegisterCacheEffect
PUBLIC	?playerSetAttackKeyState@@YAPAU_object@@PAU1@0@Z ; playerSetAttackKeyState
PUBLIC	?playerSetSingleDIKKeyState@@YAPAU_object@@PAU1@0@Z ; playerSetSingleDIKKeyState
PUBLIC	?playerEndKeyWalkingImmediately@@YAPAU_object@@PAU1@0@Z ; playerEndKeyWalkingImmediately
PUBLIC	?playerStartMouseWalking@@YAPAU_object@@PAU1@0@Z ; playerStartMouseWalking
PUBLIC	?playerEndMouseWalking@@YAPAU_object@@PAU1@0@Z	; playerEndMouseWalking
PUBLIC	?playerResetCameraRotation@@YAPAU_object@@PAU1@0@Z ; playerResetCameraRotation
PUBLIC	?playerSetAutoCameraRotationSpeed@@YAPAU_object@@PAU1@0@Z ; playerSetAutoCameraRotationSpeed
PUBLIC	?playerSetMouseState@@YAPAU_object@@PAU1@0@Z	; playerSetMouseState
PUBLIC	?playerSetMouseFunc@@YAPAU_object@@PAU1@0@Z	; playerSetMouseFunc
PUBLIC	?playerGetMouseFunc@@YAPAU_object@@PAU1@0@Z	; playerGetMouseFunc
PUBLIC	?playerSetMouseMiddleButtonState@@YAPAU_object@@PAU1@0@Z ; playerSetMouseMiddleButtonState
PUBLIC	?playerGetName@@YAPAU_object@@PAU1@0@Z		; playerGetName
PUBLIC	?playerGetRace@@YAPAU_object@@PAU1@0@Z		; playerGetRace
PUBLIC	?playerGetJob@@YAPAU_object@@PAU1@0@Z		; playerGetJob
PUBLIC	?playerGetPlayTime@@YAPAU_object@@PAU1@0@Z	; playerGetPlayTime
PUBLIC	?playerSetPlayTime@@YAPAU_object@@PAU1@0@Z	; playerSetPlayTime
PUBLIC	?playerIsSkillCoolTime@@YAPAU_object@@PAU1@0@Z	; playerIsSkillCoolTime
PUBLIC	?playerGetSkillCoolTime@@YAPAU_object@@PAU1@0@Z	; playerGetSkillCoolTime
PUBLIC	?playerIsSkillActive@@YAPAU_object@@PAU1@0@Z	; playerIsSkillActive
PUBLIC	?playerUseGuildSkill@@YAPAU_object@@PAU1@0@Z	; playerUseGuildSkill
PUBLIC	?playerAffectIndexToSkillIndex@@YAPAU_object@@PAU1@0@Z ; playerAffectIndexToSkillIndex
PUBLIC	?playerGetEXP@@YAPAU_object@@PAU1@0@Z		; playerGetEXP
PUBLIC	?playerGetStatus@@YAPAU_object@@PAU1@0@Z	; playerGetStatus
PUBLIC	?playerSetStatus@@YAPAU_object@@PAU1@0@Z	; playerSetStatus
PUBLIC	?playerGetElk@@YAPAU_object@@PAU1@0@Z		; playerGetElk
PUBLIC	?playerGetGuildID@@YAPAU_object@@PAU1@0@Z	; playerGetGuildID
PUBLIC	?playerGetGuildName@@YAPAU_object@@PAU1@0@Z	; playerGetGuildName
PUBLIC	?playerGetAlignmentData@@YAPAU_object@@PAU1@0@Z	; playerGetAlignmentData
PUBLIC	?playerSetSkill@@YAPAU_object@@PAU1@0@Z		; playerSetSkill
PUBLIC	?playerGetSkillIndex@@YAPAU_object@@PAU1@0@Z	; playerGetSkillIndex
PUBLIC	?playerGetSkillSlotIndex@@YAPAU_object@@PAU1@0@Z ; playerGetSkillSlotIndex
PUBLIC	?playerGetSkillGrade@@YAPAU_object@@PAU1@0@Z	; playerGetSkillGrade
PUBLIC	?playerGetSkillLevel@@YAPAU_object@@PAU1@0@Z	; playerGetSkillLevel
PUBLIC	?playerGetSkillCurrentEfficientPercentage@@YAPAU_object@@PAU1@0@Z ; playerGetSkillCurrentEfficientPercentage
PUBLIC	?playerGetSkillNextEfficientPercentage@@YAPAU_object@@PAU1@0@Z ; playerGetSkillNextEfficientPercentage
PUBLIC	?playerClickSkillSlot@@YAPAU_object@@PAU1@0@Z	; playerClickSkillSlot
PUBLIC	?playerChangeCurrentSkillNumberOnly@@YAPAU_object@@PAU1@0@Z ; playerChangeCurrentSkillNumberOnly
PUBLIC	?playerClearSkillDict@@YAPAU_object@@PAU1@0@Z	; playerClearSkillDict
PUBLIC	?playerMoveItem@@YAPAU_object@@PAU1@0@Z		; playerMoveItem
PUBLIC	?playerSendClickItemPacket@@YAPAU_object@@PAU1@0@Z ; playerSendClickItemPacket
PUBLIC	?playerGetItemIndex@@YAPAU_object@@PAU1@0@Z	; playerGetItemIndex
PUBLIC	?playerGetItemFlags@@YAPAU_object@@PAU1@0@Z	; playerGetItemFlags
PUBLIC	?playerGetItemCount@@YAPAU_object@@PAU1@0@Z	; playerGetItemCount
PUBLIC	?playerSetItemCount@@YAPAU_object@@PAU1@0@Z	; playerSetItemCount
PUBLIC	?playerGetItemCountByVnum@@YAPAU_object@@PAU1@0@Z ; playerGetItemCountByVnum
PUBLIC	?playerGetItemMetinSocket@@YAPAU_object@@PAU1@0@Z ; playerGetItemMetinSocket
PUBLIC	?playerGetItemAttribute@@YAPAU_object@@PAU1@0@Z	; playerGetItemAttribute
PUBLIC	?playerGetItemLink@@YAPAU_object@@PAU1@0@Z	; playerGetItemLink
PUBLIC	?playerGetISellItemPrice@@YAPAU_object@@PAU1@0@Z ; playerGetISellItemPrice
PUBLIC	?playerGetQuickPage@@YAPAU_object@@PAU1@0@Z	; playerGetQuickPage
PUBLIC	?playerSetQuickPage@@YAPAU_object@@PAU1@0@Z	; playerSetQuickPage
PUBLIC	?playerLocalQuickSlotIndexToGlobalQuickSlotIndex@@YAPAU_object@@PAU1@0@Z ; playerLocalQuickSlotIndexToGlobalQuickSlotIndex
PUBLIC	?playerGetLocalQuickSlot@@YAPAU_object@@PAU1@0@Z ; playerGetLocalQuickSlot
PUBLIC	?playerGetGlobalQuickSlot@@YAPAU_object@@PAU1@0@Z ; playerGetGlobalQuickSlot
PUBLIC	?playerRequestAddLocalQuickSlot@@YAPAU_object@@PAU1@0@Z ; playerRequestAddLocalQuickSlot
PUBLIC	?playerRequestAddToEmptyLocalQuickSlot@@YAPAU_object@@PAU1@0@Z ; playerRequestAddToEmptyLocalQuickSlot
PUBLIC	?playerRequestDeleteGlobalQuickSlot@@YAPAU_object@@PAU1@0@Z ; playerRequestDeleteGlobalQuickSlot
PUBLIC	?playerRequestMoveGlobalQuickSlotToLocalQuickSlot@@YAPAU_object@@PAU1@0@Z ; playerRequestMoveGlobalQuickSlotToLocalQuickSlot
PUBLIC	?playerRequestUseLocalQuickSlot@@YAPAU_object@@PAU1@0@Z ; playerRequestUseLocalQuickSlot
PUBLIC	?playerRemoveQuickSlotByValue@@YAPAU_object@@PAU1@0@Z ; playerRemoveQuickSlotByValue
PUBLIC	?playerisItem@@YAPAU_object@@PAU1@0@Z		; playerisItem
PUBLIC	?playerIsBeltInventorySlot@@YAPAU_object@@PAU1@0@Z ; playerIsBeltInventorySlot
PUBLIC	?playerIsEquipmentSlot@@YAPAU_object@@PAU1@0@Z	; playerIsEquipmentSlot
PUBLIC	?playerIsDSEquipmentSlot@@YAPAU_object@@PAU1@0@Z ; playerIsDSEquipmentSlot
PUBLIC	?playerIsCostumeSlot@@YAPAU_object@@PAU1@0@Z	; playerIsCostumeSlot
PUBLIC	?playerIsOpenPrivateShop@@YAPAU_object@@PAU1@0@Z ; playerIsOpenPrivateShop
PUBLIC	?playerIsValuableItem@@YAPAU_object@@PAU1@0@Z	; playerIsValuableItem
PUBLIC	?GetItemGrade@@YAHPBD@Z				; GetItemGrade
PUBLIC	?playerGetItemGrade@@YAPAU_object@@PAU1@0@Z	; playerGetItemGrade
PUBLIC	?playerCanRefine@@YAPAU_object@@PAU1@0@Z	; playerCanRefine
PUBLIC	?playerCanAttachMetin@@YAPAU_object@@PAU1@0@Z	; playerCanAttachMetin
PUBLIC	?playerCanDetach@@YAPAU_object@@PAU1@0@Z	; playerCanDetach
PUBLIC	?playerCanUnlock@@YAPAU_object@@PAU1@0@Z	; playerCanUnlock
PUBLIC	?playerIsRefineGradeScroll@@YAPAU_object@@PAU1@0@Z ; playerIsRefineGradeScroll
PUBLIC	?playerUpdate@@YAPAU_object@@PAU1@0@Z		; playerUpdate
PUBLIC	?playerRender@@YAPAU_object@@PAU1@0@Z		; playerRender
PUBLIC	?playerClear@@YAPAU_object@@PAU1@0@Z		; playerClear
PUBLIC	?playerClearTarget@@YAPAU_object@@PAU1@0@Z	; playerClearTarget
PUBLIC	?playerSetTarget@@YAPAU_object@@PAU1@0@Z	; playerSetTarget
PUBLIC	?playerOpenCharacterMenu@@YAPAU_object@@PAU1@0@Z ; playerOpenCharacterMenu
PUBLIC	?playerIsPartyMember@@YAPAU_object@@PAU1@0@Z	; playerIsPartyMember
PUBLIC	?playerIsPartyLeader@@YAPAU_object@@PAU1@0@Z	; playerIsPartyLeader
PUBLIC	?playerIsPartyLeaderByPID@@YAPAU_object@@PAU1@0@Z ; playerIsPartyLeaderByPID
PUBLIC	?playerGetPartyMemberHPPercentage@@YAPAU_object@@PAU1@0@Z ; playerGetPartyMemberHPPercentage
PUBLIC	?playerGetPartyMemberState@@YAPAU_object@@PAU1@0@Z ; playerGetPartyMemberState
PUBLIC	?playerGetPartyMemberAffects@@YAPAU_object@@PAU1@0@Z ; playerGetPartyMemberAffects
PUBLIC	?playerRemovePartyMember@@YAPAU_object@@PAU1@0@Z ; playerRemovePartyMember
PUBLIC	?playerExitParty@@YAPAU_object@@PAU1@0@Z	; playerExitParty
PUBLIC	?playerGetPKMode@@YAPAU_object@@PAU1@0@Z	; playerGetPKMode
PUBLIC	?playerHasMobilePhoneNumber@@YAPAU_object@@PAU1@0@Z ; playerHasMobilePhoneNumber
PUBLIC	?playerSetWeaponAttackBonusFlag@@YAPAU_object@@PAU1@0@Z ; playerSetWeaponAttackBonusFlag
PUBLIC	?playerToggleCoolTime@@YAPAU_object@@PAU1@0@Z	; playerToggleCoolTime
PUBLIC	?playerToggleLevelLimit@@YAPAU_object@@PAU1@0@Z	; playerToggleLevelLimit
PUBLIC	?playerGetTargetVID@@YAPAU_object@@PAU1@0@Z	; playerGetTargetVID
PUBLIC	?playerRegisterEmotionIcon@@YAPAU_object@@PAU1@0@Z ; playerRegisterEmotionIcon
PUBLIC	?playerGetEmotionIconImage@@YAPAU_object@@PAU1@0@Z ; playerGetEmotionIconImage
PUBLIC	?playerSetItemData@@YAPAU_object@@PAU1@0@Z	; playerSetItemData
PUBLIC	?playerSetItemMetinSocket@@YAPAU_object@@PAU1@0@Z ; playerSetItemMetinSocket
PUBLIC	?playerSetItemAttribute@@YAPAU_object@@PAU1@0@Z	; playerSetItemAttribute
PUBLIC	?playerSetAutoPotionInfo@@YAPAU_object@@PAU1@0@Z ; playerSetAutoPotionInfo
PUBLIC	?playerGetAutoPotionInfo@@YAPAU_object@@PAU1@0@Z ; playerGetAutoPotionInfo
PUBLIC	?playerSlotTypeToInvenType@@YAPAU_object@@PAU1@0@Z ; playerSlotTypeToInvenType
PUBLIC	?playerIsEquippingBelt@@YAPAU_object@@PAU1@0@Z	; playerIsEquippingBelt
PUBLIC	?playerIsAvailableBeltInventoryCell@@YAPAU_object@@PAU1@0@Z ; playerIsAvailableBeltInventoryCell
PUBLIC	?playerSendDragonSoulRefine@@YAPAU_object@@PAU1@0@Z ; playerSendDragonSoulRefine
PUBLIC	??1?$CDynamicPoolEx@VCRotationDecorator@NEffectUpdateDecorator@@@@UAE@XZ ; CDynamicPoolEx<NEffectUpdateDecorator::CRotationDecorator>::~CDynamicPoolEx<NEffectUpdateDecorator::CRotationDecorator>
PUBLIC	?Delete@?$CDynamicPoolEx@VCRotationDecorator@NEffectUpdateDecorator@@@@KAXPAVCRotationDecorator@NEffectUpdateDecorator@@@Z ; CDynamicPoolEx<NEffectUpdateDecorator::CRotationDecorator>::Delete
PUBLIC	??1?$CDynamicPoolEx@VCGravityDecorator@NEffectUpdateDecorator@@@@UAE@XZ ; CDynamicPoolEx<NEffectUpdateDecorator::CGravityDecorator>::~CDynamicPoolEx<NEffectUpdateDecorator::CGravityDecorator>
PUBLIC	?Delete@?$CDynamicPoolEx@VCGravityDecorator@NEffectUpdateDecorator@@@@KAXPAVCGravityDecorator@NEffectUpdateDecorator@@@Z ; CDynamicPoolEx<NEffectUpdateDecorator::CGravityDecorator>::Delete
PUBLIC	??1?$CDynamicPoolEx@VCAirResistanceDecorator@NEffectUpdateDecorator@@@@UAE@XZ ; CDynamicPoolEx<NEffectUpdateDecorator::CAirResistanceDecorator>::~CDynamicPoolEx<NEffectUpdateDecorator::CAirResistanceDecorator>
PUBLIC	?Delete@?$CDynamicPoolEx@VCAirResistanceDecorator@NEffectUpdateDecorator@@@@KAXPAVCAirResistanceDecorator@NEffectUpdateDecorator@@@Z ; CDynamicPoolEx<NEffectUpdateDecorator::CAirResistanceDecorator>::Delete
PUBLIC	??1?$CDynamicPoolEx@VCTextureAnimationRandomDecorator@NEffectUpdateDecorator@@@@UAE@XZ ; CDynamicPoolEx<NEffectUpdateDecorator::CTextureAnimationRandomDecorator>::~CDynamicPoolEx<NEffectUpdateDecorator::CTextureAnimationRandomDecorator>
PUBLIC	?Delete@?$CDynamicPoolEx@VCTextureAnimationRandomDecorator@NEffectUpdateDecorator@@@@KAXPAVCTextureAnimationRandomDecorator@NEffectUpdateDecorator@@@Z ; CDynamicPoolEx<NEffectUpdateDecorator::CTextureAnimationRandomDecorator>::Delete
PUBLIC	??1?$CDynamicPoolEx@VCTextureAnimationCCWDecorator@NEffectUpdateDecorator@@@@UAE@XZ ; CDynamicPoolEx<NEffectUpdateDecorator::CTextureAnimationCCWDecorator>::~CDynamicPoolEx<NEffectUpdateDecorator::CTextureAnimationCCWDecorator>
PUBLIC	?Delete@?$CDynamicPoolEx@VCTextureAnimationCCWDecorator@NEffectUpdateDecorator@@@@KAXPAVCTextureAnimationCCWDecorator@NEffectUpdateDecorator@@@Z ; CDynamicPoolEx<NEffectUpdateDecorator::CTextureAnimationCCWDecorator>::Delete
PUBLIC	??1?$CDynamicPoolEx@VCTextureAnimationCWDecorator@NEffectUpdateDecorator@@@@UAE@XZ ; CDynamicPoolEx<NEffectUpdateDecorator::CTextureAnimationCWDecorator>::~CDynamicPoolEx<NEffectUpdateDecorator::CTextureAnimationCWDecorator>
PUBLIC	?Delete@?$CDynamicPoolEx@VCTextureAnimationCWDecorator@NEffectUpdateDecorator@@@@KAXPAVCTextureAnimationCWDecorator@NEffectUpdateDecorator@@@Z ; CDynamicPoolEx<NEffectUpdateDecorator::CTextureAnimationCWDecorator>::Delete
PUBLIC	??1?$CDynamicPoolEx@VCNullDecorator@NEffectUpdateDecorator@@@@UAE@XZ ; CDynamicPoolEx<NEffectUpdateDecorator::CNullDecorator>::~CDynamicPoolEx<NEffectUpdateDecorator::CNullDecorator>
PUBLIC	?Delete@?$CDynamicPoolEx@VCNullDecorator@NEffectUpdateDecorator@@@@KAXPAVCNullDecorator@NEffectUpdateDecorator@@@Z ; CDynamicPoolEx<NEffectUpdateDecorator::CNullDecorator>::Delete
PUBLIC	??1?$CDynamicPoolEx@VCHeaderDecorator@NEffectUpdateDecorator@@@@UAE@XZ ; CDynamicPoolEx<NEffectUpdateDecorator::CHeaderDecorator>::~CDynamicPoolEx<NEffectUpdateDecorator::CHeaderDecorator>
PUBLIC	?Delete@?$CDynamicPoolEx@VCHeaderDecorator@NEffectUpdateDecorator@@@@KAXPAVCHeaderDecorator@NEffectUpdateDecorator@@@Z ; CDynamicPoolEx<NEffectUpdateDecorator::CHeaderDecorator>::Delete
PUBLIC	??$_Destroy_range@V?$allocator@PAVCHeaderDecorator@NEffectUpdateDecorator@@@std@@@std@@YAXPAPAVCHeaderDecorator@NEffectUpdateDecorator@@QAPAV12@AAV?$allocator@PAVCHeaderDecorator@NEffectUpdateDecorator@@@0@@Z ; std::_Destroy_range<std::allocator<NEffectUpdateDecorator::CHeaderDecorator *> >
PUBLIC	??$_Destroy_range@V?$allocator@PAVCNullDecorator@NEffectUpdateDecorator@@@std@@@std@@YAXPAPAVCNullDecorator@NEffectUpdateDecorator@@QAPAV12@AAV?$allocator@PAVCNullDecorator@NEffectUpdateDecorator@@@0@@Z ; std::_Destroy_range<std::allocator<NEffectUpdateDecorator::CNullDecorator *> >
PUBLIC	??$_Destroy_range@V?$allocator@PAVCTextureAnimationCWDecorator@NEffectUpdateDecorator@@@std@@@std@@YAXPAPAVCTextureAnimationCWDecorator@NEffectUpdateDecorator@@QAPAV12@AAV?$allocator@PAVCTextureAnimationCWDecorator@NEffectUpdateDecorator@@@0@@Z ; std::_Destroy_range<std::allocator<NEffectUpdateDecorator::CTextureAnimationCWDecorator *> >
PUBLIC	??$_Destroy_range@V?$allocator@PAVCTextureAnimationCCWDecorator@NEffectUpdateDecorator@@@std@@@std@@YAXPAPAVCTextureAnimationCCWDecorator@NEffectUpdateDecorator@@QAPAV12@AAV?$allocator@PAVCTextureAnimationCCWDecorator@NEffectUpdateDecorator@@@0@@Z ; std::_Destroy_range<std::allocator<NEffectUpdateDecorator::CTextureAnimationCCWDecorator *> >
PUBLIC	??$_Destroy_range@V?$allocator@PAVCTextureAnimationRandomDecorator@NEffectUpdateDecorator@@@std@@@std@@YAXPAPAVCTextureAnimationRandomDecorator@NEffectUpdateDecorator@@QAPAV12@AAV?$allocator@PAVCTextureAnimationRandomDecorator@NEffectUpdateDecorator@@@0@@Z ; std::_Destroy_range<std::allocator<NEffectUpdateDecorator::CTextureAnimationRandomDecorator *> >
PUBLIC	??$_Destroy_range@V?$allocator@PAVCAirResistanceDecorator@NEffectUpdateDecorator@@@std@@@std@@YAXPAPAVCAirResistanceDecorator@NEffectUpdateDecorator@@QAPAV12@AAV?$allocator@PAVCAirResistanceDecorator@NEffectUpdateDecorator@@@0@@Z ; std::_Destroy_range<std::allocator<NEffectUpdateDecorator::CAirResistanceDecorator *> >
PUBLIC	??$_Destroy_range@V?$allocator@PAVCGravityDecorator@NEffectUpdateDecorator@@@std@@@std@@YAXPAPAVCGravityDecorator@NEffectUpdateDecorator@@QAPAV12@AAV?$allocator@PAVCGravityDecorator@NEffectUpdateDecorator@@@0@@Z ; std::_Destroy_range<std::allocator<NEffectUpdateDecorator::CGravityDecorator *> >
PUBLIC	??$_Destroy_range@V?$allocator@PAVCRotationDecorator@NEffectUpdateDecorator@@@std@@@std@@YAXPAPAVCRotationDecorator@NEffectUpdateDecorator@@QAPAV12@AAV?$allocator@PAVCRotationDecorator@NEffectUpdateDecorator@@@0@@Z ; std::_Destroy_range<std::allocator<NEffectUpdateDecorator::CRotationDecorator *> >
PUBLIC	??$_Find_lower_bound@H@?$_Tree@V?$_Tmap_traits@HPAVCGraphicImage@@U?$less@H@std@@V?$allocator@U?$pair@$$CBHPAVCGraphicImage@@@std@@@3@$0A@@std@@@std@@IBE?AU?$_Tree_find_result@PAU?$_Tree_node@U?$pair@$$CBHPAVCGraphicImage@@@std@@PAX@std@@@1@ABH@Z ; std::_Tree<std::_Tmap_traits<int,CGraphicImage *,std::less<int>,std::allocator<std::pair<int const ,CGraphicImage *> >,0> >::_Find_lower_bound<int>
PUBLIC	??1?$_Alloc_construct_ptr@V?$allocator@U?$_Tree_node@U?$pair@$$CBHPAVCGraphicImage@@@std@@PAX@std@@@std@@@std@@QAE@XZ ; std::_Alloc_construct_ptr<std::allocator<std::_Tree_node<std::pair<int const ,CGraphicImage *>,void *> > >::~_Alloc_construct_ptr<std::allocator<std::_Tree_node<std::pair<int const ,CGraphicImage *>,void *> > >
PUBLIC	??$_Erase_tree@V?$allocator@U?$_Tree_node@U?$pair@$$CBHPAVCGraphicImage@@@std@@PAX@std@@@std@@@?$_Tree_val@U?$_Tree_simple_types@U?$pair@$$CBHPAVCGraphicImage@@@std@@@std@@@std@@QAEXAAV?$allocator@U?$_Tree_node@U?$pair@$$CBHPAVCGraphicImage@@@std@@PAX@std@@@1@PAU?$_Tree_node@U?$pair@$$CBHPAVCGraphicImage@@@std@@PAX@1@@Z ; std::_Tree_val<std::_Tree_simple_types<std::pair<int const ,CGraphicImage *> > >::_Erase_tree<std::allocator<std::_Tree_node<std::pair<int const ,CGraphicImage *>,void *> > >
PUBLIC	??$_Construct_in_place@PAU?$_Tree_node@U?$pair@$$CBHPAVCGraphicImage@@@std@@PAX@std@@ABQAU12@@std@@YAXAAPAU?$_Tree_node@U?$pair@$$CBHPAVCGraphicImage@@@std@@PAX@0@ABQAU10@@Z ; std::_Construct_in_place<std::_Tree_node<std::pair<int const ,CGraphicImage *>,void *> *,std::_Tree_node<std::pair<int const ,CGraphicImage *>,void *> * const &>
PUBLIC	??$_Destroy_in_place@PAU?$_Tree_node@U?$pair@$$CBHPAVCGraphicImage@@@std@@PAX@std@@@std@@YAXAAPAU?$_Tree_node@U?$pair@$$CBHPAVCGraphicImage@@@std@@PAX@0@@Z ; std::_Destroy_in_place<std::_Tree_node<std::pair<int const ,CGraphicImage *>,void *> *>
PUBLIC	??$_Construct_in_place@PAU?$_Tree_node@U?$pair@$$CBHPAVCGraphicImage@@@std@@PAX@std@@AAPAU12@@std@@YAXAAPAU?$_Tree_node@U?$pair@$$CBHPAVCGraphicImage@@@std@@PAX@0@0@Z ; std::_Construct_in_place<std::_Tree_node<std::pair<int const ,CGraphicImage *>,void *> *,std::_Tree_node<std::pair<int const ,CGraphicImage *>,void *> * &>
PUBLIC	?_OptionsStorage@?1??__local_stdio_printf_options@@9@4_KA ; `__local_stdio_printf_options'::`2'::_OptionsStorage
PUBLIC	??_7exception@std@@6B@				; std::exception::`vftable'
PUBLIC	??_C@_0BC@EOODALEL@Unknown?5exception@		; `string'
PUBLIC	??_7bad_alloc@std@@6B@				; std::bad_alloc::`vftable'
PUBLIC	??_7bad_array_new_length@std@@6B@		; std::bad_array_new_length::`vftable'
PUBLIC	??_C@_0BF@KINCDENJ@bad?5array?5new?5length@	; `string'
PUBLIC	__TI3?AVbad_array_new_length@std@@
PUBLIC	__CTA3?AVbad_array_new_length@std@@
PUBLIC	??_R0?AVbad_array_new_length@std@@@8		; std::bad_array_new_length `RTTI Type Descriptor'
PUBLIC	__CT??_R0?AVbad_array_new_length@std@@@8??0bad_array_new_length@std@@QAE@ABV01@@Z12
PUBLIC	??_R0?AVbad_alloc@std@@@8			; std::bad_alloc `RTTI Type Descriptor'
PUBLIC	__CT??_R0?AVbad_alloc@std@@@8??0bad_alloc@std@@QAE@ABV01@@Z12
PUBLIC	??_R0?AVexception@std@@@8			; std::exception `RTTI Type Descriptor'
PUBLIC	__CT??_R0?AVexception@std@@@8??0exception@std@@QAE@ABV01@@Z12
PUBLIC	??_C@_0BA@JFNIOLAK@string?5too?5long@		; `string'
PUBLIC	??_C@_0BB@GCADKGJO@map?1set?5too?5long@		; `string'
PUBLIC	??_C@_00CNPNBAHC@@				; `string'
PUBLIC	?ms_singleton@?$CSingleton@VCResourceManager@@@@0PAVCResourceManager@@A ; CSingleton<CResourceManager>::ms_singleton
PUBLIC	??_R4exception@std@@6B@				; std::exception::`RTTI Complete Object Locator'
PUBLIC	??_R3exception@std@@8				; std::exception::`RTTI Class Hierarchy Descriptor'
PUBLIC	??_R2exception@std@@8				; std::exception::`RTTI Base Class Array'
PUBLIC	??_R1A@?0A@EA@exception@std@@8			; std::exception::`RTTI Base Class Descriptor at (0,-1,0,64)'
PUBLIC	??_R4bad_alloc@std@@6B@				; std::bad_alloc::`RTTI Complete Object Locator'
PUBLIC	??_R3bad_alloc@std@@8				; std::bad_alloc::`RTTI Class Hierarchy Descriptor'
PUBLIC	??_R2bad_alloc@std@@8				; std::bad_alloc::`RTTI Base Class Array'
PUBLIC	??_R1A@?0A@EA@bad_alloc@std@@8			; std::bad_alloc::`RTTI Base Class Descriptor at (0,-1,0,64)'
PUBLIC	??_R4bad_array_new_length@std@@6B@		; std::bad_array_new_length::`RTTI Complete Object Locator'
PUBLIC	??_R3bad_array_new_length@std@@8		; std::bad_array_new_length::`RTTI Class Hierarchy Descriptor'
PUBLIC	??_R2bad_array_new_length@std@@8		; std::bad_array_new_length::`RTTI Base Class Array'
PUBLIC	??_R1A@?0A@EA@bad_array_new_length@std@@8	; std::bad_array_new_length::`RTTI Base Class Descriptor at (0,-1,0,64)'
PUBLIC	?ms_singleton@?$CSingleton@VCPythonPlayer@@@@0PAVCPythonPlayer@@A ; CSingleton<CPythonPlayer>::ms_singleton
PUBLIC	?ms_kPool@?$CPooledObject@VCHeaderDecorator@NEffectUpdateDecorator@@@@1V?$CDynamicPoolEx@VCHeaderDecorator@NEffectUpdateDecorator@@@@A ; CPooledObject<NEffectUpdateDecorator::CHeaderDecorator>::ms_kPool
PUBLIC	?ms_kPool@?$CPooledObject@VCNullDecorator@NEffectUpdateDecorator@@@@1V?$CDynamicPoolEx@VCNullDecorator@NEffectUpdateDecorator@@@@A ; CPooledObject<NEffectUpdateDecorator::CNullDecorator>::ms_kPool
PUBLIC	?ms_kPool@?$CPooledObject@VCTextureAnimationCWDecorator@NEffectUpdateDecorator@@@@1V?$CDynamicPoolEx@VCTextureAnimationCWDecorator@NEffectUpdateDecorator@@@@A ; CPooledObject<NEffectUpdateDecorator::CTextureAnimationCWDecorator>::ms_kPool
PUBLIC	?ms_kPool@?$CPooledObject@VCTextureAnimationCCWDecorator@NEffectUpdateDecorator@@@@1V?$CDynamicPoolEx@VCTextureAnimationCCWDecorator@NEffectUpdateDecorator@@@@A ; CPooledObject<NEffectUpdateDecorator::CTextureAnimationCCWDecorator>::ms_kPool
PUBLIC	?ms_kPool@?$CPooledObject@VCTextureAnimationRandomDecorator@NEffectUpdateDecorator@@@@1V?$CDynamicPoolEx@VCTextureAnimationRandomDecorator@NEffectUpdateDecorator@@@@A ; CPooledObject<NEffectUpdateDecorator::CTextureAnimationRandomDecorator>::ms_kPool
PUBLIC	?ms_kPool@?$CPooledObject@VCAirResistanceDecorator@NEffectUpdateDecorator@@@@1V?$CDynamicPoolEx@VCAirResistanceDecorator@NEffectUpdateDecorator@@@@A ; CPooledObject<NEffectUpdateDecorator::CAirResistanceDecorator>::ms_kPool
PUBLIC	?ms_kPool@?$CPooledObject@VCGravityDecorator@NEffectUpdateDecorator@@@@1V?$CDynamicPoolEx@VCGravityDecorator@NEffectUpdateDecorator@@@@A ; CPooledObject<NEffectUpdateDecorator::CGravityDecorator>::ms_kPool
PUBLIC	?ms_kPool@?$CPooledObject@VCRotationDecorator@NEffectUpdateDecorator@@@@1V?$CDynamicPoolEx@VCRotationDecorator@NEffectUpdateDecorator@@@@A ; CPooledObject<NEffectUpdateDecorator::CRotationDecorator>::ms_kPool
PUBLIC	?ms_singleton@?$CSingleton@VCItemManager@@@@0PAVCItemManager@@A ; CSingleton<CItemManager>::ms_singleton
PUBLIC	?ms_singleton@?$CSingleton@VCPythonNetworkStream@@@@0PAVCPythonNetworkStream@@A ; CSingleton<CPythonNetworkStream>::ms_singleton
PUBLIC	?ms_singleton@?$CSingleton@VCPythonCharacterManager@@@@0PAVCPythonCharacterManager@@A ; CSingleton<CPythonCharacterManager>::ms_singleton
PUBLIC	?ms_singleton@?$CSingleton@VCPythonGuild@@@@0PAVCPythonGuild@@A ; CSingleton<CPythonGuild>::ms_singleton
PUBLIC	?m_kMap_iEmotionIndex_pkIconImage@@3V?$map@HPAVCGraphicImage@@U?$less@H@std@@V?$allocator@U?$pair@$$CBHPAVCGraphicImage@@@std@@@3@@std@@A ; m_kMap_iEmotionIndex_pkIconImage
PUBLIC	?availableRuleByGrade@?1??GetAvailableRuleTableByGrade@CBeltInventoryHelper@@SAPBEXZ@4PAEA ; `CBeltInventoryHelper::GetAvailableRuleTableByGrade'::`2'::availableRuleByGrade
PUBLIC	??_C@_01KBJDNOO@i@				; `string'
PUBLIC	??_C@_01LKDEMHDF@s@				; `string'
PUBLIC	??_C@_03LPALPDIP@fff@				; `string'
PUBLIC	??_C@_01INIBCBCB@f@				; `string'
PUBLIC	??_C@_0DF@ILFGGFEI@CPythonPlayer?3?3RegisterEffect?$CIe@ ; `string'
PUBLIC	??_C@_0EA@OHLDKNFC@playerSetAttackKeyState?$CIisPress@ ; `string'
PUBLIC	??_C@_0EJ@BNKMOLIP@playerSetSingleDIKKeyState?$CIeDIK@ ; `string'
PUBLIC	??_C@_0EK@IDBGKDBN@playerSetSingleDIKKeyState?$CIeDIK@ ; `string'
PUBLIC	??_C@_02HPEDFNFO@ff@				; `string'
PUBLIC	??_C@_01HHGOMJKL@l@				; `string'
PUBLIC	??_C@_02PDIHAGKM@ii@				; `string'
PUBLIC	??_C@_0BE@FGPADLIF@item?3?$CFx?3?$CFx?3?$CFx?3?$CFx?3?$CFx@ ; `string'
PUBLIC	??_C@_06FAMCNHHL@?3?$CFx?3?$CFd@		; `string'
PUBLIC	??_C@_0BK@MCOKCAKI@?5?$HMh?$HMr?$FL?$CFs?$FN?$HMcffffc700?$HMH?$CFs?$HMh@ ; `string'
PUBLIC	??_C@_0BK@MGKBEPOF@?5?$HMh?$HMr?$FL?$CFs?$FN?$HMcfff1e6c0?$HMH?$CFs?$HMh@ ; `string'
PUBLIC	??_C@_0BJ@DABMGIOF@?$HMcffffc700?$HMH?$CFs?$HMh?$FL?$CFs?$FN?$HMh?$HMr@ ; `string'
PUBLIC	??_C@_0BJ@GPGFNPLK@?$HMcfff1e6c0?$HMH?$CFs?$HMh?$FL?$CFs?$FN?$HMh?$HMr@ ; `string'
PUBLIC	??_C@_0BF@BGKCJNBK@Can?8t?5find?5item?5data@	; `string'
PUBLIC	??_C@_0BF@IBGKLIMC@can?8t?5find?5item?5data@	; `string'
PUBLIC	??_C@_07EFJJEBFG@iiiiiii@			; `string'
PUBLIC	??_C@_04GPDILEAH@biii@				; `string'
PUBLIC	??_C@_01OJONOECF@b@				; `string'
PUBLIC	??_C@_0BC@CHIABFDI@GetAutoPotionInfo@		; `string'
PUBLIC	??_C@_0BC@CILJOCG@SetAutoPotionInfo@		; `string'
PUBLIC	??_C@_0O@MAEJALBO@PickCloseItem@		; `string'
PUBLIC	??_C@_0O@MNPFFDEJ@SetGameWindow@		; `string'
PUBLIC	??_C@_0P@HDADHLLI@RegisterEffect@		; `string'
PUBLIC	??_C@_0BE@EGCDGLCF@RegisterCacheEffect@		; `string'
PUBLIC	??_C@_0O@HDELDAFI@SetMouseState@		; `string'
PUBLIC	??_C@_0N@LEJNPCGM@SetMouseFunc@			; `string'
PUBLIC	??_C@_0N@MACDDOCA@GetMouseFunc@			; `string'
PUBLIC	??_C@_0BK@JBJLNCBH@SetMouseMiddleButtonState@	; `string'
PUBLIC	??_C@_0BG@JCNMOACA@SetMainCharacterIndex@	; `string'
PUBLIC	??_C@_0BG@GHIKDJGB@GetMainCharacterIndex@	; `string'
PUBLIC	??_C@_0BF@OMDPKDFM@GetMainCharacterName@	; `string'
PUBLIC	??_C@_0BJ@GIKFEPMH@GetMainCharacterPosition@	; `string'
PUBLIC	??_C@_0BF@GALHNOAL@IsMainCharacterIndex@	; `string'
PUBLIC	??_C@_0BC@FLPEGJDD@CanAttackInstance@		; `string'
PUBLIC	??_C@_0BA@ODCBPOEF@IsActingEmotion@		; `string'
PUBLIC	??_C@_0O@ECCODAC@IsPVPInstance@			; `string'
PUBLIC	??_C@_0N@CBEDFALN@IsSameEmpire@			; `string'
PUBLIC	??_C@_0BE@FOIPHJLO@IsChallengeInstance@		; `string'
PUBLIC	??_C@_0BC@IKOEAPGC@IsRevengeInstance@		; `string'
PUBLIC	??_C@_0BE@HJOMPGKI@IsCantFightInstance@		; `string'
PUBLIC	??_C@_0BF@DABJOKIF@GetCharacterDistance@	; `string'
PUBLIC	??_C@_0N@IKPCBCPA@IsInSafeArea@			; `string'
PUBLIC	??_C@_0BA@GFJLKENO@IsMountingHorse@		; `string'
PUBLIC	??_C@_0P@LDENHACE@IsObserverMode@		; `string'
PUBLIC	??_C@_0L@JEBGMNAH@ActEmotion@			; `string'
PUBLIC	??_C@_0L@CPMIOCIM@ShowPlayer@			; `string'
PUBLIC	??_C@_0L@PBBGGCLG@HidePlayer@			; `string'
PUBLIC	??_C@_0M@GOCDIKPN@ComboAttack@			; `string'
PUBLIC	??_C@_0BL@IEKDAKHC@SetAutoCameraRotationSpeed@	; `string'
PUBLIC	??_C@_0BC@DAIEHFBH@SetAttackKeyState@		; `string'
PUBLIC	??_C@_0BF@PNJNANBI@SetSingleDIKKeyState@	; `string'
PUBLIC	??_C@_0BJ@HGLJKHIH@EndKeyWalkingImmediately@	; `string'
PUBLIC	??_C@_0BC@NCHFPCDM@StartMouseWalking@		; `string'
PUBLIC	??_C@_0BA@JEOKFDLP@EndMouseWalking@		; `string'
PUBLIC	??_C@_0BE@MCFGJOPA@ResetCameraRotation@		; `string'
PUBLIC	??_C@_0BD@DPHLFGPP@SetQuickCameraMode@		; `string'
PUBLIC	??_C@_08HIFGFOGG@SetSkill@			; `string'
PUBLIC	??_C@_0O@NOICOABO@GetSkillIndex@		; `string'
PUBLIC	??_C@_0BC@HNJMANI@GetSkillSlotIndex@		; `string'
PUBLIC	??_C@_0O@IIOIANPE@GetSkillGrade@		; `string'
PUBLIC	??_C@_0O@CNCBAIPN@GetSkillLevel@		; `string'
PUBLIC	??_C@_0CD@EFGGIKHI@GetSkillCurrentEfficientPercent@ ; `string'
PUBLIC	??_C@_0CA@JHGONPGM@GetSkillNextEfficientPercentage@ ; `string'
PUBLIC	??_C@_0P@IGNHDBHH@ClickSkillSlot@		; `string'
PUBLIC	??_C@_0BN@BPJDEKED@ChangeCurrentSkillNumberOnly@ ; `string'
PUBLIC	??_C@_0P@MJOJKOJJ@ClearSkillDict@		; `string'
PUBLIC	??_C@_0N@GABOCBEH@GetItemIndex@			; `string'
PUBLIC	??_C@_0N@DMCGDNGF@GetItemFlags@			; `string'
PUBLIC	??_C@_0N@LEKALLIG@GetItemCount@			; `string'
PUBLIC	??_C@_0BD@DBLILMFK@GetItemCountByVnum@		; `string'
PUBLIC	??_C@_0BD@JBOBKHIE@GetItemMetinSocket@		; `string'
PUBLIC	??_C@_0BB@GOKPPDHH@GetItemAttribute@		; `string'
PUBLIC	??_C@_0BC@OKNBBEMG@GetISellItemPrice@		; `string'
PUBLIC	??_C@_08MHJANHDM@MoveItem@			; `string'
PUBLIC	??_C@_0BE@DBIFLBAC@SendClickItemPacket@		; `string'
PUBLIC	??_C@_07MMGEHGCI@GetName@			; `string'
PUBLIC	??_C@_06FHLNIOPB@GetJob@			; `string'
PUBLIC	??_C@_07GDOKCBKB@GetRace@			; `string'
PUBLIC	??_C@_0M@DJDCIBLO@GetPlayTime@			; `string'
PUBLIC	??_C@_0M@DGCMFHDN@SetPlayTime@			; `string'
PUBLIC	??_C@_0BA@FOPKKJJD@IsSkillCoolTime@		; `string'
PUBLIC	??_C@_0BB@CNGGKNGL@GetSkillCoolTime@		; `string'
PUBLIC	??_C@_0O@IAPCJJAC@IsSkillActive@		; `string'
PUBLIC	??_C@_0O@HHBOBCLE@UseGuildSkill@		; `string'
PUBLIC	??_C@_0BI@JIGEMOFF@AffectIndexToSkillIndex@	; `string'
PUBLIC	??_C@_06MDIKDJMD@GetEXP@			; `string'
PUBLIC	??_C@_09MKFEIFJE@GetStatus@			; `string'
PUBLIC	??_C@_09OEBBKEAG@SetStatus@			; `string'
PUBLIC	??_C@_06NMFKJLLH@GetElk@			; `string'
PUBLIC	??_C@_08OAJFGNBC@GetMoney@			; `string'
PUBLIC	??_C@_0L@EAKBLDCO@GetGuildID@			; `string'
PUBLIC	??_C@_0N@CECGOPDG@GetGuildName@			; `string'
PUBLIC	??_C@_0BB@LANDCIKG@GetAlignmentData@		; `string'
PUBLIC	??_C@_0BJ@DNLGAMEO@RequestAddLocalQuickSlot@	; `string'
PUBLIC	??_C@_0CA@JMFCJJPL@RequestAddToEmptyLocalQuickSlot@ ; `string'
PUBLIC	??_C@_0BN@NACLJDMA@RequestDeleteGlobalQuickSlot@ ; `string'
PUBLIC	??_C@_0CL@IEMBKGLN@RequestMoveGlobalQuickSlotToLoc@ ; `string'
PUBLIC	??_C@_0BJ@IBBGPDPH@RequestUseLocalQuickSlot@	; `string'
PUBLIC	??_C@_0CK@GNGKFIDB@LocalQuickSlotIndexToGlobalQuic@ ; `string'
PUBLIC	??_C@_0N@NLMPHAJA@GetQuickPage@			; `string'
PUBLIC	??_C@_0N@KPHBLMNM@SetQuickPage@			; `string'
PUBLIC	??_C@_0BC@LNKMMBDG@GetLocalQuickSlot@		; `string'
PUBLIC	??_C@_0BD@ECGPDHPA@GetGlobalQuickSlot@		; `string'
PUBLIC	??_C@_0BH@JNCIKJMC@RemoveQuickSlotByValue@	; `string'
PUBLIC	??_C@_06NOPKEHAK@isItem@			; `string'
PUBLIC	??_C@_0BA@EMKHGGAL@IsEquipmentSlot@		; `string'
PUBLIC	??_C@_0BC@DDCIGDKO@IsDSEquipmentSlot@		; `string'
PUBLIC	??_C@_0O@KCAGNEAI@IsCostumeSlot@		; `string'
PUBLIC	??_C@_0P@LAJFBPPH@IsValuableItem@		; `string'
PUBLIC	??_C@_0BC@DCFDMADN@IsOpenPrivateShop@		; `string'
PUBLIC	??_C@_0BE@HECMLJG@IsBeltInventorySlot@		; `string'
PUBLIC	??_C@_0BA@OBALOJLG@IsEquippingBelt@		; `string'
PUBLIC	??_C@_0BN@DKGNHJIB@IsAvailableBeltInventoryCell@ ; `string'
PUBLIC	??_C@_0N@DGHEMMKN@GetItemGrade@			; `string'
PUBLIC	??_C@_09BGNCJJP@CanRefine@			; `string'
PUBLIC	??_C@_09GHIBIBHI@CanDetach@			; `string'
PUBLIC	??_C@_09FHINBOHC@CanUnlock@			; `string'
PUBLIC	??_C@_0P@BLOGPKFO@CanAttachMetin@		; `string'
PUBLIC	??_C@_0BE@ELNKJPMC@IsRefineGradeScroll@		; `string'
PUBLIC	??_C@_0M@DPCEEMCG@ClearTarget@			; `string'
PUBLIC	??_C@_09EECGCJDE@SetTarget@			; `string'
PUBLIC	??_C@_0BC@HAEJEFBP@OpenCharacterMenu@		; `string'
PUBLIC	??_C@_06LMAGPFNF@Update@			; `string'
PUBLIC	??_C@_06EPLDPNDB@Render@			; `string'
PUBLIC	??_C@_05MDNHABIA@Clear@				; `string'
PUBLIC	??_C@_0O@FJCFNEGL@IsPartyMember@		; `string'
PUBLIC	??_C@_0O@BPMJGNAC@IsPartyLeader@		; `string'
PUBLIC	??_C@_0BD@HGKJMFNK@IsPartyLeaderByPID@		; `string'
PUBLIC	??_C@_0BL@EPAFEFHI@GetPartyMemberHPPercentage@	; `string'
PUBLIC	??_C@_0BE@HKIJMBKK@GetPartyMemberState@		; `string'
PUBLIC	??_C@_0BG@EEFAFMJC@GetPartyMemberAffects@	; `string'
PUBLIC	??_C@_0BC@DGCJFOHN@RemovePartyMember@		; `string'
PUBLIC	??_C@_09DMPBEJCG@ExitParty@			; `string'
PUBLIC	??_C@_09IMMFEEHK@GetPKMode@			; `string'
PUBLIC	??_C@_0BF@CLGCEOLO@HasMobilePhoneNumber@	; `string'
PUBLIC	??_C@_0BE@PMDABIKP@RegisterEmotionIcon@		; `string'
PUBLIC	??_C@_0BE@FELKHKJF@GetEmotionIconImage@		; `string'
PUBLIC	??_C@_0BJ@CFCMHNHB@SetWeaponAttackBonusFlag@	; `string'
PUBLIC	??_C@_0P@ILOOLMDH@ToggleCoolTime@		; `string'
PUBLIC	??_C@_0BB@DJKKOCLB@ToggleLevelLimit@		; `string'
PUBLIC	??_C@_0N@MEKPPHGC@GetTargetVID@			; `string'
PUBLIC	??_C@_0M@CHNGAPIB@SetItemData@			; `string'
PUBLIC	??_C@_0BD@GLMLJBGM@SetItemMetinSocket@		; `string'
PUBLIC	??_C@_0BB@KPGENMF@SetItemAttribute@		; `string'
PUBLIC	??_C@_0N@MABOHHMK@SetItemCount@			; `string'
PUBLIC	??_C@_0M@DGFCHEAA@GetItemLink@			; `string'
PUBLIC	??_C@_0BE@IOMKCPHN@SlotTypeToInvenType@		; `string'
PUBLIC	??_C@_0BF@PLGNHJMH@SendDragonSoulRefine@	; `string'
PUBLIC	??_C@_06BALNJMNP@player@			; `string'
PUBLIC	??_C@_05GCEPFMCO@LEVEL@				; `string'
PUBLIC	??_C@_05FHIHOFEA@VOICE@				; `string'
PUBLIC	??_C@_03KKGFKKLA@EXP@				; `string'
PUBLIC	??_C@_08CHGDMADF@NEXT_EXP@			; `string'
PUBLIC	??_C@_02MEIMKHMB@HP@				; `string'
PUBLIC	??_C@_06NMHEPHCD@MAX_HP@			; `string'
PUBLIC	??_C@_02NEPPOLFA@SP@				; `string'
PUBLIC	??_C@_06MMAHLLLC@MAX_SP@			; `string'
PUBLIC	??_C@_07IHPDJFBP@STAMINA@			; `string'
PUBLIC	??_C@_0M@CHCGLEDD@MAX_STAMINA@			; `string'
PUBLIC	??_C@_03BIHMGKIG@ELK@				; `string'
PUBLIC	??_C@_02LAJDCOFE@ST@				; `string'
PUBLIC	??_C@_02KAOAGCMF@HT@				; `string'
PUBLIC	??_C@_02FEPNEKN@DX@				; `string'
PUBLIC	??_C@_02NMFFPMLH@IQ@				; `string'
PUBLIC	??_C@_09DIGJAPIG@ATT_POWER@			; `string'
PUBLIC	??_C@_07PNODGJJO@ATT_MIN@			; `string'
PUBLIC	??_C@_07OPGIINPB@ATT_MAX@			; `string'
PUBLIC	??_C@_0O@CJNCLCGL@MIN_MAGIC_WEP@		; `string'
PUBLIC	??_C@_0O@JAPECJBK@MAX_MAGIC_WEP@		; `string'
PUBLIC	??_C@_09LKMFFHLI@ATT_SPEED@			; `string'
PUBLIC	??_C@_09FOFLCGDC@ATT_BONUS@			; `string'
PUBLIC	??_C@_0L@IPHIKIMB@EVADE_RATE@			; `string'
PUBLIC	??_C@_0N@KGGLAJKM@MOVING_SPEED@			; `string'
PUBLIC	??_C@_09KMPFCDFE@DEF_GRADE@			; `string'
PUBLIC	??_C@_09DNFHINBC@DEF_BONUS@			; `string'
PUBLIC	??_C@_0O@IOLIEEIE@CASTING_SPEED@		; `string'
PUBLIC	??_C@_07PEONMKMN@MAG_ATT@			; `string'
PUBLIC	??_C@_07KGCDIDGL@MAG_DEF@			; `string'
PUBLIC	??_C@_0N@JIFCAIPA@EMPIRE_POINT@			; `string'
PUBLIC	??_C@_04KNIOFKKL@STAT@				; `string'
PUBLIC	??_C@_0O@DGEPJFAK@SKILL_PASSIVE@		; `string'
PUBLIC	??_C@_0O@JLNOPGFK@SKILL_SUPPORT@		; `string'
PUBLIC	??_C@_0N@DNBJLBPA@SKILL_ACTIVE@			; `string'
PUBLIC	??_C@_0M@HAFIBGFL@SKILL_HORSE@			; `string'
PUBLIC	??_C@_08CKIIBBI@PLAYTIME@			; `string'
PUBLIC	??_C@_0N@KHDDEEFG@BOW_DISTANCE@			; `string'
PUBLIC	??_C@_0M@CLAIAEPM@HP_RECOVERY@			; `string'
PUBLIC	??_C@_0M@FGICENAO@SP_RECOVERY@			; `string'
PUBLIC	??_C@_0P@GAAMLPFK@ATTACKER_BONUS@		; `string'
PUBLIC	??_C@_07MEMMKJPK@MAX_NUM@			; `string'
PUBLIC	??_C@_0BD@CPEECKKP@POINT_CRITICAL_PCT@		; `string'
PUBLIC	??_C@_0BE@BGNEFMNJ@POINT_PENETRATE_PCT@		; `string'
PUBLIC	??_C@_0BE@FDGMKOPN@POINT_MALL_ATTBONUS@		; `string'
PUBLIC	??_C@_0BE@FJKLFHOA@POINT_MALL_DEFBONUS@		; `string'
PUBLIC	??_C@_0BE@KNGAMOKN@POINT_MALL_EXPBONUS@		; `string'
PUBLIC	??_C@_0BF@FCMHLHC@POINT_MALL_ITEMBONUS@		; `string'
PUBLIC	??_C@_0BF@LPKHMJJF@POINT_MALL_GOLDBONUS@	; `string'
PUBLIC	??_C@_0BB@OCODMABI@POINT_MAX_HP_PCT@		; `string'
PUBLIC	??_C@_0BB@IHDKAICM@POINT_MAX_SP_PCT@		; `string'
PUBLIC	??_C@_0BJ@PGEFOCDG@POINT_SKILL_DAMAGE_BONUS@	; `string'
PUBLIC	??_C@_0BO@GNDIKOOF@POINT_NORMAL_HIT_DAMAGE_BONUS@ ; `string'
PUBLIC	??_C@_0BJ@LPIAEILC@POINT_SKILL_DEFEND_BONUS@	; `string'
PUBLIC	??_C@_0BO@CEPNAEGB@POINT_NORMAL_HIT_DEFEND_BONUS@ ; `string'
PUBLIC	??_C@_0BI@BAKJJELL@POINT_PC_BANG_EXP_BONUS@	; `string'
PUBLIC	??_C@_0BJ@LFKCHGEO@POINT_PC_BANG_DROP_BONUS@	; `string'
PUBLIC	??_C@_06KOEJHMAL@ENERGY@			; `string'
PUBLIC	??_C@_0BA@PIHNCBED@ENERGY_END_TIME@		; `string'
PUBLIC	??_C@_0BD@LAKFNFGD@SKILL_GRADE_NORMAL@		; `string'
PUBLIC	??_C@_0BD@HIHOAICI@SKILL_GRADE_MASTER@		; `string'
PUBLIC	??_C@_0BJ@CFOEIGCN@SKILL_GRADE_GRAND_MASTER@	; `string'
PUBLIC	??_C@_0BL@DCIPLDCA@SKILL_GRADE_PERFECT_MASTER@	; `string'
PUBLIC	??_C@_0BA@LCKKFCJM@CATEGORY_ACTIVE@		; `string'
PUBLIC	??_C@_0BB@HCMEALJK@CATEGORY_PASSIVE@		; `string'
PUBLIC	??_C@_0BE@CEBDMLGH@INVENTORY_PAGE_SIZE@		; `string'
PUBLIC	??_C@_0BF@NFIFHHOM@INVENTORY_PAGE_COUNT@	; `string'
PUBLIC	??_C@_0BF@LCFAAJPA@INVENTORY_SLOT_COUNT@	; `string'
PUBLIC	??_C@_0BF@HJEBPPMM@EQUIPMENT_SLOT_START@	; `string'
PUBLIC	??_C@_0BF@MADFLPAE@EQUIPMENT_PAGE_COUNT@	; `string'
PUBLIC	??_C@_0BJ@COKKCHPJ@NEW_EQUIPMENT_SLOT_START@	; `string'
PUBLIC	??_C@_0BJ@PAALBJCN@NEW_EQUIPMENT_SLOT_COUNT@	; `string'
PUBLIC	??_C@_09NLFDBCDH@MBF_SKILL@			; `string'
PUBLIC	??_C@_0L@MIGMJBKJ@MBF_ATTACK@			; `string'
PUBLIC	??_C@_0L@JHBFAMB@MBF_CAMERA@			; `string'
PUBLIC	??_C@_09FAENJFL@MBF_SMART@			; `string'
PUBLIC	??_C@_08BLLANCB@MBF_MOVE@			; `string'
PUBLIC	??_C@_08CIEGLDP@MBF_AUTO@			; `string'
PUBLIC	??_C@_09JEJKPPEO@MBS_PRESS@			; `string'
PUBLIC	??_C@_09BKODCCAJ@MBS_CLICK@			; `string'
PUBLIC	??_C@_09DBJMODBC@MBT_RIGHT@			; `string'
PUBLIC	??_C@_08OMNIMJHC@MBT_LEFT@			; `string'
PUBLIC	??_C@_0P@JBDPGPGM@SLOT_TYPE_NONE@		; `string'
PUBLIC	??_C@_0BE@BNOEBHPE@SLOT_TYPE_INVENTORY@		; `string'
PUBLIC	??_C@_0BA@MAJHKGKG@SLOT_TYPE_SKILL@		; `string'
PUBLIC	??_C@_0P@KCOPIIMF@SLOT_TYPE_SHOP@		; `string'
PUBLIC	??_C@_0BJ@DBNHPJKE@SLOT_TYPE_EXCHANGE_OWNER@	; `string'
PUBLIC	??_C@_0BK@KJHLAGBH@SLOT_TYPE_EXCHANGE_TARGET@	; `string'
PUBLIC	??_C@_0BF@CPPFMLHN@SLOT_TYPE_QUICK_SLOT@	; `string'
PUBLIC	??_C@_0BC@HGKFDIFN@SLOT_TYPE_SAFEBOX@		; `string'
PUBLIC	??_C@_0BH@MJAEADNE@SLOT_TYPE_PRIVATE_SHOP@	; `string'
PUBLIC	??_C@_0P@OEAGANKI@SLOT_TYPE_MALL@		; `string'
PUBLIC	??_C@_0BC@LKMHLHKJ@SLOT_TYPE_EMOTION@		; `string'
PUBLIC	??_C@_0CA@FHKIPOOP@SLOT_TYPE_DRAGON_SOUL_INVENTORY@ ; `string'
PUBLIC	??_C@_0BA@NKAFFIGF@RESERVED_WINDOW@		; `string'
PUBLIC	??_C@_09NCAHJFFG@INVENTORY@			; `string'
PUBLIC	??_C@_09GJGOMHMK@EQUIPMENT@			; `string'
PUBLIC	??_C@_07NCKDBJCB@SAFEBOX@			; `string'
PUBLIC	??_C@_04JPFKNPOP@MALL@				; `string'
PUBLIC	??_C@_0BG@FHEDCCNN@DRAGON_SOUL_INVENTORY@	; `string'
PUBLIC	??_C@_06GKBINIEJ@GROUND@			; `string'
PUBLIC	??_C@_0L@HFAEBHHD@ITEM_MONEY@			; `string'
PUBLIC	??_C@_0BB@IOEKBHAE@SKILL_SLOT_COUNT@		; `string'
PUBLIC	??_C@_0M@CHLINENA@EFFECT_PICK@			; `string'
PUBLIC	??_C@_0BH@FCKCIMBH@METIN_SOCKET_TYPE_NONE@	; `string'
PUBLIC	??_C@_0BJ@PHGNNMMA@METIN_SOCKET_TYPE_SILVER@	; `string'
PUBLIC	??_C@_0BH@EFCNALEJ@METIN_SOCKET_TYPE_GOLD@	; `string'
PUBLIC	??_C@_0BF@HOKBLOCN@METIN_SOCKET_MAX_NUM@	; `string'
PUBLIC	??_C@_0BH@BPEONNLD@ATTRIBUTE_SLOT_MAX_NUM@	; `string'
PUBLIC	??_C@_0M@FNDEJPGN@REFINE_CANT@			; `string'
PUBLIC	??_C@_09FFJEIDJG@REFINE_OK@			; `string'
PUBLIC	??_C@_0CA@CPLGFHBD@REFINE_ALREADY_MAX_SOCKET_COUNT@ ; `string'
PUBLIC	??_C@_0BN@FMBLMMOD@REFINE_NEED_MORE_GOOD_SCROLL@ ; `string'
PUBLIC	??_C@_0BN@JPDLJDPD@REFINE_CANT_MAKE_SOCKET_ITEM@ ; `string'
PUBLIC	??_C@_0BL@EILCCEPE@REFINE_NOT_NEXT_GRADE_ITEM@	; `string'
PUBLIC	??_C@_0CG@LFLLDFCE@REFINE_CANT_REFINE_METIN_TO_EQU@ ; `string'
PUBLIC	??_C@_0BH@OENPPLJB@REFINE_CANT_REFINE_ROD@	; `string'
PUBLIC	??_C@_0BC@CBCJMHP@ATTACH_METIN_CANT@		; `string'
PUBLIC	??_C@_0BA@HOJAFGB@ATTACH_METIN_OK@		; `string'
PUBLIC	??_C@_0CA@OFAKGLFM@ATTACH_METIN_NOT_MATCHABLE_ITEM@ ; `string'
PUBLIC	??_C@_0CB@MAILDNNI@ATTACH_METIN_NO_MATCHABLE_SOCKE@ ; `string'
PUBLIC	??_C@_0CD@JNOPKOFJ@ATTACH_METIN_NOT_EXIST_GOLD_SOC@ ; `string'
PUBLIC	??_C@_0CG@BCIFDNEM@ATTACH_METIN_CANT_ATTACH_TO_EQU@ ; `string'
PUBLIC	??_C@_0BC@HGBPKPKG@DETACH_METIN_CANT@		; `string'
PUBLIC	??_C@_0BA@IACJJMNA@DETACH_METIN_OK@		; `string'
PUBLIC	??_C@_0BD@PNFBHDHD@PARTY_STATE_NORMAL@		; `string'
PUBLIC	??_C@_0BD@ECFFHEOH@PARTY_STATE_LEADER@		; `string'
PUBLIC	??_C@_0BF@DOKPPLCL@PARTY_STATE_ATTACKER@	; `string'
PUBLIC	??_C@_0BD@FHMGGDNP@PARTY_STATE_TANKER@		; `string'
PUBLIC	??_C@_0BD@JJFBJLK@PARTY_STATE_BUFFER@		; `string'
PUBLIC	??_C@_0BJ@EIPCPJKC@PARTY_STATE_SKILL_MASTER@	; `string'
PUBLIC	??_C@_0BG@LCNEBE@PARTY_STATE_BERSERKER@		; `string'
PUBLIC	??_C@_0BF@PAKJEMH@PARTY_STATE_DEFENDER@		; `string'
PUBLIC	??_C@_0BE@KCLJFDCO@PARTY_STATE_MAX_NUM@		; `string'
PUBLIC	??_C@_0BE@MNBFKLPI@SKILL_INDEX_TONGSOL@		; `string'
PUBLIC	??_C@_0BE@HANBCKAH@SKILL_INDEX_FISHING@		; `string'
PUBLIC	??_C@_0BD@KFCAJBFG@SKILL_INDEX_MINING@		; `string'
PUBLIC	??_C@_0BD@IBJDJMEL@SKILL_INDEX_MAKING@		; `string'
PUBLIC	??_C@_0BC@HACNAMIK@SKILL_INDEX_COMBO@		; `string'
PUBLIC	??_C@_0BG@GPLOFEKK@SKILL_INDEX_LANGUAGE1@	; `string'
PUBLIC	??_C@_0BG@EEJDAHGJ@SKILL_INDEX_LANGUAGE2@	; `string'
PUBLIC	??_C@_0BG@FNIIDGCI@SKILL_INDEX_LANGUAGE3@	; `string'
PUBLIC	??_C@_0BG@DMEIDEKO@SKILL_INDEX_POLYMORPH@	; `string'
PUBLIC	??_C@_0BD@HOAGGFNA@SKILL_INDEX_RIDING@		; `string'
PUBLIC	??_C@_0BD@POBHIINM@SKILL_INDEX_SUMMON@		; `string'
PUBLIC	??_C@_0O@BIPAMBIG@PK_MODE_PEACE@		; `string'
PUBLIC	??_C@_0BA@HNNGLCOB@PK_MODE_REVENGE@		; `string'
PUBLIC	??_C@_0N@DCANEGJG@PK_MODE_FREE@			; `string'
PUBLIC	??_C@_0BA@GHACPGHA@PK_MODE_PROTECT@		; `string'
PUBLIC	??_C@_0O@LBDADKLE@PK_MODE_GUILD@		; `string'
PUBLIC	??_C@_0BA@OLCDKGDA@PK_MODE_MAX_NUM@		; `string'
PUBLIC	??_C@_0P@CDMGAFPE@BLOCK_EXCHANGE@		; `string'
PUBLIC	??_C@_0M@KFDBGBIL@BLOCK_PARTY@			; `string'
PUBLIC	??_C@_0M@EEMDCMKA@BLOCK_GUILD@			; `string'
PUBLIC	??_C@_0O@CFHKOIIK@BLOCK_WHISPER@		; `string'
PUBLIC	??_C@_0N@IJGKBLJF@BLOCK_FRIEND@			; `string'
PUBLIC	??_C@_0BE@NDGMABKO@BLOCK_PARTY_REQUEST@		; `string'
PUBLIC	??_C@_0BL@OELLICOI@PARTY_EXP_NON_DISTRIBUTION@	; `string'
PUBLIC	??_C@_0BO@CBJBDFJC@PARTY_EXP_DISTRIBUTION_PARITY@ ; `string'
PUBLIC	??_C@_0N@GFLIEIGE@EMOTION_CLAP@			; `string'
PUBLIC	??_C@_0BB@MCMBOGFC@EMOTION_CHEERS_1@		; `string'
PUBLIC	??_C@_0BB@OJOMLFJB@EMOTION_CHEERS_2@		; `string'
PUBLIC	??_C@_0BA@CLHGMEE@EMOTION_DANCE_1@		; `string'
PUBLIC	??_C@_0BA@CJJKDPIH@EMOTION_DANCE_2@		; `string'
PUBLIC	??_C@_0BA@DAIBAOMG@EMOTION_DANCE_3@		; `string'
PUBLIC	??_C@_0BA@HPMAJIAB@EMOTION_DANCE_4@		; `string'
PUBLIC	??_C@_0BA@GGNLKJEA@EMOTION_DANCE_5@		; `string'
PUBLIC	??_C@_0BA@ENPGPKID@EMOTION_DANCE_6@		; `string'
PUBLIC	??_C@_0BH@FIIEKKHF@EMOTION_CONGRATULATION@	; `string'
PUBLIC	??_C@_0BA@JPGNEMIB@EMOTION_FORGIVE@		; `string'
PUBLIC	??_C@_0O@DACEICMN@EMOTION_ANGRY@		; `string'
PUBLIC	??_C@_0BD@FLNIBF@EMOTION_ATTRACTIVE@		; `string'
PUBLIC	??_C@_0M@EGEMMDCF@EMOTION_SAD@			; `string'
PUBLIC	??_C@_0M@LGPBJELG@EMOTION_SHY@			; `string'
PUBLIC	??_C@_0BA@MENCJFPL@EMOTION_CHEERUP@		; `string'
PUBLIC	??_C@_0P@JAJBGKKI@EMOTION_BANTER@		; `string'
PUBLIC	??_C@_0M@JOKPJKCG@EMOTION_JOY@			; `string'
PUBLIC	??_C@_0N@FGJJNHEK@EMOTION_KISS@			; `string'
PUBLIC	??_C@_0BE@KCAKKBPE@EMOTION_FRENCH_KISS@		; `string'
PUBLIC	??_C@_0N@FFINPOG@EMOTION_SLAP@			; `string'
PUBLIC	??_C@_0BE@LLABJENL@AUTO_POTION_TYPE_HP@		; `string'
PUBLIC	??_C@_0BE@KLHCNIEK@AUTO_POTION_TYPE_SP@		; `string'
PUBLIC	??_C@_0BG@FEPFCIIM@DRAGON_SOUL_PAGE_SIZE@	; `string'
PUBLIC	??_C@_0BH@OCCNKKPP@DRAGON_SOUL_PAGE_COUNT@	; `string'
PUBLIC	??_C@_0BH@IFPINEOD@DRAGON_SOUL_SLOT_COUNT@	; `string'
PUBLIC	??_C@_0CB@NJAOAEOC@DRAGON_SOUL_EQUIPMENT_SLOT_STAR@ ; `string'
PUBLIC	??_C@_0CB@GAHKEECK@DRAGON_SOUL_EQUIPMENT_PAGE_COUN@ ; `string'
PUBLIC	??_C@_0CB@OIFHBJMG@DRAGON_SOUL_EQUIPMENT_FIRST_SIZ@ ; `string'
PUBLIC	??_C@_0BJ@MMGGGOHJ@DRAGON_SOUL_REFINE_CLOSE@	; `string'
PUBLIC	??_C@_0BJ@JKFAJIJN@DS_SUB_HEADER_DO_UPGRADE@	; `string'
PUBLIC	??_C@_0BN@PCPINHKH@DS_SUB_HEADER_DO_IMPROVEMENT@ ; `string'
PUBLIC	??_C@_0BI@NHBOLMGK@DS_SUB_HEADER_DO_REFINE@	; `string'
PUBLIC	__real@bff0000000000000
EXTRN	??2@YAPAXI@Z:PROC				; operator new
EXTRN	??3@YAXPAX@Z:PROC				; operator delete
EXTRN	??3@YAXPAXI@Z:PROC				; operator delete
EXTRN	_atexit:PROC
EXTRN	__invalid_parameter_noinfo_noreturn:PROC
EXTRN	___stdio_common_vsprintf:PROC
EXTRN	___std_exception_copy:PROC
EXTRN	___std_exception_destroy:PROC
EXTRN	??_Eexception@std@@UAEPAXI@Z:PROC		; std::exception::`vector deleting destructor'
EXTRN	??_Ebad_alloc@std@@UAEPAXI@Z:PROC		; std::bad_alloc::`vector deleting destructor'
EXTRN	??_Ebad_array_new_length@std@@UAEPAXI@Z:PROC	; std::bad_array_new_length::`vector deleting destructor'
EXTRN	?_Xlength_error@std@@YAXPBD@Z:PROC		; std::_Xlength_error
EXTRN	__imp__PyInt_AsLong:PROC
EXTRN	__imp__PyTuple_Size:PROC
EXTRN	__imp__PyDict_Next:PROC
EXTRN	__imp__PyDict_Size:PROC
EXTRN	__imp__Py_BuildValue:PROC
EXTRN	__imp__PyModule_AddIntConstant:PROC
EXTRN	__imp__Py_InitModule4:PROC
EXTRN	?PyTuple_GetString@@YA_NPAU_object@@HPAPAD@Z:PROC ; PyTuple_GetString
EXTRN	?PyTuple_GetInteger@@YA_NPAU_object@@HPAE@Z:PROC ; PyTuple_GetInteger
EXTRN	?PyTuple_GetInteger@@YA_NPAU_object@@HPAH@Z:PROC ; PyTuple_GetInteger
EXTRN	?PyTuple_GetInteger@@YA_NPAU_object@@HPAG@Z:PROC ; PyTuple_GetInteger
EXTRN	?PyTuple_GetByte@@YA_NPAU_object@@HPAE@Z:PROC	; PyTuple_GetByte
EXTRN	?PyTuple_GetLong@@YA_NPAU_object@@HPAJ@Z:PROC	; PyTuple_GetLong
EXTRN	?PyTuple_GetFloat@@YA_NPAU_object@@HPAM@Z:PROC	; PyTuple_GetFloat
EXTRN	?PyTuple_GetObject@@YA_NPAU_object@@HPAPAU1@@Z:PROC ; PyTuple_GetObject
EXTRN	?PyTuple_GetBoolean@@YA_NPAU_object@@HPA_N@Z:PROC ; PyTuple_GetBoolean
EXTRN	?Py_BuildException@@YAPAU_object@@PBDZZ:PROC	; Py_BuildException
EXTRN	?Py_BadArgument@@YAPAU_object@@XZ:PROC		; Py_BadArgument
EXTRN	?Py_BuildNone@@YAPAU_object@@XZ:PROC		; Py_BuildNone
EXTRN	?GetDefaultCodePage@@YAKXZ:PROC			; GetDefaultCodePage
EXTRN	?GetResourcePointer@CResourceManager@@QAEPAVCResource@@PBD@Z:PROC ; CResourceManager::GetResourcePointer
EXTRN	?Show@CGraphicObjectInstance@@QAEXXZ:PROC	; CGraphicObjectInstance::Show
EXTRN	?Hide@CGraphicObjectInstance@@QAEXXZ:PROC	; CGraphicObjectInstance::Hide
EXTRN	?GetName@CItemData@@QBEPBDXZ:PROC		; CItemData::GetName
EXTRN	?GetType@CItemData@@QBEEXZ:PROC			; CItemData::GetType
EXTRN	?GetSubType@CItemData@@QBEEXZ:PROC		; CItemData::GetSubType
EXTRN	?IsFlag@CItemData@@QBEHK@Z:PROC			; CItemData::IsFlag
EXTRN	?HasNextGrade@CItemData@@QBEHXZ:PROC		; CItemData::HasNextGrade
EXTRN	?GetWearFlags@CItemData@@QBEKXZ:PROC		; CItemData::GetWearFlags
EXTRN	?GetISellItemPrice@CItemData@@QBEKXZ:PROC	; CItemData::GetISellItemPrice
EXTRN	?GetValue@CItemData@@QBEJE@Z:PROC		; CItemData::GetValue
EXTRN	?SlotTypeToInvenType@@YAEE@Z:PROC		; SlotTypeToInvenType
EXTRN	?PickCloseItem@CPythonPlayer@@QAEXXZ:PROC	; CPythonPlayer::PickCloseItem
EXTRN	?SetGameWindow@CPythonPlayer@@QAEXPAU_object@@@Z:PROC ; CPythonPlayer::SetGameWindow
EXTRN	?IsObserverMode@CPythonPlayer@@QAE_NXZ:PROC	; CPythonPlayer::IsObserverMode
EXTRN	?SetQuickCameraMode@CPythonPlayer@@QAEX_N@Z:PROC ; CPythonPlayer::SetQuickCameraMode
EXTRN	?SetAttackKeyState@CPythonPlayer@@QAEX_N@Z:PROC	; CPythonPlayer::SetAttackKeyState
EXTRN	?NEW_GetMainActorPosition@CPythonPlayer@@QAEXPAUD3DXVECTOR3@@@Z:PROC ; CPythonPlayer::NEW_GetMainActorPosition
EXTRN	?RegisterEffect@CPythonPlayer@@QAE_NKPBD_N@Z:PROC ; CPythonPlayer::RegisterEffect
EXTRN	?NEW_SetMouseState@CPythonPlayer@@QAE_NHH@Z:PROC ; CPythonPlayer::NEW_SetMouseState
EXTRN	?NEW_SetMouseFunc@CPythonPlayer@@QAE_NHH@Z:PROC	; CPythonPlayer::NEW_SetMouseFunc
EXTRN	?NEW_GetMouseFunc@CPythonPlayer@@QAEHH@Z:PROC	; CPythonPlayer::NEW_GetMouseFunc
EXTRN	?NEW_SetMouseMiddleButtonState@CPythonPlayer@@QAEXH@Z:PROC ; CPythonPlayer::NEW_SetMouseMiddleButtonState
EXTRN	?NEW_SetAutoCameraRotationSpeed@CPythonPlayer@@QAEXM@Z:PROC ; CPythonPlayer::NEW_SetAutoCameraRotationSpeed
EXTRN	?NEW_ResetCameraRotation@CPythonPlayer@@QAEXXZ:PROC ; CPythonPlayer::NEW_ResetCameraRotation
EXTRN	?NEW_SetSingleDIKKeyState@CPythonPlayer@@QAEXH_N@Z:PROC ; CPythonPlayer::NEW_SetSingleDIKKeyState
EXTRN	?NEW_Attack@CPythonPlayer@@QAEXXZ:PROC		; CPythonPlayer::NEW_Attack
EXTRN	?NEW_Stop@CPythonPlayer@@QAEXXZ:PROC		; CPythonPlayer::NEW_Stop
EXTRN	?Clear@CPythonPlayer@@QAEXXZ:PROC		; CPythonPlayer::Clear
EXTRN	?ClearSkillDict@CPythonPlayer@@QAEXXZ:PROC	; CPythonPlayer::ClearSkillDict
EXTRN	?Update@CPythonPlayer@@QAEXXZ:PROC		; CPythonPlayer::Update
EXTRN	?GetPlayTime@CPythonPlayer@@QAEKXZ:PROC		; CPythonPlayer::GetPlayTime
EXTRN	?SetPlayTime@CPythonPlayer@@QAEXK@Z:PROC	; CPythonPlayer::SetPlayTime
EXTRN	?GetRace@CPythonPlayer@@QAEKXZ:PROC		; CPythonPlayer::GetRace
EXTRN	?SetStatus@CPythonPlayer@@QAEXKJ@Z:PROC		; CPythonPlayer::SetStatus
EXTRN	?MoveItemData@CPythonPlayer@@QAEXUSItemPos@@0@Z:PROC ; CPythonPlayer::MoveItemData
EXTRN	?GetItemData@CPythonPlayer@@QBEPBUpacket_item@@USItemPos@@@Z:PROC ; CPythonPlayer::GetItemData
EXTRN	?GetItemCountByVnum@CPythonPlayer@@QAEKK@Z:PROC	; CPythonPlayer::GetItemCountByVnum
EXTRN	?GetItemMetinSocket@CPythonPlayer@@QAEKUSItemPos@@K@Z:PROC ; CPythonPlayer::GetItemMetinSocket
EXTRN	?GetItemAttribute@CPythonPlayer@@QAEXUSItemPos@@KPAEPAF@Z:PROC ; CPythonPlayer::GetItemAttribute
EXTRN	?SendClickItemPacket@CPythonPlayer@@QAEXK@Z:PROC ; CPythonPlayer::SendClickItemPacket
EXTRN	?RequestAddLocalQuickSlot@CPythonPlayer@@QAEXKKK@Z:PROC ; CPythonPlayer::RequestAddLocalQuickSlot
EXTRN	?RequestAddToEmptyLocalQuickSlot@CPythonPlayer@@QAEXKK@Z:PROC ; CPythonPlayer::RequestAddToEmptyLocalQuickSlot
EXTRN	?RequestMoveGlobalQuickSlotToLocalQuickSlot@CPythonPlayer@@QAEXKK@Z:PROC ; CPythonPlayer::RequestMoveGlobalQuickSlotToLocalQuickSlot
EXTRN	?RequestDeleteGlobalQuickSlot@CPythonPlayer@@QAEXK@Z:PROC ; CPythonPlayer::RequestDeleteGlobalQuickSlot
EXTRN	?RequestUseLocalQuickSlot@CPythonPlayer@@QAEXK@Z:PROC ; CPythonPlayer::RequestUseLocalQuickSlot
EXTRN	?LocalQuickSlotIndexToGlobalQuickSlotIndex@CPythonPlayer@@QAEKK@Z:PROC ; CPythonPlayer::LocalQuickSlotIndexToGlobalQuickSlotIndex
EXTRN	?GetGlobalQuickSlotData@CPythonPlayer@@QAEXKPAK0@Z:PROC ; CPythonPlayer::GetGlobalQuickSlotData
EXTRN	?GetLocalQuickSlotData@CPythonPlayer@@QAEXKPAK0@Z:PROC ; CPythonPlayer::GetLocalQuickSlotData
EXTRN	?RemoveQuickSlotByValue@CPythonPlayer@@QAEXHH@Z:PROC ; CPythonPlayer::RemoveQuickSlotByValue
EXTRN	?IsItem@CPythonPlayer@@QAEDUSItemPos@@@Z:PROC	; CPythonPlayer::IsItem
EXTRN	?IsBeltInventorySlot@CPythonPlayer@@QAE_NUSItemPos@@@Z:PROC ; CPythonPlayer::IsBeltInventorySlot
EXTRN	?IsEquipmentSlot@CPythonPlayer@@QAE_NUSItemPos@@@Z:PROC ; CPythonPlayer::IsEquipmentSlot
EXTRN	?GetQuickPage@CPythonPlayer@@QAEHXZ:PROC	; CPythonPlayer::GetQuickPage
EXTRN	?SetQuickPage@CPythonPlayer@@QAEXH@Z:PROC	; CPythonPlayer::SetQuickPage
EXTRN	?SetSkill@CPythonPlayer@@QAEXKK@Z:PROC		; CPythonPlayer::SetSkill
EXTRN	?GetSkillSlotIndex@CPythonPlayer@@QAE_NKPAK@Z:PROC ; CPythonPlayer::GetSkillSlotIndex
EXTRN	?GetSkillIndex@CPythonPlayer@@QAEHK@Z:PROC	; CPythonPlayer::GetSkillIndex
EXTRN	?GetSkillGrade@CPythonPlayer@@QAEHK@Z:PROC	; CPythonPlayer::GetSkillGrade
EXTRN	?GetSkillLevel@CPythonPlayer@@QAEHK@Z:PROC	; CPythonPlayer::GetSkillLevel
EXTRN	?GetSkillCurrentEfficientPercentage@CPythonPlayer@@QAEMK@Z:PROC ; CPythonPlayer::GetSkillCurrentEfficientPercentage
EXTRN	?GetSkillNextEfficientPercentage@CPythonPlayer@@QAEMK@Z:PROC ; CPythonPlayer::GetSkillNextEfficientPercentage
EXTRN	?ClickSkillSlot@CPythonPlayer@@QAEXK@Z:PROC	; CPythonPlayer::ClickSkillSlot
EXTRN	?ChangeCurrentSkillNumberOnly@CPythonPlayer@@QAEXK@Z:PROC ; CPythonPlayer::ChangeCurrentSkillNumberOnly
EXTRN	?GetSkillCoolTime@CPythonPlayer@@QAEMK@Z:PROC	; CPythonPlayer::GetSkillCoolTime
EXTRN	?GetSkillElapsedCoolTime@CPythonPlayer@@QAEMK@Z:PROC ; CPythonPlayer::GetSkillElapsedCoolTime
EXTRN	?IsSkillActive@CPythonPlayer@@QAEHK@Z:PROC	; CPythonPlayer::IsSkillActive
EXTRN	?IsSkillCoolTime@CPythonPlayer@@QAEHK@Z:PROC	; CPythonPlayer::IsSkillCoolTime
EXTRN	?UseGuildSkill@CPythonPlayer@@QAEXK@Z:PROC	; CPythonPlayer::UseGuildSkill
EXTRN	?AffectIndexToSkillIndex@CPythonPlayer@@QAE_NKPAK@Z:PROC ; CPythonPlayer::AffectIndexToSkillIndex
EXTRN	?OpenCharacterMenu@CPythonPlayer@@QAEXK@Z:PROC	; CPythonPlayer::OpenCharacterMenu
EXTRN	?GetTargetVID@CPythonPlayer@@QAEKXZ:PROC	; CPythonPlayer::GetTargetVID
EXTRN	?ExitParty@CPythonPlayer@@QAEXXZ:PROC		; CPythonPlayer::ExitParty
EXTRN	?RemovePartyMember@CPythonPlayer@@QAEXK@Z:PROC	; CPythonPlayer::RemovePartyMember
EXTRN	?GetPartyMemberPtr@CPythonPlayer@@QAE_NKPAPAUSPartyMemberInfo@1@@Z:PROC ; CPythonPlayer::GetPartyMemberPtr
EXTRN	?IsChallengeInstance@CPythonPlayer@@QAE_NK@Z:PROC ; CPythonPlayer::IsChallengeInstance
EXTRN	?IsRevengeInstance@CPythonPlayer@@QAE_NK@Z:PROC	; CPythonPlayer::IsRevengeInstance
EXTRN	?IsCantFightInstance@CPythonPlayer@@QAE_NK@Z:PROC ; CPythonPlayer::IsCantFightInstance
EXTRN	?IsOpenPrivateShop@CPythonPlayer@@QAE_NXZ:PROC	; CPythonPlayer::IsOpenPrivateShop
EXTRN	?GetPKMode@CPythonPlayer@@QAEKXZ:PROC		; CPythonPlayer::GetPKMode
EXTRN	?HasMobilePhoneNumber@CPythonPlayer@@QAEHXZ:PROC ; CPythonPlayer::HasMobilePhoneNumber
EXTRN	?ActEmotion@CPythonPlayer@@QAEXK@Z:PROC		; CPythonPlayer::ActEmotion
EXTRN	?__ToggleCoolTime@CPythonPlayer@@QAEHXZ:PROC	; CPythonPlayer::__ToggleCoolTime
EXTRN	?__ToggleLevelLimit@CPythonPlayer@@QAEHXZ:PROC	; CPythonPlayer::__ToggleLevelLimit
EXTRN	?SelectItemData@CItemManager@@QAEHK@Z:PROC	; CItemManager::SelectItemData
EXTRN	?GetSelectedItemDataPointer@CItemManager@@QAEPAVCItemData@@XZ:PROC ; CItemManager::GetSelectedItemDataPointer
EXTRN	?GetItemDataPointer@CItemManager@@QAEHKPAPAVCItemData@@@Z:PROC ; CItemManager::GetItemDataPointer
EXTRN	?SendDragonSoulRefinePacket@CPythonNetworkStream@@QAE_NEPAUSItemPos@@@Z:PROC ; CPythonNetworkStream::SendDragonSoulRefinePacket
EXTRN	?GetWeaponType@CInstanceBase@@QAEKXZ:PROC	; CInstanceBase::GetWeaponType
EXTRN	?GetGuildID@CInstanceBase@@QAEKXZ:PROC		; CInstanceBase::GetGuildID
EXTRN	?GetAlignment@CInstanceBase@@QAEHXZ:PROC	; CInstanceBase::GetAlignment
EXTRN	?GetAlignmentGrade@CInstanceBase@@QAEIXZ:PROC	; CInstanceBase::GetAlignmentGrade
EXTRN	?IsAttackableInstance@CInstanceBase@@QAE_NAAV1@@Z:PROC ; CInstanceBase::IsAttackableInstance
EXTRN	?IsPVPInstance@CInstanceBase@@QAE_NAAV1@@Z:PROC	; CInstanceBase::IsPVPInstance
EXTRN	?IsSameEmpire@CInstanceBase@@QAEHAAV1@@Z:PROC	; CInstanceBase::IsSameEmpire
EXTRN	?IsMountingHorse@CInstanceBase@@QAEHXZ:PROC	; CInstanceBase::IsMountingHorse
EXTRN	?IsInSafe@CInstanceBase@@QAEHXZ:PROC		; CInstanceBase::IsInSafe
EXTRN	?IsActingEmotion@CInstanceBase@@QAEHXZ:PROC	; CInstanceBase::IsActingEmotion
EXTRN	?GetDistance@CInstanceBase@@QAEMPAV1@@Z:PROC	; CInstanceBase::GetDistance
EXTRN	?GetGraphicThingInstanceRef@CInstanceBase@@QAEAAVCActorInstance@@XZ:PROC ; CInstanceBase::GetGraphicThingInstanceRef
EXTRN	?SetMainInstance@CPythonCharacterManager@@QAE_NK@Z:PROC ; CPythonCharacterManager::SetMainInstance
EXTRN	?GetGuildName@CPythonGuild@@QAE_NKPAV?$basic_string@DU?$char_traits@D@std@@V?$allocator@D@2@@std@@@Z:PROC ; CPythonGuild::GetGuildName
EXTRN	@__security_check_cookie@4:PROC
EXTRN	__CxxThrowException@8:PROC
EXTRN	___CxxFrameHandler3:PROC
EXTRN	_memcpy:PROC
EXTRN	_memmove:PROC
EXTRN	?TWOHANDED_WEWAPON_ATT_SPEED_DECREASE_VALUE@@3HA:DWORD ; TWOHANDED_WEWAPON_ATT_SPEED_DECREASE_VALUE
EXTRN	___security_cookie:DWORD
EXTRN	__fltused:DWORD
;	COMDAT ?_OptionsStorage@?1??__local_stdio_printf_options@@9@4_KA
_BSS	SEGMENT
?_OptionsStorage@?1??__local_stdio_printf_options@@9@4_KA DQ 01H DUP (?) ; `__local_stdio_printf_options'::`2'::_OptionsStorage
_BSS	ENDS
;	COMDAT ?ms_singleton@?$CSingleton@VCResourceManager@@@@0PAVCResourceManager@@A
_BSS	SEGMENT
?ms_singleton@?$CSingleton@VCResourceManager@@@@0PAVCResourceManager@@A DD 01H DUP (?) ; CSingleton<CResourceManager>::ms_singleton
_BSS	ENDS
;	COMDAT ?ms_singleton@?$CSingleton@VCPythonPlayer@@@@0PAVCPythonPlayer@@A
_BSS	SEGMENT
?ms_singleton@?$CSingleton@VCPythonPlayer@@@@0PAVCPythonPlayer@@A DD 01H DUP (?) ; CSingleton<CPythonPlayer>::ms_singleton
_BSS	ENDS
;	COMDAT ?ms_singleton@?$CSingleton@VCItemManager@@@@0PAVCItemManager@@A
_BSS	SEGMENT
?ms_singleton@?$CSingleton@VCItemManager@@@@0PAVCItemManager@@A DD 01H DUP (?) ; CSingleton<CItemManager>::ms_singleton
_BSS	ENDS
;	COMDAT ?ms_singleton@?$CSingleton@VCPythonNetworkStream@@@@0PAVCPythonNetworkStream@@A
_BSS	SEGMENT
?ms_singleton@?$CSingleton@VCPythonNetworkStream@@@@0PAVCPythonNetworkStream@@A DD 01H DUP (?) ; CSingleton<CPythonNetworkStream>::ms_singleton
_BSS	ENDS
;	COMDAT ?ms_singleton@?$CSingleton@VCPythonCharacterManager@@@@0PAVCPythonCharacterManager@@A
_BSS	SEGMENT
?ms_singleton@?$CSingleton@VCPythonCharacterManager@@@@0PAVCPythonCharacterManager@@A DD 01H DUP (?) ; CSingleton<CPythonCharacterManager>::ms_singleton
_BSS	ENDS
;	COMDAT ?ms_singleton@?$CSingleton@VCPythonGuild@@@@0PAVCPythonGuild@@A
_BSS	SEGMENT
?ms_singleton@?$CSingleton@VCPythonGuild@@@@0PAVCPythonGuild@@A DD 01H DUP (?) ; CSingleton<CPythonGuild>::ms_singleton
_BSS	ENDS
_BSS	SEGMENT
?m_kMap_iEmotionIndex_pkIconImage@@3V?$map@HPAVCGraphicImage@@U?$less@H@std@@V?$allocator@U?$pair@$$CBHPAVCGraphicImage@@@std@@@3@@std@@A DQ 01H DUP (?) ; m_kMap_iEmotionIndex_pkIconImage
_BSS	ENDS
CRT$XCU	SEGMENT
?m_kMap_iEmotionIndex_pkIconImage$initializer$@@3P6AXXZA DD FLAT:??__Em_kMap_iEmotionIndex_pkIconImage@@YAXXZ ; m_kMap_iEmotionIndex_pkIconImage$initializer$
CRT$XCU	ENDS
;	COMDAT __real@bff0000000000000
CONST	SEGMENT
__real@bff0000000000000 DQ 0bff0000000000000r	; -1
CONST	ENDS
;	COMDAT ??_C@_0BI@NHBOLMGK@DS_SUB_HEADER_DO_REFINE@
CONST	SEGMENT
??_C@_0BI@NHBOLMGK@DS_SUB_HEADER_DO_REFINE@ DB 'DS_SUB_HEADER_DO_REFINE', 00H ; `string'
CONST	ENDS
;	COMDAT ??_C@_0BN@PCPINHKH@DS_SUB_HEADER_DO_IMPROVEMENT@
CONST	SEGMENT
??_C@_0BN@PCPINHKH@DS_SUB_HEADER_DO_IMPROVEMENT@ DB 'DS_SUB_HEADER_DO_IMP'
	DB	'ROVEMENT', 00H				; `string'
CONST	ENDS
;	COMDAT ??_C@_0BJ@JKFAJIJN@DS_SUB_HEADER_DO_UPGRADE@
CONST	SEGMENT
??_C@_0BJ@JKFAJIJN@DS_SUB_HEADER_DO_UPGRADE@ DB 'DS_SUB_HEADER_DO_UPGRADE'
	DB	00H						; `string'
CONST	ENDS
;	COMDAT ??_C@_0BJ@MMGGGOHJ@DRAGON_SOUL_REFINE_CLOSE@
CONST	SEGMENT
??_C@_0BJ@MMGGGOHJ@DRAGON_SOUL_REFINE_CLOSE@ DB 'DRAGON_SOUL_REFINE_CLOSE'
	DB	00H						; `string'
CONST	ENDS
;	COMDAT ??_C@_0CB@OIFHBJMG@DRAGON_SOUL_EQUIPMENT_FIRST_SIZ@
CONST	SEGMENT
??_C@_0CB@OIFHBJMG@DRAGON_SOUL_EQUIPMENT_FIRST_SIZ@ DB 'DRAGON_SOUL_EQUIP'
	DB	'MENT_FIRST_SIZE', 00H			; `string'
CONST	ENDS
;	COMDAT ??_C@_0CB@GAHKEECK@DRAGON_SOUL_EQUIPMENT_PAGE_COUN@
CONST	SEGMENT
??_C@_0CB@GAHKEECK@DRAGON_SOUL_EQUIPMENT_PAGE_COUN@ DB 'DRAGON_SOUL_EQUIP'
	DB	'MENT_PAGE_COUNT', 00H			; `string'
CONST	ENDS
;	COMDAT ??_C@_0CB@NJAOAEOC@DRAGON_SOUL_EQUIPMENT_SLOT_STAR@
CONST	SEGMENT
??_C@_0CB@NJAOAEOC@DRAGON_SOUL_EQUIPMENT_SLOT_STAR@ DB 'DRAGON_SOUL_EQUIP'
	DB	'MENT_SLOT_START', 00H			; `string'
CONST	ENDS
;	COMDAT ??_C@_0BH@IFPINEOD@DRAGON_SOUL_SLOT_COUNT@
CONST	SEGMENT
??_C@_0BH@IFPINEOD@DRAGON_SOUL_SLOT_COUNT@ DB 'DRAGON_SOUL_SLOT_COUNT', 00H ; `string'
CONST	ENDS
;	COMDAT ??_C@_0BH@OCCNKKPP@DRAGON_SOUL_PAGE_COUNT@
CONST	SEGMENT
??_C@_0BH@OCCNKKPP@DRAGON_SOUL_PAGE_COUNT@ DB 'DRAGON_SOUL_PAGE_COUNT', 00H ; `string'
CONST	ENDS
;	COMDAT ??_C@_0BG@FEPFCIIM@DRAGON_SOUL_PAGE_SIZE@
CONST	SEGMENT
??_C@_0BG@FEPFCIIM@DRAGON_SOUL_PAGE_SIZE@ DB 'DRAGON_SOUL_PAGE_SIZE', 00H ; `string'
CONST	ENDS
;	COMDAT ??_C@_0BE@KLHCNIEK@AUTO_POTION_TYPE_SP@
CONST	SEGMENT
??_C@_0BE@KLHCNIEK@AUTO_POTION_TYPE_SP@ DB 'AUTO_POTION_TYPE_SP', 00H ; `string'
CONST	ENDS
;	COMDAT ??_C@_0BE@LLABJENL@AUTO_POTION_TYPE_HP@
CONST	SEGMENT
??_C@_0BE@LLABJENL@AUTO_POTION_TYPE_HP@ DB 'AUTO_POTION_TYPE_HP', 00H ; `string'
CONST	ENDS
;	COMDAT ??_C@_0N@FFINPOG@EMOTION_SLAP@
CONST	SEGMENT
??_C@_0N@FFINPOG@EMOTION_SLAP@ DB 'EMOTION_SLAP', 00H	; `string'
CONST	ENDS
;	COMDAT ??_C@_0BE@KCAKKBPE@EMOTION_FRENCH_KISS@
CONST	SEGMENT
??_C@_0BE@KCAKKBPE@EMOTION_FRENCH_KISS@ DB 'EMOTION_FRENCH_KISS', 00H ; `string'
CONST	ENDS
;	COMDAT ??_C@_0N@FGJJNHEK@EMOTION_KISS@
CONST	SEGMENT
??_C@_0N@FGJJNHEK@EMOTION_KISS@ DB 'EMOTION_KISS', 00H	; `string'
CONST	ENDS
;	COMDAT ??_C@_0M@JOKPJKCG@EMOTION_JOY@
CONST	SEGMENT
??_C@_0M@JOKPJKCG@EMOTION_JOY@ DB 'EMOTION_JOY', 00H	; `string'
CONST	ENDS
;	COMDAT ??_C@_0P@JAJBGKKI@EMOTION_BANTER@
CONST	SEGMENT
??_C@_0P@JAJBGKKI@EMOTION_BANTER@ DB 'EMOTION_BANTER', 00H ; `string'
CONST	ENDS
;	COMDAT ??_C@_0BA@MENCJFPL@EMOTION_CHEERUP@
CONST	SEGMENT
??_C@_0BA@MENCJFPL@EMOTION_CHEERUP@ DB 'EMOTION_CHEERUP', 00H ; `string'
CONST	ENDS
;	COMDAT ??_C@_0M@LGPBJELG@EMOTION_SHY@
CONST	SEGMENT
??_C@_0M@LGPBJELG@EMOTION_SHY@ DB 'EMOTION_SHY', 00H	; `string'
CONST	ENDS
;	COMDAT ??_C@_0M@EGEMMDCF@EMOTION_SAD@
CONST	SEGMENT
??_C@_0M@EGEMMDCF@EMOTION_SAD@ DB 'EMOTION_SAD', 00H	; `string'
CONST	ENDS
;	COMDAT ??_C@_0BD@FLNIBF@EMOTION_ATTRACTIVE@
CONST	SEGMENT
??_C@_0BD@FLNIBF@EMOTION_ATTRACTIVE@ DB 'EMOTION_ATTRACTIVE', 00H ; `string'
CONST	ENDS
;	COMDAT ??_C@_0O@DACEICMN@EMOTION_ANGRY@
CONST	SEGMENT
??_C@_0O@DACEICMN@EMOTION_ANGRY@ DB 'EMOTION_ANGRY', 00H ; `string'
CONST	ENDS
;	COMDAT ??_C@_0BA@JPGNEMIB@EMOTION_FORGIVE@
CONST	SEGMENT
??_C@_0BA@JPGNEMIB@EMOTION_FORGIVE@ DB 'EMOTION_FORGIVE', 00H ; `string'
CONST	ENDS
;	COMDAT ??_C@_0BH@FIIEKKHF@EMOTION_CONGRATULATION@
CONST	SEGMENT
??_C@_0BH@FIIEKKHF@EMOTION_CONGRATULATION@ DB 'EMOTION_CONGRATULATION', 00H ; `string'
CONST	ENDS
;	COMDAT ??_C@_0BA@ENPGPKID@EMOTION_DANCE_6@
CONST	SEGMENT
??_C@_0BA@ENPGPKID@EMOTION_DANCE_6@ DB 'EMOTION_DANCE_6', 00H ; `string'
CONST	ENDS
;	COMDAT ??_C@_0BA@GGNLKJEA@EMOTION_DANCE_5@
CONST	SEGMENT
??_C@_0BA@GGNLKJEA@EMOTION_DANCE_5@ DB 'EMOTION_DANCE_5', 00H ; `string'
CONST	ENDS
;	COMDAT ??_C@_0BA@HPMAJIAB@EMOTION_DANCE_4@
CONST	SEGMENT
??_C@_0BA@HPMAJIAB@EMOTION_DANCE_4@ DB 'EMOTION_DANCE_4', 00H ; `string'
CONST	ENDS
;	COMDAT ??_C@_0BA@DAIBAOMG@EMOTION_DANCE_3@
CONST	SEGMENT
??_C@_0BA@DAIBAOMG@EMOTION_DANCE_3@ DB 'EMOTION_DANCE_3', 00H ; `string'
CONST	ENDS
;	COMDAT ??_C@_0BA@CJJKDPIH@EMOTION_DANCE_2@
CONST	SEGMENT
??_C@_0BA@CJJKDPIH@EMOTION_DANCE_2@ DB 'EMOTION_DANCE_2', 00H ; `string'
CONST	ENDS
;	COMDAT ??_C@_0BA@CLHGMEE@EMOTION_DANCE_1@
CONST	SEGMENT
??_C@_0BA@CLHGMEE@EMOTION_DANCE_1@ DB 'EMOTION_DANCE_1', 00H ; `string'
CONST	ENDS
;	COMDAT ??_C@_0BB@OJOMLFJB@EMOTION_CHEERS_2@
CONST	SEGMENT
??_C@_0BB@OJOMLFJB@EMOTION_CHEERS_2@ DB 'EMOTION_CHEERS_2', 00H ; `string'
CONST	ENDS
;	COMDAT ??_C@_0BB@MCMBOGFC@EMOTION_CHEERS_1@
CONST	SEGMENT
??_C@_0BB@MCMBOGFC@EMOTION_CHEERS_1@ DB 'EMOTION_CHEERS_1', 00H ; `string'
CONST	ENDS
;	COMDAT ??_C@_0N@GFLIEIGE@EMOTION_CLAP@
CONST	SEGMENT
??_C@_0N@GFLIEIGE@EMOTION_CLAP@ DB 'EMOTION_CLAP', 00H	; `string'
CONST	ENDS
;	COMDAT ??_C@_0BO@CBJBDFJC@PARTY_EXP_DISTRIBUTION_PARITY@
CONST	SEGMENT
??_C@_0BO@CBJBDFJC@PARTY_EXP_DISTRIBUTION_PARITY@ DB 'PARTY_EXP_DISTRIBUT'
	DB	'ION_PARITY', 00H				; `string'
CONST	ENDS
;	COMDAT ??_C@_0BL@OELLICOI@PARTY_EXP_NON_DISTRIBUTION@
CONST	SEGMENT
??_C@_0BL@OELLICOI@PARTY_EXP_NON_DISTRIBUTION@ DB 'PARTY_EXP_NON_DISTRIBU'
	DB	'TION', 00H					; `string'
CONST	ENDS
;	COMDAT ??_C@_0BE@NDGMABKO@BLOCK_PARTY_REQUEST@
CONST	SEGMENT
??_C@_0BE@NDGMABKO@BLOCK_PARTY_REQUEST@ DB 'BLOCK_PARTY_REQUEST', 00H ; `string'
CONST	ENDS
;	COMDAT ??_C@_0N@IJGKBLJF@BLOCK_FRIEND@
CONST	SEGMENT
??_C@_0N@IJGKBLJF@BLOCK_FRIEND@ DB 'BLOCK_FRIEND', 00H	; `string'
CONST	ENDS
;	COMDAT ??_C@_0O@CFHKOIIK@BLOCK_WHISPER@
CONST	SEGMENT
??_C@_0O@CFHKOIIK@BLOCK_WHISPER@ DB 'BLOCK_WHISPER', 00H ; `string'
CONST	ENDS
;	COMDAT ??_C@_0M@EEMDCMKA@BLOCK_GUILD@
CONST	SEGMENT
??_C@_0M@EEMDCMKA@BLOCK_GUILD@ DB 'BLOCK_GUILD', 00H	; `string'
CONST	ENDS
;	COMDAT ??_C@_0M@KFDBGBIL@BLOCK_PARTY@
CONST	SEGMENT
??_C@_0M@KFDBGBIL@BLOCK_PARTY@ DB 'BLOCK_PARTY', 00H	; `string'
CONST	ENDS
;	COMDAT ??_C@_0P@CDMGAFPE@BLOCK_EXCHANGE@
CONST	SEGMENT
??_C@_0P@CDMGAFPE@BLOCK_EXCHANGE@ DB 'BLOCK_EXCHANGE', 00H ; `string'
CONST	ENDS
;	COMDAT ??_C@_0BA@OLCDKGDA@PK_MODE_MAX_NUM@
CONST	SEGMENT
??_C@_0BA@OLCDKGDA@PK_MODE_MAX_NUM@ DB 'PK_MODE_MAX_NUM', 00H ; `string'
CONST	ENDS
;	COMDAT ??_C@_0O@LBDADKLE@PK_MODE_GUILD@
CONST	SEGMENT
??_C@_0O@LBDADKLE@PK_MODE_GUILD@ DB 'PK_MODE_GUILD', 00H ; `string'
CONST	ENDS
;	COMDAT ??_C@_0BA@GHACPGHA@PK_MODE_PROTECT@
CONST	SEGMENT
??_C@_0BA@GHACPGHA@PK_MODE_PROTECT@ DB 'PK_MODE_PROTECT', 00H ; `string'
CONST	ENDS
;	COMDAT ??_C@_0N@DCANEGJG@PK_MODE_FREE@
CONST	SEGMENT
??_C@_0N@DCANEGJG@PK_MODE_FREE@ DB 'PK_MODE_FREE', 00H	; `string'
CONST	ENDS
;	COMDAT ??_C@_0BA@HNNGLCOB@PK_MODE_REVENGE@
CONST	SEGMENT
??_C@_0BA@HNNGLCOB@PK_MODE_REVENGE@ DB 'PK_MODE_REVENGE', 00H ; `string'
CONST	ENDS
;	COMDAT ??_C@_0O@BIPAMBIG@PK_MODE_PEACE@
CONST	SEGMENT
??_C@_0O@BIPAMBIG@PK_MODE_PEACE@ DB 'PK_MODE_PEACE', 00H ; `string'
CONST	ENDS
;	COMDAT ??_C@_0BD@POBHIINM@SKILL_INDEX_SUMMON@
CONST	SEGMENT
??_C@_0BD@POBHIINM@SKILL_INDEX_SUMMON@ DB 'SKILL_INDEX_SUMMON', 00H ; `string'
CONST	ENDS
;	COMDAT ??_C@_0BD@HOAGGFNA@SKILL_INDEX_RIDING@
CONST	SEGMENT
??_C@_0BD@HOAGGFNA@SKILL_INDEX_RIDING@ DB 'SKILL_INDEX_RIDING', 00H ; `string'
CONST	ENDS
;	COMDAT ??_C@_0BG@DMEIDEKO@SKILL_INDEX_POLYMORPH@
CONST	SEGMENT
??_C@_0BG@DMEIDEKO@SKILL_INDEX_POLYMORPH@ DB 'SKILL_INDEX_POLYMORPH', 00H ; `string'
CONST	ENDS
;	COMDAT ??_C@_0BG@FNIIDGCI@SKILL_INDEX_LANGUAGE3@
CONST	SEGMENT
??_C@_0BG@FNIIDGCI@SKILL_INDEX_LANGUAGE3@ DB 'SKILL_INDEX_LANGUAGE3', 00H ; `string'
CONST	ENDS
;	COMDAT ??_C@_0BG@EEJDAHGJ@SKILL_INDEX_LANGUAGE2@
CONST	SEGMENT
??_C@_0BG@EEJDAHGJ@SKILL_INDEX_LANGUAGE2@ DB 'SKILL_INDEX_LANGUAGE2', 00H ; `string'
CONST	ENDS
;	COMDAT ??_C@_0BG@GPLOFEKK@SKILL_INDEX_LANGUAGE1@
CONST	SEGMENT
??_C@_0BG@GPLOFEKK@SKILL_INDEX_LANGUAGE1@ DB 'SKILL_INDEX_LANGUAGE1', 00H ; `string'
CONST	ENDS
;	COMDAT ??_C@_0BC@HACNAMIK@SKILL_INDEX_COMBO@
CONST	SEGMENT
??_C@_0BC@HACNAMIK@SKILL_INDEX_COMBO@ DB 'SKILL_INDEX_COMBO', 00H ; `string'
CONST	ENDS
;	COMDAT ??_C@_0BD@IBJDJMEL@SKILL_INDEX_MAKING@
CONST	SEGMENT
??_C@_0BD@IBJDJMEL@SKILL_INDEX_MAKING@ DB 'SKILL_INDEX_MAKING', 00H ; `string'
CONST	ENDS
;	COMDAT ??_C@_0BD@KFCAJBFG@SKILL_INDEX_MINING@
CONST	SEGMENT
??_C@_0BD@KFCAJBFG@SKILL_INDEX_MINING@ DB 'SKILL_INDEX_MINING', 00H ; `string'
CONST	ENDS
;	COMDAT ??_C@_0BE@HANBCKAH@SKILL_INDEX_FISHING@
CONST	SEGMENT
??_C@_0BE@HANBCKAH@SKILL_INDEX_FISHING@ DB 'SKILL_INDEX_FISHING', 00H ; `string'
CONST	ENDS
;	COMDAT ??_C@_0BE@MNBFKLPI@SKILL_INDEX_TONGSOL@
CONST	SEGMENT
??_C@_0BE@MNBFKLPI@SKILL_INDEX_TONGSOL@ DB 'SKILL_INDEX_TONGSOL', 00H ; `string'
CONST	ENDS
;	COMDAT ??_C@_0BE@KCLJFDCO@PARTY_STATE_MAX_NUM@
CONST	SEGMENT
??_C@_0BE@KCLJFDCO@PARTY_STATE_MAX_NUM@ DB 'PARTY_STATE_MAX_NUM', 00H ; `string'
CONST	ENDS
;	COMDAT ??_C@_0BF@PAKJEMH@PARTY_STATE_DEFENDER@
CONST	SEGMENT
??_C@_0BF@PAKJEMH@PARTY_STATE_DEFENDER@ DB 'PARTY_STATE_DEFENDER', 00H ; `string'
CONST	ENDS
;	COMDAT ??_C@_0BG@LCNEBE@PARTY_STATE_BERSERKER@
CONST	SEGMENT
??_C@_0BG@LCNEBE@PARTY_STATE_BERSERKER@ DB 'PARTY_STATE_BERSERKER', 00H ; `string'
CONST	ENDS
;	COMDAT ??_C@_0BJ@EIPCPJKC@PARTY_STATE_SKILL_MASTER@
CONST	SEGMENT
??_C@_0BJ@EIPCPJKC@PARTY_STATE_SKILL_MASTER@ DB 'PARTY_STATE_SKILL_MASTER'
	DB	00H						; `string'
CONST	ENDS
;	COMDAT ??_C@_0BD@JJFBJLK@PARTY_STATE_BUFFER@
CONST	SEGMENT
??_C@_0BD@JJFBJLK@PARTY_STATE_BUFFER@ DB 'PARTY_STATE_BUFFER', 00H ; `string'
CONST	ENDS
;	COMDAT ??_C@_0BD@FHMGGDNP@PARTY_STATE_TANKER@
CONST	SEGMENT
??_C@_0BD@FHMGGDNP@PARTY_STATE_TANKER@ DB 'PARTY_STATE_TANKER', 00H ; `string'
CONST	ENDS
;	COMDAT ??_C@_0BF@DOKPPLCL@PARTY_STATE_ATTACKER@
CONST	SEGMENT
??_C@_0BF@DOKPPLCL@PARTY_STATE_ATTACKER@ DB 'PARTY_STATE_ATTACKER', 00H ; `string'
CONST	ENDS
;	COMDAT ??_C@_0BD@ECFFHEOH@PARTY_STATE_LEADER@
CONST	SEGMENT
??_C@_0BD@ECFFHEOH@PARTY_STATE_LEADER@ DB 'PARTY_STATE_LEADER', 00H ; `string'
CONST	ENDS
;	COMDAT ??_C@_0BD@PNFBHDHD@PARTY_STATE_NORMAL@
CONST	SEGMENT
??_C@_0BD@PNFBHDHD@PARTY_STATE_NORMAL@ DB 'PARTY_STATE_NORMAL', 00H ; `string'
CONST	ENDS
;	COMDAT ??_C@_0BA@IACJJMNA@DETACH_METIN_OK@
CONST	SEGMENT
??_C@_0BA@IACJJMNA@DETACH_METIN_OK@ DB 'DETACH_METIN_OK', 00H ; `string'
CONST	ENDS
;	COMDAT ??_C@_0BC@HGBPKPKG@DETACH_METIN_CANT@
CONST	SEGMENT
??_C@_0BC@HGBPKPKG@DETACH_METIN_CANT@ DB 'DETACH_METIN_CANT', 00H ; `string'
CONST	ENDS
;	COMDAT ??_C@_0CG@BCIFDNEM@ATTACH_METIN_CANT_ATTACH_TO_EQU@
CONST	SEGMENT
??_C@_0CG@BCIFDNEM@ATTACH_METIN_CANT_ATTACH_TO_EQU@ DB 'ATTACH_METIN_CANT'
	DB	'_ATTACH_TO_EQUIPMENT', 00H			; `string'
CONST	ENDS
;	COMDAT ??_C@_0CD@JNOPKOFJ@ATTACH_METIN_NOT_EXIST_GOLD_SOC@
CONST	SEGMENT
??_C@_0CD@JNOPKOFJ@ATTACH_METIN_NOT_EXIST_GOLD_SOC@ DB 'ATTACH_METIN_NOT_'
	DB	'EXIST_GOLD_SOCKET', 00H			; `string'
CONST	ENDS
;	COMDAT ??_C@_0CB@MAILDNNI@ATTACH_METIN_NO_MATCHABLE_SOCKE@
CONST	SEGMENT
??_C@_0CB@MAILDNNI@ATTACH_METIN_NO_MATCHABLE_SOCKE@ DB 'ATTACH_METIN_NO_M'
	DB	'ATCHABLE_SOCKET', 00H			; `string'
CONST	ENDS
;	COMDAT ??_C@_0CA@OFAKGLFM@ATTACH_METIN_NOT_MATCHABLE_ITEM@
CONST	SEGMENT
??_C@_0CA@OFAKGLFM@ATTACH_METIN_NOT_MATCHABLE_ITEM@ DB 'ATTACH_METIN_NOT_'
	DB	'MATCHABLE_ITEM', 00H			; `string'
CONST	ENDS
;	COMDAT ??_C@_0BA@HOJAFGB@ATTACH_METIN_OK@
CONST	SEGMENT
??_C@_0BA@HOJAFGB@ATTACH_METIN_OK@ DB 'ATTACH_METIN_OK', 00H ; `string'
CONST	ENDS
;	COMDAT ??_C@_0BC@CBCJMHP@ATTACH_METIN_CANT@
CONST	SEGMENT
??_C@_0BC@CBCJMHP@ATTACH_METIN_CANT@ DB 'ATTACH_METIN_CANT', 00H ; `string'
CONST	ENDS
;	COMDAT ??_C@_0BH@OENPPLJB@REFINE_CANT_REFINE_ROD@
CONST	SEGMENT
??_C@_0BH@OENPPLJB@REFINE_CANT_REFINE_ROD@ DB 'REFINE_CANT_REFINE_ROD', 00H ; `string'
CONST	ENDS
;	COMDAT ??_C@_0CG@LFLLDFCE@REFINE_CANT_REFINE_METIN_TO_EQU@
CONST	SEGMENT
??_C@_0CG@LFLLDFCE@REFINE_CANT_REFINE_METIN_TO_EQU@ DB 'REFINE_CANT_REFIN'
	DB	'E_METIN_TO_EQUIPMENT', 00H			; `string'
CONST	ENDS
;	COMDAT ??_C@_0BL@EILCCEPE@REFINE_NOT_NEXT_GRADE_ITEM@
CONST	SEGMENT
??_C@_0BL@EILCCEPE@REFINE_NOT_NEXT_GRADE_ITEM@ DB 'REFINE_NOT_NEXT_GRADE_'
	DB	'ITEM', 00H					; `string'
CONST	ENDS
;	COMDAT ??_C@_0BN@JPDLJDPD@REFINE_CANT_MAKE_SOCKET_ITEM@
CONST	SEGMENT
??_C@_0BN@JPDLJDPD@REFINE_CANT_MAKE_SOCKET_ITEM@ DB 'REFINE_CANT_MAKE_SOC'
	DB	'KET_ITEM', 00H				; `string'
CONST	ENDS
;	COMDAT ??_C@_0BN@FMBLMMOD@REFINE_NEED_MORE_GOOD_SCROLL@
CONST	SEGMENT
??_C@_0BN@FMBLMMOD@REFINE_NEED_MORE_GOOD_SCROLL@ DB 'REFINE_NEED_MORE_GOO'
	DB	'D_SCROLL', 00H				; `string'
CONST	ENDS
;	COMDAT ??_C@_0CA@CPLGFHBD@REFINE_ALREADY_MAX_SOCKET_COUNT@
CONST	SEGMENT
??_C@_0CA@CPLGFHBD@REFINE_ALREADY_MAX_SOCKET_COUNT@ DB 'REFINE_ALREADY_MA'
	DB	'X_SOCKET_COUNT', 00H			; `string'
CONST	ENDS
;	COMDAT ??_C@_09FFJEIDJG@REFINE_OK@
CONST	SEGMENT
??_C@_09FFJEIDJG@REFINE_OK@ DB 'REFINE_OK', 00H		; `string'
CONST	ENDS
;	COMDAT ??_C@_0M@FNDEJPGN@REFINE_CANT@
CONST	SEGMENT
??_C@_0M@FNDEJPGN@REFINE_CANT@ DB 'REFINE_CANT', 00H	; `string'
CONST	ENDS
;	COMDAT ??_C@_0BH@BPEONNLD@ATTRIBUTE_SLOT_MAX_NUM@
CONST	SEGMENT
??_C@_0BH@BPEONNLD@ATTRIBUTE_SLOT_MAX_NUM@ DB 'ATTRIBUTE_SLOT_MAX_NUM', 00H ; `string'
CONST	ENDS
;	COMDAT ??_C@_0BF@HOKBLOCN@METIN_SOCKET_MAX_NUM@
CONST	SEGMENT
??_C@_0BF@HOKBLOCN@METIN_SOCKET_MAX_NUM@ DB 'METIN_SOCKET_MAX_NUM', 00H ; `string'
CONST	ENDS
;	COMDAT ??_C@_0BH@EFCNALEJ@METIN_SOCKET_TYPE_GOLD@
CONST	SEGMENT
??_C@_0BH@EFCNALEJ@METIN_SOCKET_TYPE_GOLD@ DB 'METIN_SOCKET_TYPE_GOLD', 00H ; `string'
CONST	ENDS
;	COMDAT ??_C@_0BJ@PHGNNMMA@METIN_SOCKET_TYPE_SILVER@
CONST	SEGMENT
??_C@_0BJ@PHGNNMMA@METIN_SOCKET_TYPE_SILVER@ DB 'METIN_SOCKET_TYPE_SILVER'
	DB	00H						; `string'
CONST	ENDS
;	COMDAT ??_C@_0BH@FCKCIMBH@METIN_SOCKET_TYPE_NONE@
CONST	SEGMENT
??_C@_0BH@FCKCIMBH@METIN_SOCKET_TYPE_NONE@ DB 'METIN_SOCKET_TYPE_NONE', 00H ; `string'
CONST	ENDS
;	COMDAT ??_C@_0M@CHLINENA@EFFECT_PICK@
CONST	SEGMENT
??_C@_0M@CHLINENA@EFFECT_PICK@ DB 'EFFECT_PICK', 00H	; `string'
CONST	ENDS
;	COMDAT ??_C@_0BB@IOEKBHAE@SKILL_SLOT_COUNT@
CONST	SEGMENT
??_C@_0BB@IOEKBHAE@SKILL_SLOT_COUNT@ DB 'SKILL_SLOT_COUNT', 00H ; `string'
CONST	ENDS
;	COMDAT ??_C@_0L@HFAEBHHD@ITEM_MONEY@
CONST	SEGMENT
??_C@_0L@HFAEBHHD@ITEM_MONEY@ DB 'ITEM_MONEY', 00H	; `string'
CONST	ENDS
;	COMDAT ??_C@_06GKBINIEJ@GROUND@
CONST	SEGMENT
??_C@_06GKBINIEJ@GROUND@ DB 'GROUND', 00H		; `string'
CONST	ENDS
;	COMDAT ??_C@_0BG@FHEDCCNN@DRAGON_SOUL_INVENTORY@
CONST	SEGMENT
??_C@_0BG@FHEDCCNN@DRAGON_SOUL_INVENTORY@ DB 'DRAGON_SOUL_INVENTORY', 00H ; `string'
CONST	ENDS
;	COMDAT ??_C@_04JPFKNPOP@MALL@
CONST	SEGMENT
??_C@_04JPFKNPOP@MALL@ DB 'MALL', 00H			; `string'
CONST	ENDS
;	COMDAT ??_C@_07NCKDBJCB@SAFEBOX@
CONST	SEGMENT
??_C@_07NCKDBJCB@SAFEBOX@ DB 'SAFEBOX', 00H		; `string'
CONST	ENDS
;	COMDAT ??_C@_09GJGOMHMK@EQUIPMENT@
CONST	SEGMENT
??_C@_09GJGOMHMK@EQUIPMENT@ DB 'EQUIPMENT', 00H		; `string'
CONST	ENDS
;	COMDAT ??_C@_09NCAHJFFG@INVENTORY@
CONST	SEGMENT
??_C@_09NCAHJFFG@INVENTORY@ DB 'INVENTORY', 00H		; `string'
CONST	ENDS
;	COMDAT ??_C@_0BA@NKAFFIGF@RESERVED_WINDOW@
CONST	SEGMENT
??_C@_0BA@NKAFFIGF@RESERVED_WINDOW@ DB 'RESERVED_WINDOW', 00H ; `string'
CONST	ENDS
;	COMDAT ??_C@_0CA@FHKIPOOP@SLOT_TYPE_DRAGON_SOUL_INVENTORY@
CONST	SEGMENT
??_C@_0CA@FHKIPOOP@SLOT_TYPE_DRAGON_SOUL_INVENTORY@ DB 'SLOT_TYPE_DRAGON_'
	DB	'SOUL_INVENTORY', 00H			; `string'
CONST	ENDS
;	COMDAT ??_C@_0BC@LKMHLHKJ@SLOT_TYPE_EMOTION@
CONST	SEGMENT
??_C@_0BC@LKMHLHKJ@SLOT_TYPE_EMOTION@ DB 'SLOT_TYPE_EMOTION', 00H ; `string'
CONST	ENDS
;	COMDAT ??_C@_0P@OEAGANKI@SLOT_TYPE_MALL@
CONST	SEGMENT
??_C@_0P@OEAGANKI@SLOT_TYPE_MALL@ DB 'SLOT_TYPE_MALL', 00H ; `string'
CONST	ENDS
;	COMDAT ??_C@_0BH@MJAEADNE@SLOT_TYPE_PRIVATE_SHOP@
CONST	SEGMENT
??_C@_0BH@MJAEADNE@SLOT_TYPE_PRIVATE_SHOP@ DB 'SLOT_TYPE_PRIVATE_SHOP', 00H ; `string'
CONST	ENDS
;	COMDAT ??_C@_0BC@HGKFDIFN@SLOT_TYPE_SAFEBOX@
CONST	SEGMENT
??_C@_0BC@HGKFDIFN@SLOT_TYPE_SAFEBOX@ DB 'SLOT_TYPE_SAFEBOX', 00H ; `string'
CONST	ENDS
;	COMDAT ??_C@_0BF@CPPFMLHN@SLOT_TYPE_QUICK_SLOT@
CONST	SEGMENT
??_C@_0BF@CPPFMLHN@SLOT_TYPE_QUICK_SLOT@ DB 'SLOT_TYPE_QUICK_SLOT', 00H ; `string'
CONST	ENDS
;	COMDAT ??_C@_0BK@KJHLAGBH@SLOT_TYPE_EXCHANGE_TARGET@
CONST	SEGMENT
??_C@_0BK@KJHLAGBH@SLOT_TYPE_EXCHANGE_TARGET@ DB 'SLOT_TYPE_EXCHANGE_TARG'
	DB	'ET', 00H					; `string'
CONST	ENDS
;	COMDAT ??_C@_0BJ@DBNHPJKE@SLOT_TYPE_EXCHANGE_OWNER@
CONST	SEGMENT
??_C@_0BJ@DBNHPJKE@SLOT_TYPE_EXCHANGE_OWNER@ DB 'SLOT_TYPE_EXCHANGE_OWNER'
	DB	00H						; `string'
CONST	ENDS
;	COMDAT ??_C@_0P@KCOPIIMF@SLOT_TYPE_SHOP@
CONST	SEGMENT
??_C@_0P@KCOPIIMF@SLOT_TYPE_SHOP@ DB 'SLOT_TYPE_SHOP', 00H ; `string'
CONST	ENDS
;	COMDAT ??_C@_0BA@MAJHKGKG@SLOT_TYPE_SKILL@
CONST	SEGMENT
??_C@_0BA@MAJHKGKG@SLOT_TYPE_SKILL@ DB 'SLOT_TYPE_SKILL', 00H ; `string'
CONST	ENDS
;	COMDAT ??_C@_0BE@BNOEBHPE@SLOT_TYPE_INVENTORY@
CONST	SEGMENT
??_C@_0BE@BNOEBHPE@SLOT_TYPE_INVENTORY@ DB 'SLOT_TYPE_INVENTORY', 00H ; `string'
CONST	ENDS
;	COMDAT ??_C@_0P@JBDPGPGM@SLOT_TYPE_NONE@
CONST	SEGMENT
??_C@_0P@JBDPGPGM@SLOT_TYPE_NONE@ DB 'SLOT_TYPE_NONE', 00H ; `string'
CONST	ENDS
;	COMDAT ??_C@_08OMNIMJHC@MBT_LEFT@
CONST	SEGMENT
??_C@_08OMNIMJHC@MBT_LEFT@ DB 'MBT_LEFT', 00H		; `string'
CONST	ENDS
;	COMDAT ??_C@_09DBJMODBC@MBT_RIGHT@
CONST	SEGMENT
??_C@_09DBJMODBC@MBT_RIGHT@ DB 'MBT_RIGHT', 00H		; `string'
CONST	ENDS
;	COMDAT ??_C@_09BKODCCAJ@MBS_CLICK@
CONST	SEGMENT
??_C@_09BKODCCAJ@MBS_CLICK@ DB 'MBS_CLICK', 00H		; `string'
CONST	ENDS
;	COMDAT ??_C@_09JEJKPPEO@MBS_PRESS@
CONST	SEGMENT
??_C@_09JEJKPPEO@MBS_PRESS@ DB 'MBS_PRESS', 00H		; `string'
CONST	ENDS
;	COMDAT ??_C@_08CIEGLDP@MBF_AUTO@
CONST	SEGMENT
??_C@_08CIEGLDP@MBF_AUTO@ DB 'MBF_AUTO', 00H		; `string'
CONST	ENDS
;	COMDAT ??_C@_08BLLANCB@MBF_MOVE@
CONST	SEGMENT
??_C@_08BLLANCB@MBF_MOVE@ DB 'MBF_MOVE', 00H		; `string'
CONST	ENDS
;	COMDAT ??_C@_09FAENJFL@MBF_SMART@
CONST	SEGMENT
??_C@_09FAENJFL@MBF_SMART@ DB 'MBF_SMART', 00H		; `string'
CONST	ENDS
;	COMDAT ??_C@_0L@JHBFAMB@MBF_CAMERA@
CONST	SEGMENT
??_C@_0L@JHBFAMB@MBF_CAMERA@ DB 'MBF_CAMERA', 00H	; `string'
CONST	ENDS
;	COMDAT ??_C@_0L@MIGMJBKJ@MBF_ATTACK@
CONST	SEGMENT
??_C@_0L@MIGMJBKJ@MBF_ATTACK@ DB 'MBF_ATTACK', 00H	; `string'
CONST	ENDS
;	COMDAT ??_C@_09NLFDBCDH@MBF_SKILL@
CONST	SEGMENT
??_C@_09NLFDBCDH@MBF_SKILL@ DB 'MBF_SKILL', 00H		; `string'
CONST	ENDS
;	COMDAT ??_C@_0BJ@PAALBJCN@NEW_EQUIPMENT_SLOT_COUNT@
CONST	SEGMENT
??_C@_0BJ@PAALBJCN@NEW_EQUIPMENT_SLOT_COUNT@ DB 'NEW_EQUIPMENT_SLOT_COUNT'
	DB	00H						; `string'
CONST	ENDS
;	COMDAT ??_C@_0BJ@COKKCHPJ@NEW_EQUIPMENT_SLOT_START@
CONST	SEGMENT
??_C@_0BJ@COKKCHPJ@NEW_EQUIPMENT_SLOT_START@ DB 'NEW_EQUIPMENT_SLOT_START'
	DB	00H						; `string'
CONST	ENDS
;	COMDAT ??_C@_0BF@MADFLPAE@EQUIPMENT_PAGE_COUNT@
CONST	SEGMENT
??_C@_0BF@MADFLPAE@EQUIPMENT_PAGE_COUNT@ DB 'EQUIPMENT_PAGE_COUNT', 00H ; `string'
CONST	ENDS
;	COMDAT ??_C@_0BF@HJEBPPMM@EQUIPMENT_SLOT_START@
CONST	SEGMENT
??_C@_0BF@HJEBPPMM@EQUIPMENT_SLOT_START@ DB 'EQUIPMENT_SLOT_START', 00H ; `string'
CONST	ENDS
;	COMDAT ??_C@_0BF@LCFAAJPA@INVENTORY_SLOT_COUNT@
CONST	SEGMENT
??_C@_0BF@LCFAAJPA@INVENTORY_SLOT_COUNT@ DB 'INVENTORY_SLOT_COUNT', 00H ; `string'
CONST	ENDS
;	COMDAT ??_C@_0BF@NFIFHHOM@INVENTORY_PAGE_COUNT@
CONST	SEGMENT
??_C@_0BF@NFIFHHOM@INVENTORY_PAGE_COUNT@ DB 'INVENTORY_PAGE_COUNT', 00H ; `string'
CONST	ENDS
;	COMDAT ??_C@_0BE@CEBDMLGH@INVENTORY_PAGE_SIZE@
CONST	SEGMENT
??_C@_0BE@CEBDMLGH@INVENTORY_PAGE_SIZE@ DB 'INVENTORY_PAGE_SIZE', 00H ; `string'
CONST	ENDS
;	COMDAT ??_C@_0BB@HCMEALJK@CATEGORY_PASSIVE@
CONST	SEGMENT
??_C@_0BB@HCMEALJK@CATEGORY_PASSIVE@ DB 'CATEGORY_PASSIVE', 00H ; `string'
CONST	ENDS
;	COMDAT ??_C@_0BA@LCKKFCJM@CATEGORY_ACTIVE@
CONST	SEGMENT
??_C@_0BA@LCKKFCJM@CATEGORY_ACTIVE@ DB 'CATEGORY_ACTIVE', 00H ; `string'
CONST	ENDS
;	COMDAT ??_C@_0BL@DCIPLDCA@SKILL_GRADE_PERFECT_MASTER@
CONST	SEGMENT
??_C@_0BL@DCIPLDCA@SKILL_GRADE_PERFECT_MASTER@ DB 'SKILL_GRADE_PERFECT_MA'
	DB	'STER', 00H					; `string'
CONST	ENDS
;	COMDAT ??_C@_0BJ@CFOEIGCN@SKILL_GRADE_GRAND_MASTER@
CONST	SEGMENT
??_C@_0BJ@CFOEIGCN@SKILL_GRADE_GRAND_MASTER@ DB 'SKILL_GRADE_GRAND_MASTER'
	DB	00H						; `string'
CONST	ENDS
;	COMDAT ??_C@_0BD@HIHOAICI@SKILL_GRADE_MASTER@
CONST	SEGMENT
??_C@_0BD@HIHOAICI@SKILL_GRADE_MASTER@ DB 'SKILL_GRADE_MASTER', 00H ; `string'
CONST	ENDS
;	COMDAT ??_C@_0BD@LAKFNFGD@SKILL_GRADE_NORMAL@
CONST	SEGMENT
??_C@_0BD@LAKFNFGD@SKILL_GRADE_NORMAL@ DB 'SKILL_GRADE_NORMAL', 00H ; `string'
CONST	ENDS
;	COMDAT ??_C@_0BA@PIHNCBED@ENERGY_END_TIME@
CONST	SEGMENT
??_C@_0BA@PIHNCBED@ENERGY_END_TIME@ DB 'ENERGY_END_TIME', 00H ; `string'
CONST	ENDS
;	COMDAT ??_C@_06KOEJHMAL@ENERGY@
CONST	SEGMENT
??_C@_06KOEJHMAL@ENERGY@ DB 'ENERGY', 00H		; `string'
CONST	ENDS
;	COMDAT ??_C@_0BJ@LFKCHGEO@POINT_PC_BANG_DROP_BONUS@
CONST	SEGMENT
??_C@_0BJ@LFKCHGEO@POINT_PC_BANG_DROP_BONUS@ DB 'POINT_PC_BANG_DROP_BONUS'
	DB	00H						; `string'
CONST	ENDS
;	COMDAT ??_C@_0BI@BAKJJELL@POINT_PC_BANG_EXP_BONUS@
CONST	SEGMENT
??_C@_0BI@BAKJJELL@POINT_PC_BANG_EXP_BONUS@ DB 'POINT_PC_BANG_EXP_BONUS', 00H ; `string'
CONST	ENDS
;	COMDAT ??_C@_0BO@CEPNAEGB@POINT_NORMAL_HIT_DEFEND_BONUS@
CONST	SEGMENT
??_C@_0BO@CEPNAEGB@POINT_NORMAL_HIT_DEFEND_BONUS@ DB 'POINT_NORMAL_HIT_DE'
	DB	'FEND_BONUS', 00H				; `string'
CONST	ENDS
;	COMDAT ??_C@_0BJ@LPIAEILC@POINT_SKILL_DEFEND_BONUS@
CONST	SEGMENT
??_C@_0BJ@LPIAEILC@POINT_SKILL_DEFEND_BONUS@ DB 'POINT_SKILL_DEFEND_BONUS'
	DB	00H						; `string'
CONST	ENDS
;	COMDAT ??_C@_0BO@GNDIKOOF@POINT_NORMAL_HIT_DAMAGE_BONUS@
CONST	SEGMENT
??_C@_0BO@GNDIKOOF@POINT_NORMAL_HIT_DAMAGE_BONUS@ DB 'POINT_NORMAL_HIT_DA'
	DB	'MAGE_BONUS', 00H				; `string'
CONST	ENDS
;	COMDAT ??_C@_0BJ@PGEFOCDG@POINT_SKILL_DAMAGE_BONUS@
CONST	SEGMENT
??_C@_0BJ@PGEFOCDG@POINT_SKILL_DAMAGE_BONUS@ DB 'POINT_SKILL_DAMAGE_BONUS'
	DB	00H						; `string'
CONST	ENDS
;	COMDAT ??_C@_0BB@IHDKAICM@POINT_MAX_SP_PCT@
CONST	SEGMENT
??_C@_0BB@IHDKAICM@POINT_MAX_SP_PCT@ DB 'POINT_MAX_SP_PCT', 00H ; `string'
CONST	ENDS
;	COMDAT ??_C@_0BB@OCODMABI@POINT_MAX_HP_PCT@
CONST	SEGMENT
??_C@_0BB@OCODMABI@POINT_MAX_HP_PCT@ DB 'POINT_MAX_HP_PCT', 00H ; `string'
CONST	ENDS
;	COMDAT ??_C@_0BF@LPKHMJJF@POINT_MALL_GOLDBONUS@
CONST	SEGMENT
??_C@_0BF@LPKHMJJF@POINT_MALL_GOLDBONUS@ DB 'POINT_MALL_GOLDBONUS', 00H ; `string'
CONST	ENDS
;	COMDAT ??_C@_0BF@FCMHLHC@POINT_MALL_ITEMBONUS@
CONST	SEGMENT
??_C@_0BF@FCMHLHC@POINT_MALL_ITEMBONUS@ DB 'POINT_MALL_ITEMBONUS', 00H ; `string'
CONST	ENDS
;	COMDAT ??_C@_0BE@KNGAMOKN@POINT_MALL_EXPBONUS@
CONST	SEGMENT
??_C@_0BE@KNGAMOKN@POINT_MALL_EXPBONUS@ DB 'POINT_MALL_EXPBONUS', 00H ; `string'
CONST	ENDS
;	COMDAT ??_C@_0BE@FJKLFHOA@POINT_MALL_DEFBONUS@
CONST	SEGMENT
??_C@_0BE@FJKLFHOA@POINT_MALL_DEFBONUS@ DB 'POINT_MALL_DEFBONUS', 00H ; `string'
CONST	ENDS
;	COMDAT ??_C@_0BE@FDGMKOPN@POINT_MALL_ATTBONUS@
CONST	SEGMENT
??_C@_0BE@FDGMKOPN@POINT_MALL_ATTBONUS@ DB 'POINT_MALL_ATTBONUS', 00H ; `string'
CONST	ENDS
;	COMDAT ??_C@_0BE@BGNEFMNJ@POINT_PENETRATE_PCT@
CONST	SEGMENT
??_C@_0BE@BGNEFMNJ@POINT_PENETRATE_PCT@ DB 'POINT_PENETRATE_PCT', 00H ; `string'
CONST	ENDS
;	COMDAT ??_C@_0BD@CPEECKKP@POINT_CRITICAL_PCT@
CONST	SEGMENT
??_C@_0BD@CPEECKKP@POINT_CRITICAL_PCT@ DB 'POINT_CRITICAL_PCT', 00H ; `string'
CONST	ENDS
;	COMDAT ??_C@_07MEMMKJPK@MAX_NUM@
CONST	SEGMENT
??_C@_07MEMMKJPK@MAX_NUM@ DB 'MAX_NUM', 00H		; `string'
CONST	ENDS
;	COMDAT ??_C@_0P@GAAMLPFK@ATTACKER_BONUS@
CONST	SEGMENT
??_C@_0P@GAAMLPFK@ATTACKER_BONUS@ DB 'ATTACKER_BONUS', 00H ; `string'
CONST	ENDS
;	COMDAT ??_C@_0M@FGICENAO@SP_RECOVERY@
CONST	SEGMENT
??_C@_0M@FGICENAO@SP_RECOVERY@ DB 'SP_RECOVERY', 00H	; `string'
CONST	ENDS
;	COMDAT ??_C@_0M@CLAIAEPM@HP_RECOVERY@
CONST	SEGMENT
??_C@_0M@CLAIAEPM@HP_RECOVERY@ DB 'HP_RECOVERY', 00H	; `string'
CONST	ENDS
;	COMDAT ??_C@_0N@KHDDEEFG@BOW_DISTANCE@
CONST	SEGMENT
??_C@_0N@KHDDEEFG@BOW_DISTANCE@ DB 'BOW_DISTANCE', 00H	; `string'
CONST	ENDS
;	COMDAT ??_C@_08CKIIBBI@PLAYTIME@
CONST	SEGMENT
??_C@_08CKIIBBI@PLAYTIME@ DB 'PLAYTIME', 00H		; `string'
CONST	ENDS
;	COMDAT ??_C@_0M@HAFIBGFL@SKILL_HORSE@
CONST	SEGMENT
??_C@_0M@HAFIBGFL@SKILL_HORSE@ DB 'SKILL_HORSE', 00H	; `string'
CONST	ENDS
;	COMDAT ??_C@_0N@DNBJLBPA@SKILL_ACTIVE@
CONST	SEGMENT
??_C@_0N@DNBJLBPA@SKILL_ACTIVE@ DB 'SKILL_ACTIVE', 00H	; `string'
CONST	ENDS
;	COMDAT ??_C@_0O@JLNOPGFK@SKILL_SUPPORT@
CONST	SEGMENT
??_C@_0O@JLNOPGFK@SKILL_SUPPORT@ DB 'SKILL_SUPPORT', 00H ; `string'
CONST	ENDS
;	COMDAT ??_C@_0O@DGEPJFAK@SKILL_PASSIVE@
CONST	SEGMENT
??_C@_0O@DGEPJFAK@SKILL_PASSIVE@ DB 'SKILL_PASSIVE', 00H ; `string'
CONST	ENDS
;	COMDAT ??_C@_04KNIOFKKL@STAT@
CONST	SEGMENT
??_C@_04KNIOFKKL@STAT@ DB 'STAT', 00H			; `string'
CONST	ENDS
;	COMDAT ??_C@_0N@JIFCAIPA@EMPIRE_POINT@
CONST	SEGMENT
??_C@_0N@JIFCAIPA@EMPIRE_POINT@ DB 'EMPIRE_POINT', 00H	; `string'
CONST	ENDS
;	COMDAT ??_C@_07KGCDIDGL@MAG_DEF@
CONST	SEGMENT
??_C@_07KGCDIDGL@MAG_DEF@ DB 'MAG_DEF', 00H		; `string'
CONST	ENDS
;	COMDAT ??_C@_07PEONMKMN@MAG_ATT@
CONST	SEGMENT
??_C@_07PEONMKMN@MAG_ATT@ DB 'MAG_ATT', 00H		; `string'
CONST	ENDS
;	COMDAT ??_C@_0O@IOLIEEIE@CASTING_SPEED@
CONST	SEGMENT
??_C@_0O@IOLIEEIE@CASTING_SPEED@ DB 'CASTING_SPEED', 00H ; `string'
CONST	ENDS
;	COMDAT ??_C@_09DNFHINBC@DEF_BONUS@
CONST	SEGMENT
??_C@_09DNFHINBC@DEF_BONUS@ DB 'DEF_BONUS', 00H		; `string'
CONST	ENDS
;	COMDAT ??_C@_09KMPFCDFE@DEF_GRADE@
CONST	SEGMENT
??_C@_09KMPFCDFE@DEF_GRADE@ DB 'DEF_GRADE', 00H		; `string'
CONST	ENDS
;	COMDAT ??_C@_0N@KGGLAJKM@MOVING_SPEED@
CONST	SEGMENT
??_C@_0N@KGGLAJKM@MOVING_SPEED@ DB 'MOVING_SPEED', 00H	; `string'
CONST	ENDS
;	COMDAT ??_C@_0L@IPHIKIMB@EVADE_RATE@
CONST	SEGMENT
??_C@_0L@IPHIKIMB@EVADE_RATE@ DB 'EVADE_RATE', 00H	; `string'
CONST	ENDS
;	COMDAT ??_C@_09FOFLCGDC@ATT_BONUS@
CONST	SEGMENT
??_C@_09FOFLCGDC@ATT_BONUS@ DB 'ATT_BONUS', 00H		; `string'
CONST	ENDS
;	COMDAT ??_C@_09LKMFFHLI@ATT_SPEED@
CONST	SEGMENT
??_C@_09LKMFFHLI@ATT_SPEED@ DB 'ATT_SPEED', 00H		; `string'
CONST	ENDS
;	COMDAT ??_C@_0O@JAPECJBK@MAX_MAGIC_WEP@
CONST	SEGMENT
??_C@_0O@JAPECJBK@MAX_MAGIC_WEP@ DB 'MAX_MAGIC_WEP', 00H ; `string'
CONST	ENDS
;	COMDAT ??_C@_0O@CJNCLCGL@MIN_MAGIC_WEP@
CONST	SEGMENT
??_C@_0O@CJNCLCGL@MIN_MAGIC_WEP@ DB 'MIN_MAGIC_WEP', 00H ; `string'
CONST	ENDS
;	COMDAT ??_C@_07OPGIINPB@ATT_MAX@
CONST	SEGMENT
??_C@_07OPGIINPB@ATT_MAX@ DB 'ATT_MAX', 00H		; `string'
CONST	ENDS
;	COMDAT ??_C@_07PNODGJJO@ATT_MIN@
CONST	SEGMENT
??_C@_07PNODGJJO@ATT_MIN@ DB 'ATT_MIN', 00H		; `string'
CONST	ENDS
;	COMDAT ??_C@_09DIGJAPIG@ATT_POWER@
CONST	SEGMENT
??_C@_09DIGJAPIG@ATT_POWER@ DB 'ATT_POWER', 00H		; `string'
CONST	ENDS
;	COMDAT ??_C@_02NMFFPMLH@IQ@
CONST	SEGMENT
??_C@_02NMFFPMLH@IQ@ DB 'IQ', 00H			; `string'
CONST	ENDS
;	COMDAT ??_C@_02FEPNEKN@DX@
CONST	SEGMENT
??_C@_02FEPNEKN@DX@ DB 'DX', 00H			; `string'
CONST	ENDS
;	COMDAT ??_C@_02KAOAGCMF@HT@
CONST	SEGMENT
??_C@_02KAOAGCMF@HT@ DB 'HT', 00H			; `string'
CONST	ENDS
;	COMDAT ??_C@_02LAJDCOFE@ST@
CONST	SEGMENT
??_C@_02LAJDCOFE@ST@ DB 'ST', 00H			; `string'
CONST	ENDS
;	COMDAT ??_C@_03BIHMGKIG@ELK@
CONST	SEGMENT
??_C@_03BIHMGKIG@ELK@ DB 'ELK', 00H			; `string'
CONST	ENDS
;	COMDAT ??_C@_0M@CHCGLEDD@MAX_STAMINA@
CONST	SEGMENT
??_C@_0M@CHCGLEDD@MAX_STAMINA@ DB 'MAX_STAMINA', 00H	; `string'
CONST	ENDS
;	COMDAT ??_C@_07IHPDJFBP@STAMINA@
CONST	SEGMENT
??_C@_07IHPDJFBP@STAMINA@ DB 'STAMINA', 00H		; `string'
CONST	ENDS
;	COMDAT ??_C@_06MMAHLLLC@MAX_SP@
CONST	SEGMENT
??_C@_06MMAHLLLC@MAX_SP@ DB 'MAX_SP', 00H		; `string'
CONST	ENDS
;	COMDAT ??_C@_02NEPPOLFA@SP@
CONST	SEGMENT
??_C@_02NEPPOLFA@SP@ DB 'SP', 00H			; `string'
CONST	ENDS
;	COMDAT ??_C@_06NMHEPHCD@MAX_HP@
CONST	SEGMENT
??_C@_06NMHEPHCD@MAX_HP@ DB 'MAX_HP', 00H		; `string'
CONST	ENDS
;	COMDAT ??_C@_02MEIMKHMB@HP@
CONST	SEGMENT
??_C@_02MEIMKHMB@HP@ DB 'HP', 00H			; `string'
CONST	ENDS
;	COMDAT ??_C@_08CHGDMADF@NEXT_EXP@
CONST	SEGMENT
??_C@_08CHGDMADF@NEXT_EXP@ DB 'NEXT_EXP', 00H		; `string'
CONST	ENDS
;	COMDAT ??_C@_03KKGFKKLA@EXP@
CONST	SEGMENT
??_C@_03KKGFKKLA@EXP@ DB 'EXP', 00H			; `string'
CONST	ENDS
;	COMDAT ??_C@_05FHIHOFEA@VOICE@
CONST	SEGMENT
??_C@_05FHIHOFEA@VOICE@ DB 'VOICE', 00H			; `string'
CONST	ENDS
;	COMDAT ??_C@_05GCEPFMCO@LEVEL@
CONST	SEGMENT
??_C@_05GCEPFMCO@LEVEL@ DB 'LEVEL', 00H			; `string'
CONST	ENDS
;	COMDAT ??_C@_06BALNJMNP@player@
CONST	SEGMENT
??_C@_06BALNJMNP@player@ DB 'player', 00H		; `string'
CONST	ENDS
;	COMDAT ??_C@_0BF@PLGNHJMH@SendDragonSoulRefine@
CONST	SEGMENT
??_C@_0BF@PLGNHJMH@SendDragonSoulRefine@ DB 'SendDragonSoulRefine', 00H ; `string'
CONST	ENDS
;	COMDAT ??_C@_0BE@IOMKCPHN@SlotTypeToInvenType@
CONST	SEGMENT
??_C@_0BE@IOMKCPHN@SlotTypeToInvenType@ DB 'SlotTypeToInvenType', 00H ; `string'
CONST	ENDS
;	COMDAT ??_C@_0M@DGFCHEAA@GetItemLink@
CONST	SEGMENT
??_C@_0M@DGFCHEAA@GetItemLink@ DB 'GetItemLink', 00H	; `string'
CONST	ENDS
;	COMDAT ??_C@_0N@MABOHHMK@SetItemCount@
CONST	SEGMENT
??_C@_0N@MABOHHMK@SetItemCount@ DB 'SetItemCount', 00H	; `string'
CONST	ENDS
;	COMDAT ??_C@_0BB@KPGENMF@SetItemAttribute@
CONST	SEGMENT
??_C@_0BB@KPGENMF@SetItemAttribute@ DB 'SetItemAttribute', 00H ; `string'
CONST	ENDS
;	COMDAT ??_C@_0BD@GLMLJBGM@SetItemMetinSocket@
CONST	SEGMENT
??_C@_0BD@GLMLJBGM@SetItemMetinSocket@ DB 'SetItemMetinSocket', 00H ; `string'
CONST	ENDS
;	COMDAT ??_C@_0M@CHNGAPIB@SetItemData@
CONST	SEGMENT
??_C@_0M@CHNGAPIB@SetItemData@ DB 'SetItemData', 00H	; `string'
CONST	ENDS
;	COMDAT ??_C@_0N@MEKPPHGC@GetTargetVID@
CONST	SEGMENT
??_C@_0N@MEKPPHGC@GetTargetVID@ DB 'GetTargetVID', 00H	; `string'
CONST	ENDS
;	COMDAT ??_C@_0BB@DJKKOCLB@ToggleLevelLimit@
CONST	SEGMENT
??_C@_0BB@DJKKOCLB@ToggleLevelLimit@ DB 'ToggleLevelLimit', 00H ; `string'
CONST	ENDS
;	COMDAT ??_C@_0P@ILOOLMDH@ToggleCoolTime@
CONST	SEGMENT
??_C@_0P@ILOOLMDH@ToggleCoolTime@ DB 'ToggleCoolTime', 00H ; `string'
CONST	ENDS
;	COMDAT ??_C@_0BJ@CFCMHNHB@SetWeaponAttackBonusFlag@
CONST	SEGMENT
??_C@_0BJ@CFCMHNHB@SetWeaponAttackBonusFlag@ DB 'SetWeaponAttackBonusFlag'
	DB	00H						; `string'
CONST	ENDS
;	COMDAT ??_C@_0BE@FELKHKJF@GetEmotionIconImage@
CONST	SEGMENT
??_C@_0BE@FELKHKJF@GetEmotionIconImage@ DB 'GetEmotionIconImage', 00H ; `string'
CONST	ENDS
;	COMDAT ??_C@_0BE@PMDABIKP@RegisterEmotionIcon@
CONST	SEGMENT
??_C@_0BE@PMDABIKP@RegisterEmotionIcon@ DB 'RegisterEmotionIcon', 00H ; `string'
CONST	ENDS
;	COMDAT ??_C@_0BF@CLGCEOLO@HasMobilePhoneNumber@
CONST	SEGMENT
??_C@_0BF@CLGCEOLO@HasMobilePhoneNumber@ DB 'HasMobilePhoneNumber', 00H ; `string'
CONST	ENDS
;	COMDAT ??_C@_09IMMFEEHK@GetPKMode@
CONST	SEGMENT
??_C@_09IMMFEEHK@GetPKMode@ DB 'GetPKMode', 00H		; `string'
CONST	ENDS
;	COMDAT ??_C@_09DMPBEJCG@ExitParty@
CONST	SEGMENT
??_C@_09DMPBEJCG@ExitParty@ DB 'ExitParty', 00H		; `string'
CONST	ENDS
;	COMDAT ??_C@_0BC@DGCJFOHN@RemovePartyMember@
CONST	SEGMENT
??_C@_0BC@DGCJFOHN@RemovePartyMember@ DB 'RemovePartyMember', 00H ; `string'
CONST	ENDS
;	COMDAT ??_C@_0BG@EEFAFMJC@GetPartyMemberAffects@
CONST	SEGMENT
??_C@_0BG@EEFAFMJC@GetPartyMemberAffects@ DB 'GetPartyMemberAffects', 00H ; `string'
CONST	ENDS
;	COMDAT ??_C@_0BE@HKIJMBKK@GetPartyMemberState@
CONST	SEGMENT
??_C@_0BE@HKIJMBKK@GetPartyMemberState@ DB 'GetPartyMemberState', 00H ; `string'
CONST	ENDS
;	COMDAT ??_C@_0BL@EPAFEFHI@GetPartyMemberHPPercentage@
CONST	SEGMENT
??_C@_0BL@EPAFEFHI@GetPartyMemberHPPercentage@ DB 'GetPartyMemberHPPercen'
	DB	'tage', 00H					; `string'
CONST	ENDS
;	COMDAT ??_C@_0BD@HGKJMFNK@IsPartyLeaderByPID@
CONST	SEGMENT
??_C@_0BD@HGKJMFNK@IsPartyLeaderByPID@ DB 'IsPartyLeaderByPID', 00H ; `string'
CONST	ENDS
;	COMDAT ??_C@_0O@BPMJGNAC@IsPartyLeader@
CONST	SEGMENT
??_C@_0O@BPMJGNAC@IsPartyLeader@ DB 'IsPartyLeader', 00H ; `string'
CONST	ENDS
;	COMDAT ??_C@_0O@FJCFNEGL@IsPartyMember@
CONST	SEGMENT
??_C@_0O@FJCFNEGL@IsPartyMember@ DB 'IsPartyMember', 00H ; `string'
CONST	ENDS
;	COMDAT ??_C@_05MDNHABIA@Clear@
CONST	SEGMENT
??_C@_05MDNHABIA@Clear@ DB 'Clear', 00H			; `string'
CONST	ENDS
;	COMDAT ??_C@_06EPLDPNDB@Render@
CONST	SEGMENT
??_C@_06EPLDPNDB@Render@ DB 'Render', 00H		; `string'
CONST	ENDS
;	COMDAT ??_C@_06LMAGPFNF@Update@
CONST	SEGMENT
??_C@_06LMAGPFNF@Update@ DB 'Update', 00H		; `string'
CONST	ENDS
;	COMDAT ??_C@_0BC@HAEJEFBP@OpenCharacterMenu@
CONST	SEGMENT
??_C@_0BC@HAEJEFBP@OpenCharacterMenu@ DB 'OpenCharacterMenu', 00H ; `string'
CONST	ENDS
;	COMDAT ??_C@_09EECGCJDE@SetTarget@
CONST	SEGMENT
??_C@_09EECGCJDE@SetTarget@ DB 'SetTarget', 00H		; `string'
CONST	ENDS
;	COMDAT ??_C@_0M@DPCEEMCG@ClearTarget@
CONST	SEGMENT
??_C@_0M@DPCEEMCG@ClearTarget@ DB 'ClearTarget', 00H	; `string'
CONST	ENDS
;	COMDAT ??_C@_0BE@ELNKJPMC@IsRefineGradeScroll@
CONST	SEGMENT
??_C@_0BE@ELNKJPMC@IsRefineGradeScroll@ DB 'IsRefineGradeScroll', 00H ; `string'
CONST	ENDS
;	COMDAT ??_C@_0P@BLOGPKFO@CanAttachMetin@
CONST	SEGMENT
??_C@_0P@BLOGPKFO@CanAttachMetin@ DB 'CanAttachMetin', 00H ; `string'
CONST	ENDS
;	COMDAT ??_C@_09FHINBOHC@CanUnlock@
CONST	SEGMENT
??_C@_09FHINBOHC@CanUnlock@ DB 'CanUnlock', 00H		; `string'
CONST	ENDS
;	COMDAT ??_C@_09GHIBIBHI@CanDetach@
CONST	SEGMENT
??_C@_09GHIBIBHI@CanDetach@ DB 'CanDetach', 00H		; `string'
CONST	ENDS
;	COMDAT ??_C@_09BGNCJJP@CanRefine@
CONST	SEGMENT
??_C@_09BGNCJJP@CanRefine@ DB 'CanRefine', 00H		; `string'
CONST	ENDS
;	COMDAT ??_C@_0N@DGHEMMKN@GetItemGrade@
CONST	SEGMENT
??_C@_0N@DGHEMMKN@GetItemGrade@ DB 'GetItemGrade', 00H	; `string'
CONST	ENDS
;	COMDAT ??_C@_0BN@DKGNHJIB@IsAvailableBeltInventoryCell@
CONST	SEGMENT
??_C@_0BN@DKGNHJIB@IsAvailableBeltInventoryCell@ DB 'IsAvailableBeltInven'
	DB	'toryCell', 00H				; `string'
CONST	ENDS
;	COMDAT ??_C@_0BA@OBALOJLG@IsEquippingBelt@
CONST	SEGMENT
??_C@_0BA@OBALOJLG@IsEquippingBelt@ DB 'IsEquippingBelt', 00H ; `string'
CONST	ENDS
;	COMDAT ??_C@_0BE@HECMLJG@IsBeltInventorySlot@
CONST	SEGMENT
??_C@_0BE@HECMLJG@IsBeltInventorySlot@ DB 'IsBeltInventorySlot', 00H ; `string'
CONST	ENDS
;	COMDAT ??_C@_0BC@DCFDMADN@IsOpenPrivateShop@
CONST	SEGMENT
??_C@_0BC@DCFDMADN@IsOpenPrivateShop@ DB 'IsOpenPrivateShop', 00H ; `string'
CONST	ENDS
;	COMDAT ??_C@_0P@LAJFBPPH@IsValuableItem@
CONST	SEGMENT
??_C@_0P@LAJFBPPH@IsValuableItem@ DB 'IsValuableItem', 00H ; `string'
CONST	ENDS
;	COMDAT ??_C@_0O@KCAGNEAI@IsCostumeSlot@
CONST	SEGMENT
??_C@_0O@KCAGNEAI@IsCostumeSlot@ DB 'IsCostumeSlot', 00H ; `string'
CONST	ENDS
;	COMDAT ??_C@_0BC@DDCIGDKO@IsDSEquipmentSlot@
CONST	SEGMENT
??_C@_0BC@DDCIGDKO@IsDSEquipmentSlot@ DB 'IsDSEquipmentSlot', 00H ; `string'
CONST	ENDS
;	COMDAT ??_C@_0BA@EMKHGGAL@IsEquipmentSlot@
CONST	SEGMENT
??_C@_0BA@EMKHGGAL@IsEquipmentSlot@ DB 'IsEquipmentSlot', 00H ; `string'
CONST	ENDS
;	COMDAT ??_C@_06NOPKEHAK@isItem@
CONST	SEGMENT
??_C@_06NOPKEHAK@isItem@ DB 'isItem', 00H		; `string'
CONST	ENDS
;	COMDAT ??_C@_0BH@JNCIKJMC@RemoveQuickSlotByValue@
CONST	SEGMENT
??_C@_0BH@JNCIKJMC@RemoveQuickSlotByValue@ DB 'RemoveQuickSlotByValue', 00H ; `string'
CONST	ENDS
;	COMDAT ??_C@_0BD@ECGPDHPA@GetGlobalQuickSlot@
CONST	SEGMENT
??_C@_0BD@ECGPDHPA@GetGlobalQuickSlot@ DB 'GetGlobalQuickSlot', 00H ; `string'
CONST	ENDS
;	COMDAT ??_C@_0BC@LNKMMBDG@GetLocalQuickSlot@
CONST	SEGMENT
??_C@_0BC@LNKMMBDG@GetLocalQuickSlot@ DB 'GetLocalQuickSlot', 00H ; `string'
CONST	ENDS
;	COMDAT ??_C@_0N@KPHBLMNM@SetQuickPage@
CONST	SEGMENT
??_C@_0N@KPHBLMNM@SetQuickPage@ DB 'SetQuickPage', 00H	; `string'
CONST	ENDS
;	COMDAT ??_C@_0N@NLMPHAJA@GetQuickPage@
CONST	SEGMENT
??_C@_0N@NLMPHAJA@GetQuickPage@ DB 'GetQuickPage', 00H	; `string'
CONST	ENDS
;	COMDAT ??_C@_0CK@GNGKFIDB@LocalQuickSlotIndexToGlobalQuic@
CONST	SEGMENT
??_C@_0CK@GNGKFIDB@LocalQuickSlotIndexToGlobalQuic@ DB 'LocalQuickSlotInd'
	DB	'exToGlobalQuickSlotIndex', 00H		; `string'
CONST	ENDS
;	COMDAT ??_C@_0BJ@IBBGPDPH@RequestUseLocalQuickSlot@
CONST	SEGMENT
??_C@_0BJ@IBBGPDPH@RequestUseLocalQuickSlot@ DB 'RequestUseLocalQuickSlot'
	DB	00H						; `string'
CONST	ENDS
;	COMDAT ??_C@_0CL@IEMBKGLN@RequestMoveGlobalQuickSlotToLoc@
CONST	SEGMENT
??_C@_0CL@IEMBKGLN@RequestMoveGlobalQuickSlotToLoc@ DB 'RequestMoveGlobal'
	DB	'QuickSlotToLocalQuickSlot', 00H		; `string'
CONST	ENDS
;	COMDAT ??_C@_0BN@NACLJDMA@RequestDeleteGlobalQuickSlot@
CONST	SEGMENT
??_C@_0BN@NACLJDMA@RequestDeleteGlobalQuickSlot@ DB 'RequestDeleteGlobalQ'
	DB	'uickSlot', 00H				; `string'
CONST	ENDS
;	COMDAT ??_C@_0CA@JMFCJJPL@RequestAddToEmptyLocalQuickSlot@
CONST	SEGMENT
??_C@_0CA@JMFCJJPL@RequestAddToEmptyLocalQuickSlot@ DB 'RequestAddToEmpty'
	DB	'LocalQuickSlot', 00H			; `string'
CONST	ENDS
;	COMDAT ??_C@_0BJ@DNLGAMEO@RequestAddLocalQuickSlot@
CONST	SEGMENT
??_C@_0BJ@DNLGAMEO@RequestAddLocalQuickSlot@ DB 'RequestAddLocalQuickSlot'
	DB	00H						; `string'
CONST	ENDS
;	COMDAT ??_C@_0BB@LANDCIKG@GetAlignmentData@
CONST	SEGMENT
??_C@_0BB@LANDCIKG@GetAlignmentData@ DB 'GetAlignmentData', 00H ; `string'
CONST	ENDS
;	COMDAT ??_C@_0N@CECGOPDG@GetGuildName@
CONST	SEGMENT
??_C@_0N@CECGOPDG@GetGuildName@ DB 'GetGuildName', 00H	; `string'
CONST	ENDS
;	COMDAT ??_C@_0L@EAKBLDCO@GetGuildID@
CONST	SEGMENT
??_C@_0L@EAKBLDCO@GetGuildID@ DB 'GetGuildID', 00H	; `string'
CONST	ENDS
;	COMDAT ??_C@_08OAJFGNBC@GetMoney@
CONST	SEGMENT
??_C@_08OAJFGNBC@GetMoney@ DB 'GetMoney', 00H		; `string'
CONST	ENDS
;	COMDAT ??_C@_06NMFKJLLH@GetElk@
CONST	SEGMENT
??_C@_06NMFKJLLH@GetElk@ DB 'GetElk', 00H		; `string'
CONST	ENDS
;	COMDAT ??_C@_09OEBBKEAG@SetStatus@
CONST	SEGMENT
??_C@_09OEBBKEAG@SetStatus@ DB 'SetStatus', 00H		; `string'
CONST	ENDS
;	COMDAT ??_C@_09MKFEIFJE@GetStatus@
CONST	SEGMENT
??_C@_09MKFEIFJE@GetStatus@ DB 'GetStatus', 00H		; `string'
CONST	ENDS
;	COMDAT ??_C@_06MDIKDJMD@GetEXP@
CONST	SEGMENT
??_C@_06MDIKDJMD@GetEXP@ DB 'GetEXP', 00H		; `string'
CONST	ENDS
;	COMDAT ??_C@_0BI@JIGEMOFF@AffectIndexToSkillIndex@
CONST	SEGMENT
??_C@_0BI@JIGEMOFF@AffectIndexToSkillIndex@ DB 'AffectIndexToSkillIndex', 00H ; `string'
CONST	ENDS
;	COMDAT ??_C@_0O@HHBOBCLE@UseGuildSkill@
CONST	SEGMENT
??_C@_0O@HHBOBCLE@UseGuildSkill@ DB 'UseGuildSkill', 00H ; `string'
CONST	ENDS
;	COMDAT ??_C@_0O@IAPCJJAC@IsSkillActive@
CONST	SEGMENT
??_C@_0O@IAPCJJAC@IsSkillActive@ DB 'IsSkillActive', 00H ; `string'
CONST	ENDS
;	COMDAT ??_C@_0BB@CNGGKNGL@GetSkillCoolTime@
CONST	SEGMENT
??_C@_0BB@CNGGKNGL@GetSkillCoolTime@ DB 'GetSkillCoolTime', 00H ; `string'
CONST	ENDS
;	COMDAT ??_C@_0BA@FOPKKJJD@IsSkillCoolTime@
CONST	SEGMENT
??_C@_0BA@FOPKKJJD@IsSkillCoolTime@ DB 'IsSkillCoolTime', 00H ; `string'
CONST	ENDS
;	COMDAT ??_C@_0M@DGCMFHDN@SetPlayTime@
CONST	SEGMENT
??_C@_0M@DGCMFHDN@SetPlayTime@ DB 'SetPlayTime', 00H	; `string'
CONST	ENDS
;	COMDAT ??_C@_0M@DJDCIBLO@GetPlayTime@
CONST	SEGMENT
??_C@_0M@DJDCIBLO@GetPlayTime@ DB 'GetPlayTime', 00H	; `string'
CONST	ENDS
;	COMDAT ??_C@_07GDOKCBKB@GetRace@
CONST	SEGMENT
??_C@_07GDOKCBKB@GetRace@ DB 'GetRace', 00H		; `string'
CONST	ENDS
;	COMDAT ??_C@_06FHLNIOPB@GetJob@
CONST	SEGMENT
??_C@_06FHLNIOPB@GetJob@ DB 'GetJob', 00H		; `string'
CONST	ENDS
;	COMDAT ??_C@_07MMGEHGCI@GetName@
CONST	SEGMENT
??_C@_07MMGEHGCI@GetName@ DB 'GetName', 00H		; `string'
CONST	ENDS
;	COMDAT ??_C@_0BE@DBIFLBAC@SendClickItemPacket@
CONST	SEGMENT
??_C@_0BE@DBIFLBAC@SendClickItemPacket@ DB 'SendClickItemPacket', 00H ; `string'
CONST	ENDS
;	COMDAT ??_C@_08MHJANHDM@MoveItem@
CONST	SEGMENT
??_C@_08MHJANHDM@MoveItem@ DB 'MoveItem', 00H		; `string'
CONST	ENDS
;	COMDAT ??_C@_0BC@OKNBBEMG@GetISellItemPrice@
CONST	SEGMENT
??_C@_0BC@OKNBBEMG@GetISellItemPrice@ DB 'GetISellItemPrice', 00H ; `string'
CONST	ENDS
;	COMDAT ??_C@_0BB@GOKPPDHH@GetItemAttribute@
CONST	SEGMENT
??_C@_0BB@GOKPPDHH@GetItemAttribute@ DB 'GetItemAttribute', 00H ; `string'
CONST	ENDS
;	COMDAT ??_C@_0BD@JBOBKHIE@GetItemMetinSocket@
CONST	SEGMENT
??_C@_0BD@JBOBKHIE@GetItemMetinSocket@ DB 'GetItemMetinSocket', 00H ; `string'
CONST	ENDS
;	COMDAT ??_C@_0BD@DBLILMFK@GetItemCountByVnum@
CONST	SEGMENT
??_C@_0BD@DBLILMFK@GetItemCountByVnum@ DB 'GetItemCountByVnum', 00H ; `string'
CONST	ENDS
;	COMDAT ??_C@_0N@LEKALLIG@GetItemCount@
CONST	SEGMENT
??_C@_0N@LEKALLIG@GetItemCount@ DB 'GetItemCount', 00H	; `string'
CONST	ENDS
;	COMDAT ??_C@_0N@DMCGDNGF@GetItemFlags@
CONST	SEGMENT
??_C@_0N@DMCGDNGF@GetItemFlags@ DB 'GetItemFlags', 00H	; `string'
CONST	ENDS
;	COMDAT ??_C@_0N@GABOCBEH@GetItemIndex@
CONST	SEGMENT
??_C@_0N@GABOCBEH@GetItemIndex@ DB 'GetItemIndex', 00H	; `string'
CONST	ENDS
;	COMDAT ??_C@_0P@MJOJKOJJ@ClearSkillDict@
CONST	SEGMENT
??_C@_0P@MJOJKOJJ@ClearSkillDict@ DB 'ClearSkillDict', 00H ; `string'
CONST	ENDS
;	COMDAT ??_C@_0BN@BPJDEKED@ChangeCurrentSkillNumberOnly@
CONST	SEGMENT
??_C@_0BN@BPJDEKED@ChangeCurrentSkillNumberOnly@ DB 'ChangeCurrentSkillNu'
	DB	'mberOnly', 00H				; `string'
CONST	ENDS
;	COMDAT ??_C@_0P@IGNHDBHH@ClickSkillSlot@
CONST	SEGMENT
??_C@_0P@IGNHDBHH@ClickSkillSlot@ DB 'ClickSkillSlot', 00H ; `string'
CONST	ENDS
;	COMDAT ??_C@_0CA@JHGONPGM@GetSkillNextEfficientPercentage@
CONST	SEGMENT
??_C@_0CA@JHGONPGM@GetSkillNextEfficientPercentage@ DB 'GetSkillNextEffic'
	DB	'ientPercentage', 00H			; `string'
CONST	ENDS
;	COMDAT ??_C@_0CD@EFGGIKHI@GetSkillCurrentEfficientPercent@
CONST	SEGMENT
??_C@_0CD@EFGGIKHI@GetSkillCurrentEfficientPercent@ DB 'GetSkillCurrentEf'
	DB	'ficientPercentage', 00H			; `string'
CONST	ENDS
;	COMDAT ??_C@_0O@CNCBAIPN@GetSkillLevel@
CONST	SEGMENT
??_C@_0O@CNCBAIPN@GetSkillLevel@ DB 'GetSkillLevel', 00H ; `string'
CONST	ENDS
;	COMDAT ??_C@_0O@IIOIANPE@GetSkillGrade@
CONST	SEGMENT
??_C@_0O@IIOIANPE@GetSkillGrade@ DB 'GetSkillGrade', 00H ; `string'
CONST	ENDS
;	COMDAT ??_C@_0BC@HNJMANI@GetSkillSlotIndex@
CONST	SEGMENT
??_C@_0BC@HNJMANI@GetSkillSlotIndex@ DB 'GetSkillSlotIndex', 00H ; `string'
CONST	ENDS
;	COMDAT ??_C@_0O@NOICOABO@GetSkillIndex@
CONST	SEGMENT
??_C@_0O@NOICOABO@GetSkillIndex@ DB 'GetSkillIndex', 00H ; `string'
CONST	ENDS
;	COMDAT ??_C@_08HIFGFOGG@SetSkill@
CONST	SEGMENT
??_C@_08HIFGFOGG@SetSkill@ DB 'SetSkill', 00H		; `string'
CONST	ENDS
;	COMDAT ??_C@_0BD@DPHLFGPP@SetQuickCameraMode@
CONST	SEGMENT
??_C@_0BD@DPHLFGPP@SetQuickCameraMode@ DB 'SetQuickCameraMode', 00H ; `string'
CONST	ENDS
;	COMDAT ??_C@_0BE@MCFGJOPA@ResetCameraRotation@
CONST	SEGMENT
??_C@_0BE@MCFGJOPA@ResetCameraRotation@ DB 'ResetCameraRotation', 00H ; `string'
CONST	ENDS
;	COMDAT ??_C@_0BA@JEOKFDLP@EndMouseWalking@
CONST	SEGMENT
??_C@_0BA@JEOKFDLP@EndMouseWalking@ DB 'EndMouseWalking', 00H ; `string'
CONST	ENDS
;	COMDAT ??_C@_0BC@NCHFPCDM@StartMouseWalking@
CONST	SEGMENT
??_C@_0BC@NCHFPCDM@StartMouseWalking@ DB 'StartMouseWalking', 00H ; `string'
CONST	ENDS
;	COMDAT ??_C@_0BJ@HGLJKHIH@EndKeyWalkingImmediately@
CONST	SEGMENT
??_C@_0BJ@HGLJKHIH@EndKeyWalkingImmediately@ DB 'EndKeyWalkingImmediately'
	DB	00H						; `string'
CONST	ENDS
;	COMDAT ??_C@_0BF@PNJNANBI@SetSingleDIKKeyState@
CONST	SEGMENT
??_C@_0BF@PNJNANBI@SetSingleDIKKeyState@ DB 'SetSingleDIKKeyState', 00H ; `string'
CONST	ENDS
;	COMDAT ??_C@_0BC@DAIEHFBH@SetAttackKeyState@
CONST	SEGMENT
??_C@_0BC@DAIEHFBH@SetAttackKeyState@ DB 'SetAttackKeyState', 00H ; `string'
CONST	ENDS
;	COMDAT ??_C@_0BL@IEKDAKHC@SetAutoCameraRotationSpeed@
CONST	SEGMENT
??_C@_0BL@IEKDAKHC@SetAutoCameraRotationSpeed@ DB 'SetAutoCameraRotationS'
	DB	'peed', 00H					; `string'
CONST	ENDS
;	COMDAT ??_C@_0M@GOCDIKPN@ComboAttack@
CONST	SEGMENT
??_C@_0M@GOCDIKPN@ComboAttack@ DB 'ComboAttack', 00H	; `string'
CONST	ENDS
;	COMDAT ??_C@_0L@PBBGGCLG@HidePlayer@
CONST	SEGMENT
??_C@_0L@PBBGGCLG@HidePlayer@ DB 'HidePlayer', 00H	; `string'
CONST	ENDS
;	COMDAT ??_C@_0L@CPMIOCIM@ShowPlayer@
CONST	SEGMENT
??_C@_0L@CPMIOCIM@ShowPlayer@ DB 'ShowPlayer', 00H	; `string'
CONST	ENDS
;	COMDAT ??_C@_0L@JEBGMNAH@ActEmotion@
CONST	SEGMENT
??_C@_0L@JEBGMNAH@ActEmotion@ DB 'ActEmotion', 00H	; `string'
CONST	ENDS
;	COMDAT ??_C@_0P@LDENHACE@IsObserverMode@
CONST	SEGMENT
??_C@_0P@LDENHACE@IsObserverMode@ DB 'IsObserverMode', 00H ; `string'
CONST	ENDS
;	COMDAT ??_C@_0BA@GFJLKENO@IsMountingHorse@
CONST	SEGMENT
??_C@_0BA@GFJLKENO@IsMountingHorse@ DB 'IsMountingHorse', 00H ; `string'
CONST	ENDS
;	COMDAT ??_C@_0N@IKPCBCPA@IsInSafeArea@
CONST	SEGMENT
??_C@_0N@IKPCBCPA@IsInSafeArea@ DB 'IsInSafeArea', 00H	; `string'
CONST	ENDS
;	COMDAT ??_C@_0BF@DABJOKIF@GetCharacterDistance@
CONST	SEGMENT
??_C@_0BF@DABJOKIF@GetCharacterDistance@ DB 'GetCharacterDistance', 00H ; `string'
CONST	ENDS
;	COMDAT ??_C@_0BE@HJOMPGKI@IsCantFightInstance@
CONST	SEGMENT
??_C@_0BE@HJOMPGKI@IsCantFightInstance@ DB 'IsCantFightInstance', 00H ; `string'
CONST	ENDS
;	COMDAT ??_C@_0BC@IKOEAPGC@IsRevengeInstance@
CONST	SEGMENT
??_C@_0BC@IKOEAPGC@IsRevengeInstance@ DB 'IsRevengeInstance', 00H ; `string'
CONST	ENDS
;	COMDAT ??_C@_0BE@FOIPHJLO@IsChallengeInstance@
CONST	SEGMENT
??_C@_0BE@FOIPHJLO@IsChallengeInstance@ DB 'IsChallengeInstance', 00H ; `string'
CONST	ENDS
;	COMDAT ??_C@_0N@CBEDFALN@IsSameEmpire@
CONST	SEGMENT
??_C@_0N@CBEDFALN@IsSameEmpire@ DB 'IsSameEmpire', 00H	; `string'
CONST	ENDS
;	COMDAT ??_C@_0O@ECCODAC@IsPVPInstance@
CONST	SEGMENT
??_C@_0O@ECCODAC@IsPVPInstance@ DB 'IsPVPInstance', 00H	; `string'
CONST	ENDS
;	COMDAT ??_C@_0BA@ODCBPOEF@IsActingEmotion@
CONST	SEGMENT
??_C@_0BA@ODCBPOEF@IsActingEmotion@ DB 'IsActingEmotion', 00H ; `string'
CONST	ENDS
;	COMDAT ??_C@_0BC@FLPEGJDD@CanAttackInstance@
CONST	SEGMENT
??_C@_0BC@FLPEGJDD@CanAttackInstance@ DB 'CanAttackInstance', 00H ; `string'
CONST	ENDS
;	COMDAT ??_C@_0BF@GALHNOAL@IsMainCharacterIndex@
CONST	SEGMENT
??_C@_0BF@GALHNOAL@IsMainCharacterIndex@ DB 'IsMainCharacterIndex', 00H ; `string'
CONST	ENDS
;	COMDAT ??_C@_0BJ@GIKFEPMH@GetMainCharacterPosition@
CONST	SEGMENT
??_C@_0BJ@GIKFEPMH@GetMainCharacterPosition@ DB 'GetMainCharacterPosition'
	DB	00H						; `string'
CONST	ENDS
;	COMDAT ??_C@_0BF@OMDPKDFM@GetMainCharacterName@
CONST	SEGMENT
??_C@_0BF@OMDPKDFM@GetMainCharacterName@ DB 'GetMainCharacterName', 00H ; `string'
CONST	ENDS
;	COMDAT ??_C@_0BG@GHIKDJGB@GetMainCharacterIndex@
CONST	SEGMENT
??_C@_0BG@GHIKDJGB@GetMainCharacterIndex@ DB 'GetMainCharacterIndex', 00H ; `string'
CONST	ENDS
;	COMDAT ??_C@_0BG@JCNMOACA@SetMainCharacterIndex@
CONST	SEGMENT
??_C@_0BG@JCNMOACA@SetMainCharacterIndex@ DB 'SetMainCharacterIndex', 00H ; `string'
CONST	ENDS
;	COMDAT ??_C@_0BK@JBJLNCBH@SetMouseMiddleButtonState@
CONST	SEGMENT
??_C@_0BK@JBJLNCBH@SetMouseMiddleButtonState@ DB 'SetMouseMiddleButtonSta'
	DB	'te', 00H					; `string'
CONST	ENDS
;	COMDAT ??_C@_0N@MACDDOCA@GetMouseFunc@
CONST	SEGMENT
??_C@_0N@MACDDOCA@GetMouseFunc@ DB 'GetMouseFunc', 00H	; `string'
CONST	ENDS
;	COMDAT ??_C@_0N@LEJNPCGM@SetMouseFunc@
CONST	SEGMENT
??_C@_0N@LEJNPCGM@SetMouseFunc@ DB 'SetMouseFunc', 00H	; `string'
CONST	ENDS
;	COMDAT ??_C@_0O@HDELDAFI@SetMouseState@
CONST	SEGMENT
??_C@_0O@HDELDAFI@SetMouseState@ DB 'SetMouseState', 00H ; `string'
CONST	ENDS
;	COMDAT ??_C@_0BE@EGCDGLCF@RegisterCacheEffect@
CONST	SEGMENT
??_C@_0BE@EGCDGLCF@RegisterCacheEffect@ DB 'RegisterCacheEffect', 00H ; `string'
CONST	ENDS
;	COMDAT ??_C@_0P@HDADHLLI@RegisterEffect@
CONST	SEGMENT
??_C@_0P@HDADHLLI@RegisterEffect@ DB 'RegisterEffect', 00H ; `string'
CONST	ENDS
;	COMDAT ??_C@_0O@MNPFFDEJ@SetGameWindow@
CONST	SEGMENT
??_C@_0O@MNPFFDEJ@SetGameWindow@ DB 'SetGameWindow', 00H ; `string'
CONST	ENDS
;	COMDAT ??_C@_0O@MAEJALBO@PickCloseItem@
CONST	SEGMENT
??_C@_0O@MAEJALBO@PickCloseItem@ DB 'PickCloseItem', 00H ; `string'
CONST	ENDS
;	COMDAT ??_C@_0BC@CILJOCG@SetAutoPotionInfo@
CONST	SEGMENT
??_C@_0BC@CILJOCG@SetAutoPotionInfo@ DB 'SetAutoPotionInfo', 00H ; `string'
CONST	ENDS
;	COMDAT ??_C@_0BC@CHIABFDI@GetAutoPotionInfo@
CONST	SEGMENT
??_C@_0BC@CHIABFDI@GetAutoPotionInfo@ DB 'GetAutoPotionInfo', 00H ; `string'
CONST	ENDS
;	COMDAT ?s_methods@?1??initPlayer@@YAXXZ@4PAUPyMethodDef@@A
_DATA	SEGMENT
?s_methods@?1??initPlayer@@YAXXZ@4PAUPyMethodDef@@A DD FLAT:??_C@_0BC@CHIABFDI@GetAutoPotionInfo@ ; `initPlayer'::`2'::s_methods
	DD	FLAT:?playerGetAutoPotionInfo@@YAPAU_object@@PAU1@0@Z
	DD	01H
	ORG $+4
	DD	FLAT:??_C@_0BC@CILJOCG@SetAutoPotionInfo@
	DD	FLAT:?playerSetAutoPotionInfo@@YAPAU_object@@PAU1@0@Z
	DD	01H
	ORG $+4
	DD	FLAT:??_C@_0O@MAEJALBO@PickCloseItem@
	DD	FLAT:?playerPickCloseItem@@YAPAU_object@@PAU1@0@Z
	DD	01H
	ORG $+4
	DD	FLAT:??_C@_0O@MNPFFDEJ@SetGameWindow@
	DD	FLAT:?playerSetGameWindow@@YAPAU_object@@PAU1@0@Z
	DD	01H
	ORG $+4
	DD	FLAT:??_C@_0P@HDADHLLI@RegisterEffect@
	DD	FLAT:?playerRegisterEffect@@YAPAU_object@@PAU1@0@Z
	DD	01H
	ORG $+4
	DD	FLAT:??_C@_0BE@EGCDGLCF@RegisterCacheEffect@
	DD	FLAT:?playerRegisterCacheEffect@@YAPAU_object@@PAU1@0@Z
	DD	01H
	ORG $+4
	DD	FLAT:??_C@_0O@HDELDAFI@SetMouseState@
	DD	FLAT:?playerSetMouseState@@YAPAU_object@@PAU1@0@Z
	DD	01H
	ORG $+4
	DD	FLAT:??_C@_0N@LEJNPCGM@SetMouseFunc@
	DD	FLAT:?playerSetMouseFunc@@YAPAU_object@@PAU1@0@Z
	DD	01H
	ORG $+4
	DD	FLAT:??_C@_0N@MACDDOCA@GetMouseFunc@
	DD	FLAT:?playerGetMouseFunc@@YAPAU_object@@PAU1@0@Z
	DD	01H
	ORG $+4
	DD	FLAT:??_C@_0BK@JBJLNCBH@SetMouseMiddleButtonState@
	DD	FLAT:?playerSetMouseMiddleButtonState@@YAPAU_object@@PAU1@0@Z
	DD	01H
	ORG $+4
	DD	FLAT:??_C@_0BG@JCNMOACA@SetMainCharacterIndex@
	DD	FLAT:?playerSetMainCharacterIndex@@YAPAU_object@@PAU1@0@Z
	DD	01H
	ORG $+4
	DD	FLAT:??_C@_0BG@GHIKDJGB@GetMainCharacterIndex@
	DD	FLAT:?playerGetMainCharacterIndex@@YAPAU_object@@PAU1@0@Z
	DD	01H
	ORG $+4
	DD	FLAT:??_C@_0BF@OMDPKDFM@GetMainCharacterName@
	DD	FLAT:?playerGetMainCharacterName@@YAPAU_object@@PAU1@0@Z
	DD	01H
	ORG $+4
	DD	FLAT:??_C@_0BJ@GIKFEPMH@GetMainCharacterPosition@
	DD	FLAT:?playerGetMainCharacterPosition@@YAPAU_object@@PAU1@0@Z
	DD	01H
	ORG $+4
	DD	FLAT:??_C@_0BF@GALHNOAL@IsMainCharacterIndex@
	DD	FLAT:?playerIsMainCharacterIndex@@YAPAU_object@@PAU1@0@Z
	DD	01H
	ORG $+4
	DD	FLAT:??_C@_0BC@FLPEGJDD@CanAttackInstance@
	DD	FLAT:?playerCanAttackInstance@@YAPAU_object@@PAU1@0@Z
	DD	01H
	ORG $+4
	DD	FLAT:??_C@_0BA@ODCBPOEF@IsActingEmotion@
	DD	FLAT:?playerIsActingEmotion@@YAPAU_object@@PAU1@0@Z
	DD	01H
	ORG $+4
	DD	FLAT:??_C@_0O@ECCODAC@IsPVPInstance@
	DD	FLAT:?playerIsPVPInstance@@YAPAU_object@@PAU1@0@Z
	DD	01H
	ORG $+4
	DD	FLAT:??_C@_0N@CBEDFALN@IsSameEmpire@
	DD	FLAT:?playerIsSameEmpire@@YAPAU_object@@PAU1@0@Z
	DD	01H
	ORG $+4
	DD	FLAT:??_C@_0BE@FOIPHJLO@IsChallengeInstance@
	DD	FLAT:?playerIsChallengeInstance@@YAPAU_object@@PAU1@0@Z
	DD	01H
	ORG $+4
	DD	FLAT:??_C@_0BC@IKOEAPGC@IsRevengeInstance@
	DD	FLAT:?playerIsRevengeInstance@@YAPAU_object@@PAU1@0@Z
	DD	01H
	ORG $+4
	DD	FLAT:??_C@_0BE@HJOMPGKI@IsCantFightInstance@
	DD	FLAT:?playerIsCantFightInstance@@YAPAU_object@@PAU1@0@Z
	DD	01H
	ORG $+4
	DD	FLAT:??_C@_0BF@DABJOKIF@GetCharacterDistance@
	DD	FLAT:?playerGetCharacterDistance@@YAPAU_object@@PAU1@0@Z
	DD	01H
	ORG $+4
	DD	FLAT:??_C@_0N@IKPCBCPA@IsInSafeArea@
	DD	FLAT:?playerIsInSafeArea@@YAPAU_object@@PAU1@0@Z
	DD	01H
	ORG $+4
	DD	FLAT:??_C@_0BA@GFJLKENO@IsMountingHorse@
	DD	FLAT:?playerIsMountingHorse@@YAPAU_object@@PAU1@0@Z
	DD	01H
	ORG $+4
	DD	FLAT:??_C@_0P@LDENHACE@IsObserverMode@
	DD	FLAT:?playerIsObserverMode@@YAPAU_object@@PAU1@0@Z
	DD	01H
	ORG $+4
	DD	FLAT:??_C@_0L@JEBGMNAH@ActEmotion@
	DD	FLAT:?playerActEmotion@@YAPAU_object@@PAU1@0@Z
	DD	01H
	ORG $+4
	DD	FLAT:??_C@_0L@CPMIOCIM@ShowPlayer@
	DD	FLAT:?playerShowPlayer@@YAPAU_object@@PAU1@0@Z
	DD	01H
	ORG $+4
	DD	FLAT:??_C@_0L@PBBGGCLG@HidePlayer@
	DD	FLAT:?playerHidePlayer@@YAPAU_object@@PAU1@0@Z
	DD	01H
	ORG $+4
	DD	FLAT:??_C@_0M@GOCDIKPN@ComboAttack@
	DD	FLAT:?playerComboAttack@@YAPAU_object@@PAU1@0@Z
	DD	01H
	ORG $+4
	DD	FLAT:??_C@_0BL@IEKDAKHC@SetAutoCameraRotationSpeed@
	DD	FLAT:?playerSetAutoCameraRotationSpeed@@YAPAU_object@@PAU1@0@Z
	DD	01H
	ORG $+4
	DD	FLAT:??_C@_0BC@DAIEHFBH@SetAttackKeyState@
	DD	FLAT:?playerSetAttackKeyState@@YAPAU_object@@PAU1@0@Z
	DD	01H
	ORG $+4
	DD	FLAT:??_C@_0BF@PNJNANBI@SetSingleDIKKeyState@
	DD	FLAT:?playerSetSingleDIKKeyState@@YAPAU_object@@PAU1@0@Z
	DD	01H
	ORG $+4
	DD	FLAT:??_C@_0BJ@HGLJKHIH@EndKeyWalkingImmediately@
	DD	FLAT:?playerEndKeyWalkingImmediately@@YAPAU_object@@PAU1@0@Z
	DD	01H
	ORG $+4
	DD	FLAT:??_C@_0BC@NCHFPCDM@StartMouseWalking@
	DD	FLAT:?playerStartMouseWalking@@YAPAU_object@@PAU1@0@Z
	DD	01H
	ORG $+4
	DD	FLAT:??_C@_0BA@JEOKFDLP@EndMouseWalking@
	DD	FLAT:?playerEndMouseWalking@@YAPAU_object@@PAU1@0@Z
	DD	01H
	ORG $+4
	DD	FLAT:??_C@_0BE@MCFGJOPA@ResetCameraRotation@
	DD	FLAT:?playerResetCameraRotation@@YAPAU_object@@PAU1@0@Z
	DD	01H
	ORG $+4
	DD	FLAT:??_C@_0BD@DPHLFGPP@SetQuickCameraMode@
	DD	FLAT:?playerSetQuickCameraMode@@YAPAU_object@@PAU1@0@Z
	DD	01H
	ORG $+4
	DD	FLAT:??_C@_08HIFGFOGG@SetSkill@
	DD	FLAT:?playerSetSkill@@YAPAU_object@@PAU1@0@Z
	DD	01H
	ORG $+4
	DD	FLAT:??_C@_0O@NOICOABO@GetSkillIndex@
	DD	FLAT:?playerGetSkillIndex@@YAPAU_object@@PAU1@0@Z
	DD	01H
	ORG $+4
	DD	FLAT:??_C@_0BC@HNJMANI@GetSkillSlotIndex@
	DD	FLAT:?playerGetSkillSlotIndex@@YAPAU_object@@PAU1@0@Z
	DD	01H
	ORG $+4
	DD	FLAT:??_C@_0O@IIOIANPE@GetSkillGrade@
	DD	FLAT:?playerGetSkillGrade@@YAPAU_object@@PAU1@0@Z
	DD	01H
	ORG $+4
	DD	FLAT:??_C@_0O@CNCBAIPN@GetSkillLevel@
	DD	FLAT:?playerGetSkillLevel@@YAPAU_object@@PAU1@0@Z
	DD	01H
	ORG $+4
	DD	FLAT:??_C@_0CD@EFGGIKHI@GetSkillCurrentEfficientPercent@
	DD	FLAT:?playerGetSkillCurrentEfficientPercentage@@YAPAU_object@@PAU1@0@Z
	DD	01H
	ORG $+4
	DD	FLAT:??_C@_0CA@JHGONPGM@GetSkillNextEfficientPercentage@
	DD	FLAT:?playerGetSkillNextEfficientPercentage@@YAPAU_object@@PAU1@0@Z
	DD	01H
	ORG $+4
	DD	FLAT:??_C@_0P@IGNHDBHH@ClickSkillSlot@
	DD	FLAT:?playerClickSkillSlot@@YAPAU_object@@PAU1@0@Z
	DD	01H
	ORG $+4
	DD	FLAT:??_C@_0BN@BPJDEKED@ChangeCurrentSkillNumberOnly@
	DD	FLAT:?playerChangeCurrentSkillNumberOnly@@YAPAU_object@@PAU1@0@Z
	DD	01H
	ORG $+4
	DD	FLAT:??_C@_0P@MJOJKOJJ@ClearSkillDict@
	DD	FLAT:?playerClearSkillDict@@YAPAU_object@@PAU1@0@Z
	DD	01H
	ORG $+4
	DD	FLAT:??_C@_0N@GABOCBEH@GetItemIndex@
	DD	FLAT:?playerGetItemIndex@@YAPAU_object@@PAU1@0@Z
	DD	01H
	ORG $+4
	DD	FLAT:??_C@_0N@DMCGDNGF@GetItemFlags@
	DD	FLAT:?playerGetItemFlags@@YAPAU_object@@PAU1@0@Z
	DD	01H
	ORG $+4
	DD	FLAT:??_C@_0N@LEKALLIG@GetItemCount@
	DD	FLAT:?playerGetItemCount@@YAPAU_object@@PAU1@0@Z
	DD	01H
	ORG $+4
	DD	FLAT:??_C@_0BD@DBLILMFK@GetItemCountByVnum@
	DD	FLAT:?playerGetItemCountByVnum@@YAPAU_object@@PAU1@0@Z
	DD	01H
	ORG $+4
	DD	FLAT:??_C@_0BD@JBOBKHIE@GetItemMetinSocket@
	DD	FLAT:?playerGetItemMetinSocket@@YAPAU_object@@PAU1@0@Z
	DD	01H
	ORG $+4
	DD	FLAT:??_C@_0BB@GOKPPDHH@GetItemAttribute@
	DD	FLAT:?playerGetItemAttribute@@YAPAU_object@@PAU1@0@Z
	DD	01H
	ORG $+4
	DD	FLAT:??_C@_0BC@OKNBBEMG@GetISellItemPrice@
	DD	FLAT:?playerGetISellItemPrice@@YAPAU_object@@PAU1@0@Z
	DD	01H
	ORG $+4
	DD	FLAT:??_C@_08MHJANHDM@MoveItem@
	DD	FLAT:?playerMoveItem@@YAPAU_object@@PAU1@0@Z
	DD	01H
	ORG $+4
	DD	FLAT:??_C@_0BE@DBIFLBAC@SendClickItemPacket@
	DD	FLAT:?playerSendClickItemPacket@@YAPAU_object@@PAU1@0@Z
	DD	01H
	ORG $+4
	DD	FLAT:??_C@_07MMGEHGCI@GetName@
	DD	FLAT:?playerGetName@@YAPAU_object@@PAU1@0@Z
	DD	01H
	ORG $+4
	DD	FLAT:??_C@_06FHLNIOPB@GetJob@
	DD	FLAT:?playerGetJob@@YAPAU_object@@PAU1@0@Z
	DD	01H
	ORG $+4
	DD	FLAT:??_C@_07GDOKCBKB@GetRace@
	DD	FLAT:?playerGetRace@@YAPAU_object@@PAU1@0@Z
	DD	01H
	ORG $+4
	DD	FLAT:??_C@_0M@DJDCIBLO@GetPlayTime@
	DD	FLAT:?playerGetPlayTime@@YAPAU_object@@PAU1@0@Z
	DD	01H
	ORG $+4
	DD	FLAT:??_C@_0M@DGCMFHDN@SetPlayTime@
	DD	FLAT:?playerSetPlayTime@@YAPAU_object@@PAU1@0@Z
	DD	01H
	ORG $+4
	DD	FLAT:??_C@_0BA@FOPKKJJD@IsSkillCoolTime@
	DD	FLAT:?playerIsSkillCoolTime@@YAPAU_object@@PAU1@0@Z
	DD	01H
	ORG $+4
	DD	FLAT:??_C@_0BB@CNGGKNGL@GetSkillCoolTime@
	DD	FLAT:?playerGetSkillCoolTime@@YAPAU_object@@PAU1@0@Z
	DD	01H
	ORG $+4
	DD	FLAT:??_C@_0O@IAPCJJAC@IsSkillActive@
	DD	FLAT:?playerIsSkillActive@@YAPAU_object@@PAU1@0@Z
	DD	01H
	ORG $+4
	DD	FLAT:??_C@_0O@HHBOBCLE@UseGuildSkill@
	DD	FLAT:?playerUseGuildSkill@@YAPAU_object@@PAU1@0@Z
	DD	01H
	ORG $+4
	DD	FLAT:??_C@_0BI@JIGEMOFF@AffectIndexToSkillIndex@
	DD	FLAT:?playerAffectIndexToSkillIndex@@YAPAU_object@@PAU1@0@Z
	DD	01H
	ORG $+4
	DD	FLAT:??_C@_06MDIKDJMD@GetEXP@
	DD	FLAT:?playerGetEXP@@YAPAU_object@@PAU1@0@Z
	DD	01H
	ORG $+4
	DD	FLAT:??_C@_09MKFEIFJE@GetStatus@
	DD	FLAT:?playerGetStatus@@YAPAU_object@@PAU1@0@Z
	DD	01H
	ORG $+4
	DD	FLAT:??_C@_09OEBBKEAG@SetStatus@
	DD	FLAT:?playerSetStatus@@YAPAU_object@@PAU1@0@Z
	DD	01H
	ORG $+4
	DD	FLAT:??_C@_06NMFKJLLH@GetElk@
	DD	FLAT:?playerGetElk@@YAPAU_object@@PAU1@0@Z
	DD	01H
	ORG $+4
	DD	FLAT:??_C@_08OAJFGNBC@GetMoney@
	DD	FLAT:?playerGetElk@@YAPAU_object@@PAU1@0@Z
	DD	01H
	ORG $+4
	DD	FLAT:??_C@_0L@EAKBLDCO@GetGuildID@
	DD	FLAT:?playerGetGuildID@@YAPAU_object@@PAU1@0@Z
	DD	01H
	ORG $+4
	DD	FLAT:??_C@_0N@CECGOPDG@GetGuildName@
	DD	FLAT:?playerGetGuildName@@YAPAU_object@@PAU1@0@Z
	DD	01H
	ORG $+4
	DD	FLAT:??_C@_0BB@LANDCIKG@GetAlignmentData@
	DD	FLAT:?playerGetAlignmentData@@YAPAU_object@@PAU1@0@Z
	DD	01H
	ORG $+4
	DD	FLAT:??_C@_0BJ@DNLGAMEO@RequestAddLocalQuickSlot@
	DD	FLAT:?playerRequestAddLocalQuickSlot@@YAPAU_object@@PAU1@0@Z
	DD	01H
	ORG $+4
	DD	FLAT:??_C@_0CA@JMFCJJPL@RequestAddToEmptyLocalQuickSlot@
	DD	FLAT:?playerRequestAddToEmptyLocalQuickSlot@@YAPAU_object@@PAU1@0@Z
	DD	01H
	ORG $+4
	DD	FLAT:??_C@_0BN@NACLJDMA@RequestDeleteGlobalQuickSlot@
	DD	FLAT:?playerRequestDeleteGlobalQuickSlot@@YAPAU_object@@PAU1@0@Z
	DD	01H
	ORG $+4
	DD	FLAT:??_C@_0CL@IEMBKGLN@RequestMoveGlobalQuickSlotToLoc@
	DD	FLAT:?playerRequestMoveGlobalQuickSlotToLocalQuickSlot@@YAPAU_object@@PAU1@0@Z
	DD	01H
	ORG $+4
	DD	FLAT:??_C@_0BJ@IBBGPDPH@RequestUseLocalQuickSlot@
	DD	FLAT:?playerRequestUseLocalQuickSlot@@YAPAU_object@@PAU1@0@Z
	DD	01H
	ORG $+4
	DD	FLAT:??_C@_0CK@GNGKFIDB@LocalQuickSlotIndexToGlobalQuic@
	DD	FLAT:?playerLocalQuickSlotIndexToGlobalQuickSlotIndex@@YAPAU_object@@PAU1@0@Z
	DD	01H
	ORG $+4
	DD	FLAT:??_C@_0N@NLMPHAJA@GetQuickPage@
	DD	FLAT:?playerGetQuickPage@@YAPAU_object@@PAU1@0@Z
	DD	01H
	ORG $+4
	DD	FLAT:??_C@_0N@KPHBLMNM@SetQuickPage@
	DD	FLAT:?playerSetQuickPage@@YAPAU_object@@PAU1@0@Z
	DD	01H
	ORG $+4
	DD	FLAT:??_C@_0BC@LNKMMBDG@GetLocalQuickSlot@
	DD	FLAT:?playerGetLocalQuickSlot@@YAPAU_object@@PAU1@0@Z
	DD	01H
	ORG $+4
	DD	FLAT:??_C@_0BD@ECGPDHPA@GetGlobalQuickSlot@
	DD	FLAT:?playerGetGlobalQuickSlot@@YAPAU_object@@PAU1@0@Z
	DD	01H
	ORG $+4
	DD	FLAT:??_C@_0BH@JNCIKJMC@RemoveQuickSlotByValue@
	DD	FLAT:?playerRemoveQuickSlotByValue@@YAPAU_object@@PAU1@0@Z
	DD	01H
	ORG $+4
	DD	FLAT:??_C@_06NOPKEHAK@isItem@
	DD	FLAT:?playerisItem@@YAPAU_object@@PAU1@0@Z
	DD	01H
	ORG $+4
	DD	FLAT:??_C@_0BA@EMKHGGAL@IsEquipmentSlot@
	DD	FLAT:?playerIsEquipmentSlot@@YAPAU_object@@PAU1@0@Z
	DD	01H
	ORG $+4
	DD	FLAT:??_C@_0BC@DDCIGDKO@IsDSEquipmentSlot@
	DD	FLAT:?playerIsDSEquipmentSlot@@YAPAU_object@@PAU1@0@Z
	DD	01H
	ORG $+4
	DD	FLAT:??_C@_0O@KCAGNEAI@IsCostumeSlot@
	DD	FLAT:?playerIsCostumeSlot@@YAPAU_object@@PAU1@0@Z
	DD	01H
	ORG $+4
	DD	FLAT:??_C@_0P@LAJFBPPH@IsValuableItem@
	DD	FLAT:?playerIsValuableItem@@YAPAU_object@@PAU1@0@Z
	DD	01H
	ORG $+4
	DD	FLAT:??_C@_0BC@DCFDMADN@IsOpenPrivateShop@
	DD	FLAT:?playerIsOpenPrivateShop@@YAPAU_object@@PAU1@0@Z
	DD	01H
	ORG $+4
	DD	FLAT:??_C@_0BE@HECMLJG@IsBeltInventorySlot@
	DD	FLAT:?playerIsBeltInventorySlot@@YAPAU_object@@PAU1@0@Z
	DD	01H
	ORG $+4
	DD	FLAT:??_C@_0BA@OBALOJLG@IsEquippingBelt@
	DD	FLAT:?playerIsEquippingBelt@@YAPAU_object@@PAU1@0@Z
	DD	01H
	ORG $+4
	DD	FLAT:??_C@_0BN@DKGNHJIB@IsAvailableBeltInventoryCell@
	DD	FLAT:?playerIsAvailableBeltInventoryCell@@YAPAU_object@@PAU1@0@Z
	DD	01H
	ORG $+4
	DD	FLAT:??_C@_0N@DGHEMMKN@GetItemGrade@
	DD	FLAT:?playerGetItemGrade@@YAPAU_object@@PAU1@0@Z
	DD	01H
	ORG $+4
	DD	FLAT:??_C@_09BGNCJJP@CanRefine@
	DD	FLAT:?playerCanRefine@@YAPAU_object@@PAU1@0@Z
	DD	01H
	ORG $+4
	DD	FLAT:??_C@_09GHIBIBHI@CanDetach@
	DD	FLAT:?playerCanDetach@@YAPAU_object@@PAU1@0@Z
	DD	01H
	ORG $+4
	DD	FLAT:??_C@_09FHINBOHC@CanUnlock@
	DD	FLAT:?playerCanUnlock@@YAPAU_object@@PAU1@0@Z
	DD	01H
	ORG $+4
	DD	FLAT:??_C@_0P@BLOGPKFO@CanAttachMetin@
	DD	FLAT:?playerCanAttachMetin@@YAPAU_object@@PAU1@0@Z
	DD	01H
	ORG $+4
	DD	FLAT:??_C@_0BE@ELNKJPMC@IsRefineGradeScroll@
	DD	FLAT:?playerIsRefineGradeScroll@@YAPAU_object@@PAU1@0@Z
	DD	01H
	ORG $+4
	DD	FLAT:??_C@_0M@DPCEEMCG@ClearTarget@
	DD	FLAT:?playerClearTarget@@YAPAU_object@@PAU1@0@Z
	DD	01H
	ORG $+4
	DD	FLAT:??_C@_09EECGCJDE@SetTarget@
	DD	FLAT:?playerSetTarget@@YAPAU_object@@PAU1@0@Z
	DD	01H
	ORG $+4
	DD	FLAT:??_C@_0BC@HAEJEFBP@OpenCharacterMenu@
	DD	FLAT:?playerOpenCharacterMenu@@YAPAU_object@@PAU1@0@Z
	DD	01H
	ORG $+4
	DD	FLAT:??_C@_06LMAGPFNF@Update@
	DD	FLAT:?playerUpdate@@YAPAU_object@@PAU1@0@Z
	DD	01H
	ORG $+4
	DD	FLAT:??_C@_06EPLDPNDB@Render@
	DD	FLAT:?playerRender@@YAPAU_object@@PAU1@0@Z
	DD	01H
	ORG $+4
	DD	FLAT:??_C@_05MDNHABIA@Clear@
	DD	FLAT:?playerClear@@YAPAU_object@@PAU1@0@Z
	DD	01H
	ORG $+4
	DD	FLAT:??_C@_0O@FJCFNEGL@IsPartyMember@
	DD	FLAT:?playerIsPartyMember@@YAPAU_object@@PAU1@0@Z
	DD	01H
	ORG $+4
	DD	FLAT:??_C@_0O@BPMJGNAC@IsPartyLeader@
	DD	FLAT:?playerIsPartyLeader@@YAPAU_object@@PAU1@0@Z
	DD	01H
	ORG $+4
	DD	FLAT:??_C@_0BD@HGKJMFNK@IsPartyLeaderByPID@
	DD	FLAT:?playerIsPartyLeaderByPID@@YAPAU_object@@PAU1@0@Z
	DD	01H
	ORG $+4
	DD	FLAT:??_C@_0BL@EPAFEFHI@GetPartyMemberHPPercentage@
	DD	FLAT:?playerGetPartyMemberHPPercentage@@YAPAU_object@@PAU1@0@Z
	DD	01H
	ORG $+4
	DD	FLAT:??_C@_0BE@HKIJMBKK@GetPartyMemberState@
	DD	FLAT:?playerGetPartyMemberState@@YAPAU_object@@PAU1@0@Z
	DD	01H
	ORG $+4
	DD	FLAT:??_C@_0BG@EEFAFMJC@GetPartyMemberAffects@
	DD	FLAT:?playerGetPartyMemberAffects@@YAPAU_object@@PAU1@0@Z
	DD	01H
	ORG $+4
	DD	FLAT:??_C@_0BC@DGCJFOHN@RemovePartyMember@
	DD	FLAT:?playerRemovePartyMember@@YAPAU_object@@PAU1@0@Z
	DD	01H
	ORG $+4
	DD	FLAT:??_C@_09DMPBEJCG@ExitParty@
	DD	FLAT:?playerExitParty@@YAPAU_object@@PAU1@0@Z
	DD	01H
	ORG $+4
	DD	FLAT:??_C@_09IMMFEEHK@GetPKMode@
	DD	FLAT:?playerGetPKMode@@YAPAU_object@@PAU1@0@Z
	DD	01H
	ORG $+4
	DD	FLAT:??_C@_0BF@CLGCEOLO@HasMobilePhoneNumber@
	DD	FLAT:?playerHasMobilePhoneNumber@@YAPAU_object@@PAU1@0@Z
	DD	01H
	ORG $+4
	DD	FLAT:??_C@_0BE@PMDABIKP@RegisterEmotionIcon@
	DD	FLAT:?playerRegisterEmotionIcon@@YAPAU_object@@PAU1@0@Z
	DD	01H
	ORG $+4
	DD	FLAT:??_C@_0BE@FELKHKJF@GetEmotionIconImage@
	DD	FLAT:?playerGetEmotionIconImage@@YAPAU_object@@PAU1@0@Z
	DD	01H
	ORG $+4
	DD	FLAT:??_C@_0BJ@CFCMHNHB@SetWeaponAttackBonusFlag@
	DD	FLAT:?playerSetWeaponAttackBonusFlag@@YAPAU_object@@PAU1@0@Z
	DD	01H
	ORG $+4
	DD	FLAT:??_C@_0P@ILOOLMDH@ToggleCoolTime@
	DD	FLAT:?playerToggleCoolTime@@YAPAU_object@@PAU1@0@Z
	DD	01H
	ORG $+4
	DD	FLAT:??_C@_0BB@DJKKOCLB@ToggleLevelLimit@
	DD	FLAT:?playerToggleLevelLimit@@YAPAU_object@@PAU1@0@Z
	DD	01H
	ORG $+4
	DD	FLAT:??_C@_0N@MEKPPHGC@GetTargetVID@
	DD	FLAT:?playerGetTargetVID@@YAPAU_object@@PAU1@0@Z
	DD	01H
	ORG $+4
	DD	FLAT:??_C@_0M@CHNGAPIB@SetItemData@
	DD	FLAT:?playerSetItemData@@YAPAU_object@@PAU1@0@Z
	DD	01H
	ORG $+4
	DD	FLAT:??_C@_0BD@GLMLJBGM@SetItemMetinSocket@
	DD	FLAT:?playerSetItemMetinSocket@@YAPAU_object@@PAU1@0@Z
	DD	01H
	ORG $+4
	DD	FLAT:??_C@_0BB@KPGENMF@SetItemAttribute@
	DD	FLAT:?playerSetItemAttribute@@YAPAU_object@@PAU1@0@Z
	DD	01H
	ORG $+4
	DD	FLAT:??_C@_0N@MABOHHMK@SetItemCount@
	DD	FLAT:?playerSetItemCount@@YAPAU_object@@PAU1@0@Z
	DD	01H
	ORG $+4
	DD	FLAT:??_C@_0M@DGFCHEAA@GetItemLink@
	DD	FLAT:?playerGetItemLink@@YAPAU_object@@PAU1@0@Z
	DD	01H
	ORG $+4
	DD	FLAT:??_C@_0BE@IOMKCPHN@SlotTypeToInvenType@
	DD	FLAT:?playerSlotTypeToInvenType@@YAPAU_object@@PAU1@0@Z
	DD	01H
	ORG $+4
	DD	FLAT:??_C@_0BF@PLGNHJMH@SendDragonSoulRefine@
	DD	FLAT:?playerSendDragonSoulRefine@@YAPAU_object@@PAU1@0@Z
	DD	01H
	ORG $+4
	DD	00H
	DD	00H
	DD	00H
	ORG $+4
_DATA	ENDS
;	COMDAT ??_C@_01OJONOECF@b@
CONST	SEGMENT
??_C@_01OJONOECF@b@ DB 'b', 00H				; `string'
CONST	ENDS
;	COMDAT ??_C@_04GPDILEAH@biii@
CONST	SEGMENT
??_C@_04GPDILEAH@biii@ DB 'biii', 00H			; `string'
CONST	ENDS
;	COMDAT ??_C@_07EFJJEBFG@iiiiiii@
CONST	SEGMENT
??_C@_07EFJJEBFG@iiiiiii@ DB 'iiiiiii', 00H		; `string'
CONST	ENDS
;	COMDAT ??_C@_0BF@IBGKLIMC@can?8t?5find?5item?5data@
CONST	SEGMENT
??_C@_0BF@IBGKLIMC@can?8t?5find?5item?5data@ DB 'can''t find item data', 00H ; `string'
CONST	ENDS
;	COMDAT ??_C@_0BF@BGKCJNBK@Can?8t?5find?5item?5data@
CONST	SEGMENT
??_C@_0BF@BGKCJNBK@Can?8t?5find?5item?5data@ DB 'Can''t find item data', 00H ; `string'
CONST	ENDS
;	COMDAT ??_C@_0BJ@GPGFNPLK@?$HMcfff1e6c0?$HMH?$CFs?$HMh?$FL?$CFs?$FN?$HMh?$HMr@
CONST	SEGMENT
??_C@_0BJ@GPGFNPLK@?$HMcfff1e6c0?$HMH?$CFs?$HMh?$FL?$CFs?$FN?$HMh?$HMr@ DB '|'
	DB	'cfff1e6c0|H%s|h[%s]|h|r', 00H		; `string'
CONST	ENDS
;	COMDAT ??_C@_0BJ@DABMGIOF@?$HMcffffc700?$HMH?$CFs?$HMh?$FL?$CFs?$FN?$HMh?$HMr@
CONST	SEGMENT
??_C@_0BJ@DABMGIOF@?$HMcffffc700?$HMH?$CFs?$HMh?$FL?$CFs?$FN?$HMh?$HMr@ DB '|'
	DB	'cffffc700|H%s|h[%s]|h|r', 00H		; `string'
CONST	ENDS
;	COMDAT ??_C@_0BK@MGKBEPOF@?5?$HMh?$HMr?$FL?$CFs?$FN?$HMcfff1e6c0?$HMH?$CFs?$HMh@
CONST	SEGMENT
??_C@_0BK@MGKBEPOF@?5?$HMh?$HMr?$FL?$CFs?$FN?$HMcfff1e6c0?$HMH?$CFs?$HMh@ DB ' '
	DB	'|h|r[%s]|cfff1e6c0|H%s|h', 00H		; `string'
CONST	ENDS
;	COMDAT ??_C@_0BK@MCOKCAKI@?5?$HMh?$HMr?$FL?$CFs?$FN?$HMcffffc700?$HMH?$CFs?$HMh@
CONST	SEGMENT
??_C@_0BK@MCOKCAKI@?5?$HMh?$HMr?$FL?$CFs?$FN?$HMcffffc700?$HMH?$CFs?$HMh@ DB ' '
	DB	'|h|r[%s]|cffffc700|H%s|h', 00H		; `string'
CONST	ENDS
;	COMDAT ??_C@_06FAMCNHHL@?3?$CFx?3?$CFd@
CONST	SEGMENT
??_C@_06FAMCNHHL@?3?$CFx?3?$CFd@ DB ':%x:%d', 00H	; `string'
CONST	ENDS
;	COMDAT ??_C@_0BE@FGPADLIF@item?3?$CFx?3?$CFx?3?$CFx?3?$CFx?3?$CFx@
CONST	SEGMENT
??_C@_0BE@FGPADLIF@item?3?$CFx?3?$CFx?3?$CFx?3?$CFx?3?$CFx@ DB 'item:%x:%'
	DB	'x:%x:%x:%x', 00H				; `string'
CONST	ENDS
;	COMDAT ??_C@_02PDIHAGKM@ii@
CONST	SEGMENT
??_C@_02PDIHAGKM@ii@ DB 'ii', 00H			; `string'
CONST	ENDS
;	COMDAT ??_C@_01HHGOMJKL@l@
CONST	SEGMENT
??_C@_01HHGOMJKL@l@ DB 'l', 00H				; `string'
CONST	ENDS
;	COMDAT ??_C@_02HPEDFNFO@ff@
CONST	SEGMENT
??_C@_02HPEDFNFO@ff@ DB 'ff', 00H			; `string'
CONST	ENDS
;	COMDAT ??_C@_0EK@IDBGKDBN@playerSetSingleDIKKeyState?$CIeDIK@
CONST	SEGMENT
??_C@_0EK@IDBGKDBN@playerSetSingleDIKKeyState?$CIeDIK@ DB 'playerSetSingl'
	DB	'eDIKKeyState(eDIK, isPressed) - There is no second argument', 00H ; `string'
CONST	ENDS
;	COMDAT ??_C@_0EJ@BNKMOLIP@playerSetSingleDIKKeyState?$CIeDIK@
CONST	SEGMENT
??_C@_0EJ@BNKMOLIP@playerSetSingleDIKKeyState?$CIeDIK@ DB 'playerSetSingl'
	DB	'eDIKKeyState(eDIK, isPressed) - There is no first argument', 00H ; `string'
CONST	ENDS
;	COMDAT ??_C@_0EA@OHLDKNFC@playerSetAttackKeyState?$CIisPress@
CONST	SEGMENT
??_C@_0EA@OHLDKNFC@playerSetAttackKeyState?$CIisPress@ DB 'playerSetAttac'
	DB	'kKeyState(isPressed) - There is no first argument', 00H ; `string'
CONST	ENDS
;	COMDAT ??_C@_0DF@ILFGGFEI@CPythonPlayer?3?3RegisterEffect?$CIe@
CONST	SEGMENT
??_C@_0DF@ILFGGFEI@CPythonPlayer?3?3RegisterEffect?$CIe@ DB 'CPythonPlaye'
	DB	'r::RegisterEffect(eEft=%d, szFileName=%s', 00H ; `string'
CONST	ENDS
;	COMDAT ??_C@_01INIBCBCB@f@
CONST	SEGMENT
??_C@_01INIBCBCB@f@ DB 'f', 00H				; `string'
CONST	ENDS
;	COMDAT ??_C@_03LPALPDIP@fff@
CONST	SEGMENT
??_C@_03LPALPDIP@fff@ DB 'fff', 00H			; `string'
CONST	ENDS
;	COMDAT ??_C@_01LKDEMHDF@s@
CONST	SEGMENT
??_C@_01LKDEMHDF@s@ DB 's', 00H				; `string'
CONST	ENDS
;	COMDAT ??_C@_01KBJDNOO@i@
CONST	SEGMENT
??_C@_01KBJDNOO@i@ DB 'i', 00H				; `string'
CONST	ENDS
;	COMDAT ?availableRuleByGrade@?1??GetAvailableRuleTableByGrade@CBeltInventoryHelper@@SAPBEXZ@4PAEA
_DATA	SEGMENT
?availableRuleByGrade@?1??GetAvailableRuleTableByGrade@CBeltInventoryHelper@@SAPBEXZ@4PAEA DB 01H ; `CBeltInventoryHelper::GetAvailableRuleTableByGrade'::`2'::availableRuleByGrade
	DB	02H
	DB	04H
	DB	06H
	DB	03H
	DB	03H
	DB	04H
	DB	06H
	DB	05H
	DB	05H
	DB	05H
	DB	06H
	DB	07H
	DB	07H
	DB	07H
	DB	07H
_DATA	ENDS
;	COMDAT ?ms_kPool@?$CPooledObject@VCRotationDecorator@NEffectUpdateDecorator@@@@1V?$CDynamicPoolEx@VCRotationDecorator@NEffectUpdateDecorator@@@@A
_DATA	SEGMENT
?ms_kPool@?$CPooledObject@VCRotationDecorator@NEffectUpdateDecorator@@@@1V?$CDynamicPoolEx@VCRotationDecorator@NEffectUpdateDecorator@@@@A DD FLAT:??_7?$CDynamicPoolEx@VCRotationDecorator@NEffectUpdateDecorator@@@@6B@ ; CPooledObject<NEffectUpdateDecorator::CRotationDecorator>::ms_kPool
	DD	00H
	DD	00H
	DD	00H
	DD	00H
	DD	00H
	DD	00H
	DD	00H
	DD	00H
_DATA	ENDS
;	COMDAT ?ms_kPool@?$CPooledObject@VCGravityDecorator@NEffectUpdateDecorator@@@@1V?$CDynamicPoolEx@VCGravityDecorator@NEffectUpdateDecorator@@@@A
_DATA	SEGMENT
?ms_kPool@?$CPooledObject@VCGravityDecorator@NEffectUpdateDecorator@@@@1V?$CDynamicPoolEx@VCGravityDecorator@NEffectUpdateDecorator@@@@A DD FLAT:??_7?$CDynamicPoolEx@VCGravityDecorator@NEffectUpdateDecorator@@@@6B@ ; CPooledObject<NEffectUpdateDecorator::CGravityDecorator>::ms_kPool
	DD	00H
	DD	00H
	DD	00H
	DD	00H
	DD	00H
	DD	00H
	DD	00H
	DD	00H
_DATA	ENDS
;	COMDAT ?ms_kPool@?$CPooledObject@VCAirResistanceDecorator@NEffectUpdateDecorator@@@@1V?$CDynamicPoolEx@VCAirResistanceDecorator@NEffectUpdateDecorator@@@@A
_DATA	SEGMENT
?ms_kPool@?$CPooledObject@VCAirResistanceDecorator@NEffectUpdateDecorator@@@@1V?$CDynamicPoolEx@VCAirResistanceDecorator@NEffectUpdateDecorator@@@@A DD FLAT:??_7?$CDynamicPoolEx@VCAirResistanceDecorator@NEffectUpdateDecorator@@@@6B@ ; CPooledObject<NEffectUpdateDecorator::CAirResistanceDecorator>::ms_kPool
	DD	00H
	DD	00H
	DD	00H
	DD	00H
	DD	00H
	DD	00H
	DD	00H
	DD	00H
_DATA	ENDS
;	COMDAT ?ms_kPool@?$CPooledObject@VCTextureAnimationRandomDecorator@NEffectUpdateDecorator@@@@1V?$CDynamicPoolEx@VCTextureAnimationRandomDecorator@NEffectUpdateDecorator@@@@A
_DATA	SEGMENT
?ms_kPool@?$CPooledObject@VCTextureAnimationRandomDecorator@NEffectUpdateDecorator@@@@1V?$CDynamicPoolEx@VCTextureAnimationRandomDecorator@NEffectUpdateDecorator@@@@A DD FLAT:??_7?$CDynamicPoolEx@VCTextureAnimationRandomDecorator@NEffectUpdateDecorator@@@@6B@ ; CPooledObject<NEffectUpdateDecorator::CTextureAnimationRandomDecorator>::ms_kPool
	DD	00H
	DD	00H
	DD	00H
	DD	00H
	DD	00H
	DD	00H
	DD	00H
	DD	00H
_DATA	ENDS
;	COMDAT ?ms_kPool@?$CPooledObject@VCTextureAnimationCCWDecorator@NEffectUpdateDecorator@@@@1V?$CDynamicPoolEx@VCTextureAnimationCCWDecorator@NEffectUpdateDecorator@@@@A
_DATA	SEGMENT
?ms_kPool@?$CPooledObject@VCTextureAnimationCCWDecorator@NEffectUpdateDecorator@@@@1V?$CDynamicPoolEx@VCTextureAnimationCCWDecorator@NEffectUpdateDecorator@@@@A DD FLAT:??_7?$CDynamicPoolEx@VCTextureAnimationCCWDecorator@NEffectUpdateDecorator@@@@6B@ ; CPooledObject<NEffectUpdateDecorator::CTextureAnimationCCWDecorator>::ms_kPool
	DD	00H
	DD	00H
	DD	00H
	DD	00H
	DD	00H
	DD	00H
	DD	00H
	DD	00H
_DATA	ENDS
;	COMDAT ?ms_kPool@?$CPooledObject@VCTextureAnimationCWDecorator@NEffectUpdateDecorator@@@@1V?$CDynamicPoolEx@VCTextureAnimationCWDecorator@NEffectUpdateDecorator@@@@A
_DATA	SEGMENT
?ms_kPool@?$CPooledObject@VCTextureAnimationCWDecorator@NEffectUpdateDecorator@@@@1V?$CDynamicPoolEx@VCTextureAnimationCWDecorator@NEffectUpdateDecorator@@@@A DD FLAT:??_7?$CDynamicPoolEx@VCTextureAnimationCWDecorator@NEffectUpdateDecorator@@@@6B@ ; CPooledObject<NEffectUpdateDecorator::CTextureAnimationCWDecorator>::ms_kPool
	DD	00H
	DD	00H
	DD	00H
	DD	00H
	DD	00H
	DD	00H
	DD	00H
	DD	00H
_DATA	ENDS
;	COMDAT ?ms_kPool@?$CPooledObject@VCNullDecorator@NEffectUpdateDecorator@@@@1V?$CDynamicPoolEx@VCNullDecorator@NEffectUpdateDecorator@@@@A
_DATA	SEGMENT
?ms_kPool@?$CPooledObject@VCNullDecorator@NEffectUpdateDecorator@@@@1V?$CDynamicPoolEx@VCNullDecorator@NEffectUpdateDecorator@@@@A DD FLAT:??_7?$CDynamicPoolEx@VCNullDecorator@NEffectUpdateDecorator@@@@6B@ ; CPooledObject<NEffectUpdateDecorator::CNullDecorator>::ms_kPool
	DD	00H
	DD	00H
	DD	00H
	DD	00H
	DD	00H
	DD	00H
	DD	00H
	DD	00H
_DATA	ENDS
;	COMDAT ?ms_kPool@?$CPooledObject@VCHeaderDecorator@NEffectUpdateDecorator@@@@1V?$CDynamicPoolEx@VCHeaderDecorator@NEffectUpdateDecorator@@@@A
_DATA	SEGMENT
?ms_kPool@?$CPooledObject@VCHeaderDecorator@NEffectUpdateDecorator@@@@1V?$CDynamicPoolEx@VCHeaderDecorator@NEffectUpdateDecorator@@@@A DD FLAT:??_7?$CDynamicPoolEx@VCHeaderDecorator@NEffectUpdateDecorator@@@@6B@ ; CPooledObject<NEffectUpdateDecorator::CHeaderDecorator>::ms_kPool
	DD	00H
	DD	00H
	DD	00H
	DD	00H
	DD	00H
	DD	00H
	DD	00H
	DD	00H
_DATA	ENDS
;	COMDAT ??_R1A@?0A@EA@bad_array_new_length@std@@8
rdata$r	SEGMENT
??_R1A@?0A@EA@bad_array_new_length@std@@8 DD FLAT:??_R0?AVbad_array_new_length@std@@@8 ; std::bad_array_new_length::`RTTI Base Class Descriptor at (0,-1,0,64)'
	DD	02H
	DD	00H
	DD	0ffffffffH
	DD	00H
	DD	040H
	DD	FLAT:??_R3bad_array_new_length@std@@8
rdata$r	ENDS
;	COMDAT ??_R2bad_array_new_length@std@@8
rdata$r	SEGMENT
??_R2bad_array_new_length@std@@8 DD FLAT:??_R1A@?0A@EA@bad_array_new_length@std@@8 ; std::bad_array_new_length::`RTTI Base Class Array'
	DD	FLAT:??_R1A@?0A@EA@bad_alloc@std@@8
	DD	FLAT:??_R1A@?0A@EA@exception@std@@8
rdata$r	ENDS
;	COMDAT ??_R3bad_array_new_length@std@@8
rdata$r	SEGMENT
??_R3bad_array_new_length@std@@8 DD 00H			; std::bad_array_new_length::`RTTI Class Hierarchy Descriptor'
	DD	00H
	DD	03H
	DD	FLAT:??_R2bad_array_new_length@std@@8
rdata$r	ENDS
;	COMDAT ??_R4bad_array_new_length@std@@6B@
rdata$r	SEGMENT
??_R4bad_array_new_length@std@@6B@ DD 00H		; std::bad_array_new_length::`RTTI Complete Object Locator'
	DD	00H
	DD	00H
	DD	FLAT:??_R0?AVbad_array_new_length@std@@@8
	DD	FLAT:??_R3bad_array_new_length@std@@8
rdata$r	ENDS
;	COMDAT ??_R1A@?0A@EA@bad_alloc@std@@8
rdata$r	SEGMENT
??_R1A@?0A@EA@bad_alloc@std@@8 DD FLAT:??_R0?AVbad_alloc@std@@@8 ; std::bad_alloc::`RTTI Base Class Descriptor at (0,-1,0,64)'
	DD	01H
	DD	00H
	DD	0ffffffffH
	DD	00H
	DD	040H
	DD	FLAT:??_R3bad_alloc@std@@8
rdata$r	ENDS
;	COMDAT ??_R2bad_alloc@std@@8
rdata$r	SEGMENT
??_R2bad_alloc@std@@8 DD FLAT:??_R1A@?0A@EA@bad_alloc@std@@8 ; std::bad_alloc::`RTTI Base Class Array'
	DD	FLAT:??_R1A@?0A@EA@exception@std@@8
rdata$r	ENDS
;	COMDAT ??_R3bad_alloc@std@@8
rdata$r	SEGMENT
??_R3bad_alloc@std@@8 DD 00H				; std::bad_alloc::`RTTI Class Hierarchy Descriptor'
	DD	00H
	DD	02H
	DD	FLAT:??_R2bad_alloc@std@@8
rdata$r	ENDS
;	COMDAT ??_R4bad_alloc@std@@6B@
rdata$r	SEGMENT
??_R4bad_alloc@std@@6B@ DD 00H				; std::bad_alloc::`RTTI Complete Object Locator'
	DD	00H
	DD	00H
	DD	FLAT:??_R0?AVbad_alloc@std@@@8
	DD	FLAT:??_R3bad_alloc@std@@8
rdata$r	ENDS
;	COMDAT ??_R1A@?0A@EA@exception@std@@8
rdata$r	SEGMENT
??_R1A@?0A@EA@exception@std@@8 DD FLAT:??_R0?AVexception@std@@@8 ; std::exception::`RTTI Base Class Descriptor at (0,-1,0,64)'
	DD	00H
	DD	00H
	DD	0ffffffffH
	DD	00H
	DD	040H
	DD	FLAT:??_R3exception@std@@8
rdata$r	ENDS
;	COMDAT ??_R2exception@std@@8
rdata$r	SEGMENT
??_R2exception@std@@8 DD FLAT:??_R1A@?0A@EA@exception@std@@8 ; std::exception::`RTTI Base Class Array'
rdata$r	ENDS
;	COMDAT ??_R3exception@std@@8
rdata$r	SEGMENT
??_R3exception@std@@8 DD 00H				; std::exception::`RTTI Class Hierarchy Descriptor'
	DD	00H
	DD	01H
	DD	FLAT:??_R2exception@std@@8
rdata$r	ENDS
;	COMDAT ??_R4exception@std@@6B@
rdata$r	SEGMENT
??_R4exception@std@@6B@ DD 00H				; std::exception::`RTTI Complete Object Locator'
	DD	00H
	DD	00H
	DD	FLAT:??_R0?AVexception@std@@@8
	DD	FLAT:??_R3exception@std@@8
rdata$r	ENDS
;	COMDAT ??_C@_00CNPNBAHC@@
CONST	SEGMENT
??_C@_00CNPNBAHC@@ DB 00H				; `string'
CONST	ENDS
;	COMDAT ??_C@_0BB@GCADKGJO@map?1set?5too?5long@
CONST	SEGMENT
??_C@_0BB@GCADKGJO@map?1set?5too?5long@ DB 'map/set too long', 00H ; `string'
CONST	ENDS
;	COMDAT ??_C@_0BA@JFNIOLAK@string?5too?5long@
CONST	SEGMENT
??_C@_0BA@JFNIOLAK@string?5too?5long@ DB 'string too long', 00H ; `string'
CONST	ENDS
;	COMDAT __CT??_R0?AVexception@std@@@8??0exception@std@@QAE@ABV01@@Z12
xdata$x	SEGMENT
__CT??_R0?AVexception@std@@@8??0exception@std@@QAE@ABV01@@Z12 DD 00H
	DD	FLAT:??_R0?AVexception@std@@@8
	DD	00H
	DD	0ffffffffH
	ORG $+4
	DD	0cH
	DD	FLAT:??0exception@std@@QAE@ABV01@@Z
xdata$x	ENDS
;	COMDAT ??_R0?AVexception@std@@@8
data$r	SEGMENT
??_R0?AVexception@std@@@8 DD FLAT:??_7type_info@@6B@	; std::exception `RTTI Type Descriptor'
	DD	00H
	DB	'.?AVexception@std@@', 00H
data$r	ENDS
;	COMDAT __CT??_R0?AVbad_alloc@std@@@8??0bad_alloc@std@@QAE@ABV01@@Z12
xdata$x	SEGMENT
__CT??_R0?AVbad_alloc@std@@@8??0bad_alloc@std@@QAE@ABV01@@Z12 DD 010H
	DD	FLAT:??_R0?AVbad_alloc@std@@@8
	DD	00H
	DD	0ffffffffH
	ORG $+4
	DD	0cH
	DD	FLAT:??0bad_alloc@std@@QAE@ABV01@@Z
xdata$x	ENDS
;	COMDAT ??_R0?AVbad_alloc@std@@@8
data$r	SEGMENT
??_R0?AVbad_alloc@std@@@8 DD FLAT:??_7type_info@@6B@	; std::bad_alloc `RTTI Type Descriptor'
	DD	00H
	DB	'.?AVbad_alloc@std@@', 00H
data$r	ENDS
;	COMDAT __CT??_R0?AVbad_array_new_length@std@@@8??0bad_array_new_length@std@@QAE@ABV01@@Z12
xdata$x	SEGMENT
__CT??_R0?AVbad_array_new_length@std@@@8??0bad_array_new_length@std@@QAE@ABV01@@Z12 DD 00H
	DD	FLAT:??_R0?AVbad_array_new_length@std@@@8
	DD	00H
	DD	0ffffffffH
	ORG $+4
	DD	0cH
	DD	FLAT:??0bad_array_new_length@std@@QAE@ABV01@@Z
xdata$x	ENDS
;	COMDAT ??_R0?AVbad_array_new_length@std@@@8
data$r	SEGMENT
??_R0?AVbad_array_new_length@std@@@8 DD FLAT:??_7type_info@@6B@ ; std::bad_array_new_length `RTTI Type Descriptor'
	DD	00H
	DB	'.?AVbad_array_new_length@std@@', 00H
data$r	ENDS
;	COMDAT __CTA3?AVbad_array_new_length@std@@
xdata$x	SEGMENT
__CTA3?AVbad_array_new_length@std@@ DD 03H
	DD	FLAT:__CT??_R0?AVbad_array_new_length@std@@@8??0bad_array_new_length@std@@QAE@ABV01@@Z12
	DD	FLAT:__CT??_R0?AVbad_alloc@std@@@8??0bad_alloc@std@@QAE@ABV01@@Z12
	DD	FLAT:__CT??_R0?AVexception@std@@@8??0exception@std@@QAE@ABV01@@Z12
xdata$x	ENDS
;	COMDAT __TI3?AVbad_array_new_length@std@@
xdata$x	SEGMENT
__TI3?AVbad_array_new_length@std@@ DD 00H
	DD	FLAT:??1bad_array_new_length@std@@UAE@XZ
	DD	00H
	DD	FLAT:__CTA3?AVbad_array_new_length@std@@
xdata$x	ENDS
;	COMDAT ??_C@_0BF@KINCDENJ@bad?5array?5new?5length@
CONST	SEGMENT
??_C@_0BF@KINCDENJ@bad?5array?5new?5length@ DB 'bad array new length', 00H ; `string'
CONST	ENDS
;	COMDAT ??_7bad_array_new_length@std@@6B@
CONST	SEGMENT
??_7bad_array_new_length@std@@6B@ DD FLAT:??_R4bad_array_new_length@std@@6B@ ; std::bad_array_new_length::`vftable'
	DD	FLAT:??_Ebad_array_new_length@std@@UAEPAXI@Z
	DD	FLAT:?what@exception@std@@UBEPBDXZ
CONST	ENDS
;	COMDAT ??_7bad_alloc@std@@6B@
CONST	SEGMENT
??_7bad_alloc@std@@6B@ DD FLAT:??_R4bad_alloc@std@@6B@	; std::bad_alloc::`vftable'
	DD	FLAT:??_Ebad_alloc@std@@UAEPAXI@Z
	DD	FLAT:?what@exception@std@@UBEPBDXZ
CONST	ENDS
;	COMDAT ??_C@_0BC@EOODALEL@Unknown?5exception@
CONST	SEGMENT
??_C@_0BC@EOODALEL@Unknown?5exception@ DB 'Unknown exception', 00H ; `string'
CONST	ENDS
;	COMDAT ??_7exception@std@@6B@
CONST	SEGMENT
??_7exception@std@@6B@ DD FLAT:??_R4exception@std@@6B@	; std::exception::`vftable'
	DD	FLAT:??_Eexception@std@@UAEPAXI@Z
	DD	FLAT:?what@exception@std@@UBEPBDXZ
CONST	ENDS
;	COMDAT xdata$x
xdata$x	SEGMENT
__unwindtable$??$?0U?$pair@HPAVCGraphicImage@@@std@@@?$_Tree_temp_node@V?$allocator@U?$_Tree_node@U?$pair@$$CBHPAVCGraphicImage@@@std@@PAX@std@@@std@@@std@@QAE@AAV?$allocator@U?$_Tree_node@U?$pair@$$CBHPAVCGraphicImage@@@std@@PAX@std@@@1@PAU?$_Tree_node@U?$pair@$$CBHPAVCGraphicImage@@@std@@PAX@1@$$QAU?$pair@HPAVCGraphicImage@@@1@@Z DD 0ffffffffH
	DD	FLAT:__unwindfunclet$??$?0U?$pair@HPAVCGraphicImage@@@std@@@?$_Tree_temp_node@V?$allocator@U?$_Tree_node@U?$pair@$$CBHPAVCGraphicImage@@@std@@PAX@std@@@std@@@std@@QAE@AAV?$allocator@U?$_Tree_node@U?$pair@$$CBHPAVCGraphicImage@@@std@@PAX@std@@@1@PAU?$_Tree_node@U?$pair@$$CBHPAVCGraphicImage@@@std@@PAX@1@$$QAU?$pair@HPAVCGraphicImage@@@1@@Z$1
__ehfuncinfo$??$?0U?$pair@HPAVCGraphicImage@@@std@@@?$_Tree_temp_node@V?$allocator@U?$_Tree_node@U?$pair@$$CBHPAVCGraphicImage@@@std@@PAX@std@@@std@@@std@@QAE@AAV?$allocator@U?$_Tree_node@U?$pair@$$CBHPAVCGraphicImage@@@std@@PAX@std@@@1@PAU?$_Tree_node@U?$pair@$$CBHPAVCGraphicImage@@@std@@PAX@1@$$QAU?$pair@HPAVCGraphicImage@@@1@@Z DD 019930522H
	DD	01H
	DD	FLAT:__unwindtable$??$?0U?$pair@HPAVCGraphicImage@@@std@@@?$_Tree_temp_node@V?$allocator@U?$_Tree_node@U?$pair@$$CBHPAVCGraphicImage@@@std@@PAX@std@@@std@@@std@@QAE@AAV?$allocator@U?$_Tree_node@U?$pair@$$CBHPAVCGraphicImage@@@std@@PAX@std@@@1@PAU?$_Tree_node@U?$pair@$$CBHPAVCGraphicImage@@@std@@PAX@1@$$QAU?$pair@HPAVCGraphicImage@@@1@@Z
	DD	2 DUP(00H)
	DD	2 DUP(00H)
	DD	00H
	DD	01H
xdata$x	ENDS
;	COMDAT xdata$x
xdata$x	SEGMENT
__unwindtable$??$_Emplace@U?$pair@HPAVCGraphicImage@@@std@@@?$_Tree@V?$_Tmap_traits@HPAVCGraphicImage@@U?$less@H@std@@V?$allocator@U?$pair@$$CBHPAVCGraphicImage@@@std@@@3@$0A@@std@@@std@@IAE?AU?$pair@PAU?$_Tree_node@U?$pair@$$CBHPAVCGraphicImage@@@std@@PAX@std@@_N@1@$$QAU?$pair@HPAVCGraphicImage@@@1@@Z DD 0ffffffffH
	DD	FLAT:__unwindfunclet$??$_Emplace@U?$pair@HPAVCGraphicImage@@@std@@@?$_Tree@V?$_Tmap_traits@HPAVCGraphicImage@@U?$less@H@std@@V?$allocator@U?$pair@$$CBHPAVCGraphicImage@@@std@@@3@$0A@@std@@@std@@IAE?AU?$pair@PAU?$_Tree_node@U?$pair@$$CBHPAVCGraphicImage@@@std@@PAX@std@@_N@1@$$QAU?$pair@HPAVCGraphicImage@@@1@@Z$2
__ehfuncinfo$??$_Emplace@U?$pair@HPAVCGraphicImage@@@std@@@?$_Tree@V?$_Tmap_traits@HPAVCGraphicImage@@U?$less@H@std@@V?$allocator@U?$pair@$$CBHPAVCGraphicImage@@@std@@@3@$0A@@std@@@std@@IAE?AU?$pair@PAU?$_Tree_node@U?$pair@$$CBHPAVCGraphicImage@@@std@@PAX@std@@_N@1@$$QAU?$pair@HPAVCGraphicImage@@@1@@Z DD 019930522H
	DD	01H
	DD	FLAT:__unwindtable$??$_Emplace@U?$pair@HPAVCGraphicImage@@@std@@@?$_Tree@V?$_Tmap_traits@HPAVCGraphicImage@@U?$less@H@std@@V?$allocator@U?$pair@$$CBHPAVCGraphicImage@@@std@@@3@$0A@@std@@@std@@IAE?AU?$pair@PAU?$_Tree_node@U?$pair@$$CBHPAVCGraphicImage@@@std@@PAX@std@@_N@1@$$QAU?$pair@HPAVCGraphicImage@@@1@@Z
	DD	2 DUP(00H)
	DD	2 DUP(00H)
	DD	00H
	DD	01H
xdata$x	ENDS
;	COMDAT xdata$x
xdata$x	SEGMENT
__unwindtable$??$?0ABUpiecewise_construct_t@std@@V?$tuple@ABH@1@V?$tuple@$$V@1@@?$_Tree_temp_node@V?$allocator@U?$_Tree_node@U?$pair@$$CBHPAVCGraphicImage@@@std@@PAX@std@@@std@@@std@@QAE@AAV?$allocator@U?$_Tree_node@U?$pair@$$CBHPAVCGraphicImage@@@std@@PAX@std@@@1@PAU?$_Tree_node@U?$pair@$$CBHPAVCGraphicImage@@@std@@PAX@1@ABUpiecewise_construct_t@1@$$QAV?$tuple@ABH@1@$$QAV?$tuple@$$V@1@@Z DD 0ffffffffH
	DD	FLAT:__unwindfunclet$??$?0ABUpiecewise_construct_t@std@@V?$tuple@ABH@1@V?$tuple@$$V@1@@?$_Tree_temp_node@V?$allocator@U?$_Tree_node@U?$pair@$$CBHPAVCGraphicImage@@@std@@PAX@std@@@std@@@std@@QAE@AAV?$allocator@U?$_Tree_node@U?$pair@$$CBHPAVCGraphicImage@@@std@@PAX@std@@@1@PAU?$_Tree_node@U?$pair@$$CBHPAVCGraphicImage@@@std@@PAX@1@ABUpiecewise_construct_t@1@$$QAV?$tuple@ABH@1@$$QAV?$tuple@$$V@1@@Z$1
__ehfuncinfo$??$?0ABUpiecewise_construct_t@std@@V?$tuple@ABH@1@V?$tuple@$$V@1@@?$_Tree_temp_node@V?$allocator@U?$_Tree_node@U?$pair@$$CBHPAVCGraphicImage@@@std@@PAX@std@@@std@@@std@@QAE@AAV?$allocator@U?$_Tree_node@U?$pair@$$CBHPAVCGraphicImage@@@std@@PAX@std@@@1@PAU?$_Tree_node@U?$pair@$$CBHPAVCGraphicImage@@@std@@PAX@1@ABUpiecewise_construct_t@1@$$QAV?$tuple@ABH@1@$$QAV?$tuple@$$V@1@@Z DD 019930522H
	DD	01H
	DD	FLAT:__unwindtable$??$?0ABUpiecewise_construct_t@std@@V?$tuple@ABH@1@V?$tuple@$$V@1@@?$_Tree_temp_node@V?$allocator@U?$_Tree_node@U?$pair@$$CBHPAVCGraphicImage@@@std@@PAX@std@@@std@@@std@@QAE@AAV?$allocator@U?$_Tree_node@U?$pair@$$CBHPAVCGraphicImage@@@std@@PAX@std@@@1@PAU?$_Tree_node@U?$pair@$$CBHPAVCGraphicImage@@@std@@PAX@1@ABUpiecewise_construct_t@1@$$QAV?$tuple@ABH@1@$$QAV?$tuple@$$V@1@@Z
	DD	2 DUP(00H)
	DD	2 DUP(00H)
	DD	00H
	DD	01H
xdata$x	ENDS
;	COMDAT xdata$x
xdata$x	SEGMENT
__unwindtable$??0?$_Tree_temp_node_alloc@V?$allocator@U?$_Tree_node@U?$pair@$$CBHPAVCGraphicImage@@@std@@PAX@std@@@std@@@std@@QAE@AAV?$allocator@U?$_Tree_node@U?$pair@$$CBHPAVCGraphicImage@@@std@@PAX@std@@@1@@Z DD 0ffffffffH
	DD	FLAT:__unwindfunclet$??0?$_Tree_temp_node_alloc@V?$allocator@U?$_Tree_node@U?$pair@$$CBHPAVCGraphicImage@@@std@@PAX@std@@@std@@@std@@QAE@AAV?$allocator@U?$_Tree_node@U?$pair@$$CBHPAVCGraphicImage@@@std@@PAX@std@@@1@@Z$0
__ehfuncinfo$??0?$_Tree_temp_node_alloc@V?$allocator@U?$_Tree_node@U?$pair@$$CBHPAVCGraphicImage@@@std@@PAX@std@@@std@@@std@@QAE@AAV?$allocator@U?$_Tree_node@U?$pair@$$CBHPAVCGraphicImage@@@std@@PAX@std@@@1@@Z DD 019930522H
	DD	01H
	DD	FLAT:__unwindtable$??0?$_Tree_temp_node_alloc@V?$allocator@U?$_Tree_node@U?$pair@$$CBHPAVCGraphicImage@@@std@@PAX@std@@@std@@@std@@QAE@AAV?$allocator@U?$_Tree_node@U?$pair@$$CBHPAVCGraphicImage@@@std@@PAX@std@@@1@@Z
	DD	2 DUP(00H)
	DD	2 DUP(00H)
	DD	00H
	DD	01H
xdata$x	ENDS
;	COMDAT xdata$x
xdata$x	SEGMENT
__unwindtable$??$emplace@U?$pair@HPAVCGraphicImage@@@std@@@?$_Tree@V?$_Tmap_traits@HPAVCGraphicImage@@U?$less@H@std@@V?$allocator@U?$pair@$$CBHPAVCGraphicImage@@@std@@@3@$0A@@std@@@std@@QAE?AU?$pair@V?$_Tree_iterator@V?$_Tree_val@U?$_Tree_simple_types@U?$pair@$$CBHPAVCGraphicImage@@@std@@@std@@@std@@@std@@_N@1@$$QAU?$pair@HPAVCGraphicImage@@@1@@Z DD 0ffffffffH
	DD	FLAT:__unwindfunclet$??$emplace@U?$pair@HPAVCGraphicImage@@@std@@@?$_Tree@V?$_Tmap_traits@HPAVCGraphicImage@@U?$less@H@std@@V?$allocator@U?$pair@$$CBHPAVCGraphicImage@@@std@@@3@$0A@@std@@@std@@QAE?AU?$pair@V?$_Tree_iterator@V?$_Tree_val@U?$_Tree_simple_types@U?$pair@$$CBHPAVCGraphicImage@@@std@@@std@@@std@@@std@@_N@1@$$QAU?$pair@HPAVCGraphicImage@@@1@@Z$2
__ehfuncinfo$??$emplace@U?$pair@HPAVCGraphicImage@@@std@@@?$_Tree@V?$_Tmap_traits@HPAVCGraphicImage@@U?$less@H@std@@V?$allocator@U?$pair@$$CBHPAVCGraphicImage@@@std@@@3@$0A@@std@@@std@@QAE?AU?$pair@V?$_Tree_iterator@V?$_Tree_val@U?$_Tree_simple_types@U?$pair@$$CBHPAVCGraphicImage@@@std@@@std@@@std@@@std@@_N@1@$$QAU?$pair@HPAVCGraphicImage@@@1@@Z DD 019930522H
	DD	01H
	DD	FLAT:__unwindtable$??$emplace@U?$pair@HPAVCGraphicImage@@@std@@@?$_Tree@V?$_Tmap_traits@HPAVCGraphicImage@@U?$less@H@std@@V?$allocator@U?$pair@$$CBHPAVCGraphicImage@@@std@@@3@$0A@@std@@@std@@QAE?AU?$pair@V?$_Tree_iterator@V?$_Tree_val@U?$_Tree_simple_types@U?$pair@$$CBHPAVCGraphicImage@@@std@@@std@@@std@@@std@@_N@1@$$QAU?$pair@HPAVCGraphicImage@@@1@@Z
	DD	2 DUP(00H)
	DD	2 DUP(00H)
	DD	00H
	DD	01H
xdata$x	ENDS
;	COMDAT xdata$x
xdata$x	SEGMENT
__unwindtable$??$_Try_emplace@ABH$$V@?$map@HPAVCGraphicImage@@U?$less@H@std@@V?$allocator@U?$pair@$$CBHPAVCGraphicImage@@@std@@@3@@std@@AAE?AU?$pair@PAU?$_Tree_node@U?$pair@$$CBHPAVCGraphicImage@@@std@@PAX@std@@_N@1@ABH@Z DD 0ffffffffH
	DD	FLAT:__unwindfunclet$??$_Try_emplace@ABH$$V@?$map@HPAVCGraphicImage@@U?$less@H@std@@V?$allocator@U?$pair@$$CBHPAVCGraphicImage@@@std@@@3@@std@@AAE?AU?$pair@PAU?$_Tree_node@U?$pair@$$CBHPAVCGraphicImage@@@std@@PAX@std@@_N@1@ABH@Z$2
__ehfuncinfo$??$_Try_emplace@ABH$$V@?$map@HPAVCGraphicImage@@U?$less@H@std@@V?$allocator@U?$pair@$$CBHPAVCGraphicImage@@@std@@@3@@std@@AAE?AU?$pair@PAU?$_Tree_node@U?$pair@$$CBHPAVCGraphicImage@@@std@@PAX@std@@_N@1@ABH@Z DD 019930522H
	DD	01H
	DD	FLAT:__unwindtable$??$_Try_emplace@ABH$$V@?$map@HPAVCGraphicImage@@U?$less@H@std@@V?$allocator@U?$pair@$$CBHPAVCGraphicImage@@@std@@@3@@std@@AAE?AU?$pair@PAU?$_Tree_node@U?$pair@$$CBHPAVCGraphicImage@@@std@@PAX@std@@_N@1@ABH@Z
	DD	2 DUP(00H)
	DD	2 DUP(00H)
	DD	00H
	DD	01H
xdata$x	ENDS
;	COMDAT xdata$x
xdata$x	SEGMENT
__unwindtable$?playerGetEmotionIconImage@@YAPAU_object@@PAU1@0@Z DD 0ffffffffH
	DD	FLAT:__unwindfunclet$?playerGetEmotionIconImage@@YAPAU_object@@PAU1@0@Z$2
__ehfuncinfo$?playerGetEmotionIconImage@@YAPAU_object@@PAU1@0@Z DD 019930522H
	DD	01H
	DD	FLAT:__unwindtable$?playerGetEmotionIconImage@@YAPAU_object@@PAU1@0@Z
	DD	2 DUP(00H)
	DD	2 DUP(00H)
	DD	00H
	DD	01H
xdata$x	ENDS
;	COMDAT xdata$x
xdata$x	SEGMENT
__unwindtable$??$insert@U?$pair@HPAVCGraphicImage@@@std@@$0A@@?$map@HPAVCGraphicImage@@U?$less@H@std@@V?$allocator@U?$pair@$$CBHPAVCGraphicImage@@@std@@@3@@std@@QAE?AU?$pair@V?$_Tree_iterator@V?$_Tree_val@U?$_Tree_simple_types@U?$pair@$$CBHPAVCGraphicImage@@@std@@@std@@@std@@@std@@_N@1@$$QAU?$pair@HPAVCGraphicImage@@@1@@Z DD 0ffffffffH
	DD	FLAT:__unwindfunclet$??$insert@U?$pair@HPAVCGraphicImage@@@std@@$0A@@?$map@HPAVCGraphicImage@@U?$less@H@std@@V?$allocator@U?$pair@$$CBHPAVCGraphicImage@@@std@@@3@@std@@QAE?AU?$pair@V?$_Tree_iterator@V?$_Tree_val@U?$_Tree_simple_types@U?$pair@$$CBHPAVCGraphicImage@@@std@@@std@@@std@@@std@@_N@1@$$QAU?$pair@HPAVCGraphicImage@@@1@@Z$2
__ehfuncinfo$??$insert@U?$pair@HPAVCGraphicImage@@@std@@$0A@@?$map@HPAVCGraphicImage@@U?$less@H@std@@V?$allocator@U?$pair@$$CBHPAVCGraphicImage@@@std@@@3@@std@@QAE?AU?$pair@V?$_Tree_iterator@V?$_Tree_val@U?$_Tree_simple_types@U?$pair@$$CBHPAVCGraphicImage@@@std@@@std@@@std@@@std@@_N@1@$$QAU?$pair@HPAVCGraphicImage@@@1@@Z DD 019930522H
	DD	01H
	DD	FLAT:__unwindtable$??$insert@U?$pair@HPAVCGraphicImage@@@std@@$0A@@?$map@HPAVCGraphicImage@@U?$less@H@std@@V?$allocator@U?$pair@$$CBHPAVCGraphicImage@@@std@@@3@@std@@QAE?AU?$pair@V?$_Tree_iterator@V?$_Tree_val@U?$_Tree_simple_types@U?$pair@$$CBHPAVCGraphicImage@@@std@@@std@@@std@@@std@@_N@1@$$QAU?$pair@HPAVCGraphicImage@@@1@@Z
	DD	2 DUP(00H)
	DD	2 DUP(00H)
	DD	00H
	DD	01H
xdata$x	ENDS
;	COMDAT xdata$x
xdata$x	SEGMENT
__unwindtable$?playerRegisterEmotionIcon@@YAPAU_object@@PAU1@0@Z DD 0ffffffffH
	DD	FLAT:__unwindfunclet$?playerRegisterEmotionIcon@@YAPAU_object@@PAU1@0@Z$2
__ehfuncinfo$?playerRegisterEmotionIcon@@YAPAU_object@@PAU1@0@Z DD 019930522H
	DD	01H
	DD	FLAT:__unwindtable$?playerRegisterEmotionIcon@@YAPAU_object@@PAU1@0@Z
	DD	2 DUP(00H)
	DD	2 DUP(00H)
	DD	00H
	DD	01H
xdata$x	ENDS
;	COMDAT xdata$x
xdata$x	SEGMENT
__unwindtable$?playerGetGuildName@@YAPAU_object@@PAU1@0@Z DD 0ffffffffH
	DD	FLAT:__unwindfunclet$?playerGetGuildName@@YAPAU_object@@PAU1@0@Z$0
__ehfuncinfo$?playerGetGuildName@@YAPAU_object@@PAU1@0@Z DD 019930522H
	DD	01H
	DD	FLAT:__unwindtable$?playerGetGuildName@@YAPAU_object@@PAU1@0@Z
	DD	2 DUP(00H)
	DD	2 DUP(00H)
	DD	00H
	DD	01H
xdata$x	ENDS
;	COMDAT xdata$x
xdata$x	SEGMENT
__unwindtable$??A?$map@HPAVCGraphicImage@@U?$less@H@std@@V?$allocator@U?$pair@$$CBHPAVCGraphicImage@@@std@@@3@@std@@QAEAAPAVCGraphicImage@@ABH@Z DD 0ffffffffH
	DD	FLAT:__unwindfunclet$??A?$map@HPAVCGraphicImage@@U?$less@H@std@@V?$allocator@U?$pair@$$CBHPAVCGraphicImage@@@std@@@3@@std@@QAEAAPAVCGraphicImage@@ABH@Z$2
__ehfuncinfo$??A?$map@HPAVCGraphicImage@@U?$less@H@std@@V?$allocator@U?$pair@$$CBHPAVCGraphicImage@@@std@@@3@@std@@QAEAAPAVCGraphicImage@@ABH@Z DD 019930522H
	DD	01H
	DD	FLAT:__unwindtable$??A?$map@HPAVCGraphicImage@@U?$less@H@std@@V?$allocator@U?$pair@$$CBHPAVCGraphicImage@@@std@@@3@@std@@QAEAAPAVCGraphicImage@@ABH@Z
	DD	2 DUP(00H)
	DD	2 DUP(00H)
	DD	00H
	DD	01H
xdata$x	ENDS
;	COMDAT CRT$XCU
CRT$XCU	SEGMENT
??ms_kPool$initializer$@?$CPooledObject@VCHeaderDecorator@NEffectUpdateDecorator@@@@1P6AXXZA@@3P6AXXZA DD FLAT:??__E?ms_kPool@?$CPooledObject@VCHeaderDecorator@NEffectUpdateDecorator@@@@1V?$CDynamicPoolEx@VCHeaderDecorator@NEffectUpdateDecorator@@@@A@@YAXXZ ; ??ms_kPool$initializer$@?$CPooledObject@VCHeaderDecorator@NEffectUpdateDecorator@@@@1P6AXXZA@@3P6AXXZA
CRT$XCU	ENDS
;	COMDAT CRT$XCU
CRT$XCU	SEGMENT
??ms_kPool$initializer$@?$CPooledObject@VCNullDecorator@NEffectUpdateDecorator@@@@1P6AXXZA@@3P6AXXZA DD FLAT:??__E?ms_kPool@?$CPooledObject@VCNullDecorator@NEffectUpdateDecorator@@@@1V?$CDynamicPoolEx@VCNullDecorator@NEffectUpdateDecorator@@@@A@@YAXXZ ; ??ms_kPool$initializer$@?$CPooledObject@VCNullDecorator@NEffectUpdateDecorator@@@@1P6AXXZA@@3P6AXXZA
CRT$XCU	ENDS
;	COMDAT CRT$XCU
CRT$XCU	SEGMENT
??ms_kPool$initializer$@?$CPooledObject@VCTextureAnimationCWDecorator@NEffectUpdateDecorator@@@@1P6AXXZA@@3P6AXXZA DD FLAT:??__E?ms_kPool@?$CPooledObject@VCTextureAnimationCWDecorator@NEffectUpdateDecorator@@@@1V?$CDynamicPoolEx@VCTextureAnimationCWDecorator@NEffectUpdateDecorator@@@@A@@YAXXZ ; ??ms_kPool$initializer$@?$CPooledObject@VCTextureAnimationCWDecorator@NEffectUpdateDecorator@@@@1P6AXXZA@@3P6AXXZA
CRT$XCU	ENDS
;	COMDAT CRT$XCU
CRT$XCU	SEGMENT
??ms_kPool$initializer$@?$CPooledObject@VCTextureAnimationCCWDecorator@NEffectUpdateDecorator@@@@1P6AXXZA@@3P6AXXZA DD FLAT:??__E?ms_kPool@?$CPooledObject@VCTextureAnimationCCWDecorator@NEffectUpdateDecorator@@@@1V?$CDynamicPoolEx@VCTextureAnimationCCWDecorator@NEffectUpdateDecorator@@@@A@@YAXXZ ; ??ms_kPool$initializer$@?$CPooledObject@VCTextureAnimationCCWDecorator@NEffectUpdateDecorator@@@@1P6AXXZA@@3P6AXXZA
CRT$XCU	ENDS
;	COMDAT CRT$XCU
CRT$XCU	SEGMENT
??ms_kPool$initializer$@?$CPooledObject@VCTextureAnimationRandomDecorator@NEffectUpdateDecorator@@@@1P6AXXZA@@3P6AXXZA DD FLAT:??__E?ms_kPool@?$CPooledObject@VCTextureAnimationRandomDecorator@NEffectUpdateDecorator@@@@1V?$CDynamicPoolEx@VCTextureAnimationRandomDecorator@NEffectUpdateDecorator@@@@A@@YAXXZ ; ??ms_kPool$initializer$@?$CPooledObject@VCTextureAnimationRandomDecorator@NEffectUpdateDecorator@@@@1P6AXXZA@@3P6AXXZA
CRT$XCU	ENDS
;	COMDAT CRT$XCU
CRT$XCU	SEGMENT
??ms_kPool$initializer$@?$CPooledObject@VCAirResistanceDecorator@NEffectUpdateDecorator@@@@1P6AXXZA@@3P6AXXZA DD FLAT:??__E?ms_kPool@?$CPooledObject@VCAirResistanceDecorator@NEffectUpdateDecorator@@@@1V?$CDynamicPoolEx@VCAirResistanceDecorator@NEffectUpdateDecorator@@@@A@@YAXXZ ; ??ms_kPool$initializer$@?$CPooledObject@VCAirResistanceDecorator@NEffectUpdateDecorator@@@@1P6AXXZA@@3P6AXXZA
CRT$XCU	ENDS
;	COMDAT CRT$XCU
CRT$XCU	SEGMENT
??ms_kPool$initializer$@?$CPooledObject@VCGravityDecorator@NEffectUpdateDecorator@@@@1P6AXXZA@@3P6AXXZA DD FLAT:??__E?ms_kPool@?$CPooledObject@VCGravityDecorator@NEffectUpdateDecorator@@@@1V?$CDynamicPoolEx@VCGravityDecorator@NEffectUpdateDecorator@@@@A@@YAXXZ ; ??ms_kPool$initializer$@?$CPooledObject@VCGravityDecorator@NEffectUpdateDecorator@@@@1P6AXXZA@@3P6AXXZA
CRT$XCU	ENDS
;	COMDAT CRT$XCU
CRT$XCU	SEGMENT
??ms_kPool$initializer$@?$CPooledObject@VCRotationDecorator@NEffectUpdateDecorator@@@@1P6AXXZA@@3P6AXXZA DD FLAT:??__E?ms_kPool@?$CPooledObject@VCRotationDecorator@NEffectUpdateDecorator@@@@1V?$CDynamicPoolEx@VCRotationDecorator@NEffectUpdateDecorator@@@@A@@YAXXZ ; ??ms_kPool$initializer$@?$CPooledObject@VCRotationDecorator@NEffectUpdateDecorator@@@@1P6AXXZA@@3P6AXXZA
CRT$XCU	ENDS
; Function compile flags: /Ogtp
; File C:\Program Files (x86)\Microsoft Visual Studio\2019\Community\VC\Tools\MSVC\14.28.29333\include\xmemory
;	COMDAT ??$_Construct_in_place@PAU?$_Tree_node@U?$pair@$$CBHPAVCGraphicImage@@@std@@PAX@std@@AAPAU12@@std@@YAXAAPAU?$_Tree_node@U?$pair@$$CBHPAVCGraphicImage@@@std@@PAX@0@0@Z
_TEXT	SEGMENT
__Obj$ = 8						; size = 4
_<_Args_0>$ = 12					; size = 4
??$_Construct_in_place@PAU?$_Tree_node@U?$pair@$$CBHPAVCGraphicImage@@@std@@PAX@std@@AAPAU12@@std@@YAXAAPAU?$_Tree_node@U?$pair@$$CBHPAVCGraphicImage@@@std@@PAX@0@0@Z PROC ; std::_Construct_in_place<std::_Tree_node<std::pair<int const ,CGraphicImage *>,void *> *,std::_Tree_node<std::pair<int const ,CGraphicImage *>,void *> * &>, COMDAT

; 228  : void _Construct_in_place(_Ty& _Obj, _Types&&... _Args) noexcept(is_nothrow_constructible_v<_Ty, _Types...>) {

  00000	55		 push	 ebp
  00001	8b ec		 mov	 ebp, esp

; 229  :     ::new (const_cast<void*>(static_cast<const volatile void*>(_STD addressof(_Obj))))

  00003	8b 45 0c	 mov	 eax, DWORD PTR _<_Args_0>$[ebp]
  00006	8b 08		 mov	 ecx, DWORD PTR [eax]
  00008	8b 45 08	 mov	 eax, DWORD PTR __Obj$[ebp]
  0000b	89 08		 mov	 DWORD PTR [eax], ecx

; 230  :         _Ty(_STD forward<_Types>(_Args)...);
; 231  : }

  0000d	5d		 pop	 ebp
  0000e	c3		 ret	 0
??$_Construct_in_place@PAU?$_Tree_node@U?$pair@$$CBHPAVCGraphicImage@@@std@@PAX@std@@AAPAU12@@std@@YAXAAPAU?$_Tree_node@U?$pair@$$CBHPAVCGraphicImage@@@std@@PAX@0@0@Z ENDP ; std::_Construct_in_place<std::_Tree_node<std::pair<int const ,CGraphicImage *>,void *> *,std::_Tree_node<std::pair<int const ,CGraphicImage *>,void *> * &>
_TEXT	ENDS
; Function compile flags: /Ogtp
; File C:\Program Files (x86)\Microsoft Visual Studio\2019\Community\VC\Tools\MSVC\14.28.29333\include\xmemory
;	COMDAT ??$_Destroy_in_place@PAU?$_Tree_node@U?$pair@$$CBHPAVCGraphicImage@@@std@@PAX@std@@@std@@YAXAAPAU?$_Tree_node@U?$pair@$$CBHPAVCGraphicImage@@@std@@PAX@0@@Z
_TEXT	SEGMENT
__Obj$ = 8						; size = 4
??$_Destroy_in_place@PAU?$_Tree_node@U?$pair@$$CBHPAVCGraphicImage@@@std@@PAX@std@@@std@@YAXAAPAU?$_Tree_node@U?$pair@$$CBHPAVCGraphicImage@@@std@@PAX@0@@Z PROC ; std::_Destroy_in_place<std::_Tree_node<std::pair<int const ,CGraphicImage *>,void *> *>, COMDAT

; 271  : #if _HAS_IF_CONSTEXPR
; 272  :     if constexpr (is_array_v<_Ty>) {
; 273  :         _Destroy_range(_Obj, _Obj + extent_v<_Ty>);
; 274  :     } else
; 275  : #endif // _HAS_IF_CONSTEXPR
; 276  :     {
; 277  :         _Obj.~_Ty();
; 278  :     }
; 279  : }

  00000	c2 00 00	 ret	 0
??$_Destroy_in_place@PAU?$_Tree_node@U?$pair@$$CBHPAVCGraphicImage@@@std@@PAX@std@@@std@@YAXAAPAU?$_Tree_node@U?$pair@$$CBHPAVCGraphicImage@@@std@@PAX@0@@Z ENDP ; std::_Destroy_in_place<std::_Tree_node<std::pair<int const ,CGraphicImage *>,void *> *>
_TEXT	ENDS
; Function compile flags: /Ogtp
; File C:\Program Files (x86)\Microsoft Visual Studio\2019\Community\VC\Tools\MSVC\14.28.29333\include\xmemory
;	COMDAT ??$_Construct_in_place@PAU?$_Tree_node@U?$pair@$$CBHPAVCGraphicImage@@@std@@PAX@std@@ABQAU12@@std@@YAXAAPAU?$_Tree_node@U?$pair@$$CBHPAVCGraphicImage@@@std@@PAX@0@ABQAU10@@Z
_TEXT	SEGMENT
__Obj$ = 8						; size = 4
_<_Args_0>$ = 12					; size = 4
??$_Construct_in_place@PAU?$_Tree_node@U?$pair@$$CBHPAVCGraphicImage@@@std@@PAX@std@@ABQAU12@@std@@YAXAAPAU?$_Tree_node@U?$pair@$$CBHPAVCGraphicImage@@@std@@PAX@0@ABQAU10@@Z PROC ; std::_Construct_in_place<std::_Tree_node<std::pair<int const ,CGraphicImage *>,void *> *,std::_Tree_node<std::pair<int const ,CGraphicImage *>,void *> * const &>, COMDAT

; 228  : void _Construct_in_place(_Ty& _Obj, _Types&&... _Args) noexcept(is_nothrow_constructible_v<_Ty, _Types...>) {

  00000	55		 push	 ebp
  00001	8b ec		 mov	 ebp, esp

; 229  :     ::new (const_cast<void*>(static_cast<const volatile void*>(_STD addressof(_Obj))))

  00003	8b 45 0c	 mov	 eax, DWORD PTR _<_Args_0>$[ebp]
  00006	8b 08		 mov	 ecx, DWORD PTR [eax]
  00008	8b 45 08	 mov	 eax, DWORD PTR __Obj$[ebp]
  0000b	89 08		 mov	 DWORD PTR [eax], ecx

; 230  :         _Ty(_STD forward<_Types>(_Args)...);
; 231  : }

  0000d	5d		 pop	 ebp
  0000e	c3		 ret	 0
??$_Construct_in_place@PAU?$_Tree_node@U?$pair@$$CBHPAVCGraphicImage@@@std@@PAX@std@@ABQAU12@@std@@YAXAAPAU?$_Tree_node@U?$pair@$$CBHPAVCGraphicImage@@@std@@PAX@0@ABQAU10@@Z ENDP ; std::_Construct_in_place<std::_Tree_node<std::pair<int const ,CGraphicImage *>,void *> *,std::_Tree_node<std::pair<int const ,CGraphicImage *>,void *> * const &>
_TEXT	ENDS
; Function compile flags: /Ogtp
; File C:\Program Files (x86)\Microsoft Visual Studio\2019\Community\VC\Tools\MSVC\14.28.29333\include\xtree
; File C:\Program Files (x86)\Microsoft Visual Studio\2019\Community\VC\Tools\MSVC\14.28.29333\include\utility
; File C:\Program Files (x86)\Microsoft Visual Studio\2019\Community\VC\Tools\MSVC\14.28.29333\include\xmemory
; File C:\Program Files (x86)\Microsoft Visual Studio\2019\Community\VC\Tools\MSVC\14.28.29333\include\xtree
;	COMDAT ??$_Erase_tree@V?$allocator@U?$_Tree_node@U?$pair@$$CBHPAVCGraphicImage@@@std@@PAX@std@@@std@@@?$_Tree_val@U?$_Tree_simple_types@U?$pair@$$CBHPAVCGraphicImage@@@std@@@std@@@std@@QAEXAAV?$allocator@U?$_Tree_node@U?$pair@$$CBHPAVCGraphicImage@@@std@@PAX@std@@@1@PAU?$_Tree_node@U?$pair@$$CBHPAVCGraphicImage@@@std@@PAX@1@@Z
_TEXT	SEGMENT
__Al$ = 8						; size = 4
__Rootnode$ = 12					; size = 4
??$_Erase_tree@V?$allocator@U?$_Tree_node@U?$pair@$$CBHPAVCGraphicImage@@@std@@PAX@std@@@std@@@?$_Tree_val@U?$_Tree_simple_types@U?$pair@$$CBHPAVCGraphicImage@@@std@@@std@@@std@@QAEXAAV?$allocator@U?$_Tree_node@U?$pair@$$CBHPAVCGraphicImage@@@std@@PAX@std@@@1@PAU?$_Tree_node@U?$pair@$$CBHPAVCGraphicImage@@@std@@PAX@1@@Z PROC ; std::_Tree_val<std::_Tree_simple_types<std::pair<int const ,CGraphicImage *> > >::_Erase_tree<std::allocator<std::_Tree_node<std::pair<int const ,CGraphicImage *>,void *> > >, COMDAT
; _this$ = ecx

; 742  :     void _Erase_tree(_Alnode& _Al, _Nodeptr _Rootnode) noexcept {

  00000	55		 push	 ebp
  00001	8b ec		 mov	 ebp, esp
  00003	53		 push	 ebx
  00004	56		 push	 esi

; 743  :         while (!_Rootnode->_Isnil) { // free subtrees, then node

  00005	8b 75 0c	 mov	 esi, DWORD PTR __Rootnode$[ebp]
  00008	8b d9		 mov	 ebx, ecx
  0000a	80 7e 0d 00	 cmp	 BYTE PTR [esi+13], 0
  0000e	75 25		 jne	 SHORT $LN3@Erase_tree
  00010	57		 push	 edi
  00011	8b 7d 08	 mov	 edi, DWORD PTR __Al$[ebp]
$LL2@Erase_tree:

; 744  :             _Erase_tree(_Al, _Rootnode->_Right);

  00014	ff 76 08	 push	 DWORD PTR [esi+8]
  00017	8b cb		 mov	 ecx, ebx
  00019	57		 push	 edi
  0001a	e8 00 00 00 00	 call	 ??$_Erase_tree@V?$allocator@U?$_Tree_node@U?$pair@$$CBHPAVCGraphicImage@@@std@@PAX@std@@@std@@@?$_Tree_val@U?$_Tree_simple_types@U?$pair@$$CBHPAVCGraphicImage@@@std@@@std@@@std@@QAEXAAV?$allocator@U?$_Tree_node@U?$pair@$$CBHPAVCGraphicImage@@@std@@PAX@std@@@1@PAU?$_Tree_node@U?$pair@$$CBHPAVCGraphicImage@@@std@@PAX@1@@Z ; std::_Tree_val<std::_Tree_simple_types<std::pair<int const ,CGraphicImage *> > >::_Erase_tree<std::allocator<std::_Tree_node<std::pair<int const ,CGraphicImage *>,void *> > >
; File C:\Program Files (x86)\Microsoft Visual Studio\2019\Community\VC\Tools\MSVC\14.28.29333\include\utility

; 598  :     _Ty _Old_val = static_cast<_Ty&&>(_Val);

  0001f	8b c6		 mov	 eax, esi

; 599  :     _Val         = static_cast<_Other&&>(_New_val);

  00021	8b 36		 mov	 esi, DWORD PTR [esi]
; File C:\Program Files (x86)\Microsoft Visual Studio\2019\Community\VC\Tools\MSVC\14.28.29333\include\xmemory

; 696  :         _Deallocate<_New_alignof<value_type>>(_Ptr, sizeof(value_type) * _Count);

  00023	6a 18		 push	 24			; 00000018H
  00025	50		 push	 eax
  00026	e8 00 00 00 00	 call	 ??$_Deallocate@$07$0A@@std@@YAXPAXI@Z ; std::_Deallocate<8,0>
  0002b	83 c4 08	 add	 esp, 8
; File C:\Program Files (x86)\Microsoft Visual Studio\2019\Community\VC\Tools\MSVC\14.28.29333\include\xtree

; 743  :         while (!_Rootnode->_Isnil) { // free subtrees, then node

  0002e	80 7e 0d 00	 cmp	 BYTE PTR [esi+13], 0
  00032	74 e0		 je	 SHORT $LL2@Erase_tree
  00034	5f		 pop	 edi
$LN3@Erase_tree:
  00035	5e		 pop	 esi

; 745  :             _Alnode::value_type::_Freenode(_Al, _STD exchange(_Rootnode, _Rootnode->_Left));
; 746  :         }
; 747  :     }

  00036	5b		 pop	 ebx
  00037	5d		 pop	 ebp
  00038	c2 08 00	 ret	 8
??$_Erase_tree@V?$allocator@U?$_Tree_node@U?$pair@$$CBHPAVCGraphicImage@@@std@@PAX@std@@@std@@@?$_Tree_val@U?$_Tree_simple_types@U?$pair@$$CBHPAVCGraphicImage@@@std@@@std@@@std@@QAEXAAV?$allocator@U?$_Tree_node@U?$pair@$$CBHPAVCGraphicImage@@@std@@PAX@std@@@1@PAU?$_Tree_node@U?$pair@$$CBHPAVCGraphicImage@@@std@@PAX@1@@Z ENDP ; std::_Tree_val<std::_Tree_simple_types<std::pair<int const ,CGraphicImage *> > >::_Erase_tree<std::allocator<std::_Tree_node<std::pair<int const ,CGraphicImage *>,void *> > >
_TEXT	ENDS
; Function compile flags: /Ogtp
; File C:\Program Files (x86)\Microsoft Visual Studio\2019\Community\VC\Tools\MSVC\14.28.29333\include\xmemory
;	COMDAT ??1?$_Alloc_construct_ptr@V?$allocator@U?$_Tree_node@U?$pair@$$CBHPAVCGraphicImage@@@std@@PAX@std@@@std@@@std@@QAE@XZ
_TEXT	SEGMENT
??1?$_Alloc_construct_ptr@V?$allocator@U?$_Tree_node@U?$pair@$$CBHPAVCGraphicImage@@@std@@PAX@std@@@std@@@std@@QAE@XZ PROC ; std::_Alloc_construct_ptr<std::allocator<std::_Tree_node<std::pair<int const ,CGraphicImage *>,void *> > >::~_Alloc_construct_ptr<std::allocator<std::_Tree_node<std::pair<int const ,CGraphicImage *>,void *> > >, COMDAT
; _this$ = ecx

; 1057 :         if (_Ptr) {

  00000	8b 41 04	 mov	 eax, DWORD PTR [ecx+4]
  00003	85 c0		 test	 eax, eax
  00005	74 0b		 je	 SHORT $LN2@Alloc_cons

; 810  :         _Deallocate<_New_alignof<_Ty>>(_Ptr, sizeof(_Ty) * _Count);

  00007	6a 18		 push	 24			; 00000018H
  00009	50		 push	 eax
  0000a	e8 00 00 00 00	 call	 ??$_Deallocate@$07$0A@@std@@YAXPAXI@Z ; std::_Deallocate<8,0>
  0000f	83 c4 08	 add	 esp, 8
$LN2@Alloc_cons:

; 1058 :             _Al.deallocate(_Ptr, 1);
; 1059 :         }
; 1060 :     }

  00012	c3		 ret	 0
??1?$_Alloc_construct_ptr@V?$allocator@U?$_Tree_node@U?$pair@$$CBHPAVCGraphicImage@@@std@@PAX@std@@@std@@@std@@QAE@XZ ENDP ; std::_Alloc_construct_ptr<std::allocator<std::_Tree_node<std::pair<int const ,CGraphicImage *>,void *> > >::~_Alloc_construct_ptr<std::allocator<std::_Tree_node<std::pair<int const ,CGraphicImage *>,void *> > >
_TEXT	ENDS
; Function compile flags: /Ogtp
; File C:\Program Files (x86)\Microsoft Visual Studio\2019\Community\VC\Tools\MSVC\14.28.29333\include\xtree
; File C:\Program Files (x86)\Microsoft Visual Studio\2019\Community\VC\Tools\MSVC\14.28.29333\include\xstddef
; File C:\Program Files (x86)\Microsoft Visual Studio\2019\Community\VC\Tools\MSVC\14.28.29333\include\xtree
; File C:\Program Files (x86)\Microsoft Visual Studio\2019\Community\VC\Tools\MSVC\14.28.29333\include\xstddef
; File C:\Program Files (x86)\Microsoft Visual Studio\2019\Community\VC\Tools\MSVC\14.28.29333\include\xtree
;	COMDAT ??$_Find_lower_bound@H@?$_Tree@V?$_Tmap_traits@HPAVCGraphicImage@@U?$less@H@std@@V?$allocator@U?$pair@$$CBHPAVCGraphicImage@@@std@@@3@$0A@@std@@@std@@IBE?AU?$_Tree_find_result@PAU?$_Tree_node@U?$pair@$$CBHPAVCGraphicImage@@@std@@PAX@std@@@1@ABH@Z
_TEXT	SEGMENT
___$ReturnUdt$ = 8					; size = 4
__Keyval$ = 12						; size = 4
??$_Find_lower_bound@H@?$_Tree@V?$_Tmap_traits@HPAVCGraphicImage@@U?$less@H@std@@V?$allocator@U?$pair@$$CBHPAVCGraphicImage@@@std@@@3@$0A@@std@@@std@@IBE?AU?$_Tree_find_result@PAU?$_Tree_node@U?$pair@$$CBHPAVCGraphicImage@@@std@@PAX@std@@@1@ABH@Z PROC ; std::_Tree<std::_Tmap_traits<int,CGraphicImage *,std::less<int>,std::allocator<std::pair<int const ,CGraphicImage *> >,0> >::_Find_lower_bound<int>, COMDAT
; _this$ = ecx

; 1699 :     _Tree_find_result<_Nodeptr> _Find_lower_bound(const _Keyty& _Keyval) const {

  00000	55		 push	 ebp
  00001	8b ec		 mov	 ebp, esp

; 1700 :         const auto _Scary = _Get_scary();
; 1701 :         _Tree_find_result<_Nodeptr> _Result{{_Scary->_Myhead->_Parent, _Tree_child::_Right}, _Scary->_Myhead};

  00003	8b 09		 mov	 ecx, DWORD PTR [ecx]
  00005	8b 55 08	 mov	 edx, DWORD PTR ___$ReturnUdt$[ebp]
  00008	8b 41 04	 mov	 eax, DWORD PTR [ecx+4]
  0000b	89 02		 mov	 DWORD PTR [edx], eax
  0000d	c7 42 04 00 00
	00 00		 mov	 DWORD PTR [edx+4], 0
  00014	89 4a 08	 mov	 DWORD PTR [edx+8], ecx

; 1702 :         _Nodeptr _Trynode = _Result._Location._Parent;
; 1703 :         while (!_Trynode->_Isnil) {

  00017	80 78 0d 00	 cmp	 BYTE PTR [eax+13], 0
  0001b	75 28		 jne	 SHORT $LN12@Find_lower
; File C:\Program Files (x86)\Microsoft Visual Studio\2019\Community\VC\Tools\MSVC\14.28.29333\include\xstddef

; 127  :         return _Left < _Right;

  0001d	8b 4d 0c	 mov	 ecx, DWORD PTR __Keyval$[ebp]
  00020	56		 push	 esi
  00021	8b 31		 mov	 esi, DWORD PTR [ecx]
$LL2@Find_lower:
; File C:\Program Files (x86)\Microsoft Visual Studio\2019\Community\VC\Tools\MSVC\14.28.29333\include\xtree

; 1704 :             _Result._Location._Parent = _Trynode;

  00023	89 02		 mov	 DWORD PTR [edx], eax
; File C:\Program Files (x86)\Microsoft Visual Studio\2019\Community\VC\Tools\MSVC\14.28.29333\include\xstddef

; 127  :         return _Left < _Right;

  00025	39 70 10	 cmp	 DWORD PTR [eax+16], esi
; File C:\Program Files (x86)\Microsoft Visual Studio\2019\Community\VC\Tools\MSVC\14.28.29333\include\xtree

; 1705 :             if (_DEBUG_LT_PRED(_Getcomp(), _Traits::_Kfn(_Trynode->_Myval), _Keyval)) {

  00028	7d 07		 jge	 SHORT $LN4@Find_lower

; 1706 :                 _Result._Location._Child = _Tree_child::_Right;
; 1707 :                 _Trynode                 = _Trynode->_Right;

  0002a	8b 40 08	 mov	 eax, DWORD PTR [eax+8]
  0002d	33 c9		 xor	 ecx, ecx

; 1708 :             } else {

  0002f	eb 0a		 jmp	 SHORT $LN5@Find_lower
$LN4@Find_lower:

; 1709 :                 _Result._Location._Child = _Tree_child::_Left;
; 1710 :                 _Result._Bound           = _Trynode;

  00031	89 42 08	 mov	 DWORD PTR [edx+8], eax

; 1711 :                 _Trynode                 = _Trynode->_Left;

  00034	b9 01 00 00 00	 mov	 ecx, 1
  00039	8b 00		 mov	 eax, DWORD PTR [eax]
$LN5@Find_lower:

; 1702 :         _Nodeptr _Trynode = _Result._Location._Parent;
; 1703 :         while (!_Trynode->_Isnil) {

  0003b	89 4a 04	 mov	 DWORD PTR [edx+4], ecx
  0003e	80 78 0d 00	 cmp	 BYTE PTR [eax+13], 0
  00042	74 df		 je	 SHORT $LL2@Find_lower

; 1712 :             }
; 1713 :         }
; 1714 : 
; 1715 :         return _Result;

  00044	5e		 pop	 esi
$LN12@Find_lower:

; 1716 :     }

  00045	8b c2		 mov	 eax, edx
  00047	5d		 pop	 ebp
  00048	c2 08 00	 ret	 8
??$_Find_lower_bound@H@?$_Tree@V?$_Tmap_traits@HPAVCGraphicImage@@U?$less@H@std@@V?$allocator@U?$pair@$$CBHPAVCGraphicImage@@@std@@@3@$0A@@std@@@std@@IBE?AU?$_Tree_find_result@PAU?$_Tree_node@U?$pair@$$CBHPAVCGraphicImage@@@std@@PAX@std@@@1@ABH@Z ENDP ; std::_Tree<std::_Tmap_traits<int,CGraphicImage *,std::less<int>,std::allocator<std::pair<int const ,CGraphicImage *> >,0> >::_Find_lower_bound<int>
_TEXT	ENDS
; Function compile flags: /Ogtp
;	COMDAT ??__F?ms_kPool@?$CPooledObject@VCRotationDecorator@NEffectUpdateDecorator@@@@1V?$CDynamicPoolEx@VCRotationDecorator@NEffectUpdateDecorator@@@@A@@YAXXZ
text$yd	SEGMENT
??__F?ms_kPool@?$CPooledObject@VCRotationDecorator@NEffectUpdateDecorator@@@@1V?$CDynamicPoolEx@VCRotationDecorator@NEffectUpdateDecorator@@@@A@@YAXXZ PROC ; `dynamic atexit destructor for 'CPooledObject<NEffectUpdateDecorator::CRotationDecorator>::ms_kPool'', COMDAT
  00000	b9 00 00 00 00	 mov	 ecx, OFFSET ?ms_kPool@?$CPooledObject@VCRotationDecorator@NEffectUpdateDecorator@@@@1V?$CDynamicPoolEx@VCRotationDecorator@NEffectUpdateDecorator@@@@A ; CPooledObject<NEffectUpdateDecorator::CRotationDecorator>::ms_kPool
  00005	e9 00 00 00 00	 jmp	 ??1?$CDynamicPoolEx@VCRotationDecorator@NEffectUpdateDecorator@@@@UAE@XZ ; CDynamicPoolEx<NEffectUpdateDecorator::CRotationDecorator>::~CDynamicPoolEx<NEffectUpdateDecorator::CRotationDecorator>
??__F?ms_kPool@?$CPooledObject@VCRotationDecorator@NEffectUpdateDecorator@@@@1V?$CDynamicPoolEx@VCRotationDecorator@NEffectUpdateDecorator@@@@A@@YAXXZ ENDP ; `dynamic atexit destructor for 'CPooledObject<NEffectUpdateDecorator::CRotationDecorator>::ms_kPool''
text$yd	ENDS
; Function compile flags: /Ogtp
; File D:\Metin2 Server Files\mainline\SRC_2014\Metin2Client\eterLib\Pool.h
;	COMDAT ??__E?ms_kPool@?$CPooledObject@VCRotationDecorator@NEffectUpdateDecorator@@@@1V?$CDynamicPoolEx@VCRotationDecorator@NEffectUpdateDecorator@@@@A@@YAXXZ
text$di	SEGMENT
??__E?ms_kPool@?$CPooledObject@VCRotationDecorator@NEffectUpdateDecorator@@@@1V?$CDynamicPoolEx@VCRotationDecorator@NEffectUpdateDecorator@@@@A@@YAXXZ PROC ; `dynamic initializer for 'CPooledObject<NEffectUpdateDecorator::CRotationDecorator>::ms_kPool'', COMDAT

; 272  : template <class T> CDynamicPoolEx<T> CPooledObject<T>::ms_kPool;

  00000	68 00 00 00 00	 push	 OFFSET ??__F?ms_kPool@?$CPooledObject@VCRotationDecorator@NEffectUpdateDecorator@@@@1V?$CDynamicPoolEx@VCRotationDecorator@NEffectUpdateDecorator@@@@A@@YAXXZ ; `dynamic atexit destructor for 'CPooledObject<NEffectUpdateDecorator::CRotationDecorator>::ms_kPool''
  00005	e8 00 00 00 00	 call	 _atexit
  0000a	59		 pop	 ecx
  0000b	c3		 ret	 0
??__E?ms_kPool@?$CPooledObject@VCRotationDecorator@NEffectUpdateDecorator@@@@1V?$CDynamicPoolEx@VCRotationDecorator@NEffectUpdateDecorator@@@@A@@YAXXZ ENDP ; `dynamic initializer for 'CPooledObject<NEffectUpdateDecorator::CRotationDecorator>::ms_kPool''
text$di	ENDS
; Function compile flags: /Ogtp
;	COMDAT ??__F?ms_kPool@?$CPooledObject@VCGravityDecorator@NEffectUpdateDecorator@@@@1V?$CDynamicPoolEx@VCGravityDecorator@NEffectUpdateDecorator@@@@A@@YAXXZ
text$yd	SEGMENT
??__F?ms_kPool@?$CPooledObject@VCGravityDecorator@NEffectUpdateDecorator@@@@1V?$CDynamicPoolEx@VCGravityDecorator@NEffectUpdateDecorator@@@@A@@YAXXZ PROC ; `dynamic atexit destructor for 'CPooledObject<NEffectUpdateDecorator::CGravityDecorator>::ms_kPool'', COMDAT
  00000	b9 00 00 00 00	 mov	 ecx, OFFSET ?ms_kPool@?$CPooledObject@VCGravityDecorator@NEffectUpdateDecorator@@@@1V?$CDynamicPoolEx@VCGravityDecorator@NEffectUpdateDecorator@@@@A ; CPooledObject<NEffectUpdateDecorator::CGravityDecorator>::ms_kPool
  00005	e9 00 00 00 00	 jmp	 ??1?$CDynamicPoolEx@VCGravityDecorator@NEffectUpdateDecorator@@@@UAE@XZ ; CDynamicPoolEx<NEffectUpdateDecorator::CGravityDecorator>::~CDynamicPoolEx<NEffectUpdateDecorator::CGravityDecorator>
??__F?ms_kPool@?$CPooledObject@VCGravityDecorator@NEffectUpdateDecorator@@@@1V?$CDynamicPoolEx@VCGravityDecorator@NEffectUpdateDecorator@@@@A@@YAXXZ ENDP ; `dynamic atexit destructor for 'CPooledObject<NEffectUpdateDecorator::CGravityDecorator>::ms_kPool''
text$yd	ENDS
; Function compile flags: /Ogtp
; File D:\Metin2 Server Files\mainline\SRC_2014\Metin2Client\eterLib\Pool.h
;	COMDAT ??__E?ms_kPool@?$CPooledObject@VCGravityDecorator@NEffectUpdateDecorator@@@@1V?$CDynamicPoolEx@VCGravityDecorator@NEffectUpdateDecorator@@@@A@@YAXXZ
text$di	SEGMENT
??__E?ms_kPool@?$CPooledObject@VCGravityDecorator@NEffectUpdateDecorator@@@@1V?$CDynamicPoolEx@VCGravityDecorator@NEffectUpdateDecorator@@@@A@@YAXXZ PROC ; `dynamic initializer for 'CPooledObject<NEffectUpdateDecorator::CGravityDecorator>::ms_kPool'', COMDAT

; 272  : template <class T> CDynamicPoolEx<T> CPooledObject<T>::ms_kPool;

  00000	68 00 00 00 00	 push	 OFFSET ??__F?ms_kPool@?$CPooledObject@VCGravityDecorator@NEffectUpdateDecorator@@@@1V?$CDynamicPoolEx@VCGravityDecorator@NEffectUpdateDecorator@@@@A@@YAXXZ ; `dynamic atexit destructor for 'CPooledObject<NEffectUpdateDecorator::CGravityDecorator>::ms_kPool''
  00005	e8 00 00 00 00	 call	 _atexit
  0000a	59		 pop	 ecx
  0000b	c3		 ret	 0
??__E?ms_kPool@?$CPooledObject@VCGravityDecorator@NEffectUpdateDecorator@@@@1V?$CDynamicPoolEx@VCGravityDecorator@NEffectUpdateDecorator@@@@A@@YAXXZ ENDP ; `dynamic initializer for 'CPooledObject<NEffectUpdateDecorator::CGravityDecorator>::ms_kPool''
text$di	ENDS
; Function compile flags: /Ogtp
;	COMDAT ??__F?ms_kPool@?$CPooledObject@VCAirResistanceDecorator@NEffectUpdateDecorator@@@@1V?$CDynamicPoolEx@VCAirResistanceDecorator@NEffectUpdateDecorator@@@@A@@YAXXZ
text$yd	SEGMENT
??__F?ms_kPool@?$CPooledObject@VCAirResistanceDecorator@NEffectUpdateDecorator@@@@1V?$CDynamicPoolEx@VCAirResistanceDecorator@NEffectUpdateDecorator@@@@A@@YAXXZ PROC ; `dynamic atexit destructor for 'CPooledObject<NEffectUpdateDecorator::CAirResistanceDecorator>::ms_kPool'', COMDAT
  00000	b9 00 00 00 00	 mov	 ecx, OFFSET ?ms_kPool@?$CPooledObject@VCAirResistanceDecorator@NEffectUpdateDecorator@@@@1V?$CDynamicPoolEx@VCAirResistanceDecorator@NEffectUpdateDecorator@@@@A ; CPooledObject<NEffectUpdateDecorator::CAirResistanceDecorator>::ms_kPool
  00005	e9 00 00 00 00	 jmp	 ??1?$CDynamicPoolEx@VCAirResistanceDecorator@NEffectUpdateDecorator@@@@UAE@XZ ; CDynamicPoolEx<NEffectUpdateDecorator::CAirResistanceDecorator>::~CDynamicPoolEx<NEffectUpdateDecorator::CAirResistanceDecorator>
??__F?ms_kPool@?$CPooledObject@VCAirResistanceDecorator@NEffectUpdateDecorator@@@@1V?$CDynamicPoolEx@VCAirResistanceDecorator@NEffectUpdateDecorator@@@@A@@YAXXZ ENDP ; `dynamic atexit destructor for 'CPooledObject<NEffectUpdateDecorator::CAirResistanceDecorator>::ms_kPool''
text$yd	ENDS
; Function compile flags: /Ogtp
; File D:\Metin2 Server Files\mainline\SRC_2014\Metin2Client\eterLib\Pool.h
;	COMDAT ??__E?ms_kPool@?$CPooledObject@VCAirResistanceDecorator@NEffectUpdateDecorator@@@@1V?$CDynamicPoolEx@VCAirResistanceDecorator@NEffectUpdateDecorator@@@@A@@YAXXZ
text$di	SEGMENT
??__E?ms_kPool@?$CPooledObject@VCAirResistanceDecorator@NEffectUpdateDecorator@@@@1V?$CDynamicPoolEx@VCAirResistanceDecorator@NEffectUpdateDecorator@@@@A@@YAXXZ PROC ; `dynamic initializer for 'CPooledObject<NEffectUpdateDecorator::CAirResistanceDecorator>::ms_kPool'', COMDAT

; 272  : template <class T> CDynamicPoolEx<T> CPooledObject<T>::ms_kPool;

  00000	68 00 00 00 00	 push	 OFFSET ??__F?ms_kPool@?$CPooledObject@VCAirResistanceDecorator@NEffectUpdateDecorator@@@@1V?$CDynamicPoolEx@VCAirResistanceDecorator@NEffectUpdateDecorator@@@@A@@YAXXZ ; `dynamic atexit destructor for 'CPooledObject<NEffectUpdateDecorator::CAirResistanceDecorator>::ms_kPool''
  00005	e8 00 00 00 00	 call	 _atexit
  0000a	59		 pop	 ecx
  0000b	c3		 ret	 0
??__E?ms_kPool@?$CPooledObject@VCAirResistanceDecorator@NEffectUpdateDecorator@@@@1V?$CDynamicPoolEx@VCAirResistanceDecorator@NEffectUpdateDecorator@@@@A@@YAXXZ ENDP ; `dynamic initializer for 'CPooledObject<NEffectUpdateDecorator::CAirResistanceDecorator>::ms_kPool''
text$di	ENDS
; Function compile flags: /Ogtp
;	COMDAT ??__F?ms_kPool@?$CPooledObject@VCTextureAnimationRandomDecorator@NEffectUpdateDecorator@@@@1V?$CDynamicPoolEx@VCTextureAnimationRandomDecorator@NEffectUpdateDecorator@@@@A@@YAXXZ
text$yd	SEGMENT
??__F?ms_kPool@?$CPooledObject@VCTextureAnimationRandomDecorator@NEffectUpdateDecorator@@@@1V?$CDynamicPoolEx@VCTextureAnimationRandomDecorator@NEffectUpdateDecorator@@@@A@@YAXXZ PROC ; `dynamic atexit destructor for 'CPooledObject<NEffectUpdateDecorator::CTextureAnimationRandomDecorator>::ms_kPool'', COMDAT
  00000	b9 00 00 00 00	 mov	 ecx, OFFSET ?ms_kPool@?$CPooledObject@VCTextureAnimationRandomDecorator@NEffectUpdateDecorator@@@@1V?$CDynamicPoolEx@VCTextureAnimationRandomDecorator@NEffectUpdateDecorator@@@@A ; CPooledObject<NEffectUpdateDecorator::CTextureAnimationRandomDecorator>::ms_kPool
  00005	e9 00 00 00 00	 jmp	 ??1?$CDynamicPoolEx@VCTextureAnimationRandomDecorator@NEffectUpdateDecorator@@@@UAE@XZ ; CDynamicPoolEx<NEffectUpdateDecorator::CTextureAnimationRandomDecorator>::~CDynamicPoolEx<NEffectUpdateDecorator::CTextureAnimationRandomDecorator>
??__F?ms_kPool@?$CPooledObject@VCTextureAnimationRandomDecorator@NEffectUpdateDecorator@@@@1V?$CDynamicPoolEx@VCTextureAnimationRandomDecorator@NEffectUpdateDecorator@@@@A@@YAXXZ ENDP ; `dynamic atexit destructor for 'CPooledObject<NEffectUpdateDecorator::CTextureAnimationRandomDecorator>::ms_kPool''
text$yd	ENDS
; Function compile flags: /Ogtp
; File D:\Metin2 Server Files\mainline\SRC_2014\Metin2Client\eterLib\Pool.h
;	COMDAT ??__E?ms_kPool@?$CPooledObject@VCTextureAnimationRandomDecorator@NEffectUpdateDecorator@@@@1V?$CDynamicPoolEx@VCTextureAnimationRandomDecorator@NEffectUpdateDecorator@@@@A@@YAXXZ
text$di	SEGMENT
??__E?ms_kPool@?$CPooledObject@VCTextureAnimationRandomDecorator@NEffectUpdateDecorator@@@@1V?$CDynamicPoolEx@VCTextureAnimationRandomDecorator@NEffectUpdateDecorator@@@@A@@YAXXZ PROC ; `dynamic initializer for 'CPooledObject<NEffectUpdateDecorator::CTextureAnimationRandomDecorator>::ms_kPool'', COMDAT

; 272  : template <class T> CDynamicPoolEx<T> CPooledObject<T>::ms_kPool;

  00000	68 00 00 00 00	 push	 OFFSET ??__F?ms_kPool@?$CPooledObject@VCTextureAnimationRandomDecorator@NEffectUpdateDecorator@@@@1V?$CDynamicPoolEx@VCTextureAnimationRandomDecorator@NEffectUpdateDecorator@@@@A@@YAXXZ ; `dynamic atexit destructor for 'CPooledObject<NEffectUpdateDecorator::CTextureAnimationRandomDecorator>::ms_kPool''
  00005	e8 00 00 00 00	 call	 _atexit
  0000a	59		 pop	 ecx
  0000b	c3		 ret	 0
??__E?ms_kPool@?$CPooledObject@VCTextureAnimationRandomDecorator@NEffectUpdateDecorator@@@@1V?$CDynamicPoolEx@VCTextureAnimationRandomDecorator@NEffectUpdateDecorator@@@@A@@YAXXZ ENDP ; `dynamic initializer for 'CPooledObject<NEffectUpdateDecorator::CTextureAnimationRandomDecorator>::ms_kPool''
text$di	ENDS
; Function compile flags: /Ogtp
;	COMDAT ??__F?ms_kPool@?$CPooledObject@VCTextureAnimationCCWDecorator@NEffectUpdateDecorator@@@@1V?$CDynamicPoolEx@VCTextureAnimationCCWDecorator@NEffectUpdateDecorator@@@@A@@YAXXZ
text$yd	SEGMENT
??__F?ms_kPool@?$CPooledObject@VCTextureAnimationCCWDecorator@NEffectUpdateDecorator@@@@1V?$CDynamicPoolEx@VCTextureAnimationCCWDecorator@NEffectUpdateDecorator@@@@A@@YAXXZ PROC ; `dynamic atexit destructor for 'CPooledObject<NEffectUpdateDecorator::CTextureAnimationCCWDecorator>::ms_kPool'', COMDAT
  00000	b9 00 00 00 00	 mov	 ecx, OFFSET ?ms_kPool@?$CPooledObject@VCTextureAnimationCCWDecorator@NEffectUpdateDecorator@@@@1V?$CDynamicPoolEx@VCTextureAnimationCCWDecorator@NEffectUpdateDecorator@@@@A ; CPooledObject<NEffectUpdateDecorator::CTextureAnimationCCWDecorator>::ms_kPool
  00005	e9 00 00 00 00	 jmp	 ??1?$CDynamicPoolEx@VCTextureAnimationCCWDecorator@NEffectUpdateDecorator@@@@UAE@XZ ; CDynamicPoolEx<NEffectUpdateDecorator::CTextureAnimationCCWDecorator>::~CDynamicPoolEx<NEffectUpdateDecorator::CTextureAnimationCCWDecorator>
??__F?ms_kPool@?$CPooledObject@VCTextureAnimationCCWDecorator@NEffectUpdateDecorator@@@@1V?$CDynamicPoolEx@VCTextureAnimationCCWDecorator@NEffectUpdateDecorator@@@@A@@YAXXZ ENDP ; `dynamic atexit destructor for 'CPooledObject<NEffectUpdateDecorator::CTextureAnimationCCWDecorator>::ms_kPool''
text$yd	ENDS
; Function compile flags: /Ogtp
; File D:\Metin2 Server Files\mainline\SRC_2014\Metin2Client\eterLib\Pool.h
;	COMDAT ??__E?ms_kPool@?$CPooledObject@VCTextureAnimationCCWDecorator@NEffectUpdateDecorator@@@@1V?$CDynamicPoolEx@VCTextureAnimationCCWDecorator@NEffectUpdateDecorator@@@@A@@YAXXZ
text$di	SEGMENT
??__E?ms_kPool@?$CPooledObject@VCTextureAnimationCCWDecorator@NEffectUpdateDecorator@@@@1V?$CDynamicPoolEx@VCTextureAnimationCCWDecorator@NEffectUpdateDecorator@@@@A@@YAXXZ PROC ; `dynamic initializer for 'CPooledObject<NEffectUpdateDecorator::CTextureAnimationCCWDecorator>::ms_kPool'', COMDAT

; 272  : template <class T> CDynamicPoolEx<T> CPooledObject<T>::ms_kPool;

  00000	68 00 00 00 00	 push	 OFFSET ??__F?ms_kPool@?$CPooledObject@VCTextureAnimationCCWDecorator@NEffectUpdateDecorator@@@@1V?$CDynamicPoolEx@VCTextureAnimationCCWDecorator@NEffectUpdateDecorator@@@@A@@YAXXZ ; `dynamic atexit destructor for 'CPooledObject<NEffectUpdateDecorator::CTextureAnimationCCWDecorator>::ms_kPool''
  00005	e8 00 00 00 00	 call	 _atexit
  0000a	59		 pop	 ecx
  0000b	c3		 ret	 0
??__E?ms_kPool@?$CPooledObject@VCTextureAnimationCCWDecorator@NEffectUpdateDecorator@@@@1V?$CDynamicPoolEx@VCTextureAnimationCCWDecorator@NEffectUpdateDecorator@@@@A@@YAXXZ ENDP ; `dynamic initializer for 'CPooledObject<NEffectUpdateDecorator::CTextureAnimationCCWDecorator>::ms_kPool''
text$di	ENDS
; Function compile flags: /Ogtp
;	COMDAT ??__F?ms_kPool@?$CPooledObject@VCTextureAnimationCWDecorator@NEffectUpdateDecorator@@@@1V?$CDynamicPoolEx@VCTextureAnimationCWDecorator@NEffectUpdateDecorator@@@@A@@YAXXZ
text$yd	SEGMENT
??__F?ms_kPool@?$CPooledObject@VCTextureAnimationCWDecorator@NEffectUpdateDecorator@@@@1V?$CDynamicPoolEx@VCTextureAnimationCWDecorator@NEffectUpdateDecorator@@@@A@@YAXXZ PROC ; `dynamic atexit destructor for 'CPooledObject<NEffectUpdateDecorator::CTextureAnimationCWDecorator>::ms_kPool'', COMDAT
  00000	b9 00 00 00 00	 mov	 ecx, OFFSET ?ms_kPool@?$CPooledObject@VCTextureAnimationCWDecorator@NEffectUpdateDecorator@@@@1V?$CDynamicPoolEx@VCTextureAnimationCWDecorator@NEffectUpdateDecorator@@@@A ; CPooledObject<NEffectUpdateDecorator::CTextureAnimationCWDecorator>::ms_kPool
  00005	e9 00 00 00 00	 jmp	 ??1?$CDynamicPoolEx@VCTextureAnimationCWDecorator@NEffectUpdateDecorator@@@@UAE@XZ ; CDynamicPoolEx<NEffectUpdateDecorator::CTextureAnimationCWDecorator>::~CDynamicPoolEx<NEffectUpdateDecorator::CTextureAnimationCWDecorator>
??__F?ms_kPool@?$CPooledObject@VCTextureAnimationCWDecorator@NEffectUpdateDecorator@@@@1V?$CDynamicPoolEx@VCTextureAnimationCWDecorator@NEffectUpdateDecorator@@@@A@@YAXXZ ENDP ; `dynamic atexit destructor for 'CPooledObject<NEffectUpdateDecorator::CTextureAnimationCWDecorator>::ms_kPool''
text$yd	ENDS
; Function compile flags: /Ogtp
; File D:\Metin2 Server Files\mainline\SRC_2014\Metin2Client\eterLib\Pool.h
;	COMDAT ??__E?ms_kPool@?$CPooledObject@VCTextureAnimationCWDecorator@NEffectUpdateDecorator@@@@1V?$CDynamicPoolEx@VCTextureAnimationCWDecorator@NEffectUpdateDecorator@@@@A@@YAXXZ
text$di	SEGMENT
??__E?ms_kPool@?$CPooledObject@VCTextureAnimationCWDecorator@NEffectUpdateDecorator@@@@1V?$CDynamicPoolEx@VCTextureAnimationCWDecorator@NEffectUpdateDecorator@@@@A@@YAXXZ PROC ; `dynamic initializer for 'CPooledObject<NEffectUpdateDecorator::CTextureAnimationCWDecorator>::ms_kPool'', COMDAT

; 272  : template <class T> CDynamicPoolEx<T> CPooledObject<T>::ms_kPool;

  00000	68 00 00 00 00	 push	 OFFSET ??__F?ms_kPool@?$CPooledObject@VCTextureAnimationCWDecorator@NEffectUpdateDecorator@@@@1V?$CDynamicPoolEx@VCTextureAnimationCWDecorator@NEffectUpdateDecorator@@@@A@@YAXXZ ; `dynamic atexit destructor for 'CPooledObject<NEffectUpdateDecorator::CTextureAnimationCWDecorator>::ms_kPool''
  00005	e8 00 00 00 00	 call	 _atexit
  0000a	59		 pop	 ecx
  0000b	c3		 ret	 0
??__E?ms_kPool@?$CPooledObject@VCTextureAnimationCWDecorator@NEffectUpdateDecorator@@@@1V?$CDynamicPoolEx@VCTextureAnimationCWDecorator@NEffectUpdateDecorator@@@@A@@YAXXZ ENDP ; `dynamic initializer for 'CPooledObject<NEffectUpdateDecorator::CTextureAnimationCWDecorator>::ms_kPool''
text$di	ENDS
; Function compile flags: /Ogtp
;	COMDAT ??__F?ms_kPool@?$CPooledObject@VCNullDecorator@NEffectUpdateDecorator@@@@1V?$CDynamicPoolEx@VCNullDecorator@NEffectUpdateDecorator@@@@A@@YAXXZ
text$yd	SEGMENT
??__F?ms_kPool@?$CPooledObject@VCNullDecorator@NEffectUpdateDecorator@@@@1V?$CDynamicPoolEx@VCNullDecorator@NEffectUpdateDecorator@@@@A@@YAXXZ PROC ; `dynamic atexit destructor for 'CPooledObject<NEffectUpdateDecorator::CNullDecorator>::ms_kPool'', COMDAT
  00000	b9 00 00 00 00	 mov	 ecx, OFFSET ?ms_kPool@?$CPooledObject@VCNullDecorator@NEffectUpdateDecorator@@@@1V?$CDynamicPoolEx@VCNullDecorator@NEffectUpdateDecorator@@@@A ; CPooledObject<NEffectUpdateDecorator::CNullDecorator>::ms_kPool
  00005	e9 00 00 00 00	 jmp	 ??1?$CDynamicPoolEx@VCNullDecorator@NEffectUpdateDecorator@@@@UAE@XZ ; CDynamicPoolEx<NEffectUpdateDecorator::CNullDecorator>::~CDynamicPoolEx<NEffectUpdateDecorator::CNullDecorator>
??__F?ms_kPool@?$CPooledObject@VCNullDecorator@NEffectUpdateDecorator@@@@1V?$CDynamicPoolEx@VCNullDecorator@NEffectUpdateDecorator@@@@A@@YAXXZ ENDP ; `dynamic atexit destructor for 'CPooledObject<NEffectUpdateDecorator::CNullDecorator>::ms_kPool''
text$yd	ENDS
; Function compile flags: /Ogtp
; File D:\Metin2 Server Files\mainline\SRC_2014\Metin2Client\eterLib\Pool.h
;	COMDAT ??__E?ms_kPool@?$CPooledObject@VCNullDecorator@NEffectUpdateDecorator@@@@1V?$CDynamicPoolEx@VCNullDecorator@NEffectUpdateDecorator@@@@A@@YAXXZ
text$di	SEGMENT
??__E?ms_kPool@?$CPooledObject@VCNullDecorator@NEffectUpdateDecorator@@@@1V?$CDynamicPoolEx@VCNullDecorator@NEffectUpdateDecorator@@@@A@@YAXXZ PROC ; `dynamic initializer for 'CPooledObject<NEffectUpdateDecorator::CNullDecorator>::ms_kPool'', COMDAT

; 272  : template <class T> CDynamicPoolEx<T> CPooledObject<T>::ms_kPool;

  00000	68 00 00 00 00	 push	 OFFSET ??__F?ms_kPool@?$CPooledObject@VCNullDecorator@NEffectUpdateDecorator@@@@1V?$CDynamicPoolEx@VCNullDecorator@NEffectUpdateDecorator@@@@A@@YAXXZ ; `dynamic atexit destructor for 'CPooledObject<NEffectUpdateDecorator::CNullDecorator>::ms_kPool''
  00005	e8 00 00 00 00	 call	 _atexit
  0000a	59		 pop	 ecx
  0000b	c3		 ret	 0
??__E?ms_kPool@?$CPooledObject@VCNullDecorator@NEffectUpdateDecorator@@@@1V?$CDynamicPoolEx@VCNullDecorator@NEffectUpdateDecorator@@@@A@@YAXXZ ENDP ; `dynamic initializer for 'CPooledObject<NEffectUpdateDecorator::CNullDecorator>::ms_kPool''
text$di	ENDS
; Function compile flags: /Ogtp
;	COMDAT ??__F?ms_kPool@?$CPooledObject@VCHeaderDecorator@NEffectUpdateDecorator@@@@1V?$CDynamicPoolEx@VCHeaderDecorator@NEffectUpdateDecorator@@@@A@@YAXXZ
text$yd	SEGMENT
??__F?ms_kPool@?$CPooledObject@VCHeaderDecorator@NEffectUpdateDecorator@@@@1V?$CDynamicPoolEx@VCHeaderDecorator@NEffectUpdateDecorator@@@@A@@YAXXZ PROC ; `dynamic atexit destructor for 'CPooledObject<NEffectUpdateDecorator::CHeaderDecorator>::ms_kPool'', COMDAT
  00000	b9 00 00 00 00	 mov	 ecx, OFFSET ?ms_kPool@?$CPooledObject@VCHeaderDecorator@NEffectUpdateDecorator@@@@1V?$CDynamicPoolEx@VCHeaderDecorator@NEffectUpdateDecorator@@@@A ; CPooledObject<NEffectUpdateDecorator::CHeaderDecorator>::ms_kPool
  00005	e9 00 00 00 00	 jmp	 ??1?$CDynamicPoolEx@VCHeaderDecorator@NEffectUpdateDecorator@@@@UAE@XZ ; CDynamicPoolEx<NEffectUpdateDecorator::CHeaderDecorator>::~CDynamicPoolEx<NEffectUpdateDecorator::CHeaderDecorator>
??__F?ms_kPool@?$CPooledObject@VCHeaderDecorator@NEffectUpdateDecorator@@@@1V?$CDynamicPoolEx@VCHeaderDecorator@NEffectUpdateDecorator@@@@A@@YAXXZ ENDP ; `dynamic atexit destructor for 'CPooledObject<NEffectUpdateDecorator::CHeaderDecorator>::ms_kPool''
text$yd	ENDS
; Function compile flags: /Ogtp
; File D:\Metin2 Server Files\mainline\SRC_2014\Metin2Client\eterLib\Pool.h
;	COMDAT ??__E?ms_kPool@?$CPooledObject@VCHeaderDecorator@NEffectUpdateDecorator@@@@1V?$CDynamicPoolEx@VCHeaderDecorator@NEffectUpdateDecorator@@@@A@@YAXXZ
text$di	SEGMENT
??__E?ms_kPool@?$CPooledObject@VCHeaderDecorator@NEffectUpdateDecorator@@@@1V?$CDynamicPoolEx@VCHeaderDecorator@NEffectUpdateDecorator@@@@A@@YAXXZ PROC ; `dynamic initializer for 'CPooledObject<NEffectUpdateDecorator::CHeaderDecorator>::ms_kPool'', COMDAT

; 272  : template <class T> CDynamicPoolEx<T> CPooledObject<T>::ms_kPool;

  00000	68 00 00 00 00	 push	 OFFSET ??__F?ms_kPool@?$CPooledObject@VCHeaderDecorator@NEffectUpdateDecorator@@@@1V?$CDynamicPoolEx@VCHeaderDecorator@NEffectUpdateDecorator@@@@A@@YAXXZ ; `dynamic atexit destructor for 'CPooledObject<NEffectUpdateDecorator::CHeaderDecorator>::ms_kPool''
  00005	e8 00 00 00 00	 call	 _atexit
  0000a	59		 pop	 ecx
  0000b	c3		 ret	 0
??__E?ms_kPool@?$CPooledObject@VCHeaderDecorator@NEffectUpdateDecorator@@@@1V?$CDynamicPoolEx@VCHeaderDecorator@NEffectUpdateDecorator@@@@A@@YAXXZ ENDP ; `dynamic initializer for 'CPooledObject<NEffectUpdateDecorator::CHeaderDecorator>::ms_kPool''
text$di	ENDS
; Function compile flags: /Ogtp
; File C:\Program Files (x86)\Microsoft Visual Studio\2019\Community\VC\Tools\MSVC\14.28.29333\include\xmemory
;	COMDAT ??$_Destroy_range@V?$allocator@PAVCRotationDecorator@NEffectUpdateDecorator@@@std@@@std@@YAXPAPAVCRotationDecorator@NEffectUpdateDecorator@@QAPAV12@AAV?$allocator@PAVCRotationDecorator@NEffectUpdateDecorator@@@0@@Z
_TEXT	SEGMENT
__First$ = 8						; size = 4
__Last$ = 12						; size = 4
__Al$ = 16						; size = 4
??$_Destroy_range@V?$allocator@PAVCRotationDecorator@NEffectUpdateDecorator@@@std@@@std@@YAXPAPAVCRotationDecorator@NEffectUpdateDecorator@@QAPAV12@AAV?$allocator@PAVCRotationDecorator@NEffectUpdateDecorator@@@0@@Z PROC ; std::_Destroy_range<std::allocator<NEffectUpdateDecorator::CRotationDecorator *> >, COMDAT

; 963  :     // note that this is an optimization for debug mode codegen; in release mode the BE removes all of this
; 964  :     using _Ty = typename _Alloc::value_type;
; 965  :     if _CONSTEXPR_IF (!conjunction_v<is_trivially_destructible<_Ty>, _Uses_default_destroy<_Alloc, _Ty*>>) {
; 966  :         for (; _First != _Last; ++_First) {
; 967  :             allocator_traits<_Alloc>::destroy(_Al, _Unfancy(_First));
; 968  :         }
; 969  :     }
; 970  : }

  00000	c2 00 00	 ret	 0
??$_Destroy_range@V?$allocator@PAVCRotationDecorator@NEffectUpdateDecorator@@@std@@@std@@YAXPAPAVCRotationDecorator@NEffectUpdateDecorator@@QAPAV12@AAV?$allocator@PAVCRotationDecorator@NEffectUpdateDecorator@@@0@@Z ENDP ; std::_Destroy_range<std::allocator<NEffectUpdateDecorator::CRotationDecorator *> >
_TEXT	ENDS
; Function compile flags: /Ogtp
; File C:\Program Files (x86)\Microsoft Visual Studio\2019\Community\VC\Tools\MSVC\14.28.29333\include\xmemory
;	COMDAT ??$_Destroy_range@V?$allocator@PAVCGravityDecorator@NEffectUpdateDecorator@@@std@@@std@@YAXPAPAVCGravityDecorator@NEffectUpdateDecorator@@QAPAV12@AAV?$allocator@PAVCGravityDecorator@NEffectUpdateDecorator@@@0@@Z
_TEXT	SEGMENT
__First$ = 8						; size = 4
__Last$ = 12						; size = 4
__Al$ = 16						; size = 4
??$_Destroy_range@V?$allocator@PAVCGravityDecorator@NEffectUpdateDecorator@@@std@@@std@@YAXPAPAVCGravityDecorator@NEffectUpdateDecorator@@QAPAV12@AAV?$allocator@PAVCGravityDecorator@NEffectUpdateDecorator@@@0@@Z PROC ; std::_Destroy_range<std::allocator<NEffectUpdateDecorator::CGravityDecorator *> >, COMDAT

; 963  :     // note that this is an optimization for debug mode codegen; in release mode the BE removes all of this
; 964  :     using _Ty = typename _Alloc::value_type;
; 965  :     if _CONSTEXPR_IF (!conjunction_v<is_trivially_destructible<_Ty>, _Uses_default_destroy<_Alloc, _Ty*>>) {
; 966  :         for (; _First != _Last; ++_First) {
; 967  :             allocator_traits<_Alloc>::destroy(_Al, _Unfancy(_First));
; 968  :         }
; 969  :     }
; 970  : }

  00000	c2 00 00	 ret	 0
??$_Destroy_range@V?$allocator@PAVCGravityDecorator@NEffectUpdateDecorator@@@std@@@std@@YAXPAPAVCGravityDecorator@NEffectUpdateDecorator@@QAPAV12@AAV?$allocator@PAVCGravityDecorator@NEffectUpdateDecorator@@@0@@Z ENDP ; std::_Destroy_range<std::allocator<NEffectUpdateDecorator::CGravityDecorator *> >
_TEXT	ENDS
; Function compile flags: /Ogtp
; File C:\Program Files (x86)\Microsoft Visual Studio\2019\Community\VC\Tools\MSVC\14.28.29333\include\xmemory
;	COMDAT ??$_Destroy_range@V?$allocator@PAVCAirResistanceDecorator@NEffectUpdateDecorator@@@std@@@std@@YAXPAPAVCAirResistanceDecorator@NEffectUpdateDecorator@@QAPAV12@AAV?$allocator@PAVCAirResistanceDecorator@NEffectUpdateDecorator@@@0@@Z
_TEXT	SEGMENT
__First$ = 8						; size = 4
__Last$ = 12						; size = 4
__Al$ = 16						; size = 4
??$_Destroy_range@V?$allocator@PAVCAirResistanceDecorator@NEffectUpdateDecorator@@@std@@@std@@YAXPAPAVCAirResistanceDecorator@NEffectUpdateDecorator@@QAPAV12@AAV?$allocator@PAVCAirResistanceDecorator@NEffectUpdateDecorator@@@0@@Z PROC ; std::_Destroy_range<std::allocator<NEffectUpdateDecorator::CAirResistanceDecorator *> >, COMDAT

; 963  :     // note that this is an optimization for debug mode codegen; in release mode the BE removes all of this
; 964  :     using _Ty = typename _Alloc::value_type;
; 965  :     if _CONSTEXPR_IF (!conjunction_v<is_trivially_destructible<_Ty>, _Uses_default_destroy<_Alloc, _Ty*>>) {
; 966  :         for (; _First != _Last; ++_First) {
; 967  :             allocator_traits<_Alloc>::destroy(_Al, _Unfancy(_First));
; 968  :         }
; 969  :     }
; 970  : }

  00000	c2 00 00	 ret	 0
??$_Destroy_range@V?$allocator@PAVCAirResistanceDecorator@NEffectUpdateDecorator@@@std@@@std@@YAXPAPAVCAirResistanceDecorator@NEffectUpdateDecorator@@QAPAV12@AAV?$allocator@PAVCAirResistanceDecorator@NEffectUpdateDecorator@@@0@@Z ENDP ; std::_Destroy_range<std::allocator<NEffectUpdateDecorator::CAirResistanceDecorator *> >
_TEXT	ENDS
; Function compile flags: /Ogtp
; File C:\Program Files (x86)\Microsoft Visual Studio\2019\Community\VC\Tools\MSVC\14.28.29333\include\xmemory
;	COMDAT ??$_Destroy_range@V?$allocator@PAVCTextureAnimationRandomDecorator@NEffectUpdateDecorator@@@std@@@std@@YAXPAPAVCTextureAnimationRandomDecorator@NEffectUpdateDecorator@@QAPAV12@AAV?$allocator@PAVCTextureAnimationRandomDecorator@NEffectUpdateDecorator@@@0@@Z
_TEXT	SEGMENT
__First$ = 8						; size = 4
__Last$ = 12						; size = 4
__Al$ = 16						; size = 4
??$_Destroy_range@V?$allocator@PAVCTextureAnimationRandomDecorator@NEffectUpdateDecorator@@@std@@@std@@YAXPAPAVCTextureAnimationRandomDecorator@NEffectUpdateDecorator@@QAPAV12@AAV?$allocator@PAVCTextureAnimationRandomDecorator@NEffectUpdateDecorator@@@0@@Z PROC ; std::_Destroy_range<std::allocator<NEffectUpdateDecorator::CTextureAnimationRandomDecorator *> >, COMDAT

; 963  :     // note that this is an optimization for debug mode codegen; in release mode the BE removes all of this
; 964  :     using _Ty = typename _Alloc::value_type;
; 965  :     if _CONSTEXPR_IF (!conjunction_v<is_trivially_destructible<_Ty>, _Uses_default_destroy<_Alloc, _Ty*>>) {
; 966  :         for (; _First != _Last; ++_First) {
; 967  :             allocator_traits<_Alloc>::destroy(_Al, _Unfancy(_First));
; 968  :         }
; 969  :     }
; 970  : }

  00000	c2 00 00	 ret	 0
??$_Destroy_range@V?$allocator@PAVCTextureAnimationRandomDecorator@NEffectUpdateDecorator@@@std@@@std@@YAXPAPAVCTextureAnimationRandomDecorator@NEffectUpdateDecorator@@QAPAV12@AAV?$allocator@PAVCTextureAnimationRandomDecorator@NEffectUpdateDecorator@@@0@@Z ENDP ; std::_Destroy_range<std::allocator<NEffectUpdateDecorator::CTextureAnimationRandomDecorator *> >
_TEXT	ENDS
; Function compile flags: /Ogtp
; File C:\Program Files (x86)\Microsoft Visual Studio\2019\Community\VC\Tools\MSVC\14.28.29333\include\xmemory
;	COMDAT ??$_Destroy_range@V?$allocator@PAVCTextureAnimationCCWDecorator@NEffectUpdateDecorator@@@std@@@std@@YAXPAPAVCTextureAnimationCCWDecorator@NEffectUpdateDecorator@@QAPAV12@AAV?$allocator@PAVCTextureAnimationCCWDecorator@NEffectUpdateDecorator@@@0@@Z
_TEXT	SEGMENT
__First$ = 8						; size = 4
__Last$ = 12						; size = 4
__Al$ = 16						; size = 4
??$_Destroy_range@V?$allocator@PAVCTextureAnimationCCWDecorator@NEffectUpdateDecorator@@@std@@@std@@YAXPAPAVCTextureAnimationCCWDecorator@NEffectUpdateDecorator@@QAPAV12@AAV?$allocator@PAVCTextureAnimationCCWDecorator@NEffectUpdateDecorator@@@0@@Z PROC ; std::_Destroy_range<std::allocator<NEffectUpdateDecorator::CTextureAnimationCCWDecorator *> >, COMDAT

; 963  :     // note that this is an optimization for debug mode codegen; in release mode the BE removes all of this
; 964  :     using _Ty = typename _Alloc::value_type;
; 965  :     if _CONSTEXPR_IF (!conjunction_v<is_trivially_destructible<_Ty>, _Uses_default_destroy<_Alloc, _Ty*>>) {
; 966  :         for (; _First != _Last; ++_First) {
; 967  :             allocator_traits<_Alloc>::destroy(_Al, _Unfancy(_First));
; 968  :         }
; 969  :     }
; 970  : }

  00000	c2 00 00	 ret	 0
??$_Destroy_range@V?$allocator@PAVCTextureAnimationCCWDecorator@NEffectUpdateDecorator@@@std@@@std@@YAXPAPAVCTextureAnimationCCWDecorator@NEffectUpdateDecorator@@QAPAV12@AAV?$allocator@PAVCTextureAnimationCCWDecorator@NEffectUpdateDecorator@@@0@@Z ENDP ; std::_Destroy_range<std::allocator<NEffectUpdateDecorator::CTextureAnimationCCWDecorator *> >
_TEXT	ENDS
; Function compile flags: /Ogtp
; File C:\Program Files (x86)\Microsoft Visual Studio\2019\Community\VC\Tools\MSVC\14.28.29333\include\xmemory
;	COMDAT ??$_Destroy_range@V?$allocator@PAVCTextureAnimationCWDecorator@NEffectUpdateDecorator@@@std@@@std@@YAXPAPAVCTextureAnimationCWDecorator@NEffectUpdateDecorator@@QAPAV12@AAV?$allocator@PAVCTextureAnimationCWDecorator@NEffectUpdateDecorator@@@0@@Z
_TEXT	SEGMENT
__First$ = 8						; size = 4
__Last$ = 12						; size = 4
__Al$ = 16						; size = 4
??$_Destroy_range@V?$allocator@PAVCTextureAnimationCWDecorator@NEffectUpdateDecorator@@@std@@@std@@YAXPAPAVCTextureAnimationCWDecorator@NEffectUpdateDecorator@@QAPAV12@AAV?$allocator@PAVCTextureAnimationCWDecorator@NEffectUpdateDecorator@@@0@@Z PROC ; std::_Destroy_range<std::allocator<NEffectUpdateDecorator::CTextureAnimationCWDecorator *> >, COMDAT

; 963  :     // note that this is an optimization for debug mode codegen; in release mode the BE removes all of this
; 964  :     using _Ty = typename _Alloc::value_type;
; 965  :     if _CONSTEXPR_IF (!conjunction_v<is_trivially_destructible<_Ty>, _Uses_default_destroy<_Alloc, _Ty*>>) {
; 966  :         for (; _First != _Last; ++_First) {
; 967  :             allocator_traits<_Alloc>::destroy(_Al, _Unfancy(_First));
; 968  :         }
; 969  :     }
; 970  : }

  00000	c2 00 00	 ret	 0
??$_Destroy_range@V?$allocator@PAVCTextureAnimationCWDecorator@NEffectUpdateDecorator@@@std@@@std@@YAXPAPAVCTextureAnimationCWDecorator@NEffectUpdateDecorator@@QAPAV12@AAV?$allocator@PAVCTextureAnimationCWDecorator@NEffectUpdateDecorator@@@0@@Z ENDP ; std::_Destroy_range<std::allocator<NEffectUpdateDecorator::CTextureAnimationCWDecorator *> >
_TEXT	ENDS
; Function compile flags: /Ogtp
; File C:\Program Files (x86)\Microsoft Visual Studio\2019\Community\VC\Tools\MSVC\14.28.29333\include\xmemory
;	COMDAT ??$_Destroy_range@V?$allocator@PAVCNullDecorator@NEffectUpdateDecorator@@@std@@@std@@YAXPAPAVCNullDecorator@NEffectUpdateDecorator@@QAPAV12@AAV?$allocator@PAVCNullDecorator@NEffectUpdateDecorator@@@0@@Z
_TEXT	SEGMENT
__First$ = 8						; size = 4
__Last$ = 12						; size = 4
__Al$ = 16						; size = 4
??$_Destroy_range@V?$allocator@PAVCNullDecorator@NEffectUpdateDecorator@@@std@@@std@@YAXPAPAVCNullDecorator@NEffectUpdateDecorator@@QAPAV12@AAV?$allocator@PAVCNullDecorator@NEffectUpdateDecorator@@@0@@Z PROC ; std::_Destroy_range<std::allocator<NEffectUpdateDecorator::CNullDecorator *> >, COMDAT

; 963  :     // note that this is an optimization for debug mode codegen; in release mode the BE removes all of this
; 964  :     using _Ty = typename _Alloc::value_type;
; 965  :     if _CONSTEXPR_IF (!conjunction_v<is_trivially_destructible<_Ty>, _Uses_default_destroy<_Alloc, _Ty*>>) {
; 966  :         for (; _First != _Last; ++_First) {
; 967  :             allocator_traits<_Alloc>::destroy(_Al, _Unfancy(_First));
; 968  :         }
; 969  :     }
; 970  : }

  00000	c2 00 00	 ret	 0
??$_Destroy_range@V?$allocator@PAVCNullDecorator@NEffectUpdateDecorator@@@std@@@std@@YAXPAPAVCNullDecorator@NEffectUpdateDecorator@@QAPAV12@AAV?$allocator@PAVCNullDecorator@NEffectUpdateDecorator@@@0@@Z ENDP ; std::_Destroy_range<std::allocator<NEffectUpdateDecorator::CNullDecorator *> >
_TEXT	ENDS
; Function compile flags: /Ogtp
; File C:\Program Files (x86)\Microsoft Visual Studio\2019\Community\VC\Tools\MSVC\14.28.29333\include\xmemory
;	COMDAT ??$_Destroy_range@V?$allocator@PAVCHeaderDecorator@NEffectUpdateDecorator@@@std@@@std@@YAXPAPAVCHeaderDecorator@NEffectUpdateDecorator@@QAPAV12@AAV?$allocator@PAVCHeaderDecorator@NEffectUpdateDecorator@@@0@@Z
_TEXT	SEGMENT
__First$ = 8						; size = 4
__Last$ = 12						; size = 4
__Al$ = 16						; size = 4
??$_Destroy_range@V?$allocator@PAVCHeaderDecorator@NEffectUpdateDecorator@@@std@@@std@@YAXPAPAVCHeaderDecorator@NEffectUpdateDecorator@@QAPAV12@AAV?$allocator@PAVCHeaderDecorator@NEffectUpdateDecorator@@@0@@Z PROC ; std::_Destroy_range<std::allocator<NEffectUpdateDecorator::CHeaderDecorator *> >, COMDAT

; 963  :     // note that this is an optimization for debug mode codegen; in release mode the BE removes all of this
; 964  :     using _Ty = typename _Alloc::value_type;
; 965  :     if _CONSTEXPR_IF (!conjunction_v<is_trivially_destructible<_Ty>, _Uses_default_destroy<_Alloc, _Ty*>>) {
; 966  :         for (; _First != _Last; ++_First) {
; 967  :             allocator_traits<_Alloc>::destroy(_Al, _Unfancy(_First));
; 968  :         }
; 969  :     }
; 970  : }

  00000	c2 00 00	 ret	 0
??$_Destroy_range@V?$allocator@PAVCHeaderDecorator@NEffectUpdateDecorator@@@std@@@std@@YAXPAPAVCHeaderDecorator@NEffectUpdateDecorator@@QAPAV12@AAV?$allocator@PAVCHeaderDecorator@NEffectUpdateDecorator@@@0@@Z ENDP ; std::_Destroy_range<std::allocator<NEffectUpdateDecorator::CHeaderDecorator *> >
_TEXT	ENDS
; Function compile flags: /Ogtp
;	COMDAT ??_G?$CDynamicPoolEx@VCHeaderDecorator@NEffectUpdateDecorator@@@@UAEPAXI@Z
_TEXT	SEGMENT
___flags$ = 8						; size = 4
??_G?$CDynamicPoolEx@VCHeaderDecorator@NEffectUpdateDecorator@@@@UAEPAXI@Z PROC ; CDynamicPoolEx<NEffectUpdateDecorator::CHeaderDecorator>::`scalar deleting destructor', COMDAT
; _this$ = ecx
  00000	55		 push	 ebp
  00001	8b ec		 mov	 ebp, esp
  00003	56		 push	 esi
  00004	8b f1		 mov	 esi, ecx
  00006	e8 00 00 00 00	 call	 ??1?$CDynamicPoolEx@VCHeaderDecorator@NEffectUpdateDecorator@@@@UAE@XZ ; CDynamicPoolEx<NEffectUpdateDecorator::CHeaderDecorator>::~CDynamicPoolEx<NEffectUpdateDecorator::CHeaderDecorator>
  0000b	f6 45 08 01	 test	 BYTE PTR ___flags$[ebp], 1
  0000f	74 0b		 je	 SHORT $LN4@scalar
  00011	6a 24		 push	 36			; 00000024H
  00013	56		 push	 esi
  00014	e8 00 00 00 00	 call	 ??3@YAXPAXI@Z		; operator delete
  00019	83 c4 08	 add	 esp, 8
$LN4@scalar:
  0001c	8b c6		 mov	 eax, esi
  0001e	5e		 pop	 esi
  0001f	5d		 pop	 ebp
  00020	c2 04 00	 ret	 4
??_G?$CDynamicPoolEx@VCHeaderDecorator@NEffectUpdateDecorator@@@@UAEPAXI@Z ENDP ; CDynamicPoolEx<NEffectUpdateDecorator::CHeaderDecorator>::`scalar deleting destructor'
_TEXT	ENDS
; Function compile flags: /Ogtp
; File D:\Metin2 Server Files\mainline\SRC_2014\Metin2Client\eterLib\Pool.h
;	COMDAT ?Delete@?$CDynamicPoolEx@VCHeaderDecorator@NEffectUpdateDecorator@@@@KAXPAVCHeaderDecorator@NEffectUpdateDecorator@@@Z
_TEXT	SEGMENT
_pkData$ = 8						; size = 4
?Delete@?$CDynamicPoolEx@VCHeaderDecorator@NEffectUpdateDecorator@@@@KAXPAVCHeaderDecorator@NEffectUpdateDecorator@@@Z PROC ; CDynamicPoolEx<NEffectUpdateDecorator::CHeaderDecorator>::Delete, COMDAT

; 224  : 			::operator delete(pkData);

  00000	e9 00 00 00 00	 jmp	 ??3@YAXPAX@Z		; operator delete
?Delete@?$CDynamicPoolEx@VCHeaderDecorator@NEffectUpdateDecorator@@@@KAXPAVCHeaderDecorator@NEffectUpdateDecorator@@@Z ENDP ; CDynamicPoolEx<NEffectUpdateDecorator::CHeaderDecorator>::Delete
_TEXT	ENDS
; Function compile flags: /Ogtp
; File D:\Metin2 Server Files\mainline\SRC_2014\Metin2Client\eterLib\Pool.h
; File C:\Program Files (x86)\Microsoft Visual Studio\2019\Community\VC\Tools\MSVC\14.28.29333\include\vector
; File C:\Program Files (x86)\Microsoft Visual Studio\2019\Community\VC\Tools\MSVC\14.28.29333\include\algorithm
; File D:\Metin2 Server Files\mainline\SRC_2014\Metin2Client\eterLib\Pool.h
; File C:\Program Files (x86)\Microsoft Visual Studio\2019\Community\VC\Tools\MSVC\14.28.29333\include\algorithm
; File D:\Metin2 Server Files\mainline\SRC_2014\Metin2Client\eterLib\Pool.h
; File C:\Program Files (x86)\Microsoft Visual Studio\2019\Community\VC\Tools\MSVC\14.28.29333\include\algorithm
; File D:\Metin2 Server Files\mainline\SRC_2014\Metin2Client\eterLib\Pool.h
; File C:\Program Files (x86)\Microsoft Visual Studio\2019\Community\VC\Tools\MSVC\14.28.29333\include\vector
; File C:\Program Files (x86)\Microsoft Visual Studio\2019\Community\VC\Tools\MSVC\14.28.29333\include\xmemory
; File C:\Program Files (x86)\Microsoft Visual Studio\2019\Community\VC\Tools\MSVC\14.28.29333\include\vector
; File C:\Program Files (x86)\Microsoft Visual Studio\2019\Community\VC\Tools\MSVC\14.28.29333\include\xmemory
; File C:\Program Files (x86)\Microsoft Visual Studio\2019\Community\VC\Tools\MSVC\14.28.29333\include\vector
; File C:\Program Files (x86)\Microsoft Visual Studio\2019\Community\VC\Tools\MSVC\14.28.29333\include\xmemory
; File C:\Program Files (x86)\Microsoft Visual Studio\2019\Community\VC\Tools\MSVC\14.28.29333\include\vector
; File C:\Program Files (x86)\Microsoft Visual Studio\2019\Community\VC\Tools\MSVC\14.28.29333\include\xmemory
; File C:\Program Files (x86)\Microsoft Visual Studio\2019\Community\VC\Tools\MSVC\14.28.29333\include\vector
; File D:\Metin2 Server Files\mainline\SRC_2014\Metin2Client\eterLib\Pool.h
;	COMDAT ??1?$CDynamicPoolEx@VCHeaderDecorator@NEffectUpdateDecorator@@@@UAE@XZ
_TEXT	SEGMENT
??1?$CDynamicPoolEx@VCHeaderDecorator@NEffectUpdateDecorator@@@@UAE@XZ PROC ; CDynamicPoolEx<NEffectUpdateDecorator::CHeaderDecorator>::~CDynamicPoolEx<NEffectUpdateDecorator::CHeaderDecorator>, COMDAT
; _this$ = ecx

; 132  : 		{

  00000	53		 push	 ebx
  00001	56		 push	 esi
  00002	57		 push	 edi
  00003	8b f9		 mov	 edi, ecx
  00005	c7 07 00 00 00
	00		 mov	 DWORD PTR [edi], OFFSET ??_7?$CDynamicPoolEx@VCHeaderDecorator@NEffectUpdateDecorator@@@@6B@
; File C:\Program Files (x86)\Microsoft Visual Studio\2019\Community\VC\Tools\MSVC\14.28.29333\include\vector

; 42   :     _Vector_const_iterator(_Tptr _Parg, const _Container_base* _Pvector) noexcept : _Ptr(_Parg) {

  0000b	8b 5f 08	 mov	 ebx, DWORD PTR [edi+8]
  0000e	8b 77 04	 mov	 esi, DWORD PTR [edi+4]
; File C:\Program Files (x86)\Microsoft Visual Studio\2019\Community\VC\Tools\MSVC\14.28.29333\include\algorithm

; 307  :     for (; _UFirst != _ULast; ++_UFirst) {

  00011	3b f3		 cmp	 esi, ebx
  00013	74 14		 je	 SHORT $LN19@CDynamicPo
$LL20@CDynamicPo:
; File D:\Metin2 Server Files\mainline\SRC_2014\Metin2Client\eterLib\Pool.h

; 224  : 			::operator delete(pkData);

  00015	ff 36		 push	 DWORD PTR [esi]
  00017	e8 00 00 00 00	 call	 ??3@YAXPAX@Z		; operator delete
; File C:\Program Files (x86)\Microsoft Visual Studio\2019\Community\VC\Tools\MSVC\14.28.29333\include\algorithm

; 307  :     for (; _UFirst != _ULast; ++_UFirst) {

  0001c	83 c6 04	 add	 esi, 4
; File D:\Metin2 Server Files\mainline\SRC_2014\Metin2Client\eterLib\Pool.h

; 224  : 			::operator delete(pkData);

  0001f	83 c4 04	 add	 esp, 4
; File C:\Program Files (x86)\Microsoft Visual Studio\2019\Community\VC\Tools\MSVC\14.28.29333\include\algorithm

; 307  :     for (; _UFirst != _ULast; ++_UFirst) {

  00022	3b f3		 cmp	 esi, ebx
  00024	75 ef		 jne	 SHORT $LL20@CDynamicPo
  00026	8b 77 04	 mov	 esi, DWORD PTR [edi+4]
$LN19@CDynamicPo:
; File D:\Metin2 Server Files\mainline\SRC_2014\Metin2Client\eterLib\Pool.h

; 162  : 			m_kVct_pkFree.clear();

  00029	8b 4f 10	 mov	 ecx, DWORD PTR [edi+16]
  0002c	89 77 08	 mov	 DWORD PTR [edi+8], esi
  0002f	89 4f 14	 mov	 DWORD PTR [edi+20], ecx
; File C:\Program Files (x86)\Microsoft Visual Studio\2019\Community\VC\Tools\MSVC\14.28.29333\include\vector

; 1694 :         if (_Myfirst) { // destroy and deallocate old array

  00032	85 c9		 test	 ecx, ecx
  00034	74 27		 je	 SHORT $LN27@CDynamicPo

; 1695 :             _Destroy(_Myfirst, _Mylast);
; 1696 :             _Getal().deallocate(_Myfirst, static_cast<size_type>(_Myend - _Myfirst));

  00036	8b 47 18	 mov	 eax, DWORD PTR [edi+24]
  00039	2b c1		 sub	 eax, ecx
; File C:\Program Files (x86)\Microsoft Visual Studio\2019\Community\VC\Tools\MSVC\14.28.29333\include\xmemory

; 810  :         _Deallocate<_New_alignof<_Ty>>(_Ptr, sizeof(_Ty) * _Count);

  0003b	83 e0 fc	 and	 eax, -4			; fffffffcH
  0003e	50		 push	 eax
  0003f	51		 push	 ecx
  00040	e8 00 00 00 00	 call	 ??$_Deallocate@$07$0A@@std@@YAXPAXI@Z ; std::_Deallocate<8,0>
; File C:\Program Files (x86)\Microsoft Visual Studio\2019\Community\VC\Tools\MSVC\14.28.29333\include\vector

; 1698 :             _Myfirst = pointer();

  00045	c7 47 10 00 00
	00 00		 mov	 DWORD PTR [edi+16], 0
; File C:\Program Files (x86)\Microsoft Visual Studio\2019\Community\VC\Tools\MSVC\14.28.29333\include\xmemory

; 810  :         _Deallocate<_New_alignof<_Ty>>(_Ptr, sizeof(_Ty) * _Count);

  0004c	83 c4 08	 add	 esp, 8
; File C:\Program Files (x86)\Microsoft Visual Studio\2019\Community\VC\Tools\MSVC\14.28.29333\include\vector

; 1699 :             _Mylast  = pointer();

  0004f	c7 47 14 00 00
	00 00		 mov	 DWORD PTR [edi+20], 0

; 1700 :             _Myend   = pointer();

  00056	c7 47 18 00 00
	00 00		 mov	 DWORD PTR [edi+24], 0
$LN27@CDynamicPo:

; 1694 :         if (_Myfirst) { // destroy and deallocate old array

  0005d	8b 4f 04	 mov	 ecx, DWORD PTR [edi+4]
  00060	85 c9		 test	 ecx, ecx
  00062	74 27		 je	 SHORT $LN34@CDynamicPo

; 1695 :             _Destroy(_Myfirst, _Mylast);
; 1696 :             _Getal().deallocate(_Myfirst, static_cast<size_type>(_Myend - _Myfirst));

  00064	8b 47 0c	 mov	 eax, DWORD PTR [edi+12]
  00067	2b c1		 sub	 eax, ecx
; File C:\Program Files (x86)\Microsoft Visual Studio\2019\Community\VC\Tools\MSVC\14.28.29333\include\xmemory

; 810  :         _Deallocate<_New_alignof<_Ty>>(_Ptr, sizeof(_Ty) * _Count);

  00069	83 e0 fc	 and	 eax, -4			; fffffffcH
  0006c	50		 push	 eax
  0006d	51		 push	 ecx
  0006e	e8 00 00 00 00	 call	 ??$_Deallocate@$07$0A@@std@@YAXPAXI@Z ; std::_Deallocate<8,0>
; File C:\Program Files (x86)\Microsoft Visual Studio\2019\Community\VC\Tools\MSVC\14.28.29333\include\vector

; 1698 :             _Myfirst = pointer();

  00073	c7 47 04 00 00
	00 00		 mov	 DWORD PTR [edi+4], 0
; File C:\Program Files (x86)\Microsoft Visual Studio\2019\Community\VC\Tools\MSVC\14.28.29333\include\xmemory

; 810  :         _Deallocate<_New_alignof<_Ty>>(_Ptr, sizeof(_Ty) * _Count);

  0007a	83 c4 08	 add	 esp, 8
; File C:\Program Files (x86)\Microsoft Visual Studio\2019\Community\VC\Tools\MSVC\14.28.29333\include\vector

; 1699 :             _Mylast  = pointer();

  0007d	c7 47 08 00 00
	00 00		 mov	 DWORD PTR [edi+8], 0

; 1700 :             _Myend   = pointer();

  00084	c7 47 0c 00 00
	00 00		 mov	 DWORD PTR [edi+12], 0
$LN34@CDynamicPo:
  0008b	5f		 pop	 edi
; File D:\Metin2 Server Files\mainline\SRC_2014\Metin2Client\eterLib\Pool.h

; 142  : 		}

  0008c	5e		 pop	 esi
  0008d	5b		 pop	 ebx
  0008e	c3		 ret	 0
??1?$CDynamicPoolEx@VCHeaderDecorator@NEffectUpdateDecorator@@@@UAE@XZ ENDP ; CDynamicPoolEx<NEffectUpdateDecorator::CHeaderDecorator>::~CDynamicPoolEx<NEffectUpdateDecorator::CHeaderDecorator>
_TEXT	ENDS
; Function compile flags: /Ogtp
;	COMDAT ??_G?$CDynamicPoolEx@VCNullDecorator@NEffectUpdateDecorator@@@@UAEPAXI@Z
_TEXT	SEGMENT
___flags$ = 8						; size = 4
??_G?$CDynamicPoolEx@VCNullDecorator@NEffectUpdateDecorator@@@@UAEPAXI@Z PROC ; CDynamicPoolEx<NEffectUpdateDecorator::CNullDecorator>::`scalar deleting destructor', COMDAT
; _this$ = ecx
  00000	55		 push	 ebp
  00001	8b ec		 mov	 ebp, esp
  00003	56		 push	 esi
  00004	8b f1		 mov	 esi, ecx
  00006	e8 00 00 00 00	 call	 ??1?$CDynamicPoolEx@VCNullDecorator@NEffectUpdateDecorator@@@@UAE@XZ ; CDynamicPoolEx<NEffectUpdateDecorator::CNullDecorator>::~CDynamicPoolEx<NEffectUpdateDecorator::CNullDecorator>
  0000b	f6 45 08 01	 test	 BYTE PTR ___flags$[ebp], 1
  0000f	74 0b		 je	 SHORT $LN4@scalar
  00011	6a 24		 push	 36			; 00000024H
  00013	56		 push	 esi
  00014	e8 00 00 00 00	 call	 ??3@YAXPAXI@Z		; operator delete
  00019	83 c4 08	 add	 esp, 8
$LN4@scalar:
  0001c	8b c6		 mov	 eax, esi
  0001e	5e		 pop	 esi
  0001f	5d		 pop	 ebp
  00020	c2 04 00	 ret	 4
??_G?$CDynamicPoolEx@VCNullDecorator@NEffectUpdateDecorator@@@@UAEPAXI@Z ENDP ; CDynamicPoolEx<NEffectUpdateDecorator::CNullDecorator>::`scalar deleting destructor'
_TEXT	ENDS
; Function compile flags: /Ogtp
; File D:\Metin2 Server Files\mainline\SRC_2014\Metin2Client\eterLib\Pool.h
;	COMDAT ?Delete@?$CDynamicPoolEx@VCNullDecorator@NEffectUpdateDecorator@@@@KAXPAVCNullDecorator@NEffectUpdateDecorator@@@Z
_TEXT	SEGMENT
_pkData$ = 8						; size = 4
?Delete@?$CDynamicPoolEx@VCNullDecorator@NEffectUpdateDecorator@@@@KAXPAVCNullDecorator@NEffectUpdateDecorator@@@Z PROC ; CDynamicPoolEx<NEffectUpdateDecorator::CNullDecorator>::Delete, COMDAT

; 224  : 			::operator delete(pkData);

  00000	e9 00 00 00 00	 jmp	 ??3@YAXPAX@Z		; operator delete
?Delete@?$CDynamicPoolEx@VCNullDecorator@NEffectUpdateDecorator@@@@KAXPAVCNullDecorator@NEffectUpdateDecorator@@@Z ENDP ; CDynamicPoolEx<NEffectUpdateDecorator::CNullDecorator>::Delete
_TEXT	ENDS
; Function compile flags: /Ogtp
; File D:\Metin2 Server Files\mainline\SRC_2014\Metin2Client\eterLib\Pool.h
; File C:\Program Files (x86)\Microsoft Visual Studio\2019\Community\VC\Tools\MSVC\14.28.29333\include\vector
; File C:\Program Files (x86)\Microsoft Visual Studio\2019\Community\VC\Tools\MSVC\14.28.29333\include\algorithm
; File D:\Metin2 Server Files\mainline\SRC_2014\Metin2Client\eterLib\Pool.h
; File C:\Program Files (x86)\Microsoft Visual Studio\2019\Community\VC\Tools\MSVC\14.28.29333\include\algorithm
; File D:\Metin2 Server Files\mainline\SRC_2014\Metin2Client\eterLib\Pool.h
; File C:\Program Files (x86)\Microsoft Visual Studio\2019\Community\VC\Tools\MSVC\14.28.29333\include\algorithm
; File D:\Metin2 Server Files\mainline\SRC_2014\Metin2Client\eterLib\Pool.h
; File C:\Program Files (x86)\Microsoft Visual Studio\2019\Community\VC\Tools\MSVC\14.28.29333\include\vector
; File C:\Program Files (x86)\Microsoft Visual Studio\2019\Community\VC\Tools\MSVC\14.28.29333\include\xmemory
; File C:\Program Files (x86)\Microsoft Visual Studio\2019\Community\VC\Tools\MSVC\14.28.29333\include\vector
; File C:\Program Files (x86)\Microsoft Visual Studio\2019\Community\VC\Tools\MSVC\14.28.29333\include\xmemory
; File C:\Program Files (x86)\Microsoft Visual Studio\2019\Community\VC\Tools\MSVC\14.28.29333\include\vector
; File C:\Program Files (x86)\Microsoft Visual Studio\2019\Community\VC\Tools\MSVC\14.28.29333\include\xmemory
; File C:\Program Files (x86)\Microsoft Visual Studio\2019\Community\VC\Tools\MSVC\14.28.29333\include\vector
; File C:\Program Files (x86)\Microsoft Visual Studio\2019\Community\VC\Tools\MSVC\14.28.29333\include\xmemory
; File C:\Program Files (x86)\Microsoft Visual Studio\2019\Community\VC\Tools\MSVC\14.28.29333\include\vector
; File D:\Metin2 Server Files\mainline\SRC_2014\Metin2Client\eterLib\Pool.h
;	COMDAT ??1?$CDynamicPoolEx@VCNullDecorator@NEffectUpdateDecorator@@@@UAE@XZ
_TEXT	SEGMENT
??1?$CDynamicPoolEx@VCNullDecorator@NEffectUpdateDecorator@@@@UAE@XZ PROC ; CDynamicPoolEx<NEffectUpdateDecorator::CNullDecorator>::~CDynamicPoolEx<NEffectUpdateDecorator::CNullDecorator>, COMDAT
; _this$ = ecx

; 132  : 		{

  00000	53		 push	 ebx
  00001	56		 push	 esi
  00002	57		 push	 edi
  00003	8b f9		 mov	 edi, ecx
  00005	c7 07 00 00 00
	00		 mov	 DWORD PTR [edi], OFFSET ??_7?$CDynamicPoolEx@VCNullDecorator@NEffectUpdateDecorator@@@@6B@
; File C:\Program Files (x86)\Microsoft Visual Studio\2019\Community\VC\Tools\MSVC\14.28.29333\include\vector

; 42   :     _Vector_const_iterator(_Tptr _Parg, const _Container_base* _Pvector) noexcept : _Ptr(_Parg) {

  0000b	8b 5f 08	 mov	 ebx, DWORD PTR [edi+8]
  0000e	8b 77 04	 mov	 esi, DWORD PTR [edi+4]
; File C:\Program Files (x86)\Microsoft Visual Studio\2019\Community\VC\Tools\MSVC\14.28.29333\include\algorithm

; 307  :     for (; _UFirst != _ULast; ++_UFirst) {

  00011	3b f3		 cmp	 esi, ebx
  00013	74 14		 je	 SHORT $LN19@CDynamicPo
$LL20@CDynamicPo:
; File D:\Metin2 Server Files\mainline\SRC_2014\Metin2Client\eterLib\Pool.h

; 224  : 			::operator delete(pkData);

  00015	ff 36		 push	 DWORD PTR [esi]
  00017	e8 00 00 00 00	 call	 ??3@YAXPAX@Z		; operator delete
; File C:\Program Files (x86)\Microsoft Visual Studio\2019\Community\VC\Tools\MSVC\14.28.29333\include\algorithm

; 307  :     for (; _UFirst != _ULast; ++_UFirst) {

  0001c	83 c6 04	 add	 esi, 4
; File D:\Metin2 Server Files\mainline\SRC_2014\Metin2Client\eterLib\Pool.h

; 224  : 			::operator delete(pkData);

  0001f	83 c4 04	 add	 esp, 4
; File C:\Program Files (x86)\Microsoft Visual Studio\2019\Community\VC\Tools\MSVC\14.28.29333\include\algorithm

