; Listing generated by Microsoft (R) Optimizing Compiler Version 19.28.29335.0 

	TITLE	D:\Metin2 Server Files\mainline\SRC_2014\Metin2Client\UserInterface\PythonPlayerInput.cpp
	.686P
	.XMM
	include listing.inc
	.model	flat

INCLUDELIB LIBCMT
INCLUDELIB OLDNAMES

PUBLIC	??_R4?$CDynamicPoolEx@VCHeaderDecorator@NEffectUpdateDecorator@@@@6B@ ; CDynamicPoolEx<NEffectUpdateDecorator::CHeaderDecorator>::`RTTI Complete Object Locator'
PUBLIC	??_R0?AV?$CDynamicPoolEx@VCHeaderDecorator@NEffectUpdateDecorator@@@@@8 ; CDynamicPoolEx<NEffectUpdateDecorator::CHeaderDecorator> `RTTI Type Descriptor'
PUBLIC	??_R3?$CDynamicPoolEx@VCHeaderDecorator@NEffectUpdateDecorator@@@@8 ; CDynamicPoolEx<NEffectUpdateDecorator::CHeaderDecorator>::`RTTI Class Hierarchy Descriptor'
PUBLIC	??_R2?$CDynamicPoolEx@VCHeaderDecorator@NEffectUpdateDecorator@@@@8 ; CDynamicPoolEx<NEffectUpdateDecorator::CHeaderDecorator>::`RTTI Base Class Array'
PUBLIC	??_R1A@?0A@EA@?$CDynamicPoolEx@VCHeaderDecorator@NEffectUpdateDecorator@@@@8 ; CDynamicPoolEx<NEffectUpdateDecorator::CHeaderDecorator>::`RTTI Base Class Descriptor at (0,-1,0,64)'
PUBLIC	??_R4?$CDynamicPoolEx@VCNullDecorator@NEffectUpdateDecorator@@@@6B@ ; CDynamicPoolEx<NEffectUpdateDecorator::CNullDecorator>::`RTTI Complete Object Locator'
PUBLIC	??_R0?AV?$CDynamicPoolEx@VCNullDecorator@NEffectUpdateDecorator@@@@@8 ; CDynamicPoolEx<NEffectUpdateDecorator::CNullDecorator> `RTTI Type Descriptor'
PUBLIC	??_R3?$CDynamicPoolEx@VCNullDecorator@NEffectUpdateDecorator@@@@8 ; CDynamicPoolEx<NEffectUpdateDecorator::CNullDecorator>::`RTTI Class Hierarchy Descriptor'
PUBLIC	??_R2?$CDynamicPoolEx@VCNullDecorator@NEffectUpdateDecorator@@@@8 ; CDynamicPoolEx<NEffectUpdateDecorator::CNullDecorator>::`RTTI Base Class Array'
PUBLIC	??_R1A@?0A@EA@?$CDynamicPoolEx@VCNullDecorator@NEffectUpdateDecorator@@@@8 ; CDynamicPoolEx<NEffectUpdateDecorator::CNullDecorator>::`RTTI Base Class Descriptor at (0,-1,0,64)'
PUBLIC	??_R4?$CDynamicPoolEx@VCTextureAnimationCWDecorator@NEffectUpdateDecorator@@@@6B@ ; CDynamicPoolEx<NEffectUpdateDecorator::CTextureAnimationCWDecorator>::`RTTI Complete Object Locator'
PUBLIC	??_R0?AV?$CDynamicPoolEx@VCTextureAnimationCWDecorator@NEffectUpdateDecorator@@@@@8 ; CDynamicPoolEx<NEffectUpdateDecorator::CTextureAnimationCWDecorator> `RTTI Type Descriptor'
PUBLIC	??_R3?$CDynamicPoolEx@VCTextureAnimationCWDecorator@NEffectUpdateDecorator@@@@8 ; CDynamicPoolEx<NEffectUpdateDecorator::CTextureAnimationCWDecorator>::`RTTI Class Hierarchy Descriptor'
PUBLIC	??_R2?$CDynamicPoolEx@VCTextureAnimationCWDecorator@NEffectUpdateDecorator@@@@8 ; CDynamicPoolEx<NEffectUpdateDecorator::CTextureAnimationCWDecorator>::`RTTI Base Class Array'
PUBLIC	??_R1A@?0A@EA@?$CDynamicPoolEx@VCTextureAnimationCWDecorator@NEffectUpdateDecorator@@@@8 ; CDynamicPoolEx<NEffectUpdateDecorator::CTextureAnimationCWDecorator>::`RTTI Base Class Descriptor at (0,-1,0,64)'
PUBLIC	??_R4?$CDynamicPoolEx@VCTextureAnimationCCWDecorator@NEffectUpdateDecorator@@@@6B@ ; CDynamicPoolEx<NEffectUpdateDecorator::CTextureAnimationCCWDecorator>::`RTTI Complete Object Locator'
PUBLIC	??_R0?AV?$CDynamicPoolEx@VCTextureAnimationCCWDecorator@NEffectUpdateDecorator@@@@@8 ; CDynamicPoolEx<NEffectUpdateDecorator::CTextureAnimationCCWDecorator> `RTTI Type Descriptor'
PUBLIC	??_R3?$CDynamicPoolEx@VCTextureAnimationCCWDecorator@NEffectUpdateDecorator@@@@8 ; CDynamicPoolEx<NEffectUpdateDecorator::CTextureAnimationCCWDecorator>::`RTTI Class Hierarchy Descriptor'
PUBLIC	??_R2?$CDynamicPoolEx@VCTextureAnimationCCWDecorator@NEffectUpdateDecorator@@@@8 ; CDynamicPoolEx<NEffectUpdateDecorator::CTextureAnimationCCWDecorator>::`RTTI Base Class Array'
PUBLIC	??_R1A@?0A@EA@?$CDynamicPoolEx@VCTextureAnimationCCWDecorator@NEffectUpdateDecorator@@@@8 ; CDynamicPoolEx<NEffectUpdateDecorator::CTextureAnimationCCWDecorator>::`RTTI Base Class Descriptor at (0,-1,0,64)'
PUBLIC	??_R4?$CDynamicPoolEx@VCTextureAnimationRandomDecorator@NEffectUpdateDecorator@@@@6B@ ; CDynamicPoolEx<NEffectUpdateDecorator::CTextureAnimationRandomDecorator>::`RTTI Complete Object Locator'
PUBLIC	??_R0?AV?$CDynamicPoolEx@VCTextureAnimationRandomDecorator@NEffectUpdateDecorator@@@@@8 ; CDynamicPoolEx<NEffectUpdateDecorator::CTextureAnimationRandomDecorator> `RTTI Type Descriptor'
PUBLIC	??_R3?$CDynamicPoolEx@VCTextureAnimationRandomDecorator@NEffectUpdateDecorator@@@@8 ; CDynamicPoolEx<NEffectUpdateDecorator::CTextureAnimationRandomDecorator>::`RTTI Class Hierarchy Descriptor'
PUBLIC	??_R2?$CDynamicPoolEx@VCTextureAnimationRandomDecorator@NEffectUpdateDecorator@@@@8 ; CDynamicPoolEx<NEffectUpdateDecorator::CTextureAnimationRandomDecorator>::`RTTI Base Class Array'
PUBLIC	??_R1A@?0A@EA@?$CDynamicPoolEx@VCTextureAnimationRandomDecorator@NEffectUpdateDecorator@@@@8 ; CDynamicPoolEx<NEffectUpdateDecorator::CTextureAnimationRandomDecorator>::`RTTI Base Class Descriptor at (0,-1,0,64)'
PUBLIC	??_R4?$CDynamicPoolEx@VCAirResistanceDecorator@NEffectUpdateDecorator@@@@6B@ ; CDynamicPoolEx<NEffectUpdateDecorator::CAirResistanceDecorator>::`RTTI Complete Object Locator'
PUBLIC	??_R0?AV?$CDynamicPoolEx@VCAirResistanceDecorator@NEffectUpdateDecorator@@@@@8 ; CDynamicPoolEx<NEffectUpdateDecorator::CAirResistanceDecorator> `RTTI Type Descriptor'
PUBLIC	??_R3?$CDynamicPoolEx@VCAirResistanceDecorator@NEffectUpdateDecorator@@@@8 ; CDynamicPoolEx<NEffectUpdateDecorator::CAirResistanceDecorator>::`RTTI Class Hierarchy Descriptor'
PUBLIC	??_R2?$CDynamicPoolEx@VCAirResistanceDecorator@NEffectUpdateDecorator@@@@8 ; CDynamicPoolEx<NEffectUpdateDecorator::CAirResistanceDecorator>::`RTTI Base Class Array'
PUBLIC	??_R1A@?0A@EA@?$CDynamicPoolEx@VCAirResistanceDecorator@NEffectUpdateDecorator@@@@8 ; CDynamicPoolEx<NEffectUpdateDecorator::CAirResistanceDecorator>::`RTTI Base Class Descriptor at (0,-1,0,64)'
PUBLIC	??_R4?$CDynamicPoolEx@VCGravityDecorator@NEffectUpdateDecorator@@@@6B@ ; CDynamicPoolEx<NEffectUpdateDecorator::CGravityDecorator>::`RTTI Complete Object Locator'
PUBLIC	??_R0?AV?$CDynamicPoolEx@VCGravityDecorator@NEffectUpdateDecorator@@@@@8 ; CDynamicPoolEx<NEffectUpdateDecorator::CGravityDecorator> `RTTI Type Descriptor'
PUBLIC	??_R3?$CDynamicPoolEx@VCGravityDecorator@NEffectUpdateDecorator@@@@8 ; CDynamicPoolEx<NEffectUpdateDecorator::CGravityDecorator>::`RTTI Class Hierarchy Descriptor'
PUBLIC	??_R2?$CDynamicPoolEx@VCGravityDecorator@NEffectUpdateDecorator@@@@8 ; CDynamicPoolEx<NEffectUpdateDecorator::CGravityDecorator>::`RTTI Base Class Array'
PUBLIC	??_R1A@?0A@EA@?$CDynamicPoolEx@VCGravityDecorator@NEffectUpdateDecorator@@@@8 ; CDynamicPoolEx<NEffectUpdateDecorator::CGravityDecorator>::`RTTI Base Class Descriptor at (0,-1,0,64)'
PUBLIC	??_R4?$CDynamicPoolEx@VCRotationDecorator@NEffectUpdateDecorator@@@@6B@ ; CDynamicPoolEx<NEffectUpdateDecorator::CRotationDecorator>::`RTTI Complete Object Locator'
PUBLIC	??_R0?AV?$CDynamicPoolEx@VCRotationDecorator@NEffectUpdateDecorator@@@@@8 ; CDynamicPoolEx<NEffectUpdateDecorator::CRotationDecorator> `RTTI Type Descriptor'
PUBLIC	??_R3?$CDynamicPoolEx@VCRotationDecorator@NEffectUpdateDecorator@@@@8 ; CDynamicPoolEx<NEffectUpdateDecorator::CRotationDecorator>::`RTTI Class Hierarchy Descriptor'
PUBLIC	??_R2?$CDynamicPoolEx@VCRotationDecorator@NEffectUpdateDecorator@@@@8 ; CDynamicPoolEx<NEffectUpdateDecorator::CRotationDecorator>::`RTTI Base Class Array'
PUBLIC	??_R1A@?0A@EA@?$CDynamicPoolEx@VCRotationDecorator@NEffectUpdateDecorator@@@@8 ; CDynamicPoolEx<NEffectUpdateDecorator::CRotationDecorator>::`RTTI Base Class Descriptor at (0,-1,0,64)'
PUBLIC	??_7?$CDynamicPoolEx@VCRotationDecorator@NEffectUpdateDecorator@@@@6B@ ; CDynamicPoolEx<NEffectUpdateDecorator::CRotationDecorator>::`vftable'
PUBLIC	??_G?$CDynamicPoolEx@VCRotationDecorator@NEffectUpdateDecorator@@@@UAEPAXI@Z ; CDynamicPoolEx<NEffectUpdateDecorator::CRotationDecorator>::`scalar deleting destructor'
PUBLIC	??_7?$CDynamicPoolEx@VCGravityDecorator@NEffectUpdateDecorator@@@@6B@ ; CDynamicPoolEx<NEffectUpdateDecorator::CGravityDecorator>::`vftable'
PUBLIC	??_G?$CDynamicPoolEx@VCGravityDecorator@NEffectUpdateDecorator@@@@UAEPAXI@Z ; CDynamicPoolEx<NEffectUpdateDecorator::CGravityDecorator>::`scalar deleting destructor'
PUBLIC	??_7?$CDynamicPoolEx@VCAirResistanceDecorator@NEffectUpdateDecorator@@@@6B@ ; CDynamicPoolEx<NEffectUpdateDecorator::CAirResistanceDecorator>::`vftable'
PUBLIC	??_G?$CDynamicPoolEx@VCAirResistanceDecorator@NEffectUpdateDecorator@@@@UAEPAXI@Z ; CDynamicPoolEx<NEffectUpdateDecorator::CAirResistanceDecorator>::`scalar deleting destructor'
PUBLIC	??_7?$CDynamicPoolEx@VCTextureAnimationRandomDecorator@NEffectUpdateDecorator@@@@6B@ ; CDynamicPoolEx<NEffectUpdateDecorator::CTextureAnimationRandomDecorator>::`vftable'
PUBLIC	??_G?$CDynamicPoolEx@VCTextureAnimationRandomDecorator@NEffectUpdateDecorator@@@@UAEPAXI@Z ; CDynamicPoolEx<NEffectUpdateDecorator::CTextureAnimationRandomDecorator>::`scalar deleting destructor'
PUBLIC	??_7?$CDynamicPoolEx@VCTextureAnimationCCWDecorator@NEffectUpdateDecorator@@@@6B@ ; CDynamicPoolEx<NEffectUpdateDecorator::CTextureAnimationCCWDecorator>::`vftable'
PUBLIC	??_G?$CDynamicPoolEx@VCTextureAnimationCCWDecorator@NEffectUpdateDecorator@@@@UAEPAXI@Z ; CDynamicPoolEx<NEffectUpdateDecorator::CTextureAnimationCCWDecorator>::`scalar deleting destructor'
PUBLIC	?c_iFastestSendingCount@@3HB			; c_iFastestSendingCount
PUBLIC	?c_iSlowestSendingCount@@3HB			; c_iSlowestSendingCount
PUBLIC	?c_fFastestSendingDelay@@3MB			; c_fFastestSendingDelay
PUBLIC	?c_fSlowestSendingDelay@@3MB			; c_fSlowestSendingDelay
PUBLIC	?c_fRotatingStepTime@@3MB			; c_fRotatingStepTime
PUBLIC	?c_fComboDistance@@3MB				; c_fComboDistance
PUBLIC	?c_fClickDistance@@3MB				; c_fClickDistance
PUBLIC	??_7?$CDynamicPoolEx@VCTextureAnimationCWDecorator@NEffectUpdateDecorator@@@@6B@ ; CDynamicPoolEx<NEffectUpdateDecorator::CTextureAnimationCWDecorator>::`vftable'
PUBLIC	??_G?$CDynamicPoolEx@VCTextureAnimationCWDecorator@NEffectUpdateDecorator@@@@UAEPAXI@Z ; CDynamicPoolEx<NEffectUpdateDecorator::CTextureAnimationCWDecorator>::`scalar deleting destructor'
PUBLIC	??_7?$CDynamicPoolEx@VCNullDecorator@NEffectUpdateDecorator@@@@6B@ ; CDynamicPoolEx<NEffectUpdateDecorator::CNullDecorator>::`vftable'
PUBLIC	??_G?$CDynamicPoolEx@VCNullDecorator@NEffectUpdateDecorator@@@@UAEPAXI@Z ; CDynamicPoolEx<NEffectUpdateDecorator::CNullDecorator>::`scalar deleting destructor'
PUBLIC	??_7?$CDynamicPoolEx@VCHeaderDecorator@NEffectUpdateDecorator@@@@6B@ ; CDynamicPoolEx<NEffectUpdateDecorator::CHeaderDecorator>::`vftable'
PUBLIC	??_G?$CDynamicPoolEx@VCHeaderDecorator@NEffectUpdateDecorator@@@@UAEPAXI@Z ; CDynamicPoolEx<NEffectUpdateDecorator::CHeaderDecorator>::`scalar deleting destructor'
EXTRN	??_E?$CDynamicPoolEx@VCRotationDecorator@NEffectUpdateDecorator@@@@UAEPAXI@Z:PROC ; CDynamicPoolEx<NEffectUpdateDecorator::CRotationDecorator>::`vector deleting destructor'
EXTRN	??_E?$CDynamicPoolEx@VCGravityDecorator@NEffectUpdateDecorator@@@@UAEPAXI@Z:PROC ; CDynamicPoolEx<NEffectUpdateDecorator::CGravityDecorator>::`vector deleting destructor'
EXTRN	??_E?$CDynamicPoolEx@VCAirResistanceDecorator@NEffectUpdateDecorator@@@@UAEPAXI@Z:PROC ; CDynamicPoolEx<NEffectUpdateDecorator::CAirResistanceDecorator>::`vector deleting destructor'
EXTRN	??_7type_info@@6B@:QWORD			; type_info::`vftable'
EXTRN	??_E?$CDynamicPoolEx@VCTextureAnimationRandomDecorator@NEffectUpdateDecorator@@@@UAEPAXI@Z:PROC ; CDynamicPoolEx<NEffectUpdateDecorator::CTextureAnimationRandomDecorator>::`vector deleting destructor'
EXTRN	??_E?$CDynamicPoolEx@VCTextureAnimationCCWDecorator@NEffectUpdateDecorator@@@@UAEPAXI@Z:PROC ; CDynamicPoolEx<NEffectUpdateDecorator::CTextureAnimationCCWDecorator>::`vector deleting destructor'
EXTRN	??_E?$CDynamicPoolEx@VCTextureAnimationCWDecorator@NEffectUpdateDecorator@@@@UAEPAXI@Z:PROC ; CDynamicPoolEx<NEffectUpdateDecorator::CTextureAnimationCWDecorator>::`vector deleting destructor'
EXTRN	??_E?$CDynamicPoolEx@VCNullDecorator@NEffectUpdateDecorator@@@@UAEPAXI@Z:PROC ; CDynamicPoolEx<NEffectUpdateDecorator::CNullDecorator>::`vector deleting destructor'
EXTRN	??_E?$CDynamicPoolEx@VCHeaderDecorator@NEffectUpdateDecorator@@@@UAEPAXI@Z:PROC ; CDynamicPoolEx<NEffectUpdateDecorator::CHeaderDecorator>::`vector deleting destructor'
;	COMDAT ??_7?$CDynamicPoolEx@VCHeaderDecorator@NEffectUpdateDecorator@@@@6B@
CONST	SEGMENT
??_7?$CDynamicPoolEx@VCHeaderDecorator@NEffectUpdateDecorator@@@@6B@ DD FLAT:??_R4?$CDynamicPoolEx@VCHeaderDecorator@NEffectUpdateDecorator@@@@6B@ ; CDynamicPoolEx<NEffectUpdateDecorator::CHeaderDecorator>::`vftable'
	DD	FLAT:??_E?$CDynamicPoolEx@VCHeaderDecorator@NEffectUpdateDecorator@@@@UAEPAXI@Z
CONST	ENDS
;	COMDAT ??_7?$CDynamicPoolEx@VCNullDecorator@NEffectUpdateDecorator@@@@6B@
CONST	SEGMENT
??_7?$CDynamicPoolEx@VCNullDecorator@NEffectUpdateDecorator@@@@6B@ DD FLAT:??_R4?$CDynamicPoolEx@VCNullDecorator@NEffectUpdateDecorator@@@@6B@ ; CDynamicPoolEx<NEffectUpdateDecorator::CNullDecorator>::`vftable'
	DD	FLAT:??_E?$CDynamicPoolEx@VCNullDecorator@NEffectUpdateDecorator@@@@UAEPAXI@Z
CONST	ENDS
;	COMDAT ??_7?$CDynamicPoolEx@VCTextureAnimationCWDecorator@NEffectUpdateDecorator@@@@6B@
CONST	SEGMENT
??_7?$CDynamicPoolEx@VCTextureAnimationCWDecorator@NEffectUpdateDecorator@@@@6B@ DD FLAT:??_R4?$CDynamicPoolEx@VCTextureAnimationCWDecorator@NEffectUpdateDecorator@@@@6B@ ; CDynamicPoolEx<NEffectUpdateDecorator::CTextureAnimationCWDecorator>::`vftable'
	DD	FLAT:??_E?$CDynamicPoolEx@VCTextureAnimationCWDecorator@NEffectUpdateDecorator@@@@UAEPAXI@Z
CONST	ENDS
CONST	SEGMENT
?c_iFastestSendingCount@@3HB DD 03H			; c_iFastestSendingCount
?c_iSlowestSendingCount@@3HB DD 03H			; c_iSlowestSendingCount
?c_fFastestSendingDelay@@3MB DD 03eaaaaabr	; 0.333333 ; c_fFastestSendingDelay
?c_fSlowestSendingDelay@@3MB DD 03eaaaaabr	; 0.333333 ; c_fSlowestSendingDelay
?c_fRotatingStepTime@@3MB DD 03f000000r		; 0.5	; c_fRotatingStepTime
?c_fComboDistance@@3MB DD 0437a0000r		; 250	; c_fComboDistance
?c_fClickDistance@@3MB DD 043960000r		; 300	; c_fClickDistance
CONST	ENDS
;	COMDAT ??_7?$CDynamicPoolEx@VCTextureAnimationCCWDecorator@NEffectUpdateDecorator@@@@6B@
CONST	SEGMENT
??_7?$CDynamicPoolEx@VCTextureAnimationCCWDecorator@NEffectUpdateDecorator@@@@6B@ DD FLAT:??_R4?$CDynamicPoolEx@VCTextureAnimationCCWDecorator@NEffectUpdateDecorator@@@@6B@ ; CDynamicPoolEx<NEffectUpdateDecorator::CTextureAnimationCCWDecorator>::`vftable'
	DD	FLAT:??_E?$CDynamicPoolEx@VCTextureAnimationCCWDecorator@NEffectUpdateDecorator@@@@UAEPAXI@Z
CONST	ENDS
;	COMDAT ??_7?$CDynamicPoolEx@VCTextureAnimationRandomDecorator@NEffectUpdateDecorator@@@@6B@
CONST	SEGMENT
??_7?$CDynamicPoolEx@VCTextureAnimationRandomDecorator@NEffectUpdateDecorator@@@@6B@ DD FLAT:??_R4?$CDynamicPoolEx@VCTextureAnimationRandomDecorator@NEffectUpdateDecorator@@@@6B@ ; CDynamicPoolEx<NEffectUpdateDecorator::CTextureAnimationRandomDecorator>::`vftable'
	DD	FLAT:??_E?$CDynamicPoolEx@VCTextureAnimationRandomDecorator@NEffectUpdateDecorator@@@@UAEPAXI@Z
CONST	ENDS
;	COMDAT ??_7?$CDynamicPoolEx@VCAirResistanceDecorator@NEffectUpdateDecorator@@@@6B@
CONST	SEGMENT
??_7?$CDynamicPoolEx@VCAirResistanceDecorator@NEffectUpdateDecorator@@@@6B@ DD FLAT:??_R4?$CDynamicPoolEx@VCAirResistanceDecorator@NEffectUpdateDecorator@@@@6B@ ; CDynamicPoolEx<NEffectUpdateDecorator::CAirResistanceDecorator>::`vftable'
	DD	FLAT:??_E?$CDynamicPoolEx@VCAirResistanceDecorator@NEffectUpdateDecorator@@@@UAEPAXI@Z
CONST	ENDS
;	COMDAT ??_7?$CDynamicPoolEx@VCGravityDecorator@NEffectUpdateDecorator@@@@6B@
CONST	SEGMENT
??_7?$CDynamicPoolEx@VCGravityDecorator@NEffectUpdateDecorator@@@@6B@ DD FLAT:??_R4?$CDynamicPoolEx@VCGravityDecorator@NEffectUpdateDecorator@@@@6B@ ; CDynamicPoolEx<NEffectUpdateDecorator::CGravityDecorator>::`vftable'
	DD	FLAT:??_E?$CDynamicPoolEx@VCGravityDecorator@NEffectUpdateDecorator@@@@UAEPAXI@Z
CONST	ENDS
;	COMDAT ??_7?$CDynamicPoolEx@VCRotationDecorator@NEffectUpdateDecorator@@@@6B@
CONST	SEGMENT
??_7?$CDynamicPoolEx@VCRotationDecorator@NEffectUpdateDecorator@@@@6B@ DD FLAT:??_R4?$CDynamicPoolEx@VCRotationDecorator@NEffectUpdateDecorator@@@@6B@ ; CDynamicPoolEx<NEffectUpdateDecorator::CRotationDecorator>::`vftable'
	DD	FLAT:??_E?$CDynamicPoolEx@VCRotationDecorator@NEffectUpdateDecorator@@@@UAEPAXI@Z
CONST	ENDS
;	COMDAT ??_R1A@?0A@EA@?$CDynamicPoolEx@VCRotationDecorator@NEffectUpdateDecorator@@@@8
rdata$r	SEGMENT
??_R1A@?0A@EA@?$CDynamicPoolEx@VCRotationDecorator@NEffectUpdateDecorator@@@@8 DD FLAT:??_R0?AV?$CDynamicPoolEx@VCRotationDecorator@NEffectUpdateDecorator@@@@@8 ; CDynamicPoolEx<NEffectUpdateDecorator::CRotationDecorator>::`RTTI Base Class Descriptor at (0,-1,0,64)'
	DD	00H
	DD	00H
	DD	0ffffffffH
	DD	00H
	DD	040H
	DD	FLAT:??_R3?$CDynamicPoolEx@VCRotationDecorator@NEffectUpdateDecorator@@@@8
rdata$r	ENDS
;	COMDAT ??_R2?$CDynamicPoolEx@VCRotationDecorator@NEffectUpdateDecorator@@@@8
rdata$r	SEGMENT
??_R2?$CDynamicPoolEx@VCRotationDecorator@NEffectUpdateDecorator@@@@8 DD FLAT:??_R1A@?0A@EA@?$CDynamicPoolEx@VCRotationDecorator@NEffectUpdateDecorator@@@@8 ; CDynamicPoolEx<NEffectUpdateDecorator::CRotationDecorator>::`RTTI Base Class Array'
rdata$r	ENDS
;	COMDAT ??_R3?$CDynamicPoolEx@VCRotationDecorator@NEffectUpdateDecorator@@@@8
rdata$r	SEGMENT
??_R3?$CDynamicPoolEx@VCRotationDecorator@NEffectUpdateDecorator@@@@8 DD 00H ; CDynamicPoolEx<NEffectUpdateDecorator::CRotationDecorator>::`RTTI Class Hierarchy Descriptor'
	DD	00H
	DD	01H
	DD	FLAT:??_R2?$CDynamicPoolEx@VCRotationDecorator@NEffectUpdateDecorator@@@@8
rdata$r	ENDS
;	COMDAT ??_R0?AV?$CDynamicPoolEx@VCRotationDecorator@NEffectUpdateDecorator@@@@@8
data$rs	SEGMENT
??_R0?AV?$CDynamicPoolEx@VCRotationDecorator@NEffectUpdateDecorator@@@@@8 DD FLAT:??_7type_info@@6B@ ; CDynamicPoolEx<NEffectUpdateDecorator::CRotationDecorator> `RTTI Type Descriptor'
	DD	00H
	DB	'.?AV?$CDynamicPoolEx@VCRotationDecorator@NEffectUpdateDe'
	DB	'corator@@@@', 00H
data$rs	ENDS
;	COMDAT ??_R4?$CDynamicPoolEx@VCRotationDecorator@NEffectUpdateDecorator@@@@6B@
rdata$r	SEGMENT
??_R4?$CDynamicPoolEx@VCRotationDecorator@NEffectUpdateDecorator@@@@6B@ DD 00H ; CDynamicPoolEx<NEffectUpdateDecorator::CRotationDecorator>::`RTTI Complete Object Locator'
	DD	00H
	DD	00H
	DD	FLAT:??_R0?AV?$CDynamicPoolEx@VCRotationDecorator@NEffectUpdateDecorator@@@@@8
	DD	FLAT:??_R3?$CDynamicPoolEx@VCRotationDecorator@NEffectUpdateDecorator@@@@8
rdata$r	ENDS
;	COMDAT ??_R1A@?0A@EA@?$CDynamicPoolEx@VCGravityDecorator@NEffectUpdateDecorator@@@@8
rdata$r	SEGMENT
??_R1A@?0A@EA@?$CDynamicPoolEx@VCGravityDecorator@NEffectUpdateDecorator@@@@8 DD FLAT:??_R0?AV?$CDynamicPoolEx@VCGravityDecorator@NEffectUpdateDecorator@@@@@8 ; CDynamicPoolEx<NEffectUpdateDecorator::CGravityDecorator>::`RTTI Base Class Descriptor at (0,-1,0,64)'
	DD	00H
	DD	00H
	DD	0ffffffffH
	DD	00H
	DD	040H
	DD	FLAT:??_R3?$CDynamicPoolEx@VCGravityDecorator@NEffectUpdateDecorator@@@@8
rdata$r	ENDS
;	COMDAT ??_R2?$CDynamicPoolEx@VCGravityDecorator@NEffectUpdateDecorator@@@@8
rdata$r	SEGMENT
??_R2?$CDynamicPoolEx@VCGravityDecorator@NEffectUpdateDecorator@@@@8 DD FLAT:??_R1A@?0A@EA@?$CDynamicPoolEx@VCGravityDecorator@NEffectUpdateDecorator@@@@8 ; CDynamicPoolEx<NEffectUpdateDecorator::CGravityDecorator>::`RTTI Base Class Array'
rdata$r	ENDS
;	COMDAT ??_R3?$CDynamicPoolEx@VCGravityDecorator@NEffectUpdateDecorator@@@@8
rdata$r	SEGMENT
??_R3?$CDynamicPoolEx@VCGravityDecorator@NEffectUpdateDecorator@@@@8 DD 00H ; CDynamicPoolEx<NEffectUpdateDecorator::CGravityDecorator>::`RTTI Class Hierarchy Descriptor'
	DD	00H
	DD	01H
	DD	FLAT:??_R2?$CDynamicPoolEx@VCGravityDecorator@NEffectUpdateDecorator@@@@8
rdata$r	ENDS
;	COMDAT ??_R0?AV?$CDynamicPoolEx@VCGravityDecorator@NEffectUpdateDecorator@@@@@8
data$rs	SEGMENT
??_R0?AV?$CDynamicPoolEx@VCGravityDecorator@NEffectUpdateDecorator@@@@@8 DD FLAT:??_7type_info@@6B@ ; CDynamicPoolEx<NEffectUpdateDecorator::CGravityDecorator> `RTTI Type Descriptor'
	DD	00H
	DB	'.?AV?$CDynamicPoolEx@VCGravityDecorator@NEffectUpdateDec'
	DB	'orator@@@@', 00H
data$rs	ENDS
;	COMDAT ??_R4?$CDynamicPoolEx@VCGravityDecorator@NEffectUpdateDecorator@@@@6B@
rdata$r	SEGMENT
??_R4?$CDynamicPoolEx@VCGravityDecorator@NEffectUpdateDecorator@@@@6B@ DD 00H ; CDynamicPoolEx<NEffectUpdateDecorator::CGravityDecorator>::`RTTI Complete Object Locator'
	DD	00H
	DD	00H
	DD	FLAT:??_R0?AV?$CDynamicPoolEx@VCGravityDecorator@NEffectUpdateDecorator@@@@@8
	DD	FLAT:??_R3?$CDynamicPoolEx@VCGravityDecorator@NEffectUpdateDecorator@@@@8
rdata$r	ENDS
;	COMDAT ??_R1A@?0A@EA@?$CDynamicPoolEx@VCAirResistanceDecorator@NEffectUpdateDecorator@@@@8
rdata$r	SEGMENT
??_R1A@?0A@EA@?$CDynamicPoolEx@VCAirResistanceDecorator@NEffectUpdateDecorator@@@@8 DD FLAT:??_R0?AV?$CDynamicPoolEx@VCAirResistanceDecorator@NEffectUpdateDecorator@@@@@8 ; CDynamicPoolEx<NEffectUpdateDecorator::CAirResistanceDecorator>::`RTTI Base Class Descriptor at (0,-1,0,64)'
	DD	00H
	DD	00H
	DD	0ffffffffH
	DD	00H
	DD	040H
	DD	FLAT:??_R3?$CDynamicPoolEx@VCAirResistanceDecorator@NEffectUpdateDecorator@@@@8
rdata$r	ENDS
;	COMDAT ??_R2?$CDynamicPoolEx@VCAirResistanceDecorator@NEffectUpdateDecorator@@@@8
rdata$r	SEGMENT
??_R2?$CDynamicPoolEx@VCAirResistanceDecorator@NEffectUpdateDecorator@@@@8 DD FLAT:??_R1A@?0A@EA@?$CDynamicPoolEx@VCAirResistanceDecorator@NEffectUpdateDecorator@@@@8 ; CDynamicPoolEx<NEffectUpdateDecorator::CAirResistanceDecorator>::`RTTI Base Class Array'
rdata$r	ENDS
;	COMDAT ??_R3?$CDynamicPoolEx@VCAirResistanceDecorator@NEffectUpdateDecorator@@@@8
rdata$r	SEGMENT
??_R3?$CDynamicPoolEx@VCAirResistanceDecorator@NEffectUpdateDecorator@@@@8 DD 00H ; CDynamicPoolEx<NEffectUpdateDecorator::CAirResistanceDecorator>::`RTTI Class Hierarchy Descriptor'
	DD	00H
	DD	01H
	DD	FLAT:??_R2?$CDynamicPoolEx@VCAirResistanceDecorator@NEffectUpdateDecorator@@@@8
rdata$r	ENDS
;	COMDAT ??_R0?AV?$CDynamicPoolEx@VCAirResistanceDecorator@NEffectUpdateDecorator@@@@@8
data$rs	SEGMENT
??_R0?AV?$CDynamicPoolEx@VCAirResistanceDecorator@NEffectUpdateDecorator@@@@@8 DD FLAT:??_7type_info@@6B@ ; CDynamicPoolEx<NEffectUpdateDecorator::CAirResistanceDecorator> `RTTI Type Descriptor'
	DD	00H
	DB	'.?AV?$CDynamicPoolEx@VCAirResistanceDecorator@NEffectUpd'
	DB	'ateDecorator@@@@', 00H
data$rs	ENDS
;	COMDAT ??_R4?$CDynamicPoolEx@VCAirResistanceDecorator@NEffectUpdateDecorator@@@@6B@
rdata$r	SEGMENT
??_R4?$CDynamicPoolEx@VCAirResistanceDecorator@NEffectUpdateDecorator@@@@6B@ DD 00H ; CDynamicPoolEx<NEffectUpdateDecorator::CAirResistanceDecorator>::`RTTI Complete Object Locator'
	DD	00H
	DD	00H
	DD	FLAT:??_R0?AV?$CDynamicPoolEx@VCAirResistanceDecorator@NEffectUpdateDecorator@@@@@8
	DD	FLAT:??_R3?$CDynamicPoolEx@VCAirResistanceDecorator@NEffectUpdateDecorator@@@@8
rdata$r	ENDS
;	COMDAT ??_R1A@?0A@EA@?$CDynamicPoolEx@VCTextureAnimationRandomDecorator@NEffectUpdateDecorator@@@@8
rdata$r	SEGMENT
??_R1A@?0A@EA@?$CDynamicPoolEx@VCTextureAnimationRandomDecorator@NEffectUpdateDecorator@@@@8 DD FLAT:??_R0?AV?$CDynamicPoolEx@VCTextureAnimationRandomDecorator@NEffectUpdateDecorator@@@@@8 ; CDynamicPoolEx<NEffectUpdateDecorator::CTextureAnimationRandomDecorator>::`RTTI Base Class Descriptor at (0,-1,0,64)'
	DD	00H
	DD	00H
	DD	0ffffffffH
	DD	00H
	DD	040H
	DD	FLAT:??_R3?$CDynamicPoolEx@VCTextureAnimationRandomDecorator@NEffectUpdateDecorator@@@@8
rdata$r	ENDS
;	COMDAT ??_R2?$CDynamicPoolEx@VCTextureAnimationRandomDecorator@NEffectUpdateDecorator@@@@8
rdata$r	SEGMENT
??_R2?$CDynamicPoolEx@VCTextureAnimationRandomDecorator@NEffectUpdateDecorator@@@@8 DD FLAT:??_R1A@?0A@EA@?$CDynamicPoolEx@VCTextureAnimationRandomDecorator@NEffectUpdateDecorator@@@@8 ; CDynamicPoolEx<NEffectUpdateDecorator::CTextureAnimationRandomDecorator>::`RTTI Base Class Array'
rdata$r	ENDS
;	COMDAT ??_R3?$CDynamicPoolEx@VCTextureAnimationRandomDecorator@NEffectUpdateDecorator@@@@8
rdata$r	SEGMENT
??_R3?$CDynamicPoolEx@VCTextureAnimationRandomDecorator@NEffectUpdateDecorator@@@@8 DD 00H ; CDynamicPoolEx<NEffectUpdateDecorator::CTextureAnimationRandomDecorator>::`RTTI Class Hierarchy Descriptor'
	DD	00H
	DD	01H
	DD	FLAT:??_R2?$CDynamicPoolEx@VCTextureAnimationRandomDecorator@NEffectUpdateDecorator@@@@8
rdata$r	ENDS
;	COMDAT ??_R0?AV?$CDynamicPoolEx@VCTextureAnimationRandomDecorator@NEffectUpdateDecorator@@@@@8
data$rs	SEGMENT
??_R0?AV?$CDynamicPoolEx@VCTextureAnimationRandomDecorator@NEffectUpdateDecorator@@@@@8 DD FLAT:??_7type_info@@6B@ ; CDynamicPoolEx<NEffectUpdateDecorator::CTextureAnimationRandomDecorator> `RTTI Type Descriptor'
	DD	00H
	DB	'.?AV?$CDynamicPoolEx@VCTextureAnimationRandomDecorator@N'
	DB	'EffectUpdateDecorator@@@@', 00H
data$rs	ENDS
;	COMDAT ??_R4?$CDynamicPoolEx@VCTextureAnimationRandomDecorator@NEffectUpdateDecorator@@@@6B@
rdata$r	SEGMENT
??_R4?$CDynamicPoolEx@VCTextureAnimationRandomDecorator@NEffectUpdateDecorator@@@@6B@ DD 00H ; CDynamicPoolEx<NEffectUpdateDecorator::CTextureAnimationRandomDecorator>::`RTTI Complete Object Locator'
	DD	00H
	DD	00H
	DD	FLAT:??_R0?AV?$CDynamicPoolEx@VCTextureAnimationRandomDecorator@NEffectUpdateDecorator@@@@@8
	DD	FLAT:??_R3?$CDynamicPoolEx@VCTextureAnimationRandomDecorator@NEffectUpdateDecorator@@@@8
rdata$r	ENDS
;	COMDAT ??_R1A@?0A@EA@?$CDynamicPoolEx@VCTextureAnimationCCWDecorator@NEffectUpdateDecorator@@@@8
rdata$r	SEGMENT
??_R1A@?0A@EA@?$CDynamicPoolEx@VCTextureAnimationCCWDecorator@NEffectUpdateDecorator@@@@8 DD FLAT:??_R0?AV?$CDynamicPoolEx@VCTextureAnimationCCWDecorator@NEffectUpdateDecorator@@@@@8 ; CDynamicPoolEx<NEffectUpdateDecorator::CTextureAnimationCCWDecorator>::`RTTI Base Class Descriptor at (0,-1,0,64)'
	DD	00H
	DD	00H
	DD	0ffffffffH
	DD	00H
	DD	040H
	DD	FLAT:??_R3?$CDynamicPoolEx@VCTextureAnimationCCWDecorator@NEffectUpdateDecorator@@@@8
rdata$r	ENDS
;	COMDAT ??_R2?$CDynamicPoolEx@VCTextureAnimationCCWDecorator@NEffectUpdateDecorator@@@@8
rdata$r	SEGMENT
??_R2?$CDynamicPoolEx@VCTextureAnimationCCWDecorator@NEffectUpdateDecorator@@@@8 DD FLAT:??_R1A@?0A@EA@?$CDynamicPoolEx@VCTextureAnimationCCWDecorator@NEffectUpdateDecorator@@@@8 ; CDynamicPoolEx<NEffectUpdateDecorator::CTextureAnimationCCWDecorator>::`RTTI Base Class Array'
rdata$r	ENDS
;	COMDAT ??_R3?$CDynamicPoolEx@VCTextureAnimationCCWDecorator@NEffectUpdateDecorator@@@@8
rdata$r	SEGMENT
??_R3?$CDynamicPoolEx@VCTextureAnimationCCWDecorator@NEffectUpdateDecorator@@@@8 DD 00H ; CDynamicPoolEx<NEffectUpdateDecorator::CTextureAnimationCCWDecorator>::`RTTI Class Hierarchy Descriptor'
	DD	00H
	DD	01H
	DD	FLAT:??_R2?$CDynamicPoolEx@VCTextureAnimationCCWDecorator@NEffectUpdateDecorator@@@@8
rdata$r	ENDS
;	COMDAT ??_R0?AV?$CDynamicPoolEx@VCTextureAnimationCCWDecorator@NEffectUpdateDecorator@@@@@8
data$rs	SEGMENT
??_R0?AV?$CDynamicPoolEx@VCTextureAnimationCCWDecorator@NEffectUpdateDecorator@@@@@8 DD FLAT:??_7type_info@@6B@ ; CDynamicPoolEx<NEffectUpdateDecorator::CTextureAnimationCCWDecorator> `RTTI Type Descriptor'
	DD	00H
	DB	'.?AV?$CDynamicPoolEx@VCTextureAnimationCCWDecorator@NEff'
	DB	'ectUpdateDecorator@@@@', 00H
data$rs	ENDS
;	COMDAT ??_R4?$CDynamicPoolEx@VCTextureAnimationCCWDecorator@NEffectUpdateDecorator@@@@6B@
rdata$r	SEGMENT
??_R4?$CDynamicPoolEx@VCTextureAnimationCCWDecorator@NEffectUpdateDecorator@@@@6B@ DD 00H ; CDynamicPoolEx<NEffectUpdateDecorator::CTextureAnimationCCWDecorator>::`RTTI Complete Object Locator'
	DD	00H
	DD	00H
	DD	FLAT:??_R0?AV?$CDynamicPoolEx@VCTextureAnimationCCWDecorator@NEffectUpdateDecorator@@@@@8
	DD	FLAT:??_R3?$CDynamicPoolEx@VCTextureAnimationCCWDecorator@NEffectUpdateDecorator@@@@8
rdata$r	ENDS
;	COMDAT ??_R1A@?0A@EA@?$CDynamicPoolEx@VCTextureAnimationCWDecorator@NEffectUpdateDecorator@@@@8
rdata$r	SEGMENT
??_R1A@?0A@EA@?$CDynamicPoolEx@VCTextureAnimationCWDecorator@NEffectUpdateDecorator@@@@8 DD FLAT:??_R0?AV?$CDynamicPoolEx@VCTextureAnimationCWDecorator@NEffectUpdateDecorator@@@@@8 ; CDynamicPoolEx<NEffectUpdateDecorator::CTextureAnimationCWDecorator>::`RTTI Base Class Descriptor at (0,-1,0,64)'
	DD	00H
	DD	00H
	DD	0ffffffffH
	DD	00H
	DD	040H
	DD	FLAT:??_R3?$CDynamicPoolEx@VCTextureAnimationCWDecorator@NEffectUpdateDecorator@@@@8
rdata$r	ENDS
;	COMDAT ??_R2?$CDynamicPoolEx@VCTextureAnimationCWDecorator@NEffectUpdateDecorator@@@@8
rdata$r	SEGMENT
??_R2?$CDynamicPoolEx@VCTextureAnimationCWDecorator@NEffectUpdateDecorator@@@@8 DD FLAT:??_R1A@?0A@EA@?$CDynamicPoolEx@VCTextureAnimationCWDecorator@NEffectUpdateDecorator@@@@8 ; CDynamicPoolEx<NEffectUpdateDecorator::CTextureAnimationCWDecorator>::`RTTI Base Class Array'
rdata$r	ENDS
;	COMDAT ??_R3?$CDynamicPoolEx@VCTextureAnimationCWDecorator@NEffectUpdateDecorator@@@@8
rdata$r	SEGMENT
??_R3?$CDynamicPoolEx@VCTextureAnimationCWDecorator@NEffectUpdateDecorator@@@@8 DD 00H ; CDynamicPoolEx<NEffectUpdateDecorator::CTextureAnimationCWDecorator>::`RTTI Class Hierarchy Descriptor'
	DD	00H
	DD	01H
	DD	FLAT:??_R2?$CDynamicPoolEx@VCTextureAnimationCWDecorator@NEffectUpdateDecorator@@@@8
rdata$r	ENDS
;	COMDAT ??_R0?AV?$CDynamicPoolEx@VCTextureAnimationCWDecorator@NEffectUpdateDecorator@@@@@8
data$rs	SEGMENT
??_R0?AV?$CDynamicPoolEx@VCTextureAnimationCWDecorator@NEffectUpdateDecorator@@@@@8 DD FLAT:??_7type_info@@6B@ ; CDynamicPoolEx<NEffectUpdateDecorator::CTextureAnimationCWDecorator> `RTTI Type Descriptor'
	DD	00H
	DB	'.?AV?$CDynamicPoolEx@VCTextureAnimationCWDecorator@NEffe'
	DB	'ctUpdateDecorator@@@@', 00H
data$rs	ENDS
;	COMDAT ??_R4?$CDynamicPoolEx@VCTextureAnimationCWDecorator@NEffectUpdateDecorator@@@@6B@
rdata$r	SEGMENT
??_R4?$CDynamicPoolEx@VCTextureAnimationCWDecorator@NEffectUpdateDecorator@@@@6B@ DD 00H ; CDynamicPoolEx<NEffectUpdateDecorator::CTextureAnimationCWDecorator>::`RTTI Complete Object Locator'
	DD	00H
	DD	00H
	DD	FLAT:??_R0?AV?$CDynamicPoolEx@VCTextureAnimationCWDecorator@NEffectUpdateDecorator@@@@@8
	DD	FLAT:??_R3?$CDynamicPoolEx@VCTextureAnimationCWDecorator@NEffectUpdateDecorator@@@@8
rdata$r	ENDS
;	COMDAT ??_R1A@?0A@EA@?$CDynamicPoolEx@VCNullDecorator@NEffectUpdateDecorator@@@@8
rdata$r	SEGMENT
??_R1A@?0A@EA@?$CDynamicPoolEx@VCNullDecorator@NEffectUpdateDecorator@@@@8 DD FLAT:??_R0?AV?$CDynamicPoolEx@VCNullDecorator@NEffectUpdateDecorator@@@@@8 ; CDynamicPoolEx<NEffectUpdateDecorator::CNullDecorator>::`RTTI Base Class Descriptor at (0,-1,0,64)'
	DD	00H
	DD	00H
	DD	0ffffffffH
	DD	00H
	DD	040H
	DD	FLAT:??_R3?$CDynamicPoolEx@VCNullDecorator@NEffectUpdateDecorator@@@@8
rdata$r	ENDS
;	COMDAT ??_R2?$CDynamicPoolEx@VCNullDecorator@NEffectUpdateDecorator@@@@8
rdata$r	SEGMENT
??_R2?$CDynamicPoolEx@VCNullDecorator@NEffectUpdateDecorator@@@@8 DD FLAT:??_R1A@?0A@EA@?$CDynamicPoolEx@VCNullDecorator@NEffectUpdateDecorator@@@@8 ; CDynamicPoolEx<NEffectUpdateDecorator::CNullDecorator>::`RTTI Base Class Array'
rdata$r	ENDS
;	COMDAT ??_R3?$CDynamicPoolEx@VCNullDecorator@NEffectUpdateDecorator@@@@8
rdata$r	SEGMENT
??_R3?$CDynamicPoolEx@VCNullDecorator@NEffectUpdateDecorator@@@@8 DD 00H ; CDynamicPoolEx<NEffectUpdateDecorator::CNullDecorator>::`RTTI Class Hierarchy Descriptor'
	DD	00H
	DD	01H
	DD	FLAT:??_R2?$CDynamicPoolEx@VCNullDecorator@NEffectUpdateDecorator@@@@8
rdata$r	ENDS
;	COMDAT ??_R0?AV?$CDynamicPoolEx@VCNullDecorator@NEffectUpdateDecorator@@@@@8
data$rs	SEGMENT
??_R0?AV?$CDynamicPoolEx@VCNullDecorator@NEffectUpdateDecorator@@@@@8 DD FLAT:??_7type_info@@6B@ ; CDynamicPoolEx<NEffectUpdateDecorator::CNullDecorator> `RTTI Type Descriptor'
	DD	00H
	DB	'.?AV?$CDynamicPoolEx@VCNullDecorator@NEffectUpdateDecora'
	DB	'tor@@@@', 00H
data$rs	ENDS
;	COMDAT ??_R4?$CDynamicPoolEx@VCNullDecorator@NEffectUpdateDecorator@@@@6B@
rdata$r	SEGMENT
??_R4?$CDynamicPoolEx@VCNullDecorator@NEffectUpdateDecorator@@@@6B@ DD 00H ; CDynamicPoolEx<NEffectUpdateDecorator::CNullDecorator>::`RTTI Complete Object Locator'
	DD	00H
	DD	00H
	DD	FLAT:??_R0?AV?$CDynamicPoolEx@VCNullDecorator@NEffectUpdateDecorator@@@@@8
	DD	FLAT:??_R3?$CDynamicPoolEx@VCNullDecorator@NEffectUpdateDecorator@@@@8
rdata$r	ENDS
;	COMDAT ??_R1A@?0A@EA@?$CDynamicPoolEx@VCHeaderDecorator@NEffectUpdateDecorator@@@@8
rdata$r	SEGMENT
??_R1A@?0A@EA@?$CDynamicPoolEx@VCHeaderDecorator@NEffectUpdateDecorator@@@@8 DD FLAT:??_R0?AV?$CDynamicPoolEx@VCHeaderDecorator@NEffectUpdateDecorator@@@@@8 ; CDynamicPoolEx<NEffectUpdateDecorator::CHeaderDecorator>::`RTTI Base Class Descriptor at (0,-1,0,64)'
	DD	00H
	DD	00H
	DD	0ffffffffH
	DD	00H
	DD	040H
	DD	FLAT:??_R3?$CDynamicPoolEx@VCHeaderDecorator@NEffectUpdateDecorator@@@@8
rdata$r	ENDS
;	COMDAT ??_R2?$CDynamicPoolEx@VCHeaderDecorator@NEffectUpdateDecorator@@@@8
rdata$r	SEGMENT
??_R2?$CDynamicPoolEx@VCHeaderDecorator@NEffectUpdateDecorator@@@@8 DD FLAT:??_R1A@?0A@EA@?$CDynamicPoolEx@VCHeaderDecorator@NEffectUpdateDecorator@@@@8 ; CDynamicPoolEx<NEffectUpdateDecorator::CHeaderDecorator>::`RTTI Base Class Array'
rdata$r	ENDS
;	COMDAT ??_R3?$CDynamicPoolEx@VCHeaderDecorator@NEffectUpdateDecorator@@@@8
rdata$r	SEGMENT
??_R3?$CDynamicPoolEx@VCHeaderDecorator@NEffectUpdateDecorator@@@@8 DD 00H ; CDynamicPoolEx<NEffectUpdateDecorator::CHeaderDecorator>::`RTTI Class Hierarchy Descriptor'
	DD	00H
	DD	01H
	DD	FLAT:??_R2?$CDynamicPoolEx@VCHeaderDecorator@NEffectUpdateDecorator@@@@8
rdata$r	ENDS
;	COMDAT ??_R0?AV?$CDynamicPoolEx@VCHeaderDecorator@NEffectUpdateDecorator@@@@@8
data$rs	SEGMENT
??_R0?AV?$CDynamicPoolEx@VCHeaderDecorator@NEffectUpdateDecorator@@@@@8 DD FLAT:??_7type_info@@6B@ ; CDynamicPoolEx<NEffectUpdateDecorator::CHeaderDecorator> `RTTI Type Descriptor'
	DD	00H
	DB	'.?AV?$CDynamicPoolEx@VCHeaderDecorator@NEffectUpdateDeco'
	DB	'rator@@@@', 00H
data$rs	ENDS
;	COMDAT ??_R4?$CDynamicPoolEx@VCHeaderDecorator@NEffectUpdateDecorator@@@@6B@
rdata$r	SEGMENT
??_R4?$CDynamicPoolEx@VCHeaderDecorator@NEffectUpdateDecorator@@@@6B@ DD 00H ; CDynamicPoolEx<NEffectUpdateDecorator::CHeaderDecorator>::`RTTI Complete Object Locator'
	DD	00H
	DD	00H
	DD	FLAT:??_R0?AV?$CDynamicPoolEx@VCHeaderDecorator@NEffectUpdateDecorator@@@@@8
	DD	FLAT:??_R3?$CDynamicPoolEx@VCHeaderDecorator@NEffectUpdateDecorator@@@@8
rdata$r	ENDS
PUBLIC	??_H@YGXPAXIIP6EPAX0@Z@Z			; `vector constructor iterator'
PUBLIC	?__empty_global_delete@@YAXPAX@Z		; __empty_global_delete
PUBLIC	?__empty_global_delete@@YAXPAXI@Z		; __empty_global_delete
PUBLIC	??$_Deallocate@$07$0A@@std@@YAXPAXI@Z		; std::_Deallocate<8,0>
PUBLIC	?PickCloseMoney@CPythonPlayer@@QAEXXZ		; CPythonPlayer::PickCloseMoney
PUBLIC	?PickCloseItem@CPythonPlayer@@QAEXXZ		; CPythonPlayer::PickCloseItem
PUBLIC	?NEW_SetAutoCameraRotationSpeed@CPythonPlayer@@QAEXM@Z ; CPythonPlayer::NEW_SetAutoCameraRotationSpeed
PUBLIC	?NEW_ResetCameraRotation@CPythonPlayer@@QAEXXZ	; CPythonPlayer::NEW_ResetCameraRotation
PUBLIC	?NEW_Attack@CPythonPlayer@@QAEXXZ		; CPythonPlayer::NEW_Attack
PUBLIC	?NEW_Fishing@CPythonPlayer@@QAEXXZ		; CPythonPlayer::NEW_Fishing
PUBLIC	?NEW_CancelFishing@CPythonPlayer@@QAE_NXZ	; CPythonPlayer::NEW_CancelFishing
PUBLIC	?NEW_MoveToDirection@CPythonPlayer@@QAE_NM@Z	; CPythonPlayer::NEW_MoveToDirection
PUBLIC	?NEW_Stop@CPythonPlayer@@QAEXXZ			; CPythonPlayer::NEW_Stop
PUBLIC	?NEW_IsEmptyReservedDelayTime@CPythonPlayer@@QAE_NM@Z ; CPythonPlayer::NEW_IsEmptyReservedDelayTime
PUBLIC	?SetTarget@CPythonPlayer@@UAEXKH@Z		; CPythonPlayer::SetTarget
PUBLIC	?OpenCharacterMenu@CPythonPlayer@@QAEXK@Z	; CPythonPlayer::OpenCharacterMenu
PUBLIC	?GetTargetVID@CPythonPlayer@@QAEKXZ		; CPythonPlayer::GetTargetVID
PUBLIC	?SetMovableGroundDistance@CPythonPlayer@@QAEXM@Z ; CPythonPlayer::SetMovableGroundDistance
PUBLIC	?__OnPressItem@CPythonPlayer@@IAEXAAVCInstanceBase@@K@Z ; CPythonPlayer::__OnPressItem
PUBLIC	?__OnPressActor@CPythonPlayer@@IAEXAAVCInstanceBase@@K_N@Z ; CPythonPlayer::__OnPressActor
PUBLIC	?__OnPressGround@CPythonPlayer@@IAEXAAVCInstanceBase@@ABUD3DXVECTOR3@@@Z ; CPythonPlayer::__OnPressGround
PUBLIC	?__OnPressScreen@CPythonPlayer@@IAEXAAVCInstanceBase@@@Z ; CPythonPlayer::__OnPressScreen
PUBLIC	?__OnClickActor@CPythonPlayer@@IAEXAAVCInstanceBase@@K_N@Z ; CPythonPlayer::__OnClickActor
PUBLIC	?__OnClickItem@CPythonPlayer@@IAEXAAVCInstanceBase@@K@Z ; CPythonPlayer::__OnClickItem
PUBLIC	?__OnClickGround@CPythonPlayer@@IAEXAAVCInstanceBase@@ABUD3DXVECTOR3@@@Z ; CPythonPlayer::__OnClickGround
PUBLIC	?__IsMovableGroundDistance@CPythonPlayer@@IAE_NAAVCInstanceBase@@ABUD3DXVECTOR3@@@Z ; CPythonPlayer::__IsMovableGroundDistance
PUBLIC	?__ClearReservedAction@CPythonPlayer@@IAEXXZ	; CPythonPlayer::__ClearReservedAction
PUBLIC	?__ReserveClickItem@CPythonPlayer@@IAEXK@Z	; CPythonPlayer::__ReserveClickItem
PUBLIC	?__ReserveClickActor@CPythonPlayer@@IAEXK@Z	; CPythonPlayer::__ReserveClickActor
PUBLIC	?__ReserveClickGround@CPythonPlayer@@IAEXABUD3DXVECTOR3@@@Z ; CPythonPlayer::__ReserveClickGround
PUBLIC	?__ReserveUseSkill@CPythonPlayer@@IAEXKKK@Z	; CPythonPlayer::__ReserveUseSkill
PUBLIC	?__ReserveProcess_ClickActor@CPythonPlayer@@IAEXXZ ; CPythonPlayer::__ReserveProcess_ClickActor
PUBLIC	?__ClearAutoAttackTargetActorID@CPythonPlayer@@IAEXXZ ; CPythonPlayer::__ClearAutoAttackTargetActorID
PUBLIC	?__SetAutoAttackTargetActorID@CPythonPlayer@@IAEXK@Z ; CPythonPlayer::__SetAutoAttackTargetActorID
PUBLIC	?NEW_GetMouseDirRotation@CPythonPlayer@@IAEXMMPAM@Z ; CPythonPlayer::NEW_GetMouseDirRotation
PUBLIC	?NEW_GetMultiKeyDirRotation@CPythonPlayer@@IAEX_N000PAM@Z ; CPythonPlayer::NEW_GetMultiKeyDirRotation
PUBLIC	?GetDegreeFromPosition@CPythonPlayer@@IAEMHHHH@Z ; CPythonPlayer::GetDegreeFromPosition
PUBLIC	?__CanShot@CPythonPlayer@@IAE_NAAVCInstanceBase@@0@Z ; CPythonPlayer::__CanShot
PUBLIC	?__CanMove@CPythonPlayer@@IAE_NXZ		; CPythonPlayer::__CanMove
PUBLIC	?__CanAttack@CPythonPlayer@@IAE_NXZ		; CPythonPlayer::__CanAttack
PUBLIC	?__CanChangeTarget@CPythonPlayer@@IAE_NXZ	; CPythonPlayer::__CanChangeTarget
PUBLIC	?__IsReservedUseSkill@CPythonPlayer@@IAE_NK@Z	; CPythonPlayer::__IsReservedUseSkill
PUBLIC	?__GetPickableDistance@CPythonPlayer@@IAEKXZ	; CPythonPlayer::__GetPickableDistance
PUBLIC	?__GetTargetActorPtr@CPythonPlayer@@IAEPAVCInstanceBase@@XZ ; CPythonPlayer::__GetTargetActorPtr
PUBLIC	?__ClearTarget@CPythonPlayer@@IAEXXZ		; CPythonPlayer::__ClearTarget
PUBLIC	?__GetTargetVID@CPythonPlayer@@IAEKXZ		; CPythonPlayer::__GetTargetVID
PUBLIC	?__SetTargetVID@CPythonPlayer@@IAEXK@Z		; CPythonPlayer::__SetTargetVID
PUBLIC	?__IsSameTargetVID@CPythonPlayer@@IAE_NK@Z	; CPythonPlayer::__IsSameTargetVID
PUBLIC	?__IsTarget@CPythonPlayer@@IAE_NXZ		; CPythonPlayer::__IsTarget
PUBLIC	?__ChangeTargetToPickedInstance@CPythonPlayer@@IAE_NXZ ; CPythonPlayer::__ChangeTargetToPickedInstance
PUBLIC	?__GetSkillTargetInstancePtr@CPythonPlayer@@IAEPAVCInstanceBase@@AAUSSkillData@CPythonSkill@@@Z ; CPythonPlayer::__GetSkillTargetInstancePtr
PUBLIC	?__GetAliveTargetInstancePtr@CPythonPlayer@@IAEPAVCInstanceBase@@XZ ; CPythonPlayer::__GetAliveTargetInstancePtr
PUBLIC	?__GetDeadTargetInstancePtr@CPythonPlayer@@IAEPAVCInstanceBase@@XZ ; CPythonPlayer::__GetDeadTargetInstancePtr
PUBLIC	??1?$CDynamicPoolEx@VCRotationDecorator@NEffectUpdateDecorator@@@@UAE@XZ ; CDynamicPoolEx<NEffectUpdateDecorator::CRotationDecorator>::~CDynamicPoolEx<NEffectUpdateDecorator::CRotationDecorator>
PUBLIC	?Delete@?$CDynamicPoolEx@VCRotationDecorator@NEffectUpdateDecorator@@@@KAXPAVCRotationDecorator@NEffectUpdateDecorator@@@Z ; CDynamicPoolEx<NEffectUpdateDecorator::CRotationDecorator>::Delete
PUBLIC	??1?$CDynamicPoolEx@VCGravityDecorator@NEffectUpdateDecorator@@@@UAE@XZ ; CDynamicPoolEx<NEffectUpdateDecorator::CGravityDecorator>::~CDynamicPoolEx<NEffectUpdateDecorator::CGravityDecorator>
PUBLIC	?Delete@?$CDynamicPoolEx@VCGravityDecorator@NEffectUpdateDecorator@@@@KAXPAVCGravityDecorator@NEffectUpdateDecorator@@@Z ; CDynamicPoolEx<NEffectUpdateDecorator::CGravityDecorator>::Delete
PUBLIC	??1?$CDynamicPoolEx@VCAirResistanceDecorator@NEffectUpdateDecorator@@@@UAE@XZ ; CDynamicPoolEx<NEffectUpdateDecorator::CAirResistanceDecorator>::~CDynamicPoolEx<NEffectUpdateDecorator::CAirResistanceDecorator>
PUBLIC	?Delete@?$CDynamicPoolEx@VCAirResistanceDecorator@NEffectUpdateDecorator@@@@KAXPAVCAirResistanceDecorator@NEffectUpdateDecorator@@@Z ; CDynamicPoolEx<NEffectUpdateDecorator::CAirResistanceDecorator>::Delete
PUBLIC	??1?$CDynamicPoolEx@VCTextureAnimationRandomDecorator@NEffectUpdateDecorator@@@@UAE@XZ ; CDynamicPoolEx<NEffectUpdateDecorator::CTextureAnimationRandomDecorator>::~CDynamicPoolEx<NEffectUpdateDecorator::CTextureAnimationRandomDecorator>
PUBLIC	?Delete@?$CDynamicPoolEx@VCTextureAnimationRandomDecorator@NEffectUpdateDecorator@@@@KAXPAVCTextureAnimationRandomDecorator@NEffectUpdateDecorator@@@Z ; CDynamicPoolEx<NEffectUpdateDecorator::CTextureAnimationRandomDecorator>::Delete
PUBLIC	??1?$CDynamicPoolEx@VCTextureAnimationCCWDecorator@NEffectUpdateDecorator@@@@UAE@XZ ; CDynamicPoolEx<NEffectUpdateDecorator::CTextureAnimationCCWDecorator>::~CDynamicPoolEx<NEffectUpdateDecorator::CTextureAnimationCCWDecorator>
PUBLIC	?Delete@?$CDynamicPoolEx@VCTextureAnimationCCWDecorator@NEffectUpdateDecorator@@@@KAXPAVCTextureAnimationCCWDecorator@NEffectUpdateDecorator@@@Z ; CDynamicPoolEx<NEffectUpdateDecorator::CTextureAnimationCCWDecorator>::Delete
PUBLIC	??1?$CDynamicPoolEx@VCTextureAnimationCWDecorator@NEffectUpdateDecorator@@@@UAE@XZ ; CDynamicPoolEx<NEffectUpdateDecorator::CTextureAnimationCWDecorator>::~CDynamicPoolEx<NEffectUpdateDecorator::CTextureAnimationCWDecorator>
PUBLIC	?Delete@?$CDynamicPoolEx@VCTextureAnimationCWDecorator@NEffectUpdateDecorator@@@@KAXPAVCTextureAnimationCWDecorator@NEffectUpdateDecorator@@@Z ; CDynamicPoolEx<NEffectUpdateDecorator::CTextureAnimationCWDecorator>::Delete
PUBLIC	??1?$CDynamicPoolEx@VCNullDecorator@NEffectUpdateDecorator@@@@UAE@XZ ; CDynamicPoolEx<NEffectUpdateDecorator::CNullDecorator>::~CDynamicPoolEx<NEffectUpdateDecorator::CNullDecorator>
PUBLIC	?Delete@?$CDynamicPoolEx@VCNullDecorator@NEffectUpdateDecorator@@@@KAXPAVCNullDecorator@NEffectUpdateDecorator@@@Z ; CDynamicPoolEx<NEffectUpdateDecorator::CNullDecorator>::Delete
PUBLIC	??1?$CDynamicPoolEx@VCHeaderDecorator@NEffectUpdateDecorator@@@@UAE@XZ ; CDynamicPoolEx<NEffectUpdateDecorator::CHeaderDecorator>::~CDynamicPoolEx<NEffectUpdateDecorator::CHeaderDecorator>
PUBLIC	?Delete@?$CDynamicPoolEx@VCHeaderDecorator@NEffectUpdateDecorator@@@@KAXPAVCHeaderDecorator@NEffectUpdateDecorator@@@Z ; CDynamicPoolEx<NEffectUpdateDecorator::CHeaderDecorator>::Delete
PUBLIC	??$_Destroy_range@V?$allocator@PAVCHeaderDecorator@NEffectUpdateDecorator@@@std@@@std@@YAXPAPAVCHeaderDecorator@NEffectUpdateDecorator@@QAPAV12@AAV?$allocator@PAVCHeaderDecorator@NEffectUpdateDecorator@@@0@@Z ; std::_Destroy_range<std::allocator<NEffectUpdateDecorator::CHeaderDecorator *> >
PUBLIC	??$_Destroy_range@V?$allocator@PAVCNullDecorator@NEffectUpdateDecorator@@@std@@@std@@YAXPAPAVCNullDecorator@NEffectUpdateDecorator@@QAPAV12@AAV?$allocator@PAVCNullDecorator@NEffectUpdateDecorator@@@0@@Z ; std::_Destroy_range<std::allocator<NEffectUpdateDecorator::CNullDecorator *> >
PUBLIC	??$_Destroy_range@V?$allocator@PAVCTextureAnimationCWDecorator@NEffectUpdateDecorator@@@std@@@std@@YAXPAPAVCTextureAnimationCWDecorator@NEffectUpdateDecorator@@QAPAV12@AAV?$allocator@PAVCTextureAnimationCWDecorator@NEffectUpdateDecorator@@@0@@Z ; std::_Destroy_range<std::allocator<NEffectUpdateDecorator::CTextureAnimationCWDecorator *> >
PUBLIC	??$_Destroy_range@V?$allocator@PAVCTextureAnimationCCWDecorator@NEffectUpdateDecorator@@@std@@@std@@YAXPAPAVCTextureAnimationCCWDecorator@NEffectUpdateDecorator@@QAPAV12@AAV?$allocator@PAVCTextureAnimationCCWDecorator@NEffectUpdateDecorator@@@0@@Z ; std::_Destroy_range<std::allocator<NEffectUpdateDecorator::CTextureAnimationCCWDecorator *> >
PUBLIC	??$_Destroy_range@V?$allocator@PAVCTextureAnimationRandomDecorator@NEffectUpdateDecorator@@@std@@@std@@YAXPAPAVCTextureAnimationRandomDecorator@NEffectUpdateDecorator@@QAPAV12@AAV?$allocator@PAVCTextureAnimationRandomDecorator@NEffectUpdateDecorator@@@0@@Z ; std::_Destroy_range<std::allocator<NEffectUpdateDecorator::CTextureAnimationRandomDecorator *> >
PUBLIC	??$_Destroy_range@V?$allocator@PAVCAirResistanceDecorator@NEffectUpdateDecorator@@@std@@@std@@YAXPAPAVCAirResistanceDecorator@NEffectUpdateDecorator@@QAPAV12@AAV?$allocator@PAVCAirResistanceDecorator@NEffectUpdateDecorator@@@0@@Z ; std::_Destroy_range<std::allocator<NEffectUpdateDecorator::CAirResistanceDecorator *> >
PUBLIC	??$_Destroy_range@V?$allocator@PAVCGravityDecorator@NEffectUpdateDecorator@@@std@@@std@@YAXPAPAVCGravityDecorator@NEffectUpdateDecorator@@QAPAV12@AAV?$allocator@PAVCGravityDecorator@NEffectUpdateDecorator@@@0@@Z ; std::_Destroy_range<std::allocator<NEffectUpdateDecorator::CGravityDecorator *> >
PUBLIC	??$_Destroy_range@V?$allocator@PAVCRotationDecorator@NEffectUpdateDecorator@@@std@@@std@@YAXPAPAVCRotationDecorator@NEffectUpdateDecorator@@QAPAV12@AAV?$allocator@PAVCRotationDecorator@NEffectUpdateDecorator@@@0@@Z ; std::_Destroy_range<std::allocator<NEffectUpdateDecorator::CRotationDecorator *> >
PUBLIC	?ms_singleton@?$CSingleton@VCTimer@@@@0PAVCTimer@@A ; CSingleton<CTimer>::ms_singleton
PUBLIC	?ms_singleton@?$CSingleton@VCWindowManager@UI@@@@0PAVCWindowManager@UI@@A ; CSingleton<UI::CWindowManager>::ms_singleton
PUBLIC	?ms_singleton@?$CSingleton@VCPythonPlayer@@@@0PAVCPythonPlayer@@A ; CSingleton<CPythonPlayer>::ms_singleton
PUBLIC	?ms_kPool@?$CPooledObject@VCHeaderDecorator@NEffectUpdateDecorator@@@@1V?$CDynamicPoolEx@VCHeaderDecorator@NEffectUpdateDecorator@@@@A ; CPooledObject<NEffectUpdateDecorator::CHeaderDecorator>::ms_kPool
PUBLIC	?ms_kPool@?$CPooledObject@VCNullDecorator@NEffectUpdateDecorator@@@@1V?$CDynamicPoolEx@VCNullDecorator@NEffectUpdateDecorator@@@@A ; CPooledObject<NEffectUpdateDecorator::CNullDecorator>::ms_kPool
PUBLIC	?ms_kPool@?$CPooledObject@VCTextureAnimationCWDecorator@NEffectUpdateDecorator@@@@1V?$CDynamicPoolEx@VCTextureAnimationCWDecorator@NEffectUpdateDecorator@@@@A ; CPooledObject<NEffectUpdateDecorator::CTextureAnimationCWDecorator>::ms_kPool
PUBLIC	?ms_kPool@?$CPooledObject@VCTextureAnimationCCWDecorator@NEffectUpdateDecorator@@@@1V?$CDynamicPoolEx@VCTextureAnimationCCWDecorator@NEffectUpdateDecorator@@@@A ; CPooledObject<NEffectUpdateDecorator::CTextureAnimationCCWDecorator>::ms_kPool
PUBLIC	?ms_kPool@?$CPooledObject@VCTextureAnimationRandomDecorator@NEffectUpdateDecorator@@@@1V?$CDynamicPoolEx@VCTextureAnimationRandomDecorator@NEffectUpdateDecorator@@@@A ; CPooledObject<NEffectUpdateDecorator::CTextureAnimationRandomDecorator>::ms_kPool
PUBLIC	?ms_kPool@?$CPooledObject@VCAirResistanceDecorator@NEffectUpdateDecorator@@@@1V?$CDynamicPoolEx@VCAirResistanceDecorator@NEffectUpdateDecorator@@@@A ; CPooledObject<NEffectUpdateDecorator::CAirResistanceDecorator>::ms_kPool
PUBLIC	?ms_kPool@?$CPooledObject@VCGravityDecorator@NEffectUpdateDecorator@@@@1V?$CDynamicPoolEx@VCGravityDecorator@NEffectUpdateDecorator@@@@A ; CPooledObject<NEffectUpdateDecorator::CGravityDecorator>::ms_kPool
PUBLIC	?ms_kPool@?$CPooledObject@VCRotationDecorator@NEffectUpdateDecorator@@@@1V?$CDynamicPoolEx@VCRotationDecorator@NEffectUpdateDecorator@@@@A ; CPooledObject<NEffectUpdateDecorator::CRotationDecorator>::ms_kPool
PUBLIC	?ms_singleton@?$CSingleton@VCPythonNetworkStream@@@@0PAVCPythonNetworkStream@@A ; CSingleton<CPythonNetworkStream>::ms_singleton
PUBLIC	?ms_singleton@?$CSingleton@VCPythonItem@@@@0PAVCPythonItem@@A ; CSingleton<CPythonItem>::ms_singleton
PUBLIC	?ms_singleton@?$CSingleton@VCPythonCharacterManager@@@@0PAVCPythonCharacterManager@@A ; CSingleton<CPythonCharacterManager>::ms_singleton
PUBLIC	?ms_singleton@?$CSingleton@VCCameraManager@@@@0PAVCCameraManager@@A ; CSingleton<CCameraManager>::ms_singleton
PUBLIC	??_C@_04JMLDJNEM@?$CIis?$CJ@			; `string'
PUBLIC	??_C@_0BB@KPNAHCEN@SetPCTargetBoard@		; `string'
PUBLIC	??_C@_0DD@MNMGJOCJ@CPythonPlayer?3?3__OnPressItem?5?9?5@ ; `string'
PUBLIC	??_C@_02HCKGKOFO@?$CI?$CJ@			; `string'
PUBLIC	??_C@_0BE@DLANHBIF@OnFishingWrongPlace@		; `string'
PUBLIC	??_C@_0M@HCIEKIGP@NEED_TARGET@			; `string'
PUBLIC	??_C@_0BB@BOHMBBJL@OnCannotUseSkill@		; `string'
PUBLIC	??_C@_0M@FBIHMJDM@EMPTY_ARROW@			; `string'
PUBLIC	??_C@_0N@OPOOJDCJ@OnCannotShot@			; `string'
PUBLIC	??_C@_07OAOBINCH@IN_SAFE@			; `string'
PUBLIC	??_C@_0N@KDALDMKB@DEST_IN_SAFE@			; `string'
PUBLIC	??_C@_0P@BFHKDLNH@OnCannotAttack@		; `string'
PUBLIC	__real@3f000000
PUBLIC	__real@3f800000
PUBLIC	__real@4076800000000000
PUBLIC	__real@42652ee0
PUBLIC	__real@42b40000
PUBLIC	__real@43340000
PUBLIC	__real@43b40000
PUBLIC	__real@c2b40000
PUBLIC	__real@c3340000
PUBLIC	__xmm@80000000800000008000000080000000
EXTRN	??3@YAXPAX@Z:PROC				; operator delete
EXTRN	??3@YAXPAXI@Z:PROC				; operator delete
EXTRN	_atexit:PROC
EXTRN	__invalid_parameter_noinfo_noreturn:PROC
EXTRN	_D3DXVec3Normalize@8:PROC
EXTRN	?Logn@@YAXIPBD@Z:PROC				; Logn
EXTRN	__imp__Py_BuildValue:PROC
EXTRN	?PyCallClassMemberFunc@@YA_NPAU_object@@PBD0@Z:PROC ; PyCallClassMemberFunc
EXTRN	?GetCurrentMillisecond@CTimer@@QAEKXZ:PROC	; CTimer::GetCurrentMillisecond
EXTRN	?CameraRotationToCharacterRotation@@YAMM@Z:PROC	; CameraRotationToCharacterRotation
EXTRN	?IsNeedCorpse@SSkillData@CPythonSkill@@QAEHXZ:PROC ; CPythonSkill::SSkillData::IsNeedCorpse
EXTRN	?IsObserverMode@CPythonPlayer@@QAE_NXZ:PROC	; CPythonPlayer::IsObserverMode
EXTRN	?NEW_MoveToMouseScreenDirection@CPythonPlayer@@QAE_NXZ:PROC ; CPythonPlayer::NEW_MoveToMouseScreenDirection
EXTRN	?NEW_FindActorPtr@CPythonPlayer@@QAEPAVCInstanceBase@@K@Z:PROC ; CPythonPlayer::NEW_FindActorPtr
EXTRN	?SendClickItemPacket@CPythonPlayer@@QAEXK@Z:PROC ; CPythonPlayer::SendClickItemPacket
EXTRN	?GetSkillGrade@CPythonPlayer@@QAEHK@Z:PROC	; CPythonPlayer::GetSkillGrade
EXTRN	?GetSkillLevel@CPythonPlayer@@QAEHK@Z:PROC	; CPythonPlayer::GetSkillLevel
EXTRN	?IsOpenPrivateShop@CPythonPlayer@@QAE_NXZ:PROC	; CPythonPlayer::IsOpenPrivateShop
EXTRN	?__ShowPickedEffect@CPythonPlayer@@IAEXABUD3DXVECTOR3@@@Z:PROC ; CPythonPlayer::__ShowPickedEffect
EXTRN	?__SendClickActorPacket@CPythonPlayer@@IAEXAAVCInstanceBase@@@Z:PROC ; CPythonPlayer::__SendClickActorPacket
EXTRN	?__CheckDashAffect@CPythonPlayer@@IAE_NAAVCInstanceBase@@@Z:PROC ; CPythonPlayer::__CheckDashAffect
EXTRN	?__HasEnoughArrow@CPythonPlayer@@IAE_NXZ:PROC	; CPythonPlayer::__HasEnoughArrow
EXTRN	?__IsProcessingEmotion@CPythonPlayer@@IAEHXZ:PROC ; CPythonPlayer::__IsProcessingEmotion
EXTRN	?SetFlyEventHandler@CActorInstance@@QAEXPAVIFlyEventHandler@@@Z:PROC ; CActorInstance::SetFlyEventHandler
EXTRN	?SendTargetPacket@CPythonNetworkStream@@QAE_NK@Z:PROC ; CPythonNetworkStream::SendTargetPacket
EXTRN	?SendFishingPacket@CPythonNetworkStream@@QAE_NH@Z:PROC ; CPythonNetworkStream::SendFishingPacket
EXTRN	?OnTargeted@CInstanceBase@@QAEXXZ:PROC		; CInstanceBase::OnTargeted
EXTRN	?OnUntargeted@CInstanceBase@@QAEXXZ:PROC	; CInstanceBase::OnUntargeted
EXTRN	?ClearFlyTargetInstance@CInstanceBase@@QAEXXZ:PROC ; CInstanceBase::ClearFlyTargetInstance
EXTRN	?SetFlyTargetInstance@CInstanceBase@@QAEXAAV1@@Z:PROC ; CInstanceBase::SetFlyTargetInstance
EXTRN	?GetNameString@CInstanceBase@@QAEPBDXZ:PROC	; CInstanceBase::GetNameString
EXTRN	?GetVirtualID@CInstanceBase@@QAEKXZ:PROC	; CInstanceBase::GetVirtualID
EXTRN	?CanMove@CInstanceBase@@QAE_NXZ:PROC		; CInstanceBase::CanMove
EXTRN	?CanAttack@CInstanceBase@@QAE_NXZ:PROC		; CInstanceBase::CanAttack
EXTRN	?CanFishing@CInstanceBase@@QAE_NXZ:PROC		; CInstanceBase::CanFishing
EXTRN	?IsAttackableInstance@CInstanceBase@@QAE_NAAV1@@Z:PROC ; CInstanceBase::IsAttackableInstance
EXTRN	?IsTargetableInstance@CInstanceBase@@QAE_NAAV1@@Z:PROC ; CInstanceBase::IsTargetableInstance
EXTRN	?CanChangeTarget@CInstanceBase@@QAE_NXZ:PROC	; CInstanceBase::CanChangeTarget
EXTRN	?IsBowMode@CInstanceBase@@QAEHXZ:PROC		; CInstanceBase::IsBowMode
EXTRN	?IsHandMode@CInstanceBase@@QAEHXZ:PROC		; CInstanceBase::IsHandMode
EXTRN	?IsFishing@CInstanceBase@@QAEHXZ:PROC		; CInstanceBase::IsFishing
EXTRN	?IsMountingHorse@CInstanceBase@@QAEHXZ:PROC	; CInstanceBase::IsMountingHorse
EXTRN	?IsNewMount@CInstanceBase@@QAEHXZ:PROC		; CInstanceBase::IsNewMount
EXTRN	?IsInSafe@CInstanceBase@@QAEHXZ:PROC		; CInstanceBase::IsInSafe
EXTRN	?IsNPC@CInstanceBase@@QAEHXZ:PROC		; CInstanceBase::IsNPC
EXTRN	?IsPC@CInstanceBase@@QAEHXZ:PROC		; CInstanceBase::IsPC
EXTRN	?IsBuilding@CInstanceBase@@QAEHXZ:PROC		; CInstanceBase::IsBuilding
EXTRN	?IsDead@CInstanceBase@@QAEHXZ:PROC		; CInstanceBase::IsDead
EXTRN	?IsUsingMovingSkill@CInstanceBase@@QAEHXZ:PROC	; CInstanceBase::IsUsingMovingSkill
EXTRN	?NEW_Stop@CInstanceBase@@QAEXXZ:PROC		; CInstanceBase::NEW_Stop
EXTRN	?NEW_Attack@CInstanceBase@@QAEXXZ:PROC		; CInstanceBase::NEW_Attack
EXTRN	?NEW_Attack@CInstanceBase@@QAEXM@Z:PROC		; CInstanceBase::NEW_Attack
EXTRN	?NEW_AttackToDestInstanceDirection@CInstanceBase@@QAE_NAAV1@PAVIFlyEventHandler@@@Z:PROC ; CInstanceBase::NEW_AttackToDestInstanceDirection
EXTRN	?NEW_AttackToDestInstanceDirection@CInstanceBase@@QAE_NAAV1@@Z:PROC ; CInstanceBase::NEW_AttackToDestInstanceDirection
EXTRN	?NEW_MoveToDestPixelPositionDirection@CInstanceBase@@QAE_NABUD3DXVECTOR3@@@Z:PROC ; CInstanceBase::NEW_MoveToDestPixelPositionDirection
EXTRN	?NEW_MoveToDestInstanceDirection@CInstanceBase@@QAEXAAV1@@Z:PROC ; CInstanceBase::NEW_MoveToDestInstanceDirection
EXTRN	?NEW_MoveToDirection@CInstanceBase@@QAEXM@Z:PROC ; CInstanceBase::NEW_MoveToDirection
EXTRN	?NEW_GetDistanceFromDestPixelPosition@CInstanceBase@@QAEMABUD3DXVECTOR3@@@Z:PROC ; CInstanceBase::NEW_GetDistanceFromDestPixelPosition
EXTRN	?NEW_IsClickableDistanceDestPixelPosition@CInstanceBase@@QAEHABUD3DXVECTOR3@@@Z:PROC ; CInstanceBase::NEW_IsClickableDistanceDestPixelPosition
EXTRN	?NEW_IsClickableDistanceDestInstance@CInstanceBase@@QAEHAAV1@@Z:PROC ; CInstanceBase::NEW_IsClickableDistanceDestInstance
EXTRN	?GetFishingRot@CInstanceBase@@QAEHPAH@Z:PROC	; CInstanceBase::GetFishingRot
EXTRN	?NEW_GetPixelPosition@CInstanceBase@@QAEXPAUD3DXVECTOR3@@@Z:PROC ; CInstanceBase::NEW_GetPixelPosition
EXTRN	?NEW_LookAtDestInstance@CInstanceBase@@QAEXAAV1@@Z:PROC ; CInstanceBase::NEW_LookAtDestInstance
EXTRN	?isLock@CInstanceBase@@QAEHXZ:PROC		; CInstanceBase::isLock
EXTRN	?GetGraphicThingInstanceRef@CInstanceBase@@QAEAAVCActorInstance@@XZ:PROC ; CInstanceBase::GetGraphicThingInstanceRef
EXTRN	?GetSingleton@CPythonPlayerEventHandler@@SAAAV1@XZ:PROC ; CPythonPlayerEventHandler::GetSingleton
EXTRN	?Set@CNormalBowAttack_FlyEventHandler_AutoClear@CPythonPlayerEventHandler@@QAEXPAV2@PAVCInstanceBase@@1@Z:PROC ; CPythonPlayerEventHandler::CNormalBowAttack_FlyEventHandler_AutoClear::Set
EXTRN	?GetGroundItemPosition@CPythonItem@@QAEHKPAUD3DXVECTOR3@@@Z:PROC ; CPythonItem::GetGroundItemPosition
EXTRN	?GetCloseItem@CPythonItem@@QAE_NABUD3DXVECTOR3@@PAKK@Z:PROC ; CPythonItem::GetCloseItem
EXTRN	?GetCloseMoney@CPythonItem@@QAE_NABUD3DXVECTOR3@@PAKK@Z:PROC ; CPythonItem::GetCloseMoney
EXTRN	?OLD_GetPickedInstanceVID@CPythonCharacterManager@@QAE_NPAK@Z:PROC ; CPythonCharacterManager::OLD_GetPickedInstanceVID
EXTRN	?SetCursorNum@CPythonApplication@@QAEHH@Z:PROC	; CPythonApplication::SetCursorNum
EXTRN	?SetCursorVisible@CPythonApplication@@QAEXH_N@Z:PROC ; CPythonApplication::SetCursorVisible
EXTRN	?GetCursorMode@CPythonApplication@@QAEHXZ:PROC	; CPythonApplication::GetCursorMode
EXTRN	?EndDrag@CCamera@@QAE_NXZ:PROC			; CCamera::EndDrag
EXTRN	?Roll@CCamera@@QAEXM@Z:PROC			; CCamera::Roll
EXTRN	?GetCurrentCamera@CCameraManager@@QAEPAVCCamera@@XZ:PROC ; CCameraManager::GetCurrentCamera
EXTRN	@__security_check_cookie@4:PROC
EXTRN	__CIfmod:PROC
EXTRN	__libm_sse2_acos_precise:PROC
EXTRN	?ms_pInstance@CPythonApplication@@1PAV1@A:DWORD	; CPythonApplication::ms_pInstance
EXTRN	___security_cookie:DWORD
EXTRN	__fltused:DWORD
;	COMDAT ?ms_singleton@?$CSingleton@VCTimer@@@@0PAVCTimer@@A
_BSS	SEGMENT
?ms_singleton@?$CSingleton@VCTimer@@@@0PAVCTimer@@A DD 01H DUP (?) ; CSingleton<CTimer>::ms_singleton
_BSS	ENDS
;	COMDAT ?ms_singleton@?$CSingleton@VCWindowManager@UI@@@@0PAVCWindowManager@UI@@A
_BSS	SEGMENT
?ms_singleton@?$CSingleton@VCWindowManager@UI@@@@0PAVCWindowManager@UI@@A DD 01H DUP (?) ; CSingleton<UI::CWindowManager>::ms_singleton
_BSS	ENDS
;	COMDAT ?ms_singleton@?$CSingleton@VCPythonPlayer@@@@0PAVCPythonPlayer@@A
_BSS	SEGMENT
?ms_singleton@?$CSingleton@VCPythonPlayer@@@@0PAVCPythonPlayer@@A DD 01H DUP (?) ; CSingleton<CPythonPlayer>::ms_singleton
_BSS	ENDS
;	COMDAT ?ms_singleton@?$CSingleton@VCPythonNetworkStream@@@@0PAVCPythonNetworkStream@@A
_BSS	SEGMENT
?ms_singleton@?$CSingleton@VCPythonNetworkStream@@@@0PAVCPythonNetworkStream@@A DD 01H DUP (?) ; CSingleton<CPythonNetworkStream>::ms_singleton
_BSS	ENDS
;	COMDAT ?ms_singleton@?$CSingleton@VCPythonItem@@@@0PAVCPythonItem@@A
_BSS	SEGMENT
?ms_singleton@?$CSingleton@VCPythonItem@@@@0PAVCPythonItem@@A DD 01H DUP (?) ; CSingleton<CPythonItem>::ms_singleton
_BSS	ENDS
;	COMDAT ?ms_singleton@?$CSingleton@VCPythonCharacterManager@@@@0PAVCPythonCharacterManager@@A
_BSS	SEGMENT
?ms_singleton@?$CSingleton@VCPythonCharacterManager@@@@0PAVCPythonCharacterManager@@A DD 01H DUP (?) ; CSingleton<CPythonCharacterManager>::ms_singleton
_BSS	ENDS
;	COMDAT ?ms_singleton@?$CSingleton@VCCameraManager@@@@0PAVCCameraManager@@A
_BSS	SEGMENT
?ms_singleton@?$CSingleton@VCCameraManager@@@@0PAVCCameraManager@@A DD 01H DUP (?) ; CSingleton<CCameraManager>::ms_singleton
_BSS	ENDS
;	COMDAT ?s_dwLastPickItemID@?1??__OnPressItem@CPythonPlayer@@IAEXAAVCInstanceBase@@K@Z@4KA
_BSS	SEGMENT
?s_dwLastPickItemID@?1??__OnPressItem@CPythonPlayer@@IAEXAAVCInstanceBase@@K@Z@4KA DD 01H DUP (?) ; `CPythonPlayer::__OnPressItem'::`2'::s_dwLastPickItemID
_BSS	ENDS
;	COMDAT ?s_dwLastCancelTime@?6??NEW_CancelFishing@CPythonPlayer@@QAE_NXZ@4KA
_BSS	SEGMENT
?s_dwLastCancelTime@?6??NEW_CancelFishing@CPythonPlayer@@QAE_NXZ@4KA DD 01H DUP (?) ; `CPythonPlayer::NEW_CancelFishing'::`7'::s_dwLastCancelTime
_BSS	ENDS
;	COMDAT CRT$XCU
CRT$XCU	SEGMENT
??ms_kPool$initializer$@?$CPooledObject@VCHeaderDecorator@NEffectUpdateDecorator@@@@1P6AXXZA@@3P6AXXZA DD FLAT:??__E?ms_kPool@?$CPooledObject@VCHeaderDecorator@NEffectUpdateDecorator@@@@1V?$CDynamicPoolEx@VCHeaderDecorator@NEffectUpdateDecorator@@@@A@@YAXXZ ; ??ms_kPool$initializer$@?$CPooledObject@VCHeaderDecorator@NEffectUpdateDecorator@@@@1P6AXXZA@@3P6AXXZA
CRT$XCU	ENDS
;	COMDAT __xmm@80000000800000008000000080000000
CONST	SEGMENT
__xmm@80000000800000008000000080000000 DB 00H, 00H, 00H, 080H, 00H, 00H, 00H
	DB	080H, 00H, 00H, 00H, 080H, 00H, 00H, 00H, 080H
CONST	ENDS
;	COMDAT __real@c3340000
CONST	SEGMENT
__real@c3340000 DD 0c3340000r			; -180
CONST	ENDS
;	COMDAT __real@c2b40000
CONST	SEGMENT
__real@c2b40000 DD 0c2b40000r			; -90
CONST	ENDS
;	COMDAT __real@43b40000
CONST	SEGMENT
__real@43b40000 DD 043b40000r			; 360
CONST	ENDS
;	COMDAT __real@43340000
CONST	SEGMENT
__real@43340000 DD 043340000r			; 180
CONST	ENDS
;	COMDAT __real@42b40000
CONST	SEGMENT
__real@42b40000 DD 042b40000r			; 90
CONST	ENDS
;	COMDAT __real@42652ee0
CONST	SEGMENT
__real@42652ee0 DD 042652ee0r			; 57.2958
CONST	ENDS
;	COMDAT __real@4076800000000000
CONST	SEGMENT
__real@4076800000000000 DQ 04076800000000000r	; 360
CONST	ENDS
;	COMDAT __real@3f800000
CONST	SEGMENT
__real@3f800000 DD 03f800000r			; 1
CONST	ENDS
;	COMDAT __real@3f000000
CONST	SEGMENT
__real@3f000000 DD 03f000000r			; 0.5
CONST	ENDS
;	COMDAT ??_C@_0P@BFHKDLNH@OnCannotAttack@
CONST	SEGMENT
??_C@_0P@BFHKDLNH@OnCannotAttack@ DB 'OnCannotAttack', 00H ; `string'
CONST	ENDS
;	COMDAT ??_C@_0N@KDALDMKB@DEST_IN_SAFE@
CONST	SEGMENT
??_C@_0N@KDALDMKB@DEST_IN_SAFE@ DB 'DEST_IN_SAFE', 00H	; `string'
CONST	ENDS
;	COMDAT ??_C@_07OAOBINCH@IN_SAFE@
CONST	SEGMENT
??_C@_07OAOBINCH@IN_SAFE@ DB 'IN_SAFE', 00H		; `string'
CONST	ENDS
;	COMDAT ??_C@_0N@OPOOJDCJ@OnCannotShot@
CONST	SEGMENT
??_C@_0N@OPOOJDCJ@OnCannotShot@ DB 'OnCannotShot', 00H	; `string'
CONST	ENDS
;	COMDAT ??_C@_0M@FBIHMJDM@EMPTY_ARROW@
CONST	SEGMENT
??_C@_0M@FBIHMJDM@EMPTY_ARROW@ DB 'EMPTY_ARROW', 00H	; `string'
CONST	ENDS
;	COMDAT ??_C@_0BB@BOHMBBJL@OnCannotUseSkill@
CONST	SEGMENT
??_C@_0BB@BOHMBBJL@OnCannotUseSkill@ DB 'OnCannotUseSkill', 00H ; `string'
CONST	ENDS
;	COMDAT ??_C@_0M@HCIEKIGP@NEED_TARGET@
CONST	SEGMENT
??_C@_0M@HCIEKIGP@NEED_TARGET@ DB 'NEED_TARGET', 00H	; `string'
CONST	ENDS
;	COMDAT ??_C@_0BE@DLANHBIF@OnFishingWrongPlace@
CONST	SEGMENT
??_C@_0BE@DLANHBIF@OnFishingWrongPlace@ DB 'OnFishingWrongPlace', 00H ; `string'
CONST	ENDS
;	COMDAT ??_C@_02HCKGKOFO@?$CI?$CJ@
CONST	SEGMENT
??_C@_02HCKGKOFO@?$CI?$CJ@ DB '()', 00H			; `string'
CONST	ENDS
;	COMDAT ??_C@_0DD@MNMGJOCJ@CPythonPlayer?3?3__OnPressItem?5?9?5@
CONST	SEGMENT
??_C@_0DD@MNMGJOCJ@CPythonPlayer?3?3__OnPressItem?5?9?5@ DB 'CPythonPlaye'
	DB	'r::__OnPressItem - ALREADY PICKED ITEM', 00H ; `string'
CONST	ENDS
;	COMDAT ??_C@_0BB@KPNAHCEN@SetPCTargetBoard@
CONST	SEGMENT
??_C@_0BB@KPNAHCEN@SetPCTargetBoard@ DB 'SetPCTargetBoard', 00H ; `string'
CONST	ENDS
;	COMDAT ??_C@_04JMLDJNEM@?$CIis?$CJ@
CONST	SEGMENT
??_C@_04JMLDJNEM@?$CIis?$CJ@ DB '(is)', 00H		; `string'
CONST	ENDS
;	COMDAT ?ms_kPool@?$CPooledObject@VCRotationDecorator@NEffectUpdateDecorator@@@@1V?$CDynamicPoolEx@VCRotationDecorator@NEffectUpdateDecorator@@@@A
_DATA	SEGMENT
?ms_kPool@?$CPooledObject@VCRotationDecorator@NEffectUpdateDecorator@@@@1V?$CDynamicPoolEx@VCRotationDecorator@NEffectUpdateDecorator@@@@A DD FLAT:??_7?$CDynamicPoolEx@VCRotationDecorator@NEffectUpdateDecorator@@@@6B@ ; CPooledObject<NEffectUpdateDecorator::CRotationDecorator>::ms_kPool
	DD	00H
	DD	00H
	DD	00H
	DD	00H
	DD	00H
	DD	00H
	DD	00H
	DD	00H
_DATA	ENDS
;	COMDAT ?ms_kPool@?$CPooledObject@VCGravityDecorator@NEffectUpdateDecorator@@@@1V?$CDynamicPoolEx@VCGravityDecorator@NEffectUpdateDecorator@@@@A
_DATA	SEGMENT
?ms_kPool@?$CPooledObject@VCGravityDecorator@NEffectUpdateDecorator@@@@1V?$CDynamicPoolEx@VCGravityDecorator@NEffectUpdateDecorator@@@@A DD FLAT:??_7?$CDynamicPoolEx@VCGravityDecorator@NEffectUpdateDecorator@@@@6B@ ; CPooledObject<NEffectUpdateDecorator::CGravityDecorator>::ms_kPool
	DD	00H
	DD	00H
	DD	00H
	DD	00H
	DD	00H
	DD	00H
	DD	00H
	DD	00H
_DATA	ENDS
;	COMDAT ?ms_kPool@?$CPooledObject@VCAirResistanceDecorator@NEffectUpdateDecorator@@@@1V?$CDynamicPoolEx@VCAirResistanceDecorator@NEffectUpdateDecorator@@@@A
_DATA	SEGMENT
?ms_kPool@?$CPooledObject@VCAirResistanceDecorator@NEffectUpdateDecorator@@@@1V?$CDynamicPoolEx@VCAirResistanceDecorator@NEffectUpdateDecorator@@@@A DD FLAT:??_7?$CDynamicPoolEx@VCAirResistanceDecorator@NEffectUpdateDecorator@@@@6B@ ; CPooledObject<NEffectUpdateDecorator::CAirResistanceDecorator>::ms_kPool
	DD	00H
	DD	00H
	DD	00H
	DD	00H
	DD	00H
	DD	00H
	DD	00H
	DD	00H
_DATA	ENDS
;	COMDAT ?ms_kPool@?$CPooledObject@VCTextureAnimationRandomDecorator@NEffectUpdateDecorator@@@@1V?$CDynamicPoolEx@VCTextureAnimationRandomDecorator@NEffectUpdateDecorator@@@@A
_DATA	SEGMENT
?ms_kPool@?$CPooledObject@VCTextureAnimationRandomDecorator@NEffectUpdateDecorator@@@@1V?$CDynamicPoolEx@VCTextureAnimationRandomDecorator@NEffectUpdateDecorator@@@@A DD FLAT:??_7?$CDynamicPoolEx@VCTextureAnimationRandomDecorator@NEffectUpdateDecorator@@@@6B@ ; CPooledObject<NEffectUpdateDecorator::CTextureAnimationRandomDecorator>::ms_kPool
	DD	00H
	DD	00H
	DD	00H
	DD	00H
	DD	00H
	DD	00H
	DD	00H
	DD	00H
_DATA	ENDS
;	COMDAT ?ms_kPool@?$CPooledObject@VCTextureAnimationCCWDecorator@NEffectUpdateDecorator@@@@1V?$CDynamicPoolEx@VCTextureAnimationCCWDecorator@NEffectUpdateDecorator@@@@A
_DATA	SEGMENT
?ms_kPool@?$CPooledObject@VCTextureAnimationCCWDecorator@NEffectUpdateDecorator@@@@1V?$CDynamicPoolEx@VCTextureAnimationCCWDecorator@NEffectUpdateDecorator@@@@A DD FLAT:??_7?$CDynamicPoolEx@VCTextureAnimationCCWDecorator@NEffectUpdateDecorator@@@@6B@ ; CPooledObject<NEffectUpdateDecorator::CTextureAnimationCCWDecorator>::ms_kPool
	DD	00H
	DD	00H
	DD	00H
	DD	00H
	DD	00H
	DD	00H
	DD	00H
	DD	00H
_DATA	ENDS
;	COMDAT ?ms_kPool@?$CPooledObject@VCTextureAnimationCWDecorator@NEffectUpdateDecorator@@@@1V?$CDynamicPoolEx@VCTextureAnimationCWDecorator@NEffectUpdateDecorator@@@@A
_DATA	SEGMENT
?ms_kPool@?$CPooledObject@VCTextureAnimationCWDecorator@NEffectUpdateDecorator@@@@1V?$CDynamicPoolEx@VCTextureAnimationCWDecorator@NEffectUpdateDecorator@@@@A DD FLAT:??_7?$CDynamicPoolEx@VCTextureAnimationCWDecorator@NEffectUpdateDecorator@@@@6B@ ; CPooledObject<NEffectUpdateDecorator::CTextureAnimationCWDecorator>::ms_kPool
	DD	00H
	DD	00H
	DD	00H
	DD	00H
	DD	00H
	DD	00H
	DD	00H
	DD	00H
_DATA	ENDS
;	COMDAT ?ms_kPool@?$CPooledObject@VCNullDecorator@NEffectUpdateDecorator@@@@1V?$CDynamicPoolEx@VCNullDecorator@NEffectUpdateDecorator@@@@A
_DATA	SEGMENT
?ms_kPool@?$CPooledObject@VCNullDecorator@NEffectUpdateDecorator@@@@1V?$CDynamicPoolEx@VCNullDecorator@NEffectUpdateDecorator@@@@A DD FLAT:??_7?$CDynamicPoolEx@VCNullDecorator@NEffectUpdateDecorator@@@@6B@ ; CPooledObject<NEffectUpdateDecorator::CNullDecorator>::ms_kPool
	DD	00H
	DD	00H
	DD	00H
	DD	00H
	DD	00H
	DD	00H
	DD	00H
	DD	00H
_DATA	ENDS
;	COMDAT ?ms_kPool@?$CPooledObject@VCHeaderDecorator@NEffectUpdateDecorator@@@@1V?$CDynamicPoolEx@VCHeaderDecorator@NEffectUpdateDecorator@@@@A
_DATA	SEGMENT
?ms_kPool@?$CPooledObject@VCHeaderDecorator@NEffectUpdateDecorator@@@@1V?$CDynamicPoolEx@VCHeaderDecorator@NEffectUpdateDecorator@@@@A DD FLAT:??_7?$CDynamicPoolEx@VCHeaderDecorator@NEffectUpdateDecorator@@@@6B@ ; CPooledObject<NEffectUpdateDecorator::CHeaderDecorator>::ms_kPool
	DD	00H
	DD	00H
	DD	00H
	DD	00H
	DD	00H
	DD	00H
	DD	00H
	DD	00H
_DATA	ENDS
;	COMDAT CRT$XCU
CRT$XCU	SEGMENT
??ms_kPool$initializer$@?$CPooledObject@VCNullDecorator@NEffectUpdateDecorator@@@@1P6AXXZA@@3P6AXXZA DD FLAT:??__E?ms_kPool@?$CPooledObject@VCNullDecorator@NEffectUpdateDecorator@@@@1V?$CDynamicPoolEx@VCNullDecorator@NEffectUpdateDecorator@@@@A@@YAXXZ ; ??ms_kPool$initializer$@?$CPooledObject@VCNullDecorator@NEffectUpdateDecorator@@@@1P6AXXZA@@3P6AXXZA
CRT$XCU	ENDS
;	COMDAT CRT$XCU
CRT$XCU	SEGMENT
??ms_kPool$initializer$@?$CPooledObject@VCTextureAnimationCWDecorator@NEffectUpdateDecorator@@@@1P6AXXZA@@3P6AXXZA DD FLAT:??__E?ms_kPool@?$CPooledObject@VCTextureAnimationCWDecorator@NEffectUpdateDecorator@@@@1V?$CDynamicPoolEx@VCTextureAnimationCWDecorator@NEffectUpdateDecorator@@@@A@@YAXXZ ; ??ms_kPool$initializer$@?$CPooledObject@VCTextureAnimationCWDecorator@NEffectUpdateDecorator@@@@1P6AXXZA@@3P6AXXZA
CRT$XCU	ENDS
;	COMDAT CRT$XCU
CRT$XCU	SEGMENT
??ms_kPool$initializer$@?$CPooledObject@VCTextureAnimationCCWDecorator@NEffectUpdateDecorator@@@@1P6AXXZA@@3P6AXXZA DD FLAT:??__E?ms_kPool@?$CPooledObject@VCTextureAnimationCCWDecorator@NEffectUpdateDecorator@@@@1V?$CDynamicPoolEx@VCTextureAnimationCCWDecorator@NEffectUpdateDecorator@@@@A@@YAXXZ ; ??ms_kPool$initializer$@?$CPooledObject@VCTextureAnimationCCWDecorator@NEffectUpdateDecorator@@@@1P6AXXZA@@3P6AXXZA
CRT$XCU	ENDS
;	COMDAT CRT$XCU
CRT$XCU	SEGMENT
??ms_kPool$initializer$@?$CPooledObject@VCTextureAnimationRandomDecorator@NEffectUpdateDecorator@@@@1P6AXXZA@@3P6AXXZA DD FLAT:??__E?ms_kPool@?$CPooledObject@VCTextureAnimationRandomDecorator@NEffectUpdateDecorator@@@@1V?$CDynamicPoolEx@VCTextureAnimationRandomDecorator@NEffectUpdateDecorator@@@@A@@YAXXZ ; ??ms_kPool$initializer$@?$CPooledObject@VCTextureAnimationRandomDecorator@NEffectUpdateDecorator@@@@1P6AXXZA@@3P6AXXZA
CRT$XCU	ENDS
;	COMDAT CRT$XCU
CRT$XCU	SEGMENT
??ms_kPool$initializer$@?$CPooledObject@VCAirResistanceDecorator@NEffectUpdateDecorator@@@@1P6AXXZA@@3P6AXXZA DD FLAT:??__E?ms_kPool@?$CPooledObject@VCAirResistanceDecorator@NEffectUpdateDecorator@@@@1V?$CDynamicPoolEx@VCAirResistanceDecorator@NEffectUpdateDecorator@@@@A@@YAXXZ ; ??ms_kPool$initializer$@?$CPooledObject@VCAirResistanceDecorator@NEffectUpdateDecorator@@@@1P6AXXZA@@3P6AXXZA
CRT$XCU	ENDS
;	COMDAT CRT$XCU
CRT$XCU	SEGMENT
??ms_kPool$initializer$@?$CPooledObject@VCGravityDecorator@NEffectUpdateDecorator@@@@1P6AXXZA@@3P6AXXZA DD FLAT:??__E?ms_kPool@?$CPooledObject@VCGravityDecorator@NEffectUpdateDecorator@@@@1V?$CDynamicPoolEx@VCGravityDecorator@NEffectUpdateDecorator@@@@A@@YAXXZ ; ??ms_kPool$initializer$@?$CPooledObject@VCGravityDecorator@NEffectUpdateDecorator@@@@1P6AXXZA@@3P6AXXZA
CRT$XCU	ENDS
;	COMDAT CRT$XCU
CRT$XCU	SEGMENT
??ms_kPool$initializer$@?$CPooledObject@VCRotationDecorator@NEffectUpdateDecorator@@@@1P6AXXZA@@3P6AXXZA DD FLAT:??__E?ms_kPool@?$CPooledObject@VCRotationDecorator@NEffectUpdateDecorator@@@@1V?$CDynamicPoolEx@VCRotationDecorator@NEffectUpdateDecorator@@@@A@@YAXXZ ; ??ms_kPool$initializer$@?$CPooledObject@VCRotationDecorator@NEffectUpdateDecorator@@@@1P6AXXZA@@3P6AXXZA
CRT$XCU	ENDS
; Function compile flags: /Ogtp
;	COMDAT ??__F?ms_kPool@?$CPooledObject@VCRotationDecorator@NEffectUpdateDecorator@@@@1V?$CDynamicPoolEx@VCRotationDecorator@NEffectUpdateDecorator@@@@A@@YAXXZ
text$yd	SEGMENT
??__F?ms_kPool@?$CPooledObject@VCRotationDecorator@NEffectUpdateDecorator@@@@1V?$CDynamicPoolEx@VCRotationDecorator@NEffectUpdateDecorator@@@@A@@YAXXZ PROC ; `dynamic atexit destructor for 'CPooledObject<NEffectUpdateDecorator::CRotationDecorator>::ms_kPool'', COMDAT
  00000	b9 00 00 00 00	 mov	 ecx, OFFSET ?ms_kPool@?$CPooledObject@VCRotationDecorator@NEffectUpdateDecorator@@@@1V?$CDynamicPoolEx@VCRotationDecorator@NEffectUpdateDecorator@@@@A ; CPooledObject<NEffectUpdateDecorator::CRotationDecorator>::ms_kPool
  00005	e9 00 00 00 00	 jmp	 ??1?$CDynamicPoolEx@VCRotationDecorator@NEffectUpdateDecorator@@@@UAE@XZ ; CDynamicPoolEx<NEffectUpdateDecorator::CRotationDecorator>::~CDynamicPoolEx<NEffectUpdateDecorator::CRotationDecorator>
??__F?ms_kPool@?$CPooledObject@VCRotationDecorator@NEffectUpdateDecorator@@@@1V?$CDynamicPoolEx@VCRotationDecorator@NEffectUpdateDecorator@@@@A@@YAXXZ ENDP ; `dynamic atexit destructor for 'CPooledObject<NEffectUpdateDecorator::CRotationDecorator>::ms_kPool''
text$yd	ENDS
; Function compile flags: /Ogtp
; File D:\Metin2 Server Files\mainline\SRC_2014\Metin2Client\eterLib\Pool.h
;	COMDAT ??__E?ms_kPool@?$CPooledObject@VCRotationDecorator@NEffectUpdateDecorator@@@@1V?$CDynamicPoolEx@VCRotationDecorator@NEffectUpdateDecorator@@@@A@@YAXXZ
text$di	SEGMENT
??__E?ms_kPool@?$CPooledObject@VCRotationDecorator@NEffectUpdateDecorator@@@@1V?$CDynamicPoolEx@VCRotationDecorator@NEffectUpdateDecorator@@@@A@@YAXXZ PROC ; `dynamic initializer for 'CPooledObject<NEffectUpdateDecorator::CRotationDecorator>::ms_kPool'', COMDAT

; 272  : template <class T> CDynamicPoolEx<T> CPooledObject<T>::ms_kPool;

  00000	68 00 00 00 00	 push	 OFFSET ??__F?ms_kPool@?$CPooledObject@VCRotationDecorator@NEffectUpdateDecorator@@@@1V?$CDynamicPoolEx@VCRotationDecorator@NEffectUpdateDecorator@@@@A@@YAXXZ ; `dynamic atexit destructor for 'CPooledObject<NEffectUpdateDecorator::CRotationDecorator>::ms_kPool''
  00005	e8 00 00 00 00	 call	 _atexit
  0000a	59		 pop	 ecx
  0000b	c3		 ret	 0
??__E?ms_kPool@?$CPooledObject@VCRotationDecorator@NEffectUpdateDecorator@@@@1V?$CDynamicPoolEx@VCRotationDecorator@NEffectUpdateDecorator@@@@A@@YAXXZ ENDP ; `dynamic initializer for 'CPooledObject<NEffectUpdateDecorator::CRotationDecorator>::ms_kPool''
text$di	ENDS
; Function compile flags: /Ogtp
;	COMDAT ??__F?ms_kPool@?$CPooledObject@VCGravityDecorator@NEffectUpdateDecorator@@@@1V?$CDynamicPoolEx@VCGravityDecorator@NEffectUpdateDecorator@@@@A@@YAXXZ
text$yd	SEGMENT
??__F?ms_kPool@?$CPooledObject@VCGravityDecorator@NEffectUpdateDecorator@@@@1V?$CDynamicPoolEx@VCGravityDecorator@NEffectUpdateDecorator@@@@A@@YAXXZ PROC ; `dynamic atexit destructor for 'CPooledObject<NEffectUpdateDecorator::CGravityDecorator>::ms_kPool'', COMDAT
  00000	b9 00 00 00 00	 mov	 ecx, OFFSET ?ms_kPool@?$CPooledObject@VCGravityDecorator@NEffectUpdateDecorator@@@@1V?$CDynamicPoolEx@VCGravityDecorator@NEffectUpdateDecorator@@@@A ; CPooledObject<NEffectUpdateDecorator::CGravityDecorator>::ms_kPool
  00005	e9 00 00 00 00	 jmp	 ??1?$CDynamicPoolEx@VCGravityDecorator@NEffectUpdateDecorator@@@@UAE@XZ ; CDynamicPoolEx<NEffectUpdateDecorator::CGravityDecorator>::~CDynamicPoolEx<NEffectUpdateDecorator::CGravityDecorator>
??__F?ms_kPool@?$CPooledObject@VCGravityDecorator@NEffectUpdateDecorator@@@@1V?$CDynamicPoolEx@VCGravityDecorator@NEffectUpdateDecorator@@@@A@@YAXXZ ENDP ; `dynamic atexit destructor for 'CPooledObject<NEffectUpdateDecorator::CGravityDecorator>::ms_kPool''
text$yd	ENDS
; Function compile flags: /Ogtp
; File D:\Metin2 Server Files\mainline\SRC_2014\Metin2Client\eterLib\Pool.h
;	COMDAT ??__E?ms_kPool@?$CPooledObject@VCGravityDecorator@NEffectUpdateDecorator@@@@1V?$CDynamicPoolEx@VCGravityDecorator@NEffectUpdateDecorator@@@@A@@YAXXZ
text$di	SEGMENT
??__E?ms_kPool@?$CPooledObject@VCGravityDecorator@NEffectUpdateDecorator@@@@1V?$CDynamicPoolEx@VCGravityDecorator@NEffectUpdateDecorator@@@@A@@YAXXZ PROC ; `dynamic initializer for 'CPooledObject<NEffectUpdateDecorator::CGravityDecorator>::ms_kPool'', COMDAT

; 272  : template <class T> CDynamicPoolEx<T> CPooledObject<T>::ms_kPool;

  00000	68 00 00 00 00	 push	 OFFSET ??__F?ms_kPool@?$CPooledObject@VCGravityDecorator@NEffectUpdateDecorator@@@@1V?$CDynamicPoolEx@VCGravityDecorator@NEffectUpdateDecorator@@@@A@@YAXXZ ; `dynamic atexit destructor for 'CPooledObject<NEffectUpdateDecorator::CGravityDecorator>::ms_kPool''
  00005	e8 00 00 00 00	 call	 _atexit
  0000a	59		 pop	 ecx
  0000b	c3		 ret	 0
??__E?ms_kPool@?$CPooledObject@VCGravityDecorator@NEffectUpdateDecorator@@@@1V?$CDynamicPoolEx@VCGravityDecorator@NEffectUpdateDecorator@@@@A@@YAXXZ ENDP ; `dynamic initializer for 'CPooledObject<NEffectUpdateDecorator::CGravityDecorator>::ms_kPool''
text$di	ENDS
; Function compile flags: /Ogtp
;	COMDAT ??__F?ms_kPool@?$CPooledObject@VCAirResistanceDecorator@NEffectUpdateDecorator@@@@1V?$CDynamicPoolEx@VCAirResistanceDecorator@NEffectUpdateDecorator@@@@A@@YAXXZ
text$yd	SEGMENT
??__F?ms_kPool@?$CPooledObject@VCAirResistanceDecorator@NEffectUpdateDecorator@@@@1V?$CDynamicPoolEx@VCAirResistanceDecorator@NEffectUpdateDecorator@@@@A@@YAXXZ PROC ; `dynamic atexit destructor for 'CPooledObject<NEffectUpdateDecorator::CAirResistanceDecorator>::ms_kPool'', COMDAT
  00000	b9 00 00 00 00	 mov	 ecx, OFFSET ?ms_kPool@?$CPooledObject@VCAirResistanceDecorator@NEffectUpdateDecorator@@@@1V?$CDynamicPoolEx@VCAirResistanceDecorator@NEffectUpdateDecorator@@@@A ; CPooledObject<NEffectUpdateDecorator::CAirResistanceDecorator>::ms_kPool
  00005	e9 00 00 00 00	 jmp	 ??1?$CDynamicPoolEx@VCAirResistanceDecorator@NEffectUpdateDecorator@@@@UAE@XZ ; CDynamicPoolEx<NEffectUpdateDecorator::CAirResistanceDecorator>::~CDynamicPoolEx<NEffectUpdateDecorator::CAirResistanceDecorator>
??__F?ms_kPool@?$CPooledObject@VCAirResistanceDecorator@NEffectUpdateDecorator@@@@1V?$CDynamicPoolEx@VCAirResistanceDecorator@NEffectUpdateDecorator@@@@A@@YAXXZ ENDP ; `dynamic atexit destructor for 'CPooledObject<NEffectUpdateDecorator::CAirResistanceDecorator>::ms_kPool''
text$yd	ENDS
; Function compile flags: /Ogtp
; File D:\Metin2 Server Files\mainline\SRC_2014\Metin2Client\eterLib\Pool.h
;	COMDAT ??__E?ms_kPool@?$CPooledObject@VCAirResistanceDecorator@NEffectUpdateDecorator@@@@1V?$CDynamicPoolEx@VCAirResistanceDecorator@NEffectUpdateDecorator@@@@A@@YAXXZ
text$di	SEGMENT
??__E?ms_kPool@?$CPooledObject@VCAirResistanceDecorator@NEffectUpdateDecorator@@@@1V?$CDynamicPoolEx@VCAirResistanceDecorator@NEffectUpdateDecorator@@@@A@@YAXXZ PROC ; `dynamic initializer for 'CPooledObject<NEffectUpdateDecorator::CAirResistanceDecorator>::ms_kPool'', COMDAT

; 272  : template <class T> CDynamicPoolEx<T> CPooledObject<T>::ms_kPool;

  00000	68 00 00 00 00	 push	 OFFSET ??__F?ms_kPool@?$CPooledObject@VCAirResistanceDecorator@NEffectUpdateDecorator@@@@1V?$CDynamicPoolEx@VCAirResistanceDecorator@NEffectUpdateDecorator@@@@A@@YAXXZ ; `dynamic atexit destructor for 'CPooledObject<NEffectUpdateDecorator::CAirResistanceDecorator>::ms_kPool''
  00005	e8 00 00 00 00	 call	 _atexit
  0000a	59		 pop	 ecx
  0000b	c3		 ret	 0
??__E?ms_kPool@?$CPooledObject@VCAirResistanceDecorator@NEffectUpdateDecorator@@@@1V?$CDynamicPoolEx@VCAirResistanceDecorator@NEffectUpdateDecorator@@@@A@@YAXXZ ENDP ; `dynamic initializer for 'CPooledObject<NEffectUpdateDecorator::CAirResistanceDecorator>::ms_kPool''
text$di	ENDS
; Function compile flags: /Ogtp
;	COMDAT ??__F?ms_kPool@?$CPooledObject@VCTextureAnimationRandomDecorator@NEffectUpdateDecorator@@@@1V?$CDynamicPoolEx@VCTextureAnimationRandomDecorator@NEffectUpdateDecorator@@@@A@@YAXXZ
text$yd	SEGMENT
??__F?ms_kPool@?$CPooledObject@VCTextureAnimationRandomDecorator@NEffectUpdateDecorator@@@@1V?$CDynamicPoolEx@VCTextureAnimationRandomDecorator@NEffectUpdateDecorator@@@@A@@YAXXZ PROC ; `dynamic atexit destructor for 'CPooledObject<NEffectUpdateDecorator::CTextureAnimationRandomDecorator>::ms_kPool'', COMDAT
  00000	b9 00 00 00 00	 mov	 ecx, OFFSET ?ms_kPool@?$CPooledObject@VCTextureAnimationRandomDecorator@NEffectUpdateDecorator@@@@1V?$CDynamicPoolEx@VCTextureAnimationRandomDecorator@NEffectUpdateDecorator@@@@A ; CPooledObject<NEffectUpdateDecorator::CTextureAnimationRandomDecorator>::ms_kPool
  00005	e9 00 00 00 00	 jmp	 ??1?$CDynamicPoolEx@VCTextureAnimationRandomDecorator@NEffectUpdateDecorator@@@@UAE@XZ ; CDynamicPoolEx<NEffectUpdateDecorator::CTextureAnimationRandomDecorator>::~CDynamicPoolEx<NEffectUpdateDecorator::CTextureAnimationRandomDecorator>
??__F?ms_kPool@?$CPooledObject@VCTextureAnimationRandomDecorator@NEffectUpdateDecorator@@@@1V?$CDynamicPoolEx@VCTextureAnimationRandomDecorator@NEffectUpdateDecorator@@@@A@@YAXXZ ENDP ; `dynamic atexit destructor for 'CPooledObject<NEffectUpdateDecorator::CTextureAnimationRandomDecorator>::ms_kPool''
text$yd	ENDS
; Function compile flags: /Ogtp
; File D:\Metin2 Server Files\mainline\SRC_2014\Metin2Client\eterLib\Pool.h
;	COMDAT ??__E?ms_kPool@?$CPooledObject@VCTextureAnimationRandomDecorator@NEffectUpdateDecorator@@@@1V?$CDynamicPoolEx@VCTextureAnimationRandomDecorator@NEffectUpdateDecorator@@@@A@@YAXXZ
text$di	SEGMENT
??__E?ms_kPool@?$CPooledObject@VCTextureAnimationRandomDecorator@NEffectUpdateDecorator@@@@1V?$CDynamicPoolEx@VCTextureAnimationRandomDecorator@NEffectUpdateDecorator@@@@A@@YAXXZ PROC ; `dynamic initializer for 'CPooledObject<NEffectUpdateDecorator::CTextureAnimationRandomDecorator>::ms_kPool'', COMDAT

; 272  : template <class T> CDynamicPoolEx<T> CPooledObject<T>::ms_kPool;

  00000	68 00 00 00 00	 push	 OFFSET ??__F?ms_kPool@?$CPooledObject@VCTextureAnimationRandomDecorator@NEffectUpdateDecorator@@@@1V?$CDynamicPoolEx@VCTextureAnimationRandomDecorator@NEffectUpdateDecorator@@@@A@@YAXXZ ; `dynamic atexit destructor for 'CPooledObject<NEffectUpdateDecorator::CTextureAnimationRandomDecorator>::ms_kPool''
  00005	e8 00 00 00 00	 call	 _atexit
  0000a	59		 pop	 ecx
  0000b	c3		 ret	 0
??__E?ms_kPool@?$CPooledObject@VCTextureAnimationRandomDecorator@NEffectUpdateDecorator@@@@1V?$CDynamicPoolEx@VCTextureAnimationRandomDecorator@NEffectUpdateDecorator@@@@A@@YAXXZ ENDP ; `dynamic initializer for 'CPooledObject<NEffectUpdateDecorator::CTextureAnimationRandomDecorator>::ms_kPool''
text$di	ENDS
; Function compile flags: /Ogtp
;	COMDAT ??__F?ms_kPool@?$CPooledObject@VCTextureAnimationCCWDecorator@NEffectUpdateDecorator@@@@1V?$CDynamicPoolEx@VCTextureAnimationCCWDecorator@NEffectUpdateDecorator@@@@A@@YAXXZ
text$yd	SEGMENT
??__F?ms_kPool@?$CPooledObject@VCTextureAnimationCCWDecorator@NEffectUpdateDecorator@@@@1V?$CDynamicPoolEx@VCTextureAnimationCCWDecorator@NEffectUpdateDecorator@@@@A@@YAXXZ PROC ; `dynamic atexit destructor for 'CPooledObject<NEffectUpdateDecorator::CTextureAnimationCCWDecorator>::ms_kPool'', COMDAT
  00000	b9 00 00 00 00	 mov	 ecx, OFFSET ?ms_kPool@?$CPooledObject@VCTextureAnimationCCWDecorator@NEffectUpdateDecorator@@@@1V?$CDynamicPoolEx@VCTextureAnimationCCWDecorator@NEffectUpdateDecorator@@@@A ; CPooledObject<NEffectUpdateDecorator::CTextureAnimationCCWDecorator>::ms_kPool
  00005	e9 00 00 00 00	 jmp	 ??1?$CDynamicPoolEx@VCTextureAnimationCCWDecorator@NEffectUpdateDecorator@@@@UAE@XZ ; CDynamicPoolEx<NEffectUpdateDecorator::CTextureAnimationCCWDecorator>::~CDynamicPoolEx<NEffectUpdateDecorator::CTextureAnimationCCWDecorator>
??__F?ms_kPool@?$CPooledObject@VCTextureAnimationCCWDecorator@NEffectUpdateDecorator@@@@1V?$CDynamicPoolEx@VCTextureAnimationCCWDecorator@NEffectUpdateDecorator@@@@A@@YAXXZ ENDP ; `dynamic atexit destructor for 'CPooledObject<NEffectUpdateDecorator::CTextureAnimationCCWDecorator>::ms_kPool''
text$yd	ENDS
; Function compile flags: /Ogtp
; File D:\Metin2 Server Files\mainline\SRC_2014\Metin2Client\eterLib\Pool.h
;	COMDAT ??__E?ms_kPool@?$CPooledObject@VCTextureAnimationCCWDecorator@NEffectUpdateDecorator@@@@1V?$CDynamicPoolEx@VCTextureAnimationCCWDecorator@NEffectUpdateDecorator@@@@A@@YAXXZ
text$di	SEGMENT
??__E?ms_kPool@?$CPooledObject@VCTextureAnimationCCWDecorator@NEffectUpdateDecorator@@@@1V?$CDynamicPoolEx@VCTextureAnimationCCWDecorator@NEffectUpdateDecorator@@@@A@@YAXXZ PROC ; `dynamic initializer for 'CPooledObject<NEffectUpdateDecorator::CTextureAnimationCCWDecorator>::ms_kPool'', COMDAT

; 272  : template <class T> CDynamicPoolEx<T> CPooledObject<T>::ms_kPool;

  00000	68 00 00 00 00	 push	 OFFSET ??__F?ms_kPool@?$CPooledObject@VCTextureAnimationCCWDecorator@NEffectUpdateDecorator@@@@1V?$CDynamicPoolEx@VCTextureAnimationCCWDecorator@NEffectUpdateDecorator@@@@A@@YAXXZ ; `dynamic atexit destructor for 'CPooledObject<NEffectUpdateDecorator::CTextureAnimationCCWDecorator>::ms_kPool''
  00005	e8 00 00 00 00	 call	 _atexit
  0000a	59		 pop	 ecx
  0000b	c3		 ret	 0
??__E?ms_kPool@?$CPooledObject@VCTextureAnimationCCWDecorator@NEffectUpdateDecorator@@@@1V?$CDynamicPoolEx@VCTextureAnimationCCWDecorator@NEffectUpdateDecorator@@@@A@@YAXXZ ENDP ; `dynamic initializer for 'CPooledObject<NEffectUpdateDecorator::CTextureAnimationCCWDecorator>::ms_kPool''
text$di	ENDS
; Function compile flags: /Ogtp
;	COMDAT ??__F?ms_kPool@?$CPooledObject@VCTextureAnimationCWDecorator@NEffectUpdateDecorator@@@@1V?$CDynamicPoolEx@VCTextureAnimationCWDecorator@NEffectUpdateDecorator@@@@A@@YAXXZ
text$yd	SEGMENT
??__F?ms_kPool@?$CPooledObject@VCTextureAnimationCWDecorator@NEffectUpdateDecorator@@@@1V?$CDynamicPoolEx@VCTextureAnimationCWDecorator@NEffectUpdateDecorator@@@@A@@YAXXZ PROC ; `dynamic atexit destructor for 'CPooledObject<NEffectUpdateDecorator::CTextureAnimationCWDecorator>::ms_kPool'', COMDAT
  00000	b9 00 00 00 00	 mov	 ecx, OFFSET ?ms_kPool@?$CPooledObject@VCTextureAnimationCWDecorator@NEffectUpdateDecorator@@@@1V?$CDynamicPoolEx@VCTextureAnimationCWDecorator@NEffectUpdateDecorator@@@@A ; CPooledObject<NEffectUpdateDecorator::CTextureAnimationCWDecorator>::ms_kPool
  00005	e9 00 00 00 00	 jmp	 ??1?$CDynamicPoolEx@VCTextureAnimationCWDecorator@NEffectUpdateDecorator@@@@UAE@XZ ; CDynamicPoolEx<NEffectUpdateDecorator::CTextureAnimationCWDecorator>::~CDynamicPoolEx<NEffectUpdateDecorator::CTextureAnimationCWDecorator>
??__F?ms_kPool@?$CPooledObject@VCTextureAnimationCWDecorator@NEffectUpdateDecorator@@@@1V?$CDynamicPoolEx@VCTextureAnimationCWDecorator@NEffectUpdateDecorator@@@@A@@YAXXZ ENDP ; `dynamic atexit destructor for 'CPooledObject<NEffectUpdateDecorator::CTextureAnimationCWDecorator>::ms_kPool''
text$yd	ENDS
; Function compile flags: /Ogtp
; File D:\Metin2 Server Files\mainline\SRC_2014\Metin2Client\eterLib\Pool.h
;	COMDAT ??__E?ms_kPool@?$CPooledObject@VCTextureAnimationCWDecorator@NEffectUpdateDecorator@@@@1V?$CDynamicPoolEx@VCTextureAnimationCWDecorator@NEffectUpdateDecorator@@@@A@@YAXXZ
text$di	SEGMENT
??__E?ms_kPool@?$CPooledObject@VCTextureAnimationCWDecorator@NEffectUpdateDecorator@@@@1V?$CDynamicPoolEx@VCTextureAnimationCWDecorator@NEffectUpdateDecorator@@@@A@@YAXXZ PROC ; `dynamic initializer for 'CPooledObject<NEffectUpdateDecorator::CTextureAnimationCWDecorator>::ms_kPool'', COMDAT

; 272  : template <class T> CDynamicPoolEx<T> CPooledObject<T>::ms_kPool;

  00000	68 00 00 00 00	 push	 OFFSET ??__F?ms_kPool@?$CPooledObject@VCTextureAnimationCWDecorator@NEffectUpdateDecorator@@@@1V?$CDynamicPoolEx@VCTextureAnimationCWDecorator@NEffectUpdateDecorator@@@@A@@YAXXZ ; `dynamic atexit destructor for 'CPooledObject<NEffectUpdateDecorator::CTextureAnimationCWDecorator>::ms_kPool''
  00005	e8 00 00 00 00	 call	 _atexit
  0000a	59		 pop	 ecx
  0000b	c3		 ret	 0
??__E?ms_kPool@?$CPooledObject@VCTextureAnimationCWDecorator@NEffectUpdateDecorator@@@@1V?$CDynamicPoolEx@VCTextureAnimationCWDecorator@NEffectUpdateDecorator@@@@A@@YAXXZ ENDP ; `dynamic initializer for 'CPooledObject<NEffectUpdateDecorator::CTextureAnimationCWDecorator>::ms_kPool''
text$di	ENDS
; Function compile flags: /Ogtp
;	COMDAT ??__F?ms_kPool@?$CPooledObject@VCNullDecorator@NEffectUpdateDecorator@@@@1V?$CDynamicPoolEx@VCNullDecorator@NEffectUpdateDecorator@@@@A@@YAXXZ
text$yd	SEGMENT
??__F?ms_kPool@?$CPooledObject@VCNullDecorator@NEffectUpdateDecorator@@@@1V?$CDynamicPoolEx@VCNullDecorator@NEffectUpdateDecorator@@@@A@@YAXXZ PROC ; `dynamic atexit destructor for 'CPooledObject<NEffectUpdateDecorator::CNullDecorator>::ms_kPool'', COMDAT
  00000	b9 00 00 00 00	 mov	 ecx, OFFSET ?ms_kPool@?$CPooledObject@VCNullDecorator@NEffectUpdateDecorator@@@@1V?$CDynamicPoolEx@VCNullDecorator@NEffectUpdateDecorator@@@@A ; CPooledObject<NEffectUpdateDecorator::CNullDecorator>::ms_kPool
  00005	e9 00 00 00 00	 jmp	 ??1?$CDynamicPoolEx@VCNullDecorator@NEffectUpdateDecorator@@@@UAE@XZ ; CDynamicPoolEx<NEffectUpdateDecorator::CNullDecorator>::~CDynamicPoolEx<NEffectUpdateDecorator::CNullDecorator>
??__F?ms_kPool@?$CPooledObject@VCNullDecorator@NEffectUpdateDecorator@@@@1V?$CDynamicPoolEx@VCNullDecorator@NEffectUpdateDecorator@@@@A@@YAXXZ ENDP ; `dynamic atexit destructor for 'CPooledObject<NEffectUpdateDecorator::CNullDecorator>::ms_kPool''
text$yd	ENDS
; Function compile flags: /Ogtp
; File D:\Metin2 Server Files\mainline\SRC_2014\Metin2Client\eterLib\Pool.h
;	COMDAT ??__E?ms_kPool@?$CPooledObject@VCNullDecorator@NEffectUpdateDecorator@@@@1V?$CDynamicPoolEx@VCNullDecorator@NEffectUpdateDecorator@@@@A@@YAXXZ
text$di	SEGMENT
??__E?ms_kPool@?$CPooledObject@VCNullDecorator@NEffectUpdateDecorator@@@@1V?$CDynamicPoolEx@VCNullDecorator@NEffectUpdateDecorator@@@@A@@YAXXZ PROC ; `dynamic initializer for 'CPooledObject<NEffectUpdateDecorator::CNullDecorator>::ms_kPool'', COMDAT

; 272  : template <class T> CDynamicPoolEx<T> CPooledObject<T>::ms_kPool;

  00000	68 00 00 00 00	 push	 OFFSET ??__F?ms_kPool@?$CPooledObject@VCNullDecorator@NEffectUpdateDecorator@@@@1V?$CDynamicPoolEx@VCNullDecorator@NEffectUpdateDecorator@@@@A@@YAXXZ ; `dynamic atexit destructor for 'CPooledObject<NEffectUpdateDecorator::CNullDecorator>::ms_kPool''
  00005	e8 00 00 00 00	 call	 _atexit
  0000a	59		 pop	 ecx
  0000b	c3		 ret	 0
??__E?ms_kPool@?$CPooledObject@VCNullDecorator@NEffectUpdateDecorator@@@@1V?$CDynamicPoolEx@VCNullDecorator@NEffectUpdateDecorator@@@@A@@YAXXZ ENDP ; `dynamic initializer for 'CPooledObject<NEffectUpdateDecorator::CNullDecorator>::ms_kPool''
text$di	ENDS
; Function compile flags: /Ogtp
;	COMDAT ??__F?ms_kPool@?$CPooledObject@VCHeaderDecorator@NEffectUpdateDecorator@@@@1V?$CDynamicPoolEx@VCHeaderDecorator@NEffectUpdateDecorator@@@@A@@YAXXZ
text$yd	SEGMENT
??__F?ms_kPool@?$CPooledObject@VCHeaderDecorator@NEffectUpdateDecorator@@@@1V?$CDynamicPoolEx@VCHeaderDecorator@NEffectUpdateDecorator@@@@A@@YAXXZ PROC ; `dynamic atexit destructor for 'CPooledObject<NEffectUpdateDecorator::CHeaderDecorator>::ms_kPool'', COMDAT
  00000	b9 00 00 00 00	 mov	 ecx, OFFSET ?ms_kPool@?$CPooledObject@VCHeaderDecorator@NEffectUpdateDecorator@@@@1V?$CDynamicPoolEx@VCHeaderDecorator@NEffectUpdateDecorator@@@@A ; CPooledObject<NEffectUpdateDecorator::CHeaderDecorator>::ms_kPool
  00005	e9 00 00 00 00	 jmp	 ??1?$CDynamicPoolEx@VCHeaderDecorator@NEffectUpdateDecorator@@@@UAE@XZ ; CDynamicPoolEx<NEffectUpdateDecorator::CHeaderDecorator>::~CDynamicPoolEx<NEffectUpdateDecorator::CHeaderDecorator>
??__F?ms_kPool@?$CPooledObject@VCHeaderDecorator@NEffectUpdateDecorator@@@@1V?$CDynamicPoolEx@VCHeaderDecorator@NEffectUpdateDecorator@@@@A@@YAXXZ ENDP ; `dynamic atexit destructor for 'CPooledObject<NEffectUpdateDecorator::CHeaderDecorator>::ms_kPool''
text$yd	ENDS
; Function compile flags: /Ogtp
; File D:\Metin2 Server Files\mainline\SRC_2014\Metin2Client\eterLib\Pool.h
;	COMDAT ??__E?ms_kPool@?$CPooledObject@VCHeaderDecorator@NEffectUpdateDecorator@@@@1V?$CDynamicPoolEx@VCHeaderDecorator@NEffectUpdateDecorator@@@@A@@YAXXZ
text$di	SEGMENT
??__E?ms_kPool@?$CPooledObject@VCHeaderDecorator@NEffectUpdateDecorator@@@@1V?$CDynamicPoolEx@VCHeaderDecorator@NEffectUpdateDecorator@@@@A@@YAXXZ PROC ; `dynamic initializer for 'CPooledObject<NEffectUpdateDecorator::CHeaderDecorator>::ms_kPool'', COMDAT

; 272  : template <class T> CDynamicPoolEx<T> CPooledObject<T>::ms_kPool;

  00000	68 00 00 00 00	 push	 OFFSET ??__F?ms_kPool@?$CPooledObject@VCHeaderDecorator@NEffectUpdateDecorator@@@@1V?$CDynamicPoolEx@VCHeaderDecorator@NEffectUpdateDecorator@@@@A@@YAXXZ ; `dynamic atexit destructor for 'CPooledObject<NEffectUpdateDecorator::CHeaderDecorator>::ms_kPool''
  00005	e8 00 00 00 00	 call	 _atexit
  0000a	59		 pop	 ecx
  0000b	c3		 ret	 0
??__E?ms_kPool@?$CPooledObject@VCHeaderDecorator@NEffectUpdateDecorator@@@@1V?$CDynamicPoolEx@VCHeaderDecorator@NEffectUpdateDecorator@@@@A@@YAXXZ ENDP ; `dynamic initializer for 'CPooledObject<NEffectUpdateDecorator::CHeaderDecorator>::ms_kPool''
text$di	ENDS
; Function compile flags: /Ogtp
; File C:\Program Files (x86)\Microsoft Visual Studio\2019\Community\VC\Tools\MSVC\14.28.29333\include\xmemory
;	COMDAT ??$_Destroy_range@V?$allocator@PAVCRotationDecorator@NEffectUpdateDecorator@@@std@@@std@@YAXPAPAVCRotationDecorator@NEffectUpdateDecorator@@QAPAV12@AAV?$allocator@PAVCRotationDecorator@NEffectUpdateDecorator@@@0@@Z
_TEXT	SEGMENT
__First$ = 8						; size = 4
__Last$ = 12						; size = 4
__Al$ = 16						; size = 4
??$_Destroy_range@V?$allocator@PAVCRotationDecorator@NEffectUpdateDecorator@@@std@@@std@@YAXPAPAVCRotationDecorator@NEffectUpdateDecorator@@QAPAV12@AAV?$allocator@PAVCRotationDecorator@NEffectUpdateDecorator@@@0@@Z PROC ; std::_Destroy_range<std::allocator<NEffectUpdateDecorator::CRotationDecorator *> >, COMDAT

; 963  :     // note that this is an optimization for debug mode codegen; in release mode the BE removes all of this
; 964  :     using _Ty = typename _Alloc::value_type;
; 965  :     if _CONSTEXPR_IF (!conjunction_v<is_trivially_destructible<_Ty>, _Uses_default_destroy<_Alloc, _Ty*>>) {
; 966  :         for (; _First != _Last; ++_First) {
; 967  :             allocator_traits<_Alloc>::destroy(_Al, _Unfancy(_First));
; 968  :         }
; 969  :     }
; 970  : }

  00000	c2 00 00	 ret	 0
??$_Destroy_range@V?$allocator@PAVCRotationDecorator@NEffectUpdateDecorator@@@std@@@std@@YAXPAPAVCRotationDecorator@NEffectUpdateDecorator@@QAPAV12@AAV?$allocator@PAVCRotationDecorator@NEffectUpdateDecorator@@@0@@Z ENDP ; std::_Destroy_range<std::allocator<NEffectUpdateDecorator::CRotationDecorator *> >
_TEXT	ENDS
; Function compile flags: /Ogtp
; File C:\Program Files (x86)\Microsoft Visual Studio\2019\Community\VC\Tools\MSVC\14.28.29333\include\xmemory
;	COMDAT ??$_Destroy_range@V?$allocator@PAVCGravityDecorator@NEffectUpdateDecorator@@@std@@@std@@YAXPAPAVCGravityDecorator@NEffectUpdateDecorator@@QAPAV12@AAV?$allocator@PAVCGravityDecorator@NEffectUpdateDecorator@@@0@@Z
_TEXT	SEGMENT
__First$ = 8						; size = 4
__Last$ = 12						; size = 4
__Al$ = 16						; size = 4
??$_Destroy_range@V?$allocator@PAVCGravityDecorator@NEffectUpdateDecorator@@@std@@@std@@YAXPAPAVCGravityDecorator@NEffectUpdateDecorator@@QAPAV12@AAV?$allocator@PAVCGravityDecorator@NEffectUpdateDecorator@@@0@@Z PROC ; std::_Destroy_range<std::allocator<NEffectUpdateDecorator::CGravityDecorator *> >, COMDAT

; 963  :     // note that this is an optimization for debug mode codegen; in release mode the BE removes all of this
; 964  :     using _Ty = typename _Alloc::value_type;
; 965  :     if _CONSTEXPR_IF (!conjunction_v<is_trivially_destructible<_Ty>, _Uses_default_destroy<_Alloc, _Ty*>>) {
; 966  :         for (; _First != _Last; ++_First) {
; 967  :             allocator_traits<_Alloc>::destroy(_Al, _Unfancy(_First));
; 968  :         }
; 969  :     }
; 970  : }

  00000	c2 00 00	 ret	 0
??$_Destroy_range@V?$allocator@PAVCGravityDecorator@NEffectUpdateDecorator@@@std@@@std@@YAXPAPAVCGravityDecorator@NEffectUpdateDecorator@@QAPAV12@AAV?$allocator@PAVCGravityDecorator@NEffectUpdateDecorator@@@0@@Z ENDP ; std::_Destroy_range<std::allocator<NEffectUpdateDecorator::CGravityDecorator *> >
_TEXT	ENDS
; Function compile flags: /Ogtp
; File C:\Program Files (x86)\Microsoft Visual Studio\2019\Community\VC\Tools\MSVC\14.28.29333\include\xmemory
;	COMDAT ??$_Destroy_range@V?$allocator@PAVCAirResistanceDecorator@NEffectUpdateDecorator@@@std@@@std@@YAXPAPAVCAirResistanceDecorator@NEffectUpdateDecorator@@QAPAV12@AAV?$allocator@PAVCAirResistanceDecorator@NEffectUpdateDecorator@@@0@@Z
_TEXT	SEGMENT
__First$ = 8						; size = 4
__Last$ = 12						; size = 4
__Al$ = 16						; size = 4
??$_Destroy_range@V?$allocator@PAVCAirResistanceDecorator@NEffectUpdateDecorator@@@std@@@std@@YAXPAPAVCAirResistanceDecorator@NEffectUpdateDecorator@@QAPAV12@AAV?$allocator@PAVCAirResistanceDecorator@NEffectUpdateDecorator@@@0@@Z PROC ; std::_Destroy_range<std::allocator<NEffectUpdateDecorator::CAirResistanceDecorator *> >, COMDAT

; 963  :     // note that this is an optimization for debug mode codegen; in release mode the BE removes all of this
; 964  :     using _Ty = typename _Alloc::value_type;
; 965  :     if _CONSTEXPR_IF (!conjunction_v<is_trivially_destructible<_Ty>, _Uses_default_destroy<_Alloc, _Ty*>>) {
; 966  :         for (; _First != _Last; ++_First) {
; 967  :             allocator_traits<_Alloc>::destroy(_Al, _Unfancy(_First));
; 968  :         }
; 969  :     }
; 970  : }

  00000	c2 00 00	 ret	 0
??$_Destroy_range@V?$allocator@PAVCAirResistanceDecorator@NEffectUpdateDecorator@@@std@@@std@@YAXPAPAVCAirResistanceDecorator@NEffectUpdateDecorator@@QAPAV12@AAV?$allocator@PAVCAirResistanceDecorator@NEffectUpdateDecorator@@@0@@Z ENDP ; std::_Destroy_range<std::allocator<NEffectUpdateDecorator::CAirResistanceDecorator *> >
_TEXT	ENDS
; Function compile flags: /Ogtp
; File C:\Program Files (x86)\Microsoft Visual Studio\2019\Community\VC\Tools\MSVC\14.28.29333\include\xmemory
;	COMDAT ??$_Destroy_range@V?$allocator@PAVCTextureAnimationRandomDecorator@NEffectUpdateDecorator@@@std@@@std@@YAXPAPAVCTextureAnimationRandomDecorator@NEffectUpdateDecorator@@QAPAV12@AAV?$allocator@PAVCTextureAnimationRandomDecorator@NEffectUpdateDecorator@@@0@@Z
_TEXT	SEGMENT
__First$ = 8						; size = 4
__Last$ = 12						; size = 4
__Al$ = 16						; size = 4
??$_Destroy_range@V?$allocator@PAVCTextureAnimationRandomDecorator@NEffectUpdateDecorator@@@std@@@std@@YAXPAPAVCTextureAnimationRandomDecorator@NEffectUpdateDecorator@@QAPAV12@AAV?$allocator@PAVCTextureAnimationRandomDecorator@NEffectUpdateDecorator@@@0@@Z PROC ; std::_Destroy_range<std::allocator<NEffectUpdateDecorator::CTextureAnimationRandomDecorator *> >, COMDAT

; 963  :     // note that this is an optimization for debug mode codegen; in release mode the BE removes all of this
; 964  :     using _Ty = typename _Alloc::value_type;
; 965  :     if _CONSTEXPR_IF (!conjunction_v<is_trivially_destructible<_Ty>, _Uses_default_destroy<_Alloc, _Ty*>>) {
; 966  :         for (; _First != _Last; ++_First) {
; 967  :             allocator_traits<_Alloc>::destroy(_Al, _Unfancy(_First));
; 968  :         }
; 969  :     }
; 970  : }

  00000	c2 00 00	 ret	 0
??$_Destroy_range@V?$allocator@PAVCTextureAnimationRandomDecorator@NEffectUpdateDecorator@@@std@@@std@@YAXPAPAVCTextureAnimationRandomDecorator@NEffectUpdateDecorator@@QAPAV12@AAV?$allocator@PAVCTextureAnimationRandomDecorator@NEffectUpdateDecorator@@@0@@Z ENDP ; std::_Destroy_range<std::allocator<NEffectUpdateDecorator::CTextureAnimationRandomDecorator *> >
_TEXT	ENDS
; Function compile flags: /Ogtp
; File C:\Program Files (x86)\Microsoft Visual Studio\2019\Community\VC\Tools\MSVC\14.28.29333\include\xmemory
;	COMDAT ??$_Destroy_range@V?$allocator@PAVCTextureAnimationCCWDecorator@NEffectUpdateDecorator@@@std@@@std@@YAXPAPAVCTextureAnimationCCWDecorator@NEffectUpdateDecorator@@QAPAV12@AAV?$allocator@PAVCTextureAnimationCCWDecorator@NEffectUpdateDecorator@@@0@@Z
_TEXT	SEGMENT
__First$ = 8						; size = 4
__Last$ = 12						; size = 4
__Al$ = 16						; size = 4
??$_Destroy_range@V?$allocator@PAVCTextureAnimationCCWDecorator@NEffectUpdateDecorator@@@std@@@std@@YAXPAPAVCTextureAnimationCCWDecorator@NEffectUpdateDecorator@@QAPAV12@AAV?$allocator@PAVCTextureAnimationCCWDecorator@NEffectUpdateDecorator@@@0@@Z PROC ; std::_Destroy_range<std::allocator<NEffectUpdateDecorator::CTextureAnimationCCWDecorator *> >, COMDAT

; 963  :     // note that this is an optimization for debug mode codegen; in release mode the BE removes all of this
; 964  :     using _Ty = typename _Alloc::value_type;
; 965  :     if _CONSTEXPR_IF (!conjunction_v<is_trivially_destructible<_Ty>, _Uses_default_destroy<_Alloc, _Ty*>>) {
; 966  :         for (; _First != _Last; ++_First) {
; 967  :             allocator_traits<_Alloc>::destroy(_Al, _Unfancy(_First));
; 968  :         }
; 969  :     }
; 970  : }

  00000	c2 00 00	 ret	 0
??$_Destroy_range@V?$allocator@PAVCTextureAnimationCCWDecorator@NEffectUpdateDecorator@@@std@@@std@@YAXPAPAVCTextureAnimationCCWDecorator@NEffectUpdateDecorator@@QAPAV12@AAV?$allocator@PAVCTextureAnimationCCWDecorator@NEffectUpdateDecorator@@@0@@Z ENDP ; std::_Destroy_range<std::allocator<NEffectUpdateDecorator::CTextureAnimationCCWDecorator *> >
_TEXT	ENDS
; Function compile flags: /Ogtp
; File C:\Program Files (x86)\Microsoft Visual Studio\2019\Community\VC\Tools\MSVC\14.28.29333\include\xmemory
;	COMDAT ??$_Destroy_range@V?$allocator@PAVCTextureAnimationCWDecorator@NEffectUpdateDecorator@@@std@@@std@@YAXPAPAVCTextureAnimationCWDecorator@NEffectUpdateDecorator@@QAPAV12@AAV?$allocator@PAVCTextureAnimationCWDecorator@NEffectUpdateDecorator@@@0@@Z
_TEXT	SEGMENT
__First$ = 8						; size = 4
__Last$ = 12						; size = 4
__Al$ = 16						; size = 4
??$_Destroy_range@V?$allocator@PAVCTextureAnimationCWDecorator@NEffectUpdateDecorator@@@std@@@std@@YAXPAPAVCTextureAnimationCWDecorator@NEffectUpdateDecorator@@QAPAV12@AAV?$allocator@PAVCTextureAnimationCWDecorator@NEffectUpdateDecorator@@@0@@Z PROC ; std::_Destroy_range<std::allocator<NEffectUpdateDecorator::CTextureAnimationCWDecorator *> >, COMDAT

; 963  :     // note that this is an optimization for debug mode codegen; in release mode the BE removes all of this
; 964  :     using _Ty = typename _Alloc::value_type;
; 965  :     if _CONSTEXPR_IF (!conjunction_v<is_trivially_destructible<_Ty>, _Uses_default_destroy<_Alloc, _Ty*>>) {
; 966  :         for (; _First != _Last; ++_First) {
; 967  :             allocator_traits<_Alloc>::destroy(_Al, _Unfancy(_First));
; 968  :         }
; 969  :     }
; 970  : }

  00000	c2 00 00	 ret	 0
??$_Destroy_range@V?$allocator@PAVCTextureAnimationCWDecorator@NEffectUpdateDecorator@@@std@@@std@@YAXPAPAVCTextureAnimationCWDecorator@NEffectUpdateDecorator@@QAPAV12@AAV?$allocator@PAVCTextureAnimationCWDecorator@NEffectUpdateDecorator@@@0@@Z ENDP ; std::_Destroy_range<std::allocator<NEffectUpdateDecorator::CTextureAnimationCWDecorator *> >
_TEXT	ENDS
; Function compile flags: /Ogtp
; File C:\Program Files (x86)\Microsoft Visual Studio\2019\Community\VC\Tools\MSVC\14.28.29333\include\xmemory
;	COMDAT ??$_Destroy_range@V?$allocator@PAVCNullDecorator@NEffectUpdateDecorator@@@std@@@std@@YAXPAPAVCNullDecorator@NEffectUpdateDecorator@@QAPAV12@AAV?$allocator@PAVCNullDecorator@NEffectUpdateDecorator@@@0@@Z
_TEXT	SEGMENT
__First$ = 8						; size = 4
__Last$ = 12						; size = 4
__Al$ = 16						; size = 4
??$_Destroy_range@V?$allocator@PAVCNullDecorator@NEffectUpdateDecorator@@@std@@@std@@YAXPAPAVCNullDecorator@NEffectUpdateDecorator@@QAPAV12@AAV?$allocator@PAVCNullDecorator@NEffectUpdateDecorator@@@0@@Z PROC ; std::_Destroy_range<std::allocator<NEffectUpdateDecorator::CNullDecorator *> >, COMDAT

; 963  :     // note that this is an optimization for debug mode codegen; in release mode the BE removes all of this
; 964  :     using _Ty = typename _Alloc::value_type;
; 965  :     if _CONSTEXPR_IF (!conjunction_v<is_trivially_destructible<_Ty>, _Uses_default_destroy<_Alloc, _Ty*>>) {
; 966  :         for (; _First != _Last; ++_First) {
; 967  :             allocator_traits<_Alloc>::destroy(_Al, _Unfancy(_First));
; 968  :         }
; 969  :     }
; 970  : }

  00000	c2 00 00	 ret	 0
??$_Destroy_range@V?$allocator@PAVCNullDecorator@NEffectUpdateDecorator@@@std@@@std@@YAXPAPAVCNullDecorator@NEffectUpdateDecorator@@QAPAV12@AAV?$allocator@PAVCNullDecorator@NEffectUpdateDecorator@@@0@@Z ENDP ; std::_Destroy_range<std::allocator<NEffectUpdateDecorator::CNullDecorator *> >
_TEXT	ENDS
; Function compile flags: /Ogtp
; File C:\Program Files (x86)\Microsoft Visual Studio\2019\Community\VC\Tools\MSVC\14.28.29333\include\xmemory
;	COMDAT ??$_Destroy_range@V?$allocator@PAVCHeaderDecorator@NEffectUpdateDecorator@@@std@@@std@@YAXPAPAVCHeaderDecorator@NEffectUpdateDecorator@@QAPAV12@AAV?$allocator@PAVCHeaderDecorator@NEffectUpdateDecorator@@@0@@Z
_TEXT	SEGMENT
__First$ = 8						; size = 4
__Last$ = 12						; size = 4
__Al$ = 16						; size = 4
??$_Destroy_range@V?$allocator@PAVCHeaderDecorator@NEffectUpdateDecorator@@@std@@@std@@YAXPAPAVCHeaderDecorator@NEffectUpdateDecorator@@QAPAV12@AAV?$allocator@PAVCHeaderDecorator@NEffectUpdateDecorator@@@0@@Z PROC ; std::_Destroy_range<std::allocator<NEffectUpdateDecorator::CHeaderDecorator *> >, COMDAT

; 963  :     // note that this is an optimization for debug mode codegen; in release mode the BE removes all of this
; 964  :     using _Ty = typename _Alloc::value_type;
; 965  :     if _CONSTEXPR_IF (!conjunction_v<is_trivially_destructible<_Ty>, _Uses_default_destroy<_Alloc, _Ty*>>) {
; 966  :         for (; _First != _Last; ++_First) {
; 967  :             allocator_traits<_Alloc>::destroy(_Al, _Unfancy(_First));
; 968  :         }
; 969  :     }
; 970  : }

  00000	c2 00 00	 ret	 0
??$_Destroy_range@V?$allocator@PAVCHeaderDecorator@NEffectUpdateDecorator@@@std@@@std@@YAXPAPAVCHeaderDecorator@NEffectUpdateDecorator@@QAPAV12@AAV?$allocator@PAVCHeaderDecorator@NEffectUpdateDecorator@@@0@@Z ENDP ; std::_Destroy_range<std::allocator<NEffectUpdateDecorator::CHeaderDecorator *> >
_TEXT	ENDS
; Function compile flags: /Ogtp
;	COMDAT ??_G?$CDynamicPoolEx@VCHeaderDecorator@NEffectUpdateDecorator@@@@UAEPAXI@Z
_TEXT	SEGMENT
___flags$ = 8						; size = 4
??_G?$CDynamicPoolEx@VCHeaderDecorator@NEffectUpdateDecorator@@@@UAEPAXI@Z PROC ; CDynamicPoolEx<NEffectUpdateDecorator::CHeaderDecorator>::`scalar deleting destructor', COMDAT
; _this$ = ecx
  00000	55		 push	 ebp
  00001	8b ec		 mov	 ebp, esp
  00003	56		 push	 esi
  00004	8b f1		 mov	 esi, ecx
  00006	e8 00 00 00 00	 call	 ??1?$CDynamicPoolEx@VCHeaderDecorator@NEffectUpdateDecorator@@@@UAE@XZ ; CDynamicPoolEx<NEffectUpdateDecorator::CHeaderDecorator>::~CDynamicPoolEx<NEffectUpdateDecorator::CHeaderDecorator>
  0000b	f6 45 08 01	 test	 BYTE PTR ___flags$[ebp], 1
  0000f	74 0b		 je	 SHORT $LN4@scalar
  00011	6a 24		 push	 36			; 00000024H
  00013	56		 push	 esi
  00014	e8 00 00 00 00	 call	 ??3@YAXPAXI@Z		; operator delete
  00019	83 c4 08	 add	 esp, 8
$LN4@scalar:
  0001c	8b c6		 mov	 eax, esi
  0001e	5e		 pop	 esi
  0001f	5d		 pop	 ebp
  00020	c2 04 00	 ret	 4
??_G?$CDynamicPoolEx@VCHeaderDecorator@NEffectUpdateDecorator@@@@UAEPAXI@Z ENDP ; CDynamicPoolEx<NEffectUpdateDecorator::CHeaderDecorator>::`scalar deleting destructor'
_TEXT	ENDS
; Function compile flags: /Ogtp
; File D:\Metin2 Server Files\mainline\SRC_2014\Metin2Client\eterLib\Pool.h
;	COMDAT ?Delete@?$CDynamicPoolEx@VCHeaderDecorator@NEffectUpdateDecorator@@@@KAXPAVCHeaderDecorator@NEffectUpdateDecorator@@@Z
_TEXT	SEGMENT
_pkData$ = 8						; size = 4
?Delete@?$CDynamicPoolEx@VCHeaderDecorator@NEffectUpdateDecorator@@@@KAXPAVCHeaderDecorator@NEffectUpdateDecorator@@@Z PROC ; CDynamicPoolEx<NEffectUpdateDecorator::CHeaderDecorator>::Delete, COMDAT

; 224  : 			::operator delete(pkData);

  00000	e9 00 00 00 00	 jmp	 ??3@YAXPAX@Z		; operator delete
?Delete@?$CDynamicPoolEx@VCHeaderDecorator@NEffectUpdateDecorator@@@@KAXPAVCHeaderDecorator@NEffectUpdateDecorator@@@Z ENDP ; CDynamicPoolEx<NEffectUpdateDecorator::CHeaderDecorator>::Delete
_TEXT	ENDS
; Function compile flags: /Ogtp
; File D:\Metin2 Server Files\mainline\SRC_2014\Metin2Client\eterLib\Pool.h
; File C:\Program Files (x86)\Microsoft Visual Studio\2019\Community\VC\Tools\MSVC\14.28.29333\include\vector
; File C:\Program Files (x86)\Microsoft Visual Studio\2019\Community\VC\Tools\MSVC\14.28.29333\include\algorithm
; File D:\Metin2 Server Files\mainline\SRC_2014\Metin2Client\eterLib\Pool.h
; File C:\Program Files (x86)\Microsoft Visual Studio\2019\Community\VC\Tools\MSVC\14.28.29333\include\algorithm
; File D:\Metin2 Server Files\mainline\SRC_2014\Metin2Client\eterLib\Pool.h
; File C:\Program Files (x86)\Microsoft Visual Studio\2019\Community\VC\Tools\MSVC\14.28.29333\include\algorithm
; File D:\Metin2 Server Files\mainline\SRC_2014\Metin2Client\eterLib\Pool.h
; File C:\Program Files (x86)\Microsoft Visual Studio\2019\Community\VC\Tools\MSVC\14.28.29333\include\vector
; File C:\Program Files (x86)\Microsoft Visual Studio\2019\Community\VC\Tools\MSVC\14.28.29333\include\xmemory
; File C:\Program Files (x86)\Microsoft Visual Studio\2019\Community\VC\Tools\MSVC\14.28.29333\include\vector
; File C:\Program Files (x86)\Microsoft Visual Studio\2019\Community\VC\Tools\MSVC\14.28.29333\include\xmemory
; File C:\Program Files (x86)\Microsoft Visual Studio\2019\Community\VC\Tools\MSVC\14.28.29333\include\vector
; File C:\Program Files (x86)\Microsoft Visual Studio\2019\Community\VC\Tools\MSVC\14.28.29333\include\xmemory
; File C:\Program Files (x86)\Microsoft Visual Studio\2019\Community\VC\Tools\MSVC\14.28.29333\include\vector
; File C:\Program Files (x86)\Microsoft Visual Studio\2019\Community\VC\Tools\MSVC\14.28.29333\include\xmemory
; File C:\Program Files (x86)\Microsoft Visual Studio\2019\Community\VC\Tools\MSVC\14.28.29333\include\vector
; File D:\Metin2 Server Files\mainline\SRC_2014\Metin2Client\eterLib\Pool.h
;	COMDAT ??1?$CDynamicPoolEx@VCHeaderDecorator@NEffectUpdateDecorator@@@@UAE@XZ
_TEXT	SEGMENT
??1?$CDynamicPoolEx@VCHeaderDecorator@NEffectUpdateDecorator@@@@UAE@XZ PROC ; CDynamicPoolEx<NEffectUpdateDecorator::CHeaderDecorator>::~CDynamicPoolEx<NEffectUpdateDecorator::CHeaderDecorator>, COMDAT
; _this$ = ecx

; 132  : 		{

  00000	53		 push	 ebx
  00001	56		 push	 esi
  00002	57		 push	 edi
  00003	8b f9		 mov	 edi, ecx
  00005	c7 07 00 00 00
	00		 mov	 DWORD PTR [edi], OFFSET ??_7?$CDynamicPoolEx@VCHeaderDecorator@NEffectUpdateDecorator@@@@6B@
; File C:\Program Files (x86)\Microsoft Visual Studio\2019\Community\VC\Tools\MSVC\14.28.29333\include\vector

; 42   :     _Vector_const_iterator(_Tptr _Parg, const _Container_base* _Pvector) noexcept : _Ptr(_Parg) {

  0000b	8b 5f 08	 mov	 ebx, DWORD PTR [edi+8]
  0000e	8b 77 04	 mov	 esi, DWORD PTR [edi+4]
; File C:\Program Files (x86)\Microsoft Visual Studio\2019\Community\VC\Tools\MSVC\14.28.29333\include\algorithm

; 307  :     for (; _UFirst != _ULast; ++_UFirst) {

  00011	3b f3		 cmp	 esi, ebx
  00013	74 14		 je	 SHORT $LN19@CDynamicPo
$LL20@CDynamicPo:
; File D:\Metin2 Server Files\mainline\SRC_2014\Metin2Client\eterLib\Pool.h

; 224  : 			::operator delete(pkData);

  00015	ff 36		 push	 DWORD PTR [esi]
  00017	e8 00 00 00 00	 call	 ??3@YAXPAX@Z		; operator delete
; File C:\Program Files (x86)\Microsoft Visual Studio\2019\Community\VC\Tools\MSVC\14.28.29333\include\algorithm

; 307  :     for (; _UFirst != _ULast; ++_UFirst) {

  0001c	83 c6 04	 add	 esi, 4
; File D:\Metin2 Server Files\mainline\SRC_2014\Metin2Client\eterLib\Pool.h

; 224  : 			::operator delete(pkData);

  0001f	83 c4 04	 add	 esp, 4
; File C:\Program Files (x86)\Microsoft Visual Studio\2019\Community\VC\Tools\MSVC\14.28.29333\include\algorithm

; 307  :     for (; _UFirst != _ULast; ++_UFirst) {

  00022	3b f3		 cmp	 esi, ebx
  00024	75 ef		 jne	 SHORT $LL20@CDynamicPo
  00026	8b 77 04	 mov	 esi, DWORD PTR [edi+4]
$LN19@CDynamicPo:
; File D:\Metin2 Server Files\mainline\SRC_2014\Metin2Client\eterLib\Pool.h

; 162  : 			m_kVct_pkFree.clear();

  00029	8b 4f 10	 mov	 ecx, DWORD PTR [edi+16]
  0002c	89 77 08	 mov	 DWORD PTR [edi+8], esi
  0002f	89 4f 14	 mov	 DWORD PTR [edi+20], ecx
; File C:\Program Files (x86)\Microsoft Visual Studio\2019\Community\VC\Tools\MSVC\14.28.29333\include\vector

; 1694 :         if (_Myfirst) { // destroy and deallocate old array

  00032	85 c9		 test	 ecx, ecx
  00034	74 27		 je	 SHORT $LN27@CDynamicPo

; 1695 :             _Destroy(_Myfirst, _Mylast);
; 1696 :             _Getal().deallocate(_Myfirst, static_cast<size_type>(_Myend - _Myfirst));

  00036	8b 47 18	 mov	 eax, DWORD PTR [edi+24]
  00039	2b c1		 sub	 eax, ecx
; File C:\Program Files (x86)\Microsoft Visual Studio\2019\Community\VC\Tools\MSVC\14.28.29333\include\xmemory

; 810  :         _Deallocate<_New_alignof<_Ty>>(_Ptr, sizeof(_Ty) * _Count);

  0003b	83 e0 fc	 and	 eax, -4			; fffffffcH
  0003e	50		 push	 eax
  0003f	51		 push	 ecx
  00040	e8 00 00 00 00	 call	 ??$_Deallocate@$07$0A@@std@@YAXPAXI@Z ; std::_Deallocate<8,0>
; File C:\Program Files (x86)\Microsoft Visual Studio\2019\Community\VC\Tools\MSVC\14.28.29333\include\vector

; 1698 :             _Myfirst = pointer();

  00045	c7 47 10 00 00
	00 00		 mov	 DWORD PTR [edi+16], 0
; File C:\Program Files (x86)\Microsoft Visual Studio\2019\Community\VC\Tools\MSVC\14.28.29333\include\xmemory

; 810  :         _Deallocate<_New_alignof<_Ty>>(_Ptr, sizeof(_Ty) * _Count);

  0004c	83 c4 08	 add	 esp, 8
; File C:\Program Files (x86)\Microsoft Visual Studio\2019\Community\VC\Tools\MSVC\14.28.29333\include\vector

; 1699 :             _Mylast  = pointer();

  0004f	c7 47 14 00 00
	00 00		 mov	 DWORD PTR [edi+20], 0

; 1700 :             _Myend   = pointer();

  00056	c7 47 18 00 00
	00 00		 mov	 DWORD PTR [edi+24], 0
$LN27@CDynamicPo:

; 1694 :         if (_Myfirst) { // destroy and deallocate old array

  0005d	8b 4f 04	 mov	 ecx, DWORD PTR [edi+4]
  00060	85 c9		 test	 ecx, ecx
  00062	74 27		 je	 SHORT $LN34@CDynamicPo

; 1695 :             _Destroy(_Myfirst, _Mylast);
; 1696 :             _Getal().deallocate(_Myfirst, static_cast<size_type>(_Myend - _Myfirst));

  00064	8b 47 0c	 mov	 eax, DWORD PTR [edi+12]
  00067	2b c1		 sub	 eax, ecx
; File C:\Program Files (x86)\Microsoft Visual Studio\2019\Community\VC\Tools\MSVC\14.28.29333\include\xmemory

; 810  :         _Deallocate<_New_alignof<_Ty>>(_Ptr, sizeof(_Ty) * _Count);

  00069	83 e0 fc	 and	 eax, -4			; fffffffcH
  0006c	50		 push	 eax
  0006d	51		 push	 ecx
  0006e	e8 00 00 00 00	 call	 ??$_Deallocate@$07$0A@@std@@YAXPAXI@Z ; std::_Deallocate<8,0>
; File C:\Program Files (x86)\Microsoft Visual Studio\2019\Community\VC\Tools\MSVC\14.28.29333\include\vector

; 1698 :             _Myfirst = pointer();

  00073	c7 47 04 00 00
	00 00		 mov	 DWORD PTR [edi+4], 0
; File C:\Program Files (x86)\Microsoft Visual Studio\2019\Community\VC\Tools\MSVC\14.28.29333\include\xmemory

; 810  :         _Deallocate<_New_alignof<_Ty>>(_Ptr, sizeof(_Ty) * _Count);

  0007a	83 c4 08	 add	 esp, 8
; File C:\Program Files (x86)\Microsoft Visual Studio\2019\Community\VC\Tools\MSVC\14.28.29333\include\vector

; 1699 :             _Mylast  = pointer();

  0007d	c7 47 08 00 00
	00 00		 mov	 DWORD PTR [edi+8], 0

; 1700 :             _Myend   = pointer();

  00084	c7 47 0c 00 00
	00 00		 mov	 DWORD PTR [edi+12], 0
$LN34@CDynamicPo:
  0008b	5f		 pop	 edi
; File D:\Metin2 Server Files\mainline\SRC_2014\Metin2Client\eterLib\Pool.h

; 142  : 		}

  0008c	5e		 pop	 esi
  0008d	5b		 pop	 ebx
  0008e	c3		 ret	 0
??1?$CDynamicPoolEx@VCHeaderDecorator@NEffectUpdateDecorator@@@@UAE@XZ ENDP ; CDynamicPoolEx<NEffectUpdateDecorator::CHeaderDecorator>::~CDynamicPoolEx<NEffectUpdateDecorator::CHeaderDecorator>
_TEXT	ENDS
; Function compile flags: /Ogtp
;	COMDAT ??_G?$CDynamicPoolEx@VCNullDecorator@NEffectUpdateDecorator@@@@UAEPAXI@Z
_TEXT	SEGMENT
___flags$ = 8						; size = 4
??_G?$CDynamicPoolEx@VCNullDecorator@NEffectUpdateDecorator@@@@UAEPAXI@Z PROC ; CDynamicPoolEx<NEffectUpdateDecorator::CNullDecorator>::`scalar deleting destructor', COMDAT
; _this$ = ecx
  00000	55		 push	 ebp
  00001	8b ec		 mov	 ebp, esp
  00003	56		 push	 esi
  00004	8b f1		 mov	 esi, ecx
  00006	e8 00 00 00 00	 call	 ??1?$CDynamicPoolEx@VCNullDecorator@NEffectUpdateDecorator@@@@UAE@XZ ; CDynamicPoolEx<NEffectUpdateDecorator::CNullDecorator>::~CDynamicPoolEx<NEffectUpdateDecorator::CNullDecorator>
  0000b	f6 45 08 01	 test	 BYTE PTR ___flags$[ebp], 1
  0000f	74 0b		 je	 SHORT $LN4@scalar
  00011	6a 24		 push	 36			; 00000024H
  00013	56		 push	 esi
  00014	e8 00 00 00 00	 call	 ??3@YAXPAXI@Z		; operator delete
  00019	83 c4 08	 add	 esp, 8
$LN4@scalar:
  0001c	8b c6		 mov	 eax, esi
  0001e	5e		 pop	 esi
  0001f	5d		 pop	 ebp
  00020	c2 04 00	 ret	 4
??_G?$CDynamicPoolEx@VCNullDecorator@NEffectUpdateDecorator@@@@UAEPAXI@Z ENDP ; CDynamicPoolEx<NEffectUpdateDecorator::CNullDecorator>::`scalar deleting destructor'
_TEXT	ENDS
; Function compile flags: /Ogtp
; File D:\Metin2 Server Files\mainline\SRC_2014\Metin2Client\eterLib\Pool.h
;	COMDAT ?Delete@?$CDynamicPoolEx@VCNullDecorator@NEffectUpdateDecorator@@@@KAXPAVCNullDecorator@NEffectUpdateDecorator@@@Z
_TEXT	SEGMENT
_pkData$ = 8						; size = 4
?Delete@?$CDynamicPoolEx@VCNullDecorator@NEffectUpdateDecorator@@@@KAXPAVCNullDecorator@NEffectUpdateDecorator@@@Z PROC ; CDynamicPoolEx<NEffectUpdateDecorator::CNullDecorator>::Delete, COMDAT

; 224  : 			::operator delete(pkData);

  00000	e9 00 00 00 00	 jmp	 ??3@YAXPAX@Z		; operator delete
?Delete@?$CDynamicPoolEx@VCNullDecorator@NEffectUpdateDecorator@@@@KAXPAVCNullDecorator@NEffectUpdateDecorator@@@Z ENDP ; CDynamicPoolEx<NEffectUpdateDecorator::CNullDecorator>::Delete
_TEXT	ENDS
; Function compile flags: /Ogtp
; File D:\Metin2 Server Files\mainline\SRC_2014\Metin2Client\eterLib\Pool.h
; File C:\Program Files (x86)\Microsoft Visual Studio\2019\Community\VC\Tools\MSVC\14.28.29333\include\vector
; File C:\Program Files (x86)\Microsoft Visual Studio\2019\Community\VC\Tools\MSVC\14.28.29333\include\algorithm
; File D:\Metin2 Server Files\mainline\SRC_2014\Metin2Client\eterLib\Pool.h
; File C:\Program Files (x86)\Microsoft Visual Studio\2019\Community\VC\Tools\MSVC\14.28.29333\include\algorithm
; File D:\Metin2 Server Files\mainline\SRC_2014\Metin2Client\eterLib\Pool.h
; File C:\Program Files (x86)\Microsoft Visual Studio\2019\Community\VC\Tools\MSVC\14.28.29333\include\algorithm
; File D:\Metin2 Server Files\mainline\SRC_2014\Metin2Client\eterLib\Pool.h
; File C:\Program Files (x86)\Microsoft Visual Studio\2019\Community\VC\Tools\MSVC\14.28.29333\include\vector
; File C:\Program Files (x86)\Microsoft Visual Studio\2019\Community\VC\Tools\MSVC\14.28.29333\include\xmemory
; File C:\Program Files (x86)\Microsoft Visual Studio\2019\Community\VC\Tools\MSVC\14.28.29333\include\vector
; File C:\Program Files (x86)\Microsoft Visual Studio\2019\Community\VC\Tools\MSVC\14.28.29333\include\xmemory
; File C:\Program Files (x86)\Microsoft Visual Studio\2019\Community\VC\Tools\MSVC\14.28.29333\include\vector
; File C:\Program Files (x86)\Microsoft Visual Studio\2019\Community\VC\Tools\MSVC\14.28.29333\include\xmemory
; File C:\Program Files (x86)\Microsoft Visual Studio\2019\Community\VC\Tools\MSVC\14.28.29333\include\vector
; File C:\Program Files (x86)\Microsoft Visual Studio\2019\Community\VC\Tools\MSVC\14.28.29333\include\xmemory
; File C:\Program Files (x86)\Microsoft Visual Studio\2019\Community\VC\Tools\MSVC\14.28.29333\include\vector
; File D:\Metin2 Server Files\mainline\SRC_2014\Metin2Client\eterLib\Pool.h
;	COMDAT ??1?$CDynamicPoolEx@VCNullDecorator@NEffectUpdateDecorator@@@@UAE@XZ
_TEXT	SEGMENT
??1?$CDynamicPoolEx@VCNullDecorator@NEffectUpdateDecorator@@@@UAE@XZ PROC ; CDynamicPoolEx<NEffectUpdateDecorator::CNullDecorator>::~CDynamicPoolEx<NEffectUpdateDecorator::CNullDecorator>, COMDAT
; _this$ = ecx

; 132  : 		{

  00000	53		 push	 ebx
  00001	56		 push	 esi
  00002	57		 push	 edi
  00003	8b f9		 mov	 edi, ecx
  00005	c7 07 00 00 00
	00		 mov	 DWORD PTR [edi], OFFSET ??_7?$CDynamicPoolEx@VCNullDecorator@NEffectUpdateDecorator@@@@6B@
; File C:\Program Files (x86)\Microsoft Visual Studio\2019\Community\VC\Tools\MSVC\14.28.29333\include\vector

; 42   :     _Vector_const_iterator(_Tptr _Parg, const _Container_base* _Pvector) noexcept : _Ptr(_Parg) {

  0000b	8b 5f 08	 mov	 ebx, DWORD PTR [edi+8]
  0000e	8b 77 04	 mov	 esi, DWORD PTR [edi+4]
; File C:\Program Files (x86)\Microsoft Visual Studio\2019\Community\VC\Tools\MSVC\14.28.29333\include\algorithm

; 307  :     for (; _UFirst != _ULast; ++_UFirst) {

  00011	3b f3		 cmp	 esi, ebx
  00013	74 14		 je	 SHORT $LN19@CDynamicPo
$LL20@CDynamicPo:
; File D:\Metin2 Server Files\mainline\SRC_2014\Metin2Client\eterLib\Pool.h

; 224  : 			::operator delete(pkData);

  00015	ff 36		 push	 DWORD PTR [esi]
  00017	e8 00 00 00 00	 call	 ??3@YAXPAX@Z		; operator delete
; File C:\Program Files (x86)\Microsoft Visual Studio\2019\Community\VC\Tools\MSVC\14.28.29333\include\algorithm

; 307  :     for (; _UFirst != _ULast; ++_UFirst) {

  0001c	83 c6 04	 add	 esi, 4
; File D:\Metin2 Server Files\mainline\SRC_2014\Metin2Client\eterLib\Pool.h

; 224  : 			::operator delete(pkData);

  0001f	83 c4 04	 add	 esp, 4
; File C:\Program Files (x86)\Microsoft Visual Studio\2019\Community\VC\Tools\MSVC\14.28.29333\include\algorithm

; 307  :     for (; _UFirst != _ULast; ++_UFirst) {

  00022	3b f3		 cmp	 esi, ebx
  00024	75 ef		 jne	 SHORT $LL20@CDynamicPo
  00026	8b 77 04	 mov	 esi, DWORD PTR [edi+4]
$LN19@CDynamicPo:
; File D:\Metin2 Server Files\mainline\SRC_2014\Metin2Client\eterLib\Pool.h

; 162  : 			m_kVct_pkFree.clear();

  00029	8b 4f 10	 mov	 ecx, DWORD PTR [edi+16]
  0002c	89 77 08	 mov	 DWORD PTR [edi+8], esi
  0002f	89 4f 14	 mov	 DWORD PTR [edi+20], ecx
; File C:\Program Files (x86)\Microsoft Visual Studio\2019\Community\VC\Tools\MSVC\14.28.29333\include\vector

; 1694 :         if (_Myfirst) { // destroy and deallocate old array

  00032	85 c9		 test	 ecx, ecx
  00034	74 27		 je	 SHORT $LN27@CDynamicPo

; 1695 :             _Destroy(_Myfirst, _Mylast);
; 1696 :             _Getal().deallocate(_Myfirst, static_cast<size_type>(_Myend - _Myfirst));

  00036	8b 47 18	 mov	 eax, DWORD PTR [edi+24]
  00039	2b c1		 sub	 eax, ecx
; File C:\Program Files (x86)\Microsoft Visual Studio\2019\Community\VC\Tools\MSVC\14.28.29333\include\xmemory

; 810  :         _Deallocate<_New_alignof<_Ty>>(_Ptr, sizeof(_Ty) * _Count);

  0003b	83 e0 fc	 and	 eax, -4			; fffffffcH
  0003e	50		 push	 eax
  0003f	51		 push	 ecx
  00040	e8 00 00 00 00	 call	 ??$_Deallocate@$07$0A@@std@@YAXPAXI@Z ; std::_Deallocate<8,0>
; File C:\Program Files (x86)\Microsoft Visual Studio\2019\Community\VC\Tools\MSVC\14.28.29333\include\vector

; 1698 :             _Myfirst = pointer();

  00045	c7 47 10 00 00
	00 00		 mov	 DWORD PTR [edi+16], 0
; File C:\Program Files (x86)\Microsoft Visual Studio\2019\Community\VC\Tools\MSVC\14.28.29333\include\xmemory

; 810  :         _Deallocate<_New_alignof<_Ty>>(_Ptr, sizeof(_Ty) * _Count);

  0004c	83 c4 08	 add	 esp, 8
; File C:\Program Files (x86)\Microsoft Visual Studio\2019\Community\VC\Tools\MSVC\14.28.29333\include\vector

; 1699 :             _Mylast  = pointer();

  0004f	c7 47 14 00 00
	00 00		 mov	 DWORD PTR [edi+20], 0

; 1700 :             _Myend   = pointer();

  00056	c7 47 18 00 00
	00 00		 mov	 DWORD PTR [edi+24], 0
$LN27@CDynamicPo:

; 1694 :         if (_Myfirst) { // destroy and deallocate old array

  0005d	8b 4f 04	 mov	 ecx, DWORD PTR [edi+4]
  00060	85 c9		 test	 ecx, ecx
  00062	74 27		 je	 SHORT $LN34@CDynamicPo

; 1695 :             _Destroy(_Myfirst, _Mylast);
; 1696 :             _Getal().deallocate(_Myfirst, static_cast<size_type>(_Myend - _Myfirst));

  00064	8b 47 0c	 mov	 eax, DWORD PTR [edi+12]
  00067	2b c1		 sub	 eax, ecx
; File C:\Program Files (x86)\Microsoft Visual Studio\2019\Community\VC\Tools\MSVC\14.28.29333\include\xmemory

; 810  :         _Deallocate<_New_alignof<_Ty>>(_Ptr, sizeof(_Ty) * _Count);

  00069	83 e0 fc	 and	 eax, -4			; fffffffcH
  0006c	50		 push	 eax
  0006d	51		 push	 ecx
  0006e	e8 00 00 00 00	 call	 ??$_Deallocate@$07$0A@@std@@YAXPAXI@Z ; std::_Deallocate<8,0>
; File C:\Program Files (x86)\Microsoft Visual Studio\2019\Community\VC\Tools\MSVC\14.28.29333\include\vector

; 1698 :             _Myfirst = pointer();

  00073	c7 47 04 00 00
	00 00		 mov	 DWORD PTR [edi+4], 0
; File C:\Program Files (x86)\Microsoft Visual Studio\2019\Community\VC\Tools\MSVC\14.28.29333\include\xmemory

; 810  :         _Deallocate<_New_alignof<_Ty>>(_Ptr, sizeof(_Ty) * _Count);

  0007a	83 c4 08	 add	 esp, 8
; File C:\Program Files (x86)\Microsoft Visual Studio\2019\Community\VC\Tools\MSVC\14.28.29333\include\vector

; 1699 :             _Mylast  = pointer();

  0007d	c7 47 08 00 00
	00 00		 mov	 DWORD PTR [edi+8], 0

; 1700 :             _Myend   = pointer();

  00084	c7 47 0c 00 00
	00 00		 mov	 DWORD PTR [edi+12], 0
$LN34@CDynamicPo:
  0008b	5f		 pop	 edi
; File D:\Metin2 Server Files\mainline\SRC_2014\Metin2Client\eterLib\Pool.h

; 142  : 		}

  0008c	5e		 pop	 esi
  0008d	5b		 pop	 ebx
  0008e	c3		 ret	 0
??1?$CDynamicPoolEx@VCNullDecorator@NEffectUpdateDecorator@@@@UAE@XZ ENDP ; CDynamicPoolEx<NEffectUpdateDecorator::CNullDecorator>::~CDynamicPoolEx<NEffectUpdateDecorator::CNullDecorator>
_TEXT	ENDS
; Function compile flags: /Ogtp
;	COMDAT ??_G?$CDynamicPoolEx@VCTextureAnimationCWDecorator@NEffectUpdateDecorator@@@@UAEPAXI@Z
_TEXT	SEGMENT
___flags$ = 8						; size = 4
??_G?$CDynamicPoolEx@VCTextureAnimationCWDecorator@NEffectUpdateDecorator@@@@UAEPAXI@Z PROC ; CDynamicPoolEx<NEffectUpdateDecorator::CTextureAnimationCWDecorator>::`scalar deleting destructor', COMDAT
; _this$ = ecx
  00000	55		 push	 ebp
  00001	8b ec		 mov	 ebp, esp
  00003	56		 push	 esi
  00004	8b f1		 mov	 esi, ecx
  00006	e8 00 00 00 00	 call	 ??1?$CDynamicPoolEx@VCTextureAnimationCWDecorator@NEffectUpdateDecorator@@@@UAE@XZ ; CDynamicPoolEx<NEffectUpdateDecorator::CTextureAnimationCWDecorator>::~CDynamicPoolEx<NEffectUpdateDecorator::CTextureAnimationCWDecorator>
  0000b	f6 45 08 01	 test	 BYTE PTR ___flags$[ebp], 1
  0000f	74 0b		 je	 SHORT $LN4@scalar
  00011	6a 24		 push	 36			; 00000024H
  00013	56		 push	 esi
  00014	e8 00 00 00 00	 call	 ??3@YAXPAXI@Z		; operator delete
  00019	83 c4 08	 add	 esp, 8
$LN4@scalar:
  0001c	8b c6		 mov	 eax, esi
  0001e	5e		 pop	 esi
  0001f	5d		 pop	 ebp
  00020	c2 04 00	 ret	 4
??_G?$CDynamicPoolEx@VCTextureAnimationCWDecorator@NEffectUpdateDecorator@@@@UAEPAXI@Z ENDP ; CDynamicPoolEx<NEffectUpdateDecorator::CTextureAnimationCWDecorator>::`scalar deleting destructor'
_TEXT	ENDS
; Function compile flags: /Ogtp
; File D:\Metin2 Server Files\mainline\SRC_2014\Metin2Client\eterLib\Pool.h
;	COMDAT ?Delete@?$CDynamicPoolEx@VCTextureAnimationCWDecorator@NEffectUpdateDecorator@@@@KAXPAVCTextureAnimationCWDecorator@NEffectUpdateDecorator@@@Z
_TEXT	SEGMENT
_pkData$ = 8						; size = 4
?Delete@?$CDynamicPoolEx@VCTextureAnimationCWDecorator@NEffectUpdateDecorator@@@@KAXPAVCTextureAnimationCWDecorator@NEffectUpdateDecorator@@@Z PROC ; CDynamicPoolEx<NEffectUpdateDecorator::CTextureAnimationCWDecorator>::Delete, COMDAT

; 224  : 			::operator delete(pkData);

  00000	e9 00 00 00 00	 jmp	 ??3@YAXPAX@Z		; operator delete
?Delete@?$CDynamicPoolEx@VCTextureAnimationCWDecorator@NEffectUpdateDecorator@@@@KAXPAVCTextureAnimationCWDecorator@NEffectUpdateDecorator@@@Z ENDP ; CDynamicPoolEx<NEffectUpdateDecorator::CTextureAnimationCWDecorator>::Delete
_TEXT	ENDS
; Function compile flags: /Ogtp
; File D:\Metin2 Server Files\mainline\SRC_2014\Metin2Client\eterLib\Pool.h
; File C:\Program Files (x86)\Microsoft Visual Studio\2019\Community\VC\Tools\MSVC\14.28.29333\include\vector
; File C:\Program Files (x86)\Microsoft Visual Studio\2019\Community\VC\Tools\MSVC\14.28.29333\include\algorithm
; File D:\Metin2 Server Files\mainline\SRC_2014\Metin2Client\eterLib\Pool.h
; File C:\Program Files (x86)\Microsoft Visual Studio\2019\Community\VC\Tools\MSVC\14.28.29333\include\algorithm
; File D:\Metin2 Server Files\mainline\SRC_2014\Metin2Client\eterLib\Pool.h
; File C:\Program Files (x86)\Microsoft Visual Studio\2019\Community\VC\Tools\MSVC\14.28.29333\include\algorithm
; File D:\Metin2 Server Files\mainline\SRC_2014\Metin2Client\eterLib\Pool.h
; File C:\Program Files (x86)\Microsoft Visual Studio\2019\Community\VC\Tools\MSVC\14.28.29333\include\vector
; File C:\Program Files (x86)\Microsoft Visual Studio\2019\Community\VC\Tools\MSVC\14.28.29333\include\xmemory
; File C:\Program Files (x86)\Microsoft Visual Studio\2019\Community\VC\Tools\MSVC\14.28.29333\include\vector
; File C:\Program Files (x86)\Microsoft Visual Studio\2019\Community\VC\Tools\MSVC\14.28.29333\include\xmemory
; File C:\Program Files (x86)\Microsoft Visual Studio\2019\Community\VC\Tools\MSVC\14.28.29333\include\vector
; File C:\Program Files (x86)\Microsoft Visual Studio\2019\Community\VC\Tools\MSVC\14.28.29333\include\xmemory
; File C:\Program Files (x86)\Microsoft Visual Studio\2019\Community\VC\Tools\MSVC\14.28.29333\include\vector
; File C:\Program Files (x86)\Microsoft Visual Studio\2019\Community\VC\Tools\MSVC\14.28.29333\include\xmemory
; File C:\Program Files (x86)\Microsoft Visual Studio\2019\Community\VC\Tools\MSVC\14.28.29333\include\vector
; File D:\Metin2 Server Files\mainline\SRC_2014\Metin2Client\eterLib\Pool.h
;	COMDAT ??1?$CDynamicPoolEx@VCTextureAnimationCWDecorator@NEffectUpdateDecorator@@@@UAE@XZ
_TEXT	SEGMENT
??1?$CDynamicPoolEx@VCTextureAnimationCWDecorator@NEffectUpdateDecorator@@@@UAE@XZ PROC ; CDynamicPoolEx<NEffectUpdateDecorator::CTextureAnimationCWDecorator>::~CDynamicPoolEx<NEffectUpdateDecorator::CTextureAnimationCWDecorator>, COMDAT
; _this$ = ecx

; 132  : 		{

  00000	53		 push	 ebx
  00001	56		 push	 esi
  00002	57		 push	 edi
  00003	8b f9		 mov	 edi, ecx
  00005	c7 07 00 00 00
	00		 mov	 DWORD PTR [edi], OFFSET ??_7?$CDynamicPoolEx@VCTextureAnimationCWDecorator@NEffectUpdateDecorator@@@@6B@
; File C:\Program Files (x86)\Microsoft Visual Studio\2019\Community\VC\Tools\MSVC\14.28.29333\include\vector

; 42   :     _Vector_const_iterator(_Tptr _Parg, const _Container_base* _Pvector) noexcept : _Ptr(_Parg) {

  0000b	8b 5f 08	 mov	 ebx, DWORD PTR [edi+8]
  0000e	8b 77 04	 mov	 esi, DWORD PTR [edi+4]
; File C:\Program Files (x86)\Microsoft Visual Studio\2019\Community\VC\Tools\MSVC\14.28.29333\include\algorithm

; 307  :     for (; _UFirst != _ULast; ++_UFirst) {

  00011	3b f3		 cmp	 esi, ebx
  00013	74 14		 je	 SHORT $LN19@CDynamicPo
$LL20@CDynamicPo:
; File D:\Metin2 Server Files\mainline\SRC_2014\Metin2Client\eterLib\Pool.h

; 224  : 			::operator delete(pkData);

  00015	ff 36		 push	 DWORD PTR [esi]
  00017	e8 00 00 00 00	 call	 ??3@YAXPAX@Z		; operator delete
; File C:\Program Files (x86)\Microsoft Visual Studio\2019\Community\VC\Tools\MSVC\14.28.29333\include\algorithm

; 307  :     for (; _UFirst != _ULast; ++_UFirst) {

  0001c	83 c6 04	 add	 esi, 4
; File D:\Metin2 Server Files\mainline\SRC_2014\Metin2Client\eterLib\Pool.h

; 224  : 			::operator delete(pkData);

  0001f	83 c4 04	 add	 esp, 4
; File C:\Program Files (x86)\Microsoft Visual Studio\2019\Community\VC\Tools\MSVC\14.28.29333\include\algorithm

; 307  :     for (; _UFirst != _ULast; ++_UFirst) {

  00022	3b f3		 cmp	 esi, ebx
  00024	75 ef		 jne	 SHORT $LL20@CDynamicPo
  00026	8b 77 04	 mov	 esi, DWORD PTR [edi+4]
$LN19@CDynamicPo:
; File D:\Metin2 Server Files\mainline\SRC_2014\Metin2Client\eterLib\Pool.h

; 162  : 			m_kVct_pkFree.clear();

  00029	8b 4f 10	 mov	 ecx, DWORD PTR [edi+16]
  0002c	89 77 08	 mov	 DWORD PTR [edi+8], esi
  0002f	89 4f 14	 mov	 DWORD PTR [edi+20], ecx
; File C:\Program Files (x86)\Microsoft Visual Studio\2019\Community\VC\Tools\MSVC\14.28.29333\include\vector

; 1694 :         if (_Myfirst) { // destroy and deallocate old array

  00032	85 c9		 test	 ecx, ecx
  00034	74 27		 je	 SHORT $LN27@CDynamicPo

; 1695 :             _Destroy(_Myfirst, _Mylast);
; 1696 :             _Getal().deallocate(_Myfirst, static_cast<size_type>(_Myend - _Myfirst));

  00036	8b 47 18	 mov	 eax, DWORD PTR [edi+24]
  00039	2b c1		 sub	 eax, ecx
; File C:\Program Files (x86)\Microsoft Visual Studio\2019\Community\VC\Tools\MSVC\14.28.29333\include\xmemory

; 810  :         _Deallocate<_New_alignof<_Ty>>(_Ptr, sizeof(_Ty) * _Count);

  0003b	83 e0 fc	 and	 eax, -4			; fffffffcH
  0003e	50		 push	 eax
  0003f	51		 push	 ecx
  00040	e8 00 00 00 00	 call	 ??$_Deallocate@$07$0A@@std@@YAXPAXI@Z ; std::_Deallocate<8,0>
; File C:\Program Files (x86)\Microsoft Visual Studio\2019\Community\VC\Tools\MSVC\14.28.29333\include\vector

; 1698 :             _Myfirst = pointer();

  00045	c7 47 10 00 00
	00 00		 mov	 DWORD PTR [edi+16], 0
; File C:\Program Files (x86)\Microsoft Visual Studio\2019\Community\VC\Tools\MSVC\14.28.29333\include\xmemory

; 810  :         _Deallocate<_New_alignof<_Ty>>(_Ptr, sizeof(_Ty) * _Count);

  0004c	83 c4 08	 add	 esp, 8
; File C:\Program Files (x86)\Microsoft Visual Studio\2019\Community\VC\Tools\MSVC\14.28.29333\include\vector

; 1699 :             _Mylast  = pointer();

  0004f	c7 47 14 00 00
	00 00		 mov	 DWORD PTR [edi+20], 0

; 1700 :             _Myend   = pointer();

  00056	c7 47 18 00 00
	00 00		 mov	 DWORD PTR [edi+24], 0
$LN27@CDynamicPo:

; 1694 :         if (_Myfirst) { // destroy and deallocate old array

  0005d	8b 4f 04	 mov	 ecx, DWORD PTR [edi+4]
  00060	85 c9		 test	 ecx, ecx
  00062	74 27		 je	 SHORT $LN34@CDynamicPo

; 1695 :             _Destroy(_Myfirst, _Mylast);
; 1696 :             _Getal().deallocate(_Myfirst, static_cast<size_type>(_Myend - _Myfirst));

  00064	8b 47 0c	 mov	 eax, DWORD PTR [edi+12]
  00067	2b c1		 sub	 eax, ecx
; File C:\Program Files (x86)\Microsoft Visual Studio\2019\Community\VC\Tools\MSVC\14.28.29333\include\xmemory

; 810  :         _Deallocate<_New_alignof<_Ty>>(_Ptr, sizeof(_Ty) * _Count);

  00069	83 e0 fc	 and	 eax, -4			; fffffffcH
  0006c	50		 push	 eax
  0006d	51		 push	 ecx
  0006e	e8 00 00 00 00	 call	 ??$_Deallocate@$07$0A@@std@@YAXPAXI@Z ; std::_Deallocate<8,0>
; File C:\Program Files (x86)\Microsoft Visual Studio\2019\Community\VC\Tools\MSVC\14.28.29333\include\vector

; 1698 :             _Myfirst = pointer();

  00073	c7 47 04 00 00
	00 00		 mov	 DWORD PTR [edi+4], 0
; File C:\Program Files (x86)\Microsoft Visual Studio\2019\Community\VC\Tools\MSVC\14.28.29333\include\xmemory

; 810  :         _Deallocate<_New_alignof<_Ty>>(_Ptr, sizeof(_Ty) * _Count);

  0007a	83 c4 08	 add	 esp, 8
; File C:\Program Files (x86)\Microsoft Visual Studio\2019\Community\VC\Tools\MSVC\14.28.29333\include\vector

; 1699 :             _Mylast  = pointer();

  0007d	c7 47 08 00 00
	00 00		 mov	 DWORD PTR [edi+8], 0

; 1700 :             _Myend   = pointer();

  00084	c7 47 0c 00 00
	00 00		 mov	 DWORD PTR [edi+12], 0
$LN34@CDynamicPo:
  0008b	5f		 pop	 edi
; File D:\Metin2 Server Files\mainline\SRC_2014\Metin2Client\eterLib\Pool.h

; 142  : 		}

  0008c	5e		 pop	 esi
  0008d	5b		 pop	 ebx
  0008e	c3		 ret	 0
??1?$CDynamicPoolEx@VCTextureAnimationCWDecorator@NEffectUpdateDecorator@@@@UAE@XZ ENDP ; CDynamicPoolEx<NEffectUpdateDecorator::CTextureAnimationCWDecorator>::~CDynamicPoolEx<NEffectUpdateDecorator::CTextureAnimationCWDecorator>
_TEXT	ENDS
; Function compile flags: /Ogtp
;	COMDAT ??_G?$CDynamicPoolEx@VCTextureAnimationCCWDecorator@NEffectUpdateDecorator@@@@UAEPAXI@Z
_TEXT	SEGMENT
___flags$ = 8						; size = 4
??_G?$CDynamicPoolEx@VCTextureAnimationCCWDecorator@NEffectUpdateDecorator@@@@UAEPAXI@Z PROC ; CDynamicPoolEx<NEffectUpdateDecorator::CTextureAnimationCCWDecorator>::`scalar deleting destructor', COMDAT
; _this$ = ecx
  00000	55		 push	 ebp
  00001	8b ec		 mov	 ebp, esp
  00003	56		 push	 esi
  00004	8b f1		 mov	 esi, ecx
  00006	e8 00 00 00 00	 call	 ??1?$CDynamicPoolEx@VCTextureAnimationCCWDecorator@NEffectUpdateDecorator@@@@UAE@XZ ; CDynamicPoolEx<NEffectUpdateDecorator::CTextureAnimationCCWDecorator>::~CDynamicPoolEx<NEffectUpdateDecorator::CTextureAnimationCCWDecorator>
  0000b	f6 45 08 01	 test	 BYTE PTR ___flags$[ebp], 1
  0000f	74 0b		 je	 SHORT $LN4@scalar
  00011	6a 24		 push	 36			; 00000024H
  00013	56		 push	 esi
  00014	e8 00 00 00 00	 call	 ??3@YAXPAXI@Z		; operator delete
  00019	83 c4 08	 add	 esp, 8
$LN4@scalar:
  0001c	8b c6		 mov	 eax, esi
  0001e	5e		 pop	 esi
  0001f	5d		 pop	 ebp
  00020	c2 04 00	 ret	 4
??_G?$CDynamicPoolEx@VCTextureAnimationCCWDecorator@NEffectUpdateDecorator@@@@UAEPAXI@Z ENDP ; CDynamicPoolEx<NEffectUpdateDecorator::CTextureAnimationCCWDecorator>::`scalar deleting destructor'
_TEXT	ENDS
; Function compile flags: /Ogtp
; File D:\Metin2 Server Files\mainline\SRC_2014\Metin2Client\eterLib\Pool.h
;	COMDAT ?Delete@?$CDynamicPoolEx@VCTextureAnimationCCWDecorator@NEffectUpdateDecorator@@@@KAXPAVCTextureAnimationCCWDecorator@NEffectUpdateDecorator@@@Z
_TEXT	SEGMENT
_pkData$ = 8						; size = 4
?Delete@?$CDynamicPoolEx@VCTextureAnimationCCWDecorator@NEffectUpdateDecorator@@@@KAXPAVCTextureAnimationCCWDecorator@NEffectUpdateDecorator@@@Z PROC ; CDynamicPoolEx<NEffectUpdateDecorator::CTextureAnimationCCWDecorator>::Delete, COMDAT

; 224  : 			::operator delete(pkData);

  00000	e9 00 00 00 00	 jmp	 ??3@YAXPAX@Z		; operator delete
?Delete@?$CDynamicPoolEx@VCTextureAnimationCCWDecorator@NEffectUpdateDecorator@@@@KAXPAVCTextureAnimationCCWDecorator@NEffectUpdateDecorator@@@Z ENDP ; CDynamicPoolEx<NEffectUpdateDecorator::CTextureAnimationCCWDecorator>::Delete
_TEXT	ENDS
; Function compile flags: /Ogtp
; File D:\Metin2 Server Files\mainline\SRC_2014\Metin2Client\eterLib\Pool.h
; File C:\Program Files (x86)\Microsoft Visual Studio\2019\Community\VC\Tools\MSVC\14.28.29333\include\vector
; File C:\Program Files (x86)\Microsoft Visual Studio\2019\Community\VC\Tools\MSVC\14.28.29333\include\algorithm
; File D:\Metin2 Server Files\mainline\SRC_2014\Metin2Client\eterLib\Pool.h
; File C:\Program Files (x86)\Microsoft Visual Studio\2019\Community\VC\Tools\MSVC\14.28.29333\include\algorithm
; File D:\Metin2 Server Files\mainline\SRC_2014\Metin2Client\eterLib\Pool.h
; File C:\Program Files (x86)\Microsoft Visual Studio\2019\Community\VC\Tools\MSVC\14.28.29333\include\algorithm
; File D:\Metin2 Server Files\mainline\SRC_2014\Metin2Client\eterLib\Pool.h
; File C:\Program Files (x86)\Microsoft Visual Studio\2019\Community\VC\Tools\MSVC\14.28.29333\include\vector
; File C:\Program Files (x86)\Microsoft Visual Studio\2019\Community\VC\Tools\MSVC\14.28.29333\include\xmemory
; File C:\Program Files (x86)\Microsoft Visual Studio\2019\Community\VC\Tools\MSVC\14.28.29333\include\vector
; File C:\Program Files (x86)\Microsoft Visual Studio\2019\Community\VC\Tools\MSVC\14.28.29333\include\xmemory
; File C:\Program Files (x86)\Microsoft Visual Studio\2019\Community\VC\Tools\MSVC\14.28.29333\include\vector
; File C:\Program Files (x86)\Microsoft Visual Studio\2019\Community\VC\Tools\MSVC\14.28.29333\include\xmemory
; File C:\Program Files (x86)\Microsoft Visual Studio\2019\Community\VC\Tools\MSVC\14.28.29333\include\vector
; File C:\Program Files (x86)\Microsoft Visual Studio\2019\Community\VC\Tools\MSVC\14.28.29333\include\xmemory
; File C:\Program Files (x86)\Microsoft Visual Studio\2019\Community\VC\Tools\MSVC\14.28.29333\include\vector
; File D:\Metin2 Server Files\mainline\SRC_2014\Metin2Client\eterLib\Pool.h
;	COMDAT ??1?$CDynamicPoolEx@VCTextureAnimationCCWDecorator@NEffectUpdateDecorator@@@@UAE@XZ
_TEXT	SEGMENT
??1?$CDynamicPoolEx@VCTextureAnimationCCWDecorator@NEffectUpdateDecorator@@@@UAE@XZ PROC ; CDynamicPoolEx<NEffectUpdateDecorator::CTextureAnimationCCWDecorator>::~CDynamicPoolEx<NEffectUpdateDecorator::CTextureAnimationCCWDecorator>, COMDAT
; _this$ = ecx

; 132  : 		{

  00000	53		 push	 ebx
  00001	56		 push	 esi
  00002	57		 push	 edi
  00003	8b f9		 mov	 edi, ecx
  00005	c7 07 00 00 00
	00		 mov	 DWORD PTR [edi], OFFSET ??_7?$CDynamicPoolEx@VCTextureAnimationCCWDecorator@NEffectUpdateDecorator@@@@6B@
; File C:\Program Files (x86)\Microsoft Visual Studio\2019\Community\VC\Tools\MSVC\14.28.29333\include\vector

; 42   :     _Vector_const_iterator(_Tptr _Parg, const _Container_base* _Pvector) noexcept : _Ptr(_Parg) {

  0000b	8b 5f 08	 mov	 ebx, DWORD PTR [edi+8]
  0000e	8b 77 04	 mov	 esi, DWORD PTR [edi+4]
; File C:\Program Files (x86)\Microsoft Visual Studio\2019\Community\VC\Tools\MSVC\14.28.29333\include\algorithm

; 307  :     for (; _UFirst != _ULast; ++_UFirst) {

  00011	3b f3		 cmp	 esi, ebx
  00013	74 14		 je	 SHORT $LN19@CDynamicPo
$LL20@CDynamicPo:
; File D:\Metin2 Server Files\mainline\SRC_2014\Metin2Client\eterLib\Pool.h

; 224  : 			::operator delete(pkData);

  00015	ff 36		 push	 DWORD PTR [esi]
  00017	e8 00 00 00 00	 call	 ??3@YAXPAX@Z		; operator delete
; File C:\Program Files (x86)\Microsoft Visual Studio\2019\Community\VC\Tools\MSVC\14.28.29333\include\algorithm

; 307  :     for (; _UFirst != _ULast; ++_UFirst) {

  0001c	83 c6 04	 add	 esi, 4
; File D:\Metin2 Server Files\mainline\SRC_2014\Metin2Client\eterLib\Pool.h

; 224  : 			::operator delete(pkData);

  0001f	83 c4 04	 add	 esp, 4
; File C:\Program Files (x86)\Microsoft Visual Studio\2019\Community\VC\Tools\MSVC\14.28.29333\include\algorithm

; 307  :     for (; _UFirst != _ULast; ++_UFirst) {

  00022	3b f3		 cmp	 esi, ebx
  00024	75 ef		 jne	 SHORT $LL20@CDynamicPo
  00026	8b 77 04	 mov	 esi, DWORD PTR [edi+4]
$LN19@CDynamicPo:
; File D:\Metin2 Server Files\mainline\SRC_2014\Metin2Client\eterLib\Pool.h

; 162  : 			m_kVct_pkFree.clear();

  00029	8b 4f 10	 mov	 ecx, DWORD PTR [edi+16]
  0002c	89 77 08	 mov	 DWORD PTR [edi+8], esi
  0002f	89 4f 14	 mov	 DWORD PTR [edi+20], ecx
; File C:\Program Files (x86)\Microsoft Visual Studio\2019\Community\VC\Tools\MSVC\14.28.29333\include\vector

; 1694 :         if (_Myfirst) { // destroy and deallocate old array

  00032	85 c9		 test	 ecx, ecx
  00034	74 27		 je	 SHORT $LN27@CDynamicPo

; 1695 :             _Destroy(_Myfirst, _Mylast);
; 1696 :             _Getal().deallocate(_Myfirst, static_cast<size_type>(_Myend - _Myfirst));

  00036	8b 47 18	 mov	 eax, DWORD PTR [edi+24]
  00039	2b c1		 sub	 eax, ecx
; File C:\Program Files (x86)\Microsoft Visual Studio\2019\Community\VC\Tools\MSVC\14.28.29333\include\xmemory

; 810  :         _Deallocate<_New_alignof<_Ty>>(_Ptr, sizeof(_Ty) * _Count);

  0003b	83 e0 fc	 and	 eax, -4			; fffffffcH
  0003e	50		 push	 eax
  0003f	51		 push	 ecx
  00040	e8 00 00 00 00	 call	 ??$_Deallocate@$07$0A@@std@@YAXPAXI@Z ; std::_Deallocate<8,0>
; File C:\Program Files (x86)\Microsoft Visual Studio\2019\Community\VC\Tools\MSVC\14.28.29333\include\vector

; 1698 :             _Myfirst = pointer();

  00045	c7 47 10 00 00
	00 00		 mov	 DWORD PTR [edi+16], 0
; File C:\Program Files (x86)\Microsoft Visual Studio\2019\Community\VC\Tools\MSVC\14.28.29333\include\xmemory

; 810  :         _Deallocate<_New_alignof<_Ty>>(_Ptr, sizeof(_Ty) * _Count);

  0004c	83 c4 08	 add	 esp, 8
; File C:\Program Files (x86)\Microsoft Visual Studio\2019\Community\VC\Tools\MSVC\14.28.29333\include\vector

; 1699 :             _Mylast  = pointer();

  0004f	c7 47 14 00 00
	00 00		 mov	 DWORD PTR [edi+20], 0

; 1700 :             _Myend   = pointer();

  00056	c7 47 18 00 00
	00 00		 mov	 DWORD PTR [edi+24], 0
$LN27@CDynamicPo:

; 1694 :         if (_Myfirst) { // destroy and deallocate old array

  0005d	8b 4f 04	 mov	 ecx, DWORD PTR [edi+4]
  00060	85 c9		 test	 ecx, ecx
  00062	74 27		 je	 SHORT $LN34@CDynamicPo

; 1695 :             _Destroy(_Myfirst, _Mylast);
; 1696 :             _Getal().deallocate(_Myfirst, static_cast<size_type>(_Myend - _Myfirst));

  00064	8b 47 0c	 mov	 eax, DWORD PTR [edi+12]
  00067	2b c1		 sub	 eax, ecx
; File C:\Program Files (x86)\Microsoft Visual Studio\2019\Community\VC\Tools\MSVC\14.28.29333\include\xmemory

; 810  :         _Deallocate<_New_alignof<_Ty>>(_Ptr, sizeof(_Ty) * _Count);

  00069	83 e0 fc	 and	 eax, -4			; fffffffcH
  0006c	50		 push	 eax
  0006d	51		 push	 ecx
  0006e	e8 00 00 00 00	 call	 ??$_Deallocate@$07$0A@@std@@YAXPAXI@Z ; std::_Deallocate<8,0>
; File C:\Program Files (x86)\Microsoft Visual Studio\2019\Community\VC\Tools\MSVC\14.28.29333\include\vector

; 1698 :             _Myfirst = pointer();

  00073	c7 47 04 00 00
	00 00		 mov	 DWORD PTR [edi+4], 0
; File C:\Program Files (x86)\Microsoft Visual Studio\2019\Community\VC\Tools\MSVC\14.28.29333\include\xmemory

; 810  :         _Deallocate<_New_alignof<_Ty>>(_Ptr, sizeof(_Ty) * _Count);

  0007a	83 c4 08	 add	 esp, 8
; File C:\Program Files (x86)\Microsoft Visual Studio\2019\Community\VC\Tools\MSVC\14.28.29333\include\vector

; 1699 :             _Mylast  = pointer();

  0007d	c7 47 08 00 00
	00 00		 mov	 DWORD PTR [edi+8], 0

; 1700 :             _Myend   = pointer();

  00084	c7 47 0c 00 00
	00 00		 mov	 DWORD PTR [edi+12], 0
$LN34@CDynamicPo:
  0008b	5f		 pop	 edi
; File D:\Metin2 Server Files\mainline\SRC_2014\Metin2Client\eterLib\Pool.h

; 142  : 		}

  0008c	5e		 pop	 esi
  0008d	5b		 pop	 ebx
  0008e	c3		 ret	 0
??1?$CDynamicPoolEx@VCTextureAnimationCCWDecorator@NEffectUpdateDecorator@@@@UAE@XZ ENDP ; CDynamicPoolEx<NEffectUpdateDecorator::CTextureAnimationCCWDecorator>::~CDynamicPoolEx<NEffectUpdateDecorator::CTextureAnimationCCWDecorator>
_TEXT	ENDS
; Function compile flags: /Ogtp
;	COMDAT ??_G?$CDynamicPoolEx@VCTextureAnimationRandomDecorator@NEffectUpdateDecorator@@@@UAEPAXI@Z
_TEXT	SEGMENT
___flags$ = 8						; size = 4
??_G?$CDynamicPoolEx@VCTextureAnimationRandomDecorator@NEffectUpdateDecorator@@@@UAEPAXI@Z PROC ; CDynamicPoolEx<NEffectUpdateDecorator::CTextureAnimationRandomDecorator>::`scalar deleting destructor', COMDAT
; _this$ = ecx
  00000	55		 push	 ebp
  00001	8b ec		 mov	 ebp, esp
  00003	56		 push	 esi
  00004	8b f1		 mov	 esi, ecx
  00006	e8 00 00 00 00	 call	 ??1?$CDynamicPoolEx@VCTextureAnimationRandomDecorator@NEffectUpdateDecorator@@@@UAE@XZ ; CDynamicPoolEx<NEffectUpdateDecorator::CTextureAnimationRandomDecorator>::~CDynamicPoolEx<NEffectUpdateDecorator::CTextureAnimationRandomDecorator>
  0000b	f6 45 08 01	 test	 BYTE PTR ___flags$[ebp], 1
  0000f	74 0b		 je	 SHORT $LN4@scalar
  00011	6a 24		 push	 36			; 00000024H
  00013	56		 push	 esi
  00014	e8 00 00 00 00	 call	 ??3@YAXPAXI@Z		; operator delete
  00019	83 c4 08	 add	 esp, 8
$LN4@scalar:
  0001c	8b c6		 mov	 eax, esi
  0001e	5e		 pop	 esi
  0001f	5d		 pop	 ebp
  00020	c2 04 00	 ret	 4
??_G?$CDynamicPoolEx@VCTextureAnimationRandomDecorator@NEffectUpdateDecorator@@@@UAEPAXI@Z ENDP ; CDynamicPoolEx<NEffectUpdateDecorator::CTextureAnimationRandomDecorator>::`scalar deleting destructor'
_TEXT	ENDS
; Function compile flags: /Ogtp
; File D:\Metin2 Server Files\mainline\SRC_2014\Metin2Client\eterLib\Pool.h
;	COMDAT ?Delete@?$CDynamicPoolEx@VCTextureAnimationRandomDecorator@NEffectUpdateDecorator@@@@KAXPAVCTextureAnimationRandomDecorator@NEffectUpdateDecorator@@@Z
_TEXT	SEGMENT
_pkData$ = 8						; size = 4
?Delete@?$CDynamicPoolEx@VCTextureAnimationRandomDecorator@NEffectUpdateDecorator@@@@KAXPAVCTextureAnimationRandomDecorator@NEffectUpdateDecorator@@@Z PROC ; CDynamicPoolEx<NEffectUpdateDecorator::CTextureAnimationRandomDecorator>::Delete, COMDAT

; 224  : 			::operator delete(pkData);

  00000	e9 00 00 00 00	 jmp	 ??3@YAXPAX@Z		; operator delete
?Delete@?$CDynamicPoolEx@VCTextureAnimationRandomDecorator@NEffectUpdateDecorator@@@@KAXPAVCTextureAnimationRandomDecorator@NEffectUpdateDecorator@@@Z ENDP ; CDynamicPoolEx<NEffectUpdateDecorator::CTextureAnimationRandomDecorator>::Delete
_TEXT	ENDS
; Function compile flags: /Ogtp
; File D:\Metin2 Server Files\mainline\SRC_2014\Metin2Client\eterLib\Pool.h
; File C:\Program Files (x86)\Microsoft Visual Studio\2019\Community\VC\Tools\MSVC\14.28.29333\include\vector
; File C:\Program Files (x86)\Microsoft Visual Studio\2019\Community\VC\Tools\MSVC\14.28.29333\include\algorithm
; File D:\Metin2 Server Files\mainline\SRC_2014\Metin2Client\eterLib\Pool.h
; File C:\Program Files (x86)\Microsoft Visual Studio\2019\Community\VC\Tools\MSVC\14.28.29333\include\algorithm
; File D:\Metin2 Server Files\mainline\SRC_2014\Metin2Client\eterLib\Pool.h
; File C:\Program Files (x86)\Microsoft Visual Studio\2019\Community\VC\Tools\MSVC\14.28.29333\include\algorithm
; File D:\Metin2 Server Files\mainline\SRC_2014\Metin2Client\eterLib\Pool.h
; File C:\Program Files (x86)\Microsoft Visual Studio\2019\Community\VC\Tools\MSVC\14.28.29333\include\vector
; File C:\Program Files (x86)\Microsoft Visual Studio\2019\Community\VC\Tools\MSVC\14.28.29333\include\xmemory
; File C:\Program Files (x86)\Microsoft Visual Studio\2019\Community\VC\Tools\MSVC\14.28.29333\include\vector
; File C:\Program Files (x86)\Microsoft Visual Studio\2019\Community\VC\Tools\MSVC\14.28.29333\include\xmemory
; File C:\Program Files (x86)\Microsoft Visual Studio\2019\Community\VC\Tools\MSVC\14.28.29333\include\vector
; File C:\Program Files (x86)\Microsoft Visual Studio\2019\Community\VC\Tools\MSVC\14.28.29333\include\xmemory
; File C:\Program Files (x86)\Microsoft Visual Studio\2019\Community\VC\Tools\MSVC\14.28.29333\include\vector
; File C:\Program Files (x86)\Microsoft Visual Studio\2019\Community\VC\Tools\MSVC\14.28.29333\include\xmemory
; File C:\Program Files (x86)\Microsoft Visual Studio\2019\Community\VC\Tools\MSVC\14.28.29333\include\vector
; File D:\Metin2 Server Files\mainline\SRC_2014\Metin2Client\eterLib\Pool.h
;	COMDAT ??1?$CDynamicPoolEx@VCTextureAnimationRandomDecorator@NEffectUpdateDecorator@@@@UAE@XZ
_TEXT	SEGMENT
??1?$CDynamicPoolEx@VCTextureAnimationRandomDecorator@NEffectUpdateDecorator@@@@UAE@XZ PROC ; CDynamicPoolEx<NEffectUpdateDecorator::CTextureAnimationRandomDecorator>::~CDynamicPoolEx<NEffectUpdateDecorator::CTextureAnimationRandomDecorator>, COMDAT
; _this$ = ecx

; 132  : 		{

  00000	53		 push	 ebx
  00001	56		 push	 esi
  00002	57		 push	 edi
  00003	8b f9		 mov	 edi, ecx
  00005	c7 07 00 00 00
	00		 mov	 DWORD PTR [edi], OFFSET ??_7?$CDynamicPoolEx@VCTextureAnimationRandomDecorator@NEffectUpdateDecorator@@@@6B@
; File C:\Program Files (x86)\Microsoft Visual Studio\2019\Community\VC\Tools\MSVC\14.28.29333\include\vector

; 42   :     _Vector_const_iterator(_Tptr _Parg, const _Container_base* _Pvector) noexcept : _Ptr(_Parg) {

  0000b	8b 5f 08	 mov	 ebx, DWORD PTR [edi+8]
  0000e	8b 77 04	 mov	 esi, DWORD PTR [edi+4]
; File C:\Program Files (x86)\Microsoft Visual Studio\2019\Community\VC\Tools\MSVC\14.28.29333\include\algorithm

; 307  :     for (; _UFirst != _ULast; ++_UFirst) {

  00011	3b f3		 cmp	 esi, ebx
  00013	74 14		 je	 SHORT $LN19@CDynamicPo
$LL20@CDynamicPo:
; File D:\Metin2 Server Files\mainline\SRC_2014\Metin2Client\eterLib\Pool.h

; 224  : 			::operator delete(pkData);

  00015	ff 36		 push	 DWORD PTR [esi]
  00017	e8 00 00 00 00	 call	 ??3@YAXPAX@Z		; operator delete
; File C:\Program Files (x86)\Microsoft Visual Studio\2019\Community\VC\Tools\MSVC\14.28.29333\include\algorithm

; 307  :     for (; _UFirst != _ULast; ++_UFirst) {

  0001c	83 c6 04	 add	 esi, 4
; File D:\Metin2 Server Files\mainline\SRC_2014\Metin2Client\eterLib\Pool.h

; 224  : 			::operator delete(pkData);

  0001f	83 c4 04	 add	 esp, 4
; File C:\Program Files (x86)\Microsoft Visual Studio\2019\Community\VC\Tools\MSVC\14.28.29333\include\algorithm

; 307  :     for (; _UFirst != _ULast; ++_UFirst) {

  00022	3b f3		 cmp	 esi, ebx
  00024	75 ef		 jne	 SHORT $LL20@CDynamicPo
  00026	8b 77 04	 mov	 esi, DWORD PTR [edi+4]
$LN19@CDynamicPo:
; File D:\Metin2 Server Files\mainline\SRC_2014\Metin2Client\eterLib\Pool.h

; 162  : 			m_kVct_pkFree.clear();

  00029	8b 4f 10	 mov	 ecx, DWORD PTR [edi+16]
  0002c	89 77 08	 mov	 DWORD PTR [edi+8], esi
  0002f	89 4f 14	 mov	 DWORD PTR [edi+20], ecx
; File C:\Program Files (x86)\Microsoft Visual Studio\2019\Community\VC\Tools\MSVC\14.28.29333\include\vector

; 1694 :         if (_Myfirst) { // destroy and deallocate old array

  00032	85 c9		 test	 ecx, ecx
  00034	74 27		 je	 SHORT $LN27@CDynamicPo

; 1695 :             _Destroy(_Myfirst, _Mylast);
; 1696 :             _Getal().deallocate(_Myfirst, static_cast<size_type>(_Myend - _Myfirst));

  00036	8b 47 18	 mov	 eax, DWORD PTR [edi+24]
  00039	2b c1		 sub	 eax, ecx
; File C:\Program Files (x86)\Microsoft Visual Studio\2019\Community\VC\Tools\MSVC\14.28.29333\include\xmemory

; 810  :         _Deallocate<_New_alignof<_Ty>>(_Ptr, sizeof(_Ty) * _Count);

  0003b	83 e0 fc	 and	 eax, -4			; fffffffcH
  0003e	50		 push	 eax
  0003f	51		 push	 ecx
  00040	e8 00 00 00 00	 call	 ??$_Deallocate@$07$0A@@std@@YAXPAXI@Z ; std::_Deallocate<8,0>
; File C:\Program Files (x86)\Microsoft Visual Studio\2019\Community\VC\Tools\MSVC\14.28.29333\include\vector

; 1698 :             _Myfirst = pointer();

  00045	c7 47 10 00 00
	00 00		 mov	 DWORD PTR [edi+16], 0
; File C:\Program Files (x86)\Microsoft Visual Studio\2019\Community\VC\Tools\MSVC\14.28.29333\include\xmemory

; 810  :         _Deallocate<_New_alignof<_Ty>>(_Ptr, sizeof(_Ty) * _Count);

  0004c	83 c4 08	 add	 esp, 8
; File C:\Program Files (x86)\Microsoft Visual Studio\2019\Community\VC\Tools\MSVC\14.28.29333\include\vector

; 1699 :             _Mylast  = pointer();

  0004f	c7 47 14 00 00
	00 00		 mov	 DWORD PTR [edi+20], 0

; 1700 :             _Myend   = pointer();

  00056	c7 47 18 00 00
	00 00		 mov	 DWORD PTR [edi+24], 0
$LN27@CDynamicPo:

; 1694 :         if (_Myfirst) { // destroy and deallocate old array

  0005d	8b 4f 04	 mov	 ecx, DWORD PTR [edi+4]
  00060	85 c9		 test	 ecx, ecx
  00062	74 27		 je	 SHORT $LN34@CDynamicPo

; 1695 :             _Destroy(_Myfirst, _Mylast);
; 1696 :             _Getal().deallocate(_Myfirst, static_cast<size_type>(_Myend - _Myfirst));

  00064	8b 47 0c	 mov	 eax, DWORD PTR [edi+12]
  00067	2b c1		 sub	 eax, ecx
; File C:\Program Files (x86)\Microsoft Visual Studio\2019\Community\VC\Tools\MSVC\14.28.29333\include\xmemory

; 810  :         _Deallocate<_New_alignof<_Ty>>(_Ptr, sizeof(_Ty) * _Count);

  00069	83 e0 fc	 and	 eax, -4			; fffffffcH
  0006c	50		 push	 eax
  0006d	51		 push	 ecx
  0006e	e8 00 00 00 00	 call	 ??$_Deallocate@$07$0A@@std@@YAXPAXI@Z ; std::_Deallocate<8,0>
; File C:\Program Files (x86)\Microsoft Visual Studio\2019\Community\VC\Tools\MSVC\14.28.29333\include\vector

; 1698 :             _Myfirst = pointer();

  00073	c7 47 04 00 00
	00 00		 mov	 DWORD PTR [edi+4], 0
; File C:\Program Files (x86)\Microsoft Visual Studio\2019\Community\VC\Tools\MSVC\14.28.29333\include\xmemory

; 810  :         _Deallocate<_New_alignof<_Ty>>(_Ptr, sizeof(_Ty) * _Count);

  0007a	83 c4 08	 add	 esp, 8
; File C:\Program Files (x86)\Microsoft Visual Studio\2019\Community\VC\Tools\MSVC\14.28.29333\include\vector

; 1699 :             _Mylast  = pointer();

  0007d	c7 47 08 00 00
	00 00		 mov	 DWORD PTR [edi+8], 0

; 1700 :             _Myend   = pointer();

  00084	c7 47 0c 00 00
	00 00		 mov	 DWORD PTR [edi+12], 0
$LN34@CDynamicPo:
  0008b	5f		 pop	 edi
; File D:\Metin2 Server Files\mainline\SRC_2014\Metin2Client\eterLib\Pool.h

; 142  : 		}

  0008c	5e		 pop	 esi
  0008d	5b		 pop	 ebx
  0008e	c3		 ret	 0
??1?$CDynamicPoolEx@VCTextureAnimationRandomDecorator@NEffectUpdateDecorator@@@@UAE@XZ ENDP ; CDynamicPoolEx<NEffectUpdateDecorator::CTextureAnimationRandomDecorator>::~CDynamicPoolEx<NEffectUpdateDecorator::CTextureAnimationRandomDecorator>
_TEXT	ENDS
; Function compile flags: /Ogtp
;	COMDAT ??_G?$CDynamicPoolEx@VCAirResistanceDecorator@NEffectUpdateDecorator@@@@UAEPAXI@Z
_TEXT	SEGMENT
___flags$ = 8						; size = 4
??_G?$CDynamicPoolEx@VCAirResistanceDecorator@NEffectUpdateDecorator@@@@UAEPAXI@Z PROC ; CDynamicPoolEx<NEffectUpdateDecorator::CAirResistanceDecorator>::`scalar deleting destructor', COMDAT
; _this$ = ecx
  00000	55		 push	 ebp
  00001	8b ec		 mov	 ebp, esp
  00003	56		 push	 esi
  00004	8b f1		 mov	 esi, ecx
  00006	e8 00 00 00 00	 call	 ??1?$CDynamicPoolEx@VCAirResistanceDecorator@NEffectUpdateDecorator@@@@UAE@XZ ; CDynamicPoolEx<NEffectUpdateDecorator::CAirResistanceDecorator>::~CDynamicPoolEx<NEffectUpdateDecorator::CAirResistanceDecorator>
  0000b	f6 45 08 01	 test	 BYTE PTR ___flags$[ebp], 1
  0000f	74 0b		 je	 SHORT $LN4@scalar
  00011	6a 24		 push	 36			; 00000024H
  00013	56		 push	 esi
  00014	e8 00 00 00 00	 call	 ??3@YAXPAXI@Z		; operator delete
  00019	83 c4 08	 add	 esp, 8
$LN4@scalar:
  0001c	8b c6		 mov	 eax, esi
  0001e	5e		 pop	 esi
  0001f	5d		 pop	 ebp
  00020	c2 04 00	 ret	 4
??_G?$CDynamicPoolEx@VCAirResistanceDecorator@NEffectUpdateDecorator@@@@UAEPAXI@Z ENDP ; CDynamicPoolEx<NEffectUpdateDecorator::CAirResistanceDecorator>::`scalar deleting destructor'
_TEXT	ENDS
; Function compile flags: /Ogtp
; File D:\Metin2 Server Files\mainline\SRC_2014\Metin2Client\eterLib\Pool.h
;	COMDAT ?Delete@?$CDynamicPoolEx@VCAirResistanceDecorator@NEffectUpdateDecorator@@@@KAXPAVCAirResistanceDecorator@NEffectUpdateDecorator@@@Z
_TEXT	SEGMENT
_pkData$ = 8						; size = 4
?Delete@?$CDynamicPoolEx@VCAirResistanceDecorator@NEffectUpdateDecorator@@@@KAXPAVCAirResistanceDecorator@NEffectUpdateDecorator@@@Z PROC ; CDynamicPoolEx<NEffectUpdateDecorator::CAirResistanceDecorator>::Delete, COMDAT

; 224  : 			::operator delete(pkData);

  00000	e9 00 00 00 00	 jmp	 ??3@YAXPAX@Z		; operator delete
?Delete@?$CDynamicPoolEx@VCAirResistanceDecorator@NEffectUpdateDecorator@@@@KAXPAVCAirResistanceDecorator@NEffectUpdateDecorator@@@Z ENDP ; CDynamicPoolEx<NEffectUpdateDecorator::CAirResistanceDecorator>::Delete
_TEXT	ENDS
; Function compile flags: /Ogtp
; File D:\Metin2 Server Files\mainline\SRC_2014\Metin2Client\eterLib\Pool.h
; File C:\Program Files (x86)\Microsoft Visual Studio\2019\Community\VC\Tools\MSVC\14.28.29333\include\vector
; File C:\Program Files (x86)\Microsoft Visual Studio\2019\Community\VC\Tools\MSVC\14.28.29333\include\algorithm
; File D:\Metin2 Server Files\mainline\SRC_2014\Metin2Client\eterLib\Pool.h
; File C:\Program Files (x86)\Microsoft Visual Studio\2019\Community\VC\Tools\MSVC\14.28.29333\include\algorithm
; File D:\Metin2 Server Files\mainline\SRC_2014\Metin2Client\eterLib\Pool.h
; File C:\Program Files (x86)\Microsoft Visual Studio\2019\Community\VC\Tools\MSVC\14.28.29333\include\algorithm
; File D:\Metin2 Server Files\mainline\SRC_2014\Metin2Client\eterLib\Pool.h
; File C:\Program Files (x86)\Microsoft Visual Studio\2019\Community\VC\Tools\MSVC\14.28.29333\include\vector
; File C:\Program Files (x86)\Microsoft Visual Studio\2019\Community\VC\Tools\MSVC\14.28.29333\include\xmemory
; File C:\Program Files (x86)\Microsoft Visual Studio\2019\Community\VC\Tools\MSVC\14.28.29333\include\vector
; File C:\Program Files (x86)\Microsoft Visual Studio\2019\Community\VC\Tools\MSVC\14.28.29333\include\xmemory
; File C:\Program Files (x86)\Microsoft Visual Studio\2019\Community\VC\Tools\MSVC\14.28.29333\include\vector
; File C:\Program Files (x86)\Microsoft Visual Studio\2019\Community\VC\Tools\MSVC\14.28.29333\include\xmemory
; File C:\Program Files (x86)\Microsoft Visual Studio\2019\Community\VC\Tools\MSVC\14.28.29333\include\vector
; File C:\Program Files (x86)\Microsoft Visual Studio\2019\Community\VC\Tools\MSVC\14.28.29333\include\xmemory
; File C:\Program Files (x86)\Microsoft Visual Studio\2019\Community\VC\Tools\MSVC\14.28.29333\include\vector
; File D:\Metin2 Server Files\mainline\SRC_2014\Metin2Client\eterLib\Pool.h
;	COMDAT ??1?$CDynamicPoolEx@VCAirResistanceDecorator@NEffectUpdateDecorator@@@@UAE@XZ
_TEXT	SEGMENT
??1?$CDynamicPoolEx@VCAirResistanceDecorator@NEffectUpdateDecorator@@@@UAE@XZ PROC ; CDynamicPoolEx<NEffectUpdateDecorator::CAirResistanceDecorator>::~CDynamicPoolEx<NEffectUpdateDecorator::CAirResistanceDecorator>, COMDAT
; _this$ = ecx

; 132  : 		{

  00000	53		 push	 ebx
  00001	56		 push	 esi
  00002	57		 push	 edi
  00003	8b f9		 mov	 edi, ecx
  00005	c7 07 00 00 00
	00		 mov	 DWORD PTR [edi], OFFSET ??_7?$CDynamicPoolEx@VCAirResistanceDecorator@NEffectUpdateDecorator@@@@6B@
; File C:\Program Files (x86)\Microsoft Visual Studio\2019\Community\VC\Tools\MSVC\14.28.29333\include\vector

; 42   :     _Vector_const_iterator(_Tptr _Parg, const _Container_base* _Pvector) noexcept : _Ptr(_Parg) {

  0000b	8b 5f 08	 mov	 ebx, DWORD PTR [edi+8]
  0000e	8b 77 04	 mov	 esi, DWORD PTR [edi+4]
; File C:\Program Files (x86)\Microsoft Visual Studio\2019\Community\VC\Tools\MSVC\14.28.29333\include\algorithm

; 307  :     for (; _UFirst != _ULast; ++_UFirst) {

  00011	3b f3		 cmp	 esi, ebx
  00013	74 14		 je	 SHORT $LN19@CDynamicPo
$LL20@CDynamicPo:
; File D:\Metin2 Server Files\mainline\SRC_2014\Metin2Client\eterLib\Pool.h

; 224  : 			::operator delete(pkData);

  00015	ff 36		 push	 DWORD PTR [esi]
  00017	e8 00 00 00 00	 call	 ??3@YAXPAX@Z		; operator delete
; File C:\Program Files (x86)\Microsoft Visual Studio\2019\Community\VC\Tools\MSVC\14.28.29333\include\algorithm

; 307  :     for (; _UFirst != _ULast; ++_UFirst) {

  0001c	83 c6 04	 add	 esi, 4
; File D:\Metin2 Server Files\mainline\SRC_2014\Metin2Client\eterLib\Pool.h

; 224  : 			::operator delete(pkData);

  0001f	83 c4 04	 add	 esp, 4
; File C:\Program Files (x86)\Microsoft Visual Studio\2019\Community\VC\Tools\MSVC\14.28.29333\include\algorithm

; 307  :     for (; _UFirst != _ULast; ++_UFirst) {

  00022	3b f3		 cmp	 esi, ebx
  00024	75 ef		 jne	 SHORT $LL20@CDynamicPo
  00026	8b 77 04	 mov	 esi, DWORD PTR [edi+4]
$LN19@CDynamicPo:
; File D:\Metin2 Server Files\mainline\SRC_2014\Metin2Client\eterLib\Pool.h

; 162  : 			m_kVct_pkFree.clear();

  00029	8b 4f 10	 mov	 ecx, DWORD PTR [edi+16]
  0002c	89 77 08	 mov	 DWORD PTR [edi+8], esi
  0002f	89 4f 14	 mov	 DWORD PTR [edi+20], ecx
; File C:\Program Files (x86)\Microsoft Visual Studio\2019\Community\VC\Tools\MSVC\14.28.29333\include\vector

; 1694 :         if (_Myfirst) { // destroy and deallocate old array

  00032	85 c9		 test	 ecx, ecx
  00034	74 27		 je	 SHORT $LN27@CDynamicPo

; 1695 :             _Destroy(_Myfirst, _Mylast);
; 1696 :             _Getal().deallocate(_Myfirst, static_cast<size_type>(_Myend - _Myfirst));

  00036	8b 47 18	 mov	 eax, DWORD PTR [edi+24]
  00039	2b c1		 sub	 eax, ecx
; File C:\Program Files (x86)\Microsoft Visual Studio\2019\Community\VC\Tools\MSVC\14.28.29333\include\xmemory

; 810  :         _Deallocate<_New_alignof<_Ty>>(_Ptr, sizeof(_Ty) * _Count);

  0003b	83 e0 fc	 and	 eax, -4			; fffffffcH
  0003e	50		 push	 eax
  0003f	51		 push	 ecx
  00040	e8 00 00 00 00	 call	 ??$_Deallocate@$07$0A@@std@@YAXPAXI@Z ; std::_Deallocate<8,0>
; File C:\Program Files (x86)\Microsoft Visual Studio\2019\Community\VC\Tools\MSVC\14.28.29333\include\vector

; 1698 :             _Myfirst = pointer();

  00045	c7 47 10 00 00
	00 00		 mov	 DWORD PTR [edi+16], 0
; File C:\Program Files (x86)\Microsoft Visual Studio\2019\Community\VC\Tools\MSVC\14.28.29333\include\xmemory

; 810  :         _Deallocate<_New_alignof<_Ty>>(_Ptr, sizeof(_Ty) * _Count);

  0004c	83 c4 08	 add	 esp, 8
; File C:\Program Files (x86)\Microsoft Visual Studio\2019\Community\VC\Tools\MSVC\14.28.29333\include\vector

; 1699 :             _Mylast  = pointer();

  0004f	c7 47 14 00 00
	00 00		 mov	 DWORD PTR [edi+20], 0

; 1700 :             _Myend   = pointer();

  00056	c7 47 18 00 00
	00 00		 mov	 DWORD PTR [edi+24], 0
$LN27@CDynamicPo:

; 1694 :         if (_Myfirst) { // destroy and deallocate old array

  0005d	8b 4f 04	 mov	 ecx, DWORD PTR [edi+4]
  00060	85 c9		 test	 ecx, ecx
  00062	74 27		 je	 SHORT $LN34@CDynamicPo

; 1695 :             _Destroy(_Myfirst, _Mylast);
; 1696 :             _Getal().deallocate(_Myfirst, static_cast<size_type>(_Myend - _Myfirst));

  00064	8b 47 0c	 mov	 eax, DWORD PTR [edi+12]
  00067	2b c1		 sub	 eax, ecx
; File C:\Program Files (x86)\Microsoft Visual Studio\2019\Community\VC\Tools\MSVC\14.28.29333\include\xmemory

; 810  :         _Deallocate<_New_alignof<_Ty>>(_Ptr, sizeof(_Ty) * _Count);

  00069	83 e0 fc	 and	 eax, -4			; fffffffcH
  0006c	50		 push	 eax
  0006d	51		 push	 ecx
  0006e	e8 00 00 00 00	 call	 ??$_Deallocate@$07$0A@@std@@YAXPAXI@Z ; std::_Deallocate<8,0>
; File C:\Program Files (x86)\Microsoft Visual Studio\2019\Community\VC\Tools\MSVC\14.28.29333\include\vector

; 1698 :             _Myfirst = pointer();

  00073	c7 47 04 00 00
	00 00		 mov	 DWORD PTR [edi+4], 0
; File C:\Program Files (x86)\Microsoft Visual Studio\2019\Community\VC\Tools\MSVC\14.28.29333\include\xmemory

; 810  :         _Deallocate<_New_alignof<_Ty>>(_Ptr, sizeof(_Ty) * _Count);

  0007a	83 c4 08	 add	 esp, 8
; File C:\Program Files (x86)\Microsoft Visual Studio\2019\Community\VC\Tools\MSVC\14.28.29333\include\vector

; 1699 :             _Mylast  = pointer();

  0007d	c7 47 08 00 00
	00 00		 mov	 DWORD PTR [edi+8], 0

; 1700 :             _Myend   = pointer();

  00084	c7 47 0c 00 00
	00 00		 mov	 DWORD PTR [edi+12], 0
$LN34@CDynamicPo:
  0008b	5f		 pop	 edi
; File D:\Metin2 Server Files\mainline\SRC_2014\Metin2Client\eterLib\Pool.h

; 142  : 		}

  0008c	5e		 pop	 esi
  0008d	5b		 pop	 ebx
  0008e	c3		 ret	 0
??1?$CDynamicPoolEx@VCAirResistanceDecorator@NEffectUpdateDecorator@@@@UAE@XZ ENDP ; CDynamicPoolEx<NEffectUpdateDecorator::CAirResistanceDecorator>::~CDynamicPoolEx<NEffectUpdateDecorator::CAirResistanceDecorator>
_TEXT	ENDS
; Function compile flags: /Ogtp
;	COMDAT ??_G?$CDynamicPoolEx@VCGravityDecorator@NEffectUpdateDecorator@@@@UAEPAXI@Z
_TEXT	SEGMENT
___flags$ = 8						; size = 4
??_G?$CDynamicPoolEx@VCGravityDecorator@NEffectUpdateDecorator@@@@UAEPAXI@Z PROC ; CDynamicPoolEx<NEffectUpdateDecorator::CGravityDecorator>::`scalar deleting destructor', COMDAT
; _this$ = ecx
  00000	55		 push	 ebp
  00001	8b ec		 mov	 ebp, esp
  00003	56		 push	 esi
  00004	8b f1		 mov	 esi, ecx
  00006	e8 00 00 00 00	 call	 ??1?$CDynamicPoolEx@VCGravityDecorator@NEffectUpdateDecorator@@@@UAE@XZ ; CDynamicPoolEx<NEffectUpdateDecorator::CGravityDecorator>::~CDynamicPoolEx<NEffectUpdateDecorator::CGravityDecorator>
  0000b	f6 45 08 01	 test	 BYTE PTR ___flags$[ebp], 1
  0000f	74 0b		 je	 SHORT $LN4@scalar
  00011	6a 24		 push	 36			; 00000024H
  00013	56		 push	 esi
  00014	e8 00 00 00 00	 call	 ??3@YAXPAXI@Z		; operator delete
  00019	83 c4 08	 add	 esp, 8
$LN4@scalar:
  0001c	8b c6		 mov	 eax, esi
  0001e	5e		 pop	 esi
  0001f	5d		 pop	 ebp
  00020	c2 04 00	 ret	 4
??_G?$CDynamicPoolEx@VCGravityDecorator@NEffectUpdateDecorator@@@@UAEPAXI@Z ENDP ; CDynamicPoolEx<NEffectUpdateDecorator::CGravityDecorator>::`scalar deleting destructor'
_TEXT	ENDS
; Function compile flags: /Ogtp
; File D:\Metin2 Server Files\mainline\SRC_2014\Metin2Client\eterLib\Pool.h
;	COMDAT ?Delete@?$CDynamicPoolEx@VCGravityDecorator@NEffectUpdateDecorator@@@@KAXPAVCGravityDecorator@NEffectUpdateDecorator@@@Z
_TEXT	SEGMENT
_pkData$ = 8						; size = 4
?Delete@?$CDynamicPoolEx@VCGravityDecorator@NEffectUpdateDecorator@@@@KAXPAVCGravityDecorator@NEffectUpdateDecorator@@@Z PROC ; CDynamicPoolEx<NEffectUpdateDecorator::CGravityDecorator>::Delete, COMDAT

; 224  : 			::operator delete(pkData);

  00000	e9 00 00 00 00	 jmp	 ??3@YAXPAX@Z		; operator delete
?Delete@?$CDynamicPoolEx@VCGravityDecorator@NEffectUpdateDecorator@@@@KAXPAVCGravityDecorator@NEffectUpdateDecorator@@@Z ENDP ; CDynamicPoolEx<NEffectUpdateDecorator::CGravityDecorator>::Delete
_TEXT	ENDS
; Function compile flags: /Ogtp
; File D:\Metin2 Server Files\mainline\SRC_2014\Metin2Client\eterLib\Pool.h
; File C:\Program Files (x86)\Microsoft Visual Studio\2019\Community\VC\Tools\MSVC\14.28.29333\include\vector
; File C:\Program Files (x86)\Microsoft Visual Studio\2019\Community\VC\Tools\MSVC\14.28.29333\include\algorithm
; File D:\Metin2 Server Files\mainline\SRC_2014\Metin2Client\eterLib\Pool.h
; File C:\Program Files (x86)\Microsoft Visual Studio\2019\Community\VC\Tools\MSVC\14.28.29333\include\algorithm
; File D:\Metin2 Server Files\mainline\SRC_2014\Metin2Client\eterLib\Pool.h
; File C:\Program Files (x86)\Microsoft Visual Studio\2019\Community\VC\Tools\MSVC\14.28.29333\include\algorithm
; File D:\Metin2 Server Files\mainline\SRC_2014\Metin2Client\eterLib\Pool.h
; File C:\Program Files (x86)\Microsoft Visual Studio\2019\Community\VC\Tools\MSVC\14.28.29333\include\vector
; File C:\Program Files (x86)\Microsoft Visual Studio\2019\Community\VC\Tools\MSVC\14.28.29333\include\xmemory
; File C:\Program Files (x86)\Microsoft Visual Studio\2019\Community\VC\Tools\MSVC\14.28.29333\include\vector
; File C:\Program Files (x86)\Microsoft Visual Studio\2019\Community\VC\Tools\MSVC\14.28.29333\include\xmemory
; File C:\Program Files (x86)\Microsoft Visual Studio\2019\Community\VC\Tools\MSVC\14.28.29333\include\vector
; File C:\Program Files (x86)\Microsoft Visual Studio\2019\Community\VC\Tools\MSVC\14.28.29333\include\xmemory
; File C:\Program Files (x86)\Microsoft Visual Studio\2019\Community\VC\Tools\MSVC\14.28.29333\include\vector
; File C:\Program Files (x86)\Microsoft Visual Studio\2019\Community\VC\Tools\MSVC\14.28.29333\include\xmemory
; File C:\Program Files (x86)\Microsoft Visual Studio\2019\Community\VC\Tools\MSVC\14.28.29333\include\vector
; File D:\Metin2 Server Files\mainline\SRC_2014\Metin2Client\eterLib\Pool.h
;	COMDAT ??1?$CDynamicPoolEx@VCGravityDecorator@NEffectUpdateDecorator@@@@UAE@XZ
_TEXT	SEGMENT
??1?$CDynamicPoolEx@VCGravityDecorator@NEffectUpdateDecorator@@@@UAE@XZ PROC ; CDynamicPoolEx<NEffectUpdateDecorator::CGravityDecorator>::~CDynamicPoolEx<NEffectUpdateDecorator::CGravityDecorator>, COMDAT
; _this$ = ecx

; 132  : 		{

  00000	53		 push	 ebx
  00001	56		 push	 esi
  00002	57		 push	 edi
  00003	8b f9		 mov	 edi, ecx
  00005	c7 07 00 00 00
	00		 mov	 DWORD PTR [edi], OFFSET ??_7?$CDynamicPoolEx@VCGravityDecorator@NEffectUpdateDecorator@@@@6B@
; File C:\Program Files (x86)\Microsoft Visual Studio\2019\Community\VC\Tools\MSVC\14.28.29333\include\vector

; 42   :     _Vector_const_iterator(_Tptr _Parg, const _Container_base* _Pvector) noexcept : _Ptr(_Parg) {

  0000b	8b 5f 08	 mov	 ebx, DWORD PTR [edi+8]
  0000e	8b 77 04	 mov	 esi, DWORD PTR [edi+4]
; File C:\Program Files (x86)\Microsoft Visual Studio\2019\Community\VC\Tools\MSVC\14.28.29333\include\algorithm

; 307  :     for (; _UFirst != _ULast; ++_UFirst) {

  00011	3b f3		 cmp	 esi, ebx
  00013	74 14		 je	 SHORT $LN19@CDynamicPo
$LL20@CDynamicPo:
; File D:\Metin2 Server Files\mainline\SRC_2014\Metin2Client\eterLib\Pool.h

; 224  : 			::operator delete(pkData);

  00015	ff 36		 push	 DWORD PTR [esi]
  00017	e8 00 00 00 00	 call	 ??3@YAXPAX@Z		; operator delete
; File C:\Program Files (x86)\Microsoft Visual Studio\2019\Community\VC\Tools\MSVC\14.28.29333\include\algorithm

; 307  :     for (; _UFirst != _ULast; ++_UFirst) {

  0001c	83 c6 04	 add	 esi, 4
; File D:\Metin2 Server Files\mainline\SRC_2014\Metin2Client\eterLib\Pool.h

; 224  : 			::operator delete(pkData);

  0001f	83 c4 04	 add	 esp, 4
; File C:\Program Files (x86)\Microsoft Visual Studio\2019\Community\VC\Tools\MSVC\14.28.29333\include\algorithm

; 307  :     for (; _UFirst != _ULast; ++_UFirst) {

  00022	3b f3		 cmp	 esi, ebx
  00024	75 ef		 jne	 SHORT $LL20@CDynamicPo
  00026	8b 77 04	 mov	 esi, DWORD PTR [edi+4]
$LN19@CDynamicPo:
; File D:\Metin2 Server Files\mainline\SRC_2014\Metin2Client\eterLib\Pool.h

; 162  : 			m_kVct_pkFree.clear();

  00029	8b 4f 10	 mov	 ecx, DWORD PTR [edi+16]
  0002c	89 77 08	 mov	 DWORD PTR [edi+8], esi
  0002f	89 4f 14	 mov	 DWORD PTR [edi+20], ecx
; File C:\Program Files (x86)\Microsoft Visual Studio\2019\Community\VC\Tools\MSVC\14.28.29333\include\vector

; 1694 :         if (_Myfirst) { // destroy and deallocate old array

  00032	85 c9		 test	 ecx, ecx
  00034	74 27		 je	 SHORT $LN27@CDynamicPo

; 1695 :             _Destroy(_Myfirst, _Mylast);
; 1696 :             _Getal().deallocate(_Myfirst, static_cast<size_type>(_Myend - _Myfirst));

  00036	8b 47 18	 mov	 eax, DWORD PTR [edi+24]
  00039	2b c1		 sub	 eax, ecx
; File C:\Program Files (x86)\Microsoft Visual Studio\2019\Community\VC\Tools\MSVC\14.28.29333\include\xmemory

; 810  :         _Deallocate<_New_alignof<_Ty>>(_Ptr, sizeof(_Ty) * _Count);

  0003b	83 e0 fc	 and	 eax, -4			; fffffffcH
  0003e	50		 push	 eax
  0003f	51		 push	 ecx
  00040	e8 00 00 00 00	 call	 ??$_Deallocate@$07$0A@@std@@YAXPAXI@Z ; std::_Deallocate<8,0>
; File C:\Program Files (x86)\Microsoft Visual Studio\2019\Community\VC\Tools\MSVC\14.28.29333\include\vector

; 1698 :             _Myfirst = pointer();

  00045	c7 47 10 00 00
	00 00		 mov	 DWORD PTR [edi+16], 0
; File C:\Program Files (x86)\Microsoft Visual Studio\2019\Community\VC\Tools\MSVC\14.28.29333\include\xmemory

; 810  :         _Deallocate<_New_alignof<_Ty>>(_Ptr, sizeof(_Ty) * _Count);

  0004c	83 c4 08	 add	 esp, 8
; File C:\Program Files (x86)\Microsoft Visual Studio\2019\Community\VC\Tools\MSVC\14.28.29333\include\vector

; 1699 :             _Mylast  = pointer();

  0004f	c7 47 14 00 00
	00 00		 mov	 DWORD PTR [edi+20], 0

; 1700 :             _Myend   = pointer();

  00056	c7 47 18 00 00
	00 00		 mov	 DWORD PTR [edi+24], 0
$LN27@CDynamicPo:

; 1694 :         if (_Myfirst) { // destroy and deallocate old array

  0005d	8b 4f 04	 mov	 ecx, DWORD PTR [edi+4]
  00060	85 c9		 test	 ecx, ecx
  00062	74 27		 je	 SHORT $LN34@CDynamicPo

; 1695 :             _Destroy(_Myfirst, _Mylast);
; 1696 :             _Getal().deallocate(_Myfirst, static_cast<size_type>(_Myend - _Myfirst));

  00064	8b 47 0c	 mov	 eax, DWORD PTR [edi+12]
  00067	2b c1		 sub	 eax, ecx
; File C:\Program Files (x86)\Microsoft Visual Studio\2019\Community\VC\Tools\MSVC\14.28.29333\include\xmemory

; 810  :         _Deallocate<_New_alignof<_Ty>>(_Ptr, sizeof(_Ty) * _Count);

  00069	83 e0 fc	 and	 eax, -4			; fffffffcH
  0006c	50		 push	 eax
  0006d	51		 push	 ecx
  0006e	e8 00 00 00 00	 call	 ??$_Deallocate@$07$0A@@std@@YAXPAXI@Z ; std::_Deallocate<8,0>
; File C:\Program Files (x86)\Microsoft Visual Studio\2019\Community\VC\Tools\MSVC\14.28.29333\include\vector

; 1698 :             _Myfirst = pointer();

  00073	c7 47 04 00 00
	00 00		 mov	 DWORD PTR [edi+4], 0
; File C:\Program Files (x86)\Microsoft Visual Studio\2019\Community\VC\Tools\MSVC\14.28.29333\include\xmemory

; 810  :         _Deallocate<_New_alignof<_Ty>>(_Ptr, sizeof(_Ty) * _Count);

  0007a	83 c4 08	 add	 esp, 8
; File C:\Program Files (x86)\Microsoft Visual Studio\2019\Community\VC\Tools\MSVC\14.28.29333\include\vector

; 1699 :             _Mylast  = pointer();

  0007d	c7 47 08 00 00
	00 00		 mov	 DWORD PTR [edi+8], 0

; 1700 :             _Myend   = pointer();

  00084	c7 47 0c 00 00
	00 00		 mov	 DWORD PTR [edi+12], 0
$LN34@CDynamicPo:
  0008b	5f		 pop	 edi
; File D:\Metin2 Server Files\mainline\SRC_2014\Metin2Client\eterLib\Pool.h

; 142  : 		}

  0008c	5e		 pop	 esi
  0008d	5b		 pop	 ebx
  0008e	c3		 ret	 0
??1?$CDynamicPoolEx@VCGravityDecorator@NEffectUpdateDecorator@@@@UAE@XZ ENDP ; CDynamicPoolEx<NEffectUpdateDecorator::CGravityDecorator>::~CDynamicPoolEx<NEffectUpdateDecorator::CGravityDecorator>
_TEXT	ENDS
; Function compile flags: /Ogtp
;	COMDAT ??_G?$CDynamicPoolEx@VCRotationDecorator@NEffectUpdateDecorator@@@@UAEPAXI@Z
_TEXT	SEGMENT
___flags$ = 8						; size = 4
??_G?$CDynamicPoolEx@VCRotationDecorator@NEffectUpdateDecorator@@@@UAEPAXI@Z PROC ; CDynamicPoolEx<NEffectUpdateDecorator::CRotationDecorator>::`scalar deleting destructor', COMDAT
; _this$ = ecx
  00000	55		 push	 ebp
  00001	8b ec		 mov	 ebp, esp
  00003	56		 push	 esi
  00004	8b f1		 mov	 esi, ecx
  00006	e8 00 00 00 00	 call	 ??1?$CDynamicPoolEx@VCRotationDecorator@NEffectUpdateDecorator@@@@UAE@XZ ; CDynamicPoolEx<NEffectUpdateDecorator::CRotationDecorator>::~CDynamicPoolEx<NEffectUpdateDecorator::CRotationDecorator>
  0000b	f6 45 08 01	 test	 BYTE PTR ___flags$[ebp], 1
  0000f	74 0b		 je	 SHORT $LN4@scalar
  00011	6a 24		 push	 36			; 00000024H
  00013	56		 push	 esi
  00014	e8 00 00 00 00	 call	 ??3@YAXPAXI@Z		; operator delete
  00019	83 c4 08	 add	 esp, 8
$LN4@scalar:
  0001c	8b c6		 mov	 eax, esi
  0001e	5e		 pop	 esi
  0001f	5d		 pop	 ebp
  00020	c2 04 00	 ret	 4
??_G?$CDynamicPoolEx@VCRotationDecorator@NEffectUpdateDecorator@@@@UAEPAXI@Z ENDP ; CDynamicPoolEx<NEffectUpdateDecorator::CRotationDecorator>::`scalar deleting destructor'
_TEXT	ENDS
; Function compile flags: /Ogtp
; File D:\Metin2 Server Files\mainline\SRC_2014\Metin2Client\eterLib\Pool.h
;	COMDAT ?Delete@?$CDynamicPoolEx@VCRotationDecorator@NEffectUpdateDecorator@@@@KAXPAVCRotationDecorator@NEffectUpdateDecorator@@@Z
_TEXT	SEGMENT
_pkData$ = 8						; size = 4
?Delete@?$CDynamicPoolEx@VCRotationDecorator@NEffectUpdateDecorator@@@@KAXPAVCRotationDecorator@NEffectUpdateDecorator@@@Z PROC ; CDynamicPoolEx<NEffectUpdateDecorator::CRotationDecorator>::Delete, COMDAT

; 224  : 			::operator delete(pkData);

  00000	e9 00 00 00 00	 jmp	 ??3@YAXPAX@Z		; operator delete
?Delete@?$CDynamicPoolEx@VCRotationDecorator@NEffectUpdateDecorator@@@@KAXPAVCRotationDecorator@NEffectUpdateDecorator@@@Z ENDP ; CDynamicPoolEx<NEffectUpdateDecorator::CRotationDecorator>::Delete
_TEXT	ENDS
; Function compile flags: /Ogtp
; File D:\Metin2 Server Files\mainline\SRC_2014\Metin2Client\eterLib\Pool.h
; File C:\Program Files (x86)\Microsoft Visual Studio\2019\Community\VC\Tools\MSVC\14.28.29333\include\vector
; File C:\Program Files (x86)\Microsoft Visual Studio\2019\Community\VC\Tools\MSVC\14.28.29333\include\algorithm
; File D:\Metin2 Server Files\mainline\SRC_2014\Metin2Client\eterLib\Pool.h
; File C:\Program Files (x86)\Microsoft Visual Studio\2019\Community\VC\Tools\MSVC\14.28.29333\include\algorithm
; File D:\Metin2 Server Files\mainline\SRC_2014\Metin2Client\eterLib\Pool.h
; File C:\Program Files (x86)\Microsoft Visual Studio\2019\Community\VC\Tools\MSVC\14.28.29333\include\algorithm
; File D:\Metin2 Server Files\mainline\SRC_2014\Metin2Client\eterLib\Pool.h
; File C:\Program Files (x86)\Microsoft Visual Studio\2019\Community\VC\Tools\MSVC\14.28.29333\include\vector
; File C:\Program Files (x86)\Microsoft Visual Studio\2019\Community\VC\Tools\MSVC\14.28.29333\include\xmemory
; File C:\Program Files (x86)\Microsoft Visual Studio\2019\Community\VC\Tools\MSVC\14.28.29333\include\vector
; File C:\Program Files (x86)\Microsoft Visual Studio\2019\Community\VC\Tools\MSVC\14.28.29333\include\xmemory
; File C:\Program Files (x86)\Microsoft Visual Studio\2019\Community\VC\Tools\MSVC\14.28.29333\include\vector
; File C:\Program Files (x86)\Microsoft Visual Studio\2019\Community\VC\Tools\MSVC\14.28.29333\include\xmemory
; File C:\Program Files (x86)\Microsoft Visual Studio\2019\Community\VC\Tools\MSVC\14.28.29333\include\vector
; File C:\Program Files (x86)\Microsoft Visual Studio\2019\Community\VC\Tools\MSVC\14.28.29333\include\xmemory
; File C:\Program Files (x86)\Microsoft Visual Studio\2019\Community\VC\Tools\MSVC\14.28.29333\include\vector
; File D:\Metin2 Server Files\mainline\SRC_2014\Metin2Client\eterLib\Pool.h
;	COMDAT ??1?$CDynamicPoolEx@VCRotationDecorator@NEffectUpdateDecorator@@@@UAE@XZ
_TEXT	SEGMENT
??1?$CDynamicPoolEx@VCRotationDecorator@NEffectUpdateDecorator@@@@UAE@XZ PROC ; CDynamicPoolEx<NEffectUpdateDecorator::CRotationDecorator>::~CDynamicPoolEx<NEffectUpdateDecorator::CRotationDecorator>, COMDAT
; _this$ = ecx

; 132  : 		{

  00000	53		 push	 ebx
  00001	56		 push	 esi
  00002	57		 push	 edi
  00003	8b f9		 mov	 edi, ecx
  00005	c7 07 00 00 00
	00		 mov	 DWORD PTR [edi], OFFSET ??_7?$CDynamicPoolEx@VCRotationDecorator@NEffectUpdateDecorator@@@@6B@
; File C:\Program Files (x86)\Microsoft Visual Studio\2019\Community\VC\Tools\MSVC\14.28.29333\include\vector

; 42   :     _Vector_const_iterator(_Tptr _Parg, const _Container_base* _Pvector) noexcept : _Ptr(_Parg) {

  0000b	8b 5f 08	 mov	 ebx, DWORD PTR [edi+8]
  0000e	8b 77 04	 mov	 esi, DWORD PTR [edi+4]
; File C:\Program Files (x86)\Microsoft Visual Studio\2019\Community\VC\Tools\MSVC\14.28.29333\include\algorithm

; 307  :     for (; _UFirst != _ULast; ++_UFirst) {

  00011	3b f3		 cmp	 esi, ebx
  00013	74 14		 je	 SHORT $LN19@CDynamicPo
$LL20@CDynamicPo:
; File D:\Metin2 Server Files\mainline\SRC_2014\Metin2Client\eterLib\Pool.h

; 224  : 			::operator delete(pkData);

  00015	ff 36		 push	 DWORD PTR [esi]
  00017	e8 00 00 00 00	 call	 ??3@YAXPAX@Z		; operator delete
; File C:\Program Files (x86)\Microsoft Visual Studio\2019\Community\VC\Tools\MSVC\14.28.29333\include\algorithm

; 307  :     for (; _UFirst != _ULast; ++_UFirst) {

  0001c	83 c6 04	 add	 esi, 4
; File D:\Metin2 Server Files\mainline\SRC_2014\Metin2Client\eterLib\Pool.h

; 224  : 			::operator delete(pkData);

  0001f	83 c4 04	 add	 esp, 4
; File C:\Program Files (x86)\Microsoft Visual Studio\2019\Community\VC\Tools\MSVC\14.28.29333\include\algorithm

; 307  :     for (; _UFirst != _ULast; ++_UFirst) {

  00022	3b f3		 cmp	 esi, ebx
  00024	75 ef		 jne	 SHORT $LL20@CDynamicPo
  00026	8b 77 04	 mov	 esi, DWORD PTR [edi+4]
$LN19@CDynamicPo:
; File D:\Metin2 Server Files\mainline\SRC_2014\Metin2Client\eterLib\Pool.h

; 162  : 			m_kVct_pkFree.clear();

  00029	8b 4f 10	 mov	 ecx, DWORD PTR [edi+16]
  0002c	89 77 08	 mov	 DWORD PTR [edi+8], esi
  0002f	89 4f 14	 mov	 DWORD PTR [edi+20], ecx
; File C:\Program Files (x86)\Microsoft Visual Studio\2019\Community\VC\Tools\MSVC\14.28.29333\include\vector

; 1694 :         if (_Myfirst) { // destroy and deallocate old array

  00032	85 c9		 test	 ecx, ecx
  00034	74 27		 je	 SHORT $LN27@CDynamicPo

; 1695 :             _Destroy(_Myfirst, _Mylast);
; 1696 :             _Getal().deallocate(_Myfirst, static_cast<size_type>(_Myend - _Myfirst));

  00036	8b 47 18	 mov	 eax, DWORD PTR [edi+24]
  00039	2b c1		 sub	 eax, ecx
; File C:\Program Files (x86)\Microsoft Visual Studio\2019\Community\VC\Tools\MSVC\14.28.29333\include\xmemory

; 810  :         _Deallocate<_New_alignof<_Ty>>(_Ptr, sizeof(_Ty) * _Count);

  0003b	83 e0 fc	 and	 eax, -4			; fffffffcH
  0003e	50		 push	 eax
  0003f	51		 push	 ecx
  00040	e8 00 00 00 00	 call	 ??$_Deallocate@$07$0A@@std@@YAXPAXI@Z ; std::_Deallocate<8,0>
; File C:\Program Files (x86)\Microsoft Visual Studio\2019\Community\VC\Tools\MSVC\14.28.29333\include\vector

; 1698 :             _Myfirst = pointer();

  00045	c7 47 10 00 00
	00 00		 mov	 DWORD PTR [edi+16], 0
; File C:\Program Files (x86)\Microsoft Visual Studio\2019\Community\VC\Tools\MSVC\14.28.29333\include\xmemory

; 810  :         _Deallocate<_New_alignof<_Ty>>(_Ptr, sizeof(_Ty) * _Count);

  0004c	83 c4 08	 add	 esp, 8
; File C:\Program Files (x86)\Microsoft Visual Studio\2019\Community\VC\Tools\MSVC\14.28.29333\include\vector

; 1699 :             _Mylast  = pointer();

  0004f	c7 47 14 00 00
	00 00		 mov	 DWORD PTR [edi+20], 0

; 1700 :             _Myend   = pointer();

  00056	c7 47 18 00 00
	00 00		 mov	 DWORD PTR [edi+24], 0
$LN27@CDynamicPo:

; 1694 :         if (_Myfirst) { // destroy and deallocate old array

  0005d	8b 4f 04	 mov	 ecx, DWORD PTR [edi+4]
  00060	85 c9		 test	 ecx, ecx
  00062	74 27		 je	 SHORT $LN34@CDynamicPo

; 1695 :             _Destroy(_Myfirst, _Mylast);
; 1696 :             _Getal().deallocate(_Myfirst, static_cast<size_type>(_Myend - _Myfirst));

  00064	8b 47 0c	 mov	 eax, DWORD PTR [edi+12]
  00067	2b c1		 sub	 eax, ecx
; File C:\Program Files (x86)\Microsoft Visual Studio\2019\Community\VC\Tools\MSVC\14.28.29333\include\xmemory

; 810  :         _Deallocate<_New_alignof<_Ty>>(_Ptr, sizeof(_Ty) * _Count);

  00069	83 e0 fc	 and	 eax, -4			; fffffffcH
  0006c	50		 push	 eax
  0006d	51		 push	 ecx
  0006e	e8 00 00 00 00	 call	 ??$_Deallocate@$07$0A@@std@@YAXPAXI@Z ; std::_Deallocate<8,0>
; File C:\Program Files (x86)\Microsoft Visual Studio\2019\Community\VC\Tools\MSVC\14.28.29333\include\vector

; 1698 :             _Myfirst = pointer();

  00073	c7 47 04 00 00
	00 00		 mov	 DWORD PTR [edi+4], 0
; File C:\Program Files (x86)\Microsoft Visual Studio\2019\Community\VC\Tools\MSVC\14.28.29333\include\xmemory

; 810  :         _Deallocate<_New_alignof<_Ty>>(_Ptr, sizeof(_Ty) * _Count);

  0007a	83 c4 08	 add	 esp, 8
; File C:\Program Files (x86)\Microsoft Visual Studio\2019\Community\VC\Tools\MSVC\14.28.29333\include\vector

; 1699 :             _Mylast  = pointer();

  0007d	c7 47 08 00 00
	00 00		 mov	 DWORD PTR [edi+8], 0

; 1700 :             _Myend   = pointer();

  00084	c7 47 0c 00 00
	00 00		 mov	 DWORD PTR [edi+12], 0
$LN34@CDynamicPo:
  0008b	5f		 pop	 edi
; File D:\Metin2 Server Files\mainline\SRC_2014\Metin2Client\eterLib\Pool.h

; 142  : 		}

  0008c	5e		 pop	 esi
  0008d	5b		 pop	 ebx
  0008e	c3		 ret	 0
??1?$CDynamicPoolEx@VCRotationDecorator@NEffectUpdateDecorator@@@@UAE@XZ ENDP ; CDynamicPoolEx<NEffectUpdateDecorator::CRotationDecorator>::~CDynamicPoolEx<NEffectUpdateDecorator::CRotationDecorator>
_TEXT	ENDS
; Function compile flags: /Ogtp
; File D:\Metin2 Server Files\mainline\SRC_2014\Metin2Client\UserInterface\PythonPlayerInput.cpp
;	COMDAT ?__GetDeadTargetInstancePtr@CPythonPlayer@@IAEPAVCInstanceBase@@XZ
_TEXT	SEGMENT
?__GetDeadTargetInstancePtr@CPythonPlayer@@IAEPAVCInstanceBase@@XZ PROC ; CPythonPlayer::__GetDeadTargetInstancePtr, COMDAT
; _this$ = ecx

; 205  : {

  00000	56		 push	 esi
  00001	8b f1		 mov	 esi, ecx

; 206  : 	if (!__IsTarget())

  00003	e8 00 00 00 00	 call	 ?__IsTarget@CPythonPlayer@@IAE_NXZ ; CPythonPlayer::__IsTarget
  00008	84 c0		 test	 al, al
  0000a	74 1c		 je	 SHORT $LN6@GetDeadTar

; 207  : 		return NULL;
; 208  : 
; 209  : 	CInstanceBase * pkInstTarget = __GetTargetActorPtr();

  0000c	8b ce		 mov	 ecx, esi
  0000e	e8 00 00 00 00	 call	 ?__GetTargetActorPtr@CPythonPlayer@@IAEPAVCInstanceBase@@XZ ; CPythonPlayer::__GetTargetActorPtr
  00013	8b f0		 mov	 esi, eax

; 210  : 
; 211  : 	if (!pkInstTarget)

  00015	85 f6		 test	 esi, esi
  00017	74 0f		 je	 SHORT $LN6@GetDeadTar

; 212  : 		return NULL;
; 213  : 
; 214  : 	if (!pkInstTarget->IsDead())

  00019	8b ce		 mov	 ecx, esi
  0001b	e8 00 00 00 00	 call	 ?IsDead@CInstanceBase@@QAEHXZ ; CInstanceBase::IsDead
  00020	85 c0		 test	 eax, eax
  00022	74 04		 je	 SHORT $LN6@GetDeadTar

; 216  : 
; 217  : 	return pkInstTarget;

  00024	8b c6		 mov	 eax, esi
  00026	5e		 pop	 esi

; 218  : }

  00027	c3		 ret	 0
$LN6@GetDeadTar:

; 215  : 		return NULL;

  00028	33 c0		 xor	 eax, eax
  0002a	5e		 pop	 esi

; 218  : }

  0002b	c3		 ret	 0
?__GetDeadTargetInstancePtr@CPythonPlayer@@IAEPAVCInstanceBase@@XZ ENDP ; CPythonPlayer::__GetDeadTargetInstancePtr
_TEXT	ENDS
; Function compile flags: /Ogtp
; File D:\Metin2 Server Files\mainline\SRC_2014\Metin2Client\UserInterface\PythonPlayerInput.cpp
;	COMDAT ?__GetAliveTargetInstancePtr@CPythonPlayer@@IAEPAVCInstanceBase@@XZ
_TEXT	SEGMENT
?__GetAliveTargetInstancePtr@CPythonPlayer@@IAEPAVCInstanceBase@@XZ PROC ; CPythonPlayer::__GetAliveTargetInstancePtr, COMDAT
; _this$ = ecx

; 221  : {

  00000	56		 push	 esi
  00001	8b f1		 mov	 esi, ecx

; 222  : 	if (!__IsTarget())

  00003	e8 00 00 00 00	 call	 ?__IsTarget@CPythonPlayer@@IAE_NXZ ; CPythonPlayer::__IsTarget
  00008	84 c0		 test	 al, al
  0000a	74 1c		 je	 SHORT $LN6@GetAliveTa

; 223  : 		return NULL;
; 224  : 
; 225  : 	CInstanceBase * pkInstTarget = __GetTargetActorPtr();

  0000c	8b ce		 mov	 ecx, esi
  0000e	e8 00 00 00 00	 call	 ?__GetTargetActorPtr@CPythonPlayer@@IAEPAVCInstanceBase@@XZ ; CPythonPlayer::__GetTargetActorPtr
  00013	8b f0		 mov	 esi, eax

; 226  : 
; 227  : 	if (!pkInstTarget)

  00015	85 f6		 test	 esi, esi
  00017	74 0f		 je	 SHORT $LN6@GetAliveTa

; 228  : 		return NULL;
; 229  : 
; 230  : 	if (pkInstTarget->IsDead())

  00019	8b ce		 mov	 ecx, esi
  0001b	e8 00 00 00 00	 call	 ?IsDead@CInstanceBase@@QAEHXZ ; CInstanceBase::IsDead
  00020	85 c0		 test	 eax, eax
  00022	75 04		 jne	 SHORT $LN6@GetAliveTa

; 232  : 
; 233  : 	return pkInstTarget;

  00024	8b c6		 mov	 eax, esi
  00026	5e		 pop	 esi

; 234  : }

  00027	c3		 ret	 0
$LN6@GetAliveTa:

; 231  : 		return NULL;

  00028	33 c0		 xor	 eax, eax
  0002a	5e		 pop	 esi

; 234  : }

  0002b	c3		 ret	 0
?__GetAliveTargetInstancePtr@CPythonPlayer@@IAEPAVCInstanceBase@@XZ ENDP ; CPythonPlayer::__GetAliveTargetInstancePtr
_TEXT	ENDS
; Function compile flags: /Ogtp
; File D:\Metin2 Server Files\mainline\SRC_2014\Metin2Client\UserInterface\PythonPlayerInput.cpp
;	COMDAT ?__GetSkillTargetInstancePtr@CPythonPlayer@@IAEPAVCInstanceBase@@AAUSSkillData@CPythonSkill@@@Z
_TEXT	SEGMENT
_rkSkillData$ = 8					; size = 4
?__GetSkillTargetInstancePtr@CPythonPlayer@@IAEPAVCInstanceBase@@AAUSSkillData@CPythonSkill@@@Z PROC ; CPythonPlayer::__GetSkillTargetInstancePtr, COMDAT
; _this$ = ecx

; 197  : {

  00000	55		 push	 ebp
  00001	8b ec		 mov	 ebp, esp
  00003	56		 push	 esi
  00004	8b f1		 mov	 esi, ecx

; 198  : 	if (rkSkillData.IsNeedCorpse())

  00006	8b 4d 08	 mov	 ecx, DWORD PTR _rkSkillData$[ebp]
  00009	e8 00 00 00 00	 call	 ?IsNeedCorpse@SSkillData@CPythonSkill@@QAEHXZ ; CPythonSkill::SSkillData::IsNeedCorpse
  0000e	8b ce		 mov	 ecx, esi
  00010	85 c0		 test	 eax, eax
  00012	74 0a		 je	 SHORT $LN2@GetSkillTa

; 199  : 		return __GetDeadTargetInstancePtr();

  00014	e8 00 00 00 00	 call	 ?__GetDeadTargetInstancePtr@CPythonPlayer@@IAEPAVCInstanceBase@@XZ ; CPythonPlayer::__GetDeadTargetInstancePtr
  00019	5e		 pop	 esi

; 202  : }

  0001a	5d		 pop	 ebp
  0001b	c2 04 00	 ret	 4
$LN2@GetSkillTa:

; 200  : 
; 201  : 	return __GetAliveTargetInstancePtr();

  0001e	e8 00 00 00 00	 call	 ?__GetAliveTargetInstancePtr@CPythonPlayer@@IAEPAVCInstanceBase@@XZ ; CPythonPlayer::__GetAliveTargetInstancePtr
  00023	5e		 pop	 esi

; 202  : }

  00024	5d		 pop	 ebp
  00025	c2 04 00	 ret	 4
?__GetSkillTargetInstancePtr@CPythonPlayer@@IAEPAVCInstanceBase@@AAUSSkillData@CPythonSkill@@@Z ENDP ; CPythonPlayer::__GetSkillTargetInstancePtr
_TEXT	ENDS
; Function compile flags: /Ogtp
; File D:\Metin2 Server Files\mainline\SRC_2014\Metin2Client\UserInterface\PythonPlayerInput.cpp
;	COMDAT ?__ChangeTargetToPickedInstance@CPythonPlayer@@IAE_NXZ
_TEXT	SEGMENT
_dwVID$ = -4						; size = 4
?__ChangeTargetToPickedInstance@CPythonPlayer@@IAE_NXZ PROC ; CPythonPlayer::__ChangeTargetToPickedInstance, COMDAT
; _this$ = ecx

; 187  : {

  00000	55		 push	 ebp
  00001	8b ec		 mov	 ebp, esp
  00003	51		 push	 ecx
  00004	56		 push	 esi

; 188  : 	DWORD dwVID;
; 189  : 	if (!CPythonCharacterManager::Instance().OLD_GetPickedInstanceVID(&dwVID))

  00005	8d 45 fc	 lea	 eax, DWORD PTR _dwVID$[ebp]
  00008	8b f1		 mov	 esi, ecx
  0000a	8b 0d 00 00 00
	00		 mov	 ecx, DWORD PTR ?ms_singleton@?$CSingleton@VCPythonCharacterManager@@@@0PAVCPythonCharacterManager@@A ; CSingleton<CPythonCharacterManager>::ms_singleton
  00010	50		 push	 eax
  00011	e8 00 00 00 00	 call	 ?OLD_GetPickedInstanceVID@CPythonCharacterManager@@QAE_NPAK@Z ; CPythonCharacterManager::OLD_GetPickedInstanceVID
  00016	84 c0		 test	 al, al
  00018	75 05		 jne	 SHORT $LN2@ChangeTarg
  0001a	5e		 pop	 esi

; 194  : }

  0001b	8b e5		 mov	 esp, ebp
  0001d	5d		 pop	 ebp
  0001e	c3		 ret	 0
$LN2@ChangeTarg:

; 190  : 		return false;
; 191  : 
; 192  : 	SetTarget(dwVID);

  0001f	8b 46 04	 mov	 eax, DWORD PTR [esi+4]
  00022	8d 4e 04	 lea	 ecx, DWORD PTR [esi+4]
  00025	6a 01		 push	 1
  00027	ff 75 fc	 push	 DWORD PTR _dwVID$[ebp]
  0002a	ff 50 60	 call	 DWORD PTR [eax+96]

; 193  : 	return true;

  0002d	b0 01		 mov	 al, 1
  0002f	5e		 pop	 esi

; 194  : }

  00030	8b e5		 mov	 esp, ebp
  00032	5d		 pop	 ebp
  00033	c3		 ret	 0
?__ChangeTargetToPickedInstance@CPythonPlayer@@IAE_NXZ ENDP ; CPythonPlayer::__ChangeTargetToPickedInstance
_TEXT	ENDS
; Function compile flags: /Ogtp
; File D:\Metin2 Server Files\mainline\SRC_2014\Metin2Client\UserInterface\PythonPlayerInput.cpp
;	COMDAT ?__IsTarget@CPythonPlayer@@IAE_NXZ
_TEXT	SEGMENT
?__IsTarget@CPythonPlayer@@IAE_NXZ PROC			; CPythonPlayer::__IsTarget, COMDAT
; _this$ = ecx

; 63   : 	return 0 != __GetTargetVID();

  00000	e8 00 00 00 00	 call	 ?__GetTargetVID@CPythonPlayer@@IAEKXZ ; CPythonPlayer::__GetTargetVID
  00005	85 c0		 test	 eax, eax
  00007	0f 95 c0	 setne	 al

; 64   : }

  0000a	c3		 ret	 0
?__IsTarget@CPythonPlayer@@IAE_NXZ ENDP			; CPythonPlayer::__IsTarget
_TEXT	ENDS
; Function compile flags: /Ogtp
; File D:\Metin2 Server Files\mainline\SRC_2014\Metin2Client\UserInterface\PythonPlayerInput.cpp
;	COMDAT ?__IsSameTargetVID@CPythonPlayer@@IAE_NK@Z
_TEXT	SEGMENT
_dwVID$ = 8						; size = 4
?__IsSameTargetVID@CPythonPlayer@@IAE_NK@Z PROC		; CPythonPlayer::__IsSameTargetVID, COMDAT
; _this$ = ecx

; 67   : {

  00000	55		 push	 ebp
  00001	8b ec		 mov	 ebp, esp

; 68   : 	return dwVID == __GetTargetVID();

  00003	e8 00 00 00 00	 call	 ?__GetTargetVID@CPythonPlayer@@IAEKXZ ; CPythonPlayer::__GetTargetVID
  00008	39 45 08	 cmp	 DWORD PTR _dwVID$[ebp], eax
  0000b	0f 94 c0	 sete	 al

; 69   : }

  0000e	5d		 pop	 ebp
  0000f	c2 04 00	 ret	 4
?__IsSameTargetVID@CPythonPlayer@@IAE_NK@Z ENDP		; CPythonPlayer::__IsSameTargetVID
_TEXT	ENDS
; Function compile flags: /Ogtp
; File D:\Metin2 Server Files\mainline\SRC_2014\Metin2Client\UserInterface\PythonPlayerInput.cpp
;	COMDAT ?__SetTargetVID@CPythonPlayer@@IAEXK@Z
_TEXT	SEGMENT
_dwVID$ = 8						; size = 4
?__SetTargetVID@CPythonPlayer@@IAEXK@Z PROC		; CPythonPlayer::__SetTargetVID, COMDAT
; _this$ = ecx

; 88   : {

  00000	55		 push	 ebp
  00001	8b ec		 mov	 ebp, esp

; 89   : 	m_dwTargetVID=dwVID;

  00003	8b 45 08	 mov	 eax, DWORD PTR _dwVID$[ebp]
  00006	89 81 ec f7 00
	00		 mov	 DWORD PTR [ecx+63468], eax

; 90   : }

  0000c	5d		 pop	 ebp
  0000d	c2 04 00	 ret	 4
?__SetTargetVID@CPythonPlayer@@IAEXK@Z ENDP		; CPythonPlayer::__SetTargetVID
_TEXT	ENDS
; Function compile flags: /Ogtp
; File D:\Metin2 Server Files\mainline\SRC_2014\Metin2Client\UserInterface\PythonPlayerInput.cpp
;	COMDAT ?__GetTargetVID@CPythonPlayer@@IAEKXZ
_TEXT	SEGMENT
?__GetTargetVID@CPythonPlayer@@IAEKXZ PROC		; CPythonPlayer::__GetTargetVID, COMDAT
; _this$ = ecx

; 73   : 	return m_dwTargetVID;

  00000	8b 81 ec f7 00
	00		 mov	 eax, DWORD PTR [ecx+63468]

; 74   : }

  00006	c3		 ret	 0
?__GetTargetVID@CPythonPlayer@@IAEKXZ ENDP		; CPythonPlayer::__GetTargetVID
_TEXT	ENDS
; Function compile flags: /Ogtp
; File D:\Metin2 Server Files\mainline\SRC_2014\Metin2Client\UserInterface\PythonPlayerInput.cpp
;	COMDAT ?__ClearTarget@CPythonPlayer@@IAEXXZ
_TEXT	SEGMENT
?__ClearTarget@CPythonPlayer@@IAEXXZ PROC		; CPythonPlayer::__ClearTarget, COMDAT
; _this$ = ecx

; 93   : {

  00000	56		 push	 esi
  00001	8b f1		 mov	 esi, ecx

; 94   : 	if (!__IsTarget())

  00003	e8 00 00 00 00	 call	 ?__IsTarget@CPythonPlayer@@IAE_NXZ ; CPythonPlayer::__IsTarget
  00008	84 c0		 test	 al, al
  0000a	74 3f		 je	 SHORT $LN1@ClearTarge

; 95   : 		return;
; 96   : 
; 97   : 	CInstanceBase * pkInstMain = NEW_GetMainActorPtr();

  0000c	8b 46 04	 mov	 eax, DWORD PTR [esi+4]
  0000f	8d 4e 04	 lea	 ecx, DWORD PTR [esi+4]
  00012	ff 90 88 00 00
	00		 call	 DWORD PTR [eax+136]

; 98   : 	if (!pkInstMain)

  00018	85 c0		 test	 eax, eax
  0001a	74 2f		 je	 SHORT $LN1@ClearTarge

; 99   : 		return;
; 100  : 
; 101  : 	pkInstMain->ClearFlyTargetInstance();

  0001c	8b c8		 mov	 ecx, eax
  0001e	e8 00 00 00 00	 call	 ?ClearFlyTargetInstance@CInstanceBase@@QAEXXZ ; CInstanceBase::ClearFlyTargetInstance

; 102  : 
; 103  : 	CInstanceBase * pTargetedInstance = __GetTargetActorPtr();

  00023	8b ce		 mov	 ecx, esi
  00025	e8 00 00 00 00	 call	 ?__GetTargetActorPtr@CPythonPlayer@@IAEPAVCInstanceBase@@XZ ; CPythonPlayer::__GetTargetActorPtr

; 104  : 	if (pTargetedInstance)

  0002a	85 c0		 test	 eax, eax
  0002c	74 07		 je	 SHORT $LN4@ClearTarge

; 105  : 		pTargetedInstance->OnUntargeted();

  0002e	8b c8		 mov	 ecx, eax
  00030	e8 00 00 00 00	 call	 ?OnUntargeted@CInstanceBase@@QAEXXZ ; CInstanceBase::OnUntargeted
$LN4@ClearTarge:

; 106  : 
; 107  : 	__SetTargetVID(0);

  00035	6a 00		 push	 0
  00037	8b ce		 mov	 ecx, esi
  00039	e8 00 00 00 00	 call	 ?__SetTargetVID@CPythonPlayer@@IAEXK@Z ; CPythonPlayer::__SetTargetVID

; 108  : 
; 109  : 	CPythonNetworkStream::Instance().SendTargetPacket(0);

  0003e	8b 0d 00 00 00
	00		 mov	 ecx, DWORD PTR ?ms_singleton@?$CSingleton@VCPythonNetworkStream@@@@0PAVCPythonNetworkStream@@A ; CSingleton<CPythonNetworkStream>::ms_singleton
  00044	6a 00		 push	 0
  00046	e8 00 00 00 00	 call	 ?SendTargetPacket@CPythonNetworkStream@@QAE_NK@Z ; CPythonNetworkStream::SendTargetPacket
$LN1@ClearTarge:

; 110  : }

  0004b	5e		 pop	 esi
  0004c	c3		 ret	 0
?__ClearTarget@CPythonPlayer@@IAEXXZ ENDP		; CPythonPlayer::__ClearTarget
_TEXT	ENDS
; Function compile flags: /Ogtp
; File D:\Metin2 Server Files\mainline\SRC_2014\Metin2Client\UserInterface\PythonPlayerInput.cpp
;	COMDAT ?__GetTargetActorPtr@CPythonPlayer@@IAEPAVCInstanceBase@@XZ
_TEXT	SEGMENT
?__GetTargetActorPtr@CPythonPlayer@@IAEPAVCInstanceBase@@XZ PROC ; CPythonPlayer::__GetTargetActorPtr, COMDAT
; _this$ = ecx

; 83   : {

  00000	56		 push	 esi
  00001	8b f1		 mov	 esi, ecx

; 84   : 	return NEW_FindActorPtr(__GetTargetVID());

  00003	e8 00 00 00 00	 call	 ?__GetTargetVID@CPythonPlayer@@IAEKXZ ; CPythonPlayer::__GetTargetVID
  00008	50		 push	 eax
  00009	8b ce		 mov	 ecx, esi
  0000b	e8 00 00 00 00	 call	 ?NEW_FindActorPtr@CPythonPlayer@@QAEPAVCInstanceBase@@K@Z ; CPythonPlayer::NEW_FindActorPtr
  00010	5e		 pop	 esi

; 85   : }

  00011	c3		 ret	 0
?__GetTargetActorPtr@CPythonPlayer@@IAEPAVCInstanceBase@@XZ ENDP ; CPythonPlayer::__GetTargetActorPtr
_TEXT	ENDS
; Function compile flags: /Ogtp
; File D:\Metin2 Server Files\mainline\SRC_2014\Metin2Client\UserInterface\PythonPlayerInput.cpp
;	COMDAT ?__GetPickableDistance@CPythonPlayer@@IAEKXZ
_TEXT	SEGMENT
?__GetPickableDistance@CPythonPlayer@@IAEKXZ PROC	; CPythonPlayer::__GetPickableDistance, COMDAT
; _this$ = ecx

; 19   : 	CInstanceBase * pkInstMain = NEW_GetMainActorPtr();

  00000	8b 41 04	 mov	 eax, DWORD PTR [ecx+4]
  00003	83 c1 04	 add	 ecx, 4
  00006	ff 90 88 00 00
	00		 call	 DWORD PTR [eax+136]

; 20   : 	if (pkInstMain)

  0000c	85 c0		 test	 eax, eax
  0000e	74 10		 je	 SHORT $LN3@GetPickabl

; 21   : 		if (pkInstMain->IsMountingHorse())

  00010	8b c8		 mov	 ecx, eax
  00012	e8 00 00 00 00	 call	 ?IsMountingHorse@CInstanceBase@@QAEHXZ ; CInstanceBase::IsMountingHorse
  00017	85 c0		 test	 eax, eax

; 22   : 			return 500;

  00019	b8 f4 01 00 00	 mov	 eax, 500		; 000001f4H
  0001e	75 05		 jne	 SHORT $LN1@GetPickabl
$LN3@GetPickabl:

; 23   : 
; 24   : 	return 300;

  00020	b8 2c 01 00 00	 mov	 eax, 300		; 0000012cH
$LN1@GetPickabl:

; 25   : }

  00025	c3		 ret	 0
?__GetPickableDistance@CPythonPlayer@@IAEKXZ ENDP	; CPythonPlayer::__GetPickableDistance
_TEXT	ENDS
; Function compile flags: /Ogtp
; File D:\Metin2 Server Files\mainline\SRC_2014\Metin2Client\UserInterface\PythonPlayerInput.cpp
;	COMDAT ?__IsReservedUseSkill@CPythonPlayer@@IAE_NK@Z
_TEXT	SEGMENT
_dwSkillSlotIndex$ = 8					; size = 4
?__IsReservedUseSkill@CPythonPlayer@@IAE_NK@Z PROC	; CPythonPlayer::__IsReservedUseSkill, COMDAT
; _this$ = ecx

; 844  : {

  00000	55		 push	 ebp
  00001	8b ec		 mov	 ebp, esp

; 845  : 	if (MODE_USE_SKILL!=m_eReservedMode)

  00003	83 79 54 04	 cmp	 DWORD PTR [ecx+84], 4
  00007	75 11		 jne	 SHORT $LN5@IsReserved

; 846  : 		return false;
; 847  : 
; 848  : 	if (m_dwSkillSlotIndexReserved!=dwSkillSlotIndex)

  00009	8b 81 50 f7 00
	00		 mov	 eax, DWORD PTR [ecx+63312]
  0000f	3b 45 08	 cmp	 eax, DWORD PTR _dwSkillSlotIndex$[ebp]
  00012	75 06		 jne	 SHORT $LN5@IsReserved

; 850  : 	
; 851  : 	return true;

  00014	b0 01		 mov	 al, 1

; 852  : }

  00016	5d		 pop	 ebp
  00017	c2 04 00	 ret	 4
$LN5@IsReserved:

; 849  : 		return false;

  0001a	32 c0		 xor	 al, al

; 852  : }

  0001c	5d		 pop	 ebp
  0001d	c2 04 00	 ret	 4
?__IsReservedUseSkill@CPythonPlayer@@IAE_NK@Z ENDP	; CPythonPlayer::__IsReservedUseSkill
_TEXT	ENDS
; Function compile flags: /Ogtp
; File D:\Metin2 Server Files\mainline\SRC_2014\Metin2Client\UserInterface\PythonPlayerInput.cpp
;	COMDAT ?__CanChangeTarget@CPythonPlayer@@IAE_NXZ
_TEXT	SEGMENT
?__CanChangeTarget@CPythonPlayer@@IAE_NXZ PROC		; CPythonPlayer::__CanChangeTarget, COMDAT
; _this$ = ecx

; 683  : 	CInstanceBase* pkInstMain=NEW_GetMainActorPtr();

  00000	8b 41 04	 mov	 eax, DWORD PTR [ecx+4]
  00003	83 c1 04	 add	 ecx, 4
  00006	ff 90 88 00 00
	00		 call	 DWORD PTR [eax+136]

; 684  : 	if (!pkInstMain) 

  0000c	85 c0		 test	 eax, eax
  0000e	75 03		 jne	 SHORT $LN2@CanChangeT

; 685  : 		return false;

  00010	32 c0		 xor	 al, al

; 688  : }

  00012	c3		 ret	 0
$LN2@CanChangeT:

; 686  : 
; 687  : 	return pkInstMain->CanChangeTarget();

  00013	8b c8		 mov	 ecx, eax
  00015	e9 00 00 00 00	 jmp	 ?CanChangeTarget@CInstanceBase@@QAE_NXZ ; CInstanceBase::CanChangeTarget
?__CanChangeTarget@CPythonPlayer@@IAE_NXZ ENDP		; CPythonPlayer::__CanChangeTarget
_TEXT	ENDS
; Function compile flags: /Ogtp
; File D:\Metin2 Server Files\mainline\SRC_2014\Metin2Client\UserInterface\PythonPlayerInput.cpp
;	COMDAT ?__CanAttack@CPythonPlayer@@IAE_NXZ
_TEXT	SEGMENT
?__CanAttack@CPythonPlayer@@IAE_NXZ PROC		; CPythonPlayer::__CanAttack, COMDAT
; _this$ = ecx

; 738  : {

  00000	56		 push	 esi
  00001	57		 push	 edi
  00002	8b f1		 mov	 esi, ecx

; 739  : 	if (__IsProcessingEmotion())

  00004	e8 00 00 00 00	 call	 ?__IsProcessingEmotion@CPythonPlayer@@IAEHXZ ; CPythonPlayer::__IsProcessingEmotion
  00009	85 c0		 test	 eax, eax
  0000b	75 63		 jne	 SHORT $LN8@CanAttack

; 740  : 	{
; 741  : 		return false;
; 742  : 	}
; 743  : 
; 744  : 	if (IsOpenPrivateShop())

  0000d	8b ce		 mov	 ecx, esi
  0000f	e8 00 00 00 00	 call	 ?IsOpenPrivateShop@CPythonPlayer@@QAE_NXZ ; CPythonPlayer::IsOpenPrivateShop
  00014	84 c0		 test	 al, al
  00016	75 58		 jne	 SHORT $LN8@CanAttack

; 745  : 		return false;
; 746  : 
; 747  : 	if (IsObserverMode())

  00018	8b ce		 mov	 ecx, esi
  0001a	e8 00 00 00 00	 call	 ?IsObserverMode@CPythonPlayer@@QAE_NXZ ; CPythonPlayer::IsObserverMode
  0001f	84 c0		 test	 al, al
  00021	75 4d		 jne	 SHORT $LN8@CanAttack

; 748  : 		return false;
; 749  : 
; 750  : 	CInstanceBase* pkInstMain=NEW_GetMainActorPtr();

  00023	8b 46 04	 mov	 eax, DWORD PTR [esi+4]
  00026	8d 4e 04	 lea	 ecx, DWORD PTR [esi+4]
  00029	ff 90 88 00 00
	00		 call	 DWORD PTR [eax+136]
  0002f	8b f8		 mov	 edi, eax

; 751  : 	if (!pkInstMain)

  00031	85 ff		 test	 edi, edi
  00033	74 3b		 je	 SHORT $LN8@CanAttack

; 752  : 		return false;
; 753  : 	
; 754  : 	// Fix me
; 755  : 	//  25  35        ... 
; 756  : 	//    can attack   ...
; 757  : 	// _ unique           _
; 758  : 	// _     ... ____
; 759  : 	if (pkInstMain->IsMountingHorse() && pkInstMain->IsNewMount() && (GetSkillGrade(109) < 1 && GetSkillLevel(109) < 11))

  00035	8b cf		 mov	 ecx, edi
  00037	e8 00 00 00 00	 call	 ?IsMountingHorse@CInstanceBase@@QAEHXZ ; CInstanceBase::IsMountingHorse
  0003c	85 c0		 test	 eax, eax
  0003e	74 27		 je	 SHORT $LN6@CanAttack
  00040	8b cf		 mov	 ecx, edi
  00042	e8 00 00 00 00	 call	 ?IsNewMount@CInstanceBase@@QAEHXZ ; CInstanceBase::IsNewMount
  00047	85 c0		 test	 eax, eax
  00049	74 1c		 je	 SHORT $LN6@CanAttack
  0004b	6a 6d		 push	 109			; 0000006dH
  0004d	8b ce		 mov	 ecx, esi
  0004f	e8 00 00 00 00	 call	 ?GetSkillGrade@CPythonPlayer@@QAEHK@Z ; CPythonPlayer::GetSkillGrade
  00054	83 f8 01	 cmp	 eax, 1
  00057	7d 0e		 jge	 SHORT $LN6@CanAttack
  00059	6a 6d		 push	 109			; 0000006dH
  0005b	8b ce		 mov	 ecx, esi
  0005d	e8 00 00 00 00	 call	 ?GetSkillLevel@CPythonPlayer@@QAEHK@Z ; CPythonPlayer::GetSkillLevel
  00062	83 f8 0b	 cmp	 eax, 11			; 0000000bH
  00065	7c 09		 jl	 SHORT $LN8@CanAttack
$LN6@CanAttack:

; 762  : 	}
; 763  : 
; 764  : 	return pkInstMain->CanAttack();

  00067	8b cf		 mov	 ecx, edi
  00069	5f		 pop	 edi

; 765  : }

  0006a	5e		 pop	 esi

; 762  : 	}
; 763  : 
; 764  : 	return pkInstMain->CanAttack();

  0006b	e9 00 00 00 00	 jmp	 ?CanAttack@CInstanceBase@@QAE_NXZ ; CInstanceBase::CanAttack
$LN8@CanAttack:
  00070	5f		 pop	 edi

; 760  : 	{
; 761  : 		return false;

  00071	32 c0		 xor	 al, al

; 765  : }

  00073	5e		 pop	 esi
  00074	c3		 ret	 0
?__CanAttack@CPythonPlayer@@IAE_NXZ ENDP		; CPythonPlayer::__CanAttack
_TEXT	ENDS
; Function compile flags: /Ogtp
; File D:\Metin2 Server Files\mainline\SRC_2014\Metin2Client\UserInterface\PythonPlayerInput.cpp
;	COMDAT ?__CanMove@CPythonPlayer@@IAE_NXZ
_TEXT	SEGMENT
?__CanMove@CPythonPlayer@@IAE_NXZ PROC			; CPythonPlayer::__CanMove, COMDAT
; _this$ = ecx

; 691  : {

  00000	56		 push	 esi
  00001	8b f1		 mov	 esi, ecx

; 692  : 	if (__IsProcessingEmotion())

  00003	e8 00 00 00 00	 call	 ?__IsProcessingEmotion@CPythonPlayer@@IAEHXZ ; CPythonPlayer::__IsProcessingEmotion
  00008	85 c0		 test	 eax, eax
  0000a	75 2c		 jne	 SHORT $LN7@CanMove

; 693  : 	{
; 694  : 		return false;
; 695  : 	}
; 696  : 
; 697  : 	CInstanceBase* pkInstMain=NEW_GetMainActorPtr();

  0000c	8b 46 04	 mov	 eax, DWORD PTR [esi+4]
  0000f	8d 4e 04	 lea	 ecx, DWORD PTR [esi+4]
  00012	ff 90 88 00 00
	00		 call	 DWORD PTR [eax+136]
  00018	8b f0		 mov	 esi, eax

; 698  : 	if (!pkInstMain) 

  0001a	85 f6		 test	 esi, esi
  0001c	74 1a		 je	 SHORT $LN7@CanMove

; 699  : 		return false;
; 700  : 
; 701  : 	if (!pkInstMain->CanMove())

  0001e	8b ce		 mov	 ecx, esi
  00020	e8 00 00 00 00	 call	 ?CanMove@CInstanceBase@@QAE_NXZ ; CInstanceBase::CanMove
  00025	84 c0		 test	 al, al
  00027	75 0b		 jne	 SHORT $LN5@CanMove

; 702  : 	{
; 703  : 		if (!pkInstMain->IsUsingMovingSkill())

  00029	8b ce		 mov	 ecx, esi
  0002b	e8 00 00 00 00	 call	 ?IsUsingMovingSkill@CInstanceBase@@QAEHXZ ; CInstanceBase::IsUsingMovingSkill
  00030	85 c0		 test	 eax, eax
  00032	74 04		 je	 SHORT $LN7@CanMove
$LN5@CanMove:

; 705  : 	}
; 706  : 
; 707  : 	return true;

  00034	b0 01		 mov	 al, 1
  00036	5e		 pop	 esi

; 708  : }

  00037	c3		 ret	 0
$LN7@CanMove:

; 704  : 			return false;

  00038	32 c0		 xor	 al, al
  0003a	5e		 pop	 esi

; 708  : }

  0003b	c3		 ret	 0
?__CanMove@CPythonPlayer@@IAE_NXZ ENDP			; CPythonPlayer::__CanMove
_TEXT	ENDS
; Function compile flags: /Ogtp
; File D:\Metin2 Server Files\mainline\SRC_2014\Metin2Client\UserInterface\PythonPlayerInput.cpp
;	COMDAT ?__CanShot@CPythonPlayer@@IAE_NAAVCInstanceBase@@0@Z
_TEXT	SEGMENT
_rkInstMain$ = 8					; size = 4
_rkInstTarget$ = 12					; size = 4
?__CanShot@CPythonPlayer@@IAE_NAAVCInstanceBase@@0@Z PROC ; CPythonPlayer::__CanShot, COMDAT
; _this$ = ecx

; 659  : {

  00000	55		 push	 ebp
  00001	8b ec		 mov	 ebp, esp
  00003	56		 push	 esi
  00004	8b f1		 mov	 esi, ecx

; 660  : 	if (!__HasEnoughArrow())

  00006	e8 00 00 00 00	 call	 ?__HasEnoughArrow@CPythonPlayer@@IAE_NXZ ; CPythonPlayer::__HasEnoughArrow
  0000b	84 c0		 test	 al, al
  0000d	75 32		 jne	 SHORT $LN2@CanShot

; 661  : 	{
; 662  : 		PyCallClassMemberFunc(m_ppyGameWindow, "OnCannotShot", Py_BuildValue("(is)", GetMainCharacterIndex(), "EMPTY_ARROW"));

  0000f	68 00 00 00 00	 push	 OFFSET ??_C@_0M@FBIHMJDM@EMPTY_ARROW@
$LN7@CanShot:

; 679  : }

  00014	8b 46 04	 mov	 eax, DWORD PTR [esi+4]
  00017	8d 4e 04	 lea	 ecx, DWORD PTR [esi+4]
  0001a	ff 50 04	 call	 DWORD PTR [eax+4]
  0001d	50		 push	 eax
  0001e	68 00 00 00 00	 push	 OFFSET ??_C@_04JMLDJNEM@?$CIis?$CJ@
  00023	ff 15 00 00 00
	00		 call	 DWORD PTR __imp__Py_BuildValue
  00029	50		 push	 eax
  0002a	68 00 00 00 00	 push	 OFFSET ??_C@_0N@OPOOJDCJ@OnCannotShot@
  0002f	ff 76 08	 push	 DWORD PTR [esi+8]
  00032	e8 00 00 00 00	 call	 ?PyCallClassMemberFunc@@YA_NPAU_object@@PBD0@Z ; PyCallClassMemberFunc
  00037	83 c4 18	 add	 esp, 24			; 00000018H
  0003a	32 c0		 xor	 al, al
  0003c	5e		 pop	 esi
  0003d	5d		 pop	 ebp
  0003e	c2 08 00	 ret	 8
$LN2@CanShot:

; 663  : 		return false;
; 664  : 	}
; 665  : 
; 666  : 	if (rkInstMain.IsInSafe())

  00041	8b 4d 08	 mov	 ecx, DWORD PTR _rkInstMain$[ebp]
  00044	e8 00 00 00 00	 call	 ?IsInSafe@CInstanceBase@@QAEHXZ ; CInstanceBase::IsInSafe
  00049	85 c0		 test	 eax, eax
  0004b	74 07		 je	 SHORT $LN3@CanShot

; 667  : 	{
; 668  : 		PyCallClassMemberFunc(m_ppyGameWindow, "OnCannotShot", Py_BuildValue("(is)", GetMainCharacterIndex(), "IN_SAFE"));

  0004d	68 00 00 00 00	 push	 OFFSET ??_C@_07OAOBINCH@IN_SAFE@

; 669  : 		return false;

  00052	eb c0		 jmp	 SHORT $LN7@CanShot
$LN3@CanShot:

; 670  : 	}
; 671  : 
; 672  : 	if (rkInstTarget.IsInSafe())

  00054	8b 4d 0c	 mov	 ecx, DWORD PTR _rkInstTarget$[ebp]
  00057	e8 00 00 00 00	 call	 ?IsInSafe@CInstanceBase@@QAEHXZ ; CInstanceBase::IsInSafe
  0005c	85 c0		 test	 eax, eax
  0005e	74 07		 je	 SHORT $LN4@CanShot

; 673  : 	{
; 674  : 		PyCallClassMemberFunc(m_ppyGameWindow, "OnCannotShot", Py_BuildValue("(is)", GetMainCharacterIndex(), "DEST_IN_SAFE"));

  00060	68 00 00 00 00	 push	 OFFSET ??_C@_0N@KDALDMKB@DEST_IN_SAFE@

; 675  : 		return false;

  00065	eb ad		 jmp	 SHORT $LN7@CanShot
$LN4@CanShot:

; 676  : 	}	
; 677  : 
; 678  : 	return true;

  00067	b0 01		 mov	 al, 1
  00069	5e		 pop	 esi

; 679  : }

  0006a	5d		 pop	 ebp
  0006b	c2 08 00	 ret	 8
?__CanShot@CPythonPlayer@@IAE_NAAVCInstanceBase@@0@Z ENDP ; CPythonPlayer::__CanShot
_TEXT	ENDS
; Function compile flags: /Ogtp
; File D:\Metin2 Server Files\mainline\SRC_2014\Metin2Client\UserInterface\PythonPlayerInput.cpp
; File D:\Metin2 Server Files\mainline\SRC_2014\M2Data\include\d3dx8math.inl
; File D:\Metin2 Server Files\mainline\SRC_2014\Metin2Client\UserInterface\PythonPlayerInput.cpp
; File D:\Metin2 Server Files\mainline\SRC_2014\M2Data\include\d3dx8math.inl
; File D:\Metin2 Server Files\mainline\SRC_2014\Metin2Client\UserInterface\PythonPlayerInput.cpp
; File D:\Metin2 Server Files\mainline\SRC_2014\M2Data\include\d3dx8math.inl
; File D:\Metin2 Server Files\mainline\SRC_2014\Metin2Client\UserInterface\PythonPlayerInput.cpp
; File D:\Metin2 Server Files\mainline\SRC_2014\M2Data\include\d3dx8math.inl
; File C:\Program Files (x86)\Windows Kits\10\Include\10.0.18362.0\ucrt\corecrt_math.h
; File D:\Metin2 Server Files\mainline\SRC_2014\Metin2Client\UserInterface\PythonPlayerInput.cpp
;	COMDAT ?GetDegreeFromPosition@CPythonPlayer@@IAEMHHHH@Z
_TEXT	SEGMENT
_ret$ = -20						; size = 4
_vtDir$ = -16						; size = 12
__$ArrayPad$ = -4					; size = 4
_ix$ = 8						; size = 4
_iy$ = 12						; size = 4
_iHalfWidth$ = 16					; size = 4
_iHalfHeight$ = 20					; size = 4
?GetDegreeFromPosition@CPythonPlayer@@IAEMHHHH@Z PROC	; CPythonPlayer::GetDegreeFromPosition, COMDAT
; _this$ = ecx

; 806  : {

  00000	55		 push	 ebp
  00001	8b ec		 mov	 ebp, esp
  00003	83 ec 14	 sub	 esp, 20			; 00000014H
  00006	a1 00 00 00 00	 mov	 eax, DWORD PTR ___security_cookie
  0000b	33 c5		 xor	 eax, ebp
  0000d	89 45 fc	 mov	 DWORD PTR __$ArrayPad$[ebp], eax

; 807  : 	D3DXVECTOR3 vtDir(float(ix - iHalfWidth), float(iy - iHalfHeight), 0.0f);

  00010	8b 45 08	 mov	 eax, DWORD PTR _ix$[ebp]
  00013	2b 45 10	 sub	 eax, DWORD PTR _iHalfWidth$[ebp]
; File D:\Metin2 Server Files\mainline\SRC_2014\M2Data\include\d3dx8math.inl

; 182  :     z = fz;

  00016	c7 45 f8 00 00
	00 00		 mov	 DWORD PTR _vtDir$[ebp+8], 0
  0001d	66 0f 6e c0	 movd	 xmm0, eax
; File D:\Metin2 Server Files\mainline\SRC_2014\Metin2Client\UserInterface\PythonPlayerInput.cpp

; 807  : 	D3DXVECTOR3 vtDir(float(ix - iHalfWidth), float(iy - iHalfHeight), 0.0f);

  00021	8b 45 0c	 mov	 eax, DWORD PTR _iy$[ebp]
  00024	2b 45 14	 sub	 eax, DWORD PTR _iHalfHeight$[ebp]
  00027	0f 5b c0	 cvtdq2ps xmm0, xmm0
; File D:\Metin2 Server Files\mainline\SRC_2014\M2Data\include\d3dx8math.inl

; 180  :     x = fx;

  0002a	f3 0f 11 45 f0	 movss	 DWORD PTR _vtDir$[ebp], xmm0
  0002f	66 0f 6e c0	 movd	 xmm0, eax
; File D:\Metin2 Server Files\mainline\SRC_2014\Metin2Client\UserInterface\PythonPlayerInput.cpp

; 808  : 	D3DXVec3Normalize(&vtDir, &vtDir);

  00033	8d 45 f0	 lea	 eax, DWORD PTR _vtDir$[ebp]
  00036	0f 5b c0	 cvtdq2ps xmm0, xmm0
  00039	50		 push	 eax
  0003a	50		 push	 eax
; File D:\Metin2 Server Files\mainline\SRC_2014\M2Data\include\d3dx8math.inl

; 181  :     y = fy;

  0003b	f3 0f 11 45 f4	 movss	 DWORD PTR _vtDir$[ebp+4], xmm0
; File D:\Metin2 Server Files\mainline\SRC_2014\Metin2Client\UserInterface\PythonPlayerInput.cpp

; 808  : 	D3DXVec3Normalize(&vtDir, &vtDir);

  00040	e8 00 00 00 00	 call	 _D3DXVec3Normalize@8
; File D:\Metin2 Server Files\mainline\SRC_2014\M2Data\include\d3dx8math.inl

; 1264 :     return pV1->x * pV2->x + pV1->y * pV2->y + pV1->z * pV2->z;

  00045	f3 0f 10 4d f0	 movss	 xmm1, DWORD PTR _vtDir$[ebp]
  0004a	0f 57 d2	 xorps	 xmm2, xmm2

; 182  :     z = fz;

  0004d	f3 0f 10 45 f4	 movss	 xmm0, DWORD PTR _vtDir$[ebp+4]
  00052	f3 0f 59 05 00
	00 00 00	 mulss	 xmm0, DWORD PTR __real@3f800000

; 1264 :     return pV1->x * pV2->x + pV1->y * pV2->y + pV1->z * pV2->z;

  0005a	f3 0f 59 ca	 mulss	 xmm1, xmm2
  0005e	f3 0f 5c c8	 subss	 xmm1, xmm0
  00062	f3 0f 10 45 f8	 movss	 xmm0, DWORD PTR _vtDir$[ebp+8]
  00067	f3 0f 59 c2	 mulss	 xmm0, xmm2
  0006b	f3 0f 58 c8	 addss	 xmm1, xmm0
; File C:\Program Files (x86)\Windows Kits\10\Include\10.0.18362.0\ucrt\corecrt_math.h

; 624  :             return (float)acos(_X);

  0006f	0f 5a c1	 cvtps2pd xmm0, xmm1
  00072	e8 00 00 00 00	 call	 __libm_sse2_acos_precise
  00077	0f 57 c9	 xorps	 xmm1, xmm1
  0007a	f2 0f 5a c8	 cvtsd2ss xmm1, xmm0
  0007e	0f 57 c0	 xorps	 xmm0, xmm0
; File D:\Metin2 Server Files\mainline\SRC_2014\Metin2Client\UserInterface\PythonPlayerInput.cpp

; 813  : 	if (vtDir.x < 0.0f)

  00081	0f 2f 45 f0	 comiss	 xmm0, DWORD PTR _vtDir$[ebp]
  00085	f3 0f 59 0d 00
	00 00 00	 mulss	 xmm1, DWORD PTR __real@42652ee0
  0008d	f3 0f 11 4d ec	 movss	 DWORD PTR _ret$[ebp], xmm1
  00092	76 11		 jbe	 SHORT $LN2@GetDegreeF

; 814  : 		ret = 360.0f - ret;

  00094	f3 0f 10 05 00
	00 00 00	 movss	 xmm0, DWORD PTR __real@43b40000
  0009c	f3 0f 5c c1	 subss	 xmm0, xmm1
  000a0	f3 0f 11 45 ec	 movss	 DWORD PTR _ret$[ebp], xmm0
$LN2@GetDegreeF:

; 815  : 
; 816  : 	return 360.0f - ret;
; 817  : }

  000a5	8b 4d fc	 mov	 ecx, DWORD PTR __$ArrayPad$[ebp]
  000a8	d9 05 00 00 00
	00		 fld	 DWORD PTR __real@43b40000
  000ae	33 cd		 xor	 ecx, ebp
  000b0	d8 65 ec	 fsub	 DWORD PTR _ret$[ebp]
  000b3	e8 00 00 00 00	 call	 @__security_check_cookie@4
  000b8	8b e5		 mov	 esp, ebp
  000ba	5d		 pop	 ebp
  000bb	c2 10 00	 ret	 16			; 00000010H
?GetDegreeFromPosition@CPythonPlayer@@IAEMHHHH@Z ENDP	; CPythonPlayer::GetDegreeFromPosition
_TEXT	ENDS
; Function compile flags: /Ogtp
; File D:\Metin2 Server Files\mainline\SRC_2014\Metin2Client\UserInterface\PythonPlayerInput.cpp
;	COMDAT ?NEW_GetMultiKeyDirRotation@CPythonPlayer@@IAEX_N000PAM@Z
_TEXT	SEGMENT
_isLeft$ = 8						; size = 1
_isRight$ = 12						; size = 1
_isUp$ = 16						; size = 1
_isDown$ = 20						; size = 1
_pfDirRot$ = 24						; size = 4
?NEW_GetMultiKeyDirRotation@CPythonPlayer@@IAEX_N000PAM@Z PROC ; CPythonPlayer::NEW_GetMultiKeyDirRotation, COMDAT
; _this$ = ecx

; 768  : {

  00000	55		 push	 ebp
  00001	8b ec		 mov	 ebp, esp

; 769  : 	float fScrX=0.0f;
; 770  : 	float fScrY=0.0f;
; 771  : 
; 772  : 	if (isLeft)

  00003	80 7d 08 00	 cmp	 BYTE PTR _isLeft$[ebp], 0
  00007	0f 57 c0	 xorps	 xmm0, xmm0
  0000a	f3 0f 10 15 00
	00 00 00	 movss	 xmm2, DWORD PTR __real@3f000000
  00012	f3 0f 10 1d 00
	00 00 00	 movss	 xmm3, DWORD PTR __real@3f800000
  0001a	74 05		 je	 SHORT $LN2@NEW_GetMul

; 773  : 		fScrX=0.0f;

  0001c	0f 57 c9	 xorps	 xmm1, xmm1
  0001f	eb 0e		 jmp	 SHORT $LN5@NEW_GetMul
$LN2@NEW_GetMul:

; 774  : 	else if (isRight)

  00021	80 7d 0c 00	 cmp	 BYTE PTR _isRight$[ebp], 0
  00025	74 05		 je	 SHORT $LN4@NEW_GetMul

; 775  : 		fScrX=1.0f;

  00027	0f 28 cb	 movaps	 xmm1, xmm3
  0002a	eb 03		 jmp	 SHORT $LN5@NEW_GetMul
$LN4@NEW_GetMul:

; 776  : 	else
; 777  : 		fScrX=0.5f;

  0002c	0f 28 ca	 movaps	 xmm1, xmm2
$LN5@NEW_GetMul:

; 778  : 
; 779  : 	if (isUp)

  0002f	80 7d 10 00	 cmp	 BYTE PTR _isUp$[ebp], 0
  00033	75 0e		 jne	 SHORT $LN9@NEW_GetMul

; 780  : 		fScrY=0.0f;
; 781  : 	else if (isDown)

  00035	80 7d 14 00	 cmp	 BYTE PTR _isDown$[ebp], 0
  00039	74 05		 je	 SHORT $LN8@NEW_GetMul

; 782  : 		fScrY=1.0f;

  0003b	0f 28 c3	 movaps	 xmm0, xmm3
  0003e	eb 03		 jmp	 SHORT $LN9@NEW_GetMul
$LN8@NEW_GetMul:

; 783  : 	else 
; 784  : 		fScrY=0.5f;

  00040	0f 28 c2	 movaps	 xmm0, xmm2
$LN9@NEW_GetMul:

; 785  : 
; 786  : 	NEW_GetMouseDirRotation(fScrX, fScrY, pfDirRot);

  00043	ff 75 18	 push	 DWORD PTR _pfDirRot$[ebp]
  00046	83 ec 08	 sub	 esp, 8
  00049	f3 0f 11 44 24
	04		 movss	 DWORD PTR [esp+4], xmm0
  0004f	f3 0f 11 0c 24	 movss	 DWORD PTR [esp], xmm1
  00054	e8 00 00 00 00	 call	 ?NEW_GetMouseDirRotation@CPythonPlayer@@IAEXMMPAM@Z ; CPythonPlayer::NEW_GetMouseDirRotation

; 787  : }

  00059	5d		 pop	 ebp
  0005a	c2 14 00	 ret	 20			; 00000014H
?NEW_GetMultiKeyDirRotation@CPythonPlayer@@IAEX_N000PAM@Z ENDP ; CPythonPlayer::NEW_GetMultiKeyDirRotation
_TEXT	ENDS
; Function compile flags: /Ogtp
; File D:\Metin2 Server Files\mainline\SRC_2014\Metin2Client\UserInterface\PythonPlayerInput.cpp
;	COMDAT ?NEW_GetMouseDirRotation@CPythonPlayer@@IAEXMMPAM@Z
_TEXT	SEGMENT
_fScrX$ = 8						; size = 4
_fScrY$ = 12						; size = 4
_pfDirRot$ = 16						; size = 4
?NEW_GetMouseDirRotation@CPythonPlayer@@IAEXMMPAM@Z PROC ; CPythonPlayer::NEW_GetMouseDirRotation, COMDAT
; _this$ = ecx

; 790  : {

  00000	55		 push	 ebp
  00001	8b ec		 mov	 ebp, esp

; 791  : 	long lWidth = UI::CWindowManager::Instance().GetScreenWidth();

  00003	a1 00 00 00 00	 mov	 eax, DWORD PTR ?ms_singleton@?$CSingleton@VCWindowManager@UI@@@@0PAVCWindowManager@UI@@A ; CSingleton<UI::CWindowManager>::ms_singleton
  00008	56		 push	 esi
  00009	57		 push	 edi
  0000a	8b 78 04	 mov	 edi, DWORD PTR [eax+4]

; 792  : 	long lHeight = UI::CWindowManager::Instance().GetScreenHeight();

  0000d	8b 70 08	 mov	 esi, DWORD PTR [eax+8]

; 793  : 	int nScrPosX=lWidth*fScrX;
; 794  : 	int nScrPosY=lHeight*fScrY;
; 795  : 	int nScrWidth=lWidth;
; 796  : 	int nScrHeight=lHeight;
; 797  : 	int nScrCenterX=nScrWidth/2;
; 798  : 	int nScrCenterY=nScrHeight/2;

  00010	8b c6		 mov	 eax, esi
  00012	99		 cdq
  00013	2b c2		 sub	 eax, edx
  00015	d1 f8		 sar	 eax, 1

; 799  : 
; 800  : 	float finputRotation = GetDegreeFromPosition(nScrPosX, nScrPosY, nScrCenterX, nScrCenterY);

  00017	50		 push	 eax
  00018	66 0f 6e c6	 movd	 xmm0, esi
  0001c	8b c7		 mov	 eax, edi
  0001e	0f 5b c0	 cvtdq2ps xmm0, xmm0
  00021	99		 cdq
  00022	2b c2		 sub	 eax, edx
  00024	d1 f8		 sar	 eax, 1
  00026	50		 push	 eax
  00027	f3 0f 59 45 0c	 mulss	 xmm0, DWORD PTR _fScrY$[ebp]
  0002c	f3 0f 2c c0	 cvttss2si eax, xmm0
  00030	66 0f 6e c7	 movd	 xmm0, edi
  00034	0f 5b c0	 cvtdq2ps xmm0, xmm0
  00037	50		 push	 eax
  00038	f3 0f 59 45 08	 mulss	 xmm0, DWORD PTR _fScrX$[ebp]
  0003d	f3 0f 2c c0	 cvttss2si eax, xmm0
  00041	50		 push	 eax
  00042	e8 00 00 00 00	 call	 ?GetDegreeFromPosition@CPythonPlayer@@IAEMHHHH@Z ; CPythonPlayer::GetDegreeFromPosition

; 801  : 	*pfDirRot=finputRotation;

  00047	8b 45 10	 mov	 eax, DWORD PTR _pfDirRot$[ebp]
  0004a	5f		 pop	 edi
  0004b	5e		 pop	 esi
  0004c	d9 18		 fstp	 DWORD PTR [eax]

; 802  : }

  0004e	5d		 pop	 ebp
  0004f	c2 0c 00	 ret	 12			; 0000000cH
?NEW_GetMouseDirRotation@CPythonPlayer@@IAEXMMPAM@Z ENDP ; CPythonPlayer::NEW_GetMouseDirRotation
_TEXT	ENDS
; Function compile flags: /Ogtp
; File D:\Metin2 Server Files\mainline\SRC_2014\Metin2Client\UserInterface\PythonPlayerInput.cpp
;	COMDAT ?__SetAutoAttackTargetActorID@CPythonPlayer@@IAEXK@Z
_TEXT	SEGMENT
_dwVID$ = 8						; size = 4
?__SetAutoAttackTargetActorID@CPythonPlayer@@IAEXK@Z PROC ; CPythonPlayer::__SetAutoAttackTargetActorID, COMDAT
; _this$ = ecx

; 872  : {

  00000	55		 push	 ebp
  00001	8b ec		 mov	 ebp, esp

; 873  :  	m_dwAutoAttackTargetVID = dwVID;

  00003	8b 45 08	 mov	 eax, DWORD PTR _dwVID$[ebp]
  00006	89 41 50	 mov	 DWORD PTR [ecx+80], eax

; 874  : }

  00009	5d		 pop	 ebp
  0000a	c2 04 00	 ret	 4
?__SetAutoAttackTargetActorID@CPythonPlayer@@IAEXK@Z ENDP ; CPythonPlayer::__SetAutoAttackTargetActorID
_TEXT	ENDS
; Function compile flags: /Ogtp
; File D:\Metin2 Server Files\mainline\SRC_2014\Metin2Client\UserInterface\PythonPlayerInput.cpp
;	COMDAT ?__ClearAutoAttackTargetActorID@CPythonPlayer@@IAEXXZ
_TEXT	SEGMENT
?__ClearAutoAttackTargetActorID@CPythonPlayer@@IAEXXZ PROC ; CPythonPlayer::__ClearAutoAttackTargetActorID, COMDAT
; _this$ = ecx

; 868  : 	__SetAutoAttackTargetActorID(0);

  00000	6a 00		 push	 0
  00002	e8 00 00 00 00	 call	 ?__SetAutoAttackTargetActorID@CPythonPlayer@@IAEXK@Z ; CPythonPlayer::__SetAutoAttackTargetActorID

; 869  : }

  00007	c3		 ret	 0
?__ClearAutoAttackTargetActorID@CPythonPlayer@@IAEXXZ ENDP ; CPythonPlayer::__ClearAutoAttackTargetActorID
_TEXT	ENDS
; Function compile flags: /Ogtp
; File D:\Metin2 Server Files\mainline\SRC_2014\Metin2Client\UserInterface\PythonPlayerInput.cpp
;	COMDAT ?__ReserveProcess_ClickActor@CPythonPlayer@@IAEXXZ
_TEXT	SEGMENT
_pkInstReserved$1$ = -4					; size = 4
?__ReserveProcess_ClickActor@CPythonPlayer@@IAEXXZ PROC	; CPythonPlayer::__ReserveProcess_ClickActor, COMDAT
; _this$ = ecx

; 878  : {

  00000	55		 push	 ebp
  00001	8b ec		 mov	 ebp, esp
  00003	51		 push	 ecx
  00004	53		 push	 ebx
  00005	56		 push	 esi
  00006	57		 push	 edi
  00007	8b f9		 mov	 edi, ecx

; 879  : 	CInstanceBase* pkInstMain = NEW_GetMainActorPtr();

  00009	8b 47 04	 mov	 eax, DWORD PTR [edi+4]
  0000c	8d 4f 04	 lea	 ecx, DWORD PTR [edi+4]
  0000f	ff 90 88 00 00
	00		 call	 DWORD PTR [eax+136]

; 880  : 	CInstanceBase* pkInstReserved = NEW_FindActorPtr(m_dwVIDReserved);

  00015	ff b7 44 f7 00
	00		 push	 DWORD PTR [edi+63300]
  0001b	8b cf		 mov	 ecx, edi
  0001d	8b d8		 mov	 ebx, eax
  0001f	e8 00 00 00 00	 call	 ?NEW_FindActorPtr@CPythonPlayer@@QAEPAVCInstanceBase@@K@Z ; CPythonPlayer::NEW_FindActorPtr
  00024	8b f0		 mov	 esi, eax
  00026	89 75 fc	 mov	 DWORD PTR _pkInstReserved$1$[ebp], esi

; 881  : 	if (!pkInstMain || !pkInstReserved)

  00029	85 db		 test	 ebx, ebx
  0002b	0f 84 67 01 00
	00		 je	 $LN3@ReservePro
  00031	85 f6		 test	 esi, esi
  00033	0f 84 5f 01 00
	00		 je	 $LN3@ReservePro

; 882  : 	{
; 883  : 		__ClearReservedAction();
; 884  : 		return;
; 885  : 	}
; 886  : 
; 887  : 	if (!pkInstMain->NEW_IsClickableDistanceDestInstance(*pkInstReserved))

  00039	56		 push	 esi
  0003a	8b cb		 mov	 ecx, ebx
  0003c	e8 00 00 00 00	 call	 ?NEW_IsClickableDistanceDestInstance@CInstanceBase@@QAEHAAV1@@Z ; CInstanceBase::NEW_IsClickableDistanceDestInstance
  00041	8b cb		 mov	 ecx, ebx
  00043	56		 push	 esi
  00044	85 c0		 test	 eax, eax
  00046	75 0c		 jne	 SHORT $LN4@ReservePro

; 888  : 	{
; 889  : 		pkInstMain->NEW_MoveToDestInstanceDirection(*pkInstReserved);

  00048	e8 00 00 00 00	 call	 ?NEW_MoveToDestInstanceDirection@CInstanceBase@@QAEXAAV1@@Z ; CInstanceBase::NEW_MoveToDestInstanceDirection
  0004d	5f		 pop	 edi

; 948  : 	__ClearReservedAction();
; 949  : }

  0004e	5e		 pop	 esi
  0004f	5b		 pop	 ebx
  00050	8b e5		 mov	 esp, ebp
  00052	5d		 pop	 ebp
  00053	c3		 ret	 0
$LN4@ReservePro:

; 890  : 		return;
; 891  : 	}
; 892  : 
; 893  : 	if (!pkInstMain->IsAttackableInstance(*pkInstReserved))

  00054	e8 00 00 00 00	 call	 ?IsAttackableInstance@CInstanceBase@@QAE_NAAV1@@Z ; CInstanceBase::IsAttackableInstance
  00059	84 c0		 test	 al, al
  0005b	75 1d		 jne	 SHORT $LN5@ReservePro

; 894  : 	{
; 895  : 		pkInstMain->NEW_Stop();

  0005d	8b cb		 mov	 ecx, ebx
  0005f	e8 00 00 00 00	 call	 ?NEW_Stop@CInstanceBase@@QAEXXZ ; CInstanceBase::NEW_Stop

; 896  : 		__SendClickActorPacket(*pkInstReserved);

  00064	56		 push	 esi
  00065	8b cf		 mov	 ecx, edi
  00067	e8 00 00 00 00	 call	 ?__SendClickActorPacket@CPythonPlayer@@IAEXAAVCInstanceBase@@@Z ; CPythonPlayer::__SendClickActorPacket

; 948  : 	__ClearReservedAction();
; 949  : }

  0006c	8b cf		 mov	 ecx, edi
  0006e	e8 00 00 00 00	 call	 ?__ClearReservedAction@CPythonPlayer@@IAEXXZ ; CPythonPlayer::__ClearReservedAction
  00073	5f		 pop	 edi
  00074	5e		 pop	 esi
  00075	5b		 pop	 ebx
  00076	8b e5		 mov	 esp, ebp
  00078	5d		 pop	 ebp
  00079	c3		 ret	 0
$LN5@ReservePro:

; 897  : 		__ClearReservedAction();
; 898  : 		return;
; 899  : 	}
; 900  : 
; 901  : 	if (pkInstReserved->IsDead())

  0007a	8b ce		 mov	 ecx, esi
  0007c	e8 00 00 00 00	 call	 ?IsDead@CInstanceBase@@QAEHXZ ; CInstanceBase::IsDead
  00081	85 c0		 test	 eax, eax
  00083	0f 85 0f 01 00
	00		 jne	 $LN3@ReservePro

; 902  : 	{
; 903  : 		__ClearReservedAction();
; 904  : 		return;
; 905  : 	}
; 906  : 
; 907  : 	if (pkInstMain->IsInSafe())

  00089	8b cb		 mov	 ecx, ebx
  0008b	e8 00 00 00 00	 call	 ?IsInSafe@CInstanceBase@@QAEHXZ ; CInstanceBase::IsInSafe
  00090	85 c0		 test	 eax, eax
  00092	74 40		 je	 SHORT $LN7@ReservePro

; 908  : 	{
; 909  : 		PyCallClassMemberFunc(m_ppyGameWindow, "OnCannotAttack", Py_BuildValue("(is)", GetMainCharacterIndex(), "IN_SAFE"));

  00094	8b 47 04	 mov	 eax, DWORD PTR [edi+4]
  00097	8d 4f 04	 lea	 ecx, DWORD PTR [edi+4]
  0009a	68 00 00 00 00	 push	 OFFSET ??_C@_07OAOBINCH@IN_SAFE@
  0009f	ff 50 04	 call	 DWORD PTR [eax+4]
  000a2	50		 push	 eax
  000a3	68 00 00 00 00	 push	 OFFSET ??_C@_04JMLDJNEM@?$CIis?$CJ@
  000a8	ff 15 00 00 00
	00		 call	 DWORD PTR __imp__Py_BuildValue
  000ae	50		 push	 eax
  000af	68 00 00 00 00	 push	 OFFSET ??_C@_0P@BFHKDLNH@OnCannotAttack@
$LN14@ReservePro:

; 948  : 	__ClearReservedAction();
; 949  : }

  000b4	ff 77 08	 push	 DWORD PTR [edi+8]
  000b7	e8 00 00 00 00	 call	 ?PyCallClassMemberFunc@@YA_NPAU_object@@PBD0@Z ; PyCallClassMemberFunc
  000bc	83 c4 18	 add	 esp, 24			; 00000018H
  000bf	8b cb		 mov	 ecx, ebx
  000c1	e8 00 00 00 00	 call	 ?NEW_Stop@CInstanceBase@@QAEXXZ ; CInstanceBase::NEW_Stop
  000c6	8b cf		 mov	 ecx, edi
  000c8	e8 00 00 00 00	 call	 ?__ClearReservedAction@CPythonPlayer@@IAEXXZ ; CPythonPlayer::__ClearReservedAction
  000cd	5f		 pop	 edi
  000ce	5e		 pop	 esi
  000cf	5b		 pop	 ebx
  000d0	8b e5		 mov	 esp, ebp
  000d2	5d		 pop	 ebp
  000d3	c3		 ret	 0
$LN7@ReservePro:

; 910  : 		pkInstMain->NEW_Stop();
; 911  : 		__ClearReservedAction();
; 912  : 		return;
; 913  : 	}
; 914  : 
; 915  : 	if (pkInstReserved->IsInSafe())

  000d4	8b ce		 mov	 ecx, esi
  000d6	e8 00 00 00 00	 call	 ?IsInSafe@CInstanceBase@@QAEHXZ ; CInstanceBase::IsInSafe
  000db	85 c0		 test	 eax, eax
  000dd	74 40		 je	 SHORT $LN8@ReservePro

; 916  : 	{
; 917  : 		PyCallClassMemberFunc(m_ppyGameWindow, "OnCannotAttack", Py_BuildValue("(is)", GetMainCharacterIndex(), "DEST_IN_SAFE"));

  000df	8b 47 04	 mov	 eax, DWORD PTR [edi+4]
  000e2	8d 4f 04	 lea	 ecx, DWORD PTR [edi+4]
  000e5	68 00 00 00 00	 push	 OFFSET ??_C@_0N@KDALDMKB@DEST_IN_SAFE@
  000ea	ff 50 04	 call	 DWORD PTR [eax+4]
  000ed	50		 push	 eax
  000ee	68 00 00 00 00	 push	 OFFSET ??_C@_04JMLDJNEM@?$CIis?$CJ@
  000f3	ff 15 00 00 00
	00		 call	 DWORD PTR __imp__Py_BuildValue
  000f9	50		 push	 eax
  000fa	68 00 00 00 00	 push	 OFFSET ??_C@_0P@BFHKDLNH@OnCannotAttack@
  000ff	ff 77 08	 push	 DWORD PTR [edi+8]
  00102	e8 00 00 00 00	 call	 ?PyCallClassMemberFunc@@YA_NPAU_object@@PBD0@Z ; PyCallClassMemberFunc
  00107	83 c4 18	 add	 esp, 24			; 00000018H

; 918  : 		pkInstMain->NEW_Stop();

  0010a	8b cb		 mov	 ecx, ebx
  0010c	e8 00 00 00 00	 call	 ?NEW_Stop@CInstanceBase@@QAEXXZ ; CInstanceBase::NEW_Stop

; 948  : 	__ClearReservedAction();
; 949  : }

  00111	8b cf		 mov	 ecx, edi
  00113	e8 00 00 00 00	 call	 ?__ClearReservedAction@CPythonPlayer@@IAEXXZ ; CPythonPlayer::__ClearReservedAction
  00118	5f		 pop	 edi
  00119	5e		 pop	 esi
  0011a	5b		 pop	 ebx
  0011b	8b e5		 mov	 esp, ebp
  0011d	5d		 pop	 ebp
  0011e	c3		 ret	 0
$LN8@ReservePro:

; 919  : 		__ClearReservedAction();
; 920  : 		return;
; 921  : 	}
; 922  : 
; 923  : 	//      .
; 924  : 	if (__CheckDashAffect(*pkInstMain))

  0011f	53		 push	 ebx
  00120	8b cf		 mov	 ecx, edi
  00122	e8 00 00 00 00	 call	 ?__CheckDashAffect@CPythonPlayer@@IAE_NAAVCInstanceBase@@@Z ; CPythonPlayer::__CheckDashAffect
  00127	84 c0		 test	 al, al
  00129	75 74		 jne	 SHORT $LN1@ReservePro

; 925  : 	{
; 926  : 		return;
; 927  : 	}
; 928  : 
; 929  : 	/////
; 930  : 
; 931  : 	if (pkInstMain->IsBowMode())

  0012b	8b cb		 mov	 ecx, ebx
  0012d	e8 00 00 00 00	 call	 ?IsBowMode@CInstanceBase@@QAEHXZ ; CInstanceBase::IsBowMode
  00132	85 c0		 test	 eax, eax
  00134	74 30		 je	 SHORT $LN11@ReservePro

; 932  : 	{
; 933  : 		if (!__HasEnoughArrow())

  00136	8b cf		 mov	 ecx, edi
  00138	e8 00 00 00 00	 call	 ?__HasEnoughArrow@CPythonPlayer@@IAE_NXZ ; CPythonPlayer::__HasEnoughArrow
  0013d	84 c0		 test	 al, al
  0013f	75 25		 jne	 SHORT $LN11@ReservePro

; 934  : 		{
; 935  : 			PyCallClassMemberFunc(m_ppyGameWindow, "OnCannotShot", Py_BuildValue("(is)", GetMainCharacterIndex(), "EMPTY_ARROW"));

  00141	8b 47 04	 mov	 eax, DWORD PTR [edi+4]
  00144	8d 4f 04	 lea	 ecx, DWORD PTR [edi+4]
  00147	68 00 00 00 00	 push	 OFFSET ??_C@_0M@FBIHMJDM@EMPTY_ARROW@
  0014c	ff 50 04	 call	 DWORD PTR [eax+4]
  0014f	50		 push	 eax
  00150	68 00 00 00 00	 push	 OFFSET ??_C@_04JMLDJNEM@?$CIis?$CJ@
  00155	ff 15 00 00 00
	00		 call	 DWORD PTR __imp__Py_BuildValue
  0015b	50		 push	 eax
  0015c	68 00 00 00 00	 push	 OFFSET ??_C@_0N@OPOOJDCJ@OnCannotShot@

; 936  : 			pkInstMain->NEW_Stop();
; 937  : 			__ClearReservedAction();
; 938  : 			return;

  00161	e9 4e ff ff ff	 jmp	 $LN14@ReservePro
$LN11@ReservePro:

; 939  : 		}
; 940  : 	}
; 941  : 
; 942  : 	if (pkInstReserved->GetVirtualID() != GetTargetVID())

  00166	8b ce		 mov	 ecx, esi
  00168	e8 00 00 00 00	 call	 ?GetVirtualID@CInstanceBase@@QAEKXZ ; CInstanceBase::GetVirtualID
  0016d	8b cf		 mov	 ecx, edi
  0016f	8b f0		 mov	 esi, eax
  00171	e8 00 00 00 00	 call	 ?GetTargetVID@CPythonPlayer@@QAEKXZ ; CPythonPlayer::GetTargetVID
  00176	3b f0		 cmp	 esi, eax
  00178	74 14		 je	 SHORT $LN12@ReservePro

; 943  : 	{
; 944  : 		SetTarget(pkInstReserved->GetVirtualID());

  0017a	8b 4d fc	 mov	 ecx, DWORD PTR _pkInstReserved$1$[ebp]
  0017d	8b 77 04	 mov	 esi, DWORD PTR [edi+4]
  00180	6a 01		 push	 1
  00182	e8 00 00 00 00	 call	 ?GetVirtualID@CInstanceBase@@QAEKXZ ; CInstanceBase::GetVirtualID
  00187	50		 push	 eax
  00188	8d 4f 04	 lea	 ecx, DWORD PTR [edi+4]
  0018b	ff 56 60	 call	 DWORD PTR [esi+96]
$LN12@ReservePro:

; 945  : 	}
; 946  : 
; 947  : 	pkInstMain->NEW_AttackToDestInstanceDirection(*pkInstReserved);

  0018e	ff 75 fc	 push	 DWORD PTR _pkInstReserved$1$[ebp]
  00191	8b cb		 mov	 ecx, ebx
  00193	e8 00 00 00 00	 call	 ?NEW_AttackToDestInstanceDirection@CInstanceBase@@QAE_NAAV1@@Z ; CInstanceBase::NEW_AttackToDestInstanceDirection
$LN3@ReservePro:

; 948  : 	__ClearReservedAction();
; 949  : }

  00198	8b cf		 mov	 ecx, edi
  0019a	e8 00 00 00 00	 call	 ?__ClearReservedAction@CPythonPlayer@@IAEXXZ ; CPythonPlayer::__ClearReservedAction
$LN1@ReservePro:
  0019f	5f		 pop	 edi
  001a0	5e		 pop	 esi
  001a1	5b		 pop	 ebx
  001a2	8b e5		 mov	 esp, ebp
  001a4	5d		 pop	 ebp
  001a5	c3		 ret	 0
?__ReserveProcess_ClickActor@CPythonPlayer@@IAEXXZ ENDP	; CPythonPlayer::__ReserveProcess_ClickActor
_TEXT	ENDS
; Function compile flags: /Ogtp
; File D:\Metin2 Server Files\mainline\SRC_2014\Metin2Client\UserInterface\PythonPlayerInput.cpp
;	COMDAT ?__ReserveUseSkill@CPythonPlayer@@IAEXKKK@Z
_TEXT	SEGMENT
_dwActorID$ = 8						; size = 4
_dwSkillSlotIndex$ = 12					; size = 4
_dwRange$ = 16						; size = 4
?__ReserveUseSkill@CPythonPlayer@@IAEXKKK@Z PROC	; CPythonPlayer::__ReserveUseSkill, COMDAT
; _this$ = ecx

; 855  : {

  00000	55		 push	 ebp
  00001	8b ec		 mov	 ebp, esp

; 856  : 	m_eReservedMode=MODE_USE_SKILL;
; 857  : 	m_dwVIDReserved=dwActorID;

  00003	8b 45 08	 mov	 eax, DWORD PTR _dwActorID$[ebp]
  00006	89 81 44 f7 00
	00		 mov	 DWORD PTR [ecx+63300], eax

; 858  : 	m_dwSkillSlotIndexReserved=dwSkillSlotIndex;

  0000c	8b 45 0c	 mov	 eax, DWORD PTR _dwSkillSlotIndex$[ebp]
  0000f	89 81 50 f7 00
	00		 mov	 DWORD PTR [ecx+63312], eax

; 859  : 	m_dwSkillRangeReserved=dwRange;

  00015	8b 45 10	 mov	 eax, DWORD PTR _dwRange$[ebp]
  00018	c7 41 54 04 00
	00 00		 mov	 DWORD PTR [ecx+84], 4
  0001f	89 81 54 f7 00
	00		 mov	 DWORD PTR [ecx+63316], eax

; 860  : 
; 861  : 	// NOTE :       ..
; 862  : 	if (m_dwSkillRangeReserved > 100)

  00025	83 f8 64	 cmp	 eax, 100		; 00000064H
  00028	76 09		 jbe	 SHORT $LN2@ReserveUse

; 863  : 		m_dwSkillRangeReserved -= 10;

  0002a	83 c0 f6	 add	 eax, -10		; fffffff6H
  0002d	89 81 54 f7 00
	00		 mov	 DWORD PTR [ecx+63316], eax
$LN2@ReserveUse:

; 864  : }

  00033	5d		 pop	 ebp
  00034	c2 0c 00	 ret	 12			; 0000000cH
?__ReserveUseSkill@CPythonPlayer@@IAEXKKK@Z ENDP	; CPythonPlayer::__ReserveUseSkill
_TEXT	ENDS
; Function compile flags: /Ogtp
; File D:\Metin2 Server Files\mainline\SRC_2014\Metin2Client\UserInterface\PythonPlayerInput.cpp
;	COMDAT ?__ReserveClickGround@CPythonPlayer@@IAEXABUD3DXVECTOR3@@@Z
_TEXT	SEGMENT
_c_rkPPosPickedGround$ = 8				; size = 4
?__ReserveClickGround@CPythonPlayer@@IAEXABUD3DXVECTOR3@@@Z PROC ; CPythonPlayer::__ReserveClickGround, COMDAT
; _this$ = ecx

; 837  : {

  00000	55		 push	 ebp
  00001	8b ec		 mov	 ebp, esp

; 838  : 	m_eReservedMode=MODE_CLICK_POSITION;
; 839  : 	m_kPPosReserved=c_rkPPosPickedGround;

  00003	8b 45 08	 mov	 eax, DWORD PTR _c_rkPPosPickedGround$[ebp]
  00006	c7 41 54 01 00
	00 00		 mov	 DWORD PTR [ecx+84], 1
  0000d	f3 0f 7e 00	 movq	 xmm0, QWORD PTR [eax]
  00011	66 0f d6 81 64
	f7 00 00	 movq	 QWORD PTR [ecx+63332], xmm0
  00019	8b 40 08	 mov	 eax, DWORD PTR [eax+8]
  0001c	89 81 6c f7 00
	00		 mov	 DWORD PTR [ecx+63340], eax

; 840  : 	m_fReservedDelayTime=0.1f;

  00022	c7 41 58 cd cc
	cc 3d		 mov	 DWORD PTR [ecx+88], 1036831949 ; 3dcccccdH

; 841  : }

  00029	5d		 pop	 ebp
  0002a	c2 04 00	 ret	 4
?__ReserveClickGround@CPythonPlayer@@IAEXABUD3DXVECTOR3@@@Z ENDP ; CPythonPlayer::__ReserveClickGround
_TEXT	ENDS
; Function compile flags: /Ogtp
; File D:\Metin2 Server Files\mainline\SRC_2014\Metin2Client\UserInterface\PythonPlayerInput.cpp
;	COMDAT ?__ReserveClickActor@CPythonPlayer@@IAEXK@Z
_TEXT	SEGMENT
_dwActorID$ = 8						; size = 4
?__ReserveClickActor@CPythonPlayer@@IAEXK@Z PROC	; CPythonPlayer::__ReserveClickActor, COMDAT
; _this$ = ecx

; 831  : {

  00000	55		 push	 ebp
  00001	8b ec		 mov	 ebp, esp

; 832  : 	m_eReservedMode=MODE_CLICK_ACTOR;
; 833  : 	m_dwVIDReserved=dwActorID;

  00003	8b 45 08	 mov	 eax, DWORD PTR _dwActorID$[ebp]
  00006	c7 41 54 03 00
	00 00		 mov	 DWORD PTR [ecx+84], 3
  0000d	89 81 44 f7 00
	00		 mov	 DWORD PTR [ecx+63300], eax

; 834  : }

  00013	5d		 pop	 ebp
  00014	c2 04 00	 ret	 4
?__ReserveClickActor@CPythonPlayer@@IAEXK@Z ENDP	; CPythonPlayer::__ReserveClickActor
_TEXT	ENDS
; Function compile flags: /Ogtp
; File D:\Metin2 Server Files\mainline\SRC_2014\Metin2Client\UserInterface\PythonPlayerInput.cpp
;	COMDAT ?__ReserveClickItem@CPythonPlayer@@IAEXK@Z
_TEXT	SEGMENT
_dwItemID$ = 8						; size = 4
?__ReserveClickItem@CPythonPlayer@@IAEXK@Z PROC		; CPythonPlayer::__ReserveClickItem, COMDAT
; _this$ = ecx

; 825  : {

  00000	55		 push	 ebp
  00001	8b ec		 mov	 ebp, esp

; 826  : 	m_eReservedMode=MODE_CLICK_ITEM;
; 827  : 	m_dwIIDReserved=dwItemID;

  00003	8b 45 08	 mov	 eax, DWORD PTR _dwItemID$[ebp]
  00006	c7 41 54 02 00
	00 00		 mov	 DWORD PTR [ecx+84], 2
  0000d	89 81 48 f7 00
	00		 mov	 DWORD PTR [ecx+63304], eax

; 828  : }

  00013	5d		 pop	 ebp
  00014	c2 04 00	 ret	 4
?__ReserveClickItem@CPythonPlayer@@IAEXK@Z ENDP		; CPythonPlayer::__ReserveClickItem
_TEXT	ENDS
; Function compile flags: /Ogtp
; File D:\Metin2 Server Files\mainline\SRC_2014\Metin2Client\UserInterface\PythonPlayerInput.cpp
;	COMDAT ?__ClearReservedAction@CPythonPlayer@@IAEXXZ
_TEXT	SEGMENT
?__ClearReservedAction@CPythonPlayer@@IAEXXZ PROC	; CPythonPlayer::__ClearReservedAction, COMDAT
; _this$ = ecx

; 821  : 	m_eReservedMode=MODE_NONE;

  00000	c7 41 54 00 00
	00 00		 mov	 DWORD PTR [ecx+84], 0

; 822  : }

  00007	c3		 ret	 0
?__ClearReservedAction@CPythonPlayer@@IAEXXZ ENDP	; CPythonPlayer::__ClearReservedAction
_TEXT	ENDS
; Function compile flags: /Ogtp
; File D:\Metin2 Server Files\mainline\SRC_2014\Metin2Client\UserInterface\PythonPlayerInput.cpp
;	COMDAT ?__IsMovableGroundDistance@CPythonPlayer@@IAE_NAAVCInstanceBase@@ABUD3DXVECTOR3@@@Z
_TEXT	SEGMENT
_rkInstMain$ = 8					; size = 4
_fDistance$ = 12					; size = 4
_c_rkPPosPickedGround$ = 12				; size = 4
?__IsMovableGroundDistance@CPythonPlayer@@IAE_NAAVCInstanceBase@@ABUD3DXVECTOR3@@@Z PROC ; CPythonPlayer::__IsMovableGroundDistance, COMDAT
; _this$ = ecx

; 409  : {	

  00000	55		 push	 ebp
  00001	8b ec		 mov	 ebp, esp
  00003	56		 push	 esi

; 410  : 	float fDistance=rkInstMain.NEW_GetDistanceFromDestPixelPosition(c_rkPPosPickedGround);	

  00004	ff 75 0c	 push	 DWORD PTR _c_rkPPosPickedGround$[ebp]
  00007	8b f1		 mov	 esi, ecx
  00009	8b 4d 08	 mov	 ecx, DWORD PTR _rkInstMain$[ebp]
  0000c	e8 00 00 00 00	 call	 ?NEW_GetDistanceFromDestPixelPosition@CInstanceBase@@QAEMABUD3DXVECTOR3@@@Z ; CInstanceBase::NEW_GetDistanceFromDestPixelPosition

; 411  : 
; 412  : 	if (fDistance<MOVABLE_GROUND_DISTANCE)

  00011	f3 0f 10 86 18
	f8 00 00	 movss	 xmm0, DWORD PTR [esi+63512]
  00019	d9 5d 0c	 fstp	 DWORD PTR _fDistance$[ebp]
  0001c	0f 2f 45 0c	 comiss	 xmm0, DWORD PTR _fDistance$[ebp]
  00020	5e		 pop	 esi
  00021	0f 96 c0	 setbe	 al

; 413  : 		return false;
; 414  : 
; 415  : 	//Tracef("IsMovableGroundDistance(%f)\n", fDistance);
; 416  : 	return true;
; 417  : }

  00024	5d		 pop	 ebp
  00025	c2 08 00	 ret	 8
?__IsMovableGroundDistance@CPythonPlayer@@IAE_NAAVCInstanceBase@@ABUD3DXVECTOR3@@@Z ENDP ; CPythonPlayer::__IsMovableGroundDistance
_TEXT	ENDS
; Function compile flags: /Ogtp
; File D:\Metin2 Server Files\mainline\SRC_2014\Metin2Client\UserInterface\PythonPlayerInput.cpp
;	COMDAT ?__OnClickGround@CPythonPlayer@@IAEXAAVCInstanceBase@@ABUD3DXVECTOR3@@@Z
_TEXT	SEGMENT
_rkInstMain$ = 8					; size = 4
_c_rkPPosPickedGround$ = 12				; size = 4
?__OnClickGround@CPythonPlayer@@IAEXAAVCInstanceBase@@ABUD3DXVECTOR3@@@Z PROC ; CPythonPlayer::__OnClickGround, COMDAT
; _this$ = ecx

; 395  : {

  00000	55		 push	 ebp
  00001	8b ec		 mov	 ebp, esp
  00003	56		 push	 esi

; 396  : 	if (!__IsMovableGroundDistance(rkInstMain, c_rkPPosPickedGround))

  00004	8b 75 0c	 mov	 esi, DWORD PTR _c_rkPPosPickedGround$[ebp]
  00007	57		 push	 edi
  00008	56		 push	 esi
  00009	ff 75 08	 push	 DWORD PTR _rkInstMain$[ebp]
  0000c	8b f9		 mov	 edi, ecx
  0000e	e8 00 00 00 00	 call	 ?__IsMovableGroundDistance@CPythonPlayer@@IAE_NAAVCInstanceBase@@ABUD3DXVECTOR3@@@Z ; CPythonPlayer::__IsMovableGroundDistance
  00013	84 c0		 test	 al, al
  00015	74 15		 je	 SHORT $LN3@OnClickGro

; 397  : 		return;
; 398  : 
; 399  : 	if (rkInstMain.NEW_MoveToDestPixelPositionDirection(c_rkPPosPickedGround))

  00017	8b 4d 08	 mov	 ecx, DWORD PTR _rkInstMain$[ebp]
  0001a	56		 push	 esi
  0001b	e8 00 00 00 00	 call	 ?NEW_MoveToDestPixelPositionDirection@CInstanceBase@@QAE_NABUD3DXVECTOR3@@@Z ; CInstanceBase::NEW_MoveToDestPixelPositionDirection
  00020	84 c0		 test	 al, al
  00022	74 08		 je	 SHORT $LN3@OnClickGro

; 400  : 		__ShowPickedEffect(c_rkPPosPickedGround);

  00024	56		 push	 esi
  00025	8b cf		 mov	 ecx, edi
  00027	e8 00 00 00 00	 call	 ?__ShowPickedEffect@CPythonPlayer@@IAEXABUD3DXVECTOR3@@@Z ; CPythonPlayer::__ShowPickedEffect
$LN3@OnClickGro:

; 401  : }

  0002c	5f		 pop	 edi
  0002d	5e		 pop	 esi
  0002e	5d		 pop	 ebp
  0002f	c2 08 00	 ret	 8
?__OnClickGround@CPythonPlayer@@IAEXAAVCInstanceBase@@ABUD3DXVECTOR3@@@Z ENDP ; CPythonPlayer::__OnClickGround
_TEXT	ENDS
; Function compile flags: /Ogtp
; File D:\Metin2 Server Files\mainline\SRC_2014\Metin2Client\UserInterface\PythonPlayerInput.cpp
;	COMDAT ?__OnClickItem@CPythonPlayer@@IAEXAAVCInstanceBase@@K@Z
_TEXT	SEGMENT
_rkInstMain$ = 8					; size = 4
_dwItemID$ = 12						; size = 4
?__OnClickItem@CPythonPlayer@@IAEXAAVCInstanceBase@@K@Z PROC ; CPythonPlayer::__OnClickItem, COMDAT
; _this$ = ecx

; 258  : }

  00000	c2 08 00	 ret	 8
?__OnClickItem@CPythonPlayer@@IAEXAAVCInstanceBase@@K@Z ENDP ; CPythonPlayer::__OnClickItem
_TEXT	ENDS
; Function compile flags: /Ogtp
; File D:\Metin2 Server Files\mainline\SRC_2014\Metin2Client\UserInterface\PythonPlayerInput.cpp
;	COMDAT ?__OnClickActor@CPythonPlayer@@IAEXAAVCInstanceBase@@K_N@Z
_TEXT	SEGMENT
_rkInstMain$ = 8					; size = 4
_dwPickedActorID$ = 12					; size = 4
_isAuto$ = 16						; size = 1
?__OnClickActor@CPythonPlayer@@IAEXAAVCInstanceBase@@K_N@Z PROC ; CPythonPlayer::__OnClickActor, COMDAT
; _this$ = ecx

; 261  : {

  00000	55		 push	 ebp
  00001	8b ec		 mov	 ebp, esp
  00003	56		 push	 esi
  00004	8b f1		 mov	 esi, ecx
  00006	57		 push	 edi

; 262  : 	//    ..
; 263  : 	if (MODE_USE_SKILL == m_eReservedMode)

  00007	8b 7d 0c	 mov	 edi, DWORD PTR _dwPickedActorID$[ebp]
  0000a	83 7e 54 04	 cmp	 DWORD PTR [esi+84], 4
  0000e	75 27		 jne	 SHORT $LN4@OnClickAct

; 264  : 	{
; 265  : 		//     
; 266  : 		if (__GetTargetVID() == dwPickedActorID)

  00010	e8 00 00 00 00	 call	 ?__GetTargetVID@CPythonPlayer@@IAEKXZ ; CPythonPlayer::__GetTargetVID
  00015	3b c7		 cmp	 eax, edi
  00017	0f 84 80 00 00
	00		 je	 $LN1@OnClickAct

; 267  : 			return;
; 268  : 
; 269  : 		// 2005.03.25.levites
; 270  : 		//         
; 271  : 		if (__CheckDashAffect(rkInstMain))

  0001d	ff 75 08	 push	 DWORD PTR _rkInstMain$[ebp]
  00020	8b ce		 mov	 ecx, esi
  00022	e8 00 00 00 00	 call	 ?__CheckDashAffect@CPythonPlayer@@IAE_NAAVCInstanceBase@@@Z ; CPythonPlayer::__CheckDashAffect
  00027	84 c0		 test	 al, al
  00029	74 0c		 je	 SHORT $LN4@OnClickAct

; 272  : 		{
; 273  : 			m_dwVIDReserved = dwPickedActorID;

  0002b	89 be 44 f7 00
	00		 mov	 DWORD PTR [esi+63300], edi
  00031	5f		 pop	 edi

; 303  : 	return;
; 304  : }

  00032	5e		 pop	 esi
  00033	5d		 pop	 ebp
  00034	c2 0c 00	 ret	 12			; 0000000cH
$LN4@OnClickAct:
  00037	53		 push	 ebx

; 274  : 			return;
; 275  : 		}
; 276  : 	}
; 277  : 
; 278  : 	__ClearReservedAction();

  00038	8b ce		 mov	 ecx, esi
  0003a	e8 00 00 00 00	 call	 ?__ClearReservedAction@CPythonPlayer@@IAEXXZ ; CPythonPlayer::__ClearReservedAction

; 279  : 
; 280  : 	CInstanceBase* pkInstVictim=NEW_FindActorPtr(dwPickedActorID);

  0003f	57		 push	 edi
  00040	8b ce		 mov	 ecx, esi
  00042	e8 00 00 00 00	 call	 ?NEW_FindActorPtr@CPythonPlayer@@QAEPAVCInstanceBase@@K@Z ; CPythonPlayer::NEW_FindActorPtr
  00047	8b d8		 mov	 ebx, eax

; 281  : 	CInstanceBase& rkInstVictim=*pkInstVictim;
; 282  : 	if (!pkInstVictim)

  00049	85 db		 test	 ebx, ebx
  0004b	74 4f		 je	 SHORT $LN11@OnClickAct

; 283  : 		return;
; 284  : 	
; 285  : 	// 2005.01.28.myevan
; 286  : 	//     NPC 
; 287  : 	if (rkInstMain.IsAttackableInstance(*pkInstVictim))

  0004d	8b 4d 08	 mov	 ecx, DWORD PTR _rkInstMain$[ebp]
  00050	53		 push	 ebx
  00051	e8 00 00 00 00	 call	 ?IsAttackableInstance@CInstanceBase@@QAE_NAAV1@@Z ; CInstanceBase::IsAttackableInstance
  00056	84 c0		 test	 al, al
  00058	74 0b		 je	 SHORT $LN7@OnClickAct

; 288  : 		if (!__CanAttack())

  0005a	8b ce		 mov	 ecx, esi
  0005c	e8 00 00 00 00	 call	 ?__CanAttack@CPythonPlayer@@IAE_NXZ ; CPythonPlayer::__CanAttack
  00061	84 c0		 test	 al, al
  00063	74 37		 je	 SHORT $LN11@OnClickAct
$LN7@OnClickAct:

; 289  : 			return;
; 290  : 
; 291  : 	if (!rkInstMain.NEW_IsClickableDistanceDestInstance(rkInstVictim))

  00065	8b 4d 08	 mov	 ecx, DWORD PTR _rkInstMain$[ebp]
  00068	53		 push	 ebx
  00069	e8 00 00 00 00	 call	 ?NEW_IsClickableDistanceDestInstance@CInstanceBase@@QAEHAAV1@@Z ; CInstanceBase::NEW_IsClickableDistanceDestInstance
  0006e	85 c0		 test	 eax, eax
  00070	75 0f		 jne	 SHORT $LN8@OnClickAct

; 292  : 	{
; 293  : 		__ReserveClickActor(dwPickedActorID);

  00072	57		 push	 edi
  00073	8b ce		 mov	 ecx, esi
  00075	e8 00 00 00 00	 call	 ?__ReserveClickActor@CPythonPlayer@@IAEXK@Z ; CPythonPlayer::__ReserveClickActor
  0007a	5b		 pop	 ebx
  0007b	5f		 pop	 edi

; 303  : 	return;
; 304  : }

  0007c	5e		 pop	 esi
  0007d	5d		 pop	 ebp
  0007e	c2 0c 00	 ret	 12			; 0000000cH
$LN8@OnClickAct:

; 294  : 		return;
; 295  : 	}
; 296  : 
; 297  : 	if (rkInstVictim.IsNPC())

  00081	8b cb		 mov	 ecx, ebx
  00083	e8 00 00 00 00	 call	 ?IsNPC@CInstanceBase@@QAEHXZ ; CInstanceBase::IsNPC
  00088	85 c0		 test	 eax, eax
  0008a	74 08		 je	 SHORT $LN9@OnClickAct

; 298  : 	{
; 299  : 		__SendClickActorPacket(rkInstVictim);

  0008c	53		 push	 ebx
  0008d	8b ce		 mov	 ecx, esi
  0008f	e8 00 00 00 00	 call	 ?__SendClickActorPacket@CPythonPlayer@@IAEXAAVCInstanceBase@@@Z ; CPythonPlayer::__SendClickActorPacket
$LN9@OnClickAct:

; 300  : 	}
; 301  : 
; 302  : 	rkInstMain.NEW_Stop();

  00094	8b 4d 08	 mov	 ecx, DWORD PTR _rkInstMain$[ebp]
  00097	e8 00 00 00 00	 call	 ?NEW_Stop@CInstanceBase@@QAEXXZ ; CInstanceBase::NEW_Stop
$LN11@OnClickAct:
  0009c	5b		 pop	 ebx
$LN1@OnClickAct:
  0009d	5f		 pop	 edi

; 303  : 	return;
; 304  : }

  0009e	5e		 pop	 esi
  0009f	5d		 pop	 ebp
  000a0	c2 0c 00	 ret	 12			; 0000000cH
?__OnClickActor@CPythonPlayer@@IAEXAAVCInstanceBase@@K_N@Z ENDP ; CPythonPlayer::__OnClickActor
_TEXT	ENDS
; Function compile flags: /Ogtp
; File D:\Metin2 Server Files\mainline\SRC_2014\Metin2Client\UserInterface\PythonPlayerInput.cpp
;	COMDAT ?__OnPressScreen@CPythonPlayer@@IAEXAAVCInstanceBase@@@Z
_TEXT	SEGMENT
_rkInstMain$ = 8					; size = 4
?__OnPressScreen@CPythonPlayer@@IAEXAAVCInstanceBase@@@Z PROC ; CPythonPlayer::__OnPressScreen, COMDAT
; _this$ = ecx

; 438  : {

  00000	56		 push	 esi
  00001	8b f1		 mov	 esi, ecx

; 439  : 	__ClearReservedAction();

  00003	e8 00 00 00 00	 call	 ?__ClearReservedAction@CPythonPlayer@@IAEXXZ ; CPythonPlayer::__ClearReservedAction

; 440  : 
; 441  : 	NEW_MoveToMouseScreenDirection();

  00008	8b ce		 mov	 ecx, esi
  0000a	e8 00 00 00 00	 call	 ?NEW_MoveToMouseScreenDirection@CPythonPlayer@@QAE_NXZ ; CPythonPlayer::NEW_MoveToMouseScreenDirection
  0000f	5e		 pop	 esi

; 442  : }

  00010	c2 04 00	 ret	 4
?__OnPressScreen@CPythonPlayer@@IAEXAAVCInstanceBase@@@Z ENDP ; CPythonPlayer::__OnPressScreen
_TEXT	ENDS
; Function compile flags: /Ogtp
; File D:\Metin2 Server Files\mainline\SRC_2014\Metin2Client\UserInterface\PythonPlayerInput.cpp
;	COMDAT ?__OnPressGround@CPythonPlayer@@IAEXAAVCInstanceBase@@ABUD3DXVECTOR3@@@Z
_TEXT	SEGMENT
_rkInstMain$ = 8					; size = 4
_c_rkPPosPickedGround$ = 12				; size = 4
?__OnPressGround@CPythonPlayer@@IAEXAAVCInstanceBase@@ABUD3DXVECTOR3@@@Z PROC ; CPythonPlayer::__OnPressGround, COMDAT
; _this$ = ecx

; 420  : {

  00000	55		 push	 ebp
  00001	8b ec		 mov	 ebp, esp
  00003	56		 push	 esi
  00004	8b f1		 mov	 esi, ecx

; 421  : 	__ClearReservedAction();

  00006	e8 00 00 00 00	 call	 ?__ClearReservedAction@CPythonPlayer@@IAEXXZ ; CPythonPlayer::__ClearReservedAction

; 422  : 	__ClearAutoAttackTargetActorID();

  0000b	8b ce		 mov	 ecx, esi
  0000d	e8 00 00 00 00	 call	 ?__ClearAutoAttackTargetActorID@CPythonPlayer@@IAEXXZ ; CPythonPlayer::__ClearAutoAttackTargetActorID

; 423  : 
; 424  : 	if (NEW_CancelFishing())

  00012	8b ce		 mov	 ecx, esi
  00014	e8 00 00 00 00	 call	 ?NEW_CancelFishing@CPythonPlayer@@QAE_NXZ ; CPythonPlayer::NEW_CancelFishing
  00019	84 c0		 test	 al, al
  0001b	75 29		 jne	 SHORT $LN4@OnPressGro

; 425  : 		return;
; 426  : 
; 427  : 	if (!__IsMovableGroundDistance(rkInstMain, c_rkPPosPickedGround))

  0001d	57		 push	 edi
  0001e	8b 7d 0c	 mov	 edi, DWORD PTR _c_rkPPosPickedGround$[ebp]
  00021	8b ce		 mov	 ecx, esi
  00023	57		 push	 edi
  00024	ff 75 08	 push	 DWORD PTR _rkInstMain$[ebp]
  00027	e8 00 00 00 00	 call	 ?__IsMovableGroundDistance@CPythonPlayer@@IAE_NAAVCInstanceBase@@ABUD3DXVECTOR3@@@Z ; CPythonPlayer::__IsMovableGroundDistance
  0002c	84 c0		 test	 al, al
  0002e	74 15		 je	 SHORT $LN6@OnPressGro

; 428  : 		return;
; 429  : 
; 430  : 	if (!rkInstMain.NEW_MoveToDestPixelPositionDirection(c_rkPPosPickedGround))

  00030	8b 4d 08	 mov	 ecx, DWORD PTR _rkInstMain$[ebp]
  00033	57		 push	 edi
  00034	e8 00 00 00 00	 call	 ?NEW_MoveToDestPixelPositionDirection@CInstanceBase@@QAE_NABUD3DXVECTOR3@@@Z ; CInstanceBase::NEW_MoveToDestPixelPositionDirection
  00039	84 c0		 test	 al, al
  0003b	75 08		 jne	 SHORT $LN6@OnPressGro

; 431  : 	{
; 432  : 		__ReserveClickGround(c_rkPPosPickedGround);

  0003d	57		 push	 edi
  0003e	8b ce		 mov	 ecx, esi
  00040	e8 00 00 00 00	 call	 ?__ReserveClickGround@CPythonPlayer@@IAEXABUD3DXVECTOR3@@@Z ; CPythonPlayer::__ReserveClickGround
$LN6@OnPressGro:
  00045	5f		 pop	 edi
$LN4@OnPressGro:
  00046	5e		 pop	 esi

; 433  : 		return;
; 434  : 	}
; 435  : }

  00047	5d		 pop	 ebp
  00048	c2 08 00	 ret	 8
?__OnPressGround@CPythonPlayer@@IAEXAAVCInstanceBase@@ABUD3DXVECTOR3@@@Z ENDP ; CPythonPlayer::__OnPressGround
_TEXT	ENDS
; Function compile flags: /Ogtp
; File D:\Metin2 Server Files\mainline\SRC_2014\Metin2Client\UserInterface\PythonPlayerInput.cpp
; File D:\Metin2 Server Files\mainline\SRC_2014\Metin2Client\UserInterface\PythonPlayerEventHandler.h
; File D:\Metin2 Server Files\mainline\SRC_2014\Metin2Client\UserInterface\PythonPlayerInput.cpp
;	COMDAT ?__OnPressActor@CPythonPlayer@@IAEXAAVCInstanceBase@@K_N@Z
_TEXT	SEGMENT
_rkInstMain$ = 8					; size = 4
_dwPickedActorID$ = 12					; size = 4
_isAuto$ = 16						; size = 1
?__OnPressActor@CPythonPlayer@@IAEXAAVCInstanceBase@@K_N@Z PROC ; CPythonPlayer::__OnPressActor, COMDAT
; _this$ = ecx

; 307  : {

  00000	55		 push	 ebp
  00001	8b ec		 mov	 ebp, esp
  00003	53		 push	 ebx
  00004	56		 push	 esi
  00005	8b f1		 mov	 esi, ecx
  00007	57		 push	 edi

; 308  : 	//    ..
; 309  : 	if (MODE_USE_SKILL == m_eReservedMode)

  00008	8b 7d 08	 mov	 edi, DWORD PTR _rkInstMain$[ebp]
  0000b	83 7e 54 04	 cmp	 DWORD PTR [esi+84], 4
  0000f	75 29		 jne	 SHORT $LN17@OnPressAct

; 310  : 	{
; 311  : 		//     
; 312  : 		if (__GetTargetVID() == dwPickedActorID)

  00011	e8 00 00 00 00	 call	 ?__GetTargetVID@CPythonPlayer@@IAEKXZ ; CPythonPlayer::__GetTargetVID
  00016	8b 5d 0c	 mov	 ebx, DWORD PTR _dwPickedActorID$[ebp]
  00019	3b c3		 cmp	 eax, ebx
  0001b	0f 84 d4 00 00
	00		 je	 $LN1@OnPressAct

; 313  : 			return;
; 314  : 
; 315  : 		// 2005.03.25.levites
; 316  : 		//         
; 317  : 		if (__CheckDashAffect(rkInstMain))

  00021	57		 push	 edi
  00022	8b ce		 mov	 ecx, esi
  00024	e8 00 00 00 00	 call	 ?__CheckDashAffect@CPythonPlayer@@IAE_NAAVCInstanceBase@@@Z ; CPythonPlayer::__CheckDashAffect
  00029	84 c0		 test	 al, al
  0002b	74 10		 je	 SHORT $LN4@OnPressAct

; 318  : 		{
; 319  : 			m_dwVIDReserved = dwPickedActorID;

  0002d	5f		 pop	 edi
  0002e	89 9e 44 f7 00
	00		 mov	 DWORD PTR [esi+63300], ebx

; 363  : }

  00034	5e		 pop	 esi
  00035	5b		 pop	 ebx
  00036	5d		 pop	 ebp
  00037	c2 0c 00	 ret	 12			; 0000000cH
$LN17@OnPressAct:

; 308  : 	//    ..
; 309  : 	if (MODE_USE_SKILL == m_eReservedMode)

  0003a	8b 5d 0c	 mov	 ebx, DWORD PTR _dwPickedActorID$[ebp]
$LN4@OnPressAct:

; 320  : 			return;
; 321  : 		}
; 322  : 	}
; 323  : 
; 324  : 	__ChangeTargetToPickedInstance();

  0003d	8b ce		 mov	 ecx, esi
  0003f	e8 00 00 00 00	 call	 ?__ChangeTargetToPickedInstance@CPythonPlayer@@IAE_NXZ ; CPythonPlayer::__ChangeTargetToPickedInstance

; 325  : 	__ClearReservedAction();

  00044	8b ce		 mov	 ecx, esi
  00046	e8 00 00 00 00	 call	 ?__ClearReservedAction@CPythonPlayer@@IAEXXZ ; CPythonPlayer::__ClearReservedAction

; 326  : 
; 327  : 	if (!__CanAttack())

  0004b	8b ce		 mov	 ecx, esi
  0004d	e8 00 00 00 00	 call	 ?__CanAttack@CPythonPlayer@@IAE_NXZ ; CPythonPlayer::__CanAttack
  00052	84 c0		 test	 al, al
  00054	0f 84 9b 00 00
	00		 je	 $LN1@OnPressAct

; 328  : 		return;
; 329  : 
; 330  : 	CInstanceBase* pkInstVictim=NEW_FindActorPtr(dwPickedActorID);

  0005a	53		 push	 ebx
  0005b	8b ce		 mov	 ecx, esi
  0005d	e8 00 00 00 00	 call	 ?NEW_FindActorPtr@CPythonPlayer@@QAEPAVCInstanceBase@@K@Z ; CPythonPlayer::NEW_FindActorPtr
  00062	8b d8		 mov	 ebx, eax

; 331  : 	if (!pkInstVictim)

  00064	85 db		 test	 ebx, ebx
  00066	0f 84 89 00 00
	00		 je	 $LN1@OnPressAct

; 332  : 		return;
; 333  : 
; 334  : 	CInstanceBase& rkInstVictim=*pkInstVictim;
; 335  : 
; 336  : 	if (isAuto)

  0006c	80 7d 10 00	 cmp	 BYTE PTR _isAuto$[ebp], 0
  00070	74 1b		 je	 SHORT $LN8@OnPressAct

; 337  : 	{
; 338  : 		// 2004.10.21.myevan.   
; 339  : 		if (rkInstMain.IsAttackableInstance(rkInstVictim))

  00072	53		 push	 ebx
  00073	8b cf		 mov	 ecx, edi
  00075	e8 00 00 00 00	 call	 ?IsAttackableInstance@CInstanceBase@@QAE_NAAV1@@Z ; CInstanceBase::IsAttackableInstance
  0007a	84 c0		 test	 al, al
  0007c	74 0f		 je	 SHORT $LN8@OnPressAct

; 340  : 			__SetAutoAttackTargetActorID(rkInstVictim.GetVirtualID());

  0007e	8b cb		 mov	 ecx, ebx
  00080	e8 00 00 00 00	 call	 ?GetVirtualID@CInstanceBase@@QAEKXZ ; CInstanceBase::GetVirtualID
  00085	50		 push	 eax
  00086	8b ce		 mov	 ecx, esi
  00088	e8 00 00 00 00	 call	 ?__SetAutoAttackTargetActorID@CPythonPlayer@@IAEXK@Z ; CPythonPlayer::__SetAutoAttackTargetActorID
$LN8@OnPressAct:

; 341  : 	}
; 342  : 
; 343  : 	if (rkInstMain.IsBowMode())

  0008d	8b cf		 mov	 ecx, edi
  0008f	e8 00 00 00 00	 call	 ?IsBowMode@CInstanceBase@@QAEHXZ ; CInstanceBase::IsBowMode
  00094	85 c0		 test	 eax, eax
  00096	74 19		 je	 SHORT $LN11@OnPressAct

; 344  : 	{
; 345  : 		if (rkInstMain.IsAttackableInstance(rkInstVictim))

  00098	53		 push	 ebx
  00099	8b cf		 mov	 ecx, edi
  0009b	e8 00 00 00 00	 call	 ?IsAttackableInstance@CInstanceBase@@QAE_NAAV1@@Z ; CInstanceBase::IsAttackableInstance
  000a0	84 c0		 test	 al, al
  000a2	74 0d		 je	 SHORT $LN11@OnPressAct

; 346  : 			if (!__CanShot(rkInstMain, rkInstVictim))

  000a4	53		 push	 ebx
  000a5	57		 push	 edi
  000a6	8b ce		 mov	 ecx, esi
  000a8	e8 00 00 00 00	 call	 ?__CanShot@CPythonPlayer@@IAE_NAAVCInstanceBase@@0@Z ; CPythonPlayer::__CanShot
  000ad	84 c0		 test	 al, al
  000af	74 44		 je	 SHORT $LN1@OnPressAct
$LN11@OnPressAct:

; 347  : 				return;
; 348  : 	}
; 349  : 
; 350  : 	if (!rkInstMain.NEW_IsClickableDistanceDestInstance(rkInstVictim))

  000b1	53		 push	 ebx
  000b2	8b cf		 mov	 ecx, edi
  000b4	e8 00 00 00 00	 call	 ?NEW_IsClickableDistanceDestInstance@CInstanceBase@@QAEHAAV1@@Z ; CInstanceBase::NEW_IsClickableDistanceDestInstance
  000b9	85 c0		 test	 eax, eax
  000bb	75 11		 jne	 SHORT $LN12@OnPressAct

; 351  : 	{
; 352  : 		__ReserveClickActor(dwPickedActorID);

  000bd	ff 75 0c	 push	 DWORD PTR _dwPickedActorID$[ebp]
  000c0	8b ce		 mov	 ecx, esi
  000c2	e8 00 00 00 00	 call	 ?__ReserveClickActor@CPythonPlayer@@IAEXK@Z ; CPythonPlayer::__ReserveClickActor
  000c7	5f		 pop	 edi

; 363  : }

  000c8	5e		 pop	 esi
  000c9	5b		 pop	 ebx
  000ca	5d		 pop	 ebp
  000cb	c2 0c 00	 ret	 12			; 0000000cH
$LN12@OnPressAct:

; 353  : 		return;
; 354  : 	}
; 355  : 
; 356  : 	if (!rkInstMain.IsAttackableInstance(rkInstVictim))

  000ce	53		 push	 ebx
  000cf	8b cf		 mov	 ecx, edi
  000d1	e8 00 00 00 00	 call	 ?IsAttackableInstance@CInstanceBase@@QAE_NAAV1@@Z ; CInstanceBase::IsAttackableInstance
  000d6	84 c0		 test	 al, al
  000d8	74 1b		 je	 SHORT $LN1@OnPressAct

; 357  : 	{
; 358  : 		return;
; 359  : 	}
; 360  : 
; 361  : 	CPythonPlayerEventHandler& rkPlayerEventHandler=CPythonPlayerEventHandler::GetSingleton();

