; Listing generated by Microsoft (R) Optimizing Compiler Version 19.28.29335.0 

	TITLE	D:\Metin2 Server Files\mainline\SRC_2014\Metin2Client\UserInterface\PythonPlayerSkill.cpp
	.686P
	.XMM
	include listing.inc
	.model	flat

INCLUDELIB LIBCMT
INCLUDELIB OLDNAMES

PUBLIC	??_7?$CDynamicPoolEx@VCTextureAnimationRandomDecorator@NEffectUpdateDecorator@@@@6B@ ; CDynamicPoolEx<NEffectUpdateDecorator::CTextureAnimationRandomDecorator>::`vftable'
PUBLIC	??_G?$CDynamicPoolEx@VCTextureAnimationRandomDecorator@NEffectUpdateDecorator@@@@UAEPAXI@Z ; CDynamicPoolEx<NEffectUpdateDecorator::CTextureAnimationRandomDecorator>::`scalar deleting destructor'
PUBLIC	??_7?$CDynamicPoolEx@VCTextureAnimationCCWDecorator@NEffectUpdateDecorator@@@@6B@ ; CDynamicPoolEx<NEffectUpdateDecorator::CTextureAnimationCCWDecorator>::`vftable'
PUBLIC	??_G?$CDynamicPoolEx@VCTextureAnimationCCWDecorator@NEffectUpdateDecorator@@@@UAEPAXI@Z ; CDynamicPoolEx<NEffectUpdateDecorator::CTextureAnimationCCWDecorator>::`scalar deleting destructor'
PUBLIC	??_7?$CDynamicPoolEx@VCTextureAnimationCWDecorator@NEffectUpdateDecorator@@@@6B@ ; CDynamicPoolEx<NEffectUpdateDecorator::CTextureAnimationCWDecorator>::`vftable'
PUBLIC	??_G?$CDynamicPoolEx@VCTextureAnimationCWDecorator@NEffectUpdateDecorator@@@@UAEPAXI@Z ; CDynamicPoolEx<NEffectUpdateDecorator::CTextureAnimationCWDecorator>::`scalar deleting destructor'
PUBLIC	??_7?$CDynamicPoolEx@VCNullDecorator@NEffectUpdateDecorator@@@@6B@ ; CDynamicPoolEx<NEffectUpdateDecorator::CNullDecorator>::`vftable'
PUBLIC	??_G?$CDynamicPoolEx@VCNullDecorator@NEffectUpdateDecorator@@@@UAEPAXI@Z ; CDynamicPoolEx<NEffectUpdateDecorator::CNullDecorator>::`scalar deleting destructor'
PUBLIC	??_7?$CDynamicPoolEx@VCHeaderDecorator@NEffectUpdateDecorator@@@@6B@ ; CDynamicPoolEx<NEffectUpdateDecorator::CHeaderDecorator>::`vftable'
PUBLIC	??_G?$CDynamicPoolEx@VCHeaderDecorator@NEffectUpdateDecorator@@@@UAEPAXI@Z ; CDynamicPoolEx<NEffectUpdateDecorator::CHeaderDecorator>::`scalar deleting destructor'
PUBLIC	??_R4?$CDynamicPoolEx@VCHeaderDecorator@NEffectUpdateDecorator@@@@6B@ ; CDynamicPoolEx<NEffectUpdateDecorator::CHeaderDecorator>::`RTTI Complete Object Locator'
PUBLIC	??_R0?AV?$CDynamicPoolEx@VCHeaderDecorator@NEffectUpdateDecorator@@@@@8 ; CDynamicPoolEx<NEffectUpdateDecorator::CHeaderDecorator> `RTTI Type Descriptor'
PUBLIC	??_R3?$CDynamicPoolEx@VCHeaderDecorator@NEffectUpdateDecorator@@@@8 ; CDynamicPoolEx<NEffectUpdateDecorator::CHeaderDecorator>::`RTTI Class Hierarchy Descriptor'
PUBLIC	??_R2?$CDynamicPoolEx@VCHeaderDecorator@NEffectUpdateDecorator@@@@8 ; CDynamicPoolEx<NEffectUpdateDecorator::CHeaderDecorator>::`RTTI Base Class Array'
PUBLIC	??_R1A@?0A@EA@?$CDynamicPoolEx@VCHeaderDecorator@NEffectUpdateDecorator@@@@8 ; CDynamicPoolEx<NEffectUpdateDecorator::CHeaderDecorator>::`RTTI Base Class Descriptor at (0,-1,0,64)'
PUBLIC	??_R4?$CDynamicPoolEx@VCNullDecorator@NEffectUpdateDecorator@@@@6B@ ; CDynamicPoolEx<NEffectUpdateDecorator::CNullDecorator>::`RTTI Complete Object Locator'
PUBLIC	??_R0?AV?$CDynamicPoolEx@VCNullDecorator@NEffectUpdateDecorator@@@@@8 ; CDynamicPoolEx<NEffectUpdateDecorator::CNullDecorator> `RTTI Type Descriptor'
PUBLIC	??_R3?$CDynamicPoolEx@VCNullDecorator@NEffectUpdateDecorator@@@@8 ; CDynamicPoolEx<NEffectUpdateDecorator::CNullDecorator>::`RTTI Class Hierarchy Descriptor'
PUBLIC	??_R2?$CDynamicPoolEx@VCNullDecorator@NEffectUpdateDecorator@@@@8 ; CDynamicPoolEx<NEffectUpdateDecorator::CNullDecorator>::`RTTI Base Class Array'
PUBLIC	??_R1A@?0A@EA@?$CDynamicPoolEx@VCNullDecorator@NEffectUpdateDecorator@@@@8 ; CDynamicPoolEx<NEffectUpdateDecorator::CNullDecorator>::`RTTI Base Class Descriptor at (0,-1,0,64)'
PUBLIC	??_R4?$CDynamicPoolEx@VCTextureAnimationCWDecorator@NEffectUpdateDecorator@@@@6B@ ; CDynamicPoolEx<NEffectUpdateDecorator::CTextureAnimationCWDecorator>::`RTTI Complete Object Locator'
PUBLIC	??_R0?AV?$CDynamicPoolEx@VCTextureAnimationCWDecorator@NEffectUpdateDecorator@@@@@8 ; CDynamicPoolEx<NEffectUpdateDecorator::CTextureAnimationCWDecorator> `RTTI Type Descriptor'
PUBLIC	??_R3?$CDynamicPoolEx@VCTextureAnimationCWDecorator@NEffectUpdateDecorator@@@@8 ; CDynamicPoolEx<NEffectUpdateDecorator::CTextureAnimationCWDecorator>::`RTTI Class Hierarchy Descriptor'
PUBLIC	??_R2?$CDynamicPoolEx@VCTextureAnimationCWDecorator@NEffectUpdateDecorator@@@@8 ; CDynamicPoolEx<NEffectUpdateDecorator::CTextureAnimationCWDecorator>::`RTTI Base Class Array'
PUBLIC	??_R1A@?0A@EA@?$CDynamicPoolEx@VCTextureAnimationCWDecorator@NEffectUpdateDecorator@@@@8 ; CDynamicPoolEx<NEffectUpdateDecorator::CTextureAnimationCWDecorator>::`RTTI Base Class Descriptor at (0,-1,0,64)'
PUBLIC	??_R4?$CDynamicPoolEx@VCTextureAnimationCCWDecorator@NEffectUpdateDecorator@@@@6B@ ; CDynamicPoolEx<NEffectUpdateDecorator::CTextureAnimationCCWDecorator>::`RTTI Complete Object Locator'
PUBLIC	??_R0?AV?$CDynamicPoolEx@VCTextureAnimationCCWDecorator@NEffectUpdateDecorator@@@@@8 ; CDynamicPoolEx<NEffectUpdateDecorator::CTextureAnimationCCWDecorator> `RTTI Type Descriptor'
PUBLIC	??_R3?$CDynamicPoolEx@VCTextureAnimationCCWDecorator@NEffectUpdateDecorator@@@@8 ; CDynamicPoolEx<NEffectUpdateDecorator::CTextureAnimationCCWDecorator>::`RTTI Class Hierarchy Descriptor'
PUBLIC	??_R2?$CDynamicPoolEx@VCTextureAnimationCCWDecorator@NEffectUpdateDecorator@@@@8 ; CDynamicPoolEx<NEffectUpdateDecorator::CTextureAnimationCCWDecorator>::`RTTI Base Class Array'
PUBLIC	??_R1A@?0A@EA@?$CDynamicPoolEx@VCTextureAnimationCCWDecorator@NEffectUpdateDecorator@@@@8 ; CDynamicPoolEx<NEffectUpdateDecorator::CTextureAnimationCCWDecorator>::`RTTI Base Class Descriptor at (0,-1,0,64)'
PUBLIC	??_R4?$CDynamicPoolEx@VCTextureAnimationRandomDecorator@NEffectUpdateDecorator@@@@6B@ ; CDynamicPoolEx<NEffectUpdateDecorator::CTextureAnimationRandomDecorator>::`RTTI Complete Object Locator'
PUBLIC	??_R0?AV?$CDynamicPoolEx@VCTextureAnimationRandomDecorator@NEffectUpdateDecorator@@@@@8 ; CDynamicPoolEx<NEffectUpdateDecorator::CTextureAnimationRandomDecorator> `RTTI Type Descriptor'
PUBLIC	??_R3?$CDynamicPoolEx@VCTextureAnimationRandomDecorator@NEffectUpdateDecorator@@@@8 ; CDynamicPoolEx<NEffectUpdateDecorator::CTextureAnimationRandomDecorator>::`RTTI Class Hierarchy Descriptor'
PUBLIC	??_R2?$CDynamicPoolEx@VCTextureAnimationRandomDecorator@NEffectUpdateDecorator@@@@8 ; CDynamicPoolEx<NEffectUpdateDecorator::CTextureAnimationRandomDecorator>::`RTTI Base Class Array'
PUBLIC	??_R1A@?0A@EA@?$CDynamicPoolEx@VCTextureAnimationRandomDecorator@NEffectUpdateDecorator@@@@8 ; CDynamicPoolEx<NEffectUpdateDecorator::CTextureAnimationRandomDecorator>::`RTTI Base Class Descriptor at (0,-1,0,64)'
PUBLIC	??_R4?$CDynamicPoolEx@VCAirResistanceDecorator@NEffectUpdateDecorator@@@@6B@ ; CDynamicPoolEx<NEffectUpdateDecorator::CAirResistanceDecorator>::`RTTI Complete Object Locator'
PUBLIC	??_R0?AV?$CDynamicPoolEx@VCAirResistanceDecorator@NEffectUpdateDecorator@@@@@8 ; CDynamicPoolEx<NEffectUpdateDecorator::CAirResistanceDecorator> `RTTI Type Descriptor'
PUBLIC	??_R3?$CDynamicPoolEx@VCAirResistanceDecorator@NEffectUpdateDecorator@@@@8 ; CDynamicPoolEx<NEffectUpdateDecorator::CAirResistanceDecorator>::`RTTI Class Hierarchy Descriptor'
PUBLIC	??_R2?$CDynamicPoolEx@VCAirResistanceDecorator@NEffectUpdateDecorator@@@@8 ; CDynamicPoolEx<NEffectUpdateDecorator::CAirResistanceDecorator>::`RTTI Base Class Array'
PUBLIC	??_R1A@?0A@EA@?$CDynamicPoolEx@VCAirResistanceDecorator@NEffectUpdateDecorator@@@@8 ; CDynamicPoolEx<NEffectUpdateDecorator::CAirResistanceDecorator>::`RTTI Base Class Descriptor at (0,-1,0,64)'
PUBLIC	??_R4?$CDynamicPoolEx@VCGravityDecorator@NEffectUpdateDecorator@@@@6B@ ; CDynamicPoolEx<NEffectUpdateDecorator::CGravityDecorator>::`RTTI Complete Object Locator'
PUBLIC	??_R0?AV?$CDynamicPoolEx@VCGravityDecorator@NEffectUpdateDecorator@@@@@8 ; CDynamicPoolEx<NEffectUpdateDecorator::CGravityDecorator> `RTTI Type Descriptor'
PUBLIC	??_R3?$CDynamicPoolEx@VCGravityDecorator@NEffectUpdateDecorator@@@@8 ; CDynamicPoolEx<NEffectUpdateDecorator::CGravityDecorator>::`RTTI Class Hierarchy Descriptor'
PUBLIC	??_R2?$CDynamicPoolEx@VCGravityDecorator@NEffectUpdateDecorator@@@@8 ; CDynamicPoolEx<NEffectUpdateDecorator::CGravityDecorator>::`RTTI Base Class Array'
PUBLIC	??_R1A@?0A@EA@?$CDynamicPoolEx@VCGravityDecorator@NEffectUpdateDecorator@@@@8 ; CDynamicPoolEx<NEffectUpdateDecorator::CGravityDecorator>::`RTTI Base Class Descriptor at (0,-1,0,64)'
PUBLIC	??_R4?$CDynamicPoolEx@VCRotationDecorator@NEffectUpdateDecorator@@@@6B@ ; CDynamicPoolEx<NEffectUpdateDecorator::CRotationDecorator>::`RTTI Complete Object Locator'
PUBLIC	??_R0?AV?$CDynamicPoolEx@VCRotationDecorator@NEffectUpdateDecorator@@@@@8 ; CDynamicPoolEx<NEffectUpdateDecorator::CRotationDecorator> `RTTI Type Descriptor'
PUBLIC	??_R3?$CDynamicPoolEx@VCRotationDecorator@NEffectUpdateDecorator@@@@8 ; CDynamicPoolEx<NEffectUpdateDecorator::CRotationDecorator>::`RTTI Class Hierarchy Descriptor'
PUBLIC	??_R2?$CDynamicPoolEx@VCRotationDecorator@NEffectUpdateDecorator@@@@8 ; CDynamicPoolEx<NEffectUpdateDecorator::CRotationDecorator>::`RTTI Base Class Array'
PUBLIC	??_R1A@?0A@EA@?$CDynamicPoolEx@VCRotationDecorator@NEffectUpdateDecorator@@@@8 ; CDynamicPoolEx<NEffectUpdateDecorator::CRotationDecorator>::`RTTI Base Class Descriptor at (0,-1,0,64)'
PUBLIC	??_7?$CDynamicPoolEx@VCRotationDecorator@NEffectUpdateDecorator@@@@6B@ ; CDynamicPoolEx<NEffectUpdateDecorator::CRotationDecorator>::`vftable'
PUBLIC	??_G?$CDynamicPoolEx@VCRotationDecorator@NEffectUpdateDecorator@@@@UAEPAXI@Z ; CDynamicPoolEx<NEffectUpdateDecorator::CRotationDecorator>::`scalar deleting destructor'
PUBLIC	??_7?$CDynamicPoolEx@VCGravityDecorator@NEffectUpdateDecorator@@@@6B@ ; CDynamicPoolEx<NEffectUpdateDecorator::CGravityDecorator>::`vftable'
PUBLIC	??_G?$CDynamicPoolEx@VCGravityDecorator@NEffectUpdateDecorator@@@@UAEPAXI@Z ; CDynamicPoolEx<NEffectUpdateDecorator::CGravityDecorator>::`scalar deleting destructor'
PUBLIC	??_7?$CDynamicPoolEx@VCAirResistanceDecorator@NEffectUpdateDecorator@@@@6B@ ; CDynamicPoolEx<NEffectUpdateDecorator::CAirResistanceDecorator>::`vftable'
PUBLIC	??_G?$CDynamicPoolEx@VCAirResistanceDecorator@NEffectUpdateDecorator@@@@UAEPAXI@Z ; CDynamicPoolEx<NEffectUpdateDecorator::CAirResistanceDecorator>::`scalar deleting destructor'
EXTRN	??_E?$CDynamicPoolEx@VCTextureAnimationRandomDecorator@NEffectUpdateDecorator@@@@UAEPAXI@Z:PROC ; CDynamicPoolEx<NEffectUpdateDecorator::CTextureAnimationRandomDecorator>::`vector deleting destructor'
EXTRN	??_E?$CDynamicPoolEx@VCTextureAnimationCCWDecorator@NEffectUpdateDecorator@@@@UAEPAXI@Z:PROC ; CDynamicPoolEx<NEffectUpdateDecorator::CTextureAnimationCCWDecorator>::`vector deleting destructor'
EXTRN	??_E?$CDynamicPoolEx@VCTextureAnimationCWDecorator@NEffectUpdateDecorator@@@@UAEPAXI@Z:PROC ; CDynamicPoolEx<NEffectUpdateDecorator::CTextureAnimationCWDecorator>::`vector deleting destructor'
EXTRN	??_E?$CDynamicPoolEx@VCNullDecorator@NEffectUpdateDecorator@@@@UAEPAXI@Z:PROC ; CDynamicPoolEx<NEffectUpdateDecorator::CNullDecorator>::`vector deleting destructor'
EXTRN	??_E?$CDynamicPoolEx@VCHeaderDecorator@NEffectUpdateDecorator@@@@UAEPAXI@Z:PROC ; CDynamicPoolEx<NEffectUpdateDecorator::CHeaderDecorator>::`vector deleting destructor'
EXTRN	??_7type_info@@6B@:QWORD			; type_info::`vftable'
EXTRN	??_E?$CDynamicPoolEx@VCRotationDecorator@NEffectUpdateDecorator@@@@UAEPAXI@Z:PROC ; CDynamicPoolEx<NEffectUpdateDecorator::CRotationDecorator>::`vector deleting destructor'
EXTRN	??_E?$CDynamicPoolEx@VCGravityDecorator@NEffectUpdateDecorator@@@@UAEPAXI@Z:PROC ; CDynamicPoolEx<NEffectUpdateDecorator::CGravityDecorator>::`vector deleting destructor'
EXTRN	??_E?$CDynamicPoolEx@VCAirResistanceDecorator@NEffectUpdateDecorator@@@@UAEPAXI@Z:PROC ; CDynamicPoolEx<NEffectUpdateDecorator::CAirResistanceDecorator>::`vector deleting destructor'
;	COMDAT ??_7?$CDynamicPoolEx@VCAirResistanceDecorator@NEffectUpdateDecorator@@@@6B@
CONST	SEGMENT
??_7?$CDynamicPoolEx@VCAirResistanceDecorator@NEffectUpdateDecorator@@@@6B@ DD FLAT:??_R4?$CDynamicPoolEx@VCAirResistanceDecorator@NEffectUpdateDecorator@@@@6B@ ; CDynamicPoolEx<NEffectUpdateDecorator::CAirResistanceDecorator>::`vftable'
	DD	FLAT:??_E?$CDynamicPoolEx@VCAirResistanceDecorator@NEffectUpdateDecorator@@@@UAEPAXI@Z
CONST	ENDS
;	COMDAT ??_7?$CDynamicPoolEx@VCGravityDecorator@NEffectUpdateDecorator@@@@6B@
CONST	SEGMENT
??_7?$CDynamicPoolEx@VCGravityDecorator@NEffectUpdateDecorator@@@@6B@ DD FLAT:??_R4?$CDynamicPoolEx@VCGravityDecorator@NEffectUpdateDecorator@@@@6B@ ; CDynamicPoolEx<NEffectUpdateDecorator::CGravityDecorator>::`vftable'
	DD	FLAT:??_E?$CDynamicPoolEx@VCGravityDecorator@NEffectUpdateDecorator@@@@UAEPAXI@Z
CONST	ENDS
;	COMDAT ??_7?$CDynamicPoolEx@VCRotationDecorator@NEffectUpdateDecorator@@@@6B@
CONST	SEGMENT
??_7?$CDynamicPoolEx@VCRotationDecorator@NEffectUpdateDecorator@@@@6B@ DD FLAT:??_R4?$CDynamicPoolEx@VCRotationDecorator@NEffectUpdateDecorator@@@@6B@ ; CDynamicPoolEx<NEffectUpdateDecorator::CRotationDecorator>::`vftable'
	DD	FLAT:??_E?$CDynamicPoolEx@VCRotationDecorator@NEffectUpdateDecorator@@@@UAEPAXI@Z
CONST	ENDS
;	COMDAT ??_R1A@?0A@EA@?$CDynamicPoolEx@VCRotationDecorator@NEffectUpdateDecorator@@@@8
rdata$r	SEGMENT
??_R1A@?0A@EA@?$CDynamicPoolEx@VCRotationDecorator@NEffectUpdateDecorator@@@@8 DD FLAT:??_R0?AV?$CDynamicPoolEx@VCRotationDecorator@NEffectUpdateDecorator@@@@@8 ; CDynamicPoolEx<NEffectUpdateDecorator::CRotationDecorator>::`RTTI Base Class Descriptor at (0,-1,0,64)'
	DD	00H
	DD	00H
	DD	0ffffffffH
	DD	00H
	DD	040H
	DD	FLAT:??_R3?$CDynamicPoolEx@VCRotationDecorator@NEffectUpdateDecorator@@@@8
rdata$r	ENDS
;	COMDAT ??_R2?$CDynamicPoolEx@VCRotationDecorator@NEffectUpdateDecorator@@@@8
rdata$r	SEGMENT
??_R2?$CDynamicPoolEx@VCRotationDecorator@NEffectUpdateDecorator@@@@8 DD FLAT:??_R1A@?0A@EA@?$CDynamicPoolEx@VCRotationDecorator@NEffectUpdateDecorator@@@@8 ; CDynamicPoolEx<NEffectUpdateDecorator::CRotationDecorator>::`RTTI Base Class Array'
rdata$r	ENDS
;	COMDAT ??_R3?$CDynamicPoolEx@VCRotationDecorator@NEffectUpdateDecorator@@@@8
rdata$r	SEGMENT
??_R3?$CDynamicPoolEx@VCRotationDecorator@NEffectUpdateDecorator@@@@8 DD 00H ; CDynamicPoolEx<NEffectUpdateDecorator::CRotationDecorator>::`RTTI Class Hierarchy Descriptor'
	DD	00H
	DD	01H
	DD	FLAT:??_R2?$CDynamicPoolEx@VCRotationDecorator@NEffectUpdateDecorator@@@@8
rdata$r	ENDS
;	COMDAT ??_R0?AV?$CDynamicPoolEx@VCRotationDecorator@NEffectUpdateDecorator@@@@@8
data$rs	SEGMENT
??_R0?AV?$CDynamicPoolEx@VCRotationDecorator@NEffectUpdateDecorator@@@@@8 DD FLAT:??_7type_info@@6B@ ; CDynamicPoolEx<NEffectUpdateDecorator::CRotationDecorator> `RTTI Type Descriptor'
	DD	00H
	DB	'.?AV?$CDynamicPoolEx@VCRotationDecorator@NEffectUpdateDe'
	DB	'corator@@@@', 00H
data$rs	ENDS
;	COMDAT ??_R4?$CDynamicPoolEx@VCRotationDecorator@NEffectUpdateDecorator@@@@6B@
rdata$r	SEGMENT
??_R4?$CDynamicPoolEx@VCRotationDecorator@NEffectUpdateDecorator@@@@6B@ DD 00H ; CDynamicPoolEx<NEffectUpdateDecorator::CRotationDecorator>::`RTTI Complete Object Locator'
	DD	00H
	DD	00H
	DD	FLAT:??_R0?AV?$CDynamicPoolEx@VCRotationDecorator@NEffectUpdateDecorator@@@@@8
	DD	FLAT:??_R3?$CDynamicPoolEx@VCRotationDecorator@NEffectUpdateDecorator@@@@8
rdata$r	ENDS
;	COMDAT ??_R1A@?0A@EA@?$CDynamicPoolEx@VCGravityDecorator@NEffectUpdateDecorator@@@@8
rdata$r	SEGMENT
??_R1A@?0A@EA@?$CDynamicPoolEx@VCGravityDecorator@NEffectUpdateDecorator@@@@8 DD FLAT:??_R0?AV?$CDynamicPoolEx@VCGravityDecorator@NEffectUpdateDecorator@@@@@8 ; CDynamicPoolEx<NEffectUpdateDecorator::CGravityDecorator>::`RTTI Base Class Descriptor at (0,-1,0,64)'
	DD	00H
	DD	00H
	DD	0ffffffffH
	DD	00H
	DD	040H
	DD	FLAT:??_R3?$CDynamicPoolEx@VCGravityDecorator@NEffectUpdateDecorator@@@@8
rdata$r	ENDS
;	COMDAT ??_R2?$CDynamicPoolEx@VCGravityDecorator@NEffectUpdateDecorator@@@@8
rdata$r	SEGMENT
??_R2?$CDynamicPoolEx@VCGravityDecorator@NEffectUpdateDecorator@@@@8 DD FLAT:??_R1A@?0A@EA@?$CDynamicPoolEx@VCGravityDecorator@NEffectUpdateDecorator@@@@8 ; CDynamicPoolEx<NEffectUpdateDecorator::CGravityDecorator>::`RTTI Base Class Array'
rdata$r	ENDS
;	COMDAT ??_R3?$CDynamicPoolEx@VCGravityDecorator@NEffectUpdateDecorator@@@@8
rdata$r	SEGMENT
??_R3?$CDynamicPoolEx@VCGravityDecorator@NEffectUpdateDecorator@@@@8 DD 00H ; CDynamicPoolEx<NEffectUpdateDecorator::CGravityDecorator>::`RTTI Class Hierarchy Descriptor'
	DD	00H
	DD	01H
	DD	FLAT:??_R2?$CDynamicPoolEx@VCGravityDecorator@NEffectUpdateDecorator@@@@8
rdata$r	ENDS
;	COMDAT ??_R0?AV?$CDynamicPoolEx@VCGravityDecorator@NEffectUpdateDecorator@@@@@8
data$rs	SEGMENT
??_R0?AV?$CDynamicPoolEx@VCGravityDecorator@NEffectUpdateDecorator@@@@@8 DD FLAT:??_7type_info@@6B@ ; CDynamicPoolEx<NEffectUpdateDecorator::CGravityDecorator> `RTTI Type Descriptor'
	DD	00H
	DB	'.?AV?$CDynamicPoolEx@VCGravityDecorator@NEffectUpdateDec'
	DB	'orator@@@@', 00H
data$rs	ENDS
;	COMDAT ??_R4?$CDynamicPoolEx@VCGravityDecorator@NEffectUpdateDecorator@@@@6B@
rdata$r	SEGMENT
??_R4?$CDynamicPoolEx@VCGravityDecorator@NEffectUpdateDecorator@@@@6B@ DD 00H ; CDynamicPoolEx<NEffectUpdateDecorator::CGravityDecorator>::`RTTI Complete Object Locator'
	DD	00H
	DD	00H
	DD	FLAT:??_R0?AV?$CDynamicPoolEx@VCGravityDecorator@NEffectUpdateDecorator@@@@@8
	DD	FLAT:??_R3?$CDynamicPoolEx@VCGravityDecorator@NEffectUpdateDecorator@@@@8
rdata$r	ENDS
;	COMDAT ??_R1A@?0A@EA@?$CDynamicPoolEx@VCAirResistanceDecorator@NEffectUpdateDecorator@@@@8
rdata$r	SEGMENT
??_R1A@?0A@EA@?$CDynamicPoolEx@VCAirResistanceDecorator@NEffectUpdateDecorator@@@@8 DD FLAT:??_R0?AV?$CDynamicPoolEx@VCAirResistanceDecorator@NEffectUpdateDecorator@@@@@8 ; CDynamicPoolEx<NEffectUpdateDecorator::CAirResistanceDecorator>::`RTTI Base Class Descriptor at (0,-1,0,64)'
	DD	00H
	DD	00H
	DD	0ffffffffH
	DD	00H
	DD	040H
	DD	FLAT:??_R3?$CDynamicPoolEx@VCAirResistanceDecorator@NEffectUpdateDecorator@@@@8
rdata$r	ENDS
;	COMDAT ??_R2?$CDynamicPoolEx@VCAirResistanceDecorator@NEffectUpdateDecorator@@@@8
rdata$r	SEGMENT
??_R2?$CDynamicPoolEx@VCAirResistanceDecorator@NEffectUpdateDecorator@@@@8 DD FLAT:??_R1A@?0A@EA@?$CDynamicPoolEx@VCAirResistanceDecorator@NEffectUpdateDecorator@@@@8 ; CDynamicPoolEx<NEffectUpdateDecorator::CAirResistanceDecorator>::`RTTI Base Class Array'
rdata$r	ENDS
;	COMDAT ??_R3?$CDynamicPoolEx@VCAirResistanceDecorator@NEffectUpdateDecorator@@@@8
rdata$r	SEGMENT
??_R3?$CDynamicPoolEx@VCAirResistanceDecorator@NEffectUpdateDecorator@@@@8 DD 00H ; CDynamicPoolEx<NEffectUpdateDecorator::CAirResistanceDecorator>::`RTTI Class Hierarchy Descriptor'
	DD	00H
	DD	01H
	DD	FLAT:??_R2?$CDynamicPoolEx@VCAirResistanceDecorator@NEffectUpdateDecorator@@@@8
rdata$r	ENDS
;	COMDAT ??_R0?AV?$CDynamicPoolEx@VCAirResistanceDecorator@NEffectUpdateDecorator@@@@@8
data$rs	SEGMENT
??_R0?AV?$CDynamicPoolEx@VCAirResistanceDecorator@NEffectUpdateDecorator@@@@@8 DD FLAT:??_7type_info@@6B@ ; CDynamicPoolEx<NEffectUpdateDecorator::CAirResistanceDecorator> `RTTI Type Descriptor'
	DD	00H
	DB	'.?AV?$CDynamicPoolEx@VCAirResistanceDecorator@NEffectUpd'
	DB	'ateDecorator@@@@', 00H
data$rs	ENDS
;	COMDAT ??_R4?$CDynamicPoolEx@VCAirResistanceDecorator@NEffectUpdateDecorator@@@@6B@
rdata$r	SEGMENT
??_R4?$CDynamicPoolEx@VCAirResistanceDecorator@NEffectUpdateDecorator@@@@6B@ DD 00H ; CDynamicPoolEx<NEffectUpdateDecorator::CAirResistanceDecorator>::`RTTI Complete Object Locator'
	DD	00H
	DD	00H
	DD	FLAT:??_R0?AV?$CDynamicPoolEx@VCAirResistanceDecorator@NEffectUpdateDecorator@@@@@8
	DD	FLAT:??_R3?$CDynamicPoolEx@VCAirResistanceDecorator@NEffectUpdateDecorator@@@@8
rdata$r	ENDS
;	COMDAT ??_R1A@?0A@EA@?$CDynamicPoolEx@VCTextureAnimationRandomDecorator@NEffectUpdateDecorator@@@@8
rdata$r	SEGMENT
??_R1A@?0A@EA@?$CDynamicPoolEx@VCTextureAnimationRandomDecorator@NEffectUpdateDecorator@@@@8 DD FLAT:??_R0?AV?$CDynamicPoolEx@VCTextureAnimationRandomDecorator@NEffectUpdateDecorator@@@@@8 ; CDynamicPoolEx<NEffectUpdateDecorator::CTextureAnimationRandomDecorator>::`RTTI Base Class Descriptor at (0,-1,0,64)'
	DD	00H
	DD	00H
	DD	0ffffffffH
	DD	00H
	DD	040H
	DD	FLAT:??_R3?$CDynamicPoolEx@VCTextureAnimationRandomDecorator@NEffectUpdateDecorator@@@@8
rdata$r	ENDS
;	COMDAT ??_R2?$CDynamicPoolEx@VCTextureAnimationRandomDecorator@NEffectUpdateDecorator@@@@8
rdata$r	SEGMENT
??_R2?$CDynamicPoolEx@VCTextureAnimationRandomDecorator@NEffectUpdateDecorator@@@@8 DD FLAT:??_R1A@?0A@EA@?$CDynamicPoolEx@VCTextureAnimationRandomDecorator@NEffectUpdateDecorator@@@@8 ; CDynamicPoolEx<NEffectUpdateDecorator::CTextureAnimationRandomDecorator>::`RTTI Base Class Array'
rdata$r	ENDS
;	COMDAT ??_R3?$CDynamicPoolEx@VCTextureAnimationRandomDecorator@NEffectUpdateDecorator@@@@8
rdata$r	SEGMENT
??_R3?$CDynamicPoolEx@VCTextureAnimationRandomDecorator@NEffectUpdateDecorator@@@@8 DD 00H ; CDynamicPoolEx<NEffectUpdateDecorator::CTextureAnimationRandomDecorator>::`RTTI Class Hierarchy Descriptor'
	DD	00H
	DD	01H
	DD	FLAT:??_R2?$CDynamicPoolEx@VCTextureAnimationRandomDecorator@NEffectUpdateDecorator@@@@8
rdata$r	ENDS
;	COMDAT ??_R0?AV?$CDynamicPoolEx@VCTextureAnimationRandomDecorator@NEffectUpdateDecorator@@@@@8
data$rs	SEGMENT
??_R0?AV?$CDynamicPoolEx@VCTextureAnimationRandomDecorator@NEffectUpdateDecorator@@@@@8 DD FLAT:??_7type_info@@6B@ ; CDynamicPoolEx<NEffectUpdateDecorator::CTextureAnimationRandomDecorator> `RTTI Type Descriptor'
	DD	00H
	DB	'.?AV?$CDynamicPoolEx@VCTextureAnimationRandomDecorator@N'
	DB	'EffectUpdateDecorator@@@@', 00H
data$rs	ENDS
;	COMDAT ??_R4?$CDynamicPoolEx@VCTextureAnimationRandomDecorator@NEffectUpdateDecorator@@@@6B@
rdata$r	SEGMENT
??_R4?$CDynamicPoolEx@VCTextureAnimationRandomDecorator@NEffectUpdateDecorator@@@@6B@ DD 00H ; CDynamicPoolEx<NEffectUpdateDecorator::CTextureAnimationRandomDecorator>::`RTTI Complete Object Locator'
	DD	00H
	DD	00H
	DD	FLAT:??_R0?AV?$CDynamicPoolEx@VCTextureAnimationRandomDecorator@NEffectUpdateDecorator@@@@@8
	DD	FLAT:??_R3?$CDynamicPoolEx@VCTextureAnimationRandomDecorator@NEffectUpdateDecorator@@@@8
rdata$r	ENDS
;	COMDAT ??_R1A@?0A@EA@?$CDynamicPoolEx@VCTextureAnimationCCWDecorator@NEffectUpdateDecorator@@@@8
rdata$r	SEGMENT
??_R1A@?0A@EA@?$CDynamicPoolEx@VCTextureAnimationCCWDecorator@NEffectUpdateDecorator@@@@8 DD FLAT:??_R0?AV?$CDynamicPoolEx@VCTextureAnimationCCWDecorator@NEffectUpdateDecorator@@@@@8 ; CDynamicPoolEx<NEffectUpdateDecorator::CTextureAnimationCCWDecorator>::`RTTI Base Class Descriptor at (0,-1,0,64)'
	DD	00H
	DD	00H
	DD	0ffffffffH
	DD	00H
	DD	040H
	DD	FLAT:??_R3?$CDynamicPoolEx@VCTextureAnimationCCWDecorator@NEffectUpdateDecorator@@@@8
rdata$r	ENDS
;	COMDAT ??_R2?$CDynamicPoolEx@VCTextureAnimationCCWDecorator@NEffectUpdateDecorator@@@@8
rdata$r	SEGMENT
??_R2?$CDynamicPoolEx@VCTextureAnimationCCWDecorator@NEffectUpdateDecorator@@@@8 DD FLAT:??_R1A@?0A@EA@?$CDynamicPoolEx@VCTextureAnimationCCWDecorator@NEffectUpdateDecorator@@@@8 ; CDynamicPoolEx<NEffectUpdateDecorator::CTextureAnimationCCWDecorator>::`RTTI Base Class Array'
rdata$r	ENDS
;	COMDAT ??_R3?$CDynamicPoolEx@VCTextureAnimationCCWDecorator@NEffectUpdateDecorator@@@@8
rdata$r	SEGMENT
??_R3?$CDynamicPoolEx@VCTextureAnimationCCWDecorator@NEffectUpdateDecorator@@@@8 DD 00H ; CDynamicPoolEx<NEffectUpdateDecorator::CTextureAnimationCCWDecorator>::`RTTI Class Hierarchy Descriptor'
	DD	00H
	DD	01H
	DD	FLAT:??_R2?$CDynamicPoolEx@VCTextureAnimationCCWDecorator@NEffectUpdateDecorator@@@@8
rdata$r	ENDS
;	COMDAT ??_R0?AV?$CDynamicPoolEx@VCTextureAnimationCCWDecorator@NEffectUpdateDecorator@@@@@8
data$rs	SEGMENT
??_R0?AV?$CDynamicPoolEx@VCTextureAnimationCCWDecorator@NEffectUpdateDecorator@@@@@8 DD FLAT:??_7type_info@@6B@ ; CDynamicPoolEx<NEffectUpdateDecorator::CTextureAnimationCCWDecorator> `RTTI Type Descriptor'
	DD	00H
	DB	'.?AV?$CDynamicPoolEx@VCTextureAnimationCCWDecorator@NEff'
	DB	'ectUpdateDecorator@@@@', 00H
data$rs	ENDS
;	COMDAT ??_R4?$CDynamicPoolEx@VCTextureAnimationCCWDecorator@NEffectUpdateDecorator@@@@6B@
rdata$r	SEGMENT
??_R4?$CDynamicPoolEx@VCTextureAnimationCCWDecorator@NEffectUpdateDecorator@@@@6B@ DD 00H ; CDynamicPoolEx<NEffectUpdateDecorator::CTextureAnimationCCWDecorator>::`RTTI Complete Object Locator'
	DD	00H
	DD	00H
	DD	FLAT:??_R0?AV?$CDynamicPoolEx@VCTextureAnimationCCWDecorator@NEffectUpdateDecorator@@@@@8
	DD	FLAT:??_R3?$CDynamicPoolEx@VCTextureAnimationCCWDecorator@NEffectUpdateDecorator@@@@8
rdata$r	ENDS
;	COMDAT ??_R1A@?0A@EA@?$CDynamicPoolEx@VCTextureAnimationCWDecorator@NEffectUpdateDecorator@@@@8
rdata$r	SEGMENT
??_R1A@?0A@EA@?$CDynamicPoolEx@VCTextureAnimationCWDecorator@NEffectUpdateDecorator@@@@8 DD FLAT:??_R0?AV?$CDynamicPoolEx@VCTextureAnimationCWDecorator@NEffectUpdateDecorator@@@@@8 ; CDynamicPoolEx<NEffectUpdateDecorator::CTextureAnimationCWDecorator>::`RTTI Base Class Descriptor at (0,-1,0,64)'
	DD	00H
	DD	00H
	DD	0ffffffffH
	DD	00H
	DD	040H
	DD	FLAT:??_R3?$CDynamicPoolEx@VCTextureAnimationCWDecorator@NEffectUpdateDecorator@@@@8
rdata$r	ENDS
;	COMDAT ??_R2?$CDynamicPoolEx@VCTextureAnimationCWDecorator@NEffectUpdateDecorator@@@@8
rdata$r	SEGMENT
??_R2?$CDynamicPoolEx@VCTextureAnimationCWDecorator@NEffectUpdateDecorator@@@@8 DD FLAT:??_R1A@?0A@EA@?$CDynamicPoolEx@VCTextureAnimationCWDecorator@NEffectUpdateDecorator@@@@8 ; CDynamicPoolEx<NEffectUpdateDecorator::CTextureAnimationCWDecorator>::`RTTI Base Class Array'
rdata$r	ENDS
;	COMDAT ??_R3?$CDynamicPoolEx@VCTextureAnimationCWDecorator@NEffectUpdateDecorator@@@@8
rdata$r	SEGMENT
??_R3?$CDynamicPoolEx@VCTextureAnimationCWDecorator@NEffectUpdateDecorator@@@@8 DD 00H ; CDynamicPoolEx<NEffectUpdateDecorator::CTextureAnimationCWDecorator>::`RTTI Class Hierarchy Descriptor'
	DD	00H
	DD	01H
	DD	FLAT:??_R2?$CDynamicPoolEx@VCTextureAnimationCWDecorator@NEffectUpdateDecorator@@@@8
rdata$r	ENDS
;	COMDAT ??_R0?AV?$CDynamicPoolEx@VCTextureAnimationCWDecorator@NEffectUpdateDecorator@@@@@8
data$rs	SEGMENT
??_R0?AV?$CDynamicPoolEx@VCTextureAnimationCWDecorator@NEffectUpdateDecorator@@@@@8 DD FLAT:??_7type_info@@6B@ ; CDynamicPoolEx<NEffectUpdateDecorator::CTextureAnimationCWDecorator> `RTTI Type Descriptor'
	DD	00H
	DB	'.?AV?$CDynamicPoolEx@VCTextureAnimationCWDecorator@NEffe'
	DB	'ctUpdateDecorator@@@@', 00H
data$rs	ENDS
;	COMDAT ??_R4?$CDynamicPoolEx@VCTextureAnimationCWDecorator@NEffectUpdateDecorator@@@@6B@
rdata$r	SEGMENT
??_R4?$CDynamicPoolEx@VCTextureAnimationCWDecorator@NEffectUpdateDecorator@@@@6B@ DD 00H ; CDynamicPoolEx<NEffectUpdateDecorator::CTextureAnimationCWDecorator>::`RTTI Complete Object Locator'
	DD	00H
	DD	00H
	DD	FLAT:??_R0?AV?$CDynamicPoolEx@VCTextureAnimationCWDecorator@NEffectUpdateDecorator@@@@@8
	DD	FLAT:??_R3?$CDynamicPoolEx@VCTextureAnimationCWDecorator@NEffectUpdateDecorator@@@@8
rdata$r	ENDS
;	COMDAT ??_R1A@?0A@EA@?$CDynamicPoolEx@VCNullDecorator@NEffectUpdateDecorator@@@@8
rdata$r	SEGMENT
??_R1A@?0A@EA@?$CDynamicPoolEx@VCNullDecorator@NEffectUpdateDecorator@@@@8 DD FLAT:??_R0?AV?$CDynamicPoolEx@VCNullDecorator@NEffectUpdateDecorator@@@@@8 ; CDynamicPoolEx<NEffectUpdateDecorator::CNullDecorator>::`RTTI Base Class Descriptor at (0,-1,0,64)'
	DD	00H
	DD	00H
	DD	0ffffffffH
	DD	00H
	DD	040H
	DD	FLAT:??_R3?$CDynamicPoolEx@VCNullDecorator@NEffectUpdateDecorator@@@@8
rdata$r	ENDS
;	COMDAT ??_R2?$CDynamicPoolEx@VCNullDecorator@NEffectUpdateDecorator@@@@8
rdata$r	SEGMENT
??_R2?$CDynamicPoolEx@VCNullDecorator@NEffectUpdateDecorator@@@@8 DD FLAT:??_R1A@?0A@EA@?$CDynamicPoolEx@VCNullDecorator@NEffectUpdateDecorator@@@@8 ; CDynamicPoolEx<NEffectUpdateDecorator::CNullDecorator>::`RTTI Base Class Array'
rdata$r	ENDS
;	COMDAT ??_R3?$CDynamicPoolEx@VCNullDecorator@NEffectUpdateDecorator@@@@8
rdata$r	SEGMENT
??_R3?$CDynamicPoolEx@VCNullDecorator@NEffectUpdateDecorator@@@@8 DD 00H ; CDynamicPoolEx<NEffectUpdateDecorator::CNullDecorator>::`RTTI Class Hierarchy Descriptor'
	DD	00H
	DD	01H
	DD	FLAT:??_R2?$CDynamicPoolEx@VCNullDecorator@NEffectUpdateDecorator@@@@8
rdata$r	ENDS
;	COMDAT ??_R0?AV?$CDynamicPoolEx@VCNullDecorator@NEffectUpdateDecorator@@@@@8
data$rs	SEGMENT
??_R0?AV?$CDynamicPoolEx@VCNullDecorator@NEffectUpdateDecorator@@@@@8 DD FLAT:??_7type_info@@6B@ ; CDynamicPoolEx<NEffectUpdateDecorator::CNullDecorator> `RTTI Type Descriptor'
	DD	00H
	DB	'.?AV?$CDynamicPoolEx@VCNullDecorator@NEffectUpdateDecora'
	DB	'tor@@@@', 00H
data$rs	ENDS
;	COMDAT ??_R4?$CDynamicPoolEx@VCNullDecorator@NEffectUpdateDecorator@@@@6B@
rdata$r	SEGMENT
??_R4?$CDynamicPoolEx@VCNullDecorator@NEffectUpdateDecorator@@@@6B@ DD 00H ; CDynamicPoolEx<NEffectUpdateDecorator::CNullDecorator>::`RTTI Complete Object Locator'
	DD	00H
	DD	00H
	DD	FLAT:??_R0?AV?$CDynamicPoolEx@VCNullDecorator@NEffectUpdateDecorator@@@@@8
	DD	FLAT:??_R3?$CDynamicPoolEx@VCNullDecorator@NEffectUpdateDecorator@@@@8
rdata$r	ENDS
;	COMDAT ??_R1A@?0A@EA@?$CDynamicPoolEx@VCHeaderDecorator@NEffectUpdateDecorator@@@@8
rdata$r	SEGMENT
??_R1A@?0A@EA@?$CDynamicPoolEx@VCHeaderDecorator@NEffectUpdateDecorator@@@@8 DD FLAT:??_R0?AV?$CDynamicPoolEx@VCHeaderDecorator@NEffectUpdateDecorator@@@@@8 ; CDynamicPoolEx<NEffectUpdateDecorator::CHeaderDecorator>::`RTTI Base Class Descriptor at (0,-1,0,64)'
	DD	00H
	DD	00H
	DD	0ffffffffH
	DD	00H
	DD	040H
	DD	FLAT:??_R3?$CDynamicPoolEx@VCHeaderDecorator@NEffectUpdateDecorator@@@@8
rdata$r	ENDS
;	COMDAT ??_R2?$CDynamicPoolEx@VCHeaderDecorator@NEffectUpdateDecorator@@@@8
rdata$r	SEGMENT
??_R2?$CDynamicPoolEx@VCHeaderDecorator@NEffectUpdateDecorator@@@@8 DD FLAT:??_R1A@?0A@EA@?$CDynamicPoolEx@VCHeaderDecorator@NEffectUpdateDecorator@@@@8 ; CDynamicPoolEx<NEffectUpdateDecorator::CHeaderDecorator>::`RTTI Base Class Array'
rdata$r	ENDS
;	COMDAT ??_R3?$CDynamicPoolEx@VCHeaderDecorator@NEffectUpdateDecorator@@@@8
rdata$r	SEGMENT
??_R3?$CDynamicPoolEx@VCHeaderDecorator@NEffectUpdateDecorator@@@@8 DD 00H ; CDynamicPoolEx<NEffectUpdateDecorator::CHeaderDecorator>::`RTTI Class Hierarchy Descriptor'
	DD	00H
	DD	01H
	DD	FLAT:??_R2?$CDynamicPoolEx@VCHeaderDecorator@NEffectUpdateDecorator@@@@8
rdata$r	ENDS
;	COMDAT ??_R0?AV?$CDynamicPoolEx@VCHeaderDecorator@NEffectUpdateDecorator@@@@@8
data$rs	SEGMENT
??_R0?AV?$CDynamicPoolEx@VCHeaderDecorator@NEffectUpdateDecorator@@@@@8 DD FLAT:??_7type_info@@6B@ ; CDynamicPoolEx<NEffectUpdateDecorator::CHeaderDecorator> `RTTI Type Descriptor'
	DD	00H
	DB	'.?AV?$CDynamicPoolEx@VCHeaderDecorator@NEffectUpdateDeco'
	DB	'rator@@@@', 00H
data$rs	ENDS
;	COMDAT ??_R4?$CDynamicPoolEx@VCHeaderDecorator@NEffectUpdateDecorator@@@@6B@
rdata$r	SEGMENT
??_R4?$CDynamicPoolEx@VCHeaderDecorator@NEffectUpdateDecorator@@@@6B@ DD 00H ; CDynamicPoolEx<NEffectUpdateDecorator::CHeaderDecorator>::`RTTI Complete Object Locator'
	DD	00H
	DD	00H
	DD	FLAT:??_R0?AV?$CDynamicPoolEx@VCHeaderDecorator@NEffectUpdateDecorator@@@@@8
	DD	FLAT:??_R3?$CDynamicPoolEx@VCHeaderDecorator@NEffectUpdateDecorator@@@@8
rdata$r	ENDS
;	COMDAT ??_7?$CDynamicPoolEx@VCHeaderDecorator@NEffectUpdateDecorator@@@@6B@
CONST	SEGMENT
??_7?$CDynamicPoolEx@VCHeaderDecorator@NEffectUpdateDecorator@@@@6B@ DD FLAT:??_R4?$CDynamicPoolEx@VCHeaderDecorator@NEffectUpdateDecorator@@@@6B@ ; CDynamicPoolEx<NEffectUpdateDecorator::CHeaderDecorator>::`vftable'
	DD	FLAT:??_E?$CDynamicPoolEx@VCHeaderDecorator@NEffectUpdateDecorator@@@@UAEPAXI@Z
CONST	ENDS
;	COMDAT ??_7?$CDynamicPoolEx@VCNullDecorator@NEffectUpdateDecorator@@@@6B@
CONST	SEGMENT
??_7?$CDynamicPoolEx@VCNullDecorator@NEffectUpdateDecorator@@@@6B@ DD FLAT:??_R4?$CDynamicPoolEx@VCNullDecorator@NEffectUpdateDecorator@@@@6B@ ; CDynamicPoolEx<NEffectUpdateDecorator::CNullDecorator>::`vftable'
	DD	FLAT:??_E?$CDynamicPoolEx@VCNullDecorator@NEffectUpdateDecorator@@@@UAEPAXI@Z
CONST	ENDS
;	COMDAT ??_7?$CDynamicPoolEx@VCTextureAnimationCWDecorator@NEffectUpdateDecorator@@@@6B@
CONST	SEGMENT
??_7?$CDynamicPoolEx@VCTextureAnimationCWDecorator@NEffectUpdateDecorator@@@@6B@ DD FLAT:??_R4?$CDynamicPoolEx@VCTextureAnimationCWDecorator@NEffectUpdateDecorator@@@@6B@ ; CDynamicPoolEx<NEffectUpdateDecorator::CTextureAnimationCWDecorator>::`vftable'
	DD	FLAT:??_E?$CDynamicPoolEx@VCTextureAnimationCWDecorator@NEffectUpdateDecorator@@@@UAEPAXI@Z
CONST	ENDS
;	COMDAT ??_7?$CDynamicPoolEx@VCTextureAnimationCCWDecorator@NEffectUpdateDecorator@@@@6B@
CONST	SEGMENT
??_7?$CDynamicPoolEx@VCTextureAnimationCCWDecorator@NEffectUpdateDecorator@@@@6B@ DD FLAT:??_R4?$CDynamicPoolEx@VCTextureAnimationCCWDecorator@NEffectUpdateDecorator@@@@6B@ ; CDynamicPoolEx<NEffectUpdateDecorator::CTextureAnimationCCWDecorator>::`vftable'
	DD	FLAT:??_E?$CDynamicPoolEx@VCTextureAnimationCCWDecorator@NEffectUpdateDecorator@@@@UAEPAXI@Z
CONST	ENDS
;	COMDAT ??_7?$CDynamicPoolEx@VCTextureAnimationRandomDecorator@NEffectUpdateDecorator@@@@6B@
CONST	SEGMENT
??_7?$CDynamicPoolEx@VCTextureAnimationRandomDecorator@NEffectUpdateDecorator@@@@6B@ DD FLAT:??_R4?$CDynamicPoolEx@VCTextureAnimationRandomDecorator@NEffectUpdateDecorator@@@@6B@ ; CDynamicPoolEx<NEffectUpdateDecorator::CTextureAnimationRandomDecorator>::`vftable'
	DD	FLAT:??_E?$CDynamicPoolEx@VCTextureAnimationRandomDecorator@NEffectUpdateDecorator@@@@UAEPAXI@Z
CONST	ENDS
PUBLIC	??_H@YGXPAXIIP6EPAX0@Z@Z			; `vector constructor iterator'
PUBLIC	?__empty_global_delete@@YAXPAX@Z		; __empty_global_delete
PUBLIC	?__empty_global_delete@@YAXPAXI@Z		; __empty_global_delete
PUBLIC	??$_Deallocate@$07$0A@@std@@YAXPAXI@Z		; std::_Deallocate<8,0>
PUBLIC	?ClickSkillSlot@CPythonPlayer@@QAEXK@Z		; CPythonPlayer::ClickSkillSlot
PUBLIC	?ChangeCurrentSkillNumberOnly@CPythonPlayer@@QAEXK@Z ; CPythonPlayer::ChangeCurrentSkillNumberOnly
PUBLIC	?FindSkillSlotIndexBySkillIndex@CPythonPlayer@@QAE_NKPAK@Z ; CPythonPlayer::FindSkillSlotIndexBySkillIndex
PUBLIC	?UseGuildSkill@CPythonPlayer@@QAEXK@Z		; CPythonPlayer::UseGuildSkill
PUBLIC	?SetAffect@CPythonPlayer@@QAEXI@Z		; CPythonPlayer::SetAffect
PUBLIC	?ResetAffect@CPythonPlayer@@QAEXI@Z		; CPythonPlayer::ResetAffect
PUBLIC	?ClearAffects@CPythonPlayer@@QAEXXZ		; CPythonPlayer::ClearAffects
PUBLIC	?SetComboSkillFlag@CPythonPlayer@@UAEXH@Z	; CPythonPlayer::SetComboSkillFlag
PUBLIC	?__CanUseSkill@CPythonPlayer@@IAE_NXZ		; CPythonPlayer::__CanUseSkill
PUBLIC	?__CheckSkillUsable@CPythonPlayer@@IAE_NK@Z	; CPythonPlayer::__CheckSkillUsable
PUBLIC	?__UseCurrentSkill@CPythonPlayer@@IAEXXZ	; CPythonPlayer::__UseCurrentSkill
PUBLIC	?__UseSkill@CPythonPlayer@@IAE_NK@Z		; CPythonPlayer::__UseSkill
PUBLIC	?__CheckSpecialSkill@CPythonPlayer@@IAE_NK@Z	; CPythonPlayer::__CheckSpecialSkill
PUBLIC	?__CheckRestSkillCoolTime@CPythonPlayer@@IAE_NK@Z ; CPythonPlayer::__CheckRestSkillCoolTime
PUBLIC	?__CheckShortLife@CPythonPlayer@@IAE_NAAUSSkillInstance@1@AAUSSkillData@CPythonSkill@@@Z ; CPythonPlayer::__CheckShortLife
PUBLIC	?__CheckShortMana@CPythonPlayer@@IAE_NAAUSSkillInstance@1@AAUSSkillData@CPythonSkill@@@Z ; CPythonPlayer::__CheckShortMana
PUBLIC	?__CheckShortArrow@CPythonPlayer@@IAE_NAAUSSkillInstance@1@AAUSSkillData@CPythonSkill@@@Z ; CPythonPlayer::__CheckShortArrow
PUBLIC	?__CheckDashAffect@CPythonPlayer@@IAE_NAAVCInstanceBase@@@Z ; CPythonPlayer::__CheckDashAffect
PUBLIC	?__SendUseSkill@CPythonPlayer@@IAEXKK@Z		; CPythonPlayer::__SendUseSkill
PUBLIC	?__RunCoolTime@CPythonPlayer@@IAEXK@Z		; CPythonPlayer::__RunCoolTime
PUBLIC	?__GetSkillType@CPythonPlayer@@IAEEK@Z		; CPythonPlayer::__GetSkillType
PUBLIC	?__GetSkillTargetRange@CPythonPlayer@@IAEKAAUSSkillData@CPythonSkill@@@Z ; CPythonPlayer::__GetSkillTargetRange
PUBLIC	?__ProcessEnemySkillTargetRange@CPythonPlayer@@IAE_NAAVCInstanceBase@@0AAUSSkillData@CPythonSkill@@K@Z ; CPythonPlayer::__ProcessEnemySkillTargetRange
PUBLIC	?__HasEnoughArrow@CPythonPlayer@@IAE_NXZ	; CPythonPlayer::__HasEnoughArrow
PUBLIC	?__HasItem@CPythonPlayer@@IAE_NK@Z		; CPythonPlayer::__HasItem
PUBLIC	??1?$vector@PAVCInstanceBase@@V?$allocator@PAVCInstanceBase@@@std@@@std@@QAE@XZ ; std::vector<CInstanceBase *,std::allocator<CInstanceBase *> >::~vector<CInstanceBase *,std::allocator<CInstanceBase *> >
PUBLIC	??1?$CDynamicPoolEx@VCRotationDecorator@NEffectUpdateDecorator@@@@UAE@XZ ; CDynamicPoolEx<NEffectUpdateDecorator::CRotationDecorator>::~CDynamicPoolEx<NEffectUpdateDecorator::CRotationDecorator>
PUBLIC	?Delete@?$CDynamicPoolEx@VCRotationDecorator@NEffectUpdateDecorator@@@@KAXPAVCRotationDecorator@NEffectUpdateDecorator@@@Z ; CDynamicPoolEx<NEffectUpdateDecorator::CRotationDecorator>::Delete
PUBLIC	??1?$CDynamicPoolEx@VCGravityDecorator@NEffectUpdateDecorator@@@@UAE@XZ ; CDynamicPoolEx<NEffectUpdateDecorator::CGravityDecorator>::~CDynamicPoolEx<NEffectUpdateDecorator::CGravityDecorator>
PUBLIC	?Delete@?$CDynamicPoolEx@VCGravityDecorator@NEffectUpdateDecorator@@@@KAXPAVCGravityDecorator@NEffectUpdateDecorator@@@Z ; CDynamicPoolEx<NEffectUpdateDecorator::CGravityDecorator>::Delete
PUBLIC	??1?$CDynamicPoolEx@VCAirResistanceDecorator@NEffectUpdateDecorator@@@@UAE@XZ ; CDynamicPoolEx<NEffectUpdateDecorator::CAirResistanceDecorator>::~CDynamicPoolEx<NEffectUpdateDecorator::CAirResistanceDecorator>
PUBLIC	?Delete@?$CDynamicPoolEx@VCAirResistanceDecorator@NEffectUpdateDecorator@@@@KAXPAVCAirResistanceDecorator@NEffectUpdateDecorator@@@Z ; CDynamicPoolEx<NEffectUpdateDecorator::CAirResistanceDecorator>::Delete
PUBLIC	??1?$CDynamicPoolEx@VCTextureAnimationRandomDecorator@NEffectUpdateDecorator@@@@UAE@XZ ; CDynamicPoolEx<NEffectUpdateDecorator::CTextureAnimationRandomDecorator>::~CDynamicPoolEx<NEffectUpdateDecorator::CTextureAnimationRandomDecorator>
PUBLIC	?Delete@?$CDynamicPoolEx@VCTextureAnimationRandomDecorator@NEffectUpdateDecorator@@@@KAXPAVCTextureAnimationRandomDecorator@NEffectUpdateDecorator@@@Z ; CDynamicPoolEx<NEffectUpdateDecorator::CTextureAnimationRandomDecorator>::Delete
PUBLIC	??1?$CDynamicPoolEx@VCTextureAnimationCCWDecorator@NEffectUpdateDecorator@@@@UAE@XZ ; CDynamicPoolEx<NEffectUpdateDecorator::CTextureAnimationCCWDecorator>::~CDynamicPoolEx<NEffectUpdateDecorator::CTextureAnimationCCWDecorator>
PUBLIC	?Delete@?$CDynamicPoolEx@VCTextureAnimationCCWDecorator@NEffectUpdateDecorator@@@@KAXPAVCTextureAnimationCCWDecorator@NEffectUpdateDecorator@@@Z ; CDynamicPoolEx<NEffectUpdateDecorator::CTextureAnimationCCWDecorator>::Delete
PUBLIC	??1?$CDynamicPoolEx@VCTextureAnimationCWDecorator@NEffectUpdateDecorator@@@@UAE@XZ ; CDynamicPoolEx<NEffectUpdateDecorator::CTextureAnimationCWDecorator>::~CDynamicPoolEx<NEffectUpdateDecorator::CTextureAnimationCWDecorator>
PUBLIC	?Delete@?$CDynamicPoolEx@VCTextureAnimationCWDecorator@NEffectUpdateDecorator@@@@KAXPAVCTextureAnimationCWDecorator@NEffectUpdateDecorator@@@Z ; CDynamicPoolEx<NEffectUpdateDecorator::CTextureAnimationCWDecorator>::Delete
PUBLIC	??1?$CDynamicPoolEx@VCNullDecorator@NEffectUpdateDecorator@@@@UAE@XZ ; CDynamicPoolEx<NEffectUpdateDecorator::CNullDecorator>::~CDynamicPoolEx<NEffectUpdateDecorator::CNullDecorator>
PUBLIC	?Delete@?$CDynamicPoolEx@VCNullDecorator@NEffectUpdateDecorator@@@@KAXPAVCNullDecorator@NEffectUpdateDecorator@@@Z ; CDynamicPoolEx<NEffectUpdateDecorator::CNullDecorator>::Delete
PUBLIC	??1?$CDynamicPoolEx@VCHeaderDecorator@NEffectUpdateDecorator@@@@UAE@XZ ; CDynamicPoolEx<NEffectUpdateDecorator::CHeaderDecorator>::~CDynamicPoolEx<NEffectUpdateDecorator::CHeaderDecorator>
PUBLIC	?Delete@?$CDynamicPoolEx@VCHeaderDecorator@NEffectUpdateDecorator@@@@KAXPAVCHeaderDecorator@NEffectUpdateDecorator@@@Z ; CDynamicPoolEx<NEffectUpdateDecorator::CHeaderDecorator>::Delete
PUBLIC	??$_Destroy_range@V?$allocator@PAVCInstanceBase@@@std@@@std@@YAXPAPAVCInstanceBase@@QAPAV1@AAV?$allocator@PAVCInstanceBase@@@0@@Z ; std::_Destroy_range<std::allocator<CInstanceBase *> >
PUBLIC	??$_Destroy_range@V?$allocator@PAVCHeaderDecorator@NEffectUpdateDecorator@@@std@@@std@@YAXPAPAVCHeaderDecorator@NEffectUpdateDecorator@@QAPAV12@AAV?$allocator@PAVCHeaderDecorator@NEffectUpdateDecorator@@@0@@Z ; std::_Destroy_range<std::allocator<NEffectUpdateDecorator::CHeaderDecorator *> >
PUBLIC	??$_Destroy_range@V?$allocator@PAVCNullDecorator@NEffectUpdateDecorator@@@std@@@std@@YAXPAPAVCNullDecorator@NEffectUpdateDecorator@@QAPAV12@AAV?$allocator@PAVCNullDecorator@NEffectUpdateDecorator@@@0@@Z ; std::_Destroy_range<std::allocator<NEffectUpdateDecorator::CNullDecorator *> >
PUBLIC	??$_Destroy_range@V?$allocator@PAVCTextureAnimationCWDecorator@NEffectUpdateDecorator@@@std@@@std@@YAXPAPAVCTextureAnimationCWDecorator@NEffectUpdateDecorator@@QAPAV12@AAV?$allocator@PAVCTextureAnimationCWDecorator@NEffectUpdateDecorator@@@0@@Z ; std::_Destroy_range<std::allocator<NEffectUpdateDecorator::CTextureAnimationCWDecorator *> >
PUBLIC	??$_Destroy_range@V?$allocator@PAVCTextureAnimationCCWDecorator@NEffectUpdateDecorator@@@std@@@std@@YAXPAPAVCTextureAnimationCCWDecorator@NEffectUpdateDecorator@@QAPAV12@AAV?$allocator@PAVCTextureAnimationCCWDecorator@NEffectUpdateDecorator@@@0@@Z ; std::_Destroy_range<std::allocator<NEffectUpdateDecorator::CTextureAnimationCCWDecorator *> >
PUBLIC	??$_Destroy_range@V?$allocator@PAVCTextureAnimationRandomDecorator@NEffectUpdateDecorator@@@std@@@std@@YAXPAPAVCTextureAnimationRandomDecorator@NEffectUpdateDecorator@@QAPAV12@AAV?$allocator@PAVCTextureAnimationRandomDecorator@NEffectUpdateDecorator@@@0@@Z ; std::_Destroy_range<std::allocator<NEffectUpdateDecorator::CTextureAnimationRandomDecorator *> >
PUBLIC	??$_Destroy_range@V?$allocator@PAVCAirResistanceDecorator@NEffectUpdateDecorator@@@std@@@std@@YAXPAPAVCAirResistanceDecorator@NEffectUpdateDecorator@@QAPAV12@AAV?$allocator@PAVCAirResistanceDecorator@NEffectUpdateDecorator@@@0@@Z ; std::_Destroy_range<std::allocator<NEffectUpdateDecorator::CAirResistanceDecorator *> >
PUBLIC	??$_Destroy_range@V?$allocator@PAVCGravityDecorator@NEffectUpdateDecorator@@@std@@@std@@YAXPAPAVCGravityDecorator@NEffectUpdateDecorator@@QAPAV12@AAV?$allocator@PAVCGravityDecorator@NEffectUpdateDecorator@@@0@@Z ; std::_Destroy_range<std::allocator<NEffectUpdateDecorator::CGravityDecorator *> >
PUBLIC	??$_Destroy_range@V?$allocator@PAVCRotationDecorator@NEffectUpdateDecorator@@@std@@@std@@YAXPAPAVCRotationDecorator@NEffectUpdateDecorator@@QAPAV12@AAV?$allocator@PAVCRotationDecorator@NEffectUpdateDecorator@@@0@@Z ; std::_Destroy_range<std::allocator<NEffectUpdateDecorator::CRotationDecorator *> >
PUBLIC	?ms_singleton@?$CSingleton@VCTimer@@@@0PAVCTimer@@A ; CSingleton<CTimer>::ms_singleton
PUBLIC	?ms_singleton@?$CSingleton@VIBackground@@@@0PAVIBackground@@A ; CSingleton<IBackground>::ms_singleton
PUBLIC	?ms_singleton@?$CSingleton@VCPythonSkill@@@@0PAVCPythonSkill@@A ; CSingleton<CPythonSkill>::ms_singleton
PUBLIC	?ms_singleton@?$CSingleton@VCPythonNetworkStream@@@@0PAVCPythonNetworkStream@@A ; CSingleton<CPythonNetworkStream>::ms_singleton
PUBLIC	?ms_kPool@?$CPooledObject@VCHeaderDecorator@NEffectUpdateDecorator@@@@1V?$CDynamicPoolEx@VCHeaderDecorator@NEffectUpdateDecorator@@@@A ; CPooledObject<NEffectUpdateDecorator::CHeaderDecorator>::ms_kPool
PUBLIC	?ms_kPool@?$CPooledObject@VCNullDecorator@NEffectUpdateDecorator@@@@1V?$CDynamicPoolEx@VCNullDecorator@NEffectUpdateDecorator@@@@A ; CPooledObject<NEffectUpdateDecorator::CNullDecorator>::ms_kPool
PUBLIC	?ms_kPool@?$CPooledObject@VCTextureAnimationCWDecorator@NEffectUpdateDecorator@@@@1V?$CDynamicPoolEx@VCTextureAnimationCWDecorator@NEffectUpdateDecorator@@@@A ; CPooledObject<NEffectUpdateDecorator::CTextureAnimationCWDecorator>::ms_kPool
PUBLIC	?ms_kPool@?$CPooledObject@VCTextureAnimationCCWDecorator@NEffectUpdateDecorator@@@@1V?$CDynamicPoolEx@VCTextureAnimationCCWDecorator@NEffectUpdateDecorator@@@@A ; CPooledObject<NEffectUpdateDecorator::CTextureAnimationCCWDecorator>::ms_kPool
PUBLIC	?ms_kPool@?$CPooledObject@VCTextureAnimationRandomDecorator@NEffectUpdateDecorator@@@@1V?$CDynamicPoolEx@VCTextureAnimationRandomDecorator@NEffectUpdateDecorator@@@@A ; CPooledObject<NEffectUpdateDecorator::CTextureAnimationRandomDecorator>::ms_kPool
PUBLIC	?ms_kPool@?$CPooledObject@VCAirResistanceDecorator@NEffectUpdateDecorator@@@@1V?$CDynamicPoolEx@VCAirResistanceDecorator@NEffectUpdateDecorator@@@@A ; CPooledObject<NEffectUpdateDecorator::CAirResistanceDecorator>::ms_kPool
PUBLIC	?ms_kPool@?$CPooledObject@VCGravityDecorator@NEffectUpdateDecorator@@@@1V?$CDynamicPoolEx@VCGravityDecorator@NEffectUpdateDecorator@@@@A ; CPooledObject<NEffectUpdateDecorator::CGravityDecorator>::ms_kPool
PUBLIC	?ms_kPool@?$CPooledObject@VCRotationDecorator@NEffectUpdateDecorator@@@@1V?$CDynamicPoolEx@VCRotationDecorator@NEffectUpdateDecorator@@@@A ; CPooledObject<NEffectUpdateDecorator::CRotationDecorator>::ms_kPool
PUBLIC	?ms_singleton@?$CSingleton@VCPythonChat@@@@0PAVCPythonChat@@A ; CSingleton<CPythonChat>::ms_singleton
PUBLIC	?ms_singleton@?$CSingleton@VCPythonGuild@@@@0PAVCPythonGuild@@A ; CSingleton<CPythonGuild>::ms_singleton
PUBLIC	?ms_singleton@?$CSingleton@VCItemManager@@@@0PAVCItemManager@@A ; CSingleton<CItemManager>::ms_singleton
PUBLIC	??_C@_02HCKGKOFO@?$CI?$CJ@			; `string'
PUBLIC	??_C@_0N@OADAMGHE@ClearAffects@			; `string'
PUBLIC	??_C@_03LIHNMIHG@?$CIi?$CJ@			; `string'
PUBLIC	??_C@_09FHCBCPJO@SetAffect@			; `string'
PUBLIC	??_C@_0M@HBOAHMLO@ResetAffect@			; `string'
PUBLIC	??_C@_0M@HCIEKIGP@NEED_TARGET@			; `string'
PUBLIC	??_C@_04JMLDJNEM@?$CIis?$CJ@			; `string'
PUBLIC	??_C@_0BB@BOHMBBJL@OnCannotUseSkill@		; `string'
PUBLIC	??_C@_0BD@IOEPNDLO@ChangeCurrentSkill@		; `string'
PUBLIC	??_C@_0BA@MEPOIIPE@NOT_HORSE_SKILL@		; `string'
PUBLIC	??_C@_0N@DJBFACMO@HAVE_TO_RIDE@			; `string'
PUBLIC	??_C@_07OAOBINCH@IN_SAFE@			; `string'
PUBLIC	??_C@_0BC@DDKDAKLO@NEED_EMPTY_BOTTLE@		; `string'
PUBLIC	??_C@_0BD@HPCMPHGF@NEED_POISON_BOTTLE@		; `string'
PUBLIC	??_C@_0BD@LIIMHBCN@REMOVE_FISHING_ROD@		; `string'
PUBLIC	??_C@_0O@PFLGBNMN@NOT_YET_LEARN@		; `string'
PUBLIC	??_C@_0BF@KPLOMIJE@NOT_MATCHABLE_WEAPON@	; `string'
PUBLIC	??_C@_0O@CCJDKKCC@WAIT_COOLTIME@		; `string'
PUBLIC	??_C@_0O@CILBJNOC@NOT_ENOUGH_HP@		; `string'
PUBLIC	??_C@_0O@DIMCNBHD@NOT_ENOUGH_SP@		; `string'
PUBLIC	??_C@_0DF@OHCKPFBO@?$CB?$CB?$CB?5Find?5strange?5game?5data?4?5Ple@ ; `string'
PUBLIC	??_C@_0BA@CFBPJACC@CANNOT_APPROACH@		; `string'
PUBLIC	??_C@_0EP@OENNGPFB@CPythonPlayer?3?3__UseSkill?$CIdwSlo@ ; `string'
PUBLIC	??_C@_0EB@JKMJGFLB@CPythonPlayer?3?3__UseSkill?$CIdwSlo@ ; `string'
PUBLIC	??_C@_0EC@MMFCNDJC@CPythonPlayer?3?3__UseSkill?$CIdwSlo@ ; `string'
PUBLIC	??_C@_0BA@GMGJKDGM@CANNOT_USE_SELF@		; `string'
PUBLIC	??_C@_0FC@NMOECDOK@?5?$FLALERT?$FN?5?$LF?$LP?$LH?a?$LP?$KB?$LA?T?5?$LL?g?$LP?k?G?O?$LE?B?5?$LB?b?$LM?z@ ; `string'
PUBLIC	??_C@_0BC@CKDFNGK@ONLY_FOR_ALLIANCE@		; `string'
PUBLIC	??_C@_0CB@HEDIGIHC@CANNOT_ATTACK_ENEMY_IN_SAFE_ARE@ ; `string'
PUBLIC	??_C@_0O@BIOLCACO@CANNOT_ATTACK@		; `string'
PUBLIC	??_C@_0DA@NPBLPNPC@?5?$FLALERT?$FN?5?E?$LI?$LA?Y?$MA?L?5?$LO?x?$LO?n?$LM?$KN?5?G?C?$LH?$LJ?$MA?L?$LO?n@ ; `string'
PUBLIC	??_C@_0BA@FPMNLALM@ONLY_FOR_CORPSE@		; `string'
PUBLIC	??_C@_0DN@DLLIDDMA@CPythonPlayer?3?3__UseSkill?$CI?$CFd?$CJ?5?9@ ; `string'
PUBLIC	??_C@_0EB@LKBFGOEE@CPythonPlayer?3?3__UseSkill?$CI?$CFd?$CJ?5?9@ ; `string'
PUBLIC	??_C@_0DP@EKGIGFIO@CPythonPlayer?3?3__SendUseSkill?$CId@ ; `string'
PUBLIC	??_C@_04IGFOPMNH@?$CIif?$CJ@			; `string'
PUBLIC	??_C@_0BB@GJACMMFG@RunUseSkillEvent@		; `string'
PUBLIC	??_C@_0M@FBIHMJDM@EMPTY_ARROW@			; `string'
PUBLIC	??_C@_0BC@FKINMGLI@OnCannotShotError@		; `string'
PUBLIC	??_C@_0FH@CAACOELN@CPythonPlayer?3?3UseGuildSkill?$CIdw@ ; `string'
PUBLIC	??_C@_0BD@OHHCPGPG@ONLY_FOR_GUILD_WAR@		; `string'
PUBLIC	??_C@_0EE@GICPADML@CPythonPlayer?3?3UseGuildSkill?$CI?$CFd@ ; `string'
PUBLIC	??_C@_0EI@OMJBNOHB@CPythonPlayer?3?3SetComboSkillFla@ ; `string'
PUBLIC	??_C@_0FM@DHHFNKGI@CPythonPlayer?3?3SetComboSkillFla@ ; `string'
PUBLIC	??_C@_0BC@ENEHNNJB@EQUIP_FISHING_ROD@		; `string'
PUBLIC	__real@42c80000
PUBLIC	__real@43480000
PUBLIC	__xmm@41f00000000000000000000000000000
PUBLIC	__xmm@80000000800000008000000080000000
EXTRN	??3@YAXPAX@Z:PROC				; operator delete
EXTRN	??3@YAXPAXI@Z:PROC				; operator delete
EXTRN	_atexit:PROC
EXTRN	__invalid_parameter_noinfo_noreturn:PROC
EXTRN	?Tracenf@@YAXPBDZZ:PROC				; Tracenf
EXTRN	?Tracef@@YAXPBDZZ:PROC				; Tracef
EXTRN	?TraceError@@YAXPBDZZ:PROC			; TraceError
EXTRN	?MIN@@YAHHH@Z:PROC				; MIN
EXTRN	__imp__Py_BuildValue:PROC
EXTRN	?PyCallClassMemberFunc@@YA_NPAU_object@@PBD0@Z:PROC ; PyCallClassMemberFunc
EXTRN	?GetCurrentSecond@CTimer@@QAEMXZ:PROC		; CTimer::GetCurrentSecond
EXTRN	?GetType@CItemData@@QBEEXZ:PROC			; CItemData::GetType
EXTRN	?GetSubType@CItemData@@QBEEXZ:PROC		; CItemData::GetSubType
EXTRN	?GetTargetRange@SSkillData@CPythonSkill@@QBEKXZ:PROC ; CPythonSkill::SSkillData::GetTargetRange
EXTRN	?CanChangeDirection@SSkillData@CPythonSkill@@QAEHXZ:PROC ; CPythonSkill::SSkillData::CanChangeDirection
EXTRN	?IsFanRange@SSkillData@CPythonSkill@@QAEHXZ:PROC ; CPythonSkill::SSkillData::IsFanRange
EXTRN	?IsCircleRange@SSkillData@CPythonSkill@@QAEHXZ:PROC ; CPythonSkill::SSkillData::IsCircleRange
EXTRN	?IsAutoSearchTarget@SSkillData@CPythonSkill@@QAEHXZ:PROC ; CPythonSkill::SSkillData::IsAutoSearchTarget
EXTRN	?IsNeedTarget@SSkillData@CPythonSkill@@QAEHXZ:PROC ; CPythonSkill::SSkillData::IsNeedTarget
EXTRN	?IsNeedCorpse@SSkillData@CPythonSkill@@QAEHXZ:PROC ; CPythonSkill::SSkillData::IsNeedCorpse
EXTRN	?IsToggleSkill@SSkillData@CPythonSkill@@QAEHXZ:PROC ; CPythonSkill::SSkillData::IsToggleSkill
EXTRN	?IsUseHPSkill@SSkillData@CPythonSkill@@QAEHXZ:PROC ; CPythonSkill::SSkillData::IsUseHPSkill
EXTRN	?IsStandingSkill@SSkillData@CPythonSkill@@QAEHXZ:PROC ; CPythonSkill::SSkillData::IsStandingSkill
EXTRN	?CanUseWeaponType@SSkillData@CPythonSkill@@QAEHK@Z:PROC ; CPythonSkill::SSkillData::CanUseWeaponType
EXTRN	?IsOnlyForAlliance@SSkillData@CPythonSkill@@QAEHXZ:PROC ; CPythonSkill::SSkillData::IsOnlyForAlliance
EXTRN	?CanUseForMe@SSkillData@CPythonSkill@@QAEHXZ:PROC ; CPythonSkill::SSkillData::CanUseForMe
EXTRN	?CanUseIfNotEnough@SSkillData@CPythonSkill@@QAEHXZ:PROC ; CPythonSkill::SSkillData::CanUseIfNotEnough
EXTRN	?IsNeedEmptyBottle@SSkillData@CPythonSkill@@QAEHXZ:PROC ; CPythonSkill::SSkillData::IsNeedEmptyBottle
EXTRN	?IsNeedPoisonBottle@SSkillData@CPythonSkill@@QAEHXZ:PROC ; CPythonSkill::SSkillData::IsNeedPoisonBottle
EXTRN	?IsNeedBow@SSkillData@CPythonSkill@@QAEHXZ:PROC	; CPythonSkill::SSkillData::IsNeedBow
EXTRN	?IsAttackSkill@SSkillData@CPythonSkill@@QAEHXZ:PROC ; CPythonSkill::SSkillData::IsAttackSkill
EXTRN	?IsHorseSkill@SSkillData@CPythonSkill@@QAEHXZ:PROC ; CPythonSkill::SSkillData::IsHorseSkill
EXTRN	?IsMovingSkill@SSkillData@CPythonSkill@@QAEHXZ:PROC ; CPythonSkill::SSkillData::IsMovingSkill
EXTRN	?IsChargeSkill@SSkillData@CPythonSkill@@QAEHXZ:PROC ; CPythonSkill::SSkillData::IsChargeSkill
EXTRN	?IsOnlyForGuildWar@SSkillData@CPythonSkill@@QAEHXZ:PROC ; CPythonSkill::SSkillData::IsOnlyForGuildWar
EXTRN	?GetSkillCoolTime@SSkillData@CPythonSkill@@QAEKM@Z:PROC ; CPythonSkill::SSkillData::GetSkillCoolTime
EXTRN	?GetNeedSP@SSkillData@CPythonSkill@@QAEHM@Z:PROC ; CPythonSkill::SSkillData::GetNeedSP
EXTRN	?GetMotionLoopCount@SSkillData@CPythonSkill@@QAEKM@Z:PROC ; CPythonSkill::SSkillData::GetMotionLoopCount
EXTRN	?GetTargetCount@SSkillData@CPythonSkill@@QAEKM@Z:PROC ; CPythonSkill::SSkillData::GetTargetCount
EXTRN	?GetSkillMotionIndex@SSkillData@CPythonSkill@@QAEKH@Z:PROC ; CPythonSkill::SSkillData::GetSkillMotionIndex
EXTRN	?IsCanUseSkill@SSkillData@CPythonSkill@@QAE_NXZ:PROC ; CPythonSkill::SSkillData::IsCanUseSkill
EXTRN	?IsNoMotion@SSkillData@CPythonSkill@@QAEHXZ:PROC ; CPythonSkill::SSkillData::IsNoMotion
EXTRN	?GetType@SSkillData@CPythonSkill@@QBEEXZ:PROC	; CPythonSkill::SSkillData::GetType
EXTRN	?GetSkillData@CPythonSkill@@QAEHKPAPAUSSkillData@1@@Z:PROC ; CPythonSkill::GetSkillData
EXTRN	?IsObserverMode@CPythonPlayer@@QAE_NXZ:PROC	; CPythonPlayer::IsObserverMode
EXTRN	?NEW_Fishing@CPythonPlayer@@QAEXXZ:PROC		; CPythonPlayer::NEW_Fishing
EXTRN	?NEW_FindActorPtr@CPythonPlayer@@QAEPAVCInstanceBase@@K@Z:PROC ; CPythonPlayer::NEW_FindActorPtr
EXTRN	?GetSkillSlotIndex@CPythonPlayer@@QAE_NKPAK@Z:PROC ; CPythonPlayer::GetSkillSlotIndex
EXTRN	?GetSkillGrade@CPythonPlayer@@QAEHK@Z:PROC	; CPythonPlayer::GetSkillGrade
EXTRN	?GetSkillLevel@CPythonPlayer@@QAEHK@Z:PROC	; CPythonPlayer::GetSkillLevel
EXTRN	?IsSkillActive@CPythonPlayer@@QAEHK@Z:PROC	; CPythonPlayer::IsSkillActive
EXTRN	?AffectIndexToSkillIndex@CPythonPlayer@@QAE_NKPAK@Z:PROC ; CPythonPlayer::AffectIndexToSkillIndex
EXTRN	?IsOpenPrivateShop@CPythonPlayer@@QAE_NXZ:PROC	; CPythonPlayer::IsOpenPrivateShop
EXTRN	?__DeactivateSkillSlot@CPythonPlayer@@IAEXK@Z:PROC ; CPythonPlayer::__DeactivateSkillSlot
EXTRN	?__ActivateSkillSlot@CPythonPlayer@@IAEXK@Z:PROC ; CPythonPlayer::__ActivateSkillSlot
EXTRN	?__GetPickedActorID@CPythonPlayer@@IAE_NPAK@Z:PROC ; CPythonPlayer::__GetPickedActorID
EXTRN	?__GetPickedGroundPos@CPythonPlayer@@IAE_NPAUD3DXVECTOR3@@@Z:PROC ; CPythonPlayer::__GetPickedGroundPos
EXTRN	?__ClearReservedAction@CPythonPlayer@@IAEXXZ:PROC ; CPythonPlayer::__ClearReservedAction
EXTRN	?__ReserveUseSkill@CPythonPlayer@@IAEXKKK@Z:PROC ; CPythonPlayer::__ReserveUseSkill
EXTRN	?__IsReservedUseSkill@CPythonPlayer@@IAE_NK@Z:PROC ; CPythonPlayer::__IsReservedUseSkill
EXTRN	?__IsTarget@CPythonPlayer@@IAE_NXZ:PROC		; CPythonPlayer::__IsTarget
EXTRN	?__ChangeTargetToPickedInstance@CPythonPlayer@@IAE_NXZ:PROC ; CPythonPlayer::__ChangeTargetToPickedInstance
EXTRN	?__GetAliveTargetInstancePtr@CPythonPlayer@@IAEPAVCInstanceBase@@XZ:PROC ; CPythonPlayer::__GetAliveTargetInstancePtr
EXTRN	?__GetDeadTargetInstancePtr@CPythonPlayer@@IAEPAVCInstanceBase@@XZ:PROC ; CPythonPlayer::__GetDeadTargetInstancePtr
EXTRN	?__IsRightButtonSkillMode@CPythonPlayer@@IAEHXZ:PROC ; CPythonPlayer::__IsRightButtonSkillMode
EXTRN	?SendUseSkillPacket@CPythonNetworkStream@@QAE_NKK@Z:PROC ; CPythonNetworkStream::SendUseSkillPacket
EXTRN	?SendAddFlyTargetingPacket@CPythonNetworkStream@@QAE_NKABUD3DXVECTOR3@@@Z:PROC ; CPythonNetworkStream::SendAddFlyTargetingPacket
EXTRN	?SendGuildUseSkillPacket@CPythonNetworkStream@@QAE_NKK@Z:PROC ; CPythonNetworkStream::SendGuildUseSkillPacket
EXTRN	?IsFlyTargetObject@CInstanceBase@@QAE_NXZ:PROC	; CInstanceBase::IsFlyTargetObject
EXTRN	?SetFlyTargetInstance@CInstanceBase@@QAEXAAV1@@Z:PROC ; CInstanceBase::SetFlyTargetInstance
EXTRN	?AddFlyTargetInstance@CInstanceBase@@QAEXAAV1@@Z:PROC ; CInstanceBase::AddFlyTargetInstance
EXTRN	?AddFlyTargetPosition@CInstanceBase@@QAEXABUD3DXVECTOR3@@@Z:PROC ; CInstanceBase::AddFlyTargetPosition
EXTRN	?GetWeaponType@CInstanceBase@@QAEKXZ:PROC	; CInstanceBase::GetWeaponType
EXTRN	?SetComboType@CInstanceBase@@QAEXI@Z:PROC	; CInstanceBase::SetComboType
EXTRN	?GetRace@CInstanceBase@@QAEKXZ:PROC		; CInstanceBase::GetRace
EXTRN	?GetVirtualID@CInstanceBase@@QAEKXZ:PROC	; CInstanceBase::GetVirtualID
EXTRN	?CanUseSkill@CInstanceBase@@QAE_NXZ:PROC	; CInstanceBase::CanUseSkill
EXTRN	?IsAttackableInstance@CInstanceBase@@QAE_NAAV1@@Z:PROC ; CInstanceBase::IsAttackableInstance
EXTRN	?IsAffect@CInstanceBase@@QAE_NI@Z:PROC		; CInstanceBase::IsAffect
EXTRN	?IsFishingMode@CInstanceBase@@QAEHXZ:PROC	; CInstanceBase::IsFishingMode
EXTRN	?IsMountingHorse@CInstanceBase@@QAEHXZ:PROC	; CInstanceBase::IsMountingHorse
EXTRN	?IsInSafe@CInstanceBase@@QAEHXZ:PROC		; CInstanceBase::IsInSafe
EXTRN	?IsPC@CInstanceBase@@QAEHXZ:PROC		; CInstanceBase::IsPC
EXTRN	?IsDead@CInstanceBase@@QAEHXZ:PROC		; CInstanceBase::IsDead
EXTRN	?IsUsingSkill@CInstanceBase@@QAEHXZ:PROC	; CInstanceBase::IsUsingSkill
EXTRN	?NEW_UseSkill@CInstanceBase@@QAE_NIII_N@Z:PROC	; CInstanceBase::NEW_UseSkill
EXTRN	?NEW_GetFrontInstance@CInstanceBase@@QAE_NPAPAV1@M@Z:PROC ; CInstanceBase::NEW_GetFrontInstance
EXTRN	?NEW_GetRandomPositionInFanRange@CInstanceBase@@QAEXAAV1@PAUD3DXVECTOR3@@@Z:PROC ; CInstanceBase::NEW_GetRandomPositionInFanRange
EXTRN	?NEW_GetInstanceVectorInFanRange@CInstanceBase@@QAE_NMAAV1@PAV?$vector@PAVCInstanceBase@@V?$allocator@PAVCInstanceBase@@@std@@@std@@@Z:PROC ; CInstanceBase::NEW_GetInstanceVectorInFanRange
EXTRN	?NEW_GetInstanceVectorInCircleRange@CInstanceBase@@QAE_NMPAV?$vector@PAVCInstanceBase@@V?$allocator@PAVCInstanceBase@@@std@@@std@@@Z:PROC ; CInstanceBase::NEW_GetInstanceVectorInCircleRange
EXTRN	?NEW_GetPixelPosition@CInstanceBase@@QAEXPAUD3DXVECTOR3@@@Z:PROC ; CInstanceBase::NEW_GetPixelPosition
EXTRN	?NEW_LookAtFlyTarget@CInstanceBase@@QAEXXZ:PROC	; CInstanceBase::NEW_LookAtFlyTarget
EXTRN	?NEW_LookAtDestInstance@CInstanceBase@@QAEXAAV1@@Z:PROC ; CInstanceBase::NEW_LookAtDestInstance
EXTRN	?NEW_LookAtDestPixelPosition@CInstanceBase@@QAEXABUD3DXVECTOR3@@@Z:PROC ; CInstanceBase::NEW_LookAtDestPixelPosition
EXTRN	?GetDistance@CInstanceBase@@QAEMPAV1@@Z:PROC	; CInstanceBase::GetDistance
EXTRN	?GetGraphicThingInstanceRef@CInstanceBase@@QAEAAVCActorInstance@@XZ:PROC ; CInstanceBase::GetGraphicThingInstanceRef
EXTRN	?IsDoingGuildWar@CPythonGuild@@QAEHXZ:PROC	; CPythonGuild::IsDoingGuildWar
EXTRN	?GetItemDataPointer@CItemManager@@QAEHKPAPAVCItemData@@@Z:PROC ; CItemManager::GetItemDataPointer
EXTRN	?IS_HUGE_RACE@@YA_NI@Z:PROC			; IS_HUGE_RACE
EXTRN	@__security_check_cookie@4:PROC
EXTRN	___CxxFrameHandler3:PROC
EXTRN	?c_iSkillIndex_Summon@@3KB:DWORD		; c_iSkillIndex_Summon
EXTRN	?c_iSkillIndex_Fishing@@3KB:DWORD		; c_iSkillIndex_Fishing
EXTRN	?c_iSkillIndex_Combo@@3KB:DWORD			; c_iSkillIndex_Combo
EXTRN	___security_cookie:DWORD
EXTRN	__fltused:DWORD
;	COMDAT ?ms_singleton@?$CSingleton@VCTimer@@@@0PAVCTimer@@A
_BSS	SEGMENT
?ms_singleton@?$CSingleton@VCTimer@@@@0PAVCTimer@@A DD 01H DUP (?) ; CSingleton<CTimer>::ms_singleton
_BSS	ENDS
;	COMDAT ?ms_singleton@?$CSingleton@VIBackground@@@@0PAVIBackground@@A
_BSS	SEGMENT
?ms_singleton@?$CSingleton@VIBackground@@@@0PAVIBackground@@A DD 01H DUP (?) ; CSingleton<IBackground>::ms_singleton
_BSS	ENDS
;	COMDAT ?ms_singleton@?$CSingleton@VCPythonSkill@@@@0PAVCPythonSkill@@A
_BSS	SEGMENT
?ms_singleton@?$CSingleton@VCPythonSkill@@@@0PAVCPythonSkill@@A DD 01H DUP (?) ; CSingleton<CPythonSkill>::ms_singleton
_BSS	ENDS
;	COMDAT ?ms_singleton@?$CSingleton@VCPythonNetworkStream@@@@0PAVCPythonNetworkStream@@A
_BSS	SEGMENT
?ms_singleton@?$CSingleton@VCPythonNetworkStream@@@@0PAVCPythonNetworkStream@@A DD 01H DUP (?) ; CSingleton<CPythonNetworkStream>::ms_singleton
_BSS	ENDS
;	COMDAT ?ms_singleton@?$CSingleton@VCPythonChat@@@@0PAVCPythonChat@@A
_BSS	SEGMENT
?ms_singleton@?$CSingleton@VCPythonChat@@@@0PAVCPythonChat@@A DD 01H DUP (?) ; CSingleton<CPythonChat>::ms_singleton
_BSS	ENDS
;	COMDAT ?ms_singleton@?$CSingleton@VCPythonGuild@@@@0PAVCPythonGuild@@A
_BSS	SEGMENT
?ms_singleton@?$CSingleton@VCPythonGuild@@@@0PAVCPythonGuild@@A DD 01H DUP (?) ; CSingleton<CPythonGuild>::ms_singleton
_BSS	ENDS
;	COMDAT ?ms_singleton@?$CSingleton@VCItemManager@@@@0PAVCItemManager@@A
_BSS	SEGMENT
?ms_singleton@?$CSingleton@VCItemManager@@@@0PAVCItemManager@@A DD 01H DUP (?) ; CSingleton<CItemManager>::ms_singleton
_BSS	ENDS
;	COMDAT CRT$XCU
CRT$XCU	SEGMENT
??ms_kPool$initializer$@?$CPooledObject@VCHeaderDecorator@NEffectUpdateDecorator@@@@1P6AXXZA@@3P6AXXZA DD FLAT:??__E?ms_kPool@?$CPooledObject@VCHeaderDecorator@NEffectUpdateDecorator@@@@1V?$CDynamicPoolEx@VCHeaderDecorator@NEffectUpdateDecorator@@@@A@@YAXXZ ; ??ms_kPool$initializer$@?$CPooledObject@VCHeaderDecorator@NEffectUpdateDecorator@@@@1P6AXXZA@@3P6AXXZA
CRT$XCU	ENDS
;	COMDAT __xmm@80000000800000008000000080000000
CONST	SEGMENT
__xmm@80000000800000008000000080000000 DB 00H, 00H, 00H, 080H, 00H, 00H, 00H
	DB	080H, 00H, 00H, 00H, 080H, 00H, 00H, 00H, 080H
CONST	ENDS
;	COMDAT __xmm@41f00000000000000000000000000000
CONST	SEGMENT
__xmm@41f00000000000000000000000000000 DB 00H, 00H, 00H, 00H, 00H, 00H, 00H
	DB	00H, 00H, 00H, 00H, 00H, 00H, 00H, 0f0H, 'A'
CONST	ENDS
;	COMDAT __real@43480000
CONST	SEGMENT
__real@43480000 DD 043480000r			; 200
CONST	ENDS
;	COMDAT __real@42c80000
CONST	SEGMENT
__real@42c80000 DD 042c80000r			; 100
CONST	ENDS
;	COMDAT ??_C@_0BC@ENEHNNJB@EQUIP_FISHING_ROD@
CONST	SEGMENT
??_C@_0BC@ENEHNNJB@EQUIP_FISHING_ROD@ DB 'EQUIP_FISHING_ROD', 00H ; `string'
CONST	ENDS
;	COMDAT ??_C@_0FM@DHHFNKGI@CPythonPlayer?3?3SetComboSkillFla@
CONST	SEGMENT
??_C@_0FM@DHHFNKGI@CPythonPlayer?3?3SetComboSkillFla@ DB 'CPythonPlayer::'
	DB	'SetComboSkillFlag(skillIndex=%d, skillLevel=%d) - Invalid Com'
	DB	'bo Skill Level', 0aH, 00H			; `string'
CONST	ENDS
;	COMDAT ??_C@_0EI@OMJBNOHB@CPythonPlayer?3?3SetComboSkillFla@
CONST	SEGMENT
??_C@_0EI@OMJBNOHB@CPythonPlayer?3?3SetComboSkillFla@ DB 'CPythonPlayer::'
	DB	'SetComboSkillFlag(killIndex=%d) - Can''t Find Slot Index', 0aH
	DB	00H						; `string'
CONST	ENDS
;	COMDAT ??_C@_0EE@GICPADML@CPythonPlayer?3?3UseGuildSkill?$CI?$CFd@
CONST	SEGMENT
??_C@_0EE@GICPADML@CPythonPlayer?3?3UseGuildSkill?$CI?$CFd@ DB 'CPythonPl'
	DB	'ayer::UseGuildSkill(%d) - pkInstMain->NEW_UseSkill - ERROR', 00H ; `string'
CONST	ENDS
;	COMDAT ??_C@_0BD@OHHCPGPG@ONLY_FOR_GUILD_WAR@
CONST	SEGMENT
??_C@_0BD@OHHCPGPG@ONLY_FOR_GUILD_WAR@ DB 'ONLY_FOR_GUILD_WAR', 00H ; `string'
CONST	ENDS
;	COMDAT ??_C@_0FH@CAACOELN@CPythonPlayer?3?3UseGuildSkill?$CIdw@
CONST	SEGMENT
??_C@_0FH@CAACOELN@CPythonPlayer?3?3UseGuildSkill?$CIdw@ DB 'CPythonPlaye'
	DB	'r::UseGuildSkill(dwSkillSlotIndex=%d) It''s not available ski'
	DB	'll slot number', 00H			; `string'
CONST	ENDS
;	COMDAT ??_C@_0BC@FKINMGLI@OnCannotShotError@
CONST	SEGMENT
??_C@_0BC@FKINMGLI@OnCannotShotError@ DB 'OnCannotShotError', 00H ; `string'
CONST	ENDS
;	COMDAT ??_C@_0M@FBIHMJDM@EMPTY_ARROW@
CONST	SEGMENT
??_C@_0M@FBIHMJDM@EMPTY_ARROW@ DB 'EMPTY_ARROW', 00H	; `string'
CONST	ENDS
;	COMDAT ??_C@_0BB@GJACMMFG@RunUseSkillEvent@
CONST	SEGMENT
??_C@_0BB@GJACMMFG@RunUseSkillEvent@ DB 'RunUseSkillEvent', 00H ; `string'
CONST	ENDS
;	COMDAT ??_C@_04IGFOPMNH@?$CIif?$CJ@
CONST	SEGMENT
??_C@_04IGFOPMNH@?$CIif?$CJ@ DB '(if)', 00H		; `string'
CONST	ENDS
;	COMDAT ??_C@_0DP@EKGIGFIO@CPythonPlayer?3?3__SendUseSkill?$CId@
CONST	SEGMENT
??_C@_0DP@EKGIGFIO@CPythonPlayer?3?3__SendUseSkill?$CId@ DB 'CPythonPlaye'
	DB	'r::__SendUseSkill(dwSkillSlotIndex=%d) - NOT CHECK', 00H ; `string'
CONST	ENDS
;	COMDAT ??_C@_0EB@LKBFGOEE@CPythonPlayer?3?3__UseSkill?$CI?$CFd?$CJ?5?9@
CONST	SEGMENT
??_C@_0EB@LKBFGOEE@CPythonPlayer?3?3__UseSkill?$CI?$CFd?$CJ?5?9@ DB 'CPyt'
	DB	'honPlayer::__UseSkill(%d) - pkInstMain->NEW_UseSkill - ERROR', 00H ; `string'
CONST	ENDS
;	COMDAT ??_C@_0DN@DLLIDDMA@CPythonPlayer?3?3__UseSkill?$CI?$CFd?$CJ?5?9@
CONST	SEGMENT
??_C@_0DN@DLLIDDMA@CPythonPlayer?3?3__UseSkill?$CI?$CFd?$CJ?5?9@ DB 'CPyt'
	DB	'honPlayer::__UseSkill(%d) - ', 0c8H, 0adH, 0b8H, 0e9H, ' ', 0b1H
	DB	0e2H, 0c1H, 0d8H, ' ', 0b9H, 0e6H, 0c7H, 0e2H, ' ', 0bcH, 0b3H
	DB	0c1H, 0a4H, 0c0H, 0bbH, ' ', 0c7H, 0d8H, 0beH, 0dfH, 0c7H, 0d4H
	DB	00H						; `string'
CONST	ENDS
;	COMDAT ??_C@_0BA@FPMNLALM@ONLY_FOR_CORPSE@
CONST	SEGMENT
??_C@_0BA@FPMNLALM@ONLY_FOR_CORPSE@ DB 'ONLY_FOR_CORPSE', 00H ; `string'
CONST	ENDS
;	COMDAT ??_C@_0DA@NPBLPNPC@?5?$FLALERT?$FN?5?E?$LI?$LA?Y?$MA?L?5?$LO?x?$LO?n?$LM?$KN?5?G?C?$LH?$LJ?$MA?L?$LO?n@
CONST	SEGMENT
??_C@_0DA@NPBLPNPC@?5?$FLALERT?$FN?5?E?$LI?$LA?Y?$MA?L?5?$LO?x?$LO?n?$LM?$KN?5?G?C?$LH?$LJ?$MA?L?$LO?n@ DB ' '
	DB	'[ALERT] ', 0c5H, 0b8H, 0b0H, 0d9H, 0c0H, 0ccH, ' ', 0beH, 0f8H
	DB	0beH, 0eeH, 0bcH, 0adH, ' ', 0c7H, 0c3H, 0b7H, 0b9H, 0c0H, 0ccH
	DB	0beH, 0eeH, 0bfH, 0a1H, 0b0H, 0d4H, ' ', 0bbH, 0e7H, 0bfH, 0ebH
	DB	0c7H, 0d5H, 0b4H, 0cfH, 0b4H, 0d9H, 0aH, 00H	; `string'
CONST	ENDS
;	COMDAT ??_C@_0O@BIOLCACO@CANNOT_ATTACK@
CONST	SEGMENT
??_C@_0O@BIOLCACO@CANNOT_ATTACK@ DB 'CANNOT_ATTACK', 00H ; `string'
CONST	ENDS
;	COMDAT ??_C@_0CB@HEDIGIHC@CANNOT_ATTACK_ENEMY_IN_SAFE_ARE@
CONST	SEGMENT
??_C@_0CB@HEDIGIHC@CANNOT_ATTACK_ENEMY_IN_SAFE_ARE@ DB 'CANNOT_ATTACK_ENE'
	DB	'MY_IN_SAFE_AREA', 00H			; `string'
CONST	ENDS
;	COMDAT ??_C@_0BC@CKDFNGK@ONLY_FOR_ALLIANCE@
CONST	SEGMENT
??_C@_0BC@CKDFNGK@ONLY_FOR_ALLIANCE@ DB 'ONLY_FOR_ALLIANCE', 00H ; `string'
CONST	ENDS
;	COMDAT ??_C@_0FC@NMOECDOK@?5?$FLALERT?$FN?5?$LF?$LP?$LH?a?$LP?$KB?$LA?T?5?$LL?g?$LP?k?G?O?$LE?B?5?$LB?b?$LM?z@
CONST	SEGMENT
??_C@_0FC@NMOECDOK@?5?$FLALERT?$FN?5?$LF?$LP?$LH?a?$LP?$KB?$LA?T?5?$LL?g?$LP?k?G?O?$LE?B?5?$LB?b?$LM?z@ DB ' '
	DB	'[ALERT] ', 0b5H, 0bfH, 0b7H, 0e1H, 0bfH, 0a1H, 0b0H, 0d4H, ' '
	DB	0bbH, 0e7H, 0bfH, 0ebH, 0c7H, 0cfH, 0b4H, 0c2H, ' ', 0b1H, 0e2H
	DB	0bcH, 0faH, 0c0H, 0d3H, 0bfH, 0a1H, 0b5H, 0b5H, ' ', 0c0H, 0fbH
	DB	0bfH, 0a1H, 0b0H, 0d4H, ' ', 0c5H, 0b8H, 0b0H, 0d9H, 0c6H, 0c3H
	DB	' ', 0b5H, 0c7H, 0beH, 0eeH, 0c0H, 0d6H, 0beH, 0eeH, 0bcH, 0adH
	DB	' ', 0c0H, 0daH, 0bdH, 0c5H, 0bfH, 0a1H, 0b0H, 0d4H, 0b7H, 0ceH
	DB	' ', 0c0H, 0e7H, 0bcH, 0b3H, 0c1H, 0a4H, 0aH, 00H ; `string'
CONST	ENDS
;	COMDAT ??_C@_0BA@GMGJKDGM@CANNOT_USE_SELF@
CONST	SEGMENT
??_C@_0BA@GMGJKDGM@CANNOT_USE_SELF@ DB 'CANNOT_USE_SELF', 00H ; `string'
CONST	ENDS
;	COMDAT ??_C@_0EC@MMFCNDJC@CPythonPlayer?3?3__UseSkill?$CIdwSlo@
CONST	SEGMENT
??_C@_0EC@MMFCNDJC@CPythonPlayer?3?3__UseSkill?$CIdwSlo@ DB 'CPythonPlaye'
	DB	'r::__UseSkill(dwSlotIndex=%d) There is no main player', 00H ; `string'
CONST	ENDS
;	COMDAT ??_C@_0EB@JKMJGFLB@CPythonPlayer?3?3__UseSkill?$CIdwSlo@
CONST	SEGMENT
??_C@_0EB@JKMJGFLB@CPythonPlayer?3?3__UseSkill?$CIdwSlo@ DB 'CPythonPlaye'
	DB	'r::__UseSkill(dwSlotIndex=%d) There is no skill data', 00H ; `string'
CONST	ENDS
;	COMDAT ??_C@_0EP@OENNGPFB@CPythonPlayer?3?3__UseSkill?$CIdwSlo@
CONST	SEGMENT
??_C@_0EP@OENNGPFB@CPythonPlayer?3?3__UseSkill?$CIdwSlo@ DB 'CPythonPlaye'
	DB	'r::__UseSkill(dwSlotIndex=%d) It''s not available skill slot '
	DB	'number', 00H				; `string'
CONST	ENDS
;	COMDAT ??_C@_0BA@CFBPJACC@CANNOT_APPROACH@
CONST	SEGMENT
??_C@_0BA@CFBPJACC@CANNOT_APPROACH@ DB 'CANNOT_APPROACH', 00H ; `string'
CONST	ENDS
;	COMDAT ??_C@_0DF@OHCKPFBO@?$CB?$CB?$CB?5Find?5strange?5game?5data?4?5Ple@
CONST	SEGMENT
??_C@_0DF@OHCKPFBO@?$CB?$CB?$CB?5Find?5strange?5game?5data?4?5Ple@ DB '!!'
	DB	'! Find strange game data. Please reinstall metin2.', 00H ; `string'
CONST	ENDS
;	COMDAT ??_C@_0O@DIMCNBHD@NOT_ENOUGH_SP@
CONST	SEGMENT
??_C@_0O@DIMCNBHD@NOT_ENOUGH_SP@ DB 'NOT_ENOUGH_SP', 00H ; `string'
CONST	ENDS
;	COMDAT ??_C@_0O@CILBJNOC@NOT_ENOUGH_HP@
CONST	SEGMENT
??_C@_0O@CILBJNOC@NOT_ENOUGH_HP@ DB 'NOT_ENOUGH_HP', 00H ; `string'
CONST	ENDS
;	COMDAT ??_C@_0O@CCJDKKCC@WAIT_COOLTIME@
CONST	SEGMENT
??_C@_0O@CCJDKKCC@WAIT_COOLTIME@ DB 'WAIT_COOLTIME', 00H ; `string'
CONST	ENDS
;	COMDAT ??_C@_0BF@KPLOMIJE@NOT_MATCHABLE_WEAPON@
CONST	SEGMENT
??_C@_0BF@KPLOMIJE@NOT_MATCHABLE_WEAPON@ DB 'NOT_MATCHABLE_WEAPON', 00H ; `string'
CONST	ENDS
;	COMDAT ??_C@_0O@PFLGBNMN@NOT_YET_LEARN@
CONST	SEGMENT
??_C@_0O@PFLGBNMN@NOT_YET_LEARN@ DB 'NOT_YET_LEARN', 00H ; `string'
CONST	ENDS
;	COMDAT ??_C@_0BD@LIIMHBCN@REMOVE_FISHING_ROD@
CONST	SEGMENT
??_C@_0BD@LIIMHBCN@REMOVE_FISHING_ROD@ DB 'REMOVE_FISHING_ROD', 00H ; `string'
CONST	ENDS
;	COMDAT ??_C@_0BD@HPCMPHGF@NEED_POISON_BOTTLE@
CONST	SEGMENT
??_C@_0BD@HPCMPHGF@NEED_POISON_BOTTLE@ DB 'NEED_POISON_BOTTLE', 00H ; `string'
CONST	ENDS
;	COMDAT ??_C@_0BC@DDKDAKLO@NEED_EMPTY_BOTTLE@
CONST	SEGMENT
??_C@_0BC@DDKDAKLO@NEED_EMPTY_BOTTLE@ DB 'NEED_EMPTY_BOTTLE', 00H ; `string'
CONST	ENDS
;	COMDAT ??_C@_07OAOBINCH@IN_SAFE@
CONST	SEGMENT
??_C@_07OAOBINCH@IN_SAFE@ DB 'IN_SAFE', 00H		; `string'
CONST	ENDS
;	COMDAT ??_C@_0N@DJBFACMO@HAVE_TO_RIDE@
CONST	SEGMENT
??_C@_0N@DJBFACMO@HAVE_TO_RIDE@ DB 'HAVE_TO_RIDE', 00H	; `string'
CONST	ENDS
;	COMDAT ??_C@_0BA@MEPOIIPE@NOT_HORSE_SKILL@
CONST	SEGMENT
??_C@_0BA@MEPOIIPE@NOT_HORSE_SKILL@ DB 'NOT_HORSE_SKILL', 00H ; `string'
CONST	ENDS
;	COMDAT ??_C@_0BD@IOEPNDLO@ChangeCurrentSkill@
CONST	SEGMENT
??_C@_0BD@IOEPNDLO@ChangeCurrentSkill@ DB 'ChangeCurrentSkill', 00H ; `string'
CONST	ENDS
;	COMDAT ??_C@_0BB@BOHMBBJL@OnCannotUseSkill@
CONST	SEGMENT
??_C@_0BB@BOHMBBJL@OnCannotUseSkill@ DB 'OnCannotUseSkill', 00H ; `string'
CONST	ENDS
;	COMDAT ??_C@_04JMLDJNEM@?$CIis?$CJ@
CONST	SEGMENT
??_C@_04JMLDJNEM@?$CIis?$CJ@ DB '(is)', 00H		; `string'
CONST	ENDS
;	COMDAT ??_C@_0M@HCIEKIGP@NEED_TARGET@
CONST	SEGMENT
??_C@_0M@HCIEKIGP@NEED_TARGET@ DB 'NEED_TARGET', 00H	; `string'
CONST	ENDS
;	COMDAT ??_C@_0M@HBOAHMLO@ResetAffect@
CONST	SEGMENT
??_C@_0M@HBOAHMLO@ResetAffect@ DB 'ResetAffect', 00H	; `string'
CONST	ENDS
;	COMDAT ??_C@_09FHCBCPJO@SetAffect@
CONST	SEGMENT
??_C@_09FHCBCPJO@SetAffect@ DB 'SetAffect', 00H		; `string'
CONST	ENDS
;	COMDAT ??_C@_03LIHNMIHG@?$CIi?$CJ@
CONST	SEGMENT
??_C@_03LIHNMIHG@?$CIi?$CJ@ DB '(i)', 00H		; `string'
CONST	ENDS
;	COMDAT ??_C@_0N@OADAMGHE@ClearAffects@
CONST	SEGMENT
??_C@_0N@OADAMGHE@ClearAffects@ DB 'ClearAffects', 00H	; `string'
CONST	ENDS
;	COMDAT ??_C@_02HCKGKOFO@?$CI?$CJ@
CONST	SEGMENT
??_C@_02HCKGKOFO@?$CI?$CJ@ DB '()', 00H			; `string'
CONST	ENDS
;	COMDAT ?ms_kPool@?$CPooledObject@VCRotationDecorator@NEffectUpdateDecorator@@@@1V?$CDynamicPoolEx@VCRotationDecorator@NEffectUpdateDecorator@@@@A
_DATA	SEGMENT
?ms_kPool@?$CPooledObject@VCRotationDecorator@NEffectUpdateDecorator@@@@1V?$CDynamicPoolEx@VCRotationDecorator@NEffectUpdateDecorator@@@@A DD FLAT:??_7?$CDynamicPoolEx@VCRotationDecorator@NEffectUpdateDecorator@@@@6B@ ; CPooledObject<NEffectUpdateDecorator::CRotationDecorator>::ms_kPool
	DD	00H
	DD	00H
	DD	00H
	DD	00H
	DD	00H
	DD	00H
	DD	00H
	DD	00H
_DATA	ENDS
;	COMDAT ?ms_kPool@?$CPooledObject@VCGravityDecorator@NEffectUpdateDecorator@@@@1V?$CDynamicPoolEx@VCGravityDecorator@NEffectUpdateDecorator@@@@A
_DATA	SEGMENT
?ms_kPool@?$CPooledObject@VCGravityDecorator@NEffectUpdateDecorator@@@@1V?$CDynamicPoolEx@VCGravityDecorator@NEffectUpdateDecorator@@@@A DD FLAT:??_7?$CDynamicPoolEx@VCGravityDecorator@NEffectUpdateDecorator@@@@6B@ ; CPooledObject<NEffectUpdateDecorator::CGravityDecorator>::ms_kPool
	DD	00H
	DD	00H
	DD	00H
	DD	00H
	DD	00H
	DD	00H
	DD	00H
	DD	00H
_DATA	ENDS
;	COMDAT ?ms_kPool@?$CPooledObject@VCAirResistanceDecorator@NEffectUpdateDecorator@@@@1V?$CDynamicPoolEx@VCAirResistanceDecorator@NEffectUpdateDecorator@@@@A
_DATA	SEGMENT
?ms_kPool@?$CPooledObject@VCAirResistanceDecorator@NEffectUpdateDecorator@@@@1V?$CDynamicPoolEx@VCAirResistanceDecorator@NEffectUpdateDecorator@@@@A DD FLAT:??_7?$CDynamicPoolEx@VCAirResistanceDecorator@NEffectUpdateDecorator@@@@6B@ ; CPooledObject<NEffectUpdateDecorator::CAirResistanceDecorator>::ms_kPool
	DD	00H
	DD	00H
	DD	00H
	DD	00H
	DD	00H
	DD	00H
	DD	00H
	DD	00H
_DATA	ENDS
;	COMDAT ?ms_kPool@?$CPooledObject@VCTextureAnimationRandomDecorator@NEffectUpdateDecorator@@@@1V?$CDynamicPoolEx@VCTextureAnimationRandomDecorator@NEffectUpdateDecorator@@@@A
_DATA	SEGMENT
?ms_kPool@?$CPooledObject@VCTextureAnimationRandomDecorator@NEffectUpdateDecorator@@@@1V?$CDynamicPoolEx@VCTextureAnimationRandomDecorator@NEffectUpdateDecorator@@@@A DD FLAT:??_7?$CDynamicPoolEx@VCTextureAnimationRandomDecorator@NEffectUpdateDecorator@@@@6B@ ; CPooledObject<NEffectUpdateDecorator::CTextureAnimationRandomDecorator>::ms_kPool
	DD	00H
	DD	00H
	DD	00H
	DD	00H
	DD	00H
	DD	00H
	DD	00H
	DD	00H
_DATA	ENDS
;	COMDAT ?ms_kPool@?$CPooledObject@VCTextureAnimationCCWDecorator@NEffectUpdateDecorator@@@@1V?$CDynamicPoolEx@VCTextureAnimationCCWDecorator@NEffectUpdateDecorator@@@@A
_DATA	SEGMENT
?ms_kPool@?$CPooledObject@VCTextureAnimationCCWDecorator@NEffectUpdateDecorator@@@@1V?$CDynamicPoolEx@VCTextureAnimationCCWDecorator@NEffectUpdateDecorator@@@@A DD FLAT:??_7?$CDynamicPoolEx@VCTextureAnimationCCWDecorator@NEffectUpdateDecorator@@@@6B@ ; CPooledObject<NEffectUpdateDecorator::CTextureAnimationCCWDecorator>::ms_kPool
	DD	00H
	DD	00H
	DD	00H
	DD	00H
	DD	00H
	DD	00H
	DD	00H
	DD	00H
_DATA	ENDS
;	COMDAT ?ms_kPool@?$CPooledObject@VCTextureAnimationCWDecorator@NEffectUpdateDecorator@@@@1V?$CDynamicPoolEx@VCTextureAnimationCWDecorator@NEffectUpdateDecorator@@@@A
_DATA	SEGMENT
?ms_kPool@?$CPooledObject@VCTextureAnimationCWDecorator@NEffectUpdateDecorator@@@@1V?$CDynamicPoolEx@VCTextureAnimationCWDecorator@NEffectUpdateDecorator@@@@A DD FLAT:??_7?$CDynamicPoolEx@VCTextureAnimationCWDecorator@NEffectUpdateDecorator@@@@6B@ ; CPooledObject<NEffectUpdateDecorator::CTextureAnimationCWDecorator>::ms_kPool
	DD	00H
	DD	00H
	DD	00H
	DD	00H
	DD	00H
	DD	00H
	DD	00H
	DD	00H
_DATA	ENDS
;	COMDAT ?ms_kPool@?$CPooledObject@VCNullDecorator@NEffectUpdateDecorator@@@@1V?$CDynamicPoolEx@VCNullDecorator@NEffectUpdateDecorator@@@@A
_DATA	SEGMENT
?ms_kPool@?$CPooledObject@VCNullDecorator@NEffectUpdateDecorator@@@@1V?$CDynamicPoolEx@VCNullDecorator@NEffectUpdateDecorator@@@@A DD FLAT:??_7?$CDynamicPoolEx@VCNullDecorator@NEffectUpdateDecorator@@@@6B@ ; CPooledObject<NEffectUpdateDecorator::CNullDecorator>::ms_kPool
	DD	00H
	DD	00H
	DD	00H
	DD	00H
	DD	00H
	DD	00H
	DD	00H
	DD	00H
_DATA	ENDS
;	COMDAT ?ms_kPool@?$CPooledObject@VCHeaderDecorator@NEffectUpdateDecorator@@@@1V?$CDynamicPoolEx@VCHeaderDecorator@NEffectUpdateDecorator@@@@A
_DATA	SEGMENT
?ms_kPool@?$CPooledObject@VCHeaderDecorator@NEffectUpdateDecorator@@@@1V?$CDynamicPoolEx@VCHeaderDecorator@NEffectUpdateDecorator@@@@A DD FLAT:??_7?$CDynamicPoolEx@VCHeaderDecorator@NEffectUpdateDecorator@@@@6B@ ; CPooledObject<NEffectUpdateDecorator::CHeaderDecorator>::ms_kPool
	DD	00H
	DD	00H
	DD	00H
	DD	00H
	DD	00H
	DD	00H
	DD	00H
	DD	00H
_DATA	ENDS
;	COMDAT xdata$x
xdata$x	SEGMENT
__unwindtable$?__UseSkill@CPythonPlayer@@IAE_NK@Z DD 0ffffffffH
	DD	FLAT:__unwindfunclet$?__UseSkill@CPythonPlayer@@IAE_NK@Z$0
__ehfuncinfo$?__UseSkill@CPythonPlayer@@IAE_NK@Z DD 019930522H
	DD	01H
	DD	FLAT:__unwindtable$?__UseSkill@CPythonPlayer@@IAE_NK@Z
	DD	2 DUP(00H)
	DD	2 DUP(00H)
	DD	00H
	DD	01H
xdata$x	ENDS
;	COMDAT CRT$XCU
CRT$XCU	SEGMENT
??ms_kPool$initializer$@?$CPooledObject@VCNullDecorator@NEffectUpdateDecorator@@@@1P6AXXZA@@3P6AXXZA DD FLAT:??__E?ms_kPool@?$CPooledObject@VCNullDecorator@NEffectUpdateDecorator@@@@1V?$CDynamicPoolEx@VCNullDecorator@NEffectUpdateDecorator@@@@A@@YAXXZ ; ??ms_kPool$initializer$@?$CPooledObject@VCNullDecorator@NEffectUpdateDecorator@@@@1P6AXXZA@@3P6AXXZA
CRT$XCU	ENDS
;	COMDAT CRT$XCU
CRT$XCU	SEGMENT
??ms_kPool$initializer$@?$CPooledObject@VCTextureAnimationCWDecorator@NEffectUpdateDecorator@@@@1P6AXXZA@@3P6AXXZA DD FLAT:??__E?ms_kPool@?$CPooledObject@VCTextureAnimationCWDecorator@NEffectUpdateDecorator@@@@1V?$CDynamicPoolEx@VCTextureAnimationCWDecorator@NEffectUpdateDecorator@@@@A@@YAXXZ ; ??ms_kPool$initializer$@?$CPooledObject@VCTextureAnimationCWDecorator@NEffectUpdateDecorator@@@@1P6AXXZA@@3P6AXXZA
CRT$XCU	ENDS
;	COMDAT CRT$XCU
CRT$XCU	SEGMENT
??ms_kPool$initializer$@?$CPooledObject@VCTextureAnimationCCWDecorator@NEffectUpdateDecorator@@@@1P6AXXZA@@3P6AXXZA DD FLAT:??__E?ms_kPool@?$CPooledObject@VCTextureAnimationCCWDecorator@NEffectUpdateDecorator@@@@1V?$CDynamicPoolEx@VCTextureAnimationCCWDecorator@NEffectUpdateDecorator@@@@A@@YAXXZ ; ??ms_kPool$initializer$@?$CPooledObject@VCTextureAnimationCCWDecorator@NEffectUpdateDecorator@@@@1P6AXXZA@@3P6AXXZA
CRT$XCU	ENDS
;	COMDAT CRT$XCU
CRT$XCU	SEGMENT
??ms_kPool$initializer$@?$CPooledObject@VCTextureAnimationRandomDecorator@NEffectUpdateDecorator@@@@1P6AXXZA@@3P6AXXZA DD FLAT:??__E?ms_kPool@?$CPooledObject@VCTextureAnimationRandomDecorator@NEffectUpdateDecorator@@@@1V?$CDynamicPoolEx@VCTextureAnimationRandomDecorator@NEffectUpdateDecorator@@@@A@@YAXXZ ; ??ms_kPool$initializer$@?$CPooledObject@VCTextureAnimationRandomDecorator@NEffectUpdateDecorator@@@@1P6AXXZA@@3P6AXXZA
CRT$XCU	ENDS
;	COMDAT CRT$XCU
CRT$XCU	SEGMENT
??ms_kPool$initializer$@?$CPooledObject@VCAirResistanceDecorator@NEffectUpdateDecorator@@@@1P6AXXZA@@3P6AXXZA DD FLAT:??__E?ms_kPool@?$CPooledObject@VCAirResistanceDecorator@NEffectUpdateDecorator@@@@1V?$CDynamicPoolEx@VCAirResistanceDecorator@NEffectUpdateDecorator@@@@A@@YAXXZ ; ??ms_kPool$initializer$@?$CPooledObject@VCAirResistanceDecorator@NEffectUpdateDecorator@@@@1P6AXXZA@@3P6AXXZA
CRT$XCU	ENDS
;	COMDAT CRT$XCU
CRT$XCU	SEGMENT
??ms_kPool$initializer$@?$CPooledObject@VCGravityDecorator@NEffectUpdateDecorator@@@@1P6AXXZA@@3P6AXXZA DD FLAT:??__E?ms_kPool@?$CPooledObject@VCGravityDecorator@NEffectUpdateDecorator@@@@1V?$CDynamicPoolEx@VCGravityDecorator@NEffectUpdateDecorator@@@@A@@YAXXZ ; ??ms_kPool$initializer$@?$CPooledObject@VCGravityDecorator@NEffectUpdateDecorator@@@@1P6AXXZA@@3P6AXXZA
CRT$XCU	ENDS
;	COMDAT CRT$XCU
CRT$XCU	SEGMENT
??ms_kPool$initializer$@?$CPooledObject@VCRotationDecorator@NEffectUpdateDecorator@@@@1P6AXXZA@@3P6AXXZA DD FLAT:??__E?ms_kPool@?$CPooledObject@VCRotationDecorator@NEffectUpdateDecorator@@@@1V?$CDynamicPoolEx@VCRotationDecorator@NEffectUpdateDecorator@@@@A@@YAXXZ ; ??ms_kPool$initializer$@?$CPooledObject@VCRotationDecorator@NEffectUpdateDecorator@@@@1P6AXXZA@@3P6AXXZA
CRT$XCU	ENDS
; Function compile flags: /Ogtp
;	COMDAT ??__F?ms_kPool@?$CPooledObject@VCRotationDecorator@NEffectUpdateDecorator@@@@1V?$CDynamicPoolEx@VCRotationDecorator@NEffectUpdateDecorator@@@@A@@YAXXZ
text$yd	SEGMENT
??__F?ms_kPool@?$CPooledObject@VCRotationDecorator@NEffectUpdateDecorator@@@@1V?$CDynamicPoolEx@VCRotationDecorator@NEffectUpdateDecorator@@@@A@@YAXXZ PROC ; `dynamic atexit destructor for 'CPooledObject<NEffectUpdateDecorator::CRotationDecorator>::ms_kPool'', COMDAT
  00000	b9 00 00 00 00	 mov	 ecx, OFFSET ?ms_kPool@?$CPooledObject@VCRotationDecorator@NEffectUpdateDecorator@@@@1V?$CDynamicPoolEx@VCRotationDecorator@NEffectUpdateDecorator@@@@A ; CPooledObject<NEffectUpdateDecorator::CRotationDecorator>::ms_kPool
  00005	e9 00 00 00 00	 jmp	 ??1?$CDynamicPoolEx@VCRotationDecorator@NEffectUpdateDecorator@@@@UAE@XZ ; CDynamicPoolEx<NEffectUpdateDecorator::CRotationDecorator>::~CDynamicPoolEx<NEffectUpdateDecorator::CRotationDecorator>
??__F?ms_kPool@?$CPooledObject@VCRotationDecorator@NEffectUpdateDecorator@@@@1V?$CDynamicPoolEx@VCRotationDecorator@NEffectUpdateDecorator@@@@A@@YAXXZ ENDP ; `dynamic atexit destructor for 'CPooledObject<NEffectUpdateDecorator::CRotationDecorator>::ms_kPool''
text$yd	ENDS
; Function compile flags: /Ogtp
; File D:\Metin2 Server Files\mainline\SRC_2014\Metin2Client\eterLib\Pool.h
;	COMDAT ??__E?ms_kPool@?$CPooledObject@VCRotationDecorator@NEffectUpdateDecorator@@@@1V?$CDynamicPoolEx@VCRotationDecorator@NEffectUpdateDecorator@@@@A@@YAXXZ
text$di	SEGMENT
??__E?ms_kPool@?$CPooledObject@VCRotationDecorator@NEffectUpdateDecorator@@@@1V?$CDynamicPoolEx@VCRotationDecorator@NEffectUpdateDecorator@@@@A@@YAXXZ PROC ; `dynamic initializer for 'CPooledObject<NEffectUpdateDecorator::CRotationDecorator>::ms_kPool'', COMDAT

; 272  : template <class T> CDynamicPoolEx<T> CPooledObject<T>::ms_kPool;

  00000	68 00 00 00 00	 push	 OFFSET ??__F?ms_kPool@?$CPooledObject@VCRotationDecorator@NEffectUpdateDecorator@@@@1V?$CDynamicPoolEx@VCRotationDecorator@NEffectUpdateDecorator@@@@A@@YAXXZ ; `dynamic atexit destructor for 'CPooledObject<NEffectUpdateDecorator::CRotationDecorator>::ms_kPool''
  00005	e8 00 00 00 00	 call	 _atexit
  0000a	59		 pop	 ecx
  0000b	c3		 ret	 0
??__E?ms_kPool@?$CPooledObject@VCRotationDecorator@NEffectUpdateDecorator@@@@1V?$CDynamicPoolEx@VCRotationDecorator@NEffectUpdateDecorator@@@@A@@YAXXZ ENDP ; `dynamic initializer for 'CPooledObject<NEffectUpdateDecorator::CRotationDecorator>::ms_kPool''
text$di	ENDS
; Function compile flags: /Ogtp
;	COMDAT ??__F?ms_kPool@?$CPooledObject@VCGravityDecorator@NEffectUpdateDecorator@@@@1V?$CDynamicPoolEx@VCGravityDecorator@NEffectUpdateDecorator@@@@A@@YAXXZ
text$yd	SEGMENT
??__F?ms_kPool@?$CPooledObject@VCGravityDecorator@NEffectUpdateDecorator@@@@1V?$CDynamicPoolEx@VCGravityDecorator@NEffectUpdateDecorator@@@@A@@YAXXZ PROC ; `dynamic atexit destructor for 'CPooledObject<NEffectUpdateDecorator::CGravityDecorator>::ms_kPool'', COMDAT
  00000	b9 00 00 00 00	 mov	 ecx, OFFSET ?ms_kPool@?$CPooledObject@VCGravityDecorator@NEffectUpdateDecorator@@@@1V?$CDynamicPoolEx@VCGravityDecorator@NEffectUpdateDecorator@@@@A ; CPooledObject<NEffectUpdateDecorator::CGravityDecorator>::ms_kPool
  00005	e9 00 00 00 00	 jmp	 ??1?$CDynamicPoolEx@VCGravityDecorator@NEffectUpdateDecorator@@@@UAE@XZ ; CDynamicPoolEx<NEffectUpdateDecorator::CGravityDecorator>::~CDynamicPoolEx<NEffectUpdateDecorator::CGravityDecorator>
??__F?ms_kPool@?$CPooledObject@VCGravityDecorator@NEffectUpdateDecorator@@@@1V?$CDynamicPoolEx@VCGravityDecorator@NEffectUpdateDecorator@@@@A@@YAXXZ ENDP ; `dynamic atexit destructor for 'CPooledObject<NEffectUpdateDecorator::CGravityDecorator>::ms_kPool''
text$yd	ENDS
; Function compile flags: /Ogtp
; File D:\Metin2 Server Files\mainline\SRC_2014\Metin2Client\eterLib\Pool.h
;	COMDAT ??__E?ms_kPool@?$CPooledObject@VCGravityDecorator@NEffectUpdateDecorator@@@@1V?$CDynamicPoolEx@VCGravityDecorator@NEffectUpdateDecorator@@@@A@@YAXXZ
text$di	SEGMENT
??__E?ms_kPool@?$CPooledObject@VCGravityDecorator@NEffectUpdateDecorator@@@@1V?$CDynamicPoolEx@VCGravityDecorator@NEffectUpdateDecorator@@@@A@@YAXXZ PROC ; `dynamic initializer for 'CPooledObject<NEffectUpdateDecorator::CGravityDecorator>::ms_kPool'', COMDAT

; 272  : template <class T> CDynamicPoolEx<T> CPooledObject<T>::ms_kPool;

  00000	68 00 00 00 00	 push	 OFFSET ??__F?ms_kPool@?$CPooledObject@VCGravityDecorator@NEffectUpdateDecorator@@@@1V?$CDynamicPoolEx@VCGravityDecorator@NEffectUpdateDecorator@@@@A@@YAXXZ ; `dynamic atexit destructor for 'CPooledObject<NEffectUpdateDecorator::CGravityDecorator>::ms_kPool''
  00005	e8 00 00 00 00	 call	 _atexit
  0000a	59		 pop	 ecx
  0000b	c3		 ret	 0
??__E?ms_kPool@?$CPooledObject@VCGravityDecorator@NEffectUpdateDecorator@@@@1V?$CDynamicPoolEx@VCGravityDecorator@NEffectUpdateDecorator@@@@A@@YAXXZ ENDP ; `dynamic initializer for 'CPooledObject<NEffectUpdateDecorator::CGravityDecorator>::ms_kPool''
text$di	ENDS
; Function compile flags: /Ogtp
;	COMDAT ??__F?ms_kPool@?$CPooledObject@VCAirResistanceDecorator@NEffectUpdateDecorator@@@@1V?$CDynamicPoolEx@VCAirResistanceDecorator@NEffectUpdateDecorator@@@@A@@YAXXZ
text$yd	SEGMENT
??__F?ms_kPool@?$CPooledObject@VCAirResistanceDecorator@NEffectUpdateDecorator@@@@1V?$CDynamicPoolEx@VCAirResistanceDecorator@NEffectUpdateDecorator@@@@A@@YAXXZ PROC ; `dynamic atexit destructor for 'CPooledObject<NEffectUpdateDecorator::CAirResistanceDecorator>::ms_kPool'', COMDAT
  00000	b9 00 00 00 00	 mov	 ecx, OFFSET ?ms_kPool@?$CPooledObject@VCAirResistanceDecorator@NEffectUpdateDecorator@@@@1V?$CDynamicPoolEx@VCAirResistanceDecorator@NEffectUpdateDecorator@@@@A ; CPooledObject<NEffectUpdateDecorator::CAirResistanceDecorator>::ms_kPool
  00005	e9 00 00 00 00	 jmp	 ??1?$CDynamicPoolEx@VCAirResistanceDecorator@NEffectUpdateDecorator@@@@UAE@XZ ; CDynamicPoolEx<NEffectUpdateDecorator::CAirResistanceDecorator>::~CDynamicPoolEx<NEffectUpdateDecorator::CAirResistanceDecorator>
??__F?ms_kPool@?$CPooledObject@VCAirResistanceDecorator@NEffectUpdateDecorator@@@@1V?$CDynamicPoolEx@VCAirResistanceDecorator@NEffectUpdateDecorator@@@@A@@YAXXZ ENDP ; `dynamic atexit destructor for 'CPooledObject<NEffectUpdateDecorator::CAirResistanceDecorator>::ms_kPool''
text$yd	ENDS
; Function compile flags: /Ogtp
; File D:\Metin2 Server Files\mainline\SRC_2014\Metin2Client\eterLib\Pool.h
;	COMDAT ??__E?ms_kPool@?$CPooledObject@VCAirResistanceDecorator@NEffectUpdateDecorator@@@@1V?$CDynamicPoolEx@VCAirResistanceDecorator@NEffectUpdateDecorator@@@@A@@YAXXZ
text$di	SEGMENT
??__E?ms_kPool@?$CPooledObject@VCAirResistanceDecorator@NEffectUpdateDecorator@@@@1V?$CDynamicPoolEx@VCAirResistanceDecorator@NEffectUpdateDecorator@@@@A@@YAXXZ PROC ; `dynamic initializer for 'CPooledObject<NEffectUpdateDecorator::CAirResistanceDecorator>::ms_kPool'', COMDAT

; 272  : template <class T> CDynamicPoolEx<T> CPooledObject<T>::ms_kPool;

  00000	68 00 00 00 00	 push	 OFFSET ??__F?ms_kPool@?$CPooledObject@VCAirResistanceDecorator@NEffectUpdateDecorator@@@@1V?$CDynamicPoolEx@VCAirResistanceDecorator@NEffectUpdateDecorator@@@@A@@YAXXZ ; `dynamic atexit destructor for 'CPooledObject<NEffectUpdateDecorator::CAirResistanceDecorator>::ms_kPool''
  00005	e8 00 00 00 00	 call	 _atexit
  0000a	59		 pop	 ecx
  0000b	c3		 ret	 0
??__E?ms_kPool@?$CPooledObject@VCAirResistanceDecorator@NEffectUpdateDecorator@@@@1V?$CDynamicPoolEx@VCAirResistanceDecorator@NEffectUpdateDecorator@@@@A@@YAXXZ ENDP ; `dynamic initializer for 'CPooledObject<NEffectUpdateDecorator::CAirResistanceDecorator>::ms_kPool''
text$di	ENDS
; Function compile flags: /Ogtp
;	COMDAT ??__F?ms_kPool@?$CPooledObject@VCTextureAnimationRandomDecorator@NEffectUpdateDecorator@@@@1V?$CDynamicPoolEx@VCTextureAnimationRandomDecorator@NEffectUpdateDecorator@@@@A@@YAXXZ
text$yd	SEGMENT
??__F?ms_kPool@?$CPooledObject@VCTextureAnimationRandomDecorator@NEffectUpdateDecorator@@@@1V?$CDynamicPoolEx@VCTextureAnimationRandomDecorator@NEffectUpdateDecorator@@@@A@@YAXXZ PROC ; `dynamic atexit destructor for 'CPooledObject<NEffectUpdateDecorator::CTextureAnimationRandomDecorator>::ms_kPool'', COMDAT
  00000	b9 00 00 00 00	 mov	 ecx, OFFSET ?ms_kPool@?$CPooledObject@VCTextureAnimationRandomDecorator@NEffectUpdateDecorator@@@@1V?$CDynamicPoolEx@VCTextureAnimationRandomDecorator@NEffectUpdateDecorator@@@@A ; CPooledObject<NEffectUpdateDecorator::CTextureAnimationRandomDecorator>::ms_kPool
  00005	e9 00 00 00 00	 jmp	 ??1?$CDynamicPoolEx@VCTextureAnimationRandomDecorator@NEffectUpdateDecorator@@@@UAE@XZ ; CDynamicPoolEx<NEffectUpdateDecorator::CTextureAnimationRandomDecorator>::~CDynamicPoolEx<NEffectUpdateDecorator::CTextureAnimationRandomDecorator>
??__F?ms_kPool@?$CPooledObject@VCTextureAnimationRandomDecorator@NEffectUpdateDecorator@@@@1V?$CDynamicPoolEx@VCTextureAnimationRandomDecorator@NEffectUpdateDecorator@@@@A@@YAXXZ ENDP ; `dynamic atexit destructor for 'CPooledObject<NEffectUpdateDecorator::CTextureAnimationRandomDecorator>::ms_kPool''
text$yd	ENDS
; Function compile flags: /Ogtp
; File D:\Metin2 Server Files\mainline\SRC_2014\Metin2Client\eterLib\Pool.h
;	COMDAT ??__E?ms_kPool@?$CPooledObject@VCTextureAnimationRandomDecorator@NEffectUpdateDecorator@@@@1V?$CDynamicPoolEx@VCTextureAnimationRandomDecorator@NEffectUpdateDecorator@@@@A@@YAXXZ
text$di	SEGMENT
??__E?ms_kPool@?$CPooledObject@VCTextureAnimationRandomDecorator@NEffectUpdateDecorator@@@@1V?$CDynamicPoolEx@VCTextureAnimationRandomDecorator@NEffectUpdateDecorator@@@@A@@YAXXZ PROC ; `dynamic initializer for 'CPooledObject<NEffectUpdateDecorator::CTextureAnimationRandomDecorator>::ms_kPool'', COMDAT

; 272  : template <class T> CDynamicPoolEx<T> CPooledObject<T>::ms_kPool;

  00000	68 00 00 00 00	 push	 OFFSET ??__F?ms_kPool@?$CPooledObject@VCTextureAnimationRandomDecorator@NEffectUpdateDecorator@@@@1V?$CDynamicPoolEx@VCTextureAnimationRandomDecorator@NEffectUpdateDecorator@@@@A@@YAXXZ ; `dynamic atexit destructor for 'CPooledObject<NEffectUpdateDecorator::CTextureAnimationRandomDecorator>::ms_kPool''
  00005	e8 00 00 00 00	 call	 _atexit
  0000a	59		 pop	 ecx
  0000b	c3		 ret	 0
??__E?ms_kPool@?$CPooledObject@VCTextureAnimationRandomDecorator@NEffectUpdateDecorator@@@@1V?$CDynamicPoolEx@VCTextureAnimationRandomDecorator@NEffectUpdateDecorator@@@@A@@YAXXZ ENDP ; `dynamic initializer for 'CPooledObject<NEffectUpdateDecorator::CTextureAnimationRandomDecorator>::ms_kPool''
text$di	ENDS
; Function compile flags: /Ogtp
;	COMDAT ??__F?ms_kPool@?$CPooledObject@VCTextureAnimationCCWDecorator@NEffectUpdateDecorator@@@@1V?$CDynamicPoolEx@VCTextureAnimationCCWDecorator@NEffectUpdateDecorator@@@@A@@YAXXZ
text$yd	SEGMENT
??__F?ms_kPool@?$CPooledObject@VCTextureAnimationCCWDecorator@NEffectUpdateDecorator@@@@1V?$CDynamicPoolEx@VCTextureAnimationCCWDecorator@NEffectUpdateDecorator@@@@A@@YAXXZ PROC ; `dynamic atexit destructor for 'CPooledObject<NEffectUpdateDecorator::CTextureAnimationCCWDecorator>::ms_kPool'', COMDAT
  00000	b9 00 00 00 00	 mov	 ecx, OFFSET ?ms_kPool@?$CPooledObject@VCTextureAnimationCCWDecorator@NEffectUpdateDecorator@@@@1V?$CDynamicPoolEx@VCTextureAnimationCCWDecorator@NEffectUpdateDecorator@@@@A ; CPooledObject<NEffectUpdateDecorator::CTextureAnimationCCWDecorator>::ms_kPool
  00005	e9 00 00 00 00	 jmp	 ??1?$CDynamicPoolEx@VCTextureAnimationCCWDecorator@NEffectUpdateDecorator@@@@UAE@XZ ; CDynamicPoolEx<NEffectUpdateDecorator::CTextureAnimationCCWDecorator>::~CDynamicPoolEx<NEffectUpdateDecorator::CTextureAnimationCCWDecorator>
??__F?ms_kPool@?$CPooledObject@VCTextureAnimationCCWDecorator@NEffectUpdateDecorator@@@@1V?$CDynamicPoolEx@VCTextureAnimationCCWDecorator@NEffectUpdateDecorator@@@@A@@YAXXZ ENDP ; `dynamic atexit destructor for 'CPooledObject<NEffectUpdateDecorator::CTextureAnimationCCWDecorator>::ms_kPool''
text$yd	ENDS
; Function compile flags: /Ogtp
; File D:\Metin2 Server Files\mainline\SRC_2014\Metin2Client\eterLib\Pool.h
;	COMDAT ??__E?ms_kPool@?$CPooledObject@VCTextureAnimationCCWDecorator@NEffectUpdateDecorator@@@@1V?$CDynamicPoolEx@VCTextureAnimationCCWDecorator@NEffectUpdateDecorator@@@@A@@YAXXZ
text$di	SEGMENT
??__E?ms_kPool@?$CPooledObject@VCTextureAnimationCCWDecorator@NEffectUpdateDecorator@@@@1V?$CDynamicPoolEx@VCTextureAnimationCCWDecorator@NEffectUpdateDecorator@@@@A@@YAXXZ PROC ; `dynamic initializer for 'CPooledObject<NEffectUpdateDecorator::CTextureAnimationCCWDecorator>::ms_kPool'', COMDAT

; 272  : template <class T> CDynamicPoolEx<T> CPooledObject<T>::ms_kPool;

  00000	68 00 00 00 00	 push	 OFFSET ??__F?ms_kPool@?$CPooledObject@VCTextureAnimationCCWDecorator@NEffectUpdateDecorator@@@@1V?$CDynamicPoolEx@VCTextureAnimationCCWDecorator@NEffectUpdateDecorator@@@@A@@YAXXZ ; `dynamic atexit destructor for 'CPooledObject<NEffectUpdateDecorator::CTextureAnimationCCWDecorator>::ms_kPool''
  00005	e8 00 00 00 00	 call	 _atexit
  0000a	59		 pop	 ecx
  0000b	c3		 ret	 0
??__E?ms_kPool@?$CPooledObject@VCTextureAnimationCCWDecorator@NEffectUpdateDecorator@@@@1V?$CDynamicPoolEx@VCTextureAnimationCCWDecorator@NEffectUpdateDecorator@@@@A@@YAXXZ ENDP ; `dynamic initializer for 'CPooledObject<NEffectUpdateDecorator::CTextureAnimationCCWDecorator>::ms_kPool''
text$di	ENDS
; Function compile flags: /Ogtp
;	COMDAT ??__F?ms_kPool@?$CPooledObject@VCTextureAnimationCWDecorator@NEffectUpdateDecorator@@@@1V?$CDynamicPoolEx@VCTextureAnimationCWDecorator@NEffectUpdateDecorator@@@@A@@YAXXZ
text$yd	SEGMENT
??__F?ms_kPool@?$CPooledObject@VCTextureAnimationCWDecorator@NEffectUpdateDecorator@@@@1V?$CDynamicPoolEx@VCTextureAnimationCWDecorator@NEffectUpdateDecorator@@@@A@@YAXXZ PROC ; `dynamic atexit destructor for 'CPooledObject<NEffectUpdateDecorator::CTextureAnimationCWDecorator>::ms_kPool'', COMDAT
  00000	b9 00 00 00 00	 mov	 ecx, OFFSET ?ms_kPool@?$CPooledObject@VCTextureAnimationCWDecorator@NEffectUpdateDecorator@@@@1V?$CDynamicPoolEx@VCTextureAnimationCWDecorator@NEffectUpdateDecorator@@@@A ; CPooledObject<NEffectUpdateDecorator::CTextureAnimationCWDecorator>::ms_kPool
  00005	e9 00 00 00 00	 jmp	 ??1?$CDynamicPoolEx@VCTextureAnimationCWDecorator@NEffectUpdateDecorator@@@@UAE@XZ ; CDynamicPoolEx<NEffectUpdateDecorator::CTextureAnimationCWDecorator>::~CDynamicPoolEx<NEffectUpdateDecorator::CTextureAnimationCWDecorator>
??__F?ms_kPool@?$CPooledObject@VCTextureAnimationCWDecorator@NEffectUpdateDecorator@@@@1V?$CDynamicPoolEx@VCTextureAnimationCWDecorator@NEffectUpdateDecorator@@@@A@@YAXXZ ENDP ; `dynamic atexit destructor for 'CPooledObject<NEffectUpdateDecorator::CTextureAnimationCWDecorator>::ms_kPool''
text$yd	ENDS
; Function compile flags: /Ogtp
; File D:\Metin2 Server Files\mainline\SRC_2014\Metin2Client\eterLib\Pool.h
;	COMDAT ??__E?ms_kPool@?$CPooledObject@VCTextureAnimationCWDecorator@NEffectUpdateDecorator@@@@1V?$CDynamicPoolEx@VCTextureAnimationCWDecorator@NEffectUpdateDecorator@@@@A@@YAXXZ
text$di	SEGMENT
??__E?ms_kPool@?$CPooledObject@VCTextureAnimationCWDecorator@NEffectUpdateDecorator@@@@1V?$CDynamicPoolEx@VCTextureAnimationCWDecorator@NEffectUpdateDecorator@@@@A@@YAXXZ PROC ; `dynamic initializer for 'CPooledObject<NEffectUpdateDecorator::CTextureAnimationCWDecorator>::ms_kPool'', COMDAT

; 272  : template <class T> CDynamicPoolEx<T> CPooledObject<T>::ms_kPool;

  00000	68 00 00 00 00	 push	 OFFSET ??__F?ms_kPool@?$CPooledObject@VCTextureAnimationCWDecorator@NEffectUpdateDecorator@@@@1V?$CDynamicPoolEx@VCTextureAnimationCWDecorator@NEffectUpdateDecorator@@@@A@@YAXXZ ; `dynamic atexit destructor for 'CPooledObject<NEffectUpdateDecorator::CTextureAnimationCWDecorator>::ms_kPool''
  00005	e8 00 00 00 00	 call	 _atexit
  0000a	59		 pop	 ecx
  0000b	c3		 ret	 0
??__E?ms_kPool@?$CPooledObject@VCTextureAnimationCWDecorator@NEffectUpdateDecorator@@@@1V?$CDynamicPoolEx@VCTextureAnimationCWDecorator@NEffectUpdateDecorator@@@@A@@YAXXZ ENDP ; `dynamic initializer for 'CPooledObject<NEffectUpdateDecorator::CTextureAnimationCWDecorator>::ms_kPool''
text$di	ENDS
; Function compile flags: /Ogtp
;	COMDAT ??__F?ms_kPool@?$CPooledObject@VCNullDecorator@NEffectUpdateDecorator@@@@1V?$CDynamicPoolEx@VCNullDecorator@NEffectUpdateDecorator@@@@A@@YAXXZ
text$yd	SEGMENT
??__F?ms_kPool@?$CPooledObject@VCNullDecorator@NEffectUpdateDecorator@@@@1V?$CDynamicPoolEx@VCNullDecorator@NEffectUpdateDecorator@@@@A@@YAXXZ PROC ; `dynamic atexit destructor for 'CPooledObject<NEffectUpdateDecorator::CNullDecorator>::ms_kPool'', COMDAT
  00000	b9 00 00 00 00	 mov	 ecx, OFFSET ?ms_kPool@?$CPooledObject@VCNullDecorator@NEffectUpdateDecorator@@@@1V?$CDynamicPoolEx@VCNullDecorator@NEffectUpdateDecorator@@@@A ; CPooledObject<NEffectUpdateDecorator::CNullDecorator>::ms_kPool
  00005	e9 00 00 00 00	 jmp	 ??1?$CDynamicPoolEx@VCNullDecorator@NEffectUpdateDecorator@@@@UAE@XZ ; CDynamicPoolEx<NEffectUpdateDecorator::CNullDecorator>::~CDynamicPoolEx<NEffectUpdateDecorator::CNullDecorator>
??__F?ms_kPool@?$CPooledObject@VCNullDecorator@NEffectUpdateDecorator@@@@1V?$CDynamicPoolEx@VCNullDecorator@NEffectUpdateDecorator@@@@A@@YAXXZ ENDP ; `dynamic atexit destructor for 'CPooledObject<NEffectUpdateDecorator::CNullDecorator>::ms_kPool''
text$yd	ENDS
; Function compile flags: /Ogtp
; File D:\Metin2 Server Files\mainline\SRC_2014\Metin2Client\eterLib\Pool.h
;	COMDAT ??__E?ms_kPool@?$CPooledObject@VCNullDecorator@NEffectUpdateDecorator@@@@1V?$CDynamicPoolEx@VCNullDecorator@NEffectUpdateDecorator@@@@A@@YAXXZ
text$di	SEGMENT
??__E?ms_kPool@?$CPooledObject@VCNullDecorator@NEffectUpdateDecorator@@@@1V?$CDynamicPoolEx@VCNullDecorator@NEffectUpdateDecorator@@@@A@@YAXXZ PROC ; `dynamic initializer for 'CPooledObject<NEffectUpdateDecorator::CNullDecorator>::ms_kPool'', COMDAT

; 272  : template <class T> CDynamicPoolEx<T> CPooledObject<T>::ms_kPool;

  00000	68 00 00 00 00	 push	 OFFSET ??__F?ms_kPool@?$CPooledObject@VCNullDecorator@NEffectUpdateDecorator@@@@1V?$CDynamicPoolEx@VCNullDecorator@NEffectUpdateDecorator@@@@A@@YAXXZ ; `dynamic atexit destructor for 'CPooledObject<NEffectUpdateDecorator::CNullDecorator>::ms_kPool''
  00005	e8 00 00 00 00	 call	 _atexit
  0000a	59		 pop	 ecx
  0000b	c3		 ret	 0
??__E?ms_kPool@?$CPooledObject@VCNullDecorator@NEffectUpdateDecorator@@@@1V?$CDynamicPoolEx@VCNullDecorator@NEffectUpdateDecorator@@@@A@@YAXXZ ENDP ; `dynamic initializer for 'CPooledObject<NEffectUpdateDecorator::CNullDecorator>::ms_kPool''
text$di	ENDS
; Function compile flags: /Ogtp
;	COMDAT ??__F?ms_kPool@?$CPooledObject@VCHeaderDecorator@NEffectUpdateDecorator@@@@1V?$CDynamicPoolEx@VCHeaderDecorator@NEffectUpdateDecorator@@@@A@@YAXXZ
text$yd	SEGMENT
??__F?ms_kPool@?$CPooledObject@VCHeaderDecorator@NEffectUpdateDecorator@@@@1V?$CDynamicPoolEx@VCHeaderDecorator@NEffectUpdateDecorator@@@@A@@YAXXZ PROC ; `dynamic atexit destructor for 'CPooledObject<NEffectUpdateDecorator::CHeaderDecorator>::ms_kPool'', COMDAT
  00000	b9 00 00 00 00	 mov	 ecx, OFFSET ?ms_kPool@?$CPooledObject@VCHeaderDecorator@NEffectUpdateDecorator@@@@1V?$CDynamicPoolEx@VCHeaderDecorator@NEffectUpdateDecorator@@@@A ; CPooledObject<NEffectUpdateDecorator::CHeaderDecorator>::ms_kPool
  00005	e9 00 00 00 00	 jmp	 ??1?$CDynamicPoolEx@VCHeaderDecorator@NEffectUpdateDecorator@@@@UAE@XZ ; CDynamicPoolEx<NEffectUpdateDecorator::CHeaderDecorator>::~CDynamicPoolEx<NEffectUpdateDecorator::CHeaderDecorator>
??__F?ms_kPool@?$CPooledObject@VCHeaderDecorator@NEffectUpdateDecorator@@@@1V?$CDynamicPoolEx@VCHeaderDecorator@NEffectUpdateDecorator@@@@A@@YAXXZ ENDP ; `dynamic atexit destructor for 'CPooledObject<NEffectUpdateDecorator::CHeaderDecorator>::ms_kPool''
text$yd	ENDS
; Function compile flags: /Ogtp
; File D:\Metin2 Server Files\mainline\SRC_2014\Metin2Client\eterLib\Pool.h
;	COMDAT ??__E?ms_kPool@?$CPooledObject@VCHeaderDecorator@NEffectUpdateDecorator@@@@1V?$CDynamicPoolEx@VCHeaderDecorator@NEffectUpdateDecorator@@@@A@@YAXXZ
text$di	SEGMENT
??__E?ms_kPool@?$CPooledObject@VCHeaderDecorator@NEffectUpdateDecorator@@@@1V?$CDynamicPoolEx@VCHeaderDecorator@NEffectUpdateDecorator@@@@A@@YAXXZ PROC ; `dynamic initializer for 'CPooledObject<NEffectUpdateDecorator::CHeaderDecorator>::ms_kPool'', COMDAT

; 272  : template <class T> CDynamicPoolEx<T> CPooledObject<T>::ms_kPool;

  00000	68 00 00 00 00	 push	 OFFSET ??__F?ms_kPool@?$CPooledObject@VCHeaderDecorator@NEffectUpdateDecorator@@@@1V?$CDynamicPoolEx@VCHeaderDecorator@NEffectUpdateDecorator@@@@A@@YAXXZ ; `dynamic atexit destructor for 'CPooledObject<NEffectUpdateDecorator::CHeaderDecorator>::ms_kPool''
  00005	e8 00 00 00 00	 call	 _atexit
  0000a	59		 pop	 ecx
  0000b	c3		 ret	 0
??__E?ms_kPool@?$CPooledObject@VCHeaderDecorator@NEffectUpdateDecorator@@@@1V?$CDynamicPoolEx@VCHeaderDecorator@NEffectUpdateDecorator@@@@A@@YAXXZ ENDP ; `dynamic initializer for 'CPooledObject<NEffectUpdateDecorator::CHeaderDecorator>::ms_kPool''
text$di	ENDS
; Function compile flags: /Ogtp
; File C:\Program Files (x86)\Microsoft Visual Studio\2019\Community\VC\Tools\MSVC\14.28.29333\include\xmemory
;	COMDAT ??$_Destroy_range@V?$allocator@PAVCRotationDecorator@NEffectUpdateDecorator@@@std@@@std@@YAXPAPAVCRotationDecorator@NEffectUpdateDecorator@@QAPAV12@AAV?$allocator@PAVCRotationDecorator@NEffectUpdateDecorator@@@0@@Z
_TEXT	SEGMENT
__First$ = 8						; size = 4
__Last$ = 12						; size = 4
__Al$ = 16						; size = 4
??$_Destroy_range@V?$allocator@PAVCRotationDecorator@NEffectUpdateDecorator@@@std@@@std@@YAXPAPAVCRotationDecorator@NEffectUpdateDecorator@@QAPAV12@AAV?$allocator@PAVCRotationDecorator@NEffectUpdateDecorator@@@0@@Z PROC ; std::_Destroy_range<std::allocator<NEffectUpdateDecorator::CRotationDecorator *> >, COMDAT

; 963  :     // note that this is an optimization for debug mode codegen; in release mode the BE removes all of this
; 964  :     using _Ty = typename _Alloc::value_type;
; 965  :     if _CONSTEXPR_IF (!conjunction_v<is_trivially_destructible<_Ty>, _Uses_default_destroy<_Alloc, _Ty*>>) {
; 966  :         for (; _First != _Last; ++_First) {
; 967  :             allocator_traits<_Alloc>::destroy(_Al, _Unfancy(_First));
; 968  :         }
; 969  :     }
; 970  : }

  00000	c2 00 00	 ret	 0
??$_Destroy_range@V?$allocator@PAVCRotationDecorator@NEffectUpdateDecorator@@@std@@@std@@YAXPAPAVCRotationDecorator@NEffectUpdateDecorator@@QAPAV12@AAV?$allocator@PAVCRotationDecorator@NEffectUpdateDecorator@@@0@@Z ENDP ; std::_Destroy_range<std::allocator<NEffectUpdateDecorator::CRotationDecorator *> >
_TEXT	ENDS
; Function compile flags: /Ogtp
; File C:\Program Files (x86)\Microsoft Visual Studio\2019\Community\VC\Tools\MSVC\14.28.29333\include\xmemory
;	COMDAT ??$_Destroy_range@V?$allocator@PAVCGravityDecorator@NEffectUpdateDecorator@@@std@@@std@@YAXPAPAVCGravityDecorator@NEffectUpdateDecorator@@QAPAV12@AAV?$allocator@PAVCGravityDecorator@NEffectUpdateDecorator@@@0@@Z
_TEXT	SEGMENT
__First$ = 8						; size = 4
__Last$ = 12						; size = 4
__Al$ = 16						; size = 4
??$_Destroy_range@V?$allocator@PAVCGravityDecorator@NEffectUpdateDecorator@@@std@@@std@@YAXPAPAVCGravityDecorator@NEffectUpdateDecorator@@QAPAV12@AAV?$allocator@PAVCGravityDecorator@NEffectUpdateDecorator@@@0@@Z PROC ; std::_Destroy_range<std::allocator<NEffectUpdateDecorator::CGravityDecorator *> >, COMDAT

; 963  :     // note that this is an optimization for debug mode codegen; in release mode the BE removes all of this
; 964  :     using _Ty = typename _Alloc::value_type;
; 965  :     if _CONSTEXPR_IF (!conjunction_v<is_trivially_destructible<_Ty>, _Uses_default_destroy<_Alloc, _Ty*>>) {
; 966  :         for (; _First != _Last; ++_First) {
; 967  :             allocator_traits<_Alloc>::destroy(_Al, _Unfancy(_First));
; 968  :         }
; 969  :     }
; 970  : }

  00000	c2 00 00	 ret	 0
??$_Destroy_range@V?$allocator@PAVCGravityDecorator@NEffectUpdateDecorator@@@std@@@std@@YAXPAPAVCGravityDecorator@NEffectUpdateDecorator@@QAPAV12@AAV?$allocator@PAVCGravityDecorator@NEffectUpdateDecorator@@@0@@Z ENDP ; std::_Destroy_range<std::allocator<NEffectUpdateDecorator::CGravityDecorator *> >
_TEXT	ENDS
; Function compile flags: /Ogtp
; File C:\Program Files (x86)\Microsoft Visual Studio\2019\Community\VC\Tools\MSVC\14.28.29333\include\xmemory
;	COMDAT ??$_Destroy_range@V?$allocator@PAVCAirResistanceDecorator@NEffectUpdateDecorator@@@std@@@std@@YAXPAPAVCAirResistanceDecorator@NEffectUpdateDecorator@@QAPAV12@AAV?$allocator@PAVCAirResistanceDecorator@NEffectUpdateDecorator@@@0@@Z
_TEXT	SEGMENT
__First$ = 8						; size = 4
__Last$ = 12						; size = 4
__Al$ = 16						; size = 4
??$_Destroy_range@V?$allocator@PAVCAirResistanceDecorator@NEffectUpdateDecorator@@@std@@@std@@YAXPAPAVCAirResistanceDecorator@NEffectUpdateDecorator@@QAPAV12@AAV?$allocator@PAVCAirResistanceDecorator@NEffectUpdateDecorator@@@0@@Z PROC ; std::_Destroy_range<std::allocator<NEffectUpdateDecorator::CAirResistanceDecorator *> >, COMDAT

; 963  :     // note that this is an optimization for debug mode codegen; in release mode the BE removes all of this
; 964  :     using _Ty = typename _Alloc::value_type;
; 965  :     if _CONSTEXPR_IF (!conjunction_v<is_trivially_destructible<_Ty>, _Uses_default_destroy<_Alloc, _Ty*>>) {
; 966  :         for (; _First != _Last; ++_First) {
; 967  :             allocator_traits<_Alloc>::destroy(_Al, _Unfancy(_First));
; 968  :         }
; 969  :     }
; 970  : }

  00000	c2 00 00	 ret	 0
??$_Destroy_range@V?$allocator@PAVCAirResistanceDecorator@NEffectUpdateDecorator@@@std@@@std@@YAXPAPAVCAirResistanceDecorator@NEffectUpdateDecorator@@QAPAV12@AAV?$allocator@PAVCAirResistanceDecorator@NEffectUpdateDecorator@@@0@@Z ENDP ; std::_Destroy_range<std::allocator<NEffectUpdateDecorator::CAirResistanceDecorator *> >
_TEXT	ENDS
; Function compile flags: /Ogtp
; File C:\Program Files (x86)\Microsoft Visual Studio\2019\Community\VC\Tools\MSVC\14.28.29333\include\xmemory
;	COMDAT ??$_Destroy_range@V?$allocator@PAVCTextureAnimationRandomDecorator@NEffectUpdateDecorator@@@std@@@std@@YAXPAPAVCTextureAnimationRandomDecorator@NEffectUpdateDecorator@@QAPAV12@AAV?$allocator@PAVCTextureAnimationRandomDecorator@NEffectUpdateDecorator@@@0@@Z
_TEXT	SEGMENT
__First$ = 8						; size = 4
__Last$ = 12						; size = 4
__Al$ = 16						; size = 4
??$_Destroy_range@V?$allocator@PAVCTextureAnimationRandomDecorator@NEffectUpdateDecorator@@@std@@@std@@YAXPAPAVCTextureAnimationRandomDecorator@NEffectUpdateDecorator@@QAPAV12@AAV?$allocator@PAVCTextureAnimationRandomDecorator@NEffectUpdateDecorator@@@0@@Z PROC ; std::_Destroy_range<std::allocator<NEffectUpdateDecorator::CTextureAnimationRandomDecorator *> >, COMDAT

; 963  :     // note that this is an optimization for debug mode codegen; in release mode the BE removes all of this
; 964  :     using _Ty = typename _Alloc::value_type;
; 965  :     if _CONSTEXPR_IF (!conjunction_v<is_trivially_destructible<_Ty>, _Uses_default_destroy<_Alloc, _Ty*>>) {
; 966  :         for (; _First != _Last; ++_First) {
; 967  :             allocator_traits<_Alloc>::destroy(_Al, _Unfancy(_First));
; 968  :         }
; 969  :     }
; 970  : }

  00000	c2 00 00	 ret	 0
??$_Destroy_range@V?$allocator@PAVCTextureAnimationRandomDecorator@NEffectUpdateDecorator@@@std@@@std@@YAXPAPAVCTextureAnimationRandomDecorator@NEffectUpdateDecorator@@QAPAV12@AAV?$allocator@PAVCTextureAnimationRandomDecorator@NEffectUpdateDecorator@@@0@@Z ENDP ; std::_Destroy_range<std::allocator<NEffectUpdateDecorator::CTextureAnimationRandomDecorator *> >
_TEXT	ENDS
; Function compile flags: /Ogtp
; File C:\Program Files (x86)\Microsoft Visual Studio\2019\Community\VC\Tools\MSVC\14.28.29333\include\xmemory
;	COMDAT ??$_Destroy_range@V?$allocator@PAVCTextureAnimationCCWDecorator@NEffectUpdateDecorator@@@std@@@std@@YAXPAPAVCTextureAnimationCCWDecorator@NEffectUpdateDecorator@@QAPAV12@AAV?$allocator@PAVCTextureAnimationCCWDecorator@NEffectUpdateDecorator@@@0@@Z
_TEXT	SEGMENT
__First$ = 8						; size = 4
__Last$ = 12						; size = 4
__Al$ = 16						; size = 4
??$_Destroy_range@V?$allocator@PAVCTextureAnimationCCWDecorator@NEffectUpdateDecorator@@@std@@@std@@YAXPAPAVCTextureAnimationCCWDecorator@NEffectUpdateDecorator@@QAPAV12@AAV?$allocator@PAVCTextureAnimationCCWDecorator@NEffectUpdateDecorator@@@0@@Z PROC ; std::_Destroy_range<std::allocator<NEffectUpdateDecorator::CTextureAnimationCCWDecorator *> >, COMDAT

; 963  :     // note that this is an optimization for debug mode codegen; in release mode the BE removes all of this
; 964  :     using _Ty = typename _Alloc::value_type;
; 965  :     if _CONSTEXPR_IF (!conjunction_v<is_trivially_destructible<_Ty>, _Uses_default_destroy<_Alloc, _Ty*>>) {
; 966  :         for (; _First != _Last; ++_First) {
; 967  :             allocator_traits<_Alloc>::destroy(_Al, _Unfancy(_First));
; 968  :         }
; 969  :     }
; 970  : }

  00000	c2 00 00	 ret	 0
??$_Destroy_range@V?$allocator@PAVCTextureAnimationCCWDecorator@NEffectUpdateDecorator@@@std@@@std@@YAXPAPAVCTextureAnimationCCWDecorator@NEffectUpdateDecorator@@QAPAV12@AAV?$allocator@PAVCTextureAnimationCCWDecorator@NEffectUpdateDecorator@@@0@@Z ENDP ; std::_Destroy_range<std::allocator<NEffectUpdateDecorator::CTextureAnimationCCWDecorator *> >
_TEXT	ENDS
; Function compile flags: /Ogtp
; File C:\Program Files (x86)\Microsoft Visual Studio\2019\Community\VC\Tools\MSVC\14.28.29333\include\xmemory
;	COMDAT ??$_Destroy_range@V?$allocator@PAVCTextureAnimationCWDecorator@NEffectUpdateDecorator@@@std@@@std@@YAXPAPAVCTextureAnimationCWDecorator@NEffectUpdateDecorator@@QAPAV12@AAV?$allocator@PAVCTextureAnimationCWDecorator@NEffectUpdateDecorator@@@0@@Z
_TEXT	SEGMENT
__First$ = 8						; size = 4
__Last$ = 12						; size = 4
__Al$ = 16						; size = 4
??$_Destroy_range@V?$allocator@PAVCTextureAnimationCWDecorator@NEffectUpdateDecorator@@@std@@@std@@YAXPAPAVCTextureAnimationCWDecorator@NEffectUpdateDecorator@@QAPAV12@AAV?$allocator@PAVCTextureAnimationCWDecorator@NEffectUpdateDecorator@@@0@@Z PROC ; std::_Destroy_range<std::allocator<NEffectUpdateDecorator::CTextureAnimationCWDecorator *> >, COMDAT

; 963  :     // note that this is an optimization for debug mode codegen; in release mode the BE removes all of this
; 964  :     using _Ty = typename _Alloc::value_type;
; 965  :     if _CONSTEXPR_IF (!conjunction_v<is_trivially_destructible<_Ty>, _Uses_default_destroy<_Alloc, _Ty*>>) {
; 966  :         for (; _First != _Last; ++_First) {
; 967  :             allocator_traits<_Alloc>::destroy(_Al, _Unfancy(_First));
; 968  :         }
; 969  :     }
; 970  : }

  00000	c2 00 00	 ret	 0
??$_Destroy_range@V?$allocator@PAVCTextureAnimationCWDecorator@NEffectUpdateDecorator@@@std@@@std@@YAXPAPAVCTextureAnimationCWDecorator@NEffectUpdateDecorator@@QAPAV12@AAV?$allocator@PAVCTextureAnimationCWDecorator@NEffectUpdateDecorator@@@0@@Z ENDP ; std::_Destroy_range<std::allocator<NEffectUpdateDecorator::CTextureAnimationCWDecorator *> >
_TEXT	ENDS
; Function compile flags: /Ogtp
; File C:\Program Files (x86)\Microsoft Visual Studio\2019\Community\VC\Tools\MSVC\14.28.29333\include\xmemory
;	COMDAT ??$_Destroy_range@V?$allocator@PAVCNullDecorator@NEffectUpdateDecorator@@@std@@@std@@YAXPAPAVCNullDecorator@NEffectUpdateDecorator@@QAPAV12@AAV?$allocator@PAVCNullDecorator@NEffectUpdateDecorator@@@0@@Z
_TEXT	SEGMENT
__First$ = 8						; size = 4
__Last$ = 12						; size = 4
__Al$ = 16						; size = 4
??$_Destroy_range@V?$allocator@PAVCNullDecorator@NEffectUpdateDecorator@@@std@@@std@@YAXPAPAVCNullDecorator@NEffectUpdateDecorator@@QAPAV12@AAV?$allocator@PAVCNullDecorator@NEffectUpdateDecorator@@@0@@Z PROC ; std::_Destroy_range<std::allocator<NEffectUpdateDecorator::CNullDecorator *> >, COMDAT

; 963  :     // note that this is an optimization for debug mode codegen; in release mode the BE removes all of this
; 964  :     using _Ty = typename _Alloc::value_type;
; 965  :     if _CONSTEXPR_IF (!conjunction_v<is_trivially_destructible<_Ty>, _Uses_default_destroy<_Alloc, _Ty*>>) {
; 966  :         for (; _First != _Last; ++_First) {
; 967  :             allocator_traits<_Alloc>::destroy(_Al, _Unfancy(_First));
; 968  :         }
; 969  :     }
; 970  : }

  00000	c2 00 00	 ret	 0
??$_Destroy_range@V?$allocator@PAVCNullDecorator@NEffectUpdateDecorator@@@std@@@std@@YAXPAPAVCNullDecorator@NEffectUpdateDecorator@@QAPAV12@AAV?$allocator@PAVCNullDecorator@NEffectUpdateDecorator@@@0@@Z ENDP ; std::_Destroy_range<std::allocator<NEffectUpdateDecorator::CNullDecorator *> >
_TEXT	ENDS
; Function compile flags: /Ogtp
; File C:\Program Files (x86)\Microsoft Visual Studio\2019\Community\VC\Tools\MSVC\14.28.29333\include\xmemory
;	COMDAT ??$_Destroy_range@V?$allocator@PAVCHeaderDecorator@NEffectUpdateDecorator@@@std@@@std@@YAXPAPAVCHeaderDecorator@NEffectUpdateDecorator@@QAPAV12@AAV?$allocator@PAVCHeaderDecorator@NEffectUpdateDecorator@@@0@@Z
_TEXT	SEGMENT
__First$ = 8						; size = 4
__Last$ = 12						; size = 4
__Al$ = 16						; size = 4
??$_Destroy_range@V?$allocator@PAVCHeaderDecorator@NEffectUpdateDecorator@@@std@@@std@@YAXPAPAVCHeaderDecorator@NEffectUpdateDecorator@@QAPAV12@AAV?$allocator@PAVCHeaderDecorator@NEffectUpdateDecorator@@@0@@Z PROC ; std::_Destroy_range<std::allocator<NEffectUpdateDecorator::CHeaderDecorator *> >, COMDAT

; 963  :     // note that this is an optimization for debug mode codegen; in release mode the BE removes all of this
; 964  :     using _Ty = typename _Alloc::value_type;
; 965  :     if _CONSTEXPR_IF (!conjunction_v<is_trivially_destructible<_Ty>, _Uses_default_destroy<_Alloc, _Ty*>>) {
; 966  :         for (; _First != _Last; ++_First) {
; 967  :             allocator_traits<_Alloc>::destroy(_Al, _Unfancy(_First));
; 968  :         }
; 969  :     }
; 970  : }

  00000	c2 00 00	 ret	 0
??$_Destroy_range@V?$allocator@PAVCHeaderDecorator@NEffectUpdateDecorator@@@std@@@std@@YAXPAPAVCHeaderDecorator@NEffectUpdateDecorator@@QAPAV12@AAV?$allocator@PAVCHeaderDecorator@NEffectUpdateDecorator@@@0@@Z ENDP ; std::_Destroy_range<std::allocator<NEffectUpdateDecorator::CHeaderDecorator *> >
_TEXT	ENDS
; Function compile flags: /Ogtp
; File C:\Program Files (x86)\Microsoft Visual Studio\2019\Community\VC\Tools\MSVC\14.28.29333\include\xmemory
;	COMDAT ??$_Destroy_range@V?$allocator@PAVCInstanceBase@@@std@@@std@@YAXPAPAVCInstanceBase@@QAPAV1@AAV?$allocator@PAVCInstanceBase@@@0@@Z
_TEXT	SEGMENT
__First$ = 8						; size = 4
__Last$ = 12						; size = 4
__Al$ = 16						; size = 4
??$_Destroy_range@V?$allocator@PAVCInstanceBase@@@std@@@std@@YAXPAPAVCInstanceBase@@QAPAV1@AAV?$allocator@PAVCInstanceBase@@@0@@Z PROC ; std::_Destroy_range<std::allocator<CInstanceBase *> >, COMDAT

; 963  :     // note that this is an optimization for debug mode codegen; in release mode the BE removes all of this
; 964  :     using _Ty = typename _Alloc::value_type;
; 965  :     if _CONSTEXPR_IF (!conjunction_v<is_trivially_destructible<_Ty>, _Uses_default_destroy<_Alloc, _Ty*>>) {
; 966  :         for (; _First != _Last; ++_First) {
; 967  :             allocator_traits<_Alloc>::destroy(_Al, _Unfancy(_First));
; 968  :         }
; 969  :     }
; 970  : }

  00000	c2 00 00	 ret	 0
??$_Destroy_range@V?$allocator@PAVCInstanceBase@@@std@@@std@@YAXPAPAVCInstanceBase@@QAPAV1@AAV?$allocator@PAVCInstanceBase@@@0@@Z ENDP ; std::_Destroy_range<std::allocator<CInstanceBase *> >
_TEXT	ENDS
; Function compile flags: /Ogtp
;	COMDAT ??_G?$CDynamicPoolEx@VCHeaderDecorator@NEffectUpdateDecorator@@@@UAEPAXI@Z
_TEXT	SEGMENT
___flags$ = 8						; size = 4
??_G?$CDynamicPoolEx@VCHeaderDecorator@NEffectUpdateDecorator@@@@UAEPAXI@Z PROC ; CDynamicPoolEx<NEffectUpdateDecorator::CHeaderDecorator>::`scalar deleting destructor', COMDAT
; _this$ = ecx
  00000	55		 push	 ebp
  00001	8b ec		 mov	 ebp, esp
  00003	56		 push	 esi
  00004	8b f1		 mov	 esi, ecx
  00006	e8 00 00 00 00	 call	 ??1?$CDynamicPoolEx@VCHeaderDecorator@NEffectUpdateDecorator@@@@UAE@XZ ; CDynamicPoolEx<NEffectUpdateDecorator::CHeaderDecorator>::~CDynamicPoolEx<NEffectUpdateDecorator::CHeaderDecorator>
  0000b	f6 45 08 01	 test	 BYTE PTR ___flags$[ebp], 1
  0000f	74 0b		 je	 SHORT $LN4@scalar
  00011	6a 24		 push	 36			; 00000024H
  00013	56		 push	 esi
  00014	e8 00 00 00 00	 call	 ??3@YAXPAXI@Z		; operator delete
  00019	83 c4 08	 add	 esp, 8
$LN4@scalar:
  0001c	8b c6		 mov	 eax, esi
  0001e	5e		 pop	 esi
  0001f	5d		 pop	 ebp
  00020	c2 04 00	 ret	 4
??_G?$CDynamicPoolEx@VCHeaderDecorator@NEffectUpdateDecorator@@@@UAEPAXI@Z ENDP ; CDynamicPoolEx<NEffectUpdateDecorator::CHeaderDecorator>::`scalar deleting destructor'
_TEXT	ENDS
; Function compile flags: /Ogtp
; File D:\Metin2 Server Files\mainline\SRC_2014\Metin2Client\eterLib\Pool.h
;	COMDAT ?Delete@?$CDynamicPoolEx@VCHeaderDecorator@NEffectUpdateDecorator@@@@KAXPAVCHeaderDecorator@NEffectUpdateDecorator@@@Z
_TEXT	SEGMENT
_pkData$ = 8						; size = 4
?Delete@?$CDynamicPoolEx@VCHeaderDecorator@NEffectUpdateDecorator@@@@KAXPAVCHeaderDecorator@NEffectUpdateDecorator@@@Z PROC ; CDynamicPoolEx<NEffectUpdateDecorator::CHeaderDecorator>::Delete, COMDAT

; 224  : 			::operator delete(pkData);

  00000	e9 00 00 00 00	 jmp	 ??3@YAXPAX@Z		; operator delete
?Delete@?$CDynamicPoolEx@VCHeaderDecorator@NEffectUpdateDecorator@@@@KAXPAVCHeaderDecorator@NEffectUpdateDecorator@@@Z ENDP ; CDynamicPoolEx<NEffectUpdateDecorator::CHeaderDecorator>::Delete
_TEXT	ENDS
; Function compile flags: /Ogtp
; File D:\Metin2 Server Files\mainline\SRC_2014\Metin2Client\eterLib\Pool.h
; File C:\Program Files (x86)\Microsoft Visual Studio\2019\Community\VC\Tools\MSVC\14.28.29333\include\vector
; File C:\Program Files (x86)\Microsoft Visual Studio\2019\Community\VC\Tools\MSVC\14.28.29333\include\algorithm
; File D:\Metin2 Server Files\mainline\SRC_2014\Metin2Client\eterLib\Pool.h
; File C:\Program Files (x86)\Microsoft Visual Studio\2019\Community\VC\Tools\MSVC\14.28.29333\include\algorithm
; File D:\Metin2 Server Files\mainline\SRC_2014\Metin2Client\eterLib\Pool.h
; File C:\Program Files (x86)\Microsoft Visual Studio\2019\Community\VC\Tools\MSVC\14.28.29333\include\algorithm
; File D:\Metin2 Server Files\mainline\SRC_2014\Metin2Client\eterLib\Pool.h
; File C:\Program Files (x86)\Microsoft Visual Studio\2019\Community\VC\Tools\MSVC\14.28.29333\include\vector
; File C:\Program Files (x86)\Microsoft Visual Studio\2019\Community\VC\Tools\MSVC\14.28.29333\include\xmemory
; File C:\Program Files (x86)\Microsoft Visual Studio\2019\Community\VC\Tools\MSVC\14.28.29333\include\vector
; File C:\Program Files (x86)\Microsoft Visual Studio\2019\Community\VC\Tools\MSVC\14.28.29333\include\xmemory
; File C:\Program Files (x86)\Microsoft Visual Studio\2019\Community\VC\Tools\MSVC\14.28.29333\include\vector
; File C:\Program Files (x86)\Microsoft Visual Studio\2019\Community\VC\Tools\MSVC\14.28.29333\include\xmemory
; File C:\Program Files (x86)\Microsoft Visual Studio\2019\Community\VC\Tools\MSVC\14.28.29333\include\vector
; File C:\Program Files (x86)\Microsoft Visual Studio\2019\Community\VC\Tools\MSVC\14.28.29333\include\xmemory
; File C:\Program Files (x86)\Microsoft Visual Studio\2019\Community\VC\Tools\MSVC\14.28.29333\include\vector
; File D:\Metin2 Server Files\mainline\SRC_2014\Metin2Client\eterLib\Pool.h
;	COMDAT ??1?$CDynamicPoolEx@VCHeaderDecorator@NEffectUpdateDecorator@@@@UAE@XZ
_TEXT	SEGMENT
??1?$CDynamicPoolEx@VCHeaderDecorator@NEffectUpdateDecorator@@@@UAE@XZ PROC ; CDynamicPoolEx<NEffectUpdateDecorator::CHeaderDecorator>::~CDynamicPoolEx<NEffectUpdateDecorator::CHeaderDecorator>, COMDAT
; _this$ = ecx

; 132  : 		{

  00000	53		 push	 ebx
  00001	56		 push	 esi
  00002	57		 push	 edi
  00003	8b f9		 mov	 edi, ecx
  00005	c7 07 00 00 00
	00		 mov	 DWORD PTR [edi], OFFSET ??_7?$CDynamicPoolEx@VCHeaderDecorator@NEffectUpdateDecorator@@@@6B@
; File C:\Program Files (x86)\Microsoft Visual Studio\2019\Community\VC\Tools\MSVC\14.28.29333\include\vector

; 42   :     _Vector_const_iterator(_Tptr _Parg, const _Container_base* _Pvector) noexcept : _Ptr(_Parg) {

  0000b	8b 5f 08	 mov	 ebx, DWORD PTR [edi+8]
  0000e	8b 77 04	 mov	 esi, DWORD PTR [edi+4]
; File C:\Program Files (x86)\Microsoft Visual Studio\2019\Community\VC\Tools\MSVC\14.28.29333\include\algorithm

; 307  :     for (; _UFirst != _ULast; ++_UFirst) {

  00011	3b f3		 cmp	 esi, ebx
  00013	74 14		 je	 SHORT $LN19@CDynamicPo
$LL20@CDynamicPo:
; File D:\Metin2 Server Files\mainline\SRC_2014\Metin2Client\eterLib\Pool.h

; 224  : 			::operator delete(pkData);

  00015	ff 36		 push	 DWORD PTR [esi]
  00017	e8 00 00 00 00	 call	 ??3@YAXPAX@Z		; operator delete
; File C:\Program Files (x86)\Microsoft Visual Studio\2019\Community\VC\Tools\MSVC\14.28.29333\include\algorithm

; 307  :     for (; _UFirst != _ULast; ++_UFirst) {

  0001c	83 c6 04	 add	 esi, 4
; File D:\Metin2 Server Files\mainline\SRC_2014\Metin2Client\eterLib\Pool.h

; 224  : 			::operator delete(pkData);

  0001f	83 c4 04	 add	 esp, 4
; File C:\Program Files (x86)\Microsoft Visual Studio\2019\Community\VC\Tools\MSVC\14.28.29333\include\algorithm

; 307  :     for (; _UFirst != _ULast; ++_UFirst) {

  00022	3b f3		 cmp	 esi, ebx
  00024	75 ef		 jne	 SHORT $LL20@CDynamicPo
  00026	8b 77 04	 mov	 esi, DWORD PTR [edi+4]
$LN19@CDynamicPo:
; File D:\Metin2 Server Files\mainline\SRC_2014\Metin2Client\eterLib\Pool.h

; 162  : 			m_kVct_pkFree.clear();

  00029	8b 4f 10	 mov	 ecx, DWORD PTR [edi+16]
  0002c	89 77 08	 mov	 DWORD PTR [edi+8], esi
  0002f	89 4f 14	 mov	 DWORD PTR [edi+20], ecx
; File C:\Program Files (x86)\Microsoft Visual Studio\2019\Community\VC\Tools\MSVC\14.28.29333\include\vector

; 1694 :         if (_Myfirst) { // destroy and deallocate old array

  00032	85 c9		 test	 ecx, ecx
  00034	74 27		 je	 SHORT $LN27@CDynamicPo

; 1695 :             _Destroy(_Myfirst, _Mylast);
; 1696 :             _Getal().deallocate(_Myfirst, static_cast<size_type>(_Myend - _Myfirst));

  00036	8b 47 18	 mov	 eax, DWORD PTR [edi+24]
  00039	2b c1		 sub	 eax, ecx
; File C:\Program Files (x86)\Microsoft Visual Studio\2019\Community\VC\Tools\MSVC\14.28.29333\include\xmemory

; 810  :         _Deallocate<_New_alignof<_Ty>>(_Ptr, sizeof(_Ty) * _Count);

  0003b	83 e0 fc	 and	 eax, -4			; fffffffcH
  0003e	50		 push	 eax
  0003f	51		 push	 ecx
  00040	e8 00 00 00 00	 call	 ??$_Deallocate@$07$0A@@std@@YAXPAXI@Z ; std::_Deallocate<8,0>
; File C:\Program Files (x86)\Microsoft Visual Studio\2019\Community\VC\Tools\MSVC\14.28.29333\include\vector

; 1698 :             _Myfirst = pointer();

  00045	c7 47 10 00 00
	00 00		 mov	 DWORD PTR [edi+16], 0
; File C:\Program Files (x86)\Microsoft Visual Studio\2019\Community\VC\Tools\MSVC\14.28.29333\include\xmemory

; 810  :         _Deallocate<_New_alignof<_Ty>>(_Ptr, sizeof(_Ty) * _Count);

  0004c	83 c4 08	 add	 esp, 8
; File C:\Program Files (x86)\Microsoft Visual Studio\2019\Community\VC\Tools\MSVC\14.28.29333\include\vector

; 1699 :             _Mylast  = pointer();

  0004f	c7 47 14 00 00
	00 00		 mov	 DWORD PTR [edi+20], 0

; 1700 :             _Myend   = pointer();

  00056	c7 47 18 00 00
	00 00		 mov	 DWORD PTR [edi+24], 0
$LN27@CDynamicPo:

; 1694 :         if (_Myfirst) { // destroy and deallocate old array

  0005d	8b 4f 04	 mov	 ecx, DWORD PTR [edi+4]
  00060	85 c9		 test	 ecx, ecx
  00062	74 27		 je	 SHORT $LN34@CDynamicPo

; 1695 :             _Destroy(_Myfirst, _Mylast);
; 1696 :             _Getal().deallocate(_Myfirst, static_cast<size_type>(_Myend - _Myfirst));

  00064	8b 47 0c	 mov	 eax, DWORD PTR [edi+12]
  00067	2b c1		 sub	 eax, ecx
; File C:\Program Files (x86)\Microsoft Visual Studio\2019\Community\VC\Tools\MSVC\14.28.29333\include\xmemory

; 810  :         _Deallocate<_New_alignof<_Ty>>(_Ptr, sizeof(_Ty) * _Count);

  00069	83 e0 fc	 and	 eax, -4			; fffffffcH
  0006c	50		 push	 eax
  0006d	51		 push	 ecx
  0006e	e8 00 00 00 00	 call	 ??$_Deallocate@$07$0A@@std@@YAXPAXI@Z ; std::_Deallocate<8,0>
; File C:\Program Files (x86)\Microsoft Visual Studio\2019\Community\VC\Tools\MSVC\14.28.29333\include\vector

; 1698 :             _Myfirst = pointer();

  00073	c7 47 04 00 00
	00 00		 mov	 DWORD PTR [edi+4], 0
; File C:\Program Files (x86)\Microsoft Visual Studio\2019\Community\VC\Tools\MSVC\14.28.29333\include\xmemory

; 810  :         _Deallocate<_New_alignof<_Ty>>(_Ptr, sizeof(_Ty) * _Count);

  0007a	83 c4 08	 add	 esp, 8
; File C:\Program Files (x86)\Microsoft Visual Studio\2019\Community\VC\Tools\MSVC\14.28.29333\include\vector

; 1699 :             _Mylast  = pointer();

  0007d	c7 47 08 00 00
	00 00		 mov	 DWORD PTR [edi+8], 0

; 1700 :             _Myend   = pointer();

  00084	c7 47 0c 00 00
	00 00		 mov	 DWORD PTR [edi+12], 0
$LN34@CDynamicPo:
  0008b	5f		 pop	 edi
; File D:\Metin2 Server Files\mainline\SRC_2014\Metin2Client\eterLib\Pool.h

; 142  : 		}

  0008c	5e		 pop	 esi
  0008d	5b		 pop	 ebx
  0008e	c3		 ret	 0
??1?$CDynamicPoolEx@VCHeaderDecorator@NEffectUpdateDecorator@@@@UAE@XZ ENDP ; CDynamicPoolEx<NEffectUpdateDecorator::CHeaderDecorator>::~CDynamicPoolEx<NEffectUpdateDecorator::CHeaderDecorator>
_TEXT	ENDS
; Function compile flags: /Ogtp
;	COMDAT ??_G?$CDynamicPoolEx@VCNullDecorator@NEffectUpdateDecorator@@@@UAEPAXI@Z
_TEXT	SEGMENT
___flags$ = 8						; size = 4
??_G?$CDynamicPoolEx@VCNullDecorator@NEffectUpdateDecorator@@@@UAEPAXI@Z PROC ; CDynamicPoolEx<NEffectUpdateDecorator::CNullDecorator>::`scalar deleting destructor', COMDAT
; _this$ = ecx
  00000	55		 push	 ebp
  00001	8b ec		 mov	 ebp, esp
  00003	56		 push	 esi
  00004	8b f1		 mov	 esi, ecx
  00006	e8 00 00 00 00	 call	 ??1?$CDynamicPoolEx@VCNullDecorator@NEffectUpdateDecorator@@@@UAE@XZ ; CDynamicPoolEx<NEffectUpdateDecorator::CNullDecorator>::~CDynamicPoolEx<NEffectUpdateDecorator::CNullDecorator>
  0000b	f6 45 08 01	 test	 BYTE PTR ___flags$[ebp], 1
  0000f	74 0b		 je	 SHORT $LN4@scalar
  00011	6a 24		 push	 36			; 00000024H
  00013	56		 push	 esi
  00014	e8 00 00 00 00	 call	 ??3@YAXPAXI@Z		; operator delete
  00019	83 c4 08	 add	 esp, 8
$LN4@scalar:
  0001c	8b c6		 mov	 eax, esi
  0001e	5e		 pop	 esi
  0001f	5d		 pop	 ebp
  00020	c2 04 00	 ret	 4
??_G?$CDynamicPoolEx@VCNullDecorator@NEffectUpdateDecorator@@@@UAEPAXI@Z ENDP ; CDynamicPoolEx<NEffectUpdateDecorator::CNullDecorator>::`scalar deleting destructor'
_TEXT	ENDS
; Function compile flags: /Ogtp
; File D:\Metin2 Server Files\mainline\SRC_2014\Metin2Client\eterLib\Pool.h
;	COMDAT ?Delete@?$CDynamicPoolEx@VCNullDecorator@NEffectUpdateDecorator@@@@KAXPAVCNullDecorator@NEffectUpdateDecorator@@@Z
_TEXT	SEGMENT
_pkData$ = 8						; size = 4
?Delete@?$CDynamicPoolEx@VCNullDecorator@NEffectUpdateDecorator@@@@KAXPAVCNullDecorator@NEffectUpdateDecorator@@@Z PROC ; CDynamicPoolEx<NEffectUpdateDecorator::CNullDecorator>::Delete, COMDAT

; 224  : 			::operator delete(pkData);

  00000	e9 00 00 00 00	 jmp	 ??3@YAXPAX@Z		; operator delete
?Delete@?$CDynamicPoolEx@VCNullDecorator@NEffectUpdateDecorator@@@@KAXPAVCNullDecorator@NEffectUpdateDecorator@@@Z ENDP ; CDynamicPoolEx<NEffectUpdateDecorator::CNullDecorator>::Delete
_TEXT	ENDS
; Function compile flags: /Ogtp
; File D:\Metin2 Server Files\mainline\SRC_2014\Metin2Client\eterLib\Pool.h
; File C:\Program Files (x86)\Microsoft Visual Studio\2019\Community\VC\Tools\MSVC\14.28.29333\include\vector
; File C:\Program Files (x86)\Microsoft Visual Studio\2019\Community\VC\Tools\MSVC\14.28.29333\include\algorithm
; File D:\Metin2 Server Files\mainline\SRC_2014\Metin2Client\eterLib\Pool.h
; File C:\Program Files (x86)\Microsoft Visual Studio\2019\Community\VC\Tools\MSVC\14.28.29333\include\algorithm
; File D:\Metin2 Server Files\mainline\SRC_2014\Metin2Client\eterLib\Pool.h
; File C:\Program Files (x86)\Microsoft Visual Studio\2019\Community\VC\Tools\MSVC\14.28.29333\include\algorithm
; File D:\Metin2 Server Files\mainline\SRC_2014\Metin2Client\eterLib\Pool.h
; File C:\Program Files (x86)\Microsoft Visual Studio\2019\Community\VC\Tools\MSVC\14.28.29333\include\vector
; File C:\Program Files (x86)\Microsoft Visual Studio\2019\Community\VC\Tools\MSVC\14.28.29333\include\xmemory
; File C:\Program Files (x86)\Microsoft Visual Studio\2019\Community\VC\Tools\MSVC\14.28.29333\include\vector
; File C:\Program Files (x86)\Microsoft Visual Studio\2019\Community\VC\Tools\MSVC\14.28.29333\include\xmemory
; File C:\Program Files (x86)\Microsoft Visual Studio\2019\Community\VC\Tools\MSVC\14.28.29333\include\vector
; File C:\Program Files (x86)\Microsoft Visual Studio\2019\Community\VC\Tools\MSVC\14.28.29333\include\xmemory
; File C:\Program Files (x86)\Microsoft Visual Studio\2019\Community\VC\Tools\MSVC\14.28.29333\include\vector
; File C:\Program Files (x86)\Microsoft Visual Studio\2019\Community\VC\Tools\MSVC\14.28.29333\include\xmemory
; File C:\Program Files (x86)\Microsoft Visual Studio\2019\Community\VC\Tools\MSVC\14.28.29333\include\vector
; File D:\Metin2 Server Files\mainline\SRC_2014\Metin2Client\eterLib\Pool.h
;	COMDAT ??1?$CDynamicPoolEx@VCNullDecorator@NEffectUpdateDecorator@@@@UAE@XZ
_TEXT	SEGMENT
??1?$CDynamicPoolEx@VCNullDecorator@NEffectUpdateDecorator@@@@UAE@XZ PROC ; CDynamicPoolEx<NEffectUpdateDecorator::CNullDecorator>::~CDynamicPoolEx<NEffectUpdateDecorator::CNullDecorator>, COMDAT
; _this$ = ecx

; 132  : 		{

  00000	53		 push	 ebx
  00001	56		 push	 esi
  00002	57		 push	 edi
  00003	8b f9		 mov	 edi, ecx
  00005	c7 07 00 00 00
	00		 mov	 DWORD PTR [edi], OFFSET ??_7?$CDynamicPoolEx@VCNullDecorator@NEffectUpdateDecorator@@@@6B@
; File C:\Program Files (x86)\Microsoft Visual Studio\2019\Community\VC\Tools\MSVC\14.28.29333\include\vector

; 42   :     _Vector_const_iterator(_Tptr _Parg, const _Container_base* _Pvector) noexcept : _Ptr(_Parg) {

  0000b	8b 5f 08	 mov	 ebx, DWORD PTR [edi+8]
  0000e	8b 77 04	 mov	 esi, DWORD PTR [edi+4]
; File C:\Program Files (x86)\Microsoft Visual Studio\2019\Community\VC\Tools\MSVC\14.28.29333\include\algorithm

; 307  :     for (; _UFirst != _ULast; ++_UFirst) {

  00011	3b f3		 cmp	 esi, ebx
  00013	74 14		 je	 SHORT $LN19@CDynamicPo
$LL20@CDynamicPo:
; File D:\Metin2 Server Files\mainline\SRC_2014\Metin2Client\eterLib\Pool.h

; 224  : 			::operator delete(pkData);

  00015	ff 36		 push	 DWORD PTR [esi]
  00017	e8 00 00 00 00	 call	 ??3@YAXPAX@Z		; operator delete
; File C:\Program Files (x86)\Microsoft Visual Studio\2019\Community\VC\Tools\MSVC\14.28.29333\include\algorithm

; 307  :     for (; _UFirst != _ULast; ++_UFirst) {

  0001c	83 c6 04	 add	 esi, 4
; File D:\Metin2 Server Files\mainline\SRC_2014\Metin2Client\eterLib\Pool.h

; 224  : 			::operator delete(pkData);

  0001f	83 c4 04	 add	 esp, 4
; File C:\Program Files (x86)\Microsoft Visual Studio\2019\Community\VC\Tools\MSVC\14.28.29333\include\algorithm

; 307  :     for (; _UFirst != _ULast; ++_UFirst) {

  00022	3b f3		 cmp	 esi, ebx
  00024	75 ef		 jne	 SHORT $LL20@CDynamicPo
  00026	8b 77 04	 mov	 esi, DWORD PTR [edi+4]
$LN19@CDynamicPo:
; File D:\Metin2 Server Files\mainline\SRC_2014\Metin2Client\eterLib\Pool.h

; 162  : 			m_kVct_pkFree.clear();

  00029	8b 4f 10	 mov	 ecx, DWORD PTR [edi+16]
  0002c	89 77 08	 mov	 DWORD PTR [edi+8], esi
  0002f	89 4f 14	 mov	 DWORD PTR [edi+20], ecx
; File C:\Program Files (x86)\Microsoft Visual Studio\2019\Community\VC\Tools\MSVC\14.28.29333\include\vector

; 1694 :         if (_Myfirst) { // destroy and deallocate old array

  00032	85 c9		 test	 ecx, ecx
  00034	74 27		 je	 SHORT $LN27@CDynamicPo

; 1695 :             _Destroy(_Myfirst, _Mylast);
; 1696 :             _Getal().deallocate(_Myfirst, static_cast<size_type>(_Myend - _Myfirst));

  00036	8b 47 18	 mov	 eax, DWORD PTR [edi+24]
  00039	2b c1		 sub	 eax, ecx
; File C:\Program Files (x86)\Microsoft Visual Studio\2019\Community\VC\Tools\MSVC\14.28.29333\include\xmemory

; 810  :         _Deallocate<_New_alignof<_Ty>>(_Ptr, sizeof(_Ty) * _Count);

  0003b	83 e0 fc	 and	 eax, -4			; fffffffcH
  0003e	50		 push	 eax
  0003f	51		 push	 ecx
  00040	e8 00 00 00 00	 call	 ??$_Deallocate@$07$0A@@std@@YAXPAXI@Z ; std::_Deallocate<8,0>
; File C:\Program Files (x86)\Microsoft Visual Studio\2019\Community\VC\Tools\MSVC\14.28.29333\include\vector

; 1698 :             _Myfirst = pointer();

  00045	c7 47 10 00 00
	00 00		 mov	 DWORD PTR [edi+16], 0
; File C:\Program Files (x86)\Microsoft Visual Studio\2019\Community\VC\Tools\MSVC\14.28.29333\include\xmemory

; 810  :         _Deallocate<_New_alignof<_Ty>>(_Ptr, sizeof(_Ty) * _Count);

  0004c	83 c4 08	 add	 esp, 8
; File C:\Program Files (x86)\Microsoft Visual Studio\2019\Community\VC\Tools\MSVC\14.28.29333\include\vector

; 1699 :             _Mylast  = pointer();

  0004f	c7 47 14 00 00
	00 00		 mov	 DWORD PTR [edi+20], 0

; 1700 :             _Myend   = pointer();

  00056	c7 47 18 00 00
	00 00		 mov	 DWORD PTR [edi+24], 0
$LN27@CDynamicPo:

; 1694 :         if (_Myfirst) { // destroy and deallocate old array

  0005d	8b 4f 04	 mov	 ecx, DWORD PTR [edi+4]
  00060	85 c9		 test	 ecx, ecx
  00062	74 27		 je	 SHORT $LN34@CDynamicPo

; 1695 :             _Destroy(_Myfirst, _Mylast);
; 1696 :             _Getal().deallocate(_Myfirst, static_cast<size_type>(_Myend - _Myfirst));

  00064	8b 47 0c	 mov	 eax, DWORD PTR [edi+12]
  00067	2b c1		 sub	 eax, ecx
; File C:\Program Files (x86)\Microsoft Visual Studio\2019\Community\VC\Tools\MSVC\14.28.29333\include\xmemory

; 810  :         _Deallocate<_New_alignof<_Ty>>(_Ptr, sizeof(_Ty) * _Count);

  00069	83 e0 fc	 and	 eax, -4			; fffffffcH
  0006c	50		 push	 eax
  0006d	51		 push	 ecx
  0006e	e8 00 00 00 00	 call	 ??$_Deallocate@$07$0A@@std@@YAXPAXI@Z ; std::_Deallocate<8,0>
; File C:\Program Files (x86)\Microsoft Visual Studio\2019\Community\VC\Tools\MSVC\14.28.29333\include\vector

; 1698 :             _Myfirst = pointer();

  00073	c7 47 04 00 00
	00 00		 mov	 DWORD PTR [edi+4], 0
; File C:\Program Files (x86)\Microsoft Visual Studio\2019\Community\VC\Tools\MSVC\14.28.29333\include\xmemory

; 810  :         _Deallocate<_New_alignof<_Ty>>(_Ptr, sizeof(_Ty) * _Count);

  0007a	83 c4 08	 add	 esp, 8
; File C:\Program Files (x86)\Microsoft Visual Studio\2019\Community\VC\Tools\MSVC\14.28.29333\include\vector

; 1699 :             _Mylast  = pointer();

  0007d	c7 47 08 00 00
	00 00		 mov	 DWORD PTR [edi+8], 0

; 1700 :             _Myend   = pointer();

  00084	c7 47 0c 00 00
	00 00		 mov	 DWORD PTR [edi+12], 0
$LN34@CDynamicPo:
  0008b	5f		 pop	 edi
; File D:\Metin2 Server Files\mainline\SRC_2014\Metin2Client\eterLib\Pool.h

; 142  : 		}

  0008c	5e		 pop	 esi
  0008d	5b		 pop	 ebx
  0008e	c3		 ret	 0
??1?$CDynamicPoolEx@VCNullDecorator@NEffectUpdateDecorator@@@@UAE@XZ ENDP ; CDynamicPoolEx<NEffectUpdateDecorator::CNullDecorator>::~CDynamicPoolEx<NEffectUpdateDecorator::CNullDecorator>
_TEXT	ENDS
; Function compile flags: /Ogtp
;	COMDAT ??_G?$CDynamicPoolEx@VCTextureAnimationCWDecorator@NEffectUpdateDecorator@@@@UAEPAXI@Z
_TEXT	SEGMENT
___flags$ = 8						; size = 4
??_G?$CDynamicPoolEx@VCTextureAnimationCWDecorator@NEffectUpdateDecorator@@@@UAEPAXI@Z PROC ; CDynamicPoolEx<NEffectUpdateDecorator::CTextureAnimationCWDecorator>::`scalar deleting destructor', COMDAT
; _this$ = ecx
  00000	55		 push	 ebp
  00001	8b ec		 mov	 ebp, esp
  00003	56		 push	 esi
  00004	8b f1		 mov	 esi, ecx
  00006	e8 00 00 00 00	 call	 ??1?$CDynamicPoolEx@VCTextureAnimationCWDecorator@NEffectUpdateDecorator@@@@UAE@XZ ; CDynamicPoolEx<NEffectUpdateDecorator::CTextureAnimationCWDecorator>::~CDynamicPoolEx<NEffectUpdateDecorator::CTextureAnimationCWDecorator>
  0000b	f6 45 08 01	 test	 BYTE PTR ___flags$[ebp], 1
  0000f	74 0b		 je	 SHORT $LN4@scalar
  00011	6a 24		 push	 36			; 00000024H
  00013	56		 push	 esi
  00014	e8 00 00 00 00	 call	 ??3@YAXPAXI@Z		; operator delete
  00019	83 c4 08	 add	 esp, 8
$LN4@scalar:
  0001c	8b c6		 mov	 eax, esi
  0001e	5e		 pop	 esi
  0001f	5d		 pop	 ebp
  00020	c2 04 00	 ret	 4
??_G?$CDynamicPoolEx@VCTextureAnimationCWDecorator@NEffectUpdateDecorator@@@@UAEPAXI@Z ENDP ; CDynamicPoolEx<NEffectUpdateDecorator::CTextureAnimationCWDecorator>::`scalar deleting destructor'
_TEXT	ENDS
; Function compile flags: /Ogtp
; File D:\Metin2 Server Files\mainline\SRC_2014\Metin2Client\eterLib\Pool.h
;	COMDAT ?Delete@?$CDynamicPoolEx@VCTextureAnimationCWDecorator@NEffectUpdateDecorator@@@@KAXPAVCTextureAnimationCWDecorator@NEffectUpdateDecorator@@@Z
_TEXT	SEGMENT
_pkData$ = 8						; size = 4
?Delete@?$CDynamicPoolEx@VCTextureAnimationCWDecorator@NEffectUpdateDecorator@@@@KAXPAVCTextureAnimationCWDecorator@NEffectUpdateDecorator@@@Z PROC ; CDynamicPoolEx<NEffectUpdateDecorator::CTextureAnimationCWDecorator>::Delete, COMDAT

; 224  : 			::operator delete(pkData);

  00000	e9 00 00 00 00	 jmp	 ??3@YAXPAX@Z		; operator delete
?Delete@?$CDynamicPoolEx@VCTextureAnimationCWDecorator@NEffectUpdateDecorator@@@@KAXPAVCTextureAnimationCWDecorator@NEffectUpdateDecorator@@@Z ENDP ; CDynamicPoolEx<NEffectUpdateDecorator::CTextureAnimationCWDecorator>::Delete
_TEXT	ENDS
; Function compile flags: /Ogtp
; File D:\Metin2 Server Files\mainline\SRC_2014\Metin2Client\eterLib\Pool.h
; File C:\Program Files (x86)\Microsoft Visual Studio\2019\Community\VC\Tools\MSVC\14.28.29333\include\vector
; File C:\Program Files (x86)\Microsoft Visual Studio\2019\Community\VC\Tools\MSVC\14.28.29333\include\algorithm
; File D:\Metin2 Server Files\mainline\SRC_2014\Metin2Client\eterLib\Pool.h
; File C:\Program Files (x86)\Microsoft Visual Studio\2019\Community\VC\Tools\MSVC\14.28.29333\include\algorithm
; File D:\Metin2 Server Files\mainline\SRC_2014\Metin2Client\eterLib\Pool.h
; File C:\Program Files (x86)\Microsoft Visual Studio\2019\Community\VC\Tools\MSVC\14.28.29333\include\algorithm
; File D:\Metin2 Server Files\mainline\SRC_2014\Metin2Client\eterLib\Pool.h
; File C:\Program Files (x86)\Microsoft Visual Studio\2019\Community\VC\Tools\MSVC\14.28.29333\include\vector
; File C:\Program Files (x86)\Microsoft Visual Studio\2019\Community\VC\Tools\MSVC\14.28.29333\include\xmemory
; File C:\Program Files (x86)\Microsoft Visual Studio\2019\Community\VC\Tools\MSVC\14.28.29333\include\vector
; File C:\Program Files (x86)\Microsoft Visual Studio\2019\Community\VC\Tools\MSVC\14.28.29333\include\xmemory
; File C:\Program Files (x86)\Microsoft Visual Studio\2019\Community\VC\Tools\MSVC\14.28.29333\include\vector
; File C:\Program Files (x86)\Microsoft Visual Studio\2019\Community\VC\Tools\MSVC\14.28.29333\include\xmemory
; File C:\Program Files (x86)\Microsoft Visual Studio\2019\Community\VC\Tools\MSVC\14.28.29333\include\vector
; File C:\Program Files (x86)\Microsoft Visual Studio\2019\Community\VC\Tools\MSVC\14.28.29333\include\xmemory
; File C:\Program Files (x86)\Microsoft Visual Studio\2019\Community\VC\Tools\MSVC\14.28.29333\include\vector
; File D:\Metin2 Server Files\mainline\SRC_2014\Metin2Client\eterLib\Pool.h
;	COMDAT ??1?$CDynamicPoolEx@VCTextureAnimationCWDecorator@NEffectUpdateDecorator@@@@UAE@XZ
_TEXT	SEGMENT
??1?$CDynamicPoolEx@VCTextureAnimationCWDecorator@NEffectUpdateDecorator@@@@UAE@XZ PROC ; CDynamicPoolEx<NEffectUpdateDecorator::CTextureAnimationCWDecorator>::~CDynamicPoolEx<NEffectUpdateDecorator::CTextureAnimationCWDecorator>, COMDAT
; _this$ = ecx

; 132  : 		{

  00000	53		 push	 ebx
  00001	56		 push	 esi
  00002	57		 push	 edi
  00003	8b f9		 mov	 edi, ecx
  00005	c7 07 00 00 00
	00		 mov	 DWORD PTR [edi], OFFSET ??_7?$CDynamicPoolEx@VCTextureAnimationCWDecorator@NEffectUpdateDecorator@@@@6B@
; File C:\Program Files (x86)\Microsoft Visual Studio\2019\Community\VC\Tools\MSVC\14.28.29333\include\vector

; 42   :     _Vector_const_iterator(_Tptr _Parg, const _Container_base* _Pvector) noexcept : _Ptr(_Parg) {

  0000b	8b 5f 08	 mov	 ebx, DWORD PTR [edi+8]
  0000e	8b 77 04	 mov	 esi, DWORD PTR [edi+4]
; File C:\Program Files (x86)\Microsoft Visual Studio\2019\Community\VC\Tools\MSVC\14.28.29333\include\algorithm

; 307  :     for (; _UFirst != _ULast; ++_UFirst) {

  00011	3b f3		 cmp	 esi, ebx
  00013	74 14		 je	 SHORT $LN19@CDynamicPo
$LL20@CDynamicPo:
; File D:\Metin2 Server Files\mainline\SRC_2014\Metin2Client\eterLib\Pool.h

; 224  : 			::operator delete(pkData);

  00015	ff 36		 push	 DWORD PTR [esi]
  00017	e8 00 00 00 00	 call	 ??3@YAXPAX@Z		; operator delete
; File C:\Program Files (x86)\Microsoft Visual Studio\2019\Community\VC\Tools\MSVC\14.28.29333\include\algorithm

; 307  :     for (; _UFirst != _ULast; ++_UFirst) {

  0001c	83 c6 04	 add	 esi, 4
; File D:\Metin2 Server Files\mainline\SRC_2014\Metin2Client\eterLib\Pool.h

; 224  : 			::operator delete(pkData);

  0001f	83 c4 04	 add	 esp, 4
; File C:\Program Files (x86)\Microsoft Visual Studio\2019\Community\VC\Tools\MSVC\14.28.29333\include\algorithm

; 307  :     for (; _UFirst != _ULast; ++_UFirst) {

  00022	3b f3		 cmp	 esi, ebx
  00024	75 ef		 jne	 SHORT $LL20@CDynamicPo
  00026	8b 77 04	 mov	 esi, DWORD PTR [edi+4]
$LN19@CDynamicPo:
; File D:\Metin2 Server Files\mainline\SRC_2014\Metin2Client\eterLib\Pool.h

; 162  : 			m_kVct_pkFree.clear();

  00029	8b 4f 10	 mov	 ecx, DWORD PTR [edi+16]
  0002c	89 77 08	 mov	 DWORD PTR [edi+8], esi
  0002f	89 4f 14	 mov	 DWORD PTR [edi+20], ecx
; File C:\Program Files (x86)\Microsoft Visual Studio\2019\Community\VC\Tools\MSVC\14.28.29333\include\vector

; 1694 :         if (_Myfirst) { // destroy and deallocate old array

  00032	85 c9		 test	 ecx, ecx
  00034	74 27		 je	 SHORT $LN27@CDynamicPo

; 1695 :             _Destroy(_Myfirst, _Mylast);
; 1696 :             _Getal().deallocate(_Myfirst, static_cast<size_type>(_Myend - _Myfirst));

  00036	8b 47 18	 mov	 eax, DWORD PTR [edi+24]
  00039	2b c1		 sub	 eax, ecx
; File C:\Program Files (x86)\Microsoft Visual Studio\2019\Community\VC\Tools\MSVC\14.28.29333\include\xmemory

; 810  :         _Deallocate<_New_alignof<_Ty>>(_Ptr, sizeof(_Ty) * _Count);

  0003b	83 e0 fc	 and	 eax, -4			; fffffffcH
  0003e	50		 push	 eax
  0003f	51		 push	 ecx
  00040	e8 00 00 00 00	 call	 ??$_Deallocate@$07$0A@@std@@YAXPAXI@Z ; std::_Deallocate<8,0>
; File C:\Program Files (x86)\Microsoft Visual Studio\2019\Community\VC\Tools\MSVC\14.28.29333\include\vector

; 1698 :             _Myfirst = pointer();

  00045	c7 47 10 00 00
	00 00		 mov	 DWORD PTR [edi+16], 0
; File C:\Program Files (x86)\Microsoft Visual Studio\2019\Community\VC\Tools\MSVC\14.28.29333\include\xmemory

; 810  :         _Deallocate<_New_alignof<_Ty>>(_Ptr, sizeof(_Ty) * _Count);

  0004c	83 c4 08	 add	 esp, 8
; File C:\Program Files (x86)\Microsoft Visual Studio\2019\Community\VC\Tools\MSVC\14.28.29333\include\vector

; 1699 :             _Mylast  = pointer();

  0004f	c7 47 14 00 00
	00 00		 mov	 DWORD PTR [edi+20], 0

; 1700 :             _Myend   = pointer();

  00056	c7 47 18 00 00
	00 00		 mov	 DWORD PTR [edi+24], 0
$LN27@CDynamicPo:

; 1694 :         if (_Myfirst) { // destroy and deallocate old array

  0005d	8b 4f 04	 mov	 ecx, DWORD PTR [edi+4]
  00060	85 c9		 test	 ecx, ecx
  00062	74 27		 je	 SHORT $LN34@CDynamicPo

; 1695 :             _Destroy(_Myfirst, _Mylast);
; 1696 :             _Getal().deallocate(_Myfirst, static_cast<size_type>(_Myend - _Myfirst));

  00064	8b 47 0c	 mov	 eax, DWORD PTR [edi+12]
  00067	2b c1		 sub	 eax, ecx
; File C:\Program Files (x86)\Microsoft Visual Studio\2019\Community\VC\Tools\MSVC\14.28.29333\include\xmemory

; 810  :         _Deallocate<_New_alignof<_Ty>>(_Ptr, sizeof(_Ty) * _Count);

  00069	83 e0 fc	 and	 eax, -4			; fffffffcH
  0006c	50		 push	 eax
  0006d	51		 push	 ecx
  0006e	e8 00 00 00 00	 call	 ??$_Deallocate@$07$0A@@std@@YAXPAXI@Z ; std::_Deallocate<8,0>
; File C:\Program Files (x86)\Microsoft Visual Studio\2019\Community\VC\Tools\MSVC\14.28.29333\include\vector

; 1698 :             _Myfirst = pointer();

  00073	c7 47 04 00 00
	00 00		 mov	 DWORD PTR [edi+4], 0
; File C:\Program Files (x86)\Microsoft Visual Studio\2019\Community\VC\Tools\MSVC\14.28.29333\include\xmemory

; 810  :         _Deallocate<_New_alignof<_Ty>>(_Ptr, sizeof(_Ty) * _Count);

  0007a	83 c4 08	 add	 esp, 8
; File C:\Program Files (x86)\Microsoft Visual Studio\2019\Community\VC\Tools\MSVC\14.28.29333\include\vector

; 1699 :             _Mylast  = pointer();

  0007d	c7 47 08 00 00
	00 00		 mov	 DWORD PTR [edi+8], 0

; 1700 :             _Myend   = pointer();

  00084	c7 47 0c 00 00
	00 00		 mov	 DWORD PTR [edi+12], 0
$LN34@CDynamicPo:
  0008b	5f		 pop	 edi
; File D:\Metin2 Server Files\mainline\SRC_2014\Metin2Client\eterLib\Pool.h

; 142  : 		}

  0008c	5e		 pop	 esi
  0008d	5b		 pop	 ebx
  0008e	c3		 ret	 0
??1?$CDynamicPoolEx@VCTextureAnimationCWDecorator@NEffectUpdateDecorator@@@@UAE@XZ ENDP ; CDynamicPoolEx<NEffectUpdateDecorator::CTextureAnimationCWDecorator>::~CDynamicPoolEx<NEffectUpdateDecorator::CTextureAnimationCWDecorator>
_TEXT	ENDS
; Function compile flags: /Ogtp
;	COMDAT ??_G?$CDynamicPoolEx@VCTextureAnimationCCWDecorator@NEffectUpdateDecorator@@@@UAEPAXI@Z
_TEXT	SEGMENT
___flags$ = 8						; size = 4
??_G?$CDynamicPoolEx@VCTextureAnimationCCWDecorator@NEffectUpdateDecorator@@@@UAEPAXI@Z PROC ; CDynamicPoolEx<NEffectUpdateDecorator::CTextureAnimationCCWDecorator>::`scalar deleting destructor', COMDAT
; _this$ = ecx
  00000	55		 push	 ebp
  00001	8b ec		 mov	 ebp, esp
  00003	56		 push	 esi
  00004	8b f1		 mov	 esi, ecx
  00006	e8 00 00 00 00	 call	 ??1?$CDynamicPoolEx@VCTextureAnimationCCWDecorator@NEffectUpdateDecorator@@@@UAE@XZ ; CDynamicPoolEx<NEffectUpdateDecorator::CTextureAnimationCCWDecorator>::~CDynamicPoolEx<NEffectUpdateDecorator::CTextureAnimationCCWDecorator>
  0000b	f6 45 08 01	 test	 BYTE PTR ___flags$[ebp], 1
  0000f	74 0b		 je	 SHORT $LN4@scalar
  00011	6a 24		 push	 36			; 00000024H
  00013	56		 push	 esi
  00014	e8 00 00 00 00	 call	 ??3@YAXPAXI@Z		; operator delete
  00019	83 c4 08	 add	 esp, 8
$LN4@scalar:
  0001c	8b c6		 mov	 eax, esi
  0001e	5e		 pop	 esi
  0001f	5d		 pop	 ebp
  00020	c2 04 00	 ret	 4
??_G?$CDynamicPoolEx@VCTextureAnimationCCWDecorator@NEffectUpdateDecorator@@@@UAEPAXI@Z ENDP ; CDynamicPoolEx<NEffectUpdateDecorator::CTextureAnimationCCWDecorator>::`scalar deleting destructor'
_TEXT	ENDS
; Function compile flags: /Ogtp
; File D:\Metin2 Server Files\mainline\SRC_2014\Metin2Client\eterLib\Pool.h
;	COMDAT ?Delete@?$CDynamicPoolEx@VCTextureAnimationCCWDecorator@NEffectUpdateDecorator@@@@KAXPAVCTextureAnimationCCWDecorator@NEffectUpdateDecorator@@@Z
_TEXT	SEGMENT
_pkData$ = 8						; size = 4
?Delete@?$CDynamicPoolEx@VCTextureAnimationCCWDecorator@NEffectUpdateDecorator@@@@KAXPAVCTextureAnimationCCWDecorator@NEffectUpdateDecorator@@@Z PROC ; CDynamicPoolEx<NEffectUpdateDecorator::CTextureAnimationCCWDecorator>::Delete, COMDAT

; 224  : 			::operator delete(pkData);

  00000	e9 00 00 00 00	 jmp	 ??3@YAXPAX@Z		; operator delete
?Delete@?$CDynamicPoolEx@VCTextureAnimationCCWDecorator@NEffectUpdateDecorator@@@@KAXPAVCTextureAnimationCCWDecorator@NEffectUpdateDecorator@@@Z ENDP ; CDynamicPoolEx<NEffectUpdateDecorator::CTextureAnimationCCWDecorator>::Delete
_TEXT	ENDS
; Function compile flags: /Ogtp
; File D:\Metin2 Server Files\mainline\SRC_2014\Metin2Client\eterLib\Pool.h
; File C:\Program Files (x86)\Microsoft Visual Studio\2019\Community\VC\Tools\MSVC\14.28.29333\include\vector
; File C:\Program Files (x86)\Microsoft Visual Studio\2019\Community\VC\Tools\MSVC\14.28.29333\include\algorithm
; File D:\Metin2 Server Files\mainline\SRC_2014\Metin2Client\eterLib\Pool.h
; File C:\Program Files (x86)\Microsoft Visual Studio\2019\Community\VC\Tools\MSVC\14.28.29333\include\algorithm
; File D:\Metin2 Server Files\mainline\SRC_2014\Metin2Client\eterLib\Pool.h
; File C:\Program Files (x86)\Microsoft Visual Studio\2019\Community\VC\Tools\MSVC\14.28.29333\include\algorithm
; File D:\Metin2 Server Files\mainline\SRC_2014\Metin2Client\eterLib\Pool.h
; File C:\Program Files (x86)\Microsoft Visual Studio\2019\Community\VC\Tools\MSVC\14.28.29333\include\vector
; File C:\Program Files (x86)\Microsoft Visual Studio\2019\Community\VC\Tools\MSVC\14.28.29333\include\xmemory
; File C:\Program Files (x86)\Microsoft Visual Studio\2019\Community\VC\Tools\MSVC\14.28.29333\include\vector
; File C:\Program Files (x86)\Microsoft Visual Studio\2019\Community\VC\Tools\MSVC\14.28.29333\include\xmemory
; File C:\Program Files (x86)\Microsoft Visual Studio\2019\Community\VC\Tools\MSVC\14.28.29333\include\vector
; File C:\Program Files (x86)\Microsoft Visual Studio\2019\Community\VC\Tools\MSVC\14.28.29333\include\xmemory
; File C:\Program Files (x86)\Microsoft Visual Studio\2019\Community\VC\Tools\MSVC\14.28.29333\include\vector
; File C:\Program Files (x86)\Microsoft Visual Studio\2019\Community\VC\Tools\MSVC\14.28.29333\include\xmemory
; File C:\Program Files (x86)\Microsoft Visual Studio\2019\Community\VC\Tools\MSVC\14.28.29333\include\vector
; File D:\Metin2 Server Files\mainline\SRC_2014\Metin2Client\eterLib\Pool.h
;	COMDAT ??1?$CDynamicPoolEx@VCTextureAnimationCCWDecorator@NEffectUpdateDecorator@@@@UAE@XZ
_TEXT	SEGMENT
??1?$CDynamicPoolEx@VCTextureAnimationCCWDecorator@NEffectUpdateDecorator@@@@UAE@XZ PROC ; CDynamicPoolEx<NEffectUpdateDecorator::CTextureAnimationCCWDecorator>::~CDynamicPoolEx<NEffectUpdateDecorator::CTextureAnimationCCWDecorator>, COMDAT
; _this$ = ecx

; 132  : 		{

  00000	53		 push	 ebx
  00001	56		 push	 esi
  00002	57		 push	 edi
  00003	8b f9		 mov	 edi, ecx
  00005	c7 07 00 00 00
	00		 mov	 DWORD PTR [edi], OFFSET ??_7?$CDynamicPoolEx@VCTextureAnimationCCWDecorator@NEffectUpdateDecorator@@@@6B@
; File C:\Program Files (x86)\Microsoft Visual Studio\2019\Community\VC\Tools\MSVC\14.28.29333\include\vector

; 42   :     _Vector_const_iterator(_Tptr _Parg, const _Container_base* _Pvector) noexcept : _Ptr(_Parg) {

  0000b	8b 5f 08	 mov	 ebx, DWORD PTR [edi+8]
  0000e	8b 77 04	 mov	 esi, DWORD PTR [edi+4]
; File C:\Program Files (x86)\Microsoft Visual Studio\2019\Community\VC\Tools\MSVC\14.28.29333\include\algorithm

; 307  :     for (; _UFirst != _ULast; ++_UFirst) {

  00011	3b f3		 cmp	 esi, ebx
  00013	74 14		 je	 SHORT $LN19@CDynamicPo
$LL20@CDynamicPo:
; File D:\Metin2 Server Files\mainline\SRC_2014\Metin2Client\eterLib\Pool.h

; 224  : 			::operator delete(pkData);

  00015	ff 36		 push	 DWORD PTR [esi]
  00017	e8 00 00 00 00	 call	 ??3@YAXPAX@Z		; operator delete
; File C:\Program Files (x86)\Microsoft Visual Studio\2019\Community\VC\Tools\MSVC\14.28.29333\include\algorithm

; 307  :     for (; _UFirst != _ULast; ++_UFirst) {

  0001c	83 c6 04	 add	 esi, 4
; File D:\Metin2 Server Files\mainline\SRC_2014\Metin2Client\eterLib\Pool.h

; 224  : 			::operator delete(pkData);

  0001f	83 c4 04	 add	 esp, 4
; File C:\Program Files (x86)\Microsoft Visual Studio\2019\Community\VC\Tools\MSVC\14.28.29333\include\algorithm

; 307  :     for (; _UFirst != _ULast; ++_UFirst) {

  00022	3b f3		 cmp	 esi, ebx
  00024	75 ef		 jne	 SHORT $LL20@CDynamicPo
  00026	8b 77 04	 mov	 esi, DWORD PTR [edi+4]
$LN19@CDynamicPo:
; File D:\Metin2 Server Files\mainline\SRC_2014\Metin2Client\eterLib\Pool.h

; 162  : 			m_kVct_pkFree.clear();

  00029	8b 4f 10	 mov	 ecx, DWORD PTR [edi+16]
  0002c	89 77 08	 mov	 DWORD PTR [edi+8], esi
  0002f	89 4f 14	 mov	 DWORD PTR [edi+20], ecx
; File C:\Program Files (x86)\Microsoft Visual Studio\2019\Community\VC\Tools\MSVC\14.28.29333\include\vector

; 1694 :         if (_Myfirst) { // destroy and deallocate old array

  00032	85 c9		 test	 ecx, ecx
  00034	74 27		 je	 SHORT $LN27@CDynamicPo

; 1695 :             _Destroy(_Myfirst, _Mylast);
; 1696 :             _Getal().deallocate(_Myfirst, static_cast<size_type>(_Myend - _Myfirst));

  00036	8b 47 18	 mov	 eax, DWORD PTR [edi+24]
  00039	2b c1		 sub	 eax, ecx
; File C:\Program Files (x86)\Microsoft Visual Studio\2019\Community\VC\Tools\MSVC\14.28.29333\include\xmemory

; 810  :         _Deallocate<_New_alignof<_Ty>>(_Ptr, sizeof(_Ty) * _Count);

  0003b	83 e0 fc	 and	 eax, -4			; fffffffcH
  0003e	50		 push	 eax
  0003f	51		 push	 ecx
  00040	e8 00 00 00 00	 call	 ??$_Deallocate@$07$0A@@std@@YAXPAXI@Z ; std::_Deallocate<8,0>
; File C:\Program Files (x86)\Microsoft Visual Studio\2019\Community\VC\Tools\MSVC\14.28.29333\include\vector

; 1698 :             _Myfirst = pointer();

  00045	c7 47 10 00 00
	00 00		 mov	 DWORD PTR [edi+16], 0
; File C:\Program Files (x86)\Microsoft Visual Studio\2019\Community\VC\Tools\MSVC\14.28.29333\include\xmemory

; 810  :         _Deallocate<_New_alignof<_Ty>>(_Ptr, sizeof(_Ty) * _Count);

  0004c	83 c4 08	 add	 esp, 8
; File C:\Program Files (x86)\Microsoft Visual Studio\2019\Community\VC\Tools\MSVC\14.28.29333\include\vector

; 1699 :             _Mylast  = pointer();

  0004f	c7 47 14 00 00
	00 00		 mov	 DWORD PTR [edi+20], 0

; 1700 :             _Myend   = pointer();

  00056	c7 47 18 00 00
	00 00		 mov	 DWORD PTR [edi+24], 0
$LN27@CDynamicPo:

; 1694 :         if (_Myfirst) { // destroy and deallocate old array

  0005d	8b 4f 04	 mov	 ecx, DWORD PTR [edi+4]
  00060	85 c9		 test	 ecx, ecx
  00062	74 27		 je	 SHORT $LN34@CDynamicPo

; 1695 :             _Destroy(_Myfirst, _Mylast);
; 1696 :             _Getal().deallocate(_Myfirst, static_cast<size_type>(_Myend - _Myfirst));

  00064	8b 47 0c	 mov	 eax, DWORD PTR [edi+12]
  00067	2b c1		 sub	 eax, ecx
; File C:\Program Files (x86)\Microsoft Visual Studio\2019\Community\VC\Tools\MSVC\14.28.29333\include\xmemory

; 810  :         _Deallocate<_New_alignof<_Ty>>(_Ptr, sizeof(_Ty) * _Count);

  00069	83 e0 fc	 and	 eax, -4			; fffffffcH
  0006c	50		 push	 eax
  0006d	51		 push	 ecx
  0006e	e8 00 00 00 00	 call	 ??$_Deallocate@$07$0A@@std@@YAXPAXI@Z ; std::_Deallocate<8,0>
; File C:\Program Files (x86)\Microsoft Visual Studio\2019\Community\VC\Tools\MSVC\14.28.29333\include\vector

; 1698 :             _Myfirst = pointer();

  00073	c7 47 04 00 00
	00 00		 mov	 DWORD PTR [edi+4], 0
; File C:\Program Files (x86)\Microsoft Visual Studio\2019\Community\VC\Tools\MSVC\14.28.29333\include\xmemory

; 810  :         _Deallocate<_New_alignof<_Ty>>(_Ptr, sizeof(_Ty) * _Count);

  0007a	83 c4 08	 add	 esp, 8
; File C:\Program Files (x86)\Microsoft Visual Studio\2019\Community\VC\Tools\MSVC\14.28.29333\include\vector

; 1699 :             _Mylast  = pointer();

  0007d	c7 47 08 00 00
	00 00		 mov	 DWORD PTR [edi+8], 0

; 1700 :             _Myend   = pointer();

  00084	c7 47 0c 00 00
	00 00		 mov	 DWORD PTR [edi+12], 0
$LN34@CDynamicPo:
  0008b	5f		 pop	 edi
; File D:\Metin2 Server Files\mainline\SRC_2014\Metin2Client\eterLib\Pool.h

; 142  : 		}

  0008c	5e		 pop	 esi
  0008d	5b		 pop	 ebx
  0008e	c3		 ret	 0
??1?$CDynamicPoolEx@VCTextureAnimationCCWDecorator@NEffectUpdateDecorator@@@@UAE@XZ ENDP ; CDynamicPoolEx<NEffectUpdateDecorator::CTextureAnimationCCWDecorator>::~CDynamicPoolEx<NEffectUpdateDecorator::CTextureAnimationCCWDecorator>
_TEXT	ENDS
; Function compile flags: /Ogtp
;	COMDAT ??_G?$CDynamicPoolEx@VCTextureAnimationRandomDecorator@NEffectUpdateDecorator@@@@UAEPAXI@Z
_TEXT	SEGMENT
___flags$ = 8						; size = 4
??_G?$CDynamicPoolEx@VCTextureAnimationRandomDecorator@NEffectUpdateDecorator@@@@UAEPAXI@Z PROC ; CDynamicPoolEx<NEffectUpdateDecorator::CTextureAnimationRandomDecorator>::`scalar deleting destructor', COMDAT
; _this$ = ecx
  00000	55		 push	 ebp
  00001	8b ec		 mov	 ebp, esp
  00003	56		 push	 esi
  00004	8b f1		 mov	 esi, ecx
  00006	e8 00 00 00 00	 call	 ??1?$CDynamicPoolEx@VCTextureAnimationRandomDecorator@NEffectUpdateDecorator@@@@UAE@XZ ; CDynamicPoolEx<NEffectUpdateDecorator::CTextureAnimationRandomDecorator>::~CDynamicPoolEx<NEffectUpdateDecorator::CTextureAnimationRandomDecorator>
  0000b	f6 45 08 01	 test	 BYTE PTR ___flags$[ebp], 1
  0000f	74 0b		 je	 SHORT $LN4@scalar
  00011	6a 24		 push	 36			; 00000024H
  00013	56		 push	 esi
  00014	e8 00 00 00 00	 call	 ??3@YAXPAXI@Z		; operator delete
  00019	83 c4 08	 add	 esp, 8
$LN4@scalar:
  0001c	8b c6		 mov	 eax, esi
  0001e	5e		 pop	 esi
  0001f	5d		 pop	 ebp
  00020	c2 04 00	 ret	 4
??_G?$CDynamicPoolEx@VCTextureAnimationRandomDecorator@NEffectUpdateDecorator@@@@UAEPAXI@Z ENDP ; CDynamicPoolEx<NEffectUpdateDecorator::CTextureAnimationRandomDecorator>::`scalar deleting destructor'
_TEXT	ENDS
; Function compile flags: /Ogtp
; File D:\Metin2 Server Files\mainline\SRC_2014\Metin2Client\eterLib\Pool.h
;	COMDAT ?Delete@?$CDynamicPoolEx@VCTextureAnimationRandomDecorator@NEffectUpdateDecorator@@@@KAXPAVCTextureAnimationRandomDecorator@NEffectUpdateDecorator@@@Z
_TEXT	SEGMENT
_pkData$ = 8						; size = 4
?Delete@?$CDynamicPoolEx@VCTextureAnimationRandomDecorator@NEffectUpdateDecorator@@@@KAXPAVCTextureAnimationRandomDecorator@NEffectUpdateDecorator@@@Z PROC ; CDynamicPoolEx<NEffectUpdateDecorator::CTextureAnimationRandomDecorator>::Delete, COMDAT

; 224  : 			::operator delete(pkData);

  00000	e9 00 00 00 00	 jmp	 ??3@YAXPAX@Z		; operator delete
?Delete@?$CDynamicPoolEx@VCTextureAnimationRandomDecorator@NEffectUpdateDecorator@@@@KAXPAVCTextureAnimationRandomDecorator@NEffectUpdateDecorator@@@Z ENDP ; CDynamicPoolEx<NEffectUpdateDecorator::CTextureAnimationRandomDecorator>::Delete
_TEXT	ENDS
; Function compile flags: /Ogtp
; File D:\Metin2 Server Files\mainline\SRC_2014\Metin2Client\eterLib\Pool.h
; File C:\Program Files (x86)\Microsoft Visual Studio\2019\Community\VC\Tools\MSVC\14.28.29333\include\vector
; File C:\Program Files (x86)\Microsoft Visual Studio\2019\Community\VC\Tools\MSVC\14.28.29333\include\algorithm
; File D:\Metin2 Server Files\mainline\SRC_2014\Metin2Client\eterLib\Pool.h
; File C:\Program Files (x86)\Microsoft Visual Studio\2019\Community\VC\Tools\MSVC\14.28.29333\include\algorithm
; File D:\Metin2 Server Files\mainline\SRC_2014\Metin2Client\eterLib\Pool.h
; File C:\Program Files (x86)\Microsoft Visual Studio\2019\Community\VC\Tools\MSVC\14.28.29333\include\algorithm
; File D:\Metin2 Server Files\mainline\SRC_2014\Metin2Client\eterLib\Pool.h
; File C:\Program Files (x86)\Microsoft Visual Studio\2019\Community\VC\Tools\MSVC\14.28.29333\include\vector
; File C:\Program Files (x86)\Microsoft Visual Studio\2019\Community\VC\Tools\MSVC\14.28.29333\include\xmemory
; File C:\Program Files (x86)\Microsoft Visual Studio\2019\Community\VC\Tools\MSVC\14.28.29333\include\vector
; File C:\Program Files (x86)\Microsoft Visual Studio\2019\Community\VC\Tools\MSVC\14.28.29333\include\xmemory
; File C:\Program Files (x86)\Microsoft Visual Studio\2019\Community\VC\Tools\MSVC\14.28.29333\include\vector
; File C:\Program Files (x86)\Microsoft Visual Studio\2019\Community\VC\Tools\MSVC\14.28.29333\include\xmemory
; File C:\Program Files (x86)\Microsoft Visual Studio\2019\Community\VC\Tools\MSVC\14.28.29333\include\vector
; File C:\Program Files (x86)\Microsoft Visual Studio\2019\Community\VC\Tools\MSVC\14.28.29333\include\xmemory
; File C:\Program Files (x86)\Microsoft Visual Studio\2019\Community\VC\Tools\MSVC\14.28.29333\include\vector
; File D:\Metin2 Server Files\mainline\SRC_2014\Metin2Client\eterLib\Pool.h
;	COMDAT ??1?$CDynamicPoolEx@VCTextureAnimationRandomDecorator@NEffectUpdateDecorator@@@@UAE@XZ
_TEXT	SEGMENT
??1?$CDynamicPoolEx@VCTextureAnimationRandomDecorator@NEffectUpdateDecorator@@@@UAE@XZ PROC ; CDynamicPoolEx<NEffectUpdateDecorator::CTextureAnimationRandomDecorator>::~CDynamicPoolEx<NEffectUpdateDecorator::CTextureAnimationRandomDecorator>, COMDAT
; _this$ = ecx

; 132  : 		{

  00000	53		 push	 ebx
  00001	56		 push	 esi
  00002	57		 push	 edi
  00003	8b f9		 mov	 edi, ecx
  00005	c7 07 00 00 00
	00		 mov	 DWORD PTR [edi], OFFSET ??_7?$CDynamicPoolEx@VCTextureAnimationRandomDecorator@NEffectUpdateDecorator@@@@6B@
; File C:\Program Files (x86)\Microsoft Visual Studio\2019\Community\VC\Tools\MSVC\14.28.29333\include\vector

; 42   :     _Vector_const_iterator(_Tptr _Parg, const _Container_base* _Pvector) noexcept : _Ptr(_Parg) {

  0000b	8b 5f 08	 mov	 ebx, DWORD PTR [edi+8]
  0000e	8b 77 04	 mov	 esi, DWORD PTR [edi+4]
; File C:\Program Files (x86)\Microsoft Visual Studio\2019\Community\VC\Tools\MSVC\14.28.29333\include\algorithm

; 307  :     for (; _UFirst != _ULast; ++_UFirst) {

  00011	3b f3		 cmp	 esi, ebx
  00013	74 14		 je	 SHORT $LN19@CDynamicPo
$LL20@CDynamicPo:
; File D:\Metin2 Server Files\mainline\SRC_2014\Metin2Client\eterLib\Pool.h

; 224  : 			::operator delete(pkData);

  00015	ff 36		 push	 DWORD PTR [esi]
  00017	e8 00 00 00 00	 call	 ??3@YAXPAX@Z		; operator delete
; File C:\Program Files (x86)\Microsoft Visual Studio\2019\Community\VC\Tools\MSVC\14.28.29333\include\algorithm

; 307  :     for (; _UFirst != _ULast; ++_UFirst) {

  0001c	83 c6 04	 add	 esi, 4
; File D:\Metin2 Server Files\mainline\SRC_2014\Metin2Client\eterLib\Pool.h

; 224  : 			::operator delete(pkData);

  0001f	83 c4 04	 add	 esp, 4
; File C:\Program Files (x86)\Microsoft Visual Studio\2019\Community\VC\Tools\MSVC\14.28.29333\include\algorithm

; 307  :     for (; _UFirst != _ULast; ++_UFirst) {

  00022	3b f3		 cmp	 esi, ebx
  00024	75 ef		 jne	 SHORT $LL20@CDynamicPo
  00026	8b 77 04	 mov	 esi, DWORD PTR [edi+4]
$LN19@CDynamicPo:
; File D:\Metin2 Server Files\mainline\SRC_2014\Metin2Client\eterLib\Pool.h

; 162  : 			m_kVct_pkFree.clear();

  00029	8b 4f 10	 mov	 ecx, DWORD PTR [edi+16]
  0002c	89 77 08	 mov	 DWORD PTR [edi+8], esi
  0002f	89 4f 14	 mov	 DWORD PTR [edi+20], ecx
; File C:\Program Files (x86)\Microsoft Visual Studio\2019\Community\VC\Tools\MSVC\14.28.29333\include\vector

; 1694 :         if (_Myfirst) { // destroy and deallocate old array

  00032	85 c9		 test	 ecx, ecx
  00034	74 27		 je	 SHORT $LN27@CDynamicPo

; 1695 :             _Destroy(_Myfirst, _Mylast);
; 1696 :             _Getal().deallocate(_Myfirst, static_cast<size_type>(_Myend - _Myfirst));

  00036	8b 47 18	 mov	 eax, DWORD PTR [edi+24]
  00039	2b c1		 sub	 eax, ecx
; File C:\Program Files (x86)\Microsoft Visual Studio\2019\Community\VC\Tools\MSVC\14.28.29333\include\xmemory

; 810  :         _Deallocate<_New_alignof<_Ty>>(_Ptr, sizeof(_Ty) * _Count);

  0003b	83 e0 fc	 and	 eax, -4			; fffffffcH
  0003e	50		 push	 eax
  0003f	51		 push	 ecx
  00040	e8 00 00 00 00	 call	 ??$_Deallocate@$07$0A@@std@@YAXPAXI@Z ; std::_Deallocate<8,0>
; File C:\Program Files (x86)\Microsoft Visual Studio\2019\Community\VC\Tools\MSVC\14.28.29333\include\vector

; 1698 :             _Myfirst = pointer();

  00045	c7 47 10 00 00
	00 00		 mov	 DWORD PTR [edi+16], 0
; File C:\Program Files (x86)\Microsoft Visual Studio\2019\Community\VC\Tools\MSVC\14.28.29333\include\xmemory

; 810  :         _Deallocate<_New_alignof<_Ty>>(_Ptr, sizeof(_Ty) * _Count);

  0004c	83 c4 08	 add	 esp, 8
; File C:\Program Files (x86)\Microsoft Visual Studio\2019\Community\VC\Tools\MSVC\14.28.29333\include\vector

; 1699 :             _Mylast  = pointer();

  0004f	c7 47 14 00 00
	00 00		 mov	 DWORD PTR [edi+20], 0

; 1700 :             _Myend   = pointer();

  00056	c7 47 18 00 00
	00 00		 mov	 DWORD PTR [edi+24], 0
$LN27@CDynamicPo:

; 1694 :         if (_Myfirst) { // destroy and deallocate old array

  0005d	8b 4f 04	 mov	 ecx, DWORD PTR [edi+4]
  00060	85 c9		 test	 ecx, ecx
  00062	74 27		 je	 SHORT $LN34@CDynamicPo

; 1695 :             _Destroy(_Myfirst, _Mylast);
; 1696 :             _Getal().deallocate(_Myfirst, static_cast<size_type>(_Myend - _Myfirst));

  00064	8b 47 0c	 mov	 eax, DWORD PTR [edi+12]
  00067	2b c1		 sub	 eax, ecx
; File C:\Program Files (x86)\Microsoft Visual Studio\2019\Community\VC\Tools\MSVC\14.28.29333\include\xmemory

; 810  :         _Deallocate<_New_alignof<_Ty>>(_Ptr, sizeof(_Ty) * _Count);

  00069	83 e0 fc	 and	 eax, -4			; fffffffcH
  0006c	50		 push	 eax
  0006d	51		 push	 ecx
  0006e	e8 00 00 00 00	 call	 ??$_Deallocate@$07$0A@@std@@YAXPAXI@Z ; std::_Deallocate<8,0>
; File C:\Program Files (x86)\Microsoft Visual Studio\2019\Community\VC\Tools\MSVC\14.28.29333\include\vector

; 1698 :             _Myfirst = pointer();

  00073	c7 47 04 00 00
	00 00		 mov	 DWORD PTR [edi+4], 0
; File C:\Program Files (x86)\Microsoft Visual Studio\2019\Community\VC\Tools\MSVC\14.28.29333\include\xmemory

; 810  :         _Deallocate<_New_alignof<_Ty>>(_Ptr, sizeof(_Ty) * _Count);

  0007a	83 c4 08	 add	 esp, 8
; File C:\Program Files (x86)\Microsoft Visual Studio\2019\Community\VC\Tools\MSVC\14.28.29333\include\vector

; 1699 :             _Mylast  = pointer();

  0007d	c7 47 08 00 00
	00 00		 mov	 DWORD PTR [edi+8], 0

; 1700 :             _Myend   = pointer();

  00084	c7 47 0c 00 00
	00 00		 mov	 DWORD PTR [edi+12], 0
$LN34@CDynamicPo:
  0008b	5f		 pop	 edi
; File D:\Metin2 Server Files\mainline\SRC_2014\Metin2Client\eterLib\Pool.h

; 142  : 		}

  0008c	5e		 pop	 esi
  0008d	5b		 pop	 ebx
  0008e	c3		 ret	 0
??1?$CDynamicPoolEx@VCTextureAnimationRandomDecorator@NEffectUpdateDecorator@@@@UAE@XZ ENDP ; CDynamicPoolEx<NEffectUpdateDecorator::CTextureAnimationRandomDecorator>::~CDynamicPoolEx<NEffectUpdateDecorator::CTextureAnimationRandomDecorator>
_TEXT	ENDS
; Function compile flags: /Ogtp
;	COMDAT ??_G?$CDynamicPoolEx@VCAirResistanceDecorator@NEffectUpdateDecorator@@@@UAEPAXI@Z
_TEXT	SEGMENT
___flags$ = 8						; size = 4
??_G?$CDynamicPoolEx@VCAirResistanceDecorator@NEffectUpdateDecorator@@@@UAEPAXI@Z PROC ; CDynamicPoolEx<NEffectUpdateDecorator::CAirResistanceDecorator>::`scalar deleting destructor', COMDAT
; _this$ = ecx
  00000	55		 push	 ebp
  00001	8b ec		 mov	 ebp, esp
  00003	56		 push	 esi
  00004	8b f1		 mov	 esi, ecx
  00006	e8 00 00 00 00	 call	 ??1?$CDynamicPoolEx@VCAirResistanceDecorator@NEffectUpdateDecorator@@@@UAE@XZ ; CDynamicPoolEx<NEffectUpdateDecorator::CAirResistanceDecorator>::~CDynamicPoolEx<NEffectUpdateDecorator::CAirResistanceDecorator>
  0000b	f6 45 08 01	 test	 BYTE PTR ___flags$[ebp], 1
  0000f	74 0b		 je	 SHORT $LN4@scalar
  00011	6a 24		 push	 36			; 00000024H
  00013	56		 push	 esi
  00014	e8 00 00 00 00	 call	 ??3@YAXPAXI@Z		; operator delete
  00019	83 c4 08	 add	 esp, 8
$LN4@scalar:
  0001c	8b c6		 mov	 eax, esi
  0001e	5e		 pop	 esi
  0001f	5d		 pop	 ebp
  00020	c2 04 00	 ret	 4
??_G?$CDynamicPoolEx@VCAirResistanceDecorator@NEffectUpdateDecorator@@@@UAEPAXI@Z ENDP ; CDynamicPoolEx<NEffectUpdateDecorator::CAirResistanceDecorator>::`scalar deleting destructor'
_TEXT	ENDS
; Function compile flags: /Ogtp
; File D:\Metin2 Server Files\mainline\SRC_2014\Metin2Client\eterLib\Pool.h
;	COMDAT ?Delete@?$CDynamicPoolEx@VCAirResistanceDecorator@NEffectUpdateDecorator@@@@KAXPAVCAirResistanceDecorator@NEffectUpdateDecorator@@@Z
_TEXT	SEGMENT
_pkData$ = 8						; size = 4
?Delete@?$CDynamicPoolEx@VCAirResistanceDecorator@NEffectUpdateDecorator@@@@KAXPAVCAirResistanceDecorator@NEffectUpdateDecorator@@@Z PROC ; CDynamicPoolEx<NEffectUpdateDecorator::CAirResistanceDecorator>::Delete, COMDAT

; 224  : 			::operator delete(pkData);

  00000	e9 00 00 00 00	 jmp	 ??3@YAXPAX@Z		; operator delete
?Delete@?$CDynamicPoolEx@VCAirResistanceDecorator@NEffectUpdateDecorator@@@@KAXPAVCAirResistanceDecorator@NEffectUpdateDecorator@@@Z ENDP ; CDynamicPoolEx<NEffectUpdateDecorator::CAirResistanceDecorator>::Delete
_TEXT	ENDS
; Function compile flags: /Ogtp
; File D:\Metin2 Server Files\mainline\SRC_2014\Metin2Client\eterLib\Pool.h
; File C:\Program Files (x86)\Microsoft Visual Studio\2019\Community\VC\Tools\MSVC\14.28.29333\include\vector
; File C:\Program Files (x86)\Microsoft Visual Studio\2019\Community\VC\Tools\MSVC\14.28.29333\include\algorithm
; File D:\Metin2 Server Files\mainline\SRC_2014\Metin2Client\eterLib\Pool.h
; File C:\Program Files (x86)\Microsoft Visual Studio\2019\Community\VC\Tools\MSVC\14.28.29333\include\algorithm
; File D:\Metin2 Server Files\mainline\SRC_2014\Metin2Client\eterLib\Pool.h
; File C:\Program Files (x86)\Microsoft Visual Studio\2019\Community\VC\Tools\MSVC\14.28.29333\include\algorithm
; File D:\Metin2 Server Files\mainline\SRC_2014\Metin2Client\eterLib\Pool.h
; File C:\Program Files (x86)\Microsoft Visual Studio\2019\Community\VC\Tools\MSVC\14.28.29333\include\vector
; File C:\Program Files (x86)\Microsoft Visual Studio\2019\Community\VC\Tools\MSVC\14.28.29333\include\xmemory
; File C:\Program Files (x86)\Microsoft Visual Studio\2019\Community\VC\Tools\MSVC\14.28.29333\include\vector
; File C:\Program Files (x86)\Microsoft Visual Studio\2019\Community\VC\Tools\MSVC\14.28.29333\include\xmemory
; File C:\Program Files (x86)\Microsoft Visual Studio\2019\Community\VC\Tools\MSVC\14.28.29333\include\vector
; File C:\Program Files (x86)\Microsoft Visual Studio\2019\Community\VC\Tools\MSVC\14.28.29333\include\xmemory
; File C:\Program Files (x86)\Microsoft Visual Studio\2019\Community\VC\Tools\MSVC\14.28.29333\include\vector
; File C:\Program Files (x86)\Microsoft Visual Studio\2019\Community\VC\Tools\MSVC\14.28.29333\include\xmemory
; File C:\Program Files (x86)\Microsoft Visual Studio\2019\Community\VC\Tools\MSVC\14.28.29333\include\vector
; File D:\Metin2 Server Files\mainline\SRC_2014\Metin2Client\eterLib\Pool.h
;	COMDAT ??1?$CDynamicPoolEx@VCAirResistanceDecorator@NEffectUpdateDecorator@@@@UAE@XZ
_TEXT	SEGMENT
??1?$CDynamicPoolEx@VCAirResistanceDecorator@NEffectUpdateDecorator@@@@UAE@XZ PROC ; CDynamicPoolEx<NEffectUpdateDecorator::CAirResistanceDecorator>::~CDynamicPoolEx<NEffectUpdateDecorator::CAirResistanceDecorator>, COMDAT
; _this$ = ecx

; 132  : 		{

  00000	53		 push	 ebx
  00001	56		 push	 esi
  00002	57		 push	 edi
  00003	8b f9		 mov	 edi, ecx
  00005	c7 07 00 00 00
	00		 mov	 DWORD PTR [edi], OFFSET ??_7?$CDynamicPoolEx@VCAirResistanceDecorator@NEffectUpdateDecorator@@@@6B@
; File C:\Program Files (x86)\Microsoft Visual Studio\2019\Community\VC\Tools\MSVC\14.28.29333\include\vector

; 42   :     _Vector_const_iterator(_Tptr _Parg, const _Container_base* _Pvector) noexcept : _Ptr(_Parg) {

  0000b	8b 5f 08	 mov	 ebx, DWORD PTR [edi+8]
  0000e	8b 77 04	 mov	 esi, DWORD PTR [edi+4]
; File C:\Program Files (x86)\Microsoft Visual Studio\2019\Community\VC\Tools\MSVC\14.28.29333\include\algorithm

; 307  :     for (; _UFirst != _ULast; ++_UFirst) {

  00011	3b f3		 cmp	 esi, ebx
  00013	74 14		 je	 SHORT $LN19@CDynamicPo
$LL20@CDynamicPo:
; File D:\Metin2 Server Files\mainline\SRC_2014\Metin2Client\eterLib\Pool.h

; 224  : 			::operator delete(pkData);

  00015	ff 36		 push	 DWORD PTR [esi]
  00017	e8 00 00 00 00	 call	 ??3@YAXPAX@Z		; operator delete
; File C:\Program Files (x86)\Microsoft Visual Studio\2019\Community\VC\Tools\MSVC\14.28.29333\include\algorithm

; 307  :     for (; _UFirst != _ULast; ++_UFirst) {

  0001c	83 c6 04	 add	 esi, 4
; File D:\Metin2 Server Files\mainline\SRC_2014\Metin2Client\eterLib\Pool.h

; 224  : 			::operator delete(pkData);

  0001f	83 c4 04	 add	 esp, 4
; File C:\Program Files (x86)\Microsoft Visual Studio\2019\Community\VC\Tools\MSVC\14.28.29333\include\algorithm

; 307  :     for (; _UFirst != _ULast; ++_UFirst) {

  00022	3b f3		 cmp	 esi, ebx
  00024	75 ef		 jne	 SHORT $LL20@CDynamicPo
  00026	8b 77 04	 mov	 esi, DWORD PTR [edi+4]
$LN19@CDynamicPo:
; File D:\Metin2 Server Files\mainline\SRC_2014\Metin2Client\eterLib\Pool.h

; 162  : 			m_kVct_pkFree.clear();

  00029	8b 4f 10	 mov	 ecx, DWORD PTR [edi+16]
  0002c	89 77 08	 mov	 DWORD PTR [edi+8], esi
  0002f	89 4f 14	 mov	 DWORD PTR [edi+20], ecx
; File C:\Program Files (x86)\Microsoft Visual Studio\2019\Community\VC\Tools\MSVC\14.28.29333\include\vector

; 1694 :         if (_Myfirst) { // destroy and deallocate old array

  00032	85 c9		 test	 ecx, ecx
  00034	74 27		 je	 SHORT $LN27@CDynamicPo

; 1695 :             _Destroy(_Myfirst, _Mylast);
; 1696 :             _Getal().deallocate(_Myfirst, static_cast<size_type>(_Myend - _Myfirst));

  00036	8b 47 18	 mov	 eax, DWORD PTR [edi+24]
  00039	2b c1		 sub	 eax, ecx
; File C:\Program Files (x86)\Microsoft Visual Studio\2019\Community\VC\Tools\MSVC\14.28.29333\include\xmemory

; 810  :         _Deallocate<_New_alignof<_Ty>>(_Ptr, sizeof(_Ty) * _Count);

  0003b	83 e0 fc	 and	 eax, -4			; fffffffcH
  0003e	50		 push	 eax
  0003f	51		 push	 ecx
  00040	e8 00 00 00 00	 call	 ??$_Deallocate@$07$0A@@std@@YAXPAXI@Z ; std::_Deallocate<8,0>
; File C:\Program Files (x86)\Microsoft Visual Studio\2019\Community\VC\Tools\MSVC\14.28.29333\include\vector

; 1698 :             _Myfirst = pointer();

  00045	c7 47 10 00 00
	00 00		 mov	 DWORD PTR [edi+16], 0
; File C:\Program Files (x86)\Microsoft Visual Studio\2019\Community\VC\Tools\MSVC\14.28.29333\include\xmemory

; 810  :         _Deallocate<_New_alignof<_Ty>>(_Ptr, sizeof(_Ty) * _Count);

  0004c	83 c4 08	 add	 esp, 8
; File C:\Program Files (x86)\Microsoft Visual Studio\2019\Community\VC\Tools\MSVC\14.28.29333\include\vector

; 1699 :             _Mylast  = pointer();

  0004f	c7 47 14 00 00
	00 00		 mov	 DWORD PTR [edi+20], 0

; 1700 :             _Myend   = pointer();

  00056	c7 47 18 00 00
	00 00		 mov	 DWORD PTR [edi+24], 0
$LN27@CDynamicPo:

; 1694 :         if (_Myfirst) { // destroy and deallocate old array

  0005d	8b 4f 04	 mov	 ecx, DWORD PTR [edi+4]
  00060	85 c9		 test	 ecx, ecx
  00062	74 27		 je	 SHORT $LN34@CDynamicPo

; 1695 :             _Destroy(_Myfirst, _Mylast);
; 1696 :             _Getal().deallocate(_Myfirst, static_cast<size_type>(_Myend - _Myfirst));

  00064	8b 47 0c	 mov	 eax, DWORD PTR [edi+12]
  00067	2b c1		 sub	 eax, ecx
; File C:\Program Files (x86)\Microsoft Visual Studio\2019\Community\VC\Tools\MSVC\14.28.29333\include\xmemory

; 810  :         _Deallocate<_New_alignof<_Ty>>(_Ptr, sizeof(_Ty) * _Count);

  00069	83 e0 fc	 and	 eax, -4			; fffffffcH
  0006c	50		 push	 eax
  0006d	51		 push	 ecx
  0006e	e8 00 00 00 00	 call	 ??$_Deallocate@$07$0A@@std@@YAXPAXI@Z ; std::_Deallocate<8,0>
; File C:\Program Files (x86)\Microsoft Visual Studio\2019\Community\VC\Tools\MSVC\14.28.29333\include\vector

; 1698 :             _Myfirst = pointer();

  00073	c7 47 04 00 00
	00 00		 mov	 DWORD PTR [edi+4], 0
; File C:\Program Files (x86)\Microsoft Visual Studio\2019\Community\VC\Tools\MSVC\14.28.29333\include\xmemory

; 810  :         _Deallocate<_New_alignof<_Ty>>(_Ptr, sizeof(_Ty) * _Count);

  0007a	83 c4 08	 add	 esp, 8
; File C:\Program Files (x86)\Microsoft Visual Studio\2019\Community\VC\Tools\MSVC\14.28.29333\include\vector

; 1699 :             _Mylast  = pointer();

  0007d	c7 47 08 00 00
	00 00		 mov	 DWORD PTR [edi+8], 0

; 1700 :             _Myend   = pointer();

  00084	c7 47 0c 00 00
	00 00		 mov	 DWORD PTR [edi+12], 0
$LN34@CDynamicPo:
  0008b	5f		 pop	 edi
; File D:\Metin2 Server Files\mainline\SRC_2014\Metin2Client\eterLib\Pool.h

; 142  : 		}

  0008c	5e		 pop	 esi
  0008d	5b		 pop	 ebx
  0008e	c3		 ret	 0
??1?$CDynamicPoolEx@VCAirResistanceDecorator@NEffectUpdateDecorator@@@@UAE@XZ ENDP ; CDynamicPoolEx<NEffectUpdateDecorator::CAirResistanceDecorator>::~CDynamicPoolEx<NEffectUpdateDecorator::CAirResistanceDecorator>
_TEXT	ENDS
; Function compile flags: /Ogtp
;	COMDAT ??_G?$CDynamicPoolEx@VCGravityDecorator@NEffectUpdateDecorator@@@@UAEPAXI@Z
_TEXT	SEGMENT
___flags$ = 8						; size = 4
??_G?$CDynamicPoolEx@VCGravityDecorator@NEffectUpdateDecorator@@@@UAEPAXI@Z PROC ; CDynamicPoolEx<NEffectUpdateDecorator::CGravityDecorator>::`scalar deleting destructor', COMDAT
; _this$ = ecx
  00000	55		 push	 ebp
  00001	8b ec		 mov	 ebp, esp
  00003	56		 push	 esi
  00004	8b f1		 mov	 esi, ecx
  00006	e8 00 00 00 00	 call	 ??1?$CDynamicPoolEx@VCGravityDecorator@NEffectUpdateDecorator@@@@UAE@XZ ; CDynamicPoolEx<NEffectUpdateDecorator::CGravityDecorator>::~CDynamicPoolEx<NEffectUpdateDecorator::CGravityDecorator>
  0000b	f6 45 08 01	 test	 BYTE PTR ___flags$[ebp], 1
  0000f	74 0b		 je	 SHORT $LN4@scalar
  00011	6a 24		 push	 36			; 00000024H
  00013	56		 push	 esi
  00014	e8 00 00 00 00	 call	 ??3@YAXPAXI@Z		; operator delete
  00019	83 c4 08	 add	 esp, 8
$LN4@scalar:
  0001c	8b c6		 mov	 eax, esi
  0001e	5e		 pop	 esi
  0001f	5d		 pop	 ebp
  00020	c2 04 00	 ret	 4
??_G?$CDynamicPoolEx@VCGravityDecorator@NEffectUpdateDecorator@@@@UAEPAXI@Z ENDP ; CDynamicPoolEx<NEffectUpdateDecorator::CGravityDecorator>::`scalar deleting destructor'
_TEXT	ENDS
; Function compile flags: /Ogtp
; File D:\Metin2 Server Files\mainline\SRC_2014\Metin2Client\eterLib\Pool.h
;	COMDAT ?Delete@?$CDynamicPoolEx@VCGravityDecorator@NEffectUpdateDecorator@@@@KAXPAVCGravityDecorator@NEffectUpdateDecorator@@@Z
_TEXT	SEGMENT
_pkData$ = 8						; size = 4
?Delete@?$CDynamicPoolEx@VCGravityDecorator@NEffectUpdateDecorator@@@@KAXPAVCGravityDecorator@NEffectUpdateDecorator@@@Z PROC ; CDynamicPoolEx<NEffectUpdateDecorator::CGravityDecorator>::Delete, COMDAT

; 224  : 			::operator delete(pkData);

  00000	e9 00 00 00 00	 jmp	 ??3@YAXPAX@Z		; operator delete
?Delete@?$CDynamicPoolEx@VCGravityDecorator@NEffectUpdateDecorator@@@@KAXPAVCGravityDecorator@NEffectUpdateDecorator@@@Z ENDP ; CDynamicPoolEx<NEffectUpdateDecorator::CGravityDecorator>::Delete
_TEXT	ENDS
; Function compile flags: /Ogtp
; File D:\Metin2 Server Files\mainline\SRC_2014\Metin2Client\eterLib\Pool.h
; File C:\Program Files (x86)\Microsoft Visual Studio\2019\Community\VC\Tools\MSVC\14.28.29333\include\vector
; File C:\Program Files (x86)\Microsoft Visual Studio\2019\Community\VC\Tools\MSVC\14.28.29333\include\algorithm
; File D:\Metin2 Server Files\mainline\SRC_2014\Metin2Client\eterLib\Pool.h
; File C:\Program Files (x86)\Microsoft Visual Studio\2019\Community\VC\Tools\MSVC\14.28.29333\include\algorithm
; File D:\Metin2 Server Files\mainline\SRC_2014\Metin2Client\eterLib\Pool.h
; File C:\Program Files (x86)\Microsoft Visual Studio\2019\Community\VC\Tools\MSVC\14.28.29333\include\algorithm
; File D:\Metin2 Server Files\mainline\SRC_2014\Metin2Client\eterLib\Pool.h
; File C:\Program Files (x86)\Microsoft Visual Studio\2019\Community\VC\Tools\MSVC\14.28.29333\include\vector
; File C:\Program Files (x86)\Microsoft Visual Studio\2019\Community\VC\Tools\MSVC\14.28.29333\include\xmemory
; File C:\Program Files (x86)\Microsoft Visual Studio\2019\Community\VC\Tools\MSVC\14.28.29333\include\vector
; File C:\Program Files (x86)\Microsoft Visual Studio\2019\Community\VC\Tools\MSVC\14.28.29333\include\xmemory
; File C:\Program Files (x86)\Microsoft Visual Studio\2019\Community\VC\Tools\MSVC\14.28.29333\include\vector
; File C:\Program Files (x86)\Microsoft Visual Studio\2019\Community\VC\Tools\MSVC\14.28.29333\include\xmemory
; File C:\Program Files (x86)\Microsoft Visual Studio\2019\Community\VC\Tools\MSVC\14.28.29333\include\vector
; File C:\Program Files (x86)\Microsoft Visual Studio\2019\Community\VC\Tools\MSVC\14.28.29333\include\xmemory
; File C:\Program Files (x86)\Microsoft Visual Studio\2019\Community\VC\Tools\MSVC\14.28.29333\include\vector
; File D:\Metin2 Server Files\mainline\SRC_2014\Metin2Client\eterLib\Pool.h
;	COMDAT ??1?$CDynamicPoolEx@VCGravityDecorator@NEffectUpdateDecorator@@@@UAE@XZ
_TEXT	SEGMENT
??1?$CDynamicPoolEx@VCGravityDecorator@NEffectUpdateDecorator@@@@UAE@XZ PROC ; CDynamicPoolEx<NEffectUpdateDecorator::CGravityDecorator>::~CDynamicPoolEx<NEffectUpdateDecorator::CGravityDecorator>, COMDAT
; _this$ = ecx

; 132  : 		{

  00000	53		 push	 ebx
  00001	56		 push	 esi
  00002	57		 push	 edi
  00003	8b f9		 mov	 edi, ecx
  00005	c7 07 00 00 00
	00		 mov	 DWORD PTR [edi], OFFSET ??_7?$CDynamicPoolEx@VCGravityDecorator@NEffectUpdateDecorator@@@@6B@
; File C:\Program Files (x86)\Microsoft Visual Studio\2019\Community\VC\Tools\MSVC\14.28.29333\include\vector

; 42   :     _Vector_const_iterator(_Tptr _Parg, const _Container_base* _Pvector) noexcept : _Ptr(_Parg) {

  0000b	8b 5f 08	 mov	 ebx, DWORD PTR [edi+8]
  0000e	8b 77 04	 mov	 esi, DWORD PTR [edi+4]
; File C:\Program Files (x86)\Microsoft Visual Studio\2019\Community\VC\Tools\MSVC\14.28.29333\include\algorithm

; 307  :     for (; _UFirst != _ULast; ++_UFirst) {

  00011	3b f3		 cmp	 esi, ebx
  00013	74 14		 je	 SHORT $LN19@CDynamicPo
$LL20@CDynamicPo:
; File D:\Metin2 Server Files\mainline\SRC_2014\Metin2Client\eterLib\Pool.h

; 224  : 			::operator delete(pkData);

  00015	ff 36		 push	 DWORD PTR [esi]
  00017	e8 00 00 00 00	 call	 ??3@YAXPAX@Z		; operator delete
; File C:\Program Files (x86)\Microsoft Visual Studio\2019\Community\VC\Tools\MSVC\14.28.29333\include\algorithm

; 307  :     for (; _UFirst != _ULast; ++_UFirst) {

  0001c	83 c6 04	 add	 esi, 4
; File D:\Metin2 Server Files\mainline\SRC_2014\Metin2Client\eterLib\Pool.h

; 224  : 			::operator delete(pkData);

  0001f	83 c4 04	 add	 esp, 4
; File C:\Program Files (x86)\Microsoft Visual Studio\2019\Community\VC\Tools\MSVC\14.28.29333\include\algorithm

; 307  :     for (; _UFirst != _ULast; ++_UFirst) {

  00022	3b f3		 cmp	 esi, ebx
  00024	75 ef		 jne	 SHORT $LL20@CDynamicPo
  00026	8b 77 04	 mov	 esi, DWORD PTR [edi+4]
$LN19@CDynamicPo:
; File D:\Metin2 Server Files\mainline\SRC_2014\Metin2Client\eterLib\Pool.h

; 162  : 			m_kVct_pkFree.clear();

  00029	8b 4f 10	 mov	 ecx, DWORD PTR [edi+16]
  0002c	89 77 08	 mov	 DWORD PTR [edi+8], esi
  0002f	89 4f 14	 mov	 DWORD PTR [edi+20], ecx
; File C:\Program Files (x86)\Microsoft Visual Studio\2019\Community\VC\Tools\MSVC\14.28.29333\include\vector

; 1694 :         if (_Myfirst) { // destroy and deallocate old array

  00032	85 c9		 test	 ecx, ecx
  00034	74 27		 je	 SHORT $LN27@CDynamicPo

; 1695 :             _Destroy(_Myfirst, _Mylast);
; 1696 :             _Getal().deallocate(_Myfirst, static_cast<size_type>(_Myend - _Myfirst));

  00036	8b 47 18	 mov	 eax, DWORD PTR [edi+24]
  00039	2b c1		 sub	 eax, ecx
; File C:\Program Files (x86)\Microsoft Visual Studio\2019\Community\VC\Tools\MSVC\14.28.29333\include\xmemory

; 810  :         _Deallocate<_New_alignof<_Ty>>(_Ptr, sizeof(_Ty) * _Count);

  0003b	83 e0 fc	 and	 eax, -4			; fffffffcH
  0003e	50		 push	 eax
  0003f	51		 push	 ecx
  00040	e8 00 00 00 00	 call	 ??$_Deallocate@$07$0A@@std@@YAXPAXI@Z ; std::_Deallocate<8,0>
; File C:\Program Files (x86)\Microsoft Visual Studio\2019\Community\VC\Tools\MSVC\14.28.29333\include\vector

; 1698 :             _Myfirst = pointer();

  00045	c7 47 10 00 00
	00 00		 mov	 DWORD PTR [edi+16], 0
; File C:\Program Files (x86)\Microsoft Visual Studio\2019\Community\VC\Tools\MSVC\14.28.29333\include\xmemory

; 810  :         _Deallocate<_New_alignof<_Ty>>(_Ptr, sizeof(_Ty) * _Count);

  0004c	83 c4 08	 add	 esp, 8
; File C:\Program Files (x86)\Microsoft Visual Studio\2019\Community\VC\Tools\MSVC\14.28.29333\include\vector

; 1699 :             _Mylast  = pointer();

  0004f	c7 47 14 00 00
	00 00		 mov	 DWORD PTR [edi+20], 0

; 1700 :             _Myend   = pointer();

  00056	c7 47 18 00 00
	00 00		 mov	 DWORD PTR [edi+24], 0
$LN27@CDynamicPo:

; 1694 :         if (_Myfirst) { // destroy and deallocate old array

  0005d	8b 4f 04	 mov	 ecx, DWORD PTR [edi+4]
  00060	85 c9		 test	 ecx, ecx
  00062	74 27		 je	 SHORT $LN34@CDynamicPo

; 1695 :             _Destroy(_Myfirst, _Mylast);
; 1696 :             _Getal().deallocate(_Myfirst, static_cast<size_type>(_Myend - _Myfirst));

  00064	8b 47 0c	 mov	 eax, DWORD PTR [edi+12]
  00067	2b c1		 sub	 eax, ecx
; File C:\Program Files (x86)\Microsoft Visual Studio\2019\Community\VC\Tools\MSVC\14.28.29333\include\xmemory

; 810  :         _Deallocate<_New_alignof<_Ty>>(_Ptr, sizeof(_Ty) * _Count);

  00069	83 e0 fc	 and	 eax, -4			; fffffffcH
  0006c	50		 push	 eax
  0006d	51		 push	 ecx
  0006e	e8 00 00 00 00	 call	 ??$_Deallocate@$07$0A@@std@@YAXPAXI@Z ; std::_Deallocate<8,0>
; File C:\Program Files (x86)\Microsoft Visual Studio\2019\Community\VC\Tools\MSVC\14.28.29333\include\vector

; 1698 :             _Myfirst = pointer();

  00073	c7 47 04 00 00
	00 00		 mov	 DWORD PTR [edi+4], 0
; File C:\Program Files (x86)\Microsoft Visual Studio\2019\Community\VC\Tools\MSVC\14.28.29333\include\xmemory

; 810  :         _Deallocate<_New_alignof<_Ty>>(_Ptr, sizeof(_Ty) * _Count);

  0007a	83 c4 08	 add	 esp, 8
; File C:\Program Files (x86)\Microsoft Visual Studio\2019\Community\VC\Tools\MSVC\14.28.29333\include\vector

; 1699 :             _Mylast  = pointer();

  0007d	c7 47 08 00 00
	00 00		 mov	 DWORD PTR [edi+8], 0

; 1700 :             _Myend   = pointer();

  00084	c7 47 0c 00 00
	00 00		 mov	 DWORD PTR [edi+12], 0
$LN34@CDynamicPo:
  0008b	5f		 pop	 edi
; File D:\Metin2 Server Files\mainline\SRC_2014\Metin2Client\eterLib\Pool.h

; 142  : 		}

  0008c	5e		 pop	 esi
  0008d	5b		 pop	 ebx
  0008e	c3		 ret	 0
??1?$CDynamicPoolEx@VCGravityDecorator@NEffectUpdateDecorator@@@@UAE@XZ ENDP ; CDynamicPoolEx<NEffectUpdateDecorator::CGravityDecorator>::~CDynamicPoolEx<NEffectUpdateDecorator::CGravityDecorator>
_TEXT	ENDS
; Function compile flags: /Ogtp
;	COMDAT ??_G?$CDynamicPoolEx@VCRotationDecorator@NEffectUpdateDecorator@@@@UAEPAXI@Z
_TEXT	SEGMENT
___flags$ = 8						; size = 4
??_G?$CDynamicPoolEx@VCRotationDecorator@NEffectUpdateDecorator@@@@UAEPAXI@Z PROC ; CDynamicPoolEx<NEffectUpdateDecorator::CRotationDecorator>::`scalar deleting destructor', COMDAT
; _this$ = ecx
  00000	55		 push	 ebp
  00001	8b ec		 mov	 ebp, esp
  00003	56		 push	 esi
  00004	8b f1		 mov	 esi, ecx
  00006	e8 00 00 00 00	 call	 ??1?$CDynamicPoolEx@VCRotationDecorator@NEffectUpdateDecorator@@@@UAE@XZ ; CDynamicPoolEx<NEffectUpdateDecorator::CRotationDecorator>::~CDynamicPoolEx<NEffectUpdateDecorator::CRotationDecorator>
  0000b	f6 45 08 01	 test	 BYTE PTR ___flags$[ebp], 1
  0000f	74 0b		 je	 SHORT $LN4@scalar
  00011	6a 24		 push	 36			; 00000024H
  00013	56		 push	 esi
  00014	e8 00 00 00 00	 call	 ??3@YAXPAXI@Z		; operator delete
  00019	83 c4 08	 add	 esp, 8
$LN4@scalar:
  0001c	8b c6		 mov	 eax, esi
  0001e	5e		 pop	 esi
  0001f	5d		 pop	 ebp
  00020	c2 04 00	 ret	 4
??_G?$CDynamicPoolEx@VCRotationDecorator@NEffectUpdateDecorator@@@@UAEPAXI@Z ENDP ; CDynamicPoolEx<NEffectUpdateDecorator::CRotationDecorator>::`scalar deleting destructor'
_TEXT	ENDS
; Function compile flags: /Ogtp
; File D:\Metin2 Server Files\mainline\SRC_2014\Metin2Client\eterLib\Pool.h
;	COMDAT ?Delete@?$CDynamicPoolEx@VCRotationDecorator@NEffectUpdateDecorator@@@@KAXPAVCRotationDecorator@NEffectUpdateDecorator@@@Z
_TEXT	SEGMENT
_pkData$ = 8						; size = 4
?Delete@?$CDynamicPoolEx@VCRotationDecorator@NEffectUpdateDecorator@@@@KAXPAVCRotationDecorator@NEffectUpdateDecorator@@@Z PROC ; CDynamicPoolEx<NEffectUpdateDecorator::CRotationDecorator>::Delete, COMDAT

; 224  : 			::operator delete(pkData);

  00000	e9 00 00 00 00	 jmp	 ??3@YAXPAX@Z		; operator delete
?Delete@?$CDynamicPoolEx@VCRotationDecorator@NEffectUpdateDecorator@@@@KAXPAVCRotationDecorator@NEffectUpdateDecorator@@@Z ENDP ; CDynamicPoolEx<NEffectUpdateDecorator::CRotationDecorator>::Delete
_TEXT	ENDS
; Function compile flags: /Ogtp
; File D:\Metin2 Server Files\mainline\SRC_2014\Metin2Client\eterLib\Pool.h
; File C:\Program Files (x86)\Microsoft Visual Studio\2019\Community\VC\Tools\MSVC\14.28.29333\include\vector
; File C:\Program Files (x86)\Microsoft Visual Studio\2019\Community\VC\Tools\MSVC\14.28.29333\include\algorithm
; File D:\Metin2 Server Files\mainline\SRC_2014\Metin2Client\eterLib\Pool.h
; File C:\Program Files (x86)\Microsoft Visual Studio\2019\Community\VC\Tools\MSVC\14.28.29333\include\algorithm
; File D:\Metin2 Server Files\mainline\SRC_2014\Metin2Client\eterLib\Pool.h
; File C:\Program Files (x86)\Microsoft Visual Studio\2019\Community\VC\Tools\MSVC\14.28.29333\include\algorithm
; File D:\Metin2 Server Files\mainline\SRC_2014\Metin2Client\eterLib\Pool.h
; File C:\Program Files (x86)\Microsoft Visual Studio\2019\Community\VC\Tools\MSVC\14.28.29333\include\vector
; File C:\Program Files (x86)\Microsoft Visual Studio\2019\Community\VC\Tools\MSVC\14.28.29333\include\xmemory
; File C:\Program Files (x86)\Microsoft Visual Studio\2019\Community\VC\Tools\MSVC\14.28.29333\include\vector
; File C:\Program Files (x86)\Microsoft Visual Studio\2019\Community\VC\Tools\MSVC\14.28.29333\include\xmemory
; File C:\Program Files (x86)\Microsoft Visual Studio\2019\Community\VC\Tools\MSVC\14.28.29333\include\vector
; File C:\Program Files (x86)\Microsoft Visual Studio\2019\Community\VC\Tools\MSVC\14.28.29333\include\xmemory
; File C:\Program Files (x86)\Microsoft Visual Studio\2019\Community\VC\Tools\MSVC\14.28.29333\include\vector
; File C:\Program Files (x86)\Microsoft Visual Studio\2019\Community\VC\Tools\MSVC\14.28.29333\include\xmemory
; File C:\Program Files (x86)\Microsoft Visual Studio\2019\Community\VC\Tools\MSVC\14.28.29333\include\vector
; File D:\Metin2 Server Files\mainline\SRC_2014\Metin2Client\eterLib\Pool.h
;	COMDAT ??1?$CDynamicPoolEx@VCRotationDecorator@NEffectUpdateDecorator@@@@UAE@XZ
_TEXT	SEGMENT
??1?$CDynamicPoolEx@VCRotationDecorator@NEffectUpdateDecorator@@@@UAE@XZ PROC ; CDynamicPoolEx<NEffectUpdateDecorator::CRotationDecorator>::~CDynamicPoolEx<NEffectUpdateDecorator::CRotationDecorator>, COMDAT
; _this$ = ecx

; 132  : 		{

  00000	53		 push	 ebx
  00001	56		 push	 esi
  00002	57		 push	 edi
  00003	8b f9		 mov	 edi, ecx
  00005	c7 07 00 00 00
	00		 mov	 DWORD PTR [edi], OFFSET ??_7?$CDynamicPoolEx@VCRotationDecorator@NEffectUpdateDecorator@@@@6B@
; File C:\Program Files (x86)\Microsoft Visual Studio\2019\Community\VC\Tools\MSVC\14.28.29333\include\vector

; 42   :     _Vector_const_iterator(_Tptr _Parg, const _Container_base* _Pvector) noexcept : _Ptr(_Parg) {

  0000b	8b 5f 08	 mov	 ebx, DWORD PTR [edi+8]
  0000e	8b 77 04	 mov	 esi, DWORD PTR [edi+4]
; File C:\Program Files (x86)\Microsoft Visual Studio\2019\Community\VC\Tools\MSVC\14.28.29333\include\algorithm

; 307  :     for (; _UFirst != _ULast; ++_UFirst) {

  00011	3b f3		 cmp	 esi, ebx
  00013	74 14		 je	 SHORT $LN19@CDynamicPo
$LL20@CDynamicPo:
; File D:\Metin2 Server Files\mainline\SRC_2014\Metin2Client\eterLib\Pool.h

; 224  : 			::operator delete(pkData);

  00015	ff 36		 push	 DWORD PTR [esi]
  00017	e8 00 00 00 00	 call	 ??3@YAXPAX@Z		; operator delete
; File C:\Program Files (x86)\Microsoft Visual Studio\2019\Community\VC\Tools\MSVC\14.28.29333\include\algorithm

; 307  :     for (; _UFirst != _ULast; ++_UFirst) {

  0001c	83 c6 04	 add	 esi, 4
; File D:\Metin2 Server Files\mainline\SRC_2014\Metin2Client\eterLib\Pool.h

; 224  : 			::operator delete(pkData);

  0001f	83 c4 04	 add	 esp, 4
; File C:\Program Files (x86)\Microsoft Visual Studio\2019\Community\VC\Tools\MSVC\14.28.29333\include\algorithm

; 307  :     for (; _UFirst != _ULast; ++_UFirst) {

  00022	3b f3		 cmp	 esi, ebx
  00024	75 ef		 jne	 SHORT $LL20@CDynamicPo
  00026	8b 77 04	 mov	 esi, DWORD PTR [edi+4]
$LN19@CDynamicPo:
; File D:\Metin2 Server Files\mainline\SRC_2014\Metin2Client\eterLib\Pool.h

; 162  : 			m_kVct_pkFree.clear();

  00029	8b 4f 10	 mov	 ecx, DWORD PTR [edi+16]
  0002c	89 77 08	 mov	 DWORD PTR [edi+8], esi
  0002f	89 4f 14	 mov	 DWORD PTR [edi+20], ecx
; File C:\Program Files (x86)\Microsoft Visual Studio\2019\Community\VC\Tools\MSVC\14.28.29333\include\vector

; 1694 :         if (_Myfirst) { // destroy and deallocate old array

  00032	85 c9		 test	 ecx, ecx
  00034	74 27		 je	 SHORT $LN27@CDynamicPo

; 1695 :             _Destroy(_Myfirst, _Mylast);
; 1696 :             _Getal().deallocate(_Myfirst, static_cast<size_type>(_Myend - _Myfirst));

  00036	8b 47 18	 mov	 eax, DWORD PTR [edi+24]
  00039	2b c1		 sub	 eax, ecx
; File C:\Program Files (x86)\Microsoft Visual Studio\2019\Community\VC\Tools\MSVC\14.28.29333\include\xmemory

; 810  :         _Deallocate<_New_alignof<_Ty>>(_Ptr, sizeof(_Ty) * _Count);

  0003b	83 e0 fc	 and	 eax, -4			; fffffffcH
  0003e	50		 push	 eax
  0003f	51		 push	 ecx
  00040	e8 00 00 00 00	 call	 ??$_Deallocate@$07$0A@@std@@YAXPAXI@Z ; std::_Deallocate<8,0>
; File C:\Program Files (x86)\Microsoft Visual Studio\2019\Community\VC\Tools\MSVC\14.28.29333\include\vector

; 1698 :             _Myfirst = pointer();

  00045	c7 47 10 00 00
	00 00		 mov	 DWORD PTR [edi+16], 0
; File C:\Program Files (x86)\Microsoft Visual Studio\2019\Community\VC\Tools\MSVC\14.28.29333\include\xmemory

; 810  :         _Deallocate<_New_alignof<_Ty>>(_Ptr, sizeof(_Ty) * _Count);

  0004c	83 c4 08	 add	 esp, 8
; File C:\Program Files (x86)\Microsoft Visual Studio\2019\Community\VC\Tools\MSVC\14.28.29333\include\vector

; 1699 :             _Mylast  = pointer();

  0004f	c7 47 14 00 00
	00 00		 mov	 DWORD PTR [edi+20], 0

; 1700 :             _Myend   = pointer();

  00056	c7 47 18 00 00
	00 00		 mov	 DWORD PTR [edi+24], 0
$LN27@CDynamicPo:

; 1694 :         if (_Myfirst) { // destroy and deallocate old array

  0005d	8b 4f 04	 mov	 ecx, DWORD PTR [edi+4]
  00060	85 c9		 test	 ecx, ecx
  00062	74 27		 je	 SHORT $LN34@CDynamicPo

; 1695 :             _Destroy(_Myfirst, _Mylast);
; 1696 :             _Getal().deallocate(_Myfirst, static_cast<size_type>(_Myend - _Myfirst));

  00064	8b 47 0c	 mov	 eax, DWORD PTR [edi+12]
  00067	2b c1		 sub	 eax, ecx
; File C:\Program Files (x86)\Microsoft Visual Studio\2019\Community\VC\Tools\MSVC\14.28.29333\include\xmemory

; 810  :         _Deallocate<_New_alignof<_Ty>>(_Ptr, sizeof(_Ty) * _Count);

  00069	83 e0 fc	 and	 eax, -4			; fffffffcH
  0006c	50		 push	 eax
  0006d	51		 push	 ecx
  0006e	e8 00 00 00 00	 call	 ??$_Deallocate@$07$0A@@std@@YAXPAXI@Z ; std::_Deallocate<8,0>
; File C:\Program Files (x86)\Microsoft Visual Studio\2019\Community\VC\Tools\MSVC\14.28.29333\include\vector

; 1698 :             _Myfirst = pointer();

  00073	c7 47 04 00 00
	00 00		 mov	 DWORD PTR [edi+4], 0
; File C:\Program Files (x86)\Microsoft Visual Studio\2019\Community\VC\Tools\MSVC\14.28.29333\include\xmemory

; 810  :         _Deallocate<_New_alignof<_Ty>>(_Ptr, sizeof(_Ty) * _Count);

  0007a	83 c4 08	 add	 esp, 8
; File C:\Program Files (x86)\Microsoft Visual Studio\2019\Community\VC\Tools\MSVC\14.28.29333\include\vector

; 1699 :             _Mylast  = pointer();

  0007d	c7 47 08 00 00
	00 00		 mov	 DWORD PTR [edi+8], 0

; 1700 :             _Myend   = pointer();

  00084	c7 47 0c 00 00
	00 00		 mov	 DWORD PTR [edi+12], 0
$LN34@CDynamicPo:
  0008b	5f		 pop	 edi
; File D:\Metin2 Server Files\mainline\SRC_2014\Metin2Client\eterLib\Pool.h

; 142  : 		}

  0008c	5e		 pop	 esi
  0008d	5b		 pop	 ebx
  0008e	c3		 ret	 0
??1?$CDynamicPoolEx@VCRotationDecorator@NEffectUpdateDecorator@@@@UAE@XZ ENDP ; CDynamicPoolEx<NEffectUpdateDecorator::CRotationDecorator>::~CDynamicPoolEx<NEffectUpdateDecorator::CRotationDecorator>
_TEXT	ENDS
; Function compile flags: /Ogtp
; File C:\Program Files (x86)\Microsoft Visual Studio\2019\Community\VC\Tools\MSVC\14.28.29333\include\vector
; File C:\Program Files (x86)\Microsoft Visual Studio\2019\Community\VC\Tools\MSVC\14.28.29333\include\xmemory
; File C:\Program Files (x86)\Microsoft Visual Studio\2019\Community\VC\Tools\MSVC\14.28.29333\include\vector
; File C:\Program Files (x86)\Microsoft Visual Studio\2019\Community\VC\Tools\MSVC\14.28.29333\include\xmemory
; File C:\Program Files (x86)\Microsoft Visual Studio\2019\Community\VC\Tools\MSVC\14.28.29333\include\vector
;	COMDAT ??1?$vector@PAVCInstanceBase@@V?$allocator@PAVCInstanceBase@@@std@@@std@@QAE@XZ
_TEXT	SEGMENT
??1?$vector@PAVCInstanceBase@@V?$allocator@PAVCInstanceBase@@@std@@@std@@QAE@XZ PROC ; std::vector<CInstanceBase *,std::allocator<CInstanceBase *> >::~vector<CInstanceBase *,std::allocator<CInstanceBase *> >, COMDAT
; _this$ = ecx

; 672  :     ~vector() noexcept {

  00000	56		 push	 esi
  00001	8b f1		 mov	 esi, ecx

; 1694 :         if (_Myfirst) { // destroy and deallocate old array

  00003	8b 0e		 mov	 ecx, DWORD PTR [esi]
  00005	85 c9		 test	 ecx, ecx
  00007	74 26		 je	 SHORT $LN4@vector

; 1695 :             _Destroy(_Myfirst, _Mylast);
; 1696 :             _Getal().deallocate(_Myfirst, static_cast<size_type>(_Myend - _Myfirst));

  00009	8b 46 08	 mov	 eax, DWORD PTR [esi+8]
  0000c	2b c1		 sub	 eax, ecx
; File C:\Program Files (x86)\Microsoft Visual Studio\2019\Community\VC\Tools\MSVC\14.28.29333\include\xmemory

; 810  :         _Deallocate<_New_alignof<_Ty>>(_Ptr, sizeof(_Ty) * _Count);

  0000e	83 e0 fc	 and	 eax, -4			; fffffffcH
  00011	50		 push	 eax
  00012	51		 push	 ecx
  00013	e8 00 00 00 00	 call	 ??$_Deallocate@$07$0A@@std@@YAXPAXI@Z ; std::_Deallocate<8,0>
; File C:\Program Files (x86)\Microsoft Visual Studio\2019\Community\VC\Tools\MSVC\14.28.29333\include\vector

; 1698 :             _Myfirst = pointer();

  00018	c7 06 00 00 00
	00		 mov	 DWORD PTR [esi], 0
; File C:\Program Files (x86)\Microsoft Visual Studio\2019\Community\VC\Tools\MSVC\14.28.29333\include\xmemory

; 810  :         _Deallocate<_New_alignof<_Ty>>(_Ptr, sizeof(_Ty) * _Count);

  0001e	83 c4 08	 add	 esp, 8
; File C:\Program Files (x86)\Microsoft Visual Studio\2019\Community\VC\Tools\MSVC\14.28.29333\include\vector

; 1699 :             _Mylast  = pointer();

  00021	c7 46 04 00 00
	00 00		 mov	 DWORD PTR [esi+4], 0

; 1700 :             _Myend   = pointer();

  00028	c7 46 08 00 00
	00 00		 mov	 DWORD PTR [esi+8], 0
$LN4@vector:
  0002f	5e		 pop	 esi

; 673  :         _Tidy();
; 674  : #if _ITERATOR_DEBUG_LEVEL != 0
; 675  :         auto&& _Alproxy = _GET_PROXY_ALLOCATOR(_Alty, _Getal());
; 676  :         _Delete_plain_internal(_Alproxy, _STD exchange(_Mypair._Myval2._Myproxy, nullptr));
; 677  : #endif // _ITERATOR_DEBUG_LEVEL != 0
; 678  :     }

  00030	c3		 ret	 0
??1?$vector@PAVCInstanceBase@@V?$allocator@PAVCInstanceBase@@@std@@@std@@QAE@XZ ENDP ; std::vector<CInstanceBase *,std::allocator<CInstanceBase *> >::~vector<CInstanceBase *,std::allocator<CInstanceBase *> >
_TEXT	ENDS
; Function compile flags: /Ogtp
; File D:\Metin2 Server Files\mainline\SRC_2014\Metin2Client\UserInterface\PythonPlayerSkill.cpp
; File D:\Metin2 Server Files\mainline\SRC_2014\Metin2Client\UserInterface\GameType.h
; File D:\Metin2 Server Files\mainline\SRC_2014\Metin2Client\UserInterface\PythonPlayerSkill.cpp
; File D:\Metin2 Server Files\mainline\SRC_2014\Metin2Client\UserInterface\GameType.h
; File D:\Metin2 Server Files\mainline\SRC_2014\Metin2Client\UserInterface\PythonPlayerSkill.cpp
; File D:\Metin2 Server Files\mainline\SRC_2014\Metin2Client\UserInterface\GameType.h
; File D:\Metin2 Server Files\mainline\SRC_2014\Metin2Client\UserInterface\PythonPlayerSkill.cpp
; File D:\Metin2 Server Files\mainline\SRC_2014\Metin2Client\UserInterface\GameType.h
; File D:\Metin2 Server Files\mainline\SRC_2014\Metin2Client\UserInterface\PythonPlayerSkill.cpp
; File D:\Metin2 Server Files\mainline\SRC_2014\Metin2Client\UserInterface\GameType.h
; File D:\Metin2 Server Files\mainline\SRC_2014\Metin2Client\UserInterface\PythonPlayerSkill.cpp
;	COMDAT ?__HasItem@CPythonPlayer@@IAE_NK@Z
_TEXT	SEGMENT
$T1 = -3						; size = 3
_dwItemID$ = 8						; size = 4
$T2 = 9							; size = 3
?__HasItem@CPythonPlayer@@IAE_NK@Z PROC			; CPythonPlayer::__HasItem, COMDAT
; _this$ = ecx

; 840  : {

  00000	55		 push	 ebp
  00001	8b ec		 mov	 ebp, esp
  00003	51		 push	 ecx
  00004	53		 push	 ebx
; File D:\Metin2 Server Files\mainline\SRC_2014\Metin2Client\UserInterface\GameType.h

; 191  :         window_type = _window_type;

  00005	8b 5d 08	 mov	 ebx, DWORD PTR _dwItemID$[ebp]
; File D:\Metin2 Server Files\mainline\SRC_2014\Metin2Client\UserInterface\PythonPlayerSkill.cpp

; 840  : {

  00008	56		 push	 esi
  00009	57		 push	 edi

; 841  : 	for (int i = 0; i < c_Inventory_Count; ++i)

  0000a	33 f6		 xor	 esi, esi
; File D:\Metin2 Server Files\mainline\SRC_2014\Metin2Client\UserInterface\GameType.h

; 191  :         window_type = _window_type;

  0000c	c6 45 fd 01	 mov	 BYTE PTR $T1[ebp], 1
  00010	8d 79 04	 lea	 edi, DWORD PTR [ecx+4]
$LL4@HasItem:
; File D:\Metin2 Server Files\mainline\SRC_2014\Metin2Client\UserInterface\PythonPlayerSkill.cpp

; 843  : 		if (dwItemID == GetItemIndex(TItemPos (INVENTORY, i)))

  00013	8b 17		 mov	 edx, DWORD PTR [edi]
  00015	51		 push	 ecx
  00016	8b cc		 mov	 ecx, esp
; File D:\Metin2 Server Files\mainline\SRC_2014\Metin2Client\UserInterface\GameType.h

; 192  :         cell = _cell;

  00018	66 89 75 fe	 mov	 WORD PTR $T1[ebp+1], si
; File D:\Metin2 Server Files\mainline\SRC_2014\Metin2Client\UserInterface\PythonPlayerSkill.cpp

; 843  : 		if (dwItemID == GetItemIndex(TItemPos (INVENTORY, i)))

  0001c	66 8b 45 fd	 mov	 ax, WORD PTR $T1[ebp]
  00020	66 89 01	 mov	 WORD PTR [ecx], ax
  00023	8a 45 ff	 mov	 al, BYTE PTR $T1[ebp+2]
  00026	88 41 02	 mov	 BYTE PTR [ecx+2], al
  00029	8b cf		 mov	 ecx, edi
  0002b	ff 52 40	 call	 DWORD PTR [edx+64]
  0002e	3b d8		 cmp	 ebx, eax
  00030	74 42		 je	 SHORT $LN18@HasItem

; 841  : 	for (int i = 0; i < c_Inventory_Count; ++i)

  00032	46		 inc	 esi
  00033	81 fe a8 00 00
	00		 cmp	 esi, 168		; 000000a8H
  00039	72 d8		 jb	 SHORT $LL4@HasItem

; 844  : 			return true;
; 845  : 	}
; 846  : 	for (int i = 0; i < c_DragonSoul_Inventory_Count; ++i)

  0003b	33 f6		 xor	 esi, esi
; File D:\Metin2 Server Files\mainline\SRC_2014\Metin2Client\UserInterface\GameType.h

; 191  :         window_type = _window_type;

  0003d	c6 45 09 05	 mov	 BYTE PTR $T2[ebp], 5
$LL7@HasItem:
; File D:\Metin2 Server Files\mainline\SRC_2014\Metin2Client\UserInterface\PythonPlayerSkill.cpp

; 848  : 		if (dwItemID == GetItemIndex(TItemPos (DRAGON_SOUL_INVENTORY, i)))

  00041	8b 17		 mov	 edx, DWORD PTR [edi]
  00043	51		 push	 ecx
  00044	8b cc		 mov	 ecx, esp
; File D:\Metin2 Server Files\mainline\SRC_2014\Metin2Client\UserInterface\GameType.h

; 192  :         cell = _cell;

  00046	66 89 75 0a	 mov	 WORD PTR $T2[ebp+1], si
; File D:\Metin2 Server Files\mainline\SRC_2014\Metin2Client\UserInterface\PythonPlayerSkill.cpp

; 848  : 		if (dwItemID == GetItemIndex(TItemPos (DRAGON_SOUL_INVENTORY, i)))

  0004a	66 8b 45 09	 mov	 ax, WORD PTR $T2[ebp]
  0004e	66 89 01	 mov	 WORD PTR [ecx], ax
  00051	8a 45 0b	 mov	 al, BYTE PTR $T2[ebp+2]
  00054	88 41 02	 mov	 BYTE PTR [ecx+2], al
  00057	8b cf		 mov	 ecx, edi
  00059	ff 52 40	 call	 DWORD PTR [edx+64]
  0005c	3b d8		 cmp	 ebx, eax
  0005e	74 14		 je	 SHORT $LN18@HasItem

; 844  : 			return true;
; 845  : 	}
; 846  : 	for (int i = 0; i < c_DragonSoul_Inventory_Count; ++i)

  00060	46		 inc	 esi
  00061	81 fe c0 03 00
	00		 cmp	 esi, 960		; 000003c0H
  00067	72 d8		 jb	 SHORT $LL7@HasItem

; 849  : 			return true;
; 850  : 	}
; 851  : 
; 852  : 	return false;

  00069	32 c0		 xor	 al, al

; 853  : }

  0006b	5f		 pop	 edi
  0006c	5e		 pop	 esi
  0006d	5b		 pop	 ebx
  0006e	8b e5		 mov	 esp, ebp
  00070	5d		 pop	 ebp
  00071	c2 04 00	 ret	 4
$LN18@HasItem:
  00074	5f		 pop	 edi
  00075	5e		 pop	 esi
  00076	b0 01		 mov	 al, 1
  00078	5b		 pop	 ebx
  00079	8b e5		 mov	 esp, ebp
  0007b	5d		 pop	 ebp
  0007c	c2 04 00	 ret	 4
?__HasItem@CPythonPlayer@@IAE_NK@Z ENDP			; CPythonPlayer::__HasItem
_TEXT	ENDS
; Function compile flags: /Ogtp
; File D:\Metin2 Server Files\mainline\SRC_2014\Metin2Client\UserInterface\PythonPlayerSkill.cpp
; File D:\Metin2 Server Files\mainline\SRC_2014\Metin2Client\UserInterface\GameType.h
; File D:\Metin2 Server Files\mainline\SRC_2014\Metin2Client\UserInterface\PythonPlayerSkill.cpp
;	COMDAT ?__HasEnoughArrow@CPythonPlayer@@IAE_NXZ
_TEXT	SEGMENT
_pItemData$ = -8					; size = 4
$T1 = -3						; size = 3
?__HasEnoughArrow@CPythonPlayer@@IAE_NXZ PROC		; CPythonPlayer::__HasEnoughArrow, COMDAT
; _this$ = ecx

; 826  : {

  00000	55		 push	 ebp
  00001	8b ec		 mov	 ebp, esp
  00003	83 ec 08	 sub	 esp, 8
  00006	56		 push	 esi
; File D:\Metin2 Server Files\mainline\SRC_2014\Metin2Client\UserInterface\GameType.h

; 192  :         cell = _cell;

  00007	b8 63 00 00 00	 mov	 eax, 99			; 00000063H
  0000c	c6 45 fd 01	 mov	 BYTE PTR $T1[ebp], 1
  00010	66 89 45 fe	 mov	 WORD PTR $T1[ebp+1], ax
; File D:\Metin2 Server Files\mainline\SRC_2014\Metin2Client\UserInterface\PythonPlayerSkill.cpp

; 828  : 	if (CItemManager::Instance().GetItemDataPointer(GetItemIndex(TItemPos(INVENTORY, c_Equipment_Arrow)), &pItemData))

  00014	8d 45 f8	 lea	 eax, DWORD PTR _pItemData$[ebp]
  00017	57		 push	 edi
  00018	50		 push	 eax
  00019	66 8b 45 fd	 mov	 ax, WORD PTR $T1[ebp]
  0001d	8b f9		 mov	 edi, ecx
  0001f	51		 push	 ecx
  00020	8b cc		 mov	 ecx, esp
  00022	8b 57 04	 mov	 edx, DWORD PTR [edi+4]
  00025	66 89 01	 mov	 WORD PTR [ecx], ax
  00028	8a 45 ff	 mov	 al, BYTE PTR $T1[ebp+2]
  0002b	88 41 02	 mov	 BYTE PTR [ecx+2], al
  0002e	8d 4f 04	 lea	 ecx, DWORD PTR [edi+4]
  00031	ff 52 40	 call	 DWORD PTR [edx+64]
  00034	8b 0d 00 00 00
	00		 mov	 ecx, DWORD PTR ?ms_singleton@?$CSingleton@VCItemManager@@@@0PAVCItemManager@@A ; CSingleton<CItemManager>::ms_singleton
  0003a	50		 push	 eax
  0003b	e8 00 00 00 00	 call	 ?GetItemDataPointer@CItemManager@@QAEHKPAPAVCItemData@@@Z ; CItemManager::GetItemDataPointer
  00040	85 c0		 test	 eax, eax
  00042	74 20		 je	 SHORT $LN4@HasEnoughA

; 829  : 	if (CItemData::ITEM_TYPE_WEAPON == pItemData->GetType())

  00044	8b 4d f8	 mov	 ecx, DWORD PTR _pItemData$[ebp]
  00047	e8 00 00 00 00	 call	 ?GetType@CItemData@@QBEEXZ ; CItemData::GetType
  0004c	3c 01		 cmp	 al, 1
  0004e	75 14		 jne	 SHORT $LN4@HasEnoughA

; 830  : 	if (CItemData::WEAPON_ARROW == pItemData->GetSubType())

  00050	8b 4d f8	 mov	 ecx, DWORD PTR _pItemData$[ebp]
  00053	e8 00 00 00 00	 call	 ?GetSubType@CItemData@@QBEEXZ ; CItemData::GetSubType
  00058	3c 06		 cmp	 al, 6
  0005a	75 08		 jne	 SHORT $LN4@HasEnoughA

; 831  : 	{
; 832  : 		return true;

  0005c	b0 01		 mov	 al, 1

; 837  : }

  0005e	5f		 pop	 edi
  0005f	5e		 pop	 esi
  00060	8b e5		 mov	 esp, ebp
  00062	5d		 pop	 ebp
  00063	c3		 ret	 0
$LN4@HasEnoughA:

; 833  : 	}
; 834  : 
; 835  : 	PyCallClassMemberFunc(m_ppyGameWindow, "OnCannotShotError", Py_BuildValue("(is)", GetMainCharacterIndex(), "EMPTY_ARROW"));

  00064	8b 47 04	 mov	 eax, DWORD PTR [edi+4]
  00067	8d 4f 04	 lea	 ecx, DWORD PTR [edi+4]
  0006a	68 00 00 00 00	 push	 OFFSET ??_C@_0M@FBIHMJDM@EMPTY_ARROW@
  0006f	ff 50 04	 call	 DWORD PTR [eax+4]
  00072	50		 push	 eax
  00073	68 00 00 00 00	 push	 OFFSET ??_C@_04JMLDJNEM@?$CIis?$CJ@
  00078	ff 15 00 00 00
	00		 call	 DWORD PTR __imp__Py_BuildValue
  0007e	50		 push	 eax
  0007f	68 00 00 00 00	 push	 OFFSET ??_C@_0BC@FKINMGLI@OnCannotShotError@
  00084	ff 77 08	 push	 DWORD PTR [edi+8]
  00087	e8 00 00 00 00	 call	 ?PyCallClassMemberFunc@@YA_NPAU_object@@PBD0@Z ; PyCallClassMemberFunc
  0008c	83 c4 18	 add	 esp, 24			; 00000018H

; 836  : 	return false;

  0008f	32 c0		 xor	 al, al

; 837  : }

  00091	5f		 pop	 edi
  00092	5e		 pop	 esi
  00093	8b e5		 mov	 esp, ebp
  00095	5d		 pop	 ebp
  00096	c3		 ret	 0
?__HasEnoughArrow@CPythonPlayer@@IAE_NXZ ENDP		; CPythonPlayer::__HasEnoughArrow
_TEXT	ENDS
; Function compile flags: /Ogtp
; File D:\Metin2 Server Files\mainline\SRC_2014\Metin2Client\UserInterface\PythonPlayerSkill.cpp
;	COMDAT ?__ProcessEnemySkillTargetRange@CPythonPlayer@@IAE_NAAVCInstanceBase@@0AAUSSkillData@CPythonSkill@@K@Z
_TEXT	SEGMENT
_dwSkillTargetRange$1$ = -28				; size = 4
_fSkillTargetRange$1$ = -24				; size = 4
_rkInstMain$GSCopy$1$ = -20				; size = 4
_fTargetDistance$ = -20					; size = 4
_kPPosTarget$ = -16					; size = 12
__$ArrayPad$ = -4					; size = 4
_rkInstMain$ = 8					; size = 4
_rkInstTarget$ = 12					; size = 4
_rkSkillData$ = 16					; size = 4
_dwSkillSlotIndex$ = 20					; size = 4
?__ProcessEnemySkillTargetRange@CPythonPlayer@@IAE_NAAVCInstanceBase@@0AAUSSkillData@CPythonSkill@@K@Z PROC ; CPythonPlayer::__ProcessEnemySkillTargetRange, COMDAT
; _this$ = ecx

; 397  : {

  00000	55		 push	 ebp
  00001	8b ec		 mov	 ebp, esp
  00003	83 ec 1c	 sub	 esp, 28			; 0000001cH
  00006	a1 00 00 00 00	 mov	 eax, DWORD PTR ___security_cookie
  0000b	33 c5		 xor	 eax, ebp
  0000d	89 45 fc	 mov	 DWORD PTR __$ArrayPad$[ebp], eax
  00010	8b 45 08	 mov	 eax, DWORD PTR _rkInstMain$[ebp]
  00013	53		 push	 ebx
  00014	8b 5d 0c	 mov	 ebx, DWORD PTR _rkInstTarget$[ebp]
  00017	56		 push	 esi
  00018	57		 push	 edi
  00019	8b 7d 10	 mov	 edi, DWORD PTR _rkSkillData$[ebp]
  0001c	8b f1		 mov	 esi, ecx

; 398  : 	DWORD dwSkillTargetRange=__GetSkillTargetRange(rkSkillData);

  0001e	57		 push	 edi
  0001f	89 45 ec	 mov	 DWORD PTR _rkInstMain$GSCopy$1$[ebp], eax
  00022	e8 00 00 00 00	 call	 ?__GetSkillTargetRange@CPythonPlayer@@IAEKAAUSSkillData@CPythonSkill@@@Z ; CPythonPlayer::__GetSkillTargetRange

; 399  : 	float fSkillTargetRange = float(dwSkillTargetRange);

  00027	8b c8		 mov	 ecx, eax
  00029	89 45 e4	 mov	 DWORD PTR _dwSkillTargetRange$1$[ebp], eax
  0002c	c1 e9 1f	 shr	 ecx, 31			; 0000001fH
  0002f	66 0f 6e c0	 movd	 xmm0, eax
  00033	f3 0f e6 c0	 cvtdq2pd xmm0, xmm0
  00037	f2 0f 58 04 cd
	00 00 00 00	 addsd	 xmm0, QWORD PTR __xmm@41f00000000000000000000000000000[ecx*8]
  00040	66 0f 5a c8	 cvtpd2ps xmm1, xmm0
  00044	0f 57 c0	 xorps	 xmm0, xmm0

; 400  : 	if (fSkillTargetRange <= 0.0f)

  00047	0f 2f c1	 comiss	 xmm0, xmm1
  0004a	f3 0f 11 4d e8	 movss	 DWORD PTR _fSkillTargetRange$1$[ebp], xmm1
  0004f	0f 83 e7 00 00
	00		 jae	 $LN7@ProcessEne

; 401  : 		return true;
; 402  : 
; 403  : 	// #0000806: [M2EU]  ()    	
; 404  : 	float fTargetDistance = rkInstMain.GetDistance(&rkInstTarget);

  00055	8b 4d ec	 mov	 ecx, DWORD PTR _rkInstMain$GSCopy$1$[ebp]
  00058	53		 push	 ebx
  00059	e8 00 00 00 00	 call	 ?GetDistance@CInstanceBase@@QAEMPAV1@@Z ; CInstanceBase::GetDistance

; 405  : 
; 406  : 	extern bool IS_HUGE_RACE(unsigned int vnum);
; 407  : 	if (IS_HUGE_RACE(rkInstTarget.GetRace()))

  0005e	8b cb		 mov	 ecx, ebx
  00060	d9 5d ec	 fstp	 DWORD PTR _fTargetDistance$[ebp]
  00063	e8 00 00 00 00	 call	 ?GetRace@CInstanceBase@@QAEKXZ ; CInstanceBase::GetRace
  00068	50		 push	 eax
  00069	e8 00 00 00 00	 call	 ?IS_HUGE_RACE@@YA_NI@Z	; IS_HUGE_RACE
  0006e	f3 0f 10 45 ec	 movss	 xmm0, DWORD PTR _fTargetDistance$[ebp]
  00073	83 c4 04	 add	 esp, 4
  00076	84 c0		 test	 al, al
  00078	74 08		 je	 SHORT $LN3@ProcessEne

; 408  : 	{
; 409  : 		fTargetDistance -= 200.0f; // TEMP:    .    

  0007a	f3 0f 5c 05 00
	00 00 00	 subss	 xmm0, DWORD PTR __real@43480000
$LN3@ProcessEne:

; 410  : 	}
; 411  : 
; 412  : 	if (fTargetDistance >= fSkillTargetRange)

  00082	0f 2f 45 e8	 comiss	 xmm0, DWORD PTR _fSkillTargetRange$1$[ebp]
  00086	72 4c		 jb	 SHORT $LN4@ProcessEne

; 413  : 	{
; 414  : 		if (rkSkillData.IsChargeSkill())

  00088	8b cf		 mov	 ecx, edi
  0008a	e8 00 00 00 00	 call	 ?IsChargeSkill@SSkillData@CPythonSkill@@QAEHXZ ; CPythonSkill::SSkillData::IsChargeSkill
  0008f	8b 7d 14	 mov	 edi, DWORD PTR _dwSkillSlotIndex$[ebp]
  00092	85 c0		 test	 eax, eax
  00094	74 16		 je	 SHORT $LN6@ProcessEne

; 415  : 		{
; 416  : 			if (!__IsReservedUseSkill(dwSkillSlotIndex))

  00096	57		 push	 edi
  00097	8b ce		 mov	 ecx, esi
  00099	e8 00 00 00 00	 call	 ?__IsReservedUseSkill@CPythonPlayer@@IAE_NK@Z ; CPythonPlayer::__IsReservedUseSkill
  0009e	84 c0		 test	 al, al
  000a0	75 0a		 jne	 SHORT $LN6@ProcessEne

; 417  : 				__SendUseSkill(dwSkillSlotIndex, 0);

  000a2	6a 00		 push	 0
  000a4	57		 push	 edi
  000a5	8b ce		 mov	 ecx, esi
  000a7	e8 00 00 00 00	 call	 ?__SendUseSkill@CPythonPlayer@@IAEXKK@Z ; CPythonPlayer::__SendUseSkill
$LN6@ProcessEne:

; 418  : 		}
; 419  : 
; 420  : 		__ReserveUseSkill(rkInstTarget.GetVirtualID(), dwSkillSlotIndex, dwSkillTargetRange);

  000ac	ff 75 e4	 push	 DWORD PTR _dwSkillTargetRange$1$[ebp]
  000af	8b cb		 mov	 ecx, ebx
  000b1	57		 push	 edi
  000b2	e8 00 00 00 00	 call	 ?GetVirtualID@CInstanceBase@@QAEKXZ ; CInstanceBase::GetVirtualID
  000b7	50		 push	 eax
  000b8	8b ce		 mov	 ecx, esi
  000ba	e8 00 00 00 00	 call	 ?__ReserveUseSkill@CPythonPlayer@@IAEXKKK@Z ; CPythonPlayer::__ReserveUseSkill
  000bf	5f		 pop	 edi

; 434  : 	}
; 435  : 
; 436  : 	return true;
; 437  : }

  000c0	5e		 pop	 esi
  000c1	32 c0		 xor	 al, al
  000c3	5b		 pop	 ebx
  000c4	8b 4d fc	 mov	 ecx, DWORD PTR __$ArrayPad$[ebp]
  000c7	33 cd		 xor	 ecx, ebp
  000c9	e8 00 00 00 00	 call	 @__security_check_cookie@4
  000ce	8b e5		 mov	 esp, ebp
  000d0	5d		 pop	 ebp
  000d1	c2 10 00	 ret	 16			; 00000010H
$LN4@ProcessEne:

; 421  : 
; 422  : 		return false;
; 423  : 	}
; 424  : 
; 425  : 	// 2004.07.05.myevan.    .    
; 426  : 	TPixelPosition kPPosTarget;
; 427  : 	rkInstTarget.NEW_GetPixelPosition(&kPPosTarget);

  000d4	8d 45 f0	 lea	 eax, DWORD PTR _kPPosTarget$[ebp]
  000d7	8b cb		 mov	 ecx, ebx
  000d9	50		 push	 eax
  000da	e8 00 00 00 00	 call	 ?NEW_GetPixelPosition@CInstanceBase@@QAEXPAUD3DXVECTOR3@@@Z ; CInstanceBase::NEW_GetPixelPosition

; 428  : 
; 429  : 	IBackground& rkBG=IBackground::Instance();
; 430  : 	if (rkBG.IsBlock(kPPosTarget.x, kPPosTarget.y))

  000df	f3 0f 2c 45 f4	 cvttss2si eax, DWORD PTR _kPPosTarget$[ebp+4]
  000e4	8b 0d 00 00 00
	00		 mov	 ecx, DWORD PTR ?ms_singleton@?$CSingleton@VIBackground@@@@0PAVIBackground@@A ; CSingleton<IBackground>::ms_singleton
  000ea	8b 11		 mov	 edx, DWORD PTR [ecx]
  000ec	50		 push	 eax
  000ed	f3 0f 2c 45 f0	 cvttss2si eax, DWORD PTR _kPPosTarget$[ebp]
  000f2	50		 push	 eax
  000f3	8b 42 04	 mov	 eax, DWORD PTR [edx+4]
  000f6	ff d0		 call	 eax
  000f8	84 c0		 test	 al, al
  000fa	74 40		 je	 SHORT $LN7@ProcessEne

; 431  : 	{
; 432  : 		PyCallClassMemberFunc(m_ppyGameWindow, "OnCannotUseSkill", Py_BuildValue("(is)", GetMainCharacterIndex(), "CANNOT_APPROACH"));

  000fc	8b 46 04	 mov	 eax, DWORD PTR [esi+4]
  000ff	8d 4e 04	 lea	 ecx, DWORD PTR [esi+4]
  00102	68 00 00 00 00	 push	 OFFSET ??_C@_0BA@CFBPJACC@CANNOT_APPROACH@
  00107	ff 50 04	 call	 DWORD PTR [eax+4]
  0010a	50		 push	 eax
  0010b	68 00 00 00 00	 push	 OFFSET ??_C@_04JMLDJNEM@?$CIis?$CJ@
  00110	ff 15 00 00 00
	00		 call	 DWORD PTR __imp__Py_BuildValue
  00116	50		 push	 eax
  00117	68 00 00 00 00	 push	 OFFSET ??_C@_0BB@BOHMBBJL@OnCannotUseSkill@
  0011c	ff 76 08	 push	 DWORD PTR [esi+8]
  0011f	e8 00 00 00 00	 call	 ?PyCallClassMemberFunc@@YA_NPAU_object@@PBD0@Z ; PyCallClassMemberFunc
  00124	83 c4 18	 add	 esp, 24			; 00000018H

; 433  : 		return false;

  00127	32 c0		 xor	 al, al
  00129	5f		 pop	 edi

; 434  : 	}
; 435  : 
; 436  : 	return true;
; 437  : }

  0012a	5e		 pop	 esi
  0012b	5b		 pop	 ebx
  0012c	8b 4d fc	 mov	 ecx, DWORD PTR __$ArrayPad$[ebp]
  0012f	33 cd		 xor	 ecx, ebp
  00131	e8 00 00 00 00	 call	 @__security_check_cookie@4
  00136	8b e5		 mov	 esp, ebp
  00138	5d		 pop	 ebp
  00139	c2 10 00	 ret	 16			; 00000010H
$LN7@ProcessEne:
  0013c	8b 4d fc	 mov	 ecx, DWORD PTR __$ArrayPad$[ebp]
  0013f	b0 01		 mov	 al, 1
  00141	5f		 pop	 edi
  00142	5e		 pop	 esi
  00143	33 cd		 xor	 ecx, ebp
  00145	5b		 pop	 ebx
  00146	e8 00 00 00 00	 call	 @__security_check_cookie@4
  0014b	8b e5		 mov	 esp, ebp
  0014d	5d		 pop	 ebp
  0014e	c2 10 00	 ret	 16			; 00000010H
?__ProcessEnemySkillTargetRange@CPythonPlayer@@IAE_NAAVCInstanceBase@@0AAUSSkillData@CPythonSkill@@K@Z ENDP ; CPythonPlayer::__ProcessEnemySkillTargetRange
_TEXT	ENDS
; Function compile flags: /Ogtp
; File D:\Metin2 Server Files\mainline\SRC_2014\Metin2Client\UserInterface\PythonPlayerSkill.cpp
;	COMDAT ?__GetSkillTargetRange@CPythonPlayer@@IAEKAAUSSkillData@CPythonSkill@@@Z
_TEXT	SEGMENT
_rkSkillData$ = 8					; size = 4
?__GetSkillTargetRange@CPythonPlayer@@IAEKAAUSSkillData@CPythonSkill@@@Z PROC ; CPythonPlayer::__GetSkillTargetRange, COMDAT
; _this$ = ecx

; 392  : {

  00000	55		 push	 ebp
  00001	8b ec		 mov	 ebp, esp

; 393  : 	return rkSkillData.GetTargetRange() + GetStatus(POINT_BOW_DISTANCE)*100;

  00003	8b 41 04	 mov	 eax, DWORD PTR [ecx+4]
  00006	83 c1 04	 add	 ecx, 4
  00009	56		 push	 esi
  0000a	6a 22		 push	 34			; 00000022H
  0000c	ff 50 10	 call	 DWORD PTR [eax+16]
  0000f	8b 4d 08	 mov	 ecx, DWORD PTR _rkSkillData$[ebp]
  00012	6b f0 64	 imul	 esi, eax, 100
  00015	e8 00 00 00 00	 call	 ?GetTargetRange@SSkillData@CPythonSkill@@QBEKXZ ; CPythonSkill::SSkillData::GetTargetRange
  0001a	03 c6		 add	 eax, esi
  0001c	5e		 pop	 esi

; 394  : }

  0001d	5d		 pop	 ebp
  0001e	c2 04 00	 ret	 4
?__GetSkillTargetRange@CPythonPlayer@@IAEKAAUSSkillData@CPythonSkill@@@Z ENDP ; CPythonPlayer::__GetSkillTargetRange
_TEXT	ENDS
; Function compile flags: /Ogtp
; File D:\Metin2 Server Files\mainline\SRC_2014\Metin2Client\UserInterface\PythonPlayerSkill.cpp
;	COMDAT ?__GetSkillType@CPythonPlayer@@IAEEK@Z
_TEXT	SEGMENT
_pkSkillData$ = -4					; size = 4
_dwSkillSlotIndex$ = 8					; size = 4
?__GetSkillType@CPythonPlayer@@IAEEK@Z PROC		; CPythonPlayer::__GetSkillType, COMDAT
; _this$ = ecx

; 783  : {

  00000	55		 push	 ebp
  00001	8b ec		 mov	 ebp, esp
  00003	51		 push	 ecx

; 784  : 	TSkillInstance & rkSkillInst = m_playerStatus.aSkill[dwSkillSlotIndex];
; 785  : 
; 786  : 	CPythonSkill::TSkillData * pkSkillData;
; 787  : 	CPythonSkill& rkPythonSkill = CPythonSkill::Instance();
; 788  : 	if (!rkPythonSkill.GetSkillData(rkSkillInst.dwIndex, &pkSkillData))

  00004	8d 45 fc	 lea	 eax, DWORD PTR _pkSkillData$[ebp]
  00007	50		 push	 eax
  00008	8b 45 08	 mov	 eax, DWORD PTR _dwSkillSlotIndex$[ebp]
  0000b	8d 04 80	 lea	 eax, DWORD PTR [eax+eax*4]
  0000e	ff b4 c1 68 cb
	00 00		 push	 DWORD PTR [ecx+eax*8+52072]
  00015	8b 0d 00 00 00
	00		 mov	 ecx, DWORD PTR ?ms_singleton@?$CSingleton@VCPythonSkill@@@@0PAVCPythonSkill@@A ; CSingleton<CPythonSkill>::ms_singleton
  0001b	e8 00 00 00 00	 call	 ?GetSkillData@CPythonSkill@@QAEHKPAPAUSSkillData@1@@Z ; CPythonSkill::GetSkillData
  00020	85 c0		 test	 eax, eax
  00022	75 08		 jne	 SHORT $LN2@GetSkillTy

; 789  : 	{
; 790  : 		//TraceError("CPythonPlayer::__GetSkillType(dwSkillSlotIndex=%d) - NOT CHECK", dwSkillSlotIndex);
; 791  : 		return 0;

  00024	32 c0		 xor	 al, al

; 794  : }

  00026	8b e5		 mov	 esp, ebp
  00028	5d		 pop	 ebp
  00029	c2 04 00	 ret	 4
$LN2@GetSkillTy:

; 792  : 	}
; 793  : 	return pkSkillData->GetType();

  0002c	8b 4d fc	 mov	 ecx, DWORD PTR _pkSkillData$[ebp]
  0002f	e8 00 00 00 00	 call	 ?GetType@SSkillData@CPythonSkill@@QBEEXZ ; CPythonSkill::SSkillData::GetType

; 794  : }

  00034	8b e5		 mov	 esp, ebp
  00036	5d		 pop	 ebp
  00037	c2 04 00	 ret	 4
?__GetSkillType@CPythonPlayer@@IAEEK@Z ENDP		; CPythonPlayer::__GetSkillType
_TEXT	ENDS
; Function compile flags: /Ogtp
; File D:\Metin2 Server Files\mainline\SRC_2014\Metin2Client\UserInterface\PythonPlayerSkill.cpp
;	COMDAT ?__RunCoolTime@CPythonPlayer@@IAEXK@Z
_TEXT	SEGMENT
tv169 = -4						; size = 4
_pkSkillData$ = 8					; size = 4
_dwSkillSlotIndex$ = 8					; size = 4
?__RunCoolTime@CPythonPlayer@@IAEXK@Z PROC		; CPythonPlayer::__RunCoolTime, COMDAT
; _this$ = ecx

; 797  : {

  00000	55		 push	 ebp
  00001	8b ec		 mov	 ebp, esp
  00003	51		 push	 ecx
  00004	53		 push	 ebx
  00005	56		 push	 esi
  00006	57		 push	 edi

; 798  : 	TSkillInstance & rkSkillInst = m_playerStatus.aSkill[dwSkillSlotIndex];

  00007	8b 7d 08	 mov	 edi, DWORD PTR _dwSkillSlotIndex$[ebp]

; 799  : 
; 800  : 	CPythonSkill::TSkillData * pkSkillData;
; 801  : 	if (!CPythonSkill::Instance().GetSkillData(rkSkillInst.dwIndex, &pkSkillData))

  0000a	8d 45 08	 lea	 eax, DWORD PTR _pkSkillData$[ebp]
  0000d	8b f1		 mov	 esi, ecx
  0000f	8b 0d 00 00 00
	00		 mov	 ecx, DWORD PTR ?ms_singleton@?$CSingleton@VCPythonSkill@@@@0PAVCPythonSkill@@A ; CSingleton<CPythonSkill>::ms_singleton
  00015	50		 push	 eax
  00016	8d 1c bf	 lea	 ebx, DWORD PTR [edi+edi*4]
  00019	ff b4 de 68 cb
	00 00		 push	 DWORD PTR [esi+ebx*8+52072]
  00020	e8 00 00 00 00	 call	 ?GetSkillData@CPythonSkill@@QAEHKPAPAUSSkillData@1@@Z ; CPythonSkill::GetSkillData
  00025	85 c0		 test	 eax, eax
  00027	75 17		 jne	 SHORT $LN2@RunCoolTim

; 802  : 	{
; 803  : 		TraceError("CPythonPlayer::__SendUseSkill(dwSkillSlotIndex=%d) - NOT CHECK", dwSkillSlotIndex);

  00029	57		 push	 edi
  0002a	68 00 00 00 00	 push	 OFFSET ??_C@_0DP@EKGIGFIO@CPythonPlayer?3?3__SendUseSkill?$CId@
  0002f	e8 00 00 00 00	 call	 ?TraceError@@YAXPBDZZ	; TraceError
  00034	83 c4 08	 add	 esp, 8
  00037	5f		 pop	 edi

; 823  : }

  00038	5e		 pop	 esi
  00039	5b		 pop	 ebx
  0003a	8b e5		 mov	 esp, ebp
  0003c	5d		 pop	 ebp
  0003d	c2 04 00	 ret	 4
$LN2@RunCoolTim:

; 804  : 		return;
; 805  : 	}
; 806  : 
; 807  : 	CPythonSkill::TSkillData& rkSkillData=*pkSkillData;
; 808  : 
; 809  : 	rkSkillInst.fCoolTime = rkSkillData.GetSkillCoolTime(rkSkillInst.fcurEfficientPercentage);

  00040	f3 0f 10 84 de
	78 cb 00 00	 movss	 xmm0, DWORD PTR [esi+ebx*8+52088]
  00049	51		 push	 ecx
  0004a	8b 4d 08	 mov	 ecx, DWORD PTR _pkSkillData$[ebp]
  0004d	f3 0f 11 04 24	 movss	 DWORD PTR [esp], xmm0
  00052	e8 00 00 00 00	 call	 ?GetSkillCoolTime@SSkillData@CPythonSkill@@QAEKM@Z ; CPythonSkill::SSkillData::GetSkillCoolTime
  00057	66 0f 6e c0	 movd	 xmm0, eax
  0005b	f3 0f e6 c0	 cvtdq2pd xmm0, xmm0
  0005f	c1 e8 1f	 shr	 eax, 31			; 0000001fH
  00062	f2 0f 58 04 c5
	00 00 00 00	 addsd	 xmm0, QWORD PTR __xmm@41f00000000000000000000000000000[eax*8]
  0006b	66 0f 5a c0	 cvtpd2ps xmm0, xmm0
  0006f	f3 0f 11 84 de
	84 cb 00 00	 movss	 DWORD PTR [esi+ebx*8+52100], xmm0

; 810  : 	rkSkillInst.fLastUsedTime = CTimer::Instance().GetCurrentSecond();

  00078	8b 0d 00 00 00
	00		 mov	 ecx, DWORD PTR ?ms_singleton@?$CSingleton@VCTimer@@@@0PAVCTimer@@A ; CSingleton<CTimer>::ms_singleton
  0007e	e8 00 00 00 00	 call	 ?GetCurrentSecond@CTimer@@QAEMXZ ; CTimer::GetCurrentSecond

; 811  : 
; 812  : 	int iSpd = 100 - GetStatus(POINT_CASTING_SPEED);

  00083	8d 4e 04	 lea	 ecx, DWORD PTR [esi+4]
  00086	d9 9c de 88 cb
	00 00		 fstp	 DWORD PTR [esi+ebx*8+52104]
  0008d	8b 01		 mov	 eax, DWORD PTR [ecx]
  0008f	6a 15		 push	 21			; 00000015H
  00091	ff 50 10	 call	 DWORD PTR [eax+16]
  00094	ba 64 00 00 00	 mov	 edx, 100		; 00000064H
  00099	8b ca		 mov	 ecx, edx
  0009b	2b c8		 sub	 ecx, eax

; 813  : 	if (iSpd > 0)

  0009d	85 c9		 test	 ecx, ecx
  0009f	7e 04		 jle	 SHORT $LN8@RunCoolTim

; 814  : 		iSpd = 100 + iSpd;

  000a1	03 ca		 add	 ecx, edx
  000a3	eb 16		 jmp	 SHORT $LN6@RunCoolTim
$LN8@RunCoolTim:

; 815  : 	else if (iSpd < 0)

  000a5	79 12		 jns	 SHORT $LN5@RunCoolTim

; 816  : 		iSpd = 10000 / (100 - iSpd);

  000a7	2b d1		 sub	 edx, ecx
  000a9	b8 10 27 00 00	 mov	 eax, 10000		; 00002710H
  000ae	89 55 fc	 mov	 DWORD PTR tv169[ebp], edx
  000b1	99		 cdq
  000b2	f7 7d fc	 idiv	 DWORD PTR tv169[ebp]
  000b5	8b c8		 mov	 ecx, eax
  000b7	eb 02		 jmp	 SHORT $LN6@RunCoolTim
$LN5@RunCoolTim:

; 817  : 	else
; 818  : 		iSpd = 100;

  000b9	8b ca		 mov	 ecx, edx
$LN6@RunCoolTim:
  000bb	66 0f 6e c1	 movd	 xmm0, ecx

; 819  : 
; 820  : 	rkSkillInst.fCoolTime = rkSkillInst.fCoolTime * iSpd / 100;
; 821  : 
; 822  : 	PyCallClassMemberFunc(m_ppyGameWindow, "RunUseSkillEvent", Py_BuildValue("(if)", dwSkillSlotIndex, rkSkillInst.fCoolTime));

  000bf	83 ec 08	 sub	 esp, 8
  000c2	0f 5b c0	 cvtdq2ps xmm0, xmm0
  000c5	f3 0f 59 84 de
	84 cb 00 00	 mulss	 xmm0, DWORD PTR [esi+ebx*8+52100]
  000ce	f3 0f 5e 05 00
	00 00 00	 divss	 xmm0, DWORD PTR __real@42c80000
  000d6	f3 0f 11 84 de
	84 cb 00 00	 movss	 DWORD PTR [esi+ebx*8+52100], xmm0
  000df	0f 5a c0	 cvtps2pd xmm0, xmm0
  000e2	f2 0f 11 04 24	 movsd	 QWORD PTR [esp], xmm0
  000e7	57		 push	 edi
  000e8	68 00 00 00 00	 push	 OFFSET ??_C@_04IGFOPMNH@?$CIif?$CJ@
  000ed	ff 15 00 00 00
	00		 call	 DWORD PTR __imp__Py_BuildValue
  000f3	50		 push	 eax
  000f4	68 00 00 00 00	 push	 OFFSET ??_C@_0BB@GJACMMFG@RunUseSkillEvent@
  000f9	ff 76 08	 push	 DWORD PTR [esi+8]
  000fc	e8 00 00 00 00	 call	 ?PyCallClassMemberFunc@@YA_NPAU_object@@PBD0@Z ; PyCallClassMemberFunc
  00101	83 c4 1c	 add	 esp, 28			; 0000001cH
  00104	5f		 pop	 edi

; 823  : }

  00105	5e		 pop	 esi
  00106	5b		 pop	 ebx
  00107	8b e5		 mov	 esp, ebp
  00109	5d		 pop	 ebp
  0010a	c2 04 00	 ret	 4
?__RunCoolTime@CPythonPlayer@@IAEXK@Z ENDP		; CPythonPlayer::__RunCoolTime
_TEXT	ENDS
; Function compile flags: /Ogtp
; File D:\Metin2 Server Files\mainline\SRC_2014\Metin2Client\UserInterface\PythonPlayerSkill.cpp
;	COMDAT ?__SendUseSkill@CPythonPlayer@@IAEXKK@Z
_TEXT	SEGMENT
_dwSkillSlotIndex$ = 8					; size = 4
_dwTargetVID$ = 12					; size = 4
?__SendUseSkill@CPythonPlayer@@IAEXKK@Z PROC		; CPythonPlayer::__SendUseSkill, COMDAT
; _this$ = ecx

; 773  : {

  00000	55		 push	 ebp
  00001	8b ec		 mov	 ebp, esp
  00003	56		 push	 esi

; 774  : 	TSkillInstance & rkSkillInst = m_playerStatus.aSkill[dwSkillSlotIndex];

  00004	8b 75 08	 mov	 esi, DWORD PTR _dwSkillSlotIndex$[ebp]
  00007	57		 push	 edi

; 775  : 
; 776  : 	CPythonNetworkStream& rkNetStream=CPythonNetworkStream::Instance();
; 777  : 	rkNetStream.SendUseSkillPacket(rkSkillInst.dwIndex, dwTargetVID);

  00008	ff 75 0c	 push	 DWORD PTR _dwTargetVID$[ebp]
  0000b	8b f9		 mov	 edi, ecx
  0000d	8b 0d 00 00 00
	00		 mov	 ecx, DWORD PTR ?ms_singleton@?$CSingleton@VCPythonNetworkStream@@@@0PAVCPythonNetworkStream@@A ; CSingleton<CPythonNetworkStream>::ms_singleton
  00013	8d 04 b6	 lea	 eax, DWORD PTR [esi+esi*4]
  00016	ff b4 c7 68 cb
	00 00		 push	 DWORD PTR [edi+eax*8+52072]
  0001d	e8 00 00 00 00	 call	 ?SendUseSkillPacket@CPythonNetworkStream@@QAE_NKK@Z ; CPythonNetworkStream::SendUseSkillPacket

; 778  : 
; 779  : 	__RunCoolTime(dwSkillSlotIndex);

  00022	56		 push	 esi
  00023	8b cf		 mov	 ecx, edi
  00025	e8 00 00 00 00	 call	 ?__RunCoolTime@CPythonPlayer@@IAEXK@Z ; CPythonPlayer::__RunCoolTime
  0002a	5f		 pop	 edi
  0002b	5e		 pop	 esi

; 780  : }

  0002c	5d		 pop	 ebp
  0002d	c2 08 00	 ret	 8
?__SendUseSkill@CPythonPlayer@@IAEXKK@Z ENDP		; CPythonPlayer::__SendUseSkill
_TEXT	ENDS
; Function compile flags: /Ogtp
; File D:\Metin2 Server Files\mainline\SRC_2014\Metin2Client\UserInterface\PythonPlayerSkill.cpp
;	COMDAT ?__CheckDashAffect@CPythonPlayer@@IAE_NAAVCInstanceBase@@@Z
_TEXT	SEGMENT
_rkInstMain$ = 8					; size = 4
?__CheckDashAffect@CPythonPlayer@@IAE_NAAVCInstanceBase@@@Z PROC ; CPythonPlayer::__CheckDashAffect, COMDAT
; _this$ = ecx

; 382  : {

  00000	55		 push	 ebp
  00001	8b ec		 mov	 ebp, esp

; 383  : 	return rkInstMain.IsAffect(CInstanceBase::AFFECT_DASH);

  00003	8b 4d 08	 mov	 ecx, DWORD PTR _rkInstMain$[ebp]
  00006	6a 1f		 push	 31			; 0000001fH
  00008	e8 00 00 00 00	 call	 ?IsAffect@CInstanceBase@@QAE_NI@Z ; CInstanceBase::IsAffect

; 384  : }

  0000d	5d		 pop	 ebp
  0000e	c2 04 00	 ret	 4
?__CheckDashAffect@CPythonPlayer@@IAE_NAAVCInstanceBase@@@Z ENDP ; CPythonPlayer::__CheckDashAffect
_TEXT	ENDS
; Function compile flags: /Ogtp
; File D:\Metin2 Server Files\mainline\SRC_2014\Metin2Client\UserInterface\PythonPlayerSkill.cpp
;	COMDAT ?__CheckShortArrow@CPythonPlayer@@IAE_NAAUSSkillInstance@1@AAUSSkillData@CPythonSkill@@@Z
_TEXT	SEGMENT
_rkSkillInst$ = 8					; size = 4
_rkSkillData$ = 12					; size = 4
?__CheckShortArrow@CPythonPlayer@@IAE_NAAUSSkillInstance@1@AAUSSkillData@CPythonSkill@@@Z PROC ; CPythonPlayer::__CheckShortArrow, COMDAT
; _this$ = ecx

; 310  : {

  00000	55		 push	 ebp
  00001	8b ec		 mov	 ebp, esp
  00003	56		 push	 esi
  00004	8b f1		 mov	 esi, ecx

; 311  : 	if (!rkSkillData.IsNeedBow())

  00006	8b 4d 0c	 mov	 ecx, DWORD PTR _rkSkillData$[ebp]
  00009	e8 00 00 00 00	 call	 ?IsNeedBow@SSkillData@CPythonSkill@@QAEHXZ ; CPythonSkill::SSkillData::IsNeedBow
  0000e	85 c0		 test	 eax, eax
  00010	74 12		 je	 SHORT $LN5@CheckShort

; 312  : 		return false;
; 313  : 
; 314  : 	if (__HasEnoughArrow())

  00012	8b ce		 mov	 ecx, esi
  00014	e8 00 00 00 00	 call	 ?__HasEnoughArrow@CPythonPlayer@@IAE_NXZ ; CPythonPlayer::__HasEnoughArrow
  00019	84 c0		 test	 al, al
  0001b	75 07		 jne	 SHORT $LN5@CheckShort

; 316  : 	
; 317  : 	return true;

  0001d	b0 01		 mov	 al, 1
  0001f	5e		 pop	 esi

; 318  : }

  00020	5d		 pop	 ebp
  00021	c2 08 00	 ret	 8
$LN5@CheckShort:

; 315  : 		return false;

  00024	32 c0		 xor	 al, al
  00026	5e		 pop	 esi

; 318  : }

  00027	5d		 pop	 ebp
  00028	c2 08 00	 ret	 8
?__CheckShortArrow@CPythonPlayer@@IAE_NAAUSSkillInstance@1@AAUSSkillData@CPythonSkill@@@Z ENDP ; CPythonPlayer::__CheckShortArrow
_TEXT	ENDS
; Function compile flags: /Ogtp
; File D:\Metin2 Server Files\mainline\SRC_2014\Metin2Client\UserInterface\PythonPlayerSkill.cpp
;	COMDAT ?__CheckShortMana@CPythonPlayer@@IAE_NAAUSSkillInstance@1@AAUSSkillData@CPythonSkill@@@Z
_TEXT	SEGMENT
_rkSkillInst$ = 8					; size = 4
_rkSkillData$ = 12					; size = 4
?__CheckShortMana@CPythonPlayer@@IAE_NAAUSSkillInstance@1@AAUSSkillData@CPythonSkill@@@Z PROC ; CPythonPlayer::__CheckShortMana, COMDAT
; _this$ = ecx

; 321  : {

  00000	55		 push	 ebp
  00001	8b ec		 mov	 ebp, esp

; 322  : 	extern const DWORD c_iSkillIndex_Summon;
; 323  : 	if (c_iSkillIndex_Summon == rkSkillInst.dwIndex)

  00003	8b 55 08	 mov	 edx, DWORD PTR _rkSkillInst$[ebp]
  00006	a1 00 00 00 00	 mov	 eax, DWORD PTR ?c_iSkillIndex_Summon@@3KB ; c_iSkillIndex_Summon
  0000b	53		 push	 ebx
  0000c	56		 push	 esi
  0000d	57		 push	 edi
  0000e	8b f9		 mov	 edi, ecx
  00010	3b 02		 cmp	 eax, DWORD PTR [edx]
  00012	74 72		 je	 SHORT $LN9@CheckShort

; 324  : 		return false;
; 325  : 
; 326  : 	int iNeedSP = rkSkillData.GetNeedSP(rkSkillInst.fcurEfficientPercentage);

  00014	f3 0f 10 42 10	 movss	 xmm0, DWORD PTR [edx+16]
  00019	8b 5d 0c	 mov	 ebx, DWORD PTR _rkSkillData$[ebp]
  0001c	51		 push	 ecx
  0001d	8b cb		 mov	 ecx, ebx
  0001f	f3 0f 11 04 24	 movss	 DWORD PTR [esp], xmm0
  00024	e8 00 00 00 00	 call	 ?GetNeedSP@SSkillData@CPythonSkill@@QAEHM@Z ; CPythonSkill::SSkillData::GetNeedSP

; 327  : 	int icurSP = GetStatus(POINT_SP);

  00029	8b 57 04	 mov	 edx, DWORD PTR [edi+4]
  0002c	8d 4f 04	 lea	 ecx, DWORD PTR [edi+4]
  0002f	6a 07		 push	 7
  00031	8b f0		 mov	 esi, eax
  00033	ff 52 10	 call	 DWORD PTR [edx+16]

; 328  : 
; 329  : 	// NOTE : ToggleSkill    SP  0 .
; 330  : 	if (!rkSkillData.IsToggleSkill())

  00036	8b cb		 mov	 ecx, ebx
  00038	8b f8		 mov	 edi, eax
  0003a	e8 00 00 00 00	 call	 ?IsToggleSkill@SSkillData@CPythonSkill@@QAEHXZ ; CPythonSkill::SSkillData::IsToggleSkill
  0003f	85 c0		 test	 eax, eax
  00041	75 22		 jne	 SHORT $LN4@CheckShort

; 331  : 	{
; 332  : 		if (iNeedSP == 0)

  00043	85 f6		 test	 esi, esi
  00045	75 1e		 jne	 SHORT $LN4@CheckShort

; 333  : 		{
; 334  : 			CPythonChat::Instance().AppendChat(CHAT_TYPE_INFO, "!!! Find strange game data. Please reinstall metin2.");

  00047	8b 0d 00 00 00
	00		 mov	 ecx, DWORD PTR ?ms_singleton@?$CSingleton@VCPythonChat@@@@0PAVCPythonChat@@A ; CSingleton<CPythonChat>::ms_singleton
  0004d	83 c1 04	 add	 ecx, 4
  00050	68 00 00 00 00	 push	 OFFSET ??_C@_0DF@OHCKPFBO@?$CB?$CB?$CB?5Find?5strange?5game?5data?4?5Ple@
  00055	6a 01		 push	 1
  00057	8b 01		 mov	 eax, DWORD PTR [ecx]
  00059	ff 50 04	 call	 DWORD PTR [eax+4]
$LN11@CheckShort:

; 348  : 				return true;
; 349  : 	}
; 350  : 
; 351  : 	return false;
; 352  : }

  0005c	5f		 pop	 edi
  0005d	5e		 pop	 esi
  0005e	b0 01		 mov	 al, 1
  00060	5b		 pop	 ebx
  00061	5d		 pop	 ebp
  00062	c2 08 00	 ret	 8
$LN4@CheckShort:

; 335  : 			return true;
; 336  : 		}
; 337  : 	}
; 338  : 
; 339  : 	if (rkSkillData.CanUseIfNotEnough())

  00065	8b cb		 mov	 ecx, ebx
  00067	e8 00 00 00 00	 call	 ?CanUseIfNotEnough@SSkillData@CPythonSkill@@QAEHXZ ; CPythonSkill::SSkillData::CanUseIfNotEnough
  0006c	85 c0		 test	 eax, eax
  0006e	74 0d		 je	 SHORT $LN5@CheckShort

; 340  : 	{
; 341  : 		if (icurSP <= 0)

  00070	85 ff		 test	 edi, edi
  00072	7f 12		 jg	 SHORT $LN9@CheckShort

; 348  : 				return true;
; 349  : 	}
; 350  : 
; 351  : 	return false;
; 352  : }

  00074	5f		 pop	 edi
  00075	5e		 pop	 esi
  00076	b0 01		 mov	 al, 1
  00078	5b		 pop	 ebx
  00079	5d		 pop	 ebp
  0007a	c2 08 00	 ret	 8
$LN5@CheckShort:

; 342  : 			return true;
; 343  : 	}
; 344  : 	else
; 345  : 	{
; 346  : 		if (-1 != iNeedSP)

  0007d	83 fe ff	 cmp	 esi, -1
  00080	74 04		 je	 SHORT $LN9@CheckShort

; 347  : 			if (iNeedSP > icurSP)

  00082	3b f7		 cmp	 esi, edi
  00084	7f d6		 jg	 SHORT $LN11@CheckShort
$LN9@CheckShort:
  00086	5f		 pop	 edi

; 348  : 				return true;
; 349  : 	}
; 350  : 
; 351  : 	return false;
; 352  : }

  00087	5e		 pop	 esi
  00088	32 c0		 xor	 al, al
  0008a	5b		 pop	 ebx
  0008b	5d		 pop	 ebp
  0008c	c2 08 00	 ret	 8
?__CheckShortMana@CPythonPlayer@@IAE_NAAUSSkillInstance@1@AAUSSkillData@CPythonSkill@@@Z ENDP ; CPythonPlayer::__CheckShortMana
_TEXT	ENDS
; Function compile flags: /Ogtp
; File D:\Metin2 Server Files\mainline\SRC_2014\Metin2Client\UserInterface\PythonPlayerSkill.cpp
;	COMDAT ?__CheckShortLife@CPythonPlayer@@IAE_NAAUSSkillInstance@1@AAUSSkillData@CPythonSkill@@@Z
_TEXT	SEGMENT
_rkSkillInst$ = 8					; size = 4
_rkSkillData$ = 12					; size = 4
?__CheckShortLife@CPythonPlayer@@IAE_NAAUSSkillInstance@1@AAUSSkillData@CPythonSkill@@@Z PROC ; CPythonPlayer::__CheckShortLife, COMDAT
; _this$ = ecx

; 355  : {

  00000	55		 push	 ebp
  00001	8b ec		 mov	 ebp, esp
  00003	56		 push	 esi

; 356  : 	if (!rkSkillData.IsUseHPSkill())

  00004	8b 75 0c	 mov	 esi, DWORD PTR _rkSkillData$[ebp]
  00007	57		 push	 edi
  00008	8b f9		 mov	 edi, ecx
  0000a	8b ce		 mov	 ecx, esi
  0000c	e8 00 00 00 00	 call	 ?IsUseHPSkill@SSkillData@CPythonSkill@@QAEHXZ ; CPythonSkill::SSkillData::IsUseHPSkill
  00011	85 c0		 test	 eax, eax
  00013	74 2e		 je	 SHORT $LN5@CheckShort

; 357  : 		return false;
; 358  : 	
; 359  : 	DWORD dwNeedHP = rkSkillData.GetNeedSP(rkSkillInst.fcurEfficientPercentage);

  00015	8b 45 08	 mov	 eax, DWORD PTR _rkSkillInst$[ebp]
  00018	51		 push	 ecx
  00019	8b ce		 mov	 ecx, esi
  0001b	f3 0f 10 40 10	 movss	 xmm0, DWORD PTR [eax+16]
  00020	f3 0f 11 04 24	 movss	 DWORD PTR [esp], xmm0
  00025	e8 00 00 00 00	 call	 ?GetNeedSP@SSkillData@CPythonSkill@@QAEHM@Z ; CPythonSkill::SSkillData::GetNeedSP

; 360  : 	if (dwNeedHP <= GetStatus(POINT_HP))

  0002a	8b 57 04	 mov	 edx, DWORD PTR [edi+4]
  0002d	8d 4f 04	 lea	 ecx, DWORD PTR [edi+4]
  00030	6a 05		 push	 5
  00032	8b f0		 mov	 esi, eax
  00034	ff 52 10	 call	 DWORD PTR [edx+16]
  00037	3b f0		 cmp	 esi, eax
  00039	76 08		 jbe	 SHORT $LN5@CheckShort

; 362  : 
; 363  : 	return true;

  0003b	5f		 pop	 edi
  0003c	b0 01		 mov	 al, 1

; 364  : }

  0003e	5e		 pop	 esi
  0003f	5d		 pop	 ebp
  00040	c2 08 00	 ret	 8
$LN5@CheckShort:
  00043	5f		 pop	 edi

; 361  : 		return false;

  00044	32 c0		 xor	 al, al

; 364  : }

  00046	5e		 pop	 esi
  00047	5d		 pop	 ebp
  00048	c2 08 00	 ret	 8
?__CheckShortLife@CPythonPlayer@@IAE_NAAUSSkillInstance@1@AAUSSkillData@CPythonSkill@@@Z ENDP ; CPythonPlayer::__CheckShortLife
_TEXT	ENDS
; Function compile flags: /Ogtp
; File D:\Metin2 Server Files\mainline\SRC_2014\Metin2Client\UserInterface\PythonPlayerSkill.cpp
;	COMDAT ?__CheckRestSkillCoolTime@CPythonPlayer@@IAE_NK@Z
_TEXT	SEGMENT
_fElapsedTime$ = 8					; size = 4
_dwSlotIndex$ = 8					; size = 4
?__CheckRestSkillCoolTime@CPythonPlayer@@IAE_NK@Z PROC	; CPythonPlayer::__CheckRestSkillCoolTime, COMDAT
; _this$ = ecx

; 367  : {

  00000	55		 push	 ebp
  00001	8b ec		 mov	 ebp, esp
  00003	57		 push	 edi
  00004	8b f9		 mov	 edi, ecx

; 368  : 	if (!m_sysIsCoolTime)

  00006	83 bf bc f7 00
	00 00		 cmp	 DWORD PTR [edi+63420], 0
  0000d	74 3a		 je	 SHORT $LN6@CheckRestS

; 369  : 		return false;
; 370  : 
; 371  : 	if (dwSlotIndex >= SKILL_MAX_NUM)

  0000f	8b 45 08	 mov	 eax, DWORD PTR _dwSlotIndex$[ebp]
  00012	3d ff 00 00 00	 cmp	 eax, 255		; 000000ffH
  00017	73 30		 jae	 SHORT $LN6@CheckRestS

; 372  : 		return false;
; 373  : 
; 374  : 	float fElapsedTime = CTimer::Instance().GetCurrentSecond() - m_playerStatus.aSkill[dwSlotIndex].fLastUsedTime;

  00019	8b 0d 00 00 00
	00		 mov	 ecx, DWORD PTR ?ms_singleton@?$CSingleton@VCTimer@@@@0PAVCTimer@@A ; CSingleton<CTimer>::ms_singleton
  0001f	56		 push	 esi
  00020	8d 34 80	 lea	 esi, DWORD PTR [eax+eax*4]
  00023	e8 00 00 00 00	 call	 ?GetCurrentSecond@CTimer@@QAEMXZ ; CTimer::GetCurrentSecond
  00028	d8 a4 f7 88 cb
	00 00		 fsub	 DWORD PTR [edi+esi*8+52104]
  0002f	d9 5d 08	 fstp	 DWORD PTR _fElapsedTime$[ebp]

; 375  : 	if (fElapsedTime >= m_playerStatus.aSkill[dwSlotIndex].fCoolTime)

  00032	f3 0f 10 45 08	 movss	 xmm0, DWORD PTR _fElapsedTime$[ebp]
  00037	0f 2f 84 f7 84
	cb 00 00	 comiss	 xmm0, DWORD PTR [edi+esi*8+52100]
  0003f	5e		 pop	 esi
  00040	73 07		 jae	 SHORT $LN6@CheckRestS

; 377  : 
; 378  : 	return true;

  00042	b0 01		 mov	 al, 1
  00044	5f		 pop	 edi

; 379  : }

  00045	5d		 pop	 ebp
  00046	c2 04 00	 ret	 4
$LN6@CheckRestS:

; 376  : 		return false;	

  00049	32 c0		 xor	 al, al
  0004b	5f		 pop	 edi

; 379  : }

  0004c	5d		 pop	 ebp
  0004d	c2 04 00	 ret	 4
?__CheckRestSkillCoolTime@CPythonPlayer@@IAE_NK@Z ENDP	; CPythonPlayer::__CheckRestSkillCoolTime
_TEXT	ENDS
; Function compile flags: /Ogtp
; File D:\Metin2 Server Files\mainline\SRC_2014\Metin2Client\UserInterface\PythonPlayerSkill.cpp
;	COMDAT ?__CheckSpecialSkill@CPythonPlayer@@IAE_NK@Z
_TEXT	SEGMENT
_dwSlotIndex$1 = 8					; size = 4
_dwSkillIndex$ = 8					; size = 4
?__CheckSpecialSkill@CPythonPlayer@@IAE_NK@Z PROC	; CPythonPlayer::__CheckSpecialSkill, COMDAT
; _this$ = ecx

; 951  : {

  00000	55		 push	 ebp
  00001	8b ec		 mov	 ebp, esp
  00003	53		 push	 ebx
  00004	56		 push	 esi
  00005	57		 push	 edi
  00006	8b f9		 mov	 edi, ecx

; 952  : 	CInstanceBase* pkInstMain = NEW_GetMainActorPtr();

  00008	8b 47 04	 mov	 eax, DWORD PTR [edi+4]
  0000b	8d 4f 04	 lea	 ecx, DWORD PTR [edi+4]
  0000e	ff 90 88 00 00
	00		 call	 DWORD PTR [eax+136]

; 953  : 	if (!pkInstMain)

  00014	85 c0		 test	 eax, eax
  00016	0f 84 9e 00 00
	00		 je	 $LN7@CheckSpeci

; 954  : 		return false;
; 955  : 
; 956  : 	// Fishing
; 957  : 	if (c_iSkillIndex_Fishing == dwSkillIndex)

  0001c	8b 75 08	 mov	 esi, DWORD PTR _dwSkillIndex$[ebp]
  0001f	39 35 00 00 00
	00		 cmp	 DWORD PTR ?c_iSkillIndex_Fishing@@3KB, esi ; c_iSkillIndex_Fishing
  00025	75 22		 jne	 SHORT $LN3@CheckSpeci

; 958  : 	{
; 959  : 		if (pkInstMain->IsFishingMode())

  00027	8b c8		 mov	 ecx, eax
  00029	e8 00 00 00 00	 call	 ?IsFishingMode@CInstanceBase@@QAEHXZ ; CInstanceBase::IsFishingMode
  0002e	85 c0		 test	 eax, eax
  00030	74 10		 je	 SHORT $LN5@CheckSpeci

; 960  : 		{
; 961  : 			NEW_Fishing();

  00032	8b cf		 mov	 ecx, edi
  00034	e8 00 00 00 00	 call	 ?NEW_Fishing@CPythonPlayer@@QAEXXZ ; CPythonPlayer::NEW_Fishing
  00039	5f		 pop	 edi

; 988  : 	}
; 989  : 
; 990  : 	return false;
; 991  : }

  0003a	5e		 pop	 esi
  0003b	b0 01		 mov	 al, 1
  0003d	5b		 pop	 ebx
  0003e	5d		 pop	 ebp
  0003f	c2 04 00	 ret	 4
$LN5@CheckSpeci:

; 962  : 		}
; 963  : 		else
; 964  : 		{
; 965  : 			PyCallClassMemberFunc(m_ppyGameWindow, "OnCannotUseSkill", Py_BuildValue("(is)", GetMainCharacterIndex(), "EQUIP_FISHING_ROD"));

  00042	68 00 00 00 00	 push	 OFFSET ??_C@_0BC@ENEHNNJB@EQUIP_FISHING_ROD@
  00047	eb 42		 jmp	 SHORT $LN12@CheckSpeci
$LN3@CheckSpeci:

; 966  : 		}
; 967  : 		return true;
; 968  : 	}
; 969  : 
; 970  : 	// Combo
; 971  : 	else if (c_iSkillIndex_Combo == dwSkillIndex)

  00049	39 35 00 00 00
	00		 cmp	 DWORD PTR ?c_iSkillIndex_Combo@@3KB, esi ; c_iSkillIndex_Combo
  0004f	75 69		 jne	 SHORT $LN7@CheckSpeci

; 972  : 	{
; 973  : 		DWORD dwSlotIndex;
; 974  : 		if (!GetSkillSlotIndex(dwSkillIndex, &dwSlotIndex))

  00051	8d 45 08	 lea	 eax, DWORD PTR _dwSlotIndex$1[ebp]
  00054	8b cf		 mov	 ecx, edi
  00056	50		 push	 eax
  00057	56		 push	 esi
  00058	e8 00 00 00 00	 call	 ?GetSkillSlotIndex@CPythonPlayer@@QAE_NKPAK@Z ; CPythonPlayer::GetSkillSlotIndex
  0005d	84 c0		 test	 al, al
  0005f	74 59		 je	 SHORT $LN7@CheckSpeci

; 975  : 			return false;
; 976  : 
; 977  : 		int iLevel = GetSkillLevel(dwSlotIndex);

  00061	ff 75 08	 push	 DWORD PTR _dwSlotIndex$1[ebp]
  00064	8b cf		 mov	 ecx, edi
  00066	e8 00 00 00 00	 call	 ?GetSkillLevel@CPythonPlayer@@QAEHK@Z ; CPythonPlayer::GetSkillLevel

; 978  : 		if (iLevel > 0)

  0006b	85 c0		 test	 eax, eax
  0006d	7e 17		 jle	 SHORT $LN9@CheckSpeci

; 979  : 		{
; 980  : 			CPythonNetworkStream::Instance().SendUseSkillPacket(dwSkillIndex);

  0006f	8b 0d 00 00 00
	00		 mov	 ecx, DWORD PTR ?ms_singleton@?$CSingleton@VCPythonNetworkStream@@@@0PAVCPythonNetworkStream@@A ; CSingleton<CPythonNetworkStream>::ms_singleton
  00075	6a 00		 push	 0
  00077	56		 push	 esi
  00078	e8 00 00 00 00	 call	 ?SendUseSkillPacket@CPythonNetworkStream@@QAE_NKK@Z ; CPythonNetworkStream::SendUseSkillPacket
  0007d	5f		 pop	 edi

; 988  : 	}
; 989  : 
; 990  : 	return false;
; 991  : }

  0007e	5e		 pop	 esi
  0007f	b0 01		 mov	 al, 1
  00081	5b		 pop	 ebx
  00082	5d		 pop	 ebp
  00083	c2 04 00	 ret	 4
$LN9@CheckSpeci:

; 981  : 		}
; 982  : 		else
; 983  : 		{
; 984  : 			PyCallClassMemberFunc(m_ppyGameWindow, "OnCannotUseSkill", Py_BuildValue("(is)", GetMainCharacterIndex(), "NOT_YET_LEARN"));

  00086	68 00 00 00 00	 push	 OFFSET ??_C@_0O@PFLGBNMN@NOT_YET_LEARN@
$LN12@CheckSpeci:

; 985  : 		}
; 986  : 
; 987  : 		return true;

  0008b	8b 47 04	 mov	 eax, DWORD PTR [edi+4]
  0008e	8d 4f 04	 lea	 ecx, DWORD PTR [edi+4]
  00091	ff 50 04	 call	 DWORD PTR [eax+4]
  00094	50		 push	 eax
  00095	68 00 00 00 00	 push	 OFFSET ??_C@_04JMLDJNEM@?$CIis?$CJ@
  0009a	ff 15 00 00 00
	00		 call	 DWORD PTR __imp__Py_BuildValue
  000a0	50		 push	 eax
  000a1	68 00 00 00 00	 push	 OFFSET ??_C@_0BB@BOHMBBJL@OnCannotUseSkill@
  000a6	ff 77 08	 push	 DWORD PTR [edi+8]
  000a9	e8 00 00 00 00	 call	 ?PyCallClassMemberFunc@@YA_NPAU_object@@PBD0@Z ; PyCallClassMemberFunc
  000ae	83 c4 18	 add	 esp, 24			; 00000018H
  000b1	b0 01		 mov	 al, 1
  000b3	5f		 pop	 edi

; 988  : 	}
; 989  : 
; 990  : 	return false;
; 991  : }

  000b4	5e		 pop	 esi
  000b5	5b		 pop	 ebx
  000b6	5d		 pop	 ebp
  000b7	c2 04 00	 ret	 4
$LN7@CheckSpeci:
  000ba	5f		 pop	 edi
  000bb	5e		 pop	 esi
  000bc	32 c0		 xor	 al, al
  000be	5b		 pop	 ebx
  000bf	5d		 pop	 ebp
  000c0	c2 04 00	 ret	 4
?__CheckSpecialSkill@CPythonPlayer@@IAE_NK@Z ENDP	; CPythonPlayer::__CheckSpecialSkill
_TEXT	ENDS
; Function compile flags: /Ogtp
; File D:\Metin2 Server Files\mainline\SRC_2014\Metin2Client\UserInterface\PythonPlayerSkill.cpp
; File C:\Program Files (x86)\Microsoft Visual Studio\2019\Community\VC\Tools\MSVC\14.28.29333\include\vector
; File D:\Metin2 Server Files\mainline\SRC_2014\Metin2Client\UserInterface\PythonPlayerSkill.cpp
; File C:\Program Files (x86)\Microsoft Visual Studio\2019\Community\VC\Tools\MSVC\14.28.29333\include\vector
; File D:\Metin2 Server Files\mainline\SRC_2014\Metin2Client\UserInterface\PythonPlayerSkill.cpp
; File C:\Program Files (x86)\Microsoft Visual Studio\2019\Community\VC\Tools\MSVC\14.28.29333\include\vector
; File D:\Metin2 Server Files\mainline\SRC_2014\Metin2Client\UserInterface\PythonPlayerSkill.cpp
; File C:\Program Files (x86)\Microsoft Visual Studio\2019\Community\VC\Tools\MSVC\14.28.29333\include\vector
; File D:\Metin2 Server Files\mainline\SRC_2014\Metin2Client\UserInterface\PythonPlayerSkill.cpp
; File C:\Program Files (x86)\Microsoft Visual Studio\2019\Community\VC\Tools\MSVC\14.28.29333\include\vector
; File C:\Program Files (x86)\Microsoft Visual Studio\2019\Community\VC\Tools\MSVC\14.28.29333\include\xmemory
; File C:\Program Files (x86)\Microsoft Visual Studio\2019\Community\VC\Tools\MSVC\14.28.29333\include\vector
; File D:\Metin2 Server Files\mainline\SRC_2014\Metin2Client\UserInterface\PythonPlayerSkill.cpp
;	COMDAT ?__UseSkill@CPythonPlayer@@IAE_NK@Z
_TEXT	SEGMENT
_this$GSCopy$1$ = -88					; size = 4
_kVct_pkInstTarget$2 = -84				; size = 12
tv979 = -72						; size = 4
_dwTargetMaxCount$1$ = -68				; size = 4
_fDistance$3 = -68					; size = 4
_dwSlotIndex$GSCopy$1$ = -64				; size = 4
_pkInstMain$1$ = -60					; size = 4
_dwTargetCount$1$ = -56					; size = 4
tv1067 = -52						; size = 4
_pkInstEach$1$ = -52					; size = 4
_pkInstEach$1$ = -52					; size = 4
_dwRange$1$ = -52					; size = 4
_dwSkillRange$1$ = -52					; size = 4
_dwPickedActorID$4 = -52				; size = 4
_pkInstTarget$ = -48					; size = 4
_pSkillData$ = -44					; size = 4
$T5 = -40						; size = 12
$T6 = -40						; size = 12
_kPPosPickedGround$7 = -40				; size = 12
_kPPosDst$8 = -28					; size = 12
__$ArrayPad$ = -16					; size = 4
__$EHRec$ = -12						; size = 12
_dwSlotIndex$ = 8					; size = 4
?__UseSkill@CPythonPlayer@@IAE_NK@Z PROC		; CPythonPlayer::__UseSkill, COMDAT
; _this$ = ecx

; 461  : {

  00000	55		 push	 ebp
  00001	8b ec		 mov	 ebp, esp
  00003	6a ff		 push	 -1
  00005	68 00 00 00 00	 push	 __ehhandler$?__UseSkill@CPythonPlayer@@IAE_NK@Z
  0000a	64 a1 00 00 00
	00		 mov	 eax, DWORD PTR fs:0
  00010	50		 push	 eax
  00011	83 ec 4c	 sub	 esp, 76			; 0000004cH
  00014	a1 00 00 00 00	 mov	 eax, DWORD PTR ___security_cookie
  00019	33 c5		 xor	 eax, ebp
  0001b	89 45 f0	 mov	 DWORD PTR __$ArrayPad$[ebp], eax
  0001e	56		 push	 esi
  0001f	57		 push	 edi
  00020	50		 push	 eax
  00021	8d 45 f4	 lea	 eax, DWORD PTR __$EHRec$[ebp]
  00024	64 a3 00 00 00
	00		 mov	 DWORD PTR fs:0, eax
  0002a	8b f9		 mov	 edi, ecx
  0002c	89 7d a8	 mov	 DWORD PTR _this$GSCopy$1$[ebp], edi
  0002f	8b 75 08	 mov	 esi, DWORD PTR _dwSlotIndex$[ebp]
  00032	89 75 c0	 mov	 DWORD PTR _dwSlotIndex$GSCopy$1$[ebp], esi

; 462  : 	// PrivateShop
; 463  : 	if (IsOpenPrivateShop())

  00035	e8 00 00 00 00	 call	 ?IsOpenPrivateShop@CPythonPlayer@@QAE_NXZ ; CPythonPlayer::IsOpenPrivateShop
  0003a	84 c0		 test	 al, al
  0003c	0f 85 14 07 00
	00		 jne	 $LN159@UseSkill

; 464  : 	{
; 465  : 		return true;
; 466  : 	}
; 467  : 
; 468  : 	if (!__CanUseSkill())

  00042	8b cf		 mov	 ecx, edi
  00044	e8 00 00 00 00	 call	 ?__CanUseSkill@CPythonPlayer@@IAE_NXZ ; CPythonPlayer::__CanUseSkill
  00049	84 c0		 test	 al, al
  0004b	74 16		 je	 SHORT $LN158@UseSkill

; 469  : 	{
; 470  : 		return false;
; 471  : 	}
; 472  : 
; 473  : 	if (dwSlotIndex >= SKILL_MAX_NUM)

  0004d	81 fe ff 00 00
	00		 cmp	 esi, 255		; 000000ffH
  00053	72 15		 jb	 SHORT $LN12@UseSkill

; 474  : 	{
; 475  : 		Tracenf("CPythonPlayer::__UseSkill(dwSlotIndex=%d) It's not available skill slot number", dwSlotIndex);

  00055	56		 push	 esi
  00056	68 00 00 00 00	 push	 OFFSET ??_C@_0EP@OENNGPFB@CPythonPlayer?3?3__UseSkill?$CIdwSlo@
  0005b	e8 00 00 00 00	 call	 ?Tracenf@@YAXPBDZZ	; Tracenf
  00060	83 c4 08	 add	 esp, 8
$LN158@UseSkill:

; 769  : 	return true;
; 770  : }

  00063	32 c0		 xor	 al, al
  00065	e9 ee 06 00 00	 jmp	 $LN1@UseSkill
$LN12@UseSkill:

; 476  : 		return false;
; 477  : 	}
; 478  : 
; 479  : 	TSkillInstance & rkSkillInst = m_playerStatus.aSkill[dwSlotIndex];

  0006a	8d 04 b6	 lea	 eax, DWORD PTR [esi+esi*4]

; 480  : 
; 481  : 	if (__CheckSpecialSkill(rkSkillInst.dwIndex))

  0006d	8b cf		 mov	 ecx, edi
  0006f	ff b4 c7 68 cb
	00 00		 push	 DWORD PTR [edi+eax*8+52072]
  00076	89 45 b8	 mov	 DWORD PTR tv979[ebp], eax
  00079	e8 00 00 00 00	 call	 ?__CheckSpecialSkill@CPythonPlayer@@IAE_NK@Z ; CPythonPlayer::__CheckSpecialSkill
  0007e	84 c0		 test	 al, al
  00080	0f 85 d0 06 00
	00		 jne	 $LN159@UseSkill

; 482  : 	{
; 483  : 		return true;
; 484  : 	}
; 485  : 
; 486  : 	CPythonSkill::TSkillData * pSkillData;
; 487  : 	if (!CPythonSkill::Instance().GetSkillData(rkSkillInst.dwIndex, &pSkillData))

  00086	8b 0d 00 00 00
	00		 mov	 ecx, DWORD PTR ?ms_singleton@?$CSingleton@VCPythonSkill@@@@0PAVCPythonSkill@@A ; CSingleton<CPythonSkill>::ms_singleton
  0008c	8d 45 d4	 lea	 eax, DWORD PTR _pSkillData$[ebp]
  0008f	50		 push	 eax
  00090	8b 45 b8	 mov	 eax, DWORD PTR tv979[ebp]
  00093	ff b4 c7 68 cb
	00 00		 push	 DWORD PTR [edi+eax*8+52072]
  0009a	e8 00 00 00 00	 call	 ?GetSkillData@CPythonSkill@@QAEHKPAPAUSSkillData@1@@Z ; CPythonSkill::GetSkillData
  0009f	85 c0		 test	 eax, eax
  000a1	75 15		 jne	 SHORT $LN14@UseSkill

; 488  : 	{
; 489  : 		Tracenf("CPythonPlayer::__UseSkill(dwSlotIndex=%d) There is no skill data", dwSlotIndex);

  000a3	56		 push	 esi
  000a4	68 00 00 00 00	 push	 OFFSET ??_C@_0EB@JKMJGFLB@CPythonPlayer?3?3__UseSkill?$CIdwSlo@
  000a9	e8 00 00 00 00	 call	 ?Tracenf@@YAXPBDZZ	; Tracenf
  000ae	83 c4 08	 add	 esp, 8

; 490  : 		return false;

  000b1	32 c0		 xor	 al, al
  000b3	e9 a0 06 00 00	 jmp	 $LN1@UseSkill
$LN14@UseSkill:

; 491  : 	}
; 492  : 
; 493  : 	if (pSkillData->IsToggleSkill())

  000b8	8b 4d d4	 mov	 ecx, DWORD PTR _pSkillData$[ebp]
  000bb	e8 00 00 00 00	 call	 ?IsToggleSkill@SSkillData@CPythonSkill@@QAEHXZ ; CPythonSkill::SSkillData::IsToggleSkill
  000c0	85 c0		 test	 eax, eax
  000c2	74 29		 je	 SHORT $LN16@UseSkill

; 494  : 	{
; 495  : 		if (IsSkillActive(dwSlotIndex))

  000c4	56		 push	 esi
  000c5	8b cf		 mov	 ecx, edi
  000c7	e8 00 00 00 00	 call	 ?IsSkillActive@CPythonPlayer@@QAEHK@Z ; CPythonPlayer::IsSkillActive
  000cc	85 c0		 test	 eax, eax
  000ce	74 1d		 je	 SHORT $LN16@UseSkill

; 496  : 		{
; 497  : 			CPythonNetworkStream::Instance().SendUseSkillPacket(rkSkillInst.dwIndex, dwSlotIndex);

  000d0	8b 45 b8	 mov	 eax, DWORD PTR tv979[ebp]
  000d3	8b 0d 00 00 00
	00		 mov	 ecx, DWORD PTR ?ms_singleton@?$CSingleton@VCPythonNetworkStream@@@@0PAVCPythonNetworkStream@@A ; CSingleton<CPythonNetworkStream>::ms_singleton
  000d9	56		 push	 esi
  000da	ff b4 c7 68 cb
	00 00		 push	 DWORD PTR [edi+eax*8+52072]
  000e1	e8 00 00 00 00	 call	 ?SendUseSkillPacket@CPythonNetworkStream@@QAE_NKK@Z ; CPythonNetworkStream::SendUseSkillPacket

; 498  : 			return false;

  000e6	32 c0		 xor	 al, al
  000e8	e9 6b 06 00 00	 jmp	 $LN1@UseSkill
$LN16@UseSkill:

; 499  : 		}
; 500  : 	}
; 501  : 
; 502  : 	if (!__CheckSkillUsable(dwSlotIndex))

  000ed	56		 push	 esi
  000ee	8b cf		 mov	 ecx, edi
  000f0	e8 00 00 00 00	 call	 ?__CheckSkillUsable@CPythonPlayer@@IAE_NK@Z ; CPythonPlayer::__CheckSkillUsable
  000f5	84 c0		 test	 al, al
  000f7	0f 84 66 ff ff
	ff		 je	 $LN158@UseSkill

; 503  : 	{
; 504  : 		return false;
; 505  : 	}
; 506  : 
; 507  : 	CInstanceBase * pkInstMain = NEW_GetMainActorPtr();

  000fd	8b 47 04	 mov	 eax, DWORD PTR [edi+4]
  00100	8d 4f 04	 lea	 ecx, DWORD PTR [edi+4]
  00103	8b 80 88 00 00
	00		 mov	 eax, DWORD PTR [eax+136]
  00109	ff d0		 call	 eax
  0010b	8b f0		 mov	 esi, eax
  0010d	89 75 c4	 mov	 DWORD PTR _pkInstMain$1$[ebp], esi

; 508  : 	if (!pkInstMain)

  00110	85 f6		 test	 esi, esi
  00112	75 17		 jne	 SHORT $LN18@UseSkill

; 509  : 	{
; 510  : 		Tracenf("CPythonPlayer::__UseSkill(dwSlotIndex=%d) There is no main player", dwSlotIndex);

  00114	ff 75 c0	 push	 DWORD PTR _dwSlotIndex$GSCopy$1$[ebp]
  00117	68 00 00 00 00	 push	 OFFSET ??_C@_0EC@MMFCNDJC@CPythonPlayer?3?3__UseSkill?$CIdwSlo@
  0011c	e8 00 00 00 00	 call	 ?Tracenf@@YAXPBDZZ	; Tracenf
  00121	83 c4 08	 add	 esp, 8

; 511  : 		return false;

  00124	32 c0		 xor	 al, al
  00126	e9 2d 06 00 00	 jmp	 $LN1@UseSkill
$LN18@UseSkill:

; 512  : 	}
; 513  : 
; 514  : 	if (pkInstMain->IsUsingSkill())

  0012b	8b ce		 mov	 ecx, esi
  0012d	e8 00 00 00 00	 call	 ?IsUsingSkill@CInstanceBase@@QAEHXZ ; CInstanceBase::IsUsingSkill
  00132	85 c0		 test	 eax, eax
  00134	0f 85 29 ff ff
	ff		 jne	 $LN158@UseSkill

; 515  : 	{
; 516  : 		return false;
; 517  : 	}
; 518  : 
; 519  : 	CInstanceBase * pkInstTarget = NULL;
; 520  : 
; 521  : 	// NOTE :   
; 522  : 	if (pSkillData->IsNeedTarget() ||
; 523  : 		pSkillData->CanChangeDirection() ||

  0013a	8b 4d d4	 mov	 ecx, DWORD PTR _pSkillData$[ebp]
  0013d	89 45 d0	 mov	 DWORD PTR _pkInstTarget$[ebp], eax
  00140	e8 00 00 00 00	 call	 ?IsNeedTarget@SSkillData@CPythonSkill@@QAEHXZ ; CPythonSkill::SSkillData::IsNeedTarget
  00145	85 c0		 test	 eax, eax
  00147	75 1c		 jne	 SHORT $LN21@UseSkill
  00149	8b 4d d4	 mov	 ecx, DWORD PTR _pSkillData$[ebp]
  0014c	e8 00 00 00 00	 call	 ?CanChangeDirection@SSkillData@CPythonSkill@@QAEHXZ ; CPythonSkill::SSkillData::CanChangeDirection
  00151	85 c0		 test	 eax, eax
  00153	75 10		 jne	 SHORT $LN21@UseSkill
  00155	8b 4d d4	 mov	 ecx, DWORD PTR _pSkillData$[ebp]
  00158	e8 00 00 00 00	 call	 ?IsAutoSearchTarget@SSkillData@CPythonSkill@@QAEHXZ ; CPythonSkill::SSkillData::IsAutoSearchTarget
  0015d	85 c0		 test	 eax, eax
  0015f	0f 84 6f 02 00
	00		 je	 $LN54@UseSkill
$LN21@UseSkill:

; 524  : 		pSkillData->IsAutoSearchTarget())
; 525  : 	{
; 526  : 		if (pSkillData->IsNeedCorpse())

  00165	8b 4d d4	 mov	 ecx, DWORD PTR _pSkillData$[ebp]
  00168	e8 00 00 00 00	 call	 ?IsNeedCorpse@SSkillData@CPythonSkill@@QAEHXZ ; CPythonSkill::SSkillData::IsNeedCorpse
  0016d	8b cf		 mov	 ecx, edi
  0016f	85 c0		 test	 eax, eax
  00171	74 07		 je	 SHORT $LN22@UseSkill

; 527  : 			pkInstTarget=__GetDeadTargetInstancePtr();

  00173	e8 00 00 00 00	 call	 ?__GetDeadTargetInstancePtr@CPythonPlayer@@IAEPAVCInstanceBase@@XZ ; CPythonPlayer::__GetDeadTargetInstancePtr
  00178	eb 05		 jmp	 SHORT $LN23@UseSkill
$LN22@UseSkill:

; 528  : 		else
; 529  : 			pkInstTarget=__GetAliveTargetInstancePtr();

  0017a	e8 00 00 00 00	 call	 ?__GetAliveTargetInstancePtr@CPythonPlayer@@IAEPAVCInstanceBase@@XZ ; CPythonPlayer::__GetAliveTargetInstancePtr
$LN23@UseSkill:

; 530  : 
; 531  : 		//   ..
; 532  : 		if (!pkInstTarget)

  0017f	89 45 d0	 mov	 DWORD PTR _pkInstTarget$[ebp], eax
  00182	85 c0		 test	 eax, eax
  00184	0f 85 db 00 00
	00		 jne	 $LN156@UseSkill

; 533  : 		{
; 534  : 			// ..
; 535  : 			__ChangeTargetToPickedInstance();

  0018a	8b cf		 mov	 ecx, edi
  0018c	e8 00 00 00 00	 call	 ?__ChangeTargetToPickedInstance@CPythonPlayer@@IAE_NXZ ; CPythonPlayer::__ChangeTargetToPickedInstance

; 536  : 
; 537  : 			//  .
; 538  : 			if (pSkillData->IsNeedCorpse())

  00191	8b 4d d4	 mov	 ecx, DWORD PTR _pSkillData$[ebp]
  00194	e8 00 00 00 00	 call	 ?IsNeedCorpse@SSkillData@CPythonSkill@@QAEHXZ ; CPythonSkill::SSkillData::IsNeedCorpse
  00199	8b cf		 mov	 ecx, edi
  0019b	85 c0		 test	 eax, eax
  0019d	74 07		 je	 SHORT $LN25@UseSkill

; 539  : 				pkInstTarget=__GetDeadTargetInstancePtr();

  0019f	e8 00 00 00 00	 call	 ?__GetDeadTargetInstancePtr@CPythonPlayer@@IAEPAVCInstanceBase@@XZ ; CPythonPlayer::__GetDeadTargetInstancePtr
  001a4	eb 05		 jmp	 SHORT $LN26@UseSkill
$LN25@UseSkill:

; 540  : 			else
; 541  : 				pkInstTarget=__GetAliveTargetInstancePtr();

  001a6	e8 00 00 00 00	 call	 ?__GetAliveTargetInstancePtr@CPythonPlayer@@IAEPAVCInstanceBase@@XZ ; CPythonPlayer::__GetAliveTargetInstancePtr
$LN26@UseSkill:

; 542  : 		}
; 543  : 
; 544  : 		if (pkInstTarget)

  001ab	89 45 d0	 mov	 DWORD PTR _pkInstTarget$[ebp], eax
  001ae	85 c0		 test	 eax, eax
  001b0	0f 85 af 00 00
	00		 jne	 $LN156@UseSkill

; 615  : 				}
; 616  : 			}
; 617  : 		}
; 618  : 		else
; 619  : 		{
; 620  : 			if (pSkillData->IsAutoSearchTarget())

  001b6	8b 4d d4	 mov	 ecx, DWORD PTR _pSkillData$[ebp]
  001b9	e8 00 00 00 00	 call	 ?IsAutoSearchTarget@SSkillData@CPythonSkill@@QAEHXZ ; CPythonSkill::SSkillData::IsAutoSearchTarget
  001be	85 c0		 test	 eax, eax
  001c0	74 4d		 je	 SHORT $LN49@UseSkill

; 621  : 			{
; 622  : 				if (pkInstMain->NEW_GetFrontInstance(&pkInstTarget, 2000.0f))

  001c2	51		 push	 ecx
  001c3	8d 45 d0	 lea	 eax, DWORD PTR _pkInstTarget$[ebp]
  001c6	c7 04 24 00 00
	fa 44		 mov	 DWORD PTR [esp], 1157234688 ; 44fa0000H
  001cd	50		 push	 eax
  001ce	8b ce		 mov	 ecx, esi
  001d0	e8 00 00 00 00	 call	 ?NEW_GetFrontInstance@CInstanceBase@@QAE_NPAPAV1@M@Z ; CInstanceBase::NEW_GetFrontInstance
  001d5	8b 57 04	 mov	 edx, DWORD PTR [edi+4]
  001d8	8d 4f 04	 lea	 ecx, DWORD PTR [edi+4]
  001db	89 55 cc	 mov	 DWORD PTR tv1067[ebp], edx
  001de	84 c0		 test	 al, al
  001e0	74 56		 je	 SHORT $LN48@UseSkill

; 623  : 				{
; 624  : 					SetTarget(pkInstTarget->GetVirtualID());

  001e2	8b 4d d0	 mov	 ecx, DWORD PTR _pkInstTarget$[ebp]
  001e5	6a 01		 push	 1
  001e7	e8 00 00 00 00	 call	 ?GetVirtualID@CInstanceBase@@QAEKXZ ; CInstanceBase::GetVirtualID
  001ec	50		 push	 eax
  001ed	8b 45 cc	 mov	 eax, DWORD PTR tv1067[ebp]
  001f0	8d 4f 04	 lea	 ecx, DWORD PTR [edi+4]
  001f3	ff 50 60	 call	 DWORD PTR [eax+96]

; 625  : 					if (!__ProcessEnemySkillTargetRange(*pkInstMain, *pkInstTarget, *pSkillData, dwSlotIndex))

  001f6	ff 75 c0	 push	 DWORD PTR _dwSlotIndex$GSCopy$1$[ebp]
  001f9	8b cf		 mov	 ecx, edi
  001fb	ff 75 d4	 push	 DWORD PTR _pSkillData$[ebp]
  001fe	ff 75 d0	 push	 DWORD PTR _pkInstTarget$[ebp]
  00201	56		 push	 esi
  00202	e8 00 00 00 00	 call	 ?__ProcessEnemySkillTargetRange@CPythonPlayer@@IAE_NAAVCInstanceBase@@0AAUSSkillData@CPythonSkill@@K@Z ; CPythonPlayer::__ProcessEnemySkillTargetRange
  00207	84 c0		 test	 al, al
  00209	0f 84 54 fe ff
	ff		 je	 $LN158@UseSkill
$LN49@UseSkill:

; 632  : 				}
; 633  : 			}
; 634  : 
; 635  : 			if (pSkillData->CanUseForMe())

  0020f	8b 4d d4	 mov	 ecx, DWORD PTR _pSkillData$[ebp]
  00212	e8 00 00 00 00	 call	 ?CanUseForMe@SSkillData@CPythonSkill@@QAEHXZ ; CPythonSkill::SSkillData::CanUseForMe
  00217	85 c0		 test	 eax, eax
  00219	74 27		 je	 SHORT $LN51@UseSkill

; 636  : 			{
; 637  : 				pkInstTarget = pkInstMain;
; 638  : 				pkInstMain->SetFlyTargetInstance(*pkInstMain);

  0021b	56		 push	 esi
  0021c	8b ce		 mov	 ecx, esi
  0021e	89 75 d0	 mov	 DWORD PTR _pkInstTarget$[ebp], esi
  00221	e8 00 00 00 00	 call	 ?SetFlyTargetInstance@CInstanceBase@@QAEXAAV1@@Z ; CInstanceBase::SetFlyTargetInstance

; 639  : 				Tracef(" [ALERT]    \n");

  00226	68 00 00 00 00	 push	 OFFSET ??_C@_0DA@NPBLPNPC@?5?$FLALERT?$FN?5?E?$LI?$LA?Y?$MA?L?5?$LO?x?$LO?n?$LM?$KN?5?G?C?$LH?$LJ?$MA?L?$LO?n@
  0022b	e8 00 00 00 00	 call	 ?Tracef@@YAXPBDZZ	; Tracef
  00230	83 c4 04	 add	 esp, 4
  00233	e9 9c 01 00 00	 jmp	 $LN54@UseSkill
$LN48@UseSkill:

; 626  : 						return false;
; 627  : 				}
; 628  : 				else
; 629  : 				{
; 630  : 					PyCallClassMemberFunc(m_ppyGameWindow, "OnCannotUseSkill", Py_BuildValue("(is)", GetMainCharacterIndex(), "NEED_TARGET"));

  00238	8b 42 04	 mov	 eax, DWORD PTR [edx+4]
  0023b	68 00 00 00 00	 push	 OFFSET ??_C@_0M@HCIEKIGP@NEED_TARGET@

; 631  : 					return false;

  00240	eb 58		 jmp	 SHORT $LN179@UseSkill
$LN51@UseSkill:

; 640  : 			}
; 641  : 			else if (pSkillData->IsNeedCorpse())

  00242	8b 4d d4	 mov	 ecx, DWORD PTR _pSkillData$[ebp]
  00245	e8 00 00 00 00	 call	 ?IsNeedCorpse@SSkillData@CPythonSkill@@QAEHXZ ; CPythonSkill::SSkillData::IsNeedCorpse
  0024a	8b 57 04	 mov	 edx, DWORD PTR [edi+4]
  0024d	8d 4f 04	 lea	 ecx, DWORD PTR [edi+4]
  00250	85 c0		 test	 eax, eax
  00252	8b 42 04	 mov	 eax, DWORD PTR [edx+4]
  00255	74 07		 je	 SHORT $LN53@UseSkill

; 642  : 			{
; 643  : 				PyCallClassMemberFunc(m_ppyGameWindow, "OnCannotUseSkill", Py_BuildValue("(is)", GetMainCharacterIndex(), "ONLY_FOR_CORPSE"));

  00257	68 00 00 00 00	 push	 OFFSET ??_C@_0BA@FPMNLALM@ONLY_FOR_CORPSE@

; 644  : 				return false;

  0025c	eb 3c		 jmp	 SHORT $LN179@UseSkill
$LN53@UseSkill:

; 645  : 			}
; 646  : 			else
; 647  : 			{
; 648  : 				PyCallClassMemberFunc(m_ppyGameWindow, "OnCannotUseSkill", Py_BuildValue("(is)", GetMainCharacterIndex(), "NEED_TARGET"));

  0025e	68 00 00 00 00	 push	 OFFSET ??_C@_0M@HCIEKIGP@NEED_TARGET@

; 649  : 				return false;

  00263	eb 35		 jmp	 SHORT $LN179@UseSkill
$LN156@UseSkill:

; 545  : 		{
; 546  : 			if (pSkillData->IsOnlyForAlliance())

  00265	8b 4d d4	 mov	 ecx, DWORD PTR _pSkillData$[ebp]
  00268	e8 00 00 00 00	 call	 ?IsOnlyForAlliance@SSkillData@CPythonSkill@@QAEHXZ ; CPythonSkill::SSkillData::IsOnlyForAlliance
  0026d	85 c0		 test	 eax, eax
  0026f	0f 84 f3 00 00
	00		 je	 $LN29@UseSkill

; 547  : 			{
; 548  : 				if (pkInstMain == pkInstTarget)

  00275	8b 45 d0	 mov	 eax, DWORD PTR _pkInstTarget$[ebp]
  00278	3b f0		 cmp	 esi, eax
  0027a	75 44		 jne	 SHORT $LN31@UseSkill

; 549  : 				{
; 550  : 					if (!pSkillData->CanUseForMe())

  0027c	8b 4d d4	 mov	 ecx, DWORD PTR _pSkillData$[ebp]
  0027f	e8 00 00 00 00	 call	 ?CanUseForMe@SSkillData@CPythonSkill@@QAEHXZ ; CPythonSkill::SSkillData::CanUseForMe
  00284	85 c0		 test	 eax, eax
  00286	0f 85 1d 01 00
	00		 jne	 $LN43@UseSkill

; 551  : 					{
; 552  : 						PyCallClassMemberFunc(m_ppyGameWindow, "OnCannotUseSkill", Py_BuildValue("(is)", GetMainCharacterIndex(), "CANNOT_USE_SELF"));

  0028c	68 00 00 00 00	 push	 OFFSET ??_C@_0BA@GMGJKDGM@CANNOT_USE_SELF@
$LN178@UseSkill:

; 769  : 	return true;
; 770  : }

  00291	8b 47 04	 mov	 eax, DWORD PTR [edi+4]
  00294	8d 4f 04	 lea	 ecx, DWORD PTR [edi+4]
  00297	8b 40 04	 mov	 eax, DWORD PTR [eax+4]
$LN179@UseSkill:
  0029a	ff d0		 call	 eax
  0029c	50		 push	 eax
  0029d	68 00 00 00 00	 push	 OFFSET ??_C@_04JMLDJNEM@?$CIis?$CJ@
  002a2	ff 15 00 00 00
	00		 call	 DWORD PTR __imp__Py_BuildValue
  002a8	50		 push	 eax
  002a9	68 00 00 00 00	 push	 OFFSET ??_C@_0BB@BOHMBBJL@OnCannotUseSkill@
  002ae	ff 77 08	 push	 DWORD PTR [edi+8]
  002b1	e8 00 00 00 00	 call	 ?PyCallClassMemberFunc@@YA_NPAU_object@@PBD0@Z ; PyCallClassMemberFunc
  002b6	83 c4 18	 add	 esp, 24			; 00000018H
  002b9	32 c0		 xor	 al, al
  002bb	e9 98 04 00 00	 jmp	 $LN1@UseSkill
$LN31@UseSkill:

; 553  : 						return false;
; 554  : 					}
; 555  : 				}
; 556  : 				else if (!pkInstMain->IsAttackableInstance(*pkInstTarget) && pkInstTarget->IsPC())

  002c0	50		 push	 eax
  002c1	8b ce		 mov	 ecx, esi
  002c3	e8 00 00 00 00	 call	 ?IsAttackableInstance@CInstanceBase@@QAE_NAAV1@@Z ; CInstanceBase::IsAttackableInstance
  002c8	84 c0		 test	 al, al
  002ca	75 74		 jne	 SHORT $LN34@UseSkill
  002cc	8b 4d d0	 mov	 ecx, DWORD PTR _pkInstTarget$[ebp]
  002cf	e8 00 00 00 00	 call	 ?IsPC@CInstanceBase@@QAEHXZ ; CInstanceBase::IsPC
  002d4	85 c0		 test	 eax, eax
  002d6	74 68		 je	 SHORT $LN34@UseSkill

; 557  : 				{
; 558  : 					DWORD dwSkillRange = __GetSkillTargetRange(*pSkillData);

  002d8	ff 75 d4	 push	 DWORD PTR _pSkillData$[ebp]
  002db	8b cf		 mov	 ecx, edi
  002dd	e8 00 00 00 00	 call	 ?__GetSkillTargetRange@CPythonPlayer@@IAEKAAUSSkillData@CPythonSkill@@@Z ; CPythonPlayer::__GetSkillTargetRange
  002e2	89 45 cc	 mov	 DWORD PTR _dwSkillRange$1$[ebp], eax

; 559  : 
; 560  : 					if (dwSkillRange > 0)

  002e5	85 c0		 test	 eax, eax
  002e7	0f 84 bc 00 00
	00		 je	 $LN43@UseSkill

; 561  : 					{
; 562  : 						float fDistance=pkInstMain->GetDistance(pkInstTarget);

  002ed	ff 75 d0	 push	 DWORD PTR _pkInstTarget$[ebp]
  002f0	8b ce		 mov	 ecx, esi
  002f2	e8 00 00 00 00	 call	 ?GetDistance@CInstanceBase@@QAEMPAV1@@Z ; CInstanceBase::GetDistance

; 563  : 						if (fDistance>=float(dwSkillRange))

  002f7	8b 4d cc	 mov	 ecx, DWORD PTR _dwSkillRange$1$[ebp]
  002fa	8b c1		 mov	 eax, ecx
  002fc	c1 e8 1f	 shr	 eax, 31			; 0000001fH
  002ff	d9 5d bc	 fstp	 DWORD PTR _fDistance$3[ebp]
  00302	66 0f 6e c1	 movd	 xmm0, ecx
  00306	f3 0f e6 c0	 cvtdq2pd xmm0, xmm0
  0030a	f2 0f 58 04 c5
	00 00 00 00	 addsd	 xmm0, QWORD PTR __xmm@41f00000000000000000000000000000[eax*8]
  00313	66 0f 5a c8	 cvtpd2ps xmm1, xmm0
  00317	f3 0f 10 45 bc	 movss	 xmm0, DWORD PTR _fDistance$3[ebp]
  0031c	0f 2f c1	 comiss	 xmm0, xmm1
  0031f	0f 82 84 00 00
	00		 jb	 $LN43@UseSkill

; 564  : 						{
; 565  : 							__ReserveUseSkill(pkInstTarget->GetVirtualID(), dwSlotIndex, dwSkillRange);

  00325	51		 push	 ecx
  00326	ff 75 c0	 push	 DWORD PTR _dwSlotIndex$GSCopy$1$[ebp]
  00329	8b 4d d0	 mov	 ecx, DWORD PTR _pkInstTarget$[ebp]
  0032c	e8 00 00 00 00	 call	 ?GetVirtualID@CInstanceBase@@QAEKXZ ; CInstanceBase::GetVirtualID
  00331	50		 push	 eax
  00332	8b cf		 mov	 ecx, edi
  00334	e8 00 00 00 00	 call	 ?__ReserveUseSkill@CPythonPlayer@@IAEXKKK@Z ; CPythonPlayer::__ReserveUseSkill

; 566  : 							return false;

  00339	32 c0		 xor	 al, al
  0033b	e9 18 04 00 00	 jmp	 $LN1@UseSkill
$LN34@UseSkill:

; 567  : 						}
; 568  : 					}
; 569  : 				}
; 570  : 				else
; 571  : 				{
; 572  : 					if (pSkillData->CanUseForMe())

  00340	8b 4d d4	 mov	 ecx, DWORD PTR _pSkillData$[ebp]
  00343	e8 00 00 00 00	 call	 ?CanUseForMe@SSkillData@CPythonSkill@@QAEHXZ ; CPythonSkill::SSkillData::CanUseForMe
  00348	85 c0		 test	 eax, eax
  0034a	74 12		 je	 SHORT $LN38@UseSkill

; 573  : 					{
; 574  : 						pkInstTarget = pkInstMain;
; 575  : 						Tracef(" [ALERT]        \n");

  0034c	68 00 00 00 00	 push	 OFFSET ??_C@_0FC@NMOECDOK@?5?$FLALERT?$FN?5?$LF?$LP?$LH?a?$LP?$KB?$LA?T?5?$LL?g?$LP?k?G?O?$LE?B?5?$LB?b?$LM?z@
  00351	89 75 d0	 mov	 DWORD PTR _pkInstTarget$[ebp], esi
  00354	e8 00 00 00 00	 call	 ?Tracef@@YAXPBDZZ	; Tracef
  00359	83 c4 04	 add	 esp, 4

; 581  : 					}
; 582  : 				}
; 583  : 			}

  0035c	eb 4b		 jmp	 SHORT $LN43@UseSkill
$LN38@UseSkill:

; 576  : 					}
; 577  : 					else
; 578  : 					{
; 579  : 						PyCallClassMemberFunc(m_ppyGameWindow, "OnCannotUseSkill", Py_BuildValue("(is)", GetMainCharacterIndex(), "ONLY_FOR_ALLIANCE"));

  0035e	68 00 00 00 00	 push	 OFFSET ??_C@_0BC@CKDFNGK@ONLY_FOR_ALLIANCE@

; 580  : 						return false;

  00363	e9 29 ff ff ff	 jmp	 $LN178@UseSkill
$LN29@UseSkill:

; 584  : 			else
; 585  : 			{
; 586  : 				if (pkInstTarget->IsInSafe())

  00368	8b 4d d0	 mov	 ecx, DWORD PTR _pkInstTarget$[ebp]
  0036b	e8 00 00 00 00	 call	 ?IsInSafe@CInstanceBase@@QAEHXZ ; CInstanceBase::IsInSafe
  00370	85 c0		 test	 eax, eax
  00372	74 0a		 je	 SHORT $LN40@UseSkill

; 587  : 				{
; 588  : 					PyCallClassMemberFunc(m_ppyGameWindow, "OnCannotUseSkill", Py_BuildValue("(is)", GetMainCharacterIndex(), "CANNOT_ATTACK_ENEMY_IN_SAFE_AREA"));

  00374	68 00 00 00 00	 push	 OFFSET ??_C@_0CB@HEDIGIHC@CANNOT_ATTACK_ENEMY_IN_SAFE_ARE@

; 589  : 					return false;

  00379	e9 13 ff ff ff	 jmp	 $LN178@UseSkill
$LN40@UseSkill:

; 590  : 				}
; 591  : 
; 592  : 				if (pkInstMain->IsAttackableInstance(*pkInstTarget))

  0037e	ff 75 d0	 push	 DWORD PTR _pkInstTarget$[ebp]
  00381	8b ce		 mov	 ecx, esi
  00383	e8 00 00 00 00	 call	 ?IsAttackableInstance@CInstanceBase@@QAE_NAAV1@@Z ; CInstanceBase::IsAttackableInstance
  00388	84 c0		 test	 al, al
  0038a	0f 84 e5 03 00
	00		 je	 $LN41@UseSkill

; 593  : 				{
; 594  : 					if (!__ProcessEnemySkillTargetRange(*pkInstMain, *pkInstTarget, *pSkillData, dwSlotIndex))

  00390	ff 75 c0	 push	 DWORD PTR _dwSlotIndex$GSCopy$1$[ebp]
  00393	8b cf		 mov	 ecx, edi
  00395	ff 75 d4	 push	 DWORD PTR _pSkillData$[ebp]
  00398	ff 75 d0	 push	 DWORD PTR _pkInstTarget$[ebp]
  0039b	56		 push	 esi
  0039c	e8 00 00 00 00	 call	 ?__ProcessEnemySkillTargetRange@CPythonPlayer@@IAE_NAAVCInstanceBase@@0AAUSSkillData@CPythonSkill@@K@Z ; CPythonPlayer::__ProcessEnemySkillTargetRange
  003a1	84 c0		 test	 al, al
  003a3	0f 84 ba fc ff
	ff		 je	 $LN158@UseSkill
$LN43@UseSkill:

; 601  : 				}
; 602  : 			}
; 603  : 
; 604  : 			pkInstMain->SetFlyTargetInstance(*pkInstTarget);

  003a9	ff 75 d0	 push	 DWORD PTR _pkInstTarget$[ebp]
  003ac	8b ce		 mov	 ecx, esi
  003ae	e8 00 00 00 00	 call	 ?SetFlyTargetInstance@CInstanceBase@@QAEXAAV1@@Z ; CInstanceBase::SetFlyTargetInstance

; 605  : 
; 606  : 			if (pkInstMain != pkInstTarget)

  003b3	3b 75 d0	 cmp	 esi, DWORD PTR _pkInstTarget$[ebp]
  003b6	74 1c		 je	 SHORT $LN54@UseSkill

; 607  : 			{
; 608  : 				if (pkInstMain->IsFlyTargetObject())

  003b8	8b ce		 mov	 ecx, esi
  003ba	e8 00 00 00 00	 call	 ?IsFlyTargetObject@CInstanceBase@@QAE_NXZ ; CInstanceBase::IsFlyTargetObject
  003bf	8b ce		 mov	 ecx, esi
  003c1	84 c0		 test	 al, al
  003c3	74 07		 je	 SHORT $LN45@UseSkill

; 609  : 				{
; 610  : 					pkInstMain->NEW_LookAtFlyTarget();

  003c5	e8 00 00 00 00	 call	 ?NEW_LookAtFlyTarget@CInstanceBase@@QAEXXZ ; CInstanceBase::NEW_LookAtFlyTarget

; 611  : 				}

  003ca	eb 08		 jmp	 SHORT $LN54@UseSkill
$LN45@UseSkill:

; 612  : 				else
; 613  : 				{
; 614  : 					pkInstMain->NEW_LookAtDestInstance(*pkInstTarget);

  003cc	ff 75 d0	 push	 DWORD PTR _pkInstTarget$[ebp]
  003cf	e8 00 00 00 00	 call	 ?NEW_LookAtDestInstance@CInstanceBase@@QAEXAAV1@@Z ; CInstanceBase::NEW_LookAtDestInstance
$LN54@UseSkill:

; 650  : 			}
; 651  : 		}
; 652  : 	}
; 653  : 
; 654  : 	if (pSkillData->CanChangeDirection())

  003d4	8b 4d d4	 mov	 ecx, DWORD PTR _pSkillData$[ebp]
  003d7	e8 00 00 00 00	 call	 ?CanChangeDirection@SSkillData@CPythonSkill@@QAEHXZ ; CPythonSkill::SSkillData::CanChangeDirection
  003dc	85 c0		 test	 eax, eax
  003de	74 66		 je	 SHORT $LN62@UseSkill

; 655  : 	{
; 656  : 		DWORD dwPickedActorID;
; 657  : 		TPixelPosition kPPosPickedGround;
; 658  : 
; 659  : 		if (pkInstTarget && pkInstTarget!=pkInstMain)

  003e0	8b 45 d0	 mov	 eax, DWORD PTR _pkInstTarget$[ebp]
  003e3	85 c0		 test	 eax, eax
  003e5	74 0e		 je	 SHORT $LN56@UseSkill
  003e7	3b c6		 cmp	 eax, esi
  003e9	74 0a		 je	 SHORT $LN56@UseSkill

; 660  : 		{
; 661  : 			pkInstMain->NEW_LookAtDestInstance(*pkInstTarget);

  003eb	50		 push	 eax
  003ec	8b ce		 mov	 ecx, esi
  003ee	e8 00 00 00 00	 call	 ?NEW_LookAtDestInstance@CInstanceBase@@QAEXAAV1@@Z ; CInstanceBase::NEW_LookAtDestInstance

; 662  : 		}

  003f3	eb 51		 jmp	 SHORT $LN62@UseSkill
$LN56@UseSkill:

; 663  : 		else if (__GetPickedActorID(&dwPickedActorID))

  003f5	8d 45 cc	 lea	 eax, DWORD PTR _dwPickedActorID$4[ebp]
  003f8	8b cf		 mov	 ecx, edi
  003fa	50		 push	 eax
  003fb	e8 00 00 00 00	 call	 ?__GetPickedActorID@CPythonPlayer@@IAE_NPAK@Z ; CPythonPlayer::__GetPickedActorID
  00400	8b cf		 mov	 ecx, edi
  00402	84 c0		 test	 al, al
  00404	74 16		 je	 SHORT $LN58@UseSkill

; 664  : 		{
; 665  : 			CInstanceBase* pkInstVictim=NEW_FindActorPtr(dwPickedActorID);

  00406	ff 75 cc	 push	 DWORD PTR _dwPickedActorID$4[ebp]
  00409	e8 00 00 00 00	 call	 ?NEW_FindActorPtr@CPythonPlayer@@QAEPAVCInstanceBase@@K@Z ; CPythonPlayer::NEW_FindActorPtr

; 666  : 			if (pkInstVictim)

  0040e	85 c0		 test	 eax, eax
  00410	74 34		 je	 SHORT $LN62@UseSkill

; 667  : 				pkInstMain->NEW_LookAtDestInstance(*pkInstVictim);

  00412	50		 push	 eax
  00413	8b ce		 mov	 ecx, esi
  00415	e8 00 00 00 00	 call	 ?NEW_LookAtDestInstance@CInstanceBase@@QAEXAAV1@@Z ; CInstanceBase::NEW_LookAtDestInstance

; 668  : 		}

  0041a	eb 2a		 jmp	 SHORT $LN62@UseSkill
$LN58@UseSkill:

; 669  : 		else if (__GetPickedGroundPos(&kPPosPickedGround))

  0041c	8d 45 d8	 lea	 eax, DWORD PTR _kPPosPickedGround$7[ebp]
  0041f	50		 push	 eax
  00420	e8 00 00 00 00	 call	 ?__GetPickedGroundPos@CPythonPlayer@@IAE_NPAUD3DXVECTOR3@@@Z ; CPythonPlayer::__GetPickedGroundPos
  00425	84 c0		 test	 al, al
  00427	74 0d		 je	 SHORT $LN61@UseSkill

; 670  : 		{
; 671  : 			pkInstMain->NEW_LookAtDestPixelPosition(kPPosPickedGround);

  00429	8d 45 d8	 lea	 eax, DWORD PTR _kPPosPickedGround$7[ebp]
  0042c	8b ce		 mov	 ecx, esi
  0042e	50		 push	 eax
  0042f	e8 00 00 00 00	 call	 ?NEW_LookAtDestPixelPosition@CInstanceBase@@QAEXABUD3DXVECTOR3@@@Z ; CInstanceBase::NEW_LookAtDestPixelPosition

; 672  : 		}

  00434	eb 10		 jmp	 SHORT $LN62@UseSkill
$LN61@UseSkill:

; 673  : 		else
; 674  : 		{
; 675  : 			Tracenf("CPythonPlayer::__UseSkill(%d) -     ", dwSlotIndex);

  00436	ff 75 c0	 push	 DWORD PTR _dwSlotIndex$GSCopy$1$[ebp]
  00439	68 00 00 00 00	 push	 OFFSET ??_C@_0DN@DLLIDDMA@CPythonPlayer?3?3__UseSkill?$CI?$CFd?$CJ?5?9@
  0043e	e8 00 00 00 00	 call	 ?Tracenf@@YAXPBDZZ	; Tracenf
  00443	83 c4 08	 add	 esp, 8
$LN62@UseSkill:

; 676  : 		}
; 677  : 	}
; 678  : 
; 679  : 	//  
; 680  : 	DWORD dwTargetMaxCount = pSkillData->GetTargetCount(rkSkillInst.fcurEfficientPercentage);

  00446	8b 45 b8	 mov	 eax, DWORD PTR tv979[ebp]
  00449	51		 push	 ecx
  0044a	8b 4d d4	 mov	 ecx, DWORD PTR _pSkillData$[ebp]
  0044d	f3 0f 10 84 c7
	78 cb 00 00	 movss	 xmm0, DWORD PTR [edi+eax*8+52088]
  00456	f3 0f 11 04 24	 movss	 DWORD PTR [esp], xmm0
  0045b	e8 00 00 00 00	 call	 ?GetTargetCount@SSkillData@CPythonSkill@@QAEKM@Z ; CPythonSkill::SSkillData::GetTargetCount

; 681  : 	DWORD dwRange = __GetSkillTargetRange(*pSkillData);

  00460	ff 75 d4	 push	 DWORD PTR _pSkillData$[ebp]
  00463	8b cf		 mov	 ecx, edi
  00465	89 45 bc	 mov	 DWORD PTR _dwTargetMaxCount$1$[ebp], eax
  00468	e8 00 00 00 00	 call	 ?__GetSkillTargetRange@CPythonPlayer@@IAEKAAUSSkillData@CPythonSkill@@@Z ; CPythonPlayer::__GetSkillTargetRange

; 682  : 	if (dwTargetMaxCount>0 && pkInstTarget)

  0046d	83 7d bc 00	 cmp	 DWORD PTR _dwTargetMaxCount$1$[ebp], 0
  00471	89 45 cc	 mov	 DWORD PTR _dwRange$1$[ebp], eax
  00474	0f 86 3e 02 00
	00		 jbe	 $LN137@UseSkill
  0047a	83 7d d0 00	 cmp	 DWORD PTR _pkInstTarget$[ebp], 0
  0047e	0f 84 34 02 00
	00		 je	 $LN137@UseSkill

; 683  : 	{
; 684  : 		DWORD dwTargetCount=1;

  00484	c7 45 c8 01 00
	00 00		 mov	 DWORD PTR _dwTargetCount$1$[ebp], 1
; File C:\Program Files (x86)\Microsoft Visual Studio\2019\Community\VC\Tools\MSVC\14.28.29333\include\vector

; 375  :     _Vector_val() noexcept : _Myfirst(), _Mylast(), _Myend() {}

  0048b	c7 45 ac 00 00
	00 00		 mov	 DWORD PTR _kVct_pkInstTarget$2[ebp], 0
  00492	c7 45 b0 00 00
	00 00		 mov	 DWORD PTR _kVct_pkInstTarget$2[ebp+4], 0
  00499	c7 45 b4 00 00
	00 00		 mov	 DWORD PTR _kVct_pkInstTarget$2[ebp+8], 0
; File D:\Metin2 Server Files\mainline\SRC_2014\Metin2Client\UserInterface\PythonPlayerSkill.cpp

; 687  : 		if (pSkillData->IsFanRange())

  004a0	8b 4d d4	 mov	 ecx, DWORD PTR _pSkillData$[ebp]
  004a3	c7 45 fc 00 00
	00 00		 mov	 DWORD PTR __$EHRec$[ebp+8], 0
  004aa	e8 00 00 00 00	 call	 ?IsFanRange@SSkillData@CPythonSkill@@QAEHXZ ; CPythonSkill::SSkillData::IsFanRange
  004af	85 c0		 test	 eax, eax
  004b1	0f 84 b9 00 00
	00		 je	 $LN64@UseSkill

; 688  : 		{
; 689  : 			if (pkInstMain->NEW_GetInstanceVectorInFanRange(float(dwRange), *pkInstTarget, &kVct_pkInstTarget))

  004b7	8d 45 ac	 lea	 eax, DWORD PTR _kVct_pkInstTarget$2[ebp]
  004ba	50		 push	 eax
  004bb	8b 45 cc	 mov	 eax, DWORD PTR _dwRange$1$[ebp]
  004be	ff 75 d0	 push	 DWORD PTR _pkInstTarget$[ebp]
  004c1	51		 push	 ecx
  004c2	66 0f 6e c0	 movd	 xmm0, eax
  004c6	8b ce		 mov	 ecx, esi
  004c8	f3 0f e6 c0	 cvtdq2pd xmm0, xmm0
  004cc	c1 e8 1f	 shr	 eax, 31			; 0000001fH
  004cf	f2 0f 58 04 c5
	00 00 00 00	 addsd	 xmm0, QWORD PTR __xmm@41f00000000000000000000000000000[eax*8]
  004d8	66 0f 5a c0	 cvtpd2ps xmm0, xmm0
  004dc	f3 0f 11 04 24	 movss	 DWORD PTR [esp], xmm0
  004e1	e8 00 00 00 00	 call	 ?NEW_GetInstanceVectorInFanRange@CInstanceBase@@QAE_NMAAV1@PAV?$vector@PAVCInstanceBase@@V?$allocator@PAVCInstanceBase@@@std@@@std@@@Z ; CInstanceBase::NEW_GetInstanceVectorInFanRange
  004e6	84 c0		 test	 al, al
  004e8	0f 84 41 01 00
	00		 je	 $LN162@UseSkill

; 692  : 				for (i=kVct_pkInstTarget.begin(); i!=kVct_pkInstTarget.end(); ++i)

  004ee	8b 75 ac	 mov	 esi, DWORD PTR _kVct_pkInstTarget$2[ebp]
  004f1	3b 75 b0	 cmp	 esi, DWORD PTR _kVct_pkInstTarget$2[ebp+4]
  004f4	0f 84 32 01 00
	00		 je	 $LN172@UseSkill
  004fa	b8 01 00 00 00	 mov	 eax, 1
  004ff	90		 npad	 1
$LL99@UseSkill:

; 693  : 				{
; 694  : 					if (dwTargetCount>=dwTargetMaxCount)

  00500	3b 45 bc	 cmp	 eax, DWORD PTR _dwTargetMaxCount$1$[ebp]
  00503	0f 83 7a 01 00
	00		 jae	 $LN9@UseSkill

; 695  : 						break;
; 696  : 
; 697  : 					CInstanceBase* pkInstEach=*i;

  00509	8b 06		 mov	 eax, DWORD PTR [esi]
  0050b	89 45 cc	 mov	 DWORD PTR _pkInstEach$1$[ebp], eax

; 698  : 
; 699  : 					if (pkInstTarget!=pkInstEach && !pkInstEach->IsDead())

  0050e	39 45 d0	 cmp	 DWORD PTR _pkInstTarget$[ebp], eax
  00511	74 4d		 je	 SHORT $LN174@UseSkill
  00513	8b c8		 mov	 ecx, eax
  00515	e8 00 00 00 00	 call	 ?IsDead@CInstanceBase@@QAEHXZ ; CInstanceBase::IsDead
  0051a	85 c0		 test	 eax, eax
  0051c	75 42		 jne	 SHORT $LN174@UseSkill

; 700  : 					{
; 701  : 						pkInstMain->AddFlyTargetInstance(*pkInstEach);

  0051e	ff 75 cc	 push	 DWORD PTR _pkInstEach$1$[ebp]
  00521	8b 4d c4	 mov	 ecx, DWORD PTR _pkInstMain$1$[ebp]
  00524	e8 00 00 00 00	 call	 ?AddFlyTargetInstance@CInstanceBase@@QAEXAAV1@@Z ; CInstanceBase::AddFlyTargetInstance

; 702  : 						CPythonNetworkStream::Instance().SendAddFlyTargetingPacket(pkInstEach->GetVirtualID(), pkInstEach->GetGraphicThingInstanceRef().OnGetFlyTargetPosition());

  00529	8b 4d cc	 mov	 ecx, DWORD PTR _pkInstEach$1$[ebp]
  0052c	e8 00 00 00 00	 call	 ?GetGraphicThingInstanceRef@CInstanceBase@@QAEAAVCActorInstance@@XZ ; CInstanceBase::GetGraphicThingInstanceRef
  00531	8d 55 d8	 lea	 edx, DWORD PTR $T6[ebp]
  00534	52		 push	 edx
  00535	8d 88 dc 01 00
	00		 lea	 ecx, DWORD PTR [eax+476]
  0053b	8b 01		 mov	 eax, DWORD PTR [ecx]
  0053d	8b 40 04	 mov	 eax, DWORD PTR [eax+4]
  00540	ff d0		 call	 eax
  00542	8b 4d cc	 mov	 ecx, DWORD PTR _pkInstEach$1$[ebp]
  00545	50		 push	 eax
  00546	e8 00 00 00 00	 call	 ?GetVirtualID@CInstanceBase@@QAEKXZ ; CInstanceBase::GetVirtualID
  0054b	8b 0d 00 00 00
	00		 mov	 ecx, DWORD PTR ?ms_singleton@?$CSingleton@VCPythonNetworkStream@@@@0PAVCPythonNetworkStream@@A ; CSingleton<CPythonNetworkStream>::ms_singleton
  00551	50		 push	 eax
  00552	e8 00 00 00 00	 call	 ?SendAddFlyTargetingPacket@CPythonNetworkStream@@QAE_NKABUD3DXVECTOR3@@@Z ; CPythonNetworkStream::SendAddFlyTargetingPacket

; 703  : 
; 704  : 						dwTargetCount++;

  00557	8b 45 c8	 mov	 eax, DWORD PTR _dwTargetCount$1$[ebp]
  0055a	40		 inc	 eax
  0055b	89 45 c8	 mov	 DWORD PTR _dwTargetCount$1$[ebp], eax
  0055e	eb 03		 jmp	 SHORT $LN2@UseSkill
$LN174@UseSkill:
; File C:\Program Files (x86)\Microsoft Visual Studio\2019\Community\VC\Tools\MSVC\14.28.29333\include\vector

; 75   :         ++_Ptr;

  00560	8b 45 c8	 mov	 eax, DWORD PTR _dwTargetCount$1$[ebp]
$LN2@UseSkill:
  00563	83 c6 04	 add	 esi, 4
; File D:\Metin2 Server Files\mainline\SRC_2014\Metin2Client\UserInterface\PythonPlayerSkill.cpp

; 692  : 				for (i=kVct_pkInstTarget.begin(); i!=kVct_pkInstTarget.end(); ++i)

  00566	3b 75 b0	 cmp	 esi, DWORD PTR _kVct_pkInstTarget$2[ebp+4]
  00569	75 95		 jne	 SHORT $LL99@UseSkill

; 705  : 					}
; 706  : 				}
; 707  : 			}
; 708  : 		}

  0056b	e9 bc 00 00 00	 jmp	 $LN172@UseSkill
$LN64@UseSkill:

; 709  : 		else if (pSkillData->IsCircleRange())

  00570	8b 4d d4	 mov	 ecx, DWORD PTR _pSkillData$[ebp]
  00573	e8 00 00 00 00	 call	 ?IsCircleRange@SSkillData@CPythonSkill@@QAEHXZ ; CPythonSkill::SSkillData::IsCircleRange
  00578	85 c0		 test	 eax, eax
  0057a	0f 84 af 00 00
	00		 je	 $LN162@UseSkill

; 710  : 		{
; 711  : 			if (pkInstMain->NEW_GetInstanceVectorInCircleRange(float(dwRange), &kVct_pkInstTarget))

  00580	8d 45 ac	 lea	 eax, DWORD PTR _kVct_pkInstTarget$2[ebp]
  00583	50		 push	 eax
  00584	8b 45 cc	 mov	 eax, DWORD PTR _dwRange$1$[ebp]
  00587	51		 push	 ecx
  00588	8b ce		 mov	 ecx, esi
  0058a	66 0f 6e c0	 movd	 xmm0, eax
  0058e	f3 0f e6 c0	 cvtdq2pd xmm0, xmm0
  00592	c1 e8 1f	 shr	 eax, 31			; 0000001fH
  00595	f2 0f 58 04 c5
	00 00 00 00	 addsd	 xmm0, QWORD PTR __xmm@41f00000000000000000000000000000[eax*8]
  0059e	66 0f 5a c0	 cvtpd2ps xmm0, xmm0
  005a2	f3 0f 11 04 24	 movss	 DWORD PTR [esp], xmm0
  005a7	e8 00 00 00 00	 call	 ?NEW_GetInstanceVectorInCircleRange@CInstanceBase@@QAE_NMPAV?$vector@PAVCInstanceBase@@V?$allocator@PAVCInstanceBase@@@std@@@std@@@Z ; CInstanceBase::NEW_GetInstanceVectorInCircleRange
  005ac	84 c0		 test	 al, al
  005ae	0f 84 7b 00 00
	00		 je	 $LN162@UseSkill

; 714  : 				for (i=kVct_pkInstTarget.begin(); i!=kVct_pkInstTarget.end(); ++i)

  005b4	8b 75 ac	 mov	 esi, DWORD PTR _kVct_pkInstTarget$2[ebp]
  005b7	3b 75 b0	 cmp	 esi, DWORD PTR _kVct_pkInstTarget$2[ebp+4]
  005ba	74 70		 je	 SHORT $LN172@UseSkill
  005bc	b8 01 00 00 00	 mov	 eax, 1
$LL123@UseSkill:

; 715  : 				{
; 716  : 					if (dwTargetCount>=dwTargetMaxCount)

  005c1	3b 45 bc	 cmp	 eax, DWORD PTR _dwTargetMaxCount$1$[ebp]
  005c4	0f 83 b9 00 00
	00		 jae	 $LN9@UseSkill

; 717  : 						break;
; 718  : 
; 719  : 					CInstanceBase* pkInstEach=*i;

  005ca	8b 06		 mov	 eax, DWORD PTR [esi]
  005cc	89 45 cc	 mov	 DWORD PTR _pkInstEach$1$[ebp], eax

; 720  : 
; 721  : 					if (pkInstTarget!=pkInstEach && !pkInstEach->IsDead())

  005cf	39 45 d0	 cmp	 DWORD PTR _pkInstTarget$[ebp], eax
  005d2	74 4d		 je	 SHORT $LN176@UseSkill
  005d4	8b c8		 mov	 ecx, eax
  005d6	e8 00 00 00 00	 call	 ?IsDead@CInstanceBase@@QAEHXZ ; CInstanceBase::IsDead
  005db	85 c0		 test	 eax, eax
  005dd	75 42		 jne	 SHORT $LN176@UseSkill

; 722  : 					{
; 723  : 						pkInstMain->AddFlyTargetInstance(*pkInstEach);

  005df	ff 75 cc	 push	 DWORD PTR _pkInstEach$1$[ebp]
  005e2	8b 4d c4	 mov	 ecx, DWORD PTR _pkInstMain$1$[ebp]
  005e5	e8 00 00 00 00	 call	 ?AddFlyTargetInstance@CInstanceBase@@QAEXAAV1@@Z ; CInstanceBase::AddFlyTargetInstance

; 724  : 						CPythonNetworkStream::Instance().SendAddFlyTargetingPacket(pkInstEach->GetVirtualID(), pkInstEach->GetGraphicThingInstanceRef().OnGetFlyTargetPosition());

  005ea	8b 4d cc	 mov	 ecx, DWORD PTR _pkInstEach$1$[ebp]
  005ed	e8 00 00 00 00	 call	 ?GetGraphicThingInstanceRef@CInstanceBase@@QAEAAVCActorInstance@@XZ ; CInstanceBase::GetGraphicThingInstanceRef
  005f2	8d 55 d8	 lea	 edx, DWORD PTR $T5[ebp]
  005f5	52		 push	 edx
  005f6	8d 88 dc 01 00
	00		 lea	 ecx, DWORD PTR [eax+476]
  005fc	8b 01		 mov	 eax, DWORD PTR [ecx]
  005fe	8b 40 04	 mov	 eax, DWORD PTR [eax+4]
  00601	ff d0		 call	 eax
  00603	8b 4d cc	 mov	 ecx, DWORD PTR _pkInstEach$1$[ebp]
  00606	50		 push	 eax
  00607	e8 00 00 00 00	 call	 ?GetVirtualID@CInstanceBase@@QAEKXZ ; CInstanceBase::GetVirtualID
  0060c	8b 0d 00 00 00
	00		 mov	 ecx, DWORD PTR ?ms_singleton@?$CSingleton@VCPythonNetworkStream@@@@0PAVCPythonNetworkStream@@A ; CSingleton<CPythonNetworkStream>::ms_singleton
  00612	50		 push	 eax
  00613	e8 00 00 00 00	 call	 ?SendAddFlyTargetingPacket@CPythonNetworkStream@@QAE_NKABUD3DXVECTOR3@@@Z ; CPythonNetworkStream::SendAddFlyTargetingPacket

; 725  : 
; 726  : 						dwTargetCount++;

  00618	8b 45 c8	 mov	 eax, DWORD PTR _dwTargetCount$1$[ebp]
  0061b	40		 inc	 eax
  0061c	89 45 c8	 mov	 DWORD PTR _dwTargetCount$1$[ebp], eax
  0061f	eb 03		 jmp	 SHORT $LN5@UseSkill
$LN176@UseSkill:
; File C:\Program Files (x86)\Microsoft Visual Studio\2019\Community\VC\Tools\MSVC\14.28.29333\include\vector

; 75   :         ++_Ptr;

  00621	8b 45 c8	 mov	 eax, DWORD PTR _dwTargetCount$1$[ebp]
$LN5@UseSkill:
  00624	83 c6 04	 add	 esi, 4
; File D:\Metin2 Server Files\mainline\SRC_2014\Metin2Client\UserInterface\PythonPlayerSkill.cpp

; 714  : 				for (i=kVct_pkInstTarget.begin(); i!=kVct_pkInstTarget.end(); ++i)

  00627	3b 75 b0	 cmp	 esi, DWORD PTR _kVct_pkInstTarget$2[ebp+4]
  0062a	75 95		 jne	 SHORT $LL123@UseSkill
$LN172@UseSkill:

; 727  : 					}
; 728  : 				}
; 729  : 			}
; 730  : 		}
; 731  : 
; 732  : 		if (dwTargetCount<dwTargetMaxCount)

  0062c	8b 75 c4	 mov	 esi, DWORD PTR _pkInstMain$1$[ebp]
$LN162@UseSkill:
  0062f	8b 45 c8	 mov	 eax, DWORD PTR _dwTargetCount$1$[ebp]
  00632	3b 45 bc	 cmp	 eax, DWORD PTR _dwTargetMaxCount$1$[ebp]
  00635	73 4c		 jae	 SHORT $LN9@UseSkill
  00637	8b 7d bc	 mov	 edi, DWORD PTR _dwTargetMaxCount$1$[ebp]
  0063a	2b f8		 sub	 edi, eax
  0063c	0f 1f 40 00	 npad	 4
$LL8@UseSkill:

; 733  : 		{
; 734  : 			while (dwTargetCount<dwTargetMaxCount)
; 735  : 			{
; 736  : 				TPixelPosition kPPosDst;
; 737  : 				pkInstMain->NEW_GetRandomPositionInFanRange(*pkInstTarget, &kPPosDst);

  00640	8d 45 e4	 lea	 eax, DWORD PTR _kPPosDst$8[ebp]
  00643	8b ce		 mov	 ecx, esi
  00645	50		 push	 eax
  00646	ff 75 d0	 push	 DWORD PTR _pkInstTarget$[ebp]
  00649	e8 00 00 00 00	 call	 ?NEW_GetRandomPositionInFanRange@CInstanceBase@@QAEXAAV1@PAUD3DXVECTOR3@@@Z ; CInstanceBase::NEW_GetRandomPositionInFanRange

; 738  : 
; 739  : 				kPPosDst.x=kPPosDst.x;
; 740  : 				kPPosDst.y=-kPPosDst.y;

  0064e	f3 0f 10 45 e8	 movss	 xmm0, DWORD PTR _kPPosDst$8[ebp+4]

; 741  : 
; 742  : 				pkInstMain->AddFlyTargetPosition(kPPosDst);

  00653	8d 45 e4	 lea	 eax, DWORD PTR _kPPosDst$8[ebp]
  00656	0f 57 05 00 00
	00 00		 xorps	 xmm0, DWORD PTR __xmm@80000000800000008000000080000000
  0065d	8b ce		 mov	 ecx, esi
  0065f	50		 push	 eax
  00660	f3 0f 11 45 e8	 movss	 DWORD PTR _kPPosDst$8[ebp+4], xmm0
  00665	e8 00 00 00 00	 call	 ?AddFlyTargetPosition@CInstanceBase@@QAEXABUD3DXVECTOR3@@@Z ; CInstanceBase::AddFlyTargetPosition

; 743  : 				CPythonNetworkStream::Instance().SendAddFlyTargetingPacket(0, kPPosDst);

  0066a	8b 0d 00 00 00
	00		 mov	 ecx, DWORD PTR ?ms_singleton@?$CSingleton@VCPythonNetworkStream@@@@0PAVCPythonNetworkStream@@A ; CSingleton<CPythonNetworkStream>::ms_singleton
  00670	8d 45 e4	 lea	 eax, DWORD PTR _kPPosDst$8[ebp]
  00673	50		 push	 eax
  00674	6a 00		 push	 0
  00676	e8 00 00 00 00	 call	 ?SendAddFlyTargetingPacket@CPythonNetworkStream@@QAE_NKABUD3DXVECTOR3@@@Z ; CPythonNetworkStream::SendAddFlyTargetingPacket
  0067b	83 ef 01	 sub	 edi, 1
  0067e	75 c0		 jne	 SHORT $LL8@UseSkill
  00680	8b 7d a8	 mov	 edi, DWORD PTR _this$GSCopy$1$[ebp]
$LN9@UseSkill:
; File C:\Program Files (x86)\Microsoft Visual Studio\2019\Community\VC\Tools\MSVC\14.28.29333\include\vector

; 1694 :         if (_Myfirst) { // destroy and deallocate old array

  00683	8b 4d ac	 mov	 ecx, DWORD PTR _kVct_pkInstTarget$2[ebp]
; File D:\Metin2 Server Files\mainline\SRC_2014\Metin2Client\UserInterface\PythonPlayerSkill.cpp

; 748  : 	}

  00686	c7 45 fc ff ff
	ff ff		 mov	 DWORD PTR __$EHRec$[ebp+8], -1
; File C:\Program Files (x86)\Microsoft Visual Studio\2019\Community\VC\Tools\MSVC\14.28.29333\include\vector

; 1694 :         if (_Myfirst) { // destroy and deallocate old array

  0068d	85 c9		 test	 ecx, ecx
  0068f	74 27		 je	 SHORT $LN137@UseSkill

; 1695 :             _Destroy(_Myfirst, _Mylast);
; 1696 :             _Getal().deallocate(_Myfirst, static_cast<size_type>(_Myend - _Myfirst));

  00691	8b 45 b4	 mov	 eax, DWORD PTR _kVct_pkInstTarget$2[ebp+8]
  00694	2b c1		 sub	 eax, ecx
; File C:\Program Files (x86)\Microsoft Visual Studio\2019\Community\VC\Tools\MSVC\14.28.29333\include\xmemory

; 810  :         _Deallocate<_New_alignof<_Ty>>(_Ptr, sizeof(_Ty) * _Count);

  00696	83 e0 fc	 and	 eax, -4			; fffffffcH
  00699	50		 push	 eax
  0069a	51		 push	 ecx
  0069b	e8 00 00 00 00	 call	 ??$_Deallocate@$07$0A@@std@@YAXPAXI@Z ; std::_Deallocate<8,0>
  006a0	83 c4 08	 add	 esp, 8
; File C:\Program Files (x86)\Microsoft Visual Studio\2019\Community\VC\Tools\MSVC\14.28.29333\include\vector

; 1698 :             _Myfirst = pointer();

  006a3	c7 45 ac 00 00
	00 00		 mov	 DWORD PTR _kVct_pkInstTarget$2[ebp], 0

; 1699 :             _Mylast  = pointer();

  006aa	c7 45 b0 00 00
	00 00		 mov	 DWORD PTR _kVct_pkInstTarget$2[ebp+4], 0

; 1700 :             _Myend   = pointer();

  006b1	c7 45 b4 00 00
	00 00		 mov	 DWORD PTR _kVct_pkInstTarget$2[ebp+8], 0
$LN137@UseSkill:
; File D:\Metin2 Server Files\mainline\SRC_2014\Metin2Client\UserInterface\PythonPlayerSkill.cpp

; 752  : 	__ClearReservedAction();

  006b8	8b cf		 mov	 ecx, edi
  006ba	e8 00 00 00 00	 call	 ?__ClearReservedAction@CPythonPlayer@@IAEXXZ ; CPythonPlayer::__ClearReservedAction

; 753  : 	/////
; 754  : 
; 755  : 	if (!pSkillData->IsNoMotion())

  006bf	8b 4d d4	 mov	 ecx, DWORD PTR _pSkillData$[ebp]
  006c2	e8 00 00 00 00	 call	 ?IsNoMotion@SSkillData@CPythonSkill@@QAEHXZ ; CPythonSkill::SSkillData::IsNoMotion
  006c7	85 c0		 test	 eax, eax
  006c9	75 70		 jne	 SHORT $LN75@UseSkill

; 756  : 	{
; 757  : 		DWORD dwMotionIndex = pSkillData->GetSkillMotionIndex(rkSkillInst.iGrade);

  006cb	8b 75 b8	 mov	 esi, DWORD PTR tv979[ebp]
  006ce	8b 4d d4	 mov	 ecx, DWORD PTR _pSkillData$[ebp]
  006d1	ff b4 f7 70 cb
	00 00		 push	 DWORD PTR [edi+esi*8+52080]
  006d8	e8 00 00 00 00	 call	 ?GetSkillMotionIndex@SSkillData@CPythonSkill@@QAEKH@Z ; CPythonSkill::SSkillData::GetSkillMotionIndex
  006dd	8b f8		 mov	 edi, eax

; 758  : 		DWORD dwLoopCount = pSkillData->GetMotionLoopCount(rkSkillInst.fcurEfficientPercentage);

  006df	8b 45 a8	 mov	 eax, DWORD PTR _this$GSCopy$1$[ebp]
  006e2	51		 push	 ecx
  006e3	8b 4d d4	 mov	 ecx, DWORD PTR _pSkillData$[ebp]
  006e6	f3 0f 10 84 f0
	78 cb 00 00	 movss	 xmm0, DWORD PTR [eax+esi*8+52088]
  006ef	f3 0f 11 04 24	 movss	 DWORD PTR [esp], xmm0
  006f4	e8 00 00 00 00	 call	 ?GetMotionLoopCount@SSkillData@CPythonSkill@@QAEKM@Z ; CPythonSkill::SSkillData::GetMotionLoopCount

; 759  : 		if (!pkInstMain->NEW_UseSkill(rkSkillInst.dwIndex, dwMotionIndex, dwLoopCount, pSkillData->IsMovingSkill() ? true : false))

  006f9	8b 4d d4	 mov	 ecx, DWORD PTR _pSkillData$[ebp]
  006fc	8b f0		 mov	 esi, eax
  006fe	e8 00 00 00 00	 call	 ?IsMovingSkill@SSkillData@CPythonSkill@@QAEHXZ ; CPythonSkill::SSkillData::IsMovingSkill
  00703	85 c0		 test	 eax, eax
  00705	8b 45 b8	 mov	 eax, DWORD PTR tv979[ebp]
  00708	0f 95 c1	 setne	 cl
  0070b	0f b6 c9	 movzx	 ecx, cl
  0070e	51		 push	 ecx
  0070f	8b 4d c4	 mov	 ecx, DWORD PTR _pkInstMain$1$[ebp]
  00712	56		 push	 esi
  00713	57		 push	 edi
  00714	8b 7d a8	 mov	 edi, DWORD PTR _this$GSCopy$1$[ebp]
  00717	ff b4 c7 68 cb
	00 00		 push	 DWORD PTR [edi+eax*8+52072]
  0071e	e8 00 00 00 00	 call	 ?NEW_UseSkill@CInstanceBase@@QAE_NIII_N@Z ; CInstanceBase::NEW_UseSkill
  00723	84 c0		 test	 al, al
  00725	75 14		 jne	 SHORT $LN75@UseSkill

; 760  : 		{
; 761  : 			Tracenf("CPythonPlayer::__UseSkill(%d) - pkInstMain->NEW_UseSkill - ERROR", dwSlotIndex);

  00727	ff 75 c0	 push	 DWORD PTR _dwSlotIndex$GSCopy$1$[ebp]
  0072a	68 00 00 00 00	 push	 OFFSET ??_C@_0EB@LKBFGOEE@CPythonPlayer?3?3__UseSkill?$CI?$CFd?$CJ?5?9@
  0072f	e8 00 00 00 00	 call	 ?Tracenf@@YAXPBDZZ	; Tracenf
  00734	83 c4 08	 add	 esp, 8

; 769  : 	return true;
; 770  : }

  00737	32 c0		 xor	 al, al
  00739	eb 1d		 jmp	 SHORT $LN1@UseSkill
$LN75@UseSkill:

; 762  : 			return false;
; 763  : 		}
; 764  : 	}
; 765  : 
; 766  : 	DWORD dwTargetVID=pkInstTarget ? pkInstTarget->GetVirtualID() : 0;

  0073b	8b 4d d0	 mov	 ecx, DWORD PTR _pkInstTarget$[ebp]
  0073e	85 c9		 test	 ecx, ecx
  00740	74 07		 je	 SHORT $LN77@UseSkill
  00742	e8 00 00 00 00	 call	 ?GetVirtualID@CInstanceBase@@QAEKXZ ; CInstanceBase::GetVirtualID
  00747	eb 02		 jmp	 SHORT $LN78@UseSkill
$LN77@UseSkill:
  00749	33 c0		 xor	 eax, eax
$LN78@UseSkill:

; 767  : 
; 768  : 	__SendUseSkill(dwSlotIndex, dwTargetVID);

  0074b	50		 push	 eax
  0074c	ff 75 c0	 push	 DWORD PTR _dwSlotIndex$GSCopy$1$[ebp]
  0074f	8b cf		 mov	 ecx, edi
  00751	e8 00 00 00 00	 call	 ?__SendUseSkill@CPythonPlayer@@IAEXKK@Z ; CPythonPlayer::__SendUseSkill
$LN159@UseSkill:

; 769  : 	return true;
; 770  : }

  00756	b0 01		 mov	 al, 1
$LN1@UseSkill:
  00758	8b 4d f4	 mov	 ecx, DWORD PTR __$EHRec$[ebp]
  0075b	64 89 0d 00 00
	00 00		 mov	 DWORD PTR fs:0, ecx
  00762	59		 pop	 ecx
  00763	5f		 pop	 edi
  00764	5e		 pop	 esi
  00765	8b 4d f0	 mov	 ecx, DWORD PTR __$ArrayPad$[ebp]
  00768	33 cd		 xor	 ecx, ebp
  0076a	e8 00 00 00 00	 call	 @__security_check_cookie@4
  0076f	8b e5		 mov	 esp, ebp
  00771	5d		 pop	 ebp
  00772	c2 04 00	 ret	 4
$LN41@UseSkill:

; 595  : 						return false;
; 596  : 				}
; 597  : 				else
; 598  : 				{
; 599  : 					PyCallClassMemberFunc(m_ppyGameWindow, "OnCannotUseSkill", Py_BuildValue("(is)", GetMainCharacterIndex(), "CANNOT_ATTACK"));

  00775	68 00 00 00 00	 push	 OFFSET ??_C@_0O@BIOLCACO@CANNOT_ATTACK@

; 600  : 					return false;

  0077a	e9 12 fb ff ff	 jmp	 $LN178@UseSkill
_TEXT	ENDS
;	COMDAT text$x
text$x	SEGMENT
__unwindfunclet$?__UseSkill@CPythonPlayer@@IAE_NK@Z$0:
  00000	8d 4d ac	 lea	 ecx, DWORD PTR _kVct_pkInstTarget$2[ebp]
  00003	e9 00 00 00 00	 jmp	 ??1?$vector@PAVCInstanceBase@@V?$allocator@PAVCInstanceBase@@@std@@@std@@QAE@XZ ; std::vector<CInstanceBase *,std::allocator<CInstanceBase *> >::~vector<CInstanceBase *,std::allocator<CInstanceBase *> >
  00008	cc		 int	 3
  00009	cc		 int	 3
  0000a	cc		 int	 3
  0000b	cc		 int	 3
  0000c	cc		 int	 3
__ehhandler$?__UseSkill@CPythonPlayer@@IAE_NK@Z:
  0000d	90		 npad	 1
  0000e	90		 npad	 1
  0000f	8b 54 24 08	 mov	 edx, DWORD PTR [esp+8]
  00013	8d 42 0c	 lea	 eax, DWORD PTR [edx+12]
  00016	8b 4a a8	 mov	 ecx, DWORD PTR [edx-88]
  00019	33 c8		 xor	 ecx, eax
  0001b	e8 00 00 00 00	 call	 @__security_check_cookie@4
  00020	8b 4a fc	 mov	 ecx, DWORD PTR [edx-4]
  00023	33 c8		 xor	 ecx, eax
  00025	e8 00 00 00 00	 call	 @__security_check_cookie@4
  0002a	b8 00 00 00 00	 mov	 eax, OFFSET __ehfuncinfo$?__UseSkill@CPythonPlayer@@IAE_NK@Z
  0002f	e9 00 00 00 00	 jmp	 ___CxxFrameHandler3
text$x	ENDS
?__UseSkill@CPythonPlayer@@IAE_NK@Z ENDP		; CPythonPlayer::__UseSkill
; Function compile flags: /Ogtp
; File D:\Metin2 Server Files\mainline\SRC_2014\Metin2Client\UserInterface\PythonPlayerSkill.cpp
;	COMDAT ?__UseCurrentSkill@CPythonPlayer@@IAEXXZ
_TEXT	SEGMENT
?__UseCurrentSkill@CPythonPlayer@@IAEXXZ PROC		; CPythonPlayer::__UseCurrentSkill, COMDAT
; _this$ = ecx

; 388  : 	__UseSkill(m_dwcurSkillSlotIndex);

  00000	ff b1 4c f7 00
	00		 push	 DWORD PTR [ecx+63308]
  00006	e8 00 00 00 00	 call	 ?__UseSkill@CPythonPlayer@@IAE_NK@Z ; CPythonPlayer::__UseSkill

; 389  : }

  0000b	c3		 ret	 0
?__UseCurrentSkill@CPythonPlayer@@IAEXXZ ENDP		; CPythonPlayer::__UseCurrentSkill
_TEXT	ENDS
; Function compile flags: /Ogtp
; File D:\Metin2 Server Files\mainline\SRC_2014\Metin2Client\UserInterface\PythonPlayerSkill.cpp
;	COMDAT ?__CheckSkillUsable@CPythonPlayer@@IAE_NK@Z
_TEXT	SEGMENT
_rkSkillInst$1$ = -8					; size = 4
_pSkillData$ = -4					; size = 4
_dwSlotIndex$ = 8					; size = 4
?__CheckSkillUsable@CPythonPlayer@@IAE_NK@Z PROC	; CPythonPlayer::__CheckSkillUsable, COMDAT
; _this$ = ecx

; 167  : {

  00000	55		 push	 ebp
  00001	8b ec		 mov	 ebp, esp
  00003	83 ec 08	 sub	 esp, 8
  00006	53		 push	 ebx
  00007	56		 push	 esi
  00008	8b f1		 mov	 esi, ecx
  0000a	57		 push	 edi

; 168  : 	CInstanceBase * pkInstMain = NEW_GetMainActorPtr();

  0000b	8b 46 04	 mov	 eax, DWORD PTR [esi+4]
  0000e	8d 4e 04	 lea	 ecx, DWORD PTR [esi+4]
  00011	ff 90 88 00 00
	00		 call	 DWORD PTR [eax+136]
  00017	8b d8		 mov	 ebx, eax

; 169  : 	if (!pkInstMain)

  00019	85 db		 test	 ebx, ebx
  0001b	74 70		 je	 SHORT $LN32@CheckSkill

; 170  : 		return false;
; 171  : 
; 172  : 	if (dwSlotIndex >= SKILL_MAX_NUM)

  0001d	8b 45 08	 mov	 eax, DWORD PTR _dwSlotIndex$[ebp]
  00020	3d ff 00 00 00	 cmp	 eax, 255		; 000000ffH
  00025	73 66		 jae	 SHORT $LN32@CheckSkill

; 173  : 		return false;
; 174  : 
; 175  : 	TSkillInstance & rkSkillInst = m_playerStatus.aSkill[dwSlotIndex];

  00027	8d 0c 85 6d 19
	00 00		 lea	 ecx, DWORD PTR [eax*4+6509]
  0002e	03 c8		 add	 ecx, eax
  00030	8d 04 ce	 lea	 eax, DWORD PTR [esi+ecx*8]

; 176  : 
; 177  : 	CPythonSkill::TSkillData * pSkillData;
; 178  : 	if (!CPythonSkill::Instance().GetSkillData(rkSkillInst.dwIndex, &pSkillData))

  00033	8d 4d fc	 lea	 ecx, DWORD PTR _pSkillData$[ebp]
  00036	89 45 f8	 mov	 DWORD PTR _rkSkillInst$1$[ebp], eax
  00039	51		 push	 ecx
  0003a	ff 30		 push	 DWORD PTR [eax]
  0003c	8b 0d 00 00 00
	00		 mov	 ecx, DWORD PTR ?ms_singleton@?$CSingleton@VCPythonSkill@@@@0PAVCPythonSkill@@A ; CSingleton<CPythonSkill>::ms_singleton
  00042	e8 00 00 00 00	 call	 ?GetSkillData@CPythonSkill@@QAEHKPAPAUSSkillData@1@@Z ; CPythonSkill::GetSkillData
  00047	85 c0		 test	 eax, eax
  00049	74 42		 je	 SHORT $LN32@CheckSkill

; 179  : 		return false;
; 180  : 
; 181  : 	if (pkInstMain->IsMountingHorse())

  0004b	8b cb		 mov	 ecx, ebx
  0004d	e8 00 00 00 00	 call	 ?IsMountingHorse@CInstanceBase@@QAEHXZ ; CInstanceBase::IsMountingHorse
  00052	85 c0		 test	 eax, eax
  00054	74 42		 je	 SHORT $LN6@CheckSkill

; 182  : 	{
; 183  : 		if (!pSkillData->IsHorseSkill())

  00056	8b 4d fc	 mov	 ecx, DWORD PTR _pSkillData$[ebp]
  00059	e8 00 00 00 00	 call	 ?IsHorseSkill@SSkillData@CPythonSkill@@QAEHXZ ; CPythonSkill::SSkillData::IsHorseSkill
  0005e	85 c0		 test	 eax, eax
  00060	75 36		 jne	 SHORT $LN6@CheckSkill

; 184  : 		{
; 185  : 			PyCallClassMemberFunc(m_ppyGameWindow, "OnCannotUseSkill", Py_BuildValue("(is)", GetMainCharacterIndex(), "NOT_HORSE_SKILL"));

  00062	68 00 00 00 00	 push	 OFFSET ??_C@_0BA@MEPOIIPE@NOT_HORSE_SKILL@
$LN33@CheckSkill:

; 303  : 		}
; 304  : 	}
; 305  : 
; 306  : 	return true;
; 307  : }

  00067	8b 46 04	 mov	 eax, DWORD PTR [esi+4]
  0006a	8d 4e 04	 lea	 ecx, DWORD PTR [esi+4]
  0006d	ff 50 04	 call	 DWORD PTR [eax+4]
  00070	50		 push	 eax
  00071	68 00 00 00 00	 push	 OFFSET ??_C@_04JMLDJNEM@?$CIis?$CJ@
  00076	ff 15 00 00 00
	00		 call	 DWORD PTR __imp__Py_BuildValue
  0007c	50		 push	 eax
  0007d	68 00 00 00 00	 push	 OFFSET ??_C@_0BB@BOHMBBJL@OnCannotUseSkill@
  00082	ff 76 08	 push	 DWORD PTR [esi+8]
  00085	e8 00 00 00 00	 call	 ?PyCallClassMemberFunc@@YA_NPAU_object@@PBD0@Z ; PyCallClassMemberFunc
  0008a	83 c4 18	 add	 esp, 24			; 00000018H
$LN32@CheckSkill:
  0008d	5f		 pop	 edi
  0008e	5e		 pop	 esi
  0008f	32 c0		 xor	 al, al
  00091	5b		 pop	 ebx
  00092	8b e5		 mov	 esp, ebp
  00094	5d		 pop	 ebp
  00095	c2 04 00	 ret	 4
$LN6@CheckSkill:

; 186  : 			return false;
; 187  : 		}
; 188  : 	}
; 189  : 
; 190  : 	if (pSkillData->IsHorseSkill())

  00098	8b 4d fc	 mov	 ecx, DWORD PTR _pSkillData$[ebp]
  0009b	e8 00 00 00 00	 call	 ?IsHorseSkill@SSkillData@CPythonSkill@@QAEHXZ ; CPythonSkill::SSkillData::IsHorseSkill
  000a0	85 c0		 test	 eax, eax
  000a2	74 12		 je	 SHORT $LN8@CheckSkill

; 191  : 	{
; 192  : 		if (!pkInstMain->IsMountingHorse())

  000a4	8b cb		 mov	 ecx, ebx
  000a6	e8 00 00 00 00	 call	 ?IsMountingHorse@CInstanceBase@@QAEHXZ ; CInstanceBase::IsMountingHorse
  000ab	85 c0		 test	 eax, eax
  000ad	75 07		 jne	 SHORT $LN8@CheckSkill

; 193  : 		{
; 194  : 			PyCallClassMemberFunc(m_ppyGameWindow, "OnCannotUseSkill", Py_BuildValue("(is)", GetMainCharacterIndex(), "HAVE_TO_RIDE"));

  000af	68 00 00 00 00	 push	 OFFSET ??_C@_0N@DJBFACMO@HAVE_TO_RIDE@

; 195  : 			return false;

  000b4	eb b1		 jmp	 SHORT $LN33@CheckSkill
$LN8@CheckSkill:

; 196  : 		}
; 197  : 	}
; 198  : 
; 199  : 	// 2004.07.26.levites -    
; 200  : 	// NOTE :      - [levites]
; 201  : 	if (pSkillData->IsAttackSkill())

  000b6	8b 4d fc	 mov	 ecx, DWORD PTR _pSkillData$[ebp]
  000b9	e8 00 00 00 00	 call	 ?IsAttackSkill@SSkillData@CPythonSkill@@QAEHXZ ; CPythonSkill::SSkillData::IsAttackSkill
  000be	85 c0		 test	 eax, eax
  000c0	74 12		 je	 SHORT $LN10@CheckSkill

; 202  : 	{
; 203  : 		if (pkInstMain->IsInSafe())

  000c2	8b cb		 mov	 ecx, ebx
  000c4	e8 00 00 00 00	 call	 ?IsInSafe@CInstanceBase@@QAEHXZ ; CInstanceBase::IsInSafe
  000c9	85 c0		 test	 eax, eax
  000cb	74 07		 je	 SHORT $LN10@CheckSkill

; 204  : 		{
; 205  : 			PyCallClassMemberFunc(m_ppyGameWindow, "OnCannotUseSkill", Py_BuildValue("(is)", GetMainCharacterIndex(), "IN_SAFE"));

  000cd	68 00 00 00 00	 push	 OFFSET ??_C@_07OAOBINCH@IN_SAFE@

; 206  : 
; 207  : 			return false;

  000d2	eb 93		 jmp	 SHORT $LN33@CheckSkill
$LN10@CheckSkill:

; 208  : 		}
; 209  : 	}	
; 210  : 
; 211  : 	// NOTE :     - [levites]
; 212  : 	if (!pSkillData->IsCanUseSkill())

  000d4	8b 4d fc	 mov	 ecx, DWORD PTR _pSkillData$[ebp]
  000d7	e8 00 00 00 00	 call	 ?IsCanUseSkill@SSkillData@CPythonSkill@@QAE_NXZ ; CPythonSkill::SSkillData::IsCanUseSkill
  000dc	84 c0		 test	 al, al
  000de	74 ad		 je	 SHORT $LN32@CheckSkill

; 213  : 		return false;
; 214  : //	if (CPythonSkill::SKILL_TYPE_PASSIVE == pSkillData->byType)
; 215  : //		return false;
; 216  : 
; 217  : 	// NOTE : [Only Assassin]    .
; 218  : 	if (pSkillData->IsNeedEmptyBottle())

  000e0	8b 4d fc	 mov	 ecx, DWORD PTR _pSkillData$[ebp]
  000e3	e8 00 00 00 00	 call	 ?IsNeedEmptyBottle@SSkillData@CPythonSkill@@QAEHXZ ; CPythonSkill::SSkillData::IsNeedEmptyBottle
  000e8	85 c0		 test	 eax, eax
  000ea	74 1a		 je	 SHORT $LN13@CheckSkill

; 219  : 	{
; 220  : 		if (!__HasItem(27995))

  000ec	68 5b 6d 00 00	 push	 27995			; 00006d5bH
  000f1	8b ce		 mov	 ecx, esi
  000f3	e8 00 00 00 00	 call	 ?__HasItem@CPythonPlayer@@IAE_NK@Z ; CPythonPlayer::__HasItem
  000f8	84 c0		 test	 al, al
  000fa	75 0a		 jne	 SHORT $LN13@CheckSkill

; 221  : 		{
; 222  : 			PyCallClassMemberFunc(m_ppyGameWindow, "OnCannotUseSkill", Py_BuildValue("(is)", GetMainCharacterIndex(), "NEED_EMPTY_BOTTLE"));

  000fc	68 00 00 00 00	 push	 OFFSET ??_C@_0BC@DDKDAKLO@NEED_EMPTY_BOTTLE@

; 223  : 			return false;

  00101	e9 61 ff ff ff	 jmp	 $LN33@CheckSkill
$LN13@CheckSkill:

; 224  : 		}
; 225  : 	}
; 226  : 
; 227  : 	// NOTE : [Only Assassin]    .
; 228  : 	if (pSkillData->IsNeedPoisonBottle())

  00106	8b 4d fc	 mov	 ecx, DWORD PTR _pSkillData$[ebp]
  00109	e8 00 00 00 00	 call	 ?IsNeedPoisonBottle@SSkillData@CPythonSkill@@QAEHXZ ; CPythonSkill::SSkillData::IsNeedPoisonBottle
  0010e	85 c0		 test	 eax, eax
  00110	74 1a		 je	 SHORT $LN15@CheckSkill

; 229  : 	{
; 230  : 		if (!__HasItem(27996))

  00112	68 5c 6d 00 00	 push	 27996			; 00006d5cH
  00117	8b ce		 mov	 ecx, esi
  00119	e8 00 00 00 00	 call	 ?__HasItem@CPythonPlayer@@IAE_NK@Z ; CPythonPlayer::__HasItem
  0011e	84 c0		 test	 al, al
  00120	75 0a		 jne	 SHORT $LN15@CheckSkill

; 231  : 		{
; 232  : 			PyCallClassMemberFunc(m_ppyGameWindow, "OnCannotUseSkill", Py_BuildValue("(is)", GetMainCharacterIndex(), "NEED_POISON_BOTTLE"));

  00122	68 00 00 00 00	 push	 OFFSET ??_C@_0BD@HPCMPHGF@NEED_POISON_BOTTLE@

; 233  : 			return false;

  00127	e9 3b ff ff ff	 jmp	 $LN33@CheckSkill
$LN15@CheckSkill:

; 234  : 		}
; 235  : 	}
; 236  : 
; 237  : 	// NOTE :     .
; 238  : 	if (pkInstMain->IsFishingMode())

  0012c	8b cb		 mov	 ecx, ebx
  0012e	e8 00 00 00 00	 call	 ?IsFishingMode@CInstanceBase@@QAEHXZ ; CInstanceBase::IsFishingMode
  00133	85 c0		 test	 eax, eax
  00135	74 0a		 je	 SHORT $LN16@CheckSkill

; 239  : 	{
; 240  : 		PyCallClassMemberFunc(m_ppyGameWindow, "OnCannotUseSkill", Py_BuildValue("(is)", GetMainCharacterIndex(), "REMOVE_FISHING_ROD"));

  00137	68 00 00 00 00	 push	 OFFSET ??_C@_0BD@LIIMHBCN@REMOVE_FISHING_ROD@

; 241  : 		return false;

  0013c	e9 26 ff ff ff	 jmp	 $LN33@CheckSkill
$LN16@CheckSkill:

; 242  : 	}
; 243  : 
; 244  : 	// NOTE :  
; 245  : 	if (m_sysIsLevelLimit)

  00141	83 be c0 f7 00
	00 00		 cmp	 DWORD PTR [esi+63424], 0
  00148	74 13		 je	 SHORT $LN18@CheckSkill

; 246  : 	{
; 247  : 		if (rkSkillInst.iLevel <= 0)

  0014a	8b 45 f8	 mov	 eax, DWORD PTR _rkSkillInst$1$[ebp]
  0014d	83 78 0c 00	 cmp	 DWORD PTR [eax+12], 0
  00151	7f 0a		 jg	 SHORT $LN18@CheckSkill

; 248  : 		{
; 249  : 			PyCallClassMemberFunc(m_ppyGameWindow, "OnCannotUseSkill", Py_BuildValue("(is)", GetMainCharacterIndex(), "NOT_YET_LEARN"));

  00153	68 00 00 00 00	 push	 OFFSET ??_C@_0O@PFLGBNMN@NOT_YET_LEARN@

; 250  : 			return false;

  00158	e9 0a ff ff ff	 jmp	 $LN33@CheckSkill
$LN18@CheckSkill:

; 251  : 		}
; 252  : 	}
; 253  : 
; 254  : 	// NOTE :    
; 255  : 	if (!pSkillData->CanUseWeaponType(pkInstMain->GetWeaponType()))

  0015d	8b cb		 mov	 ecx, ebx
  0015f	e8 00 00 00 00	 call	 ?GetWeaponType@CInstanceBase@@QAEKXZ ; CInstanceBase::GetWeaponType
  00164	8b 4d fc	 mov	 ecx, DWORD PTR _pSkillData$[ebp]
  00167	50		 push	 eax
  00168	e8 00 00 00 00	 call	 ?CanUseWeaponType@SSkillData@CPythonSkill@@QAEHK@Z ; CPythonSkill::SSkillData::CanUseWeaponType
  0016d	85 c0		 test	 eax, eax
  0016f	75 0a		 jne	 SHORT $LN19@CheckSkill

; 256  : 	{
; 257  : 		PyCallClassMemberFunc(m_ppyGameWindow, "OnCannotUseSkill", Py_BuildValue("(is)", GetMainCharacterIndex(), "NOT_MATCHABLE_WEAPON"));

  00171	68 00 00 00 00	 push	 OFFSET ??_C@_0BF@KPLOMIJE@NOT_MATCHABLE_WEAPON@

; 258  : 		return false;

  00176	e9 ec fe ff ff	 jmp	 $LN33@CheckSkill
$LN19@CheckSkill:

; 259  : 	}
; 260  : 
; 261  : 	if (!pSkillData->IsHorseSkill()) // HORSE        

  0017b	8b 4d fc	 mov	 ecx, DWORD PTR _pSkillData$[ebp]
  0017e	e8 00 00 00 00	 call	 ?IsHorseSkill@SSkillData@CPythonSkill@@QAEHXZ ; CPythonSkill::SSkillData::IsHorseSkill
  00183	85 c0		 test	 eax, eax
  00185	75 30		 jne	 SHORT $LN23@CheckSkill

; 262  : 	{
; 263  : 		if (__CheckShortArrow(rkSkillInst, *pSkillData))

  00187	ff 75 fc	 push	 DWORD PTR _pSkillData$[ebp]
  0018a	8b ce		 mov	 ecx, esi
  0018c	ff 75 f8	 push	 DWORD PTR _rkSkillInst$1$[ebp]
  0018f	e8 00 00 00 00	 call	 ?__CheckShortArrow@CPythonPlayer@@IAE_NAAUSSkillInstance@1@AAUSSkillData@CPythonSkill@@@Z ; CPythonPlayer::__CheckShortArrow
  00194	84 c0		 test	 al, al
  00196	0f 85 f1 fe ff
	ff		 jne	 $LN32@CheckSkill

; 264  : 			return false;
; 265  : 
; 266  : 		// NOTE :      
; 267  : 		if (pSkillData->IsNeedBow())

  0019c	8b 4d fc	 mov	 ecx, DWORD PTR _pSkillData$[ebp]
  0019f	e8 00 00 00 00	 call	 ?IsNeedBow@SSkillData@CPythonSkill@@QAEHXZ ; CPythonSkill::SSkillData::IsNeedBow
  001a4	85 c0		 test	 eax, eax
  001a6	74 0f		 je	 SHORT $LN23@CheckSkill

; 268  : 		{
; 269  : 			if (!__HasEnoughArrow())

  001a8	8b ce		 mov	 ecx, esi
  001aa	e8 00 00 00 00	 call	 ?__HasEnoughArrow@CPythonPlayer@@IAE_NXZ ; CPythonPlayer::__HasEnoughArrow
  001af	84 c0		 test	 al, al
  001b1	0f 84 d6 fe ff
	ff		 je	 $LN32@CheckSkill
$LN23@CheckSkill:

; 270  : 				return false;
; 271  : 		}
; 272  : 	}
; 273  : 
; 274  : 	if (__CheckDashAffect(*pkInstMain))

  001b7	53		 push	 ebx
  001b8	8b ce		 mov	 ecx, esi
  001ba	e8 00 00 00 00	 call	 ?__CheckDashAffect@CPythonPlayer@@IAE_NAAVCInstanceBase@@@Z ; CPythonPlayer::__CheckDashAffect
  001bf	84 c0		 test	 al, al
  001c1	74 24		 je	 SHORT $LN24@CheckSkill

; 275  : 	{
; 276  : 		if (!pSkillData->IsChargeSkill())

  001c3	8b 4d fc	 mov	 ecx, DWORD PTR _pSkillData$[ebp]
  001c6	e8 00 00 00 00	 call	 ?IsChargeSkill@SSkillData@CPythonSkill@@QAEHXZ ; CPythonSkill::SSkillData::IsChargeSkill
  001cb	85 c0		 test	 eax, eax
  001cd	75 5b		 jne	 SHORT $LN30@CheckSkill

; 277  : 		{
; 278  : 			if (__CheckRestSkillCoolTime(dwSlotIndex))

  001cf	ff 75 08	 push	 DWORD PTR _dwSlotIndex$[ebp]
  001d2	8b ce		 mov	 ecx, esi
  001d4	e8 00 00 00 00	 call	 ?__CheckRestSkillCoolTime@CPythonPlayer@@IAE_NK@Z ; CPythonPlayer::__CheckRestSkillCoolTime
  001d9	84 c0		 test	 al, al
  001db	74 4d		 je	 SHORT $LN30@CheckSkill
$LN34@CheckSkill:

; 303  : 		}
; 304  : 	}
; 305  : 
; 306  : 	return true;
; 307  : }

  001dd	68 00 00 00 00	 push	 OFFSET ??_C@_0O@CCJDKKCC@WAIT_COOLTIME@
  001e2	e9 80 fe ff ff	 jmp	 $LN33@CheckSkill
$LN24@CheckSkill:

; 279  : 			{
; 280  : 				PyCallClassMemberFunc(m_ppyGameWindow, "OnCannotUseSkill", Py_BuildValue("(is)", GetMainCharacterIndex(), "WAIT_COOLTIME"));
; 281  : 				return false;
; 282  : 			}
; 283  : 		}
; 284  : 	}
; 285  : 	else
; 286  : 	{
; 287  : 		if (__CheckRestSkillCoolTime(dwSlotIndex))

  001e7	ff 75 08	 push	 DWORD PTR _dwSlotIndex$[ebp]
  001ea	8b ce		 mov	 ecx, esi
  001ec	e8 00 00 00 00	 call	 ?__CheckRestSkillCoolTime@CPythonPlayer@@IAE_NK@Z ; CPythonPlayer::__CheckRestSkillCoolTime
  001f1	84 c0		 test	 al, al
  001f3	75 e8		 jne	 SHORT $LN34@CheckSkill

; 288  : 		{
; 289  : 			PyCallClassMemberFunc(m_ppyGameWindow, "OnCannotUseSkill", Py_BuildValue("(is)", GetMainCharacterIndex(), "WAIT_COOLTIME"));
; 290  : 			return false;
; 291  : 		}
; 292  : 
; 293  : 		if (__CheckShortLife(rkSkillInst, *pSkillData))

  001f5	ff 75 fc	 push	 DWORD PTR _pSkillData$[ebp]
  001f8	8b 5d f8	 mov	 ebx, DWORD PTR _rkSkillInst$1$[ebp]
  001fb	8b ce		 mov	 ecx, esi
  001fd	53		 push	 ebx
  001fe	e8 00 00 00 00	 call	 ?__CheckShortLife@CPythonPlayer@@IAE_NAAUSSkillInstance@1@AAUSSkillData@CPythonSkill@@@Z ; CPythonPlayer::__CheckShortLife
  00203	84 c0		 test	 al, al
  00205	74 0a		 je	 SHORT $LN29@CheckSkill

; 294  : 		{
; 295  : 			PyCallClassMemberFunc(m_ppyGameWindow, "OnCannotUseSkill", Py_BuildValue("(is)", GetMainCharacterIndex(), "NOT_ENOUGH_HP"));

  00207	68 00 00 00 00	 push	 OFFSET ??_C@_0O@CILBJNOC@NOT_ENOUGH_HP@

; 296  : 			return false;

  0020c	e9 56 fe ff ff	 jmp	 $LN33@CheckSkill
$LN29@CheckSkill:

; 297  : 		}
; 298  : 
; 299  : 		if (__CheckShortMana(rkSkillInst, *pSkillData))

  00211	ff 75 fc	 push	 DWORD PTR _pSkillData$[ebp]
  00214	8b ce		 mov	 ecx, esi
  00216	53		 push	 ebx
  00217	e8 00 00 00 00	 call	 ?__CheckShortMana@CPythonPlayer@@IAE_NAAUSSkillInstance@1@AAUSSkillData@CPythonSkill@@@Z ; CPythonPlayer::__CheckShortMana
  0021c	84 c0		 test	 al, al
  0021e	74 0a		 je	 SHORT $LN30@CheckSkill

; 300  : 		{
; 301  : 			PyCallClassMemberFunc(m_ppyGameWindow, "OnCannotUseSkill", Py_BuildValue("(is)", GetMainCharacterIndex(), "NOT_ENOUGH_SP"));

  00220	68 00 00 00 00	 push	 OFFSET ??_C@_0O@DIMCNBHD@NOT_ENOUGH_SP@

; 302  : 			return false;

  00225	e9 3d fe ff ff	 jmp	 $LN33@CheckSkill
$LN30@CheckSkill:
  0022a	5f		 pop	 edi

; 303  : 		}
; 304  : 	}
; 305  : 
; 306  : 	return true;
; 307  : }

  0022b	5e		 pop	 esi
  0022c	b0 01		 mov	 al, 1
  0022e	5b		 pop	 ebx
  0022f	8b e5		 mov	 esp, ebp
  00231	5d		 pop	 ebp
  00232	c2 04 00	 ret	 4
?__CheckSkillUsable@CPythonPlayer@@IAE_NK@Z ENDP	; CPythonPlayer::__CheckSkillUsable
_TEXT	ENDS
; Function compile flags: /Ogtp
; File D:\Metin2 Server Files\mainline\SRC_2014\Metin2Client\UserInterface\PythonPlayerSkill.cpp
;	COMDAT ?__CanUseSkill@CPythonPlayer@@IAE_NXZ
_TEXT	SEGMENT
?__CanUseSkill@CPythonPlayer@@IAE_NXZ PROC		; CPythonPlayer::__CanUseSkill, COMDAT
; _this$ = ecx

; 440  : {

  00000	56		 push	 esi
  00001	8b f1		 mov	 esi, ecx

; 441  : 	CInstanceBase* pkInstMain=NEW_GetMainActorPtr();

  00003	8b 46 04	 mov	 eax, DWORD PTR [esi+4]
  00006	8d 4e 04	 lea	 ecx, DWORD PTR [esi+4]
  00009	57		 push	 edi
  0000a	ff 90 88 00 00
	00		 call	 DWORD PTR [eax+136]
  00010	8b f8		 mov	 edi, eax

; 442  : 	if (!pkInstMain)

  00012	85 ff		 test	 edi, edi
  00014	74 3b		 je	 SHORT $LN6@CanUseSkil

; 443  : 		return false;
; 444  : 
; 445  : 	if (IsObserverMode())

  00016	8b ce		 mov	 ecx, esi
  00018	e8 00 00 00 00	 call	 ?IsObserverMode@CPythonPlayer@@QAE_NXZ ; CPythonPlayer::IsObserverMode
  0001d	84 c0		 test	 al, al
  0001f	75 30		 jne	 SHORT $LN6@CanUseSkil

; 446  : 		return false;
; 447  : 
; 448  : 	// Fix me
; 449  : 	// .  20  ,           ... 
; 450  : 	//    can use skill   ...
; 451  : 	if (pkInstMain->IsMountingHorse() && (GetSkillGrade(109) < 1 && GetSkillLevel(109) < 20))

  00021	8b cf		 mov	 ecx, edi
  00023	e8 00 00 00 00	 call	 ?IsMountingHorse@CInstanceBase@@QAEHXZ ; CInstanceBase::IsMountingHorse
  00028	85 c0		 test	 eax, eax
  0002a	74 1c		 je	 SHORT $LN4@CanUseSkil
  0002c	6a 6d		 push	 109			; 0000006dH
  0002e	8b ce		 mov	 ecx, esi
  00030	e8 00 00 00 00	 call	 ?GetSkillGrade@CPythonPlayer@@QAEHK@Z ; CPythonPlayer::GetSkillGrade
  00035	83 f8 01	 cmp	 eax, 1
  00038	7d 0e		 jge	 SHORT $LN4@CanUseSkil
  0003a	6a 6d		 push	 109			; 0000006dH
  0003c	8b ce		 mov	 ecx, esi
  0003e	e8 00 00 00 00	 call	 ?GetSkillLevel@CPythonPlayer@@QAEHK@Z ; CPythonPlayer::GetSkillLevel
  00043	83 f8 14	 cmp	 eax, 20			; 00000014H
  00046	7c 09		 jl	 SHORT $LN6@CanUseSkil
$LN4@CanUseSkil:

; 454  : 	}
; 455  : 
; 456  : 	return pkInstMain->CanUseSkill();

  00048	8b cf		 mov	 ecx, edi
  0004a	5f		 pop	 edi

; 457  : }

  0004b	5e		 pop	 esi

; 454  : 	}
; 455  : 
; 456  : 	return pkInstMain->CanUseSkill();

  0004c	e9 00 00 00 00	 jmp	 ?CanUseSkill@CInstanceBase@@QAE_NXZ ; CInstanceBase::CanUseSkill
$LN6@CanUseSkil:
  00051	5f		 pop	 edi

; 452  : 	{
; 453  : 		return false;

  00052	32 c0		 xor	 al, al

; 457  : }

  00054	5e		 pop	 esi
  00055	c3		 ret	 0
?__CanUseSkill@CPythonPlayer@@IAE_NXZ ENDP		; CPythonPlayer::__CanUseSkill
_TEXT	ENDS
; Function compile flags: /Ogtp
; File D:\Metin2 Server Files\mainline\SRC_2014\Metin2Client\UserInterface\PythonPlayerSkill.cpp
;	COMDAT ?SetComboSkillFlag@CPythonPlayer@@UAEXH@Z
_TEXT	SEGMENT
_dwSlotIndex$ = -4					; size = 4
_bFlag$ = 8						; size = 4
?SetComboSkillFlag@CPythonPlayer@@UAEXH@Z PROC		; CPythonPlayer::SetComboSkillFlag, COMDAT
; _this$ = ecx

; 917  : {

  00000	55		 push	 ebp
  00001	8b ec		 mov	 ebp, esp
  00003	51		 push	 ecx
  00004	56		 push	 esi
  00005	57		 push	 edi
  00006	8b f9		 mov	 edi, ecx

; 918  : 	DWORD dwSlotIndex;
; 919  : 	if (!GetSkillSlotIndex(c_iSkillIndex_Combo, &dwSlotIndex))

  00008	8d 45 fc	 lea	 eax, DWORD PTR _dwSlotIndex$[ebp]
  0000b	50		 push	 eax
  0000c	ff 35 00 00 00
	00		 push	 DWORD PTR ?c_iSkillIndex_Combo@@3KB ; c_iSkillIndex_Combo
  00012	8d 4f fc	 lea	 ecx, DWORD PTR [edi-4]
  00015	e8 00 00 00 00	 call	 ?GetSkillSlotIndex@CPythonPlayer@@QAE_NKPAK@Z ; CPythonPlayer::GetSkillSlotIndex
  0001a	84 c0		 test	 al, al
  0001c	75 1b		 jne	 SHORT $LN2@SetComboSk

; 920  : 	{
; 921  : 		Tracef("CPythonPlayer::SetComboSkillFlag(killIndex=%d) - Can't Find Slot Index\n", c_iSkillIndex_Combo);

  0001e	ff 35 00 00 00
	00		 push	 DWORD PTR ?c_iSkillIndex_Combo@@3KB ; c_iSkillIndex_Combo
  00024	68 00 00 00 00	 push	 OFFSET ??_C@_0EI@OMJBNOHB@CPythonPlayer?3?3SetComboSkillFla@
  00029	e8 00 00 00 00	 call	 ?Tracef@@YAXPBDZZ	; Tracef
  0002e	83 c4 08	 add	 esp, 8
  00031	5f		 pop	 edi

; 947  : 	}
; 948  : }

  00032	5e		 pop	 esi
  00033	8b e5		 mov	 esp, ebp
  00035	5d		 pop	 ebp
  00036	c2 04 00	 ret	 4
$LN2@SetComboSk:

; 922  : 		return;
; 923  : 	}
; 924  : 
; 925  : 	int iLevel = GetSkillLevel(dwSlotIndex);

  00039	ff 75 fc	 push	 DWORD PTR _dwSlotIndex$[ebp]
  0003c	8d 4f fc	 lea	 ecx, DWORD PTR [edi-4]
  0003f	e8 00 00 00 00	 call	 ?GetSkillLevel@CPythonPlayer@@QAEHK@Z ; CPythonPlayer::GetSkillLevel

; 926  : 	if (iLevel <= 0)

  00044	85 c0		 test	 eax, eax
  00046	7f 1c		 jg	 SHORT $LN3@SetComboSk

; 927  : 	{
; 928  : 		Tracef("CPythonPlayer::SetComboSkillFlag(skillIndex=%d, skillLevel=%d) - Invalid Combo Skill Level\n", c_iSkillIndex_Combo, iLevel);

  00048	50		 push	 eax
  00049	ff 35 00 00 00
	00		 push	 DWORD PTR ?c_iSkillIndex_Combo@@3KB ; c_iSkillIndex_Combo
  0004f	68 00 00 00 00	 push	 OFFSET ??_C@_0FM@DHHFNKGI@CPythonPlayer?3?3SetComboSkillFla@
  00054	e8 00 00 00 00	 call	 ?Tracef@@YAXPBDZZ	; Tracef
  00059	83 c4 0c	 add	 esp, 12			; 0000000cH
  0005c	5f		 pop	 edi

; 947  : 	}
; 948  : }

  0005d	5e		 pop	 esi
  0005e	8b e5		 mov	 esp, ebp
  00060	5d		 pop	 ebp
  00061	c2 04 00	 ret	 4
$LN3@SetComboSk:
  00064	53		 push	 ebx

; 929  : 		return;
; 930  : 	}
; 931  : 
; 932  : 	iLevel = MIN(iLevel, 2);

  00065	6a 02		 push	 2
  00067	50		 push	 eax
  00068	e8 00 00 00 00	 call	 ?MIN@@YAHHH@Z		; MIN

; 933  : 
; 934  : 	CInstanceBase* pkInstMain = NEW_GetMainActorPtr();

  0006d	8b 17		 mov	 edx, DWORD PTR [edi]
  0006f	83 c4 08	 add	 esp, 8
  00072	8b cf		 mov	 ecx, edi
  00074	8b d8		 mov	 ebx, eax
  00076	ff 92 88 00 00
	00		 call	 DWORD PTR [edx+136]

; 935  : 	if (!pkInstMain)

  0007c	85 c0		 test	 eax, eax
  0007e	74 34		 je	 SHORT $LN8@SetComboSk

; 936  : 		return;
; 937  : 
; 938  : 	if (bFlag)

  00080	83 7d 08 00	 cmp	 DWORD PTR _bFlag$[ebp], 0
  00084	8b c8		 mov	 ecx, eax
  00086	74 1a		 je	 SHORT $LN5@SetComboSk

; 939  : 	{
; 940  : 		pkInstMain->SetComboType(iLevel);

  00088	53		 push	 ebx
  00089	e8 00 00 00 00	 call	 ?SetComboType@CInstanceBase@@QAEXI@Z ; CInstanceBase::SetComboType

; 941  : 		__ActivateSkillSlot(dwSlotIndex);

  0008e	ff 75 fc	 push	 DWORD PTR _dwSlotIndex$[ebp]
  00091	8d 4f fc	 lea	 ecx, DWORD PTR [edi-4]
  00094	e8 00 00 00 00	 call	 ?__ActivateSkillSlot@CPythonPlayer@@IAEXK@Z ; CPythonPlayer::__ActivateSkillSlot
  00099	5b		 pop	 ebx
  0009a	5f		 pop	 edi

; 947  : 	}
; 948  : }

  0009b	5e		 pop	 esi
  0009c	8b e5		 mov	 esp, ebp
  0009e	5d		 pop	 ebp
  0009f	c2 04 00	 ret	 4
$LN5@SetComboSk:

; 942  : 	}
; 943  : 	else
; 944  : 	{
; 945  : 		pkInstMain->SetComboType(0);

  000a2	6a 00		 push	 0
  000a4	e8 00 00 00 00	 call	 ?SetComboType@CInstanceBase@@QAEXI@Z ; CInstanceBase::SetComboType

; 946  : 		__DeactivateSkillSlot(dwSlotIndex);

  000a9	ff 75 fc	 push	 DWORD PTR _dwSlotIndex$[ebp]
  000ac	8d 4f fc	 lea	 ecx, DWORD PTR [edi-4]
  000af	e8 00 00 00 00	 call	 ?__DeactivateSkillSlot@CPythonPlayer@@IAEXK@Z ; CPythonPlayer::__DeactivateSkillSlot
$LN8@SetComboSk:

; 947  : 	}
; 948  : }

  000b4	5b		 pop	 ebx
  000b5	5f		 pop	 edi
  000b6	5e		 pop	 esi
  000b7	8b e5		 mov	 esp, ebp
  000b9	5d		 pop	 ebp
  000ba	c2 04 00	 ret	 4
?SetComboSkillFlag@CPythonPlayer@@UAEXH@Z ENDP		; CPythonPlayer::SetComboSkillFlag
_TEXT	ENDS
; Function compile flags: /Ogtp
; File D:\Metin2 Server Files\mainline\SRC_2014\Metin2Client\UserInterface\PythonPlayerSkill.cpp
;	COMDAT ?ClearAffects@CPythonPlayer@@QAEXXZ
_TEXT	SEGMENT
?ClearAffects@CPythonPlayer@@QAEXXZ PROC		; CPythonPlayer::ClearAffects, COMDAT
; _this$ = ecx

; 11   : {

  00000	56		 push	 esi

; 12   : 	PyCallClassMemberFunc(m_ppyGameWindow, "ClearAffects", Py_BuildValue("()"));

  00001	68 00 00 00 00	 push	 OFFSET ??_C@_02HCKGKOFO@?$CI?$CJ@
  00006	8b f1		 mov	 esi, ecx
  00008	ff 15 00 00 00
	00		 call	 DWORD PTR __imp__Py_BuildValue
  0000e	50		 push	 eax
  0000f	68 00 00 00 00	 push	 OFFSET ??_C@_0N@OADAMGHE@ClearAffects@
  00014	ff 76 08	 push	 DWORD PTR [esi+8]
  00017	e8 00 00 00 00	 call	 ?PyCallClassMemberFunc@@YA_NPAU_object@@PBD0@Z ; PyCallClassMemberFunc
  0001c	83 c4 10	 add	 esp, 16			; 00000010H
  0001f	5e		 pop	 esi

; 13   : }

  00020	c3		 ret	 0
?ClearAffects@CPythonPlayer@@QAEXXZ ENDP		; CPythonPlayer::ClearAffects
_TEXT	ENDS
; Function compile flags: /Ogtp
; File D:\Metin2 Server Files\mainline\SRC_2014\Metin2Client\UserInterface\PythonPlayerSkill.cpp
;	COMDAT ?ResetAffect@CPythonPlayer@@QAEXI@Z
_TEXT	SEGMENT
_dwSkillSlotIndex$ = -12				; size = 4
_pSkillData$ = -8					; size = 4
_dwSkillIndex$ = -4					; size = 4
_uAffect$ = 8						; size = 4
?ResetAffect@CPythonPlayer@@QAEXI@Z PROC		; CPythonPlayer::ResetAffect, COMDAT
; _this$ = ecx

; 40   : {

  00000	55		 push	 ebp
  00001	8b ec		 mov	 ebp, esp
  00003	83 ec 0c	 sub	 esp, 12			; 0000000cH
  00006	57		 push	 edi

; 41   : 	// 2004.07.17.myevan.      
; 42   : 	PyCallClassMemberFunc(m_ppyGameWindow, "ResetAffect", Py_BuildValue("(i)", uAffect));

  00007	ff 75 08	 push	 DWORD PTR _uAffect$[ebp]
  0000a	8b f9		 mov	 edi, ecx
  0000c	68 00 00 00 00	 push	 OFFSET ??_C@_03LIHNMIHG@?$CIi?$CJ@
  00011	ff 15 00 00 00
	00		 call	 DWORD PTR __imp__Py_BuildValue
  00017	50		 push	 eax
  00018	68 00 00 00 00	 push	 OFFSET ??_C@_0M@HBOAHMLO@ResetAffect@
  0001d	ff 77 08	 push	 DWORD PTR [edi+8]
  00020	e8 00 00 00 00	 call	 ?PyCallClassMemberFunc@@YA_NPAU_object@@PBD0@Z ; PyCallClassMemberFunc
  00025	83 c4 14	 add	 esp, 20			; 00000014H

; 43   : 
; 44   : 	DWORD dwSkillIndex;
; 45   : 	if (!AffectIndexToSkillIndex(uAffect, &dwSkillIndex))

  00028	8d 45 fc	 lea	 eax, DWORD PTR _dwSkillIndex$[ebp]
  0002b	8b cf		 mov	 ecx, edi
  0002d	50		 push	 eax
  0002e	ff 75 08	 push	 DWORD PTR _uAffect$[ebp]
  00031	e8 00 00 00 00	 call	 ?AffectIndexToSkillIndex@CPythonPlayer@@QAE_NKPAK@Z ; CPythonPlayer::AffectIndexToSkillIndex
  00036	84 c0		 test	 al, al
  00038	74 3e		 je	 SHORT $LN1@ResetAffec

; 46   : 		return;
; 47   : 
; 48   : 	CPythonSkill::TSkillData * pSkillData;
; 49   : 	if (!CPythonSkill::Instance().GetSkillData(dwSkillIndex, &pSkillData))

  0003a	8b 0d 00 00 00
	00		 mov	 ecx, DWORD PTR ?ms_singleton@?$CSingleton@VCPythonSkill@@@@0PAVCPythonSkill@@A ; CSingleton<CPythonSkill>::ms_singleton
  00040	8d 45 f8	 lea	 eax, DWORD PTR _pSkillData$[ebp]
  00043	50		 push	 eax
  00044	ff 75 fc	 push	 DWORD PTR _dwSkillIndex$[ebp]
  00047	e8 00 00 00 00	 call	 ?GetSkillData@CPythonSkill@@QAEHKPAPAUSSkillData@1@@Z ; CPythonSkill::GetSkillData
  0004c	85 c0		 test	 eax, eax
  0004e	74 28		 je	 SHORT $LN1@ResetAffec

; 50   : 		return;
; 51   : 
; 52   : 	if (!pSkillData->IsToggleSkill())

  00050	8b 4d f8	 mov	 ecx, DWORD PTR _pSkillData$[ebp]
  00053	e8 00 00 00 00	 call	 ?IsToggleSkill@SSkillData@CPythonSkill@@QAEHXZ ; CPythonSkill::SSkillData::IsToggleSkill
  00058	85 c0		 test	 eax, eax
  0005a	74 1c		 je	 SHORT $LN1@ResetAffec

; 53   : 		return;
; 54   : 
; 55   : 	DWORD dwSkillSlotIndex;
; 56   : 	if (!GetSkillSlotIndex(dwSkillIndex, &dwSkillSlotIndex))

  0005c	8d 45 f4	 lea	 eax, DWORD PTR _dwSkillSlotIndex$[ebp]
  0005f	8b cf		 mov	 ecx, edi
  00061	50		 push	 eax
  00062	ff 75 fc	 push	 DWORD PTR _dwSkillIndex$[ebp]
  00065	e8 00 00 00 00	 call	 ?GetSkillSlotIndex@CPythonPlayer@@QAE_NKPAK@Z ; CPythonPlayer::GetSkillSlotIndex
  0006a	84 c0		 test	 al, al
  0006c	74 0a		 je	 SHORT $LN1@ResetAffec

; 57   : 		return;
; 58   : 
; 59   : 	__DeactivateSkillSlot(dwSkillSlotIndex);

  0006e	ff 75 f4	 push	 DWORD PTR _dwSkillSlotIndex$[ebp]
  00071	8b cf		 mov	 ecx, edi
  00073	e8 00 00 00 00	 call	 ?__DeactivateSkillSlot@CPythonPlayer@@IAEXK@Z ; CPythonPlayer::__DeactivateSkillSlot
$LN1@ResetAffec:
  00078	5f		 pop	 edi

; 60   : }

  00079	8b e5		 mov	 esp, ebp
  0007b	5d		 pop	 ebp
  0007c	c2 04 00	 ret	 4
?ResetAffect@CPythonPlayer@@QAEXI@Z ENDP		; CPythonPlayer::ResetAffect
_TEXT	ENDS
; Function compile flags: /Ogtp
; File D:\Metin2 Server Files\mainline\SRC_2014\Metin2Client\UserInterface\PythonPlayerSkill.cpp
;	COMDAT ?SetAffect@CPythonPlayer@@QAEXI@Z
_TEXT	SEGMENT
_dwSkillSlotIndex$ = -12				; size = 4
_pSkillData$ = -8					; size = 4
_dwSkillIndex$ = -4					; size = 4
_uAffect$ = 8						; size = 4
?SetAffect@CPythonPlayer@@QAEXI@Z PROC			; CPythonPlayer::SetAffect, COMDAT
; _this$ = ecx

; 16   : {

  00000	55		 push	 ebp
  00001	8b ec		 mov	 ebp, esp
  00003	83 ec 0c	 sub	 esp, 12			; 0000000cH
  00006	57		 push	 edi

; 17   : 	PyCallClassMemberFunc(m_ppyGameWindow, "SetAffect", Py_BuildValue("(i)", uAffect));

  00007	ff 75 08	 push	 DWORD PTR _uAffect$[ebp]
  0000a	8b f9		 mov	 edi, ecx
  0000c	68 00 00 00 00	 push	 OFFSET ??_C@_03LIHNMIHG@?$CIi?$CJ@
  00011	ff 15 00 00 00
	00		 call	 DWORD PTR __imp__Py_BuildValue
  00017	50		 push	 eax
  00018	68 00 00 00 00	 push	 OFFSET ??_C@_09FHCBCPJO@SetAffect@
  0001d	ff 77 08	 push	 DWORD PTR [edi+8]
  00020	e8 00 00 00 00	 call	 ?PyCallClassMemberFunc@@YA_NPAU_object@@PBD0@Z ; PyCallClassMemberFunc
  00025	83 c4 14	 add	 esp, 20			; 00000014H

; 18   : 
; 19   : 	/////
; 20   : 
; 21   : 	DWORD dwSkillIndex;
; 22   : 	if (!AffectIndexToSkillIndex(uAffect, &dwSkillIndex))

  00028	8d 45 fc	 lea	 eax, DWORD PTR _dwSkillIndex$[ebp]
  0002b	8b cf		 mov	 ecx, edi
  0002d	50		 push	 eax
  0002e	ff 75 08	 push	 DWORD PTR _uAffect$[ebp]
  00031	e8 00 00 00 00	 call	 ?AffectIndexToSkillIndex@CPythonPlayer@@QAE_NKPAK@Z ; CPythonPlayer::AffectIndexToSkillIndex
  00036	84 c0		 test	 al, al
  00038	74 3e		 je	 SHORT $LN1@SetAffect

; 23   : 		return;
; 24   : 
; 25   : 	CPythonSkill::TSkillData * pSkillData;
; 26   : 	if (!CPythonSkill::Instance().GetSkillData(dwSkillIndex, &pSkillData))

  0003a	8b 0d 00 00 00
	00		 mov	 ecx, DWORD PTR ?ms_singleton@?$CSingleton@VCPythonSkill@@@@0PAVCPythonSkill@@A ; CSingleton<CPythonSkill>::ms_singleton
  00040	8d 45 f8	 lea	 eax, DWORD PTR _pSkillData$[ebp]
  00043	50		 push	 eax
  00044	ff 75 fc	 push	 DWORD PTR _dwSkillIndex$[ebp]
  00047	e8 00 00 00 00	 call	 ?GetSkillData@CPythonSkill@@QAEHKPAPAUSSkillData@1@@Z ; CPythonSkill::GetSkillData
  0004c	85 c0		 test	 eax, eax
  0004e	74 28		 je	 SHORT $LN1@SetAffect

; 27   : 		return;
; 28   : 
; 29   : 	if (!pSkillData->IsToggleSkill())

  00050	8b 4d f8	 mov	 ecx, DWORD PTR _pSkillData$[ebp]
  00053	e8 00 00 00 00	 call	 ?IsToggleSkill@SSkillData@CPythonSkill@@QAEHXZ ; CPythonSkill::SSkillData::IsToggleSkill
  00058	85 c0		 test	 eax, eax
  0005a	74 1c		 je	 SHORT $LN1@SetAffect

; 30   : 		return;
; 31   : 
; 32   : 	DWORD dwSkillSlotIndex;
; 33   : 	if (!GetSkillSlotIndex(dwSkillIndex, &dwSkillSlotIndex))

  0005c	8d 45 f4	 lea	 eax, DWORD PTR _dwSkillSlotIndex$[ebp]
  0005f	8b cf		 mov	 ecx, edi
  00061	50		 push	 eax
  00062	ff 75 fc	 push	 DWORD PTR _dwSkillIndex$[ebp]
  00065	e8 00 00 00 00	 call	 ?GetSkillSlotIndex@CPythonPlayer@@QAE_NKPAK@Z ; CPythonPlayer::GetSkillSlotIndex
  0006a	84 c0		 test	 al, al
  0006c	74 0a		 je	 SHORT $LN1@SetAffect

; 34   : 		return;
; 35   : 
; 36   : 	__ActivateSkillSlot(dwSkillSlotIndex);

  0006e	ff 75 f4	 push	 DWORD PTR _dwSkillSlotIndex$[ebp]
  00071	8b cf		 mov	 ecx, edi
  00073	e8 00 00 00 00	 call	 ?__ActivateSkillSlot@CPythonPlayer@@IAEXK@Z ; CPythonPlayer::__ActivateSkillSlot
$LN1@SetAffect:
  00078	5f		 pop	 edi

; 37   : }

  00079	8b e5		 mov	 esp, ebp
  0007b	5d		 pop	 ebp
  0007c	c2 04 00	 ret	 4
?SetAffect@CPythonPlayer@@QAEXI@Z ENDP			; CPythonPlayer::SetAffect
_TEXT	ENDS
; Function compile flags: /Ogtp
; File D:\Metin2 Server Files\mainline\SRC_2014\Metin2Client\UserInterface\PythonPlayerSkill.cpp
;	COMDAT ?UseGuildSkill@CPythonPlayer@@QAEXK@Z
_TEXT	SEGMENT
_pkInstMain$1$ = -8					; size = 4
_pSkillData$ = -4					; size = 4
_dwSkillIndex$1$ = 8					; size = 4
_dwSkillSlotIndex$ = 8					; size = 4
?UseGuildSkill@CPythonPlayer@@QAEXK@Z PROC		; CPythonPlayer::UseGuildSkill, COMDAT
; _this$ = ecx

; 866  : {

  00000	55		 push	 ebp
  00001	8b ec		 mov	 ebp, esp
  00003	83 ec 08	 sub	 esp, 8
  00006	53		 push	 ebx
  00007	57		 push	 edi
  00008	8b f9		 mov	 edi, ecx

; 867  : 	CInstanceBase* pkInstMain = NEW_GetMainActorPtr();

  0000a	8b 47 04	 mov	 eax, DWORD PTR [edi+4]
  0000d	8d 4f 04	 lea	 ecx, DWORD PTR [edi+4]
  00010	ff 90 88 00 00
	00		 call	 DWORD PTR [eax+136]
  00016	89 45 f8	 mov	 DWORD PTR _pkInstMain$1$[ebp], eax

; 868  : 	if (!pkInstMain)

  00019	85 c0		 test	 eax, eax
  0001b	0f 84 fd 00 00
	00		 je	 $LN1@UseGuildSk

; 869  : 		return;
; 870  : 	if (!pkInstMain->CanUseSkill())

  00021	8b c8		 mov	 ecx, eax
  00023	e8 00 00 00 00	 call	 ?CanUseSkill@CInstanceBase@@QAE_NXZ ; CInstanceBase::CanUseSkill
  00028	84 c0		 test	 al, al
  0002a	0f 84 ee 00 00
	00		 je	 $LN1@UseGuildSk

; 871  : 		return;
; 872  : 
; 873  : 	///////////////////////////////////////////////////////////////////////////////////////////////
; 874  : 
; 875  : 	if (dwSkillSlotIndex >= SKILL_MAX_NUM)

  00030	56		 push	 esi
  00031	8b 75 08	 mov	 esi, DWORD PTR _dwSkillSlotIndex$[ebp]
  00034	81 fe ff 00 00
	00		 cmp	 esi, 255		; 000000ffH
  0003a	72 17		 jb	 SHORT $LN4@UseGuildSk

; 876  : 	{
; 877  : 		Tracenf("CPythonPlayer::UseGuildSkill(dwSkillSlotIndex=%d) It's not available skill slot number", dwSkillSlotIndex);

  0003c	56		 push	 esi
  0003d	68 00 00 00 00	 push	 OFFSET ??_C@_0FH@CAACOELN@CPythonPlayer?3?3UseGuildSkill?$CIdw@
  00042	e8 00 00 00 00	 call	 ?Tracenf@@YAXPBDZZ	; Tracenf
  00047	83 c4 08	 add	 esp, 8
  0004a	5e		 pop	 esi
  0004b	5f		 pop	 edi

; 914  : }

  0004c	5b		 pop	 ebx
  0004d	8b e5		 mov	 esp, ebp
  0004f	5d		 pop	 ebp
  00050	c2 04 00	 ret	 4
$LN4@UseGuildSk:

; 878  : 		return;
; 879  : 	}
; 880  : 
; 881  : 	TSkillInstance & rkSkillInst = m_playerStatus.aSkill[dwSkillSlotIndex];
; 882  : 
; 883  : 	DWORD dwSkillIndex = rkSkillInst.dwIndex;
; 884  : 
; 885  : 	CPythonSkill::TSkillData * pSkillData;
; 886  : 	if (!CPythonSkill::Instance().GetSkillData(dwSkillIndex, &pSkillData))

  00053	8d 4d fc	 lea	 ecx, DWORD PTR _pSkillData$[ebp]
  00056	51		 push	 ecx
  00057	8b 0d 00 00 00
	00		 mov	 ecx, DWORD PTR ?ms_singleton@?$CSingleton@VCPythonSkill@@@@0PAVCPythonSkill@@A ; CSingleton<CPythonSkill>::ms_singleton
  0005d	8d 04 b6	 lea	 eax, DWORD PTR [esi+esi*4]
  00060	8b 84 c7 68 cb
	00 00		 mov	 eax, DWORD PTR [edi+eax*8+52072]
  00067	50		 push	 eax
  00068	89 45 08	 mov	 DWORD PTR _dwSkillIndex$1$[ebp], eax
  0006b	e8 00 00 00 00	 call	 ?GetSkillData@CPythonSkill@@QAEHKPAPAUSSkillData@1@@Z ; CPythonSkill::GetSkillData
  00070	85 c0		 test	 eax, eax
  00072	0f 84 a5 00 00
	00		 je	 $LN11@UseGuildSk

; 887  : 		return;
; 888  : 
; 889  : 	if (__CheckRestSkillCoolTime(dwSkillSlotIndex))

  00078	56		 push	 esi
  00079	8b cf		 mov	 ecx, edi
  0007b	e8 00 00 00 00	 call	 ?__CheckRestSkillCoolTime@CPythonPlayer@@IAE_NK@Z ; CPythonPlayer::__CheckRestSkillCoolTime
  00080	84 c0		 test	 al, al
  00082	74 07		 je	 SHORT $LN6@UseGuildSk

; 890  : 	{
; 891  : 		PyCallClassMemberFunc(m_ppyGameWindow, "OnCannotUseSkill", Py_BuildValue("(is)", GetMainCharacterIndex(), "WAIT_COOLTIME"));

  00084	68 00 00 00 00	 push	 OFFSET ??_C@_0O@CCJDKKCC@WAIT_COOLTIME@

; 892  : 		return;

  00089	eb 20		 jmp	 SHORT $LN12@UseGuildSk
$LN6@UseGuildSk:

; 893  : 	}
; 894  : 
; 895  : 	if (pSkillData->IsOnlyForGuildWar())

  0008b	8b 4d fc	 mov	 ecx, DWORD PTR _pSkillData$[ebp]
  0008e	e8 00 00 00 00	 call	 ?IsOnlyForGuildWar@SSkillData@CPythonSkill@@QAEHXZ ; CPythonSkill::SSkillData::IsOnlyForGuildWar
  00093	85 c0		 test	 eax, eax
  00095	74 43		 je	 SHORT $LN8@UseGuildSk

; 896  : 	{
; 897  : 		if (!CPythonGuild::Instance().IsDoingGuildWar())

  00097	8b 0d 00 00 00
	00		 mov	 ecx, DWORD PTR ?ms_singleton@?$CSingleton@VCPythonGuild@@@@0PAVCPythonGuild@@A ; CSingleton<CPythonGuild>::ms_singleton
  0009d	e8 00 00 00 00	 call	 ?IsDoingGuildWar@CPythonGuild@@QAEHXZ ; CPythonGuild::IsDoingGuildWar
  000a2	85 c0		 test	 eax, eax
  000a4	75 34		 jne	 SHORT $LN8@UseGuildSk

; 898  : 		{
; 899  : 			PyCallClassMemberFunc(m_ppyGameWindow, "OnCannotUseSkill", Py_BuildValue("(is)", GetMainCharacterIndex(), "ONLY_FOR_GUILD_WAR"));

  000a6	68 00 00 00 00	 push	 OFFSET ??_C@_0BD@OHHCPGPG@ONLY_FOR_GUILD_WAR@
$LN12@UseGuildSk:
  000ab	8b 47 04	 mov	 eax, DWORD PTR [edi+4]
  000ae	8d 4f 04	 lea	 ecx, DWORD PTR [edi+4]
  000b1	ff 50 04	 call	 DWORD PTR [eax+4]
  000b4	50		 push	 eax
  000b5	68 00 00 00 00	 push	 OFFSET ??_C@_04JMLDJNEM@?$CIis?$CJ@
  000ba	ff 15 00 00 00
	00		 call	 DWORD PTR __imp__Py_BuildValue
  000c0	50		 push	 eax
  000c1	68 00 00 00 00	 push	 OFFSET ??_C@_0BB@BOHMBBJL@OnCannotUseSkill@
  000c6	ff 77 08	 push	 DWORD PTR [edi+8]
  000c9	e8 00 00 00 00	 call	 ?PyCallClassMemberFunc@@YA_NPAU_object@@PBD0@Z ; PyCallClassMemberFunc
  000ce	83 c4 18	 add	 esp, 24			; 00000018H
  000d1	5e		 pop	 esi
  000d2	5f		 pop	 edi

; 914  : }

  000d3	5b		 pop	 ebx
  000d4	8b e5		 mov	 esp, ebp
  000d6	5d		 pop	 ebp
  000d7	c2 04 00	 ret	 4
$LN8@UseGuildSk:

; 900  : 			return;
; 901  : 		}
; 902  : 	}
; 903  : 
; 904  : 	DWORD dwMotionIndex = pSkillData->GetSkillMotionIndex();

  000da	8b 4d fc	 mov	 ecx, DWORD PTR _pSkillData$[ebp]
  000dd	6a ff		 push	 -1
  000df	e8 00 00 00 00	 call	 ?GetSkillMotionIndex@SSkillData@CPythonSkill@@QAEKH@Z ; CPythonSkill::SSkillData::GetSkillMotionIndex

; 905  : 	if (!pkInstMain->NEW_UseSkill(dwSkillIndex, dwMotionIndex, 1, false))

  000e4	8b 5d 08	 mov	 ebx, DWORD PTR _dwSkillIndex$1$[ebp]
  000e7	8b 4d f8	 mov	 ecx, DWORD PTR _pkInstMain$1$[ebp]
  000ea	6a 00		 push	 0
  000ec	6a 01		 push	 1
  000ee	50		 push	 eax
  000ef	53		 push	 ebx
  000f0	e8 00 00 00 00	 call	 ?NEW_UseSkill@CInstanceBase@@QAE_NIII_N@Z ; CInstanceBase::NEW_UseSkill
  000f5	84 c0		 test	 al, al
  000f7	75 0e		 jne	 SHORT $LN9@UseGuildSk

; 906  : 	{
; 907  : 		Tracenf("CPythonPlayer::UseGuildSkill(%d) - pkInstMain->NEW_UseSkill - ERROR", dwSkillIndex);

  000f9	53		 push	 ebx
  000fa	68 00 00 00 00	 push	 OFFSET ??_C@_0EE@GICPADML@CPythonPlayer?3?3UseGuildSkill?$CI?$CFd@
  000ff	e8 00 00 00 00	 call	 ?Tracenf@@YAXPBDZZ	; Tracenf
  00104	83 c4 08	 add	 esp, 8
$LN9@UseGuildSk:

; 908  : 	}
; 909  : 
; 910  : 	///////////////////////////////////////////////////////////////////////////////////////////////
; 911  : 
; 912  : 	CPythonNetworkStream::Instance().SendGuildUseSkillPacket(dwSkillIndex, 0);

  00107	8b 0d 00 00 00
	00		 mov	 ecx, DWORD PTR ?ms_singleton@?$CSingleton@VCPythonNetworkStream@@@@0PAVCPythonNetworkStream@@A ; CSingleton<CPythonNetworkStream>::ms_singleton
  0010d	6a 00		 push	 0
  0010f	53		 push	 ebx
  00110	e8 00 00 00 00	 call	 ?SendGuildUseSkillPacket@CPythonNetworkStream@@QAE_NKK@Z ; CPythonNetworkStream::SendGuildUseSkillPacket

; 913  : 	__RunCoolTime(dwSkillSlotIndex);

  00115	56		 push	 esi
  00116	8b cf		 mov	 ecx, edi
  00118	e8 00 00 00 00	 call	 ?__RunCoolTime@CPythonPlayer@@IAEXK@Z ; CPythonPlayer::__RunCoolTime
$LN11@UseGuildSk:
  0011d	5e		 pop	 esi
$LN1@UseGuildSk:
  0011e	5f		 pop	 edi

; 914  : }

  0011f	5b		 pop	 ebx
  00120	8b e5		 mov	 esp, ebp
  00122	5d		 pop	 ebp
  00123	c2 04 00	 ret	 4
?UseGuildSkill@CPythonPlayer@@QAEXK@Z ENDP		; CPythonPlayer::UseGuildSkill
_TEXT	ENDS
; Function compile flags: /Ogtp
; File D:\Metin2 Server Files\mainline\SRC_2014\Metin2Client\UserInterface\PythonPlayerSkill.cpp
;	COMDAT ?FindSkillSlotIndexBySkillIndex@CPythonPlayer@@QAE_NKPAK@Z
_TEXT	SEGMENT
_dwSkillIndex$ = 8					; size = 4
_pdwSkillSlotIndex$ = 12				; size = 4
?FindSkillSlotIndexBySkillIndex@CPythonPlayer@@QAE_NKPAK@Z PROC ; CPythonPlayer::FindSkillSlotIndexBySkillIndex, COMDAT
; _this$ = ecx

; 63   : {

  00000	55		 push	 ebp
  00001	8b ec		 mov	 ebp, esp

; 64   : 	for (int i = 0; i < SKILL_MAX_NUM; ++i)

  00003	8b 55 08	 mov	 edx, DWORD PTR _dwSkillIndex$[ebp]
  00006	33 c0		 xor	 eax, eax
  00008	81 c1 68 cb 00
	00		 add	 ecx, 52072		; 0000cb68H
  0000e	66 90		 npad	 2
$LL4@FindSkillS:

; 65   : 	{
; 66   : 		TSkillInstance & rkSkillInst = m_playerStatus.aSkill[i];
; 67   : 		if (dwSkillIndex == rkSkillInst.dwIndex)

  00010	3b 11		 cmp	 edx, DWORD PTR [ecx]
  00012	74 11		 je	 SHORT $LN8@FindSkillS

; 64   : 	for (int i = 0; i < SKILL_MAX_NUM; ++i)

  00014	40		 inc	 eax
  00015	83 c1 28	 add	 ecx, 40			; 00000028H
  00018	3d ff 00 00 00	 cmp	 eax, 255		; 000000ffH
  0001d	7c f1		 jl	 SHORT $LL4@FindSkillS

; 71   : 		}
; 72   : 	}
; 73   : 
; 74   : 	return false;

  0001f	32 c0		 xor	 al, al

; 75   : }

  00021	5d		 pop	 ebp
  00022	c2 08 00	 ret	 8
$LN8@FindSkillS:

; 68   : 		{
; 69   : 			*pdwSkillSlotIndex = i;

  00025	8b 4d 0c	 mov	 ecx, DWORD PTR _pdwSkillSlotIndex$[ebp]
  00028	89 01		 mov	 DWORD PTR [ecx], eax

; 70   : 			return true;

  0002a	b0 01		 mov	 al, 1

; 75   : }

  0002c	5d		 pop	 ebp
  0002d	c2 08 00	 ret	 8
?FindSkillSlotIndexBySkillIndex@CPythonPlayer@@QAE_NKPAK@Z ENDP ; CPythonPlayer::FindSkillSlotIndexBySkillIndex
_TEXT	ENDS
; Function compile flags: /Ogtp
; File D:\Metin2 Server Files\mainline\SRC_2014\Metin2Client\UserInterface\PythonPlayerSkill.cpp
;	COMDAT ?ChangeCurrentSkillNumberOnly@CPythonPlayer@@QAEXK@Z
_TEXT	SEGMENT
_pSkillData$ = 8					; size = 4
_dwSlotIndex$ = 8					; size = 4
?ChangeCurrentSkillNumberOnly@CPythonPlayer@@QAEXK@Z PROC ; CPythonPlayer::ChangeCurrentSkillNumberOnly, COMDAT
; _this$ = ecx

; 78   : {

  00000	55		 push	 ebp
  00001	8b ec		 mov	 ebp, esp
  00003	56		 push	 esi
  00004	57		 push	 edi

; 79   : 	if (dwSlotIndex >= SKILL_MAX_NUM)

  00005	8b 7d 08	 mov	 edi, DWORD PTR _dwSlotIndex$[ebp]
  00008	8b f1		 mov	 esi, ecx
  0000a	81 ff ff 00 00
	00		 cmp	 edi, 255		; 000000ffH
  00010	0f 83 a5 00 00
	00		 jae	 $LN6@ChangeCurr

; 80   : 		return;
; 81   : 
; 82   : 	TSkillInstance & rkSkillInst = m_playerStatus.aSkill[dwSlotIndex];
; 83   : 
; 84   : 	CPythonSkill::TSkillData * pSkillData;
; 85   : 	if (!CPythonSkill::Instance().GetSkillData(rkSkillInst.dwIndex, &pSkillData))

  00016	8b 0d 00 00 00
	00		 mov	 ecx, DWORD PTR ?ms_singleton@?$CSingleton@VCPythonSkill@@@@0PAVCPythonSkill@@A ; CSingleton<CPythonSkill>::ms_singleton
  0001c	8d 45 08	 lea	 eax, DWORD PTR _pSkillData$[ebp]
  0001f	50		 push	 eax
  00020	8d 04 bf	 lea	 eax, DWORD PTR [edi+edi*4]
  00023	ff b4 c6 68 cb
	00 00		 push	 DWORD PTR [esi+eax*8+52072]
  0002a	e8 00 00 00 00	 call	 ?GetSkillData@CPythonSkill@@QAEHKPAPAUSSkillData@1@@Z ; CPythonSkill::GetSkillData
  0002f	85 c0		 test	 eax, eax
  00031	0f 84 84 00 00
	00		 je	 $LN6@ChangeCurr

; 86   : 		return;
; 87   : 
; 88   : 	if (!pSkillData->IsCanUseSkill())

  00037	8b 4d 08	 mov	 ecx, DWORD PTR _pSkillData$[ebp]
  0003a	e8 00 00 00 00	 call	 ?IsCanUseSkill@SSkillData@CPythonSkill@@QAE_NXZ ; CPythonSkill::SSkillData::IsCanUseSkill
  0003f	84 c0		 test	 al, al
  00041	74 78		 je	 SHORT $LN6@ChangeCurr

; 89   : 		return;
; 90   : 
; 91   : 	if (!__IsRightButtonSkillMode())

  00043	8b ce		 mov	 ecx, esi
  00045	e8 00 00 00 00	 call	 ?__IsRightButtonSkillMode@CPythonPlayer@@IAEHXZ ; CPythonPlayer::__IsRightButtonSkillMode
  0004a	85 c0		 test	 eax, eax
  0004c	75 4a		 jne	 SHORT $LN5@ChangeCurr

; 92   : 	{
; 93   : 		if (!__IsTarget())

  0004e	8b ce		 mov	 ecx, esi
  00050	e8 00 00 00 00	 call	 ?__IsTarget@CPythonPlayer@@IAE_NXZ ; CPythonPlayer::__IsTarget
  00055	84 c0		 test	 al, al
  00057	75 31		 jne	 SHORT $LN7@ChangeCurr

; 94   : 		{
; 95   : 			PyCallClassMemberFunc(m_ppyGameWindow, "OnCannotUseSkill", Py_BuildValue("(is)", GetMainCharacterIndex(), "NEED_TARGET"));

  00059	8b 46 04	 mov	 eax, DWORD PTR [esi+4]
  0005c	8d 4e 04	 lea	 ecx, DWORD PTR [esi+4]
  0005f	68 00 00 00 00	 push	 OFFSET ??_C@_0M@HCIEKIGP@NEED_TARGET@
  00064	ff 50 04	 call	 DWORD PTR [eax+4]
  00067	50		 push	 eax
  00068	68 00 00 00 00	 push	 OFFSET ??_C@_04JMLDJNEM@?$CIis?$CJ@
  0006d	ff 15 00 00 00
	00		 call	 DWORD PTR __imp__Py_BuildValue
  00073	50		 push	 eax
  00074	68 00 00 00 00	 push	 OFFSET ??_C@_0BB@BOHMBBJL@OnCannotUseSkill@
  00079	ff 76 08	 push	 DWORD PTR [esi+8]
  0007c	e8 00 00 00 00	 call	 ?PyCallClassMemberFunc@@YA_NPAU_object@@PBD0@Z ; PyCallClassMemberFunc
  00081	83 c4 18	 add	 esp, 24			; 00000018H
  00084	5f		 pop	 edi

; 105  : 	}
; 106  : }

  00085	5e		 pop	 esi
  00086	5d		 pop	 ebp
  00087	c2 04 00	 ret	 4
$LN7@ChangeCurr:

; 96   : 			return;
; 97   : 		}
; 98   : 
; 99   : 		ClickSkillSlot(dwSlotIndex);

  0008a	57		 push	 edi
  0008b	8b ce		 mov	 ecx, esi
  0008d	e8 00 00 00 00	 call	 ?ClickSkillSlot@CPythonPlayer@@QAEXK@Z ; CPythonPlayer::ClickSkillSlot
  00092	5f		 pop	 edi

; 105  : 	}
; 106  : }

  00093	5e		 pop	 esi
  00094	5d		 pop	 ebp
  00095	c2 04 00	 ret	 4
$LN5@ChangeCurr:

; 100  : 	}
; 101  : 	else
; 102  : 	{
; 103  : 		m_dwcurSkillSlotIndex = dwSlotIndex;
; 104  : 		PyCallClassMemberFunc(m_ppyGameWindow, "ChangeCurrentSkill", Py_BuildValue("(i)", dwSlotIndex));

  00098	57		 push	 edi
  00099	68 00 00 00 00	 push	 OFFSET ??_C@_03LIHNMIHG@?$CIi?$CJ@
  0009e	89 be 4c f7 00
	00		 mov	 DWORD PTR [esi+63308], edi
  000a4	ff 15 00 00 00
	00		 call	 DWORD PTR __imp__Py_BuildValue
  000aa	50		 push	 eax
  000ab	68 00 00 00 00	 push	 OFFSET ??_C@_0BD@IOEPNDLO@ChangeCurrentSkill@
  000b0	ff 76 08	 push	 DWORD PTR [esi+8]
  000b3	e8 00 00 00 00	 call	 ?PyCallClassMemberFunc@@YA_NPAU_object@@PBD0@Z ; PyCallClassMemberFunc
  000b8	83 c4 14	 add	 esp, 20			; 00000014H
$LN6@ChangeCurr:

; 105  : 	}
; 106  : }

  000bb	5f		 pop	 edi
  000bc	5e		 pop	 esi
  000bd	5d		 pop	 ebp
  000be	c2 04 00	 ret	 4
?ChangeCurrentSkillNumberOnly@CPythonPlayer@@QAEXK@Z ENDP ; CPythonPlayer::ChangeCurrentSkillNumberOnly
_TEXT	ENDS
; Function compile flags: /Ogtp
; File D:\Metin2 Server Files\mainline\SRC_2014\Metin2Client\UserInterface\PythonPlayerSkill.cpp
;	COMDAT ?ClickSkillSlot@CPythonPlayer@@QAEXK@Z
_TEXT	SEGMENT
_pSkillData$ = 8					; size = 4
_dwSlotIndex$ = 8					; size = 4
?ClickSkillSlot@CPythonPlayer@@QAEXK@Z PROC		; CPythonPlayer::ClickSkillSlot, COMDAT
; _this$ = ecx

; 109  : {

  00000	55		 push	 ebp
  00001	8b ec		 mov	 ebp, esp
  00003	56		 push	 esi
  00004	57		 push	 edi

; 110  : 	if (dwSlotIndex >= SKILL_MAX_NUM)

  00005	8b 7d 08	 mov	 edi, DWORD PTR _dwSlotIndex$[ebp]
  00008	8b f1		 mov	 esi, ecx
  0000a	81 ff ff 00 00
	00		 cmp	 edi, 255		; 000000ffH
  00010	0f 83 f5 00 00
	00		 jae	 $LN13@ClickSkill

; 111  : 		return;
; 112  : 
; 113  : 	TSkillInstance & rkSkillInst = m_playerStatus.aSkill[dwSlotIndex];
; 114  : 
; 115  : 	CPythonSkill::TSkillData * pSkillData;
; 116  : 	if (!CPythonSkill::Instance().GetSkillData(rkSkillInst.dwIndex, &pSkillData))

  00016	8b 0d 00 00 00
	00		 mov	 ecx, DWORD PTR ?ms_singleton@?$CSingleton@VCPythonSkill@@@@0PAVCPythonSkill@@A ; CSingleton<CPythonSkill>::ms_singleton
  0001c	8d 04 bf	 lea	 eax, DWORD PTR [edi+edi*4]
  0001f	53		 push	 ebx
  00020	8d 1c c6	 lea	 ebx, DWORD PTR [esi+eax*8]
  00023	8d 45 08	 lea	 eax, DWORD PTR _pSkillData$[ebp]
  00026	50		 push	 eax
  00027	ff b3 68 cb 00
	00		 push	 DWORD PTR [ebx+52072]
  0002d	e8 00 00 00 00	 call	 ?GetSkillData@CPythonSkill@@QAEHKPAPAUSSkillData@1@@Z ; CPythonSkill::GetSkillData
  00032	85 c0		 test	 eax, eax
  00034	0f 84 d0 00 00
	00		 je	 $LN16@ClickSkill

; 117  : 		return;
; 118  : 
; 119  : 	if (CPythonSkill::SKILL_TYPE_GUILD == pSkillData->byType)

  0003a	8b 4d 08	 mov	 ecx, DWORD PTR _pSkillData$[ebp]
  0003d	80 39 03	 cmp	 BYTE PTR [ecx], 3
  00040	75 0f		 jne	 SHORT $LN4@ClickSkill

; 120  : 	{
; 121  : 		UseGuildSkill(dwSlotIndex);

  00042	57		 push	 edi
  00043	8b ce		 mov	 ecx, esi
  00045	e8 00 00 00 00	 call	 ?UseGuildSkill@CPythonPlayer@@QAEXK@Z ; CPythonPlayer::UseGuildSkill
  0004a	5b		 pop	 ebx
  0004b	5f		 pop	 edi

; 163  : 	}
; 164  : }

  0004c	5e		 pop	 esi
  0004d	5d		 pop	 ebp
  0004e	c2 04 00	 ret	 4
$LN4@ClickSkill:

; 122  : 		return;
; 123  : 	}
; 124  : 
; 125  : 	if (!pSkillData->IsCanUseSkill())

  00051	e8 00 00 00 00	 call	 ?IsCanUseSkill@SSkillData@CPythonSkill@@QAE_NXZ ; CPythonSkill::SSkillData::IsCanUseSkill
  00056	84 c0		 test	 al, al
  00058	0f 84 ac 00 00
	00		 je	 $LN16@ClickSkill

; 126  : 		return;
; 127  : 
; 128  : 	if (pSkillData->IsStandingSkill())

  0005e	8b 4d 08	 mov	 ecx, DWORD PTR _pSkillData$[ebp]
  00061	e8 00 00 00 00	 call	 ?IsStandingSkill@SSkillData@CPythonSkill@@QAEHXZ ; CPythonSkill::SSkillData::IsStandingSkill
  00066	85 c0		 test	 eax, eax
  00068	74 4c		 je	 SHORT $LN6@ClickSkill

; 129  : 	{
; 130  : 		if (pSkillData->IsToggleSkill())

  0006a	8b 4d 08	 mov	 ecx, DWORD PTR _pSkillData$[ebp]
  0006d	e8 00 00 00 00	 call	 ?IsToggleSkill@SSkillData@CPythonSkill@@QAEHXZ ; CPythonSkill::SSkillData::IsToggleSkill
  00072	85 c0		 test	 eax, eax
  00074	74 62		 je	 SHORT $LN15@ClickSkill

; 131  : 		{
; 132  : 			if (IsSkillActive(dwSlotIndex))

  00076	57		 push	 edi
  00077	8b ce		 mov	 ecx, esi
  00079	e8 00 00 00 00	 call	 ?IsSkillActive@CPythonPlayer@@QAEHK@Z ; CPythonPlayer::IsSkillActive
  0007e	85 c0		 test	 eax, eax
  00080	74 56		 je	 SHORT $LN15@ClickSkill

; 133  : 			{
; 134  : 				CInstanceBase * pkInstMain = NEW_GetMainActorPtr();

  00082	8b 46 04	 mov	 eax, DWORD PTR [esi+4]
  00085	8d 4e 04	 lea	 ecx, DWORD PTR [esi+4]
  00088	ff 90 88 00 00
	00		 call	 DWORD PTR [eax+136]

; 135  : 				if (!pkInstMain)

  0008e	85 c0		 test	 eax, eax
  00090	74 78		 je	 SHORT $LN16@ClickSkill

; 136  : 					return;
; 137  : 				if (pkInstMain->IsUsingSkill())

  00092	8b c8		 mov	 ecx, eax
  00094	e8 00 00 00 00	 call	 ?IsUsingSkill@CInstanceBase@@QAEHXZ ; CInstanceBase::IsUsingSkill
  00099	85 c0		 test	 eax, eax
  0009b	75 6d		 jne	 SHORT $LN16@ClickSkill

; 138  : 					return;
; 139  : 
; 140  : 				CPythonNetworkStream::Instance().SendUseSkillPacket(rkSkillInst.dwIndex);

  0009d	8b 0d 00 00 00
	00		 mov	 ecx, DWORD PTR ?ms_singleton@?$CSingleton@VCPythonNetworkStream@@@@0PAVCPythonNetworkStream@@A ; CSingleton<CPythonNetworkStream>::ms_singleton
  000a3	50		 push	 eax
  000a4	ff b3 68 cb 00
	00		 push	 DWORD PTR [ebx+52072]
  000aa	e8 00 00 00 00	 call	 ?SendUseSkillPacket@CPythonNetworkStream@@QAE_NKK@Z ; CPythonNetworkStream::SendUseSkillPacket
  000af	5b		 pop	 ebx
  000b0	5f		 pop	 edi

; 163  : 	}
; 164  : }

  000b1	5e		 pop	 esi
  000b2	5d		 pop	 ebp
  000b3	c2 04 00	 ret	 4
$LN6@ClickSkill:

; 141  : 				return;
; 142  : 			}
; 143  : 		}
; 144  : 
; 145  : 		__UseSkill(dwSlotIndex);
; 146  : 		return;
; 147  : 	}
; 148  : 
; 149  : 	if (m_dwcurSkillSlotIndex == dwSlotIndex)

  000b6	8b 86 4c f7 00
	00		 mov	 eax, DWORD PTR [esi+63308]
  000bc	8b ce		 mov	 ecx, esi
  000be	3b c7		 cmp	 eax, edi
  000c0	75 0d		 jne	 SHORT $LN11@ClickSkill

; 150  : 	{
; 151  : 		__UseSkill(m_dwcurSkillSlotIndex);

  000c2	50		 push	 eax
  000c3	e8 00 00 00 00	 call	 ?__UseSkill@CPythonPlayer@@IAE_NK@Z ; CPythonPlayer::__UseSkill
  000c8	5b		 pop	 ebx
  000c9	5f		 pop	 edi

; 163  : 	}
; 164  : }

  000ca	5e		 pop	 esi
  000cb	5d		 pop	 ebp
  000cc	c2 04 00	 ret	 4
$LN11@ClickSkill:

; 152  : 		return;
; 153  : 	}
; 154  : 
; 155  : 	if (!__IsRightButtonSkillMode())

  000cf	e8 00 00 00 00	 call	 ?__IsRightButtonSkillMode@CPythonPlayer@@IAEHXZ ; CPythonPlayer::__IsRightButtonSkillMode
  000d4	85 c0		 test	 eax, eax
  000d6	75 0f		 jne	 SHORT $LN12@ClickSkill
$LN15@ClickSkill:

; 156  : 	{
; 157  : 		__UseSkill(dwSlotIndex);

  000d8	57		 push	 edi
  000d9	8b ce		 mov	 ecx, esi
  000db	e8 00 00 00 00	 call	 ?__UseSkill@CPythonPlayer@@IAE_NK@Z ; CPythonPlayer::__UseSkill
  000e0	5b		 pop	 ebx
  000e1	5f		 pop	 edi

; 163  : 	}
; 164  : }

  000e2	5e		 pop	 esi
  000e3	5d		 pop	 ebp
  000e4	c2 04 00	 ret	 4
$LN12@ClickSkill:

; 158  : 	}
; 159  : 	else
; 160  : 	{
; 161  : 		m_dwcurSkillSlotIndex = dwSlotIndex;
; 162  : 		PyCallClassMemberFunc(m_ppyGameWindow, "ChangeCurrentSkill", Py_BuildValue("(i)", dwSlotIndex));

  000e7	57		 push	 edi
  000e8	68 00 00 00 00	 push	 OFFSET ??_C@_03LIHNMIHG@?$CIi?$CJ@
  000ed	89 be 4c f7 00
	00		 mov	 DWORD PTR [esi+63308], edi
  000f3	ff 15 00 00 00
	00		 call	 DWORD PTR __imp__Py_BuildValue
  000f9	50		 push	 eax
  000fa	68 00 00 00 00	 push	 OFFSET ??_C@_0BD@IOEPNDLO@ChangeCurrentSkill@
  000ff	ff 76 08	 push	 DWORD PTR [esi+8]
  00102	e8 00 00 00 00	 call	 ?PyCallClassMemberFunc@@YA_NPAU_object@@PBD0@Z ; PyCallClassMemberFunc
  00107	83 c4 14	 add	 esp, 20			; 00000014H
$LN16@ClickSkill:
  0010a	5b		 pop	 ebx
$LN13@ClickSkill:
  0010b	5f		 pop	 edi

; 163  : 	}
; 164  : }

  0010c	5e		 pop	 esi
  0010d	5d		 pop	 ebp
  0010e	c2 04 00	 ret	 4
?ClickSkillSlot@CPythonPlayer@@QAEXK@Z ENDP		; CPythonPlayer::ClickSkillSlot
_TEXT	ENDS
; Function compile flags: /Ogtp
; File C:\Program Files (x86)\Microsoft Visual Studio\2019\Community\VC\Tools\MSVC\14.28.29333\include\xmemory
;	COMDAT ??$_Deallocate@$07$0A@@std@@YAXPAXI@Z
_TEXT	SEGMENT
__Ptr$ = 8						; size = 4
__Bytes$ = 12						; size = 4
??$_Deallocate@$07$0A@@std@@YAXPAXI@Z PROC		; std::_Deallocate<8,0>, COMDAT

; 213  : void _Deallocate(void* _Ptr, size_t _Bytes) noexcept {

  00000	55		 push	 ebp
  00001	8b ec		 mov	 ebp, esp

; 214  :     // deallocate storage allocated by _Allocate when !_HAS_ALIGNED_NEW || _Align <= __STDCPP_DEFAULT_NEW_ALIGNMENT__
; 215  : #if defined(_M_IX86) || defined(_M_X64)
; 216  :     if (_Bytes >= _Big_allocation_threshold) { // boost the alignment of big allocations to help autovectorization

  00003	8b 4d 0c	 mov	 ecx, DWORD PTR __Bytes$[ebp]
  00006	81 f9 00 10 00
	00		 cmp	 ecx, 4096		; 00001000H
  0000c	72 18		 jb	 SHORT $LN15@Deallocate

; 137  :     const uintptr_t _Ptr_container   = _Ptr_user[-1];

  0000e	8b 45 08	 mov	 eax, DWORD PTR __Ptr$[ebp]
  00011	83 c1 23	 add	 ecx, 35			; 00000023H
  00014	8b 50 fc	 mov	 edx, DWORD PTR [eax-4]

; 138  : 
; 139  :     // If the following asserts, it likely means that we are performing
; 140  :     // an aligned delete on memory coming from an unaligned allocation.
; 141  :     _STL_ASSERT(_Ptr_user[-2] == _Big_allocation_sentinel, "invalid argument");
; 142  : 
; 143  :     // Extra paranoia on aligned allocation/deallocation; ensure _Ptr_container is
; 144  :     // in range [_Min_back_shift, _Non_user_size]
; 145  : #ifdef _DEBUG
; 146  :     constexpr uintptr_t _Min_back_shift = 2 * sizeof(void*);
; 147  : #else // ^^^ _DEBUG ^^^ // vvv !_DEBUG vvv
; 148  :     constexpr uintptr_t _Min_back_shift = sizeof(void*);
; 149  : #endif // _DEBUG
; 150  :     const uintptr_t _Back_shift = reinterpret_cast<uintptr_t>(_Ptr) - _Ptr_container;

  00017	2b c2		 sub	 eax, edx

; 151  :     _STL_VERIFY(_Back_shift >= _Min_back_shift && _Back_shift <= _Non_user_size, "invalid argument");

  00019	83 c0 fc	 add	 eax, -4			; fffffffcH
  0001c	83 f8 1f	 cmp	 eax, 31			; 0000001fH
  0001f	76 08		 jbe	 SHORT $LN13@Deallocate
  00021	e9 00 00 00 00	 jmp	 __invalid_parameter_noinfo_noreturn
$LN15@Deallocate:

; 214  :     // deallocate storage allocated by _Allocate when !_HAS_ALIGNED_NEW || _Align <= __STDCPP_DEFAULT_NEW_ALIGNMENT__
; 215  : #if defined(_M_IX86) || defined(_M_X64)
; 216  :     if (_Bytes >= _Big_allocation_threshold) { // boost the alignment of big allocations to help autovectorization

  00026	8b 55 08	 mov	 edx, DWORD PTR __Ptr$[ebp]
$LN13@Deallocate:

; 217  :         _Adjust_manually_vector_aligned(_Ptr, _Bytes);
; 218  :     }
; 219  : #endif // defined(_M_IX86) || defined(_M_X64)
; 220  : 
; 221  :     ::operator delete(_Ptr, _Bytes);

  00029	89 4d 0c	 mov	 DWORD PTR __Bytes$[ebp], ecx
  0002c	89 55 08	 mov	 DWORD PTR __Ptr$[ebp], edx

; 222  : }

  0002f	5d		 pop	 ebp

; 217  :         _Adjust_manually_vector_aligned(_Ptr, _Bytes);
; 218  :     }
; 219  : #endif // defined(_M_IX86) || defined(_M_X64)
; 220  : 
; 221  :     ::operator delete(_Ptr, _Bytes);

  00030	e9 00 00 00 00	 jmp	 ??3@YAXPAXI@Z		; operator delete
??$_Deallocate@$07$0A@@std@@YAXPAXI@Z ENDP		; std::_Deallocate<8,0>
_TEXT	ENDS
; Function compile flags: /Ogtp
; File D:\Metin2 Server Files\mainline\SRC_2014\Metin2Client\UserInterface\PythonPlayerSkill.cpp
;	COMDAT ?__empty_global_delete@@YAXPAXI@Z
_TEXT	SEGMENT
___formal$ = 8						; size = 4
___formal$ = 12						; size = 4
?__empty_global_delete@@YAXPAXI@Z PROC			; __empty_global_delete, COMDAT

  00000	c2 00 00	 ret	 0
?__empty_global_delete@@YAXPAXI@Z ENDP			; __empty_global_delete
_TEXT	ENDS
; Function compile flags: /Ogtp
; File D:\Metin2 Server Files\mainline\SRC_2014\Metin2Client\UserInterface\PythonPlayerSkill.cpp
;	COMDAT ?__empty_global_delete@@YAXPAX@Z
_TEXT	SEGMENT
___formal$ = 8						; size = 4
?__empty_global_delete@@YAXPAX@Z PROC			; __empty_global_delete, COMDAT

  00000	c2 00 00	 ret	 0
?__empty_global_delete@@YAXPAX@Z ENDP			; __empty_global_delete
_TEXT	ENDS
; Function compile flags: /Ogtp
;	COMDAT ??_H@YGXPAXIIP6EPAX0@Z@Z
_TEXT	SEGMENT
___t$ = 8						; size = 4
___s$ = 12						; size = 4
___n$ = 16						; size = 4
___f$ = 20						; size = 4
??_H@YGXPAXIIP6EPAX0@Z@Z PROC				; `vector constructor iterator', COMDAT
  00000	55		 push	 ebp
  00001	8b ec		 mov	 ebp, esp
  00003	56		 push	 esi
  00004	8b 75 10	 mov	 esi, DWORD PTR ___n$[ebp]
  00007	85 f6		 test	 esi, esi
  00009	74 16		 je	 SHORT $LN6@vector
  0000b	53		 push	 ebx
  0000c	8b 5d 14	 mov	 ebx, DWORD PTR ___f$[ebp]
  0000f	57		 push	 edi
  00010	8b 7d 08	 mov	 edi, DWORD PTR ___t$[ebp]
$LL2@vector:
  00013	8b cf		 mov	 ecx, edi
  00015	ff d3		 call	 ebx
  00017	03 7d 0c	 add	 edi, DWORD PTR ___s$[ebp]
  0001a	83 ee 01	 sub	 esi, 1
  0001d	75 f4		 jne	 SHORT $LL2@vector
  0001f	5f		 pop	 edi
  00020	5b		 pop	 ebx
$LN6@vector:
  00021	5e		 pop	 esi
  00022	5d		 pop	 ebp
  00023	c2 10 00	 ret	 16			; 00000010H
??_H@YGXPAXIIP6EPAX0@Z@Z ENDP				; `vector constructor iterator'
_TEXT	ENDS
END
