; Listing generated by Microsoft (R) Optimizing Compiler Version 19.28.29335.0 

	TITLE	D:\Metin2 Server Files\mainline\SRC_2014\Metin2Client\UserInterface\PythonApplication.cpp
	.686P
	.XMM
	include listing.inc
	.model	flat

INCLUDELIB LIBCMT
INCLUDELIB OLDNAMES

PUBLIC	?ms_pInstance@CPythonApplication@@1PAV1@A	; CPythonApplication::ms_pInstance
PUBLIC	?MIN_FOG@@3MA					; MIN_FOG
PUBLIC	?g_specularSpd@@3NA				; g_specularSpd
PUBLIC	?c_fDefaultCameraRotateSpeed@@3MA		; c_fDefaultCameraRotateSpeed
PUBLIC	?c_fDefaultCameraPitchSpeed@@3MA		; c_fDefaultCameraPitchSpeed
PUBLIC	?c_fDefaultCameraZoomSpeed@@3MA			; c_fDefaultCameraZoomSpeed
PUBLIC	?PERF_CHECKER_RENDER_GAME@@3_NA			; PERF_CHECKER_RENDER_GAME
PUBLIC	??_7?$CDynamicPoolEx@VCRotationDecorator@NEffectUpdateDecorator@@@@6B@ ; CDynamicPoolEx<NEffectUpdateDecorator::CRotationDecorator>::`vftable'
PUBLIC	??_G?$CDynamicPoolEx@VCRotationDecorator@NEffectUpdateDecorator@@@@UAEPAXI@Z ; CDynamicPoolEx<NEffectUpdateDecorator::CRotationDecorator>::`scalar deleting destructor'
PUBLIC	??_R4?$CDynamicPoolEx@VCHeaderDecorator@NEffectUpdateDecorator@@@@6B@ ; CDynamicPoolEx<NEffectUpdateDecorator::CHeaderDecorator>::`RTTI Complete Object Locator'
PUBLIC	??_R0?AV?$CDynamicPoolEx@VCHeaderDecorator@NEffectUpdateDecorator@@@@@8 ; CDynamicPoolEx<NEffectUpdateDecorator::CHeaderDecorator> `RTTI Type Descriptor'
PUBLIC	??_R3?$CDynamicPoolEx@VCHeaderDecorator@NEffectUpdateDecorator@@@@8 ; CDynamicPoolEx<NEffectUpdateDecorator::CHeaderDecorator>::`RTTI Class Hierarchy Descriptor'
PUBLIC	??_R2?$CDynamicPoolEx@VCHeaderDecorator@NEffectUpdateDecorator@@@@8 ; CDynamicPoolEx<NEffectUpdateDecorator::CHeaderDecorator>::`RTTI Base Class Array'
PUBLIC	??_R1A@?0A@EA@?$CDynamicPoolEx@VCHeaderDecorator@NEffectUpdateDecorator@@@@8 ; CDynamicPoolEx<NEffectUpdateDecorator::CHeaderDecorator>::`RTTI Base Class Descriptor at (0,-1,0,64)'
PUBLIC	??_R4?$CDynamicPoolEx@VCNullDecorator@NEffectUpdateDecorator@@@@6B@ ; CDynamicPoolEx<NEffectUpdateDecorator::CNullDecorator>::`RTTI Complete Object Locator'
PUBLIC	??_R0?AV?$CDynamicPoolEx@VCNullDecorator@NEffectUpdateDecorator@@@@@8 ; CDynamicPoolEx<NEffectUpdateDecorator::CNullDecorator> `RTTI Type Descriptor'
PUBLIC	??_R3?$CDynamicPoolEx@VCNullDecorator@NEffectUpdateDecorator@@@@8 ; CDynamicPoolEx<NEffectUpdateDecorator::CNullDecorator>::`RTTI Class Hierarchy Descriptor'
PUBLIC	??_R2?$CDynamicPoolEx@VCNullDecorator@NEffectUpdateDecorator@@@@8 ; CDynamicPoolEx<NEffectUpdateDecorator::CNullDecorator>::`RTTI Base Class Array'
PUBLIC	??_R1A@?0A@EA@?$CDynamicPoolEx@VCNullDecorator@NEffectUpdateDecorator@@@@8 ; CDynamicPoolEx<NEffectUpdateDecorator::CNullDecorator>::`RTTI Base Class Descriptor at (0,-1,0,64)'
PUBLIC	??_R4?$CDynamicPoolEx@VCTextureAnimationCWDecorator@NEffectUpdateDecorator@@@@6B@ ; CDynamicPoolEx<NEffectUpdateDecorator::CTextureAnimationCWDecorator>::`RTTI Complete Object Locator'
PUBLIC	??_R0?AV?$CDynamicPoolEx@VCTextureAnimationCWDecorator@NEffectUpdateDecorator@@@@@8 ; CDynamicPoolEx<NEffectUpdateDecorator::CTextureAnimationCWDecorator> `RTTI Type Descriptor'
PUBLIC	??_R3?$CDynamicPoolEx@VCTextureAnimationCWDecorator@NEffectUpdateDecorator@@@@8 ; CDynamicPoolEx<NEffectUpdateDecorator::CTextureAnimationCWDecorator>::`RTTI Class Hierarchy Descriptor'
PUBLIC	??_R2?$CDynamicPoolEx@VCTextureAnimationCWDecorator@NEffectUpdateDecorator@@@@8 ; CDynamicPoolEx<NEffectUpdateDecorator::CTextureAnimationCWDecorator>::`RTTI Base Class Array'
PUBLIC	??_R1A@?0A@EA@?$CDynamicPoolEx@VCTextureAnimationCWDecorator@NEffectUpdateDecorator@@@@8 ; CDynamicPoolEx<NEffectUpdateDecorator::CTextureAnimationCWDecorator>::`RTTI Base Class Descriptor at (0,-1,0,64)'
PUBLIC	??_R4?$CDynamicPoolEx@VCTextureAnimationCCWDecorator@NEffectUpdateDecorator@@@@6B@ ; CDynamicPoolEx<NEffectUpdateDecorator::CTextureAnimationCCWDecorator>::`RTTI Complete Object Locator'
PUBLIC	??_R0?AV?$CDynamicPoolEx@VCTextureAnimationCCWDecorator@NEffectUpdateDecorator@@@@@8 ; CDynamicPoolEx<NEffectUpdateDecorator::CTextureAnimationCCWDecorator> `RTTI Type Descriptor'
PUBLIC	??_R3?$CDynamicPoolEx@VCTextureAnimationCCWDecorator@NEffectUpdateDecorator@@@@8 ; CDynamicPoolEx<NEffectUpdateDecorator::CTextureAnimationCCWDecorator>::`RTTI Class Hierarchy Descriptor'
PUBLIC	??_R2?$CDynamicPoolEx@VCTextureAnimationCCWDecorator@NEffectUpdateDecorator@@@@8 ; CDynamicPoolEx<NEffectUpdateDecorator::CTextureAnimationCCWDecorator>::`RTTI Base Class Array'
PUBLIC	??_R1A@?0A@EA@?$CDynamicPoolEx@VCTextureAnimationCCWDecorator@NEffectUpdateDecorator@@@@8 ; CDynamicPoolEx<NEffectUpdateDecorator::CTextureAnimationCCWDecorator>::`RTTI Base Class Descriptor at (0,-1,0,64)'
PUBLIC	??_R4?$CDynamicPoolEx@VCTextureAnimationRandomDecorator@NEffectUpdateDecorator@@@@6B@ ; CDynamicPoolEx<NEffectUpdateDecorator::CTextureAnimationRandomDecorator>::`RTTI Complete Object Locator'
PUBLIC	??_R0?AV?$CDynamicPoolEx@VCTextureAnimationRandomDecorator@NEffectUpdateDecorator@@@@@8 ; CDynamicPoolEx<NEffectUpdateDecorator::CTextureAnimationRandomDecorator> `RTTI Type Descriptor'
PUBLIC	??_R3?$CDynamicPoolEx@VCTextureAnimationRandomDecorator@NEffectUpdateDecorator@@@@8 ; CDynamicPoolEx<NEffectUpdateDecorator::CTextureAnimationRandomDecorator>::`RTTI Class Hierarchy Descriptor'
PUBLIC	??_R2?$CDynamicPoolEx@VCTextureAnimationRandomDecorator@NEffectUpdateDecorator@@@@8 ; CDynamicPoolEx<NEffectUpdateDecorator::CTextureAnimationRandomDecorator>::`RTTI Base Class Array'
PUBLIC	??_R1A@?0A@EA@?$CDynamicPoolEx@VCTextureAnimationRandomDecorator@NEffectUpdateDecorator@@@@8 ; CDynamicPoolEx<NEffectUpdateDecorator::CTextureAnimationRandomDecorator>::`RTTI Base Class Descriptor at (0,-1,0,64)'
PUBLIC	??_R4?$CDynamicPoolEx@VCAirResistanceDecorator@NEffectUpdateDecorator@@@@6B@ ; CDynamicPoolEx<NEffectUpdateDecorator::CAirResistanceDecorator>::`RTTI Complete Object Locator'
PUBLIC	??_R0?AV?$CDynamicPoolEx@VCAirResistanceDecorator@NEffectUpdateDecorator@@@@@8 ; CDynamicPoolEx<NEffectUpdateDecorator::CAirResistanceDecorator> `RTTI Type Descriptor'
PUBLIC	??_R3?$CDynamicPoolEx@VCAirResistanceDecorator@NEffectUpdateDecorator@@@@8 ; CDynamicPoolEx<NEffectUpdateDecorator::CAirResistanceDecorator>::`RTTI Class Hierarchy Descriptor'
PUBLIC	??_R2?$CDynamicPoolEx@VCAirResistanceDecorator@NEffectUpdateDecorator@@@@8 ; CDynamicPoolEx<NEffectUpdateDecorator::CAirResistanceDecorator>::`RTTI Base Class Array'
PUBLIC	??_R1A@?0A@EA@?$CDynamicPoolEx@VCAirResistanceDecorator@NEffectUpdateDecorator@@@@8 ; CDynamicPoolEx<NEffectUpdateDecorator::CAirResistanceDecorator>::`RTTI Base Class Descriptor at (0,-1,0,64)'
PUBLIC	??_R4?$CDynamicPoolEx@VCGravityDecorator@NEffectUpdateDecorator@@@@6B@ ; CDynamicPoolEx<NEffectUpdateDecorator::CGravityDecorator>::`RTTI Complete Object Locator'
PUBLIC	??_R0?AV?$CDynamicPoolEx@VCGravityDecorator@NEffectUpdateDecorator@@@@@8 ; CDynamicPoolEx<NEffectUpdateDecorator::CGravityDecorator> `RTTI Type Descriptor'
PUBLIC	??_R3?$CDynamicPoolEx@VCGravityDecorator@NEffectUpdateDecorator@@@@8 ; CDynamicPoolEx<NEffectUpdateDecorator::CGravityDecorator>::`RTTI Class Hierarchy Descriptor'
PUBLIC	??_R2?$CDynamicPoolEx@VCGravityDecorator@NEffectUpdateDecorator@@@@8 ; CDynamicPoolEx<NEffectUpdateDecorator::CGravityDecorator>::`RTTI Base Class Array'
PUBLIC	??_R1A@?0A@EA@?$CDynamicPoolEx@VCGravityDecorator@NEffectUpdateDecorator@@@@8 ; CDynamicPoolEx<NEffectUpdateDecorator::CGravityDecorator>::`RTTI Base Class Descriptor at (0,-1,0,64)'
PUBLIC	??_R4?$CDynamicPoolEx@VCRotationDecorator@NEffectUpdateDecorator@@@@6B@ ; CDynamicPoolEx<NEffectUpdateDecorator::CRotationDecorator>::`RTTI Complete Object Locator'
PUBLIC	??_R0?AV?$CDynamicPoolEx@VCRotationDecorator@NEffectUpdateDecorator@@@@@8 ; CDynamicPoolEx<NEffectUpdateDecorator::CRotationDecorator> `RTTI Type Descriptor'
PUBLIC	??_R3?$CDynamicPoolEx@VCRotationDecorator@NEffectUpdateDecorator@@@@8 ; CDynamicPoolEx<NEffectUpdateDecorator::CRotationDecorator>::`RTTI Class Hierarchy Descriptor'
PUBLIC	??_R2?$CDynamicPoolEx@VCRotationDecorator@NEffectUpdateDecorator@@@@8 ; CDynamicPoolEx<NEffectUpdateDecorator::CRotationDecorator>::`RTTI Base Class Array'
PUBLIC	??_R1A@?0A@EA@?$CDynamicPoolEx@VCRotationDecorator@NEffectUpdateDecorator@@@@8 ; CDynamicPoolEx<NEffectUpdateDecorator::CRotationDecorator>::`RTTI Base Class Descriptor at (0,-1,0,64)'
PUBLIC	??_7?$CDynamicPoolEx@VCGravityDecorator@NEffectUpdateDecorator@@@@6B@ ; CDynamicPoolEx<NEffectUpdateDecorator::CGravityDecorator>::`vftable'
PUBLIC	??_G?$CDynamicPoolEx@VCGravityDecorator@NEffectUpdateDecorator@@@@UAEPAXI@Z ; CDynamicPoolEx<NEffectUpdateDecorator::CGravityDecorator>::`scalar deleting destructor'
PUBLIC	??_7?$CDynamicPoolEx@VCAirResistanceDecorator@NEffectUpdateDecorator@@@@6B@ ; CDynamicPoolEx<NEffectUpdateDecorator::CAirResistanceDecorator>::`vftable'
PUBLIC	??_G?$CDynamicPoolEx@VCAirResistanceDecorator@NEffectUpdateDecorator@@@@UAEPAXI@Z ; CDynamicPoolEx<NEffectUpdateDecorator::CAirResistanceDecorator>::`scalar deleting destructor'
PUBLIC	??_7?$CDynamicPoolEx@VCTextureAnimationRandomDecorator@NEffectUpdateDecorator@@@@6B@ ; CDynamicPoolEx<NEffectUpdateDecorator::CTextureAnimationRandomDecorator>::`vftable'
PUBLIC	??_G?$CDynamicPoolEx@VCTextureAnimationRandomDecorator@NEffectUpdateDecorator@@@@UAEPAXI@Z ; CDynamicPoolEx<NEffectUpdateDecorator::CTextureAnimationRandomDecorator>::`scalar deleting destructor'
PUBLIC	??_7?$CDynamicPoolEx@VCTextureAnimationCCWDecorator@NEffectUpdateDecorator@@@@6B@ ; CDynamicPoolEx<NEffectUpdateDecorator::CTextureAnimationCCWDecorator>::`vftable'
PUBLIC	??_G?$CDynamicPoolEx@VCTextureAnimationCCWDecorator@NEffectUpdateDecorator@@@@UAEPAXI@Z ; CDynamicPoolEx<NEffectUpdateDecorator::CTextureAnimationCCWDecorator>::`scalar deleting destructor'
PUBLIC	??_7?$CDynamicPoolEx@VCTextureAnimationCWDecorator@NEffectUpdateDecorator@@@@6B@ ; CDynamicPoolEx<NEffectUpdateDecorator::CTextureAnimationCWDecorator>::`vftable'
PUBLIC	??_G?$CDynamicPoolEx@VCTextureAnimationCWDecorator@NEffectUpdateDecorator@@@@UAEPAXI@Z ; CDynamicPoolEx<NEffectUpdateDecorator::CTextureAnimationCWDecorator>::`scalar deleting destructor'
PUBLIC	??_7?$CDynamicPoolEx@VCNullDecorator@NEffectUpdateDecorator@@@@6B@ ; CDynamicPoolEx<NEffectUpdateDecorator::CNullDecorator>::`vftable'
PUBLIC	??_G?$CDynamicPoolEx@VCNullDecorator@NEffectUpdateDecorator@@@@UAEPAXI@Z ; CDynamicPoolEx<NEffectUpdateDecorator::CNullDecorator>::`scalar deleting destructor'
PUBLIC	??_7?$CDynamicPoolEx@VCHeaderDecorator@NEffectUpdateDecorator@@@@6B@ ; CDynamicPoolEx<NEffectUpdateDecorator::CHeaderDecorator>::`vftable'
PUBLIC	??_G?$CDynamicPoolEx@VCHeaderDecorator@NEffectUpdateDecorator@@@@UAEPAXI@Z ; CDynamicPoolEx<NEffectUpdateDecorator::CHeaderDecorator>::`scalar deleting destructor'
EXTRN	??_E?$CDynamicPoolEx@VCRotationDecorator@NEffectUpdateDecorator@@@@UAEPAXI@Z:PROC ; CDynamicPoolEx<NEffectUpdateDecorator::CRotationDecorator>::`vector deleting destructor'
EXTRN	??_E?$CDynamicPoolEx@VCGravityDecorator@NEffectUpdateDecorator@@@@UAEPAXI@Z:PROC ; CDynamicPoolEx<NEffectUpdateDecorator::CGravityDecorator>::`vector deleting destructor'
EXTRN	??_E?$CDynamicPoolEx@VCAirResistanceDecorator@NEffectUpdateDecorator@@@@UAEPAXI@Z:PROC ; CDynamicPoolEx<NEffectUpdateDecorator::CAirResistanceDecorator>::`vector deleting destructor'
EXTRN	??_E?$CDynamicPoolEx@VCTextureAnimationRandomDecorator@NEffectUpdateDecorator@@@@UAEPAXI@Z:PROC ; CDynamicPoolEx<NEffectUpdateDecorator::CTextureAnimationRandomDecorator>::`vector deleting destructor'
EXTRN	??_7type_info@@6B@:QWORD			; type_info::`vftable'
EXTRN	??_E?$CDynamicPoolEx@VCTextureAnimationCCWDecorator@NEffectUpdateDecorator@@@@UAEPAXI@Z:PROC ; CDynamicPoolEx<NEffectUpdateDecorator::CTextureAnimationCCWDecorator>::`vector deleting destructor'
EXTRN	??_E?$CDynamicPoolEx@VCTextureAnimationCWDecorator@NEffectUpdateDecorator@@@@UAEPAXI@Z:PROC ; CDynamicPoolEx<NEffectUpdateDecorator::CTextureAnimationCWDecorator>::`vector deleting destructor'
EXTRN	??_E?$CDynamicPoolEx@VCNullDecorator@NEffectUpdateDecorator@@@@UAEPAXI@Z:PROC ; CDynamicPoolEx<NEffectUpdateDecorator::CNullDecorator>::`vector deleting destructor'
EXTRN	??_E?$CDynamicPoolEx@VCHeaderDecorator@NEffectUpdateDecorator@@@@UAEPAXI@Z:PROC ; CDynamicPoolEx<NEffectUpdateDecorator::CHeaderDecorator>::`vector deleting destructor'
_BSS	SEGMENT
?ms_pInstance@CPythonApplication@@1PAV1@A DD 01H DUP (?) ; CPythonApplication::ms_pInstance
?PERF_CHECKER_RENDER_GAME@@3_NA DB 01H DUP (?)		; PERF_CHECKER_RENDER_GAME
_BSS	ENDS
;	COMDAT ??_7?$CDynamicPoolEx@VCHeaderDecorator@NEffectUpdateDecorator@@@@6B@
CONST	SEGMENT
??_7?$CDynamicPoolEx@VCHeaderDecorator@NEffectUpdateDecorator@@@@6B@ DD FLAT:??_R4?$CDynamicPoolEx@VCHeaderDecorator@NEffectUpdateDecorator@@@@6B@ ; CDynamicPoolEx<NEffectUpdateDecorator::CHeaderDecorator>::`vftable'
	DD	FLAT:??_E?$CDynamicPoolEx@VCHeaderDecorator@NEffectUpdateDecorator@@@@UAEPAXI@Z
CONST	ENDS
;	COMDAT ??_7?$CDynamicPoolEx@VCNullDecorator@NEffectUpdateDecorator@@@@6B@
CONST	SEGMENT
??_7?$CDynamicPoolEx@VCNullDecorator@NEffectUpdateDecorator@@@@6B@ DD FLAT:??_R4?$CDynamicPoolEx@VCNullDecorator@NEffectUpdateDecorator@@@@6B@ ; CDynamicPoolEx<NEffectUpdateDecorator::CNullDecorator>::`vftable'
	DD	FLAT:??_E?$CDynamicPoolEx@VCNullDecorator@NEffectUpdateDecorator@@@@UAEPAXI@Z
CONST	ENDS
;	COMDAT ??_7?$CDynamicPoolEx@VCTextureAnimationCWDecorator@NEffectUpdateDecorator@@@@6B@
CONST	SEGMENT
??_7?$CDynamicPoolEx@VCTextureAnimationCWDecorator@NEffectUpdateDecorator@@@@6B@ DD FLAT:??_R4?$CDynamicPoolEx@VCTextureAnimationCWDecorator@NEffectUpdateDecorator@@@@6B@ ; CDynamicPoolEx<NEffectUpdateDecorator::CTextureAnimationCWDecorator>::`vftable'
	DD	FLAT:??_E?$CDynamicPoolEx@VCTextureAnimationCWDecorator@NEffectUpdateDecorator@@@@UAEPAXI@Z
CONST	ENDS
;	COMDAT ??_7?$CDynamicPoolEx@VCTextureAnimationCCWDecorator@NEffectUpdateDecorator@@@@6B@
CONST	SEGMENT
??_7?$CDynamicPoolEx@VCTextureAnimationCCWDecorator@NEffectUpdateDecorator@@@@6B@ DD FLAT:??_R4?$CDynamicPoolEx@VCTextureAnimationCCWDecorator@NEffectUpdateDecorator@@@@6B@ ; CDynamicPoolEx<NEffectUpdateDecorator::CTextureAnimationCCWDecorator>::`vftable'
	DD	FLAT:??_E?$CDynamicPoolEx@VCTextureAnimationCCWDecorator@NEffectUpdateDecorator@@@@UAEPAXI@Z
CONST	ENDS
;	COMDAT ??_7?$CDynamicPoolEx@VCTextureAnimationRandomDecorator@NEffectUpdateDecorator@@@@6B@
CONST	SEGMENT
??_7?$CDynamicPoolEx@VCTextureAnimationRandomDecorator@NEffectUpdateDecorator@@@@6B@ DD FLAT:??_R4?$CDynamicPoolEx@VCTextureAnimationRandomDecorator@NEffectUpdateDecorator@@@@6B@ ; CDynamicPoolEx<NEffectUpdateDecorator::CTextureAnimationRandomDecorator>::`vftable'
	DD	FLAT:??_E?$CDynamicPoolEx@VCTextureAnimationRandomDecorator@NEffectUpdateDecorator@@@@UAEPAXI@Z
CONST	ENDS
;	COMDAT ??_7?$CDynamicPoolEx@VCAirResistanceDecorator@NEffectUpdateDecorator@@@@6B@
CONST	SEGMENT
??_7?$CDynamicPoolEx@VCAirResistanceDecorator@NEffectUpdateDecorator@@@@6B@ DD FLAT:??_R4?$CDynamicPoolEx@VCAirResistanceDecorator@NEffectUpdateDecorator@@@@6B@ ; CDynamicPoolEx<NEffectUpdateDecorator::CAirResistanceDecorator>::`vftable'
	DD	FLAT:??_E?$CDynamicPoolEx@VCAirResistanceDecorator@NEffectUpdateDecorator@@@@UAEPAXI@Z
CONST	ENDS
;	COMDAT ??_7?$CDynamicPoolEx@VCGravityDecorator@NEffectUpdateDecorator@@@@6B@
CONST	SEGMENT
??_7?$CDynamicPoolEx@VCGravityDecorator@NEffectUpdateDecorator@@@@6B@ DD FLAT:??_R4?$CDynamicPoolEx@VCGravityDecorator@NEffectUpdateDecorator@@@@6B@ ; CDynamicPoolEx<NEffectUpdateDecorator::CGravityDecorator>::`vftable'
	DD	FLAT:??_E?$CDynamicPoolEx@VCGravityDecorator@NEffectUpdateDecorator@@@@UAEPAXI@Z
CONST	ENDS
;	COMDAT ??_R1A@?0A@EA@?$CDynamicPoolEx@VCRotationDecorator@NEffectUpdateDecorator@@@@8
rdata$r	SEGMENT
??_R1A@?0A@EA@?$CDynamicPoolEx@VCRotationDecorator@NEffectUpdateDecorator@@@@8 DD FLAT:??_R0?AV?$CDynamicPoolEx@VCRotationDecorator@NEffectUpdateDecorator@@@@@8 ; CDynamicPoolEx<NEffectUpdateDecorator::CRotationDecorator>::`RTTI Base Class Descriptor at (0,-1,0,64)'
	DD	00H
	DD	00H
	DD	0ffffffffH
	DD	00H
	DD	040H
	DD	FLAT:??_R3?$CDynamicPoolEx@VCRotationDecorator@NEffectUpdateDecorator@@@@8
rdata$r	ENDS
;	COMDAT ??_R2?$CDynamicPoolEx@VCRotationDecorator@NEffectUpdateDecorator@@@@8
rdata$r	SEGMENT
??_R2?$CDynamicPoolEx@VCRotationDecorator@NEffectUpdateDecorator@@@@8 DD FLAT:??_R1A@?0A@EA@?$CDynamicPoolEx@VCRotationDecorator@NEffectUpdateDecorator@@@@8 ; CDynamicPoolEx<NEffectUpdateDecorator::CRotationDecorator>::`RTTI Base Class Array'
rdata$r	ENDS
;	COMDAT ??_R3?$CDynamicPoolEx@VCRotationDecorator@NEffectUpdateDecorator@@@@8
rdata$r	SEGMENT
??_R3?$CDynamicPoolEx@VCRotationDecorator@NEffectUpdateDecorator@@@@8 DD 00H ; CDynamicPoolEx<NEffectUpdateDecorator::CRotationDecorator>::`RTTI Class Hierarchy Descriptor'
	DD	00H
	DD	01H
	DD	FLAT:??_R2?$CDynamicPoolEx@VCRotationDecorator@NEffectUpdateDecorator@@@@8
rdata$r	ENDS
;	COMDAT ??_R0?AV?$CDynamicPoolEx@VCRotationDecorator@NEffectUpdateDecorator@@@@@8
data$rs	SEGMENT
??_R0?AV?$CDynamicPoolEx@VCRotationDecorator@NEffectUpdateDecorator@@@@@8 DD FLAT:??_7type_info@@6B@ ; CDynamicPoolEx<NEffectUpdateDecorator::CRotationDecorator> `RTTI Type Descriptor'
	DD	00H
	DB	'.?AV?$CDynamicPoolEx@VCRotationDecorator@NEffectUpdateDe'
	DB	'corator@@@@', 00H
data$rs	ENDS
;	COMDAT ??_R4?$CDynamicPoolEx@VCRotationDecorator@NEffectUpdateDecorator@@@@6B@
rdata$r	SEGMENT
??_R4?$CDynamicPoolEx@VCRotationDecorator@NEffectUpdateDecorator@@@@6B@ DD 00H ; CDynamicPoolEx<NEffectUpdateDecorator::CRotationDecorator>::`RTTI Complete Object Locator'
	DD	00H
	DD	00H
	DD	FLAT:??_R0?AV?$CDynamicPoolEx@VCRotationDecorator@NEffectUpdateDecorator@@@@@8
	DD	FLAT:??_R3?$CDynamicPoolEx@VCRotationDecorator@NEffectUpdateDecorator@@@@8
rdata$r	ENDS
;	COMDAT ??_R1A@?0A@EA@?$CDynamicPoolEx@VCGravityDecorator@NEffectUpdateDecorator@@@@8
rdata$r	SEGMENT
??_R1A@?0A@EA@?$CDynamicPoolEx@VCGravityDecorator@NEffectUpdateDecorator@@@@8 DD FLAT:??_R0?AV?$CDynamicPoolEx@VCGravityDecorator@NEffectUpdateDecorator@@@@@8 ; CDynamicPoolEx<NEffectUpdateDecorator::CGravityDecorator>::`RTTI Base Class Descriptor at (0,-1,0,64)'
	DD	00H
	DD	00H
	DD	0ffffffffH
	DD	00H
	DD	040H
	DD	FLAT:??_R3?$CDynamicPoolEx@VCGravityDecorator@NEffectUpdateDecorator@@@@8
rdata$r	ENDS
;	COMDAT ??_R2?$CDynamicPoolEx@VCGravityDecorator@NEffectUpdateDecorator@@@@8
rdata$r	SEGMENT
??_R2?$CDynamicPoolEx@VCGravityDecorator@NEffectUpdateDecorator@@@@8 DD FLAT:??_R1A@?0A@EA@?$CDynamicPoolEx@VCGravityDecorator@NEffectUpdateDecorator@@@@8 ; CDynamicPoolEx<NEffectUpdateDecorator::CGravityDecorator>::`RTTI Base Class Array'
rdata$r	ENDS
;	COMDAT ??_R3?$CDynamicPoolEx@VCGravityDecorator@NEffectUpdateDecorator@@@@8
rdata$r	SEGMENT
??_R3?$CDynamicPoolEx@VCGravityDecorator@NEffectUpdateDecorator@@@@8 DD 00H ; CDynamicPoolEx<NEffectUpdateDecorator::CGravityDecorator>::`RTTI Class Hierarchy Descriptor'
	DD	00H
	DD	01H
	DD	FLAT:??_R2?$CDynamicPoolEx@VCGravityDecorator@NEffectUpdateDecorator@@@@8
rdata$r	ENDS
;	COMDAT ??_R0?AV?$CDynamicPoolEx@VCGravityDecorator@NEffectUpdateDecorator@@@@@8
data$rs	SEGMENT
??_R0?AV?$CDynamicPoolEx@VCGravityDecorator@NEffectUpdateDecorator@@@@@8 DD FLAT:??_7type_info@@6B@ ; CDynamicPoolEx<NEffectUpdateDecorator::CGravityDecorator> `RTTI Type Descriptor'
	DD	00H
	DB	'.?AV?$CDynamicPoolEx@VCGravityDecorator@NEffectUpdateDec'
	DB	'orator@@@@', 00H
data$rs	ENDS
;	COMDAT ??_R4?$CDynamicPoolEx@VCGravityDecorator@NEffectUpdateDecorator@@@@6B@
rdata$r	SEGMENT
??_R4?$CDynamicPoolEx@VCGravityDecorator@NEffectUpdateDecorator@@@@6B@ DD 00H ; CDynamicPoolEx<NEffectUpdateDecorator::CGravityDecorator>::`RTTI Complete Object Locator'
	DD	00H
	DD	00H
	DD	FLAT:??_R0?AV?$CDynamicPoolEx@VCGravityDecorator@NEffectUpdateDecorator@@@@@8
	DD	FLAT:??_R3?$CDynamicPoolEx@VCGravityDecorator@NEffectUpdateDecorator@@@@8
rdata$r	ENDS
;	COMDAT ??_R1A@?0A@EA@?$CDynamicPoolEx@VCAirResistanceDecorator@NEffectUpdateDecorator@@@@8
rdata$r	SEGMENT
??_R1A@?0A@EA@?$CDynamicPoolEx@VCAirResistanceDecorator@NEffectUpdateDecorator@@@@8 DD FLAT:??_R0?AV?$CDynamicPoolEx@VCAirResistanceDecorator@NEffectUpdateDecorator@@@@@8 ; CDynamicPoolEx<NEffectUpdateDecorator::CAirResistanceDecorator>::`RTTI Base Class Descriptor at (0,-1,0,64)'
	DD	00H
	DD	00H
	DD	0ffffffffH
	DD	00H
	DD	040H
	DD	FLAT:??_R3?$CDynamicPoolEx@VCAirResistanceDecorator@NEffectUpdateDecorator@@@@8
rdata$r	ENDS
;	COMDAT ??_R2?$CDynamicPoolEx@VCAirResistanceDecorator@NEffectUpdateDecorator@@@@8
rdata$r	SEGMENT
??_R2?$CDynamicPoolEx@VCAirResistanceDecorator@NEffectUpdateDecorator@@@@8 DD FLAT:??_R1A@?0A@EA@?$CDynamicPoolEx@VCAirResistanceDecorator@NEffectUpdateDecorator@@@@8 ; CDynamicPoolEx<NEffectUpdateDecorator::CAirResistanceDecorator>::`RTTI Base Class Array'
rdata$r	ENDS
;	COMDAT ??_R3?$CDynamicPoolEx@VCAirResistanceDecorator@NEffectUpdateDecorator@@@@8
rdata$r	SEGMENT
??_R3?$CDynamicPoolEx@VCAirResistanceDecorator@NEffectUpdateDecorator@@@@8 DD 00H ; CDynamicPoolEx<NEffectUpdateDecorator::CAirResistanceDecorator>::`RTTI Class Hierarchy Descriptor'
	DD	00H
	DD	01H
	DD	FLAT:??_R2?$CDynamicPoolEx@VCAirResistanceDecorator@NEffectUpdateDecorator@@@@8
rdata$r	ENDS
;	COMDAT ??_R0?AV?$CDynamicPoolEx@VCAirResistanceDecorator@NEffectUpdateDecorator@@@@@8
data$rs	SEGMENT
??_R0?AV?$CDynamicPoolEx@VCAirResistanceDecorator@NEffectUpdateDecorator@@@@@8 DD FLAT:??_7type_info@@6B@ ; CDynamicPoolEx<NEffectUpdateDecorator::CAirResistanceDecorator> `RTTI Type Descriptor'
	DD	00H
	DB	'.?AV?$CDynamicPoolEx@VCAirResistanceDecorator@NEffectUpd'
	DB	'ateDecorator@@@@', 00H
data$rs	ENDS
;	COMDAT ??_R4?$CDynamicPoolEx@VCAirResistanceDecorator@NEffectUpdateDecorator@@@@6B@
rdata$r	SEGMENT
??_R4?$CDynamicPoolEx@VCAirResistanceDecorator@NEffectUpdateDecorator@@@@6B@ DD 00H ; CDynamicPoolEx<NEffectUpdateDecorator::CAirResistanceDecorator>::`RTTI Complete Object Locator'
	DD	00H
	DD	00H
	DD	FLAT:??_R0?AV?$CDynamicPoolEx@VCAirResistanceDecorator@NEffectUpdateDecorator@@@@@8
	DD	FLAT:??_R3?$CDynamicPoolEx@VCAirResistanceDecorator@NEffectUpdateDecorator@@@@8
rdata$r	ENDS
;	COMDAT ??_R1A@?0A@EA@?$CDynamicPoolEx@VCTextureAnimationRandomDecorator@NEffectUpdateDecorator@@@@8
rdata$r	SEGMENT
??_R1A@?0A@EA@?$CDynamicPoolEx@VCTextureAnimationRandomDecorator@NEffectUpdateDecorator@@@@8 DD FLAT:??_R0?AV?$CDynamicPoolEx@VCTextureAnimationRandomDecorator@NEffectUpdateDecorator@@@@@8 ; CDynamicPoolEx<NEffectUpdateDecorator::CTextureAnimationRandomDecorator>::`RTTI Base Class Descriptor at (0,-1,0,64)'
	DD	00H
	DD	00H
	DD	0ffffffffH
	DD	00H
	DD	040H
	DD	FLAT:??_R3?$CDynamicPoolEx@VCTextureAnimationRandomDecorator@NEffectUpdateDecorator@@@@8
rdata$r	ENDS
;	COMDAT ??_R2?$CDynamicPoolEx@VCTextureAnimationRandomDecorator@NEffectUpdateDecorator@@@@8
rdata$r	SEGMENT
??_R2?$CDynamicPoolEx@VCTextureAnimationRandomDecorator@NEffectUpdateDecorator@@@@8 DD FLAT:??_R1A@?0A@EA@?$CDynamicPoolEx@VCTextureAnimationRandomDecorator@NEffectUpdateDecorator@@@@8 ; CDynamicPoolEx<NEffectUpdateDecorator::CTextureAnimationRandomDecorator>::`RTTI Base Class Array'
rdata$r	ENDS
;	COMDAT ??_R3?$CDynamicPoolEx@VCTextureAnimationRandomDecorator@NEffectUpdateDecorator@@@@8
rdata$r	SEGMENT
??_R3?$CDynamicPoolEx@VCTextureAnimationRandomDecorator@NEffectUpdateDecorator@@@@8 DD 00H ; CDynamicPoolEx<NEffectUpdateDecorator::CTextureAnimationRandomDecorator>::`RTTI Class Hierarchy Descriptor'
	DD	00H
	DD	01H
	DD	FLAT:??_R2?$CDynamicPoolEx@VCTextureAnimationRandomDecorator@NEffectUpdateDecorator@@@@8
rdata$r	ENDS
;	COMDAT ??_R0?AV?$CDynamicPoolEx@VCTextureAnimationRandomDecorator@NEffectUpdateDecorator@@@@@8
data$rs	SEGMENT
??_R0?AV?$CDynamicPoolEx@VCTextureAnimationRandomDecorator@NEffectUpdateDecorator@@@@@8 DD FLAT:??_7type_info@@6B@ ; CDynamicPoolEx<NEffectUpdateDecorator::CTextureAnimationRandomDecorator> `RTTI Type Descriptor'
	DD	00H
	DB	'.?AV?$CDynamicPoolEx@VCTextureAnimationRandomDecorator@N'
	DB	'EffectUpdateDecorator@@@@', 00H
data$rs	ENDS
;	COMDAT ??_R4?$CDynamicPoolEx@VCTextureAnimationRandomDecorator@NEffectUpdateDecorator@@@@6B@
rdata$r	SEGMENT
??_R4?$CDynamicPoolEx@VCTextureAnimationRandomDecorator@NEffectUpdateDecorator@@@@6B@ DD 00H ; CDynamicPoolEx<NEffectUpdateDecorator::CTextureAnimationRandomDecorator>::`RTTI Complete Object Locator'
	DD	00H
	DD	00H
	DD	FLAT:??_R0?AV?$CDynamicPoolEx@VCTextureAnimationRandomDecorator@NEffectUpdateDecorator@@@@@8
	DD	FLAT:??_R3?$CDynamicPoolEx@VCTextureAnimationRandomDecorator@NEffectUpdateDecorator@@@@8
rdata$r	ENDS
;	COMDAT ??_R1A@?0A@EA@?$CDynamicPoolEx@VCTextureAnimationCCWDecorator@NEffectUpdateDecorator@@@@8
rdata$r	SEGMENT
??_R1A@?0A@EA@?$CDynamicPoolEx@VCTextureAnimationCCWDecorator@NEffectUpdateDecorator@@@@8 DD FLAT:??_R0?AV?$CDynamicPoolEx@VCTextureAnimationCCWDecorator@NEffectUpdateDecorator@@@@@8 ; CDynamicPoolEx<NEffectUpdateDecorator::CTextureAnimationCCWDecorator>::`RTTI Base Class Descriptor at (0,-1,0,64)'
	DD	00H
	DD	00H
	DD	0ffffffffH
	DD	00H
	DD	040H
	DD	FLAT:??_R3?$CDynamicPoolEx@VCTextureAnimationCCWDecorator@NEffectUpdateDecorator@@@@8
rdata$r	ENDS
;	COMDAT ??_R2?$CDynamicPoolEx@VCTextureAnimationCCWDecorator@NEffectUpdateDecorator@@@@8
rdata$r	SEGMENT
??_R2?$CDynamicPoolEx@VCTextureAnimationCCWDecorator@NEffectUpdateDecorator@@@@8 DD FLAT:??_R1A@?0A@EA@?$CDynamicPoolEx@VCTextureAnimationCCWDecorator@NEffectUpdateDecorator@@@@8 ; CDynamicPoolEx<NEffectUpdateDecorator::CTextureAnimationCCWDecorator>::`RTTI Base Class Array'
rdata$r	ENDS
;	COMDAT ??_R3?$CDynamicPoolEx@VCTextureAnimationCCWDecorator@NEffectUpdateDecorator@@@@8
rdata$r	SEGMENT
??_R3?$CDynamicPoolEx@VCTextureAnimationCCWDecorator@NEffectUpdateDecorator@@@@8 DD 00H ; CDynamicPoolEx<NEffectUpdateDecorator::CTextureAnimationCCWDecorator>::`RTTI Class Hierarchy Descriptor'
	DD	00H
	DD	01H
	DD	FLAT:??_R2?$CDynamicPoolEx@VCTextureAnimationCCWDecorator@NEffectUpdateDecorator@@@@8
rdata$r	ENDS
;	COMDAT ??_R0?AV?$CDynamicPoolEx@VCTextureAnimationCCWDecorator@NEffectUpdateDecorator@@@@@8
data$rs	SEGMENT
??_R0?AV?$CDynamicPoolEx@VCTextureAnimationCCWDecorator@NEffectUpdateDecorator@@@@@8 DD FLAT:??_7type_info@@6B@ ; CDynamicPoolEx<NEffectUpdateDecorator::CTextureAnimationCCWDecorator> `RTTI Type Descriptor'
	DD	00H
	DB	'.?AV?$CDynamicPoolEx@VCTextureAnimationCCWDecorator@NEff'
	DB	'ectUpdateDecorator@@@@', 00H
data$rs	ENDS
;	COMDAT ??_R4?$CDynamicPoolEx@VCTextureAnimationCCWDecorator@NEffectUpdateDecorator@@@@6B@
rdata$r	SEGMENT
??_R4?$CDynamicPoolEx@VCTextureAnimationCCWDecorator@NEffectUpdateDecorator@@@@6B@ DD 00H ; CDynamicPoolEx<NEffectUpdateDecorator::CTextureAnimationCCWDecorator>::`RTTI Complete Object Locator'
	DD	00H
	DD	00H
	DD	FLAT:??_R0?AV?$CDynamicPoolEx@VCTextureAnimationCCWDecorator@NEffectUpdateDecorator@@@@@8
	DD	FLAT:??_R3?$CDynamicPoolEx@VCTextureAnimationCCWDecorator@NEffectUpdateDecorator@@@@8
rdata$r	ENDS
;	COMDAT ??_R1A@?0A@EA@?$CDynamicPoolEx@VCTextureAnimationCWDecorator@NEffectUpdateDecorator@@@@8
rdata$r	SEGMENT
??_R1A@?0A@EA@?$CDynamicPoolEx@VCTextureAnimationCWDecorator@NEffectUpdateDecorator@@@@8 DD FLAT:??_R0?AV?$CDynamicPoolEx@VCTextureAnimationCWDecorator@NEffectUpdateDecorator@@@@@8 ; CDynamicPoolEx<NEffectUpdateDecorator::CTextureAnimationCWDecorator>::`RTTI Base Class Descriptor at (0,-1,0,64)'
	DD	00H
	DD	00H
	DD	0ffffffffH
	DD	00H
	DD	040H
	DD	FLAT:??_R3?$CDynamicPoolEx@VCTextureAnimationCWDecorator@NEffectUpdateDecorator@@@@8
rdata$r	ENDS
;	COMDAT ??_R2?$CDynamicPoolEx@VCTextureAnimationCWDecorator@NEffectUpdateDecorator@@@@8
rdata$r	SEGMENT
??_R2?$CDynamicPoolEx@VCTextureAnimationCWDecorator@NEffectUpdateDecorator@@@@8 DD FLAT:??_R1A@?0A@EA@?$CDynamicPoolEx@VCTextureAnimationCWDecorator@NEffectUpdateDecorator@@@@8 ; CDynamicPoolEx<NEffectUpdateDecorator::CTextureAnimationCWDecorator>::`RTTI Base Class Array'
rdata$r	ENDS
;	COMDAT ??_R3?$CDynamicPoolEx@VCTextureAnimationCWDecorator@NEffectUpdateDecorator@@@@8
rdata$r	SEGMENT
??_R3?$CDynamicPoolEx@VCTextureAnimationCWDecorator@NEffectUpdateDecorator@@@@8 DD 00H ; CDynamicPoolEx<NEffectUpdateDecorator::CTextureAnimationCWDecorator>::`RTTI Class Hierarchy Descriptor'
	DD	00H
	DD	01H
	DD	FLAT:??_R2?$CDynamicPoolEx@VCTextureAnimationCWDecorator@NEffectUpdateDecorator@@@@8
rdata$r	ENDS
;	COMDAT ??_R0?AV?$CDynamicPoolEx@VCTextureAnimationCWDecorator@NEffectUpdateDecorator@@@@@8
data$rs	SEGMENT
??_R0?AV?$CDynamicPoolEx@VCTextureAnimationCWDecorator@NEffectUpdateDecorator@@@@@8 DD FLAT:??_7type_info@@6B@ ; CDynamicPoolEx<NEffectUpdateDecorator::CTextureAnimationCWDecorator> `RTTI Type Descriptor'
	DD	00H
	DB	'.?AV?$CDynamicPoolEx@VCTextureAnimationCWDecorator@NEffe'
	DB	'ctUpdateDecorator@@@@', 00H
data$rs	ENDS
;	COMDAT ??_R4?$CDynamicPoolEx@VCTextureAnimationCWDecorator@NEffectUpdateDecorator@@@@6B@
rdata$r	SEGMENT
??_R4?$CDynamicPoolEx@VCTextureAnimationCWDecorator@NEffectUpdateDecorator@@@@6B@ DD 00H ; CDynamicPoolEx<NEffectUpdateDecorator::CTextureAnimationCWDecorator>::`RTTI Complete Object Locator'
	DD	00H
	DD	00H
	DD	FLAT:??_R0?AV?$CDynamicPoolEx@VCTextureAnimationCWDecorator@NEffectUpdateDecorator@@@@@8
	DD	FLAT:??_R3?$CDynamicPoolEx@VCTextureAnimationCWDecorator@NEffectUpdateDecorator@@@@8
rdata$r	ENDS
;	COMDAT ??_R1A@?0A@EA@?$CDynamicPoolEx@VCNullDecorator@NEffectUpdateDecorator@@@@8
rdata$r	SEGMENT
??_R1A@?0A@EA@?$CDynamicPoolEx@VCNullDecorator@NEffectUpdateDecorator@@@@8 DD FLAT:??_R0?AV?$CDynamicPoolEx@VCNullDecorator@NEffectUpdateDecorator@@@@@8 ; CDynamicPoolEx<NEffectUpdateDecorator::CNullDecorator>::`RTTI Base Class Descriptor at (0,-1,0,64)'
	DD	00H
	DD	00H
	DD	0ffffffffH
	DD	00H
	DD	040H
	DD	FLAT:??_R3?$CDynamicPoolEx@VCNullDecorator@NEffectUpdateDecorator@@@@8
rdata$r	ENDS
;	COMDAT ??_R2?$CDynamicPoolEx@VCNullDecorator@NEffectUpdateDecorator@@@@8
rdata$r	SEGMENT
??_R2?$CDynamicPoolEx@VCNullDecorator@NEffectUpdateDecorator@@@@8 DD FLAT:??_R1A@?0A@EA@?$CDynamicPoolEx@VCNullDecorator@NEffectUpdateDecorator@@@@8 ; CDynamicPoolEx<NEffectUpdateDecorator::CNullDecorator>::`RTTI Base Class Array'
rdata$r	ENDS
;	COMDAT ??_R3?$CDynamicPoolEx@VCNullDecorator@NEffectUpdateDecorator@@@@8
rdata$r	SEGMENT
??_R3?$CDynamicPoolEx@VCNullDecorator@NEffectUpdateDecorator@@@@8 DD 00H ; CDynamicPoolEx<NEffectUpdateDecorator::CNullDecorator>::`RTTI Class Hierarchy Descriptor'
	DD	00H
	DD	01H
	DD	FLAT:??_R2?$CDynamicPoolEx@VCNullDecorator@NEffectUpdateDecorator@@@@8
rdata$r	ENDS
;	COMDAT ??_R0?AV?$CDynamicPoolEx@VCNullDecorator@NEffectUpdateDecorator@@@@@8
data$rs	SEGMENT
??_R0?AV?$CDynamicPoolEx@VCNullDecorator@NEffectUpdateDecorator@@@@@8 DD FLAT:??_7type_info@@6B@ ; CDynamicPoolEx<NEffectUpdateDecorator::CNullDecorator> `RTTI Type Descriptor'
	DD	00H
	DB	'.?AV?$CDynamicPoolEx@VCNullDecorator@NEffectUpdateDecora'
	DB	'tor@@@@', 00H
data$rs	ENDS
;	COMDAT ??_R4?$CDynamicPoolEx@VCNullDecorator@NEffectUpdateDecorator@@@@6B@
rdata$r	SEGMENT
??_R4?$CDynamicPoolEx@VCNullDecorator@NEffectUpdateDecorator@@@@6B@ DD 00H ; CDynamicPoolEx<NEffectUpdateDecorator::CNullDecorator>::`RTTI Complete Object Locator'
	DD	00H
	DD	00H
	DD	FLAT:??_R0?AV?$CDynamicPoolEx@VCNullDecorator@NEffectUpdateDecorator@@@@@8
	DD	FLAT:??_R3?$CDynamicPoolEx@VCNullDecorator@NEffectUpdateDecorator@@@@8
rdata$r	ENDS
;	COMDAT ??_R1A@?0A@EA@?$CDynamicPoolEx@VCHeaderDecorator@NEffectUpdateDecorator@@@@8
rdata$r	SEGMENT
??_R1A@?0A@EA@?$CDynamicPoolEx@VCHeaderDecorator@NEffectUpdateDecorator@@@@8 DD FLAT:??_R0?AV?$CDynamicPoolEx@VCHeaderDecorator@NEffectUpdateDecorator@@@@@8 ; CDynamicPoolEx<NEffectUpdateDecorator::CHeaderDecorator>::`RTTI Base Class Descriptor at (0,-1,0,64)'
	DD	00H
	DD	00H
	DD	0ffffffffH
	DD	00H
	DD	040H
	DD	FLAT:??_R3?$CDynamicPoolEx@VCHeaderDecorator@NEffectUpdateDecorator@@@@8
rdata$r	ENDS
;	COMDAT ??_R2?$CDynamicPoolEx@VCHeaderDecorator@NEffectUpdateDecorator@@@@8
rdata$r	SEGMENT
??_R2?$CDynamicPoolEx@VCHeaderDecorator@NEffectUpdateDecorator@@@@8 DD FLAT:??_R1A@?0A@EA@?$CDynamicPoolEx@VCHeaderDecorator@NEffectUpdateDecorator@@@@8 ; CDynamicPoolEx<NEffectUpdateDecorator::CHeaderDecorator>::`RTTI Base Class Array'
rdata$r	ENDS
;	COMDAT ??_R3?$CDynamicPoolEx@VCHeaderDecorator@NEffectUpdateDecorator@@@@8
rdata$r	SEGMENT
??_R3?$CDynamicPoolEx@VCHeaderDecorator@NEffectUpdateDecorator@@@@8 DD 00H ; CDynamicPoolEx<NEffectUpdateDecorator::CHeaderDecorator>::`RTTI Class Hierarchy Descriptor'
	DD	00H
	DD	01H
	DD	FLAT:??_R2?$CDynamicPoolEx@VCHeaderDecorator@NEffectUpdateDecorator@@@@8
rdata$r	ENDS
;	COMDAT ??_R0?AV?$CDynamicPoolEx@VCHeaderDecorator@NEffectUpdateDecorator@@@@@8
data$rs	SEGMENT
??_R0?AV?$CDynamicPoolEx@VCHeaderDecorator@NEffectUpdateDecorator@@@@@8 DD FLAT:??_7type_info@@6B@ ; CDynamicPoolEx<NEffectUpdateDecorator::CHeaderDecorator> `RTTI Type Descriptor'
	DD	00H
	DB	'.?AV?$CDynamicPoolEx@VCHeaderDecorator@NEffectUpdateDeco'
	DB	'rator@@@@', 00H
data$rs	ENDS
;	COMDAT ??_R4?$CDynamicPoolEx@VCHeaderDecorator@NEffectUpdateDecorator@@@@6B@
rdata$r	SEGMENT
??_R4?$CDynamicPoolEx@VCHeaderDecorator@NEffectUpdateDecorator@@@@6B@ DD 00H ; CDynamicPoolEx<NEffectUpdateDecorator::CHeaderDecorator>::`RTTI Complete Object Locator'
	DD	00H
	DD	00H
	DD	FLAT:??_R0?AV?$CDynamicPoolEx@VCHeaderDecorator@NEffectUpdateDecorator@@@@@8
	DD	FLAT:??_R3?$CDynamicPoolEx@VCHeaderDecorator@NEffectUpdateDecorator@@@@8
rdata$r	ENDS
;	COMDAT ??_7?$CDynamicPoolEx@VCRotationDecorator@NEffectUpdateDecorator@@@@6B@
CONST	SEGMENT
??_7?$CDynamicPoolEx@VCRotationDecorator@NEffectUpdateDecorator@@@@6B@ DD FLAT:??_R4?$CDynamicPoolEx@VCRotationDecorator@NEffectUpdateDecorator@@@@6B@ ; CDynamicPoolEx<NEffectUpdateDecorator::CRotationDecorator>::`vftable'
	DD	FLAT:??_E?$CDynamicPoolEx@VCRotationDecorator@NEffectUpdateDecorator@@@@UAEPAXI@Z
CONST	ENDS
_DATA	SEGMENT
?MIN_FOG@@3MA DD 045160000r			; 2400	; MIN_FOG
?c_fDefaultCameraRotateSpeed@@3MA DD 03fc00000r	; 1.5	; c_fDefaultCameraRotateSpeed
?g_specularSpd@@3NA DQ 03f7cac0840000000r	; 0.007	; g_specularSpd
?c_fDefaultCameraPitchSpeed@@3MA DD 03fc00000r	; 1.5	; c_fDefaultCameraPitchSpeed
?c_fDefaultCameraZoomSpeed@@3MA DD 03d4ccccdr	; 0.05	; c_fDefaultCameraZoomSpeed
_DATA	ENDS
PUBLIC	??_H@YGXPAXIIP6EPAX0@Z@Z			; `vector constructor iterator'
PUBLIC	?__empty_global_delete@@YAXPAX@Z		; __empty_global_delete
PUBLIC	?__empty_global_delete@@YAXPAXI@Z		; __empty_global_delete
PUBLIC	___local_stdio_printf_options
PUBLIC	_fprintf
PUBLIC	_printf
PUBLIC	_sprintf
PUBLIC	__snprintf
PUBLIC	??0exception@std@@QAE@ABV01@@Z			; std::exception::exception
PUBLIC	??1exception@std@@UAE@XZ			; std::exception::~exception
PUBLIC	?what@exception@std@@UBEPBDXZ			; std::exception::what
PUBLIC	??_Gexception@std@@UAEPAXI@Z			; std::exception::`scalar deleting destructor'
PUBLIC	??0bad_alloc@std@@QAE@ABV01@@Z			; std::bad_alloc::bad_alloc
PUBLIC	??_Gbad_alloc@std@@UAEPAXI@Z			; std::bad_alloc::`scalar deleting destructor'
PUBLIC	??0bad_array_new_length@std@@QAE@XZ		; std::bad_array_new_length::bad_array_new_length
PUBLIC	??1bad_array_new_length@std@@UAE@XZ		; std::bad_array_new_length::~bad_array_new_length
PUBLIC	??0bad_array_new_length@std@@QAE@ABV01@@Z	; std::bad_array_new_length::bad_array_new_length
PUBLIC	??_Gbad_array_new_length@std@@UAEPAXI@Z		; std::bad_array_new_length::`scalar deleting destructor'
PUBLIC	?_Throw_bad_array_new_length@std@@YAXXZ		; std::_Throw_bad_array_new_length
PUBLIC	?_Xlen_string@std@@YAXXZ			; std::_Xlen_string
PUBLIC	??1?$basic_string@DU?$char_traits@D@std@@V?$allocator@D@2@@std@@QAE@XZ ; std::basic_string<char,std::char_traits<char>,std::allocator<char> >::~basic_string<char,std::char_traits<char>,std::allocator<char> >
PUBLIC	?assign@?$basic_string@DU?$char_traits@D@std@@V?$allocator@D@2@@std@@QAEAAV12@QBDI@Z ; std::basic_string<char,std::char_traits<char>,std::allocator<char> >::assign
PUBLIC	??$_Destroy_in_place@PAD@std@@YAXAAPAD@Z	; std::_Destroy_in_place<char *>
PUBLIC	??$_Construct_in_place@PADABQAD@std@@YAXAAPADABQAD@Z ; std::_Construct_in_place<char *,char * const &>
PUBLIC	??$_Deallocate@$07$0A@@std@@YAXPAXI@Z		; std::_Deallocate<8,0>
PUBLIC	??$_Allocate@$07U_Default_allocate_traits@std@@$0A@@std@@YAPAXI@Z ; std::_Allocate<8,std::_Default_allocate_traits,0>
PUBLIC	??$_Allocate_manually_vector_aligned@U_Default_allocate_traits@std@@@std@@YAPAXI@Z ; std::_Allocate_manually_vector_aligned<std::_Default_allocate_traits>
PUBLIC	??1?$TAbstractSingleton@VIAbstractApplication@@@@UAE@XZ ; TAbstractSingleton<IAbstractApplication>::~TAbstractSingleton<IAbstractApplication>
PUBLIC	??_G?$TAbstractSingleton@VIAbstractApplication@@@@UAEPAXI@Z ; TAbstractSingleton<IAbstractApplication>::`scalar deleting destructor'
PUBLIC	??1IAbstractApplication@@UAE@XZ			; IAbstractApplication::~IAbstractApplication
PUBLIC	??_GIAbstractApplication@@UAEPAXI@Z		; IAbstractApplication::`scalar deleting destructor'
PUBLIC	??1?$CSingleton@VCMovieMan@@@@UAE@XZ		; CSingleton<CMovieMan>::~CSingleton<CMovieMan>
PUBLIC	??_G?$CSingleton@VCMovieMan@@@@UAEPAXI@Z	; CSingleton<CMovieMan>::`scalar deleting destructor'
PUBLIC	??1CMovieMan@@UAE@XZ				; CMovieMan::~CMovieMan
PUBLIC	??_GCMovieMan@@UAEPAXI@Z			; CMovieMan::`scalar deleting destructor'
PUBLIC	??0CPythonApplication@@QAE@XZ			; CPythonApplication::CPythonApplication
PUBLIC	??1CPythonApplication@@UAE@XZ			; CPythonApplication::~CPythonApplication
PUBLIC	?NotifyHack@CPythonApplication@@QAAXPBDZZ	; CPythonApplication::NotifyHack
PUBLIC	?GetInfo@CPythonApplication@@QAEXIPAV?$basic_string@DU?$char_traits@D@std@@V?$allocator@D@2@@std@@@Z ; CPythonApplication::GetInfo
PUBLIC	?GetMousePosition@CPythonApplication@@UAEXPAUtagPOINT@@@Z ; CPythonApplication::GetMousePosition
PUBLIC	?Loop@CPythonApplication@@QAEXXZ		; CPythonApplication::Loop
PUBLIC	?Destroy@CPythonApplication@@QAEXXZ		; CPythonApplication::Destroy
PUBLIC	?Clear@CPythonApplication@@QAEXXZ		; CPythonApplication::Clear
PUBLIC	?Exit@CPythonApplication@@QAEXXZ		; CPythonApplication::Exit
PUBLIC	?Abort@CPythonApplication@@QAEXXZ		; CPythonApplication::Abort
PUBLIC	?SetMinFog@CPythonApplication@@QAEXM@Z		; CPythonApplication::SetMinFog
PUBLIC	?SetFrameSkip@CPythonApplication@@QAEX_N@Z	; CPythonApplication::SetFrameSkip
PUBLIC	?SkipRenderBuffering@CPythonApplication@@UAEXK@Z ; CPythonApplication::SkipRenderBuffering
PUBLIC	?Create@CPythonApplication@@QAE_NPAU_object@@PBDHHH@Z ; CPythonApplication::Create
PUBLIC	?CreateDevice@CPythonApplication@@QAE_NHHHHH@Z	; CPythonApplication::CreateDevice
PUBLIC	?UpdateGame@CPythonApplication@@QAEXXZ		; CPythonApplication::UpdateGame
PUBLIC	?RenderGame@CPythonApplication@@QAEXXZ		; CPythonApplication::RenderGame
PUBLIC	?Process@CPythonApplication@@QAE_NXZ		; CPythonApplication::Process
PUBLIC	?UpdateClientRect@CPythonApplication@@QAEXXZ	; CPythonApplication::UpdateClientRect
PUBLIC	?SetMouseHandler@CPythonApplication@@QAEXPAU_object@@@Z ; CPythonApplication::SetMouseHandler
PUBLIC	?GetWidth@CPythonApplication@@QAEHXZ		; CPythonApplication::GetWidth
PUBLIC	?GetHeight@CPythonApplication@@QAEHXZ		; CPythonApplication::GetHeight
PUBLIC	?SetGlobalCenterPosition@CPythonApplication@@QAEXJJ@Z ; CPythonApplication::SetGlobalCenterPosition
PUBLIC	?SetCenterPosition@CPythonApplication@@UAEXMMM@Z ; CPythonApplication::SetCenterPosition
PUBLIC	?GetCenterPosition@CPythonApplication@@QAEXPAUD3DXVECTOR3@@@Z ; CPythonApplication::GetCenterPosition
PUBLIC	?SetFPS@CPythonApplication@@QAEXH@Z		; CPythonApplication::SetFPS
PUBLIC	?SetServerTime@CPythonApplication@@UAEXJ@Z	; CPythonApplication::SetServerTime
PUBLIC	?GetServerTime@CPythonApplication@@QAEJXZ	; CPythonApplication::GetServerTime
PUBLIC	?GetServerTimeStamp@CPythonApplication@@QAEJXZ	; CPythonApplication::GetServerTimeStamp
PUBLIC	?GetGlobalTime@CPythonApplication@@UAEMXZ	; CPythonApplication::GetGlobalTime
PUBLIC	?GetGlobalElapsedTime@CPythonApplication@@UAEMXZ ; CPythonApplication::GetGlobalElapsedTime
PUBLIC	?SetConnectData@CPythonApplication@@QAEXPBDH@Z	; CPythonApplication::SetConnectData
PUBLIC	?GetConnectData@CPythonApplication@@QAEXAAV?$basic_string@DU?$char_traits@D@std@@V?$allocator@D@2@@std@@AAH@Z ; CPythonApplication::GetConnectData
PUBLIC	?EnableSpecialCameraMode@CPythonApplication@@QAEXXZ ; CPythonApplication::EnableSpecialCameraMode
PUBLIC	?SetCameraSpeed@CPythonApplication@@QAEXH@Z	; CPythonApplication::SetCameraSpeed
PUBLIC	?SetForceSightRange@CPythonApplication@@QAEXH@Z	; CPythonApplication::SetForceSightRange
PUBLIC	?CheckDeviceState@CPythonApplication@@IAEHXZ	; CPythonApplication::CheckDeviceState
PUBLIC	??1?$_Tree@V?$_Tmap_traits@HPAXU?$less@H@std@@V?$allocator@U?$pair@$$CBHPAX@std@@@2@$0A@@std@@@std@@QAE@XZ ; std::_Tree<std::_Tmap_traits<int,void *,std::less<int>,std::allocator<std::pair<int const ,void *> >,0> >::~_Tree<std::_Tmap_traits<int,void *,std::less<int>,std::allocator<std::pair<int const ,void *> >,0> >
PUBLIC	??1?$map@HPAXU?$less@H@std@@V?$allocator@U?$pair@$$CBHPAX@std@@@2@@std@@QAE@XZ ; std::map<int,void *,std::less<int>,std::allocator<std::pair<int const ,void *> > >::~map<int,void *,std::less<int>,std::allocator<std::pair<int const ,void *> > >
PUBLIC	??_GCPythonApplication@@UAEPAXI@Z		; CPythonApplication::`scalar deleting destructor'
PUBLIC	?LoadLocaleData@@YA_NPBD@Z			; LoadLocaleData
PUBLIC	?__GetWindowMode@@YAI_N@Z			; __GetWindowMode
PUBLIC	??1?$CDynamicPoolEx@VCRotationDecorator@NEffectUpdateDecorator@@@@UAE@XZ ; CDynamicPoolEx<NEffectUpdateDecorator::CRotationDecorator>::~CDynamicPoolEx<NEffectUpdateDecorator::CRotationDecorator>
PUBLIC	?Delete@?$CDynamicPoolEx@VCRotationDecorator@NEffectUpdateDecorator@@@@KAXPAVCRotationDecorator@NEffectUpdateDecorator@@@Z ; CDynamicPoolEx<NEffectUpdateDecorator::CRotationDecorator>::Delete
PUBLIC	??1?$CDynamicPoolEx@VCGravityDecorator@NEffectUpdateDecorator@@@@UAE@XZ ; CDynamicPoolEx<NEffectUpdateDecorator::CGravityDecorator>::~CDynamicPoolEx<NEffectUpdateDecorator::CGravityDecorator>
PUBLIC	?Delete@?$CDynamicPoolEx@VCGravityDecorator@NEffectUpdateDecorator@@@@KAXPAVCGravityDecorator@NEffectUpdateDecorator@@@Z ; CDynamicPoolEx<NEffectUpdateDecorator::CGravityDecorator>::Delete
PUBLIC	??1?$CDynamicPoolEx@VCAirResistanceDecorator@NEffectUpdateDecorator@@@@UAE@XZ ; CDynamicPoolEx<NEffectUpdateDecorator::CAirResistanceDecorator>::~CDynamicPoolEx<NEffectUpdateDecorator::CAirResistanceDecorator>
PUBLIC	?Delete@?$CDynamicPoolEx@VCAirResistanceDecorator@NEffectUpdateDecorator@@@@KAXPAVCAirResistanceDecorator@NEffectUpdateDecorator@@@Z ; CDynamicPoolEx<NEffectUpdateDecorator::CAirResistanceDecorator>::Delete
PUBLIC	??1?$CDynamicPoolEx@VCTextureAnimationRandomDecorator@NEffectUpdateDecorator@@@@UAE@XZ ; CDynamicPoolEx<NEffectUpdateDecorator::CTextureAnimationRandomDecorator>::~CDynamicPoolEx<NEffectUpdateDecorator::CTextureAnimationRandomDecorator>
PUBLIC	?Delete@?$CDynamicPoolEx@VCTextureAnimationRandomDecorator@NEffectUpdateDecorator@@@@KAXPAVCTextureAnimationRandomDecorator@NEffectUpdateDecorator@@@Z ; CDynamicPoolEx<NEffectUpdateDecorator::CTextureAnimationRandomDecorator>::Delete
PUBLIC	??1?$CDynamicPoolEx@VCTextureAnimationCCWDecorator@NEffectUpdateDecorator@@@@UAE@XZ ; CDynamicPoolEx<NEffectUpdateDecorator::CTextureAnimationCCWDecorator>::~CDynamicPoolEx<NEffectUpdateDecorator::CTextureAnimationCCWDecorator>
PUBLIC	?Delete@?$CDynamicPoolEx@VCTextureAnimationCCWDecorator@NEffectUpdateDecorator@@@@KAXPAVCTextureAnimationCCWDecorator@NEffectUpdateDecorator@@@Z ; CDynamicPoolEx<NEffectUpdateDecorator::CTextureAnimationCCWDecorator>::Delete
PUBLIC	??1?$CDynamicPoolEx@VCTextureAnimationCWDecorator@NEffectUpdateDecorator@@@@UAE@XZ ; CDynamicPoolEx<NEffectUpdateDecorator::CTextureAnimationCWDecorator>::~CDynamicPoolEx<NEffectUpdateDecorator::CTextureAnimationCWDecorator>
PUBLIC	?Delete@?$CDynamicPoolEx@VCTextureAnimationCWDecorator@NEffectUpdateDecorator@@@@KAXPAVCTextureAnimationCWDecorator@NEffectUpdateDecorator@@@Z ; CDynamicPoolEx<NEffectUpdateDecorator::CTextureAnimationCWDecorator>::Delete
PUBLIC	??1?$CDynamicPoolEx@VCNullDecorator@NEffectUpdateDecorator@@@@UAE@XZ ; CDynamicPoolEx<NEffectUpdateDecorator::CNullDecorator>::~CDynamicPoolEx<NEffectUpdateDecorator::CNullDecorator>
PUBLIC	?Delete@?$CDynamicPoolEx@VCNullDecorator@NEffectUpdateDecorator@@@@KAXPAVCNullDecorator@NEffectUpdateDecorator@@@Z ; CDynamicPoolEx<NEffectUpdateDecorator::CNullDecorator>::Delete
PUBLIC	??1?$CDynamicPoolEx@VCHeaderDecorator@NEffectUpdateDecorator@@@@UAE@XZ ; CDynamicPoolEx<NEffectUpdateDecorator::CHeaderDecorator>::~CDynamicPoolEx<NEffectUpdateDecorator::CHeaderDecorator>
PUBLIC	?Delete@?$CDynamicPoolEx@VCHeaderDecorator@NEffectUpdateDecorator@@@@KAXPAVCHeaderDecorator@NEffectUpdateDecorator@@@Z ; CDynamicPoolEx<NEffectUpdateDecorator::CHeaderDecorator>::Delete
PUBLIC	??$_Pocca@V?$allocator@D@std@@@std@@YAXAAV?$allocator@D@0@ABV10@@Z ; std::_Pocca<std::allocator<char> >
PUBLIC	??$_Destroy_range@V?$allocator@PAVCHeaderDecorator@NEffectUpdateDecorator@@@std@@@std@@YAXPAPAVCHeaderDecorator@NEffectUpdateDecorator@@QAPAV12@AAV?$allocator@PAVCHeaderDecorator@NEffectUpdateDecorator@@@0@@Z ; std::_Destroy_range<std::allocator<NEffectUpdateDecorator::CHeaderDecorator *> >
PUBLIC	??$_Destroy_range@V?$allocator@PAVCNullDecorator@NEffectUpdateDecorator@@@std@@@std@@YAXPAPAVCNullDecorator@NEffectUpdateDecorator@@QAPAV12@AAV?$allocator@PAVCNullDecorator@NEffectUpdateDecorator@@@0@@Z ; std::_Destroy_range<std::allocator<NEffectUpdateDecorator::CNullDecorator *> >
PUBLIC	??$_Destroy_range@V?$allocator@PAVCTextureAnimationCWDecorator@NEffectUpdateDecorator@@@std@@@std@@YAXPAPAVCTextureAnimationCWDecorator@NEffectUpdateDecorator@@QAPAV12@AAV?$allocator@PAVCTextureAnimationCWDecorator@NEffectUpdateDecorator@@@0@@Z ; std::_Destroy_range<std::allocator<NEffectUpdateDecorator::CTextureAnimationCWDecorator *> >
PUBLIC	??$_Destroy_range@V?$allocator@PAVCTextureAnimationCCWDecorator@NEffectUpdateDecorator@@@std@@@std@@YAXPAPAVCTextureAnimationCCWDecorator@NEffectUpdateDecorator@@QAPAV12@AAV?$allocator@PAVCTextureAnimationCCWDecorator@NEffectUpdateDecorator@@@0@@Z ; std::_Destroy_range<std::allocator<NEffectUpdateDecorator::CTextureAnimationCCWDecorator *> >
PUBLIC	??$_Destroy_range@V?$allocator@PAVCTextureAnimationRandomDecorator@NEffectUpdateDecorator@@@std@@@std@@YAXPAPAVCTextureAnimationRandomDecorator@NEffectUpdateDecorator@@QAPAV12@AAV?$allocator@PAVCTextureAnimationRandomDecorator@NEffectUpdateDecorator@@@0@@Z ; std::_Destroy_range<std::allocator<NEffectUpdateDecorator::CTextureAnimationRandomDecorator *> >
PUBLIC	??$_Destroy_range@V?$allocator@PAVCAirResistanceDecorator@NEffectUpdateDecorator@@@std@@@std@@YAXPAPAVCAirResistanceDecorator@NEffectUpdateDecorator@@QAPAV12@AAV?$allocator@PAVCAirResistanceDecorator@NEffectUpdateDecorator@@@0@@Z ; std::_Destroy_range<std::allocator<NEffectUpdateDecorator::CAirResistanceDecorator *> >
PUBLIC	??$_Destroy_range@V?$allocator@PAVCGravityDecorator@NEffectUpdateDecorator@@@std@@@std@@YAXPAPAVCGravityDecorator@NEffectUpdateDecorator@@QAPAV12@AAV?$allocator@PAVCGravityDecorator@NEffectUpdateDecorator@@@0@@Z ; std::_Destroy_range<std::allocator<NEffectUpdateDecorator::CGravityDecorator *> >
PUBLIC	??$_Destroy_range@V?$allocator@PAVCRotationDecorator@NEffectUpdateDecorator@@@std@@@std@@YAXPAPAVCRotationDecorator@NEffectUpdateDecorator@@QAPAV12@AAV?$allocator@PAVCRotationDecorator@NEffectUpdateDecorator@@@0@@Z ; std::_Destroy_range<std::allocator<NEffectUpdateDecorator::CRotationDecorator *> >
PUBLIC	??$_Erase_tree@V?$allocator@U?$_Tree_node@U?$pair@$$CBHPAX@std@@PAX@std@@@std@@@?$_Tree_val@U?$_Tree_simple_types@U?$pair@$$CBHPAX@std@@@std@@@std@@QAEXAAV?$allocator@U?$_Tree_node@U?$pair@$$CBHPAX@std@@PAX@std@@@1@PAU?$_Tree_node@U?$pair@$$CBHPAX@std@@PAX@1@@Z ; std::_Tree_val<std::_Tree_simple_types<std::pair<int const ,void *> > >::_Erase_tree<std::allocator<std::_Tree_node<std::pair<int const ,void *>,void *> > >
PUBLIC	??$_Construct_in_place@PAU?$_Tree_node@U?$pair@$$CBHPAX@std@@PAX@std@@ABQAU12@@std@@YAXAAPAU?$_Tree_node@U?$pair@$$CBHPAX@std@@PAX@0@ABQAU10@@Z ; std::_Construct_in_place<std::_Tree_node<std::pair<int const ,void *>,void *> *,std::_Tree_node<std::pair<int const ,void *>,void *> * const &>
PUBLIC	??$_Destroy_in_place@PAU?$_Tree_node@U?$pair@$$CBHPAX@std@@PAX@std@@@std@@YAXAAPAU?$_Tree_node@U?$pair@$$CBHPAX@std@@PAX@0@@Z ; std::_Destroy_in_place<std::_Tree_node<std::pair<int const ,void *>,void *> *>
PUBLIC	??_ECPythonApplication@@WBM@AEPAXI@Z		; [thunk]:CPythonApplication::`vector deleting destructor'
PUBLIC	??_ECPythonApplication@@WCA@AEPAXI@Z		; [thunk]:CPythonApplication::`vector deleting destructor'
PUBLIC	?_OptionsStorage@?1??__local_stdio_printf_options@@9@4_KA ; `__local_stdio_printf_options'::`2'::_OptionsStorage
PUBLIC	??_7exception@std@@6B@				; std::exception::`vftable'
PUBLIC	??_C@_0BC@EOODALEL@Unknown?5exception@		; `string'
PUBLIC	??_7bad_alloc@std@@6B@				; std::bad_alloc::`vftable'
PUBLIC	??_7bad_array_new_length@std@@6B@		; std::bad_array_new_length::`vftable'
PUBLIC	??_C@_0BF@KINCDENJ@bad?5array?5new?5length@	; `string'
PUBLIC	__TI3?AVbad_array_new_length@std@@
PUBLIC	__CTA3?AVbad_array_new_length@std@@
PUBLIC	??_R0?AVbad_array_new_length@std@@@8		; std::bad_array_new_length `RTTI Type Descriptor'
PUBLIC	__CT??_R0?AVbad_array_new_length@std@@@8??0bad_array_new_length@std@@QAE@ABV01@@Z12
PUBLIC	??_R0?AVbad_alloc@std@@@8			; std::bad_alloc `RTTI Type Descriptor'
PUBLIC	__CT??_R0?AVbad_alloc@std@@@8??0bad_alloc@std@@QAE@ABV01@@Z12
PUBLIC	??_R0?AVexception@std@@@8			; std::exception `RTTI Type Descriptor'
PUBLIC	__CT??_R0?AVexception@std@@@8??0exception@std@@QAE@ABV01@@Z12
PUBLIC	??_C@_0BA@JFNIOLAK@string?5too?5long@		; `string'
PUBLIC	??_C@_00CNPNBAHC@@				; `string'
PUBLIC	?ms_singleton@?$CSingleton@VCTimer@@@@0PAVCTimer@@A ; CSingleton<CTimer>::ms_singleton
PUBLIC	?ms_singleton@?$CSingleton@VCResourceManager@@@@0PAVCResourceManager@@A ; CSingleton<CResourceManager>::ms_singleton
PUBLIC	?ms_singleton@?$CSingleton@VCCullingManager@@@@0PAVCCullingManager@@A ; CSingleton<CCullingManager>::ms_singleton
PUBLIC	?ms_singleton@?$CSingleton@VCWindowManager@UI@@@@0PAVCWindowManager@UI@@A ; CSingleton<UI::CWindowManager>::ms_singleton
PUBLIC	??_R4exception@std@@6B@				; std::exception::`RTTI Complete Object Locator'
PUBLIC	??_R3exception@std@@8				; std::exception::`RTTI Class Hierarchy Descriptor'
PUBLIC	??_R2exception@std@@8				; std::exception::`RTTI Base Class Array'
PUBLIC	??_R1A@?0A@EA@exception@std@@8			; std::exception::`RTTI Base Class Descriptor at (0,-1,0,64)'
PUBLIC	??_R4bad_alloc@std@@6B@				; std::bad_alloc::`RTTI Complete Object Locator'
PUBLIC	??_R3bad_alloc@std@@8				; std::bad_alloc::`RTTI Class Hierarchy Descriptor'
PUBLIC	??_R2bad_alloc@std@@8				; std::bad_alloc::`RTTI Base Class Array'
PUBLIC	??_R1A@?0A@EA@bad_alloc@std@@8			; std::bad_alloc::`RTTI Base Class Descriptor at (0,-1,0,64)'
PUBLIC	??_R4bad_array_new_length@std@@6B@		; std::bad_array_new_length::`RTTI Complete Object Locator'
PUBLIC	??_R3bad_array_new_length@std@@8		; std::bad_array_new_length::`RTTI Class Hierarchy Descriptor'
PUBLIC	??_R2bad_array_new_length@std@@8		; std::bad_array_new_length::`RTTI Base Class Array'
PUBLIC	??_R1A@?0A@EA@bad_array_new_length@std@@8	; std::bad_array_new_length::`RTTI Base Class Descriptor at (0,-1,0,64)'
PUBLIC	?ms_singleton@?$CSingleton@VCCameraManager@@@@0PAVCCameraManager@@A ; CSingleton<CCameraManager>::ms_singleton
PUBLIC	?ms_singleton@?$CSingleton@VCStateManager@@@@0PAVCStateManager@@A ; CSingleton<CStateManager>::ms_singleton
PUBLIC	?ms_kPool@?$CPooledObject@VCHeaderDecorator@NEffectUpdateDecorator@@@@1V?$CDynamicPoolEx@VCHeaderDecorator@NEffectUpdateDecorator@@@@A ; CPooledObject<NEffectUpdateDecorator::CHeaderDecorator>::ms_kPool
PUBLIC	?ms_kPool@?$CPooledObject@VCNullDecorator@NEffectUpdateDecorator@@@@1V?$CDynamicPoolEx@VCNullDecorator@NEffectUpdateDecorator@@@@A ; CPooledObject<NEffectUpdateDecorator::CNullDecorator>::ms_kPool
PUBLIC	?ms_kPool@?$CPooledObject@VCTextureAnimationCWDecorator@NEffectUpdateDecorator@@@@1V?$CDynamicPoolEx@VCTextureAnimationCWDecorator@NEffectUpdateDecorator@@@@A ; CPooledObject<NEffectUpdateDecorator::CTextureAnimationCWDecorator>::ms_kPool
PUBLIC	?ms_kPool@?$CPooledObject@VCTextureAnimationCCWDecorator@NEffectUpdateDecorator@@@@1V?$CDynamicPoolEx@VCTextureAnimationCCWDecorator@NEffectUpdateDecorator@@@@A ; CPooledObject<NEffectUpdateDecorator::CTextureAnimationCCWDecorator>::ms_kPool
PUBLIC	?ms_kPool@?$CPooledObject@VCTextureAnimationRandomDecorator@NEffectUpdateDecorator@@@@1V?$CDynamicPoolEx@VCTextureAnimationRandomDecorator@NEffectUpdateDecorator@@@@A ; CPooledObject<NEffectUpdateDecorator::CTextureAnimationRandomDecorator>::ms_kPool
PUBLIC	?ms_kPool@?$CPooledObject@VCAirResistanceDecorator@NEffectUpdateDecorator@@@@1V?$CDynamicPoolEx@VCAirResistanceDecorator@NEffectUpdateDecorator@@@@A ; CPooledObject<NEffectUpdateDecorator::CAirResistanceDecorator>::ms_kPool
PUBLIC	?ms_kPool@?$CPooledObject@VCGravityDecorator@NEffectUpdateDecorator@@@@1V?$CDynamicPoolEx@VCGravityDecorator@NEffectUpdateDecorator@@@@A ; CPooledObject<NEffectUpdateDecorator::CGravityDecorator>::ms_kPool
PUBLIC	?ms_kPool@?$CPooledObject@VCRotationDecorator@NEffectUpdateDecorator@@@@1V?$CDynamicPoolEx@VCRotationDecorator@NEffectUpdateDecorator@@@@A ; CPooledObject<NEffectUpdateDecorator::CRotationDecorator>::ms_kPool
PUBLIC	?ms_singleton@?$CSingleton@VCItemManager@@@@0PAVCItemManager@@A ; CSingleton<CItemManager>::ms_singleton
PUBLIC	?ms_singleton@?$CSingleton@VCPythonSkill@@@@0PAVCPythonSkill@@A ; CSingleton<CPythonSkill>::ms_singleton
PUBLIC	?ms_singleton@?$CSingleton@VCPythonNonPlayer@@@@0PAVCPythonNonPlayer@@A ; CSingleton<CPythonNonPlayer>::ms_singleton
PUBLIC	?ms_singleton@?$CSingleton@VCPythonBackground@@@@0PAVCPythonBackground@@A ; CSingleton<CPythonBackground>::ms_singleton
PUBLIC	?ms_singleton@?$CSingleton@VCPythonIME@@@@0PAVCPythonIME@@A ; CSingleton<CPythonIME>::ms_singleton
PUBLIC	?ms_singleton@?$CSingleton@VCPythonTextTail@@@@0PAVCPythonTextTail@@A ; CSingleton<CPythonTextTail>::ms_singleton
PUBLIC	?ms_singleton@?$CSingleton@VCPythonSystem@@@@0PAVCPythonSystem@@A ; CSingleton<CPythonSystem>::ms_singleton
PUBLIC	?ms_singleton@?$CSingleton@VCPythonNetworkStream@@@@0PAVCPythonNetworkStream@@A ; CSingleton<CPythonNetworkStream>::ms_singleton
PUBLIC	?ms_singleton@?$TAbstractSingleton@VIAbstractApplication@@@@0PAVIAbstractApplication@@A ; TAbstractSingleton<IAbstractApplication>::ms_singleton
PUBLIC	??_7?$TAbstractSingleton@VIAbstractApplication@@@@6B@ ; TAbstractSingleton<IAbstractApplication>::`vftable'
PUBLIC	??_7IAbstractApplication@@6B@			; IAbstractApplication::`vftable'
PUBLIC	?ms_singleton@?$CSingleton@VCMovieMan@@@@0PAVCMovieMan@@A ; CSingleton<CMovieMan>::ms_singleton
PUBLIC	??_7?$CSingleton@VCMovieMan@@@@6B@		; CSingleton<CMovieMan>::`vftable'
PUBLIC	??_7CMovieMan@@6B@				; CMovieMan::`vftable'
PUBLIC	??_7CPythonApplication@@6BCMSApplication@@@	; CPythonApplication::`vftable'
PUBLIC	??_7CPythonApplication@@6BCInputKeyboard@@@	; CPythonApplication::`vftable'
PUBLIC	??_7CPythonApplication@@6BIAbstractApplication@@@ ; CPythonApplication::`vftable'
PUBLIC	??_C@_0GN@LLBDNFAM@?$DN?$DN?$DN?$DN?$DN?$DN?$DN?$DN?$DN?$DN?$DN?$DN?$DN?$DN?$DN?$DN?$DN?$DN?$DN?$DN?$DN?$DN?$DN?$DN?$DN?$DN?$DN?$DN?$DN?$DN?$DN@ ; `string'
PUBLIC	??_C@_0M@EHJKIBDK@Abort?$CB?$CB?$CB?$CB?6?6@	; `string'
PUBLIC	??_C@_01NOFIACDB@w@				; `string'
PUBLIC	??_C@_0BF@OHHAPIAL@perf_game_render?4txt@	; `string'
PUBLIC	??_C@_0BH@GCCBAEAA@GR?4Total?5?$CFd?5?$CITime?5?$CFd?$CJ?6@ ; `string'
PUBLIC	??_C@_0L@EGAPCDKD@GR?4DFM?5?$CFd?6@		; `string'
PUBLIC	??_C@_0O@PLGAMGBI@GR?4EFT?4UP?5?$CFd?6@		; `string'
PUBLIC	??_C@_0L@MCADEBDB@GR?4SHW?5?$CFd?6@		; `string'
PUBLIC	??_C@_0L@OEOJMFCF@GR?4STT?5?$CFd?6@		; `string'
PUBLIC	??_C@_0L@CDOGKGFB@GR?4CLL?5?$CFd?6@		; `string'
PUBLIC	??_C@_0O@HPKPMDPE@GR?4BG?4SKY?5?$CFd?6@		; `string'
PUBLIC	??_C@_0O@JENIKJAN@GR?4BG?4LEN?5?$CFd?6@		; `string'
PUBLIC	??_C@_0O@HJPLNNBE@GR?4BG?4CLD?5?$CFd?6@		; `string'
PUBLIC	??_C@_0P@EJKDFAIB@GR?4BG?4MAIN?5?$CFd?6@	; `string'
PUBLIC	??_C@_0L@OOHFOBKJ@GR?4CHR?5?$CFd?6@		; `string'
PUBLIC	??_C@_0O@LENBOK@GR?4BG?4WTR?5?$CFd?6@		; `string'
PUBLIC	??_C@_0O@BIDCIJEG@GR?4BG?4EFT?5?$CFd?6@		; `string'
PUBLIC	??_C@_0L@KOHMHAGO@GR?4EFT?5?$CFd?6@		; `string'
PUBLIC	??_C@_0L@CNELLLJF@GR?4ITM?5?$CFd?6@		; `string'
PUBLIC	??_C@_0L@DIBNDLBN@GR?4FLY?5?$CFd?6@		; `string'
PUBLIC	??_C@_0O@EEAHGPFP@GR?4BG?4BLK?5?$CFd?6@		; `string'
PUBLIC	??_C@_0BF@NHIIGIH@perf_game_update?4txt@	; `string'
PUBLIC	??_C@_0BH@HPIDKEA@GU?4Total?5?$CFd?5?$CITime?5?$CFd?$CJ?6@ ; `string'
PUBLIC	??_C@_0L@JHBDHKIG@GU?4GMP?5?$CFd?6@		; `string'
PUBLIC	??_C@_0L@HCBFJPAB@GU?4SCR?5?$CFd?6@		; `string'
PUBLIC	??_C@_0L@IGEOOJOO@GU?4MPS?5?$CFd?6@		; `string'
PUBLIC	??_C@_09JGPPFKPH@GU?4BG?5?$CFd?6@		; `string'
PUBLIC	??_C@_0L@BLLECFKE@GU?4GEM?5?$CFd?6@		; `string'
PUBLIC	??_C@_0L@MKJPKNA@GU?4CHR?5?$CFd?6@		; `string'
PUBLIC	??_C@_0L@EMKAGLBH@GU?4EFT?5?$CFd?6@		; `string'
PUBLIC	??_C@_0L@NKMBCAGE@GU?4FLY?5?$CFd?6@		; `string'
PUBLIC	??_C@_0L@MPJHKAOM@GU?4ITM?5?$CFd?6@		; `string'
PUBLIC	??_C@_0L@KNCOIAL@GU?4PLR?5?$CFd?6@		; `string'
PUBLIC	??_C@_0L@PAGGCBDD@GU?4POS?5?$CFd?6@		; `string'
PUBLIC	??_C@_0BD@OJBILBDC@FrameSkip?5?$LK?$LI?A?$KE?5?$CFd?6@ ; `string'
PUBLIC	??_C@_0BA@NOHKOOIE@WARN_BAD_DRIVER@		; `string'
PUBLIC	??_C@_0M@MOGGPFAH@WARN_NO_TNL@			; `string'
PUBLIC	??_C@_0BN@OAKBEJJN@CREATE_NO_APPROPRIATE_DEVICE@ ; `string'
PUBLIC	??_C@_0CD@GGLEAAKE@CreateDevice?3?5Enum?5?$CG?5Detect?5fai@ ; `string'
PUBLIC	??_C@_0BC@NKAKBNDM@CREATE_NO_DIRECTX@		; `string'
PUBLIC	??_C@_0DK@GACPAJMM@CreateDevice?3?5DirectX?58?41?5or?5gr@ ; `string'
PUBLIC	??_C@_0O@CMPMDOEH@CREATE_DEVICE@		; `string'
PUBLIC	??_C@_0CK@KMPBIDGP@CreateDevice?3?5GraphicDevice?5cre@ ; `string'
PUBLIC	??_C@_0O@DAEHMKOB@CREATE_FORMAT@		; `string'
PUBLIC	??_C@_0CH@DEBFNBPL@CreateDevice?3?5Change?5the?5screen@ ; `string'
PUBLIC	??_C@_0BC@IMJEDJEA@GetDevCaps?5failed@		; `string'
PUBLIC	??_C@_0CA@DLHDILBB@CreateDevice?3?5GetDevCaps?5failed@ ; `string'
PUBLIC	??_C@_0BD@IHNLMMLJ@GetDevCaps2?5failed@		; `string'
PUBLIC	??_C@_0CB@JLAAEKGJ@CreateDevice?3?5GetDevCaps2?5faile@ ; `string'
PUBLIC	??_C@_0O@BAEJJDKB@UNKNOWN_ERROR@		; `string'
PUBLIC	??_C@_0BN@JAHEKIGK@CreateDevice?3?5Unknown?5Error?$CB@ ; `string'
PUBLIC	??_C@_0BB@EOELDOLA@?$CFs?1item_list?4txt@	; `string'
PUBLIC	??_C@_0O@MEMEPBB@?$CFs?1item_proto@		; `string'
PUBLIC	??_C@_0BA@BIDKFLDM@?$CFs?1itemdesc?4txt@	; `string'
PUBLIC	??_C@_0N@KCBCHIHM@?$CFs?1mob_proto@		; `string'
PUBLIC	??_C@_0BB@JDMIHPNN@?$CFs?1SkillDesc?4txt@	; `string'
PUBLIC	??_C@_0BC@NLEJCAEF@?$CFs?1SkillTable?4txt@	; `string'
PUBLIC	??_C@_0O@JEIJHCCG@?$CFs?1insult?4txt@		; `string'
PUBLIC	??_C@_0CI@MGBDCDJE@LoadLocaleData?5?9?5LoadItemList?$CI?$CF@ ; `string'
PUBLIC	??_C@_0CJ@MIFDPICO@LoadLocaleData?5?9?5LoadItemProto?$CI@ ; `string'
PUBLIC	??_C@_0CI@FLOPHKEN@LoadLocaleData?5?9?5LoadItemDesc?$CI?$CF@ ; `string'
PUBLIC	??_C@_0CI@PNCAMHEJ@LoadLocaleData?5?9?5LoadMobProto?$CI?$CF@ ; `string'
PUBLIC	??_C@_0CN@NIKOAAJF@LoadLocaleData?5?9?5RegisterSkillD@ ; `string'
PUBLIC	??_C@_0CO@HCDPLHIO@LoadLocaleData?5?9?5RegisterSkillT@ ; `string'
PUBLIC	??_C@_0DO@PNDPPMDH@CPythonApplication?5?9?5CPythonNet@ ; `string'
PUBLIC	??_C@_0O@GCNBGGIE@?$CFs?1lang?$CFd?4cvt@	; `string'
PUBLIC	??_C@_0EI@FFMLHANM@LoadLocaleData?5?9?5CPythonNetwork@ ; `string'
PUBLIC	??_C@_0BJ@DBNNLGNG@CMSWindow?3?3Create?5failed@	; `string'
PUBLIC	??_C@_0O@NOBMPFEG@CREATE_WINDOW@		; `string'
PUBLIC	??_C@_0CA@FFOMJBHN@CMSWindow?3?3Cursors?5Create?5Error@ ; `string'
PUBLIC	??_C@_0BA@GLLECKCO@?$CCCREATE_CURSOR?$CC@	; `string'
PUBLIC	??_C@_0BJ@CJEBNOLC@NetDevice?3?3Create?5failed@	; `string'
PUBLIC	??_C@_0BB@EJLMKODK@?$CCCREATE_NETWORK?$CC@	; `string'
PUBLIC	??_C@_0CD@KIIBIHOG@d?3?1ymir?5work?1special?1spheremap?4@ ; `string'
PUBLIC	??_C@_0CF@CBFEMJII@d?3?1ymir?5work?1special?1spheremap0@ ; `string'
PUBLIC	??_R4IAbstractApplication@@6B@			; IAbstractApplication::`RTTI Complete Object Locator'
PUBLIC	??_R0?AVIAbstractApplication@@@8		; IAbstractApplication `RTTI Type Descriptor'
PUBLIC	??_R3IAbstractApplication@@8			; IAbstractApplication::`RTTI Class Hierarchy Descriptor'
PUBLIC	??_R2IAbstractApplication@@8			; IAbstractApplication::`RTTI Base Class Array'
PUBLIC	??_R1A@?0A@EA@IAbstractApplication@@8		; IAbstractApplication::`RTTI Base Class Descriptor at (0,-1,0,64)'
PUBLIC	??_R1A@?0A@EA@?$TAbstractSingleton@VIAbstractApplication@@@@8 ; TAbstractSingleton<IAbstractApplication>::`RTTI Base Class Descriptor at (0,-1,0,64)'
PUBLIC	??_R0?AV?$TAbstractSingleton@VIAbstractApplication@@@@@8 ; TAbstractSingleton<IAbstractApplication> `RTTI Type Descriptor'
PUBLIC	??_R3?$TAbstractSingleton@VIAbstractApplication@@@@8 ; TAbstractSingleton<IAbstractApplication>::`RTTI Class Hierarchy Descriptor'
PUBLIC	??_R2?$TAbstractSingleton@VIAbstractApplication@@@@8 ; TAbstractSingleton<IAbstractApplication>::`RTTI Base Class Array'
PUBLIC	??_R4?$TAbstractSingleton@VIAbstractApplication@@@@6B@ ; TAbstractSingleton<IAbstractApplication>::`RTTI Complete Object Locator'
PUBLIC	??_R4CMovieMan@@6B@				; CMovieMan::`RTTI Complete Object Locator'
PUBLIC	??_R0?AVCMovieMan@@@8				; CMovieMan `RTTI Type Descriptor'
PUBLIC	??_R3CMovieMan@@8				; CMovieMan::`RTTI Class Hierarchy Descriptor'
PUBLIC	??_R2CMovieMan@@8				; CMovieMan::`RTTI Base Class Array'
PUBLIC	??_R1A@?0A@EA@CMovieMan@@8			; CMovieMan::`RTTI Base Class Descriptor at (0,-1,0,64)'
PUBLIC	??_R1A@?0A@EA@?$CSingleton@VCMovieMan@@@@8	; CSingleton<CMovieMan>::`RTTI Base Class Descriptor at (0,-1,0,64)'
PUBLIC	??_R0?AV?$CSingleton@VCMovieMan@@@@@8		; CSingleton<CMovieMan> `RTTI Type Descriptor'
PUBLIC	??_R3?$CSingleton@VCMovieMan@@@@8		; CSingleton<CMovieMan>::`RTTI Class Hierarchy Descriptor'
PUBLIC	??_R2?$CSingleton@VCMovieMan@@@@8		; CSingleton<CMovieMan>::`RTTI Base Class Array'
PUBLIC	??_R4?$CSingleton@VCMovieMan@@@@6B@		; CSingleton<CMovieMan>::`RTTI Complete Object Locator'
PUBLIC	??_R4CPythonApplication@@6BCMSApplication@@@	; CPythonApplication::`RTTI Complete Object Locator'
PUBLIC	??_R0?AVCPythonApplication@@@8			; CPythonApplication `RTTI Type Descriptor'
PUBLIC	??_R3CPythonApplication@@8			; CPythonApplication::`RTTI Class Hierarchy Descriptor'
PUBLIC	??_R2CPythonApplication@@8			; CPythonApplication::`RTTI Base Class Array'
PUBLIC	??_R1A@?0A@EA@CPythonApplication@@8		; CPythonApplication::`RTTI Base Class Descriptor at (0,-1,0,64)'
PUBLIC	??_R1A@?0A@EA@CMSApplication@@8			; CMSApplication::`RTTI Base Class Descriptor at (0,-1,0,64)'
PUBLIC	??_R0?AVCMSApplication@@@8			; CMSApplication `RTTI Type Descriptor'
PUBLIC	??_R3CMSApplication@@8				; CMSApplication::`RTTI Class Hierarchy Descriptor'
PUBLIC	??_R2CMSApplication@@8				; CMSApplication::`RTTI Base Class Array'
PUBLIC	??_R1A@?0A@EA@CMSWindow@@8			; CMSWindow::`RTTI Base Class Descriptor at (0,-1,0,64)'
PUBLIC	??_R0?AVCMSWindow@@@8				; CMSWindow `RTTI Type Descriptor'
PUBLIC	??_R3CMSWindow@@8				; CMSWindow::`RTTI Class Hierarchy Descriptor'
PUBLIC	??_R2CMSWindow@@8				; CMSWindow::`RTTI Base Class Array'
PUBLIC	??_R1BM@?0A@EA@CInputKeyboard@@8		; CInputKeyboard::`RTTI Base Class Descriptor at (28,-1,0,64)'
PUBLIC	??_R0?AVCInputKeyboard@@@8			; CInputKeyboard `RTTI Type Descriptor'
PUBLIC	??_R3CInputKeyboard@@8				; CInputKeyboard::`RTTI Class Hierarchy Descriptor'
PUBLIC	??_R2CInputKeyboard@@8				; CInputKeyboard::`RTTI Base Class Array'
PUBLIC	??_R1A@?0A@EA@CInputKeyboard@@8			; CInputKeyboard::`RTTI Base Class Descriptor at (0,-1,0,64)'
PUBLIC	??_R1A@?0A@EA@CInputDevice@@8			; CInputDevice::`RTTI Base Class Descriptor at (0,-1,0,64)'
PUBLIC	??_R0?AVCInputDevice@@@8			; CInputDevice `RTTI Type Descriptor'
PUBLIC	??_R3CInputDevice@@8				; CInputDevice::`RTTI Class Hierarchy Descriptor'
PUBLIC	??_R2CInputDevice@@8				; CInputDevice::`RTTI Base Class Array'
PUBLIC	??_R1BM@?0A@EA@CInputDevice@@8			; CInputDevice::`RTTI Base Class Descriptor at (28,-1,0,64)'
PUBLIC	??_R1CA@?0A@EA@IAbstractApplication@@8		; IAbstractApplication::`RTTI Base Class Descriptor at (32,-1,0,64)'
PUBLIC	??_R1CA@?0A@EA@?$TAbstractSingleton@VIAbstractApplication@@@@8 ; TAbstractSingleton<IAbstractApplication>::`RTTI Base Class Descriptor at (32,-1,0,64)'
PUBLIC	??_R4CPythonApplication@@6BCInputKeyboard@@@	; CPythonApplication::`RTTI Complete Object Locator'
PUBLIC	??_R4CPythonApplication@@6BIAbstractApplication@@@ ; CPythonApplication::`RTTI Complete Object Locator'
PUBLIC	__real@3e99999a
PUBLIC	__real@3f000000
PUBLIC	__real@404e000000000000
PUBLIC	__real@40a00000
PUBLIC	__real@41800000
PUBLIC	__real@41f00000
PUBLIC	__real@42c70000
PUBLIC	__real@42c76666
PUBLIC	__real@42c80000
PUBLIC	__real@447a0000
PUBLIC	__real@46c80000
PUBLIC	__xmm@41f00000000000000000000000000000
PUBLIC	__xmm@80000000800000008000000080000000
EXTRN	__purecall:PROC
EXTRN	??2@YAPAXI@Z:PROC				; operator new
EXTRN	??3@YAXPAX@Z:PROC				; operator delete
EXTRN	??3@YAXPAXI@Z:PROC				; operator delete
EXTRN	_atexit:PROC
EXTRN	__Init_thread_header:PROC
EXTRN	__Init_thread_abort:PROC
EXTRN	__Init_thread_footer:PROC
EXTRN	__invalid_parameter_noinfo_noreturn:PROC
EXTRN	__imp__Sleep@4:PROC
EXTRN	__imp__PostQuitMessage@4:PROC
EXTRN	__imp__SetWindowPos@28:PROC
EXTRN	__imp__GetAsyncKeyState@4:PROC
EXTRN	__imp__GetCursorPos@4:PROC
EXTRN	__imp__ScreenToClient@8:PROC
EXTRN	__imp__FindWindowA@8:PROC
EXTRN	__imp__LoadIconA@8:PROC
EXTRN	__imp__SystemParametersInfoA@16:PROC
EXTRN	__imp__CoUninitialize@0:PROC
EXTRN	__imp__CoInitialize@4:PROC
EXTRN	___acrt_iob_func:PROC
EXTRN	_fflush:PROC
EXTRN	_fopen:PROC
EXTRN	___stdio_common_vfprintf:PROC
EXTRN	___stdio_common_vsprintf:PROC
EXTRN	__time32:PROC
EXTRN	___std_exception_copy:PROC
EXTRN	___std_exception_destroy:PROC
EXTRN	??_Eexception@std@@UAEPAXI@Z:PROC		; std::exception::`vector deleting destructor'
EXTRN	??_Ebad_alloc@std@@UAEPAXI@Z:PROC		; std::bad_alloc::`vector deleting destructor'
EXTRN	??_Ebad_array_new_length@std@@UAEPAXI@Z:PROC	; std::bad_array_new_length::`vector deleting destructor'
EXTRN	?_Xlength_error@std@@YAXPBD@Z:PROC		; std::_Xlength_error
EXTRN	?Tracenf@@YAXPBDZZ:PROC				; Tracenf
EXTRN	?TraceError@@YAXPBDZZ:PROC			; TraceError
EXTRN	?fMAX@@YAMMM@Z:PROC				; fMAX
EXTRN	__imp__PyErr_SetString:PROC
EXTRN	??0CTimer@@QAE@XZ:PROC				; CTimer::CTimer
EXTRN	??1CTimer@@UAE@XZ:PROC				; CTimer::~CTimer
EXTRN	?Advance@CTimer@@QAEXXZ:PROC			; CTimer::Advance
EXTRN	?Adjust@CTimer@@QAEXH@Z:PROC			; CTimer::Adjust
EXTRN	?GetCurrentSecond@CTimer@@QAEMXZ:PROC		; CTimer::GetCurrentSecond
EXTRN	?GetElapsedSecond@CTimer@@QAEMXZ:PROC		; CTimer::GetElapsedSecond
EXTRN	?GetElapsedMilliecond@CTimer@@QAEKXZ:PROC	; CTimer::GetElapsedMilliecond
EXTRN	?UseCustomTime@CTimer@@QAEXXZ:PROC		; CTimer::UseCustomTime
EXTRN	?ELTimer_GetMSec@@YAKXZ:PROC			; ELTimer_GetMSec
EXTRN	?ELTimer_SetFrameMSec@@YAXXZ:PROC		; ELTimer_SetFrameMSec
EXTRN	?DestroySystem@CTextFileLoader@@SAXXZ:PROC	; CTextFileLoader::DestroySystem
EXTRN	?Update@CResourceManager@@QAEXXZ:PROC		; CResourceManager::Update
EXTRN	??0CPythonResource@@QAE@XZ:PROC			; CPythonResource::CPythonResource
EXTRN	??1CPythonResource@@UAE@XZ:PROC			; CPythonResource::~CPythonResource
EXTRN	?Destroy@CPythonResource@@QAEXXZ:PROC		; CPythonResource::Destroy
EXTRN	?SetPerspective@CGraphicBase@@QAEXMMMM@Z:PROC	; CGraphicBase::SetPerspective
EXTRN	?GetFaceCount@CGraphicBase@@QAEKXZ:PROC		; CGraphicBase::GetFaceCount
EXTRN	?ResetFaceCount@CGraphicBase@@QAEXXZ:PROC	; CGraphicBase::ResetFaceCount
EXTRN	?IsFastTNL@CGraphicBase@@SA_NXZ:PROC		; CGraphicBase::IsFastTNL
EXTRN	?Hyperlink_UpdateMousePos@CGraphicTextInstance@@SAXHH@Z:PROC ; CGraphicTextInstance::Hyperlink_UpdateMousePos
EXTRN	?CreateSystem@CGraphicImageInstance@@SAXI@Z:PROC ; CGraphicImageInstance::CreateSystem
EXTRN	?DestroySystem@CGraphicImageInstance@@SAXXZ:PROC ; CGraphicImageInstance::DestroySystem
EXTRN	??0CScreen@@QAE@XZ:PROC				; CScreen::CScreen
EXTRN	??1CScreen@@UAE@XZ:PROC				; CScreen::~CScreen
EXTRN	?ClearDepthBuffer@CScreen@@QAEXXZ:PROC		; CScreen::ClearDepthBuffer
EXTRN	?Begin@CScreen@@QAE_NXZ:PROC			; CScreen::Begin
EXTRN	?End@CScreen@@QAEXXZ:PROC			; CScreen::End
EXTRN	?Show@CScreen@@QAEXPAUHWND__@@@Z:PROC		; CScreen::Show
EXTRN	?IsLostDevice@CScreen@@QAEHXZ:PROC		; CScreen::IsLostDevice
EXTRN	?RestoreDevice@CScreen@@QAEHXZ:PROC		; CScreen::RestoreDevice
EXTRN	?BuildViewFrustum@CScreen@@QAEXXZ:PROC		; CScreen::BuildViewFrustum
EXTRN	?Update@CCullingManager@@QAEXXZ:PROC		; CCullingManager::Update
EXTRN	?Process@CCullingManager@@QAEXXZ:PROC		; CCullingManager::Process
EXTRN	?DestroyCollisionInstanceSystem@@YAXXZ:PROC	; DestroyCollisionInstanceSystem
EXTRN	?DestroySystem@CAttributeInstance@@SAXXZ:PROC	; CAttributeInstance::DestroySystem
EXTRN	?CreateSphereMap@CGrannyMaterial@@SAXIPBD@Z:PROC ; CGrannyMaterial::CreateSphereMap
EXTRN	?DestroySphereMap@CGrannyMaterial@@SAXXZ:PROC	; CGrannyMaterial::DestroySphereMap
EXTRN	?TranslateSpecularMatrix@CGrannyMaterial@@SAXMMM@Z:PROC ; CGrannyMaterial::TranslateSpecularMatrix
EXTRN	?DestroySystem@CGrannyModelInstance@@SAXXZ:PROC	; CGrannyModelInstance::DestroySystem
EXTRN	?SetMinLODMode@CGrannyLODController@@SAX_N@Z:PROC ; CGrannyLODController::SetMinLODMode
EXTRN	??0CPythonGraphic@@QAE@XZ:PROC			; CPythonGraphic::CPythonGraphic
EXTRN	??1CPythonGraphic@@UAE@XZ:PROC			; CPythonGraphic::~CPythonGraphic
EXTRN	?Destroy@CPythonGraphic@@QAEXXZ:PROC		; CPythonGraphic::Destroy
EXTRN	?PushState@CPythonGraphic@@QAEXXZ:PROC		; CPythonGraphic::PushState
EXTRN	?SetInterfaceRenderState@CPythonGraphic@@QAEXXZ:PROC ; CPythonGraphic::SetInterfaceRenderState
EXTRN	?SetGameRenderState@CPythonGraphic@@QAEXXZ:PROC	; CPythonGraphic::SetGameRenderState
EXTRN	?SetCursorPosition@CPythonGraphic@@QAEXHH@Z:PROC ; CPythonGraphic::SetCursorPosition
EXTRN	??0CWindowManager@UI@@QAE@XZ:PROC		; UI::CWindowManager::CWindowManager
EXTRN	??1CWindowManager@UI@@UAE@XZ:PROC		; UI::CWindowManager::~CWindowManager
EXTRN	?Destroy@CWindowManager@UI@@QAEXXZ:PROC		; UI::CWindowManager::Destroy
EXTRN	?GetAspect@CWindowManager@UI@@QAEMXZ:PROC	; UI::CWindowManager::GetAspect
EXTRN	?GetMousePosition@CWindowManager@UI@@QAEXAAJ0@Z:PROC ; UI::CWindowManager::GetMousePosition
EXTRN	??0CSoundManager@@QAE@XZ:PROC			; CSoundManager::CSoundManager
EXTRN	??1CSoundManager@@UAE@XZ:PROC			; CSoundManager::~CSoundManager
EXTRN	?Create@CSoundManager@@QAEHXZ:PROC		; CSoundManager::Create
EXTRN	?Destroy@CSoundManager@@QAEXXZ:PROC		; CSoundManager::Destroy
EXTRN	?LocaleService_IsYMIR@@YA_NXZ:PROC		; LocaleService_IsYMIR
EXTRN	?LocaleService_IsEUROPE@@YA_NXZ:PROC		; LocaleService_IsEUROPE
EXTRN	?DefaultFont_Startup@@YAXXZ:PROC		; DefaultFont_Startup
EXTRN	?DefaultFont_Cleanup@@YAXXZ:PROC		; DefaultFont_Cleanup
EXTRN	?ApplicationStringTable_GetStringz@@YAPBDKPBD@Z:PROC ; ApplicationStringTable_GetStringz
EXTRN	?SetEterExceptionHandler@@YAXXZ:PROC		; SetEterExceptionHandler
EXTRN	?AddCamera@CCameraManager@@QAE_NE@Z:PROC	; CCameraManager::AddCamera
EXTRN	_WebBrowser_Destroy:PROC
EXTRN	?Destroy@CMSWindow@@QAEXXZ:PROC			; CMSWindow::Destroy
EXTRN	?Create@CMSWindow@@QAE_NPBDHKKPAUHICON__@@H@Z:PROC ; CMSWindow::Create
EXTRN	?SetVisibleMode@CMSWindow@@QAEX_N@Z:PROC	; CMSWindow::SetVisibleMode
EXTRN	?SetPosition@CMSWindow@@QAEXHH@Z:PROC		; CMSWindow::SetPosition
EXTRN	?AdjustSize@CMSWindow@@QAEXHH@Z:PROC		; CMSWindow::AdjustSize
EXTRN	?IsActive@CMSWindow@@QAE_NXZ:PROC		; CMSWindow::IsActive
EXTRN	?GetMousePosition@CMSWindow@@QAEXPAUtagPOINT@@@Z:PROC ; CMSWindow::GetMousePosition
EXTRN	?GetClientRect@CMSWindow@@QAEXPAUtagRECT@@@Z:PROC ; CMSWindow::GetClientRect
EXTRN	?GetScreenWidth@CMSWindow@@QAEHXZ:PROC		; CMSWindow::GetScreenWidth
EXTRN	?GetScreenHeight@CMSWindow@@QAEHXZ:PROC		; CMSWindow::GetScreenHeight
EXTRN	?GetWindowHandle@CMSWindow@@QAEPAUHWND__@@XZ:PROC ; CMSWindow::GetWindowHandle
EXTRN	?GetInstance@CMSWindow@@QAEPAUHINSTANCE__@@XZ:PROC ; CMSWindow::GetInstance
EXTRN	?OnSize@CMSWindow@@UAEXIJ@Z:PROC		; CMSWindow::OnSize
EXTRN	??0CMSApplication@@QAE@XZ:PROC			; CMSApplication::CMSApplication
EXTRN	??1CMSApplication@@UAE@XZ:PROC			; CMSApplication::~CMSApplication
EXTRN	?IsMessage@CMSApplication@@QAE_NXZ:PROC		; CMSApplication::IsMessage
EXTRN	?MessageProcess@CMSApplication@@QAE_NXZ:PROC	; CMSApplication::MessageProcess
EXTRN	??0CInputKeyboard@@QAE@XZ:PROC			; CInputKeyboard::CInputKeyboard
EXTRN	??1CInputKeyboard@@UAE@XZ:PROC			; CInputKeyboard::~CInputKeyboard
EXTRN	?InitializeKeyboard@CInputKeyboard@@QAE_NPAUHWND__@@@Z:PROC ; CInputKeyboard::InitializeKeyboard
EXTRN	?UpdateKeyboard@CInputKeyboard@@QAEXXZ:PROC	; CInputKeyboard::UpdateKeyboard
EXTRN	?SetRenderState@CStateManager@@QAEXW4_D3DRENDERSTATETYPE@@K@Z:PROC ; CStateManager::SetRenderState
EXTRN	??0CGraphicDevice@@QAE@XZ:PROC			; CGraphicDevice::CGraphicDevice
EXTRN	??1CGraphicDevice@@UAE@XZ:PROC			; CGraphicDevice::~CGraphicDevice
EXTRN	?InitBackBufferCount@CGraphicDevice@@QAEXI@Z:PROC ; CGraphicDevice::InitBackBufferCount
EXTRN	?Destroy@CGraphicDevice@@QAEXXZ:PROC		; CGraphicDevice::Destroy
EXTRN	?Create@CGraphicDevice@@QAEHPAUHWND__@@HH_NHH@Z:PROC ; CGraphicDevice::Create
EXTRN	?GetDeviceState@CGraphicDevice@@QAE?AW4EDeviceState@1@XZ:PROC ; CGraphicDevice::GetDeviceState
EXTRN	?Reset@CGraphicDevice@@QAE_NXZ:PROC		; CGraphicDevice::Reset
EXTRN	?RegisterWarningString@CGraphicDevice@@QAEXIPBD@Z:PROC ; CGraphicDevice::RegisterWarningString
EXTRN	??0CNetworkDevice@@QAE@XZ:PROC			; CNetworkDevice::CNetworkDevice
EXTRN	??1CNetworkDevice@@UAE@XZ:PROC			; CNetworkDevice::~CNetworkDevice
EXTRN	?Create@CNetworkDevice@@QAE_NXZ:PROC		; CNetworkDevice::Create
EXTRN	??0CLightManager@@QAE@XZ:PROC			; CLightManager::CLightManager
EXTRN	??1CLightManager@@UAE@XZ:PROC			; CLightManager::~CLightManager
EXTRN	?Destroy@CLightManager@@QAEXXZ:PROC		; CLightManager::Destroy
EXTRN	?Initialize@CLightManager@@QAEXXZ:PROC		; CLightManager::Initialize
EXTRN	??0CEffectManager@@QAE@XZ:PROC			; CEffectManager::CEffectManager
EXTRN	??1CEffectManager@@UAE@XZ:PROC			; CEffectManager::~CEffectManager
EXTRN	?Destroy@CEffectManager@@QAEXXZ:PROC		; CEffectManager::Destroy
EXTRN	?UpdateSound@CEffectManager@@QAEXXZ:PROC	; CEffectManager::UpdateSound
EXTRN	?Update@CEffectManager@@QAEXXZ:PROC		; CEffectManager::Update
EXTRN	?Render@CEffectManager@@QAEXXZ:PROC		; CEffectManager::Render
EXTRN	?GetInfo@CEffectManager@@QAEXPAV?$basic_string@DU?$char_traits@D@std@@V?$allocator@D@2@@std@@@Z:PROC ; CEffectManager::GetInfo
EXTRN	??0CRaceManager@@QAE@XZ:PROC			; CRaceManager::CRaceManager
EXTRN	??1CRaceManager@@UAE@XZ:PROC			; CRaceManager::~CRaceManager
EXTRN	?Destroy@CRaceManager@@QAEXXZ:PROC		; CRaceManager::Destroy
EXTRN	??0CItemManager@@QAE@XZ:PROC			; CItemManager::CItemManager
EXTRN	??1CItemManager@@UAE@XZ:PROC			; CItemManager::~CItemManager
EXTRN	?Destroy@CItemManager@@QAEXXZ:PROC		; CItemManager::Destroy
EXTRN	?LoadItemDesc@CItemManager@@QAE_NPBD@Z:PROC	; CItemManager::LoadItemDesc
EXTRN	?LoadItemList@CItemManager@@QAE_NPBD@Z:PROC	; CItemManager::LoadItemList
EXTRN	?LoadItemTable@CItemManager@@QAE_NPBD@Z:PROC	; CItemManager::LoadItemTable
EXTRN	??0CFlyingManager@@QAE@XZ:PROC			; CFlyingManager::CFlyingManager
EXTRN	??1CFlyingManager@@UAE@XZ:PROC			; CFlyingManager::~CFlyingManager
EXTRN	?Destroy@CFlyingManager@@QAEXXZ:PROC		; CFlyingManager::Destroy
EXTRN	?Update@CFlyingManager@@QAEXXZ:PROC		; CFlyingManager::Update
EXTRN	?Render@CFlyingManager@@QAEXXZ:PROC		; CFlyingManager::Render
EXTRN	??0CGameEventManager@@QAE@XZ:PROC		; CGameEventManager::CGameEventManager
EXTRN	??1CGameEventManager@@UAE@XZ:PROC		; CGameEventManager::~CGameEventManager
EXTRN	?SetCenterPosition@CGameEventManager@@QAEXMMM@Z:PROC ; CGameEventManager::SetCenterPosition
EXTRN	?Update@CGameEventManager@@QAEXXZ:PROC		; CGameEventManager::Update
EXTRN	??0CPythonEventManager@@QAE@XZ:PROC		; CPythonEventManager::CPythonEventManager
EXTRN	??1CPythonEventManager@@UAE@XZ:PROC		; CPythonEventManager::~CPythonEventManager
EXTRN	?Destroy@CPythonEventManager@@QAEXXZ:PROC	; CPythonEventManager::Destroy
EXTRN	??0CPythonSkill@@QAE@XZ:PROC			; CPythonSkill::CPythonSkill
EXTRN	??1CPythonSkill@@UAE@XZ:PROC			; CPythonSkill::~CPythonSkill
EXTRN	?Destroy@CPythonSkill@@QAEXXZ:PROC		; CPythonSkill::Destroy
EXTRN	?RegisterSkillTable@CPythonSkill@@QAE_NPBD@Z:PROC ; CPythonSkill::RegisterSkillTable
EXTRN	?RegisterSkillDesc@CPythonSkill@@QAE_NPBD@Z:PROC ; CPythonSkill::RegisterSkillDesc
EXTRN	??0CPythonPlayer@@QAE@XZ:PROC			; CPythonPlayer::CPythonPlayer
EXTRN	??1CPythonPlayer@@UAE@XZ:PROC			; CPythonPlayer::~CPythonPlayer
EXTRN	?NEW_GetMainActorPosition@CPythonPlayer@@QAEXPAUD3DXVECTOR3@@@Z:PROC ; CPythonPlayer::NEW_GetMainActorPosition
EXTRN	?Update@CPythonPlayer@@QAEXXZ:PROC		; CPythonPlayer::Update
EXTRN	??0CPythonNonPlayer@@QAE@XZ:PROC		; CPythonNonPlayer::CPythonNonPlayer
EXTRN	??1CPythonNonPlayer@@UAE@XZ:PROC		; CPythonNonPlayer::~CPythonNonPlayer
EXTRN	?Destroy@CPythonNonPlayer@@QAEXXZ:PROC		; CPythonNonPlayer::Destroy
EXTRN	?LoadNonPlayerData@CPythonNonPlayer@@QAE_NPBD@Z:PROC ; CPythonNonPlayer::LoadNonPlayerData
EXTRN	?ReserveSoftwareTilingEnable@CMapManager@@QAEX_N@Z:PROC ; CMapManager::ReserveSoftwareTilingEnable
EXTRN	?GetHeight@CMapManager@@QAEMMM@Z:PROC		; CMapManager::GetHeight
EXTRN	?BeginEnvironment@CMapManager@@QAEXXZ:PROC	; CMapManager::BeginEnvironment
EXTRN	?EndEnvironment@CMapManager@@QAEXXZ:PROC	; CMapManager::EndEnvironment
EXTRN	??0CPythonBackground@@QAE@XZ:PROC		; CPythonBackground::CPythonBackground
EXTRN	??1CPythonBackground@@UAE@XZ:PROC		; CPythonBackground::~CPythonBackground
EXTRN	?Destroy@CPythonBackground@@QAEXXZ:PROC		; CPythonBackground::Destroy
EXTRN	?GlobalPositionToLocalPosition@CPythonBackground@@QAEXAAJ0@Z:PROC ; CPythonBackground::GlobalPositionToLocalPosition
EXTRN	?SetViewDistanceSet@CPythonBackground@@QAEXHM@Z:PROC ; CPythonBackground::SetViewDistanceSet
EXTRN	?GetFarClip@CPythonBackground@@QAEMXZ:PROC	; CPythonBackground::GetFarClip
EXTRN	?Update@CPythonBackground@@QAEXMMM@Z:PROC	; CPythonBackground::Update
EXTRN	?CreateCharacterShadowTexture@CPythonBackground@@QAEXXZ:PROC ; CPythonBackground::CreateCharacterShadowTexture
EXTRN	?ReleaseCharacterShadowTexture@CPythonBackground@@QAEXXZ:PROC ; CPythonBackground::ReleaseCharacterShadowTexture
EXTRN	?Render@CPythonBackground@@QAEXXZ:PROC		; CPythonBackground::Render
EXTRN	?RenderSnow@CPythonBackground@@QAEXXZ:PROC	; CPythonBackground::RenderSnow
EXTRN	?RenderPCBlocker@CPythonBackground@@QAEXXZ:PROC	; CPythonBackground::RenderPCBlocker
EXTRN	?RenderCharacterShadowToTexture@CPythonBackground@@QAEXXZ:PROC ; CPythonBackground::RenderCharacterShadowToTexture
EXTRN	?RenderSky@CPythonBackground@@QAEXXZ:PROC	; CPythonBackground::RenderSky
EXTRN	?RenderCloud@CPythonBackground@@QAEXXZ:PROC	; CPythonBackground::RenderCloud
EXTRN	?RenderWater@CPythonBackground@@QAEXXZ:PROC	; CPythonBackground::RenderWater
EXTRN	?RenderEffect@CPythonBackground@@QAEXXZ:PROC	; CPythonBackground::RenderEffect
EXTRN	?RenderBeforeLensFlare@CPythonBackground@@QAEXXZ:PROC ; CPythonBackground::RenderBeforeLensFlare
EXTRN	?RenderAfterLensFlare@CPythonBackground@@QAEXXZ:PROC ; CPythonBackground::RenderAfterLensFlare
EXTRN	?SetCharacterDirLight@CPythonBackground@@QAEXXZ:PROC ; CPythonBackground::SetCharacterDirLight
EXTRN	?SetBackgroundDirLight@CPythonBackground@@QAEXXZ:PROC ; CPythonBackground::SetBackgroundDirLight
EXTRN	??0CPythonMiniMap@@QAE@XZ:PROC			; CPythonMiniMap::CPythonMiniMap
EXTRN	??1CPythonMiniMap@@UAE@XZ:PROC			; CPythonMiniMap::~CPythonMiniMap
EXTRN	?Destroy@CPythonMiniMap@@QAEXXZ:PROC		; CPythonMiniMap::Destroy
EXTRN	?SetText@CIME@@QAEXPBDH@Z:PROC			; CIME::SetText
EXTRN	?UseDefaultIME@CIME@@QAEXXZ:PROC		; CIME::UseDefaultIME
EXTRN	??0CPythonIME@@QAE@XZ:PROC			; CPythonIME::CPythonIME
EXTRN	??1CPythonIME@@UAE@XZ:PROC			; CPythonIME::~CPythonIME
EXTRN	?Create@CPythonIME@@QAEXPAUHWND__@@@Z:PROC	; CPythonIME::Create
EXTRN	??0CPythonItem@@QAE@XZ:PROC			; CPythonItem::CPythonItem
EXTRN	??1CPythonItem@@UAE@XZ:PROC			; CPythonItem::~CPythonItem
EXTRN	?Destroy@CPythonItem@@QAEXXZ:PROC		; CPythonItem::Destroy
EXTRN	?Create@CPythonItem@@QAEXXZ:PROC		; CPythonItem::Create
EXTRN	?GetInfo@CPythonItem@@QAEXPAV?$basic_string@DU?$char_traits@D@std@@V?$allocator@D@2@@std@@@Z:PROC ; CPythonItem::GetInfo
EXTRN	?Render@CPythonItem@@QAEXXZ:PROC		; CPythonItem::Render
EXTRN	?Update@CPythonItem@@QAEXABUtagPOINT@@@Z:PROC	; CPythonItem::Update
EXTRN	??0CPythonShop@@QAE@XZ:PROC			; CPythonShop::CPythonShop
EXTRN	??1CPythonShop@@UAE@XZ:PROC			; CPythonShop::~CPythonShop
EXTRN	??0CPythonExchange@@QAE@XZ:PROC			; CPythonExchange::CPythonExchange
EXTRN	??1CPythonExchange@@UAE@XZ:PROC			; CPythonExchange::~CPythonExchange
EXTRN	??0CPythonChat@@QAE@XZ:PROC			; CPythonChat::CPythonChat
EXTRN	??1CPythonChat@@UAE@XZ:PROC			; CPythonChat::~CPythonChat
EXTRN	?Destroy@CPythonChat@@QAEXXZ:PROC		; CPythonChat::Destroy
EXTRN	??0CPythonTextTail@@QAE@XZ:PROC			; CPythonTextTail::CPythonTextTail
EXTRN	??1CPythonTextTail@@UAE@XZ:PROC			; CPythonTextTail::~CPythonTextTail
EXTRN	?GetInfo@CPythonTextTail@@QAEXPAV?$basic_string@DU?$char_traits@D@std@@V?$allocator@D@2@@std@@@Z:PROC ; CPythonTextTail::GetInfo
EXTRN	?Initialize@CPythonTextTail@@QAEXXZ:PROC	; CPythonTextTail::Initialize
EXTRN	?Destroy@CPythonTextTail@@QAEXXZ:PROC		; CPythonTextTail::Destroy
EXTRN	??0CPythonSystem@@QAE@XZ:PROC			; CPythonSystem::CPythonSystem
EXTRN	??1CPythonSystem@@UAE@XZ:PROC			; CPythonSystem::~CPythonSystem
EXTRN	?Clear@CPythonSystem@@QAEXXZ:PROC		; CPythonSystem::Clear
EXTRN	?SaveConfig@CPythonSystem@@QAE_NXZ:PROC		; CPythonSystem::SaveConfig
EXTRN	?SaveInterfaceStatus@CPythonSystem@@QAEXXZ:PROC	; CPythonSystem::SaveInterfaceStatus
EXTRN	?GetWidth@CPythonSystem@@QAEKXZ:PROC		; CPythonSystem::GetWidth
EXTRN	?GetHeight@CPythonSystem@@QAEKXZ:PROC		; CPythonSystem::GetHeight
EXTRN	?GetBPP@CPythonSystem@@QAEKXZ:PROC		; CPythonSystem::GetBPP
EXTRN	?GetFrequency@CPythonSystem@@QAEKXZ:PROC	; CPythonSystem::GetFrequency
EXTRN	?IsSoftwareCursor@CPythonSystem@@QAE_NXZ:PROC	; CPythonSystem::IsSoftwareCursor
EXTRN	?IsWindowed@CPythonSystem@@QAE_NXZ:PROC		; CPythonSystem::IsWindowed
EXTRN	?IsUseDefaultIME@CPythonSystem@@QAE_NXZ:PROC	; CPythonSystem::IsUseDefaultIME
EXTRN	?IsNoSoundCard@CPythonSystem@@QAE_NXZ:PROC	; CPythonSystem::IsNoSoundCard
EXTRN	?IsAutoTiling@CPythonSystem@@QAE_NXZ:PROC	; CPythonSystem::IsAutoTiling
EXTRN	?IsSoftwareTiling@CPythonSystem@@QAE_NXZ:PROC	; CPythonSystem::IsSoftwareTiling
EXTRN	?GetDisplaySettings@CPythonSystem@@QAEXXZ:PROC	; CPythonSystem::GetDisplaySettings
EXTRN	?Process@CNetworkStream@@QAEXXZ:PROC		; CNetworkStream::Process
EXTRN	?Disconnect@CNetworkStream@@QAEXXZ:PROC		; CNetworkStream::Disconnect
EXTRN	??0CPythonNetworkStream@@QAE@XZ:PROC		; CPythonNetworkStream::CPythonNetworkStream
EXTRN	??1CPythonNetworkStream@@UAE@XZ:PROC		; CPythonNetworkStream::~CPythonNetworkStream
EXTRN	?NotifyHack@CPythonNetworkStream@@QAEXPBD@Z:PROC ; CPythonNetworkStream::NotifyHack
EXTRN	?LoadInsultList@CPythonNetworkStream@@QAE_NPBD@Z:PROC ; CPythonNetworkStream::LoadInsultList
EXTRN	?LoadConvertTable@CPythonNetworkStream@@QAE_NKPBD@Z:PROC ; CPythonNetworkStream::LoadConvertTable
EXTRN	??0CPythonCharacterManager@@QAE@XZ:PROC		; CPythonCharacterManager::CPythonCharacterManager
EXTRN	??1CPythonCharacterManager@@UAE@XZ:PROC		; CPythonCharacterManager::~CPythonCharacterManager
EXTRN	?GetInfo@CPythonCharacterManager@@QAEXPAV?$basic_string@DU?$char_traits@D@std@@V?$allocator@D@2@@std@@@Z:PROC ; CPythonCharacterManager::GetInfo
EXTRN	?Update@CPythonCharacterManager@@QAEXXZ:PROC	; CPythonCharacterManager::Update
EXTRN	?Deform@CPythonCharacterManager@@QAEXXZ:PROC	; CPythonCharacterManager::Deform
EXTRN	?Render@CPythonCharacterManager@@QAEXXZ:PROC	; CPythonCharacterManager::Render
EXTRN	??0CPythonQuest@@QAE@XZ:PROC			; CPythonQuest::CPythonQuest
EXTRN	??1CPythonQuest@@UAE@XZ:PROC			; CPythonQuest::~CPythonQuest
EXTRN	??0CPythonMessenger@@QAE@XZ:PROC		; CPythonMessenger::CPythonMessenger
EXTRN	??1CPythonMessenger@@UAE@XZ:PROC		; CPythonMessenger::~CPythonMessenger
EXTRN	??0CPythonSafeBox@@QAE@XZ:PROC			; CPythonSafeBox::CPythonSafeBox
EXTRN	??1CPythonSafeBox@@UAE@XZ:PROC			; CPythonSafeBox::~CPythonSafeBox
EXTRN	??0CPythonGuild@@QAE@XZ:PROC			; CPythonGuild::CPythonGuild
EXTRN	??1CPythonGuild@@UAE@XZ:PROC			; CPythonGuild::~CPythonGuild
EXTRN	??0CGuildMarkManager@@QAE@XZ:PROC		; CGuildMarkManager::CGuildMarkManager
EXTRN	??1CGuildMarkManager@@UAE@XZ:PROC		; CGuildMarkManager::~CGuildMarkManager
EXTRN	??0CGuildMarkDownloader@@QAE@XZ:PROC		; CGuildMarkDownloader::CGuildMarkDownloader
EXTRN	??1CGuildMarkDownloader@@UAE@XZ:PROC		; CGuildMarkDownloader::~CGuildMarkDownloader
EXTRN	?Process@CGuildMarkDownloader@@QAEXXZ:PROC	; CGuildMarkDownloader::Process
EXTRN	??0CGuildMarkUploader@@QAE@XZ:PROC		; CGuildMarkUploader::CGuildMarkUploader
EXTRN	??1CGuildMarkUploader@@UAE@XZ:PROC		; CGuildMarkUploader::~CGuildMarkUploader
EXTRN	?Process@CGuildMarkUploader@@QAEXXZ:PROC	; CGuildMarkUploader::Process
EXTRN	??0CAccountConnector@@QAE@XZ:PROC		; CAccountConnector::CAccountConnector
EXTRN	??1CAccountConnector@@UAE@XZ:PROC		; CAccountConnector::~CAccountConnector
EXTRN	?Process@CAccountConnector@@QAEXXZ:PROC		; CAccountConnector::Process
EXTRN	??0CServerStateChecker@@QAE@XZ:PROC		; CServerStateChecker::CServerStateChecker
EXTRN	??1CServerStateChecker@@UAE@XZ:PROC		; CServerStateChecker::~CServerStateChecker
EXTRN	??_E?$TAbstractSingleton@VIAbstractApplication@@@@UAEPAXI@Z:PROC ; TAbstractSingleton<IAbstractApplication>::`vector deleting destructor'
EXTRN	??_EIAbstractApplication@@UAEPAXI@Z:PROC	; IAbstractApplication::`vector deleting destructor'
EXTRN	??_E?$CSingleton@VCMovieMan@@@@UAEPAXI@Z:PROC	; CSingleton<CMovieMan>::`vector deleting destructor'
EXTRN	??_ECMovieMan@@UAEPAXI@Z:PROC			; CMovieMan::`vector deleting destructor'
EXTRN	?CreateCursors@CPythonApplication@@QAE_NXZ:PROC	; CPythonApplication::CreateCursors
EXTRN	?DestroyCursors@CPythonApplication@@QAEXXZ:PROC	; CPythonApplication::DestroyCursors
EXTRN	?SetCursorMode@CPythonApplication@@QAEXH@Z:PROC	; CPythonApplication::SetCursorMode
EXTRN	?RunIMEUpdate@CPythonApplication@@UAEXXZ:PROC	; CPythonApplication::RunIMEUpdate
EXTRN	?RunIMETabEvent@CPythonApplication@@UAEXXZ:PROC	; CPythonApplication::RunIMETabEvent
EXTRN	?RunIMEReturnEvent@CPythonApplication@@UAEXXZ:PROC ; CPythonApplication::RunIMEReturnEvent
EXTRN	?RunIMEChangeCodePage@CPythonApplication@@UAEXXZ:PROC ; CPythonApplication::RunIMEChangeCodePage
EXTRN	?RunIMEOpenCandidateListEvent@CPythonApplication@@UAEXXZ:PROC ; CPythonApplication::RunIMEOpenCandidateListEvent
EXTRN	?RunIMECloseCandidateListEvent@CPythonApplication@@UAEXXZ:PROC ; CPythonApplication::RunIMECloseCandidateListEvent
EXTRN	?RunIMEOpenReadingWndEvent@CPythonApplication@@UAEXXZ:PROC ; CPythonApplication::RunIMEOpenReadingWndEvent
EXTRN	?RunIMECloseReadingWndEvent@CPythonApplication@@UAEXXZ:PROC ; CPythonApplication::RunIMECloseReadingWndEvent
EXTRN	?SetEventCamera@CPythonApplication@@UAEXABUSCameraSetting@IAbstractApplication@@@Z:PROC ; CPythonApplication::SetEventCamera
EXTRN	?BlendEventCamera@CPythonApplication@@UAEXABUSCameraSetting@IAbstractApplication@@M@Z:PROC ; CPythonApplication::BlendEventCamera
EXTRN	?SetDefaultCamera@CPythonApplication@@UAEXXZ:PROC ; CPythonApplication::SetDefaultCamera
EXTRN	?WindowProcedure@CPythonApplication@@MAEJPAUHWND__@@IIJ@Z:PROC ; CPythonApplication::WindowProcedure
EXTRN	?OnCameraUpdate@CPythonApplication@@IAEXXZ:PROC	; CPythonApplication::OnCameraUpdate
EXTRN	?OnUIUpdate@CPythonApplication@@IAEXXZ:PROC	; CPythonApplication::OnUIUpdate
EXTRN	?OnUIRender@CPythonApplication@@IAEXXZ:PROC	; CPythonApplication::OnUIRender
EXTRN	?OnMouseUpdate@CPythonApplication@@IAEXXZ:PROC	; CPythonApplication::OnMouseUpdate
EXTRN	?OnMouseRender@CPythonApplication@@IAEXXZ:PROC	; CPythonApplication::OnMouseRender
EXTRN	?OnMouseMove@CPythonApplication@@IAEXHH@Z:PROC	; CPythonApplication::OnMouseMove
EXTRN	?OnSizeChange@CPythonApplication@@IAEXHH@Z:PROC	; CPythonApplication::OnSizeChange
EXTRN	?OnKeyDown@CPythonApplication@@MAEXH@Z:PROC	; CPythonApplication::OnKeyDown
EXTRN	?OnKeyUp@CPythonApplication@@MAEXH@Z:PROC	; CPythonApplication::OnKeyUp
EXTRN	?__UpdateCamera@CPythonApplication@@IAEXXZ:PROC	; CPythonApplication::__UpdateCamera
EXTRN	?__SetFullScreenWindow@CPythonApplication@@IAEXPAUHWND__@@KKK@Z:PROC ; CPythonApplication::__SetFullScreenWindow
EXTRN	??_ECPythonApplication@@UAEPAXI@Z:PROC		; CPythonApplication::`vector deleting destructor'
EXTRN	?GrannyCreateSharedDeformBuffer@@YAXXZ:PROC	; GrannyCreateSharedDeformBuffer
EXTRN	?GrannyDestroySharedDeformBuffer@@YAXXZ:PROC	; GrannyDestroySharedDeformBuffer
EXTRN	@__security_check_cookie@4:PROC
EXTRN	__CxxThrowException@8:PROC
EXTRN	___CxxFrameHandler3:PROC
EXTRN	_memcpy:PROC
EXTRN	_memmove:PROC
EXTRN	__Init_thread_epoch:DWORD
EXTRN	__imp__PyExc_RuntimeError:DWORD
EXTRN	?GRAPHICS_CAPS_SOFTWARE_TILING@@3_NA:BYTE	; GRAPHICS_CAPS_SOFTWARE_TILING
EXTRN	___security_cookie:DWORD
EXTRN	__fltused:DWORD
EXTRN	__tls_array:DWORD
EXTRN	__tls_index:DWORD
;	COMDAT ?_OptionsStorage@?1??__local_stdio_printf_options@@9@4_KA
_BSS	SEGMENT
?_OptionsStorage@?1??__local_stdio_printf_options@@9@4_KA DQ 01H DUP (?) ; `__local_stdio_printf_options'::`2'::_OptionsStorage
_BSS	ENDS
;	COMDAT ?ms_singleton@?$CSingleton@VCTimer@@@@0PAVCTimer@@A
_BSS	SEGMENT
?ms_singleton@?$CSingleton@VCTimer@@@@0PAVCTimer@@A DD 01H DUP (?) ; CSingleton<CTimer>::ms_singleton
_BSS	ENDS
;	COMDAT ?ms_singleton@?$CSingleton@VCResourceManager@@@@0PAVCResourceManager@@A
_BSS	SEGMENT
?ms_singleton@?$CSingleton@VCResourceManager@@@@0PAVCResourceManager@@A DD 01H DUP (?) ; CSingleton<CResourceManager>::ms_singleton
_BSS	ENDS
;	COMDAT ?ms_singleton@?$CSingleton@VCCullingManager@@@@0PAVCCullingManager@@A
_BSS	SEGMENT
?ms_singleton@?$CSingleton@VCCullingManager@@@@0PAVCCullingManager@@A DD 01H DUP (?) ; CSingleton<CCullingManager>::ms_singleton
_BSS	ENDS
;	COMDAT ?ms_singleton@?$CSingleton@VCWindowManager@UI@@@@0PAVCWindowManager@UI@@A
_BSS	SEGMENT
?ms_singleton@?$CSingleton@VCWindowManager@UI@@@@0PAVCWindowManager@UI@@A DD 01H DUP (?) ; CSingleton<UI::CWindowManager>::ms_singleton
_BSS	ENDS
;	COMDAT ?ms_singleton@?$CSingleton@VCCameraManager@@@@0PAVCCameraManager@@A
_BSS	SEGMENT
?ms_singleton@?$CSingleton@VCCameraManager@@@@0PAVCCameraManager@@A DD 01H DUP (?) ; CSingleton<CCameraManager>::ms_singleton
_BSS	ENDS
;	COMDAT ?ms_singleton@?$CSingleton@VCStateManager@@@@0PAVCStateManager@@A
_BSS	SEGMENT
?ms_singleton@?$CSingleton@VCStateManager@@@@0PAVCStateManager@@A DD 01H DUP (?) ; CSingleton<CStateManager>::ms_singleton
_BSS	ENDS
;	COMDAT ?ms_singleton@?$CSingleton@VCItemManager@@@@0PAVCItemManager@@A
_BSS	SEGMENT
?ms_singleton@?$CSingleton@VCItemManager@@@@0PAVCItemManager@@A DD 01H DUP (?) ; CSingleton<CItemManager>::ms_singleton
_BSS	ENDS
;	COMDAT ?ms_singleton@?$CSingleton@VCPythonSkill@@@@0PAVCPythonSkill@@A
_BSS	SEGMENT
?ms_singleton@?$CSingleton@VCPythonSkill@@@@0PAVCPythonSkill@@A DD 01H DUP (?) ; CSingleton<CPythonSkill>::ms_singleton
_BSS	ENDS
;	COMDAT ?ms_singleton@?$CSingleton@VCPythonNonPlayer@@@@0PAVCPythonNonPlayer@@A
_BSS	SEGMENT
?ms_singleton@?$CSingleton@VCPythonNonPlayer@@@@0PAVCPythonNonPlayer@@A DD 01H DUP (?) ; CSingleton<CPythonNonPlayer>::ms_singleton
_BSS	ENDS
;	COMDAT ?ms_singleton@?$CSingleton@VCPythonBackground@@@@0PAVCPythonBackground@@A
_BSS	SEGMENT
?ms_singleton@?$CSingleton@VCPythonBackground@@@@0PAVCPythonBackground@@A DD 01H DUP (?) ; CSingleton<CPythonBackground>::ms_singleton
_BSS	ENDS
;	COMDAT ?ms_singleton@?$CSingleton@VCPythonIME@@@@0PAVCPythonIME@@A
_BSS	SEGMENT
?ms_singleton@?$CSingleton@VCPythonIME@@@@0PAVCPythonIME@@A DD 01H DUP (?) ; CSingleton<CPythonIME>::ms_singleton
_BSS	ENDS
;	COMDAT ?ms_singleton@?$CSingleton@VCPythonTextTail@@@@0PAVCPythonTextTail@@A
_BSS	SEGMENT
?ms_singleton@?$CSingleton@VCPythonTextTail@@@@0PAVCPythonTextTail@@A DD 01H DUP (?) ; CSingleton<CPythonTextTail>::ms_singleton
_BSS	ENDS
;	COMDAT ?ms_singleton@?$CSingleton@VCPythonSystem@@@@0PAVCPythonSystem@@A
_BSS	SEGMENT
?ms_singleton@?$CSingleton@VCPythonSystem@@@@0PAVCPythonSystem@@A DD 01H DUP (?) ; CSingleton<CPythonSystem>::ms_singleton
_BSS	ENDS
;	COMDAT ?ms_singleton@?$CSingleton@VCPythonNetworkStream@@@@0PAVCPythonNetworkStream@@A
_BSS	SEGMENT
?ms_singleton@?$CSingleton@VCPythonNetworkStream@@@@0PAVCPythonNetworkStream@@A DD 01H DUP (?) ; CSingleton<CPythonNetworkStream>::ms_singleton
_BSS	ENDS
;	COMDAT ?ms_singleton@?$TAbstractSingleton@VIAbstractApplication@@@@0PAVIAbstractApplication@@A
_BSS	SEGMENT
?ms_singleton@?$TAbstractSingleton@VIAbstractApplication@@@@0PAVIAbstractApplication@@A DD 01H DUP (?) ; TAbstractSingleton<IAbstractApplication>::ms_singleton
_BSS	ENDS
;	COMDAT ?ms_singleton@?$CSingleton@VCMovieMan@@@@0PAVCMovieMan@@A
_BSS	SEGMENT
?ms_singleton@?$CSingleton@VCMovieMan@@@@0PAVCMovieMan@@A DD 01H DUP (?) ; CSingleton<CMovieMan>::ms_singleton
_BSS	ENDS
;	COMDAT ?fp@?1??RenderGame@CPythonApplication@@QAEXXZ@4PAU_iobuf@@A
_BSS	SEGMENT
?fp@?1??RenderGame@CPythonApplication@@QAEXXZ@4PAU_iobuf@@A DD 01H DUP (?) ; `CPythonApplication::RenderGame'::`2'::fp
_BSS	ENDS
;	COMDAT ?$TSS0@?1??RenderGame@CPythonApplication@@QAEXXZ@4HA
_BSS	SEGMENT
?$TSS0@?1??RenderGame@CPythonApplication@@QAEXXZ@4HA DD 01H DUP (?) ; `CPythonApplication::RenderGame'::`2'::$TSS0
_BSS	ENDS
;	COMDAT ?fp@?8??UpdateGame@CPythonApplication@@QAEXXZ@4PAU_iobuf@@A
_BSS	SEGMENT
?fp@?8??UpdateGame@CPythonApplication@@QAEXXZ@4PAU_iobuf@@A DD 01H DUP (?) ; `CPythonApplication::UpdateGame'::`9'::fp
_BSS	ENDS
;	COMDAT ?$TSS0@?8??UpdateGame@CPythonApplication@@QAEXXZ@4HA
_BSS	SEGMENT
?$TSS0@?8??UpdateGame@CPythonApplication@@QAEXXZ@4HA DD 01H DUP (?) ; `CPythonApplication::UpdateGame'::`9'::$TSS0
_BSS	ENDS
;	COMDAT ?s_dwUpdateFrameCount@?1??Process@CPythonApplication@@QAE_NXZ@4KA
_BSS	SEGMENT
?s_dwUpdateFrameCount@?1??Process@CPythonApplication@@QAE_NXZ@4KA DD 01H DUP (?) ; `CPythonApplication::Process'::`2'::s_dwUpdateFrameCount
_BSS	ENDS
;	COMDAT ?s_dwRenderFrameCount@?1??Process@CPythonApplication@@QAE_NXZ@4KA
_BSS	SEGMENT
?s_dwRenderFrameCount@?1??Process@CPythonApplication@@QAE_NXZ@4KA DD 01H DUP (?) ; `CPythonApplication::Process'::`2'::s_dwRenderFrameCount
_BSS	ENDS
;	COMDAT ?s_dwFaceCount@?1??Process@CPythonApplication@@QAE_NXZ@4KA
_BSS	SEGMENT
?s_dwFaceCount@?1??Process@CPythonApplication@@QAE_NXZ@4KA DD 01H DUP (?) ; `CPythonApplication::Process'::`2'::s_dwFaceCount
_BSS	ENDS
;	COMDAT ?s_uiLoad@?1??Process@CPythonApplication@@QAE_NXZ@4IA
_BSS	SEGMENT
?s_uiLoad@?1??Process@CPythonApplication@@QAE_NXZ@4IA DD 01H DUP (?) ; `CPythonApplication::Process'::`2'::s_uiLoad
_BSS	ENDS
;	COMDAT ?s_dwCheckTime@?1??Process@CPythonApplication@@QAE_NXZ@4KA
_BSS	SEGMENT
?s_dwCheckTime@?1??Process@CPythonApplication@@QAE_NXZ@4KA DD 01H DUP (?) ; `CPythonApplication::Process'::`2'::s_dwCheckTime
_BSS	ENDS
;	COMDAT ?$TSS0@?1??Process@CPythonApplication@@QAE_NXZ@4HA
_BSS	SEGMENT
?$TSS0@?1??Process@CPythonApplication@@QAE_NXZ@4HA DD 01H DUP (?) ; `CPythonApplication::Process'::`2'::$TSS0
_BSS	ENDS
;	COMDAT ?s_bFrameSkip@?1??Process@CPythonApplication@@QAE_NXZ@4HA
_BSS	SEGMENT
?s_bFrameSkip@?1??Process@CPythonApplication@@QAE_NXZ@4HA DD 01H DUP (?) ; `CPythonApplication::Process'::`2'::s_bFrameSkip
_BSS	ENDS
;	COMDAT ?s_uiNextFrameTime@?1??Process@CPythonApplication@@QAE_NXZ@4IA
_BSS	SEGMENT
?s_uiNextFrameTime@?1??Process@CPythonApplication@@QAE_NXZ@4IA DD 01H DUP (?) ; `CPythonApplication::Process'::`2'::s_uiNextFrameTime
_BSS	ENDS
;	COMDAT ?$TSS1@?1??Process@CPythonApplication@@QAE_NXZ@4HA
_BSS	SEGMENT
?$TSS1@?1??Process@CPythonApplication@@QAE_NXZ@4HA DD 01H DUP (?) ; `CPythonApplication::Process'::`2'::$TSS1
_BSS	ENDS
;	COMDAT ?s_dwRenderCheckTime@?CJ@??Process@CPythonApplication@@QAE_NXZ@4KA
_BSS	SEGMENT
?s_dwRenderCheckTime@?CJ@??Process@CPythonApplication@@QAE_NXZ@4KA DD 01H DUP (?) ; `CPythonApplication::Process'::`41'::s_dwRenderCheckTime
_BSS	ENDS
;	COMDAT ?$TSS2@?CJ@??Process@CPythonApplication@@QAE_NXZ@4HA
_BSS	SEGMENT
?$TSS2@?CJ@??Process@CPythonApplication@@QAE_NXZ@4HA DD 01H DUP (?) ; `CPythonApplication::Process'::`41'::$TSS2
_BSS	ENDS
;	COMDAT ?s_dwRenderRangeTime@?CJ@??Process@CPythonApplication@@QAE_NXZ@4KA
_BSS	SEGMENT
?s_dwRenderRangeTime@?CJ@??Process@CPythonApplication@@QAE_NXZ@4KA DD 01H DUP (?) ; `CPythonApplication::Process'::`41'::s_dwRenderRangeTime
_BSS	ENDS
;	COMDAT ?s_dwRenderRangeFrame@?CJ@??Process@CPythonApplication@@QAE_NXZ@4KA
_BSS	SEGMENT
?s_dwRenderRangeFrame@?CJ@??Process@CPythonApplication@@QAE_NXZ@4KA DD 01H DUP (?) ; `CPythonApplication::Process'::`41'::s_dwRenderRangeFrame
_BSS	ENDS
;	COMDAT ?s_fBufRenderTime@?DC@??Process@CPythonApplication@@QAE_NXZ@4MA
_BSS	SEGMENT
?s_fBufRenderTime@?DC@??Process@CPythonApplication@@QAE_NXZ@4MA DD 01H DUP (?) ; `CPythonApplication::Process'::`50'::s_fBufRenderTime
_BSS	ENDS
;	COMDAT CRT$XCU
CRT$XCU	SEGMENT
??ms_kPool$initializer$@?$CPooledObject@VCHeaderDecorator@NEffectUpdateDecorator@@@@1P6AXXZA@@3P6AXXZA DD FLAT:??__E?ms_kPool@?$CPooledObject@VCHeaderDecorator@NEffectUpdateDecorator@@@@1V?$CDynamicPoolEx@VCHeaderDecorator@NEffectUpdateDecorator@@@@A@@YAXXZ ; ??ms_kPool$initializer$@?$CPooledObject@VCHeaderDecorator@NEffectUpdateDecorator@@@@1P6AXXZA@@3P6AXXZA
CRT$XCU	ENDS
;	COMDAT __xmm@80000000800000008000000080000000
CONST	SEGMENT
__xmm@80000000800000008000000080000000 DB 00H, 00H, 00H, 080H, 00H, 00H, 00H
	DB	080H, 00H, 00H, 00H, 080H, 00H, 00H, 00H, 080H
CONST	ENDS
;	COMDAT __xmm@41f00000000000000000000000000000
CONST	SEGMENT
__xmm@41f00000000000000000000000000000 DB 00H, 00H, 00H, 00H, 00H, 00H, 00H
	DB	00H, 00H, 00H, 00H, 00H, 00H, 00H, 0f0H, 'A'
CONST	ENDS
;	COMDAT __real@46c80000
CONST	SEGMENT
__real@46c80000 DD 046c80000r			; 25600
CONST	ENDS
;	COMDAT __real@447a0000
CONST	SEGMENT
__real@447a0000 DD 0447a0000r			; 1000
CONST	ENDS
;	COMDAT __real@42c80000
CONST	SEGMENT
__real@42c80000 DD 042c80000r			; 100
CONST	ENDS
;	COMDAT __real@42c76666
CONST	SEGMENT
__real@42c76666 DD 042c76666r			; 99.7
CONST	ENDS
;	COMDAT __real@42c70000
CONST	SEGMENT
__real@42c70000 DD 042c70000r			; 99.5
CONST	ENDS
;	COMDAT __real@41f00000
CONST	SEGMENT
__real@41f00000 DD 041f00000r			; 30
CONST	ENDS
;	COMDAT __real@41800000
CONST	SEGMENT
__real@41800000 DD 041800000r			; 16
CONST	ENDS
;	COMDAT __real@40a00000
CONST	SEGMENT
__real@40a00000 DD 040a00000r			; 5
CONST	ENDS
;	COMDAT __real@404e000000000000
CONST	SEGMENT
__real@404e000000000000 DQ 0404e000000000000r	; 60
CONST	ENDS
;	COMDAT __real@3f000000
CONST	SEGMENT
__real@3f000000 DD 03f000000r			; 0.5
CONST	ENDS
;	COMDAT __real@3e99999a
CONST	SEGMENT
__real@3e99999a DD 03e99999ar			; 0.3
CONST	ENDS
;	COMDAT ??_R4CPythonApplication@@6BIAbstractApplication@@@
rdata$r	SEGMENT
??_R4CPythonApplication@@6BIAbstractApplication@@@ DD 00H ; CPythonApplication::`RTTI Complete Object Locator'
	DD	020H
	DD	00H
	DD	FLAT:??_R0?AVCPythonApplication@@@8
	DD	FLAT:??_R3CPythonApplication@@8
rdata$r	ENDS
;	COMDAT ??_R4CPythonApplication@@6BCInputKeyboard@@@
rdata$r	SEGMENT
??_R4CPythonApplication@@6BCInputKeyboard@@@ DD 00H	; CPythonApplication::`RTTI Complete Object Locator'
	DD	01cH
	DD	00H
	DD	FLAT:??_R0?AVCPythonApplication@@@8
	DD	FLAT:??_R3CPythonApplication@@8
rdata$r	ENDS
;	COMDAT ??_R1CA@?0A@EA@?$TAbstractSingleton@VIAbstractApplication@@@@8
rdata$r	SEGMENT
??_R1CA@?0A@EA@?$TAbstractSingleton@VIAbstractApplication@@@@8 DD FLAT:??_R0?AV?$TAbstractSingleton@VIAbstractApplication@@@@@8 ; TAbstractSingleton<IAbstractApplication>::`RTTI Base Class Descriptor at (32,-1,0,64)'
	DD	00H
	DD	020H
	DD	0ffffffffH
	DD	00H
	DD	040H
	DD	FLAT:??_R3?$TAbstractSingleton@VIAbstractApplication@@@@8
rdata$r	ENDS
;	COMDAT ??_R1CA@?0A@EA@IAbstractApplication@@8
rdata$r	SEGMENT
??_R1CA@?0A@EA@IAbstractApplication@@8 DD FLAT:??_R0?AVIAbstractApplication@@@8 ; IAbstractApplication::`RTTI Base Class Descriptor at (32,-1,0,64)'
	DD	01H
	DD	020H
	DD	0ffffffffH
	DD	00H
	DD	040H
	DD	FLAT:??_R3IAbstractApplication@@8
rdata$r	ENDS
;	COMDAT ??_R1BM@?0A@EA@CInputDevice@@8
rdata$r	SEGMENT
??_R1BM@?0A@EA@CInputDevice@@8 DD FLAT:??_R0?AVCInputDevice@@@8 ; CInputDevice::`RTTI Base Class Descriptor at (28,-1,0,64)'
	DD	00H
	DD	01cH
	DD	0ffffffffH
	DD	00H
	DD	040H
	DD	FLAT:??_R3CInputDevice@@8
rdata$r	ENDS
;	COMDAT ??_R2CInputDevice@@8
rdata$r	SEGMENT
??_R2CInputDevice@@8 DD FLAT:??_R1A@?0A@EA@CInputDevice@@8 ; CInputDevice::`RTTI Base Class Array'
rdata$r	ENDS
;	COMDAT ??_R3CInputDevice@@8
rdata$r	SEGMENT
??_R3CInputDevice@@8 DD 00H				; CInputDevice::`RTTI Class Hierarchy Descriptor'
	DD	00H
	DD	01H
	DD	FLAT:??_R2CInputDevice@@8
rdata$r	ENDS
;	COMDAT ??_R0?AVCInputDevice@@@8
data$rs	SEGMENT
??_R0?AVCInputDevice@@@8 DD FLAT:??_7type_info@@6B@	; CInputDevice `RTTI Type Descriptor'
	DD	00H
	DB	'.?AVCInputDevice@@', 00H
data$rs	ENDS
;	COMDAT ??_R1A@?0A@EA@CInputDevice@@8
rdata$r	SEGMENT
??_R1A@?0A@EA@CInputDevice@@8 DD FLAT:??_R0?AVCInputDevice@@@8 ; CInputDevice::`RTTI Base Class Descriptor at (0,-1,0,64)'
	DD	00H
	DD	00H
	DD	0ffffffffH
	DD	00H
	DD	040H
	DD	FLAT:??_R3CInputDevice@@8
rdata$r	ENDS
;	COMDAT ??_R1A@?0A@EA@CInputKeyboard@@8
rdata$r	SEGMENT
??_R1A@?0A@EA@CInputKeyboard@@8 DD FLAT:??_R0?AVCInputKeyboard@@@8 ; CInputKeyboard::`RTTI Base Class Descriptor at (0,-1,0,64)'
	DD	01H
	DD	00H
	DD	0ffffffffH
	DD	00H
	DD	040H
	DD	FLAT:??_R3CInputKeyboard@@8
rdata$r	ENDS
;	COMDAT ??_R2CInputKeyboard@@8
rdata$r	SEGMENT
??_R2CInputKeyboard@@8 DD FLAT:??_R1A@?0A@EA@CInputKeyboard@@8 ; CInputKeyboard::`RTTI Base Class Array'
	DD	FLAT:??_R1A@?0A@EA@CInputDevice@@8
rdata$r	ENDS
;	COMDAT ??_R3CInputKeyboard@@8
rdata$r	SEGMENT
??_R3CInputKeyboard@@8 DD 00H				; CInputKeyboard::`RTTI Class Hierarchy Descriptor'
	DD	00H
	DD	02H
	DD	FLAT:??_R2CInputKeyboard@@8
rdata$r	ENDS
;	COMDAT ??_R0?AVCInputKeyboard@@@8
data$rs	SEGMENT
??_R0?AVCInputKeyboard@@@8 DD FLAT:??_7type_info@@6B@	; CInputKeyboard `RTTI Type Descriptor'
	DD	00H
	DB	'.?AVCInputKeyboard@@', 00H
data$rs	ENDS
;	COMDAT ??_R1BM@?0A@EA@CInputKeyboard@@8
rdata$r	SEGMENT
??_R1BM@?0A@EA@CInputKeyboard@@8 DD FLAT:??_R0?AVCInputKeyboard@@@8 ; CInputKeyboard::`RTTI Base Class Descriptor at (28,-1,0,64)'
	DD	01H
	DD	01cH
	DD	0ffffffffH
	DD	00H
	DD	040H
	DD	FLAT:??_R3CInputKeyboard@@8
rdata$r	ENDS
;	COMDAT ??_R2CMSWindow@@8
rdata$r	SEGMENT
??_R2CMSWindow@@8 DD FLAT:??_R1A@?0A@EA@CMSWindow@@8	; CMSWindow::`RTTI Base Class Array'
rdata$r	ENDS
;	COMDAT ??_R3CMSWindow@@8
rdata$r	SEGMENT
??_R3CMSWindow@@8 DD 00H				; CMSWindow::`RTTI Class Hierarchy Descriptor'
	DD	00H
	DD	01H
	DD	FLAT:??_R2CMSWindow@@8
rdata$r	ENDS
;	COMDAT ??_R0?AVCMSWindow@@@8
data$rs	SEGMENT
??_R0?AVCMSWindow@@@8 DD FLAT:??_7type_info@@6B@	; CMSWindow `RTTI Type Descriptor'
	DD	00H
	DB	'.?AVCMSWindow@@', 00H
data$rs	ENDS
;	COMDAT ??_R1A@?0A@EA@CMSWindow@@8
rdata$r	SEGMENT
??_R1A@?0A@EA@CMSWindow@@8 DD FLAT:??_R0?AVCMSWindow@@@8 ; CMSWindow::`RTTI Base Class Descriptor at (0,-1,0,64)'
	DD	00H
	DD	00H
	DD	0ffffffffH
	DD	00H
	DD	040H
	DD	FLAT:??_R3CMSWindow@@8
rdata$r	ENDS
;	COMDAT ??_R2CMSApplication@@8
rdata$r	SEGMENT
??_R2CMSApplication@@8 DD FLAT:??_R1A@?0A@EA@CMSApplication@@8 ; CMSApplication::`RTTI Base Class Array'
	DD	FLAT:??_R1A@?0A@EA@CMSWindow@@8
rdata$r	ENDS
;	COMDAT ??_R3CMSApplication@@8
rdata$r	SEGMENT
??_R3CMSApplication@@8 DD 00H				; CMSApplication::`RTTI Class Hierarchy Descriptor'
	DD	00H
	DD	02H
	DD	FLAT:??_R2CMSApplication@@8
rdata$r	ENDS
;	COMDAT ??_R0?AVCMSApplication@@@8
data$rs	SEGMENT
??_R0?AVCMSApplication@@@8 DD FLAT:??_7type_info@@6B@	; CMSApplication `RTTI Type Descriptor'
	DD	00H
	DB	'.?AVCMSApplication@@', 00H
data$rs	ENDS
;	COMDAT ??_R1A@?0A@EA@CMSApplication@@8
rdata$r	SEGMENT
??_R1A@?0A@EA@CMSApplication@@8 DD FLAT:??_R0?AVCMSApplication@@@8 ; CMSApplication::`RTTI Base Class Descriptor at (0,-1,0,64)'
	DD	01H
	DD	00H
	DD	0ffffffffH
	DD	00H
	DD	040H
	DD	FLAT:??_R3CMSApplication@@8
rdata$r	ENDS
;	COMDAT ??_R1A@?0A@EA@CPythonApplication@@8
rdata$r	SEGMENT
??_R1A@?0A@EA@CPythonApplication@@8 DD FLAT:??_R0?AVCPythonApplication@@@8 ; CPythonApplication::`RTTI Base Class Descriptor at (0,-1,0,64)'
	DD	06H
	DD	00H
	DD	0ffffffffH
	DD	00H
	DD	040H
	DD	FLAT:??_R3CPythonApplication@@8
rdata$r	ENDS
;	COMDAT ??_R2CPythonApplication@@8
rdata$r	SEGMENT
??_R2CPythonApplication@@8 DD FLAT:??_R1A@?0A@EA@CPythonApplication@@8 ; CPythonApplication::`RTTI Base Class Array'
	DD	FLAT:??_R1A@?0A@EA@CMSApplication@@8
	DD	FLAT:??_R1A@?0A@EA@CMSWindow@@8
	DD	FLAT:??_R1BM@?0A@EA@CInputKeyboard@@8
	DD	FLAT:??_R1BM@?0A@EA@CInputDevice@@8
	DD	FLAT:??_R1CA@?0A@EA@IAbstractApplication@@8
	DD	FLAT:??_R1CA@?0A@EA@?$TAbstractSingleton@VIAbstractApplication@@@@8
rdata$r	ENDS
;	COMDAT ??_R3CPythonApplication@@8
rdata$r	SEGMENT
??_R3CPythonApplication@@8 DD 00H			; CPythonApplication::`RTTI Class Hierarchy Descriptor'
	DD	01H
	DD	07H
	DD	FLAT:??_R2CPythonApplication@@8
rdata$r	ENDS
;	COMDAT ??_R0?AVCPythonApplication@@@8
data$rs	SEGMENT
??_R0?AVCPythonApplication@@@8 DD FLAT:??_7type_info@@6B@ ; CPythonApplication `RTTI Type Descriptor'
	DD	00H
	DB	'.?AVCPythonApplication@@', 00H
data$rs	ENDS
;	COMDAT ??_R4CPythonApplication@@6BCMSApplication@@@
rdata$r	SEGMENT
??_R4CPythonApplication@@6BCMSApplication@@@ DD 00H	; CPythonApplication::`RTTI Complete Object Locator'
	DD	00H
	DD	00H
	DD	FLAT:??_R0?AVCPythonApplication@@@8
	DD	FLAT:??_R3CPythonApplication@@8
rdata$r	ENDS
;	COMDAT ??_R4?$CSingleton@VCMovieMan@@@@6B@
rdata$r	SEGMENT
??_R4?$CSingleton@VCMovieMan@@@@6B@ DD 00H		; CSingleton<CMovieMan>::`RTTI Complete Object Locator'
	DD	00H
	DD	00H
	DD	FLAT:??_R0?AV?$CSingleton@VCMovieMan@@@@@8
	DD	FLAT:??_R3?$CSingleton@VCMovieMan@@@@8
rdata$r	ENDS
;	COMDAT ??_R2?$CSingleton@VCMovieMan@@@@8
rdata$r	SEGMENT
??_R2?$CSingleton@VCMovieMan@@@@8 DD FLAT:??_R1A@?0A@EA@?$CSingleton@VCMovieMan@@@@8 ; CSingleton<CMovieMan>::`RTTI Base Class Array'
rdata$r	ENDS
;	COMDAT ??_R3?$CSingleton@VCMovieMan@@@@8
rdata$r	SEGMENT
??_R3?$CSingleton@VCMovieMan@@@@8 DD 00H		; CSingleton<CMovieMan>::`RTTI Class Hierarchy Descriptor'
	DD	00H
	DD	01H
	DD	FLAT:??_R2?$CSingleton@VCMovieMan@@@@8
rdata$r	ENDS
;	COMDAT ??_R0?AV?$CSingleton@VCMovieMan@@@@@8
data$rs	SEGMENT
??_R0?AV?$CSingleton@VCMovieMan@@@@@8 DD FLAT:??_7type_info@@6B@ ; CSingleton<CMovieMan> `RTTI Type Descriptor'
	DD	00H
	DB	'.?AV?$CSingleton@VCMovieMan@@@@', 00H
data$rs	ENDS
;	COMDAT ??_R1A@?0A@EA@?$CSingleton@VCMovieMan@@@@8
rdata$r	SEGMENT
??_R1A@?0A@EA@?$CSingleton@VCMovieMan@@@@8 DD FLAT:??_R0?AV?$CSingleton@VCMovieMan@@@@@8 ; CSingleton<CMovieMan>::`RTTI Base Class Descriptor at (0,-1,0,64)'
	DD	00H
	DD	00H
	DD	0ffffffffH
	DD	00H
	DD	040H
	DD	FLAT:??_R3?$CSingleton@VCMovieMan@@@@8
rdata$r	ENDS
;	COMDAT ??_R1A@?0A@EA@CMovieMan@@8
rdata$r	SEGMENT
??_R1A@?0A@EA@CMovieMan@@8 DD FLAT:??_R0?AVCMovieMan@@@8 ; CMovieMan::`RTTI Base Class Descriptor at (0,-1,0,64)'
	DD	01H
	DD	00H
	DD	0ffffffffH
	DD	00H
	DD	040H
	DD	FLAT:??_R3CMovieMan@@8
rdata$r	ENDS
;	COMDAT ??_R2CMovieMan@@8
rdata$r	SEGMENT
??_R2CMovieMan@@8 DD FLAT:??_R1A@?0A@EA@CMovieMan@@8	; CMovieMan::`RTTI Base Class Array'
	DD	FLAT:??_R1A@?0A@EA@?$CSingleton@VCMovieMan@@@@8
rdata$r	ENDS
;	COMDAT ??_R3CMovieMan@@8
rdata$r	SEGMENT
??_R3CMovieMan@@8 DD 00H				; CMovieMan::`RTTI Class Hierarchy Descriptor'
	DD	00H
	DD	02H
	DD	FLAT:??_R2CMovieMan@@8
rdata$r	ENDS
;	COMDAT ??_R0?AVCMovieMan@@@8
data$rs	SEGMENT
??_R0?AVCMovieMan@@@8 DD FLAT:??_7type_info@@6B@	; CMovieMan `RTTI Type Descriptor'
	DD	00H
	DB	'.?AVCMovieMan@@', 00H
data$rs	ENDS
;	COMDAT ??_R4CMovieMan@@6B@
rdata$r	SEGMENT
??_R4CMovieMan@@6B@ DD 00H				; CMovieMan::`RTTI Complete Object Locator'
	DD	00H
	DD	00H
	DD	FLAT:??_R0?AVCMovieMan@@@8
	DD	FLAT:??_R3CMovieMan@@8
rdata$r	ENDS
;	COMDAT ??_R4?$TAbstractSingleton@VIAbstractApplication@@@@6B@
rdata$r	SEGMENT
??_R4?$TAbstractSingleton@VIAbstractApplication@@@@6B@ DD 00H ; TAbstractSingleton<IAbstractApplication>::`RTTI Complete Object Locator'
	DD	00H
	DD	00H
	DD	FLAT:??_R0?AV?$TAbstractSingleton@VIAbstractApplication@@@@@8
	DD	FLAT:??_R3?$TAbstractSingleton@VIAbstractApplication@@@@8
rdata$r	ENDS
;	COMDAT ??_R2?$TAbstractSingleton@VIAbstractApplication@@@@8
rdata$r	SEGMENT
??_R2?$TAbstractSingleton@VIAbstractApplication@@@@8 DD FLAT:??_R1A@?0A@EA@?$TAbstractSingleton@VIAbstractApplication@@@@8 ; TAbstractSingleton<IAbstractApplication>::`RTTI Base Class Array'
rdata$r	ENDS
;	COMDAT ??_R3?$TAbstractSingleton@VIAbstractApplication@@@@8
rdata$r	SEGMENT
??_R3?$TAbstractSingleton@VIAbstractApplication@@@@8 DD 00H ; TAbstractSingleton<IAbstractApplication>::`RTTI Class Hierarchy Descriptor'
	DD	00H
	DD	01H
	DD	FLAT:??_R2?$TAbstractSingleton@VIAbstractApplication@@@@8
rdata$r	ENDS
;	COMDAT ??_R0?AV?$TAbstractSingleton@VIAbstractApplication@@@@@8
data$rs	SEGMENT
??_R0?AV?$TAbstractSingleton@VIAbstractApplication@@@@@8 DD FLAT:??_7type_info@@6B@ ; TAbstractSingleton<IAbstractApplication> `RTTI Type Descriptor'
	DD	00H
	DB	'.?AV?$TAbstractSingleton@VIAbstractApplication@@@@', 00H
data$rs	ENDS
;	COMDAT ??_R1A@?0A@EA@?$TAbstractSingleton@VIAbstractApplication@@@@8
rdata$r	SEGMENT
??_R1A@?0A@EA@?$TAbstractSingleton@VIAbstractApplication@@@@8 DD FLAT:??_R0?AV?$TAbstractSingleton@VIAbstractApplication@@@@@8 ; TAbstractSingleton<IAbstractApplication>::`RTTI Base Class Descriptor at (0,-1,0,64)'
	DD	00H
	DD	00H
	DD	0ffffffffH
	DD	00H
	DD	040H
	DD	FLAT:??_R3?$TAbstractSingleton@VIAbstractApplication@@@@8
rdata$r	ENDS
;	COMDAT ??_R1A@?0A@EA@IAbstractApplication@@8
rdata$r	SEGMENT
??_R1A@?0A@EA@IAbstractApplication@@8 DD FLAT:??_R0?AVIAbstractApplication@@@8 ; IAbstractApplication::`RTTI Base Class Descriptor at (0,-1,0,64)'
	DD	01H
	DD	00H
	DD	0ffffffffH
	DD	00H
	DD	040H
	DD	FLAT:??_R3IAbstractApplication@@8
rdata$r	ENDS
;	COMDAT ??_R2IAbstractApplication@@8
rdata$r	SEGMENT
??_R2IAbstractApplication@@8 DD FLAT:??_R1A@?0A@EA@IAbstractApplication@@8 ; IAbstractApplication::`RTTI Base Class Array'
	DD	FLAT:??_R1A@?0A@EA@?$TAbstractSingleton@VIAbstractApplication@@@@8
rdata$r	ENDS
;	COMDAT ??_R3IAbstractApplication@@8
rdata$r	SEGMENT
??_R3IAbstractApplication@@8 DD 00H			; IAbstractApplication::`RTTI Class Hierarchy Descriptor'
	DD	00H
	DD	02H
	DD	FLAT:??_R2IAbstractApplication@@8
rdata$r	ENDS
;	COMDAT ??_R0?AVIAbstractApplication@@@8
data$rs	SEGMENT
??_R0?AVIAbstractApplication@@@8 DD FLAT:??_7type_info@@6B@ ; IAbstractApplication `RTTI Type Descriptor'
	DD	00H
	DB	'.?AVIAbstractApplication@@', 00H
data$rs	ENDS
;	COMDAT ??_R4IAbstractApplication@@6B@
rdata$r	SEGMENT
??_R4IAbstractApplication@@6B@ DD 00H			; IAbstractApplication::`RTTI Complete Object Locator'
	DD	00H
	DD	00H
	DD	FLAT:??_R0?AVIAbstractApplication@@@8
	DD	FLAT:??_R3IAbstractApplication@@8
rdata$r	ENDS
;	COMDAT ??_C@_0CF@CBFEMJII@d?3?1ymir?5work?1special?1spheremap0@
CONST	SEGMENT
??_C@_0CF@CBFEMJII@d?3?1ymir?5work?1special?1spheremap0@ DB 'd:/ymir work'
	DB	'/special/spheremap01.jpg', 00H		; `string'
CONST	ENDS
;	COMDAT ??_C@_0CD@KIIBIHOG@d?3?1ymir?5work?1special?1spheremap?4@
CONST	SEGMENT
??_C@_0CD@KIIBIHOG@d?3?1ymir?5work?1special?1spheremap?4@ DB 'd:/ymir wor'
	DB	'k/special/spheremap.jpg', 00H		; `string'
CONST	ENDS
;	COMDAT ??_C@_0BB@EJLMKODK@?$CCCREATE_NETWORK?$CC@
CONST	SEGMENT
??_C@_0BB@EJLMKODK@?$CCCREATE_NETWORK?$CC@ DB '"CREATE_NETWORK"', 00H ; `string'
CONST	ENDS
;	COMDAT ??_C@_0BJ@CJEBNOLC@NetDevice?3?3Create?5failed@
CONST	SEGMENT
??_C@_0BJ@CJEBNOLC@NetDevice?3?3Create?5failed@ DB 'NetDevice::Create fai'
	DB	'led', 00H					; `string'
CONST	ENDS
;	COMDAT ??_C@_0BA@GLLECKCO@?$CCCREATE_CURSOR?$CC@
CONST	SEGMENT
??_C@_0BA@GLLECKCO@?$CCCREATE_CURSOR?$CC@ DB '"CREATE_CURSOR"', 00H ; `string'
CONST	ENDS
;	COMDAT ??_C@_0CA@FFOMJBHN@CMSWindow?3?3Cursors?5Create?5Error@
CONST	SEGMENT
??_C@_0CA@FFOMJBHN@CMSWindow?3?3Cursors?5Create?5Error@ DB 'CMSWindow::Cu'
	DB	'rsors Create Error', 00H			; `string'
CONST	ENDS
;	COMDAT ??_C@_0O@NOBMPFEG@CREATE_WINDOW@
CONST	SEGMENT
??_C@_0O@NOBMPFEG@CREATE_WINDOW@ DB 'CREATE_WINDOW', 00H ; `string'
CONST	ENDS
;	COMDAT ??_C@_0BJ@DBNNLGNG@CMSWindow?3?3Create?5failed@
CONST	SEGMENT
??_C@_0BJ@DBNNLGNG@CMSWindow?3?3Create?5failed@ DB 'CMSWindow::Create fai'
	DB	'led', 00H					; `string'
CONST	ENDS
;	COMDAT ??_C@_0EI@FFMLHANM@LoadLocaleData?5?9?5CPythonNetwork@
CONST	SEGMENT
??_C@_0EI@FFMLHANM@LoadLocaleData?5?9?5CPythonNetwork@ DB 'LoadLocaleData'
	DB	' - CPythonNetworkStream::LoadConvertTable(%d, %s) FAILURE', 00H ; `string'
CONST	ENDS
;	COMDAT ??_C@_0O@GCNBGGIE@?$CFs?1lang?$CFd?4cvt@
CONST	SEGMENT
??_C@_0O@GCNBGGIE@?$CFs?1lang?$CFd?4cvt@ DB '%s/lang%d.cvt', 00H ; `string'
CONST	ENDS
;	COMDAT ??_C@_0DO@PNDPPMDH@CPythonApplication?5?9?5CPythonNet@
CONST	SEGMENT
??_C@_0DO@PNDPPMDH@CPythonApplication?5?9?5CPythonNet@ DB 'CPythonApplica'
	DB	'tion - CPythonNetworkStream::LoadInsultList(%s)', 00H ; `string'
CONST	ENDS
;	COMDAT ??_C@_0CO@HCDPLHIO@LoadLocaleData?5?9?5RegisterSkillT@
CONST	SEGMENT
??_C@_0CO@HCDPLHIO@LoadLocaleData?5?9?5RegisterSkillT@ DB 'LoadLocaleData'
	DB	' - RegisterSkillTable(%s) Error', 00H	; `string'
CONST	ENDS
;	COMDAT ??_C@_0CN@NIKOAAJF@LoadLocaleData?5?9?5RegisterSkillD@
CONST	SEGMENT
??_C@_0CN@NIKOAAJF@LoadLocaleData?5?9?5RegisterSkillD@ DB 'LoadLocaleData'
	DB	' - RegisterSkillDesc(%s) Error', 00H	; `string'
CONST	ENDS
;	COMDAT ??_C@_0CI@PNCAMHEJ@LoadLocaleData?5?9?5LoadMobProto?$CI?$CF@
CONST	SEGMENT
??_C@_0CI@PNCAMHEJ@LoadLocaleData?5?9?5LoadMobProto?$CI?$CF@ DB 'LoadLoca'
	DB	'leData - LoadMobProto(%s) Error', 00H	; `string'
CONST	ENDS
;	COMDAT ??_C@_0CI@FLOPHKEN@LoadLocaleData?5?9?5LoadItemDesc?$CI?$CF@
CONST	SEGMENT
??_C@_0CI@FLOPHKEN@LoadLocaleData?5?9?5LoadItemDesc?$CI?$CF@ DB 'LoadLoca'
	DB	'leData - LoadItemDesc(%s) Error', 00H	; `string'
CONST	ENDS
;	COMDAT ??_C@_0CJ@MIFDPICO@LoadLocaleData?5?9?5LoadItemProto?$CI@
CONST	SEGMENT
??_C@_0CJ@MIFDPICO@LoadLocaleData?5?9?5LoadItemProto?$CI@ DB 'LoadLocaleD'
	DB	'ata - LoadItemProto(%s) Error', 00H		; `string'
CONST	ENDS
;	COMDAT ??_C@_0CI@MGBDCDJE@LoadLocaleData?5?9?5LoadItemList?$CI?$CF@
CONST	SEGMENT
??_C@_0CI@MGBDCDJE@LoadLocaleData?5?9?5LoadItemList?$CI?$CF@ DB 'LoadLoca'
	DB	'leData - LoadItemList(%s) Error', 00H	; `string'
CONST	ENDS
;	COMDAT ??_C@_0O@JEIJHCCG@?$CFs?1insult?4txt@
CONST	SEGMENT
??_C@_0O@JEIJHCCG@?$CFs?1insult?4txt@ DB '%s/insult.txt', 00H ; `string'
CONST	ENDS
;	COMDAT ??_C@_0BC@NLEJCAEF@?$CFs?1SkillTable?4txt@
CONST	SEGMENT
??_C@_0BC@NLEJCAEF@?$CFs?1SkillTable?4txt@ DB '%s/SkillTable.txt', 00H ; `string'
CONST	ENDS
;	COMDAT ??_C@_0BB@JDMIHPNN@?$CFs?1SkillDesc?4txt@
CONST	SEGMENT
??_C@_0BB@JDMIHPNN@?$CFs?1SkillDesc?4txt@ DB '%s/SkillDesc.txt', 00H ; `string'
CONST	ENDS
;	COMDAT ??_C@_0N@KCBCHIHM@?$CFs?1mob_proto@
CONST	SEGMENT
??_C@_0N@KCBCHIHM@?$CFs?1mob_proto@ DB '%s/mob_proto', 00H ; `string'
CONST	ENDS
;	COMDAT ??_C@_0BA@BIDKFLDM@?$CFs?1itemdesc?4txt@
CONST	SEGMENT
??_C@_0BA@BIDKFLDM@?$CFs?1itemdesc?4txt@ DB '%s/itemdesc.txt', 00H ; `string'
CONST	ENDS
;	COMDAT ??_C@_0O@MEMEPBB@?$CFs?1item_proto@
CONST	SEGMENT
??_C@_0O@MEMEPBB@?$CFs?1item_proto@ DB '%s/item_proto', 00H ; `string'
CONST	ENDS
;	COMDAT ??_C@_0BB@EOELDOLA@?$CFs?1item_list?4txt@
CONST	SEGMENT
??_C@_0BB@EOELDOLA@?$CFs?1item_list?4txt@ DB '%s/item_list.txt', 00H ; `string'
CONST	ENDS
;	COMDAT ??_C@_0BN@JAHEKIGK@CreateDevice?3?5Unknown?5Error?$CB@
CONST	SEGMENT
??_C@_0BN@JAHEKIGK@CreateDevice?3?5Unknown?5Error?$CB@ DB 'CreateDevice: '
	DB	'Unknown Error!', 00H			; `string'
CONST	ENDS
;	COMDAT ??_C@_0O@BAEJJDKB@UNKNOWN_ERROR@
CONST	SEGMENT
??_C@_0O@BAEJJDKB@UNKNOWN_ERROR@ DB 'UNKNOWN_ERROR', 00H ; `string'
CONST	ENDS
;	COMDAT ??_C@_0CB@JLAAEKGJ@CreateDevice?3?5GetDevCaps2?5faile@
CONST	SEGMENT
??_C@_0CB@JLAAEKGJ@CreateDevice?3?5GetDevCaps2?5faile@ DB 'CreateDevice: '
	DB	'GetDevCaps2 failed', 00H			; `string'
CONST	ENDS
;	COMDAT ??_C@_0BD@IHNLMMLJ@GetDevCaps2?5failed@
CONST	SEGMENT
??_C@_0BD@IHNLMMLJ@GetDevCaps2?5failed@ DB 'GetDevCaps2 failed', 00H ; `string'
CONST	ENDS
;	COMDAT ??_C@_0CA@DLHDILBB@CreateDevice?3?5GetDevCaps?5failed@
CONST	SEGMENT
??_C@_0CA@DLHDILBB@CreateDevice?3?5GetDevCaps?5failed@ DB 'CreateDevice: '
	DB	'GetDevCaps failed', 00H			; `string'
CONST	ENDS
;	COMDAT ??_C@_0BC@IMJEDJEA@GetDevCaps?5failed@
CONST	SEGMENT
??_C@_0BC@IMJEDJEA@GetDevCaps?5failed@ DB 'GetDevCaps failed', 00H ; `string'
CONST	ENDS
;	COMDAT ??_C@_0CH@DEBFNBPL@CreateDevice?3?5Change?5the?5screen@
CONST	SEGMENT
??_C@_0CH@DEBFNBPL@CreateDevice?3?5Change?5the?5screen@ DB 'CreateDevice:'
	DB	' Change the screen format', 00H		; `string'
CONST	ENDS
;	COMDAT ??_C@_0O@DAEHMKOB@CREATE_FORMAT@
CONST	SEGMENT
??_C@_0O@DAEHMKOB@CREATE_FORMAT@ DB 'CREATE_FORMAT', 00H ; `string'
CONST	ENDS
;	COMDAT ??_C@_0CK@KMPBIDGP@CreateDevice?3?5GraphicDevice?5cre@
CONST	SEGMENT
??_C@_0CK@KMPBIDGP@CreateDevice?3?5GraphicDevice?5cre@ DB 'CreateDevice: '
	DB	'GraphicDevice create failed', 00H		; `string'
CONST	ENDS
;	COMDAT ??_C@_0O@CMPMDOEH@CREATE_DEVICE@
CONST	SEGMENT
??_C@_0O@CMPMDOEH@CREATE_DEVICE@ DB 'CREATE_DEVICE', 00H ; `string'
CONST	ENDS
;	COMDAT ??_C@_0DK@GACPAJMM@CreateDevice?3?5DirectX?58?41?5or?5gr@
CONST	SEGMENT
??_C@_0DK@GACPAJMM@CreateDevice?3?5DirectX?58?41?5or?5gr@ DB 'CreateDevic'
	DB	'e: DirectX 8.1 or greater required to run game', 00H ; `string'
CONST	ENDS
;	COMDAT ??_C@_0BC@NKAKBNDM@CREATE_NO_DIRECTX@
CONST	SEGMENT
??_C@_0BC@NKAKBNDM@CREATE_NO_DIRECTX@ DB 'CREATE_NO_DIRECTX', 00H ; `string'
CONST	ENDS
;	COMDAT ??_C@_0CD@GGLEAAKE@CreateDevice?3?5Enum?5?$CG?5Detect?5fai@
CONST	SEGMENT
??_C@_0CD@GGLEAAKE@CreateDevice?3?5Enum?5?$CG?5Detect?5fai@ DB 'CreateDev'
	DB	'ice: Enum & Detect failed', 00H		; `string'
CONST	ENDS
;	COMDAT ??_C@_0BN@OAKBEJJN@CREATE_NO_APPROPRIATE_DEVICE@
CONST	SEGMENT
??_C@_0BN@OAKBEJJN@CREATE_NO_APPROPRIATE_DEVICE@ DB 'CREATE_NO_APPROPRIAT'
	DB	'E_DEVICE', 00H				; `string'
CONST	ENDS
;	COMDAT ??_C@_0M@MOGGPFAH@WARN_NO_TNL@
CONST	SEGMENT
??_C@_0M@MOGGPFAH@WARN_NO_TNL@ DB 'WARN_NO_TNL', 00H	; `string'
CONST	ENDS
;	COMDAT ??_C@_0BA@NOHKOOIE@WARN_BAD_DRIVER@
CONST	SEGMENT
??_C@_0BA@NOHKOOIE@WARN_BAD_DRIVER@ DB 'WARN_BAD_DRIVER', 00H ; `string'
CONST	ENDS
;	COMDAT ??_C@_0BD@OJBILBDC@FrameSkip?5?$LK?$LI?A?$KE?5?$CFd?6@
CONST	SEGMENT
??_C@_0BD@OJBILBDC@FrameSkip?5?$LK?$LI?A?$KE?5?$CFd?6@ DB 'FrameSkip ', 0baH
	DB	0b8H, 0c1H, 0a4H, ' %d', 0aH, 00H		; `string'
CONST	ENDS
;	COMDAT ?s_fAveRenderTime@?EL@??Process@CPythonApplication@@QAE_NXZ@4MA
_DATA	SEGMENT
?s_fAveRenderTime@?EL@??Process@CPythonApplication@@QAE_NXZ@4MA DD 041800000r ; 16 ; `CPythonApplication::Process'::`75'::s_fAveRenderTime
_DATA	ENDS
;	COMDAT ??_C@_0L@PAGGCBDD@GU?4POS?5?$CFd?6@
CONST	SEGMENT
??_C@_0L@PAGGCBDD@GU?4POS?5?$CFd?6@ DB 'GU.POS %d', 0aH, 00H ; `string'
CONST	ENDS
;	COMDAT ??_C@_0L@KNCOIAL@GU?4PLR?5?$CFd?6@
CONST	SEGMENT
??_C@_0L@KNCOIAL@GU?4PLR?5?$CFd?6@ DB 'GU.PLR %d', 0aH, 00H ; `string'
CONST	ENDS
;	COMDAT ??_C@_0L@MPJHKAOM@GU?4ITM?5?$CFd?6@
CONST	SEGMENT
??_C@_0L@MPJHKAOM@GU?4ITM?5?$CFd?6@ DB 'GU.ITM %d', 0aH, 00H ; `string'
CONST	ENDS
;	COMDAT ??_C@_0L@NKMBCAGE@GU?4FLY?5?$CFd?6@
CONST	SEGMENT
??_C@_0L@NKMBCAGE@GU?4FLY?5?$CFd?6@ DB 'GU.FLY %d', 0aH, 00H ; `string'
CONST	ENDS
;	COMDAT ??_C@_0L@EMKAGLBH@GU?4EFT?5?$CFd?6@
CONST	SEGMENT
??_C@_0L@EMKAGLBH@GU?4EFT?5?$CFd?6@ DB 'GU.EFT %d', 0aH, 00H ; `string'
CONST	ENDS
;	COMDAT ??_C@_0L@MKJPKNA@GU?4CHR?5?$CFd?6@
CONST	SEGMENT
??_C@_0L@MKJPKNA@GU?4CHR?5?$CFd?6@ DB 'GU.CHR %d', 0aH, 00H ; `string'
CONST	ENDS
;	COMDAT ??_C@_0L@BLLECFKE@GU?4GEM?5?$CFd?6@
CONST	SEGMENT
??_C@_0L@BLLECFKE@GU?4GEM?5?$CFd?6@ DB 'GU.GEM %d', 0aH, 00H ; `string'
CONST	ENDS
;	COMDAT ??_C@_09JGPPFKPH@GU?4BG?5?$CFd?6@
CONST	SEGMENT
??_C@_09JGPPFKPH@GU?4BG?5?$CFd?6@ DB 'GU.BG %d', 0aH, 00H ; `string'
CONST	ENDS
;	COMDAT ??_C@_0L@IGEOOJOO@GU?4MPS?5?$CFd?6@
CONST	SEGMENT
??_C@_0L@IGEOOJOO@GU?4MPS?5?$CFd?6@ DB 'GU.MPS %d', 0aH, 00H ; `string'
CONST	ENDS
;	COMDAT ??_C@_0L@HCBFJPAB@GU?4SCR?5?$CFd?6@
CONST	SEGMENT
??_C@_0L@HCBFJPAB@GU?4SCR?5?$CFd?6@ DB 'GU.SCR %d', 0aH, 00H ; `string'
CONST	ENDS
;	COMDAT ??_C@_0L@JHBDHKIG@GU?4GMP?5?$CFd?6@
CONST	SEGMENT
??_C@_0L@JHBDHKIG@GU?4GMP?5?$CFd?6@ DB 'GU.GMP %d', 0aH, 00H ; `string'
CONST	ENDS
;	COMDAT ??_C@_0BH@HPIDKEA@GU?4Total?5?$CFd?5?$CITime?5?$CFd?$CJ?6@
CONST	SEGMENT
??_C@_0BH@HPIDKEA@GU?4Total?5?$CFd?5?$CITime?5?$CFd?$CJ?6@ DB 'GU.Total %'
	DB	'd (Time %d)', 0aH, 00H			; `string'
CONST	ENDS
;	COMDAT ??_C@_0BF@NHIIGIH@perf_game_update?4txt@
CONST	SEGMENT
??_C@_0BF@NHIIGIH@perf_game_update?4txt@ DB 'perf_game_update.txt', 00H ; `string'
CONST	ENDS
;	COMDAT ??_C@_0O@EEAHGPFP@GR?4BG?4BLK?5?$CFd?6@
CONST	SEGMENT
??_C@_0O@EEAHGPFP@GR?4BG?4BLK?5?$CFd?6@ DB 'GR.BG.BLK %d', 0aH, 00H ; `string'
CONST	ENDS
;	COMDAT ??_C@_0L@DIBNDLBN@GR?4FLY?5?$CFd?6@
CONST	SEGMENT
??_C@_0L@DIBNDLBN@GR?4FLY?5?$CFd?6@ DB 'GR.FLY %d', 0aH, 00H ; `string'
CONST	ENDS
;	COMDAT ??_C@_0L@CNELLLJF@GR?4ITM?5?$CFd?6@
CONST	SEGMENT
??_C@_0L@CNELLLJF@GR?4ITM?5?$CFd?6@ DB 'GR.ITM %d', 0aH, 00H ; `string'
CONST	ENDS
;	COMDAT ??_C@_0L@KOHMHAGO@GR?4EFT?5?$CFd?6@
CONST	SEGMENT
??_C@_0L@KOHMHAGO@GR?4EFT?5?$CFd?6@ DB 'GR.EFT %d', 0aH, 00H ; `string'
CONST	ENDS
;	COMDAT ??_C@_0O@BIDCIJEG@GR?4BG?4EFT?5?$CFd?6@
CONST	SEGMENT
??_C@_0O@BIDCIJEG@GR?4BG?4EFT?5?$CFd?6@ DB 'GR.BG.EFT %d', 0aH, 00H ; `string'
CONST	ENDS
;	COMDAT ??_C@_0O@LENBOK@GR?4BG?4WTR?5?$CFd?6@
CONST	SEGMENT
??_C@_0O@LENBOK@GR?4BG?4WTR?5?$CFd?6@ DB 'GR.BG.WTR %d', 0aH, 00H ; `string'
CONST	ENDS
;	COMDAT ??_C@_0L@OOHFOBKJ@GR?4CHR?5?$CFd?6@
CONST	SEGMENT
??_C@_0L@OOHFOBKJ@GR?4CHR?5?$CFd?6@ DB 'GR.CHR %d', 0aH, 00H ; `string'
CONST	ENDS
;	COMDAT ??_C@_0P@EJKDFAIB@GR?4BG?4MAIN?5?$CFd?6@
CONST	SEGMENT
??_C@_0P@EJKDFAIB@GR?4BG?4MAIN?5?$CFd?6@ DB 'GR.BG.MAIN %d', 0aH, 00H ; `string'
CONST	ENDS
;	COMDAT ??_C@_0O@HJPLNNBE@GR?4BG?4CLD?5?$CFd?6@
CONST	SEGMENT
??_C@_0O@HJPLNNBE@GR?4BG?4CLD?5?$CFd?6@ DB 'GR.BG.CLD %d', 0aH, 00H ; `string'
CONST	ENDS
;	COMDAT ??_C@_0O@JENIKJAN@GR?4BG?4LEN?5?$CFd?6@
CONST	SEGMENT
??_C@_0O@JENIKJAN@GR?4BG?4LEN?5?$CFd?6@ DB 'GR.BG.LEN %d', 0aH, 00H ; `string'
CONST	ENDS
;	COMDAT ??_C@_0O@HPKPMDPE@GR?4BG?4SKY?5?$CFd?6@
CONST	SEGMENT
??_C@_0O@HPKPMDPE@GR?4BG?4SKY?5?$CFd?6@ DB 'GR.BG.SKY %d', 0aH, 00H ; `string'
CONST	ENDS
;	COMDAT ??_C@_0L@CDOGKGFB@GR?4CLL?5?$CFd?6@
CONST	SEGMENT
??_C@_0L@CDOGKGFB@GR?4CLL?5?$CFd?6@ DB 'GR.CLL %d', 0aH, 00H ; `string'
CONST	ENDS
;	COMDAT ??_C@_0L@OEOJMFCF@GR?4STT?5?$CFd?6@
CONST	SEGMENT
??_C@_0L@OEOJMFCF@GR?4STT?5?$CFd?6@ DB 'GR.STT %d', 0aH, 00H ; `string'
CONST	ENDS
;	COMDAT ??_C@_0L@MCADEBDB@GR?4SHW?5?$CFd?6@
CONST	SEGMENT
??_C@_0L@MCADEBDB@GR?4SHW?5?$CFd?6@ DB 'GR.SHW %d', 0aH, 00H ; `string'
CONST	ENDS
;	COMDAT ??_C@_0O@PLGAMGBI@GR?4EFT?4UP?5?$CFd?6@
CONST	SEGMENT
??_C@_0O@PLGAMGBI@GR?4EFT?4UP?5?$CFd?6@ DB 'GR.EFT.UP %d', 0aH, 00H ; `string'
CONST	ENDS
;	COMDAT ??_C@_0L@EGAPCDKD@GR?4DFM?5?$CFd?6@
CONST	SEGMENT
??_C@_0L@EGAPCDKD@GR?4DFM?5?$CFd?6@ DB 'GR.DFM %d', 0aH, 00H ; `string'
CONST	ENDS
;	COMDAT ??_C@_0BH@GCCBAEAA@GR?4Total?5?$CFd?5?$CITime?5?$CFd?$CJ?6@
CONST	SEGMENT
??_C@_0BH@GCCBAEAA@GR?4Total?5?$CFd?5?$CITime?5?$CFd?$CJ?6@ DB 'GR.Total '
	DB	'%d (Time %d)', 0aH, 00H			; `string'
CONST	ENDS
;	COMDAT ??_C@_0BF@OHHAPIAL@perf_game_render?4txt@
CONST	SEGMENT
??_C@_0BF@OHHAPIAL@perf_game_render?4txt@ DB 'perf_game_render.txt', 00H ; `string'
CONST	ENDS
;	COMDAT ??_C@_01NOFIACDB@w@
CONST	SEGMENT
??_C@_01NOFIACDB@w@ DB 'w', 00H				; `string'
CONST	ENDS
;	COMDAT ??_C@_0M@EHJKIBDK@Abort?$CB?$CB?$CB?$CB?6?6@
CONST	SEGMENT
??_C@_0M@EHJKIBDK@Abort?$CB?$CB?$CB?$CB?6?6@ DB 'Abort!!!!', 0aH, 0aH, 00H ; `string'
CONST	ENDS
;	COMDAT ??_C@_0GN@LLBDNFAM@?$DN?$DN?$DN?$DN?$DN?$DN?$DN?$DN?$DN?$DN?$DN?$DN?$DN?$DN?$DN?$DN?$DN?$DN?$DN?$DN?$DN?$DN?$DN?$DN?$DN?$DN?$DN?$DN?$DN?$DN?$DN@
CONST	SEGMENT
??_C@_0GN@LLBDNFAM@?$DN?$DN?$DN?$DN?$DN?$DN?$DN?$DN?$DN?$DN?$DN?$DN?$DN?$DN?$DN?$DN?$DN?$DN?$DN?$DN?$DN?$DN?$DN?$DN?$DN?$DN?$DN?$DN?$DN?$DN?$DN@ DB '='
	DB	'============================================================='
	DB	'==============================================', 00H ; `string'
CONST	ENDS
;	COMDAT ??_7CPythonApplication@@6BIAbstractApplication@@@
CONST	SEGMENT
??_7CPythonApplication@@6BIAbstractApplication@@@ DD FLAT:??_R4CPythonApplication@@6BIAbstractApplication@@@ ; CPythonApplication::`vftable'
	DD	FLAT:??_ECPythonApplication@@WCA@AEPAXI@Z
	DD	FLAT:?GetMousePosition@CPythonApplication@@UAEXPAUtagPOINT@@@Z
	DD	FLAT:?GetGlobalTime@CPythonApplication@@UAEMXZ
	DD	FLAT:?GetGlobalElapsedTime@CPythonApplication@@UAEMXZ
	DD	FLAT:?SkipRenderBuffering@CPythonApplication@@UAEXK@Z
	DD	FLAT:?SetServerTime@CPythonApplication@@UAEXJ@Z
	DD	FLAT:?SetCenterPosition@CPythonApplication@@UAEXMMM@Z
	DD	FLAT:?SetEventCamera@CPythonApplication@@UAEXABUSCameraSetting@IAbstractApplication@@@Z
	DD	FLAT:?BlendEventCamera@CPythonApplication@@UAEXABUSCameraSetting@IAbstractApplication@@M@Z
	DD	FLAT:?SetDefaultCamera@CPythonApplication@@UAEXXZ
	DD	FLAT:?RunIMEUpdate@CPythonApplication@@UAEXXZ
	DD	FLAT:?RunIMETabEvent@CPythonApplication@@UAEXXZ
	DD	FLAT:?RunIMEReturnEvent@CPythonApplication@@UAEXXZ
	DD	FLAT:?RunIMEChangeCodePage@CPythonApplication@@UAEXXZ
	DD	FLAT:?RunIMEOpenCandidateListEvent@CPythonApplication@@UAEXXZ
	DD	FLAT:?RunIMECloseCandidateListEvent@CPythonApplication@@UAEXXZ
	DD	FLAT:?RunIMEOpenReadingWndEvent@CPythonApplication@@UAEXXZ
	DD	FLAT:?RunIMECloseReadingWndEvent@CPythonApplication@@UAEXXZ
CONST	ENDS
;	COMDAT ??_7CPythonApplication@@6BCInputKeyboard@@@
CONST	SEGMENT
??_7CPythonApplication@@6BCInputKeyboard@@@ DD FLAT:??_R4CPythonApplication@@6BCInputKeyboard@@@ ; CPythonApplication::`vftable'
	DD	FLAT:??_ECPythonApplication@@WBM@AEPAXI@Z
	DD	FLAT:?OnKeyDown@CPythonApplication@@MAEXH@Z
	DD	FLAT:?OnKeyUp@CPythonApplication@@MAEXH@Z
CONST	ENDS
;	COMDAT ??_7CPythonApplication@@6BCMSApplication@@@
CONST	SEGMENT
??_7CPythonApplication@@6BCMSApplication@@@ DD FLAT:??_R4CPythonApplication@@6BCMSApplication@@@ ; CPythonApplication::`vftable'
	DD	FLAT:??_ECPythonApplication@@UAEPAXI@Z
	DD	FLAT:?WindowProcedure@CPythonApplication@@MAEJPAUHWND__@@IIJ@Z
	DD	FLAT:?OnSize@CMSWindow@@UAEXIJ@Z
CONST	ENDS
;	COMDAT ??_7CMovieMan@@6B@
CONST	SEGMENT
??_7CMovieMan@@6B@ DD FLAT:??_R4CMovieMan@@6B@		; CMovieMan::`vftable'
	DD	FLAT:??_ECMovieMan@@UAEPAXI@Z
CONST	ENDS
;	COMDAT ??_7?$CSingleton@VCMovieMan@@@@6B@
CONST	SEGMENT
??_7?$CSingleton@VCMovieMan@@@@6B@ DD FLAT:??_R4?$CSingleton@VCMovieMan@@@@6B@ ; CSingleton<CMovieMan>::`vftable'
	DD	FLAT:??_E?$CSingleton@VCMovieMan@@@@UAEPAXI@Z
CONST	ENDS
;	COMDAT ??_7IAbstractApplication@@6B@
CONST	SEGMENT
??_7IAbstractApplication@@6B@ DD FLAT:??_R4IAbstractApplication@@6B@ ; IAbstractApplication::`vftable'
	DD	FLAT:??_EIAbstractApplication@@UAEPAXI@Z
	DD	FLAT:__purecall
	DD	FLAT:__purecall
	DD	FLAT:__purecall
	DD	FLAT:__purecall
	DD	FLAT:__purecall
	DD	FLAT:__purecall
	DD	FLAT:__purecall
	DD	FLAT:__purecall
	DD	FLAT:__purecall
	DD	FLAT:__purecall
	DD	FLAT:__purecall
	DD	FLAT:__purecall
	DD	FLAT:__purecall
	DD	FLAT:__purecall
	DD	FLAT:__purecall
	DD	FLAT:__purecall
	DD	FLAT:__purecall
CONST	ENDS
;	COMDAT ??_7?$TAbstractSingleton@VIAbstractApplication@@@@6B@
CONST	SEGMENT
??_7?$TAbstractSingleton@VIAbstractApplication@@@@6B@ DD FLAT:??_R4?$TAbstractSingleton@VIAbstractApplication@@@@6B@ ; TAbstractSingleton<IAbstractApplication>::`vftable'
	DD	FLAT:??_E?$TAbstractSingleton@VIAbstractApplication@@@@UAEPAXI@Z
CONST	ENDS
;	COMDAT ?ms_kPool@?$CPooledObject@VCRotationDecorator@NEffectUpdateDecorator@@@@1V?$CDynamicPoolEx@VCRotationDecorator@NEffectUpdateDecorator@@@@A
_DATA	SEGMENT
?ms_kPool@?$CPooledObject@VCRotationDecorator@NEffectUpdateDecorator@@@@1V?$CDynamicPoolEx@VCRotationDecorator@NEffectUpdateDecorator@@@@A DD FLAT:??_7?$CDynamicPoolEx@VCRotationDecorator@NEffectUpdateDecorator@@@@6B@ ; CPooledObject<NEffectUpdateDecorator::CRotationDecorator>::ms_kPool
	DD	00H
	DD	00H
	DD	00H
	DD	00H
	DD	00H
	DD	00H
	DD	00H
	DD	00H
_DATA	ENDS
;	COMDAT ?ms_kPool@?$CPooledObject@VCGravityDecorator@NEffectUpdateDecorator@@@@1V?$CDynamicPoolEx@VCGravityDecorator@NEffectUpdateDecorator@@@@A
_DATA	SEGMENT
?ms_kPool@?$CPooledObject@VCGravityDecorator@NEffectUpdateDecorator@@@@1V?$CDynamicPoolEx@VCGravityDecorator@NEffectUpdateDecorator@@@@A DD FLAT:??_7?$CDynamicPoolEx@VCGravityDecorator@NEffectUpdateDecorator@@@@6B@ ; CPooledObject<NEffectUpdateDecorator::CGravityDecorator>::ms_kPool
	DD	00H
	DD	00H
	DD	00H
	DD	00H
	DD	00H
	DD	00H
	DD	00H
	DD	00H
_DATA	ENDS
;	COMDAT ?ms_kPool@?$CPooledObject@VCAirResistanceDecorator@NEffectUpdateDecorator@@@@1V?$CDynamicPoolEx@VCAirResistanceDecorator@NEffectUpdateDecorator@@@@A
_DATA	SEGMENT
?ms_kPool@?$CPooledObject@VCAirResistanceDecorator@NEffectUpdateDecorator@@@@1V?$CDynamicPoolEx@VCAirResistanceDecorator@NEffectUpdateDecorator@@@@A DD FLAT:??_7?$CDynamicPoolEx@VCAirResistanceDecorator@NEffectUpdateDecorator@@@@6B@ ; CPooledObject<NEffectUpdateDecorator::CAirResistanceDecorator>::ms_kPool
	DD	00H
	DD	00H
	DD	00H
	DD	00H
	DD	00H
	DD	00H
	DD	00H
	DD	00H
_DATA	ENDS
;	COMDAT ?ms_kPool@?$CPooledObject@VCTextureAnimationRandomDecorator@NEffectUpdateDecorator@@@@1V?$CDynamicPoolEx@VCTextureAnimationRandomDecorator@NEffectUpdateDecorator@@@@A
_DATA	SEGMENT
?ms_kPool@?$CPooledObject@VCTextureAnimationRandomDecorator@NEffectUpdateDecorator@@@@1V?$CDynamicPoolEx@VCTextureAnimationRandomDecorator@NEffectUpdateDecorator@@@@A DD FLAT:??_7?$CDynamicPoolEx@VCTextureAnimationRandomDecorator@NEffectUpdateDecorator@@@@6B@ ; CPooledObject<NEffectUpdateDecorator::CTextureAnimationRandomDecorator>::ms_kPool
	DD	00H
	DD	00H
	DD	00H
	DD	00H
	DD	00H
	DD	00H
	DD	00H
	DD	00H
_DATA	ENDS
;	COMDAT ?ms_kPool@?$CPooledObject@VCTextureAnimationCCWDecorator@NEffectUpdateDecorator@@@@1V?$CDynamicPoolEx@VCTextureAnimationCCWDecorator@NEffectUpdateDecorator@@@@A
_DATA	SEGMENT
?ms_kPool@?$CPooledObject@VCTextureAnimationCCWDecorator@NEffectUpdateDecorator@@@@1V?$CDynamicPoolEx@VCTextureAnimationCCWDecorator@NEffectUpdateDecorator@@@@A DD FLAT:??_7?$CDynamicPoolEx@VCTextureAnimationCCWDecorator@NEffectUpdateDecorator@@@@6B@ ; CPooledObject<NEffectUpdateDecorator::CTextureAnimationCCWDecorator>::ms_kPool
	DD	00H
	DD	00H
	DD	00H
	DD	00H
	DD	00H
	DD	00H
	DD	00H
	DD	00H
_DATA	ENDS
;	COMDAT ?ms_kPool@?$CPooledObject@VCTextureAnimationCWDecorator@NEffectUpdateDecorator@@@@1V?$CDynamicPoolEx@VCTextureAnimationCWDecorator@NEffectUpdateDecorator@@@@A
_DATA	SEGMENT
?ms_kPool@?$CPooledObject@VCTextureAnimationCWDecorator@NEffectUpdateDecorator@@@@1V?$CDynamicPoolEx@VCTextureAnimationCWDecorator@NEffectUpdateDecorator@@@@A DD FLAT:??_7?$CDynamicPoolEx@VCTextureAnimationCWDecorator@NEffectUpdateDecorator@@@@6B@ ; CPooledObject<NEffectUpdateDecorator::CTextureAnimationCWDecorator>::ms_kPool
	DD	00H
	DD	00H
	DD	00H
	DD	00H
	DD	00H
	DD	00H
	DD	00H
	DD	00H
_DATA	ENDS
;	COMDAT ?ms_kPool@?$CPooledObject@VCNullDecorator@NEffectUpdateDecorator@@@@1V?$CDynamicPoolEx@VCNullDecorator@NEffectUpdateDecorator@@@@A
_DATA	SEGMENT
?ms_kPool@?$CPooledObject@VCNullDecorator@NEffectUpdateDecorator@@@@1V?$CDynamicPoolEx@VCNullDecorator@NEffectUpdateDecorator@@@@A DD FLAT:??_7?$CDynamicPoolEx@VCNullDecorator@NEffectUpdateDecorator@@@@6B@ ; CPooledObject<NEffectUpdateDecorator::CNullDecorator>::ms_kPool
	DD	00H
	DD	00H
	DD	00H
	DD	00H
	DD	00H
	DD	00H
	DD	00H
	DD	00H
_DATA	ENDS
;	COMDAT ?ms_kPool@?$CPooledObject@VCHeaderDecorator@NEffectUpdateDecorator@@@@1V?$CDynamicPoolEx@VCHeaderDecorator@NEffectUpdateDecorator@@@@A
_DATA	SEGMENT
?ms_kPool@?$CPooledObject@VCHeaderDecorator@NEffectUpdateDecorator@@@@1V?$CDynamicPoolEx@VCHeaderDecorator@NEffectUpdateDecorator@@@@A DD FLAT:??_7?$CDynamicPoolEx@VCHeaderDecorator@NEffectUpdateDecorator@@@@6B@ ; CPooledObject<NEffectUpdateDecorator::CHeaderDecorator>::ms_kPool
	DD	00H
	DD	00H
	DD	00H
	DD	00H
	DD	00H
	DD	00H
	DD	00H
	DD	00H
_DATA	ENDS
;	COMDAT ??_R1A@?0A@EA@bad_array_new_length@std@@8
rdata$r	SEGMENT
??_R1A@?0A@EA@bad_array_new_length@std@@8 DD FLAT:??_R0?AVbad_array_new_length@std@@@8 ; std::bad_array_new_length::`RTTI Base Class Descriptor at (0,-1,0,64)'
	DD	02H
	DD	00H
	DD	0ffffffffH
	DD	00H
	DD	040H
	DD	FLAT:??_R3bad_array_new_length@std@@8
rdata$r	ENDS
;	COMDAT ??_R2bad_array_new_length@std@@8
rdata$r	SEGMENT
??_R2bad_array_new_length@std@@8 DD FLAT:??_R1A@?0A@EA@bad_array_new_length@std@@8 ; std::bad_array_new_length::`RTTI Base Class Array'
	DD	FLAT:??_R1A@?0A@EA@bad_alloc@std@@8
	DD	FLAT:??_R1A@?0A@EA@exception@std@@8
rdata$r	ENDS
;	COMDAT ??_R3bad_array_new_length@std@@8
rdata$r	SEGMENT
??_R3bad_array_new_length@std@@8 DD 00H			; std::bad_array_new_length::`RTTI Class Hierarchy Descriptor'
	DD	00H
	DD	03H
	DD	FLAT:??_R2bad_array_new_length@std@@8
rdata$r	ENDS
;	COMDAT ??_R4bad_array_new_length@std@@6B@
rdata$r	SEGMENT
??_R4bad_array_new_length@std@@6B@ DD 00H		; std::bad_array_new_length::`RTTI Complete Object Locator'
	DD	00H
	DD	00H
	DD	FLAT:??_R0?AVbad_array_new_length@std@@@8
	DD	FLAT:??_R3bad_array_new_length@std@@8
rdata$r	ENDS
;	COMDAT ??_R1A@?0A@EA@bad_alloc@std@@8
rdata$r	SEGMENT
??_R1A@?0A@EA@bad_alloc@std@@8 DD FLAT:??_R0?AVbad_alloc@std@@@8 ; std::bad_alloc::`RTTI Base Class Descriptor at (0,-1,0,64)'
	DD	01H
	DD	00H
	DD	0ffffffffH
	DD	00H
	DD	040H
	DD	FLAT:??_R3bad_alloc@std@@8
rdata$r	ENDS
;	COMDAT ??_R2bad_alloc@std@@8
rdata$r	SEGMENT
??_R2bad_alloc@std@@8 DD FLAT:??_R1A@?0A@EA@bad_alloc@std@@8 ; std::bad_alloc::`RTTI Base Class Array'
	DD	FLAT:??_R1A@?0A@EA@exception@std@@8
rdata$r	ENDS
;	COMDAT ??_R3bad_alloc@std@@8
rdata$r	SEGMENT
??_R3bad_alloc@std@@8 DD 00H				; std::bad_alloc::`RTTI Class Hierarchy Descriptor'
	DD	00H
	DD	02H
	DD	FLAT:??_R2bad_alloc@std@@8
rdata$r	ENDS
;	COMDAT ??_R4bad_alloc@std@@6B@
rdata$r	SEGMENT
??_R4bad_alloc@std@@6B@ DD 00H				; std::bad_alloc::`RTTI Complete Object Locator'
	DD	00H
	DD	00H
	DD	FLAT:??_R0?AVbad_alloc@std@@@8
	DD	FLAT:??_R3bad_alloc@std@@8
rdata$r	ENDS
;	COMDAT ??_R1A@?0A@EA@exception@std@@8
rdata$r	SEGMENT
??_R1A@?0A@EA@exception@std@@8 DD FLAT:??_R0?AVexception@std@@@8 ; std::exception::`RTTI Base Class Descriptor at (0,-1,0,64)'
	DD	00H
	DD	00H
	DD	0ffffffffH
	DD	00H
	DD	040H
	DD	FLAT:??_R3exception@std@@8
rdata$r	ENDS
;	COMDAT ??_R2exception@std@@8
rdata$r	SEGMENT
??_R2exception@std@@8 DD FLAT:??_R1A@?0A@EA@exception@std@@8 ; std::exception::`RTTI Base Class Array'
rdata$r	ENDS
;	COMDAT ??_R3exception@std@@8
rdata$r	SEGMENT
??_R3exception@std@@8 DD 00H				; std::exception::`RTTI Class Hierarchy Descriptor'
	DD	00H
	DD	01H
	DD	FLAT:??_R2exception@std@@8
rdata$r	ENDS
;	COMDAT ??_R4exception@std@@6B@
rdata$r	SEGMENT
??_R4exception@std@@6B@ DD 00H				; std::exception::`RTTI Complete Object Locator'
	DD	00H
	DD	00H
	DD	FLAT:??_R0?AVexception@std@@@8
	DD	FLAT:??_R3exception@std@@8
rdata$r	ENDS
;	COMDAT ??_C@_00CNPNBAHC@@
CONST	SEGMENT
??_C@_00CNPNBAHC@@ DB 00H				; `string'
CONST	ENDS
;	COMDAT ??_C@_0BA@JFNIOLAK@string?5too?5long@
CONST	SEGMENT
??_C@_0BA@JFNIOLAK@string?5too?5long@ DB 'string too long', 00H ; `string'
CONST	ENDS
;	COMDAT __CT??_R0?AVexception@std@@@8??0exception@std@@QAE@ABV01@@Z12
xdata$x	SEGMENT
__CT??_R0?AVexception@std@@@8??0exception@std@@QAE@ABV01@@Z12 DD 00H
	DD	FLAT:??_R0?AVexception@std@@@8
	DD	00H
	DD	0ffffffffH
	ORG $+4
	DD	0cH
	DD	FLAT:??0exception@std@@QAE@ABV01@@Z
xdata$x	ENDS
;	COMDAT ??_R0?AVexception@std@@@8
data$r	SEGMENT
??_R0?AVexception@std@@@8 DD FLAT:??_7type_info@@6B@	; std::exception `RTTI Type Descriptor'
	DD	00H
	DB	'.?AVexception@std@@', 00H
data$r	ENDS
;	COMDAT __CT??_R0?AVbad_alloc@std@@@8??0bad_alloc@std@@QAE@ABV01@@Z12
xdata$x	SEGMENT
__CT??_R0?AVbad_alloc@std@@@8??0bad_alloc@std@@QAE@ABV01@@Z12 DD 010H
	DD	FLAT:??_R0?AVbad_alloc@std@@@8
	DD	00H
	DD	0ffffffffH
	ORG $+4
	DD	0cH
	DD	FLAT:??0bad_alloc@std@@QAE@ABV01@@Z
xdata$x	ENDS
;	COMDAT ??_R0?AVbad_alloc@std@@@8
data$r	SEGMENT
??_R0?AVbad_alloc@std@@@8 DD FLAT:??_7type_info@@6B@	; std::bad_alloc `RTTI Type Descriptor'
	DD	00H
	DB	'.?AVbad_alloc@std@@', 00H
data$r	ENDS
;	COMDAT __CT??_R0?AVbad_array_new_length@std@@@8??0bad_array_new_length@std@@QAE@ABV01@@Z12
xdata$x	SEGMENT
__CT??_R0?AVbad_array_new_length@std@@@8??0bad_array_new_length@std@@QAE@ABV01@@Z12 DD 00H
	DD	FLAT:??_R0?AVbad_array_new_length@std@@@8
	DD	00H
	DD	0ffffffffH
	ORG $+4
	DD	0cH
	DD	FLAT:??0bad_array_new_length@std@@QAE@ABV01@@Z
xdata$x	ENDS
;	COMDAT ??_R0?AVbad_array_new_length@std@@@8
data$r	SEGMENT
??_R0?AVbad_array_new_length@std@@@8 DD FLAT:??_7type_info@@6B@ ; std::bad_array_new_length `RTTI Type Descriptor'
	DD	00H
	DB	'.?AVbad_array_new_length@std@@', 00H
data$r	ENDS
;	COMDAT __CTA3?AVbad_array_new_length@std@@
xdata$x	SEGMENT
__CTA3?AVbad_array_new_length@std@@ DD 03H
	DD	FLAT:__CT??_R0?AVbad_array_new_length@std@@@8??0bad_array_new_length@std@@QAE@ABV01@@Z12
	DD	FLAT:__CT??_R0?AVbad_alloc@std@@@8??0bad_alloc@std@@QAE@ABV01@@Z12
	DD	FLAT:__CT??_R0?AVexception@std@@@8??0exception@std@@QAE@ABV01@@Z12
xdata$x	ENDS
;	COMDAT __TI3?AVbad_array_new_length@std@@
xdata$x	SEGMENT
__TI3?AVbad_array_new_length@std@@ DD 00H
	DD	FLAT:??1bad_array_new_length@std@@UAE@XZ
	DD	00H
	DD	FLAT:__CTA3?AVbad_array_new_length@std@@
xdata$x	ENDS
;	COMDAT ??_C@_0BF@KINCDENJ@bad?5array?5new?5length@
CONST	SEGMENT
??_C@_0BF@KINCDENJ@bad?5array?5new?5length@ DB 'bad array new length', 00H ; `string'
CONST	ENDS
;	COMDAT ??_7bad_array_new_length@std@@6B@
CONST	SEGMENT
??_7bad_array_new_length@std@@6B@ DD FLAT:??_R4bad_array_new_length@std@@6B@ ; std::bad_array_new_length::`vftable'
	DD	FLAT:??_Ebad_array_new_length@std@@UAEPAXI@Z
	DD	FLAT:?what@exception@std@@UBEPBDXZ
CONST	ENDS
;	COMDAT ??_7bad_alloc@std@@6B@
CONST	SEGMENT
??_7bad_alloc@std@@6B@ DD FLAT:??_R4bad_alloc@std@@6B@	; std::bad_alloc::`vftable'
	DD	FLAT:??_Ebad_alloc@std@@UAEPAXI@Z
	DD	FLAT:?what@exception@std@@UBEPBDXZ
CONST	ENDS
;	COMDAT ??_C@_0BC@EOODALEL@Unknown?5exception@
CONST	SEGMENT
??_C@_0BC@EOODALEL@Unknown?5exception@ DB 'Unknown exception', 00H ; `string'
CONST	ENDS
;	COMDAT ??_7exception@std@@6B@
CONST	SEGMENT
??_7exception@std@@6B@ DD FLAT:??_R4exception@std@@6B@	; std::exception::`vftable'
	DD	FLAT:??_Eexception@std@@UAEPAXI@Z
	DD	FLAT:?what@exception@std@@UBEPBDXZ
CONST	ENDS
;	COMDAT xdata$x
xdata$x	SEGMENT
__unwindtable$?Process@CPythonApplication@@QAE_NXZ DD 0ffffffffH
	DD	FLAT:__unwindfunclet$?Process@CPythonApplication@@QAE_NXZ$0
	DD	0ffffffffH
	DD	FLAT:__unwindfunclet$?Process@CPythonApplication@@QAE_NXZ$1
__ehfuncinfo$?Process@CPythonApplication@@QAE_NXZ DD 019930522H
	DD	02H
	DD	FLAT:__unwindtable$?Process@CPythonApplication@@QAE_NXZ
	DD	2 DUP(00H)
	DD	2 DUP(00H)
	DD	00H
	DD	01H
xdata$x	ENDS
;	COMDAT xdata$x
xdata$x	SEGMENT
__unwindtable$?UpdateGame@CPythonApplication@@QAEXXZ DD 0ffffffffH
	DD	FLAT:__unwindfunclet$?UpdateGame@CPythonApplication@@QAEXXZ$0
__ehfuncinfo$?UpdateGame@CPythonApplication@@QAEXXZ DD 019930522H
	DD	01H
	DD	FLAT:__unwindtable$?UpdateGame@CPythonApplication@@QAEXXZ
	DD	2 DUP(00H)
	DD	2 DUP(00H)
	DD	00H
	DD	01H
xdata$x	ENDS
;	COMDAT xdata$x
xdata$x	SEGMENT
__ehfuncinfo$??0CPythonApplication@@QAE@XZ DD 019930522H
	DD	02bH
	DD	FLAT:__unwindtable$??0CPythonApplication@@QAE@XZ
	DD	2 DUP(00H)
	DD	2 DUP(00H)
	DD	00H
	DD	01H
__unwindtable$??0CPythonApplication@@QAE@XZ DD 0ffffffffH
	DD	FLAT:__unwindfunclet$??0CPythonApplication@@QAE@XZ$0
	DD	00H
	DD	FLAT:__unwindfunclet$??0CPythonApplication@@QAE@XZ$1
	DD	01H
	DD	FLAT:__unwindfunclet$??0CPythonApplication@@QAE@XZ$2
	DD	02H
	DD	FLAT:__unwindfunclet$??0CPythonApplication@@QAE@XZ$3
	DD	03H
	DD	FLAT:__unwindfunclet$??0CPythonApplication@@QAE@XZ$4
	DD	04H
	DD	FLAT:__unwindfunclet$??0CPythonApplication@@QAE@XZ$5
	DD	05H
	DD	FLAT:__unwindfunclet$??0CPythonApplication@@QAE@XZ$6
	DD	06H
	DD	FLAT:__unwindfunclet$??0CPythonApplication@@QAE@XZ$7
	DD	07H
	DD	FLAT:__unwindfunclet$??0CPythonApplication@@QAE@XZ$8
	DD	08H
	DD	FLAT:__unwindfunclet$??0CPythonApplication@@QAE@XZ$9
	DD	09H
	DD	FLAT:__unwindfunclet$??0CPythonApplication@@QAE@XZ$10
	DD	0aH
	DD	FLAT:__unwindfunclet$??0CPythonApplication@@QAE@XZ$11
	DD	0bH
	DD	FLAT:__unwindfunclet$??0CPythonApplication@@QAE@XZ$12
	DD	0cH
	DD	FLAT:__unwindfunclet$??0CPythonApplication@@QAE@XZ$13
	DD	0dH
	DD	FLAT:__unwindfunclet$??0CPythonApplication@@QAE@XZ$14
	DD	0eH
	DD	FLAT:__unwindfunclet$??0CPythonApplication@@QAE@XZ$15
	DD	0fH
	DD	FLAT:__unwindfunclet$??0CPythonApplication@@QAE@XZ$16
	DD	010H
	DD	FLAT:__unwindfunclet$??0CPythonApplication@@QAE@XZ$17
	DD	011H
	DD	FLAT:__unwindfunclet$??0CPythonApplication@@QAE@XZ$18
	DD	012H
	DD	FLAT:__unwindfunclet$??0CPythonApplication@@QAE@XZ$19
	DD	013H
	DD	FLAT:__unwindfunclet$??0CPythonApplication@@QAE@XZ$20
	DD	014H
	DD	FLAT:__unwindfunclet$??0CPythonApplication@@QAE@XZ$21
	DD	015H
	DD	FLAT:__unwindfunclet$??0CPythonApplication@@QAE@XZ$22
	DD	016H
	DD	FLAT:__unwindfunclet$??0CPythonApplication@@QAE@XZ$23
	DD	017H
	DD	FLAT:__unwindfunclet$??0CPythonApplication@@QAE@XZ$24
	DD	018H
	DD	FLAT:__unwindfunclet$??0CPythonApplication@@QAE@XZ$25
	DD	019H
	DD	FLAT:__unwindfunclet$??0CPythonApplication@@QAE@XZ$26
	DD	01aH
	DD	FLAT:__unwindfunclet$??0CPythonApplication@@QAE@XZ$27
	DD	01bH
	DD	FLAT:__unwindfunclet$??0CPythonApplication@@QAE@XZ$28
	DD	01cH
	DD	FLAT:__unwindfunclet$??0CPythonApplication@@QAE@XZ$29
	DD	01dH
	DD	FLAT:__unwindfunclet$??0CPythonApplication@@QAE@XZ$30
	DD	01eH
	DD	FLAT:__unwindfunclet$??0CPythonApplication@@QAE@XZ$31
	DD	01fH
	DD	FLAT:__unwindfunclet$??0CPythonApplication@@QAE@XZ$32
	DD	020H
	DD	FLAT:__unwindfunclet$??0CPythonApplication@@QAE@XZ$33
	DD	021H
	DD	FLAT:__unwindfunclet$??0CPythonApplication@@QAE@XZ$34
	DD	022H
	DD	FLAT:__unwindfunclet$??0CPythonApplication@@QAE@XZ$35
	DD	023H
	DD	FLAT:__unwindfunclet$??0CPythonApplication@@QAE@XZ$36
	DD	024H
	DD	FLAT:__unwindfunclet$??0CPythonApplication@@QAE@XZ$37
	DD	025H
	DD	FLAT:__unwindfunclet$??0CPythonApplication@@QAE@XZ$38
	DD	026H
	DD	FLAT:__unwindfunclet$??0CPythonApplication@@QAE@XZ$39
	DD	027H
	DD	FLAT:__unwindfunclet$??0CPythonApplication@@QAE@XZ$40
	DD	028H
	DD	FLAT:__unwindfunclet$??0CPythonApplication@@QAE@XZ$41
	DD	029H
	DD	FLAT:__unwindfunclet$??0CPythonApplication@@QAE@XZ$42
xdata$x	ENDS
;	COMDAT CRT$XCU
CRT$XCU	SEGMENT
??ms_kPool$initializer$@?$CPooledObject@VCNullDecorator@NEffectUpdateDecorator@@@@1P6AXXZA@@3P6AXXZA DD FLAT:??__E?ms_kPool@?$CPooledObject@VCNullDecorator@NEffectUpdateDecorator@@@@1V?$CDynamicPoolEx@VCNullDecorator@NEffectUpdateDecorator@@@@A@@YAXXZ ; ??ms_kPool$initializer$@?$CPooledObject@VCNullDecorator@NEffectUpdateDecorator@@@@1P6AXXZA@@3P6AXXZA
CRT$XCU	ENDS
;	COMDAT CRT$XCU
CRT$XCU	SEGMENT
??ms_kPool$initializer$@?$CPooledObject@VCTextureAnimationCWDecorator@NEffectUpdateDecorator@@@@1P6AXXZA@@3P6AXXZA DD FLAT:??__E?ms_kPool@?$CPooledObject@VCTextureAnimationCWDecorator@NEffectUpdateDecorator@@@@1V?$CDynamicPoolEx@VCTextureAnimationCWDecorator@NEffectUpdateDecorator@@@@A@@YAXXZ ; ??ms_kPool$initializer$@?$CPooledObject@VCTextureAnimationCWDecorator@NEffectUpdateDecorator@@@@1P6AXXZA@@3P6AXXZA
CRT$XCU	ENDS
;	COMDAT CRT$XCU
CRT$XCU	SEGMENT
??ms_kPool$initializer$@?$CPooledObject@VCTextureAnimationCCWDecorator@NEffectUpdateDecorator@@@@1P6AXXZA@@3P6AXXZA DD FLAT:??__E?ms_kPool@?$CPooledObject@VCTextureAnimationCCWDecorator@NEffectUpdateDecorator@@@@1V?$CDynamicPoolEx@VCTextureAnimationCCWDecorator@NEffectUpdateDecorator@@@@A@@YAXXZ ; ??ms_kPool$initializer$@?$CPooledObject@VCTextureAnimationCCWDecorator@NEffectUpdateDecorator@@@@1P6AXXZA@@3P6AXXZA
CRT$XCU	ENDS
;	COMDAT CRT$XCU
CRT$XCU	SEGMENT
??ms_kPool$initializer$@?$CPooledObject@VCTextureAnimationRandomDecorator@NEffectUpdateDecorator@@@@1P6AXXZA@@3P6AXXZA DD FLAT:??__E?ms_kPool@?$CPooledObject@VCTextureAnimationRandomDecorator@NEffectUpdateDecorator@@@@1V?$CDynamicPoolEx@VCTextureAnimationRandomDecorator@NEffectUpdateDecorator@@@@A@@YAXXZ ; ??ms_kPool$initializer$@?$CPooledObject@VCTextureAnimationRandomDecorator@NEffectUpdateDecorator@@@@1P6AXXZA@@3P6AXXZA
CRT$XCU	ENDS
;	COMDAT CRT$XCU
CRT$XCU	SEGMENT
??ms_kPool$initializer$@?$CPooledObject@VCAirResistanceDecorator@NEffectUpdateDecorator@@@@1P6AXXZA@@3P6AXXZA DD FLAT:??__E?ms_kPool@?$CPooledObject@VCAirResistanceDecorator@NEffectUpdateDecorator@@@@1V?$CDynamicPoolEx@VCAirResistanceDecorator@NEffectUpdateDecorator@@@@A@@YAXXZ ; ??ms_kPool$initializer$@?$CPooledObject@VCAirResistanceDecorator@NEffectUpdateDecorator@@@@1P6AXXZA@@3P6AXXZA
CRT$XCU	ENDS
;	COMDAT CRT$XCU
CRT$XCU	SEGMENT
??ms_kPool$initializer$@?$CPooledObject@VCGravityDecorator@NEffectUpdateDecorator@@@@1P6AXXZA@@3P6AXXZA DD FLAT:??__E?ms_kPool@?$CPooledObject@VCGravityDecorator@NEffectUpdateDecorator@@@@1V?$CDynamicPoolEx@VCGravityDecorator@NEffectUpdateDecorator@@@@A@@YAXXZ ; ??ms_kPool$initializer$@?$CPooledObject@VCGravityDecorator@NEffectUpdateDecorator@@@@1P6AXXZA@@3P6AXXZA
CRT$XCU	ENDS
;	COMDAT CRT$XCU
CRT$XCU	SEGMENT
??ms_kPool$initializer$@?$CPooledObject@VCRotationDecorator@NEffectUpdateDecorator@@@@1P6AXXZA@@3P6AXXZA DD FLAT:??__E?ms_kPool@?$CPooledObject@VCRotationDecorator@NEffectUpdateDecorator@@@@1V?$CDynamicPoolEx@VCRotationDecorator@NEffectUpdateDecorator@@@@A@@YAXXZ ; ??ms_kPool$initializer$@?$CPooledObject@VCRotationDecorator@NEffectUpdateDecorator@@@@1P6AXXZA@@3P6AXXZA
CRT$XCU	ENDS
; Function compile flags: /Odsp
;	COMDAT ??_ECPythonApplication@@WCA@AEPAXI@Z
_TEXT	SEGMENT
??_ECPythonApplication@@WCA@AEPAXI@Z PROC		; [thunk]:CPythonApplication::`vector deleting destructor', COMDAT
  00000	83 e9 20	 sub	 ecx, 32			; 00000020H
  00003	e9 00 00 00 00	 jmp	 ??_ECPythonApplication@@UAEPAXI@Z
??_ECPythonApplication@@WCA@AEPAXI@Z ENDP		; [thunk]:CPythonApplication::`vector deleting destructor'
_TEXT	ENDS
; Function compile flags: /Odsp
;	COMDAT ??_ECPythonApplication@@WBM@AEPAXI@Z
_TEXT	SEGMENT
??_ECPythonApplication@@WBM@AEPAXI@Z PROC		; [thunk]:CPythonApplication::`vector deleting destructor', COMDAT
  00000	83 e9 1c	 sub	 ecx, 28			; 0000001cH
  00003	e9 00 00 00 00	 jmp	 ??_ECPythonApplication@@UAEPAXI@Z
??_ECPythonApplication@@WBM@AEPAXI@Z ENDP		; [thunk]:CPythonApplication::`vector deleting destructor'
_TEXT	ENDS
; Function compile flags: /Ogtp
; File C:\Program Files (x86)\Microsoft Visual Studio\2019\Community\VC\Tools\MSVC\14.28.29333\include\xmemory
;	COMDAT ??$_Destroy_in_place@PAU?$_Tree_node@U?$pair@$$CBHPAX@std@@PAX@std@@@std@@YAXAAPAU?$_Tree_node@U?$pair@$$CBHPAX@std@@PAX@0@@Z
_TEXT	SEGMENT
__Obj$ = 8						; size = 4
??$_Destroy_in_place@PAU?$_Tree_node@U?$pair@$$CBHPAX@std@@PAX@std@@@std@@YAXAAPAU?$_Tree_node@U?$pair@$$CBHPAX@std@@PAX@0@@Z PROC ; std::_Destroy_in_place<std::_Tree_node<std::pair<int const ,void *>,void *> *>, COMDAT

; 271  : #if _HAS_IF_CONSTEXPR
; 272  :     if constexpr (is_array_v<_Ty>) {
; 273  :         _Destroy_range(_Obj, _Obj + extent_v<_Ty>);
; 274  :     } else
; 275  : #endif // _HAS_IF_CONSTEXPR
; 276  :     {
; 277  :         _Obj.~_Ty();
; 278  :     }
; 279  : }

  00000	c2 00 00	 ret	 0
??$_Destroy_in_place@PAU?$_Tree_node@U?$pair@$$CBHPAX@std@@PAX@std@@@std@@YAXAAPAU?$_Tree_node@U?$pair@$$CBHPAX@std@@PAX@0@@Z ENDP ; std::_Destroy_in_place<std::_Tree_node<std::pair<int const ,void *>,void *> *>
_TEXT	ENDS
; Function compile flags: /Ogtp
; File C:\Program Files (x86)\Microsoft Visual Studio\2019\Community\VC\Tools\MSVC\14.28.29333\include\xmemory
;	COMDAT ??$_Construct_in_place@PAU?$_Tree_node@U?$pair@$$CBHPAX@std@@PAX@std@@ABQAU12@@std@@YAXAAPAU?$_Tree_node@U?$pair@$$CBHPAX@std@@PAX@0@ABQAU10@@Z
_TEXT	SEGMENT
__Obj$ = 8						; size = 4
_<_Args_0>$ = 12					; size = 4
??$_Construct_in_place@PAU?$_Tree_node@U?$pair@$$CBHPAX@std@@PAX@std@@ABQAU12@@std@@YAXAAPAU?$_Tree_node@U?$pair@$$CBHPAX@std@@PAX@0@ABQAU10@@Z PROC ; std::_Construct_in_place<std::_Tree_node<std::pair<int const ,void *>,void *> *,std::_Tree_node<std::pair<int const ,void *>,void *> * const &>, COMDAT

; 228  : void _Construct_in_place(_Ty& _Obj, _Types&&... _Args) noexcept(is_nothrow_constructible_v<_Ty, _Types...>) {

  00000	55		 push	 ebp
  00001	8b ec		 mov	 ebp, esp

; 229  :     ::new (const_cast<void*>(static_cast<const volatile void*>(_STD addressof(_Obj))))

  00003	8b 45 0c	 mov	 eax, DWORD PTR _<_Args_0>$[ebp]
  00006	8b 08		 mov	 ecx, DWORD PTR [eax]
  00008	8b 45 08	 mov	 eax, DWORD PTR __Obj$[ebp]
  0000b	89 08		 mov	 DWORD PTR [eax], ecx

; 230  :         _Ty(_STD forward<_Types>(_Args)...);
; 231  : }

  0000d	5d		 pop	 ebp
  0000e	c3		 ret	 0
??$_Construct_in_place@PAU?$_Tree_node@U?$pair@$$CBHPAX@std@@PAX@std@@ABQAU12@@std@@YAXAAPAU?$_Tree_node@U?$pair@$$CBHPAX@std@@PAX@0@ABQAU10@@Z ENDP ; std::_Construct_in_place<std::_Tree_node<std::pair<int const ,void *>,void *> *,std::_Tree_node<std::pair<int const ,void *>,void *> * const &>
_TEXT	ENDS
; Function compile flags: /Ogtp
; File C:\Program Files (x86)\Microsoft Visual Studio\2019\Community\VC\Tools\MSVC\14.28.29333\include\xtree
; File C:\Program Files (x86)\Microsoft Visual Studio\2019\Community\VC\Tools\MSVC\14.28.29333\include\utility
; File C:\Program Files (x86)\Microsoft Visual Studio\2019\Community\VC\Tools\MSVC\14.28.29333\include\xmemory
; File C:\Program Files (x86)\Microsoft Visual Studio\2019\Community\VC\Tools\MSVC\14.28.29333\include\xtree
;	COMDAT ??$_Erase_tree@V?$allocator@U?$_Tree_node@U?$pair@$$CBHPAX@std@@PAX@std@@@std@@@?$_Tree_val@U?$_Tree_simple_types@U?$pair@$$CBHPAX@std@@@std@@@std@@QAEXAAV?$allocator@U?$_Tree_node@U?$pair@$$CBHPAX@std@@PAX@std@@@1@PAU?$_Tree_node@U?$pair@$$CBHPAX@std@@PAX@1@@Z
_TEXT	SEGMENT
__Al$ = 8						; size = 4
__Rootnode$ = 12					; size = 4
??$_Erase_tree@V?$allocator@U?$_Tree_node@U?$pair@$$CBHPAX@std@@PAX@std@@@std@@@?$_Tree_val@U?$_Tree_simple_types@U?$pair@$$CBHPAX@std@@@std@@@std@@QAEXAAV?$allocator@U?$_Tree_node@U?$pair@$$CBHPAX@std@@PAX@std@@@1@PAU?$_Tree_node@U?$pair@$$CBHPAX@std@@PAX@1@@Z PROC ; std::_Tree_val<std::_Tree_simple_types<std::pair<int const ,void *> > >::_Erase_tree<std::allocator<std::_Tree_node<std::pair<int const ,void *>,void *> > >, COMDAT
; _this$ = ecx

; 742  :     void _Erase_tree(_Alnode& _Al, _Nodeptr _Rootnode) noexcept {

  00000	55		 push	 ebp
  00001	8b ec		 mov	 ebp, esp
  00003	53		 push	 ebx
  00004	56		 push	 esi

; 743  :         while (!_Rootnode->_Isnil) { // free subtrees, then node

  00005	8b 75 0c	 mov	 esi, DWORD PTR __Rootnode$[ebp]
  00008	8b d9		 mov	 ebx, ecx
  0000a	80 7e 0d 00	 cmp	 BYTE PTR [esi+13], 0
  0000e	75 25		 jne	 SHORT $LN3@Erase_tree
  00010	57		 push	 edi
  00011	8b 7d 08	 mov	 edi, DWORD PTR __Al$[ebp]
$LL2@Erase_tree:

; 744  :             _Erase_tree(_Al, _Rootnode->_Right);

  00014	ff 76 08	 push	 DWORD PTR [esi+8]
  00017	8b cb		 mov	 ecx, ebx
  00019	57		 push	 edi
  0001a	e8 00 00 00 00	 call	 ??$_Erase_tree@V?$allocator@U?$_Tree_node@U?$pair@$$CBHPAX@std@@PAX@std@@@std@@@?$_Tree_val@U?$_Tree_simple_types@U?$pair@$$CBHPAX@std@@@std@@@std@@QAEXAAV?$allocator@U?$_Tree_node@U?$pair@$$CBHPAX@std@@PAX@std@@@1@PAU?$_Tree_node@U?$pair@$$CBHPAX@std@@PAX@1@@Z ; std::_Tree_val<std::_Tree_simple_types<std::pair<int const ,void *> > >::_Erase_tree<std::allocator<std::_Tree_node<std::pair<int const ,void *>,void *> > >
; File C:\Program Files (x86)\Microsoft Visual Studio\2019\Community\VC\Tools\MSVC\14.28.29333\include\utility

; 598  :     _Ty _Old_val = static_cast<_Ty&&>(_Val);

  0001f	8b c6		 mov	 eax, esi

; 599  :     _Val         = static_cast<_Other&&>(_New_val);

  00021	8b 36		 mov	 esi, DWORD PTR [esi]
; File C:\Program Files (x86)\Microsoft Visual Studio\2019\Community\VC\Tools\MSVC\14.28.29333\include\xmemory

; 696  :         _Deallocate<_New_alignof<value_type>>(_Ptr, sizeof(value_type) * _Count);

  00023	6a 18		 push	 24			; 00000018H
  00025	50		 push	 eax
  00026	e8 00 00 00 00	 call	 ??$_Deallocate@$07$0A@@std@@YAXPAXI@Z ; std::_Deallocate<8,0>
  0002b	83 c4 08	 add	 esp, 8
; File C:\Program Files (x86)\Microsoft Visual Studio\2019\Community\VC\Tools\MSVC\14.28.29333\include\xtree

; 743  :         while (!_Rootnode->_Isnil) { // free subtrees, then node

  0002e	80 7e 0d 00	 cmp	 BYTE PTR [esi+13], 0
  00032	74 e0		 je	 SHORT $LL2@Erase_tree
  00034	5f		 pop	 edi
$LN3@Erase_tree:
  00035	5e		 pop	 esi

; 745  :             _Alnode::value_type::_Freenode(_Al, _STD exchange(_Rootnode, _Rootnode->_Left));
; 746  :         }
; 747  :     }

  00036	5b		 pop	 ebx
  00037	5d		 pop	 ebp
  00038	c2 08 00	 ret	 8
??$_Erase_tree@V?$allocator@U?$_Tree_node@U?$pair@$$CBHPAX@std@@PAX@std@@@std@@@?$_Tree_val@U?$_Tree_simple_types@U?$pair@$$CBHPAX@std@@@std@@@std@@QAEXAAV?$allocator@U?$_Tree_node@U?$pair@$$CBHPAX@std@@PAX@std@@@1@PAU?$_Tree_node@U?$pair@$$CBHPAX@std@@PAX@1@@Z ENDP ; std::_Tree_val<std::_Tree_simple_types<std::pair<int const ,void *> > >::_Erase_tree<std::allocator<std::_Tree_node<std::pair<int const ,void *>,void *> > >
_TEXT	ENDS
; Function compile flags: /Ogtp
;	COMDAT ??__F?ms_kPool@?$CPooledObject@VCRotationDecorator@NEffectUpdateDecorator@@@@1V?$CDynamicPoolEx@VCRotationDecorator@NEffectUpdateDecorator@@@@A@@YAXXZ
text$yd	SEGMENT
??__F?ms_kPool@?$CPooledObject@VCRotationDecorator@NEffectUpdateDecorator@@@@1V?$CDynamicPoolEx@VCRotationDecorator@NEffectUpdateDecorator@@@@A@@YAXXZ PROC ; `dynamic atexit destructor for 'CPooledObject<NEffectUpdateDecorator::CRotationDecorator>::ms_kPool'', COMDAT
  00000	b9 00 00 00 00	 mov	 ecx, OFFSET ?ms_kPool@?$CPooledObject@VCRotationDecorator@NEffectUpdateDecorator@@@@1V?$CDynamicPoolEx@VCRotationDecorator@NEffectUpdateDecorator@@@@A ; CPooledObject<NEffectUpdateDecorator::CRotationDecorator>::ms_kPool
  00005	e9 00 00 00 00	 jmp	 ??1?$CDynamicPoolEx@VCRotationDecorator@NEffectUpdateDecorator@@@@UAE@XZ ; CDynamicPoolEx<NEffectUpdateDecorator::CRotationDecorator>::~CDynamicPoolEx<NEffectUpdateDecorator::CRotationDecorator>
??__F?ms_kPool@?$CPooledObject@VCRotationDecorator@NEffectUpdateDecorator@@@@1V?$CDynamicPoolEx@VCRotationDecorator@NEffectUpdateDecorator@@@@A@@YAXXZ ENDP ; `dynamic atexit destructor for 'CPooledObject<NEffectUpdateDecorator::CRotationDecorator>::ms_kPool''
text$yd	ENDS
; Function compile flags: /Ogtp
; File D:\Metin2 Server Files\mainline\SRC_2014\Metin2Client\eterLib\Pool.h
;	COMDAT ??__E?ms_kPool@?$CPooledObject@VCRotationDecorator@NEffectUpdateDecorator@@@@1V?$CDynamicPoolEx@VCRotationDecorator@NEffectUpdateDecorator@@@@A@@YAXXZ
text$di	SEGMENT
??__E?ms_kPool@?$CPooledObject@VCRotationDecorator@NEffectUpdateDecorator@@@@1V?$CDynamicPoolEx@VCRotationDecorator@NEffectUpdateDecorator@@@@A@@YAXXZ PROC ; `dynamic initializer for 'CPooledObject<NEffectUpdateDecorator::CRotationDecorator>::ms_kPool'', COMDAT

; 272  : template <class T> CDynamicPoolEx<T> CPooledObject<T>::ms_kPool;

  00000	68 00 00 00 00	 push	 OFFSET ??__F?ms_kPool@?$CPooledObject@VCRotationDecorator@NEffectUpdateDecorator@@@@1V?$CDynamicPoolEx@VCRotationDecorator@NEffectUpdateDecorator@@@@A@@YAXXZ ; `dynamic atexit destructor for 'CPooledObject<NEffectUpdateDecorator::CRotationDecorator>::ms_kPool''
  00005	e8 00 00 00 00	 call	 _atexit
  0000a	59		 pop	 ecx
  0000b	c3		 ret	 0
??__E?ms_kPool@?$CPooledObject@VCRotationDecorator@NEffectUpdateDecorator@@@@1V?$CDynamicPoolEx@VCRotationDecorator@NEffectUpdateDecorator@@@@A@@YAXXZ ENDP ; `dynamic initializer for 'CPooledObject<NEffectUpdateDecorator::CRotationDecorator>::ms_kPool''
text$di	ENDS
; Function compile flags: /Ogtp
;	COMDAT ??__F?ms_kPool@?$CPooledObject@VCGravityDecorator@NEffectUpdateDecorator@@@@1V?$CDynamicPoolEx@VCGravityDecorator@NEffectUpdateDecorator@@@@A@@YAXXZ
text$yd	SEGMENT
??__F?ms_kPool@?$CPooledObject@VCGravityDecorator@NEffectUpdateDecorator@@@@1V?$CDynamicPoolEx@VCGravityDecorator@NEffectUpdateDecorator@@@@A@@YAXXZ PROC ; `dynamic atexit destructor for 'CPooledObject<NEffectUpdateDecorator::CGravityDecorator>::ms_kPool'', COMDAT
  00000	b9 00 00 00 00	 mov	 ecx, OFFSET ?ms_kPool@?$CPooledObject@VCGravityDecorator@NEffectUpdateDecorator@@@@1V?$CDynamicPoolEx@VCGravityDecorator@NEffectUpdateDecorator@@@@A ; CPooledObject<NEffectUpdateDecorator::CGravityDecorator>::ms_kPool
  00005	e9 00 00 00 00	 jmp	 ??1?$CDynamicPoolEx@VCGravityDecorator@NEffectUpdateDecorator@@@@UAE@XZ ; CDynamicPoolEx<NEffectUpdateDecorator::CGravityDecorator>::~CDynamicPoolEx<NEffectUpdateDecorator::CGravityDecorator>
??__F?ms_kPool@?$CPooledObject@VCGravityDecorator@NEffectUpdateDecorator@@@@1V?$CDynamicPoolEx@VCGravityDecorator@NEffectUpdateDecorator@@@@A@@YAXXZ ENDP ; `dynamic atexit destructor for 'CPooledObject<NEffectUpdateDecorator::CGravityDecorator>::ms_kPool''
text$yd	ENDS
; Function compile flags: /Ogtp
; File D:\Metin2 Server Files\mainline\SRC_2014\Metin2Client\eterLib\Pool.h
;	COMDAT ??__E?ms_kPool@?$CPooledObject@VCGravityDecorator@NEffectUpdateDecorator@@@@1V?$CDynamicPoolEx@VCGravityDecorator@NEffectUpdateDecorator@@@@A@@YAXXZ
text$di	SEGMENT
??__E?ms_kPool@?$CPooledObject@VCGravityDecorator@NEffectUpdateDecorator@@@@1V?$CDynamicPoolEx@VCGravityDecorator@NEffectUpdateDecorator@@@@A@@YAXXZ PROC ; `dynamic initializer for 'CPooledObject<NEffectUpdateDecorator::CGravityDecorator>::ms_kPool'', COMDAT

; 272  : template <class T> CDynamicPoolEx<T> CPooledObject<T>::ms_kPool;

  00000	68 00 00 00 00	 push	 OFFSET ??__F?ms_kPool@?$CPooledObject@VCGravityDecorator@NEffectUpdateDecorator@@@@1V?$CDynamicPoolEx@VCGravityDecorator@NEffectUpdateDecorator@@@@A@@YAXXZ ; `dynamic atexit destructor for 'CPooledObject<NEffectUpdateDecorator::CGravityDecorator>::ms_kPool''
  00005	e8 00 00 00 00	 call	 _atexit
  0000a	59		 pop	 ecx
  0000b	c3		 ret	 0
??__E?ms_kPool@?$CPooledObject@VCGravityDecorator@NEffectUpdateDecorator@@@@1V?$CDynamicPoolEx@VCGravityDecorator@NEffectUpdateDecorator@@@@A@@YAXXZ ENDP ; `dynamic initializer for 'CPooledObject<NEffectUpdateDecorator::CGravityDecorator>::ms_kPool''
text$di	ENDS
; Function compile flags: /Ogtp
;	COMDAT ??__F?ms_kPool@?$CPooledObject@VCAirResistanceDecorator@NEffectUpdateDecorator@@@@1V?$CDynamicPoolEx@VCAirResistanceDecorator@NEffectUpdateDecorator@@@@A@@YAXXZ
text$yd	SEGMENT
??__F?ms_kPool@?$CPooledObject@VCAirResistanceDecorator@NEffectUpdateDecorator@@@@1V?$CDynamicPoolEx@VCAirResistanceDecorator@NEffectUpdateDecorator@@@@A@@YAXXZ PROC ; `dynamic atexit destructor for 'CPooledObject<NEffectUpdateDecorator::CAirResistanceDecorator>::ms_kPool'', COMDAT
  00000	b9 00 00 00 00	 mov	 ecx, OFFSET ?ms_kPool@?$CPooledObject@VCAirResistanceDecorator@NEffectUpdateDecorator@@@@1V?$CDynamicPoolEx@VCAirResistanceDecorator@NEffectUpdateDecorator@@@@A ; CPooledObject<NEffectUpdateDecorator::CAirResistanceDecorator>::ms_kPool
  00005	e9 00 00 00 00	 jmp	 ??1?$CDynamicPoolEx@VCAirResistanceDecorator@NEffectUpdateDecorator@@@@UAE@XZ ; CDynamicPoolEx<NEffectUpdateDecorator::CAirResistanceDecorator>::~CDynamicPoolEx<NEffectUpdateDecorator::CAirResistanceDecorator>
??__F?ms_kPool@?$CPooledObject@VCAirResistanceDecorator@NEffectUpdateDecorator@@@@1V?$CDynamicPoolEx@VCAirResistanceDecorator@NEffectUpdateDecorator@@@@A@@YAXXZ ENDP ; `dynamic atexit destructor for 'CPooledObject<NEffectUpdateDecorator::CAirResistanceDecorator>::ms_kPool''
text$yd	ENDS
; Function compile flags: /Ogtp
; File D:\Metin2 Server Files\mainline\SRC_2014\Metin2Client\eterLib\Pool.h
;	COMDAT ??__E?ms_kPool@?$CPooledObject@VCAirResistanceDecorator@NEffectUpdateDecorator@@@@1V?$CDynamicPoolEx@VCAirResistanceDecorator@NEffectUpdateDecorator@@@@A@@YAXXZ
text$di	SEGMENT
??__E?ms_kPool@?$CPooledObject@VCAirResistanceDecorator@NEffectUpdateDecorator@@@@1V?$CDynamicPoolEx@VCAirResistanceDecorator@NEffectUpdateDecorator@@@@A@@YAXXZ PROC ; `dynamic initializer for 'CPooledObject<NEffectUpdateDecorator::CAirResistanceDecorator>::ms_kPool'', COMDAT

; 272  : template <class T> CDynamicPoolEx<T> CPooledObject<T>::ms_kPool;

  00000	68 00 00 00 00	 push	 OFFSET ??__F?ms_kPool@?$CPooledObject@VCAirResistanceDecorator@NEffectUpdateDecorator@@@@1V?$CDynamicPoolEx@VCAirResistanceDecorator@NEffectUpdateDecorator@@@@A@@YAXXZ ; `dynamic atexit destructor for 'CPooledObject<NEffectUpdateDecorator::CAirResistanceDecorator>::ms_kPool''
  00005	e8 00 00 00 00	 call	 _atexit
  0000a	59		 pop	 ecx
  0000b	c3		 ret	 0
??__E?ms_kPool@?$CPooledObject@VCAirResistanceDecorator@NEffectUpdateDecorator@@@@1V?$CDynamicPoolEx@VCAirResistanceDecorator@NEffectUpdateDecorator@@@@A@@YAXXZ ENDP ; `dynamic initializer for 'CPooledObject<NEffectUpdateDecorator::CAirResistanceDecorator>::ms_kPool''
text$di	ENDS
; Function compile flags: /Ogtp
;	COMDAT ??__F?ms_kPool@?$CPooledObject@VCTextureAnimationRandomDecorator@NEffectUpdateDecorator@@@@1V?$CDynamicPoolEx@VCTextureAnimationRandomDecorator@NEffectUpdateDecorator@@@@A@@YAXXZ
text$yd	SEGMENT
??__F?ms_kPool@?$CPooledObject@VCTextureAnimationRandomDecorator@NEffectUpdateDecorator@@@@1V?$CDynamicPoolEx@VCTextureAnimationRandomDecorator@NEffectUpdateDecorator@@@@A@@YAXXZ PROC ; `dynamic atexit destructor for 'CPooledObject<NEffectUpdateDecorator::CTextureAnimationRandomDecorator>::ms_kPool'', COMDAT
  00000	b9 00 00 00 00	 mov	 ecx, OFFSET ?ms_kPool@?$CPooledObject@VCTextureAnimationRandomDecorator@NEffectUpdateDecorator@@@@1V?$CDynamicPoolEx@VCTextureAnimationRandomDecorator@NEffectUpdateDecorator@@@@A ; CPooledObject<NEffectUpdateDecorator::CTextureAnimationRandomDecorator>::ms_kPool
  00005	e9 00 00 00 00	 jmp	 ??1?$CDynamicPoolEx@VCTextureAnimationRandomDecorator@NEffectUpdateDecorator@@@@UAE@XZ ; CDynamicPoolEx<NEffectUpdateDecorator::CTextureAnimationRandomDecorator>::~CDynamicPoolEx<NEffectUpdateDecorator::CTextureAnimationRandomDecorator>
??__F?ms_kPool@?$CPooledObject@VCTextureAnimationRandomDecorator@NEffectUpdateDecorator@@@@1V?$CDynamicPoolEx@VCTextureAnimationRandomDecorator@NEffectUpdateDecorator@@@@A@@YAXXZ ENDP ; `dynamic atexit destructor for 'CPooledObject<NEffectUpdateDecorator::CTextureAnimationRandomDecorator>::ms_kPool''
text$yd	ENDS
; Function compile flags: /Ogtp
; File D:\Metin2 Server Files\mainline\SRC_2014\Metin2Client\eterLib\Pool.h
;	COMDAT ??__E?ms_kPool@?$CPooledObject@VCTextureAnimationRandomDecorator@NEffectUpdateDecorator@@@@1V?$CDynamicPoolEx@VCTextureAnimationRandomDecorator@NEffectUpdateDecorator@@@@A@@YAXXZ
text$di	SEGMENT
??__E?ms_kPool@?$CPooledObject@VCTextureAnimationRandomDecorator@NEffectUpdateDecorator@@@@1V?$CDynamicPoolEx@VCTextureAnimationRandomDecorator@NEffectUpdateDecorator@@@@A@@YAXXZ PROC ; `dynamic initializer for 'CPooledObject<NEffectUpdateDecorator::CTextureAnimationRandomDecorator>::ms_kPool'', COMDAT

; 272  : template <class T> CDynamicPoolEx<T> CPooledObject<T>::ms_kPool;

  00000	68 00 00 00 00	 push	 OFFSET ??__F?ms_kPool@?$CPooledObject@VCTextureAnimationRandomDecorator@NEffectUpdateDecorator@@@@1V?$CDynamicPoolEx@VCTextureAnimationRandomDecorator@NEffectUpdateDecorator@@@@A@@YAXXZ ; `dynamic atexit destructor for 'CPooledObject<NEffectUpdateDecorator::CTextureAnimationRandomDecorator>::ms_kPool''
  00005	e8 00 00 00 00	 call	 _atexit
  0000a	59		 pop	 ecx
  0000b	c3		 ret	 0
??__E?ms_kPool@?$CPooledObject@VCTextureAnimationRandomDecorator@NEffectUpdateDecorator@@@@1V?$CDynamicPoolEx@VCTextureAnimationRandomDecorator@NEffectUpdateDecorator@@@@A@@YAXXZ ENDP ; `dynamic initializer for 'CPooledObject<NEffectUpdateDecorator::CTextureAnimationRandomDecorator>::ms_kPool''
text$di	ENDS
; Function compile flags: /Ogtp
;	COMDAT ??__F?ms_kPool@?$CPooledObject@VCTextureAnimationCCWDecorator@NEffectUpdateDecorator@@@@1V?$CDynamicPoolEx@VCTextureAnimationCCWDecorator@NEffectUpdateDecorator@@@@A@@YAXXZ
text$yd	SEGMENT
??__F?ms_kPool@?$CPooledObject@VCTextureAnimationCCWDecorator@NEffectUpdateDecorator@@@@1V?$CDynamicPoolEx@VCTextureAnimationCCWDecorator@NEffectUpdateDecorator@@@@A@@YAXXZ PROC ; `dynamic atexit destructor for 'CPooledObject<NEffectUpdateDecorator::CTextureAnimationCCWDecorator>::ms_kPool'', COMDAT
  00000	b9 00 00 00 00	 mov	 ecx, OFFSET ?ms_kPool@?$CPooledObject@VCTextureAnimationCCWDecorator@NEffectUpdateDecorator@@@@1V?$CDynamicPoolEx@VCTextureAnimationCCWDecorator@NEffectUpdateDecorator@@@@A ; CPooledObject<NEffectUpdateDecorator::CTextureAnimationCCWDecorator>::ms_kPool
  00005	e9 00 00 00 00	 jmp	 ??1?$CDynamicPoolEx@VCTextureAnimationCCWDecorator@NEffectUpdateDecorator@@@@UAE@XZ ; CDynamicPoolEx<NEffectUpdateDecorator::CTextureAnimationCCWDecorator>::~CDynamicPoolEx<NEffectUpdateDecorator::CTextureAnimationCCWDecorator>
??__F?ms_kPool@?$CPooledObject@VCTextureAnimationCCWDecorator@NEffectUpdateDecorator@@@@1V?$CDynamicPoolEx@VCTextureAnimationCCWDecorator@NEffectUpdateDecorator@@@@A@@YAXXZ ENDP ; `dynamic atexit destructor for 'CPooledObject<NEffectUpdateDecorator::CTextureAnimationCCWDecorator>::ms_kPool''
text$yd	ENDS
; Function compile flags: /Ogtp
; File D:\Metin2 Server Files\mainline\SRC_2014\Metin2Client\eterLib\Pool.h
;	COMDAT ??__E?ms_kPool@?$CPooledObject@VCTextureAnimationCCWDecorator@NEffectUpdateDecorator@@@@1V?$CDynamicPoolEx@VCTextureAnimationCCWDecorator@NEffectUpdateDecorator@@@@A@@YAXXZ
text$di	SEGMENT
??__E?ms_kPool@?$CPooledObject@VCTextureAnimationCCWDecorator@NEffectUpdateDecorator@@@@1V?$CDynamicPoolEx@VCTextureAnimationCCWDecorator@NEffectUpdateDecorator@@@@A@@YAXXZ PROC ; `dynamic initializer for 'CPooledObject<NEffectUpdateDecorator::CTextureAnimationCCWDecorator>::ms_kPool'', COMDAT

; 272  : template <class T> CDynamicPoolEx<T> CPooledObject<T>::ms_kPool;

  00000	68 00 00 00 00	 push	 OFFSET ??__F?ms_kPool@?$CPooledObject@VCTextureAnimationCCWDecorator@NEffectUpdateDecorator@@@@1V?$CDynamicPoolEx@VCTextureAnimationCCWDecorator@NEffectUpdateDecorator@@@@A@@YAXXZ ; `dynamic atexit destructor for 'CPooledObject<NEffectUpdateDecorator::CTextureAnimationCCWDecorator>::ms_kPool''
  00005	e8 00 00 00 00	 call	 _atexit
  0000a	59		 pop	 ecx
  0000b	c3		 ret	 0
??__E?ms_kPool@?$CPooledObject@VCTextureAnimationCCWDecorator@NEffectUpdateDecorator@@@@1V?$CDynamicPoolEx@VCTextureAnimationCCWDecorator@NEffectUpdateDecorator@@@@A@@YAXXZ ENDP ; `dynamic initializer for 'CPooledObject<NEffectUpdateDecorator::CTextureAnimationCCWDecorator>::ms_kPool''
text$di	ENDS
; Function compile flags: /Ogtp
;	COMDAT ??__F?ms_kPool@?$CPooledObject@VCTextureAnimationCWDecorator@NEffectUpdateDecorator@@@@1V?$CDynamicPoolEx@VCTextureAnimationCWDecorator@NEffectUpdateDecorator@@@@A@@YAXXZ
text$yd	SEGMENT
??__F?ms_kPool@?$CPooledObject@VCTextureAnimationCWDecorator@NEffectUpdateDecorator@@@@1V?$CDynamicPoolEx@VCTextureAnimationCWDecorator@NEffectUpdateDecorator@@@@A@@YAXXZ PROC ; `dynamic atexit destructor for 'CPooledObject<NEffectUpdateDecorator::CTextureAnimationCWDecorator>::ms_kPool'', COMDAT
  00000	b9 00 00 00 00	 mov	 ecx, OFFSET ?ms_kPool@?$CPooledObject@VCTextureAnimationCWDecorator@NEffectUpdateDecorator@@@@1V?$CDynamicPoolEx@VCTextureAnimationCWDecorator@NEffectUpdateDecorator@@@@A ; CPooledObject<NEffectUpdateDecorator::CTextureAnimationCWDecorator>::ms_kPool
  00005	e9 00 00 00 00	 jmp	 ??1?$CDynamicPoolEx@VCTextureAnimationCWDecorator@NEffectUpdateDecorator@@@@UAE@XZ ; CDynamicPoolEx<NEffectUpdateDecorator::CTextureAnimationCWDecorator>::~CDynamicPoolEx<NEffectUpdateDecorator::CTextureAnimationCWDecorator>
??__F?ms_kPool@?$CPooledObject@VCTextureAnimationCWDecorator@NEffectUpdateDecorator@@@@1V?$CDynamicPoolEx@VCTextureAnimationCWDecorator@NEffectUpdateDecorator@@@@A@@YAXXZ ENDP ; `dynamic atexit destructor for 'CPooledObject<NEffectUpdateDecorator::CTextureAnimationCWDecorator>::ms_kPool''
text$yd	ENDS
; Function compile flags: /Ogtp
; File D:\Metin2 Server Files\mainline\SRC_2014\Metin2Client\eterLib\Pool.h
;	COMDAT ??__E?ms_kPool@?$CPooledObject@VCTextureAnimationCWDecorator@NEffectUpdateDecorator@@@@1V?$CDynamicPoolEx@VCTextureAnimationCWDecorator@NEffectUpdateDecorator@@@@A@@YAXXZ
text$di	SEGMENT
??__E?ms_kPool@?$CPooledObject@VCTextureAnimationCWDecorator@NEffectUpdateDecorator@@@@1V?$CDynamicPoolEx@VCTextureAnimationCWDecorator@NEffectUpdateDecorator@@@@A@@YAXXZ PROC ; `dynamic initializer for 'CPooledObject<NEffectUpdateDecorator::CTextureAnimationCWDecorator>::ms_kPool'', COMDAT

; 272  : template <class T> CDynamicPoolEx<T> CPooledObject<T>::ms_kPool;

  00000	68 00 00 00 00	 push	 OFFSET ??__F?ms_kPool@?$CPooledObject@VCTextureAnimationCWDecorator@NEffectUpdateDecorator@@@@1V?$CDynamicPoolEx@VCTextureAnimationCWDecorator@NEffectUpdateDecorator@@@@A@@YAXXZ ; `dynamic atexit destructor for 'CPooledObject<NEffectUpdateDecorator::CTextureAnimationCWDecorator>::ms_kPool''
  00005	e8 00 00 00 00	 call	 _atexit
  0000a	59		 pop	 ecx
  0000b	c3		 ret	 0
??__E?ms_kPool@?$CPooledObject@VCTextureAnimationCWDecorator@NEffectUpdateDecorator@@@@1V?$CDynamicPoolEx@VCTextureAnimationCWDecorator@NEffectUpdateDecorator@@@@A@@YAXXZ ENDP ; `dynamic initializer for 'CPooledObject<NEffectUpdateDecorator::CTextureAnimationCWDecorator>::ms_kPool''
text$di	ENDS
; Function compile flags: /Ogtp
;	COMDAT ??__F?ms_kPool@?$CPooledObject@VCNullDecorator@NEffectUpdateDecorator@@@@1V?$CDynamicPoolEx@VCNullDecorator@NEffectUpdateDecorator@@@@A@@YAXXZ
text$yd	SEGMENT
??__F?ms_kPool@?$CPooledObject@VCNullDecorator@NEffectUpdateDecorator@@@@1V?$CDynamicPoolEx@VCNullDecorator@NEffectUpdateDecorator@@@@A@@YAXXZ PROC ; `dynamic atexit destructor for 'CPooledObject<NEffectUpdateDecorator::CNullDecorator>::ms_kPool'', COMDAT
  00000	b9 00 00 00 00	 mov	 ecx, OFFSET ?ms_kPool@?$CPooledObject@VCNullDecorator@NEffectUpdateDecorator@@@@1V?$CDynamicPoolEx@VCNullDecorator@NEffectUpdateDecorator@@@@A ; CPooledObject<NEffectUpdateDecorator::CNullDecorator>::ms_kPool
  00005	e9 00 00 00 00	 jmp	 ??1?$CDynamicPoolEx@VCNullDecorator@NEffectUpdateDecorator@@@@UAE@XZ ; CDynamicPoolEx<NEffectUpdateDecorator::CNullDecorator>::~CDynamicPoolEx<NEffectUpdateDecorator::CNullDecorator>
??__F?ms_kPool@?$CPooledObject@VCNullDecorator@NEffectUpdateDecorator@@@@1V?$CDynamicPoolEx@VCNullDecorator@NEffectUpdateDecorator@@@@A@@YAXXZ ENDP ; `dynamic atexit destructor for 'CPooledObject<NEffectUpdateDecorator::CNullDecorator>::ms_kPool''
text$yd	ENDS
; Function compile flags: /Ogtp
; File D:\Metin2 Server Files\mainline\SRC_2014\Metin2Client\eterLib\Pool.h
;	COMDAT ??__E?ms_kPool@?$CPooledObject@VCNullDecorator@NEffectUpdateDecorator@@@@1V?$CDynamicPoolEx@VCNullDecorator@NEffectUpdateDecorator@@@@A@@YAXXZ
text$di	SEGMENT
??__E?ms_kPool@?$CPooledObject@VCNullDecorator@NEffectUpdateDecorator@@@@1V?$CDynamicPoolEx@VCNullDecorator@NEffectUpdateDecorator@@@@A@@YAXXZ PROC ; `dynamic initializer for 'CPooledObject<NEffectUpdateDecorator::CNullDecorator>::ms_kPool'', COMDAT

; 272  : template <class T> CDynamicPoolEx<T> CPooledObject<T>::ms_kPool;

  00000	68 00 00 00 00	 push	 OFFSET ??__F?ms_kPool@?$CPooledObject@VCNullDecorator@NEffectUpdateDecorator@@@@1V?$CDynamicPoolEx@VCNullDecorator@NEffectUpdateDecorator@@@@A@@YAXXZ ; `dynamic atexit destructor for 'CPooledObject<NEffectUpdateDecorator::CNullDecorator>::ms_kPool''
  00005	e8 00 00 00 00	 call	 _atexit
  0000a	59		 pop	 ecx
  0000b	c3		 ret	 0
??__E?ms_kPool@?$CPooledObject@VCNullDecorator@NEffectUpdateDecorator@@@@1V?$CDynamicPoolEx@VCNullDecorator@NEffectUpdateDecorator@@@@A@@YAXXZ ENDP ; `dynamic initializer for 'CPooledObject<NEffectUpdateDecorator::CNullDecorator>::ms_kPool''
text$di	ENDS
; Function compile flags: /Ogtp
;	COMDAT ??__F?ms_kPool@?$CPooledObject@VCHeaderDecorator@NEffectUpdateDecorator@@@@1V?$CDynamicPoolEx@VCHeaderDecorator@NEffectUpdateDecorator@@@@A@@YAXXZ
text$yd	SEGMENT
??__F?ms_kPool@?$CPooledObject@VCHeaderDecorator@NEffectUpdateDecorator@@@@1V?$CDynamicPoolEx@VCHeaderDecorator@NEffectUpdateDecorator@@@@A@@YAXXZ PROC ; `dynamic atexit destructor for 'CPooledObject<NEffectUpdateDecorator::CHeaderDecorator>::ms_kPool'', COMDAT
  00000	b9 00 00 00 00	 mov	 ecx, OFFSET ?ms_kPool@?$CPooledObject@VCHeaderDecorator@NEffectUpdateDecorator@@@@1V?$CDynamicPoolEx@VCHeaderDecorator@NEffectUpdateDecorator@@@@A ; CPooledObject<NEffectUpdateDecorator::CHeaderDecorator>::ms_kPool
  00005	e9 00 00 00 00	 jmp	 ??1?$CDynamicPoolEx@VCHeaderDecorator@NEffectUpdateDecorator@@@@UAE@XZ ; CDynamicPoolEx<NEffectUpdateDecorator::CHeaderDecorator>::~CDynamicPoolEx<NEffectUpdateDecorator::CHeaderDecorator>
??__F?ms_kPool@?$CPooledObject@VCHeaderDecorator@NEffectUpdateDecorator@@@@1V?$CDynamicPoolEx@VCHeaderDecorator@NEffectUpdateDecorator@@@@A@@YAXXZ ENDP ; `dynamic atexit destructor for 'CPooledObject<NEffectUpdateDecorator::CHeaderDecorator>::ms_kPool''
text$yd	ENDS
; Function compile flags: /Ogtp
; File D:\Metin2 Server Files\mainline\SRC_2014\Metin2Client\eterLib\Pool.h
;	COMDAT ??__E?ms_kPool@?$CPooledObject@VCHeaderDecorator@NEffectUpdateDecorator@@@@1V?$CDynamicPoolEx@VCHeaderDecorator@NEffectUpdateDecorator@@@@A@@YAXXZ
text$di	SEGMENT
??__E?ms_kPool@?$CPooledObject@VCHeaderDecorator@NEffectUpdateDecorator@@@@1V?$CDynamicPoolEx@VCHeaderDecorator@NEffectUpdateDecorator@@@@A@@YAXXZ PROC ; `dynamic initializer for 'CPooledObject<NEffectUpdateDecorator::CHeaderDecorator>::ms_kPool'', COMDAT

; 272  : template <class T> CDynamicPoolEx<T> CPooledObject<T>::ms_kPool;

  00000	68 00 00 00 00	 push	 OFFSET ??__F?ms_kPool@?$CPooledObject@VCHeaderDecorator@NEffectUpdateDecorator@@@@1V?$CDynamicPoolEx@VCHeaderDecorator@NEffectUpdateDecorator@@@@A@@YAXXZ ; `dynamic atexit destructor for 'CPooledObject<NEffectUpdateDecorator::CHeaderDecorator>::ms_kPool''
  00005	e8 00 00 00 00	 call	 _atexit
  0000a	59		 pop	 ecx
  0000b	c3		 ret	 0
??__E?ms_kPool@?$CPooledObject@VCHeaderDecorator@NEffectUpdateDecorator@@@@1V?$CDynamicPoolEx@VCHeaderDecorator@NEffectUpdateDecorator@@@@A@@YAXXZ ENDP ; `dynamic initializer for 'CPooledObject<NEffectUpdateDecorator::CHeaderDecorator>::ms_kPool''
text$di	ENDS
; Function compile flags: /Ogtp
; File C:\Program Files (x86)\Microsoft Visual Studio\2019\Community\VC\Tools\MSVC\14.28.29333\include\xmemory
;	COMDAT ??$_Destroy_range@V?$allocator@PAVCRotationDecorator@NEffectUpdateDecorator@@@std@@@std@@YAXPAPAVCRotationDecorator@NEffectUpdateDecorator@@QAPAV12@AAV?$allocator@PAVCRotationDecorator@NEffectUpdateDecorator@@@0@@Z
_TEXT	SEGMENT
__First$ = 8						; size = 4
__Last$ = 12						; size = 4
__Al$ = 16						; size = 4
??$_Destroy_range@V?$allocator@PAVCRotationDecorator@NEffectUpdateDecorator@@@std@@@std@@YAXPAPAVCRotationDecorator@NEffectUpdateDecorator@@QAPAV12@AAV?$allocator@PAVCRotationDecorator@NEffectUpdateDecorator@@@0@@Z PROC ; std::_Destroy_range<std::allocator<NEffectUpdateDecorator::CRotationDecorator *> >, COMDAT

; 963  :     // note that this is an optimization for debug mode codegen; in release mode the BE removes all of this
; 964  :     using _Ty = typename _Alloc::value_type;
; 965  :     if _CONSTEXPR_IF (!conjunction_v<is_trivially_destructible<_Ty>, _Uses_default_destroy<_Alloc, _Ty*>>) {
; 966  :         for (; _First != _Last; ++_First) {
; 967  :             allocator_traits<_Alloc>::destroy(_Al, _Unfancy(_First));
; 968  :         }
; 969  :     }
; 970  : }

  00000	c2 00 00	 ret	 0
??$_Destroy_range@V?$allocator@PAVCRotationDecorator@NEffectUpdateDecorator@@@std@@@std@@YAXPAPAVCRotationDecorator@NEffectUpdateDecorator@@QAPAV12@AAV?$allocator@PAVCRotationDecorator@NEffectUpdateDecorator@@@0@@Z ENDP ; std::_Destroy_range<std::allocator<NEffectUpdateDecorator::CRotationDecorator *> >
_TEXT	ENDS
; Function compile flags: /Ogtp
; File C:\Program Files (x86)\Microsoft Visual Studio\2019\Community\VC\Tools\MSVC\14.28.29333\include\xmemory
;	COMDAT ??$_Destroy_range@V?$allocator@PAVCGravityDecorator@NEffectUpdateDecorator@@@std@@@std@@YAXPAPAVCGravityDecorator@NEffectUpdateDecorator@@QAPAV12@AAV?$allocator@PAVCGravityDecorator@NEffectUpdateDecorator@@@0@@Z
_TEXT	SEGMENT
__First$ = 8						; size = 4
__Last$ = 12						; size = 4
__Al$ = 16						; size = 4
??$_Destroy_range@V?$allocator@PAVCGravityDecorator@NEffectUpdateDecorator@@@std@@@std@@YAXPAPAVCGravityDecorator@NEffectUpdateDecorator@@QAPAV12@AAV?$allocator@PAVCGravityDecorator@NEffectUpdateDecorator@@@0@@Z PROC ; std::_Destroy_range<std::allocator<NEffectUpdateDecorator::CGravityDecorator *> >, COMDAT

; 963  :     // note that this is an optimization for debug mode codegen; in release mode the BE removes all of this
; 964  :     using _Ty = typename _Alloc::value_type;
; 965  :     if _CONSTEXPR_IF (!conjunction_v<is_trivially_destructible<_Ty>, _Uses_default_destroy<_Alloc, _Ty*>>) {
; 966  :         for (; _First != _Last; ++_First) {
; 967  :             allocator_traits<_Alloc>::destroy(_Al, _Unfancy(_First));
; 968  :         }
; 969  :     }
; 970  : }

  00000	c2 00 00	 ret	 0
??$_Destroy_range@V?$allocator@PAVCGravityDecorator@NEffectUpdateDecorator@@@std@@@std@@YAXPAPAVCGravityDecorator@NEffectUpdateDecorator@@QAPAV12@AAV?$allocator@PAVCGravityDecorator@NEffectUpdateDecorator@@@0@@Z ENDP ; std::_Destroy_range<std::allocator<NEffectUpdateDecorator::CGravityDecorator *> >
_TEXT	ENDS
; Function compile flags: /Ogtp
; File C:\Program Files (x86)\Microsoft Visual Studio\2019\Community\VC\Tools\MSVC\14.28.29333\include\xmemory
;	COMDAT ??$_Destroy_range@V?$allocator@PAVCAirResistanceDecorator@NEffectUpdateDecorator@@@std@@@std@@YAXPAPAVCAirResistanceDecorator@NEffectUpdateDecorator@@QAPAV12@AAV?$allocator@PAVCAirResistanceDecorator@NEffectUpdateDecorator@@@0@@Z
_TEXT	SEGMENT
__First$ = 8						; size = 4
__Last$ = 12						; size = 4
__Al$ = 16						; size = 4
??$_Destroy_range@V?$allocator@PAVCAirResistanceDecorator@NEffectUpdateDecorator@@@std@@@std@@YAXPAPAVCAirResistanceDecorator@NEffectUpdateDecorator@@QAPAV12@AAV?$allocator@PAVCAirResistanceDecorator@NEffectUpdateDecorator@@@0@@Z PROC ; std::_Destroy_range<std::allocator<NEffectUpdateDecorator::CAirResistanceDecorator *> >, COMDAT

; 963  :     // note that this is an optimization for debug mode codegen; in release mode the BE removes all of this
; 964  :     using _Ty = typename _Alloc::value_type;
; 965  :     if _CONSTEXPR_IF (!conjunction_v<is_trivially_destructible<_Ty>, _Uses_default_destroy<_Alloc, _Ty*>>) {
; 966  :         for (; _First != _Last; ++_First) {
; 967  :             allocator_traits<_Alloc>::destroy(_Al, _Unfancy(_First));
; 968  :         }
; 969  :     }
; 970  : }

  00000	c2 00 00	 ret	 0
??$_Destroy_range@V?$allocator@PAVCAirResistanceDecorator@NEffectUpdateDecorator@@@std@@@std@@YAXPAPAVCAirResistanceDecorator@NEffectUpdateDecorator@@QAPAV12@AAV?$allocator@PAVCAirResistanceDecorator@NEffectUpdateDecorator@@@0@@Z ENDP ; std::_Destroy_range<std::allocator<NEffectUpdateDecorator::CAirResistanceDecorator *> >
_TEXT	ENDS
; Function compile flags: /Ogtp
; File C:\Program Files (x86)\Microsoft Visual Studio\2019\Community\VC\Tools\MSVC\14.28.29333\include\xmemory
;	COMDAT ??$_Destroy_range@V?$allocator@PAVCTextureAnimationRandomDecorator@NEffectUpdateDecorator@@@std@@@std@@YAXPAPAVCTextureAnimationRandomDecorator@NEffectUpdateDecorator@@QAPAV12@AAV?$allocator@PAVCTextureAnimationRandomDecorator@NEffectUpdateDecorator@@@0@@Z
_TEXT	SEGMENT
__First$ = 8						; size = 4
__Last$ = 12						; size = 4
__Al$ = 16						; size = 4
??$_Destroy_range@V?$allocator@PAVCTextureAnimationRandomDecorator@NEffectUpdateDecorator@@@std@@@std@@YAXPAPAVCTextureAnimationRandomDecorator@NEffectUpdateDecorator@@QAPAV12@AAV?$allocator@PAVCTextureAnimationRandomDecorator@NEffectUpdateDecorator@@@0@@Z PROC ; std::_Destroy_range<std::allocator<NEffectUpdateDecorator::CTextureAnimationRandomDecorator *> >, COMDAT

; 963  :     // note that this is an optimization for debug mode codegen; in release mode the BE removes all of this
; 964  :     using _Ty = typename _Alloc::value_type;
; 965  :     if _CONSTEXPR_IF (!conjunction_v<is_trivially_destructible<_Ty>, _Uses_default_destroy<_Alloc, _Ty*>>) {
; 966  :         for (; _First != _Last; ++_First) {
; 967  :             allocator_traits<_Alloc>::destroy(_Al, _Unfancy(_First));
; 968  :         }
; 969  :     }
; 970  : }

  00000	c2 00 00	 ret	 0
??$_Destroy_range@V?$allocator@PAVCTextureAnimationRandomDecorator@NEffectUpdateDecorator@@@std@@@std@@YAXPAPAVCTextureAnimationRandomDecorator@NEffectUpdateDecorator@@QAPAV12@AAV?$allocator@PAVCTextureAnimationRandomDecorator@NEffectUpdateDecorator@@@0@@Z ENDP ; std::_Destroy_range<std::allocator<NEffectUpdateDecorator::CTextureAnimationRandomDecorator *> >
_TEXT	ENDS
; Function compile flags: /Ogtp
; File C:\Program Files (x86)\Microsoft Visual Studio\2019\Community\VC\Tools\MSVC\14.28.29333\include\xmemory
;	COMDAT ??$_Destroy_range@V?$allocator@PAVCTextureAnimationCCWDecorator@NEffectUpdateDecorator@@@std@@@std@@YAXPAPAVCTextureAnimationCCWDecorator@NEffectUpdateDecorator@@QAPAV12@AAV?$allocator@PAVCTextureAnimationCCWDecorator@NEffectUpdateDecorator@@@0@@Z
_TEXT	SEGMENT
__First$ = 8						; size = 4
__Last$ = 12						; size = 4
__Al$ = 16						; size = 4
??$_Destroy_range@V?$allocator@PAVCTextureAnimationCCWDecorator@NEffectUpdateDecorator@@@std@@@std@@YAXPAPAVCTextureAnimationCCWDecorator@NEffectUpdateDecorator@@QAPAV12@AAV?$allocator@PAVCTextureAnimationCCWDecorator@NEffectUpdateDecorator@@@0@@Z PROC ; std::_Destroy_range<std::allocator<NEffectUpdateDecorator::CTextureAnimationCCWDecorator *> >, COMDAT

; 963  :     // note that this is an optimization for debug mode codegen; in release mode the BE removes all of this
; 964  :     using _Ty = typename _Alloc::value_type;
; 965  :     if _CONSTEXPR_IF (!conjunction_v<is_trivially_destructible<_Ty>, _Uses_default_destroy<_Alloc, _Ty*>>) {
; 966  :         for (; _First != _Last; ++_First) {
; 967  :             allocator_traits<_Alloc>::destroy(_Al, _Unfancy(_First));
; 968  :         }
; 969  :     }
; 970  : }

  00000	c2 00 00	 ret	 0
??$_Destroy_range@V?$allocator@PAVCTextureAnimationCCWDecorator@NEffectUpdateDecorator@@@std@@@std@@YAXPAPAVCTextureAnimationCCWDecorator@NEffectUpdateDecorator@@QAPAV12@AAV?$allocator@PAVCTextureAnimationCCWDecorator@NEffectUpdateDecorator@@@0@@Z ENDP ; std::_Destroy_range<std::allocator<NEffectUpdateDecorator::CTextureAnimationCCWDecorator *> >
_TEXT	ENDS
; Function compile flags: /Ogtp
; File C:\Program Files (x86)\Microsoft Visual Studio\2019\Community\VC\Tools\MSVC\14.28.29333\include\xmemory
;	COMDAT ??$_Destroy_range@V?$allocator@PAVCTextureAnimationCWDecorator@NEffectUpdateDecorator@@@std@@@std@@YAXPAPAVCTextureAnimationCWDecorator@NEffectUpdateDecorator@@QAPAV12@AAV?$allocator@PAVCTextureAnimationCWDecorator@NEffectUpdateDecorator@@@0@@Z
_TEXT	SEGMENT
__First$ = 8						; size = 4
__Last$ = 12						; size = 4
__Al$ = 16						; size = 4
??$_Destroy_range@V?$allocator@PAVCTextureAnimationCWDecorator@NEffectUpdateDecorator@@@std@@@std@@YAXPAPAVCTextureAnimationCWDecorator@NEffectUpdateDecorator@@QAPAV12@AAV?$allocator@PAVCTextureAnimationCWDecorator@NEffectUpdateDecorator@@@0@@Z PROC ; std::_Destroy_range<std::allocator<NEffectUpdateDecorator::CTextureAnimationCWDecorator *> >, COMDAT

; 963  :     // note that this is an optimization for debug mode codegen; in release mode the BE removes all of this
; 964  :     using _Ty = typename _Alloc::value_type;
; 965  :     if _CONSTEXPR_IF (!conjunction_v<is_trivially_destructible<_Ty>, _Uses_default_destroy<_Alloc, _Ty*>>) {
; 966  :         for (; _First != _Last; ++_First) {
; 967  :             allocator_traits<_Alloc>::destroy(_Al, _Unfancy(_First));
; 968  :         }
; 969  :     }
; 970  : }

  00000	c2 00 00	 ret	 0
??$_Destroy_range@V?$allocator@PAVCTextureAnimationCWDecorator@NEffectUpdateDecorator@@@std@@@std@@YAXPAPAVCTextureAnimationCWDecorator@NEffectUpdateDecorator@@QAPAV12@AAV?$allocator@PAVCTextureAnimationCWDecorator@NEffectUpdateDecorator@@@0@@Z ENDP ; std::_Destroy_range<std::allocator<NEffectUpdateDecorator::CTextureAnimationCWDecorator *> >
_TEXT	ENDS
; Function compile flags: /Ogtp
; File C:\Program Files (x86)\Microsoft Visual Studio\2019\Community\VC\Tools\MSVC\14.28.29333\include\xmemory
;	COMDAT ??$_Destroy_range@V?$allocator@PAVCNullDecorator@NEffectUpdateDecorator@@@std@@@std@@YAXPAPAVCNullDecorator@NEffectUpdateDecorator@@QAPAV12@AAV?$allocator@PAVCNullDecorator@NEffectUpdateDecorator@@@0@@Z
_TEXT	SEGMENT
__First$ = 8						; size = 4
__Last$ = 12						; size = 4
__Al$ = 16						; size = 4
??$_Destroy_range@V?$allocator@PAVCNullDecorator@NEffectUpdateDecorator@@@std@@@std@@YAXPAPAVCNullDecorator@NEffectUpdateDecorator@@QAPAV12@AAV?$allocator@PAVCNullDecorator@NEffectUpdateDecorator@@@0@@Z PROC ; std::_Destroy_range<std::allocator<NEffectUpdateDecorator::CNullDecorator *> >, COMDAT

; 963  :     // note that this is an optimization for debug mode codegen; in release mode the BE removes all of this
; 964  :     using _Ty = typename _Alloc::value_type;
; 965  :     if _CONSTEXPR_IF (!conjunction_v<is_trivially_destructible<_Ty>, _Uses_default_destroy<_Alloc, _Ty*>>) {
; 966  :         for (; _First != _Last; ++_First) {
; 967  :             allocator_traits<_Alloc>::destroy(_Al, _Unfancy(_First));
; 968  :         }
; 969  :     }
; 970  : }

  00000	c2 00 00	 ret	 0
??$_Destroy_range@V?$allocator@PAVCNullDecorator@NEffectUpdateDecorator@@@std@@@std@@YAXPAPAVCNullDecorator@NEffectUpdateDecorator@@QAPAV12@AAV?$allocator@PAVCNullDecorator@NEffectUpdateDecorator@@@0@@Z ENDP ; std::_Destroy_range<std::allocator<NEffectUpdateDecorator::CNullDecorator *> >
_TEXT	ENDS
; Function compile flags: /Ogtp
; File C:\Program Files (x86)\Microsoft Visual Studio\2019\Community\VC\Tools\MSVC\14.28.29333\include\xmemory
;	COMDAT ??$_Destroy_range@V?$allocator@PAVCHeaderDecorator@NEffectUpdateDecorator@@@std@@@std@@YAXPAPAVCHeaderDecorator@NEffectUpdateDecorator@@QAPAV12@AAV?$allocator@PAVCHeaderDecorator@NEffectUpdateDecorator@@@0@@Z
_TEXT	SEGMENT
__First$ = 8						; size = 4
__Last$ = 12						; size = 4
__Al$ = 16						; size = 4
??$_Destroy_range@V?$allocator@PAVCHeaderDecorator@NEffectUpdateDecorator@@@std@@@std@@YAXPAPAVCHeaderDecorator@NEffectUpdateDecorator@@QAPAV12@AAV?$allocator@PAVCHeaderDecorator@NEffectUpdateDecorator@@@0@@Z PROC ; std::_Destroy_range<std::allocator<NEffectUpdateDecorator::CHeaderDecorator *> >, COMDAT

; 963  :     // note that this is an optimization for debug mode codegen; in release mode the BE removes all of this
; 964  :     using _Ty = typename _Alloc::value_type;
; 965  :     if _CONSTEXPR_IF (!conjunction_v<is_trivially_destructible<_Ty>, _Uses_default_destroy<_Alloc, _Ty*>>) {
; 966  :         for (; _First != _Last; ++_First) {
; 967  :             allocator_traits<_Alloc>::destroy(_Al, _Unfancy(_First));
; 968  :         }
; 969  :     }
; 970  : }

  00000	c2 00 00	 ret	 0
??$_Destroy_range@V?$allocator@PAVCHeaderDecorator@NEffectUpdateDecorator@@@std@@@std@@YAXPAPAVCHeaderDecorator@NEffectUpdateDecorator@@QAPAV12@AAV?$allocator@PAVCHeaderDecorator@NEffectUpdateDecorator@@@0@@Z ENDP ; std::_Destroy_range<std::allocator<NEffectUpdateDecorator::CHeaderDecorator *> >
_TEXT	ENDS
; Function compile flags: /Ogtp
; File C:\Program Files (x86)\Microsoft Visual Studio\2019\Community\VC\Tools\MSVC\14.28.29333\include\xmemory
;	COMDAT ??$_Pocca@V?$allocator@D@std@@@std@@YAXAAV?$allocator@D@0@ABV10@@Z
_TEXT	SEGMENT
__Left$ = 8						; size = 4
__Right$ = 12						; size = 4
??$_Pocca@V?$allocator@D@std@@@std@@YAXAAV?$allocator@D@0@ABV10@@Z PROC ; std::_Pocca<std::allocator<char> >, COMDAT

; 886  :     if constexpr (allocator_traits<_Alloc>::propagate_on_container_copy_assignment::value) {
; 887  :         _Left = _Right;
; 888  :     }
; 889  : }

  00000	c2 00 00	 ret	 0
??$_Pocca@V?$allocator@D@std@@@std@@YAXAAV?$allocator@D@0@ABV10@@Z ENDP ; std::_Pocca<std::allocator<char> >
_TEXT	ENDS
; Function compile flags: /Ogtp
;	COMDAT ??_G?$CDynamicPoolEx@VCHeaderDecorator@NEffectUpdateDecorator@@@@UAEPAXI@Z
_TEXT	SEGMENT
___flags$ = 8						; size = 4
??_G?$CDynamicPoolEx@VCHeaderDecorator@NEffectUpdateDecorator@@@@UAEPAXI@Z PROC ; CDynamicPoolEx<NEffectUpdateDecorator::CHeaderDecorator>::`scalar deleting destructor', COMDAT
; _this$ = ecx
  00000	55		 push	 ebp
  00001	8b ec		 mov	 ebp, esp
  00003	56		 push	 esi
  00004	8b f1		 mov	 esi, ecx
  00006	e8 00 00 00 00	 call	 ??1?$CDynamicPoolEx@VCHeaderDecorator@NEffectUpdateDecorator@@@@UAE@XZ ; CDynamicPoolEx<NEffectUpdateDecorator::CHeaderDecorator>::~CDynamicPoolEx<NEffectUpdateDecorator::CHeaderDecorator>
  0000b	f6 45 08 01	 test	 BYTE PTR ___flags$[ebp], 1
  0000f	74 0b		 je	 SHORT $LN4@scalar
  00011	6a 24		 push	 36			; 00000024H
  00013	56		 push	 esi
  00014	e8 00 00 00 00	 call	 ??3@YAXPAXI@Z		; operator delete
  00019	83 c4 08	 add	 esp, 8
$LN4@scalar:
  0001c	8b c6		 mov	 eax, esi
  0001e	5e		 pop	 esi
  0001f	5d		 pop	 ebp
  00020	c2 04 00	 ret	 4
??_G?$CDynamicPoolEx@VCHeaderDecorator@NEffectUpdateDecorator@@@@UAEPAXI@Z ENDP ; CDynamicPoolEx<NEffectUpdateDecorator::CHeaderDecorator>::`scalar deleting destructor'
_TEXT	ENDS
; Function compile flags: /Ogtp
; File D:\Metin2 Server Files\mainline\SRC_2014\Metin2Client\eterLib\Pool.h
;	COMDAT ?Delete@?$CDynamicPoolEx@VCHeaderDecorator@NEffectUpdateDecorator@@@@KAXPAVCHeaderDecorator@NEffectUpdateDecorator@@@Z
_TEXT	SEGMENT
_pkData$ = 8						; size = 4
?Delete@?$CDynamicPoolEx@VCHeaderDecorator@NEffectUpdateDecorator@@@@KAXPAVCHeaderDecorator@NEffectUpdateDecorator@@@Z PROC ; CDynamicPoolEx<NEffectUpdateDecorator::CHeaderDecorator>::Delete, COMDAT

; 224  : 			::operator delete(pkData);

  00000	e9 00 00 00 00	 jmp	 ??3@YAXPAX@Z		; operator delete
?Delete@?$CDynamicPoolEx@VCHeaderDecorator@NEffectUpdateDecorator@@@@KAXPAVCHeaderDecorator@NEffectUpdateDecorator@@@Z ENDP ; CDynamicPoolEx<NEffectUpdateDecorator::CHeaderDecorator>::Delete
_TEXT	ENDS
; Function compile flags: /Ogtp
; File D:\Metin2 Server Files\mainline\SRC_2014\Metin2Client\eterLib\Pool.h
; File C:\Program Files (x86)\Microsoft Visual Studio\2019\Community\VC\Tools\MSVC\14.28.29333\include\vector
; File C:\Program Files (x86)\Microsoft Visual Studio\2019\Community\VC\Tools\MSVC\14.28.29333\include\algorithm
; File D:\Metin2 Server Files\mainline\SRC_2014\Metin2Client\eterLib\Pool.h
; File C:\Program Files (x86)\Microsoft Visual Studio\2019\Community\VC\Tools\MSVC\14.28.29333\include\algorithm
; File D:\Metin2 Server Files\mainline\SRC_2014\Metin2Client\eterLib\Pool.h
; File C:\Program Files (x86)\Microsoft Visual Studio\2019\Community\VC\Tools\MSVC\14.28.29333\include\algorithm
; File D:\Metin2 Server Files\mainline\SRC_2014\Metin2Client\eterLib\Pool.h
; File C:\Program Files (x86)\Microsoft Visual Studio\2019\Community\VC\Tools\MSVC\14.28.29333\include\vector
; File C:\Program Files (x86)\Microsoft Visual Studio\2019\Community\VC\Tools\MSVC\14.28.29333\include\xmemory
; File C:\Program Files (x86)\Microsoft Visual Studio\2019\Community\VC\Tools\MSVC\14.28.29333\include\vector
; File C:\Program Files (x86)\Microsoft Visual Studio\2019\Community\VC\Tools\MSVC\14.28.29333\include\xmemory
; File C:\Program Files (x86)\Microsoft Visual Studio\2019\Community\VC\Tools\MSVC\14.28.29333\include\vector
; File C:\Program Files (x86)\Microsoft Visual Studio\2019\Community\VC\Tools\MSVC\14.28.29333\include\xmemory
; File C:\Program Files (x86)\Microsoft Visual Studio\2019\Community\VC\Tools\MSVC\14.28.29333\include\vector
; File C:\Program Files (x86)\Microsoft Visual Studio\2019\Community\VC\Tools\MSVC\14.28.29333\include\xmemory
; File C:\Program Files (x86)\Microsoft Visual Studio\2019\Community\VC\Tools\MSVC\14.28.29333\include\vector
; File D:\Metin2 Server Files\mainline\SRC_2014\Metin2Client\eterLib\Pool.h
;	COMDAT ??1?$CDynamicPoolEx@VCHeaderDecorator@NEffectUpdateDecorator@@@@UAE@XZ
_TEXT	SEGMENT
??1?$CDynamicPoolEx@VCHeaderDecorator@NEffectUpdateDecorator@@@@UAE@XZ PROC ; CDynamicPoolEx<NEffectUpdateDecorator::CHeaderDecorator>::~CDynamicPoolEx<NEffectUpdateDecorator::CHeaderDecorator>, COMDAT
; _this$ = ecx

; 132  : 		{

  00000	53		 push	 ebx
  00001	56		 push	 esi
  00002	57		 push	 edi
  00003	8b f9		 mov	 edi, ecx
  00005	c7 07 00 00 00
	00		 mov	 DWORD PTR [edi], OFFSET ??_7?$CDynamicPoolEx@VCHeaderDecorator@NEffectUpdateDecorator@@@@6B@
; File C:\Program Files (x86)\Microsoft Visual Studio\2019\Community\VC\Tools\MSVC\14.28.29333\include\vector

; 42   :     _Vector_const_iterator(_Tptr _Parg, const _Container_base* _Pvector) noexcept : _Ptr(_Parg) {

  0000b	8b 5f 08	 mov	 ebx, DWORD PTR [edi+8]
  0000e	8b 77 04	 mov	 esi, DWORD PTR [edi+4]
; File C:\Program Files (x86)\Microsoft Visual Studio\2019\Community\VC\Tools\MSVC\14.28.29333\include\algorithm

; 307  :     for (; _UFirst != _ULast; ++_UFirst) {

  00011	3b f3		 cmp	 esi, ebx
  00013	74 14		 je	 SHORT $LN19@CDynamicPo
$LL20@CDynamicPo:
; File D:\Metin2 Server Files\mainline\SRC_2014\Metin2Client\eterLib\Pool.h

; 224  : 			::operator delete(pkData);

  00015	ff 36		 push	 DWORD PTR [esi]
  00017	e8 00 00 00 00	 call	 ??3@YAXPAX@Z		; operator delete
; File C:\Program Files (x86)\Microsoft Visual Studio\2019\Community\VC\Tools\MSVC\14.28.29333\include\algorithm

; 307  :     for (; _UFirst != _ULast; ++_UFirst) {

  0001c	83 c6 04	 add	 esi, 4
; File D:\Metin2 Server Files\mainline\SRC_2014\Metin2Client\eterLib\Pool.h

; 224  : 			::operator delete(pkData);

  0001f	83 c4 04	 add	 esp, 4
; File C:\Program Files (x86)\Microsoft Visual Studio\2019\Community\VC\Tools\MSVC\14.28.29333\include\algorithm

; 307  :     for (; _UFirst != _ULast; ++_UFirst) {

  00022	3b f3		 cmp	 esi, ebx
  00024	75 ef		 jne	 SHORT $LL20@CDynamicPo
  00026	8b 77 04	 mov	 esi, DWORD PTR [edi+4]
$LN19@CDynamicPo:
; File D:\Metin2 Server Files\mainline\SRC_2014\Metin2Client\eterLib\Pool.h

; 162  : 			m_kVct_pkFree.clear();

  00029	8b 4f 10	 mov	 ecx, DWORD PTR [edi+16]
  0002c	89 77 08	 mov	 DWORD PTR [edi+8], esi
  0002f	89 4f 14	 mov	 DWORD PTR [edi+20], ecx
; File C:\Program Files (x86)\Microsoft Visual Studio\2019\Community\VC\Tools\MSVC\14.28.29333\include\vector

; 1694 :         if (_Myfirst) { // destroy and deallocate old array

  00032	85 c9		 test	 ecx, ecx
  00034	74 27		 je	 SHORT $LN27@CDynamicPo

; 1695 :             _Destroy(_Myfirst, _Mylast);
; 1696 :             _Getal().deallocate(_Myfirst, static_cast<size_type>(_Myend - _Myfirst));

  00036	8b 47 18	 mov	 eax, DWORD PTR [edi+24]
  00039	2b c1		 sub	 eax, ecx
; File C:\Program Files (x86)\Microsoft Visual Studio\2019\Community\VC\Tools\MSVC\14.28.29333\include\xmemory

; 810  :         _Deallocate<_New_alignof<_Ty>>(_Ptr, sizeof(_Ty) * _Count);

  0003b	83 e0 fc	 and	 eax, -4			; fffffffcH
  0003e	50		 push	 eax
  0003f	51		 push	 ecx
  00040	e8 00 00 00 00	 call	 ??$_Deallocate@$07$0A@@std@@YAXPAXI@Z ; std::_Deallocate<8,0>
; File C:\Program Files (x86)\Microsoft Visual Studio\2019\Community\VC\Tools\MSVC\14.28.29333\include\vector

; 1698 :             _Myfirst = pointer();

  00045	c7 47 10 00 00
	00 00		 mov	 DWORD PTR [edi+16], 0
; File C:\Program Files (x86)\Microsoft Visual Studio\2019\Community\VC\Tools\MSVC\14.28.29333\include\xmemory

; 810  :         _Deallocate<_New_alignof<_Ty>>(_Ptr, sizeof(_Ty) * _Count);

  0004c	83 c4 08	 add	 esp, 8
; File C:\Program Files (x86)\Microsoft Visual Studio\2019\Community\VC\Tools\MSVC\14.28.29333\include\vector

; 1699 :             _Mylast  = pointer();

  0004f	c7 47 14 00 00
	00 00		 mov	 DWORD PTR [edi+20], 0

; 1700 :             _Myend   = pointer();

  00056	c7 47 18 00 00
	00 00		 mov	 DWORD PTR [edi+24], 0
$LN27@CDynamicPo:

; 1694 :         if (_Myfirst) { // destroy and deallocate old array

  0005d	8b 4f 04	 mov	 ecx, DWORD PTR [edi+4]
  00060	85 c9		 test	 ecx, ecx
  00062	74 27		 je	 SHORT $LN34@CDynamicPo

; 1695 :             _Destroy(_Myfirst, _Mylast);
; 1696 :             _Getal().deallocate(_Myfirst, static_cast<size_type>(_Myend - _Myfirst));

  00064	8b 47 0c	 mov	 eax, DWORD PTR [edi+12]
  00067	2b c1		 sub	 eax, ecx
; File C:\Program Files (x86)\Microsoft Visual Studio\2019\Community\VC\Tools\MSVC\14.28.29333\include\xmemory

; 810  :         _Deallocate<_New_alignof<_Ty>>(_Ptr, sizeof(_Ty) * _Count);

  00069	83 e0 fc	 and	 eax, -4			; fffffffcH
  0006c	50		 push	 eax
  0006d	51		 push	 ecx
  0006e	e8 00 00 00 00	 call	 ??$_Deallocate@$07$0A@@std@@YAXPAXI@Z ; std::_Deallocate<8,0>
; File C:\Program Files (x86)\Microsoft Visual Studio\2019\Community\VC\Tools\MSVC\14.28.29333\include\vector

; 1698 :             _Myfirst = pointer();

  00073	c7 47 04 00 00
	00 00		 mov	 DWORD PTR [edi+4], 0
; File C:\Program Files (x86)\Microsoft Visual Studio\2019\Community\VC\Tools\MSVC\14.28.29333\include\xmemory

; 810  :         _Deallocate<_New_alignof<_Ty>>(_Ptr, sizeof(_Ty) * _Count);

  0007a	83 c4 08	 add	 esp, 8
; File C:\Program Files (x86)\Microsoft Visual Studio\2019\Community\VC\Tools\MSVC\14.28.29333\include\vector

; 1699 :             _Mylast  = pointer();

  0007d	c7 47 08 00 00
	00 00		 mov	 DWORD PTR [edi+8], 0

; 1700 :             _Myend   = pointer();

  00084	c7 47 0c 00 00
	00 00		 mov	 DWORD PTR [edi+12], 0
$LN34@CDynamicPo:
  0008b	5f		 pop	 edi
; File D:\Metin2 Server Files\mainline\SRC_2014\Metin2Client\eterLib\Pool.h

; 142  : 		}

  0008c	5e		 pop	 esi
  0008d	5b		 pop	 ebx
  0008e	c3		 ret	 0
??1?$CDynamicPoolEx@VCHeaderDecorator@NEffectUpdateDecorator@@@@UAE@XZ ENDP ; CDynamicPoolEx<NEffectUpdateDecorator::CHeaderDecorator>::~CDynamicPoolEx<NEffectUpdateDecorator::CHeaderDecorator>
_TEXT	ENDS
; Function compile flags: /Ogtp
;	COMDAT ??_G?$CDynamicPoolEx@VCNullDecorator@NEffectUpdateDecorator@@@@UAEPAXI@Z
_TEXT	SEGMENT
___flags$ = 8						; size = 4
??_G?$CDynamicPoolEx@VCNullDecorator@NEffectUpdateDecorator@@@@UAEPAXI@Z PROC ; CDynamicPoolEx<NEffectUpdateDecorator::CNullDecorator>::`scalar deleting destructor', COMDAT
; _this$ = ecx
  00000	55		 push	 ebp
  00001	8b ec		 mov	 ebp, esp
  00003	56		 push	 esi
  00004	8b f1		 mov	 esi, ecx
  00006	e8 00 00 00 00	 call	 ??1?$CDynamicPoolEx@VCNullDecorator@NEffectUpdateDecorator@@@@UAE@XZ ; CDynamicPoolEx<NEffectUpdateDecorator::CNullDecorator>::~CDynamicPoolEx<NEffectUpdateDecorator::CNullDecorator>
  0000b	f6 45 08 01	 test	 BYTE PTR ___flags$[ebp], 1
  0000f	74 0b		 je	 SHORT $LN4@scalar
  00011	6a 24		 push	 36			; 00000024H
  00013	56		 push	 esi
  00014	e8 00 00 00 00	 call	 ??3@YAXPAXI@Z		; operator delete
  00019	83 c4 08	 add	 esp, 8
$LN4@scalar:
  0001c	8b c6		 mov	 eax, esi
  0001e	5e		 pop	 esi
  0001f	5d		 pop	 ebp
  00020	c2 04 00	 ret	 4
??_G?$CDynamicPoolEx@VCNullDecorator@NEffectUpdateDecorator@@@@UAEPAXI@Z ENDP ; CDynamicPoolEx<NEffectUpdateDecorator::CNullDecorator>::`scalar deleting destructor'
_TEXT	ENDS
; Function compile flags: /Ogtp
; File D:\Metin2 Server Files\mainline\SRC_2014\Metin2Client\eterLib\Pool.h
;	COMDAT ?Delete@?$CDynamicPoolEx@VCNullDecorator@NEffectUpdateDecorator@@@@KAXPAVCNullDecorator@NEffectUpdateDecorator@@@Z
_TEXT	SEGMENT
_pkData$ = 8						; size = 4
?Delete@?$CDynamicPoolEx@VCNullDecorator@NEffectUpdateDecorator@@@@KAXPAVCNullDecorator@NEffectUpdateDecorator@@@Z PROC ; CDynamicPoolEx<NEffectUpdateDecorator::CNullDecorator>::Delete, COMDAT

; 224  : 			::operator delete(pkData);

  00000	e9 00 00 00 00	 jmp	 ??3@YAXPAX@Z		; operator delete
?Delete@?$CDynamicPoolEx@VCNullDecorator@NEffectUpdateDecorator@@@@KAXPAVCNullDecorator@NEffectUpdateDecorator@@@Z ENDP ; CDynamicPoolEx<NEffectUpdateDecorator::CNullDecorator>::Delete
_TEXT	ENDS
; Function compile flags: /Ogtp
; File D:\Metin2 Server Files\mainline\SRC_2014\Metin2Client\eterLib\Pool.h
; File C:\Program Files (x86)\Microsoft Visual Studio\2019\Community\VC\Tools\MSVC\14.28.29333\include\vector
; File C:\Program Files (x86)\Microsoft Visual Studio\2019\Community\VC\Tools\MSVC\14.28.29333\include\algorithm
; File D:\Metin2 Server Files\mainline\SRC_2014\Metin2Client\eterLib\Pool.h
; File C:\Program Files (x86)\Microsoft Visual Studio\2019\Community\VC\Tools\MSVC\14.28.29333\include\algorithm
; File D:\Metin2 Server Files\mainline\SRC_2014\Metin2Client\eterLib\Pool.h
; File C:\Program Files (x86)\Microsoft Visual Studio\2019\Community\VC\Tools\MSVC\14.28.29333\include\algorithm
; File D:\Metin2 Server Files\mainline\SRC_2014\Metin2Client\eterLib\Pool.h
; File C:\Program Files (x86)\Microsoft Visual Studio\2019\Community\VC\Tools\MSVC\14.28.29333\include\vector
; File C:\Program Files (x86)\Microsoft Visual Studio\2019\Community\VC\Tools\MSVC\14.28.29333\include\xmemory
; File C:\Program Files (x86)\Microsoft Visual Studio\2019\Community\VC\Tools\MSVC\14.28.29333\include\vector
; File C:\Program Files (x86)\Microsoft Visual Studio\2019\Community\VC\Tools\MSVC\14.28.29333\include\xmemory
; File C:\Program Files (x86)\Microsoft Visual Studio\2019\Community\VC\Tools\MSVC\14.28.29333\include\vector
; File C:\Program Files (x86)\Microsoft Visual Studio\2019\Community\VC\Tools\MSVC\14.28.29333\include\xmemory
; File C:\Program Files (x86)\Microsoft Visual Studio\2019\Community\VC\Tools\MSVC\14.28.29333\include\vector
; File C:\Program Files (x86)\Microsoft Visual Studio\2019\Community\VC\Tools\MSVC\14.28.29333\include\xmemory
; File C:\Program Files (x86)\Microsoft Visual Studio\2019\Community\VC\Tools\MSVC\14.28.29333\include\vector
; File D:\Metin2 Server Files\mainline\SRC_2014\Metin2Client\eterLib\Pool.h
;	COMDAT ??1?$CDynamicPoolEx@VCNullDecorator@NEffectUpdateDecorator@@@@UAE@XZ
_TEXT	SEGMENT
??1?$CDynamicPoolEx@VCNullDecorator@NEffectUpdateDecorator@@@@UAE@XZ PROC ; CDynamicPoolEx<NEffectUpdateDecorator::CNullDecorator>::~CDynamicPoolEx<NEffectUpdateDecorator::CNullDecorator>, COMDAT
; _this$ = ecx

; 132  : 		{

  00000	53		 push	 ebx
  00001	56		 push	 esi
  00002	57		 push	 edi
  00003	8b f9		 mov	 edi, ecx
  00005	c7 07 00 00 00
	00		 mov	 DWORD PTR [edi], OFFSET ??_7?$CDynamicPoolEx@VCNullDecorator@NEffectUpdateDecorator@@@@6B@
; File C:\Program Files (x86)\Microsoft Visual Studio\2019\Community\VC\Tools\MSVC\14.28.29333\include\vector

; 42   :     _Vector_const_iterator(_Tptr _Parg, const _Container_base* _Pvector) noexcept : _Ptr(_Parg) {

  0000b	8b 5f 08	 mov	 ebx, DWORD PTR [edi+8]
  0000e	8b 77 04	 mov	 esi, DWORD PTR [edi+4]
; File C:\Program Files (x86)\Microsoft Visual Studio\2019\Community\VC\Tools\MSVC\14.28.29333\include\algorithm

; 307  :     for (; _UFirst != _ULast; ++_UFirst) {

  00011	3b f3		 cmp	 esi, ebx
  00013	74 14		 je	 SHORT $LN19@CDynamicPo
$LL20@CDynamicPo:
; File D:\Metin2 Server Files\mainline\SRC_2014\Metin2Client\eterLib\Pool.h

; 224  : 			::operator delete(pkData);

  00015	ff 36		 push	 DWORD PTR [esi]
  00017	e8 00 00 00 00	 call	 ??3@YAXPAX@Z		; operator delete
; File C:\Program Files (x86)\Microsoft Visual Studio\2019\Community\VC\Tools\MSVC\14.28.29333\include\algorithm

; 307  :     for (; _UFirst != _ULast; ++_UFirst) {

  0001c	83 c6 04	 add	 esi, 4
; File D:\Metin2 Server Files\mainline\SRC_2014\Metin2Client\eterLib\Pool.h

; 224  : 			::operator delete(pkData);

  0001f	83 c4 04	 add	 esp, 4
; File C:\Program Files (x86)\Microsoft Visual Studio\2019\Community\VC\Tools\MSVC\14.28.29333\include\algorithm

; 307  :     for (; _UFirst != _ULast; ++_UFirst) {

  00022	3b f3		 cmp	 esi, ebx
  00024	75 ef		 jne	 SHORT $LL20@CDynamicPo
  00026	8b 77 04	 mov	 esi, DWORD PTR [edi+4]
$LN19@CDynamicPo:
; File D:\Metin2 Server Files\mainline\SRC_2014\Metin2Client\eterLib\Pool.h

; 162  : 			m_kVct_pkFree.clear();

  00029	8b 4f 10	 mov	 ecx, DWORD PTR [edi+16]
  0002c	89 77 08	 mov	 DWORD PTR [edi+8], esi
  0002f	89 4f 14	 mov	 DWORD PTR [edi+20], ecx
; File C:\Program Files (x86)\Microsoft Visual Studio\2019\Community\VC\Tools\MSVC\14.28.29333\include\vector

; 1694 :         if (_Myfirst) { // destroy and deallocate old array

  00032	85 c9		 test	 ecx, ecx
  00034	74 27		 je	 SHORT $LN27@CDynamicPo

; 1695 :             _Destroy(_Myfirst, _Mylast);
; 1696 :             _Getal().deallocate(_Myfirst, static_cast<size_type>(_Myend - _Myfirst));

  00036	8b 47 18	 mov	 eax, DWORD PTR [edi+24]
  00039	2b c1		 sub	 eax, ecx
; File C:\Program Files (x86)\Microsoft Visual Studio\2019\Community\VC\Tools\MSVC\14.28.29333\include\xmemory

; 810  :         _Deallocate<_New_alignof<_Ty>>(_Ptr, sizeof(_Ty) * _Count);

  0003b	83 e0 fc	 and	 eax, -4			; fffffffcH
  0003e	50		 push	 eax
  0003f	51		 push	 ecx
  00040	e8 00 00 00 00	 call	 ??$_Deallocate@$07$0A@@std@@YAXPAXI@Z ; std::_Deallocate<8,0>
; File C:\Program Files (x86)\Microsoft Visual Studio\2019\Community\VC\Tools\MSVC\14.28.29333\include\vector

; 1698 :             _Myfirst = pointer();

  00045	c7 47 10 00 00
	00 00		 mov	 DWORD PTR [edi+16], 0
; File C:\Program Files (x86)\Microsoft Visual Studio\2019\Community\VC\Tools\MSVC\14.28.29333\include\xmemory

; 810  :         _Deallocate<_New_alignof<_Ty>>(_Ptr, sizeof(_Ty) * _Count);

  0004c	83 c4 08	 add	 esp, 8
; File C:\Program Files (x86)\Microsoft Visual Studio\2019\Community\VC\Tools\MSVC\14.28.29333\include\vector

; 1699 :             _Mylast  = pointer();

  0004f	c7 47 14 00 00
	00 00		 mov	 DWORD PTR [edi+20], 0

; 1700 :             _Myend   = pointer();

  00056	c7 47 18 00 00
	00 00		 mov	 DWORD PTR [edi+24], 0
$LN27@CDynamicPo:

; 1694 :         if (_Myfirst) { // destroy and deallocate old array

  0005d	8b 4f 04	 mov	 ecx, DWORD PTR [edi+4]
  00060	85 c9		 test	 ecx, ecx
  00062	74 27		 je	 SHORT $LN34@CDynamicPo

; 1695 :             _Destroy(_Myfirst, _Mylast);
; 1696 :             _Getal().deallocate(_Myfirst, static_cast<size_type>(_Myend - _Myfirst));

  00064	8b 47 0c	 mov	 eax, DWORD PTR [edi+12]
  00067	2b c1		 sub	 eax, ecx
; File C:\Program Files (x86)\Microsoft Visual Studio\2019\Community\VC\Tools\MSVC\14.28.29333\include\xmemory

; 810  :         _Deallocate<_New_alignof<_Ty>>(_Ptr, sizeof(_Ty) * _Count);

  00069	83 e0 fc	 and	 eax, -4			; fffffffcH
  0006c	50		 push	 eax
  0006d	51		 push	 ecx
  0006e	e8 00 00 00 00	 call	 ??$_Deallocate@$07$0A@@std@@YAXPAXI@Z ; std::_Deallocate<8,0>
; File C:\Program Files (x86)\Microsoft Visual Studio\2019\Community\VC\Tools\MSVC\14.28.29333\include\vector

; 1698 :             _Myfirst = pointer();

  00073	c7 47 04 00 00
	00 00		 mov	 DWORD PTR [edi+4], 0
; File C:\Program Files (x86)\Microsoft Visual Studio\2019\Community\VC\Tools\MSVC\14.28.29333\include\xmemory

; 810  :         _Deallocate<_New_alignof<_Ty>>(_Ptr, sizeof(_Ty) * _Count);

  0007a	83 c4 08	 add	 esp, 8
; File C:\Program Files (x86)\Microsoft Visual Studio\2019\Community\VC\Tools\MSVC\14.28.29333\include\vector

; 1699 :             _Mylast  = pointer();

  0007d	c7 47 08 00 00
	00 00		 mov	 DWORD PTR [edi+8], 0

; 1700 :             _Myend   = pointer();

  00084	c7 47 0c 00 00
	00 00		 mov	 DWORD PTR [edi+12], 0
$LN34@CDynamicPo:
  0008b	5f		 pop	 edi
; File D:\Metin2 Server Files\mainline\SRC_2014\Metin2Client\eterLib\Pool.h

; 142  : 		}

  0008c	5e		 pop	 esi
  0008d	5b		 pop	 ebx
  0008e	c3		 ret	 0
??1?$CDynamicPoolEx@VCNullDecorator@NEffectUpdateDecorator@@@@UAE@XZ ENDP ; CDynamicPoolEx<NEffectUpdateDecorator::CNullDecorator>::~CDynamicPoolEx<NEffectUpdateDecorator::CNullDecorator>
_TEXT	ENDS
; Function compile flags: /Ogtp
;	COMDAT ??_G?$CDynamicPoolEx@VCTextureAnimationCWDecorator@NEffectUpdateDecorator@@@@UAEPAXI@Z
_TEXT	SEGMENT
___flags$ = 8						; size = 4
??_G?$CDynamicPoolEx@VCTextureAnimationCWDecorator@NEffectUpdateDecorator@@@@UAEPAXI@Z PROC ; CDynamicPoolEx<NEffectUpdateDecorator::CTextureAnimationCWDecorator>::`scalar deleting destructor', COMDAT
; _this$ = ecx
  00000	55		 push	 ebp
  00001	8b ec		 mov	 ebp, esp
  00003	56		 push	 esi
  00004	8b f1		 mov	 esi, ecx
  00006	e8 00 00 00 00	 call	 ??1?$CDynamicPoolEx@VCTextureAnimationCWDecorator@NEffectUpdateDecorator@@@@UAE@XZ ; CDynamicPoolEx<NEffectUpdateDecorator::CTextureAnimationCWDecorator>::~CDynamicPoolEx<NEffectUpdateDecorator::CTextureAnimationCWDecorator>
  0000b	f6 45 08 01	 test	 BYTE PTR ___flags$[ebp], 1
  0000f	74 0b		 je	 SHORT $LN4@scalar
  00011	6a 24		 push	 36			; 00000024H
  00013	56		 push	 esi
  00014	e8 00 00 00 00	 call	 ??3@YAXPAXI@Z		; operator delete
  00019	83 c4 08	 add	 esp, 8
$LN4@scalar:
  0001c	8b c6		 mov	 eax, esi
  0001e	5e		 pop	 esi
  0001f	5d		 pop	 ebp
  00020	c2 04 00	 ret	 4
??_G?$CDynamicPoolEx@VCTextureAnimationCWDecorator@NEffectUpdateDecorator@@@@UAEPAXI@Z ENDP ; CDynamicPoolEx<NEffectUpdateDecorator::CTextureAnimationCWDecorator>::`scalar deleting destructor'
_TEXT	ENDS
; Function compile flags: /Ogtp
; File D:\Metin2 Server Files\mainline\SRC_2014\Metin2Client\eterLib\Pool.h
;	COMDAT ?Delete@?$CDynamicPoolEx@VCTextureAnimationCWDecorator@NEffectUpdateDecorator@@@@KAXPAVCTextureAnimationCWDecorator@NEffectUpdateDecorator@@@Z
_TEXT	SEGMENT
_pkData$ = 8						; size = 4
?Delete@?$CDynamicPoolEx@VCTextureAnimationCWDecorator@NEffectUpdateDecorator@@@@KAXPAVCTextureAnimationCWDecorator@NEffectUpdateDecorator@@@Z PROC ; CDynamicPoolEx<NEffectUpdateDecorator::CTextureAnimationCWDecorator>::Delete, COMDAT

; 224  : 			::operator delete(pkData);

  00000	e9 00 00 00 00	 jmp	 ??3@YAXPAX@Z		; operator delete
?Delete@?$CDynamicPoolEx@VCTextureAnimationCWDecorator@NEffectUpdateDecorator@@@@KAXPAVCTextureAnimationCWDecorator@NEffectUpdateDecorator@@@Z ENDP ; CDynamicPoolEx<NEffectUpdateDecorator::CTextureAnimationCWDecorator>::Delete
_TEXT	ENDS
; Function compile flags: /Ogtp
; File D:\Metin2 Server Files\mainline\SRC_2014\Metin2Client\eterLib\Pool.h
; File C:\Program Files (x86)\Microsoft Visual Studio\2019\Community\VC\Tools\MSVC\14.28.29333\include\vector
; File C:\Program Files (x86)\Microsoft Visual Studio\2019\Community\VC\Tools\MSVC\14.28.29333\include\algorithm
; File D:\Metin2 Server Files\mainline\SRC_2014\Metin2Client\eterLib\Pool.h
; File C:\Program Files (x86)\Microsoft Visual Studio\2019\Community\VC\Tools\MSVC\14.28.29333\include\algorithm
; File D:\Metin2 Server Files\mainline\SRC_2014\Metin2Client\eterLib\Pool.h
; File C:\Program Files (x86)\Microsoft Visual Studio\2019\Community\VC\Tools\MSVC\14.28.29333\include\algorithm
; File D:\Metin2 Server Files\mainline\SRC_2014\Metin2Client\eterLib\Pool.h
; File C:\Program Files (x86)\Microsoft Visual Studio\2019\Community\VC\Tools\MSVC\14.28.29333\include\vector
; File C:\Program Files (x86)\Microsoft Visual Studio\2019\Community\VC\Tools\MSVC\14.28.29333\include\xmemory
; File C:\Program Files (x86)\Microsoft Visual Studio\2019\Community\VC\Tools\MSVC\14.28.29333\include\vector
; File C:\Program Files (x86)\Microsoft Visual Studio\2019\Community\VC\Tools\MSVC\14.28.29333\include\xmemory
; File C:\Program Files (x86)\Microsoft Visual Studio\2019\Community\VC\Tools\MSVC\14.28.29333\include\vector
; File C:\Program Files (x86)\Microsoft Visual Studio\2019\Community\VC\Tools\MSVC\14.28.29333\include\xmemory
; File C:\Program Files (x86)\Microsoft Visual Studio\2019\Community\VC\Tools\MSVC\14.28.29333\include\vector
; File C:\Program Files (x86)\Microsoft Visual Studio\2019\Community\VC\Tools\MSVC\14.28.29333\include\xmemory
; File C:\Program Files (x86)\Microsoft Visual Studio\2019\Community\VC\Tools\MSVC\14.28.29333\include\vector
; File D:\Metin2 Server Files\mainline\SRC_2014\Metin2Client\eterLib\Pool.h
;	COMDAT ??1?$CDynamicPoolEx@VCTextureAnimationCWDecorator@NEffectUpdateDecorator@@@@UAE@XZ
_TEXT	SEGMENT
??1?$CDynamicPoolEx@VCTextureAnimationCWDecorator@NEffectUpdateDecorator@@@@UAE@XZ PROC ; CDynamicPoolEx<NEffectUpdateDecorator::CTextureAnimationCWDecorator>::~CDynamicPoolEx<NEffectUpdateDecorator::CTextureAnimationCWDecorator>, COMDAT
; _this$ = ecx

; 132  : 		{

  00000	53		 push	 ebx
  00001	56		 push	 esi
  00002	57		 push	 edi
  00003	8b f9		 mov	 edi, ecx
  00005	c7 07 00 00 00
	00		 mov	 DWORD PTR [edi], OFFSET ??_7?$CDynamicPoolEx@VCTextureAnimationCWDecorator@NEffectUpdateDecorator@@@@6B@
; File C:\Program Files (x86)\Microsoft Visual Studio\2019\Community\VC\Tools\MSVC\14.28.29333\include\vector

; 42   :     _Vector_const_iterator(_Tptr _Parg, const _Container_base* _Pvector) noexcept : _Ptr(_Parg) {

  0000b	8b 5f 08	 mov	 ebx, DWORD PTR [edi+8]
  0000e	8b 77 04	 mov	 esi, DWORD PTR [edi+4]
; File C:\Program Files (x86)\Microsoft Visual Studio\2019\Community\VC\Tools\MSVC\14.28.29333\include\algorithm

; 307  :     for (; _UFirst != _ULast; ++_UFirst) {

  00011	3b f3		 cmp	 esi, ebx
  00013	74 14		 je	 SHORT $LN19@CDynamicPo
$LL20@CDynamicPo:
; File D:\Metin2 Server Files\mainline\SRC_2014\Metin2Client\eterLib\Pool.h

; 224  : 			::operator delete(pkData);

  00015	ff 36		 push	 DWORD PTR [esi]
  00017	e8 00 00 00 00	 call	 ??3@YAXPAX@Z		; operator delete
; File C:\Program Files (x86)\Microsoft Visual Studio\2019\Community\VC\Tools\MSVC\14.28.29333\include\algorithm

; 307  :     for (; _UFirst != _ULast; ++_UFirst) {

  0001c	83 c6 04	 add	 esi, 4
; File D:\Metin2 Server Files\mainline\SRC_2014\Metin2Client\eterLib\Pool.h

; 224  : 			::operator delete(pkData);

  0001f	83 c4 04	 add	 esp, 4
; File C:\Program Files (x86)\Microsoft Visual Studio\2019\Community\VC\Tools\MSVC\14.28.29333\include\algorithm

; 307  :     for (; _UFirst != _ULast; ++_UFirst) {

  00022	3b f3		 cmp	 esi, ebx
  00024	75 ef		 jne	 SHORT $LL20@CDynamicPo
  00026	8b 77 04	 mov	 esi, DWORD PTR [edi+4]
$LN19@CDynamicPo:
; File D:\Metin2 Server Files\mainline\SRC_2014\Metin2Client\eterLib\Pool.h

; 162  : 			m_kVct_pkFree.clear();

  00029	8b 4f 10	 mov	 ecx, DWORD PTR [edi+16]
  0002c	89 77 08	 mov	 DWORD PTR [edi+8], esi
  0002f	89 4f 14	 mov	 DWORD PTR [edi+20], ecx
; File C:\Program Files (x86)\Microsoft Visual Studio\2019\Community\VC\Tools\MSVC\14.28.29333\include\vector

; 1694 :         if (_Myfirst) { // destroy and deallocate old array

  00032	85 c9		 test	 ecx, ecx
  00034	74 27		 je	 SHORT $LN27@CDynamicPo

; 1695 :             _Destroy(_Myfirst, _Mylast);
; 1696 :             _Getal().deallocate(_Myfirst, static_cast<size_type>(_Myend - _Myfirst));

  00036	8b 47 18	 mov	 eax, DWORD PTR [edi+24]
  00039	2b c1		 sub	 eax, ecx
; File C:\Program Files (x86)\Microsoft Visual Studio\2019\Community\VC\Tools\MSVC\14.28.29333\include\xmemory

; 810  :         _Deallocate<_New_alignof<_Ty>>(_Ptr, sizeof(_Ty) * _Count);

  0003b	83 e0 fc	 and	 eax, -4			; fffffffcH
  0003e	50		 push	 eax
  0003f	51		 push	 ecx
  00040	e8 00 00 00 00	 call	 ??$_Deallocate@$07$0A@@std@@YAXPAXI@Z ; std::_Deallocate<8,0>
; File C:\Program Files (x86)\Microsoft Visual Studio\2019\Community\VC\Tools\MSVC\14.28.29333\include\vector

; 1698 :             _Myfirst = pointer();

  00045	c7 47 10 00 00
	00 00		 mov	 DWORD PTR [edi+16], 0
; File C:\Program Files (x86)\Microsoft Visual Studio\2019\Community\VC\Tools\MSVC\14.28.29333\include\xmemory

; 810  :         _Deallocate<_New_alignof<_Ty>>(_Ptr, sizeof(_Ty) * _Count);

  0004c	83 c4 08	 add	 esp, 8
; File C:\Program Files (x86)\Microsoft Visual Studio\2019\Community\VC\Tools\MSVC\14.28.29333\include\vector

; 1699 :             _Mylast  = pointer();

  0004f	c7 47 14 00 00
	00 00		 mov	 DWORD PTR [edi+20], 0

; 1700 :             _Myend   = pointer();

  00056	c7 47 18 00 00
	00 00		 mov	 DWORD PTR [edi+24], 0
$LN27@CDynamicPo:

; 1694 :         if (_Myfirst) { // destroy and deallocate old array

  0005d	8b 4f 04	 mov	 ecx, DWORD PTR [edi+4]
  00060	85 c9		 test	 ecx, ecx
  00062	74 27		 je	 SHORT $LN34@CDynamicPo

; 1695 :             _Destroy(_Myfirst, _Mylast);
; 1696 :             _Getal().deallocate(_Myfirst, static_cast<size_type>(_Myend - _Myfirst));

  00064	8b 47 0c	 mov	 eax, DWORD PTR [edi+12]
  00067	2b c1		 sub	 eax, ecx
; File C:\Program Files (x86)\Microsoft Visual Studio\2019\Community\VC\Tools\MSVC\14.28.29333\include\xmemory

; 810  :         _Deallocate<_New_alignof<_Ty>>(_Ptr, sizeof(_Ty) * _Count);

  00069	83 e0 fc	 and	 eax, -4			; fffffffcH
  0006c	50		 push	 eax
  0006d	51		 push	 ecx
  0006e	e8 00 00 00 00	 call	 ??$_Deallocate@$07$0A@@std@@YAXPAXI@Z ; std::_Deallocate<8,0>
; File C:\Program Files (x86)\Microsoft Visual Studio\2019\Community\VC\Tools\MSVC\14.28.29333\include\vector

; 1698 :             _Myfirst = pointer();

  00073	c7 47 04 00 00
	00 00		 mov	 DWORD PTR [edi+4], 0
; File C:\Program Files (x86)\Microsoft Visual Studio\2019\Community\VC\Tools\MSVC\14.28.29333\include\xmemory

; 810  :         _Deallocate<_New_alignof<_Ty>>(_Ptr, sizeof(_Ty) * _Count);

  0007a	83 c4 08	 add	 esp, 8
; File C:\Program Files (x86)\Microsoft Visual Studio\2019\Community\VC\Tools\MSVC\14.28.29333\include\vector

; 1699 :             _Mylast  = pointer();

  0007d	c7 47 08 00 00
	00 00		 mov	 DWORD PTR [edi+8], 0

; 1700 :             _Myend   = pointer();

  00084	c7 47 0c 00 00
	00 00		 mov	 DWORD PTR [edi+12], 0
$LN34@CDynamicPo:
  0008b	5f		 pop	 edi
; File D:\Metin2 Server Files\mainline\SRC_2014\Metin2Client\eterLib\Pool.h

; 142  : 		}

  0008c	5e		 pop	 esi
  0008d	5b		 pop	 ebx
  0008e	c3		 ret	 0
??1?$CDynamicPoolEx@VCTextureAnimationCWDecorator@NEffectUpdateDecorator@@@@UAE@XZ ENDP ; CDynamicPoolEx<NEffectUpdateDecorator::CTextureAnimationCWDecorator>::~CDynamicPoolEx<NEffectUpdateDecorator::CTextureAnimationCWDecorator>
_TEXT	ENDS
; Function compile flags: /Ogtp
;	COMDAT ??_G?$CDynamicPoolEx@VCTextureAnimationCCWDecorator@NEffectUpdateDecorator@@@@UAEPAXI@Z
_TEXT	SEGMENT
___flags$ = 8						; size = 4
??_G?$CDynamicPoolEx@VCTextureAnimationCCWDecorator@NEffectUpdateDecorator@@@@UAEPAXI@Z PROC ; CDynamicPoolEx<NEffectUpdateDecorator::CTextureAnimationCCWDecorator>::`scalar deleting destructor', COMDAT
; _this$ = ecx
  00000	55		 push	 ebp
  00001	8b ec		 mov	 ebp, esp
  00003	56		 push	 esi
  00004	8b f1		 mov	 esi, ecx
  00006	e8 00 00 00 00	 call	 ??1?$CDynamicPoolEx@VCTextureAnimationCCWDecorator@NEffectUpdateDecorator@@@@UAE@XZ ; CDynamicPoolEx<NEffectUpdateDecorator::CTextureAnimationCCWDecorator>::~CDynamicPoolEx<NEffectUpdateDecorator::CTextureAnimationCCWDecorator>
  0000b	f6 45 08 01	 test	 BYTE PTR ___flags$[ebp], 1
  0000f	74 0b		 je	 SHORT $LN4@scalar
  00011	6a 24		 push	 36			; 00000024H
  00013	56		 push	 esi
  00014	e8 00 00 00 00	 call	 ??3@YAXPAXI@Z		; operator delete
  00019	83 c4 08	 add	 esp, 8
$LN4@scalar:
  0001c	8b c6		 mov	 eax, esi
  0001e	5e		 pop	 esi
  0001f	5d		 pop	 ebp
  00020	c2 04 00	 ret	 4
??_G?$CDynamicPoolEx@VCTextureAnimationCCWDecorator@NEffectUpdateDecorator@@@@UAEPAXI@Z ENDP ; CDynamicPoolEx<NEffectUpdateDecorator::CTextureAnimationCCWDecorator>::`scalar deleting destructor'
_TEXT	ENDS
; Function compile flags: /Ogtp
; File D:\Metin2 Server Files\mainline\SRC_2014\Metin2Client\eterLib\Pool.h
;	COMDAT ?Delete@?$CDynamicPoolEx@VCTextureAnimationCCWDecorator@NEffectUpdateDecorator@@@@KAXPAVCTextureAnimationCCWDecorator@NEffectUpdateDecorator@@@Z
_TEXT	SEGMENT
_pkData$ = 8						; size = 4
?Delete@?$CDynamicPoolEx@VCTextureAnimationCCWDecorator@NEffectUpdateDecorator@@@@KAXPAVCTextureAnimationCCWDecorator@NEffectUpdateDecorator@@@Z PROC ; CDynamicPoolEx<NEffectUpdateDecorator::CTextureAnimationCCWDecorator>::Delete, COMDAT

; 224  : 			::operator delete(pkData);

  00000	e9 00 00 00 00	 jmp	 ??3@YAXPAX@Z		; operator delete
?Delete@?$CDynamicPoolEx@VCTextureAnimationCCWDecorator@NEffectUpdateDecorator@@@@KAXPAVCTextureAnimationCCWDecorator@NEffectUpdateDecorator@@@Z ENDP ; CDynamicPoolEx<NEffectUpdateDecorator::CTextureAnimationCCWDecorator>::Delete
_TEXT	ENDS
; Function compile flags: /Ogtp
; File D:\Metin2 Server Files\mainline\SRC_2014\Metin2Client\eterLib\Pool.h
; File C:\Program Files (x86)\Microsoft Visual Studio\2019\Community\VC\Tools\MSVC\14.28.29333\include\vector
; File C:\Program Files (x86)\Microsoft Visual Studio\2019\Community\VC\Tools\MSVC\14.28.29333\include\algorithm
; File D:\Metin2 Server Files\mainline\SRC_2014\Metin2Client\eterLib\Pool.h
; File C:\Program Files (x86)\Microsoft Visual Studio\2019\Community\VC\Tools\MSVC\14.28.29333\include\algorithm
; File D:\Metin2 Server Files\mainline\SRC_2014\Metin2Client\eterLib\Pool.h
; File C:\Program Files (x86)\Microsoft Visual Studio\2019\Community\VC\Tools\MSVC\14.28.29333\include\algorithm
; File D:\Metin2 Server Files\mainline\SRC_2014\Metin2Client\eterLib\Pool.h
; File C:\Program Files (x86)\Microsoft Visual Studio\2019\Community\VC\Tools\MSVC\14.28.29333\include\vector
; File C:\Program Files (x86)\Microsoft Visual Studio\2019\Community\VC\Tools\MSVC\14.28.29333\include\xmemory
; File C:\Program Files (x86)\Microsoft Visual Studio\2019\Community\VC\Tools\MSVC\14.28.29333\include\vector
; File C:\Program Files (x86)\Microsoft Visual Studio\2019\Community\VC\Tools\MSVC\14.28.29333\include\xmemory
; File C:\Program Files (x86)\Microsoft Visual Studio\2019\Community\VC\Tools\MSVC\14.28.29333\include\vector
; File C:\Program Files (x86)\Microsoft Visual Studio\2019\Community\VC\Tools\MSVC\14.28.29333\include\xmemory
; File C:\Program Files (x86)\Microsoft Visual Studio\2019\Community\VC\Tools\MSVC\14.28.29333\include\vector
; File C:\Program Files (x86)\Microsoft Visual Studio\2019\Community\VC\Tools\MSVC\14.28.29333\include\xmemory
; File C:\Program Files (x86)\Microsoft Visual Studio\2019\Community\VC\Tools\MSVC\14.28.29333\include\vector
; File D:\Metin2 Server Files\mainline\SRC_2014\Metin2Client\eterLib\Pool.h
;	COMDAT ??1?$CDynamicPoolEx@VCTextureAnimationCCWDecorator@NEffectUpdateDecorator@@@@UAE@XZ
_TEXT	SEGMENT
??1?$CDynamicPoolEx@VCTextureAnimationCCWDecorator@NEffectUpdateDecorator@@@@UAE@XZ PROC ; CDynamicPoolEx<NEffectUpdateDecorator::CTextureAnimationCCWDecorator>::~CDynamicPoolEx<NEffectUpdateDecorator::CTextureAnimationCCWDecorator>, COMDAT
; _this$ = ecx

; 132  : 		{

  00000	53		 push	 ebx
  00001	56		 push	 esi
  00002	57		 push	 edi
  00003	8b f9		 mov	 edi, ecx
  00005	c7 07 00 00 00
	00		 mov	 DWORD PTR [edi], OFFSET ??_7?$CDynamicPoolEx@VCTextureAnimationCCWDecorator@NEffectUpdateDecorator@@@@6B@
; File C:\Program Files (x86)\Microsoft Visual Studio\2019\Community\VC\Tools\MSVC\14.28.29333\include\vector

; 42   :     _Vector_const_iterator(_Tptr _Parg, const _Container_base* _Pvector) noexcept : _Ptr(_Parg) {

  0000b	8b 5f 08	 mov	 ebx, DWORD PTR [edi+8]
  0000e	8b 77 04	 mov	 esi, DWORD PTR [edi+4]
; File C:\Program Files (x86)\Microsoft Visual Studio\2019\Community\VC\Tools\MSVC\14.28.29333\include\algorithm

; 307  :     for (; _UFirst != _ULast; ++_UFirst) {

  00011	3b f3		 cmp	 esi, ebx
  00013	74 14		 je	 SHORT $LN19@CDynamicPo
$LL20@CDynamicPo:
; File D:\Metin2 Server Files\mainline\SRC_2014\Metin2Client\eterLib\Pool.h

; 224  : 			::operator delete(pkData);

  00015	ff 36		 push	 DWORD PTR [esi]
  00017	e8 00 00 00 00	 call	 ??3@YAXPAX@Z		; operator delete
; File C:\Program Files (x86)\Microsoft Visual Studio\2019\Community\VC\Tools\MSVC\14.28.29333\include\algorithm

; 307  :     for (; _UFirst != _ULast; ++_UFirst) {

  0001c	83 c6 04	 add	 esi, 4
; File D:\Metin2 Server Files\mainline\SRC_2014\Metin2Client\eterLib\Pool.h

; 224  : 			::operator delete(pkData);

  0001f	83 c4 04	 add	 esp, 4
; File C:\Program Files (x86)\Microsoft Visual Studio\2019\Community\VC\Tools\MSVC\14.28.29333\include\algorithm

; 307  :     for (; _UFirst != _ULast; ++_UFirst) {

  00022	3b f3		 cmp	 esi, ebx
  00024	75 ef		 jne	 SHORT $LL20@CDynamicPo
  00026	8b 77 04	 mov	 esi, DWORD PTR [edi+4]
$LN19@CDynamicPo:
; File D:\Metin2 Server Files\mainline\SRC_2014\Metin2Client\eterLib\Pool.h

; 162  : 			m_kVct_pkFree.clear();

  00029	8b 4f 10	 mov	 ecx, DWORD PTR [edi+16]
  0002c	89 77 08	 mov	 DWORD PTR [edi+8], esi
  0002f	89 4f 14	 mov	 DWORD PTR [edi+20], ecx
; File C:\Program Files (x86)\Microsoft Visual Studio\2019\Community\VC\Tools\MSVC\14.28.29333\include\vector

; 1694 :         if (_Myfirst) { // destroy and deallocate old array

  00032	85 c9		 test	 ecx, ecx
  00034	74 27		 je	 SHORT $LN27@CDynamicPo

; 1695 :             _Destroy(_Myfirst, _Mylast);
; 1696 :             _Getal().deallocate(_Myfirst, static_cast<size_type>(_Myend - _Myfirst));

  00036	8b 47 18	 mov	 eax, DWORD PTR [edi+24]
  00039	2b c1		 sub	 eax, ecx
; File C:\Program Files (x86)\Microsoft Visual Studio\2019\Community\VC\Tools\MSVC\14.28.29333\include\xmemory

; 810  :         _Deallocate<_New_alignof<_Ty>>(_Ptr, sizeof(_Ty) * _Count);

  0003b	83 e0 fc	 and	 eax, -4			; fffffffcH
  0003e	50		 push	 eax
  0003f	51		 push	 ecx
  00040	e8 00 00 00 00	 call	 ??$_Deallocate@$07$0A@@std@@YAXPAXI@Z ; std::_Deallocate<8,0>
; File C:\Program Files (x86)\Microsoft Visual Studio\2019\Community\VC\Tools\MSVC\14.28.29333\include\vector

; 1698 :             _Myfirst = pointer();

  00045	c7 47 10 00 00
	00 00		 mov	 DWORD PTR [edi+16], 0
; File C:\Program Files (x86)\Microsoft Visual Studio\2019\Community\VC\Tools\MSVC\14.28.29333\include\xmemory

; 810  :         _Deallocate<_New_alignof<_Ty>>(_Ptr, sizeof(_Ty) * _Count);

  0004c	83 c4 08	 add	 esp, 8
; File C:\Program Files (x86)\Microsoft Visual Studio\2019\Community\VC\Tools\MSVC\14.28.29333\include\vector

; 1699 :             _Mylast  = pointer();

  0004f	c7 47 14 00 00
	00 00		 mov	 DWORD PTR [edi+20], 0

; 1700 :             _Myend   = pointer();

  00056	c7 47 18 00 00
	00 00		 mov	 DWORD PTR [edi+24], 0
$LN27@CDynamicPo:

; 1694 :         if (_Myfirst) { // destroy and deallocate old array

  0005d	8b 4f 04	 mov	 ecx, DWORD PTR [edi+4]
  00060	85 c9		 test	 ecx, ecx
  00062	74 27		 je	 SHORT $LN34@CDynamicPo

; 1695 :             _Destroy(_Myfirst, _Mylast);
; 1696 :             _Getal().deallocate(_Myfirst, static_cast<size_type>(_Myend - _Myfirst));

  00064	8b 47 0c	 mov	 eax, DWORD PTR [edi+12]
  00067	2b c1		 sub	 eax, ecx
; File C:\Program Files (x86)\Microsoft Visual Studio\2019\Community\VC\Tools\MSVC\14.28.29333\include\xmemory

; 810  :         _Deallocate<_New_alignof<_Ty>>(_Ptr, sizeof(_Ty) * _Count);

  00069	83 e0 fc	 and	 eax, -4			; fffffffcH
  0006c	50		 push	 eax
  0006d	51		 push	 ecx
  0006e	e8 00 00 00 00	 call	 ??$_Deallocate@$07$0A@@std@@YAXPAXI@Z ; std::_Deallocate<8,0>
; File C:\Program Files (x86)\Microsoft Visual Studio\2019\Community\VC\Tools\MSVC\14.28.29333\include\vector

; 1698 :             _Myfirst = pointer();

  00073	c7 47 04 00 00
	00 00		 mov	 DWORD PTR [edi+4], 0
; File C:\Program Files (x86)\Microsoft Visual Studio\2019\Community\VC\Tools\MSVC\14.28.29333\include\xmemory

; 810  :         _Deallocate<_New_alignof<_Ty>>(_Ptr, sizeof(_Ty) * _Count);

  0007a	83 c4 08	 add	 esp, 8
; File C:\Program Files (x86)\Microsoft Visual Studio\2019\Community\VC\Tools\MSVC\14.28.29333\include\vector

; 1699 :             _Mylast  = pointer();

  0007d	c7 47 08 00 00
	00 00		 mov	 DWORD PTR [edi+8], 0

; 1700 :             _Myend   = pointer();

  00084	c7 47 0c 00 00
	00 00		 mov	 DWORD PTR [edi+12], 0
$LN34@CDynamicPo:
  0008b	5f		 pop	 edi
; File D:\Metin2 Server Files\mainline\SRC_2014\Metin2Client\eterLib\Pool.h

; 142  : 		}

  0008c	5e		 pop	 esi
  0008d	5b		 pop	 ebx
  0008e	c3		 ret	 0
??1?$CDynamicPoolEx@VCTextureAnimationCCWDecorator@NEffectUpdateDecorator@@@@UAE@XZ ENDP ; CDynamicPoolEx<NEffectUpdateDecorator::CTextureAnimationCCWDecorator>::~CDynamicPoolEx<NEffectUpdateDecorator::CTextureAnimationCCWDecorator>
_TEXT	ENDS
; Function compile flags: /Ogtp
;	COMDAT ??_G?$CDynamicPoolEx@VCTextureAnimationRandomDecorator@NEffectUpdateDecorator@@@@UAEPAXI@Z
_TEXT	SEGMENT
___flags$ = 8						; size = 4
??_G?$CDynamicPoolEx@VCTextureAnimationRandomDecorator@NEffectUpdateDecorator@@@@UAEPAXI@Z PROC ; CDynamicPoolEx<NEffectUpdateDecorator::CTextureAnimationRandomDecorator>::`scalar deleting destructor', COMDAT
; _this$ = ecx
  00000	55		 push	 ebp
  00001	8b ec		 mov	 ebp, esp
  00003	56		 push	 esi
  00004	8b f1		 mov	 esi, ecx
  00006	e8 00 00 00 00	 call	 ??1?$CDynamicPoolEx@VCTextureAnimationRandomDecorator@NEffectUpdateDecorator@@@@UAE@XZ ; CDynamicPoolEx<NEffectUpdateDecorator::CTextureAnimationRandomDecorator>::~CDynamicPoolEx<NEffectUpdateDecorator::CTextureAnimationRandomDecorator>
  0000b	f6 45 08 01	 test	 BYTE PTR ___flags$[ebp], 1
  0000f	74 0b		 je	 SHORT $LN4@scalar
  00011	6a 24		 push	 36			; 00000024H
  00013	56		 push	 esi
  00014	e8 00 00 00 00	 call	 ??3@YAXPAXI@Z		; operator delete
  00019	83 c4 08	 add	 esp, 8
$LN4@scalar:
  0001c	8b c6		 mov	 eax, esi
  0001e	5e		 pop	 esi
  0001f	5d		 pop	 ebp
  00020	c2 04 00	 ret	 4
??_G?$CDynamicPoolEx@VCTextureAnimationRandomDecorator@NEffectUpdateDecorator@@@@UAEPAXI@Z ENDP ; CDynamicPoolEx<NEffectUpdateDecorator::CTextureAnimationRandomDecorator>::`scalar deleting destructor'
_TEXT	ENDS
; Function compile flags: /Ogtp
; File D:\Metin2 Server Files\mainline\SRC_2014\Metin2Client\eterLib\Pool.h
;	COMDAT ?Delete@?$CDynamicPoolEx@VCTextureAnimationRandomDecorator@NEffectUpdateDecorator@@@@KAXPAVCTextureAnimationRandomDecorator@NEffectUpdateDecorator@@@Z
_TEXT	SEGMENT
_pkData$ = 8						; size = 4
?Delete@?$CDynamicPoolEx@VCTextureAnimationRandomDecorator@NEffectUpdateDecorator@@@@KAXPAVCTextureAnimationRandomDecorator@NEffectUpdateDecorator@@@Z PROC ; CDynamicPoolEx<NEffectUpdateDecorator::CTextureAnimationRandomDecorator>::Delete, COMDAT

; 224  : 			::operator delete(pkData);

  00000	e9 00 00 00 00	 jmp	 ??3@YAXPAX@Z		; operator delete
?Delete@?$CDynamicPoolEx@VCTextureAnimationRandomDecorator@NEffectUpdateDecorator@@@@KAXPAVCTextureAnimationRandomDecorator@NEffectUpdateDecorator@@@Z ENDP ; CDynamicPoolEx<NEffectUpdateDecorator::CTextureAnimationRandomDecorator>::Delete
_TEXT	ENDS
; Function compile flags: /Ogtp
; File D:\Metin2 Server Files\mainline\SRC_2014\Metin2Client\eterLib\Pool.h
; File C:\Program Files (x86)\Microsoft Visual Studio\2019\Community\VC\Tools\MSVC\14.28.29333\include\vector
; File C:\Program Files (x86)\Microsoft Visual Studio\2019\Community\VC\Tools\MSVC\14.28.29333\include\algorithm
; File D:\Metin2 Server Files\mainline\SRC_2014\Metin2Client\eterLib\Pool.h
; File C:\Program Files (x86)\Microsoft Visual Studio\2019\Community\VC\Tools\MSVC\14.28.29333\include\algorithm
; File D:\Metin2 Server Files\mainline\SRC_2014\Metin2Client\eterLib\Pool.h
; File C:\Program Files (x86)\Microsoft Visual Studio\2019\Community\VC\Tools\MSVC\14.28.29333\include\algorithm
; File D:\Metin2 Server Files\mainline\SRC_2014\Metin2Client\eterLib\Pool.h
; File C:\Program Files (x86)\Microsoft Visual Studio\2019\Community\VC\Tools\MSVC\14.28.29333\include\vector
; File C:\Program Files (x86)\Microsoft Visual Studio\2019\Community\VC\Tools\MSVC\14.28.29333\include\xmemory
; File C:\Program Files (x86)\Microsoft Visual Studio\2019\Community\VC\Tools\MSVC\14.28.29333\include\vector
; File C:\Program Files (x86)\Microsoft Visual Studio\2019\Community\VC\Tools\MSVC\14.28.29333\include\xmemory
; File C:\Program Files (x86)\Microsoft Visual Studio\2019\Community\VC\Tools\MSVC\14.28.29333\include\vector
; File C:\Program Files (x86)\Microsoft Visual Studio\2019\Community\VC\Tools\MSVC\14.28.29333\include\xmemory
; File C:\Program Files (x86)\Microsoft Visual Studio\2019\Community\VC\Tools\MSVC\14.28.29333\include\vector
; File C:\Program Files (x86)\Microsoft Visual Studio\2019\Community\VC\Tools\MSVC\14.28.29333\include\xmemory
; File C:\Program Files (x86)\Microsoft Visual Studio\2019\Community\VC\Tools\MSVC\14.28.29333\include\vector
; File D:\Metin2 Server Files\mainline\SRC_2014\Metin2Client\eterLib\Pool.h
;	COMDAT ??1?$CDynamicPoolEx@VCTextureAnimationRandomDecorator@NEffectUpdateDecorator@@@@UAE@XZ
_TEXT	SEGMENT
??1?$CDynamicPoolEx@VCTextureAnimationRandomDecorator@NEffectUpdateDecorator@@@@UAE@XZ PROC ; CDynamicPoolEx<NEffectUpdateDecorator::CTextureAnimationRandomDecorator>::~CDynamicPoolEx<NEffectUpdateDecorator::CTextureAnimationRandomDecorator>, COMDAT
; _this$ = ecx

; 132  : 		{

  00000	53		 push	 ebx
  00001	56		 push	 esi
  00002	57		 push	 edi
  00003	8b f9		 mov	 edi, ecx
  00005	c7 07 00 00 00
	00		 mov	 DWORD PTR [edi], OFFSET ??_7?$CDynamicPoolEx@VCTextureAnimationRandomDecorator@NEffectUpdateDecorator@@@@6B@
; File C:\Program Files (x86)\Microsoft Visual Studio\2019\Community\VC\Tools\MSVC\14.28.29333\include\vector

; 42   :     _Vector_const_iterator(_Tptr _Parg, const _Container_base* _Pvector) noexcept : _Ptr(_Parg) {

  0000b	8b 5f 08	 mov	 ebx, DWORD PTR [edi+8]
  0000e	8b 77 04	 mov	 esi, DWORD PTR [edi+4]
; File C:\Program Files (x86)\Microsoft Visual Studio\2019\Community\VC\Tools\MSVC\14.28.29333\include\algorithm

; 307  :     for (; _UFirst != _ULast; ++_UFirst) {

  00011	3b f3		 cmp	 esi, ebx
  00013	74 14		 je	 SHORT $LN19@CDynamicPo
$LL20@CDynamicPo:
; File D:\Metin2 Server Files\mainline\SRC_2014\Metin2Client\eterLib\Pool.h

; 224  : 			::operator delete(pkData);

  00015	ff 36		 push	 DWORD PTR [esi]
  00017	e8 00 00 00 00	 call	 ??3@YAXPAX@Z		; operator delete
; File C:\Program Files (x86)\Microsoft Visual Studio\2019\Community\VC\Tools\MSVC\14.28.29333\include\algorithm

; 307  :     for (; _UFirst != _ULast; ++_UFirst) {

  0001c	83 c6 04	 add	 esi, 4
; File D:\Metin2 Server Files\mainline\SRC_2014\Metin2Client\eterLib\Pool.h

; 224  : 			::operator delete(pkData);

  0001f	83 c4 04	 add	 esp, 4
; File C:\Program Files (x86)\Microsoft Visual Studio\2019\Community\VC\Tools\MSVC\14.28.29333\include\algorithm

; 307  :     for (; _UFirst != _ULast; ++_UFirst) {

  00022	3b f3		 cmp	 esi, ebx
  00024	75 ef		 jne	 SHORT $LL20@CDynamicPo
  00026	8b 77 04	 mov	 esi, DWORD PTR [edi+4]
$LN19@CDynamicPo:
; File D:\Metin2 Server Files\mainline\SRC_2014\Metin2Client\eterLib\Pool.h

; 162  : 			m_kVct_pkFree.clear();

  00029	8b 4f 10	 mov	 ecx, DWORD PTR [edi+16]
  0002c	89 77 08	 mov	 DWORD PTR [edi+8], esi
  0002f	89 4f 14	 mov	 DWORD PTR [edi+20], ecx
; File C:\Program Files (x86)\Microsoft Visual Studio\2019\Community\VC\Tools\MSVC\14.28.29333\include\vector

; 1694 :         if (_Myfirst) { // destroy and deallocate old array

  00032	85 c9		 test	 ecx, ecx
  00034	74 27		 je	 SHORT $LN27@CDynamicPo

; 1695 :             _Destroy(_Myfirst, _Mylast);
; 1696 :             _Getal().deallocate(_Myfirst, static_cast<size_type>(_Myend - _Myfirst));

  00036	8b 47 18	 mov	 eax, DWORD PTR [edi+24]
  00039	2b c1		 sub	 eax, ecx
; File C:\Program Files (x86)\Microsoft Visual Studio\2019\Community\VC\Tools\MSVC\14.28.29333\include\xmemory

; 810  :         _Deallocate<_New_alignof<_Ty>>(_Ptr, sizeof(_Ty) * _Count);

  0003b	83 e0 fc	 and	 eax, -4			; fffffffcH
  0003e	50		 push	 eax
  0003f	51		 push	 ecx
  00040	e8 00 00 00 00	 call	 ??$_Deallocate@$07$0A@@std@@YAXPAXI@Z ; std::_Deallocate<8,0>
; File C:\Program Files (x86)\Microsoft Visual Studio\2019\Community\VC\Tools\MSVC\14.28.29333\include\vector

; 1698 :             _Myfirst = pointer();

  00045	c7 47 10 00 00
	00 00		 mov	 DWORD PTR [edi+16], 0
; File C:\Program Files (x86)\Microsoft Visual Studio\2019\Community\VC\Tools\MSVC\14.28.29333\include\xmemory

; 810  :         _Deallocate<_New_alignof<_Ty>>(_Ptr, sizeof(_Ty) * _Count);

  0004c	83 c4 08	 add	 esp, 8
; File C:\Program Files (x86)\Microsoft Visual Studio\2019\Community\VC\Tools\MSVC\14.28.29333\include\vector

; 1699 :             _Mylast  = pointer();

  0004f	c7 47 14 00 00
	00 00		 mov	 DWORD PTR [edi+20], 0

; 1700 :             _Myend   = pointer();

  00056	c7 47 18 00 00
	00 00		 mov	 DWORD PTR [edi+24], 0
$LN27@CDynamicPo:

; 1694 :         if (_Myfirst) { // destroy and deallocate old array

  0005d	8b 4f 04	 mov	 ecx, DWORD PTR [edi+4]
  00060	85 c9		 test	 ecx, ecx
  00062	74 27		 je	 SHORT $LN34@CDynamicPo

; 1695 :             _Destroy(_Myfirst, _Mylast);
; 1696 :             _Getal().deallocate(_Myfirst, static_cast<size_type>(_Myend - _Myfirst));

  00064	8b 47 0c	 mov	 eax, DWORD PTR [edi+12]
  00067	2b c1		 sub	 eax, ecx
; File C:\Program Files (x86)\Microsoft Visual Studio\2019\Community\VC\Tools\MSVC\14.28.29333\include\xmemory

; 810  :         _Deallocate<_New_alignof<_Ty>>(_Ptr, sizeof(_Ty) * _Count);

  00069	83 e0 fc	 and	 eax, -4			; fffffffcH
  0006c	50		 push	 eax
  0006d	51		 push	 ecx
  0006e	e8 00 00 00 00	 call	 ??$_Deallocate@$07$0A@@std@@YAXPAXI@Z ; std::_Deallocate<8,0>
; File C:\Program Files (x86)\Microsoft Visual Studio\2019\Community\VC\Tools\MSVC\14.28.29333\include\vector

; 1698 :             _Myfirst = pointer();

  00073	c7 47 04 00 00
	00 00		 mov	 DWORD PTR [edi+4], 0
; File C:\Program Files (x86)\Microsoft Visual Studio\2019\Community\VC\Tools\MSVC\14.28.29333\include\xmemory

; 810  :         _Deallocate<_New_alignof<_Ty>>(_Ptr, sizeof(_Ty) * _Count);

  0007a	83 c4 08	 add	 esp, 8
; File C:\Program Files (x86)\Microsoft Visual Studio\2019\Community\VC\Tools\MSVC\14.28.29333\include\vector

; 1699 :             _Mylast  = pointer();

  0007d	c7 47 08 00 00
	00 00		 mov	 DWORD PTR [edi+8], 0

; 1700 :             _Myend   = pointer();

  00084	c7 47 0c 00 00
	00 00		 mov	 DWORD PTR [edi+12], 0
$LN34@CDynamicPo:
  0008b	5f		 pop	 edi
; File D:\Metin2 Server Files\mainline\SRC_2014\Metin2Client\eterLib\Pool.h

; 142  : 		}

  0008c	5e		 pop	 esi
  0008d	5b		 pop	 ebx
  0008e	c3		 ret	 0
??1?$CDynamicPoolEx@VCTextureAnimationRandomDecorator@NEffectUpdateDecorator@@@@UAE@XZ ENDP ; CDynamicPoolEx<NEffectUpdateDecorator::CTextureAnimationRandomDecorator>::~CDynamicPoolEx<NEffectUpdateDecorator::CTextureAnimationRandomDecorator>
_TEXT	ENDS
; Function compile flags: /Ogtp
;	COMDAT ??_G?$CDynamicPoolEx@VCAirResistanceDecorator@NEffectUpdateDecorator@@@@UAEPAXI@Z
_TEXT	SEGMENT
___flags$ = 8						; size = 4
??_G?$CDynamicPoolEx@VCAirResistanceDecorator@NEffectUpdateDecorator@@@@UAEPAXI@Z PROC ; CDynamicPoolEx<NEffectUpdateDecorator::CAirResistanceDecorator>::`scalar deleting destructor', COMDAT
; _this$ = ecx
  00000	55		 push	 ebp
  00001	8b ec		 mov	 ebp, esp
  00003	56		 push	 esi
  00004	8b f1		 mov	 esi, ecx
  00006	e8 00 00 00 00	 call	 ??1?$CDynamicPoolEx@VCAirResistanceDecorator@NEffectUpdateDecorator@@@@UAE@XZ ; CDynamicPoolEx<NEffectUpdateDecorator::CAirResistanceDecorator>::~CDynamicPoolEx<NEffectUpdateDecorator::CAirResistanceDecorator>
  0000b	f6 45 08 01	 test	 BYTE PTR ___flags$[ebp], 1
  0000f	74 0b		 je	 SHORT $LN4@scalar
  00011	6a 24		 push	 36			; 00000024H
  00013	56		 push	 esi
  00014	e8 00 00 00 00	 call	 ??3@YAXPAXI@Z		; operator delete
  00019	83 c4 08	 add	 esp, 8
$LN4@scalar:
  0001c	8b c6		 mov	 eax, esi
  0001e	5e		 pop	 esi
  0001f	5d		 pop	 ebp
  00020	c2 04 00	 ret	 4
??_G?$CDynamicPoolEx@VCAirResistanceDecorator@NEffectUpdateDecorator@@@@UAEPAXI@Z ENDP ; CDynamicPoolEx<NEffectUpdateDecorator::CAirResistanceDecorator>::`scalar deleting destructor'
_TEXT	ENDS
; Function compile flags: /Ogtp
; File D:\Metin2 Server Files\mainline\SRC_2014\Metin2Client\eterLib\Pool.h
;	COMDAT ?Delete@?$CDynamicPoolEx@VCAirResistanceDecorator@NEffectUpdateDecorator@@@@KAXPAVCAirResistanceDecorator@NEffectUpdateDecorator@@@Z
_TEXT	SEGMENT
_pkData$ = 8						; size = 4
?Delete@?$CDynamicPoolEx@VCAirResistanceDecorator@NEffectUpdateDecorator@@@@KAXPAVCAirResistanceDecorator@NEffectUpdateDecorator@@@Z PROC ; CDynamicPoolEx<NEffectUpdateDecorator::CAirResistanceDecorator>::Delete, COMDAT

; 224  : 			::operator delete(pkData);

  00000	e9 00 00 00 00	 jmp	 ??3@YAXPAX@Z		; operator delete
?Delete@?$CDynamicPoolEx@VCAirResistanceDecorator@NEffectUpdateDecorator@@@@KAXPAVCAirResistanceDecorator@NEffectUpdateDecorator@@@Z ENDP ; CDynamicPoolEx<NEffectUpdateDecorator::CAirResistanceDecorator>::Delete
_TEXT	ENDS
; Function compile flags: /Ogtp
; File D:\Metin2 Server Files\mainline\SRC_2014\Metin2Client\eterLib\Pool.h
; File C:\Program Files (x86)\Microsoft Visual Studio\2019\Community\VC\Tools\MSVC\14.28.29333\include\vector
; File C:\Program Files (x86)\Microsoft Visual Studio\2019\Community\VC\Tools\MSVC\14.28.29333\include\algorithm
; File D:\Metin2 Server Files\mainline\SRC_2014\Metin2Client\eterLib\Pool.h
; File C:\Program Files (x86)\Microsoft Visual Studio\2019\Community\VC\Tools\MSVC\14.28.29333\include\algorithm
; File D:\Metin2 Server Files\mainline\SRC_2014\Metin2Client\eterLib\Pool.h
; File C:\Program Files (x86)\Microsoft Visual Studio\2019\Community\VC\Tools\MSVC\14.28.29333\include\algorithm
; File D:\Metin2 Server Files\mainline\SRC_2014\Metin2Client\eterLib\Pool.h
; File C:\Program Files (x86)\Microsoft Visual Studio\2019\Community\VC\Tools\MSVC\14.28.29333\include\vector
; File C:\Program Files (x86)\Microsoft Visual Studio\2019\Community\VC\Tools\MSVC\14.28.29333\include\xmemory
; File C:\Program Files (x86)\Microsoft Visual Studio\2019\Community\VC\Tools\MSVC\14.28.29333\include\vector
; File C:\Program Files (x86)\Microsoft Visual Studio\2019\Community\VC\Tools\MSVC\14.28.29333\include\xmemory
; File C:\Program Files (x86)\Microsoft Visual Studio\2019\Community\VC\Tools\MSVC\14.28.29333\include\vector
; File C:\Program Files (x86)\Microsoft Visual Studio\2019\Community\VC\Tools\MSVC\14.28.29333\include\xmemory
; File C:\Program Files (x86)\Microsoft Visual Studio\2019\Community\VC\Tools\MSVC\14.28.29333\include\vector
; File C:\Program Files (x86)\Microsoft Visual Studio\2019\Community\VC\Tools\MSVC\14.28.29333\include\xmemory
; File C:\Program Files (x86)\Microsoft Visual Studio\2019\Community\VC\Tools\MSVC\14.28.29333\include\vector
; File D:\Metin2 Server Files\mainline\SRC_2014\Metin2Client\eterLib\Pool.h
;	COMDAT ??1?$CDynamicPoolEx@VCAirResistanceDecorator@NEffectUpdateDecorator@@@@UAE@XZ
_TEXT	SEGMENT
??1?$CDynamicPoolEx@VCAirResistanceDecorator@NEffectUpdateDecorator@@@@UAE@XZ PROC ; CDynamicPoolEx<NEffectUpdateDecorator::CAirResistanceDecorator>::~CDynamicPoolEx<NEffectUpdateDecorator::CAirResistanceDecorator>, COMDAT
; _this$ = ecx

; 132  : 		{

  00000	53		 push	 ebx
  00001	56		 push	 esi
  00002	57		 push	 edi
  00003	8b f9		 mov	 edi, ecx
  00005	c7 07 00 00 00
	00		 mov	 DWORD PTR [edi], OFFSET ??_7?$CDynamicPoolEx@VCAirResistanceDecorator@NEffectUpdateDecorator@@@@6B@
; File C:\Program Files (x86)\Microsoft Visual Studio\2019\Community\VC\Tools\MSVC\14.28.29333\include\vector

; 42   :     _Vector_const_iterator(_Tptr _Parg, const _Container_base* _Pvector) noexcept : _Ptr(_Parg) {

  0000b	8b 5f 08	 mov	 ebx, DWORD PTR [edi+8]
  0000e	8b 77 04	 mov	 esi, DWORD PTR [edi+4]
; File C:\Program Files (x86)\Microsoft Visual Studio\2019\Community\VC\Tools\MSVC\14.28.29333\include\algorithm

; 307  :     for (; _UFirst != _ULast; ++_UFirst) {

  00011	3b f3		 cmp	 esi, ebx
  00013	74 14		 je	 SHORT $LN19@CDynamicPo
$LL20@CDynamicPo:
; File D:\Metin2 Server Files\mainline\SRC_2014\Metin2Client\eterLib\Pool.h

; 224  : 			::operator delete(pkData);

  00015	ff 36		 push	 DWORD PTR [esi]
  00017	e8 00 00 00 00	 call	 ??3@YAXPAX@Z		; operator delete
; File C:\Program Files (x86)\Microsoft Visual Studio\2019\Community\VC\Tools\MSVC\14.28.29333\include\algorithm

; 307  :     for (; _UFirst != _ULast; ++_UFirst) {

  0001c	83 c6 04	 add	 esi, 4
; File D:\Metin2 Server Files\mainline\SRC_2014\Metin2Client\eterLib\Pool.h

; 224  : 			::operator delete(pkData);

  0001f	83 c4 04	 add	 esp, 4
; File C:\Program Files (x86)\Microsoft Visual Studio\2019\Community\VC\Tools\MSVC\14.28.29333\include\algorithm

; 307  :     for (; _UFirst != _ULast; ++_UFirst) {

  00022	3b f3		 cmp	 esi, ebx
  00024	75 ef		 jne	 SHORT $LL20@CDynamicPo
  00026	8b 77 04	 mov	 esi, DWORD PTR [edi+4]
$LN19@CDynamicPo:
; File D:\Metin2 Server Files\mainline\SRC_2014\Metin2Client\eterLib\Pool.h

; 162  : 			m_kVct_pkFree.clear();

  00029	8b 4f 10	 mov	 ecx, DWORD PTR [edi+16]
  0002c	89 77 08	 mov	 DWORD PTR [edi+8], esi
  0002f	89 4f 14	 mov	 DWORD PTR [edi+20], ecx
; File C:\Program Files (x86)\Microsoft Visual Studio\2019\Community\VC\Tools\MSVC\14.28.29333\include\vector

; 1694 :         if (_Myfirst) { // destroy and deallocate old array

  00032	85 c9		 test	 ecx, ecx
  00034	74 27		 je	 SHORT $LN27@CDynamicPo

; 1695 :             _Destroy(_Myfirst, _Mylast);
; 1696 :             _Getal().deallocate(_Myfirst, static_cast<size_type>(_Myend - _Myfirst));

  00036	8b 47 18	 mov	 eax, DWORD PTR [edi+24]
  00039	2b c1		 sub	 eax, ecx
; File C:\Program Files (x86)\Microsoft Visual Studio\2019\Community\VC\Tools\MSVC\14.28.29333\include\xmemory

; 810  :         _Deallocate<_New_alignof<_Ty>>(_Ptr, sizeof(_Ty) * _Count);

  0003b	83 e0 fc	 and	 eax, -4			; fffffffcH
  0003e	50		 push	 eax
  0003f	51		 push	 ecx
  00040	e8 00 00 00 00	 call	 ??$_Deallocate@$07$0A@@std@@YAXPAXI@Z ; std::_Deallocate<8,0>
; File C:\Program Files (x86)\Microsoft Visual Studio\2019\Community\VC\Tools\MSVC\14.28.29333\include\vector

; 1698 :             _Myfirst = pointer();

  00045	c7 47 10 00 00
	00 00		 mov	 DWORD PTR [edi+16], 0
; File C:\Program Files (x86)\Microsoft Visual Studio\2019\Community\VC\Tools\MSVC\14.28.29333\include\xmemory

; 810  :         _Deallocate<_New_alignof<_Ty>>(_Ptr, sizeof(_Ty) * _Count);

  0004c	83 c4 08	 add	 esp, 8
; File C:\Program Files (x86)\Microsoft Visual Studio\2019\Community\VC\Tools\MSVC\14.28.29333\include\vector

; 1699 :             _Mylast  = pointer();

  0004f	c7 47 14 00 00
	00 00		 mov	 DWORD PTR [edi+20], 0

; 1700 :             _Myend   = pointer();

  00056	c7 47 18 00 00
	00 00		 mov	 DWORD PTR [edi+24], 0
$LN27@CDynamicPo:

; 1694 :         if (_Myfirst) { // destroy and deallocate old array

  0005d	8b 4f 04	 mov	 ecx, DWORD PTR [edi+4]
  00060	85 c9		 test	 ecx, ecx
  00062	74 27		 je	 SHORT $LN34@CDynamicPo

; 1695 :             _Destroy(_Myfirst, _Mylast);
; 1696 :             _Getal().deallocate(_Myfirst, static_cast<size_type>(_Myend - _Myfirst));

  00064	8b 47 0c	 mov	 eax, DWORD PTR [edi+12]
  00067	2b c1		 sub	 eax, ecx
; File C:\Program Files (x86)\Microsoft Visual Studio\2019\Community\VC\Tools\MSVC\14.28.29333\include\xmemory

; 810  :         _Deallocate<_New_alignof<_Ty>>(_Ptr, sizeof(_Ty) * _Count);

  00069	83 e0 fc	 and	 eax, -4			; fffffffcH
  0006c	50		 push	 eax
  0006d	51		 push	 ecx
  0006e	e8 00 00 00 00	 call	 ??$_Deallocate@$07$0A@@std@@YAXPAXI@Z ; std::_Deallocate<8,0>
; File C:\Program Files (x86)\Microsoft Visual Studio\2019\Community\VC\Tools\MSVC\14.28.29333\include\vector

; 1698 :             _Myfirst = pointer();

  00073	c7 47 04 00 00
	00 00		 mov	 DWORD PTR [edi+4], 0
; File C:\Program Files (x86)\Microsoft Visual Studio\2019\Community\VC\Tools\MSVC\14.28.29333\include\xmemory

; 810  :         _Deallocate<_New_alignof<_Ty>>(_Ptr, sizeof(_Ty) * _Count);

  0007a	83 c4 08	 add	 esp, 8
; File C:\Program Files (x86)\Microsoft Visual Studio\2019\Community\VC\Tools\MSVC\14.28.29333\include\vector

; 1699 :             _Mylast  = pointer();

  0007d	c7 47 08 00 00
	00 00		 mov	 DWORD PTR [edi+8], 0

; 1700 :             _Myend   = pointer();

  00084	c7 47 0c 00 00
	00 00		 mov	 DWORD PTR [edi+12], 0
$LN34@CDynamicPo:
  0008b	5f		 pop	 edi
; File D:\Metin2 Server Files\mainline\SRC_2014\Metin2Client\eterLib\Pool.h

; 142  : 		}

  0008c	5e		 pop	 esi
  0008d	5b		 pop	 ebx
  0008e	c3		 ret	 0
??1?$CDynamicPoolEx@VCAirResistanceDecorator@NEffectUpdateDecorator@@@@UAE@XZ ENDP ; CDynamicPoolEx<NEffectUpdateDecorator::CAirResistanceDecorator>::~CDynamicPoolEx<NEffectUpdateDecorator::CAirResistanceDecorator>
_TEXT	ENDS
; Function compile flags: /Ogtp
;	COMDAT ??_G?$CDynamicPoolEx@VCGravityDecorator@NEffectUpdateDecorator@@@@UAEPAXI@Z
_TEXT	SEGMENT
___flags$ = 8						; size = 4
??_G?$CDynamicPoolEx@VCGravityDecorator@NEffectUpdateDecorator@@@@UAEPAXI@Z PROC ; CDynamicPoolEx<NEffectUpdateDecorator::CGravityDecorator>::`scalar deleting destructor', COMDAT
; _this$ = ecx
  00000	55		 push	 ebp
  00001	8b ec		 mov	 ebp, esp
  00003	56		 push	 esi
  00004	8b f1		 mov	 esi, ecx
  00006	e8 00 00 00 00	 call	 ??1?$CDynamicPoolEx@VCGravityDecorator@NEffectUpdateDecorator@@@@UAE@XZ ; CDynamicPoolEx<NEffectUpdateDecorator::CGravityDecorator>::~CDynamicPoolEx<NEffectUpdateDecorator::CGravityDecorator>
  0000b	f6 45 08 01	 test	 BYTE PTR ___flags$[ebp], 1
  0000f	74 0b		 je	 SHORT $LN4@scalar
  00011	6a 24		 push	 36			; 00000024H
  00013	56		 push	 esi
  00014	e8 00 00 00 00	 call	 ??3@YAXPAXI@Z		; operator delete
  00019	83 c4 08	 add	 esp, 8
$LN4@scalar:
  0001c	8b c6		 mov	 eax, esi
  0001e	5e		 pop	 esi
  0001f	5d		 pop	 ebp
  00020	c2 04 00	 ret	 4
??_G?$CDynamicPoolEx@VCGravityDecorator@NEffectUpdateDecorator@@@@UAEPAXI@Z ENDP ; CDynamicPoolEx<NEffectUpdateDecorator::CGravityDecorator>::`scalar deleting destructor'
_TEXT	ENDS
; Function compile flags: /Ogtp
; File D:\Metin2 Server Files\mainline\SRC_2014\Metin2Client\eterLib\Pool.h
;	COMDAT ?Delete@?$CDynamicPoolEx@VCGravityDecorator@NEffectUpdateDecorator@@@@KAXPAVCGravityDecorator@NEffectUpdateDecorator@@@Z
_TEXT	SEGMENT
_pkData$ = 8						; size = 4
?Delete@?$CDynamicPoolEx@VCGravityDecorator@NEffectUpdateDecorator@@@@KAXPAVCGravityDecorator@NEffectUpdateDecorator@@@Z PROC ; CDynamicPoolEx<NEffectUpdateDecorator::CGravityDecorator>::Delete, COMDAT

; 224  : 			::operator delete(pkData);

  00000	e9 00 00 00 00	 jmp	 ??3@YAXPAX@Z		; operator delete
?Delete@?$CDynamicPoolEx@VCGravityDecorator@NEffectUpdateDecorator@@@@KAXPAVCGravityDecorator@NEffectUpdateDecorator@@@Z ENDP ; CDynamicPoolEx<NEffectUpdateDecorator::CGravityDecorator>::Delete
_TEXT	ENDS
; Function compile flags: /Ogtp
; File D:\Metin2 Server Files\mainline\SRC_2014\Metin2Client\eterLib\Pool.h
; File C:\Program Files (x86)\Microsoft Visual Studio\2019\Community\VC\Tools\MSVC\14.28.29333\include\vector
; File C:\Program Files (x86)\Microsoft Visual Studio\2019\Community\VC\Tools\MSVC\14.28.29333\include\algorithm
; File D:\Metin2 Server Files\mainline\SRC_2014\Metin2Client\eterLib\Pool.h
; File C:\Program Files (x86)\Microsoft Visual Studio\2019\Community\VC\Tools\MSVC\14.28.29333\include\algorithm
; File D:\Metin2 Server Files\mainline\SRC_2014\Metin2Client\eterLib\Pool.h
; File C:\Program Files (x86)\Microsoft Visual Studio\2019\Community\VC\Tools\MSVC\14.28.29333\include\algorithm
; File D:\Metin2 Server Files\mainline\SRC_2014\Metin2Client\eterLib\Pool.h
; File C:\Program Files (x86)\Microsoft Visual Studio\2019\Community\VC\Tools\MSVC\14.28.29333\include\vector
; File C:\Program Files (x86)\Microsoft Visual Studio\2019\Community\VC\Tools\MSVC\14.28.29333\include\xmemory
; File C:\Program Files (x86)\Microsoft Visual Studio\2019\Community\VC\Tools\MSVC\14.28.29333\include\vector
; File C:\Program Files (x86)\Microsoft Visual Studio\2019\Community\VC\Tools\MSVC\14.28.29333\include\xmemory
; File C:\Program Files (x86)\Microsoft Visual Studio\2019\Community\VC\Tools\MSVC\14.28.29333\include\vector
; File C:\Program Files (x86)\Microsoft Visual Studio\2019\Community\VC\Tools\MSVC\14.28.29333\include\xmemory
; File C:\Program Files (x86)\Microsoft Visual Studio\2019\Community\VC\Tools\MSVC\14.28.29333\include\vector
; File C:\Program Files (x86)\Microsoft Visual Studio\2019\Community\VC\Tools\MSVC\14.28.29333\include\xmemory
; File C:\Program Files (x86)\Microsoft Visual Studio\2019\Community\VC\Tools\MSVC\14.28.29333\include\vector
; File D:\Metin2 Server Files\mainline\SRC_2014\Metin2Client\eterLib\Pool.h
;	COMDAT ??1?$CDynamicPoolEx@VCGravityDecorator@NEffectUpdateDecorator@@@@UAE@XZ
_TEXT	SEGMENT
??1?$CDynamicPoolEx@VCGravityDecorator@NEffectUpdateDecorator@@@@UAE@XZ PROC ; CDynamicPoolEx<NEffectUpdateDecorator::CGravityDecorator>::~CDynamicPoolEx<NEffectUpdateDecorator::CGravityDecorator>, COMDAT
; _this$ = ecx

; 132  : 		{

  00000	53		 push	 ebx
  00001	56		 push	 esi
  00002	57		 push	 edi
  00003	8b f9		 mov	 edi, ecx
  00005	c7 07 00 00 00
	00		 mov	 DWORD PTR [edi], OFFSET ??_7?$CDynamicPoolEx@VCGravityDecorator@NEffectUpdateDecorator@@@@6B@
; File C:\Program Files (x86)\Microsoft Visual Studio\2019\Community\VC\Tools\MSVC\14.28.29333\include\vector

; 42   :     _Vector_const_iterator(_Tptr _Parg, const _Container_base* _Pvector) noexcept : _Ptr(_Parg) {

  0000b	8b 5f 08	 mov	 ebx, DWORD PTR [edi+8]
  0000e	8b 77 04	 mov	 esi, DWORD PTR [edi+4]
; File C:\Program Files (x86)\Microsoft Visual Studio\2019\Community\VC\Tools\MSVC\14.28.29333\include\algorithm

; 307  :     for (; _UFirst != _ULast; ++_UFirst) {

  00011	3b f3		 cmp	 esi, ebx
  00013	74 14		 je	 SHORT $LN19@CDynamicPo
$LL20@CDynamicPo:
; File D:\Metin2 Server Files\mainline\SRC_2014\Metin2Client\eterLib\Pool.h

; 224  : 			::operator delete(pkData);

  00015	ff 36		 push	 DWORD PTR [esi]
  00017	e8 00 00 00 00	 call	 ??3@YAXPAX@Z		; operator delete
; File C:\Program Files (x86)\Microsoft Visual Studio\2019\Community\VC\Tools\MSVC\14.28.29333\include\algorithm

; 307  :     for (; _UFirst != _ULast; ++_UFirst) {

  0001c	83 c6 04	 add	 esi, 4
; File D:\Metin2 Server Files\mainline\SRC_2014\Metin2Client\eterLib\Pool.h

; 224  : 			::operator delete(pkData);

  0001f	83 c4 04	 add	 esp, 4
; File C:\Program Files (x86)\Microsoft Visual Studio\2019\Community\VC\Tools\MSVC\14.28.29333\include\algorithm

; 307  :     for (; _UFirst != _ULast; ++_UFirst) {

  00022	3b f3		 cmp	 esi, ebx
  00024	75 ef		 jne	 SHORT $LL20@CDynamicPo
  00026	8b 77 04	 mov	 esi, DWORD PTR [edi+4]
$LN19@CDynamicPo:
; File D:\Metin2 Server Files\mainline\SRC_2014\Metin2Client\eterLib\Pool.h

; 162  : 			m_kVct_pkFree.clear();

  00029	8b 4f 10	 mov	 ecx, DWORD PTR [edi+16]
  0002c	89 77 08	 mov	 DWORD PTR [edi+8], esi
  0002f	89 4f 14	 mov	 DWORD PTR [edi+20], ecx
; File C:\Program Files (x86)\Microsoft Visual Studio\2019\Community\VC\Tools\MSVC\14.28.29333\include\vector

; 1694 :         if (_Myfirst) { // destroy and deallocate old array

  00032	85 c9		 test	 ecx, ecx
  00034	74 27		 je	 SHORT $LN27@CDynamicPo

; 1695 :             _Destroy(_Myfirst, _Mylast);
; 1696 :             _Getal().deallocate(_Myfirst, static_cast<size_type>(_Myend - _Myfirst));

  00036	8b 47 18	 mov	 eax, DWORD PTR [edi+24]
  00039	2b c1		 sub	 eax, ecx
; File C:\Program Files (x86)\Microsoft Visual Studio\2019\Community\VC\Tools\MSVC\14.28.29333\include\xmemory

; 810  :         _Deallocate<_New_alignof<_Ty>>(_Ptr, sizeof(_Ty) * _Count);

  0003b	83 e0 fc	 and	 eax, -4			; fffffffcH
  0003e	50		 push	 eax
  0003f	51		 push	 ecx
  00040	e8 00 00 00 00	 call	 ??$_Deallocate@$07$0A@@std@@YAXPAXI@Z ; std::_Deallocate<8,0>
; File C:\Program Files (x86)\Microsoft Visual Studio\2019\Community\VC\Tools\MSVC\14.28.29333\include\vector

; 1698 :             _Myfirst = pointer();

  00045	c7 47 10 00 00
	00 00		 mov	 DWORD PTR [edi+16], 0
; File C:\Program Files (x86)\Microsoft Visual Studio\2019\Community\VC\Tools\MSVC\14.28.29333\include\xmemory

; 810  :         _Deallocate<_New_alignof<_Ty>>(_Ptr, sizeof(_Ty) * _Count);

  0004c	83 c4 08	 add	 esp, 8
; File C:\Program Files (x86)\Microsoft Visual Studio\2019\Community\VC\Tools\MSVC\14.28.29333\include\vector

; 1699 :             _Mylast  = pointer();

  0004f	c7 47 14 00 00
	00 00		 mov	 DWORD PTR [edi+20], 0

; 1700 :             _Myend   = pointer();

  00056	c7 47 18 00 00
	00 00		 mov	 DWORD PTR [edi+24], 0
$LN27@CDynamicPo:

; 1694 :         if (_Myfirst) { // destroy and deallocate old array

  0005d	8b 4f 04	 mov	 ecx, DWORD PTR [edi+4]
  00060	85 c9		 test	 ecx, ecx
  00062	74 27		 je	 SHORT $LN34@CDynamicPo

; 1695 :             _Destroy(_Myfirst, _Mylast);
; 1696 :             _Getal().deallocate(_Myfirst, static_cast<size_type>(_Myend - _Myfirst));

  00064	8b 47 0c	 mov	 eax, DWORD PTR [edi+12]
  00067	2b c1		 sub	 eax, ecx
; File C:\Program Files (x86)\Microsoft Visual Studio\2019\Community\VC\Tools\MSVC\14.28.29333\include\xmemory

; 810  :         _Deallocate<_New_alignof<_Ty>>(_Ptr, sizeof(_Ty) * _Count);

  00069	83 e0 fc	 and	 eax, -4			; fffffffcH
  0006c	50		 push	 eax
  0006d	51		 push	 ecx
  0006e	e8 00 00 00 00	 call	 ??$_Deallocate@$07$0A@@std@@YAXPAXI@Z ; std::_Deallocate<8,0>
; File C:\Program Files (x86)\Microsoft Visual Studio\2019\Community\VC\Tools\MSVC\14.28.29333\include\vector

; 1698 :             _Myfirst = pointer();

  00073	c7 47 04 00 00
	00 00		 mov	 DWORD PTR [edi+4], 0
; File C:\Program Files (x86)\Microsoft Visual Studio\2019\Community\VC\Tools\MSVC\14.28.29333\include\xmemory

; 810  :         _Deallocate<_New_alignof<_Ty>>(_Ptr, sizeof(_Ty) * _Count);

  0007a	83 c4 08	 add	 esp, 8
; File C:\Program Files (x86)\Microsoft Visual Studio\2019\Community\VC\Tools\MSVC\14.28.29333\include\vector

; 1699 :             _Mylast  = pointer();

  0007d	c7 47 08 00 00
	00 00		 mov	 DWORD PTR [edi+8], 0

; 1700 :             _Myend   = pointer();

  00084	c7 47 0c 00 00
	00 00		 mov	 DWORD PTR [edi+12], 0
$LN34@CDynamicPo:
  0008b	5f		 pop	 edi
; File D:\Metin2 Server Files\mainline\SRC_2014\Metin2Client\eterLib\Pool.h

; 142  : 		}

  0008c	5e		 pop	 esi
  0008d	5b		 pop	 ebx
  0008e	c3		 ret	 0
??1?$CDynamicPoolEx@VCGravityDecorator@NEffectUpdateDecorator@@@@UAE@XZ ENDP ; CDynamicPoolEx<NEffectUpdateDecorator::CGravityDecorator>::~CDynamicPoolEx<NEffectUpdateDecorator::CGravityDecorator>
_TEXT	ENDS
; Function compile flags: /Ogtp
;	COMDAT ??_G?$CDynamicPoolEx@VCRotationDecorator@NEffectUpdateDecorator@@@@UAEPAXI@Z
_TEXT	SEGMENT
___flags$ = 8						; size = 4
??_G?$CDynamicPoolEx@VCRotationDecorator@NEffectUpdateDecorator@@@@UAEPAXI@Z PROC ; CDynamicPoolEx<NEffectUpdateDecorator::CRotationDecorator>::`scalar deleting destructor', COMDAT
; _this$ = ecx
  00000	55		 push	 ebp
  00001	8b ec		 mov	 ebp, esp
  00003	56		 push	 esi
  00004	8b f1		 mov	 esi, ecx
  00006	e8 00 00 00 00	 call	 ??1?$CDynamicPoolEx@VCRotationDecorator@NEffectUpdateDecorator@@@@UAE@XZ ; CDynamicPoolEx<NEffectUpdateDecorator::CRotationDecorator>::~CDynamicPoolEx<NEffectUpdateDecorator::CRotationDecorator>
  0000b	f6 45 08 01	 test	 BYTE PTR ___flags$[ebp], 1
  0000f	74 0b		 je	 SHORT $LN4@scalar
  00011	6a 24		 push	 36			; 00000024H
  00013	56		 push	 esi
  00014	e8 00 00 00 00	 call	 ??3@YAXPAXI@Z		; operator delete
  00019	83 c4 08	 add	 esp, 8
$LN4@scalar:
  0001c	8b c6		 mov	 eax, esi
  0001e	5e		 pop	 esi
  0001f	5d		 pop	 ebp
  00020	c2 04 00	 ret	 4
??_G?$CDynamicPoolEx@VCRotationDecorator@NEffectUpdateDecorator@@@@UAEPAXI@Z ENDP ; CDynamicPoolEx<NEffectUpdateDecorator::CRotationDecorator>::`scalar deleting destructor'
_TEXT	ENDS
; Function compile flags: /Ogtp
; File D:\Metin2 Server Files\mainline\SRC_2014\Metin2Client\eterLib\Pool.h
;	COMDAT ?Delete@?$CDynamicPoolEx@VCRotationDecorator@NEffectUpdateDecorator@@@@KAXPAVCRotationDecorator@NEffectUpdateDecorator@@@Z
_TEXT	SEGMENT
_pkData$ = 8						; size = 4
?Delete@?$CDynamicPoolEx@VCRotationDecorator@NEffectUpdateDecorator@@@@KAXPAVCRotationDecorator@NEffectUpdateDecorator@@@Z PROC ; CDynamicPoolEx<NEffectUpdateDecorator::CRotationDecorator>::Delete, COMDAT

; 224  : 			::operator delete(pkData);

  00000	e9 00 00 00 00	 jmp	 ??3@YAXPAX@Z		; operator delete
?Delete@?$CDynamicPoolEx@VCRotationDecorator@NEffectUpdateDecorator@@@@KAXPAVCRotationDecorator@NEffectUpdateDecorator@@@Z ENDP ; CDynamicPoolEx<NEffectUpdateDecorator::CRotationDecorator>::Delete
_TEXT	ENDS
; Function compile flags: /Ogtp
; File D:\Metin2 Server Files\mainline\SRC_2014\Metin2Client\eterLib\Pool.h
; File C:\Program Files (x86)\Microsoft Visual Studio\2019\Community\VC\Tools\MSVC\14.28.29333\include\vector
; File C:\Program Files (x86)\Microsoft Visual Studio\2019\Community\VC\Tools\MSVC\14.28.29333\include\algorithm
; File D:\Metin2 Server Files\mainline\SRC_2014\Metin2Client\eterLib\Pool.h
; File C:\Program Files (x86)\Microsoft Visual Studio\2019\Community\VC\Tools\MSVC\14.28.29333\include\algorithm
; File D:\Metin2 Server Files\mainline\SRC_2014\Metin2Client\eterLib\Pool.h
; File C:\Program Files (x86)\Microsoft Visual Studio\2019\Community\VC\Tools\MSVC\14.28.29333\include\algorithm
; File D:\Metin2 Server Files\mainline\SRC_2014\Metin2Client\eterLib\Pool.h
; File C:\Program Files (x86)\Microsoft Visual Studio\2019\Community\VC\Tools\MSVC\14.28.29333\include\vector
; File C:\Program Files (x86)\Microsoft Visual Studio\2019\Community\VC\Tools\MSVC\14.28.29333\include\xmemory
; File C:\Program Files (x86)\Microsoft Visual Studio\2019\Community\VC\Tools\MSVC\14.28.29333\include\vector
; File C:\Program Files (x86)\Microsoft Visual Studio\2019\Community\VC\Tools\MSVC\14.28.29333\include\xmemory
; File C:\Program Files (x86)\Microsoft Visual Studio\2019\Community\VC\Tools\MSVC\14.28.29333\include\vector
; File C:\Program Files (x86)\Microsoft Visual Studio\2019\Community\VC\Tools\MSVC\14.28.29333\include\xmemory
; File C:\Program Files (x86)\Microsoft Visual Studio\2019\Community\VC\Tools\MSVC\14.28.29333\include\vector
; File C:\Program Files (x86)\Microsoft Visual Studio\2019\Community\VC\Tools\MSVC\14.28.29333\include\xmemory
; File C:\Program Files (x86)\Microsoft Visual Studio\2019\Community\VC\Tools\MSVC\14.28.29333\include\vector
; File D:\Metin2 Server Files\mainline\SRC_2014\Metin2Client\eterLib\Pool.h
;	COMDAT ??1?$CDynamicPoolEx@VCRotationDecorator@NEffectUpdateDecorator@@@@UAE@XZ
_TEXT	SEGMENT
??1?$CDynamicPoolEx@VCRotationDecorator@NEffectUpdateDecorator@@@@UAE@XZ PROC ; CDynamicPoolEx<NEffectUpdateDecorator::CRotationDecorator>::~CDynamicPoolEx<NEffectUpdateDecorator::CRotationDecorator>, COMDAT
; _this$ = ecx

; 132  : 		{

  00000	53		 push	 ebx
  00001	56		 push	 esi
  00002	57		 push	 edi
  00003	8b f9		 mov	 edi, ecx
  00005	c7 07 00 00 00
	00		 mov	 DWORD PTR [edi], OFFSET ??_7?$CDynamicPoolEx@VCRotationDecorator@NEffectUpdateDecorator@@@@6B@
; File C:\Program Files (x86)\Microsoft Visual Studio\2019\Community\VC\Tools\MSVC\14.28.29333\include\vector

; 42   :     _Vector_const_iterator(_Tptr _Parg, const _Container_base* _Pvector) noexcept : _Ptr(_Parg) {

  0000b	8b 5f 08	 mov	 ebx, DWORD PTR [edi+8]
  0000e	8b 77 04	 mov	 esi, DWORD PTR [edi+4]
; File C:\Program Files (x86)\Microsoft Visual Studio\2019\Community\VC\Tools\MSVC\14.28.29333\include\algorithm

; 307  :     for (; _UFirst != _ULast; ++_UFirst) {

  00011	3b f3		 cmp	 esi, ebx
  00013	74 14		 je	 SHORT $LN19@CDynamicPo
$LL20@CDynamicPo:
; File D:\Metin2 Server Files\mainline\SRC_2014\Metin2Client\eterLib\Pool.h

; 224  : 			::operator delete(pkData);

  00015	ff 36		 push	 DWORD PTR [esi]
  00017	e8 00 00 00 00	 call	 ??3@YAXPAX@Z		; operator delete
; File C:\Program Files (x86)\Microsoft Visual Studio\2019\Community\VC\Tools\MSVC\14.28.29333\include\algorithm

; 307  :     for (; _UFirst != _ULast; ++_UFirst) {

  0001c	83 c6 04	 add	 esi, 4
; File D:\Metin2 Server Files\mainline\SRC_2014\Metin2Client\eterLib\Pool.h

; 224  : 			::operator delete(pkData);

  0001f	83 c4 04	 add	 esp, 4
; File C:\Program Files (x86)\Microsoft Visual Studio\2019\Community\VC\Tools\MSVC\14.28.29333\include\algorithm

; 307  :     for (; _UFirst != _ULast; ++_UFirst) {

  00022	3b f3		 cmp	 esi, ebx
  00024	75 ef		 jne	 SHORT $LL20@CDynamicPo
  00026	8b 77 04	 mov	 esi, DWORD PTR [edi+4]
$LN19@CDynamicPo:
; File D:\Metin2 Server Files\mainline\SRC_2014\Metin2Client\eterLib\Pool.h

; 162  : 			m_kVct_pkFree.clear();

  00029	8b 4f 10	 mov	 ecx, DWORD PTR [edi+16]
  0002c	89 77 08	 mov	 DWORD PTR [edi+8], esi
  0002f	89 4f 14	 mov	 DWORD PTR [edi+20], ecx
; File C:\Program Files (x86)\Microsoft Visual Studio\2019\Community\VC\Tools\MSVC\14.28.29333\include\vector

; 1694 :         if (_Myfirst) { // destroy and deallocate old array

  00032	85 c9		 test	 ecx, ecx
  00034	74 27		 je	 SHORT $LN27@CDynamicPo

; 1695 :             _Destroy(_Myfirst, _Mylast);
; 1696 :             _Getal().deallocate(_Myfirst, static_cast<size_type>(_Myend - _Myfirst));

  00036	8b 47 18	 mov	 eax, DWORD PTR [edi+24]
  00039	2b c1		 sub	 eax, ecx
; File C:\Program Files (x86)\Microsoft Visual Studio\2019\Community\VC\Tools\MSVC\14.28.29333\include\xmemory

; 810  :         _Deallocate<_New_alignof<_Ty>>(_Ptr, sizeof(_Ty) * _Count);

  0003b	83 e0 fc	 and	 eax, -4			; fffffffcH
  0003e	50		 push	 eax
  0003f	51		 push	 ecx
  00040	e8 00 00 00 00	 call	 ??$_Deallocate@$07$0A@@std@@YAXPAXI@Z ; std::_Deallocate<8,0>
; File C:\Program Files (x86)\Microsoft Visual Studio\2019\Community\VC\Tools\MSVC\14.28.29333\include\vector

; 1698 :             _Myfirst = pointer();

  00045	c7 47 10 00 00
	00 00		 mov	 DWORD PTR [edi+16], 0
; File C:\Program Files (x86)\Microsoft Visual Studio\2019\Community\VC\Tools\MSVC\14.28.29333\include\xmemory

; 810  :         _Deallocate<_New_alignof<_Ty>>(_Ptr, sizeof(_Ty) * _Count);

  0004c	83 c4 08	 add	 esp, 8
; File C:\Program Files (x86)\Microsoft Visual Studio\2019\Community\VC\Tools\MSVC\14.28.29333\include\vector

; 1699 :             _Mylast  = pointer();

  0004f	c7 47 14 00 00
	00 00		 mov	 DWORD PTR [edi+20], 0

; 1700 :             _Myend   = pointer();

  00056	c7 47 18 00 00
	00 00		 mov	 DWORD PTR [edi+24], 0
$LN27@CDynamicPo:

; 1694 :         if (_Myfirst) { // destroy and deallocate old array

  0005d	8b 4f 04	 mov	 ecx, DWORD PTR [edi+4]
  00060	85 c9		 test	 ecx, ecx
  00062	74 27		 je	 SHORT $LN34@CDynamicPo

; 1695 :             _Destroy(_Myfirst, _Mylast);
; 1696 :             _Getal().deallocate(_Myfirst, static_cast<size_type>(_Myend - _Myfirst));

  00064	8b 47 0c	 mov	 eax, DWORD PTR [edi+12]
  00067	2b c1		 sub	 eax, ecx
; File C:\Program Files (x86)\Microsoft Visual Studio\2019\Community\VC\Tools\MSVC\14.28.29333\include\xmemory

; 810  :         _Deallocate<_New_alignof<_Ty>>(_Ptr, sizeof(_Ty) * _Count);

  00069	83 e0 fc	 and	 eax, -4			; fffffffcH
  0006c	50		 push	 eax
  0006d	51		 push	 ecx
  0006e	e8 00 00 00 00	 call	 ??$_Deallocate@$07$0A@@std@@YAXPAXI@Z ; std::_Deallocate<8,0>
; File C:\Program Files (x86)\Microsoft Visual Studio\2019\Community\VC\Tools\MSVC\14.28.29333\include\vector

; 1698 :             _Myfirst = pointer();

  00073	c7 47 04 00 00
	00 00		 mov	 DWORD PTR [edi+4], 0
; File C:\Program Files (x86)\Microsoft Visual Studio\2019\Community\VC\Tools\MSVC\14.28.29333\include\xmemory

; 810  :         _Deallocate<_New_alignof<_Ty>>(_Ptr, sizeof(_Ty) * _Count);

  0007a	83 c4 08	 add	 esp, 8
; File C:\Program Files (x86)\Microsoft Visual Studio\2019\Community\VC\Tools\MSVC\14.28.29333\include\vector

; 1699 :             _Mylast  = pointer();

  0007d	c7 47 08 00 00
	00 00		 mov	 DWORD PTR [edi+8], 0

; 1700 :             _Myend   = pointer();

  00084	c7 47 0c 00 00
	00 00		 mov	 DWORD PTR [edi+12], 0
$LN34@CDynamicPo:
  0008b	5f		 pop	 edi
; File D:\Metin2 Server Files\mainline\SRC_2014\Metin2Client\eterLib\Pool.h

; 142  : 		}

  0008c	5e		 pop	 esi
  0008d	5b		 pop	 ebx
  0008e	c3		 ret	 0
??1?$CDynamicPoolEx@VCRotationDecorator@NEffectUpdateDecorator@@@@UAE@XZ ENDP ; CDynamicPoolEx<NEffectUpdateDecorator::CRotationDecorator>::~CDynamicPoolEx<NEffectUpdateDecorator::CRotationDecorator>
_TEXT	ENDS
; Function compile flags: /Ogtp
; File D:\Metin2 Server Files\mainline\SRC_2014\Metin2Client\UserInterface\PythonApplication.cpp
;	COMDAT ?__GetWindowMode@@YAI_N@Z
_TEXT	SEGMENT
_windowed$ = 8						; size = 1
?__GetWindowMode@@YAI_N@Z PROC				; __GetWindowMode, COMDAT

; 1085 : {

  00000	55		 push	 ebp
  00001	8b ec		 mov	 ebp, esp

; 1086 : 	if (windowed)

  00003	80 7d 08 00	 cmp	 BYTE PTR _windowed$[ebp], 0
  00007	b8 00 00 00 80	 mov	 eax, -2147483648	; 80000000H
  0000c	b9 00 00 ca 00	 mov	 ecx, 13238272		; 00ca0000H
  00011	0f 45 c1	 cmovne	 eax, ecx

; 1087 : 		return WS_OVERLAPPED | WS_CAPTION |   WS_SYSMENU | WS_MINIMIZEBOX;
; 1088 : 
; 1089 : 	return WS_POPUP;
; 1090 : }

  00014	5d		 pop	 ebp
  00015	c3		 ret	 0
?__GetWindowMode@@YAI_N@Z ENDP				; __GetWindowMode
_TEXT	ENDS
; Function compile flags: /Ogtp
; File D:\Metin2 Server Files\mainline\SRC_2014\Metin2Client\UserInterface\PythonApplication.cpp
;	COMDAT ?LoadLocaleData@@YA_NPBD@Z
_TEXT	SEGMENT
_localePath$GSCopy$1$ = -2064				; size = 4
_rkSkillMgr$1$ = -2060					; size = 4
_rkNPCMgr$1$ = -2056					; size = 4
_szSkillTableFileName$ = -2052				; size = 256
_szSkillDescFileName$ = -1796				; size = 256
_szEmpireTextConvFile$1 = -1540				; size = 256
_szInsultList$ = -1284					; size = 256
_szItemDesc$ = -1028					; size = 256
_szItemProto$ = -772					; size = 256
_szItemList$ = -516					; size = 256
_szMobProto$ = -260					; size = 256
__$ArrayPad$ = -4					; size = 4
_localePath$ = 8					; size = 4
?LoadLocaleData@@YA_NPBD@Z PROC				; LoadLocaleData, COMDAT

; 1001 : {

  00000	55		 push	 ebp
  00001	8b ec		 mov	 ebp, esp
  00003	81 ec 10 08 00
	00		 sub	 esp, 2064		; 00000810H
  00009	a1 00 00 00 00	 mov	 eax, DWORD PTR ___security_cookie
  0000e	33 c5		 xor	 eax, ebp
  00010	89 45 fc	 mov	 DWORD PTR __$ArrayPad$[ebp], eax
  00013	8b 45 08	 mov	 eax, DWORD PTR _localePath$[ebp]
  00016	53		 push	 ebx
  00017	56		 push	 esi
  00018	57		 push	 edi
  00019	89 85 f0 f7 ff
	ff		 mov	 DWORD PTR _localePath$GSCopy$1$[ebp], eax

; 1002 : 	NANOBEGIN

  0001f	eb		 DB	 -21			; ffffffebH
  00020	03		 DB	 3
  00021	d6		 DB	 -42			; ffffffd6H
  00022	d7		 DB	 -41			; ffffffd7H
  00023	01		 DB	 1
  00024	a1 00 00 00 00	 mov	 eax, DWORD PTR ?ms_singleton@?$CSingleton@VCPythonNonPlayer@@@@0PAVCPythonNonPlayer@@A ; CSingleton<CPythonNonPlayer>::ms_singleton

; 1003 : 		CPythonNonPlayer&	rkNPCMgr	= CPythonNonPlayer::Instance();
; 1004 : 	CItemManager&		rkItemMgr	= CItemManager::Instance();	
; 1005 : 	CPythonSkill&		rkSkillMgr	= CPythonSkill::Instance();
; 1006 : 	CPythonNetworkStream& rkNetStream = CPythonNetworkStream::Instance();
; 1007 : 
; 1008 : 	char szItemList[256];
; 1009 : 	char szItemProto[256];
; 1010 : 	char szItemDesc[256];	
; 1011 : 	char szMobProto[256];
; 1012 : 	char szSkillDescFileName[256];
; 1013 : 	char szSkillTableFileName[256];
; 1014 : 	char szInsultList[256];
; 1015 : 	snprintf(szItemList,	sizeof(szItemList) ,	"%s/item_list.txt",	localePath);		

  00029	8b 9d f0 f7 ff
	ff		 mov	 ebx, DWORD PTR _localePath$GSCopy$1$[ebp]
  0002f	8b 35 00 00 00
	00		 mov	 esi, DWORD PTR ?ms_singleton@?$CSingleton@VCItemManager@@@@0PAVCItemManager@@A ; CSingleton<CItemManager>::ms_singleton
  00035	8b 3d 00 00 00
	00		 mov	 edi, DWORD PTR ?ms_singleton@?$CSingleton@VCPythonNetworkStream@@@@0PAVCPythonNetworkStream@@A ; CSingleton<CPythonNetworkStream>::ms_singleton
  0003b	53		 push	 ebx
  0003c	89 85 f8 f7 ff
	ff		 mov	 DWORD PTR _rkNPCMgr$1$[ebp], eax
  00042	a1 00 00 00 00	 mov	 eax, DWORD PTR ?ms_singleton@?$CSingleton@VCPythonSkill@@@@0PAVCPythonSkill@@A ; CSingleton<CPythonSkill>::ms_singleton
  00047	68 00 00 00 00	 push	 OFFSET ??_C@_0BB@EOELDOLA@?$CFs?1item_list?4txt@
  0004c	89 85 f4 f7 ff
	ff		 mov	 DWORD PTR _rkSkillMgr$1$[ebp], eax
  00052	8d 85 fc fd ff
	ff		 lea	 eax, DWORD PTR _szItemList$[ebp]
  00058	68 00 01 00 00	 push	 256			; 00000100H
  0005d	50		 push	 eax
  0005e	e8 00 00 00 00	 call	 __snprintf

; 1016 : 	snprintf(szItemProto,	sizeof(szItemProto),	"%s/item_proto",	localePath);

  00063	53		 push	 ebx
  00064	68 00 00 00 00	 push	 OFFSET ??_C@_0O@MEMEPBB@?$CFs?1item_proto@
  00069	8d 85 fc fc ff
	ff		 lea	 eax, DWORD PTR _szItemProto$[ebp]
  0006f	68 00 01 00 00	 push	 256			; 00000100H
  00074	50		 push	 eax
  00075	e8 00 00 00 00	 call	 __snprintf

; 1017 : 	snprintf(szItemDesc,	sizeof(szItemDesc),	"%s/itemdesc.txt",	localePath);	

  0007a	53		 push	 ebx
  0007b	68 00 00 00 00	 push	 OFFSET ??_C@_0BA@BIDKFLDM@?$CFs?1itemdesc?4txt@
  00080	8d 85 fc fb ff
	ff		 lea	 eax, DWORD PTR _szItemDesc$[ebp]
  00086	68 00 01 00 00	 push	 256			; 00000100H
  0008b	50		 push	 eax
  0008c	e8 00 00 00 00	 call	 __snprintf

; 1018 : 	snprintf(szMobProto,	sizeof(szMobProto),	"%s/mob_proto",		localePath);	

  00091	53		 push	 ebx
  00092	68 00 00 00 00	 push	 OFFSET ??_C@_0N@KCBCHIHM@?$CFs?1mob_proto@
  00097	8d 85 fc fe ff
	ff		 lea	 eax, DWORD PTR _szMobProto$[ebp]
  0009d	68 00 01 00 00	 push	 256			; 00000100H
  000a2	50		 push	 eax
  000a3	e8 00 00 00 00	 call	 __snprintf
  000a8	83 c4 40	 add	 esp, 64			; 00000040H

; 1019 : 	snprintf(szSkillDescFileName, sizeof(szSkillDescFileName),	"%s/SkillDesc.txt", localePath);

  000ab	8d 85 fc f8 ff
	ff		 lea	 eax, DWORD PTR _szSkillDescFileName$[ebp]
  000b1	53		 push	 ebx
  000b2	68 00 00 00 00	 push	 OFFSET ??_C@_0BB@JDMIHPNN@?$CFs?1SkillDesc?4txt@
  000b7	68 00 01 00 00	 push	 256			; 00000100H
  000bc	50		 push	 eax
  000bd	e8 00 00 00 00	 call	 __snprintf

; 1020 : 	snprintf(szSkillTableFileName, sizeof(szSkillTableFileName),	"%s/SkillTable.txt", localePath);	

  000c2	53		 push	 ebx
  000c3	68 00 00 00 00	 push	 OFFSET ??_C@_0BC@NLEJCAEF@?$CFs?1SkillTable?4txt@
  000c8	8d 85 fc f7 ff
	ff		 lea	 eax, DWORD PTR _szSkillTableFileName$[ebp]
  000ce	68 00 01 00 00	 push	 256			; 00000100H
  000d3	50		 push	 eax
  000d4	e8 00 00 00 00	 call	 __snprintf

; 1021 : 	snprintf(szInsultList,	sizeof(szInsultList),	"%s/insult.txt", localePath);

  000d9	53		 push	 ebx
  000da	68 00 00 00 00	 push	 OFFSET ??_C@_0O@JEIJHCCG@?$CFs?1insult?4txt@
  000df	8d 85 fc fa ff
	ff		 lea	 eax, DWORD PTR _szInsultList$[ebp]
  000e5	68 00 01 00 00	 push	 256			; 00000100H
  000ea	50		 push	 eax
  000eb	e8 00 00 00 00	 call	 __snprintf

; 1022 : 
; 1023 : 	rkNPCMgr.Destroy();

  000f0	8b 8d f8 f7 ff
	ff		 mov	 ecx, DWORD PTR _rkNPCMgr$1$[ebp]
  000f6	83 c4 30	 add	 esp, 48			; 00000030H
  000f9	e8 00 00 00 00	 call	 ?Destroy@CPythonNonPlayer@@QAEXXZ ; CPythonNonPlayer::Destroy

; 1024 : 	rkItemMgr.Destroy();	

  000fe	8b ce		 mov	 ecx, esi
  00100	e8 00 00 00 00	 call	 ?Destroy@CItemManager@@QAEXXZ ; CItemManager::Destroy

; 1025 : 	rkSkillMgr.Destroy();

  00105	8b 8d f4 f7 ff
	ff		 mov	 ecx, DWORD PTR _rkSkillMgr$1$[ebp]
  0010b	e8 00 00 00 00	 call	 ?Destroy@CPythonSkill@@QAEXXZ ; CPythonSkill::Destroy

; 1026 : 
; 1027 : 	if (!rkItemMgr.LoadItemList(szItemList))

  00110	8d 85 fc fd ff
	ff		 lea	 eax, DWORD PTR _szItemList$[ebp]
  00116	8b ce		 mov	 ecx, esi
  00118	50		 push	 eax
  00119	e8 00 00 00 00	 call	 ?LoadItemList@CItemManager@@QAE_NPBD@Z ; CItemManager::LoadItemList
  0011e	84 c0		 test	 al, al
  00120	75 14		 jne	 SHORT $LN5@LoadLocale

; 1028 : 	{
; 1029 : 		TraceError("LoadLocaleData - LoadItemList(%s) Error", szItemList);

  00122	8d 85 fc fd ff
	ff		 lea	 eax, DWORD PTR _szItemList$[ebp]
  00128	50		 push	 eax
  00129	68 00 00 00 00	 push	 OFFSET ??_C@_0CI@MGBDCDJE@LoadLocaleData?5?9?5LoadItemList?$CI?$CF@
  0012e	e8 00 00 00 00	 call	 ?TraceError@@YAXPBDZZ	; TraceError
  00133	83 c4 08	 add	 esp, 8
$LN5@LoadLocale:

; 1030 : 	}	
; 1031 : 
; 1032 : 	if (!rkItemMgr.LoadItemTable(szItemProto))

  00136	8d 85 fc fc ff
	ff		 lea	 eax, DWORD PTR _szItemProto$[ebp]
  0013c	8b ce		 mov	 ecx, esi
  0013e	50		 push	 eax
  0013f	e8 00 00 00 00	 call	 ?LoadItemTable@CItemManager@@QAE_NPBD@Z ; CItemManager::LoadItemTable
  00144	84 c0		 test	 al, al
  00146	75 27		 jne	 SHORT $LN6@LoadLocale

; 1033 : 	{
; 1034 : 		TraceError("LoadLocaleData - LoadItemProto(%s) Error", szItemProto);

  00148	8d 85 fc fc ff
	ff		 lea	 eax, DWORD PTR _szItemProto$[ebp]
  0014e	50		 push	 eax
  0014f	68 00 00 00 00	 push	 OFFSET ??_C@_0CJ@MIFDPICO@LoadLocaleData?5?9?5LoadItemProto?$CI@
  00154	e8 00 00 00 00	 call	 ?TraceError@@YAXPBDZZ	; TraceError
  00159	83 c4 08	 add	 esp, 8

; 1035 : 		return false;

  0015c	32 c0		 xor	 al, al

; 1080 : 		return true;
; 1081 : }

  0015e	5f		 pop	 edi
  0015f	5e		 pop	 esi
  00160	5b		 pop	 ebx
  00161	8b 4d fc	 mov	 ecx, DWORD PTR __$ArrayPad$[ebp]
  00164	33 cd		 xor	 ecx, ebp
  00166	e8 00 00 00 00	 call	 @__security_check_cookie@4
  0016b	8b e5		 mov	 esp, ebp
  0016d	5d		 pop	 ebp
  0016e	c3		 ret	 0
$LN6@LoadLocale:

; 1036 : 	}
; 1037 : 
; 1038 : 	if (!rkItemMgr.LoadItemDesc(szItemDesc))

  0016f	8d 85 fc fb ff
	ff		 lea	 eax, DWORD PTR _szItemDesc$[ebp]
  00175	8b ce		 mov	 ecx, esi
  00177	50		 push	 eax
  00178	e8 00 00 00 00	 call	 ?LoadItemDesc@CItemManager@@QAE_NPBD@Z ; CItemManager::LoadItemDesc
  0017d	84 c0		 test	 al, al
  0017f	75 14		 jne	 SHORT $LN7@LoadLocale

; 1039 : 	{
; 1040 : 		Tracenf("LoadLocaleData - LoadItemDesc(%s) Error", szItemDesc);	

  00181	8d 85 fc fb ff
	ff		 lea	 eax, DWORD PTR _szItemDesc$[ebp]
  00187	50		 push	 eax
  00188	68 00 00 00 00	 push	 OFFSET ??_C@_0CI@FLOPHKEN@LoadLocaleData?5?9?5LoadItemDesc?$CI?$CF@
  0018d	e8 00 00 00 00	 call	 ?Tracenf@@YAXPBDZZ	; Tracenf
  00192	83 c4 08	 add	 esp, 8
$LN7@LoadLocale:

; 1041 : 	}
; 1042 : 
; 1043 : 	if (!rkNPCMgr.LoadNonPlayerData(szMobProto))

  00195	8b 8d f8 f7 ff
	ff		 mov	 ecx, DWORD PTR _rkNPCMgr$1$[ebp]
  0019b	8d 85 fc fe ff
	ff		 lea	 eax, DWORD PTR _szMobProto$[ebp]
  001a1	50		 push	 eax
  001a2	e8 00 00 00 00	 call	 ?LoadNonPlayerData@CPythonNonPlayer@@QAE_NPBD@Z ; CPythonNonPlayer::LoadNonPlayerData
  001a7	84 c0		 test	 al, al
  001a9	75 27		 jne	 SHORT $LN8@LoadLocale

; 1044 : 	{
; 1045 : 		TraceError("LoadLocaleData - LoadMobProto(%s) Error", szMobProto);

  001ab	8d 85 fc fe ff
	ff		 lea	 eax, DWORD PTR _szMobProto$[ebp]
  001b1	50		 push	 eax
  001b2	68 00 00 00 00	 push	 OFFSET ??_C@_0CI@PNCAMHEJ@LoadLocaleData?5?9?5LoadMobProto?$CI?$CF@
  001b7	e8 00 00 00 00	 call	 ?TraceError@@YAXPBDZZ	; TraceError
  001bc	83 c4 08	 add	 esp, 8

; 1046 : 		return false;

  001bf	32 c0		 xor	 al, al

; 1080 : 		return true;
; 1081 : }

  001c1	5f		 pop	 edi
  001c2	5e		 pop	 esi
  001c3	5b		 pop	 ebx
  001c4	8b 4d fc	 mov	 ecx, DWORD PTR __$ArrayPad$[ebp]
  001c7	33 cd		 xor	 ecx, ebp
  001c9	e8 00 00 00 00	 call	 @__security_check_cookie@4
  001ce	8b e5		 mov	 esp, ebp
  001d0	5d		 pop	 ebp
  001d1	c3		 ret	 0
$LN8@LoadLocale:

; 1047 : 	}
; 1048 : 
; 1049 : 	if (!rkSkillMgr.RegisterSkillDesc(szSkillDescFileName))

  001d2	8b b5 f4 f7 ff
	ff		 mov	 esi, DWORD PTR _rkSkillMgr$1$[ebp]
  001d8	8d 85 fc f8 ff
	ff		 lea	 eax, DWORD PTR _szSkillDescFileName$[ebp]
  001de	50		 push	 eax
  001df	8b ce		 mov	 ecx, esi
  001e1	e8 00 00 00 00	 call	 ?RegisterSkillDesc@CPythonSkill@@QAE_NPBD@Z ; CPythonSkill::RegisterSkillDesc
  001e6	84 c0		 test	 al, al
  001e8	75 27		 jne	 SHORT $LN9@LoadLocale

; 1050 : 	{
; 1051 : 		TraceError("LoadLocaleData - RegisterSkillDesc(%s) Error", szMobProto);

  001ea	8d 85 fc fe ff
	ff		 lea	 eax, DWORD PTR _szMobProto$[ebp]
  001f0	50		 push	 eax
  001f1	68 00 00 00 00	 push	 OFFSET ??_C@_0CN@NIKOAAJF@LoadLocaleData?5?9?5RegisterSkillD@
  001f6	e8 00 00 00 00	 call	 ?TraceError@@YAXPBDZZ	; TraceError
  001fb	83 c4 08	 add	 esp, 8

; 1052 : 		return false;

  001fe	32 c0		 xor	 al, al

; 1080 : 		return true;
; 1081 : }

  00200	5f		 pop	 edi
  00201	5e		 pop	 esi
  00202	5b		 pop	 ebx
  00203	8b 4d fc	 mov	 ecx, DWORD PTR __$ArrayPad$[ebp]
  00206	33 cd		 xor	 ecx, ebp
  00208	e8 00 00 00 00	 call	 @__security_check_cookie@4
  0020d	8b e5		 mov	 esp, ebp
  0020f	5d		 pop	 ebp
  00210	c3		 ret	 0
$LN9@LoadLocale:

; 1053 : 	}
; 1054 : 
; 1055 : 	if (!rkSkillMgr.RegisterSkillTable(szSkillTableFileName))

  00211	8d 85 fc f7 ff
	ff		 lea	 eax, DWORD PTR _szSkillTableFileName$[ebp]
  00217	8b ce		 mov	 ecx, esi
  00219	50		 push	 eax
  0021a	e8 00 00 00 00	 call	 ?RegisterSkillTable@CPythonSkill@@QAE_NPBD@Z ; CPythonSkill::RegisterSkillTable
  0021f	84 c0		 test	 al, al
  00221	75 27		 jne	 SHORT $LN10@LoadLocale

; 1056 : 	{
; 1057 : 		TraceError("LoadLocaleData - RegisterSkillTable(%s) Error", szMobProto);

  00223	8d 85 fc fe ff
	ff		 lea	 eax, DWORD PTR _szMobProto$[ebp]
  00229	50		 push	 eax
  0022a	68 00 00 00 00	 push	 OFFSET ??_C@_0CO@HCDPLHIO@LoadLocaleData?5?9?5RegisterSkillT@
  0022f	e8 00 00 00 00	 call	 ?TraceError@@YAXPBDZZ	; TraceError
  00234	83 c4 08	 add	 esp, 8

; 1058 : 		return false;

  00237	32 c0		 xor	 al, al

; 1080 : 		return true;
; 1081 : }

  00239	5f		 pop	 edi
  0023a	5e		 pop	 esi
  0023b	5b		 pop	 ebx
  0023c	8b 4d fc	 mov	 ecx, DWORD PTR __$ArrayPad$[ebp]
  0023f	33 cd		 xor	 ecx, ebp
  00241	e8 00 00 00 00	 call	 @__security_check_cookie@4
  00246	8b e5		 mov	 esp, ebp
  00248	5d		 pop	 ebp
  00249	c3		 ret	 0
$LN10@LoadLocale:

; 1059 : 	}
; 1060 : 
; 1061 : 	if (!rkNetStream.LoadInsultList(szInsultList))

  0024a	8d 85 fc fa ff
	ff		 lea	 eax, DWORD PTR _szInsultList$[ebp]
  00250	8b cf		 mov	 ecx, edi
  00252	50		 push	 eax
  00253	e8 00 00 00 00	 call	 ?LoadInsultList@CPythonNetworkStream@@QAE_NPBD@Z ; CPythonNetworkStream::LoadInsultList
  00258	84 c0		 test	 al, al
  0025a	75 14		 jne	 SHORT $LN11@LoadLocale

; 1062 : 	{
; 1063 : 		Tracenf("CPythonApplication - CPythonNetworkStream::LoadInsultList(%s)", szInsultList);				

  0025c	8d 85 fc fa ff
	ff		 lea	 eax, DWORD PTR _szInsultList$[ebp]
  00262	50		 push	 eax
  00263	68 00 00 00 00	 push	 OFFSET ??_C@_0DO@PNDPPMDH@CPythonApplication?5?9?5CPythonNet@
  00268	e8 00 00 00 00	 call	 ?Tracenf@@YAXPBDZZ	; Tracenf
  0026d	83 c4 08	 add	 esp, 8
$LN11@LoadLocale:

; 1064 : 	}
; 1065 : 
; 1066 : 	if (LocaleService_IsYMIR())

  00270	e8 00 00 00 00	 call	 ?LocaleService_IsYMIR@@YA_NXZ ; LocaleService_IsYMIR
  00275	84 c0		 test	 al, al
  00277	74 4b		 je	 SHORT $LN3@LoadLocale

; 1067 : 	{	
; 1068 : 		char szEmpireTextConvFile[256];
; 1069 : 		for (DWORD dwEmpireID=1; dwEmpireID<=3; ++dwEmpireID)

  00279	be 01 00 00 00	 mov	 esi, 1
  0027e	66 90		 npad	 2
$LL4@LoadLocale:

; 1070 : 		{			
; 1071 : 			sprintf(szEmpireTextConvFile, "%s/lang%d.cvt", localePath, dwEmpireID);

  00280	56		 push	 esi
  00281	53		 push	 ebx
  00282	8d 85 fc f9 ff
	ff		 lea	 eax, DWORD PTR _szEmpireTextConvFile$1[ebp]
  00288	68 00 00 00 00	 push	 OFFSET ??_C@_0O@GCNBGGIE@?$CFs?1lang?$CFd?4cvt@
  0028d	50		 push	 eax
  0028e	e8 00 00 00 00	 call	 _sprintf
  00293	83 c4 10	 add	 esp, 16			; 00000010H

; 1072 : 			if (!rkNetStream.LoadConvertTable(dwEmpireID, szEmpireTextConvFile))

  00296	8d 85 fc f9 ff
	ff		 lea	 eax, DWORD PTR _szEmpireTextConvFile$1[ebp]
  0029c	8b cf		 mov	 ecx, edi
  0029e	50		 push	 eax
  0029f	56		 push	 esi
  002a0	e8 00 00 00 00	 call	 ?LoadConvertTable@CPythonNetworkStream@@QAE_NKPBD@Z ; CPythonNetworkStream::LoadConvertTable
  002a5	84 c0		 test	 al, al
  002a7	75 15		 jne	 SHORT $LN2@LoadLocale

; 1073 : 			{
; 1074 : 				TraceError("LoadLocaleData - CPythonNetworkStream::LoadConvertTable(%d, %s) FAILURE", dwEmpireID, szEmpireTextConvFile);			

  002a9	8d 85 fc f9 ff
	ff		 lea	 eax, DWORD PTR _szEmpireTextConvFile$1[ebp]
  002af	50		 push	 eax
  002b0	56		 push	 esi
  002b1	68 00 00 00 00	 push	 OFFSET ??_C@_0EI@FFMLHANM@LoadLocaleData?5?9?5CPythonNetwork@
  002b6	e8 00 00 00 00	 call	 ?TraceError@@YAXPBDZZ	; TraceError
  002bb	83 c4 0c	 add	 esp, 12			; 0000000cH
$LN2@LoadLocale:

; 1067 : 	{	
; 1068 : 		char szEmpireTextConvFile[256];
; 1069 : 		for (DWORD dwEmpireID=1; dwEmpireID<=3; ++dwEmpireID)

  002be	46		 inc	 esi
  002bf	83 fe 03	 cmp	 esi, 3
  002c2	76 bc		 jbe	 SHORT $LL4@LoadLocale
$LN3@LoadLocale:

; 1075 : 			}
; 1076 : 		}
; 1077 : 	}
; 1078 : 
; 1079 : 	NANOEND

  002c4	eb		 DB	 -21			; ffffffebH
  002c5	03		 DB	 3
  002c6	d6		 DB	 -42			; ffffffd6H
  002c7	d7		 DB	 -41			; ffffffd7H
  002c8	00		 DB	 0

; 1080 : 		return true;
; 1081 : }

  002c9	8b 4d fc	 mov	 ecx, DWORD PTR __$ArrayPad$[ebp]
  002cc	b0 01		 mov	 al, 1
  002ce	33 cd		 xor	 ecx, ebp
  002d0	5f		 pop	 edi
  002d1	5e		 pop	 esi
  002d2	5b		 pop	 ebx
  002d3	e8 00 00 00 00	 call	 @__security_check_cookie@4
  002d8	8b e5		 mov	 esp, ebp
  002da	5d		 pop	 ebp
  002db	c3		 ret	 0
?LoadLocaleData@@YA_NPBD@Z ENDP				; LoadLocaleData
_TEXT	ENDS
; Function compile flags: /Ogtp
;	COMDAT ??_GCPythonApplication@@UAEPAXI@Z
_TEXT	SEGMENT
___flags$ = 8						; size = 4
??_GCPythonApplication@@UAEPAXI@Z PROC			; CPythonApplication::`scalar deleting destructor', COMDAT
; _this$ = ecx
  00000	55		 push	 ebp
  00001	8b ec		 mov	 ebp, esp
  00003	56		 push	 esi
  00004	8b f1		 mov	 esi, ecx
  00006	e8 00 00 00 00	 call	 ??1CPythonApplication@@UAE@XZ ; CPythonApplication::~CPythonApplication
  0000b	f6 45 08 01	 test	 BYTE PTR ___flags$[ebp], 1
  0000f	74 0e		 je	 SHORT $LN4@scalar
  00011	68 a8 ee 01 00	 push	 126632			; 0001eea8H
  00016	56		 push	 esi
  00017	e8 00 00 00 00	 call	 ??3@YAXPAXI@Z		; operator delete
  0001c	83 c4 08	 add	 esp, 8
$LN4@scalar:
  0001f	8b c6		 mov	 eax, esi
  00021	5e		 pop	 esi
  00022	5d		 pop	 ebp
  00023	c2 04 00	 ret	 4
??_GCPythonApplication@@UAEPAXI@Z ENDP			; CPythonApplication::`scalar deleting destructor'
_TEXT	ENDS
; Function compile flags: /Ogtp
;	COMDAT ??1?$map@HPAXU?$less@H@std@@V?$allocator@U?$pair@$$CBHPAX@std@@@2@@std@@QAE@XZ
_TEXT	SEGMENT
??1?$map@HPAXU?$less@H@std@@V?$allocator@U?$pair@$$CBHPAX@std@@@2@@std@@QAE@XZ PROC ; std::map<int,void *,std::less<int>,std::allocator<std::pair<int const ,void *> > >::~map<int,void *,std::less<int>,std::allocator<std::pair<int const ,void *> > >, COMDAT
; _this$ = ecx
  00000	e9 00 00 00 00	 jmp	 ??1?$_Tree@V?$_Tmap_traits@HPAXU?$less@H@std@@V?$allocator@U?$pair@$$CBHPAX@std@@@2@$0A@@std@@@std@@QAE@XZ ; std::_Tree<std::_Tmap_traits<int,void *,std::less<int>,std::allocator<std::pair<int const ,void *> >,0> >::~_Tree<std::_Tmap_traits<int,void *,std::less<int>,std::allocator<std::pair<int const ,void *> >,0> >
??1?$map@HPAXU?$less@H@std@@V?$allocator@U?$pair@$$CBHPAX@std@@@2@@std@@QAE@XZ ENDP ; std::map<int,void *,std::less<int>,std::allocator<std::pair<int const ,void *> > >::~map<int,void *,std::less<int>,std::allocator<std::pair<int const ,void *> > >
_TEXT	ENDS
; Function compile flags: /Ogtp
; File C:\Program Files (x86)\Microsoft Visual Studio\2019\Community\VC\Tools\MSVC\14.28.29333\include\xtree
; File C:\Program Files (x86)\Microsoft Visual Studio\2019\Community\VC\Tools\MSVC\14.28.29333\include\utility
; File C:\Program Files (x86)\Microsoft Visual Studio\2019\Community\VC\Tools\MSVC\14.28.29333\include\xmemory
; File C:\Program Files (x86)\Microsoft Visual Studio\2019\Community\VC\Tools\MSVC\14.28.29333\include\xtree
; File C:\Program Files (x86)\Microsoft Visual Studio\2019\Community\VC\Tools\MSVC\14.28.29333\include\xmemory
; File C:\Program Files (x86)\Microsoft Visual Studio\2019\Community\VC\Tools\MSVC\14.28.29333\include\xtree
;	COMDAT ??1?$_Tree@V?$_Tmap_traits@HPAXU?$less@H@std@@V?$allocator@U?$pair@$$CBHPAX@std@@@2@$0A@@std@@@std@@QAE@XZ
_TEXT	SEGMENT
??1?$_Tree@V?$_Tmap_traits@HPAXU?$less@H@std@@V?$allocator@U?$pair@$$CBHPAX@std@@@2@$0A@@std@@@std@@QAE@XZ PROC ; std::_Tree<std::_Tmap_traits<int,void *,std::less<int>,std::allocator<std::pair<int const ,void *> >,0> >::~_Tree<std::_Tmap_traits<int,void *,std::less<int>,std::allocator<std::pair<int const ,void *> >,0> >, COMDAT
; _this$ = ecx

; 1189 :     ~_Tree() noexcept {

  00000	56		 push	 esi
  00001	57		 push	 edi
  00002	8b f9		 mov	 edi, ecx

; 752  :         _Erase_tree(_Al, _Myhead->_Parent);

  00004	8b 07		 mov	 eax, DWORD PTR [edi]
  00006	8b 70 04	 mov	 esi, DWORD PTR [eax+4]

; 743  :         while (!_Rootnode->_Isnil) { // free subtrees, then node

  00009	80 7e 0d 00	 cmp	 BYTE PTR [esi+13], 0
  0000d	75 23		 jne	 SHORT $LN7@Tree
  0000f	90		 npad	 1
$LL6@Tree:

; 744  :             _Erase_tree(_Al, _Rootnode->_Right);

  00010	ff 76 08	 push	 DWORD PTR [esi+8]
  00013	8b cf		 mov	 ecx, edi
  00015	57		 push	 edi
  00016	e8 00 00 00 00	 call	 ??$_Erase_tree@V?$allocator@U?$_Tree_node@U?$pair@$$CBHPAX@std@@PAX@std@@@std@@@?$_Tree_val@U?$_Tree_simple_types@U?$pair@$$CBHPAX@std@@@std@@@std@@QAEXAAV?$allocator@U?$_Tree_node@U?$pair@$$CBHPAX@std@@PAX@std@@@1@PAU?$_Tree_node@U?$pair@$$CBHPAX@std@@PAX@1@@Z ; std::_Tree_val<std::_Tree_simple_types<std::pair<int const ,void *> > >::_Erase_tree<std::allocator<std::_Tree_node<std::pair<int const ,void *>,void *> > >
; File C:\Program Files (x86)\Microsoft Visual Studio\2019\Community\VC\Tools\MSVC\14.28.29333\include\utility

; 598  :     _Ty _Old_val = static_cast<_Ty&&>(_Val);

  0001b	8b c6		 mov	 eax, esi

; 599  :     _Val         = static_cast<_Other&&>(_New_val);

  0001d	8b 36		 mov	 esi, DWORD PTR [esi]
; File C:\Program Files (x86)\Microsoft Visual Studio\2019\Community\VC\Tools\MSVC\14.28.29333\include\xmemory

; 696  :         _Deallocate<_New_alignof<value_type>>(_Ptr, sizeof(value_type) * _Count);

  0001f	6a 18		 push	 24			; 00000018H
  00021	50		 push	 eax
  00022	e8 00 00 00 00	 call	 ??$_Deallocate@$07$0A@@std@@YAXPAXI@Z ; std::_Deallocate<8,0>
  00027	83 c4 08	 add	 esp, 8
; File C:\Program Files (x86)\Microsoft Visual Studio\2019\Community\VC\Tools\MSVC\14.28.29333\include\xtree

; 743  :         while (!_Rootnode->_Isnil) { // free subtrees, then node

  0002a	80 7e 0d 00	 cmp	 BYTE PTR [esi+13], 0
  0002e	74 e0		 je	 SHORT $LL6@Tree
  00030	8b 07		 mov	 eax, DWORD PTR [edi]
$LN7@Tree:
; File C:\Program Files (x86)\Microsoft Visual Studio\2019\Community\VC\Tools\MSVC\14.28.29333\include\xmemory

; 696  :         _Deallocate<_New_alignof<value_type>>(_Ptr, sizeof(value_type) * _Count);

  00032	6a 18		 push	 24			; 00000018H
  00034	50		 push	 eax
  00035	e8 00 00 00 00	 call	 ??$_Deallocate@$07$0A@@std@@YAXPAXI@Z ; std::_Deallocate<8,0>
  0003a	83 c4 08	 add	 esp, 8
  0003d	5f		 pop	 edi
  0003e	5e		 pop	 esi
; File C:\Program Files (x86)\Microsoft Visual Studio\2019\Community\VC\Tools\MSVC\14.28.29333\include\xtree

; 1196 :     }

  0003f	c3		 ret	 0
??1?$_Tree@V?$_Tmap_traits@HPAXU?$less@H@std@@V?$allocator@U?$pair@$$CBHPAX@std@@@2@$0A@@std@@@std@@QAE@XZ ENDP ; std::_Tree<std::_Tmap_traits<int,void *,std::less<int>,std::allocator<std::pair<int const ,void *> >,0> >::~_Tree<std::_Tmap_traits<int,void *,std::less<int>,std::allocator<std::pair<int const ,void *> >,0> >
_TEXT	ENDS
; Function compile flags: /Ogtp
; File D:\Metin2 Server Files\mainline\SRC_2014\Metin2Client\UserInterface\PythonApplication.cpp
;	COMDAT ?CheckDeviceState@CPythonApplication@@IAEHXZ
_TEXT	SEGMENT
?CheckDeviceState@CPythonApplication@@IAEHXZ PROC	; CPythonApplication::CheckDeviceState, COMDAT
; _this$ = ecx

; 877  : {

  00000	56		 push	 esi

; 878  : 	CGraphicDevice::EDeviceState e_deviceState = m_grpDevice.GetDeviceState();

  00001	8d b1 2c c6 01
	00		 lea	 esi, DWORD PTR [ecx+116268]
  00007	8b ce		 mov	 ecx, esi
  00009	e8 00 00 00 00	 call	 ?GetDeviceState@CGraphicDevice@@QAE?AW4EDeviceState@1@XZ ; CGraphicDevice::GetDeviceState

; 879  : 
; 880  : 	switch (e_deviceState)

  0000e	83 e8 01	 sub	 eax, 1
  00011	74 1e		 je	 SHORT $LN5@CheckDevic
  00013	83 e8 01	 sub	 eax, 1
  00016	74 07		 je	 SHORT $LN6@CheckDevic
  00018	83 e8 01	 sub	 eax, 1
  0001b	75 0d		 jne	 SHORT $LN7@CheckDevic
  0001d	5e		 pop	 esi

; 899  : }

  0001e	c3		 ret	 0
$LN6@CheckDevic:

; 890  : 
; 891  : 	case CGraphicDevice::DEVICESTATE_NEEDS_RESET:
; 892  : 		if (!m_grpDevice.Reset())

  0001f	8b ce		 mov	 ecx, esi
  00021	e8 00 00 00 00	 call	 ?Reset@CGraphicDevice@@QAE_NXZ ; CGraphicDevice::Reset
  00026	84 c0		 test	 al, al
  00028	74 07		 je	 SHORT $LN5@CheckDevic
$LN7@CheckDevic:

; 893  : 			return DEVICE_STATE_SKIP;
; 894  : 
; 895  : 		break;
; 896  : 	}
; 897  : 
; 898  : 	return DEVICE_STATE_OK;

  0002a	b8 02 00 00 00	 mov	 eax, 2
  0002f	5e		 pop	 esi

; 899  : }

  00030	c3		 ret	 0
$LN5@CheckDevic:

; 881  : 	{
; 882  : 		//      .
; 883  : 	case CGraphicDevice::DEVICESTATE_NULL:
; 884  : 		return DEVICE_STATE_FALSE;
; 885  : 
; 886  : 		// DEVICESTATE_BROKEN         .
; 887  : 		//    DrawPrimitive     .
; 888  : 	case CGraphicDevice::DEVICESTATE_BROKEN:
; 889  : 		return DEVICE_STATE_SKIP;

  00031	b8 01 00 00 00	 mov	 eax, 1
  00036	5e		 pop	 esi

; 899  : }

  00037	c3		 ret	 0
?CheckDeviceState@CPythonApplication@@IAEHXZ ENDP	; CPythonApplication::CheckDeviceState
_TEXT	ENDS
; Function compile flags: /Ogtp
; File D:\Metin2 Server Files\mainline\SRC_2014\Metin2Client\UserInterface\PythonApplication.cpp
;	COMDAT ?SetForceSightRange@CPythonApplication@@QAEXH@Z
_TEXT	SEGMENT
_iRange$ = 8						; size = 4
?SetForceSightRange@CPythonApplication@@QAEXH@Z PROC	; CPythonApplication::SetForceSightRange, COMDAT
; _this$ = ecx

; 1373 : {

  00000	55		 push	 ebp
  00001	8b ec		 mov	 ebp, esp

; 1374 : 	m_iForceSightRange = iRange;

  00003	8b 45 08	 mov	 eax, DWORD PTR _iRange$[ebp]
  00006	89 81 98 ee 01
	00		 mov	 DWORD PTR [ecx+126616], eax

; 1375 : }

  0000c	5d		 pop	 ebp
  0000d	c2 04 00	 ret	 4
?SetForceSightRange@CPythonApplication@@QAEXH@Z ENDP	; CPythonApplication::SetForceSightRange
_TEXT	ENDS
; Function compile flags: /Ogtp
; File D:\Metin2 Server Files\mainline\SRC_2014\Metin2Client\UserInterface\PythonApplication.cpp
;	COMDAT ?SetCameraSpeed@CPythonApplication@@QAEXH@Z
_TEXT	SEGMENT
_iPercentage$ = 8					; size = 4
?SetCameraSpeed@CPythonApplication@@QAEXH@Z PROC	; CPythonApplication::SetCameraSpeed, COMDAT
; _this$ = ecx

; 1366 : {

  00000	55		 push	 ebp
  00001	8b ec		 mov	 ebp, esp
  00003	66 0f 6e 55 08	 movd	 xmm2, DWORD PTR _iPercentage$[ebp]

; 1367 : 	m_fCameraRotateSpeed = c_fDefaultCameraRotateSpeed * float(iPercentage) / 100.0f;

  00008	f3 0f 10 0d 00
	00 00 00	 movss	 xmm1, DWORD PTR __real@42c80000
  00010	0f 5b d2	 cvtdq2ps xmm2, xmm2
  00013	0f 28 c2	 movaps	 xmm0, xmm2
  00016	f3 0f 59 05 00
	00 00 00	 mulss	 xmm0, DWORD PTR ?c_fDefaultCameraRotateSpeed@@3MA
  0001e	f3 0f 5e c1	 divss	 xmm0, xmm1
  00022	f3 0f 11 81 00
	ee 01 00	 movss	 DWORD PTR [ecx+126464], xmm0

; 1368 : 	m_fCameraPitchSpeed = c_fDefaultCameraPitchSpeed * float(iPercentage) / 100.0f;

  0002a	0f 28 c2	 movaps	 xmm0, xmm2
  0002d	f3 0f 59 05 00
	00 00 00	 mulss	 xmm0, DWORD PTR ?c_fDefaultCameraPitchSpeed@@3MA
  00035	f3 0f 5e c1	 divss	 xmm0, xmm1
  00039	f3 0f 11 81 04
	ee 01 00	 movss	 DWORD PTR [ecx+126468], xmm0

; 1369 : 	m_fCameraZoomSpeed = c_fDefaultCameraZoomSpeed * float(iPercentage) / 100.0f;

  00041	f3 0f 59 15 00
	00 00 00	 mulss	 xmm2, DWORD PTR ?c_fDefaultCameraZoomSpeed@@3MA
  00049	f3 0f 5e d1	 divss	 xmm2, xmm1
  0004d	f3 0f 11 91 08
	ee 01 00	 movss	 DWORD PTR [ecx+126472], xmm2

; 1370 : }

  00055	5d		 pop	 ebp
  00056	c2 04 00	 ret	 4
?SetCameraSpeed@CPythonApplication@@QAEXH@Z ENDP	; CPythonApplication::SetCameraSpeed
_TEXT	ENDS
; Function compile flags: /Ogtp
; File D:\Metin2 Server Files\mainline\SRC_2014\Metin2Client\UserInterface\PythonApplication.cpp
;	COMDAT ?EnableSpecialCameraMode@CPythonApplication@@QAEXXZ
_TEXT	SEGMENT
?EnableSpecialCameraMode@CPythonApplication@@QAEXXZ PROC ; CPythonApplication::EnableSpecialCameraMode, COMDAT
; _this$ = ecx

; 1362 : 	m_isSpecialCameraMode = TRUE;

  00000	c7 81 24 ee 01
	00 01 00 00 00	 mov	 DWORD PTR [ecx+126500], 1

; 1363 : }

  0000a	c3		 ret	 0
?EnableSpecialCameraMode@CPythonApplication@@QAEXXZ ENDP ; CPythonApplication::EnableSpecialCameraMode
_TEXT	ENDS
; Function compile flags: /Ogtp
; File D:\Metin2 Server Files\mainline\SRC_2014\Metin2Client\UserInterface\PythonApplication.cpp
; File C:\Program Files (x86)\Microsoft Visual Studio\2019\Community\VC\Tools\MSVC\14.28.29333\include\xstring
; File D:\Metin2 Server Files\mainline\SRC_2014\Metin2Client\UserInterface\PythonApplication.cpp
; File C:\Program Files (x86)\Microsoft Visual Studio\2019\Community\VC\Tools\MSVC\14.28.29333\include\xstring
; File D:\Metin2 Server Files\mainline\SRC_2014\Metin2Client\UserInterface\PythonApplication.cpp
;	COMDAT ?GetConnectData@CPythonApplication@@QAEXAAV?$basic_string@DU?$char_traits@D@std@@V?$allocator@D@2@@std@@AAH@Z
_TEXT	SEGMENT
_rstIP$ = 8						; size = 4
_riPort$ = 12						; size = 4
?GetConnectData@CPythonApplication@@QAEXAAV?$basic_string@DU?$char_traits@D@std@@V?$allocator@D@2@@std@@AAH@Z PROC ; CPythonApplication::GetConnectData, COMDAT
; _this$ = ecx

; 1355 : {

  00000	55		 push	 ebp
  00001	8b ec		 mov	 ebp, esp
  00003	56		 push	 esi
  00004	8b f1		 mov	 esi, ecx
; File C:\Program Files (x86)\Microsoft Visual Studio\2019\Community\VC\Tools\MSVC\14.28.29333\include\xstring

; 2863 :         if (this != _STD addressof(_Right)) {

  00006	8b 4d 08	 mov	 ecx, DWORD PTR _rstIP$[ebp]
; File D:\Metin2 Server Files\mainline\SRC_2014\Metin2Client\UserInterface\PythonApplication.cpp

; 1356 : 	rstIP	= m_strIP;

  00009	8d 86 6c ee 01
	00		 lea	 eax, DWORD PTR [esi+126572]
; File C:\Program Files (x86)\Microsoft Visual Studio\2019\Community\VC\Tools\MSVC\14.28.29333\include\xstring

; 2863 :         if (this != _STD addressof(_Right)) {

  0000f	3b c8		 cmp	 ecx, eax
  00011	74 13		 je	 SHORT $LN13@GetConnect

; 2227 :         return _BUF_SIZE <= _Myres;

  00013	83 78 14 10	 cmp	 DWORD PTR [eax+20], 16	; 00000010H

; 2218 :         const value_type* _Result = _Bx._Buf;

  00017	8b d0		 mov	 edx, eax

; 2219 :         if (_Large_string_engaged()) {

  00019	72 02		 jb	 SHORT $LN9@GetConnect

; 2220 :             _Result = _Unfancy(_Bx._Ptr);

  0001b	8b 10		 mov	 edx, DWORD PTR [eax]
$LN9@GetConnect:

; 2828 :         assign(_Right._Mypair._Myval2._Myptr(), _Right._Mypair._Myval2._Mysize);

  0001d	ff 70 10	 push	 DWORD PTR [eax+16]
  00020	52		 push	 edx
  00021	e8 00 00 00 00	 call	 ?assign@?$basic_string@DU?$char_traits@D@std@@V?$allocator@D@2@@std@@QAEAAV12@QBDI@Z ; std::basic_string<char,std::char_traits<char>,std::allocator<char> >::assign
$LN13@GetConnect:
; File D:\Metin2 Server Files\mainline\SRC_2014\Metin2Client\UserInterface\PythonApplication.cpp

; 1358 : }

  00026	8b 45 0c	 mov	 eax, DWORD PTR _riPort$[ebp]
  00029	8b 8e 84 ee 01
	00		 mov	 ecx, DWORD PTR [esi+126596]
  0002f	5e		 pop	 esi
  00030	89 08		 mov	 DWORD PTR [eax], ecx
  00032	5d		 pop	 ebp
  00033	c2 08 00	 ret	 8
?GetConnectData@CPythonApplication@@QAEXAAV?$basic_string@DU?$char_traits@D@std@@V?$allocator@D@2@@std@@AAH@Z ENDP ; CPythonApplication::GetConnectData
_TEXT	ENDS
; Function compile flags: /Ogtp
; File D:\Metin2 Server Files\mainline\SRC_2014\Metin2Client\UserInterface\PythonApplication.cpp
; File C:\Program Files (x86)\Microsoft Visual Studio\2019\Community\VC\Tools\MSVC\14.28.29333\include\xstring
; File D:\Metin2 Server Files\mainline\SRC_2014\Metin2Client\UserInterface\PythonApplication.cpp
; File C:\Program Files (x86)\Microsoft Visual Studio\2019\Community\VC\Tools\MSVC\14.28.29333\include\xstring
; File D:\Metin2 Server Files\mainline\SRC_2014\Metin2Client\UserInterface\PythonApplication.cpp
; File C:\Program Files (x86)\Microsoft Visual Studio\2019\Community\VC\Tools\MSVC\14.28.29333\include\xstring
; File D:\Metin2 Server Files\mainline\SRC_2014\Metin2Client\UserInterface\PythonApplication.cpp
;	COMDAT ?SetConnectData@CPythonApplication@@QAEXPBDH@Z
_TEXT	SEGMENT
_c_szIP$ = 8						; size = 4
_iPort$ = 12						; size = 4
?SetConnectData@CPythonApplication@@QAEXPBDH@Z PROC	; CPythonApplication::SetConnectData, COMDAT
; _this$ = ecx

; 1349 : {

  00000	55		 push	 ebp
  00001	8b ec		 mov	 ebp, esp
; File C:\Program Files (x86)\Microsoft Visual Studio\2019\Community\VC\Tools\MSVC\14.28.29333\include\xstring

; 389  :         return _CSTD strlen(reinterpret_cast<const char*>(_First));

  00003	8b 55 08	 mov	 edx, DWORD PTR _c_szIP$[ebp]
  00006	8b c2		 mov	 eax, edx
; File D:\Metin2 Server Files\mainline\SRC_2014\Metin2Client\UserInterface\PythonApplication.cpp

; 1349 : {

  00008	56		 push	 esi
  00009	57		 push	 edi
  0000a	8b f1		 mov	 esi, ecx
; File C:\Program Files (x86)\Microsoft Visual Studio\2019\Community\VC\Tools\MSVC\14.28.29333\include\xstring

; 389  :         return _CSTD strlen(reinterpret_cast<const char*>(_First));

  0000c	8d 78 01	 lea	 edi, DWORD PTR [eax+1]
  0000f	90		 npad	 1
$LL9@SetConnect:
  00010	8a 08		 mov	 cl, BYTE PTR [eax]
  00012	40		 inc	 eax
  00013	84 c9		 test	 cl, cl
  00015	75 f9		 jne	 SHORT $LL9@SetConnect
  00017	2b c7		 sub	 eax, edi
; File D:\Metin2 Server Files\mainline\SRC_2014\Metin2Client\UserInterface\PythonApplication.cpp

; 1350 : 	m_strIP = c_szIP;

  00019	8d 8e 6c ee 01
	00		 lea	 ecx, DWORD PTR [esi+126572]
; File C:\Program Files (x86)\Microsoft Visual Studio\2019\Community\VC\Tools\MSVC\14.28.29333\include\xstring

; 3062 :         return assign(_Ptr, _Convert_size<size_type>(_Traits::length(_Ptr)));

  0001f	50		 push	 eax
  00020	52		 push	 edx
  00021	e8 00 00 00 00	 call	 ?assign@?$basic_string@DU?$char_traits@D@std@@V?$allocator@D@2@@std@@QAEAAV12@QBDI@Z ; std::basic_string<char,std::char_traits<char>,std::allocator<char> >::assign
; File D:\Metin2 Server Files\mainline\SRC_2014\Metin2Client\UserInterface\PythonApplication.cpp

; 1351 : 	m_iPort = iPort;

  00026	8b 45 0c	 mov	 eax, DWORD PTR _iPort$[ebp]
  00029	5f		 pop	 edi
  0002a	89 86 84 ee 01
	00		 mov	 DWORD PTR [esi+126596], eax
  00030	5e		 pop	 esi

; 1352 : }

  00031	5d		 pop	 ebp
  00032	c2 08 00	 ret	 8
?SetConnectData@CPythonApplication@@QAEXPBDH@Z ENDP	; CPythonApplication::SetConnectData
_TEXT	ENDS
; Function compile flags: /Ogtp
; File D:\Metin2 Server Files\mainline\SRC_2014\Metin2Client\UserInterface\PythonApplication.cpp
;	COMDAT ?GetGlobalElapsedTime@CPythonApplication@@UAEMXZ
_TEXT	SEGMENT
?GetGlobalElapsedTime@CPythonApplication@@UAEMXZ PROC	; CPythonApplication::GetGlobalElapsedTime, COMDAT
; _this$ = ecx

; 1330 : 	return m_fGlobalElapsedTime;

  00000	d9 81 58 ed 01
	00		 fld	 DWORD PTR [ecx+126296]

; 1331 : }

  00006	c3		 ret	 0
?GetGlobalElapsedTime@CPythonApplication@@UAEMXZ ENDP	; CPythonApplication::GetGlobalElapsedTime
_TEXT	ENDS
; Function compile flags: /Ogtp
; File D:\Metin2 Server Files\mainline\SRC_2014\Metin2Client\UserInterface\PythonApplication.cpp
;	COMDAT ?GetGlobalTime@CPythonApplication@@UAEMXZ
_TEXT	SEGMENT
?GetGlobalTime@CPythonApplication@@UAEMXZ PROC		; CPythonApplication::GetGlobalTime, COMDAT
; _this$ = ecx

; 1325 : 	return m_fGlobalTime;

  00000	d9 81 54 ed 01
	00		 fld	 DWORD PTR [ecx+126292]

; 1326 : }

  00006	c3		 ret	 0
?GetGlobalTime@CPythonApplication@@UAEMXZ ENDP		; CPythonApplication::GetGlobalTime
_TEXT	ENDS
; Function compile flags: /Ogtp
; File D:\Metin2 Server Files\mainline\SRC_2014\Metin2Client\UserInterface\PythonApplication.cpp
; File C:\Program Files (x86)\Windows Kits\10\Include\10.0.18362.0\ucrt\time.h
; File D:\Metin2 Server Files\mainline\SRC_2014\Metin2Client\UserInterface\PythonApplication.cpp
; File C:\Program Files (x86)\Windows Kits\10\Include\10.0.18362.0\ucrt\time.h
; File D:\Metin2 Server Files\mainline\SRC_2014\Metin2Client\UserInterface\PythonApplication.cpp
; File C:\Program Files (x86)\Windows Kits\10\Include\10.0.18362.0\ucrt\time.h
; File D:\Metin2 Server Files\mainline\SRC_2014\Metin2Client\UserInterface\PythonApplication.cpp
;	COMDAT ?GetServerTimeStamp@CPythonApplication@@QAEJXZ
_TEXT	SEGMENT
?GetServerTimeStamp@CPythonApplication@@QAEJXZ PROC	; CPythonApplication::GetServerTimeStamp, COMDAT
; _this$ = ecx

; 1319 : {

  00000	56		 push	 esi
; File C:\Program Files (x86)\Windows Kits\10\Include\10.0.18362.0\ucrt\time.h

; 431  :             return _time32(_Time);

  00001	6a 00		 push	 0
; File D:\Metin2 Server Files\mainline\SRC_2014\Metin2Client\UserInterface\PythonApplication.cpp

; 1319 : {

  00003	8b f1		 mov	 esi, ecx
; File C:\Program Files (x86)\Windows Kits\10\Include\10.0.18362.0\ucrt\time.h

; 431  :             return _time32(_Time);

  00005	e8 00 00 00 00	 call	 __time32
; File D:\Metin2 Server Files\mainline\SRC_2014\Metin2Client\UserInterface\PythonApplication.cpp

; 1320 : 	return (time(0) - m_tLocalStartTime) + m_tServerTime;

  0000a	8b 96 6c ed 01
	00		 mov	 edx, DWORD PTR [esi+126316]
; File C:\Program Files (x86)\Windows Kits\10\Include\10.0.18362.0\ucrt\time.h

; 431  :             return _time32(_Time);

  00010	83 c4 04	 add	 esp, 4
; File D:\Metin2 Server Files\mainline\SRC_2014\Metin2Client\UserInterface\PythonApplication.cpp

; 1320 : 	return (time(0) - m_tLocalStartTime) + m_tServerTime;

  00013	2b 96 70 ed 01
	00		 sub	 edx, DWORD PTR [esi+126320]
  00019	03 c2		 add	 eax, edx
  0001b	5e		 pop	 esi

; 1321 : }

  0001c	c3		 ret	 0
?GetServerTimeStamp@CPythonApplication@@QAEJXZ ENDP	; CPythonApplication::GetServerTimeStamp
_TEXT	ENDS
; Function compile flags: /Ogtp
; File D:\Metin2 Server Files\mainline\SRC_2014\Metin2Client\UserInterface\PythonApplication.cpp
;	COMDAT ?GetServerTime@CPythonApplication@@QAEJXZ
_TEXT	SEGMENT
?GetServerTime@CPythonApplication@@QAEJXZ PROC		; CPythonApplication::GetServerTime, COMDAT
; _this$ = ecx

; 1312 : {

  00000	56		 push	 esi
  00001	8b f1		 mov	 esi, ecx

; 1313 : 	return (ELTimer_GetMSec() - m_dwStartLocalTime) + m_tServerTime;

  00003	e8 00 00 00 00	 call	 ?ELTimer_GetMSec@@YAKXZ	; ELTimer_GetMSec
  00008	8b 96 6c ed 01
	00		 mov	 edx, DWORD PTR [esi+126316]
  0000e	2b 96 68 ed 01
	00		 sub	 edx, DWORD PTR [esi+126312]
  00014	03 c2		 add	 eax, edx
  00016	5e		 pop	 esi

; 1314 : }

  00017	c3		 ret	 0
?GetServerTime@CPythonApplication@@QAEJXZ ENDP		; CPythonApplication::GetServerTime
_TEXT	ENDS
; Function compile flags: /Ogtp
; File D:\Metin2 Server Files\mainline\SRC_2014\Metin2Client\UserInterface\PythonApplication.cpp
; File C:\Program Files (x86)\Windows Kits\10\Include\10.0.18362.0\ucrt\time.h
; File D:\Metin2 Server Files\mainline\SRC_2014\Metin2Client\UserInterface\PythonApplication.cpp
; File C:\Program Files (x86)\Windows Kits\10\Include\10.0.18362.0\ucrt\time.h
; File D:\Metin2 Server Files\mainline\SRC_2014\Metin2Client\UserInterface\PythonApplication.cpp
;	COMDAT ?SetServerTime@CPythonApplication@@UAEXJ@Z
_TEXT	SEGMENT
_tTime$ = 8						; size = 4
?SetServerTime@CPythonApplication@@UAEXJ@Z PROC		; CPythonApplication::SetServerTime, COMDAT
; _this$ = ecx

; 1305 : {

  00000	55		 push	 ebp
  00001	8b ec		 mov	 ebp, esp
  00003	56		 push	 esi
  00004	8b f1		 mov	 esi, ecx

; 1306 : 	m_dwStartLocalTime	= ELTimer_GetMSec();

  00006	e8 00 00 00 00	 call	 ?ELTimer_GetMSec@@YAKXZ	; ELTimer_GetMSec
  0000b	89 86 48 ed 01
	00		 mov	 DWORD PTR [esi+126280], eax

; 1307 : 	m_tServerTime		= tTime;

  00011	8b 45 08	 mov	 eax, DWORD PTR _tTime$[ebp]
; File C:\Program Files (x86)\Windows Kits\10\Include\10.0.18362.0\ucrt\time.h

; 431  :             return _time32(_Time);

  00014	6a 00		 push	 0
; File D:\Metin2 Server Files\mainline\SRC_2014\Metin2Client\UserInterface\PythonApplication.cpp

; 1307 : 	m_tServerTime		= tTime;

  00016	89 86 4c ed 01
	00		 mov	 DWORD PTR [esi+126284], eax
; File C:\Program Files (x86)\Windows Kits\10\Include\10.0.18362.0\ucrt\time.h

; 431  :             return _time32(_Time);

  0001c	e8 00 00 00 00	 call	 __time32
  00021	83 c4 04	 add	 esp, 4
; File D:\Metin2 Server Files\mainline\SRC_2014\Metin2Client\UserInterface\PythonApplication.cpp

; 1308 : 	m_tLocalStartTime	= time(0);

  00024	89 86 50 ed 01
	00		 mov	 DWORD PTR [esi+126288], eax
  0002a	5e		 pop	 esi

; 1309 : }

  0002b	5d		 pop	 ebp
  0002c	c2 04 00	 ret	 4
?SetServerTime@CPythonApplication@@UAEXJ@Z ENDP		; CPythonApplication::SetServerTime
_TEXT	ENDS
; Function compile flags: /Ogtp
; File D:\Metin2 Server Files\mainline\SRC_2014\Metin2Client\UserInterface\PythonApplication.cpp
;	COMDAT ?SetFPS@CPythonApplication@@QAEXH@Z
_TEXT	SEGMENT
_iFPS$ = 8						; size = 4
?SetFPS@CPythonApplication@@QAEXH@Z PROC		; CPythonApplication::SetFPS, COMDAT
; _this$ = ecx

; 1334 : {

  00000	55		 push	 ebp
  00001	8b ec		 mov	 ebp, esp

; 1335 : 	m_iFPS = iFPS;

  00003	8b 45 08	 mov	 eax, DWORD PTR _iFPS$[ebp]
  00006	89 81 48 ed 01
	00		 mov	 DWORD PTR [ecx+126280], eax

; 1336 : }

  0000c	5d		 pop	 ebp
  0000d	c2 04 00	 ret	 4
?SetFPS@CPythonApplication@@QAEXH@Z ENDP		; CPythonApplication::SetFPS
_TEXT	ENDS
; Function compile flags: /Ogtp
; File D:\Metin2 Server Files\mainline\SRC_2014\Metin2Client\UserInterface\PythonApplication.cpp
;	COMDAT ?GetCenterPosition@CPythonApplication@@QAEXPAUD3DXVECTOR3@@@Z
_TEXT	SEGMENT
_pPixelPosition$ = 8					; size = 4
?GetCenterPosition@CPythonApplication@@QAEXPAUD3DXVECTOR3@@@Z PROC ; CPythonApplication::GetCenterPosition, COMDAT
; _this$ = ecx

; 1297 : {

  00000	55		 push	 ebp
  00001	8b ec		 mov	 ebp, esp

; 1298 : 	pPixelPosition->x = +m_v3CenterPosition.x;

  00003	8b 55 08	 mov	 edx, DWORD PTR _pPixelPosition$[ebp]
  00006	8b 81 3c ed 01
	00		 mov	 eax, DWORD PTR [ecx+126268]
  0000c	89 02		 mov	 DWORD PTR [edx], eax

; 1299 : 	pPixelPosition->y = -m_v3CenterPosition.y;

  0000e	f3 0f 10 81 40
	ed 01 00	 movss	 xmm0, DWORD PTR [ecx+126272]
  00016	0f 57 05 00 00
	00 00		 xorps	 xmm0, DWORD PTR __xmm@80000000800000008000000080000000
  0001d	f3 0f 11 42 04	 movss	 DWORD PTR [edx+4], xmm0

; 1300 : 	pPixelPosition->z = +m_v3CenterPosition.z;

  00022	8b 81 44 ed 01
	00		 mov	 eax, DWORD PTR [ecx+126276]
  00028	89 42 08	 mov	 DWORD PTR [edx+8], eax

; 1301 : }

  0002b	5d		 pop	 ebp
  0002c	c2 04 00	 ret	 4
?GetCenterPosition@CPythonApplication@@QAEXPAUD3DXVECTOR3@@@Z ENDP ; CPythonApplication::GetCenterPosition
_TEXT	ENDS
; Function compile flags: /Ogtp
; File D:\Metin2 Server Files\mainline\SRC_2014\Metin2Client\UserInterface\PythonApplication.cpp
;	COMDAT ?SetCenterPosition@CPythonApplication@@UAEXMMM@Z
_TEXT	SEGMENT
_fx$ = 8						; size = 4
_fy$ = 12						; size = 4
_fz$ = 16						; size = 4
?SetCenterPosition@CPythonApplication@@UAEXMMM@Z PROC	; CPythonApplication::SetCenterPosition, COMDAT
; _this$ = ecx

; 1290 : {

  00000	55		 push	 ebp
  00001	8b ec		 mov	 ebp, esp

; 1291 : 	m_v3CenterPosition.x = +fx;

  00003	f3 0f 10 45 08	 movss	 xmm0, DWORD PTR _fx$[ebp]
  00008	f3 0f 11 81 1c
	ed 01 00	 movss	 DWORD PTR [ecx+126236], xmm0

; 1292 : 	m_v3CenterPosition.y = -fy;

  00010	f3 0f 10 45 0c	 movss	 xmm0, DWORD PTR _fy$[ebp]
  00015	0f 57 05 00 00
	00 00		 xorps	 xmm0, DWORD PTR __xmm@80000000800000008000000080000000
  0001c	f3 0f 11 81 20
	ed 01 00	 movss	 DWORD PTR [ecx+126240], xmm0

; 1293 : 	m_v3CenterPosition.z = +fz;

  00024	f3 0f 10 45 10	 movss	 xmm0, DWORD PTR _fz$[ebp]
  00029	f3 0f 11 81 24
	ed 01 00	 movss	 DWORD PTR [ecx+126244], xmm0

; 1294 : }

  00031	5d		 pop	 ebp
  00032	c2 0c 00	 ret	 12			; 0000000cH
?SetCenterPosition@CPythonApplication@@UAEXMMM@Z ENDP	; CPythonApplication::SetCenterPosition
_TEXT	ENDS
; Function compile flags: /Ogtp
; File D:\Metin2 Server Files\mainline\SRC_2014\Metin2Client\UserInterface\PythonApplication.cpp
;	COMDAT ?SetGlobalCenterPosition@CPythonApplication@@QAEXJJ@Z
_TEXT	SEGMENT
_z$ = -4						; size = 4
_x$ = 8							; size = 4
_y$ = 12						; size = 4
?SetGlobalCenterPosition@CPythonApplication@@QAEXJJ@Z PROC ; CPythonApplication::SetGlobalCenterPosition, COMDAT
; _this$ = ecx

; 1280 : {

  00000	55		 push	 ebp
  00001	8b ec		 mov	 ebp, esp
  00003	51		 push	 ecx

; 1281 : 	CPythonBackground& rkBG=CPythonBackground::Instance();
; 1282 : 	rkBG.GlobalPositionToLocalPosition(x, y);

  00004	8b 0d 00 00 00
	00		 mov	 ecx, DWORD PTR ?ms_singleton@?$CSingleton@VCPythonBackground@@@@0PAVCPythonBackground@@A ; CSingleton<CPythonBackground>::ms_singleton
  0000a	8d 45 0c	 lea	 eax, DWORD PTR _y$[ebp]
  0000d	50		 push	 eax
  0000e	8d 45 08	 lea	 eax, DWORD PTR _x$[ebp]
  00011	50		 push	 eax
  00012	e8 00 00 00 00	 call	 ?GlobalPositionToLocalPosition@CPythonBackground@@QAEXAAJ0@Z ; CPythonBackground::GlobalPositionToLocalPosition
  00017	66 0f 6e 45 0c	 movd	 xmm0, DWORD PTR _y$[ebp]

; 1283 : 
; 1284 : 	float z = CPythonBackground::Instance().GetHeight(x, y);

  0001c	83 ec 08	 sub	 esp, 8
  0001f	8b 0d 00 00 00
	00		 mov	 ecx, DWORD PTR ?ms_singleton@?$CSingleton@VCPythonBackground@@@@0PAVCPythonBackground@@A ; CSingleton<CPythonBackground>::ms_singleton
  00025	0f 5b c0	 cvtdq2ps xmm0, xmm0
  00028	f3 0f 11 44 24
	04		 movss	 DWORD PTR [esp+4], xmm0
  0002e	66 0f 6e 45 08	 movd	 xmm0, DWORD PTR _x$[ebp]
  00033	0f 5b c0	 cvtdq2ps xmm0, xmm0
  00036	f3 0f 11 04 24	 movss	 DWORD PTR [esp], xmm0
  0003b	e8 00 00 00 00	 call	 ?GetHeight@CMapManager@@QAEMMM@Z ; CMapManager::GetHeight

; 1285 : 
; 1286 : 	CPythonApplication::Instance().SetCenterPosition(x, y, z);

  00040	8b 0d 00 00 00
	00		 mov	 ecx, DWORD PTR ?ms_pInstance@CPythonApplication@@1PAV1@A ; CPythonApplication::ms_pInstance
  00046	83 ec 0c	 sub	 esp, 12			; 0000000cH
  00049	d9 5d fc	 fstp	 DWORD PTR _z$[ebp]
  0004c	f3 0f 10 45 fc	 movss	 xmm0, DWORD PTR _z$[ebp]
  00051	83 c1 20	 add	 ecx, 32			; 00000020H
  00054	f3 0f 11 44 24
	08		 movss	 DWORD PTR [esp+8], xmm0
  0005a	66 0f 6e 45 0c	 movd	 xmm0, DWORD PTR _y$[ebp]
  0005f	8b 01		 mov	 eax, DWORD PTR [ecx]
  00061	0f 5b c0	 cvtdq2ps xmm0, xmm0
  00064	f3 0f 11 44 24
	04		 movss	 DWORD PTR [esp+4], xmm0
  0006a	66 0f 6e 45 08	 movd	 xmm0, DWORD PTR _x$[ebp]
  0006f	0f 5b c0	 cvtdq2ps xmm0, xmm0
  00072	f3 0f 11 04 24	 movss	 DWORD PTR [esp], xmm0
  00077	ff 50 18	 call	 DWORD PTR [eax+24]

; 1287 : }

  0007a	8b e5		 mov	 esp, ebp
  0007c	5d		 pop	 ebp
  0007d	c2 08 00	 ret	 8
?SetGlobalCenterPosition@CPythonApplication@@QAEXJJ@Z ENDP ; CPythonApplication::SetGlobalCenterPosition
_TEXT	ENDS
; Function compile flags: /Ogtp
; File D:\Metin2 Server Files\mainline\SRC_2014\Metin2Client\UserInterface\PythonApplication.cpp
;	COMDAT ?GetHeight@CPythonApplication@@QAEHXZ
_TEXT	SEGMENT
?GetHeight@CPythonApplication@@QAEHXZ PROC		; CPythonApplication::GetHeight, COMDAT
; _this$ = ecx

; 1345 : 	return m_dwHeight;

  00000	8b 81 60 ed 01
	00		 mov	 eax, DWORD PTR [ecx+126304]

; 1346 : }

  00006	c3		 ret	 0
?GetHeight@CPythonApplication@@QAEHXZ ENDP		; CPythonApplication::GetHeight
_TEXT	ENDS
; Function compile flags: /Ogtp
; File D:\Metin2 Server Files\mainline\SRC_2014\Metin2Client\UserInterface\PythonApplication.cpp
;	COMDAT ?GetWidth@CPythonApplication@@QAEHXZ
_TEXT	SEGMENT
?GetWidth@CPythonApplication@@QAEHXZ PROC		; CPythonApplication::GetWidth, COMDAT
; _this$ = ecx

; 1340 : 	return m_dwWidth;

  00000	8b 81 5c ed 01
	00		 mov	 eax, DWORD PTR [ecx+126300]

; 1341 : }

  00006	c3		 ret	 0
?GetWidth@CPythonApplication@@QAEHXZ ENDP		; CPythonApplication::GetWidth
_TEXT	ENDS
; Function compile flags: /Ogtp
; File D:\Metin2 Server Files\mainline\SRC_2014\Metin2Client\UserInterface\PythonApplication.cpp
;	COMDAT ?SetMouseHandler@CPythonApplication@@QAEXPAU_object@@@Z
_TEXT	SEGMENT
_poMouseHandler$ = 8					; size = 4
?SetMouseHandler@CPythonApplication@@QAEXPAU_object@@@Z PROC ; CPythonApplication::SetMouseHandler, COMDAT
; _this$ = ecx

; 872  : {	

  00000	55		 push	 ebp
  00001	8b ec		 mov	 ebp, esp

; 873  : 	m_poMouseHandler = poMouseHandler;

  00003	8b 45 08	 mov	 eax, DWORD PTR _poMouseHandler$[ebp]
  00006	89 81 38 ed 01
	00		 mov	 DWORD PTR [ecx+126264], eax

; 874  : }

  0000c	5d		 pop	 ebp
  0000d	c2 04 00	 ret	 4
?SetMouseHandler@CPythonApplication@@QAEXPAU_object@@@Z ENDP ; CPythonApplication::SetMouseHandler
_TEXT	ENDS
; Function compile flags: /Ogtp
; File D:\Metin2 Server Files\mainline\SRC_2014\Metin2Client\UserInterface\PythonApplication.cpp
;	COMDAT ?UpdateClientRect@CPythonApplication@@QAEXXZ
_TEXT	SEGMENT
_rcApp$ = -20						; size = 16
__$ArrayPad$ = -4					; size = 4
?UpdateClientRect@CPythonApplication@@QAEXXZ PROC	; CPythonApplication::UpdateClientRect, COMDAT
; _this$ = ecx

; 865  : {

  00000	55		 push	 ebp
  00001	8b ec		 mov	 ebp, esp
  00003	83 ec 14	 sub	 esp, 20			; 00000014H
  00006	a1 00 00 00 00	 mov	 eax, DWORD PTR ___security_cookie
  0000b	33 c5		 xor	 eax, ebp
  0000d	89 45 fc	 mov	 DWORD PTR __$ArrayPad$[ebp], eax
  00010	56		 push	 esi

; 866  : 	RECT rcApp;
; 867  : 	GetClientRect(&rcApp);

  00011	8d 45 ec	 lea	 eax, DWORD PTR _rcApp$[ebp]
  00014	8b f1		 mov	 esi, ecx
  00016	50		 push	 eax
  00017	e8 00 00 00 00	 call	 ?GetClientRect@CMSWindow@@QAEXPAUtagRECT@@@Z ; CMSWindow::GetClientRect

; 868  : 	OnSizeChange(rcApp.right - rcApp.left, rcApp.bottom - rcApp.top);

  0001c	8b 45 f8	 mov	 eax, DWORD PTR _rcApp$[ebp+12]
  0001f	8b ce		 mov	 ecx, esi
  00021	2b 45 f0	 sub	 eax, DWORD PTR _rcApp$[ebp+4]
  00024	50		 push	 eax
  00025	8b 45 f4	 mov	 eax, DWORD PTR _rcApp$[ebp+8]
  00028	2b 45 ec	 sub	 eax, DWORD PTR _rcApp$[ebp]
  0002b	50		 push	 eax
  0002c	e8 00 00 00 00	 call	 ?OnSizeChange@CPythonApplication@@IAEXHH@Z ; CPythonApplication::OnSizeChange

; 869  : }

  00031	8b 4d fc	 mov	 ecx, DWORD PTR __$ArrayPad$[ebp]
  00034	33 cd		 xor	 ecx, ebp
  00036	5e		 pop	 esi
  00037	e8 00 00 00 00	 call	 @__security_check_cookie@4
  0003c	8b e5		 mov	 esp, ebp
  0003e	5d		 pop	 ebp
  0003f	c3		 ret	 0
?UpdateClientRect@CPythonApplication@@QAEXXZ ENDP	; CPythonApplication::UpdateClientRect
_TEXT	ENDS
; Function compile flags: /Ogtp
; File D:\Metin2 Server Files\mainline\SRC_2014\Metin2Client\UserInterface\PythonApplication.cpp
;	COMDAT ?Process@CPythonApplication@@QAE_NXZ
_TEXT	SEGMENT
_Point$ = -40						; size = 8
_dwStart$1$ = -32					; size = 4
_dwRenderStartTime$1$ = -28				; size = 4
_fRatio$2 = -28						; size = 4
_fCurRenderTime$1$ = -24				; size = 4
tv750 = -24						; size = 4
_dwCurFaceCount$1$ = -20				; size = 4
_rkBG$1$ = -20						; size = 4
_bCurrentLateUpdate$1$ = -16				; size = 4
__$EHRec$ = -12						; size = 12
?Process@CPythonApplication@@QAE_NXZ PROC		; CPythonApplication::Process, COMDAT
; _this$ = ecx

; 400  : {

  00000	55		 push	 ebp
  00001	8b ec		 mov	 ebp, esp
  00003	6a ff		 push	 -1
  00005	68 00 00 00 00	 push	 __ehhandler$?Process@CPythonApplication@@QAE_NXZ
  0000a	64 a1 00 00 00
	00		 mov	 eax, DWORD PTR fs:0
  00010	50		 push	 eax
  00011	83 ec 1c	 sub	 esp, 28			; 0000001cH
  00014	53		 push	 ebx
  00015	56		 push	 esi
  00016	57		 push	 edi
  00017	a1 00 00 00 00	 mov	 eax, DWORD PTR ___security_cookie
  0001c	33 c5		 xor	 eax, ebp
  0001e	50		 push	 eax
  0001f	8d 45 f4	 lea	 eax, DWORD PTR __$EHRec$[ebp]
  00022	64 a3 00 00 00
	00		 mov	 DWORD PTR fs:0, eax
  00028	8b f9		 mov	 edi, ecx

; 401  : #if defined(CHECK_LATEST_DATA_FILES)
; 402  : 	if (CheckLatestFiles_PollEvent())
; 403  : 		return false;
; 404  : #endif
; 405  : #ifdef USE_AHNLAB_HACKSHIELD
; 406  : 	if (HackShield_PollEvent())
; 407  : 		return false;
; 408  : #endif
; 409  : #ifdef XTRAP_CLIENT_ENABLE
; 410  : 	XTrap_PollEvent();
; 411  : #endif
; 412  : 	ELTimer_SetFrameMSec();

  0002a	e8 00 00 00 00	 call	 ?ELTimer_SetFrameMSec@@YAXXZ ; ELTimer_SetFrameMSec

; 413  : 
; 414  : 	// 	m_Profiler.Clear();
; 415  : 	DWORD dwStart = ELTimer_GetMSec();

  0002f	e8 00 00 00 00	 call	 ?ELTimer_GetMSec@@YAKXZ	; ELTimer_GetMSec

; 416  : 
; 417  : 	///////////////////////////////////////////////////////////////////////////////////////////////////
; 418  : 	static DWORD	s_dwUpdateFrameCount = 0;
; 419  : 	static DWORD	s_dwRenderFrameCount = 0;
; 420  : 	static DWORD	s_dwFaceCount = 0;
; 421  : 	static UINT		s_uiLoad = 0;
; 422  : 	static DWORD	s_dwCheckTime = ELTimer_GetMSec();

  00034	8b 35 00 00 00
	00		 mov	 esi, DWORD PTR __tls_index
  0003a	64 8b 15 00 00
	00 00		 mov	 edx, DWORD PTR fs:__tls_array
  00041	8b 0d 00 00 00
	00		 mov	 ecx, DWORD PTR ?$TSS0@?1??Process@CPythonApplication@@QAE_NXZ@4HA
  00047	89 45 e0	 mov	 DWORD PTR _dwStart$1$[ebp], eax
  0004a	8b 1c b2	 mov	 ebx, DWORD PTR [edx+esi*4]
  0004d	89 5d e8	 mov	 DWORD PTR tv750[ebp], ebx
  00050	3b 8b 00 00 00
	00		 cmp	 ecx, DWORD PTR __Init_thread_epoch[ebx]
  00056	0f 8f e3 05 00
	00		 jg	 $LN51@Process
$LN2@Process:

; 423  : 
; 424  : 	if (ELTimer_GetMSec() - s_dwCheckTime > 1000)

  0005c	e8 00 00 00 00	 call	 ?ELTimer_GetMSec@@YAKXZ	; ELTimer_GetMSec
  00061	2b 05 00 00 00
	00		 sub	 eax, DWORD PTR ?s_dwCheckTime@?1??Process@CPythonApplication@@QAE_NXZ@4KA
  00067	3d e8 03 00 00	 cmp	 eax, 1000		; 000003e8H
  0006c	76 6d		 jbe	 SHORT $LN5@Process

; 425  : 	{
; 426  : 		m_dwUpdateFPS		= s_dwUpdateFrameCount;

  0006e	a1 00 00 00 00	 mov	 eax, DWORD PTR ?s_dwUpdateFrameCount@?1??Process@CPythonApplication@@QAE_NXZ@4KA

; 427  : 		m_dwRenderFPS		= s_dwRenderFrameCount;

  00073	8b 0d 00 00 00
	00		 mov	 ecx, DWORD PTR ?s_dwRenderFrameCount@?1??Process@CPythonApplication@@QAE_NXZ@4KA
  00079	89 87 3c ee 01
	00		 mov	 DWORD PTR [edi+126524], eax

; 428  : 		m_dwLoad			= s_uiLoad;

  0007f	a1 00 00 00 00	 mov	 eax, DWORD PTR ?s_uiLoad@?1??Process@CPythonApplication@@QAE_NXZ@4IA
  00084	89 87 58 ed 01
	00		 mov	 DWORD PTR [edi+126296], eax

; 429  : 
; 430  : 		m_dwFaceCount		= s_dwFaceCount / max(1, s_dwRenderFrameCount);

  0008a	b8 01 00 00 00	 mov	 eax, 1
  0008f	3b c8		 cmp	 ecx, eax
  00091	89 8f 40 ee 01
	00		 mov	 DWORD PTR [edi+126528], ecx
  00097	0f 42 c8	 cmovb	 ecx, eax
  0009a	a1 00 00 00 00	 mov	 eax, DWORD PTR ?s_dwFaceCount@?1??Process@CPythonApplication@@QAE_NXZ@4KA
  0009f	33 d2		 xor	 edx, edx
  000a1	f7 f1		 div	 ecx
  000a3	89 87 44 ee 01
	00		 mov	 DWORD PTR [edi+126532], eax

; 431  : 
; 432  : 		s_dwCheckTime		= ELTimer_GetMSec();

  000a9	e8 00 00 00 00	 call	 ?ELTimer_GetMSec@@YAKXZ	; ELTimer_GetMSec
  000ae	a3 00 00 00 00	 mov	 DWORD PTR ?s_dwCheckTime@?1??Process@CPythonApplication@@QAE_NXZ@4KA, eax

; 433  : 
; 434  : 		s_uiLoad = s_dwFaceCount = s_dwUpdateFrameCount = s_dwRenderFrameCount = 0;

  000b3	c7 05 00 00 00
	00 00 00 00 00	 mov	 DWORD PTR ?s_dwRenderFrameCount@?1??Process@CPythonApplication@@QAE_NXZ@4KA, 0
  000bd	c7 05 00 00 00
	00 00 00 00 00	 mov	 DWORD PTR ?s_dwUpdateFrameCount@?1??Process@CPythonApplication@@QAE_NXZ@4KA, 0
  000c7	c7 05 00 00 00
	00 00 00 00 00	 mov	 DWORD PTR ?s_dwFaceCount@?1??Process@CPythonApplication@@QAE_NXZ@4KA, 0
  000d1	c7 05 00 00 00
	00 00 00 00 00	 mov	 DWORD PTR ?s_uiLoad@?1??Process@CPythonApplication@@QAE_NXZ@4IA, 0
$LN5@Process:

; 435  : 	}
; 436  : 
; 437  : 	// Update Time
; 438  : 	static BOOL s_bFrameSkip = false;
; 439  : 	static UINT s_uiNextFrameTime = ELTimer_GetMSec();

  000db	a1 00 00 00 00	 mov	 eax, DWORD PTR ?$TSS1@?1??Process@CPythonApplication@@QAE_NXZ@4HA
  000e0	3b 83 00 00 00
	00		 cmp	 eax, DWORD PTR __Init_thread_epoch[ebx]
  000e6	0f 8f 97 05 00
	00		 jg	 $LN52@Process
$LN3@Process:

; 440  : 
; 441  : #ifdef __PERFORMANCE_CHECK__
; 442  : 	DWORD dwUpdateTime1=ELTimer_GetMSec();
; 443  : #endif
; 444  : 	CTimer& rkTimer=CTimer::Instance();

  000ec	8b 35 00 00 00
	00		 mov	 esi, DWORD PTR ?ms_singleton@?$CSingleton@VCTimer@@@@0PAVCTimer@@A ; CSingleton<CTimer>::ms_singleton

; 445  : 	rkTimer.Advance();

  000f2	8b ce		 mov	 ecx, esi
  000f4	e8 00 00 00 00	 call	 ?Advance@CTimer@@QAEXXZ	; CTimer::Advance

; 446  : 
; 447  : 	m_fGlobalTime = rkTimer.GetCurrentSecond();

  000f9	8b ce		 mov	 ecx, esi
  000fb	e8 00 00 00 00	 call	 ?GetCurrentSecond@CTimer@@QAEMXZ ; CTimer::GetCurrentSecond
  00100	d9 9f 74 ed 01
	00		 fstp	 DWORD PTR [edi+126324]

; 448  : 	m_fGlobalElapsedTime = rkTimer.GetElapsedSecond();

  00106	8b ce		 mov	 ecx, esi
  00108	e8 00 00 00 00	 call	 ?GetElapsedSecond@CTimer@@QAEMXZ ; CTimer::GetElapsedSecond

; 449  : 
; 450  : 	UINT uiFrameTime = rkTimer.GetElapsedMilliecond();

  0010d	8b ce		 mov	 ecx, esi
  0010f	d9 9f 78 ed 01
	00		 fstp	 DWORD PTR [edi+126328]
  00115	e8 00 00 00 00	 call	 ?GetElapsedMilliecond@CTimer@@QAEKXZ ; CTimer::GetElapsedMilliecond
  0011a	8b f0		 mov	 esi, eax

; 451  : 	s_uiNextFrameTime += uiFrameTime;	//17 - 1 60fps.

  0011c	01 35 00 00 00
	00		 add	 DWORD PTR ?s_uiNextFrameTime@?1??Process@CPythonApplication@@QAE_NXZ@4IA, esi

; 452  : 
; 453  : 	DWORD updatestart = ELTimer_GetMSec();

  00122	e8 00 00 00 00	 call	 ?ELTimer_GetMSec@@YAKXZ	; ELTimer_GetMSec

; 454  : #ifdef __PERFORMANCE_CHECK__
; 455  : 	DWORD dwUpdateTime2=ELTimer_GetMSec();
; 456  : #endif
; 457  : 	// Network I/O	
; 458  : 	m_pyNetworkStream.Process();	

  00127	8d 8f 40 08 00
	00		 lea	 ecx, DWORD PTR [edi+2112]
  0012d	8b d8		 mov	 ebx, eax
  0012f	e8 00 00 00 00	 call	 ?Process@CNetworkStream@@QAEXXZ ; CNetworkStream::Process

; 459  : 	//m_pyNetworkDatagram.Process();
; 460  : 
; 461  : 	m_kGuildMarkUploader.Process();

  00134	8d 8f b4 c1 01
	00		 lea	 ecx, DWORD PTR [edi+115124]
  0013a	e8 00 00 00 00	 call	 ?Process@CGuildMarkUploader@@QAEXXZ ; CGuildMarkUploader::Process

; 462  : 
; 463  : #ifdef USE_NPROTECT_GAMEGUARD
; 464  : 	if (GameGuard_IsError())
; 465  : 		return false;
; 466  : #endif
; 467  : 
; 468  : 	m_kGuildMarkDownloader.Process();

  0013f	8d 8f 04 c1 01
	00		 lea	 ecx, DWORD PTR [edi+114948]
  00145	e8 00 00 00 00	 call	 ?Process@CGuildMarkDownloader@@QAEXXZ ; CGuildMarkDownloader::Process

; 469  : 	m_kAccountConnector.Process();

  0014a	8d 8f 54 c5 01
	00		 lea	 ecx, DWORD PTR [edi+116052]
  00150	e8 00 00 00 00	 call	 ?Process@CAccountConnector@@QAEXXZ ; CAccountConnector::Process

; 470  : 
; 471  : #ifdef __PERFORMANCE_CHECK__		
; 472  : 	DWORD dwUpdateTime3=ELTimer_GetMSec();
; 473  : #endif
; 474  : 	//////////////////////
; 475  : 	// Input Process
; 476  : 	// Keyboard
; 477  : 	UpdateKeyboard();

  00155	8d 4f 1c	 lea	 ecx, DWORD PTR [edi+28]
  00158	e8 00 00 00 00	 call	 ?UpdateKeyboard@CInputKeyboard@@QAEXXZ ; CInputKeyboard::UpdateKeyboard

; 478  : #ifdef __PERFORMANCE_CHECK__
; 479  : 	DWORD dwUpdateTime4=ELTimer_GetMSec();
; 480  : #endif
; 481  : 	// Mouse
; 482  : 	POINT Point;
; 483  : 	if (GetCursorPos(&Point))

  0015d	8d 45 d8	 lea	 eax, DWORD PTR _Point$[ebp]
  00160	50		 push	 eax
  00161	ff 15 00 00 00
	00		 call	 DWORD PTR __imp__GetCursorPos@4
  00167	85 c0		 test	 eax, eax
  00169	74 1a		 je	 SHORT $LN6@Process

; 484  : 	{
; 485  : 		ScreenToClient(m_hWnd, &Point);

  0016b	8d 45 d8	 lea	 eax, DWORD PTR _Point$[ebp]
  0016e	50		 push	 eax
  0016f	ff 77 04	 push	 DWORD PTR [edi+4]
  00172	ff 15 00 00 00
	00		 call	 DWORD PTR __imp__ScreenToClient@8

; 486  : 		OnMouseMove(Point.x, Point.y);		

  00178	ff 75 dc	 push	 DWORD PTR _Point$[ebp+4]
  0017b	8b cf		 mov	 ecx, edi
  0017d	ff 75 d8	 push	 DWORD PTR _Point$[ebp]
  00180	e8 00 00 00 00	 call	 ?OnMouseMove@CPythonApplication@@IAEXHH@Z ; CPythonApplication::OnMouseMove
$LN6@Process:

; 487  : 	}
; 488  : 	//////////////////////
; 489  : #ifdef __PERFORMANCE_CHECK__
; 490  : 	DWORD dwUpdateTime5=ELTimer_GetMSec();
; 491  : #endif
; 492  : 	//!@# Alt+Tab  SetTransfor      - [levites]
; 493  : 	//if (m_isActivateWnd)
; 494  : 	__UpdateCamera();

  00185	8b cf		 mov	 ecx, edi
  00187	e8 00 00 00 00	 call	 ?__UpdateCamera@CPythonApplication@@IAEXXZ ; CPythonApplication::__UpdateCamera

; 495  : #ifdef __PERFORMANCE_CHECK__
; 496  : 	DWORD dwUpdateTime6=ELTimer_GetMSec();
; 497  : #endif
; 498  : 	// Update Game Playing
; 499  : 	CResourceManager::Instance().Update();

  0018c	8b 0d 00 00 00
	00		 mov	 ecx, DWORD PTR ?ms_singleton@?$CSingleton@VCResourceManager@@@@0PAVCResourceManager@@A ; CSingleton<CResourceManager>::ms_singleton
  00192	e8 00 00 00 00	 call	 ?Update@CResourceManager@@QAEXXZ ; CResourceManager::Update

; 500  : #ifdef __PERFORMANCE_CHECK__
; 501  : 	DWORD dwUpdateTime7=ELTimer_GetMSec();
; 502  : #endif
; 503  : 	OnCameraUpdate();

  00197	8b cf		 mov	 ecx, edi
  00199	e8 00 00 00 00	 call	 ?OnCameraUpdate@CPythonApplication@@IAEXXZ ; CPythonApplication::OnCameraUpdate

; 504  : #ifdef __PERFORMANCE_CHECK__
; 505  : 	DWORD dwUpdateTime8=ELTimer_GetMSec();
; 506  : #endif
; 507  : 	OnMouseUpdate();

  0019e	8b cf		 mov	 ecx, edi
  001a0	e8 00 00 00 00	 call	 ?OnMouseUpdate@CPythonApplication@@IAEXXZ ; CPythonApplication::OnMouseUpdate

; 508  : #ifdef __PERFORMANCE_CHECK__
; 509  : 	DWORD dwUpdateTime9=ELTimer_GetMSec();
; 510  : #endif
; 511  : 	OnUIUpdate();

  001a5	8b cf		 mov	 ecx, edi
  001a7	e8 00 00 00 00	 call	 ?OnUIUpdate@CPythonApplication@@IAEXXZ ; CPythonApplication::OnUIUpdate

; 512  : 
; 513  : #ifdef __PERFORMANCE_CHECK__		
; 514  : 	DWORD dwUpdateTime10=ELTimer_GetMSec();
; 515  : 
; 516  : 	if (dwUpdateTime10-dwUpdateTime1>10)
; 517  : 	{			
; 518  : 		static FILE* fp=fopen("perf_app_update.txt", "w");
; 519  : 
; 520  : 		fprintf(fp, "AU.Total %d (Time %d)\n", dwUpdateTime9-dwUpdateTime1, ELTimer_GetMSec());
; 521  : 		fprintf(fp, "AU.TU %d\n", dwUpdateTime2-dwUpdateTime1);
; 522  : 		fprintf(fp, "AU.NU %d\n", dwUpdateTime3-dwUpdateTime2);
; 523  : 		fprintf(fp, "AU.KU %d\n", dwUpdateTime4-dwUpdateTime3);
; 524  : 		fprintf(fp, "AU.MP %d\n", dwUpdateTime5-dwUpdateTime4);
; 525  : 		fprintf(fp, "AU.CP %d\n", dwUpdateTime6-dwUpdateTime5);
; 526  : 		fprintf(fp, "AU.RU %d\n", dwUpdateTime7-dwUpdateTime6);
; 527  : 		fprintf(fp, "AU.CU %d\n", dwUpdateTime8-dwUpdateTime7);
; 528  : 		fprintf(fp, "AU.MU %d\n", dwUpdateTime9-dwUpdateTime8);
; 529  : 		fprintf(fp, "AU.UU %d\n", dwUpdateTime10-dwUpdateTime9);			
; 530  : 		fprintf(fp, "----------------------------------\n");
; 531  : 		fflush(fp);
; 532  : 	}		
; 533  : #endif
; 534  : 
; 535  : 	//Update .delta
; 536  : 	m_dwCurUpdateTime = ELTimer_GetMSec() - updatestart;

  001ac	e8 00 00 00 00	 call	 ?ELTimer_GetMSec@@YAKXZ	; ELTimer_GetMSec
  001b1	2b c3		 sub	 eax, ebx
  001b3	89 87 54 ed 01
	00		 mov	 DWORD PTR [edi+126292], eax

; 537  : 
; 538  : 	DWORD dwCurrentTime = ELTimer_GetMSec();

  001b9	e8 00 00 00 00	 call	 ?ELTimer_GetMSec@@YAKXZ	; ELTimer_GetMSec

; 539  : 	BOOL  bCurrentLateUpdate = FALSE;
; 540  : 
; 541  : 	s_bFrameSkip = false;
; 542  : 
; 543  : 	if (dwCurrentTime > s_uiNextFrameTime)

  001be	8b 0d 00 00 00
	00		 mov	 ecx, DWORD PTR ?s_uiNextFrameTime@?1??Process@CPythonApplication@@QAE_NXZ@4IA
  001c4	33 db		 xor	 ebx, ebx
  001c6	89 5d f0	 mov	 DWORD PTR _bCurrentLateUpdate$1$[ebp], ebx
  001c9	89 1d 00 00 00
	00		 mov	 DWORD PTR ?s_bFrameSkip@?1??Process@CPythonApplication@@QAE_NXZ@4HA, ebx
  001cf	3b c1		 cmp	 eax, ecx
  001d1	76 68		 jbe	 SHORT $LN7@Process

; 544  : 	{
; 545  : 		int dt = dwCurrentTime - s_uiNextFrameTime;

  001d3	66 0f 6e c6	 movd	 xmm0, esi
  001d7	2b c1		 sub	 eax, ecx

; 546  : 		int nAdjustTime = ((float)dt / (float)uiFrameTime) * uiFrameTime; 

  001d9	f3 0f e6 c0	 cvtdq2pd xmm0, xmm0
  001dd	c1 ee 1f	 shr	 esi, 31			; 0000001fH
  001e0	f2 0f 58 04 f5
	00 00 00 00	 addsd	 xmm0, QWORD PTR __xmm@41f00000000000000000000000000000[esi*8]
  001e9	66 0f 5a c8	 cvtpd2ps xmm1, xmm0
  001ed	66 0f 6e c0	 movd	 xmm0, eax
  001f1	0f 5b c0	 cvtdq2ps xmm0, xmm0
  001f4	f3 0f 5e c1	 divss	 xmm0, xmm1
  001f8	f3 0f 59 c1	 mulss	 xmm0, xmm1
  001fc	f3 0f 2c f0	 cvttss2si esi, xmm0

; 547  : 
; 548  : 		if ( dt >= 500 )

  00200	3d f4 01 00 00	 cmp	 eax, 500		; 000001f4H
  00205	7c 22		 jl	 SHORT $LN8@Process

; 549  : 		{
; 550  : 			s_uiNextFrameTime += nAdjustTime; 

  00207	03 ce		 add	 ecx, esi

; 551  : 			printf("FrameSkip  %d\n",nAdjustTime);

  00209	56		 push	 esi
  0020a	68 00 00 00 00	 push	 OFFSET ??_C@_0BD@OJBILBDC@FrameSkip?5?$LK?$LI?A?$KE?5?$CFd?6@
  0020f	89 0d 00 00 00
	00		 mov	 DWORD PTR ?s_uiNextFrameTime@?1??Process@CPythonApplication@@QAE_NXZ@4IA, ecx
  00215	e8 00 00 00 00	 call	 _printf

; 552  : 			CTimer::Instance().Adjust(nAdjustTime);

  0021a	8b 0d 00 00 00
	00		 mov	 ecx, DWORD PTR ?ms_singleton@?$CSingleton@VCTimer@@@@0PAVCTimer@@A ; CSingleton<CTimer>::ms_singleton
  00220	83 c4 08	 add	 esp, 8
  00223	56		 push	 esi
  00224	e8 00 00 00 00	 call	 ?Adjust@CTimer@@QAEXH@Z	; CTimer::Adjust
$LN8@Process:

; 553  : 		}
; 554  : 
; 555  : 		s_bFrameSkip = true;
; 556  : 		bCurrentLateUpdate = TRUE;

  00229	bb 01 00 00 00	 mov	 ebx, 1
  0022e	c7 05 00 00 00
	00 01 00 00 00	 mov	 DWORD PTR ?s_bFrameSkip@?1??Process@CPythonApplication@@QAE_NXZ@4HA, 1
  00238	89 5d f0	 mov	 DWORD PTR _bCurrentLateUpdate$1$[ebp], ebx
$LN7@Process:

; 557  : 	}
; 558  : 
; 559  : 	//s_bFrameSkip = false;
; 560  : 
; 561  : 	//if (dwCurrentTime > s_uiNextFrameTime)
; 562  : 	//{
; 563  : 	//	int dt = dwCurrentTime - s_uiNextFrameTime;
; 564  : 
; 565  : 	//	//   .
; 566  : 	//	// m_dwCurUpdateTime delta delta absolute time  ?
; 567  : 	//	//if (dt >= 500 || m_dwCurUpdateTime > s_uiNextFrameTime)
; 568  : 
; 569  : 	//	//  0.5    update   rendering frame skip
; 570  : 	//	if (dt >= 500 || m_dwCurUpdateTime > s_uiNextFrameTime)
; 571  : 	//	{
; 572  : 	//		s_uiNextFrameTime += dt / uiFrameTime * uiFrameTime; 
; 573  : 	//		printf("FrameSkip  %d\n", dt / uiFrameTime * uiFrameTime);
; 574  : 	//		CTimer::Instance().Adjust((dt / uiFrameTime) * uiFrameTime);
; 575  : 	//		s_bFrameSkip = true;
; 576  : 	//	}
; 577  : 	//}
; 578  : 
; 579  : 	if (m_isFrameSkipDisable)

  0023b	80 bf 69 ee 01
	00 00		 cmp	 BYTE PTR [edi+126569], 0
  00242	74 0c		 je	 SHORT $LN9@Process

; 580  : 		s_bFrameSkip = false;

  00244	c7 05 00 00 00
	00 00 00 00 00	 mov	 DWORD PTR ?s_bFrameSkip@?1??Process@CPythonApplication@@QAE_NXZ@4HA, 0

; 581  : 
; 582  : #ifdef __VTUNE__
; 583  : 	s_bFrameSkip = false;
; 584  : #endif
; 585  : 	/*
; 586  : 	static bool s_isPrevFrameSkip=false;
; 587  : 	static DWORD s_dwFrameSkipCount=0;
; 588  : 	static DWORD s_dwFrameSkipEndTime=0;
; 589  : 
; 590  : 	static DWORD ERROR_FRAME_SKIP_COUNT = 60*5;
; 591  : 	static DWORD ERROR_FRAME_SKIP_TIME = ERROR_FRAME_SKIP_COUNT*18;
; 592  : 
; 593  : 	//static DWORD MAX_FRAME_SKIP=0;
; 594  : 
; 595  : 	if (IsActive())
; 596  : 	{
; 597  : 	DWORD dwFrameSkipCurTime=ELTimer_GetMSec();
; 598  : 
; 599  : 	if (s_bFrameSkip)
; 600  : 	{
; 601  : 	//   ..
; 602  : 	if (s_isPrevFrameSkip)
; 603  : 	{
; 604  : 	if (s_dwFrameSkipEndTime==0)
; 605  : 	{
; 606  : 	s_dwFrameSkipCount=0; //    
; 607  : 	s_dwFrameSkipEndTime=dwFrameSkipCurTime+ERROR_FRAME_SKIP_TIME; //      
; 608  : 
; 609  : 	//printf("FrameSkipCheck Start\n");
; 610  : 	}
; 611  : 	++s_dwFrameSkipCount;
; 612  : 
; 613  : 	//if (MAX_FRAME_SKIP<s_dwFrameSkipCount)
; 614  : 	//	MAX_FRAME_SKIP=s_dwFrameSkipCount;
; 615  : 
; 616  : 	//printf("u %d c %d/%d t %d\n", 
; 617  : 	//	dwUpdateTime9-dwUpdateTime1,
; 618  : 	//	s_dwFrameSkipCount, 
; 619  : 	//	MAX_FRAME_SKIP,
; 620  : 	//	s_dwFrameSkipEndTime);
; 621  : 
; 622  : 	//#ifndef _DEBUG
; 623  : 	//      ...
; 624  : 	if (s_dwFrameSkipCount>ERROR_FRAME_SKIP_COUNT && s_dwFrameSkipEndTime<dwFrameSkipCurTime)
; 625  : 	{
; 626  : 	s_isPrevFrameSkip=false;
; 627  : 	s_dwFrameSkipEndTime=0;
; 628  : 	s_dwFrameSkipCount=0;
; 629  : 
; 630  : 	//m_pyNetworkStream.AbsoluteExitGame();
; 631  : 
; 632  : 	/*
; 633  : 	TraceError("    ");
; 634  : 
; 635  : 	{
; 636  : 	FILE* fp=fopen("errorlog.txt", "w");
; 637  : 	if (fp)
; 638  : 	{
; 639  : 	fprintf(fp, "FRAMESKIP\n");
; 640  : 	fprintf(fp, "Total %d\n",		dwUpdateTime9-dwUpdateTime1);
; 641  : 	fprintf(fp, "Timer %d\n",		dwUpdateTime2-dwUpdateTime1);
; 642  : 	fprintf(fp, "Network %d\n",		dwUpdateTime3-dwUpdateTime2);
; 643  : 	fprintf(fp, "Keyboard %d\n",	dwUpdateTime4-dwUpdateTime3);
; 644  : 	fprintf(fp, "Controll %d\n",	dwUpdateTime5-dwUpdateTime4);
; 645  : 	fprintf(fp, "Resource %d\n",	dwUpdateTime6-dwUpdateTime5);
; 646  : 	fprintf(fp, "Camera %d\n",		dwUpdateTime7-dwUpdateTime6);
; 647  : 	fprintf(fp, "Mouse %d\n",		dwUpdateTime8-dwUpdateTime7);
; 648  : 	fprintf(fp, "UI %d\n",			dwUpdateTime9-dwUpdateTime8);
; 649  : 	fclose(fp);
; 650  : 
; 651  : 	WinExec("errorlog.exe", SW_SHOW);
; 652  : 	}
; 653  : 	}
; 654  : 	}
; 655  : 	}
; 656  : 
; 657  : 	s_isPrevFrameSkip=true;
; 658  : 	}
; 659  : 	else
; 660  : 	{
; 661  : 	s_isPrevFrameSkip=false;
; 662  : 	s_dwFrameSkipCount=0;
; 663  : 	s_dwFrameSkipEndTime=0;
; 664  : 	}
; 665  : 	}
; 666  : 	else
; 667  : 	{
; 668  : 	s_isPrevFrameSkip=false;
; 669  : 	s_dwFrameSkipCount=0;
; 670  : 	s_dwFrameSkipEndTime=0;
; 671  : 	}
; 672  : 	*/
; 673  : 	if (!s_bFrameSkip)

  0024e	eb 08		 jmp	 SHORT $LN46@Process
$LN9@Process:
  00250	85 db		 test	 ebx, ebx
  00252	0f 85 9d 03 00
	00		 jne	 $LN19@Process
$LN46@Process:
  00258	f2 0f 10 05 00
	00 00 00	 movsd	 xmm0, QWORD PTR ?g_specularSpd@@3NA

; 674  : 	{
; 675  : 		//		static double pos=0.0f;
; 676  : 		//		CGrannyMaterial::TranslateSpecularMatrix(fabs(sin(pos)*0.005), fabs(cos(pos)*0.005), 0.0f);
; 677  : 		//		pos+=0.01f;
; 678  : 
; 679  : 		CGrannyMaterial::TranslateSpecularMatrix(g_specularSpd, g_specularSpd, 0.0f);

  00260	83 ec 0c	 sub	 esp, 12			; 0000000cH
  00263	66 0f 5a c0	 cvtpd2ps xmm0, xmm0
  00267	c7 44 24 08 00
	00 00 00	 mov	 DWORD PTR [esp+8], 0
  0026f	f3 0f 11 44 24
	04		 movss	 DWORD PTR [esp+4], xmm0
  00275	f3 0f 11 04 24	 movss	 DWORD PTR [esp], xmm0
  0027a	e8 00 00 00 00	 call	 ?TranslateSpecularMatrix@CGrannyMaterial@@SAXMMM@Z ; CGrannyMaterial::TranslateSpecularMatrix
  0027f	83 c4 0c	 add	 esp, 12			; 0000000cH

; 680  : 
; 681  : 		DWORD dwRenderStartTime = ELTimer_GetMSec();		

  00282	e8 00 00 00 00	 call	 ?ELTimer_GetMSec@@YAKXZ	; ELTimer_GetMSec

; 682  : 
; 683  : 		bool canRender = true;
; 684  : 
; 685  : 		if (m_isMinimizedWnd)

  00287	80 bf 88 ee 01
	00 00		 cmp	 BYTE PTR [edi+126600], 0
  0028e	b3 01		 mov	 bl, 1
  00290	89 45 e4	 mov	 DWORD PTR _dwRenderStartTime$1$[ebp], eax
  00293	75 37		 jne	 SHORT $LN14@Process

; 686  : 		{
; 687  : 			canRender = false;
; 688  : 		}
; 689  : 		else
; 690  : 		{
; 691  : 			if (m_pyGraphic.IsLostDevice())

  00295	8d 8f 9c 07 00
	00		 lea	 ecx, DWORD PTR [edi+1948]
  0029b	e8 00 00 00 00	 call	 ?IsLostDevice@CScreen@@QAEHXZ ; CScreen::IsLostDevice
  002a0	85 c0		 test	 eax, eax
  002a2	74 2a		 je	 SHORT $LN15@Process

; 692  : 			{
; 693  : 				CPythonBackground& rkBG = CPythonBackground::Instance();

  002a4	a1 00 00 00 00	 mov	 eax, DWORD PTR ?ms_singleton@?$CSingleton@VCPythonBackground@@@@0PAVCPythonBackground@@A ; CSingleton<CPythonBackground>::ms_singleton

; 694  : 				rkBG.ReleaseCharacterShadowTexture();

  002a9	8b c8		 mov	 ecx, eax
  002ab	89 45 ec	 mov	 DWORD PTR _rkBG$1$[ebp], eax
  002ae	e8 00 00 00 00	 call	 ?ReleaseCharacterShadowTexture@CPythonBackground@@QAEXXZ ; CPythonBackground::ReleaseCharacterShadowTexture

; 695  : 
; 696  : 				if (m_pyGraphic.RestoreDevice())					

  002b3	8d 8f 9c 07 00
	00		 lea	 ecx, DWORD PTR [edi+1948]
  002b9	e8 00 00 00 00	 call	 ?RestoreDevice@CScreen@@QAEHXZ ; CScreen::RestoreDevice
  002be	85 c0		 test	 eax, eax
  002c0	74 0a		 je	 SHORT $LN14@Process

; 697  : 					rkBG.CreateCharacterShadowTexture();

  002c2	8b 4d ec	 mov	 ecx, DWORD PTR _rkBG$1$[ebp]
  002c5	e8 00 00 00 00	 call	 ?CreateCharacterShadowTexture@CPythonBackground@@QAEXXZ ; CPythonBackground::CreateCharacterShadowTexture
  002ca	eb 02		 jmp	 SHORT $LN15@Process
$LN14@Process:

; 698  : 				else
; 699  : 					canRender = false;				
; 700  : 			}
; 701  : 		}
; 702  : 
; 703  : 		if (!IsActive())

  002cc	32 db		 xor	 bl, bl
$LN15@Process:
  002ce	8b cf		 mov	 ecx, edi
  002d0	e8 00 00 00 00	 call	 ?IsActive@CMSWindow@@QAE_NXZ ; CMSWindow::IsActive
  002d5	84 c0		 test	 al, al
  002d7	75 0e		 jne	 SHORT $LN16@Process

; 704  : 		{
; 705  : 			SkipRenderBuffering(3000);

  002d9	8b 47 20	 mov	 eax, DWORD PTR [edi+32]
  002dc	8d 4f 20	 lea	 ecx, DWORD PTR [edi+32]
  002df	68 b8 0b 00 00	 push	 3000			; 00000bb8H
  002e4	ff 50 10	 call	 DWORD PTR [eax+16]
$LN16@Process:

; 706  : 		}
; 707  : 
; 708  : 		//        
; 709  : 		if (!canRender)

  002e7	84 db		 test	 bl, bl
  002e9	75 13		 jne	 SHORT $LN17@Process

; 710  : 		{
; 711  : 			SkipRenderBuffering(3000);

  002eb	8b 47 20	 mov	 eax, DWORD PTR [edi+32]
  002ee	8d 4f 20	 lea	 ecx, DWORD PTR [edi+32]
  002f1	68 b8 0b 00 00	 push	 3000			; 00000bb8H
  002f6	ff 50 10	 call	 DWORD PTR [eax+16]

; 712  : 		}

  002f9	e9 f4 02 00 00	 jmp	 $LN47@Process
$LN17@Process:

; 713  : 		else
; 714  : 		{
; 715  : 			// RestoreLostDevice
; 716  : 			CCullingManager::Instance().Update();

  002fe	8b 0d 00 00 00
	00		 mov	 ecx, DWORD PTR ?ms_singleton@?$CSingleton@VCCullingManager@@@@0PAVCCullingManager@@A ; CSingleton<CCullingManager>::ms_singleton
  00304	e8 00 00 00 00	 call	 ?Update@CCullingManager@@QAEXXZ ; CCullingManager::Update

; 717  : 			if (m_pyGraphic.Begin())

  00309	8d b7 9c 07 00
	00		 lea	 esi, DWORD PTR [edi+1948]
  0030f	8b ce		 mov	 ecx, esi
  00311	e8 00 00 00 00	 call	 ?Begin@CScreen@@QAE_NXZ	; CScreen::Begin
  00316	84 c0		 test	 al, al
  00318	0f 84 d4 02 00
	00		 je	 $LN47@Process

; 718  : 			{
; 719  : 
; 720  : 				m_pyGraphic.ClearDepthBuffer();

  0031e	8b ce		 mov	 ecx, esi
  00320	e8 00 00 00 00	 call	 ?ClearDepthBuffer@CScreen@@QAEXXZ ; CScreen::ClearDepthBuffer

; 721  : 
; 722  : #ifdef _DEBUG
; 723  : 				m_pyGraphic.SetClearColor(0.3f, 0.3f, 0.3f);
; 724  : 				m_pyGraphic.Clear();
; 725  : #endif
; 726  : 
; 727  : 				/////////////////////
; 728  : 				// Interface
; 729  : 				m_pyGraphic.SetInterfaceRenderState();

  00325	8b ce		 mov	 ecx, esi
  00327	e8 00 00 00 00	 call	 ?SetInterfaceRenderState@CPythonGraphic@@QAEXXZ ; CPythonGraphic::SetInterfaceRenderState

; 730  : 
; 731  : 				OnUIRender();

  0032c	8b cf		 mov	 ecx, edi
  0032e	e8 00 00 00 00	 call	 ?OnUIRender@CPythonApplication@@IAEXXZ ; CPythonApplication::OnUIRender

; 732  : 				OnMouseRender();

  00333	8b cf		 mov	 ecx, edi
  00335	e8 00 00 00 00	 call	 ?OnMouseRender@CPythonApplication@@IAEXXZ ; CPythonApplication::OnMouseRender

; 733  : 				/////////////////////
; 734  : 
; 735  : 				m_pyGraphic.End();

  0033a	8b ce		 mov	 ecx, esi
  0033c	e8 00 00 00 00	 call	 ?End@CScreen@@QAEXXZ	; CScreen::End

; 736  : 
; 737  : 				//DWORD t1 = ELTimer_GetMSec();
; 738  : 				m_pyGraphic.Show();

  00341	6a 00		 push	 0
  00343	8b ce		 mov	 ecx, esi
  00345	e8 00 00 00 00	 call	 ?Show@CScreen@@QAEXPAUHWND__@@@Z ; CScreen::Show

; 739  : 				//DWORD t2 = ELTimer_GetMSec();
; 740  : 
; 741  : 				DWORD dwRenderEndTime = ELTimer_GetMSec();

  0034a	e8 00 00 00 00	 call	 ?ELTimer_GetMSec@@YAKXZ	; ELTimer_GetMSec

; 742  : 
; 743  : 				static DWORD s_dwRenderCheckTime = dwRenderEndTime;

  0034f	8b 0d 00 00 00
	00		 mov	 ecx, DWORD PTR ?$TSS2@?CJ@??Process@CPythonApplication@@QAE_NXZ@4HA
  00355	8b d8		 mov	 ebx, eax
  00357	8b 45 e8	 mov	 eax, DWORD PTR tv750[ebp]
  0035a	3b 88 00 00 00
	00		 cmp	 ecx, DWORD PTR __Init_thread_epoch[eax]
  00360	0f 8f 61 03 00
	00		 jg	 $LN53@Process
$LN4@Process:

; 744  : 				static DWORD s_dwRenderRangeTime = 0;
; 745  : 				static DWORD s_dwRenderRangeFrame = 0;
; 746  : 
; 747  : 				m_dwCurRenderTime = dwRenderEndTime - dwRenderStartTime;			
; 748  : 				s_dwRenderRangeTime += m_dwCurRenderTime;				
; 749  : 				++s_dwRenderRangeFrame;			

  00366	8b 15 00 00 00
	00		 mov	 edx, DWORD PTR ?s_dwRenderRangeFrame@?CJ@??Process@CPythonApplication@@QAE_NXZ@4KA
  0036c	8b cb		 mov	 ecx, ebx
  0036e	2b 4d e4	 sub	 ecx, DWORD PTR _dwRenderStartTime$1$[ebp]

; 750  : 
; 751  : 				if (dwRenderEndTime-s_dwRenderCheckTime>1000)

  00371	8b c3		 mov	 eax, ebx
  00373	2b 05 00 00 00
	00		 sub	 eax, DWORD PTR ?s_dwRenderCheckTime@?CJ@??Process@CPythonApplication@@QAE_NXZ@4KA
  00379	42		 inc	 edx
  0037a	89 8f 50 ed 01
	00		 mov	 DWORD PTR [edi+126288], ecx
  00380	03 0d 00 00 00
	00		 add	 ecx, DWORD PTR ?s_dwRenderRangeTime@?CJ@??Process@CPythonApplication@@QAE_NXZ@4KA
  00386	89 0d 00 00 00
	00		 mov	 DWORD PTR ?s_dwRenderRangeTime@?CJ@??Process@CPythonApplication@@QAE_NXZ@4KA, ecx
  0038c	89 15 00 00 00
	00		 mov	 DWORD PTR ?s_dwRenderRangeFrame@?CJ@??Process@CPythonApplication@@QAE_NXZ@4KA, edx
  00392	3d e8 03 00 00	 cmp	 eax, 1000		; 000003e8H
  00397	76 56		 jbe	 SHORT $LN20@Process

; 752  : 				{
; 753  : 					m_fAveRenderTime=float(double(s_dwRenderRangeTime)/double(s_dwRenderRangeFrame));

  00399	66 0f 6e c9	 movd	 xmm1, ecx
  0039d	66 0f 6e c2	 movd	 xmm0, edx
  003a1	f3 0f e6 c9	 cvtdq2pd xmm1, xmm1
  003a5	c1 e9 1f	 shr	 ecx, 31			; 0000001fH
  003a8	c1 ea 1f	 shr	 edx, 31			; 0000001fH
  003ab	f3 0f e6 c0	 cvtdq2pd xmm0, xmm0
  003af	f2 0f 58 0c cd
	00 00 00 00	 addsd	 xmm1, QWORD PTR __xmm@41f00000000000000000000000000000[ecx*8]
  003b8	f2 0f 58 04 d5
	00 00 00 00	 addsd	 xmm0, QWORD PTR __xmm@41f00000000000000000000000000000[edx*8]
  003c1	f2 0f 5e c8	 divsd	 xmm1, xmm0
  003c5	66 0f 5a c1	 cvtpd2ps xmm0, xmm1
  003c9	f3 0f 11 87 4c
	ed 01 00	 movss	 DWORD PTR [edi+126284], xmm0

; 754  : 
; 755  : 					s_dwRenderCheckTime=ELTimer_GetMSec();

  003d1	e8 00 00 00 00	 call	 ?ELTimer_GetMSec@@YAKXZ	; ELTimer_GetMSec
  003d6	a3 00 00 00 00	 mov	 DWORD PTR ?s_dwRenderCheckTime@?CJ@??Process@CPythonApplication@@QAE_NXZ@4KA, eax

; 756  : 					s_dwRenderRangeTime=0;

  003db	c7 05 00 00 00
	00 00 00 00 00	 mov	 DWORD PTR ?s_dwRenderRangeTime@?CJ@??Process@CPythonApplication@@QAE_NXZ@4KA, 0

; 757  : 					s_dwRenderRangeFrame=0;

  003e5	c7 05 00 00 00
	00 00 00 00 00	 mov	 DWORD PTR ?s_dwRenderRangeFrame@?CJ@??Process@CPythonApplication@@QAE_NXZ@4KA, 0
$LN20@Process:

; 758  : 				}										
; 759  : 
; 760  : 				DWORD dwCurFaceCount=m_pyGraphic.GetFaceCount();

  003ef	8b ce		 mov	 ecx, esi
  003f1	e8 00 00 00 00	 call	 ?GetFaceCount@CGraphicBase@@QAEKXZ ; CGraphicBase::GetFaceCount

; 761  : 				m_pyGraphic.ResetFaceCount();

  003f6	8b ce		 mov	 ecx, esi
  003f8	89 45 ec	 mov	 DWORD PTR _dwCurFaceCount$1$[ebp], eax
  003fb	e8 00 00 00 00	 call	 ?ResetFaceCount@CGraphicBase@@QAEXXZ ; CGraphicBase::ResetFaceCount

; 762  : 				s_dwFaceCount += dwCurFaceCount;

  00400	8b 4d ec	 mov	 ecx, DWORD PTR _dwCurFaceCount$1$[ebp]
  00403	01 0d 00 00 00
	00		 add	 DWORD PTR ?s_dwFaceCount@?1??Process@CPythonApplication@@QAE_NXZ@4KA, ecx

; 763  : 
; 764  : 				if (dwCurFaceCount > 5000)

  00409	81 f9 88 13 00
	00		 cmp	 ecx, 5000		; 00001388H
  0040f	0f 86 bc 01 00
	00		 jbe	 $LN21@Process

; 765  : 				{
; 766  : 					//   
; 767  : 					if (dwRenderEndTime > m_dwBufSleepSkipTime)

  00415	f3 0f 10 1d 00
	00 00 00	 movss	 xmm3, DWORD PTR __real@42c80000
  0041d	3b 9f 94 ee 01
	00		 cmp	 ebx, DWORD PTR [edi+126612]
  00423	0f 86 c2 00 00
	00		 jbe	 $LN23@Process

; 768  : 					{	
; 769  : 						static float s_fBufRenderTime = 0.0f;
; 770  : 
; 771  : 						float fCurRenderTime = m_dwCurRenderTime;

  00429	8b 87 50 ed 01
	00		 mov	 eax, DWORD PTR [edi+126288]

; 772  : 
; 773  : 						if (fCurRenderTime > s_fBufRenderTime)

  0042f	f3 0f 10 0d 00
	00 00 00	 movss	 xmm1, DWORD PTR ?s_fBufRenderTime@?DC@??Process@CPythonApplication@@QAE_NXZ@4MA
  00437	66 0f 6e c0	 movd	 xmm0, eax
  0043b	f3 0f e6 c0	 cvtdq2pd xmm0, xmm0
  0043f	c1 e8 1f	 shr	 eax, 31			; 0000001fH
  00442	f2 0f 58 04 c5
	00 00 00 00	 addsd	 xmm0, QWORD PTR __xmm@41f00000000000000000000000000000[eax*8]
  0044b	66 0f 5a c0	 cvtpd2ps xmm0, xmm0
  0044f	0f 2f c1	 comiss	 xmm0, xmm1
  00452	f3 0f 11 45 e8	 movss	 DWORD PTR _fCurRenderTime$1$[ebp], xmm0
  00457	76 5a		 jbe	 SHORT $LN24@Process

; 774  : 						{
; 775  : 							float fRatio = fMAX(0.5f, (fCurRenderTime - s_fBufRenderTime) / 30.0f);

  00459	f3 0f 5c c1	 subss	 xmm0, xmm1
  0045d	83 ec 08	 sub	 esp, 8
  00460	f3 0f 5e 05 00
	00 00 00	 divss	 xmm0, DWORD PTR __real@41f00000
  00468	f3 0f 11 44 24
	04		 movss	 DWORD PTR [esp+4], xmm0
  0046e	c7 04 24 00 00
	00 3f		 mov	 DWORD PTR [esp], 1056964608 ; 3f000000H
  00475	e8 00 00 00 00	 call	 ?fMAX@@YAMMM@Z		; fMAX

; 776  : 							s_fBufRenderTime = (s_fBufRenderTime * (100.0f - fRatio) + (fCurRenderTime + 5) * fRatio) / 100.0f;

  0047a	f3 0f 10 1d 00
	00 00 00	 movss	 xmm3, DWORD PTR __real@42c80000
  00482	83 c4 08	 add	 esp, 8
  00485	f3 0f 10 55 e8	 movss	 xmm2, DWORD PTR _fCurRenderTime$1$[ebp]
  0048a	0f 28 cb	 movaps	 xmm1, xmm3
  0048d	f3 0f 58 15 00
	00 00 00	 addss	 xmm2, DWORD PTR __real@40a00000

; 777  : 						}

  00495	8b 4d ec	 mov	 ecx, DWORD PTR _dwCurFaceCount$1$[ebp]
  00498	d9 5d e4	 fstp	 DWORD PTR _fRatio$2[ebp]
  0049b	f3 0f 5c 4d e4	 subss	 xmm1, DWORD PTR _fRatio$2[ebp]
  004a0	f3 0f 59 55 e4	 mulss	 xmm2, DWORD PTR _fRatio$2[ebp]
  004a5	f3 0f 59 0d 00
	00 00 00	 mulss	 xmm1, DWORD PTR ?s_fBufRenderTime@?DC@??Process@CPythonApplication@@QAE_NXZ@4MA
  004ad	f3 0f 58 ca	 addss	 xmm1, xmm2
  004b1	eb 14		 jmp	 SHORT $LN49@Process
$LN24@Process:

; 778  : 						else
; 779  : 						{
; 780  : 							float fRatio = 0.5f;
; 781  : 							s_fBufRenderTime = (s_fBufRenderTime * (100.0f - fRatio) + fCurRenderTime * fRatio) / 100.0f;

  004b3	f3 0f 59 0d 00
	00 00 00	 mulss	 xmm1, DWORD PTR __real@42c70000
  004bb	f3 0f 59 05 00
	00 00 00	 mulss	 xmm0, DWORD PTR __real@3f000000
  004c3	f3 0f 58 c8	 addss	 xmm1, xmm0
$LN49@Process:

; 782  : 						}
; 783  : 
; 784  : 						//  
; 785  : 						if (s_fBufRenderTime > 100.0f)

  004c7	f3 0f 5e cb	 divss	 xmm1, xmm3
  004cb	0f 2f cb	 comiss	 xmm1, xmm3
  004ce	f3 0f 11 0d 00
	00 00 00	 movss	 DWORD PTR ?s_fBufRenderTime@?DC@??Process@CPythonApplication@@QAE_NXZ@4MA, xmm1
  004d6	76 0b		 jbe	 SHORT $LN26@Process

; 786  : 							s_fBufRenderTime = 100.0f;

  004d8	0f 28 cb	 movaps	 xmm1, xmm3
  004db	f3 0f 11 0d 00
	00 00 00	 movss	 DWORD PTR ?s_fBufRenderTime@?DC@??Process@CPythonApplication@@QAE_NXZ@4MA, xmm1
$LN26@Process:

; 787  : 
; 788  : 						DWORD dwBufRenderTime = s_fBufRenderTime;
; 789  : 
; 790  : 						if (m_isWindowed)
; 791  : 						{						
; 792  : 							if (dwBufRenderTime>58)
; 793  : 								dwBufRenderTime=64;
; 794  : 							else if (dwBufRenderTime>42)
; 795  : 								dwBufRenderTime=48;
; 796  : 							else if (dwBufRenderTime>26)
; 797  : 								dwBufRenderTime=32;
; 798  : 							else if (dwBufRenderTime>10)
; 799  : 								dwBufRenderTime=16;
; 800  : 							else
; 801  : 								dwBufRenderTime=8;
; 802  : 						}
; 803  : 
; 804  : 						//      
; 805  : 						//    .
; 806  : 						//if (m_dwCurRenderTime<dwBufRenderTime)
; 807  : 						//	Sleep(dwBufRenderTime-m_dwCurRenderTime);			
; 808  : 
; 809  : 						m_fAveRenderTime=s_fBufRenderTime;

  004e3	f3 0f 11 8f 4c
	ed 01 00	 movss	 DWORD PTR [edi+126284], xmm1
$LN23@Process:

; 810  : 					}
; 811  : 
; 812  : 					m_dwFaceAccCount += dwCurFaceCount;

  004eb	01 8f 34 ee 01
	00		 add	 DWORD PTR [edi+126516], ecx

; 813  : 					m_dwFaceAccTime += m_dwCurRenderTime;
; 814  : 
; 815  : 					m_fFaceSpd=(m_dwFaceAccCount/m_dwFaceAccTime);

  004f1	33 d2		 xor	 edx, edx
  004f3	8b 8f 50 ed 01
	00		 mov	 ecx, DWORD PTR [edi+126288]
  004f9	01 8f 38 ee 01
	00		 add	 DWORD PTR [edi+126520], ecx
  004ff	8b 87 34 ee 01
	00		 mov	 eax, DWORD PTR [edi+126516]
  00505	f7 b7 38 ee 01
	00		 div	 DWORD PTR [edi+126520]
  0050b	66 0f 6e c0	 movd	 xmm0, eax
  0050f	f3 0f e6 c0	 cvtdq2pd xmm0, xmm0
  00513	c1 e8 1f	 shr	 eax, 31			; 0000001fH
  00516	f2 0f 58 04 c5
	00 00 00 00	 addsd	 xmm0, QWORD PTR __xmm@41f00000000000000000000000000000[eax*8]

; 816  : 
; 817  : 					//   
; 818  : 					if (-1 == m_iForceSightRange)

  0051f	8b 87 98 ee 01
	00		 mov	 eax, DWORD PTR [edi+126616]
  00525	66 0f 5a c0	 cvtpd2ps xmm0, xmm0
  00529	f3 0f 11 87 28
	ee 01 00	 movss	 DWORD PTR [edi+126504], xmm0
  00531	83 f8 ff	 cmp	 eax, -1
  00534	0f 85 8e 00 00
	00		 jne	 $LN36@Process

; 819  : 					{
; 820  : 						static float s_fAveRenderTime = 16.0f;
; 821  : 						float fRatio=0.3f;
; 822  : 						s_fAveRenderTime=(s_fAveRenderTime*(100.0f-fRatio)+max(16.0f, m_dwCurRenderTime)*fRatio)/100.0f;

  0053a	f3 0f 10 0d 00
	00 00 00	 movss	 xmm1, DWORD PTR __real@41800000
  00542	0f 57 c0	 xorps	 xmm0, xmm0
  00545	f2 0f 2a c1	 cvtsi2sd xmm0, ecx
  00549	c1 e9 1f	 shr	 ecx, 31			; 0000001fH

; 823  : 
; 824  : 
; 825  : 						float fFar=25600.0f;
; 826  : 						float fNear=MIN_FOG;

  0054c	f3 0f 10 15 00
	00 00 00	 movss	 xmm2, DWORD PTR ?MIN_FOG@@3MA
  00554	f2 0f 58 04 cd
	00 00 00 00	 addsd	 xmm0, QWORD PTR __xmm@41f00000000000000000000000000000[ecx*8]
  0055d	66 0f 5a c0	 cvtpd2ps xmm0, xmm0
  00561	f3 0f 5f c8	 maxss	 xmm1, xmm0
  00565	f3 0f 10 05 00
	00 00 00	 movss	 xmm0, DWORD PTR ?s_fAveRenderTime@?EL@??Process@CPythonApplication@@QAE_NXZ@4MA
  0056d	f3 0f 59 05 00
	00 00 00	 mulss	 xmm0, DWORD PTR __real@42c76666
  00575	f3 0f 59 0d 00
	00 00 00	 mulss	 xmm1, DWORD PTR __real@3e99999a
  0057d	f3 0f 58 c8	 addss	 xmm1, xmm0
  00581	f3 0f 10 05 00
	00 00 00	 movss	 xmm0, DWORD PTR __real@447a0000
  00589	f3 0f 5e cb	 divss	 xmm1, xmm3

; 827  : 						double dbAvePow=double(1000.0f/s_fAveRenderTime);
; 828  : 						double dbMaxPow=60.0;
; 829  : 						float fDistance=max(fNear+(fFar-fNear)*(dbAvePow)/dbMaxPow, fNear);

  0058d	0f 5a da	 cvtps2pd xmm3, xmm2
  00590	f3 0f 5e c1	 divss	 xmm0, xmm1
  00594	f3 0f 11 0d 00
	00 00 00	 movss	 DWORD PTR ?s_fAveRenderTime@?EL@??Process@CPythonApplication@@QAE_NXZ@4MA, xmm1
  0059c	0f 5a c8	 cvtps2pd xmm1, xmm0
  0059f	f3 0f 10 05 00
	00 00 00	 movss	 xmm0, DWORD PTR __real@46c80000
  005a7	f3 0f 5c c2	 subss	 xmm0, xmm2
  005ab	0f 5a c0	 cvtps2pd xmm0, xmm0
  005ae	f2 0f 59 c8	 mulsd	 xmm1, xmm0
  005b2	f2 0f 5e 0d 00
	00 00 00	 divsd	 xmm1, QWORD PTR __real@404e000000000000
  005ba	f2 0f 58 cb	 addsd	 xmm1, xmm3
  005be	f2 0f 5f cb	 maxsd	 xmm1, xmm3
  005c2	66 0f 5a c1	 cvtpd2ps xmm0, xmm1

; 830  : 						m_pyBackground.SetViewDistanceSet(0, fDistance);
; 831  : 					}

  005c6	eb 11		 jmp	 SHORT $LN22@Process
$LN36@Process:
  005c8	66 0f 6e c0	 movd	 xmm0, eax

; 832  : 					//   
; 833  : 					else
; 834  : 					{
; 835  : 						m_pyBackground.SetViewDistanceSet(0, float(m_iForceSightRange));

  005cc	0f 5b c0	 cvtdq2ps xmm0, xmm0

; 836  : 					}
; 837  : 				}

  005cf	eb 08		 jmp	 SHORT $LN22@Process
$LN21@Process:

; 838  : 				else
; 839  : 				{
; 840  : 					// 10000       
; 841  : 					m_pyBackground.SetViewDistanceSet(0, 25600.0f);

  005d1	f3 0f 10 05 00
	00 00 00	 movss	 xmm0, DWORD PTR __real@46c80000
$LN22@Process:

; 842  : 				}
; 843  : 
; 844  : 				++s_dwRenderFrameCount;

  005d9	51		 push	 ecx
  005da	f3 0f 11 04 24	 movss	 DWORD PTR [esp], xmm0
  005df	8d 8f 4c a9 01
	00		 lea	 ecx, DWORD PTR [edi+108876]
  005e5	6a 00		 push	 0
  005e7	e8 00 00 00 00	 call	 ?SetViewDistanceSet@CPythonBackground@@QAEXHM@Z ; CPythonBackground::SetViewDistanceSet
  005ec	ff 05 00 00 00
	00		 inc	 DWORD PTR ?s_dwRenderFrameCount@?1??Process@CPythonApplication@@QAE_NXZ@4KA
$LN47@Process:

; 845  : 			}
; 846  : 		}
; 847  : 	}
; 848  : 
; 849  : 	int rest = s_uiNextFrameTime - ELTimer_GetMSec();

  005f2	8b 5d f0	 mov	 ebx, DWORD PTR _bCurrentLateUpdate$1$[ebp]
$LN19@Process:
  005f5	e8 00 00 00 00	 call	 ?ELTimer_GetMSec@@YAKXZ	; ELTimer_GetMSec
  005fa	8b 0d 00 00 00
	00		 mov	 ecx, DWORD PTR ?s_uiNextFrameTime@?1??Process@CPythonApplication@@QAE_NXZ@4IA
  00600	2b c8		 sub	 ecx, eax

; 850  : 
; 851  : 	if (rest > 0 && !bCurrentLateUpdate )

  00602	85 c9		 test	 ecx, ecx
  00604	7e 11		 jle	 SHORT $LN38@Process
  00606	85 db		 test	 ebx, ebx
  00608	75 0d		 jne	 SHORT $LN38@Process

; 852  : 	{
; 853  : 		s_uiLoad -= rest;	//    ..

  0060a	29 0d 00 00 00
	00		 sub	 DWORD PTR ?s_uiLoad@?1??Process@CPythonApplication@@QAE_NXZ@4IA, ecx

; 854  : 		Sleep(rest);

  00610	51		 push	 ecx
  00611	ff 15 00 00 00
	00		 call	 DWORD PTR __imp__Sleep@4
$LN38@Process:

; 855  : 	}	
; 856  : 
; 857  : 	++s_dwUpdateFrameCount;

  00617	ff 05 00 00 00
	00		 inc	 DWORD PTR ?s_dwUpdateFrameCount@?1??Process@CPythonApplication@@QAE_NXZ@4KA

; 858  : 
; 859  : 	s_uiLoad += ELTimer_GetMSec() - dwStart;

  0061d	e8 00 00 00 00	 call	 ?ELTimer_GetMSec@@YAKXZ	; ELTimer_GetMSec
  00622	2b 45 e0	 sub	 eax, DWORD PTR _dwStart$1$[ebp]
  00625	01 05 00 00 00
	00		 add	 DWORD PTR ?s_uiLoad@?1??Process@CPythonApplication@@QAE_NXZ@4IA, eax

; 860  : 	//m_Profiler.ProfileByScreen();	
; 861  : 	return true;

  0062b	b0 01		 mov	 al, 1

; 862  : }

  0062d	8b 4d f4	 mov	 ecx, DWORD PTR __$EHRec$[ebp]
  00630	64 89 0d 00 00
	00 00		 mov	 DWORD PTR fs:0, ecx
  00637	59		 pop	 ecx
  00638	5f		 pop	 edi
  00639	5e		 pop	 esi
  0063a	5b		 pop	 ebx
  0063b	8b e5		 mov	 esp, ebp
  0063d	5d		 pop	 ebp
  0063e	c3		 ret	 0
$LN51@Process:

; 416  : 
; 417  : 	///////////////////////////////////////////////////////////////////////////////////////////////////
; 418  : 	static DWORD	s_dwUpdateFrameCount = 0;
; 419  : 	static DWORD	s_dwRenderFrameCount = 0;
; 420  : 	static DWORD	s_dwFaceCount = 0;
; 421  : 	static UINT		s_uiLoad = 0;
; 422  : 	static DWORD	s_dwCheckTime = ELTimer_GetMSec();

  0063f	68 00 00 00 00	 push	 OFFSET ?$TSS0@?1??Process@CPythonApplication@@QAE_NXZ@4HA
  00644	e8 00 00 00 00	 call	 __Init_thread_header
  00649	83 c4 04	 add	 esp, 4
  0064c	83 3d 00 00 00
	00 ff		 cmp	 DWORD PTR ?$TSS0@?1??Process@CPythonApplication@@QAE_NXZ@4HA, -1
  00653	0f 85 03 fa ff
	ff		 jne	 $LN2@Process
  00659	c7 45 fc 00 00
	00 00		 mov	 DWORD PTR __$EHRec$[ebp+8], 0
  00660	e8 00 00 00 00	 call	 ?ELTimer_GetMSec@@YAKXZ	; ELTimer_GetMSec
  00665	68 00 00 00 00	 push	 OFFSET ?$TSS0@?1??Process@CPythonApplication@@QAE_NXZ@4HA
  0066a	a3 00 00 00 00	 mov	 DWORD PTR ?s_dwCheckTime@?1??Process@CPythonApplication@@QAE_NXZ@4KA, eax
  0066f	c7 45 fc ff ff
	ff ff		 mov	 DWORD PTR __$EHRec$[ebp+8], -1
  00676	e8 00 00 00 00	 call	 __Init_thread_footer
  0067b	83 c4 04	 add	 esp, 4
  0067e	e9 d9 f9 ff ff	 jmp	 $LN2@Process
$LN52@Process:

; 435  : 	}
; 436  : 
; 437  : 	// Update Time
; 438  : 	static BOOL s_bFrameSkip = false;
; 439  : 	static UINT s_uiNextFrameTime = ELTimer_GetMSec();

  00683	68 00 00 00 00	 push	 OFFSET ?$TSS1@?1??Process@CPythonApplication@@QAE_NXZ@4HA
  00688	e8 00 00 00 00	 call	 __Init_thread_header
  0068d	83 c4 04	 add	 esp, 4
  00690	83 3d 00 00 00
	00 ff		 cmp	 DWORD PTR ?$TSS1@?1??Process@CPythonApplication@@QAE_NXZ@4HA, -1
  00697	0f 85 4f fa ff
	ff		 jne	 $LN3@Process
  0069d	c7 45 fc 01 00
	00 00		 mov	 DWORD PTR __$EHRec$[ebp+8], 1
  006a4	e8 00 00 00 00	 call	 ?ELTimer_GetMSec@@YAKXZ	; ELTimer_GetMSec
  006a9	68 00 00 00 00	 push	 OFFSET ?$TSS1@?1??Process@CPythonApplication@@QAE_NXZ@4HA
  006ae	a3 00 00 00 00	 mov	 DWORD PTR ?s_uiNextFrameTime@?1??Process@CPythonApplication@@QAE_NXZ@4IA, eax
  006b3	c7 45 fc ff ff
	ff ff		 mov	 DWORD PTR __$EHRec$[ebp+8], -1
  006ba	e8 00 00 00 00	 call	 __Init_thread_footer
  006bf	83 c4 04	 add	 esp, 4
  006c2	e9 25 fa ff ff	 jmp	 $LN3@Process
$LN53@Process:

; 742  : 
; 743  : 				static DWORD s_dwRenderCheckTime = dwRenderEndTime;

  006c7	68 00 00 00 00	 push	 OFFSET ?$TSS2@?CJ@??Process@CPythonApplication@@QAE_NXZ@4HA
  006cc	e8 00 00 00 00	 call	 __Init_thread_header
  006d1	83 c4 04	 add	 esp, 4
  006d4	83 3d 00 00 00
	00 ff		 cmp	 DWORD PTR ?$TSS2@?CJ@??Process@CPythonApplication@@QAE_NXZ@4HA, -1
  006db	0f 85 85 fc ff
	ff		 jne	 $LN4@Process
  006e1	68 00 00 00 00	 push	 OFFSET ?$TSS2@?CJ@??Process@CPythonApplication@@QAE_NXZ@4HA
  006e6	89 1d 00 00 00
	00		 mov	 DWORD PTR ?s_dwRenderCheckTime@?CJ@??Process@CPythonApplication@@QAE_NXZ@4KA, ebx
  006ec	e8 00 00 00 00	 call	 __Init_thread_footer
  006f1	83 c4 04	 add	 esp, 4
  006f4	e9 6d fc ff ff	 jmp	 $LN4@Process
_TEXT	ENDS
;	COMDAT text$x
text$x	SEGMENT
__unwindfunclet$?Process@CPythonApplication@@QAE_NXZ$0:
  00000	68 00 00 00 00	 push	 OFFSET ?$TSS0@?1??Process@CPythonApplication@@QAE_NXZ@4HA
  00005	e8 00 00 00 00	 call	 __Init_thread_abort
  0000a	59		 pop	 ecx
  0000b	c3		 ret	 0
__unwindfunclet$?Process@CPythonApplication@@QAE_NXZ$1:
  0000c	68 00 00 00 00	 push	 OFFSET ?$TSS1@?1??Process@CPythonApplication@@QAE_NXZ@4HA
  00011	e8 00 00 00 00	 call	 __Init_thread_abort
  00016	59		 pop	 ecx
  00017	c3		 ret	 0
  00018	cc		 int	 3
  00019	cc		 int	 3
  0001a	cc		 int	 3
  0001b	cc		 int	 3
  0001c	cc		 int	 3
__ehhandler$?Process@CPythonApplication@@QAE_NXZ:
  0001d	90		 npad	 1
  0001e	90		 npad	 1
  0001f	8b 54 24 08	 mov	 edx, DWORD PTR [esp+8]
  00023	8d 42 0c	 lea	 eax, DWORD PTR [edx+12]
  00026	8b 4a d4	 mov	 ecx, DWORD PTR [edx-44]
  00029	33 c8		 xor	 ecx, eax
  0002b	e8 00 00 00 00	 call	 @__security_check_cookie@4
  00030	b8 00 00 00 00	 mov	 eax, OFFSET __ehfuncinfo$?Process@CPythonApplication@@QAE_NXZ
  00035	e9 00 00 00 00	 jmp	 ___CxxFrameHandler3
text$x	ENDS
?Process@CPythonApplication@@QAE_NXZ ENDP		; CPythonApplication::Process
; Function compile flags: /Ogtp
; File D:\Metin2 Server Files\mainline\SRC_2014\Metin2Client\UserInterface\PythonApplication.cpp
;	COMDAT ?RenderGame@CPythonApplication@@QAEXXZ
_TEXT	SEGMENT
_t17$1$ = -68						; size = 4
_t13$1$ = -64						; size = 4
_t12$1$ = -60						; size = 4
_t10$1$ = -56						; size = 4
_t9$1$ = -52						; size = 4
_t6$1$ = -48						; size = 4
_t5$1$ = -44						; size = 4
_t4$1$ = -40						; size = 4
_t3$1$ = -36						; size = 4
_t2$1$ = -32						; size = 4
_t1$1$ = -28						; size = 4
_t7$1$ = -24						; size = 4
_ly$1 = -24						; size = 4
_fFarClip$ = -24					; size = 4
_ly$2 = -24						; size = 4
_fAspect$3 = -24					; size = 4
_t8$1$ = -20						; size = 4
_lx$4 = -20						; size = 4
_fAspect$ = -20						; size = 4
_lx$5 = -20						; size = 4
_fFarClip$6 = -20					; size = 4
_t16$1$ = -16						; size = 4
tv467 = -16						; size = 4
_t15$1$ = -12						; size = 4
tv468 = -12						; size = 4
_t14$1$ = -8						; size = 4
tv469 = -8						; size = 4
_t11$1$ = -4						; size = 4
tv466 = -4						; size = 4
?RenderGame@CPythonApplication@@QAEXXZ PROC		; CPythonApplication::RenderGame, COMDAT
; _this$ = ecx

; 169  : {	

  00000	55		 push	 ebp
  00001	8b ec		 mov	 ebp, esp
  00003	83 ec 44	 sub	 esp, 68			; 00000044H

; 170  : 	if (!PERF_CHECKER_RENDER_GAME)

  00006	80 3d 00 00 00
	00 00		 cmp	 BYTE PTR ?PERF_CHECKER_RENDER_GAME@@3_NA, 0 ; PERF_CHECKER_RENDER_GAME
  0000d	8d 81 b0 02 00
	00		 lea	 eax, DWORD PTR [ecx+688]
  00013	89 45 f8	 mov	 DWORD PTR tv469[ebp], eax
  00016	8d 81 e0 81 01
	00		 lea	 eax, DWORD PTR [ecx+98784]
  0001c	53		 push	 ebx
  0001d	89 45 f4	 mov	 DWORD PTR tv468[ebp], eax
  00020	8d 99 10 02 00
	00		 lea	 ebx, DWORD PTR [ecx+528]
  00026	8d 81 5c 01 00
	00		 lea	 eax, DWORD PTR [ecx+348]
  0002c	56		 push	 esi
  0002d	89 45 f0	 mov	 DWORD PTR tv467[ebp], eax
  00030	8d b1 4c a9 01
	00		 lea	 esi, DWORD PTR [ecx+108876]
  00036	8d 81 d8 02 00
	00		 lea	 eax, DWORD PTR [ecx+728]
  0003c	57		 push	 edi
  0003d	8d b9 9c 07 00
	00		 lea	 edi, DWORD PTR [ecx+1948]
  00043	89 45 fc	 mov	 DWORD PTR tv466[ebp], eax
  00046	0f 85 1f 01 00
	00		 jne	 $LN3@RenderGame

; 171  : 	{
; 172  : 		float fAspect=m_kWndMgr.GetAspect();

  0004c	8b cb		 mov	 ecx, ebx
  0004e	e8 00 00 00 00	 call	 ?GetAspect@CWindowManager@UI@@QAEMXZ ; UI::CWindowManager::GetAspect
  00053	d9 5d e8	 fstp	 DWORD PTR _fAspect$3[ebp]

; 173  : 		float fFarClip=m_pyBackground.GetFarClip();

  00056	8b ce		 mov	 ecx, esi
  00058	e8 00 00 00 00	 call	 ?GetFarClip@CPythonBackground@@QAEMXZ ; CPythonBackground::GetFarClip

; 174  : 
; 175  : 		m_pyGraphic.SetPerspective(30.0f, fAspect, 100.0, fFarClip);

  0005d	83 ec 10	 sub	 esp, 16			; 00000010H
  00060	8b cf		 mov	 ecx, edi
  00062	d9 5d ec	 fstp	 DWORD PTR _fFarClip$6[ebp]
  00065	f3 0f 10 45 ec	 movss	 xmm0, DWORD PTR _fFarClip$6[ebp]
  0006a	f3 0f 11 44 24
	0c		 movss	 DWORD PTR [esp+12], xmm0
  00070	f3 0f 10 45 e8	 movss	 xmm0, DWORD PTR _fAspect$3[ebp]
  00075	c7 44 24 08 00
	00 c8 42	 mov	 DWORD PTR [esp+8], 1120403456 ; 42c80000H
  0007d	f3 0f 11 44 24
	04		 movss	 DWORD PTR [esp+4], xmm0
  00083	c7 04 24 00 00
	f0 41		 mov	 DWORD PTR [esp], 1106247680 ; 41f00000H
  0008a	e8 00 00 00 00	 call	 ?SetPerspective@CGraphicBase@@QAEXMMMM@Z ; CGraphicBase::SetPerspective

; 176  : 
; 177  : 		CCullingManager::Instance().Process();

  0008f	8b 0d 00 00 00
	00		 mov	 ecx, DWORD PTR ?ms_singleton@?$CSingleton@VCCullingManager@@@@0PAVCCullingManager@@A ; CSingleton<CCullingManager>::ms_singleton
  00095	e8 00 00 00 00	 call	 ?Process@CCullingManager@@QAEXXZ ; CCullingManager::Process

; 178  : 
; 179  : 		m_kChrMgr.Deform();

  0009a	8b 4d fc	 mov	 ecx, DWORD PTR tv466[ebp]
  0009d	e8 00 00 00 00	 call	 ?Deform@CPythonCharacterManager@@QAEXXZ ; CPythonCharacterManager::Deform

; 180  : 		m_kEftMgr.Update();

  000a2	8b 4d f8	 mov	 ecx, DWORD PTR tv469[ebp]
  000a5	e8 00 00 00 00	 call	 ?Update@CEffectManager@@QAEXXZ ; CEffectManager::Update

; 181  : 
; 182  : 		m_pyBackground.RenderCharacterShadowToTexture();

  000aa	8b ce		 mov	 ecx, esi
  000ac	e8 00 00 00 00	 call	 ?RenderCharacterShadowToTexture@CPythonBackground@@QAEXXZ ; CPythonBackground::RenderCharacterShadowToTexture

; 183  : 
; 184  : 		m_pyGraphic.SetGameRenderState();

  000b1	8b cf		 mov	 ecx, edi
  000b3	e8 00 00 00 00	 call	 ?SetGameRenderState@CPythonGraphic@@QAEXXZ ; CPythonGraphic::SetGameRenderState

; 185  : 		m_pyGraphic.PushState();

  000b8	8b cf		 mov	 ecx, edi
  000ba	e8 00 00 00 00	 call	 ?PushState@CPythonGraphic@@QAEXXZ ; CPythonGraphic::PushState

; 186  : 
; 187  : 		{
; 188  : 			long lx, ly;
; 189  : 			m_kWndMgr.GetMousePosition(lx, ly);

  000bf	8d 45 e8	 lea	 eax, DWORD PTR _ly$2[ebp]
  000c2	8b cb		 mov	 ecx, ebx
  000c4	50		 push	 eax
  000c5	8d 45 ec	 lea	 eax, DWORD PTR _lx$5[ebp]
  000c8	50		 push	 eax
  000c9	e8 00 00 00 00	 call	 ?GetMousePosition@CWindowManager@UI@@QAEXAAJ0@Z ; UI::CWindowManager::GetMousePosition

; 190  : 			m_pyGraphic.SetCursorPosition(lx, ly);

  000ce	ff 75 e8	 push	 DWORD PTR _ly$2[ebp]
  000d1	8b cf		 mov	 ecx, edi
  000d3	ff 75 ec	 push	 DWORD PTR _lx$5[ebp]
  000d6	e8 00 00 00 00	 call	 ?SetCursorPosition@CPythonGraphic@@QAEXHH@Z ; CPythonGraphic::SetCursorPosition

; 191  : 		}
; 192  : 
; 193  : 		m_pyBackground.RenderSky();

  000db	8b ce		 mov	 ecx, esi
  000dd	e8 00 00 00 00	 call	 ?RenderSky@CPythonBackground@@QAEXXZ ; CPythonBackground::RenderSky

; 194  : 
; 195  : 		m_pyBackground.RenderBeforeLensFlare();

  000e2	8b ce		 mov	 ecx, esi
  000e4	e8 00 00 00 00	 call	 ?RenderBeforeLensFlare@CPythonBackground@@QAEXXZ ; CPythonBackground::RenderBeforeLensFlare

; 196  : 
; 197  : 		m_pyBackground.RenderCloud();

  000e9	8b ce		 mov	 ecx, esi
  000eb	e8 00 00 00 00	 call	 ?RenderCloud@CPythonBackground@@QAEXXZ ; CPythonBackground::RenderCloud

; 198  : 
; 199  : 		m_pyBackground.BeginEnvironment();

  000f0	8b ce		 mov	 ecx, esi
  000f2	e8 00 00 00 00	 call	 ?BeginEnvironment@CMapManager@@QAEXXZ ; CMapManager::BeginEnvironment

; 200  : 		m_pyBackground.Render();

  000f7	8b ce		 mov	 ecx, esi
  000f9	e8 00 00 00 00	 call	 ?Render@CPythonBackground@@QAEXXZ ; CPythonBackground::Render

; 201  : 
; 202  : 		m_pyBackground.SetCharacterDirLight();

  000fe	8b ce		 mov	 ecx, esi
  00100	e8 00 00 00 00	 call	 ?SetCharacterDirLight@CPythonBackground@@QAEXXZ ; CPythonBackground::SetCharacterDirLight

; 203  : 		m_kChrMgr.Render();

  00105	8b 4d fc	 mov	 ecx, DWORD PTR tv466[ebp]
  00108	e8 00 00 00 00	 call	 ?Render@CPythonCharacterManager@@QAEXXZ ; CPythonCharacterManager::Render

; 204  : 
; 205  : 		m_pyBackground.SetBackgroundDirLight();

  0010d	8b ce		 mov	 ecx, esi
  0010f	e8 00 00 00 00	 call	 ?SetBackgroundDirLight@CPythonBackground@@QAEXXZ ; CPythonBackground::SetBackgroundDirLight

; 206  : 		m_pyBackground.RenderWater();

  00114	8b ce		 mov	 ecx, esi
  00116	e8 00 00 00 00	 call	 ?RenderWater@CPythonBackground@@QAEXXZ ; CPythonBackground::RenderWater

; 207  : 		m_pyBackground.RenderSnow();

  0011b	8b ce		 mov	 ecx, esi
  0011d	e8 00 00 00 00	 call	 ?RenderSnow@CPythonBackground@@QAEXXZ ; CPythonBackground::RenderSnow

; 208  : 		m_pyBackground.RenderEffect();

  00122	8b ce		 mov	 ecx, esi
  00124	e8 00 00 00 00	 call	 ?RenderEffect@CPythonBackground@@QAEXXZ ; CPythonBackground::RenderEffect

; 209  : 
; 210  : 		m_pyBackground.EndEnvironment();

  00129	8b ce		 mov	 ecx, esi
  0012b	e8 00 00 00 00	 call	 ?EndEnvironment@CMapManager@@QAEXXZ ; CMapManager::EndEnvironment

; 211  : 
; 212  : 		m_kEftMgr.Render();

  00130	8b 4d f8	 mov	 ecx, DWORD PTR tv469[ebp]
  00133	e8 00 00 00 00	 call	 ?Render@CEffectManager@@QAEXXZ ; CEffectManager::Render

; 213  : 		m_pyItem.Render();

  00138	8b 4d f4	 mov	 ecx, DWORD PTR tv468[ebp]
  0013b	e8 00 00 00 00	 call	 ?Render@CPythonItem@@QAEXXZ ; CPythonItem::Render

; 214  : 		m_FlyingManager.Render();

  00140	8b 4d f0	 mov	 ecx, DWORD PTR tv467[ebp]
  00143	e8 00 00 00 00	 call	 ?Render@CFlyingManager@@QAEXXZ ; CFlyingManager::Render

; 215  : 
; 216  : 		m_pyBackground.BeginEnvironment();

  00148	8b ce		 mov	 ecx, esi
  0014a	e8 00 00 00 00	 call	 ?BeginEnvironment@CMapManager@@QAEXXZ ; CMapManager::BeginEnvironment

; 217  : 		m_pyBackground.RenderPCBlocker();

  0014f	8b ce		 mov	 ecx, esi
  00151	e8 00 00 00 00	 call	 ?RenderPCBlocker@CPythonBackground@@QAEXXZ ; CPythonBackground::RenderPCBlocker

; 218  : 		m_pyBackground.EndEnvironment();

  00156	8b ce		 mov	 ecx, esi
  00158	e8 00 00 00 00	 call	 ?EndEnvironment@CMapManager@@QAEXXZ ; CMapManager::EndEnvironment

; 219  : 
; 220  : 		m_pyBackground.RenderAfterLensFlare();

  0015d	8b ce		 mov	 ecx, esi
  0015f	e8 00 00 00 00	 call	 ?RenderAfterLensFlare@CPythonBackground@@QAEXXZ ; CPythonBackground::RenderAfterLensFlare
  00164	5f		 pop	 edi

; 319  : }

  00165	5e		 pop	 esi
  00166	5b		 pop	 ebx
  00167	8b e5		 mov	 esp, ebp
  00169	5d		 pop	 ebp
  0016a	c3		 ret	 0
$LN3@RenderGame:

; 221  : 
; 222  : 		return;
; 223  : 	}
; 224  : 
; 225  : 	//if (GetAsyncKeyState(VK_Z))
; 226  : 	//	STATEMANAGER.SetRenderState(D3DRS_FILLMODE, D3DFILL_WIREFRAME);
; 227  : 
; 228  : 	DWORD t1=ELTimer_GetMSec();

  0016b	e8 00 00 00 00	 call	 ?ELTimer_GetMSec@@YAKXZ	; ELTimer_GetMSec

; 229  : 	m_kChrMgr.Deform();

  00170	8b 4d fc	 mov	 ecx, DWORD PTR tv466[ebp]
  00173	89 45 e4	 mov	 DWORD PTR _t1$1$[ebp], eax
  00176	e8 00 00 00 00	 call	 ?Deform@CPythonCharacterManager@@QAEXXZ ; CPythonCharacterManager::Deform

; 230  : 	DWORD t2=ELTimer_GetMSec();

  0017b	e8 00 00 00 00	 call	 ?ELTimer_GetMSec@@YAKXZ	; ELTimer_GetMSec

; 231  : 	m_kEftMgr.Update();

  00180	8b 4d f8	 mov	 ecx, DWORD PTR tv469[ebp]
  00183	89 45 e0	 mov	 DWORD PTR _t2$1$[ebp], eax
  00186	e8 00 00 00 00	 call	 ?Update@CEffectManager@@QAEXXZ ; CEffectManager::Update

; 232  : 	DWORD t3=ELTimer_GetMSec();

  0018b	e8 00 00 00 00	 call	 ?ELTimer_GetMSec@@YAKXZ	; ELTimer_GetMSec

; 233  : 	m_pyBackground.RenderCharacterShadowToTexture();

  00190	8b ce		 mov	 ecx, esi
  00192	89 45 dc	 mov	 DWORD PTR _t3$1$[ebp], eax
  00195	e8 00 00 00 00	 call	 ?RenderCharacterShadowToTexture@CPythonBackground@@QAEXXZ ; CPythonBackground::RenderCharacterShadowToTexture

; 234  : 	DWORD t4=ELTimer_GetMSec();

  0019a	e8 00 00 00 00	 call	 ?ELTimer_GetMSec@@YAKXZ	; ELTimer_GetMSec

; 235  : 
; 236  : 	m_pyGraphic.SetGameRenderState();

  0019f	8b cf		 mov	 ecx, edi
  001a1	89 45 d8	 mov	 DWORD PTR _t4$1$[ebp], eax
  001a4	e8 00 00 00 00	 call	 ?SetGameRenderState@CPythonGraphic@@QAEXXZ ; CPythonGraphic::SetGameRenderState

; 237  : 	m_pyGraphic.PushState();

  001a9	8b cf		 mov	 ecx, edi
  001ab	e8 00 00 00 00	 call	 ?PushState@CPythonGraphic@@QAEXXZ ; CPythonGraphic::PushState

; 238  : 
; 239  : 	float fAspect=m_kWndMgr.GetAspect();

  001b0	8b cb		 mov	 ecx, ebx
  001b2	e8 00 00 00 00	 call	 ?GetAspect@CWindowManager@UI@@QAEMXZ ; UI::CWindowManager::GetAspect
  001b7	d9 5d ec	 fstp	 DWORD PTR _fAspect$[ebp]

; 240  : 	float fFarClip=m_pyBackground.GetFarClip();

  001ba	8b ce		 mov	 ecx, esi
  001bc	e8 00 00 00 00	 call	 ?GetFarClip@CPythonBackground@@QAEMXZ ; CPythonBackground::GetFarClip

; 241  : 
; 242  : 	m_pyGraphic.SetPerspective(30.0f, fAspect, 100.0, fFarClip);

  001c1	83 ec 10	 sub	 esp, 16			; 00000010H
  001c4	8b cf		 mov	 ecx, edi
  001c6	d9 5d e8	 fstp	 DWORD PTR _fFarClip$[ebp]
  001c9	f3 0f 10 45 e8	 movss	 xmm0, DWORD PTR _fFarClip$[ebp]
  001ce	f3 0f 11 44 24
	0c		 movss	 DWORD PTR [esp+12], xmm0
  001d4	f3 0f 10 45 ec	 movss	 xmm0, DWORD PTR _fAspect$[ebp]
  001d9	c7 44 24 08 00
	00 c8 42	 mov	 DWORD PTR [esp+8], 1120403456 ; 42c80000H
  001e1	f3 0f 11 44 24
	04		 movss	 DWORD PTR [esp+4], xmm0
  001e7	c7 04 24 00 00
	f0 41		 mov	 DWORD PTR [esp], 1106247680 ; 41f00000H
  001ee	e8 00 00 00 00	 call	 ?SetPerspective@CGraphicBase@@QAEXMMMM@Z ; CGraphicBase::SetPerspective

; 243  : 
; 244  : 	DWORD t5=ELTimer_GetMSec();

  001f3	e8 00 00 00 00	 call	 ?ELTimer_GetMSec@@YAKXZ	; ELTimer_GetMSec

; 245  : 
; 246  : 	CCullingManager::Instance().Process();

  001f8	8b 0d 00 00 00
	00		 mov	 ecx, DWORD PTR ?ms_singleton@?$CSingleton@VCCullingManager@@@@0PAVCCullingManager@@A ; CSingleton<CCullingManager>::ms_singleton
  001fe	89 45 d4	 mov	 DWORD PTR _t5$1$[ebp], eax
  00201	e8 00 00 00 00	 call	 ?Process@CCullingManager@@QAEXXZ ; CCullingManager::Process

; 247  : 
; 248  : 	DWORD t6=ELTimer_GetMSec();

  00206	e8 00 00 00 00	 call	 ?ELTimer_GetMSec@@YAKXZ	; ELTimer_GetMSec
  0020b	89 45 d0	 mov	 DWORD PTR _t6$1$[ebp], eax

; 249  : 
; 250  : 	{
; 251  : 		long lx, ly;
; 252  : 		m_kWndMgr.GetMousePosition(lx, ly);

  0020e	8b cb		 mov	 ecx, ebx
  00210	8d 45 e8	 lea	 eax, DWORD PTR _ly$1[ebp]
  00213	50		 push	 eax
  00214	8d 45 ec	 lea	 eax, DWORD PTR _lx$4[ebp]
  00217	50		 push	 eax
  00218	e8 00 00 00 00	 call	 ?GetMousePosition@CWindowManager@UI@@QAEXAAJ0@Z ; UI::CWindowManager::GetMousePosition

; 253  : 		m_pyGraphic.SetCursorPosition(lx, ly);

  0021d	ff 75 e8	 push	 DWORD PTR _ly$1[ebp]
  00220	8b cf		 mov	 ecx, edi
  00222	ff 75 ec	 push	 DWORD PTR _lx$4[ebp]
  00225	e8 00 00 00 00	 call	 ?SetCursorPosition@CPythonGraphic@@QAEXHH@Z ; CPythonGraphic::SetCursorPosition

; 254  : 	}
; 255  : 
; 256  : 	m_pyBackground.RenderSky();

  0022a	8b ce		 mov	 ecx, esi
  0022c	e8 00 00 00 00	 call	 ?RenderSky@CPythonBackground@@QAEXXZ ; CPythonBackground::RenderSky

; 257  : 	DWORD t7=ELTimer_GetMSec();

  00231	e8 00 00 00 00	 call	 ?ELTimer_GetMSec@@YAKXZ	; ELTimer_GetMSec

; 258  : 	m_pyBackground.RenderBeforeLensFlare();

  00236	8b ce		 mov	 ecx, esi
  00238	89 45 e8	 mov	 DWORD PTR _t7$1$[ebp], eax
  0023b	e8 00 00 00 00	 call	 ?RenderBeforeLensFlare@CPythonBackground@@QAEXXZ ; CPythonBackground::RenderBeforeLensFlare

; 259  : 	DWORD t8=ELTimer_GetMSec();

  00240	e8 00 00 00 00	 call	 ?ELTimer_GetMSec@@YAKXZ	; ELTimer_GetMSec

; 260  : 	m_pyBackground.RenderCloud();

  00245	8b ce		 mov	 ecx, esi
  00247	89 45 ec	 mov	 DWORD PTR _t8$1$[ebp], eax
  0024a	e8 00 00 00 00	 call	 ?RenderCloud@CPythonBackground@@QAEXXZ ; CPythonBackground::RenderCloud

; 261  : 	DWORD t9=ELTimer_GetMSec();

  0024f	e8 00 00 00 00	 call	 ?ELTimer_GetMSec@@YAKXZ	; ELTimer_GetMSec

; 262  : 	m_pyBackground.BeginEnvironment();

  00254	8b ce		 mov	 ecx, esi
  00256	89 45 cc	 mov	 DWORD PTR _t9$1$[ebp], eax
  00259	e8 00 00 00 00	 call	 ?BeginEnvironment@CMapManager@@QAEXXZ ; CMapManager::BeginEnvironment

; 263  : 	m_pyBackground.Render();

  0025e	8b ce		 mov	 ecx, esi
  00260	e8 00 00 00 00	 call	 ?Render@CPythonBackground@@QAEXXZ ; CPythonBackground::Render

; 264  : 
; 265  : 	m_pyBackground.SetCharacterDirLight();

  00265	8b ce		 mov	 ecx, esi
  00267	e8 00 00 00 00	 call	 ?SetCharacterDirLight@CPythonBackground@@QAEXXZ ; CPythonBackground::SetCharacterDirLight

; 266  : 	DWORD t10=ELTimer_GetMSec();

  0026c	e8 00 00 00 00	 call	 ?ELTimer_GetMSec@@YAKXZ	; ELTimer_GetMSec

; 267  : 	m_kChrMgr.Render();

  00271	8b 4d fc	 mov	 ecx, DWORD PTR tv466[ebp]
  00274	89 45 c8	 mov	 DWORD PTR _t10$1$[ebp], eax
  00277	e8 00 00 00 00	 call	 ?Render@CPythonCharacterManager@@QAEXXZ ; CPythonCharacterManager::Render

; 268  : 	DWORD t11=ELTimer_GetMSec();

  0027c	e8 00 00 00 00	 call	 ?ELTimer_GetMSec@@YAKXZ	; ELTimer_GetMSec

; 269  : 
; 270  : 	m_pyBackground.SetBackgroundDirLight();

  00281	8b ce		 mov	 ecx, esi
  00283	89 45 fc	 mov	 DWORD PTR _t11$1$[ebp], eax
  00286	e8 00 00 00 00	 call	 ?SetBackgroundDirLight@CPythonBackground@@QAEXXZ ; CPythonBackground::SetBackgroundDirLight

; 271  : 	m_pyBackground.RenderWater();

  0028b	8b ce		 mov	 ecx, esi
  0028d	e8 00 00 00 00	 call	 ?RenderWater@CPythonBackground@@QAEXXZ ; CPythonBackground::RenderWater

; 272  : 	DWORD t12=ELTimer_GetMSec();

  00292	e8 00 00 00 00	 call	 ?ELTimer_GetMSec@@YAKXZ	; ELTimer_GetMSec

; 273  : 	m_pyBackground.RenderEffect();

  00297	8b ce		 mov	 ecx, esi
  00299	89 45 c4	 mov	 DWORD PTR _t12$1$[ebp], eax
  0029c	e8 00 00 00 00	 call	 ?RenderEffect@CPythonBackground@@QAEXXZ ; CPythonBackground::RenderEffect

; 274  : 	DWORD t13=ELTimer_GetMSec();

  002a1	e8 00 00 00 00	 call	 ?ELTimer_GetMSec@@YAKXZ	; ELTimer_GetMSec

; 275  : 	m_pyBackground.EndEnvironment();

  002a6	8b ce		 mov	 ecx, esi
  002a8	89 45 c0	 mov	 DWORD PTR _t13$1$[ebp], eax
  002ab	e8 00 00 00 00	 call	 ?EndEnvironment@CMapManager@@QAEXXZ ; CMapManager::EndEnvironment

; 276  : 	m_kEftMgr.Render();

  002b0	8b 4d f8	 mov	 ecx, DWORD PTR tv469[ebp]
  002b3	e8 00 00 00 00	 call	 ?Render@CEffectManager@@QAEXXZ ; CEffectManager::Render

; 277  : 	DWORD t14=ELTimer_GetMSec();

  002b8	e8 00 00 00 00	 call	 ?ELTimer_GetMSec@@YAKXZ	; ELTimer_GetMSec

; 278  : 	m_pyItem.Render();

  002bd	8b 4d f4	 mov	 ecx, DWORD PTR tv468[ebp]
  002c0	89 45 f8	 mov	 DWORD PTR _t14$1$[ebp], eax
  002c3	e8 00 00 00 00	 call	 ?Render@CPythonItem@@QAEXXZ ; CPythonItem::Render

; 279  : 	DWORD t15=ELTimer_GetMSec();

  002c8	e8 00 00 00 00	 call	 ?ELTimer_GetMSec@@YAKXZ	; ELTimer_GetMSec

; 280  : 	m_FlyingManager.Render();

  002cd	8b 4d f0	 mov	 ecx, DWORD PTR tv467[ebp]
  002d0	89 45 f4	 mov	 DWORD PTR _t15$1$[ebp], eax
  002d3	e8 00 00 00 00	 call	 ?Render@CFlyingManager@@QAEXXZ ; CFlyingManager::Render

; 281  : 	DWORD t16=ELTimer_GetMSec();

  002d8	e8 00 00 00 00	 call	 ?ELTimer_GetMSec@@YAKXZ	; ELTimer_GetMSec

; 282  : 	m_pyBackground.BeginEnvironment();

  002dd	8b ce		 mov	 ecx, esi
  002df	89 45 f0	 mov	 DWORD PTR _t16$1$[ebp], eax
  002e2	e8 00 00 00 00	 call	 ?BeginEnvironment@CMapManager@@QAEXXZ ; CMapManager::BeginEnvironment

; 283  : 	m_pyBackground.RenderPCBlocker();

  002e7	8b ce		 mov	 ecx, esi
  002e9	e8 00 00 00 00	 call	 ?RenderPCBlocker@CPythonBackground@@QAEXXZ ; CPythonBackground::RenderPCBlocker

; 284  : 	m_pyBackground.EndEnvironment();

  002ee	8b ce		 mov	 ecx, esi
  002f0	e8 00 00 00 00	 call	 ?EndEnvironment@CMapManager@@QAEXXZ ; CMapManager::EndEnvironment

; 285  : 	DWORD t17=ELTimer_GetMSec();

  002f5	e8 00 00 00 00	 call	 ?ELTimer_GetMSec@@YAKXZ	; ELTimer_GetMSec

; 286  : 	m_pyBackground.RenderAfterLensFlare();

  002fa	8b ce		 mov	 ecx, esi
  002fc	89 45 bc	 mov	 DWORD PTR _t17$1$[ebp], eax
  002ff	e8 00 00 00 00	 call	 ?RenderAfterLensFlare@CPythonBackground@@QAEXXZ ; CPythonBackground::RenderAfterLensFlare

; 287  : 	DWORD t18=ELTimer_GetMSec();

  00304	e8 00 00 00 00	 call	 ?ELTimer_GetMSec@@YAKXZ	; ELTimer_GetMSec
  00309	8b f8		 mov	 edi, eax

; 288  : 	DWORD tEnd=ELTimer_GetMSec();

  0030b	e8 00 00 00 00	 call	 ?ELTimer_GetMSec@@YAKXZ	; ELTimer_GetMSec

; 289  : 
; 290  : 	if (GetAsyncKeyState(VK_Z))

  00310	6a 5a		 push	 90			; 0000005aH
  00312	8b f0		 mov	 esi, eax
  00314	ff 15 00 00 00
	00		 call	 DWORD PTR __imp__GetAsyncKeyState@4
  0031a	66 85 c0	 test	 ax, ax
  0031d	74 0f		 je	 SHORT $LN4@RenderGame

; 291  : 		STATEMANAGER.SetRenderState(D3DRS_FILLMODE, D3DFILL_SOLID);

  0031f	8b 0d 00 00 00
	00		 mov	 ecx, DWORD PTR ?ms_singleton@?$CSingleton@VCStateManager@@@@0PAVCStateManager@@A ; CSingleton<CStateManager>::ms_singleton
  00325	6a 03		 push	 3
  00327	6a 08		 push	 8
  00329	e8 00 00 00 00	 call	 ?SetRenderState@CStateManager@@QAEXW4_D3DRENDERSTATETYPE@@K@Z ; CStateManager::SetRenderState
$LN4@RenderGame:

; 292  : 
; 293  : 	if (tEnd-t1<3)

  0032e	8b 5d e4	 mov	 ebx, DWORD PTR _t1$1$[ebp]
  00331	2b f3		 sub	 esi, ebx
  00333	83 fe 03	 cmp	 esi, 3
  00336	0f 82 d1 01 00
	00		 jb	 $LN1@RenderGame

; 294  : 		return;
; 295  : 
; 296  : 	static FILE* fp=fopen("perf_game_render.txt", "w");

  0033c	64 a1 00 00 00
	00		 mov	 eax, DWORD PTR fs:__tls_array
  00342	8b 0d 00 00 00
	00		 mov	 ecx, DWORD PTR __tls_index
  00348	8b 0c 88	 mov	 ecx, DWORD PTR [eax+ecx*4]
  0034b	a1 00 00 00 00	 mov	 eax, DWORD PTR ?$TSS0@?1??RenderGame@CPythonApplication@@QAEXXZ@4HA
  00350	3b 81 00 00 00
	00		 cmp	 eax, DWORD PTR __Init_thread_epoch[ecx]
  00356	0f 8f b8 01 00
	00		 jg	 $LN8@RenderGame
$LN2@RenderGame:

; 297  : 
; 298  : 	fprintf(fp, "GR.Total %d (Time %d)\n", tEnd-t1, ELTimer_GetMSec());

  0035c	e8 00 00 00 00	 call	 ?ELTimer_GetMSec@@YAKXZ	; ELTimer_GetMSec
  00361	50		 push	 eax
  00362	56		 push	 esi
  00363	68 00 00 00 00	 push	 OFFSET ??_C@_0BH@GCCBAEAA@GR?4Total?5?$CFd?5?$CITime?5?$CFd?$CJ?6@
  00368	ff 35 00 00 00
	00		 push	 DWORD PTR ?fp@?1??RenderGame@CPythonApplication@@QAEXXZ@4PAU_iobuf@@A
  0036e	e8 00 00 00 00	 call	 _fprintf

; 299  : 	fprintf(fp, "GR.DFM %d\n", t2-t1);

  00373	8b 45 e0	 mov	 eax, DWORD PTR _t2$1$[ebp]
  00376	2b c3		 sub	 eax, ebx
  00378	50		 push	 eax
  00379	68 00 00 00 00	 push	 OFFSET ??_C@_0L@EGAPCDKD@GR?4DFM?5?$CFd?6@
  0037e	ff 35 00 00 00
	00		 push	 DWORD PTR ?fp@?1??RenderGame@CPythonApplication@@QAEXXZ@4PAU_iobuf@@A
  00384	e8 00 00 00 00	 call	 _fprintf

; 300  : 	fprintf(fp, "GR.EFT.UP %d\n", t3-t2);

  00389	8b 45 dc	 mov	 eax, DWORD PTR _t3$1$[ebp]
  0038c	2b 45 e0	 sub	 eax, DWORD PTR _t2$1$[ebp]
  0038f	50		 push	 eax
  00390	68 00 00 00 00	 push	 OFFSET ??_C@_0O@PLGAMGBI@GR?4EFT?4UP?5?$CFd?6@
  00395	ff 35 00 00 00
	00		 push	 DWORD PTR ?fp@?1??RenderGame@CPythonApplication@@QAEXXZ@4PAU_iobuf@@A
  0039b	e8 00 00 00 00	 call	 _fprintf

; 301  : 	fprintf(fp, "GR.SHW %d\n", t4-t3);

  003a0	8b 45 d8	 mov	 eax, DWORD PTR _t4$1$[ebp]
  003a3	2b 45 dc	 sub	 eax, DWORD PTR _t3$1$[ebp]
  003a6	50		 push	 eax
  003a7	68 00 00 00 00	 push	 OFFSET ??_C@_0L@MCADEBDB@GR?4SHW?5?$CFd?6@
  003ac	ff 35 00 00 00
	00		 push	 DWORD PTR ?fp@?1??RenderGame@CPythonApplication@@QAEXXZ@4PAU_iobuf@@A
  003b2	e8 00 00 00 00	 call	 _fprintf

; 302  : 	fprintf(fp, "GR.STT %d\n", t5-t4);

  003b7	8b 45 d4	 mov	 eax, DWORD PTR _t5$1$[ebp]
  003ba	2b 45 d8	 sub	 eax, DWORD PTR _t4$1$[ebp]
  003bd	50		 push	 eax
  003be	68 00 00 00 00	 push	 OFFSET ??_C@_0L@OEOJMFCF@GR?4STT?5?$CFd?6@
  003c3	ff 35 00 00 00
	00		 push	 DWORD PTR ?fp@?1??RenderGame@CPythonApplication@@QAEXXZ@4PAU_iobuf@@A
  003c9	e8 00 00 00 00	 call	 _fprintf

; 303  : 	fprintf(fp, "GR.CLL %d\n", t6-t5);

  003ce	8b 45 d0	 mov	 eax, DWORD PTR _t6$1$[ebp]
  003d1	83 c4 40	 add	 esp, 64			; 00000040H
  003d4	2b 45 d4	 sub	 eax, DWORD PTR _t5$1$[ebp]
  003d7	50		 push	 eax
  003d8	68 00 00 00 00	 push	 OFFSET ??_C@_0L@CDOGKGFB@GR?4CLL?5?$CFd?6@
  003dd	ff 35 00 00 00
	00		 push	 DWORD PTR ?fp@?1??RenderGame@CPythonApplication@@QAEXXZ@4PAU_iobuf@@A
  003e3	e8 00 00 00 00	 call	 _fprintf

; 304  : 	fprintf(fp, "GR.BG.SKY %d\n", t7-t6);

  003e8	8b 45 e8	 mov	 eax, DWORD PTR _t7$1$[ebp]
  003eb	2b 45 d0	 sub	 eax, DWORD PTR _t6$1$[ebp]
  003ee	50		 push	 eax
  003ef	68 00 00 00 00	 push	 OFFSET ??_C@_0O@HPKPMDPE@GR?4BG?4SKY?5?$CFd?6@
  003f4	ff 35 00 00 00
	00		 push	 DWORD PTR ?fp@?1??RenderGame@CPythonApplication@@QAEXXZ@4PAU_iobuf@@A
  003fa	e8 00 00 00 00	 call	 _fprintf

; 305  : 	fprintf(fp, "GR.BG.LEN %d\n", t8-t7);

  003ff	8b 45 ec	 mov	 eax, DWORD PTR _t8$1$[ebp]
  00402	2b 45 e8	 sub	 eax, DWORD PTR _t7$1$[ebp]
  00405	50		 push	 eax
  00406	68 00 00 00 00	 push	 OFFSET ??_C@_0O@JENIKJAN@GR?4BG?4LEN?5?$CFd?6@
  0040b	ff 35 00 00 00
	00		 push	 DWORD PTR ?fp@?1??RenderGame@CPythonApplication@@QAEXXZ@4PAU_iobuf@@A
  00411	e8 00 00 00 00	 call	 _fprintf

; 306  : 	fprintf(fp, "GR.BG.CLD %d\n", t9-t8);

  00416	8b 45 cc	 mov	 eax, DWORD PTR _t9$1$[ebp]
  00419	2b 45 ec	 sub	 eax, DWORD PTR _t8$1$[ebp]
  0041c	50		 push	 eax
  0041d	68 00 00 00 00	 push	 OFFSET ??_C@_0O@HJPLNNBE@GR?4BG?4CLD?5?$CFd?6@
  00422	ff 35 00 00 00
	00		 push	 DWORD PTR ?fp@?1??RenderGame@CPythonApplication@@QAEXXZ@4PAU_iobuf@@A
  00428	e8 00 00 00 00	 call	 _fprintf

; 307  : 	fprintf(fp, "GR.BG.MAIN %d\n", t10-t9);		

  0042d	8b 45 c8	 mov	 eax, DWORD PTR _t10$1$[ebp]
  00430	2b 45 cc	 sub	 eax, DWORD PTR _t9$1$[ebp]
  00433	50		 push	 eax
  00434	68 00 00 00 00	 push	 OFFSET ??_C@_0P@EJKDFAIB@GR?4BG?4MAIN?5?$CFd?6@
  00439	ff 35 00 00 00
	00		 push	 DWORD PTR ?fp@?1??RenderGame@CPythonApplication@@QAEXXZ@4PAU_iobuf@@A
  0043f	e8 00 00 00 00	 call	 _fprintf

; 308  : 	fprintf(fp, "GR.CHR %d\n",	t11-t10);

  00444	8b 45 fc	 mov	 eax, DWORD PTR _t11$1$[ebp]
  00447	2b 45 c8	 sub	 eax, DWORD PTR _t10$1$[ebp]
  0044a	50		 push	 eax
  0044b	68 00 00 00 00	 push	 OFFSET ??_C@_0L@OOHFOBKJ@GR?4CHR?5?$CFd?6@
  00450	ff 35 00 00 00
	00		 push	 DWORD PTR ?fp@?1??RenderGame@CPythonApplication@@QAEXXZ@4PAU_iobuf@@A
  00456	e8 00 00 00 00	 call	 _fprintf

; 309  : 	fprintf(fp, "GR.BG.WTR %d\n", t12-t11);

  0045b	8b 45 c4	 mov	 eax, DWORD PTR _t12$1$[ebp]
  0045e	83 c4 48	 add	 esp, 72			; 00000048H
  00461	2b 45 fc	 sub	 eax, DWORD PTR _t11$1$[ebp]
  00464	50		 push	 eax
  00465	68 00 00 00 00	 push	 OFFSET ??_C@_0O@LENBOK@GR?4BG?4WTR?5?$CFd?6@
  0046a	ff 35 00 00 00
	00		 push	 DWORD PTR ?fp@?1??RenderGame@CPythonApplication@@QAEXXZ@4PAU_iobuf@@A
  00470	e8 00 00 00 00	 call	 _fprintf

; 310  : 	fprintf(fp, "GR.BG.EFT %d\n", t13-t12);

  00475	8b 45 c0	 mov	 eax, DWORD PTR _t13$1$[ebp]
  00478	2b 45 c4	 sub	 eax, DWORD PTR _t12$1$[ebp]
  0047b	50		 push	 eax
  0047c	68 00 00 00 00	 push	 OFFSET ??_C@_0O@BIDCIJEG@GR?4BG?4EFT?5?$CFd?6@
  00481	ff 35 00 00 00
	00		 push	 DWORD PTR ?fp@?1??RenderGame@CPythonApplication@@QAEXXZ@4PAU_iobuf@@A
  00487	e8 00 00 00 00	 call	 _fprintf

; 311  : 	fprintf(fp, "GR.EFT %d\n", t14-t13);

  0048c	8b 45 f8	 mov	 eax, DWORD PTR _t14$1$[ebp]
  0048f	2b 45 c0	 sub	 eax, DWORD PTR _t13$1$[ebp]
  00492	50		 push	 eax
  00493	68 00 00 00 00	 push	 OFFSET ??_C@_0L@KOHMHAGO@GR?4EFT?5?$CFd?6@
  00498	ff 35 00 00 00
	00		 push	 DWORD PTR ?fp@?1??RenderGame@CPythonApplication@@QAEXXZ@4PAU_iobuf@@A
  0049e	e8 00 00 00 00	 call	 _fprintf

; 312  : 	fprintf(fp, "GR.ITM %d\n", t15-t14);

  004a3	8b 45 f4	 mov	 eax, DWORD PTR _t15$1$[ebp]
  004a6	2b 45 f8	 sub	 eax, DWORD PTR _t14$1$[ebp]
  004a9	50		 push	 eax
  004aa	68 00 00 00 00	 push	 OFFSET ??_C@_0L@CNELLLJF@GR?4ITM?5?$CFd?6@
  004af	ff 35 00 00 00
	00		 push	 DWORD PTR ?fp@?1??RenderGame@CPythonApplication@@QAEXXZ@4PAU_iobuf@@A
  004b5	e8 00 00 00 00	 call	 _fprintf

; 313  : 	fprintf(fp, "GR.FLY %d\n", t16-t15);

  004ba	8b 45 f0	 mov	 eax, DWORD PTR _t16$1$[ebp]
  004bd	2b 45 f4	 sub	 eax, DWORD PTR _t15$1$[ebp]
  004c0	50		 push	 eax
  004c1	68 00 00 00 00	 push	 OFFSET ??_C@_0L@DIBNDLBN@GR?4FLY?5?$CFd?6@
  004c6	ff 35 00 00 00
	00		 push	 DWORD PTR ?fp@?1??RenderGame@CPythonApplication@@QAEXXZ@4PAU_iobuf@@A
  004cc	e8 00 00 00 00	 call	 _fprintf

; 314  : 	fprintf(fp, "GR.BG.BLK %d\n", t17-t16);

  004d1	8b 45 bc	 mov	 eax, DWORD PTR _t17$1$[ebp]
  004d4	2b 45 f0	 sub	 eax, DWORD PTR _t16$1$[ebp]
  004d7	50		 push	 eax
  004d8	68 00 00 00 00	 push	 OFFSET ??_C@_0O@EEAHGPFP@GR?4BG?4BLK?5?$CFd?6@
  004dd	ff 35 00 00 00
	00		 push	 DWORD PTR ?fp@?1??RenderGame@CPythonApplication@@QAEXXZ@4PAU_iobuf@@A
  004e3	e8 00 00 00 00	 call	 _fprintf

; 315  : 	fprintf(fp, "GR.BG.LEN %d\n", t18-t17);

  004e8	2b 7d bc	 sub	 edi, DWORD PTR _t17$1$[ebp]
  004eb	83 c4 48	 add	 esp, 72			; 00000048H
  004ee	57		 push	 edi
  004ef	68 00 00 00 00	 push	 OFFSET ??_C@_0O@JENIKJAN@GR?4BG?4LEN?5?$CFd?6@
  004f4	ff 35 00 00 00
	00		 push	 DWORD PTR ?fp@?1??RenderGame@CPythonApplication@@QAEXXZ@4PAU_iobuf@@A
  004fa	e8 00 00 00 00	 call	 _fprintf

; 316  : 
; 317  : 
; 318  : 	fflush(fp);

  004ff	ff 35 00 00 00
	00		 push	 DWORD PTR ?fp@?1??RenderGame@CPythonApplication@@QAEXXZ@4PAU_iobuf@@A
  00505	e8 00 00 00 00	 call	 _fflush
  0050a	83 c4 10	 add	 esp, 16			; 00000010H
$LN1@RenderGame:

; 319  : }

  0050d	5f		 pop	 edi
  0050e	5e		 pop	 esi
  0050f	5b		 pop	 ebx
  00510	8b e5		 mov	 esp, ebp
  00512	5d		 pop	 ebp
  00513	c3		 ret	 0
$LN8@RenderGame:

; 294  : 		return;
; 295  : 
; 296  : 	static FILE* fp=fopen("perf_game_render.txt", "w");

  00514	68 00 00 00 00	 push	 OFFSET ?$TSS0@?1??RenderGame@CPythonApplication@@QAEXXZ@4HA
  00519	e8 00 00 00 00	 call	 __Init_thread_header
  0051e	83 c4 04	 add	 esp, 4
  00521	83 3d 00 00 00
	00 ff		 cmp	 DWORD PTR ?$TSS0@?1??RenderGame@CPythonApplication@@QAEXXZ@4HA, -1
  00528	0f 85 2e fe ff
	ff		 jne	 $LN2@RenderGame
  0052e	68 00 00 00 00	 push	 OFFSET ??_C@_01NOFIACDB@w@
  00533	68 00 00 00 00	 push	 OFFSET ??_C@_0BF@OHHAPIAL@perf_game_render?4txt@
  00538	e8 00 00 00 00	 call	 _fopen
  0053d	68 00 00 00 00	 push	 OFFSET ?$TSS0@?1??RenderGame@CPythonApplication@@QAEXXZ@4HA
  00542	a3 00 00 00 00	 mov	 DWORD PTR ?fp@?1??RenderGame@CPythonApplication@@QAEXXZ@4PAU_iobuf@@A, eax
  00547	e8 00 00 00 00	 call	 __Init_thread_footer
  0054c	83 c4 0c	 add	 esp, 12			; 0000000cH
  0054f	e9 08 fe ff ff	 jmp	 $LN2@RenderGame
?RenderGame@CPythonApplication@@QAEXXZ ENDP		; CPythonApplication::RenderGame
_TEXT	ENDS
; Function compile flags: /Ogtp
; File D:\Metin2 Server Files\mainline\SRC_2014\Metin2Client\UserInterface\PythonApplication.cpp
;	COMDAT ?UpdateGame@CPythonApplication@@QAEXXZ
_TEXT	SEGMENT
_ptMouse$ = -84						; size = 8
_t11$1$ = -76						; size = 4
_t10$1$ = -72						; size = 4
_t9$1$ = -68						; size = 4
_t8$1$ = -64						; size = 4
_t7$1$ = -60						; size = 4
_t6$1$ = -56						; size = 4
_t5$1$ = -52						; size = 4
_t2$1$ = -48						; size = 4
_t1$1$ = -44						; size = 4
_t3$1$ = -40						; size = 4
_fAspect$2 = -40					; size = 4
_t4$1$ = -36						; size = 4
_fFarClip$3 = -36					; size = 4
_s$4 = -32						; size = 4
_kPPosMainActor$ = -28					; size = 12
__$ArrayPad$ = -16					; size = 4
__$EHRec$ = -12						; size = 12
?UpdateGame@CPythonApplication@@QAEXXZ PROC		; CPythonApplication::UpdateGame, COMDAT
; _this$ = ecx

; 322  : {

  00000	55		 push	 ebp
  00001	8b ec		 mov	 ebp, esp
  00003	6a ff		 push	 -1
  00005	68 00 00 00 00	 push	 __ehhandler$?UpdateGame@CPythonApplication@@QAEXXZ
  0000a	64 a1 00 00 00
	00		 mov	 eax, DWORD PTR fs:0
  00010	50		 push	 eax
  00011	83 ec 48	 sub	 esp, 72			; 00000048H
  00014	a1 00 00 00 00	 mov	 eax, DWORD PTR ___security_cookie
  00019	33 c5		 xor	 eax, ebp
  0001b	89 45 f0	 mov	 DWORD PTR __$ArrayPad$[ebp], eax
  0001e	53		 push	 ebx
  0001f	56		 push	 esi
  00020	57		 push	 edi
  00021	50		 push	 eax
  00022	8d 45 f4	 lea	 eax, DWORD PTR __$EHRec$[ebp]
  00025	64 a3 00 00 00
	00		 mov	 DWORD PTR fs:0, eax
  0002b	8b d9		 mov	 ebx, ecx

; 323  : 	DWORD t1=ELTimer_GetMSec();

  0002d	e8 00 00 00 00	 call	 ?ELTimer_GetMSec@@YAKXZ	; ELTimer_GetMSec

; 324  : 	POINT ptMouse;
; 325  : 	GetMousePosition(&ptMouse);

  00032	8b 53 20	 mov	 edx, DWORD PTR [ebx+32]
  00035	8d 4d ac	 lea	 ecx, DWORD PTR _ptMouse$[ebp]
  00038	51		 push	 ecx
  00039	8d 4b 20	 lea	 ecx, DWORD PTR [ebx+32]
  0003c	89 45 d4	 mov	 DWORD PTR _t1$1$[ebp], eax
  0003f	ff 52 04	 call	 DWORD PTR [edx+4]

; 326  : 
; 327  : 	CGraphicTextInstance::Hyperlink_UpdateMousePos(ptMouse.x, ptMouse.y);

  00042	ff 75 b0	 push	 DWORD PTR _ptMouse$[ebp+4]
  00045	ff 75 ac	 push	 DWORD PTR _ptMouse$[ebp]
  00048	e8 00 00 00 00	 call	 ?Hyperlink_UpdateMousePos@CGraphicTextInstance@@SAXHH@Z ; CGraphicTextInstance::Hyperlink_UpdateMousePos
  0004d	83 c4 08	 add	 esp, 8

; 328  : 
; 329  : 	DWORD t2=ELTimer_GetMSec();

  00050	e8 00 00 00 00	 call	 ?ELTimer_GetMSec@@YAKXZ	; ELTimer_GetMSec

; 330  : 
; 331  : 	//!@# Alt+Tab  SetTransfor      - [levites]
; 332  : 	//if (m_isActivateWnd)
; 333  : 	{
; 334  : 		CScreen s;

  00055	8d 4d e0	 lea	 ecx, DWORD PTR _s$4[ebp]
  00058	89 45 d0	 mov	 DWORD PTR _t2$1$[ebp], eax
  0005b	e8 00 00 00 00	 call	 ??0CScreen@@QAE@XZ	; CScreen::CScreen

; 335  : 		float fAspect = UI::CWindowManager::Instance().GetAspect();

  00060	8b 0d 00 00 00
	00		 mov	 ecx, DWORD PTR ?ms_singleton@?$CSingleton@VCWindowManager@UI@@@@0PAVCWindowManager@UI@@A ; CSingleton<UI::CWindowManager>::ms_singleton
  00066	c7 45 fc 00 00
	00 00		 mov	 DWORD PTR __$EHRec$[ebp+8], 0
  0006d	e8 00 00 00 00	 call	 ?GetAspect@CWindowManager@UI@@QAEMXZ ; UI::CWindowManager::GetAspect

; 336  : 		float fFarClip = CPythonBackground::Instance().GetFarClip();

  00072	8b 0d 00 00 00
	00		 mov	 ecx, DWORD PTR ?ms_singleton@?$CSingleton@VCPythonBackground@@@@0PAVCPythonBackground@@A ; CSingleton<CPythonBackground>::ms_singleton
  00078	d9 5d d8	 fstp	 DWORD PTR _fAspect$2[ebp]
  0007b	e8 00 00 00 00	 call	 ?GetFarClip@CPythonBackground@@QAEMXZ ; CPythonBackground::GetFarClip

; 337  : 
; 338  : 		s.SetPerspective(30.0f,fAspect, 100.0f, fFarClip);

  00080	83 ec 10	 sub	 esp, 16			; 00000010H
  00083	8d 4d e0	 lea	 ecx, DWORD PTR _s$4[ebp]
  00086	d9 5d dc	 fstp	 DWORD PTR _fFarClip$3[ebp]
  00089	f3 0f 10 45 dc	 movss	 xmm0, DWORD PTR _fFarClip$3[ebp]
  0008e	f3 0f 11 44 24
	0c		 movss	 DWORD PTR [esp+12], xmm0
  00094	f3 0f 10 45 d8	 movss	 xmm0, DWORD PTR _fAspect$2[ebp]
  00099	c7 44 24 08 00
	00 c8 42	 mov	 DWORD PTR [esp+8], 1120403456 ; 42c80000H
  000a1	f3 0f 11 44 24
	04		 movss	 DWORD PTR [esp+4], xmm0
  000a7	c7 04 24 00 00
	f0 41		 mov	 DWORD PTR [esp], 1106247680 ; 41f00000H
  000ae	e8 00 00 00 00	 call	 ?SetPerspective@CGraphicBase@@QAEXMMMM@Z ; CGraphicBase::SetPerspective

; 339  : 		s.BuildViewFrustum();

  000b3	8d 4d e0	 lea	 ecx, DWORD PTR _s$4[ebp]
  000b6	e8 00 00 00 00	 call	 ?BuildViewFrustum@CScreen@@QAEXXZ ; CScreen::BuildViewFrustum

; 340  : 	}

  000bb	8d 4d e0	 lea	 ecx, DWORD PTR _s$4[ebp]
  000be	c7 45 fc ff ff
	ff ff		 mov	 DWORD PTR __$EHRec$[ebp+8], -1
  000c5	e8 00 00 00 00	 call	 ??1CScreen@@UAE@XZ	; CScreen::~CScreen

; 341  : 
; 342  : 	DWORD t3=ELTimer_GetMSec();

  000ca	e8 00 00 00 00	 call	 ?ELTimer_GetMSec@@YAKXZ	; ELTimer_GetMSec
  000cf	89 45 d8	 mov	 DWORD PTR _t3$1$[ebp], eax

; 343  : 	TPixelPosition kPPosMainActor;
; 344  : 	m_pyPlayer.NEW_GetMainActorPosition(&kPPosMainActor);

  000d2	8d 8b 90 81 00
	00		 lea	 ecx, DWORD PTR [ebx+33168]
  000d8	8d 45 e4	 lea	 eax, DWORD PTR _kPPosMainActor$[ebp]
  000db	50		 push	 eax
  000dc	e8 00 00 00 00	 call	 ?NEW_GetMainActorPosition@CPythonPlayer@@QAEXPAUD3DXVECTOR3@@@Z ; CPythonPlayer::NEW_GetMainActorPosition

; 345  : 
; 346  : 	DWORD t4=ELTimer_GetMSec();

  000e1	e8 00 00 00 00	 call	 ?ELTimer_GetMSec@@YAKXZ	; ELTimer_GetMSec

; 347  : 	m_pyBackground.Update(kPPosMainActor.x, kPPosMainActor.y, kPPosMainActor.z);

  000e6	f3 0f 10 45 ec	 movss	 xmm0, DWORD PTR _kPPosMainActor$[ebp+8]
  000eb	8d 8b 4c a9 01
	00		 lea	 ecx, DWORD PTR [ebx+108876]
  000f1	83 ec 0c	 sub	 esp, 12			; 0000000cH
  000f4	89 45 dc	 mov	 DWORD PTR _t4$1$[ebp], eax
  000f7	f3 0f 11 44 24
	08		 movss	 DWORD PTR [esp+8], xmm0
  000fd	f3 0f 10 45 e8	 movss	 xmm0, DWORD PTR _kPPosMainActor$[ebp+4]
  00102	f3 0f 11 44 24
	04		 movss	 DWORD PTR [esp+4], xmm0
  00108	f3 0f 10 45 e4	 movss	 xmm0, DWORD PTR _kPPosMainActor$[ebp]
  0010d	f3 0f 11 04 24	 movss	 DWORD PTR [esp], xmm0
  00112	e8 00 00 00 00	 call	 ?Update@CPythonBackground@@QAEXMMM@Z ; CPythonBackground::Update

; 348  : 
; 349  : 	DWORD t5=ELTimer_GetMSec();

  00117	e8 00 00 00 00	 call	 ?ELTimer_GetMSec@@YAKXZ	; ELTimer_GetMSec

; 350  : 	m_GameEventManager.SetCenterPosition(kPPosMainActor.x, kPPosMainActor.y, kPPosMainActor.z);

  0011c	f3 0f 10 45 ec	 movss	 xmm0, DWORD PTR _kPPosMainActor$[ebp+8]
  00121	8d 8b b8 01 00
	00		 lea	 ecx, DWORD PTR [ebx+440]
  00127	83 ec 0c	 sub	 esp, 12			; 0000000cH
  0012a	89 45 cc	 mov	 DWORD PTR _t5$1$[ebp], eax
  0012d	f3 0f 11 44 24
	08		 movss	 DWORD PTR [esp+8], xmm0
  00133	f3 0f 10 45 e8	 movss	 xmm0, DWORD PTR _kPPosMainActor$[ebp+4]
  00138	f3 0f 11 44 24
	04		 movss	 DWORD PTR [esp+4], xmm0
  0013e	f3 0f 10 45 e4	 movss	 xmm0, DWORD PTR _kPPosMainActor$[ebp]
  00143	f3 0f 11 04 24	 movss	 DWORD PTR [esp], xmm0
  00148	e8 00 00 00 00	 call	 ?SetCenterPosition@CGameEventManager@@QAEXMMM@Z ; CGameEventManager::SetCenterPosition

; 351  : 	m_GameEventManager.Update();

  0014d	8d 8b b8 01 00
	00		 lea	 ecx, DWORD PTR [ebx+440]
  00153	e8 00 00 00 00	 call	 ?Update@CGameEventManager@@QAEXXZ ; CGameEventManager::Update

; 352  : 
; 353  : 	DWORD t6=ELTimer_GetMSec();

  00158	e8 00 00 00 00	 call	 ?ELTimer_GetMSec@@YAKXZ	; ELTimer_GetMSec

; 354  : 	m_kChrMgr.Update();	

  0015d	8d 8b d8 02 00
	00		 lea	 ecx, DWORD PTR [ebx+728]
  00163	89 45 c8	 mov	 DWORD PTR _t6$1$[ebp], eax
  00166	e8 00 00 00 00	 call	 ?Update@CPythonCharacterManager@@QAEXXZ ; CPythonCharacterManager::Update

; 355  : 	DWORD t7=ELTimer_GetMSec();

  0016b	e8 00 00 00 00	 call	 ?ELTimer_GetMSec@@YAKXZ	; ELTimer_GetMSec

; 356  : 	m_kEftMgr.UpdateSound();

  00170	8d 8b b0 02 00
	00		 lea	 ecx, DWORD PTR [ebx+688]
  00176	89 45 c4	 mov	 DWORD PTR _t7$1$[ebp], eax
  00179	e8 00 00 00 00	 call	 ?UpdateSound@CEffectManager@@QAEXXZ ; CEffectManager::UpdateSound

; 357  : 	DWORD t8=ELTimer_GetMSec();

  0017e	e8 00 00 00 00	 call	 ?ELTimer_GetMSec@@YAKXZ	; ELTimer_GetMSec

; 358  : 	m_FlyingManager.Update();

  00183	8d 8b 5c 01 00
	00		 lea	 ecx, DWORD PTR [ebx+348]
  00189	89 45 c0	 mov	 DWORD PTR _t8$1$[ebp], eax
  0018c	e8 00 00 00 00	 call	 ?Update@CFlyingManager@@QAEXXZ ; CFlyingManager::Update

; 359  : 	DWORD t9=ELTimer_GetMSec();

  00191	e8 00 00 00 00	 call	 ?ELTimer_GetMSec@@YAKXZ	; ELTimer_GetMSec
  00196	89 45 bc	 mov	 DWORD PTR _t9$1$[ebp], eax

; 360  : 	m_pyItem.Update(ptMouse);

  00199	8d 45 ac	 lea	 eax, DWORD PTR _ptMouse$[ebp]
  0019c	50		 push	 eax
  0019d	8d 8b e0 81 01
	00		 lea	 ecx, DWORD PTR [ebx+98784]
  001a3	e8 00 00 00 00	 call	 ?Update@CPythonItem@@QAEXABUtagPOINT@@@Z ; CPythonItem::Update

; 361  : 	DWORD t10=ELTimer_GetMSec();

  001a8	e8 00 00 00 00	 call	 ?ELTimer_GetMSec@@YAKXZ	; ELTimer_GetMSec

; 362  : 	m_pyPlayer.Update();

  001ad	8d 8b 90 81 00
	00		 lea	 ecx, DWORD PTR [ebx+33168]
  001b3	89 45 b8	 mov	 DWORD PTR _t10$1$[ebp], eax
  001b6	e8 00 00 00 00	 call	 ?Update@CPythonPlayer@@QAEXXZ ; CPythonPlayer::Update

; 363  : 	DWORD t11=ELTimer_GetMSec();

  001bb	e8 00 00 00 00	 call	 ?ELTimer_GetMSec@@YAKXZ	; ELTimer_GetMSec
  001c0	89 45 b4	 mov	 DWORD PTR _t11$1$[ebp], eax

; 364  : 
; 365  : 	// NOTE : Update        - [levites]
; 366  : 	//             Sound      .
; 367  : 	m_pyPlayer.NEW_GetMainActorPosition(&kPPosMainActor);

  001c3	8d 8b 90 81 00
	00		 lea	 ecx, DWORD PTR [ebx+33168]
  001c9	8d 45 e4	 lea	 eax, DWORD PTR _kPPosMainActor$[ebp]
  001cc	50		 push	 eax
  001cd	e8 00 00 00 00	 call	 ?NEW_GetMainActorPosition@CPythonPlayer@@QAEXPAUD3DXVECTOR3@@@Z ; CPythonPlayer::NEW_GetMainActorPosition

; 368  : 	SetCenterPosition(kPPosMainActor.x, kPPosMainActor.y, kPPosMainActor.z);

  001d2	f3 0f 10 45 ec	 movss	 xmm0, DWORD PTR _kPPosMainActor$[ebp+8]
  001d7	8d 4b 20	 lea	 ecx, DWORD PTR [ebx+32]
  001da	8b 11		 mov	 edx, DWORD PTR [ecx]
  001dc	83 ec 0c	 sub	 esp, 12			; 0000000cH
  001df	f3 0f 11 44 24
	08		 movss	 DWORD PTR [esp+8], xmm0
  001e5	f3 0f 10 45 e8	 movss	 xmm0, DWORD PTR _kPPosMainActor$[ebp+4]
  001ea	f3 0f 11 44 24
	04		 movss	 DWORD PTR [esp+4], xmm0
  001f0	f3 0f 10 45 e4	 movss	 xmm0, DWORD PTR _kPPosMainActor$[ebp]
  001f5	f3 0f 11 04 24	 movss	 DWORD PTR [esp], xmm0
  001fa	ff 52 18	 call	 DWORD PTR [edx+24]

; 369  : 	DWORD t12=ELTimer_GetMSec();

  001fd	e8 00 00 00 00	 call	 ?ELTimer_GetMSec@@YAKXZ	; ELTimer_GetMSec

; 370  : 
; 371  : 	if (PERF_CHECKER_RENDER_GAME)

  00202	80 3d 00 00 00
	00 00		 cmp	 BYTE PTR ?PERF_CHECKER_RENDER_GAME@@3_NA, 0 ; PERF_CHECKER_RENDER_GAME
  00209	8b f8		 mov	 edi, eax
  0020b	0f 84 54 01 00
	00		 je	 $LN4@UpdateGame

; 372  : 	{
; 373  : 		if (t12-t1>5)

  00211	8b 5d d4	 mov	 ebx, DWORD PTR _t1$1$[ebp]
  00214	8b f7		 mov	 esi, edi
  00216	2b f3		 sub	 esi, ebx
  00218	83 fe 05	 cmp	 esi, 5
  0021b	0f 86 44 01 00
	00		 jbe	 $LN4@UpdateGame

; 374  : 		{
; 375  : 			static FILE* fp=fopen("perf_game_update.txt", "w");

  00221	64 a1 00 00 00
	00		 mov	 eax, DWORD PTR fs:__tls_array
  00227	8b 0d 00 00 00
	00		 mov	 ecx, DWORD PTR __tls_index
  0022d	8b 0c 88	 mov	 ecx, DWORD PTR [eax+ecx*4]
  00230	a1 00 00 00 00	 mov	 eax, DWORD PTR ?$TSS0@?8??UpdateGame@CPythonApplication@@QAEXXZ@4HA
  00235	3b 81 00 00 00
	00		 cmp	 eax, DWORD PTR __Init_thread_epoch[ecx]
  0023b	0f 8f 40 01 00
	00		 jg	 $LN9@UpdateGame
$LN2@UpdateGame:

; 376  : 
; 377  : 			fprintf(fp, "GU.Total %d (Time %d)\n", t12-t1, ELTimer_GetMSec());

  00241	e8 00 00 00 00	 call	 ?ELTimer_GetMSec@@YAKXZ	; ELTimer_GetMSec
  00246	50		 push	 eax
  00247	56		 push	 esi
  00248	68 00 00 00 00	 push	 OFFSET ??_C@_0BH@HPIDKEA@GU?4Total?5?$CFd?5?$CITime?5?$CFd?$CJ?6@
  0024d	ff 35 00 00 00
	00		 push	 DWORD PTR ?fp@?8??UpdateGame@CPythonApplication@@QAEXXZ@4PAU_iobuf@@A
  00253	e8 00 00 00 00	 call	 _fprintf

; 378  : 			fprintf(fp, "GU.GMP %d\n", t2-t1);

  00258	8b 45 d0	 mov	 eax, DWORD PTR _t2$1$[ebp]
  0025b	2b c3		 sub	 eax, ebx
  0025d	50		 push	 eax
  0025e	68 00 00 00 00	 push	 OFFSET ??_C@_0L@JHBDHKIG@GU?4GMP?5?$CFd?6@
  00263	ff 35 00 00 00
	00		 push	 DWORD PTR ?fp@?8??UpdateGame@CPythonApplication@@QAEXXZ@4PAU_iobuf@@A
  00269	e8 00 00 00 00	 call	 _fprintf

; 379  : 			fprintf(fp, "GU.SCR %d\n", t3-t2);

  0026e	8b 45 d8	 mov	 eax, DWORD PTR _t3$1$[ebp]
  00271	2b 45 d0	 sub	 eax, DWORD PTR _t2$1$[ebp]
  00274	50		 push	 eax
  00275	68 00 00 00 00	 push	 OFFSET ??_C@_0L@HCBFJPAB@GU?4SCR?5?$CFd?6@
  0027a	ff 35 00 00 00
	00		 push	 DWORD PTR ?fp@?8??UpdateGame@CPythonApplication@@QAEXXZ@4PAU_iobuf@@A
  00280	e8 00 00 00 00	 call	 _fprintf

; 380  : 			fprintf(fp, "GU.MPS %d\n", t4-t3);

  00285	8b 45 dc	 mov	 eax, DWORD PTR _t4$1$[ebp]
  00288	2b 45 d8	 sub	 eax, DWORD PTR _t3$1$[ebp]
  0028b	50		 push	 eax
  0028c	68 00 00 00 00	 push	 OFFSET ??_C@_0L@IGEOOJOO@GU?4MPS?5?$CFd?6@
  00291	ff 35 00 00 00
	00		 push	 DWORD PTR ?fp@?8??UpdateGame@CPythonApplication@@QAEXXZ@4PAU_iobuf@@A
  00297	e8 00 00 00 00	 call	 _fprintf

; 381  : 			fprintf(fp, "GU.BG %d\n", t5-t4);

  0029c	8b 45 cc	 mov	 eax, DWORD PTR _t5$1$[ebp]
  0029f	2b 45 dc	 sub	 eax, DWORD PTR _t4$1$[ebp]
  002a2	50		 push	 eax
  002a3	68 00 00 00 00	 push	 OFFSET ??_C@_09JGPPFKPH@GU?4BG?5?$CFd?6@
  002a8	ff 35 00 00 00
	00		 push	 DWORD PTR ?fp@?8??UpdateGame@CPythonApplication@@QAEXXZ@4PAU_iobuf@@A
  002ae	e8 00 00 00 00	 call	 _fprintf

; 382  : 			fprintf(fp, "GU.GEM %d\n", t6-t5);

  002b3	8b 45 c8	 mov	 eax, DWORD PTR _t6$1$[ebp]
  002b6	83 c4 40	 add	 esp, 64			; 00000040H
  002b9	2b 45 cc	 sub	 eax, DWORD PTR _t5$1$[ebp]
  002bc	50		 push	 eax
  002bd	68 00 00 00 00	 push	 OFFSET ??_C@_0L@BLLECFKE@GU?4GEM?5?$CFd?6@
  002c2	ff 35 00 00 00
	00		 push	 DWORD PTR ?fp@?8??UpdateGame@CPythonApplication@@QAEXXZ@4PAU_iobuf@@A
  002c8	e8 00 00 00 00	 call	 _fprintf

; 383  : 			fprintf(fp, "GU.CHR %d\n", t7-t6);

  002cd	8b 45 c4	 mov	 eax, DWORD PTR _t7$1$[ebp]
  002d0	2b 45 c8	 sub	 eax, DWORD PTR _t6$1$[ebp]
  002d3	50		 push	 eax
  002d4	68 00 00 00 00	 push	 OFFSET ??_C@_0L@MKJPKNA@GU?4CHR?5?$CFd?6@
  002d9	ff 35 00 00 00
	00		 push	 DWORD PTR ?fp@?8??UpdateGame@CPythonApplication@@QAEXXZ@4PAU_iobuf@@A
  002df	e8 00 00 00 00	 call	 _fprintf

; 384  : 			fprintf(fp, "GU.EFT %d\n", t8-t7);

  002e4	8b 45 c0	 mov	 eax, DWORD PTR _t8$1$[ebp]
  002e7	2b 45 c4	 sub	 eax, DWORD PTR _t7$1$[ebp]
  002ea	50		 push	 eax
  002eb	68 00 00 00 00	 push	 OFFSET ??_C@_0L@EMKAGLBH@GU?4EFT?5?$CFd?6@
  002f0	ff 35 00 00 00
	00		 push	 DWORD PTR ?fp@?8??UpdateGame@CPythonApplication@@QAEXXZ@4PAU_iobuf@@A
  002f6	e8 00 00 00 00	 call	 _fprintf

; 385  : 			fprintf(fp, "GU.FLY %d\n", t9-t8);

  002fb	8b 45 bc	 mov	 eax, DWORD PTR _t9$1$[ebp]
  002fe	2b 45 c0	 sub	 eax, DWORD PTR _t8$1$[ebp]
  00301	50		 push	 eax
  00302	68 00 00 00 00	 push	 OFFSET ??_C@_0L@NKMBCAGE@GU?4FLY?5?$CFd?6@
  00307	ff 35 00 00 00
	00		 push	 DWORD PTR ?fp@?8??UpdateGame@CPythonApplication@@QAEXXZ@4PAU_iobuf@@A
  0030d	e8 00 00 00 00	 call	 _fprintf

; 386  : 			fprintf(fp, "GU.ITM %d\n", t10-t9);

  00312	8b 45 b8	 mov	 eax, DWORD PTR _t10$1$[ebp]
  00315	2b 45 bc	 sub	 eax, DWORD PTR _t9$1$[ebp]
  00318	50		 push	 eax
  00319	68 00 00 00 00	 push	 OFFSET ??_C@_0L@MPJHKAOM@GU?4ITM?5?$CFd?6@
  0031e	ff 35 00 00 00
	00		 push	 DWORD PTR ?fp@?8??UpdateGame@CPythonApplication@@QAEXXZ@4PAU_iobuf@@A
  00324	e8 00 00 00 00	 call	 _fprintf

; 387  : 			fprintf(fp, "GU.PLR %d\n", t11-t10);

  00329	8b 45 b4	 mov	 eax, DWORD PTR _t11$1$[ebp]
  0032c	2b 45 b8	 sub	 eax, DWORD PTR _t10$1$[ebp]
  0032f	50		 push	 eax
  00330	68 00 00 00 00	 push	 OFFSET ??_C@_0L@KNCOIAL@GU?4PLR?5?$CFd?6@
  00335	ff 35 00 00 00
	00		 push	 DWORD PTR ?fp@?8??UpdateGame@CPythonApplication@@QAEXXZ@4PAU_iobuf@@A
  0033b	e8 00 00 00 00	 call	 _fprintf

; 388  : 			fprintf(fp, "GU.POS %d\n", t12-t11);

  00340	2b 7d b4	 sub	 edi, DWORD PTR _t11$1$[ebp]
  00343	83 c4 48	 add	 esp, 72			; 00000048H
  00346	57		 push	 edi
  00347	68 00 00 00 00	 push	 OFFSET ??_C@_0L@PAGGCBDD@GU?4POS?5?$CFd?6@
  0034c	ff 35 00 00 00
	00		 push	 DWORD PTR ?fp@?8??UpdateGame@CPythonApplication@@QAEXXZ@4PAU_iobuf@@A
  00352	e8 00 00 00 00	 call	 _fprintf

; 389  : 			fflush(fp);

  00357	ff 35 00 00 00
	00		 push	 DWORD PTR ?fp@?8??UpdateGame@CPythonApplication@@QAEXXZ@4PAU_iobuf@@A
  0035d	e8 00 00 00 00	 call	 _fflush
  00362	83 c4 10	 add	 esp, 16			; 00000010H
$LN4@UpdateGame:

; 390  : 		}
; 391  : 	}
; 392  : }

  00365	8b 4d f4	 mov	 ecx, DWORD PTR __$EHRec$[ebp]
  00368	64 89 0d 00 00
	00 00		 mov	 DWORD PTR fs:0, ecx
  0036f	59		 pop	 ecx
  00370	5f		 pop	 edi
  00371	5e		 pop	 esi
  00372	5b		 pop	 ebx
  00373	8b 4d f0	 mov	 ecx, DWORD PTR __$ArrayPad$[ebp]
  00376	33 cd		 xor	 ecx, ebp
  00378	e8 00 00 00 00	 call	 @__security_check_cookie@4
  0037d	8b e5		 mov	 esp, ebp
  0037f	5d		 pop	 ebp
  00380	c3		 ret	 0
$LN9@UpdateGame:

; 374  : 		{
; 375  : 			static FILE* fp=fopen("perf_game_update.txt", "w");

  00381	68 00 00 00 00	 push	 OFFSET ?$TSS0@?8??UpdateGame@CPythonApplication@@QAEXXZ@4HA
  00386	e8 00 00 00 00	 call	 __Init_thread_header
  0038b	83 c4 04	 add	 esp, 4
  0038e	83 3d 00 00 00
	00 ff		 cmp	 DWORD PTR ?$TSS0@?8??UpdateGame@CPythonApplication@@QAEXXZ@4HA, -1
  00395	0f 85 a6 fe ff
	ff		 jne	 $LN2@UpdateGame
  0039b	68 00 00 00 00	 push	 OFFSET ??_C@_01NOFIACDB@w@
  003a0	68 00 00 00 00	 push	 OFFSET ??_C@_0BF@NHIIGIH@perf_game_update?4txt@
  003a5	e8 00 00 00 00	 call	 _fopen
  003aa	68 00 00 00 00	 push	 OFFSET ?$TSS0@?8??UpdateGame@CPythonApplication@@QAEXXZ@4HA
  003af	a3 00 00 00 00	 mov	 DWORD PTR ?fp@?8??UpdateGame@CPythonApplication@@QAEXXZ@4PAU_iobuf@@A, eax
  003b4	e8 00 00 00 00	 call	 __Init_thread_footer
  003b9	83 c4 0c	 add	 esp, 12			; 0000000cH
  003bc	e9 80 fe ff ff	 jmp	 $LN2@UpdateGame
_TEXT	ENDS
;	COMDAT text$x
text$x	SEGMENT
__unwindfunclet$?UpdateGame@CPythonApplication@@QAEXXZ$0:
  00000	8d 4d e0	 lea	 ecx, DWORD PTR _s$4[ebp]
  00003	e9 00 00 00 00	 jmp	 ??1CScreen@@UAE@XZ	; CScreen::~CScreen
  00008	cc		 int	 3
  00009	cc		 int	 3
  0000a	cc		 int	 3
  0000b	cc		 int	 3
  0000c	cc		 int	 3
__ehhandler$?UpdateGame@CPythonApplication@@QAEXXZ:
  0000d	90		 npad	 1
  0000e	90		 npad	 1
  0000f	8b 54 24 08	 mov	 edx, DWORD PTR [esp+8]
  00013	8d 42 0c	 lea	 eax, DWORD PTR [edx+12]
  00016	8b 4a a8	 mov	 ecx, DWORD PTR [edx-88]
  00019	33 c8		 xor	 ecx, eax
  0001b	e8 00 00 00 00	 call	 @__security_check_cookie@4
  00020	8b 4a fc	 mov	 ecx, DWORD PTR [edx-4]
  00023	33 c8		 xor	 ecx, eax
  00025	e8 00 00 00 00	 call	 @__security_check_cookie@4
  0002a	b8 00 00 00 00	 mov	 eax, OFFSET __ehfuncinfo$?UpdateGame@CPythonApplication@@QAEXXZ
  0002f	e9 00 00 00 00	 jmp	 ___CxxFrameHandler3
text$x	ENDS
?UpdateGame@CPythonApplication@@QAEXXZ ENDP		; CPythonApplication::UpdateGame
; Function compile flags: /Ogtp
; File D:\Metin2 Server Files\mainline\SRC_2014\Metin2Client\UserInterface\PythonApplication.cpp
;	COMDAT ?CreateDevice@CPythonApplication@@QAE_NHHHHH@Z
_TEXT	SEGMENT
_width$ = 8						; size = 4
_height$ = 12						; size = 4
_Windowed$ = 16						; size = 4
_bit$ = 20						; size = 4
_frequency$ = 24					; size = 4
?CreateDevice@CPythonApplication@@QAE_NHHHHH@Z PROC	; CPythonApplication::CreateDevice, COMDAT
; _this$ = ecx

; 902  : {

  00000	55		 push	 ebp
  00001	8b ec		 mov	 ebp, esp
  00003	56		 push	 esi
  00004	8b f1		 mov	 esi, ecx
  00006	57		 push	 edi

; 903  : 	int iRet;
; 904  : 
; 905  : 	m_grpDevice.InitBackBufferCount(2);

  00007	6a 02		 push	 2
  00009	8d 8e 2c c6 01
	00		 lea	 ecx, DWORD PTR [esi+116268]
  0000f	e8 00 00 00 00	 call	 ?InitBackBufferCount@CGraphicDevice@@QAEXI@Z ; CGraphicDevice::InitBackBufferCount

; 906  : 	m_grpDevice.RegisterWarningString(CGraphicDevice::CREATE_BAD_DRIVER, ApplicationStringTable_GetStringz(IDS_WARN_BAD_DRIVER, "WARN_BAD_DRIVER"));

  00014	68 00 00 00 00	 push	 OFFSET ??_C@_0BA@NOHKOOIE@WARN_BAD_DRIVER@
  00019	6a 03		 push	 3
  0001b	e8 00 00 00 00	 call	 ?ApplicationStringTable_GetStringz@@YAPBDKPBD@Z ; ApplicationStringTable_GetStringz
  00020	83 c4 08	 add	 esp, 8
  00023	8d 8e 2c c6 01
	00		 lea	 ecx, DWORD PTR [esi+116268]
  00029	50		 push	 eax
  0002a	68 00 02 00 00	 push	 512			; 00000200H
  0002f	e8 00 00 00 00	 call	 ?RegisterWarningString@CGraphicDevice@@QAEXIPBD@Z ; CGraphicDevice::RegisterWarningString

; 907  : 	m_grpDevice.RegisterWarningString(CGraphicDevice::CREATE_NO_TNL, ApplicationStringTable_GetStringz(IDS_WARN_NO_TNL, "WARN_NO_TNL"));

  00034	68 00 00 00 00	 push	 OFFSET ??_C@_0M@MOGGPFAH@WARN_NO_TNL@
  00039	6a 04		 push	 4
  0003b	e8 00 00 00 00	 call	 ?ApplicationStringTable_GetStringz@@YAPBDKPBD@Z ; ApplicationStringTable_GetStringz
  00040	83 c4 08	 add	 esp, 8
  00043	8d 8e 2c c6 01
	00		 lea	 ecx, DWORD PTR [esi+116268]
  00049	50		 push	 eax
  0004a	68 00 01 00 00	 push	 256			; 00000100H
  0004f	e8 00 00 00 00	 call	 ?RegisterWarningString@CGraphicDevice@@QAEXIPBD@Z ; CGraphicDevice::RegisterWarningString

; 908  : 
; 909  : 	iRet = m_grpDevice.Create(GetWindowHandle(), width, height, Windowed ? true : false, bit,frequency);

  00054	ff 75 18	 push	 DWORD PTR _frequency$[ebp]
  00057	83 7d 10 00	 cmp	 DWORD PTR _Windowed$[ebp], 0
  0005b	8b ce		 mov	 ecx, esi
  0005d	ff 75 14	 push	 DWORD PTR _bit$[ebp]
  00060	0f 95 c0	 setne	 al
  00063	0f b6 c0	 movzx	 eax, al
  00066	50		 push	 eax
  00067	ff 75 0c	 push	 DWORD PTR _height$[ebp]
  0006a	ff 75 08	 push	 DWORD PTR _width$[ebp]
  0006d	e8 00 00 00 00	 call	 ?GetWindowHandle@CMSWindow@@QAEPAUHWND__@@XZ ; CMSWindow::GetWindowHandle
  00072	50		 push	 eax
  00073	8d 8e 2c c6 01
	00		 lea	 ecx, DWORD PTR [esi+116268]
  00079	e8 00 00 00 00	 call	 ?Create@CGraphicDevice@@QAEHPAUHWND__@@HH_NHH@Z ; CGraphicDevice::Create
  0007e	5f		 pop	 edi
  0007f	5e		 pop	 esi

; 910  : 
; 911  : 	switch (iRet)

  00080	83 f8 10	 cmp	 eax, 16			; 00000010H
  00083	0f 8f ad 00 00
	00		 jg	 $LN16@CreateDevi
  00089	0f 84 82 00 00
	00		 je	 $LN8@CreateDevi
  0008f	8d 48 ff	 lea	 ecx, DWORD PTR [eax-1]
  00092	83 f9 07	 cmp	 ecx, 7
  00095	0f 87 da 00 00
	00		 ja	 $LN12@CreateDevi
  0009b	ff 24 8d 00 00
	00 00		 jmp	 DWORD PTR $LN18@CreateDevi[ecx*4]
$LN7@CreateDevi:

; 923  : 		return false;
; 924  : 
; 925  : 	case CGraphicDevice::CREATE_NO_DIRECTX:
; 926  : 		//PyErr_SetString(PyExc_RuntimeError, "DirectX 8.1 or greater required to run game");
; 927  : 		SET_EXCEPTION(CREATE_NO_DIRECTX);

  000a2	a1 00 00 00 00	 mov	 eax, DWORD PTR __imp__PyExc_RuntimeError
  000a7	68 00 00 00 00	 push	 OFFSET ??_C@_0BC@NKAKBNDM@CREATE_NO_DIRECTX@
  000ac	ff 30		 push	 DWORD PTR [eax]
  000ae	ff 15 00 00 00
	00		 call	 DWORD PTR __imp__PyErr_SetString

; 928  : 		TraceError("CreateDevice: DirectX 8.1 or greater required to run game");

  000b4	68 00 00 00 00	 push	 OFFSET ??_C@_0DK@GACPAJMM@CreateDevice?3?5DirectX?58?41?5or?5gr@

; 976  : 		return false;
; 977  : 	}
; 978  : }

  000b9	e8 00 00 00 00	 call	 ?TraceError@@YAXPBDZZ	; TraceError
  000be	83 c4 0c	 add	 esp, 12			; 0000000cH
  000c1	32 c0		 xor	 al, al
  000c3	5d		 pop	 ebp
  000c4	c2 14 00	 ret	 20			; 00000014H
$LN10@CreateDevi:

; 940  : 		return false;
; 941  : 
; 942  : 		/*case CGraphicDevice::CREATE_GET_ADAPTER_DISPLAY_MODE:
; 943  : 		//PyErr_SetString(PyExc_RuntimeError, "GetAdapterDisplayMode failed");
; 944  : 		SET_EXCEPTION(CREATE_GET_ADAPTER_DISPLAY_MODE);
; 945  : 		TraceError("CreateDevice: GetAdapterDisplayMode failed");
; 946  : 		return false;*/
; 947  : 
; 948  : 	case CGraphicDevice::CREATE_GET_DEVICE_CAPS:
; 949  : 		PyErr_SetString(PyExc_RuntimeError, "GetDevCaps failed");

  000c7	a1 00 00 00 00	 mov	 eax, DWORD PTR __imp__PyExc_RuntimeError
  000cc	68 00 00 00 00	 push	 OFFSET ??_C@_0BC@IMJEDJEA@GetDevCaps?5failed@
  000d1	ff 30		 push	 DWORD PTR [eax]
  000d3	ff 15 00 00 00
	00		 call	 DWORD PTR __imp__PyErr_SetString

; 950  : 		TraceError("CreateDevice: GetDevCaps failed");

  000d9	68 00 00 00 00	 push	 OFFSET ??_C@_0CA@DLHDILBB@CreateDevice?3?5GetDevCaps?5failed@

; 976  : 		return false;
; 977  : 	}
; 978  : }

  000de	e8 00 00 00 00	 call	 ?TraceError@@YAXPBDZZ	; TraceError
  000e3	83 c4 0c	 add	 esp, 12			; 0000000cH
  000e6	32 c0		 xor	 al, al
  000e8	5d		 pop	 ebp
  000e9	c2 14 00	 ret	 20			; 00000014H
$LN11@CreateDevi:

; 951  : 		return false;
; 952  : 
; 953  : 	case CGraphicDevice::CREATE_GET_DEVICE_CAPS2:
; 954  : 		PyErr_SetString(PyExc_RuntimeError, "GetDevCaps2 failed");

  000ec	a1 00 00 00 00	 mov	 eax, DWORD PTR __imp__PyExc_RuntimeError
  000f1	68 00 00 00 00	 push	 OFFSET ??_C@_0BD@IHNLMMLJ@GetDevCaps2?5failed@
  000f6	ff 30		 push	 DWORD PTR [eax]
  000f8	ff 15 00 00 00
	00		 call	 DWORD PTR __imp__PyErr_SetString

; 955  : 		TraceError("CreateDevice: GetDevCaps2 failed");

  000fe	68 00 00 00 00	 push	 OFFSET ??_C@_0CB@JLAAEKGJ@CreateDevice?3?5GetDevCaps2?5faile@

; 976  : 		return false;
; 977  : 	}
; 978  : }

  00103	e8 00 00 00 00	 call	 ?TraceError@@YAXPBDZZ	; TraceError
  00108	83 c4 0c	 add	 esp, 12			; 0000000cH
  0010b	32 c0		 xor	 al, al
  0010d	5d		 pop	 ebp
  0010e	c2 14 00	 ret	 20			; 00000014H
$LN8@CreateDevi:

; 929  : 		return false;
; 930  : 
; 931  : 	case CGraphicDevice::CREATE_DEVICE:
; 932  : 		//PyErr_SetString(PyExc_RuntimeError, "GraphicDevice create failed");
; 933  : 		SET_EXCEPTION(CREATE_DEVICE);

  00111	a1 00 00 00 00	 mov	 eax, DWORD PTR __imp__PyExc_RuntimeError
  00116	68 00 00 00 00	 push	 OFFSET ??_C@_0O@CMPMDOEH@CREATE_DEVICE@
  0011b	ff 30		 push	 DWORD PTR [eax]
  0011d	ff 15 00 00 00
	00		 call	 DWORD PTR __imp__PyErr_SetString

; 934  : 		TraceError("CreateDevice: GraphicDevice create failed");

  00123	68 00 00 00 00	 push	 OFFSET ??_C@_0CK@KMPBIDGP@CreateDevice?3?5GraphicDevice?5cre@

; 976  : 		return false;
; 977  : 	}
; 978  : }

  00128	e8 00 00 00 00	 call	 ?TraceError@@YAXPBDZZ	; TraceError
  0012d	83 c4 0c	 add	 esp, 12			; 0000000cH
  00130	32 c0		 xor	 al, al
  00132	5d		 pop	 ebp
  00133	c2 14 00	 ret	 20			; 00000014H
$LN16@CreateDevi:

; 910  : 
; 911  : 	switch (iRet)

  00136	3d 80 00 00 00	 cmp	 eax, 128		; 00000080H
  0013b	7f 31		 jg	 SHORT $LN17@CreateDevi
  0013d	74 0a		 je	 SHORT $LN6@CreateDevi
  0013f	83 f8 20	 cmp	 eax, 32			; 00000020H
  00142	74 46		 je	 SHORT $LN14@CreateDevi
  00144	83 f8 40	 cmp	 eax, 64			; 00000040H
  00147	75 2c		 jne	 SHORT $LN12@CreateDevi
$LN6@CreateDevi:

; 912  : 	{
; 913  : 	case CGraphicDevice::CREATE_OK:
; 914  : 		return true;
; 915  : 
; 916  : 	case CGraphicDevice::CREATE_REFRESHRATE:
; 917  : 		return true;
; 918  : 
; 919  : 	case CGraphicDevice::CREATE_ENUM:
; 920  : 	case CGraphicDevice::CREATE_DETECT:
; 921  : 		SET_EXCEPTION(CREATE_NO_APPROPRIATE_DEVICE);

  00149	a1 00 00 00 00	 mov	 eax, DWORD PTR __imp__PyExc_RuntimeError
  0014e	68 00 00 00 00	 push	 OFFSET ??_C@_0BN@OAKBEJJN@CREATE_NO_APPROPRIATE_DEVICE@
  00153	ff 30		 push	 DWORD PTR [eax]
  00155	ff 15 00 00 00
	00		 call	 DWORD PTR __imp__PyErr_SetString

; 922  : 		TraceError("CreateDevice: Enum & Detect failed");

  0015b	68 00 00 00 00	 push	 OFFSET ??_C@_0CD@GGLEAAKE@CreateDevice?3?5Enum?5?$CG?5Detect?5fai@

; 976  : 		return false;
; 977  : 	}
; 978  : }

  00160	e8 00 00 00 00	 call	 ?TraceError@@YAXPBDZZ	; TraceError
  00165	83 c4 0c	 add	 esp, 12			; 0000000cH
  00168	32 c0		 xor	 al, al
  0016a	5d		 pop	 ebp
  0016b	c2 14 00	 ret	 20			; 00000014H
$LN17@CreateDevi:

; 910  : 
; 911  : 	switch (iRet)

  0016e	3d 00 04 00 00	 cmp	 eax, 1024		; 00000400H
  00173	74 40		 je	 SHORT $LN9@CreateDevi
$LN12@CreateDevi:

; 956  : 		return false;
; 957  : 
; 958  : 	default:
; 959  : 		if (iRet & CGraphicDevice::CREATE_OK)

  00175	a8 01		 test	 al, 1
  00177	74 17		 je	 SHORT $LN13@CreateDevi

; 960  : 		{
; 961  : 			//if (iRet & CGraphicDevice::CREATE_BAD_DRIVER)
; 962  : 			//{
; 963  : 			//	LogBox(ApplicationStringTable_GetStringz(IDS_WARN_BAD_DRIVER), NULL, GetWindowHandle());
; 964  : 			//}
; 965  : 			if (iRet & CGraphicDevice::CREATE_NO_TNL)

  00179	a9 00 01 00 00	 test	 eax, 256		; 00000100H
  0017e	74 0a		 je	 SHORT $LN14@CreateDevi

; 966  : 			{
; 967  : 				CGrannyLODController::SetMinLODMode(true);

  00180	6a 01		 push	 1
  00182	e8 00 00 00 00	 call	 ?SetMinLODMode@CGrannyLODController@@SAX_N@Z ; CGrannyLODController::SetMinLODMode
  00187	83 c4 04	 add	 esp, 4
$LN14@CreateDevi:

; 968  : 				//LogBox(ApplicationStringTable_GetStringz(IDS_WARN_NO_TNL), NULL, GetWindowHandle());
; 969  : 			}
; 970  : 			return true;

  0018a	b0 01		 mov	 al, 1

; 976  : 		return false;
; 977  : 	}
; 978  : }

  0018c	5d		 pop	 ebp
  0018d	c2 14 00	 ret	 20			; 00000014H
$LN13@CreateDevi:

; 971  : 		}
; 972  : 
; 973  : 		//PyErr_SetString(PyExc_RuntimeError, "Unknown Error!");
; 974  : 		SET_EXCEPTION(UNKNOWN_ERROR);

  00190	a1 00 00 00 00	 mov	 eax, DWORD PTR __imp__PyExc_RuntimeError
  00195	68 00 00 00 00	 push	 OFFSET ??_C@_0O@BAEJJDKB@UNKNOWN_ERROR@
  0019a	ff 30		 push	 DWORD PTR [eax]
  0019c	ff 15 00 00 00
	00		 call	 DWORD PTR __imp__PyErr_SetString

; 975  : 		TraceError("CreateDevice: Unknown Error!");

  001a2	68 00 00 00 00	 push	 OFFSET ??_C@_0BN@JAHEKIGK@CreateDevice?3?5Unknown?5Error?$CB@

; 976  : 		return false;
; 977  : 	}
; 978  : }

  001a7	e8 00 00 00 00	 call	 ?TraceError@@YAXPBDZZ	; TraceError
  001ac	83 c4 0c	 add	 esp, 12			; 0000000cH
  001af	32 c0		 xor	 al, al
  001b1	5d		 pop	 ebp
  001b2	c2 14 00	 ret	 20			; 00000014H
$LN9@CreateDevi:

; 935  : 		return false;
; 936  : 
; 937  : 	case CGraphicDevice::CREATE_FORMAT:
; 938  : 		SET_EXCEPTION(CREATE_FORMAT);

  001b5	a1 00 00 00 00	 mov	 eax, DWORD PTR __imp__PyExc_RuntimeError
  001ba	68 00 00 00 00	 push	 OFFSET ??_C@_0O@DAEHMKOB@CREATE_FORMAT@
  001bf	ff 30		 push	 DWORD PTR [eax]
  001c1	ff 15 00 00 00
	00		 call	 DWORD PTR __imp__PyErr_SetString

; 939  : 		TraceError("CreateDevice: Change the screen format");

  001c7	68 00 00 00 00	 push	 OFFSET ??_C@_0CH@DEBFNBPL@CreateDevice?3?5Change?5the?5screen@

; 976  : 		return false;
; 977  : 	}
; 978  : }

  001cc	e8 00 00 00 00	 call	 ?TraceError@@YAXPBDZZ	; TraceError
  001d1	83 c4 0c	 add	 esp, 12			; 0000000cH
  001d4	32 c0		 xor	 al, al
  001d6	5d		 pop	 ebp
  001d7	c2 14 00	 ret	 20			; 00000014H
  001da	66 90		 npad	 2
$LN18@CreateDevi:
  001dc	00 00 00 00	 DD	 $LN14@CreateDevi
  001e0	00 00 00 00	 DD	 $LN7@CreateDevi
  001e4	00 00 00 00	 DD	 $LN12@CreateDevi
  001e8	00 00 00 00	 DD	 $LN10@CreateDevi
  001ec	00 00 00 00	 DD	 $LN12@CreateDevi
  001f0	00 00 00 00	 DD	 $LN12@CreateDevi
  001f4	00 00 00 00	 DD	 $LN12@CreateDevi
  001f8	00 00 00 00	 DD	 $LN11@CreateDevi
?CreateDevice@CPythonApplication@@QAE_NHHHHH@Z ENDP	; CPythonApplication::CreateDevice
_TEXT	ENDS
; Function compile flags: /Ogtp
; File D:\Metin2 Server Files\mainline\SRC_2014\Metin2Client\UserInterface\PythonApplication.cpp
;	COMDAT ?Create@CPythonApplication@@QAE_NPAU_object@@PBDHHH@Z
_TEXT	SEGMENT
tv477 = -40						; size = 4
_sStickKeys$ = -36					; size = 8
_Windowed$1$ = -28					; size = 4
_this$1$ = -24						; size = 4
$T1 = -24						; size = 1
_rc$2 = -20						; size = 16
__$ArrayPad$ = -4					; size = 4
_poSelf$ = 8						; size = 4
_c_szName$ = 12						; size = 4
_width$ = 16						; size = 4
_height$ = 20						; size = 4
_Windowed$ = 24						; size = 4
?Create@CPythonApplication@@QAE_NPAU_object@@PBDHHH@Z PROC ; CPythonApplication::Create, COMDAT
; _this$ = ecx

; 1093 : {

  00000	55		 push	 ebp
  00001	8b ec		 mov	 ebp, esp
  00003	83 ec 28	 sub	 esp, 40			; 00000028H
  00006	a1 00 00 00 00	 mov	 eax, DWORD PTR ___security_cookie
  0000b	33 c5		 xor	 eax, ebp
  0000d	89 45 fc	 mov	 DWORD PTR __$ArrayPad$[ebp], eax
  00010	53		 push	 ebx
  00011	56		 push	 esi
  00012	57		 push	 edi
  00013	89 4d e8	 mov	 DWORD PTR _this$1$[ebp], ecx

; 1094 : 	NANOBEGIN

  00016	eb		 DB	 -21			; ffffffebH
  00017	03		 DB	 3
  00018	d6		 DB	 -42			; ffffffd6H
  00019	d7		 DB	 -41			; ffffffd7H
  0001a	01		 DB	 1
  0001b	8b 0d 00 00 00
	00		 mov	 ecx, DWORD PTR ?ms_singleton@?$CSingleton@VCPythonSystem@@@@0PAVCPythonSystem@@A ; CSingleton<CPythonSystem>::ms_singleton
  00021	e8 00 00 00 00	 call	 ?IsWindowed@CPythonSystem@@QAE_NXZ ; CPythonSystem::IsWindowed

; 1095 : 		Windowed = CPythonSystem::Instance().IsWindowed() ? 1 : 0;
; 1096 : 
; 1097 : 	bool bAnotherWindow = false;
; 1098 : 
; 1099 : 	if (FindWindow(NULL, c_szName))

  00026	8b 75 0c	 mov	 esi, DWORD PTR _c_szName$[ebp]
  00029	33 c9		 xor	 ecx, ecx
  0002b	84 c0		 test	 al, al
  0002d	56		 push	 esi
  0002e	0f 95 c1	 setne	 cl
  00031	32 db		 xor	 bl, bl
  00033	6a 00		 push	 0
  00035	89 4d e4	 mov	 DWORD PTR _Windowed$1$[ebp], ecx
  00038	ff 15 00 00 00
	00		 call	 DWORD PTR __imp__FindWindowA@8
  0003e	85 c0		 test	 eax, eax
  00040	0f b6 cb	 movzx	 ecx, bl

; 1100 : 		bAnotherWindow = true;
; 1101 : 
; 1102 : 	m_dwWidth = width;

  00043	8b 5d e8	 mov	 ebx, DWORD PTR _this$1$[ebp]
  00046	ba 01 00 00 00	 mov	 edx, 1
  0004b	8b 45 10	 mov	 eax, DWORD PTR _width$[ebp]
  0004e	0f 45 ca	 cmovne	 ecx, edx

; 1103 : 	m_dwHeight = height;
; 1104 : 
; 1105 : 	// Window
; 1106 : 	UINT WindowMode = __GetWindowMode(Windowed ? true : false);
; 1107 : 
; 1108 : 	if (!CMSWindow::Create(c_szName, 4, 0, WindowMode, ::LoadIcon( GetInstance(), MAKEINTRESOURCE( IDI_METIN2 ) ), IDC_CURSOR_NORMAL))

  00051	6a 66		 push	 102			; 00000066H
  00053	89 4d d8	 mov	 DWORD PTR tv477[ebp], ecx
  00056	8b cb		 mov	 ecx, ebx
  00058	89 83 5c ed 01
	00		 mov	 DWORD PTR [ebx+126300], eax
  0005e	8b 45 14	 mov	 eax, DWORD PTR _height$[ebp]
  00061	6a 64		 push	 100			; 00000064H
  00063	89 83 60 ed 01
	00		 mov	 DWORD PTR [ebx+126304], eax
  00069	e8 00 00 00 00	 call	 ?GetInstance@CMSWindow@@QAEPAUHINSTANCE__@@XZ ; CMSWindow::GetInstance
  0006e	50		 push	 eax
  0006f	ff 15 00 00 00
	00		 call	 DWORD PTR __imp__LoadIconA@8
  00075	8b 7d e4	 mov	 edi, DWORD PTR _Windowed$1$[ebp]
  00078	50		 push	 eax
  00079	57		 push	 edi
  0007a	e8 00 00 00 00	 call	 ?__GetWindowMode@@YAI_N@Z ; __GetWindowMode
  0007f	83 c4 04	 add	 esp, 4
  00082	8b cb		 mov	 ecx, ebx
  00084	50		 push	 eax
  00085	6a 00		 push	 0
  00087	6a 04		 push	 4
  00089	56		 push	 esi
  0008a	e8 00 00 00 00	 call	 ?Create@CMSWindow@@QAE_NPBDHKKPAUHICON__@@H@Z ; CMSWindow::Create
  0008f	84 c0		 test	 al, al
  00091	75 34		 jne	 SHORT $LN3@Create

; 1109 : 	{
; 1110 : 		//PyErr_SetString(PyExc_RuntimeError, "CMSWindow::Create failed");
; 1111 : 		TraceError("CMSWindow::Create failed");

  00093	68 00 00 00 00	 push	 OFFSET ??_C@_0BJ@DBNNLGNG@CMSWindow?3?3Create?5failed@
  00098	e8 00 00 00 00	 call	 ?TraceError@@YAXPBDZZ	; TraceError

; 1112 : 		SET_EXCEPTION(CREATE_WINDOW);

  0009d	68 00 00 00 00	 push	 OFFSET ??_C@_0O@NOBMPFEG@CREATE_WINDOW@
$LN29@Create:

; 1276 : 		return true;
; 1277 : }

  000a2	a1 00 00 00 00	 mov	 eax, DWORD PTR __imp__PyExc_RuntimeError
  000a7	ff 30		 push	 DWORD PTR [eax]
  000a9	ff 15 00 00 00
	00		 call	 DWORD PTR __imp__PyErr_SetString
  000af	83 c4 0c	 add	 esp, 12			; 0000000cH
$LN27@Create:
  000b2	32 c0		 xor	 al, al
  000b4	5f		 pop	 edi
  000b5	5e		 pop	 esi
  000b6	5b		 pop	 ebx
  000b7	8b 4d fc	 mov	 ecx, DWORD PTR __$ArrayPad$[ebp]
  000ba	33 cd		 xor	 ecx, ebp
  000bc	e8 00 00 00 00	 call	 @__security_check_cookie@4
  000c1	8b e5		 mov	 esp, ebp
  000c3	5d		 pop	 ebp
  000c4	c2 14 00	 ret	 20			; 00000014H
$LN3@Create:

; 1113 : 		return false;
; 1114 : 	}
; 1115 : 
; 1116 : #ifdef USE_NPROTECT_GAMEGUARD
; 1117 : 	if (!GameGuard_Run(CMSWindow::GetWindowHandle()))
; 1118 : 		return false;
; 1119 : #endif
; 1120 : #ifdef XTRAP_CLIENT_ENABLE
; 1121 : 	if (!XTrap_CheckInit())
; 1122 : 		return false;
; 1123 : #endif
; 1124 : 
; 1125 : 	if (m_pySystem.IsUseDefaultIME())

  000c7	8d b3 48 c6 01
	00		 lea	 esi, DWORD PTR [ebx+116296]
  000cd	8b ce		 mov	 ecx, esi
  000cf	e8 00 00 00 00	 call	 ?IsUseDefaultIME@CPythonSystem@@QAE_NXZ ; CPythonSystem::IsUseDefaultIME
  000d4	84 c0		 test	 al, al
  000d6	74 0e		 je	 SHORT $LN4@Create

; 1126 : 	{
; 1127 : 		CPythonIME::Instance().UseDefaultIME();

  000d8	8b 0d 00 00 00
	00		 mov	 ecx, DWORD PTR ?ms_singleton@?$CSingleton@VCPythonIME@@@@0PAVCPythonIME@@A ; CSingleton<CPythonIME>::ms_singleton
  000de	8d 49 04	 lea	 ecx, DWORD PTR [ecx+4]
  000e1	e8 00 00 00 00	 call	 ?UseDefaultIME@CIME@@QAEXXZ ; CIME::UseDefaultIME
$LN4@Create:

; 1128 : 	}
; 1129 : 
; 1130 : 	//  
; 1131 : 	//  IME    
; 1132 : 	//    
; 1133 : 	if (!m_pySystem.IsWindowed() && (m_pySystem.IsUseDefaultIME() || LocaleService_IsEUROPE()))

  000e6	8b ce		 mov	 ecx, esi
  000e8	e8 00 00 00 00	 call	 ?IsWindowed@CPythonSystem@@QAE_NXZ ; CPythonSystem::IsWindowed
  000ed	84 c0		 test	 al, al
  000ef	75 4b		 jne	 SHORT $LN5@Create
  000f1	8b ce		 mov	 ecx, esi
  000f3	e8 00 00 00 00	 call	 ?IsUseDefaultIME@CPythonSystem@@QAE_NXZ ; CPythonSystem::IsUseDefaultIME
  000f8	84 c0		 test	 al, al
  000fa	75 09		 jne	 SHORT $LN7@Create
  000fc	e8 00 00 00 00	 call	 ?LocaleService_IsEUROPE@@YA_NXZ ; LocaleService_IsEUROPE
  00101	84 c0		 test	 al, al
  00103	74 37		 je	 SHORT $LN5@Create
$LN7@Create:

; 1134 : 	{
; 1135 : 		m_isWindowed = false;
; 1136 : 		m_isWindowFullScreenEnable = TRUE;
; 1137 : 		__SetFullScreenWindow(GetWindowHandle(), width, height, m_pySystem.GetBPP());

  00105	8b ce		 mov	 ecx, esi
  00107	c6 83 68 ee 01
	00 00		 mov	 BYTE PTR [ebx+126568], 0
  0010e	c7 83 8c ee 01
	00 01 00 00 00	 mov	 DWORD PTR [ebx+126604], 1
  00118	e8 00 00 00 00	 call	 ?GetBPP@CPythonSystem@@QAEKXZ ; CPythonSystem::GetBPP
  0011d	50		 push	 eax
  0011e	ff 75 14	 push	 DWORD PTR _height$[ebp]
  00121	8b cb		 mov	 ecx, ebx
  00123	ff 75 10	 push	 DWORD PTR _width$[ebp]
  00126	e8 00 00 00 00	 call	 ?GetWindowHandle@CMSWindow@@QAEPAUHWND__@@XZ ; CMSWindow::GetWindowHandle
  0012b	50		 push	 eax
  0012c	8b cb		 mov	 ecx, ebx
  0012e	e8 00 00 00 00	 call	 ?__SetFullScreenWindow@CPythonApplication@@IAEXPAUHWND__@@KKK@Z ; CPythonApplication::__SetFullScreenWindow

; 1138 : 
; 1139 : 		Windowed = true;

  00133	c7 45 e4 01 00
	00 00		 mov	 DWORD PTR _Windowed$1$[ebp], 1

; 1140 : 	}

  0013a	eb 6e		 jmp	 SHORT $LN9@Create
$LN5@Create:

; 1141 : 	else
; 1142 : 	{
; 1143 : 		AdjustSize(m_pySystem.GetWidth(), m_pySystem.GetHeight());

  0013c	8b ce		 mov	 ecx, esi
  0013e	e8 00 00 00 00	 call	 ?GetHeight@CPythonSystem@@QAEKXZ ; CPythonSystem::GetHeight
  00143	50		 push	 eax
  00144	8b ce		 mov	 ecx, esi
  00146	e8 00 00 00 00	 call	 ?GetWidth@CPythonSystem@@QAEKXZ ; CPythonSystem::GetWidth
  0014b	50		 push	 eax
  0014c	8b cb		 mov	 ecx, ebx
  0014e	e8 00 00 00 00	 call	 ?AdjustSize@CMSWindow@@QAEXHH@Z ; CMSWindow::AdjustSize

; 1144 : 
; 1145 : 		if (Windowed)

  00153	85 ff		 test	 edi, edi
  00155	74 41		 je	 SHORT $LN8@Create

; 1146 : 		{
; 1147 : 			m_isWindowed = true;
; 1148 : 
; 1149 : 			if (bAnotherWindow)

  00157	80 7d d8 00	 cmp	 BYTE PTR tv477[ebp], 0
  0015b	c6 83 68 ee 01
	00 01		 mov	 BYTE PTR [ebx+126568], 1
  00162	74 46		 je	 SHORT $LN9@Create

; 1150 : 			{
; 1151 : 				RECT rc;
; 1152 : 
; 1153 : 				GetClientRect(&rc);

  00164	8d 45 ec	 lea	 eax, DWORD PTR _rc$2[ebp]
  00167	8b cb		 mov	 ecx, ebx
  00169	50		 push	 eax
  0016a	e8 00 00 00 00	 call	 ?GetClientRect@CMSWindow@@QAEXPAUtagRECT@@@Z ; CMSWindow::GetClientRect

; 1154 : 
; 1155 : 				int windowWidth = rc.right - rc.left;

  0016f	8b 7d f4	 mov	 edi, DWORD PTR _rc$2[ebp+8]

; 1156 : 				int windowHeight = (rc.bottom - rc.top);
; 1157 : 
; 1158 : 				CMSApplication::SetPosition(GetScreenWidth() - windowWidth, GetScreenHeight() - 60 - windowHeight);

  00172	8b cb		 mov	 ecx, ebx
  00174	8b 75 f8	 mov	 esi, DWORD PTR _rc$2[ebp+12]
  00177	2b 7d ec	 sub	 edi, DWORD PTR _rc$2[ebp]
  0017a	2b 75 f0	 sub	 esi, DWORD PTR _rc$2[ebp+4]
  0017d	e8 00 00 00 00	 call	 ?GetScreenHeight@CMSWindow@@QAEHXZ ; CMSWindow::GetScreenHeight
  00182	b9 c4 ff ff ff	 mov	 ecx, -60		; ffffffc4H
  00187	2b ce		 sub	 ecx, esi
  00189	03 c1		 add	 eax, ecx
  0018b	8b cb		 mov	 ecx, ebx
  0018d	50		 push	 eax
  0018e	e8 00 00 00 00	 call	 ?GetScreenWidth@CMSWindow@@QAEHXZ ; CMSWindow::GetScreenWidth
  00193	2b c7		 sub	 eax, edi
  00195	50		 push	 eax

; 1159 : 			}
; 1160 : 		}

  00196	eb 0b		 jmp	 SHORT $LN28@Create
$LN8@Create:

; 1161 : 		else
; 1162 : 		{
; 1163 : 			m_isWindowed = false;
; 1164 : 			SetPosition(0, 0);

  00198	6a 00		 push	 0
  0019a	c6 83 68 ee 01
	00 00		 mov	 BYTE PTR [ebx+126568], 0
  001a1	6a 00		 push	 0
$LN28@Create:

; 1165 : 		}
; 1166 : 	}
; 1167 : 
; 1168 : 	NANOEND

  001a3	8b cb		 mov	 ecx, ebx
  001a5	e8 00 00 00 00	 call	 ?SetPosition@CMSWindow@@QAEXHH@Z ; CMSWindow::SetPosition
$LN9@Create:
  001aa	eb		 DB	 -21			; ffffffebH
  001ab	03		 DB	 3
  001ac	d6		 DB	 -42			; ffffffd6H
  001ad	d7		 DB	 -41			; ffffffd7H
  001ae	00		 DB	 0
  001af	8b 7d e8	 mov	 edi, DWORD PTR _this$1$[ebp]
  001b2	8b cf		 mov	 ecx, edi
  001b4	e8 00 00 00 00	 call	 ?CreateCursors@CPythonApplication@@QAE_NXZ ; CPythonApplication::CreateCursors
  001b9	84 c0		 test	 al, al
  001bb	75 14		 jne	 SHORT $LN11@Create

; 1169 : 		///////////////////////////////////////////////////////////////////////////////////////////////////////////////////
; 1170 : 		///////////////////////////////////////////////////////////////////////////////////////////////////////////////////
; 1171 : 
; 1172 : 		// Cursor
; 1173 : 		if (!CreateCursors())
; 1174 : 		{
; 1175 : 			//PyErr_SetString(PyExc_RuntimeError, "CMSWindow::Cursors Create Error");
; 1176 : 			TraceError("CMSWindow::Cursors Create Error");

  001bd	68 00 00 00 00	 push	 OFFSET ??_C@_0CA@FFOMJBHN@CMSWindow?3?3Cursors?5Create?5Error@
  001c2	e8 00 00 00 00	 call	 ?TraceError@@YAXPBDZZ	; TraceError

; 1177 : 			SET_EXCEPTION("CREATE_CURSOR");

  001c7	68 00 00 00 00	 push	 OFFSET ??_C@_0BA@GLLECKCO@?$CCCREATE_CURSOR?$CC@

; 1178 : 			return false;

  001cc	e9 d1 fe ff ff	 jmp	 $LN29@Create
$LN11@Create:

; 1179 : 		}
; 1180 : 
; 1181 : 		if (!m_pySystem.IsNoSoundCard())

  001d1	8d 9f 48 c6 01
	00		 lea	 ebx, DWORD PTR [edi+116296]
  001d7	8b cb		 mov	 ecx, ebx
  001d9	e8 00 00 00 00	 call	 ?IsNoSoundCard@CPythonSystem@@QAE_NXZ ; CPythonSystem::IsNoSoundCard
  001de	84 c0		 test	 al, al
  001e0	75 0b		 jne	 SHORT $LN13@Create

; 1182 : 		{
; 1183 : 			// Sound
; 1184 : 			if (!m_SoundManager.Create())

  001e2	8d 8f e8 00 00
	00		 lea	 ecx, DWORD PTR [edi+232]
  001e8	e8 00 00 00 00	 call	 ?Create@CSoundManager@@QAEHXZ ; CSoundManager::Create
$LN13@Create:

; 1185 : 			{
; 1186 : 				// NOTE :   
; 1187 : 				//		LogBox(ApplicationStringTable_GetStringz(IDS_WARN_NO_SOUND_DEVICE));
; 1188 : 			}
; 1189 : 		}
; 1190 : 
; 1191 : 		extern bool GRAPHICS_CAPS_SOFTWARE_TILING;
; 1192 : 
; 1193 : 		if (!m_pySystem.IsAutoTiling())

  001ed	8b cb		 mov	 ecx, ebx
  001ef	e8 00 00 00 00	 call	 ?IsAutoTiling@CPythonSystem@@QAE_NXZ ; CPythonSystem::IsAutoTiling
  001f4	84 c0		 test	 al, al
  001f6	75 0c		 jne	 SHORT $LN14@Create

; 1194 : 			GRAPHICS_CAPS_SOFTWARE_TILING = m_pySystem.IsSoftwareTiling();

  001f8	8b cb		 mov	 ecx, ebx
  001fa	e8 00 00 00 00	 call	 ?IsSoftwareTiling@CPythonSystem@@QAE_NXZ ; CPythonSystem::IsSoftwareTiling
  001ff	a2 00 00 00 00	 mov	 BYTE PTR ?GRAPHICS_CAPS_SOFTWARE_TILING@@3_NA, al ; GRAPHICS_CAPS_SOFTWARE_TILING
$LN14@Create:

; 1195 : 
; 1196 : 		// Device
; 1197 : 		if (!CreateDevice(m_pySystem.GetWidth(), m_pySystem.GetHeight(), Windowed, m_pySystem.GetBPP(), m_pySystem.GetFrequency()))

  00204	8b cb		 mov	 ecx, ebx
  00206	e8 00 00 00 00	 call	 ?GetFrequency@CPythonSystem@@QAEKXZ ; CPythonSystem::GetFrequency
  0020b	50		 push	 eax
  0020c	8b cb		 mov	 ecx, ebx
  0020e	e8 00 00 00 00	 call	 ?GetBPP@CPythonSystem@@QAEKXZ ; CPythonSystem::GetBPP
  00213	50		 push	 eax
  00214	ff 75 e4	 push	 DWORD PTR _Windowed$1$[ebp]
  00217	8b cb		 mov	 ecx, ebx
  00219	e8 00 00 00 00	 call	 ?GetHeight@CPythonSystem@@QAEKXZ ; CPythonSystem::GetHeight
  0021e	50		 push	 eax
  0021f	8b cb		 mov	 ecx, ebx
  00221	e8 00 00 00 00	 call	 ?GetWidth@CPythonSystem@@QAEKXZ ; CPythonSystem::GetWidth
  00226	50		 push	 eax
  00227	8b cf		 mov	 ecx, edi
  00229	e8 00 00 00 00	 call	 ?CreateDevice@CPythonApplication@@QAE_NHHHHH@Z ; CPythonApplication::CreateDevice
  0022e	84 c0		 test	 al, al
  00230	0f 84 7c fe ff
	ff		 je	 $LN27@Create

; 1198 : 			return false;
; 1199 : 
; 1200 : 		GrannyCreateSharedDeformBuffer();

  00236	e8 00 00 00 00	 call	 ?GrannyCreateSharedDeformBuffer@@YAXXZ ; GrannyCreateSharedDeformBuffer

; 1201 : 
; 1202 : 		if (m_pySystem.IsAutoTiling())

  0023b	8b cb		 mov	 ecx, ebx
  0023d	e8 00 00 00 00	 call	 ?IsAutoTiling@CPythonSystem@@QAE_NXZ ; CPythonSystem::IsAutoTiling
  00242	84 c0		 test	 al, al
  00244	74 0d		 je	 SHORT $LN16@Create

; 1203 : 		{
; 1204 : 			if (m_grpDevice.IsFastTNL())

  00246	e8 00 00 00 00	 call	 ?IsFastTNL@CGraphicBase@@SA_NXZ ; CGraphicBase::IsFastTNL
  0024b	84 c0		 test	 al, al
  0024d	0f 94 45 e8	 sete	 BYTE PTR $T1[ebp]

; 1205 : 			{
; 1206 : 				m_pyBackground.ReserveSoftwareTilingEnable(false);
; 1207 : 			}
; 1208 : 			else
; 1209 : 			{
; 1210 : 				m_pyBackground.ReserveSoftwareTilingEnable(true);
; 1211 : 			}
; 1212 : 		}

  00251	eb 0a		 jmp	 SHORT $LN17@Create
$LN16@Create:

; 1213 : 		else
; 1214 : 		{
; 1215 : 			m_pyBackground.ReserveSoftwareTilingEnable(m_pySystem.IsSoftwareTiling());

  00253	8b cb		 mov	 ecx, ebx
  00255	e8 00 00 00 00	 call	 ?IsSoftwareTiling@CPythonSystem@@QAE_NXZ ; CPythonSystem::IsSoftwareTiling
  0025a	88 45 e8	 mov	 BYTE PTR $T1[ebp], al
$LN17@Create:

; 1216 : 		}
; 1217 : 
; 1218 : 		SetVisibleMode(true);

  0025d	ff 75 e8	 push	 DWORD PTR $T1[ebp]
  00260	8d 8f 4c a9 01
	00		 lea	 ecx, DWORD PTR [edi+108876]
  00266	e8 00 00 00 00	 call	 ?ReserveSoftwareTilingEnable@CMapManager@@QAEX_N@Z ; CMapManager::ReserveSoftwareTilingEnable
  0026b	6a 01		 push	 1
  0026d	8b cf		 mov	 ecx, edi
  0026f	e8 00 00 00 00	 call	 ?SetVisibleMode@CMSWindow@@QAEX_N@Z ; CMSWindow::SetVisibleMode

; 1219 : 
; 1220 : 		if (m_isWindowFullScreenEnable) //m_pySystem.IsUseDefaultIME() && !m_pySystem.IsWindowed())

  00274	83 bf 8c ee 01
	00 00		 cmp	 DWORD PTR [edi+126604], 0
  0027b	74 1c		 je	 SHORT $LN20@Create

; 1221 : 		{
; 1222 : 			SetWindowPos(GetWindowHandle(), HWND_TOP, 0, 0, width, height, SWP_SHOWWINDOW);

  0027d	6a 40		 push	 64			; 00000040H
  0027f	ff 75 14	 push	 DWORD PTR _height$[ebp]
  00282	8b cf		 mov	 ecx, edi
  00284	ff 75 10	 push	 DWORD PTR _width$[ebp]
  00287	6a 00		 push	 0
  00289	6a 00		 push	 0
  0028b	6a 00		 push	 0
  0028d	e8 00 00 00 00	 call	 ?GetWindowHandle@CMSWindow@@QAEPAUHWND__@@XZ ; CMSWindow::GetWindowHandle
  00292	50		 push	 eax
  00293	ff 15 00 00 00
	00		 call	 DWORD PTR __imp__SetWindowPos@28
$LN20@Create:

; 1223 : 		}
; 1224 : 
; 1225 : 		if (!InitializeKeyboard(GetWindowHandle()))

  00299	8b cf		 mov	 ecx, edi
  0029b	e8 00 00 00 00	 call	 ?GetWindowHandle@CMSWindow@@QAEPAUHWND__@@XZ ; CMSWindow::GetWindowHandle
  002a0	50		 push	 eax
  002a1	8d 4f 1c	 lea	 ecx, DWORD PTR [edi+28]
  002a4	e8 00 00 00 00	 call	 ?InitializeKeyboard@CInputKeyboard@@QAE_NPAUHWND__@@@Z ; CInputKeyboard::InitializeKeyboard
  002a9	84 c0		 test	 al, al
  002ab	0f 84 01 fe ff
	ff		 je	 $LN27@Create

; 1226 : 			return false;
; 1227 : 
; 1228 : 		m_pySystem.GetDisplaySettings();

  002b1	8b cb		 mov	 ecx, ebx
  002b3	e8 00 00 00 00	 call	 ?GetDisplaySettings@CPythonSystem@@QAEXXZ ; CPythonSystem::GetDisplaySettings

; 1229 : 
; 1230 : 		// Mouse
; 1231 : 		if (m_pySystem.IsSoftwareCursor())

  002b8	8b cb		 mov	 ecx, ebx
  002ba	e8 00 00 00 00	 call	 ?IsSoftwareCursor@CPythonSystem@@QAE_NXZ ; CPythonSystem::IsSoftwareCursor
  002bf	33 c9		 xor	 ecx, ecx
  002c1	84 c0		 test	 al, al
  002c3	0f 95 c1	 setne	 cl

; 1232 : 			SetCursorMode(CURSOR_MODE_SOFTWARE);
; 1233 : 		else
; 1234 : 			SetCursorMode(CURSOR_MODE_HARDWARE);
; 1235 : 
; 1236 : 		// Network
; 1237 : 		if (!m_netDevice.Create())

  002c6	51		 push	 ecx
  002c7	8b cf		 mov	 ecx, edi
  002c9	e8 00 00 00 00	 call	 ?SetCursorMode@CPythonApplication@@QAEXH@Z ; CPythonApplication::SetCursorMode
  002ce	8d 8f 40 c6 01
	00		 lea	 ecx, DWORD PTR [edi+116288]
  002d4	e8 00 00 00 00	 call	 ?Create@CNetworkDevice@@QAE_NXZ ; CNetworkDevice::Create
  002d9	84 c0		 test	 al, al
  002db	75 14		 jne	 SHORT $LN24@Create

; 1238 : 		{
; 1239 : 			//PyErr_SetString(PyExc_RuntimeError, "NetDevice::Create failed");
; 1240 : 			TraceError("NetDevice::Create failed");

  002dd	68 00 00 00 00	 push	 OFFSET ??_C@_0BJ@CJEBNOLC@NetDevice?3?3Create?5failed@
  002e2	e8 00 00 00 00	 call	 ?TraceError@@YAXPBDZZ	; TraceError

; 1241 : 			SET_EXCEPTION("CREATE_NETWORK");

  002e7	68 00 00 00 00	 push	 OFFSET ??_C@_0BB@EJLMKODK@?$CCCREATE_NETWORK?$CC@

; 1242 : 			return false;

  002ec	e9 b1 fd ff ff	 jmp	 $LN29@Create
$LN24@Create:

; 1243 : 		}
; 1244 : 
; 1245 : 		if (!m_grpDevice.IsFastTNL())

  002f1	e8 00 00 00 00	 call	 ?IsFastTNL@CGraphicBase@@SA_NXZ ; CGraphicBase::IsFastTNL
  002f6	84 c0		 test	 al, al
  002f8	75 0a		 jne	 SHORT $LN25@Create

; 1246 : 			CGrannyLODController::SetMinLODMode(true);

  002fa	6a 01		 push	 1
  002fc	e8 00 00 00 00	 call	 ?SetMinLODMode@CGrannyLODController@@SAX_N@Z ; CGrannyLODController::SetMinLODMode
  00301	83 c4 04	 add	 esp, 4
$LN25@Create:

; 1247 : 
; 1248 : 		m_pyItem.Create();

  00304	8d 8f e0 81 01
	00		 lea	 ecx, DWORD PTR [edi+98784]
  0030a	e8 00 00 00 00	 call	 ?Create@CPythonItem@@QAEXXZ ; CPythonItem::Create

; 1249 : 
; 1250 : 		// Other Modules
; 1251 : 		DefaultFont_Startup();

  0030f	e8 00 00 00 00	 call	 ?DefaultFont_Startup@@YAXXZ ; DefaultFont_Startup

; 1252 : 
; 1253 : 		CPythonIME::Instance().Create(GetWindowHandle());

  00314	8b cf		 mov	 ecx, edi
  00316	e8 00 00 00 00	 call	 ?GetWindowHandle@CMSWindow@@QAEPAUHWND__@@XZ ; CMSWindow::GetWindowHandle
  0031b	8b 0d 00 00 00
	00		 mov	 ecx, DWORD PTR ?ms_singleton@?$CSingleton@VCPythonIME@@@@0PAVCPythonIME@@A ; CSingleton<CPythonIME>::ms_singleton
  00321	50		 push	 eax
  00322	e8 00 00 00 00	 call	 ?Create@CPythonIME@@QAEXPAUHWND__@@@Z ; CPythonIME::Create

; 1254 : 		CPythonIME::Instance().SetText("", 0);

  00327	8b 0d 00 00 00
	00		 mov	 ecx, DWORD PTR ?ms_singleton@?$CSingleton@VCPythonIME@@@@0PAVCPythonIME@@A ; CSingleton<CPythonIME>::ms_singleton
  0032d	6a 00		 push	 0
  0032f	68 00 00 00 00	 push	 OFFSET ??_C@_00CNPNBAHC@@
  00334	8d 49 04	 lea	 ecx, DWORD PTR [ecx+4]
  00337	e8 00 00 00 00	 call	 ?SetText@CIME@@QAEXPBDH@Z ; CIME::SetText

; 1255 : 		CPythonTextTail::Instance().Initialize();

  0033c	8b 0d 00 00 00
	00		 mov	 ecx, DWORD PTR ?ms_singleton@?$CSingleton@VCPythonTextTail@@@@0PAVCPythonTextTail@@A ; CSingleton<CPythonTextTail>::ms_singleton
  00342	e8 00 00 00 00	 call	 ?Initialize@CPythonTextTail@@QAEXXZ ; CPythonTextTail::Initialize

; 1256 : 
; 1257 : 		// Light Manager
; 1258 : 		m_LightManager.Initialize();

  00347	8d 4f 7c	 lea	 ecx, DWORD PTR [edi+124]
  0034a	e8 00 00 00 00	 call	 ?Initialize@CLightManager@@QAEXXZ ; CLightManager::Initialize

; 1259 : 
; 1260 : 		CGraphicImageInstance::CreateSystem(32);

  0034f	6a 20		 push	 32			; 00000020H
  00351	e8 00 00 00 00	 call	 ?CreateSystem@CGraphicImageInstance@@SAXI@Z ; CGraphicImageInstance::CreateSystem

; 1261 : 
; 1262 : 		// 
; 1263 : 		STICKYKEYS sStickKeys;
; 1264 : 		memset(&sStickKeys, 0, sizeof(sStickKeys));
; 1265 : 		sStickKeys.cbSize = sizeof(sStickKeys);
; 1266 : 		SystemParametersInfo( SPI_GETSTICKYKEYS, sizeof(sStickKeys), &sStickKeys, 0 );

  00356	8b 35 00 00 00
	00		 mov	 esi, DWORD PTR __imp__SystemParametersInfoA@16
  0035c	8d 45 dc	 lea	 eax, DWORD PTR _sStickKeys$[ebp]
  0035f	83 c4 04	 add	 esp, 4
  00362	0f 57 c0	 xorps	 xmm0, xmm0
  00365	66 0f 13 45 dc	 movlpd	 QWORD PTR _sStickKeys$[ebp], xmm0
  0036a	c7 45 dc 08 00
	00 00		 mov	 DWORD PTR _sStickKeys$[ebp], 8
  00371	6a 00		 push	 0
  00373	50		 push	 eax
  00374	6a 08		 push	 8
  00376	6a 3a		 push	 58			; 0000003aH
  00378	ff d6		 call	 esi

; 1267 : 		m_dwStickyKeysFlag = sStickKeys.dwFlags;

  0037a	8b 45 e0	 mov	 eax, DWORD PTR _sStickKeys$[ebp+4]
  0037d	89 87 90 ee 01
	00		 mov	 DWORD PTR [edi+126608], eax

; 1268 : 
; 1269 : 		// 
; 1270 : 		sStickKeys.dwFlags &= ~(SKF_AVAILABLE|SKF_HOTKEYACTIVE);

  00383	83 e0 f9	 and	 eax, -7			; fffffff9H

; 1271 : 		SystemParametersInfo( SPI_SETSTICKYKEYS, sizeof(sStickKeys), &sStickKeys, 0 );

  00386	6a 00		 push	 0
  00388	89 45 e0	 mov	 DWORD PTR _sStickKeys$[ebp+4], eax
  0038b	8d 45 dc	 lea	 eax, DWORD PTR _sStickKeys$[ebp]
  0038e	50		 push	 eax
  0038f	6a 08		 push	 8
  00391	6a 3b		 push	 59			; 0000003bH
  00393	ff d6		 call	 esi

; 1272 : 
; 1273 : 		// SphereMap
; 1274 : 		CGrannyMaterial::CreateSphereMap(0, "d:/ymir work/special/spheremap.jpg");

  00395	68 00 00 00 00	 push	 OFFSET ??_C@_0CD@KIIBIHOG@d?3?1ymir?5work?1special?1spheremap?4@
  0039a	6a 00		 push	 0
  0039c	e8 00 00 00 00	 call	 ?CreateSphereMap@CGrannyMaterial@@SAXIPBD@Z ; CGrannyMaterial::CreateSphereMap

; 1275 : 		CGrannyMaterial::CreateSphereMap(1, "d:/ymir work/special/spheremap01.jpg");

  003a1	68 00 00 00 00	 push	 OFFSET ??_C@_0CF@CBFEMJII@d?3?1ymir?5work?1special?1spheremap0@
  003a6	6a 01		 push	 1
  003a8	e8 00 00 00 00	 call	 ?CreateSphereMap@CGrannyMaterial@@SAXIPBD@Z ; CGrannyMaterial::CreateSphereMap

; 1276 : 		return true;
; 1277 : }

  003ad	8b 4d fc	 mov	 ecx, DWORD PTR __$ArrayPad$[ebp]
  003b0	83 c4 10	 add	 esp, 16			; 00000010H
  003b3	33 cd		 xor	 ecx, ebp
  003b5	b0 01		 mov	 al, 1
  003b7	5f		 pop	 edi
  003b8	5e		 pop	 esi
  003b9	5b		 pop	 ebx
  003ba	e8 00 00 00 00	 call	 @__security_check_cookie@4
  003bf	8b e5		 mov	 esp, ebp
  003c1	5d		 pop	 ebp
  003c2	c2 14 00	 ret	 20			; 00000014H
?Create@CPythonApplication@@QAE_NPAU_object@@PBDHHH@Z ENDP ; CPythonApplication::Create
_TEXT	ENDS
; Function compile flags: /Ogtp
; File D:\Metin2 Server Files\mainline\SRC_2014\Metin2Client\UserInterface\PythonApplication.cpp
;	COMDAT ?SkipRenderBuffering@CPythonApplication@@UAEXK@Z
_TEXT	SEGMENT
_dwSleepMSec$ = 8					; size = 4
?SkipRenderBuffering@CPythonApplication@@UAEXK@Z PROC	; CPythonApplication::SkipRenderBuffering, COMDAT
; _this$ = ecx

; 395  : {

  00000	55		 push	 ebp
  00001	8b ec		 mov	 ebp, esp
  00003	56		 push	 esi
  00004	8b f1		 mov	 esi, ecx

; 396  : 	m_dwBufSleepSkipTime=ELTimer_GetMSec()+dwSleepMSec;

  00006	e8 00 00 00 00	 call	 ?ELTimer_GetMSec@@YAKXZ	; ELTimer_GetMSec
  0000b	03 45 08	 add	 eax, DWORD PTR _dwSleepMSec$[ebp]
  0000e	89 86 74 ee 01
	00		 mov	 DWORD PTR [esi+126580], eax
  00014	5e		 pop	 esi

; 397  : }

  00015	5d		 pop	 ebp
  00016	c2 04 00	 ret	 4
?SkipRenderBuffering@CPythonApplication@@UAEXK@Z ENDP	; CPythonApplication::SkipRenderBuffering
_TEXT	ENDS
; Function compile flags: /Ogtp
; File D:\Metin2 Server Files\mainline\SRC_2014\Metin2Client\UserInterface\PythonApplication.cpp
;	COMDAT ?SetFrameSkip@CPythonApplication@@QAEX_N@Z
_TEXT	SEGMENT
_isEnable$ = 8						; size = 1
?SetFrameSkip@CPythonApplication@@QAEX_N@Z PROC		; CPythonApplication::SetFrameSkip, COMDAT
; _this$ = ecx

; 116  : {

  00000	55		 push	 ebp
  00001	8b ec		 mov	 ebp, esp

; 117  : 	if (isEnable)
; 118  : 		m_isFrameSkipDisable=false;
; 119  : 	else
; 120  : 		m_isFrameSkipDisable=true;
; 121  : }

  00003	8a 45 08	 mov	 al, BYTE PTR _isEnable$[ebp]
  00006	34 01		 xor	 al, 1
  00008	88 81 69 ee 01
	00		 mov	 BYTE PTR [ecx+126569], al
  0000e	5d		 pop	 ebp
  0000f	c2 04 00	 ret	 4
?SetFrameSkip@CPythonApplication@@QAEX_N@Z ENDP		; CPythonApplication::SetFrameSkip
_TEXT	ENDS
; Function compile flags: /Ogtp
; File D:\Metin2 Server Files\mainline\SRC_2014\Metin2Client\UserInterface\PythonApplication.cpp
;	COMDAT ?SetMinFog@CPythonApplication@@QAEXM@Z
_TEXT	SEGMENT
_fMinFog$ = 8						; size = 4
?SetMinFog@CPythonApplication@@QAEXM@Z PROC		; CPythonApplication::SetMinFog, COMDAT
; _this$ = ecx

; 111  : {

  00000	55		 push	 ebp
  00001	8b ec		 mov	 ebp, esp

; 112  : 	MIN_FOG = fMinFog;

  00003	f3 0f 10 45 08	 movss	 xmm0, DWORD PTR _fMinFog$[ebp]
  00008	f3 0f 11 05 00
	00 00 00	 movss	 DWORD PTR ?MIN_FOG@@3MA, xmm0

; 113  : }

  00010	5d		 pop	 ebp
  00011	c2 04 00	 ret	 4
?SetMinFog@CPythonApplication@@QAEXM@Z ENDP		; CPythonApplication::SetMinFog
_TEXT	ENDS
; Function compile flags: /Ogtp
; File D:\Metin2 Server Files\mainline\SRC_2014\Metin2Client\UserInterface\PythonApplication.cpp
;	COMDAT ?Abort@CPythonApplication@@QAEXXZ
_TEXT	SEGMENT
?Abort@CPythonApplication@@QAEXXZ PROC			; CPythonApplication::Abort, COMDAT
; _this$ = ecx

; 155  : 	TraceError("============================================================================================================");

  00000	68 00 00 00 00	 push	 OFFSET ??_C@_0GN@LLBDNFAM@?$DN?$DN?$DN?$DN?$DN?$DN?$DN?$DN?$DN?$DN?$DN?$DN?$DN?$DN?$DN?$DN?$DN?$DN?$DN?$DN?$DN?$DN?$DN?$DN?$DN?$DN?$DN?$DN?$DN?$DN?$DN@
  00005	e8 00 00 00 00	 call	 ?TraceError@@YAXPBDZZ	; TraceError

; 156  : 	TraceError("Abort!!!!\n\n");

  0000a	68 00 00 00 00	 push	 OFFSET ??_C@_0M@EHJKIBDK@Abort?$CB?$CB?$CB?$CB?6?6@
  0000f	e8 00 00 00 00	 call	 ?TraceError@@YAXPBDZZ	; TraceError
  00014	83 c4 08	 add	 esp, 8

; 157  : 
; 158  : 	PostQuitMessage(0);

  00017	6a 00		 push	 0
  00019	ff 15 00 00 00
	00		 call	 DWORD PTR __imp__PostQuitMessage@4

; 159  : }

  0001f	c3		 ret	 0
?Abort@CPythonApplication@@QAEXXZ ENDP			; CPythonApplication::Abort
_TEXT	ENDS
; Function compile flags: /Ogtp
; File D:\Metin2 Server Files\mainline\SRC_2014\Metin2Client\UserInterface\PythonApplication.cpp
;	COMDAT ?Exit@CPythonApplication@@QAEXXZ
_TEXT	SEGMENT
?Exit@CPythonApplication@@QAEXXZ PROC			; CPythonApplication::Exit, COMDAT
; _this$ = ecx

; 163  : 	PostQuitMessage(0);

  00000	6a 00		 push	 0
  00002	ff 15 00 00 00
	00		 call	 DWORD PTR __imp__PostQuitMessage@4

; 164  : }

  00008	c3		 ret	 0
?Exit@CPythonApplication@@QAEXXZ ENDP			; CPythonApplication::Exit
_TEXT	ENDS
; Function compile flags: /Ogtp
; File D:\Metin2 Server Files\mainline\SRC_2014\Metin2Client\UserInterface\PythonApplication.cpp
;	COMDAT ?Clear@CPythonApplication@@QAEXXZ
_TEXT	SEGMENT
?Clear@CPythonApplication@@QAEXXZ PROC			; CPythonApplication::Clear, COMDAT
; _this$ = ecx

; 1379 : 	m_pySystem.Clear();

  00000	81 c1 48 c6 01
	00		 add	 ecx, 116296		; 0001c648H
  00006	e9 00 00 00 00	 jmp	 ?Clear@CPythonSystem@@QAEXXZ ; CPythonSystem::Clear
?Clear@CPythonApplication@@QAEXXZ ENDP			; CPythonApplication::Clear
_TEXT	ENDS
; Function compile flags: /Ogtp
; File D:\Metin2 Server Files\mainline\SRC_2014\Metin2Client\UserInterface\PythonApplication.cpp
;	COMDAT ?Destroy@CPythonApplication@@QAEXXZ
_TEXT	SEGMENT
_sStickKeys$ = -8					; size = 8
?Destroy@CPythonApplication@@QAEXXZ PROC		; CPythonApplication::Destroy, COMDAT
; _this$ = ecx

; 1383 : {

  00000	55		 push	 ebp
  00001	8b ec		 mov	 ebp, esp
  00003	83 ec 08	 sub	 esp, 8
  00006	56		 push	 esi
  00007	8b f1		 mov	 esi, ecx

; 1384 : 	WebBrowser_Destroy();

  00009	e8 00 00 00 00	 call	 _WebBrowser_Destroy

; 1385 : 
; 1386 : 	// SphereMap
; 1387 : 	CGrannyMaterial::DestroySphereMap();

  0000e	e8 00 00 00 00	 call	 ?DestroySphereMap@CGrannyMaterial@@SAXXZ ; CGrannyMaterial::DestroySphereMap

; 1388 : 
; 1389 : 	m_kWndMgr.Destroy();

  00013	8d 8e 10 02 00
	00		 lea	 ecx, DWORD PTR [esi+528]
  00019	e8 00 00 00 00	 call	 ?Destroy@CWindowManager@UI@@QAEXXZ ; UI::CWindowManager::Destroy

; 1390 : 
; 1391 : 	CPythonSystem::Instance().SaveConfig();

  0001e	8b 0d 00 00 00
	00		 mov	 ecx, DWORD PTR ?ms_singleton@?$CSingleton@VCPythonSystem@@@@0PAVCPythonSystem@@A ; CSingleton<CPythonSystem>::ms_singleton
  00024	e8 00 00 00 00	 call	 ?SaveConfig@CPythonSystem@@QAE_NXZ ; CPythonSystem::SaveConfig

; 1392 : 
; 1393 : 	DestroyCollisionInstanceSystem();

  00029	e8 00 00 00 00	 call	 ?DestroyCollisionInstanceSystem@@YAXXZ ; DestroyCollisionInstanceSystem

; 1394 : 
; 1395 : 	m_pySystem.SaveInterfaceStatus();

  0002e	8d 8e 48 c6 01
	00		 lea	 ecx, DWORD PTR [esi+116296]
  00034	e8 00 00 00 00	 call	 ?SaveInterfaceStatus@CPythonSystem@@QAEXXZ ; CPythonSystem::SaveInterfaceStatus

; 1396 : 
; 1397 : 	m_pyEventManager.Destroy();	

  00039	8d 8e cc a8 01
	00		 lea	 ecx, DWORD PTR [esi+108748]
  0003f	e8 00 00 00 00	 call	 ?Destroy@CPythonEventManager@@QAEXXZ ; CPythonEventManager::Destroy

; 1398 : 	m_FlyingManager.Destroy();

  00044	8d 8e 5c 01 00
	00		 lea	 ecx, DWORD PTR [esi+348]
  0004a	e8 00 00 00 00	 call	 ?Destroy@CFlyingManager@@QAEXXZ ; CFlyingManager::Destroy

; 1399 : 
; 1400 : 	m_pyMiniMap.Destroy();

  0004f	8d 8e 94 9c 01
	00		 lea	 ecx, DWORD PTR [esi+105620]
  00055	e8 00 00 00 00	 call	 ?Destroy@CPythonMiniMap@@QAEXXZ ; CPythonMiniMap::Destroy

; 1401 : 
; 1402 : 	m_pyTextTail.Destroy();

  0005a	8d 8e 38 9c 01
	00		 lea	 ecx, DWORD PTR [esi+105528]
  00060	e8 00 00 00 00	 call	 ?Destroy@CPythonTextTail@@QAEXXZ ; CPythonTextTail::Destroy

; 1403 : 	m_pyChat.Destroy();	

  00065	8d 8e 64 9b 01
	00		 lea	 ecx, DWORD PTR [esi+105316]
  0006b	e8 00 00 00 00	 call	 ?Destroy@CPythonChat@@QAEXXZ ; CPythonChat::Destroy

; 1404 : 	m_kChrMgr.Destroy();

  00070	8b 86 dc 02 00
	00		 mov	 eax, DWORD PTR [esi+732]
  00076	8d 8e dc 02 00
	00		 lea	 ecx, DWORD PTR [esi+732]
  0007c	ff 50 04	 call	 DWORD PTR [eax+4]

; 1405 : 	m_RaceManager.Destroy();

  0007f	8d 8e 80 01 00
	00		 lea	 ecx, DWORD PTR [esi+384]
  00085	e8 00 00 00 00	 call	 ?Destroy@CRaceManager@@QAEXXZ ; CRaceManager::Destroy

; 1406 : 
; 1407 : 	m_pyItem.Destroy();

  0008a	8d 8e e0 81 01
	00		 lea	 ecx, DWORD PTR [esi+98784]
  00090	e8 00 00 00 00	 call	 ?Destroy@CPythonItem@@QAEXXZ ; CPythonItem::Destroy

; 1408 : 	m_kItemMgr.Destroy();

  00095	8d 8e cc 01 00
	00		 lea	 ecx, DWORD PTR [esi+460]
  0009b	e8 00 00 00 00	 call	 ?Destroy@CItemManager@@QAEXXZ ; CItemManager::Destroy

; 1409 : 
; 1410 : 	m_pyBackground.Destroy();

  000a0	8d 8e 4c a9 01
	00		 lea	 ecx, DWORD PTR [esi+108876]
  000a6	e8 00 00 00 00	 call	 ?Destroy@CPythonBackground@@QAEXXZ ; CPythonBackground::Destroy

; 1411 : 
; 1412 : 	m_kEftMgr.Destroy();

  000ab	8d 8e b0 02 00
	00		 lea	 ecx, DWORD PTR [esi+688]
  000b1	e8 00 00 00 00	 call	 ?Destroy@CEffectManager@@QAEXXZ ; CEffectManager::Destroy

; 1413 : 	m_LightManager.Destroy();

  000b6	8d 4e 7c	 lea	 ecx, DWORD PTR [esi+124]
  000b9	e8 00 00 00 00	 call	 ?Destroy@CLightManager@@QAEXXZ ; CLightManager::Destroy

; 1414 : 
; 1415 : 	// DEFAULT_FONT
; 1416 : 	DefaultFont_Cleanup();

  000be	e8 00 00 00 00	 call	 ?DefaultFont_Cleanup@@YAXXZ ; DefaultFont_Cleanup

; 1417 : 	// END_OF_DEFAULT_FONT
; 1418 : 
; 1419 : 	GrannyDestroySharedDeformBuffer();

  000c3	e8 00 00 00 00	 call	 ?GrannyDestroySharedDeformBuffer@@YAXXZ ; GrannyDestroySharedDeformBuffer

; 1420 : 
; 1421 : 	m_pyGraphic.Destroy();

  000c8	8d 8e 9c 07 00
	00		 lea	 ecx, DWORD PTR [esi+1948]
  000ce	e8 00 00 00 00	 call	 ?Destroy@CPythonGraphic@@QAEXXZ ; CPythonGraphic::Destroy

; 1422 : 	//m_pyNetworkDatagram.Destroy();	
; 1423 : 
; 1424 : 	m_pyRes.Destroy();

  000d3	8d 8e a0 bf 01
	00		 lea	 ecx, DWORD PTR [esi+114592]
  000d9	e8 00 00 00 00	 call	 ?Destroy@CPythonResource@@QAEXXZ ; CPythonResource::Destroy

; 1425 : 
; 1426 : 	m_kGuildMarkDownloader.Disconnect();

  000de	8d 8e 04 c1 01
	00		 lea	 ecx, DWORD PTR [esi+114948]
  000e4	e8 00 00 00 00	 call	 ?Disconnect@CNetworkStream@@QAEXXZ ; CNetworkStream::Disconnect

; 1427 : 
; 1428 : 	CGrannyModelInstance::DestroySystem();

  000e9	e8 00 00 00 00	 call	 ?DestroySystem@CGrannyModelInstance@@SAXXZ ; CGrannyModelInstance::DestroySystem

; 1429 : 	CGraphicImageInstance::DestroySystem();

  000ee	e8 00 00 00 00	 call	 ?DestroySystem@CGraphicImageInstance@@SAXXZ ; CGraphicImageInstance::DestroySystem

; 1430 : 
; 1431 : 
; 1432 : 	m_SoundManager.Destroy();

  000f3	8d 8e e8 00 00
	00		 lea	 ecx, DWORD PTR [esi+232]
  000f9	e8 00 00 00 00	 call	 ?Destroy@CSoundManager@@QAEXXZ ; CSoundManager::Destroy

; 1433 : 	m_grpDevice.Destroy();

  000fe	8d 8e 2c c6 01
	00		 lea	 ecx, DWORD PTR [esi+116268]
  00104	e8 00 00 00 00	 call	 ?Destroy@CGraphicDevice@@QAEXXZ ; CGraphicDevice::Destroy

; 1434 : 
; 1435 : 	// FIXME :    - [levites]
; 1436 : 	//CSpeedTreeForestDirectX8::Instance().Clear();
; 1437 : 
; 1438 : 	CAttributeInstance::DestroySystem();

  00109	e8 00 00 00 00	 call	 ?DestroySystem@CAttributeInstance@@SAXXZ ; CAttributeInstance::DestroySystem

; 1439 : 	CTextFileLoader::DestroySystem();

  0010e	e8 00 00 00 00	 call	 ?DestroySystem@CTextFileLoader@@SAXXZ ; CTextFileLoader::DestroySystem

; 1440 : 	DestroyCursors();

  00113	8b ce		 mov	 ecx, esi
  00115	e8 00 00 00 00	 call	 ?DestroyCursors@CPythonApplication@@QAEXXZ ; CPythonApplication::DestroyCursors

; 1441 : 
; 1442 : 	CMSApplication::Destroy();

  0011a	8b ce		 mov	 ecx, esi
  0011c	e8 00 00 00 00	 call	 ?Destroy@CMSWindow@@QAEXXZ ; CMSWindow::Destroy

; 1443 : 
; 1444 : 	STICKYKEYS sStickKeys;
; 1445 : 	memset(&sStickKeys, 0, sizeof(sStickKeys));
; 1446 : 	sStickKeys.cbSize = sizeof(sStickKeys);
; 1447 : 	sStickKeys.dwFlags = m_dwStickyKeysFlag;

  00121	8b 86 90 ee 01
	00		 mov	 eax, DWORD PTR [esi+126608]

; 1448 : 	SystemParametersInfo( SPI_SETSTICKYKEYS, sizeof(sStickKeys), &sStickKeys, 0 );

  00127	6a 00		 push	 0
  00129	89 45 fc	 mov	 DWORD PTR _sStickKeys$[ebp+4], eax
  0012c	8d 45 f8	 lea	 eax, DWORD PTR _sStickKeys$[ebp]
  0012f	50		 push	 eax
  00130	6a 08		 push	 8
  00132	6a 3b		 push	 59			; 0000003bH
  00134	c7 45 f8 08 00
	00 00		 mov	 DWORD PTR _sStickKeys$[ebp], 8
  0013b	ff 15 00 00 00
	00		 call	 DWORD PTR __imp__SystemParametersInfoA@16
  00141	5e		 pop	 esi

; 1449 : }

  00142	8b e5		 mov	 esp, ebp
  00144	5d		 pop	 ebp
  00145	c3		 ret	 0
?Destroy@CPythonApplication@@QAEXXZ ENDP		; CPythonApplication::Destroy
_TEXT	ENDS
; Function compile flags: /Ogtp
; File D:\Metin2 Server Files\mainline\SRC_2014\Metin2Client\UserInterface\PythonApplication.cpp
;	COMDAT ?Loop@CPythonApplication@@QAEXXZ
_TEXT	SEGMENT
?Loop@CPythonApplication@@QAEXXZ PROC			; CPythonApplication::Loop, COMDAT
; _this$ = ecx

; 981  : {	

  00000	56		 push	 esi
  00001	8b f1		 mov	 esi, ecx
$LL2@Loop:

; 982  : 	while (1)
; 983  : 	{	
; 984  : 		if (IsMessage())

  00003	8b ce		 mov	 ecx, esi
  00005	e8 00 00 00 00	 call	 ?IsMessage@CMSApplication@@QAE_NXZ ; CMSApplication::IsMessage
  0000a	8b ce		 mov	 ecx, esi
  0000c	84 c0		 test	 al, al
  0000e	74 0b		 je	 SHORT $LN4@Loop

; 985  : 		{
; 986  : 			if (!MessageProcess())

  00010	e8 00 00 00 00	 call	 ?MessageProcess@CMSApplication@@QAE_NXZ ; CMSApplication::MessageProcess
  00015	84 c0		 test	 al, al
  00017	75 ea		 jne	 SHORT $LL2@Loop
$LN11@Loop:
  00019	5e		 pop	 esi

; 997  : }

  0001a	c3		 ret	 0
$LN4@Loop:

; 987  : 				break;
; 988  : 		}
; 989  : 		else
; 990  : 		{
; 991  : 			if (!Process())

  0001b	e8 00 00 00 00	 call	 ?Process@CPythonApplication@@QAE_NXZ ; CPythonApplication::Process
  00020	84 c0		 test	 al, al
  00022	74 f5		 je	 SHORT $LN11@Loop

; 992  : 				break;
; 993  : 
; 994  : 			m_dwLastIdleTime=ELTimer_GetMSec();

  00024	e8 00 00 00 00	 call	 ?ELTimer_GetMSec@@YAKXZ	; ELTimer_GetMSec
  00029	89 86 64 ed 01
	00		 mov	 DWORD PTR [esi+126308], eax

; 995  : 		}
; 996  : 	}

  0002f	eb d2		 jmp	 SHORT $LL2@Loop
?Loop@CPythonApplication@@QAEXXZ ENDP			; CPythonApplication::Loop
_TEXT	ENDS
; Function compile flags: /Ogtp
; File D:\Metin2 Server Files\mainline\SRC_2014\Metin2Client\UserInterface\PythonApplication.cpp
;	COMDAT ?GetMousePosition@CPythonApplication@@UAEXPAUtagPOINT@@@Z
_TEXT	SEGMENT
_ppt$ = 8						; size = 4
?GetMousePosition@CPythonApplication@@UAEXPAUtagPOINT@@@Z PROC ; CPythonApplication::GetMousePosition, COMDAT
; _this$ = ecx

; 106  : {

  00000	55		 push	 ebp
  00001	8b ec		 mov	 ebp, esp

; 107  : 	CMSApplication::GetMousePosition(ppt);

  00003	83 c1 e0	 add	 ecx, -32		; ffffffe0H

; 108  : }

  00006	5d		 pop	 ebp

; 107  : 	CMSApplication::GetMousePosition(ppt);

  00007	e9 00 00 00 00	 jmp	 ?GetMousePosition@CMSWindow@@QAEXPAUtagPOINT@@@Z ; CMSWindow::GetMousePosition
?GetMousePosition@CPythonApplication@@UAEXPAUtagPOINT@@@Z ENDP ; CPythonApplication::GetMousePosition
_TEXT	ENDS
; Function compile flags: /Ogtp
; File D:\Metin2 Server Files\mainline\SRC_2014\Metin2Client\UserInterface\PythonApplication.cpp
;	COMDAT ?GetInfo@CPythonApplication@@QAEXIPAV?$basic_string@DU?$char_traits@D@std@@V?$allocator@D@2@@std@@@Z
_TEXT	SEGMENT
_eInfo$ = 8						; size = 4
_pstInfo$ = 12						; size = 4
?GetInfo@CPythonApplication@@QAEXIPAV?$basic_string@DU?$char_traits@D@std@@V?$allocator@D@2@@std@@@Z PROC ; CPythonApplication::GetInfo, COMDAT
; _this$ = ecx

; 135  : {

  00000	55		 push	 ebp
  00001	8b ec		 mov	 ebp, esp

; 136  : 	switch (eInfo)

  00003	8b 45 08	 mov	 eax, DWORD PTR _eInfo$[ebp]
  00006	83 f8 03	 cmp	 eax, 3
  00009	77 4b		 ja	 SHORT $LN2@GetInfo
  0000b	ff 24 85 00 00
	00 00		 jmp	 DWORD PTR $LN9@GetInfo[eax*4]
$LN4@GetInfo:

; 137  : 	{
; 138  : 	case INFO_ACTOR:
; 139  : 		m_kChrMgr.GetInfo(pstInfo);

  00012	ff 75 0c	 push	 DWORD PTR _pstInfo$[ebp]
  00015	81 c1 d8 02 00
	00		 add	 ecx, 728		; 000002d8H
  0001b	e8 00 00 00 00	 call	 ?GetInfo@CPythonCharacterManager@@QAEXPAV?$basic_string@DU?$char_traits@D@std@@V?$allocator@D@2@@std@@@Z ; CPythonCharacterManager::GetInfo

; 149  : 		break;
; 150  : 	}
; 151  : }

  00020	5d		 pop	 ebp
  00021	c2 08 00	 ret	 8
$LN5@GetInfo:

; 140  : 		break;
; 141  : 	case INFO_EFFECT:
; 142  : 		m_kEftMgr.GetInfo(pstInfo);			

  00024	ff 75 0c	 push	 DWORD PTR _pstInfo$[ebp]
  00027	81 c1 b0 02 00
	00		 add	 ecx, 688		; 000002b0H
  0002d	e8 00 00 00 00	 call	 ?GetInfo@CEffectManager@@QAEXPAV?$basic_string@DU?$char_traits@D@std@@V?$allocator@D@2@@std@@@Z ; CEffectManager::GetInfo

; 149  : 		break;
; 150  : 	}
; 151  : }

  00032	5d		 pop	 ebp
  00033	c2 08 00	 ret	 8
$LN6@GetInfo:

; 143  : 		break;
; 144  : 	case INFO_ITEM:
; 145  : 		m_pyItem.GetInfo(pstInfo);

  00036	ff 75 0c	 push	 DWORD PTR _pstInfo$[ebp]
  00039	81 c1 e0 81 01
	00		 add	 ecx, 98784		; 000181e0H
  0003f	e8 00 00 00 00	 call	 ?GetInfo@CPythonItem@@QAEXPAV?$basic_string@DU?$char_traits@D@std@@V?$allocator@D@2@@std@@@Z ; CPythonItem::GetInfo

; 149  : 		break;
; 150  : 	}
; 151  : }

  00044	5d		 pop	 ebp
  00045	c2 08 00	 ret	 8
$LN7@GetInfo:

; 146  : 		break;
; 147  : 	case INFO_TEXTTAIL:
; 148  : 		m_pyTextTail.GetInfo(pstInfo);

  00048	ff 75 0c	 push	 DWORD PTR _pstInfo$[ebp]
  0004b	81 c1 38 9c 01
	00		 add	 ecx, 105528		; 00019c38H
  00051	e8 00 00 00 00	 call	 ?GetInfo@CPythonTextTail@@QAEXPAV?$basic_string@DU?$char_traits@D@std@@V?$allocator@D@2@@std@@@Z ; CPythonTextTail::GetInfo
$LN2@GetInfo:

; 149  : 		break;
; 150  : 	}
; 151  : }

  00056	5d		 pop	 ebp
  00057	c2 08 00	 ret	 8
  0005a	66 90		 npad	 2
$LN9@GetInfo:
  0005c	00 00 00 00	 DD	 $LN4@GetInfo
  00060	00 00 00 00	 DD	 $LN5@GetInfo
  00064	00 00 00 00	 DD	 $LN6@GetInfo
  00068	00 00 00 00	 DD	 $LN7@GetInfo
?GetInfo@CPythonApplication@@QAEXIPAV?$basic_string@DU?$char_traits@D@std@@V?$allocator@D@2@@std@@@Z ENDP ; CPythonApplication::GetInfo
_TEXT	ENDS
; Function compile flags: /Ogtp
; File D:\Metin2 Server Files\mainline\SRC_2014\Metin2Client\UserInterface\PythonApplication.cpp
; File C:\Program Files (x86)\Windows Kits\10\Include\10.0.18362.0\ucrt\stdio.h
; File D:\Metin2 Server Files\mainline\SRC_2014\Metin2Client\UserInterface\PythonApplication.cpp
;	COMDAT ?NotifyHack@CPythonApplication@@QAAXPBDZZ
_TEXT	SEGMENT
_szBuf$ = -1028						; size = 1024
__$ArrayPad$ = -4					; size = 4
_this$ = 8						; size = 4
_c_szFormat$ = 12					; size = 4
?NotifyHack@CPythonApplication@@QAAXPBDZZ PROC		; CPythonApplication::NotifyHack, COMDAT

; 124  : {

  00000	55		 push	 ebp
  00001	8b ec		 mov	 ebp, esp
  00003	81 ec 04 04 00
	00		 sub	 esp, 1028		; 00000404H
  00009	a1 00 00 00 00	 mov	 eax, DWORD PTR ___security_cookie
  0000e	33 c5		 xor	 eax, ebp
  00010	89 45 fc	 mov	 DWORD PTR __$ArrayPad$[ebp], eax
  00013	56		 push	 esi
  00014	8b 75 08	 mov	 esi, DWORD PTR _this$[ebp]
; File C:\Program Files (x86)\Windows Kits\10\Include\10.0.18362.0\ucrt\stdio.h

; 1390 :         int const _Result = __stdio_common_vsprintf(

  00017	8d 45 10	 lea	 eax, DWORD PTR _c_szFormat$[ebp+4]
  0001a	50		 push	 eax
  0001b	6a 00		 push	 0
  0001d	ff 75 0c	 push	 DWORD PTR _c_szFormat$[ebp]
  00020	8d 85 fc fb ff
	ff		 lea	 eax, DWORD PTR _szBuf$[ebp]
  00026	68 00 04 00 00	 push	 1024			; 00000400H
  0002b	50		 push	 eax
  0002c	e8 00 00 00 00	 call	 ___local_stdio_printf_options
  00031	8b 08		 mov	 ecx, DWORD PTR [eax]
  00033	ff 70 04	 push	 DWORD PTR [eax+4]
  00036	83 c9 01	 or	 ecx, 1
  00039	51		 push	 ecx
  0003a	e8 00 00 00 00	 call	 ___stdio_common_vsprintf
  0003f	83 c4 1c	 add	 esp, 28			; 0000001cH
; File D:\Metin2 Server Files\mainline\SRC_2014\Metin2Client\UserInterface\PythonApplication.cpp

; 131  : 	m_pyNetworkStream.NotifyHack(szBuf);

  00042	8d 85 fc fb ff
	ff		 lea	 eax, DWORD PTR _szBuf$[ebp]
  00048	8d 8e 40 08 00
	00		 lea	 ecx, DWORD PTR [esi+2112]
  0004e	50		 push	 eax
  0004f	e8 00 00 00 00	 call	 ?NotifyHack@CPythonNetworkStream@@QAEXPBD@Z ; CPythonNetworkStream::NotifyHack

; 132  : }

  00054	8b 4d fc	 mov	 ecx, DWORD PTR __$ArrayPad$[ebp]
  00057	33 cd		 xor	 ecx, ebp
  00059	5e		 pop	 esi
  0005a	e8 00 00 00 00	 call	 @__security_check_cookie@4
  0005f	8b e5		 mov	 esp, ebp
  00061	5d		 pop	 ebp
  00062	c3		 ret	 0
?NotifyHack@CPythonApplication@@QAAXPBDZZ ENDP		; CPythonApplication::NotifyHack
_TEXT	ENDS
; Function compile flags: /Ogtp
; File D:\Metin2 Server Files\mainline\SRC_2014\Metin2Client\UserInterface\PythonApplication.cpp
; File C:\Program Files (x86)\Microsoft Visual Studio\2019\Community\VC\Tools\MSVC\14.28.29333\include\xstring
; File C:\Program Files (x86)\Microsoft Visual Studio\2019\Community\VC\Tools\MSVC\14.28.29333\include\xmemory
; File D:\Metin2 Server Files\mainline\SRC_2014\Metin2Client\UserInterface\PythonApplication.cpp
; File C:\Program Files (x86)\Microsoft Visual Studio\2019\Community\VC\Tools\MSVC\14.28.29333\include\xstring
; File D:\Metin2 Server Files\mainline\SRC_2014\Metin2Client\UserInterface\PythonApplication.cpp
; File D:\Metin2 Server Files\mainline\SRC_2014\Metin2Client\UserInterface\MovieMan.h
; File D:\Metin2 Server Files\mainline\SRC_2014\Metin2Client\eterBase\Singleton.h
; File D:\Metin2 Server Files\mainline\SRC_2014\Metin2Client\UserInterface\PythonApplication.cpp
; File D:\Metin2 Server Files\mainline\SRC_2014\Metin2Client\eterBase\Singleton.h
; File D:\Metin2 Server Files\mainline\SRC_2014\Metin2Client\UserInterface\PythonApplication.cpp
; File D:\Metin2 Server Files\mainline\SRC_2014\Metin2Client\UserInterface\AbstractSingleton.h
; File D:\Metin2 Server Files\mainline\SRC_2014\Metin2Client\UserInterface\PythonApplication.cpp
; File D:\Metin2 Server Files\mainline\SRC_2014\Metin2Client\UserInterface\AbstractSingleton.h
; File D:\Metin2 Server Files\mainline\SRC_2014\Metin2Client\UserInterface\PythonApplication.cpp
;	COMDAT ??1CPythonApplication@@UAE@XZ
_TEXT	SEGMENT
??1CPythonApplication@@UAE@XZ PROC			; CPythonApplication::~CPythonApplication, COMDAT
; _this$ = ecx

; 102  : {

  00000	56		 push	 esi
  00001	8b f1		 mov	 esi, ecx
  00003	57		 push	 edi
  00004	c7 06 00 00 00
	00		 mov	 DWORD PTR [esi], OFFSET ??_7CPythonApplication@@6BCMSApplication@@@
  0000a	c7 46 1c 00 00
	00 00		 mov	 DWORD PTR [esi+28], OFFSET ??_7CPythonApplication@@6BCInputKeyboard@@@
  00011	c7 46 20 00 00
	00 00		 mov	 DWORD PTR [esi+32], OFFSET ??_7CPythonApplication@@6BIAbstractApplication@@@
; File C:\Program Files (x86)\Microsoft Visual Studio\2019\Community\VC\Tools\MSVC\14.28.29333\include\xstring

; 2227 :         return _BUF_SIZE <= _Myres;

  00018	8b 86 80 ee 01
	00		 mov	 eax, DWORD PTR [esi+126592]
  0001e	83 f8 10	 cmp	 eax, 16			; 00000010H

; 4385 :         if (_Mypair._Myval2._Large_string_engaged()) {

  00021	72 10		 jb	 SHORT $LN7@CPythonApp

; 4386 :             const pointer _Ptr = _Mypair._Myval2._Bx._Ptr;
; 4387 :             auto& _Al          = _Getal();
; 4388 :             _Destroy_in_place(_Mypair._Myval2._Bx._Ptr);
; 4389 :             _Al.deallocate(_Ptr, _Mypair._Myval2._Myres + 1);

  00023	40		 inc	 eax
; File C:\Program Files (x86)\Microsoft Visual Studio\2019\Community\VC\Tools\MSVC\14.28.29333\include\xmemory

; 810  :         _Deallocate<_New_alignof<_Ty>>(_Ptr, sizeof(_Ty) * _Count);

  00024	50		 push	 eax
  00025	ff b6 6c ee 01
	00		 push	 DWORD PTR [esi+126572]
  0002b	e8 00 00 00 00	 call	 ??$_Deallocate@$07$0A@@std@@YAXPAXI@Z ; std::_Deallocate<8,0>
  00030	83 c4 08	 add	 esp, 8
$LN7@CPythonApp:
; File D:\Metin2 Server Files\mainline\SRC_2014\Metin2Client\UserInterface\PythonApplication.cpp

; 103  : }

  00033	8d 8e 50 ee 01
	00		 lea	 ecx, DWORD PTR [esi+126544]
; File C:\Program Files (x86)\Microsoft Visual Studio\2019\Community\VC\Tools\MSVC\14.28.29333\include\xstring

; 4392 :         _Mypair._Myval2._Mysize = 0;

  00039	c7 86 7c ee 01
	00 00 00 00 00	 mov	 DWORD PTR [esi+126588], 0

; 4393 :         _Mypair._Myval2._Myres  = _BUF_SIZE - 1;

  00043	c7 86 80 ee 01
	00 0f 00 00 00	 mov	 DWORD PTR [esi+126592], 15 ; 0000000fH

; 4394 :         // the _Traits::assign is last so the codegen doesn't think the char write can alias this
; 4395 :         _Traits::assign(_Mypair._Myval2._Bx._Buf[0], _Elem());

  0004d	c6 86 6c ee 01
	00 00		 mov	 BYTE PTR [esi+126572], 0
  00054	e8 00 00 00 00	 call	 ??1?$_Tree@V?$_Tmap_traits@HPAXU?$less@H@std@@V?$allocator@U?$pair@$$CBHPAX@std@@@2@$0A@@std@@@std@@QAE@XZ ; std::_Tree<std::_Tmap_traits<int,void *,std::less<int>,std::allocator<std::pair<int const ,void *> >,0> >::~_Tree<std::_Tmap_traits<int,void *,std::less<int>,std::allocator<std::pair<int const ,void *> >,0> >
; File D:\Metin2 Server Files\mainline\SRC_2014\Metin2Client\UserInterface\PythonApplication.cpp

; 103  : }

  00059	8d 8e 48 c6 01
	00		 lea	 ecx, DWORD PTR [esi+116296]
  0005f	e8 00 00 00 00	 call	 ??1CPythonSystem@@UAE@XZ ; CPythonSystem::~CPythonSystem
  00064	8d 8e 40 c6 01
	00		 lea	 ecx, DWORD PTR [esi+116288]
  0006a	e8 00 00 00 00	 call	 ??1CNetworkDevice@@UAE@XZ ; CNetworkDevice::~CNetworkDevice
  0006f	8d 8e 2c c6 01
	00		 lea	 ecx, DWORD PTR [esi+116268]
  00075	e8 00 00 00 00	 call	 ??1CGraphicDevice@@UAE@XZ ; CGraphicDevice::~CGraphicDevice
  0007a	8d 8e 54 c5 01
	00		 lea	 ecx, DWORD PTR [esi+116052]
  00080	e8 00 00 00 00	 call	 ??1CAccountConnector@@UAE@XZ ; CAccountConnector::~CAccountConnector
  00085	8d 8e b4 c1 01
	00		 lea	 ecx, DWORD PTR [esi+115124]
  0008b	e8 00 00 00 00	 call	 ??1CGuildMarkUploader@@UAE@XZ ; CGuildMarkUploader::~CGuildMarkUploader
  00090	8d 8e 04 c1 01
	00		 lea	 ecx, DWORD PTR [esi+114948]
  00096	e8 00 00 00 00	 call	 ??1CGuildMarkDownloader@@UAE@XZ ; CGuildMarkDownloader::~CGuildMarkDownloader
  0009b	8d 8e c8 c0 01
	00		 lea	 ecx, DWORD PTR [esi+114888]
  000a1	e8 00 00 00 00	 call	 ??1CGuildMarkManager@@UAE@XZ ; CGuildMarkManager::~CGuildMarkManager
  000a6	8d 8e 30 c0 01
	00		 lea	 ecx, DWORD PTR [esi+114736]
  000ac	e8 00 00 00 00	 call	 ??1CPythonGuild@@UAE@XZ	; CPythonGuild::~CPythonGuild
  000b1	8d 8e 10 c0 01
	00		 lea	 ecx, DWORD PTR [esi+114704]
  000b7	e8 00 00 00 00	 call	 ??1CPythonSafeBox@@UAE@XZ ; CPythonSafeBox::~CPythonSafeBox
  000bc	8d 8e f8 bf 01
	00		 lea	 ecx, DWORD PTR [esi+114680]
  000c2	e8 00 00 00 00	 call	 ??1CPythonMessenger@@UAE@XZ ; CPythonMessenger::~CPythonMessenger
  000c7	8d 8e e8 bf 01
	00		 lea	 ecx, DWORD PTR [esi+114664]
  000cd	e8 00 00 00 00	 call	 ??1CPythonQuest@@UAE@XZ	; CPythonQuest::~CPythonQuest
  000d2	8d 8e a0 bf 01
	00		 lea	 ecx, DWORD PTR [esi+114592]
  000d8	e8 00 00 00 00	 call	 ??1CPythonResource@@UAE@XZ ; CPythonResource::~CPythonResource
  000dd	8d 8e 54 bf 01
	00		 lea	 ecx, DWORD PTR [esi+114516]
  000e3	e8 00 00 00 00	 call	 ??1CPythonSkill@@UAE@XZ	; CPythonSkill::~CPythonSkill
  000e8	8d 8e 4c a9 01
	00		 lea	 ecx, DWORD PTR [esi+108876]
  000ee	e8 00 00 00 00	 call	 ??1CPythonBackground@@UAE@XZ ; CPythonBackground::~CPythonBackground
  000f3	8d 8e cc a8 01
	00		 lea	 ecx, DWORD PTR [esi+108748]
  000f9	e8 00 00 00 00	 call	 ??1CPythonEventManager@@UAE@XZ ; CPythonEventManager::~CPythonEventManager
  000fe	8d 8e 94 9c 01
	00		 lea	 ecx, DWORD PTR [esi+105620]
  00104	e8 00 00 00 00	 call	 ??1CPythonMiniMap@@UAE@XZ ; CPythonMiniMap::~CPythonMiniMap
  00109	8d 8e 88 9c 01
	00		 lea	 ecx, DWORD PTR [esi+105608]
  0010f	e8 00 00 00 00	 call	 ??1CPythonNonPlayer@@UAE@XZ ; CPythonNonPlayer::~CPythonNonPlayer
  00114	8d 8e 38 9c 01
	00		 lea	 ecx, DWORD PTR [esi+105528]
  0011a	e8 00 00 00 00	 call	 ??1CPythonTextTail@@UAE@XZ ; CPythonTextTail::~CPythonTextTail
  0011f	8d 8e 64 9b 01
	00		 lea	 ecx, DWORD PTR [esi+105316]
  00125	e8 00 00 00 00	 call	 ??1CPythonChat@@UAE@XZ	; CPythonChat::~CPythonChat
  0012a	8d 8e 84 97 01
	00		 lea	 ecx, DWORD PTR [esi+104324]
  00130	e8 00 00 00 00	 call	 ??1CPythonExchange@@UAE@XZ ; CPythonExchange::~CPythonExchange
  00135	8d 8e ec 82 01
	00		 lea	 ecx, DWORD PTR [esi+99052]
  0013b	e8 00 00 00 00	 call	 ??1CPythonShop@@UAE@XZ	; CPythonShop::~CPythonShop
  00140	8d 8e e0 81 01
	00		 lea	 ecx, DWORD PTR [esi+98784]
  00146	e8 00 00 00 00	 call	 ??1CPythonItem@@UAE@XZ	; CPythonItem::~CPythonItem
  0014b	8d 8e b4 79 01
	00		 lea	 ecx, DWORD PTR [esi+96692]
  00151	e8 00 00 00 00	 call	 ??1CPythonIME@@UAE@XZ	; CPythonIME::~CPythonIME
  00156	8d 8e 90 81 00
	00		 lea	 ecx, DWORD PTR [esi+33168]
  0015c	e8 00 00 00 00	 call	 ??1CPythonPlayer@@UAE@XZ ; CPythonPlayer::~CPythonPlayer
  00161	8d 8e 40 08 00
	00		 lea	 ecx, DWORD PTR [esi+2112]
  00167	e8 00 00 00 00	 call	 ??1CPythonNetworkStream@@UAE@XZ ; CPythonNetworkStream::~CPythonNetworkStream
  0016c	8d 8e 9c 07 00
	00		 lea	 ecx, DWORD PTR [esi+1948]
  00172	e8 00 00 00 00	 call	 ??1CPythonGraphic@@UAE@XZ ; CPythonGraphic::~CPythonGraphic
  00177	8d 8e 10 07 00
	00		 lea	 ecx, DWORD PTR [esi+1808]
  0017d	e8 00 00 00 00	 call	 ??1CServerStateChecker@@UAE@XZ ; CServerStateChecker::~CServerStateChecker
  00182	8d 8e d8 02 00
	00		 lea	 ecx, DWORD PTR [esi+728]
  00188	e8 00 00 00 00	 call	 ??1CPythonCharacterManager@@UAE@XZ ; CPythonCharacterManager::~CPythonCharacterManager
  0018d	8d 8e b0 02 00
	00		 lea	 ecx, DWORD PTR [esi+688]
  00193	e8 00 00 00 00	 call	 ??1CEffectManager@@UAE@XZ ; CEffectManager::~CEffectManager
  00198	8d 8e 10 02 00
	00		 lea	 ecx, DWORD PTR [esi+528]
  0019e	e8 00 00 00 00	 call	 ??1CWindowManager@UI@@UAE@XZ ; UI::CWindowManager::~CWindowManager
; File D:\Metin2 Server Files\mainline\SRC_2014\Metin2Client\UserInterface\MovieMan.h

; 36   : 	{

  001a3	c7 86 e8 01 00
	00 00 00 00 00	 mov	 DWORD PTR [esi+488], OFFSET ??_7CMovieMan@@6B@

; 37   : 		CoUninitialize();

  001ad	ff 15 00 00 00
	00		 call	 DWORD PTR __imp__CoUninitialize@0
; File D:\Metin2 Server Files\mainline\SRC_2014\Metin2Client\eterBase\Singleton.h

; 19   : 	{ 

  001b3	c7 86 e8 01 00
	00 00 00 00 00	 mov	 DWORD PTR [esi+488], OFFSET ??_7?$CSingleton@VCMovieMan@@@@6B@
; File D:\Metin2 Server Files\mainline\SRC_2014\Metin2Client\UserInterface\PythonApplication.cpp

; 103  : }

  001bd	8d 8e cc 01 00
	00		 lea	 ecx, DWORD PTR [esi+460]
; File D:\Metin2 Server Files\mainline\SRC_2014\Metin2Client\eterBase\Singleton.h

; 21   : 		ms_singleton = 0; 

  001c3	c7 05 00 00 00
	00 00 00 00 00	 mov	 DWORD PTR ?ms_singleton@?$CSingleton@VCMovieMan@@@@0PAVCMovieMan@@A, 0 ; CSingleton<CMovieMan>::ms_singleton
; File D:\Metin2 Server Files\mainline\SRC_2014\Metin2Client\UserInterface\PythonApplication.cpp

; 103  : }

  001cd	e8 00 00 00 00	 call	 ??1CItemManager@@UAE@XZ	; CItemManager::~CItemManager
  001d2	8d 8e b8 01 00
	00		 lea	 ecx, DWORD PTR [esi+440]
  001d8	e8 00 00 00 00	 call	 ??1CGameEventManager@@UAE@XZ ; CGameEventManager::~CGameEventManager
  001dd	8d 8e 80 01 00
	00		 lea	 ecx, DWORD PTR [esi+384]
  001e3	e8 00 00 00 00	 call	 ??1CRaceManager@@UAE@XZ	; CRaceManager::~CRaceManager
  001e8	8d 8e 5c 01 00
	00		 lea	 ecx, DWORD PTR [esi+348]
  001ee	e8 00 00 00 00	 call	 ??1CFlyingManager@@UAE@XZ ; CFlyingManager::~CFlyingManager
  001f3	8d 8e e8 00 00
	00		 lea	 ecx, DWORD PTR [esi+232]
  001f9	e8 00 00 00 00	 call	 ??1CSoundManager@@UAE@XZ ; CSoundManager::~CSoundManager
  001fe	8d 4e 7c	 lea	 ecx, DWORD PTR [esi+124]
  00201	e8 00 00 00 00	 call	 ??1CLightManager@@UAE@XZ ; CLightManager::~CLightManager
  00206	8d 4e 60	 lea	 ecx, DWORD PTR [esi+96]
  00209	e8 00 00 00 00	 call	 ??1CTimer@@UAE@XZ	; CTimer::~CTimer
; File D:\Metin2 Server Files\mainline\SRC_2014\Metin2Client\UserInterface\AbstractSingleton.h

; 17   : 	{ 

  0020e	c7 46 20 00 00
	00 00		 mov	 DWORD PTR [esi+32], OFFSET ??_7?$TAbstractSingleton@VIAbstractApplication@@@@6B@
; File D:\Metin2 Server Files\mainline\SRC_2014\Metin2Client\UserInterface\PythonApplication.cpp

; 103  : }

  00215	8d 4e 1c	 lea	 ecx, DWORD PTR [esi+28]
; File D:\Metin2 Server Files\mainline\SRC_2014\Metin2Client\UserInterface\AbstractSingleton.h

; 19   : 		ms_singleton = 0; 

  00218	c7 05 00 00 00
	00 00 00 00 00	 mov	 DWORD PTR ?ms_singleton@?$TAbstractSingleton@VIAbstractApplication@@@@0PAVIAbstractApplication@@A, 0 ; TAbstractSingleton<IAbstractApplication>::ms_singleton
; File D:\Metin2 Server Files\mainline\SRC_2014\Metin2Client\UserInterface\PythonApplication.cpp

; 103  : }

  00222	e8 00 00 00 00	 call	 ??1CInputKeyboard@@UAE@XZ ; CInputKeyboard::~CInputKeyboard
  00227	5f		 pop	 edi
  00228	8b ce		 mov	 ecx, esi
  0022a	5e		 pop	 esi
  0022b	e9 00 00 00 00	 jmp	 ??1CMSApplication@@UAE@XZ ; CMSApplication::~CMSApplication
??1CPythonApplication@@UAE@XZ ENDP			; CPythonApplication::~CPythonApplication
_TEXT	ENDS
; Function compile flags: /Ogtp
; File D:\Metin2 Server Files\mainline\SRC_2014\Metin2Client\UserInterface\PythonApplication.cpp
; File D:\Metin2 Server Files\mainline\SRC_2014\Metin2Client\UserInterface\AbstractSingleton.h
; File D:\Metin2 Server Files\mainline\SRC_2014\Metin2Client\UserInterface\AbstractApplication.h
; File D:\Metin2 Server Files\mainline\SRC_2014\Metin2Client\UserInterface\PythonApplication.cpp
; File D:\Metin2 Server Files\mainline\SRC_2014\Metin2Client\eterBase\Singleton.h
; File D:\Metin2 Server Files\mainline\SRC_2014\Metin2Client\UserInterface\MovieMan.h
; File D:\Metin2 Server Files\mainline\SRC_2014\Metin2Client\UserInterface\PythonApplication.cpp
; File D:\Metin2 Server Files\mainline\SRC_2014\M2Data\include\d3dx8math.inl
; File D:\Metin2 Server Files\mainline\SRC_2014\Metin2Client\UserInterface\AbstractApplication.h
; File D:\Metin2 Server Files\mainline\SRC_2014\M2Data\include\d3dx8math.inl
; File D:\Metin2 Server Files\mainline\SRC_2014\Metin2Client\UserInterface\AbstractApplication.h
; File D:\Metin2 Server Files\mainline\SRC_2014\M2Data\include\d3dx8math.inl
; File D:\Metin2 Server Files\mainline\SRC_2014\Metin2Client\UserInterface\AbstractApplication.h
; File D:\Metin2 Server Files\mainline\SRC_2014\Metin2Client\UserInterface\PythonApplication.h
; File D:\Metin2 Server Files\mainline\SRC_2014\Metin2Client\UserInterface\PythonApplication.cpp
; File C:\Program Files (x86)\Microsoft Visual Studio\2019\Community\VC\Tools\MSVC\14.28.29333\include\xmemory
; File D:\Metin2 Server Files\mainline\SRC_2014\Metin2Client\UserInterface\PythonApplication.cpp
; File C:\Program Files (x86)\Microsoft Visual Studio\2019\Community\VC\Tools\MSVC\14.28.29333\include\xtree
; File C:\Program Files (x86)\Microsoft Visual Studio\2019\Community\VC\Tools\MSVC\14.28.29333\include\xmemory
; File C:\Program Files (x86)\Microsoft Visual Studio\2019\Community\VC\Tools\MSVC\14.28.29333\include\xtree
; File D:\Metin2 Server Files\mainline\SRC_2014\Metin2Client\UserInterface\PythonApplication.cpp
; File C:\Program Files (x86)\Microsoft Visual Studio\2019\Community\VC\Tools\MSVC\14.28.29333\include\xstring
; File D:\Metin2 Server Files\mainline\SRC_2014\Metin2Client\UserInterface\PythonApplication.cpp
; File D:\Metin2 Server Files\mainline\SRC_2014\M2Data\include\d3dx8math.inl
; File D:\Metin2 Server Files\mainline\SRC_2014\Metin2Client\UserInterface\PythonApplication.cpp
;	COMDAT ??0CPythonApplication@@QAE@XZ
_TEXT	SEGMENT
tv1165 = -64						; size = 16
$T2 = -36						; size = 12
_this$ = -24						; size = 4
__Pnode$3 = -20						; size = 4
_this$ = -20						; size = 4
__$EHRec$ = -12						; size = 12
??0CPythonApplication@@QAE@XZ PROC			; CPythonApplication::CPythonApplication, COMDAT
; _this$ = ecx

; 47   : {

  00000	53		 push	 ebx
  00001	8b dc		 mov	 ebx, esp
  00003	83 ec 08	 sub	 esp, 8
  00006	83 e4 f0	 and	 esp, -16		; fffffff0H
  00009	83 c4 04	 add	 esp, 4
  0000c	55		 push	 ebp
  0000d	8b 6b 04	 mov	 ebp, DWORD PTR [ebx+4]
  00010	89 6c 24 04	 mov	 DWORD PTR [esp+4], ebp
  00014	8b ec		 mov	 ebp, esp
  00016	6a ff		 push	 -1
  00018	68 00 00 00 00	 push	 __ehhandler$??0CPythonApplication@@QAE@XZ
  0001d	64 a1 00 00 00
	00		 mov	 eax, DWORD PTR fs:0
  00023	50		 push	 eax
  00024	53		 push	 ebx
  00025	83 ec 38	 sub	 esp, 56			; 00000038H
  00028	56		 push	 esi
  00029	57		 push	 edi
  0002a	a1 00 00 00 00	 mov	 eax, DWORD PTR ___security_cookie
  0002f	33 c5		 xor	 eax, ebp
  00031	50		 push	 eax
  00032	8d 45 f4	 lea	 eax, DWORD PTR __$EHRec$[ebp]
  00035	64 a3 00 00 00
	00		 mov	 DWORD PTR fs:0, eax
  0003b	8b f9		 mov	 edi, ecx
  0003d	89 7d e8	 mov	 DWORD PTR _this$[ebp], edi
  00040	e8 00 00 00 00	 call	 ??0CMSApplication@@QAE@XZ ; CMSApplication::CMSApplication
  00045	8d 4f 1c	 lea	 ecx, DWORD PTR [edi+28]
  00048	c7 45 fc 00 00
	00 00		 mov	 DWORD PTR __$EHRec$[ebp+8], 0
  0004f	e8 00 00 00 00	 call	 ??0CInputKeyboard@@QAE@XZ ; CInputKeyboard::CInputKeyboard
  00054	8d 47 20	 lea	 eax, DWORD PTR [edi+32]
; File D:\Metin2 Server Files\mainline\SRC_2014\Metin2Client\UserInterface\AbstractSingleton.h

; 13   : 		ms_singleton = (T*) ((int) this + offset);

  00057	a3 00 00 00 00	 mov	 DWORD PTR ?ms_singleton@?$TAbstractSingleton@VIAbstractApplication@@@@0PAVIAbstractApplication@@A, eax ; TAbstractSingleton<IAbstractApplication>::ms_singleton
; File D:\Metin2 Server Files\mainline\SRC_2014\Metin2Client\UserInterface\AbstractApplication.h

; 32   : 		IAbstractApplication() {}

  0005c	c7 00 00 00 00
	00		 mov	 DWORD PTR [eax], OFFSET ??_7IAbstractApplication@@6B@
; File D:\Metin2 Server Files\mainline\SRC_2014\Metin2Client\UserInterface\PythonApplication.cpp

; 47   : {

  00062	8d 4f 60	 lea	 ecx, DWORD PTR [edi+96]
  00065	c6 45 fc 02	 mov	 BYTE PTR __$EHRec$[ebp+8], 2
  00069	c7 07 00 00 00
	00		 mov	 DWORD PTR [edi], OFFSET ??_7CPythonApplication@@6BCMSApplication@@@
  0006f	c7 47 1c 00 00
	00 00		 mov	 DWORD PTR [edi+28], OFFSET ??_7CPythonApplication@@6BCInputKeyboard@@@
  00076	c7 00 00 00 00
	00		 mov	 DWORD PTR [eax], OFFSET ??_7CPythonApplication@@6BIAbstractApplication@@@
  0007c	e8 00 00 00 00	 call	 ??0CTimer@@QAE@XZ	; CTimer::CTimer
  00081	8d 4f 7c	 lea	 ecx, DWORD PTR [edi+124]
  00084	c6 45 fc 03	 mov	 BYTE PTR __$EHRec$[ebp+8], 3
  00088	e8 00 00 00 00	 call	 ??0CLightManager@@QAE@XZ ; CLightManager::CLightManager
  0008d	8d 8f e8 00 00
	00		 lea	 ecx, DWORD PTR [edi+232]
  00093	c6 45 fc 04	 mov	 BYTE PTR __$EHRec$[ebp+8], 4
  00097	e8 00 00 00 00	 call	 ??0CSoundManager@@QAE@XZ ; CSoundManager::CSoundManager
  0009c	8d 8f 5c 01 00
	00		 lea	 ecx, DWORD PTR [edi+348]
  000a2	c6 45 fc 05	 mov	 BYTE PTR __$EHRec$[ebp+8], 5
  000a6	e8 00 00 00 00	 call	 ??0CFlyingManager@@QAE@XZ ; CFlyingManager::CFlyingManager
  000ab	8d 8f 80 01 00
	00		 lea	 ecx, DWORD PTR [edi+384]
  000b1	c6 45 fc 06	 mov	 BYTE PTR __$EHRec$[ebp+8], 6
  000b5	e8 00 00 00 00	 call	 ??0CRaceManager@@QAE@XZ	; CRaceManager::CRaceManager
  000ba	8d 8f b8 01 00
	00		 lea	 ecx, DWORD PTR [edi+440]
  000c0	c6 45 fc 07	 mov	 BYTE PTR __$EHRec$[ebp+8], 7
  000c4	e8 00 00 00 00	 call	 ??0CGameEventManager@@QAE@XZ ; CGameEventManager::CGameEventManager
  000c9	8d 8f cc 01 00
	00		 lea	 ecx, DWORD PTR [edi+460]
  000cf	c6 45 fc 08	 mov	 BYTE PTR __$EHRec$[ebp+8], 8
  000d3	e8 00 00 00 00	 call	 ??0CItemManager@@QAE@XZ	; CItemManager::CItemManager
  000d8	8d 87 e8 01 00
	00		 lea	 eax, DWORD PTR [edi+488]
; File D:\Metin2 Server Files\mainline\SRC_2014\Metin2Client\eterBase\Singleton.h

; 15   : 		ms_singleton = (T*) ((int) this + offset);

  000de	a3 00 00 00 00	 mov	 DWORD PTR ?ms_singleton@?$CSingleton@VCMovieMan@@@@0PAVCMovieMan@@A, eax ; CSingleton<CMovieMan>::ms_singleton
; File D:\Metin2 Server Files\mainline\SRC_2014\Metin2Client\UserInterface\MovieMan.h

; 32   : 		CoInitialize(NULL);

  000e3	6a 00		 push	 0
  000e5	c7 00 00 00 00
	00		 mov	 DWORD PTR [eax], OFFSET ??_7CMovieMan@@6B@
  000eb	c6 40 04 00	 mov	 BYTE PTR [eax+4], 0
  000ef	c7 40 08 00 00
	00 00		 mov	 DWORD PTR [eax+8], 0
  000f6	c7 40 0c 00 00
	00 00		 mov	 DWORD PTR [eax+12], 0
  000fd	c7 40 20 00 00
	00 00		 mov	 DWORD PTR [eax+32], 0
  00104	c7 40 24 00 00
	00 00		 mov	 DWORD PTR [eax+36], 0
  0010b	ff 15 00 00 00
	00		 call	 DWORD PTR __imp__CoInitialize@4
; File D:\Metin2 Server Files\mainline\SRC_2014\Metin2Client\UserInterface\PythonApplication.cpp

; 47   : {

  00111	8d 8f 10 02 00
	00		 lea	 ecx, DWORD PTR [edi+528]
  00117	c6 45 fc 0a	 mov	 BYTE PTR __$EHRec$[ebp+8], 10 ; 0000000aH
  0011b	e8 00 00 00 00	 call	 ??0CWindowManager@UI@@QAE@XZ ; UI::CWindowManager::CWindowManager
  00120	8d 8f b0 02 00
	00		 lea	 ecx, DWORD PTR [edi+688]
  00126	c6 45 fc 0b	 mov	 BYTE PTR __$EHRec$[ebp+8], 11 ; 0000000bH
  0012a	e8 00 00 00 00	 call	 ??0CEffectManager@@QAE@XZ ; CEffectManager::CEffectManager
  0012f	8d 8f d8 02 00
	00		 lea	 ecx, DWORD PTR [edi+728]
  00135	c6 45 fc 0c	 mov	 BYTE PTR __$EHRec$[ebp+8], 12 ; 0000000cH
  00139	e8 00 00 00 00	 call	 ??0CPythonCharacterManager@@QAE@XZ ; CPythonCharacterManager::CPythonCharacterManager
  0013e	8d 8f 10 07 00
	00		 lea	 ecx, DWORD PTR [edi+1808]
  00144	c6 45 fc 0d	 mov	 BYTE PTR __$EHRec$[ebp+8], 13 ; 0000000dH
  00148	e8 00 00 00 00	 call	 ??0CServerStateChecker@@QAE@XZ ; CServerStateChecker::CServerStateChecker
  0014d	8d 8f 9c 07 00
	00		 lea	 ecx, DWORD PTR [edi+1948]
  00153	c6 45 fc 0e	 mov	 BYTE PTR __$EHRec$[ebp+8], 14 ; 0000000eH
  00157	e8 00 00 00 00	 call	 ??0CPythonGraphic@@QAE@XZ ; CPythonGraphic::CPythonGraphic
  0015c	8d 8f 40 08 00
	00		 lea	 ecx, DWORD PTR [edi+2112]
  00162	c6 45 fc 0f	 mov	 BYTE PTR __$EHRec$[ebp+8], 15 ; 0000000fH
  00166	e8 00 00 00 00	 call	 ??0CPythonNetworkStream@@QAE@XZ ; CPythonNetworkStream::CPythonNetworkStream
  0016b	8d 8f 90 81 00
	00		 lea	 ecx, DWORD PTR [edi+33168]
  00171	c6 45 fc 10	 mov	 BYTE PTR __$EHRec$[ebp+8], 16 ; 00000010H
  00175	e8 00 00 00 00	 call	 ??0CPythonPlayer@@QAE@XZ ; CPythonPlayer::CPythonPlayer
  0017a	c6 45 fc 11	 mov	 BYTE PTR __$EHRec$[ebp+8], 17 ; 00000011H
  0017e	8d 8f b4 79 01
	00		 lea	 ecx, DWORD PTR [edi+96692]
  00184	e8 00 00 00 00	 call	 ??0CPythonIME@@QAE@XZ	; CPythonIME::CPythonIME
  00189	8d 8f e0 81 01
	00		 lea	 ecx, DWORD PTR [edi+98784]
  0018f	c6 45 fc 12	 mov	 BYTE PTR __$EHRec$[ebp+8], 18 ; 00000012H
  00193	e8 00 00 00 00	 call	 ??0CPythonItem@@QAE@XZ	; CPythonItem::CPythonItem
  00198	8d 8f ec 82 01
	00		 lea	 ecx, DWORD PTR [edi+99052]
  0019e	c6 45 fc 13	 mov	 BYTE PTR __$EHRec$[ebp+8], 19 ; 00000013H
  001a2	e8 00 00 00 00	 call	 ??0CPythonShop@@QAE@XZ	; CPythonShop::CPythonShop
  001a7	8d 8f 84 97 01
	00		 lea	 ecx, DWORD PTR [edi+104324]
  001ad	c6 45 fc 14	 mov	 BYTE PTR __$EHRec$[ebp+8], 20 ; 00000014H
  001b1	e8 00 00 00 00	 call	 ??0CPythonExchange@@QAE@XZ ; CPythonExchange::CPythonExchange
  001b6	8d 8f 64 9b 01
	00		 lea	 ecx, DWORD PTR [edi+105316]
  001bc	c6 45 fc 15	 mov	 BYTE PTR __$EHRec$[ebp+8], 21 ; 00000015H
  001c0	e8 00 00 00 00	 call	 ??0CPythonChat@@QAE@XZ	; CPythonChat::CPythonChat
  001c5	8d 8f 38 9c 01
	00		 lea	 ecx, DWORD PTR [edi+105528]
  001cb	c6 45 fc 16	 mov	 BYTE PTR __$EHRec$[ebp+8], 22 ; 00000016H
  001cf	e8 00 00 00 00	 call	 ??0CPythonTextTail@@QAE@XZ ; CPythonTextTail::CPythonTextTail
  001d4	8d 8f 88 9c 01
	00		 lea	 ecx, DWORD PTR [edi+105608]
  001da	c6 45 fc 17	 mov	 BYTE PTR __$EHRec$[ebp+8], 23 ; 00000017H
  001de	e8 00 00 00 00	 call	 ??0CPythonNonPlayer@@QAE@XZ ; CPythonNonPlayer::CPythonNonPlayer
  001e3	8d 8f 94 9c 01
	00		 lea	 ecx, DWORD PTR [edi+105620]
  001e9	c6 45 fc 18	 mov	 BYTE PTR __$EHRec$[ebp+8], 24 ; 00000018H
  001ed	e8 00 00 00 00	 call	 ??0CPythonMiniMap@@QAE@XZ ; CPythonMiniMap::CPythonMiniMap
  001f2	8d 8f cc a8 01
	00		 lea	 ecx, DWORD PTR [edi+108748]
  001f8	c6 45 fc 19	 mov	 BYTE PTR __$EHRec$[ebp+8], 25 ; 00000019H
  001fc	e8 00 00 00 00	 call	 ??0CPythonEventManager@@QAE@XZ ; CPythonEventManager::CPythonEventManager
  00201	8d 8f 4c a9 01
	00		 lea	 ecx, DWORD PTR [edi+108876]
  00207	c6 45 fc 1a	 mov	 BYTE PTR __$EHRec$[ebp+8], 26 ; 0000001aH
  0020b	e8 00 00 00 00	 call	 ??0CPythonBackground@@QAE@XZ ; CPythonBackground::CPythonBackground
  00210	8d 8f 54 bf 01
	00		 lea	 ecx, DWORD PTR [edi+114516]
  00216	c6 45 fc 1b	 mov	 BYTE PTR __$EHRec$[ebp+8], 27 ; 0000001bH
  0021a	e8 00 00 00 00	 call	 ??0CPythonSkill@@QAE@XZ	; CPythonSkill::CPythonSkill
  0021f	8d 8f a0 bf 01
	00		 lea	 ecx, DWORD PTR [edi+114592]
  00225	c6 45 fc 1c	 mov	 BYTE PTR __$EHRec$[ebp+8], 28 ; 0000001cH
  00229	e8 00 00 00 00	 call	 ??0CPythonResource@@QAE@XZ ; CPythonResource::CPythonResource
  0022e	8d 8f e8 bf 01
	00		 lea	 ecx, DWORD PTR [edi+114664]
  00234	c6 45 fc 1d	 mov	 BYTE PTR __$EHRec$[ebp+8], 29 ; 0000001dH
  00238	e8 00 00 00 00	 call	 ??0CPythonQuest@@QAE@XZ	; CPythonQuest::CPythonQuest
  0023d	8d 8f f8 bf 01
	00		 lea	 ecx, DWORD PTR [edi+114680]
  00243	c6 45 fc 1e	 mov	 BYTE PTR __$EHRec$[ebp+8], 30 ; 0000001eH
  00247	e8 00 00 00 00	 call	 ??0CPythonMessenger@@QAE@XZ ; CPythonMessenger::CPythonMessenger
  0024c	8d 8f 10 c0 01
	00		 lea	 ecx, DWORD PTR [edi+114704]
  00252	c6 45 fc 1f	 mov	 BYTE PTR __$EHRec$[ebp+8], 31 ; 0000001fH
  00256	e8 00 00 00 00	 call	 ??0CPythonSafeBox@@QAE@XZ ; CPythonSafeBox::CPythonSafeBox
  0025b	8d 8f 30 c0 01
	00		 lea	 ecx, DWORD PTR [edi+114736]
  00261	c6 45 fc 20	 mov	 BYTE PTR __$EHRec$[ebp+8], 32 ; 00000020H
  00265	e8 00 00 00 00	 call	 ??0CPythonGuild@@QAE@XZ	; CPythonGuild::CPythonGuild
  0026a	8d 8f c8 c0 01
	00		 lea	 ecx, DWORD PTR [edi+114888]
  00270	c6 45 fc 21	 mov	 BYTE PTR __$EHRec$[ebp+8], 33 ; 00000021H
  00274	e8 00 00 00 00	 call	 ??0CGuildMarkManager@@QAE@XZ ; CGuildMarkManager::CGuildMarkManager
  00279	8d 8f 04 c1 01
	00		 lea	 ecx, DWORD PTR [edi+114948]
  0027f	c6 45 fc 22	 mov	 BYTE PTR __$EHRec$[ebp+8], 34 ; 00000022H
  00283	e8 00 00 00 00	 call	 ??0CGuildMarkDownloader@@QAE@XZ ; CGuildMarkDownloader::CGuildMarkDownloader
  00288	8d 8f b4 c1 01
	00		 lea	 ecx, DWORD PTR [edi+115124]
  0028e	c6 45 fc 23	 mov	 BYTE PTR __$EHRec$[ebp+8], 35 ; 00000023H
  00292	e8 00 00 00 00	 call	 ??0CGuildMarkUploader@@QAE@XZ ; CGuildMarkUploader::CGuildMarkUploader
  00297	8d 8f 54 c5 01
	00		 lea	 ecx, DWORD PTR [edi+116052]
  0029d	c6 45 fc 24	 mov	 BYTE PTR __$EHRec$[ebp+8], 36 ; 00000024H
  002a1	e8 00 00 00 00	 call	 ??0CAccountConnector@@QAE@XZ ; CAccountConnector::CAccountConnector
  002a6	c6 45 fc 25	 mov	 BYTE PTR __$EHRec$[ebp+8], 37 ; 00000025H
  002aa	8d 8f 2c c6 01
	00		 lea	 ecx, DWORD PTR [edi+116268]
  002b0	e8 00 00 00 00	 call	 ??0CGraphicDevice@@QAE@XZ ; CGraphicDevice::CGraphicDevice
  002b5	8d 8f 40 c6 01
	00		 lea	 ecx, DWORD PTR [edi+116288]
  002bb	c6 45 fc 26	 mov	 BYTE PTR __$EHRec$[ebp+8], 38 ; 00000026H
  002bf	e8 00 00 00 00	 call	 ??0CNetworkDevice@@QAE@XZ ; CNetworkDevice::CNetworkDevice
  002c4	8d 8f 48 c6 01
	00		 lea	 ecx, DWORD PTR [edi+116296]
  002ca	c6 45 fc 27	 mov	 BYTE PTR __$EHRec$[ebp+8], 39 ; 00000027H
  002ce	e8 00 00 00 00	 call	 ??0CPythonSystem@@QAE@XZ ; CPythonSystem::CPythonSystem

; 37   : m_isFrameSkipDisable(false),
; 38   : m_poMouseHandler(NULL),

  002d3	c7 87 38 ed 01
	00 00 00 00 00	 mov	 DWORD PTR [edi+126264], 0
  002dd	0f 57 c0	 xorps	 xmm0, xmm0

; 41   : m_fAveRenderTime(0.0f),

  002e0	c7 87 4c ed 01
	00 00 00 00 00	 mov	 DWORD PTR [edi+126284], 0

; 46   : m_dwLastIdleTime(0)

  002ea	c7 87 64 ed 01
	00 00 00 00 00	 mov	 DWORD PTR [edi+126308], 0

; 43   : m_fGlobalTime(0.0f),

  002f4	c7 87 74 ed 01
	00 00 00 00 00	 mov	 DWORD PTR [edi+126324], 0

; 44   : m_fGlobalElapsedTime(0.0f),

  002fe	c7 87 78 ed 01
	00 00 00 00 00	 mov	 DWORD PTR [edi+126328], 0
; File D:\Metin2 Server Files\mainline\SRC_2014\M2Data\include\d3dx8math.inl

; 180  :     x = fx;

  00308	c7 87 7c ed 01
	00 00 00 00 00	 mov	 DWORD PTR [edi+126332], 0

; 181  :     y = fy;

  00312	c7 87 80 ed 01
	00 00 00 00 00	 mov	 DWORD PTR [edi+126336], 0

; 182  :     z = fz;

  0031c	c7 87 84 ed 01
	00 00 00 00 00	 mov	 DWORD PTR [edi+126340], 0
; File D:\Metin2 Server Files\mainline\SRC_2014\Metin2Client\UserInterface\AbstractApplication.h

; 14   : 			SCameraPos() : m_fUpDir(0.0f), m_fViewDir(0.0f), m_fCrossDir(0.0f) {}

  00326	c7 87 88 ed 01
	00 00 00 00 00	 mov	 DWORD PTR [edi+126344], 0
  00330	c7 87 8c ed 01
	00 00 00 00 00	 mov	 DWORD PTR [edi+126348], 0
  0033a	c7 87 90 ed 01
	00 00 00 00 00	 mov	 DWORD PTR [edi+126352], 0

; 26   : 								fRotation(0.0f),

  00344	c7 87 94 ed 01
	00 00 00 00 00	 mov	 DWORD PTR [edi+126356], 0

; 27   : 								fPitch(0.0f),

  0034e	c7 87 98 ed 01
	00 00 00 00 00	 mov	 DWORD PTR [edi+126360], 0

; 28   : 								fZoom(0.0f) {}

  00358	c7 87 9c ed 01
	00 00 00 00 00	 mov	 DWORD PTR [edi+126364], 0
; File D:\Metin2 Server Files\mainline\SRC_2014\M2Data\include\d3dx8math.inl

; 180  :     x = fx;

  00362	c7 87 a0 ed 01
	00 00 00 00 00	 mov	 DWORD PTR [edi+126368], 0

; 181  :     y = fy;

  0036c	c7 87 a4 ed 01
	00 00 00 00 00	 mov	 DWORD PTR [edi+126372], 0

; 182  :     z = fz;

  00376	c7 87 a8 ed 01
	00 00 00 00 00	 mov	 DWORD PTR [edi+126376], 0
; File D:\Metin2 Server Files\mainline\SRC_2014\Metin2Client\UserInterface\AbstractApplication.h

; 14   : 			SCameraPos() : m_fUpDir(0.0f), m_fViewDir(0.0f), m_fCrossDir(0.0f) {}

  00380	c7 87 ac ed 01
	00 00 00 00 00	 mov	 DWORD PTR [edi+126380], 0
  0038a	c7 87 b0 ed 01
	00 00 00 00 00	 mov	 DWORD PTR [edi+126384], 0
  00394	c7 87 b4 ed 01
	00 00 00 00 00	 mov	 DWORD PTR [edi+126388], 0

; 26   : 								fRotation(0.0f),

  0039e	c7 87 b8 ed 01
	00 00 00 00 00	 mov	 DWORD PTR [edi+126392], 0

; 27   : 								fPitch(0.0f),

  003a8	c7 87 bc ed 01
	00 00 00 00 00	 mov	 DWORD PTR [edi+126396], 0

; 28   : 								fZoom(0.0f) {}

  003b2	c7 87 c0 ed 01
	00 00 00 00 00	 mov	 DWORD PTR [edi+126400], 0
; File D:\Metin2 Server Files\mainline\SRC_2014\M2Data\include\d3dx8math.inl

; 180  :     x = fx;

  003bc	c7 87 d0 ed 01
	00 00 00 00 00	 mov	 DWORD PTR [edi+126416], 0

; 181  :     y = fy;

  003c6	c7 87 d4 ed 01
	00 00 00 00 00	 mov	 DWORD PTR [edi+126420], 0

; 182  :     z = fz;

  003d0	c7 87 d8 ed 01
	00 00 00 00 00	 mov	 DWORD PTR [edi+126424], 0
; File D:\Metin2 Server Files\mainline\SRC_2014\Metin2Client\UserInterface\AbstractApplication.h

; 14   : 			SCameraPos() : m_fUpDir(0.0f), m_fViewDir(0.0f), m_fCrossDir(0.0f) {}

  003da	c7 87 dc ed 01
	00 00 00 00 00	 mov	 DWORD PTR [edi+126428], 0
  003e4	c7 87 e0 ed 01
	00 00 00 00 00	 mov	 DWORD PTR [edi+126432], 0
  003ee	c7 87 e4 ed 01
	00 00 00 00 00	 mov	 DWORD PTR [edi+126436], 0

; 26   : 								fRotation(0.0f),

  003f8	c7 87 e8 ed 01
	00 00 00 00 00	 mov	 DWORD PTR [edi+126440], 0

; 27   : 								fPitch(0.0f),

  00402	c7 87 ec ed 01
	00 00 00 00 00	 mov	 DWORD PTR [edi+126444], 0

; 28   : 								fZoom(0.0f) {}

  0040c	c7 87 f0 ed 01
	00 00 00 00 00	 mov	 DWORD PTR [edi+126448], 0

; 14   : 			SCameraPos() : m_fUpDir(0.0f), m_fViewDir(0.0f), m_fCrossDir(0.0f) {}

  00416	c7 87 0c ee 01
	00 00 00 00 00	 mov	 DWORD PTR [edi+126476], 0
  00420	c7 87 10 ee 01
	00 00 00 00 00	 mov	 DWORD PTR [edi+126480], 0
  0042a	c7 87 14 ee 01
	00 00 00 00 00	 mov	 DWORD PTR [edi+126484], 0
; File D:\Metin2 Server Files\mainline\SRC_2014\Metin2Client\UserInterface\PythonApplication.h

; 121  : 			SCameraSpeed() : m_fUpDir(0.0f), m_fViewDir(0.0f), m_fCrossDir(0.0f) {}

  00434	c7 87 18 ee 01
	00 00 00 00 00	 mov	 DWORD PTR [edi+126488], 0
  0043e	c7 87 1c ee 01
	00 00 00 00 00	 mov	 DWORD PTR [edi+126492], 0
  00448	c7 87 20 ee 01
	00 00 00 00 00	 mov	 DWORD PTR [edi+126496], 0
; File D:\Metin2 Server Files\mainline\SRC_2014\Metin2Client\UserInterface\PythonApplication.cpp

; 39   : m_dwUpdateFPS(0),

  00452	c7 87 3c ee 01
	00 00 00 00 00	 mov	 DWORD PTR [edi+126524], 0

; 40   : m_dwRenderFPS(0),

  0045c	c7 87 40 ee 01
	00 00 00 00 00	 mov	 DWORD PTR [edi+126528], 0

; 42   : m_dwFaceCount(0),

  00466	c7 87 44 ee 01
	00 00 00 00 00	 mov	 DWORD PTR [edi+126532], 0

; 45   : m_dwLButtonDownTime(0),

  00470	c7 87 48 ee 01
	00 00 00 00 00	 mov	 DWORD PTR [edi+126536], 0

; 47   : {

  0047a	81 c7 50 ee 01
	00		 add	 edi, 126544		; 0001ee50H
  00480	89 7d ec	 mov	 DWORD PTR _this$[ebp], edi
; File C:\Program Files (x86)\Microsoft Visual Studio\2019\Community\VC\Tools\MSVC\14.28.29333\include\xmemory

; 814  :         return static_cast<_Ty*>(_Allocate<_New_alignof<_Ty>>(_Get_size_of_n<sizeof(_Ty)>(_Count)));

  00483	6a 18		 push	 24			; 00000018H
; File D:\Metin2 Server Files\mainline\SRC_2014\Metin2Client\UserInterface\PythonApplication.cpp

; 47   : {

  00485	c6 45 fc 28	 mov	 BYTE PTR __$EHRec$[ebp+8], 40 ; 00000028H

; 41   : m_fAveRenderTime(0.0f),

  00489	0f 29 45 c0	 movaps	 XMMWORD PTR tv1165[ebp], xmm0
; File C:\Program Files (x86)\Microsoft Visual Studio\2019\Community\VC\Tools\MSVC\14.28.29333\include\xtree

; 435  :     _Tree_val() noexcept : _Myhead(), _Mysize(0) {}

  0048d	c7 07 00 00 00
	00		 mov	 DWORD PTR [edi], 0
  00493	c7 47 04 00 00
	00 00		 mov	 DWORD PTR [edi+4], 0
; File C:\Program Files (x86)\Microsoft Visual Studio\2019\Community\VC\Tools\MSVC\14.28.29333\include\xmemory

; 814  :         return static_cast<_Ty*>(_Allocate<_New_alignof<_Ty>>(_Get_size_of_n<sizeof(_Ty)>(_Count)));

  0049a	e8 00 00 00 00	 call	 ??$_Allocate@$07U_Default_allocate_traits@std@@$0A@@std@@YAPAXI@Z ; std::_Allocate<8,std::_Default_allocate_traits,0>
; File C:\Program Files (x86)\Microsoft Visual Studio\2019\Community\VC\Tools\MSVC\14.28.29333\include\xtree

; 343  :         const auto _Pnode = _Al.allocate(1);

  0049f	8b f0		 mov	 esi, eax

; 344  :         _Construct_in_place(_Pnode->_Left, _Pnode);

  004a1	8d 45 ec	 lea	 eax, DWORD PTR __Pnode$3[ebp]
  004a4	50		 push	 eax
  004a5	56		 push	 esi
  004a6	89 75 ec	 mov	 DWORD PTR __Pnode$3[ebp], esi
  004a9	e8 00 00 00 00	 call	 ??$_Construct_in_place@PAU?$_Tree_node@U?$pair@$$CBHPAX@std@@PAX@std@@ABQAU12@@std@@YAXAAPAU?$_Tree_node@U?$pair@$$CBHPAX@std@@PAX@0@ABQAU10@@Z ; std::_Construct_in_place<std::_Tree_node<std::pair<int const ,void *>,void *> *,std::_Tree_node<std::pair<int const ,void *>,void *> * const &>

; 345  :         _Construct_in_place(_Pnode->_Parent, _Pnode);

  004ae	8d 45 ec	 lea	 eax, DWORD PTR __Pnode$3[ebp]
  004b1	50		 push	 eax
  004b2	8d 4e 04	 lea	 ecx, DWORD PTR [esi+4]
  004b5	51		 push	 ecx
  004b6	e8 00 00 00 00	 call	 ??$_Construct_in_place@PAU?$_Tree_node@U?$pair@$$CBHPAX@std@@PAX@std@@ABQAU12@@std@@YAXAAPAU?$_Tree_node@U?$pair@$$CBHPAX@std@@PAX@0@ABQAU10@@Z ; std::_Construct_in_place<std::_Tree_node<std::pair<int const ,void *>,void *> *,std::_Tree_node<std::pair<int const ,void *>,void *> * const &>

; 346  :         _Construct_in_place(_Pnode->_Right, _Pnode);

  004bb	8d 45 ec	 lea	 eax, DWORD PTR __Pnode$3[ebp]
  004be	50		 push	 eax
  004bf	8d 46 08	 lea	 eax, DWORD PTR [esi+8]
  004c2	50		 push	 eax
  004c3	e8 00 00 00 00	 call	 ??$_Construct_in_place@PAU?$_Tree_node@U?$pair@$$CBHPAX@std@@PAX@std@@ABQAU12@@std@@YAXAAPAU?$_Tree_node@U?$pair@$$CBHPAX@std@@PAX@0@ABQAU10@@Z ; std::_Construct_in_place<std::_Tree_node<std::pair<int const ,void *>,void *> *,std::_Tree_node<std::pair<int const ,void *>,void *> * const &>

; 347  :         _Pnode->_Color = _Black;

  004c8	66 c7 46 0c 01
	01		 mov	 WORD PTR [esi+12], 257	; 00000101H
  004ce	83 c4 1c	 add	 esp, 28			; 0000001cH

; 2021 :         _Scary->_Myhead = _Node::_Buyheadnode(_Getal());

  004d1	89 37		 mov	 DWORD PTR [edi], esi
; File D:\Metin2 Server Files\mainline\SRC_2014\Metin2Client\UserInterface\PythonApplication.cpp

; 33   : m_bCursorVisible(TRUE),

  004d3	8b 75 e8	 mov	 esi, DWORD PTR _this$[ebp]
  004d6	c7 86 5c ee 01
	00 01 00 00 00	 mov	 DWORD PTR [esi+126556], 1

; 34   : m_bLiarCursorOn(false),

  004e0	c6 86 60 ee 01
	00 00		 mov	 BYTE PTR [esi+126560], 0

; 35   : m_iCursorMode(CURSOR_MODE_HARDWARE),

  004e7	c7 86 64 ee 01
	00 00 00 00 00	 mov	 DWORD PTR [esi+126564], 0

; 36   : m_isWindowed(false),

  004f1	66 c7 86 68 ee
	01 00 00 00	 mov	 WORD PTR [esi+126568], 0
; File C:\Program Files (x86)\Microsoft Visual Studio\2019\Community\VC\Tools\MSVC\14.28.29333\include\xstring

; 4377 :         _Mypair._Myval2._Mysize = 0;

  004fa	c7 86 7c ee 01
	00 00 00 00 00	 mov	 DWORD PTR [esi+126588], 0

; 4378 :         _Mypair._Myval2._Myres  = _BUF_SIZE - 1;

  00504	c7 86 80 ee 01
	00 0f 00 00 00	 mov	 DWORD PTR [esi+126592], 15 ; 0000000fH

; 4379 :         // the _Traits::assign is last so the codegen doesn't think the char write can alias this
; 4380 :         _Traits::assign(_Mypair._Myval2._Bx._Buf[0], _Elem());

  0050e	c6 86 6c ee 01
	00 00		 mov	 BYTE PTR [esi+126572], 0
; File D:\Metin2 Server Files\mainline\SRC_2014\Metin2Client\UserInterface\PythonApplication.cpp

; 47   : {

  00515	c6 45 fc 2a	 mov	 BYTE PTR __$EHRec$[ebp+8], 42 ; 0000002aH

; 48   : #ifndef _DEBUG
; 49   : 	SetEterExceptionHandler();

  00519	e8 00 00 00 00	 call	 ?SetEterExceptionHandler@@YAXXZ ; SetEterExceptionHandler

; 50   : #endif
; 51   : 
; 52   : 	CTimer::Instance().UseCustomTime();

  0051e	8b 0d 00 00 00
	00		 mov	 ecx, DWORD PTR ?ms_singleton@?$CSingleton@VCTimer@@@@0PAVCTimer@@A ; CSingleton<CTimer>::ms_singleton
  00524	e8 00 00 00 00	 call	 ?UseCustomTime@CTimer@@QAEXXZ ; CTimer::UseCustomTime

; 59   : 	m_v3CenterPosition = D3DXVECTOR3(0.0f, 0.0f, 0.0f);

  00529	0f 28 45 c0	 movaps	 xmm0, XMMWORD PTR tv1165[ebp]
  0052d	c7 86 5c ed 01
	00 20 03 00 00	 mov	 DWORD PTR [esi+126300], 800 ; 00000320H
  00537	c7 86 60 ed 01
	00 58 02 00 00	 mov	 DWORD PTR [esi+126304], 600 ; 00000258H
  00541	89 35 00 00 00
	00		 mov	 DWORD PTR ?ms_pInstance@CPythonApplication@@1PAV1@A, esi ; CPythonApplication::ms_pInstance
  00547	0f 14 c0	 unpcklps xmm0, xmm0
; File D:\Metin2 Server Files\mainline\SRC_2014\M2Data\include\d3dx8math.inl

; 182  :     z = fz;

  0054a	c7 45 e4 00 00
	00 00		 mov	 DWORD PTR $T2[ebp+8], 0
; File D:\Metin2 Server Files\mainline\SRC_2014\Metin2Client\UserInterface\PythonApplication.cpp

; 59   : 	m_v3CenterPosition = D3DXVECTOR3(0.0f, 0.0f, 0.0f);

  00551	8b 45 e4	 mov	 eax, DWORD PTR $T2[ebp+8]
  00554	66 0f d6 86 3c
	ed 01 00	 movq	 QWORD PTR [esi+126268], xmm0
  0055c	c7 86 8c ee 01
	00 00 00 00 00	 mov	 DWORD PTR [esi+126604], 0
  00566	89 86 44 ed 01
	00		 mov	 DWORD PTR [esi+126276], eax

; 60   : 	m_dwStartLocalTime = ELTimer_GetMSec();

  0056c	e8 00 00 00 00	 call	 ?ELTimer_GetMSec@@YAKXZ	; ELTimer_GetMSec
  00571	89 86 68 ed 01
	00		 mov	 DWORD PTR [esi+126312], eax

; 61   : 	m_tServerTime = 0;
; 62   : 	m_tLocalStartTime = 0;
; 63   : 
; 64   : 	m_iPort = 0;
; 65   : 	m_iFPS = 60;
; 66   : 
; 67   : 	m_isActivateWnd = false;
; 68   : 	m_isMinimizedWnd = true;
; 69   : 
; 70   : 	m_fRotationSpeed = 0.0f;
; 71   : 	m_fPitchSpeed = 0.0f;
; 72   : 	m_fZoomSpeed = 0.0f;
; 73   : 
; 74   : 	m_fFaceSpd=0.0f;
; 75   : 
; 76   : 	m_dwFaceAccCount=0;
; 77   : 	m_dwFaceAccTime=0;
; 78   : 
; 79   : 	m_dwFaceSpdSum=0;
; 80   : 	m_dwFaceSpdCount=0;
; 81   : 
; 82   : 	m_FlyingManager.SetMapManagerPtr(&m_pyBackground);

  00577	8d 86 4c a9 01
	00		 lea	 eax, DWORD PTR [esi+108876]
  0057d	c7 86 6c ed 01
	00 00 00 00 00	 mov	 DWORD PTR [esi+126316], 0
  00587	c7 86 70 ed 01
	00 00 00 00 00	 mov	 DWORD PTR [esi+126320], 0
  00591	c7 86 84 ee 01
	00 00 00 00 00	 mov	 DWORD PTR [esi+126596], 0
  0059b	c7 86 48 ed 01
	00 3c 00 00 00	 mov	 DWORD PTR [esi+126280], 60 ; 0000003cH
  005a5	66 c7 86 88 ee
	01 00 01 00	 mov	 WORD PTR [esi+126600], 1
  005ae	c7 86 f4 ed 01
	00 00 00 00 00	 mov	 DWORD PTR [esi+126452], 0
  005b8	c7 86 f8 ed 01
	00 00 00 00 00	 mov	 DWORD PTR [esi+126456], 0
  005c2	c7 86 fc ed 01
	00 00 00 00 00	 mov	 DWORD PTR [esi+126460], 0
  005cc	c7 86 28 ee 01
	00 00 00 00 00	 mov	 DWORD PTR [esi+126504], 0
  005d6	c7 86 34 ee 01
	00 00 00 00 00	 mov	 DWORD PTR [esi+126516], 0
  005e0	c7 86 38 ee 01
	00 00 00 00 00	 mov	 DWORD PTR [esi+126520], 0
  005ea	c7 86 2c ee 01
	00 00 00 00 00	 mov	 DWORD PTR [esi+126508], 0
  005f4	c7 86 30 ee 01
	00 00 00 00 00	 mov	 DWORD PTR [esi+126512], 0
  005fe	89 86 78 01 00
	00		 mov	 DWORD PTR [esi+376], eax

; 83   : 
; 84   : 	m_iCursorNum = CURSOR_SHAPE_NORMAL;

  00604	c7 86 9c ee 01
	00 00 00 00 00	 mov	 DWORD PTR [esi+126620], 0

; 85   : 	m_iContinuousCursorNum = CURSOR_SHAPE_NORMAL;

  0060e	c7 86 a0 ee 01
	00 00 00 00 00	 mov	 DWORD PTR [esi+126624], 0

; 86   : 
; 87   : 	m_isSpecialCameraMode = FALSE;

  00618	c7 86 24 ee 01
	00 00 00 00 00	 mov	 DWORD PTR [esi+126500], 0

; 88   : 	m_fCameraRotateSpeed = c_fDefaultCameraRotateSpeed;

  00622	f3 0f 10 05 00
	00 00 00	 movss	 xmm0, DWORD PTR ?c_fDefaultCameraRotateSpeed@@3MA
  0062a	f3 0f 11 86 00
	ee 01 00	 movss	 DWORD PTR [esi+126464], xmm0

; 89   : 	m_fCameraPitchSpeed = c_fDefaultCameraPitchSpeed;

  00632	f3 0f 10 05 00
	00 00 00	 movss	 xmm0, DWORD PTR ?c_fDefaultCameraPitchSpeed@@3MA
  0063a	f3 0f 11 86 04
	ee 01 00	 movss	 DWORD PTR [esi+126468], xmm0

; 90   : 	m_fCameraZoomSpeed = c_fDefaultCameraZoomSpeed;

  00642	f3 0f 10 05 00
	00 00 00	 movss	 xmm0, DWORD PTR ?c_fDefaultCameraZoomSpeed@@3MA
  0064a	f3 0f 11 86 08
	ee 01 00	 movss	 DWORD PTR [esi+126472], xmm0

; 91   : 
; 92   : 	m_iCameraMode = CAMERA_MODE_NORMAL;

  00652	c7 86 c4 ed 01
	00 00 00 00 00	 mov	 DWORD PTR [esi+126404], 0

; 93   : 	m_fBlendCameraStartTime = 0.0f;

  0065c	c7 86 c8 ed 01
	00 00 00 00 00	 mov	 DWORD PTR [esi+126408], 0

; 94   : 	m_fBlendCameraBlendTime = 0.0f;

  00666	c7 86 cc ed 01
	00 00 00 00 00	 mov	 DWORD PTR [esi+126412], 0

; 95   : 
; 96   : 	m_iForceSightRange = -1;

  00670	c7 86 98 ee 01
	00 ff ff ff ff	 mov	 DWORD PTR [esi+126616], -1

; 97   : 
; 98   : 	CCameraManager::Instance().AddCamera(EVENT_CAMERA_NUMBER);

  0067a	8b 0d 00 00 00
	00		 mov	 ecx, DWORD PTR ?ms_singleton@?$CSingleton@VCCameraManager@@@@0PAVCCameraManager@@A ; CSingleton<CCameraManager>::ms_singleton
  00680	6a 65		 push	 101			; 00000065H
  00682	e8 00 00 00 00	 call	 ?AddCamera@CCameraManager@@QAE_NE@Z ; CCameraManager::AddCamera

; 99   : }

  00687	8b c6		 mov	 eax, esi
  00689	8b 4d f4	 mov	 ecx, DWORD PTR __$EHRec$[ebp]
  0068c	64 89 0d 00 00
	00 00		 mov	 DWORD PTR fs:0, ecx
  00693	59		 pop	 ecx
  00694	5f		 pop	 edi
  00695	5e		 pop	 esi
  00696	8b e5		 mov	 esp, ebp
  00698	5d		 pop	 ebp
  00699	8b e3		 mov	 esp, ebx
  0069b	5b		 pop	 ebx
  0069c	c3		 ret	 0
_TEXT	ENDS
;	COMDAT text$x
text$x	SEGMENT
__unwindfunclet$??0CPythonApplication@@QAE@XZ$0:
  00000	8b 4d e8	 mov	 ecx, DWORD PTR _this$[ebp]
  00003	e9 00 00 00 00	 jmp	 ??1CMSApplication@@UAE@XZ ; CMSApplication::~CMSApplication
__unwindfunclet$??0CPythonApplication@@QAE@XZ$1:
  00008	8b 4d e8	 mov	 ecx, DWORD PTR _this$[ebp]
  0000b	83 c1 1c	 add	 ecx, 28			; 0000001cH
  0000e	e9 00 00 00 00	 jmp	 ??1CInputKeyboard@@UAE@XZ ; CInputKeyboard::~CInputKeyboard
__unwindfunclet$??0CPythonApplication@@QAE@XZ$2:
  00013	8b 4d e8	 mov	 ecx, DWORD PTR _this$[ebp]
  00016	83 c1 20	 add	 ecx, 32			; 00000020H
  00019	e9 00 00 00 00	 jmp	 ??1IAbstractApplication@@UAE@XZ ; IAbstractApplication::~IAbstractApplication
__unwindfunclet$??0CPythonApplication@@QAE@XZ$3:
  0001e	8b 4d e8	 mov	 ecx, DWORD PTR _this$[ebp]
  00021	83 c1 60	 add	 ecx, 96			; 00000060H
  00024	e9 00 00 00 00	 jmp	 ??1CTimer@@UAE@XZ	; CTimer::~CTimer
__unwindfunclet$??0CPythonApplication@@QAE@XZ$4:
  00029	8b 4d e8	 mov	 ecx, DWORD PTR _this$[ebp]
  0002c	83 c1 7c	 add	 ecx, 124		; 0000007cH
  0002f	e9 00 00 00 00	 jmp	 ??1CLightManager@@UAE@XZ ; CLightManager::~CLightManager
__unwindfunclet$??0CPythonApplication@@QAE@XZ$5:
  00034	8b 4d e8	 mov	 ecx, DWORD PTR _this$[ebp]
  00037	81 c1 e8 00 00
	00		 add	 ecx, 232		; 000000e8H
  0003d	e9 00 00 00 00	 jmp	 ??1CSoundManager@@UAE@XZ ; CSoundManager::~CSoundManager
__unwindfunclet$??0CPythonApplication@@QAE@XZ$6:
  00042	8b 4d e8	 mov	 ecx, DWORD PTR _this$[ebp]
  00045	81 c1 5c 01 00
	00		 add	 ecx, 348		; 0000015cH
  0004b	e9 00 00 00 00	 jmp	 ??1CFlyingManager@@UAE@XZ ; CFlyingManager::~CFlyingManager
__unwindfunclet$??0CPythonApplication@@QAE@XZ$7:
  00050	8b 4d e8	 mov	 ecx, DWORD PTR _this$[ebp]
  00053	81 c1 80 01 00
	00		 add	 ecx, 384		; 00000180H
  00059	e9 00 00 00 00	 jmp	 ??1CRaceManager@@UAE@XZ	; CRaceManager::~CRaceManager
__unwindfunclet$??0CPythonApplication@@QAE@XZ$8:
  0005e	8b 4d e8	 mov	 ecx, DWORD PTR _this$[ebp]
  00061	81 c1 b8 01 00
	00		 add	 ecx, 440		; 000001b8H
  00067	e9 00 00 00 00	 jmp	 ??1CGameEventManager@@UAE@XZ ; CGameEventManager::~CGameEventManager
__unwindfunclet$??0CPythonApplication@@QAE@XZ$9:
  0006c	8b 4d e8	 mov	 ecx, DWORD PTR _this$[ebp]
  0006f	81 c1 cc 01 00
	00		 add	 ecx, 460		; 000001ccH
  00075	e9 00 00 00 00	 jmp	 ??1CItemManager@@UAE@XZ	; CItemManager::~CItemManager
__unwindfunclet$??0CPythonApplication@@QAE@XZ$10:
  0007a	8b 4d e8	 mov	 ecx, DWORD PTR _this$[ebp]
  0007d	81 c1 e8 01 00
	00		 add	 ecx, 488		; 000001e8H
  00083	e9 00 00 00 00	 jmp	 ??1CMovieMan@@UAE@XZ	; CMovieMan::~CMovieMan
__unwindfunclet$??0CPythonApplication@@QAE@XZ$11:
  00088	8b 4d e8	 mov	 ecx, DWORD PTR _this$[ebp]
  0008b	81 c1 10 02 00
	00		 add	 ecx, 528		; 00000210H
  00091	e9 00 00 00 00	 jmp	 ??1CWindowManager@UI@@UAE@XZ ; UI::CWindowManager::~CWindowManager
__unwindfunclet$??0CPythonApplication@@QAE@XZ$12:
  00096	8b 4d e8	 mov	 ecx, DWORD PTR _this$[ebp]
  00099	81 c1 b0 02 00
	00		 add	 ecx, 688		; 000002b0H
  0009f	e9 00 00 00 00	 jmp	 ??1CEffectManager@@UAE@XZ ; CEffectManager::~CEffectManager
__unwindfunclet$??0CPythonApplication@@QAE@XZ$13:
  000a4	8b 4d e8	 mov	 ecx, DWORD PTR _this$[ebp]
  000a7	81 c1 d8 02 00
	00		 add	 ecx, 728		; 000002d8H
  000ad	e9 00 00 00 00	 jmp	 ??1CPythonCharacterManager@@UAE@XZ ; CPythonCharacterManager::~CPythonCharacterManager
__unwindfunclet$??0CPythonApplication@@QAE@XZ$14:
  000b2	8b 4d e8	 mov	 ecx, DWORD PTR _this$[ebp]
  000b5	81 c1 10 07 00
	00		 add	 ecx, 1808		; 00000710H
  000bb	e9 00 00 00 00	 jmp	 ??1CServerStateChecker@@UAE@XZ ; CServerStateChecker::~CServerStateChecker
__unwindfunclet$??0CPythonApplication@@QAE@XZ$15:
  000c0	8b 4d e8	 mov	 ecx, DWORD PTR _this$[ebp]
  000c3	81 c1 9c 07 00
	00		 add	 ecx, 1948		; 0000079cH
  000c9	e9 00 00 00 00	 jmp	 ??1CPythonGraphic@@UAE@XZ ; CPythonGraphic::~CPythonGraphic
__unwindfunclet$??0CPythonApplication@@QAE@XZ$16:
  000ce	8b 4d e8	 mov	 ecx, DWORD PTR _this$[ebp]
  000d1	81 c1 40 08 00
	00		 add	 ecx, 2112		; 00000840H
  000d7	e9 00 00 00 00	 jmp	 ??1CPythonNetworkStream@@UAE@XZ ; CPythonNetworkStream::~CPythonNetworkStream
__unwindfunclet$??0CPythonApplication@@QAE@XZ$17:
  000dc	8b 4d e8	 mov	 ecx, DWORD PTR _this$[ebp]
  000df	81 c1 90 81 00
	00		 add	 ecx, 33168		; 00008190H
  000e5	e9 00 00 00 00	 jmp	 ??1CPythonPlayer@@UAE@XZ ; CPythonPlayer::~CPythonPlayer
__unwindfunclet$??0CPythonApplication@@QAE@XZ$18:
  000ea	8b 4d e8	 mov	 ecx, DWORD PTR _this$[ebp]
  000ed	81 c1 b4 79 01
	00		 add	 ecx, 96692		; 000179b4H
  000f3	e9 00 00 00 00	 jmp	 ??1CPythonIME@@UAE@XZ	; CPythonIME::~CPythonIME
__unwindfunclet$??0CPythonApplication@@QAE@XZ$19:
  000f8	8b 4d e8	 mov	 ecx, DWORD PTR _this$[ebp]
  000fb	81 c1 e0 81 01
	00		 add	 ecx, 98784		; 000181e0H
  00101	e9 00 00 00 00	 jmp	 ??1CPythonItem@@UAE@XZ	; CPythonItem::~CPythonItem
__unwindfunclet$??0CPythonApplication@@QAE@XZ$20:
  00106	8b 4d e8	 mov	 ecx, DWORD PTR _this$[ebp]
  00109	81 c1 ec 82 01
	00		 add	 ecx, 99052		; 000182ecH
  0010f	e9 00 00 00 00	 jmp	 ??1CPythonShop@@UAE@XZ	; CPythonShop::~CPythonShop
__unwindfunclet$??0CPythonApplication@@QAE@XZ$21:
  00114	8b 4d e8	 mov	 ecx, DWORD PTR _this$[ebp]
  00117	81 c1 84 97 01
	00		 add	 ecx, 104324		; 00019784H
  0011d	e9 00 00 00 00	 jmp	 ??1CPythonExchange@@UAE@XZ ; CPythonExchange::~CPythonExchange
__unwindfunclet$??0CPythonApplication@@QAE@XZ$22:
  00122	8b 4d e8	 mov	 ecx, DWORD PTR _this$[ebp]
  00125	81 c1 64 9b 01
	00		 add	 ecx, 105316		; 00019b64H
  0012b	e9 00 00 00 00	 jmp	 ??1CPythonChat@@UAE@XZ	; CPythonChat::~CPythonChat
__unwindfunclet$??0CPythonApplication@@QAE@XZ$23:
  00130	8b 4d e8	 mov	 ecx, DWORD PTR _this$[ebp]
  00133	81 c1 38 9c 01
	00		 add	 ecx, 105528		; 00019c38H
  00139	e9 00 00 00 00	 jmp	 ??1CPythonTextTail@@UAE@XZ ; CPythonTextTail::~CPythonTextTail
__unwindfunclet$??0CPythonApplication@@QAE@XZ$24:
  0013e	8b 4d e8	 mov	 ecx, DWORD PTR _this$[ebp]
  00141	81 c1 88 9c 01
	00		 add	 ecx, 105608		; 00019c88H
  00147	e9 00 00 00 00	 jmp	 ??1CPythonNonPlayer@@UAE@XZ ; CPythonNonPlayer::~CPythonNonPlayer
__unwindfunclet$??0CPythonApplication@@QAE@XZ$25:
  0014c	8b 4d e8	 mov	 ecx, DWORD PTR _this$[ebp]
  0014f	81 c1 94 9c 01
	00		 add	 ecx, 105620		; 00019c94H
  00155	e9 00 00 00 00	 jmp	 ??1CPythonMiniMap@@UAE@XZ ; CPythonMiniMap::~CPythonMiniMap
__unwindfunclet$??0CPythonApplication@@QAE@XZ$26:
  0015a	8b 4d e8	 mov	 ecx, DWORD PTR _this$[ebp]
  0015d	81 c1 cc a8 01
	00		 add	 ecx, 108748		; 0001a8ccH
  00163	e9 00 00 00 00	 jmp	 ??1CPythonEventManager@@UAE@XZ ; CPythonEventManager::~CPythonEventManager
__unwindfunclet$??0CPythonApplication@@QAE@XZ$27:
  00168	8b 4d e8	 mov	 ecx, DWORD PTR _this$[ebp]
  0016b	81 c1 4c a9 01
	00		 add	 ecx, 108876		; 0001a94cH
  00171	e9 00 00 00 00	 jmp	 ??1CPythonBackground@@UAE@XZ ; CPythonBackground::~CPythonBackground
__unwindfunclet$??0CPythonApplication@@QAE@XZ$28:
  00176	8b 4d e8	 mov	 ecx, DWORD PTR _this$[ebp]
  00179	81 c1 54 bf 01
	00		 add	 ecx, 114516		; 0001bf54H
  0017f	e9 00 00 00 00	 jmp	 ??1CPythonSkill@@UAE@XZ	; CPythonSkill::~CPythonSkill
__unwindfunclet$??0CPythonApplication@@QAE@XZ$29:
  00184	8b 4d e8	 mov	 ecx, DWORD PTR _this$[ebp]
  00187	81 c1 a0 bf 01
	00		 add	 ecx, 114592		; 0001bfa0H
  0018d	e9 00 00 00 00	 jmp	 ??1CPythonResource@@UAE@XZ ; CPythonResource::~CPythonResource
__unwindfunclet$??0CPythonApplication@@QAE@XZ$30:
  00192	8b 4d e8	 mov	 ecx, DWORD PTR _this$[ebp]
  00195	81 c1 e8 bf 01
	00		 add	 ecx, 114664		; 0001bfe8H
  0019b	e9 00 00 00 00	 jmp	 ??1CPythonQuest@@UAE@XZ	; CPythonQuest::~CPythonQuest
__unwindfunclet$??0CPythonApplication@@QAE@XZ$31:
  001a0	8b 4d e8	 mov	 ecx, DWORD PTR _this$[ebp]
  001a3	81 c1 f8 bf 01
	00		 add	 ecx, 114680		; 0001bff8H
  001a9	e9 00 00 00 00	 jmp	 ??1CPythonMessenger@@UAE@XZ ; CPythonMessenger::~CPythonMessenger
__unwindfunclet$??0CPythonApplication@@QAE@XZ$32:
  001ae	8b 4d e8	 mov	 ecx, DWORD PTR _this$[ebp]
  001b1	81 c1 10 c0 01
	00		 add	 ecx, 114704		; 0001c010H
  001b7	e9 00 00 00 00	 jmp	 ??1CPythonSafeBox@@UAE@XZ ; CPythonSafeBox::~CPythonSafeBox
__unwindfunclet$??0CPythonApplication@@QAE@XZ$33:
  001bc	8b 4d e8	 mov	 ecx, DWORD PTR _this$[ebp]
  001bf	81 c1 30 c0 01
	00		 add	 ecx, 114736		; 0001c030H
  001c5	e9 00 00 00 00	 jmp	 ??1CPythonGuild@@UAE@XZ	; CPythonGuild::~CPythonGuild
__unwindfunclet$??0CPythonApplication@@QAE@XZ$34:
  001ca	8b 4d e8	 mov	 ecx, DWORD PTR _this$[ebp]
  001cd	81 c1 c8 c0 01
	00		 add	 ecx, 114888		; 0001c0c8H
  001d3	e9 00 00 00 00	 jmp	 ??1CGuildMarkManager@@UAE@XZ ; CGuildMarkManager::~CGuildMarkManager
__unwindfunclet$??0CPythonApplication@@QAE@XZ$35:
  001d8	8b 4d e8	 mov	 ecx, DWORD PTR _this$[ebp]
  001db	81 c1 04 c1 01
	00		 add	 ecx, 114948		; 0001c104H
  001e1	e9 00 00 00 00	 jmp	 ??1CGuildMarkDownloader@@UAE@XZ ; CGuildMarkDownloader::~CGuildMarkDownloader
__unwindfunclet$??0CPythonApplication@@QAE@XZ$36:
  001e6	8b 4d e8	 mov	 ecx, DWORD PTR _this$[ebp]
  001e9	81 c1 b4 c1 01
	00		 add	 ecx, 115124		; 0001c1b4H
  001ef	e9 00 00 00 00	 jmp	 ??1CGuildMarkUploader@@UAE@XZ ; CGuildMarkUploader::~CGuildMarkUploader
__unwindfunclet$??0CPythonApplication@@QAE@XZ$37:
  001f4	8b 4d e8	 mov	 ecx, DWORD PTR _this$[ebp]
  001f7	81 c1 54 c5 01
	00		 add	 ecx, 116052		; 0001c554H
  001fd	e9 00 00 00 00	 jmp	 ??1CAccountConnector@@UAE@XZ ; CAccountConnector::~CAccountConnector
__unwindfunclet$??0CPythonApplication@@QAE@XZ$38:
  00202	8b 4d e8	 mov	 ecx, DWORD PTR _this$[ebp]
  00205	81 c1 2c c6 01
	00		 add	 ecx, 116268		; 0001c62cH
  0020b	e9 00 00 00 00	 jmp	 ??1CGraphicDevice@@UAE@XZ ; CGraphicDevice::~CGraphicDevice
__unwindfunclet$??0CPythonApplication@@QAE@XZ$39:
  00210	8b 4d e8	 mov	 ecx, DWORD PTR _this$[ebp]
  00213	81 c1 40 c6 01
	00		 add	 ecx, 116288		; 0001c640H
  00219	e9 00 00 00 00	 jmp	 ??1CNetworkDevice@@UAE@XZ ; CNetworkDevice::~CNetworkDevice
__unwindfunclet$??0CPythonApplication@@QAE@XZ$40:
  0021e	8b 4d e8	 mov	 ecx, DWORD PTR _this$[ebp]
  00221	81 c1 48 c6 01
	00		 add	 ecx, 116296		; 0001c648H
  00227	e9 00 00 00 00	 jmp	 ??1CPythonSystem@@UAE@XZ ; CPythonSystem::~CPythonSystem
__unwindfunclet$??0CPythonApplication@@QAE@XZ$41:
  0022c	8b 4d e8	 mov	 ecx, DWORD PTR _this$[ebp]
  0022f	81 c1 50 ee 01
	00		 add	 ecx, 126544		; 0001ee50H
  00235	e9 00 00 00 00	 jmp	 ??1?$map@HPAXU?$less@H@std@@V?$allocator@U?$pair@$$CBHPAX@std@@@2@@std@@QAE@XZ
__unwindfunclet$??0CPythonApplication@@QAE@XZ$42:
  0023a	8b 4d e8	 mov	 ecx, DWORD PTR _this$[ebp]
  0023d	81 c1 6c ee 01
	00		 add	 ecx, 126572		; 0001ee6cH
  00243	e9 00 00 00 00	 jmp	 ??1?$basic_string@DU?$char_traits@D@std@@V?$allocator@D@2@@std@@QAE@XZ ; std::basic_string<char,std::char_traits<char>,std::allocator<char> >::~basic_string<char,std::char_traits<char>,std::allocator<char> >
  00248	cc		 int	 3
  00249	cc		 int	 3
  0024a	cc		 int	 3
  0024b	cc		 int	 3
  0024c	cc		 int	 3
__ehhandler$??0CPythonApplication@@QAE@XZ:
  0024d	90		 npad	 1
  0024e	90		 npad	 1
  0024f	8b 54 24 08	 mov	 edx, DWORD PTR [esp+8]
  00253	8d 42 0c	 lea	 eax, DWORD PTR [edx+12]
  00256	8b 4a b8	 mov	 ecx, DWORD PTR [edx-72]
  00259	33 c8		 xor	 ecx, eax
  0025b	e8 00 00 00 00	 call	 @__security_check_cookie@4
  00260	b8 00 00 00 00	 mov	 eax, OFFSET __ehfuncinfo$??0CPythonApplication@@QAE@XZ
  00265	e9 00 00 00 00	 jmp	 ___CxxFrameHandler3
text$x	ENDS
??0CPythonApplication@@QAE@XZ ENDP			; CPythonApplication::CPythonApplication
; Function compile flags: /Ogtp
; File D:\Metin2 Server Files\mainline\SRC_2014\Metin2Client\UserInterface\MovieMan.h
; File D:\Metin2 Server Files\mainline\SRC_2014\Metin2Client\eterBase\Singleton.h
;	COMDAT ??_GCMovieMan@@UAEPAXI@Z
_TEXT	SEGMENT
___flags$ = 8						; size = 4
??_GCMovieMan@@UAEPAXI@Z PROC				; CMovieMan::`scalar deleting destructor', COMDAT
; _this$ = ecx
  00000	55		 push	 ebp
  00001	8b ec		 mov	 ebp, esp
; File D:\Metin2 Server Files\mainline\SRC_2014\Metin2Client\UserInterface\MovieMan.h

; 36   : 	{

  00003	56		 push	 esi
  00004	8b f1		 mov	 esi, ecx
  00006	c7 06 00 00 00
	00		 mov	 DWORD PTR [esi], OFFSET ??_7CMovieMan@@6B@

; 37   : 		CoUninitialize();

  0000c	ff 15 00 00 00
	00		 call	 DWORD PTR __imp__CoUninitialize@0
  00012	f6 45 08 01	 test	 BYTE PTR ___flags$[ebp], 1
; File D:\Metin2 Server Files\mainline\SRC_2014\Metin2Client\eterBase\Singleton.h

; 19   : 	{ 

  00016	c7 06 00 00 00
	00		 mov	 DWORD PTR [esi], OFFSET ??_7?$CSingleton@VCMovieMan@@@@6B@

; 20   : 		assert(ms_singleton);
; 21   : 		ms_singleton = 0; 

  0001c	c7 05 00 00 00
	00 00 00 00 00	 mov	 DWORD PTR ?ms_singleton@?$CSingleton@VCMovieMan@@@@0PAVCMovieMan@@A, 0 ; CSingleton<CMovieMan>::ms_singleton
  00026	74 0b		 je	 SHORT $LN9@scalar
  00028	6a 28		 push	 40			; 00000028H
  0002a	56		 push	 esi
  0002b	e8 00 00 00 00	 call	 ??3@YAXPAXI@Z		; operator delete
  00030	83 c4 08	 add	 esp, 8
$LN9@scalar:
  00033	8b c6		 mov	 eax, esi
  00035	5e		 pop	 esi
  00036	5d		 pop	 ebp
  00037	c2 04 00	 ret	 4
??_GCMovieMan@@UAEPAXI@Z ENDP				; CMovieMan::`scalar deleting destructor'
_TEXT	ENDS
; Function compile flags: /Ogtp
; File D:\Metin2 Server Files\mainline\SRC_2014\Metin2Client\UserInterface\MovieMan.h
; File D:\Metin2 Server Files\mainline\SRC_2014\Metin2Client\eterBase\Singleton.h
; File D:\Metin2 Server Files\mainline\SRC_2014\Metin2Client\UserInterface\MovieMan.h
;	COMDAT ??1CMovieMan@@UAE@XZ
_TEXT	SEGMENT
??1CMovieMan@@UAE@XZ PROC				; CMovieMan::~CMovieMan, COMDAT
; _this$ = ecx

; 36   : 	{

  00000	56		 push	 esi
  00001	8b f1		 mov	 esi, ecx
  00003	c7 06 00 00 00
	00		 mov	 DWORD PTR [esi], OFFSET ??_7CMovieMan@@6B@

; 37   : 		CoUninitialize();

  00009	ff 15 00 00 00
	00		 call	 DWORD PTR __imp__CoUninitialize@0
; File D:\Metin2 Server Files\mainline\SRC_2014\Metin2Client\eterBase\Singleton.h

; 19   : 	{ 

  0000f	c7 06 00 00 00
	00		 mov	 DWORD PTR [esi], OFFSET ??_7?$CSingleton@VCMovieMan@@@@6B@

; 20   : 		assert(ms_singleton);
; 21   : 		ms_singleton = 0; 

  00015	c7 05 00 00 00
	00 00 00 00 00	 mov	 DWORD PTR ?ms_singleton@?$CSingleton@VCMovieMan@@@@0PAVCMovieMan@@A, 0 ; CSingleton<CMovieMan>::ms_singleton
  0001f	5e		 pop	 esi
; File D:\Metin2 Server Files\mainline\SRC_2014\Metin2Client\UserInterface\MovieMan.h

; 38   : 	};

  00020	c3		 ret	 0
??1CMovieMan@@UAE@XZ ENDP				; CMovieMan::~CMovieMan
_TEXT	ENDS
; Function compile flags: /Ogtp
; File D:\Metin2 Server Files\mainline\SRC_2014\Metin2Client\eterBase\Singleton.h
;	COMDAT ??_G?$CSingleton@VCMovieMan@@@@UAEPAXI@Z
_TEXT	SEGMENT
___flags$ = 8						; size = 4
??_G?$CSingleton@VCMovieMan@@@@UAEPAXI@Z PROC		; CSingleton<CMovieMan>::`scalar deleting destructor', COMDAT
; _this$ = ecx
  00000	55		 push	 ebp
  00001	8b ec		 mov	 ebp, esp
  00003	f6 45 08 01	 test	 BYTE PTR ___flags$[ebp], 1

; 19   : 	{ 

  00007	56		 push	 esi
  00008	8b f1		 mov	 esi, ecx
  0000a	c7 06 00 00 00
	00		 mov	 DWORD PTR [esi], OFFSET ??_7?$CSingleton@VCMovieMan@@@@6B@

; 20   : 		assert(ms_singleton);
; 21   : 		ms_singleton = 0; 

  00010	c7 05 00 00 00
	00 00 00 00 00	 mov	 DWORD PTR ?ms_singleton@?$CSingleton@VCMovieMan@@@@0PAVCMovieMan@@A, 0 ; CSingleton<CMovieMan>::ms_singleton
  0001a	74 0b		 je	 SHORT $LN6@scalar
  0001c	6a 04		 push	 4
  0001e	56		 push	 esi
  0001f	e8 00 00 00 00	 call	 ??3@YAXPAXI@Z		; operator delete
  00024	83 c4 08	 add	 esp, 8
$LN6@scalar:
  00027	8b c6		 mov	 eax, esi
  00029	5e		 pop	 esi
  0002a	5d		 pop	 ebp
  0002b	c2 04 00	 ret	 4
??_G?$CSingleton@VCMovieMan@@@@UAEPAXI@Z ENDP		; CSingleton<CMovieMan>::`scalar deleting destructor'
_TEXT	ENDS
; Function compile flags: /Ogtp
; File D:\Metin2 Server Files\mainline\SRC_2014\Metin2Client\eterBase\Singleton.h
;	COMDAT ??1?$CSingleton@VCMovieMan@@@@UAE@XZ
_TEXT	SEGMENT
??1?$CSingleton@VCMovieMan@@@@UAE@XZ PROC		; CSingleton<CMovieMan>::~CSingleton<CMovieMan>, COMDAT
; _this$ = ecx

; 19   : 	{ 

  00000	c7 01 00 00 00
	00		 mov	 DWORD PTR [ecx], OFFSET ??_7?$CSingleton@VCMovieMan@@@@6B@

; 20   : 		assert(ms_singleton);
; 21   : 		ms_singleton = 0; 

  00006	c7 05 00 00 00
	00 00 00 00 00	 mov	 DWORD PTR ?ms_singleton@?$CSingleton@VCMovieMan@@@@0PAVCMovieMan@@A, 0 ; CSingleton<CMovieMan>::ms_singleton

; 22   : 	}

  00010	c3		 ret	 0
??1?$CSingleton@VCMovieMan@@@@UAE@XZ ENDP		; CSingleton<CMovieMan>::~CSingleton<CMovieMan>
_TEXT	ENDS
; Function compile flags: /Ogtp
; File D:\Metin2 Server Files\mainline\SRC_2014\Metin2Client\UserInterface\AbstractSingleton.h
;	COMDAT ??_GIAbstractApplication@@UAEPAXI@Z
_TEXT	SEGMENT
___flags$ = 8						; size = 4
??_GIAbstractApplication@@UAEPAXI@Z PROC		; IAbstractApplication::`scalar deleting destructor', COMDAT
; _this$ = ecx
  00000	55		 push	 ebp
  00001	8b ec		 mov	 ebp, esp
  00003	f6 45 08 01	 test	 BYTE PTR ___flags$[ebp], 1

; 17   : 	{ 

  00007	56		 push	 esi
  00008	8b f1		 mov	 esi, ecx
  0000a	c7 06 00 00 00
	00		 mov	 DWORD PTR [esi], OFFSET ??_7?$TAbstractSingleton@VIAbstractApplication@@@@6B@

; 18   : 		assert(ms_singleton);
; 19   : 		ms_singleton = 0; 

  00010	c7 05 00 00 00
	00 00 00 00 00	 mov	 DWORD PTR ?ms_singleton@?$TAbstractSingleton@VIAbstractApplication@@@@0PAVIAbstractApplication@@A, 0 ; TAbstractSingleton<IAbstractApplication>::ms_singleton
  0001a	74 0b		 je	 SHORT $LN9@scalar
  0001c	6a 04		 push	 4
  0001e	56		 push	 esi
  0001f	e8 00 00 00 00	 call	 ??3@YAXPAXI@Z		; operator delete
  00024	83 c4 08	 add	 esp, 8
$LN9@scalar:
  00027	8b c6		 mov	 eax, esi
  00029	5e		 pop	 esi
  0002a	5d		 pop	 ebp
  0002b	c2 04 00	 ret	 4
??_GIAbstractApplication@@UAEPAXI@Z ENDP		; IAbstractApplication::`scalar deleting destructor'
_TEXT	ENDS
; Function compile flags: /Ogtp
; File D:\Metin2 Server Files\mainline\SRC_2014\Metin2Client\UserInterface\AbstractApplication.h
; File D:\Metin2 Server Files\mainline\SRC_2014\Metin2Client\UserInterface\AbstractSingleton.h
; File D:\Metin2 Server Files\mainline\SRC_2014\Metin2Client\UserInterface\AbstractApplication.h
;	COMDAT ??1IAbstractApplication@@UAE@XZ
_TEXT	SEGMENT
??1IAbstractApplication@@UAE@XZ PROC			; IAbstractApplication::~IAbstractApplication, COMDAT
; _this$ = ecx
; File D:\Metin2 Server Files\mainline\SRC_2014\Metin2Client\UserInterface\AbstractSingleton.h

; 17   : 	{ 

  00000	c7 01 00 00 00
	00		 mov	 DWORD PTR [ecx], OFFSET ??_7?$TAbstractSingleton@VIAbstractApplication@@@@6B@

; 18   : 		assert(ms_singleton);
; 19   : 		ms_singleton = 0; 

  00006	c7 05 00 00 00
	00 00 00 00 00	 mov	 DWORD PTR ?ms_singleton@?$TAbstractSingleton@VIAbstractApplication@@@@0PAVIAbstractApplication@@A, 0 ; TAbstractSingleton<IAbstractApplication>::ms_singleton
; File D:\Metin2 Server Files\mainline\SRC_2014\Metin2Client\UserInterface\AbstractApplication.h

; 33   : 		virtual ~IAbstractApplication() {}

  00010	c3		 ret	 0
??1IAbstractApplication@@UAE@XZ ENDP			; IAbstractApplication::~IAbstractApplication
_TEXT	ENDS
; Function compile flags: /Ogtp
; File D:\Metin2 Server Files\mainline\SRC_2014\Metin2Client\UserInterface\AbstractSingleton.h
;	COMDAT ??_G?$TAbstractSingleton@VIAbstractApplication@@@@UAEPAXI@Z
_TEXT	SEGMENT
___flags$ = 8						; size = 4
??_G?$TAbstractSingleton@VIAbstractApplication@@@@UAEPAXI@Z PROC ; TAbstractSingleton<IAbstractApplication>::`scalar deleting destructor', COMDAT
; _this$ = ecx
  00000	55		 push	 ebp
  00001	8b ec		 mov	 ebp, esp
  00003	f6 45 08 01	 test	 BYTE PTR ___flags$[ebp], 1

; 17   : 	{ 

  00007	56		 push	 esi
  00008	8b f1		 mov	 esi, ecx
  0000a	c7 06 00 00 00
	00		 mov	 DWORD PTR [esi], OFFSET ??_7?$TAbstractSingleton@VIAbstractApplication@@@@6B@

; 18   : 		assert(ms_singleton);
; 19   : 		ms_singleton = 0; 

  00010	c7 05 00 00 00
	00 00 00 00 00	 mov	 DWORD PTR ?ms_singleton@?$TAbstractSingleton@VIAbstractApplication@@@@0PAVIAbstractApplication@@A, 0 ; TAbstractSingleton<IAbstractApplication>::ms_singleton
  0001a	74 0b		 je	 SHORT $LN6@scalar
  0001c	6a 04		 push	 4
  0001e	56		 push	 esi
  0001f	e8 00 00 00 00	 call	 ??3@YAXPAXI@Z		; operator delete
  00024	83 c4 08	 add	 esp, 8
$LN6@scalar:
  00027	8b c6		 mov	 eax, esi
  00029	5e		 pop	 esi
  0002a	5d		 pop	 ebp
  0002b	c2 04 00	 ret	 4
??_G?$TAbstractSingleton@VIAbstractApplication@@@@UAEPAXI@Z ENDP ; TAbstractSingleton<IAbstractApplication>::`scalar deleting destructor'
_TEXT	ENDS
; Function compile flags: /Ogtp
; File D:\Metin2 Server Files\mainline\SRC_2014\Metin2Client\UserInterface\AbstractSingleton.h
;	COMDAT ??1?$TAbstractSingleton@VIAbstractApplication@@@@UAE@XZ
_TEXT	SEGMENT
??1?$TAbstractSingleton@VIAbstractApplication@@@@UAE@XZ PROC ; TAbstractSingleton<IAbstractApplication>::~TAbstractSingleton<IAbstractApplication>, COMDAT
; _this$ = ecx

; 17   : 	{ 

  00000	c7 01 00 00 00
	00		 mov	 DWORD PTR [ecx], OFFSET ??_7?$TAbstractSingleton@VIAbstractApplication@@@@6B@

; 18   : 		assert(ms_singleton);
; 19   : 		ms_singleton = 0; 

  00006	c7 05 00 00 00
	00 00 00 00 00	 mov	 DWORD PTR ?ms_singleton@?$TAbstractSingleton@VIAbstractApplication@@@@0PAVIAbstractApplication@@A, 0 ; TAbstractSingleton<IAbstractApplication>::ms_singleton

; 20   : 	}

  00010	c3		 ret	 0
??1?$TAbstractSingleton@VIAbstractApplication@@@@UAE@XZ ENDP ; TAbstractSingleton<IAbstractApplication>::~TAbstractSingleton<IAbstractApplication>
_TEXT	ENDS
; Function compile flags: /Ogtp
; File C:\Program Files (x86)\Microsoft Visual Studio\2019\Community\VC\Tools\MSVC\14.28.29333\include\xmemory
;	COMDAT ??$_Allocate_manually_vector_aligned@U_Default_allocate_traits@std@@@std@@YAPAXI@Z
_TEXT	SEGMENT
__Bytes$ = 8						; size = 4
??$_Allocate_manually_vector_aligned@U_Default_allocate_traits@std@@@std@@YAPAXI@Z PROC ; std::_Allocate_manually_vector_aligned<std::_Default_allocate_traits>, COMDAT

; 113  : __declspec(allocator) void* _Allocate_manually_vector_aligned(const size_t _Bytes) {

  00000	55		 push	 ebp
  00001	8b ec		 mov	 ebp, esp

; 114  :     // allocate _Bytes manually aligned to at least _Big_allocation_alignment
; 115  :     const size_t _Block_size = _Non_user_size + _Bytes;

  00003	8b 45 08	 mov	 eax, DWORD PTR __Bytes$[ebp]
  00006	8d 48 23	 lea	 ecx, DWORD PTR [eax+35]

; 116  :     if (_Block_size <= _Bytes) {

  00009	3b c8		 cmp	 ecx, eax
  0000b	0f 86 00 00 00
	00		 jbe	 ?_Throw_bad_array_new_length@std@@YAXXZ ; std::_Throw_bad_array_new_length

; 77   :         return ::operator new(_Bytes);

  00011	51		 push	 ecx
  00012	e8 00 00 00 00	 call	 ??2@YAPAXI@Z		; operator new

; 117  :         _Throw_bad_array_new_length(); // add overflow
; 118  :     }
; 119  : 
; 120  :     const uintptr_t _Ptr_container = reinterpret_cast<uintptr_t>(_Traits::_Allocate(_Block_size));

  00017	8b c8		 mov	 ecx, eax

; 77   :         return ::operator new(_Bytes);

  00019	83 c4 04	 add	 esp, 4

; 121  :     _STL_VERIFY(_Ptr_container != 0, "invalid argument"); // validate even in release since we're doing p[-1]

  0001c	85 c9		 test	 ecx, ecx
  0001e	74 0b		 je	 SHORT $LN7@Allocate_m

; 122  :     void* const _Ptr = reinterpret_cast<void*>((_Ptr_container + _Non_user_size) & ~(_Big_allocation_alignment - 1));

  00020	8d 41 23	 lea	 eax, DWORD PTR [ecx+35]
  00023	83 e0 e0	 and	 eax, -32		; ffffffe0H

; 123  :     static_cast<uintptr_t*>(_Ptr)[-1] = _Ptr_container;

  00026	89 48 fc	 mov	 DWORD PTR [eax-4], ecx

; 124  : 
; 125  : #ifdef _DEBUG
; 126  :     static_cast<uintptr_t*>(_Ptr)[-2] = _Big_allocation_sentinel;
; 127  : #endif // _DEBUG
; 128  :     return _Ptr;
; 129  : }

  00029	5d		 pop	 ebp
  0002a	c3		 ret	 0
$LN7@Allocate_m:

; 121  :     _STL_VERIFY(_Ptr_container != 0, "invalid argument"); // validate even in release since we're doing p[-1]

  0002b	e9 00 00 00 00	 jmp	 __invalid_parameter_noinfo_noreturn
??$_Allocate_manually_vector_aligned@U_Default_allocate_traits@std@@@std@@YAPAXI@Z ENDP ; std::_Allocate_manually_vector_aligned<std::_Default_allocate_traits>
_TEXT	ENDS
; Function compile flags: /Ogtp
; File C:\Program Files (x86)\Microsoft Visual Studio\2019\Community\VC\Tools\MSVC\14.28.29333\include\xmemory
;	COMDAT ??$_Allocate@$07U_Default_allocate_traits@std@@$0A@@std@@YAPAXI@Z
_TEXT	SEGMENT
__Bytes$ = 8						; size = 4
??$_Allocate@$07U_Default_allocate_traits@std@@$0A@@std@@YAPAXI@Z PROC ; std::_Allocate<8,std::_Default_allocate_traits,0>, COMDAT

; 197  : __declspec(allocator) void* _Allocate(const size_t _Bytes) {

  00000	55		 push	 ebp
  00001	8b ec		 mov	 ebp, esp

; 198  :     // allocate _Bytes when !_HAS_ALIGNED_NEW || _Align <= __STDCPP_DEFAULT_NEW_ALIGNMENT__
; 199  : #if defined(_M_IX86) || defined(_M_X64)
; 200  :     if (_Bytes >= _Big_allocation_threshold) { // boost the alignment of big allocations to help autovectorization

  00003	8b 45 08	 mov	 eax, DWORD PTR __Bytes$[ebp]
  00006	3d 00 10 00 00	 cmp	 eax, 4096		; 00001000H
  0000b	72 09		 jb	 SHORT $LN2@Allocate

; 201  :         return _Allocate_manually_vector_aligned<_Traits>(_Bytes);

  0000d	89 45 08	 mov	 DWORD PTR __Bytes$[ebp], eax

; 210  : }

  00010	5d		 pop	 ebp

; 201  :         return _Allocate_manually_vector_aligned<_Traits>(_Bytes);

  00011	e9 00 00 00 00	 jmp	 ??$_Allocate_manually_vector_aligned@U_Default_allocate_traits@std@@@std@@YAPAXI@Z ; std::_Allocate_manually_vector_aligned<std::_Default_allocate_traits>
$LN2@Allocate:

; 202  :     }
; 203  : #endif // defined(_M_IX86) || defined(_M_X64)
; 204  : 
; 205  :     if (_Bytes != 0) {

  00016	85 c0		 test	 eax, eax
  00018	74 09		 je	 SHORT $LN3@Allocate

; 77   :         return ::operator new(_Bytes);

  0001a	89 45 08	 mov	 DWORD PTR __Bytes$[ebp], eax

; 210  : }

  0001d	5d		 pop	 ebp

; 77   :         return ::operator new(_Bytes);

  0001e	e9 00 00 00 00	 jmp	 ??2@YAPAXI@Z		; operator new
$LN3@Allocate:

; 206  :         return _Traits::_Allocate(_Bytes);
; 207  :     }
; 208  : 
; 209  :     return nullptr;

  00023	33 c0		 xor	 eax, eax

; 210  : }

  00025	5d		 pop	 ebp
  00026	c3		 ret	 0
??$_Allocate@$07U_Default_allocate_traits@std@@$0A@@std@@YAPAXI@Z ENDP ; std::_Allocate<8,std::_Default_allocate_traits,0>
_TEXT	ENDS
; Function compile flags: /Ogtp
; File C:\Program Files (x86)\Microsoft Visual Studio\2019\Community\VC\Tools\MSVC\14.28.29333\include\xmemory
;	COMDAT ??$_Deallocate@$07$0A@@std@@YAXPAXI@Z
_TEXT	SEGMENT
__Ptr$ = 8						; size = 4
__Bytes$ = 12						; size = 4
??$_Deallocate@$07$0A@@std@@YAXPAXI@Z PROC		; std::_Deallocate<8,0>, COMDAT

; 213  : void _Deallocate(void* _Ptr, size_t _Bytes) noexcept {

  00000	55		 push	 ebp
  00001	8b ec		 mov	 ebp, esp

; 214  :     // deallocate storage allocated by _Allocate when !_HAS_ALIGNED_NEW || _Align <= __STDCPP_DEFAULT_NEW_ALIGNMENT__
; 215  : #if defined(_M_IX86) || defined(_M_X64)
; 216  :     if (_Bytes >= _Big_allocation_threshold) { // boost the alignment of big allocations to help autovectorization

  00003	8b 4d 0c	 mov	 ecx, DWORD PTR __Bytes$[ebp]
  00006	81 f9 00 10 00
	00		 cmp	 ecx, 4096		; 00001000H
  0000c	72 18		 jb	 SHORT $LN15@Deallocate

; 137  :     const uintptr_t _Ptr_container   = _Ptr_user[-1];

  0000e	8b 45 08	 mov	 eax, DWORD PTR __Ptr$[ebp]
  00011	83 c1 23	 add	 ecx, 35			; 00000023H
  00014	8b 50 fc	 mov	 edx, DWORD PTR [eax-4]

; 138  : 
; 139  :     // If the following asserts, it likely means that we are performing
; 140  :     // an aligned delete on memory coming from an unaligned allocation.
; 141  :     _STL_ASSERT(_Ptr_user[-2] == _Big_allocation_sentinel, "invalid argument");
; 142  : 
; 143  :     // Extra paranoia on aligned allocation/deallocation; ensure _Ptr_container is
; 144  :     // in range [_Min_back_shift, _Non_user_size]
; 145  : #ifdef _DEBUG
; 146  :     constexpr uintptr_t _Min_back_shift = 2 * sizeof(void*);
; 147  : #else // ^^^ _DEBUG ^^^ // vvv !_DEBUG vvv
; 148  :     constexpr uintptr_t _Min_back_shift = sizeof(void*);
; 149  : #endif // _DEBUG
; 150  :     const uintptr_t _Back_shift = reinterpret_cast<uintptr_t>(_Ptr) - _Ptr_container;

  00017	2b c2		 sub	 eax, edx

; 151  :     _STL_VERIFY(_Back_shift >= _Min_back_shift && _Back_shift <= _Non_user_size, "invalid argument");

  00019	83 c0 fc	 add	 eax, -4			; fffffffcH
  0001c	83 f8 1f	 cmp	 eax, 31			; 0000001fH
  0001f	76 08		 jbe	 SHORT $LN13@Deallocate
  00021	e9 00 00 00 00	 jmp	 __invalid_parameter_noinfo_noreturn
$LN15@Deallocate:

; 214  :     // deallocate storage allocated by _Allocate when !_HAS_ALIGNED_NEW || _Align <= __STDCPP_DEFAULT_NEW_ALIGNMENT__
; 215  : #if defined(_M_IX86) || defined(_M_X64)
; 216  :     if (_Bytes >= _Big_allocation_threshold) { // boost the alignment of big allocations to help autovectorization

  00026	8b 55 08	 mov	 edx, DWORD PTR __Ptr$[ebp]
$LN13@Deallocate:

; 217  :         _Adjust_manually_vector_aligned(_Ptr, _Bytes);
; 218  :     }
; 219  : #endif // defined(_M_IX86) || defined(_M_X64)
; 220  : 
; 221  :     ::operator delete(_Ptr, _Bytes);

  00029	89 4d 0c	 mov	 DWORD PTR __Bytes$[ebp], ecx
  0002c	89 55 08	 mov	 DWORD PTR __Ptr$[ebp], edx

; 222  : }

  0002f	5d		 pop	 ebp

; 217  :         _Adjust_manually_vector_aligned(_Ptr, _Bytes);
; 218  :     }
; 219  : #endif // defined(_M_IX86) || defined(_M_X64)
; 220  : 
; 221  :     ::operator delete(_Ptr, _Bytes);

  00030	e9 00 00 00 00	 jmp	 ??3@YAXPAXI@Z		; operator delete
??$_Deallocate@$07$0A@@std@@YAXPAXI@Z ENDP		; std::_Deallocate<8,0>
_TEXT	ENDS
; Function compile flags: /Ogtp
; File C:\Program Files (x86)\Microsoft Visual Studio\2019\Community\VC\Tools\MSVC\14.28.29333\include\xmemory
;	COMDAT ??$_Construct_in_place@PADABQAD@std@@YAXAAPADABQAD@Z
_TEXT	SEGMENT
__Obj$ = 8						; size = 4
_<_Args_0>$ = 12					; size = 4
??$_Construct_in_place@PADABQAD@std@@YAXAAPADABQAD@Z PROC ; std::_Construct_in_place<char *,char * const &>, COMDAT

; 228  : void _Construct_in_place(_Ty& _Obj, _Types&&... _Args) noexcept(is_nothrow_constructible_v<_Ty, _Types...>) {

  00000	55		 push	 ebp
  00001	8b ec		 mov	 ebp, esp

; 229  :     ::new (const_cast<void*>(static_cast<const volatile void*>(_STD addressof(_Obj))))

  00003	8b 45 0c	 mov	 eax, DWORD PTR _<_Args_0>$[ebp]
  00006	8b 08		 mov	 ecx, DWORD PTR [eax]
  00008	8b 45 08	 mov	 eax, DWORD PTR __Obj$[ebp]
  0000b	89 08		 mov	 DWORD PTR [eax], ecx

; 230  :         _Ty(_STD forward<_Types>(_Args)...);
; 231  : }

  0000d	5d		 pop	 ebp
  0000e	c3		 ret	 0
??$_Construct_in_place@PADABQAD@std@@YAXAAPADABQAD@Z ENDP ; std::_Construct_in_place<char *,char * const &>
_TEXT	ENDS
; Function compile flags: /Ogtp
; File C:\Program Files (x86)\Microsoft Visual Studio\2019\Community\VC\Tools\MSVC\14.28.29333\include\xmemory
;	COMDAT ??$_Destroy_in_place@PAD@std@@YAXAAPAD@Z
_TEXT	SEGMENT
__Obj$ = 8						; size = 4
??$_Destroy_in_place@PAD@std@@YAXAAPAD@Z PROC		; std::_Destroy_in_place<char *>, COMDAT

; 271  : #if _HAS_IF_CONSTEXPR
; 272  :     if constexpr (is_array_v<_Ty>) {
; 273  :         _Destroy_range(_Obj, _Obj + extent_v<_Ty>);
; 274  :     } else
; 275  : #endif // _HAS_IF_CONSTEXPR
; 276  :     {
; 277  :         _Obj.~_Ty();
; 278  :     }
; 279  : }

  00000	c2 00 00	 ret	 0
??$_Destroy_in_place@PAD@std@@YAXAAPAD@Z ENDP		; std::_Destroy_in_place<char *>
_TEXT	ENDS
; Function compile flags: /Ogtp
; File C:\Program Files (x86)\Microsoft Visual Studio\2019\Community\VC\Tools\MSVC\14.28.29333\include\xstring
; File C:\Program Files (x86)\Microsoft Visual Studio\2019\Community\VC\Tools\MSVC\14.28.29333\include\utility
; File C:\Program Files (x86)\Microsoft Visual Studio\2019\Community\VC\Tools\MSVC\14.28.29333\include\xstring
; File C:\Program Files (x86)\Microsoft Visual Studio\2019\Community\VC\Tools\MSVC\14.28.29333\include\xmemory
; File C:\Program Files (x86)\Microsoft Visual Studio\2019\Community\VC\Tools\MSVC\14.28.29333\include\xstring
; File C:\Program Files (x86)\Microsoft Visual Studio\2019\Community\VC\Tools\MSVC\14.28.29333\include\xmemory
; File C:\Program Files (x86)\Microsoft Visual Studio\2019\Community\VC\Tools\MSVC\14.28.29333\include\xstring
;	COMDAT ?assign@?$basic_string@DU?$char_traits@D@std@@V?$allocator@D@2@@std@@QAEAAV12@QBDI@Z
_TEXT	SEGMENT
__Old$1$ = -4						; size = 4
__Ptr$ = 8						; size = 4
__New_ptr$1 = 12					; size = 4
__Count$ = 12						; size = 4
?assign@?$basic_string@DU?$char_traits@D@std@@V?$allocator@D@2@@std@@QAEAAV12@QBDI@Z PROC ; std::basic_string<char,std::char_traits<char>,std::allocator<char> >::assign, COMDAT
; _this$ = ecx

; 3042 :     basic_string& assign(_In_reads_(_Count) const _Elem* const _Ptr, _CRT_GUARDOVERFLOW const size_type _Count) {

  00000	55		 push	 ebp
  00001	8b ec		 mov	 ebp, esp
  00003	51		 push	 ecx
  00004	53		 push	 ebx
  00005	56		 push	 esi
  00006	8b f1		 mov	 esi, ecx
  00008	57		 push	 edi

; 3043 :         // assign [_Ptr, _Ptr + _Count)
; 3044 :         if (_Count <= _Mypair._Myval2._Myres) {

  00009	8b 7d 0c	 mov	 edi, DWORD PTR __Count$[ebp]
  0000c	8b 4e 14	 mov	 ecx, DWORD PTR [esi+20]
  0000f	89 4d fc	 mov	 DWORD PTR __Old$1$[ebp], ecx
  00012	3b f9		 cmp	 edi, ecx
  00014	77 28		 ja	 SHORT $LN2@assign

; 2209 :         value_type* _Result = _Bx._Buf;

  00016	8b de		 mov	 ebx, esi

; 2227 :         return _BUF_SIZE <= _Myres;

  00018	83 f9 10	 cmp	 ecx, 16			; 00000010H

; 2210 :         if (_Large_string_engaged()) {

  0001b	72 02		 jb	 SHORT $LN5@assign

; 2211 :             _Result = _Unfancy(_Bx._Ptr);

  0001d	8b 1e		 mov	 ebx, DWORD PTR [esi]
$LN5@assign:

; 119  :         _CSTD memmove(_First1, _First2, _Count * sizeof(_Elem));

  0001f	57		 push	 edi
  00020	ff 75 08	 push	 DWORD PTR __Ptr$[ebp]

; 3045 :             _Elem* const _Old_ptr   = _Mypair._Myval2._Myptr();
; 3046 :             _Mypair._Myval2._Mysize = _Count;

  00023	89 7e 10	 mov	 DWORD PTR [esi+16], edi

; 119  :         _CSTD memmove(_First1, _First2, _Count * sizeof(_Elem));

  00026	53		 push	 ebx
  00027	e8 00 00 00 00	 call	 _memmove
  0002c	83 c4 0c	 add	 esp, 12			; 0000000cH

; 3047 :             _Traits::move(_Old_ptr, _Ptr, _Count);
; 3048 :             _Traits::assign(_Old_ptr[_Count], _Elem());

  0002f	c6 04 3b 00	 mov	 BYTE PTR [ebx+edi], 0

; 3059 :     }

  00033	8b c6		 mov	 eax, esi
  00035	5f		 pop	 edi
  00036	5e		 pop	 esi
  00037	5b		 pop	 ebx
  00038	8b e5		 mov	 esp, ebp
  0003a	5d		 pop	 ebp
  0003b	c2 08 00	 ret	 8
$LN2@assign:

; 4305 :         if (_New_size > max_size()) {

  0003e	81 ff ff ff ff
	7f		 cmp	 edi, 2147483647		; 7fffffffH
  00044	0f 87 91 00 00
	00		 ja	 $LN36@assign

; 4285 :         const size_type _Masked = _Requested | _ALLOC_MASK;

  0004a	8b df		 mov	 ebx, edi
  0004c	83 cb 0f	 or	 ebx, 15			; 0000000fH
  0004f	81 fb ff ff ff
	7f		 cmp	 ebx, 2147483647		; 7fffffffH

; 4286 :         if (_Masked > _Max) { // the mask overflows, settle for max_size()

  00055	76 07		 jbe	 SHORT $LN19@assign

; 4287 :             return _Max;

  00057	bb ff ff ff 7f	 mov	 ebx, 2147483647		; 7fffffffH
  0005c	eb 1e		 jmp	 SHORT $LN18@assign
$LN19@assign:

; 4288 :         }
; 4289 : 
; 4290 :         if (_Old > _Max - _Old / 2) { // similarly, geometric overflows

  0005e	8b d1		 mov	 edx, ecx
  00060	b8 ff ff ff 7f	 mov	 eax, 2147483647		; 7fffffffH
  00065	d1 ea		 shr	 edx, 1
  00067	2b c2		 sub	 eax, edx
  00069	3b c8		 cmp	 ecx, eax
  0006b	76 07		 jbe	 SHORT $LN20@assign

; 4291 :             return _Max;

  0006d	bb ff ff ff 7f	 mov	 ebx, 2147483647		; 7fffffffH
  00072	eb 08		 jmp	 SHORT $LN18@assign
$LN20@assign:

; 4292 :         }
; 4293 : 
; 4294 :         return (_STD max)(_Masked, _Old + _Old / 2);

  00074	8d 04 0a	 lea	 eax, DWORD PTR [edx+ecx]
; File C:\Program Files (x86)\Microsoft Visual Studio\2019\Community\VC\Tools\MSVC\14.28.29333\include\utility

; 44   :     return _Left < _Right ? _Right : _Left;

  00077	3b d8		 cmp	 ebx, eax
  00079	0f 42 d8	 cmovb	 ebx, eax
$LN18@assign:
; File C:\Program Files (x86)\Microsoft Visual Studio\2019\Community\VC\Tools\MSVC\14.28.29333\include\xstring

; 4312 :         const pointer _New_ptr        = _Al.allocate(_New_capacity + 1); // throws

  0007c	8d 43 01	 lea	 eax, DWORD PTR [ebx+1]
; File C:\Program Files (x86)\Microsoft Visual Studio\2019\Community\VC\Tools\MSVC\14.28.29333\include\xmemory

; 814  :         return static_cast<_Ty*>(_Allocate<_New_alignof<_Ty>>(_Get_size_of_n<sizeof(_Ty)>(_Count)));

  0007f	50		 push	 eax
  00080	e8 00 00 00 00	 call	 ??$_Allocate@$07U_Default_allocate_traits@std@@$0A@@std@@YAPAXI@Z ; std::_Allocate<8,std::_Default_allocate_traits,0>
; File C:\Program Files (x86)\Microsoft Visual Studio\2019\Community\VC\Tools\MSVC\14.28.29333\include\xstring

; 62   :         _CSTD memcpy(_First1, _First2, _Count * sizeof(_Elem));

  00085	57		 push	 edi
  00086	ff 75 08	 push	 DWORD PTR __Ptr$[ebp]

; 4312 :         const pointer _New_ptr        = _Al.allocate(_New_capacity + 1); // throws

  00089	89 45 0c	 mov	 DWORD PTR __New_ptr$1[ebp], eax

; 62   :         _CSTD memcpy(_First1, _First2, _Count * sizeof(_Elem));

  0008c	50		 push	 eax

; 4314 :         _Mypair._Myval2._Mysize = _New_size;

  0008d	89 7e 10	 mov	 DWORD PTR [esi+16], edi

; 4315 :         _Mypair._Myval2._Myres  = _New_capacity;

  00090	89 5e 14	 mov	 DWORD PTR [esi+20], ebx

; 62   :         _CSTD memcpy(_First1, _First2, _Count * sizeof(_Elem));

  00093	e8 00 00 00 00	 call	 _memcpy

; 3056 :                 _Traits::assign(_New_ptr[_Count], _Elem());

  00098	8b 5d 0c	 mov	 ebx, DWORD PTR __New_ptr$1[ebp]

; 62   :         _CSTD memcpy(_First1, _First2, _Count * sizeof(_Elem));

  0009b	83 c4 10	 add	 esp, 16			; 00000010H

; 4317 :         if (_BUF_SIZE <= _Old_capacity) {

  0009e	8b 45 fc	 mov	 eax, DWORD PTR __Old$1$[ebp]

; 3056 :                 _Traits::assign(_New_ptr[_Count], _Elem());

  000a1	c6 04 3b 00	 mov	 BYTE PTR [ebx+edi], 0

; 4317 :         if (_BUF_SIZE <= _Old_capacity) {

  000a5	83 f8 10	 cmp	 eax, 16			; 00000010H
  000a8	72 19		 jb	 SHORT $LN13@assign

; 4318 :             _Al.deallocate(_Mypair._Myval2._Bx._Ptr, _Old_capacity + 1);

  000aa	40		 inc	 eax
; File C:\Program Files (x86)\Microsoft Visual Studio\2019\Community\VC\Tools\MSVC\14.28.29333\include\xmemory

; 810  :         _Deallocate<_New_alignof<_Ty>>(_Ptr, sizeof(_Ty) * _Count);

  000ab	50		 push	 eax
  000ac	ff 36		 push	 DWORD PTR [esi]
  000ae	e8 00 00 00 00	 call	 ??$_Deallocate@$07$0A@@std@@YAXPAXI@Z ; std::_Deallocate<8,0>
; File C:\Program Files (x86)\Microsoft Visual Studio\2019\Community\VC\Tools\MSVC\14.28.29333\include\xstring

; 3059 :     }

  000b3	83 c4 08	 add	 esp, 8

; 4319 :             _Mypair._Myval2._Bx._Ptr = _New_ptr;

  000b6	89 1e		 mov	 DWORD PTR [esi], ebx

; 3059 :     }

  000b8	8b c6		 mov	 eax, esi
  000ba	5f		 pop	 edi
  000bb	5e		 pop	 esi
  000bc	5b		 pop	 ebx
  000bd	8b e5		 mov	 esp, ebp
  000bf	5d		 pop	 ebp
  000c0	c2 08 00	 ret	 8
$LN13@assign:

; 4321 :             _Construct_in_place(_Mypair._Myval2._Bx._Ptr, _New_ptr);

  000c3	8d 45 0c	 lea	 eax, DWORD PTR __New_ptr$1[ebp]
  000c6	50		 push	 eax
  000c7	56		 push	 esi
  000c8	e8 00 00 00 00	 call	 ??$_Construct_in_place@PADABQAD@std@@YAXAAPADABQAD@Z ; std::_Construct_in_place<char *,char * const &>

; 3059 :     }

  000cd	83 c4 08	 add	 esp, 8
  000d0	8b c6		 mov	 eax, esi
  000d2	5f		 pop	 edi
  000d3	5e		 pop	 esi
  000d4	5b		 pop	 ebx
  000d5	8b e5		 mov	 esp, ebp
  000d7	5d		 pop	 ebp
  000d8	c2 08 00	 ret	 8
$LN36@assign:

; 4306 :             _Xlen_string(); // result too long

  000db	e8 00 00 00 00	 call	 ?_Xlen_string@std@@YAXXZ ; std::_Xlen_string
$LN33@assign:
  000e0	cc		 int	 3
?assign@?$basic_string@DU?$char_traits@D@std@@V?$allocator@D@2@@std@@QAEAAV12@QBDI@Z ENDP ; std::basic_string<char,std::char_traits<char>,std::allocator<char> >::assign
_TEXT	ENDS
; Function compile flags: /Ogtp
; File C:\Program Files (x86)\Microsoft Visual Studio\2019\Community\VC\Tools\MSVC\14.28.29333\include\xstring
; File C:\Program Files (x86)\Microsoft Visual Studio\2019\Community\VC\Tools\MSVC\14.28.29333\include\xmemory
; File C:\Program Files (x86)\Microsoft Visual Studio\2019\Community\VC\Tools\MSVC\14.28.29333\include\xstring
;	COMDAT ??1?$basic_string@DU?$char_traits@D@std@@V?$allocator@D@2@@std@@QAE@XZ
_TEXT	SEGMENT
??1?$basic_string@DU?$char_traits@D@std@@V?$allocator@D@2@@std@@QAE@XZ PROC ; std::basic_string<char,std::char_traits<char>,std::allocator<char> >::~basic_string<char,std::char_traits<char>,std::allocator<char> >, COMDAT
; _this$ = ecx

; 2800 :     ~basic_string() noexcept {

  00000	56		 push	 esi
  00001	8b f1		 mov	 esi, ecx

; 2227 :         return _BUF_SIZE <= _Myres;

  00003	8b 46 14	 mov	 eax, DWORD PTR [esi+20]
  00006	83 f8 10	 cmp	 eax, 16			; 00000010H

; 4385 :         if (_Mypair._Myval2._Large_string_engaged()) {

  00009	72 0c		 jb	 SHORT $LN4@basic_stri

; 4386 :             const pointer _Ptr = _Mypair._Myval2._Bx._Ptr;
; 4387 :             auto& _Al          = _Getal();
; 4388 :             _Destroy_in_place(_Mypair._Myval2._Bx._Ptr);
; 4389 :             _Al.deallocate(_Ptr, _Mypair._Myval2._Myres + 1);

  0000b	40		 inc	 eax
; File C:\Program Files (x86)\Microsoft Visual Studio\2019\Community\VC\Tools\MSVC\14.28.29333\include\xmemory

; 810  :         _Deallocate<_New_alignof<_Ty>>(_Ptr, sizeof(_Ty) * _Count);

  0000c	50		 push	 eax
  0000d	ff 36		 push	 DWORD PTR [esi]
  0000f	e8 00 00 00 00	 call	 ??$_Deallocate@$07$0A@@std@@YAXPAXI@Z ; std::_Deallocate<8,0>
  00014	83 c4 08	 add	 esp, 8
$LN4@basic_stri:
; File C:\Program Files (x86)\Microsoft Visual Studio\2019\Community\VC\Tools\MSVC\14.28.29333\include\xstring

; 4392 :         _Mypair._Myval2._Mysize = 0;

  00017	c7 46 10 00 00
	00 00		 mov	 DWORD PTR [esi+16], 0

; 4393 :         _Mypair._Myval2._Myres  = _BUF_SIZE - 1;

  0001e	c7 46 14 0f 00
	00 00		 mov	 DWORD PTR [esi+20], 15	; 0000000fH

; 4394 :         // the _Traits::assign is last so the codegen doesn't think the char write can alias this
; 4395 :         _Traits::assign(_Mypair._Myval2._Bx._Buf[0], _Elem());

  00025	c6 06 00	 mov	 BYTE PTR [esi], 0
  00028	5e		 pop	 esi

; 2801 :         _Tidy_deallocate();
; 2802 : #if _ITERATOR_DEBUG_LEVEL != 0
; 2803 :         auto&& _Alproxy          = _GET_PROXY_ALLOCATOR(_Alty, _Getal());
; 2804 :         const auto _To_delete    = _Mypair._Myval2._Myproxy;
; 2805 :         _Mypair._Myval2._Myproxy = nullptr;
; 2806 :         _Delete_plain_internal(_Alproxy, _To_delete);
; 2807 : #endif // _ITERATOR_DEBUG_LEVEL != 0
; 2808 :     }

  00029	c3		 ret	 0
??1?$basic_string@DU?$char_traits@D@std@@V?$allocator@D@2@@std@@QAE@XZ ENDP ; std::basic_string<char,std::char_traits<char>,std::allocator<char> >::~basic_string<char,std::char_traits<char>,std::allocator<char> >
_TEXT	ENDS
; Function compile flags: /Ogtp
; File C:\Program Files (x86)\Microsoft Visual Studio\2019\Community\VC\Tools\MSVC\14.28.29333\include\xstring
;	COMDAT ?_Xlen_string@std@@YAXXZ
_TEXT	SEGMENT
?_Xlen_string@std@@YAXXZ PROC				; std::_Xlen_string, COMDAT

; 2275 :     _Xlength_error("string too long");

  00000	68 00 00 00 00	 push	 OFFSET ??_C@_0BA@JFNIOLAK@string?5too?5long@
  00005	e8 00 00 00 00	 call	 ?_Xlength_error@std@@YAXPBD@Z ; std::_Xlength_error
$LN3@Xlen_strin:
  0000a	cc		 int	 3
?_Xlen_string@std@@YAXXZ ENDP				; std::_Xlen_string
_TEXT	ENDS
; Function compile flags: /Ogtp
; File C:\Program Files (x86)\Microsoft Visual Studio\2019\Community\VC\Tools\MSVC\14.28.29333\include\exception
;	COMDAT ?_Throw_bad_array_new_length@std@@YAXXZ
_TEXT	SEGMENT
$T1 = -12						; size = 12
?_Throw_bad_array_new_length@std@@YAXXZ PROC		; std::_Throw_bad_array_new_length, COMDAT

; 320  : [[noreturn]] inline void _Throw_bad_array_new_length() {

  00000	55		 push	 ebp
  00001	8b ec		 mov	 ebp, esp
  00003	83 ec 0c	 sub	 esp, 12			; 0000000cH

; 321  :     _THROW(bad_array_new_length{});

  00006	8d 4d f4	 lea	 ecx, DWORD PTR $T1[ebp]
  00009	e8 00 00 00 00	 call	 ??0bad_array_new_length@std@@QAE@XZ ; std::bad_array_new_length::bad_array_new_length
  0000e	68 00 00 00 00	 push	 OFFSET __TI3?AVbad_array_new_length@std@@
  00013	8d 45 f4	 lea	 eax, DWORD PTR $T1[ebp]
  00016	50		 push	 eax
  00017	e8 00 00 00 00	 call	 __CxxThrowException@8
$LN3@Throw_bad_:
  0001c	cc		 int	 3
?_Throw_bad_array_new_length@std@@YAXXZ ENDP		; std::_Throw_bad_array_new_length
_TEXT	ENDS
; Function compile flags: /Ogtp
; File C:\Program Files (x86)\Microsoft Visual Studio\2019\Community\VC\Tools\MSVC\14.28.29333\include\vcruntime_exception.h
;	COMDAT ??_Gbad_array_new_length@std@@UAEPAXI@Z
_TEXT	SEGMENT
___flags$ = 8						; size = 4
??_Gbad_array_new_length@std@@UAEPAXI@Z PROC		; std::bad_array_new_length::`scalar deleting destructor', COMDAT
; _this$ = ecx
  00000	55		 push	 ebp
  00001	8b ec		 mov	 ebp, esp

; 89   :     {

  00003	56		 push	 esi
  00004	8b f1		 mov	 esi, ecx

; 90   :         __std_exception_destroy(&_Data);

  00006	8d 46 04	 lea	 eax, DWORD PTR [esi+4]
  00009	c7 06 00 00 00
	00		 mov	 DWORD PTR [esi], OFFSET ??_7exception@std@@6B@
  0000f	50		 push	 eax
  00010	e8 00 00 00 00	 call	 ___std_exception_destroy
  00015	83 c4 04	 add	 esp, 4
  00018	f6 45 08 01	 test	 BYTE PTR ___flags$[ebp], 1
  0001c	74 0b		 je	 SHORT $LN12@scalar
  0001e	6a 0c		 push	 12			; 0000000cH
  00020	56		 push	 esi
  00021	e8 00 00 00 00	 call	 ??3@YAXPAXI@Z		; operator delete
  00026	83 c4 08	 add	 esp, 8
$LN12@scalar:
  00029	8b c6		 mov	 eax, esi
  0002b	5e		 pop	 esi
  0002c	5d		 pop	 ebp
  0002d	c2 04 00	 ret	 4
??_Gbad_array_new_length@std@@UAEPAXI@Z ENDP		; std::bad_array_new_length::`scalar deleting destructor'
_TEXT	ENDS
; Function compile flags: /Ogtp
; File C:\Program Files (x86)\Microsoft Visual Studio\2019\Community\VC\Tools\MSVC\14.28.29333\include\vcruntime_exception.h
;	COMDAT ??0bad_array_new_length@std@@QAE@ABV01@@Z
_TEXT	SEGMENT
___that$ = 8						; size = 4
??0bad_array_new_length@std@@QAE@ABV01@@Z PROC		; std::bad_array_new_length::bad_array_new_length, COMDAT
; _this$ = ecx
  00000	55		 push	 ebp
  00001	8b ec		 mov	 ebp, esp

; 72   :     {

  00003	56		 push	 esi
  00004	8b f1		 mov	 esi, ecx
  00006	0f 57 c0	 xorps	 xmm0, xmm0

; 71   :         : _Data()

  00009	8d 46 04	 lea	 eax, DWORD PTR [esi+4]

; 73   :         __std_exception_copy(&_Other._Data, &_Data);

  0000c	50		 push	 eax
  0000d	c7 06 00 00 00
	00		 mov	 DWORD PTR [esi], OFFSET ??_7exception@std@@6B@
  00013	66 0f d6 00	 movq	 QWORD PTR [eax], xmm0
  00017	8b 45 08	 mov	 eax, DWORD PTR ___that$[ebp]
  0001a	83 c0 04	 add	 eax, 4
  0001d	50		 push	 eax
  0001e	e8 00 00 00 00	 call	 ___std_exception_copy
  00023	83 c4 08	 add	 esp, 8
  00026	c7 06 00 00 00
	00		 mov	 DWORD PTR [esi], OFFSET ??_7bad_array_new_length@std@@6B@
  0002c	8b c6		 mov	 eax, esi
  0002e	5e		 pop	 esi
  0002f	5d		 pop	 ebp
  00030	c2 04 00	 ret	 4
??0bad_array_new_length@std@@QAE@ABV01@@Z ENDP		; std::bad_array_new_length::bad_array_new_length
_TEXT	ENDS
; Function compile flags: /Ogtp
; File C:\Program Files (x86)\Microsoft Visual Studio\2019\Community\VC\Tools\MSVC\14.28.29333\include\vcruntime_exception.h
;	COMDAT ??1bad_array_new_length@std@@UAE@XZ
_TEXT	SEGMENT
??1bad_array_new_length@std@@UAE@XZ PROC		; std::bad_array_new_length::~bad_array_new_length, COMDAT
; _this$ = ecx

; 90   :         __std_exception_destroy(&_Data);

  00000	8d 41 04	 lea	 eax, DWORD PTR [ecx+4]
  00003	c7 01 00 00 00
	00		 mov	 DWORD PTR [ecx], OFFSET ??_7exception@std@@6B@
  00009	50		 push	 eax
  0000a	e8 00 00 00 00	 call	 ___std_exception_destroy
  0000f	59		 pop	 ecx
  00010	c3		 ret	 0
??1bad_array_new_length@std@@UAE@XZ ENDP		; std::bad_array_new_length::~bad_array_new_length
_TEXT	ENDS
; Function compile flags: /Ogtp
; File C:\Program Files (x86)\Microsoft Visual Studio\2019\Community\VC\Tools\MSVC\14.28.29333\include\vcruntime_exception.h
;	COMDAT ??0bad_array_new_length@std@@QAE@XZ
_TEXT	SEGMENT
??0bad_array_new_length@std@@QAE@XZ PROC		; std::bad_array_new_length::bad_array_new_length, COMDAT
; _this$ = ecx

; 141  :     {

  00000	0f 57 c0	 xorps	 xmm0, xmm0

; 142  :     }

  00003	8b c1		 mov	 eax, ecx

; 65   :         : _Data()

  00005	66 0f d6 41 04	 movq	 QWORD PTR [ecx+4], xmm0

; 66   :     {
; 67   :         _Data._What = _Message;

  0000a	c7 41 04 00 00
	00 00		 mov	 DWORD PTR [ecx+4], OFFSET ??_C@_0BF@KINCDENJ@bad?5array?5new?5length@

; 141  :     {

  00011	c7 01 00 00 00
	00		 mov	 DWORD PTR [ecx], OFFSET ??_7bad_array_new_length@std@@6B@

; 142  :     }

  00017	c3		 ret	 0
??0bad_array_new_length@std@@QAE@XZ ENDP		; std::bad_array_new_length::bad_array_new_length
_TEXT	ENDS
; Function compile flags: /Ogtp
; File C:\Program Files (x86)\Microsoft Visual Studio\2019\Community\VC\Tools\MSVC\14.28.29333\include\vcruntime_exception.h
;	COMDAT ??_Gbad_alloc@std@@UAEPAXI@Z
_TEXT	SEGMENT
___flags$ = 8						; size = 4
??_Gbad_alloc@std@@UAEPAXI@Z PROC			; std::bad_alloc::`scalar deleting destructor', COMDAT
; _this$ = ecx
  00000	55		 push	 ebp
  00001	8b ec		 mov	 ebp, esp

; 89   :     {

  00003	56		 push	 esi
  00004	8b f1		 mov	 esi, ecx

; 90   :         __std_exception_destroy(&_Data);

  00006	8d 46 04	 lea	 eax, DWORD PTR [esi+4]
  00009	c7 06 00 00 00
	00		 mov	 DWORD PTR [esi], OFFSET ??_7exception@std@@6B@
  0000f	50		 push	 eax
  00010	e8 00 00 00 00	 call	 ___std_exception_destroy
  00015	83 c4 04	 add	 esp, 4
  00018	f6 45 08 01	 test	 BYTE PTR ___flags$[ebp], 1
  0001c	74 0b		 je	 SHORT $LN9@scalar
  0001e	6a 0c		 push	 12			; 0000000cH
  00020	56		 push	 esi
  00021	e8 00 00 00 00	 call	 ??3@YAXPAXI@Z		; operator delete
  00026	83 c4 08	 add	 esp, 8
$LN9@scalar:
  00029	8b c6		 mov	 eax, esi
  0002b	5e		 pop	 esi
  0002c	5d		 pop	 ebp
  0002d	c2 04 00	 ret	 4
??_Gbad_alloc@std@@UAEPAXI@Z ENDP			; std::bad_alloc::`scalar deleting destructor'
_TEXT	ENDS
; Function compile flags: /Ogtp
; File C:\Program Files (x86)\Microsoft Visual Studio\2019\Community\VC\Tools\MSVC\14.28.29333\include\vcruntime_exception.h
;	COMDAT ??0bad_alloc@std@@QAE@ABV01@@Z
_TEXT	SEGMENT
___that$ = 8						; size = 4
??0bad_alloc@std@@QAE@ABV01@@Z PROC			; std::bad_alloc::bad_alloc, COMDAT
; _this$ = ecx
  00000	55		 push	 ebp
  00001	8b ec		 mov	 ebp, esp

; 72   :     {

  00003	56		 push	 esi
  00004	8b f1		 mov	 esi, ecx
  00006	0f 57 c0	 xorps	 xmm0, xmm0

; 71   :         : _Data()

  00009	8d 46 04	 lea	 eax, DWORD PTR [esi+4]

; 73   :         __std_exception_copy(&_Other._Data, &_Data);

  0000c	50		 push	 eax
  0000d	c7 06 00 00 00
	00		 mov	 DWORD PTR [esi], OFFSET ??_7exception@std@@6B@
  00013	66 0f d6 00	 movq	 QWORD PTR [eax], xmm0
  00017	8b 45 08	 mov	 eax, DWORD PTR ___that$[ebp]
  0001a	83 c0 04	 add	 eax, 4
  0001d	50		 push	 eax
  0001e	e8 00 00 00 00	 call	 ___std_exception_copy
  00023	83 c4 08	 add	 esp, 8
  00026	c7 06 00 00 00
	00		 mov	 DWORD PTR [esi], OFFSET ??_7bad_alloc@std@@6B@
  0002c	8b c6		 mov	 eax, esi
  0002e	5e		 pop	 esi
  0002f	5d		 pop	 ebp
  00030	c2 04 00	 ret	 4
??0bad_alloc@std@@QAE@ABV01@@Z ENDP			; std::bad_alloc::bad_alloc
_TEXT	ENDS
; Function compile flags: /Ogtp
; File C:\Program Files (x86)\Microsoft Visual Studio\2019\Community\VC\Tools\MSVC\14.28.29333\include\vcruntime_exception.h
;	COMDAT ??_Gexception@std@@UAEPAXI@Z
_TEXT	SEGMENT
___flags$ = 8						; size = 4
??_Gexception@std@@UAEPAXI@Z PROC			; std::exception::`scalar deleting destructor', COMDAT
; _this$ = ecx
  00000	55		 push	 ebp
  00001	8b ec		 mov	 ebp, esp

; 89   :     {

  00003	56		 push	 esi
  00004	8b f1		 mov	 esi, ecx

; 90   :         __std_exception_destroy(&_Data);

  00006	8d 46 04	 lea	 eax, DWORD PTR [esi+4]
  00009	c7 06 00 00 00
	00		 mov	 DWORD PTR [esi], OFFSET ??_7exception@std@@6B@
  0000f	50		 push	 eax
  00010	e8 00 00 00 00	 call	 ___std_exception_destroy
  00015	83 c4 04	 add	 esp, 4
  00018	f6 45 08 01	 test	 BYTE PTR ___flags$[ebp], 1
  0001c	74 0b		 je	 SHORT $LN6@scalar
  0001e	6a 0c		 push	 12			; 0000000cH
  00020	56		 push	 esi
  00021	e8 00 00 00 00	 call	 ??3@YAXPAXI@Z		; operator delete
  00026	83 c4 08	 add	 esp, 8
$LN6@scalar:
  00029	8b c6		 mov	 eax, esi
  0002b	5e		 pop	 esi
  0002c	5d		 pop	 ebp
  0002d	c2 04 00	 ret	 4
??_Gexception@std@@UAEPAXI@Z ENDP			; std::exception::`scalar deleting destructor'
_TEXT	ENDS
; Function compile flags: /Ogtp
; File C:\Program Files (x86)\Microsoft Visual Studio\2019\Community\VC\Tools\MSVC\14.28.29333\include\vcruntime_exception.h
;	COMDAT ?what@exception@std@@UBEPBDXZ
_TEXT	SEGMENT
?what@exception@std@@UBEPBDXZ PROC			; std::exception::what, COMDAT
; _this$ = ecx

; 95   :         return _Data._What ? _Data._What : "Unknown exception";

  00000	8b 49 04	 mov	 ecx, DWORD PTR [ecx+4]
  00003	b8 00 00 00 00	 mov	 eax, OFFSET ??_C@_0BC@EOODALEL@Unknown?5exception@
  00008	85 c9		 test	 ecx, ecx
  0000a	0f 45 c1	 cmovne	 eax, ecx

; 96   :     }

  0000d	c3		 ret	 0
?what@exception@std@@UBEPBDXZ ENDP			; std::exception::what
_TEXT	ENDS
; Function compile flags: /Ogtp
; File C:\Program Files (x86)\Microsoft Visual Studio\2019\Community\VC\Tools\MSVC\14.28.29333\include\vcruntime_exception.h
;	COMDAT ??1exception@std@@UAE@XZ
_TEXT	SEGMENT
??1exception@std@@UAE@XZ PROC				; std::exception::~exception, COMDAT
; _this$ = ecx

; 90   :         __std_exception_destroy(&_Data);

  00000	8d 41 04	 lea	 eax, DWORD PTR [ecx+4]
  00003	c7 01 00 00 00
	00		 mov	 DWORD PTR [ecx], OFFSET ??_7exception@std@@6B@
  00009	50		 push	 eax
  0000a	e8 00 00 00 00	 call	 ___std_exception_destroy
  0000f	59		 pop	 ecx

; 91   :     }

  00010	c3		 ret	 0
??1exception@std@@UAE@XZ ENDP				; std::exception::~exception
_TEXT	ENDS
; Function compile flags: /Ogtp
; File C:\Program Files (x86)\Microsoft Visual Studio\2019\Community\VC\Tools\MSVC\14.28.29333\include\vcruntime_exception.h
;	COMDAT ??0exception@std@@QAE@ABV01@@Z
_TEXT	SEGMENT
__Other$ = 8						; size = 4
??0exception@std@@QAE@ABV01@@Z PROC			; std::exception::exception, COMDAT
; _this$ = ecx

; 72   :     {

  00000	55		 push	 ebp
  00001	8b ec		 mov	 ebp, esp
  00003	56		 push	 esi
  00004	8b f1		 mov	 esi, ecx
  00006	0f 57 c0	 xorps	 xmm0, xmm0
  00009	8d 46 04	 lea	 eax, DWORD PTR [esi+4]

; 73   :         __std_exception_copy(&_Other._Data, &_Data);

  0000c	50		 push	 eax
  0000d	c7 06 00 00 00
	00		 mov	 DWORD PTR [esi], OFFSET ??_7exception@std@@6B@
  00013	66 0f d6 00	 movq	 QWORD PTR [eax], xmm0
  00017	8b 45 08	 mov	 eax, DWORD PTR __Other$[ebp]
  0001a	83 c0 04	 add	 eax, 4
  0001d	50		 push	 eax
  0001e	e8 00 00 00 00	 call	 ___std_exception_copy
  00023	83 c4 08	 add	 esp, 8

; 74   :     }

  00026	8b c6		 mov	 eax, esi
  00028	5e		 pop	 esi
  00029	5d		 pop	 ebp
  0002a	c2 04 00	 ret	 4
??0exception@std@@QAE@ABV01@@Z ENDP			; std::exception::exception
_TEXT	ENDS
; Function compile flags: /Ogtp
; File C:\Program Files (x86)\Windows Kits\10\Include\10.0.18362.0\ucrt\stdio.h
;	COMDAT __snprintf
_TEXT	SEGMENT
__Buffer$ = 8						; size = 4
__BufferCount$ = 12					; size = 4
__Format$ = 16						; size = 4
__snprintf PROC						; COMDAT

; 1969 :     {

  00000	55		 push	 ebp
  00001	8b ec		 mov	 ebp, esp

; 1390 :         int const _Result = __stdio_common_vsprintf(

  00003	8d 45 14	 lea	 eax, DWORD PTR __Format$[ebp+4]
  00006	50		 push	 eax
  00007	6a 00		 push	 0
  00009	ff 75 10	 push	 DWORD PTR __Format$[ebp]
  0000c	ff 75 0c	 push	 DWORD PTR __BufferCount$[ebp]
  0000f	ff 75 08	 push	 DWORD PTR __Buffer$[ebp]
  00012	e8 00 00 00 00	 call	 ___local_stdio_printf_options
  00017	8b 08		 mov	 ecx, DWORD PTR [eax]
  00019	ff 70 04	 push	 DWORD PTR [eax+4]
  0001c	83 c9 01	 or	 ecx, 1
  0001f	51		 push	 ecx
  00020	e8 00 00 00 00	 call	 ___stdio_common_vsprintf

; 1391 :             _CRT_INTERNAL_LOCAL_PRINTF_OPTIONS | _CRT_INTERNAL_PRINTF_LEGACY_VSPRINTF_NULL_TERMINATION,
; 1392 :             _Buffer, _BufferCount, _Format, _Locale, _ArgList);
; 1393 : 
; 1394 :         return _Result < 0 ? -1 : _Result;

  00025	83 c9 ff	 or	 ecx, -1
  00028	83 c4 1c	 add	 esp, 28			; 0000001cH
  0002b	85 c0		 test	 eax, eax
  0002d	0f 48 c1	 cmovs	 eax, ecx

; 1970 :         int _Result;
; 1971 :         va_list _ArgList;
; 1972 :         __crt_va_start(_ArgList, _Format);
; 1973 :     #pragma warning(suppress:28719)    // 28719
; 1974 :         _Result = _vsnprintf(_Buffer, _BufferCount, _Format, _ArgList);
; 1975 :         __crt_va_end(_ArgList);
; 1976 :         return _Result;
; 1977 :     }

  00030	5d		 pop	 ebp
  00031	c3		 ret	 0
__snprintf ENDP
_TEXT	ENDS
; Function compile flags: /Ogtp
; File C:\Program Files (x86)\Windows Kits\10\Include\10.0.18362.0\ucrt\stdio.h
;	COMDAT _sprintf
_TEXT	SEGMENT
__Buffer$ = 8						; size = 4
__Format$ = 12						; size = 4
_sprintf PROC						; COMDAT

; 1781 :     {

  00000	55		 push	 ebp
  00001	8b ec		 mov	 ebp, esp

; 1390 :         int const _Result = __stdio_common_vsprintf(

  00003	8d 45 10	 lea	 eax, DWORD PTR __Format$[ebp+4]
  00006	50		 push	 eax
  00007	6a 00		 push	 0
  00009	ff 75 0c	 push	 DWORD PTR __Format$[ebp]
  0000c	6a ff		 push	 -1
  0000e	ff 75 08	 push	 DWORD PTR __Buffer$[ebp]
  00011	e8 00 00 00 00	 call	 ___local_stdio_printf_options
  00016	8b 08		 mov	 ecx, DWORD PTR [eax]
  00018	ff 70 04	 push	 DWORD PTR [eax+4]
  0001b	83 c9 01	 or	 ecx, 1
  0001e	51		 push	 ecx
  0001f	e8 00 00 00 00	 call	 ___stdio_common_vsprintf

; 1391 :             _CRT_INTERNAL_LOCAL_PRINTF_OPTIONS | _CRT_INTERNAL_PRINTF_LEGACY_VSPRINTF_NULL_TERMINATION,
; 1392 :             _Buffer, _BufferCount, _Format, _Locale, _ArgList);
; 1393 : 
; 1394 :         return _Result < 0 ? -1 : _Result;

  00024	83 c9 ff	 or	 ecx, -1
  00027	83 c4 1c	 add	 esp, 28			; 0000001cH
  0002a	85 c0		 test	 eax, eax
  0002c	0f 48 c1	 cmovs	 eax, ecx

; 1782 :         int _Result;
; 1783 :         va_list _ArgList;
; 1784 :         __crt_va_start(_ArgList, _Format);
; 1785 : 
; 1786 :         #pragma warning(push)
; 1787 :         #pragma warning(disable: 4996) // Deprecation
; 1788 :         _Result = _vsprintf_l(_Buffer, _Format, NULL, _ArgList);
; 1789 :         #pragma warning(pop)
; 1790 : 
; 1791 :         __crt_va_end(_ArgList);
; 1792 :         return _Result;
; 1793 :     }

  0002f	5d		 pop	 ebp
  00030	c3		 ret	 0
_sprintf ENDP
_TEXT	ENDS
; Function compile flags: /Ogtp
; File C:\Program Files (x86)\Windows Kits\10\Include\10.0.18362.0\ucrt\stdio.h
;	COMDAT _printf
_TEXT	SEGMENT
__Format$ = 8						; size = 4
_printf	PROC						; COMDAT

; 954  :     {

  00000	55		 push	 ebp
  00001	8b ec		 mov	 ebp, esp
  00003	56		 push	 esi

; 955  :         int _Result;
; 956  :         va_list _ArgList;
; 957  :         __crt_va_start(_ArgList, _Format);
; 958  :         _Result = _vfprintf_l(stdout, _Format, NULL, _ArgList);

  00004	8b 75 08	 mov	 esi, DWORD PTR __Format$[ebp]
  00007	6a 01		 push	 1
  00009	e8 00 00 00 00	 call	 ___acrt_iob_func
  0000e	83 c4 04	 add	 esp, 4

; 643  :         return __stdio_common_vfprintf(_CRT_INTERNAL_LOCAL_PRINTF_OPTIONS, _Stream, _Format, _Locale, _ArgList);

  00011	8d 4d 0c	 lea	 ecx, DWORD PTR __Format$[ebp+4]
  00014	51		 push	 ecx
  00015	6a 00		 push	 0
  00017	56		 push	 esi
  00018	50		 push	 eax
  00019	e8 00 00 00 00	 call	 ___local_stdio_printf_options
  0001e	ff 70 04	 push	 DWORD PTR [eax+4]
  00021	ff 30		 push	 DWORD PTR [eax]
  00023	e8 00 00 00 00	 call	 ___stdio_common_vfprintf
  00028	83 c4 18	 add	 esp, 24			; 00000018H

; 959  :         __crt_va_end(_ArgList);
; 960  :         return _Result;

  0002b	5e		 pop	 esi

; 961  :     }

  0002c	5d		 pop	 ebp
  0002d	c3		 ret	 0
_printf	ENDP
_TEXT	ENDS
; Function compile flags: /Ogtp
; File C:\Program Files (x86)\Windows Kits\10\Include\10.0.18362.0\ucrt\stdio.h
;	COMDAT _fprintf
_TEXT	SEGMENT
__Stream$ = 8						; size = 4
__Format$ = 12						; size = 4
_fprintf PROC						; COMDAT

; 835  :     {

  00000	55		 push	 ebp
  00001	8b ec		 mov	 ebp, esp

; 643  :         return __stdio_common_vfprintf(_CRT_INTERNAL_LOCAL_PRINTF_OPTIONS, _Stream, _Format, _Locale, _ArgList);

  00003	8d 45 10	 lea	 eax, DWORD PTR __Format$[ebp+4]
  00006	50		 push	 eax
  00007	6a 00		 push	 0
  00009	ff 75 0c	 push	 DWORD PTR __Format$[ebp]
  0000c	ff 75 08	 push	 DWORD PTR __Stream$[ebp]
  0000f	e8 00 00 00 00	 call	 ___local_stdio_printf_options
  00014	ff 70 04	 push	 DWORD PTR [eax+4]
  00017	ff 30		 push	 DWORD PTR [eax]
  00019	e8 00 00 00 00	 call	 ___stdio_common_vfprintf
  0001e	83 c4 18	 add	 esp, 24			; 00000018H

; 836  :         int _Result;
; 837  :         va_list _ArgList;
; 838  :         __crt_va_start(_ArgList, _Format);
; 839  :         _Result = _vfprintf_l(_Stream, _Format, NULL, _ArgList);
; 840  :         __crt_va_end(_ArgList);
; 841  :         return _Result;
; 842  :     }

  00021	5d		 pop	 ebp
  00022	c3		 ret	 0
_fprintf ENDP
_TEXT	ENDS
; Function compile flags: /Ogtp
; File C:\Program Files (x86)\Windows Kits\10\Include\10.0.18362.0\ucrt\corecrt_stdio_config.h
;	COMDAT ___local_stdio_printf_options
_TEXT	SEGMENT
___local_stdio_printf_options PROC			; COMDAT

; 87   :         static unsigned __int64 _OptionsStorage;
; 88   :         return &_OptionsStorage;

  00000	b8 00 00 00 00	 mov	 eax, OFFSET ?_OptionsStorage@?1??__local_stdio_printf_options@@9@4_KA ; `__local_stdio_printf_options'::`2'::_OptionsStorage

; 89   :     }

  00005	c3		 ret	 0
___local_stdio_printf_options ENDP
_TEXT	ENDS
; Function compile flags: /Ogtp
; File D:\Metin2 Server Files\mainline\SRC_2014\Metin2Client\UserInterface\PythonApplication.cpp
;	COMDAT ?__empty_global_delete@@YAXPAXI@Z
_TEXT	SEGMENT
___formal$ = 8						; size = 4
___formal$ = 12						; size = 4
?__empty_global_delete@@YAXPAXI@Z PROC			; __empty_global_delete, COMDAT

  00000	c2 00 00	 ret	 0
?__empty_global_delete@@YAXPAXI@Z ENDP			; __empty_global_delete
_TEXT	ENDS
; Function compile flags: /Ogtp
; File D:\Metin2 Server Files\mainline\SRC_2014\Metin2Client\UserInterface\PythonApplication.cpp
;	COMDAT ?__empty_global_delete@@YAXPAX@Z
_TEXT	SEGMENT
___formal$ = 8						; size = 4
?__empty_global_delete@@YAXPAX@Z PROC			; __empty_global_delete, COMDAT

  00000	c2 00 00	 ret	 0
?__empty_global_delete@@YAXPAX@Z ENDP			; __empty_global_delete
_TEXT	ENDS
; Function compile flags: /Ogtp
;	COMDAT ??_H@YGXPAXIIP6EPAX0@Z@Z
_TEXT	SEGMENT
___t$ = 8						; size = 4
___s$ = 12						; size = 4
___n$ = 16						; size = 4
___f$ = 20						; size = 4
??_H@YGXPAXIIP6EPAX0@Z@Z PROC				; `vector constructor iterator', COMDAT
  00000	55		 push	 ebp
  00001	8b ec		 mov	 ebp, esp
  00003	56		 push	 esi
  00004	8b 75 10	 mov	 esi, DWORD PTR ___n$[ebp]
  00007	85 f6		 test	 esi, esi
  00009	74 16		 je	 SHORT $LN6@vector
  0000b	53		 push	 ebx
  0000c	8b 5d 14	 mov	 ebx, DWORD PTR ___f$[ebp]
  0000f	57		 push	 edi
  00010	8b 7d 08	 mov	 edi, DWORD PTR ___t$[ebp]
$LL2@vector:
  00013	8b cf		 mov	 ecx, edi
  00015	ff d3		 call	 ebx
  00017	03 7d 0c	 add	 edi, DWORD PTR ___s$[ebp]
  0001a	83 ee 01	 sub	 esi, 1
  0001d	75 f4		 jne	 SHORT $LL2@vector
  0001f	5f		 pop	 edi
  00020	5b		 pop	 ebx
$LN6@vector:
  00021	5e		 pop	 esi
  00022	5d		 pop	 ebp
  00023	c2 10 00	 ret	 16			; 00000010H
??_H@YGXPAXIIP6EPAX0@Z@Z ENDP				; `vector constructor iterator'
_TEXT	ENDS
END
